; Listing generated by Microsoft (R) Optimizing Compiler Version 19.28.29335.0 

	TITLE	D:\Metin2 Server Files\mainline\SRC_2014\Metin2Client\eterPythonLib\PythonSlotWindow.cpp
	.686P
	.XMM
	include listing.inc
	.model	flat

INCLUDELIB LIBCMT
INCLUDELIB OLDNAMES

PUBLIC	___local_stdio_printf_options
PUBLIC	__snprintf
PUBLIC	??0exception@std@@QAE@ABV01@@Z			; std::exception::exception
PUBLIC	??1exception@std@@UAE@XZ			; std::exception::~exception
PUBLIC	?what@exception@std@@UBEPBDXZ			; std::exception::what
PUBLIC	??_Gexception@std@@UAEPAXI@Z			; std::exception::`scalar deleting destructor'
PUBLIC	??0bad_alloc@std@@QAE@ABV01@@Z			; std::bad_alloc::bad_alloc
PUBLIC	??_Gbad_alloc@std@@UAEPAXI@Z			; std::bad_alloc::`scalar deleting destructor'
PUBLIC	??0bad_array_new_length@std@@QAE@XZ		; std::bad_array_new_length::bad_array_new_length
PUBLIC	??1bad_array_new_length@std@@UAE@XZ		; std::bad_array_new_length::~bad_array_new_length
PUBLIC	??0bad_array_new_length@std@@QAE@ABV01@@Z	; std::bad_array_new_length::bad_array_new_length
PUBLIC	??_Gbad_array_new_length@std@@UAEPAXI@Z		; std::bad_array_new_length::`scalar deleting destructor'
PUBLIC	?_Throw_bad_array_new_length@std@@YAXXZ		; std::_Throw_bad_array_new_length
PUBLIC	??$_Deallocate@$07$0A@@std@@YAXPAXI@Z		; std::_Deallocate<8,0>
PUBLIC	??$_Allocate@$07U_Default_allocate_traits@std@@$0A@@std@@YAPAXI@Z ; std::_Allocate<8,std::_Default_allocate_traits,0>
PUBLIC	??$_Allocate_manually_vector_aligned@U_Default_allocate_traits@std@@@std@@YAPAXI@Z ; std::_Allocate_manually_vector_aligned<std::_Default_allocate_traits>
PUBLIC	?OnChangePosition@CWindow@UI@@UAEXXZ		; UI::CWindow::OnChangePosition
PUBLIC	?SetColor@CWindow@UI@@UAEXK@Z			; UI::CWindow::SetColor
PUBLIC	?IsWindow@CWindow@UI@@UAEHXZ			; UI::CWindow::IsWindow
PUBLIC	?Type@CSlotWindow@UI@@SAKXZ			; UI::CSlotWindow::Type
PUBLIC	??1?$list@USSlot@CSlotWindow@UI@@V?$allocator@USSlot@CSlotWindow@UI@@@std@@@std@@QAE@XZ ; std::list<UI::CSlotWindow::SSlot,std::allocator<UI::CSlotWindow::SSlot> >::~list<UI::CSlotWindow::SSlot,std::allocator<UI::CSlotWindow::SSlot> >
PUBLIC	??0CSlotWindow@UI@@QAE@PAU_object@@@Z		; UI::CSlotWindow::CSlotWindow
PUBLIC	??1CSlotWindow@UI@@UAE@XZ			; UI::CSlotWindow::~CSlotWindow
PUBLIC	?Destroy@CSlotWindow@UI@@QAEXXZ			; UI::CSlotWindow::Destroy
PUBLIC	?SetSlotType@CSlotWindow@UI@@QAEXK@Z		; UI::CSlotWindow::SetSlotType
PUBLIC	?SetSlotStyle@CSlotWindow@UI@@QAEXK@Z		; UI::CSlotWindow::SetSlotStyle
PUBLIC	?AppendSlot@CSlotWindow@UI@@QAEXKHHHH@Z		; UI::CSlotWindow::AppendSlot
PUBLIC	?SetCoverButton@CSlotWindow@UI@@QAEXKPBD000HH@Z	; UI::CSlotWindow::SetCoverButton
PUBLIC	?SetSlotBaseImage@CSlotWindow@UI@@QAEXPBDMMMM@Z	; UI::CSlotWindow::SetSlotBaseImage
PUBLIC	?AppendSlotButton@CSlotWindow@UI@@QAEXPBD00@Z	; UI::CSlotWindow::AppendSlotButton
PUBLIC	?AppendRequirementSignImage@CSlotWindow@UI@@QAEXPBD@Z ; UI::CSlotWindow::AppendRequirementSignImage
PUBLIC	?EnableCoverButton@CSlotWindow@UI@@QAEXK@Z	; UI::CSlotWindow::EnableCoverButton
PUBLIC	?DisableCoverButton@CSlotWindow@UI@@QAEXK@Z	; UI::CSlotWindow::DisableCoverButton
PUBLIC	?SetAlwaysRenderCoverButton@CSlotWindow@UI@@QAEXK_N@Z ; UI::CSlotWindow::SetAlwaysRenderCoverButton
PUBLIC	?ShowSlotBaseImage@CSlotWindow@UI@@QAEXK@Z	; UI::CSlotWindow::ShowSlotBaseImage
PUBLIC	?HideSlotBaseImage@CSlotWindow@UI@@QAEXK@Z	; UI::CSlotWindow::HideSlotBaseImage
PUBLIC	?IsDisableCoverButton@CSlotWindow@UI@@QAEHK@Z	; UI::CSlotWindow::IsDisableCoverButton
PUBLIC	?HasSlot@CSlotWindow@UI@@QAEHK@Z		; UI::CSlotWindow::HasSlot
PUBLIC	?ClearAllSlot@CSlotWindow@UI@@QAEXXZ		; UI::CSlotWindow::ClearAllSlot
PUBLIC	?ClearSlot@CSlotWindow@UI@@QAEXK@Z		; UI::CSlotWindow::ClearSlot
PUBLIC	?SetSlot@CSlotWindow@UI@@QAEXKKEEPAVCGraphicImage@@AAUD3DXCOLOR@@@Z ; UI::CSlotWindow::SetSlot
PUBLIC	?SetSlotCount@CSlotWindow@UI@@QAEXKK@Z		; UI::CSlotWindow::SetSlotCount
PUBLIC	?SetSlotCountNew@CSlotWindow@UI@@QAEXKKK@Z	; UI::CSlotWindow::SetSlotCountNew
PUBLIC	?SetSlotCoolTime@CSlotWindow@UI@@QAEXKMM@Z	; UI::CSlotWindow::SetSlotCoolTime
PUBLIC	?ActivateSlot@CSlotWindow@UI@@QAEXK@Z		; UI::CSlotWindow::ActivateSlot
PUBLIC	?DeactivateSlot@CSlotWindow@UI@@QAEXK@Z		; UI::CSlotWindow::DeactivateSlot
PUBLIC	?RefreshSlot@CSlotWindow@UI@@QAEXXZ		; UI::CSlotWindow::RefreshSlot
PUBLIC	?GetSlotCount@CSlotWindow@UI@@QAEKXZ		; UI::CSlotWindow::GetSlotCount
PUBLIC	?LockSlot@CSlotWindow@UI@@QAEXK@Z		; UI::CSlotWindow::LockSlot
PUBLIC	?UnlockSlot@CSlotWindow@UI@@QAEXK@Z		; UI::CSlotWindow::UnlockSlot
PUBLIC	?SetCantUseSlot@CSlotWindow@UI@@QAEXK@Z		; UI::CSlotWindow::SetCantUseSlot
PUBLIC	?SetUseSlot@CSlotWindow@UI@@QAEXK@Z		; UI::CSlotWindow::SetUseSlot
PUBLIC	?EnableSlot@CSlotWindow@UI@@QAEXK@Z		; UI::CSlotWindow::EnableSlot
PUBLIC	?DisableSlot@CSlotWindow@UI@@QAEXK@Z		; UI::CSlotWindow::DisableSlot
PUBLIC	?ClearSelected@CSlotWindow@UI@@QAEXXZ		; UI::CSlotWindow::ClearSelected
PUBLIC	?SelectSlot@CSlotWindow@UI@@QAEXK@Z		; UI::CSlotWindow::SelectSlot
PUBLIC	?isSelectedSlot@CSlotWindow@UI@@QAEHK@Z		; UI::CSlotWindow::isSelectedSlot
PUBLIC	?GetSelectedSlotCount@CSlotWindow@UI@@QAEKXZ	; UI::CSlotWindow::GetSelectedSlotCount
PUBLIC	?GetSelectedSlotNumber@CSlotWindow@UI@@QAEKK@Z	; UI::CSlotWindow::GetSelectedSlotNumber
PUBLIC	?ShowSlotButton@CSlotWindow@UI@@QAEXK@Z		; UI::CSlotWindow::ShowSlotButton
PUBLIC	?HideAllSlotButton@CSlotWindow@UI@@QAEXXZ	; UI::CSlotWindow::HideAllSlotButton
PUBLIC	?OnPressedSlotButton@CSlotWindow@UI@@QAEXKKH@Z	; UI::CSlotWindow::OnPressedSlotButton
PUBLIC	?ShowRequirementSign@CSlotWindow@UI@@QAEXK@Z	; UI::CSlotWindow::ShowRequirementSign
PUBLIC	?HideRequirementSign@CSlotWindow@UI@@QAEXK@Z	; UI::CSlotWindow::HideRequirementSign
PUBLIC	?OnOverInItem@CSlotWindow@UI@@QAEHK@Z		; UI::CSlotWindow::OnOverInItem
PUBLIC	?OnOverOutItem@CSlotWindow@UI@@QAEXXZ		; UI::CSlotWindow::OnOverOutItem
PUBLIC	?SetUseMode@CSlotWindow@UI@@QAEXH@Z		; UI::CSlotWindow::SetUseMode
PUBLIC	?SetUsableItem@CSlotWindow@UI@@QAEXH@Z		; UI::CSlotWindow::SetUsableItem
PUBLIC	?ReserveDestroyCoolTimeFinishEffect@CSlotWindow@UI@@QAEXK@Z ; UI::CSlotWindow::ReserveDestroyCoolTimeFinishEffect
PUBLIC	?__Initialize@CSlotWindow@UI@@IAEXXZ		; UI::CSlotWindow::__Initialize
PUBLIC	?__CreateToggleSlotImage@CSlotWindow@UI@@IAEXXZ	; UI::CSlotWindow::__CreateToggleSlotImage
PUBLIC	?__CreateSlotEnableEffect@CSlotWindow@UI@@IAEXXZ ; UI::CSlotWindow::__CreateSlotEnableEffect
PUBLIC	?__CreateFinishCoolTimeEffect@CSlotWindow@UI@@IAEXPAUSSlot@12@@Z ; UI::CSlotWindow::__CreateFinishCoolTimeEffect
PUBLIC	?__CreateBaseImage@CSlotWindow@UI@@IAEXPBDMMMM@Z ; UI::CSlotWindow::__CreateBaseImage
PUBLIC	?__DestroyToggleSlotImage@CSlotWindow@UI@@IAEXXZ ; UI::CSlotWindow::__DestroyToggleSlotImage
PUBLIC	?__DestroySlotEnableEffect@CSlotWindow@UI@@IAEXXZ ; UI::CSlotWindow::__DestroySlotEnableEffect
PUBLIC	?__DestroyFinishCoolTimeEffect@CSlotWindow@UI@@IAEXPAUSSlot@12@@Z ; UI::CSlotWindow::__DestroyFinishCoolTimeEffect
PUBLIC	?__DestroyBaseImage@CSlotWindow@UI@@IAEXXZ	; UI::CSlotWindow::__DestroyBaseImage
PUBLIC	?OnUpdate@CSlotWindow@UI@@MAEXXZ		; UI::CSlotWindow::OnUpdate
PUBLIC	?OnRender@CSlotWindow@UI@@MAEXXZ		; UI::CSlotWindow::OnRender
PUBLIC	?OnMouseLeftButtonDown@CSlotWindow@UI@@MAEHXZ	; UI::CSlotWindow::OnMouseLeftButtonDown
PUBLIC	?OnMouseLeftButtonUp@CSlotWindow@UI@@MAEHXZ	; UI::CSlotWindow::OnMouseLeftButtonUp
PUBLIC	?OnMouseRightButtonDown@CSlotWindow@UI@@MAEHXZ	; UI::CSlotWindow::OnMouseRightButtonDown
PUBLIC	?OnMouseLeftButtonDoubleClick@CSlotWindow@UI@@MAEHXZ ; UI::CSlotWindow::OnMouseLeftButtonDoubleClick
PUBLIC	?OnMouseOverOut@CSlotWindow@UI@@MAEXXZ		; UI::CSlotWindow::OnMouseOverOut
PUBLIC	?OnMouseOver@CSlotWindow@UI@@MAEXXZ		; UI::CSlotWindow::OnMouseOver
PUBLIC	?RenderSlotBaseImage@CSlotWindow@UI@@IAEXXZ	; UI::CSlotWindow::RenderSlotBaseImage
PUBLIC	?RenderLockedSlot@CSlotWindow@UI@@IAEXXZ	; UI::CSlotWindow::RenderLockedSlot
PUBLIC	?OnRenderPickingSlot@CSlotWindow@UI@@MAEXXZ	; UI::CSlotWindow::OnRenderPickingSlot
PUBLIC	?OnRenderSelectedSlot@CSlotWindow@UI@@MAEXXZ	; UI::CSlotWindow::OnRenderSelectedSlot
PUBLIC	?OnSelectEmptySlot@CSlotWindow@UI@@IAEXH@Z	; UI::CSlotWindow::OnSelectEmptySlot
PUBLIC	?OnSelectItemSlot@CSlotWindow@UI@@IAEXH@Z	; UI::CSlotWindow::OnSelectItemSlot
PUBLIC	?OnUnselectEmptySlot@CSlotWindow@UI@@IAEXH@Z	; UI::CSlotWindow::OnUnselectEmptySlot
PUBLIC	?OnUnselectItemSlot@CSlotWindow@UI@@IAEXH@Z	; UI::CSlotWindow::OnUnselectItemSlot
PUBLIC	?OnUseSlot@CSlotWindow@UI@@IAEXXZ		; UI::CSlotWindow::OnUseSlot
PUBLIC	?GetSlotPointer@CSlotWindow@UI@@IAEHKPAPAUSSlot@12@@Z ; UI::CSlotWindow::GetSlotPointer
PUBLIC	?GetSelectedSlotPointer@CSlotWindow@UI@@IAEHPAPAUSSlot@12@@Z ; UI::CSlotWindow::GetSelectedSlotPointer
PUBLIC	?GetPickedSlotPointer@CSlotWindow@UI@@MAEHPAPAUSSlot@12@@Z ; UI::CSlotWindow::GetPickedSlotPointer
PUBLIC	?ClearSlot@CSlotWindow@UI@@IAEXPAUSSlot@12@@Z	; UI::CSlotWindow::ClearSlot
PUBLIC	?OnRefreshSlot@CSlotWindow@UI@@MAEXXZ		; UI::CSlotWindow::OnRefreshSlot
PUBLIC	?OnIsType@CSlotWindow@UI@@MAEHK@Z		; UI::CSlotWindow::OnIsType
PUBLIC	??1?$list@KV?$allocator@K@std@@@std@@QAE@XZ	; std::list<unsigned long,std::allocator<unsigned long> >::~list<unsigned long,std::allocator<unsigned long> >
PUBLIC	?_Xlen@?$deque@KV?$allocator@K@std@@@std@@ABEXXZ ; std::deque<unsigned long,std::allocator<unsigned long> >::_Xlen
PUBLIC	?_Tidy@?$deque@KV?$allocator@K@std@@@std@@AAEXXZ ; std::deque<unsigned long,std::allocator<unsigned long> >::_Tidy
PUBLIC	??_GCSlotWindow@UI@@UAEPAXI@Z			; UI::CSlotWindow::`scalar deleting destructor'
PUBLIC	??1CSlotButton@CSlotWindow@UI@@UAE@XZ		; UI::CSlotWindow::CSlotButton::~CSlotButton
PUBLIC	?OnMouseLeftButtonDown@CSlotButton@CSlotWindow@UI@@UAEHXZ ; UI::CSlotWindow::CSlotButton::OnMouseLeftButtonDown
PUBLIC	?OnMouseLeftButtonUp@CSlotButton@CSlotWindow@UI@@UAEHXZ ; UI::CSlotWindow::CSlotButton::OnMouseLeftButtonUp
PUBLIC	?OnMouseOverIn@CSlotButton@CSlotWindow@UI@@UAEXXZ ; UI::CSlotWindow::CSlotButton::OnMouseOverIn
PUBLIC	?OnMouseOverOut@CSlotButton@CSlotWindow@UI@@UAEXXZ ; UI::CSlotWindow::CSlotButton::OnMouseOverOut
PUBLIC	??_GCSlotButton@CSlotWindow@UI@@UAEPAXI@Z	; UI::CSlotWindow::CSlotButton::`scalar deleting destructor'
PUBLIC	??1CCoverButton@CSlotWindow@UI@@UAE@XZ		; UI::CSlotWindow::CCoverButton::~CCoverButton
PUBLIC	?OnRender@CCoverButton@CSlotWindow@UI@@UAEXXZ	; UI::CSlotWindow::CCoverButton::OnRender
PUBLIC	?OnMouseLeftButtonDown@CCoverButton@CSlotWindow@UI@@UAEHXZ ; UI::CSlotWindow::CCoverButton::OnMouseLeftButtonDown
PUBLIC	?OnMouseLeftButtonUp@CCoverButton@CSlotWindow@UI@@UAEHXZ ; UI::CSlotWindow::CCoverButton::OnMouseLeftButtonUp
PUBLIC	?OnMouseRightButtonDown@CCoverButton@CSlotWindow@UI@@UAEHXZ ; UI::CSlotWindow::CCoverButton::OnMouseRightButtonDown
PUBLIC	?OnMouseRightButtonUp@CCoverButton@CSlotWindow@UI@@UAEHXZ ; UI::CSlotWindow::CCoverButton::OnMouseRightButtonUp
PUBLIC	??_GCCoverButton@CSlotWindow@UI@@UAEPAXI@Z	; UI::CSlotWindow::CCoverButton::`scalar deleting destructor'
PUBLIC	??1CCoolTimeFinishEffect@CSlotWindow@UI@@UAE@XZ	; UI::CSlotWindow::CCoolTimeFinishEffect::~CCoolTimeFinishEffect
PUBLIC	?OnEndFrame@CCoolTimeFinishEffect@CSlotWindow@UI@@UAEXXZ ; UI::CSlotWindow::CCoolTimeFinishEffect::OnEndFrame
PUBLIC	??_GCCoolTimeFinishEffect@CSlotWindow@UI@@UAEPAXI@Z ; UI::CSlotWindow::CCoolTimeFinishEffect::`scalar deleting destructor'
PUBLIC	??_9CWindow@UI@@$B3AE				; UI::CWindow::`vcall'{4}'
PUBLIC	??$_Emplace_back_internal@ABK@?$deque@KV?$allocator@K@std@@@std@@AAEXABK@Z ; std::deque<unsigned long,std::allocator<unsigned long> >::_Emplace_back_internal<unsigned long const &>
PUBLIC	??$_Delete_plain_internal@V?$allocator@U_Container_proxy@std@@@std@@@std@@YAXAAV?$allocator@U_Container_proxy@std@@@0@QAU_Container_proxy@0@@Z ; std::_Delete_plain_internal<std::allocator<std::_Container_proxy> >
PUBLIC	??$_Destroy_in_place@PAK@std@@YAXAAPAK@Z	; std::_Destroy_in_place<unsigned long *>
PUBLIC	??$_Construct_in_place@PAU?$_List_node@KPAX@std@@AAPAU12@@std@@YAXAAPAU?$_List_node@KPAX@0@0@Z ; std::_Construct_in_place<std::_List_node<unsigned long,void *> *,std::_List_node<unsigned long,void *> * &>
PUBLIC	??$_Construct_in_place@PAU?$_List_node@USSlot@CSlotWindow@UI@@PAX@std@@AAPAU12@@std@@YAXAAPAU?$_List_node@USSlot@CSlotWindow@UI@@PAX@0@0@Z ; std::_Construct_in_place<std::_List_node<UI::CSlotWindow::SSlot,void *> *,std::_List_node<UI::CSlotWindow::SSlot,void *> * &>
PUBLIC	??$_Deallocate_plain@V?$allocator@U_Container_proxy@std@@@std@@@std@@YAXAAV?$allocator@U_Container_proxy@std@@@0@QAU_Container_proxy@0@@Z ; std::_Deallocate_plain<std::allocator<std::_Container_proxy> >
PUBLIC	??$_Construct_in_place@U_Container_proxy@std@@PAU_Container_base12@2@@std@@YAXAAU_Container_proxy@0@$$QAPAU_Container_base12@0@@Z ; std::_Construct_in_place<std::_Container_proxy,std::_Container_base12 *>
PUBLIC	??1?$_Alloc_construct_ptr@V?$allocator@U?$_List_node@KPAX@std@@@std@@@std@@QAE@XZ ; std::_Alloc_construct_ptr<std::allocator<std::_List_node<unsigned long,void *> > >::~_Alloc_construct_ptr<std::allocator<std::_List_node<unsigned long,void *> > >
PUBLIC	??1?$_Alloc_construct_ptr@V?$allocator@U?$_List_node@USSlot@CSlotWindow@UI@@PAX@std@@@std@@@std@@QAE@XZ ; std::_Alloc_construct_ptr<std::allocator<std::_List_node<UI::CSlotWindow::SSlot,void *> > >::~_Alloc_construct_ptr<std::allocator<std::_List_node<UI::CSlotWindow::SSlot,void *> > >
PUBLIC	??$_Destroy_in_place@PAU?$_List_node@KPAX@std@@@std@@YAXAAPAU?$_List_node@KPAX@0@@Z ; std::_Destroy_in_place<std::_List_node<unsigned long,void *> *>
PUBLIC	??$_Destroy_in_place@PAU?$_List_node@USSlot@CSlotWindow@UI@@PAX@std@@@std@@YAXAAPAU?$_List_node@USSlot@CSlotWindow@UI@@PAX@0@@Z ; std::_Destroy_in_place<std::_List_node<UI::CSlotWindow::SSlot,void *> *>
PUBLIC	??$_Construct_in_place@PAU?$_List_node@USSlot@CSlotWindow@UI@@PAX@std@@ABQAU12@@std@@YAXAAPAU?$_List_node@USSlot@CSlotWindow@UI@@PAX@0@ABQAU10@@Z ; std::_Construct_in_place<std::_List_node<UI::CSlotWindow::SSlot,void *> *,std::_List_node<UI::CSlotWindow::SSlot,void *> * const &>
PUBLIC	??$_Construct_in_place@PAU?$_List_node@KPAX@std@@ABQAU12@@std@@YAXAAPAU?$_List_node@KPAX@0@ABQAU10@@Z ; std::_Construct_in_place<std::_List_node<unsigned long,void *> *,std::_List_node<unsigned long,void *> * const &>
PUBLIC	??$uninitialized_copy@PAPAKPAPAK@std@@YAPAPAKQAPAK0PAPAK@Z ; std::uninitialized_copy<unsigned long * *,unsigned long * *>
PUBLIC	??$_Uninitialized_value_construct_n_unchecked1@PAPAKI@std@@YAPAPAKPAPAKI@Z ; std::_Uninitialized_value_construct_n_unchecked1<unsigned long * *,unsigned int>
PUBLIC	??$_Destroy_range@PAPAKPAPAK@std@@YAXPAPAKQAPAK@Z ; std::_Destroy_range<unsigned long * *,unsigned long * *>
PUBLIC	??$_Copy_memmove@PAPAKPAPAK@std@@YAPAPAKPAPAK00@Z ; std::_Copy_memmove<unsigned long * *,unsigned long * *>
PUBLIC	??$_Zero_range@PAPAK@std@@YAPAPAKQAPAK0@Z	; std::_Zero_range<unsigned long * *>
PUBLIC	?_OptionsStorage@?1??__local_stdio_printf_options@@9@4_KA ; `__local_stdio_printf_options'::`2'::_OptionsStorage
PUBLIC	??_7exception@std@@6B@				; std::exception::`vftable'
PUBLIC	??_C@_0BC@EOODALEL@Unknown?5exception@		; `string'
PUBLIC	??_7bad_alloc@std@@6B@				; std::bad_alloc::`vftable'
PUBLIC	??_7bad_array_new_length@std@@6B@		; std::bad_array_new_length::`vftable'
PUBLIC	??_C@_0BF@KINCDENJ@bad?5array?5new?5length@	; `string'
PUBLIC	__TI3?AVbad_array_new_length@std@@
PUBLIC	__CTA3?AVbad_array_new_length@std@@
PUBLIC	??_R0?AVbad_array_new_length@std@@@8		; std::bad_array_new_length `RTTI Type Descriptor'
PUBLIC	__CT??_R0?AVbad_array_new_length@std@@@8??0bad_array_new_length@std@@QAE@ABV01@@Z12
PUBLIC	??_R0?AVbad_alloc@std@@@8			; std::bad_alloc `RTTI Type Descriptor'
PUBLIC	__CT??_R0?AVbad_alloc@std@@@8??0bad_alloc@std@@QAE@ABV01@@Z12
PUBLIC	??_R0?AVexception@std@@@8			; std::exception `RTTI Type Descriptor'
PUBLIC	__CT??_R0?AVexception@std@@@8??0exception@std@@QAE@ABV01@@Z12
PUBLIC	?ms_singleton@?$CSingleton@VCTimer@@@@0PAVCTimer@@A ; CSingleton<CTimer>::ms_singleton
PUBLIC	?ms_singleton@?$CSingleton@VCResourceManager@@@@0PAVCResourceManager@@A ; CSingleton<CResourceManager>::ms_singleton
PUBLIC	?ms_singleton@?$CSingleton@VCPythonGraphic@@@@0PAVCPythonGraphic@@A ; CSingleton<CPythonGraphic>::ms_singleton
PUBLIC	?ms_singleton@?$CSingleton@VCWindowManager@UI@@@@0PAVCWindowManager@UI@@A ; CSingleton<UI::CWindowManager>::ms_singleton
PUBLIC	??_R4exception@std@@6B@				; std::exception::`RTTI Complete Object Locator'
PUBLIC	??_R3exception@std@@8				; std::exception::`RTTI Class Hierarchy Descriptor'
PUBLIC	??_R2exception@std@@8				; std::exception::`RTTI Base Class Array'
PUBLIC	??_R1A@?0A@EA@exception@std@@8			; std::exception::`RTTI Base Class Descriptor at (0,-1,0,64)'
PUBLIC	??_R4bad_alloc@std@@6B@				; std::bad_alloc::`RTTI Complete Object Locator'
PUBLIC	??_R3bad_alloc@std@@8				; std::bad_alloc::`RTTI Class Hierarchy Descriptor'
PUBLIC	??_R2bad_alloc@std@@8				; std::bad_alloc::`RTTI Base Class Array'
PUBLIC	??_R1A@?0A@EA@bad_alloc@std@@8			; std::bad_alloc::`RTTI Base Class Descriptor at (0,-1,0,64)'
PUBLIC	??_R4bad_array_new_length@std@@6B@		; std::bad_array_new_length::`RTTI Complete Object Locator'
PUBLIC	??_R3bad_array_new_length@std@@8		; std::bad_array_new_length::`RTTI Class Hierarchy Descriptor'
PUBLIC	??_R2bad_array_new_length@std@@8		; std::bad_array_new_length::`RTTI Base Class Array'
PUBLIC	??_R1A@?0A@EA@bad_array_new_length@std@@8	; std::bad_array_new_length::`RTTI Base Class Descriptor at (0,-1,0,64)'
PUBLIC	??_7CSlotWindow@UI@@6B@				; UI::CSlotWindow::`vftable'
PUBLIC	??_7CSlotButton@CSlotWindow@UI@@6B@		; UI::CSlotWindow::CSlotButton::`vftable'
PUBLIC	??_7CCoverButton@CSlotWindow@UI@@6B@		; UI::CSlotWindow::CCoverButton::`vftable'
PUBLIC	??_7CCoolTimeFinishEffect@CSlotWindow@UI@@6B@	; UI::CSlotWindow::CCoolTimeFinishEffect::`vftable'
PUBLIC	??_C@_02DPKJAMEF@?$CFd@				; `string'
PUBLIC	??_C@_03CIOACFJF@m?$CFd@			; `string'
PUBLIC	??_C@_03EHFNMFPB@g?$CFd@			; `string'
PUBLIC	??_C@_01JBBJJEPG@p@				; `string'
PUBLIC	??_C@_03LIHNMIHG@?$CIi?$CJ@			; `string'
PUBLIC	??_C@_0BC@JJECHKOF@OnSelectEmptySlot@		; `string'
PUBLIC	??_C@_0BB@PFHJJJ@OnSelectItemSlot@		; `string'
PUBLIC	??_C@_0BE@GMADJAFC@OnUnselectEmptySlot@		; `string'
PUBLIC	??_C@_0BD@EONLJJMO@OnUnselectItemSlot@		; `string'
PUBLIC	??_C@_09HJIBPFCA@OnUseSlot@			; `string'
PUBLIC	??_C@_0N@CBOPEHFH@OnOverInItem@			; `string'
PUBLIC	??_C@_02HCKGKOFO@?$CI?$CJ@			; `string'
PUBLIC	??_C@_0O@IBCIPGEP@OnOverOutItem@		; `string'
PUBLIC	??_C@_0BE@MBGDMPNF@OnPressedSlotButton@		; `string'
PUBLIC	??_C@_0M@DKKKJBKL@CSlotWindow@			; `string'
PUBLIC	??_C@_0CH@JJGPDFBJ@d?3?1ymir?5work?1ui?1public?1slot_tog@ ; `string'
PUBLIC	??_C@_0CP@LLEDDNBJ@d?3?1ymir?5work?1ui?1public?1slotacti@ ; `string'
PUBLIC	??_C@_0CP@HABPOOLM@d?3?1ymir?5work?1ui?1public?1slotacti@ ; `string'
PUBLIC	??_C@_0CP@PGILJMBC@d?3?1ymir?5work?1ui?1public?1slotacti@ ; `string'
PUBLIC	??_C@_0CP@DNNHEPLH@d?3?1ymir?5work?1ui?1public?1slotacti@ ; `string'
PUBLIC	??_C@_0CP@CANCHPAP@d?3?1ymir?5work?1ui?1public?1slotacti@ ; `string'
PUBLIC	??_C@_0CP@OLIOKMKK@d?3?1ymir?5work?1ui?1public?1slotacti@ ; `string'
PUBLIC	??_C@_0CP@GNBKNOAE@d?3?1ymir?5work?1ui?1public?1slotacti@ ; `string'
PUBLIC	??_C@_0CP@KGEGANKB@d?3?1ymir?5work?1ui?1public?1slotacti@ ; `string'
PUBLIC	??_C@_0CP@FHBALPHE@d?3?1ymir?5work?1ui?1public?1slotacti@ ; `string'
PUBLIC	??_C@_0CP@JMEMGMNB@d?3?1ymir?5work?1ui?1public?1slotacti@ ; `string'
PUBLIC	??_C@_0CP@BNDEDGKN@d?3?1ymir?5work?1ui?1public?1slotacti@ ; `string'
PUBLIC	??_C@_0CP@NGGIOFAI@d?3?1ymir?5work?1ui?1public?1slotacti@ ; `string'
PUBLIC	??_C@_0CP@FAPMJHKG@d?3?1ymir?5work?1ui?1public?1slotacti@ ; `string'
PUBLIC	??_C@_0DH@EECLJILE@d?3?1ymir?5work?1ui?1public?1slotfini@ ; `string'
PUBLIC	??_C@_0DH@IPHHELBB@d?3?1ymir?5work?1ui?1public?1slotfini@ ; `string'
PUBLIC	??_C@_0DH@JODDJLP@d?3?1ymir?5work?1ui?1public?1slotfini@ ; `string'
PUBLIC	??_C@_0DH@MCLPOKBK@d?3?1ymir?5work?1ui?1public?1slotfini@ ; `string'
PUBLIC	??_C@_0DH@NPLKNKKC@d?3?1ymir?5work?1ui?1public?1slotfini@ ; `string'
PUBLIC	??_C@_0DH@BEOGAJAH@d?3?1ymir?5work?1ui?1public?1slotfini@ ; `string'
PUBLIC	??_C@_0DH@JCHCHLKJ@d?3?1ymir?5work?1ui?1public?1slotfini@ ; `string'
PUBLIC	??_C@_0DH@FJCOKIAM@d?3?1ymir?5work?1ui?1public?1slotfini@ ; `string'
PUBLIC	??_C@_0DH@KIHIBKNJ@d?3?1ymir?5work?1ui?1public?1slotfini@ ; `string'
PUBLIC	??_C@_0DH@GDCEMJHM@d?3?1ymir?5work?1ui?1public?1slotfini@ ; `string'
PUBLIC	??_C@_0DH@OCFMJDAA@d?3?1ymir?5work?1ui?1public?1slotfini@ ; `string'
PUBLIC	??_C@_0O@NKNMEGII@list?5too?5long@		; `string'
PUBLIC	??_C@_0BC@KBDMBKEH@deque?$DMT?$DO?5too?5long@	; `string'
PUBLIC	??_R1A@?0A@EA@CWindow@UI@@8			; UI::CWindow::`RTTI Base Class Descriptor at (0,-1,0,64)'
PUBLIC	??_R0?AVCWindow@UI@@@8				; UI::CWindow `RTTI Type Descriptor'
PUBLIC	??_R3CWindow@UI@@8				; UI::CWindow::`RTTI Class Hierarchy Descriptor'
PUBLIC	??_R2CWindow@UI@@8				; UI::CWindow::`RTTI Base Class Array'
PUBLIC	??_R4CSlotWindow@UI@@6B@			; UI::CSlotWindow::`RTTI Complete Object Locator'
PUBLIC	??_R0?AVCSlotWindow@UI@@@8			; UI::CSlotWindow `RTTI Type Descriptor'
PUBLIC	??_R3CSlotWindow@UI@@8				; UI::CSlotWindow::`RTTI Class Hierarchy Descriptor'
PUBLIC	??_R2CSlotWindow@UI@@8				; UI::CSlotWindow::`RTTI Base Class Array'
PUBLIC	??_R1A@?0A@EA@CSlotWindow@UI@@8			; UI::CSlotWindow::`RTTI Base Class Descriptor at (0,-1,0,64)'
PUBLIC	??_R4CSlotButton@CSlotWindow@UI@@6B@		; UI::CSlotWindow::CSlotButton::`RTTI Complete Object Locator'
PUBLIC	??_R0?AVCSlotButton@CSlotWindow@UI@@@8		; UI::CSlotWindow::CSlotButton `RTTI Type Descriptor'
PUBLIC	??_R3CSlotButton@CSlotWindow@UI@@8		; UI::CSlotWindow::CSlotButton::`RTTI Class Hierarchy Descriptor'
PUBLIC	??_R2CSlotButton@CSlotWindow@UI@@8		; UI::CSlotWindow::CSlotButton::`RTTI Base Class Array'
PUBLIC	??_R1A@?0A@EA@CSlotButton@CSlotWindow@UI@@8	; UI::CSlotWindow::CSlotButton::`RTTI Base Class Descriptor at (0,-1,0,64)'
PUBLIC	??_R1A@?0A@EA@CButton@UI@@8			; UI::CButton::`RTTI Base Class Descriptor at (0,-1,0,64)'
PUBLIC	??_R0?AVCButton@UI@@@8				; UI::CButton `RTTI Type Descriptor'
PUBLIC	??_R3CButton@UI@@8				; UI::CButton::`RTTI Class Hierarchy Descriptor'
PUBLIC	??_R2CButton@UI@@8				; UI::CButton::`RTTI Base Class Array'
PUBLIC	??_R4CCoverButton@CSlotWindow@UI@@6B@		; UI::CSlotWindow::CCoverButton::`RTTI Complete Object Locator'
PUBLIC	??_R0?AVCCoverButton@CSlotWindow@UI@@@8		; UI::CSlotWindow::CCoverButton `RTTI Type Descriptor'
PUBLIC	??_R3CCoverButton@CSlotWindow@UI@@8		; UI::CSlotWindow::CCoverButton::`RTTI Class Hierarchy Descriptor'
PUBLIC	??_R2CCoverButton@CSlotWindow@UI@@8		; UI::CSlotWindow::CCoverButton::`RTTI Base Class Array'
PUBLIC	??_R1A@?0A@EA@CCoverButton@CSlotWindow@UI@@8	; UI::CSlotWindow::CCoverButton::`RTTI Base Class Descriptor at (0,-1,0,64)'
PUBLIC	??_R4CCoolTimeFinishEffect@CSlotWindow@UI@@6B@	; UI::CSlotWindow::CCoolTimeFinishEffect::`RTTI Complete Object Locator'
PUBLIC	??_R0?AVCCoolTimeFinishEffect@CSlotWindow@UI@@@8 ; UI::CSlotWindow::CCoolTimeFinishEffect `RTTI Type Descriptor'
PUBLIC	??_R3CCoolTimeFinishEffect@CSlotWindow@UI@@8	; UI::CSlotWindow::CCoolTimeFinishEffect::`RTTI Class Hierarchy Descriptor'
PUBLIC	??_R2CCoolTimeFinishEffect@CSlotWindow@UI@@8	; UI::CSlotWindow::CCoolTimeFinishEffect::`RTTI Base Class Array'
PUBLIC	??_R1A@?0A@EA@CCoolTimeFinishEffect@CSlotWindow@UI@@8 ; UI::CSlotWindow::CCoolTimeFinishEffect::`RTTI Base Class Descriptor at (0,-1,0,64)'
PUBLIC	??_R1A@?0A@EA@CAniImageBox@UI@@8		; UI::CAniImageBox::`RTTI Base Class Descriptor at (0,-1,0,64)'
PUBLIC	??_R0?AVCAniImageBox@UI@@@8			; UI::CAniImageBox `RTTI Type Descriptor'
PUBLIC	??_R3CAniImageBox@UI@@8				; UI::CAniImageBox::`RTTI Class Hierarchy Descriptor'
PUBLIC	??_R2CAniImageBox@UI@@8				; UI::CAniImageBox::`RTTI Base Class Array'
PUBLIC	__real@3f800000
PUBLIC	__real@41800000
EXTRN	??2@YAPAXI@Z:PROC				; operator new
EXTRN	??3@YAXPAXI@Z:PROC				; operator delete
EXTRN	__Init_thread_header:PROC
EXTRN	__Init_thread_abort:PROC
EXTRN	__Init_thread_footer:PROC
EXTRN	__invalid_parameter_noinfo_noreturn:PROC
EXTRN	___stdio_common_vsprintf:PROC
EXTRN	___std_exception_copy:PROC
EXTRN	___std_exception_destroy:PROC
EXTRN	??_Eexception@std@@UAEPAXI@Z:PROC		; std::exception::`vector deleting destructor'
EXTRN	??_Ebad_alloc@std@@UAEPAXI@Z:PROC		; std::bad_alloc::`vector deleting destructor'
EXTRN	??_Ebad_array_new_length@std@@UAEPAXI@Z:PROC	; std::bad_array_new_length::`vector deleting destructor'
EXTRN	?_Xlength_error@std@@YAXPBD@Z:PROC		; std::_Xlength_error
EXTRN	__imp__Py_BuildValue:PROC
EXTRN	?PyCallClassMemberFunc@@YA_NPAU_object@@PBD0@Z:PROC ; PyCallClassMemberFunc
EXTRN	?GetCurrentSecond@CTimer@@QAEMXZ:PROC		; CTimer::GetCurrentSecond
EXTRN	?GetCRC32@@YAKPBDI@Z:PROC			; GetCRC32
EXTRN	?GetResourcePointer@CResourceManager@@QAEPAVCResource@@PBD@Z:PROC ; CResourceManager::GetResourcePointer
EXTRN	?Render@CGraphicImageInstance@@QAEXXZ:PROC	; CGraphicImageInstance::Render
EXTRN	?SetDiffuseColor@CGraphicImageInstance@@QAEXMMMM@Z:PROC ; CGraphicImageInstance::SetDiffuseColor
EXTRN	?SetPosition@CGraphicImageInstance@@QAEXMM@Z:PROC ; CGraphicImageInstance::SetPosition
EXTRN	?SetImagePointer@CGraphicImageInstance@@QAEXPAVCGraphicImage@@@Z:PROC ; CGraphicImageInstance::SetImagePointer
EXTRN	?New@CGraphicImageInstance@@SAPAV1@XZ:PROC	; CGraphicImageInstance::New
EXTRN	?Delete@CGraphicImageInstance@@SAXPAV1@@Z:PROC	; CGraphicImageInstance::Delete
EXTRN	?RenderBar2d@CScreen@@QAEXMMMMM@Z:PROC		; CScreen::RenderBar2d
EXTRN	?SetDiffuseColor@CScreen@@QAEXMMMM@Z:PROC	; CScreen::SetDiffuseColor
EXTRN	?RenderCoolTimeBox@CPythonGraphic@@QAEXMMMM@Z:PROC ; CPythonGraphic::RenderCoolTimeBox
EXTRN	?GetMousePosition@CWindowManager@UI@@QAEXAAJ0@Z:PROC ; UI::CWindowManager::GetMousePosition
EXTRN	?IsDragging@CWindowManager@UI@@QAEHXZ:PROC	; UI::CWindowManager::IsDragging
EXTRN	?SetParent@CWindowManager@UI@@QAEXPAVCWindow@2@0@Z:PROC ; UI::CWindowManager::SetParent
EXTRN	?DestroyWindow@CWindowManager@UI@@QAEXPAVCWindow@2@@Z:PROC ; UI::CWindowManager::DestroyWindow
EXTRN	?IsAttaching@CWindowManager@UI@@QAEHXZ:PROC	; UI::CWindowManager::IsAttaching
EXTRN	?DeattachIcon@CWindowManager@UI@@QAEXXZ:PROC	; UI::CWindowManager::DeattachIcon
EXTRN	?IsType@CWindow@UI@@QAEHK@Z:PROC		; UI::CWindow::IsType
EXTRN	??0CWindow@UI@@QAE@PAU_object@@@Z:PROC		; UI::CWindow::CWindow
EXTRN	??1CWindow@UI@@UAE@XZ:PROC			; UI::CWindow::~CWindow
EXTRN	?Update@CWindow@UI@@QAEXXZ:PROC			; UI::CWindow::Update
EXTRN	?Render@CWindow@UI@@QAEXXZ:PROC			; UI::CWindow::Render
EXTRN	?SetPosition@CWindow@UI@@QAEXJJ@Z:PROC		; UI::CWindow::SetPosition
EXTRN	?GetMouseLocalPosition@CWindow@UI@@QAEXAAJ0@Z:PROC ; UI::CWindow::GetMouseLocalPosition
EXTRN	?Show@CWindow@UI@@QAEXXZ:PROC			; UI::CWindow::Show
EXTRN	?Hide@CWindow@UI@@QAEXXZ:PROC			; UI::CWindow::Hide
EXTRN	?IsRendering@CWindow@UI@@QAE_NXZ:PROC		; UI::CWindow::IsRendering
EXTRN	?SetTop@CWindow@UI@@QAEXPAV12@@Z:PROC		; UI::CWindow::SetTop
EXTRN	?IsIn@CWindow@UI@@QAE_NXZ:PROC			; UI::CWindow::IsIn
EXTRN	?OnSetFocus@CWindow@UI@@UAEXXZ:PROC		; UI::CWindow::OnSetFocus
EXTRN	?OnKillFocus@CWindow@UI@@UAEXXZ:PROC		; UI::CWindow::OnKillFocus
EXTRN	?OnMouseDrag@CWindow@UI@@UAEXJJ@Z:PROC		; UI::CWindow::OnMouseDrag
EXTRN	?OnMouseOverIn@CWindow@UI@@UAEXXZ:PROC		; UI::CWindow::OnMouseOverIn
EXTRN	?OnMouseOverOut@CWindow@UI@@UAEXXZ:PROC		; UI::CWindow::OnMouseOverOut
EXTRN	?OnMouseOver@CWindow@UI@@UAEXXZ:PROC		; UI::CWindow::OnMouseOver
EXTRN	?OnDrop@CWindow@UI@@UAEXXZ:PROC			; UI::CWindow::OnDrop
EXTRN	?OnTop@CWindow@UI@@UAEXXZ:PROC			; UI::CWindow::OnTop
EXTRN	?OnIMEUpdate@CWindow@UI@@UAEXXZ:PROC		; UI::CWindow::OnIMEUpdate
EXTRN	?OnMoveWindow@CWindow@UI@@UAEXJJ@Z:PROC		; UI::CWindow::OnMoveWindow
EXTRN	?OnIMETabEvent@CWindow@UI@@UAEHXZ:PROC		; UI::CWindow::OnIMETabEvent
EXTRN	?OnIMEReturnEvent@CWindow@UI@@UAEHXZ:PROC	; UI::CWindow::OnIMEReturnEvent
EXTRN	?OnIMEKeyDownEvent@CWindow@UI@@UAEHH@Z:PROC	; UI::CWindow::OnIMEKeyDownEvent
EXTRN	?OnIMEChangeCodePage@CWindow@UI@@UAEHXZ:PROC	; UI::CWindow::OnIMEChangeCodePage
EXTRN	?OnIMEOpenCandidateListEvent@CWindow@UI@@UAEHXZ:PROC ; UI::CWindow::OnIMEOpenCandidateListEvent
EXTRN	?OnIMECloseCandidateListEvent@CWindow@UI@@UAEHXZ:PROC ; UI::CWindow::OnIMECloseCandidateListEvent
EXTRN	?OnIMEOpenReadingWndEvent@CWindow@UI@@UAEHXZ:PROC ; UI::CWindow::OnIMEOpenReadingWndEvent
EXTRN	?OnIMECloseReadingWndEvent@CWindow@UI@@UAEHXZ:PROC ; UI::CWindow::OnIMECloseReadingWndEvent
EXTRN	?OnMouseLeftButtonDown@CWindow@UI@@UAEHXZ:PROC	; UI::CWindow::OnMouseLeftButtonDown
EXTRN	?OnMouseLeftButtonUp@CWindow@UI@@UAEHXZ:PROC	; UI::CWindow::OnMouseLeftButtonUp
EXTRN	?OnMouseLeftButtonDoubleClick@CWindow@UI@@UAEHXZ:PROC ; UI::CWindow::OnMouseLeftButtonDoubleClick
EXTRN	?OnMouseRightButtonDown@CWindow@UI@@UAEHXZ:PROC	; UI::CWindow::OnMouseRightButtonDown
EXTRN	?OnMouseRightButtonUp@CWindow@UI@@UAEHXZ:PROC	; UI::CWindow::OnMouseRightButtonUp
EXTRN	?OnMouseRightButtonDoubleClick@CWindow@UI@@UAEHXZ:PROC ; UI::CWindow::OnMouseRightButtonDoubleClick
EXTRN	?OnMouseMiddleButtonDown@CWindow@UI@@UAEHXZ:PROC ; UI::CWindow::OnMouseMiddleButtonDown
EXTRN	?OnMouseMiddleButtonUp@CWindow@UI@@UAEHXZ:PROC	; UI::CWindow::OnMouseMiddleButtonUp
EXTRN	?OnKeyDown@CWindow@UI@@UAEHH@Z:PROC		; UI::CWindow::OnKeyDown
EXTRN	?OnKeyUp@CWindow@UI@@UAEHH@Z:PROC		; UI::CWindow::OnKeyUp
EXTRN	?OnPressEscapeKey@CWindow@UI@@UAEHXZ:PROC	; UI::CWindow::OnPressEscapeKey
EXTRN	?OnPressExitKey@CWindow@UI@@UAEHXZ:PROC		; UI::CWindow::OnPressExitKey
EXTRN	?OnIsType@CWindow@UI@@UAEHK@Z:PROC		; UI::CWindow::OnIsType
EXTRN	??0CNumberLine@UI@@QAE@PAVCWindow@1@@Z:PROC	; UI::CNumberLine::CNumberLine
EXTRN	?SetHorizontalAlign@CNumberLine@UI@@QAEXH@Z:PROC ; UI::CNumberLine::SetHorizontalAlign
EXTRN	?SetNumber@CNumberLine@UI@@QAEXPBD@Z:PROC	; UI::CNumberLine::SetNumber
EXTRN	??0CImageBox@UI@@QAE@PAU_object@@@Z:PROC	; UI::CImageBox::CImageBox
EXTRN	?LoadImageA@CImageBox@UI@@QAEHPBD@Z:PROC	; UI::CImageBox::LoadImageA
EXTRN	??0CAniImageBox@UI@@QAE@PAU_object@@@Z:PROC	; UI::CAniImageBox::CAniImageBox
EXTRN	??1CAniImageBox@UI@@UAE@XZ:PROC			; UI::CAniImageBox::~CAniImageBox
EXTRN	?SetDelay@CAniImageBox@UI@@QAEXH@Z:PROC		; UI::CAniImageBox::SetDelay
EXTRN	?AppendImage@CAniImageBox@UI@@QAEXPBD@Z:PROC	; UI::CAniImageBox::AppendImage
EXTRN	?SetRenderingMode@CAniImageBox@UI@@QAEXH@Z:PROC	; UI::CAniImageBox::SetRenderingMode
EXTRN	?ResetFrame@CAniImageBox@UI@@QAEXXZ:PROC	; UI::CAniImageBox::ResetFrame
EXTRN	?OnUpdate@CAniImageBox@UI@@MAEXXZ:PROC		; UI::CAniImageBox::OnUpdate
EXTRN	?OnRender@CAniImageBox@UI@@MAEXXZ:PROC		; UI::CAniImageBox::OnRender
EXTRN	?OnChangePosition@CAniImageBox@UI@@MAEXXZ:PROC	; UI::CAniImageBox::OnChangePosition
EXTRN	?OnIsType@CAniImageBox@UI@@MAEHK@Z:PROC		; UI::CAniImageBox::OnIsType
EXTRN	??0CButton@UI@@QAE@PAU_object@@@Z:PROC		; UI::CButton::CButton
EXTRN	??1CButton@UI@@UAE@XZ:PROC			; UI::CButton::~CButton
EXTRN	?SetUpVisual@CButton@UI@@QAEHPBD@Z:PROC		; UI::CButton::SetUpVisual
EXTRN	?SetOverVisual@CButton@UI@@QAEHPBD@Z:PROC	; UI::CButton::SetOverVisual
EXTRN	?SetDownVisual@CButton@UI@@QAEHPBD@Z:PROC	; UI::CButton::SetDownVisual
EXTRN	?SetDisableVisual@CButton@UI@@QAEHPBD@Z:PROC	; UI::CButton::SetDisableVisual
EXTRN	?Enable@CButton@UI@@QAEXXZ:PROC			; UI::CButton::Enable
EXTRN	?Disable@CButton@UI@@QAEXXZ:PROC		; UI::CButton::Disable
EXTRN	?SetUp@CButton@UI@@QAEXXZ:PROC			; UI::CButton::SetUp
EXTRN	?Down@CButton@UI@@QAEXXZ:PROC			; UI::CButton::Down
EXTRN	?IsDisable@CButton@UI@@QAEHXZ:PROC		; UI::CButton::IsDisable
EXTRN	?IsPressed@CButton@UI@@QAEHXZ:PROC		; UI::CButton::IsPressed
EXTRN	?OnUpdate@CButton@UI@@MAEXXZ:PROC		; UI::CButton::OnUpdate
EXTRN	?OnRender@CButton@UI@@MAEXXZ:PROC		; UI::CButton::OnRender
EXTRN	?OnChangePosition@CButton@UI@@MAEXXZ:PROC	; UI::CButton::OnChangePosition
EXTRN	?OnMouseLeftButtonDown@CButton@UI@@MAEHXZ:PROC	; UI::CButton::OnMouseLeftButtonDown
EXTRN	?OnMouseLeftButtonDoubleClick@CButton@UI@@MAEHXZ:PROC ; UI::CButton::OnMouseLeftButtonDoubleClick
EXTRN	?OnMouseLeftButtonUp@CButton@UI@@MAEHXZ:PROC	; UI::CButton::OnMouseLeftButtonUp
EXTRN	?IsEnable@CButton@UI@@IAEHXZ:PROC		; UI::CButton::IsEnable
EXTRN	?SetCurrentVisual@CButton@UI@@IAEXPAVCGraphicImageInstance@@@Z:PROC ; UI::CButton::SetCurrentVisual
EXTRN	??_ECSlotWindow@UI@@UAEPAXI@Z:PROC		; UI::CSlotWindow::`vector deleting destructor'
EXTRN	??_ECSlotButton@CSlotWindow@UI@@UAEPAXI@Z:PROC	; UI::CSlotWindow::CSlotButton::`vector deleting destructor'
EXTRN	??_ECCoverButton@CSlotWindow@UI@@UAEPAXI@Z:PROC	; UI::CSlotWindow::CCoverButton::`vector deleting destructor'
EXTRN	??_ECCoolTimeFinishEffect@CSlotWindow@UI@@UAEPAXI@Z:PROC ; UI::CSlotWindow::CCoolTimeFinishEffect::`vector deleting destructor'
EXTRN	@__security_check_cookie@4:PROC
EXTRN	__CxxThrowException@8:PROC
EXTRN	___CxxFrameHandler3:PROC
EXTRN	_memmove:PROC
EXTRN	_memset:PROC
EXTRN	__Init_thread_epoch:DWORD
EXTRN	??_7type_info@@6B@:QWORD			; type_info::`vftable'
EXTRN	___security_cookie:DWORD
EXTRN	__fltused:DWORD
EXTRN	__tls_array:DWORD
EXTRN	__tls_index:DWORD
;	COMDAT ?_OptionsStorage@?1??__local_stdio_printf_options@@9@4_KA
_BSS	SEGMENT
?_OptionsStorage@?1??__local_stdio_printf_options@@9@4_KA DQ 01H DUP (?) ; `__local_stdio_printf_options'::`2'::_OptionsStorage
_BSS	ENDS
;	COMDAT ?ms_singleton@?$CSingleton@VCTimer@@@@0PAVCTimer@@A
_BSS	SEGMENT
?ms_singleton@?$CSingleton@VCTimer@@@@0PAVCTimer@@A DD 01H DUP (?) ; CSingleton<CTimer>::ms_singleton
_BSS	ENDS
;	COMDAT ?ms_singleton@?$CSingleton@VCResourceManager@@@@0PAVCResourceManager@@A
_BSS	SEGMENT
?ms_singleton@?$CSingleton@VCResourceManager@@@@0PAVCResourceManager@@A DD 01H DUP (?) ; CSingleton<CResourceManager>::ms_singleton
_BSS	ENDS
;	COMDAT ?ms_singleton@?$CSingleton@VCPythonGraphic@@@@0PAVCPythonGraphic@@A
_BSS	SEGMENT
?ms_singleton@?$CSingleton@VCPythonGraphic@@@@0PAVCPythonGraphic@@A DD 01H DUP (?) ; CSingleton<CPythonGraphic>::ms_singleton
_BSS	ENDS
;	COMDAT ?ms_singleton@?$CSingleton@VCWindowManager@UI@@@@0PAVCWindowManager@UI@@A
_BSS	SEGMENT
?ms_singleton@?$CSingleton@VCWindowManager@UI@@@@0PAVCWindowManager@UI@@A DD 01H DUP (?) ; CSingleton<UI::CWindowManager>::ms_singleton
_BSS	ENDS
;	COMDAT ?s_Type@?1??Type@CSlotWindow@UI@@SAKXZ@4HA
_BSS	SEGMENT
?s_Type@?1??Type@CSlotWindow@UI@@SAKXZ@4HA DD 01H DUP (?) ; `UI::CSlotWindow::Type'::`2'::s_Type
_BSS	ENDS
;	COMDAT ?$TSS0@?1??Type@CSlotWindow@UI@@SAKXZ@4HA
_BSS	SEGMENT
?$TSS0@?1??Type@CSlotWindow@UI@@SAKXZ@4HA DD 01H DUP (?) ; `UI::CSlotWindow::Type'::`2'::$TSS0
_BSS	ENDS
;	COMDAT __real@41800000
CONST	SEGMENT
__real@41800000 DD 041800000r			; 16
CONST	ENDS
;	COMDAT __real@3f800000
CONST	SEGMENT
__real@3f800000 DD 03f800000r			; 1
CONST	ENDS
;	COMDAT ??_R2CAniImageBox@UI@@8
rdata$r	SEGMENT
??_R2CAniImageBox@UI@@8 DD FLAT:??_R1A@?0A@EA@CAniImageBox@UI@@8 ; UI::CAniImageBox::`RTTI Base Class Array'
	DD	FLAT:??_R1A@?0A@EA@CWindow@UI@@8
rdata$r	ENDS
;	COMDAT ??_R3CAniImageBox@UI@@8
rdata$r	SEGMENT
??_R3CAniImageBox@UI@@8 DD 00H				; UI::CAniImageBox::`RTTI Class Hierarchy Descriptor'
	DD	00H
	DD	02H
	DD	FLAT:??_R2CAniImageBox@UI@@8
rdata$r	ENDS
;	COMDAT ??_R0?AVCAniImageBox@UI@@@8
data$rs	SEGMENT
??_R0?AVCAniImageBox@UI@@@8 DD FLAT:??_7type_info@@6B@	; UI::CAniImageBox `RTTI Type Descriptor'
	DD	00H
	DB	'.?AVCAniImageBox@UI@@', 00H
data$rs	ENDS
;	COMDAT ??_R1A@?0A@EA@CAniImageBox@UI@@8
rdata$r	SEGMENT
??_R1A@?0A@EA@CAniImageBox@UI@@8 DD FLAT:??_R0?AVCAniImageBox@UI@@@8 ; UI::CAniImageBox::`RTTI Base Class Descriptor at (0,-1,0,64)'
	DD	01H
	DD	00H
	DD	0ffffffffH
	DD	00H
	DD	040H
	DD	FLAT:??_R3CAniImageBox@UI@@8
rdata$r	ENDS
;	COMDAT ??_R1A@?0A@EA@CCoolTimeFinishEffect@CSlotWindow@UI@@8
rdata$r	SEGMENT
??_R1A@?0A@EA@CCoolTimeFinishEffect@CSlotWindow@UI@@8 DD FLAT:??_R0?AVCCoolTimeFinishEffect@CSlotWindow@UI@@@8 ; UI::CSlotWindow::CCoolTimeFinishEffect::`RTTI Base Class Descriptor at (0,-1,0,64)'
	DD	02H
	DD	00H
	DD	0ffffffffH
	DD	00H
	DD	040H
	DD	FLAT:??_R3CCoolTimeFinishEffect@CSlotWindow@UI@@8
rdata$r	ENDS
;	COMDAT ??_R2CCoolTimeFinishEffect@CSlotWindow@UI@@8
rdata$r	SEGMENT
??_R2CCoolTimeFinishEffect@CSlotWindow@UI@@8 DD FLAT:??_R1A@?0A@EA@CCoolTimeFinishEffect@CSlotWindow@UI@@8 ; UI::CSlotWindow::CCoolTimeFinishEffect::`RTTI Base Class Array'
	DD	FLAT:??_R1A@?0A@EA@CAniImageBox@UI@@8
	DD	FLAT:??_R1A@?0A@EA@CWindow@UI@@8
rdata$r	ENDS
;	COMDAT ??_R3CCoolTimeFinishEffect@CSlotWindow@UI@@8
rdata$r	SEGMENT
??_R3CCoolTimeFinishEffect@CSlotWindow@UI@@8 DD 00H	; UI::CSlotWindow::CCoolTimeFinishEffect::`RTTI Class Hierarchy Descriptor'
	DD	00H
	DD	03H
	DD	FLAT:??_R2CCoolTimeFinishEffect@CSlotWindow@UI@@8
rdata$r	ENDS
;	COMDAT ??_R0?AVCCoolTimeFinishEffect@CSlotWindow@UI@@@8
data$rs	SEGMENT
??_R0?AVCCoolTimeFinishEffect@CSlotWindow@UI@@@8 DD FLAT:??_7type_info@@6B@ ; UI::CSlotWindow::CCoolTimeFinishEffect `RTTI Type Descriptor'
	DD	00H
	DB	'.?AVCCoolTimeFinishEffect@CSlotWindow@UI@@', 00H
data$rs	ENDS
;	COMDAT ??_R4CCoolTimeFinishEffect@CSlotWindow@UI@@6B@
rdata$r	SEGMENT
??_R4CCoolTimeFinishEffect@CSlotWindow@UI@@6B@ DD 00H	; UI::CSlotWindow::CCoolTimeFinishEffect::`RTTI Complete Object Locator'
	DD	00H
	DD	00H
	DD	FLAT:??_R0?AVCCoolTimeFinishEffect@CSlotWindow@UI@@@8
	DD	FLAT:??_R3CCoolTimeFinishEffect@CSlotWindow@UI@@8
rdata$r	ENDS
;	COMDAT ??_R1A@?0A@EA@CCoverButton@CSlotWindow@UI@@8
rdata$r	SEGMENT
??_R1A@?0A@EA@CCoverButton@CSlotWindow@UI@@8 DD FLAT:??_R0?AVCCoverButton@CSlotWindow@UI@@@8 ; UI::CSlotWindow::CCoverButton::`RTTI Base Class Descriptor at (0,-1,0,64)'
	DD	03H
	DD	00H
	DD	0ffffffffH
	DD	00H
	DD	040H
	DD	FLAT:??_R3CCoverButton@CSlotWindow@UI@@8
rdata$r	ENDS
;	COMDAT ??_R2CCoverButton@CSlotWindow@UI@@8
rdata$r	SEGMENT
??_R2CCoverButton@CSlotWindow@UI@@8 DD FLAT:??_R1A@?0A@EA@CCoverButton@CSlotWindow@UI@@8 ; UI::CSlotWindow::CCoverButton::`RTTI Base Class Array'
	DD	FLAT:??_R1A@?0A@EA@CSlotButton@CSlotWindow@UI@@8
	DD	FLAT:??_R1A@?0A@EA@CButton@UI@@8
	DD	FLAT:??_R1A@?0A@EA@CWindow@UI@@8
rdata$r	ENDS
;	COMDAT ??_R3CCoverButton@CSlotWindow@UI@@8
rdata$r	SEGMENT
??_R3CCoverButton@CSlotWindow@UI@@8 DD 00H		; UI::CSlotWindow::CCoverButton::`RTTI Class Hierarchy Descriptor'
	DD	00H
	DD	04H
	DD	FLAT:??_R2CCoverButton@CSlotWindow@UI@@8
rdata$r	ENDS
;	COMDAT ??_R0?AVCCoverButton@CSlotWindow@UI@@@8
data$rs	SEGMENT
??_R0?AVCCoverButton@CSlotWindow@UI@@@8 DD FLAT:??_7type_info@@6B@ ; UI::CSlotWindow::CCoverButton `RTTI Type Descriptor'
	DD	00H
	DB	'.?AVCCoverButton@CSlotWindow@UI@@', 00H
data$rs	ENDS
;	COMDAT ??_R4CCoverButton@CSlotWindow@UI@@6B@
rdata$r	SEGMENT
??_R4CCoverButton@CSlotWindow@UI@@6B@ DD 00H		; UI::CSlotWindow::CCoverButton::`RTTI Complete Object Locator'
	DD	00H
	DD	00H
	DD	FLAT:??_R0?AVCCoverButton@CSlotWindow@UI@@@8
	DD	FLAT:??_R3CCoverButton@CSlotWindow@UI@@8
rdata$r	ENDS
;	COMDAT ??_R2CButton@UI@@8
rdata$r	SEGMENT
??_R2CButton@UI@@8 DD FLAT:??_R1A@?0A@EA@CButton@UI@@8	; UI::CButton::`RTTI Base Class Array'
	DD	FLAT:??_R1A@?0A@EA@CWindow@UI@@8
rdata$r	ENDS
;	COMDAT ??_R3CButton@UI@@8
rdata$r	SEGMENT
??_R3CButton@UI@@8 DD 00H				; UI::CButton::`RTTI Class Hierarchy Descriptor'
	DD	00H
	DD	02H
	DD	FLAT:??_R2CButton@UI@@8
rdata$r	ENDS
;	COMDAT ??_R0?AVCButton@UI@@@8
data$rs	SEGMENT
??_R0?AVCButton@UI@@@8 DD FLAT:??_7type_info@@6B@	; UI::CButton `RTTI Type Descriptor'
	DD	00H
	DB	'.?AVCButton@UI@@', 00H
data$rs	ENDS
;	COMDAT ??_R1A@?0A@EA@CButton@UI@@8
rdata$r	SEGMENT
??_R1A@?0A@EA@CButton@UI@@8 DD FLAT:??_R0?AVCButton@UI@@@8 ; UI::CButton::`RTTI Base Class Descriptor at (0,-1,0,64)'
	DD	01H
	DD	00H
	DD	0ffffffffH
	DD	00H
	DD	040H
	DD	FLAT:??_R3CButton@UI@@8
rdata$r	ENDS
;	COMDAT ??_R1A@?0A@EA@CSlotButton@CSlotWindow@UI@@8
rdata$r	SEGMENT
??_R1A@?0A@EA@CSlotButton@CSlotWindow@UI@@8 DD FLAT:??_R0?AVCSlotButton@CSlotWindow@UI@@@8 ; UI::CSlotWindow::CSlotButton::`RTTI Base Class Descriptor at (0,-1,0,64)'
	DD	02H
	DD	00H
	DD	0ffffffffH
	DD	00H
	DD	040H
	DD	FLAT:??_R3CSlotButton@CSlotWindow@UI@@8
rdata$r	ENDS
;	COMDAT ??_R2CSlotButton@CSlotWindow@UI@@8
rdata$r	SEGMENT
??_R2CSlotButton@CSlotWindow@UI@@8 DD FLAT:??_R1A@?0A@EA@CSlotButton@CSlotWindow@UI@@8 ; UI::CSlotWindow::CSlotButton::`RTTI Base Class Array'
	DD	FLAT:??_R1A@?0A@EA@CButton@UI@@8
	DD	FLAT:??_R1A@?0A@EA@CWindow@UI@@8
rdata$r	ENDS
;	COMDAT ??_R3CSlotButton@CSlotWindow@UI@@8
rdata$r	SEGMENT
??_R3CSlotButton@CSlotWindow@UI@@8 DD 00H		; UI::CSlotWindow::CSlotButton::`RTTI Class Hierarchy Descriptor'
	DD	00H
	DD	03H
	DD	FLAT:??_R2CSlotButton@CSlotWindow@UI@@8
rdata$r	ENDS
;	COMDAT ??_R0?AVCSlotButton@CSlotWindow@UI@@@8
data$rs	SEGMENT
??_R0?AVCSlotButton@CSlotWindow@UI@@@8 DD FLAT:??_7type_info@@6B@ ; UI::CSlotWindow::CSlotButton `RTTI Type Descriptor'
	DD	00H
	DB	'.?AVCSlotButton@CSlotWindow@UI@@', 00H
data$rs	ENDS
;	COMDAT ??_R4CSlotButton@CSlotWindow@UI@@6B@
rdata$r	SEGMENT
??_R4CSlotButton@CSlotWindow@UI@@6B@ DD 00H		; UI::CSlotWindow::CSlotButton::`RTTI Complete Object Locator'
	DD	00H
	DD	00H
	DD	FLAT:??_R0?AVCSlotButton@CSlotWindow@UI@@@8
	DD	FLAT:??_R3CSlotButton@CSlotWindow@UI@@8
rdata$r	ENDS
;	COMDAT ??_R1A@?0A@EA@CSlotWindow@UI@@8
rdata$r	SEGMENT
??_R1A@?0A@EA@CSlotWindow@UI@@8 DD FLAT:??_R0?AVCSlotWindow@UI@@@8 ; UI::CSlotWindow::`RTTI Base Class Descriptor at (0,-1,0,64)'
	DD	01H
	DD	00H
	DD	0ffffffffH
	DD	00H
	DD	040H
	DD	FLAT:??_R3CSlotWindow@UI@@8
rdata$r	ENDS
;	COMDAT ??_R2CSlotWindow@UI@@8
rdata$r	SEGMENT
??_R2CSlotWindow@UI@@8 DD FLAT:??_R1A@?0A@EA@CSlotWindow@UI@@8 ; UI::CSlotWindow::`RTTI Base Class Array'
	DD	FLAT:??_R1A@?0A@EA@CWindow@UI@@8
rdata$r	ENDS
;	COMDAT ??_R3CSlotWindow@UI@@8
rdata$r	SEGMENT
??_R3CSlotWindow@UI@@8 DD 00H				; UI::CSlotWindow::`RTTI Class Hierarchy Descriptor'
	DD	00H
	DD	02H
	DD	FLAT:??_R2CSlotWindow@UI@@8
rdata$r	ENDS
;	COMDAT ??_R0?AVCSlotWindow@UI@@@8
data$rs	SEGMENT
??_R0?AVCSlotWindow@UI@@@8 DD FLAT:??_7type_info@@6B@	; UI::CSlotWindow `RTTI Type Descriptor'
	DD	00H
	DB	'.?AVCSlotWindow@UI@@', 00H
data$rs	ENDS
;	COMDAT ??_R4CSlotWindow@UI@@6B@
rdata$r	SEGMENT
??_R4CSlotWindow@UI@@6B@ DD 00H				; UI::CSlotWindow::`RTTI Complete Object Locator'
	DD	00H
	DD	00H
	DD	FLAT:??_R0?AVCSlotWindow@UI@@@8
	DD	FLAT:??_R3CSlotWindow@UI@@8
rdata$r	ENDS
;	COMDAT ??_R2CWindow@UI@@8
rdata$r	SEGMENT
??_R2CWindow@UI@@8 DD FLAT:??_R1A@?0A@EA@CWindow@UI@@8	; UI::CWindow::`RTTI Base Class Array'
rdata$r	ENDS
;	COMDAT ??_R3CWindow@UI@@8
rdata$r	SEGMENT
??_R3CWindow@UI@@8 DD 00H				; UI::CWindow::`RTTI Class Hierarchy Descriptor'
	DD	00H
	DD	01H
	DD	FLAT:??_R2CWindow@UI@@8
rdata$r	ENDS
;	COMDAT ??_R0?AVCWindow@UI@@@8
data$rs	SEGMENT
??_R0?AVCWindow@UI@@@8 DD FLAT:??_7type_info@@6B@	; UI::CWindow `RTTI Type Descriptor'
	DD	00H
	DB	'.?AVCWindow@UI@@', 00H
data$rs	ENDS
;	COMDAT ??_R1A@?0A@EA@CWindow@UI@@8
rdata$r	SEGMENT
??_R1A@?0A@EA@CWindow@UI@@8 DD FLAT:??_R0?AVCWindow@UI@@@8 ; UI::CWindow::`RTTI Base Class Descriptor at (0,-1,0,64)'
	DD	00H
	DD	00H
	DD	0ffffffffH
	DD	00H
	DD	040H
	DD	FLAT:??_R3CWindow@UI@@8
rdata$r	ENDS
;	COMDAT ??_C@_0BC@KBDMBKEH@deque?$DMT?$DO?5too?5long@
CONST	SEGMENT
??_C@_0BC@KBDMBKEH@deque?$DMT?$DO?5too?5long@ DB 'deque<T> too long', 00H ; `string'
CONST	ENDS
;	COMDAT ??_C@_0O@NKNMEGII@list?5too?5long@
CONST	SEGMENT
??_C@_0O@NKNMEGII@list?5too?5long@ DB 'list too long', 00H ; `string'
CONST	ENDS
;	COMDAT ??_C@_0DH@OCFMJDAA@d?3?1ymir?5work?1ui?1public?1slotfini@
CONST	SEGMENT
??_C@_0DH@OCFMJDAA@d?3?1ymir?5work?1ui?1public?1slotfini@ DB 'd:/ymir wor'
	DB	'k/ui/public/slotfinishcooltimeeffect/10.sub', 00H ; `string'
CONST	ENDS
;	COMDAT ??_C@_0DH@GDCEMJHM@d?3?1ymir?5work?1ui?1public?1slotfini@
CONST	SEGMENT
??_C@_0DH@GDCEMJHM@d?3?1ymir?5work?1ui?1public?1slotfini@ DB 'd:/ymir wor'
	DB	'k/ui/public/slotfinishcooltimeeffect/09.sub', 00H ; `string'
CONST	ENDS
;	COMDAT ??_C@_0DH@KIHIBKNJ@d?3?1ymir?5work?1ui?1public?1slotfini@
CONST	SEGMENT
??_C@_0DH@KIHIBKNJ@d?3?1ymir?5work?1ui?1public?1slotfini@ DB 'd:/ymir wor'
	DB	'k/ui/public/slotfinishcooltimeeffect/08.sub', 00H ; `string'
CONST	ENDS
;	COMDAT ??_C@_0DH@FJCOKIAM@d?3?1ymir?5work?1ui?1public?1slotfini@
CONST	SEGMENT
??_C@_0DH@FJCOKIAM@d?3?1ymir?5work?1ui?1public?1slotfini@ DB 'd:/ymir wor'
	DB	'k/ui/public/slotfinishcooltimeeffect/07.sub', 00H ; `string'
CONST	ENDS
;	COMDAT ??_C@_0DH@JCHCHLKJ@d?3?1ymir?5work?1ui?1public?1slotfini@
CONST	SEGMENT
??_C@_0DH@JCHCHLKJ@d?3?1ymir?5work?1ui?1public?1slotfini@ DB 'd:/ymir wor'
	DB	'k/ui/public/slotfinishcooltimeeffect/06.sub', 00H ; `string'
CONST	ENDS
;	COMDAT ??_C@_0DH@BEOGAJAH@d?3?1ymir?5work?1ui?1public?1slotfini@
CONST	SEGMENT
??_C@_0DH@BEOGAJAH@d?3?1ymir?5work?1ui?1public?1slotfini@ DB 'd:/ymir wor'
	DB	'k/ui/public/slotfinishcooltimeeffect/05.sub', 00H ; `string'
CONST	ENDS
;	COMDAT ??_C@_0DH@NPLKNKKC@d?3?1ymir?5work?1ui?1public?1slotfini@
CONST	SEGMENT
??_C@_0DH@NPLKNKKC@d?3?1ymir?5work?1ui?1public?1slotfini@ DB 'd:/ymir wor'
	DB	'k/ui/public/slotfinishcooltimeeffect/04.sub', 00H ; `string'
CONST	ENDS
;	COMDAT ??_C@_0DH@MCLPOKBK@d?3?1ymir?5work?1ui?1public?1slotfini@
CONST	SEGMENT
??_C@_0DH@MCLPOKBK@d?3?1ymir?5work?1ui?1public?1slotfini@ DB 'd:/ymir wor'
	DB	'k/ui/public/slotfinishcooltimeeffect/03.sub', 00H ; `string'
CONST	ENDS
;	COMDAT ??_C@_0DH@JODDJLP@d?3?1ymir?5work?1ui?1public?1slotfini@
CONST	SEGMENT
??_C@_0DH@JODDJLP@d?3?1ymir?5work?1ui?1public?1slotfini@ DB 'd:/ymir work'
	DB	'/ui/public/slotfinishcooltimeeffect/02.sub', 00H ; `string'
CONST	ENDS
;	COMDAT ??_C@_0DH@IPHHELBB@d?3?1ymir?5work?1ui?1public?1slotfini@
CONST	SEGMENT
??_C@_0DH@IPHHELBB@d?3?1ymir?5work?1ui?1public?1slotfini@ DB 'd:/ymir wor'
	DB	'k/ui/public/slotfinishcooltimeeffect/01.sub', 00H ; `string'
CONST	ENDS
;	COMDAT ??_C@_0DH@EECLJILE@d?3?1ymir?5work?1ui?1public?1slotfini@
CONST	SEGMENT
??_C@_0DH@EECLJILE@d?3?1ymir?5work?1ui?1public?1slotfini@ DB 'd:/ymir wor'
	DB	'k/ui/public/slotfinishcooltimeeffect/00.sub', 00H ; `string'
CONST	ENDS
;	COMDAT ??_C@_0CP@FAPMJHKG@d?3?1ymir?5work?1ui?1public?1slotacti@
CONST	SEGMENT
??_C@_0CP@FAPMJHKG@d?3?1ymir?5work?1ui?1public?1slotacti@ DB 'd:/ymir wor'
	DB	'k/ui/public/slotactiveeffect/12.sub', 00H	; `string'
CONST	ENDS
;	COMDAT ??_C@_0CP@NGGIOFAI@d?3?1ymir?5work?1ui?1public?1slotacti@
CONST	SEGMENT
??_C@_0CP@NGGIOFAI@d?3?1ymir?5work?1ui?1public?1slotacti@ DB 'd:/ymir wor'
	DB	'k/ui/public/slotactiveeffect/11.sub', 00H	; `string'
CONST	ENDS
;	COMDAT ??_C@_0CP@BNDEDGKN@d?3?1ymir?5work?1ui?1public?1slotacti@
CONST	SEGMENT
??_C@_0CP@BNDEDGKN@d?3?1ymir?5work?1ui?1public?1slotacti@ DB 'd:/ymir wor'
	DB	'k/ui/public/slotactiveeffect/10.sub', 00H	; `string'
CONST	ENDS
;	COMDAT ??_C@_0CP@JMEMGMNB@d?3?1ymir?5work?1ui?1public?1slotacti@
CONST	SEGMENT
??_C@_0CP@JMEMGMNB@d?3?1ymir?5work?1ui?1public?1slotacti@ DB 'd:/ymir wor'
	DB	'k/ui/public/slotactiveeffect/09.sub', 00H	; `string'
CONST	ENDS
;	COMDAT ??_C@_0CP@FHBALPHE@d?3?1ymir?5work?1ui?1public?1slotacti@
CONST	SEGMENT
??_C@_0CP@FHBALPHE@d?3?1ymir?5work?1ui?1public?1slotacti@ DB 'd:/ymir wor'
	DB	'k/ui/public/slotactiveeffect/08.sub', 00H	; `string'
CONST	ENDS
;	COMDAT ??_C@_0CP@KGEGANKB@d?3?1ymir?5work?1ui?1public?1slotacti@
CONST	SEGMENT
??_C@_0CP@KGEGANKB@d?3?1ymir?5work?1ui?1public?1slotacti@ DB 'd:/ymir wor'
	DB	'k/ui/public/slotactiveeffect/07.sub', 00H	; `string'
CONST	ENDS
;	COMDAT ??_C@_0CP@GNBKNOAE@d?3?1ymir?5work?1ui?1public?1slotacti@
CONST	SEGMENT
??_C@_0CP@GNBKNOAE@d?3?1ymir?5work?1ui?1public?1slotacti@ DB 'd:/ymir wor'
	DB	'k/ui/public/slotactiveeffect/06.sub', 00H	; `string'
CONST	ENDS
;	COMDAT ??_C@_0CP@OLIOKMKK@d?3?1ymir?5work?1ui?1public?1slotacti@
CONST	SEGMENT
??_C@_0CP@OLIOKMKK@d?3?1ymir?5work?1ui?1public?1slotacti@ DB 'd:/ymir wor'
	DB	'k/ui/public/slotactiveeffect/05.sub', 00H	; `string'
CONST	ENDS
;	COMDAT ??_C@_0CP@CANCHPAP@d?3?1ymir?5work?1ui?1public?1slotacti@
CONST	SEGMENT
??_C@_0CP@CANCHPAP@d?3?1ymir?5work?1ui?1public?1slotacti@ DB 'd:/ymir wor'
	DB	'k/ui/public/slotactiveeffect/04.sub', 00H	; `string'
CONST	ENDS
;	COMDAT ??_C@_0CP@DNNHEPLH@d?3?1ymir?5work?1ui?1public?1slotacti@
CONST	SEGMENT
??_C@_0CP@DNNHEPLH@d?3?1ymir?5work?1ui?1public?1slotacti@ DB 'd:/ymir wor'
	DB	'k/ui/public/slotactiveeffect/03.sub', 00H	; `string'
CONST	ENDS
;	COMDAT ??_C@_0CP@PGILJMBC@d?3?1ymir?5work?1ui?1public?1slotacti@
CONST	SEGMENT
??_C@_0CP@PGILJMBC@d?3?1ymir?5work?1ui?1public?1slotacti@ DB 'd:/ymir wor'
	DB	'k/ui/public/slotactiveeffect/02.sub', 00H	; `string'
CONST	ENDS
;	COMDAT ??_C@_0CP@HABPOOLM@d?3?1ymir?5work?1ui?1public?1slotacti@
CONST	SEGMENT
??_C@_0CP@HABPOOLM@d?3?1ymir?5work?1ui?1public?1slotacti@ DB 'd:/ymir wor'
	DB	'k/ui/public/slotactiveeffect/01.sub', 00H	; `string'
CONST	ENDS
;	COMDAT ??_C@_0CP@LLEDDNBJ@d?3?1ymir?5work?1ui?1public?1slotacti@
CONST	SEGMENT
??_C@_0CP@LLEDDNBJ@d?3?1ymir?5work?1ui?1public?1slotacti@ DB 'd:/ymir wor'
	DB	'k/ui/public/slotactiveeffect/00.sub', 00H	; `string'
CONST	ENDS
;	COMDAT ??_C@_0CH@JJGPDFBJ@d?3?1ymir?5work?1ui?1public?1slot_tog@
CONST	SEGMENT
??_C@_0CH@JJGPDFBJ@d?3?1ymir?5work?1ui?1public?1slot_tog@ DB 'd:/ymir wor'
	DB	'k/ui/public/slot_toggle.sub', 00H		; `string'
CONST	ENDS
;	COMDAT ??_C@_0M@DKKKJBKL@CSlotWindow@
CONST	SEGMENT
??_C@_0M@DKKKJBKL@CSlotWindow@ DB 'CSlotWindow', 00H	; `string'
CONST	ENDS
;	COMDAT ??_C@_0BE@MBGDMPNF@OnPressedSlotButton@
CONST	SEGMENT
??_C@_0BE@MBGDMPNF@OnPressedSlotButton@ DB 'OnPressedSlotButton', 00H ; `string'
CONST	ENDS
;	COMDAT ??_C@_0O@IBCIPGEP@OnOverOutItem@
CONST	SEGMENT
??_C@_0O@IBCIPGEP@OnOverOutItem@ DB 'OnOverOutItem', 00H ; `string'
CONST	ENDS
;	COMDAT ??_C@_02HCKGKOFO@?$CI?$CJ@
CONST	SEGMENT
??_C@_02HCKGKOFO@?$CI?$CJ@ DB '()', 00H			; `string'
CONST	ENDS
;	COMDAT ??_C@_0N@CBOPEHFH@OnOverInItem@
CONST	SEGMENT
??_C@_0N@CBOPEHFH@OnOverInItem@ DB 'OnOverInItem', 00H	; `string'
CONST	ENDS
;	COMDAT ??_C@_09HJIBPFCA@OnUseSlot@
CONST	SEGMENT
??_C@_09HJIBPFCA@OnUseSlot@ DB 'OnUseSlot', 00H		; `string'
CONST	ENDS
;	COMDAT ??_C@_0BD@EONLJJMO@OnUnselectItemSlot@
CONST	SEGMENT
??_C@_0BD@EONLJJMO@OnUnselectItemSlot@ DB 'OnUnselectItemSlot', 00H ; `string'
CONST	ENDS
;	COMDAT ??_C@_0BE@GMADJAFC@OnUnselectEmptySlot@
CONST	SEGMENT
??_C@_0BE@GMADJAFC@OnUnselectEmptySlot@ DB 'OnUnselectEmptySlot', 00H ; `string'
CONST	ENDS
;	COMDAT ??_C@_0BB@PFHJJJ@OnSelectItemSlot@
CONST	SEGMENT
??_C@_0BB@PFHJJJ@OnSelectItemSlot@ DB 'OnSelectItemSlot', 00H ; `string'
CONST	ENDS
;	COMDAT ??_C@_0BC@JJECHKOF@OnSelectEmptySlot@
CONST	SEGMENT
??_C@_0BC@JJECHKOF@OnSelectEmptySlot@ DB 'OnSelectEmptySlot', 00H ; `string'
CONST	ENDS
;	COMDAT ??_C@_03LIHNMIHG@?$CIi?$CJ@
CONST	SEGMENT
??_C@_03LIHNMIHG@?$CIi?$CJ@ DB '(i)', 00H		; `string'
CONST	ENDS
;	COMDAT ??_C@_01JBBJJEPG@p@
CONST	SEGMENT
??_C@_01JBBJJEPG@p@ DB 'p', 00H				; `string'
CONST	ENDS
;	COMDAT ??_C@_03EHFNMFPB@g?$CFd@
CONST	SEGMENT
??_C@_03EHFNMFPB@g?$CFd@ DB 'g%d', 00H			; `string'
CONST	ENDS
;	COMDAT ??_C@_03CIOACFJF@m?$CFd@
CONST	SEGMENT
??_C@_03CIOACFJF@m?$CFd@ DB 'm%d', 00H			; `string'
CONST	ENDS
;	COMDAT ??_C@_02DPKJAMEF@?$CFd@
CONST	SEGMENT
??_C@_02DPKJAMEF@?$CFd@ DB '%d', 00H			; `string'
CONST	ENDS
;	COMDAT ??_7CCoolTimeFinishEffect@CSlotWindow@UI@@6B@
CONST	SEGMENT
??_7CCoolTimeFinishEffect@CSlotWindow@UI@@6B@ DD FLAT:??_R4CCoolTimeFinishEffect@CSlotWindow@UI@@6B@ ; UI::CSlotWindow::CCoolTimeFinishEffect::`vftable'
	DD	FLAT:??_ECCoolTimeFinishEffect@CSlotWindow@UI@@UAEPAXI@Z
	DD	FLAT:?OnRender@CAniImageBox@UI@@MAEXXZ
	DD	FLAT:?OnUpdate@CAniImageBox@UI@@MAEXXZ
	DD	FLAT:?OnChangePosition@CAniImageBox@UI@@MAEXXZ
	DD	FLAT:?OnSetFocus@CWindow@UI@@UAEXXZ
	DD	FLAT:?OnKillFocus@CWindow@UI@@UAEXXZ
	DD	FLAT:?OnMouseDrag@CWindow@UI@@UAEXJJ@Z
	DD	FLAT:?OnMouseOverIn@CWindow@UI@@UAEXXZ
	DD	FLAT:?OnMouseOverOut@CWindow@UI@@UAEXXZ
	DD	FLAT:?OnMouseOver@CWindow@UI@@UAEXXZ
	DD	FLAT:?OnDrop@CWindow@UI@@UAEXXZ
	DD	FLAT:?OnTop@CWindow@UI@@UAEXXZ
	DD	FLAT:?OnIMEUpdate@CWindow@UI@@UAEXXZ
	DD	FLAT:?OnMoveWindow@CWindow@UI@@UAEXJJ@Z
	DD	FLAT:?OnIMETabEvent@CWindow@UI@@UAEHXZ
	DD	FLAT:?OnIMEReturnEvent@CWindow@UI@@UAEHXZ
	DD	FLAT:?OnIMEKeyDownEvent@CWindow@UI@@UAEHH@Z
	DD	FLAT:?OnIMEChangeCodePage@CWindow@UI@@UAEHXZ
	DD	FLAT:?OnIMEOpenCandidateListEvent@CWindow@UI@@UAEHXZ
	DD	FLAT:?OnIMECloseCandidateListEvent@CWindow@UI@@UAEHXZ
	DD	FLAT:?OnIMEOpenReadingWndEvent@CWindow@UI@@UAEHXZ
	DD	FLAT:?OnIMECloseReadingWndEvent@CWindow@UI@@UAEHXZ
	DD	FLAT:?OnMouseLeftButtonDown@CWindow@UI@@UAEHXZ
	DD	FLAT:?OnMouseLeftButtonUp@CWindow@UI@@UAEHXZ
	DD	FLAT:?OnMouseLeftButtonDoubleClick@CWindow@UI@@UAEHXZ
	DD	FLAT:?OnMouseRightButtonDown@CWindow@UI@@UAEHXZ
	DD	FLAT:?OnMouseRightButtonUp@CWindow@UI@@UAEHXZ
	DD	FLAT:?OnMouseRightButtonDoubleClick@CWindow@UI@@UAEHXZ
	DD	FLAT:?OnMouseMiddleButtonDown@CWindow@UI@@UAEHXZ
	DD	FLAT:?OnMouseMiddleButtonUp@CWindow@UI@@UAEHXZ
	DD	FLAT:?OnKeyDown@CWindow@UI@@UAEHH@Z
	DD	FLAT:?OnKeyUp@CWindow@UI@@UAEHH@Z
	DD	FLAT:?OnPressEscapeKey@CWindow@UI@@UAEHXZ
	DD	FLAT:?OnPressExitKey@CWindow@UI@@UAEHXZ
	DD	FLAT:?SetColor@CWindow@UI@@UAEXK@Z
	DD	FLAT:?OnIsType@CAniImageBox@UI@@MAEHK@Z
	DD	FLAT:?IsWindow@CWindow@UI@@UAEHXZ
	DD	FLAT:?OnEndFrame@CCoolTimeFinishEffect@CSlotWindow@UI@@UAEXXZ
CONST	ENDS
;	COMDAT ??_7CCoverButton@CSlotWindow@UI@@6B@
CONST	SEGMENT
??_7CCoverButton@CSlotWindow@UI@@6B@ DD FLAT:??_R4CCoverButton@CSlotWindow@UI@@6B@ ; UI::CSlotWindow::CCoverButton::`vftable'
	DD	FLAT:??_ECCoverButton@CSlotWindow@UI@@UAEPAXI@Z
	DD	FLAT:?OnRender@CCoverButton@CSlotWindow@UI@@UAEXXZ
	DD	FLAT:?OnUpdate@CButton@UI@@MAEXXZ
	DD	FLAT:?OnChangePosition@CButton@UI@@MAEXXZ
	DD	FLAT:?OnSetFocus@CWindow@UI@@UAEXXZ
	DD	FLAT:?OnKillFocus@CWindow@UI@@UAEXXZ
	DD	FLAT:?OnMouseDrag@CWindow@UI@@UAEXJJ@Z
	DD	FLAT:?OnMouseOverIn@CSlotButton@CSlotWindow@UI@@UAEXXZ
	DD	FLAT:?OnMouseOverOut@CSlotButton@CSlotWindow@UI@@UAEXXZ
	DD	FLAT:?OnMouseOver@CWindow@UI@@UAEXXZ
	DD	FLAT:?OnDrop@CWindow@UI@@UAEXXZ
	DD	FLAT:?OnTop@CWindow@UI@@UAEXXZ
	DD	FLAT:?OnIMEUpdate@CWindow@UI@@UAEXXZ
	DD	FLAT:?OnMoveWindow@CWindow@UI@@UAEXJJ@Z
	DD	FLAT:?OnIMETabEvent@CWindow@UI@@UAEHXZ
	DD	FLAT:?OnIMEReturnEvent@CWindow@UI@@UAEHXZ
	DD	FLAT:?OnIMEKeyDownEvent@CWindow@UI@@UAEHH@Z
	DD	FLAT:?OnIMEChangeCodePage@CWindow@UI@@UAEHXZ
	DD	FLAT:?OnIMEOpenCandidateListEvent@CWindow@UI@@UAEHXZ
	DD	FLAT:?OnIMECloseCandidateListEvent@CWindow@UI@@UAEHXZ
	DD	FLAT:?OnIMEOpenReadingWndEvent@CWindow@UI@@UAEHXZ
	DD	FLAT:?OnIMECloseReadingWndEvent@CWindow@UI@@UAEHXZ
	DD	FLAT:?OnMouseLeftButtonDown@CCoverButton@CSlotWindow@UI@@UAEHXZ
	DD	FLAT:?OnMouseLeftButtonUp@CCoverButton@CSlotWindow@UI@@UAEHXZ
	DD	FLAT:?OnMouseLeftButtonDoubleClick@CButton@UI@@MAEHXZ
	DD	FLAT:?OnMouseRightButtonDown@CCoverButton@CSlotWindow@UI@@UAEHXZ
	DD	FLAT:?OnMouseRightButtonUp@CCoverButton@CSlotWindow@UI@@UAEHXZ
	DD	FLAT:?OnMouseRightButtonDoubleClick@CWindow@UI@@UAEHXZ
	DD	FLAT:?OnMouseMiddleButtonDown@CWindow@UI@@UAEHXZ
	DD	FLAT:?OnMouseMiddleButtonUp@CWindow@UI@@UAEHXZ
	DD	FLAT:?OnKeyDown@CWindow@UI@@UAEHH@Z
	DD	FLAT:?OnKeyUp@CWindow@UI@@UAEHH@Z
	DD	FLAT:?OnPressEscapeKey@CWindow@UI@@UAEHXZ
	DD	FLAT:?OnPressExitKey@CWindow@UI@@UAEHXZ
	DD	FLAT:?SetColor@CWindow@UI@@UAEXK@Z
	DD	FLAT:?OnIsType@CWindow@UI@@UAEHK@Z
	DD	FLAT:?IsWindow@CWindow@UI@@UAEHXZ
CONST	ENDS
;	COMDAT ??_7CSlotButton@CSlotWindow@UI@@6B@
CONST	SEGMENT
??_7CSlotButton@CSlotWindow@UI@@6B@ DD FLAT:??_R4CSlotButton@CSlotWindow@UI@@6B@ ; UI::CSlotWindow::CSlotButton::`vftable'
	DD	FLAT:??_ECSlotButton@CSlotWindow@UI@@UAEPAXI@Z
	DD	FLAT:?OnRender@CButton@UI@@MAEXXZ
	DD	FLAT:?OnUpdate@CButton@UI@@MAEXXZ
	DD	FLAT:?OnChangePosition@CButton@UI@@MAEXXZ
	DD	FLAT:?OnSetFocus@CWindow@UI@@UAEXXZ
	DD	FLAT:?OnKillFocus@CWindow@UI@@UAEXXZ
	DD	FLAT:?OnMouseDrag@CWindow@UI@@UAEXJJ@Z
	DD	FLAT:?OnMouseOverIn@CSlotButton@CSlotWindow@UI@@UAEXXZ
	DD	FLAT:?OnMouseOverOut@CSlotButton@CSlotWindow@UI@@UAEXXZ
	DD	FLAT:?OnMouseOver@CWindow@UI@@UAEXXZ
	DD	FLAT:?OnDrop@CWindow@UI@@UAEXXZ
	DD	FLAT:?OnTop@CWindow@UI@@UAEXXZ
	DD	FLAT:?OnIMEUpdate@CWindow@UI@@UAEXXZ
	DD	FLAT:?OnMoveWindow@CWindow@UI@@UAEXJJ@Z
	DD	FLAT:?OnIMETabEvent@CWindow@UI@@UAEHXZ
	DD	FLAT:?OnIMEReturnEvent@CWindow@UI@@UAEHXZ
	DD	FLAT:?OnIMEKeyDownEvent@CWindow@UI@@UAEHH@Z
	DD	FLAT:?OnIMEChangeCodePage@CWindow@UI@@UAEHXZ
	DD	FLAT:?OnIMEOpenCandidateListEvent@CWindow@UI@@UAEHXZ
	DD	FLAT:?OnIMECloseCandidateListEvent@CWindow@UI@@UAEHXZ
	DD	FLAT:?OnIMEOpenReadingWndEvent@CWindow@UI@@UAEHXZ
	DD	FLAT:?OnIMECloseReadingWndEvent@CWindow@UI@@UAEHXZ
	DD	FLAT:?OnMouseLeftButtonDown@CSlotButton@CSlotWindow@UI@@UAEHXZ
	DD	FLAT:?OnMouseLeftButtonUp@CSlotButton@CSlotWindow@UI@@UAEHXZ
	DD	FLAT:?OnMouseLeftButtonDoubleClick@CButton@UI@@MAEHXZ
	DD	FLAT:?OnMouseRightButtonDown@CWindow@UI@@UAEHXZ
	DD	FLAT:?OnMouseRightButtonUp@CWindow@UI@@UAEHXZ
	DD	FLAT:?OnMouseRightButtonDoubleClick@CWindow@UI@@UAEHXZ
	DD	FLAT:?OnMouseMiddleButtonDown@CWindow@UI@@UAEHXZ
	DD	FLAT:?OnMouseMiddleButtonUp@CWindow@UI@@UAEHXZ
	DD	FLAT:?OnKeyDown@CWindow@UI@@UAEHH@Z
	DD	FLAT:?OnKeyUp@CWindow@UI@@UAEHH@Z
	DD	FLAT:?OnPressEscapeKey@CWindow@UI@@UAEHXZ
	DD	FLAT:?OnPressExitKey@CWindow@UI@@UAEHXZ
	DD	FLAT:?SetColor@CWindow@UI@@UAEXK@Z
	DD	FLAT:?OnIsType@CWindow@UI@@UAEHK@Z
	DD	FLAT:?IsWindow@CWindow@UI@@UAEHXZ
CONST	ENDS
;	COMDAT ??_7CSlotWindow@UI@@6B@
CONST	SEGMENT
??_7CSlotWindow@UI@@6B@ DD FLAT:??_R4CSlotWindow@UI@@6B@ ; UI::CSlotWindow::`vftable'
	DD	FLAT:??_ECSlotWindow@UI@@UAEPAXI@Z
	DD	FLAT:?OnRender@CSlotWindow@UI@@MAEXXZ
	DD	FLAT:?OnUpdate@CSlotWindow@UI@@MAEXXZ
	DD	FLAT:?OnChangePosition@CWindow@UI@@UAEXXZ
	DD	FLAT:?OnSetFocus@CWindow@UI@@UAEXXZ
	DD	FLAT:?OnKillFocus@CWindow@UI@@UAEXXZ
	DD	FLAT:?OnMouseDrag@CWindow@UI@@UAEXJJ@Z
	DD	FLAT:?OnMouseOverIn@CWindow@UI@@UAEXXZ
	DD	FLAT:?OnMouseOverOut@CSlotWindow@UI@@MAEXXZ
	DD	FLAT:?OnMouseOver@CSlotWindow@UI@@MAEXXZ
	DD	FLAT:?OnDrop@CWindow@UI@@UAEXXZ
	DD	FLAT:?OnTop@CWindow@UI@@UAEXXZ
	DD	FLAT:?OnIMEUpdate@CWindow@UI@@UAEXXZ
	DD	FLAT:?OnMoveWindow@CWindow@UI@@UAEXJJ@Z
	DD	FLAT:?OnIMETabEvent@CWindow@UI@@UAEHXZ
	DD	FLAT:?OnIMEReturnEvent@CWindow@UI@@UAEHXZ
	DD	FLAT:?OnIMEKeyDownEvent@CWindow@UI@@UAEHH@Z
	DD	FLAT:?OnIMEChangeCodePage@CWindow@UI@@UAEHXZ
	DD	FLAT:?OnIMEOpenCandidateListEvent@CWindow@UI@@UAEHXZ
	DD	FLAT:?OnIMECloseCandidateListEvent@CWindow@UI@@UAEHXZ
	DD	FLAT:?OnIMEOpenReadingWndEvent@CWindow@UI@@UAEHXZ
	DD	FLAT:?OnIMECloseReadingWndEvent@CWindow@UI@@UAEHXZ
	DD	FLAT:?OnMouseLeftButtonDown@CSlotWindow@UI@@MAEHXZ
	DD	FLAT:?OnMouseLeftButtonUp@CSlotWindow@UI@@MAEHXZ
	DD	FLAT:?OnMouseLeftButtonDoubleClick@CSlotWindow@UI@@MAEHXZ
	DD	FLAT:?OnMouseRightButtonDown@CSlotWindow@UI@@MAEHXZ
	DD	FLAT:?OnMouseRightButtonUp@CWindow@UI@@UAEHXZ
	DD	FLAT:?OnMouseRightButtonDoubleClick@CWindow@UI@@UAEHXZ
	DD	FLAT:?OnMouseMiddleButtonDown@CWindow@UI@@UAEHXZ
	DD	FLAT:?OnMouseMiddleButtonUp@CWindow@UI@@UAEHXZ
	DD	FLAT:?OnKeyDown@CWindow@UI@@UAEHH@Z
	DD	FLAT:?OnKeyUp@CWindow@UI@@UAEHH@Z
	DD	FLAT:?OnPressEscapeKey@CWindow@UI@@UAEHXZ
	DD	FLAT:?OnPressExitKey@CWindow@UI@@UAEHXZ
	DD	FLAT:?SetColor@CWindow@UI@@UAEXK@Z
	DD	FLAT:?OnIsType@CSlotWindow@UI@@MAEHK@Z
	DD	FLAT:?IsWindow@CWindow@UI@@UAEHXZ
	DD	FLAT:?OnRenderPickingSlot@CSlotWindow@UI@@MAEXXZ
	DD	FLAT:?OnRenderSelectedSlot@CSlotWindow@UI@@MAEXXZ
	DD	FLAT:?GetPickedSlotPointer@CSlotWindow@UI@@MAEHPAPAUSSlot@12@@Z
	DD	FLAT:?OnRefreshSlot@CSlotWindow@UI@@MAEXXZ
CONST	ENDS
;	COMDAT ??_R1A@?0A@EA@bad_array_new_length@std@@8
rdata$r	SEGMENT
??_R1A@?0A@EA@bad_array_new_length@std@@8 DD FLAT:??_R0?AVbad_array_new_length@std@@@8 ; std::bad_array_new_length::`RTTI Base Class Descriptor at (0,-1,0,64)'
	DD	02H
	DD	00H
	DD	0ffffffffH
	DD	00H
	DD	040H
	DD	FLAT:??_R3bad_array_new_length@std@@8
rdata$r	ENDS
;	COMDAT ??_R2bad_array_new_length@std@@8
rdata$r	SEGMENT
??_R2bad_array_new_length@std@@8 DD FLAT:??_R1A@?0A@EA@bad_array_new_length@std@@8 ; std::bad_array_new_length::`RTTI Base Class Array'
	DD	FLAT:??_R1A@?0A@EA@bad_alloc@std@@8
	DD	FLAT:??_R1A@?0A@EA@exception@std@@8
rdata$r	ENDS
;	COMDAT ??_R3bad_array_new_length@std@@8
rdata$r	SEGMENT
??_R3bad_array_new_length@std@@8 DD 00H			; std::bad_array_new_length::`RTTI Class Hierarchy Descriptor'
	DD	00H
	DD	03H
	DD	FLAT:??_R2bad_array_new_length@std@@8
rdata$r	ENDS
;	COMDAT ??_R4bad_array_new_length@std@@6B@
rdata$r	SEGMENT
??_R4bad_array_new_length@std@@6B@ DD 00H		; std::bad_array_new_length::`RTTI Complete Object Locator'
	DD	00H
	DD	00H
	DD	FLAT:??_R0?AVbad_array_new_length@std@@@8
	DD	FLAT:??_R3bad_array_new_length@std@@8
rdata$r	ENDS
;	COMDAT ??_R1A@?0A@EA@bad_alloc@std@@8
rdata$r	SEGMENT
??_R1A@?0A@EA@bad_alloc@std@@8 DD FLAT:??_R0?AVbad_alloc@std@@@8 ; std::bad_alloc::`RTTI Base Class Descriptor at (0,-1,0,64)'
	DD	01H
	DD	00H
	DD	0ffffffffH
	DD	00H
	DD	040H
	DD	FLAT:??_R3bad_alloc@std@@8
rdata$r	ENDS
;	COMDAT ??_R2bad_alloc@std@@8
rdata$r	SEGMENT
??_R2bad_alloc@std@@8 DD FLAT:??_R1A@?0A@EA@bad_alloc@std@@8 ; std::bad_alloc::`RTTI Base Class Array'
	DD	FLAT:??_R1A@?0A@EA@exception@std@@8
rdata$r	ENDS
;	COMDAT ??_R3bad_alloc@std@@8
rdata$r	SEGMENT
??_R3bad_alloc@std@@8 DD 00H				; std::bad_alloc::`RTTI Class Hierarchy Descriptor'
	DD	00H
	DD	02H
	DD	FLAT:??_R2bad_alloc@std@@8
rdata$r	ENDS
;	COMDAT ??_R4bad_alloc@std@@6B@
rdata$r	SEGMENT
??_R4bad_alloc@std@@6B@ DD 00H				; std::bad_alloc::`RTTI Complete Object Locator'
	DD	00H
	DD	00H
	DD	FLAT:??_R0?AVbad_alloc@std@@@8
	DD	FLAT:??_R3bad_alloc@std@@8
rdata$r	ENDS
;	COMDAT ??_R1A@?0A@EA@exception@std@@8
rdata$r	SEGMENT
??_R1A@?0A@EA@exception@std@@8 DD FLAT:??_R0?AVexception@std@@@8 ; std::exception::`RTTI Base Class Descriptor at (0,-1,0,64)'
	DD	00H
	DD	00H
	DD	0ffffffffH
	DD	00H
	DD	040H
	DD	FLAT:??_R3exception@std@@8
rdata$r	ENDS
;	COMDAT ??_R2exception@std@@8
rdata$r	SEGMENT
??_R2exception@std@@8 DD FLAT:??_R1A@?0A@EA@exception@std@@8 ; std::exception::`RTTI Base Class Array'
rdata$r	ENDS
;	COMDAT ??_R3exception@std@@8
rdata$r	SEGMENT
??_R3exception@std@@8 DD 00H				; std::exception::`RTTI Class Hierarchy Descriptor'
	DD	00H
	DD	01H
	DD	FLAT:??_R2exception@std@@8
rdata$r	ENDS
;	COMDAT ??_R4exception@std@@6B@
rdata$r	SEGMENT
??_R4exception@std@@6B@ DD 00H				; std::exception::`RTTI Complete Object Locator'
	DD	00H
	DD	00H
	DD	FLAT:??_R0?AVexception@std@@@8
	DD	FLAT:??_R3exception@std@@8
rdata$r	ENDS
;	COMDAT __CT??_R0?AVexception@std@@@8??0exception@std@@QAE@ABV01@@Z12
xdata$x	SEGMENT
__CT??_R0?AVexception@std@@@8??0exception@std@@QAE@ABV01@@Z12 DD 00H
	DD	FLAT:??_R0?AVexception@std@@@8
	DD	00H
	DD	0ffffffffH
	ORG $+4
	DD	0cH
	DD	FLAT:??0exception@std@@QAE@ABV01@@Z
xdata$x	ENDS
;	COMDAT ??_R0?AVexception@std@@@8
data$r	SEGMENT
??_R0?AVexception@std@@@8 DD FLAT:??_7type_info@@6B@	; std::exception `RTTI Type Descriptor'
	DD	00H
	DB	'.?AVexception@std@@', 00H
data$r	ENDS
;	COMDAT __CT??_R0?AVbad_alloc@std@@@8??0bad_alloc@std@@QAE@ABV01@@Z12
xdata$x	SEGMENT
__CT??_R0?AVbad_alloc@std@@@8??0bad_alloc@std@@QAE@ABV01@@Z12 DD 010H
	DD	FLAT:??_R0?AVbad_alloc@std@@@8
	DD	00H
	DD	0ffffffffH
	ORG $+4
	DD	0cH
	DD	FLAT:??0bad_alloc@std@@QAE@ABV01@@Z
xdata$x	ENDS
;	COMDAT ??_R0?AVbad_alloc@std@@@8
data$r	SEGMENT
??_R0?AVbad_alloc@std@@@8 DD FLAT:??_7type_info@@6B@	; std::bad_alloc `RTTI Type Descriptor'
	DD	00H
	DB	'.?AVbad_alloc@std@@', 00H
data$r	ENDS
;	COMDAT __CT??_R0?AVbad_array_new_length@std@@@8??0bad_array_new_length@std@@QAE@ABV01@@Z12
xdata$x	SEGMENT
__CT??_R0?AVbad_array_new_length@std@@@8??0bad_array_new_length@std@@QAE@ABV01@@Z12 DD 00H
	DD	FLAT:??_R0?AVbad_array_new_length@std@@@8
	DD	00H
	DD	0ffffffffH
	ORG $+4
	DD	0cH
	DD	FLAT:??0bad_array_new_length@std@@QAE@ABV01@@Z
xdata$x	ENDS
;	COMDAT ??_R0?AVbad_array_new_length@std@@@8
data$r	SEGMENT
??_R0?AVbad_array_new_length@std@@@8 DD FLAT:??_7type_info@@6B@ ; std::bad_array_new_length `RTTI Type Descriptor'
	DD	00H
	DB	'.?AVbad_array_new_length@std@@', 00H
data$r	ENDS
;	COMDAT __CTA3?AVbad_array_new_length@std@@
xdata$x	SEGMENT
__CTA3?AVbad_array_new_length@std@@ DD 03H
	DD	FLAT:__CT??_R0?AVbad_array_new_length@std@@@8??0bad_array_new_length@std@@QAE@ABV01@@Z12
	DD	FLAT:__CT??_R0?AVbad_alloc@std@@@8??0bad_alloc@std@@QAE@ABV01@@Z12
	DD	FLAT:__CT??_R0?AVexception@std@@@8??0exception@std@@QAE@ABV01@@Z12
xdata$x	ENDS
;	COMDAT __TI3?AVbad_array_new_length@std@@
xdata$x	SEGMENT
__TI3?AVbad_array_new_length@std@@ DD 00H
	DD	FLAT:??1bad_array_new_length@std@@UAE@XZ
	DD	00H
	DD	FLAT:__CTA3?AVbad_array_new_length@std@@
xdata$x	ENDS
;	COMDAT ??_C@_0BF@KINCDENJ@bad?5array?5new?5length@
CONST	SEGMENT
??_C@_0BF@KINCDENJ@bad?5array?5new?5length@ DB 'bad array new length', 00H ; `string'
CONST	ENDS
;	COMDAT ??_7bad_array_new_length@std@@6B@
CONST	SEGMENT
??_7bad_array_new_length@std@@6B@ DD FLAT:??_R4bad_array_new_length@std@@6B@ ; std::bad_array_new_length::`vftable'
	DD	FLAT:??_Ebad_array_new_length@std@@UAEPAXI@Z
	DD	FLAT:?what@exception@std@@UBEPBDXZ
CONST	ENDS
;	COMDAT ??_7bad_alloc@std@@6B@
CONST	SEGMENT
??_7bad_alloc@std@@6B@ DD FLAT:??_R4bad_alloc@std@@6B@	; std::bad_alloc::`vftable'
	DD	FLAT:??_Ebad_alloc@std@@UAEPAXI@Z
	DD	FLAT:?what@exception@std@@UBEPBDXZ
CONST	ENDS
;	COMDAT ??_C@_0BC@EOODALEL@Unknown?5exception@
CONST	SEGMENT
??_C@_0BC@EOODALEL@Unknown?5exception@ DB 'Unknown exception', 00H ; `string'
CONST	ENDS
;	COMDAT ??_7exception@std@@6B@
CONST	SEGMENT
??_7exception@std@@6B@ DD FLAT:??_R4exception@std@@6B@	; std::exception::`vftable'
	DD	FLAT:??_Eexception@std@@UAEPAXI@Z
	DD	FLAT:?what@exception@std@@UBEPBDXZ
CONST	ENDS
;	COMDAT xdata$x
xdata$x	SEGMENT
__unwindtable$??$?0ABUSSlot@CSlotWindow@UI@@@?$_List_node_emplace_op2@V?$allocator@U?$_List_node@USSlot@CSlotWindow@UI@@PAX@std@@@std@@@std@@QAE@AAV?$allocator@U?$_List_node@USSlot@CSlotWindow@UI@@PAX@std@@@1@ABUSSlot@CSlotWindow@UI@@@Z DD 0ffffffffH
	DD	FLAT:__unwindfunclet$??$?0ABUSSlot@CSlotWindow@UI@@@?$_List_node_emplace_op2@V?$allocator@U?$_List_node@USSlot@CSlotWindow@UI@@PAX@std@@@std@@@std@@QAE@AAV?$allocator@U?$_List_node@USSlot@CSlotWindow@UI@@PAX@std@@@1@ABUSSlot@CSlotWindow@UI@@@Z$0
__ehfuncinfo$??$?0ABUSSlot@CSlotWindow@UI@@@?$_List_node_emplace_op2@V?$allocator@U?$_List_node@USSlot@CSlotWindow@UI@@PAX@std@@@std@@@std@@QAE@AAV?$allocator@U?$_List_node@USSlot@CSlotWindow@UI@@PAX@std@@@1@ABUSSlot@CSlotWindow@UI@@@Z DD 019930522H
	DD	01H
	DD	FLAT:__unwindtable$??$?0ABUSSlot@CSlotWindow@UI@@@?$_List_node_emplace_op2@V?$allocator@U?$_List_node@USSlot@CSlotWindow@UI@@PAX@std@@@std@@@std@@QAE@AAV?$allocator@U?$_List_node@USSlot@CSlotWindow@UI@@PAX@std@@@1@ABUSSlot@CSlotWindow@UI@@@Z
	DD	2 DUP(00H)
	DD	2 DUP(00H)
	DD	00H
	DD	01H
xdata$x	ENDS
;	COMDAT xdata$x
xdata$x	SEGMENT
__unwindtable$??$?0ABK@?$_List_node_emplace_op2@V?$allocator@U?$_List_node@KPAX@std@@@std@@@std@@QAE@AAV?$allocator@U?$_List_node@KPAX@std@@@1@ABK@Z DD 0ffffffffH
	DD	FLAT:__unwindfunclet$??$?0ABK@?$_List_node_emplace_op2@V?$allocator@U?$_List_node@KPAX@std@@@std@@@std@@QAE@AAV?$allocator@U?$_List_node@KPAX@std@@@1@ABK@Z$0
__ehfuncinfo$??$?0ABK@?$_List_node_emplace_op2@V?$allocator@U?$_List_node@KPAX@std@@@std@@@std@@QAE@AAV?$allocator@U?$_List_node@KPAX@std@@@1@ABK@Z DD 019930522H
	DD	01H
	DD	FLAT:__unwindtable$??$?0ABK@?$_List_node_emplace_op2@V?$allocator@U?$_List_node@KPAX@std@@@std@@@std@@QAE@AAV?$allocator@U?$_List_node@KPAX@std@@@1@ABK@Z
	DD	2 DUP(00H)
	DD	2 DUP(00H)
	DD	00H
	DD	01H
xdata$x	ENDS
;	COMDAT xdata$x
xdata$x	SEGMENT
__unwindtable$??$_Emplace@ABUSSlot@CSlotWindow@UI@@@?$list@USSlot@CSlotWindow@UI@@V?$allocator@USSlot@CSlotWindow@UI@@@std@@@std@@QAEPAU?$_List_node@USSlot@CSlotWindow@UI@@PAX@1@QAU21@ABUSSlot@CSlotWindow@UI@@@Z DD 0ffffffffH
	DD	FLAT:__unwindfunclet$??$_Emplace@ABUSSlot@CSlotWindow@UI@@@?$list@USSlot@CSlotWindow@UI@@V?$allocator@USSlot@CSlotWindow@UI@@@std@@@std@@QAEPAU?$_List_node@USSlot@CSlotWindow@UI@@PAX@1@QAU21@ABUSSlot@CSlotWindow@UI@@@Z$1
__ehfuncinfo$??$_Emplace@ABUSSlot@CSlotWindow@UI@@@?$list@USSlot@CSlotWindow@UI@@V?$allocator@USSlot@CSlotWindow@UI@@@std@@@std@@QAEPAU?$_List_node@USSlot@CSlotWindow@UI@@PAX@1@QAU21@ABUSSlot@CSlotWindow@UI@@@Z DD 019930522H
	DD	01H
	DD	FLAT:__unwindtable$??$_Emplace@ABUSSlot@CSlotWindow@UI@@@?$list@USSlot@CSlotWindow@UI@@V?$allocator@USSlot@CSlotWindow@UI@@@std@@@std@@QAEPAU?$_List_node@USSlot@CSlotWindow@UI@@PAX@1@QAU21@ABUSSlot@CSlotWindow@UI@@@Z
	DD	2 DUP(00H)
	DD	2 DUP(00H)
	DD	00H
	DD	01H
xdata$x	ENDS
;	COMDAT xdata$x
xdata$x	SEGMENT
__unwindtable$??$_Emplace@ABK@?$list@KV?$allocator@K@std@@@std@@QAEPAU?$_List_node@KPAX@1@QAU21@ABK@Z DD 0ffffffffH
	DD	FLAT:__unwindfunclet$??$_Emplace@ABK@?$list@KV?$allocator@K@std@@@std@@QAEPAU?$_List_node@KPAX@1@QAU21@ABK@Z$1
__ehfuncinfo$??$_Emplace@ABK@?$list@KV?$allocator@K@std@@@std@@QAEPAU?$_List_node@KPAX@1@QAU21@ABK@Z DD 019930522H
	DD	01H
	DD	FLAT:__unwindtable$??$_Emplace@ABK@?$list@KV?$allocator@K@std@@@std@@QAEPAU?$_List_node@KPAX@1@QAU21@ABK@Z
	DD	2 DUP(00H)
	DD	2 DUP(00H)
	DD	00H
	DD	01H
xdata$x	ENDS
;	COMDAT xdata$x
xdata$x	SEGMENT
__unwindtable$?push_back@?$list@KV?$allocator@K@std@@@std@@QAEXABK@Z DD 0ffffffffH
	DD	FLAT:__unwindfunclet$?push_back@?$list@KV?$allocator@K@std@@@std@@QAEXABK@Z$1
__ehfuncinfo$?push_back@?$list@KV?$allocator@K@std@@@std@@QAEXABK@Z DD 019930522H
	DD	01H
	DD	FLAT:__unwindtable$?push_back@?$list@KV?$allocator@K@std@@@std@@QAEXABK@Z
	DD	2 DUP(00H)
	DD	2 DUP(00H)
	DD	00H
	DD	01H
xdata$x	ENDS
;	COMDAT xdata$x
xdata$x	SEGMENT
__unwindtable$?__CreateFinishCoolTimeEffect@CSlotWindow@UI@@IAEXPAUSSlot@12@@Z DD 0ffffffffH
	DD	FLAT:__unwindfunclet$?__CreateFinishCoolTimeEffect@CSlotWindow@UI@@IAEXPAUSSlot@12@@Z$0
__ehfuncinfo$?__CreateFinishCoolTimeEffect@CSlotWindow@UI@@IAEXPAUSSlot@12@@Z DD 019930522H
	DD	01H
	DD	FLAT:__unwindtable$?__CreateFinishCoolTimeEffect@CSlotWindow@UI@@IAEXPAUSSlot@12@@Z
	DD	2 DUP(00H)
	DD	2 DUP(00H)
	DD	00H
	DD	01H
xdata$x	ENDS
;	COMDAT xdata$x
xdata$x	SEGMENT
__unwindtable$?__CreateSlotEnableEffect@CSlotWindow@UI@@IAEXXZ DD 0ffffffffH
	DD	FLAT:__unwindfunclet$?__CreateSlotEnableEffect@CSlotWindow@UI@@IAEXXZ$0
__ehfuncinfo$?__CreateSlotEnableEffect@CSlotWindow@UI@@IAEXXZ DD 019930522H
	DD	01H
	DD	FLAT:__unwindtable$?__CreateSlotEnableEffect@CSlotWindow@UI@@IAEXXZ
	DD	2 DUP(00H)
	DD	2 DUP(00H)
	DD	00H
	DD	01H
xdata$x	ENDS
;	COMDAT xdata$x
xdata$x	SEGMENT
__unwindtable$?__CreateToggleSlotImage@CSlotWindow@UI@@IAEXXZ DD 0ffffffffH
	DD	FLAT:__unwindfunclet$?__CreateToggleSlotImage@CSlotWindow@UI@@IAEXXZ$0
__ehfuncinfo$?__CreateToggleSlotImage@CSlotWindow@UI@@IAEXXZ DD 019930522H
	DD	01H
	DD	FLAT:__unwindtable$?__CreateToggleSlotImage@CSlotWindow@UI@@IAEXXZ
	DD	2 DUP(00H)
	DD	2 DUP(00H)
	DD	00H
	DD	01H
xdata$x	ENDS
;	COMDAT xdata$x
xdata$x	SEGMENT
__unwindtable$?SelectSlot@CSlotWindow@UI@@QAEXK@Z DD 0ffffffffH
	DD	FLAT:__unwindfunclet$?SelectSlot@CSlotWindow@UI@@QAEXK@Z$1
__ehfuncinfo$?SelectSlot@CSlotWindow@UI@@QAEXK@Z DD 019930522H
	DD	01H
	DD	FLAT:__unwindtable$?SelectSlot@CSlotWindow@UI@@QAEXK@Z
	DD	2 DUP(00H)
	DD	2 DUP(00H)
	DD	00H
	DD	01H
xdata$x	ENDS
;	COMDAT xdata$x
xdata$x	SEGMENT
__unwindtable$?SetSlotCountNew@CSlotWindow@UI@@QAEXKKK@Z DD 0ffffffffH
	DD	FLAT:__unwindfunclet$?SetSlotCountNew@CSlotWindow@UI@@QAEXKKK@Z$0
__ehfuncinfo$?SetSlotCountNew@CSlotWindow@UI@@QAEXKKK@Z DD 019930522H
	DD	01H
	DD	FLAT:__unwindtable$?SetSlotCountNew@CSlotWindow@UI@@QAEXKKK@Z
	DD	2 DUP(00H)
	DD	2 DUP(00H)
	DD	00H
	DD	01H
xdata$x	ENDS
;	COMDAT xdata$x
xdata$x	SEGMENT
__unwindtable$?SetSlotCount@CSlotWindow@UI@@QAEXKK@Z DD 0ffffffffH
	DD	FLAT:__unwindfunclet$?SetSlotCount@CSlotWindow@UI@@QAEXKK@Z$0
__ehfuncinfo$?SetSlotCount@CSlotWindow@UI@@QAEXKK@Z DD 019930522H
	DD	01H
	DD	FLAT:__unwindtable$?SetSlotCount@CSlotWindow@UI@@QAEXKK@Z
	DD	2 DUP(00H)
	DD	2 DUP(00H)
	DD	00H
	DD	01H
xdata$x	ENDS
;	COMDAT xdata$x
xdata$x	SEGMENT
__unwindtable$?AppendRequirementSignImage@CSlotWindow@UI@@QAEXPBD@Z DD 0ffffffffH
	DD	FLAT:__unwindfunclet$?AppendRequirementSignImage@CSlotWindow@UI@@QAEXPBD@Z$0
__ehfuncinfo$?AppendRequirementSignImage@CSlotWindow@UI@@QAEXPBD@Z DD 019930522H
	DD	01H
	DD	FLAT:__unwindtable$?AppendRequirementSignImage@CSlotWindow@UI@@QAEXPBD@Z
	DD	2 DUP(00H)
	DD	2 DUP(00H)
	DD	00H
	DD	01H
xdata$x	ENDS
;	COMDAT xdata$x
xdata$x	SEGMENT
__unwindtable$?AppendSlotButton@CSlotWindow@UI@@QAEXPBD00@Z DD 0ffffffffH
	DD	FLAT:__unwindfunclet$?AppendSlotButton@CSlotWindow@UI@@QAEXPBD00@Z$0
__ehfuncinfo$?AppendSlotButton@CSlotWindow@UI@@QAEXPBD00@Z DD 019930522H
	DD	01H
	DD	FLAT:__unwindtable$?AppendSlotButton@CSlotWindow@UI@@QAEXPBD00@Z
	DD	2 DUP(00H)
	DD	2 DUP(00H)
	DD	00H
	DD	01H
xdata$x	ENDS
;	COMDAT xdata$x
xdata$x	SEGMENT
__unwindtable$?SetCoverButton@CSlotWindow@UI@@QAEXKPBD000HH@Z DD 0ffffffffH
	DD	FLAT:__unwindfunclet$?SetCoverButton@CSlotWindow@UI@@QAEXKPBD000HH@Z$0
__ehfuncinfo$?SetCoverButton@CSlotWindow@UI@@QAEXKPBD000HH@Z DD 019930522H
	DD	01H
	DD	FLAT:__unwindtable$?SetCoverButton@CSlotWindow@UI@@QAEXKPBD000HH@Z
	DD	2 DUP(00H)
	DD	2 DUP(00H)
	DD	00H
	DD	01H
xdata$x	ENDS
;	COMDAT xdata$x
xdata$x	SEGMENT
__unwindtable$?AppendSlot@CSlotWindow@UI@@QAEXKHHHH@Z DD 0ffffffffH
	DD	FLAT:__unwindfunclet$?AppendSlot@CSlotWindow@UI@@QAEXKHHHH@Z$1
__ehfuncinfo$?AppendSlot@CSlotWindow@UI@@QAEXKHHHH@Z DD 019930522H
	DD	01H
	DD	FLAT:__unwindtable$?AppendSlot@CSlotWindow@UI@@QAEXKHHHH@Z
	DD	2 DUP(00H)
	DD	2 DUP(00H)
	DD	00H
	DD	01H
xdata$x	ENDS
;	COMDAT xdata$x
xdata$x	SEGMENT
__ehfuncinfo$??1CSlotWindow@UI@@UAE@XZ DD 019930522H
	DD	00H
	DD	00H
	DD	2 DUP(00H)
	DD	2 DUP(00H)
	DD	00H
	DD	05H
xdata$x	ENDS
;	COMDAT xdata$x
xdata$x	SEGMENT
__unwindtable$??0CSlotWindow@UI@@QAE@PAU_object@@@Z DD 0ffffffffH
	DD	FLAT:__unwindfunclet$??0CSlotWindow@UI@@QAE@PAU_object@@@Z$0
	DD	00H
	DD	FLAT:__unwindfunclet$??0CSlotWindow@UI@@QAE@PAU_object@@@Z$1
	DD	01H
	DD	FLAT:__unwindfunclet$??0CSlotWindow@UI@@QAE@PAU_object@@@Z$2
__ehfuncinfo$??0CSlotWindow@UI@@QAE@PAU_object@@@Z DD 019930522H
	DD	03H
	DD	FLAT:__unwindtable$??0CSlotWindow@UI@@QAE@PAU_object@@@Z
	DD	2 DUP(00H)
	DD	2 DUP(00H)
	DD	00H
	DD	01H
xdata$x	ENDS
;	COMDAT xdata$x
xdata$x	SEGMENT
__unwindtable$?push_back@?$list@USSlot@CSlotWindow@UI@@V?$allocator@USSlot@CSlotWindow@UI@@@std@@@std@@QAEXABUSSlot@CSlotWindow@UI@@@Z DD 0ffffffffH
	DD	FLAT:__unwindfunclet$?push_back@?$list@USSlot@CSlotWindow@UI@@V?$allocator@USSlot@CSlotWindow@UI@@@std@@@std@@QAEXABUSSlot@CSlotWindow@UI@@@Z$1
__ehfuncinfo$?push_back@?$list@USSlot@CSlotWindow@UI@@V?$allocator@USSlot@CSlotWindow@UI@@@std@@@std@@QAEXABUSSlot@CSlotWindow@UI@@@Z DD 019930522H
	DD	01H
	DD	FLAT:__unwindtable$?push_back@?$list@USSlot@CSlotWindow@UI@@V?$allocator@USSlot@CSlotWindow@UI@@@std@@@std@@QAEXABUSSlot@CSlotWindow@UI@@@Z
	DD	2 DUP(00H)
	DD	2 DUP(00H)
	DD	00H
	DD	01H
xdata$x	ENDS
;	COMDAT xdata$x
xdata$x	SEGMENT
__unwindtable$?Type@CSlotWindow@UI@@SAKXZ DD 0ffffffffH
	DD	FLAT:__unwindfunclet$?Type@CSlotWindow@UI@@SAKXZ$0
__ehfuncinfo$?Type@CSlotWindow@UI@@SAKXZ DD 019930522H
	DD	01H
	DD	FLAT:__unwindtable$?Type@CSlotWindow@UI@@SAKXZ
	DD	2 DUP(00H)
	DD	2 DUP(00H)
	DD	00H
	DD	01H
xdata$x	ENDS
; Function compile flags: /Ogtp
; File C:\Program Files (x86)\Microsoft Visual Studio\2019\Community\VC\Tools\MSVC\14.28.29333\include\xmemory
;	COMDAT ??$_Zero_range@PAPAK@std@@YAPAPAKQAPAK0@Z
_TEXT	SEGMENT
__First$ = 8						; size = 4
__Last$ = 12						; size = 4
??$_Zero_range@PAPAK@std@@YAPAPAKQAPAK0@Z PROC		; std::_Zero_range<unsigned long * *>, COMDAT

; 1852 : _Ptr _Zero_range(const _Ptr _First, const _Ptr _Last) { // fill [_First, _Last) with zeroes

  00000	55		 push	 ebp
  00001	8b ec		 mov	 ebp, esp

; 1853 :     char* const _First_ch = reinterpret_cast<char*>(_First);
; 1854 :     char* const _Last_ch  = reinterpret_cast<char*>(_Last);
; 1855 :     _CSTD memset(_First_ch, 0, static_cast<size_t>(_Last_ch - _First_ch));

  00003	8b 55 08	 mov	 edx, DWORD PTR __First$[ebp]
  00006	8b 4d 0c	 mov	 ecx, DWORD PTR __Last$[ebp]
  00009	2b ca		 sub	 ecx, edx
  0000b	51		 push	 ecx
  0000c	6a 00		 push	 0
  0000e	52		 push	 edx
  0000f	e8 00 00 00 00	 call	 _memset

; 1856 :     return _Last;

  00014	8b 45 0c	 mov	 eax, DWORD PTR __Last$[ebp]
  00017	83 c4 0c	 add	 esp, 12			; 0000000cH

; 1857 : }

  0001a	5d		 pop	 ebp
  0001b	c3		 ret	 0
??$_Zero_range@PAPAK@std@@YAPAPAKQAPAK0@Z ENDP		; std::_Zero_range<unsigned long * *>
_TEXT	ENDS
; Function compile flags: /Ogtp
; File C:\Program Files (x86)\Microsoft Visual Studio\2019\Community\VC\Tools\MSVC\14.28.29333\include\xutility
;	COMDAT ??$_Copy_memmove@PAPAKPAPAK@std@@YAPAPAKPAPAK00@Z
_TEXT	SEGMENT
__First$ = 8						; size = 4
__Last$ = 12						; size = 4
__Dest$ = 16						; size = 4
??$_Copy_memmove@PAPAKPAPAK@std@@YAPAPAKPAPAK00@Z PROC	; std::_Copy_memmove<unsigned long * *,unsigned long * *>, COMDAT

; 4360 : _OutIt _Copy_memmove(_InIt _First, _InIt _Last, _OutIt _Dest) {

  00000	55		 push	 ebp
  00001	8b ec		 mov	 ebp, esp

; 4361 :     const char* const _First_ch = const_cast<const char*>(reinterpret_cast<const volatile char*>(_First));
; 4362 :     const char* const _Last_ch  = const_cast<const char*>(reinterpret_cast<const volatile char*>(_Last));
; 4363 :     char* const _Dest_ch        = const_cast<char*>(reinterpret_cast<volatile char*>(_Dest));
; 4364 :     const auto _Count           = static_cast<size_t>(_Last_ch - _First_ch);

  00003	8b 45 08	 mov	 eax, DWORD PTR __First$[ebp]
  00006	56		 push	 esi

; 4365 :     _CSTD memmove(_Dest_ch, _First_ch, _Count);

  00007	8b 75 10	 mov	 esi, DWORD PTR __Dest$[ebp]
  0000a	57		 push	 edi
  0000b	8b 7d 0c	 mov	 edi, DWORD PTR __Last$[ebp]
  0000e	2b f8		 sub	 edi, eax
  00010	57		 push	 edi
  00011	50		 push	 eax
  00012	56		 push	 esi
  00013	e8 00 00 00 00	 call	 _memmove
  00018	83 c4 0c	 add	 esp, 12			; 0000000cH

; 4366 :     return reinterpret_cast<_OutIt>(_Dest_ch + _Count);

  0001b	8d 04 37	 lea	 eax, DWORD PTR [edi+esi]
  0001e	5f		 pop	 edi
  0001f	5e		 pop	 esi

; 4367 : }

  00020	5d		 pop	 ebp
  00021	c3		 ret	 0
??$_Copy_memmove@PAPAKPAPAK@std@@YAPAPAKPAPAK00@Z ENDP	; std::_Copy_memmove<unsigned long * *,unsigned long * *>
_TEXT	ENDS
; Function compile flags: /Ogtp
; File C:\Program Files (x86)\Microsoft Visual Studio\2019\Community\VC\Tools\MSVC\14.28.29333\include\xmemory
;	COMDAT ??$_Destroy_range@PAPAKPAPAK@std@@YAXPAPAKQAPAK@Z
_TEXT	SEGMENT
__First$ = 8						; size = 4
__Last$ = 12						; size = 4
??$_Destroy_range@PAPAKPAPAK@std@@YAXPAPAKQAPAK@Z PROC	; std::_Destroy_range<unsigned long * *,unsigned long * *>, COMDAT

; 975  :     // note that this is an optimization for debug mode codegen; in release mode the BE removes all of this
; 976  :     if _CONSTEXPR_IF (!is_trivially_destructible_v<_Iter_value_t<_NoThrowFwdIt>>) {
; 977  :         for (; _First != _Last; ++_First) {
; 978  :             _Destroy_in_place(*_First);
; 979  :         }
; 980  :     }
; 981  : }

  00000	c2 00 00	 ret	 0
??$_Destroy_range@PAPAKPAPAK@std@@YAXPAPAKQAPAK@Z ENDP	; std::_Destroy_range<unsigned long * *,unsigned long * *>
_TEXT	ENDS
; Function compile flags: /Ogtp
; File C:\Program Files (x86)\Microsoft Visual Studio\2019\Community\VC\Tools\MSVC\14.28.29333\include\xmemory
;	COMDAT ??$_Uninitialized_value_construct_n_unchecked1@PAPAKI@std@@YAPAPAKPAPAKI@Z
_TEXT	SEGMENT
__UFirst$ = 8						; size = 4
__Count$ = 12						; size = 4
??$_Uninitialized_value_construct_n_unchecked1@PAPAKI@std@@YAPAPAKPAPAKI@Z PROC ; std::_Uninitialized_value_construct_n_unchecked1<unsigned long * *,unsigned int>, COMDAT

; 1912 : _NoThrowFwdIt _Uninitialized_value_construct_n_unchecked1(_NoThrowFwdIt _UFirst, _Diff _Count) {

  00000	55		 push	 ebp
  00001	8b ec		 mov	 ebp, esp

; 1913 :     // value-initialize all elements in [_UFirst, _UFirst + _Count_raw)
; 1914 :     _STL_INTERNAL_CHECK(_Count >= 0);
; 1915 :     if constexpr (_Use_memset_value_construct_v<_NoThrowFwdIt>) {
; 1916 :         return _Zero_range(_UFirst, _UFirst + _Count);

  00003	8b 4d 08	 mov	 ecx, DWORD PTR __UFirst$[ebp]
  00006	8b 45 0c	 mov	 eax, DWORD PTR __Count$[ebp]
  00009	8d 04 81	 lea	 eax, DWORD PTR [ecx+eax*4]
  0000c	89 45 0c	 mov	 DWORD PTR __Count$[ebp], eax
  0000f	89 4d 08	 mov	 DWORD PTR __UFirst$[ebp], ecx

; 1917 :     } else {
; 1918 :         _Uninitialized_backout<_NoThrowFwdIt> _Backout{_UFirst};
; 1919 :         for (; 0 < _Count; --_Count) {
; 1920 :             _Backout._Emplace_back();
; 1921 :         }
; 1922 : 
; 1923 :         return _Backout._Release();
; 1924 :     }
; 1925 : }

  00012	5d		 pop	 ebp

; 1913 :     // value-initialize all elements in [_UFirst, _UFirst + _Count_raw)
; 1914 :     _STL_INTERNAL_CHECK(_Count >= 0);
; 1915 :     if constexpr (_Use_memset_value_construct_v<_NoThrowFwdIt>) {
; 1916 :         return _Zero_range(_UFirst, _UFirst + _Count);

  00013	e9 00 00 00 00	 jmp	 ??$_Zero_range@PAPAK@std@@YAPAPAKQAPAK0@Z ; std::_Zero_range<unsigned long * *>
??$_Uninitialized_value_construct_n_unchecked1@PAPAKI@std@@YAPAPAKPAPAKI@Z ENDP ; std::_Uninitialized_value_construct_n_unchecked1<unsigned long * *,unsigned int>
_TEXT	ENDS
; Function compile flags: /Ogtp
; File C:\Program Files (x86)\Microsoft Visual Studio\2019\Community\VC\Tools\MSVC\14.28.29333\include\xmemory
;	COMDAT ??$uninitialized_copy@PAPAKPAPAK@std@@YAPAPAKQAPAK0PAPAK@Z
_TEXT	SEGMENT
__First$ = 8						; size = 4
__Last$ = 12						; size = 4
__Dest$ = 16						; size = 4
??$uninitialized_copy@PAPAKPAPAK@std@@YAPAPAKQAPAK0PAPAK@Z PROC ; std::uninitialized_copy<unsigned long * *,unsigned long * *>, COMDAT

; 1629 : _NoThrowFwdIt uninitialized_copy(const _InIt _First, const _InIt _Last, _NoThrowFwdIt _Dest) {

  00000	55		 push	 ebp
  00001	8b ec		 mov	 ebp, esp

; 1637 :     } else {
; 1638 :         _Uninitialized_backout<decltype(_UDest)> _Backout{_UDest};
; 1639 :         for (; _UFirst != _ULast; ++_UFirst) {
; 1640 :             _Backout._Emplace_back(*_UFirst);
; 1641 :         }
; 1642 : 
; 1643 :         _UDest = _Backout._Release();
; 1644 :     }
; 1645 : 
; 1646 :     _Seek_wrapped(_Dest, _UDest);
; 1647 :     return _Dest;
; 1648 : }

  00003	5d		 pop	 ebp

; 1630 :     // copy [_First, _Last) to raw [_Dest, ...)
; 1631 :     _Adl_verify_range(_First, _Last);
; 1632 :     auto _UFirst      = _Get_unwrapped(_First);
; 1633 :     const auto _ULast = _Get_unwrapped(_Last);
; 1634 :     auto _UDest       = _Get_unwrapped_n(_Dest, _Idl_distance<_InIt>(_UFirst, _ULast));
; 1635 :     if constexpr (_Ptr_copy_cat<decltype(_UFirst), decltype(_UDest)>::_Really_trivial) {
; 1636 :         _UDest = _Copy_memmove(_UFirst, _ULast, _UDest);

  00004	e9 00 00 00 00	 jmp	 ??$_Copy_memmove@PAPAKPAPAK@std@@YAPAPAKPAPAK00@Z ; std::_Copy_memmove<unsigned long * *,unsigned long * *>
??$uninitialized_copy@PAPAKPAPAK@std@@YAPAPAKQAPAK0PAPAK@Z ENDP ; std::uninitialized_copy<unsigned long * *,unsigned long * *>
_TEXT	ENDS
; Function compile flags: /Ogtp
; File C:\Program Files (x86)\Microsoft Visual Studio\2019\Community\VC\Tools\MSVC\14.28.29333\include\xmemory
;	COMDAT ??$_Construct_in_place@PAU?$_List_node@KPAX@std@@ABQAU12@@std@@YAXAAPAU?$_List_node@KPAX@0@ABQAU10@@Z
_TEXT	SEGMENT
__Obj$ = 8						; size = 4
_<_Args_0>$ = 12					; size = 4
??$_Construct_in_place@PAU?$_List_node@KPAX@std@@ABQAU12@@std@@YAXAAPAU?$_List_node@KPAX@0@ABQAU10@@Z PROC ; std::_Construct_in_place<std::_List_node<unsigned long,void *> *,std::_List_node<unsigned long,void *> * const &>, COMDAT

; 228  : void _Construct_in_place(_Ty& _Obj, _Types&&... _Args) noexcept(is_nothrow_constructible_v<_Ty, _Types...>) {

  00000	55		 push	 ebp
  00001	8b ec		 mov	 ebp, esp

; 229  :     ::new (const_cast<void*>(static_cast<const volatile void*>(_STD addressof(_Obj))))

  00003	8b 45 0c	 mov	 eax, DWORD PTR _<_Args_0>$[ebp]
  00006	8b 08		 mov	 ecx, DWORD PTR [eax]
  00008	8b 45 08	 mov	 eax, DWORD PTR __Obj$[ebp]
  0000b	89 08		 mov	 DWORD PTR [eax], ecx

; 230  :         _Ty(_STD forward<_Types>(_Args)...);
; 231  : }

  0000d	5d		 pop	 ebp
  0000e	c3		 ret	 0
??$_Construct_in_place@PAU?$_List_node@KPAX@std@@ABQAU12@@std@@YAXAAPAU?$_List_node@KPAX@0@ABQAU10@@Z ENDP ; std::_Construct_in_place<std::_List_node<unsigned long,void *> *,std::_List_node<unsigned long,void *> * const &>
_TEXT	ENDS
; Function compile flags: /Ogtp
; File C:\Program Files (x86)\Microsoft Visual Studio\2019\Community\VC\Tools\MSVC\14.28.29333\include\xmemory
;	COMDAT ??$_Construct_in_place@PAU?$_List_node@USSlot@CSlotWindow@UI@@PAX@std@@ABQAU12@@std@@YAXAAPAU?$_List_node@USSlot@CSlotWindow@UI@@PAX@0@ABQAU10@@Z
_TEXT	SEGMENT
__Obj$ = 8						; size = 4
_<_Args_0>$ = 12					; size = 4
??$_Construct_in_place@PAU?$_List_node@USSlot@CSlotWindow@UI@@PAX@std@@ABQAU12@@std@@YAXAAPAU?$_List_node@USSlot@CSlotWindow@UI@@PAX@0@ABQAU10@@Z PROC ; std::_Construct_in_place<std::_List_node<UI::CSlotWindow::SSlot,void *> *,std::_List_node<UI::CSlotWindow::SSlot,void *> * const &>, COMDAT

; 228  : void _Construct_in_place(_Ty& _Obj, _Types&&... _Args) noexcept(is_nothrow_constructible_v<_Ty, _Types...>) {

  00000	55		 push	 ebp
  00001	8b ec		 mov	 ebp, esp

; 229  :     ::new (const_cast<void*>(static_cast<const volatile void*>(_STD addressof(_Obj))))

  00003	8b 45 0c	 mov	 eax, DWORD PTR _<_Args_0>$[ebp]
  00006	8b 08		 mov	 ecx, DWORD PTR [eax]
  00008	8b 45 08	 mov	 eax, DWORD PTR __Obj$[ebp]
  0000b	89 08		 mov	 DWORD PTR [eax], ecx

; 230  :         _Ty(_STD forward<_Types>(_Args)...);
; 231  : }

  0000d	5d		 pop	 ebp
  0000e	c3		 ret	 0
??$_Construct_in_place@PAU?$_List_node@USSlot@CSlotWindow@UI@@PAX@std@@ABQAU12@@std@@YAXAAPAU?$_List_node@USSlot@CSlotWindow@UI@@PAX@0@ABQAU10@@Z ENDP ; std::_Construct_in_place<std::_List_node<UI::CSlotWindow::SSlot,void *> *,std::_List_node<UI::CSlotWindow::SSlot,void *> * const &>
_TEXT	ENDS
; Function compile flags: /Ogtp
; File C:\Program Files (x86)\Microsoft Visual Studio\2019\Community\VC\Tools\MSVC\14.28.29333\include\xmemory
;	COMDAT ??$_Destroy_in_place@PAU?$_List_node@USSlot@CSlotWindow@UI@@PAX@std@@@std@@YAXAAPAU?$_List_node@USSlot@CSlotWindow@UI@@PAX@0@@Z
_TEXT	SEGMENT
__Obj$ = 8						; size = 4
??$_Destroy_in_place@PAU?$_List_node@USSlot@CSlotWindow@UI@@PAX@std@@@std@@YAXAAPAU?$_List_node@USSlot@CSlotWindow@UI@@PAX@0@@Z PROC ; std::_Destroy_in_place<std::_List_node<UI::CSlotWindow::SSlot,void *> *>, COMDAT

; 271  : #if _HAS_IF_CONSTEXPR
; 272  :     if constexpr (is_array_v<_Ty>) {
; 273  :         _Destroy_range(_Obj, _Obj + extent_v<_Ty>);
; 274  :     } else
; 275  : #endif // _HAS_IF_CONSTEXPR
; 276  :     {
; 277  :         _Obj.~_Ty();
; 278  :     }
; 279  : }

  00000	c2 00 00	 ret	 0
??$_Destroy_in_place@PAU?$_List_node@USSlot@CSlotWindow@UI@@PAX@std@@@std@@YAXAAPAU?$_List_node@USSlot@CSlotWindow@UI@@PAX@0@@Z ENDP ; std::_Destroy_in_place<std::_List_node<UI::CSlotWindow::SSlot,void *> *>
_TEXT	ENDS
; Function compile flags: /Ogtp
; File C:\Program Files (x86)\Microsoft Visual Studio\2019\Community\VC\Tools\MSVC\14.28.29333\include\xmemory
;	COMDAT ??$_Destroy_in_place@PAU?$_List_node@KPAX@std@@@std@@YAXAAPAU?$_List_node@KPAX@0@@Z
_TEXT	SEGMENT
__Obj$ = 8						; size = 4
??$_Destroy_in_place@PAU?$_List_node@KPAX@std@@@std@@YAXAAPAU?$_List_node@KPAX@0@@Z PROC ; std::_Destroy_in_place<std::_List_node<unsigned long,void *> *>, COMDAT

; 271  : #if _HAS_IF_CONSTEXPR
; 272  :     if constexpr (is_array_v<_Ty>) {
; 273  :         _Destroy_range(_Obj, _Obj + extent_v<_Ty>);
; 274  :     } else
; 275  : #endif // _HAS_IF_CONSTEXPR
; 276  :     {
; 277  :         _Obj.~_Ty();
; 278  :     }
; 279  : }

  00000	c2 00 00	 ret	 0
??$_Destroy_in_place@PAU?$_List_node@KPAX@std@@@std@@YAXAAPAU?$_List_node@KPAX@0@@Z ENDP ; std::_Destroy_in_place<std::_List_node<unsigned long,void *> *>
_TEXT	ENDS
; Function compile flags: /Ogtp
; File C:\Program Files (x86)\Microsoft Visual Studio\2019\Community\VC\Tools\MSVC\14.28.29333\include\xmemory
;	COMDAT ??1?$_Alloc_construct_ptr@V?$allocator@U?$_List_node@USSlot@CSlotWindow@UI@@PAX@std@@@std@@@std@@QAE@XZ
_TEXT	SEGMENT
??1?$_Alloc_construct_ptr@V?$allocator@U?$_List_node@USSlot@CSlotWindow@UI@@PAX@std@@@std@@@std@@QAE@XZ PROC ; std::_Alloc_construct_ptr<std::allocator<std::_List_node<UI::CSlotWindow::SSlot,void *> > >::~_Alloc_construct_ptr<std::allocator<std::_List_node<UI::CSlotWindow::SSlot,void *> > >, COMDAT
; _this$ = ecx

; 1057 :         if (_Ptr) {

  00000	8b 41 04	 mov	 eax, DWORD PTR [ecx+4]
  00003	85 c0		 test	 eax, eax
  00005	74 0b		 je	 SHORT $LN2@Alloc_cons

; 810  :         _Deallocate<_New_alignof<_Ty>>(_Ptr, sizeof(_Ty) * _Count);

  00007	6a 58		 push	 88			; 00000058H
  00009	50		 push	 eax
  0000a	e8 00 00 00 00	 call	 ??$_Deallocate@$07$0A@@std@@YAXPAXI@Z ; std::_Deallocate<8,0>
  0000f	83 c4 08	 add	 esp, 8
$LN2@Alloc_cons:

; 1058 :             _Al.deallocate(_Ptr, 1);
; 1059 :         }
; 1060 :     }

  00012	c3		 ret	 0
??1?$_Alloc_construct_ptr@V?$allocator@U?$_List_node@USSlot@CSlotWindow@UI@@PAX@std@@@std@@@std@@QAE@XZ ENDP ; std::_Alloc_construct_ptr<std::allocator<std::_List_node<UI::CSlotWindow::SSlot,void *> > >::~_Alloc_construct_ptr<std::allocator<std::_List_node<UI::CSlotWindow::SSlot,void *> > >
_TEXT	ENDS
; Function compile flags: /Ogtp
; File C:\Program Files (x86)\Microsoft Visual Studio\2019\Community\VC\Tools\MSVC\14.28.29333\include\xmemory
;	COMDAT ??1?$_Alloc_construct_ptr@V?$allocator@U?$_List_node@KPAX@std@@@std@@@std@@QAE@XZ
_TEXT	SEGMENT
??1?$_Alloc_construct_ptr@V?$allocator@U?$_List_node@KPAX@std@@@std@@@std@@QAE@XZ PROC ; std::_Alloc_construct_ptr<std::allocator<std::_List_node<unsigned long,void *> > >::~_Alloc_construct_ptr<std::allocator<std::_List_node<unsigned long,void *> > >, COMDAT
; _this$ = ecx

; 1057 :         if (_Ptr) {

  00000	8b 41 04	 mov	 eax, DWORD PTR [ecx+4]
  00003	85 c0		 test	 eax, eax
  00005	74 0b		 je	 SHORT $LN2@Alloc_cons

; 810  :         _Deallocate<_New_alignof<_Ty>>(_Ptr, sizeof(_Ty) * _Count);

  00007	6a 0c		 push	 12			; 0000000cH
  00009	50		 push	 eax
  0000a	e8 00 00 00 00	 call	 ??$_Deallocate@$07$0A@@std@@YAXPAXI@Z ; std::_Deallocate<8,0>
  0000f	83 c4 08	 add	 esp, 8
$LN2@Alloc_cons:

; 1058 :             _Al.deallocate(_Ptr, 1);
; 1059 :         }
; 1060 :     }

  00012	c3		 ret	 0
??1?$_Alloc_construct_ptr@V?$allocator@U?$_List_node@KPAX@std@@@std@@@std@@QAE@XZ ENDP ; std::_Alloc_construct_ptr<std::allocator<std::_List_node<unsigned long,void *> > >::~_Alloc_construct_ptr<std::allocator<std::_List_node<unsigned long,void *> > >
_TEXT	ENDS
; Function compile flags: /Ogtp
; File C:\Program Files (x86)\Microsoft Visual Studio\2019\Community\VC\Tools\MSVC\14.28.29333\include\xmemory
;	COMDAT ??$_Construct_in_place@U_Container_proxy@std@@PAU_Container_base12@2@@std@@YAXAAU_Container_proxy@0@$$QAPAU_Container_base12@0@@Z
_TEXT	SEGMENT
__Obj$ = 8						; size = 4
_<_Args_0>$ = 12					; size = 4
??$_Construct_in_place@U_Container_proxy@std@@PAU_Container_base12@2@@std@@YAXAAU_Container_proxy@0@$$QAPAU_Container_base12@0@@Z PROC ; std::_Construct_in_place<std::_Container_proxy,std::_Container_base12 *>, COMDAT

; 228  : void _Construct_in_place(_Ty& _Obj, _Types&&... _Args) noexcept(is_nothrow_constructible_v<_Ty, _Types...>) {

  00000	55		 push	 ebp
  00001	8b ec		 mov	 ebp, esp

; 1089 :     _Container_proxy(_Container_base12* _Mycont_) noexcept : _Mycont(_Mycont_), _Myfirstiter(nullptr) {}

  00003	8b 45 0c	 mov	 eax, DWORD PTR _<_Args_0>$[ebp]
  00006	8b 4d 08	 mov	 ecx, DWORD PTR __Obj$[ebp]
  00009	8b 00		 mov	 eax, DWORD PTR [eax]
  0000b	89 01		 mov	 DWORD PTR [ecx], eax
  0000d	c7 41 04 00 00
	00 00		 mov	 DWORD PTR [ecx+4], 0

; 229  :     ::new (const_cast<void*>(static_cast<const volatile void*>(_STD addressof(_Obj))))
; 230  :         _Ty(_STD forward<_Types>(_Args)...);
; 231  : }

  00014	5d		 pop	 ebp
  00015	c3		 ret	 0
??$_Construct_in_place@U_Container_proxy@std@@PAU_Container_base12@2@@std@@YAXAAU_Container_proxy@0@$$QAPAU_Container_base12@0@@Z ENDP ; std::_Construct_in_place<std::_Container_proxy,std::_Container_base12 *>
_TEXT	ENDS
; Function compile flags: /Ogtp
; File C:\Program Files (x86)\Microsoft Visual Studio\2019\Community\VC\Tools\MSVC\14.28.29333\include\xmemory
;	COMDAT ??$_Deallocate_plain@V?$allocator@U_Container_proxy@std@@@std@@@std@@YAXAAV?$allocator@U_Container_proxy@std@@@0@QAU_Container_proxy@0@@Z
_TEXT	SEGMENT
__Al$ = 8						; size = 4
__Ptr$ = 12						; size = 4
??$_Deallocate_plain@V?$allocator@U_Container_proxy@std@@@std@@@std@@YAXAAV?$allocator@U_Container_proxy@std@@@0@QAU_Container_proxy@0@@Z PROC ; std::_Deallocate_plain<std::allocator<std::_Container_proxy> >, COMDAT

; 1003 : void _Deallocate_plain(_Alloc& _Al, typename _Alloc::value_type* const _Ptr) noexcept {

  00000	55		 push	 ebp
  00001	8b ec		 mov	 ebp, esp

; 696  :         _Deallocate<_New_alignof<value_type>>(_Ptr, sizeof(value_type) * _Count);

  00003	6a 08		 push	 8
  00005	ff 75 0c	 push	 DWORD PTR __Ptr$[ebp]
  00008	e8 00 00 00 00	 call	 ??$_Deallocate@$07$0A@@std@@YAXPAXI@Z ; std::_Deallocate<8,0>
  0000d	83 c4 08	 add	 esp, 8

; 1004 :     // deallocate a plain pointer using an allocator
; 1005 :     using _Alloc_traits = allocator_traits<_Alloc>;
; 1006 :     if constexpr (is_same_v<_Alloc_ptr_t<_Alloc>, typename _Alloc::value_type*>) {
; 1007 :         _Alloc_traits::deallocate(_Al, _Ptr, 1);
; 1008 :     } else {
; 1009 :         using _Ptr_traits = pointer_traits<_Alloc_ptr_t<_Alloc>>;
; 1010 :         _Alloc_traits::deallocate(_Al, _Ptr_traits::pointer_to(*_Ptr), 1);
; 1011 :     }
; 1012 : }

  00010	5d		 pop	 ebp
  00011	c3		 ret	 0
??$_Deallocate_plain@V?$allocator@U_Container_proxy@std@@@std@@@std@@YAXAAV?$allocator@U_Container_proxy@std@@@0@QAU_Container_proxy@0@@Z ENDP ; std::_Deallocate_plain<std::allocator<std::_Container_proxy> >
_TEXT	ENDS
; Function compile flags: /Ogtp
; File C:\Program Files (x86)\Microsoft Visual Studio\2019\Community\VC\Tools\MSVC\14.28.29333\include\xmemory
;	COMDAT ??$_Construct_in_place@PAU?$_List_node@USSlot@CSlotWindow@UI@@PAX@std@@AAPAU12@@std@@YAXAAPAU?$_List_node@USSlot@CSlotWindow@UI@@PAX@0@0@Z
_TEXT	SEGMENT
__Obj$ = 8						; size = 4
_<_Args_0>$ = 12					; size = 4
??$_Construct_in_place@PAU?$_List_node@USSlot@CSlotWindow@UI@@PAX@std@@AAPAU12@@std@@YAXAAPAU?$_List_node@USSlot@CSlotWindow@UI@@PAX@0@0@Z PROC ; std::_Construct_in_place<std::_List_node<UI::CSlotWindow::SSlot,void *> *,std::_List_node<UI::CSlotWindow::SSlot,void *> * &>, COMDAT

; 228  : void _Construct_in_place(_Ty& _Obj, _Types&&... _Args) noexcept(is_nothrow_constructible_v<_Ty, _Types...>) {

  00000	55		 push	 ebp
  00001	8b ec		 mov	 ebp, esp

; 229  :     ::new (const_cast<void*>(static_cast<const volatile void*>(_STD addressof(_Obj))))

  00003	8b 45 0c	 mov	 eax, DWORD PTR _<_Args_0>$[ebp]
  00006	8b 08		 mov	 ecx, DWORD PTR [eax]
  00008	8b 45 08	 mov	 eax, DWORD PTR __Obj$[ebp]
  0000b	89 08		 mov	 DWORD PTR [eax], ecx

; 230  :         _Ty(_STD forward<_Types>(_Args)...);
; 231  : }

  0000d	5d		 pop	 ebp
  0000e	c3		 ret	 0
??$_Construct_in_place@PAU?$_List_node@USSlot@CSlotWindow@UI@@PAX@std@@AAPAU12@@std@@YAXAAPAU?$_List_node@USSlot@CSlotWindow@UI@@PAX@0@0@Z ENDP ; std::_Construct_in_place<std::_List_node<UI::CSlotWindow::SSlot,void *> *,std::_List_node<UI::CSlotWindow::SSlot,void *> * &>
_TEXT	ENDS
; Function compile flags: /Ogtp
; File C:\Program Files (x86)\Microsoft Visual Studio\2019\Community\VC\Tools\MSVC\14.28.29333\include\xmemory
;	COMDAT ??$_Construct_in_place@PAU?$_List_node@KPAX@std@@AAPAU12@@std@@YAXAAPAU?$_List_node@KPAX@0@0@Z
_TEXT	SEGMENT
__Obj$ = 8						; size = 4
_<_Args_0>$ = 12					; size = 4
??$_Construct_in_place@PAU?$_List_node@KPAX@std@@AAPAU12@@std@@YAXAAPAU?$_List_node@KPAX@0@0@Z PROC ; std::_Construct_in_place<std::_List_node<unsigned long,void *> *,std::_List_node<unsigned long,void *> * &>, COMDAT

; 228  : void _Construct_in_place(_Ty& _Obj, _Types&&... _Args) noexcept(is_nothrow_constructible_v<_Ty, _Types...>) {

  00000	55		 push	 ebp
  00001	8b ec		 mov	 ebp, esp

; 229  :     ::new (const_cast<void*>(static_cast<const volatile void*>(_STD addressof(_Obj))))

  00003	8b 45 0c	 mov	 eax, DWORD PTR _<_Args_0>$[ebp]
  00006	8b 08		 mov	 ecx, DWORD PTR [eax]
  00008	8b 45 08	 mov	 eax, DWORD PTR __Obj$[ebp]
  0000b	89 08		 mov	 DWORD PTR [eax], ecx

; 230  :         _Ty(_STD forward<_Types>(_Args)...);
; 231  : }

  0000d	5d		 pop	 ebp
  0000e	c3		 ret	 0
??$_Construct_in_place@PAU?$_List_node@KPAX@std@@AAPAU12@@std@@YAXAAPAU?$_List_node@KPAX@0@0@Z ENDP ; std::_Construct_in_place<std::_List_node<unsigned long,void *> *,std::_List_node<unsigned long,void *> * &>
_TEXT	ENDS
; Function compile flags: /Ogtp
; File C:\Program Files (x86)\Microsoft Visual Studio\2019\Community\VC\Tools\MSVC\14.28.29333\include\xmemory
;	COMDAT ??$_Destroy_in_place@PAK@std@@YAXAAPAK@Z
_TEXT	SEGMENT
__Obj$ = 8						; size = 4
??$_Destroy_in_place@PAK@std@@YAXAAPAK@Z PROC		; std::_Destroy_in_place<unsigned long *>, COMDAT

; 271  : #if _HAS_IF_CONSTEXPR
; 272  :     if constexpr (is_array_v<_Ty>) {
; 273  :         _Destroy_range(_Obj, _Obj + extent_v<_Ty>);
; 274  :     } else
; 275  : #endif // _HAS_IF_CONSTEXPR
; 276  :     {
; 277  :         _Obj.~_Ty();
; 278  :     }
; 279  : }

  00000	c2 00 00	 ret	 0
??$_Destroy_in_place@PAK@std@@YAXAAPAK@Z ENDP		; std::_Destroy_in_place<unsigned long *>
_TEXT	ENDS
; Function compile flags: /Ogtp
; File C:\Program Files (x86)\Microsoft Visual Studio\2019\Community\VC\Tools\MSVC\14.28.29333\include\xmemory
;	COMDAT ??$_Delete_plain_internal@V?$allocator@U_Container_proxy@std@@@std@@@std@@YAXAAV?$allocator@U_Container_proxy@std@@@0@QAU_Container_proxy@0@@Z
_TEXT	SEGMENT
__Al$ = 8						; size = 4
__Ptr$ = 12						; size = 4
??$_Delete_plain_internal@V?$allocator@U_Container_proxy@std@@@std@@@std@@YAXAAV?$allocator@U_Container_proxy@std@@@0@QAU_Container_proxy@0@@Z PROC ; std::_Delete_plain_internal<std::allocator<std::_Container_proxy> >, COMDAT

; 1032 :     // destroy *_Ptr in place, then deallocate _Ptr using _Al; used for internal container types the user didn't name
; 1033 :     using _Ty = typename _Alloc::value_type;
; 1034 :     _Ptr->~_Ty();
; 1035 :     _Deallocate_plain(_Al, _Ptr);

  00000	e9 00 00 00 00	 jmp	 ??$_Deallocate_plain@V?$allocator@U_Container_proxy@std@@@std@@@std@@YAXAAV?$allocator@U_Container_proxy@std@@@0@QAU_Container_proxy@0@@Z ; std::_Deallocate_plain<std::allocator<std::_Container_proxy> >
??$_Delete_plain_internal@V?$allocator@U_Container_proxy@std@@@std@@@std@@YAXAAV?$allocator@U_Container_proxy@std@@@0@QAU_Container_proxy@0@@Z ENDP ; std::_Delete_plain_internal<std::allocator<std::_Container_proxy> >
_TEXT	ENDS
; Function compile flags: /Ogtp
; File C:\Program Files (x86)\Microsoft Visual Studio\2019\Community\VC\Tools\MSVC\14.28.29333\include\deque
; File C:\Program Files (x86)\Microsoft Visual Studio\2019\Community\VC\Tools\MSVC\14.28.29333\include\xmemory
; File C:\Program Files (x86)\Microsoft Visual Studio\2019\Community\VC\Tools\MSVC\14.28.29333\include\deque
; File C:\Program Files (x86)\Microsoft Visual Studio\2019\Community\VC\Tools\MSVC\14.28.29333\include\xmemory
; File C:\Program Files (x86)\Microsoft Visual Studio\2019\Community\VC\Tools\MSVC\14.28.29333\include\deque
; File C:\Program Files (x86)\Microsoft Visual Studio\2019\Community\VC\Tools\MSVC\14.28.29333\include\xmemory
; File C:\Program Files (x86)\Microsoft Visual Studio\2019\Community\VC\Tools\MSVC\14.28.29333\include\deque
; File C:\Program Files (x86)\Microsoft Visual Studio\2019\Community\VC\Tools\MSVC\14.28.29333\include\xmemory
; File C:\Program Files (x86)\Microsoft Visual Studio\2019\Community\VC\Tools\MSVC\14.28.29333\include\deque
; File C:\Program Files (x86)\Microsoft Visual Studio\2019\Community\VC\Tools\MSVC\14.28.29333\include\xmemory
; File C:\Program Files (x86)\Microsoft Visual Studio\2019\Community\VC\Tools\MSVC\14.28.29333\include\deque
; File C:\Program Files (x86)\Microsoft Visual Studio\2019\Community\VC\Tools\MSVC\14.28.29333\include\xmemory
; File C:\Program Files (x86)\Microsoft Visual Studio\2019\Community\VC\Tools\MSVC\14.28.29333\include\deque
;	COMDAT ??$_Emplace_back_internal@ABK@?$deque@KV?$allocator@K@std@@@std@@AAEXABK@Z
_TEXT	SEGMENT
tv641 = -8						; size = 4
__Newmap$1$ = -4					; size = 4
_<_Vals_0>$ = 8						; size = 4
??$_Emplace_back_internal@ABK@?$deque@KV?$allocator@K@std@@@std@@AAEXABK@Z PROC ; std::deque<unsigned long,std::allocator<unsigned long> >::_Emplace_back_internal<unsigned long const &>, COMDAT
; _this$ = ecx

; 1114 :     void _Emplace_back_internal(_Tys&&... _Vals) {

  00000	55		 push	 ebp
  00001	8b ec		 mov	 ebp, esp
  00003	83 ec 08	 sub	 esp, 8
  00006	53		 push	 ebx
  00007	56		 push	 esi
  00008	57		 push	 edi
  00009	8b f9		 mov	 edi, ecx

; 1115 :         _PUSH_BACK_BEGIN;

  0000b	8b 4f 10	 mov	 ecx, DWORD PTR [edi+16]
  0000e	8b f1		 mov	 esi, ecx
  00010	8b 5f 0c	 mov	 ebx, DWORD PTR [edi+12]
  00013	8b d3		 mov	 edx, ebx
  00015	8d 04 0b	 lea	 eax, DWORD PTR [ebx+ecx]
  00018	a8 03		 test	 al, 3
  0001a	0f 85 fb 00 00
	00		 jne	 $LN13@Emplace_ba
  00020	8b 57 08	 mov	 edx, DWORD PTR [edi+8]
  00023	8d 41 04	 lea	 eax, DWORD PTR [ecx+4]
  00026	c1 e8 02	 shr	 eax, 2
  00029	3b d0		 cmp	 edx, eax
  0002b	0f 87 e8 00 00
	00		 ja	 $LN42@Emplace_ba

; 1434 :         size_type _Newsize = 0 < _Mapsize() ? _Mapsize() : 1;

  00031	85 d2		 test	 edx, edx
  00033	b8 01 00 00 00	 mov	 eax, 1
  00038	0f 45 c2	 cmovne	 eax, edx
  0003b	0f 1f 44 00 00	 npad	 5
$LL6@Emplace_ba:

; 1435 :         while (_Newsize - _Mapsize() < _Count || _Newsize < _DEQUEMAPSIZ) {

  00040	8b f0		 mov	 esi, eax
  00042	2b f2		 sub	 esi, edx
  00044	83 fe 01	 cmp	 esi, 1
  00047	72 05		 jb	 SHORT $LN8@Emplace_ba
  00049	83 f8 08	 cmp	 eax, 8
  0004c	73 13		 jae	 SHORT $LN7@Emplace_ba
$LN8@Emplace_ba:

; 1436 :             // scale _Newsize to 2^N >= _Mapsize() + _Count
; 1437 :             if (max_size() / _DEQUESIZ - _Newsize < _Newsize) {

  0004e	b9 ff ff ff 0f	 mov	 ecx, 268435455		; 0fffffffH
  00053	2b c8		 sub	 ecx, eax
  00055	3b c8		 cmp	 ecx, eax
  00057	0f 82 19 01 00
	00		 jb	 $LN37@Emplace_ba

; 1439 :             }
; 1440 : 
; 1441 :             _Newsize *= 2;

  0005d	03 c0		 add	 eax, eax

; 1442 :         }

  0005f	eb df		 jmp	 SHORT $LL6@Emplace_ba
$LN7@Emplace_ba:

; 1443 :         _Count = _Newsize - _Mapsize();
; 1444 : 
; 1445 :         size_type _Myboff = _Myoff() / _DEQUESIZ;

  00061	c1 eb 02	 shr	 ebx, 2
; File C:\Program Files (x86)\Microsoft Visual Studio\2019\Community\VC\Tools\MSVC\14.28.29333\include\xmemory

; 60   :         if (_Count > _Max_possible) {

  00064	3d ff ff ff 3f	 cmp	 eax, 1073741823		; 3fffffffH
  00069	0f 87 02 01 00
	00		 ja	 $LN45@Emplace_ba

; 62   :         }
; 63   :     }
; 64   : 
; 65   :     return _Count * _Ty_size;

  0006f	c1 e0 02	 shl	 eax, 2

; 814  :         return static_cast<_Ty*>(_Allocate<_New_alignof<_Ty>>(_Get_size_of_n<sizeof(_Ty)>(_Count)));

  00072	50		 push	 eax
  00073	e8 00 00 00 00	 call	 ??$_Allocate@$07U_Default_allocate_traits@std@@$0A@@std@@YAPAXI@Z ; std::_Allocate<8,std::_Default_allocate_traits,0>
; File C:\Program Files (x86)\Microsoft Visual Studio\2019\Community\VC\Tools\MSVC\14.28.29333\include\deque

; 1449 :         _Myptr = _STD uninitialized_copy(_Map() + _Myboff, _Map() + _Mapsize(), _Myptr); // copy initial to end

  00078	8b 57 04	 mov	 edx, DWORD PTR [edi+4]
  0007b	8d 0c 9d 00 00
	00 00		 lea	 ecx, DWORD PTR [ebx*4]
  00082	89 4d f8	 mov	 DWORD PTR tv641[ebp], ecx
  00085	03 c8		 add	 ecx, eax
  00087	51		 push	 ecx
  00088	8b 4f 08	 mov	 ecx, DWORD PTR [edi+8]
; File C:\Program Files (x86)\Microsoft Visual Studio\2019\Community\VC\Tools\MSVC\14.28.29333\include\xmemory

; 814  :         return static_cast<_Ty*>(_Allocate<_New_alignof<_Ty>>(_Get_size_of_n<sizeof(_Ty)>(_Count)));

  0008b	89 45 fc	 mov	 DWORD PTR __Newmap$1$[ebp], eax
; File C:\Program Files (x86)\Microsoft Visual Studio\2019\Community\VC\Tools\MSVC\14.28.29333\include\deque

; 1449 :         _Myptr = _STD uninitialized_copy(_Map() + _Myboff, _Map() + _Mapsize(), _Myptr); // copy initial to end

  0008e	8d 04 9a	 lea	 eax, DWORD PTR [edx+ebx*4]
  00091	8d 0c 8a	 lea	 ecx, DWORD PTR [edx+ecx*4]
  00094	51		 push	 ecx
  00095	50		 push	 eax
  00096	e8 00 00 00 00	 call	 ??$uninitialized_copy@PAPAKPAPAK@std@@YAPAPAKQAPAK0PAPAK@Z ; std::uninitialized_copy<unsigned long * *,unsigned long * *>
  0009b	8b 4f 04	 mov	 ecx, DWORD PTR [edi+4]
  0009e	83 c4 10	 add	 esp, 16			; 00000010H

; 1450 :         if (_Myboff <= _Count) { // increment greater than offset of initial block

  000a1	50		 push	 eax
  000a2	3b de		 cmp	 ebx, esi
  000a4	77 1d		 ja	 SHORT $LN10@Emplace_ba

; 1451 :             _Myptr = _STD uninitialized_copy(_Map(), _Map() + _Myboff, _Myptr); // copy rest of old

  000a6	8d 04 99	 lea	 eax, DWORD PTR [ecx+ebx*4]
  000a9	50		 push	 eax
  000aa	51		 push	 ecx
  000ab	e8 00 00 00 00	 call	 ??$uninitialized_copy@PAPAKPAPAK@std@@YAPAPAKQAPAK0PAPAK@Z ; std::uninitialized_copy<unsigned long * *,unsigned long * *>

; 1452 :             _Uninitialized_value_construct_n_unchecked1(_Myptr, _Count - _Myboff); // clear suffix of new

  000b0	8b ce		 mov	 ecx, esi
  000b2	2b cb		 sub	 ecx, ebx
  000b4	51		 push	 ecx
  000b5	50		 push	 eax
  000b6	e8 00 00 00 00	 call	 ??$_Uninitialized_value_construct_n_unchecked1@PAPAKI@std@@YAPAPAKPAPAKI@Z ; std::_Uninitialized_value_construct_n_unchecked1<unsigned long * *,unsigned int>

; 1453 :             _Uninitialized_value_construct_n_unchecked1(_Newmap, _Myboff); // clear prefix of new

  000bb	8b 45 fc	 mov	 eax, DWORD PTR __Newmap$1$[ebp]
  000be	83 c4 14	 add	 esp, 20			; 00000014H

; 1454 :         } else { // increment not greater than offset of initial block

  000c1	eb 24		 jmp	 SHORT $LN11@Emplace_ba
$LN10@Emplace_ba:

; 1455 :             _STD uninitialized_copy(_Map(), _Map() + _Count, _Myptr); // copy more old

  000c3	8d 04 b1	 lea	 eax, DWORD PTR [ecx+esi*4]
  000c6	50		 push	 eax
  000c7	51		 push	 ecx
  000c8	e8 00 00 00 00	 call	 ??$uninitialized_copy@PAPAKPAPAK@std@@YAPAPAKQAPAK0PAPAK@Z ; std::uninitialized_copy<unsigned long * *,unsigned long * *>

; 1456 :             _Myptr = _STD uninitialized_copy(_Map() + _Count, _Map() + _Myboff, _Newmap); // copy rest of old

  000cd	8b 4f 04	 mov	 ecx, DWORD PTR [edi+4]
  000d0	ff 75 fc	 push	 DWORD PTR __Newmap$1$[ebp]
  000d3	8b 45 f8	 mov	 eax, DWORD PTR tv641[ebp]
  000d6	03 c1		 add	 eax, ecx
  000d8	50		 push	 eax
  000d9	8d 04 b1	 lea	 eax, DWORD PTR [ecx+esi*4]
  000dc	50		 push	 eax
  000dd	e8 00 00 00 00	 call	 ??$uninitialized_copy@PAPAKPAPAK@std@@YAPAPAKQAPAK0PAPAK@Z ; std::uninitialized_copy<unsigned long * *,unsigned long * *>
  000e2	83 c4 18	 add	 esp, 24			; 00000018H

; 1457 :             _Uninitialized_value_construct_n_unchecked1(_Myptr, _Count); // clear rest to initial block

  000e5	8b de		 mov	 ebx, esi
$LN11@Emplace_ba:

; 1458 :         }
; 1459 : 
; 1460 :         _Destroy_range(_Map() + _Myboff, _Map() + _Mapsize());
; 1461 :         if (_Map() != _Mapptr()) {

  000e7	53		 push	 ebx
  000e8	50		 push	 eax
  000e9	e8 00 00 00 00	 call	 ??$_Uninitialized_value_construct_n_unchecked1@PAPAKI@std@@YAPAPAKPAPAKI@Z ; std::_Uninitialized_value_construct_n_unchecked1<unsigned long * *,unsigned int>
  000ee	8b 4f 04	 mov	 ecx, DWORD PTR [edi+4]
  000f1	83 c4 08	 add	 esp, 8
  000f4	85 c9		 test	 ecx, ecx
  000f6	74 10		 je	 SHORT $LN12@Emplace_ba
; File C:\Program Files (x86)\Microsoft Visual Studio\2019\Community\VC\Tools\MSVC\14.28.29333\include\xmemory

; 810  :         _Deallocate<_New_alignof<_Ty>>(_Ptr, sizeof(_Ty) * _Count);

  000f8	8b 47 08	 mov	 eax, DWORD PTR [edi+8]
  000fb	c1 e0 02	 shl	 eax, 2
  000fe	50		 push	 eax
  000ff	51		 push	 ecx
  00100	e8 00 00 00 00	 call	 ??$_Deallocate@$07$0A@@std@@YAXPAXI@Z ; std::_Deallocate<8,0>
  00105	83 c4 08	 add	 esp, 8
$LN12@Emplace_ba:
; File C:\Program Files (x86)\Microsoft Visual Studio\2019\Community\VC\Tools\MSVC\14.28.29333\include\deque

; 1465 :         _Map() = _Newmap; // point at new

  00108	8b 45 fc	 mov	 eax, DWORD PTR __Newmap$1$[ebp]
  0010b	89 47 04	 mov	 DWORD PTR [edi+4], eax

; 1466 :         _Mapsize() += _Count;

  0010e	01 77 08	 add	 DWORD PTR [edi+8], esi
  00111	8b 77 10	 mov	 esi, DWORD PTR [edi+16]
  00114	8b 57 0c	 mov	 edx, DWORD PTR [edi+12]
  00117	eb 02		 jmp	 SHORT $LN13@Emplace_ba
$LN42@Emplace_ba:

; 1115 :         _PUSH_BACK_BEGIN;

  00119	8b d3		 mov	 edx, ebx
$LN13@Emplace_ba:
  0011b	8b 4f 08	 mov	 ecx, DWORD PTR [edi+8]
  0011e	8d 04 8d ff ff
	ff ff		 lea	 eax, DWORD PTR [ecx*4-1]

; 548  :         return (_Off / _DEQUESIZ) & (_Mapsize - 1);

  00125	49		 dec	 ecx

; 1115 :         _PUSH_BACK_BEGIN;

  00126	23 c2		 and	 eax, edx
  00128	89 47 0c	 mov	 DWORD PTR [edi+12], eax
  0012b	03 f0		 add	 esi, eax

; 548  :         return (_Off / _DEQUESIZ) & (_Mapsize - 1);

  0012d	8b c6		 mov	 eax, esi
  0012f	c1 e8 02	 shr	 eax, 2
  00132	23 c8		 and	 ecx, eax

; 1115 :         _PUSH_BACK_BEGIN;

  00134	8d 1c 8d 00 00
	00 00		 lea	 ebx, DWORD PTR [ecx*4]
  0013b	8b 4f 04	 mov	 ecx, DWORD PTR [edi+4]
  0013e	83 3c 0b 00	 cmp	 DWORD PTR [ebx+ecx], 0
  00142	75 13		 jne	 SHORT $LN3@Emplace_ba
; File C:\Program Files (x86)\Microsoft Visual Studio\2019\Community\VC\Tools\MSVC\14.28.29333\include\xmemory

; 814  :         return static_cast<_Ty*>(_Allocate<_New_alignof<_Ty>>(_Get_size_of_n<sizeof(_Ty)>(_Count)));

  00144	6a 10		 push	 16			; 00000010H
  00146	e8 00 00 00 00	 call	 ??$_Allocate@$07U_Default_allocate_traits@std@@$0A@@std@@YAPAXI@Z ; std::_Allocate<8,std::_Default_allocate_traits,0>
; File C:\Program Files (x86)\Microsoft Visual Studio\2019\Community\VC\Tools\MSVC\14.28.29333\include\deque

; 1115 :         _PUSH_BACK_BEGIN;

  0014b	8b 4f 04	 mov	 ecx, DWORD PTR [edi+4]
; File C:\Program Files (x86)\Microsoft Visual Studio\2019\Community\VC\Tools\MSVC\14.28.29333\include\xmemory

; 814  :         return static_cast<_Ty*>(_Allocate<_New_alignof<_Ty>>(_Get_size_of_n<sizeof(_Ty)>(_Count)));

  0014e	83 c4 04	 add	 esp, 4
; File C:\Program Files (x86)\Microsoft Visual Studio\2019\Community\VC\Tools\MSVC\14.28.29333\include\deque

; 1115 :         _PUSH_BACK_BEGIN;

  00151	89 04 0b	 mov	 DWORD PTR [ebx+ecx], eax
  00154	8b 4f 04	 mov	 ecx, DWORD PTR [edi+4]
$LN3@Emplace_ba:

; 1116 :         _Alty_traits::construct(_Getal(), _Unfancy(_Map()[_Block] + _Newoff % _DEQUESIZ), _STD forward<_Tys>(_Vals)...);

  00157	8b 0c 0b	 mov	 ecx, DWORD PTR [ebx+ecx]
  0015a	83 e6 03	 and	 esi, 3
  0015d	8b 45 08	 mov	 eax, DWORD PTR _<_Vals_0>$[ebp]
  00160	8b 00		 mov	 eax, DWORD PTR [eax]
  00162	89 04 b1	 mov	 DWORD PTR [ecx+esi*4], eax

; 1117 :         _PUSH_BACK_END;

  00165	ff 47 10	 inc	 DWORD PTR [edi+16]
  00168	5f		 pop	 edi
  00169	5e		 pop	 esi
  0016a	5b		 pop	 ebx

; 1118 :     }

  0016b	8b e5		 mov	 esp, ebp
  0016d	5d		 pop	 ebp
  0016e	c2 04 00	 ret	 4
$LN45@Emplace_ba:
; File C:\Program Files (x86)\Microsoft Visual Studio\2019\Community\VC\Tools\MSVC\14.28.29333\include\xmemory

; 61   :             _Throw_bad_array_new_length(); // multiply overflow

  00171	e8 00 00 00 00	 call	 ?_Throw_bad_array_new_length@std@@YAXXZ ; std::_Throw_bad_array_new_length
$LN37@Emplace_ba:
; File C:\Program Files (x86)\Microsoft Visual Studio\2019\Community\VC\Tools\MSVC\14.28.29333\include\deque

; 1438 :                 _Xlen(); // result too long

  00176	8b cf		 mov	 ecx, edi
  00178	e8 00 00 00 00	 call	 ?_Xlen@?$deque@KV?$allocator@K@std@@@std@@ABEXXZ ; std::deque<unsigned long,std::allocator<unsigned long> >::_Xlen
$LN43@Emplace_ba:
  0017d	cc		 int	 3
??$_Emplace_back_internal@ABK@?$deque@KV?$allocator@K@std@@@std@@AAEXABK@Z ENDP ; std::deque<unsigned long,std::allocator<unsigned long> >::_Emplace_back_internal<unsigned long const &>
_TEXT	ENDS
; Function compile flags: /Odsp
;	COMDAT ??_9CWindow@UI@@$B3AE
_TEXT	SEGMENT
??_9CWindow@UI@@$B3AE PROC				; UI::CWindow::`vcall'{4}', COMDAT
  00000	8b 01		 mov	 eax, DWORD PTR [ecx]
  00002	ff 60 04	 jmp	 DWORD PTR [eax+4]
??_9CWindow@UI@@$B3AE ENDP				; UI::CWindow::`vcall'{4}'
_TEXT	ENDS
; Function compile flags: /Ogtp
; File D:\Metin2 Server Files\mainline\SRC_2014\Metin2Client\eterPythonLib\PythonSlotWindow.cpp
;	COMDAT ??_GCCoolTimeFinishEffect@CSlotWindow@UI@@UAEPAXI@Z
_TEXT	SEGMENT
___flags$ = 8						; size = 4
??_GCCoolTimeFinishEffect@CSlotWindow@UI@@UAEPAXI@Z PROC ; UI::CSlotWindow::CCoolTimeFinishEffect::`scalar deleting destructor', COMDAT
; _this$ = ecx
  00000	55		 push	 ebp
  00001	8b ec		 mov	 ebp, esp

; 184  : 		{

  00003	56		 push	 esi
  00004	8b f1		 mov	 esi, ecx
  00006	c7 06 00 00 00
	00		 mov	 DWORD PTR [esi], OFFSET ??_7CCoolTimeFinishEffect@CSlotWindow@UI@@6B@

; 185  : 		}

  0000c	e8 00 00 00 00	 call	 ??1CAniImageBox@UI@@UAE@XZ ; UI::CAniImageBox::~CAniImageBox
  00011	f6 45 08 01	 test	 BYTE PTR ___flags$[ebp], 1
  00015	74 0e		 je	 SHORT $LN7@scalar
  00017	68 8c 00 00 00	 push	 140			; 0000008cH
  0001c	56		 push	 esi
  0001d	e8 00 00 00 00	 call	 ??3@YAXPAXI@Z		; operator delete
  00022	83 c4 08	 add	 esp, 8
$LN7@scalar:
  00025	8b c6		 mov	 eax, esi
  00027	5e		 pop	 esi
  00028	5d		 pop	 ebp
  00029	c2 04 00	 ret	 4
??_GCCoolTimeFinishEffect@CSlotWindow@UI@@UAEPAXI@Z ENDP ; UI::CSlotWindow::CCoolTimeFinishEffect::`scalar deleting destructor'
_TEXT	ENDS
; Function compile flags: /Ogtp
; File D:\Metin2 Server Files\mainline\SRC_2014\Metin2Client\eterPythonLib\PythonSlotWindow.cpp
;	COMDAT ?OnEndFrame@CCoolTimeFinishEffect@CSlotWindow@UI@@UAEXXZ
_TEXT	SEGMENT
?OnEndFrame@CCoolTimeFinishEffect@CSlotWindow@UI@@UAEXXZ PROC ; UI::CSlotWindow::CCoolTimeFinishEffect::OnEndFrame, COMDAT
; _this$ = ecx

; 189  : 			((CSlotWindow *)m_pParent)->ReserveDestroyCoolTimeFinishEffect(m_dwSlotIndex);

  00000	ff b1 88 00 00
	00		 push	 DWORD PTR [ecx+136]
  00006	8b 49 60	 mov	 ecx, DWORD PTR [ecx+96]
  00009	e8 00 00 00 00	 call	 ?ReserveDestroyCoolTimeFinishEffect@CSlotWindow@UI@@QAEXK@Z ; UI::CSlotWindow::ReserveDestroyCoolTimeFinishEffect

; 190  : 		}

  0000e	c3		 ret	 0
?OnEndFrame@CCoolTimeFinishEffect@CSlotWindow@UI@@UAEXXZ ENDP ; UI::CSlotWindow::CCoolTimeFinishEffect::OnEndFrame
_TEXT	ENDS
; Function compile flags: /Ogtp
; File D:\Metin2 Server Files\mainline\SRC_2014\Metin2Client\eterPythonLib\PythonSlotWindow.cpp
;	COMDAT ??1CCoolTimeFinishEffect@CSlotWindow@UI@@UAE@XZ
_TEXT	SEGMENT
??1CCoolTimeFinishEffect@CSlotWindow@UI@@UAE@XZ PROC	; UI::CSlotWindow::CCoolTimeFinishEffect::~CCoolTimeFinishEffect, COMDAT
; _this$ = ecx

; 184  : 		{

  00000	c7 01 00 00 00
	00		 mov	 DWORD PTR [ecx], OFFSET ??_7CCoolTimeFinishEffect@CSlotWindow@UI@@6B@

; 185  : 		}

  00006	e9 00 00 00 00	 jmp	 ??1CAniImageBox@UI@@UAE@XZ ; UI::CAniImageBox::~CAniImageBox
??1CCoolTimeFinishEffect@CSlotWindow@UI@@UAE@XZ ENDP	; UI::CSlotWindow::CCoolTimeFinishEffect::~CCoolTimeFinishEffect
_TEXT	ENDS
; Function compile flags: /Ogtp
; File D:\Metin2 Server Files\mainline\SRC_2014\Metin2Client\eterPythonLib\PythonSlotWindow.cpp
;	COMDAT ??_GCCoverButton@CSlotWindow@UI@@UAEPAXI@Z
_TEXT	SEGMENT
___flags$ = 8						; size = 4
??_GCCoverButton@CSlotWindow@UI@@UAEPAXI@Z PROC		; UI::CSlotWindow::CCoverButton::`scalar deleting destructor', COMDAT
; _this$ = ecx
  00000	55		 push	 ebp
  00001	8b ec		 mov	 ebp, esp

; 28   : 		{

  00003	56		 push	 esi
  00004	8b f1		 mov	 esi, ecx
  00006	c7 06 00 00 00
	00		 mov	 DWORD PTR [esi], OFFSET ??_7CSlotButton@CSlotWindow@UI@@6B@

; 29   : 		}

  0000c	e8 00 00 00 00	 call	 ??1CButton@UI@@UAE@XZ	; UI::CButton::~CButton
  00011	f6 45 08 01	 test	 BYTE PTR ___flags$[ebp], 1
  00015	74 0e		 je	 SHORT $LN10@scalar
  00017	68 1c 01 00 00	 push	 284			; 0000011cH
  0001c	56		 push	 esi
  0001d	e8 00 00 00 00	 call	 ??3@YAXPAXI@Z		; operator delete
  00022	83 c4 08	 add	 esp, 8
$LN10@scalar:
  00025	8b c6		 mov	 eax, esi
  00027	5e		 pop	 esi
  00028	5d		 pop	 ebp
  00029	c2 04 00	 ret	 4
??_GCCoverButton@CSlotWindow@UI@@UAEPAXI@Z ENDP		; UI::CSlotWindow::CCoverButton::`scalar deleting destructor'
_TEXT	ENDS
; Function compile flags: /Ogtp
; File D:\Metin2 Server Files\mainline\SRC_2014\Metin2Client\eterPythonLib\PythonSlotWindow.cpp
;	COMDAT ?OnMouseRightButtonUp@CCoverButton@CSlotWindow@UI@@UAEHXZ
_TEXT	SEGMENT
?OnMouseRightButtonUp@CCoverButton@CSlotWindow@UI@@UAEHXZ PROC ; UI::CSlotWindow::CCoverButton::OnMouseRightButtonUp, COMDAT
; _this$ = ecx

; 157  : 		{

  00000	56		 push	 esi
  00001	8b f1		 mov	 esi, ecx

; 158  : 			if (!IsEnable())

  00003	e8 00 00 00 00	 call	 ?IsEnable@CButton@UI@@IAEHXZ ; UI::CButton::IsEnable
  00008	85 c0		 test	 eax, eax
  0000a	74 1b		 je	 SHORT $LN6@OnMouseRig

; 159  : 				return TRUE;
; 160  : 			m_pParent->OnMouseRightButtonDown();

  0000c	8b 8e 10 01 00
	00		 mov	 ecx, DWORD PTR [esi+272]
  00012	8b 01		 mov	 eax, DWORD PTR [ecx]
  00014	ff 50 64	 call	 DWORD PTR [eax+100]

; 161  : 			if (m_bRightButtonEnable)

  00017	83 be 18 01 00
	00 00		 cmp	 DWORD PTR [esi+280], 0
  0001e	74 07		 je	 SHORT $LN6@OnMouseRig

; 162  : 				CButton::OnMouseLeftButtonUp();

  00020	8b ce		 mov	 ecx, esi
  00022	e8 00 00 00 00	 call	 ?OnMouseLeftButtonUp@CButton@UI@@MAEHXZ ; UI::CButton::OnMouseLeftButtonUp
$LN6@OnMouseRig:

; 163  : 			return TRUE;
; 164  : 		}

  00027	b8 01 00 00 00	 mov	 eax, 1
  0002c	5e		 pop	 esi
  0002d	c3		 ret	 0
?OnMouseRightButtonUp@CCoverButton@CSlotWindow@UI@@UAEHXZ ENDP ; UI::CSlotWindow::CCoverButton::OnMouseRightButtonUp
_TEXT	ENDS
; Function compile flags: /Ogtp
; File D:\Metin2 Server Files\mainline\SRC_2014\Metin2Client\eterPythonLib\PythonSlotWindow.cpp
;	COMDAT ?OnMouseRightButtonDown@CCoverButton@CSlotWindow@UI@@UAEHXZ
_TEXT	SEGMENT
?OnMouseRightButtonDown@CCoverButton@CSlotWindow@UI@@UAEHXZ PROC ; UI::CSlotWindow::CCoverButton::OnMouseRightButtonDown, COMDAT
; _this$ = ecx

; 149  : 		{

  00000	56		 push	 esi
  00001	8b f1		 mov	 esi, ecx

; 150  : 			if (!IsEnable())

  00003	e8 00 00 00 00	 call	 ?IsEnable@CButton@UI@@IAEHXZ ; UI::CButton::IsEnable
  00008	85 c0		 test	 eax, eax
  0000a	74 10		 je	 SHORT $LN6@OnMouseRig

; 151  : 				return TRUE;
; 152  : 			if (m_bRightButtonEnable)

  0000c	83 be 18 01 00
	00 00		 cmp	 DWORD PTR [esi+280], 0
  00013	74 07		 je	 SHORT $LN6@OnMouseRig

; 153  : 				CButton::OnMouseLeftButtonDown();

  00015	8b ce		 mov	 ecx, esi
  00017	e8 00 00 00 00	 call	 ?OnMouseLeftButtonDown@CButton@UI@@MAEHXZ ; UI::CButton::OnMouseLeftButtonDown
$LN6@OnMouseRig:

; 154  : 			return TRUE;
; 155  : 		}

  0001c	b8 01 00 00 00	 mov	 eax, 1
  00021	5e		 pop	 esi
  00022	c3		 ret	 0
?OnMouseRightButtonDown@CCoverButton@CSlotWindow@UI@@UAEHXZ ENDP ; UI::CSlotWindow::CCoverButton::OnMouseRightButtonDown
_TEXT	ENDS
; Function compile flags: /Ogtp
; File D:\Metin2 Server Files\mainline\SRC_2014\Metin2Client\eterPythonLib\PythonSlotWindow.cpp
;	COMDAT ?OnMouseLeftButtonUp@CCoverButton@CSlotWindow@UI@@UAEHXZ
_TEXT	SEGMENT
?OnMouseLeftButtonUp@CCoverButton@CSlotWindow@UI@@UAEHXZ PROC ; UI::CSlotWindow::CCoverButton::OnMouseLeftButtonUp, COMDAT
; _this$ = ecx

; 133  : 		{

  00000	56		 push	 esi
  00001	8b f1		 mov	 esi, ecx

; 134  : 			if (!IsEnable())

  00003	e8 00 00 00 00	 call	 ?IsEnable@CButton@UI@@IAEHXZ ; UI::CButton::IsEnable
  00008	85 c0		 test	 eax, eax
  0000a	74 2d		 je	 SHORT $LN6@OnMouseLef

; 135  : 				return TRUE;
; 136  : 			if (m_bLeftButtonEnable)

  0000c	83 be 14 01 00
	00 00		 cmp	 DWORD PTR [esi+276], 0
  00013	74 19		 je	 SHORT $LN3@OnMouseLef

; 137  : 			{
; 138  : 				CButton::OnMouseLeftButtonUp();

  00015	8b ce		 mov	 ecx, esi
  00017	e8 00 00 00 00	 call	 ?OnMouseLeftButtonUp@CButton@UI@@MAEHXZ ; UI::CButton::OnMouseLeftButtonUp

; 139  : 				m_pParent->OnMouseLeftButtonDown();

  0001c	8b 8e 10 01 00
	00		 mov	 ecx, DWORD PTR [esi+272]
  00022	8b 01		 mov	 eax, DWORD PTR [ecx]
  00024	ff 50 58	 call	 DWORD PTR [eax+88]

; 144  : 			}
; 145  : 			return TRUE;
; 146  : 		}

  00027	b8 01 00 00 00	 mov	 eax, 1
  0002c	5e		 pop	 esi
  0002d	c3		 ret	 0
$LN3@OnMouseLef:

; 140  : 			}
; 141  : 			else
; 142  : 			{
; 143  : 				m_pParent->OnMouseLeftButtonUp();

  0002e	8b 8e 10 01 00
	00		 mov	 ecx, DWORD PTR [esi+272]
  00034	8b 01		 mov	 eax, DWORD PTR [ecx]
  00036	ff 50 5c	 call	 DWORD PTR [eax+92]
$LN6@OnMouseLef:

; 144  : 			}
; 145  : 			return TRUE;
; 146  : 		}

  00039	b8 01 00 00 00	 mov	 eax, 1
  0003e	5e		 pop	 esi
  0003f	c3		 ret	 0
?OnMouseLeftButtonUp@CCoverButton@CSlotWindow@UI@@UAEHXZ ENDP ; UI::CSlotWindow::CCoverButton::OnMouseLeftButtonUp
_TEXT	ENDS
; Function compile flags: /Ogtp
; File D:\Metin2 Server Files\mainline\SRC_2014\Metin2Client\eterPythonLib\PythonSlotWindow.cpp
;	COMDAT ?OnMouseLeftButtonDown@CCoverButton@CSlotWindow@UI@@UAEHXZ
_TEXT	SEGMENT
?OnMouseLeftButtonDown@CCoverButton@CSlotWindow@UI@@UAEHXZ PROC ; UI::CSlotWindow::CCoverButton::OnMouseLeftButtonDown, COMDAT
; _this$ = ecx

; 119  : 		{

  00000	56		 push	 esi
  00001	8b f1		 mov	 esi, ecx

; 120  : 			if (!IsEnable())

  00003	e8 00 00 00 00	 call	 ?IsEnable@CButton@UI@@IAEHXZ ; UI::CButton::IsEnable
  00008	85 c0		 test	 eax, eax
  0000a	74 22		 je	 SHORT $LN6@OnMouseLef

; 121  : 				return TRUE;
; 122  : 			if (m_bLeftButtonEnable)

  0000c	83 be 14 01 00
	00 00		 cmp	 DWORD PTR [esi+276], 0
  00013	74 0e		 je	 SHORT $LN3@OnMouseLef

; 123  : 			{
; 124  : 				CButton::OnMouseLeftButtonDown();

  00015	8b ce		 mov	 ecx, esi
  00017	e8 00 00 00 00	 call	 ?OnMouseLeftButtonDown@CButton@UI@@MAEHXZ ; UI::CButton::OnMouseLeftButtonDown

; 129  : 			}
; 130  : 			return TRUE;
; 131  : 		}

  0001c	b8 01 00 00 00	 mov	 eax, 1
  00021	5e		 pop	 esi
  00022	c3		 ret	 0
$LN3@OnMouseLef:

; 125  : 			}
; 126  : 			else
; 127  : 			{
; 128  : 				m_pParent->OnMouseLeftButtonDown();

  00023	8b 8e 10 01 00
	00		 mov	 ecx, DWORD PTR [esi+272]
  00029	8b 01		 mov	 eax, DWORD PTR [ecx]
  0002b	ff 50 58	 call	 DWORD PTR [eax+88]
$LN6@OnMouseLef:

; 129  : 			}
; 130  : 			return TRUE;
; 131  : 		}

  0002e	b8 01 00 00 00	 mov	 eax, 1
  00033	5e		 pop	 esi
  00034	c3		 ret	 0
?OnMouseLeftButtonDown@CCoverButton@CSlotWindow@UI@@UAEHXZ ENDP ; UI::CSlotWindow::CCoverButton::OnMouseLeftButtonDown
_TEXT	ENDS
; Function compile flags: /Ogtp
; File D:\Metin2 Server Files\mainline\SRC_2014\Metin2Client\eterPythonLib\PythonSlotWindow.cpp
;	COMDAT ?OnRender@CCoverButton@CSlotWindow@UI@@UAEXXZ
_TEXT	SEGMENT
?OnRender@CCoverButton@CSlotWindow@UI@@UAEXXZ PROC	; UI::CSlotWindow::CCoverButton::OnRender, COMDAT
; _this$ = ecx

; 111  : 		}

  00000	c2 00 00	 ret	 0
?OnRender@CCoverButton@CSlotWindow@UI@@UAEXXZ ENDP	; UI::CSlotWindow::CCoverButton::OnRender
_TEXT	ENDS
; Function compile flags: /Ogtp
; File D:\Metin2 Server Files\mainline\SRC_2014\Metin2Client\eterPythonLib\PythonSlotWindow.cpp
;	COMDAT ??1CCoverButton@CSlotWindow@UI@@UAE@XZ
_TEXT	SEGMENT
??1CCoverButton@CSlotWindow@UI@@UAE@XZ PROC		; UI::CSlotWindow::CCoverButton::~CCoverButton, COMDAT
; _this$ = ecx

; 28   : 		{

  00000	c7 01 00 00 00
	00		 mov	 DWORD PTR [ecx], OFFSET ??_7CSlotButton@CSlotWindow@UI@@6B@

; 29   : 		}

  00006	e9 00 00 00 00	 jmp	 ??1CButton@UI@@UAE@XZ	; UI::CButton::~CButton
??1CCoverButton@CSlotWindow@UI@@UAE@XZ ENDP		; UI::CSlotWindow::CCoverButton::~CCoverButton
_TEXT	ENDS
; Function compile flags: /Ogtp
; File D:\Metin2 Server Files\mainline\SRC_2014\Metin2Client\eterPythonLib\PythonSlotWindow.cpp
;	COMDAT ??_GCSlotButton@CSlotWindow@UI@@UAEPAXI@Z
_TEXT	SEGMENT
___flags$ = 8						; size = 4
??_GCSlotButton@CSlotWindow@UI@@UAEPAXI@Z PROC		; UI::CSlotWindow::CSlotButton::`scalar deleting destructor', COMDAT
; _this$ = ecx
  00000	55		 push	 ebp
  00001	8b ec		 mov	 ebp, esp

; 28   : 		{

  00003	56		 push	 esi
  00004	8b f1		 mov	 esi, ecx
  00006	c7 06 00 00 00
	00		 mov	 DWORD PTR [esi], OFFSET ??_7CSlotButton@CSlotWindow@UI@@6B@

; 29   : 		}

  0000c	e8 00 00 00 00	 call	 ??1CButton@UI@@UAE@XZ	; UI::CButton::~CButton
  00011	f6 45 08 01	 test	 BYTE PTR ___flags$[ebp], 1
  00015	74 0e		 je	 SHORT $LN7@scalar
  00017	68 14 01 00 00	 push	 276			; 00000114H
  0001c	56		 push	 esi
  0001d	e8 00 00 00 00	 call	 ??3@YAXPAXI@Z		; operator delete
  00022	83 c4 08	 add	 esp, 8
$LN7@scalar:
  00025	8b c6		 mov	 eax, esi
  00027	5e		 pop	 esi
  00028	5d		 pop	 ebp
  00029	c2 04 00	 ret	 4
??_GCSlotButton@CSlotWindow@UI@@UAEPAXI@Z ENDP		; UI::CSlotWindow::CSlotButton::`scalar deleting destructor'
_TEXT	ENDS
; Function compile flags: /Ogtp
; File D:\Metin2 Server Files\mainline\SRC_2014\Metin2Client\eterPythonLib\PythonSlotWindow.cpp
;	COMDAT ?OnMouseOverOut@CSlotButton@CSlotWindow@UI@@UAEXXZ
_TEXT	SEGMENT
?OnMouseOverOut@CSlotButton@CSlotWindow@UI@@UAEXXZ PROC	; UI::CSlotWindow::CSlotButton::OnMouseOverOut, COMDAT
; _this$ = ecx

; 69   : 		{

  00000	56		 push	 esi
  00001	8b f1		 mov	 esi, ecx

; 70   : 			if (IsEnable())

  00003	e8 00 00 00 00	 call	 ?IsEnable@CButton@UI@@IAEHXZ ; UI::CButton::IsEnable
  00008	85 c0		 test	 eax, eax
  0000a	74 15		 je	 SHORT $LN2@OnMouseOve

; 71   : 			{
; 72   : 				SetUp();

  0000c	8b ce		 mov	 ecx, esi
  0000e	e8 00 00 00 00	 call	 ?SetUp@CButton@UI@@QAEXXZ ; UI::CButton::SetUp

; 73   : 				SetCurrentVisual(&m_upVisual);

  00013	8d 86 88 00 00
	00		 lea	 eax, DWORD PTR [esi+136]
  00019	8b ce		 mov	 ecx, esi
  0001b	50		 push	 eax
  0001c	e8 00 00 00 00	 call	 ?SetCurrentVisual@CButton@UI@@IAEXPAVCGraphicImageInstance@@@Z ; UI::CButton::SetCurrentVisual
$LN2@OnMouseOve:

; 74   : 			}
; 75   : 			m_pParent->OnOverOutItem();

  00021	8b 8e 10 01 00
	00		 mov	 ecx, DWORD PTR [esi+272]
  00027	5e		 pop	 esi
  00028	e9 00 00 00 00	 jmp	 ?OnOverOutItem@CSlotWindow@UI@@QAEXXZ ; UI::CSlotWindow::OnOverOutItem
?OnMouseOverOut@CSlotButton@CSlotWindow@UI@@UAEXXZ ENDP	; UI::CSlotWindow::CSlotButton::OnMouseOverOut
_TEXT	ENDS
; Function compile flags: /Ogtp
; File D:\Metin2 Server Files\mainline\SRC_2014\Metin2Client\eterPythonLib\PythonSlotWindow.cpp
;	COMDAT ?OnMouseOverIn@CSlotButton@CSlotWindow@UI@@UAEXXZ
_TEXT	SEGMENT
?OnMouseOverIn@CSlotButton@CSlotWindow@UI@@UAEXXZ PROC	; UI::CSlotWindow::CSlotButton::OnMouseOverIn, COMDAT
; _this$ = ecx

; 61   : 		{

  00000	56		 push	 esi
  00001	8b f1		 mov	 esi, ecx

; 62   : 			if (IsEnable())

  00003	e8 00 00 00 00	 call	 ?IsEnable@CButton@UI@@IAEHXZ ; UI::CButton::IsEnable
  00008	85 c0		 test	 eax, eax
  0000a	74 0e		 je	 SHORT $LN2@OnMouseOve

; 63   : 			{
; 64   : 				SetCurrentVisual(&m_overVisual);

  0000c	8d 86 a8 00 00
	00		 lea	 eax, DWORD PTR [esi+168]
  00012	8b ce		 mov	 ecx, esi
  00014	50		 push	 eax
  00015	e8 00 00 00 00	 call	 ?SetCurrentVisual@CButton@UI@@IAEXPAVCGraphicImageInstance@@@Z ; UI::CButton::SetCurrentVisual
$LN2@OnMouseOve:

; 65   : 			}
; 66   : 			m_pParent->OnOverInItem(m_dwSlotNumber);

  0001a	ff b6 0c 01 00
	00		 push	 DWORD PTR [esi+268]
  00020	8b 8e 10 01 00
	00		 mov	 ecx, DWORD PTR [esi+272]
  00026	e8 00 00 00 00	 call	 ?OnOverInItem@CSlotWindow@UI@@QAEHK@Z ; UI::CSlotWindow::OnOverInItem
  0002b	5e		 pop	 esi

; 67   : 		}

  0002c	c3		 ret	 0
?OnMouseOverIn@CSlotButton@CSlotWindow@UI@@UAEXXZ ENDP	; UI::CSlotWindow::CSlotButton::OnMouseOverIn
_TEXT	ENDS
; Function compile flags: /Ogtp
; File D:\Metin2 Server Files\mainline\SRC_2014\Metin2Client\eterPythonLib\PythonSlotWindow.cpp
;	COMDAT ?OnMouseLeftButtonUp@CSlotButton@CSlotWindow@UI@@UAEHXZ
_TEXT	SEGMENT
?OnMouseLeftButtonUp@CSlotButton@CSlotWindow@UI@@UAEHXZ PROC ; UI::CSlotWindow::CSlotButton::OnMouseLeftButtonUp, COMDAT
; _this$ = ecx

; 44   : 		{

  00000	56		 push	 esi
  00001	8b f1		 mov	 esi, ecx

; 45   : 			if (!IsEnable())

  00003	e8 00 00 00 00	 call	 ?IsEnable@CButton@UI@@IAEHXZ ; UI::CButton::IsEnable
  00008	85 c0		 test	 eax, eax
  0000a	74 45		 je	 SHORT $LN7@OnMouseLef

; 46   : 				return TRUE;
; 47   : 			if (!IsPressed())

  0000c	8b ce		 mov	 ecx, esi
  0000e	e8 00 00 00 00	 call	 ?IsPressed@CButton@UI@@QAEHXZ ; UI::CButton::IsPressed
  00013	85 c0		 test	 eax, eax
  00015	74 3a		 je	 SHORT $LN7@OnMouseLef

; 48   : 				return TRUE;
; 49   : 
; 50   : 			if (IsIn())

  00017	8b ce		 mov	 ecx, esi
  00019	e8 00 00 00 00	 call	 ?IsIn@CWindow@UI@@QAE_NXZ ; UI::CWindow::IsIn
  0001e	84 c0		 test	 al, al
  00020	ba a8 00 00 00	 mov	 edx, 168		; 000000a8H
  00025	b9 88 00 00 00	 mov	 ecx, 136		; 00000088H
  0002a	0f 45 ca	 cmovne	 ecx, edx

; 51   : 				SetCurrentVisual(&m_overVisual);
; 52   : 			else
; 53   : 				SetCurrentVisual(&m_upVisual);
; 54   : 
; 55   : 			m_pParent->OnPressedSlotButton(m_dwSlotButtonType, m_dwSlotNumber);

  0002d	8d 04 31	 lea	 eax, DWORD PTR [ecx+esi]
  00030	8b ce		 mov	 ecx, esi
  00032	50		 push	 eax
  00033	e8 00 00 00 00	 call	 ?SetCurrentVisual@CButton@UI@@IAEXPAVCGraphicImageInstance@@@Z ; UI::CButton::SetCurrentVisual
  00038	8b 8e 10 01 00
	00		 mov	 ecx, DWORD PTR [esi+272]
  0003e	6a 01		 push	 1
  00040	ff b6 0c 01 00
	00		 push	 DWORD PTR [esi+268]
  00046	ff b6 08 01 00
	00		 push	 DWORD PTR [esi+264]
  0004c	e8 00 00 00 00	 call	 ?OnPressedSlotButton@CSlotWindow@UI@@QAEXKKH@Z ; UI::CSlotWindow::OnPressedSlotButton
$LN7@OnMouseLef:

; 56   : 
; 57   : 			return TRUE;
; 58   : 		}

  00051	b8 01 00 00 00	 mov	 eax, 1
  00056	5e		 pop	 esi
  00057	c3		 ret	 0
?OnMouseLeftButtonUp@CSlotButton@CSlotWindow@UI@@UAEHXZ ENDP ; UI::CSlotWindow::CSlotButton::OnMouseLeftButtonUp
_TEXT	ENDS
; Function compile flags: /Ogtp
; File D:\Metin2 Server Files\mainline\SRC_2014\Metin2Client\eterPythonLib\PythonSlotWindow.cpp
;	COMDAT ?OnMouseLeftButtonDown@CSlotButton@CSlotWindow@UI@@UAEHXZ
_TEXT	SEGMENT
?OnMouseLeftButtonDown@CSlotButton@CSlotWindow@UI@@UAEHXZ PROC ; UI::CSlotWindow::CSlotButton::OnMouseLeftButtonDown, COMDAT
; _this$ = ecx

; 32   : 		{

  00000	56		 push	 esi
  00001	8b f1		 mov	 esi, ecx

; 33   : 			if (!IsEnable())

  00003	e8 00 00 00 00	 call	 ?IsEnable@CButton@UI@@IAEHXZ ; UI::CButton::IsEnable
  00008	85 c0		 test	 eax, eax
  0000a	74 1d		 je	 SHORT $LN5@OnMouseLef

; 34   : 				return TRUE;
; 35   : 			if (UI::CWindowManager::Instance().IsAttaching())

  0000c	8b 0d 00 00 00
	00		 mov	 ecx, DWORD PTR ?ms_singleton@?$CSingleton@VCWindowManager@UI@@@@0PAVCWindowManager@UI@@A ; CSingleton<UI::CWindowManager>::ms_singleton
  00012	e8 00 00 00 00	 call	 ?IsAttaching@CWindowManager@UI@@QAEHXZ ; UI::CWindowManager::IsAttaching
  00017	85 c0		 test	 eax, eax
  00019	75 0e		 jne	 SHORT $LN5@OnMouseLef

; 36   : 				return TRUE;
; 37   : 
; 38   : 			m_isPressed = TRUE;
; 39   : 			Down();

  0001b	8b ce		 mov	 ecx, esi
  0001d	c7 46 7c 01 00
	00 00		 mov	 DWORD PTR [esi+124], 1
  00024	e8 00 00 00 00	 call	 ?Down@CButton@UI@@QAEXXZ ; UI::CButton::Down
$LN5@OnMouseLef:

; 40   : 
; 41   : 			return TRUE;
; 42   : 		}

  00029	b8 01 00 00 00	 mov	 eax, 1
  0002e	5e		 pop	 esi
  0002f	c3		 ret	 0
?OnMouseLeftButtonDown@CSlotButton@CSlotWindow@UI@@UAEHXZ ENDP ; UI::CSlotWindow::CSlotButton::OnMouseLeftButtonDown
_TEXT	ENDS
; Function compile flags: /Ogtp
; File D:\Metin2 Server Files\mainline\SRC_2014\Metin2Client\eterPythonLib\PythonSlotWindow.cpp
;	COMDAT ??1CSlotButton@CSlotWindow@UI@@UAE@XZ
_TEXT	SEGMENT
??1CSlotButton@CSlotWindow@UI@@UAE@XZ PROC		; UI::CSlotWindow::CSlotButton::~CSlotButton, COMDAT
; _this$ = ecx

; 28   : 		{

  00000	c7 01 00 00 00
	00		 mov	 DWORD PTR [ecx], OFFSET ??_7CSlotButton@CSlotWindow@UI@@6B@

; 29   : 		}

  00006	e9 00 00 00 00	 jmp	 ??1CButton@UI@@UAE@XZ	; UI::CButton::~CButton
??1CSlotButton@CSlotWindow@UI@@UAE@XZ ENDP		; UI::CSlotWindow::CSlotButton::~CSlotButton
_TEXT	ENDS
; Function compile flags: /Ogtp
;	COMDAT ??_GCSlotWindow@UI@@UAEPAXI@Z
_TEXT	SEGMENT
___flags$ = 8						; size = 4
??_GCSlotWindow@UI@@UAEPAXI@Z PROC			; UI::CSlotWindow::`scalar deleting destructor', COMDAT
; _this$ = ecx
  00000	55		 push	 ebp
  00001	8b ec		 mov	 ebp, esp
  00003	56		 push	 esi
  00004	8b f1		 mov	 esi, ecx
  00006	e8 00 00 00 00	 call	 ??1CSlotWindow@UI@@UAE@XZ ; UI::CSlotWindow::~CSlotWindow
  0000b	f6 45 08 01	 test	 BYTE PTR ___flags$[ebp], 1
  0000f	74 0e		 je	 SHORT $LN4@scalar
  00011	68 bc 00 00 00	 push	 188			; 000000bcH
  00016	56		 push	 esi
  00017	e8 00 00 00 00	 call	 ??3@YAXPAXI@Z		; operator delete
  0001c	83 c4 08	 add	 esp, 8
$LN4@scalar:
  0001f	8b c6		 mov	 eax, esi
  00021	5e		 pop	 esi
  00022	5d		 pop	 ebp
  00023	c2 04 00	 ret	 4
??_GCSlotWindow@UI@@UAEPAXI@Z ENDP			; UI::CSlotWindow::`scalar deleting destructor'
_TEXT	ENDS
; Function compile flags: /Ogtp
; File C:\Program Files (x86)\Microsoft Visual Studio\2019\Community\VC\Tools\MSVC\14.28.29333\include\deque
; File C:\Program Files (x86)\Microsoft Visual Studio\2019\Community\VC\Tools\MSVC\14.28.29333\include\xmemory
; File C:\Program Files (x86)\Microsoft Visual Studio\2019\Community\VC\Tools\MSVC\14.28.29333\include\deque
; File C:\Program Files (x86)\Microsoft Visual Studio\2019\Community\VC\Tools\MSVC\14.28.29333\include\xmemory
; File C:\Program Files (x86)\Microsoft Visual Studio\2019\Community\VC\Tools\MSVC\14.28.29333\include\deque
;	COMDAT ?_Tidy@?$deque@KV?$allocator@K@std@@@std@@AAEXXZ
_TEXT	SEGMENT
?_Tidy@?$deque@KV?$allocator@K@std@@@std@@AAEXXZ PROC	; std::deque<unsigned long,std::allocator<unsigned long> >::_Tidy, COMDAT
; _this$ = ecx

; 1469 :     void _Tidy() noexcept { // free all storage

  00000	56		 push	 esi
  00001	8b f1		 mov	 esi, ecx

; 1010 :         return _Mysize() == 0;

  00003	8b 4e 10	 mov	 ecx, DWORD PTR [esi+16]
  00006	85 c9		 test	 ecx, ecx

; 1470 :         _Orphan_all();
; 1471 : 
; 1472 :         _Alpty _Almap(_Getal());
; 1473 :         while (!empty()) {

  00008	74 15		 je	 SHORT $LN30@Tidy
  0000a	66 0f 1f 44 00
	00		 npad	 6
$LL2@Tidy:

; 1144 :         if (--_Mysize() == 0) {

  00010	8d 41 ff	 lea	 eax, DWORD PTR [ecx-1]
  00013	89 46 10	 mov	 DWORD PTR [esi+16], eax
  00016	8b c8		 mov	 ecx, eax
  00018	85 c0		 test	 eax, eax
  0001a	75 f4		 jne	 SHORT $LL2@Tidy

; 1145 :             _Myoff() = 0;

  0001c	89 46 0c	 mov	 DWORD PTR [esi+12], eax
$LN30@Tidy:
  0001f	57		 push	 edi

; 1477 :         for (size_type _Block = _Mapsize(); 0 < _Block;) { // free storage for a block and destroy pointer

  00020	8b 7e 08	 mov	 edi, DWORD PTR [esi+8]
  00023	85 ff		 test	 edi, edi
  00025	74 1a		 je	 SHORT $LN5@Tidy
$LL25@Tidy:

; 1478 :             if (_Map()[--_Block]) { // free block and destroy its pointer

  00027	8b 46 04	 mov	 eax, DWORD PTR [esi+4]
  0002a	4f		 dec	 edi
  0002b	8b 04 b8	 mov	 eax, DWORD PTR [eax+edi*4]
  0002e	85 c0		 test	 eax, eax
  00030	74 0b		 je	 SHORT $LN7@Tidy
; File C:\Program Files (x86)\Microsoft Visual Studio\2019\Community\VC\Tools\MSVC\14.28.29333\include\xmemory

; 810  :         _Deallocate<_New_alignof<_Ty>>(_Ptr, sizeof(_Ty) * _Count);

  00032	6a 10		 push	 16			; 00000010H
  00034	50		 push	 eax
  00035	e8 00 00 00 00	 call	 ??$_Deallocate@$07$0A@@std@@YAXPAXI@Z ; std::_Deallocate<8,0>
  0003a	83 c4 08	 add	 esp, 8
$LN7@Tidy:
; File C:\Program Files (x86)\Microsoft Visual Studio\2019\Community\VC\Tools\MSVC\14.28.29333\include\deque

; 1477 :         for (size_type _Block = _Mapsize(); 0 < _Block;) { // free storage for a block and destroy pointer

  0003d	85 ff		 test	 edi, edi
  0003f	75 e6		 jne	 SHORT $LL25@Tidy
$LN5@Tidy:

; 1479 :                 _Getal().deallocate(_Map()[_Block], _DEQUESIZ);
; 1480 :                 _Destroy_in_place(_Map()[_Block]);
; 1481 :             }
; 1482 :         }
; 1483 : 
; 1484 :         if (_Map() != _Mapptr()) {

  00041	8b 4e 04	 mov	 ecx, DWORD PTR [esi+4]
  00044	5f		 pop	 edi
  00045	85 c9		 test	 ecx, ecx
  00047	74 10		 je	 SHORT $LN32@Tidy
; File C:\Program Files (x86)\Microsoft Visual Studio\2019\Community\VC\Tools\MSVC\14.28.29333\include\xmemory

; 810  :         _Deallocate<_New_alignof<_Ty>>(_Ptr, sizeof(_Ty) * _Count);

  00049	8b 46 08	 mov	 eax, DWORD PTR [esi+8]
  0004c	c1 e0 02	 shl	 eax, 2
  0004f	50		 push	 eax
  00050	51		 push	 ecx
  00051	e8 00 00 00 00	 call	 ??$_Deallocate@$07$0A@@std@@YAXPAXI@Z ; std::_Deallocate<8,0>
  00056	83 c4 08	 add	 esp, 8
$LN32@Tidy:
; File C:\Program Files (x86)\Microsoft Visual Studio\2019\Community\VC\Tools\MSVC\14.28.29333\include\deque

; 1490 :     }

  00059	c7 46 04 00 00
	00 00		 mov	 DWORD PTR [esi+4], 0
  00060	c7 46 08 00 00
	00 00		 mov	 DWORD PTR [esi+8], 0
  00067	5e		 pop	 esi
  00068	c3		 ret	 0
?_Tidy@?$deque@KV?$allocator@K@std@@@std@@AAEXXZ ENDP	; std::deque<unsigned long,std::allocator<unsigned long> >::_Tidy
_TEXT	ENDS
; Function compile flags: /Ogtp
; File C:\Program Files (x86)\Microsoft Visual Studio\2019\Community\VC\Tools\MSVC\14.28.29333\include\deque
;	COMDAT ?_Xlen@?$deque@KV?$allocator@K@std@@@std@@ABEXXZ
_TEXT	SEGMENT
?_Xlen@?$deque@KV?$allocator@K@std@@@std@@ABEXXZ PROC	; std::deque<unsigned long,std::allocator<unsigned long> >::_Xlen, COMDAT
; _this$ = ecx

; 1423 :         _Xlength_error("deque<T> too long");

  00000	68 00 00 00 00	 push	 OFFSET ??_C@_0BC@KBDMBKEH@deque?$DMT?$DO?5too?5long@
  00005	e8 00 00 00 00	 call	 ?_Xlength_error@std@@YAXPBD@Z ; std::_Xlength_error
$LN3@Xlen:
  0000a	cc		 int	 3
?_Xlen@?$deque@KV?$allocator@K@std@@@std@@ABEXXZ ENDP	; std::deque<unsigned long,std::allocator<unsigned long> >::_Xlen
_TEXT	ENDS
; Function compile flags: /Ogtp
; File C:\Program Files (x86)\Microsoft Visual Studio\2019\Community\VC\Tools\MSVC\14.28.29333\include\list
; File C:\Program Files (x86)\Microsoft Visual Studio\2019\Community\VC\Tools\MSVC\14.28.29333\include\xmemory
; File C:\Program Files (x86)\Microsoft Visual Studio\2019\Community\VC\Tools\MSVC\14.28.29333\include\list
; File C:\Program Files (x86)\Microsoft Visual Studio\2019\Community\VC\Tools\MSVC\14.28.29333\include\xmemory
; File C:\Program Files (x86)\Microsoft Visual Studio\2019\Community\VC\Tools\MSVC\14.28.29333\include\list
;	COMDAT ??1?$list@KV?$allocator@K@std@@@std@@QAE@XZ
_TEXT	SEGMENT
??1?$list@KV?$allocator@K@std@@@std@@QAE@XZ PROC	; std::list<unsigned long,std::allocator<unsigned long> >::~list<unsigned long,std::allocator<unsigned long> >, COMDAT
; _this$ = ecx

; 1045 :     ~list() noexcept {

  00000	57		 push	 edi
  00001	8b f9		 mov	 edi, ecx

; 1440 :         _Node::_Free_non_head(_Al, _My_data._Myhead);

  00003	8b 17		 mov	 edx, DWORD PTR [edi]

; 324  :         _Head->_Prev->_Next = nullptr;

  00005	8b 42 04	 mov	 eax, DWORD PTR [edx+4]
  00008	c7 00 00 00 00
	00		 mov	 DWORD PTR [eax], 0

; 325  : 
; 326  :         auto _Pnode = _Head->_Next;

  0000e	8b 02		 mov	 eax, DWORD PTR [edx]

; 327  :         for (_Nodeptr _Pnext; _Pnode; _Pnode = _Pnext) {

  00010	85 c0		 test	 eax, eax
  00012	74 15		 je	 SHORT $LN7@list
  00014	56		 push	 esi
$LL8@list:

; 328  :             _Pnext = _Pnode->_Next;

  00015	8b 30		 mov	 esi, DWORD PTR [eax]
; File C:\Program Files (x86)\Microsoft Visual Studio\2019\Community\VC\Tools\MSVC\14.28.29333\include\xmemory

; 696  :         _Deallocate<_New_alignof<value_type>>(_Ptr, sizeof(value_type) * _Count);

  00017	6a 0c		 push	 12			; 0000000cH
  00019	50		 push	 eax
  0001a	e8 00 00 00 00	 call	 ??$_Deallocate@$07$0A@@std@@YAXPAXI@Z ; std::_Deallocate<8,0>
  0001f	83 c4 08	 add	 esp, 8
; File C:\Program Files (x86)\Microsoft Visual Studio\2019\Community\VC\Tools\MSVC\14.28.29333\include\list

; 327  :         for (_Nodeptr _Pnext; _Pnode; _Pnode = _Pnext) {

  00022	8b c6		 mov	 eax, esi
  00024	85 f6		 test	 esi, esi
  00026	75 ed		 jne	 SHORT $LL8@list
  00028	5e		 pop	 esi
$LN7@list:
; File C:\Program Files (x86)\Microsoft Visual Studio\2019\Community\VC\Tools\MSVC\14.28.29333\include\xmemory

; 696  :         _Deallocate<_New_alignof<value_type>>(_Ptr, sizeof(value_type) * _Count);

  00029	6a 0c		 push	 12			; 0000000cH
  0002b	ff 37		 push	 DWORD PTR [edi]
  0002d	e8 00 00 00 00	 call	 ??$_Deallocate@$07$0A@@std@@YAXPAXI@Z ; std::_Deallocate<8,0>
  00032	83 c4 08	 add	 esp, 8
  00035	5f		 pop	 edi
; File C:\Program Files (x86)\Microsoft Visual Studio\2019\Community\VC\Tools\MSVC\14.28.29333\include\list

; 1051 :     }

  00036	c3		 ret	 0
??1?$list@KV?$allocator@K@std@@@std@@QAE@XZ ENDP	; std::list<unsigned long,std::allocator<unsigned long> >::~list<unsigned long,std::allocator<unsigned long> >
_TEXT	ENDS
; Function compile flags: /Ogtp
; File D:\Metin2 Server Files\mainline\SRC_2014\Metin2Client\eterPythonLib\PythonSlotWindow.cpp
;	COMDAT ?OnIsType@CSlotWindow@UI@@MAEHK@Z
_TEXT	SEGMENT
_dwType$ = 8						; size = 4
?OnIsType@CSlotWindow@UI@@MAEHK@Z PROC			; UI::CSlotWindow::OnIsType, COMDAT
; _this$ = ecx

; 1272 : {

  00000	55		 push	 ebp
  00001	8b ec		 mov	 ebp, esp
  00003	56		 push	 esi
  00004	8b f1		 mov	 esi, ecx

; 1273 : 	if (CSlotWindow::Type() == dwType)

  00006	e8 00 00 00 00	 call	 ?Type@CSlotWindow@UI@@SAKXZ ; UI::CSlotWindow::Type
  0000b	8b 55 08	 mov	 edx, DWORD PTR _dwType$[ebp]
  0000e	3b c2		 cmp	 eax, edx
  00010	75 0a		 jne	 SHORT $LN2@OnIsType

; 1274 : 		return TRUE;

  00012	b8 01 00 00 00	 mov	 eax, 1
  00017	5e		 pop	 esi

; 1277 : }

  00018	5d		 pop	 ebp
  00019	c2 04 00	 ret	 4
$LN2@OnIsType:

; 1275 : 
; 1276 : 	return CWindow::OnIsType(dwType);

  0001c	52		 push	 edx
  0001d	8b ce		 mov	 ecx, esi
  0001f	e8 00 00 00 00	 call	 ?OnIsType@CWindow@UI@@UAEHK@Z ; UI::CWindow::OnIsType
  00024	5e		 pop	 esi

; 1277 : }

  00025	5d		 pop	 ebp
  00026	c2 04 00	 ret	 4
?OnIsType@CSlotWindow@UI@@MAEHK@Z ENDP			; UI::CSlotWindow::OnIsType
_TEXT	ENDS
; Function compile flags: /Ogtp
; File D:\Metin2 Server Files\mainline\SRC_2014\Metin2Client\eterPythonLib\PythonSlotWindow.cpp
;	COMDAT ?OnRefreshSlot@CSlotWindow@UI@@MAEXXZ
_TEXT	SEGMENT
?OnRefreshSlot@CSlotWindow@UI@@MAEXXZ PROC		; UI::CSlotWindow::OnRefreshSlot, COMDAT
; _this$ = ecx

; 602  : }

  00000	c2 00 00	 ret	 0
?OnRefreshSlot@CSlotWindow@UI@@MAEXXZ ENDP		; UI::CSlotWindow::OnRefreshSlot
_TEXT	ENDS
; Function compile flags: /Ogtp
; File D:\Metin2 Server Files\mainline\SRC_2014\Metin2Client\eterPythonLib\PythonSlotWindow.cpp
;	COMDAT ?ClearSlot@CSlotWindow@UI@@IAEXPAUSSlot@12@@Z
_TEXT	SEGMENT
_pSlot$ = 8						; size = 4
?ClearSlot@CSlotWindow@UI@@IAEXPAUSSlot@12@@Z PROC	; UI::CSlotWindow::ClearSlot, COMDAT
; _this$ = ecx

; 542  : {

  00000	55		 push	 ebp
  00001	8b ec		 mov	 ebp, esp
  00003	56		 push	 esi

; 543  : 	pSlot->bActive = FALSE;

  00004	8b 75 08	 mov	 esi, DWORD PTR _pSlot$[ebp]

; 544  : 	pSlot->byxPlacedItemSize = 1;
; 545  : 	pSlot->byyPlacedItemSize = 1;
; 546  : 
; 547  : 	pSlot->isItem = FALSE;
; 548  : 	pSlot->dwState = 0;
; 549  : 	pSlot->fCoolTime = 0.0f;
; 550  : 	pSlot->fStartCoolTime = 0.0f;
; 551  : 	pSlot->dwCenterSlotNumber = 0xffffffff;
; 552  : 
; 553  : 	pSlot->dwItemIndex = 0;
; 554  : 	pSlot->bRenderBaseSlotImage = true;
; 555  : 
; 556  : 	if (pSlot->pInstance)

  00007	8b 46 34	 mov	 eax, DWORD PTR [esi+52]
  0000a	c7 46 1c 00 00
	00 00		 mov	 DWORD PTR [esi+28], 0
  00011	66 c7 46 30 01
	01		 mov	 WORD PTR [esi+48], 257	; 00000101H
  00017	c7 46 10 00 00
	00 00		 mov	 DWORD PTR [esi+16], 0
  0001e	c7 06 00 00 00
	00		 mov	 DWORD PTR [esi], 0
  00024	c7 46 14 00 00
	00 00		 mov	 DWORD PTR [esi+20], 0
  0002b	c7 46 18 00 00
	00 00		 mov	 DWORD PTR [esi+24], 0
  00032	c7 46 08 ff ff
	ff ff		 mov	 DWORD PTR [esi+8], -1
  00039	c7 46 0c 00 00
	00 00		 mov	 DWORD PTR [esi+12], 0
  00040	c6 46 3c 01	 mov	 BYTE PTR [esi+60], 1
  00044	85 c0		 test	 eax, eax
  00046	74 10		 je	 SHORT $LN2@ClearSlot

; 557  : 	{
; 558  : 		CGraphicImageInstance::Delete(pSlot->pInstance);

  00048	50		 push	 eax
  00049	e8 00 00 00 00	 call	 ?Delete@CGraphicImageInstance@@SAXPAV1@@Z ; CGraphicImageInstance::Delete
  0004e	83 c4 04	 add	 esp, 4

; 559  : 		pSlot->pInstance = NULL;

  00051	c7 46 34 00 00
	00 00		 mov	 DWORD PTR [esi+52], 0
$LN2@ClearSlot:

; 560  : 	}
; 561  : 	if (pSlot->pCoverButton)

  00058	8b 4e 40	 mov	 ecx, DWORD PTR [esi+64]
  0005b	85 c9		 test	 ecx, ecx
  0005d	74 05		 je	 SHORT $LN3@ClearSlot

; 562  : 	{
; 563  : 		pSlot->pCoverButton->Hide();

  0005f	e8 00 00 00 00	 call	 ?Hide@CWindow@UI@@QAEXXZ ; UI::CWindow::Hide
$LN3@ClearSlot:

; 564  : 	}
; 565  : 	if (pSlot->pSlotButton)

  00064	8b 4e 44	 mov	 ecx, DWORD PTR [esi+68]
  00067	85 c9		 test	 ecx, ecx
  00069	74 05		 je	 SHORT $LN4@ClearSlot

; 566  : 	{
; 567  : 		pSlot->pSlotButton->Hide();

  0006b	e8 00 00 00 00	 call	 ?Hide@CWindow@UI@@QAEXXZ ; UI::CWindow::Hide
$LN4@ClearSlot:

; 568  : 	}
; 569  : 	if (pSlot->pSignImage)

  00070	8b 4e 48	 mov	 ecx, DWORD PTR [esi+72]
  00073	85 c9		 test	 ecx, ecx
  00075	74 05		 je	 SHORT $LN5@ClearSlot

; 570  : 	{
; 571  :  		pSlot->pSignImage->Hide();

  00077	e8 00 00 00 00	 call	 ?Hide@CWindow@UI@@QAEXXZ ; UI::CWindow::Hide
$LN5@ClearSlot:

; 572  : 	}
; 573  : 	if (pSlot->pFinishCoolTimeEffect)

  0007c	8b 4e 4c	 mov	 ecx, DWORD PTR [esi+76]
  0007f	5e		 pop	 esi
  00080	85 c9		 test	 ecx, ecx
  00082	74 05		 je	 SHORT $LN6@ClearSlot

; 574  : 	{
; 575  : 		pSlot->pFinishCoolTimeEffect->Hide();

  00084	e8 00 00 00 00	 call	 ?Hide@CWindow@UI@@QAEXXZ ; UI::CWindow::Hide
$LN6@ClearSlot:

; 576  : 	}
; 577  : }

  00089	5d		 pop	 ebp
  0008a	c2 04 00	 ret	 4
?ClearSlot@CSlotWindow@UI@@IAEXPAUSSlot@12@@Z ENDP	; UI::CSlotWindow::ClearSlot
_TEXT	ENDS
; Function compile flags: /Ogtp
; File D:\Metin2 Server Files\mainline\SRC_2014\Metin2Client\eterPythonLib\PythonSlotWindow.cpp
; File C:\Program Files (x86)\Microsoft Visual Studio\2019\Community\VC\Tools\MSVC\14.28.29333\include\list
; File D:\Metin2 Server Files\mainline\SRC_2014\Metin2Client\eterPythonLib\PythonSlotWindow.cpp
; File C:\Program Files (x86)\Microsoft Visual Studio\2019\Community\VC\Tools\MSVC\14.28.29333\include\list
; File D:\Metin2 Server Files\mainline\SRC_2014\Metin2Client\eterPythonLib\PythonSlotWindow.cpp
; File C:\Program Files (x86)\Microsoft Visual Studio\2019\Community\VC\Tools\MSVC\14.28.29333\include\list
; File D:\Metin2 Server Files\mainline\SRC_2014\Metin2Client\eterPythonLib\PythonSlotWindow.cpp
; File C:\Program Files (x86)\Microsoft Visual Studio\2019\Community\VC\Tools\MSVC\14.28.29333\include\list
; File D:\Metin2 Server Files\mainline\SRC_2014\Metin2Client\eterPythonLib\PythonSlotWindow.cpp
;	COMDAT ?GetPickedSlotPointer@CSlotWindow@UI@@MAEHPAPAUSSlot@12@@Z
_TEXT	SEGMENT
_ly$ = -16						; size = 4
_lx$ = -12						; size = 4
_iyLocal$1$ = -8					; size = 4
_ixLocal$1$ = -4					; size = 4
_ppSlot$ = 8						; size = 4
?GetPickedSlotPointer@CSlotWindow@UI@@MAEHPAPAUSSlot@12@@Z PROC ; UI::CSlotWindow::GetPickedSlotPointer, COMDAT
; _this$ = ecx

; 1214 : {

  00000	55		 push	 ebp
  00001	8b ec		 mov	 ebp, esp
  00003	83 ec 10	 sub	 esp, 16			; 00000010H
  00006	53		 push	 ebx
  00007	56		 push	 esi
  00008	57		 push	 edi

; 1215 : 	long lx, ly;
; 1216 : 	CWindowManager::Instance().GetMousePosition(lx, ly);

  00009	8d 45 f0	 lea	 eax, DWORD PTR _ly$[ebp]
  0000c	8b f1		 mov	 esi, ecx
  0000e	8b 0d 00 00 00
	00		 mov	 ecx, DWORD PTR ?ms_singleton@?$CSingleton@VCWindowManager@UI@@@@0PAVCWindowManager@UI@@A ; CSingleton<UI::CWindowManager>::ms_singleton
  00014	50		 push	 eax
  00015	8d 45 f4	 lea	 eax, DWORD PTR _lx$[ebp]
  00018	50		 push	 eax
  00019	e8 00 00 00 00	 call	 ?GetMousePosition@CWindowManager@UI@@QAEXAAJ0@Z ; UI::CWindowManager::GetMousePosition

; 1218 : 	int ixLocal = lx - m_rect.left;

  0001e	8b 45 f4	 mov	 eax, DWORD PTR _lx$[ebp]
  00021	2b 46 34	 sub	 eax, DWORD PTR [esi+52]
; File C:\Program Files (x86)\Microsoft Visual Studio\2019\Community\VC\Tools\MSVC\14.28.29333\include\list

; 1092 :         return iterator(_Mypair._Myval2._Myhead->_Next, _STD addressof(_Mypair._Myval2));

  00024	8b 8e 88 00 00
	00		 mov	 ecx, DWORD PTR [esi+136]
; File D:\Metin2 Server Files\mainline\SRC_2014\Metin2Client\eterPythonLib\PythonSlotWindow.cpp

; 1218 : 	int ixLocal = lx - m_rect.left;

  0002a	89 45 fc	 mov	 DWORD PTR _ixLocal$1$[ebp], eax

; 1219 : 	int iyLocal = ly - m_rect.top;

  0002d	8b 45 f0	 mov	 eax, DWORD PTR _ly$[ebp]
  00030	2b 46 38	 sub	 eax, DWORD PTR [esi+56]
  00033	89 45 f8	 mov	 DWORD PTR _iyLocal$1$[ebp], eax
; File C:\Program Files (x86)\Microsoft Visual Studio\2019\Community\VC\Tools\MSVC\14.28.29333\include\list

; 39   :     _List_unchecked_const_iterator(_Nodeptr _Pnode, const _Mylist* _Plist) noexcept : _Ptr(_Pnode) {

  00036	8b 01		 mov	 eax, DWORD PTR [ecx]
  00038	3b c1		 cmp	 eax, ecx
; File D:\Metin2 Server Files\mainline\SRC_2014\Metin2Client\eterPythonLib\PythonSlotWindow.cpp

; 1223 : 	for (TSlotListIterator itor = m_SlotList.begin(); itor != m_SlotList.end(); ++itor)

  0003a	74 56		 je	 SHORT $LN48@GetPickedS
  0003c	0f 1f 40 00	 npad	 4
$LL26@GetPickedS:

; 1229 : 
; 1230 : 		// NOTE : Item Hide   ..
; 1231 : 		if (rSlot.isItem)

  00040	83 78 18 00	 cmp	 DWORD PTR [eax+24], 0
; File C:\Program Files (x86)\Microsoft Visual Studio\2019\Community\VC\Tools\MSVC\14.28.29333\include\list

; 152  :         return this->_Ptr->_Myval;

  00044	8d 50 08	 lea	 edx, DWORD PTR [eax+8]
; File D:\Metin2 Server Files\mainline\SRC_2014\Metin2Client\eterPythonLib\PythonSlotWindow.cpp

; 1227 : 		int ixCellSize = rSlot.ixCellSize;

  00047	8b 7a 28	 mov	 edi, DWORD PTR [edx+40]

; 1228 : 		int iyCellSize = rSlot.iyCellSize;

  0004a	8b 5a 2c	 mov	 ebx, DWORD PTR [edx+44]

; 1229 : 
; 1230 : 		// NOTE : Item Hide   ..
; 1231 : 		if (rSlot.isItem)

  0004d	74 19		 je	 SHORT $LN14@GetPickedS

; 1232 : 		{
; 1233 : 			ixCellSize = max(rSlot.ixCellSize, int(rSlot.byxPlacedItemSize * ITEM_WIDTH));

  0004f	0f b6 72 30	 movzx	 esi, BYTE PTR [edx+48]
  00053	c1 e6 05	 shl	 esi, 5

; 1234 : 			iyCellSize = max(rSlot.iyCellSize, int(rSlot.byyPlacedItemSize * ITEM_HEIGHT));

  00056	3b fe		 cmp	 edi, esi
  00058	0f 4e fe	 cmovle	 edi, esi
  0005b	0f b6 72 31	 movzx	 esi, BYTE PTR [edx+49]
  0005f	c1 e6 05	 shl	 esi, 5
  00062	3b de		 cmp	 ebx, esi
  00064	7f 02		 jg	 SHORT $LN14@GetPickedS
  00066	8b de		 mov	 ebx, esi
$LN14@GetPickedS:

; 1235 : 		}
; 1236 : 
; 1237 : 		if (ixLocal >= rSlot.ixPosition)

  00068	8b 72 20	 mov	 esi, DWORD PTR [edx+32]
  0006b	39 75 fc	 cmp	 DWORD PTR _ixLocal$1$[ebp], esi
  0006e	7c 1c		 jl	 SHORT $LN2@GetPickedS

; 1238 : 		if (iyLocal >= rSlot.iyPosition)

  00070	8b 75 f8	 mov	 esi, DWORD PTR _iyLocal$1$[ebp]
  00073	3b 72 24	 cmp	 esi, DWORD PTR [edx+36]
  00076	8b 72 20	 mov	 esi, DWORD PTR [edx+32]
  00079	7c 11		 jl	 SHORT $LN2@GetPickedS

; 1239 : 		if (ixLocal <= rSlot.ixPosition + ixCellSize)

  0007b	03 f7		 add	 esi, edi
  0007d	39 75 fc	 cmp	 DWORD PTR _ixLocal$1$[ebp], esi
  00080	7f 0a		 jg	 SHORT $LN2@GetPickedS

; 1240 : 		if (iyLocal <= rSlot.iyPosition + iyCellSize)

  00082	8b 72 24	 mov	 esi, DWORD PTR [edx+36]
  00085	03 f3		 add	 esi, ebx
  00087	39 75 f8	 cmp	 DWORD PTR _iyLocal$1$[ebp], esi
  0008a	7e 11		 jle	 SHORT $LN44@GetPickedS
$LN2@GetPickedS:
; File C:\Program Files (x86)\Microsoft Visual Studio\2019\Community\VC\Tools\MSVC\14.28.29333\include\list

; 166  :         this->_Ptr = this->_Ptr->_Next;

  0008c	8b 00		 mov	 eax, DWORD PTR [eax]

; 199  :         return this->_Ptr == _Right._Ptr;

  0008e	3b c1		 cmp	 eax, ecx
; File D:\Metin2 Server Files\mainline\SRC_2014\Metin2Client\eterPythonLib\PythonSlotWindow.cpp

; 1223 : 	for (TSlotListIterator itor = m_SlotList.begin(); itor != m_SlotList.end(); ++itor)

  00090	75 ae		 jne	 SHORT $LL26@GetPickedS
$LN48@GetPickedS:
  00092	5f		 pop	 edi

; 1243 : 			return TRUE;
; 1244 : 		}
; 1245 : 	}
; 1246 : 
; 1247 : 	return FALSE;
; 1248 : }

  00093	5e		 pop	 esi
  00094	33 c0		 xor	 eax, eax
  00096	5b		 pop	 ebx
  00097	8b e5		 mov	 esp, ebp
  00099	5d		 pop	 ebp
  0009a	c2 04 00	 ret	 4
$LN44@GetPickedS:

; 1241 : 		{
; 1242 : 			*ppSlot = &rSlot;

  0009d	8b 45 08	 mov	 eax, DWORD PTR _ppSlot$[ebp]
  000a0	5f		 pop	 edi

; 1243 : 			return TRUE;
; 1244 : 		}
; 1245 : 	}
; 1246 : 
; 1247 : 	return FALSE;
; 1248 : }

  000a1	5e		 pop	 esi
  000a2	5b		 pop	 ebx
  000a3	89 10		 mov	 DWORD PTR [eax], edx
  000a5	b8 01 00 00 00	 mov	 eax, 1
  000aa	8b e5		 mov	 esp, ebp
  000ac	5d		 pop	 ebp
  000ad	c2 04 00	 ret	 4
?GetPickedSlotPointer@CSlotWindow@UI@@MAEHPAPAUSSlot@12@@Z ENDP ; UI::CSlotWindow::GetPickedSlotPointer
_TEXT	ENDS
; Function compile flags: /Ogtp
; File D:\Metin2 Server Files\mainline\SRC_2014\Metin2Client\eterPythonLib\PythonSlotWindow.cpp
; File C:\Program Files (x86)\Microsoft Visual Studio\2019\Community\VC\Tools\MSVC\14.28.29333\include\list
; File D:\Metin2 Server Files\mainline\SRC_2014\Metin2Client\eterPythonLib\PythonSlotWindow.cpp
; File C:\Program Files (x86)\Microsoft Visual Studio\2019\Community\VC\Tools\MSVC\14.28.29333\include\list
; File D:\Metin2 Server Files\mainline\SRC_2014\Metin2Client\eterPythonLib\PythonSlotWindow.cpp
; File C:\Program Files (x86)\Microsoft Visual Studio\2019\Community\VC\Tools\MSVC\14.28.29333\include\list
; File D:\Metin2 Server Files\mainline\SRC_2014\Metin2Client\eterPythonLib\PythonSlotWindow.cpp
;	COMDAT ?GetSelectedSlotPointer@CSlotWindow@UI@@IAEHPAPAUSSlot@12@@Z
_TEXT	SEGMENT
_ly$ = -8						; size = 4
_lx$ = -4						; size = 4
_ppSlot$ = 8						; size = 4
?GetSelectedSlotPointer@CSlotWindow@UI@@IAEHPAPAUSSlot@12@@Z PROC ; UI::CSlotWindow::GetSelectedSlotPointer, COMDAT
; _this$ = ecx

; 1192 : {

  00000	55		 push	 ebp
  00001	8b ec		 mov	 ebp, esp
  00003	83 ec 08	 sub	 esp, 8

; 1193 : 	long lx, ly;
; 1194 : 	GetMouseLocalPosition(lx, ly);

  00006	8d 45 f8	 lea	 eax, DWORD PTR _ly$[ebp]
  00009	53		 push	 ebx
  0000a	56		 push	 esi
  0000b	57		 push	 edi
  0000c	50		 push	 eax
  0000d	8d 45 fc	 lea	 eax, DWORD PTR _lx$[ebp]
  00010	8b f1		 mov	 esi, ecx
  00012	50		 push	 eax
  00013	e8 00 00 00 00	 call	 ?GetMouseLocalPosition@CWindow@UI@@QAEXAAJ0@Z ; UI::CWindow::GetMouseLocalPosition
; File C:\Program Files (x86)\Microsoft Visual Studio\2019\Community\VC\Tools\MSVC\14.28.29333\include\list

; 1092 :         return iterator(_Mypair._Myval2._Myhead->_Next, _STD addressof(_Mypair._Myval2));

  00018	8b 8e 88 00 00
	00		 mov	 ecx, DWORD PTR [esi+136]

; 39   :     _List_unchecked_const_iterator(_Nodeptr _Pnode, const _Mylist* _Plist) noexcept : _Ptr(_Pnode) {

  0001e	8b 01		 mov	 eax, DWORD PTR [ecx]
  00020	3b c1		 cmp	 eax, ecx
; File D:\Metin2 Server Files\mainline\SRC_2014\Metin2Client\eterPythonLib\PythonSlotWindow.cpp

; 1196 : 	for (TSlotListIterator itor = m_SlotList.begin(); itor != m_SlotList.end(); ++itor)

  00022	74 2d		 je	 SHORT $LN43@GetSelecte
$LL21@GetSelecte:

; 1200 : 		if (lx >= rSlot.ixPosition)

  00024	8b 58 28	 mov	 ebx, DWORD PTR [eax+40]
; File C:\Program Files (x86)\Microsoft Visual Studio\2019\Community\VC\Tools\MSVC\14.28.29333\include\list

; 152  :         return this->_Ptr->_Myval;

  00027	8d 70 08	 lea	 esi, DWORD PTR [eax+8]
; File D:\Metin2 Server Files\mainline\SRC_2014\Metin2Client\eterPythonLib\PythonSlotWindow.cpp

; 1200 : 		if (lx >= rSlot.ixPosition)

  0002a	39 5d fc	 cmp	 DWORD PTR _lx$[ebp], ebx
  0002d	7c 1c		 jl	 SHORT $LN2@GetSelecte

; 1201 : 		if (ly >= rSlot.iyPosition)

  0002f	8b 7e 24	 mov	 edi, DWORD PTR [esi+36]
  00032	39 7d f8	 cmp	 DWORD PTR _ly$[ebp], edi
  00035	7c 14		 jl	 SHORT $LN2@GetSelecte

; 1202 : 		if (lx <= rSlot.ixPosition + rSlot.ixCellSize)

  00037	8b 56 28	 mov	 edx, DWORD PTR [esi+40]
  0003a	03 d3		 add	 edx, ebx
  0003c	39 55 fc	 cmp	 DWORD PTR _lx$[ebp], edx
  0003f	7f 0a		 jg	 SHORT $LN2@GetSelecte

; 1203 : 		if (ly <= rSlot.iyPosition + rSlot.iyCellSize)

  00041	8b 56 2c	 mov	 edx, DWORD PTR [esi+44]
  00044	03 d7		 add	 edx, edi
  00046	39 55 f8	 cmp	 DWORD PTR _ly$[ebp], edx
  00049	7e 11		 jle	 SHORT $LN39@GetSelecte
$LN2@GetSelecte:
; File C:\Program Files (x86)\Microsoft Visual Studio\2019\Community\VC\Tools\MSVC\14.28.29333\include\list

; 166  :         this->_Ptr = this->_Ptr->_Next;

  0004b	8b 00		 mov	 eax, DWORD PTR [eax]

; 199  :         return this->_Ptr == _Right._Ptr;

  0004d	3b c1		 cmp	 eax, ecx
; File D:\Metin2 Server Files\mainline\SRC_2014\Metin2Client\eterPythonLib\PythonSlotWindow.cpp

; 1196 : 	for (TSlotListIterator itor = m_SlotList.begin(); itor != m_SlotList.end(); ++itor)

  0004f	75 d3		 jne	 SHORT $LL21@GetSelecte
$LN43@GetSelecte:
  00051	5f		 pop	 edi

; 1207 : 		}
; 1208 : 	}
; 1209 : 
; 1210 : 	return FALSE;
; 1211 : }

  00052	5e		 pop	 esi
  00053	33 c0		 xor	 eax, eax
  00055	5b		 pop	 ebx
  00056	8b e5		 mov	 esp, ebp
  00058	5d		 pop	 ebp
  00059	c2 04 00	 ret	 4
$LN39@GetSelecte:

; 1204 : 		{
; 1205 : 			*ppSlot = &rSlot;

  0005c	8b 45 08	 mov	 eax, DWORD PTR _ppSlot$[ebp]
  0005f	5f		 pop	 edi
  00060	89 30		 mov	 DWORD PTR [eax], esi

; 1206 : 			return TRUE;

  00062	b8 01 00 00 00	 mov	 eax, 1

; 1207 : 		}
; 1208 : 	}
; 1209 : 
; 1210 : 	return FALSE;
; 1211 : }

  00067	5e		 pop	 esi
  00068	5b		 pop	 ebx
  00069	8b e5		 mov	 esp, ebp
  0006b	5d		 pop	 ebp
  0006c	c2 04 00	 ret	 4
?GetSelectedSlotPointer@CSlotWindow@UI@@IAEHPAPAUSSlot@12@@Z ENDP ; UI::CSlotWindow::GetSelectedSlotPointer
_TEXT	ENDS
; Function compile flags: /Ogtp
; File D:\Metin2 Server Files\mainline\SRC_2014\Metin2Client\eterPythonLib\PythonSlotWindow.cpp
; File C:\Program Files (x86)\Microsoft Visual Studio\2019\Community\VC\Tools\MSVC\14.28.29333\include\list
; File D:\Metin2 Server Files\mainline\SRC_2014\Metin2Client\eterPythonLib\PythonSlotWindow.cpp
; File C:\Program Files (x86)\Microsoft Visual Studio\2019\Community\VC\Tools\MSVC\14.28.29333\include\list
; File D:\Metin2 Server Files\mainline\SRC_2014\Metin2Client\eterPythonLib\PythonSlotWindow.cpp
; File C:\Program Files (x86)\Microsoft Visual Studio\2019\Community\VC\Tools\MSVC\14.28.29333\include\list
; File D:\Metin2 Server Files\mainline\SRC_2014\Metin2Client\eterPythonLib\PythonSlotWindow.cpp
; File C:\Program Files (x86)\Microsoft Visual Studio\2019\Community\VC\Tools\MSVC\14.28.29333\include\list
; File D:\Metin2 Server Files\mainline\SRC_2014\Metin2Client\eterPythonLib\PythonSlotWindow.cpp
;	COMDAT ?GetSlotPointer@CSlotWindow@UI@@IAEHKPAPAUSSlot@12@@Z
_TEXT	SEGMENT
_dwIndex$ = 8						; size = 4
_ppSlot$ = 12						; size = 4
?GetSlotPointer@CSlotWindow@UI@@IAEHKPAPAUSSlot@12@@Z PROC ; UI::CSlotWindow::GetSlotPointer, COMDAT
; _this$ = ecx

; 1176 : {

  00000	55		 push	 ebp
  00001	8b ec		 mov	 ebp, esp
; File C:\Program Files (x86)\Microsoft Visual Studio\2019\Community\VC\Tools\MSVC\14.28.29333\include\list

; 1092 :         return iterator(_Mypair._Myval2._Myhead->_Next, _STD addressof(_Mypair._Myval2));

  00003	8b 89 88 00 00
	00		 mov	 ecx, DWORD PTR [ecx+136]
; File D:\Metin2 Server Files\mainline\SRC_2014\Metin2Client\eterPythonLib\PythonSlotWindow.cpp

; 1176 : {

  00009	56		 push	 esi
; File C:\Program Files (x86)\Microsoft Visual Studio\2019\Community\VC\Tools\MSVC\14.28.29333\include\list

; 39   :     _List_unchecked_const_iterator(_Nodeptr _Pnode, const _Mylist* _Plist) noexcept : _Ptr(_Pnode) {

  0000a	8b 01		 mov	 eax, DWORD PTR [ecx]
  0000c	3b c1		 cmp	 eax, ecx
; File D:\Metin2 Server Files\mainline\SRC_2014\Metin2Client\eterPythonLib\PythonSlotWindow.cpp

; 1177 : 	for (TSlotListIterator itor = m_SlotList.begin(); itor != m_SlotList.end(); ++itor)

  0000e	74 11		 je	 SHORT $LN3@GetSlotPoi
  00010	8b 75 08	 mov	 esi, DWORD PTR _dwIndex$[ebp]
$LL18@GetSlotPoi:

; 1181 : 		if (dwIndex == rSlot.dwSlotNumber)

  00013	3b 70 0c	 cmp	 esi, DWORD PTR [eax+12]
; File C:\Program Files (x86)\Microsoft Visual Studio\2019\Community\VC\Tools\MSVC\14.28.29333\include\list

; 152  :         return this->_Ptr->_Myval;

  00016	8d 50 08	 lea	 edx, DWORD PTR [eax+8]
; File D:\Metin2 Server Files\mainline\SRC_2014\Metin2Client\eterPythonLib\PythonSlotWindow.cpp

; 1181 : 		if (dwIndex == rSlot.dwSlotNumber)

  00019	74 0d		 je	 SHORT $LN36@GetSlotPoi
; File C:\Program Files (x86)\Microsoft Visual Studio\2019\Community\VC\Tools\MSVC\14.28.29333\include\list

; 166  :         this->_Ptr = this->_Ptr->_Next;

  0001b	8b 00		 mov	 eax, DWORD PTR [eax]

; 199  :         return this->_Ptr == _Right._Ptr;

  0001d	3b c1		 cmp	 eax, ecx
; File D:\Metin2 Server Files\mainline\SRC_2014\Metin2Client\eterPythonLib\PythonSlotWindow.cpp

; 1177 : 	for (TSlotListIterator itor = m_SlotList.begin(); itor != m_SlotList.end(); ++itor)

  0001f	75 f2		 jne	 SHORT $LL18@GetSlotPoi
$LN3@GetSlotPoi:

; 1185 : 		}
; 1186 : 	}
; 1187 : 
; 1188 : 	return FALSE;

  00021	33 c0		 xor	 eax, eax
  00023	5e		 pop	 esi

; 1189 : }

  00024	5d		 pop	 ebp
  00025	c2 08 00	 ret	 8
$LN36@GetSlotPoi:

; 1182 : 		{
; 1183 : 			*ppSlot = &rSlot;

  00028	8b 45 0c	 mov	 eax, DWORD PTR _ppSlot$[ebp]
  0002b	5e		 pop	 esi
  0002c	89 10		 mov	 DWORD PTR [eax], edx

; 1184 : 			return TRUE;

  0002e	b8 01 00 00 00	 mov	 eax, 1

; 1189 : }

  00033	5d		 pop	 ebp
  00034	c2 08 00	 ret	 8
?GetSlotPointer@CSlotWindow@UI@@IAEHKPAPAUSSlot@12@@Z ENDP ; UI::CSlotWindow::GetSlotPointer
_TEXT	ENDS
; Function compile flags: /Ogtp
; File D:\Metin2 Server Files\mainline\SRC_2014\Metin2Client\eterPythonLib\PythonSlotWindow.cpp
;	COMDAT ?OnUseSlot@CSlotWindow@UI@@IAEXXZ
_TEXT	SEGMENT
_pSlot$ = -4						; size = 4
?OnUseSlot@CSlotWindow@UI@@IAEXXZ PROC			; UI::CSlotWindow::OnUseSlot, COMDAT
; _this$ = ecx

; 906  : {

  00000	55		 push	 ebp
  00001	8b ec		 mov	 ebp, esp
  00003	51		 push	 ecx
  00004	56		 push	 esi
  00005	8b f1		 mov	 esi, ecx

; 907  : 	TSlot * pSlot;
; 908  : 	if (GetPickedSlotPointer(&pSlot))

  00007	8d 4d fc	 lea	 ecx, DWORD PTR _pSlot$[ebp]
  0000a	51		 push	 ecx
  0000b	8b ce		 mov	 ecx, esi
  0000d	8b 06		 mov	 eax, DWORD PTR [esi]
  0000f	ff 90 9c 00 00
	00		 call	 DWORD PTR [eax+156]
  00015	85 c0		 test	 eax, eax
  00017	74 28		 je	 SHORT $LN3@OnUseSlot

; 909  : 	if (pSlot->isItem)

  00019	8b 45 fc	 mov	 eax, DWORD PTR _pSlot$[ebp]
  0001c	83 78 10 00	 cmp	 DWORD PTR [eax+16], 0
  00020	74 1f		 je	 SHORT $LN3@OnUseSlot

; 910  : 	{
; 911  : 		PyCallClassMemberFunc(m_poHandler, "OnUseSlot", Py_BuildValue("(i)", pSlot->dwSlotNumber));

  00022	ff 70 04	 push	 DWORD PTR [eax+4]
  00025	68 00 00 00 00	 push	 OFFSET ??_C@_03LIHNMIHG@?$CIi?$CJ@
  0002a	ff 15 00 00 00
	00		 call	 DWORD PTR __imp__Py_BuildValue
  00030	50		 push	 eax
  00031	68 00 00 00 00	 push	 OFFSET ??_C@_09HJIBPFCA@OnUseSlot@
  00036	ff 76 5c	 push	 DWORD PTR [esi+92]
  00039	e8 00 00 00 00	 call	 ?PyCallClassMemberFunc@@YA_NPAU_object@@PBD0@Z ; PyCallClassMemberFunc
  0003e	83 c4 14	 add	 esp, 20			; 00000014H
$LN3@OnUseSlot:
  00041	5e		 pop	 esi

; 912  : 	}
; 913  : }

  00042	8b e5		 mov	 esp, ebp
  00044	5d		 pop	 ebp
  00045	c3		 ret	 0
?OnUseSlot@CSlotWindow@UI@@IAEXXZ ENDP			; UI::CSlotWindow::OnUseSlot
_TEXT	ENDS
; Function compile flags: /Ogtp
; File D:\Metin2 Server Files\mainline\SRC_2014\Metin2Client\eterPythonLib\PythonSlotWindow.cpp
;	COMDAT ?OnUnselectItemSlot@CSlotWindow@UI@@IAEXH@Z
_TEXT	SEGMENT
_iSlotNumber$ = 8					; size = 4
?OnUnselectItemSlot@CSlotWindow@UI@@IAEXH@Z PROC	; UI::CSlotWindow::OnUnselectItemSlot, COMDAT
; _this$ = ecx

; 902  : {

  00000	55		 push	 ebp
  00001	8b ec		 mov	 ebp, esp
  00003	56		 push	 esi

; 903  : 	PyCallClassMemberFunc(m_poHandler, "OnUnselectItemSlot", Py_BuildValue("(i)", iSlotNumber));

  00004	ff 75 08	 push	 DWORD PTR _iSlotNumber$[ebp]
  00007	8b f1		 mov	 esi, ecx
  00009	68 00 00 00 00	 push	 OFFSET ??_C@_03LIHNMIHG@?$CIi?$CJ@
  0000e	ff 15 00 00 00
	00		 call	 DWORD PTR __imp__Py_BuildValue
  00014	50		 push	 eax
  00015	68 00 00 00 00	 push	 OFFSET ??_C@_0BD@EONLJJMO@OnUnselectItemSlot@
  0001a	ff 76 5c	 push	 DWORD PTR [esi+92]
  0001d	e8 00 00 00 00	 call	 ?PyCallClassMemberFunc@@YA_NPAU_object@@PBD0@Z ; PyCallClassMemberFunc
  00022	83 c4 14	 add	 esp, 20			; 00000014H
  00025	5e		 pop	 esi

; 904  : }

  00026	5d		 pop	 ebp
  00027	c2 04 00	 ret	 4
?OnUnselectItemSlot@CSlotWindow@UI@@IAEXH@Z ENDP	; UI::CSlotWindow::OnUnselectItemSlot
_TEXT	ENDS
; Function compile flags: /Ogtp
; File D:\Metin2 Server Files\mainline\SRC_2014\Metin2Client\eterPythonLib\PythonSlotWindow.cpp
;	COMDAT ?OnUnselectEmptySlot@CSlotWindow@UI@@IAEXH@Z
_TEXT	SEGMENT
_iSlotNumber$ = 8					; size = 4
?OnUnselectEmptySlot@CSlotWindow@UI@@IAEXH@Z PROC	; UI::CSlotWindow::OnUnselectEmptySlot, COMDAT
; _this$ = ecx

; 898  : {

  00000	55		 push	 ebp
  00001	8b ec		 mov	 ebp, esp
  00003	56		 push	 esi

; 899  : 	PyCallClassMemberFunc(m_poHandler, "OnUnselectEmptySlot", Py_BuildValue("(i)", iSlotNumber));

  00004	ff 75 08	 push	 DWORD PTR _iSlotNumber$[ebp]
  00007	8b f1		 mov	 esi, ecx
  00009	68 00 00 00 00	 push	 OFFSET ??_C@_03LIHNMIHG@?$CIi?$CJ@
  0000e	ff 15 00 00 00
	00		 call	 DWORD PTR __imp__Py_BuildValue
  00014	50		 push	 eax
  00015	68 00 00 00 00	 push	 OFFSET ??_C@_0BE@GMADJAFC@OnUnselectEmptySlot@
  0001a	ff 76 5c	 push	 DWORD PTR [esi+92]
  0001d	e8 00 00 00 00	 call	 ?PyCallClassMemberFunc@@YA_NPAU_object@@PBD0@Z ; PyCallClassMemberFunc
  00022	83 c4 14	 add	 esp, 20			; 00000014H
  00025	5e		 pop	 esi

; 900  : }

  00026	5d		 pop	 ebp
  00027	c2 04 00	 ret	 4
?OnUnselectEmptySlot@CSlotWindow@UI@@IAEXH@Z ENDP	; UI::CSlotWindow::OnUnselectEmptySlot
_TEXT	ENDS
; Function compile flags: /Ogtp
; File D:\Metin2 Server Files\mainline\SRC_2014\Metin2Client\eterPythonLib\PythonSlotWindow.cpp
;	COMDAT ?OnSelectItemSlot@CSlotWindow@UI@@IAEXH@Z
_TEXT	SEGMENT
_iSlotNumber$ = 8					; size = 4
?OnSelectItemSlot@CSlotWindow@UI@@IAEXH@Z PROC		; UI::CSlotWindow::OnSelectItemSlot, COMDAT
; _this$ = ecx

; 890  : {

  00000	55		 push	 ebp
  00001	8b ec		 mov	 ebp, esp
  00003	56		 push	 esi

; 891  : //	OnOverOutItem();
; 892  : 	PyCallClassMemberFunc(m_poHandler, "OnSelectItemSlot", Py_BuildValue("(i)", iSlotNumber));

  00004	ff 75 08	 push	 DWORD PTR _iSlotNumber$[ebp]
  00007	8b f1		 mov	 esi, ecx
  00009	68 00 00 00 00	 push	 OFFSET ??_C@_03LIHNMIHG@?$CIi?$CJ@
  0000e	ff 15 00 00 00
	00		 call	 DWORD PTR __imp__Py_BuildValue
  00014	50		 push	 eax
  00015	68 00 00 00 00	 push	 OFFSET ??_C@_0BB@PFHJJJ@OnSelectItemSlot@
  0001a	ff 76 5c	 push	 DWORD PTR [esi+92]
  0001d	e8 00 00 00 00	 call	 ?PyCallClassMemberFunc@@YA_NPAU_object@@PBD0@Z ; PyCallClassMemberFunc

; 893  : 
; 894  : 	if (UI::CWindowManager::Instance().IsAttaching())

  00022	8b 0d 00 00 00
	00		 mov	 ecx, DWORD PTR ?ms_singleton@?$CSingleton@VCWindowManager@UI@@@@0PAVCWindowManager@UI@@A ; CSingleton<UI::CWindowManager>::ms_singleton
  00028	83 c4 14	 add	 esp, 20			; 00000014H
  0002b	e8 00 00 00 00	 call	 ?IsAttaching@CWindowManager@UI@@QAEHXZ ; UI::CWindowManager::IsAttaching
  00030	85 c0		 test	 eax, eax
  00032	74 07		 je	 SHORT $LN2@OnSelectIt

; 895  : 		OnOverOutItem();

  00034	8b ce		 mov	 ecx, esi
  00036	e8 00 00 00 00	 call	 ?OnOverOutItem@CSlotWindow@UI@@QAEXXZ ; UI::CSlotWindow::OnOverOutItem
$LN2@OnSelectIt:
  0003b	5e		 pop	 esi

; 896  : }

  0003c	5d		 pop	 ebp
  0003d	c2 04 00	 ret	 4
?OnSelectItemSlot@CSlotWindow@UI@@IAEXH@Z ENDP		; UI::CSlotWindow::OnSelectItemSlot
_TEXT	ENDS
; Function compile flags: /Ogtp
; File D:\Metin2 Server Files\mainline\SRC_2014\Metin2Client\eterPythonLib\PythonSlotWindow.cpp
;	COMDAT ?OnSelectEmptySlot@CSlotWindow@UI@@IAEXH@Z
_TEXT	SEGMENT
_iSlotNumber$ = 8					; size = 4
?OnSelectEmptySlot@CSlotWindow@UI@@IAEXH@Z PROC		; UI::CSlotWindow::OnSelectEmptySlot, COMDAT
; _this$ = ecx

; 886  : {

  00000	55		 push	 ebp
  00001	8b ec		 mov	 ebp, esp
  00003	56		 push	 esi

; 887  : 	PyCallClassMemberFunc(m_poHandler, "OnSelectEmptySlot", Py_BuildValue("(i)", iSlotNumber));

  00004	ff 75 08	 push	 DWORD PTR _iSlotNumber$[ebp]
  00007	8b f1		 mov	 esi, ecx
  00009	68 00 00 00 00	 push	 OFFSET ??_C@_03LIHNMIHG@?$CIi?$CJ@
  0000e	ff 15 00 00 00
	00		 call	 DWORD PTR __imp__Py_BuildValue
  00014	50		 push	 eax
  00015	68 00 00 00 00	 push	 OFFSET ??_C@_0BC@JJECHKOF@OnSelectEmptySlot@
  0001a	ff 76 5c	 push	 DWORD PTR [esi+92]
  0001d	e8 00 00 00 00	 call	 ?PyCallClassMemberFunc@@YA_NPAU_object@@PBD0@Z ; PyCallClassMemberFunc
  00022	83 c4 14	 add	 esp, 20			; 00000014H
  00025	5e		 pop	 esi

; 888  : }

  00026	5d		 pop	 ebp
  00027	c2 04 00	 ret	 4
?OnSelectEmptySlot@CSlotWindow@UI@@IAEXH@Z ENDP		; UI::CSlotWindow::OnSelectEmptySlot
_TEXT	ENDS
; Function compile flags: /Ogtp
; File D:\Metin2 Server Files\mainline\SRC_2014\Metin2Client\eterPythonLib\PythonSlotWindow.cpp
; File C:\Program Files (x86)\Microsoft Visual Studio\2019\Community\VC\Tools\MSVC\14.28.29333\include\list
; File D:\Metin2 Server Files\mainline\SRC_2014\Metin2Client\eterPythonLib\PythonSlotWindow.cpp
; File C:\Program Files (x86)\Microsoft Visual Studio\2019\Community\VC\Tools\MSVC\14.28.29333\include\list
; File D:\Metin2 Server Files\mainline\SRC_2014\Metin2Client\eterPythonLib\PythonSlotWindow.cpp
;	COMDAT ?OnRenderSelectedSlot@CSlotWindow@UI@@MAEXXZ
_TEXT	SEGMENT
_this$1$ = -12						; size = 4
tv371 = -8						; size = 4
_pSlot$1 = -4						; size = 4
?OnRenderSelectedSlot@CSlotWindow@UI@@MAEXXZ PROC	; UI::CSlotWindow::OnRenderSelectedSlot, COMDAT
; _this$ = ecx

; 1137 : {

  00000	55		 push	 ebp
  00001	8b ec		 mov	 ebp, esp
  00003	83 ec 0c	 sub	 esp, 12			; 0000000cH
  00006	53		 push	 ebx
  00007	8b d9		 mov	 ebx, ecx
  00009	56		 push	 esi
  0000a	89 5d f4	 mov	 DWORD PTR _this$1$[ebp], ebx
; File C:\Program Files (x86)\Microsoft Visual Studio\2019\Community\VC\Tools\MSVC\14.28.29333\include\list

; 1092 :         return iterator(_Mypair._Myval2._Myhead->_Next, _STD addressof(_Mypair._Myval2));

  0000d	8b 83 80 00 00
	00		 mov	 eax, DWORD PTR [ebx+128]

; 39   :     _List_unchecked_const_iterator(_Nodeptr _Pnode, const _Mylist* _Plist) noexcept : _Ptr(_Pnode) {

  00013	8b 30		 mov	 esi, DWORD PTR [eax]
  00015	3b f0		 cmp	 esi, eax
; File D:\Metin2 Server Files\mainline\SRC_2014\Metin2Client\eterPythonLib\PythonSlotWindow.cpp

; 1139 : 	for (; itor != m_dwSelectedSlotIndexList.end(); ++itor)

  00017	0f 84 c4 00 00
	00		 je	 $LN3@OnRenderSe
  0001d	57		 push	 edi
  0001e	66 90		 npad	 2
$LL18@OnRenderSe:

; 1140 : 	{
; 1141 : 		TSlot * pSlot;
; 1142 : 		if (!GetSlotPointer(*itor, &pSlot))

  00020	8d 45 fc	 lea	 eax, DWORD PTR _pSlot$1[ebp]
  00023	8b cb		 mov	 ecx, ebx
  00025	50		 push	 eax
  00026	ff 76 08	 push	 DWORD PTR [esi+8]
  00029	e8 00 00 00 00	 call	 ?GetSlotPointer@CSlotWindow@UI@@IAEHKPAPAUSSlot@12@@Z ; UI::CSlotWindow::GetSlotPointer
  0002e	85 c0		 test	 eax, eax
  00030	0f 84 9c 00 00
	00		 je	 $LN2@OnRenderSe

; 1143 : 			continue;
; 1144 : 
; 1145 : 		CPythonGraphic::Instance().SetDiffuseColor(1.0f, 1.0f, 1.0f, 0.5f);

  00036	8b 0d 00 00 00
	00		 mov	 ecx, DWORD PTR ?ms_singleton@?$CSingleton@VCPythonGraphic@@@@0PAVCPythonGraphic@@A ; CSingleton<CPythonGraphic>::ms_singleton
  0003c	83 ec 10	 sub	 esp, 16			; 00000010H
  0003f	c7 44 24 0c 00
	00 00 3f	 mov	 DWORD PTR [esp+12], 1056964608 ; 3f000000H
  00047	c7 44 24 08 00
	00 80 3f	 mov	 DWORD PTR [esp+8], 1065353216 ; 3f800000H
  0004f	c7 44 24 04 00
	00 80 3f	 mov	 DWORD PTR [esp+4], 1065353216 ; 3f800000H
  00057	c7 04 24 00 00
	80 3f		 mov	 DWORD PTR [esp], 1065353216 ; 3f800000H
  0005e	e8 00 00 00 00	 call	 ?SetDiffuseColor@CScreen@@QAEXMMMM@Z ; CScreen::SetDiffuseColor

; 1146 : 		CPythonGraphic::Instance().RenderBar2d(m_rect.left + pSlot->ixPosition,

  00063	8b 4d fc	 mov	 ecx, DWORD PTR _pSlot$1[ebp]
  00066	83 ec 14	 sub	 esp, 20			; 00000014H
  00069	8b 53 38	 mov	 edx, DWORD PTR [ebx+56]
  0006c	8b 5b 34	 mov	 ebx, DWORD PTR [ebx+52]
  0006f	8b 41 2c	 mov	 eax, DWORD PTR [ecx+44]
  00072	8b 79 24	 mov	 edi, DWORD PTR [ecx+36]
  00075	03 c2		 add	 eax, edx
  00077	03 c7		 add	 eax, edi
  00079	c7 44 24 10 00
	00 00 00	 mov	 DWORD PTR [esp+16], 0
  00081	66 0f 6e c0	 movd	 xmm0, eax
  00085	8b 41 28	 mov	 eax, DWORD PTR [ecx+40]
  00088	8b 49 20	 mov	 ecx, DWORD PTR [ecx+32]
  0008b	03 c3		 add	 eax, ebx
  0008d	0f 5b c0	 cvtdq2ps xmm0, xmm0
  00090	03 c1		 add	 eax, ecx
  00092	f3 0f 11 44 24
	0c		 movss	 DWORD PTR [esp+12], xmm0
  00098	66 0f 6e c0	 movd	 xmm0, eax
  0009c	8d 04 3a	 lea	 eax, DWORD PTR [edx+edi]
  0009f	0f 5b c0	 cvtdq2ps xmm0, xmm0
  000a2	f3 0f 11 44 24
	08		 movss	 DWORD PTR [esp+8], xmm0
  000a8	66 0f 6e c0	 movd	 xmm0, eax
  000ac	8d 04 0b	 lea	 eax, DWORD PTR [ebx+ecx]
  000af	8b 0d 00 00 00
	00		 mov	 ecx, DWORD PTR ?ms_singleton@?$CSingleton@VCPythonGraphic@@@@0PAVCPythonGraphic@@A ; CSingleton<CPythonGraphic>::ms_singleton
  000b5	0f 5b c0	 cvtdq2ps xmm0, xmm0
  000b8	f3 0f 11 44 24
	04		 movss	 DWORD PTR [esp+4], xmm0
  000be	66 0f 6e c0	 movd	 xmm0, eax
  000c2	0f 5b c0	 cvtdq2ps xmm0, xmm0
  000c5	f3 0f 11 04 24	 movss	 DWORD PTR [esp], xmm0
  000ca	e8 00 00 00 00	 call	 ?RenderBar2d@CScreen@@QAEXMMMMM@Z ; CScreen::RenderBar2d
  000cf	8b 5d f4	 mov	 ebx, DWORD PTR _this$1$[ebp]
$LN2@OnRenderSe:
; File C:\Program Files (x86)\Microsoft Visual Studio\2019\Community\VC\Tools\MSVC\14.28.29333\include\list

; 166  :         this->_Ptr = this->_Ptr->_Next;

  000d2	8b 36		 mov	 esi, DWORD PTR [esi]

; 199  :         return this->_Ptr == _Right._Ptr;

  000d4	3b b3 80 00 00
	00		 cmp	 esi, DWORD PTR [ebx+128]
; File D:\Metin2 Server Files\mainline\SRC_2014\Metin2Client\eterPythonLib\PythonSlotWindow.cpp

; 1139 : 	for (; itor != m_dwSelectedSlotIndexList.end(); ++itor)

  000da	0f 85 40 ff ff
	ff		 jne	 $LL18@OnRenderSe
  000e0	5f		 pop	 edi
$LN3@OnRenderSe:
  000e1	5e		 pop	 esi

; 1147 : 												m_rect.top + pSlot->iyPosition,
; 1148 : 												m_rect.left + pSlot->ixPosition + pSlot->ixCellSize,
; 1149 : 												m_rect.top + pSlot->iyPosition + pSlot->iyCellSize);
; 1150 : 	}
; 1151 : }

  000e2	5b		 pop	 ebx
  000e3	8b e5		 mov	 esp, ebp
  000e5	5d		 pop	 ebp
  000e6	c3		 ret	 0
?OnRenderSelectedSlot@CSlotWindow@UI@@MAEXXZ ENDP	; UI::CSlotWindow::OnRenderSelectedSlot
_TEXT	ENDS
; Function compile flags: /Ogtp
; File D:\Metin2 Server Files\mainline\SRC_2014\Metin2Client\eterPythonLib\PythonSlotWindow.cpp
;	COMDAT ?OnRenderPickingSlot@CSlotWindow@UI@@MAEXXZ
_TEXT	SEGMENT
_pSlot$ = -4						; size = 4
?OnRenderPickingSlot@CSlotWindow@UI@@MAEXXZ PROC	; UI::CSlotWindow::OnRenderPickingSlot, COMDAT
; _this$ = ecx

; 1121 : {

  00000	55		 push	 ebp
  00001	8b ec		 mov	 ebp, esp
  00003	51		 push	 ecx
  00004	53		 push	 ebx
  00005	8b d9		 mov	 ebx, ecx

; 1122 : 	if (!UI::CWindowManager::Instance().IsAttaching())

  00007	8b 0d 00 00 00
	00		 mov	 ecx, DWORD PTR ?ms_singleton@?$CSingleton@VCWindowManager@UI@@@@0PAVCWindowManager@UI@@A ; CSingleton<UI::CWindowManager>::ms_singleton
  0000d	e8 00 00 00 00	 call	 ?IsAttaching@CWindowManager@UI@@QAEHXZ ; UI::CWindowManager::IsAttaching
  00012	85 c0		 test	 eax, eax
  00014	0f 84 b0 00 00
	00		 je	 $LN1@OnRenderPi

; 1123 : 		return;
; 1124 : 
; 1125 : 	TSlot * pSlot;
; 1126 : 	if (!GetSelectedSlotPointer(&pSlot))

  0001a	8d 45 fc	 lea	 eax, DWORD PTR _pSlot$[ebp]
  0001d	8b cb		 mov	 ecx, ebx
  0001f	50		 push	 eax
  00020	e8 00 00 00 00	 call	 ?GetSelectedSlotPointer@CSlotWindow@UI@@IAEHPAPAUSSlot@12@@Z ; UI::CSlotWindow::GetSelectedSlotPointer
  00025	85 c0		 test	 eax, eax
  00027	0f 84 9d 00 00
	00		 je	 $LN1@OnRenderPi

; 1127 : 		return;
; 1128 : 
; 1129 : 	CPythonGraphic::Instance().SetDiffuseColor(1.0f, 1.0f, 1.0f, 0.5f);

  0002d	8b 0d 00 00 00
	00		 mov	 ecx, DWORD PTR ?ms_singleton@?$CSingleton@VCPythonGraphic@@@@0PAVCPythonGraphic@@A ; CSingleton<CPythonGraphic>::ms_singleton
  00033	56		 push	 esi
  00034	57		 push	 edi
  00035	83 ec 10	 sub	 esp, 16			; 00000010H
  00038	c7 44 24 0c 00
	00 00 3f	 mov	 DWORD PTR [esp+12], 1056964608 ; 3f000000H
  00040	c7 44 24 08 00
	00 80 3f	 mov	 DWORD PTR [esp+8], 1065353216 ; 3f800000H
  00048	c7 44 24 04 00
	00 80 3f	 mov	 DWORD PTR [esp+4], 1065353216 ; 3f800000H
  00050	c7 04 24 00 00
	80 3f		 mov	 DWORD PTR [esp], 1065353216 ; 3f800000H
  00057	e8 00 00 00 00	 call	 ?SetDiffuseColor@CScreen@@QAEXMMMM@Z ; CScreen::SetDiffuseColor

; 1130 : 	CPythonGraphic::Instance().RenderBar2d(m_rect.left + pSlot->ixPosition,

  0005c	8b 4d fc	 mov	 ecx, DWORD PTR _pSlot$[ebp]
  0005f	83 ec 14	 sub	 esp, 20			; 00000014H
  00062	8b 73 38	 mov	 esi, DWORD PTR [ebx+56]
  00065	8b 5b 34	 mov	 ebx, DWORD PTR [ebx+52]
  00068	8b 51 24	 mov	 edx, DWORD PTR [ecx+36]
  0006b	8b 41 2c	 mov	 eax, DWORD PTR [ecx+44]
  0006e	8b 79 20	 mov	 edi, DWORD PTR [ecx+32]
  00071	03 c2		 add	 eax, edx
  00073	03 c6		 add	 eax, esi
  00075	c7 44 24 10 00
	00 00 00	 mov	 DWORD PTR [esp+16], 0
  0007d	66 0f 6e c0	 movd	 xmm0, eax
  00081	8b 41 28	 mov	 eax, DWORD PTR [ecx+40]
  00084	0f 5b c0	 cvtdq2ps xmm0, xmm0
  00087	03 c7		 add	 eax, edi
  00089	8b 0d 00 00 00
	00		 mov	 ecx, DWORD PTR ?ms_singleton@?$CSingleton@VCPythonGraphic@@@@0PAVCPythonGraphic@@A ; CSingleton<CPythonGraphic>::ms_singleton
  0008f	03 c3		 add	 eax, ebx
  00091	f3 0f 11 44 24
	0c		 movss	 DWORD PTR [esp+12], xmm0
  00097	66 0f 6e c0	 movd	 xmm0, eax
  0009b	8d 04 32	 lea	 eax, DWORD PTR [edx+esi]
  0009e	0f 5b c0	 cvtdq2ps xmm0, xmm0
  000a1	f3 0f 11 44 24
	08		 movss	 DWORD PTR [esp+8], xmm0
  000a7	66 0f 6e c0	 movd	 xmm0, eax
  000ab	8d 04 1f	 lea	 eax, DWORD PTR [edi+ebx]
  000ae	0f 5b c0	 cvtdq2ps xmm0, xmm0
  000b1	f3 0f 11 44 24
	04		 movss	 DWORD PTR [esp+4], xmm0
  000b7	66 0f 6e c0	 movd	 xmm0, eax
  000bb	0f 5b c0	 cvtdq2ps xmm0, xmm0
  000be	f3 0f 11 04 24	 movss	 DWORD PTR [esp], xmm0
  000c3	e8 00 00 00 00	 call	 ?RenderBar2d@CScreen@@QAEXMMMMM@Z ; CScreen::RenderBar2d
  000c8	5f		 pop	 edi
  000c9	5e		 pop	 esi
$LN1@OnRenderPi:
  000ca	5b		 pop	 ebx

; 1131 : 											m_rect.top + pSlot->iyPosition,
; 1132 : 											m_rect.left + pSlot->ixPosition + pSlot->ixCellSize,
; 1133 : 											m_rect.top + pSlot->iyPosition + pSlot->iyCellSize);
; 1134 : }

  000cb	8b e5		 mov	 esp, ebp
  000cd	5d		 pop	 ebp
  000ce	c3		 ret	 0
?OnRenderPickingSlot@CSlotWindow@UI@@MAEXXZ ENDP	; UI::CSlotWindow::OnRenderPickingSlot
_TEXT	ENDS
; Function compile flags: /Ogtp
; File D:\Metin2 Server Files\mainline\SRC_2014\Metin2Client\eterPythonLib\PythonSlotWindow.cpp
; File C:\Program Files (x86)\Microsoft Visual Studio\2019\Community\VC\Tools\MSVC\14.28.29333\include\list
; File D:\Metin2 Server Files\mainline\SRC_2014\Metin2Client\eterPythonLib\PythonSlotWindow.cpp
; File C:\Program Files (x86)\Microsoft Visual Studio\2019\Community\VC\Tools\MSVC\14.28.29333\include\list
; File D:\Metin2 Server Files\mainline\SRC_2014\Metin2Client\eterPythonLib\PythonSlotWindow.cpp
;	COMDAT ?RenderLockedSlot@CSlotWindow@UI@@IAEXXZ
_TEXT	SEGMENT
_this$1$ = -4						; size = 4
?RenderLockedSlot@CSlotWindow@UI@@IAEXXZ PROC		; UI::CSlotWindow::RenderLockedSlot, COMDAT
; _this$ = ecx

; 1154 : {

  00000	55		 push	 ebp
  00001	8b ec		 mov	 ebp, esp
  00003	51		 push	 ecx
  00004	56		 push	 esi
  00005	57		 push	 edi

; 1155 : 	CPythonGraphic::Instance().SetDiffuseColor(0.0f, 0.0f, 0.0f, 0.5f);

  00006	83 ec 10	 sub	 esp, 16			; 00000010H
  00009	8b f9		 mov	 edi, ecx
  0000b	8b 0d 00 00 00
	00		 mov	 ecx, DWORD PTR ?ms_singleton@?$CSingleton@VCPythonGraphic@@@@0PAVCPythonGraphic@@A ; CSingleton<CPythonGraphic>::ms_singleton
  00011	89 7d fc	 mov	 DWORD PTR _this$1$[ebp], edi
  00014	c7 44 24 0c 00
	00 00 3f	 mov	 DWORD PTR [esp+12], 1056964608 ; 3f000000H
  0001c	c7 44 24 08 00
	00 00 00	 mov	 DWORD PTR [esp+8], 0
  00024	c7 44 24 04 00
	00 00 00	 mov	 DWORD PTR [esp+4], 0
  0002c	c7 04 24 00 00
	00 00		 mov	 DWORD PTR [esp], 0
  00033	e8 00 00 00 00	 call	 ?SetDiffuseColor@CScreen@@QAEXMMMM@Z ; CScreen::SetDiffuseColor
; File C:\Program Files (x86)\Microsoft Visual Studio\2019\Community\VC\Tools\MSVC\14.28.29333\include\list

; 1092 :         return iterator(_Mypair._Myval2._Myhead->_Next, _STD addressof(_Mypair._Myval2));

  00038	8b 87 88 00 00
	00		 mov	 eax, DWORD PTR [edi+136]

; 39   :     _List_unchecked_const_iterator(_Nodeptr _Pnode, const _Mylist* _Plist) noexcept : _Ptr(_Pnode) {

  0003e	8b 30		 mov	 esi, DWORD PTR [eax]
  00040	3b f0		 cmp	 esi, eax
; File D:\Metin2 Server Files\mainline\SRC_2014\Metin2Client\eterPythonLib\PythonSlotWindow.cpp

; 1156 : 	for (TSlotListIterator itor = m_SlotList.begin(); itor != m_SlotList.end(); ++itor)

  00042	0f 84 8f 00 00
	00		 je	 $LN3@RenderLock
  00048	53		 push	 ebx
  00049	0f 1f 80 00 00
	00 00		 npad	 7
$LL19@RenderLock:

; 1157 : 	{
; 1158 : 		TSlot & rSlot = *itor;
; 1159 : 
; 1160 : 		if (!rSlot.isItem)

  00050	83 7e 18 00	 cmp	 DWORD PTR [esi+24], 0
  00054	74 72		 je	 SHORT $LN2@RenderLock

; 1161 : 			continue;
; 1162 : 
; 1163 : 		if (rSlot.dwState & SLOT_STATE_LOCK)

  00056	f6 46 08 01	 test	 BYTE PTR [esi+8], 1
  0005a	74 6c		 je	 SHORT $LN2@RenderLock

; 1164 : 		{
; 1165 : 			CPythonGraphic::Instance().RenderBar2d(m_rect.left + rSlot.ixPosition,

  0005c	8b 4f 38	 mov	 ecx, DWORD PTR [edi+56]
  0005f	83 ec 14	 sub	 esp, 20			; 00000014H
  00062	8b 46 34	 mov	 eax, DWORD PTR [esi+52]
  00065	8b 56 2c	 mov	 edx, DWORD PTR [esi+44]
  00068	03 c1		 add	 eax, ecx
  0006a	8b 7f 34	 mov	 edi, DWORD PTR [edi+52]
  0006d	03 c2		 add	 eax, edx
  0006f	8b 5e 28	 mov	 ebx, DWORD PTR [esi+40]
  00072	c7 44 24 10 00
	00 00 00	 mov	 DWORD PTR [esp+16], 0
  0007a	66 0f 6e c0	 movd	 xmm0, eax
  0007e	8b 46 30	 mov	 eax, DWORD PTR [esi+48]
  00081	0f 5b c0	 cvtdq2ps xmm0, xmm0
  00084	03 c7		 add	 eax, edi
  00086	03 c3		 add	 eax, ebx
  00088	f3 0f 11 44 24
	0c		 movss	 DWORD PTR [esp+12], xmm0
  0008e	66 0f 6e c0	 movd	 xmm0, eax
  00092	8d 04 11	 lea	 eax, DWORD PTR [ecx+edx]
  00095	8b 0d 00 00 00
	00		 mov	 ecx, DWORD PTR ?ms_singleton@?$CSingleton@VCPythonGraphic@@@@0PAVCPythonGraphic@@A ; CSingleton<CPythonGraphic>::ms_singleton
  0009b	0f 5b c0	 cvtdq2ps xmm0, xmm0
  0009e	f3 0f 11 44 24
	08		 movss	 DWORD PTR [esp+8], xmm0
  000a4	66 0f 6e c0	 movd	 xmm0, eax
  000a8	8d 04 1f	 lea	 eax, DWORD PTR [edi+ebx]
  000ab	0f 5b c0	 cvtdq2ps xmm0, xmm0
  000ae	f3 0f 11 44 24
	04		 movss	 DWORD PTR [esp+4], xmm0
  000b4	66 0f 6e c0	 movd	 xmm0, eax
  000b8	0f 5b c0	 cvtdq2ps xmm0, xmm0
  000bb	f3 0f 11 04 24	 movss	 DWORD PTR [esp], xmm0
  000c0	e8 00 00 00 00	 call	 ?RenderBar2d@CScreen@@QAEXMMMMM@Z ; CScreen::RenderBar2d
  000c5	8b 7d fc	 mov	 edi, DWORD PTR _this$1$[ebp]
$LN2@RenderLock:
; File C:\Program Files (x86)\Microsoft Visual Studio\2019\Community\VC\Tools\MSVC\14.28.29333\include\list

; 166  :         this->_Ptr = this->_Ptr->_Next;

  000c8	8b 36		 mov	 esi, DWORD PTR [esi]

; 199  :         return this->_Ptr == _Right._Ptr;

  000ca	3b b7 88 00 00
	00		 cmp	 esi, DWORD PTR [edi+136]
; File D:\Metin2 Server Files\mainline\SRC_2014\Metin2Client\eterPythonLib\PythonSlotWindow.cpp

; 1156 : 	for (TSlotListIterator itor = m_SlotList.begin(); itor != m_SlotList.end(); ++itor)

  000d0	0f 85 7a ff ff
	ff		 jne	 $LL19@RenderLock
  000d6	5b		 pop	 ebx
$LN3@RenderLock:
  000d7	5f		 pop	 edi

; 1166 : 												   m_rect.top  + rSlot.iyPosition,
; 1167 : 												   m_rect.left + rSlot.ixPosition + rSlot.ixCellSize,
; 1168 : 												   m_rect.top  + rSlot.iyPosition + rSlot.iyCellSize);
; 1169 : 		}
; 1170 : 	}
; 1171 : }

  000d8	5e		 pop	 esi
  000d9	8b e5		 mov	 esp, ebp
  000db	5d		 pop	 ebp
  000dc	c3		 ret	 0
?RenderLockedSlot@CSlotWindow@UI@@IAEXXZ ENDP		; UI::CSlotWindow::RenderLockedSlot
_TEXT	ENDS
; Function compile flags: /Ogtp
; File D:\Metin2 Server Files\mainline\SRC_2014\Metin2Client\eterPythonLib\PythonSlotWindow.cpp
; File C:\Program Files (x86)\Microsoft Visual Studio\2019\Community\VC\Tools\MSVC\14.28.29333\include\list
; File D:\Metin2 Server Files\mainline\SRC_2014\Metin2Client\eterPythonLib\PythonSlotWindow.cpp
; File C:\Program Files (x86)\Microsoft Visual Studio\2019\Community\VC\Tools\MSVC\14.28.29333\include\list
; File D:\Metin2 Server Files\mainline\SRC_2014\Metin2Client\eterPythonLib\PythonSlotWindow.cpp
;	COMDAT ?RenderSlotBaseImage@CSlotWindow@UI@@IAEXXZ
_TEXT	SEGMENT
?RenderSlotBaseImage@CSlotWindow@UI@@IAEXXZ PROC	; UI::CSlotWindow::RenderSlotBaseImage, COMDAT
; _this$ = ecx

; 1104 : {

  00000	57		 push	 edi
  00001	8b f9		 mov	 edi, ecx

; 1105 : 	if (!m_pBaseImageInstance)

  00003	83 bf 9c 00 00
	00 00		 cmp	 DWORD PTR [edi+156], 0
  0000a	74 63		 je	 SHORT $LN3@RenderSlot
; File C:\Program Files (x86)\Microsoft Visual Studio\2019\Community\VC\Tools\MSVC\14.28.29333\include\list

; 1092 :         return iterator(_Mypair._Myval2._Myhead->_Next, _STD addressof(_Mypair._Myval2));

  0000c	8b 87 88 00 00
	00		 mov	 eax, DWORD PTR [edi+136]
  00012	56		 push	 esi

; 39   :     _List_unchecked_const_iterator(_Nodeptr _Pnode, const _Mylist* _Plist) noexcept : _Ptr(_Pnode) {

  00013	8b 30		 mov	 esi, DWORD PTR [eax]
  00015	3b f0		 cmp	 esi, eax
; File D:\Metin2 Server Files\mainline\SRC_2014\Metin2Client\eterPythonLib\PythonSlotWindow.cpp

; 1108 : 	for (TSlotListIterator itor = m_SlotList.begin(); itor != m_SlotList.end(); ++itor)

  00017	74 55		 je	 SHORT $LN40@RenderSlot
  00019	0f 1f 80 00 00
	00 00		 npad	 7
$LL19@RenderSlot:

; 1109 : 	{
; 1110 : 		TSlot & rSlot = *itor;
; 1111 : 
; 1112 : 		if (!rSlot.bRenderBaseSlotImage)

  00020	80 7e 44 00	 cmp	 BYTE PTR [esi+68], 0
  00024	74 3e		 je	 SHORT $LN2@RenderSlot

; 1113 : 			continue;
; 1114 : 
; 1115 : 		m_pBaseImageInstance->SetPosition(m_rect.left + rSlot.ixPosition, m_rect.top + rSlot.iyPosition);

  00026	8b 46 2c	 mov	 eax, DWORD PTR [esi+44]
  00029	83 ec 08	 sub	 esp, 8
  0002c	03 47 38	 add	 eax, DWORD PTR [edi+56]
  0002f	8b 8f 9c 00 00
	00		 mov	 ecx, DWORD PTR [edi+156]
  00035	66 0f 6e c0	 movd	 xmm0, eax
  00039	8b 46 28	 mov	 eax, DWORD PTR [esi+40]
  0003c	03 47 34	 add	 eax, DWORD PTR [edi+52]
  0003f	0f 5b c0	 cvtdq2ps xmm0, xmm0
  00042	f3 0f 11 44 24
	04		 movss	 DWORD PTR [esp+4], xmm0
  00048	66 0f 6e c0	 movd	 xmm0, eax
  0004c	0f 5b c0	 cvtdq2ps xmm0, xmm0
  0004f	f3 0f 11 04 24	 movss	 DWORD PTR [esp], xmm0
  00054	e8 00 00 00 00	 call	 ?SetPosition@CGraphicImageInstance@@QAEXMM@Z ; CGraphicImageInstance::SetPosition

; 1116 : 		m_pBaseImageInstance->Render();

  00059	8b 8f 9c 00 00
	00		 mov	 ecx, DWORD PTR [edi+156]
  0005f	e8 00 00 00 00	 call	 ?Render@CGraphicImageInstance@@QAEXXZ ; CGraphicImageInstance::Render
$LN2@RenderSlot:
; File C:\Program Files (x86)\Microsoft Visual Studio\2019\Community\VC\Tools\MSVC\14.28.29333\include\list

; 166  :         this->_Ptr = this->_Ptr->_Next;

  00064	8b 36		 mov	 esi, DWORD PTR [esi]

; 199  :         return this->_Ptr == _Right._Ptr;

  00066	3b b7 88 00 00
	00		 cmp	 esi, DWORD PTR [edi+136]
; File D:\Metin2 Server Files\mainline\SRC_2014\Metin2Client\eterPythonLib\PythonSlotWindow.cpp

; 1108 : 	for (TSlotListIterator itor = m_SlotList.begin(); itor != m_SlotList.end(); ++itor)

  0006c	75 b2		 jne	 SHORT $LL19@RenderSlot
$LN40@RenderSlot:
  0006e	5e		 pop	 esi
$LN3@RenderSlot:
  0006f	5f		 pop	 edi

; 1117 : 	}
; 1118 : }

  00070	c3		 ret	 0
?RenderSlotBaseImage@CSlotWindow@UI@@IAEXXZ ENDP	; UI::CSlotWindow::RenderSlotBaseImage
_TEXT	ENDS
; Function compile flags: /Ogtp
; File D:\Metin2 Server Files\mainline\SRC_2014\Metin2Client\eterPythonLib\PythonSlotWindow.cpp
;	COMDAT ?OnMouseOver@CSlotWindow@UI@@MAEXXZ
_TEXT	SEGMENT
_pSlot$1 = -4						; size = 4
?OnMouseOver@CSlotWindow@UI@@MAEXXZ PROC		; UI::CSlotWindow::OnMouseOver, COMDAT
; _this$ = ecx

; 864  : {

  00000	55		 push	 ebp
  00001	8b ec		 mov	 ebp, esp
  00003	51		 push	 ecx

; 865  : 	// FIXME :     SetTop  Capture  .   .
; 866  : 	//                - [levites]
; 867  : //	if (UI::CWindowManager::Instance().IsCapture())
; 868  : //	if (!UI::CWindowManager::Instance().IsAttaching())
; 869  : //		return;
; 870  : 
; 871  : 	CWindow * pPointWindow = UI::CWindowManager::Instance().GetPointWindow();
; 872  : 	if (this == pPointWindow)

  00004	a1 00 00 00 00	 mov	 eax, DWORD PTR ?ms_singleton@?$CSingleton@VCWindowManager@UI@@@@0PAVCWindowManager@UI@@A ; CSingleton<UI::CWindowManager>::ms_singleton
  00009	56		 push	 esi
  0000a	8b f1		 mov	 esi, ecx
  0000c	3b 70 64	 cmp	 esi, DWORD PTR [eax+100]
  0000f	75 23		 jne	 SHORT $LN4@OnMouseOve

; 873  : 	{
; 874  : 		TSlot * pSlot;
; 875  : 		if (GetPickedSlotPointer(&pSlot))

  00011	8b 06		 mov	 eax, DWORD PTR [esi]
  00013	8d 4d fc	 lea	 ecx, DWORD PTR _pSlot$1[ebp]
  00016	51		 push	 ecx
  00017	8b ce		 mov	 ecx, esi
  00019	ff 90 9c 00 00
	00		 call	 DWORD PTR [eax+156]
  0001f	85 c0		 test	 eax, eax
  00021	74 11		 je	 SHORT $LN4@OnMouseOve

; 876  : 		{
; 877  : 			if (OnOverInItem(pSlot->dwSlotNumber))

  00023	8b 45 fc	 mov	 eax, DWORD PTR _pSlot$1[ebp]
  00026	8b ce		 mov	 ecx, esi
  00028	ff 70 04	 push	 DWORD PTR [eax+4]
  0002b	e8 00 00 00 00	 call	 ?OnOverInItem@CSlotWindow@UI@@QAEHK@Z ; UI::CSlotWindow::OnOverInItem
  00030	85 c0		 test	 eax, eax
  00032	75 07		 jne	 SHORT $LN1@OnMouseOve
$LN4@OnMouseOve:

; 878  : 				return;
; 879  : 		}
; 880  : 	}
; 881  : 
; 882  : 	OnOverOutItem();

  00034	8b ce		 mov	 ecx, esi
  00036	e8 00 00 00 00	 call	 ?OnOverOutItem@CSlotWindow@UI@@QAEXXZ ; UI::CSlotWindow::OnOverOutItem
$LN1@OnMouseOve:
  0003b	5e		 pop	 esi

; 883  : }

  0003c	8b e5		 mov	 esp, ebp
  0003e	5d		 pop	 ebp
  0003f	c3		 ret	 0
?OnMouseOver@CSlotWindow@UI@@MAEXXZ ENDP		; UI::CSlotWindow::OnMouseOver
_TEXT	ENDS
; Function compile flags: /Ogtp
; File D:\Metin2 Server Files\mainline\SRC_2014\Metin2Client\eterPythonLib\PythonSlotWindow.cpp
;	COMDAT ?OnMouseOverOut@CSlotWindow@UI@@MAEXXZ
_TEXT	SEGMENT
?OnMouseOverOut@CSlotWindow@UI@@MAEXXZ PROC		; UI::CSlotWindow::OnMouseOverOut, COMDAT
; _this$ = ecx

; 860  : 	OnOverOutItem();

  00000	e9 00 00 00 00	 jmp	 ?OnOverOutItem@CSlotWindow@UI@@QAEXXZ ; UI::CSlotWindow::OnOverOutItem
?OnMouseOverOut@CSlotWindow@UI@@MAEXXZ ENDP		; UI::CSlotWindow::OnMouseOverOut
_TEXT	ENDS
; Function compile flags: /Ogtp
; File D:\Metin2 Server Files\mainline\SRC_2014\Metin2Client\eterPythonLib\PythonSlotWindow.cpp
;	COMDAT ?OnMouseLeftButtonDoubleClick@CSlotWindow@UI@@MAEHXZ
_TEXT	SEGMENT
?OnMouseLeftButtonDoubleClick@CSlotWindow@UI@@MAEHXZ PROC ; UI::CSlotWindow::OnMouseLeftButtonDoubleClick, COMDAT
; _this$ = ecx

; 853  : 	OnUseSlot();

  00000	e8 00 00 00 00	 call	 ?OnUseSlot@CSlotWindow@UI@@IAEXXZ ; UI::CSlotWindow::OnUseSlot

; 854  : 
; 855  : 	return TRUE;

  00005	b8 01 00 00 00	 mov	 eax, 1

; 856  : }

  0000a	c3		 ret	 0
?OnMouseLeftButtonDoubleClick@CSlotWindow@UI@@MAEHXZ ENDP ; UI::CSlotWindow::OnMouseLeftButtonDoubleClick
_TEXT	ENDS
; Function compile flags: /Ogtp
; File D:\Metin2 Server Files\mainline\SRC_2014\Metin2Client\eterPythonLib\PythonSlotWindow.cpp
;	COMDAT ?OnMouseRightButtonDown@CSlotWindow@UI@@MAEHXZ
_TEXT	SEGMENT
_pSlot$ = -4						; size = 4
?OnMouseRightButtonDown@CSlotWindow@UI@@MAEHXZ PROC	; UI::CSlotWindow::OnMouseRightButtonDown, COMDAT
; _this$ = ecx

; 834  : {

  00000	55		 push	 ebp
  00001	8b ec		 mov	 ebp, esp
  00003	51		 push	 ecx
  00004	56		 push	 esi
  00005	8b f1		 mov	 esi, ecx

; 835  : 	TSlot * pSlot;
; 836  : 	if (!GetPickedSlotPointer(&pSlot))

  00007	8d 4d fc	 lea	 ecx, DWORD PTR _pSlot$[ebp]
  0000a	51		 push	 ecx
  0000b	8b ce		 mov	 ecx, esi
  0000d	8b 06		 mov	 eax, DWORD PTR [esi]
  0000f	ff 90 9c 00 00
	00		 call	 DWORD PTR [eax+156]
  00015	85 c0		 test	 eax, eax
  00017	74 22		 je	 SHORT $LN6@OnMouseRig

; 837  : 		return TRUE;
; 838  : 
; 839  : 	if (pSlot->isItem)

  00019	8b 45 fc	 mov	 eax, DWORD PTR _pSlot$[ebp]
  0001c	8b ce		 mov	 ecx, esi
  0001e	83 78 10 00	 cmp	 DWORD PTR [eax+16], 0
  00022	ff 70 04	 push	 DWORD PTR [eax+4]
  00025	74 0f		 je	 SHORT $LN3@OnMouseRig

; 840  : 	{
; 841  : 		OnUnselectItemSlot(pSlot->dwSlotNumber);

  00027	e8 00 00 00 00	 call	 ?OnUnselectItemSlot@CSlotWindow@UI@@IAEXH@Z ; UI::CSlotWindow::OnUnselectItemSlot

; 846  : 	}
; 847  : 
; 848  : 	return TRUE;
; 849  : }

  0002c	b8 01 00 00 00	 mov	 eax, 1
  00031	5e		 pop	 esi
  00032	8b e5		 mov	 esp, ebp
  00034	5d		 pop	 ebp
  00035	c3		 ret	 0
$LN3@OnMouseRig:

; 842  : 	}
; 843  : 	else
; 844  : 	{
; 845  : 		OnUnselectEmptySlot(pSlot->dwSlotNumber);

  00036	e8 00 00 00 00	 call	 ?OnUnselectEmptySlot@CSlotWindow@UI@@IAEXH@Z ; UI::CSlotWindow::OnUnselectEmptySlot
$LN6@OnMouseRig:

; 846  : 	}
; 847  : 
; 848  : 	return TRUE;
; 849  : }

  0003b	b8 01 00 00 00	 mov	 eax, 1
  00040	5e		 pop	 esi
  00041	8b e5		 mov	 esp, ebp
  00043	5d		 pop	 ebp
  00044	c3		 ret	 0
?OnMouseRightButtonDown@CSlotWindow@UI@@MAEHXZ ENDP	; UI::CSlotWindow::OnMouseRightButtonDown
_TEXT	ENDS
; Function compile flags: /Ogtp
; File D:\Metin2 Server Files\mainline\SRC_2014\Metin2Client\eterPythonLib\PythonSlotWindow.cpp
;	COMDAT ?OnMouseLeftButtonUp@CSlotWindow@UI@@MAEHXZ
_TEXT	SEGMENT
_pSlot$1 = -4						; size = 4
?OnMouseLeftButtonUp@CSlotWindow@UI@@MAEHXZ PROC	; UI::CSlotWindow::OnMouseLeftButtonUp, COMDAT
; _this$ = ecx

; 800  : {

  00000	55		 push	 ebp
  00001	8b ec		 mov	 ebp, esp
  00003	51		 push	 ecx
  00004	56		 push	 esi
  00005	8b f1		 mov	 esi, ecx

; 801  : 	if (UI::CWindowManager::Instance().IsAttaching())

  00007	8b 0d 00 00 00
	00		 mov	 ecx, DWORD PTR ?ms_singleton@?$CSingleton@VCWindowManager@UI@@@@0PAVCWindowManager@UI@@A ; CSingleton<UI::CWindowManager>::ms_singleton
  0000d	e8 00 00 00 00	 call	 ?IsAttaching@CWindowManager@UI@@QAEHXZ ; UI::CWindowManager::IsAttaching
  00012	85 c0		 test	 eax, eax
  00014	0f 84 8a 00 00
	00		 je	 $LN4@OnMouseLef

; 802  : 	if (UI::CWindowManager::Instance().IsDragging())

  0001a	8b 0d 00 00 00
	00		 mov	 ecx, DWORD PTR ?ms_singleton@?$CSingleton@VCWindowManager@UI@@@@0PAVCWindowManager@UI@@A ; CSingleton<UI::CWindowManager>::ms_singleton
  00020	e8 00 00 00 00	 call	 ?IsDragging@CWindowManager@UI@@QAEHXZ ; UI::CWindowManager::IsDragging
  00025	85 c0		 test	 eax, eax
  00027	74 7b		 je	 SHORT $LN4@OnMouseLef

; 803  : 	if (IsIn())

  00029	8b ce		 mov	 ecx, esi
  0002b	e8 00 00 00 00	 call	 ?IsIn@CWindow@UI@@QAE_NXZ ; UI::CWindow::IsIn
  00030	84 c0		 test	 al, al
  00032	74 70		 je	 SHORT $LN4@OnMouseLef

; 804  : 	{
; 805  : 		UI::CWindow * pWin = UI::CWindowManager::Instance().GetPointWindow();

  00034	a1 00 00 00 00	 mov	 eax, DWORD PTR ?ms_singleton@?$CSingleton@VCWindowManager@UI@@@@0PAVCWindowManager@UI@@A ; CSingleton<UI::CWindowManager>::ms_singleton
  00039	8b 70 64	 mov	 esi, DWORD PTR [eax+100]

; 806  : 
; 807  : 		if (pWin)

  0003c	85 f6		 test	 esi, esi
  0003e	74 64		 je	 SHORT $LN4@OnMouseLef

; 808  : 		if (pWin->IsType(UI::CSlotWindow::Type()))

  00040	e8 00 00 00 00	 call	 ?Type@CSlotWindow@UI@@SAKXZ ; UI::CSlotWindow::Type
  00045	50		 push	 eax
  00046	8b ce		 mov	 ecx, esi
  00048	e8 00 00 00 00	 call	 ?IsType@CWindow@UI@@QAEHK@Z ; UI::CWindow::IsType
  0004d	85 c0		 test	 eax, eax
  0004f	74 53		 je	 SHORT $LN4@OnMouseLef

; 809  : 		{
; 810  : 			UI::CSlotWindow * pSlotWin = (UI::CSlotWindow *)pWin;
; 811  : 
; 812  : 			TSlot * pSlot;
; 813  : 			if (!pSlotWin->GetPickedSlotPointer(&pSlot))

  00051	8b 06		 mov	 eax, DWORD PTR [esi]
  00053	8d 4d fc	 lea	 ecx, DWORD PTR _pSlot$1[ebp]
  00056	51		 push	 ecx
  00057	8b ce		 mov	 ecx, esi
  00059	ff 90 9c 00 00
	00		 call	 DWORD PTR [eax+156]
  0005f	85 c0		 test	 eax, eax
  00061	75 15		 jne	 SHORT $LN7@OnMouseLef

; 814  : 			{
; 815  : 				UI::CWindowManager::Instance().DeattachIcon();

  00063	8b 0d 00 00 00
	00		 mov	 ecx, DWORD PTR ?ms_singleton@?$CSingleton@VCWindowManager@UI@@@@0PAVCWindowManager@UI@@A ; CSingleton<UI::CWindowManager>::ms_singleton
  00069	e8 00 00 00 00	 call	 ?DeattachIcon@CWindowManager@UI@@QAEXXZ ; UI::CWindowManager::DeattachIcon

; 816  : 				return TRUE;

  0006e	b8 01 00 00 00	 mov	 eax, 1
  00073	5e		 pop	 esi

; 831  : }

  00074	8b e5		 mov	 esp, ebp
  00076	5d		 pop	 ebp
  00077	c3		 ret	 0
$LN7@OnMouseLef:

; 817  : 			}
; 818  : 
; 819  : 			if (pSlot->isItem)

  00078	8b 45 fc	 mov	 eax, DWORD PTR _pSlot$1[ebp]
  0007b	8b ce		 mov	 ecx, esi
  0007d	83 78 10 00	 cmp	 DWORD PTR [eax+16], 0
  00081	ff 70 04	 push	 DWORD PTR [eax+4]
  00084	74 0f		 je	 SHORT $LN8@OnMouseLef

; 820  : 				pSlotWin->OnSelectItemSlot(pSlot->dwSlotNumber);

  00086	e8 00 00 00 00	 call	 ?OnSelectItemSlot@CSlotWindow@UI@@IAEXH@Z ; UI::CSlotWindow::OnSelectItemSlot

; 823  : 
; 824  : 			return TRUE;

  0008b	b8 01 00 00 00	 mov	 eax, 1
  00090	5e		 pop	 esi

; 831  : }

  00091	8b e5		 mov	 esp, ebp
  00093	5d		 pop	 ebp
  00094	c3		 ret	 0
$LN8@OnMouseLef:

; 821  : 			else
; 822  : 				pSlotWin->OnSelectEmptySlot(pSlot->dwSlotNumber);

  00095	e8 00 00 00 00	 call	 ?OnSelectEmptySlot@CSlotWindow@UI@@IAEXH@Z ; UI::CSlotWindow::OnSelectEmptySlot

; 823  : 
; 824  : 			return TRUE;

  0009a	b8 01 00 00 00	 mov	 eax, 1
  0009f	5e		 pop	 esi

; 831  : }

  000a0	8b e5		 mov	 esp, ebp
  000a2	5d		 pop	 ebp
  000a3	c3		 ret	 0
$LN4@OnMouseLef:

; 825  : 		}
; 826  : 
; 827  : 		return FALSE;
; 828  : 	}
; 829  : 
; 830  : 	return FALSE;

  000a4	33 c0		 xor	 eax, eax
  000a6	5e		 pop	 esi

; 831  : }

  000a7	8b e5		 mov	 esp, ebp
  000a9	5d		 pop	 ebp
  000aa	c3		 ret	 0
?OnMouseLeftButtonUp@CSlotWindow@UI@@MAEHXZ ENDP	; UI::CSlotWindow::OnMouseLeftButtonUp
_TEXT	ENDS
; Function compile flags: /Ogtp
; File D:\Metin2 Server Files\mainline\SRC_2014\Metin2Client\eterPythonLib\PythonSlotWindow.cpp
;	COMDAT ?OnMouseLeftButtonDown@CSlotWindow@UI@@MAEHXZ
_TEXT	SEGMENT
_pSlot$ = -4						; size = 4
?OnMouseLeftButtonDown@CSlotWindow@UI@@MAEHXZ PROC	; UI::CSlotWindow::OnMouseLeftButtonDown, COMDAT
; _this$ = ecx

; 779  : {

  00000	55		 push	 ebp
  00001	8b ec		 mov	 ebp, esp
  00003	51		 push	 ecx
  00004	56		 push	 esi
  00005	8b f1		 mov	 esi, ecx

; 780  : 	TSlot * pSlot;
; 781  : 	if (!GetPickedSlotPointer(&pSlot))

  00007	8d 4d fc	 lea	 ecx, DWORD PTR _pSlot$[ebp]
  0000a	51		 push	 ecx
  0000b	8b ce		 mov	 ecx, esi
  0000d	8b 06		 mov	 eax, DWORD PTR [esi]
  0000f	ff 90 9c 00 00
	00		 call	 DWORD PTR [eax+156]
  00015	85 c0		 test	 eax, eax
  00017	75 15		 jne	 SHORT $LN2@OnMouseLef

; 782  : 	{
; 783  : 		UI::CWindowManager::Instance().DeattachIcon();

  00019	8b 0d 00 00 00
	00		 mov	 ecx, DWORD PTR ?ms_singleton@?$CSingleton@VCWindowManager@UI@@@@0PAVCWindowManager@UI@@A ; CSingleton<UI::CWindowManager>::ms_singleton
  0001f	e8 00 00 00 00	 call	 ?DeattachIcon@CWindowManager@UI@@QAEXXZ ; UI::CWindowManager::DeattachIcon

; 794  : 	}
; 795  : 
; 796  : 	return TRUE;
; 797  : }

  00024	b8 01 00 00 00	 mov	 eax, 1
  00029	5e		 pop	 esi
  0002a	8b e5		 mov	 esp, ebp
  0002c	5d		 pop	 ebp
  0002d	c3		 ret	 0
$LN2@OnMouseLef:

; 784  : 		return TRUE;
; 785  : 	}
; 786  : 
; 787  : 	if (pSlot->isItem && !(pSlot->dwState & SLOT_STATE_LOCK))

  0002e	8b 45 fc	 mov	 eax, DWORD PTR _pSlot$[ebp]
  00031	83 78 10 00	 cmp	 DWORD PTR [eax+16], 0
  00035	74 19		 je	 SHORT $LN3@OnMouseLef
  00037	f6 00 01	 test	 BYTE PTR [eax], 1
  0003a	75 14		 jne	 SHORT $LN3@OnMouseLef

; 788  : 	{
; 789  : 		OnSelectItemSlot(pSlot->dwSlotNumber);

  0003c	ff 70 04	 push	 DWORD PTR [eax+4]
  0003f	8b ce		 mov	 ecx, esi
  00041	e8 00 00 00 00	 call	 ?OnSelectItemSlot@CSlotWindow@UI@@IAEXH@Z ; UI::CSlotWindow::OnSelectItemSlot

; 794  : 	}
; 795  : 
; 796  : 	return TRUE;
; 797  : }

  00046	b8 01 00 00 00	 mov	 eax, 1
  0004b	5e		 pop	 esi
  0004c	8b e5		 mov	 esp, ebp
  0004e	5d		 pop	 ebp
  0004f	c3		 ret	 0
$LN3@OnMouseLef:

; 790  : 	}
; 791  : 	else
; 792  : 	{
; 793  : 		OnSelectEmptySlot(pSlot->dwSlotNumber);

  00050	ff 70 04	 push	 DWORD PTR [eax+4]
  00053	8b ce		 mov	 ecx, esi
  00055	e8 00 00 00 00	 call	 ?OnSelectEmptySlot@CSlotWindow@UI@@IAEXH@Z ; UI::CSlotWindow::OnSelectEmptySlot

; 794  : 	}
; 795  : 
; 796  : 	return TRUE;
; 797  : }

  0005a	b8 01 00 00 00	 mov	 eax, 1
  0005f	5e		 pop	 esi
  00060	8b e5		 mov	 esp, ebp
  00062	5d		 pop	 ebp
  00063	c3		 ret	 0
?OnMouseLeftButtonDown@CSlotWindow@UI@@MAEHXZ ENDP	; UI::CSlotWindow::OnMouseLeftButtonDown
_TEXT	ENDS
; Function compile flags: /Ogtp
; File D:\Metin2 Server Files\mainline\SRC_2014\Metin2Client\eterPythonLib\PythonSlotWindow.cpp
; File C:\Program Files (x86)\Microsoft Visual Studio\2019\Community\VC\Tools\MSVC\14.28.29333\include\list
; File C:\Program Files (x86)\Microsoft Visual Studio\2019\Community\VC\Tools\MSVC\14.28.29333\include\algorithm
; File D:\Metin2 Server Files\mainline\SRC_2014\Metin2Client\eterBase\Stl.h
; File C:\Program Files (x86)\Microsoft Visual Studio\2019\Community\VC\Tools\MSVC\14.28.29333\include\list
; File C:\Program Files (x86)\Microsoft Visual Studio\2019\Community\VC\Tools\MSVC\14.28.29333\include\algorithm
; File C:\Program Files (x86)\Microsoft Visual Studio\2019\Community\VC\Tools\MSVC\14.28.29333\include\list
; File D:\Metin2 Server Files\mainline\SRC_2014\Metin2Client\eterPythonLib\PythonSlotWindow.cpp
; File C:\Program Files (x86)\Microsoft Visual Studio\2019\Community\VC\Tools\MSVC\14.28.29333\include\list
; File D:\Metin2 Server Files\mainline\SRC_2014\Metin2Client\eterPythonLib\PythonSlotWindow.cpp
; File C:\Program Files (x86)\Microsoft Visual Studio\2019\Community\VC\Tools\MSVC\14.28.29333\include\list
; File D:\Metin2 Server Files\mainline\SRC_2014\Metin2Client\eterPythonLib\PythonSlotWindow.cpp
;	COMDAT ?OnRender@CSlotWindow@UI@@MAEXXZ
_TEXT	SEGMENT
_this$1$ = -8						; size = 4
_fcurTime$1 = -4					; size = 4
?OnRender@CSlotWindow@UI@@MAEXXZ PROC			; UI::CSlotWindow::OnRender, COMDAT
; _this$ = ecx

; 976  : {

  00000	55		 push	 ebp
  00001	8b ec		 mov	 ebp, esp
  00003	83 ec 08	 sub	 esp, 8
  00006	53		 push	 ebx
  00007	56		 push	 esi
  00008	57		 push	 edi
  00009	8b f9		 mov	 edi, ecx
  0000b	89 7d f8	 mov	 DWORD PTR _this$1$[ebp], edi

; 977  : 	RenderSlotBaseImage();

  0000e	e8 00 00 00 00	 call	 ?RenderSlotBaseImage@CSlotWindow@UI@@IAEXXZ ; UI::CSlotWindow::RenderSlotBaseImage

; 978  : 
; 979  : 	switch (m_dwSlotStyle)

  00013	8b 47 7c	 mov	 eax, DWORD PTR [edi+124]
  00016	83 e8 01	 sub	 eax, 1
  00019	74 11		 je	 SHORT $LN7@OnRender
  0001b	83 e8 01	 sub	 eax, 1
  0001e	75 16		 jne	 SHORT $LN2@OnRender

; 983  : 			break;
; 984  : 		case SLOT_STYLE_SELECT:
; 985  : 			OnRenderSelectedSlot();

  00020	8b 07		 mov	 eax, DWORD PTR [edi]
  00022	8b cf		 mov	 ecx, edi
  00024	ff 90 98 00 00
	00		 call	 DWORD PTR [eax+152]
  0002a	eb 0a		 jmp	 SHORT $LN2@OnRender
$LN7@OnRender:

; 980  : 	{
; 981  : 		case SLOT_STYLE_PICK_UP:
; 982  : 			OnRenderPickingSlot();

  0002c	8b 07		 mov	 eax, DWORD PTR [edi]
  0002e	8b cf		 mov	 ecx, edi
  00030	ff 90 94 00 00
	00		 call	 DWORD PTR [eax+148]
$LN2@OnRender:
; File C:\Program Files (x86)\Microsoft Visual Studio\2019\Community\VC\Tools\MSVC\14.28.29333\include\list

; 39   :     _List_unchecked_const_iterator(_Nodeptr _Pnode, const _Mylist* _Plist) noexcept : _Ptr(_Pnode) {

  00036	8b 5f 64	 mov	 ebx, DWORD PTR [edi+100]
  00039	8b 33		 mov	 esi, DWORD PTR [ebx]

; 74   :         return _Ptr == _Right._Ptr;

  0003b	3b f3		 cmp	 esi, ebx
; File C:\Program Files (x86)\Microsoft Visual Studio\2019\Community\VC\Tools\MSVC\14.28.29333\include\algorithm

; 307  :     for (; _UFirst != _ULast; ++_UFirst) {

  0003d	74 0f		 je	 SHORT $LN46@OnRender
  0003f	90		 npad	 1
$LL68@OnRender:
; File D:\Metin2 Server Files\mainline\SRC_2014\Metin2Client\eterBase\Stl.h

; 41   : 		{((_P->*_Ptr)()); }

  00040	8b 4e 08	 mov	 ecx, DWORD PTR [esi+8]
  00043	e8 00 00 00 00	 call	 ??_9CWindow@UI@@$B3AE	; UI::CWindow::`vcall'{4}'
; File C:\Program Files (x86)\Microsoft Visual Studio\2019\Community\VC\Tools\MSVC\14.28.29333\include\list

; 52   :         _Ptr = _Ptr->_Next;

  00048	8b 36		 mov	 esi, DWORD PTR [esi]

; 74   :         return _Ptr == _Right._Ptr;

  0004a	3b f3		 cmp	 esi, ebx
; File C:\Program Files (x86)\Microsoft Visual Studio\2019\Community\VC\Tools\MSVC\14.28.29333\include\algorithm

; 307  :     for (; _UFirst != _ULast; ++_UFirst) {

  0004c	75 f2		 jne	 SHORT $LL68@OnRender
$LN46@OnRender:
; File C:\Program Files (x86)\Microsoft Visual Studio\2019\Community\VC\Tools\MSVC\14.28.29333\include\list

; 1092 :         return iterator(_Mypair._Myval2._Myhead->_Next, _STD addressof(_Mypair._Myval2));

  0004e	8b 87 88 00 00
	00		 mov	 eax, DWORD PTR [edi+136]

; 39   :     _List_unchecked_const_iterator(_Nodeptr _Pnode, const _Mylist* _Plist) noexcept : _Ptr(_Pnode) {

  00054	8b 30		 mov	 esi, DWORD PTR [eax]
  00056	3b f0		 cmp	 esi, eax
; File D:\Metin2 Server Files\mainline\SRC_2014\Metin2Client\eterPythonLib\PythonSlotWindow.cpp

; 1011 : 	for (itor = m_SlotList.begin(); itor != m_SlotList.end(); ++itor)

  00058	0f 84 bc 02 00
	00		 je	 $LN5@OnRender
  0005e	66 90		 npad	 2
$LL96@OnRender:

; 1015 : 		if (rSlot.pSlotButton)

  00060	8b 4e 4c	 mov	 ecx, DWORD PTR [esi+76]
; File C:\Program Files (x86)\Microsoft Visual Studio\2019\Community\VC\Tools\MSVC\14.28.29333\include\list

; 152  :         return this->_Ptr->_Myval;

  00063	8d 5e 08	 lea	 ebx, DWORD PTR [esi+8]
; File D:\Metin2 Server Files\mainline\SRC_2014\Metin2Client\eterPythonLib\PythonSlotWindow.cpp

; 1015 : 		if (rSlot.pSlotButton)

  00066	85 c9		 test	 ecx, ecx
  00068	74 11		 je	 SHORT $LN9@OnRender

; 1016 : 		{
; 1017 : 			rSlot.pSlotButton->SetPosition(rSlot.ixPosition + 1, rSlot.iyPosition + 19);

  0006a	8b 43 24	 mov	 eax, DWORD PTR [ebx+36]
  0006d	83 c0 13	 add	 eax, 19			; 00000013H
  00070	50		 push	 eax
  00071	8b 43 20	 mov	 eax, DWORD PTR [ebx+32]
  00074	40		 inc	 eax
  00075	50		 push	 eax
  00076	e8 00 00 00 00	 call	 ?SetPosition@CWindow@UI@@QAEXJJ@Z ; UI::CWindow::SetPosition
$LN9@OnRender:

; 1018 : 		}
; 1019 : 		if (rSlot.pSignImage)

  0007b	8b 4b 48	 mov	 ecx, DWORD PTR [ebx+72]
  0007e	85 c9		 test	 ecx, ecx
  00080	74 13		 je	 SHORT $LN10@OnRender

; 1020 : 		{
; 1021 : 			rSlot.pSignImage->SetPosition(rSlot.ixPosition - 7, rSlot.iyPosition + 10);

  00082	8b 43 24	 mov	 eax, DWORD PTR [ebx+36]
  00085	83 c0 0a	 add	 eax, 10			; 0000000aH
  00088	50		 push	 eax
  00089	8b 43 20	 mov	 eax, DWORD PTR [ebx+32]
  0008c	83 e8 07	 sub	 eax, 7
  0008f	50		 push	 eax
  00090	e8 00 00 00 00	 call	 ?SetPosition@CWindow@UI@@QAEXJJ@Z ; UI::CWindow::SetPosition
$LN10@OnRender:

; 1022 : 		}
; 1023 : 
; 1024 : 		if (rSlot.pInstance)

  00095	8b 4b 34	 mov	 ecx, DWORD PTR [ebx+52]
  00098	85 c9		 test	 ecx, ecx
  0009a	74 35		 je	 SHORT $LN11@OnRender

; 1025 : 		{
; 1026 : 			rSlot.pInstance->SetPosition(m_rect.left + rSlot.ixPosition, m_rect.top + rSlot.iyPosition);

  0009c	8b 43 24	 mov	 eax, DWORD PTR [ebx+36]
  0009f	83 ec 08	 sub	 esp, 8
  000a2	03 47 38	 add	 eax, DWORD PTR [edi+56]
  000a5	66 0f 6e c0	 movd	 xmm0, eax
  000a9	8b 43 20	 mov	 eax, DWORD PTR [ebx+32]
  000ac	03 47 34	 add	 eax, DWORD PTR [edi+52]
  000af	0f 5b c0	 cvtdq2ps xmm0, xmm0
  000b2	f3 0f 11 44 24
	04		 movss	 DWORD PTR [esp+4], xmm0
  000b8	66 0f 6e c0	 movd	 xmm0, eax
  000bc	0f 5b c0	 cvtdq2ps xmm0, xmm0
  000bf	f3 0f 11 04 24	 movss	 DWORD PTR [esp], xmm0
  000c4	e8 00 00 00 00	 call	 ?SetPosition@CGraphicImageInstance@@QAEXMM@Z ; CGraphicImageInstance::SetPosition

; 1027 : 			rSlot.pInstance->Render();

  000c9	8b 4b 34	 mov	 ecx, DWORD PTR [ebx+52]
  000cc	e8 00 00 00 00	 call	 ?Render@CGraphicImageInstance@@QAEXXZ ; CGraphicImageInstance::Render
$LN11@OnRender:

; 1028 : 		}
; 1029 : 
; 1030 : 		if (!rSlot.isItem)

  000d1	83 7b 10 00	 cmp	 DWORD PTR [ebx+16], 0
  000d5	8b 03		 mov	 eax, DWORD PTR [ebx]
  000d7	75 2b		 jne	 SHORT $LN12@OnRender

; 1031 : 		{
; 1032 : 			if (IS_SET(rSlot.dwState, SLOT_STATE_ALWAYS_RENDER_COVER))

  000d9	a8 08		 test	 al, 8
  000db	0f 84 2b 02 00
	00		 je	 $LN4@OnRender

; 1033 : 			{
; 1034 : 				rSlot.pCoverButton->Show();

  000e1	8b 4b 40	 mov	 ecx, DWORD PTR [ebx+64]
  000e4	e8 00 00 00 00	 call	 ?Show@CWindow@UI@@QAEXXZ ; UI::CWindow::Show

; 1035 : 				rSlot.pCoverButton->SetPosition(rSlot.ixPosition, rSlot.iyPosition);

  000e9	ff 73 24	 push	 DWORD PTR [ebx+36]
  000ec	8b 4b 40	 mov	 ecx, DWORD PTR [ebx+64]
  000ef	ff 73 20	 push	 DWORD PTR [ebx+32]
  000f2	e8 00 00 00 00	 call	 ?SetPosition@CWindow@UI@@QAEXJJ@Z ; UI::CWindow::SetPosition

; 115  : 			CButton::OnRender();

  000f7	8b 4b 40	 mov	 ecx, DWORD PTR [ebx+64]
  000fa	e8 00 00 00 00	 call	 ?OnRender@CButton@UI@@MAEXXZ ; UI::CButton::OnRender

; 1036 : 				rSlot.pCoverButton->RenderButton();
; 1037 : 			}
; 1038 : 
; 1039 : 			continue;

  000ff	e9 08 02 00 00	 jmp	 $LN4@OnRender
$LN12@OnRender:

; 1040 : 		}
; 1041 : 
; 1042 : 		if (IS_SET(rSlot.dwState, SLOT_STATE_DISABLE))

  00104	a8 04		 test	 al, 4
  00106	0f 84 9c 00 00
	00		 je	 $LN14@OnRender

; 1043 : 		{
; 1044 : 			CPythonGraphic::Instance().SetDiffuseColor(1.0f, 0.0f, 0.0f, 0.3f);

  0010c	8b 0d 00 00 00
	00		 mov	 ecx, DWORD PTR ?ms_singleton@?$CSingleton@VCPythonGraphic@@@@0PAVCPythonGraphic@@A ; CSingleton<CPythonGraphic>::ms_singleton
  00112	83 ec 10	 sub	 esp, 16			; 00000010H
  00115	c7 44 24 0c 9a
	99 99 3e	 mov	 DWORD PTR [esp+12], 1050253722 ; 3e99999aH
  0011d	c7 44 24 08 00
	00 00 00	 mov	 DWORD PTR [esp+8], 0
  00125	c7 44 24 04 00
	00 00 00	 mov	 DWORD PTR [esp+4], 0
  0012d	c7 04 24 00 00
	80 3f		 mov	 DWORD PTR [esp], 1065353216 ; 3f800000H
  00134	e8 00 00 00 00	 call	 ?SetDiffuseColor@CScreen@@QAEXMMMM@Z ; CScreen::SetDiffuseColor

; 1045 : 			CPythonGraphic::Instance().RenderBar2d(m_rect.left + rSlot.ixPosition,

  00139	8b 4f 38	 mov	 ecx, DWORD PTR [edi+56]
  0013c	83 ec 14	 sub	 esp, 20			; 00000014H
  0013f	8b 46 34	 mov	 eax, DWORD PTR [esi+52]
  00142	8b 53 24	 mov	 edx, DWORD PTR [ebx+36]
  00145	03 c1		 add	 eax, ecx
  00147	8b 7f 34	 mov	 edi, DWORD PTR [edi+52]
  0014a	03 c2		 add	 eax, edx
  0014c	8b 5b 20	 mov	 ebx, DWORD PTR [ebx+32]
  0014f	c7 44 24 10 00
	00 00 00	 mov	 DWORD PTR [esp+16], 0
  00157	66 0f 6e c0	 movd	 xmm0, eax
  0015b	8b 46 30	 mov	 eax, DWORD PTR [esi+48]
  0015e	0f 5b c0	 cvtdq2ps xmm0, xmm0
  00161	03 c7		 add	 eax, edi
  00163	03 c3		 add	 eax, ebx
  00165	f3 0f 11 44 24
	0c		 movss	 DWORD PTR [esp+12], xmm0
  0016b	66 0f 6e c0	 movd	 xmm0, eax
  0016f	8d 04 11	 lea	 eax, DWORD PTR [ecx+edx]
  00172	8b 0d 00 00 00
	00		 mov	 ecx, DWORD PTR ?ms_singleton@?$CSingleton@VCPythonGraphic@@@@0PAVCPythonGraphic@@A ; CSingleton<CPythonGraphic>::ms_singleton
  00178	0f 5b c0	 cvtdq2ps xmm0, xmm0
  0017b	f3 0f 11 44 24
	08		 movss	 DWORD PTR [esp+8], xmm0
  00181	66 0f 6e c0	 movd	 xmm0, eax
  00185	8d 04 1f	 lea	 eax, DWORD PTR [edi+ebx]
  00188	0f 5b c0	 cvtdq2ps xmm0, xmm0
  0018b	f3 0f 11 44 24
	04		 movss	 DWORD PTR [esp+4], xmm0
  00191	66 0f 6e c0	 movd	 xmm0, eax
  00195	0f 5b c0	 cvtdq2ps xmm0, xmm0
  00198	f3 0f 11 04 24	 movss	 DWORD PTR [esp], xmm0
  0019d	e8 00 00 00 00	 call	 ?RenderBar2d@CScreen@@QAEXMMMMM@Z ; CScreen::RenderBar2d
  001a2	8b 7d f8	 mov	 edi, DWORD PTR _this$1$[ebp]
  001a5	8d 5e 08	 lea	 ebx, DWORD PTR [esi+8]
$LN14@OnRender:

; 1046 : 				m_rect.top + rSlot.iyPosition,
; 1047 : 				m_rect.left + rSlot.ixPosition + rSlot.ixCellSize,
; 1048 : 				m_rect.top + rSlot.iyPosition + rSlot.iyCellSize);
; 1049 : 		}
; 1050 : 
; 1051 : 		if (rSlot.fCoolTime != 0.0f)

  001a8	f3 0f 10 43 14	 movss	 xmm0, DWORD PTR [ebx+20]
  001ad	0f 57 c9	 xorps	 xmm1, xmm1
  001b0	0f 2e c1	 ucomiss xmm0, xmm1
  001b3	9f		 lahf
  001b4	f6 c4 44	 test	 ah, 68			; 00000044H
  001b7	0f 8b a9 00 00
	00		 jnp	 $LN16@OnRender

; 1052 : 		{
; 1053 : 			float fcurTime = CTimer::Instance().GetCurrentSecond();

  001bd	8b 0d 00 00 00
	00		 mov	 ecx, DWORD PTR ?ms_singleton@?$CSingleton@VCTimer@@@@0PAVCTimer@@A ; CSingleton<CTimer>::ms_singleton
  001c3	e8 00 00 00 00	 call	 ?GetCurrentSecond@CTimer@@QAEMXZ ; CTimer::GetCurrentSecond
  001c8	d9 5d fc	 fstp	 DWORD PTR _fcurTime$1[ebp]

; 1054 : 			float fPercentage = (fcurTime - rSlot.fStartCoolTime) / rSlot.fCoolTime;

  001cb	f3 0f 10 45 fc	 movss	 xmm0, DWORD PTR _fcurTime$1[ebp]

; 1055 : 			CPythonGraphic::Instance().RenderCoolTimeBox(m_rect.left + rSlot.ixPosition + 16.0f, m_rect.top + rSlot.iyPosition + 16.0f, 16.0f, fPercentage);

  001d0	83 ec 10	 sub	 esp, 16			; 00000010H
  001d3	f3 0f 5c 43 18	 subss	 xmm0, DWORD PTR [ebx+24]
  001d8	8b 43 24	 mov	 eax, DWORD PTR [ebx+36]
  001db	03 47 38	 add	 eax, DWORD PTR [edi+56]
  001de	8b 0d 00 00 00
	00		 mov	 ecx, DWORD PTR ?ms_singleton@?$CSingleton@VCPythonGraphic@@@@0PAVCPythonGraphic@@A ; CSingleton<CPythonGraphic>::ms_singleton
  001e4	f3 0f 5e 43 14	 divss	 xmm0, DWORD PTR [ebx+20]
  001e9	f3 0f 11 44 24
	0c		 movss	 DWORD PTR [esp+12], xmm0
  001ef	66 0f 6e c0	 movd	 xmm0, eax
  001f3	8b 43 20	 mov	 eax, DWORD PTR [ebx+32]
  001f6	03 47 34	 add	 eax, DWORD PTR [edi+52]
  001f9	0f 5b c0	 cvtdq2ps xmm0, xmm0
  001fc	c7 44 24 08 00
	00 80 41	 mov	 DWORD PTR [esp+8], 1098907648 ; 41800000H
  00204	f3 0f 58 05 00
	00 00 00	 addss	 xmm0, DWORD PTR __real@41800000
  0020c	f3 0f 11 44 24
	04		 movss	 DWORD PTR [esp+4], xmm0
  00212	66 0f 6e c0	 movd	 xmm0, eax
  00216	0f 5b c0	 cvtdq2ps xmm0, xmm0
  00219	f3 0f 58 05 00
	00 00 00	 addss	 xmm0, DWORD PTR __real@41800000
  00221	f3 0f 11 04 24	 movss	 DWORD PTR [esp], xmm0
  00226	e8 00 00 00 00	 call	 ?RenderCoolTimeBox@CPythonGraphic@@QAEXMMMM@Z ; CPythonGraphic::RenderCoolTimeBox

; 1056 : 
; 1057 : 			if (fcurTime - rSlot.fStartCoolTime >= rSlot.fCoolTime)

  0022b	f3 0f 10 45 fc	 movss	 xmm0, DWORD PTR _fcurTime$1[ebp]
  00230	f3 0f 5c 43 18	 subss	 xmm0, DWORD PTR [ebx+24]
  00235	f3 0f 10 4b 14	 movss	 xmm1, DWORD PTR [ebx+20]
  0023a	0f 2f c1	 comiss	 xmm0, xmm1
  0023d	72 27		 jb	 SHORT $LN16@OnRender

; 1058 : 			{
; 1059 : 				//   1 ..
; 1060 : 				if ((fcurTime - rSlot.fStartCoolTime) - rSlot.fCoolTime < 1.0f)

  0023f	f3 0f 5c c1	 subss	 xmm0, xmm1
  00243	f3 0f 10 0d 00
	00 00 00	 movss	 xmm1, DWORD PTR __real@3f800000
  0024b	0f 2f c8	 comiss	 xmm1, xmm0
  0024e	76 08		 jbe	 SHORT $LN17@OnRender

; 1061 : 					__CreateFinishCoolTimeEffect(&rSlot);

  00250	53		 push	 ebx
  00251	8b cf		 mov	 ecx, edi
  00253	e8 00 00 00 00	 call	 ?__CreateFinishCoolTimeEffect@CSlotWindow@UI@@IAEXPAUSSlot@12@@Z ; UI::CSlotWindow::__CreateFinishCoolTimeEffect
$LN17@OnRender:

; 1062 : 
; 1063 : 				rSlot.fCoolTime = 0.0f;

  00258	c7 43 14 00 00
	00 00		 mov	 DWORD PTR [ebx+20], 0

; 1064 : 				rSlot.fStartCoolTime = 0.0f;

  0025f	c7 43 18 00 00
	00 00		 mov	 DWORD PTR [ebx+24], 0
$LN16@OnRender:

; 1065 : 			}
; 1066 : 		}
; 1067 : 
; 1068 : 		if (rSlot.pCoverButton)

  00266	8b 4b 40	 mov	 ecx, DWORD PTR [ebx+64]
  00269	85 c9		 test	 ecx, ecx
  0026b	74 13		 je	 SHORT $LN18@OnRender

; 1069 : 		{
; 1070 : 			rSlot.pCoverButton->SetPosition(rSlot.ixPosition, rSlot.iyPosition);

  0026d	ff 73 24	 push	 DWORD PTR [ebx+36]
  00270	ff 73 20	 push	 DWORD PTR [ebx+32]
  00273	e8 00 00 00 00	 call	 ?SetPosition@CWindow@UI@@QAEXJJ@Z ; UI::CWindow::SetPosition

; 115  : 			CButton::OnRender();

  00278	8b 4b 40	 mov	 ecx, DWORD PTR [ebx+64]
  0027b	e8 00 00 00 00	 call	 ?OnRender@CButton@UI@@MAEXXZ ; UI::CButton::OnRender
$LN18@OnRender:

; 1071 : 			rSlot.pCoverButton->RenderButton();
; 1072 : 		}
; 1073 : 
; 1074 : 		if (rSlot.pNumberLine)

  00280	8b 4b 38	 mov	 ecx, DWORD PTR [ebx+56]
  00283	85 c9		 test	 ecx, ecx
  00285	74 35		 je	 SHORT $LN19@OnRender

; 1075 : 		{
; 1076 : 			int ix = rSlot.byxPlacedItemSize*ITEM_WIDTH + rSlot.ixPosition - 4;
; 1077 : 			int iy = rSlot.iyPosition + rSlot.byyPlacedItemSize*ITEM_HEIGHT - 12 + 2;

  00287	0f b6 53 31	 movzx	 edx, BYTE PTR [ebx+49]
  0028b	8b 43 24	 mov	 eax, DWORD PTR [ebx+36]
  0028e	c1 e2 05	 shl	 edx, 5
  00291	83 c2 f6	 add	 edx, -10		; fffffff6H
  00294	03 c2		 add	 eax, edx
  00296	0f b6 53 30	 movzx	 edx, BYTE PTR [ebx+48]

; 1078 : 			rSlot.pNumberLine->SetPosition(ix, iy);

  0029a	50		 push	 eax
  0029b	8b 43 20	 mov	 eax, DWORD PTR [ebx+32]
  0029e	c1 e2 05	 shl	 edx, 5
  002a1	83 c2 fc	 add	 edx, -4			; fffffffcH
  002a4	03 c2		 add	 eax, edx
  002a6	50		 push	 eax
  002a7	e8 00 00 00 00	 call	 ?SetPosition@CWindow@UI@@QAEXJJ@Z ; UI::CWindow::SetPosition

; 1079 : 			rSlot.pNumberLine->Update();

  002ac	8b 4b 38	 mov	 ecx, DWORD PTR [ebx+56]
  002af	e8 00 00 00 00	 call	 ?Update@CWindow@UI@@QAEXXZ ; UI::CWindow::Update

; 1080 : 			rSlot.pNumberLine->Render();

  002b4	8b 4b 38	 mov	 ecx, DWORD PTR [ebx+56]
  002b7	e8 00 00 00 00	 call	 ?Render@CWindow@UI@@QAEXXZ ; UI::CWindow::Render
$LN19@OnRender:

; 1081 : 		}
; 1082 : 
; 1083 : 		if (rSlot.pFinishCoolTimeEffect)

  002bc	8b 4b 4c	 mov	 ecx, DWORD PTR [ebx+76]
  002bf	85 c9		 test	 ecx, ecx
  002c1	74 1b		 je	 SHORT $LN20@OnRender

; 1084 : 		{
; 1085 : 			rSlot.pFinishCoolTimeEffect->SetPosition(rSlot.ixPosition, rSlot.iyPosition);

  002c3	ff 73 24	 push	 DWORD PTR [ebx+36]
  002c6	ff 73 20	 push	 DWORD PTR [ebx+32]
  002c9	e8 00 00 00 00	 call	 ?SetPosition@CWindow@UI@@QAEXJJ@Z ; UI::CWindow::SetPosition

; 1086 : 			rSlot.pFinishCoolTimeEffect->Update();

  002ce	8b 4b 4c	 mov	 ecx, DWORD PTR [ebx+76]
  002d1	e8 00 00 00 00	 call	 ?Update@CWindow@UI@@QAEXXZ ; UI::CWindow::Update

; 1087 : 			rSlot.pFinishCoolTimeEffect->Render();

  002d6	8b 4b 4c	 mov	 ecx, DWORD PTR [ebx+76]
  002d9	e8 00 00 00 00	 call	 ?Render@CWindow@UI@@QAEXXZ ; UI::CWindow::Render
$LN20@OnRender:

; 1088 : 		}
; 1089 : 
; 1090 : 		if (rSlot.bActive)

  002de	83 7b 1c 00	 cmp	 DWORD PTR [ebx+28], 0
  002e2	74 28		 je	 SHORT $LN4@OnRender

; 1091 : 		if (m_pSlotActiveEffect)

  002e4	8b 8f a4 00 00
	00		 mov	 ecx, DWORD PTR [edi+164]
  002ea	85 c9		 test	 ecx, ecx
  002ec	74 1e		 je	 SHORT $LN4@OnRender

; 1092 : 		{
; 1093 : 			int ix = m_rect.left + rSlot.ixPosition;
; 1094 : 			int iy = m_rect.top + rSlot.iyPosition;

  002ee	8b 43 24	 mov	 eax, DWORD PTR [ebx+36]
  002f1	03 47 38	 add	 eax, DWORD PTR [edi+56]

; 1095 : 			m_pSlotActiveEffect->SetPosition(ix, iy);

  002f4	50		 push	 eax
  002f5	8b 43 20	 mov	 eax, DWORD PTR [ebx+32]
  002f8	03 47 34	 add	 eax, DWORD PTR [edi+52]
  002fb	50		 push	 eax
  002fc	e8 00 00 00 00	 call	 ?SetPosition@CWindow@UI@@QAEXJJ@Z ; UI::CWindow::SetPosition

; 1096 : 			m_pSlotActiveEffect->Render();

  00301	8b 8f a4 00 00
	00		 mov	 ecx, DWORD PTR [edi+164]
  00307	e8 00 00 00 00	 call	 ?Render@CWindow@UI@@QAEXXZ ; UI::CWindow::Render
$LN4@OnRender:
; File C:\Program Files (x86)\Microsoft Visual Studio\2019\Community\VC\Tools\MSVC\14.28.29333\include\list

; 166  :         this->_Ptr = this->_Ptr->_Next;

  0030c	8b 36		 mov	 esi, DWORD PTR [esi]

; 199  :         return this->_Ptr == _Right._Ptr;

  0030e	3b b7 88 00 00
	00		 cmp	 esi, DWORD PTR [edi+136]
; File D:\Metin2 Server Files\mainline\SRC_2014\Metin2Client\eterPythonLib\PythonSlotWindow.cpp

; 1011 : 	for (itor = m_SlotList.begin(); itor != m_SlotList.end(); ++itor)

  00314	0f 85 46 fd ff
	ff		 jne	 $LL96@OnRender
$LN5@OnRender:

; 1097 : 		}
; 1098 : 	}
; 1099 : 
; 1100 : 	RenderLockedSlot();

  0031a	8b cf		 mov	 ecx, edi
  0031c	e8 00 00 00 00	 call	 ?RenderLockedSlot@CSlotWindow@UI@@IAEXXZ ; UI::CSlotWindow::RenderLockedSlot
  00321	5f		 pop	 edi
  00322	5e		 pop	 esi
  00323	5b		 pop	 ebx

; 1101 : }

  00324	8b e5		 mov	 esp, ebp
  00326	5d		 pop	 ebp
  00327	c3		 ret	 0
?OnRender@CSlotWindow@UI@@MAEXXZ ENDP			; UI::CSlotWindow::OnRender
_TEXT	ENDS
; Function compile flags: /Ogtp
; File D:\Metin2 Server Files\mainline\SRC_2014\Metin2Client\eterPythonLib\PythonSlotWindow.cpp
; File C:\Program Files (x86)\Microsoft Visual Studio\2019\Community\VC\Tools\MSVC\14.28.29333\include\deque
; File C:\Program Files (x86)\Microsoft Visual Studio\2019\Community\VC\Tools\MSVC\14.28.29333\include\xmemory
; File C:\Program Files (x86)\Microsoft Visual Studio\2019\Community\VC\Tools\MSVC\14.28.29333\include\deque
; File D:\Metin2 Server Files\mainline\SRC_2014\Metin2Client\eterPythonLib\PythonSlotWindow.cpp
; File C:\Program Files (x86)\Microsoft Visual Studio\2019\Community\VC\Tools\MSVC\14.28.29333\include\xmemory
; File D:\Metin2 Server Files\mainline\SRC_2014\Metin2Client\eterPythonLib\PythonSlotWindow.cpp
; File C:\Program Files (x86)\Microsoft Visual Studio\2019\Community\VC\Tools\MSVC\14.28.29333\include\deque
; File D:\Metin2 Server Files\mainline\SRC_2014\Metin2Client\eterPythonLib\PythonSlotWindow.cpp
; File C:\Program Files (x86)\Microsoft Visual Studio\2019\Community\VC\Tools\MSVC\14.28.29333\include\deque
; File D:\Metin2 Server Files\mainline\SRC_2014\Metin2Client\eterPythonLib\PythonSlotWindow.cpp
; File C:\Program Files (x86)\Microsoft Visual Studio\2019\Community\VC\Tools\MSVC\14.28.29333\include\deque
; File D:\Metin2 Server Files\mainline\SRC_2014\Metin2Client\eterPythonLib\PythonSlotWindow.cpp
; File C:\Program Files (x86)\Microsoft Visual Studio\2019\Community\VC\Tools\MSVC\14.28.29333\include\deque
; File D:\Metin2 Server Files\mainline\SRC_2014\Metin2Client\eterPythonLib\PythonSlotWindow.cpp
;	COMDAT ?OnUpdate@CSlotWindow@UI@@MAEXXZ
_TEXT	SEGMENT
_pSlot$2 = -4						; size = 4
?OnUpdate@CSlotWindow@UI@@MAEXXZ PROC			; UI::CSlotWindow::OnUpdate, COMDAT
; _this$ = ecx

; 958  : {

  00000	55		 push	 ebp
  00001	8b ec		 mov	 ebp, esp
  00003	51		 push	 ecx
  00004	53		 push	 ebx
  00005	56		 push	 esi
  00006	57		 push	 edi
  00007	8b f9		 mov	 edi, ecx
; File C:\Program Files (x86)\Microsoft Visual Studio\2019\Community\VC\Tools\MSVC\14.28.29333\include\deque

; 256  :     _Deque_const_iterator(_Size_type _Off, const _Container_base12* _Pdeque) noexcept : _Myoff(_Off) {

  00009	8b b7 b4 00 00
	00		 mov	 esi, DWORD PTR [edi+180]
; File C:\Program Files (x86)\Microsoft Visual Studio\2019\Community\VC\Tools\MSVC\14.28.29333\include\xmemory

; 1171 :             _Myproxy = _Parent_proxy;

  0000f	8b 9f a8 00 00
	00		 mov	 ebx, DWORD PTR [edi+168]
  00015	66 66 66 0f 1f
	84 00 00 00 00
	00		 npad	 11
$LL67@OnUpdate:
; File C:\Program Files (x86)\Microsoft Visual Studio\2019\Community\VC\Tools\MSVC\14.28.29333\include\deque

; 906  :         return iterator(_Myoff() + _Mysize(), _STD addressof(_Get_data()));

  00020	8b 87 b8 00 00
	00		 mov	 eax, DWORD PTR [edi+184]
  00026	03 87 b4 00 00
	00		 add	 eax, DWORD PTR [edi+180]

; 351  :         return this->_Myoff == _Right._Myoff;

  0002c	3b f0		 cmp	 esi, eax
; File D:\Metin2 Server Files\mainline\SRC_2014\Metin2Client\eterPythonLib\PythonSlotWindow.cpp

; 959  : 	for (std::deque<DWORD>::iterator itor = m_ReserveDestroyEffectDeque.begin(); itor != m_ReserveDestroyEffectDeque.end(); ++itor)

  0002e	74 3f		 je	 SHORT $LN3@OnUpdate
; File C:\Program Files (x86)\Microsoft Visual Studio\2019\Community\VC\Tools\MSVC\14.28.29333\include\xmemory

; 1185 :         return _Myproxy ? _Myproxy->_Mycont : nullptr;

  00030	85 db		 test	 ebx, ebx
  00032	74 04		 je	 SHORT $LN56@OnUpdate
  00034	8b 0b		 mov	 ecx, DWORD PTR [ebx]
  00036	eb 02		 jmp	 SHORT $LN57@OnUpdate
$LN56@OnUpdate:
  00038	33 c9		 xor	 ecx, ecx
$LN57@OnUpdate:
; File D:\Metin2 Server Files\mainline\SRC_2014\Metin2Client\eterPythonLib\PythonSlotWindow.cpp

; 964  : 		if (!GetSlotPointer(dwSlotIndex, &pSlot))

  0003a	8d 45 fc	 lea	 eax, DWORD PTR _pSlot$2[ebp]
; File C:\Program Files (x86)\Microsoft Visual Studio\2019\Community\VC\Tools\MSVC\14.28.29333\include\deque

; 548  :         return (_Off / _DEQUESIZ) & (_Mapsize - 1);

  0003d	8b d6		 mov	 edx, esi
; File D:\Metin2 Server Files\mainline\SRC_2014\Metin2Client\eterPythonLib\PythonSlotWindow.cpp

; 964  : 		if (!GetSlotPointer(dwSlotIndex, &pSlot))

  0003f	50		 push	 eax
; File C:\Program Files (x86)\Microsoft Visual Studio\2019\Community\VC\Tools\MSVC\14.28.29333\include\deque

; 548  :         return (_Off / _DEQUESIZ) & (_Mapsize - 1);

  00040	8b 41 08	 mov	 eax, DWORD PTR [ecx+8]
  00043	48		 dec	 eax
  00044	c1 ea 02	 shr	 edx, 2
  00047	23 d0		 and	 edx, eax
; File D:\Metin2 Server Files\mainline\SRC_2014\Metin2Client\eterPythonLib\PythonSlotWindow.cpp

; 964  : 		if (!GetSlotPointer(dwSlotIndex, &pSlot))

  00049	8b 41 04	 mov	 eax, DWORD PTR [ecx+4]
; File C:\Program Files (x86)\Microsoft Visual Studio\2019\Community\VC\Tools\MSVC\14.28.29333\include\deque

; 269  :         _Size_type _Off   = _Myoff % _DEQUESIZ;

  0004c	8b ce		 mov	 ecx, esi
  0004e	83 e1 03	 and	 ecx, 3
; File D:\Metin2 Server Files\mainline\SRC_2014\Metin2Client\eterPythonLib\PythonSlotWindow.cpp

; 964  : 		if (!GetSlotPointer(dwSlotIndex, &pSlot))

  00051	8b 04 90	 mov	 eax, DWORD PTR [eax+edx*4]
  00054	ff 34 88	 push	 DWORD PTR [eax+ecx*4]
  00057	8b cf		 mov	 ecx, edi
  00059	e8 00 00 00 00	 call	 ?GetSlotPointer@CSlotWindow@UI@@IAEHKPAPAUSSlot@12@@Z ; UI::CSlotWindow::GetSlotPointer
  0005e	85 c0		 test	 eax, eax
  00060	74 0a		 je	 SHORT $LN2@OnUpdate

; 965  : 			continue;
; 966  : 
; 967  : 		__DestroyFinishCoolTimeEffect(pSlot);

  00062	ff 75 fc	 push	 DWORD PTR _pSlot$2[ebp]
  00065	8b cf		 mov	 ecx, edi
  00067	e8 00 00 00 00	 call	 ?__DestroyFinishCoolTimeEffect@CSlotWindow@UI@@IAEXPAUSSlot@12@@Z ; UI::CSlotWindow::__DestroyFinishCoolTimeEffect
$LN2@OnUpdate:
; File C:\Program Files (x86)\Microsoft Visual Studio\2019\Community\VC\Tools\MSVC\14.28.29333\include\deque

; 284  :         ++_Myoff;

  0006c	46		 inc	 esi
  0006d	eb b1		 jmp	 SHORT $LL67@OnUpdate
$LN3@OnUpdate:

; 1330 :         _Tidy();

  0006f	8d 8f a8 00 00
	00		 lea	 ecx, DWORD PTR [edi+168]
  00075	e8 00 00 00 00	 call	 ?_Tidy@?$deque@KV?$allocator@K@std@@@std@@AAEXXZ ; std::deque<unsigned long,std::allocator<unsigned long> >::_Tidy
; File D:\Metin2 Server Files\mainline\SRC_2014\Metin2Client\eterPythonLib\PythonSlotWindow.cpp

; 971  : 	if (m_pSlotActiveEffect)

  0007a	8b 8f a4 00 00
	00		 mov	 ecx, DWORD PTR [edi+164]
  00080	5f		 pop	 edi
  00081	5e		 pop	 esi
  00082	5b		 pop	 ebx
  00083	85 c9		 test	 ecx, ecx
  00085	74 05		 je	 SHORT $LN6@OnUpdate

; 972  : 		m_pSlotActiveEffect->Update();

  00087	e8 00 00 00 00	 call	 ?Update@CWindow@UI@@QAEXXZ ; UI::CWindow::Update
$LN6@OnUpdate:

; 973  : }

  0008c	8b e5		 mov	 esp, ebp
  0008e	5d		 pop	 ebp
  0008f	c3		 ret	 0
?OnUpdate@CSlotWindow@UI@@MAEXXZ ENDP			; UI::CSlotWindow::OnUpdate
_TEXT	ENDS
; Function compile flags: /Ogtp
; File D:\Metin2 Server Files\mainline\SRC_2014\Metin2Client\eterPythonLib\PythonSlotWindow.cpp
;	COMDAT ?__DestroyBaseImage@CSlotWindow@UI@@IAEXXZ
_TEXT	SEGMENT
?__DestroyBaseImage@CSlotWindow@UI@@IAEXXZ PROC		; UI::CSlotWindow::__DestroyBaseImage, COMDAT
; _this$ = ecx

; 1372 : {

  00000	56		 push	 esi
  00001	8b f1		 mov	 esi, ecx

; 1373 : 	if (m_pBaseImageInstance)

  00003	8b 86 9c 00 00
	00		 mov	 eax, DWORD PTR [esi+156]
  00009	85 c0		 test	 eax, eax
  0000b	74 13		 je	 SHORT $LN2@DestroyBas

; 1374 : 	{
; 1375 : 		CGraphicImageInstance::Delete(m_pBaseImageInstance);

  0000d	50		 push	 eax
  0000e	e8 00 00 00 00	 call	 ?Delete@CGraphicImageInstance@@SAXPAV1@@Z ; CGraphicImageInstance::Delete
  00013	83 c4 04	 add	 esp, 4

; 1376 : 		m_pBaseImageInstance = NULL;

  00016	c7 86 9c 00 00
	00 00 00 00 00	 mov	 DWORD PTR [esi+156], 0
$LN2@DestroyBas:

; 1377 : 	}
; 1378 : }

  00020	5e		 pop	 esi
  00021	c3		 ret	 0
?__DestroyBaseImage@CSlotWindow@UI@@IAEXXZ ENDP		; UI::CSlotWindow::__DestroyBaseImage
_TEXT	ENDS
; Function compile flags: /Ogtp
; File D:\Metin2 Server Files\mainline\SRC_2014\Metin2Client\eterPythonLib\PythonSlotWindow.cpp
;	COMDAT ?__DestroyFinishCoolTimeEffect@CSlotWindow@UI@@IAEXPAUSSlot@12@@Z
_TEXT	SEGMENT
_pSlot$ = 8						; size = 4
?__DestroyFinishCoolTimeEffect@CSlotWindow@UI@@IAEXPAUSSlot@12@@Z PROC ; UI::CSlotWindow::__DestroyFinishCoolTimeEffect, COMDAT
; _this$ = ecx

; 1363 : {

  00000	55		 push	 ebp
  00001	8b ec		 mov	 ebp, esp
  00003	56		 push	 esi

; 1364 : 	if (pSlot->pFinishCoolTimeEffect)

  00004	8b 75 08	 mov	 esi, DWORD PTR _pSlot$[ebp]
  00007	8b 4e 4c	 mov	 ecx, DWORD PTR [esi+76]
  0000a	85 c9		 test	 ecx, ecx
  0000c	74 0d		 je	 SHORT $LN2@DestroyFin

; 1365 : 	{
; 1366 : 		delete pSlot->pFinishCoolTimeEffect;

  0000e	8b 01		 mov	 eax, DWORD PTR [ecx]
  00010	6a 01		 push	 1
  00012	ff 10		 call	 DWORD PTR [eax]

; 1367 : 		pSlot->pFinishCoolTimeEffect = NULL;

  00014	c7 46 4c 00 00
	00 00		 mov	 DWORD PTR [esi+76], 0
$LN2@DestroyFin:
  0001b	5e		 pop	 esi

; 1368 : 	}
; 1369 : }

  0001c	5d		 pop	 ebp
  0001d	c2 04 00	 ret	 4
?__DestroyFinishCoolTimeEffect@CSlotWindow@UI@@IAEXPAUSSlot@12@@Z ENDP ; UI::CSlotWindow::__DestroyFinishCoolTimeEffect
_TEXT	ENDS
; Function compile flags: /Ogtp
; File D:\Metin2 Server Files\mainline\SRC_2014\Metin2Client\eterPythonLib\PythonSlotWindow.cpp
;	COMDAT ?__DestroySlotEnableEffect@CSlotWindow@UI@@IAEXXZ
_TEXT	SEGMENT
?__DestroySlotEnableEffect@CSlotWindow@UI@@IAEXXZ PROC	; UI::CSlotWindow::__DestroySlotEnableEffect, COMDAT
; _this$ = ecx

; 1354 : {

  00000	56		 push	 esi
  00001	8b f1		 mov	 esi, ecx

; 1355 : 	if (m_pSlotActiveEffect)

  00003	8b 8e a4 00 00
	00		 mov	 ecx, DWORD PTR [esi+164]
  00009	85 c9		 test	 ecx, ecx
  0000b	74 10		 je	 SHORT $LN2@DestroySlo

; 1356 : 	{
; 1357 : 		delete m_pSlotActiveEffect;

  0000d	8b 01		 mov	 eax, DWORD PTR [ecx]
  0000f	6a 01		 push	 1
  00011	ff 10		 call	 DWORD PTR [eax]

; 1358 : 		m_pSlotActiveEffect = NULL;

  00013	c7 86 a4 00 00
	00 00 00 00 00	 mov	 DWORD PTR [esi+164], 0
$LN2@DestroySlo:

; 1359 : 	}
; 1360 : }

  0001d	5e		 pop	 esi
  0001e	c3		 ret	 0
?__DestroySlotEnableEffect@CSlotWindow@UI@@IAEXXZ ENDP	; UI::CSlotWindow::__DestroySlotEnableEffect
_TEXT	ENDS
; Function compile flags: /Ogtp
; File D:\Metin2 Server Files\mainline\SRC_2014\Metin2Client\eterPythonLib\PythonSlotWindow.cpp
;	COMDAT ?__DestroyToggleSlotImage@CSlotWindow@UI@@IAEXXZ
_TEXT	SEGMENT
?__DestroyToggleSlotImage@CSlotWindow@UI@@IAEXXZ PROC	; UI::CSlotWindow::__DestroyToggleSlotImage, COMDAT
; _this$ = ecx

; 1345 : {

  00000	56		 push	 esi
  00001	8b f1		 mov	 esi, ecx

; 1346 : 	if (m_pToggleSlotImage)

  00003	8b 8e a0 00 00
	00		 mov	 ecx, DWORD PTR [esi+160]
  00009	85 c9		 test	 ecx, ecx
  0000b	74 10		 je	 SHORT $LN2@DestroyTog

; 1347 : 	{
; 1348 : 		delete m_pToggleSlotImage;

  0000d	8b 01		 mov	 eax, DWORD PTR [ecx]
  0000f	6a 01		 push	 1
  00011	ff 10		 call	 DWORD PTR [eax]

; 1349 : 		m_pToggleSlotImage = NULL;

  00013	c7 86 a0 00 00
	00 00 00 00 00	 mov	 DWORD PTR [esi+160], 0
$LN2@DestroyTog:

; 1350 : 	}
; 1351 : }

  0001d	5e		 pop	 esi
  0001e	c3		 ret	 0
?__DestroyToggleSlotImage@CSlotWindow@UI@@IAEXXZ ENDP	; UI::CSlotWindow::__DestroyToggleSlotImage
_TEXT	ENDS
; Function compile flags: /Ogtp
; File D:\Metin2 Server Files\mainline\SRC_2014\Metin2Client\eterPythonLib\PythonSlotWindow.cpp
;	COMDAT ?__CreateBaseImage@CSlotWindow@UI@@IAEXPBDMMMM@Z
_TEXT	SEGMENT
_c_szFileName$ = 8					; size = 4
_fr$ = 12						; size = 4
_fg$ = 16						; size = 4
_fb$ = 20						; size = 4
_fa$ = 24						; size = 4
?__CreateBaseImage@CSlotWindow@UI@@IAEXPBDMMMM@Z PROC	; UI::CSlotWindow::__CreateBaseImage, COMDAT
; _this$ = ecx

; 1335 : {

  00000	55		 push	 ebp
  00001	8b ec		 mov	 ebp, esp
  00003	56		 push	 esi
  00004	57		 push	 edi
  00005	8b f9		 mov	 edi, ecx

; 1336 : 	__DestroyBaseImage();

  00007	e8 00 00 00 00	 call	 ?__DestroyBaseImage@CSlotWindow@UI@@IAEXXZ ; UI::CSlotWindow::__DestroyBaseImage

; 1337 : 
; 1338 : 	CGraphicImage * pImage = (CGraphicImage *)CResourceManager::Instance().GetResourcePointer(c_szFileName);

  0000c	ff 75 08	 push	 DWORD PTR _c_szFileName$[ebp]
  0000f	8b 0d 00 00 00
	00		 mov	 ecx, DWORD PTR ?ms_singleton@?$CSingleton@VCResourceManager@@@@0PAVCResourceManager@@A ; CSingleton<CResourceManager>::ms_singleton
  00015	e8 00 00 00 00	 call	 ?GetResourcePointer@CResourceManager@@QAEPAVCResource@@PBD@Z ; CResourceManager::GetResourcePointer
  0001a	8b f0		 mov	 esi, eax

; 1339 : 	m_pBaseImageInstance = CGraphicImageInstance::New();

  0001c	e8 00 00 00 00	 call	 ?New@CGraphicImageInstance@@SAPAV1@XZ ; CGraphicImageInstance::New

; 1340 : 	m_pBaseImageInstance->SetImagePointer(pImage);

  00021	56		 push	 esi
  00022	8b c8		 mov	 ecx, eax
  00024	89 87 9c 00 00
	00		 mov	 DWORD PTR [edi+156], eax
  0002a	e8 00 00 00 00	 call	 ?SetImagePointer@CGraphicImageInstance@@QAEXPAVCGraphicImage@@@Z ; CGraphicImageInstance::SetImagePointer

; 1341 : 	m_pBaseImageInstance->SetDiffuseColor(fr, fg, fb, fa);

  0002f	f3 0f 10 45 18	 movss	 xmm0, DWORD PTR _fa$[ebp]
  00034	83 ec 10	 sub	 esp, 16			; 00000010H
  00037	8b 8f 9c 00 00
	00		 mov	 ecx, DWORD PTR [edi+156]
  0003d	f3 0f 11 44 24
	0c		 movss	 DWORD PTR [esp+12], xmm0
  00043	f3 0f 10 45 14	 movss	 xmm0, DWORD PTR _fb$[ebp]
  00048	f3 0f 11 44 24
	08		 movss	 DWORD PTR [esp+8], xmm0
  0004e	f3 0f 10 45 10	 movss	 xmm0, DWORD PTR _fg$[ebp]
  00053	f3 0f 11 44 24
	04		 movss	 DWORD PTR [esp+4], xmm0
  00059	f3 0f 10 45 0c	 movss	 xmm0, DWORD PTR _fr$[ebp]
  0005e	f3 0f 11 04 24	 movss	 DWORD PTR [esp], xmm0
  00063	e8 00 00 00 00	 call	 ?SetDiffuseColor@CGraphicImageInstance@@QAEXMMMM@Z ; CGraphicImageInstance::SetDiffuseColor
  00068	5f		 pop	 edi
  00069	5e		 pop	 esi

; 1342 : }

  0006a	5d		 pop	 ebp
  0006b	c2 14 00	 ret	 20			; 00000014H
?__CreateBaseImage@CSlotWindow@UI@@IAEXPBDMMMM@Z ENDP	; UI::CSlotWindow::__CreateBaseImage
_TEXT	ENDS
; Function compile flags: /Ogtp
; File D:\Metin2 Server Files\mainline\SRC_2014\Metin2Client\eterPythonLib\PythonSlotWindow.cpp
;	COMDAT ?__CreateFinishCoolTimeEffect@CSlotWindow@UI@@IAEXPAUSSlot@12@@Z
_TEXT	SEGMENT
_this$1$ = -16						; size = 4
__$EHRec$ = -12						; size = 12
$T2 = 8							; size = 4
_pSlot$ = 8						; size = 4
?__CreateFinishCoolTimeEffect@CSlotWindow@UI@@IAEXPAUSSlot@12@@Z PROC ; UI::CSlotWindow::__CreateFinishCoolTimeEffect, COMDAT
; _this$ = ecx

; 1311 : {

  00000	55		 push	 ebp
  00001	8b ec		 mov	 ebp, esp
  00003	6a ff		 push	 -1
  00005	68 00 00 00 00	 push	 __ehhandler$?__CreateFinishCoolTimeEffect@CSlotWindow@UI@@IAEXPAUSSlot@12@@Z
  0000a	64 a1 00 00 00
	00		 mov	 eax, DWORD PTR fs:0
  00010	50		 push	 eax
  00011	51		 push	 ecx
  00012	53		 push	 ebx
  00013	56		 push	 esi
  00014	57		 push	 edi
  00015	a1 00 00 00 00	 mov	 eax, DWORD PTR ___security_cookie
  0001a	33 c5		 xor	 eax, ebp
  0001c	50		 push	 eax
  0001d	8d 45 f4	 lea	 eax, DWORD PTR __$EHRec$[ebp]
  00020	64 a3 00 00 00
	00		 mov	 DWORD PTR fs:0, eax
  00026	8b c1		 mov	 eax, ecx
  00028	89 45 f0	 mov	 DWORD PTR _this$1$[ebp], eax

; 1312 : 	__DestroyFinishCoolTimeEffect(pSlot);

  0002b	8b 5d 08	 mov	 ebx, DWORD PTR _pSlot$[ebp]
  0002e	53		 push	 ebx
  0002f	e8 00 00 00 00	 call	 ?__DestroyFinishCoolTimeEffect@CSlotWindow@UI@@IAEXPAUSSlot@12@@Z ; UI::CSlotWindow::__DestroyFinishCoolTimeEffect

; 1313 : 
; 1314 : 	CAniImageBox * pFinishCoolTimeEffect = new CCoolTimeFinishEffect(this, pSlot->dwSlotNumber);

  00034	68 8c 00 00 00	 push	 140			; 0000008cH
  00039	e8 00 00 00 00	 call	 ??2@YAPAXI@Z		; operator new
  0003e	8b f8		 mov	 edi, eax
  00040	83 c4 04	 add	 esp, 4
  00043	89 7d 08	 mov	 DWORD PTR $T2[ebp], edi
  00046	c7 45 fc 00 00
	00 00		 mov	 DWORD PTR __$EHRec$[ebp+8], 0
  0004d	85 ff		 test	 edi, edi
  0004f	74 20		 je	 SHORT $LN3@CreateFini
  00051	8b 73 04	 mov	 esi, DWORD PTR [ebx+4]

; 178  : 		CCoolTimeFinishEffect(CSlotWindow * pParent, DWORD dwSlotIndex) : CAniImageBox(NULL)

  00054	8b cf		 mov	 ecx, edi
  00056	6a 00		 push	 0
  00058	e8 00 00 00 00	 call	 ??0CAniImageBox@UI@@QAE@PAU_object@@@Z ; UI::CAniImageBox::CAniImageBox

; 179  : 		{
; 180  : 			m_pParent = pParent;

  0005d	8b 45 f0	 mov	 eax, DWORD PTR _this$1$[ebp]
  00060	c7 07 00 00 00
	00		 mov	 DWORD PTR [edi], OFFSET ??_7CCoolTimeFinishEffect@CSlotWindow@UI@@6B@
  00066	89 47 60	 mov	 DWORD PTR [edi+96], eax

; 181  : 			m_dwSlotIndex = dwSlotIndex;

  00069	89 b7 88 00 00
	00		 mov	 DWORD PTR [edi+136], esi

; 1313 : 
; 1314 : 	CAniImageBox * pFinishCoolTimeEffect = new CCoolTimeFinishEffect(this, pSlot->dwSlotNumber);

  0006f	eb 02		 jmp	 SHORT $LN4@CreateFini
$LN3@CreateFini:
  00071	33 ff		 xor	 edi, edi
$LN4@CreateFini:

; 1315 : 	pFinishCoolTimeEffect->AppendImage("d:/ymir work/ui/public/slotfinishcooltimeeffect/00.sub");

  00073	68 00 00 00 00	 push	 OFFSET ??_C@_0DH@EECLJILE@d?3?1ymir?5work?1ui?1public?1slotfini@
  00078	8b cf		 mov	 ecx, edi
  0007a	c7 45 fc ff ff
	ff ff		 mov	 DWORD PTR __$EHRec$[ebp+8], -1
  00081	e8 00 00 00 00	 call	 ?AppendImage@CAniImageBox@UI@@QAEXPBD@Z ; UI::CAniImageBox::AppendImage

; 1316 : 	pFinishCoolTimeEffect->AppendImage("d:/ymir work/ui/public/slotfinishcooltimeeffect/01.sub");

  00086	68 00 00 00 00	 push	 OFFSET ??_C@_0DH@IPHHELBB@d?3?1ymir?5work?1ui?1public?1slotfini@
  0008b	8b cf		 mov	 ecx, edi
  0008d	e8 00 00 00 00	 call	 ?AppendImage@CAniImageBox@UI@@QAEXPBD@Z ; UI::CAniImageBox::AppendImage

; 1317 : 	pFinishCoolTimeEffect->AppendImage("d:/ymir work/ui/public/slotfinishcooltimeeffect/02.sub");

  00092	68 00 00 00 00	 push	 OFFSET ??_C@_0DH@JODDJLP@d?3?1ymir?5work?1ui?1public?1slotfini@
  00097	8b cf		 mov	 ecx, edi
  00099	e8 00 00 00 00	 call	 ?AppendImage@CAniImageBox@UI@@QAEXPBD@Z ; UI::CAniImageBox::AppendImage

; 1318 : 	pFinishCoolTimeEffect->AppendImage("d:/ymir work/ui/public/slotfinishcooltimeeffect/03.sub");

  0009e	68 00 00 00 00	 push	 OFFSET ??_C@_0DH@MCLPOKBK@d?3?1ymir?5work?1ui?1public?1slotfini@
  000a3	8b cf		 mov	 ecx, edi
  000a5	e8 00 00 00 00	 call	 ?AppendImage@CAniImageBox@UI@@QAEXPBD@Z ; UI::CAniImageBox::AppendImage

; 1319 : 	pFinishCoolTimeEffect->AppendImage("d:/ymir work/ui/public/slotfinishcooltimeeffect/04.sub");

  000aa	68 00 00 00 00	 push	 OFFSET ??_C@_0DH@NPLKNKKC@d?3?1ymir?5work?1ui?1public?1slotfini@
  000af	8b cf		 mov	 ecx, edi
  000b1	e8 00 00 00 00	 call	 ?AppendImage@CAniImageBox@UI@@QAEXPBD@Z ; UI::CAniImageBox::AppendImage

; 1320 : 	pFinishCoolTimeEffect->AppendImage("d:/ymir work/ui/public/slotfinishcooltimeeffect/05.sub");

  000b6	68 00 00 00 00	 push	 OFFSET ??_C@_0DH@BEOGAJAH@d?3?1ymir?5work?1ui?1public?1slotfini@
  000bb	8b cf		 mov	 ecx, edi
  000bd	e8 00 00 00 00	 call	 ?AppendImage@CAniImageBox@UI@@QAEXPBD@Z ; UI::CAniImageBox::AppendImage

; 1321 : 	pFinishCoolTimeEffect->AppendImage("d:/ymir work/ui/public/slotfinishcooltimeeffect/06.sub");

  000c2	68 00 00 00 00	 push	 OFFSET ??_C@_0DH@JCHCHLKJ@d?3?1ymir?5work?1ui?1public?1slotfini@
  000c7	8b cf		 mov	 ecx, edi
  000c9	e8 00 00 00 00	 call	 ?AppendImage@CAniImageBox@UI@@QAEXPBD@Z ; UI::CAniImageBox::AppendImage

; 1322 : 	pFinishCoolTimeEffect->AppendImage("d:/ymir work/ui/public/slotfinishcooltimeeffect/07.sub");

  000ce	68 00 00 00 00	 push	 OFFSET ??_C@_0DH@FJCOKIAM@d?3?1ymir?5work?1ui?1public?1slotfini@
  000d3	8b cf		 mov	 ecx, edi
  000d5	e8 00 00 00 00	 call	 ?AppendImage@CAniImageBox@UI@@QAEXPBD@Z ; UI::CAniImageBox::AppendImage

; 1323 : 	pFinishCoolTimeEffect->AppendImage("d:/ymir work/ui/public/slotfinishcooltimeeffect/08.sub");

  000da	68 00 00 00 00	 push	 OFFSET ??_C@_0DH@KIHIBKNJ@d?3?1ymir?5work?1ui?1public?1slotfini@
  000df	8b cf		 mov	 ecx, edi
  000e1	e8 00 00 00 00	 call	 ?AppendImage@CAniImageBox@UI@@QAEXPBD@Z ; UI::CAniImageBox::AppendImage

; 1324 : 	pFinishCoolTimeEffect->AppendImage("d:/ymir work/ui/public/slotfinishcooltimeeffect/09.sub");

  000e6	68 00 00 00 00	 push	 OFFSET ??_C@_0DH@GDCEMJHM@d?3?1ymir?5work?1ui?1public?1slotfini@
  000eb	8b cf		 mov	 ecx, edi
  000ed	e8 00 00 00 00	 call	 ?AppendImage@CAniImageBox@UI@@QAEXPBD@Z ; UI::CAniImageBox::AppendImage

; 1325 : 	pFinishCoolTimeEffect->AppendImage("d:/ymir work/ui/public/slotfinishcooltimeeffect/10.sub");

  000f2	68 00 00 00 00	 push	 OFFSET ??_C@_0DH@OCFMJDAA@d?3?1ymir?5work?1ui?1public?1slotfini@
  000f7	8b cf		 mov	 ecx, edi
  000f9	e8 00 00 00 00	 call	 ?AppendImage@CAniImageBox@UI@@QAEXPBD@Z ; UI::CAniImageBox::AppendImage

; 1326 : 	pFinishCoolTimeEffect->SetRenderingMode(CGraphicExpandedImageInstance::RENDERING_MODE_SCREEN);

  000fe	6a 01		 push	 1
  00100	8b cf		 mov	 ecx, edi
  00102	e8 00 00 00 00	 call	 ?SetRenderingMode@CAniImageBox@UI@@QAEXH@Z ; UI::CAniImageBox::SetRenderingMode

; 1327 : 	pFinishCoolTimeEffect->ResetFrame();

  00107	8b cf		 mov	 ecx, edi
  00109	e8 00 00 00 00	 call	 ?ResetFrame@CAniImageBox@UI@@QAEXXZ ; UI::CAniImageBox::ResetFrame

; 1328 : 	pFinishCoolTimeEffect->SetDelay(2);

  0010e	6a 02		 push	 2
  00110	8b cf		 mov	 ecx, edi
  00112	e8 00 00 00 00	 call	 ?SetDelay@CAniImageBox@UI@@QAEXH@Z ; UI::CAniImageBox::SetDelay

; 1329 : 	pFinishCoolTimeEffect->Show();

  00117	8b cf		 mov	 ecx, edi
  00119	e8 00 00 00 00	 call	 ?Show@CWindow@UI@@QAEXXZ ; UI::CWindow::Show

; 1330 : 
; 1331 : 	pSlot->pFinishCoolTimeEffect = pFinishCoolTimeEffect;

  0011e	89 7b 4c	 mov	 DWORD PTR [ebx+76], edi

; 1332 : }

  00121	8b 4d f4	 mov	 ecx, DWORD PTR __$EHRec$[ebp]
  00124	64 89 0d 00 00
	00 00		 mov	 DWORD PTR fs:0, ecx
  0012b	59		 pop	 ecx
  0012c	5f		 pop	 edi
  0012d	5e		 pop	 esi
  0012e	5b		 pop	 ebx
  0012f	8b e5		 mov	 esp, ebp
  00131	5d		 pop	 ebp
  00132	c2 04 00	 ret	 4
_TEXT	ENDS
;	COMDAT text$x
text$x	SEGMENT
__unwindfunclet$?__CreateFinishCoolTimeEffect@CSlotWindow@UI@@IAEXPAUSSlot@12@@Z$0:
  00000	68 8c 00 00 00	 push	 140			; 0000008cH
  00005	8b 45 08	 mov	 eax, DWORD PTR $T2[ebp]
  00008	50		 push	 eax
  00009	e8 00 00 00 00	 call	 ??3@YAXPAXI@Z		; operator delete
  0000e	83 c4 08	 add	 esp, 8
  00011	c3		 ret	 0
  00012	cc		 int	 3
  00013	cc		 int	 3
  00014	cc		 int	 3
  00015	cc		 int	 3
  00016	cc		 int	 3
__ehhandler$?__CreateFinishCoolTimeEffect@CSlotWindow@UI@@IAEXPAUSSlot@12@@Z:
  00017	90		 npad	 1
  00018	90		 npad	 1
  00019	8b 54 24 08	 mov	 edx, DWORD PTR [esp+8]
  0001d	8d 42 0c	 lea	 eax, DWORD PTR [edx+12]
  00020	8b 4a ec	 mov	 ecx, DWORD PTR [edx-20]
  00023	33 c8		 xor	 ecx, eax
  00025	e8 00 00 00 00	 call	 @__security_check_cookie@4
  0002a	b8 00 00 00 00	 mov	 eax, OFFSET __ehfuncinfo$?__CreateFinishCoolTimeEffect@CSlotWindow@UI@@IAEXPAUSSlot@12@@Z
  0002f	e9 00 00 00 00	 jmp	 ___CxxFrameHandler3
text$x	ENDS
?__CreateFinishCoolTimeEffect@CSlotWindow@UI@@IAEXPAUSSlot@12@@Z ENDP ; UI::CSlotWindow::__CreateFinishCoolTimeEffect
; Function compile flags: /Ogtp
; File D:\Metin2 Server Files\mainline\SRC_2014\Metin2Client\eterPythonLib\PythonSlotWindow.cpp
;	COMDAT ?__CreateSlotEnableEffect@CSlotWindow@UI@@IAEXXZ
_TEXT	SEGMENT
$T2 = -16						; size = 4
__$EHRec$ = -12						; size = 12
?__CreateSlotEnableEffect@CSlotWindow@UI@@IAEXXZ PROC	; UI::CSlotWindow::__CreateSlotEnableEffect, COMDAT
; _this$ = ecx

; 1289 : {

  00000	55		 push	 ebp
  00001	8b ec		 mov	 ebp, esp
  00003	6a ff		 push	 -1
  00005	68 00 00 00 00	 push	 __ehhandler$?__CreateSlotEnableEffect@CSlotWindow@UI@@IAEXXZ
  0000a	64 a1 00 00 00
	00		 mov	 eax, DWORD PTR fs:0
  00010	50		 push	 eax
  00011	51		 push	 ecx
  00012	56		 push	 esi
  00013	a1 00 00 00 00	 mov	 eax, DWORD PTR ___security_cookie
  00018	33 c5		 xor	 eax, ebp
  0001a	50		 push	 eax
  0001b	8d 45 f4	 lea	 eax, DWORD PTR __$EHRec$[ebp]
  0001e	64 a3 00 00 00
	00		 mov	 DWORD PTR fs:0, eax
  00024	8b f1		 mov	 esi, ecx

; 1290 : 	__DestroySlotEnableEffect();

  00026	e8 00 00 00 00	 call	 ?__DestroySlotEnableEffect@CSlotWindow@UI@@IAEXXZ ; UI::CSlotWindow::__DestroySlotEnableEffect

; 1291 : 
; 1292 : 	m_pSlotActiveEffect = new CAniImageBox(NULL);

  0002b	68 88 00 00 00	 push	 136			; 00000088H
  00030	e8 00 00 00 00	 call	 ??2@YAPAXI@Z		; operator new
  00035	83 c4 04	 add	 esp, 4
  00038	89 45 f0	 mov	 DWORD PTR $T2[ebp], eax
  0003b	c7 45 fc 00 00
	00 00		 mov	 DWORD PTR __$EHRec$[ebp+8], 0
  00042	85 c0		 test	 eax, eax
  00044	74 0b		 je	 SHORT $LN3@CreateSlot
  00046	6a 00		 push	 0
  00048	8b c8		 mov	 ecx, eax
  0004a	e8 00 00 00 00	 call	 ??0CAniImageBox@UI@@QAE@PAU_object@@@Z ; UI::CAniImageBox::CAniImageBox
  0004f	eb 02		 jmp	 SHORT $LN4@CreateSlot
$LN3@CreateSlot:
  00051	33 c0		 xor	 eax, eax
$LN4@CreateSlot:

; 1293 : 	m_pSlotActiveEffect->AppendImage("d:/ymir work/ui/public/slotactiveeffect/00.sub");

  00053	68 00 00 00 00	 push	 OFFSET ??_C@_0CP@LLEDDNBJ@d?3?1ymir?5work?1ui?1public?1slotacti@
  00058	8b c8		 mov	 ecx, eax
  0005a	c7 45 fc ff ff
	ff ff		 mov	 DWORD PTR __$EHRec$[ebp+8], -1
  00061	89 86 a4 00 00
	00		 mov	 DWORD PTR [esi+164], eax
  00067	e8 00 00 00 00	 call	 ?AppendImage@CAniImageBox@UI@@QAEXPBD@Z ; UI::CAniImageBox::AppendImage

; 1294 : 	m_pSlotActiveEffect->AppendImage("d:/ymir work/ui/public/slotactiveeffect/01.sub");

  0006c	8b 8e a4 00 00
	00		 mov	 ecx, DWORD PTR [esi+164]
  00072	68 00 00 00 00	 push	 OFFSET ??_C@_0CP@HABPOOLM@d?3?1ymir?5work?1ui?1public?1slotacti@
  00077	e8 00 00 00 00	 call	 ?AppendImage@CAniImageBox@UI@@QAEXPBD@Z ; UI::CAniImageBox::AppendImage

; 1295 : 	m_pSlotActiveEffect->AppendImage("d:/ymir work/ui/public/slotactiveeffect/02.sub");

  0007c	8b 8e a4 00 00
	00		 mov	 ecx, DWORD PTR [esi+164]
  00082	68 00 00 00 00	 push	 OFFSET ??_C@_0CP@PGILJMBC@d?3?1ymir?5work?1ui?1public?1slotacti@
  00087	e8 00 00 00 00	 call	 ?AppendImage@CAniImageBox@UI@@QAEXPBD@Z ; UI::CAniImageBox::AppendImage

; 1296 : 	m_pSlotActiveEffect->AppendImage("d:/ymir work/ui/public/slotactiveeffect/03.sub");

  0008c	8b 8e a4 00 00
	00		 mov	 ecx, DWORD PTR [esi+164]
  00092	68 00 00 00 00	 push	 OFFSET ??_C@_0CP@DNNHEPLH@d?3?1ymir?5work?1ui?1public?1slotacti@
  00097	e8 00 00 00 00	 call	 ?AppendImage@CAniImageBox@UI@@QAEXPBD@Z ; UI::CAniImageBox::AppendImage

; 1297 : 	m_pSlotActiveEffect->AppendImage("d:/ymir work/ui/public/slotactiveeffect/04.sub");

  0009c	8b 8e a4 00 00
	00		 mov	 ecx, DWORD PTR [esi+164]
  000a2	68 00 00 00 00	 push	 OFFSET ??_C@_0CP@CANCHPAP@d?3?1ymir?5work?1ui?1public?1slotacti@
  000a7	e8 00 00 00 00	 call	 ?AppendImage@CAniImageBox@UI@@QAEXPBD@Z ; UI::CAniImageBox::AppendImage

; 1298 : 	m_pSlotActiveEffect->AppendImage("d:/ymir work/ui/public/slotactiveeffect/05.sub");

  000ac	8b 8e a4 00 00
	00		 mov	 ecx, DWORD PTR [esi+164]
  000b2	68 00 00 00 00	 push	 OFFSET ??_C@_0CP@OLIOKMKK@d?3?1ymir?5work?1ui?1public?1slotacti@
  000b7	e8 00 00 00 00	 call	 ?AppendImage@CAniImageBox@UI@@QAEXPBD@Z ; UI::CAniImageBox::AppendImage

; 1299 : 	m_pSlotActiveEffect->AppendImage("d:/ymir work/ui/public/slotactiveeffect/06.sub");

  000bc	8b 8e a4 00 00
	00		 mov	 ecx, DWORD PTR [esi+164]
  000c2	68 00 00 00 00	 push	 OFFSET ??_C@_0CP@GNBKNOAE@d?3?1ymir?5work?1ui?1public?1slotacti@
  000c7	e8 00 00 00 00	 call	 ?AppendImage@CAniImageBox@UI@@QAEXPBD@Z ; UI::CAniImageBox::AppendImage

; 1300 : 	m_pSlotActiveEffect->AppendImage("d:/ymir work/ui/public/slotactiveeffect/07.sub");

  000cc	8b 8e a4 00 00
	00		 mov	 ecx, DWORD PTR [esi+164]
  000d2	68 00 00 00 00	 push	 OFFSET ??_C@_0CP@KGEGANKB@d?3?1ymir?5work?1ui?1public?1slotacti@
  000d7	e8 00 00 00 00	 call	 ?AppendImage@CAniImageBox@UI@@QAEXPBD@Z ; UI::CAniImageBox::AppendImage

; 1301 : 	m_pSlotActiveEffect->AppendImage("d:/ymir work/ui/public/slotactiveeffect/08.sub");

  000dc	8b 8e a4 00 00
	00		 mov	 ecx, DWORD PTR [esi+164]
  000e2	68 00 00 00 00	 push	 OFFSET ??_C@_0CP@FHBALPHE@d?3?1ymir?5work?1ui?1public?1slotacti@
  000e7	e8 00 00 00 00	 call	 ?AppendImage@CAniImageBox@UI@@QAEXPBD@Z ; UI::CAniImageBox::AppendImage

; 1302 : 	m_pSlotActiveEffect->AppendImage("d:/ymir work/ui/public/slotactiveeffect/09.sub");

  000ec	8b 8e a4 00 00
	00		 mov	 ecx, DWORD PTR [esi+164]
  000f2	68 00 00 00 00	 push	 OFFSET ??_C@_0CP@JMEMGMNB@d?3?1ymir?5work?1ui?1public?1slotacti@
  000f7	e8 00 00 00 00	 call	 ?AppendImage@CAniImageBox@UI@@QAEXPBD@Z ; UI::CAniImageBox::AppendImage

; 1303 : 	m_pSlotActiveEffect->AppendImage("d:/ymir work/ui/public/slotactiveeffect/10.sub");

  000fc	8b 8e a4 00 00
	00		 mov	 ecx, DWORD PTR [esi+164]
  00102	68 00 00 00 00	 push	 OFFSET ??_C@_0CP@BNDEDGKN@d?3?1ymir?5work?1ui?1public?1slotacti@
  00107	e8 00 00 00 00	 call	 ?AppendImage@CAniImageBox@UI@@QAEXPBD@Z ; UI::CAniImageBox::AppendImage

; 1304 : 	m_pSlotActiveEffect->AppendImage("d:/ymir work/ui/public/slotactiveeffect/11.sub");

  0010c	8b 8e a4 00 00
	00		 mov	 ecx, DWORD PTR [esi+164]
  00112	68 00 00 00 00	 push	 OFFSET ??_C@_0CP@NGGIOFAI@d?3?1ymir?5work?1ui?1public?1slotacti@
  00117	e8 00 00 00 00	 call	 ?AppendImage@CAniImageBox@UI@@QAEXPBD@Z ; UI::CAniImageBox::AppendImage

; 1305 : 	m_pSlotActiveEffect->AppendImage("d:/ymir work/ui/public/slotactiveeffect/12.sub");

  0011c	8b 8e a4 00 00
	00		 mov	 ecx, DWORD PTR [esi+164]
  00122	68 00 00 00 00	 push	 OFFSET ??_C@_0CP@FAPMJHKG@d?3?1ymir?5work?1ui?1public?1slotacti@
  00127	e8 00 00 00 00	 call	 ?AppendImage@CAniImageBox@UI@@QAEXPBD@Z ; UI::CAniImageBox::AppendImage

; 1306 : 	m_pSlotActiveEffect->SetRenderingMode(CGraphicExpandedImageInstance::RENDERING_MODE_SCREEN);

  0012c	8b 8e a4 00 00
	00		 mov	 ecx, DWORD PTR [esi+164]
  00132	6a 01		 push	 1
  00134	e8 00 00 00 00	 call	 ?SetRenderingMode@CAniImageBox@UI@@QAEXH@Z ; UI::CAniImageBox::SetRenderingMode

; 1307 : 	m_pSlotActiveEffect->Show();

  00139	8b 8e a4 00 00
	00		 mov	 ecx, DWORD PTR [esi+164]
  0013f	e8 00 00 00 00	 call	 ?Show@CWindow@UI@@QAEXXZ ; UI::CWindow::Show

; 1308 : }

  00144	8b 4d f4	 mov	 ecx, DWORD PTR __$EHRec$[ebp]
  00147	64 89 0d 00 00
	00 00		 mov	 DWORD PTR fs:0, ecx
  0014e	59		 pop	 ecx
  0014f	5e		 pop	 esi
  00150	8b e5		 mov	 esp, ebp
  00152	5d		 pop	 ebp
  00153	c3		 ret	 0
_TEXT	ENDS
;	COMDAT text$x
text$x	SEGMENT
__unwindfunclet$?__CreateSlotEnableEffect@CSlotWindow@UI@@IAEXXZ$0:
  00000	68 88 00 00 00	 push	 136			; 00000088H
  00005	8b 45 f0	 mov	 eax, DWORD PTR $T2[ebp]
  00008	50		 push	 eax
  00009	e8 00 00 00 00	 call	 ??3@YAXPAXI@Z		; operator delete
  0000e	83 c4 08	 add	 esp, 8
  00011	c3		 ret	 0
  00012	cc		 int	 3
  00013	cc		 int	 3
  00014	cc		 int	 3
  00015	cc		 int	 3
  00016	cc		 int	 3
__ehhandler$?__CreateSlotEnableEffect@CSlotWindow@UI@@IAEXXZ:
  00017	90		 npad	 1
  00018	90		 npad	 1
  00019	8b 54 24 08	 mov	 edx, DWORD PTR [esp+8]
  0001d	8d 42 0c	 lea	 eax, DWORD PTR [edx+12]
  00020	8b 4a f4	 mov	 ecx, DWORD PTR [edx-12]
  00023	33 c8		 xor	 ecx, eax
  00025	e8 00 00 00 00	 call	 @__security_check_cookie@4
  0002a	b8 00 00 00 00	 mov	 eax, OFFSET __ehfuncinfo$?__CreateSlotEnableEffect@CSlotWindow@UI@@IAEXXZ
  0002f	e9 00 00 00 00	 jmp	 ___CxxFrameHandler3
text$x	ENDS
?__CreateSlotEnableEffect@CSlotWindow@UI@@IAEXXZ ENDP	; UI::CSlotWindow::__CreateSlotEnableEffect
; Function compile flags: /Ogtp
; File D:\Metin2 Server Files\mainline\SRC_2014\Metin2Client\eterPythonLib\PythonSlotWindow.cpp
;	COMDAT ?__CreateToggleSlotImage@CSlotWindow@UI@@IAEXXZ
_TEXT	SEGMENT
$T2 = -16						; size = 4
__$EHRec$ = -12						; size = 12
?__CreateToggleSlotImage@CSlotWindow@UI@@IAEXXZ PROC	; UI::CSlotWindow::__CreateToggleSlotImage, COMDAT
; _this$ = ecx

; 1280 : {

  00000	55		 push	 ebp
  00001	8b ec		 mov	 ebp, esp
  00003	6a ff		 push	 -1
  00005	68 00 00 00 00	 push	 __ehhandler$?__CreateToggleSlotImage@CSlotWindow@UI@@IAEXXZ
  0000a	64 a1 00 00 00
	00		 mov	 eax, DWORD PTR fs:0
  00010	50		 push	 eax
  00011	51		 push	 ecx
  00012	56		 push	 esi
  00013	a1 00 00 00 00	 mov	 eax, DWORD PTR ___security_cookie
  00018	33 c5		 xor	 eax, ebp
  0001a	50		 push	 eax
  0001b	8d 45 f4	 lea	 eax, DWORD PTR __$EHRec$[ebp]
  0001e	64 a3 00 00 00
	00		 mov	 DWORD PTR fs:0, eax
  00024	8b f1		 mov	 esi, ecx

; 1281 : 	__DestroyToggleSlotImage();

  00026	e8 00 00 00 00	 call	 ?__DestroyToggleSlotImage@CSlotWindow@UI@@IAEXXZ ; UI::CSlotWindow::__DestroyToggleSlotImage

; 1282 : 
; 1283 : 	m_pToggleSlotImage = new CImageBox(NULL);

  0002b	6a 7c		 push	 124			; 0000007cH
  0002d	e8 00 00 00 00	 call	 ??2@YAPAXI@Z		; operator new
  00032	83 c4 04	 add	 esp, 4
  00035	89 45 f0	 mov	 DWORD PTR $T2[ebp], eax
  00038	c7 45 fc 00 00
	00 00		 mov	 DWORD PTR __$EHRec$[ebp+8], 0
  0003f	85 c0		 test	 eax, eax
  00041	74 0b		 je	 SHORT $LN3@CreateTogg
  00043	6a 00		 push	 0
  00045	8b c8		 mov	 ecx, eax
  00047	e8 00 00 00 00	 call	 ??0CImageBox@UI@@QAE@PAU_object@@@Z ; UI::CImageBox::CImageBox
  0004c	eb 02		 jmp	 SHORT $LN4@CreateTogg
$LN3@CreateTogg:
  0004e	33 c0		 xor	 eax, eax
$LN4@CreateTogg:

; 1284 : 	m_pToggleSlotImage->LoadImage("d:/ymir work/ui/public/slot_toggle.sub");

  00050	68 00 00 00 00	 push	 OFFSET ??_C@_0CH@JJGPDFBJ@d?3?1ymir?5work?1ui?1public?1slot_tog@
  00055	8b c8		 mov	 ecx, eax
  00057	c7 45 fc ff ff
	ff ff		 mov	 DWORD PTR __$EHRec$[ebp+8], -1
  0005e	89 86 a0 00 00
	00		 mov	 DWORD PTR [esi+160], eax
  00064	e8 00 00 00 00	 call	 ?LoadImageA@CImageBox@UI@@QAEHPBD@Z ; UI::CImageBox::LoadImageA

; 1285 : 	m_pToggleSlotImage->Show();

  00069	8b 8e a0 00 00
	00		 mov	 ecx, DWORD PTR [esi+160]
  0006f	e8 00 00 00 00	 call	 ?Show@CWindow@UI@@QAEXXZ ; UI::CWindow::Show

; 1286 : }

  00074	8b 4d f4	 mov	 ecx, DWORD PTR __$EHRec$[ebp]
  00077	64 89 0d 00 00
	00 00		 mov	 DWORD PTR fs:0, ecx
  0007e	59		 pop	 ecx
  0007f	5e		 pop	 esi
  00080	8b e5		 mov	 esp, ebp
  00082	5d		 pop	 ebp
  00083	c3		 ret	 0
_TEXT	ENDS
;	COMDAT text$x
text$x	SEGMENT
__unwindfunclet$?__CreateToggleSlotImage@CSlotWindow@UI@@IAEXXZ$0:
  00000	6a 7c		 push	 124			; 0000007cH
  00002	8b 45 f0	 mov	 eax, DWORD PTR $T2[ebp]
  00005	50		 push	 eax
  00006	e8 00 00 00 00	 call	 ??3@YAXPAXI@Z		; operator delete
  0000b	83 c4 08	 add	 esp, 8
  0000e	c3		 ret	 0
  0000f	cc		 int	 3
  00010	cc		 int	 3
  00011	cc		 int	 3
  00012	cc		 int	 3
  00013	cc		 int	 3
__ehhandler$?__CreateToggleSlotImage@CSlotWindow@UI@@IAEXXZ:
  00014	90		 npad	 1
  00015	90		 npad	 1
  00016	8b 54 24 08	 mov	 edx, DWORD PTR [esp+8]
  0001a	8d 42 0c	 lea	 eax, DWORD PTR [edx+12]
  0001d	8b 4a f4	 mov	 ecx, DWORD PTR [edx-12]
  00020	33 c8		 xor	 ecx, eax
  00022	e8 00 00 00 00	 call	 @__security_check_cookie@4
  00027	b8 00 00 00 00	 mov	 eax, OFFSET __ehfuncinfo$?__CreateToggleSlotImage@CSlotWindow@UI@@IAEXXZ
  0002c	e9 00 00 00 00	 jmp	 ___CxxFrameHandler3
text$x	ENDS
?__CreateToggleSlotImage@CSlotWindow@UI@@IAEXXZ ENDP	; UI::CSlotWindow::__CreateToggleSlotImage
; Function compile flags: /Ogtp
; File D:\Metin2 Server Files\mainline\SRC_2014\Metin2Client\eterPythonLib\PythonSlotWindow.cpp
;	COMDAT ?__Initialize@CSlotWindow@UI@@IAEXXZ
_TEXT	SEGMENT
?__Initialize@CSlotWindow@UI@@IAEXXZ PROC		; UI::CSlotWindow::__Initialize, COMDAT
; _this$ = ecx

; 1382 : 	m_dwSlotType = 0;

  00000	c7 41 78 00 00
	00 00		 mov	 DWORD PTR [ecx+120], 0

; 1383 : 	m_dwSlotStyle = SLOT_STYLE_PICK_UP;

  00007	c7 41 7c 01 00
	00 00		 mov	 DWORD PTR [ecx+124], 1

; 1384 : 	m_dwToolTipSlotNumber = SLOT_NUMBER_NONE;

  0000e	c7 81 90 00 00
	00 ff ff ff ff	 mov	 DWORD PTR [ecx+144], -1

; 1385 : 
; 1386 : 	m_isUseMode = FALSE;

  00018	c7 81 94 00 00
	00 00 00 00 00	 mov	 DWORD PTR [ecx+148], 0

; 1387 : 	m_isUsableItem = FALSE;

  00022	c7 81 98 00 00
	00 00 00 00 00	 mov	 DWORD PTR [ecx+152], 0

; 1388 : 
; 1389 : 	m_pToggleSlotImage = NULL;

  0002c	c7 81 a0 00 00
	00 00 00 00 00	 mov	 DWORD PTR [ecx+160], 0

; 1390 : 	m_pSlotActiveEffect = NULL;

  00036	c7 81 a4 00 00
	00 00 00 00 00	 mov	 DWORD PTR [ecx+164], 0

; 1391 : 	m_pBaseImageInstance = NULL;

  00040	c7 81 9c 00 00
	00 00 00 00 00	 mov	 DWORD PTR [ecx+156], 0

; 1392 : }

  0004a	c3		 ret	 0
?__Initialize@CSlotWindow@UI@@IAEXXZ ENDP		; UI::CSlotWindow::__Initialize
_TEXT	ENDS
; Function compile flags: /Ogtp
; File D:\Metin2 Server Files\mainline\SRC_2014\Metin2Client\eterPythonLib\PythonSlotWindow.cpp
; File C:\Program Files (x86)\Microsoft Visual Studio\2019\Community\VC\Tools\MSVC\14.28.29333\include\deque
; File D:\Metin2 Server Files\mainline\SRC_2014\Metin2Client\eterPythonLib\PythonSlotWindow.cpp
; File C:\Program Files (x86)\Microsoft Visual Studio\2019\Community\VC\Tools\MSVC\14.28.29333\include\deque
; File D:\Metin2 Server Files\mainline\SRC_2014\Metin2Client\eterPythonLib\PythonSlotWindow.cpp
;	COMDAT ?ReserveDestroyCoolTimeFinishEffect@CSlotWindow@UI@@QAEXK@Z
_TEXT	SEGMENT
_dwSlotIndex$ = 8					; size = 4
?ReserveDestroyCoolTimeFinishEffect@CSlotWindow@UI@@QAEXK@Z PROC ; UI::CSlotWindow::ReserveDestroyCoolTimeFinishEffect, COMDAT
; _this$ = ecx

; 1261 : {

  00000	55		 push	 ebp
  00001	8b ec		 mov	 ebp, esp
; File C:\Program Files (x86)\Microsoft Visual Studio\2019\Community\VC\Tools\MSVC\14.28.29333\include\deque

; 1123 :         _Emplace_back_internal(_Val);

  00003	8d 45 08	 lea	 eax, DWORD PTR _dwSlotIndex$[ebp]
; File D:\Metin2 Server Files\mainline\SRC_2014\Metin2Client\eterPythonLib\PythonSlotWindow.cpp

; 1262 : 	m_ReserveDestroyEffectDeque.push_back(dwSlotIndex);

  00006	81 c1 a8 00 00
	00		 add	 ecx, 168		; 000000a8H
; File C:\Program Files (x86)\Microsoft Visual Studio\2019\Community\VC\Tools\MSVC\14.28.29333\include\deque

; 1123 :         _Emplace_back_internal(_Val);

  0000c	50		 push	 eax
  0000d	e8 00 00 00 00	 call	 ??$_Emplace_back_internal@ABK@?$deque@KV?$allocator@K@std@@@std@@AAEXABK@Z ; std::deque<unsigned long,std::allocator<unsigned long> >::_Emplace_back_internal<unsigned long const &>
; File D:\Metin2 Server Files\mainline\SRC_2014\Metin2Client\eterPythonLib\PythonSlotWindow.cpp

; 1263 : }

  00012	5d		 pop	 ebp
  00013	c2 04 00	 ret	 4
?ReserveDestroyCoolTimeFinishEffect@CSlotWindow@UI@@QAEXK@Z ENDP ; UI::CSlotWindow::ReserveDestroyCoolTimeFinishEffect
_TEXT	ENDS
; Function compile flags: /Ogtp
; File D:\Metin2 Server Files\mainline\SRC_2014\Metin2Client\eterPythonLib\PythonSlotWindow.cpp
;	COMDAT ?SetUsableItem@CSlotWindow@UI@@QAEXH@Z
_TEXT	SEGMENT
_bFlag$ = 8						; size = 4
?SetUsableItem@CSlotWindow@UI@@QAEXH@Z PROC		; UI::CSlotWindow::SetUsableItem, COMDAT
; _this$ = ecx

; 1256 : {

  00000	55		 push	 ebp
  00001	8b ec		 mov	 ebp, esp

; 1257 : 	m_isUsableItem = bFlag;

  00003	8b 45 08	 mov	 eax, DWORD PTR _bFlag$[ebp]
  00006	89 81 98 00 00
	00		 mov	 DWORD PTR [ecx+152], eax

; 1258 : }

  0000c	5d		 pop	 ebp
  0000d	c2 04 00	 ret	 4
?SetUsableItem@CSlotWindow@UI@@QAEXH@Z ENDP		; UI::CSlotWindow::SetUsableItem
_TEXT	ENDS
; Function compile flags: /Ogtp
; File D:\Metin2 Server Files\mainline\SRC_2014\Metin2Client\eterPythonLib\PythonSlotWindow.cpp
;	COMDAT ?SetUseMode@CSlotWindow@UI@@QAEXH@Z
_TEXT	SEGMENT
_bFlag$ = 8						; size = 4
?SetUseMode@CSlotWindow@UI@@QAEXH@Z PROC		; UI::CSlotWindow::SetUseMode, COMDAT
; _this$ = ecx

; 1251 : {

  00000	55		 push	 ebp
  00001	8b ec		 mov	 ebp, esp

; 1252 : 	m_isUseMode = bFlag;

  00003	8b 45 08	 mov	 eax, DWORD PTR _bFlag$[ebp]
  00006	89 81 94 00 00
	00		 mov	 DWORD PTR [ecx+148], eax

; 1253 : }

  0000c	5d		 pop	 ebp
  0000d	c2 04 00	 ret	 4
?SetUseMode@CSlotWindow@UI@@QAEXH@Z ENDP		; UI::CSlotWindow::SetUseMode
_TEXT	ENDS
; Function compile flags: /Ogtp
; File D:\Metin2 Server Files\mainline\SRC_2014\Metin2Client\eterPythonLib\PythonSlotWindow.cpp
;	COMDAT ?OnOverOutItem@CSlotWindow@UI@@QAEXXZ
_TEXT	SEGMENT
?OnOverOutItem@CSlotWindow@UI@@QAEXXZ PROC		; UI::CSlotWindow::OnOverOutItem, COMDAT
; _this$ = ecx

; 934  : {

  00000	56		 push	 esi
  00001	8b f1		 mov	 esi, ecx

; 935  : 	if (SLOT_NUMBER_NONE == m_dwToolTipSlotNumber)

  00003	83 be 90 00 00
	00 ff		 cmp	 DWORD PTR [esi+144], -1
  0000a	74 26		 je	 SHORT $LN1@OnOverOutI

; 936  : 		return;
; 937  : 
; 938  : 	m_dwToolTipSlotNumber = SLOT_NUMBER_NONE;
; 939  : 	PyCallClassMemberFunc(m_poHandler, "OnOverOutItem", Py_BuildValue("()"));

  0000c	68 00 00 00 00	 push	 OFFSET ??_C@_02HCKGKOFO@?$CI?$CJ@
  00011	c7 86 90 00 00
	00 ff ff ff ff	 mov	 DWORD PTR [esi+144], -1
  0001b	ff 15 00 00 00
	00		 call	 DWORD PTR __imp__Py_BuildValue
  00021	50		 push	 eax
  00022	68 00 00 00 00	 push	 OFFSET ??_C@_0O@IBCIPGEP@OnOverOutItem@
  00027	ff 76 5c	 push	 DWORD PTR [esi+92]
  0002a	e8 00 00 00 00	 call	 ?PyCallClassMemberFunc@@YA_NPAU_object@@PBD0@Z ; PyCallClassMemberFunc
  0002f	83 c4 10	 add	 esp, 16			; 00000010H
$LN1@OnOverOutI:

; 940  : }

  00032	5e		 pop	 esi
  00033	c3		 ret	 0
?OnOverOutItem@CSlotWindow@UI@@QAEXXZ ENDP		; UI::CSlotWindow::OnOverOutItem
_TEXT	ENDS
; Function compile flags: /Ogtp
; File D:\Metin2 Server Files\mainline\SRC_2014\Metin2Client\eterPythonLib\PythonSlotWindow.cpp
;	COMDAT ?OnOverInItem@CSlotWindow@UI@@QAEHK@Z
_TEXT	SEGMENT
_pSlot$ = -4						; size = 4
_dwSlotNumber$ = 8					; size = 4
?OnOverInItem@CSlotWindow@UI@@QAEHK@Z PROC		; UI::CSlotWindow::OnOverInItem, COMDAT
; _this$ = ecx

; 916  : {

  00000	55		 push	 ebp
  00001	8b ec		 mov	 ebp, esp
  00003	51		 push	 ecx
  00004	56		 push	 esi
  00005	57		 push	 edi

; 917  : 	TSlot * pSlot;
; 918  : 	if (!GetSlotPointer(dwSlotNumber, &pSlot))

  00006	8b 7d 08	 mov	 edi, DWORD PTR _dwSlotNumber$[ebp]
  00009	8d 45 fc	 lea	 eax, DWORD PTR _pSlot$[ebp]
  0000c	50		 push	 eax
  0000d	57		 push	 edi
  0000e	8b f1		 mov	 esi, ecx
  00010	e8 00 00 00 00	 call	 ?GetSlotPointer@CSlotWindow@UI@@IAEHKPAPAUSSlot@12@@Z ; UI::CSlotWindow::GetSlotPointer
  00015	85 c0		 test	 eax, eax
  00017	74 44		 je	 SHORT $LN6@OnOverInIt

; 919  : 		return FALSE;
; 920  : 
; 921  : 	if (!pSlot->isItem)

  00019	8b 45 fc	 mov	 eax, DWORD PTR _pSlot$[ebp]
  0001c	83 78 10 00	 cmp	 DWORD PTR [eax+16], 0
  00020	74 3b		 je	 SHORT $LN6@OnOverInIt

; 923  : 
; 924  : 	if (pSlot->dwSlotNumber == m_dwToolTipSlotNumber)

  00022	8b 40 04	 mov	 eax, DWORD PTR [eax+4]
  00025	3b 86 90 00 00
	00		 cmp	 eax, DWORD PTR [esi+144]
  0002b	74 23		 je	 SHORT $LN7@OnOverInIt

; 925  : 		return TRUE;
; 926  : 
; 927  : 	m_dwToolTipSlotNumber = dwSlotNumber;
; 928  : 	PyCallClassMemberFunc(m_poHandler, "OnOverInItem", Py_BuildValue("(i)", dwSlotNumber));

  0002d	57		 push	 edi
  0002e	68 00 00 00 00	 push	 OFFSET ??_C@_03LIHNMIHG@?$CIi?$CJ@
  00033	89 be 90 00 00
	00		 mov	 DWORD PTR [esi+144], edi
  00039	ff 15 00 00 00
	00		 call	 DWORD PTR __imp__Py_BuildValue
  0003f	50		 push	 eax
  00040	68 00 00 00 00	 push	 OFFSET ??_C@_0N@CBOPEHFH@OnOverInItem@
  00045	ff 76 5c	 push	 DWORD PTR [esi+92]
  00048	e8 00 00 00 00	 call	 ?PyCallClassMemberFunc@@YA_NPAU_object@@PBD0@Z ; PyCallClassMemberFunc
  0004d	83 c4 14	 add	 esp, 20			; 00000014H
$LN7@OnOverInIt:

; 929  : 
; 930  : 	return TRUE;
; 931  : }

  00050	5f		 pop	 edi
  00051	b8 01 00 00 00	 mov	 eax, 1
  00056	5e		 pop	 esi
  00057	8b e5		 mov	 esp, ebp
  00059	5d		 pop	 ebp
  0005a	c2 04 00	 ret	 4
$LN6@OnOverInIt:
  0005d	5f		 pop	 edi

; 922  : 		return FALSE;

  0005e	33 c0		 xor	 eax, eax

; 929  : 
; 930  : 	return TRUE;
; 931  : }

  00060	5e		 pop	 esi
  00061	8b e5		 mov	 esp, ebp
  00063	5d		 pop	 ebp
  00064	c2 04 00	 ret	 4
?OnOverInItem@CSlotWindow@UI@@QAEHK@Z ENDP		; UI::CSlotWindow::OnOverInItem
_TEXT	ENDS
; Function compile flags: /Ogtp
; File D:\Metin2 Server Files\mainline\SRC_2014\Metin2Client\eterPythonLib\PythonSlotWindow.cpp
;	COMDAT ?HideRequirementSign@CSlotWindow@UI@@QAEXK@Z
_TEXT	SEGMENT
_pSlot$ = -4						; size = 4
_dwSlotNumber$ = 8					; size = 4
?HideRequirementSign@CSlotWindow@UI@@QAEXK@Z PROC	; UI::CSlotWindow::HideRequirementSign, COMDAT
; _this$ = ecx

; 765  : {

  00000	55		 push	 ebp
  00001	8b ec		 mov	 ebp, esp
  00003	51		 push	 ecx

; 766  : 	TSlot * pSlot;
; 767  : 	if (!GetSlotPointer(dwSlotNumber, &pSlot))

  00004	8d 45 fc	 lea	 eax, DWORD PTR _pSlot$[ebp]
  00007	50		 push	 eax
  00008	ff 75 08	 push	 DWORD PTR _dwSlotNumber$[ebp]
  0000b	e8 00 00 00 00	 call	 ?GetSlotPointer@CSlotWindow@UI@@IAEHKPAPAUSSlot@12@@Z ; UI::CSlotWindow::GetSlotPointer
  00010	85 c0		 test	 eax, eax
  00012	74 0f		 je	 SHORT $LN1@HideRequir

; 768  : 		return;
; 769  : 
; 770  : 	if (!pSlot->pSignImage)

  00014	8b 45 fc	 mov	 eax, DWORD PTR _pSlot$[ebp]
  00017	8b 48 48	 mov	 ecx, DWORD PTR [eax+72]
  0001a	85 c9		 test	 ecx, ecx
  0001c	74 05		 je	 SHORT $LN1@HideRequir

; 771  : 		return;
; 772  : 
; 773  : 	pSlot->pSignImage->Hide();

  0001e	e8 00 00 00 00	 call	 ?Hide@CWindow@UI@@QAEXXZ ; UI::CWindow::Hide
$LN1@HideRequir:

; 774  : }

  00023	8b e5		 mov	 esp, ebp
  00025	5d		 pop	 ebp
  00026	c2 04 00	 ret	 4
?HideRequirementSign@CSlotWindow@UI@@QAEXK@Z ENDP	; UI::CSlotWindow::HideRequirementSign
_TEXT	ENDS
; Function compile flags: /Ogtp
; File D:\Metin2 Server Files\mainline\SRC_2014\Metin2Client\eterPythonLib\PythonSlotWindow.cpp
;	COMDAT ?ShowRequirementSign@CSlotWindow@UI@@QAEXK@Z
_TEXT	SEGMENT
_pSlot$ = -4						; size = 4
_dwSlotNumber$ = 8					; size = 4
?ShowRequirementSign@CSlotWindow@UI@@QAEXK@Z PROC	; UI::CSlotWindow::ShowRequirementSign, COMDAT
; _this$ = ecx

; 753  : {

  00000	55		 push	 ebp
  00001	8b ec		 mov	 ebp, esp
  00003	51		 push	 ecx

; 754  : 	TSlot * pSlot;
; 755  : 	if (!GetSlotPointer(dwSlotNumber, &pSlot))

  00004	8d 45 fc	 lea	 eax, DWORD PTR _pSlot$[ebp]
  00007	50		 push	 eax
  00008	ff 75 08	 push	 DWORD PTR _dwSlotNumber$[ebp]
  0000b	e8 00 00 00 00	 call	 ?GetSlotPointer@CSlotWindow@UI@@IAEHKPAPAUSSlot@12@@Z ; UI::CSlotWindow::GetSlotPointer
  00010	85 c0		 test	 eax, eax
  00012	74 0f		 je	 SHORT $LN1@ShowRequir

; 756  : 		return;
; 757  : 
; 758  : 	if (!pSlot->pSignImage)

  00014	8b 45 fc	 mov	 eax, DWORD PTR _pSlot$[ebp]
  00017	8b 48 48	 mov	 ecx, DWORD PTR [eax+72]
  0001a	85 c9		 test	 ecx, ecx
  0001c	74 05		 je	 SHORT $LN1@ShowRequir

; 759  : 		return;
; 760  : 
; 761  : 	pSlot->pSignImage->Show();

  0001e	e8 00 00 00 00	 call	 ?Show@CWindow@UI@@QAEXXZ ; UI::CWindow::Show
$LN1@ShowRequir:

; 762  : }

  00023	8b e5		 mov	 esp, ebp
  00025	5d		 pop	 ebp
  00026	c2 04 00	 ret	 4
?ShowRequirementSign@CSlotWindow@UI@@QAEXK@Z ENDP	; UI::CSlotWindow::ShowRequirementSign
_TEXT	ENDS
; Function compile flags: /Ogtp
; File D:\Metin2 Server Files\mainline\SRC_2014\Metin2Client\eterPythonLib\PythonSlotWindow.cpp
;	COMDAT ?OnPressedSlotButton@CSlotWindow@UI@@QAEXKKH@Z
_TEXT	SEGMENT
_dwType$ = 8						; size = 4
_dwSlotNumber$ = 12					; size = 4
_isLeft$ = 16						; size = 4
?OnPressedSlotButton@CSlotWindow@UI@@QAEXKKH@Z PROC	; UI::CSlotWindow::OnPressedSlotButton, COMDAT
; _this$ = ecx

; 943  : {

  00000	55		 push	 ebp
  00001	8b ec		 mov	 ebp, esp

; 944  : 	if (CSlotButton::SLOT_BUTTON_TYPE_PLUS == dwType)

  00003	8b 45 08	 mov	 eax, DWORD PTR _dwType$[ebp]
  00006	56		 push	 esi
  00007	8b f1		 mov	 esi, ecx
  00009	85 c0		 test	 eax, eax
  0000b	75 24		 jne	 SHORT $LN2@OnPressedS

; 945  : 	{
; 946  : 		PyCallClassMemberFunc(m_poHandler, "OnPressedSlotButton", Py_BuildValue("(i)", dwSlotNumber));

  0000d	ff 75 0c	 push	 DWORD PTR _dwSlotNumber$[ebp]
  00010	68 00 00 00 00	 push	 OFFSET ??_C@_03LIHNMIHG@?$CIi?$CJ@
  00015	ff 15 00 00 00
	00		 call	 DWORD PTR __imp__Py_BuildValue
  0001b	50		 push	 eax
  0001c	68 00 00 00 00	 push	 OFFSET ??_C@_0BE@MBGDMPNF@OnPressedSlotButton@
  00021	ff 76 5c	 push	 DWORD PTR [esi+92]
  00024	e8 00 00 00 00	 call	 ?PyCallClassMemberFunc@@YA_NPAU_object@@PBD0@Z ; PyCallClassMemberFunc
  00029	83 c4 14	 add	 esp, 20			; 00000014H
  0002c	5e		 pop	 esi

; 953  : 		}
; 954  : 	}
; 955  : }

  0002d	5d		 pop	 ebp
  0002e	c2 0c 00	 ret	 12			; 0000000cH
$LN2@OnPressedS:

; 947  : 	}
; 948  : 	else if (CSlotButton::SLOT_BUTTON_TYPE_COVER == dwType)

  00031	83 f8 01	 cmp	 eax, 1
  00034	75 0b		 jne	 SHORT $LN5@OnPressedS

; 949  : 	{
; 950  : 		if (isLeft)

  00036	83 7d 10 00	 cmp	 DWORD PTR _isLeft$[ebp], 0
  0003a	74 05		 je	 SHORT $LN5@OnPressedS

; 951  : 		{
; 952  : 			OnMouseLeftButtonDown();

  0003c	8b 06		 mov	 eax, DWORD PTR [esi]
  0003e	ff 50 58	 call	 DWORD PTR [eax+88]
$LN5@OnPressedS:
  00041	5e		 pop	 esi

; 953  : 		}
; 954  : 	}
; 955  : }

  00042	5d		 pop	 ebp
  00043	c2 0c 00	 ret	 12			; 0000000cH
?OnPressedSlotButton@CSlotWindow@UI@@QAEXKKH@Z ENDP	; UI::CSlotWindow::OnPressedSlotButton
_TEXT	ENDS
; Function compile flags: /Ogtp
; File D:\Metin2 Server Files\mainline\SRC_2014\Metin2Client\eterPythonLib\PythonSlotWindow.cpp
; File C:\Program Files (x86)\Microsoft Visual Studio\2019\Community\VC\Tools\MSVC\14.28.29333\include\list
; File D:\Metin2 Server Files\mainline\SRC_2014\Metin2Client\eterPythonLib\PythonSlotWindow.cpp
; File C:\Program Files (x86)\Microsoft Visual Studio\2019\Community\VC\Tools\MSVC\14.28.29333\include\list
; File D:\Metin2 Server Files\mainline\SRC_2014\Metin2Client\eterPythonLib\PythonSlotWindow.cpp
;	COMDAT ?HideAllSlotButton@CSlotWindow@UI@@QAEXXZ
_TEXT	SEGMENT
?HideAllSlotButton@CSlotWindow@UI@@QAEXXZ PROC		; UI::CSlotWindow::HideAllSlotButton, COMDAT
; _this$ = ecx

; 740  : {

  00000	56		 push	 esi
  00001	57		 push	 edi
  00002	8b f9		 mov	 edi, ecx
; File C:\Program Files (x86)\Microsoft Visual Studio\2019\Community\VC\Tools\MSVC\14.28.29333\include\list

; 1092 :         return iterator(_Mypair._Myval2._Myhead->_Next, _STD addressof(_Mypair._Myval2));

  00004	8b 87 88 00 00
	00		 mov	 eax, DWORD PTR [edi+136]

; 39   :     _List_unchecked_const_iterator(_Nodeptr _Pnode, const _Mylist* _Plist) noexcept : _Ptr(_Pnode) {

  0000a	8b 30		 mov	 esi, DWORD PTR [eax]
  0000c	3b f0		 cmp	 esi, eax
; File D:\Metin2 Server Files\mainline\SRC_2014\Metin2Client\eterPythonLib\PythonSlotWindow.cpp

; 741  : 	for (TSlotListIterator itor = m_SlotList.begin(); itor != m_SlotList.end(); ++itor)

  0000e	74 16		 je	 SHORT $LN3@HideAllSlo
$LL18@HideAllSlo:

; 742  : 	{
; 743  : 		TSlot & rSlot = *itor;
; 744  : 
; 745  : 		if (rSlot.pSlotButton)

  00010	8b 4e 4c	 mov	 ecx, DWORD PTR [esi+76]
  00013	85 c9		 test	 ecx, ecx
  00015	74 05		 je	 SHORT $LN2@HideAllSlo

; 746  : 		{
; 747  : 			rSlot.pSlotButton->Hide();

  00017	e8 00 00 00 00	 call	 ?Hide@CWindow@UI@@QAEXXZ ; UI::CWindow::Hide
$LN2@HideAllSlo:
; File C:\Program Files (x86)\Microsoft Visual Studio\2019\Community\VC\Tools\MSVC\14.28.29333\include\list

; 166  :         this->_Ptr = this->_Ptr->_Next;

  0001c	8b 36		 mov	 esi, DWORD PTR [esi]

; 199  :         return this->_Ptr == _Right._Ptr;

  0001e	3b b7 88 00 00
	00		 cmp	 esi, DWORD PTR [edi+136]
; File D:\Metin2 Server Files\mainline\SRC_2014\Metin2Client\eterPythonLib\PythonSlotWindow.cpp

; 741  : 	for (TSlotListIterator itor = m_SlotList.begin(); itor != m_SlotList.end(); ++itor)

  00024	75 ea		 jne	 SHORT $LL18@HideAllSlo
$LN3@HideAllSlo:
  00026	5f		 pop	 edi

; 748  : 		}
; 749  : 	}
; 750  : }

  00027	5e		 pop	 esi
  00028	c3		 ret	 0
?HideAllSlotButton@CSlotWindow@UI@@QAEXXZ ENDP		; UI::CSlotWindow::HideAllSlotButton
_TEXT	ENDS
; Function compile flags: /Ogtp
; File D:\Metin2 Server Files\mainline\SRC_2014\Metin2Client\eterPythonLib\PythonSlotWindow.cpp
;	COMDAT ?ShowSlotButton@CSlotWindow@UI@@QAEXK@Z
_TEXT	SEGMENT
_pSlot$ = -4						; size = 4
_dwSlotNumber$ = 8					; size = 4
?ShowSlotButton@CSlotWindow@UI@@QAEXK@Z PROC		; UI::CSlotWindow::ShowSlotButton, COMDAT
; _this$ = ecx

; 728  : {

  00000	55		 push	 ebp
  00001	8b ec		 mov	 ebp, esp
  00003	51		 push	 ecx

; 729  : 	TSlot * pSlot;
; 730  : 	if (!GetSlotPointer(dwSlotNumber, &pSlot))

  00004	8d 45 fc	 lea	 eax, DWORD PTR _pSlot$[ebp]
  00007	50		 push	 eax
  00008	ff 75 08	 push	 DWORD PTR _dwSlotNumber$[ebp]
  0000b	e8 00 00 00 00	 call	 ?GetSlotPointer@CSlotWindow@UI@@IAEHKPAPAUSSlot@12@@Z ; UI::CSlotWindow::GetSlotPointer
  00010	85 c0		 test	 eax, eax
  00012	74 0f		 je	 SHORT $LN3@ShowSlotBu

; 731  : 		return;
; 732  : 
; 733  : 	if (pSlot->pSlotButton)

  00014	8b 45 fc	 mov	 eax, DWORD PTR _pSlot$[ebp]
  00017	8b 48 44	 mov	 ecx, DWORD PTR [eax+68]
  0001a	85 c9		 test	 ecx, ecx
  0001c	74 05		 je	 SHORT $LN3@ShowSlotBu

; 734  : 	{
; 735  : 		pSlot->pSlotButton->Show();

  0001e	e8 00 00 00 00	 call	 ?Show@CWindow@UI@@QAEXXZ ; UI::CWindow::Show
$LN3@ShowSlotBu:

; 736  : 	}
; 737  : }

  00023	8b e5		 mov	 esp, ebp
  00025	5d		 pop	 ebp
  00026	c2 04 00	 ret	 4
?ShowSlotButton@CSlotWindow@UI@@QAEXK@Z ENDP		; UI::CSlotWindow::ShowSlotButton
_TEXT	ENDS
; Function compile flags: /Ogtp
; File D:\Metin2 Server Files\mainline\SRC_2014\Metin2Client\eterPythonLib\PythonSlotWindow.cpp
; File C:\Program Files (x86)\Microsoft Visual Studio\2019\Community\VC\Tools\MSVC\14.28.29333\include\list
; File D:\Metin2 Server Files\mainline\SRC_2014\Metin2Client\eterPythonLib\PythonSlotWindow.cpp
; File C:\Program Files (x86)\Microsoft Visual Studio\2019\Community\VC\Tools\MSVC\14.28.29333\include\list
; File D:\Metin2 Server Files\mainline\SRC_2014\Metin2Client\eterPythonLib\PythonSlotWindow.cpp
; File C:\Program Files (x86)\Microsoft Visual Studio\2019\Community\VC\Tools\MSVC\14.28.29333\include\list
; File D:\Metin2 Server Files\mainline\SRC_2014\Metin2Client\eterPythonLib\PythonSlotWindow.cpp
; File C:\Program Files (x86)\Microsoft Visual Studio\2019\Community\VC\Tools\MSVC\14.28.29333\include\list
; File D:\Metin2 Server Files\mainline\SRC_2014\Metin2Client\eterPythonLib\PythonSlotWindow.cpp
;	COMDAT ?GetSelectedSlotNumber@CSlotWindow@UI@@QAEKK@Z
_TEXT	SEGMENT
_dwIndex$ = 8						; size = 4
?GetSelectedSlotNumber@CSlotWindow@UI@@QAEKK@Z PROC	; UI::CSlotWindow::GetSelectedSlotNumber, COMDAT
; _this$ = ecx

; 710  : {

  00000	55		 push	 ebp
  00001	8b ec		 mov	 ebp, esp
  00003	56		 push	 esi

; 711  : 	if (dwIndex >= m_dwSelectedSlotIndexList.size())

  00004	8b 75 08	 mov	 esi, DWORD PTR _dwIndex$[ebp]
  00007	3b b1 84 00 00
	00		 cmp	 esi, DWORD PTR [ecx+132]
  0000d	72 08		 jb	 SHORT $LN5@GetSelecte

; 712  : 		return DWORD(-1);

  0000f	83 c8 ff	 or	 eax, -1
  00012	5e		 pop	 esi

; 725  : }

  00013	5d		 pop	 ebp
  00014	c2 04 00	 ret	 4
$LN5@GetSelecte:
; File C:\Program Files (x86)\Microsoft Visual Studio\2019\Community\VC\Tools\MSVC\14.28.29333\include\list

; 1092 :         return iterator(_Mypair._Myval2._Myhead->_Next, _STD addressof(_Mypair._Myval2));

  00017	8b 89 80 00 00
	00		 mov	 ecx, DWORD PTR [ecx+128]
; File D:\Metin2 Server Files\mainline\SRC_2014\Metin2Client\eterPythonLib\PythonSlotWindow.cpp

; 714  : 	DWORD dwCount = 0;

  0001d	33 d2		 xor	 edx, edx
; File C:\Program Files (x86)\Microsoft Visual Studio\2019\Community\VC\Tools\MSVC\14.28.29333\include\list

; 39   :     _List_unchecked_const_iterator(_Nodeptr _Pnode, const _Mylist* _Plist) noexcept : _Ptr(_Pnode) {

  0001f	8b 01		 mov	 eax, DWORD PTR [ecx]
  00021	3b c1		 cmp	 eax, ecx
; File D:\Metin2 Server Files\mainline\SRC_2014\Metin2Client\eterPythonLib\PythonSlotWindow.cpp

; 716  : 	for (; itor != m_dwSelectedSlotIndexList.end(); ++itor)

  00023	74 0b		 je	 SHORT $LN41@GetSelecte
$LL19@GetSelecte:

; 717  : 	{
; 718  : 		if (dwIndex == dwCount)

  00025	3b f2		 cmp	 esi, edx
  00027	74 07		 je	 SHORT $LN41@GetSelecte
; File C:\Program Files (x86)\Microsoft Visual Studio\2019\Community\VC\Tools\MSVC\14.28.29333\include\list

; 166  :         this->_Ptr = this->_Ptr->_Next;

  00029	8b 00		 mov	 eax, DWORD PTR [eax]
; File D:\Metin2 Server Files\mainline\SRC_2014\Metin2Client\eterPythonLib\PythonSlotWindow.cpp

; 721  : 		++dwCount;

  0002b	42		 inc	 edx
; File C:\Program Files (x86)\Microsoft Visual Studio\2019\Community\VC\Tools\MSVC\14.28.29333\include\list

; 199  :         return this->_Ptr == _Right._Ptr;

  0002c	3b c1		 cmp	 eax, ecx
; File D:\Metin2 Server Files\mainline\SRC_2014\Metin2Client\eterPythonLib\PythonSlotWindow.cpp

; 716  : 	for (; itor != m_dwSelectedSlotIndexList.end(); ++itor)

  0002e	75 f5		 jne	 SHORT $LL19@GetSelecte
$LN41@GetSelecte:

; 722  : 	}
; 723  : 
; 724  : 	return *itor;

  00030	8b 40 08	 mov	 eax, DWORD PTR [eax+8]
  00033	5e		 pop	 esi

; 725  : }

  00034	5d		 pop	 ebp
  00035	c2 04 00	 ret	 4
?GetSelectedSlotNumber@CSlotWindow@UI@@QAEKK@Z ENDP	; UI::CSlotWindow::GetSelectedSlotNumber
_TEXT	ENDS
; Function compile flags: /Ogtp
; File D:\Metin2 Server Files\mainline\SRC_2014\Metin2Client\eterPythonLib\PythonSlotWindow.cpp
;	COMDAT ?GetSelectedSlotCount@CSlotWindow@UI@@QAEKXZ
_TEXT	SEGMENT
?GetSelectedSlotCount@CSlotWindow@UI@@QAEKXZ PROC	; UI::CSlotWindow::GetSelectedSlotCount, COMDAT
; _this$ = ecx

; 706  : 	return m_dwSelectedSlotIndexList.size();

  00000	8b 81 84 00 00
	00		 mov	 eax, DWORD PTR [ecx+132]

; 707  : }

  00006	c3		 ret	 0
?GetSelectedSlotCount@CSlotWindow@UI@@QAEKXZ ENDP	; UI::CSlotWindow::GetSelectedSlotCount
_TEXT	ENDS
; Function compile flags: /Ogtp
; File D:\Metin2 Server Files\mainline\SRC_2014\Metin2Client\eterPythonLib\PythonSlotWindow.cpp
; File C:\Program Files (x86)\Microsoft Visual Studio\2019\Community\VC\Tools\MSVC\14.28.29333\include\list
; File D:\Metin2 Server Files\mainline\SRC_2014\Metin2Client\eterPythonLib\PythonSlotWindow.cpp
; File C:\Program Files (x86)\Microsoft Visual Studio\2019\Community\VC\Tools\MSVC\14.28.29333\include\list
; File D:\Metin2 Server Files\mainline\SRC_2014\Metin2Client\eterPythonLib\PythonSlotWindow.cpp
;	COMDAT ?isSelectedSlot@CSlotWindow@UI@@QAEHK@Z
_TEXT	SEGMENT
_dwIndex$ = 8						; size = 4
?isSelectedSlot@CSlotWindow@UI@@QAEHK@Z PROC		; UI::CSlotWindow::isSelectedSlot, COMDAT
; _this$ = ecx

; 688  : {

  00000	55		 push	 ebp
  00001	8b ec		 mov	 ebp, esp
; File C:\Program Files (x86)\Microsoft Visual Studio\2019\Community\VC\Tools\MSVC\14.28.29333\include\list

; 1092 :         return iterator(_Mypair._Myval2._Myhead->_Next, _STD addressof(_Mypair._Myval2));

  00003	8b 89 80 00 00
	00		 mov	 ecx, DWORD PTR [ecx+128]

; 39   :     _List_unchecked_const_iterator(_Nodeptr _Pnode, const _Mylist* _Plist) noexcept : _Ptr(_Pnode) {

  00009	8b 01		 mov	 eax, DWORD PTR [ecx]
  0000b	3b c1		 cmp	 eax, ecx
; File D:\Metin2 Server Files\mainline\SRC_2014\Metin2Client\eterPythonLib\PythonSlotWindow.cpp

; 690  : 	for (; itor != m_dwSelectedSlotIndexList.end(); ++itor)

  0000d	74 0e		 je	 SHORT $LN3@isSelected
  0000f	8b 55 08	 mov	 edx, DWORD PTR _dwIndex$[ebp]
$LL18@isSelected:

; 691  : 	{
; 692  : 		if (dwIndex == *itor)

  00012	3b 50 08	 cmp	 edx, DWORD PTR [eax+8]
  00015	74 0c		 je	 SHORT $LN36@isSelected
; File C:\Program Files (x86)\Microsoft Visual Studio\2019\Community\VC\Tools\MSVC\14.28.29333\include\list

; 166  :         this->_Ptr = this->_Ptr->_Next;

  00017	8b 00		 mov	 eax, DWORD PTR [eax]

; 199  :         return this->_Ptr == _Right._Ptr;

  00019	3b c1		 cmp	 eax, ecx
; File D:\Metin2 Server Files\mainline\SRC_2014\Metin2Client\eterPythonLib\PythonSlotWindow.cpp

; 690  : 	for (; itor != m_dwSelectedSlotIndexList.end(); ++itor)

  0001b	75 f5		 jne	 SHORT $LL18@isSelected
$LN3@isSelected:

; 694  : 	}
; 695  : 
; 696  : 	return FALSE;

  0001d	33 c0		 xor	 eax, eax

; 697  : }

  0001f	5d		 pop	 ebp
  00020	c2 04 00	 ret	 4
$LN36@isSelected:

; 693  : 			return TRUE;

  00023	b8 01 00 00 00	 mov	 eax, 1

; 697  : }

  00028	5d		 pop	 ebp
  00029	c2 04 00	 ret	 4
?isSelectedSlot@CSlotWindow@UI@@QAEHK@Z ENDP		; UI::CSlotWindow::isSelectedSlot
_TEXT	ENDS
; Function compile flags: /Ogtp
; File D:\Metin2 Server Files\mainline\SRC_2014\Metin2Client\eterPythonLib\PythonSlotWindow.cpp
; File C:\Program Files (x86)\Microsoft Visual Studio\2019\Community\VC\Tools\MSVC\14.28.29333\include\list
; File D:\Metin2 Server Files\mainline\SRC_2014\Metin2Client\eterPythonLib\PythonSlotWindow.cpp
; File C:\Program Files (x86)\Microsoft Visual Studio\2019\Community\VC\Tools\MSVC\14.28.29333\include\list
; File D:\Metin2 Server Files\mainline\SRC_2014\Metin2Client\eterPythonLib\PythonSlotWindow.cpp
; File C:\Program Files (x86)\Microsoft Visual Studio\2019\Community\VC\Tools\MSVC\14.28.29333\include\list
; File D:\Metin2 Server Files\mainline\SRC_2014\Metin2Client\eterPythonLib\PythonSlotWindow.cpp
; File C:\Program Files (x86)\Microsoft Visual Studio\2019\Community\VC\Tools\MSVC\14.28.29333\include\list
; File C:\Program Files (x86)\Microsoft Visual Studio\2019\Community\VC\Tools\MSVC\14.28.29333\include\xmemory
; File C:\Program Files (x86)\Microsoft Visual Studio\2019\Community\VC\Tools\MSVC\14.28.29333\include\list
; File C:\Program Files (x86)\Microsoft Visual Studio\2019\Community\VC\Tools\MSVC\14.28.29333\include\xmemory
; File D:\Metin2 Server Files\mainline\SRC_2014\Metin2Client\eterPythonLib\PythonSlotWindow.cpp
; File C:\Program Files (x86)\Microsoft Visual Studio\2019\Community\VC\Tools\MSVC\14.28.29333\include\xmemory
; File C:\Program Files (x86)\Microsoft Visual Studio\2019\Community\VC\Tools\MSVC\14.28.29333\include\list
; File C:\Program Files (x86)\Microsoft Visual Studio\2019\Community\VC\Tools\MSVC\14.28.29333\include\xmemory
; File C:\Program Files (x86)\Microsoft Visual Studio\2019\Community\VC\Tools\MSVC\14.28.29333\include\list
; File D:\Metin2 Server Files\mainline\SRC_2014\Metin2Client\eterPythonLib\PythonSlotWindow.cpp
; File C:\Program Files (x86)\Microsoft Visual Studio\2019\Community\VC\Tools\MSVC\14.28.29333\include\list
; File D:\Metin2 Server Files\mainline\SRC_2014\Metin2Client\eterPythonLib\PythonSlotWindow.cpp
;	COMDAT ?SelectSlot@CSlotWindow@UI@@QAEXK@Z
_TEXT	SEGMENT
__Op$2 = -24						; size = 8
_this$1$ = -16						; size = 4
__Insert_after$3 = -16					; size = 4
__$EHRec$ = -12						; size = 12
__Insert_before$4 = 8					; size = 4
_pSlot$ = 8						; size = 4
_dwSelectingIndex$ = 8					; size = 4
?SelectSlot@CSlotWindow@UI@@QAEXK@Z PROC		; UI::CSlotWindow::SelectSlot, COMDAT
; _this$ = ecx

; 662  : {

  00000	55		 push	 ebp
  00001	8b ec		 mov	 ebp, esp
  00003	6a ff		 push	 -1
  00005	68 00 00 00 00	 push	 __ehhandler$?SelectSlot@CSlotWindow@UI@@QAEXK@Z
  0000a	64 a1 00 00 00
	00		 mov	 eax, DWORD PTR fs:0
  00010	50		 push	 eax
  00011	83 ec 0c	 sub	 esp, 12			; 0000000cH
  00014	53		 push	 ebx
  00015	56		 push	 esi
  00016	57		 push	 edi
  00017	a1 00 00 00 00	 mov	 eax, DWORD PTR ___security_cookie
  0001c	33 c5		 xor	 eax, ebp
  0001e	50		 push	 eax
  0001f	8d 45 f4	 lea	 eax, DWORD PTR __$EHRec$[ebp]
  00022	64 a3 00 00 00
	00		 mov	 DWORD PTR fs:0, eax
  00028	8b f9		 mov	 edi, ecx
; File C:\Program Files (x86)\Microsoft Visual Studio\2019\Community\VC\Tools\MSVC\14.28.29333\include\list

; 1092 :         return iterator(_Mypair._Myval2._Myhead->_Next, _STD addressof(_Mypair._Myval2));

  0002a	8b 9f 80 00 00
	00		 mov	 ebx, DWORD PTR [edi+128]
  00030	8d 87 80 00 00
	00		 lea	 eax, DWORD PTR [edi+128]
; File D:\Metin2 Server Files\mainline\SRC_2014\Metin2Client\eterPythonLib\PythonSlotWindow.cpp

; 664  : 	for (; itor != m_dwSelectedSlotIndexList.end();)

  00036	8b 75 08	 mov	 esi, DWORD PTR _dwSelectingIndex$[ebp]
; File C:\Program Files (x86)\Microsoft Visual Studio\2019\Community\VC\Tools\MSVC\14.28.29333\include\list

; 1092 :         return iterator(_Mypair._Myval2._Myhead->_Next, _STD addressof(_Mypair._Myval2));

  00039	89 45 f0	 mov	 DWORD PTR _this$1$[ebp], eax

; 39   :     _List_unchecked_const_iterator(_Nodeptr _Pnode, const _Mylist* _Plist) noexcept : _Ptr(_Pnode) {

  0003c	8b 03		 mov	 eax, DWORD PTR [ebx]
; File D:\Metin2 Server Files\mainline\SRC_2014\Metin2Client\eterPythonLib\PythonSlotWindow.cpp

; 664  : 	for (; itor != m_dwSelectedSlotIndexList.end();)

  0003e	3b c3		 cmp	 eax, ebx
  00040	74 0d		 je	 SHORT $LN3@SelectSlot
$LL2@SelectSlot:

; 665  : 	{
; 666  : 		if (dwSelectingIndex == *itor)

  00042	8b 08		 mov	 ecx, DWORD PTR [eax]
  00044	3b 70 08	 cmp	 esi, DWORD PTR [eax+8]
  00047	74 3f		 je	 SHORT $LN92@SelectSlot
; File C:\Program Files (x86)\Microsoft Visual Studio\2019\Community\VC\Tools\MSVC\14.28.29333\include\list

; 166  :         this->_Ptr = this->_Ptr->_Next;

  00049	8b c1		 mov	 eax, ecx
; File D:\Metin2 Server Files\mainline\SRC_2014\Metin2Client\eterPythonLib\PythonSlotWindow.cpp

; 664  : 	for (; itor != m_dwSelectedSlotIndexList.end();)

  0004b	3b cb		 cmp	 ecx, ebx
  0004d	75 f3		 jne	 SHORT $LL2@SelectSlot
$LN3@SelectSlot:

; 667  : 		{
; 668  : 			itor = m_dwSelectedSlotIndexList.erase(itor);
; 669  : 			return;
; 670  : 		}
; 671  : 		else
; 672  : 		{
; 673  : 			++itor;
; 674  : 		}
; 675  : 	}
; 676  : 
; 677  : 	TSlot * pSlot;
; 678  : 	if (GetSlotPointer(dwSelectingIndex, &pSlot))

  0004f	8d 45 08	 lea	 eax, DWORD PTR _pSlot$[ebp]
  00052	8b cf		 mov	 ecx, edi
  00054	50		 push	 eax
  00055	56		 push	 esi
  00056	e8 00 00 00 00	 call	 ?GetSlotPointer@CSlotWindow@UI@@IAEHKPAPAUSSlot@12@@Z ; UI::CSlotWindow::GetSlotPointer
  0005b	85 c0		 test	 eax, eax
  0005d	0f 84 a2 00 00
	00		 je	 $LN85@SelectSlot

; 679  : 	{
; 680  : 		if (!pSlot->isItem)

  00063	8b 45 08	 mov	 eax, DWORD PTR _pSlot$[ebp]
  00066	83 78 10 00	 cmp	 DWORD PTR [eax+16], 0
  0006a	0f 84 95 00 00
	00		 je	 $LN85@SelectSlot
; File C:\Program Files (x86)\Microsoft Visual Studio\2019\Community\VC\Tools\MSVC\14.28.29333\include\list

; 1014 :         if (_Mysize == max_size()) {

  00070	81 bf 84 00 00
	00 55 55 55 15	 cmp	 DWORD PTR [edi+132], 357913941 ; 15555555H
  0007a	8d 87 80 00 00
	00		 lea	 eax, DWORD PTR [edi+128]
  00080	0f 84 93 00 00
	00		 je	 $LN98@SelectSlot
  00086	eb 32		 jmp	 SHORT $LN59@SelectSlot
$LN92@SelectSlot:

; 396  :         _Pnode->_Prev->_Next = _Pnode->_Next;

  00088	8b 50 04	 mov	 edx, DWORD PTR [eax+4]
; File C:\Program Files (x86)\Microsoft Visual Studio\2019\Community\VC\Tools\MSVC\14.28.29333\include\xmemory

; 696  :         _Deallocate<_New_alignof<value_type>>(_Ptr, sizeof(value_type) * _Count);

  0008b	6a 0c		 push	 12			; 0000000cH
  0008d	50		 push	 eax
; File C:\Program Files (x86)\Microsoft Visual Studio\2019\Community\VC\Tools\MSVC\14.28.29333\include\list

; 396  :         _Pnode->_Prev->_Next = _Pnode->_Next;

  0008e	89 0a		 mov	 DWORD PTR [edx], ecx

; 397  :         _Pnode->_Next->_Prev = _Pnode->_Prev;

  00090	8b 10		 mov	 edx, DWORD PTR [eax]
  00092	8b 48 04	 mov	 ecx, DWORD PTR [eax+4]
  00095	89 4a 04	 mov	 DWORD PTR [edx+4], ecx

; 398  :         --_Mysize;

  00098	ff 8f 84 00 00
	00		 dec	 DWORD PTR [edi+132]
; File C:\Program Files (x86)\Microsoft Visual Studio\2019\Community\VC\Tools\MSVC\14.28.29333\include\xmemory

; 696  :         _Deallocate<_New_alignof<value_type>>(_Ptr, sizeof(value_type) * _Count);

  0009e	e8 00 00 00 00	 call	 ??$_Deallocate@$07$0A@@std@@YAXPAXI@Z ; std::_Deallocate<8,0>
  000a3	83 c4 08	 add	 esp, 8
; File D:\Metin2 Server Files\mainline\SRC_2014\Metin2Client\eterPythonLib\PythonSlotWindow.cpp

; 685  : }

  000a6	8b 4d f4	 mov	 ecx, DWORD PTR __$EHRec$[ebp]
  000a9	64 89 0d 00 00
	00 00		 mov	 DWORD PTR fs:0, ecx
  000b0	59		 pop	 ecx
  000b1	5f		 pop	 edi
  000b2	5e		 pop	 esi
  000b3	5b		 pop	 ebx
  000b4	8b e5		 mov	 esp, ebp
  000b6	5d		 pop	 ebp
  000b7	c2 04 00	 ret	 4
$LN59@SelectSlot:
; File C:\Program Files (x86)\Microsoft Visual Studio\2019\Community\VC\Tools\MSVC\14.28.29333\include\xmemory

; 1045 :     explicit _Alloc_construct_ptr(_Alloc& _Al_) : _Al(_Al_), _Ptr(nullptr) {}

  000ba	89 45 e8	 mov	 DWORD PTR __Op$2[ebp], eax

; 814  :         return static_cast<_Ty*>(_Allocate<_New_alignof<_Ty>>(_Get_size_of_n<sizeof(_Ty)>(_Count)));

  000bd	6a 0c		 push	 12			; 0000000cH
; File C:\Program Files (x86)\Microsoft Visual Studio\2019\Community\VC\Tools\MSVC\14.28.29333\include\list

; 585  :     explicit _List_node_emplace_op2(_Alnode& _Al_, _Valtys&&... _Vals) : _Alloc_construct_ptr<_Alnode>(_Al_) {

  000bf	c7 45 fc 00 00
	00 00		 mov	 DWORD PTR __$EHRec$[ebp+8], 0
; File C:\Program Files (x86)\Microsoft Visual Studio\2019\Community\VC\Tools\MSVC\14.28.29333\include\xmemory

; 1052 :         _Ptr = nullptr; // if allocate throws, prevents double-free

  000c6	c7 45 ec 00 00
	00 00		 mov	 DWORD PTR __Op$2[ebp+4], 0

; 814  :         return static_cast<_Ty*>(_Allocate<_New_alignof<_Ty>>(_Get_size_of_n<sizeof(_Ty)>(_Count)));

  000cd	e8 00 00 00 00	 call	 ??$_Allocate@$07U_Default_allocate_traits@std@@$0A@@std@@YAPAXI@Z ; std::_Allocate<8,std::_Default_allocate_traits,0>

; 1053 :         _Ptr = _Al.allocate(1);

  000d2	8b f8		 mov	 edi, eax
; File C:\Program Files (x86)\Microsoft Visual Studio\2019\Community\VC\Tools\MSVC\14.28.29333\include\list

; 1020 :         return _Op._Transfer_before(_Where);

  000d4	89 5d 08	 mov	 DWORD PTR __Insert_before$4[ebp], ebx
  000d7	8b 45 f0	 mov	 eax, DWORD PTR _this$1$[ebp]

; 587  :         _Alnode_traits::construct(this->_Al, _STD addressof(this->_Ptr->_Myval), _STD forward<_Valtys>(_Vals)...);

  000da	89 77 08	 mov	 DWORD PTR [edi+8], esi

; 1019 :         ++_Mysize;

  000dd	ff 40 04	 inc	 DWORD PTR [eax+4]

; 601  :         _Construct_in_place(this->_Ptr->_Next, _Insert_before);

  000e0	8d 45 08	 lea	 eax, DWORD PTR __Insert_before$4[ebp]
  000e3	8b 73 04	 mov	 esi, DWORD PTR [ebx+4]
  000e6	50		 push	 eax
  000e7	57		 push	 edi
  000e8	89 75 f0	 mov	 DWORD PTR __Insert_after$3[ebp], esi
  000eb	e8 00 00 00 00	 call	 ??$_Construct_in_place@PAU?$_List_node@KPAX@std@@ABQAU12@@std@@YAXAAPAU?$_List_node@KPAX@0@ABQAU10@@Z ; std::_Construct_in_place<std::_List_node<unsigned long,void *> *,std::_List_node<unsigned long,void *> * const &>

; 602  :         _Construct_in_place(this->_Ptr->_Prev, _Insert_after);

  000f0	8d 45 f0	 lea	 eax, DWORD PTR __Insert_after$3[ebp]
  000f3	50		 push	 eax
  000f4	8d 47 04	 lea	 eax, DWORD PTR [edi+4]
  000f7	50		 push	 eax
  000f8	e8 00 00 00 00	 call	 ??$_Construct_in_place@PAU?$_List_node@KPAX@std@@ABQAU12@@std@@YAXAAPAU?$_List_node@KPAX@0@ABQAU10@@Z ; std::_Construct_in_place<std::_List_node<unsigned long,void *> *,std::_List_node<unsigned long,void *> * const &>

; 603  :         const auto _Result    = this->_Ptr;
; 604  :         this->_Ptr            = pointer{};
; 605  :         _Insert_before->_Prev = _Result;

  000fd	89 7b 04	 mov	 DWORD PTR [ebx+4], edi
  00100	83 c4 14	 add	 esp, 20			; 00000014H

; 606  :         _Insert_after->_Next  = _Result;

  00103	89 3e		 mov	 DWORD PTR [esi], edi
$LN85@SelectSlot:
; File D:\Metin2 Server Files\mainline\SRC_2014\Metin2Client\eterPythonLib\PythonSlotWindow.cpp

; 685  : }

  00105	8b 4d f4	 mov	 ecx, DWORD PTR __$EHRec$[ebp]
  00108	64 89 0d 00 00
	00 00		 mov	 DWORD PTR fs:0, ecx
  0010f	59		 pop	 ecx
  00110	5f		 pop	 edi
  00111	5e		 pop	 esi
  00112	5b		 pop	 ebx
  00113	8b e5		 mov	 esp, ebp
  00115	5d		 pop	 ebp
  00116	c2 04 00	 ret	 4
$LN98@SelectSlot:
; File C:\Program Files (x86)\Microsoft Visual Studio\2019\Community\VC\Tools\MSVC\14.28.29333\include\list

; 1015 :             _Xlength_error("list too long");

  00119	68 00 00 00 00	 push	 OFFSET ??_C@_0O@NKNMEGII@list?5too?5long@
  0011e	e8 00 00 00 00	 call	 ?_Xlength_error@std@@YAXPBD@Z ; std::_Xlength_error
$LN96@SelectSlot:
  00123	cc		 int	 3
_TEXT	ENDS
;	COMDAT text$x
text$x	SEGMENT
__unwindfunclet$?SelectSlot@CSlotWindow@UI@@QAEXK@Z$1:
  00000	8d 4d e8	 lea	 ecx, DWORD PTR __Op$2[ebp]
  00003	e9 00 00 00 00	 jmp	 ??1?$_Alloc_construct_ptr@V?$allocator@U?$_List_node@KPAX@std@@@std@@@std@@QAE@XZ ; std::_Alloc_construct_ptr<std::allocator<std::_List_node<unsigned long,void *> > >::~_Alloc_construct_ptr<std::allocator<std::_List_node<unsigned long,void *> > >
  00008	cc		 int	 3
  00009	cc		 int	 3
  0000a	cc		 int	 3
  0000b	cc		 int	 3
  0000c	cc		 int	 3
__ehhandler$?SelectSlot@CSlotWindow@UI@@QAEXK@Z:
  0000d	90		 npad	 1
  0000e	90		 npad	 1
  0000f	8b 54 24 08	 mov	 edx, DWORD PTR [esp+8]
  00013	8d 42 0c	 lea	 eax, DWORD PTR [edx+12]
  00016	8b 4a e4	 mov	 ecx, DWORD PTR [edx-28]
  00019	33 c8		 xor	 ecx, eax
  0001b	e8 00 00 00 00	 call	 @__security_check_cookie@4
  00020	b8 00 00 00 00	 mov	 eax, OFFSET __ehfuncinfo$?SelectSlot@CSlotWindow@UI@@QAEXK@Z
  00025	e9 00 00 00 00	 jmp	 ___CxxFrameHandler3
text$x	ENDS
?SelectSlot@CSlotWindow@UI@@QAEXK@Z ENDP		; UI::CSlotWindow::SelectSlot
; Function compile flags: /Ogtp
; File D:\Metin2 Server Files\mainline\SRC_2014\Metin2Client\eterPythonLib\PythonSlotWindow.cpp
; File C:\Program Files (x86)\Microsoft Visual Studio\2019\Community\VC\Tools\MSVC\14.28.29333\include\list
; File C:\Program Files (x86)\Microsoft Visual Studio\2019\Community\VC\Tools\MSVC\14.28.29333\include\xmemory
; File C:\Program Files (x86)\Microsoft Visual Studio\2019\Community\VC\Tools\MSVC\14.28.29333\include\list
; File D:\Metin2 Server Files\mainline\SRC_2014\Metin2Client\eterPythonLib\PythonSlotWindow.cpp
;	COMDAT ?ClearSelected@CSlotWindow@UI@@QAEXXZ
_TEXT	SEGMENT
?ClearSelected@CSlotWindow@UI@@QAEXXZ PROC		; UI::CSlotWindow::ClearSelected, COMDAT
; _this$ = ecx

; 700  : {

  00000	57		 push	 edi
  00001	8b f9		 mov	 edi, ecx
; File C:\Program Files (x86)\Microsoft Visual Studio\2019\Community\VC\Tools\MSVC\14.28.29333\include\list

; 1429 :         _Node::_Free_non_head(_Getal(), _My_data._Myhead);

  00003	8b 97 80 00 00
	00		 mov	 edx, DWORD PTR [edi+128]

; 324  :         _Head->_Prev->_Next = nullptr;

  00009	8b 42 04	 mov	 eax, DWORD PTR [edx+4]
  0000c	c7 00 00 00 00
	00		 mov	 DWORD PTR [eax], 0

; 325  : 
; 326  :         auto _Pnode = _Head->_Next;

  00012	8b 02		 mov	 eax, DWORD PTR [edx]

; 327  :         for (_Nodeptr _Pnext; _Pnode; _Pnode = _Pnext) {

  00014	85 c0		 test	 eax, eax
  00016	74 1c		 je	 SHORT $LN7@ClearSelec
  00018	56		 push	 esi
  00019	0f 1f 80 00 00
	00 00		 npad	 7
$LL8@ClearSelec:

; 328  :             _Pnext = _Pnode->_Next;

  00020	8b 30		 mov	 esi, DWORD PTR [eax]
; File C:\Program Files (x86)\Microsoft Visual Studio\2019\Community\VC\Tools\MSVC\14.28.29333\include\xmemory

; 696  :         _Deallocate<_New_alignof<value_type>>(_Ptr, sizeof(value_type) * _Count);

  00022	6a 0c		 push	 12			; 0000000cH
  00024	50		 push	 eax
  00025	e8 00 00 00 00	 call	 ??$_Deallocate@$07$0A@@std@@YAXPAXI@Z ; std::_Deallocate<8,0>
  0002a	83 c4 08	 add	 esp, 8
; File C:\Program Files (x86)\Microsoft Visual Studio\2019\Community\VC\Tools\MSVC\14.28.29333\include\list

; 327  :         for (_Nodeptr _Pnext; _Pnode; _Pnode = _Pnext) {

  0002d	8b c6		 mov	 eax, esi
  0002f	85 f6		 test	 esi, esi
  00031	75 ed		 jne	 SHORT $LL8@ClearSelec
  00033	5e		 pop	 esi
$LN7@ClearSelec:

; 1430 :         _My_data._Myhead->_Next = _My_data._Myhead;

  00034	8b 87 80 00 00
	00		 mov	 eax, DWORD PTR [edi+128]
  0003a	89 00		 mov	 DWORD PTR [eax], eax

; 1431 :         _My_data._Myhead->_Prev = _My_data._Myhead;

  0003c	8b 87 80 00 00
	00		 mov	 eax, DWORD PTR [edi+128]
  00042	89 40 04	 mov	 DWORD PTR [eax+4], eax

; 1432 :         _My_data._Mysize        = 0;

  00045	c7 87 84 00 00
	00 00 00 00 00	 mov	 DWORD PTR [edi+132], 0
  0004f	5f		 pop	 edi
; File D:\Metin2 Server Files\mainline\SRC_2014\Metin2Client\eterPythonLib\PythonSlotWindow.cpp

; 702  : }

  00050	c3		 ret	 0
?ClearSelected@CSlotWindow@UI@@QAEXXZ ENDP		; UI::CSlotWindow::ClearSelected
_TEXT	ENDS
; Function compile flags: /Ogtp
; File D:\Metin2 Server Files\mainline\SRC_2014\Metin2Client\eterPythonLib\PythonSlotWindow.cpp
;	COMDAT ?DisableSlot@CSlotWindow@UI@@QAEXK@Z
_TEXT	SEGMENT
_pSlot$ = -4						; size = 4
_dwIndex$ = 8						; size = 4
?DisableSlot@CSlotWindow@UI@@QAEXK@Z PROC		; UI::CSlotWindow::DisableSlot, COMDAT
; _this$ = ecx

; 651  : {

  00000	55		 push	 ebp
  00001	8b ec		 mov	 ebp, esp
  00003	51		 push	 ecx

; 652  : 	TSlot * pSlot;
; 653  : 	if (!GetSlotPointer(dwIndex, &pSlot))

  00004	8d 45 fc	 lea	 eax, DWORD PTR _pSlot$[ebp]
  00007	50		 push	 eax
  00008	ff 75 08	 push	 DWORD PTR _dwIndex$[ebp]
  0000b	e8 00 00 00 00	 call	 ?GetSlotPointer@CSlotWindow@UI@@IAEHKPAPAUSSlot@12@@Z ; UI::CSlotWindow::GetSlotPointer
  00010	85 c0		 test	 eax, eax
  00012	74 06		 je	 SHORT $LN1@DisableSlo

; 654  : 		return;
; 655  : 	SET_BIT(pSlot->dwState, SLOT_STATE_DISABLE);

  00014	8b 45 fc	 mov	 eax, DWORD PTR _pSlot$[ebp]
  00017	83 08 04	 or	 DWORD PTR [eax], 4
$LN1@DisableSlo:

; 656  : 	//pSlot->dwState ^= SLOT_STATE_DISABLE;
; 657  : }

  0001a	8b e5		 mov	 esp, ebp
  0001c	5d		 pop	 ebp
  0001d	c2 04 00	 ret	 4
?DisableSlot@CSlotWindow@UI@@QAEXK@Z ENDP		; UI::CSlotWindow::DisableSlot
_TEXT	ENDS
; Function compile flags: /Ogtp
; File D:\Metin2 Server Files\mainline\SRC_2014\Metin2Client\eterPythonLib\PythonSlotWindow.cpp
;	COMDAT ?EnableSlot@CSlotWindow@UI@@QAEXK@Z
_TEXT	SEGMENT
_pSlot$ = -4						; size = 4
_dwIndex$ = 8						; size = 4
?EnableSlot@CSlotWindow@UI@@QAEXK@Z PROC		; UI::CSlotWindow::EnableSlot, COMDAT
; _this$ = ecx

; 642  : {

  00000	55		 push	 ebp
  00001	8b ec		 mov	 ebp, esp
  00003	51		 push	 ecx

; 643  : 	TSlot * pSlot;
; 644  : 	if (!GetSlotPointer(dwIndex, &pSlot))

  00004	8d 45 fc	 lea	 eax, DWORD PTR _pSlot$[ebp]
  00007	50		 push	 eax
  00008	ff 75 08	 push	 DWORD PTR _dwIndex$[ebp]
  0000b	e8 00 00 00 00	 call	 ?GetSlotPointer@CSlotWindow@UI@@IAEHKPAPAUSSlot@12@@Z ; UI::CSlotWindow::GetSlotPointer
  00010	85 c0		 test	 eax, eax
  00012	74 06		 je	 SHORT $LN1@EnableSlot

; 645  : 		return;
; 646  : 
; 647  : 	REMOVE_BIT(pSlot->dwState, SLOT_STATE_DISABLE);

  00014	8b 45 fc	 mov	 eax, DWORD PTR _pSlot$[ebp]
  00017	83 20 fb	 and	 DWORD PTR [eax], -5	; fffffffbH
$LN1@EnableSlot:

; 648  : 	//pSlot->dwState |= SLOT_STATE_DISABLE;
; 649  : }

  0001a	8b e5		 mov	 esp, ebp
  0001c	5d		 pop	 ebp
  0001d	c2 04 00	 ret	 4
?EnableSlot@CSlotWindow@UI@@QAEXK@Z ENDP		; UI::CSlotWindow::EnableSlot
_TEXT	ENDS
; Function compile flags: /Ogtp
; File D:\Metin2 Server Files\mainline\SRC_2014\Metin2Client\eterPythonLib\PythonSlotWindow.cpp
;	COMDAT ?SetUseSlot@CSlotWindow@UI@@QAEXK@Z
_TEXT	SEGMENT
_pSlot$ = -4						; size = 4
_dwIndex$ = 8						; size = 4
?SetUseSlot@CSlotWindow@UI@@QAEXK@Z PROC		; UI::CSlotWindow::SetUseSlot, COMDAT
; _this$ = ecx

; 634  : {

  00000	55		 push	 ebp
  00001	8b ec		 mov	 ebp, esp
  00003	51		 push	 ecx

; 635  : 	TSlot * pSlot;
; 636  : 	if (!GetSlotPointer(dwIndex, &pSlot))

  00004	8d 45 fc	 lea	 eax, DWORD PTR _pSlot$[ebp]
  00007	50		 push	 eax
  00008	ff 75 08	 push	 DWORD PTR _dwIndex$[ebp]
  0000b	e8 00 00 00 00	 call	 ?GetSlotPointer@CSlotWindow@UI@@IAEHKPAPAUSSlot@12@@Z ; UI::CSlotWindow::GetSlotPointer
  00010	85 c0		 test	 eax, eax
  00012	74 06		 je	 SHORT $LN1@SetUseSlot

; 637  : 		return;
; 638  : 
; 639  : 	pSlot->dwState ^= SLOT_STATE_CANT_USE;

  00014	8b 45 fc	 mov	 eax, DWORD PTR _pSlot$[ebp]
  00017	83 30 02	 xor	 DWORD PTR [eax], 2
$LN1@SetUseSlot:

; 640  : }

  0001a	8b e5		 mov	 esp, ebp
  0001c	5d		 pop	 ebp
  0001d	c2 04 00	 ret	 4
?SetUseSlot@CSlotWindow@UI@@QAEXK@Z ENDP		; UI::CSlotWindow::SetUseSlot
_TEXT	ENDS
; Function compile flags: /Ogtp
; File D:\Metin2 Server Files\mainline\SRC_2014\Metin2Client\eterPythonLib\PythonSlotWindow.cpp
;	COMDAT ?SetCantUseSlot@CSlotWindow@UI@@QAEXK@Z
_TEXT	SEGMENT
_pSlot$ = -4						; size = 4
_dwIndex$ = 8						; size = 4
?SetCantUseSlot@CSlotWindow@UI@@QAEXK@Z PROC		; UI::CSlotWindow::SetCantUseSlot, COMDAT
; _this$ = ecx

; 626  : {

  00000	55		 push	 ebp
  00001	8b ec		 mov	 ebp, esp
  00003	51		 push	 ecx

; 627  : 	TSlot * pSlot;
; 628  : 	if (!GetSlotPointer(dwIndex, &pSlot))

  00004	8d 45 fc	 lea	 eax, DWORD PTR _pSlot$[ebp]
  00007	50		 push	 eax
  00008	ff 75 08	 push	 DWORD PTR _dwIndex$[ebp]
  0000b	e8 00 00 00 00	 call	 ?GetSlotPointer@CSlotWindow@UI@@IAEHKPAPAUSSlot@12@@Z ; UI::CSlotWindow::GetSlotPointer
  00010	85 c0		 test	 eax, eax
  00012	74 06		 je	 SHORT $LN1@SetCantUse

; 629  : 		return;
; 630  : 
; 631  : 	pSlot->dwState |= SLOT_STATE_CANT_USE;

  00014	8b 45 fc	 mov	 eax, DWORD PTR _pSlot$[ebp]
  00017	83 08 02	 or	 DWORD PTR [eax], 2
$LN1@SetCantUse:

; 632  : }

  0001a	8b e5		 mov	 esp, ebp
  0001c	5d		 pop	 ebp
  0001d	c2 04 00	 ret	 4
?SetCantUseSlot@CSlotWindow@UI@@QAEXK@Z ENDP		; UI::CSlotWindow::SetCantUseSlot
_TEXT	ENDS
; Function compile flags: /Ogtp
; File D:\Metin2 Server Files\mainline\SRC_2014\Metin2Client\eterPythonLib\PythonSlotWindow.cpp
;	COMDAT ?UnlockSlot@CSlotWindow@UI@@QAEXK@Z
_TEXT	SEGMENT
_pSlot$ = -4						; size = 4
_dwIndex$ = 8						; size = 4
?UnlockSlot@CSlotWindow@UI@@QAEXK@Z PROC		; UI::CSlotWindow::UnlockSlot, COMDAT
; _this$ = ecx

; 618  : {

  00000	55		 push	 ebp
  00001	8b ec		 mov	 ebp, esp
  00003	51		 push	 ecx

; 619  : 	TSlot * pSlot;
; 620  : 	if (!GetSlotPointer(dwIndex, &pSlot))

  00004	8d 45 fc	 lea	 eax, DWORD PTR _pSlot$[ebp]
  00007	50		 push	 eax
  00008	ff 75 08	 push	 DWORD PTR _dwIndex$[ebp]
  0000b	e8 00 00 00 00	 call	 ?GetSlotPointer@CSlotWindow@UI@@IAEHKPAPAUSSlot@12@@Z ; UI::CSlotWindow::GetSlotPointer
  00010	85 c0		 test	 eax, eax
  00012	74 06		 je	 SHORT $LN1@UnlockSlot

; 621  : 		return;
; 622  : 
; 623  : 	pSlot->dwState ^= SLOT_STATE_LOCK;

  00014	8b 45 fc	 mov	 eax, DWORD PTR _pSlot$[ebp]
  00017	83 30 01	 xor	 DWORD PTR [eax], 1
$LN1@UnlockSlot:

; 624  : }

  0001a	8b e5		 mov	 esp, ebp
  0001c	5d		 pop	 ebp
  0001d	c2 04 00	 ret	 4
?UnlockSlot@CSlotWindow@UI@@QAEXK@Z ENDP		; UI::CSlotWindow::UnlockSlot
_TEXT	ENDS
; Function compile flags: /Ogtp
; File D:\Metin2 Server Files\mainline\SRC_2014\Metin2Client\eterPythonLib\PythonSlotWindow.cpp
;	COMDAT ?LockSlot@CSlotWindow@UI@@QAEXK@Z
_TEXT	SEGMENT
_pSlot$ = -4						; size = 4
_dwIndex$ = 8						; size = 4
?LockSlot@CSlotWindow@UI@@QAEXK@Z PROC			; UI::CSlotWindow::LockSlot, COMDAT
; _this$ = ecx

; 610  : {

  00000	55		 push	 ebp
  00001	8b ec		 mov	 ebp, esp
  00003	51		 push	 ecx

; 611  : 	TSlot * pSlot;
; 612  : 	if (!GetSlotPointer(dwIndex, &pSlot))

  00004	8d 45 fc	 lea	 eax, DWORD PTR _pSlot$[ebp]
  00007	50		 push	 eax
  00008	ff 75 08	 push	 DWORD PTR _dwIndex$[ebp]
  0000b	e8 00 00 00 00	 call	 ?GetSlotPointer@CSlotWindow@UI@@IAEHKPAPAUSSlot@12@@Z ; UI::CSlotWindow::GetSlotPointer
  00010	85 c0		 test	 eax, eax
  00012	74 06		 je	 SHORT $LN1@LockSlot

; 613  : 		return;
; 614  : 
; 615  : 	pSlot->dwState |= SLOT_STATE_LOCK;

  00014	8b 45 fc	 mov	 eax, DWORD PTR _pSlot$[ebp]
  00017	83 08 01	 or	 DWORD PTR [eax], 1
$LN1@LockSlot:

; 616  : }

  0001a	8b e5		 mov	 esp, ebp
  0001c	5d		 pop	 ebp
  0001d	c2 04 00	 ret	 4
?LockSlot@CSlotWindow@UI@@QAEXK@Z ENDP			; UI::CSlotWindow::LockSlot
_TEXT	ENDS
; Function compile flags: /Ogtp
; File D:\Metin2 Server Files\mainline\SRC_2014\Metin2Client\eterPythonLib\PythonSlotWindow.cpp
;	COMDAT ?GetSlotCount@CSlotWindow@UI@@QAEKXZ
_TEXT	SEGMENT
?GetSlotCount@CSlotWindow@UI@@QAEKXZ PROC		; UI::CSlotWindow::GetSlotCount, COMDAT
; _this$ = ecx

; 606  : 	return m_SlotList.size();

  00000	8b 81 8c 00 00
	00		 mov	 eax, DWORD PTR [ecx+140]

; 607  : }

  00006	c3		 ret	 0
?GetSlotCount@CSlotWindow@UI@@QAEKXZ ENDP		; UI::CSlotWindow::GetSlotCount
_TEXT	ENDS
; Function compile flags: /Ogtp
; File D:\Metin2 Server Files\mainline\SRC_2014\Metin2Client\eterPythonLib\PythonSlotWindow.cpp
;	COMDAT ?RefreshSlot@CSlotWindow@UI@@QAEXXZ
_TEXT	SEGMENT
_pSlot$1 = -4						; size = 4
?RefreshSlot@CSlotWindow@UI@@QAEXXZ PROC		; UI::CSlotWindow::RefreshSlot, COMDAT
; _this$ = ecx

; 585  : {

  00000	55		 push	 ebp
  00001	8b ec		 mov	 ebp, esp
  00003	51		 push	 ecx
  00004	56		 push	 esi
  00005	8b f1		 mov	 esi, ecx

; 586  : 	OnRefreshSlot();

  00007	8b 06		 mov	 eax, DWORD PTR [esi]
  00009	ff 90 a0 00 00
	00		 call	 DWORD PTR [eax+160]

; 587  : 
; 588  : 	// NOTE : Refresh  ToolTip    - [levites]
; 589  : 	if (IsRendering())

  0000f	8b ce		 mov	 ecx, esi
  00011	e8 00 00 00 00	 call	 ?IsRendering@CWindow@UI@@QAE_NXZ ; UI::CWindow::IsRendering
  00016	84 c0		 test	 al, al
  00018	74 26		 je	 SHORT $LN3@RefreshSlo

; 590  : 	{
; 591  : 		TSlot * pSlot;
; 592  : 		if (GetPickedSlotPointer(&pSlot))

  0001a	8b 06		 mov	 eax, DWORD PTR [esi]
  0001c	8d 4d fc	 lea	 ecx, DWORD PTR _pSlot$1[ebp]
  0001f	51		 push	 ecx
  00020	8b ce		 mov	 ecx, esi
  00022	ff 90 9c 00 00
	00		 call	 DWORD PTR [eax+156]
  00028	85 c0		 test	 eax, eax
  0002a	74 14		 je	 SHORT $LN3@RefreshSlo

; 593  : 		{
; 594  : 			OnOverOutItem();

  0002c	8b ce		 mov	 ecx, esi
  0002e	e8 00 00 00 00	 call	 ?OnOverOutItem@CSlotWindow@UI@@QAEXXZ ; UI::CSlotWindow::OnOverOutItem

; 595  : 			OnOverInItem(pSlot->dwSlotNumber);

  00033	8b 45 fc	 mov	 eax, DWORD PTR _pSlot$1[ebp]
  00036	8b ce		 mov	 ecx, esi
  00038	ff 70 04	 push	 DWORD PTR [eax+4]
  0003b	e8 00 00 00 00	 call	 ?OnOverInItem@CSlotWindow@UI@@QAEHK@Z ; UI::CSlotWindow::OnOverInItem
$LN3@RefreshSlo:
  00040	5e		 pop	 esi

; 596  : 		}
; 597  : 	}
; 598  : }

  00041	8b e5		 mov	 esp, ebp
  00043	5d		 pop	 ebp
  00044	c3		 ret	 0
?RefreshSlot@CSlotWindow@UI@@QAEXXZ ENDP		; UI::CSlotWindow::RefreshSlot
_TEXT	ENDS
; Function compile flags: /Ogtp
; File D:\Metin2 Server Files\mainline\SRC_2014\Metin2Client\eterPythonLib\PythonSlotWindow.cpp
;	COMDAT ?DeactivateSlot@CSlotWindow@UI@@QAEXK@Z
_TEXT	SEGMENT
_pSlot$ = -4						; size = 4
_dwIndex$ = 8						; size = 4
?DeactivateSlot@CSlotWindow@UI@@QAEXK@Z PROC		; UI::CSlotWindow::DeactivateSlot, COMDAT
; _this$ = ecx

; 524  : {

  00000	55		 push	 ebp
  00001	8b ec		 mov	 ebp, esp
  00003	51		 push	 ecx

; 525  : 	TSlot * pSlot;
; 526  : 	if (!GetSlotPointer(dwIndex, &pSlot))

  00004	8d 45 fc	 lea	 eax, DWORD PTR _pSlot$[ebp]
  00007	50		 push	 eax
  00008	ff 75 08	 push	 DWORD PTR _dwIndex$[ebp]
  0000b	e8 00 00 00 00	 call	 ?GetSlotPointer@CSlotWindow@UI@@IAEHKPAPAUSSlot@12@@Z ; UI::CSlotWindow::GetSlotPointer
  00010	85 c0		 test	 eax, eax
  00012	74 0a		 je	 SHORT $LN1@Deactivate

; 527  : 		return;
; 528  : 
; 529  : 	pSlot->bActive = FALSE;

  00014	8b 45 fc	 mov	 eax, DWORD PTR _pSlot$[ebp]
  00017	c7 40 1c 00 00
	00 00		 mov	 DWORD PTR [eax+28], 0
$LN1@Deactivate:

; 530  : }

  0001e	8b e5		 mov	 esp, ebp
  00020	5d		 pop	 ebp
  00021	c2 04 00	 ret	 4
?DeactivateSlot@CSlotWindow@UI@@QAEXK@Z ENDP		; UI::CSlotWindow::DeactivateSlot
_TEXT	ENDS
; Function compile flags: /Ogtp
; File D:\Metin2 Server Files\mainline\SRC_2014\Metin2Client\eterPythonLib\PythonSlotWindow.cpp
;	COMDAT ?ActivateSlot@CSlotWindow@UI@@QAEXK@Z
_TEXT	SEGMENT
_pSlot$ = -4						; size = 4
_dwIndex$ = 8						; size = 4
?ActivateSlot@CSlotWindow@UI@@QAEXK@Z PROC		; UI::CSlotWindow::ActivateSlot, COMDAT
; _this$ = ecx

; 510  : {

  00000	55		 push	 ebp
  00001	8b ec		 mov	 ebp, esp
  00003	51		 push	 ecx
  00004	56		 push	 esi

; 511  : 	TSlot * pSlot;
; 512  : 	if (!GetSlotPointer(dwIndex, &pSlot))

  00005	8d 45 fc	 lea	 eax, DWORD PTR _pSlot$[ebp]
  00008	8b f1		 mov	 esi, ecx
  0000a	50		 push	 eax
  0000b	ff 75 08	 push	 DWORD PTR _dwIndex$[ebp]
  0000e	e8 00 00 00 00	 call	 ?GetSlotPointer@CSlotWindow@UI@@IAEHKPAPAUSSlot@12@@Z ; UI::CSlotWindow::GetSlotPointer
  00013	85 c0		 test	 eax, eax
  00015	74 1a		 je	 SHORT $LN3@ActivateSl

; 513  : 		return;
; 514  : 
; 515  : 	pSlot->bActive = TRUE;

  00017	8b 45 fc	 mov	 eax, DWORD PTR _pSlot$[ebp]
  0001a	c7 40 1c 01 00
	00 00		 mov	 DWORD PTR [eax+28], 1

; 516  : 
; 517  : 	if (!m_pSlotActiveEffect)

  00021	83 be a4 00 00
	00 00		 cmp	 DWORD PTR [esi+164], 0
  00028	75 07		 jne	 SHORT $LN3@ActivateSl

; 518  : 	{
; 519  : 		__CreateSlotEnableEffect();

  0002a	8b ce		 mov	 ecx, esi
  0002c	e8 00 00 00 00	 call	 ?__CreateSlotEnableEffect@CSlotWindow@UI@@IAEXXZ ; UI::CSlotWindow::__CreateSlotEnableEffect
$LN3@ActivateSl:
  00031	5e		 pop	 esi

; 520  : 	}
; 521  : }

  00032	8b e5		 mov	 esp, ebp
  00034	5d		 pop	 ebp
  00035	c2 04 00	 ret	 4
?ActivateSlot@CSlotWindow@UI@@QAEXK@Z ENDP		; UI::CSlotWindow::ActivateSlot
_TEXT	ENDS
; Function compile flags: /Ogtp
; File D:\Metin2 Server Files\mainline\SRC_2014\Metin2Client\eterPythonLib\PythonSlotWindow.cpp
;	COMDAT ?SetSlotCoolTime@CSlotWindow@UI@@QAEXKMM@Z
_TEXT	SEGMENT
_pSlot$ = -4						; size = 4
_dwIndex$ = 8						; size = 4
_fCoolTime$ = 12					; size = 4
_fElapsedTime$ = 16					; size = 4
?SetSlotCoolTime@CSlotWindow@UI@@QAEXKMM@Z PROC		; UI::CSlotWindow::SetSlotCoolTime, COMDAT
; _this$ = ecx

; 500  : {

  00000	55		 push	 ebp
  00001	8b ec		 mov	 ebp, esp
  00003	51		 push	 ecx

; 501  : 	TSlot * pSlot;
; 502  : 	if (!GetSlotPointer(dwIndex, &pSlot))

  00004	8d 45 fc	 lea	 eax, DWORD PTR _pSlot$[ebp]
  00007	50		 push	 eax
  00008	ff 75 08	 push	 DWORD PTR _dwIndex$[ebp]
  0000b	e8 00 00 00 00	 call	 ?GetSlotPointer@CSlotWindow@UI@@IAEHKPAPAUSSlot@12@@Z ; UI::CSlotWindow::GetSlotPointer
  00010	85 c0		 test	 eax, eax
  00012	74 20		 je	 SHORT $LN1@SetSlotCoo

; 503  : 		return;
; 504  : 
; 505  : 	pSlot->fCoolTime = fCoolTime;

  00014	f3 0f 10 45 0c	 movss	 xmm0, DWORD PTR _fCoolTime$[ebp]
  00019	56		 push	 esi
  0001a	8b 75 fc	 mov	 esi, DWORD PTR _pSlot$[ebp]
  0001d	f3 0f 11 46 14	 movss	 DWORD PTR [esi+20], xmm0

; 506  : 	pSlot->fStartCoolTime = CTimer::Instance().GetCurrentSecond() - fElapsedTime;

  00022	8b 0d 00 00 00
	00		 mov	 ecx, DWORD PTR ?ms_singleton@?$CSingleton@VCTimer@@@@0PAVCTimer@@A ; CSingleton<CTimer>::ms_singleton
  00028	e8 00 00 00 00	 call	 ?GetCurrentSecond@CTimer@@QAEMXZ ; CTimer::GetCurrentSecond
  0002d	d8 65 10	 fsub	 DWORD PTR _fElapsedTime$[ebp]
  00030	d9 5e 18	 fstp	 DWORD PTR [esi+24]
  00033	5e		 pop	 esi
$LN1@SetSlotCoo:

; 507  : }

  00034	8b e5		 mov	 esp, ebp
  00036	5d		 pop	 ebp
  00037	c2 0c 00	 ret	 12			; 0000000cH
?SetSlotCoolTime@CSlotWindow@UI@@QAEXKMM@Z ENDP		; UI::CSlotWindow::SetSlotCoolTime
_TEXT	ENDS
; Function compile flags: /Ogtp
; File D:\Metin2 Server Files\mainline\SRC_2014\Metin2Client\eterPythonLib\PythonSlotWindow.cpp
;	COMDAT ?SetSlotCountNew@CSlotWindow@UI@@QAEXKKK@Z
_TEXT	SEGMENT
$T2 = -40						; size = 4
_pSlot$ = -40						; size = 4
_szCount$3 = -36					; size = 17
__$ArrayPad$ = -16					; size = 4
__$EHRec$ = -12						; size = 12
_dwIndex$ = 8						; size = 4
_dwGrade$ = 12						; size = 4
_dwCount$ = 16						; size = 4
?SetSlotCountNew@CSlotWindow@UI@@QAEXKKK@Z PROC		; UI::CSlotWindow::SetSlotCountNew, COMDAT
; _this$ = ecx

; 454  : {

  00000	55		 push	 ebp
  00001	8b ec		 mov	 ebp, esp
  00003	6a ff		 push	 -1
  00005	68 00 00 00 00	 push	 __ehhandler$?SetSlotCountNew@CSlotWindow@UI@@QAEXKKK@Z
  0000a	64 a1 00 00 00
	00		 mov	 eax, DWORD PTR fs:0
  00010	50		 push	 eax
  00011	83 ec 1c	 sub	 esp, 28			; 0000001cH
  00014	a1 00 00 00 00	 mov	 eax, DWORD PTR ___security_cookie
  00019	33 c5		 xor	 eax, ebp
  0001b	89 45 f0	 mov	 DWORD PTR __$ArrayPad$[ebp], eax
  0001e	53		 push	 ebx
  0001f	56		 push	 esi
  00020	57		 push	 edi
  00021	50		 push	 eax
  00022	8d 45 f4	 lea	 eax, DWORD PTR __$EHRec$[ebp]
  00025	64 a3 00 00 00
	00		 mov	 DWORD PTR fs:0, eax
  0002b	8b d9		 mov	 ebx, ecx

; 455  : 	TSlot * pSlot;
; 456  : 	if (!GetSlotPointer(dwIndex, &pSlot))

  0002d	8d 45 d8	 lea	 eax, DWORD PTR _pSlot$[ebp]
  00030	50		 push	 eax
  00031	ff 75 08	 push	 DWORD PTR _dwIndex$[ebp]
  00034	e8 00 00 00 00	 call	 ?GetSlotPointer@CSlotWindow@UI@@IAEHKPAPAUSSlot@12@@Z ; UI::CSlotWindow::GetSlotPointer
  00039	85 c0		 test	 eax, eax
  0003b	0f 84 df 00 00
	00		 je	 $LN6@SetSlotCou

; 457  : 		return;
; 458  : 
; 459  : 	if (dwCount <= 0)

  00041	8b 45 10	 mov	 eax, DWORD PTR _dwCount$[ebp]
  00044	85 c0		 test	 eax, eax
  00046	75 20		 jne	 SHORT $LN5@SetSlotCou

; 460  : 	{
; 461  : 		if (pSlot->pNumberLine)

  00048	8b 75 d8	 mov	 esi, DWORD PTR _pSlot$[ebp]
  0004b	8b 4e 38	 mov	 ecx, DWORD PTR [esi+56]
  0004e	85 c9		 test	 ecx, ecx
  00050	0f 84 ca 00 00
	00		 je	 $LN6@SetSlotCou

; 462  : 		{
; 463  : 			delete pSlot->pNumberLine;

  00056	8b 01		 mov	 eax, DWORD PTR [ecx]
  00058	6a 01		 push	 1
  0005a	ff 10		 call	 DWORD PTR [eax]

; 464  : 			pSlot->pNumberLine = NULL;

  0005c	c7 46 38 00 00
	00 00		 mov	 DWORD PTR [esi+56], 0

; 465  : 		}
; 466  : 	}

  00063	e9 b8 00 00 00	 jmp	 $LN6@SetSlotCou
$LN5@SetSlotCou:

; 467  : 	else
; 468  : 	{
; 469  : 		char szCount[16+1];
; 470  : 
; 471  : 		switch (dwGrade)

  00068	8b 4d 0c	 mov	 ecx, DWORD PTR _dwGrade$[ebp]
  0006b	83 f9 03	 cmp	 ecx, 3
  0006e	77 5c		 ja	 SHORT $LN2@SetSlotCou
  00070	ff 24 8d 00 00
	00 00		 jmp	 DWORD PTR $LN19@SetSlotCou[ecx*4]
$LN8@SetSlotCou:

; 472  : 		{
; 473  : 			case 0:
; 474  : 				_snprintf(szCount, sizeof(szCount), "%d", dwCount);

  00077	50		 push	 eax
  00078	68 00 00 00 00	 push	 OFFSET ??_C@_02DPKJAMEF@?$CFd@
  0007d	8d 45 dc	 lea	 eax, DWORD PTR _szCount$3[ebp]
  00080	6a 11		 push	 17			; 00000011H
  00082	50		 push	 eax
  00083	e8 00 00 00 00	 call	 __snprintf
  00088	83 c4 10	 add	 esp, 16			; 00000010H

; 475  : 				break;

  0008b	eb 3f		 jmp	 SHORT $LN2@SetSlotCou
$LN9@SetSlotCou:

; 476  : 			case 1:
; 477  : 				_snprintf(szCount, sizeof(szCount), "m%d", dwCount);

  0008d	50		 push	 eax
  0008e	68 00 00 00 00	 push	 OFFSET ??_C@_03CIOACFJF@m?$CFd@
  00093	8d 45 dc	 lea	 eax, DWORD PTR _szCount$3[ebp]
  00096	6a 11		 push	 17			; 00000011H
  00098	50		 push	 eax
  00099	e8 00 00 00 00	 call	 __snprintf
  0009e	83 c4 10	 add	 esp, 16			; 00000010H

; 478  : 				break;

  000a1	eb 29		 jmp	 SHORT $LN2@SetSlotCou
$LN10@SetSlotCou:

; 479  : 			case 2:
; 480  : 				_snprintf(szCount, sizeof(szCount), "g%d", dwCount);

  000a3	50		 push	 eax
  000a4	68 00 00 00 00	 push	 OFFSET ??_C@_03EHFNMFPB@g?$CFd@
  000a9	8d 45 dc	 lea	 eax, DWORD PTR _szCount$3[ebp]
  000ac	6a 11		 push	 17			; 00000011H
  000ae	50		 push	 eax
  000af	e8 00 00 00 00	 call	 __snprintf
  000b4	83 c4 10	 add	 esp, 16			; 00000010H

; 481  : 				break;

  000b7	eb 13		 jmp	 SHORT $LN2@SetSlotCou
$LN11@SetSlotCou:

; 482  : 			case 3:
; 483  : 				_snprintf(szCount, sizeof(szCount), "p");

  000b9	68 00 00 00 00	 push	 OFFSET ??_C@_01JBBJJEPG@p@
  000be	8d 45 dc	 lea	 eax, DWORD PTR _szCount$3[ebp]
  000c1	6a 11		 push	 17			; 00000011H
  000c3	50		 push	 eax
  000c4	e8 00 00 00 00	 call	 __snprintf
  000c9	83 c4 0c	 add	 esp, 12			; 0000000cH
$LN2@SetSlotCou:

; 484  : 				break;
; 485  : 		}
; 486  : 
; 487  : 		if (!pSlot->pNumberLine)

  000cc	8b 7d d8	 mov	 edi, DWORD PTR _pSlot$[ebp]
  000cf	8b 77 38	 mov	 esi, DWORD PTR [edi+56]
  000d2	85 f6		 test	 esi, esi
  000d4	75 3f		 jne	 SHORT $LN12@SetSlotCou

; 488  : 		{
; 489  : 			CNumberLine * pNumberLine = new UI::CNumberLine(this);

  000d6	68 bc 00 00 00	 push	 188			; 000000bcH
  000db	e8 00 00 00 00	 call	 ??2@YAPAXI@Z		; operator new
  000e0	83 c4 04	 add	 esp, 4
  000e3	89 45 d8	 mov	 DWORD PTR $T2[ebp], eax
  000e6	89 75 fc	 mov	 DWORD PTR __$EHRec$[ebp+8], esi
  000e9	85 c0		 test	 eax, eax
  000eb	74 0c		 je	 SHORT $LN16@SetSlotCou
  000ed	53		 push	 ebx
  000ee	8b c8		 mov	 ecx, eax
  000f0	e8 00 00 00 00	 call	 ??0CNumberLine@UI@@QAE@PAVCWindow@1@@Z ; UI::CNumberLine::CNumberLine
  000f5	8b f0		 mov	 esi, eax
  000f7	eb 02		 jmp	 SHORT $LN17@SetSlotCou
$LN16@SetSlotCou:
  000f9	33 f6		 xor	 esi, esi
$LN17@SetSlotCou:

; 490  : 			pNumberLine->SetHorizontalAlign(CNumberLine::HORIZONTAL_ALIGN_RIGHT);

  000fb	6a 02		 push	 2
  000fd	8b ce		 mov	 ecx, esi
  000ff	c7 45 fc ff ff
	ff ff		 mov	 DWORD PTR __$EHRec$[ebp+8], -1
  00106	e8 00 00 00 00	 call	 ?SetHorizontalAlign@CNumberLine@UI@@QAEXH@Z ; UI::CNumberLine::SetHorizontalAlign

; 491  : 			pNumberLine->Show();

  0010b	8b ce		 mov	 ecx, esi
  0010d	e8 00 00 00 00	 call	 ?Show@CWindow@UI@@QAEXXZ ; UI::CWindow::Show

; 492  : 			pSlot->pNumberLine = pNumberLine;

  00112	89 77 38	 mov	 DWORD PTR [edi+56], esi
$LN12@SetSlotCou:

; 493  : 		}
; 494  : 
; 495  : 		pSlot->pNumberLine->SetNumber(szCount);

  00115	8d 45 dc	 lea	 eax, DWORD PTR _szCount$3[ebp]
  00118	8b ce		 mov	 ecx, esi
  0011a	50		 push	 eax
  0011b	e8 00 00 00 00	 call	 ?SetNumber@CNumberLine@UI@@QAEXPBD@Z ; UI::CNumberLine::SetNumber
$LN6@SetSlotCou:

; 496  : 	}
; 497  : }

  00120	8b 4d f4	 mov	 ecx, DWORD PTR __$EHRec$[ebp]
  00123	64 89 0d 00 00
	00 00		 mov	 DWORD PTR fs:0, ecx
  0012a	59		 pop	 ecx
  0012b	5f		 pop	 edi
  0012c	5e		 pop	 esi
  0012d	5b		 pop	 ebx
  0012e	8b 4d f0	 mov	 ecx, DWORD PTR __$ArrayPad$[ebp]
  00131	33 cd		 xor	 ecx, ebp
  00133	e8 00 00 00 00	 call	 @__security_check_cookie@4
  00138	8b e5		 mov	 esp, ebp
  0013a	5d		 pop	 ebp
  0013b	c2 0c 00	 ret	 12			; 0000000cH
  0013e	66 90		 npad	 2
$LN19@SetSlotCou:
  00140	00 00 00 00	 DD	 $LN8@SetSlotCou
  00144	00 00 00 00	 DD	 $LN9@SetSlotCou
  00148	00 00 00 00	 DD	 $LN10@SetSlotCou
  0014c	00 00 00 00	 DD	 $LN11@SetSlotCou
_TEXT	ENDS
;	COMDAT text$x
text$x	SEGMENT
__unwindfunclet$?SetSlotCountNew@CSlotWindow@UI@@QAEXKKK@Z$0:
  00000	68 bc 00 00 00	 push	 188			; 000000bcH
  00005	8b 45 d8	 mov	 eax, DWORD PTR $T2[ebp]
  00008	50		 push	 eax
  00009	e8 00 00 00 00	 call	 ??3@YAXPAXI@Z		; operator delete
  0000e	83 c4 08	 add	 esp, 8
  00011	c3		 ret	 0
  00012	cc		 int	 3
  00013	cc		 int	 3
  00014	cc		 int	 3
  00015	cc		 int	 3
  00016	cc		 int	 3
__ehhandler$?SetSlotCountNew@CSlotWindow@UI@@QAEXKKK@Z:
  00017	90		 npad	 1
  00018	90		 npad	 1
  00019	8b 54 24 08	 mov	 edx, DWORD PTR [esp+8]
  0001d	8d 42 0c	 lea	 eax, DWORD PTR [edx+12]
  00020	8b 4a d4	 mov	 ecx, DWORD PTR [edx-44]
  00023	33 c8		 xor	 ecx, eax
  00025	e8 00 00 00 00	 call	 @__security_check_cookie@4
  0002a	8b 4a fc	 mov	 ecx, DWORD PTR [edx-4]
  0002d	33 c8		 xor	 ecx, eax
  0002f	e8 00 00 00 00	 call	 @__security_check_cookie@4
  00034	b8 00 00 00 00	 mov	 eax, OFFSET __ehfuncinfo$?SetSlotCountNew@CSlotWindow@UI@@QAEXKKK@Z
  00039	e9 00 00 00 00	 jmp	 ___CxxFrameHandler3
text$x	ENDS
?SetSlotCountNew@CSlotWindow@UI@@QAEXKKK@Z ENDP		; UI::CSlotWindow::SetSlotCountNew
; Function compile flags: /Ogtp
; File D:\Metin2 Server Files\mainline\SRC_2014\Metin2Client\eterPythonLib\PythonSlotWindow.cpp
;	COMDAT ?SetSlotCount@CSlotWindow@UI@@QAEXKK@Z
_TEXT	SEGMENT
$T2 = -40						; size = 4
_pSlot$ = -40						; size = 4
_szCount$3 = -36					; size = 17
__$ArrayPad$ = -16					; size = 4
__$EHRec$ = -12						; size = 12
_dwIndex$ = 8						; size = 4
_dwCount$ = 12						; size = 4
?SetSlotCount@CSlotWindow@UI@@QAEXKK@Z PROC		; UI::CSlotWindow::SetSlotCount, COMDAT
; _this$ = ecx

; 423  : {

  00000	55		 push	 ebp
  00001	8b ec		 mov	 ebp, esp
  00003	6a ff		 push	 -1
  00005	68 00 00 00 00	 push	 __ehhandler$?SetSlotCount@CSlotWindow@UI@@QAEXKK@Z
  0000a	64 a1 00 00 00
	00		 mov	 eax, DWORD PTR fs:0
  00010	50		 push	 eax
  00011	83 ec 1c	 sub	 esp, 28			; 0000001cH
  00014	a1 00 00 00 00	 mov	 eax, DWORD PTR ___security_cookie
  00019	33 c5		 xor	 eax, ebp
  0001b	89 45 f0	 mov	 DWORD PTR __$ArrayPad$[ebp], eax
  0001e	53		 push	 ebx
  0001f	56		 push	 esi
  00020	57		 push	 edi
  00021	50		 push	 eax
  00022	8d 45 f4	 lea	 eax, DWORD PTR __$EHRec$[ebp]
  00025	64 a3 00 00 00
	00		 mov	 DWORD PTR fs:0, eax
  0002b	8b d9		 mov	 ebx, ecx

; 424  : 	TSlot * pSlot;
; 425  : 	if (!GetSlotPointer(dwIndex, &pSlot))

  0002d	8d 45 d8	 lea	 eax, DWORD PTR _pSlot$[ebp]
  00030	50		 push	 eax
  00031	ff 75 08	 push	 DWORD PTR _dwIndex$[ebp]
  00034	e8 00 00 00 00	 call	 ?GetSlotPointer@CSlotWindow@UI@@IAEHKPAPAUSSlot@12@@Z ; UI::CSlotWindow::GetSlotPointer
  00039	85 c0		 test	 eax, eax
  0003b	0f 84 88 00 00
	00		 je	 $LN4@SetSlotCou

; 426  : 		return;
; 427  : 
; 428  : 	if (dwCount <= 0)

  00041	8b 45 0c	 mov	 eax, DWORD PTR _dwCount$[ebp]
  00044	85 c0		 test	 eax, eax
  00046	75 19		 jne	 SHORT $LN3@SetSlotCou

; 429  : 	{
; 430  : 		if (pSlot->pNumberLine)

  00048	8b 75 d8	 mov	 esi, DWORD PTR _pSlot$[ebp]
  0004b	8b 4e 38	 mov	 ecx, DWORD PTR [esi+56]
  0004e	85 c9		 test	 ecx, ecx
  00050	74 77		 je	 SHORT $LN4@SetSlotCou

; 431  : 		{
; 432  : 			delete pSlot->pNumberLine;

  00052	8b 01		 mov	 eax, DWORD PTR [ecx]
  00054	6a 01		 push	 1
  00056	ff 10		 call	 DWORD PTR [eax]

; 433  : 			pSlot->pNumberLine = NULL;

  00058	c7 46 38 00 00
	00 00		 mov	 DWORD PTR [esi+56], 0

; 434  : 		}
; 435  : 	}

  0005f	eb 68		 jmp	 SHORT $LN4@SetSlotCou
$LN3@SetSlotCou:

; 436  : 	else
; 437  : 	{
; 438  : 		char szCount[16+1];
; 439  : 		_snprintf(szCount, sizeof(szCount), "%d", dwCount);

  00061	50		 push	 eax
  00062	68 00 00 00 00	 push	 OFFSET ??_C@_02DPKJAMEF@?$CFd@
  00067	8d 45 dc	 lea	 eax, DWORD PTR _szCount$3[ebp]
  0006a	6a 11		 push	 17			; 00000011H
  0006c	50		 push	 eax
  0006d	e8 00 00 00 00	 call	 __snprintf

; 440  : 
; 441  : 		if (!pSlot->pNumberLine)

  00072	8b 7d d8	 mov	 edi, DWORD PTR _pSlot$[ebp]
  00075	83 c4 10	 add	 esp, 16			; 00000010H
  00078	8b 77 38	 mov	 esi, DWORD PTR [edi+56]
  0007b	85 f6		 test	 esi, esi
  0007d	75 3f		 jne	 SHORT $LN6@SetSlotCou

; 442  : 		{
; 443  : 			CNumberLine * pNumberLine = new UI::CNumberLine(this);

  0007f	68 bc 00 00 00	 push	 188			; 000000bcH
  00084	e8 00 00 00 00	 call	 ??2@YAPAXI@Z		; operator new
  00089	83 c4 04	 add	 esp, 4
  0008c	89 45 d8	 mov	 DWORD PTR $T2[ebp], eax
  0008f	89 75 fc	 mov	 DWORD PTR __$EHRec$[ebp+8], esi
  00092	85 c0		 test	 eax, eax
  00094	74 0c		 je	 SHORT $LN10@SetSlotCou
  00096	53		 push	 ebx
  00097	8b c8		 mov	 ecx, eax
  00099	e8 00 00 00 00	 call	 ??0CNumberLine@UI@@QAE@PAVCWindow@1@@Z ; UI::CNumberLine::CNumberLine
  0009e	8b f0		 mov	 esi, eax
  000a0	eb 02		 jmp	 SHORT $LN11@SetSlotCou
$LN10@SetSlotCou:
  000a2	33 f6		 xor	 esi, esi
$LN11@SetSlotCou:

; 444  : 			pNumberLine->SetHorizontalAlign(CNumberLine::HORIZONTAL_ALIGN_RIGHT);

  000a4	6a 02		 push	 2
  000a6	8b ce		 mov	 ecx, esi
  000a8	c7 45 fc ff ff
	ff ff		 mov	 DWORD PTR __$EHRec$[ebp+8], -1
  000af	e8 00 00 00 00	 call	 ?SetHorizontalAlign@CNumberLine@UI@@QAEXH@Z ; UI::CNumberLine::SetHorizontalAlign

; 445  : 			pNumberLine->Show();

  000b4	8b ce		 mov	 ecx, esi
  000b6	e8 00 00 00 00	 call	 ?Show@CWindow@UI@@QAEXXZ ; UI::CWindow::Show

; 446  : 			pSlot->pNumberLine = pNumberLine;

  000bb	89 77 38	 mov	 DWORD PTR [edi+56], esi
$LN6@SetSlotCou:

; 447  : 		}
; 448  : 
; 449  : 		pSlot->pNumberLine->SetNumber(szCount);

  000be	8d 45 dc	 lea	 eax, DWORD PTR _szCount$3[ebp]
  000c1	8b ce		 mov	 ecx, esi
  000c3	50		 push	 eax
  000c4	e8 00 00 00 00	 call	 ?SetNumber@CNumberLine@UI@@QAEXPBD@Z ; UI::CNumberLine::SetNumber
$LN4@SetSlotCou:

; 450  : 	}
; 451  : }

  000c9	8b 4d f4	 mov	 ecx, DWORD PTR __$EHRec$[ebp]
  000cc	64 89 0d 00 00
	00 00		 mov	 DWORD PTR fs:0, ecx
  000d3	59		 pop	 ecx
  000d4	5f		 pop	 edi
  000d5	5e		 pop	 esi
  000d6	5b		 pop	 ebx
  000d7	8b 4d f0	 mov	 ecx, DWORD PTR __$ArrayPad$[ebp]
  000da	33 cd		 xor	 ecx, ebp
  000dc	e8 00 00 00 00	 call	 @__security_check_cookie@4
  000e1	8b e5		 mov	 esp, ebp
  000e3	5d		 pop	 ebp
  000e4	c2 08 00	 ret	 8
_TEXT	ENDS
;	COMDAT text$x
text$x	SEGMENT
__unwindfunclet$?SetSlotCount@CSlotWindow@UI@@QAEXKK@Z$0:
  00000	68 bc 00 00 00	 push	 188			; 000000bcH
  00005	8b 45 d8	 mov	 eax, DWORD PTR $T2[ebp]
  00008	50		 push	 eax
  00009	e8 00 00 00 00	 call	 ??3@YAXPAXI@Z		; operator delete
  0000e	83 c4 08	 add	 esp, 8
  00011	c3		 ret	 0
  00012	cc		 int	 3
  00013	cc		 int	 3
  00014	cc		 int	 3
  00015	cc		 int	 3
  00016	cc		 int	 3
__ehhandler$?SetSlotCount@CSlotWindow@UI@@QAEXKK@Z:
  00017	90		 npad	 1
  00018	90		 npad	 1
  00019	8b 54 24 08	 mov	 edx, DWORD PTR [esp+8]
  0001d	8d 42 0c	 lea	 eax, DWORD PTR [edx+12]
  00020	8b 4a d4	 mov	 ecx, DWORD PTR [edx-44]
  00023	33 c8		 xor	 ecx, eax
  00025	e8 00 00 00 00	 call	 @__security_check_cookie@4
  0002a	8b 4a fc	 mov	 ecx, DWORD PTR [edx-4]
  0002d	33 c8		 xor	 ecx, eax
  0002f	e8 00 00 00 00	 call	 @__security_check_cookie@4
  00034	b8 00 00 00 00	 mov	 eax, OFFSET __ehfuncinfo$?SetSlotCount@CSlotWindow@UI@@QAEXKK@Z
  00039	e9 00 00 00 00	 jmp	 ___CxxFrameHandler3
text$x	ENDS
?SetSlotCount@CSlotWindow@UI@@QAEXKK@Z ENDP		; UI::CSlotWindow::SetSlotCount
; Function compile flags: /Ogtp
; File D:\Metin2 Server Files\mainline\SRC_2014\Metin2Client\eterPythonLib\PythonSlotWindow.cpp
;	COMDAT ?SetSlot@CSlotWindow@UI@@QAEXKKEEPAVCGraphicImage@@AAUD3DXCOLOR@@@Z
_TEXT	SEGMENT
_pSlot$ = -4						; size = 4
_dwIndex$ = 8						; size = 4
_dwVirtualNumber$ = 12					; size = 4
_byWidth$ = 16						; size = 1
_byHeight$ = 20						; size = 1
_pImage$ = 24						; size = 4
_diffuseColor$ = 28					; size = 4
?SetSlot@CSlotWindow@UI@@QAEXKKEEPAVCGraphicImage@@AAUD3DXCOLOR@@@Z PROC ; UI::CSlotWindow::SetSlot, COMDAT
; _this$ = ecx

; 383  : {

  00000	55		 push	 ebp
  00001	8b ec		 mov	 ebp, esp
  00003	51		 push	 ecx
  00004	53		 push	 ebx

; 384  : 	TSlot * pSlot;
; 385  : 	if (!GetSlotPointer(dwIndex, &pSlot))

  00005	8d 45 fc	 lea	 eax, DWORD PTR _pSlot$[ebp]
  00008	8b d9		 mov	 ebx, ecx
  0000a	50		 push	 eax
  0000b	ff 75 08	 push	 DWORD PTR _dwIndex$[ebp]
  0000e	e8 00 00 00 00	 call	 ?GetSlotPointer@CSlotWindow@UI@@IAEHKPAPAUSSlot@12@@Z ; UI::CSlotWindow::GetSlotPointer
  00013	85 c0		 test	 eax, eax
  00015	0f 84 9b 00 00
	00		 je	 $LN7@SetSlot

; 386  : 		return;
; 387  : 
; 388  : 	if (pSlot->isItem)

  0001b	56		 push	 esi
  0001c	8b 75 fc	 mov	 esi, DWORD PTR _pSlot$[ebp]
  0001f	57		 push	 edi
  00020	8b 7d 0c	 mov	 edi, DWORD PTR _dwVirtualNumber$[ebp]
  00023	83 7e 10 00	 cmp	 DWORD PTR [esi+16], 0
  00027	74 2f		 je	 SHORT $LN4@SetSlot

; 389  : 	if (pSlot->dwItemIndex == dwVirtualNumber)

  00029	39 7e 0c	 cmp	 DWORD PTR [esi+12], edi
  0002c	75 2a		 jne	 SHORT $LN4@SetSlot

; 390  : 	{
; 391  : 		pSlot->dwState = 0;
; 392  : 		pSlot->isItem = TRUE;
; 393  : 		if (pImage && pSlot->pInstance)

  0002e	8b 45 18	 mov	 eax, DWORD PTR _pImage$[ebp]
  00031	c7 06 00 00 00
	00		 mov	 DWORD PTR [esi], 0
  00037	c7 46 10 01 00
	00 00		 mov	 DWORD PTR [esi+16], 1
  0003e	85 c0		 test	 eax, eax
  00040	74 72		 je	 SHORT $LN9@SetSlot
  00042	8b 4e 34	 mov	 ecx, DWORD PTR [esi+52]
  00045	85 c9		 test	 ecx, ecx
  00047	74 6b		 je	 SHORT $LN9@SetSlot

; 394  : 		{
; 395  : 			pSlot->pInstance->SetImagePointer(pImage);

  00049	50		 push	 eax
  0004a	e8 00 00 00 00	 call	 ?SetImagePointer@CGraphicImageInstance@@QAEXPAVCGraphicImage@@@Z ; CGraphicImageInstance::SetImagePointer
  0004f	5f		 pop	 edi
  00050	5e		 pop	 esi
  00051	5b		 pop	 ebx

; 419  : 	}
; 420  : }

  00052	8b e5		 mov	 esp, ebp
  00054	5d		 pop	 ebp
  00055	c2 18 00	 ret	 24			; 00000018H
$LN4@SetSlot:

; 396  : 		}
; 397  : 		return;
; 398  : 	}
; 399  : 
; 400  : 	ClearSlot(pSlot);

  00058	56		 push	 esi
  00059	8b cb		 mov	 ecx, ebx
  0005b	e8 00 00 00 00	 call	 ?ClearSlot@CSlotWindow@UI@@IAEXPAUSSlot@12@@Z ; UI::CSlotWindow::ClearSlot

; 401  : 	pSlot->dwState = 0;

  00060	c7 06 00 00 00
	00		 mov	 DWORD PTR [esi], 0

; 402  : 	pSlot->isItem = TRUE;

  00066	c7 46 10 01 00
	00 00		 mov	 DWORD PTR [esi+16], 1

; 403  : 	pSlot->dwItemIndex = dwVirtualNumber;

  0006d	89 7e 0c	 mov	 DWORD PTR [esi+12], edi

; 404  : 
; 405  : 	if (pImage)

  00070	8b 7d 18	 mov	 edi, DWORD PTR _pImage$[ebp]
  00073	85 ff		 test	 edi, edi
  00075	74 25		 je	 SHORT $LN6@SetSlot

; 406  : 	{
; 407  : 		assert(NULL == pSlot->pInstance);
; 408  : 		pSlot->pInstance = CGraphicImageInstance::New();

  00077	e8 00 00 00 00	 call	 ?New@CGraphicImageInstance@@SAPAV1@XZ ; CGraphicImageInstance::New

; 409  : 		pSlot->pInstance->SetDiffuseColor(diffuseColor.r, diffuseColor.g, diffuseColor.b, diffuseColor.a);

  0007c	8b 4d 1c	 mov	 ecx, DWORD PTR _diffuseColor$[ebp]
  0007f	83 ec 10	 sub	 esp, 16			; 00000010H
  00082	89 46 34	 mov	 DWORD PTR [esi+52], eax
  00085	0f 10 01	 movups	 xmm0, XMMWORD PTR [ecx]
  00088	8b c8		 mov	 ecx, eax
  0008a	0f 11 04 24	 movups	 XMMWORD PTR [esp], xmm0
  0008e	e8 00 00 00 00	 call	 ?SetDiffuseColor@CGraphicImageInstance@@QAEXMMMM@Z ; CGraphicImageInstance::SetDiffuseColor

; 410  : 		pSlot->pInstance->SetImagePointer(pImage);

  00093	8b 4e 34	 mov	 ecx, DWORD PTR [esi+52]
  00096	57		 push	 edi
  00097	e8 00 00 00 00	 call	 ?SetImagePointer@CGraphicImageInstance@@QAEXPAVCGraphicImage@@@Z ; CGraphicImageInstance::SetImagePointer
$LN6@SetSlot:

; 411  : 	}
; 412  : 
; 413  : 	pSlot->byxPlacedItemSize = byWidth;

  0009c	8a 45 10	 mov	 al, BYTE PTR _byWidth$[ebp]
  0009f	88 46 30	 mov	 BYTE PTR [esi+48], al

; 414  : 	pSlot->byyPlacedItemSize = byHeight;

  000a2	8a 45 14	 mov	 al, BYTE PTR _byHeight$[ebp]
  000a5	88 46 31	 mov	 BYTE PTR [esi+49], al

; 415  : 
; 416  : 	if (pSlot->pCoverButton)

  000a8	8b 4e 40	 mov	 ecx, DWORD PTR [esi+64]
  000ab	85 c9		 test	 ecx, ecx
  000ad	74 05		 je	 SHORT $LN9@SetSlot

; 417  : 	{
; 418  : 		pSlot->pCoverButton->Show();

  000af	e8 00 00 00 00	 call	 ?Show@CWindow@UI@@QAEXXZ ; UI::CWindow::Show
$LN9@SetSlot:
  000b4	5f		 pop	 edi
  000b5	5e		 pop	 esi
$LN7@SetSlot:
  000b6	5b		 pop	 ebx

; 419  : 	}
; 420  : }

  000b7	8b e5		 mov	 esp, ebp
  000b9	5d		 pop	 ebp
  000ba	c2 18 00	 ret	 24			; 00000018H
?SetSlot@CSlotWindow@UI@@QAEXKKEEPAVCGraphicImage@@AAUD3DXCOLOR@@@Z ENDP ; UI::CSlotWindow::SetSlot
_TEXT	ENDS
; Function compile flags: /Ogtp
; File D:\Metin2 Server Files\mainline\SRC_2014\Metin2Client\eterPythonLib\PythonSlotWindow.cpp
;	COMDAT ?ClearSlot@CSlotWindow@UI@@QAEXK@Z
_TEXT	SEGMENT
_pSlot$ = -4						; size = 4
_dwIndex$ = 8						; size = 4
?ClearSlot@CSlotWindow@UI@@QAEXK@Z PROC			; UI::CSlotWindow::ClearSlot, COMDAT
; _this$ = ecx

; 533  : {

  00000	55		 push	 ebp
  00001	8b ec		 mov	 ebp, esp
  00003	51		 push	 ecx
  00004	56		 push	 esi

; 534  : 	TSlot * pSlot;
; 535  : 	if (!GetSlotPointer(dwIndex, &pSlot))

  00005	8d 45 fc	 lea	 eax, DWORD PTR _pSlot$[ebp]
  00008	8b f1		 mov	 esi, ecx
  0000a	50		 push	 eax
  0000b	ff 75 08	 push	 DWORD PTR _dwIndex$[ebp]
  0000e	e8 00 00 00 00	 call	 ?GetSlotPointer@CSlotWindow@UI@@IAEHKPAPAUSSlot@12@@Z ; UI::CSlotWindow::GetSlotPointer
  00013	85 c0		 test	 eax, eax
  00015	74 0a		 je	 SHORT $LN1@ClearSlot

; 536  : 		return;
; 537  : 
; 538  : 	ClearSlot(pSlot);

  00017	ff 75 fc	 push	 DWORD PTR _pSlot$[ebp]
  0001a	8b ce		 mov	 ecx, esi
  0001c	e8 00 00 00 00	 call	 ?ClearSlot@CSlotWindow@UI@@IAEXPAUSSlot@12@@Z ; UI::CSlotWindow::ClearSlot
$LN1@ClearSlot:
  00021	5e		 pop	 esi

; 539  : }

  00022	8b e5		 mov	 esp, ebp
  00024	5d		 pop	 ebp
  00025	c2 04 00	 ret	 4
?ClearSlot@CSlotWindow@UI@@QAEXK@Z ENDP			; UI::CSlotWindow::ClearSlot
_TEXT	ENDS
; Function compile flags: /Ogtp
; File D:\Metin2 Server Files\mainline\SRC_2014\Metin2Client\eterPythonLib\PythonSlotWindow.cpp
;	COMDAT ?ClearAllSlot@CSlotWindow@UI@@QAEXXZ
_TEXT	SEGMENT
?ClearAllSlot@CSlotWindow@UI@@QAEXXZ PROC		; UI::CSlotWindow::ClearAllSlot, COMDAT
; _this$ = ecx

; 581  : 	Destroy();

  00000	e9 00 00 00 00	 jmp	 ?Destroy@CSlotWindow@UI@@QAEXXZ ; UI::CSlotWindow::Destroy
?ClearAllSlot@CSlotWindow@UI@@QAEXXZ ENDP		; UI::CSlotWindow::ClearAllSlot
_TEXT	ENDS
; Function compile flags: /Ogtp
; File D:\Metin2 Server Files\mainline\SRC_2014\Metin2Client\eterPythonLib\PythonSlotWindow.cpp
;	COMDAT ?HasSlot@CSlotWindow@UI@@QAEHK@Z
_TEXT	SEGMENT
_pSlot$ = -4						; size = 4
_dwIndex$ = 8						; size = 4
?HasSlot@CSlotWindow@UI@@QAEHK@Z PROC			; UI::CSlotWindow::HasSlot, COMDAT
; _this$ = ecx

; 374  : {

  00000	55		 push	 ebp
  00001	8b ec		 mov	 ebp, esp
  00003	51		 push	 ecx

; 375  : 	TSlot * pSlot;
; 376  : 	if (!GetSlotPointer(dwIndex, &pSlot))

  00004	8d 45 fc	 lea	 eax, DWORD PTR _pSlot$[ebp]
  00007	50		 push	 eax
  00008	ff 75 08	 push	 DWORD PTR _dwIndex$[ebp]
  0000b	e8 00 00 00 00	 call	 ?GetSlotPointer@CSlotWindow@UI@@IAEHKPAPAUSSlot@12@@Z ; UI::CSlotWindow::GetSlotPointer
  00010	f7 d8		 neg	 eax
  00012	1b c0		 sbb	 eax, eax
  00014	f7 d8		 neg	 eax

; 377  : 		return FALSE;
; 378  : 
; 379  : 	return TRUE;
; 380  : }

  00016	8b e5		 mov	 esp, ebp
  00018	5d		 pop	 ebp
  00019	c2 04 00	 ret	 4
?HasSlot@CSlotWindow@UI@@QAEHK@Z ENDP			; UI::CSlotWindow::HasSlot
_TEXT	ENDS
; Function compile flags: /Ogtp
; File D:\Metin2 Server Files\mainline\SRC_2014\Metin2Client\eterPythonLib\PythonSlotWindow.cpp
;	COMDAT ?IsDisableCoverButton@CSlotWindow@UI@@QAEHK@Z
_TEXT	SEGMENT
_pSlot$ = -4						; size = 4
_dwIndex$ = 8						; size = 4
?IsDisableCoverButton@CSlotWindow@UI@@QAEHK@Z PROC	; UI::CSlotWindow::IsDisableCoverButton, COMDAT
; _this$ = ecx

; 317  : {

  00000	55		 push	 ebp
  00001	8b ec		 mov	 ebp, esp
  00003	51		 push	 ecx

; 318  : 	TSlot * pSlot;
; 319  : 	if (!GetSlotPointer(dwIndex, &pSlot))

  00004	8d 45 fc	 lea	 eax, DWORD PTR _pSlot$[ebp]
  00007	50		 push	 eax
  00008	ff 75 08	 push	 DWORD PTR _dwIndex$[ebp]
  0000b	e8 00 00 00 00	 call	 ?GetSlotPointer@CSlotWindow@UI@@IAEHKPAPAUSSlot@12@@Z ; UI::CSlotWindow::GetSlotPointer
  00010	85 c0		 test	 eax, eax
  00012	74 15		 je	 SHORT $LN5@IsDisableC

; 320  : 		return FALSE;
; 321  : 
; 322  : 	if (!pSlot->pCoverButton)

  00014	8b 45 fc	 mov	 eax, DWORD PTR _pSlot$[ebp]
  00017	8b 48 40	 mov	 ecx, DWORD PTR [eax+64]
  0001a	85 c9		 test	 ecx, ecx
  0001c	74 0b		 je	 SHORT $LN5@IsDisableC

; 324  : 
; 325  : 	return pSlot->pCoverButton->IsDisable();

  0001e	e8 00 00 00 00	 call	 ?IsDisable@CButton@UI@@QAEHXZ ; UI::CButton::IsDisable

; 326  : }

  00023	8b e5		 mov	 esp, ebp
  00025	5d		 pop	 ebp
  00026	c2 04 00	 ret	 4
$LN5@IsDisableC:

; 323  : 		return FALSE;

  00029	33 c0		 xor	 eax, eax

; 326  : }

  0002b	8b e5		 mov	 esp, ebp
  0002d	5d		 pop	 ebp
  0002e	c2 04 00	 ret	 4
?IsDisableCoverButton@CSlotWindow@UI@@QAEHK@Z ENDP	; UI::CSlotWindow::IsDisableCoverButton
_TEXT	ENDS
; Function compile flags: /Ogtp
; File D:\Metin2 Server Files\mainline\SRC_2014\Metin2Client\eterPythonLib\PythonSlotWindow.cpp
;	COMDAT ?HideSlotBaseImage@CSlotWindow@UI@@QAEXK@Z
_TEXT	SEGMENT
_pSlot$ = -4						; size = 4
_dwIndex$ = 8						; size = 4
?HideSlotBaseImage@CSlotWindow@UI@@QAEXK@Z PROC		; UI::CSlotWindow::HideSlotBaseImage, COMDAT
; _this$ = ecx

; 308  : {

  00000	55		 push	 ebp
  00001	8b ec		 mov	 ebp, esp
  00003	51		 push	 ecx

; 309  : 	TSlot * pSlot;
; 310  : 	if (!GetSlotPointer(dwIndex, &pSlot))

  00004	8d 45 fc	 lea	 eax, DWORD PTR _pSlot$[ebp]
  00007	50		 push	 eax
  00008	ff 75 08	 push	 DWORD PTR _dwIndex$[ebp]
  0000b	e8 00 00 00 00	 call	 ?GetSlotPointer@CSlotWindow@UI@@IAEHKPAPAUSSlot@12@@Z ; UI::CSlotWindow::GetSlotPointer
  00010	85 c0		 test	 eax, eax
  00012	74 07		 je	 SHORT $LN1@HideSlotBa

; 311  : 		return;
; 312  : 
; 313  : 	pSlot->bRenderBaseSlotImage = false;

  00014	8b 45 fc	 mov	 eax, DWORD PTR _pSlot$[ebp]
  00017	c6 40 3c 00	 mov	 BYTE PTR [eax+60], 0
$LN1@HideSlotBa:

; 314  : }

  0001b	8b e5		 mov	 esp, ebp
  0001d	5d		 pop	 ebp
  0001e	c2 04 00	 ret	 4
?HideSlotBaseImage@CSlotWindow@UI@@QAEXK@Z ENDP		; UI::CSlotWindow::HideSlotBaseImage
_TEXT	ENDS
; Function compile flags: /Ogtp
; File D:\Metin2 Server Files\mainline\SRC_2014\Metin2Client\eterPythonLib\PythonSlotWindow.cpp
;	COMDAT ?ShowSlotBaseImage@CSlotWindow@UI@@QAEXK@Z
_TEXT	SEGMENT
_pSlot$ = -4						; size = 4
_dwIndex$ = 8						; size = 4
?ShowSlotBaseImage@CSlotWindow@UI@@QAEXK@Z PROC		; UI::CSlotWindow::ShowSlotBaseImage, COMDAT
; _this$ = ecx

; 299  : {

  00000	55		 push	 ebp
  00001	8b ec		 mov	 ebp, esp
  00003	51		 push	 ecx

; 300  : 	TSlot * pSlot;
; 301  : 	if (!GetSlotPointer(dwIndex, &pSlot))

  00004	8d 45 fc	 lea	 eax, DWORD PTR _pSlot$[ebp]
  00007	50		 push	 eax
  00008	ff 75 08	 push	 DWORD PTR _dwIndex$[ebp]
  0000b	e8 00 00 00 00	 call	 ?GetSlotPointer@CSlotWindow@UI@@IAEHKPAPAUSSlot@12@@Z ; UI::CSlotWindow::GetSlotPointer
  00010	85 c0		 test	 eax, eax
  00012	74 07		 je	 SHORT $LN1@ShowSlotBa

; 302  : 		return;
; 303  : 
; 304  : 	pSlot->bRenderBaseSlotImage = true;

  00014	8b 45 fc	 mov	 eax, DWORD PTR _pSlot$[ebp]
  00017	c6 40 3c 01	 mov	 BYTE PTR [eax+60], 1
$LN1@ShowSlotBa:

; 305  : }

  0001b	8b e5		 mov	 esp, ebp
  0001d	5d		 pop	 ebp
  0001e	c2 04 00	 ret	 4
?ShowSlotBaseImage@CSlotWindow@UI@@QAEXK@Z ENDP		; UI::CSlotWindow::ShowSlotBaseImage
_TEXT	ENDS
; Function compile flags: /Ogtp
; File D:\Metin2 Server Files\mainline\SRC_2014\Metin2Client\eterPythonLib\PythonSlotWindow.cpp
;	COMDAT ?SetAlwaysRenderCoverButton@CSlotWindow@UI@@QAEXK_N@Z
_TEXT	SEGMENT
_pSlot$ = -4						; size = 4
_dwIndex$ = 8						; size = 4
_bAlwaysRender$ = 12					; size = 1
?SetAlwaysRenderCoverButton@CSlotWindow@UI@@QAEXK_N@Z PROC ; UI::CSlotWindow::SetAlwaysRenderCoverButton, COMDAT
; _this$ = ecx

; 287  : {

  00000	55		 push	 ebp
  00001	8b ec		 mov	 ebp, esp
  00003	51		 push	 ecx

; 288  : 	TSlot * pSlot;
; 289  : 	if (!GetSlotPointer(dwIndex, &pSlot))

  00004	8d 45 fc	 lea	 eax, DWORD PTR _pSlot$[ebp]
  00007	50		 push	 eax
  00008	ff 75 08	 push	 DWORD PTR _dwIndex$[ebp]
  0000b	e8 00 00 00 00	 call	 ?GetSlotPointer@CSlotWindow@UI@@IAEHKPAPAUSSlot@12@@Z ; UI::CSlotWindow::GetSlotPointer
  00010	85 c0		 test	 eax, eax
  00012	74 15		 je	 SHORT $LN4@SetAlwaysR

; 290  : 		return;
; 291  : 
; 292  : 	if (bAlwaysRender)

  00014	80 7d 0c 00	 cmp	 BYTE PTR _bAlwaysRender$[ebp], 0
  00018	8b 45 fc	 mov	 eax, DWORD PTR _pSlot$[ebp]
  0001b	74 09		 je	 SHORT $LN3@SetAlwaysR

; 293  : 		SET_BIT(pSlot->dwState, SLOT_STATE_ALWAYS_RENDER_COVER);

  0001d	83 08 08	 or	 DWORD PTR [eax], 8

; 296  : }

  00020	8b e5		 mov	 esp, ebp
  00022	5d		 pop	 ebp
  00023	c2 08 00	 ret	 8
$LN3@SetAlwaysR:

; 294  : 	else
; 295  : 		REMOVE_BIT(pSlot->dwState, SLOT_STATE_ALWAYS_RENDER_COVER);

  00026	83 20 f7	 and	 DWORD PTR [eax], -9	; fffffff7H
$LN4@SetAlwaysR:

; 296  : }

  00029	8b e5		 mov	 esp, ebp
  0002b	5d		 pop	 ebp
  0002c	c2 08 00	 ret	 8
?SetAlwaysRenderCoverButton@CSlotWindow@UI@@QAEXK_N@Z ENDP ; UI::CSlotWindow::SetAlwaysRenderCoverButton
_TEXT	ENDS
; Function compile flags: /Ogtp
; File D:\Metin2 Server Files\mainline\SRC_2014\Metin2Client\eterPythonLib\PythonSlotWindow.cpp
;	COMDAT ?DisableCoverButton@CSlotWindow@UI@@QAEXK@Z
_TEXT	SEGMENT
_pSlot$ = -4						; size = 4
_dwIndex$ = 8						; size = 4
?DisableCoverButton@CSlotWindow@UI@@QAEXK@Z PROC	; UI::CSlotWindow::DisableCoverButton, COMDAT
; _this$ = ecx

; 275  : {

  00000	55		 push	 ebp
  00001	8b ec		 mov	 ebp, esp
  00003	51		 push	 ecx

; 276  : 	TSlot * pSlot;
; 277  : 	if (!GetSlotPointer(dwIndex, &pSlot))

  00004	8d 45 fc	 lea	 eax, DWORD PTR _pSlot$[ebp]
  00007	50		 push	 eax
  00008	ff 75 08	 push	 DWORD PTR _dwIndex$[ebp]
  0000b	e8 00 00 00 00	 call	 ?GetSlotPointer@CSlotWindow@UI@@IAEHKPAPAUSSlot@12@@Z ; UI::CSlotWindow::GetSlotPointer
  00010	85 c0		 test	 eax, eax
  00012	74 0f		 je	 SHORT $LN1@DisableCov

; 278  : 		return;
; 279  : 
; 280  : 	if (!pSlot->pCoverButton)

  00014	8b 45 fc	 mov	 eax, DWORD PTR _pSlot$[ebp]
  00017	8b 48 40	 mov	 ecx, DWORD PTR [eax+64]
  0001a	85 c9		 test	 ecx, ecx
  0001c	74 05		 je	 SHORT $LN1@DisableCov

; 281  : 		return;
; 282  : 
; 283  : 	pSlot->pCoverButton->Disable();

  0001e	e8 00 00 00 00	 call	 ?Disable@CButton@UI@@QAEXXZ ; UI::CButton::Disable
$LN1@DisableCov:

; 284  : }

  00023	8b e5		 mov	 esp, ebp
  00025	5d		 pop	 ebp
  00026	c2 04 00	 ret	 4
?DisableCoverButton@CSlotWindow@UI@@QAEXK@Z ENDP	; UI::CSlotWindow::DisableCoverButton
_TEXT	ENDS
; Function compile flags: /Ogtp
; File D:\Metin2 Server Files\mainline\SRC_2014\Metin2Client\eterPythonLib\PythonSlotWindow.cpp
;	COMDAT ?EnableCoverButton@CSlotWindow@UI@@QAEXK@Z
_TEXT	SEGMENT
_pSlot$ = -4						; size = 4
_dwIndex$ = 8						; size = 4
?EnableCoverButton@CSlotWindow@UI@@QAEXK@Z PROC		; UI::CSlotWindow::EnableCoverButton, COMDAT
; _this$ = ecx

; 263  : {

  00000	55		 push	 ebp
  00001	8b ec		 mov	 ebp, esp
  00003	51		 push	 ecx

; 264  : 	TSlot * pSlot;
; 265  : 	if (!GetSlotPointer(dwIndex, &pSlot))

  00004	8d 45 fc	 lea	 eax, DWORD PTR _pSlot$[ebp]
  00007	50		 push	 eax
  00008	ff 75 08	 push	 DWORD PTR _dwIndex$[ebp]
  0000b	e8 00 00 00 00	 call	 ?GetSlotPointer@CSlotWindow@UI@@IAEHKPAPAUSSlot@12@@Z ; UI::CSlotWindow::GetSlotPointer
  00010	85 c0		 test	 eax, eax
  00012	74 0f		 je	 SHORT $LN1@EnableCove

; 266  : 		return;
; 267  : 
; 268  : 	if (!pSlot->pCoverButton)

  00014	8b 45 fc	 mov	 eax, DWORD PTR _pSlot$[ebp]
  00017	8b 48 40	 mov	 ecx, DWORD PTR [eax+64]
  0001a	85 c9		 test	 ecx, ecx
  0001c	74 05		 je	 SHORT $LN1@EnableCove

; 269  : 		return;
; 270  : 
; 271  : 	pSlot->pCoverButton->Enable();

  0001e	e8 00 00 00 00	 call	 ?Enable@CButton@UI@@QAEXXZ ; UI::CButton::Enable
$LN1@EnableCove:

; 272  : }

  00023	8b e5		 mov	 esp, ebp
  00025	5d		 pop	 ebp
  00026	c2 04 00	 ret	 4
?EnableCoverButton@CSlotWindow@UI@@QAEXK@Z ENDP		; UI::CSlotWindow::EnableCoverButton
_TEXT	ENDS
; Function compile flags: /Ogtp
; File D:\Metin2 Server Files\mainline\SRC_2014\Metin2Client\eterPythonLib\PythonSlotWindow.cpp
; File C:\Program Files (x86)\Microsoft Visual Studio\2019\Community\VC\Tools\MSVC\14.28.29333\include\list
; File D:\Metin2 Server Files\mainline\SRC_2014\Metin2Client\eterPythonLib\PythonSlotWindow.cpp
; File C:\Program Files (x86)\Microsoft Visual Studio\2019\Community\VC\Tools\MSVC\14.28.29333\include\list
; File D:\Metin2 Server Files\mainline\SRC_2014\Metin2Client\eterPythonLib\PythonSlotWindow.cpp
;	COMDAT ?AppendRequirementSignImage@CSlotWindow@UI@@QAEXPBD@Z
_TEXT	SEGMENT
__$EHRec$ = -12						; size = 12
$T2 = 8							; size = 4
_c_szImageName$ = 8					; size = 4
?AppendRequirementSignImage@CSlotWindow@UI@@QAEXPBD@Z PROC ; UI::CSlotWindow::AppendRequirementSignImage, COMDAT
; _this$ = ecx

; 356  : {

  00000	55		 push	 ebp
  00001	8b ec		 mov	 ebp, esp
  00003	6a ff		 push	 -1
  00005	68 00 00 00 00	 push	 __ehhandler$?AppendRequirementSignImage@CSlotWindow@UI@@QAEXPBD@Z
  0000a	64 a1 00 00 00
	00		 mov	 eax, DWORD PTR fs:0
  00010	50		 push	 eax
  00011	53		 push	 ebx
  00012	56		 push	 esi
  00013	57		 push	 edi
  00014	a1 00 00 00 00	 mov	 eax, DWORD PTR ___security_cookie
  00019	33 c5		 xor	 eax, ebp
  0001b	50		 push	 eax
  0001c	8d 45 f4	 lea	 eax, DWORD PTR __$EHRec$[ebp]
  0001f	64 a3 00 00 00
	00		 mov	 DWORD PTR fs:0, eax
  00025	8b f9		 mov	 edi, ecx
; File C:\Program Files (x86)\Microsoft Visual Studio\2019\Community\VC\Tools\MSVC\14.28.29333\include\list

; 1092 :         return iterator(_Mypair._Myval2._Myhead->_Next, _STD addressof(_Mypair._Myval2));

  00027	8b 87 88 00 00
	00		 mov	 eax, DWORD PTR [edi+136]

; 39   :     _List_unchecked_const_iterator(_Nodeptr _Pnode, const _Mylist* _Plist) noexcept : _Ptr(_Pnode) {

  0002d	8b 30		 mov	 esi, DWORD PTR [eax]
; File D:\Metin2 Server Files\mainline\SRC_2014\Metin2Client\eterPythonLib\PythonSlotWindow.cpp

; 357  : 	for (TSlotListIterator itor = m_SlotList.begin(); itor != m_SlotList.end(); ++itor)

  0002f	3b f0		 cmp	 esi, eax
  00031	74 61		 je	 SHORT $LN3@AppendRequ
  00033	8b 5d 08	 mov	 ebx, DWORD PTR _c_szImageName$[ebp]
$LL21@AppendRequ:

; 358  : 	{
; 359  : 		TSlot & rSlot = *itor;
; 360  : 		CImageBox *& rpSignImage = rSlot.pSignImage;
; 361  : 
; 362  : 		if (!rpSignImage)

  00036	8b 4e 50	 mov	 ecx, DWORD PTR [esi+80]
  00039	85 c9		 test	 ecx, ecx
  0003b	75 3f		 jne	 SHORT $LN42@AppendRequ

; 363  : 		{
; 364  : 			rpSignImage = new CImageBox(NULL);

  0003d	6a 7c		 push	 124			; 0000007cH
  0003f	e8 00 00 00 00	 call	 ??2@YAPAXI@Z		; operator new
  00044	83 c4 04	 add	 esp, 4
  00047	89 45 08	 mov	 DWORD PTR $T2[ebp], eax
  0004a	c7 45 fc 00 00
	00 00		 mov	 DWORD PTR __$EHRec$[ebp+8], 0
  00051	85 c0		 test	 eax, eax
  00053	74 0b		 je	 SHORT $LN7@AppendRequ
  00055	6a 00		 push	 0
  00057	8b c8		 mov	 ecx, eax
  00059	e8 00 00 00 00	 call	 ??0CImageBox@UI@@QAE@PAU_object@@@Z ; UI::CImageBox::CImageBox
  0005e	eb 02		 jmp	 SHORT $LN8@AppendRequ
$LN7@AppendRequ:
  00060	33 c0		 xor	 eax, eax
$LN8@AppendRequ:

; 365  : 			CWindowManager::Instance().SetParent(rpSignImage, this);

  00062	57		 push	 edi
  00063	89 46 50	 mov	 DWORD PTR [esi+80], eax
  00066	8b 0d 00 00 00
	00		 mov	 ecx, DWORD PTR ?ms_singleton@?$CSingleton@VCWindowManager@UI@@@@0PAVCWindowManager@UI@@A ; CSingleton<UI::CWindowManager>::ms_singleton
  0006c	50		 push	 eax
  0006d	c7 45 fc ff ff
	ff ff		 mov	 DWORD PTR __$EHRec$[ebp+8], -1
  00074	e8 00 00 00 00	 call	 ?SetParent@CWindowManager@UI@@QAEXPAVCWindow@2@0@Z ; UI::CWindowManager::SetParent
  00079	8b 4e 50	 mov	 ecx, DWORD PTR [esi+80]
$LN42@AppendRequ:

; 366  : 		}
; 367  : 
; 368  : 		rpSignImage->LoadImage(c_szImageName);

  0007c	53		 push	 ebx
  0007d	e8 00 00 00 00	 call	 ?LoadImageA@CImageBox@UI@@QAEHPBD@Z ; UI::CImageBox::LoadImageA

; 369  : 		rpSignImage->Hide();

  00082	8b 4e 50	 mov	 ecx, DWORD PTR [esi+80]
  00085	e8 00 00 00 00	 call	 ?Hide@CWindow@UI@@QAEXXZ ; UI::CWindow::Hide
; File C:\Program Files (x86)\Microsoft Visual Studio\2019\Community\VC\Tools\MSVC\14.28.29333\include\list

; 166  :         this->_Ptr = this->_Ptr->_Next;

  0008a	8b 36		 mov	 esi, DWORD PTR [esi]

; 199  :         return this->_Ptr == _Right._Ptr;

  0008c	3b b7 88 00 00
	00		 cmp	 esi, DWORD PTR [edi+136]
; File D:\Metin2 Server Files\mainline\SRC_2014\Metin2Client\eterPythonLib\PythonSlotWindow.cpp

; 357  : 	for (TSlotListIterator itor = m_SlotList.begin(); itor != m_SlotList.end(); ++itor)

  00092	75 a2		 jne	 SHORT $LL21@AppendRequ
$LN3@AppendRequ:

; 370  : 	}
; 371  : }

  00094	8b 4d f4	 mov	 ecx, DWORD PTR __$EHRec$[ebp]
  00097	64 89 0d 00 00
	00 00		 mov	 DWORD PTR fs:0, ecx
  0009e	59		 pop	 ecx
  0009f	5f		 pop	 edi
  000a0	5e		 pop	 esi
  000a1	5b		 pop	 ebx
  000a2	8b e5		 mov	 esp, ebp
  000a4	5d		 pop	 ebp
  000a5	c2 04 00	 ret	 4
_TEXT	ENDS
;	COMDAT text$x
text$x	SEGMENT
__unwindfunclet$?AppendRequirementSignImage@CSlotWindow@UI@@QAEXPBD@Z$0:
  00000	6a 7c		 push	 124			; 0000007cH
  00002	8b 45 08	 mov	 eax, DWORD PTR $T2[ebp]
  00005	50		 push	 eax
  00006	e8 00 00 00 00	 call	 ??3@YAXPAXI@Z		; operator delete
  0000b	83 c4 08	 add	 esp, 8
  0000e	c3		 ret	 0
  0000f	cc		 int	 3
  00010	cc		 int	 3
  00011	cc		 int	 3
  00012	cc		 int	 3
  00013	cc		 int	 3
__ehhandler$?AppendRequirementSignImage@CSlotWindow@UI@@QAEXPBD@Z:
  00014	90		 npad	 1
  00015	90		 npad	 1
  00016	8b 54 24 08	 mov	 edx, DWORD PTR [esp+8]
  0001a	8d 42 0c	 lea	 eax, DWORD PTR [edx+12]
  0001d	8b 4a f0	 mov	 ecx, DWORD PTR [edx-16]
  00020	33 c8		 xor	 ecx, eax
  00022	e8 00 00 00 00	 call	 @__security_check_cookie@4
  00027	b8 00 00 00 00	 mov	 eax, OFFSET __ehfuncinfo$?AppendRequirementSignImage@CSlotWindow@UI@@QAEXPBD@Z
  0002c	e9 00 00 00 00	 jmp	 ___CxxFrameHandler3
text$x	ENDS
?AppendRequirementSignImage@CSlotWindow@UI@@QAEXPBD@Z ENDP ; UI::CSlotWindow::AppendRequirementSignImage
; Function compile flags: /Ogtp
; File D:\Metin2 Server Files\mainline\SRC_2014\Metin2Client\eterPythonLib\PythonSlotWindow.cpp
; File C:\Program Files (x86)\Microsoft Visual Studio\2019\Community\VC\Tools\MSVC\14.28.29333\include\list
; File D:\Metin2 Server Files\mainline\SRC_2014\Metin2Client\eterPythonLib\PythonSlotWindow.cpp
; File D:\Metin2 Server Files\mainline\SRC_2014\Metin2Client\eterPythonLib\PythonWindow.h
; File D:\Metin2 Server Files\mainline\SRC_2014\Metin2Client\eterPythonLib\PythonSlotWindow.cpp
; File C:\Program Files (x86)\Microsoft Visual Studio\2019\Community\VC\Tools\MSVC\14.28.29333\include\list
; File D:\Metin2 Server Files\mainline\SRC_2014\Metin2Client\eterPythonLib\PythonSlotWindow.cpp
;	COMDAT ?AppendSlotButton@CSlotWindow@UI@@QAEXPBD00@Z
_TEXT	SEGMENT
$T2 = -20						; size = 4
_this$1$ = -16						; size = 4
__$EHRec$ = -12						; size = 12
_c_szUpImageName$ = 8					; size = 4
_c_szOverImageName$ = 12				; size = 4
_c_szDownImageName$ = 16				; size = 4
?AppendSlotButton@CSlotWindow@UI@@QAEXPBD00@Z PROC	; UI::CSlotWindow::AppendSlotButton, COMDAT
; _this$ = ecx

; 334  : {

  00000	55		 push	 ebp
  00001	8b ec		 mov	 ebp, esp
  00003	6a ff		 push	 -1
  00005	68 00 00 00 00	 push	 __ehhandler$?AppendSlotButton@CSlotWindow@UI@@QAEXPBD00@Z
  0000a	64 a1 00 00 00
	00		 mov	 eax, DWORD PTR fs:0
  00010	50		 push	 eax
  00011	83 ec 08	 sub	 esp, 8
  00014	53		 push	 ebx
  00015	56		 push	 esi
  00016	57		 push	 edi
  00017	a1 00 00 00 00	 mov	 eax, DWORD PTR ___security_cookie
  0001c	33 c5		 xor	 eax, ebp
  0001e	50		 push	 eax
  0001f	8d 45 f4	 lea	 eax, DWORD PTR __$EHRec$[ebp]
  00022	64 a3 00 00 00
	00		 mov	 DWORD PTR fs:0, eax
  00028	8b d9		 mov	 ebx, ecx
  0002a	89 5d f0	 mov	 DWORD PTR _this$1$[ebp], ebx
; File C:\Program Files (x86)\Microsoft Visual Studio\2019\Community\VC\Tools\MSVC\14.28.29333\include\list

; 1092 :         return iterator(_Mypair._Myval2._Myhead->_Next, _STD addressof(_Mypair._Myval2));

  0002d	8b 83 88 00 00
	00		 mov	 eax, DWORD PTR [ebx+136]

; 39   :     _List_unchecked_const_iterator(_Nodeptr _Pnode, const _Mylist* _Plist) noexcept : _Ptr(_Pnode) {

  00033	8b 30		 mov	 esi, DWORD PTR [eax]
; File D:\Metin2 Server Files\mainline\SRC_2014\Metin2Client\eterPythonLib\PythonSlotWindow.cpp

; 335  : 	for (TSlotListIterator itor = m_SlotList.begin(); itor != m_SlotList.end(); ++itor)

  00035	3b f0		 cmp	 esi, eax
  00037	0f 84 c1 00 00
	00		 je	 $LN3@AppendSlot
  0003d	0f 1f 00	 npad	 3
$LL21@AppendSlot:

; 336  : 	{
; 337  : 		TSlot & rSlot = *itor;
; 338  : 		CSlotButton *& rpSlotButton = rSlot.pSlotButton;
; 339  : 
; 340  : 		if (!rpSlotButton)

  00040	8b 4e 4c	 mov	 ecx, DWORD PTR [esi+76]
  00043	85 c9		 test	 ecx, ecx
  00045	75 6f		 jne	 SHORT $LN47@AppendSlot

; 341  : 		{
; 342  : 			rpSlotButton = new CSlotButton(CSlotButton::SLOT_BUTTON_TYPE_PLUS, rSlot.dwSlotNumber, this);

  00047	68 14 01 00 00	 push	 276			; 00000114H
  0004c	e8 00 00 00 00	 call	 ??2@YAPAXI@Z		; operator new
  00051	8b f8		 mov	 edi, eax
  00053	83 c4 04	 add	 esp, 4
  00056	89 7d ec	 mov	 DWORD PTR $T2[ebp], edi
  00059	c7 45 fc 00 00
	00 00		 mov	 DWORD PTR __$EHRec$[ebp+8], 0
  00060	85 ff		 test	 edi, edi
  00062	74 2d		 je	 SHORT $LN7@AppendSlot
  00064	8b 5e 0c	 mov	 ebx, DWORD PTR [esi+12]

; 21   : 		CSlotButton(ESlotButtonType dwType, DWORD dwSlotNumber, CSlotWindow * pParent) : CButton(NULL)

  00067	8b cf		 mov	 ecx, edi
  00069	6a 00		 push	 0
  0006b	e8 00 00 00 00	 call	 ??0CButton@UI@@QAE@PAU_object@@@Z ; UI::CButton::CButton

; 22   : 		{
; 23   : 			m_dwSlotButtonType = dwType;
; 24   : 			m_dwSlotNumber = dwSlotNumber;

  00070	89 9f 0c 01 00
	00		 mov	 DWORD PTR [edi+268], ebx

; 25   : 			m_pParent = pParent;

  00076	8b 5d f0	 mov	 ebx, DWORD PTR _this$1$[ebp]
  00079	c7 07 00 00 00
	00		 mov	 DWORD PTR [edi], OFFSET ??_7CSlotButton@CSlotWindow@UI@@6B@
  0007f	c7 87 08 01 00
	00 00 00 00 00	 mov	 DWORD PTR [edi+264], 0
  00089	89 9f 10 01 00
	00		 mov	 DWORD PTR [edi+272], ebx

; 341  : 		{
; 342  : 			rpSlotButton = new CSlotButton(CSlotButton::SLOT_BUTTON_TYPE_PLUS, rSlot.dwSlotNumber, this);

  0008f	eb 02		 jmp	 SHORT $LN8@AppendSlot
$LN7@AppendSlot:
  00091	33 ff		 xor	 edi, edi
$LN8@AppendSlot:
  00093	89 7e 4c	 mov	 DWORD PTR [esi+76], edi
; File D:\Metin2 Server Files\mainline\SRC_2014\Metin2Client\eterPythonLib\PythonWindow.h

; 99   : 			void			AddFlag(DWORD flag)		{ SET_BIT(m_dwFlag, flag);		}

  00096	81 4f 58 00 01
	00 00		 or	 DWORD PTR [edi+88], 256	; 00000100H
; File D:\Metin2 Server Files\mainline\SRC_2014\Metin2Client\eterPythonLib\PythonSlotWindow.cpp

; 344  : 			CWindowManager::Instance().SetParent(rpSlotButton, this);

  0009d	8b 0d 00 00 00
	00		 mov	 ecx, DWORD PTR ?ms_singleton@?$CSingleton@VCWindowManager@UI@@@@0PAVCWindowManager@UI@@A ; CSingleton<UI::CWindowManager>::ms_singleton
  000a3	53		 push	 ebx
  000a4	ff 76 4c	 push	 DWORD PTR [esi+76]
  000a7	c7 45 fc ff ff
	ff ff		 mov	 DWORD PTR __$EHRec$[ebp+8], -1
  000ae	e8 00 00 00 00	 call	 ?SetParent@CWindowManager@UI@@QAEXPAVCWindow@2@0@Z ; UI::CWindowManager::SetParent
  000b3	8b 4e 4c	 mov	 ecx, DWORD PTR [esi+76]
$LN47@AppendSlot:

; 345  : 		}
; 346  : 
; 347  : 		rpSlotButton->SetUpVisual(c_szUpImageName);

  000b6	ff 75 08	 push	 DWORD PTR _c_szUpImageName$[ebp]
  000b9	e8 00 00 00 00	 call	 ?SetUpVisual@CButton@UI@@QAEHPBD@Z ; UI::CButton::SetUpVisual

; 348  : 		rpSlotButton->SetOverVisual(c_szOverImageName);

  000be	ff 75 0c	 push	 DWORD PTR _c_szOverImageName$[ebp]
  000c1	8b 4e 4c	 mov	 ecx, DWORD PTR [esi+76]
  000c4	e8 00 00 00 00	 call	 ?SetOverVisual@CButton@UI@@QAEHPBD@Z ; UI::CButton::SetOverVisual

; 349  : 		rpSlotButton->SetDownVisual(c_szDownImageName);

  000c9	ff 75 10	 push	 DWORD PTR _c_szDownImageName$[ebp]
  000cc	8b 4e 4c	 mov	 ecx, DWORD PTR [esi+76]
  000cf	e8 00 00 00 00	 call	 ?SetDownVisual@CButton@UI@@QAEHPBD@Z ; UI::CButton::SetDownVisual

; 350  : 		rpSlotButton->SetPosition(rSlot.ixPosition + 1, rSlot.iyPosition + 19);

  000d4	8b 46 2c	 mov	 eax, DWORD PTR [esi+44]
  000d7	8b 4e 4c	 mov	 ecx, DWORD PTR [esi+76]
  000da	83 c0 13	 add	 eax, 19			; 00000013H
  000dd	50		 push	 eax
  000de	8b 46 28	 mov	 eax, DWORD PTR [esi+40]
  000e1	40		 inc	 eax
  000e2	50		 push	 eax
  000e3	e8 00 00 00 00	 call	 ?SetPosition@CWindow@UI@@QAEXJJ@Z ; UI::CWindow::SetPosition

; 351  : 		rpSlotButton->Hide();

  000e8	8b 4e 4c	 mov	 ecx, DWORD PTR [esi+76]
  000eb	e8 00 00 00 00	 call	 ?Hide@CWindow@UI@@QAEXXZ ; UI::CWindow::Hide
; File C:\Program Files (x86)\Microsoft Visual Studio\2019\Community\VC\Tools\MSVC\14.28.29333\include\list

; 166  :         this->_Ptr = this->_Ptr->_Next;

  000f0	8b 36		 mov	 esi, DWORD PTR [esi]

; 199  :         return this->_Ptr == _Right._Ptr;

  000f2	3b b3 88 00 00
	00		 cmp	 esi, DWORD PTR [ebx+136]
; File D:\Metin2 Server Files\mainline\SRC_2014\Metin2Client\eterPythonLib\PythonSlotWindow.cpp

; 335  : 	for (TSlotListIterator itor = m_SlotList.begin(); itor != m_SlotList.end(); ++itor)

  000f8	0f 85 42 ff ff
	ff		 jne	 $LL21@AppendSlot
$LN3@AppendSlot:

; 352  : 	}
; 353  : }

  000fe	8b 4d f4	 mov	 ecx, DWORD PTR __$EHRec$[ebp]
  00101	64 89 0d 00 00
	00 00		 mov	 DWORD PTR fs:0, ecx
  00108	59		 pop	 ecx
  00109	5f		 pop	 edi
  0010a	5e		 pop	 esi
  0010b	5b		 pop	 ebx
  0010c	8b e5		 mov	 esp, ebp
  0010e	5d		 pop	 ebp
  0010f	c2 0c 00	 ret	 12			; 0000000cH
_TEXT	ENDS
;	COMDAT text$x
text$x	SEGMENT
__unwindfunclet$?AppendSlotButton@CSlotWindow@UI@@QAEXPBD00@Z$0:
  00000	68 14 01 00 00	 push	 276			; 00000114H
  00005	8b 45 ec	 mov	 eax, DWORD PTR $T2[ebp]
  00008	50		 push	 eax
  00009	e8 00 00 00 00	 call	 ??3@YAXPAXI@Z		; operator delete
  0000e	83 c4 08	 add	 esp, 8
  00011	c3		 ret	 0
  00012	cc		 int	 3
  00013	cc		 int	 3
  00014	cc		 int	 3
  00015	cc		 int	 3
  00016	cc		 int	 3
__ehhandler$?AppendSlotButton@CSlotWindow@UI@@QAEXPBD00@Z:
  00017	90		 npad	 1
  00018	90		 npad	 1
  00019	8b 54 24 08	 mov	 edx, DWORD PTR [esp+8]
  0001d	8d 42 0c	 lea	 eax, DWORD PTR [edx+12]
  00020	8b 4a e8	 mov	 ecx, DWORD PTR [edx-24]
  00023	33 c8		 xor	 ecx, eax
  00025	e8 00 00 00 00	 call	 @__security_check_cookie@4
  0002a	b8 00 00 00 00	 mov	 eax, OFFSET __ehfuncinfo$?AppendSlotButton@CSlotWindow@UI@@QAEXPBD00@Z
  0002f	e9 00 00 00 00	 jmp	 ___CxxFrameHandler3
text$x	ENDS
?AppendSlotButton@CSlotWindow@UI@@QAEXPBD00@Z ENDP	; UI::CSlotWindow::AppendSlotButton
; Function compile flags: /Ogtp
; File D:\Metin2 Server Files\mainline\SRC_2014\Metin2Client\eterPythonLib\PythonSlotWindow.cpp
;	COMDAT ?SetSlotBaseImage@CSlotWindow@UI@@QAEXPBDMMMM@Z
_TEXT	SEGMENT
_c_szFileName$ = 8					; size = 4
_fr$ = 12						; size = 4
_fg$ = 16						; size = 4
_fb$ = 20						; size = 4
_fa$ = 24						; size = 4
?SetSlotBaseImage@CSlotWindow@UI@@QAEXPBDMMMM@Z PROC	; UI::CSlotWindow::SetSlotBaseImage, COMDAT
; _this$ = ecx

; 329  : {

  00000	55		 push	 ebp
  00001	8b ec		 mov	 ebp, esp

; 330  : 	__CreateBaseImage(c_szFileName, fr, fg, fb, fa);

  00003	f3 0f 10 45 18	 movss	 xmm0, DWORD PTR _fa$[ebp]
  00008	83 ec 10	 sub	 esp, 16			; 00000010H
  0000b	f3 0f 11 44 24
	0c		 movss	 DWORD PTR [esp+12], xmm0
  00011	f3 0f 10 45 14	 movss	 xmm0, DWORD PTR _fb$[ebp]
  00016	f3 0f 11 44 24
	08		 movss	 DWORD PTR [esp+8], xmm0
  0001c	f3 0f 10 45 10	 movss	 xmm0, DWORD PTR _fg$[ebp]
  00021	f3 0f 11 44 24
	04		 movss	 DWORD PTR [esp+4], xmm0
  00027	f3 0f 10 45 0c	 movss	 xmm0, DWORD PTR _fr$[ebp]
  0002c	f3 0f 11 04 24	 movss	 DWORD PTR [esp], xmm0
  00031	ff 75 08	 push	 DWORD PTR _c_szFileName$[ebp]
  00034	e8 00 00 00 00	 call	 ?__CreateBaseImage@CSlotWindow@UI@@IAEXPBDMMMM@Z ; UI::CSlotWindow::__CreateBaseImage

; 331  : }

  00039	5d		 pop	 ebp
  0003a	c2 14 00	 ret	 20			; 00000014H
?SetSlotBaseImage@CSlotWindow@UI@@QAEXPBDMMMM@Z ENDP	; UI::CSlotWindow::SetSlotBaseImage
_TEXT	ENDS
; Function compile flags: /Ogtp
; File D:\Metin2 Server Files\mainline\SRC_2014\Metin2Client\eterPythonLib\PythonSlotWindow.cpp
;	COMDAT ?SetCoverButton@CSlotWindow@UI@@QAEXKPBD000HH@Z
_TEXT	SEGMENT
_this$1$ = -20						; size = 4
_pSlot$ = -16						; size = 4
__$EHRec$ = -12						; size = 12
$T2 = 8							; size = 4
_dwIndex$ = 8						; size = 4
_c_szUpImageName$ = 12					; size = 4
_c_szOverImageName$ = 16				; size = 4
_c_szDownImageName$ = 20				; size = 4
_c_szDisableImageName$ = 24				; size = 4
_bLeftButtonEnable$ = 28				; size = 4
_bRightButtonEnable$ = 32				; size = 4
?SetCoverButton@CSlotWindow@UI@@QAEXKPBD000HH@Z PROC	; UI::CSlotWindow::SetCoverButton, COMDAT
; _this$ = ecx

; 233  : {

  00000	55		 push	 ebp
  00001	8b ec		 mov	 ebp, esp
  00003	6a ff		 push	 -1
  00005	68 00 00 00 00	 push	 __ehhandler$?SetCoverButton@CSlotWindow@UI@@QAEXKPBD000HH@Z
  0000a	64 a1 00 00 00
	00		 mov	 eax, DWORD PTR fs:0
  00010	50		 push	 eax
  00011	83 ec 08	 sub	 esp, 8
  00014	53		 push	 ebx
  00015	56		 push	 esi
  00016	57		 push	 edi
  00017	a1 00 00 00 00	 mov	 eax, DWORD PTR ___security_cookie
  0001c	33 c5		 xor	 eax, ebp
  0001e	50		 push	 eax
  0001f	8d 45 f4	 lea	 eax, DWORD PTR __$EHRec$[ebp]
  00022	64 a3 00 00 00
	00		 mov	 DWORD PTR fs:0, eax
  00028	8b f1		 mov	 esi, ecx
  0002a	89 75 ec	 mov	 DWORD PTR _this$1$[ebp], esi

; 234  : 	TSlot * pSlot;
; 235  : 	if (!GetSlotPointer(dwIndex, &pSlot))

  0002d	8d 45 f0	 lea	 eax, DWORD PTR _pSlot$[ebp]
  00030	50		 push	 eax
  00031	ff 75 08	 push	 DWORD PTR _dwIndex$[ebp]
  00034	e8 00 00 00 00	 call	 ?GetSlotPointer@CSlotWindow@UI@@IAEHKPAPAUSSlot@12@@Z ; UI::CSlotWindow::GetSlotPointer
  00039	85 c0		 test	 eax, eax
  0003b	0f 84 e4 00 00
	00		 je	 $LN4@SetCoverBu

; 236  : 		return;
; 237  : 
; 238  : 	CCoverButton *& rpCoverButton = pSlot->pCoverButton;

  00041	8b 5d f0	 mov	 ebx, DWORD PTR _pSlot$[ebp]

; 239  : 
; 240  : 	if (!rpCoverButton)

  00044	8b 4b 40	 mov	 ecx, DWORD PTR [ebx+64]
  00047	85 c9		 test	 ecx, ecx
  00049	75 7a		 jne	 SHORT $LN3@SetCoverBu

; 241  : 	{
; 242  : 		rpCoverButton = new CCoverButton(CSlotButton::SLOT_BUTTON_TYPE_COVER, pSlot->dwSlotNumber, this);

  0004b	68 1c 01 00 00	 push	 284			; 0000011cH
  00050	e8 00 00 00 00	 call	 ??2@YAPAXI@Z		; operator new
  00055	8b f8		 mov	 edi, eax
  00057	83 c4 04	 add	 esp, 4
  0005a	89 7d 08	 mov	 DWORD PTR $T2[ebp], edi
  0005d	c7 45 fc 00 00
	00 00		 mov	 DWORD PTR __$EHRec$[ebp+8], 0
  00064	85 ff		 test	 edi, edi
  00066	74 41		 je	 SHORT $LN6@SetCoverBu
  00068	8b 73 04	 mov	 esi, DWORD PTR [ebx+4]

; 21   : 		CSlotButton(ESlotButtonType dwType, DWORD dwSlotNumber, CSlotWindow * pParent) : CButton(NULL)

  0006b	8b cf		 mov	 ecx, edi
  0006d	6a 00		 push	 0
  0006f	e8 00 00 00 00	 call	 ??0CButton@UI@@QAE@PAU_object@@@Z ; UI::CButton::CButton

; 22   : 		{
; 23   : 			m_dwSlotButtonType = dwType;
; 24   : 			m_dwSlotNumber = dwSlotNumber;

  00074	89 b7 0c 01 00
	00		 mov	 DWORD PTR [edi+268], esi

; 25   : 			m_pParent = pParent;

  0007a	8b 75 ec	 mov	 esi, DWORD PTR _this$1$[ebp]
  0007d	c7 87 08 01 00
	00 01 00 00 00	 mov	 DWORD PTR [edi+264], 1
  00087	89 b7 10 01 00
	00		 mov	 DWORD PTR [edi+272], esi

; 92   : 		{

  0008d	c7 07 00 00 00
	00		 mov	 DWORD PTR [edi], OFFSET ??_7CCoverButton@CSlotWindow@UI@@6B@

; 93   : 			m_bLeftButtonEnable = TRUE;

  00093	c7 87 14 01 00
	00 01 00 00 00	 mov	 DWORD PTR [edi+276], 1

; 94   : 			m_bRightButtonEnable = TRUE;

  0009d	c7 87 18 01 00
	00 01 00 00 00	 mov	 DWORD PTR [edi+280], 1

; 241  : 	{
; 242  : 		rpCoverButton = new CCoverButton(CSlotButton::SLOT_BUTTON_TYPE_COVER, pSlot->dwSlotNumber, this);

  000a7	eb 02		 jmp	 SHORT $LN7@SetCoverBu
$LN6@SetCoverBu:
  000a9	33 ff		 xor	 edi, edi
$LN7@SetCoverBu:

; 243  : 		CWindowManager::Instance().SetParent(rpCoverButton, this);

  000ab	56		 push	 esi
  000ac	89 7b 40	 mov	 DWORD PTR [ebx+64], edi
  000af	8b 0d 00 00 00
	00		 mov	 ecx, DWORD PTR ?ms_singleton@?$CSingleton@VCWindowManager@UI@@@@0PAVCWindowManager@UI@@A ; CSingleton<UI::CWindowManager>::ms_singleton
  000b5	57		 push	 edi
  000b6	c7 45 fc ff ff
	ff ff		 mov	 DWORD PTR __$EHRec$[ebp+8], -1
  000bd	e8 00 00 00 00	 call	 ?SetParent@CWindowManager@UI@@QAEXPAVCWindow@2@0@Z ; UI::CWindowManager::SetParent
  000c2	8b 4b 40	 mov	 ecx, DWORD PTR [ebx+64]
$LN3@SetCoverBu:

; 244  : 	}
; 245  : 
; 246  : 	rpCoverButton->SetLeftButtonEnable(bLeftButtonEnable);

  000c5	8b 45 1c	 mov	 eax, DWORD PTR _bLeftButtonEnable$[ebp]

; 247  : 	rpCoverButton->SetRightButtonEnable(bRightButtonEnable);
; 248  : 	rpCoverButton->SetUpVisual(c_szUpImageName);

  000c8	ff 75 0c	 push	 DWORD PTR _c_szUpImageName$[ebp]
  000cb	89 81 14 01 00
	00		 mov	 DWORD PTR [ecx+276], eax
  000d1	8b 4b 40	 mov	 ecx, DWORD PTR [ebx+64]
  000d4	8b 45 20	 mov	 eax, DWORD PTR _bRightButtonEnable$[ebp]
  000d7	89 81 18 01 00
	00		 mov	 DWORD PTR [ecx+280], eax
  000dd	8b 4b 40	 mov	 ecx, DWORD PTR [ebx+64]
  000e0	e8 00 00 00 00	 call	 ?SetUpVisual@CButton@UI@@QAEHPBD@Z ; UI::CButton::SetUpVisual

; 249  : 	rpCoverButton->SetOverVisual(c_szOverImageName);

  000e5	ff 75 10	 push	 DWORD PTR _c_szOverImageName$[ebp]
  000e8	8b 4b 40	 mov	 ecx, DWORD PTR [ebx+64]
  000eb	e8 00 00 00 00	 call	 ?SetOverVisual@CButton@UI@@QAEHPBD@Z ; UI::CButton::SetOverVisual

; 250  : 	rpCoverButton->SetDownVisual(c_szDownImageName);

  000f0	ff 75 14	 push	 DWORD PTR _c_szDownImageName$[ebp]
  000f3	8b 4b 40	 mov	 ecx, DWORD PTR [ebx+64]
  000f6	e8 00 00 00 00	 call	 ?SetDownVisual@CButton@UI@@QAEHPBD@Z ; UI::CButton::SetDownVisual

; 251  : 	rpCoverButton->SetDisableVisual(c_szDisableImageName);

  000fb	ff 75 18	 push	 DWORD PTR _c_szDisableImageName$[ebp]
  000fe	8b 4b 40	 mov	 ecx, DWORD PTR [ebx+64]
  00101	e8 00 00 00 00	 call	 ?SetDisableVisual@CButton@UI@@QAEHPBD@Z ; UI::CButton::SetDisableVisual

; 252  : 	rpCoverButton->Enable();

  00106	8b 4b 40	 mov	 ecx, DWORD PTR [ebx+64]
  00109	e8 00 00 00 00	 call	 ?Enable@CButton@UI@@QAEXXZ ; UI::CButton::Enable

; 253  : 	rpCoverButton->Show();

  0010e	8b 4b 40	 mov	 ecx, DWORD PTR [ebx+64]
  00111	e8 00 00 00 00	 call	 ?Show@CWindow@UI@@QAEXXZ ; UI::CWindow::Show

; 254  : 
; 255  : 	// NOTE : Cover  Plus    ..
; 256  : 	if (pSlot->pSlotButton)

  00116	8b 43 44	 mov	 eax, DWORD PTR [ebx+68]
  00119	85 c0		 test	 eax, eax
  0011b	74 08		 je	 SHORT $LN4@SetCoverBu

; 257  : 	{
; 258  : 		SetTop(pSlot->pSlotButton);

  0011d	50		 push	 eax
  0011e	8b ce		 mov	 ecx, esi
  00120	e8 00 00 00 00	 call	 ?SetTop@CWindow@UI@@QAEXPAV12@@Z ; UI::CWindow::SetTop
$LN4@SetCoverBu:

; 259  : 	}
; 260  : }

  00125	8b 4d f4	 mov	 ecx, DWORD PTR __$EHRec$[ebp]
  00128	64 89 0d 00 00
	00 00		 mov	 DWORD PTR fs:0, ecx
  0012f	59		 pop	 ecx
  00130	5f		 pop	 edi
  00131	5e		 pop	 esi
  00132	5b		 pop	 ebx
  00133	8b e5		 mov	 esp, ebp
  00135	5d		 pop	 ebp
  00136	c2 1c 00	 ret	 28			; 0000001cH
_TEXT	ENDS
;	COMDAT text$x
text$x	SEGMENT
__unwindfunclet$?SetCoverButton@CSlotWindow@UI@@QAEXKPBD000HH@Z$0:
  00000	68 1c 01 00 00	 push	 284			; 0000011cH
  00005	8b 45 08	 mov	 eax, DWORD PTR $T2[ebp]
  00008	50		 push	 eax
  00009	e8 00 00 00 00	 call	 ??3@YAXPAXI@Z		; operator delete
  0000e	83 c4 08	 add	 esp, 8
  00011	c3		 ret	 0
  00012	cc		 int	 3
  00013	cc		 int	 3
  00014	cc		 int	 3
  00015	cc		 int	 3
  00016	cc		 int	 3
__ehhandler$?SetCoverButton@CSlotWindow@UI@@QAEXKPBD000HH@Z:
  00017	90		 npad	 1
  00018	90		 npad	 1
  00019	8b 54 24 08	 mov	 edx, DWORD PTR [esp+8]
  0001d	8d 42 0c	 lea	 eax, DWORD PTR [edx+12]
  00020	8b 4a e8	 mov	 ecx, DWORD PTR [edx-24]
  00023	33 c8		 xor	 ecx, eax
  00025	e8 00 00 00 00	 call	 @__security_check_cookie@4
  0002a	b8 00 00 00 00	 mov	 eax, OFFSET __ehfuncinfo$?SetCoverButton@CSlotWindow@UI@@QAEXKPBD000HH@Z
  0002f	e9 00 00 00 00	 jmp	 ___CxxFrameHandler3
text$x	ENDS
?SetCoverButton@CSlotWindow@UI@@QAEXKPBD000HH@Z ENDP	; UI::CSlotWindow::SetCoverButton
; Function compile flags: /Ogtp
; File D:\Metin2 Server Files\mainline\SRC_2014\Metin2Client\eterPythonLib\PythonSlotWindow.cpp
; File C:\Program Files (x86)\Microsoft Visual Studio\2019\Community\VC\Tools\MSVC\14.28.29333\include\list
; File D:\Metin2 Server Files\mainline\SRC_2014\Metin2Client\eterPythonLib\PythonSlotWindow.cpp
; File C:\Program Files (x86)\Microsoft Visual Studio\2019\Community\VC\Tools\MSVC\14.28.29333\include\list
; File C:\Program Files (x86)\Microsoft Visual Studio\2019\Community\VC\Tools\MSVC\14.28.29333\include\xmemory
; File C:\Program Files (x86)\Microsoft Visual Studio\2019\Community\VC\Tools\MSVC\14.28.29333\include\list
; File C:\Program Files (x86)\Microsoft Visual Studio\2019\Community\VC\Tools\MSVC\14.28.29333\include\xmemory
; File C:\Program Files (x86)\Microsoft Visual Studio\2019\Community\VC\Tools\MSVC\14.28.29333\include\list
; File C:\Program Files (x86)\Microsoft Visual Studio\2019\Community\VC\Tools\MSVC\14.28.29333\include\xmemory
; File C:\Program Files (x86)\Microsoft Visual Studio\2019\Community\VC\Tools\MSVC\14.28.29333\include\list
; File D:\Metin2 Server Files\mainline\SRC_2014\Metin2Client\eterPythonLib\PythonSlotWindow.cpp
; File C:\Program Files (x86)\Microsoft Visual Studio\2019\Community\VC\Tools\MSVC\14.28.29333\include\list
; File D:\Metin2 Server Files\mainline\SRC_2014\Metin2Client\eterPythonLib\PythonSlotWindow.cpp
;	COMDAT ?AppendSlot@CSlotWindow@UI@@QAEXKHHHH@Z
_TEXT	SEGMENT
_Slot$ = -100						; size = 80
__Op$2 = -20						; size = 8
__$EHRec$ = -12						; size = 12
__Where$1$ = 8						; size = 4
_dwIndex$ = 8						; size = 4
__Insert_before$3 = 12					; size = 4
_ixPosition$ = 12					; size = 4
__Insert_after$4 = 16					; size = 4
_iyPosition$ = 16					; size = 4
_ixCellSize$ = 20					; size = 4
_iyCellSize$ = 24					; size = 4
?AppendSlot@CSlotWindow@UI@@QAEXKHHHH@Z PROC		; UI::CSlotWindow::AppendSlot, COMDAT
; _this$ = ecx

; 213  : {

  00000	55		 push	 ebp
  00001	8b ec		 mov	 ebp, esp
  00003	6a ff		 push	 -1
  00005	68 00 00 00 00	 push	 __ehhandler$?AppendSlot@CSlotWindow@UI@@QAEXKHHHH@Z
  0000a	64 a1 00 00 00
	00		 mov	 eax, DWORD PTR fs:0
  00010	50		 push	 eax
  00011	83 ec 58	 sub	 esp, 88			; 00000058H
  00014	56		 push	 esi
  00015	57		 push	 edi
  00016	a1 00 00 00 00	 mov	 eax, DWORD PTR ___security_cookie
  0001b	33 c5		 xor	 eax, ebp
  0001d	50		 push	 eax
  0001e	8d 45 f4	 lea	 eax, DWORD PTR __$EHRec$[ebp]
  00021	64 a3 00 00 00
	00		 mov	 DWORD PTR fs:0, eax
  00027	8b f1		 mov	 esi, ecx

; 214  : 	TSlot Slot;
; 215  : 	Slot.pInstance = NULL;
; 216  : 	Slot.pNumberLine = NULL;
; 217  : 	Slot.pCoverButton = NULL;
; 218  : 	Slot.pSlotButton = NULL;
; 219  : 	Slot.pSignImage = NULL;
; 220  : 	Slot.pFinishCoolTimeEffect = NULL;
; 221  : 
; 222  : 	ClearSlot(&Slot);

  00029	8d 45 9c	 lea	 eax, DWORD PTR _Slot$[ebp]
  0002c	c7 45 d0 00 00
	00 00		 mov	 DWORD PTR _Slot$[ebp+52], 0
  00033	0f 57 c0	 xorps	 xmm0, xmm0
  00036	c7 45 d4 00 00
	00 00		 mov	 DWORD PTR _Slot$[ebp+56], 0
  0003d	50		 push	 eax
  0003e	0f 11 45 dc	 movups	 XMMWORD PTR _Slot$[ebp+64], xmm0
  00042	e8 00 00 00 00	 call	 ?ClearSlot@CSlotWindow@UI@@IAEXPAUSSlot@12@@Z ; UI::CSlotWindow::ClearSlot

; 223  : 	Slot.dwSlotNumber = dwIndex;

  00047	8b 45 08	 mov	 eax, DWORD PTR _dwIndex$[ebp]

; 229  : 	m_SlotList.push_back(Slot);

  0004a	81 c6 88 00 00
	00		 add	 esi, 136		; 00000088H
  00050	89 45 a0	 mov	 DWORD PTR _Slot$[ebp+4], eax
  00053	89 45 a4	 mov	 DWORD PTR _Slot$[ebp+8], eax
  00056	8b 45 0c	 mov	 eax, DWORD PTR _ixPosition$[ebp]
; File C:\Program Files (x86)\Microsoft Visual Studio\2019\Community\VC\Tools\MSVC\14.28.29333\include\list

; 1014 :         if (_Mysize == max_size()) {

  00059	81 7e 04 2e ba
	e8 02		 cmp	 DWORD PTR [esi+4], 48806446 ; 02e8ba2eH
; File D:\Metin2 Server Files\mainline\SRC_2014\Metin2Client\eterPythonLib\PythonSlotWindow.cpp

; 225  : 	Slot.ixPosition = ixPosition;

  00060	89 45 bc	 mov	 DWORD PTR _Slot$[ebp+32], eax

; 226  : 	Slot.iyPosition = iyPosition;

  00063	8b 45 10	 mov	 eax, DWORD PTR _iyPosition$[ebp]
  00066	89 45 c0	 mov	 DWORD PTR _Slot$[ebp+36], eax

; 227  : 	Slot.ixCellSize = ixCellSize;

  00069	8b 45 14	 mov	 eax, DWORD PTR _ixCellSize$[ebp]
  0006c	89 45 c4	 mov	 DWORD PTR _Slot$[ebp+40], eax

; 228  : 	Slot.iyCellSize = iyCellSize;

  0006f	8b 45 18	 mov	 eax, DWORD PTR _iyCellSize$[ebp]
  00072	89 45 c8	 mov	 DWORD PTR _Slot$[ebp+44], eax
; File C:\Program Files (x86)\Microsoft Visual Studio\2019\Community\VC\Tools\MSVC\14.28.29333\include\list

; 1252 :         _Emplace(_Mypair._Myval2._Myhead, _Val);

  00075	8b 06		 mov	 eax, DWORD PTR [esi]
  00077	89 45 08	 mov	 DWORD PTR __Where$1$[ebp], eax

; 1014 :         if (_Mysize == max_size()) {

  0007a	0f 84 86 00 00
	00		 je	 $LN54@AppendSlot
; File C:\Program Files (x86)\Microsoft Visual Studio\2019\Community\VC\Tools\MSVC\14.28.29333\include\xmemory

; 1045 :     explicit _Alloc_construct_ptr(_Alloc& _Al_) : _Al(_Al_), _Ptr(nullptr) {}

  00080	89 75 ec	 mov	 DWORD PTR __Op$2[ebp], esi

; 814  :         return static_cast<_Ty*>(_Allocate<_New_alignof<_Ty>>(_Get_size_of_n<sizeof(_Ty)>(_Count)));

  00083	6a 58		 push	 88			; 00000058H
; File C:\Program Files (x86)\Microsoft Visual Studio\2019\Community\VC\Tools\MSVC\14.28.29333\include\list

; 585  :     explicit _List_node_emplace_op2(_Alnode& _Al_, _Valtys&&... _Vals) : _Alloc_construct_ptr<_Alnode>(_Al_) {

  00085	c7 45 fc 00 00
	00 00		 mov	 DWORD PTR __$EHRec$[ebp+8], 0
; File C:\Program Files (x86)\Microsoft Visual Studio\2019\Community\VC\Tools\MSVC\14.28.29333\include\xmemory

; 1052 :         _Ptr = nullptr; // if allocate throws, prevents double-free

  0008c	c7 45 f0 00 00
	00 00		 mov	 DWORD PTR __Op$2[ebp+4], 0

; 814  :         return static_cast<_Ty*>(_Allocate<_New_alignof<_Ty>>(_Get_size_of_n<sizeof(_Ty)>(_Count)));

  00093	e8 00 00 00 00	 call	 ??$_Allocate@$07U_Default_allocate_traits@std@@$0A@@std@@YAPAXI@Z ; std::_Allocate<8,std::_Default_allocate_traits,0>

; 701  :         ::new (const_cast<void*>(static_cast<const volatile void*>(_Ptr))) _Objty(_STD forward<_Types>(_Args)...);

  00098	0f 10 45 9c	 movups	 xmm0, XMMWORD PTR _Slot$[ebp]

; 1053 :         _Ptr = _Al.allocate(1);

  0009c	8b f8		 mov	 edi, eax
; File C:\Program Files (x86)\Microsoft Visual Studio\2019\Community\VC\Tools\MSVC\14.28.29333\include\list

; 1020 :         return _Op._Transfer_before(_Where);

  0009e	8b 45 08	 mov	 eax, DWORD PTR __Where$1$[ebp]
  000a1	89 45 0c	 mov	 DWORD PTR __Insert_before$3[ebp], eax
; File C:\Program Files (x86)\Microsoft Visual Studio\2019\Community\VC\Tools\MSVC\14.28.29333\include\xmemory

; 701  :         ::new (const_cast<void*>(static_cast<const volatile void*>(_Ptr))) _Objty(_STD forward<_Types>(_Args)...);

  000a4	0f 11 47 08	 movups	 XMMWORD PTR [edi+8], xmm0
  000a8	0f 10 45 ac	 movups	 xmm0, XMMWORD PTR _Slot$[ebp+16]
  000ac	0f 11 47 18	 movups	 XMMWORD PTR [edi+24], xmm0
  000b0	0f 10 45 bc	 movups	 xmm0, XMMWORD PTR _Slot$[ebp+32]
  000b4	0f 11 47 28	 movups	 XMMWORD PTR [edi+40], xmm0
  000b8	0f 10 45 cc	 movups	 xmm0, XMMWORD PTR _Slot$[ebp+48]
  000bc	0f 11 47 38	 movups	 XMMWORD PTR [edi+56], xmm0
  000c0	0f 10 45 dc	 movups	 xmm0, XMMWORD PTR _Slot$[ebp+64]
  000c4	0f 11 47 48	 movups	 XMMWORD PTR [edi+72], xmm0
; File C:\Program Files (x86)\Microsoft Visual Studio\2019\Community\VC\Tools\MSVC\14.28.29333\include\list

; 1019 :         ++_Mysize;

  000c8	ff 46 04	 inc	 DWORD PTR [esi+4]

; 600  :         const pointer _Insert_after = _Insert_before->_Prev;

  000cb	8b 70 04	 mov	 esi, DWORD PTR [eax+4]

; 601  :         _Construct_in_place(this->_Ptr->_Next, _Insert_before);

  000ce	8d 45 0c	 lea	 eax, DWORD PTR __Insert_before$3[ebp]
  000d1	50		 push	 eax
  000d2	57		 push	 edi
  000d3	89 75 10	 mov	 DWORD PTR __Insert_after$4[ebp], esi
  000d6	e8 00 00 00 00	 call	 ??$_Construct_in_place@PAU?$_List_node@USSlot@CSlotWindow@UI@@PAX@std@@ABQAU12@@std@@YAXAAPAU?$_List_node@USSlot@CSlotWindow@UI@@PAX@0@ABQAU10@@Z ; std::_Construct_in_place<std::_List_node<UI::CSlotWindow::SSlot,void *> *,std::_List_node<UI::CSlotWindow::SSlot,void *> * const &>

; 602  :         _Construct_in_place(this->_Ptr->_Prev, _Insert_after);

  000db	8d 45 10	 lea	 eax, DWORD PTR __Insert_after$4[ebp]
  000de	50		 push	 eax
  000df	8d 47 04	 lea	 eax, DWORD PTR [edi+4]
  000e2	50		 push	 eax
  000e3	e8 00 00 00 00	 call	 ??$_Construct_in_place@PAU?$_List_node@USSlot@CSlotWindow@UI@@PAX@std@@ABQAU12@@std@@YAXAAPAU?$_List_node@USSlot@CSlotWindow@UI@@PAX@0@ABQAU10@@Z ; std::_Construct_in_place<std::_List_node<UI::CSlotWindow::SSlot,void *> *,std::_List_node<UI::CSlotWindow::SSlot,void *> * const &>

; 603  :         const auto _Result    = this->_Ptr;
; 604  :         this->_Ptr            = pointer{};
; 605  :         _Insert_before->_Prev = _Result;

  000e8	8b 45 08	 mov	 eax, DWORD PTR __Where$1$[ebp]
  000eb	83 c4 14	 add	 esp, 20			; 00000014H
  000ee	89 78 04	 mov	 DWORD PTR [eax+4], edi

; 606  :         _Insert_after->_Next  = _Result;

  000f1	89 3e		 mov	 DWORD PTR [esi], edi
; File D:\Metin2 Server Files\mainline\SRC_2014\Metin2Client\eterPythonLib\PythonSlotWindow.cpp

; 230  : }

  000f3	8b 4d f4	 mov	 ecx, DWORD PTR __$EHRec$[ebp]
  000f6	64 89 0d 00 00
	00 00		 mov	 DWORD PTR fs:0, ecx
  000fd	59		 pop	 ecx
  000fe	5f		 pop	 edi
  000ff	5e		 pop	 esi
  00100	8b e5		 mov	 esp, ebp
  00102	5d		 pop	 ebp
  00103	c2 14 00	 ret	 20			; 00000014H
$LN54@AppendSlot:
; File C:\Program Files (x86)\Microsoft Visual Studio\2019\Community\VC\Tools\MSVC\14.28.29333\include\list

; 1015 :             _Xlength_error("list too long");

  00106	68 00 00 00 00	 push	 OFFSET ??_C@_0O@NKNMEGII@list?5too?5long@
  0010b	e8 00 00 00 00	 call	 ?_Xlength_error@std@@YAXPBD@Z ; std::_Xlength_error
$LN52@AppendSlot:
  00110	cc		 int	 3
_TEXT	ENDS
;	COMDAT text$x
text$x	SEGMENT
__unwindfunclet$?AppendSlot@CSlotWindow@UI@@QAEXKHHHH@Z$1:
  00000	8d 4d ec	 lea	 ecx, DWORD PTR __Op$2[ebp]
  00003	e9 00 00 00 00	 jmp	 ??1?$_Alloc_construct_ptr@V?$allocator@U?$_List_node@USSlot@CSlotWindow@UI@@PAX@std@@@std@@@std@@QAE@XZ ; std::_Alloc_construct_ptr<std::allocator<std::_List_node<UI::CSlotWindow::SSlot,void *> > >::~_Alloc_construct_ptr<std::allocator<std::_List_node<UI::CSlotWindow::SSlot,void *> > >
  00008	cc		 int	 3
  00009	cc		 int	 3
  0000a	cc		 int	 3
  0000b	cc		 int	 3
  0000c	cc		 int	 3
__ehhandler$?AppendSlot@CSlotWindow@UI@@QAEXKHHHH@Z:
  0000d	90		 npad	 1
  0000e	90		 npad	 1
  0000f	8b 54 24 08	 mov	 edx, DWORD PTR [esp+8]
  00013	8d 42 0c	 lea	 eax, DWORD PTR [edx+12]
  00016	8b 4a 9c	 mov	 ecx, DWORD PTR [edx-100]
  00019	33 c8		 xor	 ecx, eax
  0001b	e8 00 00 00 00	 call	 @__security_check_cookie@4
  00020	b8 00 00 00 00	 mov	 eax, OFFSET __ehfuncinfo$?AppendSlot@CSlotWindow@UI@@QAEXKHHHH@Z
  00025	e9 00 00 00 00	 jmp	 ___CxxFrameHandler3
text$x	ENDS
?AppendSlot@CSlotWindow@UI@@QAEXKHHHH@Z ENDP		; UI::CSlotWindow::AppendSlot
; Function compile flags: /Ogtp
; File D:\Metin2 Server Files\mainline\SRC_2014\Metin2Client\eterPythonLib\PythonSlotWindow.cpp
;	COMDAT ?SetSlotStyle@CSlotWindow@UI@@QAEXK@Z
_TEXT	SEGMENT
_dwStyle$ = 8						; size = 4
?SetSlotStyle@CSlotWindow@UI@@QAEXK@Z PROC		; UI::CSlotWindow::SetSlotStyle, COMDAT
; _this$ = ecx

; 208  : {

  00000	55		 push	 ebp
  00001	8b ec		 mov	 ebp, esp

; 209  : 	m_dwSlotStyle = dwStyle;

  00003	8b 45 08	 mov	 eax, DWORD PTR _dwStyle$[ebp]
  00006	89 41 7c	 mov	 DWORD PTR [ecx+124], eax

; 210  : }

  00009	5d		 pop	 ebp
  0000a	c2 04 00	 ret	 4
?SetSlotStyle@CSlotWindow@UI@@QAEXK@Z ENDP		; UI::CSlotWindow::SetSlotStyle
_TEXT	ENDS
; Function compile flags: /Ogtp
; File D:\Metin2 Server Files\mainline\SRC_2014\Metin2Client\eterPythonLib\PythonSlotWindow.cpp
;	COMDAT ?SetSlotType@CSlotWindow@UI@@QAEXK@Z
_TEXT	SEGMENT
_dwType$ = 8						; size = 4
?SetSlotType@CSlotWindow@UI@@QAEXK@Z PROC		; UI::CSlotWindow::SetSlotType, COMDAT
; _this$ = ecx

; 203  : {

  00000	55		 push	 ebp
  00001	8b ec		 mov	 ebp, esp

; 204  : 	m_dwSlotType = dwType;

  00003	8b 45 08	 mov	 eax, DWORD PTR _dwType$[ebp]
  00006	89 41 78	 mov	 DWORD PTR [ecx+120], eax

; 205  : }

  00009	5d		 pop	 ebp
  0000a	c2 04 00	 ret	 4
?SetSlotType@CSlotWindow@UI@@QAEXK@Z ENDP		; UI::CSlotWindow::SetSlotType
_TEXT	ENDS
; Function compile flags: /Ogtp
; File D:\Metin2 Server Files\mainline\SRC_2014\Metin2Client\eterPythonLib\PythonSlotWindow.cpp
; File C:\Program Files (x86)\Microsoft Visual Studio\2019\Community\VC\Tools\MSVC\14.28.29333\include\list
; File D:\Metin2 Server Files\mainline\SRC_2014\Metin2Client\eterPythonLib\PythonSlotWindow.cpp
; File C:\Program Files (x86)\Microsoft Visual Studio\2019\Community\VC\Tools\MSVC\14.28.29333\include\list
; File D:\Metin2 Server Files\mainline\SRC_2014\Metin2Client\eterPythonLib\PythonSlotWindow.cpp
; File C:\Program Files (x86)\Microsoft Visual Studio\2019\Community\VC\Tools\MSVC\14.28.29333\include\list
; File D:\Metin2 Server Files\mainline\SRC_2014\Metin2Client\eterPythonLib\PythonSlotWindow.cpp
; File C:\Program Files (x86)\Microsoft Visual Studio\2019\Community\VC\Tools\MSVC\14.28.29333\include\list
; File C:\Program Files (x86)\Microsoft Visual Studio\2019\Community\VC\Tools\MSVC\14.28.29333\include\xmemory
; File C:\Program Files (x86)\Microsoft Visual Studio\2019\Community\VC\Tools\MSVC\14.28.29333\include\list
; File D:\Metin2 Server Files\mainline\SRC_2014\Metin2Client\eterPythonLib\PythonSlotWindow.cpp
; File C:\Program Files (x86)\Microsoft Visual Studio\2019\Community\VC\Tools\MSVC\14.28.29333\include\list
; File D:\Metin2 Server Files\mainline\SRC_2014\Metin2Client\eterPythonLib\PythonSlotWindow.cpp
;	COMDAT ?Destroy@CSlotWindow@UI@@QAEXXZ
_TEXT	SEGMENT
?Destroy@CSlotWindow@UI@@QAEXXZ PROC			; UI::CSlotWindow::Destroy, COMDAT
; _this$ = ecx

; 1395 : {

  00000	53		 push	 ebx
  00001	8b d9		 mov	 ebx, ecx
  00003	56		 push	 esi
; File C:\Program Files (x86)\Microsoft Visual Studio\2019\Community\VC\Tools\MSVC\14.28.29333\include\list

; 1092 :         return iterator(_Mypair._Myval2._Myhead->_Next, _STD addressof(_Mypair._Myval2));

  00004	8b 83 88 00 00
	00		 mov	 eax, DWORD PTR [ebx+136]

; 39   :     _List_unchecked_const_iterator(_Nodeptr _Pnode, const _Mylist* _Plist) noexcept : _Ptr(_Pnode) {

  0000a	8b 30		 mov	 esi, DWORD PTR [eax]
  0000c	3b f0		 cmp	 esi, eax
; File D:\Metin2 Server Files\mainline\SRC_2014\Metin2Client\eterPythonLib\PythonSlotWindow.cpp

; 1396 : 	for (TSlotListIterator itor = m_SlotList.begin(); itor != m_SlotList.end(); ++itor)

  0000e	74 79		 je	 SHORT $LN3@Destroy
  00010	57		 push	 edi
$LL24@Destroy:
; File C:\Program Files (x86)\Microsoft Visual Studio\2019\Community\VC\Tools\MSVC\14.28.29333\include\list

; 152  :         return this->_Ptr->_Myval;

  00011	8d 7e 08	 lea	 edi, DWORD PTR [esi+8]
; File D:\Metin2 Server Files\mainline\SRC_2014\Metin2Client\eterPythonLib\PythonSlotWindow.cpp

; 1400 : 		ClearSlot(&rSlot);

  00014	8b cb		 mov	 ecx, ebx
  00016	57		 push	 edi
  00017	e8 00 00 00 00	 call	 ?ClearSlot@CSlotWindow@UI@@IAEXPAUSSlot@12@@Z ; UI::CSlotWindow::ClearSlot

; 1401 : 
; 1402 : 		if (rSlot.pNumberLine)

  0001c	8b 4f 38	 mov	 ecx, DWORD PTR [edi+56]
  0001f	85 c9		 test	 ecx, ecx
  00021	74 0d		 je	 SHORT $LN63@Destroy

; 1403 : 		{
; 1404 : 			delete rSlot.pNumberLine;

  00023	8b 01		 mov	 eax, DWORD PTR [ecx]
  00025	6a 01		 push	 1
  00027	ff 10		 call	 DWORD PTR [eax]

; 1405 : 			rSlot.pNumberLine = NULL;

  00029	c7 47 38 00 00
	00 00		 mov	 DWORD PTR [edi+56], 0
$LN63@Destroy:

; 1406 : 		}
; 1407 : 		if (rSlot.pCoverButton)

  00030	8b 47 40	 mov	 eax, DWORD PTR [edi+64]
  00033	85 c0		 test	 eax, eax
  00035	74 0c		 je	 SHORT $LN6@Destroy

; 1408 : 		{
; 1409 : 			CWindowManager::Instance().DestroyWindow(rSlot.pCoverButton);

  00037	8b 0d 00 00 00
	00		 mov	 ecx, DWORD PTR ?ms_singleton@?$CSingleton@VCWindowManager@UI@@@@0PAVCWindowManager@UI@@A ; CSingleton<UI::CWindowManager>::ms_singleton
  0003d	50		 push	 eax
  0003e	e8 00 00 00 00	 call	 ?DestroyWindow@CWindowManager@UI@@QAEXPAVCWindow@2@@Z ; UI::CWindowManager::DestroyWindow
$LN6@Destroy:

; 1410 : 		}
; 1411 : 		if (rSlot.pSlotButton)

  00043	8b 47 44	 mov	 eax, DWORD PTR [edi+68]
  00046	85 c0		 test	 eax, eax
  00048	74 0c		 je	 SHORT $LN7@Destroy

; 1412 : 		{
; 1413 : 			CWindowManager::Instance().DestroyWindow(rSlot.pSlotButton);

  0004a	8b 0d 00 00 00
	00		 mov	 ecx, DWORD PTR ?ms_singleton@?$CSingleton@VCWindowManager@UI@@@@0PAVCWindowManager@UI@@A ; CSingleton<UI::CWindowManager>::ms_singleton
  00050	50		 push	 eax
  00051	e8 00 00 00 00	 call	 ?DestroyWindow@CWindowManager@UI@@QAEXPAVCWindow@2@@Z ; UI::CWindowManager::DestroyWindow
$LN7@Destroy:

; 1414 : 		}
; 1415 : 		if (rSlot.pSignImage)

  00056	8b 47 48	 mov	 eax, DWORD PTR [edi+72]
  00059	85 c0		 test	 eax, eax
  0005b	74 0c		 je	 SHORT $LN8@Destroy

; 1416 : 		{
; 1417 : 			CWindowManager::Instance().DestroyWindow(rSlot.pSignImage);

  0005d	8b 0d 00 00 00
	00		 mov	 ecx, DWORD PTR ?ms_singleton@?$CSingleton@VCWindowManager@UI@@@@0PAVCWindowManager@UI@@A ; CSingleton<UI::CWindowManager>::ms_singleton
  00063	50		 push	 eax
  00064	e8 00 00 00 00	 call	 ?DestroyWindow@CWindowManager@UI@@QAEXPAVCWindow@2@@Z ; UI::CWindowManager::DestroyWindow
$LN8@Destroy:

; 1418 : 		}
; 1419 : 		if (rSlot.pFinishCoolTimeEffect)

  00069	8b 47 4c	 mov	 eax, DWORD PTR [edi+76]
  0006c	85 c0		 test	 eax, eax
  0006e	74 0c		 je	 SHORT $LN2@Destroy

; 1420 : 		{
; 1421 : 			CWindowManager::Instance().DestroyWindow(rSlot.pFinishCoolTimeEffect);

  00070	8b 0d 00 00 00
	00		 mov	 ecx, DWORD PTR ?ms_singleton@?$CSingleton@VCWindowManager@UI@@@@0PAVCWindowManager@UI@@A ; CSingleton<UI::CWindowManager>::ms_singleton
  00076	50		 push	 eax
  00077	e8 00 00 00 00	 call	 ?DestroyWindow@CWindowManager@UI@@QAEXPAVCWindow@2@@Z ; UI::CWindowManager::DestroyWindow
$LN2@Destroy:
; File C:\Program Files (x86)\Microsoft Visual Studio\2019\Community\VC\Tools\MSVC\14.28.29333\include\list

; 166  :         this->_Ptr = this->_Ptr->_Next;

  0007c	8b 36		 mov	 esi, DWORD PTR [esi]

; 39   :     _List_unchecked_const_iterator(_Nodeptr _Pnode, const _Mylist* _Plist) noexcept : _Ptr(_Pnode) {

  0007e	8b 83 88 00 00
	00		 mov	 eax, DWORD PTR [ebx+136]

; 199  :         return this->_Ptr == _Right._Ptr;

  00084	3b f0		 cmp	 esi, eax
; File D:\Metin2 Server Files\mainline\SRC_2014\Metin2Client\eterPythonLib\PythonSlotWindow.cpp

; 1396 : 	for (TSlotListIterator itor = m_SlotList.begin(); itor != m_SlotList.end(); ++itor)

  00086	75 89		 jne	 SHORT $LL24@Destroy
  00088	5f		 pop	 edi
$LN3@Destroy:
; File C:\Program Files (x86)\Microsoft Visual Studio\2019\Community\VC\Tools\MSVC\14.28.29333\include\list

; 324  :         _Head->_Prev->_Next = nullptr;

  00089	8b 48 04	 mov	 ecx, DWORD PTR [eax+4]
  0008c	c7 01 00 00 00
	00		 mov	 DWORD PTR [ecx], 0

; 325  : 
; 326  :         auto _Pnode = _Head->_Next;

  00092	8b 00		 mov	 eax, DWORD PTR [eax]

; 327  :         for (_Nodeptr _Pnext; _Pnode; _Pnode = _Pnext) {

  00094	85 c0		 test	 eax, eax
  00096	74 13		 je	 SHORT $LN45@Destroy
$LL46@Destroy:

; 328  :             _Pnext = _Pnode->_Next;

  00098	8b 30		 mov	 esi, DWORD PTR [eax]
; File C:\Program Files (x86)\Microsoft Visual Studio\2019\Community\VC\Tools\MSVC\14.28.29333\include\xmemory

; 696  :         _Deallocate<_New_alignof<value_type>>(_Ptr, sizeof(value_type) * _Count);

  0009a	6a 58		 push	 88			; 00000058H
  0009c	50		 push	 eax
  0009d	e8 00 00 00 00	 call	 ??$_Deallocate@$07$0A@@std@@YAXPAXI@Z ; std::_Deallocate<8,0>
  000a2	83 c4 08	 add	 esp, 8
; File C:\Program Files (x86)\Microsoft Visual Studio\2019\Community\VC\Tools\MSVC\14.28.29333\include\list

; 327  :         for (_Nodeptr _Pnext; _Pnode; _Pnode = _Pnext) {

  000a5	8b c6		 mov	 eax, esi
  000a7	85 f6		 test	 esi, esi
  000a9	75 ed		 jne	 SHORT $LL46@Destroy
$LN45@Destroy:

; 1430 :         _My_data._Myhead->_Next = _My_data._Myhead;

  000ab	8b 83 88 00 00
	00		 mov	 eax, DWORD PTR [ebx+136]
; File D:\Metin2 Server Files\mainline\SRC_2014\Metin2Client\eterPythonLib\PythonSlotWindow.cpp

; 1427 : 	__DestroyToggleSlotImage();

  000b1	8b cb		 mov	 ecx, ebx
; File C:\Program Files (x86)\Microsoft Visual Studio\2019\Community\VC\Tools\MSVC\14.28.29333\include\list

; 1430 :         _My_data._Myhead->_Next = _My_data._Myhead;

  000b3	89 00		 mov	 DWORD PTR [eax], eax

; 1431 :         _My_data._Myhead->_Prev = _My_data._Myhead;

  000b5	8b 83 88 00 00
	00		 mov	 eax, DWORD PTR [ebx+136]
  000bb	89 40 04	 mov	 DWORD PTR [eax+4], eax

; 1432 :         _My_data._Mysize        = 0;

  000be	c7 83 8c 00 00
	00 00 00 00 00	 mov	 DWORD PTR [ebx+140], 0
; File D:\Metin2 Server Files\mainline\SRC_2014\Metin2Client\eterPythonLib\PythonSlotWindow.cpp

; 1427 : 	__DestroyToggleSlotImage();

  000c8	e8 00 00 00 00	 call	 ?__DestroyToggleSlotImage@CSlotWindow@UI@@IAEXXZ ; UI::CSlotWindow::__DestroyToggleSlotImage

; 1428 : 	__DestroySlotEnableEffect();

  000cd	8b cb		 mov	 ecx, ebx
  000cf	e8 00 00 00 00	 call	 ?__DestroySlotEnableEffect@CSlotWindow@UI@@IAEXXZ ; UI::CSlotWindow::__DestroySlotEnableEffect

; 1429 : 	__DestroyBaseImage();

  000d4	8b cb		 mov	 ecx, ebx
  000d6	e8 00 00 00 00	 call	 ?__DestroyBaseImage@CSlotWindow@UI@@IAEXXZ ; UI::CSlotWindow::__DestroyBaseImage

; 1430 : 
; 1431 : 	__Initialize();

  000db	5e		 pop	 esi
  000dc	8b cb		 mov	 ecx, ebx
  000de	5b		 pop	 ebx
  000df	e9 00 00 00 00	 jmp	 ?__Initialize@CSlotWindow@UI@@IAEXXZ ; UI::CSlotWindow::__Initialize
?Destroy@CSlotWindow@UI@@QAEXXZ ENDP			; UI::CSlotWindow::Destroy
_TEXT	ENDS
; Function compile flags: /Ogtp
; File D:\Metin2 Server Files\mainline\SRC_2014\Metin2Client\eterPythonLib\PythonSlotWindow.cpp
; File C:\Program Files (x86)\Microsoft Visual Studio\2019\Community\VC\Tools\MSVC\14.28.29333\include\deque
; File C:\Program Files (x86)\Microsoft Visual Studio\2019\Community\VC\Tools\MSVC\14.28.29333\include\utility
; File C:\Program Files (x86)\Microsoft Visual Studio\2019\Community\VC\Tools\MSVC\14.28.29333\include\deque
; File C:\Program Files (x86)\Microsoft Visual Studio\2019\Community\VC\Tools\MSVC\14.28.29333\include\utility
; File C:\Program Files (x86)\Microsoft Visual Studio\2019\Community\VC\Tools\MSVC\14.28.29333\include\deque
; File C:\Program Files (x86)\Microsoft Visual Studio\2019\Community\VC\Tools\MSVC\14.28.29333\include\list
; File C:\Program Files (x86)\Microsoft Visual Studio\2019\Community\VC\Tools\MSVC\14.28.29333\include\deque
; File C:\Program Files (x86)\Microsoft Visual Studio\2019\Community\VC\Tools\MSVC\14.28.29333\include\list
; File C:\Program Files (x86)\Microsoft Visual Studio\2019\Community\VC\Tools\MSVC\14.28.29333\include\xmemory
; File C:\Program Files (x86)\Microsoft Visual Studio\2019\Community\VC\Tools\MSVC\14.28.29333\include\list
; File C:\Program Files (x86)\Microsoft Visual Studio\2019\Community\VC\Tools\MSVC\14.28.29333\include\xmemory
; File C:\Program Files (x86)\Microsoft Visual Studio\2019\Community\VC\Tools\MSVC\14.28.29333\include\list
; File C:\Program Files (x86)\Microsoft Visual Studio\2019\Community\VC\Tools\MSVC\14.28.29333\include\xmemory
; File C:\Program Files (x86)\Microsoft Visual Studio\2019\Community\VC\Tools\MSVC\14.28.29333\include\list
; File C:\Program Files (x86)\Microsoft Visual Studio\2019\Community\VC\Tools\MSVC\14.28.29333\include\xmemory
; File C:\Program Files (x86)\Microsoft Visual Studio\2019\Community\VC\Tools\MSVC\14.28.29333\include\list
; File C:\Program Files (x86)\Microsoft Visual Studio\2019\Community\VC\Tools\MSVC\14.28.29333\include\xmemory
; File D:\Metin2 Server Files\mainline\SRC_2014\Metin2Client\eterPythonLib\PythonSlotWindow.cpp
;	COMDAT ??1CSlotWindow@UI@@UAE@XZ
_TEXT	SEGMENT
__Proxy_allocator$2 = -13				; size = 1
__$EHRec$ = -12						; size = 12
??1CSlotWindow@UI@@UAE@XZ PROC				; UI::CSlotWindow::~CSlotWindow, COMDAT
; _this$ = ecx

; 1440 : {

  00000	55		 push	 ebp
  00001	8b ec		 mov	 ebp, esp
  00003	6a ff		 push	 -1
  00005	68 00 00 00 00	 push	 __ehhandler$??1CSlotWindow@UI@@UAE@XZ
  0000a	64 a1 00 00 00
	00		 mov	 eax, DWORD PTR fs:0
  00010	50		 push	 eax
  00011	51		 push	 ecx
  00012	56		 push	 esi
  00013	57		 push	 edi
  00014	a1 00 00 00 00	 mov	 eax, DWORD PTR ___security_cookie
  00019	33 c5		 xor	 eax, ebp
  0001b	50		 push	 eax
  0001c	8d 45 f4	 lea	 eax, DWORD PTR __$EHRec$[ebp]
  0001f	64 a3 00 00 00
	00		 mov	 DWORD PTR fs:0, eax
  00025	8b f9		 mov	 edi, ecx
  00027	c7 07 00 00 00
	00		 mov	 DWORD PTR [edi], OFFSET ??_7CSlotWindow@UI@@6B@

; 1441 : 	Destroy();

  0002d	e8 00 00 00 00	 call	 ?Destroy@CSlotWindow@UI@@QAEXXZ ; UI::CSlotWindow::Destroy
; File C:\Program Files (x86)\Microsoft Visual Studio\2019\Community\VC\Tools\MSVC\14.28.29333\include\deque

; 870  :         _Tidy();

  00032	8d 8f a8 00 00
	00		 lea	 ecx, DWORD PTR [edi+168]
  00038	e8 00 00 00 00	 call	 ?_Tidy@?$deque@KV?$allocator@K@std@@@std@@AAEXXZ ; std::deque<unsigned long,std::allocator<unsigned long> >::_Tidy
; File C:\Program Files (x86)\Microsoft Visual Studio\2019\Community\VC\Tools\MSVC\14.28.29333\include\utility

; 598  :     _Ty _Old_val = static_cast<_Ty&&>(_Val);

  0003d	8b 87 a8 00 00
	00		 mov	 eax, DWORD PTR [edi+168]
; File C:\Program Files (x86)\Microsoft Visual Studio\2019\Community\VC\Tools\MSVC\14.28.29333\include\deque

; 872  :         _Delete_plain_internal(_Proxy_allocator, _STD exchange(_Get_data()._Myproxy, nullptr));

  00043	50		 push	 eax
  00044	8d 45 f3	 lea	 eax, DWORD PTR __Proxy_allocator$2[ebp]
; File C:\Program Files (x86)\Microsoft Visual Studio\2019\Community\VC\Tools\MSVC\14.28.29333\include\utility

; 599  :     _Val         = static_cast<_Other&&>(_New_val);

  00047	c7 87 a8 00 00
	00 00 00 00 00	 mov	 DWORD PTR [edi+168], 0
; File C:\Program Files (x86)\Microsoft Visual Studio\2019\Community\VC\Tools\MSVC\14.28.29333\include\deque

; 872  :         _Delete_plain_internal(_Proxy_allocator, _STD exchange(_Get_data()._Myproxy, nullptr));

  00051	50		 push	 eax
  00052	e8 00 00 00 00	 call	 ??$_Delete_plain_internal@V?$allocator@U_Container_proxy@std@@@std@@@std@@YAXAAV?$allocator@U_Container_proxy@std@@@0@QAU_Container_proxy@0@@Z ; std::_Delete_plain_internal<std::allocator<std::_Container_proxy> >
; File C:\Program Files (x86)\Microsoft Visual Studio\2019\Community\VC\Tools\MSVC\14.28.29333\include\list

; 1440 :         _Node::_Free_non_head(_Al, _My_data._Myhead);

  00057	8b 8f 88 00 00
	00		 mov	 ecx, DWORD PTR [edi+136]
; File C:\Program Files (x86)\Microsoft Visual Studio\2019\Community\VC\Tools\MSVC\14.28.29333\include\deque

; 872  :         _Delete_plain_internal(_Proxy_allocator, _STD exchange(_Get_data()._Myproxy, nullptr));

  0005d	83 c4 08	 add	 esp, 8
; File C:\Program Files (x86)\Microsoft Visual Studio\2019\Community\VC\Tools\MSVC\14.28.29333\include\list

; 324  :         _Head->_Prev->_Next = nullptr;

  00060	8b 41 04	 mov	 eax, DWORD PTR [ecx+4]
  00063	c7 00 00 00 00
	00		 mov	 DWORD PTR [eax], 0

; 325  : 
; 326  :         auto _Pnode = _Head->_Next;

  00069	8b 01		 mov	 eax, DWORD PTR [ecx]

; 327  :         for (_Nodeptr _Pnext; _Pnode; _Pnode = _Pnext) {

  0006b	85 c0		 test	 eax, eax
  0006d	74 14		 je	 SHORT $LN13@CSlotWindo
  0006f	90		 npad	 1
$LL14@CSlotWindo:

; 328  :             _Pnext = _Pnode->_Next;

  00070	8b 30		 mov	 esi, DWORD PTR [eax]
; File C:\Program Files (x86)\Microsoft Visual Studio\2019\Community\VC\Tools\MSVC\14.28.29333\include\xmemory

; 696  :         _Deallocate<_New_alignof<value_type>>(_Ptr, sizeof(value_type) * _Count);

  00072	6a 58		 push	 88			; 00000058H
  00074	50		 push	 eax
  00075	e8 00 00 00 00	 call	 ??$_Deallocate@$07$0A@@std@@YAXPAXI@Z ; std::_Deallocate<8,0>
  0007a	83 c4 08	 add	 esp, 8
; File C:\Program Files (x86)\Microsoft Visual Studio\2019\Community\VC\Tools\MSVC\14.28.29333\include\list

; 327  :         for (_Nodeptr _Pnext; _Pnode; _Pnode = _Pnext) {

  0007d	8b c6		 mov	 eax, esi
  0007f	85 f6		 test	 esi, esi
  00081	75 ed		 jne	 SHORT $LL14@CSlotWindo
$LN13@CSlotWindo:
; File C:\Program Files (x86)\Microsoft Visual Studio\2019\Community\VC\Tools\MSVC\14.28.29333\include\xmemory

; 696  :         _Deallocate<_New_alignof<value_type>>(_Ptr, sizeof(value_type) * _Count);

  00083	6a 58		 push	 88			; 00000058H
  00085	ff b7 88 00 00
	00		 push	 DWORD PTR [edi+136]
  0008b	e8 00 00 00 00	 call	 ??$_Deallocate@$07$0A@@std@@YAXPAXI@Z ; std::_Deallocate<8,0>
; File C:\Program Files (x86)\Microsoft Visual Studio\2019\Community\VC\Tools\MSVC\14.28.29333\include\list

; 1440 :         _Node::_Free_non_head(_Al, _My_data._Myhead);

  00090	8b 8f 80 00 00
	00		 mov	 ecx, DWORD PTR [edi+128]
; File C:\Program Files (x86)\Microsoft Visual Studio\2019\Community\VC\Tools\MSVC\14.28.29333\include\xmemory

; 696  :         _Deallocate<_New_alignof<value_type>>(_Ptr, sizeof(value_type) * _Count);

  00096	83 c4 08	 add	 esp, 8
; File C:\Program Files (x86)\Microsoft Visual Studio\2019\Community\VC\Tools\MSVC\14.28.29333\include\list

; 324  :         _Head->_Prev->_Next = nullptr;

  00099	8b 41 04	 mov	 eax, DWORD PTR [ecx+4]
  0009c	c7 00 00 00 00
	00		 mov	 DWORD PTR [eax], 0

; 325  : 
; 326  :         auto _Pnode = _Head->_Next;

  000a2	8b 01		 mov	 eax, DWORD PTR [ecx]

; 327  :         for (_Nodeptr _Pnext; _Pnode; _Pnode = _Pnext) {

  000a4	85 c0		 test	 eax, eax
  000a6	74 13		 je	 SHORT $LN32@CSlotWindo
$LL33@CSlotWindo:

; 328  :             _Pnext = _Pnode->_Next;

  000a8	8b 30		 mov	 esi, DWORD PTR [eax]
; File C:\Program Files (x86)\Microsoft Visual Studio\2019\Community\VC\Tools\MSVC\14.28.29333\include\xmemory

; 696  :         _Deallocate<_New_alignof<value_type>>(_Ptr, sizeof(value_type) * _Count);

  000aa	6a 0c		 push	 12			; 0000000cH
  000ac	50		 push	 eax
  000ad	e8 00 00 00 00	 call	 ??$_Deallocate@$07$0A@@std@@YAXPAXI@Z ; std::_Deallocate<8,0>
  000b2	83 c4 08	 add	 esp, 8
; File C:\Program Files (x86)\Microsoft Visual Studio\2019\Community\VC\Tools\MSVC\14.28.29333\include\list

; 327  :         for (_Nodeptr _Pnext; _Pnode; _Pnode = _Pnext) {

  000b5	8b c6		 mov	 eax, esi
  000b7	85 f6		 test	 esi, esi
  000b9	75 ed		 jne	 SHORT $LL33@CSlotWindo
$LN32@CSlotWindo:
; File C:\Program Files (x86)\Microsoft Visual Studio\2019\Community\VC\Tools\MSVC\14.28.29333\include\xmemory

; 696  :         _Deallocate<_New_alignof<value_type>>(_Ptr, sizeof(value_type) * _Count);

  000bb	6a 0c		 push	 12			; 0000000cH
  000bd	ff b7 80 00 00
	00		 push	 DWORD PTR [edi+128]
  000c3	e8 00 00 00 00	 call	 ??$_Deallocate@$07$0A@@std@@YAXPAXI@Z ; std::_Deallocate<8,0>
  000c8	83 c4 08	 add	 esp, 8
; File D:\Metin2 Server Files\mainline\SRC_2014\Metin2Client\eterPythonLib\PythonSlotWindow.cpp

; 1442 : }

  000cb	8b cf		 mov	 ecx, edi
  000cd	e8 00 00 00 00	 call	 ??1CWindow@UI@@UAE@XZ	; UI::CWindow::~CWindow
  000d2	8b 4d f4	 mov	 ecx, DWORD PTR __$EHRec$[ebp]
  000d5	64 89 0d 00 00
	00 00		 mov	 DWORD PTR fs:0, ecx
  000dc	59		 pop	 ecx
  000dd	5f		 pop	 edi
  000de	5e		 pop	 esi
  000df	8b e5		 mov	 esp, ebp
  000e1	5d		 pop	 ebp
  000e2	c3		 ret	 0
  000e3	cc		 int	 3
  000e4	cc		 int	 3
  000e5	cc		 int	 3
  000e6	cc		 int	 3
  000e7	cc		 int	 3
_TEXT	ENDS
;	COMDAT text$x
text$x	SEGMENT
__ehhandler$??1CSlotWindow@UI@@UAE@XZ:
  00000	90		 npad	 1
  00001	90		 npad	 1
  00002	8b 54 24 08	 mov	 edx, DWORD PTR [esp+8]
  00006	8d 42 0c	 lea	 eax, DWORD PTR [edx+12]
  00009	8b 4a f0	 mov	 ecx, DWORD PTR [edx-16]
  0000c	33 c8		 xor	 ecx, eax
  0000e	e8 00 00 00 00	 call	 @__security_check_cookie@4
  00013	b8 00 00 00 00	 mov	 eax, OFFSET __ehfuncinfo$??1CSlotWindow@UI@@UAE@XZ
  00018	e9 00 00 00 00	 jmp	 ___CxxFrameHandler3
text$x	ENDS
??1CSlotWindow@UI@@UAE@XZ ENDP				; UI::CSlotWindow::~CSlotWindow
; Function compile flags: /Ogtp
; File D:\Metin2 Server Files\mainline\SRC_2014\Metin2Client\eterPythonLib\PythonSlotWindow.cpp
; File C:\Program Files (x86)\Microsoft Visual Studio\2019\Community\VC\Tools\MSVC\14.28.29333\include\xmemory
; File D:\Metin2 Server Files\mainline\SRC_2014\Metin2Client\eterPythonLib\PythonSlotWindow.cpp
; File C:\Program Files (x86)\Microsoft Visual Studio\2019\Community\VC\Tools\MSVC\14.28.29333\include\list
; File C:\Program Files (x86)\Microsoft Visual Studio\2019\Community\VC\Tools\MSVC\14.28.29333\include\xmemory
; File C:\Program Files (x86)\Microsoft Visual Studio\2019\Community\VC\Tools\MSVC\14.28.29333\include\list
; File C:\Program Files (x86)\Microsoft Visual Studio\2019\Community\VC\Tools\MSVC\14.28.29333\include\xmemory
; File D:\Metin2 Server Files\mainline\SRC_2014\Metin2Client\eterPythonLib\PythonSlotWindow.cpp
; File C:\Program Files (x86)\Microsoft Visual Studio\2019\Community\VC\Tools\MSVC\14.28.29333\include\list
; File C:\Program Files (x86)\Microsoft Visual Studio\2019\Community\VC\Tools\MSVC\14.28.29333\include\xmemory
; File C:\Program Files (x86)\Microsoft Visual Studio\2019\Community\VC\Tools\MSVC\14.28.29333\include\list
; File D:\Metin2 Server Files\mainline\SRC_2014\Metin2Client\eterPythonLib\PythonSlotWindow.cpp
; File C:\Program Files (x86)\Microsoft Visual Studio\2019\Community\VC\Tools\MSVC\14.28.29333\include\xmemory
; File C:\Program Files (x86)\Microsoft Visual Studio\2019\Community\VC\Tools\MSVC\14.28.29333\include\deque
; File C:\Program Files (x86)\Microsoft Visual Studio\2019\Community\VC\Tools\MSVC\14.28.29333\include\xmemory
; File D:\Metin2 Server Files\mainline\SRC_2014\Metin2Client\eterPythonLib\PythonSlotWindow.cpp
; File C:\Program Files (x86)\Microsoft Visual Studio\2019\Community\VC\Tools\MSVC\14.28.29333\include\xmemory
; File D:\Metin2 Server Files\mainline\SRC_2014\Metin2Client\eterPythonLib\PythonSlotWindow.cpp
;	COMDAT ??0CSlotWindow@UI@@QAE@PAU_object@@@Z
_TEXT	SEGMENT
_this$ = -16						; size = 4
__$EHRec$ = -12						; size = 12
$T2 = 8							; size = 4
__Newhead$3 = 8						; size = 4
__Newhead$4 = 8						; size = 4
_ppyObject$ = 8						; size = 4
??0CSlotWindow@UI@@QAE@PAU_object@@@Z PROC		; UI::CSlotWindow::CSlotWindow, COMDAT
; _this$ = ecx

; 1435 : {

  00000	55		 push	 ebp
  00001	8b ec		 mov	 ebp, esp
  00003	6a ff		 push	 -1
  00005	68 00 00 00 00	 push	 __ehhandler$??0CSlotWindow@UI@@QAE@PAU_object@@@Z
  0000a	64 a1 00 00 00
	00		 mov	 eax, DWORD PTR fs:0
  00010	50		 push	 eax
  00011	51		 push	 ecx
  00012	53		 push	 ebx
  00013	56		 push	 esi
  00014	57		 push	 edi
  00015	a1 00 00 00 00	 mov	 eax, DWORD PTR ___security_cookie
  0001a	33 c5		 xor	 eax, ebp
  0001c	50		 push	 eax
  0001d	8d 45 f4	 lea	 eax, DWORD PTR __$EHRec$[ebp]
  00020	64 a3 00 00 00
	00		 mov	 DWORD PTR fs:0, eax
  00026	8b d9		 mov	 ebx, ecx
  00028	89 5d f0	 mov	 DWORD PTR _this$[ebp], ebx

; 1434 : CSlotWindow::CSlotWindow(PyObject * ppyObject) : CWindow(ppyObject)

  0002b	ff 75 08	 push	 DWORD PTR _ppyObject$[ebp]
  0002e	e8 00 00 00 00	 call	 ??0CWindow@UI@@QAE@PAU_object@@@Z ; UI::CWindow::CWindow

; 1435 : {

  00033	c7 03 00 00 00
	00		 mov	 DWORD PTR [ebx], OFFSET ??_7CSlotWindow@UI@@6B@
; File C:\Program Files (x86)\Microsoft Visual Studio\2019\Community\VC\Tools\MSVC\14.28.29333\include\xmemory

; 814  :         return static_cast<_Ty*>(_Allocate<_New_alignof<_Ty>>(_Get_size_of_n<sizeof(_Ty)>(_Count)));

  00039	6a 0c		 push	 12			; 0000000cH
; File D:\Metin2 Server Files\mainline\SRC_2014\Metin2Client\eterPythonLib\PythonSlotWindow.cpp

; 1434 : CSlotWindow::CSlotWindow(PyObject * ppyObject) : CWindow(ppyObject)

  0003b	c7 45 fc 00 00
	00 00		 mov	 DWORD PTR __$EHRec$[ebp+8], 0
; File C:\Program Files (x86)\Microsoft Visual Studio\2019\Community\VC\Tools\MSVC\14.28.29333\include\list

; 354  :     _List_val() noexcept : _Myhead(), _Mysize(0) {} // initialize data

  00042	c7 83 80 00 00
	00 00 00 00 00	 mov	 DWORD PTR [ebx+128], 0
  0004c	c7 83 84 00 00
	00 00 00 00 00	 mov	 DWORD PTR [ebx+132], 0
; File C:\Program Files (x86)\Microsoft Visual Studio\2019\Community\VC\Tools\MSVC\14.28.29333\include\xmemory

; 814  :         return static_cast<_Ty*>(_Allocate<_New_alignof<_Ty>>(_Get_size_of_n<sizeof(_Ty)>(_Count)));

  00056	e8 00 00 00 00	 call	 ??$_Allocate@$07U_Default_allocate_traits@std@@$0A@@std@@YAPAXI@Z ; std::_Allocate<8,std::_Default_allocate_traits,0>
; File C:\Program Files (x86)\Microsoft Visual Studio\2019\Community\VC\Tools\MSVC\14.28.29333\include\list

; 1775 :         auto _Newhead = _Al.allocate(1);

  0005b	8b f0		 mov	 esi, eax

; 1776 :         _Construct_in_place(_Newhead->_Next, _Newhead);

  0005d	8d 45 08	 lea	 eax, DWORD PTR __Newhead$4[ebp]
  00060	50		 push	 eax
  00061	56		 push	 esi
  00062	89 75 08	 mov	 DWORD PTR __Newhead$4[ebp], esi
  00065	e8 00 00 00 00	 call	 ??$_Construct_in_place@PAU?$_List_node@KPAX@std@@AAPAU12@@std@@YAXAAPAU?$_List_node@KPAX@0@0@Z ; std::_Construct_in_place<std::_List_node<unsigned long,void *> *,std::_List_node<unsigned long,void *> * &>

; 1777 :         _Construct_in_place(_Newhead->_Prev, _Newhead);

  0006a	8d 45 08	 lea	 eax, DWORD PTR __Newhead$4[ebp]
  0006d	50		 push	 eax
  0006e	8d 4e 04	 lea	 ecx, DWORD PTR [esi+4]
  00071	51		 push	 ecx
  00072	e8 00 00 00 00	 call	 ??$_Construct_in_place@PAU?$_List_node@KPAX@std@@AAPAU12@@std@@YAXAAPAU?$_List_node@KPAX@0@0@Z ; std::_Construct_in_place<std::_List_node<unsigned long,void *> *,std::_List_node<unsigned long,void *> * &>

; 1778 :         _Mypair._Myval2._Myhead = _Newhead;

  00077	89 b3 80 00 00
	00		 mov	 DWORD PTR [ebx+128], esi
; File C:\Program Files (x86)\Microsoft Visual Studio\2019\Community\VC\Tools\MSVC\14.28.29333\include\xmemory

; 814  :         return static_cast<_Ty*>(_Allocate<_New_alignof<_Ty>>(_Get_size_of_n<sizeof(_Ty)>(_Count)));

  0007d	6a 58		 push	 88			; 00000058H
; File D:\Metin2 Server Files\mainline\SRC_2014\Metin2Client\eterPythonLib\PythonSlotWindow.cpp

; 1435 : {

  0007f	c6 45 fc 01	 mov	 BYTE PTR __$EHRec$[ebp+8], 1
; File C:\Program Files (x86)\Microsoft Visual Studio\2019\Community\VC\Tools\MSVC\14.28.29333\include\list

; 354  :     _List_val() noexcept : _Myhead(), _Mysize(0) {} // initialize data

  00083	c7 83 88 00 00
	00 00 00 00 00	 mov	 DWORD PTR [ebx+136], 0
  0008d	c7 83 8c 00 00
	00 00 00 00 00	 mov	 DWORD PTR [ebx+140], 0
; File C:\Program Files (x86)\Microsoft Visual Studio\2019\Community\VC\Tools\MSVC\14.28.29333\include\xmemory

; 814  :         return static_cast<_Ty*>(_Allocate<_New_alignof<_Ty>>(_Get_size_of_n<sizeof(_Ty)>(_Count)));

  00097	e8 00 00 00 00	 call	 ??$_Allocate@$07U_Default_allocate_traits@std@@$0A@@std@@YAPAXI@Z ; std::_Allocate<8,std::_Default_allocate_traits,0>
; File C:\Program Files (x86)\Microsoft Visual Studio\2019\Community\VC\Tools\MSVC\14.28.29333\include\list

; 1775 :         auto _Newhead = _Al.allocate(1);

  0009c	8b f0		 mov	 esi, eax

; 1776 :         _Construct_in_place(_Newhead->_Next, _Newhead);

  0009e	8d 45 08	 lea	 eax, DWORD PTR __Newhead$3[ebp]
  000a1	50		 push	 eax
  000a2	56		 push	 esi
  000a3	89 75 08	 mov	 DWORD PTR __Newhead$3[ebp], esi
  000a6	e8 00 00 00 00	 call	 ??$_Construct_in_place@PAU?$_List_node@USSlot@CSlotWindow@UI@@PAX@std@@AAPAU12@@std@@YAXAAPAU?$_List_node@USSlot@CSlotWindow@UI@@PAX@0@0@Z ; std::_Construct_in_place<std::_List_node<UI::CSlotWindow::SSlot,void *> *,std::_List_node<UI::CSlotWindow::SSlot,void *> * &>

; 1777 :         _Construct_in_place(_Newhead->_Prev, _Newhead);

  000ab	8d 45 08	 lea	 eax, DWORD PTR __Newhead$3[ebp]
  000ae	50		 push	 eax
  000af	8d 4e 04	 lea	 ecx, DWORD PTR [esi+4]
  000b2	51		 push	 ecx
  000b3	e8 00 00 00 00	 call	 ??$_Construct_in_place@PAU?$_List_node@USSlot@CSlotWindow@UI@@PAX@std@@AAPAU12@@std@@YAXAAPAU?$_List_node@USSlot@CSlotWindow@UI@@PAX@0@0@Z ; std::_Construct_in_place<std::_List_node<UI::CSlotWindow::SSlot,void *> *,std::_List_node<UI::CSlotWindow::SSlot,void *> * &>

; 1778 :         _Mypair._Myval2._Myhead = _Newhead;

  000b8	89 b3 88 00 00
	00		 mov	 DWORD PTR [ebx+136], esi
; File D:\Metin2 Server Files\mainline\SRC_2014\Metin2Client\eterPythonLib\PythonSlotWindow.cpp

; 1435 : {

  000be	8d bb a8 00 00
	00		 lea	 edi, DWORD PTR [ebx+168]
  000c4	c6 45 fc 02	 mov	 BYTE PTR __$EHRec$[ebp+8], 2
; File C:\Program Files (x86)\Microsoft Visual Studio\2019\Community\VC\Tools\MSVC\14.28.29333\include\xmemory

; 814  :         return static_cast<_Ty*>(_Allocate<_New_alignof<_Ty>>(_Get_size_of_n<sizeof(_Ty)>(_Count)));

  000c8	6a 08		 push	 8

; 1097 :     _Container_base12() noexcept : _Myproxy(nullptr) {}

  000ca	c7 07 00 00 00
	00		 mov	 DWORD PTR [edi], 0
; File C:\Program Files (x86)\Microsoft Visual Studio\2019\Community\VC\Tools\MSVC\14.28.29333\include\deque

; 544  :     _Deque_val() noexcept : _Map(), _Mapsize(0), _Myoff(0), _Mysize(0) {}

  000d0	c7 47 04 00 00
	00 00		 mov	 DWORD PTR [edi+4], 0
  000d7	c7 47 08 00 00
	00 00		 mov	 DWORD PTR [edi+8], 0
  000de	c7 47 0c 00 00
	00 00		 mov	 DWORD PTR [edi+12], 0
  000e5	c7 47 10 00 00
	00 00		 mov	 DWORD PTR [edi+16], 0
; File C:\Program Files (x86)\Microsoft Visual Studio\2019\Community\VC\Tools\MSVC\14.28.29333\include\xmemory

; 814  :         return static_cast<_Ty*>(_Allocate<_New_alignof<_Ty>>(_Get_size_of_n<sizeof(_Ty)>(_Count)));

  000ec	e8 00 00 00 00	 call	 ??$_Allocate@$07U_Default_allocate_traits@std@@$0A@@std@@YAPAXI@Z ; std::_Allocate<8,std::_Default_allocate_traits,0>

; 1107 :         _Container_proxy* const _New_proxy = _Unfancy(_Al.allocate(1));

  000f1	8b f0		 mov	 esi, eax

; 1108 :         _Construct_in_place(*_New_proxy, this);

  000f3	89 7d 08	 mov	 DWORD PTR $T2[ebp], edi
  000f6	8d 45 08	 lea	 eax, DWORD PTR $T2[ebp]
  000f9	50		 push	 eax
  000fa	56		 push	 esi
  000fb	e8 00 00 00 00	 call	 ??$_Construct_in_place@U_Container_proxy@std@@PAU_Container_base12@2@@std@@YAXAAU_Container_proxy@0@$$QAPAU_Container_base12@0@@Z ; std::_Construct_in_place<std::_Container_proxy,std::_Container_base12 *>
  00100	83 c4 34	 add	 esp, 52			; 00000034H

; 1109 :         _Myproxy            = _New_proxy;

  00103	89 37		 mov	 DWORD PTR [edi], esi
; File D:\Metin2 Server Files\mainline\SRC_2014\Metin2Client\eterPythonLib\PythonSlotWindow.cpp

; 1436 : 	__Initialize();

  00105	8b cb		 mov	 ecx, ebx
; File C:\Program Files (x86)\Microsoft Visual Studio\2019\Community\VC\Tools\MSVC\14.28.29333\include\xmemory

; 1110 :         _New_proxy->_Mycont = this;

  00107	89 3e		 mov	 DWORD PTR [esi], edi
; File D:\Metin2 Server Files\mainline\SRC_2014\Metin2Client\eterPythonLib\PythonSlotWindow.cpp

; 1436 : 	__Initialize();

  00109	e8 00 00 00 00	 call	 ?__Initialize@CSlotWindow@UI@@IAEXXZ ; UI::CSlotWindow::__Initialize

; 1437 : }

  0010e	8b c3		 mov	 eax, ebx
  00110	8b 4d f4	 mov	 ecx, DWORD PTR __$EHRec$[ebp]
  00113	64 89 0d 00 00
	00 00		 mov	 DWORD PTR fs:0, ecx
  0011a	59		 pop	 ecx
  0011b	5f		 pop	 edi
  0011c	5e		 pop	 esi
  0011d	5b		 pop	 ebx
  0011e	8b e5		 mov	 esp, ebp
  00120	5d		 pop	 ebp
  00121	c2 04 00	 ret	 4
_TEXT	ENDS
;	COMDAT text$x
text$x	SEGMENT
__unwindfunclet$??0CSlotWindow@UI@@QAE@PAU_object@@@Z$0:
  00000	8b 4d f0	 mov	 ecx, DWORD PTR _this$[ebp]
  00003	e9 00 00 00 00	 jmp	 ??1CWindow@UI@@UAE@XZ	; UI::CWindow::~CWindow
__unwindfunclet$??0CSlotWindow@UI@@QAE@PAU_object@@@Z$1:
  00008	8b 4d f0	 mov	 ecx, DWORD PTR _this$[ebp]
  0000b	81 c1 80 00 00
	00		 add	 ecx, 128		; 00000080H
  00011	e9 00 00 00 00	 jmp	 ??1?$list@KV?$allocator@K@std@@@std@@QAE@XZ ; std::list<unsigned long,std::allocator<unsigned long> >::~list<unsigned long,std::allocator<unsigned long> >
__unwindfunclet$??0CSlotWindow@UI@@QAE@PAU_object@@@Z$2:
  00016	8b 4d f0	 mov	 ecx, DWORD PTR _this$[ebp]
  00019	81 c1 88 00 00
	00		 add	 ecx, 136		; 00000088H
  0001f	e9 00 00 00 00	 jmp	 ??1?$list@USSlot@CSlotWindow@UI@@V?$allocator@USSlot@CSlotWindow@UI@@@std@@@std@@QAE@XZ ; std::list<UI::CSlotWindow::SSlot,std::allocator<UI::CSlotWindow::SSlot> >::~list<UI::CSlotWindow::SSlot,std::allocator<UI::CSlotWindow::SSlot> >
  00024	cc		 int	 3
  00025	cc		 int	 3
  00026	cc		 int	 3
  00027	cc		 int	 3
  00028	cc		 int	 3
__ehhandler$??0CSlotWindow@UI@@QAE@PAU_object@@@Z:
  00029	90		 npad	 1
  0002a	90		 npad	 1
  0002b	8b 54 24 08	 mov	 edx, DWORD PTR [esp+8]
  0002f	8d 42 0c	 lea	 eax, DWORD PTR [edx+12]
  00032	8b 4a ec	 mov	 ecx, DWORD PTR [edx-20]
  00035	33 c8		 xor	 ecx, eax
  00037	e8 00 00 00 00	 call	 @__security_check_cookie@4
  0003c	b8 00 00 00 00	 mov	 eax, OFFSET __ehfuncinfo$??0CSlotWindow@UI@@QAE@PAU_object@@@Z
  00041	e9 00 00 00 00	 jmp	 ___CxxFrameHandler3
text$x	ENDS
??0CSlotWindow@UI@@QAE@PAU_object@@@Z ENDP		; UI::CSlotWindow::CSlotWindow
; Function compile flags: /Ogtp
; File C:\Program Files (x86)\Microsoft Visual Studio\2019\Community\VC\Tools\MSVC\14.28.29333\include\list
; File C:\Program Files (x86)\Microsoft Visual Studio\2019\Community\VC\Tools\MSVC\14.28.29333\include\xmemory
; File C:\Program Files (x86)\Microsoft Visual Studio\2019\Community\VC\Tools\MSVC\14.28.29333\include\list
; File C:\Program Files (x86)\Microsoft Visual Studio\2019\Community\VC\Tools\MSVC\14.28.29333\include\xmemory
; File C:\Program Files (x86)\Microsoft Visual Studio\2019\Community\VC\Tools\MSVC\14.28.29333\include\list
;	COMDAT ??1?$list@USSlot@CSlotWindow@UI@@V?$allocator@USSlot@CSlotWindow@UI@@@std@@@std@@QAE@XZ
_TEXT	SEGMENT
??1?$list@USSlot@CSlotWindow@UI@@V?$allocator@USSlot@CSlotWindow@UI@@@std@@@std@@QAE@XZ PROC ; std::list<UI::CSlotWindow::SSlot,std::allocator<UI::CSlotWindow::SSlot> >::~list<UI::CSlotWindow::SSlot,std::allocator<UI::CSlotWindow::SSlot> >, COMDAT
; _this$ = ecx

; 1045 :     ~list() noexcept {

  00000	57		 push	 edi
  00001	8b f9		 mov	 edi, ecx

; 1440 :         _Node::_Free_non_head(_Al, _My_data._Myhead);

  00003	8b 17		 mov	 edx, DWORD PTR [edi]

; 324  :         _Head->_Prev->_Next = nullptr;

  00005	8b 42 04	 mov	 eax, DWORD PTR [edx+4]
  00008	c7 00 00 00 00
	00		 mov	 DWORD PTR [eax], 0

; 325  : 
; 326  :         auto _Pnode = _Head->_Next;

  0000e	8b 02		 mov	 eax, DWORD PTR [edx]

; 327  :         for (_Nodeptr _Pnext; _Pnode; _Pnode = _Pnext) {

  00010	85 c0		 test	 eax, eax
  00012	74 15		 je	 SHORT $LN7@list
  00014	56		 push	 esi
$LL8@list:

; 328  :             _Pnext = _Pnode->_Next;

  00015	8b 30		 mov	 esi, DWORD PTR [eax]
; File C:\Program Files (x86)\Microsoft Visual Studio\2019\Community\VC\Tools\MSVC\14.28.29333\include\xmemory

; 696  :         _Deallocate<_New_alignof<value_type>>(_Ptr, sizeof(value_type) * _Count);

  00017	6a 58		 push	 88			; 00000058H
  00019	50		 push	 eax
  0001a	e8 00 00 00 00	 call	 ??$_Deallocate@$07$0A@@std@@YAXPAXI@Z ; std::_Deallocate<8,0>
  0001f	83 c4 08	 add	 esp, 8
; File C:\Program Files (x86)\Microsoft Visual Studio\2019\Community\VC\Tools\MSVC\14.28.29333\include\list

; 327  :         for (_Nodeptr _Pnext; _Pnode; _Pnode = _Pnext) {

  00022	8b c6		 mov	 eax, esi
  00024	85 f6		 test	 esi, esi
  00026	75 ed		 jne	 SHORT $LL8@list
  00028	5e		 pop	 esi
$LN7@list:
; File C:\Program Files (x86)\Microsoft Visual Studio\2019\Community\VC\Tools\MSVC\14.28.29333\include\xmemory

; 696  :         _Deallocate<_New_alignof<value_type>>(_Ptr, sizeof(value_type) * _Count);

  00029	6a 58		 push	 88			; 00000058H
  0002b	ff 37		 push	 DWORD PTR [edi]
  0002d	e8 00 00 00 00	 call	 ??$_Deallocate@$07$0A@@std@@YAXPAXI@Z ; std::_Deallocate<8,0>
  00032	83 c4 08	 add	 esp, 8
  00035	5f		 pop	 edi
; File C:\Program Files (x86)\Microsoft Visual Studio\2019\Community\VC\Tools\MSVC\14.28.29333\include\list

; 1051 :     }

  00036	c3		 ret	 0
??1?$list@USSlot@CSlotWindow@UI@@V?$allocator@USSlot@CSlotWindow@UI@@@std@@@std@@QAE@XZ ENDP ; std::list<UI::CSlotWindow::SSlot,std::allocator<UI::CSlotWindow::SSlot> >::~list<UI::CSlotWindow::SSlot,std::allocator<UI::CSlotWindow::SSlot> >
_TEXT	ENDS
; Function compile flags: /Ogtp
; File D:\Metin2 Server Files\mainline\SRC_2014\Metin2Client\eterPythonLib\PythonSlotWindow.cpp
;	COMDAT ?Type@CSlotWindow@UI@@SAKXZ
_TEXT	SEGMENT
__$EHRec$ = -12						; size = 12
?Type@CSlotWindow@UI@@SAKXZ PROC			; UI::CSlotWindow::Type, COMDAT

; 1266 : {

  00000	55		 push	 ebp
  00001	8b ec		 mov	 ebp, esp
  00003	6a ff		 push	 -1
  00005	68 00 00 00 00	 push	 __ehhandler$?Type@CSlotWindow@UI@@SAKXZ
  0000a	64 a1 00 00 00
	00		 mov	 eax, DWORD PTR fs:0
  00010	50		 push	 eax
  00011	a1 00 00 00 00	 mov	 eax, DWORD PTR ___security_cookie
  00016	33 c5		 xor	 eax, ebp
  00018	50		 push	 eax
  00019	8d 45 f4	 lea	 eax, DWORD PTR __$EHRec$[ebp]
  0001c	64 a3 00 00 00
	00		 mov	 DWORD PTR fs:0, eax

; 1267 : 	static int s_Type = GetCRC32("CSlotWindow", strlen("CSlotWindow"));

  00022	64 a1 00 00 00
	00		 mov	 eax, DWORD PTR fs:__tls_array
  00028	8b 0d 00 00 00
	00		 mov	 ecx, DWORD PTR __tls_index
  0002e	8b 0c 88	 mov	 ecx, DWORD PTR [eax+ecx*4]
  00031	a1 00 00 00 00	 mov	 eax, DWORD PTR ?$TSS0@?1??Type@CSlotWindow@UI@@SAKXZ@4HA
  00036	3b 81 00 00 00
	00		 cmp	 eax, DWORD PTR __Init_thread_epoch[ecx]
  0003c	7f 14		 jg	 SHORT $LN9@Type
$LN5@Type:

; 1268 : 	return s_Type;
; 1269 : }

  0003e	a1 00 00 00 00	 mov	 eax, DWORD PTR ?s_Type@?1??Type@CSlotWindow@UI@@SAKXZ@4HA
  00043	8b 4d f4	 mov	 ecx, DWORD PTR __$EHRec$[ebp]
  00046	64 89 0d 00 00
	00 00		 mov	 DWORD PTR fs:0, ecx
  0004d	59		 pop	 ecx
  0004e	8b e5		 mov	 esp, ebp
  00050	5d		 pop	 ebp
  00051	c3		 ret	 0
$LN9@Type:

; 1267 : 	static int s_Type = GetCRC32("CSlotWindow", strlen("CSlotWindow"));

  00052	68 00 00 00 00	 push	 OFFSET ?$TSS0@?1??Type@CSlotWindow@UI@@SAKXZ@4HA
  00057	e8 00 00 00 00	 call	 __Init_thread_header
  0005c	83 c4 04	 add	 esp, 4
  0005f	83 3d 00 00 00
	00 ff		 cmp	 DWORD PTR ?$TSS0@?1??Type@CSlotWindow@UI@@SAKXZ@4HA, -1
  00066	75 d6		 jne	 SHORT $LN5@Type
  00068	6a 0b		 push	 11			; 0000000bH
  0006a	68 00 00 00 00	 push	 OFFSET ??_C@_0M@DKKKJBKL@CSlotWindow@
  0006f	c7 45 fc 00 00
	00 00		 mov	 DWORD PTR __$EHRec$[ebp+8], 0
  00076	e8 00 00 00 00	 call	 ?GetCRC32@@YAKPBDI@Z	; GetCRC32
  0007b	68 00 00 00 00	 push	 OFFSET ?$TSS0@?1??Type@CSlotWindow@UI@@SAKXZ@4HA
  00080	a3 00 00 00 00	 mov	 DWORD PTR ?s_Type@?1??Type@CSlotWindow@UI@@SAKXZ@4HA, eax
  00085	e8 00 00 00 00	 call	 __Init_thread_footer
  0008a	83 c4 0c	 add	 esp, 12			; 0000000cH
  0008d	eb af		 jmp	 SHORT $LN5@Type
_TEXT	ENDS
;	COMDAT text$x
text$x	SEGMENT
__unwindfunclet$?Type@CSlotWindow@UI@@SAKXZ$0:
  00000	68 00 00 00 00	 push	 OFFSET ?$TSS0@?1??Type@CSlotWindow@UI@@SAKXZ@4HA
  00005	e8 00 00 00 00	 call	 __Init_thread_abort
  0000a	59		 pop	 ecx
  0000b	c3		 ret	 0
  0000c	cc		 int	 3
  0000d	cc		 int	 3
  0000e	cc		 int	 3
  0000f	cc		 int	 3
  00010	cc		 int	 3
__ehhandler$?Type@CSlotWindow@UI@@SAKXZ:
  00011	90		 npad	 1
  00012	90		 npad	 1
  00013	8b 54 24 08	 mov	 edx, DWORD PTR [esp+8]
  00017	8d 42 0c	 lea	 eax, DWORD PTR [edx+12]
  0001a	8b 4a fc	 mov	 ecx, DWORD PTR [edx-4]
  0001d	33 c8		 xor	 ecx, eax
  0001f	e8 00 00 00 00	 call	 @__security_check_cookie@4
  00024	b8 00 00 00 00	 mov	 eax, OFFSET __ehfuncinfo$?Type@CSlotWindow@UI@@SAKXZ
  00029	e9 00 00 00 00	 jmp	 ___CxxFrameHandler3
text$x	ENDS
?Type@CSlotWindow@UI@@SAKXZ ENDP			; UI::CSlotWindow::Type
; Function compile flags: /Ogtp
; File D:\Metin2 Server Files\mainline\SRC_2014\Metin2Client\eterPythonLib\PythonWindow.h
;	COMDAT ?IsWindow@CWindow@UI@@UAEHXZ
_TEXT	SEGMENT
?IsWindow@CWindow@UI@@UAEHXZ PROC			; UI::CWindow::IsWindow, COMDAT
; _this$ = ecx

; 161  : 			virtual BOOL	IsWindow() { return TRUE; }

  00000	b8 01 00 00 00	 mov	 eax, 1
  00005	c3		 ret	 0
?IsWindow@CWindow@UI@@UAEHXZ ENDP			; UI::CWindow::IsWindow
_TEXT	ENDS
; Function compile flags: /Ogtp
; File D:\Metin2 Server Files\mainline\SRC_2014\Metin2Client\eterPythonLib\PythonWindow.h
;	COMDAT ?SetColor@CWindow@UI@@UAEXK@Z
_TEXT	SEGMENT
_dwColor$ = 8						; size = 4
?SetColor@CWindow@UI@@UAEXK@Z PROC			; UI::CWindow::SetColor, COMDAT
; _this$ = ecx

; 157  : 			virtual void	SetColor(DWORD dwColor){}

  00000	c2 04 00	 ret	 4
?SetColor@CWindow@UI@@UAEXK@Z ENDP			; UI::CWindow::SetColor
_TEXT	ENDS
; Function compile flags: /Ogtp
; File D:\Metin2 Server Files\mainline\SRC_2014\Metin2Client\eterPythonLib\PythonWindow.h
;	COMDAT ?OnChangePosition@CWindow@UI@@UAEXXZ
_TEXT	SEGMENT
?OnChangePosition@CWindow@UI@@UAEXXZ PROC		; UI::CWindow::OnChangePosition, COMDAT
; _this$ = ecx

; 106  : 			virtual void	OnChangePosition(){}

  00000	c2 00 00	 ret	 0
?OnChangePosition@CWindow@UI@@UAEXXZ ENDP		; UI::CWindow::OnChangePosition
_TEXT	ENDS
; Function compile flags: /Ogtp
; File C:\Program Files (x86)\Microsoft Visual Studio\2019\Community\VC\Tools\MSVC\14.28.29333\include\xmemory
;	COMDAT ??$_Allocate_manually_vector_aligned@U_Default_allocate_traits@std@@@std@@YAPAXI@Z
_TEXT	SEGMENT
__Bytes$ = 8						; size = 4
??$_Allocate_manually_vector_aligned@U_Default_allocate_traits@std@@@std@@YAPAXI@Z PROC ; std::_Allocate_manually_vector_aligned<std::_Default_allocate_traits>, COMDAT

; 113  : __declspec(allocator) void* _Allocate_manually_vector_aligned(const size_t _Bytes) {

  00000	55		 push	 ebp
  00001	8b ec		 mov	 ebp, esp

; 114  :     // allocate _Bytes manually aligned to at least _Big_allocation_alignment
; 115  :     const size_t _Block_size = _Non_user_size + _Bytes;

  00003	8b 45 08	 mov	 eax, DWORD PTR __Bytes$[ebp]
  00006	8d 48 23	 lea	 ecx, DWORD PTR [eax+35]

; 116  :     if (_Block_size <= _Bytes) {

  00009	3b c8		 cmp	 ecx, eax
  0000b	0f 86 00 00 00
	00		 jbe	 ?_Throw_bad_array_new_length@std@@YAXXZ ; std::_Throw_bad_array_new_length

; 77   :         return ::operator new(_Bytes);

  00011	51		 push	 ecx
  00012	e8 00 00 00 00	 call	 ??2@YAPAXI@Z		; operator new

; 117  :         _Throw_bad_array_new_length(); // add overflow
; 118  :     }
; 119  : 
; 120  :     const uintptr_t _Ptr_container = reinterpret_cast<uintptr_t>(_Traits::_Allocate(_Block_size));

  00017	8b c8		 mov	 ecx, eax

; 77   :         return ::operator new(_Bytes);

  00019	83 c4 04	 add	 esp, 4

; 121  :     _STL_VERIFY(_Ptr_container != 0, "invalid argument"); // validate even in release since we're doing p[-1]

  0001c	85 c9		 test	 ecx, ecx
  0001e	74 0b		 je	 SHORT $LN7@Allocate_m

; 122  :     void* const _Ptr = reinterpret_cast<void*>((_Ptr_container + _Non_user_size) & ~(_Big_allocation_alignment - 1));

  00020	8d 41 23	 lea	 eax, DWORD PTR [ecx+35]
  00023	83 e0 e0	 and	 eax, -32		; ffffffe0H

; 123  :     static_cast<uintptr_t*>(_Ptr)[-1] = _Ptr_container;

  00026	89 48 fc	 mov	 DWORD PTR [eax-4], ecx

; 124  : 
; 125  : #ifdef _DEBUG
; 126  :     static_cast<uintptr_t*>(_Ptr)[-2] = _Big_allocation_sentinel;
; 127  : #endif // _DEBUG
; 128  :     return _Ptr;
; 129  : }

  00029	5d		 pop	 ebp
  0002a	c3		 ret	 0
$LN7@Allocate_m:

; 121  :     _STL_VERIFY(_Ptr_container != 0, "invalid argument"); // validate even in release since we're doing p[-1]

  0002b	e9 00 00 00 00	 jmp	 __invalid_parameter_noinfo_noreturn
??$_Allocate_manually_vector_aligned@U_Default_allocate_traits@std@@@std@@YAPAXI@Z ENDP ; std::_Allocate_manually_vector_aligned<std::_Default_allocate_traits>
_TEXT	ENDS
; Function compile flags: /Ogtp
; File C:\Program Files (x86)\Microsoft Visual Studio\2019\Community\VC\Tools\MSVC\14.28.29333\include\xmemory
;	COMDAT ??$_Allocate@$07U_Default_allocate_traits@std@@$0A@@std@@YAPAXI@Z
_TEXT	SEGMENT
__Bytes$ = 8						; size = 4
??$_Allocate@$07U_Default_allocate_traits@std@@$0A@@std@@YAPAXI@Z PROC ; std::_Allocate<8,std::_Default_allocate_traits,0>, COMDAT

; 197  : __declspec(allocator) void* _Allocate(const size_t _Bytes) {

  00000	55		 push	 ebp
  00001	8b ec		 mov	 ebp, esp

; 198  :     // allocate _Bytes when !_HAS_ALIGNED_NEW || _Align <= __STDCPP_DEFAULT_NEW_ALIGNMENT__
; 199  : #if defined(_M_IX86) || defined(_M_X64)
; 200  :     if (_Bytes >= _Big_allocation_threshold) { // boost the alignment of big allocations to help autovectorization

  00003	8b 45 08	 mov	 eax, DWORD PTR __Bytes$[ebp]
  00006	3d 00 10 00 00	 cmp	 eax, 4096		; 00001000H
  0000b	72 09		 jb	 SHORT $LN2@Allocate

; 201  :         return _Allocate_manually_vector_aligned<_Traits>(_Bytes);

  0000d	89 45 08	 mov	 DWORD PTR __Bytes$[ebp], eax

; 210  : }

  00010	5d		 pop	 ebp

; 201  :         return _Allocate_manually_vector_aligned<_Traits>(_Bytes);

  00011	e9 00 00 00 00	 jmp	 ??$_Allocate_manually_vector_aligned@U_Default_allocate_traits@std@@@std@@YAPAXI@Z ; std::_Allocate_manually_vector_aligned<std::_Default_allocate_traits>
$LN2@Allocate:

; 202  :     }
; 203  : #endif // defined(_M_IX86) || defined(_M_X64)
; 204  : 
; 205  :     if (_Bytes != 0) {

  00016	85 c0		 test	 eax, eax
  00018	74 09		 je	 SHORT $LN3@Allocate

; 77   :         return ::operator new(_Bytes);

  0001a	89 45 08	 mov	 DWORD PTR __Bytes$[ebp], eax

; 210  : }

  0001d	5d		 pop	 ebp

; 77   :         return ::operator new(_Bytes);

  0001e	e9 00 00 00 00	 jmp	 ??2@YAPAXI@Z		; operator new
$LN3@Allocate:

; 206  :         return _Traits::_Allocate(_Bytes);
; 207  :     }
; 208  : 
; 209  :     return nullptr;

  00023	33 c0		 xor	 eax, eax

; 210  : }

  00025	5d		 pop	 ebp
  00026	c3		 ret	 0
??$_Allocate@$07U_Default_allocate_traits@std@@$0A@@std@@YAPAXI@Z ENDP ; std::_Allocate<8,std::_Default_allocate_traits,0>
_TEXT	ENDS
; Function compile flags: /Ogtp
; File C:\Program Files (x86)\Microsoft Visual Studio\2019\Community\VC\Tools\MSVC\14.28.29333\include\xmemory
;	COMDAT ??$_Deallocate@$07$0A@@std@@YAXPAXI@Z
_TEXT	SEGMENT
__Ptr$ = 8						; size = 4
__Bytes$ = 12						; size = 4
??$_Deallocate@$07$0A@@std@@YAXPAXI@Z PROC		; std::_Deallocate<8,0>, COMDAT

; 213  : void _Deallocate(void* _Ptr, size_t _Bytes) noexcept {

  00000	55		 push	 ebp
  00001	8b ec		 mov	 ebp, esp

; 214  :     // deallocate storage allocated by _Allocate when !_HAS_ALIGNED_NEW || _Align <= __STDCPP_DEFAULT_NEW_ALIGNMENT__
; 215  : #if defined(_M_IX86) || defined(_M_X64)
; 216  :     if (_Bytes >= _Big_allocation_threshold) { // boost the alignment of big allocations to help autovectorization

  00003	8b 4d 0c	 mov	 ecx, DWORD PTR __Bytes$[ebp]
  00006	81 f9 00 10 00
	00		 cmp	 ecx, 4096		; 00001000H
  0000c	72 18		 jb	 SHORT $LN15@Deallocate

; 137  :     const uintptr_t _Ptr_container   = _Ptr_user[-1];

  0000e	8b 45 08	 mov	 eax, DWORD PTR __Ptr$[ebp]
  00011	83 c1 23	 add	 ecx, 35			; 00000023H
  00014	8b 50 fc	 mov	 edx, DWORD PTR [eax-4]

; 138  : 
; 139  :     // If the following asserts, it likely means that we are performing
; 140  :     // an aligned delete on memory coming from an unaligned allocation.
; 141  :     _STL_ASSERT(_Ptr_user[-2] == _Big_allocation_sentinel, "invalid argument");
; 142  : 
; 143  :     // Extra paranoia on aligned allocation/deallocation; ensure _Ptr_container is
; 144  :     // in range [_Min_back_shift, _Non_user_size]
; 145  : #ifdef _DEBUG
; 146  :     constexpr uintptr_t _Min_back_shift = 2 * sizeof(void*);
; 147  : #else // ^^^ _DEBUG ^^^ // vvv !_DEBUG vvv
; 148  :     constexpr uintptr_t _Min_back_shift = sizeof(void*);
; 149  : #endif // _DEBUG
; 150  :     const uintptr_t _Back_shift = reinterpret_cast<uintptr_t>(_Ptr) - _Ptr_container;

  00017	2b c2		 sub	 eax, edx

; 151  :     _STL_VERIFY(_Back_shift >= _Min_back_shift && _Back_shift <= _Non_user_size, "invalid argument");

  00019	83 c0 fc	 add	 eax, -4			; fffffffcH
  0001c	83 f8 1f	 cmp	 eax, 31			; 0000001fH
  0001f	76 08		 jbe	 SHORT $LN13@Deallocate
  00021	e9 00 00 00 00	 jmp	 __invalid_parameter_noinfo_noreturn
$LN15@Deallocate:

; 214  :     // deallocate storage allocated by _Allocate when !_HAS_ALIGNED_NEW || _Align <= __STDCPP_DEFAULT_NEW_ALIGNMENT__
; 215  : #if defined(_M_IX86) || defined(_M_X64)
; 216  :     if (_Bytes >= _Big_allocation_threshold) { // boost the alignment of big allocations to help autovectorization

  00026	8b 55 08	 mov	 edx, DWORD PTR __Ptr$[ebp]
$LN13@Deallocate:

; 217  :         _Adjust_manually_vector_aligned(_Ptr, _Bytes);
; 218  :     }
; 219  : #endif // defined(_M_IX86) || defined(_M_X64)
; 220  : 
; 221  :     ::operator delete(_Ptr, _Bytes);

  00029	89 4d 0c	 mov	 DWORD PTR __Bytes$[ebp], ecx
  0002c	89 55 08	 mov	 DWORD PTR __Ptr$[ebp], edx

; 222  : }

  0002f	5d		 pop	 ebp

; 217  :         _Adjust_manually_vector_aligned(_Ptr, _Bytes);
; 218  :     }
; 219  : #endif // defined(_M_IX86) || defined(_M_X64)
; 220  : 
; 221  :     ::operator delete(_Ptr, _Bytes);

  00030	e9 00 00 00 00	 jmp	 ??3@YAXPAXI@Z		; operator delete
??$_Deallocate@$07$0A@@std@@YAXPAXI@Z ENDP		; std::_Deallocate<8,0>
_TEXT	ENDS
; Function compile flags: /Ogtp
; File C:\Program Files (x86)\Microsoft Visual Studio\2019\Community\VC\Tools\MSVC\14.28.29333\include\exception
;	COMDAT ?_Throw_bad_array_new_length@std@@YAXXZ
_TEXT	SEGMENT
$T1 = -12						; size = 12
?_Throw_bad_array_new_length@std@@YAXXZ PROC		; std::_Throw_bad_array_new_length, COMDAT

; 320  : [[noreturn]] inline void _Throw_bad_array_new_length() {

  00000	55		 push	 ebp
  00001	8b ec		 mov	 ebp, esp
  00003	83 ec 0c	 sub	 esp, 12			; 0000000cH

; 321  :     _THROW(bad_array_new_length{});

  00006	8d 4d f4	 lea	 ecx, DWORD PTR $T1[ebp]
  00009	e8 00 00 00 00	 call	 ??0bad_array_new_length@std@@QAE@XZ ; std::bad_array_new_length::bad_array_new_length
  0000e	68 00 00 00 00	 push	 OFFSET __TI3?AVbad_array_new_length@std@@
  00013	8d 45 f4	 lea	 eax, DWORD PTR $T1[ebp]
  00016	50		 push	 eax
  00017	e8 00 00 00 00	 call	 __CxxThrowException@8
$LN3@Throw_bad_:
  0001c	cc		 int	 3
?_Throw_bad_array_new_length@std@@YAXXZ ENDP		; std::_Throw_bad_array_new_length
_TEXT	ENDS
; Function compile flags: /Ogtp
; File C:\Program Files (x86)\Microsoft Visual Studio\2019\Community\VC\Tools\MSVC\14.28.29333\include\vcruntime_exception.h
;	COMDAT ??_Gbad_array_new_length@std@@UAEPAXI@Z
_TEXT	SEGMENT
___flags$ = 8						; size = 4
??_Gbad_array_new_length@std@@UAEPAXI@Z PROC		; std::bad_array_new_length::`scalar deleting destructor', COMDAT
; _this$ = ecx
  00000	55		 push	 ebp
  00001	8b ec		 mov	 ebp, esp

; 89   :     {

  00003	56		 push	 esi
  00004	8b f1		 mov	 esi, ecx

; 90   :         __std_exception_destroy(&_Data);

  00006	8d 46 04	 lea	 eax, DWORD PTR [esi+4]
  00009	c7 06 00 00 00
	00		 mov	 DWORD PTR [esi], OFFSET ??_7exception@std@@6B@
  0000f	50		 push	 eax
  00010	e8 00 00 00 00	 call	 ___std_exception_destroy
  00015	83 c4 04	 add	 esp, 4
  00018	f6 45 08 01	 test	 BYTE PTR ___flags$[ebp], 1
  0001c	74 0b		 je	 SHORT $LN12@scalar
  0001e	6a 0c		 push	 12			; 0000000cH
  00020	56		 push	 esi
  00021	e8 00 00 00 00	 call	 ??3@YAXPAXI@Z		; operator delete
  00026	83 c4 08	 add	 esp, 8
$LN12@scalar:
  00029	8b c6		 mov	 eax, esi
  0002b	5e		 pop	 esi
  0002c	5d		 pop	 ebp
  0002d	c2 04 00	 ret	 4
??_Gbad_array_new_length@std@@UAEPAXI@Z ENDP		; std::bad_array_new_length::`scalar deleting destructor'
_TEXT	ENDS
; Function compile flags: /Ogtp
; File C:\Program Files (x86)\Microsoft Visual Studio\2019\Community\VC\Tools\MSVC\14.28.29333\include\vcruntime_exception.h
;	COMDAT ??0bad_array_new_length@std@@QAE@ABV01@@Z
_TEXT	SEGMENT
___that$ = 8						; size = 4
??0bad_array_new_length@std@@QAE@ABV01@@Z PROC		; std::bad_array_new_length::bad_array_new_length, COMDAT
; _this$ = ecx
  00000	55		 push	 ebp
  00001	8b ec		 mov	 ebp, esp

; 72   :     {

  00003	56		 push	 esi
  00004	8b f1		 mov	 esi, ecx
  00006	0f 57 c0	 xorps	 xmm0, xmm0

; 71   :         : _Data()

  00009	8d 46 04	 lea	 eax, DWORD PTR [esi+4]

; 73   :         __std_exception_copy(&_Other._Data, &_Data);

  0000c	50		 push	 eax
  0000d	c7 06 00 00 00
	00		 mov	 DWORD PTR [esi], OFFSET ??_7exception@std@@6B@
  00013	66 0f d6 00	 movq	 QWORD PTR [eax], xmm0
  00017	8b 45 08	 mov	 eax, DWORD PTR ___that$[ebp]
  0001a	83 c0 04	 add	 eax, 4
  0001d	50		 push	 eax
  0001e	e8 00 00 00 00	 call	 ___std_exception_copy
  00023	83 c4 08	 add	 esp, 8
  00026	c7 06 00 00 00
	00		 mov	 DWORD PTR [esi], OFFSET ??_7bad_array_new_length@std@@6B@
  0002c	8b c6		 mov	 eax, esi
  0002e	5e		 pop	 esi
  0002f	5d		 pop	 ebp
  00030	c2 04 00	 ret	 4
??0bad_array_new_length@std@@QAE@ABV01@@Z ENDP		; std::bad_array_new_length::bad_array_new_length
_TEXT	ENDS
; Function compile flags: /Ogtp
; File C:\Program Files (x86)\Microsoft Visual Studio\2019\Community\VC\Tools\MSVC\14.28.29333\include\vcruntime_exception.h
;	COMDAT ??1bad_array_new_length@std@@UAE@XZ
_TEXT	SEGMENT
??1bad_array_new_length@std@@UAE@XZ PROC		; std::bad_array_new_length::~bad_array_new_length, COMDAT
; _this$ = ecx

; 90   :         __std_exception_destroy(&_Data);

  00000	8d 41 04	 lea	 eax, DWORD PTR [ecx+4]
  00003	c7 01 00 00 00
	00		 mov	 DWORD PTR [ecx], OFFSET ??_7exception@std@@6B@
  00009	50		 push	 eax
  0000a	e8 00 00 00 00	 call	 ___std_exception_destroy
  0000f	59		 pop	 ecx
  00010	c3		 ret	 0
??1bad_array_new_length@std@@UAE@XZ ENDP		; std::bad_array_new_length::~bad_array_new_length
_TEXT	ENDS
; Function compile flags: /Ogtp
; File C:\Program Files (x86)\Microsoft Visual Studio\2019\Community\VC\Tools\MSVC\14.28.29333\include\vcruntime_exception.h
;	COMDAT ??0bad_array_new_length@std@@QAE@XZ
_TEXT	SEGMENT
??0bad_array_new_length@std@@QAE@XZ PROC		; std::bad_array_new_length::bad_array_new_length, COMDAT
; _this$ = ecx

; 141  :     {

  00000	0f 57 c0	 xorps	 xmm0, xmm0

; 142  :     }

  00003	8b c1		 mov	 eax, ecx

; 65   :         : _Data()

  00005	66 0f d6 41 04	 movq	 QWORD PTR [ecx+4], xmm0

; 66   :     {
; 67   :         _Data._What = _Message;

  0000a	c7 41 04 00 00
	00 00		 mov	 DWORD PTR [ecx+4], OFFSET ??_C@_0BF@KINCDENJ@bad?5array?5new?5length@

; 141  :     {

  00011	c7 01 00 00 00
	00		 mov	 DWORD PTR [ecx], OFFSET ??_7bad_array_new_length@std@@6B@

; 142  :     }

  00017	c3		 ret	 0
??0bad_array_new_length@std@@QAE@XZ ENDP		; std::bad_array_new_length::bad_array_new_length
_TEXT	ENDS
; Function compile flags: /Ogtp
; File C:\Program Files (x86)\Microsoft Visual Studio\2019\Community\VC\Tools\MSVC\14.28.29333\include\vcruntime_exception.h
;	COMDAT ??_Gbad_alloc@std@@UAEPAXI@Z
_TEXT	SEGMENT
___flags$ = 8						; size = 4
??_Gbad_alloc@std@@UAEPAXI@Z PROC			; std::bad_alloc::`scalar deleting destructor', COMDAT
; _this$ = ecx
  00000	55		 push	 ebp
  00001	8b ec		 mov	 ebp, esp

; 89   :     {

  00003	56		 push	 esi
  00004	8b f1		 mov	 esi, ecx

; 90   :         __std_exception_destroy(&_Data);

  00006	8d 46 04	 lea	 eax, DWORD PTR [esi+4]
  00009	c7 06 00 00 00
	00		 mov	 DWORD PTR [esi], OFFSET ??_7exception@std@@6B@
  0000f	50		 push	 eax
  00010	e8 00 00 00 00	 call	 ___std_exception_destroy
  00015	83 c4 04	 add	 esp, 4
  00018	f6 45 08 01	 test	 BYTE PTR ___flags$[ebp], 1
  0001c	74 0b		 je	 SHORT $LN9@scalar
  0001e	6a 0c		 push	 12			; 0000000cH
  00020	56		 push	 esi
  00021	e8 00 00 00 00	 call	 ??3@YAXPAXI@Z		; operator delete
  00026	83 c4 08	 add	 esp, 8
$LN9@scalar:
  00029	8b c6		 mov	 eax, esi
  0002b	5e		 pop	 esi
  0002c	5d		 pop	 ebp
  0002d	c2 04 00	 ret	 4
??_Gbad_alloc@std@@UAEPAXI@Z ENDP			; std::bad_alloc::`scalar deleting destructor'
_TEXT	ENDS
; Function compile flags: /Ogtp
; File C:\Program Files (x86)\Microsoft Visual Studio\2019\Community\VC\Tools\MSVC\14.28.29333\include\vcruntime_exception.h
;	COMDAT ??0bad_alloc@std@@QAE@ABV01@@Z
_TEXT	SEGMENT
___that$ = 8						; size = 4
??0bad_alloc@std@@QAE@ABV01@@Z PROC			; std::bad_alloc::bad_alloc, COMDAT
; _this$ = ecx
  00000	55		 push	 ebp
  00001	8b ec		 mov	 ebp, esp

; 72   :     {

  00003	56		 push	 esi
  00004	8b f1		 mov	 esi, ecx
  00006	0f 57 c0	 xorps	 xmm0, xmm0

; 71   :         : _Data()

  00009	8d 46 04	 lea	 eax, DWORD PTR [esi+4]

; 73   :         __std_exception_copy(&_Other._Data, &_Data);

  0000c	50		 push	 eax
  0000d	c7 06 00 00 00
	00		 mov	 DWORD PTR [esi], OFFSET ??_7exception@std@@6B@
  00013	66 0f d6 00	 movq	 QWORD PTR [eax], xmm0
  00017	8b 45 08	 mov	 eax, DWORD PTR ___that$[ebp]
  0001a	83 c0 04	 add	 eax, 4
  0001d	50		 push	 eax
  0001e	e8 00 00 00 00	 call	 ___std_exception_copy
  00023	83 c4 08	 add	 esp, 8
  00026	c7 06 00 00 00
	00		 mov	 DWORD PTR [esi], OFFSET ??_7bad_alloc@std@@6B@
  0002c	8b c6		 mov	 eax, esi
  0002e	5e		 pop	 esi
  0002f	5d		 pop	 ebp
  00030	c2 04 00	 ret	 4
??0bad_alloc@std@@QAE@ABV01@@Z ENDP			; std::bad_alloc::bad_alloc
_TEXT	ENDS
; Function compile flags: /Ogtp
; File C:\Program Files (x86)\Microsoft Visual Studio\2019\Community\VC\Tools\MSVC\14.28.29333\include\vcruntime_exception.h
;	COMDAT ??_Gexception@std@@UAEPAXI@Z
_TEXT	SEGMENT
___flags$ = 8						; size = 4
??_Gexception@std@@UAEPAXI@Z PROC			; std::exception::`scalar deleting destructor', COMDAT
; _this$ = ecx
  00000	55		 push	 ebp
  00001	8b ec		 mov	 ebp, esp

; 89   :     {

  00003	56		 push	 esi
  00004	8b f1		 mov	 esi, ecx

; 90   :         __std_exception_destroy(&_Data);

  00006	8d 46 04	 lea	 eax, DWORD PTR [esi+4]
  00009	c7 06 00 00 00
	00		 mov	 DWORD PTR [esi], OFFSET ??_7exception@std@@6B@
  0000f	50		 push	 eax
  00010	e8 00 00 00 00	 call	 ___std_exception_destroy
  00015	83 c4 04	 add	 esp, 4
  00018	f6 45 08 01	 test	 BYTE PTR ___flags$[ebp], 1
  0001c	74 0b		 je	 SHORT $LN6@scalar
  0001e	6a 0c		 push	 12			; 0000000cH
  00020	56		 push	 esi
  00021	e8 00 00 00 00	 call	 ??3@YAXPAXI@Z		; operator delete
  00026	83 c4 08	 add	 esp, 8
$LN6@scalar:
  00029	8b c6		 mov	 eax, esi
  0002b	5e		 pop	 esi
  0002c	5d		 pop	 ebp
  0002d	c2 04 00	 ret	 4
??_Gexception@std@@UAEPAXI@Z ENDP			; std::exception::`scalar deleting destructor'
_TEXT	ENDS
; Function compile flags: /Ogtp
; File C:\Program Files (x86)\Microsoft Visual Studio\2019\Community\VC\Tools\MSVC\14.28.29333\include\vcruntime_exception.h
;	COMDAT ?what@exception@std@@UBEPBDXZ
_TEXT	SEGMENT
?what@exception@std@@UBEPBDXZ PROC			; std::exception::what, COMDAT
; _this$ = ecx

; 95   :         return _Data._What ? _Data._What : "Unknown exception";

  00000	8b 49 04	 mov	 ecx, DWORD PTR [ecx+4]
  00003	b8 00 00 00 00	 mov	 eax, OFFSET ??_C@_0BC@EOODALEL@Unknown?5exception@
  00008	85 c9		 test	 ecx, ecx
  0000a	0f 45 c1	 cmovne	 eax, ecx

; 96   :     }

  0000d	c3		 ret	 0
?what@exception@std@@UBEPBDXZ ENDP			; std::exception::what
_TEXT	ENDS
; Function compile flags: /Ogtp
; File C:\Program Files (x86)\Microsoft Visual Studio\2019\Community\VC\Tools\MSVC\14.28.29333\include\vcruntime_exception.h
;	COMDAT ??1exception@std@@UAE@XZ
_TEXT	SEGMENT
??1exception@std@@UAE@XZ PROC				; std::exception::~exception, COMDAT
; _this$ = ecx

; 90   :         __std_exception_destroy(&_Data);

  00000	8d 41 04	 lea	 eax, DWORD PTR [ecx+4]
  00003	c7 01 00 00 00
	00		 mov	 DWORD PTR [ecx], OFFSET ??_7exception@std@@6B@
  00009	50		 push	 eax
  0000a	e8 00 00 00 00	 call	 ___std_exception_destroy
  0000f	59		 pop	 ecx

; 91   :     }

  00010	c3		 ret	 0
??1exception@std@@UAE@XZ ENDP				; std::exception::~exception
_TEXT	ENDS
; Function compile flags: /Ogtp
; File C:\Program Files (x86)\Microsoft Visual Studio\2019\Community\VC\Tools\MSVC\14.28.29333\include\vcruntime_exception.h
;	COMDAT ??0exception@std@@QAE@ABV01@@Z
_TEXT	SEGMENT
__Other$ = 8						; size = 4
??0exception@std@@QAE@ABV01@@Z PROC			; std::exception::exception, COMDAT
; _this$ = ecx

; 72   :     {

  00000	55		 push	 ebp
  00001	8b ec		 mov	 ebp, esp
  00003	56		 push	 esi
  00004	8b f1		 mov	 esi, ecx
  00006	0f 57 c0	 xorps	 xmm0, xmm0
  00009	8d 46 04	 lea	 eax, DWORD PTR [esi+4]

; 73   :         __std_exception_copy(&_Other._Data, &_Data);

  0000c	50		 push	 eax
  0000d	c7 06 00 00 00
	00		 mov	 DWORD PTR [esi], OFFSET ??_7exception@std@@6B@
  00013	66 0f d6 00	 movq	 QWORD PTR [eax], xmm0
  00017	8b 45 08	 mov	 eax, DWORD PTR __Other$[ebp]
  0001a	83 c0 04	 add	 eax, 4
  0001d	50		 push	 eax
  0001e	e8 00 00 00 00	 call	 ___std_exception_copy
  00023	83 c4 08	 add	 esp, 8

; 74   :     }

  00026	8b c6		 mov	 eax, esi
  00028	5e		 pop	 esi
  00029	5d		 pop	 ebp
  0002a	c2 04 00	 ret	 4
??0exception@std@@QAE@ABV01@@Z ENDP			; std::exception::exception
_TEXT	ENDS
; Function compile flags: /Ogtp
; File C:\Program Files (x86)\Windows Kits\10\Include\10.0.18362.0\ucrt\stdio.h
;	COMDAT __snprintf
_TEXT	SEGMENT
__Buffer$ = 8						; size = 4
__BufferCount$ = 12					; size = 4
__Format$ = 16						; size = 4
__snprintf PROC						; COMDAT

; 1969 :     {

  00000	55		 push	 ebp
  00001	8b ec		 mov	 ebp, esp

; 1390 :         int const _Result = __stdio_common_vsprintf(

  00003	8d 45 14	 lea	 eax, DWORD PTR __Format$[ebp+4]
  00006	50		 push	 eax
  00007	6a 00		 push	 0
  00009	ff 75 10	 push	 DWORD PTR __Format$[ebp]
  0000c	ff 75 0c	 push	 DWORD PTR __BufferCount$[ebp]
  0000f	ff 75 08	 push	 DWORD PTR __Buffer$[ebp]
  00012	e8 00 00 00 00	 call	 ___local_stdio_printf_options
  00017	8b 08		 mov	 ecx, DWORD PTR [eax]
  00019	ff 70 04	 push	 DWORD PTR [eax+4]
  0001c	83 c9 01	 or	 ecx, 1
  0001f	51		 push	 ecx
  00020	e8 00 00 00 00	 call	 ___stdio_common_vsprintf

; 1391 :             _CRT_INTERNAL_LOCAL_PRINTF_OPTIONS | _CRT_INTERNAL_PRINTF_LEGACY_VSPRINTF_NULL_TERMINATION,
; 1392 :             _Buffer, _BufferCount, _Format, _Locale, _ArgList);
; 1393 : 
; 1394 :         return _Result < 0 ? -1 : _Result;

  00025	83 c9 ff	 or	 ecx, -1
  00028	83 c4 1c	 add	 esp, 28			; 0000001cH
  0002b	85 c0		 test	 eax, eax
  0002d	0f 48 c1	 cmovs	 eax, ecx

; 1970 :         int _Result;
; 1971 :         va_list _ArgList;
; 1972 :         __crt_va_start(_ArgList, _Format);
; 1973 :     #pragma warning(suppress:28719)    // 28719
; 1974 :         _Result = _vsnprintf(_Buffer, _BufferCount, _Format, _ArgList);
; 1975 :         __crt_va_end(_ArgList);
; 1976 :         return _Result;
; 1977 :     }

  00030	5d		 pop	 ebp
  00031	c3		 ret	 0
__snprintf ENDP
_TEXT	ENDS
; Function compile flags: /Ogtp
; File C:\Program Files (x86)\Windows Kits\10\Include\10.0.18362.0\ucrt\corecrt_stdio_config.h
;	COMDAT ___local_stdio_printf_options
_TEXT	SEGMENT
___local_stdio_printf_options PROC			; COMDAT

; 87   :         static unsigned __int64 _OptionsStorage;
; 88   :         return &_OptionsStorage;

  00000	b8 00 00 00 00	 mov	 eax, OFFSET ?_OptionsStorage@?1??__local_stdio_printf_options@@9@4_KA ; `__local_stdio_printf_options'::`2'::_OptionsStorage

; 89   :     }

  00005	c3		 ret	 0
___local_stdio_printf_options ENDP
_TEXT	ENDS
END
