; Listing generated by Microsoft (R) Optimizing Compiler Version 19.28.29335.0 

	TITLE	D:\Metin2 Server Files\mainline\SRC_2014\Metin2Client\EffectLib\EffectElementBaseInstance.cpp
	.686P
	.XMM
	include listing.inc
	.model	flat

INCLUDELIB LIBCMT
INCLUDELIB OLDNAMES

PUBLIC	??0CEffectElementBaseInstance@@QAE@XZ		; CEffectElementBaseInstance::CEffectElementBaseInstance
PUBLIC	??1CEffectElementBaseInstance@@UAE@XZ		; CEffectElementBaseInstance::~CEffectElementBaseInstance
PUBLIC	?SetDataPointer@CEffectElementBaseInstance@@QAEXPAVCEffectElementBase@@@Z ; CEffectElementBaseInstance::SetDataPointer
PUBLIC	?Initialize@CEffectElementBaseInstance@@QAEXXZ	; CEffectElementBaseInstance::Initialize
PUBLIC	?Destroy@CEffectElementBaseInstance@@QAEXXZ	; CEffectElementBaseInstance::Destroy
PUBLIC	?SetLocalMatrixPointer@CEffectElementBaseInstance@@QAEXPBUD3DXMATRIX@@@Z ; CEffectElementBaseInstance::SetLocalMatrixPointer
PUBLIC	?Update@CEffectElementBaseInstance@@QAE_NM@Z	; CEffectElementBaseInstance::Update
PUBLIC	?Render@CEffectElementBaseInstance@@QAEXXZ	; CEffectElementBaseInstance::Render
PUBLIC	?isActive@CEffectElementBaseInstance@@QAE_NXZ	; CEffectElementBaseInstance::isActive
PUBLIC	?SetActive@CEffectElementBaseInstance@@QAEXXZ	; CEffectElementBaseInstance::SetActive
PUBLIC	?SetDeactive@CEffectElementBaseInstance@@QAEXXZ	; CEffectElementBaseInstance::SetDeactive
PUBLIC	??_GCEffectElementBaseInstance@@UAEPAXI@Z	; CEffectElementBaseInstance::`scalar deleting destructor'
PUBLIC	?ms_singleton@?$CSingleton@VCTimer@@@@0PAVCTimer@@A ; CSingleton<CTimer>::ms_singleton
PUBLIC	??_7CEffectElementBaseInstance@@6B@		; CEffectElementBaseInstance::`vftable'
PUBLIC	??_R4CEffectElementBaseInstance@@6B@		; CEffectElementBaseInstance::`RTTI Complete Object Locator'
PUBLIC	??_R0?AVCEffectElementBaseInstance@@@8		; CEffectElementBaseInstance `RTTI Type Descriptor'
PUBLIC	??_R3CEffectElementBaseInstance@@8		; CEffectElementBaseInstance::`RTTI Class Hierarchy Descriptor'
PUBLIC	??_R2CEffectElementBaseInstance@@8		; CEffectElementBaseInstance::`RTTI Base Class Array'
PUBLIC	??_R1A@?0A@EA@CEffectElementBaseInstance@@8	; CEffectElementBaseInstance::`RTTI Base Class Descriptor at (0,-1,0,64)'
EXTRN	__purecall:PROC
EXTRN	??3@YAXPAXI@Z:PROC				; operator delete
EXTRN	?GetCurrentMillisecond@CTimer@@QAEKXZ:PROC	; CTimer::GetCurrentMillisecond
EXTRN	?GetStartTime@CEffectElementBase@@QAEMXZ:PROC	; CEffectElementBase::GetStartTime
EXTRN	??_ECEffectElementBaseInstance@@UAEPAXI@Z:PROC	; CEffectElementBaseInstance::`vector deleting destructor'
EXTRN	??_7type_info@@6B@:QWORD			; type_info::`vftable'
EXTRN	__fltused:DWORD
;	COMDAT ?ms_singleton@?$CSingleton@VCTimer@@@@0PAVCTimer@@A
_BSS	SEGMENT
?ms_singleton@?$CSingleton@VCTimer@@@@0PAVCTimer@@A DD 01H DUP (?) ; CSingleton<CTimer>::ms_singleton
_BSS	ENDS
;	COMDAT ??_R1A@?0A@EA@CEffectElementBaseInstance@@8
rdata$r	SEGMENT
??_R1A@?0A@EA@CEffectElementBaseInstance@@8 DD FLAT:??_R0?AVCEffectElementBaseInstance@@@8 ; CEffectElementBaseInstance::`RTTI Base Class Descriptor at (0,-1,0,64)'
	DD	00H
	DD	00H
	DD	0ffffffffH
	DD	00H
	DD	040H
	DD	FLAT:??_R3CEffectElementBaseInstance@@8
rdata$r	ENDS
;	COMDAT ??_R2CEffectElementBaseInstance@@8
rdata$r	SEGMENT
??_R2CEffectElementBaseInstance@@8 DD FLAT:??_R1A@?0A@EA@CEffectElementBaseInstance@@8 ; CEffectElementBaseInstance::`RTTI Base Class Array'
rdata$r	ENDS
;	COMDAT ??_R3CEffectElementBaseInstance@@8
rdata$r	SEGMENT
??_R3CEffectElementBaseInstance@@8 DD 00H		; CEffectElementBaseInstance::`RTTI Class Hierarchy Descriptor'
	DD	00H
	DD	01H
	DD	FLAT:??_R2CEffectElementBaseInstance@@8
rdata$r	ENDS
;	COMDAT ??_R0?AVCEffectElementBaseInstance@@@8
data$rs	SEGMENT
??_R0?AVCEffectElementBaseInstance@@@8 DD FLAT:??_7type_info@@6B@ ; CEffectElementBaseInstance `RTTI Type Descriptor'
	DD	00H
	DB	'.?AVCEffectElementBaseInstance@@', 00H
data$rs	ENDS
;	COMDAT ??_R4CEffectElementBaseInstance@@6B@
rdata$r	SEGMENT
??_R4CEffectElementBaseInstance@@6B@ DD 00H		; CEffectElementBaseInstance::`RTTI Complete Object Locator'
	DD	00H
	DD	00H
	DD	FLAT:??_R0?AVCEffectElementBaseInstance@@@8
	DD	FLAT:??_R3CEffectElementBaseInstance@@8
rdata$r	ENDS
;	COMDAT ??_7CEffectElementBaseInstance@@6B@
CONST	SEGMENT
??_7CEffectElementBaseInstance@@6B@ DD FLAT:??_R4CEffectElementBaseInstance@@6B@ ; CEffectElementBaseInstance::`vftable'
	DD	FLAT:??_ECEffectElementBaseInstance@@UAEPAXI@Z
	DD	FLAT:__purecall
	DD	FLAT:__purecall
	DD	FLAT:__purecall
	DD	FLAT:__purecall
	DD	FLAT:__purecall
CONST	ENDS
; Function compile flags: /Odspy
;	COMDAT ??_GCEffectElementBaseInstance@@UAEPAXI@Z
_TEXT	SEGMENT
_this$ = -4						; size = 4
___flags$ = 8						; size = 4
??_GCEffectElementBaseInstance@@UAEPAXI@Z PROC		; CEffectElementBaseInstance::`scalar deleting destructor', COMDAT
; _this$ = ecx
  00000	55		 push	 ebp
  00001	8b ec		 mov	 ebp, esp
  00003	51		 push	 ecx
  00004	89 4d fc	 mov	 DWORD PTR _this$[ebp], ecx
  00007	8b 4d fc	 mov	 ecx, DWORD PTR _this$[ebp]
  0000a	e8 00 00 00 00	 call	 ??1CEffectElementBaseInstance@@UAE@XZ ; CEffectElementBaseInstance::~CEffectElementBaseInstance
  0000f	8b 45 08	 mov	 eax, DWORD PTR ___flags$[ebp]
  00012	83 e0 01	 and	 eax, 1
  00015	74 0c		 je	 SHORT $LN2@scalar
  00017	6a 24		 push	 36			; 00000024H
  00019	ff 75 fc	 push	 DWORD PTR _this$[ebp]
  0001c	e8 00 00 00 00	 call	 ??3@YAXPAXI@Z		; operator delete
  00021	59		 pop	 ecx
  00022	59		 pop	 ecx
$LN2@scalar:
  00023	8b 45 fc	 mov	 eax, DWORD PTR _this$[ebp]
  00026	c9		 leave
  00027	c2 04 00	 ret	 4
??_GCEffectElementBaseInstance@@UAEPAXI@Z ENDP		; CEffectElementBaseInstance::`scalar deleting destructor'
_TEXT	ENDS
; Function compile flags: /Odspy
; File D:\Metin2 Server Files\mainline\SRC_2014\Metin2Client\EffectLib\EffectElementBaseInstance.cpp
;	COMDAT ?SetDeactive@CEffectElementBaseInstance@@QAEXXZ
_TEXT	SEGMENT
_this$ = -4						; size = 4
?SetDeactive@CEffectElementBaseInstance@@QAEXXZ PROC	; CEffectElementBaseInstance::SetDeactive, COMDAT
; _this$ = ecx

; 66   : {

  00000	55		 push	 ebp
  00001	8b ec		 mov	 ebp, esp
  00003	51		 push	 ecx
  00004	89 4d fc	 mov	 DWORD PTR _this$[ebp], ecx

; 67   : 	m_isActive = false;

  00007	8b 45 fc	 mov	 eax, DWORD PTR _this$[ebp]
  0000a	c6 40 08 00	 mov	 BYTE PTR [eax+8], 0

; 68   : }

  0000e	c9		 leave
  0000f	c3		 ret	 0
?SetDeactive@CEffectElementBaseInstance@@QAEXXZ ENDP	; CEffectElementBaseInstance::SetDeactive
_TEXT	ENDS
; Function compile flags: /Odspy
; File D:\Metin2 Server Files\mainline\SRC_2014\Metin2Client\EffectLib\EffectElementBaseInstance.cpp
;	COMDAT ?SetActive@CEffectElementBaseInstance@@QAEXXZ
_TEXT	SEGMENT
_this$ = -4						; size = 4
?SetActive@CEffectElementBaseInstance@@QAEXXZ PROC	; CEffectElementBaseInstance::SetActive, COMDAT
; _this$ = ecx

; 62   : {

  00000	55		 push	 ebp
  00001	8b ec		 mov	 ebp, esp
  00003	51		 push	 ecx
  00004	89 4d fc	 mov	 DWORD PTR _this$[ebp], ecx

; 63   : 	m_isActive = true;

  00007	8b 45 fc	 mov	 eax, DWORD PTR _this$[ebp]
  0000a	c6 40 08 01	 mov	 BYTE PTR [eax+8], 1

; 64   : }

  0000e	c9		 leave
  0000f	c3		 ret	 0
?SetActive@CEffectElementBaseInstance@@QAEXXZ ENDP	; CEffectElementBaseInstance::SetActive
_TEXT	ENDS
; Function compile flags: /Odspy
; File D:\Metin2 Server Files\mainline\SRC_2014\Metin2Client\EffectLib\EffectElementBaseInstance.cpp
;	COMDAT ?isActive@CEffectElementBaseInstance@@QAE_NXZ
_TEXT	SEGMENT
_this$ = -4						; size = 4
?isActive@CEffectElementBaseInstance@@QAE_NXZ PROC	; CEffectElementBaseInstance::isActive, COMDAT
; _this$ = ecx

; 58   : {

  00000	55		 push	 ebp
  00001	8b ec		 mov	 ebp, esp
  00003	51		 push	 ecx
  00004	89 4d fc	 mov	 DWORD PTR _this$[ebp], ecx

; 59   : 	return m_isActive;

  00007	8b 45 fc	 mov	 eax, DWORD PTR _this$[ebp]
  0000a	8a 40 08	 mov	 al, BYTE PTR [eax+8]

; 60   : }

  0000d	c9		 leave
  0000e	c3		 ret	 0
?isActive@CEffectElementBaseInstance@@QAE_NXZ ENDP	; CEffectElementBaseInstance::isActive
_TEXT	ENDS
; Function compile flags: /Odspy
; File D:\Metin2 Server Files\mainline\SRC_2014\Metin2Client\EffectLib\EffectElementBaseInstance.cpp
;	COMDAT ?Render@CEffectElementBaseInstance@@QAEXXZ
_TEXT	SEGMENT
_this$ = -4						; size = 4
?Render@CEffectElementBaseInstance@@QAEXXZ PROC		; CEffectElementBaseInstance::Render, COMDAT
; _this$ = ecx

; 23   : {

  00000	55		 push	 ebp
  00001	8b ec		 mov	 ebp, esp
  00003	51		 push	 ecx
  00004	89 4d fc	 mov	 DWORD PTR _this$[ebp], ecx

; 24   : 	if (!m_bStart)

  00007	8b 45 fc	 mov	 eax, DWORD PTR _this$[ebp]
  0000a	0f b6 40 1c	 movzx	 eax, BYTE PTR [eax+28]
  0000e	85 c0		 test	 eax, eax
  00010	75 02		 jne	 SHORT $LN2@Render

; 25   : 		return;

  00012	eb 0b		 jmp	 SHORT $LN1@Render
$LN2@Render:

; 26   : 
; 27   : 	assert(mc_pmatLocal);
; 28   : 
; 29   : 	OnRender();

  00014	8b 45 fc	 mov	 eax, DWORD PTR _this$[ebp]
  00017	8b 00		 mov	 eax, DWORD PTR [eax]
  00019	8b 4d fc	 mov	 ecx, DWORD PTR _this$[ebp]
  0001c	ff 50 14	 call	 DWORD PTR [eax+20]
$LN1@Render:

; 30   : }

  0001f	c9		 leave
  00020	c3		 ret	 0
?Render@CEffectElementBaseInstance@@QAEXXZ ENDP		; CEffectElementBaseInstance::Render
_TEXT	ENDS
; Function compile flags: /Odspy
; File D:\Metin2 Server Files\mainline\SRC_2014\Metin2Client\EffectLib\EffectElementBaseInstance.cpp
;	COMDAT ?Update@CEffectElementBaseInstance@@QAE_NM@Z
_TEXT	SEGMENT
_this$ = -4						; size = 4
_fElapsedTime$ = 8					; size = 4
?Update@CEffectElementBaseInstance@@QAE_NM@Z PROC	; CEffectElementBaseInstance::Update, COMDAT
; _this$ = ecx

; 5    : {

  00000	55		 push	 ebp
  00001	8b ec		 mov	 ebp, esp
  00003	51		 push	 ecx
  00004	89 4d fc	 mov	 DWORD PTR _this$[ebp], ecx

; 6    : 	if (m_bStart)

  00007	8b 45 fc	 mov	 eax, DWORD PTR _this$[ebp]
  0000a	0f b6 40 1c	 movzx	 eax, BYTE PTR [eax+28]
  0000e	85 c0		 test	 eax, eax
  00010	74 3c		 je	 SHORT $LN2@Update

; 7    : 	{
; 8    : 		m_fElapsedTime = fElapsedTime;

  00012	8b 45 fc	 mov	 eax, DWORD PTR _this$[ebp]
  00015	f3 0f 10 45 08	 movss	 xmm0, DWORD PTR _fElapsedTime$[ebp]
  0001a	f3 0f 11 40 14	 movss	 DWORD PTR [eax+20], xmm0

; 9    : 		m_fLocalTime += fElapsedTime;

  0001f	8b 45 fc	 mov	 eax, DWORD PTR _this$[ebp]
  00022	f3 0f 10 40 0c	 movss	 xmm0, DWORD PTR [eax+12]
  00027	f3 0f 58 45 08	 addss	 xmm0, DWORD PTR _fElapsedTime$[ebp]
  0002c	8b 45 fc	 mov	 eax, DWORD PTR _this$[ebp]
  0002f	f3 0f 11 40 0c	 movss	 DWORD PTR [eax+12], xmm0

; 10   : 
; 11   : 		return OnUpdate(fElapsedTime);

  00034	51		 push	 ecx
  00035	f3 0f 10 45 08	 movss	 xmm0, DWORD PTR _fElapsedTime$[ebp]
  0003a	f3 0f 11 04 24	 movss	 DWORD PTR [esp], xmm0
  0003f	8b 45 fc	 mov	 eax, DWORD PTR _this$[ebp]
  00042	8b 00		 mov	 eax, DWORD PTR [eax]
  00044	8b 4d fc	 mov	 ecx, DWORD PTR _this$[ebp]
  00047	ff 50 10	 call	 DWORD PTR [eax+16]
  0004a	eb 2c		 jmp	 SHORT $LN3@Update

; 12   : 	}

  0004c	eb 2a		 jmp	 SHORT $LN3@Update
$LN2@Update:

; 13   : 	else
; 14   : 	{
; 15   : 		m_fRemainingTime -= fElapsedTime;

  0004e	8b 45 fc	 mov	 eax, DWORD PTR _this$[ebp]
  00051	f3 0f 10 40 18	 movss	 xmm0, DWORD PTR [eax+24]
  00056	f3 0f 5c 45 08	 subss	 xmm0, DWORD PTR _fElapsedTime$[ebp]
  0005b	8b 45 fc	 mov	 eax, DWORD PTR _this$[ebp]
  0005e	f3 0f 11 40 18	 movss	 DWORD PTR [eax+24], xmm0

; 16   : 		if (m_fRemainingTime<=0.0f)

  00063	8b 45 fc	 mov	 eax, DWORD PTR _this$[ebp]
  00066	0f 57 c0	 xorps	 xmm0, xmm0
  00069	0f 2f 40 18	 comiss	 xmm0, DWORD PTR [eax+24]
  0006d	72 07		 jb	 SHORT $LN4@Update

; 17   : 			m_bStart = true;

  0006f	8b 45 fc	 mov	 eax, DWORD PTR _this$[ebp]
  00072	c6 40 1c 01	 mov	 BYTE PTR [eax+28], 1
$LN4@Update:

; 18   : 		return true;

  00076	b0 01		 mov	 al, 1
$LN3@Update:

; 19   : 	}
; 20   : }

  00078	c9		 leave
  00079	c2 04 00	 ret	 4
?Update@CEffectElementBaseInstance@@QAE_NM@Z ENDP	; CEffectElementBaseInstance::Update
_TEXT	ENDS
; Function compile flags: /Odspy
; File D:\Metin2 Server Files\mainline\SRC_2014\Metin2Client\EffectLib\EffectElementBaseInstance.cpp
;	COMDAT ?SetLocalMatrixPointer@CEffectElementBaseInstance@@QAEXPBUD3DXMATRIX@@@Z
_TEXT	SEGMENT
_this$ = -4						; size = 4
_c_pMatrix$ = 8						; size = 4
?SetLocalMatrixPointer@CEffectElementBaseInstance@@QAEXPBUD3DXMATRIX@@@Z PROC ; CEffectElementBaseInstance::SetLocalMatrixPointer, COMDAT
; _this$ = ecx

; 33   : {

  00000	55		 push	 ebp
  00001	8b ec		 mov	 ebp, esp
  00003	51		 push	 ecx
  00004	89 4d fc	 mov	 DWORD PTR _this$[ebp], ecx

; 34   : 	mc_pmatLocal = c_pMatrix;

  00007	8b 45 fc	 mov	 eax, DWORD PTR _this$[ebp]
  0000a	8b 4d 08	 mov	 ecx, DWORD PTR _c_pMatrix$[ebp]
  0000d	89 48 04	 mov	 DWORD PTR [eax+4], ecx

; 35   : }

  00010	c9		 leave
  00011	c2 04 00	 ret	 4
?SetLocalMatrixPointer@CEffectElementBaseInstance@@QAEXPBUD3DXMATRIX@@@Z ENDP ; CEffectElementBaseInstance::SetLocalMatrixPointer
_TEXT	ENDS
; Function compile flags: /Odspy
; File D:\Metin2 Server Files\mainline\SRC_2014\Metin2Client\EffectLib\EffectElementBaseInstance.cpp
;	COMDAT ?Destroy@CEffectElementBaseInstance@@QAEXXZ
_TEXT	SEGMENT
_this$ = -4						; size = 4
?Destroy@CEffectElementBaseInstance@@QAEXXZ PROC	; CEffectElementBaseInstance::Destroy, COMDAT
; _this$ = ecx

; 87   : {

  00000	55		 push	 ebp
  00001	8b ec		 mov	 ebp, esp
  00003	51		 push	 ecx
  00004	89 4d fc	 mov	 DWORD PTR _this$[ebp], ecx

; 88   : 	OnDestroy();

  00007	8b 45 fc	 mov	 eax, DWORD PTR _this$[ebp]
  0000a	8b 00		 mov	 eax, DWORD PTR [eax]
  0000c	8b 4d fc	 mov	 ecx, DWORD PTR _this$[ebp]
  0000f	ff 50 0c	 call	 DWORD PTR [eax+12]

; 89   : 	Initialize();

  00012	8b 4d fc	 mov	 ecx, DWORD PTR _this$[ebp]
  00015	e8 00 00 00 00	 call	 ?Initialize@CEffectElementBaseInstance@@QAEXXZ ; CEffectElementBaseInstance::Initialize

; 90   : }

  0001a	c9		 leave
  0001b	c3		 ret	 0
?Destroy@CEffectElementBaseInstance@@QAEXXZ ENDP	; CEffectElementBaseInstance::Destroy
_TEXT	ENDS
; Function compile flags: /Odspy
; File D:\Metin2 Server Files\mainline\SRC_2014\Metin2Client\EffectLib\EffectElementBaseInstance.cpp
;	COMDAT ?Initialize@CEffectElementBaseInstance@@QAEXXZ
_TEXT	SEGMENT
_this$ = -4						; size = 4
?Initialize@CEffectElementBaseInstance@@QAEXXZ PROC	; CEffectElementBaseInstance::Initialize, COMDAT
; _this$ = ecx

; 71   : {

  00000	55		 push	 ebp
  00001	8b ec		 mov	 ebp, esp
  00003	51		 push	 ecx
  00004	89 4d fc	 mov	 DWORD PTR _this$[ebp], ecx

; 72   : 	mc_pmatLocal = NULL;

  00007	8b 45 fc	 mov	 eax, DWORD PTR _this$[ebp]
  0000a	83 60 04 00	 and	 DWORD PTR [eax+4], 0

; 73   : 
; 74   : 	m_isActive = true;

  0000e	8b 45 fc	 mov	 eax, DWORD PTR _this$[ebp]
  00011	c6 40 08 01	 mov	 BYTE PTR [eax+8], 1

; 75   : 
; 76   : 	m_fLocalTime = 0.0f;

  00015	8b 45 fc	 mov	 eax, DWORD PTR _this$[ebp]
  00018	0f 57 c0	 xorps	 xmm0, xmm0
  0001b	f3 0f 11 40 0c	 movss	 DWORD PTR [eax+12], xmm0

; 77   : 	m_dwStartTime = 0;

  00020	8b 45 fc	 mov	 eax, DWORD PTR _this$[ebp]
  00023	83 60 10 00	 and	 DWORD PTR [eax+16], 0

; 78   : 	m_fElapsedTime = 0.0f;

  00027	8b 45 fc	 mov	 eax, DWORD PTR _this$[ebp]
  0002a	0f 57 c0	 xorps	 xmm0, xmm0
  0002d	f3 0f 11 40 14	 movss	 DWORD PTR [eax+20], xmm0

; 79   : 
; 80   : 	m_bStart = false;

  00032	8b 45 fc	 mov	 eax, DWORD PTR _this$[ebp]
  00035	c6 40 1c 00	 mov	 BYTE PTR [eax+28], 0

; 81   : 	m_fRemainingTime = 0.0f;

  00039	8b 45 fc	 mov	 eax, DWORD PTR _this$[ebp]
  0003c	0f 57 c0	 xorps	 xmm0, xmm0
  0003f	f3 0f 11 40 18	 movss	 DWORD PTR [eax+24], xmm0

; 82   : 
; 83   : 	OnInitialize();

  00044	8b 45 fc	 mov	 eax, DWORD PTR _this$[ebp]
  00047	8b 00		 mov	 eax, DWORD PTR [eax]
  00049	8b 4d fc	 mov	 ecx, DWORD PTR _this$[ebp]
  0004c	ff 50 08	 call	 DWORD PTR [eax+8]

; 84   : }

  0004f	c9		 leave
  00050	c3		 ret	 0
?Initialize@CEffectElementBaseInstance@@QAEXXZ ENDP	; CEffectElementBaseInstance::Initialize
_TEXT	ENDS
; Function compile flags: /Odspy
; File D:\Metin2 Server Files\mainline\SRC_2014\Metin2Client\EffectLib\EffectElementBaseInstance.cpp
; File D:\Metin2 Server Files\mainline\SRC_2014\Metin2Client\eterBase\Singleton.h
; File D:\Metin2 Server Files\mainline\SRC_2014\Metin2Client\EffectLib\EffectElementBaseInstance.cpp
;	COMDAT ?SetDataPointer@CEffectElementBaseInstance@@QAEXPAVCEffectElementBase@@@Z
_TEXT	SEGMENT
$T1 = -8						; size = 4
_this$ = -4						; size = 4
_pElement$ = 8						; size = 4
?SetDataPointer@CEffectElementBaseInstance@@QAEXPAVCEffectElementBase@@@Z PROC ; CEffectElementBaseInstance::SetDataPointer, COMDAT
; _this$ = ecx

; 38   : {

  00000	55		 push	 ebp
  00001	8b ec		 mov	 ebp, esp
  00003	51		 push	 ecx
  00004	51		 push	 ecx
  00005	89 4d fc	 mov	 DWORD PTR _this$[ebp], ecx

; 39   : 	m_pBase = pElement;

  00008	8b 45 fc	 mov	 eax, DWORD PTR _this$[ebp]
  0000b	8b 4d 08	 mov	 ecx, DWORD PTR _pElement$[ebp]
  0000e	89 48 20	 mov	 DWORD PTR [eax+32], ecx
; File D:\Metin2 Server Files\mainline\SRC_2014\Metin2Client\eterBase\Singleton.h

; 27   : 		return (*ms_singleton);

  00011	a1 00 00 00 00	 mov	 eax, DWORD PTR ?ms_singleton@?$CSingleton@VCTimer@@@@0PAVCTimer@@A ; CSingleton<CTimer>::ms_singleton
  00016	89 45 f8	 mov	 DWORD PTR $T1[ebp], eax
; File D:\Metin2 Server Files\mainline\SRC_2014\Metin2Client\EffectLib\EffectElementBaseInstance.cpp

; 41   : 	m_dwStartTime = CTimer::Instance().GetCurrentMillisecond();

  00019	8b 4d f8	 mov	 ecx, DWORD PTR $T1[ebp]
  0001c	e8 00 00 00 00	 call	 ?GetCurrentMillisecond@CTimer@@QAEKXZ ; CTimer::GetCurrentMillisecond
  00021	8b 4d fc	 mov	 ecx, DWORD PTR _this$[ebp]
  00024	89 41 10	 mov	 DWORD PTR [ecx+16], eax

; 42   : 
; 43   : 	//////////////////////////////////////////////////////////////////////////
; 44   : 	//add by ipkn, start time management
; 45   : 
; 46   : 	m_fRemainingTime = pElement->GetStartTime();

  00027	8b 4d 08	 mov	 ecx, DWORD PTR _pElement$[ebp]
  0002a	e8 00 00 00 00	 call	 ?GetStartTime@CEffectElementBase@@QAEMXZ ; CEffectElementBase::GetStartTime
  0002f	8b 45 fc	 mov	 eax, DWORD PTR _this$[ebp]
  00032	d9 58 18	 fstp	 DWORD PTR [eax+24]

; 47   : 	if (m_fRemainingTime<=0.0f)

  00035	8b 45 fc	 mov	 eax, DWORD PTR _this$[ebp]
  00038	0f 57 c0	 xorps	 xmm0, xmm0
  0003b	0f 2f 40 18	 comiss	 xmm0, DWORD PTR [eax+24]
  0003f	72 09		 jb	 SHORT $LN2@SetDataPoi

; 48   : 		m_bStart = true;

  00041	8b 45 fc	 mov	 eax, DWORD PTR _this$[ebp]
  00044	c6 40 1c 01	 mov	 BYTE PTR [eax+28], 1
  00048	eb 07		 jmp	 SHORT $LN3@SetDataPoi
$LN2@SetDataPoi:

; 49   : 	else
; 50   : 		m_bStart = false;

  0004a	8b 45 fc	 mov	 eax, DWORD PTR _this$[ebp]
  0004d	c6 40 1c 00	 mov	 BYTE PTR [eax+28], 0
$LN3@SetDataPoi:

; 51   : 
; 52   : 	//////////////////////////////////////////////////////////////////////////
; 53   : 
; 54   : 	OnSetDataPointer(pElement);

  00051	ff 75 08	 push	 DWORD PTR _pElement$[ebp]
  00054	8b 45 fc	 mov	 eax, DWORD PTR _this$[ebp]
  00057	8b 00		 mov	 eax, DWORD PTR [eax]
  00059	8b 4d fc	 mov	 ecx, DWORD PTR _this$[ebp]
  0005c	ff 50 04	 call	 DWORD PTR [eax+4]

; 55   : }

  0005f	c9		 leave
  00060	c2 04 00	 ret	 4
?SetDataPointer@CEffectElementBaseInstance@@QAEXPAVCEffectElementBase@@@Z ENDP ; CEffectElementBaseInstance::SetDataPointer
_TEXT	ENDS
; Function compile flags: /Odspy
; File D:\Metin2 Server Files\mainline\SRC_2014\Metin2Client\EffectLib\EffectElementBaseInstance.cpp
;	COMDAT ??1CEffectElementBaseInstance@@UAE@XZ
_TEXT	SEGMENT
_this$ = -4						; size = 4
??1CEffectElementBaseInstance@@UAE@XZ PROC		; CEffectElementBaseInstance::~CEffectElementBaseInstance, COMDAT
; _this$ = ecx

; 96   : {

  00000	55		 push	 ebp
  00001	8b ec		 mov	 ebp, esp
  00003	51		 push	 ecx
  00004	89 4d fc	 mov	 DWORD PTR _this$[ebp], ecx
  00007	8b 45 fc	 mov	 eax, DWORD PTR _this$[ebp]
  0000a	c7 00 00 00 00
	00		 mov	 DWORD PTR [eax], OFFSET ??_7CEffectElementBaseInstance@@6B@

; 97   : }

  00010	c9		 leave
  00011	c3		 ret	 0
??1CEffectElementBaseInstance@@UAE@XZ ENDP		; CEffectElementBaseInstance::~CEffectElementBaseInstance
_TEXT	ENDS
; Function compile flags: /Odspy
; File D:\Metin2 Server Files\mainline\SRC_2014\Metin2Client\EffectLib\EffectElementBaseInstance.cpp
;	COMDAT ??0CEffectElementBaseInstance@@QAE@XZ
_TEXT	SEGMENT
_this$ = -4						; size = 4
??0CEffectElementBaseInstance@@QAE@XZ PROC		; CEffectElementBaseInstance::CEffectElementBaseInstance, COMDAT
; _this$ = ecx

; 93   : {

  00000	55		 push	 ebp
  00001	8b ec		 mov	 ebp, esp
  00003	51		 push	 ecx
  00004	89 4d fc	 mov	 DWORD PTR _this$[ebp], ecx
  00007	8b 45 fc	 mov	 eax, DWORD PTR _this$[ebp]
  0000a	c7 00 00 00 00
	00		 mov	 DWORD PTR [eax], OFFSET ??_7CEffectElementBaseInstance@@6B@

; 94   : }

  00010	8b 45 fc	 mov	 eax, DWORD PTR _this$[ebp]
  00013	c9		 leave
  00014	c3		 ret	 0
??0CEffectElementBaseInstance@@QAE@XZ ENDP		; CEffectElementBaseInstance::CEffectElementBaseInstance
_TEXT	ENDS
END
