; Listing generated by Microsoft (R) Optimizing Compiler Version 19.28.29335.0 

	TITLE	D:\Metin2 Server Files\mainline\SRC_2014\Metin2Client\EffectLib\ParticleSystemData.cpp
	.686P
	.XMM
	include listing.inc
	.model	flat

INCLUDELIB LIBCMT
INCLUDELIB OLDNAMES

PUBLIC	?__empty_global_delete@@YAXPAX@Z		; __empty_global_delete
PUBLIC	?__empty_global_delete@@YAXPAXI@Z		; __empty_global_delete
PUBLIC	??0exception@std@@QAE@ABV01@@Z			; std::exception::exception
PUBLIC	?what@exception@std@@UBEPBDXZ			; std::exception::what
PUBLIC	??_Gexception@std@@UAEPAXI@Z			; std::exception::`scalar deleting destructor'
PUBLIC	??0bad_alloc@std@@QAE@ABV01@@Z			; std::bad_alloc::bad_alloc
PUBLIC	??_Gbad_alloc@std@@UAEPAXI@Z			; std::bad_alloc::`scalar deleting destructor'
PUBLIC	??0bad_array_new_length@std@@QAE@XZ		; std::bad_array_new_length::bad_array_new_length
PUBLIC	??1bad_array_new_length@std@@UAE@XZ		; std::bad_array_new_length::~bad_array_new_length
PUBLIC	??0bad_array_new_length@std@@QAE@ABV01@@Z	; std::bad_array_new_length::bad_array_new_length
PUBLIC	??_Gbad_array_new_length@std@@UAEPAXI@Z		; std::bad_array_new_length::`scalar deleting destructor'
PUBLIC	?_Throw_bad_array_new_length@std@@YAXXZ		; std::_Throw_bad_array_new_length
PUBLIC	?_Adjust_manually_vector_aligned@std@@YAXAAPAXAAI@Z ; std::_Adjust_manually_vector_aligned
PUBLIC	?_Xlen_string@std@@YAXXZ			; std::_Xlen_string
PUBLIC	?_Myptr@?$_String_val@U?$_Simple_types@D@std@@@std@@QAEPADXZ ; std::_String_val<std::_Simple_types<char> >::_Myptr
PUBLIC	??0?$basic_string@DU?$char_traits@D@std@@V?$allocator@D@2@@std@@QAE@QBD@Z ; std::basic_string<char,std::char_traits<char>,std::allocator<char> >::basic_string<char,std::char_traits<char>,std::allocator<char> >
PUBLIC	??0?$basic_string@DU?$char_traits@D@std@@V?$allocator@D@2@@std@@QAE@U_String_constructor_concat_tag@1@ABV01@QBDI2I@Z ; std::basic_string<char,std::char_traits<char>,std::allocator<char> >::basic_string<char,std::char_traits<char>,std::allocator<char> >
PUBLIC	?_Move_assign@?$basic_string@DU?$char_traits@D@std@@V?$allocator@D@2@@std@@AAEXAAV12@U_Equal_allocators@2@@Z ; std::basic_string<char,std::char_traits<char>,std::allocator<char> >::_Move_assign
PUBLIC	??1?$basic_string@DU?$char_traits@D@std@@V?$allocator@D@2@@std@@QAE@XZ ; std::basic_string<char,std::char_traits<char>,std::allocator<char> >::~basic_string<char,std::char_traits<char>,std::allocator<char> >
PUBLIC	?assign@?$basic_string@DU?$char_traits@D@std@@V?$allocator@D@2@@std@@QAEAAV12@QBDI@Z ; std::basic_string<char,std::char_traits<char>,std::allocator<char> >::assign
PUBLIC	?c_str@?$basic_string@DU?$char_traits@D@std@@V?$allocator@D@2@@std@@QBEPBDXZ ; std::basic_string<char,std::char_traits<char>,std::allocator<char> >::c_str
PUBLIC	?max_size@?$basic_string@DU?$char_traits@D@std@@V?$allocator@D@2@@std@@QBEIXZ ; std::basic_string<char,std::char_traits<char>,std::allocator<char> >::max_size
PUBLIC	?_Calculate_growth@?$basic_string@DU?$char_traits@D@std@@V?$allocator@D@2@@std@@ABEII@Z ; std::basic_string<char,std::char_traits<char>,std::allocator<char> >::_Calculate_growth
PUBLIC	?_Tidy_init@?$basic_string@DU?$char_traits@D@std@@V?$allocator@D@2@@std@@AAEXXZ ; std::basic_string<char,std::char_traits<char>,std::allocator<char> >::_Tidy_init
PUBLIC	?_Tidy_deallocate@?$basic_string@DU?$char_traits@D@std@@V?$allocator@D@2@@std@@AAEXXZ ; std::basic_string<char,std::char_traits<char>,std::allocator<char> >::_Tidy_deallocate
PUBLIC	??1?$_Compressed_pair@V?$allocator@D@std@@V?$_String_val@U?$_Simple_types@D@std@@@2@$00@std@@QAE@XZ ; std::_Compressed_pair<std::allocator<char>,std::_String_val<std::_Simple_types<char> >,1>::~_Compressed_pair<std::allocator<char>,std::_String_val<std::_Simple_types<char> >,1>
PUBLIC	?_Throw_tree_length_error@std@@YAXXZ		; std::_Throw_tree_length_error
PUBLIC	?at@?$vector@V?$basic_string@DU?$char_traits@D@std@@V?$allocator@D@2@@std@@V?$allocator@V?$basic_string@DU?$char_traits@D@std@@V?$allocator@D@2@@std@@@2@@std@@QAEAAV?$basic_string@DU?$char_traits@D@std@@V?$allocator@D@2@@2@I@Z ; std::vector<std::basic_string<char,std::char_traits<char>,std::allocator<char> >,std::allocator<std::basic_string<char,std::char_traits<char>,std::allocator<char> > > >::at
PUBLIC	?_Xrange@?$vector@V?$basic_string@DU?$char_traits@D@std@@V?$allocator@D@2@@std@@V?$allocator@V?$basic_string@DU?$char_traits@D@std@@V?$allocator@D@2@@std@@@2@@std@@CAXXZ ; std::vector<std::basic_string<char,std::char_traits<char>,std::allocator<char> >,std::allocator<std::basic_string<char,std::char_traits<char>,std::allocator<char> > > >::_Xrange
PUBLIC	??1CGotoChild@CTextFileLoader@@QAE@XZ		; CTextFileLoader::CGotoChild::~CGotoChild
PUBLIC	??$_Destroy_in_place@PAD@std@@YAXAAPAD@Z	; std::_Destroy_in_place<char *>
PUBLIC	??$_Reallocate_for@V<lambda_9366063389c5f42a00a5088cf24e69de>@@PBD@?$basic_string@DU?$char_traits@D@std@@V?$allocator@D@2@@std@@AAEAAV01@IV<lambda_9366063389c5f42a00a5088cf24e69de>@@PBD@Z ; std::basic_string<char,std::char_traits<char>,std::allocator<char> >::_Reallocate_for<<lambda_9366063389c5f42a00a5088cf24e69de>,char const *>
PUBLIC	??$_Construct_in_place@PADABQAD@std@@YAXAAPADABQAD@Z ; std::_Construct_in_place<char *,char * const &>
PUBLIC	??$_Pocma@V?$allocator@D@std@@@std@@YAXAAV?$allocator@D@0@0@Z ; std::_Pocma<std::allocator<char> >
PUBLIC	??$_Deallocate@$07$0A@@std@@YAXPAXI@Z		; std::_Deallocate<8,0>
PUBLIC	??$_Allocate@$07U_Default_allocate_traits@std@@$0A@@std@@YAPAXI@Z ; std::_Allocate<8,std::_Default_allocate_traits,0>
PUBLIC	??$_Allocate_manually_vector_aligned@U_Default_allocate_traits@std@@@std@@YAPAXI@Z ; std::_Allocate_manually_vector_aligned<std::_Default_allocate_traits>
PUBLIC	??XDWORDCOLOR@@QAEAAU0@M@Z			; DWORDCOLOR::operator*=
PUBLIC	??D@YA?AUDWORDCOLOR@@U0@M@Z			; operator*
PUBLIC	?deallocate@?$allocator@V?$CTimeEvent@M@@@std@@QAEXQAV?$CTimeEvent@M@@I@Z ; std::allocator<CTimeEvent<float> >::deallocate
PUBLIC	??1?$vector@V?$CTimeEvent@M@@V?$allocator@V?$CTimeEvent@M@@@std@@@std@@QAE@XZ ; std::vector<CTimeEvent<float>,std::allocator<CTimeEvent<float> > >::~vector<CTimeEvent<float>,std::allocator<CTimeEvent<float> > >
PUBLIC	?clear@?$vector@V?$CTimeEvent@M@@V?$allocator@V?$CTimeEvent@M@@@std@@@std@@QAEXXZ ; std::vector<CTimeEvent<float>,std::allocator<CTimeEvent<float> > >::clear
PUBLIC	?begin@?$vector@V?$CTimeEvent@M@@V?$allocator@V?$CTimeEvent@M@@@std@@@std@@QAE?AV?$_Vector_iterator@V?$_Vector_val@U?$_Simple_types@V?$CTimeEvent@M@@@std@@@std@@@2@XZ ; std::vector<CTimeEvent<float>,std::allocator<CTimeEvent<float> > >::begin
PUBLIC	?end@?$vector@V?$CTimeEvent@M@@V?$allocator@V?$CTimeEvent@M@@@std@@@std@@QAE?AV?$_Vector_iterator@V?$_Vector_val@U?$_Simple_types@V?$CTimeEvent@M@@@std@@@std@@@2@XZ ; std::vector<CTimeEvent<float>,std::allocator<CTimeEvent<float> > >::end
PUBLIC	?_Destroy@?$vector@V?$CTimeEvent@M@@V?$allocator@V?$CTimeEvent@M@@@std@@@std@@AAEXPAV?$CTimeEvent@M@@0@Z ; std::vector<CTimeEvent<float>,std::allocator<CTimeEvent<float> > >::_Destroy
PUBLIC	?_Calculate_growth@?$vector@V?$CTimeEvent@M@@V?$allocator@V?$CTimeEvent@M@@@std@@@std@@ABEII@Z ; std::vector<CTimeEvent<float>,std::allocator<CTimeEvent<float> > >::_Calculate_growth
PUBLIC	?_Change_array@?$vector@V?$CTimeEvent@M@@V?$allocator@V?$CTimeEvent@M@@@std@@@std@@AAEXQAV?$CTimeEvent@M@@II@Z ; std::vector<CTimeEvent<float>,std::allocator<CTimeEvent<float> > >::_Change_array
PUBLIC	?_Tidy@?$vector@V?$CTimeEvent@M@@V?$allocator@V?$CTimeEvent@M@@@std@@@std@@AAEXXZ ; std::vector<CTimeEvent<float>,std::allocator<CTimeEvent<float> > >::_Tidy
PUBLIC	?_Xlength@?$vector@V?$CTimeEvent@M@@V?$allocator@V?$CTimeEvent@M@@@std@@@std@@CAXXZ ; std::vector<CTimeEvent<float>,std::allocator<CTimeEvent<float> > >::_Xlength
PUBLIC	??0?$_Vector_val@U?$_Simple_types@V?$CTimeEvent@M@@@std@@@std@@QAE@XZ ; std::_Vector_val<std::_Simple_types<CTimeEvent<float> > >::_Vector_val<std::_Simple_types<CTimeEvent<float> > >
PUBLIC	?deallocate@?$allocator@V?$CTimeEvent@UDWORDCOLOR@@@@@std@@QAEXQAV?$CTimeEvent@UDWORDCOLOR@@@@I@Z ; std::allocator<CTimeEvent<DWORDCOLOR> >::deallocate
PUBLIC	?clear@?$vector@V?$CTimeEvent@UDWORDCOLOR@@@@V?$allocator@V?$CTimeEvent@UDWORDCOLOR@@@@@std@@@std@@QAEXXZ ; std::vector<CTimeEvent<DWORDCOLOR>,std::allocator<CTimeEvent<DWORDCOLOR> > >::clear
PUBLIC	?_Destroy@?$vector@V?$CTimeEvent@UDWORDCOLOR@@@@V?$allocator@V?$CTimeEvent@UDWORDCOLOR@@@@@std@@@std@@AAEXPAV?$CTimeEvent@UDWORDCOLOR@@@@0@Z ; std::vector<CTimeEvent<DWORDCOLOR>,std::allocator<CTimeEvent<DWORDCOLOR> > >::_Destroy
PUBLIC	?_Calculate_growth@?$vector@V?$CTimeEvent@UDWORDCOLOR@@@@V?$allocator@V?$CTimeEvent@UDWORDCOLOR@@@@@std@@@std@@ABEII@Z ; std::vector<CTimeEvent<DWORDCOLOR>,std::allocator<CTimeEvent<DWORDCOLOR> > >::_Calculate_growth
PUBLIC	?_Change_array@?$vector@V?$CTimeEvent@UDWORDCOLOR@@@@V?$allocator@V?$CTimeEvent@UDWORDCOLOR@@@@@std@@@std@@AAEXQAV?$CTimeEvent@UDWORDCOLOR@@@@II@Z ; std::vector<CTimeEvent<DWORDCOLOR>,std::allocator<CTimeEvent<DWORDCOLOR> > >::_Change_array
PUBLIC	?_Xlength@?$vector@V?$CTimeEvent@UDWORDCOLOR@@@@V?$allocator@V?$CTimeEvent@UDWORDCOLOR@@@@@std@@@std@@CAXXZ ; std::vector<CTimeEvent<DWORDCOLOR>,std::allocator<CTimeEvent<DWORDCOLOR> > >::_Xlength
PUBLIC	??1CParticleSystemData@@UAE@XZ			; CParticleSystemData::~CParticleSystemData
PUBLIC	??0CParticleSystemData@@QAE@XZ			; CParticleSystemData::CParticleSystemData
PUBLIC	?GetEmitterPropertyPointer@CParticleSystemData@@QAEPAVCEmitterProperty@@XZ ; CParticleSystemData::GetEmitterPropertyPointer
PUBLIC	?GetParticlePropertyPointer@CParticleSystemData@@QAEPAVCParticleProperty@@XZ ; CParticleSystemData::GetParticlePropertyPointer
PUBLIC	?ChangeTexture@CParticleSystemData@@QAEXPBD@Z	; CParticleSystemData::ChangeTexture
PUBLIC	?BuildDecorator@CParticleSystemData@@QAEXPAVCParticleInstance@@@Z ; CParticleSystemData::BuildDecorator
PUBLIC	?OnLoadScript@CParticleSystemData@@MAEHAAVCTextFileLoader@@@Z ; CParticleSystemData::OnLoadScript
PUBLIC	?OnClear@CParticleSystemData@@MAEXXZ		; CParticleSystemData::OnClear
PUBLIC	?OnIsData@CParticleSystemData@@MAE_NXZ		; CParticleSystemData::OnIsData
PUBLIC	?DestroySystem@CParticleSystemData@@SAXXZ	; CParticleSystemData::DestroySystem
PUBLIC	?New@CParticleSystemData@@SAPAV1@XZ		; CParticleSystemData::New
PUBLIC	?Delete@CParticleSystemData@@SAXPAV1@@Z		; CParticleSystemData::Delete
PUBLIC	??_GCParticleSystemData@@UAEPAXI@Z		; CParticleSystemData::`scalar deleting destructor'
PUBLIC	?RemoveMe@CBaseDecorator@NEffectUpdateDecorator@@IAEXXZ ; NEffectUpdateDecorator::CBaseDecorator::RemoveMe
PUBLIC	??_GCBaseDecorator@NEffectUpdateDecorator@@UAEPAXI@Z ; NEffectUpdateDecorator::CBaseDecorator::`scalar deleting destructor'
PUBLIC	??_G?$CPooledObject@VCHeaderDecorator@NEffectUpdateDecorator@@@@UAEPAXI@Z ; CPooledObject<NEffectUpdateDecorator::CHeaderDecorator>::`scalar deleting destructor'
PUBLIC	?__Excute@CHeaderDecorator@NEffectUpdateDecorator@@MAEXABVCDecoratorData@2@@Z ; NEffectUpdateDecorator::CHeaderDecorator::__Excute
PUBLIC	?__Clone@CHeaderDecorator@NEffectUpdateDecorator@@MAEPAVCBaseDecorator@2@PAVCParticleInstance@@0@Z ; NEffectUpdateDecorator::CHeaderDecorator::__Clone
PUBLIC	??_GCHeaderDecorator@NEffectUpdateDecorator@@UAEPAXI@Z ; NEffectUpdateDecorator::CHeaderDecorator::`scalar deleting destructor'
PUBLIC	??_G?$CPooledObject@VCNullDecorator@NEffectUpdateDecorator@@@@UAEPAXI@Z ; CPooledObject<NEffectUpdateDecorator::CNullDecorator>::`scalar deleting destructor'
PUBLIC	?__Excute@CNullDecorator@NEffectUpdateDecorator@@MAEXABVCDecoratorData@2@@Z ; NEffectUpdateDecorator::CNullDecorator::__Excute
PUBLIC	?__Clone@CNullDecorator@NEffectUpdateDecorator@@MAEPAVCBaseDecorator@2@PAVCParticleInstance@@0@Z ; NEffectUpdateDecorator::CNullDecorator::__Clone
PUBLIC	??_GCNullDecorator@NEffectUpdateDecorator@@UAEPAXI@Z ; NEffectUpdateDecorator::CNullDecorator::`scalar deleting destructor'
PUBLIC	??_G?$CPooledObject@VCTextureAnimationCWDecorator@NEffectUpdateDecorator@@@@UAEPAXI@Z ; CPooledObject<NEffectUpdateDecorator::CTextureAnimationCWDecorator>::`scalar deleting destructor'
PUBLIC	?__Clone@CTextureAnimationCWDecorator@NEffectUpdateDecorator@@MAEPAVCBaseDecorator@2@PAVCParticleInstance@@0@Z ; NEffectUpdateDecorator::CTextureAnimationCWDecorator::__Clone
PUBLIC	?__Excute@CTextureAnimationCWDecorator@NEffectUpdateDecorator@@MAEXABVCDecoratorData@2@@Z ; NEffectUpdateDecorator::CTextureAnimationCWDecorator::__Excute
PUBLIC	??_GCTextureAnimationCWDecorator@NEffectUpdateDecorator@@UAEPAXI@Z ; NEffectUpdateDecorator::CTextureAnimationCWDecorator::`scalar deleting destructor'
PUBLIC	??_G?$CPooledObject@VCTextureAnimationCCWDecorator@NEffectUpdateDecorator@@@@UAEPAXI@Z ; CPooledObject<NEffectUpdateDecorator::CTextureAnimationCCWDecorator>::`scalar deleting destructor'
PUBLIC	?__Clone@CTextureAnimationCCWDecorator@NEffectUpdateDecorator@@MAEPAVCBaseDecorator@2@PAVCParticleInstance@@0@Z ; NEffectUpdateDecorator::CTextureAnimationCCWDecorator::__Clone
PUBLIC	?__Excute@CTextureAnimationCCWDecorator@NEffectUpdateDecorator@@MAEXABVCDecoratorData@2@@Z ; NEffectUpdateDecorator::CTextureAnimationCCWDecorator::__Excute
PUBLIC	??_GCTextureAnimationCCWDecorator@NEffectUpdateDecorator@@UAEPAXI@Z ; NEffectUpdateDecorator::CTextureAnimationCCWDecorator::`scalar deleting destructor'
PUBLIC	??_G?$CPooledObject@VCTextureAnimationRandomDecorator@NEffectUpdateDecorator@@@@UAEPAXI@Z ; CPooledObject<NEffectUpdateDecorator::CTextureAnimationRandomDecorator>::`scalar deleting destructor'
PUBLIC	?__Clone@CTextureAnimationRandomDecorator@NEffectUpdateDecorator@@MAEPAVCBaseDecorator@2@PAVCParticleInstance@@0@Z ; NEffectUpdateDecorator::CTextureAnimationRandomDecorator::__Clone
PUBLIC	?__Excute@CTextureAnimationRandomDecorator@NEffectUpdateDecorator@@MAEXABVCDecoratorData@2@@Z ; NEffectUpdateDecorator::CTextureAnimationRandomDecorator::__Excute
PUBLIC	??_GCTextureAnimationRandomDecorator@NEffectUpdateDecorator@@UAEPAXI@Z ; NEffectUpdateDecorator::CTextureAnimationRandomDecorator::`scalar deleting destructor'
PUBLIC	??_G?$CPooledObject@VCAirResistanceDecorator@NEffectUpdateDecorator@@@@UAEPAXI@Z ; CPooledObject<NEffectUpdateDecorator::CAirResistanceDecorator>::`scalar deleting destructor'
PUBLIC	??_GCAirResistanceDecorator@NEffectUpdateDecorator@@UAEPAXI@Z ; NEffectUpdateDecorator::CAirResistanceDecorator::`scalar deleting destructor'
PUBLIC	??_G?$CPooledObject@VCGravityDecorator@NEffectUpdateDecorator@@@@UAEPAXI@Z ; CPooledObject<NEffectUpdateDecorator::CGravityDecorator>::`scalar deleting destructor'
PUBLIC	??_GCGravityDecorator@NEffectUpdateDecorator@@UAEPAXI@Z ; NEffectUpdateDecorator::CGravityDecorator::`scalar deleting destructor'
PUBLIC	??_G?$CPooledObject@VCRotationDecorator@NEffectUpdateDecorator@@@@UAEPAXI@Z ; CPooledObject<NEffectUpdateDecorator::CRotationDecorator>::`scalar deleting destructor'
PUBLIC	??_GCRotationDecorator@NEffectUpdateDecorator@@UAEPAXI@Z ; NEffectUpdateDecorator::CRotationDecorator::`scalar deleting destructor'
PUBLIC	??0?$CDynamicPool@VCParticleSystemData@@@@QAE@XZ ; CDynamicPool<CParticleSystemData>::CDynamicPool<CParticleSystemData>
PUBLIC	??1?$CDynamicPool@VCParticleSystemData@@@@UAE@XZ ; CDynamicPool<CParticleSystemData>::~CDynamicPool<CParticleSystemData>
PUBLIC	?Destroy@?$CDynamicPool@VCParticleSystemData@@@@QAEXXZ ; CDynamicPool<CParticleSystemData>::Destroy
PUBLIC	?Alloc@?$CDynamicPool@VCParticleSystemData@@@@QAEPAVCParticleSystemData@@XZ ; CDynamicPool<CParticleSystemData>::Alloc
PUBLIC	?Delete@?$CDynamicPool@VCParticleSystemData@@@@KAXPAVCParticleSystemData@@@Z ; CDynamicPool<CParticleSystemData>::Delete
PUBLIC	?deallocate@?$allocator@PAVCParticleSystemData@@@std@@QAEXQAPAVCParticleSystemData@@I@Z ; std::allocator<CParticleSystemData *>::deallocate
PUBLIC	?clear@?$vector@PAVCParticleSystemData@@V?$allocator@PAVCParticleSystemData@@@std@@@std@@QAEXXZ ; std::vector<CParticleSystemData *,std::allocator<CParticleSystemData *> >::clear
PUBLIC	?_Destroy@?$vector@PAVCParticleSystemData@@V?$allocator@PAVCParticleSystemData@@@std@@@std@@AAEXPAPAVCParticleSystemData@@0@Z ; std::vector<CParticleSystemData *,std::allocator<CParticleSystemData *> >::_Destroy
PUBLIC	?_Calculate_growth@?$vector@PAVCParticleSystemData@@V?$allocator@PAVCParticleSystemData@@@std@@@std@@ABEII@Z ; std::vector<CParticleSystemData *,std::allocator<CParticleSystemData *> >::_Calculate_growth
PUBLIC	?_Change_array@?$vector@PAVCParticleSystemData@@V?$allocator@PAVCParticleSystemData@@@std@@@std@@AAEXQAPAVCParticleSystemData@@II@Z ; std::vector<CParticleSystemData *,std::allocator<CParticleSystemData *> >::_Change_array
PUBLIC	?_Tidy@?$vector@PAVCParticleSystemData@@V?$allocator@PAVCParticleSystemData@@@std@@@std@@AAEXXZ ; std::vector<CParticleSystemData *,std::allocator<CParticleSystemData *> >::_Tidy
PUBLIC	?_Xlength@?$vector@PAVCParticleSystemData@@V?$allocator@PAVCParticleSystemData@@@std@@@std@@CAXXZ ; std::vector<CParticleSystemData *,std::allocator<CParticleSystemData *> >::_Xlength
PUBLIC	??_G?$CDynamicPool@VCParticleSystemData@@@@UAEPAXI@Z ; CDynamicPool<CParticleSystemData>::`scalar deleting destructor'
PUBLIC	??1?$CTimeEvent@M@@QAE@XZ			; CTimeEvent<float>::~CTimeEvent<float>
PUBLIC	??0?$_Tree@V?$_Tset_traits@MU?$less@M@std@@V?$allocator@M@2@$0A@@std@@@std@@QAE@ABU?$less@M@1@@Z ; std::_Tree<std::_Tset_traits<float,std::less<float>,std::allocator<float>,0> >::_Tree<std::_Tset_traits<float,std::less<float>,std::allocator<float>,0> >
PUBLIC	??1?$_Tree@V?$_Tset_traits@MU?$less@M@std@@V?$allocator@M@2@$0A@@std@@@std@@QAE@XZ ; std::_Tree<std::_Tset_traits<float,std::less<float>,std::allocator<float>,0> >::~_Tree<std::_Tset_traits<float,std::less<float>,std::allocator<float>,0> >
PUBLIC	?begin@?$_Tree@V?$_Tset_traits@MU?$less@M@std@@V?$allocator@M@2@$0A@@std@@@std@@QAE?AV?$_Tree_const_iterator@V?$_Tree_val@U?$_Tree_simple_types@M@std@@@std@@@2@XZ ; std::_Tree<std::_Tset_traits<float,std::less<float>,std::allocator<float>,0> >::begin
PUBLIC	?max_size@?$_Tree@V?$_Tset_traits@MU?$less@M@std@@V?$allocator@M@2@$0A@@std@@@std@@QBEIXZ ; std::_Tree<std::_Tset_traits<float,std::less<float>,std::allocator<float>,0> >::max_size
PUBLIC	?_Check_grow_by_1@?$_Tree@V?$_Tset_traits@MU?$less@M@std@@V?$allocator@M@2@$0A@@std@@@std@@IAEXXZ ; std::_Tree<std::_Tset_traits<float,std::less<float>,std::allocator<float>,0> >::_Check_grow_by_1
PUBLIC	?_Alloc_sentinel_and_proxy@?$_Tree@V?$_Tset_traits@MU?$less@M@std@@V?$allocator@M@2@$0A@@std@@@std@@IAEXXZ ; std::_Tree<std::_Tset_traits<float,std::less<float>,std::allocator<float>,0> >::_Alloc_sentinel_and_proxy
PUBLIC	?_Lrotate@?$_Tree_val@U?$_Tree_simple_types@M@std@@@std@@QAEXPAU?$_Tree_node@MPAX@2@@Z ; std::_Tree_val<std::_Tree_simple_types<float> >::_Lrotate
PUBLIC	?_Rrotate@?$_Tree_val@U?$_Tree_simple_types@M@std@@@std@@QAEXPAU?$_Tree_node@MPAX@2@@Z ; std::_Tree_val<std::_Tree_simple_types<float> >::_Rrotate
PUBLIC	?_Insert_node@?$_Tree_val@U?$_Tree_simple_types@M@std@@@std@@QAEPAU?$_Tree_node@MPAX@2@U?$_Tree_id@PAU?$_Tree_node@MPAX@std@@@2@QAU32@@Z ; std::_Tree_val<std::_Tree_simple_types<float> >::_Insert_node
PUBLIC	??0?$set@MU?$less@M@std@@V?$allocator@M@2@@std@@QAE@XZ ; std::set<float,std::less<float>,std::allocator<float> >::set<float,std::less<float>,std::allocator<float> >
PUBLIC	??1?$set@MU?$less@M@std@@V?$allocator@M@2@@std@@QAE@XZ ; std::set<float,std::less<float>,std::allocator<float> >::~set<float,std::less<float>,std::allocator<float> >
PUBLIC	??$insert@$0A@$0A@@?$_Tree@V?$_Tset_traits@MU?$less@M@std@@V?$allocator@M@2@$0A@@std@@@std@@QAE?AU?$pair@V?$_Tree_const_iterator@V?$_Tree_val@U?$_Tree_simple_types@M@std@@@std@@@std@@_N@1@ABM@Z ; std::_Tree<std::_Tset_traits<float,std::less<float>,std::allocator<float>,0> >::insert<0,0>
PUBLIC	??E?$_Tree_unchecked_const_iterator@V?$_Tree_val@U?$_Tree_simple_types@M@std@@@std@@U_Iterator_base0@2@@std@@QAEAAV01@XZ ; std::_Tree_unchecked_const_iterator<std::_Tree_val<std::_Tree_simple_types<float> >,std::_Iterator_base0>::operator++
PUBLIC	??1?$CTimeEvent@UDWORDCOLOR@@@@QAE@XZ		; CTimeEvent<DWORDCOLOR>::~CTimeEvent<DWORDCOLOR>
PUBLIC	??$?HDU?$char_traits@D@std@@V?$allocator@D@1@@std@@YA?AV?$basic_string@DU?$char_traits@D@std@@V?$allocator@D@2@@0@QBDABV10@@Z ; std::operator+<char,std::char_traits<char>,std::allocator<char> >
PUBLIC	??3?$CPooledObject@V?$CTimeEventDecorator@M@NEffectUpdateDecorator@@@@SAXPAX@Z ; CPooledObject<NEffectUpdateDecorator::CTimeEventDecorator<float> >::operator delete
PUBLIC	??_G?$CPooledObject@V?$CTimeEventDecorator@M@NEffectUpdateDecorator@@@@UAEPAXI@Z ; CPooledObject<NEffectUpdateDecorator::CTimeEventDecorator<float> >::`scalar deleting destructor'
PUBLIC	??0?$CTimeEventDecorator@M@NEffectUpdateDecorator@@QAE@ABV?$vector@V?$CTimeEvent@M@@V?$allocator@V?$CTimeEvent@M@@@std@@@std@@PAM@Z ; NEffectUpdateDecorator::CTimeEventDecorator<float>::CTimeEventDecorator<float>
PUBLIC	??0?$CTimeEventDecorator@M@NEffectUpdateDecorator@@IAE@AAV01@PAVCParticleInstance@@1@Z ; NEffectUpdateDecorator::CTimeEventDecorator<float>::CTimeEventDecorator<float>
PUBLIC	?__Clone@?$CTimeEventDecorator@M@NEffectUpdateDecorator@@MAEPAVCBaseDecorator@2@PAVCParticleInstance@@0@Z ; NEffectUpdateDecorator::CTimeEventDecorator<float>::__Clone
PUBLIC	?__Excute@?$CTimeEventDecorator@M@NEffectUpdateDecorator@@MAEXABVCDecoratorData@2@@Z ; NEffectUpdateDecorator::CTimeEventDecorator<float>::__Excute
PUBLIC	??0?$_Vector_const_iterator@V?$_Vector_val@U?$_Simple_types@V?$CTimeEvent@M@@@std@@@std@@@std@@QAE@PAV?$CTimeEvent@M@@PBU_Container_base0@1@@Z ; std::_Vector_const_iterator<std::_Vector_val<std::_Simple_types<CTimeEvent<float> > > >::_Vector_const_iterator<std::_Vector_val<std::_Simple_types<CTimeEvent<float> > > >
PUBLIC	??_G?$CTimeEventDecorator@M@NEffectUpdateDecorator@@UAEPAXI@Z ; NEffectUpdateDecorator::CTimeEventDecorator<float>::`scalar deleting destructor'
PUBLIC	??3?$CPooledObject@V?$CTimeEventDecorator@UDWORDCOLOR@@@NEffectUpdateDecorator@@@@SAXPAX@Z ; CPooledObject<NEffectUpdateDecorator::CTimeEventDecorator<DWORDCOLOR> >::operator delete
PUBLIC	??_G?$CPooledObject@V?$CTimeEventDecorator@UDWORDCOLOR@@@NEffectUpdateDecorator@@@@UAEPAXI@Z ; CPooledObject<NEffectUpdateDecorator::CTimeEventDecorator<DWORDCOLOR> >::`scalar deleting destructor'
PUBLIC	??0?$CTimeEventDecorator@UDWORDCOLOR@@@NEffectUpdateDecorator@@QAE@ABV?$vector@V?$CTimeEvent@UDWORDCOLOR@@@@V?$allocator@V?$CTimeEvent@UDWORDCOLOR@@@@@std@@@std@@PAUDWORDCOLOR@@@Z ; NEffectUpdateDecorator::CTimeEventDecorator<DWORDCOLOR>::CTimeEventDecorator<DWORDCOLOR>
PUBLIC	??0?$CTimeEventDecorator@UDWORDCOLOR@@@NEffectUpdateDecorator@@IAE@AAV01@PAVCParticleInstance@@1@Z ; NEffectUpdateDecorator::CTimeEventDecorator<DWORDCOLOR>::CTimeEventDecorator<DWORDCOLOR>
PUBLIC	?__Clone@?$CTimeEventDecorator@UDWORDCOLOR@@@NEffectUpdateDecorator@@MAEPAVCBaseDecorator@2@PAVCParticleInstance@@0@Z ; NEffectUpdateDecorator::CTimeEventDecorator<DWORDCOLOR>::__Clone
PUBLIC	?__Excute@?$CTimeEventDecorator@UDWORDCOLOR@@@NEffectUpdateDecorator@@MAEXABVCDecoratorData@2@@Z ; NEffectUpdateDecorator::CTimeEventDecorator<DWORDCOLOR>::__Excute
PUBLIC	??_G?$CTimeEventDecorator@UDWORDCOLOR@@@NEffectUpdateDecorator@@UAEPAXI@Z ; NEffectUpdateDecorator::CTimeEventDecorator<DWORDCOLOR>::`scalar deleting destructor'
PUBLIC	??0?$CDynamicPoolEx@V?$CTimeEventDecorator@UDWORDCOLOR@@@NEffectUpdateDecorator@@@@QAE@XZ ; CDynamicPoolEx<NEffectUpdateDecorator::CTimeEventDecorator<DWORDCOLOR> >::CDynamicPoolEx<NEffectUpdateDecorator::CTimeEventDecorator<DWORDCOLOR> >
PUBLIC	??1?$CDynamicPoolEx@V?$CTimeEventDecorator@UDWORDCOLOR@@@NEffectUpdateDecorator@@@@UAE@XZ ; CDynamicPoolEx<NEffectUpdateDecorator::CTimeEventDecorator<DWORDCOLOR> >::~CDynamicPoolEx<NEffectUpdateDecorator::CTimeEventDecorator<DWORDCOLOR> >
PUBLIC	?Destroy@?$CDynamicPoolEx@V?$CTimeEventDecorator@UDWORDCOLOR@@@NEffectUpdateDecorator@@@@QAEXXZ ; CDynamicPoolEx<NEffectUpdateDecorator::CTimeEventDecorator<DWORDCOLOR> >::Destroy
PUBLIC	?Alloc@?$CDynamicPoolEx@V?$CTimeEventDecorator@UDWORDCOLOR@@@NEffectUpdateDecorator@@@@QAEPAV?$CTimeEventDecorator@UDWORDCOLOR@@@NEffectUpdateDecorator@@XZ ; CDynamicPoolEx<NEffectUpdateDecorator::CTimeEventDecorator<DWORDCOLOR> >::Alloc
PUBLIC	?Delete@?$CDynamicPoolEx@V?$CTimeEventDecorator@UDWORDCOLOR@@@NEffectUpdateDecorator@@@@KAXPAV?$CTimeEventDecorator@UDWORDCOLOR@@@NEffectUpdateDecorator@@@Z ; CDynamicPoolEx<NEffectUpdateDecorator::CTimeEventDecorator<DWORDCOLOR> >::Delete
PUBLIC	?deallocate@?$allocator@PAV?$CTimeEventDecorator@UDWORDCOLOR@@@NEffectUpdateDecorator@@@std@@QAEXQAPAV?$CTimeEventDecorator@UDWORDCOLOR@@@NEffectUpdateDecorator@@I@Z ; std::allocator<NEffectUpdateDecorator::CTimeEventDecorator<DWORDCOLOR> *>::deallocate
PUBLIC	?clear@?$vector@PAV?$CTimeEventDecorator@UDWORDCOLOR@@@NEffectUpdateDecorator@@V?$allocator@PAV?$CTimeEventDecorator@UDWORDCOLOR@@@NEffectUpdateDecorator@@@std@@@std@@QAEXXZ ; std::vector<NEffectUpdateDecorator::CTimeEventDecorator<DWORDCOLOR> *,std::allocator<NEffectUpdateDecorator::CTimeEventDecorator<DWORDCOLOR> *> >::clear
PUBLIC	?_Destroy@?$vector@PAV?$CTimeEventDecorator@UDWORDCOLOR@@@NEffectUpdateDecorator@@V?$allocator@PAV?$CTimeEventDecorator@UDWORDCOLOR@@@NEffectUpdateDecorator@@@std@@@std@@AAEXPAPAV?$CTimeEventDecorator@UDWORDCOLOR@@@NEffectUpdateDecorator@@0@Z ; std::vector<NEffectUpdateDecorator::CTimeEventDecorator<DWORDCOLOR> *,std::allocator<NEffectUpdateDecorator::CTimeEventDecorator<DWORDCOLOR> *> >::_Destroy
PUBLIC	?_Calculate_growth@?$vector@PAV?$CTimeEventDecorator@UDWORDCOLOR@@@NEffectUpdateDecorator@@V?$allocator@PAV?$CTimeEventDecorator@UDWORDCOLOR@@@NEffectUpdateDecorator@@@std@@@std@@ABEII@Z ; std::vector<NEffectUpdateDecorator::CTimeEventDecorator<DWORDCOLOR> *,std::allocator<NEffectUpdateDecorator::CTimeEventDecorator<DWORDCOLOR> *> >::_Calculate_growth
PUBLIC	?_Change_array@?$vector@PAV?$CTimeEventDecorator@UDWORDCOLOR@@@NEffectUpdateDecorator@@V?$allocator@PAV?$CTimeEventDecorator@UDWORDCOLOR@@@NEffectUpdateDecorator@@@std@@@std@@AAEXQAPAV?$CTimeEventDecorator@UDWORDCOLOR@@@NEffectUpdateDecorator@@II@Z ; std::vector<NEffectUpdateDecorator::CTimeEventDecorator<DWORDCOLOR> *,std::allocator<NEffectUpdateDecorator::CTimeEventDecorator<DWORDCOLOR> *> >::_Change_array
PUBLIC	?_Tidy@?$vector@PAV?$CTimeEventDecorator@UDWORDCOLOR@@@NEffectUpdateDecorator@@V?$allocator@PAV?$CTimeEventDecorator@UDWORDCOLOR@@@NEffectUpdateDecorator@@@std@@@std@@AAEXXZ ; std::vector<NEffectUpdateDecorator::CTimeEventDecorator<DWORDCOLOR> *,std::allocator<NEffectUpdateDecorator::CTimeEventDecorator<DWORDCOLOR> *> >::_Tidy
PUBLIC	?_Xlength@?$vector@PAV?$CTimeEventDecorator@UDWORDCOLOR@@@NEffectUpdateDecorator@@V?$allocator@PAV?$CTimeEventDecorator@UDWORDCOLOR@@@NEffectUpdateDecorator@@@std@@@std@@CAXXZ ; std::vector<NEffectUpdateDecorator::CTimeEventDecorator<DWORDCOLOR> *,std::allocator<NEffectUpdateDecorator::CTimeEventDecorator<DWORDCOLOR> *> >::_Xlength
PUBLIC	??_G?$CDynamicPoolEx@V?$CTimeEventDecorator@UDWORDCOLOR@@@NEffectUpdateDecorator@@@@UAEPAXI@Z ; CDynamicPoolEx<NEffectUpdateDecorator::CTimeEventDecorator<DWORDCOLOR> >::`scalar deleting destructor'
PUBLIC	??0?$CDynamicPoolEx@V?$CTimeEventDecorator@M@NEffectUpdateDecorator@@@@QAE@XZ ; CDynamicPoolEx<NEffectUpdateDecorator::CTimeEventDecorator<float> >::CDynamicPoolEx<NEffectUpdateDecorator::CTimeEventDecorator<float> >
PUBLIC	??1?$CDynamicPoolEx@V?$CTimeEventDecorator@M@NEffectUpdateDecorator@@@@UAE@XZ ; CDynamicPoolEx<NEffectUpdateDecorator::CTimeEventDecorator<float> >::~CDynamicPoolEx<NEffectUpdateDecorator::CTimeEventDecorator<float> >
PUBLIC	?Destroy@?$CDynamicPoolEx@V?$CTimeEventDecorator@M@NEffectUpdateDecorator@@@@QAEXXZ ; CDynamicPoolEx<NEffectUpdateDecorator::CTimeEventDecorator<float> >::Destroy
PUBLIC	?Alloc@?$CDynamicPoolEx@V?$CTimeEventDecorator@M@NEffectUpdateDecorator@@@@QAEPAV?$CTimeEventDecorator@M@NEffectUpdateDecorator@@XZ ; CDynamicPoolEx<NEffectUpdateDecorator::CTimeEventDecorator<float> >::Alloc
PUBLIC	?Delete@?$CDynamicPoolEx@V?$CTimeEventDecorator@M@NEffectUpdateDecorator@@@@KAXPAV?$CTimeEventDecorator@M@NEffectUpdateDecorator@@@Z ; CDynamicPoolEx<NEffectUpdateDecorator::CTimeEventDecorator<float> >::Delete
PUBLIC	?deallocate@?$allocator@PAV?$CTimeEventDecorator@M@NEffectUpdateDecorator@@@std@@QAEXQAPAV?$CTimeEventDecorator@M@NEffectUpdateDecorator@@I@Z ; std::allocator<NEffectUpdateDecorator::CTimeEventDecorator<float> *>::deallocate
PUBLIC	?clear@?$vector@PAV?$CTimeEventDecorator@M@NEffectUpdateDecorator@@V?$allocator@PAV?$CTimeEventDecorator@M@NEffectUpdateDecorator@@@std@@@std@@QAEXXZ ; std::vector<NEffectUpdateDecorator::CTimeEventDecorator<float> *,std::allocator<NEffectUpdateDecorator::CTimeEventDecorator<float> *> >::clear
PUBLIC	?_Destroy@?$vector@PAV?$CTimeEventDecorator@M@NEffectUpdateDecorator@@V?$allocator@PAV?$CTimeEventDecorator@M@NEffectUpdateDecorator@@@std@@@std@@AAEXPAPAV?$CTimeEventDecorator@M@NEffectUpdateDecorator@@0@Z ; std::vector<NEffectUpdateDecorator::CTimeEventDecorator<float> *,std::allocator<NEffectUpdateDecorator::CTimeEventDecorator<float> *> >::_Destroy
PUBLIC	?_Calculate_growth@?$vector@PAV?$CTimeEventDecorator@M@NEffectUpdateDecorator@@V?$allocator@PAV?$CTimeEventDecorator@M@NEffectUpdateDecorator@@@std@@@std@@ABEII@Z ; std::vector<NEffectUpdateDecorator::CTimeEventDecorator<float> *,std::allocator<NEffectUpdateDecorator::CTimeEventDecorator<float> *> >::_Calculate_growth
PUBLIC	?_Change_array@?$vector@PAV?$CTimeEventDecorator@M@NEffectUpdateDecorator@@V?$allocator@PAV?$CTimeEventDecorator@M@NEffectUpdateDecorator@@@std@@@std@@AAEXQAPAV?$CTimeEventDecorator@M@NEffectUpdateDecorator@@II@Z ; std::vector<NEffectUpdateDecorator::CTimeEventDecorator<float> *,std::allocator<NEffectUpdateDecorator::CTimeEventDecorator<float> *> >::_Change_array
PUBLIC	?_Tidy@?$vector@PAV?$CTimeEventDecorator@M@NEffectUpdateDecorator@@V?$allocator@PAV?$CTimeEventDecorator@M@NEffectUpdateDecorator@@@std@@@std@@AAEXXZ ; std::vector<NEffectUpdateDecorator::CTimeEventDecorator<float> *,std::allocator<NEffectUpdateDecorator::CTimeEventDecorator<float> *> >::_Tidy
PUBLIC	?_Xlength@?$vector@PAV?$CTimeEventDecorator@M@NEffectUpdateDecorator@@V?$allocator@PAV?$CTimeEventDecorator@M@NEffectUpdateDecorator@@@std@@@std@@CAXXZ ; std::vector<NEffectUpdateDecorator::CTimeEventDecorator<float> *,std::allocator<NEffectUpdateDecorator::CTimeEventDecorator<float> *> >::_Xlength
PUBLIC	??_G?$CDynamicPoolEx@V?$CTimeEventDecorator@M@NEffectUpdateDecorator@@@@UAEPAXI@Z ; CDynamicPoolEx<NEffectUpdateDecorator::CTimeEventDecorator<float> >::`scalar deleting destructor'
PUBLIC	??$for_each@V?$_Vector_iterator@V?$_Vector_val@U?$_Simple_types@PAVCParticleSystemData@@@std@@@std@@@std@@P6AXPAVCParticleSystemData@@@Z@std@@YAP6AXPAVCParticleSystemData@@@ZV?$_Vector_iterator@V?$_Vector_val@U?$_Simple_types@PAVCParticleSystemData@@@std@@@std@@@0@1P6AX0@Z@Z ; std::for_each<std::_Vector_iterator<std::_Vector_val<std::_Simple_types<CParticleSystemData *> > >,void (__cdecl*)(CParticleSystemData *)>
PUBLIC	??0?$CDynamicPoolEx@VCRotationDecorator@NEffectUpdateDecorator@@@@QAE@XZ ; CDynamicPoolEx<NEffectUpdateDecorator::CRotationDecorator>::CDynamicPoolEx<NEffectUpdateDecorator::CRotationDecorator>
PUBLIC	??1?$CDynamicPoolEx@VCRotationDecorator@NEffectUpdateDecorator@@@@UAE@XZ ; CDynamicPoolEx<NEffectUpdateDecorator::CRotationDecorator>::~CDynamicPoolEx<NEffectUpdateDecorator::CRotationDecorator>
PUBLIC	?Destroy@?$CDynamicPoolEx@VCRotationDecorator@NEffectUpdateDecorator@@@@QAEXXZ ; CDynamicPoolEx<NEffectUpdateDecorator::CRotationDecorator>::Destroy
PUBLIC	?Alloc@?$CDynamicPoolEx@VCRotationDecorator@NEffectUpdateDecorator@@@@QAEPAVCRotationDecorator@NEffectUpdateDecorator@@XZ ; CDynamicPoolEx<NEffectUpdateDecorator::CRotationDecorator>::Alloc
PUBLIC	?Delete@?$CDynamicPoolEx@VCRotationDecorator@NEffectUpdateDecorator@@@@KAXPAVCRotationDecorator@NEffectUpdateDecorator@@@Z ; CDynamicPoolEx<NEffectUpdateDecorator::CRotationDecorator>::Delete
PUBLIC	?deallocate@?$allocator@PAVCRotationDecorator@NEffectUpdateDecorator@@@std@@QAEXQAPAVCRotationDecorator@NEffectUpdateDecorator@@I@Z ; std::allocator<NEffectUpdateDecorator::CRotationDecorator *>::deallocate
PUBLIC	?clear@?$vector@PAVCRotationDecorator@NEffectUpdateDecorator@@V?$allocator@PAVCRotationDecorator@NEffectUpdateDecorator@@@std@@@std@@QAEXXZ ; std::vector<NEffectUpdateDecorator::CRotationDecorator *,std::allocator<NEffectUpdateDecorator::CRotationDecorator *> >::clear
PUBLIC	?_Destroy@?$vector@PAVCRotationDecorator@NEffectUpdateDecorator@@V?$allocator@PAVCRotationDecorator@NEffectUpdateDecorator@@@std@@@std@@AAEXPAPAVCRotationDecorator@NEffectUpdateDecorator@@0@Z ; std::vector<NEffectUpdateDecorator::CRotationDecorator *,std::allocator<NEffectUpdateDecorator::CRotationDecorator *> >::_Destroy
PUBLIC	?_Calculate_growth@?$vector@PAVCRotationDecorator@NEffectUpdateDecorator@@V?$allocator@PAVCRotationDecorator@NEffectUpdateDecorator@@@std@@@std@@ABEII@Z ; std::vector<NEffectUpdateDecorator::CRotationDecorator *,std::allocator<NEffectUpdateDecorator::CRotationDecorator *> >::_Calculate_growth
PUBLIC	?_Change_array@?$vector@PAVCRotationDecorator@NEffectUpdateDecorator@@V?$allocator@PAVCRotationDecorator@NEffectUpdateDecorator@@@std@@@std@@AAEXQAPAVCRotationDecorator@NEffectUpdateDecorator@@II@Z ; std::vector<NEffectUpdateDecorator::CRotationDecorator *,std::allocator<NEffectUpdateDecorator::CRotationDecorator *> >::_Change_array
PUBLIC	?_Tidy@?$vector@PAVCRotationDecorator@NEffectUpdateDecorator@@V?$allocator@PAVCRotationDecorator@NEffectUpdateDecorator@@@std@@@std@@AAEXXZ ; std::vector<NEffectUpdateDecorator::CRotationDecorator *,std::allocator<NEffectUpdateDecorator::CRotationDecorator *> >::_Tidy
PUBLIC	?_Xlength@?$vector@PAVCRotationDecorator@NEffectUpdateDecorator@@V?$allocator@PAVCRotationDecorator@NEffectUpdateDecorator@@@std@@@std@@CAXXZ ; std::vector<NEffectUpdateDecorator::CRotationDecorator *,std::allocator<NEffectUpdateDecorator::CRotationDecorator *> >::_Xlength
PUBLIC	??_G?$CDynamicPoolEx@VCRotationDecorator@NEffectUpdateDecorator@@@@UAEPAXI@Z ; CDynamicPoolEx<NEffectUpdateDecorator::CRotationDecorator>::`scalar deleting destructor'
PUBLIC	??0?$CDynamicPoolEx@VCGravityDecorator@NEffectUpdateDecorator@@@@QAE@XZ ; CDynamicPoolEx<NEffectUpdateDecorator::CGravityDecorator>::CDynamicPoolEx<NEffectUpdateDecorator::CGravityDecorator>
PUBLIC	??1?$CDynamicPoolEx@VCGravityDecorator@NEffectUpdateDecorator@@@@UAE@XZ ; CDynamicPoolEx<NEffectUpdateDecorator::CGravityDecorator>::~CDynamicPoolEx<NEffectUpdateDecorator::CGravityDecorator>
PUBLIC	?Destroy@?$CDynamicPoolEx@VCGravityDecorator@NEffectUpdateDecorator@@@@QAEXXZ ; CDynamicPoolEx<NEffectUpdateDecorator::CGravityDecorator>::Destroy
PUBLIC	?Alloc@?$CDynamicPoolEx@VCGravityDecorator@NEffectUpdateDecorator@@@@QAEPAVCGravityDecorator@NEffectUpdateDecorator@@XZ ; CDynamicPoolEx<NEffectUpdateDecorator::CGravityDecorator>::Alloc
PUBLIC	?Delete@?$CDynamicPoolEx@VCGravityDecorator@NEffectUpdateDecorator@@@@KAXPAVCGravityDecorator@NEffectUpdateDecorator@@@Z ; CDynamicPoolEx<NEffectUpdateDecorator::CGravityDecorator>::Delete
PUBLIC	?deallocate@?$allocator@PAVCGravityDecorator@NEffectUpdateDecorator@@@std@@QAEXQAPAVCGravityDecorator@NEffectUpdateDecorator@@I@Z ; std::allocator<NEffectUpdateDecorator::CGravityDecorator *>::deallocate
PUBLIC	?clear@?$vector@PAVCGravityDecorator@NEffectUpdateDecorator@@V?$allocator@PAVCGravityDecorator@NEffectUpdateDecorator@@@std@@@std@@QAEXXZ ; std::vector<NEffectUpdateDecorator::CGravityDecorator *,std::allocator<NEffectUpdateDecorator::CGravityDecorator *> >::clear
PUBLIC	?_Destroy@?$vector@PAVCGravityDecorator@NEffectUpdateDecorator@@V?$allocator@PAVCGravityDecorator@NEffectUpdateDecorator@@@std@@@std@@AAEXPAPAVCGravityDecorator@NEffectUpdateDecorator@@0@Z ; std::vector<NEffectUpdateDecorator::CGravityDecorator *,std::allocator<NEffectUpdateDecorator::CGravityDecorator *> >::_Destroy
PUBLIC	?_Calculate_growth@?$vector@PAVCGravityDecorator@NEffectUpdateDecorator@@V?$allocator@PAVCGravityDecorator@NEffectUpdateDecorator@@@std@@@std@@ABEII@Z ; std::vector<NEffectUpdateDecorator::CGravityDecorator *,std::allocator<NEffectUpdateDecorator::CGravityDecorator *> >::_Calculate_growth
PUBLIC	?_Change_array@?$vector@PAVCGravityDecorator@NEffectUpdateDecorator@@V?$allocator@PAVCGravityDecorator@NEffectUpdateDecorator@@@std@@@std@@AAEXQAPAVCGravityDecorator@NEffectUpdateDecorator@@II@Z ; std::vector<NEffectUpdateDecorator::CGravityDecorator *,std::allocator<NEffectUpdateDecorator::CGravityDecorator *> >::_Change_array
PUBLIC	?_Tidy@?$vector@PAVCGravityDecorator@NEffectUpdateDecorator@@V?$allocator@PAVCGravityDecorator@NEffectUpdateDecorator@@@std@@@std@@AAEXXZ ; std::vector<NEffectUpdateDecorator::CGravityDecorator *,std::allocator<NEffectUpdateDecorator::CGravityDecorator *> >::_Tidy
PUBLIC	?_Xlength@?$vector@PAVCGravityDecorator@NEffectUpdateDecorator@@V?$allocator@PAVCGravityDecorator@NEffectUpdateDecorator@@@std@@@std@@CAXXZ ; std::vector<NEffectUpdateDecorator::CGravityDecorator *,std::allocator<NEffectUpdateDecorator::CGravityDecorator *> >::_Xlength
PUBLIC	??_G?$CDynamicPoolEx@VCGravityDecorator@NEffectUpdateDecorator@@@@UAEPAXI@Z ; CDynamicPoolEx<NEffectUpdateDecorator::CGravityDecorator>::`scalar deleting destructor'
PUBLIC	??0?$CDynamicPoolEx@VCAirResistanceDecorator@NEffectUpdateDecorator@@@@QAE@XZ ; CDynamicPoolEx<NEffectUpdateDecorator::CAirResistanceDecorator>::CDynamicPoolEx<NEffectUpdateDecorator::CAirResistanceDecorator>
PUBLIC	??1?$CDynamicPoolEx@VCAirResistanceDecorator@NEffectUpdateDecorator@@@@UAE@XZ ; CDynamicPoolEx<NEffectUpdateDecorator::CAirResistanceDecorator>::~CDynamicPoolEx<NEffectUpdateDecorator::CAirResistanceDecorator>
PUBLIC	?Destroy@?$CDynamicPoolEx@VCAirResistanceDecorator@NEffectUpdateDecorator@@@@QAEXXZ ; CDynamicPoolEx<NEffectUpdateDecorator::CAirResistanceDecorator>::Destroy
PUBLIC	?Alloc@?$CDynamicPoolEx@VCAirResistanceDecorator@NEffectUpdateDecorator@@@@QAEPAVCAirResistanceDecorator@NEffectUpdateDecorator@@XZ ; CDynamicPoolEx<NEffectUpdateDecorator::CAirResistanceDecorator>::Alloc
PUBLIC	?Delete@?$CDynamicPoolEx@VCAirResistanceDecorator@NEffectUpdateDecorator@@@@KAXPAVCAirResistanceDecorator@NEffectUpdateDecorator@@@Z ; CDynamicPoolEx<NEffectUpdateDecorator::CAirResistanceDecorator>::Delete
PUBLIC	?deallocate@?$allocator@PAVCAirResistanceDecorator@NEffectUpdateDecorator@@@std@@QAEXQAPAVCAirResistanceDecorator@NEffectUpdateDecorator@@I@Z ; std::allocator<NEffectUpdateDecorator::CAirResistanceDecorator *>::deallocate
PUBLIC	?clear@?$vector@PAVCAirResistanceDecorator@NEffectUpdateDecorator@@V?$allocator@PAVCAirResistanceDecorator@NEffectUpdateDecorator@@@std@@@std@@QAEXXZ ; std::vector<NEffectUpdateDecorator::CAirResistanceDecorator *,std::allocator<NEffectUpdateDecorator::CAirResistanceDecorator *> >::clear
PUBLIC	?_Destroy@?$vector@PAVCAirResistanceDecorator@NEffectUpdateDecorator@@V?$allocator@PAVCAirResistanceDecorator@NEffectUpdateDecorator@@@std@@@std@@AAEXPAPAVCAirResistanceDecorator@NEffectUpdateDecorator@@0@Z ; std::vector<NEffectUpdateDecorator::CAirResistanceDecorator *,std::allocator<NEffectUpdateDecorator::CAirResistanceDecorator *> >::_Destroy
PUBLIC	?_Calculate_growth@?$vector@PAVCAirResistanceDecorator@NEffectUpdateDecorator@@V?$allocator@PAVCAirResistanceDecorator@NEffectUpdateDecorator@@@std@@@std@@ABEII@Z ; std::vector<NEffectUpdateDecorator::CAirResistanceDecorator *,std::allocator<NEffectUpdateDecorator::CAirResistanceDecorator *> >::_Calculate_growth
PUBLIC	?_Change_array@?$vector@PAVCAirResistanceDecorator@NEffectUpdateDecorator@@V?$allocator@PAVCAirResistanceDecorator@NEffectUpdateDecorator@@@std@@@std@@AAEXQAPAVCAirResistanceDecorator@NEffectUpdateDecorator@@II@Z ; std::vector<NEffectUpdateDecorator::CAirResistanceDecorator *,std::allocator<NEffectUpdateDecorator::CAirResistanceDecorator *> >::_Change_array
PUBLIC	?_Tidy@?$vector@PAVCAirResistanceDecorator@NEffectUpdateDecorator@@V?$allocator@PAVCAirResistanceDecorator@NEffectUpdateDecorator@@@std@@@std@@AAEXXZ ; std::vector<NEffectUpdateDecorator::CAirResistanceDecorator *,std::allocator<NEffectUpdateDecorator::CAirResistanceDecorator *> >::_Tidy
PUBLIC	?_Xlength@?$vector@PAVCAirResistanceDecorator@NEffectUpdateDecorator@@V?$allocator@PAVCAirResistanceDecorator@NEffectUpdateDecorator@@@std@@@std@@CAXXZ ; std::vector<NEffectUpdateDecorator::CAirResistanceDecorator *,std::allocator<NEffectUpdateDecorator::CAirResistanceDecorator *> >::_Xlength
PUBLIC	??_G?$CDynamicPoolEx@VCAirResistanceDecorator@NEffectUpdateDecorator@@@@UAEPAXI@Z ; CDynamicPoolEx<NEffectUpdateDecorator::CAirResistanceDecorator>::`scalar deleting destructor'
PUBLIC	??0?$CDynamicPoolEx@VCTextureAnimationRandomDecorator@NEffectUpdateDecorator@@@@QAE@XZ ; CDynamicPoolEx<NEffectUpdateDecorator::CTextureAnimationRandomDecorator>::CDynamicPoolEx<NEffectUpdateDecorator::CTextureAnimationRandomDecorator>
PUBLIC	??1?$CDynamicPoolEx@VCTextureAnimationRandomDecorator@NEffectUpdateDecorator@@@@UAE@XZ ; CDynamicPoolEx<NEffectUpdateDecorator::CTextureAnimationRandomDecorator>::~CDynamicPoolEx<NEffectUpdateDecorator::CTextureAnimationRandomDecorator>
PUBLIC	?Destroy@?$CDynamicPoolEx@VCTextureAnimationRandomDecorator@NEffectUpdateDecorator@@@@QAEXXZ ; CDynamicPoolEx<NEffectUpdateDecorator::CTextureAnimationRandomDecorator>::Destroy
PUBLIC	?Alloc@?$CDynamicPoolEx@VCTextureAnimationRandomDecorator@NEffectUpdateDecorator@@@@QAEPAVCTextureAnimationRandomDecorator@NEffectUpdateDecorator@@XZ ; CDynamicPoolEx<NEffectUpdateDecorator::CTextureAnimationRandomDecorator>::Alloc
PUBLIC	?Delete@?$CDynamicPoolEx@VCTextureAnimationRandomDecorator@NEffectUpdateDecorator@@@@KAXPAVCTextureAnimationRandomDecorator@NEffectUpdateDecorator@@@Z ; CDynamicPoolEx<NEffectUpdateDecorator::CTextureAnimationRandomDecorator>::Delete
PUBLIC	?deallocate@?$allocator@PAVCTextureAnimationRandomDecorator@NEffectUpdateDecorator@@@std@@QAEXQAPAVCTextureAnimationRandomDecorator@NEffectUpdateDecorator@@I@Z ; std::allocator<NEffectUpdateDecorator::CTextureAnimationRandomDecorator *>::deallocate
PUBLIC	?clear@?$vector@PAVCTextureAnimationRandomDecorator@NEffectUpdateDecorator@@V?$allocator@PAVCTextureAnimationRandomDecorator@NEffectUpdateDecorator@@@std@@@std@@QAEXXZ ; std::vector<NEffectUpdateDecorator::CTextureAnimationRandomDecorator *,std::allocator<NEffectUpdateDecorator::CTextureAnimationRandomDecorator *> >::clear
PUBLIC	?_Destroy@?$vector@PAVCTextureAnimationRandomDecorator@NEffectUpdateDecorator@@V?$allocator@PAVCTextureAnimationRandomDecorator@NEffectUpdateDecorator@@@std@@@std@@AAEXPAPAVCTextureAnimationRandomDecorator@NEffectUpdateDecorator@@0@Z ; std::vector<NEffectUpdateDecorator::CTextureAnimationRandomDecorator *,std::allocator<NEffectUpdateDecorator::CTextureAnimationRandomDecorator *> >::_Destroy
PUBLIC	?_Calculate_growth@?$vector@PAVCTextureAnimationRandomDecorator@NEffectUpdateDecorator@@V?$allocator@PAVCTextureAnimationRandomDecorator@NEffectUpdateDecorator@@@std@@@std@@ABEII@Z ; std::vector<NEffectUpdateDecorator::CTextureAnimationRandomDecorator *,std::allocator<NEffectUpdateDecorator::CTextureAnimationRandomDecorator *> >::_Calculate_growth
PUBLIC	?_Change_array@?$vector@PAVCTextureAnimationRandomDecorator@NEffectUpdateDecorator@@V?$allocator@PAVCTextureAnimationRandomDecorator@NEffectUpdateDecorator@@@std@@@std@@AAEXQAPAVCTextureAnimationRandomDecorator@NEffectUpdateDecorator@@II@Z ; std::vector<NEffectUpdateDecorator::CTextureAnimationRandomDecorator *,std::allocator<NEffectUpdateDecorator::CTextureAnimationRandomDecorator *> >::_Change_array
PUBLIC	?_Tidy@?$vector@PAVCTextureAnimationRandomDecorator@NEffectUpdateDecorator@@V?$allocator@PAVCTextureAnimationRandomDecorator@NEffectUpdateDecorator@@@std@@@std@@AAEXXZ ; std::vector<NEffectUpdateDecorator::CTextureAnimationRandomDecorator *,std::allocator<NEffectUpdateDecorator::CTextureAnimationRandomDecorator *> >::_Tidy
PUBLIC	?_Xlength@?$vector@PAVCTextureAnimationRandomDecorator@NEffectUpdateDecorator@@V?$allocator@PAVCTextureAnimationRandomDecorator@NEffectUpdateDecorator@@@std@@@std@@CAXXZ ; std::vector<NEffectUpdateDecorator::CTextureAnimationRandomDecorator *,std::allocator<NEffectUpdateDecorator::CTextureAnimationRandomDecorator *> >::_Xlength
PUBLIC	??_G?$CDynamicPoolEx@VCTextureAnimationRandomDecorator@NEffectUpdateDecorator@@@@UAEPAXI@Z ; CDynamicPoolEx<NEffectUpdateDecorator::CTextureAnimationRandomDecorator>::`scalar deleting destructor'
PUBLIC	??0?$CDynamicPoolEx@VCTextureAnimationCCWDecorator@NEffectUpdateDecorator@@@@QAE@XZ ; CDynamicPoolEx<NEffectUpdateDecorator::CTextureAnimationCCWDecorator>::CDynamicPoolEx<NEffectUpdateDecorator::CTextureAnimationCCWDecorator>
PUBLIC	??1?$CDynamicPoolEx@VCTextureAnimationCCWDecorator@NEffectUpdateDecorator@@@@UAE@XZ ; CDynamicPoolEx<NEffectUpdateDecorator::CTextureAnimationCCWDecorator>::~CDynamicPoolEx<NEffectUpdateDecorator::CTextureAnimationCCWDecorator>
PUBLIC	?Destroy@?$CDynamicPoolEx@VCTextureAnimationCCWDecorator@NEffectUpdateDecorator@@@@QAEXXZ ; CDynamicPoolEx<NEffectUpdateDecorator::CTextureAnimationCCWDecorator>::Destroy
PUBLIC	?Alloc@?$CDynamicPoolEx@VCTextureAnimationCCWDecorator@NEffectUpdateDecorator@@@@QAEPAVCTextureAnimationCCWDecorator@NEffectUpdateDecorator@@XZ ; CDynamicPoolEx<NEffectUpdateDecorator::CTextureAnimationCCWDecorator>::Alloc
PUBLIC	?Delete@?$CDynamicPoolEx@VCTextureAnimationCCWDecorator@NEffectUpdateDecorator@@@@KAXPAVCTextureAnimationCCWDecorator@NEffectUpdateDecorator@@@Z ; CDynamicPoolEx<NEffectUpdateDecorator::CTextureAnimationCCWDecorator>::Delete
PUBLIC	?deallocate@?$allocator@PAVCTextureAnimationCCWDecorator@NEffectUpdateDecorator@@@std@@QAEXQAPAVCTextureAnimationCCWDecorator@NEffectUpdateDecorator@@I@Z ; std::allocator<NEffectUpdateDecorator::CTextureAnimationCCWDecorator *>::deallocate
PUBLIC	?clear@?$vector@PAVCTextureAnimationCCWDecorator@NEffectUpdateDecorator@@V?$allocator@PAVCTextureAnimationCCWDecorator@NEffectUpdateDecorator@@@std@@@std@@QAEXXZ ; std::vector<NEffectUpdateDecorator::CTextureAnimationCCWDecorator *,std::allocator<NEffectUpdateDecorator::CTextureAnimationCCWDecorator *> >::clear
PUBLIC	?_Destroy@?$vector@PAVCTextureAnimationCCWDecorator@NEffectUpdateDecorator@@V?$allocator@PAVCTextureAnimationCCWDecorator@NEffectUpdateDecorator@@@std@@@std@@AAEXPAPAVCTextureAnimationCCWDecorator@NEffectUpdateDecorator@@0@Z ; std::vector<NEffectUpdateDecorator::CTextureAnimationCCWDecorator *,std::allocator<NEffectUpdateDecorator::CTextureAnimationCCWDecorator *> >::_Destroy
PUBLIC	?_Calculate_growth@?$vector@PAVCTextureAnimationCCWDecorator@NEffectUpdateDecorator@@V?$allocator@PAVCTextureAnimationCCWDecorator@NEffectUpdateDecorator@@@std@@@std@@ABEII@Z ; std::vector<NEffectUpdateDecorator::CTextureAnimationCCWDecorator *,std::allocator<NEffectUpdateDecorator::CTextureAnimationCCWDecorator *> >::_Calculate_growth
PUBLIC	?_Change_array@?$vector@PAVCTextureAnimationCCWDecorator@NEffectUpdateDecorator@@V?$allocator@PAVCTextureAnimationCCWDecorator@NEffectUpdateDecorator@@@std@@@std@@AAEXQAPAVCTextureAnimationCCWDecorator@NEffectUpdateDecorator@@II@Z ; std::vector<NEffectUpdateDecorator::CTextureAnimationCCWDecorator *,std::allocator<NEffectUpdateDecorator::CTextureAnimationCCWDecorator *> >::_Change_array
PUBLIC	?_Tidy@?$vector@PAVCTextureAnimationCCWDecorator@NEffectUpdateDecorator@@V?$allocator@PAVCTextureAnimationCCWDecorator@NEffectUpdateDecorator@@@std@@@std@@AAEXXZ ; std::vector<NEffectUpdateDecorator::CTextureAnimationCCWDecorator *,std::allocator<NEffectUpdateDecorator::CTextureAnimationCCWDecorator *> >::_Tidy
PUBLIC	?_Xlength@?$vector@PAVCTextureAnimationCCWDecorator@NEffectUpdateDecorator@@V?$allocator@PAVCTextureAnimationCCWDecorator@NEffectUpdateDecorator@@@std@@@std@@CAXXZ ; std::vector<NEffectUpdateDecorator::CTextureAnimationCCWDecorator *,std::allocator<NEffectUpdateDecorator::CTextureAnimationCCWDecorator *> >::_Xlength
PUBLIC	??_G?$CDynamicPoolEx@VCTextureAnimationCCWDecorator@NEffectUpdateDecorator@@@@UAEPAXI@Z ; CDynamicPoolEx<NEffectUpdateDecorator::CTextureAnimationCCWDecorator>::`scalar deleting destructor'
PUBLIC	??0?$CDynamicPoolEx@VCTextureAnimationCWDecorator@NEffectUpdateDecorator@@@@QAE@XZ ; CDynamicPoolEx<NEffectUpdateDecorator::CTextureAnimationCWDecorator>::CDynamicPoolEx<NEffectUpdateDecorator::CTextureAnimationCWDecorator>
PUBLIC	??1?$CDynamicPoolEx@VCTextureAnimationCWDecorator@NEffectUpdateDecorator@@@@UAE@XZ ; CDynamicPoolEx<NEffectUpdateDecorator::CTextureAnimationCWDecorator>::~CDynamicPoolEx<NEffectUpdateDecorator::CTextureAnimationCWDecorator>
PUBLIC	?Destroy@?$CDynamicPoolEx@VCTextureAnimationCWDecorator@NEffectUpdateDecorator@@@@QAEXXZ ; CDynamicPoolEx<NEffectUpdateDecorator::CTextureAnimationCWDecorator>::Destroy
PUBLIC	?Alloc@?$CDynamicPoolEx@VCTextureAnimationCWDecorator@NEffectUpdateDecorator@@@@QAEPAVCTextureAnimationCWDecorator@NEffectUpdateDecorator@@XZ ; CDynamicPoolEx<NEffectUpdateDecorator::CTextureAnimationCWDecorator>::Alloc
PUBLIC	?Delete@?$CDynamicPoolEx@VCTextureAnimationCWDecorator@NEffectUpdateDecorator@@@@KAXPAVCTextureAnimationCWDecorator@NEffectUpdateDecorator@@@Z ; CDynamicPoolEx<NEffectUpdateDecorator::CTextureAnimationCWDecorator>::Delete
PUBLIC	?deallocate@?$allocator@PAVCTextureAnimationCWDecorator@NEffectUpdateDecorator@@@std@@QAEXQAPAVCTextureAnimationCWDecorator@NEffectUpdateDecorator@@I@Z ; std::allocator<NEffectUpdateDecorator::CTextureAnimationCWDecorator *>::deallocate
PUBLIC	?clear@?$vector@PAVCTextureAnimationCWDecorator@NEffectUpdateDecorator@@V?$allocator@PAVCTextureAnimationCWDecorator@NEffectUpdateDecorator@@@std@@@std@@QAEXXZ ; std::vector<NEffectUpdateDecorator::CTextureAnimationCWDecorator *,std::allocator<NEffectUpdateDecorator::CTextureAnimationCWDecorator *> >::clear
PUBLIC	?_Destroy@?$vector@PAVCTextureAnimationCWDecorator@NEffectUpdateDecorator@@V?$allocator@PAVCTextureAnimationCWDecorator@NEffectUpdateDecorator@@@std@@@std@@AAEXPAPAVCTextureAnimationCWDecorator@NEffectUpdateDecorator@@0@Z ; std::vector<NEffectUpdateDecorator::CTextureAnimationCWDecorator *,std::allocator<NEffectUpdateDecorator::CTextureAnimationCWDecorator *> >::_Destroy
PUBLIC	?_Calculate_growth@?$vector@PAVCTextureAnimationCWDecorator@NEffectUpdateDecorator@@V?$allocator@PAVCTextureAnimationCWDecorator@NEffectUpdateDecorator@@@std@@@std@@ABEII@Z ; std::vector<NEffectUpdateDecorator::CTextureAnimationCWDecorator *,std::allocator<NEffectUpdateDecorator::CTextureAnimationCWDecorator *> >::_Calculate_growth
PUBLIC	?_Change_array@?$vector@PAVCTextureAnimationCWDecorator@NEffectUpdateDecorator@@V?$allocator@PAVCTextureAnimationCWDecorator@NEffectUpdateDecorator@@@std@@@std@@AAEXQAPAVCTextureAnimationCWDecorator@NEffectUpdateDecorator@@II@Z ; std::vector<NEffectUpdateDecorator::CTextureAnimationCWDecorator *,std::allocator<NEffectUpdateDecorator::CTextureAnimationCWDecorator *> >::_Change_array
PUBLIC	?_Tidy@?$vector@PAVCTextureAnimationCWDecorator@NEffectUpdateDecorator@@V?$allocator@PAVCTextureAnimationCWDecorator@NEffectUpdateDecorator@@@std@@@std@@AAEXXZ ; std::vector<NEffectUpdateDecorator::CTextureAnimationCWDecorator *,std::allocator<NEffectUpdateDecorator::CTextureAnimationCWDecorator *> >::_Tidy
PUBLIC	?_Xlength@?$vector@PAVCTextureAnimationCWDecorator@NEffectUpdateDecorator@@V?$allocator@PAVCTextureAnimationCWDecorator@NEffectUpdateDecorator@@@std@@@std@@CAXXZ ; std::vector<NEffectUpdateDecorator::CTextureAnimationCWDecorator *,std::allocator<NEffectUpdateDecorator::CTextureAnimationCWDecorator *> >::_Xlength
PUBLIC	??_G?$CDynamicPoolEx@VCTextureAnimationCWDecorator@NEffectUpdateDecorator@@@@UAEPAXI@Z ; CDynamicPoolEx<NEffectUpdateDecorator::CTextureAnimationCWDecorator>::`scalar deleting destructor'
PUBLIC	??0?$CDynamicPoolEx@VCNullDecorator@NEffectUpdateDecorator@@@@QAE@XZ ; CDynamicPoolEx<NEffectUpdateDecorator::CNullDecorator>::CDynamicPoolEx<NEffectUpdateDecorator::CNullDecorator>
PUBLIC	??1?$CDynamicPoolEx@VCNullDecorator@NEffectUpdateDecorator@@@@UAE@XZ ; CDynamicPoolEx<NEffectUpdateDecorator::CNullDecorator>::~CDynamicPoolEx<NEffectUpdateDecorator::CNullDecorator>
PUBLIC	?Destroy@?$CDynamicPoolEx@VCNullDecorator@NEffectUpdateDecorator@@@@QAEXXZ ; CDynamicPoolEx<NEffectUpdateDecorator::CNullDecorator>::Destroy
PUBLIC	?Alloc@?$CDynamicPoolEx@VCNullDecorator@NEffectUpdateDecorator@@@@QAEPAVCNullDecorator@NEffectUpdateDecorator@@XZ ; CDynamicPoolEx<NEffectUpdateDecorator::CNullDecorator>::Alloc
PUBLIC	?Delete@?$CDynamicPoolEx@VCNullDecorator@NEffectUpdateDecorator@@@@KAXPAVCNullDecorator@NEffectUpdateDecorator@@@Z ; CDynamicPoolEx<NEffectUpdateDecorator::CNullDecorator>::Delete
PUBLIC	?deallocate@?$allocator@PAVCNullDecorator@NEffectUpdateDecorator@@@std@@QAEXQAPAVCNullDecorator@NEffectUpdateDecorator@@I@Z ; std::allocator<NEffectUpdateDecorator::CNullDecorator *>::deallocate
PUBLIC	?clear@?$vector@PAVCNullDecorator@NEffectUpdateDecorator@@V?$allocator@PAVCNullDecorator@NEffectUpdateDecorator@@@std@@@std@@QAEXXZ ; std::vector<NEffectUpdateDecorator::CNullDecorator *,std::allocator<NEffectUpdateDecorator::CNullDecorator *> >::clear
PUBLIC	?_Destroy@?$vector@PAVCNullDecorator@NEffectUpdateDecorator@@V?$allocator@PAVCNullDecorator@NEffectUpdateDecorator@@@std@@@std@@AAEXPAPAVCNullDecorator@NEffectUpdateDecorator@@0@Z ; std::vector<NEffectUpdateDecorator::CNullDecorator *,std::allocator<NEffectUpdateDecorator::CNullDecorator *> >::_Destroy
PUBLIC	?_Calculate_growth@?$vector@PAVCNullDecorator@NEffectUpdateDecorator@@V?$allocator@PAVCNullDecorator@NEffectUpdateDecorator@@@std@@@std@@ABEII@Z ; std::vector<NEffectUpdateDecorator::CNullDecorator *,std::allocator<NEffectUpdateDecorator::CNullDecorator *> >::_Calculate_growth
PUBLIC	?_Change_array@?$vector@PAVCNullDecorator@NEffectUpdateDecorator@@V?$allocator@PAVCNullDecorator@NEffectUpdateDecorator@@@std@@@std@@AAEXQAPAVCNullDecorator@NEffectUpdateDecorator@@II@Z ; std::vector<NEffectUpdateDecorator::CNullDecorator *,std::allocator<NEffectUpdateDecorator::CNullDecorator *> >::_Change_array
PUBLIC	?_Tidy@?$vector@PAVCNullDecorator@NEffectUpdateDecorator@@V?$allocator@PAVCNullDecorator@NEffectUpdateDecorator@@@std@@@std@@AAEXXZ ; std::vector<NEffectUpdateDecorator::CNullDecorator *,std::allocator<NEffectUpdateDecorator::CNullDecorator *> >::_Tidy
PUBLIC	?_Xlength@?$vector@PAVCNullDecorator@NEffectUpdateDecorator@@V?$allocator@PAVCNullDecorator@NEffectUpdateDecorator@@@std@@@std@@CAXXZ ; std::vector<NEffectUpdateDecorator::CNullDecorator *,std::allocator<NEffectUpdateDecorator::CNullDecorator *> >::_Xlength
PUBLIC	??_G?$CDynamicPoolEx@VCNullDecorator@NEffectUpdateDecorator@@@@UAEPAXI@Z ; CDynamicPoolEx<NEffectUpdateDecorator::CNullDecorator>::`scalar deleting destructor'
PUBLIC	??0?$CDynamicPoolEx@VCHeaderDecorator@NEffectUpdateDecorator@@@@QAE@XZ ; CDynamicPoolEx<NEffectUpdateDecorator::CHeaderDecorator>::CDynamicPoolEx<NEffectUpdateDecorator::CHeaderDecorator>
PUBLIC	??1?$CDynamicPoolEx@VCHeaderDecorator@NEffectUpdateDecorator@@@@UAE@XZ ; CDynamicPoolEx<NEffectUpdateDecorator::CHeaderDecorator>::~CDynamicPoolEx<NEffectUpdateDecorator::CHeaderDecorator>
PUBLIC	?Destroy@?$CDynamicPoolEx@VCHeaderDecorator@NEffectUpdateDecorator@@@@QAEXXZ ; CDynamicPoolEx<NEffectUpdateDecorator::CHeaderDecorator>::Destroy
PUBLIC	?Alloc@?$CDynamicPoolEx@VCHeaderDecorator@NEffectUpdateDecorator@@@@QAEPAVCHeaderDecorator@NEffectUpdateDecorator@@XZ ; CDynamicPoolEx<NEffectUpdateDecorator::CHeaderDecorator>::Alloc
PUBLIC	?Delete@?$CDynamicPoolEx@VCHeaderDecorator@NEffectUpdateDecorator@@@@KAXPAVCHeaderDecorator@NEffectUpdateDecorator@@@Z ; CDynamicPoolEx<NEffectUpdateDecorator::CHeaderDecorator>::Delete
PUBLIC	?deallocate@?$allocator@PAVCHeaderDecorator@NEffectUpdateDecorator@@@std@@QAEXQAPAVCHeaderDecorator@NEffectUpdateDecorator@@I@Z ; std::allocator<NEffectUpdateDecorator::CHeaderDecorator *>::deallocate
PUBLIC	?clear@?$vector@PAVCHeaderDecorator@NEffectUpdateDecorator@@V?$allocator@PAVCHeaderDecorator@NEffectUpdateDecorator@@@std@@@std@@QAEXXZ ; std::vector<NEffectUpdateDecorator::CHeaderDecorator *,std::allocator<NEffectUpdateDecorator::CHeaderDecorator *> >::clear
PUBLIC	?_Destroy@?$vector@PAVCHeaderDecorator@NEffectUpdateDecorator@@V?$allocator@PAVCHeaderDecorator@NEffectUpdateDecorator@@@std@@@std@@AAEXPAPAVCHeaderDecorator@NEffectUpdateDecorator@@0@Z ; std::vector<NEffectUpdateDecorator::CHeaderDecorator *,std::allocator<NEffectUpdateDecorator::CHeaderDecorator *> >::_Destroy
PUBLIC	?_Calculate_growth@?$vector@PAVCHeaderDecorator@NEffectUpdateDecorator@@V?$allocator@PAVCHeaderDecorator@NEffectUpdateDecorator@@@std@@@std@@ABEII@Z ; std::vector<NEffectUpdateDecorator::CHeaderDecorator *,std::allocator<NEffectUpdateDecorator::CHeaderDecorator *> >::_Calculate_growth
PUBLIC	?_Change_array@?$vector@PAVCHeaderDecorator@NEffectUpdateDecorator@@V?$allocator@PAVCHeaderDecorator@NEffectUpdateDecorator@@@std@@@std@@AAEXQAPAVCHeaderDecorator@NEffectUpdateDecorator@@II@Z ; std::vector<NEffectUpdateDecorator::CHeaderDecorator *,std::allocator<NEffectUpdateDecorator::CHeaderDecorator *> >::_Change_array
PUBLIC	?_Tidy@?$vector@PAVCHeaderDecorator@NEffectUpdateDecorator@@V?$allocator@PAVCHeaderDecorator@NEffectUpdateDecorator@@@std@@@std@@AAEXXZ ; std::vector<NEffectUpdateDecorator::CHeaderDecorator *,std::allocator<NEffectUpdateDecorator::CHeaderDecorator *> >::_Tidy
PUBLIC	?_Xlength@?$vector@PAVCHeaderDecorator@NEffectUpdateDecorator@@V?$allocator@PAVCHeaderDecorator@NEffectUpdateDecorator@@@std@@@std@@CAXXZ ; std::vector<NEffectUpdateDecorator::CHeaderDecorator *,std::allocator<NEffectUpdateDecorator::CHeaderDecorator *> >::_Xlength
PUBLIC	??_G?$CDynamicPoolEx@VCHeaderDecorator@NEffectUpdateDecorator@@@@UAEPAXI@Z ; CDynamicPoolEx<NEffectUpdateDecorator::CHeaderDecorator>::`scalar deleting destructor'
PUBLIC	??$emplace_back@ABV?$CTimeEvent@UDWORDCOLOR@@@@@?$vector@V?$CTimeEvent@UDWORDCOLOR@@@@V?$allocator@V?$CTimeEvent@UDWORDCOLOR@@@@@std@@@std@@QAEXABV?$CTimeEvent@UDWORDCOLOR@@@@@Z ; std::vector<CTimeEvent<DWORDCOLOR>,std::allocator<CTimeEvent<DWORDCOLOR> > >::emplace_back<CTimeEvent<DWORDCOLOR> const &>
PUBLIC	??$_Emplace_back_with_unused_capacity@ABV?$CTimeEvent@UDWORDCOLOR@@@@@?$vector@V?$CTimeEvent@UDWORDCOLOR@@@@V?$allocator@V?$CTimeEvent@UDWORDCOLOR@@@@@std@@@std@@AAEXABV?$CTimeEvent@UDWORDCOLOR@@@@@Z ; std::vector<CTimeEvent<DWORDCOLOR>,std::allocator<CTimeEvent<DWORDCOLOR> > >::_Emplace_back_with_unused_capacity<CTimeEvent<DWORDCOLOR> const &>
PUBLIC	??$_Emplace_reallocate@ABV?$CTimeEvent@UDWORDCOLOR@@@@@?$vector@V?$CTimeEvent@UDWORDCOLOR@@@@V?$allocator@V?$CTimeEvent@UDWORDCOLOR@@@@@std@@@std@@QAEPAV?$CTimeEvent@UDWORDCOLOR@@@@QAV2@ABV2@@Z ; std::vector<CTimeEvent<DWORDCOLOR>,std::allocator<CTimeEvent<DWORDCOLOR> > >::_Emplace_reallocate<CTimeEvent<DWORDCOLOR> const &>
PUBLIC	??$emplace_back@ABV?$CTimeEvent@M@@@?$vector@V?$CTimeEvent@M@@V?$allocator@V?$CTimeEvent@M@@@std@@@std@@QAEXABV?$CTimeEvent@M@@@Z ; std::vector<CTimeEvent<float>,std::allocator<CTimeEvent<float> > >::emplace_back<CTimeEvent<float> const &>
PUBLIC	??$_Emplace_reallocate@ABV?$CTimeEvent@M@@@?$vector@V?$CTimeEvent@M@@V?$allocator@V?$CTimeEvent@M@@@std@@@std@@QAEPAV?$CTimeEvent@M@@QAV2@ABV2@@Z ; std::vector<CTimeEvent<float>,std::allocator<CTimeEvent<float> > >::_Emplace_reallocate<CTimeEvent<float> const &>
PUBLIC	??$emplace_back@ABQAVCParticleSystemData@@@?$vector@PAVCParticleSystemData@@V?$allocator@PAVCParticleSystemData@@@std@@@std@@QAEXABQAVCParticleSystemData@@@Z ; std::vector<CParticleSystemData *,std::allocator<CParticleSystemData *> >::emplace_back<CParticleSystemData * const &>
PUBLIC	??$_Emplace_back_with_unused_capacity@ABQAVCParticleSystemData@@@?$vector@PAVCParticleSystemData@@V?$allocator@PAVCParticleSystemData@@@std@@@std@@AAEXABQAVCParticleSystemData@@@Z ; std::vector<CParticleSystemData *,std::allocator<CParticleSystemData *> >::_Emplace_back_with_unused_capacity<CParticleSystemData * const &>
PUBLIC	??$_Emplace_reallocate@ABQAVCParticleSystemData@@@?$vector@PAVCParticleSystemData@@V?$allocator@PAVCParticleSystemData@@@std@@@std@@QAEPAPAVCParticleSystemData@@QAPAV2@ABQAV2@@Z ; std::vector<CParticleSystemData *,std::allocator<CParticleSystemData *> >::_Emplace_reallocate<CParticleSystemData * const &>
PUBLIC	??$_Destroy_range@V?$allocator@V?$CTimeEvent@UDWORDCOLOR@@@@@std@@@std@@YAXPAV?$CTimeEvent@UDWORDCOLOR@@@@QAV1@AAV?$allocator@V?$CTimeEvent@UDWORDCOLOR@@@@@0@@Z ; std::_Destroy_range<std::allocator<CTimeEvent<DWORDCOLOR> > >
PUBLIC	??$_Destroy_range@V?$allocator@V?$CTimeEvent@M@@@std@@@std@@YAXPAV?$CTimeEvent@M@@QAV1@AAV?$allocator@V?$CTimeEvent@M@@@0@@Z ; std::_Destroy_range<std::allocator<CTimeEvent<float> > >
PUBLIC	??$emplace_back@ABQAVCHeaderDecorator@NEffectUpdateDecorator@@@?$vector@PAVCHeaderDecorator@NEffectUpdateDecorator@@V?$allocator@PAVCHeaderDecorator@NEffectUpdateDecorator@@@std@@@std@@QAEXABQAVCHeaderDecorator@NEffectUpdateDecorator@@@Z ; std::vector<NEffectUpdateDecorator::CHeaderDecorator *,std::allocator<NEffectUpdateDecorator::CHeaderDecorator *> >::emplace_back<NEffectUpdateDecorator::CHeaderDecorator * const &>
PUBLIC	??$_Emplace_back_with_unused_capacity@ABQAVCHeaderDecorator@NEffectUpdateDecorator@@@?$vector@PAVCHeaderDecorator@NEffectUpdateDecorator@@V?$allocator@PAVCHeaderDecorator@NEffectUpdateDecorator@@@std@@@std@@AAEXABQAVCHeaderDecorator@NEffectUpdateDecorator@@@Z ; std::vector<NEffectUpdateDecorator::CHeaderDecorator *,std::allocator<NEffectUpdateDecorator::CHeaderDecorator *> >::_Emplace_back_with_unused_capacity<NEffectUpdateDecorator::CHeaderDecorator * const &>
PUBLIC	??$_Emplace_reallocate@ABQAVCHeaderDecorator@NEffectUpdateDecorator@@@?$vector@PAVCHeaderDecorator@NEffectUpdateDecorator@@V?$allocator@PAVCHeaderDecorator@NEffectUpdateDecorator@@@std@@@std@@QAEPAPAVCHeaderDecorator@NEffectUpdateDecorator@@QAPAV23@ABQAV23@@Z ; std::vector<NEffectUpdateDecorator::CHeaderDecorator *,std::allocator<NEffectUpdateDecorator::CHeaderDecorator *> >::_Emplace_reallocate<NEffectUpdateDecorator::CHeaderDecorator * const &>
PUBLIC	??$for_each@V?$_Vector_iterator@V?$_Vector_val@U?$_Simple_types@PAVCHeaderDecorator@NEffectUpdateDecorator@@@std@@@std@@@std@@P6AXPAVCHeaderDecorator@NEffectUpdateDecorator@@@Z@std@@YAP6AXPAVCHeaderDecorator@NEffectUpdateDecorator@@@ZV?$_Vector_iterator@V?$_Vector_val@U?$_Simple_types@PAVCHeaderDecorator@NEffectUpdateDecorator@@@std@@@std@@@0@1P6AX0@Z@Z ; std::for_each<std::_Vector_iterator<std::_Vector_val<std::_Simple_types<NEffectUpdateDecorator::CHeaderDecorator *> > >,void (__cdecl*)(NEffectUpdateDecorator::CHeaderDecorator *)>
PUBLIC	??$emplace_back@ABQAVCNullDecorator@NEffectUpdateDecorator@@@?$vector@PAVCNullDecorator@NEffectUpdateDecorator@@V?$allocator@PAVCNullDecorator@NEffectUpdateDecorator@@@std@@@std@@QAEXABQAVCNullDecorator@NEffectUpdateDecorator@@@Z ; std::vector<NEffectUpdateDecorator::CNullDecorator *,std::allocator<NEffectUpdateDecorator::CNullDecorator *> >::emplace_back<NEffectUpdateDecorator::CNullDecorator * const &>
PUBLIC	??$_Emplace_back_with_unused_capacity@ABQAVCNullDecorator@NEffectUpdateDecorator@@@?$vector@PAVCNullDecorator@NEffectUpdateDecorator@@V?$allocator@PAVCNullDecorator@NEffectUpdateDecorator@@@std@@@std@@AAEXABQAVCNullDecorator@NEffectUpdateDecorator@@@Z ; std::vector<NEffectUpdateDecorator::CNullDecorator *,std::allocator<NEffectUpdateDecorator::CNullDecorator *> >::_Emplace_back_with_unused_capacity<NEffectUpdateDecorator::CNullDecorator * const &>
PUBLIC	??$_Emplace_reallocate@ABQAVCNullDecorator@NEffectUpdateDecorator@@@?$vector@PAVCNullDecorator@NEffectUpdateDecorator@@V?$allocator@PAVCNullDecorator@NEffectUpdateDecorator@@@std@@@std@@QAEPAPAVCNullDecorator@NEffectUpdateDecorator@@QAPAV23@ABQAV23@@Z ; std::vector<NEffectUpdateDecorator::CNullDecorator *,std::allocator<NEffectUpdateDecorator::CNullDecorator *> >::_Emplace_reallocate<NEffectUpdateDecorator::CNullDecorator * const &>
PUBLIC	??$for_each@V?$_Vector_iterator@V?$_Vector_val@U?$_Simple_types@PAVCNullDecorator@NEffectUpdateDecorator@@@std@@@std@@@std@@P6AXPAVCNullDecorator@NEffectUpdateDecorator@@@Z@std@@YAP6AXPAVCNullDecorator@NEffectUpdateDecorator@@@ZV?$_Vector_iterator@V?$_Vector_val@U?$_Simple_types@PAVCNullDecorator@NEffectUpdateDecorator@@@std@@@std@@@0@1P6AX0@Z@Z ; std::for_each<std::_Vector_iterator<std::_Vector_val<std::_Simple_types<NEffectUpdateDecorator::CNullDecorator *> > >,void (__cdecl*)(NEffectUpdateDecorator::CNullDecorator *)>
PUBLIC	??$emplace_back@ABQAVCTextureAnimationCWDecorator@NEffectUpdateDecorator@@@?$vector@PAVCTextureAnimationCWDecorator@NEffectUpdateDecorator@@V?$allocator@PAVCTextureAnimationCWDecorator@NEffectUpdateDecorator@@@std@@@std@@QAEXABQAVCTextureAnimationCWDecorator@NEffectUpdateDecorator@@@Z ; std::vector<NEffectUpdateDecorator::CTextureAnimationCWDecorator *,std::allocator<NEffectUpdateDecorator::CTextureAnimationCWDecorator *> >::emplace_back<NEffectUpdateDecorator::CTextureAnimationCWDecorator * const &>
PUBLIC	??$_Emplace_back_with_unused_capacity@ABQAVCTextureAnimationCWDecorator@NEffectUpdateDecorator@@@?$vector@PAVCTextureAnimationCWDecorator@NEffectUpdateDecorator@@V?$allocator@PAVCTextureAnimationCWDecorator@NEffectUpdateDecorator@@@std@@@std@@AAEXABQAVCTextureAnimationCWDecorator@NEffectUpdateDecorator@@@Z ; std::vector<NEffectUpdateDecorator::CTextureAnimationCWDecorator *,std::allocator<NEffectUpdateDecorator::CTextureAnimationCWDecorator *> >::_Emplace_back_with_unused_capacity<NEffectUpdateDecorator::CTextureAnimationCWDecorator * const &>
PUBLIC	??$_Emplace_reallocate@ABQAVCTextureAnimationCWDecorator@NEffectUpdateDecorator@@@?$vector@PAVCTextureAnimationCWDecorator@NEffectUpdateDecorator@@V?$allocator@PAVCTextureAnimationCWDecorator@NEffectUpdateDecorator@@@std@@@std@@QAEPAPAVCTextureAnimationCWDecorator@NEffectUpdateDecorator@@QAPAV23@ABQAV23@@Z ; std::vector<NEffectUpdateDecorator::CTextureAnimationCWDecorator *,std::allocator<NEffectUpdateDecorator::CTextureAnimationCWDecorator *> >::_Emplace_reallocate<NEffectUpdateDecorator::CTextureAnimationCWDecorator * const &>
PUBLIC	??$for_each@V?$_Vector_iterator@V?$_Vector_val@U?$_Simple_types@PAVCTextureAnimationCWDecorator@NEffectUpdateDecorator@@@std@@@std@@@std@@P6AXPAVCTextureAnimationCWDecorator@NEffectUpdateDecorator@@@Z@std@@YAP6AXPAVCTextureAnimationCWDecorator@NEffectUpdateDecorator@@@ZV?$_Vector_iterator@V?$_Vector_val@U?$_Simple_types@PAVCTextureAnimationCWDecorator@NEffectUpdateDecorator@@@std@@@std@@@0@1P6AX0@Z@Z ; std::for_each<std::_Vector_iterator<std::_Vector_val<std::_Simple_types<NEffectUpdateDecorator::CTextureAnimationCWDecorator *> > >,void (__cdecl*)(NEffectUpdateDecorator::CTextureAnimationCWDecorator *)>
PUBLIC	??$emplace_back@ABQAVCTextureAnimationCCWDecorator@NEffectUpdateDecorator@@@?$vector@PAVCTextureAnimationCCWDecorator@NEffectUpdateDecorator@@V?$allocator@PAVCTextureAnimationCCWDecorator@NEffectUpdateDecorator@@@std@@@std@@QAEXABQAVCTextureAnimationCCWDecorator@NEffectUpdateDecorator@@@Z ; std::vector<NEffectUpdateDecorator::CTextureAnimationCCWDecorator *,std::allocator<NEffectUpdateDecorator::CTextureAnimationCCWDecorator *> >::emplace_back<NEffectUpdateDecorator::CTextureAnimationCCWDecorator * const &>
PUBLIC	??$_Emplace_back_with_unused_capacity@ABQAVCTextureAnimationCCWDecorator@NEffectUpdateDecorator@@@?$vector@PAVCTextureAnimationCCWDecorator@NEffectUpdateDecorator@@V?$allocator@PAVCTextureAnimationCCWDecorator@NEffectUpdateDecorator@@@std@@@std@@AAEXABQAVCTextureAnimationCCWDecorator@NEffectUpdateDecorator@@@Z ; std::vector<NEffectUpdateDecorator::CTextureAnimationCCWDecorator *,std::allocator<NEffectUpdateDecorator::CTextureAnimationCCWDecorator *> >::_Emplace_back_with_unused_capacity<NEffectUpdateDecorator::CTextureAnimationCCWDecorator * const &>
PUBLIC	??$_Emplace_reallocate@ABQAVCTextureAnimationCCWDecorator@NEffectUpdateDecorator@@@?$vector@PAVCTextureAnimationCCWDecorator@NEffectUpdateDecorator@@V?$allocator@PAVCTextureAnimationCCWDecorator@NEffectUpdateDecorator@@@std@@@std@@QAEPAPAVCTextureAnimationCCWDecorator@NEffectUpdateDecorator@@QAPAV23@ABQAV23@@Z ; std::vector<NEffectUpdateDecorator::CTextureAnimationCCWDecorator *,std::allocator<NEffectUpdateDecorator::CTextureAnimationCCWDecorator *> >::_Emplace_reallocate<NEffectUpdateDecorator::CTextureAnimationCCWDecorator * const &>
PUBLIC	??$for_each@V?$_Vector_iterator@V?$_Vector_val@U?$_Simple_types@PAVCTextureAnimationCCWDecorator@NEffectUpdateDecorator@@@std@@@std@@@std@@P6AXPAVCTextureAnimationCCWDecorator@NEffectUpdateDecorator@@@Z@std@@YAP6AXPAVCTextureAnimationCCWDecorator@NEffectUpdateDecorator@@@ZV?$_Vector_iterator@V?$_Vector_val@U?$_Simple_types@PAVCTextureAnimationCCWDecorator@NEffectUpdateDecorator@@@std@@@std@@@0@1P6AX0@Z@Z ; std::for_each<std::_Vector_iterator<std::_Vector_val<std::_Simple_types<NEffectUpdateDecorator::CTextureAnimationCCWDecorator *> > >,void (__cdecl*)(NEffectUpdateDecorator::CTextureAnimationCCWDecorator *)>
PUBLIC	??$emplace_back@ABQAVCTextureAnimationRandomDecorator@NEffectUpdateDecorator@@@?$vector@PAVCTextureAnimationRandomDecorator@NEffectUpdateDecorator@@V?$allocator@PAVCTextureAnimationRandomDecorator@NEffectUpdateDecorator@@@std@@@std@@QAEXABQAVCTextureAnimationRandomDecorator@NEffectUpdateDecorator@@@Z ; std::vector<NEffectUpdateDecorator::CTextureAnimationRandomDecorator *,std::allocator<NEffectUpdateDecorator::CTextureAnimationRandomDecorator *> >::emplace_back<NEffectUpdateDecorator::CTextureAnimationRandomDecorator * const &>
PUBLIC	??$_Emplace_back_with_unused_capacity@ABQAVCTextureAnimationRandomDecorator@NEffectUpdateDecorator@@@?$vector@PAVCTextureAnimationRandomDecorator@NEffectUpdateDecorator@@V?$allocator@PAVCTextureAnimationRandomDecorator@NEffectUpdateDecorator@@@std@@@std@@AAEXABQAVCTextureAnimationRandomDecorator@NEffectUpdateDecorator@@@Z ; std::vector<NEffectUpdateDecorator::CTextureAnimationRandomDecorator *,std::allocator<NEffectUpdateDecorator::CTextureAnimationRandomDecorator *> >::_Emplace_back_with_unused_capacity<NEffectUpdateDecorator::CTextureAnimationRandomDecorator * const &>
PUBLIC	??$_Emplace_reallocate@ABQAVCTextureAnimationRandomDecorator@NEffectUpdateDecorator@@@?$vector@PAVCTextureAnimationRandomDecorator@NEffectUpdateDecorator@@V?$allocator@PAVCTextureAnimationRandomDecorator@NEffectUpdateDecorator@@@std@@@std@@QAEPAPAVCTextureAnimationRandomDecorator@NEffectUpdateDecorator@@QAPAV23@ABQAV23@@Z ; std::vector<NEffectUpdateDecorator::CTextureAnimationRandomDecorator *,std::allocator<NEffectUpdateDecorator::CTextureAnimationRandomDecorator *> >::_Emplace_reallocate<NEffectUpdateDecorator::CTextureAnimationRandomDecorator * const &>
PUBLIC	??$for_each@V?$_Vector_iterator@V?$_Vector_val@U?$_Simple_types@PAVCTextureAnimationRandomDecorator@NEffectUpdateDecorator@@@std@@@std@@@std@@P6AXPAVCTextureAnimationRandomDecorator@NEffectUpdateDecorator@@@Z@std@@YAP6AXPAVCTextureAnimationRandomDecorator@NEffectUpdateDecorator@@@ZV?$_Vector_iterator@V?$_Vector_val@U?$_Simple_types@PAVCTextureAnimationRandomDecorator@NEffectUpdateDecorator@@@std@@@std@@@0@1P6AX0@Z@Z ; std::for_each<std::_Vector_iterator<std::_Vector_val<std::_Simple_types<NEffectUpdateDecorator::CTextureAnimationRandomDecorator *> > >,void (__cdecl*)(NEffectUpdateDecorator::CTextureAnimationRandomDecorator *)>
PUBLIC	??$emplace_back@ABQAVCAirResistanceDecorator@NEffectUpdateDecorator@@@?$vector@PAVCAirResistanceDecorator@NEffectUpdateDecorator@@V?$allocator@PAVCAirResistanceDecorator@NEffectUpdateDecorator@@@std@@@std@@QAEXABQAVCAirResistanceDecorator@NEffectUpdateDecorator@@@Z ; std::vector<NEffectUpdateDecorator::CAirResistanceDecorator *,std::allocator<NEffectUpdateDecorator::CAirResistanceDecorator *> >::emplace_back<NEffectUpdateDecorator::CAirResistanceDecorator * const &>
PUBLIC	??$_Emplace_back_with_unused_capacity@ABQAVCAirResistanceDecorator@NEffectUpdateDecorator@@@?$vector@PAVCAirResistanceDecorator@NEffectUpdateDecorator@@V?$allocator@PAVCAirResistanceDecorator@NEffectUpdateDecorator@@@std@@@std@@AAEXABQAVCAirResistanceDecorator@NEffectUpdateDecorator@@@Z ; std::vector<NEffectUpdateDecorator::CAirResistanceDecorator *,std::allocator<NEffectUpdateDecorator::CAirResistanceDecorator *> >::_Emplace_back_with_unused_capacity<NEffectUpdateDecorator::CAirResistanceDecorator * const &>
PUBLIC	??$_Emplace_reallocate@ABQAVCAirResistanceDecorator@NEffectUpdateDecorator@@@?$vector@PAVCAirResistanceDecorator@NEffectUpdateDecorator@@V?$allocator@PAVCAirResistanceDecorator@NEffectUpdateDecorator@@@std@@@std@@QAEPAPAVCAirResistanceDecorator@NEffectUpdateDecorator@@QAPAV23@ABQAV23@@Z ; std::vector<NEffectUpdateDecorator::CAirResistanceDecorator *,std::allocator<NEffectUpdateDecorator::CAirResistanceDecorator *> >::_Emplace_reallocate<NEffectUpdateDecorator::CAirResistanceDecorator * const &>
PUBLIC	??$for_each@V?$_Vector_iterator@V?$_Vector_val@U?$_Simple_types@PAVCAirResistanceDecorator@NEffectUpdateDecorator@@@std@@@std@@@std@@P6AXPAVCAirResistanceDecorator@NEffectUpdateDecorator@@@Z@std@@YAP6AXPAVCAirResistanceDecorator@NEffectUpdateDecorator@@@ZV?$_Vector_iterator@V?$_Vector_val@U?$_Simple_types@PAVCAirResistanceDecorator@NEffectUpdateDecorator@@@std@@@std@@@0@1P6AX0@Z@Z ; std::for_each<std::_Vector_iterator<std::_Vector_val<std::_Simple_types<NEffectUpdateDecorator::CAirResistanceDecorator *> > >,void (__cdecl*)(NEffectUpdateDecorator::CAirResistanceDecorator *)>
PUBLIC	??$emplace_back@ABQAVCGravityDecorator@NEffectUpdateDecorator@@@?$vector@PAVCGravityDecorator@NEffectUpdateDecorator@@V?$allocator@PAVCGravityDecorator@NEffectUpdateDecorator@@@std@@@std@@QAEXABQAVCGravityDecorator@NEffectUpdateDecorator@@@Z ; std::vector<NEffectUpdateDecorator::CGravityDecorator *,std::allocator<NEffectUpdateDecorator::CGravityDecorator *> >::emplace_back<NEffectUpdateDecorator::CGravityDecorator * const &>
PUBLIC	??$_Emplace_back_with_unused_capacity@ABQAVCGravityDecorator@NEffectUpdateDecorator@@@?$vector@PAVCGravityDecorator@NEffectUpdateDecorator@@V?$allocator@PAVCGravityDecorator@NEffectUpdateDecorator@@@std@@@std@@AAEXABQAVCGravityDecorator@NEffectUpdateDecorator@@@Z ; std::vector<NEffectUpdateDecorator::CGravityDecorator *,std::allocator<NEffectUpdateDecorator::CGravityDecorator *> >::_Emplace_back_with_unused_capacity<NEffectUpdateDecorator::CGravityDecorator * const &>
PUBLIC	??$_Emplace_reallocate@ABQAVCGravityDecorator@NEffectUpdateDecorator@@@?$vector@PAVCGravityDecorator@NEffectUpdateDecorator@@V?$allocator@PAVCGravityDecorator@NEffectUpdateDecorator@@@std@@@std@@QAEPAPAVCGravityDecorator@NEffectUpdateDecorator@@QAPAV23@ABQAV23@@Z ; std::vector<NEffectUpdateDecorator::CGravityDecorator *,std::allocator<NEffectUpdateDecorator::CGravityDecorator *> >::_Emplace_reallocate<NEffectUpdateDecorator::CGravityDecorator * const &>
PUBLIC	??$for_each@V?$_Vector_iterator@V?$_Vector_val@U?$_Simple_types@PAVCGravityDecorator@NEffectUpdateDecorator@@@std@@@std@@@std@@P6AXPAVCGravityDecorator@NEffectUpdateDecorator@@@Z@std@@YAP6AXPAVCGravityDecorator@NEffectUpdateDecorator@@@ZV?$_Vector_iterator@V?$_Vector_val@U?$_Simple_types@PAVCGravityDecorator@NEffectUpdateDecorator@@@std@@@std@@@0@1P6AX0@Z@Z ; std::for_each<std::_Vector_iterator<std::_Vector_val<std::_Simple_types<NEffectUpdateDecorator::CGravityDecorator *> > >,void (__cdecl*)(NEffectUpdateDecorator::CGravityDecorator *)>
PUBLIC	??$emplace_back@ABQAVCRotationDecorator@NEffectUpdateDecorator@@@?$vector@PAVCRotationDecorator@NEffectUpdateDecorator@@V?$allocator@PAVCRotationDecorator@NEffectUpdateDecorator@@@std@@@std@@QAEXABQAVCRotationDecorator@NEffectUpdateDecorator@@@Z ; std::vector<NEffectUpdateDecorator::CRotationDecorator *,std::allocator<NEffectUpdateDecorator::CRotationDecorator *> >::emplace_back<NEffectUpdateDecorator::CRotationDecorator * const &>
PUBLIC	??$_Emplace_back_with_unused_capacity@ABQAVCRotationDecorator@NEffectUpdateDecorator@@@?$vector@PAVCRotationDecorator@NEffectUpdateDecorator@@V?$allocator@PAVCRotationDecorator@NEffectUpdateDecorator@@@std@@@std@@AAEXABQAVCRotationDecorator@NEffectUpdateDecorator@@@Z ; std::vector<NEffectUpdateDecorator::CRotationDecorator *,std::allocator<NEffectUpdateDecorator::CRotationDecorator *> >::_Emplace_back_with_unused_capacity<NEffectUpdateDecorator::CRotationDecorator * const &>
PUBLIC	??$_Emplace_reallocate@ABQAVCRotationDecorator@NEffectUpdateDecorator@@@?$vector@PAVCRotationDecorator@NEffectUpdateDecorator@@V?$allocator@PAVCRotationDecorator@NEffectUpdateDecorator@@@std@@@std@@QAEPAPAVCRotationDecorator@NEffectUpdateDecorator@@QAPAV23@ABQAV23@@Z ; std::vector<NEffectUpdateDecorator::CRotationDecorator *,std::allocator<NEffectUpdateDecorator::CRotationDecorator *> >::_Emplace_reallocate<NEffectUpdateDecorator::CRotationDecorator * const &>
PUBLIC	??$for_each@V?$_Vector_iterator@V?$_Vector_val@U?$_Simple_types@PAVCRotationDecorator@NEffectUpdateDecorator@@@std@@@std@@@std@@P6AXPAVCRotationDecorator@NEffectUpdateDecorator@@@Z@std@@YAP6AXPAVCRotationDecorator@NEffectUpdateDecorator@@@ZV?$_Vector_iterator@V?$_Vector_val@U?$_Simple_types@PAVCRotationDecorator@NEffectUpdateDecorator@@@std@@@std@@@0@1P6AX0@Z@Z ; std::for_each<std::_Vector_iterator<std::_Vector_val<std::_Simple_types<NEffectUpdateDecorator::CRotationDecorator *> > >,void (__cdecl*)(NEffectUpdateDecorator::CRotationDecorator *)>
PUBLIC	??$emplace_back@ABQAV?$CTimeEventDecorator@M@NEffectUpdateDecorator@@@?$vector@PAV?$CTimeEventDecorator@M@NEffectUpdateDecorator@@V?$allocator@PAV?$CTimeEventDecorator@M@NEffectUpdateDecorator@@@std@@@std@@QAEXABQAV?$CTimeEventDecorator@M@NEffectUpdateDecorator@@@Z ; std::vector<NEffectUpdateDecorator::CTimeEventDecorator<float> *,std::allocator<NEffectUpdateDecorator::CTimeEventDecorator<float> *> >::emplace_back<NEffectUpdateDecorator::CTimeEventDecorator<float> * const &>
PUBLIC	??$_Emplace_back_with_unused_capacity@ABQAV?$CTimeEventDecorator@M@NEffectUpdateDecorator@@@?$vector@PAV?$CTimeEventDecorator@M@NEffectUpdateDecorator@@V?$allocator@PAV?$CTimeEventDecorator@M@NEffectUpdateDecorator@@@std@@@std@@AAEXABQAV?$CTimeEventDecorator@M@NEffectUpdateDecorator@@@Z ; std::vector<NEffectUpdateDecorator::CTimeEventDecorator<float> *,std::allocator<NEffectUpdateDecorator::CTimeEventDecorator<float> *> >::_Emplace_back_with_unused_capacity<NEffectUpdateDecorator::CTimeEventDecorator<float> * const &>
PUBLIC	??$_Emplace_reallocate@ABQAV?$CTimeEventDecorator@M@NEffectUpdateDecorator@@@?$vector@PAV?$CTimeEventDecorator@M@NEffectUpdateDecorator@@V?$allocator@PAV?$CTimeEventDecorator@M@NEffectUpdateDecorator@@@std@@@std@@QAEPAPAV?$CTimeEventDecorator@M@NEffectUpdateDecorator@@QAPAV23@ABQAV23@@Z ; std::vector<NEffectUpdateDecorator::CTimeEventDecorator<float> *,std::allocator<NEffectUpdateDecorator::CTimeEventDecorator<float> *> >::_Emplace_reallocate<NEffectUpdateDecorator::CTimeEventDecorator<float> * const &>
PUBLIC	??$for_each@V?$_Vector_iterator@V?$_Vector_val@U?$_Simple_types@PAV?$CTimeEventDecorator@M@NEffectUpdateDecorator@@@std@@@std@@@std@@P6AXPAV?$CTimeEventDecorator@M@NEffectUpdateDecorator@@@Z@std@@YAP6AXPAV?$CTimeEventDecorator@M@NEffectUpdateDecorator@@@ZV?$_Vector_iterator@V?$_Vector_val@U?$_Simple_types@PAV?$CTimeEventDecorator@M@NEffectUpdateDecorator@@@std@@@std@@@0@1P6AX0@Z@Z ; std::for_each<std::_Vector_iterator<std::_Vector_val<std::_Simple_types<NEffectUpdateDecorator::CTimeEventDecorator<float> *> > >,void (__cdecl*)(NEffectUpdateDecorator::CTimeEventDecorator<float> *)>
PUBLIC	??$emplace_back@ABQAV?$CTimeEventDecorator@UDWORDCOLOR@@@NEffectUpdateDecorator@@@?$vector@PAV?$CTimeEventDecorator@UDWORDCOLOR@@@NEffectUpdateDecorator@@V?$allocator@PAV?$CTimeEventDecorator@UDWORDCOLOR@@@NEffectUpdateDecorator@@@std@@@std@@QAEXABQAV?$CTimeEventDecorator@UDWORDCOLOR@@@NEffectUpdateDecorator@@@Z ; std::vector<NEffectUpdateDecorator::CTimeEventDecorator<DWORDCOLOR> *,std::allocator<NEffectUpdateDecorator::CTimeEventDecorator<DWORDCOLOR> *> >::emplace_back<NEffectUpdateDecorator::CTimeEventDecorator<DWORDCOLOR> * const &>
PUBLIC	??$_Emplace_back_with_unused_capacity@ABQAV?$CTimeEventDecorator@UDWORDCOLOR@@@NEffectUpdateDecorator@@@?$vector@PAV?$CTimeEventDecorator@UDWORDCOLOR@@@NEffectUpdateDecorator@@V?$allocator@PAV?$CTimeEventDecorator@UDWORDCOLOR@@@NEffectUpdateDecorator@@@std@@@std@@AAEXABQAV?$CTimeEventDecorator@UDWORDCOLOR@@@NEffectUpdateDecorator@@@Z ; std::vector<NEffectUpdateDecorator::CTimeEventDecorator<DWORDCOLOR> *,std::allocator<NEffectUpdateDecorator::CTimeEventDecorator<DWORDCOLOR> *> >::_Emplace_back_with_unused_capacity<NEffectUpdateDecorator::CTimeEventDecorator<DWORDCOLOR> * const &>
PUBLIC	??$_Emplace_reallocate@ABQAV?$CTimeEventDecorator@UDWORDCOLOR@@@NEffectUpdateDecorator@@@?$vector@PAV?$CTimeEventDecorator@UDWORDCOLOR@@@NEffectUpdateDecorator@@V?$allocator@PAV?$CTimeEventDecorator@UDWORDCOLOR@@@NEffectUpdateDecorator@@@std@@@std@@QAEPAPAV?$CTimeEventDecorator@UDWORDCOLOR@@@NEffectUpdateDecorator@@QAPAV23@ABQAV23@@Z ; std::vector<NEffectUpdateDecorator::CTimeEventDecorator<DWORDCOLOR> *,std::allocator<NEffectUpdateDecorator::CTimeEventDecorator<DWORDCOLOR> *> >::_Emplace_reallocate<NEffectUpdateDecorator::CTimeEventDecorator<DWORDCOLOR> * const &>
PUBLIC	??$for_each@V?$_Vector_iterator@V?$_Vector_val@U?$_Simple_types@PAV?$CTimeEventDecorator@UDWORDCOLOR@@@NEffectUpdateDecorator@@@std@@@std@@@std@@P6AXPAV?$CTimeEventDecorator@UDWORDCOLOR@@@NEffectUpdateDecorator@@@Z@std@@YAP6AXPAV?$CTimeEventDecorator@UDWORDCOLOR@@@NEffectUpdateDecorator@@@ZV?$_Vector_iterator@V?$_Vector_val@U?$_Simple_types@PAV?$CTimeEventDecorator@UDWORDCOLOR@@@NEffectUpdateDecorator@@@std@@@std@@@0@1P6AX0@Z@Z ; std::for_each<std::_Vector_iterator<std::_Vector_val<std::_Simple_types<NEffectUpdateDecorator::CTimeEventDecorator<DWORDCOLOR> *> > >,void (__cdecl*)(NEffectUpdateDecorator::CTimeEventDecorator<DWORDCOLOR> *)>
PUBLIC	??$_Buyheadnode@V?$allocator@U?$_Tree_node@MPAX@std@@@std@@@?$_Tree_node@MPAX@std@@SAPAU01@AAV?$allocator@U?$_Tree_node@MPAX@std@@@1@@Z ; std::_Tree_node<float,void *>::_Buyheadnode<std::allocator<std::_Tree_node<float,void *> > >
PUBLIC	??$_Destroy_range@V?$allocator@PAVCParticleSystemData@@@std@@@std@@YAXPAPAVCParticleSystemData@@QAPAV1@AAV?$allocator@PAVCParticleSystemData@@@0@@Z ; std::_Destroy_range<std::allocator<CParticleSystemData *> >
PUBLIC	??$_Destroy_range@V?$allocator@PAVCHeaderDecorator@NEffectUpdateDecorator@@@std@@@std@@YAXPAPAVCHeaderDecorator@NEffectUpdateDecorator@@QAPAV12@AAV?$allocator@PAVCHeaderDecorator@NEffectUpdateDecorator@@@0@@Z ; std::_Destroy_range<std::allocator<NEffectUpdateDecorator::CHeaderDecorator *> >
PUBLIC	??$_Destroy_range@V?$allocator@PAVCNullDecorator@NEffectUpdateDecorator@@@std@@@std@@YAXPAPAVCNullDecorator@NEffectUpdateDecorator@@QAPAV12@AAV?$allocator@PAVCNullDecorator@NEffectUpdateDecorator@@@0@@Z ; std::_Destroy_range<std::allocator<NEffectUpdateDecorator::CNullDecorator *> >
PUBLIC	??$_Destroy_range@V?$allocator@PAVCTextureAnimationCWDecorator@NEffectUpdateDecorator@@@std@@@std@@YAXPAPAVCTextureAnimationCWDecorator@NEffectUpdateDecorator@@QAPAV12@AAV?$allocator@PAVCTextureAnimationCWDecorator@NEffectUpdateDecorator@@@0@@Z ; std::_Destroy_range<std::allocator<NEffectUpdateDecorator::CTextureAnimationCWDecorator *> >
PUBLIC	??$_Destroy_range@V?$allocator@PAVCTextureAnimationCCWDecorator@NEffectUpdateDecorator@@@std@@@std@@YAXPAPAVCTextureAnimationCCWDecorator@NEffectUpdateDecorator@@QAPAV12@AAV?$allocator@PAVCTextureAnimationCCWDecorator@NEffectUpdateDecorator@@@0@@Z ; std::_Destroy_range<std::allocator<NEffectUpdateDecorator::CTextureAnimationCCWDecorator *> >
PUBLIC	??$_Destroy_range@V?$allocator@PAVCTextureAnimationRandomDecorator@NEffectUpdateDecorator@@@std@@@std@@YAXPAPAVCTextureAnimationRandomDecorator@NEffectUpdateDecorator@@QAPAV12@AAV?$allocator@PAVCTextureAnimationRandomDecorator@NEffectUpdateDecorator@@@0@@Z ; std::_Destroy_range<std::allocator<NEffectUpdateDecorator::CTextureAnimationRandomDecorator *> >
PUBLIC	??$_Destroy_range@V?$allocator@PAVCAirResistanceDecorator@NEffectUpdateDecorator@@@std@@@std@@YAXPAPAVCAirResistanceDecorator@NEffectUpdateDecorator@@QAPAV12@AAV?$allocator@PAVCAirResistanceDecorator@NEffectUpdateDecorator@@@0@@Z ; std::_Destroy_range<std::allocator<NEffectUpdateDecorator::CAirResistanceDecorator *> >
PUBLIC	??$_Destroy_range@V?$allocator@PAVCGravityDecorator@NEffectUpdateDecorator@@@std@@@std@@YAXPAPAVCGravityDecorator@NEffectUpdateDecorator@@QAPAV12@AAV?$allocator@PAVCGravityDecorator@NEffectUpdateDecorator@@@0@@Z ; std::_Destroy_range<std::allocator<NEffectUpdateDecorator::CGravityDecorator *> >
PUBLIC	??$_Destroy_range@V?$allocator@PAVCRotationDecorator@NEffectUpdateDecorator@@@std@@@std@@YAXPAPAVCRotationDecorator@NEffectUpdateDecorator@@QAPAV12@AAV?$allocator@PAVCRotationDecorator@NEffectUpdateDecorator@@@0@@Z ; std::_Destroy_range<std::allocator<NEffectUpdateDecorator::CRotationDecorator *> >
PUBLIC	??$_Destroy_range@V?$allocator@PAV?$CTimeEventDecorator@M@NEffectUpdateDecorator@@@std@@@std@@YAXPAPAV?$CTimeEventDecorator@M@NEffectUpdateDecorator@@QAPAV12@AAV?$allocator@PAV?$CTimeEventDecorator@M@NEffectUpdateDecorator@@@0@@Z ; std::_Destroy_range<std::allocator<NEffectUpdateDecorator::CTimeEventDecorator<float> *> >
PUBLIC	??$_Destroy_range@V?$allocator@PAV?$CTimeEventDecorator@UDWORDCOLOR@@@NEffectUpdateDecorator@@@std@@@std@@YAXPAPAV?$CTimeEventDecorator@UDWORDCOLOR@@@NEffectUpdateDecorator@@QAPAV12@AAV?$allocator@PAV?$CTimeEventDecorator@UDWORDCOLOR@@@NEffectUpdateDecorator@@@0@@Z ; std::_Destroy_range<std::allocator<NEffectUpdateDecorator::CTimeEventDecorator<DWORDCOLOR> *> >
PUBLIC	??$_Emplace@ABM@?$_Tree@V?$_Tset_traits@MU?$less@M@std@@V?$allocator@M@2@$0A@@std@@@std@@IAE?AU?$pair@PAU?$_Tree_node@MPAX@std@@_N@1@ABM@Z ; std::_Tree<std::_Tset_traits<float,std::less<float>,std::allocator<float>,0> >::_Emplace<float const &>
PUBLIC	??$_Erase_tree@V?$allocator@U?$_Tree_node@MPAX@std@@@std@@@?$_Tree_val@U?$_Tree_simple_types@M@std@@@std@@QAEXAAV?$allocator@U?$_Tree_node@MPAX@std@@@1@PAU?$_Tree_node@MPAX@1@@Z ; std::_Tree_val<std::_Tree_simple_types<float> >::_Erase_tree<std::allocator<std::_Tree_node<float,void *> > >
PUBLIC	??$_Freenode0@V?$allocator@U?$_Tree_node@MPAX@std@@@std@@@?$_Tree_node@MPAX@std@@SAXAAV?$allocator@U?$_Tree_node@MPAX@std@@@1@PAU01@@Z ; std::_Tree_node<float,void *>::_Freenode0<std::allocator<std::_Tree_node<float,void *> > >
PUBLIC	??$_Construct_in_place@PAU?$_Tree_node@MPAX@std@@ABQAU12@@std@@YAXAAPAU?$_Tree_node@MPAX@0@ABQAU10@@Z ; std::_Construct_in_place<std::_Tree_node<float,void *> *,std::_Tree_node<float,void *> * const &>
PUBLIC	??$_Const_cast@$$CBV?$CTimeEvent@M@@@std@@YAPAV?$CTimeEvent@M@@PBV1@@Z ; std::_Const_cast<CTimeEvent<float> const >
PUBLIC	??$_Uninitialized_move@PAPAVCHeaderDecorator@NEffectUpdateDecorator@@V?$allocator@PAVCHeaderDecorator@NEffectUpdateDecorator@@@std@@@std@@YAPAPAVCHeaderDecorator@NEffectUpdateDecorator@@QAPAV12@0PAPAV12@AAV?$allocator@PAVCHeaderDecorator@NEffectUpdateDecorator@@@0@@Z ; std::_Uninitialized_move<NEffectUpdateDecorator::CHeaderDecorator * *,std::allocator<NEffectUpdateDecorator::CHeaderDecorator *> >
PUBLIC	??$_Uninitialized_move@PAPAVCNullDecorator@NEffectUpdateDecorator@@V?$allocator@PAVCNullDecorator@NEffectUpdateDecorator@@@std@@@std@@YAPAPAVCNullDecorator@NEffectUpdateDecorator@@QAPAV12@0PAPAV12@AAV?$allocator@PAVCNullDecorator@NEffectUpdateDecorator@@@0@@Z ; std::_Uninitialized_move<NEffectUpdateDecorator::CNullDecorator * *,std::allocator<NEffectUpdateDecorator::CNullDecorator *> >
PUBLIC	??$_Uninitialized_move@PAPAVCTextureAnimationCWDecorator@NEffectUpdateDecorator@@V?$allocator@PAVCTextureAnimationCWDecorator@NEffectUpdateDecorator@@@std@@@std@@YAPAPAVCTextureAnimationCWDecorator@NEffectUpdateDecorator@@QAPAV12@0PAPAV12@AAV?$allocator@PAVCTextureAnimationCWDecorator@NEffectUpdateDecorator@@@0@@Z ; std::_Uninitialized_move<NEffectUpdateDecorator::CTextureAnimationCWDecorator * *,std::allocator<NEffectUpdateDecorator::CTextureAnimationCWDecorator *> >
PUBLIC	??$_Uninitialized_move@PAPAVCTextureAnimationCCWDecorator@NEffectUpdateDecorator@@V?$allocator@PAVCTextureAnimationCCWDecorator@NEffectUpdateDecorator@@@std@@@std@@YAPAPAVCTextureAnimationCCWDecorator@NEffectUpdateDecorator@@QAPAV12@0PAPAV12@AAV?$allocator@PAVCTextureAnimationCCWDecorator@NEffectUpdateDecorator@@@0@@Z ; std::_Uninitialized_move<NEffectUpdateDecorator::CTextureAnimationCCWDecorator * *,std::allocator<NEffectUpdateDecorator::CTextureAnimationCCWDecorator *> >
PUBLIC	??$_Uninitialized_move@PAPAVCTextureAnimationRandomDecorator@NEffectUpdateDecorator@@V?$allocator@PAVCTextureAnimationRandomDecorator@NEffectUpdateDecorator@@@std@@@std@@YAPAPAVCTextureAnimationRandomDecorator@NEffectUpdateDecorator@@QAPAV12@0PAPAV12@AAV?$allocator@PAVCTextureAnimationRandomDecorator@NEffectUpdateDecorator@@@0@@Z ; std::_Uninitialized_move<NEffectUpdateDecorator::CTextureAnimationRandomDecorator * *,std::allocator<NEffectUpdateDecorator::CTextureAnimationRandomDecorator *> >
PUBLIC	??$_Uninitialized_move@PAPAVCAirResistanceDecorator@NEffectUpdateDecorator@@V?$allocator@PAVCAirResistanceDecorator@NEffectUpdateDecorator@@@std@@@std@@YAPAPAVCAirResistanceDecorator@NEffectUpdateDecorator@@QAPAV12@0PAPAV12@AAV?$allocator@PAVCAirResistanceDecorator@NEffectUpdateDecorator@@@0@@Z ; std::_Uninitialized_move<NEffectUpdateDecorator::CAirResistanceDecorator * *,std::allocator<NEffectUpdateDecorator::CAirResistanceDecorator *> >
PUBLIC	??$_Uninitialized_move@PAPAVCGravityDecorator@NEffectUpdateDecorator@@V?$allocator@PAVCGravityDecorator@NEffectUpdateDecorator@@@std@@@std@@YAPAPAVCGravityDecorator@NEffectUpdateDecorator@@QAPAV12@0PAPAV12@AAV?$allocator@PAVCGravityDecorator@NEffectUpdateDecorator@@@0@@Z ; std::_Uninitialized_move<NEffectUpdateDecorator::CGravityDecorator * *,std::allocator<NEffectUpdateDecorator::CGravityDecorator *> >
PUBLIC	??$_Uninitialized_move@PAPAVCRotationDecorator@NEffectUpdateDecorator@@V?$allocator@PAVCRotationDecorator@NEffectUpdateDecorator@@@std@@@std@@YAPAPAVCRotationDecorator@NEffectUpdateDecorator@@QAPAV12@0PAPAV12@AAV?$allocator@PAVCRotationDecorator@NEffectUpdateDecorator@@@0@@Z ; std::_Uninitialized_move<NEffectUpdateDecorator::CRotationDecorator * *,std::allocator<NEffectUpdateDecorator::CRotationDecorator *> >
PUBLIC	??$_Uninitialized_move@PAPAV?$CTimeEventDecorator@M@NEffectUpdateDecorator@@V?$allocator@PAV?$CTimeEventDecorator@M@NEffectUpdateDecorator@@@std@@@std@@YAPAPAV?$CTimeEventDecorator@M@NEffectUpdateDecorator@@QAPAV12@0PAPAV12@AAV?$allocator@PAV?$CTimeEventDecorator@M@NEffectUpdateDecorator@@@0@@Z ; std::_Uninitialized_move<NEffectUpdateDecorator::CTimeEventDecorator<float> * *,std::allocator<NEffectUpdateDecorator::CTimeEventDecorator<float> *> >
PUBLIC	??$_Uninitialized_move@PAPAV?$CTimeEventDecorator@UDWORDCOLOR@@@NEffectUpdateDecorator@@V?$allocator@PAV?$CTimeEventDecorator@UDWORDCOLOR@@@NEffectUpdateDecorator@@@std@@@std@@YAPAPAV?$CTimeEventDecorator@UDWORDCOLOR@@@NEffectUpdateDecorator@@QAPAV12@0PAPAV12@AAV?$allocator@PAV?$CTimeEventDecorator@UDWORDCOLOR@@@NEffectUpdateDecorator@@@0@@Z ; std::_Uninitialized_move<NEffectUpdateDecorator::CTimeEventDecorator<DWORDCOLOR> * *,std::allocator<NEffectUpdateDecorator::CTimeEventDecorator<DWORDCOLOR> *> >
PUBLIC	??$_Uninitialized_move@PAPAVCParticleSystemData@@V?$allocator@PAVCParticleSystemData@@@std@@@std@@YAPAPAVCParticleSystemData@@QAPAV1@0PAPAV1@AAV?$allocator@PAVCParticleSystemData@@@0@@Z ; std::_Uninitialized_move<CParticleSystemData * *,std::allocator<CParticleSystemData *> >
PUBLIC	??$_Uninitialized_move@PAV?$CTimeEvent@UDWORDCOLOR@@@@V?$allocator@V?$CTimeEvent@UDWORDCOLOR@@@@@std@@@std@@YAPAV?$CTimeEvent@UDWORDCOLOR@@@@QAV1@0PAV1@AAV?$allocator@V?$CTimeEvent@UDWORDCOLOR@@@@@0@@Z ; std::_Uninitialized_move<CTimeEvent<DWORDCOLOR> *,std::allocator<CTimeEvent<DWORDCOLOR> > >
PUBLIC	??$_Uninitialized_move@PAV?$CTimeEvent@M@@V?$allocator@V?$CTimeEvent@M@@@std@@@std@@YAPAV?$CTimeEvent@M@@QAV1@0PAV1@AAV?$allocator@V?$CTimeEvent@M@@@0@@Z ; std::_Uninitialized_move<CTimeEvent<float> *,std::allocator<CTimeEvent<float> > >
PUBLIC	??$_Uninitialized_copy@PAV?$CTimeEvent@UDWORDCOLOR@@@@V?$allocator@V?$CTimeEvent@UDWORDCOLOR@@@@@std@@@std@@YAPAV?$CTimeEvent@UDWORDCOLOR@@@@QAV1@0PAV1@AAV?$allocator@V?$CTimeEvent@UDWORDCOLOR@@@@@0@@Z ; std::_Uninitialized_copy<CTimeEvent<DWORDCOLOR> *,std::allocator<CTimeEvent<DWORDCOLOR> > >
PUBLIC	??$_Find_lower_bound@M@?$_Tree@V?$_Tset_traits@MU?$less@M@std@@V?$allocator@M@2@$0A@@std@@@std@@IBE?AU?$_Tree_find_result@PAU?$_Tree_node@MPAX@std@@@1@ABM@Z ; std::_Tree<std::_Tset_traits<float,std::less<float>,std::allocator<float>,0> >::_Find_lower_bound<float>
PUBLIC	?_Allocate@?$_Alloc_construct_ptr@V?$allocator@U?$_Tree_node@MPAX@std@@@std@@@std@@QAEXXZ ; std::_Alloc_construct_ptr<std::allocator<std::_Tree_node<float,void *> > >::_Allocate
PUBLIC	??1?$_Alloc_construct_ptr@V?$allocator@U?$_Tree_node@MPAX@std@@@std@@@std@@QAE@XZ ; std::_Alloc_construct_ptr<std::allocator<std::_Tree_node<float,void *> > >::~_Alloc_construct_ptr<std::allocator<std::_Tree_node<float,void *> > >
PUBLIC	??1?$_Tree_temp_node@V?$allocator@U?$_Tree_node@MPAX@std@@@std@@@std@@QAE@XZ ; std::_Tree_temp_node<std::allocator<std::_Tree_node<float,void *> > >::~_Tree_temp_node<std::allocator<std::_Tree_node<float,void *> > >
PUBLIC	??$?0ABM@?$_Tree_temp_node@V?$allocator@U?$_Tree_node@MPAX@std@@@std@@@std@@QAE@AAV?$allocator@U?$_Tree_node@MPAX@std@@@1@PAU?$_Tree_node@MPAX@1@ABM@Z ; std::_Tree_temp_node<std::allocator<std::_Tree_node<float,void *> > >::_Tree_temp_node<std::allocator<std::_Tree_node<float,void *> > ><float const &>
PUBLIC	??$equal_range@V?$_Vector_iterator@V?$_Vector_val@U?$_Simple_types@V?$CTimeEvent@M@@@std@@@std@@@std@@MU?$less@X@2@@std@@YA?AU?$pair@V?$_Vector_iterator@V?$_Vector_val@U?$_Simple_types@V?$CTimeEvent@M@@@std@@@std@@@std@@V12@@0@V?$_Vector_iterator@V?$_Vector_val@U?$_Simple_types@V?$CTimeEvent@M@@@std@@@std@@@0@0ABMU?$less@X@0@@Z ; std::equal_range<std::_Vector_iterator<std::_Vector_val<std::_Simple_types<CTimeEvent<float> > > >,float,std::less<void> >
PUBLIC	??$_Destroy_in_place@PAU?$_Tree_node@MPAX@std@@@std@@YAXAAPAU?$_Tree_node@MPAX@0@@Z ; std::_Destroy_in_place<std::_Tree_node<float,void *> *>
PUBLIC	??$_Copy_memmove@PAPAVCHeaderDecorator@NEffectUpdateDecorator@@PAPAV12@@std@@YAPAPAVCHeaderDecorator@NEffectUpdateDecorator@@PAPAV12@00@Z ; std::_Copy_memmove<NEffectUpdateDecorator::CHeaderDecorator * *,NEffectUpdateDecorator::CHeaderDecorator * *>
PUBLIC	??$_Copy_memmove@PAPAVCNullDecorator@NEffectUpdateDecorator@@PAPAV12@@std@@YAPAPAVCNullDecorator@NEffectUpdateDecorator@@PAPAV12@00@Z ; std::_Copy_memmove<NEffectUpdateDecorator::CNullDecorator * *,NEffectUpdateDecorator::CNullDecorator * *>
PUBLIC	??$_Copy_memmove@PAPAVCTextureAnimationCWDecorator@NEffectUpdateDecorator@@PAPAV12@@std@@YAPAPAVCTextureAnimationCWDecorator@NEffectUpdateDecorator@@PAPAV12@00@Z ; std::_Copy_memmove<NEffectUpdateDecorator::CTextureAnimationCWDecorator * *,NEffectUpdateDecorator::CTextureAnimationCWDecorator * *>
PUBLIC	??$_Copy_memmove@PAPAVCTextureAnimationCCWDecorator@NEffectUpdateDecorator@@PAPAV12@@std@@YAPAPAVCTextureAnimationCCWDecorator@NEffectUpdateDecorator@@PAPAV12@00@Z ; std::_Copy_memmove<NEffectUpdateDecorator::CTextureAnimationCCWDecorator * *,NEffectUpdateDecorator::CTextureAnimationCCWDecorator * *>
PUBLIC	??$_Copy_memmove@PAPAVCTextureAnimationRandomDecorator@NEffectUpdateDecorator@@PAPAV12@@std@@YAPAPAVCTextureAnimationRandomDecorator@NEffectUpdateDecorator@@PAPAV12@00@Z ; std::_Copy_memmove<NEffectUpdateDecorator::CTextureAnimationRandomDecorator * *,NEffectUpdateDecorator::CTextureAnimationRandomDecorator * *>
PUBLIC	??$_Copy_memmove@PAPAVCAirResistanceDecorator@NEffectUpdateDecorator@@PAPAV12@@std@@YAPAPAVCAirResistanceDecorator@NEffectUpdateDecorator@@PAPAV12@00@Z ; std::_Copy_memmove<NEffectUpdateDecorator::CAirResistanceDecorator * *,NEffectUpdateDecorator::CAirResistanceDecorator * *>
PUBLIC	??$_Copy_memmove@PAPAVCGravityDecorator@NEffectUpdateDecorator@@PAPAV12@@std@@YAPAPAVCGravityDecorator@NEffectUpdateDecorator@@PAPAV12@00@Z ; std::_Copy_memmove<NEffectUpdateDecorator::CGravityDecorator * *,NEffectUpdateDecorator::CGravityDecorator * *>
PUBLIC	??$_Copy_memmove@PAPAVCRotationDecorator@NEffectUpdateDecorator@@PAPAV12@@std@@YAPAPAVCRotationDecorator@NEffectUpdateDecorator@@PAPAV12@00@Z ; std::_Copy_memmove<NEffectUpdateDecorator::CRotationDecorator * *,NEffectUpdateDecorator::CRotationDecorator * *>
PUBLIC	??$_Copy_memmove@PAPAV?$CTimeEventDecorator@M@NEffectUpdateDecorator@@PAPAV12@@std@@YAPAPAV?$CTimeEventDecorator@M@NEffectUpdateDecorator@@PAPAV12@00@Z ; std::_Copy_memmove<NEffectUpdateDecorator::CTimeEventDecorator<float> * *,NEffectUpdateDecorator::CTimeEventDecorator<float> * *>
PUBLIC	??$_Copy_memmove@PAPAV?$CTimeEventDecorator@UDWORDCOLOR@@@NEffectUpdateDecorator@@PAPAV12@@std@@YAPAPAV?$CTimeEventDecorator@UDWORDCOLOR@@@NEffectUpdateDecorator@@PAPAV12@00@Z ; std::_Copy_memmove<NEffectUpdateDecorator::CTimeEventDecorator<DWORDCOLOR> * *,NEffectUpdateDecorator::CTimeEventDecorator<DWORDCOLOR> * *>
PUBLIC	??$_Copy_memmove@PAPAVCParticleSystemData@@PAPAV1@@std@@YAPAPAVCParticleSystemData@@PAPAV1@00@Z ; std::_Copy_memmove<CParticleSystemData * *,CParticleSystemData * *>
PUBLIC	??1?$_Uninitialized_backout_al@V?$allocator@V?$CTimeEvent@UDWORDCOLOR@@@@@std@@@std@@QAE@XZ ; std::_Uninitialized_backout_al<std::allocator<CTimeEvent<DWORDCOLOR> > >::~_Uninitialized_backout_al<std::allocator<CTimeEvent<DWORDCOLOR> > >
PUBLIC	??$_Emplace_back@V?$CTimeEvent@UDWORDCOLOR@@@@@?$_Uninitialized_backout_al@V?$allocator@V?$CTimeEvent@UDWORDCOLOR@@@@@std@@@std@@QAEX$$QAV?$CTimeEvent@UDWORDCOLOR@@@@@Z ; std::_Uninitialized_backout_al<std::allocator<CTimeEvent<DWORDCOLOR> > >::_Emplace_back<CTimeEvent<DWORDCOLOR> >
PUBLIC	??$_Emplace_back@AAV?$CTimeEvent@UDWORDCOLOR@@@@@?$_Uninitialized_backout_al@V?$allocator@V?$CTimeEvent@UDWORDCOLOR@@@@@std@@@std@@QAEXAAV?$CTimeEvent@UDWORDCOLOR@@@@@Z ; std::_Uninitialized_backout_al<std::allocator<CTimeEvent<DWORDCOLOR> > >::_Emplace_back<CTimeEvent<DWORDCOLOR> &>
PUBLIC	??$_Construct_in_place@PAU?$_Tree_node@MPAX@std@@AAPAU12@@std@@YAXAAPAU?$_Tree_node@MPAX@0@0@Z ; std::_Construct_in_place<std::_Tree_node<float,void *> *,std::_Tree_node<float,void *> * &>
PUBLIC	??$lower_bound@PAV?$CTimeEvent@M@@MU?$less@X@std@@@std@@YAPAV?$CTimeEvent@M@@PAV1@QAV1@ABMU?$less@X@0@@Z ; std::lower_bound<CTimeEvent<float> *,float,std::less<void> >
PUBLIC	??$upper_bound@PAV?$CTimeEvent@M@@MU?$less@X@std@@@std@@YAPAV?$CTimeEvent@M@@PAV1@0ABMU?$less@X@0@@Z ; std::upper_bound<CTimeEvent<float> *,float,std::less<void> >
PUBLIC	??$_Refancy@PAV?$CTimeEvent@M@@$0A@@std@@YAPAV?$CTimeEvent@M@@PAV1@@Z ; std::_Refancy<CTimeEvent<float> *,0>
PUBLIC	??_ECHeaderDecorator@NEffectUpdateDecorator@@WM@AEPAXI@Z ; [thunk]:NEffectUpdateDecorator::CHeaderDecorator::`vector deleting destructor'
PUBLIC	??_ECNullDecorator@NEffectUpdateDecorator@@WM@AEPAXI@Z ; [thunk]:NEffectUpdateDecorator::CNullDecorator::`vector deleting destructor'
PUBLIC	??_E?$CTimeEventDecorator@M@NEffectUpdateDecorator@@WM@AEPAXI@Z ; [thunk]:NEffectUpdateDecorator::CTimeEventDecorator<float>::`vector deleting destructor'
PUBLIC	??_E?$CTimeEventDecorator@UDWORDCOLOR@@@NEffectUpdateDecorator@@WM@AEPAXI@Z ; [thunk]:NEffectUpdateDecorator::CTimeEventDecorator<DWORDCOLOR>::`vector deleting destructor'
PUBLIC	??_ECTextureAnimationCWDecorator@NEffectUpdateDecorator@@WM@AEPAXI@Z ; [thunk]:NEffectUpdateDecorator::CTextureAnimationCWDecorator::`vector deleting destructor'
PUBLIC	??_ECTextureAnimationCCWDecorator@NEffectUpdateDecorator@@WM@AEPAXI@Z ; [thunk]:NEffectUpdateDecorator::CTextureAnimationCCWDecorator::`vector deleting destructor'
PUBLIC	??_ECTextureAnimationRandomDecorator@NEffectUpdateDecorator@@WM@AEPAXI@Z ; [thunk]:NEffectUpdateDecorator::CTextureAnimationRandomDecorator::`vector deleting destructor'
PUBLIC	??_ECAirResistanceDecorator@NEffectUpdateDecorator@@WM@AEPAXI@Z ; [thunk]:NEffectUpdateDecorator::CAirResistanceDecorator::`vector deleting destructor'
PUBLIC	??_ECGravityDecorator@NEffectUpdateDecorator@@WM@AEPAXI@Z ; [thunk]:NEffectUpdateDecorator::CGravityDecorator::`vector deleting destructor'
PUBLIC	??_ECRotationDecorator@NEffectUpdateDecorator@@WM@AEPAXI@Z ; [thunk]:NEffectUpdateDecorator::CRotationDecorator::`vector deleting destructor'
PUBLIC	??_7exception@std@@6B@				; std::exception::`vftable'
PUBLIC	??_C@_0BC@EOODALEL@Unknown?5exception@		; `string'
PUBLIC	??_7bad_alloc@std@@6B@				; std::bad_alloc::`vftable'
PUBLIC	??_7bad_array_new_length@std@@6B@		; std::bad_array_new_length::`vftable'
PUBLIC	??_C@_0BF@KINCDENJ@bad?5array?5new?5length@	; `string'
PUBLIC	__TI3?AVbad_array_new_length@std@@
PUBLIC	__CTA3?AVbad_array_new_length@std@@
PUBLIC	??_R0?AVbad_array_new_length@std@@@8		; std::bad_array_new_length `RTTI Type Descriptor'
PUBLIC	__CT??_R0?AVbad_array_new_length@std@@@8??0bad_array_new_length@std@@QAE@ABV01@@Z12
PUBLIC	??_R0?AVbad_alloc@std@@@8			; std::bad_alloc `RTTI Type Descriptor'
PUBLIC	__CT??_R0?AVbad_alloc@std@@@8??0bad_alloc@std@@QAE@ABV01@@Z12
PUBLIC	??_R0?AVexception@std@@@8			; std::exception `RTTI Type Descriptor'
PUBLIC	__CT??_R0?AVexception@std@@@8??0exception@std@@QAE@ABV01@@Z12
PUBLIC	??_C@_0BA@JFNIOLAK@string?5too?5long@		; `string'
PUBLIC	??_C@_0BB@GCADKGJO@map?1set?5too?5long@		; `string'
PUBLIC	??_R4exception@std@@6B@				; std::exception::`RTTI Complete Object Locator'
PUBLIC	??_R3exception@std@@8				; std::exception::`RTTI Class Hierarchy Descriptor'
PUBLIC	??_R2exception@std@@8				; std::exception::`RTTI Base Class Array'
PUBLIC	??_R1A@?0A@EA@exception@std@@8			; std::exception::`RTTI Base Class Descriptor at (0,-1,0,64)'
PUBLIC	??_R4bad_alloc@std@@6B@				; std::bad_alloc::`RTTI Complete Object Locator'
PUBLIC	??_R3bad_alloc@std@@8				; std::bad_alloc::`RTTI Class Hierarchy Descriptor'
PUBLIC	??_R2bad_alloc@std@@8				; std::bad_alloc::`RTTI Base Class Array'
PUBLIC	??_R1A@?0A@EA@bad_alloc@std@@8			; std::bad_alloc::`RTTI Base Class Descriptor at (0,-1,0,64)'
PUBLIC	??_R4bad_array_new_length@std@@6B@		; std::bad_array_new_length::`RTTI Complete Object Locator'
PUBLIC	??_R3bad_array_new_length@std@@8		; std::bad_array_new_length::`RTTI Class Hierarchy Descriptor'
PUBLIC	??_R2bad_array_new_length@std@@8		; std::bad_array_new_length::`RTTI Base Class Array'
PUBLIC	??_R1A@?0A@EA@bad_array_new_length@std@@8	; std::bad_array_new_length::`RTTI Base Class Descriptor at (0,-1,0,64)'
PUBLIC	?ms_kPool@CParticleSystemData@@2V?$CDynamicPool@VCParticleSystemData@@@@A ; CParticleSystemData::ms_kPool
PUBLIC	??_7CParticleSystemData@@6B@			; CParticleSystemData::`vftable'
PUBLIC	??_7CBaseDecorator@NEffectUpdateDecorator@@6B@	; NEffectUpdateDecorator::CBaseDecorator::`vftable'
PUBLIC	?ms_kPool@?$CPooledObject@VCHeaderDecorator@NEffectUpdateDecorator@@@@1V?$CDynamicPoolEx@VCHeaderDecorator@NEffectUpdateDecorator@@@@A ; CPooledObject<NEffectUpdateDecorator::CHeaderDecorator>::ms_kPool
PUBLIC	??_7?$CPooledObject@VCHeaderDecorator@NEffectUpdateDecorator@@@@6B@ ; CPooledObject<NEffectUpdateDecorator::CHeaderDecorator>::`vftable'
PUBLIC	??_7CHeaderDecorator@NEffectUpdateDecorator@@6BCBaseDecorator@1@@ ; NEffectUpdateDecorator::CHeaderDecorator::`vftable'
PUBLIC	??_7CHeaderDecorator@NEffectUpdateDecorator@@6B?$CPooledObject@VCHeaderDecorator@NEffectUpdateDecorator@@@@@ ; NEffectUpdateDecorator::CHeaderDecorator::`vftable'
PUBLIC	?ms_kPool@?$CPooledObject@VCNullDecorator@NEffectUpdateDecorator@@@@1V?$CDynamicPoolEx@VCNullDecorator@NEffectUpdateDecorator@@@@A ; CPooledObject<NEffectUpdateDecorator::CNullDecorator>::ms_kPool
PUBLIC	??_7?$CPooledObject@VCNullDecorator@NEffectUpdateDecorator@@@@6B@ ; CPooledObject<NEffectUpdateDecorator::CNullDecorator>::`vftable'
PUBLIC	??_7CNullDecorator@NEffectUpdateDecorator@@6BCBaseDecorator@1@@ ; NEffectUpdateDecorator::CNullDecorator::`vftable'
PUBLIC	??_7CNullDecorator@NEffectUpdateDecorator@@6B?$CPooledObject@VCNullDecorator@NEffectUpdateDecorator@@@@@ ; NEffectUpdateDecorator::CNullDecorator::`vftable'
PUBLIC	?ms_kPool@?$CPooledObject@VCTextureAnimationCWDecorator@NEffectUpdateDecorator@@@@1V?$CDynamicPoolEx@VCTextureAnimationCWDecorator@NEffectUpdateDecorator@@@@A ; CPooledObject<NEffectUpdateDecorator::CTextureAnimationCWDecorator>::ms_kPool
PUBLIC	??_7?$CPooledObject@VCTextureAnimationCWDecorator@NEffectUpdateDecorator@@@@6B@ ; CPooledObject<NEffectUpdateDecorator::CTextureAnimationCWDecorator>::`vftable'
PUBLIC	??_7CTextureAnimationCWDecorator@NEffectUpdateDecorator@@6BCBaseDecorator@1@@ ; NEffectUpdateDecorator::CTextureAnimationCWDecorator::`vftable'
PUBLIC	??_7CTextureAnimationCWDecorator@NEffectUpdateDecorator@@6B?$CPooledObject@VCTextureAnimationCWDecorator@NEffectUpdateDecorator@@@@@ ; NEffectUpdateDecorator::CTextureAnimationCWDecorator::`vftable'
PUBLIC	?ms_kPool@?$CPooledObject@VCTextureAnimationCCWDecorator@NEffectUpdateDecorator@@@@1V?$CDynamicPoolEx@VCTextureAnimationCCWDecorator@NEffectUpdateDecorator@@@@A ; CPooledObject<NEffectUpdateDecorator::CTextureAnimationCCWDecorator>::ms_kPool
PUBLIC	??_7?$CPooledObject@VCTextureAnimationCCWDecorator@NEffectUpdateDecorator@@@@6B@ ; CPooledObject<NEffectUpdateDecorator::CTextureAnimationCCWDecorator>::`vftable'
PUBLIC	??_7CTextureAnimationCCWDecorator@NEffectUpdateDecorator@@6BCBaseDecorator@1@@ ; NEffectUpdateDecorator::CTextureAnimationCCWDecorator::`vftable'
PUBLIC	??_7CTextureAnimationCCWDecorator@NEffectUpdateDecorator@@6B?$CPooledObject@VCTextureAnimationCCWDecorator@NEffectUpdateDecorator@@@@@ ; NEffectUpdateDecorator::CTextureAnimationCCWDecorator::`vftable'
PUBLIC	?ms_kPool@?$CPooledObject@VCTextureAnimationRandomDecorator@NEffectUpdateDecorator@@@@1V?$CDynamicPoolEx@VCTextureAnimationRandomDecorator@NEffectUpdateDecorator@@@@A ; CPooledObject<NEffectUpdateDecorator::CTextureAnimationRandomDecorator>::ms_kPool
PUBLIC	??_7?$CPooledObject@VCTextureAnimationRandomDecorator@NEffectUpdateDecorator@@@@6B@ ; CPooledObject<NEffectUpdateDecorator::CTextureAnimationRandomDecorator>::`vftable'
PUBLIC	??_7CTextureAnimationRandomDecorator@NEffectUpdateDecorator@@6BCBaseDecorator@1@@ ; NEffectUpdateDecorator::CTextureAnimationRandomDecorator::`vftable'
PUBLIC	??_7CTextureAnimationRandomDecorator@NEffectUpdateDecorator@@6B?$CPooledObject@VCTextureAnimationRandomDecorator@NEffectUpdateDecorator@@@@@ ; NEffectUpdateDecorator::CTextureAnimationRandomDecorator::`vftable'
PUBLIC	?ms_kPool@?$CPooledObject@VCAirResistanceDecorator@NEffectUpdateDecorator@@@@1V?$CDynamicPoolEx@VCAirResistanceDecorator@NEffectUpdateDecorator@@@@A ; CPooledObject<NEffectUpdateDecorator::CAirResistanceDecorator>::ms_kPool
PUBLIC	??_7?$CPooledObject@VCAirResistanceDecorator@NEffectUpdateDecorator@@@@6B@ ; CPooledObject<NEffectUpdateDecorator::CAirResistanceDecorator>::`vftable'
PUBLIC	??_7CAirResistanceDecorator@NEffectUpdateDecorator@@6BCBaseDecorator@1@@ ; NEffectUpdateDecorator::CAirResistanceDecorator::`vftable'
PUBLIC	??_7CAirResistanceDecorator@NEffectUpdateDecorator@@6B?$CPooledObject@VCAirResistanceDecorator@NEffectUpdateDecorator@@@@@ ; NEffectUpdateDecorator::CAirResistanceDecorator::`vftable'
PUBLIC	?ms_kPool@?$CPooledObject@VCGravityDecorator@NEffectUpdateDecorator@@@@1V?$CDynamicPoolEx@VCGravityDecorator@NEffectUpdateDecorator@@@@A ; CPooledObject<NEffectUpdateDecorator::CGravityDecorator>::ms_kPool
PUBLIC	??_7?$CPooledObject@VCGravityDecorator@NEffectUpdateDecorator@@@@6B@ ; CPooledObject<NEffectUpdateDecorator::CGravityDecorator>::`vftable'
PUBLIC	??_7CGravityDecorator@NEffectUpdateDecorator@@6BCBaseDecorator@1@@ ; NEffectUpdateDecorator::CGravityDecorator::`vftable'
PUBLIC	??_7CGravityDecorator@NEffectUpdateDecorator@@6B?$CPooledObject@VCGravityDecorator@NEffectUpdateDecorator@@@@@ ; NEffectUpdateDecorator::CGravityDecorator::`vftable'
PUBLIC	?ms_kPool@?$CPooledObject@VCRotationDecorator@NEffectUpdateDecorator@@@@1V?$CDynamicPoolEx@VCRotationDecorator@NEffectUpdateDecorator@@@@A ; CPooledObject<NEffectUpdateDecorator::CRotationDecorator>::ms_kPool
PUBLIC	??_7?$CPooledObject@VCRotationDecorator@NEffectUpdateDecorator@@@@6B@ ; CPooledObject<NEffectUpdateDecorator::CRotationDecorator>::`vftable'
PUBLIC	??_7CRotationDecorator@NEffectUpdateDecorator@@6BCBaseDecorator@1@@ ; NEffectUpdateDecorator::CRotationDecorator::`vftable'
PUBLIC	??_7CRotationDecorator@NEffectUpdateDecorator@@6B?$CPooledObject@VCRotationDecorator@NEffectUpdateDecorator@@@@@ ; NEffectUpdateDecorator::CRotationDecorator::`vftable'
PUBLIC	??_7?$CDynamicPool@VCParticleSystemData@@@@6B@	; CDynamicPool<CParticleSystemData>::`vftable'
PUBLIC	??_C@_0BA@BHDCJGBH@emitterproperty@		; `string'
PUBLIC	??_C@_0BB@GFCINCLJ@maxemissioncount@		; `string'
PUBLIC	??_C@_0M@CMAFBHMP@cyclelength@			; `string'
PUBLIC	??_C@_0BA@HFAFNHAP@cycleloopenable@		; `string'
PUBLIC	??_C@_09HBCOMICA@loopcount@			; `string'
PUBLIC	??_C@_0N@CEDHOJLK@emittershape@			; `string'
PUBLIC	??_C@_0BE@NHCLCKPF@emitteradvancedtype@		; `string'
PUBLIC	??_C@_0N@JELCEBGI@emittingsize@			; `string'
PUBLIC	??_C@_0P@CFPFJLBH@emittingradius@		; `string'
PUBLIC	??_C@_0BI@JPHOPPGG@emitteremitfromedgeflag@	; `string'
PUBLIC	??_C@_0BC@DDGDKONG@emittingdirection@		; `string'
PUBLIC	??_C@_0BG@EOBNDMCN@timeeventemittingsize@	; `string'
PUBLIC	??_C@_0CB@BEJHCOPI@timeeventemittingangularvelocit@ ; `string'
PUBLIC	??_C@_0BM@EDKEOBKF@timeeventemittingdirectionx@	; `string'
PUBLIC	??_C@_0BM@FKLPNAOE@timeeventemittingdirectiony@	; `string'
PUBLIC	??_C@_0BM@HBJCIDCH@timeeventemittingdirectionz@	; `string'
PUBLIC	??_C@_0BK@JMDFAGCJ@timeeventemittingvelocity@	; `string'
PUBLIC	??_C@_0CA@KBEMNMAO@timeeventemissioncountpersecond@ ; `string'
PUBLIC	??_C@_0BC@IBAOECEB@timeeventlifetime@		; `string'
PUBLIC	??_C@_0P@NKCDAPOH@timeeventsizex@		; `string'
PUBLIC	??_C@_0P@MDDIDOKG@timeeventsizey@		; `string'
PUBLIC	??_C@_0BB@HGNFNICN@particleproperty@		; `string'
PUBLIC	??_C@_0N@BPEOGKBI@srcblendtype@			; `string'
PUBLIC	??_C@_0O@FMHKLBEP@destblendtype@		; `string'
PUBLIC	??_C@_0BD@DAMHAFBJ@coloroperationtype@		; `string'
PUBLIC	??_C@_0O@EJACNAIE@billboardtype@		; `string'
PUBLIC	??_C@_0N@HLMOOIDA@rotationtype@			; `string'
PUBLIC	??_C@_0O@FAOBKFID@rotationspeed@		; `string'
PUBLIC	??_C@_0BM@BGHFBHHG@rotationrandomstartingbegin@	; `string'
PUBLIC	??_C@_0BK@DKMEPDJP@rotationrandomstartingend@	; `string'
PUBLIC	??_C@_0N@JFNGIJMG@attachenable@			; `string'
PUBLIC	??_C@_0O@DFPNMBJD@stretchenable@		; `string'
PUBLIC	??_C@_0L@BIBLFGDP@texanitype@			; `string'
PUBLIC	??_C@_0M@PDIDMMDH@texanidelay@			; `string'
PUBLIC	??_C@_0BN@DIHGKMNJ@texanirandomstartframeenable@ ; `string'
PUBLIC	??_C@_07GFBFDLBM@gravity@			; `string'
PUBLIC	??_C@_0BB@BHFJHILP@timeeventgravity@		; `string'
PUBLIC	??_C@_0O@IJAIPGAL@airresistance@		; `string'
PUBLIC	??_C@_0BH@IPGEOMGJ@timeeventairresistance@	; `string'
PUBLIC	??_C@_0BA@GAPFNHG@timeeventscalex@		; `string'
PUBLIC	??_C@_0BA@BPBEGMDH@timeeventscaley@		; `string'
PUBLIC	??_C@_0BC@ICGDLNPI@timeeventcolorred@		; `string'
PUBLIC	??_C@_0BE@OFLANGNK@timeeventcolorgreen@		; `string'
PUBLIC	??_C@_0BD@KLGCJHDO@timeeventcolorblue@		; `string'
PUBLIC	??_C@_0P@KALIPJCI@timeeventalpha@		; `string'
PUBLIC	??_C@_0BC@KIMDBAHB@timeeventrotation@		; `string'
PUBLIC	??_C@_0N@HNMKMDCI@texturefiles@			; `string'
PUBLIC	?ms_kPool@?$CPooledObject@V?$CTimeEventDecorator@M@NEffectUpdateDecorator@@@@1V?$CDynamicPoolEx@V?$CTimeEventDecorator@M@NEffectUpdateDecorator@@@@A ; CPooledObject<NEffectUpdateDecorator::CTimeEventDecorator<float> >::ms_kPool
PUBLIC	??_7?$CPooledObject@V?$CTimeEventDecorator@M@NEffectUpdateDecorator@@@@6B@ ; CPooledObject<NEffectUpdateDecorator::CTimeEventDecorator<float> >::`vftable'
PUBLIC	??_7?$CTimeEventDecorator@M@NEffectUpdateDecorator@@6BCBaseDecorator@1@@ ; NEffectUpdateDecorator::CTimeEventDecorator<float>::`vftable'
PUBLIC	??_7?$CTimeEventDecorator@M@NEffectUpdateDecorator@@6B?$CPooledObject@V?$CTimeEventDecorator@M@NEffectUpdateDecorator@@@@@ ; NEffectUpdateDecorator::CTimeEventDecorator<float>::`vftable'
PUBLIC	?ms_kPool@?$CPooledObject@V?$CTimeEventDecorator@UDWORDCOLOR@@@NEffectUpdateDecorator@@@@1V?$CDynamicPoolEx@V?$CTimeEventDecorator@UDWORDCOLOR@@@NEffectUpdateDecorator@@@@A ; CPooledObject<NEffectUpdateDecorator::CTimeEventDecorator<DWORDCOLOR> >::ms_kPool
PUBLIC	??_7?$CPooledObject@V?$CTimeEventDecorator@UDWORDCOLOR@@@NEffectUpdateDecorator@@@@6B@ ; CPooledObject<NEffectUpdateDecorator::CTimeEventDecorator<DWORDCOLOR> >::`vftable'
PUBLIC	??_7?$CTimeEventDecorator@UDWORDCOLOR@@@NEffectUpdateDecorator@@6BCBaseDecorator@1@@ ; NEffectUpdateDecorator::CTimeEventDecorator<DWORDCOLOR>::`vftable'
PUBLIC	??_7?$CTimeEventDecorator@UDWORDCOLOR@@@NEffectUpdateDecorator@@6B?$CPooledObject@V?$CTimeEventDecorator@UDWORDCOLOR@@@NEffectUpdateDecorator@@@@@ ; NEffectUpdateDecorator::CTimeEventDecorator<DWORDCOLOR>::`vftable'
PUBLIC	??_7?$CDynamicPoolEx@V?$CTimeEventDecorator@UDWORDCOLOR@@@NEffectUpdateDecorator@@@@6B@ ; CDynamicPoolEx<NEffectUpdateDecorator::CTimeEventDecorator<DWORDCOLOR> >::`vftable'
PUBLIC	??_7?$CDynamicPoolEx@V?$CTimeEventDecorator@M@NEffectUpdateDecorator@@@@6B@ ; CDynamicPoolEx<NEffectUpdateDecorator::CTimeEventDecorator<float> >::`vftable'
PUBLIC	??_7?$CDynamicPoolEx@VCRotationDecorator@NEffectUpdateDecorator@@@@6B@ ; CDynamicPoolEx<NEffectUpdateDecorator::CRotationDecorator>::`vftable'
PUBLIC	??_7?$CDynamicPoolEx@VCGravityDecorator@NEffectUpdateDecorator@@@@6B@ ; CDynamicPoolEx<NEffectUpdateDecorator::CGravityDecorator>::`vftable'
PUBLIC	??_7?$CDynamicPoolEx@VCAirResistanceDecorator@NEffectUpdateDecorator@@@@6B@ ; CDynamicPoolEx<NEffectUpdateDecorator::CAirResistanceDecorator>::`vftable'
PUBLIC	??_7?$CDynamicPoolEx@VCTextureAnimationRandomDecorator@NEffectUpdateDecorator@@@@6B@ ; CDynamicPoolEx<NEffectUpdateDecorator::CTextureAnimationRandomDecorator>::`vftable'
PUBLIC	??_7?$CDynamicPoolEx@VCTextureAnimationCCWDecorator@NEffectUpdateDecorator@@@@6B@ ; CDynamicPoolEx<NEffectUpdateDecorator::CTextureAnimationCCWDecorator>::`vftable'
PUBLIC	??_7?$CDynamicPoolEx@VCTextureAnimationCWDecorator@NEffectUpdateDecorator@@@@6B@ ; CDynamicPoolEx<NEffectUpdateDecorator::CTextureAnimationCWDecorator>::`vftable'
PUBLIC	??_7?$CDynamicPoolEx@VCNullDecorator@NEffectUpdateDecorator@@@@6B@ ; CDynamicPoolEx<NEffectUpdateDecorator::CNullDecorator>::`vftable'
PUBLIC	??_7?$CDynamicPoolEx@VCHeaderDecorator@NEffectUpdateDecorator@@@@6B@ ; CDynamicPoolEx<NEffectUpdateDecorator::CHeaderDecorator>::`vftable'
PUBLIC	??_C@_0BJ@DHFDPMIM@invalid?5vector?5subscript@	; `string'
PUBLIC	??_C@_0BA@FOIKENOD@vector?5too?5long@		; `string'
PUBLIC	??_R4CParticleSystemData@@6B@			; CParticleSystemData::`RTTI Complete Object Locator'
PUBLIC	??_R0?AVCParticleSystemData@@@8			; CParticleSystemData `RTTI Type Descriptor'
PUBLIC	??_R3CParticleSystemData@@8			; CParticleSystemData::`RTTI Class Hierarchy Descriptor'
PUBLIC	??_R2CParticleSystemData@@8			; CParticleSystemData::`RTTI Base Class Array'
PUBLIC	??_R1A@?0A@EA@CParticleSystemData@@8		; CParticleSystemData::`RTTI Base Class Descriptor at (0,-1,0,64)'
PUBLIC	??_R1A@?0A@EA@CEffectElementBase@@8		; CEffectElementBase::`RTTI Base Class Descriptor at (0,-1,0,64)'
PUBLIC	??_R0?AVCEffectElementBase@@@8			; CEffectElementBase `RTTI Type Descriptor'
PUBLIC	??_R3CEffectElementBase@@8			; CEffectElementBase::`RTTI Class Hierarchy Descriptor'
PUBLIC	??_R2CEffectElementBase@@8			; CEffectElementBase::`RTTI Base Class Array'
PUBLIC	??_R4?$CDynamicPool@VCParticleSystemData@@@@6B@	; CDynamicPool<CParticleSystemData>::`RTTI Complete Object Locator'
PUBLIC	??_R0?AV?$CDynamicPool@VCParticleSystemData@@@@@8 ; CDynamicPool<CParticleSystemData> `RTTI Type Descriptor'
PUBLIC	??_R3?$CDynamicPool@VCParticleSystemData@@@@8	; CDynamicPool<CParticleSystemData>::`RTTI Class Hierarchy Descriptor'
PUBLIC	??_R2?$CDynamicPool@VCParticleSystemData@@@@8	; CDynamicPool<CParticleSystemData>::`RTTI Base Class Array'
PUBLIC	??_R1A@?0A@EA@?$CDynamicPool@VCParticleSystemData@@@@8 ; CDynamicPool<CParticleSystemData>::`RTTI Base Class Descriptor at (0,-1,0,64)'
PUBLIC	??_R4CBaseDecorator@NEffectUpdateDecorator@@6B@	; NEffectUpdateDecorator::CBaseDecorator::`RTTI Complete Object Locator'
PUBLIC	??_R0?AVCBaseDecorator@NEffectUpdateDecorator@@@8 ; NEffectUpdateDecorator::CBaseDecorator `RTTI Type Descriptor'
PUBLIC	??_R3CBaseDecorator@NEffectUpdateDecorator@@8	; NEffectUpdateDecorator::CBaseDecorator::`RTTI Class Hierarchy Descriptor'
PUBLIC	??_R2CBaseDecorator@NEffectUpdateDecorator@@8	; NEffectUpdateDecorator::CBaseDecorator::`RTTI Base Class Array'
PUBLIC	??_R1A@?0A@EA@CBaseDecorator@NEffectUpdateDecorator@@8 ; NEffectUpdateDecorator::CBaseDecorator::`RTTI Base Class Descriptor at (0,-1,0,64)'
PUBLIC	??_R4CHeaderDecorator@NEffectUpdateDecorator@@6BCBaseDecorator@1@@ ; NEffectUpdateDecorator::CHeaderDecorator::`RTTI Complete Object Locator'
PUBLIC	??_R0?AVCHeaderDecorator@NEffectUpdateDecorator@@@8 ; NEffectUpdateDecorator::CHeaderDecorator `RTTI Type Descriptor'
PUBLIC	??_R3CHeaderDecorator@NEffectUpdateDecorator@@8	; NEffectUpdateDecorator::CHeaderDecorator::`RTTI Class Hierarchy Descriptor'
PUBLIC	??_R2CHeaderDecorator@NEffectUpdateDecorator@@8	; NEffectUpdateDecorator::CHeaderDecorator::`RTTI Base Class Array'
PUBLIC	??_R1A@?0A@EA@CHeaderDecorator@NEffectUpdateDecorator@@8 ; NEffectUpdateDecorator::CHeaderDecorator::`RTTI Base Class Descriptor at (0,-1,0,64)'
PUBLIC	??_R1M@?0A@EA@?$CPooledObject@VCHeaderDecorator@NEffectUpdateDecorator@@@@8 ; CPooledObject<NEffectUpdateDecorator::CHeaderDecorator>::`RTTI Base Class Descriptor at (12,-1,0,64)'
PUBLIC	??_R0?AV?$CPooledObject@VCHeaderDecorator@NEffectUpdateDecorator@@@@@8 ; CPooledObject<NEffectUpdateDecorator::CHeaderDecorator> `RTTI Type Descriptor'
PUBLIC	??_R3?$CPooledObject@VCHeaderDecorator@NEffectUpdateDecorator@@@@8 ; CPooledObject<NEffectUpdateDecorator::CHeaderDecorator>::`RTTI Class Hierarchy Descriptor'
PUBLIC	??_R2?$CPooledObject@VCHeaderDecorator@NEffectUpdateDecorator@@@@8 ; CPooledObject<NEffectUpdateDecorator::CHeaderDecorator>::`RTTI Base Class Array'
PUBLIC	??_R1A@?0A@EA@?$CPooledObject@VCHeaderDecorator@NEffectUpdateDecorator@@@@8 ; CPooledObject<NEffectUpdateDecorator::CHeaderDecorator>::`RTTI Base Class Descriptor at (0,-1,0,64)'
PUBLIC	??_R4CHeaderDecorator@NEffectUpdateDecorator@@6B?$CPooledObject@VCHeaderDecorator@NEffectUpdateDecorator@@@@@ ; NEffectUpdateDecorator::CHeaderDecorator::`RTTI Complete Object Locator'
PUBLIC	??_R4?$CPooledObject@VCHeaderDecorator@NEffectUpdateDecorator@@@@6B@ ; CPooledObject<NEffectUpdateDecorator::CHeaderDecorator>::`RTTI Complete Object Locator'
PUBLIC	??_R4?$CDynamicPoolEx@VCHeaderDecorator@NEffectUpdateDecorator@@@@6B@ ; CDynamicPoolEx<NEffectUpdateDecorator::CHeaderDecorator>::`RTTI Complete Object Locator'
PUBLIC	??_R0?AV?$CDynamicPoolEx@VCHeaderDecorator@NEffectUpdateDecorator@@@@@8 ; CDynamicPoolEx<NEffectUpdateDecorator::CHeaderDecorator> `RTTI Type Descriptor'
PUBLIC	??_R3?$CDynamicPoolEx@VCHeaderDecorator@NEffectUpdateDecorator@@@@8 ; CDynamicPoolEx<NEffectUpdateDecorator::CHeaderDecorator>::`RTTI Class Hierarchy Descriptor'
PUBLIC	??_R2?$CDynamicPoolEx@VCHeaderDecorator@NEffectUpdateDecorator@@@@8 ; CDynamicPoolEx<NEffectUpdateDecorator::CHeaderDecorator>::`RTTI Base Class Array'
PUBLIC	??_R1A@?0A@EA@?$CDynamicPoolEx@VCHeaderDecorator@NEffectUpdateDecorator@@@@8 ; CDynamicPoolEx<NEffectUpdateDecorator::CHeaderDecorator>::`RTTI Base Class Descriptor at (0,-1,0,64)'
PUBLIC	??_R4CNullDecorator@NEffectUpdateDecorator@@6BCBaseDecorator@1@@ ; NEffectUpdateDecorator::CNullDecorator::`RTTI Complete Object Locator'
PUBLIC	??_R0?AVCNullDecorator@NEffectUpdateDecorator@@@8 ; NEffectUpdateDecorator::CNullDecorator `RTTI Type Descriptor'
PUBLIC	??_R3CNullDecorator@NEffectUpdateDecorator@@8	; NEffectUpdateDecorator::CNullDecorator::`RTTI Class Hierarchy Descriptor'
PUBLIC	??_R2CNullDecorator@NEffectUpdateDecorator@@8	; NEffectUpdateDecorator::CNullDecorator::`RTTI Base Class Array'
PUBLIC	??_R1A@?0A@EA@CNullDecorator@NEffectUpdateDecorator@@8 ; NEffectUpdateDecorator::CNullDecorator::`RTTI Base Class Descriptor at (0,-1,0,64)'
PUBLIC	??_R1M@?0A@EA@?$CPooledObject@VCNullDecorator@NEffectUpdateDecorator@@@@8 ; CPooledObject<NEffectUpdateDecorator::CNullDecorator>::`RTTI Base Class Descriptor at (12,-1,0,64)'
PUBLIC	??_R0?AV?$CPooledObject@VCNullDecorator@NEffectUpdateDecorator@@@@@8 ; CPooledObject<NEffectUpdateDecorator::CNullDecorator> `RTTI Type Descriptor'
PUBLIC	??_R3?$CPooledObject@VCNullDecorator@NEffectUpdateDecorator@@@@8 ; CPooledObject<NEffectUpdateDecorator::CNullDecorator>::`RTTI Class Hierarchy Descriptor'
PUBLIC	??_R2?$CPooledObject@VCNullDecorator@NEffectUpdateDecorator@@@@8 ; CPooledObject<NEffectUpdateDecorator::CNullDecorator>::`RTTI Base Class Array'
PUBLIC	??_R1A@?0A@EA@?$CPooledObject@VCNullDecorator@NEffectUpdateDecorator@@@@8 ; CPooledObject<NEffectUpdateDecorator::CNullDecorator>::`RTTI Base Class Descriptor at (0,-1,0,64)'
PUBLIC	??_R4CNullDecorator@NEffectUpdateDecorator@@6B?$CPooledObject@VCNullDecorator@NEffectUpdateDecorator@@@@@ ; NEffectUpdateDecorator::CNullDecorator::`RTTI Complete Object Locator'
PUBLIC	??_R4?$CPooledObject@VCNullDecorator@NEffectUpdateDecorator@@@@6B@ ; CPooledObject<NEffectUpdateDecorator::CNullDecorator>::`RTTI Complete Object Locator'
PUBLIC	??_R4?$CDynamicPoolEx@VCNullDecorator@NEffectUpdateDecorator@@@@6B@ ; CDynamicPoolEx<NEffectUpdateDecorator::CNullDecorator>::`RTTI Complete Object Locator'
PUBLIC	??_R0?AV?$CDynamicPoolEx@VCNullDecorator@NEffectUpdateDecorator@@@@@8 ; CDynamicPoolEx<NEffectUpdateDecorator::CNullDecorator> `RTTI Type Descriptor'
PUBLIC	??_R3?$CDynamicPoolEx@VCNullDecorator@NEffectUpdateDecorator@@@@8 ; CDynamicPoolEx<NEffectUpdateDecorator::CNullDecorator>::`RTTI Class Hierarchy Descriptor'
PUBLIC	??_R2?$CDynamicPoolEx@VCNullDecorator@NEffectUpdateDecorator@@@@8 ; CDynamicPoolEx<NEffectUpdateDecorator::CNullDecorator>::`RTTI Base Class Array'
PUBLIC	??_R1A@?0A@EA@?$CDynamicPoolEx@VCNullDecorator@NEffectUpdateDecorator@@@@8 ; CDynamicPoolEx<NEffectUpdateDecorator::CNullDecorator>::`RTTI Base Class Descriptor at (0,-1,0,64)'
PUBLIC	??_R4?$CTimeEventDecorator@M@NEffectUpdateDecorator@@6BCBaseDecorator@1@@ ; NEffectUpdateDecorator::CTimeEventDecorator<float>::`RTTI Complete Object Locator'
PUBLIC	??_R0?AV?$CTimeEventDecorator@M@NEffectUpdateDecorator@@@8 ; NEffectUpdateDecorator::CTimeEventDecorator<float> `RTTI Type Descriptor'
PUBLIC	??_R3?$CTimeEventDecorator@M@NEffectUpdateDecorator@@8 ; NEffectUpdateDecorator::CTimeEventDecorator<float>::`RTTI Class Hierarchy Descriptor'
PUBLIC	??_R2?$CTimeEventDecorator@M@NEffectUpdateDecorator@@8 ; NEffectUpdateDecorator::CTimeEventDecorator<float>::`RTTI Base Class Array'
PUBLIC	??_R1A@?0A@EA@?$CTimeEventDecorator@M@NEffectUpdateDecorator@@8 ; NEffectUpdateDecorator::CTimeEventDecorator<float>::`RTTI Base Class Descriptor at (0,-1,0,64)'
PUBLIC	??_R1M@?0A@EA@?$CPooledObject@V?$CTimeEventDecorator@M@NEffectUpdateDecorator@@@@8 ; CPooledObject<NEffectUpdateDecorator::CTimeEventDecorator<float> >::`RTTI Base Class Descriptor at (12,-1,0,64)'
PUBLIC	??_R0?AV?$CPooledObject@V?$CTimeEventDecorator@M@NEffectUpdateDecorator@@@@@8 ; CPooledObject<NEffectUpdateDecorator::CTimeEventDecorator<float> > `RTTI Type Descriptor'
PUBLIC	??_R3?$CPooledObject@V?$CTimeEventDecorator@M@NEffectUpdateDecorator@@@@8 ; CPooledObject<NEffectUpdateDecorator::CTimeEventDecorator<float> >::`RTTI Class Hierarchy Descriptor'
PUBLIC	??_R2?$CPooledObject@V?$CTimeEventDecorator@M@NEffectUpdateDecorator@@@@8 ; CPooledObject<NEffectUpdateDecorator::CTimeEventDecorator<float> >::`RTTI Base Class Array'
PUBLIC	??_R1A@?0A@EA@?$CPooledObject@V?$CTimeEventDecorator@M@NEffectUpdateDecorator@@@@8 ; CPooledObject<NEffectUpdateDecorator::CTimeEventDecorator<float> >::`RTTI Base Class Descriptor at (0,-1,0,64)'
PUBLIC	??_R4?$CTimeEventDecorator@M@NEffectUpdateDecorator@@6B?$CPooledObject@V?$CTimeEventDecorator@M@NEffectUpdateDecorator@@@@@ ; NEffectUpdateDecorator::CTimeEventDecorator<float>::`RTTI Complete Object Locator'
PUBLIC	??_R4?$CTimeEventDecorator@UDWORDCOLOR@@@NEffectUpdateDecorator@@6BCBaseDecorator@1@@ ; NEffectUpdateDecorator::CTimeEventDecorator<DWORDCOLOR>::`RTTI Complete Object Locator'
PUBLIC	??_R0?AV?$CTimeEventDecorator@UDWORDCOLOR@@@NEffectUpdateDecorator@@@8 ; NEffectUpdateDecorator::CTimeEventDecorator<DWORDCOLOR> `RTTI Type Descriptor'
PUBLIC	??_R3?$CTimeEventDecorator@UDWORDCOLOR@@@NEffectUpdateDecorator@@8 ; NEffectUpdateDecorator::CTimeEventDecorator<DWORDCOLOR>::`RTTI Class Hierarchy Descriptor'
PUBLIC	??_R2?$CTimeEventDecorator@UDWORDCOLOR@@@NEffectUpdateDecorator@@8 ; NEffectUpdateDecorator::CTimeEventDecorator<DWORDCOLOR>::`RTTI Base Class Array'
PUBLIC	??_R1A@?0A@EA@?$CTimeEventDecorator@UDWORDCOLOR@@@NEffectUpdateDecorator@@8 ; NEffectUpdateDecorator::CTimeEventDecorator<DWORDCOLOR>::`RTTI Base Class Descriptor at (0,-1,0,64)'
PUBLIC	??_R1M@?0A@EA@?$CPooledObject@V?$CTimeEventDecorator@UDWORDCOLOR@@@NEffectUpdateDecorator@@@@8 ; CPooledObject<NEffectUpdateDecorator::CTimeEventDecorator<DWORDCOLOR> >::`RTTI Base Class Descriptor at (12,-1,0,64)'
PUBLIC	??_R0?AV?$CPooledObject@V?$CTimeEventDecorator@UDWORDCOLOR@@@NEffectUpdateDecorator@@@@@8 ; CPooledObject<NEffectUpdateDecorator::CTimeEventDecorator<DWORDCOLOR> > `RTTI Type Descriptor'
PUBLIC	??_R3?$CPooledObject@V?$CTimeEventDecorator@UDWORDCOLOR@@@NEffectUpdateDecorator@@@@8 ; CPooledObject<NEffectUpdateDecorator::CTimeEventDecorator<DWORDCOLOR> >::`RTTI Class Hierarchy Descriptor'
PUBLIC	??_R2?$CPooledObject@V?$CTimeEventDecorator@UDWORDCOLOR@@@NEffectUpdateDecorator@@@@8 ; CPooledObject<NEffectUpdateDecorator::CTimeEventDecorator<DWORDCOLOR> >::`RTTI Base Class Array'
PUBLIC	??_R1A@?0A@EA@?$CPooledObject@V?$CTimeEventDecorator@UDWORDCOLOR@@@NEffectUpdateDecorator@@@@8 ; CPooledObject<NEffectUpdateDecorator::CTimeEventDecorator<DWORDCOLOR> >::`RTTI Base Class Descriptor at (0,-1,0,64)'
PUBLIC	??_R4?$CTimeEventDecorator@UDWORDCOLOR@@@NEffectUpdateDecorator@@6B?$CPooledObject@V?$CTimeEventDecorator@UDWORDCOLOR@@@NEffectUpdateDecorator@@@@@ ; NEffectUpdateDecorator::CTimeEventDecorator<DWORDCOLOR>::`RTTI Complete Object Locator'
PUBLIC	??_R4CTextureAnimationCWDecorator@NEffectUpdateDecorator@@6BCBaseDecorator@1@@ ; NEffectUpdateDecorator::CTextureAnimationCWDecorator::`RTTI Complete Object Locator'
PUBLIC	??_R0?AVCTextureAnimationCWDecorator@NEffectUpdateDecorator@@@8 ; NEffectUpdateDecorator::CTextureAnimationCWDecorator `RTTI Type Descriptor'
PUBLIC	??_R3CTextureAnimationCWDecorator@NEffectUpdateDecorator@@8 ; NEffectUpdateDecorator::CTextureAnimationCWDecorator::`RTTI Class Hierarchy Descriptor'
PUBLIC	??_R2CTextureAnimationCWDecorator@NEffectUpdateDecorator@@8 ; NEffectUpdateDecorator::CTextureAnimationCWDecorator::`RTTI Base Class Array'
PUBLIC	??_R1A@?0A@EA@CTextureAnimationCWDecorator@NEffectUpdateDecorator@@8 ; NEffectUpdateDecorator::CTextureAnimationCWDecorator::`RTTI Base Class Descriptor at (0,-1,0,64)'
PUBLIC	??_R1M@?0A@EA@?$CPooledObject@VCTextureAnimationCWDecorator@NEffectUpdateDecorator@@@@8 ; CPooledObject<NEffectUpdateDecorator::CTextureAnimationCWDecorator>::`RTTI Base Class Descriptor at (12,-1,0,64)'
PUBLIC	??_R0?AV?$CPooledObject@VCTextureAnimationCWDecorator@NEffectUpdateDecorator@@@@@8 ; CPooledObject<NEffectUpdateDecorator::CTextureAnimationCWDecorator> `RTTI Type Descriptor'
PUBLIC	??_R3?$CPooledObject@VCTextureAnimationCWDecorator@NEffectUpdateDecorator@@@@8 ; CPooledObject<NEffectUpdateDecorator::CTextureAnimationCWDecorator>::`RTTI Class Hierarchy Descriptor'
PUBLIC	??_R2?$CPooledObject@VCTextureAnimationCWDecorator@NEffectUpdateDecorator@@@@8 ; CPooledObject<NEffectUpdateDecorator::CTextureAnimationCWDecorator>::`RTTI Base Class Array'
PUBLIC	??_R1A@?0A@EA@?$CPooledObject@VCTextureAnimationCWDecorator@NEffectUpdateDecorator@@@@8 ; CPooledObject<NEffectUpdateDecorator::CTextureAnimationCWDecorator>::`RTTI Base Class Descriptor at (0,-1,0,64)'
PUBLIC	??_R4CTextureAnimationCWDecorator@NEffectUpdateDecorator@@6B?$CPooledObject@VCTextureAnimationCWDecorator@NEffectUpdateDecorator@@@@@ ; NEffectUpdateDecorator::CTextureAnimationCWDecorator::`RTTI Complete Object Locator'
PUBLIC	??_R4?$CPooledObject@VCTextureAnimationCWDecorator@NEffectUpdateDecorator@@@@6B@ ; CPooledObject<NEffectUpdateDecorator::CTextureAnimationCWDecorator>::`RTTI Complete Object Locator'
PUBLIC	??_R4?$CDynamicPoolEx@VCTextureAnimationCWDecorator@NEffectUpdateDecorator@@@@6B@ ; CDynamicPoolEx<NEffectUpdateDecorator::CTextureAnimationCWDecorator>::`RTTI Complete Object Locator'
PUBLIC	??_R0?AV?$CDynamicPoolEx@VCTextureAnimationCWDecorator@NEffectUpdateDecorator@@@@@8 ; CDynamicPoolEx<NEffectUpdateDecorator::CTextureAnimationCWDecorator> `RTTI Type Descriptor'
PUBLIC	??_R3?$CDynamicPoolEx@VCTextureAnimationCWDecorator@NEffectUpdateDecorator@@@@8 ; CDynamicPoolEx<NEffectUpdateDecorator::CTextureAnimationCWDecorator>::`RTTI Class Hierarchy Descriptor'
PUBLIC	??_R2?$CDynamicPoolEx@VCTextureAnimationCWDecorator@NEffectUpdateDecorator@@@@8 ; CDynamicPoolEx<NEffectUpdateDecorator::CTextureAnimationCWDecorator>::`RTTI Base Class Array'
PUBLIC	??_R1A@?0A@EA@?$CDynamicPoolEx@VCTextureAnimationCWDecorator@NEffectUpdateDecorator@@@@8 ; CDynamicPoolEx<NEffectUpdateDecorator::CTextureAnimationCWDecorator>::`RTTI Base Class Descriptor at (0,-1,0,64)'
PUBLIC	??_R4CTextureAnimationCCWDecorator@NEffectUpdateDecorator@@6BCBaseDecorator@1@@ ; NEffectUpdateDecorator::CTextureAnimationCCWDecorator::`RTTI Complete Object Locator'
PUBLIC	??_R0?AVCTextureAnimationCCWDecorator@NEffectUpdateDecorator@@@8 ; NEffectUpdateDecorator::CTextureAnimationCCWDecorator `RTTI Type Descriptor'
PUBLIC	??_R3CTextureAnimationCCWDecorator@NEffectUpdateDecorator@@8 ; NEffectUpdateDecorator::CTextureAnimationCCWDecorator::`RTTI Class Hierarchy Descriptor'
PUBLIC	??_R2CTextureAnimationCCWDecorator@NEffectUpdateDecorator@@8 ; NEffectUpdateDecorator::CTextureAnimationCCWDecorator::`RTTI Base Class Array'
PUBLIC	??_R1A@?0A@EA@CTextureAnimationCCWDecorator@NEffectUpdateDecorator@@8 ; NEffectUpdateDecorator::CTextureAnimationCCWDecorator::`RTTI Base Class Descriptor at (0,-1,0,64)'
PUBLIC	??_R1M@?0A@EA@?$CPooledObject@VCTextureAnimationCCWDecorator@NEffectUpdateDecorator@@@@8 ; CPooledObject<NEffectUpdateDecorator::CTextureAnimationCCWDecorator>::`RTTI Base Class Descriptor at (12,-1,0,64)'
PUBLIC	??_R0?AV?$CPooledObject@VCTextureAnimationCCWDecorator@NEffectUpdateDecorator@@@@@8 ; CPooledObject<NEffectUpdateDecorator::CTextureAnimationCCWDecorator> `RTTI Type Descriptor'
PUBLIC	??_R3?$CPooledObject@VCTextureAnimationCCWDecorator@NEffectUpdateDecorator@@@@8 ; CPooledObject<NEffectUpdateDecorator::CTextureAnimationCCWDecorator>::`RTTI Class Hierarchy Descriptor'
PUBLIC	??_R2?$CPooledObject@VCTextureAnimationCCWDecorator@NEffectUpdateDecorator@@@@8 ; CPooledObject<NEffectUpdateDecorator::CTextureAnimationCCWDecorator>::`RTTI Base Class Array'
PUBLIC	??_R1A@?0A@EA@?$CPooledObject@VCTextureAnimationCCWDecorator@NEffectUpdateDecorator@@@@8 ; CPooledObject<NEffectUpdateDecorator::CTextureAnimationCCWDecorator>::`RTTI Base Class Descriptor at (0,-1,0,64)'
PUBLIC	??_R4CTextureAnimationCCWDecorator@NEffectUpdateDecorator@@6B?$CPooledObject@VCTextureAnimationCCWDecorator@NEffectUpdateDecorator@@@@@ ; NEffectUpdateDecorator::CTextureAnimationCCWDecorator::`RTTI Complete Object Locator'
PUBLIC	??_R4?$CPooledObject@VCTextureAnimationCCWDecorator@NEffectUpdateDecorator@@@@6B@ ; CPooledObject<NEffectUpdateDecorator::CTextureAnimationCCWDecorator>::`RTTI Complete Object Locator'
PUBLIC	??_R4?$CDynamicPoolEx@VCTextureAnimationCCWDecorator@NEffectUpdateDecorator@@@@6B@ ; CDynamicPoolEx<NEffectUpdateDecorator::CTextureAnimationCCWDecorator>::`RTTI Complete Object Locator'
PUBLIC	??_R0?AV?$CDynamicPoolEx@VCTextureAnimationCCWDecorator@NEffectUpdateDecorator@@@@@8 ; CDynamicPoolEx<NEffectUpdateDecorator::CTextureAnimationCCWDecorator> `RTTI Type Descriptor'
PUBLIC	??_R3?$CDynamicPoolEx@VCTextureAnimationCCWDecorator@NEffectUpdateDecorator@@@@8 ; CDynamicPoolEx<NEffectUpdateDecorator::CTextureAnimationCCWDecorator>::`RTTI Class Hierarchy Descriptor'
PUBLIC	??_R2?$CDynamicPoolEx@VCTextureAnimationCCWDecorator@NEffectUpdateDecorator@@@@8 ; CDynamicPoolEx<NEffectUpdateDecorator::CTextureAnimationCCWDecorator>::`RTTI Base Class Array'
PUBLIC	??_R1A@?0A@EA@?$CDynamicPoolEx@VCTextureAnimationCCWDecorator@NEffectUpdateDecorator@@@@8 ; CDynamicPoolEx<NEffectUpdateDecorator::CTextureAnimationCCWDecorator>::`RTTI Base Class Descriptor at (0,-1,0,64)'
PUBLIC	??_R4CTextureAnimationRandomDecorator@NEffectUpdateDecorator@@6BCBaseDecorator@1@@ ; NEffectUpdateDecorator::CTextureAnimationRandomDecorator::`RTTI Complete Object Locator'
PUBLIC	??_R0?AVCTextureAnimationRandomDecorator@NEffectUpdateDecorator@@@8 ; NEffectUpdateDecorator::CTextureAnimationRandomDecorator `RTTI Type Descriptor'
PUBLIC	??_R3CTextureAnimationRandomDecorator@NEffectUpdateDecorator@@8 ; NEffectUpdateDecorator::CTextureAnimationRandomDecorator::`RTTI Class Hierarchy Descriptor'
PUBLIC	??_R2CTextureAnimationRandomDecorator@NEffectUpdateDecorator@@8 ; NEffectUpdateDecorator::CTextureAnimationRandomDecorator::`RTTI Base Class Array'
PUBLIC	??_R1A@?0A@EA@CTextureAnimationRandomDecorator@NEffectUpdateDecorator@@8 ; NEffectUpdateDecorator::CTextureAnimationRandomDecorator::`RTTI Base Class Descriptor at (0,-1,0,64)'
PUBLIC	??_R1M@?0A@EA@?$CPooledObject@VCTextureAnimationRandomDecorator@NEffectUpdateDecorator@@@@8 ; CPooledObject<NEffectUpdateDecorator::CTextureAnimationRandomDecorator>::`RTTI Base Class Descriptor at (12,-1,0,64)'
PUBLIC	??_R0?AV?$CPooledObject@VCTextureAnimationRandomDecorator@NEffectUpdateDecorator@@@@@8 ; CPooledObject<NEffectUpdateDecorator::CTextureAnimationRandomDecorator> `RTTI Type Descriptor'
PUBLIC	??_R3?$CPooledObject@VCTextureAnimationRandomDecorator@NEffectUpdateDecorator@@@@8 ; CPooledObject<NEffectUpdateDecorator::CTextureAnimationRandomDecorator>::`RTTI Class Hierarchy Descriptor'
PUBLIC	??_R2?$CPooledObject@VCTextureAnimationRandomDecorator@NEffectUpdateDecorator@@@@8 ; CPooledObject<NEffectUpdateDecorator::CTextureAnimationRandomDecorator>::`RTTI Base Class Array'
PUBLIC	??_R1A@?0A@EA@?$CPooledObject@VCTextureAnimationRandomDecorator@NEffectUpdateDecorator@@@@8 ; CPooledObject<NEffectUpdateDecorator::CTextureAnimationRandomDecorator>::`RTTI Base Class Descriptor at (0,-1,0,64)'
PUBLIC	??_R4CTextureAnimationRandomDecorator@NEffectUpdateDecorator@@6B?$CPooledObject@VCTextureAnimationRandomDecorator@NEffectUpdateDecorator@@@@@ ; NEffectUpdateDecorator::CTextureAnimationRandomDecorator::`RTTI Complete Object Locator'
PUBLIC	??_R4?$CPooledObject@VCTextureAnimationRandomDecorator@NEffectUpdateDecorator@@@@6B@ ; CPooledObject<NEffectUpdateDecorator::CTextureAnimationRandomDecorator>::`RTTI Complete Object Locator'
PUBLIC	??_R4?$CDynamicPoolEx@VCTextureAnimationRandomDecorator@NEffectUpdateDecorator@@@@6B@ ; CDynamicPoolEx<NEffectUpdateDecorator::CTextureAnimationRandomDecorator>::`RTTI Complete Object Locator'
PUBLIC	??_R0?AV?$CDynamicPoolEx@VCTextureAnimationRandomDecorator@NEffectUpdateDecorator@@@@@8 ; CDynamicPoolEx<NEffectUpdateDecorator::CTextureAnimationRandomDecorator> `RTTI Type Descriptor'
PUBLIC	??_R3?$CDynamicPoolEx@VCTextureAnimationRandomDecorator@NEffectUpdateDecorator@@@@8 ; CDynamicPoolEx<NEffectUpdateDecorator::CTextureAnimationRandomDecorator>::`RTTI Class Hierarchy Descriptor'
PUBLIC	??_R2?$CDynamicPoolEx@VCTextureAnimationRandomDecorator@NEffectUpdateDecorator@@@@8 ; CDynamicPoolEx<NEffectUpdateDecorator::CTextureAnimationRandomDecorator>::`RTTI Base Class Array'
PUBLIC	??_R1A@?0A@EA@?$CDynamicPoolEx@VCTextureAnimationRandomDecorator@NEffectUpdateDecorator@@@@8 ; CDynamicPoolEx<NEffectUpdateDecorator::CTextureAnimationRandomDecorator>::`RTTI Base Class Descriptor at (0,-1,0,64)'
PUBLIC	??_R4CAirResistanceDecorator@NEffectUpdateDecorator@@6BCBaseDecorator@1@@ ; NEffectUpdateDecorator::CAirResistanceDecorator::`RTTI Complete Object Locator'
PUBLIC	??_R0?AVCAirResistanceDecorator@NEffectUpdateDecorator@@@8 ; NEffectUpdateDecorator::CAirResistanceDecorator `RTTI Type Descriptor'
PUBLIC	??_R3CAirResistanceDecorator@NEffectUpdateDecorator@@8 ; NEffectUpdateDecorator::CAirResistanceDecorator::`RTTI Class Hierarchy Descriptor'
PUBLIC	??_R2CAirResistanceDecorator@NEffectUpdateDecorator@@8 ; NEffectUpdateDecorator::CAirResistanceDecorator::`RTTI Base Class Array'
PUBLIC	??_R1A@?0A@EA@CAirResistanceDecorator@NEffectUpdateDecorator@@8 ; NEffectUpdateDecorator::CAirResistanceDecorator::`RTTI Base Class Descriptor at (0,-1,0,64)'
PUBLIC	??_R1M@?0A@EA@?$CPooledObject@VCAirResistanceDecorator@NEffectUpdateDecorator@@@@8 ; CPooledObject<NEffectUpdateDecorator::CAirResistanceDecorator>::`RTTI Base Class Descriptor at (12,-1,0,64)'
PUBLIC	??_R0?AV?$CPooledObject@VCAirResistanceDecorator@NEffectUpdateDecorator@@@@@8 ; CPooledObject<NEffectUpdateDecorator::CAirResistanceDecorator> `RTTI Type Descriptor'
PUBLIC	??_R3?$CPooledObject@VCAirResistanceDecorator@NEffectUpdateDecorator@@@@8 ; CPooledObject<NEffectUpdateDecorator::CAirResistanceDecorator>::`RTTI Class Hierarchy Descriptor'
PUBLIC	??_R2?$CPooledObject@VCAirResistanceDecorator@NEffectUpdateDecorator@@@@8 ; CPooledObject<NEffectUpdateDecorator::CAirResistanceDecorator>::`RTTI Base Class Array'
PUBLIC	??_R1A@?0A@EA@?$CPooledObject@VCAirResistanceDecorator@NEffectUpdateDecorator@@@@8 ; CPooledObject<NEffectUpdateDecorator::CAirResistanceDecorator>::`RTTI Base Class Descriptor at (0,-1,0,64)'
PUBLIC	??_R4CAirResistanceDecorator@NEffectUpdateDecorator@@6B?$CPooledObject@VCAirResistanceDecorator@NEffectUpdateDecorator@@@@@ ; NEffectUpdateDecorator::CAirResistanceDecorator::`RTTI Complete Object Locator'
PUBLIC	??_R4?$CPooledObject@VCAirResistanceDecorator@NEffectUpdateDecorator@@@@6B@ ; CPooledObject<NEffectUpdateDecorator::CAirResistanceDecorator>::`RTTI Complete Object Locator'
PUBLIC	??_R4?$CDynamicPoolEx@VCAirResistanceDecorator@NEffectUpdateDecorator@@@@6B@ ; CDynamicPoolEx<NEffectUpdateDecorator::CAirResistanceDecorator>::`RTTI Complete Object Locator'
PUBLIC	??_R0?AV?$CDynamicPoolEx@VCAirResistanceDecorator@NEffectUpdateDecorator@@@@@8 ; CDynamicPoolEx<NEffectUpdateDecorator::CAirResistanceDecorator> `RTTI Type Descriptor'
PUBLIC	??_R3?$CDynamicPoolEx@VCAirResistanceDecorator@NEffectUpdateDecorator@@@@8 ; CDynamicPoolEx<NEffectUpdateDecorator::CAirResistanceDecorator>::`RTTI Class Hierarchy Descriptor'
PUBLIC	??_R2?$CDynamicPoolEx@VCAirResistanceDecorator@NEffectUpdateDecorator@@@@8 ; CDynamicPoolEx<NEffectUpdateDecorator::CAirResistanceDecorator>::`RTTI Base Class Array'
PUBLIC	??_R1A@?0A@EA@?$CDynamicPoolEx@VCAirResistanceDecorator@NEffectUpdateDecorator@@@@8 ; CDynamicPoolEx<NEffectUpdateDecorator::CAirResistanceDecorator>::`RTTI Base Class Descriptor at (0,-1,0,64)'
PUBLIC	??_R4CGravityDecorator@NEffectUpdateDecorator@@6BCBaseDecorator@1@@ ; NEffectUpdateDecorator::CGravityDecorator::`RTTI Complete Object Locator'
PUBLIC	??_R0?AVCGravityDecorator@NEffectUpdateDecorator@@@8 ; NEffectUpdateDecorator::CGravityDecorator `RTTI Type Descriptor'
PUBLIC	??_R3CGravityDecorator@NEffectUpdateDecorator@@8 ; NEffectUpdateDecorator::CGravityDecorator::`RTTI Class Hierarchy Descriptor'
PUBLIC	??_R2CGravityDecorator@NEffectUpdateDecorator@@8 ; NEffectUpdateDecorator::CGravityDecorator::`RTTI Base Class Array'
PUBLIC	??_R1A@?0A@EA@CGravityDecorator@NEffectUpdateDecorator@@8 ; NEffectUpdateDecorator::CGravityDecorator::`RTTI Base Class Descriptor at (0,-1,0,64)'
PUBLIC	??_R1M@?0A@EA@?$CPooledObject@VCGravityDecorator@NEffectUpdateDecorator@@@@8 ; CPooledObject<NEffectUpdateDecorator::CGravityDecorator>::`RTTI Base Class Descriptor at (12,-1,0,64)'
PUBLIC	??_R0?AV?$CPooledObject@VCGravityDecorator@NEffectUpdateDecorator@@@@@8 ; CPooledObject<NEffectUpdateDecorator::CGravityDecorator> `RTTI Type Descriptor'
PUBLIC	??_R3?$CPooledObject@VCGravityDecorator@NEffectUpdateDecorator@@@@8 ; CPooledObject<NEffectUpdateDecorator::CGravityDecorator>::`RTTI Class Hierarchy Descriptor'
PUBLIC	??_R2?$CPooledObject@VCGravityDecorator@NEffectUpdateDecorator@@@@8 ; CPooledObject<NEffectUpdateDecorator::CGravityDecorator>::`RTTI Base Class Array'
PUBLIC	??_R1A@?0A@EA@?$CPooledObject@VCGravityDecorator@NEffectUpdateDecorator@@@@8 ; CPooledObject<NEffectUpdateDecorator::CGravityDecorator>::`RTTI Base Class Descriptor at (0,-1,0,64)'
PUBLIC	??_R4CGravityDecorator@NEffectUpdateDecorator@@6B?$CPooledObject@VCGravityDecorator@NEffectUpdateDecorator@@@@@ ; NEffectUpdateDecorator::CGravityDecorator::`RTTI Complete Object Locator'
PUBLIC	??_R4?$CPooledObject@VCGravityDecorator@NEffectUpdateDecorator@@@@6B@ ; CPooledObject<NEffectUpdateDecorator::CGravityDecorator>::`RTTI Complete Object Locator'
PUBLIC	??_R4?$CDynamicPoolEx@VCGravityDecorator@NEffectUpdateDecorator@@@@6B@ ; CDynamicPoolEx<NEffectUpdateDecorator::CGravityDecorator>::`RTTI Complete Object Locator'
PUBLIC	??_R0?AV?$CDynamicPoolEx@VCGravityDecorator@NEffectUpdateDecorator@@@@@8 ; CDynamicPoolEx<NEffectUpdateDecorator::CGravityDecorator> `RTTI Type Descriptor'
PUBLIC	??_R3?$CDynamicPoolEx@VCGravityDecorator@NEffectUpdateDecorator@@@@8 ; CDynamicPoolEx<NEffectUpdateDecorator::CGravityDecorator>::`RTTI Class Hierarchy Descriptor'
PUBLIC	??_R2?$CDynamicPoolEx@VCGravityDecorator@NEffectUpdateDecorator@@@@8 ; CDynamicPoolEx<NEffectUpdateDecorator::CGravityDecorator>::`RTTI Base Class Array'
PUBLIC	??_R1A@?0A@EA@?$CDynamicPoolEx@VCGravityDecorator@NEffectUpdateDecorator@@@@8 ; CDynamicPoolEx<NEffectUpdateDecorator::CGravityDecorator>::`RTTI Base Class Descriptor at (0,-1,0,64)'
PUBLIC	??_R4CRotationDecorator@NEffectUpdateDecorator@@6BCBaseDecorator@1@@ ; NEffectUpdateDecorator::CRotationDecorator::`RTTI Complete Object Locator'
PUBLIC	??_R0?AVCRotationDecorator@NEffectUpdateDecorator@@@8 ; NEffectUpdateDecorator::CRotationDecorator `RTTI Type Descriptor'
PUBLIC	??_R3CRotationDecorator@NEffectUpdateDecorator@@8 ; NEffectUpdateDecorator::CRotationDecorator::`RTTI Class Hierarchy Descriptor'
PUBLIC	??_R2CRotationDecorator@NEffectUpdateDecorator@@8 ; NEffectUpdateDecorator::CRotationDecorator::`RTTI Base Class Array'
PUBLIC	??_R1A@?0A@EA@CRotationDecorator@NEffectUpdateDecorator@@8 ; NEffectUpdateDecorator::CRotationDecorator::`RTTI Base Class Descriptor at (0,-1,0,64)'
PUBLIC	??_R1M@?0A@EA@?$CPooledObject@VCRotationDecorator@NEffectUpdateDecorator@@@@8 ; CPooledObject<NEffectUpdateDecorator::CRotationDecorator>::`RTTI Base Class Descriptor at (12,-1,0,64)'
PUBLIC	??_R0?AV?$CPooledObject@VCRotationDecorator@NEffectUpdateDecorator@@@@@8 ; CPooledObject<NEffectUpdateDecorator::CRotationDecorator> `RTTI Type Descriptor'
PUBLIC	??_R3?$CPooledObject@VCRotationDecorator@NEffectUpdateDecorator@@@@8 ; CPooledObject<NEffectUpdateDecorator::CRotationDecorator>::`RTTI Class Hierarchy Descriptor'
PUBLIC	??_R2?$CPooledObject@VCRotationDecorator@NEffectUpdateDecorator@@@@8 ; CPooledObject<NEffectUpdateDecorator::CRotationDecorator>::`RTTI Base Class Array'
PUBLIC	??_R1A@?0A@EA@?$CPooledObject@VCRotationDecorator@NEffectUpdateDecorator@@@@8 ; CPooledObject<NEffectUpdateDecorator::CRotationDecorator>::`RTTI Base Class Descriptor at (0,-1,0,64)'
PUBLIC	??_R4CRotationDecorator@NEffectUpdateDecorator@@6B?$CPooledObject@VCRotationDecorator@NEffectUpdateDecorator@@@@@ ; NEffectUpdateDecorator::CRotationDecorator::`RTTI Complete Object Locator'
PUBLIC	??_R4?$CPooledObject@VCRotationDecorator@NEffectUpdateDecorator@@@@6B@ ; CPooledObject<NEffectUpdateDecorator::CRotationDecorator>::`RTTI Complete Object Locator'
PUBLIC	??_R4?$CDynamicPoolEx@VCRotationDecorator@NEffectUpdateDecorator@@@@6B@ ; CDynamicPoolEx<NEffectUpdateDecorator::CRotationDecorator>::`RTTI Complete Object Locator'
PUBLIC	??_R0?AV?$CDynamicPoolEx@VCRotationDecorator@NEffectUpdateDecorator@@@@@8 ; CDynamicPoolEx<NEffectUpdateDecorator::CRotationDecorator> `RTTI Type Descriptor'
PUBLIC	??_R3?$CDynamicPoolEx@VCRotationDecorator@NEffectUpdateDecorator@@@@8 ; CDynamicPoolEx<NEffectUpdateDecorator::CRotationDecorator>::`RTTI Class Hierarchy Descriptor'
PUBLIC	??_R2?$CDynamicPoolEx@VCRotationDecorator@NEffectUpdateDecorator@@@@8 ; CDynamicPoolEx<NEffectUpdateDecorator::CRotationDecorator>::`RTTI Base Class Array'
PUBLIC	??_R1A@?0A@EA@?$CDynamicPoolEx@VCRotationDecorator@NEffectUpdateDecorator@@@@8 ; CDynamicPoolEx<NEffectUpdateDecorator::CRotationDecorator>::`RTTI Base Class Descriptor at (0,-1,0,64)'
PUBLIC	??_R4?$CPooledObject@V?$CTimeEventDecorator@M@NEffectUpdateDecorator@@@@6B@ ; CPooledObject<NEffectUpdateDecorator::CTimeEventDecorator<float> >::`RTTI Complete Object Locator'
PUBLIC	??_R4?$CDynamicPoolEx@V?$CTimeEventDecorator@M@NEffectUpdateDecorator@@@@6B@ ; CDynamicPoolEx<NEffectUpdateDecorator::CTimeEventDecorator<float> >::`RTTI Complete Object Locator'
PUBLIC	??_R0?AV?$CDynamicPoolEx@V?$CTimeEventDecorator@M@NEffectUpdateDecorator@@@@@8 ; CDynamicPoolEx<NEffectUpdateDecorator::CTimeEventDecorator<float> > `RTTI Type Descriptor'
PUBLIC	??_R3?$CDynamicPoolEx@V?$CTimeEventDecorator@M@NEffectUpdateDecorator@@@@8 ; CDynamicPoolEx<NEffectUpdateDecorator::CTimeEventDecorator<float> >::`RTTI Class Hierarchy Descriptor'
PUBLIC	??_R2?$CDynamicPoolEx@V?$CTimeEventDecorator@M@NEffectUpdateDecorator@@@@8 ; CDynamicPoolEx<NEffectUpdateDecorator::CTimeEventDecorator<float> >::`RTTI Base Class Array'
PUBLIC	??_R1A@?0A@EA@?$CDynamicPoolEx@V?$CTimeEventDecorator@M@NEffectUpdateDecorator@@@@8 ; CDynamicPoolEx<NEffectUpdateDecorator::CTimeEventDecorator<float> >::`RTTI Base Class Descriptor at (0,-1,0,64)'
PUBLIC	??_R4?$CPooledObject@V?$CTimeEventDecorator@UDWORDCOLOR@@@NEffectUpdateDecorator@@@@6B@ ; CPooledObject<NEffectUpdateDecorator::CTimeEventDecorator<DWORDCOLOR> >::`RTTI Complete Object Locator'
PUBLIC	??_R4?$CDynamicPoolEx@V?$CTimeEventDecorator@UDWORDCOLOR@@@NEffectUpdateDecorator@@@@6B@ ; CDynamicPoolEx<NEffectUpdateDecorator::CTimeEventDecorator<DWORDCOLOR> >::`RTTI Complete Object Locator'
PUBLIC	??_R0?AV?$CDynamicPoolEx@V?$CTimeEventDecorator@UDWORDCOLOR@@@NEffectUpdateDecorator@@@@@8 ; CDynamicPoolEx<NEffectUpdateDecorator::CTimeEventDecorator<DWORDCOLOR> > `RTTI Type Descriptor'
PUBLIC	??_R3?$CDynamicPoolEx@V?$CTimeEventDecorator@UDWORDCOLOR@@@NEffectUpdateDecorator@@@@8 ; CDynamicPoolEx<NEffectUpdateDecorator::CTimeEventDecorator<DWORDCOLOR> >::`RTTI Class Hierarchy Descriptor'
PUBLIC	??_R2?$CDynamicPoolEx@V?$CTimeEventDecorator@UDWORDCOLOR@@@NEffectUpdateDecorator@@@@8 ; CDynamicPoolEx<NEffectUpdateDecorator::CTimeEventDecorator<DWORDCOLOR> >::`RTTI Base Class Array'
PUBLIC	??_R1A@?0A@EA@?$CDynamicPoolEx@V?$CTimeEventDecorator@UDWORDCOLOR@@@NEffectUpdateDecorator@@@@8 ; CDynamicPoolEx<NEffectUpdateDecorator::CTimeEventDecorator<DWORDCOLOR> >::`RTTI Base Class Descriptor at (0,-1,0,64)'
PUBLIC	__real@00000000
PUBLIC	__real@3d4ccccd
PUBLIC	__real@3eb0c6f7a0b5ed8d
PUBLIC	__real@3f000000
PUBLIC	__real@3f800000
PUBLIC	__real@437f0000
PUBLIC	__real@43800000
PUBLIC	__xmm@80000000800000008000000080000000
EXTRN	__purecall:PROC
EXTRN	??2@YAPAXI@Z:PROC				; operator new
EXTRN	??3@YAXPAX@Z:PROC				; operator delete
EXTRN	??3@YAXPAXI@Z:PROC				; operator delete
EXTRN	?__global_delete@@YAXPAXI@Z:PROC		; __global_delete
EXTRN	_atexit:PROC
EXTRN	___std_terminate:PROC
EXTRN	__invalid_parameter_noinfo_noreturn:PROC
EXTRN	_memcpy:PROC
EXTRN	_memmove:PROC
EXTRN	_strlen:PROC
EXTRN	___std_exception_copy:PROC
EXTRN	___std_exception_destroy:PROC
EXTRN	??_Eexception@std@@UAEPAXI@Z:PROC		; std::exception::`vector deleting destructor'
EXTRN	??_Ebad_alloc@std@@UAEPAXI@Z:PROC		; std::bad_alloc::`vector deleting destructor'
EXTRN	??_Ebad_array_new_length@std@@UAEPAXI@Z:PROC	; std::bad_array_new_length::`vector deleting destructor'
EXTRN	?_Xlength_error@std@@YAXPBD@Z:PROC		; std::_Xlength_error
EXTRN	?_Xout_of_range@std@@YAXPBD@Z:PROC		; std::_Xout_of_range
EXTRN	?GetOnlyPathName@@YAPBDPBD@Z:PROC		; GetOnlyPathName
EXTRN	?IsGlobalFileName@@YA_NPBD@Z:PROC		; IsGlobalFileName
EXTRN	?GetFileName@CTextFileLoader@@QAEPBDXZ:PROC	; CTextFileLoader::GetFileName
EXTRN	?SetChildNode@CTextFileLoader@@QAEHPBD@Z:PROC	; CTextFileLoader::SetChildNode
EXTRN	?SetParentNode@CTextFileLoader@@QAEHXZ:PROC	; CTextFileLoader::SetParentNode
EXTRN	?GetTokenVector@CTextFileLoader@@QAEHABV?$basic_string@DU?$char_traits@D@std@@V?$allocator@D@2@@std@@PAPAV?$vector@V?$basic_string@DU?$char_traits@D@std@@V?$allocator@D@2@@std@@V?$allocator@V?$basic_string@DU?$char_traits@D@std@@V?$allocator@D@2@@std@@@2@@3@@Z:PROC ; CTextFileLoader::GetTokenVector
EXTRN	?GetTokenBoolean@CTextFileLoader@@QAEHABV?$basic_string@DU?$char_traits@D@std@@V?$allocator@D@2@@std@@PAH@Z:PROC ; CTextFileLoader::GetTokenBoolean
EXTRN	?GetTokenByte@CTextFileLoader@@QAEHABV?$basic_string@DU?$char_traits@D@std@@V?$allocator@D@2@@std@@PAE@Z:PROC ; CTextFileLoader::GetTokenByte
EXTRN	?GetTokenWord@CTextFileLoader@@QAEHABV?$basic_string@DU?$char_traits@D@std@@V?$allocator@D@2@@std@@PAG@Z:PROC ; CTextFileLoader::GetTokenWord
EXTRN	?GetTokenInteger@CTextFileLoader@@QAEHABV?$basic_string@DU?$char_traits@D@std@@V?$allocator@D@2@@std@@PAH@Z:PROC ; CTextFileLoader::GetTokenInteger
EXTRN	?GetTokenDoubleWord@CTextFileLoader@@QAEHABV?$basic_string@DU?$char_traits@D@std@@V?$allocator@D@2@@std@@PAK@Z:PROC ; CTextFileLoader::GetTokenDoubleWord
EXTRN	?GetTokenFloat@CTextFileLoader@@QAEHABV?$basic_string@DU?$char_traits@D@std@@V?$allocator@D@2@@std@@PAM@Z:PROC ; CTextFileLoader::GetTokenFloat
EXTRN	?GetTokenPosition@CTextFileLoader@@QAEHABV?$basic_string@DU?$char_traits@D@std@@V?$allocator@D@2@@std@@PAUD3DXVECTOR3@@@Z:PROC ; CTextFileLoader::GetTokenPosition
EXTRN	?GetTokenTimeEventFloat@@YAHAAVCTextFileLoader@@PBDPAV?$vector@V?$CTimeEvent@M@@V?$allocator@V?$CTimeEvent@M@@@std@@@std@@@Z:PROC ; GetTokenTimeEventFloat
EXTRN	??0CEffectElementBase@@QAE@XZ:PROC		; CEffectElementBase::CEffectElementBase
EXTRN	??1CEffectElementBase@@UAE@XZ:PROC		; CEffectElementBase::~CEffectElementBase
EXTRN	?Clear@CEffectElementBase@@QAEXXZ:PROC		; CEffectElementBase::Clear
EXTRN	??0CEmitterProperty@@QAE@XZ:PROC		; CEmitterProperty::CEmitterProperty
EXTRN	??1CEmitterProperty@@UAE@XZ:PROC		; CEmitterProperty::~CEmitterProperty
EXTRN	?Clear@CEmitterProperty@@QAEXXZ:PROC		; CEmitterProperty::Clear
EXTRN	??0CParticleProperty@@QAE@XZ:PROC		; CParticleProperty::CParticleProperty
EXTRN	??1CParticleProperty@@UAE@XZ:PROC		; CParticleProperty::~CParticleProperty
EXTRN	?Clear@CParticleProperty@@QAEXXZ:PROC		; CParticleProperty::Clear
EXTRN	?InsertTexture@CParticleProperty@@QAEXPBD@Z:PROC ; CParticleProperty::InsertTexture
EXTRN	?SetTexture@CParticleProperty@@QAE_NPBD@Z:PROC	; CParticleProperty::SetTexture
EXTRN	??_ECParticleSystemData@@UAEPAXI@Z:PROC		; CParticleSystemData::`vector deleting destructor'
EXTRN	?random@@YAKXZ:PROC				; random
EXTRN	?random_range@@YAJJJ@Z:PROC			; random_range
EXTRN	??_ECBaseDecorator@NEffectUpdateDecorator@@UAEPAXI@Z:PROC ; NEffectUpdateDecorator::CBaseDecorator::`vector deleting destructor'
EXTRN	??_E?$CPooledObject@VCHeaderDecorator@NEffectUpdateDecorator@@@@UAEPAXI@Z:PROC ; CPooledObject<NEffectUpdateDecorator::CHeaderDecorator>::`vector deleting destructor'
EXTRN	??_ECHeaderDecorator@NEffectUpdateDecorator@@UAEPAXI@Z:PROC ; NEffectUpdateDecorator::CHeaderDecorator::`vector deleting destructor'
EXTRN	??_E?$CPooledObject@VCNullDecorator@NEffectUpdateDecorator@@@@UAEPAXI@Z:PROC ; CPooledObject<NEffectUpdateDecorator::CNullDecorator>::`vector deleting destructor'
EXTRN	??_ECNullDecorator@NEffectUpdateDecorator@@UAEPAXI@Z:PROC ; NEffectUpdateDecorator::CNullDecorator::`vector deleting destructor'
EXTRN	??_E?$CPooledObject@VCTextureAnimationCWDecorator@NEffectUpdateDecorator@@@@UAEPAXI@Z:PROC ; CPooledObject<NEffectUpdateDecorator::CTextureAnimationCWDecorator>::`vector deleting destructor'
EXTRN	??_ECTextureAnimationCWDecorator@NEffectUpdateDecorator@@UAEPAXI@Z:PROC ; NEffectUpdateDecorator::CTextureAnimationCWDecorator::`vector deleting destructor'
EXTRN	??_E?$CPooledObject@VCTextureAnimationCCWDecorator@NEffectUpdateDecorator@@@@UAEPAXI@Z:PROC ; CPooledObject<NEffectUpdateDecorator::CTextureAnimationCCWDecorator>::`vector deleting destructor'
EXTRN	??_ECTextureAnimationCCWDecorator@NEffectUpdateDecorator@@UAEPAXI@Z:PROC ; NEffectUpdateDecorator::CTextureAnimationCCWDecorator::`vector deleting destructor'
EXTRN	??_E?$CPooledObject@VCTextureAnimationRandomDecorator@NEffectUpdateDecorator@@@@UAEPAXI@Z:PROC ; CPooledObject<NEffectUpdateDecorator::CTextureAnimationRandomDecorator>::`vector deleting destructor'
EXTRN	??_ECTextureAnimationRandomDecorator@NEffectUpdateDecorator@@UAEPAXI@Z:PROC ; NEffectUpdateDecorator::CTextureAnimationRandomDecorator::`vector deleting destructor'
EXTRN	??_E?$CPooledObject@VCAirResistanceDecorator@NEffectUpdateDecorator@@@@UAEPAXI@Z:PROC ; CPooledObject<NEffectUpdateDecorator::CAirResistanceDecorator>::`vector deleting destructor'
EXTRN	?__Excute@CAirResistanceDecorator@NEffectUpdateDecorator@@MAEXABVCDecoratorData@2@@Z:PROC ; NEffectUpdateDecorator::CAirResistanceDecorator::__Excute
EXTRN	?__Clone@CAirResistanceDecorator@NEffectUpdateDecorator@@MAEPAVCBaseDecorator@2@PAVCParticleInstance@@0@Z:PROC ; NEffectUpdateDecorator::CAirResistanceDecorator::__Clone
EXTRN	??_ECAirResistanceDecorator@NEffectUpdateDecorator@@UAEPAXI@Z:PROC ; NEffectUpdateDecorator::CAirResistanceDecorator::`vector deleting destructor'
EXTRN	??_E?$CPooledObject@VCGravityDecorator@NEffectUpdateDecorator@@@@UAEPAXI@Z:PROC ; CPooledObject<NEffectUpdateDecorator::CGravityDecorator>::`vector deleting destructor'
EXTRN	?__Excute@CGravityDecorator@NEffectUpdateDecorator@@MAEXABVCDecoratorData@2@@Z:PROC ; NEffectUpdateDecorator::CGravityDecorator::__Excute
EXTRN	?__Clone@CGravityDecorator@NEffectUpdateDecorator@@MAEPAVCBaseDecorator@2@PAVCParticleInstance@@0@Z:PROC ; NEffectUpdateDecorator::CGravityDecorator::__Clone
EXTRN	??_ECGravityDecorator@NEffectUpdateDecorator@@UAEPAXI@Z:PROC ; NEffectUpdateDecorator::CGravityDecorator::`vector deleting destructor'
EXTRN	??_E?$CPooledObject@VCRotationDecorator@NEffectUpdateDecorator@@@@UAEPAXI@Z:PROC ; CPooledObject<NEffectUpdateDecorator::CRotationDecorator>::`vector deleting destructor'
EXTRN	?__Excute@CRotationDecorator@NEffectUpdateDecorator@@MAEXABVCDecoratorData@2@@Z:PROC ; NEffectUpdateDecorator::CRotationDecorator::__Excute
EXTRN	?__Clone@CRotationDecorator@NEffectUpdateDecorator@@MAEPAVCBaseDecorator@2@PAVCParticleInstance@@0@Z:PROC ; NEffectUpdateDecorator::CRotationDecorator::__Clone
EXTRN	??_ECRotationDecorator@NEffectUpdateDecorator@@UAEPAXI@Z:PROC ; NEffectUpdateDecorator::CRotationDecorator::`vector deleting destructor'
EXTRN	??_E?$CDynamicPool@VCParticleSystemData@@@@UAEPAXI@Z:PROC ; CDynamicPool<CParticleSystemData>::`vector deleting destructor'
EXTRN	??_E?$CPooledObject@V?$CTimeEventDecorator@M@NEffectUpdateDecorator@@@@UAEPAXI@Z:PROC ; CPooledObject<NEffectUpdateDecorator::CTimeEventDecorator<float> >::`vector deleting destructor'
EXTRN	??_E?$CTimeEventDecorator@M@NEffectUpdateDecorator@@UAEPAXI@Z:PROC ; NEffectUpdateDecorator::CTimeEventDecorator<float>::`vector deleting destructor'
EXTRN	??_E?$CPooledObject@V?$CTimeEventDecorator@UDWORDCOLOR@@@NEffectUpdateDecorator@@@@UAEPAXI@Z:PROC ; CPooledObject<NEffectUpdateDecorator::CTimeEventDecorator<DWORDCOLOR> >::`vector deleting destructor'
EXTRN	??_E?$CTimeEventDecorator@UDWORDCOLOR@@@NEffectUpdateDecorator@@UAEPAXI@Z:PROC ; NEffectUpdateDecorator::CTimeEventDecorator<DWORDCOLOR>::`vector deleting destructor'
EXTRN	??_E?$CDynamicPoolEx@V?$CTimeEventDecorator@UDWORDCOLOR@@@NEffectUpdateDecorator@@@@UAEPAXI@Z:PROC ; CDynamicPoolEx<NEffectUpdateDecorator::CTimeEventDecorator<DWORDCOLOR> >::`vector deleting destructor'
EXTRN	??_E?$CDynamicPoolEx@V?$CTimeEventDecorator@M@NEffectUpdateDecorator@@@@UAEPAXI@Z:PROC ; CDynamicPoolEx<NEffectUpdateDecorator::CTimeEventDecorator<float> >::`vector deleting destructor'
EXTRN	??_E?$CDynamicPoolEx@VCRotationDecorator@NEffectUpdateDecorator@@@@UAEPAXI@Z:PROC ; CDynamicPoolEx<NEffectUpdateDecorator::CRotationDecorator>::`vector deleting destructor'
EXTRN	??_E?$CDynamicPoolEx@VCGravityDecorator@NEffectUpdateDecorator@@@@UAEPAXI@Z:PROC ; CDynamicPoolEx<NEffectUpdateDecorator::CGravityDecorator>::`vector deleting destructor'
EXTRN	??_E?$CDynamicPoolEx@VCAirResistanceDecorator@NEffectUpdateDecorator@@@@UAEPAXI@Z:PROC ; CDynamicPoolEx<NEffectUpdateDecorator::CAirResistanceDecorator>::`vector deleting destructor'
EXTRN	??_E?$CDynamicPoolEx@VCTextureAnimationRandomDecorator@NEffectUpdateDecorator@@@@UAEPAXI@Z:PROC ; CDynamicPoolEx<NEffectUpdateDecorator::CTextureAnimationRandomDecorator>::`vector deleting destructor'
EXTRN	??_E?$CDynamicPoolEx@VCTextureAnimationCCWDecorator@NEffectUpdateDecorator@@@@UAEPAXI@Z:PROC ; CDynamicPoolEx<NEffectUpdateDecorator::CTextureAnimationCCWDecorator>::`vector deleting destructor'
EXTRN	??_E?$CDynamicPoolEx@VCTextureAnimationCWDecorator@NEffectUpdateDecorator@@@@UAEPAXI@Z:PROC ; CDynamicPoolEx<NEffectUpdateDecorator::CTextureAnimationCWDecorator>::`vector deleting destructor'
EXTRN	??_E?$CDynamicPoolEx@VCNullDecorator@NEffectUpdateDecorator@@@@UAEPAXI@Z:PROC ; CDynamicPoolEx<NEffectUpdateDecorator::CNullDecorator>::`vector deleting destructor'
EXTRN	??_E?$CDynamicPoolEx@VCHeaderDecorator@NEffectUpdateDecorator@@@@UAEPAXI@Z:PROC ; CDynamicPoolEx<NEffectUpdateDecorator::CHeaderDecorator>::`vector deleting destructor'
EXTRN	@__security_check_cookie@4:PROC
EXTRN	__CxxThrowException@8:PROC
EXTRN	___CxxFrameHandler3:PROC
EXTRN	__ftoui3:PROC
EXTRN	??_7type_info@@6B@:QWORD			; type_info::`vftable'
EXTRN	___security_cookie:DWORD
EXTRN	__fltused:DWORD
_BSS	SEGMENT
?ms_kPool@CParticleSystemData@@2V?$CDynamicPool@VCParticleSystemData@@@@A DB 024H DUP (?) ; CParticleSystemData::ms_kPool
_BSS	ENDS
;	COMDAT ?ms_kPool@?$CPooledObject@VCHeaderDecorator@NEffectUpdateDecorator@@@@1V?$CDynamicPoolEx@VCHeaderDecorator@NEffectUpdateDecorator@@@@A
_BSS	SEGMENT
?ms_kPool@?$CPooledObject@VCHeaderDecorator@NEffectUpdateDecorator@@@@1V?$CDynamicPoolEx@VCHeaderDecorator@NEffectUpdateDecorator@@@@A DB 024H DUP (?) ; CPooledObject<NEffectUpdateDecorator::CHeaderDecorator>::ms_kPool
_BSS	ENDS
;	COMDAT ?ms_kPool@?$CPooledObject@VCNullDecorator@NEffectUpdateDecorator@@@@1V?$CDynamicPoolEx@VCNullDecorator@NEffectUpdateDecorator@@@@A
_BSS	SEGMENT
?ms_kPool@?$CPooledObject@VCNullDecorator@NEffectUpdateDecorator@@@@1V?$CDynamicPoolEx@VCNullDecorator@NEffectUpdateDecorator@@@@A DB 024H DUP (?) ; CPooledObject<NEffectUpdateDecorator::CNullDecorator>::ms_kPool
_BSS	ENDS
;	COMDAT ?ms_kPool@?$CPooledObject@VCTextureAnimationCWDecorator@NEffectUpdateDecorator@@@@1V?$CDynamicPoolEx@VCTextureAnimationCWDecorator@NEffectUpdateDecorator@@@@A
_BSS	SEGMENT
?ms_kPool@?$CPooledObject@VCTextureAnimationCWDecorator@NEffectUpdateDecorator@@@@1V?$CDynamicPoolEx@VCTextureAnimationCWDecorator@NEffectUpdateDecorator@@@@A DB 024H DUP (?) ; CPooledObject<NEffectUpdateDecorator::CTextureAnimationCWDecorator>::ms_kPool
_BSS	ENDS
;	COMDAT ?ms_kPool@?$CPooledObject@VCTextureAnimationCCWDecorator@NEffectUpdateDecorator@@@@1V?$CDynamicPoolEx@VCTextureAnimationCCWDecorator@NEffectUpdateDecorator@@@@A
_BSS	SEGMENT
?ms_kPool@?$CPooledObject@VCTextureAnimationCCWDecorator@NEffectUpdateDecorator@@@@1V?$CDynamicPoolEx@VCTextureAnimationCCWDecorator@NEffectUpdateDecorator@@@@A DB 024H DUP (?) ; CPooledObject<NEffectUpdateDecorator::CTextureAnimationCCWDecorator>::ms_kPool
_BSS	ENDS
;	COMDAT ?ms_kPool@?$CPooledObject@VCTextureAnimationRandomDecorator@NEffectUpdateDecorator@@@@1V?$CDynamicPoolEx@VCTextureAnimationRandomDecorator@NEffectUpdateDecorator@@@@A
_BSS	SEGMENT
?ms_kPool@?$CPooledObject@VCTextureAnimationRandomDecorator@NEffectUpdateDecorator@@@@1V?$CDynamicPoolEx@VCTextureAnimationRandomDecorator@NEffectUpdateDecorator@@@@A DB 024H DUP (?) ; CPooledObject<NEffectUpdateDecorator::CTextureAnimationRandomDecorator>::ms_kPool
_BSS	ENDS
;	COMDAT ?ms_kPool@?$CPooledObject@VCAirResistanceDecorator@NEffectUpdateDecorator@@@@1V?$CDynamicPoolEx@VCAirResistanceDecorator@NEffectUpdateDecorator@@@@A
_BSS	SEGMENT
?ms_kPool@?$CPooledObject@VCAirResistanceDecorator@NEffectUpdateDecorator@@@@1V?$CDynamicPoolEx@VCAirResistanceDecorator@NEffectUpdateDecorator@@@@A DB 024H DUP (?) ; CPooledObject<NEffectUpdateDecorator::CAirResistanceDecorator>::ms_kPool
_BSS	ENDS
;	COMDAT ?ms_kPool@?$CPooledObject@VCGravityDecorator@NEffectUpdateDecorator@@@@1V?$CDynamicPoolEx@VCGravityDecorator@NEffectUpdateDecorator@@@@A
_BSS	SEGMENT
?ms_kPool@?$CPooledObject@VCGravityDecorator@NEffectUpdateDecorator@@@@1V?$CDynamicPoolEx@VCGravityDecorator@NEffectUpdateDecorator@@@@A DB 024H DUP (?) ; CPooledObject<NEffectUpdateDecorator::CGravityDecorator>::ms_kPool
_BSS	ENDS
;	COMDAT ?ms_kPool@?$CPooledObject@VCRotationDecorator@NEffectUpdateDecorator@@@@1V?$CDynamicPoolEx@VCRotationDecorator@NEffectUpdateDecorator@@@@A
_BSS	SEGMENT
?ms_kPool@?$CPooledObject@VCRotationDecorator@NEffectUpdateDecorator@@@@1V?$CDynamicPoolEx@VCRotationDecorator@NEffectUpdateDecorator@@@@A DB 024H DUP (?) ; CPooledObject<NEffectUpdateDecorator::CRotationDecorator>::ms_kPool
_BSS	ENDS
;	COMDAT ?ms_kPool@?$CPooledObject@V?$CTimeEventDecorator@M@NEffectUpdateDecorator@@@@1V?$CDynamicPoolEx@V?$CTimeEventDecorator@M@NEffectUpdateDecorator@@@@A
_BSS	SEGMENT
?ms_kPool@?$CPooledObject@V?$CTimeEventDecorator@M@NEffectUpdateDecorator@@@@1V?$CDynamicPoolEx@V?$CTimeEventDecorator@M@NEffectUpdateDecorator@@@@A DB 024H DUP (?) ; CPooledObject<NEffectUpdateDecorator::CTimeEventDecorator<float> >::ms_kPool
_BSS	ENDS
;	COMDAT ?ms_kPool@?$CPooledObject@V?$CTimeEventDecorator@UDWORDCOLOR@@@NEffectUpdateDecorator@@@@1V?$CDynamicPoolEx@V?$CTimeEventDecorator@UDWORDCOLOR@@@NEffectUpdateDecorator@@@@A
_BSS	SEGMENT
?ms_kPool@?$CPooledObject@V?$CTimeEventDecorator@UDWORDCOLOR@@@NEffectUpdateDecorator@@@@1V?$CDynamicPoolEx@V?$CTimeEventDecorator@UDWORDCOLOR@@@NEffectUpdateDecorator@@@@A DB 024H DUP (?) ; CPooledObject<NEffectUpdateDecorator::CTimeEventDecorator<DWORDCOLOR> >::ms_kPool
_BSS	ENDS
CRT$XCU	SEGMENT
??ms_kPool$initializer$@CParticleSystemData@@2P6AXXZA@@3P6AXXZA DD FLAT:??__E?ms_kPool@CParticleSystemData@@2V?$CDynamicPool@VCParticleSystemData@@@@A@@YAXXZ ; ??ms_kPool$initializer$@CParticleSystemData@@2P6AXXZA@@3P6AXXZA
CRT$XCU	ENDS
;	COMDAT __xmm@80000000800000008000000080000000
CONST	SEGMENT
__xmm@80000000800000008000000080000000 DB 00H, 00H, 00H, 080H, 00H, 00H, 00H
	DB	080H, 00H, 00H, 00H, 080H, 00H, 00H, 00H, 080H
CONST	ENDS
;	COMDAT __real@43800000
CONST	SEGMENT
__real@43800000 DD 043800000r			; 256
CONST	ENDS
;	COMDAT __real@437f0000
CONST	SEGMENT
__real@437f0000 DD 0437f0000r			; 255
CONST	ENDS
;	COMDAT __real@3f800000
CONST	SEGMENT
__real@3f800000 DD 03f800000r			; 1
CONST	ENDS
;	COMDAT __real@3f000000
CONST	SEGMENT
__real@3f000000 DD 03f000000r			; 0.5
CONST	ENDS
;	COMDAT __real@3eb0c6f7a0b5ed8d
CONST	SEGMENT
__real@3eb0c6f7a0b5ed8d DQ 03eb0c6f7a0b5ed8dr	; 1e-06
CONST	ENDS
;	COMDAT __real@3d4ccccd
CONST	SEGMENT
__real@3d4ccccd DD 03d4ccccdr			; 0.05
CONST	ENDS
;	COMDAT __real@00000000
CONST	SEGMENT
__real@00000000 DD 000000000r			; 0
CONST	ENDS
;	COMDAT ??_R1A@?0A@EA@?$CDynamicPoolEx@V?$CTimeEventDecorator@UDWORDCOLOR@@@NEffectUpdateDecorator@@@@8
rdata$r	SEGMENT
??_R1A@?0A@EA@?$CDynamicPoolEx@V?$CTimeEventDecorator@UDWORDCOLOR@@@NEffectUpdateDecorator@@@@8 DD FLAT:??_R0?AV?$CDynamicPoolEx@V?$CTimeEventDecorator@UDWORDCOLOR@@@NEffectUpdateDecorator@@@@@8 ; CDynamicPoolEx<NEffectUpdateDecorator::CTimeEventDecorator<DWORDCOLOR> >::`RTTI Base Class Descriptor at (0,-1,0,64)'
	DD	00H
	DD	00H
	DD	0ffffffffH
	DD	00H
	DD	040H
	DD	FLAT:??_R3?$CDynamicPoolEx@V?$CTimeEventDecorator@UDWORDCOLOR@@@NEffectUpdateDecorator@@@@8
rdata$r	ENDS
;	COMDAT ??_R2?$CDynamicPoolEx@V?$CTimeEventDecorator@UDWORDCOLOR@@@NEffectUpdateDecorator@@@@8
rdata$r	SEGMENT
??_R2?$CDynamicPoolEx@V?$CTimeEventDecorator@UDWORDCOLOR@@@NEffectUpdateDecorator@@@@8 DD FLAT:??_R1A@?0A@EA@?$CDynamicPoolEx@V?$CTimeEventDecorator@UDWORDCOLOR@@@NEffectUpdateDecorator@@@@8 ; CDynamicPoolEx<NEffectUpdateDecorator::CTimeEventDecorator<DWORDCOLOR> >::`RTTI Base Class Array'
rdata$r	ENDS
;	COMDAT ??_R3?$CDynamicPoolEx@V?$CTimeEventDecorator@UDWORDCOLOR@@@NEffectUpdateDecorator@@@@8
rdata$r	SEGMENT
??_R3?$CDynamicPoolEx@V?$CTimeEventDecorator@UDWORDCOLOR@@@NEffectUpdateDecorator@@@@8 DD 00H ; CDynamicPoolEx<NEffectUpdateDecorator::CTimeEventDecorator<DWORDCOLOR> >::`RTTI Class Hierarchy Descriptor'
	DD	00H
	DD	01H
	DD	FLAT:??_R2?$CDynamicPoolEx@V?$CTimeEventDecorator@UDWORDCOLOR@@@NEffectUpdateDecorator@@@@8
rdata$r	ENDS
;	COMDAT ??_R0?AV?$CDynamicPoolEx@V?$CTimeEventDecorator@UDWORDCOLOR@@@NEffectUpdateDecorator@@@@@8
data$rs	SEGMENT
??_R0?AV?$CDynamicPoolEx@V?$CTimeEventDecorator@UDWORDCOLOR@@@NEffectUpdateDecorator@@@@@8 DD FLAT:??_7type_info@@6B@ ; CDynamicPoolEx<NEffectUpdateDecorator::CTimeEventDecorator<DWORDCOLOR> > `RTTI Type Descriptor'
	DD	00H
	DB	'.?AV?$CDynamicPoolEx@V?$CTimeEventDecorator@UDWORDCOLOR@'
	DB	'@@NEffectUpdateDecorator@@@@', 00H
data$rs	ENDS
;	COMDAT ??_R4?$CDynamicPoolEx@V?$CTimeEventDecorator@UDWORDCOLOR@@@NEffectUpdateDecorator@@@@6B@
rdata$r	SEGMENT
??_R4?$CDynamicPoolEx@V?$CTimeEventDecorator@UDWORDCOLOR@@@NEffectUpdateDecorator@@@@6B@ DD 00H ; CDynamicPoolEx<NEffectUpdateDecorator::CTimeEventDecorator<DWORDCOLOR> >::`RTTI Complete Object Locator'
	DD	00H
	DD	00H
	DD	FLAT:??_R0?AV?$CDynamicPoolEx@V?$CTimeEventDecorator@UDWORDCOLOR@@@NEffectUpdateDecorator@@@@@8
	DD	FLAT:??_R3?$CDynamicPoolEx@V?$CTimeEventDecorator@UDWORDCOLOR@@@NEffectUpdateDecorator@@@@8
rdata$r	ENDS
;	COMDAT ??_R4?$CPooledObject@V?$CTimeEventDecorator@UDWORDCOLOR@@@NEffectUpdateDecorator@@@@6B@
rdata$r	SEGMENT
??_R4?$CPooledObject@V?$CTimeEventDecorator@UDWORDCOLOR@@@NEffectUpdateDecorator@@@@6B@ DD 00H ; CPooledObject<NEffectUpdateDecorator::CTimeEventDecorator<DWORDCOLOR> >::`RTTI Complete Object Locator'
	DD	00H
	DD	00H
	DD	FLAT:??_R0?AV?$CPooledObject@V?$CTimeEventDecorator@UDWORDCOLOR@@@NEffectUpdateDecorator@@@@@8
	DD	FLAT:??_R3?$CPooledObject@V?$CTimeEventDecorator@UDWORDCOLOR@@@NEffectUpdateDecorator@@@@8
rdata$r	ENDS
;	COMDAT ??_R1A@?0A@EA@?$CDynamicPoolEx@V?$CTimeEventDecorator@M@NEffectUpdateDecorator@@@@8
rdata$r	SEGMENT
??_R1A@?0A@EA@?$CDynamicPoolEx@V?$CTimeEventDecorator@M@NEffectUpdateDecorator@@@@8 DD FLAT:??_R0?AV?$CDynamicPoolEx@V?$CTimeEventDecorator@M@NEffectUpdateDecorator@@@@@8 ; CDynamicPoolEx<NEffectUpdateDecorator::CTimeEventDecorator<float> >::`RTTI Base Class Descriptor at (0,-1,0,64)'
	DD	00H
	DD	00H
	DD	0ffffffffH
	DD	00H
	DD	040H
	DD	FLAT:??_R3?$CDynamicPoolEx@V?$CTimeEventDecorator@M@NEffectUpdateDecorator@@@@8
rdata$r	ENDS
;	COMDAT ??_R2?$CDynamicPoolEx@V?$CTimeEventDecorator@M@NEffectUpdateDecorator@@@@8
rdata$r	SEGMENT
??_R2?$CDynamicPoolEx@V?$CTimeEventDecorator@M@NEffectUpdateDecorator@@@@8 DD FLAT:??_R1A@?0A@EA@?$CDynamicPoolEx@V?$CTimeEventDecorator@M@NEffectUpdateDecorator@@@@8 ; CDynamicPoolEx<NEffectUpdateDecorator::CTimeEventDecorator<float> >::`RTTI Base Class Array'
rdata$r	ENDS
;	COMDAT ??_R3?$CDynamicPoolEx@V?$CTimeEventDecorator@M@NEffectUpdateDecorator@@@@8
rdata$r	SEGMENT
??_R3?$CDynamicPoolEx@V?$CTimeEventDecorator@M@NEffectUpdateDecorator@@@@8 DD 00H ; CDynamicPoolEx<NEffectUpdateDecorator::CTimeEventDecorator<float> >::`RTTI Class Hierarchy Descriptor'
	DD	00H
	DD	01H
	DD	FLAT:??_R2?$CDynamicPoolEx@V?$CTimeEventDecorator@M@NEffectUpdateDecorator@@@@8
rdata$r	ENDS
;	COMDAT ??_R0?AV?$CDynamicPoolEx@V?$CTimeEventDecorator@M@NEffectUpdateDecorator@@@@@8
data$rs	SEGMENT
??_R0?AV?$CDynamicPoolEx@V?$CTimeEventDecorator@M@NEffectUpdateDecorator@@@@@8 DD FLAT:??_7type_info@@6B@ ; CDynamicPoolEx<NEffectUpdateDecorator::CTimeEventDecorator<float> > `RTTI Type Descriptor'
	DD	00H
	DB	'.?AV?$CDynamicPoolEx@V?$CTimeEventDecorator@M@NEffectUpd'
	DB	'ateDecorator@@@@', 00H
data$rs	ENDS
;	COMDAT ??_R4?$CDynamicPoolEx@V?$CTimeEventDecorator@M@NEffectUpdateDecorator@@@@6B@
rdata$r	SEGMENT
??_R4?$CDynamicPoolEx@V?$CTimeEventDecorator@M@NEffectUpdateDecorator@@@@6B@ DD 00H ; CDynamicPoolEx<NEffectUpdateDecorator::CTimeEventDecorator<float> >::`RTTI Complete Object Locator'
	DD	00H
	DD	00H
	DD	FLAT:??_R0?AV?$CDynamicPoolEx@V?$CTimeEventDecorator@M@NEffectUpdateDecorator@@@@@8
	DD	FLAT:??_R3?$CDynamicPoolEx@V?$CTimeEventDecorator@M@NEffectUpdateDecorator@@@@8
rdata$r	ENDS
;	COMDAT ??_R4?$CPooledObject@V?$CTimeEventDecorator@M@NEffectUpdateDecorator@@@@6B@
rdata$r	SEGMENT
??_R4?$CPooledObject@V?$CTimeEventDecorator@M@NEffectUpdateDecorator@@@@6B@ DD 00H ; CPooledObject<NEffectUpdateDecorator::CTimeEventDecorator<float> >::`RTTI Complete Object Locator'
	DD	00H
	DD	00H
	DD	FLAT:??_R0?AV?$CPooledObject@V?$CTimeEventDecorator@M@NEffectUpdateDecorator@@@@@8
	DD	FLAT:??_R3?$CPooledObject@V?$CTimeEventDecorator@M@NEffectUpdateDecorator@@@@8
rdata$r	ENDS
;	COMDAT ??_R1A@?0A@EA@?$CDynamicPoolEx@VCRotationDecorator@NEffectUpdateDecorator@@@@8
rdata$r	SEGMENT
??_R1A@?0A@EA@?$CDynamicPoolEx@VCRotationDecorator@NEffectUpdateDecorator@@@@8 DD FLAT:??_R0?AV?$CDynamicPoolEx@VCRotationDecorator@NEffectUpdateDecorator@@@@@8 ; CDynamicPoolEx<NEffectUpdateDecorator::CRotationDecorator>::`RTTI Base Class Descriptor at (0,-1,0,64)'
	DD	00H
	DD	00H
	DD	0ffffffffH
	DD	00H
	DD	040H
	DD	FLAT:??_R3?$CDynamicPoolEx@VCRotationDecorator@NEffectUpdateDecorator@@@@8
rdata$r	ENDS
;	COMDAT ??_R2?$CDynamicPoolEx@VCRotationDecorator@NEffectUpdateDecorator@@@@8
rdata$r	SEGMENT
??_R2?$CDynamicPoolEx@VCRotationDecorator@NEffectUpdateDecorator@@@@8 DD FLAT:??_R1A@?0A@EA@?$CDynamicPoolEx@VCRotationDecorator@NEffectUpdateDecorator@@@@8 ; CDynamicPoolEx<NEffectUpdateDecorator::CRotationDecorator>::`RTTI Base Class Array'
rdata$r	ENDS
;	COMDAT ??_R3?$CDynamicPoolEx@VCRotationDecorator@NEffectUpdateDecorator@@@@8
rdata$r	SEGMENT
??_R3?$CDynamicPoolEx@VCRotationDecorator@NEffectUpdateDecorator@@@@8 DD 00H ; CDynamicPoolEx<NEffectUpdateDecorator::CRotationDecorator>::`RTTI Class Hierarchy Descriptor'
	DD	00H
	DD	01H
	DD	FLAT:??_R2?$CDynamicPoolEx@VCRotationDecorator@NEffectUpdateDecorator@@@@8
rdata$r	ENDS
;	COMDAT ??_R0?AV?$CDynamicPoolEx@VCRotationDecorator@NEffectUpdateDecorator@@@@@8
data$rs	SEGMENT
??_R0?AV?$CDynamicPoolEx@VCRotationDecorator@NEffectUpdateDecorator@@@@@8 DD FLAT:??_7type_info@@6B@ ; CDynamicPoolEx<NEffectUpdateDecorator::CRotationDecorator> `RTTI Type Descriptor'
	DD	00H
	DB	'.?AV?$CDynamicPoolEx@VCRotationDecorator@NEffectUpdateDe'
	DB	'corator@@@@', 00H
data$rs	ENDS
;	COMDAT ??_R4?$CDynamicPoolEx@VCRotationDecorator@NEffectUpdateDecorator@@@@6B@
rdata$r	SEGMENT
??_R4?$CDynamicPoolEx@VCRotationDecorator@NEffectUpdateDecorator@@@@6B@ DD 00H ; CDynamicPoolEx<NEffectUpdateDecorator::CRotationDecorator>::`RTTI Complete Object Locator'
	DD	00H
	DD	00H
	DD	FLAT:??_R0?AV?$CDynamicPoolEx@VCRotationDecorator@NEffectUpdateDecorator@@@@@8
	DD	FLAT:??_R3?$CDynamicPoolEx@VCRotationDecorator@NEffectUpdateDecorator@@@@8
rdata$r	ENDS
;	COMDAT ??_R4?$CPooledObject@VCRotationDecorator@NEffectUpdateDecorator@@@@6B@
rdata$r	SEGMENT
??_R4?$CPooledObject@VCRotationDecorator@NEffectUpdateDecorator@@@@6B@ DD 00H ; CPooledObject<NEffectUpdateDecorator::CRotationDecorator>::`RTTI Complete Object Locator'
	DD	00H
	DD	00H
	DD	FLAT:??_R0?AV?$CPooledObject@VCRotationDecorator@NEffectUpdateDecorator@@@@@8
	DD	FLAT:??_R3?$CPooledObject@VCRotationDecorator@NEffectUpdateDecorator@@@@8
rdata$r	ENDS
;	COMDAT ??_R4CRotationDecorator@NEffectUpdateDecorator@@6B?$CPooledObject@VCRotationDecorator@NEffectUpdateDecorator@@@@@
rdata$r	SEGMENT
??_R4CRotationDecorator@NEffectUpdateDecorator@@6B?$CPooledObject@VCRotationDecorator@NEffectUpdateDecorator@@@@@ DD 00H ; NEffectUpdateDecorator::CRotationDecorator::`RTTI Complete Object Locator'
	DD	0cH
	DD	00H
	DD	FLAT:??_R0?AVCRotationDecorator@NEffectUpdateDecorator@@@8
	DD	FLAT:??_R3CRotationDecorator@NEffectUpdateDecorator@@8
rdata$r	ENDS
;	COMDAT ??_R1A@?0A@EA@?$CPooledObject@VCRotationDecorator@NEffectUpdateDecorator@@@@8
rdata$r	SEGMENT
??_R1A@?0A@EA@?$CPooledObject@VCRotationDecorator@NEffectUpdateDecorator@@@@8 DD FLAT:??_R0?AV?$CPooledObject@VCRotationDecorator@NEffectUpdateDecorator@@@@@8 ; CPooledObject<NEffectUpdateDecorator::CRotationDecorator>::`RTTI Base Class Descriptor at (0,-1,0,64)'
	DD	00H
	DD	00H
	DD	0ffffffffH
	DD	00H
	DD	040H
	DD	FLAT:??_R3?$CPooledObject@VCRotationDecorator@NEffectUpdateDecorator@@@@8
rdata$r	ENDS
;	COMDAT ??_R2?$CPooledObject@VCRotationDecorator@NEffectUpdateDecorator@@@@8
rdata$r	SEGMENT
??_R2?$CPooledObject@VCRotationDecorator@NEffectUpdateDecorator@@@@8 DD FLAT:??_R1A@?0A@EA@?$CPooledObject@VCRotationDecorator@NEffectUpdateDecorator@@@@8 ; CPooledObject<NEffectUpdateDecorator::CRotationDecorator>::`RTTI Base Class Array'
rdata$r	ENDS
;	COMDAT ??_R3?$CPooledObject@VCRotationDecorator@NEffectUpdateDecorator@@@@8
rdata$r	SEGMENT
??_R3?$CPooledObject@VCRotationDecorator@NEffectUpdateDecorator@@@@8 DD 00H ; CPooledObject<NEffectUpdateDecorator::CRotationDecorator>::`RTTI Class Hierarchy Descriptor'
	DD	00H
	DD	01H
	DD	FLAT:??_R2?$CPooledObject@VCRotationDecorator@NEffectUpdateDecorator@@@@8
rdata$r	ENDS
;	COMDAT ??_R0?AV?$CPooledObject@VCRotationDecorator@NEffectUpdateDecorator@@@@@8
data$rs	SEGMENT
??_R0?AV?$CPooledObject@VCRotationDecorator@NEffectUpdateDecorator@@@@@8 DD FLAT:??_7type_info@@6B@ ; CPooledObject<NEffectUpdateDecorator::CRotationDecorator> `RTTI Type Descriptor'
	DD	00H
	DB	'.?AV?$CPooledObject@VCRotationDecorator@NEffectUpdateDec'
	DB	'orator@@@@', 00H
data$rs	ENDS
;	COMDAT ??_R1M@?0A@EA@?$CPooledObject@VCRotationDecorator@NEffectUpdateDecorator@@@@8
rdata$r	SEGMENT
??_R1M@?0A@EA@?$CPooledObject@VCRotationDecorator@NEffectUpdateDecorator@@@@8 DD FLAT:??_R0?AV?$CPooledObject@VCRotationDecorator@NEffectUpdateDecorator@@@@@8 ; CPooledObject<NEffectUpdateDecorator::CRotationDecorator>::`RTTI Base Class Descriptor at (12,-1,0,64)'
	DD	00H
	DD	0cH
	DD	0ffffffffH
	DD	00H
	DD	040H
	DD	FLAT:??_R3?$CPooledObject@VCRotationDecorator@NEffectUpdateDecorator@@@@8
rdata$r	ENDS
;	COMDAT ??_R1A@?0A@EA@CRotationDecorator@NEffectUpdateDecorator@@8
rdata$r	SEGMENT
??_R1A@?0A@EA@CRotationDecorator@NEffectUpdateDecorator@@8 DD FLAT:??_R0?AVCRotationDecorator@NEffectUpdateDecorator@@@8 ; NEffectUpdateDecorator::CRotationDecorator::`RTTI Base Class Descriptor at (0,-1,0,64)'
	DD	02H
	DD	00H
	DD	0ffffffffH
	DD	00H
	DD	040H
	DD	FLAT:??_R3CRotationDecorator@NEffectUpdateDecorator@@8
rdata$r	ENDS
;	COMDAT ??_R2CRotationDecorator@NEffectUpdateDecorator@@8
rdata$r	SEGMENT
??_R2CRotationDecorator@NEffectUpdateDecorator@@8 DD FLAT:??_R1A@?0A@EA@CRotationDecorator@NEffectUpdateDecorator@@8 ; NEffectUpdateDecorator::CRotationDecorator::`RTTI Base Class Array'
	DD	FLAT:??_R1A@?0A@EA@CBaseDecorator@NEffectUpdateDecorator@@8
	DD	FLAT:??_R1M@?0A@EA@?$CPooledObject@VCRotationDecorator@NEffectUpdateDecorator@@@@8
rdata$r	ENDS
;	COMDAT ??_R3CRotationDecorator@NEffectUpdateDecorator@@8
rdata$r	SEGMENT
??_R3CRotationDecorator@NEffectUpdateDecorator@@8 DD 00H ; NEffectUpdateDecorator::CRotationDecorator::`RTTI Class Hierarchy Descriptor'
	DD	01H
	DD	03H
	DD	FLAT:??_R2CRotationDecorator@NEffectUpdateDecorator@@8
rdata$r	ENDS
;	COMDAT ??_R0?AVCRotationDecorator@NEffectUpdateDecorator@@@8
data$rs	SEGMENT
??_R0?AVCRotationDecorator@NEffectUpdateDecorator@@@8 DD FLAT:??_7type_info@@6B@ ; NEffectUpdateDecorator::CRotationDecorator `RTTI Type Descriptor'
	DD	00H
	DB	'.?AVCRotationDecorator@NEffectUpdateDecorator@@', 00H
data$rs	ENDS
;	COMDAT ??_R4CRotationDecorator@NEffectUpdateDecorator@@6BCBaseDecorator@1@@
rdata$r	SEGMENT
??_R4CRotationDecorator@NEffectUpdateDecorator@@6BCBaseDecorator@1@@ DD 00H ; NEffectUpdateDecorator::CRotationDecorator::`RTTI Complete Object Locator'
	DD	00H
	DD	00H
	DD	FLAT:??_R0?AVCRotationDecorator@NEffectUpdateDecorator@@@8
	DD	FLAT:??_R3CRotationDecorator@NEffectUpdateDecorator@@8
rdata$r	ENDS
;	COMDAT ??_R1A@?0A@EA@?$CDynamicPoolEx@VCGravityDecorator@NEffectUpdateDecorator@@@@8
rdata$r	SEGMENT
??_R1A@?0A@EA@?$CDynamicPoolEx@VCGravityDecorator@NEffectUpdateDecorator@@@@8 DD FLAT:??_R0?AV?$CDynamicPoolEx@VCGravityDecorator@NEffectUpdateDecorator@@@@@8 ; CDynamicPoolEx<NEffectUpdateDecorator::CGravityDecorator>::`RTTI Base Class Descriptor at (0,-1,0,64)'
	DD	00H
	DD	00H
	DD	0ffffffffH
	DD	00H
	DD	040H
	DD	FLAT:??_R3?$CDynamicPoolEx@VCGravityDecorator@NEffectUpdateDecorator@@@@8
rdata$r	ENDS
;	COMDAT ??_R2?$CDynamicPoolEx@VCGravityDecorator@NEffectUpdateDecorator@@@@8
rdata$r	SEGMENT
??_R2?$CDynamicPoolEx@VCGravityDecorator@NEffectUpdateDecorator@@@@8 DD FLAT:??_R1A@?0A@EA@?$CDynamicPoolEx@VCGravityDecorator@NEffectUpdateDecorator@@@@8 ; CDynamicPoolEx<NEffectUpdateDecorator::CGravityDecorator>::`RTTI Base Class Array'
rdata$r	ENDS
;	COMDAT ??_R3?$CDynamicPoolEx@VCGravityDecorator@NEffectUpdateDecorator@@@@8
rdata$r	SEGMENT
??_R3?$CDynamicPoolEx@VCGravityDecorator@NEffectUpdateDecorator@@@@8 DD 00H ; CDynamicPoolEx<NEffectUpdateDecorator::CGravityDecorator>::`RTTI Class Hierarchy Descriptor'
	DD	00H
	DD	01H
	DD	FLAT:??_R2?$CDynamicPoolEx@VCGravityDecorator@NEffectUpdateDecorator@@@@8
rdata$r	ENDS
;	COMDAT ??_R0?AV?$CDynamicPoolEx@VCGravityDecorator@NEffectUpdateDecorator@@@@@8
data$rs	SEGMENT
??_R0?AV?$CDynamicPoolEx@VCGravityDecorator@NEffectUpdateDecorator@@@@@8 DD FLAT:??_7type_info@@6B@ ; CDynamicPoolEx<NEffectUpdateDecorator::CGravityDecorator> `RTTI Type Descriptor'
	DD	00H
	DB	'.?AV?$CDynamicPoolEx@VCGravityDecorator@NEffectUpdateDec'
	DB	'orator@@@@', 00H
data$rs	ENDS
;	COMDAT ??_R4?$CDynamicPoolEx@VCGravityDecorator@NEffectUpdateDecorator@@@@6B@
rdata$r	SEGMENT
??_R4?$CDynamicPoolEx@VCGravityDecorator@NEffectUpdateDecorator@@@@6B@ DD 00H ; CDynamicPoolEx<NEffectUpdateDecorator::CGravityDecorator>::`RTTI Complete Object Locator'
	DD	00H
	DD	00H
	DD	FLAT:??_R0?AV?$CDynamicPoolEx@VCGravityDecorator@NEffectUpdateDecorator@@@@@8
	DD	FLAT:??_R3?$CDynamicPoolEx@VCGravityDecorator@NEffectUpdateDecorator@@@@8
rdata$r	ENDS
;	COMDAT ??_R4?$CPooledObject@VCGravityDecorator@NEffectUpdateDecorator@@@@6B@
rdata$r	SEGMENT
??_R4?$CPooledObject@VCGravityDecorator@NEffectUpdateDecorator@@@@6B@ DD 00H ; CPooledObject<NEffectUpdateDecorator::CGravityDecorator>::`RTTI Complete Object Locator'
	DD	00H
	DD	00H
	DD	FLAT:??_R0?AV?$CPooledObject@VCGravityDecorator@NEffectUpdateDecorator@@@@@8
	DD	FLAT:??_R3?$CPooledObject@VCGravityDecorator@NEffectUpdateDecorator@@@@8
rdata$r	ENDS
;	COMDAT ??_R4CGravityDecorator@NEffectUpdateDecorator@@6B?$CPooledObject@VCGravityDecorator@NEffectUpdateDecorator@@@@@
rdata$r	SEGMENT
??_R4CGravityDecorator@NEffectUpdateDecorator@@6B?$CPooledObject@VCGravityDecorator@NEffectUpdateDecorator@@@@@ DD 00H ; NEffectUpdateDecorator::CGravityDecorator::`RTTI Complete Object Locator'
	DD	0cH
	DD	00H
	DD	FLAT:??_R0?AVCGravityDecorator@NEffectUpdateDecorator@@@8
	DD	FLAT:??_R3CGravityDecorator@NEffectUpdateDecorator@@8
rdata$r	ENDS
;	COMDAT ??_R1A@?0A@EA@?$CPooledObject@VCGravityDecorator@NEffectUpdateDecorator@@@@8
rdata$r	SEGMENT
??_R1A@?0A@EA@?$CPooledObject@VCGravityDecorator@NEffectUpdateDecorator@@@@8 DD FLAT:??_R0?AV?$CPooledObject@VCGravityDecorator@NEffectUpdateDecorator@@@@@8 ; CPooledObject<NEffectUpdateDecorator::CGravityDecorator>::`RTTI Base Class Descriptor at (0,-1,0,64)'
	DD	00H
	DD	00H
	DD	0ffffffffH
	DD	00H
	DD	040H
	DD	FLAT:??_R3?$CPooledObject@VCGravityDecorator@NEffectUpdateDecorator@@@@8
rdata$r	ENDS
;	COMDAT ??_R2?$CPooledObject@VCGravityDecorator@NEffectUpdateDecorator@@@@8
rdata$r	SEGMENT
??_R2?$CPooledObject@VCGravityDecorator@NEffectUpdateDecorator@@@@8 DD FLAT:??_R1A@?0A@EA@?$CPooledObject@VCGravityDecorator@NEffectUpdateDecorator@@@@8 ; CPooledObject<NEffectUpdateDecorator::CGravityDecorator>::`RTTI Base Class Array'
rdata$r	ENDS
;	COMDAT ??_R3?$CPooledObject@VCGravityDecorator@NEffectUpdateDecorator@@@@8
rdata$r	SEGMENT
??_R3?$CPooledObject@VCGravityDecorator@NEffectUpdateDecorator@@@@8 DD 00H ; CPooledObject<NEffectUpdateDecorator::CGravityDecorator>::`RTTI Class Hierarchy Descriptor'
	DD	00H
	DD	01H
	DD	FLAT:??_R2?$CPooledObject@VCGravityDecorator@NEffectUpdateDecorator@@@@8
rdata$r	ENDS
;	COMDAT ??_R0?AV?$CPooledObject@VCGravityDecorator@NEffectUpdateDecorator@@@@@8
data$rs	SEGMENT
??_R0?AV?$CPooledObject@VCGravityDecorator@NEffectUpdateDecorator@@@@@8 DD FLAT:??_7type_info@@6B@ ; CPooledObject<NEffectUpdateDecorator::CGravityDecorator> `RTTI Type Descriptor'
	DD	00H
	DB	'.?AV?$CPooledObject@VCGravityDecorator@NEffectUpdateDeco'
	DB	'rator@@@@', 00H
data$rs	ENDS
;	COMDAT ??_R1M@?0A@EA@?$CPooledObject@VCGravityDecorator@NEffectUpdateDecorator@@@@8
rdata$r	SEGMENT
??_R1M@?0A@EA@?$CPooledObject@VCGravityDecorator@NEffectUpdateDecorator@@@@8 DD FLAT:??_R0?AV?$CPooledObject@VCGravityDecorator@NEffectUpdateDecorator@@@@@8 ; CPooledObject<NEffectUpdateDecorator::CGravityDecorator>::`RTTI Base Class Descriptor at (12,-1,0,64)'
	DD	00H
	DD	0cH
	DD	0ffffffffH
	DD	00H
	DD	040H
	DD	FLAT:??_R3?$CPooledObject@VCGravityDecorator@NEffectUpdateDecorator@@@@8
rdata$r	ENDS
;	COMDAT ??_R1A@?0A@EA@CGravityDecorator@NEffectUpdateDecorator@@8
rdata$r	SEGMENT
??_R1A@?0A@EA@CGravityDecorator@NEffectUpdateDecorator@@8 DD FLAT:??_R0?AVCGravityDecorator@NEffectUpdateDecorator@@@8 ; NEffectUpdateDecorator::CGravityDecorator::`RTTI Base Class Descriptor at (0,-1,0,64)'
	DD	02H
	DD	00H
	DD	0ffffffffH
	DD	00H
	DD	040H
	DD	FLAT:??_R3CGravityDecorator@NEffectUpdateDecorator@@8
rdata$r	ENDS
;	COMDAT ??_R2CGravityDecorator@NEffectUpdateDecorator@@8
rdata$r	SEGMENT
??_R2CGravityDecorator@NEffectUpdateDecorator@@8 DD FLAT:??_R1A@?0A@EA@CGravityDecorator@NEffectUpdateDecorator@@8 ; NEffectUpdateDecorator::CGravityDecorator::`RTTI Base Class Array'
	DD	FLAT:??_R1A@?0A@EA@CBaseDecorator@NEffectUpdateDecorator@@8
	DD	FLAT:??_R1M@?0A@EA@?$CPooledObject@VCGravityDecorator@NEffectUpdateDecorator@@@@8
rdata$r	ENDS
;	COMDAT ??_R3CGravityDecorator@NEffectUpdateDecorator@@8
rdata$r	SEGMENT
??_R3CGravityDecorator@NEffectUpdateDecorator@@8 DD 00H	; NEffectUpdateDecorator::CGravityDecorator::`RTTI Class Hierarchy Descriptor'
	DD	01H
	DD	03H
	DD	FLAT:??_R2CGravityDecorator@NEffectUpdateDecorator@@8
rdata$r	ENDS
;	COMDAT ??_R0?AVCGravityDecorator@NEffectUpdateDecorator@@@8
data$rs	SEGMENT
??_R0?AVCGravityDecorator@NEffectUpdateDecorator@@@8 DD FLAT:??_7type_info@@6B@ ; NEffectUpdateDecorator::CGravityDecorator `RTTI Type Descriptor'
	DD	00H
	DB	'.?AVCGravityDecorator@NEffectUpdateDecorator@@', 00H
data$rs	ENDS
;	COMDAT ??_R4CGravityDecorator@NEffectUpdateDecorator@@6BCBaseDecorator@1@@
rdata$r	SEGMENT
??_R4CGravityDecorator@NEffectUpdateDecorator@@6BCBaseDecorator@1@@ DD 00H ; NEffectUpdateDecorator::CGravityDecorator::`RTTI Complete Object Locator'
	DD	00H
	DD	00H
	DD	FLAT:??_R0?AVCGravityDecorator@NEffectUpdateDecorator@@@8
	DD	FLAT:??_R3CGravityDecorator@NEffectUpdateDecorator@@8
rdata$r	ENDS
;	COMDAT ??_R1A@?0A@EA@?$CDynamicPoolEx@VCAirResistanceDecorator@NEffectUpdateDecorator@@@@8
rdata$r	SEGMENT
??_R1A@?0A@EA@?$CDynamicPoolEx@VCAirResistanceDecorator@NEffectUpdateDecorator@@@@8 DD FLAT:??_R0?AV?$CDynamicPoolEx@VCAirResistanceDecorator@NEffectUpdateDecorator@@@@@8 ; CDynamicPoolEx<NEffectUpdateDecorator::CAirResistanceDecorator>::`RTTI Base Class Descriptor at (0,-1,0,64)'
	DD	00H
	DD	00H
	DD	0ffffffffH
	DD	00H
	DD	040H
	DD	FLAT:??_R3?$CDynamicPoolEx@VCAirResistanceDecorator@NEffectUpdateDecorator@@@@8
rdata$r	ENDS
;	COMDAT ??_R2?$CDynamicPoolEx@VCAirResistanceDecorator@NEffectUpdateDecorator@@@@8
rdata$r	SEGMENT
??_R2?$CDynamicPoolEx@VCAirResistanceDecorator@NEffectUpdateDecorator@@@@8 DD FLAT:??_R1A@?0A@EA@?$CDynamicPoolEx@VCAirResistanceDecorator@NEffectUpdateDecorator@@@@8 ; CDynamicPoolEx<NEffectUpdateDecorator::CAirResistanceDecorator>::`RTTI Base Class Array'
rdata$r	ENDS
;	COMDAT ??_R3?$CDynamicPoolEx@VCAirResistanceDecorator@NEffectUpdateDecorator@@@@8
rdata$r	SEGMENT
??_R3?$CDynamicPoolEx@VCAirResistanceDecorator@NEffectUpdateDecorator@@@@8 DD 00H ; CDynamicPoolEx<NEffectUpdateDecorator::CAirResistanceDecorator>::`RTTI Class Hierarchy Descriptor'
	DD	00H
	DD	01H
	DD	FLAT:??_R2?$CDynamicPoolEx@VCAirResistanceDecorator@NEffectUpdateDecorator@@@@8
rdata$r	ENDS
;	COMDAT ??_R0?AV?$CDynamicPoolEx@VCAirResistanceDecorator@NEffectUpdateDecorator@@@@@8
data$rs	SEGMENT
??_R0?AV?$CDynamicPoolEx@VCAirResistanceDecorator@NEffectUpdateDecorator@@@@@8 DD FLAT:??_7type_info@@6B@ ; CDynamicPoolEx<NEffectUpdateDecorator::CAirResistanceDecorator> `RTTI Type Descriptor'
	DD	00H
	DB	'.?AV?$CDynamicPoolEx@VCAirResistanceDecorator@NEffectUpd'
	DB	'ateDecorator@@@@', 00H
data$rs	ENDS
;	COMDAT ??_R4?$CDynamicPoolEx@VCAirResistanceDecorator@NEffectUpdateDecorator@@@@6B@
rdata$r	SEGMENT
??_R4?$CDynamicPoolEx@VCAirResistanceDecorator@NEffectUpdateDecorator@@@@6B@ DD 00H ; CDynamicPoolEx<NEffectUpdateDecorator::CAirResistanceDecorator>::`RTTI Complete Object Locator'
	DD	00H
	DD	00H
	DD	FLAT:??_R0?AV?$CDynamicPoolEx@VCAirResistanceDecorator@NEffectUpdateDecorator@@@@@8
	DD	FLAT:??_R3?$CDynamicPoolEx@VCAirResistanceDecorator@NEffectUpdateDecorator@@@@8
rdata$r	ENDS
;	COMDAT ??_R4?$CPooledObject@VCAirResistanceDecorator@NEffectUpdateDecorator@@@@6B@
rdata$r	SEGMENT
??_R4?$CPooledObject@VCAirResistanceDecorator@NEffectUpdateDecorator@@@@6B@ DD 00H ; CPooledObject<NEffectUpdateDecorator::CAirResistanceDecorator>::`RTTI Complete Object Locator'
	DD	00H
	DD	00H
	DD	FLAT:??_R0?AV?$CPooledObject@VCAirResistanceDecorator@NEffectUpdateDecorator@@@@@8
	DD	FLAT:??_R3?$CPooledObject@VCAirResistanceDecorator@NEffectUpdateDecorator@@@@8
rdata$r	ENDS
;	COMDAT ??_R4CAirResistanceDecorator@NEffectUpdateDecorator@@6B?$CPooledObject@VCAirResistanceDecorator@NEffectUpdateDecorator@@@@@
rdata$r	SEGMENT
??_R4CAirResistanceDecorator@NEffectUpdateDecorator@@6B?$CPooledObject@VCAirResistanceDecorator@NEffectUpdateDecorator@@@@@ DD 00H ; NEffectUpdateDecorator::CAirResistanceDecorator::`RTTI Complete Object Locator'
	DD	0cH
	DD	00H
	DD	FLAT:??_R0?AVCAirResistanceDecorator@NEffectUpdateDecorator@@@8
	DD	FLAT:??_R3CAirResistanceDecorator@NEffectUpdateDecorator@@8
rdata$r	ENDS
;	COMDAT ??_R1A@?0A@EA@?$CPooledObject@VCAirResistanceDecorator@NEffectUpdateDecorator@@@@8
rdata$r	SEGMENT
??_R1A@?0A@EA@?$CPooledObject@VCAirResistanceDecorator@NEffectUpdateDecorator@@@@8 DD FLAT:??_R0?AV?$CPooledObject@VCAirResistanceDecorator@NEffectUpdateDecorator@@@@@8 ; CPooledObject<NEffectUpdateDecorator::CAirResistanceDecorator>::`RTTI Base Class Descriptor at (0,-1,0,64)'
	DD	00H
	DD	00H
	DD	0ffffffffH
	DD	00H
	DD	040H
	DD	FLAT:??_R3?$CPooledObject@VCAirResistanceDecorator@NEffectUpdateDecorator@@@@8
rdata$r	ENDS
;	COMDAT ??_R2?$CPooledObject@VCAirResistanceDecorator@NEffectUpdateDecorator@@@@8
rdata$r	SEGMENT
??_R2?$CPooledObject@VCAirResistanceDecorator@NEffectUpdateDecorator@@@@8 DD FLAT:??_R1A@?0A@EA@?$CPooledObject@VCAirResistanceDecorator@NEffectUpdateDecorator@@@@8 ; CPooledObject<NEffectUpdateDecorator::CAirResistanceDecorator>::`RTTI Base Class Array'
rdata$r	ENDS
;	COMDAT ??_R3?$CPooledObject@VCAirResistanceDecorator@NEffectUpdateDecorator@@@@8
rdata$r	SEGMENT
??_R3?$CPooledObject@VCAirResistanceDecorator@NEffectUpdateDecorator@@@@8 DD 00H ; CPooledObject<NEffectUpdateDecorator::CAirResistanceDecorator>::`RTTI Class Hierarchy Descriptor'
	DD	00H
	DD	01H
	DD	FLAT:??_R2?$CPooledObject@VCAirResistanceDecorator@NEffectUpdateDecorator@@@@8
rdata$r	ENDS
;	COMDAT ??_R0?AV?$CPooledObject@VCAirResistanceDecorator@NEffectUpdateDecorator@@@@@8
data$rs	SEGMENT
??_R0?AV?$CPooledObject@VCAirResistanceDecorator@NEffectUpdateDecorator@@@@@8 DD FLAT:??_7type_info@@6B@ ; CPooledObject<NEffectUpdateDecorator::CAirResistanceDecorator> `RTTI Type Descriptor'
	DD	00H
	DB	'.?AV?$CPooledObject@VCAirResistanceDecorator@NEffectUpda'
	DB	'teDecorator@@@@', 00H
data$rs	ENDS
;	COMDAT ??_R1M@?0A@EA@?$CPooledObject@VCAirResistanceDecorator@NEffectUpdateDecorator@@@@8
rdata$r	SEGMENT
??_R1M@?0A@EA@?$CPooledObject@VCAirResistanceDecorator@NEffectUpdateDecorator@@@@8 DD FLAT:??_R0?AV?$CPooledObject@VCAirResistanceDecorator@NEffectUpdateDecorator@@@@@8 ; CPooledObject<NEffectUpdateDecorator::CAirResistanceDecorator>::`RTTI Base Class Descriptor at (12,-1,0,64)'
	DD	00H
	DD	0cH
	DD	0ffffffffH
	DD	00H
	DD	040H
	DD	FLAT:??_R3?$CPooledObject@VCAirResistanceDecorator@NEffectUpdateDecorator@@@@8
rdata$r	ENDS
;	COMDAT ??_R1A@?0A@EA@CAirResistanceDecorator@NEffectUpdateDecorator@@8
rdata$r	SEGMENT
??_R1A@?0A@EA@CAirResistanceDecorator@NEffectUpdateDecorator@@8 DD FLAT:??_R0?AVCAirResistanceDecorator@NEffectUpdateDecorator@@@8 ; NEffectUpdateDecorator::CAirResistanceDecorator::`RTTI Base Class Descriptor at (0,-1,0,64)'
	DD	02H
	DD	00H
	DD	0ffffffffH
	DD	00H
	DD	040H
	DD	FLAT:??_R3CAirResistanceDecorator@NEffectUpdateDecorator@@8
rdata$r	ENDS
;	COMDAT ??_R2CAirResistanceDecorator@NEffectUpdateDecorator@@8
rdata$r	SEGMENT
??_R2CAirResistanceDecorator@NEffectUpdateDecorator@@8 DD FLAT:??_R1A@?0A@EA@CAirResistanceDecorator@NEffectUpdateDecorator@@8 ; NEffectUpdateDecorator::CAirResistanceDecorator::`RTTI Base Class Array'
	DD	FLAT:??_R1A@?0A@EA@CBaseDecorator@NEffectUpdateDecorator@@8
	DD	FLAT:??_R1M@?0A@EA@?$CPooledObject@VCAirResistanceDecorator@NEffectUpdateDecorator@@@@8
rdata$r	ENDS
;	COMDAT ??_R3CAirResistanceDecorator@NEffectUpdateDecorator@@8
rdata$r	SEGMENT
??_R3CAirResistanceDecorator@NEffectUpdateDecorator@@8 DD 00H ; NEffectUpdateDecorator::CAirResistanceDecorator::`RTTI Class Hierarchy Descriptor'
	DD	01H
	DD	03H
	DD	FLAT:??_R2CAirResistanceDecorator@NEffectUpdateDecorator@@8
rdata$r	ENDS
;	COMDAT ??_R0?AVCAirResistanceDecorator@NEffectUpdateDecorator@@@8
data$rs	SEGMENT
??_R0?AVCAirResistanceDecorator@NEffectUpdateDecorator@@@8 DD FLAT:??_7type_info@@6B@ ; NEffectUpdateDecorator::CAirResistanceDecorator `RTTI Type Descriptor'
	DD	00H
	DB	'.?AVCAirResistanceDecorator@NEffectUpdateDecorator@@', 00H
data$rs	ENDS
;	COMDAT ??_R4CAirResistanceDecorator@NEffectUpdateDecorator@@6BCBaseDecorator@1@@
rdata$r	SEGMENT
??_R4CAirResistanceDecorator@NEffectUpdateDecorator@@6BCBaseDecorator@1@@ DD 00H ; NEffectUpdateDecorator::CAirResistanceDecorator::`RTTI Complete Object Locator'
	DD	00H
	DD	00H
	DD	FLAT:??_R0?AVCAirResistanceDecorator@NEffectUpdateDecorator@@@8
	DD	FLAT:??_R3CAirResistanceDecorator@NEffectUpdateDecorator@@8
rdata$r	ENDS
;	COMDAT ??_R1A@?0A@EA@?$CDynamicPoolEx@VCTextureAnimationRandomDecorator@NEffectUpdateDecorator@@@@8
rdata$r	SEGMENT
??_R1A@?0A@EA@?$CDynamicPoolEx@VCTextureAnimationRandomDecorator@NEffectUpdateDecorator@@@@8 DD FLAT:??_R0?AV?$CDynamicPoolEx@VCTextureAnimationRandomDecorator@NEffectUpdateDecorator@@@@@8 ; CDynamicPoolEx<NEffectUpdateDecorator::CTextureAnimationRandomDecorator>::`RTTI Base Class Descriptor at (0,-1,0,64)'
	DD	00H
	DD	00H
	DD	0ffffffffH
	DD	00H
	DD	040H
	DD	FLAT:??_R3?$CDynamicPoolEx@VCTextureAnimationRandomDecorator@NEffectUpdateDecorator@@@@8
rdata$r	ENDS
;	COMDAT ??_R2?$CDynamicPoolEx@VCTextureAnimationRandomDecorator@NEffectUpdateDecorator@@@@8
rdata$r	SEGMENT
??_R2?$CDynamicPoolEx@VCTextureAnimationRandomDecorator@NEffectUpdateDecorator@@@@8 DD FLAT:??_R1A@?0A@EA@?$CDynamicPoolEx@VCTextureAnimationRandomDecorator@NEffectUpdateDecorator@@@@8 ; CDynamicPoolEx<NEffectUpdateDecorator::CTextureAnimationRandomDecorator>::`RTTI Base Class Array'
rdata$r	ENDS
;	COMDAT ??_R3?$CDynamicPoolEx@VCTextureAnimationRandomDecorator@NEffectUpdateDecorator@@@@8
rdata$r	SEGMENT
??_R3?$CDynamicPoolEx@VCTextureAnimationRandomDecorator@NEffectUpdateDecorator@@@@8 DD 00H ; CDynamicPoolEx<NEffectUpdateDecorator::CTextureAnimationRandomDecorator>::`RTTI Class Hierarchy Descriptor'
	DD	00H
	DD	01H
	DD	FLAT:??_R2?$CDynamicPoolEx@VCTextureAnimationRandomDecorator@NEffectUpdateDecorator@@@@8
rdata$r	ENDS
;	COMDAT ??_R0?AV?$CDynamicPoolEx@VCTextureAnimationRandomDecorator@NEffectUpdateDecorator@@@@@8
data$rs	SEGMENT
??_R0?AV?$CDynamicPoolEx@VCTextureAnimationRandomDecorator@NEffectUpdateDecorator@@@@@8 DD FLAT:??_7type_info@@6B@ ; CDynamicPoolEx<NEffectUpdateDecorator::CTextureAnimationRandomDecorator> `RTTI Type Descriptor'
	DD	00H
	DB	'.?AV?$CDynamicPoolEx@VCTextureAnimationRandomDecorator@N'
	DB	'EffectUpdateDecorator@@@@', 00H
data$rs	ENDS
;	COMDAT ??_R4?$CDynamicPoolEx@VCTextureAnimationRandomDecorator@NEffectUpdateDecorator@@@@6B@
rdata$r	SEGMENT
??_R4?$CDynamicPoolEx@VCTextureAnimationRandomDecorator@NEffectUpdateDecorator@@@@6B@ DD 00H ; CDynamicPoolEx<NEffectUpdateDecorator::CTextureAnimationRandomDecorator>::`RTTI Complete Object Locator'
	DD	00H
	DD	00H
	DD	FLAT:??_R0?AV?$CDynamicPoolEx@VCTextureAnimationRandomDecorator@NEffectUpdateDecorator@@@@@8
	DD	FLAT:??_R3?$CDynamicPoolEx@VCTextureAnimationRandomDecorator@NEffectUpdateDecorator@@@@8
rdata$r	ENDS
;	COMDAT ??_R4?$CPooledObject@VCTextureAnimationRandomDecorator@NEffectUpdateDecorator@@@@6B@
rdata$r	SEGMENT
??_R4?$CPooledObject@VCTextureAnimationRandomDecorator@NEffectUpdateDecorator@@@@6B@ DD 00H ; CPooledObject<NEffectUpdateDecorator::CTextureAnimationRandomDecorator>::`RTTI Complete Object Locator'
	DD	00H
	DD	00H
	DD	FLAT:??_R0?AV?$CPooledObject@VCTextureAnimationRandomDecorator@NEffectUpdateDecorator@@@@@8
	DD	FLAT:??_R3?$CPooledObject@VCTextureAnimationRandomDecorator@NEffectUpdateDecorator@@@@8
rdata$r	ENDS
;	COMDAT ??_R4CTextureAnimationRandomDecorator@NEffectUpdateDecorator@@6B?$CPooledObject@VCTextureAnimationRandomDecorator@NEffectUpdateDecorator@@@@@
rdata$r	SEGMENT
??_R4CTextureAnimationRandomDecorator@NEffectUpdateDecorator@@6B?$CPooledObject@VCTextureAnimationRandomDecorator@NEffectUpdateDecorator@@@@@ DD 00H ; NEffectUpdateDecorator::CTextureAnimationRandomDecorator::`RTTI Complete Object Locator'
	DD	0cH
	DD	00H
	DD	FLAT:??_R0?AVCTextureAnimationRandomDecorator@NEffectUpdateDecorator@@@8
	DD	FLAT:??_R3CTextureAnimationRandomDecorator@NEffectUpdateDecorator@@8
rdata$r	ENDS
;	COMDAT ??_R1A@?0A@EA@?$CPooledObject@VCTextureAnimationRandomDecorator@NEffectUpdateDecorator@@@@8
rdata$r	SEGMENT
??_R1A@?0A@EA@?$CPooledObject@VCTextureAnimationRandomDecorator@NEffectUpdateDecorator@@@@8 DD FLAT:??_R0?AV?$CPooledObject@VCTextureAnimationRandomDecorator@NEffectUpdateDecorator@@@@@8 ; CPooledObject<NEffectUpdateDecorator::CTextureAnimationRandomDecorator>::`RTTI Base Class Descriptor at (0,-1,0,64)'
	DD	00H
	DD	00H
	DD	0ffffffffH
	DD	00H
	DD	040H
	DD	FLAT:??_R3?$CPooledObject@VCTextureAnimationRandomDecorator@NEffectUpdateDecorator@@@@8
rdata$r	ENDS
;	COMDAT ??_R2?$CPooledObject@VCTextureAnimationRandomDecorator@NEffectUpdateDecorator@@@@8
rdata$r	SEGMENT
??_R2?$CPooledObject@VCTextureAnimationRandomDecorator@NEffectUpdateDecorator@@@@8 DD FLAT:??_R1A@?0A@EA@?$CPooledObject@VCTextureAnimationRandomDecorator@NEffectUpdateDecorator@@@@8 ; CPooledObject<NEffectUpdateDecorator::CTextureAnimationRandomDecorator>::`RTTI Base Class Array'
rdata$r	ENDS
;	COMDAT ??_R3?$CPooledObject@VCTextureAnimationRandomDecorator@NEffectUpdateDecorator@@@@8
rdata$r	SEGMENT
??_R3?$CPooledObject@VCTextureAnimationRandomDecorator@NEffectUpdateDecorator@@@@8 DD 00H ; CPooledObject<NEffectUpdateDecorator::CTextureAnimationRandomDecorator>::`RTTI Class Hierarchy Descriptor'
	DD	00H
	DD	01H
	DD	FLAT:??_R2?$CPooledObject@VCTextureAnimationRandomDecorator@NEffectUpdateDecorator@@@@8
rdata$r	ENDS
;	COMDAT ??_R0?AV?$CPooledObject@VCTextureAnimationRandomDecorator@NEffectUpdateDecorator@@@@@8
data$rs	SEGMENT
??_R0?AV?$CPooledObject@VCTextureAnimationRandomDecorator@NEffectUpdateDecorator@@@@@8 DD FLAT:??_7type_info@@6B@ ; CPooledObject<NEffectUpdateDecorator::CTextureAnimationRandomDecorator> `RTTI Type Descriptor'
	DD	00H
	DB	'.?AV?$CPooledObject@VCTextureAnimationRandomDecorator@NE'
	DB	'ffectUpdateDecorator@@@@', 00H
data$rs	ENDS
;	COMDAT ??_R1M@?0A@EA@?$CPooledObject@VCTextureAnimationRandomDecorator@NEffectUpdateDecorator@@@@8
rdata$r	SEGMENT
??_R1M@?0A@EA@?$CPooledObject@VCTextureAnimationRandomDecorator@NEffectUpdateDecorator@@@@8 DD FLAT:??_R0?AV?$CPooledObject@VCTextureAnimationRandomDecorator@NEffectUpdateDecorator@@@@@8 ; CPooledObject<NEffectUpdateDecorator::CTextureAnimationRandomDecorator>::`RTTI Base Class Descriptor at (12,-1,0,64)'
	DD	00H
	DD	0cH
	DD	0ffffffffH
	DD	00H
	DD	040H
	DD	FLAT:??_R3?$CPooledObject@VCTextureAnimationRandomDecorator@NEffectUpdateDecorator@@@@8
rdata$r	ENDS
;	COMDAT ??_R1A@?0A@EA@CTextureAnimationRandomDecorator@NEffectUpdateDecorator@@8
rdata$r	SEGMENT
??_R1A@?0A@EA@CTextureAnimationRandomDecorator@NEffectUpdateDecorator@@8 DD FLAT:??_R0?AVCTextureAnimationRandomDecorator@NEffectUpdateDecorator@@@8 ; NEffectUpdateDecorator::CTextureAnimationRandomDecorator::`RTTI Base Class Descriptor at (0,-1,0,64)'
	DD	02H
	DD	00H
	DD	0ffffffffH
	DD	00H
	DD	040H
	DD	FLAT:??_R3CTextureAnimationRandomDecorator@NEffectUpdateDecorator@@8
rdata$r	ENDS
;	COMDAT ??_R2CTextureAnimationRandomDecorator@NEffectUpdateDecorator@@8
rdata$r	SEGMENT
??_R2CTextureAnimationRandomDecorator@NEffectUpdateDecorator@@8 DD FLAT:??_R1A@?0A@EA@CTextureAnimationRandomDecorator@NEffectUpdateDecorator@@8 ; NEffectUpdateDecorator::CTextureAnimationRandomDecorator::`RTTI Base Class Array'
	DD	FLAT:??_R1A@?0A@EA@CBaseDecorator@NEffectUpdateDecorator@@8
	DD	FLAT:??_R1M@?0A@EA@?$CPooledObject@VCTextureAnimationRandomDecorator@NEffectUpdateDecorator@@@@8
rdata$r	ENDS
;	COMDAT ??_R3CTextureAnimationRandomDecorator@NEffectUpdateDecorator@@8
rdata$r	SEGMENT
??_R3CTextureAnimationRandomDecorator@NEffectUpdateDecorator@@8 DD 00H ; NEffectUpdateDecorator::CTextureAnimationRandomDecorator::`RTTI Class Hierarchy Descriptor'
	DD	01H
	DD	03H
	DD	FLAT:??_R2CTextureAnimationRandomDecorator@NEffectUpdateDecorator@@8
rdata$r	ENDS
;	COMDAT ??_R0?AVCTextureAnimationRandomDecorator@NEffectUpdateDecorator@@@8
data$rs	SEGMENT
??_R0?AVCTextureAnimationRandomDecorator@NEffectUpdateDecorator@@@8 DD FLAT:??_7type_info@@6B@ ; NEffectUpdateDecorator::CTextureAnimationRandomDecorator `RTTI Type Descriptor'
	DD	00H
	DB	'.?AVCTextureAnimationRandomDecorator@NEffectUpdateDecora'
	DB	'tor@@', 00H
data$rs	ENDS
;	COMDAT ??_R4CTextureAnimationRandomDecorator@NEffectUpdateDecorator@@6BCBaseDecorator@1@@
rdata$r	SEGMENT
??_R4CTextureAnimationRandomDecorator@NEffectUpdateDecorator@@6BCBaseDecorator@1@@ DD 00H ; NEffectUpdateDecorator::CTextureAnimationRandomDecorator::`RTTI Complete Object Locator'
	DD	00H
	DD	00H
	DD	FLAT:??_R0?AVCTextureAnimationRandomDecorator@NEffectUpdateDecorator@@@8
	DD	FLAT:??_R3CTextureAnimationRandomDecorator@NEffectUpdateDecorator@@8
rdata$r	ENDS
;	COMDAT ??_R1A@?0A@EA@?$CDynamicPoolEx@VCTextureAnimationCCWDecorator@NEffectUpdateDecorator@@@@8
rdata$r	SEGMENT
??_R1A@?0A@EA@?$CDynamicPoolEx@VCTextureAnimationCCWDecorator@NEffectUpdateDecorator@@@@8 DD FLAT:??_R0?AV?$CDynamicPoolEx@VCTextureAnimationCCWDecorator@NEffectUpdateDecorator@@@@@8 ; CDynamicPoolEx<NEffectUpdateDecorator::CTextureAnimationCCWDecorator>::`RTTI Base Class Descriptor at (0,-1,0,64)'
	DD	00H
	DD	00H
	DD	0ffffffffH
	DD	00H
	DD	040H
	DD	FLAT:??_R3?$CDynamicPoolEx@VCTextureAnimationCCWDecorator@NEffectUpdateDecorator@@@@8
rdata$r	ENDS
;	COMDAT ??_R2?$CDynamicPoolEx@VCTextureAnimationCCWDecorator@NEffectUpdateDecorator@@@@8
rdata$r	SEGMENT
??_R2?$CDynamicPoolEx@VCTextureAnimationCCWDecorator@NEffectUpdateDecorator@@@@8 DD FLAT:??_R1A@?0A@EA@?$CDynamicPoolEx@VCTextureAnimationCCWDecorator@NEffectUpdateDecorator@@@@8 ; CDynamicPoolEx<NEffectUpdateDecorator::CTextureAnimationCCWDecorator>::`RTTI Base Class Array'
rdata$r	ENDS
;	COMDAT ??_R3?$CDynamicPoolEx@VCTextureAnimationCCWDecorator@NEffectUpdateDecorator@@@@8
rdata$r	SEGMENT
??_R3?$CDynamicPoolEx@VCTextureAnimationCCWDecorator@NEffectUpdateDecorator@@@@8 DD 00H ; CDynamicPoolEx<NEffectUpdateDecorator::CTextureAnimationCCWDecorator>::`RTTI Class Hierarchy Descriptor'
	DD	00H
	DD	01H
	DD	FLAT:??_R2?$CDynamicPoolEx@VCTextureAnimationCCWDecorator@NEffectUpdateDecorator@@@@8
rdata$r	ENDS
;	COMDAT ??_R0?AV?$CDynamicPoolEx@VCTextureAnimationCCWDecorator@NEffectUpdateDecorator@@@@@8
data$rs	SEGMENT
??_R0?AV?$CDynamicPoolEx@VCTextureAnimationCCWDecorator@NEffectUpdateDecorator@@@@@8 DD FLAT:??_7type_info@@6B@ ; CDynamicPoolEx<NEffectUpdateDecorator::CTextureAnimationCCWDecorator> `RTTI Type Descriptor'
	DD	00H
	DB	'.?AV?$CDynamicPoolEx@VCTextureAnimationCCWDecorator@NEff'
	DB	'ectUpdateDecorator@@@@', 00H
data$rs	ENDS
;	COMDAT ??_R4?$CDynamicPoolEx@VCTextureAnimationCCWDecorator@NEffectUpdateDecorator@@@@6B@
rdata$r	SEGMENT
??_R4?$CDynamicPoolEx@VCTextureAnimationCCWDecorator@NEffectUpdateDecorator@@@@6B@ DD 00H ; CDynamicPoolEx<NEffectUpdateDecorator::CTextureAnimationCCWDecorator>::`RTTI Complete Object Locator'
	DD	00H
	DD	00H
	DD	FLAT:??_R0?AV?$CDynamicPoolEx@VCTextureAnimationCCWDecorator@NEffectUpdateDecorator@@@@@8
	DD	FLAT:??_R3?$CDynamicPoolEx@VCTextureAnimationCCWDecorator@NEffectUpdateDecorator@@@@8
rdata$r	ENDS
;	COMDAT ??_R4?$CPooledObject@VCTextureAnimationCCWDecorator@NEffectUpdateDecorator@@@@6B@
rdata$r	SEGMENT
??_R4?$CPooledObject@VCTextureAnimationCCWDecorator@NEffectUpdateDecorator@@@@6B@ DD 00H ; CPooledObject<NEffectUpdateDecorator::CTextureAnimationCCWDecorator>::`RTTI Complete Object Locator'
	DD	00H
	DD	00H
	DD	FLAT:??_R0?AV?$CPooledObject@VCTextureAnimationCCWDecorator@NEffectUpdateDecorator@@@@@8
	DD	FLAT:??_R3?$CPooledObject@VCTextureAnimationCCWDecorator@NEffectUpdateDecorator@@@@8
rdata$r	ENDS
;	COMDAT ??_R4CTextureAnimationCCWDecorator@NEffectUpdateDecorator@@6B?$CPooledObject@VCTextureAnimationCCWDecorator@NEffectUpdateDecorator@@@@@
rdata$r	SEGMENT
??_R4CTextureAnimationCCWDecorator@NEffectUpdateDecorator@@6B?$CPooledObject@VCTextureAnimationCCWDecorator@NEffectUpdateDecorator@@@@@ DD 00H ; NEffectUpdateDecorator::CTextureAnimationCCWDecorator::`RTTI Complete Object Locator'
	DD	0cH
	DD	00H
	DD	FLAT:??_R0?AVCTextureAnimationCCWDecorator@NEffectUpdateDecorator@@@8
	DD	FLAT:??_R3CTextureAnimationCCWDecorator@NEffectUpdateDecorator@@8
rdata$r	ENDS
;	COMDAT ??_R1A@?0A@EA@?$CPooledObject@VCTextureAnimationCCWDecorator@NEffectUpdateDecorator@@@@8
rdata$r	SEGMENT
??_R1A@?0A@EA@?$CPooledObject@VCTextureAnimationCCWDecorator@NEffectUpdateDecorator@@@@8 DD FLAT:??_R0?AV?$CPooledObject@VCTextureAnimationCCWDecorator@NEffectUpdateDecorator@@@@@8 ; CPooledObject<NEffectUpdateDecorator::CTextureAnimationCCWDecorator>::`RTTI Base Class Descriptor at (0,-1,0,64)'
	DD	00H
	DD	00H
	DD	0ffffffffH
	DD	00H
	DD	040H
	DD	FLAT:??_R3?$CPooledObject@VCTextureAnimationCCWDecorator@NEffectUpdateDecorator@@@@8
rdata$r	ENDS
;	COMDAT ??_R2?$CPooledObject@VCTextureAnimationCCWDecorator@NEffectUpdateDecorator@@@@8
rdata$r	SEGMENT
??_R2?$CPooledObject@VCTextureAnimationCCWDecorator@NEffectUpdateDecorator@@@@8 DD FLAT:??_R1A@?0A@EA@?$CPooledObject@VCTextureAnimationCCWDecorator@NEffectUpdateDecorator@@@@8 ; CPooledObject<NEffectUpdateDecorator::CTextureAnimationCCWDecorator>::`RTTI Base Class Array'
rdata$r	ENDS
;	COMDAT ??_R3?$CPooledObject@VCTextureAnimationCCWDecorator@NEffectUpdateDecorator@@@@8
rdata$r	SEGMENT
??_R3?$CPooledObject@VCTextureAnimationCCWDecorator@NEffectUpdateDecorator@@@@8 DD 00H ; CPooledObject<NEffectUpdateDecorator::CTextureAnimationCCWDecorator>::`RTTI Class Hierarchy Descriptor'
	DD	00H
	DD	01H
	DD	FLAT:??_R2?$CPooledObject@VCTextureAnimationCCWDecorator@NEffectUpdateDecorator@@@@8
rdata$r	ENDS
;	COMDAT ??_R0?AV?$CPooledObject@VCTextureAnimationCCWDecorator@NEffectUpdateDecorator@@@@@8
data$rs	SEGMENT
??_R0?AV?$CPooledObject@VCTextureAnimationCCWDecorator@NEffectUpdateDecorator@@@@@8 DD FLAT:??_7type_info@@6B@ ; CPooledObject<NEffectUpdateDecorator::CTextureAnimationCCWDecorator> `RTTI Type Descriptor'
	DD	00H
	DB	'.?AV?$CPooledObject@VCTextureAnimationCCWDecorator@NEffe'
	DB	'ctUpdateDecorator@@@@', 00H
data$rs	ENDS
;	COMDAT ??_R1M@?0A@EA@?$CPooledObject@VCTextureAnimationCCWDecorator@NEffectUpdateDecorator@@@@8
rdata$r	SEGMENT
??_R1M@?0A@EA@?$CPooledObject@VCTextureAnimationCCWDecorator@NEffectUpdateDecorator@@@@8 DD FLAT:??_R0?AV?$CPooledObject@VCTextureAnimationCCWDecorator@NEffectUpdateDecorator@@@@@8 ; CPooledObject<NEffectUpdateDecorator::CTextureAnimationCCWDecorator>::`RTTI Base Class Descriptor at (12,-1,0,64)'
	DD	00H
	DD	0cH
	DD	0ffffffffH
	DD	00H
	DD	040H
	DD	FLAT:??_R3?$CPooledObject@VCTextureAnimationCCWDecorator@NEffectUpdateDecorator@@@@8
rdata$r	ENDS
;	COMDAT ??_R1A@?0A@EA@CTextureAnimationCCWDecorator@NEffectUpdateDecorator@@8
rdata$r	SEGMENT
??_R1A@?0A@EA@CTextureAnimationCCWDecorator@NEffectUpdateDecorator@@8 DD FLAT:??_R0?AVCTextureAnimationCCWDecorator@NEffectUpdateDecorator@@@8 ; NEffectUpdateDecorator::CTextureAnimationCCWDecorator::`RTTI Base Class Descriptor at (0,-1,0,64)'
	DD	02H
	DD	00H
	DD	0ffffffffH
	DD	00H
	DD	040H
	DD	FLAT:??_R3CTextureAnimationCCWDecorator@NEffectUpdateDecorator@@8
rdata$r	ENDS
;	COMDAT ??_R2CTextureAnimationCCWDecorator@NEffectUpdateDecorator@@8
rdata$r	SEGMENT
??_R2CTextureAnimationCCWDecorator@NEffectUpdateDecorator@@8 DD FLAT:??_R1A@?0A@EA@CTextureAnimationCCWDecorator@NEffectUpdateDecorator@@8 ; NEffectUpdateDecorator::CTextureAnimationCCWDecorator::`RTTI Base Class Array'
	DD	FLAT:??_R1A@?0A@EA@CBaseDecorator@NEffectUpdateDecorator@@8
	DD	FLAT:??_R1M@?0A@EA@?$CPooledObject@VCTextureAnimationCCWDecorator@NEffectUpdateDecorator@@@@8
rdata$r	ENDS
;	COMDAT ??_R3CTextureAnimationCCWDecorator@NEffectUpdateDecorator@@8
rdata$r	SEGMENT
??_R3CTextureAnimationCCWDecorator@NEffectUpdateDecorator@@8 DD 00H ; NEffectUpdateDecorator::CTextureAnimationCCWDecorator::`RTTI Class Hierarchy Descriptor'
	DD	01H
	DD	03H
	DD	FLAT:??_R2CTextureAnimationCCWDecorator@NEffectUpdateDecorator@@8
rdata$r	ENDS
;	COMDAT ??_R0?AVCTextureAnimationCCWDecorator@NEffectUpdateDecorator@@@8
data$rs	SEGMENT
??_R0?AVCTextureAnimationCCWDecorator@NEffectUpdateDecorator@@@8 DD FLAT:??_7type_info@@6B@ ; NEffectUpdateDecorator::CTextureAnimationCCWDecorator `RTTI Type Descriptor'
	DD	00H
	DB	'.?AVCTextureAnimationCCWDecorator@NEffectUpdateDecorator'
	DB	'@@', 00H
data$rs	ENDS
;	COMDAT ??_R4CTextureAnimationCCWDecorator@NEffectUpdateDecorator@@6BCBaseDecorator@1@@
rdata$r	SEGMENT
??_R4CTextureAnimationCCWDecorator@NEffectUpdateDecorator@@6BCBaseDecorator@1@@ DD 00H ; NEffectUpdateDecorator::CTextureAnimationCCWDecorator::`RTTI Complete Object Locator'
	DD	00H
	DD	00H
	DD	FLAT:??_R0?AVCTextureAnimationCCWDecorator@NEffectUpdateDecorator@@@8
	DD	FLAT:??_R3CTextureAnimationCCWDecorator@NEffectUpdateDecorator@@8
rdata$r	ENDS
;	COMDAT ??_R1A@?0A@EA@?$CDynamicPoolEx@VCTextureAnimationCWDecorator@NEffectUpdateDecorator@@@@8
rdata$r	SEGMENT
??_R1A@?0A@EA@?$CDynamicPoolEx@VCTextureAnimationCWDecorator@NEffectUpdateDecorator@@@@8 DD FLAT:??_R0?AV?$CDynamicPoolEx@VCTextureAnimationCWDecorator@NEffectUpdateDecorator@@@@@8 ; CDynamicPoolEx<NEffectUpdateDecorator::CTextureAnimationCWDecorator>::`RTTI Base Class Descriptor at (0,-1,0,64)'
	DD	00H
	DD	00H
	DD	0ffffffffH
	DD	00H
	DD	040H
	DD	FLAT:??_R3?$CDynamicPoolEx@VCTextureAnimationCWDecorator@NEffectUpdateDecorator@@@@8
rdata$r	ENDS
;	COMDAT ??_R2?$CDynamicPoolEx@VCTextureAnimationCWDecorator@NEffectUpdateDecorator@@@@8
rdata$r	SEGMENT
??_R2?$CDynamicPoolEx@VCTextureAnimationCWDecorator@NEffectUpdateDecorator@@@@8 DD FLAT:??_R1A@?0A@EA@?$CDynamicPoolEx@VCTextureAnimationCWDecorator@NEffectUpdateDecorator@@@@8 ; CDynamicPoolEx<NEffectUpdateDecorator::CTextureAnimationCWDecorator>::`RTTI Base Class Array'
rdata$r	ENDS
;	COMDAT ??_R3?$CDynamicPoolEx@VCTextureAnimationCWDecorator@NEffectUpdateDecorator@@@@8
rdata$r	SEGMENT
??_R3?$CDynamicPoolEx@VCTextureAnimationCWDecorator@NEffectUpdateDecorator@@@@8 DD 00H ; CDynamicPoolEx<NEffectUpdateDecorator::CTextureAnimationCWDecorator>::`RTTI Class Hierarchy Descriptor'
	DD	00H
	DD	01H
	DD	FLAT:??_R2?$CDynamicPoolEx@VCTextureAnimationCWDecorator@NEffectUpdateDecorator@@@@8
rdata$r	ENDS
;	COMDAT ??_R0?AV?$CDynamicPoolEx@VCTextureAnimationCWDecorator@NEffectUpdateDecorator@@@@@8
data$rs	SEGMENT
??_R0?AV?$CDynamicPoolEx@VCTextureAnimationCWDecorator@NEffectUpdateDecorator@@@@@8 DD FLAT:??_7type_info@@6B@ ; CDynamicPoolEx<NEffectUpdateDecorator::CTextureAnimationCWDecorator> `RTTI Type Descriptor'
	DD	00H
	DB	'.?AV?$CDynamicPoolEx@VCTextureAnimationCWDecorator@NEffe'
	DB	'ctUpdateDecorator@@@@', 00H
data$rs	ENDS
;	COMDAT ??_R4?$CDynamicPoolEx@VCTextureAnimationCWDecorator@NEffectUpdateDecorator@@@@6B@
rdata$r	SEGMENT
??_R4?$CDynamicPoolEx@VCTextureAnimationCWDecorator@NEffectUpdateDecorator@@@@6B@ DD 00H ; CDynamicPoolEx<NEffectUpdateDecorator::CTextureAnimationCWDecorator>::`RTTI Complete Object Locator'
	DD	00H
	DD	00H
	DD	FLAT:??_R0?AV?$CDynamicPoolEx@VCTextureAnimationCWDecorator@NEffectUpdateDecorator@@@@@8
	DD	FLAT:??_R3?$CDynamicPoolEx@VCTextureAnimationCWDecorator@NEffectUpdateDecorator@@@@8
rdata$r	ENDS
;	COMDAT ??_R4?$CPooledObject@VCTextureAnimationCWDecorator@NEffectUpdateDecorator@@@@6B@
rdata$r	SEGMENT
??_R4?$CPooledObject@VCTextureAnimationCWDecorator@NEffectUpdateDecorator@@@@6B@ DD 00H ; CPooledObject<NEffectUpdateDecorator::CTextureAnimationCWDecorator>::`RTTI Complete Object Locator'
	DD	00H
	DD	00H
	DD	FLAT:??_R0?AV?$CPooledObject@VCTextureAnimationCWDecorator@NEffectUpdateDecorator@@@@@8
	DD	FLAT:??_R3?$CPooledObject@VCTextureAnimationCWDecorator@NEffectUpdateDecorator@@@@8
rdata$r	ENDS
;	COMDAT ??_R4CTextureAnimationCWDecorator@NEffectUpdateDecorator@@6B?$CPooledObject@VCTextureAnimationCWDecorator@NEffectUpdateDecorator@@@@@
rdata$r	SEGMENT
??_R4CTextureAnimationCWDecorator@NEffectUpdateDecorator@@6B?$CPooledObject@VCTextureAnimationCWDecorator@NEffectUpdateDecorator@@@@@ DD 00H ; NEffectUpdateDecorator::CTextureAnimationCWDecorator::`RTTI Complete Object Locator'
	DD	0cH
	DD	00H
	DD	FLAT:??_R0?AVCTextureAnimationCWDecorator@NEffectUpdateDecorator@@@8
	DD	FLAT:??_R3CTextureAnimationCWDecorator@NEffectUpdateDecorator@@8
rdata$r	ENDS
;	COMDAT ??_R1A@?0A@EA@?$CPooledObject@VCTextureAnimationCWDecorator@NEffectUpdateDecorator@@@@8
rdata$r	SEGMENT
??_R1A@?0A@EA@?$CPooledObject@VCTextureAnimationCWDecorator@NEffectUpdateDecorator@@@@8 DD FLAT:??_R0?AV?$CPooledObject@VCTextureAnimationCWDecorator@NEffectUpdateDecorator@@@@@8 ; CPooledObject<NEffectUpdateDecorator::CTextureAnimationCWDecorator>::`RTTI Base Class Descriptor at (0,-1,0,64)'
	DD	00H
	DD	00H
	DD	0ffffffffH
	DD	00H
	DD	040H
	DD	FLAT:??_R3?$CPooledObject@VCTextureAnimationCWDecorator@NEffectUpdateDecorator@@@@8
rdata$r	ENDS
;	COMDAT ??_R2?$CPooledObject@VCTextureAnimationCWDecorator@NEffectUpdateDecorator@@@@8
rdata$r	SEGMENT
??_R2?$CPooledObject@VCTextureAnimationCWDecorator@NEffectUpdateDecorator@@@@8 DD FLAT:??_R1A@?0A@EA@?$CPooledObject@VCTextureAnimationCWDecorator@NEffectUpdateDecorator@@@@8 ; CPooledObject<NEffectUpdateDecorator::CTextureAnimationCWDecorator>::`RTTI Base Class Array'
rdata$r	ENDS
;	COMDAT ??_R3?$CPooledObject@VCTextureAnimationCWDecorator@NEffectUpdateDecorator@@@@8
rdata$r	SEGMENT
??_R3?$CPooledObject@VCTextureAnimationCWDecorator@NEffectUpdateDecorator@@@@8 DD 00H ; CPooledObject<NEffectUpdateDecorator::CTextureAnimationCWDecorator>::`RTTI Class Hierarchy Descriptor'
	DD	00H
	DD	01H
	DD	FLAT:??_R2?$CPooledObject@VCTextureAnimationCWDecorator@NEffectUpdateDecorator@@@@8
rdata$r	ENDS
;	COMDAT ??_R0?AV?$CPooledObject@VCTextureAnimationCWDecorator@NEffectUpdateDecorator@@@@@8
data$rs	SEGMENT
??_R0?AV?$CPooledObject@VCTextureAnimationCWDecorator@NEffectUpdateDecorator@@@@@8 DD FLAT:??_7type_info@@6B@ ; CPooledObject<NEffectUpdateDecorator::CTextureAnimationCWDecorator> `RTTI Type Descriptor'
	DD	00H
	DB	'.?AV?$CPooledObject@VCTextureAnimationCWDecorator@NEffec'
	DB	'tUpdateDecorator@@@@', 00H
data$rs	ENDS
;	COMDAT ??_R1M@?0A@EA@?$CPooledObject@VCTextureAnimationCWDecorator@NEffectUpdateDecorator@@@@8
rdata$r	SEGMENT
??_R1M@?0A@EA@?$CPooledObject@VCTextureAnimationCWDecorator@NEffectUpdateDecorator@@@@8 DD FLAT:??_R0?AV?$CPooledObject@VCTextureAnimationCWDecorator@NEffectUpdateDecorator@@@@@8 ; CPooledObject<NEffectUpdateDecorator::CTextureAnimationCWDecorator>::`RTTI Base Class Descriptor at (12,-1,0,64)'
	DD	00H
	DD	0cH
	DD	0ffffffffH
	DD	00H
	DD	040H
	DD	FLAT:??_R3?$CPooledObject@VCTextureAnimationCWDecorator@NEffectUpdateDecorator@@@@8
rdata$r	ENDS
;	COMDAT ??_R1A@?0A@EA@CTextureAnimationCWDecorator@NEffectUpdateDecorator@@8
rdata$r	SEGMENT
??_R1A@?0A@EA@CTextureAnimationCWDecorator@NEffectUpdateDecorator@@8 DD FLAT:??_R0?AVCTextureAnimationCWDecorator@NEffectUpdateDecorator@@@8 ; NEffectUpdateDecorator::CTextureAnimationCWDecorator::`RTTI Base Class Descriptor at (0,-1,0,64)'
	DD	02H
	DD	00H
	DD	0ffffffffH
	DD	00H
	DD	040H
	DD	FLAT:??_R3CTextureAnimationCWDecorator@NEffectUpdateDecorator@@8
rdata$r	ENDS
;	COMDAT ??_R2CTextureAnimationCWDecorator@NEffectUpdateDecorator@@8
rdata$r	SEGMENT
??_R2CTextureAnimationCWDecorator@NEffectUpdateDecorator@@8 DD FLAT:??_R1A@?0A@EA@CTextureAnimationCWDecorator@NEffectUpdateDecorator@@8 ; NEffectUpdateDecorator::CTextureAnimationCWDecorator::`RTTI Base Class Array'
	DD	FLAT:??_R1A@?0A@EA@CBaseDecorator@NEffectUpdateDecorator@@8
	DD	FLAT:??_R1M@?0A@EA@?$CPooledObject@VCTextureAnimationCWDecorator@NEffectUpdateDecorator@@@@8
rdata$r	ENDS
;	COMDAT ??_R3CTextureAnimationCWDecorator@NEffectUpdateDecorator@@8
rdata$r	SEGMENT
??_R3CTextureAnimationCWDecorator@NEffectUpdateDecorator@@8 DD 00H ; NEffectUpdateDecorator::CTextureAnimationCWDecorator::`RTTI Class Hierarchy Descriptor'
	DD	01H
	DD	03H
	DD	FLAT:??_R2CTextureAnimationCWDecorator@NEffectUpdateDecorator@@8
rdata$r	ENDS
;	COMDAT ??_R0?AVCTextureAnimationCWDecorator@NEffectUpdateDecorator@@@8
data$rs	SEGMENT
??_R0?AVCTextureAnimationCWDecorator@NEffectUpdateDecorator@@@8 DD FLAT:??_7type_info@@6B@ ; NEffectUpdateDecorator::CTextureAnimationCWDecorator `RTTI Type Descriptor'
	DD	00H
	DB	'.?AVCTextureAnimationCWDecorator@NEffectUpdateDecorator@'
	DB	'@', 00H
data$rs	ENDS
;	COMDAT ??_R4CTextureAnimationCWDecorator@NEffectUpdateDecorator@@6BCBaseDecorator@1@@
rdata$r	SEGMENT
??_R4CTextureAnimationCWDecorator@NEffectUpdateDecorator@@6BCBaseDecorator@1@@ DD 00H ; NEffectUpdateDecorator::CTextureAnimationCWDecorator::`RTTI Complete Object Locator'
	DD	00H
	DD	00H
	DD	FLAT:??_R0?AVCTextureAnimationCWDecorator@NEffectUpdateDecorator@@@8
	DD	FLAT:??_R3CTextureAnimationCWDecorator@NEffectUpdateDecorator@@8
rdata$r	ENDS
;	COMDAT ??_R4?$CTimeEventDecorator@UDWORDCOLOR@@@NEffectUpdateDecorator@@6B?$CPooledObject@V?$CTimeEventDecorator@UDWORDCOLOR@@@NEffectUpdateDecorator@@@@@
rdata$r	SEGMENT
??_R4?$CTimeEventDecorator@UDWORDCOLOR@@@NEffectUpdateDecorator@@6B?$CPooledObject@V?$CTimeEventDecorator@UDWORDCOLOR@@@NEffectUpdateDecorator@@@@@ DD 00H ; NEffectUpdateDecorator::CTimeEventDecorator<DWORDCOLOR>::`RTTI Complete Object Locator'
	DD	0cH
	DD	00H
	DD	FLAT:??_R0?AV?$CTimeEventDecorator@UDWORDCOLOR@@@NEffectUpdateDecorator@@@8
	DD	FLAT:??_R3?$CTimeEventDecorator@UDWORDCOLOR@@@NEffectUpdateDecorator@@8
rdata$r	ENDS
;	COMDAT ??_R1A@?0A@EA@?$CPooledObject@V?$CTimeEventDecorator@UDWORDCOLOR@@@NEffectUpdateDecorator@@@@8
rdata$r	SEGMENT
??_R1A@?0A@EA@?$CPooledObject@V?$CTimeEventDecorator@UDWORDCOLOR@@@NEffectUpdateDecorator@@@@8 DD FLAT:??_R0?AV?$CPooledObject@V?$CTimeEventDecorator@UDWORDCOLOR@@@NEffectUpdateDecorator@@@@@8 ; CPooledObject<NEffectUpdateDecorator::CTimeEventDecorator<DWORDCOLOR> >::`RTTI Base Class Descriptor at (0,-1,0,64)'
	DD	00H
	DD	00H
	DD	0ffffffffH
	DD	00H
	DD	040H
	DD	FLAT:??_R3?$CPooledObject@V?$CTimeEventDecorator@UDWORDCOLOR@@@NEffectUpdateDecorator@@@@8
rdata$r	ENDS
;	COMDAT ??_R2?$CPooledObject@V?$CTimeEventDecorator@UDWORDCOLOR@@@NEffectUpdateDecorator@@@@8
rdata$r	SEGMENT
??_R2?$CPooledObject@V?$CTimeEventDecorator@UDWORDCOLOR@@@NEffectUpdateDecorator@@@@8 DD FLAT:??_R1A@?0A@EA@?$CPooledObject@V?$CTimeEventDecorator@UDWORDCOLOR@@@NEffectUpdateDecorator@@@@8 ; CPooledObject<NEffectUpdateDecorator::CTimeEventDecorator<DWORDCOLOR> >::`RTTI Base Class Array'
rdata$r	ENDS
;	COMDAT ??_R3?$CPooledObject@V?$CTimeEventDecorator@UDWORDCOLOR@@@NEffectUpdateDecorator@@@@8
rdata$r	SEGMENT
??_R3?$CPooledObject@V?$CTimeEventDecorator@UDWORDCOLOR@@@NEffectUpdateDecorator@@@@8 DD 00H ; CPooledObject<NEffectUpdateDecorator::CTimeEventDecorator<DWORDCOLOR> >::`RTTI Class Hierarchy Descriptor'
	DD	00H
	DD	01H
	DD	FLAT:??_R2?$CPooledObject@V?$CTimeEventDecorator@UDWORDCOLOR@@@NEffectUpdateDecorator@@@@8
rdata$r	ENDS
;	COMDAT ??_R0?AV?$CPooledObject@V?$CTimeEventDecorator@UDWORDCOLOR@@@NEffectUpdateDecorator@@@@@8
data$rs	SEGMENT
??_R0?AV?$CPooledObject@V?$CTimeEventDecorator@UDWORDCOLOR@@@NEffectUpdateDecorator@@@@@8 DD FLAT:??_7type_info@@6B@ ; CPooledObject<NEffectUpdateDecorator::CTimeEventDecorator<DWORDCOLOR> > `RTTI Type Descriptor'
	DD	00H
	DB	'.?AV?$CPooledObject@V?$CTimeEventDecorator@UDWORDCOLOR@@'
	DB	'@NEffectUpdateDecorator@@@@', 00H
data$rs	ENDS
;	COMDAT ??_R1M@?0A@EA@?$CPooledObject@V?$CTimeEventDecorator@UDWORDCOLOR@@@NEffectUpdateDecorator@@@@8
rdata$r	SEGMENT
??_R1M@?0A@EA@?$CPooledObject@V?$CTimeEventDecorator@UDWORDCOLOR@@@NEffectUpdateDecorator@@@@8 DD FLAT:??_R0?AV?$CPooledObject@V?$CTimeEventDecorator@UDWORDCOLOR@@@NEffectUpdateDecorator@@@@@8 ; CPooledObject<NEffectUpdateDecorator::CTimeEventDecorator<DWORDCOLOR> >::`RTTI Base Class Descriptor at (12,-1,0,64)'
	DD	00H
	DD	0cH
	DD	0ffffffffH
	DD	00H
	DD	040H
	DD	FLAT:??_R3?$CPooledObject@V?$CTimeEventDecorator@UDWORDCOLOR@@@NEffectUpdateDecorator@@@@8
rdata$r	ENDS
;	COMDAT ??_R1A@?0A@EA@?$CTimeEventDecorator@UDWORDCOLOR@@@NEffectUpdateDecorator@@8
rdata$r	SEGMENT
??_R1A@?0A@EA@?$CTimeEventDecorator@UDWORDCOLOR@@@NEffectUpdateDecorator@@8 DD FLAT:??_R0?AV?$CTimeEventDecorator@UDWORDCOLOR@@@NEffectUpdateDecorator@@@8 ; NEffectUpdateDecorator::CTimeEventDecorator<DWORDCOLOR>::`RTTI Base Class Descriptor at (0,-1,0,64)'
	DD	02H
	DD	00H
	DD	0ffffffffH
	DD	00H
	DD	040H
	DD	FLAT:??_R3?$CTimeEventDecorator@UDWORDCOLOR@@@NEffectUpdateDecorator@@8
rdata$r	ENDS
;	COMDAT ??_R2?$CTimeEventDecorator@UDWORDCOLOR@@@NEffectUpdateDecorator@@8
rdata$r	SEGMENT
??_R2?$CTimeEventDecorator@UDWORDCOLOR@@@NEffectUpdateDecorator@@8 DD FLAT:??_R1A@?0A@EA@?$CTimeEventDecorator@UDWORDCOLOR@@@NEffectUpdateDecorator@@8 ; NEffectUpdateDecorator::CTimeEventDecorator<DWORDCOLOR>::`RTTI Base Class Array'
	DD	FLAT:??_R1A@?0A@EA@CBaseDecorator@NEffectUpdateDecorator@@8
	DD	FLAT:??_R1M@?0A@EA@?$CPooledObject@V?$CTimeEventDecorator@UDWORDCOLOR@@@NEffectUpdateDecorator@@@@8
rdata$r	ENDS
;	COMDAT ??_R3?$CTimeEventDecorator@UDWORDCOLOR@@@NEffectUpdateDecorator@@8
rdata$r	SEGMENT
??_R3?$CTimeEventDecorator@UDWORDCOLOR@@@NEffectUpdateDecorator@@8 DD 00H ; NEffectUpdateDecorator::CTimeEventDecorator<DWORDCOLOR>::`RTTI Class Hierarchy Descriptor'
	DD	01H
	DD	03H
	DD	FLAT:??_R2?$CTimeEventDecorator@UDWORDCOLOR@@@NEffectUpdateDecorator@@8
rdata$r	ENDS
;	COMDAT ??_R0?AV?$CTimeEventDecorator@UDWORDCOLOR@@@NEffectUpdateDecorator@@@8
data$rs	SEGMENT
??_R0?AV?$CTimeEventDecorator@UDWORDCOLOR@@@NEffectUpdateDecorator@@@8 DD FLAT:??_7type_info@@6B@ ; NEffectUpdateDecorator::CTimeEventDecorator<DWORDCOLOR> `RTTI Type Descriptor'
	DD	00H
	DB	'.?AV?$CTimeEventDecorator@UDWORDCOLOR@@@NEffectUpdateDec'
	DB	'orator@@', 00H
data$rs	ENDS
;	COMDAT ??_R4?$CTimeEventDecorator@UDWORDCOLOR@@@NEffectUpdateDecorator@@6BCBaseDecorator@1@@
rdata$r	SEGMENT
??_R4?$CTimeEventDecorator@UDWORDCOLOR@@@NEffectUpdateDecorator@@6BCBaseDecorator@1@@ DD 00H ; NEffectUpdateDecorator::CTimeEventDecorator<DWORDCOLOR>::`RTTI Complete Object Locator'
	DD	00H
	DD	00H
	DD	FLAT:??_R0?AV?$CTimeEventDecorator@UDWORDCOLOR@@@NEffectUpdateDecorator@@@8
	DD	FLAT:??_R3?$CTimeEventDecorator@UDWORDCOLOR@@@NEffectUpdateDecorator@@8
rdata$r	ENDS
;	COMDAT ??_R4?$CTimeEventDecorator@M@NEffectUpdateDecorator@@6B?$CPooledObject@V?$CTimeEventDecorator@M@NEffectUpdateDecorator@@@@@
rdata$r	SEGMENT
??_R4?$CTimeEventDecorator@M@NEffectUpdateDecorator@@6B?$CPooledObject@V?$CTimeEventDecorator@M@NEffectUpdateDecorator@@@@@ DD 00H ; NEffectUpdateDecorator::CTimeEventDecorator<float>::`RTTI Complete Object Locator'
	DD	0cH
	DD	00H
	DD	FLAT:??_R0?AV?$CTimeEventDecorator@M@NEffectUpdateDecorator@@@8
	DD	FLAT:??_R3?$CTimeEventDecorator@M@NEffectUpdateDecorator@@8
rdata$r	ENDS
;	COMDAT ??_R1A@?0A@EA@?$CPooledObject@V?$CTimeEventDecorator@M@NEffectUpdateDecorator@@@@8
rdata$r	SEGMENT
??_R1A@?0A@EA@?$CPooledObject@V?$CTimeEventDecorator@M@NEffectUpdateDecorator@@@@8 DD FLAT:??_R0?AV?$CPooledObject@V?$CTimeEventDecorator@M@NEffectUpdateDecorator@@@@@8 ; CPooledObject<NEffectUpdateDecorator::CTimeEventDecorator<float> >::`RTTI Base Class Descriptor at (0,-1,0,64)'
	DD	00H
	DD	00H
	DD	0ffffffffH
	DD	00H
	DD	040H
	DD	FLAT:??_R3?$CPooledObject@V?$CTimeEventDecorator@M@NEffectUpdateDecorator@@@@8
rdata$r	ENDS
;	COMDAT ??_R2?$CPooledObject@V?$CTimeEventDecorator@M@NEffectUpdateDecorator@@@@8
rdata$r	SEGMENT
??_R2?$CPooledObject@V?$CTimeEventDecorator@M@NEffectUpdateDecorator@@@@8 DD FLAT:??_R1A@?0A@EA@?$CPooledObject@V?$CTimeEventDecorator@M@NEffectUpdateDecorator@@@@8 ; CPooledObject<NEffectUpdateDecorator::CTimeEventDecorator<float> >::`RTTI Base Class Array'
rdata$r	ENDS
;	COMDAT ??_R3?$CPooledObject@V?$CTimeEventDecorator@M@NEffectUpdateDecorator@@@@8
rdata$r	SEGMENT
??_R3?$CPooledObject@V?$CTimeEventDecorator@M@NEffectUpdateDecorator@@@@8 DD 00H ; CPooledObject<NEffectUpdateDecorator::CTimeEventDecorator<float> >::`RTTI Class Hierarchy Descriptor'
	DD	00H
	DD	01H
	DD	FLAT:??_R2?$CPooledObject@V?$CTimeEventDecorator@M@NEffectUpdateDecorator@@@@8
rdata$r	ENDS
;	COMDAT ??_R0?AV?$CPooledObject@V?$CTimeEventDecorator@M@NEffectUpdateDecorator@@@@@8
data$rs	SEGMENT
??_R0?AV?$CPooledObject@V?$CTimeEventDecorator@M@NEffectUpdateDecorator@@@@@8 DD FLAT:??_7type_info@@6B@ ; CPooledObject<NEffectUpdateDecorator::CTimeEventDecorator<float> > `RTTI Type Descriptor'
	DD	00H
	DB	'.?AV?$CPooledObject@V?$CTimeEventDecorator@M@NEffectUpda'
	DB	'teDecorator@@@@', 00H
data$rs	ENDS
;	COMDAT ??_R1M@?0A@EA@?$CPooledObject@V?$CTimeEventDecorator@M@NEffectUpdateDecorator@@@@8
rdata$r	SEGMENT
??_R1M@?0A@EA@?$CPooledObject@V?$CTimeEventDecorator@M@NEffectUpdateDecorator@@@@8 DD FLAT:??_R0?AV?$CPooledObject@V?$CTimeEventDecorator@M@NEffectUpdateDecorator@@@@@8 ; CPooledObject<NEffectUpdateDecorator::CTimeEventDecorator<float> >::`RTTI Base Class Descriptor at (12,-1,0,64)'
	DD	00H
	DD	0cH
	DD	0ffffffffH
	DD	00H
	DD	040H
	DD	FLAT:??_R3?$CPooledObject@V?$CTimeEventDecorator@M@NEffectUpdateDecorator@@@@8
rdata$r	ENDS
;	COMDAT ??_R1A@?0A@EA@?$CTimeEventDecorator@M@NEffectUpdateDecorator@@8
rdata$r	SEGMENT
??_R1A@?0A@EA@?$CTimeEventDecorator@M@NEffectUpdateDecorator@@8 DD FLAT:??_R0?AV?$CTimeEventDecorator@M@NEffectUpdateDecorator@@@8 ; NEffectUpdateDecorator::CTimeEventDecorator<float>::`RTTI Base Class Descriptor at (0,-1,0,64)'
	DD	02H
	DD	00H
	DD	0ffffffffH
	DD	00H
	DD	040H
	DD	FLAT:??_R3?$CTimeEventDecorator@M@NEffectUpdateDecorator@@8
rdata$r	ENDS
;	COMDAT ??_R2?$CTimeEventDecorator@M@NEffectUpdateDecorator@@8
rdata$r	SEGMENT
??_R2?$CTimeEventDecorator@M@NEffectUpdateDecorator@@8 DD FLAT:??_R1A@?0A@EA@?$CTimeEventDecorator@M@NEffectUpdateDecorator@@8 ; NEffectUpdateDecorator::CTimeEventDecorator<float>::`RTTI Base Class Array'
	DD	FLAT:??_R1A@?0A@EA@CBaseDecorator@NEffectUpdateDecorator@@8
	DD	FLAT:??_R1M@?0A@EA@?$CPooledObject@V?$CTimeEventDecorator@M@NEffectUpdateDecorator@@@@8
rdata$r	ENDS
;	COMDAT ??_R3?$CTimeEventDecorator@M@NEffectUpdateDecorator@@8
rdata$r	SEGMENT
??_R3?$CTimeEventDecorator@M@NEffectUpdateDecorator@@8 DD 00H ; NEffectUpdateDecorator::CTimeEventDecorator<float>::`RTTI Class Hierarchy Descriptor'
	DD	01H
	DD	03H
	DD	FLAT:??_R2?$CTimeEventDecorator@M@NEffectUpdateDecorator@@8
rdata$r	ENDS
;	COMDAT ??_R0?AV?$CTimeEventDecorator@M@NEffectUpdateDecorator@@@8
data$rs	SEGMENT
??_R0?AV?$CTimeEventDecorator@M@NEffectUpdateDecorator@@@8 DD FLAT:??_7type_info@@6B@ ; NEffectUpdateDecorator::CTimeEventDecorator<float> `RTTI Type Descriptor'
	DD	00H
	DB	'.?AV?$CTimeEventDecorator@M@NEffectUpdateDecorator@@', 00H
data$rs	ENDS
;	COMDAT ??_R4?$CTimeEventDecorator@M@NEffectUpdateDecorator@@6BCBaseDecorator@1@@
rdata$r	SEGMENT
??_R4?$CTimeEventDecorator@M@NEffectUpdateDecorator@@6BCBaseDecorator@1@@ DD 00H ; NEffectUpdateDecorator::CTimeEventDecorator<float>::`RTTI Complete Object Locator'
	DD	00H
	DD	00H
	DD	FLAT:??_R0?AV?$CTimeEventDecorator@M@NEffectUpdateDecorator@@@8
	DD	FLAT:??_R3?$CTimeEventDecorator@M@NEffectUpdateDecorator@@8
rdata$r	ENDS
;	COMDAT ??_R1A@?0A@EA@?$CDynamicPoolEx@VCNullDecorator@NEffectUpdateDecorator@@@@8
rdata$r	SEGMENT
??_R1A@?0A@EA@?$CDynamicPoolEx@VCNullDecorator@NEffectUpdateDecorator@@@@8 DD FLAT:??_R0?AV?$CDynamicPoolEx@VCNullDecorator@NEffectUpdateDecorator@@@@@8 ; CDynamicPoolEx<NEffectUpdateDecorator::CNullDecorator>::`RTTI Base Class Descriptor at (0,-1,0,64)'
	DD	00H
	DD	00H
	DD	0ffffffffH
	DD	00H
	DD	040H
	DD	FLAT:??_R3?$CDynamicPoolEx@VCNullDecorator@NEffectUpdateDecorator@@@@8
rdata$r	ENDS
;	COMDAT ??_R2?$CDynamicPoolEx@VCNullDecorator@NEffectUpdateDecorator@@@@8
rdata$r	SEGMENT
??_R2?$CDynamicPoolEx@VCNullDecorator@NEffectUpdateDecorator@@@@8 DD FLAT:??_R1A@?0A@EA@?$CDynamicPoolEx@VCNullDecorator@NEffectUpdateDecorator@@@@8 ; CDynamicPoolEx<NEffectUpdateDecorator::CNullDecorator>::`RTTI Base Class Array'
rdata$r	ENDS
;	COMDAT ??_R3?$CDynamicPoolEx@VCNullDecorator@NEffectUpdateDecorator@@@@8
rdata$r	SEGMENT
??_R3?$CDynamicPoolEx@VCNullDecorator@NEffectUpdateDecorator@@@@8 DD 00H ; CDynamicPoolEx<NEffectUpdateDecorator::CNullDecorator>::`RTTI Class Hierarchy Descriptor'
	DD	00H
	DD	01H
	DD	FLAT:??_R2?$CDynamicPoolEx@VCNullDecorator@NEffectUpdateDecorator@@@@8
rdata$r	ENDS
;	COMDAT ??_R0?AV?$CDynamicPoolEx@VCNullDecorator@NEffectUpdateDecorator@@@@@8
data$rs	SEGMENT
??_R0?AV?$CDynamicPoolEx@VCNullDecorator@NEffectUpdateDecorator@@@@@8 DD FLAT:??_7type_info@@6B@ ; CDynamicPoolEx<NEffectUpdateDecorator::CNullDecorator> `RTTI Type Descriptor'
	DD	00H
	DB	'.?AV?$CDynamicPoolEx@VCNullDecorator@NEffectUpdateDecora'
	DB	'tor@@@@', 00H
data$rs	ENDS
;	COMDAT ??_R4?$CDynamicPoolEx@VCNullDecorator@NEffectUpdateDecorator@@@@6B@
rdata$r	SEGMENT
??_R4?$CDynamicPoolEx@VCNullDecorator@NEffectUpdateDecorator@@@@6B@ DD 00H ; CDynamicPoolEx<NEffectUpdateDecorator::CNullDecorator>::`RTTI Complete Object Locator'
	DD	00H
	DD	00H
	DD	FLAT:??_R0?AV?$CDynamicPoolEx@VCNullDecorator@NEffectUpdateDecorator@@@@@8
	DD	FLAT:??_R3?$CDynamicPoolEx@VCNullDecorator@NEffectUpdateDecorator@@@@8
rdata$r	ENDS
;	COMDAT ??_R4?$CPooledObject@VCNullDecorator@NEffectUpdateDecorator@@@@6B@
rdata$r	SEGMENT
??_R4?$CPooledObject@VCNullDecorator@NEffectUpdateDecorator@@@@6B@ DD 00H ; CPooledObject<NEffectUpdateDecorator::CNullDecorator>::`RTTI Complete Object Locator'
	DD	00H
	DD	00H
	DD	FLAT:??_R0?AV?$CPooledObject@VCNullDecorator@NEffectUpdateDecorator@@@@@8
	DD	FLAT:??_R3?$CPooledObject@VCNullDecorator@NEffectUpdateDecorator@@@@8
rdata$r	ENDS
;	COMDAT ??_R4CNullDecorator@NEffectUpdateDecorator@@6B?$CPooledObject@VCNullDecorator@NEffectUpdateDecorator@@@@@
rdata$r	SEGMENT
??_R4CNullDecorator@NEffectUpdateDecorator@@6B?$CPooledObject@VCNullDecorator@NEffectUpdateDecorator@@@@@ DD 00H ; NEffectUpdateDecorator::CNullDecorator::`RTTI Complete Object Locator'
	DD	0cH
	DD	00H
	DD	FLAT:??_R0?AVCNullDecorator@NEffectUpdateDecorator@@@8
	DD	FLAT:??_R3CNullDecorator@NEffectUpdateDecorator@@8
rdata$r	ENDS
;	COMDAT ??_R1A@?0A@EA@?$CPooledObject@VCNullDecorator@NEffectUpdateDecorator@@@@8
rdata$r	SEGMENT
??_R1A@?0A@EA@?$CPooledObject@VCNullDecorator@NEffectUpdateDecorator@@@@8 DD FLAT:??_R0?AV?$CPooledObject@VCNullDecorator@NEffectUpdateDecorator@@@@@8 ; CPooledObject<NEffectUpdateDecorator::CNullDecorator>::`RTTI Base Class Descriptor at (0,-1,0,64)'
	DD	00H
	DD	00H
	DD	0ffffffffH
	DD	00H
	DD	040H
	DD	FLAT:??_R3?$CPooledObject@VCNullDecorator@NEffectUpdateDecorator@@@@8
rdata$r	ENDS
;	COMDAT ??_R2?$CPooledObject@VCNullDecorator@NEffectUpdateDecorator@@@@8
rdata$r	SEGMENT
??_R2?$CPooledObject@VCNullDecorator@NEffectUpdateDecorator@@@@8 DD FLAT:??_R1A@?0A@EA@?$CPooledObject@VCNullDecorator@NEffectUpdateDecorator@@@@8 ; CPooledObject<NEffectUpdateDecorator::CNullDecorator>::`RTTI Base Class Array'
rdata$r	ENDS
;	COMDAT ??_R3?$CPooledObject@VCNullDecorator@NEffectUpdateDecorator@@@@8
rdata$r	SEGMENT
??_R3?$CPooledObject@VCNullDecorator@NEffectUpdateDecorator@@@@8 DD 00H ; CPooledObject<NEffectUpdateDecorator::CNullDecorator>::`RTTI Class Hierarchy Descriptor'
	DD	00H
	DD	01H
	DD	FLAT:??_R2?$CPooledObject@VCNullDecorator@NEffectUpdateDecorator@@@@8
rdata$r	ENDS
;	COMDAT ??_R0?AV?$CPooledObject@VCNullDecorator@NEffectUpdateDecorator@@@@@8
data$rs	SEGMENT
??_R0?AV?$CPooledObject@VCNullDecorator@NEffectUpdateDecorator@@@@@8 DD FLAT:??_7type_info@@6B@ ; CPooledObject<NEffectUpdateDecorator::CNullDecorator> `RTTI Type Descriptor'
	DD	00H
	DB	'.?AV?$CPooledObject@VCNullDecorator@NEffectUpdateDecorat'
	DB	'or@@@@', 00H
data$rs	ENDS
;	COMDAT ??_R1M@?0A@EA@?$CPooledObject@VCNullDecorator@NEffectUpdateDecorator@@@@8
rdata$r	SEGMENT
??_R1M@?0A@EA@?$CPooledObject@VCNullDecorator@NEffectUpdateDecorator@@@@8 DD FLAT:??_R0?AV?$CPooledObject@VCNullDecorator@NEffectUpdateDecorator@@@@@8 ; CPooledObject<NEffectUpdateDecorator::CNullDecorator>::`RTTI Base Class Descriptor at (12,-1,0,64)'
	DD	00H
	DD	0cH
	DD	0ffffffffH
	DD	00H
	DD	040H
	DD	FLAT:??_R3?$CPooledObject@VCNullDecorator@NEffectUpdateDecorator@@@@8
rdata$r	ENDS
;	COMDAT ??_R1A@?0A@EA@CNullDecorator@NEffectUpdateDecorator@@8
rdata$r	SEGMENT
??_R1A@?0A@EA@CNullDecorator@NEffectUpdateDecorator@@8 DD FLAT:??_R0?AVCNullDecorator@NEffectUpdateDecorator@@@8 ; NEffectUpdateDecorator::CNullDecorator::`RTTI Base Class Descriptor at (0,-1,0,64)'
	DD	02H
	DD	00H
	DD	0ffffffffH
	DD	00H
	DD	040H
	DD	FLAT:??_R3CNullDecorator@NEffectUpdateDecorator@@8
rdata$r	ENDS
;	COMDAT ??_R2CNullDecorator@NEffectUpdateDecorator@@8
rdata$r	SEGMENT
??_R2CNullDecorator@NEffectUpdateDecorator@@8 DD FLAT:??_R1A@?0A@EA@CNullDecorator@NEffectUpdateDecorator@@8 ; NEffectUpdateDecorator::CNullDecorator::`RTTI Base Class Array'
	DD	FLAT:??_R1A@?0A@EA@CBaseDecorator@NEffectUpdateDecorator@@8
	DD	FLAT:??_R1M@?0A@EA@?$CPooledObject@VCNullDecorator@NEffectUpdateDecorator@@@@8
rdata$r	ENDS
;	COMDAT ??_R3CNullDecorator@NEffectUpdateDecorator@@8
rdata$r	SEGMENT
??_R3CNullDecorator@NEffectUpdateDecorator@@8 DD 00H	; NEffectUpdateDecorator::CNullDecorator::`RTTI Class Hierarchy Descriptor'
	DD	01H
	DD	03H
	DD	FLAT:??_R2CNullDecorator@NEffectUpdateDecorator@@8
rdata$r	ENDS
;	COMDAT ??_R0?AVCNullDecorator@NEffectUpdateDecorator@@@8
data$rs	SEGMENT
??_R0?AVCNullDecorator@NEffectUpdateDecorator@@@8 DD FLAT:??_7type_info@@6B@ ; NEffectUpdateDecorator::CNullDecorator `RTTI Type Descriptor'
	DD	00H
	DB	'.?AVCNullDecorator@NEffectUpdateDecorator@@', 00H
data$rs	ENDS
;	COMDAT ??_R4CNullDecorator@NEffectUpdateDecorator@@6BCBaseDecorator@1@@
rdata$r	SEGMENT
??_R4CNullDecorator@NEffectUpdateDecorator@@6BCBaseDecorator@1@@ DD 00H ; NEffectUpdateDecorator::CNullDecorator::`RTTI Complete Object Locator'
	DD	00H
	DD	00H
	DD	FLAT:??_R0?AVCNullDecorator@NEffectUpdateDecorator@@@8
	DD	FLAT:??_R3CNullDecorator@NEffectUpdateDecorator@@8
rdata$r	ENDS
;	COMDAT ??_R1A@?0A@EA@?$CDynamicPoolEx@VCHeaderDecorator@NEffectUpdateDecorator@@@@8
rdata$r	SEGMENT
??_R1A@?0A@EA@?$CDynamicPoolEx@VCHeaderDecorator@NEffectUpdateDecorator@@@@8 DD FLAT:??_R0?AV?$CDynamicPoolEx@VCHeaderDecorator@NEffectUpdateDecorator@@@@@8 ; CDynamicPoolEx<NEffectUpdateDecorator::CHeaderDecorator>::`RTTI Base Class Descriptor at (0,-1,0,64)'
	DD	00H
	DD	00H
	DD	0ffffffffH
	DD	00H
	DD	040H
	DD	FLAT:??_R3?$CDynamicPoolEx@VCHeaderDecorator@NEffectUpdateDecorator@@@@8
rdata$r	ENDS
;	COMDAT ??_R2?$CDynamicPoolEx@VCHeaderDecorator@NEffectUpdateDecorator@@@@8
rdata$r	SEGMENT
??_R2?$CDynamicPoolEx@VCHeaderDecorator@NEffectUpdateDecorator@@@@8 DD FLAT:??_R1A@?0A@EA@?$CDynamicPoolEx@VCHeaderDecorator@NEffectUpdateDecorator@@@@8 ; CDynamicPoolEx<NEffectUpdateDecorator::CHeaderDecorator>::`RTTI Base Class Array'
rdata$r	ENDS
;	COMDAT ??_R3?$CDynamicPoolEx@VCHeaderDecorator@NEffectUpdateDecorator@@@@8
rdata$r	SEGMENT
??_R3?$CDynamicPoolEx@VCHeaderDecorator@NEffectUpdateDecorator@@@@8 DD 00H ; CDynamicPoolEx<NEffectUpdateDecorator::CHeaderDecorator>::`RTTI Class Hierarchy Descriptor'
	DD	00H
	DD	01H
	DD	FLAT:??_R2?$CDynamicPoolEx@VCHeaderDecorator@NEffectUpdateDecorator@@@@8
rdata$r	ENDS
;	COMDAT ??_R0?AV?$CDynamicPoolEx@VCHeaderDecorator@NEffectUpdateDecorator@@@@@8
data$rs	SEGMENT
??_R0?AV?$CDynamicPoolEx@VCHeaderDecorator@NEffectUpdateDecorator@@@@@8 DD FLAT:??_7type_info@@6B@ ; CDynamicPoolEx<NEffectUpdateDecorator::CHeaderDecorator> `RTTI Type Descriptor'
	DD	00H
	DB	'.?AV?$CDynamicPoolEx@VCHeaderDecorator@NEffectUpdateDeco'
	DB	'rator@@@@', 00H
data$rs	ENDS
;	COMDAT ??_R4?$CDynamicPoolEx@VCHeaderDecorator@NEffectUpdateDecorator@@@@6B@
rdata$r	SEGMENT
??_R4?$CDynamicPoolEx@VCHeaderDecorator@NEffectUpdateDecorator@@@@6B@ DD 00H ; CDynamicPoolEx<NEffectUpdateDecorator::CHeaderDecorator>::`RTTI Complete Object Locator'
	DD	00H
	DD	00H
	DD	FLAT:??_R0?AV?$CDynamicPoolEx@VCHeaderDecorator@NEffectUpdateDecorator@@@@@8
	DD	FLAT:??_R3?$CDynamicPoolEx@VCHeaderDecorator@NEffectUpdateDecorator@@@@8
rdata$r	ENDS
;	COMDAT ??_R4?$CPooledObject@VCHeaderDecorator@NEffectUpdateDecorator@@@@6B@
rdata$r	SEGMENT
??_R4?$CPooledObject@VCHeaderDecorator@NEffectUpdateDecorator@@@@6B@ DD 00H ; CPooledObject<NEffectUpdateDecorator::CHeaderDecorator>::`RTTI Complete Object Locator'
	DD	00H
	DD	00H
	DD	FLAT:??_R0?AV?$CPooledObject@VCHeaderDecorator@NEffectUpdateDecorator@@@@@8
	DD	FLAT:??_R3?$CPooledObject@VCHeaderDecorator@NEffectUpdateDecorator@@@@8
rdata$r	ENDS
;	COMDAT ??_R4CHeaderDecorator@NEffectUpdateDecorator@@6B?$CPooledObject@VCHeaderDecorator@NEffectUpdateDecorator@@@@@
rdata$r	SEGMENT
??_R4CHeaderDecorator@NEffectUpdateDecorator@@6B?$CPooledObject@VCHeaderDecorator@NEffectUpdateDecorator@@@@@ DD 00H ; NEffectUpdateDecorator::CHeaderDecorator::`RTTI Complete Object Locator'
	DD	0cH
	DD	00H
	DD	FLAT:??_R0?AVCHeaderDecorator@NEffectUpdateDecorator@@@8
	DD	FLAT:??_R3CHeaderDecorator@NEffectUpdateDecorator@@8
rdata$r	ENDS
;	COMDAT ??_R1A@?0A@EA@?$CPooledObject@VCHeaderDecorator@NEffectUpdateDecorator@@@@8
rdata$r	SEGMENT
??_R1A@?0A@EA@?$CPooledObject@VCHeaderDecorator@NEffectUpdateDecorator@@@@8 DD FLAT:??_R0?AV?$CPooledObject@VCHeaderDecorator@NEffectUpdateDecorator@@@@@8 ; CPooledObject<NEffectUpdateDecorator::CHeaderDecorator>::`RTTI Base Class Descriptor at (0,-1,0,64)'
	DD	00H
	DD	00H
	DD	0ffffffffH
	DD	00H
	DD	040H
	DD	FLAT:??_R3?$CPooledObject@VCHeaderDecorator@NEffectUpdateDecorator@@@@8
rdata$r	ENDS
;	COMDAT ??_R2?$CPooledObject@VCHeaderDecorator@NEffectUpdateDecorator@@@@8
rdata$r	SEGMENT
??_R2?$CPooledObject@VCHeaderDecorator@NEffectUpdateDecorator@@@@8 DD FLAT:??_R1A@?0A@EA@?$CPooledObject@VCHeaderDecorator@NEffectUpdateDecorator@@@@8 ; CPooledObject<NEffectUpdateDecorator::CHeaderDecorator>::`RTTI Base Class Array'
rdata$r	ENDS
;	COMDAT ??_R3?$CPooledObject@VCHeaderDecorator@NEffectUpdateDecorator@@@@8
rdata$r	SEGMENT
??_R3?$CPooledObject@VCHeaderDecorator@NEffectUpdateDecorator@@@@8 DD 00H ; CPooledObject<NEffectUpdateDecorator::CHeaderDecorator>::`RTTI Class Hierarchy Descriptor'
	DD	00H
	DD	01H
	DD	FLAT:??_R2?$CPooledObject@VCHeaderDecorator@NEffectUpdateDecorator@@@@8
rdata$r	ENDS
;	COMDAT ??_R0?AV?$CPooledObject@VCHeaderDecorator@NEffectUpdateDecorator@@@@@8
data$rs	SEGMENT
??_R0?AV?$CPooledObject@VCHeaderDecorator@NEffectUpdateDecorator@@@@@8 DD FLAT:??_7type_info@@6B@ ; CPooledObject<NEffectUpdateDecorator::CHeaderDecorator> `RTTI Type Descriptor'
	DD	00H
	DB	'.?AV?$CPooledObject@VCHeaderDecorator@NEffectUpdateDecor'
	DB	'ator@@@@', 00H
data$rs	ENDS
;	COMDAT ??_R1M@?0A@EA@?$CPooledObject@VCHeaderDecorator@NEffectUpdateDecorator@@@@8
rdata$r	SEGMENT
??_R1M@?0A@EA@?$CPooledObject@VCHeaderDecorator@NEffectUpdateDecorator@@@@8 DD FLAT:??_R0?AV?$CPooledObject@VCHeaderDecorator@NEffectUpdateDecorator@@@@@8 ; CPooledObject<NEffectUpdateDecorator::CHeaderDecorator>::`RTTI Base Class Descriptor at (12,-1,0,64)'
	DD	00H
	DD	0cH
	DD	0ffffffffH
	DD	00H
	DD	040H
	DD	FLAT:??_R3?$CPooledObject@VCHeaderDecorator@NEffectUpdateDecorator@@@@8
rdata$r	ENDS
;	COMDAT ??_R1A@?0A@EA@CHeaderDecorator@NEffectUpdateDecorator@@8
rdata$r	SEGMENT
??_R1A@?0A@EA@CHeaderDecorator@NEffectUpdateDecorator@@8 DD FLAT:??_R0?AVCHeaderDecorator@NEffectUpdateDecorator@@@8 ; NEffectUpdateDecorator::CHeaderDecorator::`RTTI Base Class Descriptor at (0,-1,0,64)'
	DD	02H
	DD	00H
	DD	0ffffffffH
	DD	00H
	DD	040H
	DD	FLAT:??_R3CHeaderDecorator@NEffectUpdateDecorator@@8
rdata$r	ENDS
;	COMDAT ??_R2CHeaderDecorator@NEffectUpdateDecorator@@8
rdata$r	SEGMENT
??_R2CHeaderDecorator@NEffectUpdateDecorator@@8 DD FLAT:??_R1A@?0A@EA@CHeaderDecorator@NEffectUpdateDecorator@@8 ; NEffectUpdateDecorator::CHeaderDecorator::`RTTI Base Class Array'
	DD	FLAT:??_R1A@?0A@EA@CBaseDecorator@NEffectUpdateDecorator@@8
	DD	FLAT:??_R1M@?0A@EA@?$CPooledObject@VCHeaderDecorator@NEffectUpdateDecorator@@@@8
rdata$r	ENDS
;	COMDAT ??_R3CHeaderDecorator@NEffectUpdateDecorator@@8
rdata$r	SEGMENT
??_R3CHeaderDecorator@NEffectUpdateDecorator@@8 DD 00H	; NEffectUpdateDecorator::CHeaderDecorator::`RTTI Class Hierarchy Descriptor'
	DD	01H
	DD	03H
	DD	FLAT:??_R2CHeaderDecorator@NEffectUpdateDecorator@@8
rdata$r	ENDS
;	COMDAT ??_R0?AVCHeaderDecorator@NEffectUpdateDecorator@@@8
data$rs	SEGMENT
??_R0?AVCHeaderDecorator@NEffectUpdateDecorator@@@8 DD FLAT:??_7type_info@@6B@ ; NEffectUpdateDecorator::CHeaderDecorator `RTTI Type Descriptor'
	DD	00H
	DB	'.?AVCHeaderDecorator@NEffectUpdateDecorator@@', 00H
data$rs	ENDS
;	COMDAT ??_R4CHeaderDecorator@NEffectUpdateDecorator@@6BCBaseDecorator@1@@
rdata$r	SEGMENT
??_R4CHeaderDecorator@NEffectUpdateDecorator@@6BCBaseDecorator@1@@ DD 00H ; NEffectUpdateDecorator::CHeaderDecorator::`RTTI Complete Object Locator'
	DD	00H
	DD	00H
	DD	FLAT:??_R0?AVCHeaderDecorator@NEffectUpdateDecorator@@@8
	DD	FLAT:??_R3CHeaderDecorator@NEffectUpdateDecorator@@8
rdata$r	ENDS
;	COMDAT ??_R1A@?0A@EA@CBaseDecorator@NEffectUpdateDecorator@@8
rdata$r	SEGMENT
??_R1A@?0A@EA@CBaseDecorator@NEffectUpdateDecorator@@8 DD FLAT:??_R0?AVCBaseDecorator@NEffectUpdateDecorator@@@8 ; NEffectUpdateDecorator::CBaseDecorator::`RTTI Base Class Descriptor at (0,-1,0,64)'
	DD	00H
	DD	00H
	DD	0ffffffffH
	DD	00H
	DD	040H
	DD	FLAT:??_R3CBaseDecorator@NEffectUpdateDecorator@@8
rdata$r	ENDS
;	COMDAT ??_R2CBaseDecorator@NEffectUpdateDecorator@@8
rdata$r	SEGMENT
??_R2CBaseDecorator@NEffectUpdateDecorator@@8 DD FLAT:??_R1A@?0A@EA@CBaseDecorator@NEffectUpdateDecorator@@8 ; NEffectUpdateDecorator::CBaseDecorator::`RTTI Base Class Array'
rdata$r	ENDS
;	COMDAT ??_R3CBaseDecorator@NEffectUpdateDecorator@@8
rdata$r	SEGMENT
??_R3CBaseDecorator@NEffectUpdateDecorator@@8 DD 00H	; NEffectUpdateDecorator::CBaseDecorator::`RTTI Class Hierarchy Descriptor'
	DD	00H
	DD	01H
	DD	FLAT:??_R2CBaseDecorator@NEffectUpdateDecorator@@8
rdata$r	ENDS
;	COMDAT ??_R0?AVCBaseDecorator@NEffectUpdateDecorator@@@8
data$rs	SEGMENT
??_R0?AVCBaseDecorator@NEffectUpdateDecorator@@@8 DD FLAT:??_7type_info@@6B@ ; NEffectUpdateDecorator::CBaseDecorator `RTTI Type Descriptor'
	DD	00H
	DB	'.?AVCBaseDecorator@NEffectUpdateDecorator@@', 00H
data$rs	ENDS
;	COMDAT ??_R4CBaseDecorator@NEffectUpdateDecorator@@6B@
rdata$r	SEGMENT
??_R4CBaseDecorator@NEffectUpdateDecorator@@6B@ DD 00H	; NEffectUpdateDecorator::CBaseDecorator::`RTTI Complete Object Locator'
	DD	00H
	DD	00H
	DD	FLAT:??_R0?AVCBaseDecorator@NEffectUpdateDecorator@@@8
	DD	FLAT:??_R3CBaseDecorator@NEffectUpdateDecorator@@8
rdata$r	ENDS
;	COMDAT ??_R1A@?0A@EA@?$CDynamicPool@VCParticleSystemData@@@@8
rdata$r	SEGMENT
??_R1A@?0A@EA@?$CDynamicPool@VCParticleSystemData@@@@8 DD FLAT:??_R0?AV?$CDynamicPool@VCParticleSystemData@@@@@8 ; CDynamicPool<CParticleSystemData>::`RTTI Base Class Descriptor at (0,-1,0,64)'
	DD	00H
	DD	00H
	DD	0ffffffffH
	DD	00H
	DD	040H
	DD	FLAT:??_R3?$CDynamicPool@VCParticleSystemData@@@@8
rdata$r	ENDS
;	COMDAT ??_R2?$CDynamicPool@VCParticleSystemData@@@@8
rdata$r	SEGMENT
??_R2?$CDynamicPool@VCParticleSystemData@@@@8 DD FLAT:??_R1A@?0A@EA@?$CDynamicPool@VCParticleSystemData@@@@8 ; CDynamicPool<CParticleSystemData>::`RTTI Base Class Array'
rdata$r	ENDS
;	COMDAT ??_R3?$CDynamicPool@VCParticleSystemData@@@@8
rdata$r	SEGMENT
??_R3?$CDynamicPool@VCParticleSystemData@@@@8 DD 00H	; CDynamicPool<CParticleSystemData>::`RTTI Class Hierarchy Descriptor'
	DD	00H
	DD	01H
	DD	FLAT:??_R2?$CDynamicPool@VCParticleSystemData@@@@8
rdata$r	ENDS
;	COMDAT ??_R0?AV?$CDynamicPool@VCParticleSystemData@@@@@8
data$rs	SEGMENT
??_R0?AV?$CDynamicPool@VCParticleSystemData@@@@@8 DD FLAT:??_7type_info@@6B@ ; CDynamicPool<CParticleSystemData> `RTTI Type Descriptor'
	DD	00H
	DB	'.?AV?$CDynamicPool@VCParticleSystemData@@@@', 00H
data$rs	ENDS
;	COMDAT ??_R4?$CDynamicPool@VCParticleSystemData@@@@6B@
rdata$r	SEGMENT
??_R4?$CDynamicPool@VCParticleSystemData@@@@6B@ DD 00H	; CDynamicPool<CParticleSystemData>::`RTTI Complete Object Locator'
	DD	00H
	DD	00H
	DD	FLAT:??_R0?AV?$CDynamicPool@VCParticleSystemData@@@@@8
	DD	FLAT:??_R3?$CDynamicPool@VCParticleSystemData@@@@8
rdata$r	ENDS
;	COMDAT ??_R2CEffectElementBase@@8
rdata$r	SEGMENT
??_R2CEffectElementBase@@8 DD FLAT:??_R1A@?0A@EA@CEffectElementBase@@8 ; CEffectElementBase::`RTTI Base Class Array'
rdata$r	ENDS
;	COMDAT ??_R3CEffectElementBase@@8
rdata$r	SEGMENT
??_R3CEffectElementBase@@8 DD 00H			; CEffectElementBase::`RTTI Class Hierarchy Descriptor'
	DD	00H
	DD	01H
	DD	FLAT:??_R2CEffectElementBase@@8
rdata$r	ENDS
;	COMDAT ??_R0?AVCEffectElementBase@@@8
data$rs	SEGMENT
??_R0?AVCEffectElementBase@@@8 DD FLAT:??_7type_info@@6B@ ; CEffectElementBase `RTTI Type Descriptor'
	DD	00H
	DB	'.?AVCEffectElementBase@@', 00H
data$rs	ENDS
;	COMDAT ??_R1A@?0A@EA@CEffectElementBase@@8
rdata$r	SEGMENT
??_R1A@?0A@EA@CEffectElementBase@@8 DD FLAT:??_R0?AVCEffectElementBase@@@8 ; CEffectElementBase::`RTTI Base Class Descriptor at (0,-1,0,64)'
	DD	00H
	DD	00H
	DD	0ffffffffH
	DD	00H
	DD	040H
	DD	FLAT:??_R3CEffectElementBase@@8
rdata$r	ENDS
;	COMDAT ??_R1A@?0A@EA@CParticleSystemData@@8
rdata$r	SEGMENT
??_R1A@?0A@EA@CParticleSystemData@@8 DD FLAT:??_R0?AVCParticleSystemData@@@8 ; CParticleSystemData::`RTTI Base Class Descriptor at (0,-1,0,64)'
	DD	01H
	DD	00H
	DD	0ffffffffH
	DD	00H
	DD	040H
	DD	FLAT:??_R3CParticleSystemData@@8
rdata$r	ENDS
;	COMDAT ??_R2CParticleSystemData@@8
rdata$r	SEGMENT
??_R2CParticleSystemData@@8 DD FLAT:??_R1A@?0A@EA@CParticleSystemData@@8 ; CParticleSystemData::`RTTI Base Class Array'
	DD	FLAT:??_R1A@?0A@EA@CEffectElementBase@@8
rdata$r	ENDS
;	COMDAT ??_R3CParticleSystemData@@8
rdata$r	SEGMENT
??_R3CParticleSystemData@@8 DD 00H			; CParticleSystemData::`RTTI Class Hierarchy Descriptor'
	DD	00H
	DD	02H
	DD	FLAT:??_R2CParticleSystemData@@8
rdata$r	ENDS
;	COMDAT ??_R0?AVCParticleSystemData@@@8
data$rs	SEGMENT
??_R0?AVCParticleSystemData@@@8 DD FLAT:??_7type_info@@6B@ ; CParticleSystemData `RTTI Type Descriptor'
	DD	00H
	DB	'.?AVCParticleSystemData@@', 00H
data$rs	ENDS
;	COMDAT ??_R4CParticleSystemData@@6B@
rdata$r	SEGMENT
??_R4CParticleSystemData@@6B@ DD 00H			; CParticleSystemData::`RTTI Complete Object Locator'
	DD	00H
	DD	00H
	DD	FLAT:??_R0?AVCParticleSystemData@@@8
	DD	FLAT:??_R3CParticleSystemData@@8
rdata$r	ENDS
;	COMDAT ??_C@_0BA@FOIKENOD@vector?5too?5long@
CONST	SEGMENT
??_C@_0BA@FOIKENOD@vector?5too?5long@ DB 'vector too long', 00H ; `string'
CONST	ENDS
;	COMDAT ??_C@_0BJ@DHFDPMIM@invalid?5vector?5subscript@
CONST	SEGMENT
??_C@_0BJ@DHFDPMIM@invalid?5vector?5subscript@ DB 'invalid vector subscri'
	DB	'pt', 00H					; `string'
CONST	ENDS
;	COMDAT ??_7?$CDynamicPoolEx@VCHeaderDecorator@NEffectUpdateDecorator@@@@6B@
CONST	SEGMENT
??_7?$CDynamicPoolEx@VCHeaderDecorator@NEffectUpdateDecorator@@@@6B@ DD FLAT:??_R4?$CDynamicPoolEx@VCHeaderDecorator@NEffectUpdateDecorator@@@@6B@ ; CDynamicPoolEx<NEffectUpdateDecorator::CHeaderDecorator>::`vftable'
	DD	FLAT:??_E?$CDynamicPoolEx@VCHeaderDecorator@NEffectUpdateDecorator@@@@UAEPAXI@Z
CONST	ENDS
;	COMDAT ??_7?$CDynamicPoolEx@VCNullDecorator@NEffectUpdateDecorator@@@@6B@
CONST	SEGMENT
??_7?$CDynamicPoolEx@VCNullDecorator@NEffectUpdateDecorator@@@@6B@ DD FLAT:??_R4?$CDynamicPoolEx@VCNullDecorator@NEffectUpdateDecorator@@@@6B@ ; CDynamicPoolEx<NEffectUpdateDecorator::CNullDecorator>::`vftable'
	DD	FLAT:??_E?$CDynamicPoolEx@VCNullDecorator@NEffectUpdateDecorator@@@@UAEPAXI@Z
CONST	ENDS
;	COMDAT ??_7?$CDynamicPoolEx@VCTextureAnimationCWDecorator@NEffectUpdateDecorator@@@@6B@
CONST	SEGMENT
??_7?$CDynamicPoolEx@VCTextureAnimationCWDecorator@NEffectUpdateDecorator@@@@6B@ DD FLAT:??_R4?$CDynamicPoolEx@VCTextureAnimationCWDecorator@NEffectUpdateDecorator@@@@6B@ ; CDynamicPoolEx<NEffectUpdateDecorator::CTextureAnimationCWDecorator>::`vftable'
	DD	FLAT:??_E?$CDynamicPoolEx@VCTextureAnimationCWDecorator@NEffectUpdateDecorator@@@@UAEPAXI@Z
CONST	ENDS
;	COMDAT ??_7?$CDynamicPoolEx@VCTextureAnimationCCWDecorator@NEffectUpdateDecorator@@@@6B@
CONST	SEGMENT
??_7?$CDynamicPoolEx@VCTextureAnimationCCWDecorator@NEffectUpdateDecorator@@@@6B@ DD FLAT:??_R4?$CDynamicPoolEx@VCTextureAnimationCCWDecorator@NEffectUpdateDecorator@@@@6B@ ; CDynamicPoolEx<NEffectUpdateDecorator::CTextureAnimationCCWDecorator>::`vftable'
	DD	FLAT:??_E?$CDynamicPoolEx@VCTextureAnimationCCWDecorator@NEffectUpdateDecorator@@@@UAEPAXI@Z
CONST	ENDS
;	COMDAT ??_7?$CDynamicPoolEx@VCTextureAnimationRandomDecorator@NEffectUpdateDecorator@@@@6B@
CONST	SEGMENT
??_7?$CDynamicPoolEx@VCTextureAnimationRandomDecorator@NEffectUpdateDecorator@@@@6B@ DD FLAT:??_R4?$CDynamicPoolEx@VCTextureAnimationRandomDecorator@NEffectUpdateDecorator@@@@6B@ ; CDynamicPoolEx<NEffectUpdateDecorator::CTextureAnimationRandomDecorator>::`vftable'
	DD	FLAT:??_E?$CDynamicPoolEx@VCTextureAnimationRandomDecorator@NEffectUpdateDecorator@@@@UAEPAXI@Z
CONST	ENDS
;	COMDAT ??_7?$CDynamicPoolEx@VCAirResistanceDecorator@NEffectUpdateDecorator@@@@6B@
CONST	SEGMENT
??_7?$CDynamicPoolEx@VCAirResistanceDecorator@NEffectUpdateDecorator@@@@6B@ DD FLAT:??_R4?$CDynamicPoolEx@VCAirResistanceDecorator@NEffectUpdateDecorator@@@@6B@ ; CDynamicPoolEx<NEffectUpdateDecorator::CAirResistanceDecorator>::`vftable'
	DD	FLAT:??_E?$CDynamicPoolEx@VCAirResistanceDecorator@NEffectUpdateDecorator@@@@UAEPAXI@Z
CONST	ENDS
;	COMDAT ??_7?$CDynamicPoolEx@VCGravityDecorator@NEffectUpdateDecorator@@@@6B@
CONST	SEGMENT
??_7?$CDynamicPoolEx@VCGravityDecorator@NEffectUpdateDecorator@@@@6B@ DD FLAT:??_R4?$CDynamicPoolEx@VCGravityDecorator@NEffectUpdateDecorator@@@@6B@ ; CDynamicPoolEx<NEffectUpdateDecorator::CGravityDecorator>::`vftable'
	DD	FLAT:??_E?$CDynamicPoolEx@VCGravityDecorator@NEffectUpdateDecorator@@@@UAEPAXI@Z
CONST	ENDS
;	COMDAT ??_7?$CDynamicPoolEx@VCRotationDecorator@NEffectUpdateDecorator@@@@6B@
CONST	SEGMENT
??_7?$CDynamicPoolEx@VCRotationDecorator@NEffectUpdateDecorator@@@@6B@ DD FLAT:??_R4?$CDynamicPoolEx@VCRotationDecorator@NEffectUpdateDecorator@@@@6B@ ; CDynamicPoolEx<NEffectUpdateDecorator::CRotationDecorator>::`vftable'
	DD	FLAT:??_E?$CDynamicPoolEx@VCRotationDecorator@NEffectUpdateDecorator@@@@UAEPAXI@Z
CONST	ENDS
;	COMDAT ??_7?$CDynamicPoolEx@V?$CTimeEventDecorator@M@NEffectUpdateDecorator@@@@6B@
CONST	SEGMENT
??_7?$CDynamicPoolEx@V?$CTimeEventDecorator@M@NEffectUpdateDecorator@@@@6B@ DD FLAT:??_R4?$CDynamicPoolEx@V?$CTimeEventDecorator@M@NEffectUpdateDecorator@@@@6B@ ; CDynamicPoolEx<NEffectUpdateDecorator::CTimeEventDecorator<float> >::`vftable'
	DD	FLAT:??_E?$CDynamicPoolEx@V?$CTimeEventDecorator@M@NEffectUpdateDecorator@@@@UAEPAXI@Z
CONST	ENDS
;	COMDAT ??_7?$CDynamicPoolEx@V?$CTimeEventDecorator@UDWORDCOLOR@@@NEffectUpdateDecorator@@@@6B@
CONST	SEGMENT
??_7?$CDynamicPoolEx@V?$CTimeEventDecorator@UDWORDCOLOR@@@NEffectUpdateDecorator@@@@6B@ DD FLAT:??_R4?$CDynamicPoolEx@V?$CTimeEventDecorator@UDWORDCOLOR@@@NEffectUpdateDecorator@@@@6B@ ; CDynamicPoolEx<NEffectUpdateDecorator::CTimeEventDecorator<DWORDCOLOR> >::`vftable'
	DD	FLAT:??_E?$CDynamicPoolEx@V?$CTimeEventDecorator@UDWORDCOLOR@@@NEffectUpdateDecorator@@@@UAEPAXI@Z
CONST	ENDS
;	COMDAT ??_7?$CTimeEventDecorator@UDWORDCOLOR@@@NEffectUpdateDecorator@@6B?$CPooledObject@V?$CTimeEventDecorator@UDWORDCOLOR@@@NEffectUpdateDecorator@@@@@
CONST	SEGMENT
??_7?$CTimeEventDecorator@UDWORDCOLOR@@@NEffectUpdateDecorator@@6B?$CPooledObject@V?$CTimeEventDecorator@UDWORDCOLOR@@@NEffectUpdateDecorator@@@@@ DD FLAT:??_R4?$CTimeEventDecorator@UDWORDCOLOR@@@NEffectUpdateDecorator@@6B?$CPooledObject@V?$CTimeEventDecorator@UDWORDCOLOR@@@NEffectUpdateDecorator@@@@@ ; NEffectUpdateDecorator::CTimeEventDecorator<DWORDCOLOR>::`vftable'
	DD	FLAT:??_E?$CTimeEventDecorator@UDWORDCOLOR@@@NEffectUpdateDecorator@@WM@AEPAXI@Z
CONST	ENDS
;	COMDAT ??_7?$CTimeEventDecorator@UDWORDCOLOR@@@NEffectUpdateDecorator@@6BCBaseDecorator@1@@
CONST	SEGMENT
??_7?$CTimeEventDecorator@UDWORDCOLOR@@@NEffectUpdateDecorator@@6BCBaseDecorator@1@@ DD FLAT:??_R4?$CTimeEventDecorator@UDWORDCOLOR@@@NEffectUpdateDecorator@@6BCBaseDecorator@1@@ ; NEffectUpdateDecorator::CTimeEventDecorator<DWORDCOLOR>::`vftable'
	DD	FLAT:??_E?$CTimeEventDecorator@UDWORDCOLOR@@@NEffectUpdateDecorator@@UAEPAXI@Z
	DD	FLAT:?__Excute@?$CTimeEventDecorator@UDWORDCOLOR@@@NEffectUpdateDecorator@@MAEXABVCDecoratorData@2@@Z
	DD	FLAT:?__Clone@?$CTimeEventDecorator@UDWORDCOLOR@@@NEffectUpdateDecorator@@MAEPAVCBaseDecorator@2@PAVCParticleInstance@@0@Z
CONST	ENDS
;	COMDAT ??_7?$CPooledObject@V?$CTimeEventDecorator@UDWORDCOLOR@@@NEffectUpdateDecorator@@@@6B@
CONST	SEGMENT
??_7?$CPooledObject@V?$CTimeEventDecorator@UDWORDCOLOR@@@NEffectUpdateDecorator@@@@6B@ DD FLAT:??_R4?$CPooledObject@V?$CTimeEventDecorator@UDWORDCOLOR@@@NEffectUpdateDecorator@@@@6B@ ; CPooledObject<NEffectUpdateDecorator::CTimeEventDecorator<DWORDCOLOR> >::`vftable'
	DD	FLAT:??_E?$CPooledObject@V?$CTimeEventDecorator@UDWORDCOLOR@@@NEffectUpdateDecorator@@@@UAEPAXI@Z
CONST	ENDS
;	COMDAT ??_7?$CTimeEventDecorator@M@NEffectUpdateDecorator@@6B?$CPooledObject@V?$CTimeEventDecorator@M@NEffectUpdateDecorator@@@@@
CONST	SEGMENT
??_7?$CTimeEventDecorator@M@NEffectUpdateDecorator@@6B?$CPooledObject@V?$CTimeEventDecorator@M@NEffectUpdateDecorator@@@@@ DD FLAT:??_R4?$CTimeEventDecorator@M@NEffectUpdateDecorator@@6B?$CPooledObject@V?$CTimeEventDecorator@M@NEffectUpdateDecorator@@@@@ ; NEffectUpdateDecorator::CTimeEventDecorator<float>::`vftable'
	DD	FLAT:??_E?$CTimeEventDecorator@M@NEffectUpdateDecorator@@WM@AEPAXI@Z
CONST	ENDS
;	COMDAT ??_7?$CTimeEventDecorator@M@NEffectUpdateDecorator@@6BCBaseDecorator@1@@
CONST	SEGMENT
??_7?$CTimeEventDecorator@M@NEffectUpdateDecorator@@6BCBaseDecorator@1@@ DD FLAT:??_R4?$CTimeEventDecorator@M@NEffectUpdateDecorator@@6BCBaseDecorator@1@@ ; NEffectUpdateDecorator::CTimeEventDecorator<float>::`vftable'
	DD	FLAT:??_E?$CTimeEventDecorator@M@NEffectUpdateDecorator@@UAEPAXI@Z
	DD	FLAT:?__Excute@?$CTimeEventDecorator@M@NEffectUpdateDecorator@@MAEXABVCDecoratorData@2@@Z
	DD	FLAT:?__Clone@?$CTimeEventDecorator@M@NEffectUpdateDecorator@@MAEPAVCBaseDecorator@2@PAVCParticleInstance@@0@Z
CONST	ENDS
;	COMDAT ??_7?$CPooledObject@V?$CTimeEventDecorator@M@NEffectUpdateDecorator@@@@6B@
CONST	SEGMENT
