; Listing generated by Microsoft (R) Optimizing Compiler Version 19.28.29335.0 

	TITLE	D:\Metin2 Server Files\mainline\SRC_2014\Metin2Client\EffectLib\ParticleProperty.cpp
	.686P
	.XMM
	include listing.inc
	.model	flat

INCLUDELIB LIBCMT
INCLUDELIB OLDNAMES

PUBLIC	??0exception@std@@QAE@ABV01@@Z			; std::exception::exception
PUBLIC	?what@exception@std@@UBEPBDXZ			; std::exception::what
PUBLIC	??_Gexception@std@@UAEPAXI@Z			; std::exception::`scalar deleting destructor'
PUBLIC	??0bad_alloc@std@@QAE@ABV01@@Z			; std::bad_alloc::bad_alloc
PUBLIC	??_Gbad_alloc@std@@UAEPAXI@Z			; std::bad_alloc::`scalar deleting destructor'
PUBLIC	??0bad_array_new_length@std@@QAE@XZ		; std::bad_array_new_length::bad_array_new_length
PUBLIC	??1bad_array_new_length@std@@UAE@XZ		; std::bad_array_new_length::~bad_array_new_length
PUBLIC	??0bad_array_new_length@std@@QAE@ABV01@@Z	; std::bad_array_new_length::bad_array_new_length
PUBLIC	??_Gbad_array_new_length@std@@UAEPAXI@Z		; std::bad_array_new_length::`scalar deleting destructor'
PUBLIC	?_Throw_bad_array_new_length@std@@YAXXZ		; std::_Throw_bad_array_new_length
PUBLIC	?_Adjust_manually_vector_aligned@std@@YAXAAPAXAAI@Z ; std::_Adjust_manually_vector_aligned
PUBLIC	??$_Deallocate@$07$0A@@std@@YAXPAXI@Z		; std::_Deallocate<8,0>
PUBLIC	??$_Allocate@$07U_Default_allocate_traits@std@@$0A@@std@@YAPAXI@Z ; std::_Allocate<8,std::_Default_allocate_traits,0>
PUBLIC	??$_Allocate_manually_vector_aligned@U_Default_allocate_traits@std@@@std@@YAPAXI@Z ; std::_Allocate_manually_vector_aligned<std::_Default_allocate_traits>
PUBLIC	??0CParticleProperty@@QAE@XZ			; CParticleProperty::CParticleProperty
PUBLIC	??1CParticleProperty@@UAE@XZ			; CParticleProperty::~CParticleProperty
PUBLIC	?Clear@CParticleProperty@@QAEXXZ		; CParticleProperty::Clear
PUBLIC	?InsertTexture@CParticleProperty@@QAEXPBD@Z	; CParticleProperty::InsertTexture
PUBLIC	?SetTexture@CParticleProperty@@QAE_NPBD@Z	; CParticleProperty::SetTexture
PUBLIC	?_Copy_assign@?$vector@V?$CTimeEvent@M@@V?$allocator@V?$CTimeEvent@M@@@std@@@std@@AAEXABV12@U?$integral_constant@_N$0A@@2@@Z ; std::vector<CTimeEvent<float>,std::allocator<CTimeEvent<float> > >::_Copy_assign
PUBLIC	?_Clear_and_reserve_geometric@?$vector@V?$CTimeEvent@M@@V?$allocator@V?$CTimeEvent@M@@@std@@@std@@AAEXI@Z ; std::vector<CTimeEvent<float>,std::allocator<CTimeEvent<float> > >::_Clear_and_reserve_geometric
PUBLIC	?clear@?$vector@V?$CTimeEvent@M@@V?$allocator@V?$CTimeEvent@M@@@std@@@std@@QAEXXZ ; std::vector<CTimeEvent<float>,std::allocator<CTimeEvent<float> > >::clear
PUBLIC	?max_size@?$vector@V?$CTimeEvent@M@@V?$allocator@V?$CTimeEvent@M@@@std@@@std@@QBEIXZ ; std::vector<CTimeEvent<float>,std::allocator<CTimeEvent<float> > >::max_size
PUBLIC	?_Calculate_growth@?$vector@V?$CTimeEvent@M@@V?$allocator@V?$CTimeEvent@M@@@std@@@std@@ABEII@Z ; std::vector<CTimeEvent<float>,std::allocator<CTimeEvent<float> > >::_Calculate_growth
PUBLIC	?_Buy_raw@?$vector@V?$CTimeEvent@M@@V?$allocator@V?$CTimeEvent@M@@@std@@@std@@AAEXI@Z ; std::vector<CTimeEvent<float>,std::allocator<CTimeEvent<float> > >::_Buy_raw
PUBLIC	?_Tidy@?$vector@V?$CTimeEvent@M@@V?$allocator@V?$CTimeEvent@M@@@std@@@std@@AAEXXZ ; std::vector<CTimeEvent<float>,std::allocator<CTimeEvent<float> > >::_Tidy
PUBLIC	?_Xlength@?$vector@V?$CTimeEvent@M@@V?$allocator@V?$CTimeEvent@M@@@std@@@std@@CAXXZ ; std::vector<CTimeEvent<float>,std::allocator<CTimeEvent<float> > >::_Xlength
PUBLIC	?_Copy_assign@?$vector@V?$CTimeEvent@UDWORDCOLOR@@@@V?$allocator@V?$CTimeEvent@UDWORDCOLOR@@@@@std@@@std@@AAEXABV12@U?$integral_constant@_N$0A@@2@@Z ; std::vector<CTimeEvent<DWORDCOLOR>,std::allocator<CTimeEvent<DWORDCOLOR> > >::_Copy_assign
PUBLIC	?_Clear_and_reserve_geometric@?$vector@V?$CTimeEvent@UDWORDCOLOR@@@@V?$allocator@V?$CTimeEvent@UDWORDCOLOR@@@@@std@@@std@@AAEXI@Z ; std::vector<CTimeEvent<DWORDCOLOR>,std::allocator<CTimeEvent<DWORDCOLOR> > >::_Clear_and_reserve_geometric
PUBLIC	?clear@?$vector@V?$CTimeEvent@UDWORDCOLOR@@@@V?$allocator@V?$CTimeEvent@UDWORDCOLOR@@@@@std@@@std@@QAEXXZ ; std::vector<CTimeEvent<DWORDCOLOR>,std::allocator<CTimeEvent<DWORDCOLOR> > >::clear
PUBLIC	?max_size@?$vector@V?$CTimeEvent@UDWORDCOLOR@@@@V?$allocator@V?$CTimeEvent@UDWORDCOLOR@@@@@std@@@std@@QBEIXZ ; std::vector<CTimeEvent<DWORDCOLOR>,std::allocator<CTimeEvent<DWORDCOLOR> > >::max_size
PUBLIC	?_Calculate_growth@?$vector@V?$CTimeEvent@UDWORDCOLOR@@@@V?$allocator@V?$CTimeEvent@UDWORDCOLOR@@@@@std@@@std@@ABEII@Z ; std::vector<CTimeEvent<DWORDCOLOR>,std::allocator<CTimeEvent<DWORDCOLOR> > >::_Calculate_growth
PUBLIC	?_Buy_raw@?$vector@V?$CTimeEvent@UDWORDCOLOR@@@@V?$allocator@V?$CTimeEvent@UDWORDCOLOR@@@@@std@@@std@@AAEXI@Z ; std::vector<CTimeEvent<DWORDCOLOR>,std::allocator<CTimeEvent<DWORDCOLOR> > >::_Buy_raw
PUBLIC	?_Tidy@?$vector@V?$CTimeEvent@UDWORDCOLOR@@@@V?$allocator@V?$CTimeEvent@UDWORDCOLOR@@@@@std@@@std@@AAEXXZ ; std::vector<CTimeEvent<DWORDCOLOR>,std::allocator<CTimeEvent<DWORDCOLOR> > >::_Tidy
PUBLIC	?_Xlength@?$vector@V?$CTimeEvent@UDWORDCOLOR@@@@V?$allocator@V?$CTimeEvent@UDWORDCOLOR@@@@@std@@@std@@CAXXZ ; std::vector<CTimeEvent<DWORDCOLOR>,std::allocator<CTimeEvent<DWORDCOLOR> > >::_Xlength
PUBLIC	?deallocate@?$allocator@PAVCGraphicImage@@@std@@QAEXQAPAVCGraphicImage@@I@Z ; std::allocator<CGraphicImage *>::deallocate
PUBLIC	?_Copy_assign@?$vector@PAVCGraphicImage@@V?$allocator@PAVCGraphicImage@@@std@@@std@@AAEXABV12@U?$integral_constant@_N$0A@@2@@Z ; std::vector<CGraphicImage *,std::allocator<CGraphicImage *> >::_Copy_assign
PUBLIC	?_Clear_and_reserve_geometric@?$vector@PAVCGraphicImage@@V?$allocator@PAVCGraphicImage@@@std@@@std@@AAEXI@Z ; std::vector<CGraphicImage *,std::allocator<CGraphicImage *> >::_Clear_and_reserve_geometric
PUBLIC	?clear@?$vector@PAVCGraphicImage@@V?$allocator@PAVCGraphicImage@@@std@@@std@@QAEXXZ ; std::vector<CGraphicImage *,std::allocator<CGraphicImage *> >::clear
PUBLIC	?max_size@?$vector@PAVCGraphicImage@@V?$allocator@PAVCGraphicImage@@@std@@@std@@QBEIXZ ; std::vector<CGraphicImage *,std::allocator<CGraphicImage *> >::max_size
PUBLIC	?_Destroy@?$vector@PAVCGraphicImage@@V?$allocator@PAVCGraphicImage@@@std@@@std@@AAEXPAPAVCGraphicImage@@0@Z ; std::vector<CGraphicImage *,std::allocator<CGraphicImage *> >::_Destroy
PUBLIC	?_Calculate_growth@?$vector@PAVCGraphicImage@@V?$allocator@PAVCGraphicImage@@@std@@@std@@ABEII@Z ; std::vector<CGraphicImage *,std::allocator<CGraphicImage *> >::_Calculate_growth
PUBLIC	?_Buy_raw@?$vector@PAVCGraphicImage@@V?$allocator@PAVCGraphicImage@@@std@@@std@@AAEXI@Z ; std::vector<CGraphicImage *,std::allocator<CGraphicImage *> >::_Buy_raw
PUBLIC	?_Change_array@?$vector@PAVCGraphicImage@@V?$allocator@PAVCGraphicImage@@@std@@@std@@AAEXQAPAVCGraphicImage@@II@Z ; std::vector<CGraphicImage *,std::allocator<CGraphicImage *> >::_Change_array
PUBLIC	?_Tidy@?$vector@PAVCGraphicImage@@V?$allocator@PAVCGraphicImage@@@std@@@std@@AAEXXZ ; std::vector<CGraphicImage *,std::allocator<CGraphicImage *> >::_Tidy
PUBLIC	?_Xlength@?$vector@PAVCGraphicImage@@V?$allocator@PAVCGraphicImage@@@std@@@std@@CAXXZ ; std::vector<CGraphicImage *,std::allocator<CGraphicImage *> >::_Xlength
PUBLIC	??4CParticleProperty@@QAEAAV0@ABV0@@Z		; CParticleProperty::operator=
PUBLIC	??_GCParticleProperty@@UAEPAXI@Z		; CParticleProperty::`scalar deleting destructor'
PUBLIC	??$emplace_back@ABQAVCGraphicImage@@@?$vector@PAVCGraphicImage@@V?$allocator@PAVCGraphicImage@@@std@@@std@@QAEXABQAVCGraphicImage@@@Z ; std::vector<CGraphicImage *,std::allocator<CGraphicImage *> >::emplace_back<CGraphicImage * const &>
PUBLIC	??$_Emplace_back_with_unused_capacity@ABQAVCGraphicImage@@@?$vector@PAVCGraphicImage@@V?$allocator@PAVCGraphicImage@@@std@@@std@@AAEXABQAVCGraphicImage@@@Z ; std::vector<CGraphicImage *,std::allocator<CGraphicImage *> >::_Emplace_back_with_unused_capacity<CGraphicImage * const &>
PUBLIC	??$_Emplace_reallocate@ABQAVCGraphicImage@@@?$vector@PAVCGraphicImage@@V?$allocator@PAVCGraphicImage@@@std@@@std@@QAEPAPAVCGraphicImage@@QAPAV2@ABQAV2@@Z ; std::vector<CGraphicImage *,std::allocator<CGraphicImage *> >::_Emplace_reallocate<CGraphicImage * const &>
PUBLIC	??$_Destroy_range@V?$allocator@PAVCGraphicImage@@@std@@@std@@YAXPAPAVCGraphicImage@@QAPAV1@AAV?$allocator@PAVCGraphicImage@@@0@@Z ; std::_Destroy_range<std::allocator<CGraphicImage *> >
PUBLIC	??$_Pocca@V?$allocator@PAVCGraphicImage@@@std@@@std@@YAXAAV?$allocator@PAVCGraphicImage@@@0@ABV10@@Z ; std::_Pocca<std::allocator<CGraphicImage *> >
PUBLIC	??$_Destroy_range@V?$allocator@V?$CTimeEvent@UDWORDCOLOR@@@@@std@@@std@@YAXPAV?$CTimeEvent@UDWORDCOLOR@@@@QAV1@AAV?$allocator@V?$CTimeEvent@UDWORDCOLOR@@@@@0@@Z ; std::_Destroy_range<std::allocator<CTimeEvent<DWORDCOLOR> > >
PUBLIC	??$_Pocca@V?$allocator@V?$CTimeEvent@UDWORDCOLOR@@@@@std@@@std@@YAXAAV?$allocator@V?$CTimeEvent@UDWORDCOLOR@@@@@0@ABV10@@Z ; std::_Pocca<std::allocator<CTimeEvent<DWORDCOLOR> > >
PUBLIC	??$_Destroy_range@V?$allocator@V?$CTimeEvent@M@@@std@@@std@@YAXPAV?$CTimeEvent@M@@QAV1@AAV?$allocator@V?$CTimeEvent@M@@@0@@Z ; std::_Destroy_range<std::allocator<CTimeEvent<float> > >
PUBLIC	??$_Pocca@V?$allocator@V?$CTimeEvent@M@@@std@@@std@@YAXAAV?$allocator@V?$CTimeEvent@M@@@0@ABV10@@Z ; std::_Pocca<std::allocator<CTimeEvent<float> > >
PUBLIC	??$_Assign_range@PAPAVCGraphicImage@@@?$vector@PAVCGraphicImage@@V?$allocator@PAVCGraphicImage@@@std@@@std@@AAEXPAPAVCGraphicImage@@0Uforward_iterator_tag@1@@Z ; std::vector<CGraphicImage *,std::allocator<CGraphicImage *> >::_Assign_range<CGraphicImage * *>
PUBLIC	??$_Assign_range@PAV?$CTimeEvent@UDWORDCOLOR@@@@@?$vector@V?$CTimeEvent@UDWORDCOLOR@@@@V?$allocator@V?$CTimeEvent@UDWORDCOLOR@@@@@std@@@std@@AAEXPAV?$CTimeEvent@UDWORDCOLOR@@@@0Uforward_iterator_tag@1@@Z ; std::vector<CTimeEvent<DWORDCOLOR>,std::allocator<CTimeEvent<DWORDCOLOR> > >::_Assign_range<CTimeEvent<DWORDCOLOR> *>
PUBLIC	??$_Assign_range@PAV?$CTimeEvent@M@@@?$vector@V?$CTimeEvent@M@@V?$allocator@V?$CTimeEvent@M@@@std@@@std@@AAEXPAV?$CTimeEvent@M@@0Uforward_iterator_tag@1@@Z ; std::vector<CTimeEvent<float>,std::allocator<CTimeEvent<float> > >::_Assign_range<CTimeEvent<float> *>
PUBLIC	??$_Uninitialized_move@PAPAVCGraphicImage@@V?$allocator@PAVCGraphicImage@@@std@@@std@@YAPAPAVCGraphicImage@@QAPAV1@0PAPAV1@AAV?$allocator@PAVCGraphicImage@@@0@@Z ; std::_Uninitialized_move<CGraphicImage * *,std::allocator<CGraphicImage *> >
PUBLIC	??$_Copy_memmove@PAPAVCGraphicImage@@PAPAV1@@std@@YAPAPAVCGraphicImage@@PAPAV1@00@Z ; std::_Copy_memmove<CGraphicImage * *,CGraphicImage * *>
PUBLIC	??$_Refancy@PAPAVCGraphicImage@@$0A@@std@@YAPAPAVCGraphicImage@@PAPAV1@@Z ; std::_Refancy<CGraphicImage * *,0>
PUBLIC	??$_Uninitialized_copy@PAV?$CTimeEvent@UDWORDCOLOR@@@@V?$allocator@V?$CTimeEvent@UDWORDCOLOR@@@@@std@@@std@@YAPAV?$CTimeEvent@UDWORDCOLOR@@@@QAV1@0PAV1@AAV?$allocator@V?$CTimeEvent@UDWORDCOLOR@@@@@0@@Z ; std::_Uninitialized_copy<CTimeEvent<DWORDCOLOR> *,std::allocator<CTimeEvent<DWORDCOLOR> > >
PUBLIC	??$_Uninitialized_copy@PAV?$CTimeEvent@M@@V?$allocator@V?$CTimeEvent@M@@@std@@@std@@YAPAV?$CTimeEvent@M@@QAV1@0PAV1@AAV?$allocator@V?$CTimeEvent@M@@@0@@Z ; std::_Uninitialized_copy<CTimeEvent<float> *,std::allocator<CTimeEvent<float> > >
PUBLIC	??1?$_Uninitialized_backout_al@V?$allocator@V?$CTimeEvent@UDWORDCOLOR@@@@@std@@@std@@QAE@XZ ; std::_Uninitialized_backout_al<std::allocator<CTimeEvent<DWORDCOLOR> > >::~_Uninitialized_backout_al<std::allocator<CTimeEvent<DWORDCOLOR> > >
PUBLIC	??$_Emplace_back@AAV?$CTimeEvent@UDWORDCOLOR@@@@@?$_Uninitialized_backout_al@V?$allocator@V?$CTimeEvent@UDWORDCOLOR@@@@@std@@@std@@QAEXAAV?$CTimeEvent@UDWORDCOLOR@@@@@Z ; std::_Uninitialized_backout_al<std::allocator<CTimeEvent<DWORDCOLOR> > >::_Emplace_back<CTimeEvent<DWORDCOLOR> &>
PUBLIC	??_7exception@std@@6B@				; std::exception::`vftable'
PUBLIC	??_C@_0BC@EOODALEL@Unknown?5exception@		; `string'
PUBLIC	??_7bad_alloc@std@@6B@				; std::bad_alloc::`vftable'
PUBLIC	??_7bad_array_new_length@std@@6B@		; std::bad_array_new_length::`vftable'
PUBLIC	??_C@_0BF@KINCDENJ@bad?5array?5new?5length@	; `string'
PUBLIC	__TI3?AVbad_array_new_length@std@@
PUBLIC	__CTA3?AVbad_array_new_length@std@@
PUBLIC	??_R0?AVbad_array_new_length@std@@@8		; std::bad_array_new_length `RTTI Type Descriptor'
PUBLIC	__CT??_R0?AVbad_array_new_length@std@@@8??0bad_array_new_length@std@@QAE@ABV01@@Z12
PUBLIC	??_R0?AVbad_alloc@std@@@8			; std::bad_alloc `RTTI Type Descriptor'
PUBLIC	__CT??_R0?AVbad_alloc@std@@@8??0bad_alloc@std@@QAE@ABV01@@Z12
PUBLIC	??_R0?AVexception@std@@@8			; std::exception `RTTI Type Descriptor'
PUBLIC	__CT??_R0?AVexception@std@@@8??0exception@std@@QAE@ABV01@@Z12
PUBLIC	??_R4exception@std@@6B@				; std::exception::`RTTI Complete Object Locator'
PUBLIC	??_R3exception@std@@8				; std::exception::`RTTI Class Hierarchy Descriptor'
PUBLIC	??_R2exception@std@@8				; std::exception::`RTTI Base Class Array'
PUBLIC	??_R1A@?0A@EA@exception@std@@8			; std::exception::`RTTI Base Class Descriptor at (0,-1,0,64)'
PUBLIC	??_R4bad_alloc@std@@6B@				; std::bad_alloc::`RTTI Complete Object Locator'
PUBLIC	??_R3bad_alloc@std@@8				; std::bad_alloc::`RTTI Class Hierarchy Descriptor'
PUBLIC	??_R2bad_alloc@std@@8				; std::bad_alloc::`RTTI Base Class Array'
PUBLIC	??_R1A@?0A@EA@bad_alloc@std@@8			; std::bad_alloc::`RTTI Base Class Descriptor at (0,-1,0,64)'
PUBLIC	??_R4bad_array_new_length@std@@6B@		; std::bad_array_new_length::`RTTI Complete Object Locator'
PUBLIC	??_R3bad_array_new_length@std@@8		; std::bad_array_new_length::`RTTI Class Hierarchy Descriptor'
PUBLIC	??_R2bad_array_new_length@std@@8		; std::bad_array_new_length::`RTTI Base Class Array'
PUBLIC	??_R1A@?0A@EA@bad_array_new_length@std@@8	; std::bad_array_new_length::`RTTI Base Class Descriptor at (0,-1,0,64)'
PUBLIC	??_7CParticleProperty@@6B@			; CParticleProperty::`vftable'
PUBLIC	?ms_singleton@?$CSingleton@VCResourceManager@@@@0PAVCResourceManager@@A ; CSingleton<CResourceManager>::ms_singleton
PUBLIC	??_C@_0BA@FOIKENOD@vector?5too?5long@		; `string'
PUBLIC	??_R4CParticleProperty@@6B@			; CParticleProperty::`RTTI Complete Object Locator'
PUBLIC	??_R0?AVCParticleProperty@@@8			; CParticleProperty `RTTI Type Descriptor'
PUBLIC	??_R3CParticleProperty@@8			; CParticleProperty::`RTTI Class Hierarchy Descriptor'
PUBLIC	??_R2CParticleProperty@@8			; CParticleProperty::`RTTI Base Class Array'
PUBLIC	??_R1A@?0A@EA@CParticleProperty@@8		; CParticleProperty::`RTTI Base Class Descriptor at (0,-1,0,64)'
PUBLIC	__real@3d4ccccd
EXTRN	??2@YAPAXI@Z:PROC				; operator new
EXTRN	??3@YAXPAXI@Z:PROC				; operator delete
EXTRN	__invalid_parameter_noinfo_noreturn:PROC
EXTRN	_memmove:PROC
EXTRN	___std_exception_copy:PROC
EXTRN	___std_exception_destroy:PROC
EXTRN	??_Eexception@std@@UAEPAXI@Z:PROC		; std::exception::`vector deleting destructor'
EXTRN	??_Ebad_alloc@std@@UAEPAXI@Z:PROC		; std::bad_alloc::`vector deleting destructor'
EXTRN	??_Ebad_array_new_length@std@@UAEPAXI@Z:PROC	; std::bad_array_new_length::`vector deleting destructor'
EXTRN	?_Xlength_error@std@@YAXPBD@Z:PROC		; std::_Xlength_error
EXTRN	??_ECParticleProperty@@UAEPAXI@Z:PROC		; CParticleProperty::`vector deleting destructor'
EXTRN	?GetResourcePointer@CResourceManager@@QAEPAVCResource@@PBD@Z:PROC ; CResourceManager::GetResourcePointer
EXTRN	@__security_check_cookie@4:PROC
EXTRN	__CxxThrowException@8:PROC
EXTRN	___CxxFrameHandler3:PROC
EXTRN	??_7type_info@@6B@:QWORD			; type_info::`vftable'
EXTRN	___security_cookie:DWORD
EXTRN	__fltused:DWORD
;	COMDAT ?ms_singleton@?$CSingleton@VCResourceManager@@@@0PAVCResourceManager@@A
_BSS	SEGMENT
?ms_singleton@?$CSingleton@VCResourceManager@@@@0PAVCResourceManager@@A DD 01H DUP (?) ; CSingleton<CResourceManager>::ms_singleton
_BSS	ENDS
;	COMDAT __real@3d4ccccd
CONST	SEGMENT
__real@3d4ccccd DD 03d4ccccdr			; 0.05
CONST	ENDS
;	COMDAT ??_R1A@?0A@EA@CParticleProperty@@8
rdata$r	SEGMENT
??_R1A@?0A@EA@CParticleProperty@@8 DD FLAT:??_R0?AVCParticleProperty@@@8 ; CParticleProperty::`RTTI Base Class Descriptor at (0,-1,0,64)'
	DD	00H
	DD	00H
	DD	0ffffffffH
	DD	00H
	DD	040H
	DD	FLAT:??_R3CParticleProperty@@8
rdata$r	ENDS
;	COMDAT ??_R2CParticleProperty@@8
rdata$r	SEGMENT
??_R2CParticleProperty@@8 DD FLAT:??_R1A@?0A@EA@CParticleProperty@@8 ; CParticleProperty::`RTTI Base Class Array'
rdata$r	ENDS
;	COMDAT ??_R3CParticleProperty@@8
rdata$r	SEGMENT
??_R3CParticleProperty@@8 DD 00H			; CParticleProperty::`RTTI Class Hierarchy Descriptor'
	DD	00H
	DD	01H
	DD	FLAT:??_R2CParticleProperty@@8
rdata$r	ENDS
;	COMDAT ??_R0?AVCParticleProperty@@@8
data$rs	SEGMENT
??_R0?AVCParticleProperty@@@8 DD FLAT:??_7type_info@@6B@ ; CParticleProperty `RTTI Type Descriptor'
	DD	00H
	DB	'.?AVCParticleProperty@@', 00H
data$rs	ENDS
;	COMDAT ??_R4CParticleProperty@@6B@
rdata$r	SEGMENT
??_R4CParticleProperty@@6B@ DD 00H			; CParticleProperty::`RTTI Complete Object Locator'
	DD	00H
	DD	00H
	DD	FLAT:??_R0?AVCParticleProperty@@@8
	DD	FLAT:??_R3CParticleProperty@@8
rdata$r	ENDS
;	COMDAT ??_C@_0BA@FOIKENOD@vector?5too?5long@
CONST	SEGMENT
??_C@_0BA@FOIKENOD@vector?5too?5long@ DB 'vector too long', 00H ; `string'
CONST	ENDS
;	COMDAT ??_7CParticleProperty@@6B@
CONST	SEGMENT
??_7CParticleProperty@@6B@ DD FLAT:??_R4CParticleProperty@@6B@ ; CParticleProperty::`vftable'
	DD	FLAT:??_ECParticleProperty@@UAEPAXI@Z
CONST	ENDS
;	COMDAT ??_R1A@?0A@EA@bad_array_new_length@std@@8
rdata$r	SEGMENT
??_R1A@?0A@EA@bad_array_new_length@std@@8 DD FLAT:??_R0?AVbad_array_new_length@std@@@8 ; std::bad_array_new_length::`RTTI Base Class Descriptor at (0,-1,0,64)'
	DD	02H
	DD	00H
	DD	0ffffffffH
	DD	00H
	DD	040H
	DD	FLAT:??_R3bad_array_new_length@std@@8
rdata$r	ENDS
;	COMDAT ??_R2bad_array_new_length@std@@8
rdata$r	SEGMENT
??_R2bad_array_new_length@std@@8 DD FLAT:??_R1A@?0A@EA@bad_array_new_length@std@@8 ; std::bad_array_new_length::`RTTI Base Class Array'
	DD	FLAT:??_R1A@?0A@EA@bad_alloc@std@@8
	DD	FLAT:??_R1A@?0A@EA@exception@std@@8
rdata$r	ENDS
;	COMDAT ??_R3bad_array_new_length@std@@8
rdata$r	SEGMENT
??_R3bad_array_new_length@std@@8 DD 00H			; std::bad_array_new_length::`RTTI Class Hierarchy Descriptor'
	DD	00H
	DD	03H
	DD	FLAT:??_R2bad_array_new_length@std@@8
rdata$r	ENDS
;	COMDAT ??_R4bad_array_new_length@std@@6B@
rdata$r	SEGMENT
??_R4bad_array_new_length@std@@6B@ DD 00H		; std::bad_array_new_length::`RTTI Complete Object Locator'
	DD	00H
	DD	00H
	DD	FLAT:??_R0?AVbad_array_new_length@std@@@8
	DD	FLAT:??_R3bad_array_new_length@std@@8
rdata$r	ENDS
;	COMDAT ??_R1A@?0A@EA@bad_alloc@std@@8
rdata$r	SEGMENT
??_R1A@?0A@EA@bad_alloc@std@@8 DD FLAT:??_R0?AVbad_alloc@std@@@8 ; std::bad_alloc::`RTTI Base Class Descriptor at (0,-1,0,64)'
	DD	01H
	DD	00H
	DD	0ffffffffH
	DD	00H
	DD	040H
	DD	FLAT:??_R3bad_alloc@std@@8
rdata$r	ENDS
;	COMDAT ??_R2bad_alloc@std@@8
rdata$r	SEGMENT
??_R2bad_alloc@std@@8 DD FLAT:??_R1A@?0A@EA@bad_alloc@std@@8 ; std::bad_alloc::`RTTI Base Class Array'
	DD	FLAT:??_R1A@?0A@EA@exception@std@@8
rdata$r	ENDS
;	COMDAT ??_R3bad_alloc@std@@8
rdata$r	SEGMENT
??_R3bad_alloc@std@@8 DD 00H				; std::bad_alloc::`RTTI Class Hierarchy Descriptor'
	DD	00H
	DD	02H
	DD	FLAT:??_R2bad_alloc@std@@8
rdata$r	ENDS
;	COMDAT ??_R4bad_alloc@std@@6B@
rdata$r	SEGMENT
??_R4bad_alloc@std@@6B@ DD 00H				; std::bad_alloc::`RTTI Complete Object Locator'
	DD	00H
	DD	00H
	DD	FLAT:??_R0?AVbad_alloc@std@@@8
	DD	FLAT:??_R3bad_alloc@std@@8
rdata$r	ENDS
;	COMDAT ??_R1A@?0A@EA@exception@std@@8
rdata$r	SEGMENT
??_R1A@?0A@EA@exception@std@@8 DD FLAT:??_R0?AVexception@std@@@8 ; std::exception::`RTTI Base Class Descriptor at (0,-1,0,64)'
	DD	00H
	DD	00H
	DD	0ffffffffH
	DD	00H
	DD	040H
	DD	FLAT:??_R3exception@std@@8
rdata$r	ENDS
;	COMDAT ??_R2exception@std@@8
rdata$r	SEGMENT
??_R2exception@std@@8 DD FLAT:??_R1A@?0A@EA@exception@std@@8 ; std::exception::`RTTI Base Class Array'
rdata$r	ENDS
;	COMDAT ??_R3exception@std@@8
rdata$r	SEGMENT
??_R3exception@std@@8 DD 00H				; std::exception::`RTTI Class Hierarchy Descriptor'
	DD	00H
	DD	01H
	DD	FLAT:??_R2exception@std@@8
rdata$r	ENDS
;	COMDAT ??_R4exception@std@@6B@
rdata$r	SEGMENT
??_R4exception@std@@6B@ DD 00H				; std::exception::`RTTI Complete Object Locator'
	DD	00H
	DD	00H
	DD	FLAT:??_R0?AVexception@std@@@8
	DD	FLAT:??_R3exception@std@@8
rdata$r	ENDS
;	COMDAT __CT??_R0?AVexception@std@@@8??0exception@std@@QAE@ABV01@@Z12
xdata$x	SEGMENT
__CT??_R0?AVexception@std@@@8??0exception@std@@QAE@ABV01@@Z12 DD 00H
	DD	FLAT:??_R0?AVexception@std@@@8
	DD	00H
	DD	0ffffffffH
	ORG $+4
	DD	0cH
	DD	FLAT:??0exception@std@@QAE@ABV01@@Z
xdata$x	ENDS
;	COMDAT ??_R0?AVexception@std@@@8
data$r	SEGMENT
??_R0?AVexception@std@@@8 DD FLAT:??_7type_info@@6B@	; std::exception `RTTI Type Descriptor'
	DD	00H
	DB	'.?AVexception@std@@', 00H
data$r	ENDS
;	COMDAT __CT??_R0?AVbad_alloc@std@@@8??0bad_alloc@std@@QAE@ABV01@@Z12
xdata$x	SEGMENT
__CT??_R0?AVbad_alloc@std@@@8??0bad_alloc@std@@QAE@ABV01@@Z12 DD 010H
	DD	FLAT:??_R0?AVbad_alloc@std@@@8
	DD	00H
	DD	0ffffffffH
	ORG $+4
	DD	0cH
	DD	FLAT:??0bad_alloc@std@@QAE@ABV01@@Z
xdata$x	ENDS
;	COMDAT ??_R0?AVbad_alloc@std@@@8
data$r	SEGMENT
??_R0?AVbad_alloc@std@@@8 DD FLAT:??_7type_info@@6B@	; std::bad_alloc `RTTI Type Descriptor'
	DD	00H
	DB	'.?AVbad_alloc@std@@', 00H
data$r	ENDS
;	COMDAT __CT??_R0?AVbad_array_new_length@std@@@8??0bad_array_new_length@std@@QAE@ABV01@@Z12
xdata$x	SEGMENT
__CT??_R0?AVbad_array_new_length@std@@@8??0bad_array_new_length@std@@QAE@ABV01@@Z12 DD 00H
	DD	FLAT:??_R0?AVbad_array_new_length@std@@@8
	DD	00H
	DD	0ffffffffH
	ORG $+4
	DD	0cH
	DD	FLAT:??0bad_array_new_length@std@@QAE@ABV01@@Z
xdata$x	ENDS
;	COMDAT ??_R0?AVbad_array_new_length@std@@@8
data$r	SEGMENT
??_R0?AVbad_array_new_length@std@@@8 DD FLAT:??_7type_info@@6B@ ; std::bad_array_new_length `RTTI Type Descriptor'
	DD	00H
	DB	'.?AVbad_array_new_length@std@@', 00H
data$r	ENDS
;	COMDAT __CTA3?AVbad_array_new_length@std@@
xdata$x	SEGMENT
__CTA3?AVbad_array_new_length@std@@ DD 03H
	DD	FLAT:__CT??_R0?AVbad_array_new_length@std@@@8??0bad_array_new_length@std@@QAE@ABV01@@Z12
	DD	FLAT:__CT??_R0?AVbad_alloc@std@@@8??0bad_alloc@std@@QAE@ABV01@@Z12
	DD	FLAT:__CT??_R0?AVexception@std@@@8??0exception@std@@QAE@ABV01@@Z12
xdata$x	ENDS
;	COMDAT __TI3?AVbad_array_new_length@std@@
xdata$x	SEGMENT
__TI3?AVbad_array_new_length@std@@ DD 00H
	DD	FLAT:??1bad_array_new_length@std@@UAE@XZ
	DD	00H
	DD	FLAT:__CTA3?AVbad_array_new_length@std@@
xdata$x	ENDS
;	COMDAT ??_C@_0BF@KINCDENJ@bad?5array?5new?5length@
CONST	SEGMENT
??_C@_0BF@KINCDENJ@bad?5array?5new?5length@ DB 'bad array new length', 00H ; `string'
CONST	ENDS
;	COMDAT ??_7bad_array_new_length@std@@6B@
CONST	SEGMENT
??_7bad_array_new_length@std@@6B@ DD FLAT:??_R4bad_array_new_length@std@@6B@ ; std::bad_array_new_length::`vftable'
	DD	FLAT:??_Ebad_array_new_length@std@@UAEPAXI@Z
	DD	FLAT:?what@exception@std@@UBEPBDXZ
CONST	ENDS
;	COMDAT ??_7bad_alloc@std@@6B@
CONST	SEGMENT
??_7bad_alloc@std@@6B@ DD FLAT:??_R4bad_alloc@std@@6B@	; std::bad_alloc::`vftable'
	DD	FLAT:??_Ebad_alloc@std@@UAEPAXI@Z
	DD	FLAT:?what@exception@std@@UBEPBDXZ
CONST	ENDS
;	COMDAT ??_C@_0BC@EOODALEL@Unknown?5exception@
CONST	SEGMENT
??_C@_0BC@EOODALEL@Unknown?5exception@ DB 'Unknown exception', 00H ; `string'
CONST	ENDS
;	COMDAT ??_7exception@std@@6B@
CONST	SEGMENT
??_7exception@std@@6B@ DD FLAT:??_R4exception@std@@6B@	; std::exception::`vftable'
	DD	FLAT:??_Eexception@std@@UAEPAXI@Z
	DD	FLAT:?what@exception@std@@UBEPBDXZ
CONST	ENDS
;	COMDAT xdata$x
xdata$x	SEGMENT
__unwindtable$??$_Uninitialized_copy@PAV?$CTimeEvent@UDWORDCOLOR@@@@V?$allocator@V?$CTimeEvent@UDWORDCOLOR@@@@@std@@@std@@YAPAV?$CTimeEvent@UDWORDCOLOR@@@@QAV1@0PAV1@AAV?$allocator@V?$CTimeEvent@UDWORDCOLOR@@@@@0@@Z DD 0ffffffffH
	DD	FLAT:__unwindfunclet$??$_Uninitialized_copy@PAV?$CTimeEvent@UDWORDCOLOR@@@@V?$allocator@V?$CTimeEvent@UDWORDCOLOR@@@@@std@@@std@@YAPAV?$CTimeEvent@UDWORDCOLOR@@@@QAV1@0PAV1@AAV?$allocator@V?$CTimeEvent@UDWORDCOLOR@@@@@0@@Z$0
__ehfuncinfo$??$_Uninitialized_copy@PAV?$CTimeEvent@UDWORDCOLOR@@@@V?$allocator@V?$CTimeEvent@UDWORDCOLOR@@@@@std@@@std@@YAPAV?$CTimeEvent@UDWORDCOLOR@@@@QAV1@0PAV1@AAV?$allocator@V?$CTimeEvent@UDWORDCOLOR@@@@@0@@Z DD 019930522H
	DD	01H
	DD	FLAT:__unwindtable$??$_Uninitialized_copy@PAV?$CTimeEvent@UDWORDCOLOR@@@@V?$allocator@V?$CTimeEvent@UDWORDCOLOR@@@@@std@@@std@@YAPAV?$CTimeEvent@UDWORDCOLOR@@@@QAV1@0PAV1@AAV?$allocator@V?$CTimeEvent@UDWORDCOLOR@@@@@0@@Z
	DD	2 DUP(00H)
	DD	2 DUP(00H)
	DD	00H
	DD	01H
xdata$x	ENDS
;	COMDAT xdata$x
xdata$x	SEGMENT
__catchsym$??$_Emplace_reallocate@ABQAVCGraphicImage@@@?$vector@PAVCGraphicImage@@V?$allocator@PAVCGraphicImage@@@std@@@std@@QAEPAPAVCGraphicImage@@QAPAV2@ABQAV2@@Z$32 DD 040H
	DD	00H
	DD	00H
	DD	FLAT:__catch$??$_Emplace_reallocate@ABQAVCGraphicImage@@@?$vector@PAVCGraphicImage@@V?$allocator@PAVCGraphicImage@@@std@@@std@@QAEPAPAVCGraphicImage@@QAPAV2@ABQAV2@@Z$0
__unwindtable$??$_Emplace_reallocate@ABQAVCGraphicImage@@@?$vector@PAVCGraphicImage@@V?$allocator@PAVCGraphicImage@@@std@@@std@@QAEPAPAVCGraphicImage@@QAPAV2@ABQAV2@@Z DD 0ffffffffH
	DD	00H
	DD	0ffffffffH
	DD	00H
__tryblocktable$??$_Emplace_reallocate@ABQAVCGraphicImage@@@?$vector@PAVCGraphicImage@@V?$allocator@PAVCGraphicImage@@@std@@@std@@QAEPAPAVCGraphicImage@@QAPAV2@ABQAV2@@Z DD 00H
	DD	00H
	DD	01H
	DD	01H
	DD	FLAT:__catchsym$??$_Emplace_reallocate@ABQAVCGraphicImage@@@?$vector@PAVCGraphicImage@@V?$allocator@PAVCGraphicImage@@@std@@@std@@QAEPAPAVCGraphicImage@@QAPAV2@ABQAV2@@Z$32
__ehfuncinfo$??$_Emplace_reallocate@ABQAVCGraphicImage@@@?$vector@PAVCGraphicImage@@V?$allocator@PAVCGraphicImage@@@std@@@std@@QAEPAPAVCGraphicImage@@QAPAV2@ABQAV2@@Z DD 019930522H
	DD	02H
	DD	FLAT:__unwindtable$??$_Emplace_reallocate@ABQAVCGraphicImage@@@?$vector@PAVCGraphicImage@@V?$allocator@PAVCGraphicImage@@@std@@@std@@QAEPAPAVCGraphicImage@@QAPAV2@ABQAV2@@Z
	DD	01H
	DD	FLAT:__tryblocktable$??$_Emplace_reallocate@ABQAVCGraphicImage@@@?$vector@PAVCGraphicImage@@V?$allocator@PAVCGraphicImage@@@std@@@std@@QAEPAPAVCGraphicImage@@QAPAV2@ABQAV2@@Z
	DD	2 DUP(00H)
	DD	00H
	DD	01H
xdata$x	ENDS
;	COMDAT xdata$x
xdata$x	SEGMENT
__ehfuncinfo$??$_Deallocate@$07$0A@@std@@YAXPAXI@Z DD 019930522H
	DD	00H
	DD	00H
	DD	2 DUP(00H)
	DD	2 DUP(00H)
	DD	00H
	DD	05H
xdata$x	ENDS
; Function compile flags: /Odspy
; File C:\Program Files (x86)\Microsoft Visual Studio\2019\Community\VC\Tools\MSVC\14.28.29333\include\xmemory
; File C:\Program Files (x86)\Microsoft Visual Studio\2019\Community\VC\Tools\MSVC\14.28.29333\include\type_traits
; File C:\Program Files (x86)\Microsoft Visual Studio\2019\Community\VC\Tools\MSVC\14.28.29333\include\xmemory
; File C:\Program Files (x86)\Microsoft Visual Studio\2019\Community\VC\Tools\MSVC\14.28.29333\include\xstddef
; File C:\Program Files (x86)\Microsoft Visual Studio\2019\Community\VC\Tools\MSVC\14.28.29333\include\xmemory
; File C:\Program Files (x86)\Microsoft Visual Studio\2019\Community\VC\Tools\MSVC\14.28.29333\include\vcruntime_new.h
; File C:\Program Files (x86)\Microsoft Visual Studio\2019\Community\VC\Tools\MSVC\14.28.29333\include\type_traits
; File D:\Metin2 Server Files\mainline\SRC_2014\Metin2Client\EffectLib\Type.h
; File C:\Program Files (x86)\Microsoft Visual Studio\2019\Community\VC\Tools\MSVC\14.28.29333\include\xmemory
;	COMDAT ??$_Emplace_back@AAV?$CTimeEvent@UDWORDCOLOR@@@@@?$_Uninitialized_backout_al@V?$allocator@V?$CTimeEvent@UDWORDCOLOR@@@@@std@@@std@@QAEXAAV?$CTimeEvent@UDWORDCOLOR@@@@@Z
_TEXT	SEGMENT
___formal$ = -32					; size = 4
_this$1 = -28						; size = 4
$T2 = -24						; size = 4
$T3 = -20						; size = 4
__Ptr$ = -16						; size = 4
$T4 = -12						; size = 4
$T5 = -8						; size = 4
_this$ = -4						; size = 4
_<_Vals_0>$ = 8						; size = 4
??$_Emplace_back@AAV?$CTimeEvent@UDWORDCOLOR@@@@@?$_Uninitialized_backout_al@V?$allocator@V?$CTimeEvent@UDWORDCOLOR@@@@@std@@@std@@QAEXAAV?$CTimeEvent@UDWORDCOLOR@@@@@Z PROC ; std::_Uninitialized_backout_al<std::allocator<CTimeEvent<DWORDCOLOR> > >::_Emplace_back<CTimeEvent<DWORDCOLOR> &>, COMDAT
; _this$ = ecx

; 1545 :     void _Emplace_back(_Types&&... _Vals) { // construct a new element at *_Last and increment

  00000	55		 push	 ebp
  00001	8b ec		 mov	 ebp, esp
  00003	83 ec 20	 sub	 esp, 32			; 00000020H
  00006	89 4d fc	 mov	 DWORD PTR _this$[ebp], ecx
; File C:\Program Files (x86)\Microsoft Visual Studio\2019\Community\VC\Tools\MSVC\14.28.29333\include\type_traits

; 1443 :     return static_cast<_Ty&&>(_Arg);

  00009	8b 45 08	 mov	 eax, DWORD PTR _<_Vals_0>$[ebp]
  0000c	89 45 e8	 mov	 DWORD PTR $T2[ebp], eax
; File C:\Program Files (x86)\Microsoft Visual Studio\2019\Community\VC\Tools\MSVC\14.28.29333\include\xmemory

; 1546 :         allocator_traits<_Alloc>::construct(_Al, _Unfancy(_Last), _STD forward<_Types>(_Vals)...);

  0000f	8b 45 fc	 mov	 eax, DWORD PTR _this$[ebp]
  00012	8b 40 04	 mov	 eax, DWORD PTR [eax+4]
  00015	89 45 f0	 mov	 DWORD PTR __Ptr$[ebp], eax
; File C:\Program Files (x86)\Microsoft Visual Studio\2019\Community\VC\Tools\MSVC\14.28.29333\include\xstddef

; 289  :     return _Ptr;

  00018	8b 45 f0	 mov	 eax, DWORD PTR __Ptr$[ebp]
  0001b	89 45 ec	 mov	 DWORD PTR $T3[ebp], eax
; File C:\Program Files (x86)\Microsoft Visual Studio\2019\Community\VC\Tools\MSVC\14.28.29333\include\xmemory

; 1546 :         allocator_traits<_Alloc>::construct(_Al, _Unfancy(_Last), _STD forward<_Types>(_Vals)...);

  0001e	8b 45 fc	 mov	 eax, DWORD PTR _this$[ebp]
  00021	8b 40 08	 mov	 eax, DWORD PTR [eax+8]
  00024	89 45 e0	 mov	 DWORD PTR ___formal$[ebp], eax
; File C:\Program Files (x86)\Microsoft Visual Studio\2019\Community\VC\Tools\MSVC\14.28.29333\include\vcruntime_new.h

; 169  :         return _Where;

  00027	8b 45 ec	 mov	 eax, DWORD PTR $T3[ebp]
  0002a	89 45 f8	 mov	 DWORD PTR $T5[ebp], eax
; File C:\Program Files (x86)\Microsoft Visual Studio\2019\Community\VC\Tools\MSVC\14.28.29333\include\type_traits

; 1443 :     return static_cast<_Ty&&>(_Arg);

  0002d	8b 45 e8	 mov	 eax, DWORD PTR $T2[ebp]
  00030	89 45 f4	 mov	 DWORD PTR $T4[ebp], eax
  00033	8b 45 f8	 mov	 eax, DWORD PTR $T5[ebp]
  00036	8b 4d f4	 mov	 ecx, DWORD PTR $T4[ebp]
  00039	8b 09		 mov	 ecx, DWORD PTR [ecx]
  0003b	89 08		 mov	 DWORD PTR [eax], ecx
  0003d	8b 45 f8	 mov	 eax, DWORD PTR $T5[ebp]
  00040	83 c0 04	 add	 eax, 4
  00043	89 45 e4	 mov	 DWORD PTR _this$1[ebp], eax
; File D:\Metin2 Server Files\mainline\SRC_2014\Metin2Client\EffectLib\Type.h

; 137  : 		: m_dwColor(r.m_dwColor)

  00046	8b 45 e4	 mov	 eax, DWORD PTR _this$1[ebp]
  00049	8b 4d f4	 mov	 ecx, DWORD PTR $T4[ebp]
  0004c	8b 49 04	 mov	 ecx, DWORD PTR [ecx+4]
  0004f	89 08		 mov	 DWORD PTR [eax], ecx
; File C:\Program Files (x86)\Microsoft Visual Studio\2019\Community\VC\Tools\MSVC\14.28.29333\include\xmemory

; 1547 :         ++_Last;

  00051	8b 45 fc	 mov	 eax, DWORD PTR _this$[ebp]
  00054	8b 40 04	 mov	 eax, DWORD PTR [eax+4]
  00057	83 c0 08	 add	 eax, 8
  0005a	8b 4d fc	 mov	 ecx, DWORD PTR _this$[ebp]
  0005d	89 41 04	 mov	 DWORD PTR [ecx+4], eax

; 1548 :     }

  00060	c9		 leave
  00061	c2 04 00	 ret	 4
??$_Emplace_back@AAV?$CTimeEvent@UDWORDCOLOR@@@@@?$_Uninitialized_backout_al@V?$allocator@V?$CTimeEvent@UDWORDCOLOR@@@@@std@@@std@@QAEXAAV?$CTimeEvent@UDWORDCOLOR@@@@@Z ENDP ; std::_Uninitialized_backout_al<std::allocator<CTimeEvent<DWORDCOLOR> > >::_Emplace_back<CTimeEvent<DWORDCOLOR> &>
_TEXT	ENDS
; Function compile flags: /Odspy
; File C:\Program Files (x86)\Microsoft Visual Studio\2019\Community\VC\Tools\MSVC\14.28.29333\include\xmemory
;	COMDAT ??1?$_Uninitialized_backout_al@V?$allocator@V?$CTimeEvent@UDWORDCOLOR@@@@@std@@@std@@QAE@XZ
_TEXT	SEGMENT
_this$ = -4						; size = 4
??1?$_Uninitialized_backout_al@V?$allocator@V?$CTimeEvent@UDWORDCOLOR@@@@@std@@@std@@QAE@XZ PROC ; std::_Uninitialized_backout_al<std::allocator<CTimeEvent<DWORDCOLOR> > >::~_Uninitialized_backout_al<std::allocator<CTimeEvent<DWORDCOLOR> > >, COMDAT
; _this$ = ecx

; 1540 :     ~_Uninitialized_backout_al() {

  00000	55		 push	 ebp
  00001	8b ec		 mov	 ebp, esp
  00003	51		 push	 ecx
  00004	89 4d fc	 mov	 DWORD PTR _this$[ebp], ecx

; 1541 :         _Destroy_range(_First, _Last, _Al);

  00007	8b 45 fc	 mov	 eax, DWORD PTR _this$[ebp]
  0000a	ff 70 08	 push	 DWORD PTR [eax+8]
  0000d	8b 45 fc	 mov	 eax, DWORD PTR _this$[ebp]
  00010	ff 70 04	 push	 DWORD PTR [eax+4]
  00013	8b 45 fc	 mov	 eax, DWORD PTR _this$[ebp]
  00016	ff 30		 push	 DWORD PTR [eax]
  00018	e8 00 00 00 00	 call	 ??$_Destroy_range@V?$allocator@V?$CTimeEvent@UDWORDCOLOR@@@@@std@@@std@@YAXPAV?$CTimeEvent@UDWORDCOLOR@@@@QAV1@AAV?$allocator@V?$CTimeEvent@UDWORDCOLOR@@@@@0@@Z ; std::_Destroy_range<std::allocator<CTimeEvent<DWORDCOLOR> > >
  0001d	83 c4 0c	 add	 esp, 12			; 0000000cH

; 1542 :     }

  00020	c9		 leave
  00021	c3		 ret	 0
??1?$_Uninitialized_backout_al@V?$allocator@V?$CTimeEvent@UDWORDCOLOR@@@@@std@@@std@@QAE@XZ ENDP ; std::_Uninitialized_backout_al<std::allocator<CTimeEvent<DWORDCOLOR> > >::~_Uninitialized_backout_al<std::allocator<CTimeEvent<DWORDCOLOR> > >
_TEXT	ENDS
; Function compile flags: /Odspy
; File C:\Program Files (x86)\Microsoft Visual Studio\2019\Community\VC\Tools\MSVC\14.28.29333\include\xmemory
; File C:\Program Files (x86)\Microsoft Visual Studio\2019\Community\VC\Tools\MSVC\14.28.29333\include\type_traits
; File C:\Program Files (x86)\Microsoft Visual Studio\2019\Community\VC\Tools\MSVC\14.28.29333\include\xmemory
; File C:\Program Files (x86)\Microsoft Visual Studio\2019\Community\VC\Tools\MSVC\14.28.29333\include\xstddef
; File C:\Program Files (x86)\Microsoft Visual Studio\2019\Community\VC\Tools\MSVC\14.28.29333\include\xmemory
; File C:\Program Files (x86)\Microsoft Visual Studio\2019\Community\VC\Tools\MSVC\14.28.29333\include\vcruntime_new.h
; File C:\Program Files (x86)\Microsoft Visual Studio\2019\Community\VC\Tools\MSVC\14.28.29333\include\type_traits
; File C:\Program Files (x86)\Microsoft Visual Studio\2019\Community\VC\Tools\MSVC\14.28.29333\include\xmemory
;	COMDAT ??$_Uninitialized_copy@PAV?$CTimeEvent@M@@V?$allocator@V?$CTimeEvent@M@@@std@@@std@@YAPAV?$CTimeEvent@M@@QAV1@0PAV1@AAV?$allocator@V?$CTimeEvent@M@@@0@@Z
_TEXT	SEGMENT
__Backout$1 = -44					; size = 12
___formal$ = -32					; size = 4
$T2 = -28						; size = 4
$T3 = -24						; size = 4
$T4 = -20						; size = 4
$T5 = -16						; size = 4
__Ptr$ = -12						; size = 4
__ULast$ = -8						; size = 4
__UFirst$ = -4						; size = 4
__First$ = 8						; size = 4
__Last$ = 12						; size = 4
__Dest$ = 16						; size = 4
__Al$ = 20						; size = 4
??$_Uninitialized_copy@PAV?$CTimeEvent@M@@V?$allocator@V?$CTimeEvent@M@@@std@@@std@@YAPAV?$CTimeEvent@M@@QAV1@0PAV1@AAV?$allocator@V?$CTimeEvent@M@@@0@@Z PROC ; std::_Uninitialized_copy<CTimeEvent<float> *,std::allocator<CTimeEvent<float> > >, COMDAT

; 1565 :     const _InIt _First, const _InIt _Last, _Alloc_ptr_t<_Alloc> _Dest, _Alloc& _Al) {

  00000	55		 push	 ebp
  00001	8b ec		 mov	 ebp, esp
  00003	83 ec 2c	 sub	 esp, 44			; 0000002cH

; 1566 :     // copy [_First, _Last) to raw _Dest, using _Al
; 1567 :     // note: only called internally from elsewhere in the STL
; 1568 :     using _Ptrval = typename _Alloc::value_type*;
; 1569 : 
; 1570 :     auto _UFirst      = _Get_unwrapped(_First);

  00006	8b 45 08	 mov	 eax, DWORD PTR __First$[ebp]
  00009	89 45 fc	 mov	 DWORD PTR __UFirst$[ebp], eax

; 1571 :     const auto _ULast = _Get_unwrapped(_Last);

  0000c	8b 45 0c	 mov	 eax, DWORD PTR __Last$[ebp]
  0000f	89 45 f8	 mov	 DWORD PTR __ULast$[ebp], eax

; 1535 :     _Uninitialized_backout_al(pointer _Dest, _Alloc& _Al_) : _First(_Dest), _Last(_Dest), _Al(_Al_) {}

  00012	8b 45 10	 mov	 eax, DWORD PTR __Dest$[ebp]
  00015	89 45 d4	 mov	 DWORD PTR __Backout$1[ebp], eax
  00018	8b 45 10	 mov	 eax, DWORD PTR __Dest$[ebp]
  0001b	89 45 d8	 mov	 DWORD PTR __Backout$1[ebp+4], eax
  0001e	8b 45 14	 mov	 eax, DWORD PTR __Al$[ebp]
  00021	89 45 dc	 mov	 DWORD PTR __Backout$1[ebp+8], eax

; 1572 : 
; 1573 :     if constexpr (conjunction_v<bool_constant<_Ptr_copy_cat<decltype(_UFirst), _Ptrval>::_Really_trivial>,
; 1574 :                       _Uses_default_construct<_Alloc, _Ptrval, decltype(*_UFirst)>>) {
; 1575 :         _Copy_memmove(_UFirst, _ULast, _Unfancy(_Dest));
; 1576 :         _Dest += _ULast - _UFirst;
; 1577 :     } else {
; 1578 :         _Uninitialized_backout_al<_Alloc> _Backout{_Dest, _Al};
; 1579 :         for (; _UFirst != _ULast; ++_UFirst) {

  00024	eb 09		 jmp	 SHORT $LN4@Uninitiali
$LN2@Uninitiali:
  00026	8b 45 fc	 mov	 eax, DWORD PTR __UFirst$[ebp]
  00029	83 c0 08	 add	 eax, 8
  0002c	89 45 fc	 mov	 DWORD PTR __UFirst$[ebp], eax
$LN4@Uninitiali:
  0002f	8b 45 fc	 mov	 eax, DWORD PTR __UFirst$[ebp]
  00032	3b 45 f8	 cmp	 eax, DWORD PTR __ULast$[ebp]
  00035	74 3f		 je	 SHORT $LN3@Uninitiali
; File C:\Program Files (x86)\Microsoft Visual Studio\2019\Community\VC\Tools\MSVC\14.28.29333\include\type_traits

; 1443 :     return static_cast<_Ty&&>(_Arg);

  00037	8b 45 fc	 mov	 eax, DWORD PTR __UFirst$[ebp]
  0003a	89 45 ec	 mov	 DWORD PTR $T4[ebp], eax
; File C:\Program Files (x86)\Microsoft Visual Studio\2019\Community\VC\Tools\MSVC\14.28.29333\include\xmemory

; 1546 :         allocator_traits<_Alloc>::construct(_Al, _Unfancy(_Last), _STD forward<_Types>(_Vals)...);

  0003d	8b 45 d8	 mov	 eax, DWORD PTR __Backout$1[ebp+4]
  00040	89 45 f4	 mov	 DWORD PTR __Ptr$[ebp], eax
; File C:\Program Files (x86)\Microsoft Visual Studio\2019\Community\VC\Tools\MSVC\14.28.29333\include\xstddef

; 289  :     return _Ptr;

  00043	8b 45 f4	 mov	 eax, DWORD PTR __Ptr$[ebp]
  00046	89 45 f0	 mov	 DWORD PTR $T5[ebp], eax
; File C:\Program Files (x86)\Microsoft Visual Studio\2019\Community\VC\Tools\MSVC\14.28.29333\include\xmemory

; 1546 :         allocator_traits<_Alloc>::construct(_Al, _Unfancy(_Last), _STD forward<_Types>(_Vals)...);

  00049	8b 45 dc	 mov	 eax, DWORD PTR __Backout$1[ebp+8]
  0004c	89 45 e0	 mov	 DWORD PTR ___formal$[ebp], eax
; File C:\Program Files (x86)\Microsoft Visual Studio\2019\Community\VC\Tools\MSVC\14.28.29333\include\vcruntime_new.h

; 169  :         return _Where;

  0004f	8b 45 f0	 mov	 eax, DWORD PTR $T5[ebp]
  00052	89 45 e4	 mov	 DWORD PTR $T2[ebp], eax
; File C:\Program Files (x86)\Microsoft Visual Studio\2019\Community\VC\Tools\MSVC\14.28.29333\include\type_traits

; 1443 :     return static_cast<_Ty&&>(_Arg);

  00055	8b 45 ec	 mov	 eax, DWORD PTR $T4[ebp]
  00058	89 45 e8	 mov	 DWORD PTR $T3[ebp], eax
; File C:\Program Files (x86)\Microsoft Visual Studio\2019\Community\VC\Tools\MSVC\14.28.29333\include\xmemory

; 701  :         ::new (const_cast<void*>(static_cast<const volatile void*>(_Ptr))) _Objty(_STD forward<_Types>(_Args)...);

  0005b	8b 45 e8	 mov	 eax, DWORD PTR $T3[ebp]
  0005e	8b 08		 mov	 ecx, DWORD PTR [eax]
  00060	8b 40 04	 mov	 eax, DWORD PTR [eax+4]
  00063	8b 55 e4	 mov	 edx, DWORD PTR $T2[ebp]
  00066	89 0a		 mov	 DWORD PTR [edx], ecx
  00068	89 42 04	 mov	 DWORD PTR [edx+4], eax

; 1547 :         ++_Last;

  0006b	8b 45 d8	 mov	 eax, DWORD PTR __Backout$1[ebp+4]
  0006e	83 c0 08	 add	 eax, 8
  00071	89 45 d8	 mov	 DWORD PTR __Backout$1[ebp+4], eax

; 1580 :             _Backout._Emplace_back(*_UFirst);
; 1581 :         }

  00074	eb b0		 jmp	 SHORT $LN2@Uninitiali
$LN3@Uninitiali:

; 1551 :         _First = _Last;

  00076	8b 45 d8	 mov	 eax, DWORD PTR __Backout$1[ebp+4]
  00079	89 45 d4	 mov	 DWORD PTR __Backout$1[ebp], eax

; 1552 :         return _Last;

  0007c	8b 45 d8	 mov	 eax, DWORD PTR __Backout$1[ebp+4]
  0007f	89 45 10	 mov	 DWORD PTR __Dest$[ebp], eax

; 1541 :         _Destroy_range(_First, _Last, _Al);

  00082	ff 75 dc	 push	 DWORD PTR __Backout$1[ebp+8]
  00085	ff 75 d8	 push	 DWORD PTR __Backout$1[ebp+4]
  00088	ff 75 d4	 push	 DWORD PTR __Backout$1[ebp]
  0008b	e8 00 00 00 00	 call	 ??$_Destroy_range@V?$allocator@V?$CTimeEvent@M@@@std@@@std@@YAXPAV?$CTimeEvent@M@@QAV1@AAV?$allocator@V?$CTimeEvent@M@@@0@@Z ; std::_Destroy_range<std::allocator<CTimeEvent<float> > >
  00090	83 c4 0c	 add	 esp, 12			; 0000000cH

; 1582 : 
; 1583 :         _Dest = _Backout._Release();
; 1584 :     }
; 1585 : 
; 1586 :     return _Dest;

  00093	8b 45 10	 mov	 eax, DWORD PTR __Dest$[ebp]

; 1587 : }

  00096	c9		 leave
  00097	c3		 ret	 0
??$_Uninitialized_copy@PAV?$CTimeEvent@M@@V?$allocator@V?$CTimeEvent@M@@@std@@@std@@YAPAV?$CTimeEvent@M@@QAV1@0PAV1@AAV?$allocator@V?$CTimeEvent@M@@@0@@Z ENDP ; std::_Uninitialized_copy<CTimeEvent<float> *,std::allocator<CTimeEvent<float> > >
_TEXT	ENDS
; Function compile flags: /Odspy
; File C:\Program Files (x86)\Microsoft Visual Studio\2019\Community\VC\Tools\MSVC\14.28.29333\include\xmemory
;	COMDAT ??$_Uninitialized_copy@PAV?$CTimeEvent@UDWORDCOLOR@@@@V?$allocator@V?$CTimeEvent@UDWORDCOLOR@@@@@std@@@std@@YAPAV?$CTimeEvent@UDWORDCOLOR@@@@QAV1@0PAV1@AAV?$allocator@V?$CTimeEvent@UDWORDCOLOR@@@@@0@@Z
_TEXT	SEGMENT
__Backout$2 = -32					; size = 12
__ULast$ = -20						; size = 4
__UFirst$ = -16						; size = 4
__$EHRec$ = -12						; size = 12
__First$ = 8						; size = 4
__Last$ = 12						; size = 4
__Dest$ = 16						; size = 4
__Al$ = 20						; size = 4
??$_Uninitialized_copy@PAV?$CTimeEvent@UDWORDCOLOR@@@@V?$allocator@V?$CTimeEvent@UDWORDCOLOR@@@@@std@@@std@@YAPAV?$CTimeEvent@UDWORDCOLOR@@@@QAV1@0PAV1@AAV?$allocator@V?$CTimeEvent@UDWORDCOLOR@@@@@0@@Z PROC ; std::_Uninitialized_copy<CTimeEvent<DWORDCOLOR> *,std::allocator<CTimeEvent<DWORDCOLOR> > >, COMDAT

; 1565 :     const _InIt _First, const _InIt _Last, _Alloc_ptr_t<_Alloc> _Dest, _Alloc& _Al) {

  00000	55		 push	 ebp
  00001	8b ec		 mov	 ebp, esp
  00003	6a ff		 push	 -1
  00005	68 00 00 00 00	 push	 __ehhandler$??$_Uninitialized_copy@PAV?$CTimeEvent@UDWORDCOLOR@@@@V?$allocator@V?$CTimeEvent@UDWORDCOLOR@@@@@std@@@std@@YAPAV?$CTimeEvent@UDWORDCOLOR@@@@QAV1@0PAV1@AAV?$allocator@V?$CTimeEvent@UDWORDCOLOR@@@@@0@@Z
  0000a	64 a1 00 00 00
	00		 mov	 eax, DWORD PTR fs:0
  00010	50		 push	 eax
  00011	83 ec 14	 sub	 esp, 20			; 00000014H
  00014	a1 00 00 00 00	 mov	 eax, DWORD PTR ___security_cookie
  00019	33 c5		 xor	 eax, ebp
  0001b	50		 push	 eax
  0001c	8d 45 f4	 lea	 eax, DWORD PTR __$EHRec$[ebp]
  0001f	64 a3 00 00 00
	00		 mov	 DWORD PTR fs:0, eax

; 1566 :     // copy [_First, _Last) to raw _Dest, using _Al
; 1567 :     // note: only called internally from elsewhere in the STL
; 1568 :     using _Ptrval = typename _Alloc::value_type*;
; 1569 : 
; 1570 :     auto _UFirst      = _Get_unwrapped(_First);

  00025	8b 45 08	 mov	 eax, DWORD PTR __First$[ebp]
  00028	89 45 f0	 mov	 DWORD PTR __UFirst$[ebp], eax

; 1571 :     const auto _ULast = _Get_unwrapped(_Last);

  0002b	8b 45 0c	 mov	 eax, DWORD PTR __Last$[ebp]
  0002e	89 45 ec	 mov	 DWORD PTR __ULast$[ebp], eax

; 1535 :     _Uninitialized_backout_al(pointer _Dest, _Alloc& _Al_) : _First(_Dest), _Last(_Dest), _Al(_Al_) {}

  00031	8b 45 10	 mov	 eax, DWORD PTR __Dest$[ebp]
  00034	89 45 e0	 mov	 DWORD PTR __Backout$2[ebp], eax
  00037	8b 45 10	 mov	 eax, DWORD PTR __Dest$[ebp]
  0003a	89 45 e4	 mov	 DWORD PTR __Backout$2[ebp+4], eax
  0003d	8b 45 14	 mov	 eax, DWORD PTR __Al$[ebp]
  00040	89 45 e8	 mov	 DWORD PTR __Backout$2[ebp+8], eax

; 1572 : 
; 1573 :     if constexpr (conjunction_v<bool_constant<_Ptr_copy_cat<decltype(_UFirst), _Ptrval>::_Really_trivial>,
; 1574 :                       _Uses_default_construct<_Alloc, _Ptrval, decltype(*_UFirst)>>) {
; 1575 :         _Copy_memmove(_UFirst, _ULast, _Unfancy(_Dest));
; 1576 :         _Dest += _ULast - _UFirst;
; 1577 :     } else {
; 1578 :         _Uninitialized_backout_al<_Alloc> _Backout{_Dest, _Al};

  00043	83 65 fc 00	 and	 DWORD PTR __$EHRec$[ebp+8], 0

; 1579 :         for (; _UFirst != _ULast; ++_UFirst) {

  00047	eb 09		 jmp	 SHORT $LN4@Uninitiali
$LN2@Uninitiali:
  00049	8b 45 f0	 mov	 eax, DWORD PTR __UFirst$[ebp]
  0004c	83 c0 08	 add	 eax, 8
  0004f	89 45 f0	 mov	 DWORD PTR __UFirst$[ebp], eax
$LN4@Uninitiali:
  00052	8b 45 f0	 mov	 eax, DWORD PTR __UFirst$[ebp]
  00055	3b 45 ec	 cmp	 eax, DWORD PTR __ULast$[ebp]
  00058	74 0d		 je	 SHORT $LN3@Uninitiali

; 1580 :             _Backout._Emplace_back(*_UFirst);

  0005a	ff 75 f0	 push	 DWORD PTR __UFirst$[ebp]
  0005d	8d 4d e0	 lea	 ecx, DWORD PTR __Backout$2[ebp]
  00060	e8 00 00 00 00	 call	 ??$_Emplace_back@AAV?$CTimeEvent@UDWORDCOLOR@@@@@?$_Uninitialized_backout_al@V?$allocator@V?$CTimeEvent@UDWORDCOLOR@@@@@std@@@std@@QAEXAAV?$CTimeEvent@UDWORDCOLOR@@@@@Z ; std::_Uninitialized_backout_al<std::allocator<CTimeEvent<DWORDCOLOR> > >::_Emplace_back<CTimeEvent<DWORDCOLOR> &>

; 1581 :         }

  00065	eb e2		 jmp	 SHORT $LN2@Uninitiali
$LN3@Uninitiali:

; 1551 :         _First = _Last;

  00067	8b 45 e4	 mov	 eax, DWORD PTR __Backout$2[ebp+4]
  0006a	89 45 e0	 mov	 DWORD PTR __Backout$2[ebp], eax

; 1552 :         return _Last;

  0006d	8b 45 e4	 mov	 eax, DWORD PTR __Backout$2[ebp+4]
  00070	89 45 10	 mov	 DWORD PTR __Dest$[ebp], eax

; 1582 : 
; 1583 :         _Dest = _Backout._Release();
; 1584 :     }

  00073	83 4d fc ff	 or	 DWORD PTR __$EHRec$[ebp+8], -1

; 1541 :         _Destroy_range(_First, _Last, _Al);

  00077	ff 75 e8	 push	 DWORD PTR __Backout$2[ebp+8]
  0007a	ff 75 e4	 push	 DWORD PTR __Backout$2[ebp+4]
  0007d	ff 75 e0	 push	 DWORD PTR __Backout$2[ebp]
  00080	e8 00 00 00 00	 call	 ??$_Destroy_range@V?$allocator@V?$CTimeEvent@UDWORDCOLOR@@@@@std@@@std@@YAXPAV?$CTimeEvent@UDWORDCOLOR@@@@QAV1@AAV?$allocator@V?$CTimeEvent@UDWORDCOLOR@@@@@0@@Z ; std::_Destroy_range<std::allocator<CTimeEvent<DWORDCOLOR> > >
  00085	83 c4 0c	 add	 esp, 12			; 0000000cH

; 1585 : 
; 1586 :     return _Dest;

  00088	8b 45 10	 mov	 eax, DWORD PTR __Dest$[ebp]

; 1587 : }

  0008b	8b 4d f4	 mov	 ecx, DWORD PTR __$EHRec$[ebp]
  0008e	64 89 0d 00 00
	00 00		 mov	 DWORD PTR fs:0, ecx
  00095	59		 pop	 ecx
  00096	c9		 leave
  00097	c3		 ret	 0
_TEXT	ENDS
;	COMDAT text$x
text$x	SEGMENT
__unwindfunclet$??$_Uninitialized_copy@PAV?$CTimeEvent@UDWORDCOLOR@@@@V?$allocator@V?$CTimeEvent@UDWORDCOLOR@@@@@std@@@std@@YAPAV?$CTimeEvent@UDWORDCOLOR@@@@QAV1@0PAV1@AAV?$allocator@V?$CTimeEvent@UDWORDCOLOR@@@@@0@@Z$0:
  00000	8d 4d e0	 lea	 ecx, DWORD PTR __Backout$2[ebp]
  00003	e9 00 00 00 00	 jmp	 ??1?$_Uninitialized_backout_al@V?$allocator@V?$CTimeEvent@UDWORDCOLOR@@@@@std@@@std@@QAE@XZ ; std::_Uninitialized_backout_al<std::allocator<CTimeEvent<DWORDCOLOR> > >::~_Uninitialized_backout_al<std::allocator<CTimeEvent<DWORDCOLOR> > >
  00008	cc		 int	 3
  00009	cc		 int	 3
  0000a	cc		 int	 3
  0000b	cc		 int	 3
  0000c	cc		 int	 3
__ehhandler$??$_Uninitialized_copy@PAV?$CTimeEvent@UDWORDCOLOR@@@@V?$allocator@V?$CTimeEvent@UDWORDCOLOR@@@@@std@@@std@@YAPAV?$CTimeEvent@UDWORDCOLOR@@@@QAV1@0PAV1@AAV?$allocator@V?$CTimeEvent@UDWORDCOLOR@@@@@0@@Z:
  0000d	90		 npad	 1
  0000e	90		 npad	 1
  0000f	8b 54 24 08	 mov	 edx, DWORD PTR [esp+8]
  00013	8d 42 0c	 lea	 eax, DWORD PTR [edx+12]
  00016	8b 4a e8	 mov	 ecx, DWORD PTR [edx-24]
  00019	33 c8		 xor	 ecx, eax
  0001b	e8 00 00 00 00	 call	 @__security_check_cookie@4
  00020	b8 00 00 00 00	 mov	 eax, OFFSET __ehfuncinfo$??$_Uninitialized_copy@PAV?$CTimeEvent@UDWORDCOLOR@@@@V?$allocator@V?$CTimeEvent@UDWORDCOLOR@@@@@std@@@std@@YAPAV?$CTimeEvent@UDWORDCOLOR@@@@QAV1@0PAV1@AAV?$allocator@V?$CTimeEvent@UDWORDCOLOR@@@@@0@@Z
  00025	e9 00 00 00 00	 jmp	 ___CxxFrameHandler3
text$x	ENDS
??$_Uninitialized_copy@PAV?$CTimeEvent@UDWORDCOLOR@@@@V?$allocator@V?$CTimeEvent@UDWORDCOLOR@@@@@std@@@std@@YAPAV?$CTimeEvent@UDWORDCOLOR@@@@QAV1@0PAV1@AAV?$allocator@V?$CTimeEvent@UDWORDCOLOR@@@@@0@@Z ENDP ; std::_Uninitialized_copy<CTimeEvent<DWORDCOLOR> *,std::allocator<CTimeEvent<DWORDCOLOR> > >
; Function compile flags: /Odspy
; File C:\Program Files (x86)\Microsoft Visual Studio\2019\Community\VC\Tools\MSVC\14.28.29333\include\xmemory
;	COMDAT ??$_Refancy@PAPAVCGraphicImage@@$0A@@std@@YAPAPAVCGraphicImage@@PAPAV1@@Z
_TEXT	SEGMENT
__Ptr$ = 8						; size = 4
??$_Refancy@PAPAVCGraphicImage@@$0A@@std@@YAPAPAVCGraphicImage@@PAPAV1@@Z PROC ; std::_Refancy<CGraphicImage * *,0>, COMDAT

; 261  : _Pointer _Refancy(_Pointer _Ptr) noexcept {

  00000	55		 push	 ebp
  00001	8b ec		 mov	 ebp, esp

; 262  :     return _Ptr;

  00003	8b 45 08	 mov	 eax, DWORD PTR __Ptr$[ebp]

; 263  : }

  00006	5d		 pop	 ebp
  00007	c3		 ret	 0
??$_Refancy@PAPAVCGraphicImage@@$0A@@std@@YAPAPAVCGraphicImage@@PAPAV1@@Z ENDP ; std::_Refancy<CGraphicImage * *,0>
_TEXT	ENDS
; Function compile flags: /Odspy
; File C:\Program Files (x86)\Microsoft Visual Studio\2019\Community\VC\Tools\MSVC\14.28.29333\include\xutility
;	COMDAT ??$_Copy_memmove@PAPAVCGraphicImage@@PAPAV1@@std@@YAPAPAVCGraphicImage@@PAPAV1@00@Z
_TEXT	SEGMENT
__Last_ch$ = -16					; size = 4
__Count$ = -12						; size = 4
__Dest_ch$ = -8						; size = 4
__First_ch$ = -4					; size = 4
__First$ = 8						; size = 4
__Last$ = 12						; size = 4
__Dest$ = 16						; size = 4
??$_Copy_memmove@PAPAVCGraphicImage@@PAPAV1@@std@@YAPAPAVCGraphicImage@@PAPAV1@00@Z PROC ; std::_Copy_memmove<CGraphicImage * *,CGraphicImage * *>, COMDAT

; 4360 : _OutIt _Copy_memmove(_InIt _First, _InIt _Last, _OutIt _Dest) {

  00000	55		 push	 ebp
  00001	8b ec		 mov	 ebp, esp
  00003	83 ec 10	 sub	 esp, 16			; 00000010H

; 4361 :     const char* const _First_ch = const_cast<const char*>(reinterpret_cast<const volatile char*>(_First));

  00006	8b 45 08	 mov	 eax, DWORD PTR __First$[ebp]
  00009	89 45 fc	 mov	 DWORD PTR __First_ch$[ebp], eax

; 4362 :     const char* const _Last_ch  = const_cast<const char*>(reinterpret_cast<const volatile char*>(_Last));

  0000c	8b 45 0c	 mov	 eax, DWORD PTR __Last$[ebp]
  0000f	89 45 f0	 mov	 DWORD PTR __Last_ch$[ebp], eax

; 4363 :     char* const _Dest_ch        = const_cast<char*>(reinterpret_cast<volatile char*>(_Dest));

  00012	8b 45 10	 mov	 eax, DWORD PTR __Dest$[ebp]
  00015	89 45 f8	 mov	 DWORD PTR __Dest_ch$[ebp], eax

; 4364 :     const auto _Count           = static_cast<size_t>(_Last_ch - _First_ch);

  00018	8b 45 f0	 mov	 eax, DWORD PTR __Last_ch$[ebp]
  0001b	2b 45 fc	 sub	 eax, DWORD PTR __First_ch$[ebp]
  0001e	89 45 f4	 mov	 DWORD PTR __Count$[ebp], eax

; 4365 :     _CSTD memmove(_Dest_ch, _First_ch, _Count);

  00021	ff 75 f4	 push	 DWORD PTR __Count$[ebp]
  00024	ff 75 fc	 push	 DWORD PTR __First_ch$[ebp]
  00027	ff 75 f8	 push	 DWORD PTR __Dest_ch$[ebp]
  0002a	e8 00 00 00 00	 call	 _memmove
  0002f	83 c4 0c	 add	 esp, 12			; 0000000cH

; 4366 :     return reinterpret_cast<_OutIt>(_Dest_ch + _Count);

  00032	8b 45 f8	 mov	 eax, DWORD PTR __Dest_ch$[ebp]
  00035	03 45 f4	 add	 eax, DWORD PTR __Count$[ebp]

; 4367 : }

  00038	c9		 leave
  00039	c3		 ret	 0
??$_Copy_memmove@PAPAVCGraphicImage@@PAPAV1@@std@@YAPAPAVCGraphicImage@@PAPAV1@00@Z ENDP ; std::_Copy_memmove<CGraphicImage * *,CGraphicImage * *>
_TEXT	ENDS
; Function compile flags: /Odspy
; File C:\Program Files (x86)\Microsoft Visual Studio\2019\Community\VC\Tools\MSVC\14.28.29333\include\xmemory
; File C:\Program Files (x86)\Microsoft Visual Studio\2019\Community\VC\Tools\MSVC\14.28.29333\include\xstddef
; File C:\Program Files (x86)\Microsoft Visual Studio\2019\Community\VC\Tools\MSVC\14.28.29333\include\xmemory
;	COMDAT ??$_Uninitialized_move@PAPAVCGraphicImage@@V?$allocator@PAVCGraphicImage@@@std@@@std@@YAPAPAVCGraphicImage@@QAPAV1@0PAPAV1@AAV?$allocator@PAVCGraphicImage@@@0@@Z
_TEXT	SEGMENT
$T1 = -12						; size = 4
__UFirst$ = -8						; size = 4
__ULast$ = -4						; size = 4
__First$ = 8						; size = 4
__Last$ = 12						; size = 4
__Dest$ = 16						; size = 4
__Al$ = 20						; size = 4
??$_Uninitialized_move@PAPAVCGraphicImage@@V?$allocator@PAVCGraphicImage@@@std@@@std@@YAPAPAVCGraphicImage@@QAPAV1@0PAPAV1@AAV?$allocator@PAVCGraphicImage@@@0@@Z PROC ; std::_Uninitialized_move<CGraphicImage * *,std::allocator<CGraphicImage *> >, COMDAT

; 1685 :     const _InIt _First, const _InIt _Last, _Alloc_ptr_t<_Alloc> _Dest, _Alloc& _Al) {

  00000	55		 push	 ebp
  00001	8b ec		 mov	 ebp, esp
  00003	83 ec 0c	 sub	 esp, 12			; 0000000cH

; 1686 :     // move [_First, _Last) to raw _Dest, using _Al
; 1687 :     // note: only called internally from elsewhere in the STL
; 1688 :     using _Ptrval     = typename _Alloc::value_type*;
; 1689 :     auto _UFirst      = _Get_unwrapped(_First);

  00006	8b 45 08	 mov	 eax, DWORD PTR __First$[ebp]
  00009	89 45 f8	 mov	 DWORD PTR __UFirst$[ebp], eax

; 1690 :     const auto _ULast = _Get_unwrapped(_Last);

  0000c	8b 45 0c	 mov	 eax, DWORD PTR __Last$[ebp]
  0000f	89 45 fc	 mov	 DWORD PTR __ULast$[ebp], eax
; File C:\Program Files (x86)\Microsoft Visual Studio\2019\Community\VC\Tools\MSVC\14.28.29333\include\xstddef

; 289  :     return _Ptr;

  00012	8b 45 10	 mov	 eax, DWORD PTR __Dest$[ebp]
  00015	89 45 f4	 mov	 DWORD PTR $T1[ebp], eax
; File C:\Program Files (x86)\Microsoft Visual Studio\2019\Community\VC\Tools\MSVC\14.28.29333\include\xmemory

; 1693 :         _Copy_memmove(_UFirst, _ULast, _Unfancy(_Dest));

  00018	ff 75 f4	 push	 DWORD PTR $T1[ebp]
  0001b	ff 75 fc	 push	 DWORD PTR __ULast$[ebp]
  0001e	ff 75 f8	 push	 DWORD PTR __UFirst$[ebp]
  00021	e8 00 00 00 00	 call	 ??$_Copy_memmove@PAPAVCGraphicImage@@PAPAV1@@std@@YAPAPAVCGraphicImage@@PAPAV1@00@Z ; std::_Copy_memmove<CGraphicImage * *,CGraphicImage * *>
  00026	83 c4 0c	 add	 esp, 12			; 0000000cH

; 1694 :         return _Dest + (_ULast - _UFirst);

  00029	8b 45 fc	 mov	 eax, DWORD PTR __ULast$[ebp]
  0002c	2b 45 f8	 sub	 eax, DWORD PTR __UFirst$[ebp]
  0002f	c1 f8 02	 sar	 eax, 2
  00032	8b 4d 10	 mov	 ecx, DWORD PTR __Dest$[ebp]
  00035	8d 04 81	 lea	 eax, DWORD PTR [ecx+eax*4]

; 1695 :     } else {
; 1696 :         _Uninitialized_backout_al<_Alloc> _Backout{_Dest, _Al};
; 1697 :         for (; _UFirst != _ULast; ++_UFirst) {
; 1698 :             _Backout._Emplace_back(_STD move(*_UFirst));
; 1699 :         }
; 1700 : 
; 1701 :         return _Backout._Release();
; 1702 :     }
; 1703 : }

  00038	c9		 leave
  00039	c3		 ret	 0
??$_Uninitialized_move@PAPAVCGraphicImage@@V?$allocator@PAVCGraphicImage@@@std@@@std@@YAPAPAVCGraphicImage@@QAPAV1@0PAPAV1@AAV?$allocator@PAVCGraphicImage@@@0@@Z ENDP ; std::_Uninitialized_move<CGraphicImage * *,std::allocator<CGraphicImage *> >
_TEXT	ENDS
; Function compile flags: /Odspy
; File C:\Program Files (x86)\Microsoft Visual Studio\2019\Community\VC\Tools\MSVC\14.28.29333\include\vector
; File C:\Program Files (x86)\Microsoft Visual Studio\2019\Community\VC\Tools\MSVC\14.28.29333\include\xutility
; File C:\Program Files (x86)\Microsoft Visual Studio\2019\Community\VC\Tools\MSVC\14.28.29333\include\xmemory
; File C:\Program Files (x86)\Microsoft Visual Studio\2019\Community\VC\Tools\MSVC\14.28.29333\include\vector
; File C:\Program Files (x86)\Microsoft Visual Studio\2019\Community\VC\Tools\MSVC\14.28.29333\include\xutility
; File C:\Program Files (x86)\Microsoft Visual Studio\2019\Community\VC\Tools\MSVC\14.28.29333\include\vector
; File C:\Program Files (x86)\Microsoft Visual Studio\2019\Community\VC\Tools\MSVC\14.28.29333\include\xutility
; File C:\Program Files (x86)\Microsoft Visual Studio\2019\Community\VC\Tools\MSVC\14.28.29333\include\vector
; File C:\Program Files (x86)\Microsoft Visual Studio\2019\Community\VC\Tools\MSVC\14.28.29333\include\xmemory
; File C:\Program Files (x86)\Microsoft Visual Studio\2019\Community\VC\Tools\MSVC\14.28.29333\include\vector
; File C:\Program Files (x86)\Microsoft Visual Studio\2019\Community\VC\Tools\MSVC\14.28.29333\include\xutility
; File C:\Program Files (x86)\Microsoft Visual Studio\2019\Community\VC\Tools\MSVC\14.28.29333\include\vector
; File C:\Program Files (x86)\Microsoft Visual Studio\2019\Community\VC\Tools\MSVC\14.28.29333\include\xmemory
; File C:\Program Files (x86)\Microsoft Visual Studio\2019\Community\VC\Tools\MSVC\14.28.29333\include\vector
;	COMDAT ??$_Assign_range@PAV?$CTimeEvent@M@@@?$vector@V?$CTimeEvent@M@@V?$allocator@V?$CTimeEvent@M@@@std@@@std@@AAEXPAV?$CTimeEvent@M@@0Uforward_iterator_tag@1@@Z
_TEXT	SEGMENT
__Last$ = -84						; size = 4
$T1 = -80						; size = 4
$T2 = -76						; size = 4
__Dest$ = -72						; size = 4
$T3 = -68						; size = 4
$T4 = -64						; size = 4
__Oldcapacity$5 = -60					; size = 4
__Myend$ = -56						; size = 4
__Newlast$6 = -52					; size = 4
__Mid$7 = -48						; size = 4
__Dest$ = -44						; size = 4
__Dest$ = -40						; size = 4
__First$ = -36						; size = 4
__Oldsize$8 = -32					; size = 4
__My_data$ = -28					; size = 4
_this$ = -24						; size = 4
__First$ = -20						; size = 4
__Newsize$ = -16					; size = 4
__First$ = -12						; size = 4
__Mylast$ = -8						; size = 4
__Myfirst$ = -4						; size = 4
__First$ = 8						; size = 4
__Last$ = 12						; size = 4
___formal$ = 16						; size = 1
??$_Assign_range@PAV?$CTimeEvent@M@@@?$vector@V?$CTimeEvent@M@@V?$allocator@V?$CTimeEvent@M@@@std@@@std@@AAEXPAV?$CTimeEvent@M@@0Uforward_iterator_tag@1@@Z PROC ; std::vector<CTimeEvent<float>,std::allocator<CTimeEvent<float> > >::_Assign_range<CTimeEvent<float> *>, COMDAT
; _this$ = ecx

; 1094 :     void _Assign_range(_Iter _First, _Iter _Last, forward_iterator_tag) { // assign forward range [_First, _Last)

  00000	55		 push	 ebp
  00001	8b ec		 mov	 ebp, esp
  00003	83 ec 54	 sub	 esp, 84			; 00000054H
  00006	89 4d e8	 mov	 DWORD PTR _this$[ebp], ecx
; File C:\Program Files (x86)\Microsoft Visual Studio\2019\Community\VC\Tools\MSVC\14.28.29333\include\xutility

; 1794 :         return _Last - _First; // assume the iterator will do debug checking

  00009	8b 45 0c	 mov	 eax, DWORD PTR __Last$[ebp]
  0000c	2b 45 08	 sub	 eax, DWORD PTR __First$[ebp]
  0000f	c1 f8 03	 sar	 eax, 3
; File C:\Program Files (x86)\Microsoft Visual Studio\2019\Community\VC\Tools\MSVC\14.28.29333\include\xmemory

; 997  :     return _Len;

  00012	89 45 f0	 mov	 DWORD PTR __Newsize$[ebp], eax
; File C:\Program Files (x86)\Microsoft Visual Studio\2019\Community\VC\Tools\MSVC\14.28.29333\include\vector

; 1096 :         auto& _My_data      = _Mypair._Myval2;

  00015	8b 45 e8	 mov	 eax, DWORD PTR _this$[ebp]
  00018	89 45 e4	 mov	 DWORD PTR __My_data$[ebp], eax

; 1097 :         pointer& _Myfirst   = _My_data._Myfirst;

  0001b	8b 45 e4	 mov	 eax, DWORD PTR __My_data$[ebp]
  0001e	89 45 fc	 mov	 DWORD PTR __Myfirst$[ebp], eax

; 1098 :         pointer& _Mylast    = _My_data._Mylast;

  00021	8b 45 e4	 mov	 eax, DWORD PTR __My_data$[ebp]
  00024	83 c0 04	 add	 eax, 4
  00027	89 45 f8	 mov	 DWORD PTR __Mylast$[ebp], eax

; 1099 :         pointer& _Myend     = _My_data._Myend;

  0002a	8b 45 e4	 mov	 eax, DWORD PTR __My_data$[ebp]
  0002d	83 c0 08	 add	 eax, 8
  00030	89 45 c8	 mov	 DWORD PTR __Myend$[ebp], eax

; 1100 : 
; 1101 :         _My_data._Orphan_all();
; 1102 : 
; 1103 : #if _HAS_IF_CONSTEXPR
; 1104 :         if constexpr (conjunction_v<bool_constant<_Ptr_copy_cat<_Iter, _Ty*>::_Trivially_copyable>,
; 1105 :                           _Uses_default_construct<_Alty, _Ty*, decltype(*_First)>,
; 1106 :                           _Uses_default_destroy<_Alty, _Ty*>>) {
; 1107 :             const auto _Oldcapacity = static_cast<size_type>(_Myend - _Myfirst);
; 1108 :             if (_Newsize > _Oldcapacity) {
; 1109 :                 _Clear_and_reserve_geometric(_Newsize);
; 1110 :             }
; 1111 : 
; 1112 :             _Mylast = _Refancy<pointer>(_Copy_memmove(_First, _Last, _Unfancy(_Myfirst)));
; 1113 :         } else
; 1114 : #endif // _HAS_IF_CONSTEXPR
; 1115 :         {
; 1116 :             auto _Oldsize = static_cast<size_type>(_Mylast - _Myfirst);

  00033	8b 45 f8	 mov	 eax, DWORD PTR __Mylast$[ebp]
  00036	8b 4d fc	 mov	 ecx, DWORD PTR __Myfirst$[ebp]
  00039	8b 00		 mov	 eax, DWORD PTR [eax]
  0003b	2b 01		 sub	 eax, DWORD PTR [ecx]
  0003d	c1 f8 03	 sar	 eax, 3
  00040	89 45 e0	 mov	 DWORD PTR __Oldsize$8[ebp], eax

; 1117 : 
; 1118 :             if (_Newsize > _Oldsize) {

  00043	8b 45 f0	 mov	 eax, DWORD PTR __Newsize$[ebp]
  00046	3b 45 e0	 cmp	 eax, DWORD PTR __Oldsize$8[ebp]
  00049	0f 86 aa 00 00
	00		 jbe	 $LN2@Assign_ran

; 1119 :                 const auto _Oldcapacity = static_cast<size_type>(_Myend - _Myfirst);

  0004f	8b 45 c8	 mov	 eax, DWORD PTR __Myend$[ebp]
  00052	8b 4d fc	 mov	 ecx, DWORD PTR __Myfirst$[ebp]
  00055	8b 00		 mov	 eax, DWORD PTR [eax]
  00057	2b 01		 sub	 eax, DWORD PTR [ecx]
  00059	c1 f8 03	 sar	 eax, 3
  0005c	89 45 c4	 mov	 DWORD PTR __Oldcapacity$5[ebp], eax

; 1120 :                 if (_Newsize > _Oldcapacity) { // reallocate

  0005f	8b 45 f0	 mov	 eax, DWORD PTR __Newsize$[ebp]
  00062	3b 45 c4	 cmp	 eax, DWORD PTR __Oldcapacity$5[ebp]
  00065	76 0f		 jbe	 SHORT $LN4@Assign_ran

; 1121 :                     _Clear_and_reserve_geometric(_Newsize);

  00067	ff 75 f0	 push	 DWORD PTR __Newsize$[ebp]
  0006a	8b 4d e8	 mov	 ecx, DWORD PTR _this$[ebp]
  0006d	e8 00 00 00 00	 call	 ?_Clear_and_reserve_geometric@?$vector@V?$CTimeEvent@M@@V?$allocator@V?$CTimeEvent@M@@@std@@@std@@AAEXI@Z ; std::vector<CTimeEvent<float>,std::allocator<CTimeEvent<float> > >::_Clear_and_reserve_geometric

; 1122 :                     _Oldsize = 0;

  00072	83 65 e0 00	 and	 DWORD PTR __Oldsize$8[ebp], 0
$LN4@Assign_ran:

; 1126 :                 const _Iter _Mid = _STD next(_First, static_cast<difference_type>(_Oldsize));

  00076	8b 45 08	 mov	 eax, DWORD PTR __First$[ebp]
  00079	89 45 dc	 mov	 DWORD PTR __First$[ebp], eax
; File C:\Program Files (x86)\Microsoft Visual Studio\2019\Community\VC\Tools\MSVC\14.28.29333\include\xutility

; 1714 :         _Where += _Off;

  0007c	8b 45 e0	 mov	 eax, DWORD PTR __Oldsize$8[ebp]
  0007f	8b 4d dc	 mov	 ecx, DWORD PTR __First$[ebp]
  00082	8d 04 c1	 lea	 eax, DWORD PTR [ecx+eax*8]
  00085	89 45 dc	 mov	 DWORD PTR __First$[ebp], eax
; File C:\Program Files (x86)\Microsoft Visual Studio\2019\Community\VC\Tools\MSVC\14.28.29333\include\vector

; 1126 :                 const _Iter _Mid = _STD next(_First, static_cast<difference_type>(_Oldsize));

  00088	8b 45 dc	 mov	 eax, DWORD PTR __First$[ebp]
  0008b	89 45 d0	 mov	 DWORD PTR __Mid$7[ebp], eax

; 1127 :                 _Copy_unchecked(_First, _Mid, _Myfirst);

  0008e	8b 45 fc	 mov	 eax, DWORD PTR __Myfirst$[ebp]
  00091	8b 00		 mov	 eax, DWORD PTR [eax]
  00093	89 45 d8	 mov	 DWORD PTR __Dest$[ebp], eax
  00096	8b 45 08	 mov	 eax, DWORD PTR __First$[ebp]
  00099	89 45 f4	 mov	 DWORD PTR __First$[ebp], eax
; File C:\Program Files (x86)\Microsoft Visual Studio\2019\Community\VC\Tools\MSVC\14.28.29333\include\xutility

; 4392 :     for (; _First != _Last; ++_Dest, (void) ++_First) {

  0009c	eb 12		 jmp	 SHORT $LN68@Assign_ran
$LN66@Assign_ran:
  0009e	8b 45 d8	 mov	 eax, DWORD PTR __Dest$[ebp]
  000a1	83 c0 08	 add	 eax, 8
  000a4	89 45 d8	 mov	 DWORD PTR __Dest$[ebp], eax
  000a7	8b 45 f4	 mov	 eax, DWORD PTR __First$[ebp]
  000aa	83 c0 08	 add	 eax, 8
  000ad	89 45 f4	 mov	 DWORD PTR __First$[ebp], eax
$LN68@Assign_ran:
  000b0	8b 45 f4	 mov	 eax, DWORD PTR __First$[ebp]
  000b3	3b 45 d0	 cmp	 eax, DWORD PTR __Mid$7[ebp]
  000b6	74 12		 je	 SHORT $LN65@Assign_ran

; 4393 :         *_Dest = *_First;

  000b8	8b 45 f4	 mov	 eax, DWORD PTR __First$[ebp]
  000bb	8b 08		 mov	 ecx, DWORD PTR [eax]
  000bd	8b 40 04	 mov	 eax, DWORD PTR [eax+4]
  000c0	8b 55 d8	 mov	 edx, DWORD PTR __Dest$[ebp]
  000c3	89 0a		 mov	 DWORD PTR [edx], ecx
  000c5	89 42 04	 mov	 DWORD PTR [edx+4], eax

; 4394 :     }

  000c8	eb d4		 jmp	 SHORT $LN66@Assign_ran
$LN65@Assign_ran:
; File C:\Program Files (x86)\Microsoft Visual Studio\2019\Community\VC\Tools\MSVC\14.28.29333\include\vector

; 1128 :                 _Mylast = _Ucopy(_Mid, _Last, _Mylast);

  000ca	8b 45 f8	 mov	 eax, DWORD PTR __Mylast$[ebp]
  000cd	8b 00		 mov	 eax, DWORD PTR [eax]
  000cf	89 45 b8	 mov	 DWORD PTR __Dest$[ebp], eax

; 1733 :         return _Mypair._Get_first();

  000d2	8b 45 e8	 mov	 eax, DWORD PTR _this$[ebp]
; File C:\Program Files (x86)\Microsoft Visual Studio\2019\Community\VC\Tools\MSVC\14.28.29333\include\xmemory

; 1347 :         return *this;

  000d5	89 45 c0	 mov	 DWORD PTR $T4[ebp], eax
; File C:\Program Files (x86)\Microsoft Visual Studio\2019\Community\VC\Tools\MSVC\14.28.29333\include\vector

; 1733 :         return _Mypair._Get_first();

  000d8	8b 45 c0	 mov	 eax, DWORD PTR $T4[ebp]
  000db	89 45 bc	 mov	 DWORD PTR $T3[ebp], eax

; 1588 :         return _Uninitialized_copy(_First, _Last, _Dest, _Getal());

  000de	ff 75 bc	 push	 DWORD PTR $T3[ebp]
  000e1	ff 75 b8	 push	 DWORD PTR __Dest$[ebp]
  000e4	ff 75 0c	 push	 DWORD PTR __Last$[ebp]
  000e7	ff 75 d0	 push	 DWORD PTR __Mid$7[ebp]
  000ea	e8 00 00 00 00	 call	 ??$_Uninitialized_copy@PAV?$CTimeEvent@M@@V?$allocator@V?$CTimeEvent@M@@@std@@@std@@YAPAV?$CTimeEvent@M@@QAV1@0PAV1@AAV?$allocator@V?$CTimeEvent@M@@@0@@Z ; std::_Uninitialized_copy<CTimeEvent<float> *,std::allocator<CTimeEvent<float> > >
  000ef	83 c4 10	 add	 esp, 16			; 00000010H

; 1128 :                 _Mylast = _Ucopy(_Mid, _Last, _Mylast);

  000f2	8b 4d f8	 mov	 ecx, DWORD PTR __Mylast$[ebp]
  000f5	89 01		 mov	 DWORD PTR [ecx], eax

; 1129 :             } else {

  000f7	eb 77		 jmp	 SHORT $LN1@Assign_ran
$LN2@Assign_ran:

; 1130 :                 const pointer _Newlast = _Myfirst + _Newsize;

  000f9	8b 45 fc	 mov	 eax, DWORD PTR __Myfirst$[ebp]
  000fc	8b 00		 mov	 eax, DWORD PTR [eax]
  000fe	8b 4d f0	 mov	 ecx, DWORD PTR __Newsize$[ebp]
  00101	8d 04 c8	 lea	 eax, DWORD PTR [eax+ecx*8]
  00104	89 45 cc	 mov	 DWORD PTR __Newlast$6[ebp], eax

; 1131 :                 _Copy_unchecked(_First, _Last, _Myfirst);

  00107	8b 45 fc	 mov	 eax, DWORD PTR __Myfirst$[ebp]
  0010a	8b 00		 mov	 eax, DWORD PTR [eax]
  0010c	89 45 d4	 mov	 DWORD PTR __Dest$[ebp], eax
  0010f	8b 45 08	 mov	 eax, DWORD PTR __First$[ebp]
  00112	89 45 ec	 mov	 DWORD PTR __First$[ebp], eax
; File C:\Program Files (x86)\Microsoft Visual Studio\2019\Community\VC\Tools\MSVC\14.28.29333\include\xutility

; 4392 :     for (; _First != _Last; ++_Dest, (void) ++_First) {

  00115	eb 12		 jmp	 SHORT $LN81@Assign_ran
$LN79@Assign_ran:
  00117	8b 45 d4	 mov	 eax, DWORD PTR __Dest$[ebp]
  0011a	83 c0 08	 add	 eax, 8
  0011d	89 45 d4	 mov	 DWORD PTR __Dest$[ebp], eax
  00120	8b 45 ec	 mov	 eax, DWORD PTR __First$[ebp]
  00123	83 c0 08	 add	 eax, 8
  00126	89 45 ec	 mov	 DWORD PTR __First$[ebp], eax
$LN81@Assign_ran:
  00129	8b 45 ec	 mov	 eax, DWORD PTR __First$[ebp]
  0012c	3b 45 0c	 cmp	 eax, DWORD PTR __Last$[ebp]
  0012f	74 12		 je	 SHORT $LN78@Assign_ran

; 4393 :         *_Dest = *_First;

  00131	8b 45 ec	 mov	 eax, DWORD PTR __First$[ebp]
  00134	8b 08		 mov	 ecx, DWORD PTR [eax]
  00136	8b 40 04	 mov	 eax, DWORD PTR [eax+4]
  00139	8b 55 d4	 mov	 edx, DWORD PTR __Dest$[ebp]
  0013c	89 0a		 mov	 DWORD PTR [edx], ecx
  0013e	89 42 04	 mov	 DWORD PTR [edx+4], eax

; 4394 :     }

  00141	eb d4		 jmp	 SHORT $LN79@Assign_ran
$LN78@Assign_ran:
; File C:\Program Files (x86)\Microsoft Visual Studio\2019\Community\VC\Tools\MSVC\14.28.29333\include\vector

; 1132 :                 _Destroy(_Newlast, _Mylast);

  00143	8b 45 f8	 mov	 eax, DWORD PTR __Mylast$[ebp]
  00146	8b 00		 mov	 eax, DWORD PTR [eax]
  00148	89 45 ac	 mov	 DWORD PTR __Last$[ebp], eax

; 1733 :         return _Mypair._Get_first();

  0014b	8b 45 e8	 mov	 eax, DWORD PTR _this$[ebp]
; File C:\Program Files (x86)\Microsoft Visual Studio\2019\Community\VC\Tools\MSVC\14.28.29333\include\xmemory

; 1347 :         return *this;

  0014e	89 45 b4	 mov	 DWORD PTR $T2[ebp], eax
; File C:\Program Files (x86)\Microsoft Visual Studio\2019\Community\VC\Tools\MSVC\14.28.29333\include\vector

; 1733 :         return _Mypair._Get_first();

  00151	8b 45 b4	 mov	 eax, DWORD PTR $T2[ebp]
  00154	89 45 b0	 mov	 DWORD PTR $T1[ebp], eax

; 1612 :         _Destroy_range(_First, _Last, _Getal());

  00157	ff 75 b0	 push	 DWORD PTR $T1[ebp]
  0015a	ff 75 ac	 push	 DWORD PTR __Last$[ebp]
  0015d	ff 75 cc	 push	 DWORD PTR __Newlast$6[ebp]
  00160	e8 00 00 00 00	 call	 ??$_Destroy_range@V?$allocator@V?$CTimeEvent@M@@@std@@@std@@YAXPAV?$CTimeEvent@M@@QAV1@AAV?$allocator@V?$CTimeEvent@M@@@0@@Z ; std::_Destroy_range<std::allocator<CTimeEvent<float> > >
  00165	83 c4 0c	 add	 esp, 12			; 0000000cH

; 1133 :                 _Mylast = _Newlast;

  00168	8b 45 f8	 mov	 eax, DWORD PTR __Mylast$[ebp]
  0016b	8b 4d cc	 mov	 ecx, DWORD PTR __Newlast$6[ebp]
  0016e	89 08		 mov	 DWORD PTR [eax], ecx
$LN1@Assign_ran:

; 1134 :             }
; 1135 :         }
; 1136 :     }

  00170	c9		 leave
  00171	c2 0c 00	 ret	 12			; 0000000cH
??$_Assign_range@PAV?$CTimeEvent@M@@@?$vector@V?$CTimeEvent@M@@V?$allocator@V?$CTimeEvent@M@@@std@@@std@@AAEXPAV?$CTimeEvent@M@@0Uforward_iterator_tag@1@@Z ENDP ; std::vector<CTimeEvent<float>,std::allocator<CTimeEvent<float> > >::_Assign_range<CTimeEvent<float> *>
_TEXT	ENDS
; Function compile flags: /Odspy
; File C:\Program Files (x86)\Microsoft Visual Studio\2019\Community\VC\Tools\MSVC\14.28.29333\include\vector
; File C:\Program Files (x86)\Microsoft Visual Studio\2019\Community\VC\Tools\MSVC\14.28.29333\include\xutility
; File C:\Program Files (x86)\Microsoft Visual Studio\2019\Community\VC\Tools\MSVC\14.28.29333\include\xmemory
; File C:\Program Files (x86)\Microsoft Visual Studio\2019\Community\VC\Tools\MSVC\14.28.29333\include\vector
; File C:\Program Files (x86)\Microsoft Visual Studio\2019\Community\VC\Tools\MSVC\14.28.29333\include\xutility
; File C:\Program Files (x86)\Microsoft Visual Studio\2019\Community\VC\Tools\MSVC\14.28.29333\include\vector
; File C:\Program Files (x86)\Microsoft Visual Studio\2019\Community\VC\Tools\MSVC\14.28.29333\include\xutility
; File D:\Metin2 Server Files\mainline\SRC_2014\Metin2Client\EffectLib\Type.h
; File C:\Program Files (x86)\Microsoft Visual Studio\2019\Community\VC\Tools\MSVC\14.28.29333\include\xutility
; File C:\Program Files (x86)\Microsoft Visual Studio\2019\Community\VC\Tools\MSVC\14.28.29333\include\vector
; File C:\Program Files (x86)\Microsoft Visual Studio\2019\Community\VC\Tools\MSVC\14.28.29333\include\xmemory
; File C:\Program Files (x86)\Microsoft Visual Studio\2019\Community\VC\Tools\MSVC\14.28.29333\include\vector
; File C:\Program Files (x86)\Microsoft Visual Studio\2019\Community\VC\Tools\MSVC\14.28.29333\include\xutility
; File D:\Metin2 Server Files\mainline\SRC_2014\Metin2Client\EffectLib\Type.h
; File C:\Program Files (x86)\Microsoft Visual Studio\2019\Community\VC\Tools\MSVC\14.28.29333\include\xutility
; File C:\Program Files (x86)\Microsoft Visual Studio\2019\Community\VC\Tools\MSVC\14.28.29333\include\vector
; File C:\Program Files (x86)\Microsoft Visual Studio\2019\Community\VC\Tools\MSVC\14.28.29333\include\xmemory
; File C:\Program Files (x86)\Microsoft Visual Studio\2019\Community\VC\Tools\MSVC\14.28.29333\include\vector
;	COMDAT ??$_Assign_range@PAV?$CTimeEvent@UDWORDCOLOR@@@@@?$vector@V?$CTimeEvent@UDWORDCOLOR@@@@V?$allocator@V?$CTimeEvent@UDWORDCOLOR@@@@@std@@@std@@AAEXPAV?$CTimeEvent@UDWORDCOLOR@@@@0Uforward_iterator_tag@1@@Z
_TEXT	SEGMENT
__Last$ = -92						; size = 4
$T1 = -88						; size = 4
$T2 = -84						; size = 4
_this$3 = -80						; size = 4
__Dest$ = -76						; size = 4
$T4 = -72						; size = 4
$T5 = -68						; size = 4
_this$6 = -64						; size = 4
__Oldcapacity$7 = -60					; size = 4
__Myend$ = -56						; size = 4
__Newlast$8 = -52					; size = 4
__Mid$9 = -48						; size = 4
__First$ = -44						; size = 4
__Oldsize$10 = -40					; size = 4
__My_data$ = -36					; size = 4
_this$ = -32						; size = 4
__Dest$ = -28						; size = 4
__Newsize$ = -24					; size = 4
__Dest$ = -20						; size = 4
__Mylast$ = -16						; size = 4
__First$ = -12						; size = 4
__Myfirst$ = -8						; size = 4
__First$ = -4						; size = 4
__First$ = 8						; size = 4
__Last$ = 12						; size = 4
___formal$ = 16						; size = 1
??$_Assign_range@PAV?$CTimeEvent@UDWORDCOLOR@@@@@?$vector@V?$CTimeEvent@UDWORDCOLOR@@@@V?$allocator@V?$CTimeEvent@UDWORDCOLOR@@@@@std@@@std@@AAEXPAV?$CTimeEvent@UDWORDCOLOR@@@@0Uforward_iterator_tag@1@@Z PROC ; std::vector<CTimeEvent<DWORDCOLOR>,std::allocator<CTimeEvent<DWORDCOLOR> > >::_Assign_range<CTimeEvent<DWORDCOLOR> *>, COMDAT
; _this$ = ecx

; 1094 :     void _Assign_range(_Iter _First, _Iter _Last, forward_iterator_tag) { // assign forward range [_First, _Last)

  00000	55		 push	 ebp
  00001	8b ec		 mov	 ebp, esp
  00003	83 ec 5c	 sub	 esp, 92			; 0000005cH
  00006	89 4d e0	 mov	 DWORD PTR _this$[ebp], ecx
; File C:\Program Files (x86)\Microsoft Visual Studio\2019\Community\VC\Tools\MSVC\14.28.29333\include\xutility

; 1794 :         return _Last - _First; // assume the iterator will do debug checking

  00009	8b 45 0c	 mov	 eax, DWORD PTR __Last$[ebp]
  0000c	2b 45 08	 sub	 eax, DWORD PTR __First$[ebp]
  0000f	c1 f8 03	 sar	 eax, 3
; File C:\Program Files (x86)\Microsoft Visual Studio\2019\Community\VC\Tools\MSVC\14.28.29333\include\xmemory

; 997  :     return _Len;

  00012	89 45 e8	 mov	 DWORD PTR __Newsize$[ebp], eax
; File C:\Program Files (x86)\Microsoft Visual Studio\2019\Community\VC\Tools\MSVC\14.28.29333\include\vector

; 1096 :         auto& _My_data      = _Mypair._Myval2;

  00015	8b 45 e0	 mov	 eax, DWORD PTR _this$[ebp]
  00018	89 45 dc	 mov	 DWORD PTR __My_data$[ebp], eax

; 1097 :         pointer& _Myfirst   = _My_data._Myfirst;

  0001b	8b 45 dc	 mov	 eax, DWORD PTR __My_data$[ebp]
  0001e	89 45 f8	 mov	 DWORD PTR __Myfirst$[ebp], eax

; 1098 :         pointer& _Mylast    = _My_data._Mylast;

  00021	8b 45 dc	 mov	 eax, DWORD PTR __My_data$[ebp]
  00024	83 c0 04	 add	 eax, 4
  00027	89 45 f0	 mov	 DWORD PTR __Mylast$[ebp], eax

; 1099 :         pointer& _Myend     = _My_data._Myend;

  0002a	8b 45 dc	 mov	 eax, DWORD PTR __My_data$[ebp]
  0002d	83 c0 08	 add	 eax, 8
  00030	89 45 c8	 mov	 DWORD PTR __Myend$[ebp], eax

; 1100 : 
; 1101 :         _My_data._Orphan_all();
; 1102 : 
; 1103 : #if _HAS_IF_CONSTEXPR
; 1104 :         if constexpr (conjunction_v<bool_constant<_Ptr_copy_cat<_Iter, _Ty*>::_Trivially_copyable>,
; 1105 :                           _Uses_default_construct<_Alty, _Ty*, decltype(*_First)>,
; 1106 :                           _Uses_default_destroy<_Alty, _Ty*>>) {
; 1107 :             const auto _Oldcapacity = static_cast<size_type>(_Myend - _Myfirst);
; 1108 :             if (_Newsize > _Oldcapacity) {
; 1109 :                 _Clear_and_reserve_geometric(_Newsize);
; 1110 :             }
; 1111 : 
; 1112 :             _Mylast = _Refancy<pointer>(_Copy_memmove(_First, _Last, _Unfancy(_Myfirst)));
; 1113 :         } else
; 1114 : #endif // _HAS_IF_CONSTEXPR
; 1115 :         {
; 1116 :             auto _Oldsize = static_cast<size_type>(_Mylast - _Myfirst);

  00033	8b 45 f0	 mov	 eax, DWORD PTR __Mylast$[ebp]
  00036	8b 4d f8	 mov	 ecx, DWORD PTR __Myfirst$[ebp]
  00039	8b 00		 mov	 eax, DWORD PTR [eax]
  0003b	2b 01		 sub	 eax, DWORD PTR [ecx]
  0003d	c1 f8 03	 sar	 eax, 3
  00040	89 45 d8	 mov	 DWORD PTR __Oldsize$10[ebp], eax

; 1117 : 
; 1118 :             if (_Newsize > _Oldsize) {

  00043	8b 45 e8	 mov	 eax, DWORD PTR __Newsize$[ebp]
  00046	3b 45 d8	 cmp	 eax, DWORD PTR __Oldsize$10[ebp]
  00049	0f 86 bb 00 00
	00		 jbe	 $LN2@Assign_ran

; 1119 :                 const auto _Oldcapacity = static_cast<size_type>(_Myend - _Myfirst);

  0004f	8b 45 c8	 mov	 eax, DWORD PTR __Myend$[ebp]
  00052	8b 4d f8	 mov	 ecx, DWORD PTR __Myfirst$[ebp]
  00055	8b 00		 mov	 eax, DWORD PTR [eax]
  00057	2b 01		 sub	 eax, DWORD PTR [ecx]
  00059	c1 f8 03	 sar	 eax, 3
  0005c	89 45 c4	 mov	 DWORD PTR __Oldcapacity$7[ebp], eax

; 1120 :                 if (_Newsize > _Oldcapacity) { // reallocate

  0005f	8b 45 e8	 mov	 eax, DWORD PTR __Newsize$[ebp]
  00062	3b 45 c4	 cmp	 eax, DWORD PTR __Oldcapacity$7[ebp]
  00065	76 0f		 jbe	 SHORT $LN4@Assign_ran

; 1121 :                     _Clear_and_reserve_geometric(_Newsize);

  00067	ff 75 e8	 push	 DWORD PTR __Newsize$[ebp]
  0006a	8b 4d e0	 mov	 ecx, DWORD PTR _this$[ebp]
  0006d	e8 00 00 00 00	 call	 ?_Clear_and_reserve_geometric@?$vector@V?$CTimeEvent@UDWORDCOLOR@@@@V?$allocator@V?$CTimeEvent@UDWORDCOLOR@@@@@std@@@std@@AAEXI@Z ; std::vector<CTimeEvent<DWORDCOLOR>,std::allocator<CTimeEvent<DWORDCOLOR> > >::_Clear_and_reserve_geometric

; 1122 :                     _Oldsize = 0;

  00072	83 65 d8 00	 and	 DWORD PTR __Oldsize$10[ebp], 0
$LN4@Assign_ran:

; 1126 :                 const _Iter _Mid = _STD next(_First, static_cast<difference_type>(_Oldsize));

  00076	8b 45 08	 mov	 eax, DWORD PTR __First$[ebp]
  00079	89 45 d4	 mov	 DWORD PTR __First$[ebp], eax
; File C:\Program Files (x86)\Microsoft Visual Studio\2019\Community\VC\Tools\MSVC\14.28.29333\include\xutility

; 1714 :         _Where += _Off;

  0007c	8b 45 d8	 mov	 eax, DWORD PTR __Oldsize$10[ebp]
  0007f	8b 4d d4	 mov	 ecx, DWORD PTR __First$[ebp]
  00082	8d 04 c1	 lea	 eax, DWORD PTR [ecx+eax*8]
  00085	89 45 d4	 mov	 DWORD PTR __First$[ebp], eax
; File C:\Program Files (x86)\Microsoft Visual Studio\2019\Community\VC\Tools\MSVC\14.28.29333\include\vector

; 1126 :                 const _Iter _Mid = _STD next(_First, static_cast<difference_type>(_Oldsize));

  00088	8b 45 d4	 mov	 eax, DWORD PTR __First$[ebp]
  0008b	89 45 d0	 mov	 DWORD PTR __Mid$9[ebp], eax

; 1127 :                 _Copy_unchecked(_First, _Mid, _Myfirst);

  0008e	8b 45 f8	 mov	 eax, DWORD PTR __Myfirst$[ebp]
  00091	8b 00		 mov	 eax, DWORD PTR [eax]
  00093	89 45 ec	 mov	 DWORD PTR __Dest$[ebp], eax
  00096	8b 45 08	 mov	 eax, DWORD PTR __First$[ebp]
  00099	89 45 fc	 mov	 DWORD PTR __First$[ebp], eax
; File C:\Program Files (x86)\Microsoft Visual Studio\2019\Community\VC\Tools\MSVC\14.28.29333\include\xutility

; 4392 :     for (; _First != _Last; ++_Dest, (void) ++_First) {

  0009c	eb 12		 jmp	 SHORT $LN68@Assign_ran
$LN66@Assign_ran:
  0009e	8b 45 ec	 mov	 eax, DWORD PTR __Dest$[ebp]
  000a1	83 c0 08	 add	 eax, 8
  000a4	89 45 ec	 mov	 DWORD PTR __Dest$[ebp], eax
  000a7	8b 45 fc	 mov	 eax, DWORD PTR __First$[ebp]
  000aa	83 c0 08	 add	 eax, 8
  000ad	89 45 fc	 mov	 DWORD PTR __First$[ebp], eax
$LN68@Assign_ran:
  000b0	8b 45 fc	 mov	 eax, DWORD PTR __First$[ebp]
  000b3	3b 45 d0	 cmp	 eax, DWORD PTR __Mid$9[ebp]
  000b6	74 20		 je	 SHORT $LN67@Assign_ran
  000b8	8b 45 ec	 mov	 eax, DWORD PTR __Dest$[ebp]
  000bb	8b 4d fc	 mov	 ecx, DWORD PTR __First$[ebp]
  000be	8b 09		 mov	 ecx, DWORD PTR [ecx]
  000c0	89 08		 mov	 DWORD PTR [eax], ecx
  000c2	8b 45 ec	 mov	 eax, DWORD PTR __Dest$[ebp]
  000c5	83 c0 04	 add	 eax, 4
  000c8	89 45 c0	 mov	 DWORD PTR _this$6[ebp], eax
; File D:\Metin2 Server Files\mainline\SRC_2014\Metin2Client\EffectLib\Type.h

; 142  : 		m_dwColor = r.m_dwColor;

  000cb	8b 45 c0	 mov	 eax, DWORD PTR _this$6[ebp]
  000ce	8b 4d fc	 mov	 ecx, DWORD PTR __First$[ebp]
  000d1	8b 49 04	 mov	 ecx, DWORD PTR [ecx+4]
  000d4	89 08		 mov	 DWORD PTR [eax], ecx
; File C:\Program Files (x86)\Microsoft Visual Studio\2019\Community\VC\Tools\MSVC\14.28.29333\include\xutility

; 4394 :     }

  000d6	eb c6		 jmp	 SHORT $LN66@Assign_ran
$LN67@Assign_ran:
; File C:\Program Files (x86)\Microsoft Visual Studio\2019\Community\VC\Tools\MSVC\14.28.29333\include\vector

; 1128 :                 _Mylast = _Ucopy(_Mid, _Last, _Mylast);

  000d8	8b 45 f0	 mov	 eax, DWORD PTR __Mylast$[ebp]
  000db	8b 00		 mov	 eax, DWORD PTR [eax]
  000dd	89 45 b4	 mov	 DWORD PTR __Dest$[ebp], eax

; 1733 :         return _Mypair._Get_first();

  000e0	8b 45 e0	 mov	 eax, DWORD PTR _this$[ebp]
; File C:\Program Files (x86)\Microsoft Visual Studio\2019\Community\VC\Tools\MSVC\14.28.29333\include\xmemory

; 1347 :         return *this;

  000e3	89 45 bc	 mov	 DWORD PTR $T5[ebp], eax
; File C:\Program Files (x86)\Microsoft Visual Studio\2019\Community\VC\Tools\MSVC\14.28.29333\include\vector

; 1733 :         return _Mypair._Get_first();

  000e6	8b 45 bc	 mov	 eax, DWORD PTR $T5[ebp]
  000e9	89 45 b8	 mov	 DWORD PTR $T4[ebp], eax

; 1588 :         return _Uninitialized_copy(_First, _Last, _Dest, _Getal());

  000ec	ff 75 b8	 push	 DWORD PTR $T4[ebp]
  000ef	ff 75 b4	 push	 DWORD PTR __Dest$[ebp]
  000f2	ff 75 0c	 push	 DWORD PTR __Last$[ebp]
  000f5	ff 75 d0	 push	 DWORD PTR __Mid$9[ebp]
  000f8	e8 00 00 00 00	 call	 ??$_Uninitialized_copy@PAV?$CTimeEvent@UDWORDCOLOR@@@@V?$allocator@V?$CTimeEvent@UDWORDCOLOR@@@@@std@@@std@@YAPAV?$CTimeEvent@UDWORDCOLOR@@@@QAV1@0PAV1@AAV?$allocator@V?$CTimeEvent@UDWORDCOLOR@@@@@0@@Z ; std::_Uninitialized_copy<CTimeEvent<DWORDCOLOR> *,std::allocator<CTimeEvent<DWORDCOLOR> > >
  000fd	83 c4 10	 add	 esp, 16			; 00000010H

; 1128 :                 _Mylast = _Ucopy(_Mid, _Last, _Mylast);

  00100	8b 4d f0	 mov	 ecx, DWORD PTR __Mylast$[ebp]
  00103	89 01		 mov	 DWORD PTR [ecx], eax

; 1129 :             } else {

  00105	e9 85 00 00 00	 jmp	 $LN3@Assign_ran
$LN2@Assign_ran:

; 1130 :                 const pointer _Newlast = _Myfirst + _Newsize;

  0010a	8b 45 f8	 mov	 eax, DWORD PTR __Myfirst$[ebp]
  0010d	8b 00		 mov	 eax, DWORD PTR [eax]
  0010f	8b 4d e8	 mov	 ecx, DWORD PTR __Newsize$[ebp]
  00112	8d 04 c8	 lea	 eax, DWORD PTR [eax+ecx*8]
  00115	89 45 cc	 mov	 DWORD PTR __Newlast$8[ebp], eax

; 1131 :                 _Copy_unchecked(_First, _Last, _Myfirst);

  00118	8b 45 f8	 mov	 eax, DWORD PTR __Myfirst$[ebp]
  0011b	8b 00		 mov	 eax, DWORD PTR [eax]
  0011d	89 45 e4	 mov	 DWORD PTR __Dest$[ebp], eax
  00120	8b 45 08	 mov	 eax, DWORD PTR __First$[ebp]
  00123	89 45 f4	 mov	 DWORD PTR __First$[ebp], eax
; File C:\Program Files (x86)\Microsoft Visual Studio\2019\Community\VC\Tools\MSVC\14.28.29333\include\xutility

; 4392 :     for (; _First != _Last; ++_Dest, (void) ++_First) {

  00126	eb 12		 jmp	 SHORT $LN85@Assign_ran
$LN83@Assign_ran:
  00128	8b 45 e4	 mov	 eax, DWORD PTR __Dest$[ebp]
  0012b	83 c0 08	 add	 eax, 8
  0012e	89 45 e4	 mov	 DWORD PTR __Dest$[ebp], eax
  00131	8b 45 f4	 mov	 eax, DWORD PTR __First$[ebp]
  00134	83 c0 08	 add	 eax, 8
  00137	89 45 f4	 mov	 DWORD PTR __First$[ebp], eax
$LN85@Assign_ran:
  0013a	8b 45 f4	 mov	 eax, DWORD PTR __First$[ebp]
  0013d	3b 45 0c	 cmp	 eax, DWORD PTR __Last$[ebp]
  00140	74 20		 je	 SHORT $LN84@Assign_ran
  00142	8b 45 e4	 mov	 eax, DWORD PTR __Dest$[ebp]
  00145	8b 4d f4	 mov	 ecx, DWORD PTR __First$[ebp]
  00148	8b 09		 mov	 ecx, DWORD PTR [ecx]
  0014a	89 08		 mov	 DWORD PTR [eax], ecx
  0014c	8b 45 e4	 mov	 eax, DWORD PTR __Dest$[ebp]
  0014f	83 c0 04	 add	 eax, 4
  00152	89 45 b0	 mov	 DWORD PTR _this$3[ebp], eax
; File D:\Metin2 Server Files\mainline\SRC_2014\Metin2Client\EffectLib\Type.h

; 142  : 		m_dwColor = r.m_dwColor;

  00155	8b 45 b0	 mov	 eax, DWORD PTR _this$3[ebp]
  00158	8b 4d f4	 mov	 ecx, DWORD PTR __First$[ebp]
  0015b	8b 49 04	 mov	 ecx, DWORD PTR [ecx+4]
  0015e	89 08		 mov	 DWORD PTR [eax], ecx
; File C:\Program Files (x86)\Microsoft Visual Studio\2019\Community\VC\Tools\MSVC\14.28.29333\include\xutility

; 4394 :     }

  00160	eb c6		 jmp	 SHORT $LN83@Assign_ran
$LN84@Assign_ran:
; File C:\Program Files (x86)\Microsoft Visual Studio\2019\Community\VC\Tools\MSVC\14.28.29333\include\vector

; 1132 :                 _Destroy(_Newlast, _Mylast);

  00162	8b 45 f0	 mov	 eax, DWORD PTR __Mylast$[ebp]
  00165	8b 00		 mov	 eax, DWORD PTR [eax]
  00167	89 45 a4	 mov	 DWORD PTR __Last$[ebp], eax

; 1733 :         return _Mypair._Get_first();

  0016a	8b 45 e0	 mov	 eax, DWORD PTR _this$[ebp]
; File C:\Program Files (x86)\Microsoft Visual Studio\2019\Community\VC\Tools\MSVC\14.28.29333\include\xmemory

; 1347 :         return *this;

  0016d	89 45 ac	 mov	 DWORD PTR $T2[ebp], eax
; File C:\Program Files (x86)\Microsoft Visual Studio\2019\Community\VC\Tools\MSVC\14.28.29333\include\vector

; 1733 :         return _Mypair._Get_first();

  00170	8b 45 ac	 mov	 eax, DWORD PTR $T2[ebp]
  00173	89 45 a8	 mov	 DWORD PTR $T1[ebp], eax

; 1612 :         _Destroy_range(_First, _Last, _Getal());

  00176	ff 75 a8	 push	 DWORD PTR $T1[ebp]
  00179	ff 75 a4	 push	 DWORD PTR __Last$[ebp]
  0017c	ff 75 cc	 push	 DWORD PTR __Newlast$8[ebp]
  0017f	e8 00 00 00 00	 call	 ??$_Destroy_range@V?$allocator@V?$CTimeEvent@UDWORDCOLOR@@@@@std@@@std@@YAXPAV?$CTimeEvent@UDWORDCOLOR@@@@QAV1@AAV?$allocator@V?$CTimeEvent@UDWORDCOLOR@@@@@0@@Z ; std::_Destroy_range<std::allocator<CTimeEvent<DWORDCOLOR> > >
  00184	83 c4 0c	 add	 esp, 12			; 0000000cH

; 1133 :                 _Mylast = _Newlast;

  00187	8b 45 f0	 mov	 eax, DWORD PTR __Mylast$[ebp]
  0018a	8b 4d cc	 mov	 ecx, DWORD PTR __Newlast$8[ebp]
  0018d	89 08		 mov	 DWORD PTR [eax], ecx
$LN3@Assign_ran:

; 1134 :             }
; 1135 :         }
; 1136 :     }

  0018f	c9		 leave
  00190	c2 0c 00	 ret	 12			; 0000000cH
??$_Assign_range@PAV?$CTimeEvent@UDWORDCOLOR@@@@@?$vector@V?$CTimeEvent@UDWORDCOLOR@@@@V?$allocator@V?$CTimeEvent@UDWORDCOLOR@@@@@std@@@std@@AAEXPAV?$CTimeEvent@UDWORDCOLOR@@@@0Uforward_iterator_tag@1@@Z ENDP ; std::vector<CTimeEvent<DWORDCOLOR>,std::allocator<CTimeEvent<DWORDCOLOR> > >::_Assign_range<CTimeEvent<DWORDCOLOR> *>
_TEXT	ENDS
; Function compile flags: /Odspy
; File C:\Program Files (x86)\Microsoft Visual Studio\2019\Community\VC\Tools\MSVC\14.28.29333\include\vector
; File C:\Program Files (x86)\Microsoft Visual Studio\2019\Community\VC\Tools\MSVC\14.28.29333\include\xutility
; File C:\Program Files (x86)\Microsoft Visual Studio\2019\Community\VC\Tools\MSVC\14.28.29333\include\xmemory
; File C:\Program Files (x86)\Microsoft Visual Studio\2019\Community\VC\Tools\MSVC\14.28.29333\include\vector
; File C:\Program Files (x86)\Microsoft Visual Studio\2019\Community\VC\Tools\MSVC\14.28.29333\include\xstddef
; File C:\Program Files (x86)\Microsoft Visual Studio\2019\Community\VC\Tools\MSVC\14.28.29333\include\vector
;	COMDAT ??$_Assign_range@PAPAVCGraphicImage@@@?$vector@PAVCGraphicImage@@V?$allocator@PAVCGraphicImage@@@std@@@std@@AAEXPAPAVCGraphicImage@@0Uforward_iterator_tag@1@@Z
_TEXT	SEGMENT
__Mylast$ = -36						; size = 4
$T1 = -32						; size = 4
__Ptr$ = -28						; size = 4
__Oldcapacity$2 = -24					; size = 4
__Myend$ = -20						; size = 4
__Myfirst$ = -16					; size = 4
_this$ = -12						; size = 4
__Newsize$ = -8						; size = 4
__My_data$ = -4						; size = 4
__First$ = 8						; size = 4
__Last$ = 12						; size = 4
___formal$ = 16						; size = 1
??$_Assign_range@PAPAVCGraphicImage@@@?$vector@PAVCGraphicImage@@V?$allocator@PAVCGraphicImage@@@std@@@std@@AAEXPAPAVCGraphicImage@@0Uforward_iterator_tag@1@@Z PROC ; std::vector<CGraphicImage *,std::allocator<CGraphicImage *> >::_Assign_range<CGraphicImage * *>, COMDAT
; _this$ = ecx

; 1094 :     void _Assign_range(_Iter _First, _Iter _Last, forward_iterator_tag) { // assign forward range [_First, _Last)

  00000	55		 push	 ebp
  00001	8b ec		 mov	 ebp, esp
  00003	83 ec 24	 sub	 esp, 36			; 00000024H
  00006	89 4d f4	 mov	 DWORD PTR _this$[ebp], ecx
; File C:\Program Files (x86)\Microsoft Visual Studio\2019\Community\VC\Tools\MSVC\14.28.29333\include\xutility

; 1794 :         return _Last - _First; // assume the iterator will do debug checking

  00009	8b 45 0c	 mov	 eax, DWORD PTR __Last$[ebp]
  0000c	2b 45 08	 sub	 eax, DWORD PTR __First$[ebp]
  0000f	c1 f8 02	 sar	 eax, 2
; File C:\Program Files (x86)\Microsoft Visual Studio\2019\Community\VC\Tools\MSVC\14.28.29333\include\xmemory

; 997  :     return _Len;

  00012	89 45 f8	 mov	 DWORD PTR __Newsize$[ebp], eax
; File C:\Program Files (x86)\Microsoft Visual Studio\2019\Community\VC\Tools\MSVC\14.28.29333\include\vector

; 1096 :         auto& _My_data      = _Mypair._Myval2;

  00015	8b 45 f4	 mov	 eax, DWORD PTR _this$[ebp]
  00018	89 45 fc	 mov	 DWORD PTR __My_data$[ebp], eax

; 1097 :         pointer& _Myfirst   = _My_data._Myfirst;

  0001b	8b 45 fc	 mov	 eax, DWORD PTR __My_data$[ebp]
  0001e	89 45 f0	 mov	 DWORD PTR __Myfirst$[ebp], eax

; 1098 :         pointer& _Mylast    = _My_data._Mylast;

  00021	8b 45 fc	 mov	 eax, DWORD PTR __My_data$[ebp]
  00024	83 c0 04	 add	 eax, 4
  00027	89 45 dc	 mov	 DWORD PTR __Mylast$[ebp], eax

; 1099 :         pointer& _Myend     = _My_data._Myend;

  0002a	8b 45 fc	 mov	 eax, DWORD PTR __My_data$[ebp]
  0002d	83 c0 08	 add	 eax, 8
  00030	89 45 ec	 mov	 DWORD PTR __Myend$[ebp], eax

; 1100 : 
; 1101 :         _My_data._Orphan_all();
; 1102 : 
; 1103 : #if _HAS_IF_CONSTEXPR
; 1104 :         if constexpr (conjunction_v<bool_constant<_Ptr_copy_cat<_Iter, _Ty*>::_Trivially_copyable>,
; 1105 :                           _Uses_default_construct<_Alty, _Ty*, decltype(*_First)>,
; 1106 :                           _Uses_default_destroy<_Alty, _Ty*>>) {
; 1107 :             const auto _Oldcapacity = static_cast<size_type>(_Myend - _Myfirst);

  00033	8b 45 ec	 mov	 eax, DWORD PTR __Myend$[ebp]
  00036	8b 4d f0	 mov	 ecx, DWORD PTR __Myfirst$[ebp]
  00039	8b 00		 mov	 eax, DWORD PTR [eax]
  0003b	2b 01		 sub	 eax, DWORD PTR [ecx]
  0003d	c1 f8 02	 sar	 eax, 2
  00040	89 45 e8	 mov	 DWORD PTR __Oldcapacity$2[ebp], eax

; 1108 :             if (_Newsize > _Oldcapacity) {

  00043	8b 45 f8	 mov	 eax, DWORD PTR __Newsize$[ebp]
  00046	3b 45 e8	 cmp	 eax, DWORD PTR __Oldcapacity$2[ebp]
  00049	76 0b		 jbe	 SHORT $LN2@Assign_ran

; 1109 :                 _Clear_and_reserve_geometric(_Newsize);

  0004b	ff 75 f8	 push	 DWORD PTR __Newsize$[ebp]
  0004e	8b 4d f4	 mov	 ecx, DWORD PTR _this$[ebp]
  00051	e8 00 00 00 00	 call	 ?_Clear_and_reserve_geometric@?$vector@PAVCGraphicImage@@V?$allocator@PAVCGraphicImage@@@std@@@std@@AAEXI@Z ; std::vector<CGraphicImage *,std::allocator<CGraphicImage *> >::_Clear_and_reserve_geometric
$LN2@Assign_ran:

; 1112 :             _Mylast = _Refancy<pointer>(_Copy_memmove(_First, _Last, _Unfancy(_Myfirst)));

  00056	8b 45 f0	 mov	 eax, DWORD PTR __Myfirst$[ebp]
  00059	8b 00		 mov	 eax, DWORD PTR [eax]
  0005b	89 45 e4	 mov	 DWORD PTR __Ptr$[ebp], eax
; File C:\Program Files (x86)\Microsoft Visual Studio\2019\Community\VC\Tools\MSVC\14.28.29333\include\xstddef

; 289  :     return _Ptr;

  0005e	8b 45 e4	 mov	 eax, DWORD PTR __Ptr$[ebp]
  00061	89 45 e0	 mov	 DWORD PTR $T1[ebp], eax
; File C:\Program Files (x86)\Microsoft Visual Studio\2019\Community\VC\Tools\MSVC\14.28.29333\include\vector

; 1112 :             _Mylast = _Refancy<pointer>(_Copy_memmove(_First, _Last, _Unfancy(_Myfirst)));

  00064	ff 75 e0	 push	 DWORD PTR $T1[ebp]
  00067	ff 75 0c	 push	 DWORD PTR __Last$[ebp]
  0006a	ff 75 08	 push	 DWORD PTR __First$[ebp]
  0006d	e8 00 00 00 00	 call	 ??$_Copy_memmove@PAPAVCGraphicImage@@PAPAV1@@std@@YAPAPAVCGraphicImage@@PAPAV1@00@Z ; std::_Copy_memmove<CGraphicImage * *,CGraphicImage * *>
  00072	83 c4 0c	 add	 esp, 12			; 0000000cH
  00075	50		 push	 eax
  00076	e8 00 00 00 00	 call	 ??$_Refancy@PAPAVCGraphicImage@@$0A@@std@@YAPAPAVCGraphicImage@@PAPAV1@@Z ; std::_Refancy<CGraphicImage * *,0>
  0007b	59		 pop	 ecx
  0007c	8b 4d dc	 mov	 ecx, DWORD PTR __Mylast$[ebp]
  0007f	89 01		 mov	 DWORD PTR [ecx], eax

; 1113 :         } else
; 1114 : #endif // _HAS_IF_CONSTEXPR
; 1115 :         {
; 1116 :             auto _Oldsize = static_cast<size_type>(_Mylast - _Myfirst);
; 1117 : 
; 1118 :             if (_Newsize > _Oldsize) {
; 1119 :                 const auto _Oldcapacity = static_cast<size_type>(_Myend - _Myfirst);
; 1120 :                 if (_Newsize > _Oldcapacity) { // reallocate
; 1121 :                     _Clear_and_reserve_geometric(_Newsize);
; 1122 :                     _Oldsize = 0;
; 1123 :                 }
; 1124 : 
; 1125 :                 // performance note: traversing [_First, _Mid) twice
; 1126 :                 const _Iter _Mid = _STD next(_First, static_cast<difference_type>(_Oldsize));
; 1127 :                 _Copy_unchecked(_First, _Mid, _Myfirst);
; 1128 :                 _Mylast = _Ucopy(_Mid, _Last, _Mylast);
; 1129 :             } else {
; 1130 :                 const pointer _Newlast = _Myfirst + _Newsize;
; 1131 :                 _Copy_unchecked(_First, _Last, _Myfirst);
; 1132 :                 _Destroy(_Newlast, _Mylast);
; 1133 :                 _Mylast = _Newlast;
; 1134 :             }
; 1135 :         }
; 1136 :     }

  00081	c9		 leave
  00082	c2 0c 00	 ret	 12			; 0000000cH
??$_Assign_range@PAPAVCGraphicImage@@@?$vector@PAVCGraphicImage@@V?$allocator@PAVCGraphicImage@@@std@@@std@@AAEXPAPAVCGraphicImage@@0Uforward_iterator_tag@1@@Z ENDP ; std::vector<CGraphicImage *,std::allocator<CGraphicImage *> >::_Assign_range<CGraphicImage * *>
_TEXT	ENDS
; Function compile flags: /Odspy
; File C:\Program Files (x86)\Microsoft Visual Studio\2019\Community\VC\Tools\MSVC\14.28.29333\include\xmemory
;	COMDAT ??$_Pocca@V?$allocator@V?$CTimeEvent@M@@@std@@@std@@YAXAAV?$allocator@V?$CTimeEvent@M@@@0@ABV10@@Z
_TEXT	SEGMENT
__Left$ = 8						; size = 4
__Right$ = 12						; size = 4
??$_Pocca@V?$allocator@V?$CTimeEvent@M@@@std@@@std@@YAXAAV?$allocator@V?$CTimeEvent@M@@@0@ABV10@@Z PROC ; std::_Pocca<std::allocator<CTimeEvent<float> > >, COMDAT

; 885  : void _Pocca(_Alloc& _Left, const _Alloc& _Right) noexcept {

  00000	55		 push	 ebp
  00001	8b ec		 mov	 ebp, esp

; 886  :     if constexpr (allocator_traits<_Alloc>::propagate_on_container_copy_assignment::value) {
; 887  :         _Left = _Right;
; 888  :     }
; 889  : }

  00003	5d		 pop	 ebp
  00004	c3		 ret	 0
??$_Pocca@V?$allocator@V?$CTimeEvent@M@@@std@@@std@@YAXAAV?$allocator@V?$CTimeEvent@M@@@0@ABV10@@Z ENDP ; std::_Pocca<std::allocator<CTimeEvent<float> > >
_TEXT	ENDS
; Function compile flags: /Odspy
; File C:\Program Files (x86)\Microsoft Visual Studio\2019\Community\VC\Tools\MSVC\14.28.29333\include\xmemory
; File C:\Program Files (x86)\Microsoft Visual Studio\2019\Community\VC\Tools\MSVC\14.28.29333\include\xstddef
; File C:\Program Files (x86)\Microsoft Visual Studio\2019\Community\VC\Tools\MSVC\14.28.29333\include\xmemory
;	COMDAT ??$_Destroy_range@V?$allocator@V?$CTimeEvent@M@@@std@@@std@@YAXPAV?$CTimeEvent@M@@QAV1@AAV?$allocator@V?$CTimeEvent@M@@@0@@Z
_TEXT	SEGMENT
$T1 = -4						; size = 4
__First$ = 8						; size = 4
__Last$ = 12						; size = 4
__Al$ = 16						; size = 4
??$_Destroy_range@V?$allocator@V?$CTimeEvent@M@@@std@@@std@@YAXPAV?$CTimeEvent@M@@QAV1@AAV?$allocator@V?$CTimeEvent@M@@@0@@Z PROC ; std::_Destroy_range<std::allocator<CTimeEvent<float> > >, COMDAT

; 962  :     _Alloc_ptr_t<_Alloc> _First, const _Alloc_ptr_t<_Alloc> _Last, _Alloc& _Al) noexcept {

  00000	55		 push	 ebp
  00001	8b ec		 mov	 ebp, esp
  00003	51		 push	 ecx

; 963  :     // note that this is an optimization for debug mode codegen; in release mode the BE removes all of this
; 964  :     using _Ty = typename _Alloc::value_type;
; 965  :     if _CONSTEXPR_IF (!conjunction_v<is_trivially_destructible<_Ty>, _Uses_default_destroy<_Alloc, _Ty*>>) {
; 966  :         for (; _First != _Last; ++_First) {

  00004	eb 09		 jmp	 SHORT $LN4@Destroy_ra
$LN2@Destroy_ra:
  00006	8b 45 08	 mov	 eax, DWORD PTR __First$[ebp]
  00009	83 c0 08	 add	 eax, 8
  0000c	89 45 08	 mov	 DWORD PTR __First$[ebp], eax
$LN4@Destroy_ra:
  0000f	8b 45 08	 mov	 eax, DWORD PTR __First$[ebp]
  00012	3b 45 0c	 cmp	 eax, DWORD PTR __Last$[ebp]
  00015	74 1b		 je	 SHORT $LN5@Destroy_ra
; File C:\Program Files (x86)\Microsoft Visual Studio\2019\Community\VC\Tools\MSVC\14.28.29333\include\xstddef

; 289  :     return _Ptr;

  00017	8b 45 08	 mov	 eax, DWORD PTR __First$[ebp]
  0001a	89 45 fc	 mov	 DWORD PTR $T1[ebp], eax
  0001d	33 c0		 xor	 eax, eax
  0001f	83 e0 01	 and	 eax, 1
  00022	74 0c		 je	 SHORT $LN9@Destroy_ra
  00024	6a 08		 push	 8
  00026	ff 75 fc	 push	 DWORD PTR $T1[ebp]
  00029	e8 00 00 00 00	 call	 ??3@YAXPAXI@Z		; operator delete
  0002e	59		 pop	 ecx
  0002f	59		 pop	 ecx
$LN9@Destroy_ra:
; File C:\Program Files (x86)\Microsoft Visual Studio\2019\Community\VC\Tools\MSVC\14.28.29333\include\xmemory

; 968  :         }

  00030	eb d4		 jmp	 SHORT $LN2@Destroy_ra
$LN5@Destroy_ra:

; 969  :     }
; 970  : }

  00032	c9		 leave
  00033	c3		 ret	 0
??$_Destroy_range@V?$allocator@V?$CTimeEvent@M@@@std@@@std@@YAXPAV?$CTimeEvent@M@@QAV1@AAV?$allocator@V?$CTimeEvent@M@@@0@@Z ENDP ; std::_Destroy_range<std::allocator<CTimeEvent<float> > >
_TEXT	ENDS
; Function compile flags: /Odspy
; File C:\Program Files (x86)\Microsoft Visual Studio\2019\Community\VC\Tools\MSVC\14.28.29333\include\xmemory
;	COMDAT ??$_Pocca@V?$allocator@V?$CTimeEvent@UDWORDCOLOR@@@@@std@@@std@@YAXAAV?$allocator@V?$CTimeEvent@UDWORDCOLOR@@@@@0@ABV10@@Z
_TEXT	SEGMENT
__Left$ = 8						; size = 4
__Right$ = 12						; size = 4
??$_Pocca@V?$allocator@V?$CTimeEvent@UDWORDCOLOR@@@@@std@@@std@@YAXAAV?$allocator@V?$CTimeEvent@UDWORDCOLOR@@@@@0@ABV10@@Z PROC ; std::_Pocca<std::allocator<CTimeEvent<DWORDCOLOR> > >, COMDAT

; 885  : void _Pocca(_Alloc& _Left, const _Alloc& _Right) noexcept {

  00000	55		 push	 ebp
  00001	8b ec		 mov	 ebp, esp

; 886  :     if constexpr (allocator_traits<_Alloc>::propagate_on_container_copy_assignment::value) {
; 887  :         _Left = _Right;
; 888  :     }
; 889  : }

  00003	5d		 pop	 ebp
  00004	c3		 ret	 0
??$_Pocca@V?$allocator@V?$CTimeEvent@UDWORDCOLOR@@@@@std@@@std@@YAXAAV?$allocator@V?$CTimeEvent@UDWORDCOLOR@@@@@0@ABV10@@Z ENDP ; std::_Pocca<std::allocator<CTimeEvent<DWORDCOLOR> > >
_TEXT	ENDS
; Function compile flags: /Odspy
; File C:\Program Files (x86)\Microsoft Visual Studio\2019\Community\VC\Tools\MSVC\14.28.29333\include\xmemory
; File C:\Program Files (x86)\Microsoft Visual Studio\2019\Community\VC\Tools\MSVC\14.28.29333\include\xstddef
; File C:\Program Files (x86)\Microsoft Visual Studio\2019\Community\VC\Tools\MSVC\14.28.29333\include\xmemory
;	COMDAT ??$_Destroy_range@V?$allocator@V?$CTimeEvent@UDWORDCOLOR@@@@@std@@@std@@YAXPAV?$CTimeEvent@UDWORDCOLOR@@@@QAV1@AAV?$allocator@V?$CTimeEvent@UDWORDCOLOR@@@@@0@@Z
_TEXT	SEGMENT
$T1 = -4						; size = 4
__First$ = 8						; size = 4
__Last$ = 12						; size = 4
__Al$ = 16						; size = 4
??$_Destroy_range@V?$allocator@V?$CTimeEvent@UDWORDCOLOR@@@@@std@@@std@@YAXPAV?$CTimeEvent@UDWORDCOLOR@@@@QAV1@AAV?$allocator@V?$CTimeEvent@UDWORDCOLOR@@@@@0@@Z PROC ; std::_Destroy_range<std::allocator<CTimeEvent<DWORDCOLOR> > >, COMDAT

; 962  :     _Alloc_ptr_t<_Alloc> _First, const _Alloc_ptr_t<_Alloc> _Last, _Alloc& _Al) noexcept {

  00000	55		 push	 ebp
  00001	8b ec		 mov	 ebp, esp
  00003	51		 push	 ecx

; 963  :     // note that this is an optimization for debug mode codegen; in release mode the BE removes all of this
; 964  :     using _Ty = typename _Alloc::value_type;
; 965  :     if _CONSTEXPR_IF (!conjunction_v<is_trivially_destructible<_Ty>, _Uses_default_destroy<_Alloc, _Ty*>>) {
; 966  :         for (; _First != _Last; ++_First) {

  00004	eb 09		 jmp	 SHORT $LN4@Destroy_ra
$LN2@Destroy_ra:
  00006	8b 45 08	 mov	 eax, DWORD PTR __First$[ebp]
  00009	83 c0 08	 add	 eax, 8
  0000c	89 45 08	 mov	 DWORD PTR __First$[ebp], eax
$LN4@Destroy_ra:
  0000f	8b 45 08	 mov	 eax, DWORD PTR __First$[ebp]
  00012	3b 45 0c	 cmp	 eax, DWORD PTR __Last$[ebp]
  00015	74 1b		 je	 SHORT $LN5@Destroy_ra
; File C:\Program Files (x86)\Microsoft Visual Studio\2019\Community\VC\Tools\MSVC\14.28.29333\include\xstddef

; 289  :     return _Ptr;

  00017	8b 45 08	 mov	 eax, DWORD PTR __First$[ebp]
  0001a	89 45 fc	 mov	 DWORD PTR $T1[ebp], eax
  0001d	33 c0		 xor	 eax, eax
  0001f	83 e0 01	 and	 eax, 1
  00022	74 0c		 je	 SHORT $LN9@Destroy_ra
  00024	6a 08		 push	 8
  00026	ff 75 fc	 push	 DWORD PTR $T1[ebp]
  00029	e8 00 00 00 00	 call	 ??3@YAXPAXI@Z		; operator delete
  0002e	59		 pop	 ecx
  0002f	59		 pop	 ecx
$LN9@Destroy_ra:
; File C:\Program Files (x86)\Microsoft Visual Studio\2019\Community\VC\Tools\MSVC\14.28.29333\include\xmemory

; 968  :         }

  00030	eb d4		 jmp	 SHORT $LN2@Destroy_ra
$LN5@Destroy_ra:

; 969  :     }
; 970  : }

  00032	c9		 leave
  00033	c3		 ret	 0
??$_Destroy_range@V?$allocator@V?$CTimeEvent@UDWORDCOLOR@@@@@std@@@std@@YAXPAV?$CTimeEvent@UDWORDCOLOR@@@@QAV1@AAV?$allocator@V?$CTimeEvent@UDWORDCOLOR@@@@@0@@Z ENDP ; std::_Destroy_range<std::allocator<CTimeEvent<DWORDCOLOR> > >
_TEXT	ENDS
; Function compile flags: /Odspy
; File C:\Program Files (x86)\Microsoft Visual Studio\2019\Community\VC\Tools\MSVC\14.28.29333\include\xmemory
;	COMDAT ??$_Pocca@V?$allocator@PAVCGraphicImage@@@std@@@std@@YAXAAV?$allocator@PAVCGraphicImage@@@0@ABV10@@Z
_TEXT	SEGMENT
__Left$ = 8						; size = 4
__Right$ = 12						; size = 4
??$_Pocca@V?$allocator@PAVCGraphicImage@@@std@@@std@@YAXAAV?$allocator@PAVCGraphicImage@@@0@ABV10@@Z PROC ; std::_Pocca<std::allocator<CGraphicImage *> >, COMDAT

; 885  : void _Pocca(_Alloc& _Left, const _Alloc& _Right) noexcept {

  00000	55		 push	 ebp
  00001	8b ec		 mov	 ebp, esp

; 886  :     if constexpr (allocator_traits<_Alloc>::propagate_on_container_copy_assignment::value) {
; 887  :         _Left = _Right;
; 888  :     }
; 889  : }

  00003	5d		 pop	 ebp
  00004	c3		 ret	 0
??$_Pocca@V?$allocator@PAVCGraphicImage@@@std@@@std@@YAXAAV?$allocator@PAVCGraphicImage@@@0@ABV10@@Z ENDP ; std::_Pocca<std::allocator<CGraphicImage *> >
_TEXT	ENDS
; Function compile flags: /Odspy
; File C:\Program Files (x86)\Microsoft Visual Studio\2019\Community\VC\Tools\MSVC\14.28.29333\include\xmemory
;	COMDAT ??$_Destroy_range@V?$allocator@PAVCGraphicImage@@@std@@@std@@YAXPAPAVCGraphicImage@@QAPAV1@AAV?$allocator@PAVCGraphicImage@@@0@@Z
_TEXT	SEGMENT
__First$ = 8						; size = 4
__Last$ = 12						; size = 4
__Al$ = 16						; size = 4
??$_Destroy_range@V?$allocator@PAVCGraphicImage@@@std@@@std@@YAXPAPAVCGraphicImage@@QAPAV1@AAV?$allocator@PAVCGraphicImage@@@0@@Z PROC ; std::_Destroy_range<std::allocator<CGraphicImage *> >, COMDAT

; 962  :     _Alloc_ptr_t<_Alloc> _First, const _Alloc_ptr_t<_Alloc> _Last, _Alloc& _Al) noexcept {

  00000	55		 push	 ebp
  00001	8b ec		 mov	 ebp, esp

; 963  :     // note that this is an optimization for debug mode codegen; in release mode the BE removes all of this
; 964  :     using _Ty = typename _Alloc::value_type;
; 965  :     if _CONSTEXPR_IF (!conjunction_v<is_trivially_destructible<_Ty>, _Uses_default_destroy<_Alloc, _Ty*>>) {
; 966  :         for (; _First != _Last; ++_First) {
; 967  :             allocator_traits<_Alloc>::destroy(_Al, _Unfancy(_First));
; 968  :         }
; 969  :     }
; 970  : }

  00003	5d		 pop	 ebp
  00004	c3		 ret	 0
??$_Destroy_range@V?$allocator@PAVCGraphicImage@@@std@@@std@@YAXPAPAVCGraphicImage@@QAPAV1@AAV?$allocator@PAVCGraphicImage@@@0@@Z ENDP ; std::_Destroy_range<std::allocator<CGraphicImage *> >
_TEXT	ENDS
; Function compile flags: /Odspy
; File C:\Program Files (x86)\Microsoft Visual Studio\2019\Community\VC\Tools\MSVC\14.28.29333\include\vector
; File C:\Program Files (x86)\Microsoft Visual Studio\2019\Community\VC\Tools\MSVC\14.28.29333\include\xmemory
; File C:\Program Files (x86)\Microsoft Visual Studio\2019\Community\VC\Tools\MSVC\14.28.29333\include\vector
; File C:\Program Files (x86)\Microsoft Visual Studio\2019\Community\VC\Tools\MSVC\14.28.29333\include\xmemory
; File C:\Program Files (x86)\Microsoft Visual Studio\2019\Community\VC\Tools\MSVC\14.28.29333\include\vector
; File C:\Program Files (x86)\Microsoft Visual Studio\2019\Community\VC\Tools\MSVC\14.28.29333\include\xmemory
; File C:\Program Files (x86)\Microsoft Visual Studio\2019\Community\VC\Tools\MSVC\14.28.29333\include\limits
; File C:\Program Files (x86)\Microsoft Visual Studio\2019\Community\VC\Tools\MSVC\14.28.29333\include\vector
; File C:\Program Files (x86)\Microsoft Visual Studio\2019\Community\VC\Tools\MSVC\14.28.29333\include\utility
; File C:\Program Files (x86)\Microsoft Visual Studio\2019\Community\VC\Tools\MSVC\14.28.29333\include\vector
; File C:\Program Files (x86)\Microsoft Visual Studio\2019\Community\VC\Tools\MSVC\14.28.29333\include\xmemory
; File C:\Program Files (x86)\Microsoft Visual Studio\2019\Community\VC\Tools\MSVC\14.28.29333\include\vector
; File C:\Program Files (x86)\Microsoft Visual Studio\2019\Community\VC\Tools\MSVC\14.28.29333\include\type_traits
; File C:\Program Files (x86)\Microsoft Visual Studio\2019\Community\VC\Tools\MSVC\14.28.29333\include\vector
; File C:\Program Files (x86)\Microsoft Visual Studio\2019\Community\VC\Tools\MSVC\14.28.29333\include\xstddef
; File C:\Program Files (x86)\Microsoft Visual Studio\2019\Community\VC\Tools\MSVC\14.28.29333\include\vcruntime_new.h
; File C:\Program Files (x86)\Microsoft Visual Studio\2019\Community\VC\Tools\MSVC\14.28.29333\include\type_traits
; File C:\Program Files (x86)\Microsoft Visual Studio\2019\Community\VC\Tools\MSVC\14.28.29333\include\xmemory
; File C:\Program Files (x86)\Microsoft Visual Studio\2019\Community\VC\Tools\MSVC\14.28.29333\include\vector
; File C:\Program Files (x86)\Microsoft Visual Studio\2019\Community\VC\Tools\MSVC\14.28.29333\include\xmemory
; File C:\Program Files (x86)\Microsoft Visual Studio\2019\Community\VC\Tools\MSVC\14.28.29333\include\vector
; File C:\Program Files (x86)\Microsoft Visual Studio\2019\Community\VC\Tools\MSVC\14.28.29333\include\xmemory
; File C:\Program Files (x86)\Microsoft Visual Studio\2019\Community\VC\Tools\MSVC\14.28.29333\include\vector
; File C:\Program Files (x86)\Microsoft Visual Studio\2019\Community\VC\Tools\MSVC\14.28.29333\include\xmemory
; File C:\Program Files (x86)\Microsoft Visual Studio\2019\Community\VC\Tools\MSVC\14.28.29333\include\vector
;	COMDAT ??$_Emplace_reallocate@ABQAVCGraphicImage@@@?$vector@PAVCGraphicImage@@V?$allocator@PAVCGraphicImage@@@std@@@std@@QAEPAPAVCGraphicImage@@QAPAV2@ABQAV2@@Z
_TEXT	SEGMENT
__Max_possible$2 = -68					; size = 4
$T3 = -64						; size = 4
__Al$ = -60						; size = 4
__Last$ = -56						; size = 4
$T4 = -52						; size = 4
$T5 = -48						; size = 4
__First$ = -44						; size = 4
$T6 = -40						; size = 4
$T7 = -36						; size = 4
__First$ = -32						; size = 4
__Last$ = -28						; size = 4
$T8 = -24						; size = 4
$T9 = -20						; size = 4
__$EHRec$ = -16						; size = 16
$T10 = 0						; size = 4
$T11 = 4						; size = 4
$T12 = 8						; size = 4
$T13 = 12						; size = 4
$T14 = 16						; size = 4
$T15 = 20						; size = 4
$T16 = 24						; size = 4
$T17 = 28						; size = 4
$T18 = 32						; size = 4
$T19 = 36						; size = 4
$T20 = 40						; size = 4
__Newsize$ = 44						; size = 4
__Constructed_last$ = 48				; size = 4
__Oldsize$ = 52						; size = 4
tv172 = 56						; size = 4
$T21 = 60						; size = 4
$T22 = 64						; size = 4
__My_data$ = 68						; size = 4
__Constructed_first$ = 72				; size = 4
___formal$ = 76						; size = 1
__Overflow_is_possible$23 = 83				; size = 1
__Newcapacity$ = 84					; size = 4
__Mylast$ = 88						; size = 4
__Myfirst$ = 92						; size = 4
__Whereoff$ = 96					; size = 4
$T24 = 103						; size = 1
_this$ = 104						; size = 4
__Newvec$ = 108						; size = 4
__Whereptr$ = 120					; size = 4
_<_Val_0>$ = 124					; size = 4
??$_Emplace_reallocate@ABQAVCGraphicImage@@@?$vector@PAVCGraphicImage@@V?$allocator@PAVCGraphicImage@@@std@@@std@@QAEPAPAVCGraphicImage@@QAPAV2@ABQAV2@@Z PROC ; std::vector<CGraphicImage *,std::allocator<CGraphicImage *> >::_Emplace_reallocate<CGraphicImage * const &>, COMDAT
; _this$ = ecx

; 725  :     pointer _Emplace_reallocate(const pointer _Whereptr, _Valty&&... _Val) {

  00000	55		 push	 ebp
  00001	8d 6c 24 90	 lea	 ebp, DWORD PTR [esp-112]
  00005	83 ec 70	 sub	 esp, 112		; 00000070H
  00008	6a ff		 push	 -1
  0000a	68 00 00 00 00	 push	 __ehhandler$??$_Emplace_reallocate@ABQAVCGraphicImage@@@?$vector@PAVCGraphicImage@@V?$allocator@PAVCGraphicImage@@@std@@@std@@QAEPAPAVCGraphicImage@@QAPAV2@ABQAV2@@Z
  0000f	64 a1 00 00 00
	00		 mov	 eax, DWORD PTR fs:0
  00015	50		 push	 eax
  00016	51		 push	 ecx
  00017	83 ec 34	 sub	 esp, 52			; 00000034H
  0001a	53		 push	 ebx
  0001b	56		 push	 esi
  0001c	57		 push	 edi
  0001d	a1 00 00 00 00	 mov	 eax, DWORD PTR ___security_cookie
  00022	33 c5		 xor	 eax, ebp
  00024	50		 push	 eax
  00025	8d 45 f4	 lea	 eax, DWORD PTR __$EHRec$[ebp+4]
  00028	64 a3 00 00 00
	00		 mov	 DWORD PTR fs:0, eax
  0002e	89 65 f0	 mov	 DWORD PTR __$EHRec$[ebp], esp
  00031	89 4d 68	 mov	 DWORD PTR _this$[ebp], ecx

; 1733 :         return _Mypair._Get_first();

  00034	8b 45 68	 mov	 eax, DWORD PTR _this$[ebp]
; File C:\Program Files (x86)\Microsoft Visual Studio\2019\Community\VC\Tools\MSVC\14.28.29333\include\xmemory

; 1347 :         return *this;

  00037	89 45 28	 mov	 DWORD PTR $T20[ebp], eax
; File C:\Program Files (x86)\Microsoft Visual Studio\2019\Community\VC\Tools\MSVC\14.28.29333\include\vector

; 1733 :         return _Mypair._Get_first();

  0003a	8b 45 28	 mov	 eax, DWORD PTR $T20[ebp]
  0003d	89 45 c4	 mov	 DWORD PTR __Al$[ebp], eax

; 726  :         // reallocate and insert by perfectly forwarding _Val at _Whereptr
; 727  :         _Alty& _Al        = _Getal();
; 728  :         auto& _My_data    = _Mypair._Myval2;

  00040	8b 45 68	 mov	 eax, DWORD PTR _this$[ebp]
  00043	89 45 44	 mov	 DWORD PTR __My_data$[ebp], eax

; 729  :         pointer& _Myfirst = _My_data._Myfirst;

  00046	8b 45 44	 mov	 eax, DWORD PTR __My_data$[ebp]
  00049	89 45 5c	 mov	 DWORD PTR __Myfirst$[ebp], eax

; 730  :         pointer& _Mylast  = _My_data._Mylast;

  0004c	8b 45 44	 mov	 eax, DWORD PTR __My_data$[ebp]
  0004f	83 c0 04	 add	 eax, 4
  00052	89 45 58	 mov	 DWORD PTR __Mylast$[ebp], eax

; 731  : 
; 732  :         _STL_INTERNAL_CHECK(_Mylast == _My_data._Myend); // check that we have no unused capacity
; 733  : 
; 734  :         const auto _Whereoff = static_cast<size_type>(_Whereptr - _Myfirst);

  00055	8b 45 5c	 mov	 eax, DWORD PTR __Myfirst$[ebp]
  00058	8b 4d 78	 mov	 ecx, DWORD PTR __Whereptr$[ebp]
  0005b	2b 08		 sub	 ecx, DWORD PTR [eax]
  0005d	c1 f9 02	 sar	 ecx, 2
  00060	89 4d 60	 mov	 DWORD PTR __Whereoff$[ebp], ecx

; 735  :         const auto _Oldsize  = static_cast<size_type>(_Mylast - _Myfirst);

  00063	8b 45 58	 mov	 eax, DWORD PTR __Mylast$[ebp]
  00066	8b 4d 5c	 mov	 ecx, DWORD PTR __Myfirst$[ebp]
  00069	8b 00		 mov	 eax, DWORD PTR [eax]
  0006b	2b 01		 sub	 eax, DWORD PTR [ecx]
  0006d	c1 f8 02	 sar	 eax, 2
  00070	89 45 34	 mov	 DWORD PTR __Oldsize$[ebp], eax

; 1737 :         return _Mypair._Get_first();

  00073	8b 45 68	 mov	 eax, DWORD PTR _this$[ebp]
; File C:\Program Files (x86)\Microsoft Visual Studio\2019\Community\VC\Tools\MSVC\14.28.29333\include\xmemory

; 1351 :         return *this;

  00076	89 45 24	 mov	 DWORD PTR $T19[ebp], eax
; File C:\Program Files (x86)\Microsoft Visual Studio\2019\Community\VC\Tools\MSVC\14.28.29333\include\vector

; 1737 :         return _Mypair._Get_first();

  00079	8b 45 24	 mov	 eax, DWORD PTR $T19[ebp]
  0007c	89 45 c0	 mov	 DWORD PTR $T3[ebp], eax
; File C:\Program Files (x86)\Microsoft Visual Studio\2019\Community\VC\Tools\MSVC\14.28.29333\include\xmemory

; 710  :         return static_cast<size_t>(-1) / sizeof(value_type);

  0007f	c7 45 40 ff ff
	ff 3f		 mov	 DWORD PTR $T22[ebp], 1073741823 ; 3fffffffH
; File C:\Program Files (x86)\Microsoft Visual Studio\2019\Community\VC\Tools\MSVC\14.28.29333\include\limits

; 557  :         return INT_MAX;

  00086	c7 45 20 ff ff
	ff 7f		 mov	 DWORD PTR $T18[ebp], 2147483647 ; 7fffffffH
; File C:\Program Files (x86)\Microsoft Visual Studio\2019\Community\VC\Tools\MSVC\14.28.29333\include\vector

; 1488 :         return (_STD min)(

  0008d	8b 45 20	 mov	 eax, DWORD PTR $T18[ebp]
  00090	89 45 3c	 mov	 DWORD PTR $T21[ebp], eax
; File C:\Program Files (x86)\Microsoft Visual Studio\2019\Community\VC\Tools\MSVC\14.28.29333\include\utility

; 68   :     return _Right < _Left ? _Right : _Left;

  00093	8b 45 40	 mov	 eax, DWORD PTR $T22[ebp]
  00096	3b 45 3c	 cmp	 eax, DWORD PTR $T21[ebp]
  00099	73 08		 jae	 SHORT $LN34@Emplace_re
  0009b	8d 45 40	 lea	 eax, DWORD PTR $T22[ebp]
  0009e	89 45 38	 mov	 DWORD PTR tv172[ebp], eax
  000a1	eb 06		 jmp	 SHORT $LN35@Emplace_re
$LN34@Emplace_re:
  000a3	8d 45 3c	 lea	 eax, DWORD PTR $T21[ebp]
  000a6	89 45 38	 mov	 DWORD PTR tv172[ebp], eax
$LN35@Emplace_re:
  000a9	8b 45 38	 mov	 eax, DWORD PTR tv172[ebp]
  000ac	89 45 1c	 mov	 DWORD PTR $T17[ebp], eax
  000af	8b 45 1c	 mov	 eax, DWORD PTR $T17[ebp]
  000b2	89 45 18	 mov	 DWORD PTR $T16[ebp], eax
; File C:\Program Files (x86)\Microsoft Visual Studio\2019\Community\VC\Tools\MSVC\14.28.29333\include\vector

; 1488 :         return (_STD min)(

  000b5	8b 45 18	 mov	 eax, DWORD PTR $T16[ebp]
  000b8	8b 00		 mov	 eax, DWORD PTR [eax]
  000ba	89 45 14	 mov	 DWORD PTR $T15[ebp], eax

; 736  : 
; 737  :         if (_Oldsize == max_size()) {

  000bd	8b 45 34	 mov	 eax, DWORD PTR __Oldsize$[ebp]
  000c0	3b 45 14	 cmp	 eax, DWORD PTR $T15[ebp]
  000c3	75 05		 jne	 SHORT $LN2@Emplace_re

; 738  :             _Xlength();

  000c5	e8 00 00 00 00	 call	 ?_Xlength@?$vector@PAVCGraphicImage@@V?$allocator@PAVCGraphicImage@@@std@@@std@@CAXXZ ; std::vector<CGraphicImage *,std::allocator<CGraphicImage *> >::_Xlength
$LN2@Emplace_re:

; 739  :         }
; 740  : 
; 741  :         const size_type _Newsize     = _Oldsize + 1;

  000ca	8b 45 34	 mov	 eax, DWORD PTR __Oldsize$[ebp]
  000cd	40		 inc	 eax
  000ce	89 45 2c	 mov	 DWORD PTR __Newsize$[ebp], eax

; 742  :         const size_type _Newcapacity = _Calculate_growth(_Newsize);

  000d1	ff 75 2c	 push	 DWORD PTR __Newsize$[ebp]
  000d4	8b 4d 68	 mov	 ecx, DWORD PTR _this$[ebp]
  000d7	e8 00 00 00 00	 call	 ?_Calculate_growth@?$vector@PAVCGraphicImage@@V?$allocator@PAVCGraphicImage@@@std@@@std@@ABEII@Z ; std::vector<CGraphicImage *,std::allocator<CGraphicImage *> >::_Calculate_growth
  000dc	89 45 54	 mov	 DWORD PTR __Newcapacity$[ebp], eax
; File C:\Program Files (x86)\Microsoft Visual Studio\2019\Community\VC\Tools\MSVC\14.28.29333\include\xmemory

; 56   :     constexpr bool _Overflow_is_possible = _Ty_size > 1;

  000df	c6 45 53 01	 mov	 BYTE PTR __Overflow_is_possible$23[ebp], 1

; 57   : 
; 58   :     if _CONSTEXPR_IF (_Overflow_is_possible) {
; 59   :         constexpr size_t _Max_possible = static_cast<size_t>(-1) / _Ty_size;

  000e3	c7 45 bc ff ff
	ff 3f		 mov	 DWORD PTR __Max_possible$2[ebp], 1073741823 ; 3fffffffH

; 60   :         if (_Count > _Max_possible) {

  000ea	81 7d 54 ff ff
	ff 3f		 cmp	 DWORD PTR __Newcapacity$[ebp], 1073741823 ; 3fffffffH
  000f1	76 05		 jbe	 SHORT $LN67@Emplace_re

; 61   :             _Throw_bad_array_new_length(); // multiply overflow

  000f3	e8 00 00 00 00	 call	 ?_Throw_bad_array_new_length@std@@YAXXZ ; std::_Throw_bad_array_new_length
$LN67@Emplace_re:

; 62   :         }
; 63   :     }
; 64   : 
; 65   :     return _Count * _Ty_size;

  000f8	8b 45 54	 mov	 eax, DWORD PTR __Newcapacity$[ebp]
  000fb	c1 e0 02	 shl	 eax, 2
  000fe	89 45 10	 mov	 DWORD PTR $T14[ebp], eax

; 814  :         return static_cast<_Ty*>(_Allocate<_New_alignof<_Ty>>(_Get_size_of_n<sizeof(_Ty)>(_Count)));

  00101	ff 75 10	 push	 DWORD PTR $T14[ebp]
  00104	e8 00 00 00 00	 call	 ??$_Allocate@$07U_Default_allocate_traits@std@@$0A@@std@@YAPAXI@Z ; std::_Allocate<8,std::_Default_allocate_traits,0>
  00109	59		 pop	 ecx
  0010a	89 45 6c	 mov	 DWORD PTR __Newvec$[ebp], eax
; File C:\Program Files (x86)\Microsoft Visual Studio\2019\Community\VC\Tools\MSVC\14.28.29333\include\vector

; 745  :         const pointer _Constructed_last = _Newvec + _Whereoff + 1;

  0010d	8b 45 60	 mov	 eax, DWORD PTR __Whereoff$[ebp]
  00110	8b 4d 6c	 mov	 ecx, DWORD PTR __Newvec$[ebp]
  00113	8d 44 81 04	 lea	 eax, DWORD PTR [ecx+eax*4+4]
  00117	89 45 30	 mov	 DWORD PTR __Constructed_last$[ebp], eax

; 746  :         pointer _Constructed_first      = _Constructed_last;

  0011a	8b 45 30	 mov	 eax, DWORD PTR __Constructed_last$[ebp]
  0011d	89 45 48	 mov	 DWORD PTR __Constructed_first$[ebp], eax

; 747  : 
; 748  :         _TRY_BEGIN

  00120	83 65 fc 00	 and	 DWORD PTR __$EHRec$[ebp+12], 0
; File C:\Program Files (x86)\Microsoft Visual Studio\2019\Community\VC\Tools\MSVC\14.28.29333\include\type_traits

; 1443 :     return static_cast<_Ty&&>(_Arg);

  00124	8b 45 7c	 mov	 eax, DWORD PTR _<_Val_0>$[ebp]
  00127	89 45 08	 mov	 DWORD PTR $T12[ebp], eax
; File C:\Program Files (x86)\Microsoft Visual Studio\2019\Community\VC\Tools\MSVC\14.28.29333\include\vector

; 749  :         _Alty_traits::construct(_Al, _Unfancy(_Newvec + _Whereoff), _STD forward<_Valty>(_Val)...);

  0012a	8b 45 60	 mov	 eax, DWORD PTR __Whereoff$[ebp]
  0012d	8b 4d 6c	 mov	 ecx, DWORD PTR __Newvec$[ebp]
  00130	8d 04 81	 lea	 eax, DWORD PTR [ecx+eax*4]
; File C:\Program Files (x86)\Microsoft Visual Studio\2019\Community\VC\Tools\MSVC\14.28.29333\include\xstddef

; 289  :     return _Ptr;

  00133	89 45 0c	 mov	 DWORD PTR $T13[ebp], eax
; File C:\Program Files (x86)\Microsoft Visual Studio\2019\Community\VC\Tools\MSVC\14.28.29333\include\vcruntime_new.h

; 169  :         return _Where;

  00136	8b 45 0c	 mov	 eax, DWORD PTR $T13[ebp]
  00139	89 45 04	 mov	 DWORD PTR $T11[ebp], eax
; File C:\Program Files (x86)\Microsoft Visual Studio\2019\Community\VC\Tools\MSVC\14.28.29333\include\type_traits

; 1443 :     return static_cast<_Ty&&>(_Arg);

  0013c	8b 45 08	 mov	 eax, DWORD PTR $T12[ebp]
  0013f	89 45 00	 mov	 DWORD PTR $T10[ebp], eax
; File C:\Program Files (x86)\Microsoft Visual Studio\2019\Community\VC\Tools\MSVC\14.28.29333\include\xmemory

; 701  :         ::new (const_cast<void*>(static_cast<const volatile void*>(_Ptr))) _Objty(_STD forward<_Types>(_Args)...);

  00142	8b 45 04	 mov	 eax, DWORD PTR $T11[ebp]
  00145	8b 4d 00	 mov	 ecx, DWORD PTR $T10[ebp]
  00148	8b 09		 mov	 ecx, DWORD PTR [ecx]
  0014a	89 08		 mov	 DWORD PTR [eax], ecx
; File C:\Program Files (x86)\Microsoft Visual Studio\2019\Community\VC\Tools\MSVC\14.28.29333\include\vector

; 750  :         _Constructed_first = _Newvec + _Whereoff;

  0014c	8b 45 60	 mov	 eax, DWORD PTR __Whereoff$[ebp]
  0014f	8b 4d 6c	 mov	 ecx, DWORD PTR __Newvec$[ebp]
  00152	8d 04 81	 lea	 eax, DWORD PTR [ecx+eax*4]
  00155	89 45 48	 mov	 DWORD PTR __Constructed_first$[ebp], eax

; 751  : 
; 752  :         if (_Whereptr == _Mylast) { // at back, provide strong guarantee

  00158	8b 45 58	 mov	 eax, DWORD PTR __Mylast$[ebp]
  0015b	8b 4d 78	 mov	 ecx, DWORD PTR __Whereptr$[ebp]
  0015e	3b 08		 cmp	 ecx, DWORD PTR [eax]
  00160	75 3d		 jne	 SHORT $LN4@Emplace_re

; 753  :             _Umove_if_noexcept(_Myfirst, _Mylast, _Newvec);

  00162	8b 45 58	 mov	 eax, DWORD PTR __Mylast$[ebp]
  00165	8b 00		 mov	 eax, DWORD PTR [eax]
  00167	89 45 e4	 mov	 DWORD PTR __Last$[ebp], eax
  0016a	8b 45 5c	 mov	 eax, DWORD PTR __Myfirst$[ebp]
  0016d	8b 00		 mov	 eax, DWORD PTR [eax]
  0016f	89 45 e0	 mov	 DWORD PTR __First$[ebp], eax

; 1607 :         _Umove_if_noexcept1(_First, _Last, _Dest,

  00172	33 c0		 xor	 eax, eax
  00174	88 45 67	 mov	 BYTE PTR $T24[ebp], al
  00177	8a 45 67	 mov	 al, BYTE PTR $T24[ebp]
  0017a	88 45 4c	 mov	 BYTE PTR ___formal$[ebp], al

; 1733 :         return _Mypair._Get_first();

  0017d	8b 45 68	 mov	 eax, DWORD PTR _this$[ebp]
; File C:\Program Files (x86)\Microsoft Visual Studio\2019\Community\VC\Tools\MSVC\14.28.29333\include\xmemory

; 1347 :         return *this;

  00180	89 45 ec	 mov	 DWORD PTR $T9[ebp], eax
; File C:\Program Files (x86)\Microsoft Visual Studio\2019\Community\VC\Tools\MSVC\14.28.29333\include\vector

; 1733 :         return _Mypair._Get_first();

  00183	8b 45 ec	 mov	 eax, DWORD PTR $T9[ebp]
  00186	89 45 e8	 mov	 DWORD PTR $T8[ebp], eax

; 1597 :         _Uninitialized_move(_First, _Last, _Dest, _Getal());

  00189	ff 75 e8	 push	 DWORD PTR $T8[ebp]
  0018c	ff 75 6c	 push	 DWORD PTR __Newvec$[ebp]
  0018f	ff 75 e4	 push	 DWORD PTR __Last$[ebp]
  00192	ff 75 e0	 push	 DWORD PTR __First$[ebp]
  00195	e8 00 00 00 00	 call	 ??$_Uninitialized_move@PAPAVCGraphicImage@@V?$allocator@PAVCGraphicImage@@@std@@@std@@YAPAPAVCGraphicImage@@QAPAV1@0PAPAV1@AAV?$allocator@PAVCGraphicImage@@@0@@Z ; std::_Uninitialized_move<CGraphicImage * *,std::allocator<CGraphicImage *> >
  0019a	83 c4 10	 add	 esp, 16			; 00000010H

; 754  :         } else { // provide basic guarantee

  0019d	eb 5e		 jmp	 SHORT $LN5@Emplace_re
$LN4@Emplace_re:

; 755  :             _Umove(_Myfirst, _Whereptr, _Newvec);

  0019f	8b 45 5c	 mov	 eax, DWORD PTR __Myfirst$[ebp]
  001a2	8b 00		 mov	 eax, DWORD PTR [eax]
  001a4	89 45 d4	 mov	 DWORD PTR __First$[ebp], eax

; 1733 :         return _Mypair._Get_first();

  001a7	8b 45 68	 mov	 eax, DWORD PTR _this$[ebp]
; File C:\Program Files (x86)\Microsoft Visual Studio\2019\Community\VC\Tools\MSVC\14.28.29333\include\xmemory

; 1347 :         return *this;

  001aa	89 45 dc	 mov	 DWORD PTR $T7[ebp], eax
; File C:\Program Files (x86)\Microsoft Visual Studio\2019\Community\VC\Tools\MSVC\14.28.29333\include\vector

; 1733 :         return _Mypair._Get_first();

  001ad	8b 45 dc	 mov	 eax, DWORD PTR $T7[ebp]
  001b0	89 45 d8	 mov	 DWORD PTR $T6[ebp], eax

; 1592 :         return _Uninitialized_move(_First, _Last, _Dest, _Getal());

  001b3	ff 75 d8	 push	 DWORD PTR $T6[ebp]
  001b6	ff 75 6c	 push	 DWORD PTR __Newvec$[ebp]
  001b9	ff 75 78	 push	 DWORD PTR __Whereptr$[ebp]
  001bc	ff 75 d4	 push	 DWORD PTR __First$[ebp]
  001bf	e8 00 00 00 00	 call	 ??$_Uninitialized_move@PAPAVCGraphicImage@@V?$allocator@PAVCGraphicImage@@@std@@@std@@YAPAPAVCGraphicImage@@QAPAV1@0PAPAV1@AAV?$allocator@PAVCGraphicImage@@@0@@Z ; std::_Uninitialized_move<CGraphicImage * *,std::allocator<CGraphicImage *> >
  001c4	83 c4 10	 add	 esp, 16			; 00000010H

; 756  :             _Constructed_first = _Newvec;

  001c7	8b 45 6c	 mov	 eax, DWORD PTR __Newvec$[ebp]
  001ca	89 45 48	 mov	 DWORD PTR __Constructed_first$[ebp], eax

; 757  :             _Umove(_Whereptr, _Mylast, _Newvec + _Whereoff + 1);

  001cd	8b 45 58	 mov	 eax, DWORD PTR __Mylast$[ebp]
  001d0	8b 00		 mov	 eax, DWORD PTR [eax]
  001d2	89 45 c8	 mov	 DWORD PTR __Last$[ebp], eax

; 1733 :         return _Mypair._Get_first();

  001d5	8b 45 68	 mov	 eax, DWORD PTR _this$[ebp]
; File C:\Program Files (x86)\Microsoft Visual Studio\2019\Community\VC\Tools\MSVC\14.28.29333\include\xmemory

; 1347 :         return *this;

  001d8	89 45 d0	 mov	 DWORD PTR $T5[ebp], eax
; File C:\Program Files (x86)\Microsoft Visual Studio\2019\Community\VC\Tools\MSVC\14.28.29333\include\vector

; 1733 :         return _Mypair._Get_first();

  001db	8b 45 d0	 mov	 eax, DWORD PTR $T5[ebp]
  001de	89 45 cc	 mov	 DWORD PTR $T4[ebp], eax

; 1592 :         return _Uninitialized_move(_First, _Last, _Dest, _Getal());

  001e1	ff 75 cc	 push	 DWORD PTR $T4[ebp]

; 757  :             _Umove(_Whereptr, _Mylast, _Newvec + _Whereoff + 1);

  001e4	8b 45 60	 mov	 eax, DWORD PTR __Whereoff$[ebp]
  001e7	8b 4d 6c	 mov	 ecx, DWORD PTR __Newvec$[ebp]
  001ea	8d 44 81 04	 lea	 eax, DWORD PTR [ecx+eax*4+4]

; 1592 :         return _Uninitialized_move(_First, _Last, _Dest, _Getal());

  001ee	50		 push	 eax
  001ef	ff 75 c8	 push	 DWORD PTR __Last$[ebp]
  001f2	ff 75 78	 push	 DWORD PTR __Whereptr$[ebp]
  001f5	e8 00 00 00 00	 call	 ??$_Uninitialized_move@PAPAVCGraphicImage@@V?$allocator@PAVCGraphicImage@@@std@@@std@@YAPAPAVCGraphicImage@@QAPAV1@0PAPAV1@AAV?$allocator@PAVCGraphicImage@@@0@@Z ; std::_Uninitialized_move<CGraphicImage * *,std::allocator<CGraphicImage *> >
  001fa	83 c4 10	 add	 esp, 16			; 00000010H
$LN5@Emplace_re:

; 757  :             _Umove(_Whereptr, _Mylast, _Newvec + _Whereoff + 1);

  001fd	eb 2b		 jmp	 SHORT $LN7@Emplace_re
__catch$??$_Emplace_reallocate@ABQAVCGraphicImage@@@?$vector@PAVCGraphicImage@@V?$allocator@PAVCGraphicImage@@@std@@@std@@QAEPAPAVCGraphicImage@@QAPAV2@ABQAV2@@Z$0:

; 758  :         }
; 759  :         _CATCH_ALL
; 760  :         _Destroy(_Constructed_first, _Constructed_last);

  001ff	ff 75 30	 push	 DWORD PTR __Constructed_last$[ebp]
  00202	ff 75 48	 push	 DWORD PTR __Constructed_first$[ebp]
  00205	8b 4d 68	 mov	 ecx, DWORD PTR _this$[ebp]
  00208	e8 00 00 00 00	 call	 ?_Destroy@?$vector@PAVCGraphicImage@@V?$allocator@PAVCGraphicImage@@@std@@@std@@AAEXPAPAVCGraphicImage@@0@Z ; std::vector<CGraphicImage *,std::allocator<CGraphicImage *> >::_Destroy

; 761  :         _Al.deallocate(_Newvec, _Newcapacity);

  0020d	ff 75 54	 push	 DWORD PTR __Newcapacity$[ebp]
  00210	ff 75 6c	 push	 DWORD PTR __Newvec$[ebp]
  00213	8b 4d c4	 mov	 ecx, DWORD PTR __Al$[ebp]
  00216	e8 00 00 00 00	 call	 ?deallocate@?$allocator@PAVCGraphicImage@@@std@@QAEXQAPAVCGraphicImage@@I@Z ; std::allocator<CGraphicImage *>::deallocate

; 762  :         _RERAISE;

  0021b	6a 00		 push	 0
  0021d	6a 00		 push	 0
  0021f	e8 00 00 00 00	 call	 __CxxThrowException@8

; 763  :         _CATCH_END

  00224	b8 00 00 00 00	 mov	 eax, $LN10@Emplace_re
  00229	c3		 ret	 0
$LN7@Emplace_re:
  0022a	83 4d fc ff	 or	 DWORD PTR __$EHRec$[ebp+12], -1
  0022e	eb 04		 jmp	 SHORT __tryend$??$_Emplace_reallocate@ABQAVCGraphicImage@@@?$vector@PAVCGraphicImage@@V?$allocator@PAVCGraphicImage@@@std@@@std@@QAEPAPAVCGraphicImage@@QAPAV2@ABQAV2@@Z$1
$LN10@Emplace_re:
; File C:\Program Files (x86)\Microsoft Visual Studio\2019\Community\VC\Tools\MSVC\14.28.29333\include\xmemory
  00230	83 4d fc ff	 or	 DWORD PTR __$EHRec$[ebp+12], -1
__tryend$??$_Emplace_reallocate@ABQAVCGraphicImage@@@?$vector@PAVCGraphicImage@@V?$allocator@PAVCGraphicImage@@@std@@@std@@QAEPAPAVCGraphicImage@@QAPAV2@ABQAV2@@Z$1:
; File C:\Program Files (x86)\Microsoft Visual Studio\2019\Community\VC\Tools\MSVC\14.28.29333\include\vector

; 764  : 
; 765  :         _Change_array(_Newvec, _Newsize, _Newcapacity);

  00234	ff 75 54	 push	 DWORD PTR __Newcapacity$[ebp]
  00237	ff 75 2c	 push	 DWORD PTR __Newsize$[ebp]
  0023a	ff 75 6c	 push	 DWORD PTR __Newvec$[ebp]
  0023d	8b 4d 68	 mov	 ecx, DWORD PTR _this$[ebp]
  00240	e8 00 00 00 00	 call	 ?_Change_array@?$vector@PAVCGraphicImage@@V?$allocator@PAVCGraphicImage@@@std@@@std@@AAEXQAPAVCGraphicImage@@II@Z ; std::vector<CGraphicImage *,std::allocator<CGraphicImage *> >::_Change_array

; 766  :         return _Newvec + _Whereoff;

  00245	8b 45 60	 mov	 eax, DWORD PTR __Whereoff$[ebp]
  00248	8b 4d 6c	 mov	 ecx, DWORD PTR __Newvec$[ebp]
  0024b	8d 04 81	 lea	 eax, DWORD PTR [ecx+eax*4]
$LN70@Emplace_re:

; 767  :     }

  0024e	8b 4d f4	 mov	 ecx, DWORD PTR __$EHRec$[ebp+4]
  00251	64 89 0d 00 00
	00 00		 mov	 DWORD PTR fs:0, ecx
  00258	59		 pop	 ecx
  00259	5f		 pop	 edi
  0025a	5e		 pop	 esi
  0025b	5b		 pop	 ebx
  0025c	83 c5 70	 add	 ebp, 112		; 00000070H
  0025f	c9		 leave
  00260	c2 08 00	 ret	 8
  00263	cc		 int	 3
  00264	cc		 int	 3
  00265	cc		 int	 3
  00266	cc		 int	 3
  00267	cc		 int	 3
_TEXT	ENDS
;	COMDAT text$x
text$x	SEGMENT
__ehhandler$??$_Emplace_reallocate@ABQAVCGraphicImage@@@?$vector@PAVCGraphicImage@@V?$allocator@PAVCGraphicImage@@@std@@@std@@QAEPAPAVCGraphicImage@@QAPAV2@ABQAV2@@Z:
  00000	90		 npad	 1
  00001	90		 npad	 1
  00002	8b 54 24 08	 mov	 edx, DWORD PTR [esp+8]
  00006	8d 42 0c	 lea	 eax, DWORD PTR [edx+12]
  00009	8b 4a b8	 mov	 ecx, DWORD PTR [edx-72]
  0000c	33 c8		 xor	 ecx, eax
  0000e	e8 00 00 00 00	 call	 @__security_check_cookie@4
  00013	b8 00 00 00 00	 mov	 eax, OFFSET __ehfuncinfo$??$_Emplace_reallocate@ABQAVCGraphicImage@@@?$vector@PAVCGraphicImage@@V?$allocator@PAVCGraphicImage@@@std@@@std@@QAEPAPAVCGraphicImage@@QAPAV2@ABQAV2@@Z
  00018	e9 00 00 00 00	 jmp	 ___CxxFrameHandler3
text$x	ENDS
??$_Emplace_reallocate@ABQAVCGraphicImage@@@?$vector@PAVCGraphicImage@@V?$allocator@PAVCGraphicImage@@@std@@@std@@QAEPAPAVCGraphicImage@@QAPAV2@ABQAV2@@Z ENDP ; std::vector<CGraphicImage *,std::allocator<CGraphicImage *> >::_Emplace_reallocate<CGraphicImage * const &>
; Function compile flags: /Odspy
; File C:\Program Files (x86)\Microsoft Visual Studio\2019\Community\VC\Tools\MSVC\14.28.29333\include\vector
; File C:\Program Files (x86)\Microsoft Visual Studio\2019\Community\VC\Tools\MSVC\14.28.29333\include\type_traits
; File C:\Program Files (x86)\Microsoft Visual Studio\2019\Community\VC\Tools\MSVC\14.28.29333\include\vector
; File C:\Program Files (x86)\Microsoft Visual Studio\2019\Community\VC\Tools\MSVC\14.28.29333\include\xstddef
; File C:\Program Files (x86)\Microsoft Visual Studio\2019\Community\VC\Tools\MSVC\14.28.29333\include\vector
; File C:\Program Files (x86)\Microsoft Visual Studio\2019\Community\VC\Tools\MSVC\14.28.29333\include\xmemory
; File C:\Program Files (x86)\Microsoft Visual Studio\2019\Community\VC\Tools\MSVC\14.28.29333\include\vector
; File C:\Program Files (x86)\Microsoft Visual Studio\2019\Community\VC\Tools\MSVC\14.28.29333\include\vcruntime_new.h
; File C:\Program Files (x86)\Microsoft Visual Studio\2019\Community\VC\Tools\MSVC\14.28.29333\include\type_traits
; File C:\Program Files (x86)\Microsoft Visual Studio\2019\Community\VC\Tools\MSVC\14.28.29333\include\xmemory
; File C:\Program Files (x86)\Microsoft Visual Studio\2019\Community\VC\Tools\MSVC\14.28.29333\include\vector
;	COMDAT ??$_Emplace_back_with_unused_capacity@ABQAVCGraphicImage@@@?$vector@PAVCGraphicImage@@V?$allocator@PAVCGraphicImage@@@std@@@std@@AAEXABQAVCGraphicImage@@@Z
_TEXT	SEGMENT
__Result$ = -44						; size = 4
$T1 = -40						; size = 4
$T2 = -36						; size = 4
$T3 = -32						; size = 4
$T4 = -28						; size = 4
$T5 = -24						; size = 4
$T6 = -20						; size = 4
__Ptr$ = -16						; size = 4
__My_data$ = -12					; size = 4
_this$ = -8						; size = 4
__Mylast$ = -4						; size = 4
_<_Val_0>$ = 8						; size = 4
??$_Emplace_back_with_unused_capacity@ABQAVCGraphicImage@@@?$vector@PAVCGraphicImage@@V?$allocator@PAVCGraphicImage@@@std@@@std@@AAEXABQAVCGraphicImage@@@Z PROC ; std::vector<CGraphicImage *,std::allocator<CGraphicImage *> >::_Emplace_back_with_unused_capacity<CGraphicImage * const &>, COMDAT
; _this$ = ecx

; 682  :     decltype(auto) _Emplace_back_with_unused_capacity(_Valty&&... _Val) {

  00000	55		 push	 ebp
  00001	8b ec		 mov	 ebp, esp
  00003	83 ec 2c	 sub	 esp, 44			; 0000002cH
  00006	89 4d f8	 mov	 DWORD PTR _this$[ebp], ecx

; 683  :         // insert by perfectly forwarding into element at end, provide strong guarantee
; 684  :         auto& _My_data   = _Mypair._Myval2;

  00009	8b 45 f8	 mov	 eax, DWORD PTR _this$[ebp]
  0000c	89 45 f4	 mov	 DWORD PTR __My_data$[ebp], eax

; 685  :         pointer& _Mylast = _My_data._Mylast;

  0000f	8b 45 f4	 mov	 eax, DWORD PTR __My_data$[ebp]
  00012	83 c0 04	 add	 eax, 4
  00015	89 45 fc	 mov	 DWORD PTR __Mylast$[ebp], eax
; File C:\Program Files (x86)\Microsoft Visual Studio\2019\Community\VC\Tools\MSVC\14.28.29333\include\type_traits

; 1443 :     return static_cast<_Ty&&>(_Arg);

  00018	8b 45 08	 mov	 eax, DWORD PTR _<_Val_0>$[ebp]
  0001b	89 45 e4	 mov	 DWORD PTR $T4[ebp], eax
; File C:\Program Files (x86)\Microsoft Visual Studio\2019\Community\VC\Tools\MSVC\14.28.29333\include\vector

; 687  :         _Alty_traits::construct(_Getal(), _Unfancy(_Mylast), _STD forward<_Valty>(_Val)...);

  0001e	8b 45 fc	 mov	 eax, DWORD PTR __Mylast$[ebp]
  00021	8b 00		 mov	 eax, DWORD PTR [eax]
  00023	89 45 f0	 mov	 DWORD PTR __Ptr$[ebp], eax
; File C:\Program Files (x86)\Microsoft Visual Studio\2019\Community\VC\Tools\MSVC\14.28.29333\include\xstddef

; 289  :     return _Ptr;

  00026	8b 45 f0	 mov	 eax, DWORD PTR __Ptr$[ebp]
  00029	89 45 e8	 mov	 DWORD PTR $T5[ebp], eax
; File C:\Program Files (x86)\Microsoft Visual Studio\2019\Community\VC\Tools\MSVC\14.28.29333\include\vector

; 1733 :         return _Mypair._Get_first();

  0002c	8b 45 f8	 mov	 eax, DWORD PTR _this$[ebp]
; File C:\Program Files (x86)\Microsoft Visual Studio\2019\Community\VC\Tools\MSVC\14.28.29333\include\xmemory

; 1347 :         return *this;

  0002f	89 45 ec	 mov	 DWORD PTR $T6[ebp], eax
; File C:\Program Files (x86)\Microsoft Visual Studio\2019\Community\VC\Tools\MSVC\14.28.29333\include\vector

; 1733 :         return _Mypair._Get_first();

  00032	8b 45 ec	 mov	 eax, DWORD PTR $T6[ebp]
  00035	89 45 d8	 mov	 DWORD PTR $T1[ebp], eax
; File C:\Program Files (x86)\Microsoft Visual Studio\2019\Community\VC\Tools\MSVC\14.28.29333\include\vcruntime_new.h

; 169  :         return _Where;

  00038	8b 45 e8	 mov	 eax, DWORD PTR $T5[ebp]
  0003b	89 45 e0	 mov	 DWORD PTR $T3[ebp], eax
; File C:\Program Files (x86)\Microsoft Visual Studio\2019\Community\VC\Tools\MSVC\14.28.29333\include\type_traits

; 1443 :     return static_cast<_Ty&&>(_Arg);

  0003e	8b 45 e4	 mov	 eax, DWORD PTR $T4[ebp]
  00041	89 45 dc	 mov	 DWORD PTR $T2[ebp], eax
; File C:\Program Files (x86)\Microsoft Visual Studio\2019\Community\VC\Tools\MSVC\14.28.29333\include\xmemory

; 701  :         ::new (const_cast<void*>(static_cast<const volatile void*>(_Ptr))) _Objty(_STD forward<_Types>(_Args)...);

  00044	8b 45 e0	 mov	 eax, DWORD PTR $T3[ebp]
  00047	8b 4d dc	 mov	 ecx, DWORD PTR $T2[ebp]
  0004a	8b 09		 mov	 ecx, DWORD PTR [ecx]
  0004c	89 08		 mov	 DWORD PTR [eax], ecx
; File C:\Program Files (x86)\Microsoft Visual Studio\2019\Community\VC\Tools\MSVC\14.28.29333\include\vector

; 689  :         _Ty& _Result = *_Mylast;

  0004e	8b 45 fc	 mov	 eax, DWORD PTR __Mylast$[ebp]
  00051	8b 00		 mov	 eax, DWORD PTR [eax]
  00053	89 45 d4	 mov	 DWORD PTR __Result$[ebp], eax

; 690  :         ++_Mylast;

  00056	8b 45 fc	 mov	 eax, DWORD PTR __Mylast$[ebp]
  00059	8b 00		 mov	 eax, DWORD PTR [eax]
  0005b	83 c0 04	 add	 eax, 4
  0005e	8b 4d fc	 mov	 ecx, DWORD PTR __Mylast$[ebp]
  00061	89 01		 mov	 DWORD PTR [ecx], eax

; 691  : #if _HAS_CXX17
; 692  :         return _Result;
; 693  : #else // ^^^ _HAS_CXX17 ^^^ // vvv !_HAS_CXX17 vvv
; 694  :         (void) _Result;
; 695  : #endif // _HAS_CXX17
; 696  :     }

  00063	c9		 leave
  00064	c2 04 00	 ret	 4
??$_Emplace_back_with_unused_capacity@ABQAVCGraphicImage@@@?$vector@PAVCGraphicImage@@V?$allocator@PAVCGraphicImage@@@std@@@std@@AAEXABQAVCGraphicImage@@@Z ENDP ; std::vector<CGraphicImage *,std::allocator<CGraphicImage *> >::_Emplace_back_with_unused_capacity<CGraphicImage * const &>
_TEXT	ENDS
; Function compile flags: /Odspy
; File C:\Program Files (x86)\Microsoft Visual Studio\2019\Community\VC\Tools\MSVC\14.28.29333\include\vector
; File C:\Program Files (x86)\Microsoft Visual Studio\2019\Community\VC\Tools\MSVC\14.28.29333\include\type_traits
; File C:\Program Files (x86)\Microsoft Visual Studio\2019\Community\VC\Tools\MSVC\14.28.29333\include\vector
; File C:\Program Files (x86)\Microsoft Visual Studio\2019\Community\VC\Tools\MSVC\14.28.29333\include\type_traits
; File C:\Program Files (x86)\Microsoft Visual Studio\2019\Community\VC\Tools\MSVC\14.28.29333\include\vector
;	COMDAT ??$emplace_back@ABQAVCGraphicImage@@@?$vector@PAVCGraphicImage@@V?$allocator@PAVCGraphicImage@@@std@@@std@@QAEXABQAVCGraphicImage@@@Z
_TEXT	SEGMENT
__Result$ = -24						; size = 4
$T1 = -20						; size = 4
$T2 = -16						; size = 4
__Mylast$ = -12						; size = 4
__My_data$ = -8						; size = 4
_this$ = -4						; size = 4
_<_Val_0>$ = 8						; size = 4
??$emplace_back@ABQAVCGraphicImage@@@?$vector@PAVCGraphicImage@@V?$allocator@PAVCGraphicImage@@@std@@@std@@QAEXABQAVCGraphicImage@@@Z PROC ; std::vector<CGraphicImage *,std::allocator<CGraphicImage *> >::emplace_back<CGraphicImage * const &>, COMDAT
; _this$ = ecx

; 700  :     decltype(auto) emplace_back(_Valty&&... _Val) {

  00000	55		 push	 ebp
  00001	8b ec		 mov	 ebp, esp
  00003	83 ec 18	 sub	 esp, 24			; 00000018H
  00006	89 4d fc	 mov	 DWORD PTR _this$[ebp], ecx

; 701  :         // insert by perfectly forwarding into element at end, provide strong guarantee
; 702  :         auto& _My_data   = _Mypair._Myval2;

  00009	8b 45 fc	 mov	 eax, DWORD PTR _this$[ebp]
  0000c	89 45 f8	 mov	 DWORD PTR __My_data$[ebp], eax

; 703  :         pointer& _Mylast = _My_data._Mylast;

  0000f	8b 45 f8	 mov	 eax, DWORD PTR __My_data$[ebp]
  00012	83 c0 04	 add	 eax, 4
  00015	89 45 f4	 mov	 DWORD PTR __Mylast$[ebp], eax

; 704  :         if (_Mylast != _My_data._Myend) {

  00018	8b 45 f4	 mov	 eax, DWORD PTR __Mylast$[ebp]
  0001b	8b 4d f8	 mov	 ecx, DWORD PTR __My_data$[ebp]
  0001e	8b 00		 mov	 eax, DWORD PTR [eax]
  00020	3b 41 08	 cmp	 eax, DWORD PTR [ecx+8]
  00023	74 13		 je	 SHORT $LN2@emplace_ba
; File C:\Program Files (x86)\Microsoft Visual Studio\2019\Community\VC\Tools\MSVC\14.28.29333\include\type_traits

; 1443 :     return static_cast<_Ty&&>(_Arg);

  00025	8b 45 08	 mov	 eax, DWORD PTR _<_Val_0>$[ebp]
  00028	89 45 f0	 mov	 DWORD PTR $T2[ebp], eax
; File C:\Program Files (x86)\Microsoft Visual Studio\2019\Community\VC\Tools\MSVC\14.28.29333\include\vector

; 705  :             return _Emplace_back_with_unused_capacity(_STD forward<_Valty>(_Val)...);

  0002b	ff 75 f0	 push	 DWORD PTR $T2[ebp]
  0002e	8b 4d fc	 mov	 ecx, DWORD PTR _this$[ebp]
  00031	e8 00 00 00 00	 call	 ??$_Emplace_back_with_unused_capacity@ABQAVCGraphicImage@@@?$vector@PAVCGraphicImage@@V?$allocator@PAVCGraphicImage@@@std@@@std@@AAEXABQAVCGraphicImage@@@Z ; std::vector<CGraphicImage *,std::allocator<CGraphicImage *> >::_Emplace_back_with_unused_capacity<CGraphicImage * const &>
  00036	eb 19		 jmp	 SHORT $LN1@emplace_ba
$LN2@emplace_ba:
; File C:\Program Files (x86)\Microsoft Visual Studio\2019\Community\VC\Tools\MSVC\14.28.29333\include\type_traits

; 1443 :     return static_cast<_Ty&&>(_Arg);

  00038	8b 45 08	 mov	 eax, DWORD PTR _<_Val_0>$[ebp]
  0003b	89 45 ec	 mov	 DWORD PTR $T1[ebp], eax
; File C:\Program Files (x86)\Microsoft Visual Studio\2019\Community\VC\Tools\MSVC\14.28.29333\include\vector

; 708  :         _Ty& _Result = *_Emplace_reallocate(_Mylast, _STD forward<_Valty>(_Val)...);

  0003e	ff 75 ec	 push	 DWORD PTR $T1[ebp]
  00041	8b 45 f4	 mov	 eax, DWORD PTR __Mylast$[ebp]
  00044	ff 30		 push	 DWORD PTR [eax]
  00046	8b 4d fc	 mov	 ecx, DWORD PTR _this$[ebp]
  00049	e8 00 00 00 00	 call	 ??$_Emplace_reallocate@ABQAVCGraphicImage@@@?$vector@PAVCGraphicImage@@V?$allocator@PAVCGraphicImage@@@std@@@std@@QAEPAPAVCGraphicImage@@QAPAV2@ABQAV2@@Z ; std::vector<CGraphicImage *,std::allocator<CGraphicImage *> >::_Emplace_reallocate<CGraphicImage * const &>
  0004e	89 45 e8	 mov	 DWORD PTR __Result$[ebp], eax
$LN1@emplace_ba:

; 709  : #if _HAS_CXX17
; 710  :         return _Result;
; 711  : #else // ^^^ _HAS_CXX17 ^^^ // vvv !_HAS_CXX17 vvv
; 712  :         (void) _Result;
; 713  : #endif // _HAS_CXX17
; 714  :     }

  00051	c9		 leave
  00052	c2 04 00	 ret	 4
??$emplace_back@ABQAVCGraphicImage@@@?$vector@PAVCGraphicImage@@V?$allocator@PAVCGraphicImage@@@std@@@std@@QAEXABQAVCGraphicImage@@@Z ENDP ; std::vector<CGraphicImage *,std::allocator<CGraphicImage *> >::emplace_back<CGraphicImage * const &>
_TEXT	ENDS
; Function compile flags: /Odspy
;	COMDAT ??_GCParticleProperty@@UAEPAXI@Z
_TEXT	SEGMENT
_this$ = -4						; size = 4
___flags$ = 8						; size = 4
??_GCParticleProperty@@UAEPAXI@Z PROC			; CParticleProperty::`scalar deleting destructor', COMDAT
; _this$ = ecx
  00000	55		 push	 ebp
  00001	8b ec		 mov	 ebp, esp
  00003	51		 push	 ecx
  00004	89 4d fc	 mov	 DWORD PTR _this$[ebp], ecx
  00007	8b 4d fc	 mov	 ecx, DWORD PTR _this$[ebp]
  0000a	e8 00 00 00 00	 call	 ??1CParticleProperty@@UAE@XZ ; CParticleProperty::~CParticleProperty
  0000f	8b 45 08	 mov	 eax, DWORD PTR ___flags$[ebp]
  00012	83 e0 01	 and	 eax, 1
  00015	74 0f		 je	 SHORT $LN2@scalar
  00017	68 88 00 00 00	 push	 136			; 00000088H
  0001c	ff 75 fc	 push	 DWORD PTR _this$[ebp]
  0001f	e8 00 00 00 00	 call	 ??3@YAXPAXI@Z		; operator delete
  00024	59		 pop	 ecx
  00025	59		 pop	 ecx
$LN2@scalar:
  00026	8b 45 fc	 mov	 eax, DWORD PTR _this$[ebp]
  00029	c9		 leave
  0002a	c2 04 00	 ret	 4
??_GCParticleProperty@@UAEPAXI@Z ENDP			; CParticleProperty::`scalar deleting destructor'
_TEXT	ENDS
; Function compile flags: /Odspy
; File D:\Metin2 Server Files\mainline\SRC_2014\Metin2Client\EffectLib\ParticleProperty.cpp
; File C:\Program Files (x86)\Microsoft Visual Studio\2019\Community\VC\Tools\MSVC\14.28.29333\include\xstddef
; File C:\Program Files (x86)\Microsoft Visual Studio\2019\Community\VC\Tools\MSVC\14.28.29333\include\vector
; File D:\Metin2 Server Files\mainline\SRC_2014\Metin2Client\EffectLib\ParticleProperty.cpp
; File C:\Program Files (x86)\Microsoft Visual Studio\2019\Community\VC\Tools\MSVC\14.28.29333\include\xstddef
; File C:\Program Files (x86)\Microsoft Visual Studio\2019\Community\VC\Tools\MSVC\14.28.29333\include\vector
; File D:\Metin2 Server Files\mainline\SRC_2014\Metin2Client\EffectLib\ParticleProperty.cpp
; File C:\Program Files (x86)\Microsoft Visual Studio\2019\Community\VC\Tools\MSVC\14.28.29333\include\xstddef
; File C:\Program Files (x86)\Microsoft Visual Studio\2019\Community\VC\Tools\MSVC\14.28.29333\include\vector
; File D:\Metin2 Server Files\mainline\SRC_2014\Metin2Client\EffectLib\ParticleProperty.cpp
; File C:\Program Files (x86)\Microsoft Visual Studio\2019\Community\VC\Tools\MSVC\14.28.29333\include\xstddef
; File C:\Program Files (x86)\Microsoft Visual Studio\2019\Community\VC\Tools\MSVC\14.28.29333\include\vector
; File D:\Metin2 Server Files\mainline\SRC_2014\Metin2Client\EffectLib\ParticleProperty.cpp
; File C:\Program Files (x86)\Microsoft Visual Studio\2019\Community\VC\Tools\MSVC\14.28.29333\include\xstddef
; File C:\Program Files (x86)\Microsoft Visual Studio\2019\Community\VC\Tools\MSVC\14.28.29333\include\vector
; File D:\Metin2 Server Files\mainline\SRC_2014\Metin2Client\EffectLib\ParticleProperty.cpp
; File C:\Program Files (x86)\Microsoft Visual Studio\2019\Community\VC\Tools\MSVC\14.28.29333\include\xstddef
; File C:\Program Files (x86)\Microsoft Visual Studio\2019\Community\VC\Tools\MSVC\14.28.29333\include\vector
; File D:\Metin2 Server Files\mainline\SRC_2014\Metin2Client\EffectLib\ParticleProperty.cpp
; File C:\Program Files (x86)\Microsoft Visual Studio\2019\Community\VC\Tools\MSVC\14.28.29333\include\xstddef
; File C:\Program Files (x86)\Microsoft Visual Studio\2019\Community\VC\Tools\MSVC\14.28.29333\include\vector
; File D:\Metin2 Server Files\mainline\SRC_2014\Metin2Client\EffectLib\ParticleProperty.cpp
;	COMDAT ??4CParticleProperty@@QAEAAV0@ABV0@@Z
_TEXT	SEGMENT
$T1 = -116						; size = 1
$T2 = -112						; size = 4
$T3 = -108						; size = 1
$T4 = -104						; size = 4
$T5 = -100						; size = 1
$T6 = -96						; size = 4
$T7 = -92						; size = 1
$T8 = -88						; size = 4
$T9 = -84						; size = 1
$T10 = -80						; size = 4
$T11 = -76						; size = 1
$T12 = -72						; size = 4
$T13 = -68						; size = 1
$T14 = -64						; size = 4
_this$ = -60						; size = 4
__Right$ = -56						; size = 4
_this$ = -52						; size = 4
__Right$ = -48						; size = 4
_this$ = -44						; size = 4
__Right$ = -40						; size = 4
_this$ = -36						; size = 4
__Right$ = -32						; size = 4
_this$ = -28						; size = 4
__Right$ = -24						; size = 4
_this$ = -20						; size = 4
__Right$ = -16						; size = 4
_this$ = -12						; size = 4
__Right$ = -8						; size = 4
_this$ = -4						; size = 4
_c_ParticleProperty$ = 8				; size = 4
??4CParticleProperty@@QAEAAV0@ABV0@@Z PROC		; CParticleProperty::operator=, COMDAT
; _this$ = ecx

; 81   : {

  00000	55		 push	 ebp
  00001	8b ec		 mov	 ebp, esp
  00003	83 ec 74	 sub	 esp, 116		; 00000074H
  00006	89 4d fc	 mov	 DWORD PTR _this$[ebp], ecx

; 82   : 	m_byTexAniType = c_ParticleProperty.m_byTexAniType;

  00009	8b 45 fc	 mov	 eax, DWORD PTR _this$[ebp]
  0000c	8b 4d 08	 mov	 ecx, DWORD PTR _c_ParticleProperty$[ebp]
  0000f	8a 49 04	 mov	 cl, BYTE PTR [ecx+4]
  00012	88 48 04	 mov	 BYTE PTR [eax+4], cl

; 83   : 	m_fTexAniDelay = c_ParticleProperty.m_fTexAniDelay;

  00015	8b 45 fc	 mov	 eax, DWORD PTR _this$[ebp]
  00018	8b 4d 08	 mov	 ecx, DWORD PTR _c_ParticleProperty$[ebp]
  0001b	8b 49 08	 mov	 ecx, DWORD PTR [ecx+8]
  0001e	89 48 08	 mov	 DWORD PTR [eax+8], ecx

; 84   : 	m_bTexAniRandomStartFrameFlag = c_ParticleProperty.m_bTexAniRandomStartFrameFlag;

  00021	8b 45 fc	 mov	 eax, DWORD PTR _this$[ebp]
  00024	8b 4d 08	 mov	 ecx, DWORD PTR _c_ParticleProperty$[ebp]
  00027	8b 49 0c	 mov	 ecx, DWORD PTR [ecx+12]
  0002a	89 48 0c	 mov	 DWORD PTR [eax+12], ecx

; 85   : 	
; 86   : 	m_bySrcBlendType = c_ParticleProperty.m_bySrcBlendType;

  0002d	8b 45 fc	 mov	 eax, DWORD PTR _this$[ebp]
  00030	8b 4d 08	 mov	 ecx, DWORD PTR _c_ParticleProperty$[ebp]
  00033	8a 49 10	 mov	 cl, BYTE PTR [ecx+16]
  00036	88 48 10	 mov	 BYTE PTR [eax+16], cl

; 87   : 	m_byDestBlendType = c_ParticleProperty.m_byDestBlendType;

  00039	8b 45 fc	 mov	 eax, DWORD PTR _this$[ebp]
  0003c	8b 4d 08	 mov	 ecx, DWORD PTR _c_ParticleProperty$[ebp]
  0003f	8a 49 11	 mov	 cl, BYTE PTR [ecx+17]
  00042	88 48 11	 mov	 BYTE PTR [eax+17], cl

; 88   : 	m_byColorOperationType = c_ParticleProperty.m_byColorOperationType;

  00045	8b 45 fc	 mov	 eax, DWORD PTR _this$[ebp]
  00048	8b 4d 08	 mov	 ecx, DWORD PTR _c_ParticleProperty$[ebp]
  0004b	8a 49 12	 mov	 cl, BYTE PTR [ecx+18]
  0004e	88 48 12	 mov	 BYTE PTR [eax+18], cl

; 89   : 	
; 90   : 	m_byBillboardType = c_ParticleProperty.m_byBillboardType;

  00051	8b 45 fc	 mov	 eax, DWORD PTR _this$[ebp]
  00054	8b 4d 08	 mov	 ecx, DWORD PTR _c_ParticleProperty$[ebp]
  00057	8a 49 13	 mov	 cl, BYTE PTR [ecx+19]
  0005a	88 48 13	 mov	 BYTE PTR [eax+19], cl

; 91   : 	
; 92   : 	m_byRotationType = c_ParticleProperty.m_byRotationType;

  0005d	8b 45 fc	 mov	 eax, DWORD PTR _this$[ebp]
  00060	8b 4d 08	 mov	 ecx, DWORD PTR _c_ParticleProperty$[ebp]
  00063	8a 49 14	 mov	 cl, BYTE PTR [ecx+20]
  00066	88 48 14	 mov	 BYTE PTR [eax+20], cl

; 93   : 	m_fRotationSpeed = c_ParticleProperty.m_fRotationSpeed;

  00069	8b 45 fc	 mov	 eax, DWORD PTR _this$[ebp]
  0006c	8b 4d 08	 mov	 ecx, DWORD PTR _c_ParticleProperty$[ebp]
  0006f	8b 49 18	 mov	 ecx, DWORD PTR [ecx+24]
  00072	89 48 18	 mov	 DWORD PTR [eax+24], ecx

; 94   : 	m_wRotationRandomStartingBegin = c_ParticleProperty.m_wRotationRandomStartingBegin;

  00075	8b 45 fc	 mov	 eax, DWORD PTR _this$[ebp]
  00078	8b 4d 08	 mov	 ecx, DWORD PTR _c_ParticleProperty$[ebp]
  0007b	66 8b 49 1c	 mov	 cx, WORD PTR [ecx+28]
  0007f	66 89 48 1c	 mov	 WORD PTR [eax+28], cx

; 95   : 	m_wRotationRandomStartingEnd = c_ParticleProperty.m_wRotationRandomStartingEnd;

  00083	8b 45 fc	 mov	 eax, DWORD PTR _this$[ebp]
  00086	8b 4d 08	 mov	 ecx, DWORD PTR _c_ParticleProperty$[ebp]
  00089	66 8b 49 1e	 mov	 cx, WORD PTR [ecx+30]
  0008d	66 89 48 1e	 mov	 WORD PTR [eax+30], cx

; 96   : 	
; 97   : 	m_bAttachFlag = c_ParticleProperty.m_bAttachFlag;

  00091	8b 45 fc	 mov	 eax, DWORD PTR _this$[ebp]
  00094	8b 4d 08	 mov	 ecx, DWORD PTR _c_ParticleProperty$[ebp]
  00097	8b 49 20	 mov	 ecx, DWORD PTR [ecx+32]
  0009a	89 48 20	 mov	 DWORD PTR [eax+32], ecx

; 98   : 	m_bStretchFlag = c_ParticleProperty.m_bStretchFlag;

  0009d	8b 45 fc	 mov	 eax, DWORD PTR _this$[ebp]
  000a0	8b 4d 08	 mov	 ecx, DWORD PTR _c_ParticleProperty$[ebp]
  000a3	8b 49 24	 mov	 ecx, DWORD PTR [ecx+36]
  000a6	89 48 24	 mov	 DWORD PTR [eax+36], ecx

; 99   : 	
; 100  : 	m_TimeEventGravity = c_ParticleProperty.m_TimeEventGravity;

  000a9	8b 45 08	 mov	 eax, DWORD PTR _c_ParticleProperty$[ebp]
  000ac	83 c0 28	 add	 eax, 40			; 00000028H
  000af	89 45 f8	 mov	 DWORD PTR __Right$[ebp], eax
  000b2	8b 45 fc	 mov	 eax, DWORD PTR _this$[ebp]
  000b5	83 c0 28	 add	 eax, 40			; 00000028H
  000b8	89 45 f4	 mov	 DWORD PTR _this$[ebp], eax
; File C:\Program Files (x86)\Microsoft Visual Studio\2019\Community\VC\Tools\MSVC\14.28.29333\include\xstddef

; 275  :     return __builtin_addressof(_Val);

  000bb	8b 45 f8	 mov	 eax, DWORD PTR __Right$[ebp]
  000be	89 45 c0	 mov	 DWORD PTR $T14[ebp], eax
; File C:\Program Files (x86)\Microsoft Visual Studio\2019\Community\VC\Tools\MSVC\14.28.29333\include\vector

; 1168 :         if (this != _STD addressof(_Right)) {

  000c1	8b 45 f4	 mov	 eax, DWORD PTR _this$[ebp]
  000c4	3b 45 c0	 cmp	 eax, DWORD PTR $T14[ebp]
  000c7	74 13		 je	 SHORT $LN4@operator

; 1169 :             _Copy_assign(_Right, _Choose_pocca<_Alty>{});

  000c9	33 c0		 xor	 eax, eax
  000cb	88 45 bc	 mov	 BYTE PTR $T13[ebp], al
  000ce	ff 75 bc	 push	 DWORD PTR $T13[ebp]
  000d1	ff 75 f8	 push	 DWORD PTR __Right$[ebp]
  000d4	8b 4d f4	 mov	 ecx, DWORD PTR _this$[ebp]
  000d7	e8 00 00 00 00	 call	 ?_Copy_assign@?$vector@V?$CTimeEvent@M@@V?$allocator@V?$CTimeEvent@M@@@std@@@std@@AAEXABV12@U?$integral_constant@_N$0A@@2@@Z ; std::vector<CTimeEvent<float>,std::allocator<CTimeEvent<float> > >::_Copy_assign
$LN4@operator:
; File D:\Metin2 Server Files\mainline\SRC_2014\Metin2Client\EffectLib\ParticleProperty.cpp

; 101  : 	m_TimeEventAirResistance = c_ParticleProperty.m_TimeEventAirResistance;

  000dc	8b 45 08	 mov	 eax, DWORD PTR _c_ParticleProperty$[ebp]
  000df	83 c0 34	 add	 eax, 52			; 00000034H
  000e2	89 45 f0	 mov	 DWORD PTR __Right$[ebp], eax
  000e5	8b 45 fc	 mov	 eax, DWORD PTR _this$[ebp]
  000e8	83 c0 34	 add	 eax, 52			; 00000034H
  000eb	89 45 ec	 mov	 DWORD PTR _this$[ebp], eax
; File C:\Program Files (x86)\Microsoft Visual Studio\2019\Community\VC\Tools\MSVC\14.28.29333\include\xstddef

; 275  :     return __builtin_addressof(_Val);

  000ee	8b 45 f0	 mov	 eax, DWORD PTR __Right$[ebp]
  000f1	89 45 b8	 mov	 DWORD PTR $T12[ebp], eax
; File C:\Program Files (x86)\Microsoft Visual Studio\2019\Community\VC\Tools\MSVC\14.28.29333\include\vector

; 1168 :         if (this != _STD addressof(_Right)) {

  000f4	8b 45 ec	 mov	 eax, DWORD PTR _this$[ebp]
  000f7	3b 45 b8	 cmp	 eax, DWORD PTR $T12[ebp]
  000fa	74 13		 je	 SHORT $LN32@operator

; 1169 :             _Copy_assign(_Right, _Choose_pocca<_Alty>{});

  000fc	33 c0		 xor	 eax, eax
  000fe	88 45 b4	 mov	 BYTE PTR $T11[ebp], al
  00101	ff 75 b4	 push	 DWORD PTR $T11[ebp]
  00104	ff 75 f0	 push	 DWORD PTR __Right$[ebp]
  00107	8b 4d ec	 mov	 ecx, DWORD PTR _this$[ebp]
  0010a	e8 00 00 00 00	 call	 ?_Copy_assign@?$vector@V?$CTimeEvent@M@@V?$allocator@V?$CTimeEvent@M@@@std@@@std@@AAEXABV12@U?$integral_constant@_N$0A@@2@@Z ; std::vector<CTimeEvent<float>,std::allocator<CTimeEvent<float> > >::_Copy_assign
$LN32@operator:
; File D:\Metin2 Server Files\mainline\SRC_2014\Metin2Client\EffectLib\ParticleProperty.cpp

; 103  : 	m_TimeEventScaleX = c_ParticleProperty.m_TimeEventScaleX;

  0010f	8b 45 08	 mov	 eax, DWORD PTR _c_ParticleProperty$[ebp]
  00112	83 c0 40	 add	 eax, 64			; 00000040H
  00115	89 45 e8	 mov	 DWORD PTR __Right$[ebp], eax
  00118	8b 45 fc	 mov	 eax, DWORD PTR _this$[ebp]
  0011b	83 c0 40	 add	 eax, 64			; 00000040H
  0011e	89 45 e4	 mov	 DWORD PTR _this$[ebp], eax
; File C:\Program Files (x86)\Microsoft Visual Studio\2019\Community\VC\Tools\MSVC\14.28.29333\include\xstddef

; 275  :     return __builtin_addressof(_Val);

  00121	8b 45 e8	 mov	 eax, DWORD PTR __Right$[ebp]
  00124	89 45 b0	 mov	 DWORD PTR $T10[ebp], eax
; File C:\Program Files (x86)\Microsoft Visual Studio\2019\Community\VC\Tools\MSVC\14.28.29333\include\vector

; 1168 :         if (this != _STD addressof(_Right)) {

  00127	8b 45 e4	 mov	 eax, DWORD PTR _this$[ebp]
  0012a	3b 45 b0	 cmp	 eax, DWORD PTR $T10[ebp]
  0012d	74 13		 je	 SHORT $LN60@operator

; 1169 :             _Copy_assign(_Right, _Choose_pocca<_Alty>{});

  0012f	33 c0		 xor	 eax, eax
  00131	88 45 ac	 mov	 BYTE PTR $T9[ebp], al
  00134	ff 75 ac	 push	 DWORD PTR $T9[ebp]
  00137	ff 75 e8	 push	 DWORD PTR __Right$[ebp]
  0013a	8b 4d e4	 mov	 ecx, DWORD PTR _this$[ebp]
  0013d	e8 00 00 00 00	 call	 ?_Copy_assign@?$vector@V?$CTimeEvent@M@@V?$allocator@V?$CTimeEvent@M@@@std@@@std@@AAEXABV12@U?$integral_constant@_N$0A@@2@@Z ; std::vector<CTimeEvent<float>,std::allocator<CTimeEvent<float> > >::_Copy_assign
$LN60@operator:
; File D:\Metin2 Server Files\mainline\SRC_2014\Metin2Client\EffectLib\ParticleProperty.cpp

; 104  : 	m_TimeEventScaleY = c_ParticleProperty.m_TimeEventScaleY;

  00142	8b 45 08	 mov	 eax, DWORD PTR _c_ParticleProperty$[ebp]
  00145	83 c0 4c	 add	 eax, 76			; 0000004cH
  00148	89 45 e0	 mov	 DWORD PTR __Right$[ebp], eax
  0014b	8b 45 fc	 mov	 eax, DWORD PTR _this$[ebp]
  0014e	83 c0 4c	 add	 eax, 76			; 0000004cH
  00151	89 45 dc	 mov	 DWORD PTR _this$[ebp], eax
; File C:\Program Files (x86)\Microsoft Visual Studio\2019\Community\VC\Tools\MSVC\14.28.29333\include\xstddef

; 275  :     return __builtin_addressof(_Val);

  00154	8b 45 e0	 mov	 eax, DWORD PTR __Right$[ebp]
  00157	89 45 a8	 mov	 DWORD PTR $T8[ebp], eax
; File C:\Program Files (x86)\Microsoft Visual Studio\2019\Community\VC\Tools\MSVC\14.28.29333\include\vector

; 1168 :         if (this != _STD addressof(_Right)) {

  0015a	8b 45 dc	 mov	 eax, DWORD PTR _this$[ebp]
  0015d	3b 45 a8	 cmp	 eax, DWORD PTR $T8[ebp]
  00160	74 13		 je	 SHORT $LN88@operator

; 1169 :             _Copy_assign(_Right, _Choose_pocca<_Alty>{});

  00162	33 c0		 xor	 eax, eax
  00164	88 45 a4	 mov	 BYTE PTR $T7[ebp], al
  00167	ff 75 a4	 push	 DWORD PTR $T7[ebp]
  0016a	ff 75 e0	 push	 DWORD PTR __Right$[ebp]
  0016d	8b 4d dc	 mov	 ecx, DWORD PTR _this$[ebp]
  00170	e8 00 00 00 00	 call	 ?_Copy_assign@?$vector@V?$CTimeEvent@M@@V?$allocator@V?$CTimeEvent@M@@@std@@@std@@AAEXABV12@U?$integral_constant@_N$0A@@2@@Z ; std::vector<CTimeEvent<float>,std::allocator<CTimeEvent<float> > >::_Copy_assign
$LN88@operator:
; File D:\Metin2 Server Files\mainline\SRC_2014\Metin2Client\EffectLib\ParticleProperty.cpp

; 114  : 	m_TimeEventColor = c_ParticleProperty.m_TimeEventColor;

  00175	8b 45 08	 mov	 eax, DWORD PTR _c_ParticleProperty$[ebp]
  00178	83 c0 58	 add	 eax, 88			; 00000058H
  0017b	89 45 d8	 mov	 DWORD PTR __Right$[ebp], eax
  0017e	8b 45 fc	 mov	 eax, DWORD PTR _this$[ebp]
  00181	83 c0 58	 add	 eax, 88			; 00000058H
  00184	89 45 d4	 mov	 DWORD PTR _this$[ebp], eax
; File C:\Program Files (x86)\Microsoft Visual Studio\2019\Community\VC\Tools\MSVC\14.28.29333\include\xstddef

; 275  :     return __builtin_addressof(_Val);

  00187	8b 45 d8	 mov	 eax, DWORD PTR __Right$[ebp]
  0018a	89 45 a0	 mov	 DWORD PTR $T6[ebp], eax
; File C:\Program Files (x86)\Microsoft Visual Studio\2019\Community\VC\Tools\MSVC\14.28.29333\include\vector

; 1168 :         if (this != _STD addressof(_Right)) {

  0018d	8b 45 d4	 mov	 eax, DWORD PTR _this$[ebp]
  00190	3b 45 a0	 cmp	 eax, DWORD PTR $T6[ebp]
  00193	74 13		 je	 SHORT $LN116@operator

; 1169 :             _Copy_assign(_Right, _Choose_pocca<_Alty>{});

  00195	33 c0		 xor	 eax, eax
  00197	88 45 9c	 mov	 BYTE PTR $T5[ebp], al
  0019a	ff 75 9c	 push	 DWORD PTR $T5[ebp]
  0019d	ff 75 d8	 push	 DWORD PTR __Right$[ebp]
  001a0	8b 4d d4	 mov	 ecx, DWORD PTR _this$[ebp]
  001a3	e8 00 00 00 00	 call	 ?_Copy_assign@?$vector@V?$CTimeEvent@UDWORDCOLOR@@@@V?$allocator@V?$CTimeEvent@UDWORDCOLOR@@@@@std@@@std@@AAEXABV12@U?$integral_constant@_N$0A@@2@@Z ; std::vector<CTimeEvent<DWORDCOLOR>,std::allocator<CTimeEvent<DWORDCOLOR> > >::_Copy_assign
$LN116@operator:
; File D:\Metin2 Server Files\mainline\SRC_2014\Metin2Client\EffectLib\ParticleProperty.cpp

; 116  : 	m_TimeEventRotation = c_ParticleProperty.m_TimeEventRotation;

  001a8	8b 45 08	 mov	 eax, DWORD PTR _c_ParticleProperty$[ebp]
  001ab	83 c0 64	 add	 eax, 100		; 00000064H
  001ae	89 45 d0	 mov	 DWORD PTR __Right$[ebp], eax
  001b1	8b 45 fc	 mov	 eax, DWORD PTR _this$[ebp]
  001b4	83 c0 64	 add	 eax, 100		; 00000064H
  001b7	89 45 cc	 mov	 DWORD PTR _this$[ebp], eax
; File C:\Program Files (x86)\Microsoft Visual Studio\2019\Community\VC\Tools\MSVC\14.28.29333\include\xstddef

; 275  :     return __builtin_addressof(_Val);

  001ba	8b 45 d0	 mov	 eax, DWORD PTR __Right$[ebp]
  001bd	89 45 98	 mov	 DWORD PTR $T4[ebp], eax
; File C:\Program Files (x86)\Microsoft Visual Studio\2019\Community\VC\Tools\MSVC\14.28.29333\include\vector

; 1168 :         if (this != _STD addressof(_Right)) {

  001c0	8b 45 cc	 mov	 eax, DWORD PTR _this$[ebp]
  001c3	3b 45 98	 cmp	 eax, DWORD PTR $T4[ebp]
  001c6	74 13		 je	 SHORT $LN144@operator

; 1169 :             _Copy_assign(_Right, _Choose_pocca<_Alty>{});

  001c8	33 c0		 xor	 eax, eax
  001ca	88 45 94	 mov	 BYTE PTR $T3[ebp], al
  001cd	ff 75 94	 push	 DWORD PTR $T3[ebp]
  001d0	ff 75 d0	 push	 DWORD PTR __Right$[ebp]
  001d3	8b 4d cc	 mov	 ecx, DWORD PTR _this$[ebp]
  001d6	e8 00 00 00 00	 call	 ?_Copy_assign@?$vector@V?$CTimeEvent@M@@V?$allocator@V?$CTimeEvent@M@@@std@@@std@@AAEXABV12@U?$integral_constant@_N$0A@@2@@Z ; std::vector<CTimeEvent<float>,std::allocator<CTimeEvent<float> > >::_Copy_assign
$LN144@operator:
; File D:\Metin2 Server Files\mainline\SRC_2014\Metin2Client\EffectLib\ParticleProperty.cpp

; 118  : 	m_ImageVector = c_ParticleProperty.m_ImageVector;

  001db	8b 45 08	 mov	 eax, DWORD PTR _c_ParticleProperty$[ebp]
  001de	83 c0 70	 add	 eax, 112		; 00000070H
  001e1	89 45 c8	 mov	 DWORD PTR __Right$[ebp], eax
  001e4	8b 45 fc	 mov	 eax, DWORD PTR _this$[ebp]
  001e7	83 c0 70	 add	 eax, 112		; 00000070H
  001ea	89 45 c4	 mov	 DWORD PTR _this$[ebp], eax
; File C:\Program Files (x86)\Microsoft Visual Studio\2019\Community\VC\Tools\MSVC\14.28.29333\include\xstddef

; 275  :     return __builtin_addressof(_Val);

  001ed	8b 45 c8	 mov	 eax, DWORD PTR __Right$[ebp]
  001f0	89 45 90	 mov	 DWORD PTR $T2[ebp], eax
; File C:\Program Files (x86)\Microsoft Visual Studio\2019\Community\VC\Tools\MSVC\14.28.29333\include\vector

; 1168 :         if (this != _STD addressof(_Right)) {

  001f3	8b 45 c4	 mov	 eax, DWORD PTR _this$[ebp]
  001f6	3b 45 90	 cmp	 eax, DWORD PTR $T2[ebp]
  001f9	74 13		 je	 SHORT $LN172@operator

; 1169 :             _Copy_assign(_Right, _Choose_pocca<_Alty>{});

  001fb	33 c0		 xor	 eax, eax
  001fd	88 45 8c	 mov	 BYTE PTR $T1[ebp], al
  00200	ff 75 8c	 push	 DWORD PTR $T1[ebp]
  00203	ff 75 c8	 push	 DWORD PTR __Right$[ebp]
  00206	8b 4d c4	 mov	 ecx, DWORD PTR _this$[ebp]
  00209	e8 00 00 00 00	 call	 ?_Copy_assign@?$vector@PAVCGraphicImage@@V?$allocator@PAVCGraphicImage@@@std@@@std@@AAEXABV12@U?$integral_constant@_N$0A@@2@@Z ; std::vector<CGraphicImage *,std::allocator<CGraphicImage *> >::_Copy_assign
$LN172@operator:
; File D:\Metin2 Server Files\mainline\SRC_2014\Metin2Client\EffectLib\ParticleProperty.cpp

; 120  : 	return *this;

  0020e	8b 45 fc	 mov	 eax, DWORD PTR _this$[ebp]

; 121  : }

  00211	c9		 leave
  00212	c2 04 00	 ret	 4
??4CParticleProperty@@QAEAAV0@ABV0@@Z ENDP		; CParticleProperty::operator=
_TEXT	ENDS
; Function compile flags: /Odspy
; File C:\Program Files (x86)\Microsoft Visual Studio\2019\Community\VC\Tools\MSVC\14.28.29333\include\vector
;	COMDAT ?_Xlength@?$vector@PAVCGraphicImage@@V?$allocator@PAVCGraphicImage@@@std@@@std@@CAXXZ
_TEXT	SEGMENT
?_Xlength@?$vector@PAVCGraphicImage@@V?$allocator@PAVCGraphicImage@@@std@@@std@@CAXXZ PROC ; std::vector<CGraphicImage *,std::allocator<CGraphicImage *> >::_Xlength, COMDAT

; 1704 :     [[noreturn]] static void _Xlength() {

  00000	55		 push	 ebp
  00001	8b ec		 mov	 ebp, esp

; 1705 :         _Xlength_error("vector too long");

  00003	68 00 00 00 00	 push	 OFFSET ??_C@_0BA@FOIKENOD@vector?5too?5long@
  00008	e8 00 00 00 00	 call	 ?_Xlength_error@std@@YAXPBD@Z ; std::_Xlength_error
$LN2@Xlength:

; 1706 :     }

  0000d	5d		 pop	 ebp
  0000e	c3		 ret	 0
?_Xlength@?$vector@PAVCGraphicImage@@V?$allocator@PAVCGraphicImage@@@std@@@std@@CAXXZ ENDP ; std::vector<CGraphicImage *,std::allocator<CGraphicImage *> >::_Xlength
_TEXT	ENDS
; Function compile flags: /Odspy
; File C:\Program Files (x86)\Microsoft Visual Studio\2019\Community\VC\Tools\MSVC\14.28.29333\include\vector
; File C:\Program Files (x86)\Microsoft Visual Studio\2019\Community\VC\Tools\MSVC\14.28.29333\include\xmemory
; File C:\Program Files (x86)\Microsoft Visual Studio\2019\Community\VC\Tools\MSVC\14.28.29333\include\vector
; File C:\Program Files (x86)\Microsoft Visual Studio\2019\Community\VC\Tools\MSVC\14.28.29333\include\xmemory
; File C:\Program Files (x86)\Microsoft Visual Studio\2019\Community\VC\Tools\MSVC\14.28.29333\include\vector
; File C:\Program Files (x86)\Microsoft Visual Studio\2019\Community\VC\Tools\MSVC\14.28.29333\include\xmemory
; File C:\Program Files (x86)\Microsoft Visual Studio\2019\Community\VC\Tools\MSVC\14.28.29333\include\vector
;	COMDAT ?_Tidy@?$vector@PAVCGraphicImage@@V?$allocator@PAVCGraphicImage@@@std@@@std@@AAEXXZ
_TEXT	SEGMENT
$T1 = -52						; size = 4
__Ptr$ = -48						; size = 4
__Count$ = -44						; size = 4
$T2 = -40						; size = 4
__First$ = -36						; size = 4
__Last$ = -32						; size = 4
$T3 = -28						; size = 4
$T4 = -24						; size = 4
__Myend$ = -20						; size = 4
__Mylast$ = -16						; size = 4
_this$ = -12						; size = 4
__My_data$ = -8						; size = 4
__Myfirst$ = -4						; size = 4
?_Tidy@?$vector@PAVCGraphicImage@@V?$allocator@PAVCGraphicImage@@@std@@@std@@AAEXXZ PROC ; std::vector<CGraphicImage *,std::allocator<CGraphicImage *> >::_Tidy, COMDAT
; _this$ = ecx

; 1686 :     void _Tidy() noexcept { // free all storage

  00000	55		 push	 ebp
  00001	8b ec		 mov	 ebp, esp
  00003	83 ec 34	 sub	 esp, 52			; 00000034H
  00006	89 4d f4	 mov	 DWORD PTR _this$[ebp], ecx

; 1687 :         auto& _My_data    = _Mypair._Myval2;

  00009	8b 45 f4	 mov	 eax, DWORD PTR _this$[ebp]
  0000c	89 45 f8	 mov	 DWORD PTR __My_data$[ebp], eax

; 1688 :         pointer& _Myfirst = _My_data._Myfirst;

  0000f	8b 45 f8	 mov	 eax, DWORD PTR __My_data$[ebp]
  00012	89 45 fc	 mov	 DWORD PTR __Myfirst$[ebp], eax

; 1689 :         pointer& _Mylast  = _My_data._Mylast;

  00015	8b 45 f8	 mov	 eax, DWORD PTR __My_data$[ebp]
  00018	83 c0 04	 add	 eax, 4
  0001b	89 45 f0	 mov	 DWORD PTR __Mylast$[ebp], eax

; 1690 :         pointer& _Myend   = _My_data._Myend;

  0001e	8b 45 f8	 mov	 eax, DWORD PTR __My_data$[ebp]
  00021	83 c0 08	 add	 eax, 8
  00024	89 45 ec	 mov	 DWORD PTR __Myend$[ebp], eax

; 1691 : 
; 1692 :         _My_data._Orphan_all();
; 1693 : 
; 1694 :         if (_Myfirst) { // destroy and deallocate old array

  00027	8b 45 fc	 mov	 eax, DWORD PTR __Myfirst$[ebp]
  0002a	83 38 00	 cmp	 DWORD PTR [eax], 0
  0002d	74 74		 je	 SHORT $LN3@Tidy

; 1695 :             _Destroy(_Myfirst, _Mylast);

  0002f	8b 45 f0	 mov	 eax, DWORD PTR __Mylast$[ebp]
  00032	8b 00		 mov	 eax, DWORD PTR [eax]
  00034	89 45 e0	 mov	 DWORD PTR __Last$[ebp], eax
  00037	8b 45 fc	 mov	 eax, DWORD PTR __Myfirst$[ebp]
  0003a	8b 00		 mov	 eax, DWORD PTR [eax]
  0003c	89 45 dc	 mov	 DWORD PTR __First$[ebp], eax

; 1733 :         return _Mypair._Get_first();

  0003f	8b 45 f4	 mov	 eax, DWORD PTR _this$[ebp]
; File C:\Program Files (x86)\Microsoft Visual Studio\2019\Community\VC\Tools\MSVC\14.28.29333\include\xmemory

; 1347 :         return *this;

  00042	89 45 e8	 mov	 DWORD PTR $T4[ebp], eax
; File C:\Program Files (x86)\Microsoft Visual Studio\2019\Community\VC\Tools\MSVC\14.28.29333\include\vector

; 1733 :         return _Mypair._Get_first();

  00045	8b 45 e8	 mov	 eax, DWORD PTR $T4[ebp]
  00048	89 45 e4	 mov	 DWORD PTR $T3[ebp], eax

; 1612 :         _Destroy_range(_First, _Last, _Getal());

  0004b	ff 75 e4	 push	 DWORD PTR $T3[ebp]
  0004e	ff 75 e0	 push	 DWORD PTR __Last$[ebp]
  00051	ff 75 dc	 push	 DWORD PTR __First$[ebp]
  00054	e8 00 00 00 00	 call	 ??$_Destroy_range@V?$allocator@PAVCGraphicImage@@@std@@@std@@YAXPAPAVCGraphicImage@@QAPAV1@AAV?$allocator@PAVCGraphicImage@@@0@@Z ; std::_Destroy_range<std::allocator<CGraphicImage *> >
  00059	83 c4 0c	 add	 esp, 12			; 0000000cH

; 1733 :         return _Mypair._Get_first();

  0005c	8b 45 f4	 mov	 eax, DWORD PTR _this$[ebp]
; File C:\Program Files (x86)\Microsoft Visual Studio\2019\Community\VC\Tools\MSVC\14.28.29333\include\xmemory

; 1347 :         return *this;

  0005f	89 45 d8	 mov	 DWORD PTR $T2[ebp], eax
; File C:\Program Files (x86)\Microsoft Visual Studio\2019\Community\VC\Tools\MSVC\14.28.29333\include\vector

; 1733 :         return _Mypair._Get_first();

  00062	8b 45 d8	 mov	 eax, DWORD PTR $T2[ebp]
  00065	89 45 cc	 mov	 DWORD PTR $T1[ebp], eax

; 1696 :             _Getal().deallocate(_Myfirst, static_cast<size_type>(_Myend - _Myfirst));

  00068	8b 45 ec	 mov	 eax, DWORD PTR __Myend$[ebp]
  0006b	8b 4d fc	 mov	 ecx, DWORD PTR __Myfirst$[ebp]
  0006e	8b 00		 mov	 eax, DWORD PTR [eax]
  00070	2b 01		 sub	 eax, DWORD PTR [ecx]
  00072	c1 f8 02	 sar	 eax, 2
  00075	89 45 d4	 mov	 DWORD PTR __Count$[ebp], eax
  00078	8b 45 fc	 mov	 eax, DWORD PTR __Myfirst$[ebp]
  0007b	8b 00		 mov	 eax, DWORD PTR [eax]
  0007d	89 45 d0	 mov	 DWORD PTR __Ptr$[ebp], eax
; File C:\Program Files (x86)\Microsoft Visual Studio\2019\Community\VC\Tools\MSVC\14.28.29333\include\xmemory

; 810  :         _Deallocate<_New_alignof<_Ty>>(_Ptr, sizeof(_Ty) * _Count);

  00080	8b 45 d4	 mov	 eax, DWORD PTR __Count$[ebp]
  00083	c1 e0 02	 shl	 eax, 2
  00086	50		 push	 eax
  00087	ff 75 d0	 push	 DWORD PTR __Ptr$[ebp]
  0008a	e8 00 00 00 00	 call	 ??$_Deallocate@$07$0A@@std@@YAXPAXI@Z ; std::_Deallocate<8,0>
  0008f	59		 pop	 ecx
  00090	59		 pop	 ecx
; File C:\Program Files (x86)\Microsoft Visual Studio\2019\Community\VC\Tools\MSVC\14.28.29333\include\vector

; 1698 :             _Myfirst = pointer();

  00091	8b 45 fc	 mov	 eax, DWORD PTR __Myfirst$[ebp]
  00094	83 20 00	 and	 DWORD PTR [eax], 0

; 1699 :             _Mylast  = pointer();

  00097	8b 45 f0	 mov	 eax, DWORD PTR __Mylast$[ebp]
  0009a	83 20 00	 and	 DWORD PTR [eax], 0

; 1700 :             _Myend   = pointer();

  0009d	8b 45 ec	 mov	 eax, DWORD PTR __Myend$[ebp]
  000a0	83 20 00	 and	 DWORD PTR [eax], 0
$LN3@Tidy:

; 1701 :         }
; 1702 :     }

  000a3	c9		 leave
  000a4	c3		 ret	 0
?_Tidy@?$vector@PAVCGraphicImage@@V?$allocator@PAVCGraphicImage@@@std@@@std@@AAEXXZ ENDP ; std::vector<CGraphicImage *,std::allocator<CGraphicImage *> >::_Tidy
_TEXT	ENDS
; Function compile flags: /Odspy
; File C:\Program Files (x86)\Microsoft Visual Studio\2019\Community\VC\Tools\MSVC\14.28.29333\include\vector
; File C:\Program Files (x86)\Microsoft Visual Studio\2019\Community\VC\Tools\MSVC\14.28.29333\include\xmemory
; File C:\Program Files (x86)\Microsoft Visual Studio\2019\Community\VC\Tools\MSVC\14.28.29333\include\vector
; File C:\Program Files (x86)\Microsoft Visual Studio\2019\Community\VC\Tools\MSVC\14.28.29333\include\xmemory
; File C:\Program Files (x86)\Microsoft Visual Studio\2019\Community\VC\Tools\MSVC\14.28.29333\include\vector
; File C:\Program Files (x86)\Microsoft Visual Studio\2019\Community\VC\Tools\MSVC\14.28.29333\include\xmemory
; File C:\Program Files (x86)\Microsoft Visual Studio\2019\Community\VC\Tools\MSVC\14.28.29333\include\vector
;	COMDAT ?_Change_array@?$vector@PAVCGraphicImage@@V?$allocator@PAVCGraphicImage@@@std@@@std@@AAEXQAPAVCGraphicImage@@II@Z
_TEXT	SEGMENT
$T1 = -52						; size = 4
__Ptr$ = -48						; size = 4
__Count$ = -44						; size = 4
$T2 = -40						; size = 4
__First$ = -36						; size = 4
__Last$ = -32						; size = 4
$T3 = -28						; size = 4
$T4 = -24						; size = 4
__Myend$ = -20						; size = 4
__Mylast$ = -16						; size = 4
_this$ = -12						; size = 4
__My_data$ = -8						; size = 4
__Myfirst$ = -4						; size = 4
__Newvec$ = 8						; size = 4
__Newsize$ = 12						; size = 4
__Newcapacity$ = 16					; size = 4
?_Change_array@?$vector@PAVCGraphicImage@@V?$allocator@PAVCGraphicImage@@@std@@@std@@AAEXQAPAVCGraphicImage@@II@Z PROC ; std::vector<CGraphicImage *,std::allocator<CGraphicImage *> >::_Change_array, COMDAT
; _this$ = ecx

; 1667 :     void _Change_array(const pointer _Newvec, const size_type _Newsize, const size_type _Newcapacity) {

  00000	55		 push	 ebp
  00001	8b ec		 mov	 ebp, esp
  00003	83 ec 34	 sub	 esp, 52			; 00000034H
  00006	89 4d f4	 mov	 DWORD PTR _this$[ebp], ecx

; 1668 :         // orphan all iterators, discard old array, acquire new array
; 1669 :         auto& _My_data    = _Mypair._Myval2;

  00009	8b 45 f4	 mov	 eax, DWORD PTR _this$[ebp]
  0000c	89 45 f8	 mov	 DWORD PTR __My_data$[ebp], eax

; 1670 :         pointer& _Myfirst = _My_data._Myfirst;

  0000f	8b 45 f8	 mov	 eax, DWORD PTR __My_data$[ebp]
  00012	89 45 fc	 mov	 DWORD PTR __Myfirst$[ebp], eax

; 1671 :         pointer& _Mylast  = _My_data._Mylast;

  00015	8b 45 f8	 mov	 eax, DWORD PTR __My_data$[ebp]
  00018	83 c0 04	 add	 eax, 4
  0001b	89 45 f0	 mov	 DWORD PTR __Mylast$[ebp], eax

; 1672 :         pointer& _Myend   = _My_data._Myend;

  0001e	8b 45 f8	 mov	 eax, DWORD PTR __My_data$[ebp]
  00021	83 c0 08	 add	 eax, 8
  00024	89 45 ec	 mov	 DWORD PTR __Myend$[ebp], eax

; 1673 : 
; 1674 :         _My_data._Orphan_all();
; 1675 : 
; 1676 :         if (_Myfirst) { // destroy and deallocate old array

  00027	8b 45 fc	 mov	 eax, DWORD PTR __Myfirst$[ebp]
  0002a	83 38 00	 cmp	 DWORD PTR [eax], 0
  0002d	74 62		 je	 SHORT $LN2@Change_arr

; 1677 :             _Destroy(_Myfirst, _Mylast);

  0002f	8b 45 f0	 mov	 eax, DWORD PTR __Mylast$[ebp]
  00032	8b 00		 mov	 eax, DWORD PTR [eax]
  00034	89 45 e0	 mov	 DWORD PTR __Last$[ebp], eax
  00037	8b 45 fc	 mov	 eax, DWORD PTR __Myfirst$[ebp]
  0003a	8b 00		 mov	 eax, DWORD PTR [eax]
  0003c	89 45 dc	 mov	 DWORD PTR __First$[ebp], eax

; 1733 :         return _Mypair._Get_first();

  0003f	8b 45 f4	 mov	 eax, DWORD PTR _this$[ebp]
; File C:\Program Files (x86)\Microsoft Visual Studio\2019\Community\VC\Tools\MSVC\14.28.29333\include\xmemory

; 1347 :         return *this;

  00042	89 45 e8	 mov	 DWORD PTR $T4[ebp], eax
; File C:\Program Files (x86)\Microsoft Visual Studio\2019\Community\VC\Tools\MSVC\14.28.29333\include\vector

; 1733 :         return _Mypair._Get_first();

  00045	8b 45 e8	 mov	 eax, DWORD PTR $T4[ebp]
  00048	89 45 e4	 mov	 DWORD PTR $T3[ebp], eax

; 1612 :         _Destroy_range(_First, _Last, _Getal());

  0004b	ff 75 e4	 push	 DWORD PTR $T3[ebp]
  0004e	ff 75 e0	 push	 DWORD PTR __Last$[ebp]
  00051	ff 75 dc	 push	 DWORD PTR __First$[ebp]
  00054	e8 00 00 00 00	 call	 ??$_Destroy_range@V?$allocator@PAVCGraphicImage@@@std@@@std@@YAXPAPAVCGraphicImage@@QAPAV1@AAV?$allocator@PAVCGraphicImage@@@0@@Z ; std::_Destroy_range<std::allocator<CGraphicImage *> >
  00059	83 c4 0c	 add	 esp, 12			; 0000000cH

; 1733 :         return _Mypair._Get_first();

  0005c	8b 45 f4	 mov	 eax, DWORD PTR _this$[ebp]
; File C:\Program Files (x86)\Microsoft Visual Studio\2019\Community\VC\Tools\MSVC\14.28.29333\include\xmemory

; 1347 :         return *this;

  0005f	89 45 d8	 mov	 DWORD PTR $T2[ebp], eax
; File C:\Program Files (x86)\Microsoft Visual Studio\2019\Community\VC\Tools\MSVC\14.28.29333\include\vector

; 1733 :         return _Mypair._Get_first();

  00062	8b 45 d8	 mov	 eax, DWORD PTR $T2[ebp]
  00065	89 45 cc	 mov	 DWORD PTR $T1[ebp], eax

; 1678 :             _Getal().deallocate(_Myfirst, static_cast<size_type>(_Myend - _Myfirst));

  00068	8b 45 ec	 mov	 eax, DWORD PTR __Myend$[ebp]
  0006b	8b 4d fc	 mov	 ecx, DWORD PTR __Myfirst$[ebp]
  0006e	8b 00		 mov	 eax, DWORD PTR [eax]
  00070	2b 01		 sub	 eax, DWORD PTR [ecx]
  00072	c1 f8 02	 sar	 eax, 2
  00075	89 45 d4	 mov	 DWORD PTR __Count$[ebp], eax
  00078	8b 45 fc	 mov	 eax, DWORD PTR __Myfirst$[ebp]
  0007b	8b 00		 mov	 eax, DWORD PTR [eax]
  0007d	89 45 d0	 mov	 DWORD PTR __Ptr$[ebp], eax
; File C:\Program Files (x86)\Microsoft Visual Studio\2019\Community\VC\Tools\MSVC\14.28.29333\include\xmemory

; 810  :         _Deallocate<_New_alignof<_Ty>>(_Ptr, sizeof(_Ty) * _Count);

  00080	8b 45 d4	 mov	 eax, DWORD PTR __Count$[ebp]
  00083	c1 e0 02	 shl	 eax, 2
  00086	50		 push	 eax
  00087	ff 75 d0	 push	 DWORD PTR __Ptr$[ebp]
  0008a	e8 00 00 00 00	 call	 ??$_Deallocate@$07$0A@@std@@YAXPAXI@Z ; std::_Deallocate<8,0>
  0008f	59		 pop	 ecx
  00090	59		 pop	 ecx
$LN2@Change_arr:
; File C:\Program Files (x86)\Microsoft Visual Studio\2019\Community\VC\Tools\MSVC\14.28.29333\include\vector

; 1681 :         _Myfirst = _Newvec;

  00091	8b 45 fc	 mov	 eax, DWORD PTR __Myfirst$[ebp]
  00094	8b 4d 08	 mov	 ecx, DWORD PTR __Newvec$[ebp]
  00097	89 08		 mov	 DWORD PTR [eax], ecx

; 1682 :         _Mylast  = _Newvec + _Newsize;

  00099	8b 45 0c	 mov	 eax, DWORD PTR __Newsize$[ebp]
  0009c	8b 4d 08	 mov	 ecx, DWORD PTR __Newvec$[ebp]
  0009f	8d 04 81	 lea	 eax, DWORD PTR [ecx+eax*4]
  000a2	8b 4d f0	 mov	 ecx, DWORD PTR __Mylast$[ebp]
  000a5	89 01		 mov	 DWORD PTR [ecx], eax

; 1683 :         _Myend   = _Newvec + _Newcapacity;

  000a7	8b 45 10	 mov	 eax, DWORD PTR __Newcapacity$[ebp]
  000aa	8b 4d 08	 mov	 ecx, DWORD PTR __Newvec$[ebp]
  000ad	8d 04 81	 lea	 eax, DWORD PTR [ecx+eax*4]
  000b0	8b 4d ec	 mov	 ecx, DWORD PTR __Myend$[ebp]
  000b3	89 01		 mov	 DWORD PTR [ecx], eax

; 1684 :     }

  000b5	c9		 leave
  000b6	c2 0c 00	 ret	 12			; 0000000cH
?_Change_array@?$vector@PAVCGraphicImage@@V?$allocator@PAVCGraphicImage@@@std@@@std@@AAEXQAPAVCGraphicImage@@II@Z ENDP ; std::vector<CGraphicImage *,std::allocator<CGraphicImage *> >::_Change_array
_TEXT	ENDS
; Function compile flags: /Odspy
; File C:\Program Files (x86)\Microsoft Visual Studio\2019\Community\VC\Tools\MSVC\14.28.29333\include\vector
; File C:\Program Files (x86)\Microsoft Visual Studio\2019\Community\VC\Tools\MSVC\14.28.29333\include\xmemory
; File C:\Program Files (x86)\Microsoft Visual Studio\2019\Community\VC\Tools\MSVC\14.28.29333\include\vector
; File C:\Program Files (x86)\Microsoft Visual Studio\2019\Community\VC\Tools\MSVC\14.28.29333\include\xmemory
; File C:\Program Files (x86)\Microsoft Visual Studio\2019\Community\VC\Tools\MSVC\14.28.29333\include\vector
;	COMDAT ?_Buy_raw@?$vector@PAVCGraphicImage@@V?$allocator@PAVCGraphicImage@@@std@@@std@@AAEXI@Z
_TEXT	SEGMENT
__Max_possible$1 = -44					; size = 4
$T2 = -40						; size = 4
__Myend$ = -36						; size = 4
__Mylast$ = -32						; size = 4
__Myfirst$ = -28					; size = 4
$T3 = -24						; size = 4
$T4 = -20						; size = 4
_this$ = -16						; size = 4
__Newvec$ = -12						; size = 4
__My_data$ = -8						; size = 4
__Overflow_is_possible$5 = -1				; size = 1
__Newcapacity$ = 8					; size = 4
?_Buy_raw@?$vector@PAVCGraphicImage@@V?$allocator@PAVCGraphicImage@@@std@@@std@@AAEXI@Z PROC ; std::vector<CGraphicImage *,std::allocator<CGraphicImage *> >::_Buy_raw, COMDAT
; _this$ = ecx

; 1633 :     void _Buy_raw(const size_type _Newcapacity) {

  00000	55		 push	 ebp
  00001	8b ec		 mov	 ebp, esp
  00003	83 ec 2c	 sub	 esp, 44			; 0000002cH
  00006	89 4d f0	 mov	 DWORD PTR _this$[ebp], ecx

; 1634 :         // allocate array with _Newcapacity elements
; 1635 :         auto& _My_data    = _Mypair._Myval2;

  00009	8b 45 f0	 mov	 eax, DWORD PTR _this$[ebp]
  0000c	89 45 f8	 mov	 DWORD PTR __My_data$[ebp], eax

; 1636 :         pointer& _Myfirst = _My_data._Myfirst;

  0000f	8b 45 f8	 mov	 eax, DWORD PTR __My_data$[ebp]
  00012	89 45 e4	 mov	 DWORD PTR __Myfirst$[ebp], eax

; 1637 :         pointer& _Mylast  = _My_data._Mylast;

  00015	8b 45 f8	 mov	 eax, DWORD PTR __My_data$[ebp]
  00018	83 c0 04	 add	 eax, 4
  0001b	89 45 e0	 mov	 DWORD PTR __Mylast$[ebp], eax

; 1638 :         pointer& _Myend   = _My_data._Myend;

  0001e	8b 45 f8	 mov	 eax, DWORD PTR __My_data$[ebp]
  00021	83 c0 08	 add	 eax, 8
  00024	89 45 dc	 mov	 DWORD PTR __Myend$[ebp], eax

; 1733 :         return _Mypair._Get_first();

  00027	8b 45 f0	 mov	 eax, DWORD PTR _this$[ebp]
; File C:\Program Files (x86)\Microsoft Visual Studio\2019\Community\VC\Tools\MSVC\14.28.29333\include\xmemory

; 1347 :         return *this;

  0002a	89 45 ec	 mov	 DWORD PTR $T4[ebp], eax
; File C:\Program Files (x86)\Microsoft Visual Studio\2019\Community\VC\Tools\MSVC\14.28.29333\include\vector

; 1733 :         return _Mypair._Get_first();

  0002d	8b 45 ec	 mov	 eax, DWORD PTR $T4[ebp]
  00030	89 45 d8	 mov	 DWORD PTR $T2[ebp], eax
; File C:\Program Files (x86)\Microsoft Visual Studio\2019\Community\VC\Tools\MSVC\14.28.29333\include\xmemory

; 56   :     constexpr bool _Overflow_is_possible = _Ty_size > 1;

  00033	c6 45 ff 01	 mov	 BYTE PTR __Overflow_is_possible$5[ebp], 1

; 57   : 
; 58   :     if _CONSTEXPR_IF (_Overflow_is_possible) {
; 59   :         constexpr size_t _Max_possible = static_cast<size_t>(-1) / _Ty_size;

  00037	c7 45 d4 ff ff
	ff 3f		 mov	 DWORD PTR __Max_possible$1[ebp], 1073741823 ; 3fffffffH

; 60   :         if (_Count > _Max_possible) {

  0003e	81 7d 08 ff ff
	ff 3f		 cmp	 DWORD PTR __Newcapacity$[ebp], 1073741823 ; 3fffffffH
  00045	76 05		 jbe	 SHORT $LN12@Buy_raw

; 61   :             _Throw_bad_array_new_length(); // multiply overflow

  00047	e8 00 00 00 00	 call	 ?_Throw_bad_array_new_length@std@@YAXXZ ; std::_Throw_bad_array_new_length
$LN12@Buy_raw:

; 62   :         }
; 63   :     }
; 64   : 
; 65   :     return _Count * _Ty_size;

  0004c	8b 45 08	 mov	 eax, DWORD PTR __Newcapacity$[ebp]
  0004f	c1 e0 02	 shl	 eax, 2
  00052	89 45 e8	 mov	 DWORD PTR $T3[ebp], eax

; 814  :         return static_cast<_Ty*>(_Allocate<_New_alignof<_Ty>>(_Get_size_of_n<sizeof(_Ty)>(_Count)));

  00055	ff 75 e8	 push	 DWORD PTR $T3[ebp]
  00058	e8 00 00 00 00	 call	 ??$_Allocate@$07U_Default_allocate_traits@std@@$0A@@std@@YAPAXI@Z ; std::_Allocate<8,std::_Default_allocate_traits,0>
  0005d	59		 pop	 ecx
  0005e	89 45 f4	 mov	 DWORD PTR __Newvec$[ebp], eax
; File C:\Program Files (x86)\Microsoft Visual Studio\2019\Community\VC\Tools\MSVC\14.28.29333\include\vector

; 1644 :         _Myfirst           = _Newvec;

  00061	8b 45 e4	 mov	 eax, DWORD PTR __Myfirst$[ebp]
  00064	8b 4d f4	 mov	 ecx, DWORD PTR __Newvec$[ebp]
  00067	89 08		 mov	 DWORD PTR [eax], ecx

; 1645 :         _Mylast            = _Newvec;

  00069	8b 45 e0	 mov	 eax, DWORD PTR __Mylast$[ebp]
  0006c	8b 4d f4	 mov	 ecx, DWORD PTR __Newvec$[ebp]
  0006f	89 08		 mov	 DWORD PTR [eax], ecx

; 1646 :         _Myend             = _Newvec + _Newcapacity;

  00071	8b 45 08	 mov	 eax, DWORD PTR __Newcapacity$[ebp]
  00074	8b 4d f4	 mov	 ecx, DWORD PTR __Newvec$[ebp]
  00077	8d 04 81	 lea	 eax, DWORD PTR [ecx+eax*4]
  0007a	8b 4d dc	 mov	 ecx, DWORD PTR __Myend$[ebp]
  0007d	89 01		 mov	 DWORD PTR [ecx], eax
$LN15@Buy_raw:

; 1647 :     }

  0007f	c9		 leave
  00080	c2 04 00	 ret	 4
?_Buy_raw@?$vector@PAVCGraphicImage@@V?$allocator@PAVCGraphicImage@@@std@@@std@@AAEXI@Z ENDP ; std::vector<CGraphicImage *,std::allocator<CGraphicImage *> >::_Buy_raw
_TEXT	ENDS
; Function compile flags: /Odspy
; File C:\Program Files (x86)\Microsoft Visual Studio\2019\Community\VC\Tools\MSVC\14.28.29333\include\vector
; File C:\Program Files (x86)\Microsoft Visual Studio\2019\Community\VC\Tools\MSVC\14.28.29333\include\xmemory
; File C:\Program Files (x86)\Microsoft Visual Studio\2019\Community\VC\Tools\MSVC\14.28.29333\include\vector
; File C:\Program Files (x86)\Microsoft Visual Studio\2019\Community\VC\Tools\MSVC\14.28.29333\include\xmemory
; File C:\Program Files (x86)\Microsoft Visual Studio\2019\Community\VC\Tools\MSVC\14.28.29333\include\limits
; File C:\Program Files (x86)\Microsoft Visual Studio\2019\Community\VC\Tools\MSVC\14.28.29333\include\vector
; File C:\Program Files (x86)\Microsoft Visual Studio\2019\Community\VC\Tools\MSVC\14.28.29333\include\utility
; File C:\Program Files (x86)\Microsoft Visual Studio\2019\Community\VC\Tools\MSVC\14.28.29333\include\vector
;	COMDAT ?_Calculate_growth@?$vector@PAVCGraphicImage@@V?$allocator@PAVCGraphicImage@@@std@@@std@@ABEII@Z
_TEXT	SEGMENT
$T1 = -52						; size = 4
$T2 = -48						; size = 4
$T3 = -44						; size = 4
$T4 = -40						; size = 4
$T5 = -36						; size = 4
__Geometric$ = -32					; size = 4
__Max$ = -28						; size = 4
tv82 = -24						; size = 4
$T6 = -20						; size = 4
$T7 = -16						; size = 4
_this$ = -12						; size = 4
__My_data$8 = -8					; size = 4
__Oldcapacity$ = -4					; size = 4
__Newsize$ = 8						; size = 4
?_Calculate_growth@?$vector@PAVCGraphicImage@@V?$allocator@PAVCGraphicImage@@@std@@@std@@ABEII@Z PROC ; std::vector<CGraphicImage *,std::allocator<CGraphicImage *> >::_Calculate_growth, COMDAT
; _this$ = ecx

; 1615 :     size_type _Calculate_growth(const size_type _Newsize) const {

  00000	55		 push	 ebp
  00001	8b ec		 mov	 ebp, esp
  00003	83 ec 34	 sub	 esp, 52			; 00000034H
  00006	89 4d f4	 mov	 DWORD PTR _this$[ebp], ecx

; 1493 :         auto& _My_data = _Mypair._Myval2;

  00009	8b 45 f4	 mov	 eax, DWORD PTR _this$[ebp]
  0000c	89 45 f8	 mov	 DWORD PTR __My_data$8[ebp], eax

; 1494 :         return static_cast<size_type>(_My_data._Myend - _My_data._Myfirst);

  0000f	8b 45 f8	 mov	 eax, DWORD PTR __My_data$8[ebp]
  00012	8b 4d f8	 mov	 ecx, DWORD PTR __My_data$8[ebp]
  00015	8b 40 08	 mov	 eax, DWORD PTR [eax+8]
  00018	2b 01		 sub	 eax, DWORD PTR [ecx]
  0001a	c1 f8 02	 sar	 eax, 2
  0001d	89 45 fc	 mov	 DWORD PTR __Oldcapacity$[ebp], eax

; 1737 :         return _Mypair._Get_first();

  00020	8b 45 f4	 mov	 eax, DWORD PTR _this$[ebp]
; File C:\Program Files (x86)\Microsoft Visual Studio\2019\Community\VC\Tools\MSVC\14.28.29333\include\xmemory

; 1351 :         return *this;

  00023	89 45 dc	 mov	 DWORD PTR $T5[ebp], eax
; File C:\Program Files (x86)\Microsoft Visual Studio\2019\Community\VC\Tools\MSVC\14.28.29333\include\vector

; 1737 :         return _Mypair._Get_first();

  00026	8b 45 dc	 mov	 eax, DWORD PTR $T5[ebp]
  00029	89 45 cc	 mov	 DWORD PTR $T1[ebp], eax
; File C:\Program Files (x86)\Microsoft Visual Studio\2019\Community\VC\Tools\MSVC\14.28.29333\include\xmemory

; 710  :         return static_cast<size_t>(-1) / sizeof(value_type);

  0002c	c7 45 f0 ff ff
	ff 3f		 mov	 DWORD PTR $T7[ebp], 1073741823 ; 3fffffffH
; File C:\Program Files (x86)\Microsoft Visual Studio\2019\Community\VC\Tools\MSVC\14.28.29333\include\limits

; 557  :         return INT_MAX;

  00033	c7 45 d8 ff ff
	ff 7f		 mov	 DWORD PTR $T4[ebp], 2147483647 ; 7fffffffH
; File C:\Program Files (x86)\Microsoft Visual Studio\2019\Community\VC\Tools\MSVC\14.28.29333\include\vector

; 1488 :         return (_STD min)(

  0003a	8b 45 d8	 mov	 eax, DWORD PTR $T4[ebp]
  0003d	89 45 ec	 mov	 DWORD PTR $T6[ebp], eax
; File C:\Program Files (x86)\Microsoft Visual Studio\2019\Community\VC\Tools\MSVC\14.28.29333\include\utility

; 68   :     return _Right < _Left ? _Right : _Left;

  00040	8b 45 f0	 mov	 eax, DWORD PTR $T7[ebp]
  00043	3b 45 ec	 cmp	 eax, DWORD PTR $T6[ebp]
  00046	73 08		 jae	 SHORT $LN25@Calculate_
  00048	8d 45 f0	 lea	 eax, DWORD PTR $T7[ebp]
  0004b	89 45 e8	 mov	 DWORD PTR tv82[ebp], eax
  0004e	eb 06		 jmp	 SHORT $LN26@Calculate_
$LN25@Calculate_:
  00050	8d 45 ec	 lea	 eax, DWORD PTR $T6[ebp]
  00053	89 45 e8	 mov	 DWORD PTR tv82[ebp], eax
$LN26@Calculate_:
  00056	8b 45 e8	 mov	 eax, DWORD PTR tv82[ebp]
  00059	89 45 d4	 mov	 DWORD PTR $T3[ebp], eax
  0005c	8b 45 d4	 mov	 eax, DWORD PTR $T3[ebp]
  0005f	89 45 d0	 mov	 DWORD PTR $T2[ebp], eax
; File C:\Program Files (x86)\Microsoft Visual Studio\2019\Community\VC\Tools\MSVC\14.28.29333\include\vector

; 1488 :         return (_STD min)(

  00062	8b 45 d0	 mov	 eax, DWORD PTR $T2[ebp]
  00065	8b 00		 mov	 eax, DWORD PTR [eax]
  00067	89 45 e4	 mov	 DWORD PTR __Max$[ebp], eax

; 1616 :         // given _Oldcapacity and _Newsize, calculate geometric growth
; 1617 :         const size_type _Oldcapacity = capacity();
; 1618 :         const auto _Max              = max_size();
; 1619 : 
; 1620 :         if (_Oldcapacity > _Max - _Oldcapacity / 2) {

  0006a	8b 45 fc	 mov	 eax, DWORD PTR __Oldcapacity$[ebp]
  0006d	d1 e8		 shr	 eax, 1
  0006f	8b 4d e4	 mov	 ecx, DWORD PTR __Max$[ebp]
  00072	2b c8		 sub	 ecx, eax
  00074	39 4d fc	 cmp	 DWORD PTR __Oldcapacity$[ebp], ecx
  00077	76 05		 jbe	 SHORT $LN2@Calculate_

; 1621 :             return _Max; // geometric growth would overflow

  00079	8b 45 e4	 mov	 eax, DWORD PTR __Max$[ebp]
  0007c	eb 1b		 jmp	 SHORT $LN1@Calculate_
$LN2@Calculate_:

; 1622 :         }
; 1623 : 
; 1624 :         const size_type _Geometric = _Oldcapacity + _Oldcapacity / 2;

  0007e	8b 45 fc	 mov	 eax, DWORD PTR __Oldcapacity$[ebp]
  00081	d1 e8		 shr	 eax, 1
  00083	03 45 fc	 add	 eax, DWORD PTR __Oldcapacity$[ebp]
  00086	89 45 e0	 mov	 DWORD PTR __Geometric$[ebp], eax

; 1625 : 
; 1626 :         if (_Geometric < _Newsize) {

  00089	8b 45 e0	 mov	 eax, DWORD PTR __Geometric$[ebp]
  0008c	3b 45 08	 cmp	 eax, DWORD PTR __Newsize$[ebp]
  0008f	73 05		 jae	 SHORT $LN3@Calculate_

; 1627 :             return _Newsize; // geometric growth would be insufficient

  00091	8b 45 08	 mov	 eax, DWORD PTR __Newsize$[ebp]
  00094	eb 03		 jmp	 SHORT $LN1@Calculate_
$LN3@Calculate_:

; 1628 :         }
; 1629 : 
; 1630 :         return _Geometric; // geometric growth is sufficient

  00096	8b 45 e0	 mov	 eax, DWORD PTR __Geometric$[ebp]
$LN1@Calculate_:

; 1631 :     }

  00099	c9		 leave
  0009a	c2 04 00	 ret	 4
?_Calculate_growth@?$vector@PAVCGraphicImage@@V?$allocator@PAVCGraphicImage@@@std@@@std@@ABEII@Z ENDP ; std::vector<CGraphicImage *,std::allocator<CGraphicImage *> >::_Calculate_growth
_TEXT	ENDS
; Function compile flags: /Odspy
; File C:\Program Files (x86)\Microsoft Visual Studio\2019\Community\VC\Tools\MSVC\14.28.29333\include\vector
; File C:\Program Files (x86)\Microsoft Visual Studio\2019\Community\VC\Tools\MSVC\14.28.29333\include\xmemory
; File C:\Program Files (x86)\Microsoft Visual Studio\2019\Community\VC\Tools\MSVC\14.28.29333\include\vector
;	COMDAT ?_Destroy@?$vector@PAVCGraphicImage@@V?$allocator@PAVCGraphicImage@@@std@@@std@@AAEXPAPAVCGraphicImage@@0@Z
_TEXT	SEGMENT
$T1 = -12						; size = 4
$T2 = -8						; size = 4
_this$ = -4						; size = 4
__First$ = 8						; size = 4
__Last$ = 12						; size = 4
?_Destroy@?$vector@PAVCGraphicImage@@V?$allocator@PAVCGraphicImage@@@std@@@std@@AAEXPAPAVCGraphicImage@@0@Z PROC ; std::vector<CGraphicImage *,std::allocator<CGraphicImage *> >::_Destroy, COMDAT
; _this$ = ecx

; 1611 :     void _Destroy(pointer _First, pointer _Last) { // destroy [_First, _Last) using allocator

  00000	55		 push	 ebp
  00001	8b ec		 mov	 ebp, esp
  00003	83 ec 0c	 sub	 esp, 12			; 0000000cH
  00006	89 4d fc	 mov	 DWORD PTR _this$[ebp], ecx

; 1733 :         return _Mypair._Get_first();

  00009	8b 45 fc	 mov	 eax, DWORD PTR _this$[ebp]
; File C:\Program Files (x86)\Microsoft Visual Studio\2019\Community\VC\Tools\MSVC\14.28.29333\include\xmemory

; 1347 :         return *this;

  0000c	89 45 f8	 mov	 DWORD PTR $T2[ebp], eax
; File C:\Program Files (x86)\Microsoft Visual Studio\2019\Community\VC\Tools\MSVC\14.28.29333\include\vector

; 1733 :         return _Mypair._Get_first();

  0000f	8b 45 f8	 mov	 eax, DWORD PTR $T2[ebp]
  00012	89 45 f4	 mov	 DWORD PTR $T1[ebp], eax

; 1612 :         _Destroy_range(_First, _Last, _Getal());

  00015	ff 75 f4	 push	 DWORD PTR $T1[ebp]
  00018	ff 75 0c	 push	 DWORD PTR __Last$[ebp]
  0001b	ff 75 08	 push	 DWORD PTR __First$[ebp]
  0001e	e8 00 00 00 00	 call	 ??$_Destroy_range@V?$allocator@PAVCGraphicImage@@@std@@@std@@YAXPAPAVCGraphicImage@@QAPAV1@AAV?$allocator@PAVCGraphicImage@@@0@@Z ; std::_Destroy_range<std::allocator<CGraphicImage *> >
  00023	83 c4 0c	 add	 esp, 12			; 0000000cH

; 1613 :     }

  00026	c9		 leave
  00027	c2 08 00	 ret	 8
?_Destroy@?$vector@PAVCGraphicImage@@V?$allocator@PAVCGraphicImage@@@std@@@std@@AAEXPAPAVCGraphicImage@@0@Z ENDP ; std::vector<CGraphicImage *,std::allocator<CGraphicImage *> >::_Destroy
_TEXT	ENDS
; Function compile flags: /Odspy
; File C:\Program Files (x86)\Microsoft Visual Studio\2019\Community\VC\Tools\MSVC\14.28.29333\include\vector
; File C:\Program Files (x86)\Microsoft Visual Studio\2019\Community\VC\Tools\MSVC\14.28.29333\include\xmemory
; File C:\Program Files (x86)\Microsoft Visual Studio\2019\Community\VC\Tools\MSVC\14.28.29333\include\vector
; File C:\Program Files (x86)\Microsoft Visual Studio\2019\Community\VC\Tools\MSVC\14.28.29333\include\xmemory
; File C:\Program Files (x86)\Microsoft Visual Studio\2019\Community\VC\Tools\MSVC\14.28.29333\include\limits
; File C:\Program Files (x86)\Microsoft Visual Studio\2019\Community\VC\Tools\MSVC\14.28.29333\include\vector
; File C:\Program Files (x86)\Microsoft Visual Studio\2019\Community\VC\Tools\MSVC\14.28.29333\include\utility
; File C:\Program Files (x86)\Microsoft Visual Studio\2019\Community\VC\Tools\MSVC\14.28.29333\include\vector
;	COMDAT ?max_size@?$vector@PAVCGraphicImage@@V?$allocator@PAVCGraphicImage@@@std@@@std@@QBEIXZ
_TEXT	SEGMENT
$T1 = -36						; size = 4
$T2 = -32						; size = 4
$T3 = -28						; size = 4
$T4 = -24						; size = 4
$T5 = -20						; size = 4
_this$ = -16						; size = 4
tv68 = -12						; size = 4
$T6 = -8						; size = 4
$T7 = -4						; size = 4
?max_size@?$vector@PAVCGraphicImage@@V?$allocator@PAVCGraphicImage@@@std@@@std@@QBEIXZ PROC ; std::vector<CGraphicImage *,std::allocator<CGraphicImage *> >::max_size, COMDAT
; _this$ = ecx

; 1487 :     _NODISCARD size_type max_size() const noexcept {

  00000	55		 push	 ebp
  00001	8b ec		 mov	 ebp, esp
  00003	83 ec 24	 sub	 esp, 36			; 00000024H
  00006	89 4d f0	 mov	 DWORD PTR _this$[ebp], ecx

; 1737 :         return _Mypair._Get_first();

  00009	8b 45 f0	 mov	 eax, DWORD PTR _this$[ebp]
; File C:\Program Files (x86)\Microsoft Visual Studio\2019\Community\VC\Tools\MSVC\14.28.29333\include\xmemory

; 1351 :         return *this;

  0000c	89 45 ec	 mov	 DWORD PTR $T5[ebp], eax
; File C:\Program Files (x86)\Microsoft Visual Studio\2019\Community\VC\Tools\MSVC\14.28.29333\include\vector

; 1737 :         return _Mypair._Get_first();

  0000f	8b 45 ec	 mov	 eax, DWORD PTR $T5[ebp]
  00012	89 45 dc	 mov	 DWORD PTR $T1[ebp], eax
; File C:\Program Files (x86)\Microsoft Visual Studio\2019\Community\VC\Tools\MSVC\14.28.29333\include\xmemory

; 710  :         return static_cast<size_t>(-1) / sizeof(value_type);

  00015	c7 45 fc ff ff
	ff 3f		 mov	 DWORD PTR $T7[ebp], 1073741823 ; 3fffffffH
; File C:\Program Files (x86)\Microsoft Visual Studio\2019\Community\VC\Tools\MSVC\14.28.29333\include\limits

; 557  :         return INT_MAX;

  0001c	c7 45 e8 ff ff
	ff 7f		 mov	 DWORD PTR $T4[ebp], 2147483647 ; 7fffffffH
; File C:\Program Files (x86)\Microsoft Visual Studio\2019\Community\VC\Tools\MSVC\14.28.29333\include\vector

; 1488 :         return (_STD min)(

  00023	8b 45 e8	 mov	 eax, DWORD PTR $T4[ebp]
  00026	89 45 f8	 mov	 DWORD PTR $T6[ebp], eax
; File C:\Program Files (x86)\Microsoft Visual Studio\2019\Community\VC\Tools\MSVC\14.28.29333\include\utility

; 68   :     return _Right < _Left ? _Right : _Left;

  00029	8b 45 fc	 mov	 eax, DWORD PTR $T7[ebp]
  0002c	3b 45 f8	 cmp	 eax, DWORD PTR $T6[ebp]
  0002f	73 08		 jae	 SHORT $LN17@max_size
  00031	8d 45 fc	 lea	 eax, DWORD PTR $T7[ebp]
  00034	89 45 f4	 mov	 DWORD PTR tv68[ebp], eax
  00037	eb 06		 jmp	 SHORT $LN18@max_size
$LN17@max_size:
  00039	8d 45 f8	 lea	 eax, DWORD PTR $T6[ebp]
  0003c	89 45 f4	 mov	 DWORD PTR tv68[ebp], eax
$LN18@max_size:
  0003f	8b 45 f4	 mov	 eax, DWORD PTR tv68[ebp]
  00042	89 45 e4	 mov	 DWORD PTR $T3[ebp], eax
  00045	8b 45 e4	 mov	 eax, DWORD PTR $T3[ebp]
  00048	89 45 e0	 mov	 DWORD PTR $T2[ebp], eax
; File C:\Program Files (x86)\Microsoft Visual Studio\2019\Community\VC\Tools\MSVC\14.28.29333\include\vector

; 1488 :         return (_STD min)(

  0004b	8b 45 e0	 mov	 eax, DWORD PTR $T2[ebp]
  0004e	8b 00		 mov	 eax, DWORD PTR [eax]

; 1489 :             static_cast<size_type>((numeric_limits<difference_type>::max)()), _Alty_traits::max_size(_Getal()));
; 1490 :     }

  00050	c9		 leave
  00051	c3		 ret	 0
?max_size@?$vector@PAVCGraphicImage@@V?$allocator@PAVCGraphicImage@@@std@@@std@@QBEIXZ ENDP ; std::vector<CGraphicImage *,std::allocator<CGraphicImage *> >::max_size
_TEXT	ENDS
; Function compile flags: /Odspy
; File C:\Program Files (x86)\Microsoft Visual Studio\2019\Community\VC\Tools\MSVC\14.28.29333\include\vector
; File C:\Program Files (x86)\Microsoft Visual Studio\2019\Community\VC\Tools\MSVC\14.28.29333\include\xmemory
; File C:\Program Files (x86)\Microsoft Visual Studio\2019\Community\VC\Tools\MSVC\14.28.29333\include\vector
;	COMDAT ?clear@?$vector@PAVCGraphicImage@@V?$allocator@PAVCGraphicImage@@@std@@@std@@QAEXXZ
_TEXT	SEGMENT
__First$ = -32						; size = 4
__Last$ = -28						; size = 4
$T1 = -24						; size = 4
$T2 = -20						; size = 4
__Myfirst$ = -16					; size = 4
__Mylast$ = -12						; size = 4
_this$ = -8						; size = 4
__My_data$ = -4						; size = 4
?clear@?$vector@PAVCGraphicImage@@V?$allocator@PAVCGraphicImage@@@std@@@std@@QAEXXZ PROC ; std::vector<CGraphicImage *,std::allocator<CGraphicImage *> >::clear, COMDAT
; _this$ = ecx

; 1383 :     void clear() noexcept { // erase all

  00000	55		 push	 ebp
  00001	8b ec		 mov	 ebp, esp
  00003	83 ec 20	 sub	 esp, 32			; 00000020H
  00006	89 4d f8	 mov	 DWORD PTR _this$[ebp], ecx

; 1384 :         auto& _My_data    = _Mypair._Myval2;

  00009	8b 45 f8	 mov	 eax, DWORD PTR _this$[ebp]
  0000c	89 45 fc	 mov	 DWORD PTR __My_data$[ebp], eax

; 1385 :         pointer& _Myfirst = _My_data._Myfirst;

  0000f	8b 45 fc	 mov	 eax, DWORD PTR __My_data$[ebp]
  00012	89 45 f0	 mov	 DWORD PTR __Myfirst$[ebp], eax

; 1386 :         pointer& _Mylast  = _My_data._Mylast;

  00015	8b 45 fc	 mov	 eax, DWORD PTR __My_data$[ebp]
  00018	83 c0 04	 add	 eax, 4
  0001b	89 45 f4	 mov	 DWORD PTR __Mylast$[ebp], eax

; 1387 : 
; 1388 :         _My_data._Orphan_all();
; 1389 :         _Destroy(_Myfirst, _Mylast);

  0001e	8b 45 f4	 mov	 eax, DWORD PTR __Mylast$[ebp]
  00021	8b 00		 mov	 eax, DWORD PTR [eax]
  00023	89 45 e4	 mov	 DWORD PTR __Last$[ebp], eax
  00026	8b 45 f0	 mov	 eax, DWORD PTR __Myfirst$[ebp]
  00029	8b 00		 mov	 eax, DWORD PTR [eax]
  0002b	89 45 e0	 mov	 DWORD PTR __First$[ebp], eax

; 1733 :         return _Mypair._Get_first();

  0002e	8b 45 f8	 mov	 eax, DWORD PTR _this$[ebp]
; File C:\Program Files (x86)\Microsoft Visual Studio\2019\Community\VC\Tools\MSVC\14.28.29333\include\xmemory

; 1347 :         return *this;

  00031	89 45 ec	 mov	 DWORD PTR $T2[ebp], eax
; File C:\Program Files (x86)\Microsoft Visual Studio\2019\Community\VC\Tools\MSVC\14.28.29333\include\vector

; 1733 :         return _Mypair._Get_first();

  00034	8b 45 ec	 mov	 eax, DWORD PTR $T2[ebp]
  00037	89 45 e8	 mov	 DWORD PTR $T1[ebp], eax

; 1612 :         _Destroy_range(_First, _Last, _Getal());

  0003a	ff 75 e8	 push	 DWORD PTR $T1[ebp]
  0003d	ff 75 e4	 push	 DWORD PTR __Last$[ebp]
  00040	ff 75 e0	 push	 DWORD PTR __First$[ebp]
  00043	e8 00 00 00 00	 call	 ??$_Destroy_range@V?$allocator@PAVCGraphicImage@@@std@@@std@@YAXPAPAVCGraphicImage@@QAPAV1@AAV?$allocator@PAVCGraphicImage@@@0@@Z ; std::_Destroy_range<std::allocator<CGraphicImage *> >
  00048	83 c4 0c	 add	 esp, 12			; 0000000cH

; 1390 :         _Mylast = _Myfirst;

  0004b	8b 45 f4	 mov	 eax, DWORD PTR __Mylast$[ebp]
  0004e	8b 4d f0	 mov	 ecx, DWORD PTR __Myfirst$[ebp]
  00051	8b 09		 mov	 ecx, DWORD PTR [ecx]
  00053	89 08		 mov	 DWORD PTR [eax], ecx

; 1391 :     }

  00055	c9		 leave
  00056	c3		 ret	 0
?clear@?$vector@PAVCGraphicImage@@V?$allocator@PAVCGraphicImage@@@std@@@std@@QAEXXZ ENDP ; std::vector<CGraphicImage *,std::allocator<CGraphicImage *> >::clear
_TEXT	ENDS
; Function compile flags: /Odspy
; File C:\Program Files (x86)\Microsoft Visual Studio\2019\Community\VC\Tools\MSVC\14.28.29333\include\vector
; File C:\Program Files (x86)\Microsoft Visual Studio\2019\Community\VC\Tools\MSVC\14.28.29333\include\xmemory
; File C:\Program Files (x86)\Microsoft Visual Studio\2019\Community\VC\Tools\MSVC\14.28.29333\include\vector
; File C:\Program Files (x86)\Microsoft Visual Studio\2019\Community\VC\Tools\MSVC\14.28.29333\include\xmemory
; File C:\Program Files (x86)\Microsoft Visual Studio\2019\Community\VC\Tools\MSVC\14.28.29333\include\vector
; File C:\Program Files (x86)\Microsoft Visual Studio\2019\Community\VC\Tools\MSVC\14.28.29333\include\xmemory
; File C:\Program Files (x86)\Microsoft Visual Studio\2019\Community\VC\Tools\MSVC\14.28.29333\include\vector
;	COMDAT ?_Clear_and_reserve_geometric@?$vector@PAVCGraphicImage@@V?$allocator@PAVCGraphicImage@@@std@@@std@@AAEXI@Z
_TEXT	SEGMENT
$T1 = -56						; size = 4
__Newcapacity$ = -52					; size = 4
__Ptr$ = -48						; size = 4
__Count$ = -44						; size = 4
$T2 = -40						; size = 4
__First$ = -36						; size = 4
__Last$ = -32						; size = 4
$T3 = -28						; size = 4
$T4 = -24						; size = 4
__Myend$ = -20						; size = 4
__Mylast$ = -16						; size = 4
__My_data$ = -12					; size = 4
__Myfirst$ = -8						; size = 4
_this$ = -4						; size = 4
__Newsize$ = 8						; size = 4
?_Clear_and_reserve_geometric@?$vector@PAVCGraphicImage@@V?$allocator@PAVCGraphicImage@@@std@@@std@@AAEXI@Z PROC ; std::vector<CGraphicImage *,std::allocator<CGraphicImage *> >::_Clear_and_reserve_geometric, COMDAT
; _this$ = ecx

; 1271 :     void _Clear_and_reserve_geometric(const size_type _Newsize) {

  00000	55		 push	 ebp
  00001	8b ec		 mov	 ebp, esp
  00003	83 ec 38	 sub	 esp, 56			; 00000038H
  00006	89 4d fc	 mov	 DWORD PTR _this$[ebp], ecx

; 1272 :         auto& _My_data    = _Mypair._Myval2;

  00009	8b 45 fc	 mov	 eax, DWORD PTR _this$[ebp]
  0000c	89 45 f4	 mov	 DWORD PTR __My_data$[ebp], eax

; 1273 :         pointer& _Myfirst = _My_data._Myfirst;

  0000f	8b 45 f4	 mov	 eax, DWORD PTR __My_data$[ebp]
  00012	89 45 f8	 mov	 DWORD PTR __Myfirst$[ebp], eax

; 1274 :         pointer& _Mylast  = _My_data._Mylast;

  00015	8b 45 f4	 mov	 eax, DWORD PTR __My_data$[ebp]
  00018	83 c0 04	 add	 eax, 4
  0001b	89 45 f0	 mov	 DWORD PTR __Mylast$[ebp], eax

; 1275 :         pointer& _Myend   = _My_data._Myend;

  0001e	8b 45 f4	 mov	 eax, DWORD PTR __My_data$[ebp]
  00021	83 c0 08	 add	 eax, 8
  00024	89 45 ec	 mov	 DWORD PTR __Myend$[ebp], eax

; 1276 : 
; 1277 : #if _ITERATOR_DEBUG_LEVEL != 0 && defined(_ENABLE_STL_INTERNAL_CHECK)
; 1278 :         _STL_INTERNAL_CHECK(_Newsize != 0);
; 1279 :         {
; 1280 :             _Lockit _Lock(_LOCK_DEBUG);
; 1281 :             _STL_INTERNAL_CHECK(!_My_data._Myproxy->_Myfirstiter); // asserts that all iterators are orphaned
; 1282 :         } // unlock
; 1283 : #endif // _ITERATOR_DEBUG_LEVEL != 0 && defined(_ENABLE_STL_INTERNAL_CHECK)
; 1284 : 
; 1285 :         if (_Newsize > max_size()) {

  00027	8b 4d fc	 mov	 ecx, DWORD PTR _this$[ebp]
  0002a	e8 00 00 00 00	 call	 ?max_size@?$vector@PAVCGraphicImage@@V?$allocator@PAVCGraphicImage@@@std@@@std@@QBEIXZ ; std::vector<CGraphicImage *,std::allocator<CGraphicImage *> >::max_size
  0002f	39 45 08	 cmp	 DWORD PTR __Newsize$[ebp], eax
  00032	76 05		 jbe	 SHORT $LN2@Clear_and_

; 1286 :             _Xlength();

  00034	e8 00 00 00 00	 call	 ?_Xlength@?$vector@PAVCGraphicImage@@V?$allocator@PAVCGraphicImage@@@std@@@std@@CAXXZ ; std::vector<CGraphicImage *,std::allocator<CGraphicImage *> >::_Xlength
$LN2@Clear_and_:

; 1287 :         }
; 1288 : 
; 1289 :         const size_type _Newcapacity = _Calculate_growth(_Newsize);

  00039	ff 75 08	 push	 DWORD PTR __Newsize$[ebp]
  0003c	8b 4d fc	 mov	 ecx, DWORD PTR _this$[ebp]
  0003f	e8 00 00 00 00	 call	 ?_Calculate_growth@?$vector@PAVCGraphicImage@@V?$allocator@PAVCGraphicImage@@@std@@@std@@ABEII@Z ; std::vector<CGraphicImage *,std::allocator<CGraphicImage *> >::_Calculate_growth
  00044	89 45 cc	 mov	 DWORD PTR __Newcapacity$[ebp], eax

; 1290 : 
; 1291 :         if (_Myfirst) { // destroy and deallocate old array

  00047	8b 45 f8	 mov	 eax, DWORD PTR __Myfirst$[ebp]
  0004a	83 38 00	 cmp	 DWORD PTR [eax], 0
  0004d	74 74		 je	 SHORT $LN3@Clear_and_

; 1292 :             _Destroy(_Myfirst, _Mylast);

  0004f	8b 45 f0	 mov	 eax, DWORD PTR __Mylast$[ebp]
  00052	8b 00		 mov	 eax, DWORD PTR [eax]
  00054	89 45 e0	 mov	 DWORD PTR __Last$[ebp], eax
  00057	8b 45 f8	 mov	 eax, DWORD PTR __Myfirst$[ebp]
  0005a	8b 00		 mov	 eax, DWORD PTR [eax]
  0005c	89 45 dc	 mov	 DWORD PTR __First$[ebp], eax

; 1733 :         return _Mypair._Get_first();

  0005f	8b 45 fc	 mov	 eax, DWORD PTR _this$[ebp]
; File C:\Program Files (x86)\Microsoft Visual Studio\2019\Community\VC\Tools\MSVC\14.28.29333\include\xmemory

; 1347 :         return *this;

  00062	89 45 e8	 mov	 DWORD PTR $T4[ebp], eax
; File C:\Program Files (x86)\Microsoft Visual Studio\2019\Community\VC\Tools\MSVC\14.28.29333\include\vector

; 1733 :         return _Mypair._Get_first();

  00065	8b 45 e8	 mov	 eax, DWORD PTR $T4[ebp]
  00068	89 45 e4	 mov	 DWORD PTR $T3[ebp], eax

; 1612 :         _Destroy_range(_First, _Last, _Getal());

  0006b	ff 75 e4	 push	 DWORD PTR $T3[ebp]
  0006e	ff 75 e0	 push	 DWORD PTR __Last$[ebp]
  00071	ff 75 dc	 push	 DWORD PTR __First$[ebp]
  00074	e8 00 00 00 00	 call	 ??$_Destroy_range@V?$allocator@PAVCGraphicImage@@@std@@@std@@YAXPAPAVCGraphicImage@@QAPAV1@AAV?$allocator@PAVCGraphicImage@@@0@@Z ; std::_Destroy_range<std::allocator<CGraphicImage *> >
  00079	83 c4 0c	 add	 esp, 12			; 0000000cH

; 1733 :         return _Mypair._Get_first();

  0007c	8b 45 fc	 mov	 eax, DWORD PTR _this$[ebp]
; File C:\Program Files (x86)\Microsoft Visual Studio\2019\Community\VC\Tools\MSVC\14.28.29333\include\xmemory

; 1347 :         return *this;

  0007f	89 45 d8	 mov	 DWORD PTR $T2[ebp], eax
; File C:\Program Files (x86)\Microsoft Visual Studio\2019\Community\VC\Tools\MSVC\14.28.29333\include\vector

; 1733 :         return _Mypair._Get_first();

  00082	8b 45 d8	 mov	 eax, DWORD PTR $T2[ebp]
  00085	89 45 c8	 mov	 DWORD PTR $T1[ebp], eax

; 1293 :             _Getal().deallocate(_Myfirst, static_cast<size_type>(_Myend - _Myfirst));

  00088	8b 45 ec	 mov	 eax, DWORD PTR __Myend$[ebp]
  0008b	8b 4d f8	 mov	 ecx, DWORD PTR __Myfirst$[ebp]
  0008e	8b 00		 mov	 eax, DWORD PTR [eax]
  00090	2b 01		 sub	 eax, DWORD PTR [ecx]
  00092	c1 f8 02	 sar	 eax, 2
  00095	89 45 d4	 mov	 DWORD PTR __Count$[ebp], eax
  00098	8b 45 f8	 mov	 eax, DWORD PTR __Myfirst$[ebp]
  0009b	8b 00		 mov	 eax, DWORD PTR [eax]
  0009d	89 45 d0	 mov	 DWORD PTR __Ptr$[ebp], eax
; File C:\Program Files (x86)\Microsoft Visual Studio\2019\Community\VC\Tools\MSVC\14.28.29333\include\xmemory

; 810  :         _Deallocate<_New_alignof<_Ty>>(_Ptr, sizeof(_Ty) * _Count);

  000a0	8b 45 d4	 mov	 eax, DWORD PTR __Count$[ebp]
  000a3	c1 e0 02	 shl	 eax, 2
  000a6	50		 push	 eax
  000a7	ff 75 d0	 push	 DWORD PTR __Ptr$[ebp]
  000aa	e8 00 00 00 00	 call	 ??$_Deallocate@$07$0A@@std@@YAXPAXI@Z ; std::_Deallocate<8,0>
  000af	59		 pop	 ecx
  000b0	59		 pop	 ecx
; File C:\Program Files (x86)\Microsoft Visual Studio\2019\Community\VC\Tools\MSVC\14.28.29333\include\vector

; 1295 :             _Myfirst = pointer();

  000b1	8b 45 f8	 mov	 eax, DWORD PTR __Myfirst$[ebp]
  000b4	83 20 00	 and	 DWORD PTR [eax], 0

; 1296 :             _Mylast  = pointer();

  000b7	8b 45 f0	 mov	 eax, DWORD PTR __Mylast$[ebp]
  000ba	83 20 00	 and	 DWORD PTR [eax], 0

; 1297 :             _Myend   = pointer();

  000bd	8b 45 ec	 mov	 eax, DWORD PTR __Myend$[ebp]
  000c0	83 20 00	 and	 DWORD PTR [eax], 0
$LN3@Clear_and_:

; 1298 :         }
; 1299 : 
; 1300 :         _Buy_raw(_Newcapacity);

  000c3	ff 75 cc	 push	 DWORD PTR __Newcapacity$[ebp]
  000c6	8b 4d fc	 mov	 ecx, DWORD PTR _this$[ebp]
  000c9	e8 00 00 00 00	 call	 ?_Buy_raw@?$vector@PAVCGraphicImage@@V?$allocator@PAVCGraphicImage@@@std@@@std@@AAEXI@Z ; std::vector<CGraphicImage *,std::allocator<CGraphicImage *> >::_Buy_raw
$LN4@Clear_and_:

; 1301 :     }

  000ce	c9		 leave
  000cf	c2 04 00	 ret	 4
?_Clear_and_reserve_geometric@?$vector@PAVCGraphicImage@@V?$allocator@PAVCGraphicImage@@@std@@@std@@AAEXI@Z ENDP ; std::vector<CGraphicImage *,std::allocator<CGraphicImage *> >::_Clear_and_reserve_geometric
_TEXT	ENDS
; Function compile flags: /Odspy
; File C:\Program Files (x86)\Microsoft Visual Studio\2019\Community\VC\Tools\MSVC\14.28.29333\include\vector
; File C:\Program Files (x86)\Microsoft Visual Studio\2019\Community\VC\Tools\MSVC\14.28.29333\include\xmemory
; File C:\Program Files (x86)\Microsoft Visual Studio\2019\Community\VC\Tools\MSVC\14.28.29333\include\vector
; File C:\Program Files (x86)\Microsoft Visual Studio\2019\Community\VC\Tools\MSVC\14.28.29333\include\xmemory
; File C:\Program Files (x86)\Microsoft Visual Studio\2019\Community\VC\Tools\MSVC\14.28.29333\include\vector
; File C:\Program Files (x86)\Microsoft Visual Studio\2019\Community\VC\Tools\MSVC\14.28.29333\include\xutility
; File C:\Program Files (x86)\Microsoft Visual Studio\2019\Community\VC\Tools\MSVC\14.28.29333\include\vector
;	COMDAT ?_Copy_assign@?$vector@PAVCGraphicImage@@V?$allocator@PAVCGraphicImage@@@std@@@std@@AAEXABV12@U?$integral_constant@_N$0A@@2@@Z
_TEXT	SEGMENT
$T1 = -40						; size = 1
__First$ = -36						; size = 4
$T2 = -32						; size = 4
__Last$ = -28						; size = 4
$T3 = -24						; size = 4
$T4 = -20						; size = 4
$T5 = -16						; size = 4
$T6 = -12						; size = 4
_this$ = -8						; size = 4
__Right_data$ = -4					; size = 4
__Right$ = 8						; size = 4
___formal$ = 12						; size = 1
?_Copy_assign@?$vector@PAVCGraphicImage@@V?$allocator@PAVCGraphicImage@@@std@@@std@@AAEXABV12@U?$integral_constant@_N$0A@@2@@Z PROC ; std::vector<CGraphicImage *,std::allocator<CGraphicImage *> >::_Copy_assign, COMDAT
; _this$ = ecx

; 1150 :     void _Copy_assign(const vector& _Right, false_type) {

  00000	55		 push	 ebp
  00001	8b ec		 mov	 ebp, esp
  00003	83 ec 28	 sub	 esp, 40			; 00000028H
  00006	89 4d f8	 mov	 DWORD PTR _this$[ebp], ecx

; 1737 :         return _Mypair._Get_first();

  00009	8b 45 08	 mov	 eax, DWORD PTR __Right$[ebp]
; File C:\Program Files (x86)\Microsoft Visual Studio\2019\Community\VC\Tools\MSVC\14.28.29333\include\xmemory

; 1351 :         return *this;

  0000c	89 45 f4	 mov	 DWORD PTR $T6[ebp], eax
; File C:\Program Files (x86)\Microsoft Visual Studio\2019\Community\VC\Tools\MSVC\14.28.29333\include\vector

; 1737 :         return _Mypair._Get_first();

  0000f	8b 45 f4	 mov	 eax, DWORD PTR $T6[ebp]
  00012	89 45 ec	 mov	 DWORD PTR $T4[ebp], eax

; 1733 :         return _Mypair._Get_first();

  00015	8b 45 f8	 mov	 eax, DWORD PTR _this$[ebp]
; File C:\Program Files (x86)\Microsoft Visual Studio\2019\Community\VC\Tools\MSVC\14.28.29333\include\xmemory

; 1347 :         return *this;

  00018	89 45 f0	 mov	 DWORD PTR $T5[ebp], eax
; File C:\Program Files (x86)\Microsoft Visual Studio\2019\Community\VC\Tools\MSVC\14.28.29333\include\vector

; 1733 :         return _Mypair._Get_first();

  0001b	8b 45 f0	 mov	 eax, DWORD PTR $T5[ebp]
  0001e	89 45 e8	 mov	 DWORD PTR $T3[ebp], eax

; 1151 :         _Pocca(_Getal(), _Right._Getal());

  00021	ff 75 ec	 push	 DWORD PTR $T4[ebp]
  00024	ff 75 e8	 push	 DWORD PTR $T3[ebp]
  00027	e8 00 00 00 00	 call	 ??$_Pocca@V?$allocator@PAVCGraphicImage@@@std@@@std@@YAXAAV?$allocator@PAVCGraphicImage@@@0@ABV10@@Z ; std::_Pocca<std::allocator<CGraphicImage *> >
  0002c	59		 pop	 ecx
  0002d	59		 pop	 ecx

; 1152 :         auto& _Right_data = _Right._Mypair._Myval2;

  0002e	8b 45 08	 mov	 eax, DWORD PTR __Right$[ebp]
  00031	89 45 fc	 mov	 DWORD PTR __Right_data$[ebp], eax

; 1153 :         assign(_Right_data._Myfirst, _Right_data._Mylast);

  00034	8b 45 fc	 mov	 eax, DWORD PTR __Right_data$[ebp]
  00037	8b 40 04	 mov	 eax, DWORD PTR [eax+4]
  0003a	89 45 e4	 mov	 DWORD PTR __Last$[ebp], eax
  0003d	8b 45 fc	 mov	 eax, DWORD PTR __Right_data$[ebp]
  00040	8b 00		 mov	 eax, DWORD PTR [eax]
  00042	89 45 dc	 mov	 DWORD PTR __First$[ebp], eax
; File C:\Program Files (x86)\Microsoft Visual Studio\2019\Community\VC\Tools\MSVC\14.28.29333\include\xutility

; 1303 :         return _It + 0;

  00045	8b 45 e4	 mov	 eax, DWORD PTR __Last$[ebp]
  00048	89 45 e0	 mov	 DWORD PTR $T2[ebp], eax
; File C:\Program Files (x86)\Microsoft Visual Studio\2019\Community\VC\Tools\MSVC\14.28.29333\include\vector

; 1142 :         _Assign_range(_Get_unwrapped(_First), _Get_unwrapped(_Last), _Iter_cat_t<_Iter>{});

  0004b	ff 75 d8	 push	 DWORD PTR $T1[ebp]
  0004e	ff 75 e0	 push	 DWORD PTR $T2[ebp]
  00051	ff 75 dc	 push	 DWORD PTR __First$[ebp]
  00054	8b 4d f8	 mov	 ecx, DWORD PTR _this$[ebp]
  00057	e8 00 00 00 00	 call	 ??$_Assign_range@PAPAVCGraphicImage@@@?$vector@PAVCGraphicImage@@V?$allocator@PAVCGraphicImage@@@std@@@std@@AAEXPAPAVCGraphicImage@@0Uforward_iterator_tag@1@@Z ; std::vector<CGraphicImage *,std::allocator<CGraphicImage *> >::_Assign_range<CGraphicImage * *>

; 1154 :     }

  0005c	c9		 leave
  0005d	c2 08 00	 ret	 8
?_Copy_assign@?$vector@PAVCGraphicImage@@V?$allocator@PAVCGraphicImage@@@std@@@std@@AAEXABV12@U?$integral_constant@_N$0A@@2@@Z ENDP ; std::vector<CGraphicImage *,std::allocator<CGraphicImage *> >::_Copy_assign
_TEXT	ENDS
; Function compile flags: /Odspy
; File C:\Program Files (x86)\Microsoft Visual Studio\2019\Community\VC\Tools\MSVC\14.28.29333\include\xmemory
;	COMDAT ?deallocate@?$allocator@PAVCGraphicImage@@@std@@QAEXQAPAVCGraphicImage@@I@Z
_TEXT	SEGMENT
_this$ = -4						; size = 4
__Ptr$ = 8						; size = 4
__Count$ = 12						; size = 4
?deallocate@?$allocator@PAVCGraphicImage@@@std@@QAEXQAPAVCGraphicImage@@I@Z PROC ; std::allocator<CGraphicImage *>::deallocate, COMDAT
; _this$ = ecx

; 808  :     void deallocate(_Ty* const _Ptr, const size_t _Count) {

  00000	55		 push	 ebp
  00001	8b ec		 mov	 ebp, esp
  00003	51		 push	 ecx
  00004	89 4d fc	 mov	 DWORD PTR _this$[ebp], ecx

; 809  :         // no overflow check on the following multiply; we assume _Allocate did that check
; 810  :         _Deallocate<_New_alignof<_Ty>>(_Ptr, sizeof(_Ty) * _Count);

  00007	8b 45 0c	 mov	 eax, DWORD PTR __Count$[ebp]
  0000a	c1 e0 02	 shl	 eax, 2
  0000d	50		 push	 eax
  0000e	ff 75 08	 push	 DWORD PTR __Ptr$[ebp]
  00011	e8 00 00 00 00	 call	 ??$_Deallocate@$07$0A@@std@@YAXPAXI@Z ; std::_Deallocate<8,0>
  00016	59		 pop	 ecx
  00017	59		 pop	 ecx

; 811  :     }

  00018	c9		 leave
  00019	c2 08 00	 ret	 8
?deallocate@?$allocator@PAVCGraphicImage@@@std@@QAEXQAPAVCGraphicImage@@I@Z ENDP ; std::allocator<CGraphicImage *>::deallocate
_TEXT	ENDS
; Function compile flags: /Odspy
; File C:\Program Files (x86)\Microsoft Visual Studio\2019\Community\VC\Tools\MSVC\14.28.29333\include\vector
;	COMDAT ?_Xlength@?$vector@V?$CTimeEvent@UDWORDCOLOR@@@@V?$allocator@V?$CTimeEvent@UDWORDCOLOR@@@@@std@@@std@@CAXXZ
_TEXT	SEGMENT
?_Xlength@?$vector@V?$CTimeEvent@UDWORDCOLOR@@@@V?$allocator@V?$CTimeEvent@UDWORDCOLOR@@@@@std@@@std@@CAXXZ PROC ; std::vector<CTimeEvent<DWORDCOLOR>,std::allocator<CTimeEvent<DWORDCOLOR> > >::_Xlength, COMDAT

; 1704 :     [[noreturn]] static void _Xlength() {

  00000	55		 push	 ebp
  00001	8b ec		 mov	 ebp, esp

; 1705 :         _Xlength_error("vector too long");

  00003	68 00 00 00 00	 push	 OFFSET ??_C@_0BA@FOIKENOD@vector?5too?5long@
  00008	e8 00 00 00 00	 call	 ?_Xlength_error@std@@YAXPBD@Z ; std::_Xlength_error
$LN2@Xlength:

; 1706 :     }

  0000d	5d		 pop	 ebp
  0000e	c3		 ret	 0
?_Xlength@?$vector@V?$CTimeEvent@UDWORDCOLOR@@@@V?$allocator@V?$CTimeEvent@UDWORDCOLOR@@@@@std@@@std@@CAXXZ ENDP ; std::vector<CTimeEvent<DWORDCOLOR>,std::allocator<CTimeEvent<DWORDCOLOR> > >::_Xlength
_TEXT	ENDS
; Function compile flags: /Odspy
; File C:\Program Files (x86)\Microsoft Visual Studio\2019\Community\VC\Tools\MSVC\14.28.29333\include\vector
; File C:\Program Files (x86)\Microsoft Visual Studio\2019\Community\VC\Tools\MSVC\14.28.29333\include\xmemory
; File C:\Program Files (x86)\Microsoft Visual Studio\2019\Community\VC\Tools\MSVC\14.28.29333\include\vector
; File C:\Program Files (x86)\Microsoft Visual Studio\2019\Community\VC\Tools\MSVC\14.28.29333\include\xmemory
; File C:\Program Files (x86)\Microsoft Visual Studio\2019\Community\VC\Tools\MSVC\14.28.29333\include\vector
; File C:\Program Files (x86)\Microsoft Visual Studio\2019\Community\VC\Tools\MSVC\14.28.29333\include\xmemory
; File C:\Program Files (x86)\Microsoft Visual Studio\2019\Community\VC\Tools\MSVC\14.28.29333\include\vector
;	COMDAT ?_Tidy@?$vector@V?$CTimeEvent@UDWORDCOLOR@@@@V?$allocator@V?$CTimeEvent@UDWORDCOLOR@@@@@std@@@std@@AAEXXZ
_TEXT	SEGMENT
$T1 = -52						; size = 4
__Ptr$ = -48						; size = 4
__Count$ = -44						; size = 4
$T2 = -40						; size = 4
__First$ = -36						; size = 4
__Last$ = -32						; size = 4
$T3 = -28						; size = 4
$T4 = -24						; size = 4
__Myend$ = -20						; size = 4
__Mylast$ = -16						; size = 4
_this$ = -12						; size = 4
__My_data$ = -8						; size = 4
__Myfirst$ = -4						; size = 4
?_Tidy@?$vector@V?$CTimeEvent@UDWORDCOLOR@@@@V?$allocator@V?$CTimeEvent@UDWORDCOLOR@@@@@std@@@std@@AAEXXZ PROC ; std::vector<CTimeEvent<DWORDCOLOR>,std::allocator<CTimeEvent<DWORDCOLOR> > >::_Tidy, COMDAT
; _this$ = ecx

; 1686 :     void _Tidy() noexcept { // free all storage

  00000	55		 push	 ebp
  00001	8b ec		 mov	 ebp, esp
  00003	83 ec 34	 sub	 esp, 52			; 00000034H
  00006	89 4d f4	 mov	 DWORD PTR _this$[ebp], ecx

; 1687 :         auto& _My_data    = _Mypair._Myval2;

  00009	8b 45 f4	 mov	 eax, DWORD PTR _this$[ebp]
  0000c	89 45 f8	 mov	 DWORD PTR __My_data$[ebp], eax

; 1688 :         pointer& _Myfirst = _My_data._Myfirst;

  0000f	8b 45 f8	 mov	 eax, DWORD PTR __My_data$[ebp]
  00012	89 45 fc	 mov	 DWORD PTR __Myfirst$[ebp], eax

; 1689 :         pointer& _Mylast  = _My_data._Mylast;

  00015	8b 45 f8	 mov	 eax, DWORD PTR __My_data$[ebp]
  00018	83 c0 04	 add	 eax, 4
  0001b	89 45 f0	 mov	 DWORD PTR __Mylast$[ebp], eax

; 1690 :         pointer& _Myend   = _My_data._Myend;

  0001e	8b 45 f8	 mov	 eax, DWORD PTR __My_data$[ebp]
  00021	83 c0 08	 add	 eax, 8
  00024	89 45 ec	 mov	 DWORD PTR __Myend$[ebp], eax

; 1691 : 
; 1692 :         _My_data._Orphan_all();
; 1693 : 
; 1694 :         if (_Myfirst) { // destroy and deallocate old array

  00027	8b 45 fc	 mov	 eax, DWORD PTR __Myfirst$[ebp]
  0002a	83 38 00	 cmp	 DWORD PTR [eax], 0
  0002d	74 74		 je	 SHORT $LN3@Tidy

; 1695 :             _Destroy(_Myfirst, _Mylast);

  0002f	8b 45 f0	 mov	 eax, DWORD PTR __Mylast$[ebp]
  00032	8b 00		 mov	 eax, DWORD PTR [eax]
  00034	89 45 e0	 mov	 DWORD PTR __Last$[ebp], eax
  00037	8b 45 fc	 mov	 eax, DWORD PTR __Myfirst$[ebp]
  0003a	8b 00		 mov	 eax, DWORD PTR [eax]
  0003c	89 45 dc	 mov	 DWORD PTR __First$[ebp], eax

; 1733 :         return _Mypair._Get_first();

  0003f	8b 45 f4	 mov	 eax, DWORD PTR _this$[ebp]
; File C:\Program Files (x86)\Microsoft Visual Studio\2019\Community\VC\Tools\MSVC\14.28.29333\include\xmemory

; 1347 :         return *this;

  00042	89 45 e8	 mov	 DWORD PTR $T4[ebp], eax
; File C:\Program Files (x86)\Microsoft Visual Studio\2019\Community\VC\Tools\MSVC\14.28.29333\include\vector

; 1733 :         return _Mypair._Get_first();

  00045	8b 45 e8	 mov	 eax, DWORD PTR $T4[ebp]
  00048	89 45 e4	 mov	 DWORD PTR $T3[ebp], eax

; 1612 :         _Destroy_range(_First, _Last, _Getal());

  0004b	ff 75 e4	 push	 DWORD PTR $T3[ebp]
  0004e	ff 75 e0	 push	 DWORD PTR __Last$[ebp]
  00051	ff 75 dc	 push	 DWORD PTR __First$[ebp]
  00054	e8 00 00 00 00	 call	 ??$_Destroy_range@V?$allocator@V?$CTimeEvent@UDWORDCOLOR@@@@@std@@@std@@YAXPAV?$CTimeEvent@UDWORDCOLOR@@@@QAV1@AAV?$allocator@V?$CTimeEvent@UDWORDCOLOR@@@@@0@@Z ; std::_Destroy_range<std::allocator<CTimeEvent<DWORDCOLOR> > >
  00059	83 c4 0c	 add	 esp, 12			; 0000000cH

; 1733 :         return _Mypair._Get_first();

  0005c	8b 45 f4	 mov	 eax, DWORD PTR _this$[ebp]
; File C:\Program Files (x86)\Microsoft Visual Studio\2019\Community\VC\Tools\MSVC\14.28.29333\include\xmemory

; 1347 :         return *this;

  0005f	89 45 d8	 mov	 DWORD PTR $T2[ebp], eax
; File C:\Program Files (x86)\Microsoft Visual Studio\2019\Community\VC\Tools\MSVC\14.28.29333\include\vector

; 1733 :         return _Mypair._Get_first();

  00062	8b 45 d8	 mov	 eax, DWORD PTR $T2[ebp]
  00065	89 45 cc	 mov	 DWORD PTR $T1[ebp], eax

; 1696 :             _Getal().deallocate(_Myfirst, static_cast<size_type>(_Myend - _Myfirst));

  00068	8b 45 ec	 mov	 eax, DWORD PTR __Myend$[ebp]
  0006b	8b 4d fc	 mov	 ecx, DWORD PTR __Myfirst$[ebp]
  0006e	8b 00		 mov	 eax, DWORD PTR [eax]
  00070	2b 01		 sub	 eax, DWORD PTR [ecx]
  00072	c1 f8 03	 sar	 eax, 3
  00075	89 45 d4	 mov	 DWORD PTR __Count$[ebp], eax
  00078	8b 45 fc	 mov	 eax, DWORD PTR __Myfirst$[ebp]
  0007b	8b 00		 mov	 eax, DWORD PTR [eax]
  0007d	89 45 d0	 mov	 DWORD PTR __Ptr$[ebp], eax
; File C:\Program Files (x86)\Microsoft Visual Studio\2019\Community\VC\Tools\MSVC\14.28.29333\include\xmemory

; 810  :         _Deallocate<_New_alignof<_Ty>>(_Ptr, sizeof(_Ty) * _Count);

  00080	8b 45 d4	 mov	 eax, DWORD PTR __Count$[ebp]
  00083	c1 e0 03	 shl	 eax, 3
  00086	50		 push	 eax
  00087	ff 75 d0	 push	 DWORD PTR __Ptr$[ebp]
  0008a	e8 00 00 00 00	 call	 ??$_Deallocate@$07$0A@@std@@YAXPAXI@Z ; std::_Deallocate<8,0>
  0008f	59		 pop	 ecx
  00090	59		 pop	 ecx
; File C:\Program Files (x86)\Microsoft Visual Studio\2019\Community\VC\Tools\MSVC\14.28.29333\include\vector

; 1698 :             _Myfirst = pointer();

  00091	8b 45 fc	 mov	 eax, DWORD PTR __Myfirst$[ebp]
  00094	83 20 00	 and	 DWORD PTR [eax], 0

; 1699 :             _Mylast  = pointer();

  00097	8b 45 f0	 mov	 eax, DWORD PTR __Mylast$[ebp]
  0009a	83 20 00	 and	 DWORD PTR [eax], 0

; 1700 :             _Myend   = pointer();

  0009d	8b 45 ec	 mov	 eax, DWORD PTR __Myend$[ebp]
  000a0	83 20 00	 and	 DWORD PTR [eax], 0
$LN3@Tidy:

; 1701 :         }
; 1702 :     }

  000a3	c9		 leave
  000a4	c3		 ret	 0
?_Tidy@?$vector@V?$CTimeEvent@UDWORDCOLOR@@@@V?$allocator@V?$CTimeEvent@UDWORDCOLOR@@@@@std@@@std@@AAEXXZ ENDP ; std::vector<CTimeEvent<DWORDCOLOR>,std::allocator<CTimeEvent<DWORDCOLOR> > >::_Tidy
_TEXT	ENDS
; Function compile flags: /Odspy
; File C:\Program Files (x86)\Microsoft Visual Studio\2019\Community\VC\Tools\MSVC\14.28.29333\include\vector
; File C:\Program Files (x86)\Microsoft Visual Studio\2019\Community\VC\Tools\MSVC\14.28.29333\include\xmemory
; File C:\Program Files (x86)\Microsoft Visual Studio\2019\Community\VC\Tools\MSVC\14.28.29333\include\vector
; File C:\Program Files (x86)\Microsoft Visual Studio\2019\Community\VC\Tools\MSVC\14.28.29333\include\xmemory
; File C:\Program Files (x86)\Microsoft Visual Studio\2019\Community\VC\Tools\MSVC\14.28.29333\include\vector
;	COMDAT ?_Buy_raw@?$vector@V?$CTimeEvent@UDWORDCOLOR@@@@V?$allocator@V?$CTimeEvent@UDWORDCOLOR@@@@@std@@@std@@AAEXI@Z
_TEXT	SEGMENT
__Max_possible$1 = -44					; size = 4
$T2 = -40						; size = 4
__Myend$ = -36						; size = 4
__Mylast$ = -32						; size = 4
__Myfirst$ = -28					; size = 4
$T3 = -24						; size = 4
$T4 = -20						; size = 4
_this$ = -16						; size = 4
__Newvec$ = -12						; size = 4
__My_data$ = -8						; size = 4
__Overflow_is_possible$5 = -1				; size = 1
__Newcapacity$ = 8					; size = 4
?_Buy_raw@?$vector@V?$CTimeEvent@UDWORDCOLOR@@@@V?$allocator@V?$CTimeEvent@UDWORDCOLOR@@@@@std@@@std@@AAEXI@Z PROC ; std::vector<CTimeEvent<DWORDCOLOR>,std::allocator<CTimeEvent<DWORDCOLOR> > >::_Buy_raw, COMDAT
; _this$ = ecx

; 1633 :     void _Buy_raw(const size_type _Newcapacity) {

  00000	55		 push	 ebp
  00001	8b ec		 mov	 ebp, esp
  00003	83 ec 2c	 sub	 esp, 44			; 0000002cH
  00006	89 4d f0	 mov	 DWORD PTR _this$[ebp], ecx

; 1634 :         // allocate array with _Newcapacity elements
; 1635 :         auto& _My_data    = _Mypair._Myval2;

  00009	8b 45 f0	 mov	 eax, DWORD PTR _this$[ebp]
  0000c	89 45 f8	 mov	 DWORD PTR __My_data$[ebp], eax

; 1636 :         pointer& _Myfirst = _My_data._Myfirst;

  0000f	8b 45 f8	 mov	 eax, DWORD PTR __My_data$[ebp]
  00012	89 45 e4	 mov	 DWORD PTR __Myfirst$[ebp], eax

; 1637 :         pointer& _Mylast  = _My_data._Mylast;

  00015	8b 45 f8	 mov	 eax, DWORD PTR __My_data$[ebp]
  00018	83 c0 04	 add	 eax, 4
  0001b	89 45 e0	 mov	 DWORD PTR __Mylast$[ebp], eax

; 1638 :         pointer& _Myend   = _My_data._Myend;

  0001e	8b 45 f8	 mov	 eax, DWORD PTR __My_data$[ebp]
  00021	83 c0 08	 add	 eax, 8
  00024	89 45 dc	 mov	 DWORD PTR __Myend$[ebp], eax

; 1733 :         return _Mypair._Get_first();

  00027	8b 45 f0	 mov	 eax, DWORD PTR _this$[ebp]
; File C:\Program Files (x86)\Microsoft Visual Studio\2019\Community\VC\Tools\MSVC\14.28.29333\include\xmemory

; 1347 :         return *this;

  0002a	89 45 ec	 mov	 DWORD PTR $T4[ebp], eax
; File C:\Program Files (x86)\Microsoft Visual Studio\2019\Community\VC\Tools\MSVC\14.28.29333\include\vector

; 1733 :         return _Mypair._Get_first();

  0002d	8b 45 ec	 mov	 eax, DWORD PTR $T4[ebp]
  00030	89 45 d8	 mov	 DWORD PTR $T2[ebp], eax
; File C:\Program Files (x86)\Microsoft Visual Studio\2019\Community\VC\Tools\MSVC\14.28.29333\include\xmemory

; 56   :     constexpr bool _Overflow_is_possible = _Ty_size > 1;

  00033	c6 45 ff 01	 mov	 BYTE PTR __Overflow_is_possible$5[ebp], 1

; 57   : 
; 58   :     if _CONSTEXPR_IF (_Overflow_is_possible) {
; 59   :         constexpr size_t _Max_possible = static_cast<size_t>(-1) / _Ty_size;

  00037	c7 45 d4 ff ff
	ff 1f		 mov	 DWORD PTR __Max_possible$1[ebp], 536870911 ; 1fffffffH

; 60   :         if (_Count > _Max_possible) {

  0003e	81 7d 08 ff ff
	ff 1f		 cmp	 DWORD PTR __Newcapacity$[ebp], 536870911 ; 1fffffffH
  00045	76 05		 jbe	 SHORT $LN12@Buy_raw

; 61   :             _Throw_bad_array_new_length(); // multiply overflow

  00047	e8 00 00 00 00	 call	 ?_Throw_bad_array_new_length@std@@YAXXZ ; std::_Throw_bad_array_new_length
$LN12@Buy_raw:

; 62   :         }
; 63   :     }
; 64   : 
; 65   :     return _Count * _Ty_size;

  0004c	8b 45 08	 mov	 eax, DWORD PTR __Newcapacity$[ebp]
  0004f	c1 e0 03	 shl	 eax, 3
  00052	89 45 e8	 mov	 DWORD PTR $T3[ebp], eax

; 814  :         return static_cast<_Ty*>(_Allocate<_New_alignof<_Ty>>(_Get_size_of_n<sizeof(_Ty)>(_Count)));

  00055	ff 75 e8	 push	 DWORD PTR $T3[ebp]
  00058	e8 00 00 00 00	 call	 ??$_Allocate@$07U_Default_allocate_traits@std@@$0A@@std@@YAPAXI@Z ; std::_Allocate<8,std::_Default_allocate_traits,0>
  0005d	59		 pop	 ecx
  0005e	89 45 f4	 mov	 DWORD PTR __Newvec$[ebp], eax
; File C:\Program Files (x86)\Microsoft Visual Studio\2019\Community\VC\Tools\MSVC\14.28.29333\include\vector

; 1644 :         _Myfirst           = _Newvec;

  00061	8b 45 e4	 mov	 eax, DWORD PTR __Myfirst$[ebp]
  00064	8b 4d f4	 mov	 ecx, DWORD PTR __Newvec$[ebp]
  00067	89 08		 mov	 DWORD PTR [eax], ecx

; 1645 :         _Mylast            = _Newvec;

  00069	8b 45 e0	 mov	 eax, DWORD PTR __Mylast$[ebp]
  0006c	8b 4d f4	 mov	 ecx, DWORD PTR __Newvec$[ebp]
  0006f	89 08		 mov	 DWORD PTR [eax], ecx

; 1646 :         _Myend             = _Newvec + _Newcapacity;

  00071	8b 45 08	 mov	 eax, DWORD PTR __Newcapacity$[ebp]
  00074	8b 4d f4	 mov	 ecx, DWORD PTR __Newvec$[ebp]
  00077	8d 04 c1	 lea	 eax, DWORD PTR [ecx+eax*8]
  0007a	8b 4d dc	 mov	 ecx, DWORD PTR __Myend$[ebp]
  0007d	89 01		 mov	 DWORD PTR [ecx], eax
$LN15@Buy_raw:

; 1647 :     }

  0007f	c9		 leave
  00080	c2 04 00	 ret	 4
?_Buy_raw@?$vector@V?$CTimeEvent@UDWORDCOLOR@@@@V?$allocator@V?$CTimeEvent@UDWORDCOLOR@@@@@std@@@std@@AAEXI@Z ENDP ; std::vector<CTimeEvent<DWORDCOLOR>,std::allocator<CTimeEvent<DWORDCOLOR> > >::_Buy_raw
_TEXT	ENDS
; Function compile flags: /Odspy
; File C:\Program Files (x86)\Microsoft Visual Studio\2019\Community\VC\Tools\MSVC\14.28.29333\include\vector
; File C:\Program Files (x86)\Microsoft Visual Studio\2019\Community\VC\Tools\MSVC\14.28.29333\include\xmemory
; File C:\Program Files (x86)\Microsoft Visual Studio\2019\Community\VC\Tools\MSVC\14.28.29333\include\vector
; File C:\Program Files (x86)\Microsoft Visual Studio\2019\Community\VC\Tools\MSVC\14.28.29333\include\xmemory
; File C:\Program Files (x86)\Microsoft Visual Studio\2019\Community\VC\Tools\MSVC\14.28.29333\include\limits
; File C:\Program Files (x86)\Microsoft Visual Studio\2019\Community\VC\Tools\MSVC\14.28.29333\include\vector
; File C:\Program Files (x86)\Microsoft Visual Studio\2019\Community\VC\Tools\MSVC\14.28.29333\include\utility
; File C:\Program Files (x86)\Microsoft Visual Studio\2019\Community\VC\Tools\MSVC\14.28.29333\include\vector
;	COMDAT ?_Calculate_growth@?$vector@V?$CTimeEvent@UDWORDCOLOR@@@@V?$allocator@V?$CTimeEvent@UDWORDCOLOR@@@@@std@@@std@@ABEII@Z
_TEXT	SEGMENT
$T1 = -52						; size = 4
$T2 = -48						; size = 4
$T3 = -44						; size = 4
$T4 = -40						; size = 4
$T5 = -36						; size = 4
__Geometric$ = -32					; size = 4
__Max$ = -28						; size = 4
tv82 = -24						; size = 4
$T6 = -20						; size = 4
$T7 = -16						; size = 4
_this$ = -12						; size = 4
__My_data$8 = -8					; size = 4
__Oldcapacity$ = -4					; size = 4
__Newsize$ = 8						; size = 4
?_Calculate_growth@?$vector@V?$CTimeEvent@UDWORDCOLOR@@@@V?$allocator@V?$CTimeEvent@UDWORDCOLOR@@@@@std@@@std@@ABEII@Z PROC ; std::vector<CTimeEvent<DWORDCOLOR>,std::allocator<CTimeEvent<DWORDCOLOR> > >::_Calculate_growth, COMDAT
; _this$ = ecx

; 1615 :     size_type _Calculate_growth(const size_type _Newsize) const {

  00000	55		 push	 ebp
  00001	8b ec		 mov	 ebp, esp
  00003	83 ec 34	 sub	 esp, 52			; 00000034H
  00006	89 4d f4	 mov	 DWORD PTR _this$[ebp], ecx

; 1493 :         auto& _My_data = _Mypair._Myval2;

  00009	8b 45 f4	 mov	 eax, DWORD PTR _this$[ebp]
  0000c	89 45 f8	 mov	 DWORD PTR __My_data$8[ebp], eax

; 1494 :         return static_cast<size_type>(_My_data._Myend - _My_data._Myfirst);

  0000f	8b 45 f8	 mov	 eax, DWORD PTR __My_data$8[ebp]
  00012	8b 4d f8	 mov	 ecx, DWORD PTR __My_data$8[ebp]
  00015	8b 40 08	 mov	 eax, DWORD PTR [eax+8]
  00018	2b 01		 sub	 eax, DWORD PTR [ecx]
  0001a	c1 f8 03	 sar	 eax, 3
  0001d	89 45 fc	 mov	 DWORD PTR __Oldcapacity$[ebp], eax

; 1737 :         return _Mypair._Get_first();

  00020	8b 45 f4	 mov	 eax, DWORD PTR _this$[ebp]
; File C:\Program Files (x86)\Microsoft Visual Studio\2019\Community\VC\Tools\MSVC\14.28.29333\include\xmemory

; 1351 :         return *this;

  00023	89 45 dc	 mov	 DWORD PTR $T5[ebp], eax
; File C:\Program Files (x86)\Microsoft Visual Studio\2019\Community\VC\Tools\MSVC\14.28.29333\include\vector

; 1737 :         return _Mypair._Get_first();

  00026	8b 45 dc	 mov	 eax, DWORD PTR $T5[ebp]
  00029	89 45 cc	 mov	 DWORD PTR $T1[ebp], eax
; File C:\Program Files (x86)\Microsoft Visual Studio\2019\Community\VC\Tools\MSVC\14.28.29333\include\xmemory

; 710  :         return static_cast<size_t>(-1) / sizeof(value_type);

  0002c	c7 45 f0 ff ff
	ff 1f		 mov	 DWORD PTR $T7[ebp], 536870911 ; 1fffffffH
; File C:\Program Files (x86)\Microsoft Visual Studio\2019\Community\VC\Tools\MSVC\14.28.29333\include\limits

; 557  :         return INT_MAX;

  00033	c7 45 d8 ff ff
	ff 7f		 mov	 DWORD PTR $T4[ebp], 2147483647 ; 7fffffffH
; File C:\Program Files (x86)\Microsoft Visual Studio\2019\Community\VC\Tools\MSVC\14.28.29333\include\vector

; 1488 :         return (_STD min)(

  0003a	8b 45 d8	 mov	 eax, DWORD PTR $T4[ebp]
  0003d	89 45 ec	 mov	 DWORD PTR $T6[ebp], eax
; File C:\Program Files (x86)\Microsoft Visual Studio\2019\Community\VC\Tools\MSVC\14.28.29333\include\utility

; 68   :     return _Right < _Left ? _Right : _Left;

  00040	8b 45 f0	 mov	 eax, DWORD PTR $T7[ebp]
  00043	3b 45 ec	 cmp	 eax, DWORD PTR $T6[ebp]
  00046	73 08		 jae	 SHORT $LN25@Calculate_
  00048	8d 45 f0	 lea	 eax, DWORD PTR $T7[ebp]
  0004b	89 45 e8	 mov	 DWORD PTR tv82[ebp], eax
  0004e	eb 06		 jmp	 SHORT $LN26@Calculate_
$LN25@Calculate_:
  00050	8d 45 ec	 lea	 eax, DWORD PTR $T6[ebp]
  00053	89 45 e8	 mov	 DWORD PTR tv82[ebp], eax
$LN26@Calculate_:
  00056	8b 45 e8	 mov	 eax, DWORD PTR tv82[ebp]
  00059	89 45 d4	 mov	 DWORD PTR $T3[ebp], eax
  0005c	8b 45 d4	 mov	 eax, DWORD PTR $T3[ebp]
  0005f	89 45 d0	 mov	 DWORD PTR $T2[ebp], eax
; File C:\Program Files (x86)\Microsoft Visual Studio\2019\Community\VC\Tools\MSVC\14.28.29333\include\vector

; 1488 :         return (_STD min)(

  00062	8b 45 d0	 mov	 eax, DWORD PTR $T2[ebp]
  00065	8b 00		 mov	 eax, DWORD PTR [eax]
  00067	89 45 e4	 mov	 DWORD PTR __Max$[ebp], eax

; 1616 :         // given _Oldcapacity and _Newsize, calculate geometric growth
; 1617 :         const size_type _Oldcapacity = capacity();
; 1618 :         const auto _Max              = max_size();
; 1619 : 
; 1620 :         if (_Oldcapacity > _Max - _Oldcapacity / 2) {

  0006a	8b 45 fc	 mov	 eax, DWORD PTR __Oldcapacity$[ebp]
  0006d	d1 e8		 shr	 eax, 1
  0006f	8b 4d e4	 mov	 ecx, DWORD PTR __Max$[ebp]
  00072	2b c8		 sub	 ecx, eax
  00074	39 4d fc	 cmp	 DWORD PTR __Oldcapacity$[ebp], ecx
  00077	76 05		 jbe	 SHORT $LN2@Calculate_

; 1621 :             return _Max; // geometric growth would overflow

  00079	8b 45 e4	 mov	 eax, DWORD PTR __Max$[ebp]
  0007c	eb 1b		 jmp	 SHORT $LN1@Calculate_
$LN2@Calculate_:

; 1622 :         }
; 1623 : 
; 1624 :         const size_type _Geometric = _Oldcapacity + _Oldcapacity / 2;

  0007e	8b 45 fc	 mov	 eax, DWORD PTR __Oldcapacity$[ebp]
  00081	d1 e8		 shr	 eax, 1
  00083	03 45 fc	 add	 eax, DWORD PTR __Oldcapacity$[ebp]
  00086	89 45 e0	 mov	 DWORD PTR __Geometric$[ebp], eax

; 1625 : 
; 1626 :         if (_Geometric < _Newsize) {

  00089	8b 45 e0	 mov	 eax, DWORD PTR __Geometric$[ebp]
  0008c	3b 45 08	 cmp	 eax, DWORD PTR __Newsize$[ebp]
  0008f	73 05		 jae	 SHORT $LN3@Calculate_

; 1627 :             return _Newsize; // geometric growth would be insufficient

  00091	8b 45 08	 mov	 eax, DWORD PTR __Newsize$[ebp]
  00094	eb 03		 jmp	 SHORT $LN1@Calculate_
$LN3@Calculate_:

; 1628 :         }
; 1629 : 
; 1630 :         return _Geometric; // geometric growth is sufficient

  00096	8b 45 e0	 mov	 eax, DWORD PTR __Geometric$[ebp]
$LN1@Calculate_:

; 1631 :     }

  00099	c9		 leave
  0009a	c2 04 00	 ret	 4
?_Calculate_growth@?$vector@V?$CTimeEvent@UDWORDCOLOR@@@@V?$allocator@V?$CTimeEvent@UDWORDCOLOR@@@@@std@@@std@@ABEII@Z ENDP ; std::vector<CTimeEvent<DWORDCOLOR>,std::allocator<CTimeEvent<DWORDCOLOR> > >::_Calculate_growth
_TEXT	ENDS
; Function compile flags: /Odspy
; File C:\Program Files (x86)\Microsoft Visual Studio\2019\Community\VC\Tools\MSVC\14.28.29333\include\vector
; File C:\Program Files (x86)\Microsoft Visual Studio\2019\Community\VC\Tools\MSVC\14.28.29333\include\xmemory
; File C:\Program Files (x86)\Microsoft Visual Studio\2019\Community\VC\Tools\MSVC\14.28.29333\include\vector
; File C:\Program Files (x86)\Microsoft Visual Studio\2019\Community\VC\Tools\MSVC\14.28.29333\include\xmemory
; File C:\Program Files (x86)\Microsoft Visual Studio\2019\Community\VC\Tools\MSVC\14.28.29333\include\limits
; File C:\Program Files (x86)\Microsoft Visual Studio\2019\Community\VC\Tools\MSVC\14.28.29333\include\vector
; File C:\Program Files (x86)\Microsoft Visual Studio\2019\Community\VC\Tools\MSVC\14.28.29333\include\utility
; File C:\Program Files (x86)\Microsoft Visual Studio\2019\Community\VC\Tools\MSVC\14.28.29333\include\vector
;	COMDAT ?max_size@?$vector@V?$CTimeEvent@UDWORDCOLOR@@@@V?$allocator@V?$CTimeEvent@UDWORDCOLOR@@@@@std@@@std@@QBEIXZ
_TEXT	SEGMENT
$T1 = -36						; size = 4
$T2 = -32						; size = 4
$T3 = -28						; size = 4
$T4 = -24						; size = 4
$T5 = -20						; size = 4
_this$ = -16						; size = 4
tv68 = -12						; size = 4
$T6 = -8						; size = 4
$T7 = -4						; size = 4
?max_size@?$vector@V?$CTimeEvent@UDWORDCOLOR@@@@V?$allocator@V?$CTimeEvent@UDWORDCOLOR@@@@@std@@@std@@QBEIXZ PROC ; std::vector<CTimeEvent<DWORDCOLOR>,std::allocator<CTimeEvent<DWORDCOLOR> > >::max_size, COMDAT
; _this$ = ecx

; 1487 :     _NODISCARD size_type max_size() const noexcept {

  00000	55		 push	 ebp
  00001	8b ec		 mov	 ebp, esp
  00003	83 ec 24	 sub	 esp, 36			; 00000024H
  00006	89 4d f0	 mov	 DWORD PTR _this$[ebp], ecx

; 1737 :         return _Mypair._Get_first();

  00009	8b 45 f0	 mov	 eax, DWORD PTR _this$[ebp]
; File C:\Program Files (x86)\Microsoft Visual Studio\2019\Community\VC\Tools\MSVC\14.28.29333\include\xmemory

; 1351 :         return *this;

  0000c	89 45 ec	 mov	 DWORD PTR $T5[ebp], eax
; File C:\Program Files (x86)\Microsoft Visual Studio\2019\Community\VC\Tools\MSVC\14.28.29333\include\vector

; 1737 :         return _Mypair._Get_first();

  0000f	8b 45 ec	 mov	 eax, DWORD PTR $T5[ebp]
  00012	89 45 dc	 mov	 DWORD PTR $T1[ebp], eax
; File C:\Program Files (x86)\Microsoft Visual Studio\2019\Community\VC\Tools\MSVC\14.28.29333\include\xmemory

; 710  :         return static_cast<size_t>(-1) / sizeof(value_type);

  00015	c7 45 fc ff ff
	ff 1f		 mov	 DWORD PTR $T7[ebp], 536870911 ; 1fffffffH
; File C:\Program Files (x86)\Microsoft Visual Studio\2019\Community\VC\Tools\MSVC\14.28.29333\include\limits

; 557  :         return INT_MAX;

  0001c	c7 45 e8 ff ff
	ff 7f		 mov	 DWORD PTR $T4[ebp], 2147483647 ; 7fffffffH
; File C:\Program Files (x86)\Microsoft Visual Studio\2019\Community\VC\Tools\MSVC\14.28.29333\include\vector

; 1488 :         return (_STD min)(

  00023	8b 45 e8	 mov	 eax, DWORD PTR $T4[ebp]
  00026	89 45 f8	 mov	 DWORD PTR $T6[ebp], eax
; File C:\Program Files (x86)\Microsoft Visual Studio\2019\Community\VC\Tools\MSVC\14.28.29333\include\utility

; 68   :     return _Right < _Left ? _Right : _Left;

  00029	8b 45 fc	 mov	 eax, DWORD PTR $T7[ebp]
  0002c	3b 45 f8	 cmp	 eax, DWORD PTR $T6[ebp]
  0002f	73 08		 jae	 SHORT $LN17@max_size
  00031	8d 45 fc	 lea	 eax, DWORD PTR $T7[ebp]
  00034	89 45 f4	 mov	 DWORD PTR tv68[ebp], eax
  00037	eb 06		 jmp	 SHORT $LN18@max_size
$LN17@max_size:
  00039	8d 45 f8	 lea	 eax, DWORD PTR $T6[ebp]
  0003c	89 45 f4	 mov	 DWORD PTR tv68[ebp], eax
$LN18@max_size:
  0003f	8b 45 f4	 mov	 eax, DWORD PTR tv68[ebp]
  00042	89 45 e4	 mov	 DWORD PTR $T3[ebp], eax
  00045	8b 45 e4	 mov	 eax, DWORD PTR $T3[ebp]
  00048	89 45 e0	 mov	 DWORD PTR $T2[ebp], eax
; File C:\Program Files (x86)\Microsoft Visual Studio\2019\Community\VC\Tools\MSVC\14.28.29333\include\vector

; 1488 :         return (_STD min)(

  0004b	8b 45 e0	 mov	 eax, DWORD PTR $T2[ebp]
  0004e	8b 00		 mov	 eax, DWORD PTR [eax]

; 1489 :             static_cast<size_type>((numeric_limits<difference_type>::max)()), _Alty_traits::max_size(_Getal()));
; 1490 :     }

  00050	c9		 leave
  00051	c3		 ret	 0
?max_size@?$vector@V?$CTimeEvent@UDWORDCOLOR@@@@V?$allocator@V?$CTimeEvent@UDWORDCOLOR@@@@@std@@@std@@QBEIXZ ENDP ; std::vector<CTimeEvent<DWORDCOLOR>,std::allocator<CTimeEvent<DWORDCOLOR> > >::max_size
_TEXT	ENDS
; Function compile flags: /Odspy
; File C:\Program Files (x86)\Microsoft Visual Studio\2019\Community\VC\Tools\MSVC\14.28.29333\include\vector
; File C:\Program Files (x86)\Microsoft Visual Studio\2019\Community\VC\Tools\MSVC\14.28.29333\include\xmemory
; File C:\Program Files (x86)\Microsoft Visual Studio\2019\Community\VC\Tools\MSVC\14.28.29333\include\vector
;	COMDAT ?clear@?$vector@V?$CTimeEvent@UDWORDCOLOR@@@@V?$allocator@V?$CTimeEvent@UDWORDCOLOR@@@@@std@@@std@@QAEXXZ
_TEXT	SEGMENT
__First$ = -32						; size = 4
__Last$ = -28						; size = 4
$T1 = -24						; size = 4
$T2 = -20						; size = 4
__Myfirst$ = -16					; size = 4
__Mylast$ = -12						; size = 4
_this$ = -8						; size = 4
__My_data$ = -4						; size = 4
?clear@?$vector@V?$CTimeEvent@UDWORDCOLOR@@@@V?$allocator@V?$CTimeEvent@UDWORDCOLOR@@@@@std@@@std@@QAEXXZ PROC ; std::vector<CTimeEvent<DWORDCOLOR>,std::allocator<CTimeEvent<DWORDCOLOR> > >::clear, COMDAT
; _this$ = ecx

; 1383 :     void clear() noexcept { // erase all

  00000	55		 push	 ebp
  00001	8b ec		 mov	 ebp, esp
  00003	83 ec 20	 sub	 esp, 32			; 00000020H
  00006	89 4d f8	 mov	 DWORD PTR _this$[ebp], ecx

; 1384 :         auto& _My_data    = _Mypair._Myval2;

  00009	8b 45 f8	 mov	 eax, DWORD PTR _this$[ebp]
  0000c	89 45 fc	 mov	 DWORD PTR __My_data$[ebp], eax

; 1385 :         pointer& _Myfirst = _My_data._Myfirst;

  0000f	8b 45 fc	 mov	 eax, DWORD PTR __My_data$[ebp]
  00012	89 45 f0	 mov	 DWORD PTR __Myfirst$[ebp], eax

; 1386 :         pointer& _Mylast  = _My_data._Mylast;

  00015	8b 45 fc	 mov	 eax, DWORD PTR __My_data$[ebp]
  00018	83 c0 04	 add	 eax, 4
  0001b	89 45 f4	 mov	 DWORD PTR __Mylast$[ebp], eax

; 1387 : 
; 1388 :         _My_data._Orphan_all();
; 1389 :         _Destroy(_Myfirst, _Mylast);

  0001e	8b 45 f4	 mov	 eax, DWORD PTR __Mylast$[ebp]
  00021	8b 00		 mov	 eax, DWORD PTR [eax]
  00023	89 45 e4	 mov	 DWORD PTR __Last$[ebp], eax
  00026	8b 45 f0	 mov	 eax, DWORD PTR __Myfirst$[ebp]
  00029	8b 00		 mov	 eax, DWORD PTR [eax]
  0002b	89 45 e0	 mov	 DWORD PTR __First$[ebp], eax

; 1733 :         return _Mypair._Get_first();

  0002e	8b 45 f8	 mov	 eax, DWORD PTR _this$[ebp]
; File C:\Program Files (x86)\Microsoft Visual Studio\2019\Community\VC\Tools\MSVC\14.28.29333\include\xmemory

; 1347 :         return *this;

  00031	89 45 ec	 mov	 DWORD PTR $T2[ebp], eax
; File C:\Program Files (x86)\Microsoft Visual Studio\2019\Community\VC\Tools\MSVC\14.28.29333\include\vector

; 1733 :         return _Mypair._Get_first();

  00034	8b 45 ec	 mov	 eax, DWORD PTR $T2[ebp]
  00037	89 45 e8	 mov	 DWORD PTR $T1[ebp], eax

; 1612 :         _Destroy_range(_First, _Last, _Getal());

  0003a	ff 75 e8	 push	 DWORD PTR $T1[ebp]
  0003d	ff 75 e4	 push	 DWORD PTR __Last$[ebp]
  00040	ff 75 e0	 push	 DWORD PTR __First$[ebp]
  00043	e8 00 00 00 00	 call	 ??$_Destroy_range@V?$allocator@V?$CTimeEvent@UDWORDCOLOR@@@@@std@@@std@@YAXPAV?$CTimeEvent@UDWORDCOLOR@@@@QAV1@AAV?$allocator@V?$CTimeEvent@UDWORDCOLOR@@@@@0@@Z ; std::_Destroy_range<std::allocator<CTimeEvent<DWORDCOLOR> > >
  00048	83 c4 0c	 add	 esp, 12			; 0000000cH

; 1390 :         _Mylast = _Myfirst;

  0004b	8b 45 f4	 mov	 eax, DWORD PTR __Mylast$[ebp]
  0004e	8b 4d f0	 mov	 ecx, DWORD PTR __Myfirst$[ebp]
  00051	8b 09		 mov	 ecx, DWORD PTR [ecx]
  00053	89 08		 mov	 DWORD PTR [eax], ecx

; 1391 :     }

  00055	c9		 leave
  00056	c3		 ret	 0
?clear@?$vector@V?$CTimeEvent@UDWORDCOLOR@@@@V?$allocator@V?$CTimeEvent@UDWORDCOLOR@@@@@std@@@std@@QAEXXZ ENDP ; std::vector<CTimeEvent<DWORDCOLOR>,std::allocator<CTimeEvent<DWORDCOLOR> > >::clear
_TEXT	ENDS
; Function compile flags: /Odspy
; File C:\Program Files (x86)\Microsoft Visual Studio\2019\Community\VC\Tools\MSVC\14.28.29333\include\vector
; File C:\Program Files (x86)\Microsoft Visual Studio\2019\Community\VC\Tools\MSVC\14.28.29333\include\xmemory
; File C:\Program Files (x86)\Microsoft Visual Studio\2019\Community\VC\Tools\MSVC\14.28.29333\include\vector
; File C:\Program Files (x86)\Microsoft Visual Studio\2019\Community\VC\Tools\MSVC\14.28.29333\include\xmemory
; File C:\Program Files (x86)\Microsoft Visual Studio\2019\Community\VC\Tools\MSVC\14.28.29333\include\vector
; File C:\Program Files (x86)\Microsoft Visual Studio\2019\Community\VC\Tools\MSVC\14.28.29333\include\xmemory
; File C:\Program Files (x86)\Microsoft Visual Studio\2019\Community\VC\Tools\MSVC\14.28.29333\include\vector
;	COMDAT ?_Clear_and_reserve_geometric@?$vector@V?$CTimeEvent@UDWORDCOLOR@@@@V?$allocator@V?$CTimeEvent@UDWORDCOLOR@@@@@std@@@std@@AAEXI@Z
_TEXT	SEGMENT
$T1 = -56						; size = 4
__Newcapacity$ = -52					; size = 4
__Ptr$ = -48						; size = 4
__Count$ = -44						; size = 4
$T2 = -40						; size = 4
__First$ = -36						; size = 4
__Last$ = -32						; size = 4
$T3 = -28						; size = 4
$T4 = -24						; size = 4
__Myend$ = -20						; size = 4
__Mylast$ = -16						; size = 4
__My_data$ = -12					; size = 4
__Myfirst$ = -8						; size = 4
_this$ = -4						; size = 4
__Newsize$ = 8						; size = 4
?_Clear_and_reserve_geometric@?$vector@V?$CTimeEvent@UDWORDCOLOR@@@@V?$allocator@V?$CTimeEvent@UDWORDCOLOR@@@@@std@@@std@@AAEXI@Z PROC ; std::vector<CTimeEvent<DWORDCOLOR>,std::allocator<CTimeEvent<DWORDCOLOR> > >::_Clear_and_reserve_geometric, COMDAT
; _this$ = ecx

; 1271 :     void _Clear_and_reserve_geometric(const size_type _Newsize) {

  00000	55		 push	 ebp
  00001	8b ec		 mov	 ebp, esp
  00003	83 ec 38	 sub	 esp, 56			; 00000038H
  00006	89 4d fc	 mov	 DWORD PTR _this$[ebp], ecx

; 1272 :         auto& _My_data    = _Mypair._Myval2;

  00009	8b 45 fc	 mov	 eax, DWORD PTR _this$[ebp]
  0000c	89 45 f4	 mov	 DWORD PTR __My_data$[ebp], eax

; 1273 :         pointer& _Myfirst = _My_data._Myfirst;

  0000f	8b 45 f4	 mov	 eax, DWORD PTR __My_data$[ebp]
  00012	89 45 f8	 mov	 DWORD PTR __Myfirst$[ebp], eax

; 1274 :         pointer& _Mylast  = _My_data._Mylast;

  00015	8b 45 f4	 mov	 eax, DWORD PTR __My_data$[ebp]
  00018	83 c0 04	 add	 eax, 4
  0001b	89 45 f0	 mov	 DWORD PTR __Mylast$[ebp], eax

; 1275 :         pointer& _Myend   = _My_data._Myend;

  0001e	8b 45 f4	 mov	 eax, DWORD PTR __My_data$[ebp]
  00021	83 c0 08	 add	 eax, 8
  00024	89 45 ec	 mov	 DWORD PTR __Myend$[ebp], eax

; 1276 : 
; 1277 : #if _ITERATOR_DEBUG_LEVEL != 0 && defined(_ENABLE_STL_INTERNAL_CHECK)
; 1278 :         _STL_INTERNAL_CHECK(_Newsize != 0);
; 1279 :         {
; 1280 :             _Lockit _Lock(_LOCK_DEBUG);
; 1281 :             _STL_INTERNAL_CHECK(!_My_data._Myproxy->_Myfirstiter); // asserts that all iterators are orphaned
; 1282 :         } // unlock
; 1283 : #endif // _ITERATOR_DEBUG_LEVEL != 0 && defined(_ENABLE_STL_INTERNAL_CHECK)
; 1284 : 
; 1285 :         if (_Newsize > max_size()) {

  00027	8b 4d fc	 mov	 ecx, DWORD PTR _this$[ebp]
  0002a	e8 00 00 00 00	 call	 ?max_size@?$vector@V?$CTimeEvent@UDWORDCOLOR@@@@V?$allocator@V?$CTimeEvent@UDWORDCOLOR@@@@@std@@@std@@QBEIXZ ; std::vector<CTimeEvent<DWORDCOLOR>,std::allocator<CTimeEvent<DWORDCOLOR> > >::max_size
  0002f	39 45 08	 cmp	 DWORD PTR __Newsize$[ebp], eax
  00032	76 05		 jbe	 SHORT $LN2@Clear_and_

; 1286 :             _Xlength();

  00034	e8 00 00 00 00	 call	 ?_Xlength@?$vector@V?$CTimeEvent@UDWORDCOLOR@@@@V?$allocator@V?$CTimeEvent@UDWORDCOLOR@@@@@std@@@std@@CAXXZ ; std::vector<CTimeEvent<DWORDCOLOR>,std::allocator<CTimeEvent<DWORDCOLOR> > >::_Xlength
$LN2@Clear_and_:

; 1287 :         }
; 1288 : 
; 1289 :         const size_type _Newcapacity = _Calculate_growth(_Newsize);

  00039	ff 75 08	 push	 DWORD PTR __Newsize$[ebp]
  0003c	8b 4d fc	 mov	 ecx, DWORD PTR _this$[ebp]
  0003f	e8 00 00 00 00	 call	 ?_Calculate_growth@?$vector@V?$CTimeEvent@UDWORDCOLOR@@@@V?$allocator@V?$CTimeEvent@UDWORDCOLOR@@@@@std@@@std@@ABEII@Z ; std::vector<CTimeEvent<DWORDCOLOR>,std::allocator<CTimeEvent<DWORDCOLOR> > >::_Calculate_growth
  00044	89 45 cc	 mov	 DWORD PTR __Newcapacity$[ebp], eax

; 1290 : 
; 1291 :         if (_Myfirst) { // destroy and deallocate old array

  00047	8b 45 f8	 mov	 eax, DWORD PTR __Myfirst$[ebp]
  0004a	83 38 00	 cmp	 DWORD PTR [eax], 0
  0004d	74 74		 je	 SHORT $LN3@Clear_and_

; 1292 :             _Destroy(_Myfirst, _Mylast);

  0004f	8b 45 f0	 mov	 eax, DWORD PTR __Mylast$[ebp]
  00052	8b 00		 mov	 eax, DWORD PTR [eax]
  00054	89 45 e0	 mov	 DWORD PTR __Last$[ebp], eax
  00057	8b 45 f8	 mov	 eax, DWORD PTR __Myfirst$[ebp]
  0005a	8b 00		 mov	 eax, DWORD PTR [eax]
  0005c	89 45 dc	 mov	 DWORD PTR __First$[ebp], eax

; 1733 :         return _Mypair._Get_first();

  0005f	8b 45 fc	 mov	 eax, DWORD PTR _this$[ebp]
; File C:\Program Files (x86)\Microsoft Visual Studio\2019\Community\VC\Tools\MSVC\14.28.29333\include\xmemory

; 1347 :         return *this;

  00062	89 45 e8	 mov	 DWORD PTR $T4[ebp], eax
; File C:\Program Files (x86)\Microsoft Visual Studio\2019\Community\VC\Tools\MSVC\14.28.29333\include\vector

; 1733 :         return _Mypair._Get_first();

  00065	8b 45 e8	 mov	 eax, DWORD PTR $T4[ebp]
  00068	89 45 e4	 mov	 DWORD PTR $T3[ebp], eax

; 1612 :         _Destroy_range(_First, _Last, _Getal());

  0006b	ff 75 e4	 push	 DWORD PTR $T3[ebp]
  0006e	ff 75 e0	 push	 DWORD PTR __Last$[ebp]
  00071	ff 75 dc	 push	 DWORD PTR __First$[ebp]
  00074	e8 00 00 00 00	 call	 ??$_Destroy_range@V?$allocator@V?$CTimeEvent@UDWORDCOLOR@@@@@std@@@std@@YAXPAV?$CTimeEvent@UDWORDCOLOR@@@@QAV1@AAV?$allocator@V?$CTimeEvent@UDWORDCOLOR@@@@@0@@Z ; std::_Destroy_range<std::allocator<CTimeEvent<DWORDCOLOR> > >
  00079	83 c4 0c	 add	 esp, 12			; 0000000cH

; 1733 :         return _Mypair._Get_first();

  0007c	8b 45 fc	 mov	 eax, DWORD PTR _this$[ebp]
; File C:\Program Files (x86)\Microsoft Visual Studio\2019\Community\VC\Tools\MSVC\14.28.29333\include\xmemory

; 1347 :         return *this;

  0007f	89 45 d8	 mov	 DWORD PTR $T2[ebp], eax
; File C:\Program Files (x86)\Microsoft Visual Studio\2019\Community\VC\Tools\MSVC\14.28.29333\include\vector

; 1733 :         return _Mypair._Get_first();

  00082	8b 45 d8	 mov	 eax, DWORD PTR $T2[ebp]
  00085	89 45 c8	 mov	 DWORD PTR $T1[ebp], eax

; 1293 :             _Getal().deallocate(_Myfirst, static_cast<size_type>(_Myend - _Myfirst));

  00088	8b 45 ec	 mov	 eax, DWORD PTR __Myend$[ebp]
  0008b	8b 4d f8	 mov	 ecx, DWORD PTR __Myfirst$[ebp]
  0008e	8b 00		 mov	 eax, DWORD PTR [eax]
  00090	2b 01		 sub	 eax, DWORD PTR [ecx]
  00092	c1 f8 03	 sar	 eax, 3
  00095	89 45 d4	 mov	 DWORD PTR __Count$[ebp], eax
  00098	8b 45 f8	 mov	 eax, DWORD PTR __Myfirst$[ebp]
  0009b	8b 00		 mov	 eax, DWORD PTR [eax]
  0009d	89 45 d0	 mov	 DWORD PTR __Ptr$[ebp], eax
; File C:\Program Files (x86)\Microsoft Visual Studio\2019\Community\VC\Tools\MSVC\14.28.29333\include\xmemory

; 810  :         _Deallocate<_New_alignof<_Ty>>(_Ptr, sizeof(_Ty) * _Count);

  000a0	8b 45 d4	 mov	 eax, DWORD PTR __Count$[ebp]
  000a3	c1 e0 03	 shl	 eax, 3
  000a6	50		 push	 eax
  000a7	ff 75 d0	 push	 DWORD PTR __Ptr$[ebp]
  000aa	e8 00 00 00 00	 call	 ??$_Deallocate@$07$0A@@std@@YAXPAXI@Z ; std::_Deallocate<8,0>
  000af	59		 pop	 ecx
  000b0	59		 pop	 ecx
; File C:\Program Files (x86)\Microsoft Visual Studio\2019\Community\VC\Tools\MSVC\14.28.29333\include\vector

; 1295 :             _Myfirst = pointer();

  000b1	8b 45 f8	 mov	 eax, DWORD PTR __Myfirst$[ebp]
  000b4	83 20 00	 and	 DWORD PTR [eax], 0

; 1296 :             _Mylast  = pointer();

  000b7	8b 45 f0	 mov	 eax, DWORD PTR __Mylast$[ebp]
  000ba	83 20 00	 and	 DWORD PTR [eax], 0

; 1297 :             _Myend   = pointer();

  000bd	8b 45 ec	 mov	 eax, DWORD PTR __Myend$[ebp]
  000c0	83 20 00	 and	 DWORD PTR [eax], 0
$LN3@Clear_and_:

; 1298 :         }
; 1299 : 
; 1300 :         _Buy_raw(_Newcapacity);

  000c3	ff 75 cc	 push	 DWORD PTR __Newcapacity$[ebp]
  000c6	8b 4d fc	 mov	 ecx, DWORD PTR _this$[ebp]
  000c9	e8 00 00 00 00	 call	 ?_Buy_raw@?$vector@V?$CTimeEvent@UDWORDCOLOR@@@@V?$allocator@V?$CTimeEvent@UDWORDCOLOR@@@@@std@@@std@@AAEXI@Z ; std::vector<CTimeEvent<DWORDCOLOR>,std::allocator<CTimeEvent<DWORDCOLOR> > >::_Buy_raw
$LN4@Clear_and_:

; 1301 :     }

  000ce	c9		 leave
  000cf	c2 04 00	 ret	 4
?_Clear_and_reserve_geometric@?$vector@V?$CTimeEvent@UDWORDCOLOR@@@@V?$allocator@V?$CTimeEvent@UDWORDCOLOR@@@@@std@@@std@@AAEXI@Z ENDP ; std::vector<CTimeEvent<DWORDCOLOR>,std::allocator<CTimeEvent<DWORDCOLOR> > >::_Clear_and_reserve_geometric
_TEXT	ENDS
; Function compile flags: /Odspy
; File C:\Program Files (x86)\Microsoft Visual Studio\2019\Community\VC\Tools\MSVC\14.28.29333\include\vector
; File C:\Program Files (x86)\Microsoft Visual Studio\2019\Community\VC\Tools\MSVC\14.28.29333\include\xmemory
; File C:\Program Files (x86)\Microsoft Visual Studio\2019\Community\VC\Tools\MSVC\14.28.29333\include\vector
; File C:\Program Files (x86)\Microsoft Visual Studio\2019\Community\VC\Tools\MSVC\14.28.29333\include\xmemory
; File C:\Program Files (x86)\Microsoft Visual Studio\2019\Community\VC\Tools\MSVC\14.28.29333\include\vector
; File C:\Program Files (x86)\Microsoft Visual Studio\2019\Community\VC\Tools\MSVC\14.28.29333\include\xutility
; File C:\Program Files (x86)\Microsoft Visual Studio\2019\Community\VC\Tools\MSVC\14.28.29333\include\vector
;	COMDAT ?_Copy_assign@?$vector@V?$CTimeEvent@UDWORDCOLOR@@@@V?$allocator@V?$CTimeEvent@UDWORDCOLOR@@@@@std@@@std@@AAEXABV12@U?$integral_constant@_N$0A@@2@@Z
_TEXT	SEGMENT
$T1 = -40						; size = 1
__First$ = -36						; size = 4
$T2 = -32						; size = 4
__Last$ = -28						; size = 4
$T3 = -24						; size = 4
$T4 = -20						; size = 4
$T5 = -16						; size = 4
$T6 = -12						; size = 4
_this$ = -8						; size = 4
__Right_data$ = -4					; size = 4
__Right$ = 8						; size = 4
___formal$ = 12						; size = 1
?_Copy_assign@?$vector@V?$CTimeEvent@UDWORDCOLOR@@@@V?$allocator@V?$CTimeEvent@UDWORDCOLOR@@@@@std@@@std@@AAEXABV12@U?$integral_constant@_N$0A@@2@@Z PROC ; std::vector<CTimeEvent<DWORDCOLOR>,std::allocator<CTimeEvent<DWORDCOLOR> > >::_Copy_assign, COMDAT
; _this$ = ecx

; 1150 :     void _Copy_assign(const vector& _Right, false_type) {

  00000	55		 push	 ebp
  00001	8b ec		 mov	 ebp, esp
  00003	83 ec 28	 sub	 esp, 40			; 00000028H
  00006	89 4d f8	 mov	 DWORD PTR _this$[ebp], ecx

; 1737 :         return _Mypair._Get_first();

  00009	8b 45 08	 mov	 eax, DWORD PTR __Right$[ebp]
; File C:\Program Files (x86)\Microsoft Visual Studio\2019\Community\VC\Tools\MSVC\14.28.29333\include\xmemory

; 1351 :         return *this;

  0000c	89 45 f4	 mov	 DWORD PTR $T6[ebp], eax
; File C:\Program Files (x86)\Microsoft Visual Studio\2019\Community\VC\Tools\MSVC\14.28.29333\include\vector

; 1737 :         return _Mypair._Get_first();

  0000f	8b 45 f4	 mov	 eax, DWORD PTR $T6[ebp]
  00012	89 45 ec	 mov	 DWORD PTR $T4[ebp], eax

; 1733 :         return _Mypair._Get_first();

  00015	8b 45 f8	 mov	 eax, DWORD PTR _this$[ebp]
; File C:\Program Files (x86)\Microsoft Visual Studio\2019\Community\VC\Tools\MSVC\14.28.29333\include\xmemory

; 1347 :         return *this;

  00018	89 45 f0	 mov	 DWORD PTR $T5[ebp], eax
; File C:\Program Files (x86)\Microsoft Visual Studio\2019\Community\VC\Tools\MSVC\14.28.29333\include\vector

; 1733 :         return _Mypair._Get_first();

  0001b	8b 45 f0	 mov	 eax, DWORD PTR $T5[ebp]
  0001e	89 45 e8	 mov	 DWORD PTR $T3[ebp], eax

; 1151 :         _Pocca(_Getal(), _Right._Getal());

  00021	ff 75 ec	 push	 DWORD PTR $T4[ebp]
  00024	ff 75 e8	 push	 DWORD PTR $T3[ebp]
  00027	e8 00 00 00 00	 call	 ??$_Pocca@V?$allocator@V?$CTimeEvent@UDWORDCOLOR@@@@@std@@@std@@YAXAAV?$allocator@V?$CTimeEvent@UDWORDCOLOR@@@@@0@ABV10@@Z ; std::_Pocca<std::allocator<CTimeEvent<DWORDCOLOR> > >
  0002c	59		 pop	 ecx
  0002d	59		 pop	 ecx

; 1152 :         auto& _Right_data = _Right._Mypair._Myval2;

  0002e	8b 45 08	 mov	 eax, DWORD PTR __Right$[ebp]
  00031	89 45 fc	 mov	 DWORD PTR __Right_data$[ebp], eax

; 1153 :         assign(_Right_data._Myfirst, _Right_data._Mylast);

  00034	8b 45 fc	 mov	 eax, DWORD PTR __Right_data$[ebp]
  00037	8b 40 04	 mov	 eax, DWORD PTR [eax+4]
  0003a	89 45 e4	 mov	 DWORD PTR __Last$[ebp], eax
  0003d	8b 45 fc	 mov	 eax, DWORD PTR __Right_data$[ebp]
  00040	8b 00		 mov	 eax, DWORD PTR [eax]
  00042	89 45 dc	 mov	 DWORD PTR __First$[ebp], eax
; File C:\Program Files (x86)\Microsoft Visual Studio\2019\Community\VC\Tools\MSVC\14.28.29333\include\xutility

; 1303 :         return _It + 0;

  00045	8b 45 e4	 mov	 eax, DWORD PTR __Last$[ebp]
  00048	89 45 e0	 mov	 DWORD PTR $T2[ebp], eax
; File C:\Program Files (x86)\Microsoft Visual Studio\2019\Community\VC\Tools\MSVC\14.28.29333\include\vector

; 1142 :         _Assign_range(_Get_unwrapped(_First), _Get_unwrapped(_Last), _Iter_cat_t<_Iter>{});

  0004b	ff 75 d8	 push	 DWORD PTR $T1[ebp]
  0004e	ff 75 e0	 push	 DWORD PTR $T2[ebp]
  00051	ff 75 dc	 push	 DWORD PTR __First$[ebp]
  00054	8b 4d f8	 mov	 ecx, DWORD PTR _this$[ebp]
  00057	e8 00 00 00 00	 call	 ??$_Assign_range@PAV?$CTimeEvent@UDWORDCOLOR@@@@@?$vector@V?$CTimeEvent@UDWORDCOLOR@@@@V?$allocator@V?$CTimeEvent@UDWORDCOLOR@@@@@std@@@std@@AAEXPAV?$CTimeEvent@UDWORDCOLOR@@@@0Uforward_iterator_tag@1@@Z ; std::vector<CTimeEvent<DWORDCOLOR>,std::allocator<CTimeEvent<DWORDCOLOR> > >::_Assign_range<CTimeEvent<DWORDCOLOR> *>

; 1154 :     }

  0005c	c9		 leave
  0005d	c2 08 00	 ret	 8
?_Copy_assign@?$vector@V?$CTimeEvent@UDWORDCOLOR@@@@V?$allocator@V?$CTimeEvent@UDWORDCOLOR@@@@@std@@@std@@AAEXABV12@U?$integral_constant@_N$0A@@2@@Z ENDP ; std::vector<CTimeEvent<DWORDCOLOR>,std::allocator<CTimeEvent<DWORDCOLOR> > >::_Copy_assign
_TEXT	ENDS
; Function compile flags: /Odspy
; File C:\Program Files (x86)\Microsoft Visual Studio\2019\Community\VC\Tools\MSVC\14.28.29333\include\vector
;	COMDAT ?_Xlength@?$vector@V?$CTimeEvent@M@@V?$allocator@V?$CTimeEvent@M@@@std@@@std@@CAXXZ
_TEXT	SEGMENT
?_Xlength@?$vector@V?$CTimeEvent@M@@V?$allocator@V?$CTimeEvent@M@@@std@@@std@@CAXXZ PROC ; std::vector<CTimeEvent<float>,std::allocator<CTimeEvent<float> > >::_Xlength, COMDAT

; 1704 :     [[noreturn]] static void _Xlength() {

  00000	55		 push	 ebp
  00001	8b ec		 mov	 ebp, esp

; 1705 :         _Xlength_error("vector too long");

  00003	68 00 00 00 00	 push	 OFFSET ??_C@_0BA@FOIKENOD@vector?5too?5long@
  00008	e8 00 00 00 00	 call	 ?_Xlength_error@std@@YAXPBD@Z ; std::_Xlength_error
$LN2@Xlength:

; 1706 :     }

  0000d	5d		 pop	 ebp
  0000e	c3		 ret	 0
?_Xlength@?$vector@V?$CTimeEvent@M@@V?$allocator@V?$CTimeEvent@M@@@std@@@std@@CAXXZ ENDP ; std::vector<CTimeEvent<float>,std::allocator<CTimeEvent<float> > >::_Xlength
_TEXT	ENDS
; Function compile flags: /Odspy
; File C:\Program Files (x86)\Microsoft Visual Studio\2019\Community\VC\Tools\MSVC\14.28.29333\include\vector
; File C:\Program Files (x86)\Microsoft Visual Studio\2019\Community\VC\Tools\MSVC\14.28.29333\include\xmemory
; File C:\Program Files (x86)\Microsoft Visual Studio\2019\Community\VC\Tools\MSVC\14.28.29333\include\vector
; File C:\Program Files (x86)\Microsoft Visual Studio\2019\Community\VC\Tools\MSVC\14.28.29333\include\xmemory
; File C:\Program Files (x86)\Microsoft Visual Studio\2019\Community\VC\Tools\MSVC\14.28.29333\include\vector
; File C:\Program Files (x86)\Microsoft Visual Studio\2019\Community\VC\Tools\MSVC\14.28.29333\include\xmemory
; File C:\Program Files (x86)\Microsoft Visual Studio\2019\Community\VC\Tools\MSVC\14.28.29333\include\vector
;	COMDAT ?_Tidy@?$vector@V?$CTimeEvent@M@@V?$allocator@V?$CTimeEvent@M@@@std@@@std@@AAEXXZ
_TEXT	SEGMENT
$T1 = -52						; size = 4
__Ptr$ = -48						; size = 4
__Count$ = -44						; size = 4
$T2 = -40						; size = 4
__First$ = -36						; size = 4
__Last$ = -32						; size = 4
$T3 = -28						; size = 4
$T4 = -24						; size = 4
__Myend$ = -20						; size = 4
__Mylast$ = -16						; size = 4
_this$ = -12						; size = 4
__My_data$ = -8						; size = 4
__Myfirst$ = -4						; size = 4
?_Tidy@?$vector@V?$CTimeEvent@M@@V?$allocator@V?$CTimeEvent@M@@@std@@@std@@AAEXXZ PROC ; std::vector<CTimeEvent<float>,std::allocator<CTimeEvent<float> > >::_Tidy, COMDAT
; _this$ = ecx

; 1686 :     void _Tidy() noexcept { // free all storage

  00000	55		 push	 ebp
  00001	8b ec		 mov	 ebp, esp
  00003	83 ec 34	 sub	 esp, 52			; 00000034H
  00006	89 4d f4	 mov	 DWORD PTR _this$[ebp], ecx

; 1687 :         auto& _My_data    = _Mypair._Myval2;

  00009	8b 45 f4	 mov	 eax, DWORD PTR _this$[ebp]
  0000c	89 45 f8	 mov	 DWORD PTR __My_data$[ebp], eax

; 1688 :         pointer& _Myfirst = _My_data._Myfirst;

  0000f	8b 45 f8	 mov	 eax, DWORD PTR __My_data$[ebp]
  00012	89 45 fc	 mov	 DWORD PTR __Myfirst$[ebp], eax

; 1689 :         pointer& _Mylast  = _My_data._Mylast;

  00015	8b 45 f8	 mov	 eax, DWORD PTR __My_data$[ebp]
  00018	83 c0 04	 add	 eax, 4
  0001b	89 45 f0	 mov	 DWORD PTR __Mylast$[ebp], eax

; 1690 :         pointer& _Myend   = _My_data._Myend;

  0001e	8b 45 f8	 mov	 eax, DWORD PTR __My_data$[ebp]
  00021	83 c0 08	 add	 eax, 8
  00024	89 45 ec	 mov	 DWORD PTR __Myend$[ebp], eax

; 1691 : 
; 1692 :         _My_data._Orphan_all();
; 1693 : 
; 1694 :         if (_Myfirst) { // destroy and deallocate old array

  00027	8b 45 fc	 mov	 eax, DWORD PTR __Myfirst$[ebp]
  0002a	83 38 00	 cmp	 DWORD PTR [eax], 0
  0002d	74 74		 je	 SHORT $LN3@Tidy

; 1695 :             _Destroy(_Myfirst, _Mylast);

  0002f	8b 45 f0	 mov	 eax, DWORD PTR __Mylast$[ebp]
  00032	8b 00		 mov	 eax, DWORD PTR [eax]
  00034	89 45 e0	 mov	 DWORD PTR __Last$[ebp], eax
  00037	8b 45 fc	 mov	 eax, DWORD PTR __Myfirst$[ebp]
  0003a	8b 00		 mov	 eax, DWORD PTR [eax]
  0003c	89 45 dc	 mov	 DWORD PTR __First$[ebp], eax

; 1733 :         return _Mypair._Get_first();

  0003f	8b 45 f4	 mov	 eax, DWORD PTR _this$[ebp]
; File C:\Program Files (x86)\Microsoft Visual Studio\2019\Community\VC\Tools\MSVC\14.28.29333\include\xmemory

; 1347 :         return *this;

  00042	89 45 e8	 mov	 DWORD PTR $T4[ebp], eax
; File C:\Program Files (x86)\Microsoft Visual Studio\2019\Community\VC\Tools\MSVC\14.28.29333\include\vector

; 1733 :         return _Mypair._Get_first();

  00045	8b 45 e8	 mov	 eax, DWORD PTR $T4[ebp]
  00048	89 45 e4	 mov	 DWORD PTR $T3[ebp], eax

; 1612 :         _Destroy_range(_First, _Last, _Getal());

  0004b	ff 75 e4	 push	 DWORD PTR $T3[ebp]
  0004e	ff 75 e0	 push	 DWORD PTR __Last$[ebp]
  00051	ff 75 dc	 push	 DWORD PTR __First$[ebp]
  00054	e8 00 00 00 00	 call	 ??$_Destroy_range@V?$allocator@V?$CTimeEvent@M@@@std@@@std@@YAXPAV?$CTimeEvent@M@@QAV1@AAV?$allocator@V?$CTimeEvent@M@@@0@@Z ; std::_Destroy_range<std::allocator<CTimeEvent<float> > >
  00059	83 c4 0c	 add	 esp, 12			; 0000000cH

; 1733 :         return _Mypair._Get_first();

  0005c	8b 45 f4	 mov	 eax, DWORD PTR _this$[ebp]
; File C:\Program Files (x86)\Microsoft Visual Studio\2019\Community\VC\Tools\MSVC\14.28.29333\include\xmemory

; 1347 :         return *this;

  0005f	89 45 d8	 mov	 DWORD PTR $T2[ebp], eax
; File C:\Program Files (x86)\Microsoft Visual Studio\2019\Community\VC\Tools\MSVC\14.28.29333\include\vector

; 1733 :         return _Mypair._Get_first();

  00062	8b 45 d8	 mov	 eax, DWORD PTR $T2[ebp]
  00065	89 45 cc	 mov	 DWORD PTR $T1[ebp], eax

; 1696 :             _Getal().deallocate(_Myfirst, static_cast<size_type>(_Myend - _Myfirst));

  00068	8b 45 ec	 mov	 eax, DWORD PTR __Myend$[ebp]
  0006b	8b 4d fc	 mov	 ecx, DWORD PTR __Myfirst$[ebp]
  0006e	8b 00		 mov	 eax, DWORD PTR [eax]
  00070	2b 01		 sub	 eax, DWORD PTR [ecx]
  00072	c1 f8 03	 sar	 eax, 3
  00075	89 45 d4	 mov	 DWORD PTR __Count$[ebp], eax
  00078	8b 45 fc	 mov	 eax, DWORD PTR __Myfirst$[ebp]
  0007b	8b 00		 mov	 eax, DWORD PTR [eax]
  0007d	89 45 d0	 mov	 DWORD PTR __Ptr$[ebp], eax
; File C:\Program Files (x86)\Microsoft Visual Studio\2019\Community\VC\Tools\MSVC\14.28.29333\include\xmemory

; 810  :         _Deallocate<_New_alignof<_Ty>>(_Ptr, sizeof(_Ty) * _Count);

  00080	8b 45 d4	 mov	 eax, DWORD PTR __Count$[ebp]
  00083	c1 e0 03	 shl	 eax, 3
  00086	50		 push	 eax
  00087	ff 75 d0	 push	 DWORD PTR __Ptr$[ebp]
  0008a	e8 00 00 00 00	 call	 ??$_Deallocate@$07$0A@@std@@YAXPAXI@Z ; std::_Deallocate<8,0>
  0008f	59		 pop	 ecx
  00090	59		 pop	 ecx
; File C:\Program Files (x86)\Microsoft Visual Studio\2019\Community\VC\Tools\MSVC\14.28.29333\include\vector

; 1698 :             _Myfirst = pointer();

  00091	8b 45 fc	 mov	 eax, DWORD PTR __Myfirst$[ebp]
  00094	83 20 00	 and	 DWORD PTR [eax], 0

; 1699 :             _Mylast  = pointer();

  00097	8b 45 f0	 mov	 eax, DWORD PTR __Mylast$[ebp]
  0009a	83 20 00	 and	 DWORD PTR [eax], 0

; 1700 :             _Myend   = pointer();

  0009d	8b 45 ec	 mov	 eax, DWORD PTR __Myend$[ebp]
  000a0	83 20 00	 and	 DWORD PTR [eax], 0
$LN3@Tidy:

; 1701 :         }
; 1702 :     }

  000a3	c9		 leave
  000a4	c3		 ret	 0
?_Tidy@?$vector@V?$CTimeEvent@M@@V?$allocator@V?$CTimeEvent@M@@@std@@@std@@AAEXXZ ENDP ; std::vector<CTimeEvent<float>,std::allocator<CTimeEvent<float> > >::_Tidy
_TEXT	ENDS
; Function compile flags: /Odspy
; File C:\Program Files (x86)\Microsoft Visual Studio\2019\Community\VC\Tools\MSVC\14.28.29333\include\vector
; File C:\Program Files (x86)\Microsoft Visual Studio\2019\Community\VC\Tools\MSVC\14.28.29333\include\xmemory
; File C:\Program Files (x86)\Microsoft Visual Studio\2019\Community\VC\Tools\MSVC\14.28.29333\include\vector
; File C:\Program Files (x86)\Microsoft Visual Studio\2019\Community\VC\Tools\MSVC\14.28.29333\include\xmemory
; File C:\Program Files (x86)\Microsoft Visual Studio\2019\Community\VC\Tools\MSVC\14.28.29333\include\vector
;	COMDAT ?_Buy_raw@?$vector@V?$CTimeEvent@M@@V?$allocator@V?$CTimeEvent@M@@@std@@@std@@AAEXI@Z
_TEXT	SEGMENT
__Max_possible$1 = -44					; size = 4
$T2 = -40						; size = 4
__Myend$ = -36						; size = 4
__Mylast$ = -32						; size = 4
__Myfirst$ = -28					; size = 4
$T3 = -24						; size = 4
$T4 = -20						; size = 4
_this$ = -16						; size = 4
__Newvec$ = -12						; size = 4
__My_data$ = -8						; size = 4
__Overflow_is_possible$5 = -1				; size = 1
__Newcapacity$ = 8					; size = 4
?_Buy_raw@?$vector@V?$CTimeEvent@M@@V?$allocator@V?$CTimeEvent@M@@@std@@@std@@AAEXI@Z PROC ; std::vector<CTimeEvent<float>,std::allocator<CTimeEvent<float> > >::_Buy_raw, COMDAT
; _this$ = ecx

; 1633 :     void _Buy_raw(const size_type _Newcapacity) {

  00000	55		 push	 ebp
  00001	8b ec		 mov	 ebp, esp
  00003	83 ec 2c	 sub	 esp, 44			; 0000002cH
  00006	89 4d f0	 mov	 DWORD PTR _this$[ebp], ecx

; 1634 :         // allocate array with _Newcapacity elements
; 1635 :         auto& _My_data    = _Mypair._Myval2;

  00009	8b 45 f0	 mov	 eax, DWORD PTR _this$[ebp]
  0000c	89 45 f8	 mov	 DWORD PTR __My_data$[ebp], eax

; 1636 :         pointer& _Myfirst = _My_data._Myfirst;

  0000f	8b 45 f8	 mov	 eax, DWORD PTR __My_data$[ebp]
  00012	89 45 e4	 mov	 DWORD PTR __Myfirst$[ebp], eax

; 1637 :         pointer& _Mylast  = _My_data._Mylast;

  00015	8b 45 f8	 mov	 eax, DWORD PTR __My_data$[ebp]
  00018	83 c0 04	 add	 eax, 4
  0001b	89 45 e0	 mov	 DWORD PTR __Mylast$[ebp], eax

; 1638 :         pointer& _Myend   = _My_data._Myend;

  0001e	8b 45 f8	 mov	 eax, DWORD PTR __My_data$[ebp]
  00021	83 c0 08	 add	 eax, 8
  00024	89 45 dc	 mov	 DWORD PTR __Myend$[ebp], eax

; 1733 :         return _Mypair._Get_first();

  00027	8b 45 f0	 mov	 eax, DWORD PTR _this$[ebp]
; File C:\Program Files (x86)\Microsoft Visual Studio\2019\Community\VC\Tools\MSVC\14.28.29333\include\xmemory

; 1347 :         return *this;

  0002a	89 45 ec	 mov	 DWORD PTR $T4[ebp], eax
; File C:\Program Files (x86)\Microsoft Visual Studio\2019\Community\VC\Tools\MSVC\14.28.29333\include\vector

; 1733 :         return _Mypair._Get_first();

  0002d	8b 45 ec	 mov	 eax, DWORD PTR $T4[ebp]
  00030	89 45 d8	 mov	 DWORD PTR $T2[ebp], eax
; File C:\Program Files (x86)\Microsoft Visual Studio\2019\Community\VC\Tools\MSVC\14.28.29333\include\xmemory

; 56   :     constexpr bool _Overflow_is_possible = _Ty_size > 1;

  00033	c6 45 ff 01	 mov	 BYTE PTR __Overflow_is_possible$5[ebp], 1

; 57   : 
; 58   :     if _CONSTEXPR_IF (_Overflow_is_possible) {
; 59   :         constexpr size_t _Max_possible = static_cast<size_t>(-1) / _Ty_size;

  00037	c7 45 d4 ff ff
	ff 1f		 mov	 DWORD PTR __Max_possible$1[ebp], 536870911 ; 1fffffffH

; 60   :         if (_Count > _Max_possible) {

  0003e	81 7d 08 ff ff
	ff 1f		 cmp	 DWORD PTR __Newcapacity$[ebp], 536870911 ; 1fffffffH
  00045	76 05		 jbe	 SHORT $LN12@Buy_raw

; 61   :             _Throw_bad_array_new_length(); // multiply overflow

  00047	e8 00 00 00 00	 call	 ?_Throw_bad_array_new_length@std@@YAXXZ ; std::_Throw_bad_array_new_length
$LN12@Buy_raw:

; 62   :         }
; 63   :     }
; 64   : 
; 65   :     return _Count * _Ty_size;

  0004c	8b 45 08	 mov	 eax, DWORD PTR __Newcapacity$[ebp]
  0004f	c1 e0 03	 shl	 eax, 3
  00052	89 45 e8	 mov	 DWORD PTR $T3[ebp], eax

; 814  :         return static_cast<_Ty*>(_Allocate<_New_alignof<_Ty>>(_Get_size_of_n<sizeof(_Ty)>(_Count)));

  00055	ff 75 e8	 push	 DWORD PTR $T3[ebp]
  00058	e8 00 00 00 00	 call	 ??$_Allocate@$07U_Default_allocate_traits@std@@$0A@@std@@YAPAXI@Z ; std::_Allocate<8,std::_Default_allocate_traits,0>
  0005d	59		 pop	 ecx
  0005e	89 45 f4	 mov	 DWORD PTR __Newvec$[ebp], eax
; File C:\Program Files (x86)\Microsoft Visual Studio\2019\Community\VC\Tools\MSVC\14.28.29333\include\vector

; 1644 :         _Myfirst           = _Newvec;

  00061	8b 45 e4	 mov	 eax, DWORD PTR __Myfirst$[ebp]
  00064	8b 4d f4	 mov	 ecx, DWORD PTR __Newvec$[ebp]
  00067	89 08		 mov	 DWORD PTR [eax], ecx

; 1645 :         _Mylast            = _Newvec;

  00069	8b 45 e0	 mov	 eax, DWORD PTR __Mylast$[ebp]
  0006c	8b 4d f4	 mov	 ecx, DWORD PTR __Newvec$[ebp]
  0006f	89 08		 mov	 DWORD PTR [eax], ecx

; 1646 :         _Myend             = _Newvec + _Newcapacity;

  00071	8b 45 08	 mov	 eax, DWORD PTR __Newcapacity$[ebp]
  00074	8b 4d f4	 mov	 ecx, DWORD PTR __Newvec$[ebp]
  00077	8d 04 c1	 lea	 eax, DWORD PTR [ecx+eax*8]
  0007a	8b 4d dc	 mov	 ecx, DWORD PTR __Myend$[ebp]
  0007d	89 01		 mov	 DWORD PTR [ecx], eax
$LN15@Buy_raw:

; 1647 :     }

  0007f	c9		 leave
  00080	c2 04 00	 ret	 4
?_Buy_raw@?$vector@V?$CTimeEvent@M@@V?$allocator@V?$CTimeEvent@M@@@std@@@std@@AAEXI@Z ENDP ; std::vector<CTimeEvent<float>,std::allocator<CTimeEvent<float> > >::_Buy_raw
_TEXT	ENDS
; Function compile flags: /Odspy
; File C:\Program Files (x86)\Microsoft Visual Studio\2019\Community\VC\Tools\MSVC\14.28.29333\include\vector
; File C:\Program Files (x86)\Microsoft Visual Studio\2019\Community\VC\Tools\MSVC\14.28.29333\include\xmemory
; File C:\Program Files (x86)\Microsoft Visual Studio\2019\Community\VC\Tools\MSVC\14.28.29333\include\vector
; File C:\Program Files (x86)\Microsoft Visual Studio\2019\Community\VC\Tools\MSVC\14.28.29333\include\xmemory
; File C:\Program Files (x86)\Microsoft Visual Studio\2019\Community\VC\Tools\MSVC\14.28.29333\include\limits
; File C:\Program Files (x86)\Microsoft Visual Studio\2019\Community\VC\Tools\MSVC\14.28.29333\include\vector
; File C:\Program Files (x86)\Microsoft Visual Studio\2019\Community\VC\Tools\MSVC\14.28.29333\include\utility
; File C:\Program Files (x86)\Microsoft Visual Studio\2019\Community\VC\Tools\MSVC\14.28.29333\include\vector
;	COMDAT ?_Calculate_growth@?$vector@V?$CTimeEvent@M@@V?$allocator@V?$CTimeEvent@M@@@std@@@std@@ABEII@Z
_TEXT	SEGMENT
$T1 = -52						; size = 4
$T2 = -48						; size = 4
$T3 = -44						; size = 4
$T4 = -40						; size = 4
$T5 = -36						; size = 4
__Geometric$ = -32					; size = 4
__Max$ = -28						; size = 4
tv82 = -24						; size = 4
$T6 = -20						; size = 4
$T7 = -16						; size = 4
_this$ = -12						; size = 4
__My_data$8 = -8					; size = 4
__Oldcapacity$ = -4					; size = 4
__Newsize$ = 8						; size = 4
?_Calculate_growth@?$vector@V?$CTimeEvent@M@@V?$allocator@V?$CTimeEvent@M@@@std@@@std@@ABEII@Z PROC ; std::vector<CTimeEvent<float>,std::allocator<CTimeEvent<float> > >::_Calculate_growth, COMDAT
; _this$ = ecx

; 1615 :     size_type _Calculate_growth(const size_type _Newsize) const {

  00000	55		 push	 ebp
  00001	8b ec		 mov	 ebp, esp
  00003	83 ec 34	 sub	 esp, 52			; 00000034H
  00006	89 4d f4	 mov	 DWORD PTR _this$[ebp], ecx

; 1493 :         auto& _My_data = _Mypair._Myval2;

  00009	8b 45 f4	 mov	 eax, DWORD PTR _this$[ebp]
  0000c	89 45 f8	 mov	 DWORD PTR __My_data$8[ebp], eax

; 1494 :         return static_cast<size_type>(_My_data._Myend - _My_data._Myfirst);

  0000f	8b 45 f8	 mov	 eax, DWORD PTR __My_data$8[ebp]
  00012	8b 4d f8	 mov	 ecx, DWORD PTR __My_data$8[ebp]
  00015	8b 40 08	 mov	 eax, DWORD PTR [eax+8]
  00018	2b 01		 sub	 eax, DWORD PTR [ecx]
  0001a	c1 f8 03	 sar	 eax, 3
  0001d	89 45 fc	 mov	 DWORD PTR __Oldcapacity$[ebp], eax

; 1737 :         return _Mypair._Get_first();

  00020	8b 45 f4	 mov	 eax, DWORD PTR _this$[ebp]
; File C:\Program Files (x86)\Microsoft Visual Studio\2019\Community\VC\Tools\MSVC\14.28.29333\include\xmemory

; 1351 :         return *this;

  00023	89 45 dc	 mov	 DWORD PTR $T5[ebp], eax
; File C:\Program Files (x86)\Microsoft Visual Studio\2019\Community\VC\Tools\MSVC\14.28.29333\include\vector

; 1737 :         return _Mypair._Get_first();

  00026	8b 45 dc	 mov	 eax, DWORD PTR $T5[ebp]
  00029	89 45 cc	 mov	 DWORD PTR $T1[ebp], eax
; File C:\Program Files (x86)\Microsoft Visual Studio\2019\Community\VC\Tools\MSVC\14.28.29333\include\xmemory

; 710  :         return static_cast<size_t>(-1) / sizeof(value_type);

  0002c	c7 45 f0 ff ff
	ff 1f		 mov	 DWORD PTR $T7[ebp], 536870911 ; 1fffffffH
; File C:\Program Files (x86)\Microsoft Visual Studio\2019\Community\VC\Tools\MSVC\14.28.29333\include\limits

; 557  :         return INT_MAX;

  00033	c7 45 d8 ff ff
	ff 7f		 mov	 DWORD PTR $T4[ebp], 2147483647 ; 7fffffffH
; File C:\Program Files (x86)\Microsoft Visual Studio\2019\Community\VC\Tools\MSVC\14.28.29333\include\vector

; 1488 :         return (_STD min)(

  0003a	8b 45 d8	 mov	 eax, DWORD PTR $T4[ebp]
  0003d	89 45 ec	 mov	 DWORD PTR $T6[ebp], eax
; File C:\Program Files (x86)\Microsoft Visual Studio\2019\Community\VC\Tools\MSVC\14.28.29333\include\utility

; 68   :     return _Right < _Left ? _Right : _Left;

  00040	8b 45 f0	 mov	 eax, DWORD PTR $T7[ebp]
  00043	3b 45 ec	 cmp	 eax, DWORD PTR $T6[ebp]
  00046	73 08		 jae	 SHORT $LN25@Calculate_
  00048	8d 45 f0	 lea	 eax, DWORD PTR $T7[ebp]
  0004b	89 45 e8	 mov	 DWORD PTR tv82[ebp], eax
  0004e	eb 06		 jmp	 SHORT $LN26@Calculate_
$LN25@Calculate_:
  00050	8d 45 ec	 lea	 eax, DWORD PTR $T6[ebp]
  00053	89 45 e8	 mov	 DWORD PTR tv82[ebp], eax
$LN26@Calculate_:
  00056	8b 45 e8	 mov	 eax, DWORD PTR tv82[ebp]
  00059	89 45 d4	 mov	 DWORD PTR $T3[ebp], eax
  0005c	8b 45 d4	 mov	 eax, DWORD PTR $T3[ebp]
  0005f	89 45 d0	 mov	 DWORD PTR $T2[ebp], eax
; File C:\Program Files (x86)\Microsoft Visual Studio\2019\Community\VC\Tools\MSVC\14.28.29333\include\vector

; 1488 :         return (_STD min)(

  00062	8b 45 d0	 mov	 eax, DWORD PTR $T2[ebp]
  00065	8b 00		 mov	 eax, DWORD PTR [eax]
  00067	89 45 e4	 mov	 DWORD PTR __Max$[ebp], eax

; 1616 :         // given _Oldcapacity and _Newsize, calculate geometric growth
; 1617 :         const size_type _Oldcapacity = capacity();
; 1618 :         const auto _Max              = max_size();
; 1619 : 
; 1620 :         if (_Oldcapacity > _Max - _Oldcapacity / 2) {

  0006a	8b 45 fc	 mov	 eax, DWORD PTR __Oldcapacity$[ebp]
  0006d	d1 e8		 shr	 eax, 1
  0006f	8b 4d e4	 mov	 ecx, DWORD PTR __Max$[ebp]
  00072	2b c8		 sub	 ecx, eax
  00074	39 4d fc	 cmp	 DWORD PTR __Oldcapacity$[ebp], ecx
  00077	76 05		 jbe	 SHORT $LN2@Calculate_

; 1621 :             return _Max; // geometric growth would overflow

  00079	8b 45 e4	 mov	 eax, DWORD PTR __Max$[ebp]
  0007c	eb 1b		 jmp	 SHORT $LN1@Calculate_
$LN2@Calculate_:

; 1622 :         }
; 1623 : 
; 1624 :         const size_type _Geometric = _Oldcapacity + _Oldcapacity / 2;

  0007e	8b 45 fc	 mov	 eax, DWORD PTR __Oldcapacity$[ebp]
  00081	d1 e8		 shr	 eax, 1
  00083	03 45 fc	 add	 eax, DWORD PTR __Oldcapacity$[ebp]
  00086	89 45 e0	 mov	 DWORD PTR __Geometric$[ebp], eax

; 1625 : 
; 1626 :         if (_Geometric < _Newsize) {

  00089	8b 45 e0	 mov	 eax, DWORD PTR __Geometric$[ebp]
  0008c	3b 45 08	 cmp	 eax, DWORD PTR __Newsize$[ebp]
  0008f	73 05		 jae	 SHORT $LN3@Calculate_

; 1627 :             return _Newsize; // geometric growth would be insufficient

  00091	8b 45 08	 mov	 eax, DWORD PTR __Newsize$[ebp]
  00094	eb 03		 jmp	 SHORT $LN1@Calculate_
$LN3@Calculate_:

; 1628 :         }
; 1629 : 
; 1630 :         return _Geometric; // geometric growth is sufficient

  00096	8b 45 e0	 mov	 eax, DWORD PTR __Geometric$[ebp]
$LN1@Calculate_:

; 1631 :     }

  00099	c9		 leave
  0009a	c2 04 00	 ret	 4
?_Calculate_growth@?$vector@V?$CTimeEvent@M@@V?$allocator@V?$CTimeEvent@M@@@std@@@std@@ABEII@Z ENDP ; std::vector<CTimeEvent<float>,std::allocator<CTimeEvent<float> > >::_Calculate_growth
_TEXT	ENDS
; Function compile flags: /Odspy
; File C:\Program Files (x86)\Microsoft Visual Studio\2019\Community\VC\Tools\MSVC\14.28.29333\include\vector
; File C:\Program Files (x86)\Microsoft Visual Studio\2019\Community\VC\Tools\MSVC\14.28.29333\include\xmemory
; File C:\Program Files (x86)\Microsoft Visual Studio\2019\Community\VC\Tools\MSVC\14.28.29333\include\vector
; File C:\Program Files (x86)\Microsoft Visual Studio\2019\Community\VC\Tools\MSVC\14.28.29333\include\xmemory
; File C:\Program Files (x86)\Microsoft Visual Studio\2019\Community\VC\Tools\MSVC\14.28.29333\include\limits
; File C:\Program Files (x86)\Microsoft Visual Studio\2019\Community\VC\Tools\MSVC\14.28.29333\include\vector
; File C:\Program Files (x86)\Microsoft Visual Studio\2019\Community\VC\Tools\MSVC\14.28.29333\include\utility
; File C:\Program Files (x86)\Microsoft Visual Studio\2019\Community\VC\Tools\MSVC\14.28.29333\include\vector
;	COMDAT ?max_size@?$vector@V?$CTimeEvent@M@@V?$allocator@V?$CTimeEvent@M@@@std@@@std@@QBEIXZ
_TEXT	SEGMENT
$T1 = -36						; size = 4
$T2 = -32						; size = 4
$T3 = -28						; size = 4
$T4 = -24						; size = 4
$T5 = -20						; size = 4
_this$ = -16						; size = 4
tv68 = -12						; size = 4
$T6 = -8						; size = 4
$T7 = -4						; size = 4
?max_size@?$vector@V?$CTimeEvent@M@@V?$allocator@V?$CTimeEvent@M@@@std@@@std@@QBEIXZ PROC ; std::vector<CTimeEvent<float>,std::allocator<CTimeEvent<float> > >::max_size, COMDAT
; _this$ = ecx

; 1487 :     _NODISCARD size_type max_size() const noexcept {

  00000	55		 push	 ebp
  00001	8b ec		 mov	 ebp, esp
  00003	83 ec 24	 sub	 esp, 36			; 00000024H
  00006	89 4d f0	 mov	 DWORD PTR _this$[ebp], ecx

; 1737 :         return _Mypair._Get_first();

  00009	8b 45 f0	 mov	 eax, DWORD PTR _this$[ebp]
; File C:\Program Files (x86)\Microsoft Visual Studio\2019\Community\VC\Tools\MSVC\14.28.29333\include\xmemory

; 1351 :         return *this;

  0000c	89 45 ec	 mov	 DWORD PTR $T5[ebp], eax
; File C:\Program Files (x86)\Microsoft Visual Studio\2019\Community\VC\Tools\MSVC\14.28.29333\include\vector

; 1737 :         return _Mypair._Get_first();

  0000f	8b 45 ec	 mov	 eax, DWORD PTR $T5[ebp]
  00012	89 45 dc	 mov	 DWORD PTR $T1[ebp], eax
; File C:\Program Files (x86)\Microsoft Visual Studio\2019\Community\VC\Tools\MSVC\14.28.29333\include\xmemory

; 710  :         return static_cast<size_t>(-1) / sizeof(value_type);

  00015	c7 45 fc ff ff
	ff 1f		 mov	 DWORD PTR $T7[ebp], 536870911 ; 1fffffffH
; File C:\Program Files (x86)\Microsoft Visual Studio\2019\Community\VC\Tools\MSVC\14.28.29333\include\limits

; 557  :         return INT_MAX;

  0001c	c7 45 e8 ff ff
	ff 7f		 mov	 DWORD PTR $T4[ebp], 2147483647 ; 7fffffffH
; File C:\Program Files (x86)\Microsoft Visual Studio\2019\Community\VC\Tools\MSVC\14.28.29333\include\vector

; 1488 :         return (_STD min)(

  00023	8b 45 e8	 mov	 eax, DWORD PTR $T4[ebp]
  00026	89 45 f8	 mov	 DWORD PTR $T6[ebp], eax
; File C:\Program Files (x86)\Microsoft Visual Studio\2019\Community\VC\Tools\MSVC\14.28.29333\include\utility

; 68   :     return _Right < _Left ? _Right : _Left;

  00029	8b 45 fc	 mov	 eax, DWORD PTR $T7[ebp]
  0002c	3b 45 f8	 cmp	 eax, DWORD PTR $T6[ebp]
  0002f	73 08		 jae	 SHORT $LN17@max_size
  00031	8d 45 fc	 lea	 eax, DWORD PTR $T7[ebp]
  00034	89 45 f4	 mov	 DWORD PTR tv68[ebp], eax
  00037	eb 06		 jmp	 SHORT $LN18@max_size
$LN17@max_size:
  00039	8d 45 f8	 lea	 eax, DWORD PTR $T6[ebp]
  0003c	89 45 f4	 mov	 DWORD PTR tv68[ebp], eax
$LN18@max_size:
  0003f	8b 45 f4	 mov	 eax, DWORD PTR tv68[ebp]
  00042	89 45 e4	 mov	 DWORD PTR $T3[ebp], eax
  00045	8b 45 e4	 mov	 eax, DWORD PTR $T3[ebp]
  00048	89 45 e0	 mov	 DWORD PTR $T2[ebp], eax
; File C:\Program Files (x86)\Microsoft Visual Studio\2019\Community\VC\Tools\MSVC\14.28.29333\include\vector

; 1488 :         return (_STD min)(

  0004b	8b 45 e0	 mov	 eax, DWORD PTR $T2[ebp]
  0004e	8b 00		 mov	 eax, DWORD PTR [eax]

; 1489 :             static_cast<size_type>((numeric_limits<difference_type>::max)()), _Alty_traits::max_size(_Getal()));
; 1490 :     }

  00050	c9		 leave
  00051	c3		 ret	 0
?max_size@?$vector@V?$CTimeEvent@M@@V?$allocator@V?$CTimeEvent@M@@@std@@@std@@QBEIXZ ENDP ; std::vector<CTimeEvent<float>,std::allocator<CTimeEvent<float> > >::max_size
_TEXT	ENDS
; Function compile flags: /Odspy
; File C:\Program Files (x86)\Microsoft Visual Studio\2019\Community\VC\Tools\MSVC\14.28.29333\include\vector
; File C:\Program Files (x86)\Microsoft Visual Studio\2019\Community\VC\Tools\MSVC\14.28.29333\include\xmemory
; File C:\Program Files (x86)\Microsoft Visual Studio\2019\Community\VC\Tools\MSVC\14.28.29333\include\vector
;	COMDAT ?clear@?$vector@V?$CTimeEvent@M@@V?$allocator@V?$CTimeEvent@M@@@std@@@std@@QAEXXZ
_TEXT	SEGMENT
__First$ = -32						; size = 4
__Last$ = -28						; size = 4
$T1 = -24						; size = 4
$T2 = -20						; size = 4
__Myfirst$ = -16					; size = 4
__Mylast$ = -12						; size = 4
_this$ = -8						; size = 4
__My_data$ = -4						; size = 4
?clear@?$vector@V?$CTimeEvent@M@@V?$allocator@V?$CTimeEvent@M@@@std@@@std@@QAEXXZ PROC ; std::vector<CTimeEvent<float>,std::allocator<CTimeEvent<float> > >::clear, COMDAT
; _this$ = ecx

; 1383 :     void clear() noexcept { // erase all

  00000	55		 push	 ebp
  00001	8b ec		 mov	 ebp, esp
  00003	83 ec 20	 sub	 esp, 32			; 00000020H
  00006	89 4d f8	 mov	 DWORD PTR _this$[ebp], ecx

; 1384 :         auto& _My_data    = _Mypair._Myval2;

  00009	8b 45 f8	 mov	 eax, DWORD PTR _this$[ebp]
  0000c	89 45 fc	 mov	 DWORD PTR __My_data$[ebp], eax

; 1385 :         pointer& _Myfirst = _My_data._Myfirst;

  0000f	8b 45 fc	 mov	 eax, DWORD PTR __My_data$[ebp]
  00012	89 45 f0	 mov	 DWORD PTR __Myfirst$[ebp], eax

; 1386 :         pointer& _Mylast  = _My_data._Mylast;

  00015	8b 45 fc	 mov	 eax, DWORD PTR __My_data$[ebp]
  00018	83 c0 04	 add	 eax, 4
  0001b	89 45 f4	 mov	 DWORD PTR __Mylast$[ebp], eax

; 1387 : 
; 1388 :         _My_data._Orphan_all();
; 1389 :         _Destroy(_Myfirst, _Mylast);

  0001e	8b 45 f4	 mov	 eax, DWORD PTR __Mylast$[ebp]
  00021	8b 00		 mov	 eax, DWORD PTR [eax]
  00023	89 45 e4	 mov	 DWORD PTR __Last$[ebp], eax
  00026	8b 45 f0	 mov	 eax, DWORD PTR __Myfirst$[ebp]
  00029	8b 00		 mov	 eax, DWORD PTR [eax]
  0002b	89 45 e0	 mov	 DWORD PTR __First$[ebp], eax

; 1733 :         return _Mypair._Get_first();

  0002e	8b 45 f8	 mov	 eax, DWORD PTR _this$[ebp]
; File C:\Program Files (x86)\Microsoft Visual Studio\2019\Community\VC\Tools\MSVC\14.28.29333\include\xmemory

; 1347 :         return *this;

  00031	89 45 ec	 mov	 DWORD PTR $T2[ebp], eax
; File C:\Program Files (x86)\Microsoft Visual Studio\2019\Community\VC\Tools\MSVC\14.28.29333\include\vector

; 1733 :         return _Mypair._Get_first();

  00034	8b 45 ec	 mov	 eax, DWORD PTR $T2[ebp]
  00037	89 45 e8	 mov	 DWORD PTR $T1[ebp], eax

; 1612 :         _Destroy_range(_First, _Last, _Getal());

  0003a	ff 75 e8	 push	 DWORD PTR $T1[ebp]
  0003d	ff 75 e4	 push	 DWORD PTR __Last$[ebp]
  00040	ff 75 e0	 push	 DWORD PTR __First$[ebp]
  00043	e8 00 00 00 00	 call	 ??$_Destroy_range@V?$allocator@V?$CTimeEvent@M@@@std@@@std@@YAXPAV?$CTimeEvent@M@@QAV1@AAV?$allocator@V?$CTimeEvent@M@@@0@@Z ; std::_Destroy_range<std::allocator<CTimeEvent<float> > >
  00048	83 c4 0c	 add	 esp, 12			; 0000000cH

; 1390 :         _Mylast = _Myfirst;

  0004b	8b 45 f4	 mov	 eax, DWORD PTR __Mylast$[ebp]
  0004e	8b 4d f0	 mov	 ecx, DWORD PTR __Myfirst$[ebp]
  00051	8b 09		 mov	 ecx, DWORD PTR [ecx]
  00053	89 08		 mov	 DWORD PTR [eax], ecx

; 1391 :     }

  00055	c9		 leave
  00056	c3		 ret	 0
?clear@?$vector@V?$CTimeEvent@M@@V?$allocator@V?$CTimeEvent@M@@@std@@@std@@QAEXXZ ENDP ; std::vector<CTimeEvent<float>,std::allocator<CTimeEvent<float> > >::clear
_TEXT	ENDS
; Function compile flags: /Odspy
; File C:\Program Files (x86)\Microsoft Visual Studio\2019\Community\VC\Tools\MSVC\14.28.29333\include\vector
; File C:\Program Files (x86)\Microsoft Visual Studio\2019\Community\VC\Tools\MSVC\14.28.29333\include\xmemory
; File C:\Program Files (x86)\Microsoft Visual Studio\2019\Community\VC\Tools\MSVC\14.28.29333\include\vector
; File C:\Program Files (x86)\Microsoft Visual Studio\2019\Community\VC\Tools\MSVC\14.28.29333\include\xmemory
; File C:\Program Files (x86)\Microsoft Visual Studio\2019\Community\VC\Tools\MSVC\14.28.29333\include\vector
; File C:\Program Files (x86)\Microsoft Visual Studio\2019\Community\VC\Tools\MSVC\14.28.29333\include\xmemory
; File C:\Program Files (x86)\Microsoft Visual Studio\2019\Community\VC\Tools\MSVC\14.28.29333\include\vector
;	COMDAT ?_Clear_and_reserve_geometric@?$vector@V?$CTimeEvent@M@@V?$allocator@V?$CTimeEvent@M@@@std@@@std@@AAEXI@Z
_TEXT	SEGMENT
$T1 = -56						; size = 4
__Newcapacity$ = -52					; size = 4
__Ptr$ = -48						; size = 4
__Count$ = -44						; size = 4
$T2 = -40						; size = 4
__First$ = -36						; size = 4
__Last$ = -32						; size = 4
$T3 = -28						; size = 4
$T4 = -24						; size = 4
__Myend$ = -20						; size = 4
__Mylast$ = -16						; size = 4
__My_data$ = -12					; size = 4
__Myfirst$ = -8						; size = 4
_this$ = -4						; size = 4
__Newsize$ = 8						; size = 4
?_Clear_and_reserve_geometric@?$vector@V?$CTimeEvent@M@@V?$allocator@V?$CTimeEvent@M@@@std@@@std@@AAEXI@Z PROC ; std::vector<CTimeEvent<float>,std::allocator<CTimeEvent<float> > >::_Clear_and_reserve_geometric, COMDAT
; _this$ = ecx

; 1271 :     void _Clear_and_reserve_geometric(const size_type _Newsize) {

  00000	55		 push	 ebp
  00001	8b ec		 mov	 ebp, esp
  00003	83 ec 38	 sub	 esp, 56			; 00000038H
  00006	89 4d fc	 mov	 DWORD PTR _this$[ebp], ecx

; 1272 :         auto& _My_data    = _Mypair._Myval2;

  00009	8b 45 fc	 mov	 eax, DWORD PTR _this$[ebp]
  0000c	89 45 f4	 mov	 DWORD PTR __My_data$[ebp], eax

; 1273 :         pointer& _Myfirst = _My_data._Myfirst;

  0000f	8b 45 f4	 mov	 eax, DWORD PTR __My_data$[ebp]
  00012	89 45 f8	 mov	 DWORD PTR __Myfirst$[ebp], eax

; 1274 :         pointer& _Mylast  = _My_data._Mylast;

  00015	8b 45 f4	 mov	 eax, DWORD PTR __My_data$[ebp]
  00018	83 c0 04	 add	 eax, 4
  0001b	89 45 f0	 mov	 DWORD PTR __Mylast$[ebp], eax

; 1275 :         pointer& _Myend   = _My_data._Myend;

  0001e	8b 45 f4	 mov	 eax, DWORD PTR __My_data$[ebp]
  00021	83 c0 08	 add	 eax, 8
  00024	89 45 ec	 mov	 DWORD PTR __Myend$[ebp], eax

; 1276 : 
; 1277 : #if _ITERATOR_DEBUG_LEVEL != 0 && defined(_ENABLE_STL_INTERNAL_CHECK)
; 1278 :         _STL_INTERNAL_CHECK(_Newsize != 0);
; 1279 :         {
; 1280 :             _Lockit _Lock(_LOCK_DEBUG);
; 1281 :             _STL_INTERNAL_CHECK(!_My_data._Myproxy->_Myfirstiter); // asserts that all iterators are orphaned
; 1282 :         } // unlock
; 1283 : #endif // _ITERATOR_DEBUG_LEVEL != 0 && defined(_ENABLE_STL_INTERNAL_CHECK)
; 1284 : 
; 1285 :         if (_Newsize > max_size()) {

  00027	8b 4d fc	 mov	 ecx, DWORD PTR _this$[ebp]
  0002a	e8 00 00 00 00	 call	 ?max_size@?$vector@V?$CTimeEvent@M@@V?$allocator@V?$CTimeEvent@M@@@std@@@std@@QBEIXZ ; std::vector<CTimeEvent<float>,std::allocator<CTimeEvent<float> > >::max_size
  0002f	39 45 08	 cmp	 DWORD PTR __Newsize$[ebp], eax
  00032	76 05		 jbe	 SHORT $LN2@Clear_and_

; 1286 :             _Xlength();

  00034	e8 00 00 00 00	 call	 ?_Xlength@?$vector@V?$CTimeEvent@M@@V?$allocator@V?$CTimeEvent@M@@@std@@@std@@CAXXZ ; std::vector<CTimeEvent<float>,std::allocator<CTimeEvent<float> > >::_Xlength
$LN2@Clear_and_:

; 1287 :         }
; 1288 : 
; 1289 :         const size_type _Newcapacity = _Calculate_growth(_Newsize);

  00039	ff 75 08	 push	 DWORD PTR __Newsize$[ebp]
  0003c	8b 4d fc	 mov	 ecx, DWORD PTR _this$[ebp]
  0003f	e8 00 00 00 00	 call	 ?_Calculate_growth@?$vector@V?$CTimeEvent@M@@V?$allocator@V?$CTimeEvent@M@@@std@@@std@@ABEII@Z ; std::vector<CTimeEvent<float>,std::allocator<CTimeEvent<float> > >::_Calculate_growth
  00044	89 45 cc	 mov	 DWORD PTR __Newcapacity$[ebp], eax

; 1290 : 
; 1291 :         if (_Myfirst) { // destroy and deallocate old array

  00047	8b 45 f8	 mov	 eax, DWORD PTR __Myfirst$[ebp]
  0004a	83 38 00	 cmp	 DWORD PTR [eax], 0
  0004d	74 74		 je	 SHORT $LN3@Clear_and_

; 1292 :             _Destroy(_Myfirst, _Mylast);

  0004f	8b 45 f0	 mov	 eax, DWORD PTR __Mylast$[ebp]
  00052	8b 00		 mov	 eax, DWORD PTR [eax]
  00054	89 45 e0	 mov	 DWORD PTR __Last$[ebp], eax
  00057	8b 45 f8	 mov	 eax, DWORD PTR __Myfirst$[ebp]
  0005a	8b 00		 mov	 eax, DWORD PTR [eax]
  0005c	89 45 dc	 mov	 DWORD PTR __First$[ebp], eax

; 1733 :         return _Mypair._Get_first();

  0005f	8b 45 fc	 mov	 eax, DWORD PTR _this$[ebp]
; File C:\Program Files (x86)\Microsoft Visual Studio\2019\Community\VC\Tools\MSVC\14.28.29333\include\xmemory

; 1347 :         return *this;

  00062	89 45 e8	 mov	 DWORD PTR $T4[ebp], eax
; File C:\Program Files (x86)\Microsoft Visual Studio\2019\Community\VC\Tools\MSVC\14.28.29333\include\vector

; 1733 :         return _Mypair._Get_first();

  00065	8b 45 e8	 mov	 eax, DWORD PTR $T4[ebp]
  00068	89 45 e4	 mov	 DWORD PTR $T3[ebp], eax

; 1612 :         _Destroy_range(_First, _Last, _Getal());

  0006b	ff 75 e4	 push	 DWORD PTR $T3[ebp]
  0006e	ff 75 e0	 push	 DWORD PTR __Last$[ebp]
  00071	ff 75 dc	 push	 DWORD PTR __First$[ebp]
  00074	e8 00 00 00 00	 call	 ??$_Destroy_range@V?$allocator@V?$CTimeEvent@M@@@std@@@std@@YAXPAV?$CTimeEvent@M@@QAV1@AAV?$allocator@V?$CTimeEvent@M@@@0@@Z ; std::_Destroy_range<std::allocator<CTimeEvent<float> > >
  00079	83 c4 0c	 add	 esp, 12			; 0000000cH

; 1733 :         return _Mypair._Get_first();

  0007c	8b 45 fc	 mov	 eax, DWORD PTR _this$[ebp]
; File C:\Program Files (x86)\Microsoft Visual Studio\2019\Community\VC\Tools\MSVC\14.28.29333\include\xmemory

; 1347 :         return *this;

  0007f	89 45 d8	 mov	 DWORD PTR $T2[ebp], eax
; File C:\Program Files (x86)\Microsoft Visual Studio\2019\Community\VC\Tools\MSVC\14.28.29333\include\vector

; 1733 :         return _Mypair._Get_first();

  00082	8b 45 d8	 mov	 eax, DWORD PTR $T2[ebp]
  00085	89 45 c8	 mov	 DWORD PTR $T1[ebp], eax

; 1293 :             _Getal().deallocate(_Myfirst, static_cast<size_type>(_Myend - _Myfirst));

  00088	8b 45 ec	 mov	 eax, DWORD PTR __Myend$[ebp]
  0008b	8b 4d f8	 mov	 ecx, DWORD PTR __Myfirst$[ebp]
  0008e	8b 00		 mov	 eax, DWORD PTR [eax]
  00090	2b 01		 sub	 eax, DWORD PTR [ecx]
  00092	c1 f8 03	 sar	 eax, 3
  00095	89 45 d4	 mov	 DWORD PTR __Count$[ebp], eax
  00098	8b 45 f8	 mov	 eax, DWORD PTR __Myfirst$[ebp]
  0009b	8b 00		 mov	 eax, DWORD PTR [eax]
  0009d	89 45 d0	 mov	 DWORD PTR __Ptr$[ebp], eax
; File C:\Program Files (x86)\Microsoft Visual Studio\2019\Community\VC\Tools\MSVC\14.28.29333\include\xmemory

; 810  :         _Deallocate<_New_alignof<_Ty>>(_Ptr, sizeof(_Ty) * _Count);

  000a0	8b 45 d4	 mov	 eax, DWORD PTR __Count$[ebp]
  000a3	c1 e0 03	 shl	 eax, 3
  000a6	50		 push	 eax
  000a7	ff 75 d0	 push	 DWORD PTR __Ptr$[ebp]
  000aa	e8 00 00 00 00	 call	 ??$_Deallocate@$07$0A@@std@@YAXPAXI@Z ; std::_Deallocate<8,0>
  000af	59		 pop	 ecx
  000b0	59		 pop	 ecx
; File C:\Program Files (x86)\Microsoft Visual Studio\2019\Community\VC\Tools\MSVC\14.28.29333\include\vector

; 1295 :             _Myfirst = pointer();

  000b1	8b 45 f8	 mov	 eax, DWORD PTR __Myfirst$[ebp]
  000b4	83 20 00	 and	 DWORD PTR [eax], 0

; 1296 :             _Mylast  = pointer();

  000b7	8b 45 f0	 mov	 eax, DWORD PTR __Mylast$[ebp]
  000ba	83 20 00	 and	 DWORD PTR [eax], 0

; 1297 :             _Myend   = pointer();

  000bd	8b 45 ec	 mov	 eax, DWORD PTR __Myend$[ebp]
  000c0	83 20 00	 and	 DWORD PTR [eax], 0
$LN3@Clear_and_:

; 1298 :         }
; 1299 : 
; 1300 :         _Buy_raw(_Newcapacity);

  000c3	ff 75 cc	 push	 DWORD PTR __Newcapacity$[ebp]
  000c6	8b 4d fc	 mov	 ecx, DWORD PTR _this$[ebp]
  000c9	e8 00 00 00 00	 call	 ?_Buy_raw@?$vector@V?$CTimeEvent@M@@V?$allocator@V?$CTimeEvent@M@@@std@@@std@@AAEXI@Z ; std::vector<CTimeEvent<float>,std::allocator<CTimeEvent<float> > >::_Buy_raw
$LN4@Clear_and_:

; 1301 :     }

  000ce	c9		 leave
  000cf	c2 04 00	 ret	 4
?_Clear_and_reserve_geometric@?$vector@V?$CTimeEvent@M@@V?$allocator@V?$CTimeEvent@M@@@std@@@std@@AAEXI@Z ENDP ; std::vector<CTimeEvent<float>,std::allocator<CTimeEvent<float> > >::_Clear_and_reserve_geometric
_TEXT	ENDS
; Function compile flags: /Odspy
; File C:\Program Files (x86)\Microsoft Visual Studio\2019\Community\VC\Tools\MSVC\14.28.29333\include\vector
; File C:\Program Files (x86)\Microsoft Visual Studio\2019\Community\VC\Tools\MSVC\14.28.29333\include\xmemory
; File C:\Program Files (x86)\Microsoft Visual Studio\2019\Community\VC\Tools\MSVC\14.28.29333\include\vector
; File C:\Program Files (x86)\Microsoft Visual Studio\2019\Community\VC\Tools\MSVC\14.28.29333\include\xmemory
; File C:\Program Files (x86)\Microsoft Visual Studio\2019\Community\VC\Tools\MSVC\14.28.29333\include\vector
; File C:\Program Files (x86)\Microsoft Visual Studio\2019\Community\VC\Tools\MSVC\14.28.29333\include\xutility
; File C:\Program Files (x86)\Microsoft Visual Studio\2019\Community\VC\Tools\MSVC\14.28.29333\include\vector
;	COMDAT ?_Copy_assign@?$vector@V?$CTimeEvent@M@@V?$allocator@V?$CTimeEvent@M@@@std@@@std@@AAEXABV12@U?$integral_constant@_N$0A@@2@@Z
_TEXT	SEGMENT
$T1 = -40						; size = 1
__First$ = -36						; size = 4
$T2 = -32						; size = 4
__Last$ = -28						; size = 4
$T3 = -24						; size = 4
$T4 = -20						; size = 4
$T5 = -16						; size = 4
$T6 = -12						; size = 4
_this$ = -8						; size = 4
__Right_data$ = -4					; size = 4
__Right$ = 8						; size = 4
___formal$ = 12						; size = 1
?_Copy_assign@?$vector@V?$CTimeEvent@M@@V?$allocator@V?$CTimeEvent@M@@@std@@@std@@AAEXABV12@U?$integral_constant@_N$0A@@2@@Z PROC ; std::vector<CTimeEvent<float>,std::allocator<CTimeEvent<float> > >::_Copy_assign, COMDAT
; _this$ = ecx

; 1150 :     void _Copy_assign(const vector& _Right, false_type) {

  00000	55		 push	 ebp
  00001	8b ec		 mov	 ebp, esp
  00003	83 ec 28	 sub	 esp, 40			; 00000028H
  00006	89 4d f8	 mov	 DWORD PTR _this$[ebp], ecx

; 1737 :         return _Mypair._Get_first();

  00009	8b 45 08	 mov	 eax, DWORD PTR __Right$[ebp]
; File C:\Program Files (x86)\Microsoft Visual Studio\2019\Community\VC\Tools\MSVC\14.28.29333\include\xmemory

; 1351 :         return *this;

  0000c	89 45 f4	 mov	 DWORD PTR $T6[ebp], eax
; File C:\Program Files (x86)\Microsoft Visual Studio\2019\Community\VC\Tools\MSVC\14.28.29333\include\vector

; 1737 :         return _Mypair._Get_first();

  0000f	8b 45 f4	 mov	 eax, DWORD PTR $T6[ebp]
  00012	89 45 ec	 mov	 DWORD PTR $T4[ebp], eax

; 1733 :         return _Mypair._Get_first();

  00015	8b 45 f8	 mov	 eax, DWORD PTR _this$[ebp]
; File C:\Program Files (x86)\Microsoft Visual Studio\2019\Community\VC\Tools\MSVC\14.28.29333\include\xmemory

; 1347 :         return *this;

  00018	89 45 f0	 mov	 DWORD PTR $T5[ebp], eax
; File C:\Program Files (x86)\Microsoft Visual Studio\2019\Community\VC\Tools\MSVC\14.28.29333\include\vector

; 1733 :         return _Mypair._Get_first();

  0001b	8b 45 f0	 mov	 eax, DWORD PTR $T5[ebp]
  0001e	89 45 e8	 mov	 DWORD PTR $T3[ebp], eax

; 1151 :         _Pocca(_Getal(), _Right._Getal());

  00021	ff 75 ec	 push	 DWORD PTR $T4[ebp]
  00024	ff 75 e8	 push	 DWORD PTR $T3[ebp]
  00027	e8 00 00 00 00	 call	 ??$_Pocca@V?$allocator@V?$CTimeEvent@M@@@std@@@std@@YAXAAV?$allocator@V?$CTimeEvent@M@@@0@ABV10@@Z ; std::_Pocca<std::allocator<CTimeEvent<float> > >
  0002c	59		 pop	 ecx
  0002d	59		 pop	 ecx

; 1152 :         auto& _Right_data = _Right._Mypair._Myval2;

  0002e	8b 45 08	 mov	 eax, DWORD PTR __Right$[ebp]
  00031	89 45 fc	 mov	 DWORD PTR __Right_data$[ebp], eax

; 1153 :         assign(_Right_data._Myfirst, _Right_data._Mylast);

  00034	8b 45 fc	 mov	 eax, DWORD PTR __Right_data$[ebp]
  00037	8b 40 04	 mov	 eax, DWORD PTR [eax+4]
  0003a	89 45 e4	 mov	 DWORD PTR __Last$[ebp], eax
  0003d	8b 45 fc	 mov	 eax, DWORD PTR __Right_data$[ebp]
  00040	8b 00		 mov	 eax, DWORD PTR [eax]
  00042	89 45 dc	 mov	 DWORD PTR __First$[ebp], eax
; File C:\Program Files (x86)\Microsoft Visual Studio\2019\Community\VC\Tools\MSVC\14.28.29333\include\xutility

; 1303 :         return _It + 0;

  00045	8b 45 e4	 mov	 eax, DWORD PTR __Last$[ebp]
  00048	89 45 e0	 mov	 DWORD PTR $T2[ebp], eax
; File C:\Program Files (x86)\Microsoft Visual Studio\2019\Community\VC\Tools\MSVC\14.28.29333\include\vector

; 1142 :         _Assign_range(_Get_unwrapped(_First), _Get_unwrapped(_Last), _Iter_cat_t<_Iter>{});

  0004b	ff 75 d8	 push	 DWORD PTR $T1[ebp]
  0004e	ff 75 e0	 push	 DWORD PTR $T2[ebp]
  00051	ff 75 dc	 push	 DWORD PTR __First$[ebp]
  00054	8b 4d f8	 mov	 ecx, DWORD PTR _this$[ebp]
  00057	e8 00 00 00 00	 call	 ??$_Assign_range@PAV?$CTimeEvent@M@@@?$vector@V?$CTimeEvent@M@@V?$allocator@V?$CTimeEvent@M@@@std@@@std@@AAEXPAV?$CTimeEvent@M@@0Uforward_iterator_tag@1@@Z ; std::vector<CTimeEvent<float>,std::allocator<CTimeEvent<float> > >::_Assign_range<CTimeEvent<float> *>

; 1154 :     }

  0005c	c9		 leave
  0005d	c2 08 00	 ret	 8
?_Copy_assign@?$vector@V?$CTimeEvent@M@@V?$allocator@V?$CTimeEvent@M@@@std@@@std@@AAEXABV12@U?$integral_constant@_N$0A@@2@@Z ENDP ; std::vector<CTimeEvent<float>,std::allocator<CTimeEvent<float> > >::_Copy_assign
_TEXT	ENDS
; Function compile flags: /Odspy
; File D:\Metin2 Server Files\mainline\SRC_2014\Metin2Client\EffectLib\ParticleProperty.cpp
; File C:\Program Files (x86)\Microsoft Visual Studio\2019\Community\VC\Tools\MSVC\14.28.29333\include\vector
; File D:\Metin2 Server Files\mainline\SRC_2014\Metin2Client\EffectLib\ParticleProperty.cpp
;	COMDAT ?SetTexture@CParticleProperty@@QAE_NPBD@Z
_TEXT	SEGMENT
$T1 = -12						; size = 4
__My_data$2 = -8					; size = 4
_this$ = -4						; size = 4
_c_szFileName$ = 8					; size = 4
?SetTexture@CParticleProperty@@QAE_NPBD@Z PROC		; CParticleProperty::SetTexture, COMDAT
; _this$ = ecx

; 16   : {

  00000	55		 push	 ebp
  00001	8b ec		 mov	 ebp, esp
  00003	83 ec 0c	 sub	 esp, 12			; 0000000cH
  00006	89 4d fc	 mov	 DWORD PTR _this$[ebp], ecx
; File C:\Program Files (x86)\Microsoft Visual Studio\2019\Community\VC\Tools\MSVC\14.28.29333\include\vector

; 1483 :         auto& _My_data = _Mypair._Myval2;

  00009	8b 45 fc	 mov	 eax, DWORD PTR _this$[ebp]
  0000c	83 c0 70	 add	 eax, 112		; 00000070H
  0000f	89 45 f8	 mov	 DWORD PTR __My_data$2[ebp], eax

; 1484 :         return static_cast<size_type>(_My_data._Mylast - _My_data._Myfirst);

  00012	8b 45 f8	 mov	 eax, DWORD PTR __My_data$2[ebp]
  00015	8b 4d f8	 mov	 ecx, DWORD PTR __My_data$2[ebp]
  00018	8b 40 04	 mov	 eax, DWORD PTR [eax+4]
  0001b	2b 01		 sub	 eax, DWORD PTR [ecx]
  0001d	c1 f8 02	 sar	 eax, 2
  00020	89 45 f4	 mov	 DWORD PTR $T1[ebp], eax
; File D:\Metin2 Server Files\mainline\SRC_2014\Metin2Client\EffectLib\ParticleProperty.cpp

; 17   : 	if (m_ImageVector.size() > 1)

  00023	83 7d f4 01	 cmp	 DWORD PTR $T1[ebp], 1
  00027	76 04		 jbe	 SHORT $LN2@SetTexture

; 18   : 	{
; 19   : 		assert(false);
; 20   : 		return false;

  00029	32 c0		 xor	 al, al
  0002b	eb 18		 jmp	 SHORT $LN1@SetTexture
$LN2@SetTexture:

; 21   : 	}
; 22   : 	m_ImageVector.clear();

  0002d	8b 4d fc	 mov	 ecx, DWORD PTR _this$[ebp]
  00030	83 c1 70	 add	 ecx, 112		; 00000070H
  00033	e8 00 00 00 00	 call	 ?clear@?$vector@PAVCGraphicImage@@V?$allocator@PAVCGraphicImage@@@std@@@std@@QAEXXZ ; std::vector<CGraphicImage *,std::allocator<CGraphicImage *> >::clear

; 23   : #ifdef WORLD_EDITOR
; 24   : 	m_TextureNameVector.clear();
; 25   : #endif
; 26   : 	InsertTexture(c_szFileName);

  00038	ff 75 08	 push	 DWORD PTR _c_szFileName$[ebp]
  0003b	8b 4d fc	 mov	 ecx, DWORD PTR _this$[ebp]
  0003e	e8 00 00 00 00	 call	 ?InsertTexture@CParticleProperty@@QAEXPBD@Z ; CParticleProperty::InsertTexture

; 27   : 	return true;

  00043	b0 01		 mov	 al, 1
$LN1@SetTexture:

; 28   : }

  00045	c9		 leave
  00046	c2 04 00	 ret	 4
?SetTexture@CParticleProperty@@QAE_NPBD@Z ENDP		; CParticleProperty::SetTexture
_TEXT	ENDS
; Function compile flags: /Odspy
; File D:\Metin2 Server Files\mainline\SRC_2014\Metin2Client\EffectLib\ParticleProperty.cpp
; File D:\Metin2 Server Files\mainline\SRC_2014\Metin2Client\eterBase\Singleton.h
; File D:\Metin2 Server Files\mainline\SRC_2014\Metin2Client\EffectLib\ParticleProperty.cpp
; File C:\Program Files (x86)\Microsoft Visual Studio\2019\Community\VC\Tools\MSVC\14.28.29333\include\vector
; File D:\Metin2 Server Files\mainline\SRC_2014\Metin2Client\EffectLib\ParticleProperty.cpp
; File C:\Program Files (x86)\Microsoft Visual Studio\2019\Community\VC\Tools\MSVC\14.28.29333\include\vector
; File D:\Metin2 Server Files\mainline\SRC_2014\Metin2Client\EffectLib\ParticleProperty.cpp
;	COMDAT ?InsertTexture@CParticleProperty@@QAEXPBD@Z
_TEXT	SEGMENT
_this$ = -12						; size = 4
_pImage$ = -8						; size = 4
$T1 = -4						; size = 4
_c_szFileName$ = 8					; size = 4
?InsertTexture@CParticleProperty@@QAEXPBD@Z PROC	; CParticleProperty::InsertTexture, COMDAT
; _this$ = ecx

; 6    : {

  00000	55		 push	 ebp
  00001	8b ec		 mov	 ebp, esp
  00003	83 ec 0c	 sub	 esp, 12			; 0000000cH
  00006	89 4d f4	 mov	 DWORD PTR _this$[ebp], ecx
; File D:\Metin2 Server Files\mainline\SRC_2014\Metin2Client\eterBase\Singleton.h

; 27   : 		return (*ms_singleton);

  00009	a1 00 00 00 00	 mov	 eax, DWORD PTR ?ms_singleton@?$CSingleton@VCResourceManager@@@@0PAVCResourceManager@@A ; CSingleton<CResourceManager>::ms_singleton
  0000e	89 45 fc	 mov	 DWORD PTR $T1[ebp], eax
; File D:\Metin2 Server Files\mainline\SRC_2014\Metin2Client\EffectLib\ParticleProperty.cpp

; 7    : 	CGraphicImage * pImage = (CGraphicImage *)CResourceManager::Instance().GetResourcePointer(c_szFileName);

  00011	ff 75 08	 push	 DWORD PTR _c_szFileName$[ebp]
  00014	8b 4d fc	 mov	 ecx, DWORD PTR $T1[ebp]
  00017	e8 00 00 00 00	 call	 ?GetResourcePointer@CResourceManager@@QAEPAVCResource@@PBD@Z ; CResourceManager::GetResourcePointer
  0001c	89 45 f8	 mov	 DWORD PTR _pImage$[ebp], eax
; File C:\Program Files (x86)\Microsoft Visual Studio\2019\Community\VC\Tools\MSVC\14.28.29333\include\vector

; 717  :         emplace_back(_Val);

  0001f	8d 45 f8	 lea	 eax, DWORD PTR _pImage$[ebp]
  00022	50		 push	 eax
; File D:\Metin2 Server Files\mainline\SRC_2014\Metin2Client\EffectLib\ParticleProperty.cpp

; 9    : 	m_ImageVector.push_back(pImage);

  00023	8b 4d f4	 mov	 ecx, DWORD PTR _this$[ebp]
  00026	83 c1 70	 add	 ecx, 112		; 00000070H
; File C:\Program Files (x86)\Microsoft Visual Studio\2019\Community\VC\Tools\MSVC\14.28.29333\include\vector

; 717  :         emplace_back(_Val);

  00029	e8 00 00 00 00	 call	 ??$emplace_back@ABQAVCGraphicImage@@@?$vector@PAVCGraphicImage@@V?$allocator@PAVCGraphicImage@@@std@@@std@@QAEXABQAVCGraphicImage@@@Z ; std::vector<CGraphicImage *,std::allocator<CGraphicImage *> >::emplace_back<CGraphicImage * const &>
; File D:\Metin2 Server Files\mainline\SRC_2014\Metin2Client\EffectLib\ParticleProperty.cpp

; 13   : }

  0002e	c9		 leave
  0002f	c2 04 00	 ret	 4
?InsertTexture@CParticleProperty@@QAEXPBD@Z ENDP	; CParticleProperty::InsertTexture
_TEXT	ENDS
; Function compile flags: /Odspy
; File D:\Metin2 Server Files\mainline\SRC_2014\Metin2Client\EffectLib\ParticleProperty.cpp
;	COMDAT ?Clear@CParticleProperty@@QAEXXZ
_TEXT	SEGMENT
_this$ = -4						; size = 4
?Clear@CParticleProperty@@QAEXXZ PROC			; CParticleProperty::Clear, COMDAT
; _this$ = ecx

; 31   : {

  00000	55		 push	 ebp
  00001	8b ec		 mov	 ebp, esp
  00003	51		 push	 ecx
  00004	89 4d fc	 mov	 DWORD PTR _this$[ebp], ecx

; 32   : 	m_byRotationType = 0;

  00007	8b 45 fc	 mov	 eax, DWORD PTR _this$[ebp]
  0000a	c6 40 14 00	 mov	 BYTE PTR [eax+20], 0

; 33   : 	m_fRotationSpeed = 0.0f;

  0000e	8b 45 fc	 mov	 eax, DWORD PTR _this$[ebp]
  00011	0f 57 c0	 xorps	 xmm0, xmm0
  00014	f3 0f 11 40 18	 movss	 DWORD PTR [eax+24], xmm0

; 34   : 	m_wRotationRandomStartingBegin = 0;

  00019	33 c0		 xor	 eax, eax
  0001b	8b 4d fc	 mov	 ecx, DWORD PTR _this$[ebp]
  0001e	66 89 41 1c	 mov	 WORD PTR [ecx+28], ax

; 35   : 	m_wRotationRandomStartingEnd = 0;

  00022	33 c0		 xor	 eax, eax
  00024	8b 4d fc	 mov	 ecx, DWORD PTR _this$[ebp]
  00027	66 89 41 1e	 mov	 WORD PTR [ecx+30], ax

; 36   : 
; 37   : 	m_bAttachFlag = FALSE;

  0002b	8b 45 fc	 mov	 eax, DWORD PTR _this$[ebp]
  0002e	83 60 20 00	 and	 DWORD PTR [eax+32], 0

; 38   : 	m_bStretchFlag = FALSE;

  00032	8b 45 fc	 mov	 eax, DWORD PTR _this$[ebp]
  00035	83 60 24 00	 and	 DWORD PTR [eax+36], 0

; 39   : 
; 40   : 	m_bySrcBlendType = D3DBLEND_SRCALPHA;

  00039	8b 45 fc	 mov	 eax, DWORD PTR _this$[ebp]
  0003c	c6 40 10 05	 mov	 BYTE PTR [eax+16], 5

; 41   : 	m_byDestBlendType = D3DBLEND_ONE;

  00040	8b 45 fc	 mov	 eax, DWORD PTR _this$[ebp]
  00043	c6 40 11 02	 mov	 BYTE PTR [eax+17], 2

; 42   : 	m_byColorOperationType = D3DTOP_MODULATE; 

  00047	8b 45 fc	 mov	 eax, DWORD PTR _this$[ebp]
  0004a	c6 40 12 04	 mov	 BYTE PTR [eax+18], 4

; 43   : 
; 44   : 	m_byBillboardType = BILLBOARD_TYPE_NONE;

  0004e	8b 45 fc	 mov	 eax, DWORD PTR _this$[ebp]
  00051	c6 40 13 00	 mov	 BYTE PTR [eax+19], 0

; 45   : 
; 46   : 	m_byTexAniType = TEXTURE_ANIMATION_TYPE_NONE;

  00055	8b 45 fc	 mov	 eax, DWORD PTR _this$[ebp]
  00058	c6 40 04 00	 mov	 BYTE PTR [eax+4], 0

; 47   : 	m_fTexAniDelay = 0.05f;

  0005c	8b 45 fc	 mov	 eax, DWORD PTR _this$[ebp]
  0005f	f3 0f 10 05 00
	00 00 00	 movss	 xmm0, DWORD PTR __real@3d4ccccd
  00067	f3 0f 11 40 08	 movss	 DWORD PTR [eax+8], xmm0

; 48   : 	m_bTexAniRandomStartFrameFlag = FALSE;

  0006c	8b 45 fc	 mov	 eax, DWORD PTR _this$[ebp]
  0006f	83 60 0c 00	 and	 DWORD PTR [eax+12], 0

; 49   : 
; 50   : 	//m_fGravity = 0.0f;
; 51   : 	//m_fAirResistance = 0.0f;
; 52   : 
; 53   : 	m_TimeEventGravity.clear();

  00073	8b 4d fc	 mov	 ecx, DWORD PTR _this$[ebp]
  00076	83 c1 28	 add	 ecx, 40			; 00000028H
  00079	e8 00 00 00 00	 call	 ?clear@?$vector@V?$CTimeEvent@M@@V?$allocator@V?$CTimeEvent@M@@@std@@@std@@QAEXXZ ; std::vector<CTimeEvent<float>,std::allocator<CTimeEvent<float> > >::clear

; 54   : 	m_TimeEventAirResistance.clear();

  0007e	8b 4d fc	 mov	 ecx, DWORD PTR _this$[ebp]
  00081	83 c1 34	 add	 ecx, 52			; 00000034H
  00084	e8 00 00 00 00	 call	 ?clear@?$vector@V?$CTimeEvent@M@@V?$allocator@V?$CTimeEvent@M@@@std@@@std@@QAEXXZ ; std::vector<CTimeEvent<float>,std::allocator<CTimeEvent<float> > >::clear

; 55   : 
; 56   : 	m_TimeEventScaleX.clear();

  00089	8b 4d fc	 mov	 ecx, DWORD PTR _this$[ebp]
  0008c	83 c1 40	 add	 ecx, 64			; 00000040H
  0008f	e8 00 00 00 00	 call	 ?clear@?$vector@V?$CTimeEvent@M@@V?$allocator@V?$CTimeEvent@M@@@std@@@std@@QAEXXZ ; std::vector<CTimeEvent<float>,std::allocator<CTimeEvent<float> > >::clear

; 57   : 	m_TimeEventScaleY.clear();

  00094	8b 4d fc	 mov	 ecx, DWORD PTR _this$[ebp]
  00097	83 c1 4c	 add	 ecx, 76			; 0000004cH
  0009a	e8 00 00 00 00	 call	 ?clear@?$vector@V?$CTimeEvent@M@@V?$allocator@V?$CTimeEvent@M@@@std@@@std@@QAEXXZ ; std::vector<CTimeEvent<float>,std::allocator<CTimeEvent<float> > >::clear

; 58   : 	//m_TimeEventScaleXY.clear();
; 59   : #ifdef WORLD_EDITOR
; 60   : 	m_TimeEventColorRed.clear();
; 61   : 	m_TimeEventColorGreen.clear();
; 62   : 	m_TimeEventColorBlue.clear();
; 63   : 	m_TimeEventAlpha.clear();
; 64   : 	m_TextureNameVector.clear();
; 65   : #else
; 66   : 	m_TimeEventColor.clear();

  0009f	8b 4d fc	 mov	 ecx, DWORD PTR _this$[ebp]
  000a2	83 c1 58	 add	 ecx, 88			; 00000058H
  000a5	e8 00 00 00 00	 call	 ?clear@?$vector@V?$CTimeEvent@UDWORDCOLOR@@@@V?$allocator@V?$CTimeEvent@UDWORDCOLOR@@@@@std@@@std@@QAEXXZ ; std::vector<CTimeEvent<DWORDCOLOR>,std::allocator<CTimeEvent<DWORDCOLOR> > >::clear

; 67   : #endif
; 68   : 	m_TimeEventRotation.clear();

  000aa	8b 4d fc	 mov	 ecx, DWORD PTR _this$[ebp]
  000ad	83 c1 64	 add	 ecx, 100		; 00000064H
  000b0	e8 00 00 00 00	 call	 ?clear@?$vector@V?$CTimeEvent@M@@V?$allocator@V?$CTimeEvent@M@@@std@@@std@@QAEXXZ ; std::vector<CTimeEvent<float>,std::allocator<CTimeEvent<float> > >::clear

; 69   : 
; 70   : 	m_ImageVector.clear();

  000b5	8b 4d fc	 mov	 ecx, DWORD PTR _this$[ebp]
  000b8	83 c1 70	 add	 ecx, 112		; 00000070H
  000bb	e8 00 00 00 00	 call	 ?clear@?$vector@PAVCGraphicImage@@V?$allocator@PAVCGraphicImage@@@std@@@std@@QAEXXZ ; std::vector<CGraphicImage *,std::allocator<CGraphicImage *> >::clear

; 71   : }

  000c0	c9		 leave
  000c1	c3		 ret	 0
?Clear@CParticleProperty@@QAEXXZ ENDP			; CParticleProperty::Clear
_TEXT	ENDS
; Function compile flags: /Odspy
; File D:\Metin2 Server Files\mainline\SRC_2014\Metin2Client\EffectLib\ParticleProperty.cpp
; File C:\Program Files (x86)\Microsoft Visual Studio\2019\Community\VC\Tools\MSVC\14.28.29333\include\vector
; File D:\Metin2 Server Files\mainline\SRC_2014\Metin2Client\EffectLib\ParticleProperty.cpp
; File C:\Program Files (x86)\Microsoft Visual Studio\2019\Community\VC\Tools\MSVC\14.28.29333\include\vector
; File D:\Metin2 Server Files\mainline\SRC_2014\Metin2Client\EffectLib\ParticleProperty.cpp
; File C:\Program Files (x86)\Microsoft Visual Studio\2019\Community\VC\Tools\MSVC\14.28.29333\include\vector
; File D:\Metin2 Server Files\mainline\SRC_2014\Metin2Client\EffectLib\ParticleProperty.cpp
; File C:\Program Files (x86)\Microsoft Visual Studio\2019\Community\VC\Tools\MSVC\14.28.29333\include\vector
; File D:\Metin2 Server Files\mainline\SRC_2014\Metin2Client\EffectLib\ParticleProperty.cpp
; File C:\Program Files (x86)\Microsoft Visual Studio\2019\Community\VC\Tools\MSVC\14.28.29333\include\vector
; File D:\Metin2 Server Files\mainline\SRC_2014\Metin2Client\EffectLib\ParticleProperty.cpp
; File C:\Program Files (x86)\Microsoft Visual Studio\2019\Community\VC\Tools\MSVC\14.28.29333\include\vector
; File D:\Metin2 Server Files\mainline\SRC_2014\Metin2Client\EffectLib\ParticleProperty.cpp
; File C:\Program Files (x86)\Microsoft Visual Studio\2019\Community\VC\Tools\MSVC\14.28.29333\include\vector
; File D:\Metin2 Server Files\mainline\SRC_2014\Metin2Client\EffectLib\ParticleProperty.cpp
;	COMDAT ??1CParticleProperty@@UAE@XZ
_TEXT	SEGMENT
_this$ = -4						; size = 4
??1CParticleProperty@@UAE@XZ PROC			; CParticleProperty::~CParticleProperty, COMDAT
; _this$ = ecx

; 77   : {

  00000	55		 push	 ebp
  00001	8b ec		 mov	 ebp, esp
  00003	51		 push	 ecx
  00004	89 4d fc	 mov	 DWORD PTR _this$[ebp], ecx
  00007	8b 45 fc	 mov	 eax, DWORD PTR _this$[ebp]
  0000a	c7 00 00 00 00
	00		 mov	 DWORD PTR [eax], OFFSET ??_7CParticleProperty@@6B@

; 78   : }

  00010	8b 4d fc	 mov	 ecx, DWORD PTR _this$[ebp]
  00013	83 c1 70	 add	 ecx, 112		; 00000070H
; File C:\Program Files (x86)\Microsoft Visual Studio\2019\Community\VC\Tools\MSVC\14.28.29333\include\vector

; 673  :         _Tidy();

  00016	e8 00 00 00 00	 call	 ?_Tidy@?$vector@PAVCGraphicImage@@V?$allocator@PAVCGraphicImage@@@std@@@std@@AAEXXZ ; std::vector<CGraphicImage *,std::allocator<CGraphicImage *> >::_Tidy
; File D:\Metin2 Server Files\mainline\SRC_2014\Metin2Client\EffectLib\ParticleProperty.cpp

; 78   : }

  0001b	8b 4d fc	 mov	 ecx, DWORD PTR _this$[ebp]
  0001e	83 c1 64	 add	 ecx, 100		; 00000064H
; File C:\Program Files (x86)\Microsoft Visual Studio\2019\Community\VC\Tools\MSVC\14.28.29333\include\vector

; 673  :         _Tidy();

  00021	e8 00 00 00 00	 call	 ?_Tidy@?$vector@V?$CTimeEvent@M@@V?$allocator@V?$CTimeEvent@M@@@std@@@std@@AAEXXZ ; std::vector<CTimeEvent<float>,std::allocator<CTimeEvent<float> > >::_Tidy
; File D:\Metin2 Server Files\mainline\SRC_2014\Metin2Client\EffectLib\ParticleProperty.cpp

; 78   : }

  00026	8b 4d fc	 mov	 ecx, DWORD PTR _this$[ebp]
  00029	83 c1 58	 add	 ecx, 88			; 00000058H
; File C:\Program Files (x86)\Microsoft Visual Studio\2019\Community\VC\Tools\MSVC\14.28.29333\include\vector

; 673  :         _Tidy();

  0002c	e8 00 00 00 00	 call	 ?_Tidy@?$vector@V?$CTimeEvent@UDWORDCOLOR@@@@V?$allocator@V?$CTimeEvent@UDWORDCOLOR@@@@@std@@@std@@AAEXXZ ; std::vector<CTimeEvent<DWORDCOLOR>,std::allocator<CTimeEvent<DWORDCOLOR> > >::_Tidy
; File D:\Metin2 Server Files\mainline\SRC_2014\Metin2Client\EffectLib\ParticleProperty.cpp

; 78   : }

  00031	8b 4d fc	 mov	 ecx, DWORD PTR _this$[ebp]
  00034	83 c1 4c	 add	 ecx, 76			; 0000004cH
; File C:\Program Files (x86)\Microsoft Visual Studio\2019\Community\VC\Tools\MSVC\14.28.29333\include\vector

; 673  :         _Tidy();

  00037	e8 00 00 00 00	 call	 ?_Tidy@?$vector@V?$CTimeEvent@M@@V?$allocator@V?$CTimeEvent@M@@@std@@@std@@AAEXXZ ; std::vector<CTimeEvent<float>,std::allocator<CTimeEvent<float> > >::_Tidy
; File D:\Metin2 Server Files\mainline\SRC_2014\Metin2Client\EffectLib\ParticleProperty.cpp

; 78   : }

  0003c	8b 4d fc	 mov	 ecx, DWORD PTR _this$[ebp]
  0003f	83 c1 40	 add	 ecx, 64			; 00000040H
; File C:\Program Files (x86)\Microsoft Visual Studio\2019\Community\VC\Tools\MSVC\14.28.29333\include\vector

; 673  :         _Tidy();

  00042	e8 00 00 00 00	 call	 ?_Tidy@?$vector@V?$CTimeEvent@M@@V?$allocator@V?$CTimeEvent@M@@@std@@@std@@AAEXXZ ; std::vector<CTimeEvent<float>,std::allocator<CTimeEvent<float> > >::_Tidy
; File D:\Metin2 Server Files\mainline\SRC_2014\Metin2Client\EffectLib\ParticleProperty.cpp

; 78   : }

  00047	8b 4d fc	 mov	 ecx, DWORD PTR _this$[ebp]
  0004a	83 c1 34	 add	 ecx, 52			; 00000034H
; File C:\Program Files (x86)\Microsoft Visual Studio\2019\Community\VC\Tools\MSVC\14.28.29333\include\vector

; 673  :         _Tidy();

  0004d	e8 00 00 00 00	 call	 ?_Tidy@?$vector@V?$CTimeEvent@M@@V?$allocator@V?$CTimeEvent@M@@@std@@@std@@AAEXXZ ; std::vector<CTimeEvent<float>,std::allocator<CTimeEvent<float> > >::_Tidy
; File D:\Metin2 Server Files\mainline\SRC_2014\Metin2Client\EffectLib\ParticleProperty.cpp

; 78   : }

  00052	8b 4d fc	 mov	 ecx, DWORD PTR _this$[ebp]
  00055	83 c1 28	 add	 ecx, 40			; 00000028H
; File C:\Program Files (x86)\Microsoft Visual Studio\2019\Community\VC\Tools\MSVC\14.28.29333\include\vector

; 673  :         _Tidy();

  00058	e8 00 00 00 00	 call	 ?_Tidy@?$vector@V?$CTimeEvent@M@@V?$allocator@V?$CTimeEvent@M@@@std@@@std@@AAEXXZ ; std::vector<CTimeEvent<float>,std::allocator<CTimeEvent<float> > >::_Tidy
; File D:\Metin2 Server Files\mainline\SRC_2014\Metin2Client\EffectLib\ParticleProperty.cpp

; 78   : }

  0005d	c9		 leave
  0005e	c3		 ret	 0
??1CParticleProperty@@UAE@XZ ENDP			; CParticleProperty::~CParticleProperty
_TEXT	ENDS
; Function compile flags: /Odspy
; File D:\Metin2 Server Files\mainline\SRC_2014\Metin2Client\EffectLib\ParticleProperty.cpp
; File C:\Program Files (x86)\Microsoft Visual Studio\2019\Community\VC\Tools\MSVC\14.28.29333\include\vector
; File C:\Program Files (x86)\Microsoft Visual Studio\2019\Community\VC\Tools\MSVC\14.28.29333\include\xmemory
; File C:\Program Files (x86)\Microsoft Visual Studio\2019\Community\VC\Tools\MSVC\14.28.29333\include\vector
; File D:\Metin2 Server Files\mainline\SRC_2014\Metin2Client\EffectLib\ParticleProperty.cpp
; File C:\Program Files (x86)\Microsoft Visual Studio\2019\Community\VC\Tools\MSVC\14.28.29333\include\vector
; File C:\Program Files (x86)\Microsoft Visual Studio\2019\Community\VC\Tools\MSVC\14.28.29333\include\xmemory
; File C:\Program Files (x86)\Microsoft Visual Studio\2019\Community\VC\Tools\MSVC\14.28.29333\include\vector
; File D:\Metin2 Server Files\mainline\SRC_2014\Metin2Client\EffectLib\ParticleProperty.cpp
; File C:\Program Files (x86)\Microsoft Visual Studio\2019\Community\VC\Tools\MSVC\14.28.29333\include\vector
; File C:\Program Files (x86)\Microsoft Visual Studio\2019\Community\VC\Tools\MSVC\14.28.29333\include\xmemory
; File C:\Program Files (x86)\Microsoft Visual Studio\2019\Community\VC\Tools\MSVC\14.28.29333\include\vector
; File D:\Metin2 Server Files\mainline\SRC_2014\Metin2Client\EffectLib\ParticleProperty.cpp
; File C:\Program Files (x86)\Microsoft Visual Studio\2019\Community\VC\Tools\MSVC\14.28.29333\include\vector
; File C:\Program Files (x86)\Microsoft Visual Studio\2019\Community\VC\Tools\MSVC\14.28.29333\include\xmemory
; File C:\Program Files (x86)\Microsoft Visual Studio\2019\Community\VC\Tools\MSVC\14.28.29333\include\vector
; File D:\Metin2 Server Files\mainline\SRC_2014\Metin2Client\EffectLib\ParticleProperty.cpp
; File C:\Program Files (x86)\Microsoft Visual Studio\2019\Community\VC\Tools\MSVC\14.28.29333\include\vector
; File C:\Program Files (x86)\Microsoft Visual Studio\2019\Community\VC\Tools\MSVC\14.28.29333\include\xmemory
; File C:\Program Files (x86)\Microsoft Visual Studio\2019\Community\VC\Tools\MSVC\14.28.29333\include\vector
; File D:\Metin2 Server Files\mainline\SRC_2014\Metin2Client\EffectLib\ParticleProperty.cpp
; File C:\Program Files (x86)\Microsoft Visual Studio\2019\Community\VC\Tools\MSVC\14.28.29333\include\vector
; File C:\Program Files (x86)\Microsoft Visual Studio\2019\Community\VC\Tools\MSVC\14.28.29333\include\xmemory
; File C:\Program Files (x86)\Microsoft Visual Studio\2019\Community\VC\Tools\MSVC\14.28.29333\include\vector
; File D:\Metin2 Server Files\mainline\SRC_2014\Metin2Client\EffectLib\ParticleProperty.cpp
; File C:\Program Files (x86)\Microsoft Visual Studio\2019\Community\VC\Tools\MSVC\14.28.29333\include\vector
; File C:\Program Files (x86)\Microsoft Visual Studio\2019\Community\VC\Tools\MSVC\14.28.29333\include\xmemory
; File C:\Program Files (x86)\Microsoft Visual Studio\2019\Community\VC\Tools\MSVC\14.28.29333\include\vector
; File D:\Metin2 Server Files\mainline\SRC_2014\Metin2Client\EffectLib\ParticleProperty.cpp
;	COMDAT ??0CParticleProperty@@QAE@XZ
_TEXT	SEGMENT
_this$ = -88						; size = 4
_this$ = -84						; size = 4
_this$ = -80						; size = 4
_this$ = -76						; size = 4
_this$ = -72						; size = 4
_this$ = -68						; size = 4
_this$ = -64						; size = 4
_this$ = -60						; size = 4
_this$ = -56						; size = 4
_this$ = -52						; size = 4
_this$ = -48						; size = 4
_this$ = -44						; size = 4
_this$ = -40						; size = 4
_this$ = -36						; size = 4
_this$1 = -32						; size = 4
_this$2 = -28						; size = 4
_this$3 = -24						; size = 4
_this$4 = -20						; size = 4
_this$5 = -16						; size = 4
_this$6 = -12						; size = 4
_this$7 = -8						; size = 4
_this$ = -4						; size = 4
??0CParticleProperty@@QAE@XZ PROC			; CParticleProperty::CParticleProperty, COMDAT
; _this$ = ecx

; 74   : {

  00000	55		 push	 ebp
  00001	8b ec		 mov	 ebp, esp
  00003	83 ec 58	 sub	 esp, 88			; 00000058H
  00006	89 4d fc	 mov	 DWORD PTR _this$[ebp], ecx
  00009	8b 45 fc	 mov	 eax, DWORD PTR _this$[ebp]
  0000c	c7 00 00 00 00
	00		 mov	 DWORD PTR [eax], OFFSET ??_7CParticleProperty@@6B@
  00012	8b 45 fc	 mov	 eax, DWORD PTR _this$[ebp]
  00015	83 c0 28	 add	 eax, 40			; 00000028H
  00018	89 45 dc	 mov	 DWORD PTR _this$[ebp], eax
; File C:\Program Files (x86)\Microsoft Visual Studio\2019\Community\VC\Tools\MSVC\14.28.29333\include\vector

; 445  :     vector() noexcept(is_nothrow_default_constructible_v<_Alty>) : _Mypair(_Zero_then_variadic_args_t{}) {

  0001b	8b 45 dc	 mov	 eax, DWORD PTR _this$[ebp]
  0001e	89 45 d8	 mov	 DWORD PTR _this$[ebp], eax
; File C:\Program Files (x86)\Microsoft Visual Studio\2019\Community\VC\Tools\MSVC\14.28.29333\include\xmemory

; 1339 :         : _Ty1(), _Myval2(_STD forward<_Other2>(_Val2)...) {}

  00021	8b 45 d8	 mov	 eax, DWORD PTR _this$[ebp]
  00024	89 45 f8	 mov	 DWORD PTR _this$7[ebp], eax
; File C:\Program Files (x86)\Microsoft Visual Studio\2019\Community\VC\Tools\MSVC\14.28.29333\include\vector

; 375  :     _Vector_val() noexcept : _Myfirst(), _Mylast(), _Myend() {}

  00027	8b 45 f8	 mov	 eax, DWORD PTR _this$7[ebp]
  0002a	83 20 00	 and	 DWORD PTR [eax], 0
  0002d	8b 45 f8	 mov	 eax, DWORD PTR _this$7[ebp]
  00030	83 60 04 00	 and	 DWORD PTR [eax+4], 0
  00034	8b 45 f8	 mov	 eax, DWORD PTR _this$7[ebp]
  00037	83 60 08 00	 and	 DWORD PTR [eax+8], 0
; File D:\Metin2 Server Files\mainline\SRC_2014\Metin2Client\EffectLib\ParticleProperty.cpp

; 74   : {

  0003b	8b 45 fc	 mov	 eax, DWORD PTR _this$[ebp]
  0003e	83 c0 34	 add	 eax, 52			; 00000034H
  00041	89 45 d4	 mov	 DWORD PTR _this$[ebp], eax
; File C:\Program Files (x86)\Microsoft Visual Studio\2019\Community\VC\Tools\MSVC\14.28.29333\include\vector

; 445  :     vector() noexcept(is_nothrow_default_constructible_v<_Alty>) : _Mypair(_Zero_then_variadic_args_t{}) {

  00044	8b 45 d4	 mov	 eax, DWORD PTR _this$[ebp]
  00047	89 45 d0	 mov	 DWORD PTR _this$[ebp], eax
; File C:\Program Files (x86)\Microsoft Visual Studio\2019\Community\VC\Tools\MSVC\14.28.29333\include\xmemory

; 1339 :         : _Ty1(), _Myval2(_STD forward<_Other2>(_Val2)...) {}

  0004a	8b 45 d0	 mov	 eax, DWORD PTR _this$[ebp]
  0004d	89 45 f4	 mov	 DWORD PTR _this$6[ebp], eax
; File C:\Program Files (x86)\Microsoft Visual Studio\2019\Community\VC\Tools\MSVC\14.28.29333\include\vector

; 375  :     _Vector_val() noexcept : _Myfirst(), _Mylast(), _Myend() {}

  00050	8b 45 f4	 mov	 eax, DWORD PTR _this$6[ebp]
  00053	83 20 00	 and	 DWORD PTR [eax], 0
  00056	8b 45 f4	 mov	 eax, DWORD PTR _this$6[ebp]
  00059	83 60 04 00	 and	 DWORD PTR [eax+4], 0
  0005d	8b 45 f4	 mov	 eax, DWORD PTR _this$6[ebp]
  00060	83 60 08 00	 and	 DWORD PTR [eax+8], 0
; File D:\Metin2 Server Files\mainline\SRC_2014\Metin2Client\EffectLib\ParticleProperty.cpp

; 74   : {

  00064	8b 45 fc	 mov	 eax, DWORD PTR _this$[ebp]
  00067	83 c0 40	 add	 eax, 64			; 00000040H
  0006a	89 45 cc	 mov	 DWORD PTR _this$[ebp], eax
; File C:\Program Files (x86)\Microsoft Visual Studio\2019\Community\VC\Tools\MSVC\14.28.29333\include\vector

; 445  :     vector() noexcept(is_nothrow_default_constructible_v<_Alty>) : _Mypair(_Zero_then_variadic_args_t{}) {

  0006d	8b 45 cc	 mov	 eax, DWORD PTR _this$[ebp]
  00070	89 45 c8	 mov	 DWORD PTR _this$[ebp], eax
; File C:\Program Files (x86)\Microsoft Visual Studio\2019\Community\VC\Tools\MSVC\14.28.29333\include\xmemory

; 1339 :         : _Ty1(), _Myval2(_STD forward<_Other2>(_Val2)...) {}

  00073	8b 45 c8	 mov	 eax, DWORD PTR _this$[ebp]
  00076	89 45 f0	 mov	 DWORD PTR _this$5[ebp], eax
; File C:\Program Files (x86)\Microsoft Visual Studio\2019\Community\VC\Tools\MSVC\14.28.29333\include\vector

; 375  :     _Vector_val() noexcept : _Myfirst(), _Mylast(), _Myend() {}

  00079	8b 45 f0	 mov	 eax, DWORD PTR _this$5[ebp]
  0007c	83 20 00	 and	 DWORD PTR [eax], 0
  0007f	8b 45 f0	 mov	 eax, DWORD PTR _this$5[ebp]
  00082	83 60 04 00	 and	 DWORD PTR [eax+4], 0
  00086	8b 45 f0	 mov	 eax, DWORD PTR _this$5[ebp]
  00089	83 60 08 00	 and	 DWORD PTR [eax+8], 0
; File D:\Metin2 Server Files\mainline\SRC_2014\Metin2Client\EffectLib\ParticleProperty.cpp

; 74   : {

  0008d	8b 45 fc	 mov	 eax, DWORD PTR _this$[ebp]
  00090	83 c0 4c	 add	 eax, 76			; 0000004cH
  00093	89 45 c4	 mov	 DWORD PTR _this$[ebp], eax
; File C:\Program Files (x86)\Microsoft Visual Studio\2019\Community\VC\Tools\MSVC\14.28.29333\include\vector

; 445  :     vector() noexcept(is_nothrow_default_constructible_v<_Alty>) : _Mypair(_Zero_then_variadic_args_t{}) {

  00096	8b 45 c4	 mov	 eax, DWORD PTR _this$[ebp]
  00099	89 45 c0	 mov	 DWORD PTR _this$[ebp], eax
; File C:\Program Files (x86)\Microsoft Visual Studio\2019\Community\VC\Tools\MSVC\14.28.29333\include\xmemory

; 1339 :         : _Ty1(), _Myval2(_STD forward<_Other2>(_Val2)...) {}

  0009c	8b 45 c0	 mov	 eax, DWORD PTR _this$[ebp]
  0009f	89 45 ec	 mov	 DWORD PTR _this$4[ebp], eax
; File C:\Program Files (x86)\Microsoft Visual Studio\2019\Community\VC\Tools\MSVC\14.28.29333\include\vector

; 375  :     _Vector_val() noexcept : _Myfirst(), _Mylast(), _Myend() {}

  000a2	8b 45 ec	 mov	 eax, DWORD PTR _this$4[ebp]
  000a5	83 20 00	 and	 DWORD PTR [eax], 0
  000a8	8b 45 ec	 mov	 eax, DWORD PTR _this$4[ebp]
  000ab	83 60 04 00	 and	 DWORD PTR [eax+4], 0
  000af	8b 45 ec	 mov	 eax, DWORD PTR _this$4[ebp]
  000b2	83 60 08 00	 and	 DWORD PTR [eax+8], 0
; File D:\Metin2 Server Files\mainline\SRC_2014\Metin2Client\EffectLib\ParticleProperty.cpp

; 74   : {

  000b6	8b 45 fc	 mov	 eax, DWORD PTR _this$[ebp]
  000b9	83 c0 58	 add	 eax, 88			; 00000058H
  000bc	89 45 bc	 mov	 DWORD PTR _this$[ebp], eax
; File C:\Program Files (x86)\Microsoft Visual Studio\2019\Community\VC\Tools\MSVC\14.28.29333\include\vector

; 445  :     vector() noexcept(is_nothrow_default_constructible_v<_Alty>) : _Mypair(_Zero_then_variadic_args_t{}) {

  000bf	8b 45 bc	 mov	 eax, DWORD PTR _this$[ebp]
  000c2	89 45 b8	 mov	 DWORD PTR _this$[ebp], eax
; File C:\Program Files (x86)\Microsoft Visual Studio\2019\Community\VC\Tools\MSVC\14.28.29333\include\xmemory

; 1339 :         : _Ty1(), _Myval2(_STD forward<_Other2>(_Val2)...) {}

  000c5	8b 45 b8	 mov	 eax, DWORD PTR _this$[ebp]
  000c8	89 45 e8	 mov	 DWORD PTR _this$3[ebp], eax
; File C:\Program Files (x86)\Microsoft Visual Studio\2019\Community\VC\Tools\MSVC\14.28.29333\include\vector

; 375  :     _Vector_val() noexcept : _Myfirst(), _Mylast(), _Myend() {}

  000cb	8b 45 e8	 mov	 eax, DWORD PTR _this$3[ebp]
  000ce	83 20 00	 and	 DWORD PTR [eax], 0
  000d1	8b 45 e8	 mov	 eax, DWORD PTR _this$3[ebp]
  000d4	83 60 04 00	 and	 DWORD PTR [eax+4], 0
  000d8	8b 45 e8	 mov	 eax, DWORD PTR _this$3[ebp]
  000db	83 60 08 00	 and	 DWORD PTR [eax+8], 0
; File D:\Metin2 Server Files\mainline\SRC_2014\Metin2Client\EffectLib\ParticleProperty.cpp

; 74   : {

  000df	8b 45 fc	 mov	 eax, DWORD PTR _this$[ebp]
  000e2	83 c0 64	 add	 eax, 100		; 00000064H
  000e5	89 45 b4	 mov	 DWORD PTR _this$[ebp], eax
; File C:\Program Files (x86)\Microsoft Visual Studio\2019\Community\VC\Tools\MSVC\14.28.29333\include\vector

; 445  :     vector() noexcept(is_nothrow_default_constructible_v<_Alty>) : _Mypair(_Zero_then_variadic_args_t{}) {

  000e8	8b 45 b4	 mov	 eax, DWORD PTR _this$[ebp]
  000eb	89 45 b0	 mov	 DWORD PTR _this$[ebp], eax
; File C:\Program Files (x86)\Microsoft Visual Studio\2019\Community\VC\Tools\MSVC\14.28.29333\include\xmemory

; 1339 :         : _Ty1(), _Myval2(_STD forward<_Other2>(_Val2)...) {}

  000ee	8b 45 b0	 mov	 eax, DWORD PTR _this$[ebp]
  000f1	89 45 e4	 mov	 DWORD PTR _this$2[ebp], eax
; File C:\Program Files (x86)\Microsoft Visual Studio\2019\Community\VC\Tools\MSVC\14.28.29333\include\vector

; 375  :     _Vector_val() noexcept : _Myfirst(), _Mylast(), _Myend() {}

  000f4	8b 45 e4	 mov	 eax, DWORD PTR _this$2[ebp]
  000f7	83 20 00	 and	 DWORD PTR [eax], 0
  000fa	8b 45 e4	 mov	 eax, DWORD PTR _this$2[ebp]
  000fd	83 60 04 00	 and	 DWORD PTR [eax+4], 0
  00101	8b 45 e4	 mov	 eax, DWORD PTR _this$2[ebp]
  00104	83 60 08 00	 and	 DWORD PTR [eax+8], 0
; File D:\Metin2 Server Files\mainline\SRC_2014\Metin2Client\EffectLib\ParticleProperty.cpp

; 74   : {

  00108	8b 45 fc	 mov	 eax, DWORD PTR _this$[ebp]
  0010b	83 c0 70	 add	 eax, 112		; 00000070H
  0010e	89 45 ac	 mov	 DWORD PTR _this$[ebp], eax
; File C:\Program Files (x86)\Microsoft Visual Studio\2019\Community\VC\Tools\MSVC\14.28.29333\include\vector

; 445  :     vector() noexcept(is_nothrow_default_constructible_v<_Alty>) : _Mypair(_Zero_then_variadic_args_t{}) {

  00111	8b 45 ac	 mov	 eax, DWORD PTR _this$[ebp]
  00114	89 45 a8	 mov	 DWORD PTR _this$[ebp], eax
; File C:\Program Files (x86)\Microsoft Visual Studio\2019\Community\VC\Tools\MSVC\14.28.29333\include\xmemory

; 1339 :         : _Ty1(), _Myval2(_STD forward<_Other2>(_Val2)...) {}

  00117	8b 45 a8	 mov	 eax, DWORD PTR _this$[ebp]
  0011a	89 45 e0	 mov	 DWORD PTR _this$1[ebp], eax
; File C:\Program Files (x86)\Microsoft Visual Studio\2019\Community\VC\Tools\MSVC\14.28.29333\include\vector

; 375  :     _Vector_val() noexcept : _Myfirst(), _Mylast(), _Myend() {}

  0011d	8b 45 e0	 mov	 eax, DWORD PTR _this$1[ebp]
  00120	83 20 00	 and	 DWORD PTR [eax], 0
  00123	8b 45 e0	 mov	 eax, DWORD PTR _this$1[ebp]
  00126	83 60 04 00	 and	 DWORD PTR [eax+4], 0
  0012a	8b 45 e0	 mov	 eax, DWORD PTR _this$1[ebp]
  0012d	83 60 08 00	 and	 DWORD PTR [eax+8], 0
; File D:\Metin2 Server Files\mainline\SRC_2014\Metin2Client\EffectLib\ParticleProperty.cpp

; 75   : }

  00131	8b 45 fc	 mov	 eax, DWORD PTR _this$[ebp]
  00134	c9		 leave
  00135	c3		 ret	 0
??0CParticleProperty@@QAE@XZ ENDP			; CParticleProperty::CParticleProperty
_TEXT	ENDS
; Function compile flags: /Odspy
; File C:\Program Files (x86)\Microsoft Visual Studio\2019\Community\VC\Tools\MSVC\14.28.29333\include\xmemory
;	COMDAT ??$_Allocate_manually_vector_aligned@U_Default_allocate_traits@std@@@std@@YAPAXI@Z
_TEXT	SEGMENT
__Ptr$ = -12						; size = 4
__Block_size$ = -8					; size = 4
__Ptr_container$ = -4					; size = 4
__Bytes$ = 8						; size = 4
??$_Allocate_manually_vector_aligned@U_Default_allocate_traits@std@@@std@@YAPAXI@Z PROC ; std::_Allocate_manually_vector_aligned<std::_Default_allocate_traits>, COMDAT

; 113  : __declspec(allocator) void* _Allocate_manually_vector_aligned(const size_t _Bytes) {

  00000	55		 push	 ebp
  00001	8b ec		 mov	 ebp, esp
  00003	83 ec 0c	 sub	 esp, 12			; 0000000cH

; 114  :     // allocate _Bytes manually aligned to at least _Big_allocation_alignment
; 115  :     const size_t _Block_size = _Non_user_size + _Bytes;

  00006	8b 45 08	 mov	 eax, DWORD PTR __Bytes$[ebp]
  00009	83 c0 23	 add	 eax, 35			; 00000023H
  0000c	89 45 f8	 mov	 DWORD PTR __Block_size$[ebp], eax

; 116  :     if (_Block_size <= _Bytes) {

  0000f	8b 45 f8	 mov	 eax, DWORD PTR __Block_size$[ebp]
  00012	3b 45 08	 cmp	 eax, DWORD PTR __Bytes$[ebp]
  00015	77 05		 ja	 SHORT $LN12@Allocate_m

; 117  :         _Throw_bad_array_new_length(); // add overflow

  00017	e8 00 00 00 00	 call	 ?_Throw_bad_array_new_length@std@@YAXXZ ; std::_Throw_bad_array_new_length
$LN12@Allocate_m:

; 77   :         return ::operator new(_Bytes);

  0001c	ff 75 f8	 push	 DWORD PTR __Block_size$[ebp]
  0001f	e8 00 00 00 00	 call	 ??2@YAPAXI@Z		; operator new
  00024	59		 pop	 ecx

; 118  :     }
; 119  : 
; 120  :     const uintptr_t _Ptr_container = reinterpret_cast<uintptr_t>(_Traits::_Allocate(_Block_size));

  00025	89 45 fc	 mov	 DWORD PTR __Ptr_container$[ebp], eax
$LN4@Allocate_m:

; 121  :     _STL_VERIFY(_Ptr_container != 0, "invalid argument"); // validate even in release since we're doing p[-1]

  00028	83 7d fc 00	 cmp	 DWORD PTR __Ptr_container$[ebp], 0
  0002c	74 02		 je	 SHORT $LN7@Allocate_m
  0002e	eb 09		 jmp	 SHORT $LN2@Allocate_m
$LN7@Allocate_m:
  00030	e8 00 00 00 00	 call	 __invalid_parameter_noinfo_noreturn
  00035	33 c0		 xor	 eax, eax
  00037	75 f7		 jne	 SHORT $LN7@Allocate_m
$LN2@Allocate_m:
  00039	33 c0		 xor	 eax, eax
  0003b	75 eb		 jne	 SHORT $LN4@Allocate_m

; 122  :     void* const _Ptr = reinterpret_cast<void*>((_Ptr_container + _Non_user_size) & ~(_Big_allocation_alignment - 1));

  0003d	8b 45 fc	 mov	 eax, DWORD PTR __Ptr_container$[ebp]
  00040	83 c0 23	 add	 eax, 35			; 00000023H
  00043	83 e0 e0	 and	 eax, -32		; ffffffe0H
  00046	89 45 f4	 mov	 DWORD PTR __Ptr$[ebp], eax

; 123  :     static_cast<uintptr_t*>(_Ptr)[-1] = _Ptr_container;

  00049	6a 04		 push	 4
  0004b	58		 pop	 eax
  0004c	6b c0 ff	 imul	 eax, eax, -1
  0004f	8b 4d f4	 mov	 ecx, DWORD PTR __Ptr$[ebp]
  00052	8b 55 fc	 mov	 edx, DWORD PTR __Ptr_container$[ebp]
  00055	89 14 01	 mov	 DWORD PTR [ecx+eax], edx

; 124  : 
; 125  : #ifdef _DEBUG
; 126  :     static_cast<uintptr_t*>(_Ptr)[-2] = _Big_allocation_sentinel;
; 127  : #endif // _DEBUG
; 128  :     return _Ptr;

  00058	8b 45 f4	 mov	 eax, DWORD PTR __Ptr$[ebp]
$LN11@Allocate_m:

; 129  : }

  0005b	c9		 leave
  0005c	c3		 ret	 0
??$_Allocate_manually_vector_aligned@U_Default_allocate_traits@std@@@std@@YAPAXI@Z ENDP ; std::_Allocate_manually_vector_aligned<std::_Default_allocate_traits>
_TEXT	ENDS
; Function compile flags: /Odspy
; File C:\Program Files (x86)\Microsoft Visual Studio\2019\Community\VC\Tools\MSVC\14.28.29333\include\xmemory
;	COMDAT ??$_Allocate@$07U_Default_allocate_traits@std@@$0A@@std@@YAPAXI@Z
_TEXT	SEGMENT
__Bytes$ = 8						; size = 4
??$_Allocate@$07U_Default_allocate_traits@std@@$0A@@std@@YAPAXI@Z PROC ; std::_Allocate<8,std::_Default_allocate_traits,0>, COMDAT

; 197  : __declspec(allocator) void* _Allocate(const size_t _Bytes) {

  00000	55		 push	 ebp
  00001	8b ec		 mov	 ebp, esp

; 198  :     // allocate _Bytes when !_HAS_ALIGNED_NEW || _Align <= __STDCPP_DEFAULT_NEW_ALIGNMENT__
; 199  : #if defined(_M_IX86) || defined(_M_X64)
; 200  :     if (_Bytes >= _Big_allocation_threshold) { // boost the alignment of big allocations to help autovectorization

  00003	81 7d 08 00 10
	00 00		 cmp	 DWORD PTR __Bytes$[ebp], 4096 ; 00001000H
  0000a	72 0b		 jb	 SHORT $LN2@Allocate

; 201  :         return _Allocate_manually_vector_aligned<_Traits>(_Bytes);

  0000c	ff 75 08	 push	 DWORD PTR __Bytes$[ebp]
  0000f	e8 00 00 00 00	 call	 ??$_Allocate_manually_vector_aligned@U_Default_allocate_traits@std@@@std@@YAPAXI@Z ; std::_Allocate_manually_vector_aligned<std::_Default_allocate_traits>
  00014	59		 pop	 ecx
  00015	eb 13		 jmp	 SHORT $LN1@Allocate
$LN2@Allocate:

; 202  :     }
; 203  : #endif // defined(_M_IX86) || defined(_M_X64)
; 204  : 
; 205  :     if (_Bytes != 0) {

  00017	83 7d 08 00	 cmp	 DWORD PTR __Bytes$[ebp], 0
  0001b	74 0b		 je	 SHORT $LN3@Allocate

; 77   :         return ::operator new(_Bytes);

  0001d	ff 75 08	 push	 DWORD PTR __Bytes$[ebp]
  00020	e8 00 00 00 00	 call	 ??2@YAPAXI@Z		; operator new
  00025	59		 pop	 ecx

; 206  :         return _Traits::_Allocate(_Bytes);

  00026	eb 02		 jmp	 SHORT $LN1@Allocate
$LN3@Allocate:

; 207  :     }
; 208  : 
; 209  :     return nullptr;

  00028	33 c0		 xor	 eax, eax
$LN1@Allocate:

; 210  : }

  0002a	5d		 pop	 ebp
  0002b	c3		 ret	 0
??$_Allocate@$07U_Default_allocate_traits@std@@$0A@@std@@YAPAXI@Z ENDP ; std::_Allocate<8,std::_Default_allocate_traits,0>
_TEXT	ENDS
; Function compile flags: /Odspy
; File C:\Program Files (x86)\Microsoft Visual Studio\2019\Community\VC\Tools\MSVC\14.28.29333\include\xmemory
;	COMDAT ??$_Deallocate@$07$0A@@std@@YAXPAXI@Z
_TEXT	SEGMENT
__$EHRec$ = -12						; size = 12
__Ptr$ = 8						; size = 4
__Bytes$ = 12						; size = 4
??$_Deallocate@$07$0A@@std@@YAXPAXI@Z PROC		; std::_Deallocate<8,0>, COMDAT

; 213  : void _Deallocate(void* _Ptr, size_t _Bytes) noexcept {

  00000	55		 push	 ebp
  00001	8b ec		 mov	 ebp, esp
  00003	6a ff		 push	 -1
  00005	68 00 00 00 00	 push	 __ehhandler$??$_Deallocate@$07$0A@@std@@YAXPAXI@Z
  0000a	64 a1 00 00 00
	00		 mov	 eax, DWORD PTR fs:0
  00010	50		 push	 eax
  00011	a1 00 00 00 00	 mov	 eax, DWORD PTR ___security_cookie
  00016	33 c5		 xor	 eax, ebp
  00018	50		 push	 eax
  00019	8d 45 f4	 lea	 eax, DWORD PTR __$EHRec$[ebp]
  0001c	64 a3 00 00 00
	00		 mov	 DWORD PTR fs:0, eax

; 214  :     // deallocate storage allocated by _Allocate when !_HAS_ALIGNED_NEW || _Align <= __STDCPP_DEFAULT_NEW_ALIGNMENT__
; 215  : #if defined(_M_IX86) || defined(_M_X64)
; 216  :     if (_Bytes >= _Big_allocation_threshold) { // boost the alignment of big allocations to help autovectorization

  00022	81 7d 0c 00 10
	00 00		 cmp	 DWORD PTR __Bytes$[ebp], 4096 ; 00001000H
  00029	72 0f		 jb	 SHORT $LN2@Deallocate

; 217  :         _Adjust_manually_vector_aligned(_Ptr, _Bytes);

  0002b	8d 45 0c	 lea	 eax, DWORD PTR __Bytes$[ebp]
  0002e	50		 push	 eax
  0002f	8d 45 08	 lea	 eax, DWORD PTR __Ptr$[ebp]
  00032	50		 push	 eax
  00033	e8 00 00 00 00	 call	 ?_Adjust_manually_vector_aligned@std@@YAXAAPAXAAI@Z ; std::_Adjust_manually_vector_aligned
  00038	59		 pop	 ecx
  00039	59		 pop	 ecx
$LN2@Deallocate:

; 218  :     }
; 219  : #endif // defined(_M_IX86) || defined(_M_X64)
; 220  : 
; 221  :     ::operator delete(_Ptr, _Bytes);

  0003a	ff 75 0c	 push	 DWORD PTR __Bytes$[ebp]
  0003d	ff 75 08	 push	 DWORD PTR __Ptr$[ebp]
  00040	e8 00 00 00 00	 call	 ??3@YAXPAXI@Z		; operator delete
  00045	59		 pop	 ecx
  00046	59		 pop	 ecx

; 222  : }

  00047	8b 4d f4	 mov	 ecx, DWORD PTR __$EHRec$[ebp]
  0004a	64 89 0d 00 00
	00 00		 mov	 DWORD PTR fs:0, ecx
  00051	59		 pop	 ecx
  00052	c9		 leave
  00053	c3		 ret	 0
  00054	cc		 int	 3
  00055	cc		 int	 3
  00056	cc		 int	 3
  00057	cc		 int	 3
  00058	cc		 int	 3
_TEXT	ENDS
;	COMDAT text$x
text$x	SEGMENT
__ehhandler$??$_Deallocate@$07$0A@@std@@YAXPAXI@Z:
  00000	90		 npad	 1
  00001	90		 npad	 1
  00002	8b 54 24 08	 mov	 edx, DWORD PTR [esp+8]
  00006	8d 42 0c	 lea	 eax, DWORD PTR [edx+12]
  00009	8b 4a fc	 mov	 ecx, DWORD PTR [edx-4]
  0000c	33 c8		 xor	 ecx, eax
  0000e	e8 00 00 00 00	 call	 @__security_check_cookie@4
  00013	b8 00 00 00 00	 mov	 eax, OFFSET __ehfuncinfo$??$_Deallocate@$07$0A@@std@@YAXPAXI@Z
  00018	e9 00 00 00 00	 jmp	 ___CxxFrameHandler3
text$x	ENDS
??$_Deallocate@$07$0A@@std@@YAXPAXI@Z ENDP		; std::_Deallocate<8,0>
; Function compile flags: /Odspy
; File C:\Program Files (x86)\Microsoft Visual Studio\2019\Community\VC\Tools\MSVC\14.28.29333\include\xmemory
;	COMDAT ?_Adjust_manually_vector_aligned@std@@YAXAAPAXAAI@Z
_TEXT	SEGMENT
__Min_back_shift$ = -16					; size = 4
__Ptr_user$ = -12					; size = 4
__Ptr_container$ = -8					; size = 4
__Back_shift$ = -4					; size = 4
__Ptr$ = 8						; size = 4
__Bytes$ = 12						; size = 4
?_Adjust_manually_vector_aligned@std@@YAXAAPAXAAI@Z PROC ; std::_Adjust_manually_vector_aligned, COMDAT

; 132  : inline void _Adjust_manually_vector_aligned(void*& _Ptr, size_t& _Bytes) {

  00000	55		 push	 ebp
  00001	8b ec		 mov	 ebp, esp
  00003	83 ec 10	 sub	 esp, 16			; 00000010H

; 133  :     // adjust parameters from _Allocate_manually_vector_aligned to pass to operator delete
; 134  :     _Bytes += _Non_user_size;

  00006	8b 45 0c	 mov	 eax, DWORD PTR __Bytes$[ebp]
  00009	8b 00		 mov	 eax, DWORD PTR [eax]
  0000b	83 c0 23	 add	 eax, 35			; 00000023H
  0000e	8b 4d 0c	 mov	 ecx, DWORD PTR __Bytes$[ebp]
  00011	89 01		 mov	 DWORD PTR [ecx], eax

; 135  : 
; 136  :     const uintptr_t* const _Ptr_user = reinterpret_cast<uintptr_t*>(_Ptr);

  00013	8b 45 08	 mov	 eax, DWORD PTR __Ptr$[ebp]
  00016	8b 00		 mov	 eax, DWORD PTR [eax]
  00018	89 45 f4	 mov	 DWORD PTR __Ptr_user$[ebp], eax

; 137  :     const uintptr_t _Ptr_container   = _Ptr_user[-1];

  0001b	6a 04		 push	 4
  0001d	58		 pop	 eax
  0001e	6b c0 ff	 imul	 eax, eax, -1
  00021	8b 4d f4	 mov	 ecx, DWORD PTR __Ptr_user$[ebp]
  00024	8b 04 01	 mov	 eax, DWORD PTR [ecx+eax]
  00027	89 45 f8	 mov	 DWORD PTR __Ptr_container$[ebp], eax

; 138  : 
; 139  :     // If the following asserts, it likely means that we are performing
; 140  :     // an aligned delete on memory coming from an unaligned allocation.
; 141  :     _STL_ASSERT(_Ptr_user[-2] == _Big_allocation_sentinel, "invalid argument");
; 142  : 
; 143  :     // Extra paranoia on aligned allocation/deallocation; ensure _Ptr_container is
; 144  :     // in range [_Min_back_shift, _Non_user_size]
; 145  : #ifdef _DEBUG
; 146  :     constexpr uintptr_t _Min_back_shift = 2 * sizeof(void*);
; 147  : #else // ^^^ _DEBUG ^^^ // vvv !_DEBUG vvv
; 148  :     constexpr uintptr_t _Min_back_shift = sizeof(void*);

  0002a	c7 45 f0 04 00
	00 00		 mov	 DWORD PTR __Min_back_shift$[ebp], 4

; 149  : #endif // _DEBUG
; 150  :     const uintptr_t _Back_shift = reinterpret_cast<uintptr_t>(_Ptr) - _Ptr_container;

  00031	8b 45 08	 mov	 eax, DWORD PTR __Ptr$[ebp]
  00034	8b 00		 mov	 eax, DWORD PTR [eax]
  00036	2b 45 f8	 sub	 eax, DWORD PTR __Ptr_container$[ebp]
  00039	89 45 fc	 mov	 DWORD PTR __Back_shift$[ebp], eax
$LN4@Adjust_man:

; 151  :     _STL_VERIFY(_Back_shift >= _Min_back_shift && _Back_shift <= _Non_user_size, "invalid argument");

  0003c	83 7d fc 04	 cmp	 DWORD PTR __Back_shift$[ebp], 4
  00040	72 08		 jb	 SHORT $LN7@Adjust_man
  00042	83 7d fc 23	 cmp	 DWORD PTR __Back_shift$[ebp], 35 ; 00000023H
  00046	77 02		 ja	 SHORT $LN7@Adjust_man
  00048	eb 09		 jmp	 SHORT $LN2@Adjust_man
$LN7@Adjust_man:
  0004a	e8 00 00 00 00	 call	 __invalid_parameter_noinfo_noreturn
  0004f	33 c0		 xor	 eax, eax
  00051	75 f7		 jne	 SHORT $LN7@Adjust_man
$LN2@Adjust_man:
  00053	33 c0		 xor	 eax, eax
  00055	75 e5		 jne	 SHORT $LN4@Adjust_man

; 152  :     _Ptr = reinterpret_cast<void*>(_Ptr_container);

  00057	8b 45 08	 mov	 eax, DWORD PTR __Ptr$[ebp]
  0005a	8b 4d f8	 mov	 ecx, DWORD PTR __Ptr_container$[ebp]
  0005d	89 08		 mov	 DWORD PTR [eax], ecx
$LN10@Adjust_man:

; 153  : }

  0005f	c9		 leave
  00060	c3		 ret	 0
?_Adjust_manually_vector_aligned@std@@YAXAAPAXAAI@Z ENDP ; std::_Adjust_manually_vector_aligned
_TEXT	ENDS
; Function compile flags: /Odspy
; File C:\Program Files (x86)\Microsoft Visual Studio\2019\Community\VC\Tools\MSVC\14.28.29333\include\exception
;	COMDAT ?_Throw_bad_array_new_length@std@@YAXXZ
_TEXT	SEGMENT
$T1 = -12						; size = 12
?_Throw_bad_array_new_length@std@@YAXXZ PROC		; std::_Throw_bad_array_new_length, COMDAT

; 320  : [[noreturn]] inline void _Throw_bad_array_new_length() {

  00000	55		 push	 ebp
  00001	8b ec		 mov	 ebp, esp
  00003	83 ec 0c	 sub	 esp, 12			; 0000000cH

; 321  :     _THROW(bad_array_new_length{});

  00006	8d 4d f4	 lea	 ecx, DWORD PTR $T1[ebp]
  00009	e8 00 00 00 00	 call	 ??0bad_array_new_length@std@@QAE@XZ ; std::bad_array_new_length::bad_array_new_length
  0000e	68 00 00 00 00	 push	 OFFSET __TI3?AVbad_array_new_length@std@@
  00013	8d 45 f4	 lea	 eax, DWORD PTR $T1[ebp]
  00016	50		 push	 eax
  00017	e8 00 00 00 00	 call	 __CxxThrowException@8
$LN2@Throw_bad_:

; 322  : }

  0001c	c9		 leave
  0001d	c3		 ret	 0
?_Throw_bad_array_new_length@std@@YAXXZ ENDP		; std::_Throw_bad_array_new_length
_TEXT	ENDS
; Function compile flags: /Odspy
; File C:\Program Files (x86)\Microsoft Visual Studio\2019\Community\VC\Tools\MSVC\14.28.29333\include\vcruntime_exception.h
;	COMDAT ??_Gbad_array_new_length@std@@UAEPAXI@Z
_TEXT	SEGMENT
_this$ = -4						; size = 4
___flags$ = 8						; size = 4
??_Gbad_array_new_length@std@@UAEPAXI@Z PROC		; std::bad_array_new_length::`scalar deleting destructor', COMDAT
; _this$ = ecx
  00000	55		 push	 ebp
  00001	8b ec		 mov	 ebp, esp
  00003	51		 push	 ecx
  00004	89 4d fc	 mov	 DWORD PTR _this$[ebp], ecx

; 89   :     {

  00007	8b 45 fc	 mov	 eax, DWORD PTR _this$[ebp]
  0000a	c7 00 00 00 00
	00		 mov	 DWORD PTR [eax], OFFSET ??_7exception@std@@6B@

; 90   :         __std_exception_destroy(&_Data);

  00010	8b 45 fc	 mov	 eax, DWORD PTR _this$[ebp]
  00013	83 c0 04	 add	 eax, 4
  00016	50		 push	 eax
  00017	e8 00 00 00 00	 call	 ___std_exception_destroy
  0001c	59		 pop	 ecx
  0001d	8b 45 08	 mov	 eax, DWORD PTR ___flags$[ebp]
  00020	83 e0 01	 and	 eax, 1
  00023	74 0c		 je	 SHORT $LN2@scalar
  00025	6a 0c		 push	 12			; 0000000cH
  00027	ff 75 fc	 push	 DWORD PTR _this$[ebp]
  0002a	e8 00 00 00 00	 call	 ??3@YAXPAXI@Z		; operator delete
  0002f	59		 pop	 ecx
  00030	59		 pop	 ecx
$LN2@scalar:
  00031	8b 45 fc	 mov	 eax, DWORD PTR _this$[ebp]
  00034	c9		 leave
  00035	c2 04 00	 ret	 4
??_Gbad_array_new_length@std@@UAEPAXI@Z ENDP		; std::bad_array_new_length::`scalar deleting destructor'
_TEXT	ENDS
; Function compile flags: /Odspy
;	COMDAT ??0bad_array_new_length@std@@QAE@ABV01@@Z
_TEXT	SEGMENT
_this$ = -4						; size = 4
___that$ = 8						; size = 4
??0bad_array_new_length@std@@QAE@ABV01@@Z PROC		; std::bad_array_new_length::bad_array_new_length, COMDAT
; _this$ = ecx
  00000	55		 push	 ebp
  00001	8b ec		 mov	 ebp, esp
  00003	51		 push	 ecx
  00004	89 4d fc	 mov	 DWORD PTR _this$[ebp], ecx
  00007	ff 75 08	 push	 DWORD PTR ___that$[ebp]
  0000a	8b 4d fc	 mov	 ecx, DWORD PTR _this$[ebp]
  0000d	e8 00 00 00 00	 call	 ??0exception@std@@QAE@ABV01@@Z ; std::exception::exception
  00012	8b 45 fc	 mov	 eax, DWORD PTR _this$[ebp]
  00015	c7 00 00 00 00
	00		 mov	 DWORD PTR [eax], OFFSET ??_7bad_alloc@std@@6B@
  0001b	8b 45 fc	 mov	 eax, DWORD PTR _this$[ebp]
  0001e	c7 00 00 00 00
	00		 mov	 DWORD PTR [eax], OFFSET ??_7bad_array_new_length@std@@6B@
  00024	8b 45 fc	 mov	 eax, DWORD PTR _this$[ebp]
  00027	c9		 leave
  00028	c2 04 00	 ret	 4
??0bad_array_new_length@std@@QAE@ABV01@@Z ENDP		; std::bad_array_new_length::bad_array_new_length
_TEXT	ENDS
; Function compile flags: /Odspy
; File C:\Program Files (x86)\Microsoft Visual Studio\2019\Community\VC\Tools\MSVC\14.28.29333\include\vcruntime_exception.h
;	COMDAT ??1bad_array_new_length@std@@UAE@XZ
_TEXT	SEGMENT
_this$ = -4						; size = 4
??1bad_array_new_length@std@@UAE@XZ PROC		; std::bad_array_new_length::~bad_array_new_length, COMDAT
; _this$ = ecx
  00000	55		 push	 ebp
  00001	8b ec		 mov	 ebp, esp
  00003	51		 push	 ecx
  00004	89 4d fc	 mov	 DWORD PTR _this$[ebp], ecx

; 89   :     {

  00007	8b 45 fc	 mov	 eax, DWORD PTR _this$[ebp]
  0000a	c7 00 00 00 00
	00		 mov	 DWORD PTR [eax], OFFSET ??_7exception@std@@6B@

; 90   :         __std_exception_destroy(&_Data);

  00010	8b 45 fc	 mov	 eax, DWORD PTR _this$[ebp]
  00013	83 c0 04	 add	 eax, 4
  00016	50		 push	 eax
  00017	e8 00 00 00 00	 call	 ___std_exception_destroy
  0001c	59		 pop	 ecx
  0001d	c9		 leave
  0001e	c3		 ret	 0
??1bad_array_new_length@std@@UAE@XZ ENDP		; std::bad_array_new_length::~bad_array_new_length
_TEXT	ENDS
; Function compile flags: /Odspy
; File C:\Program Files (x86)\Microsoft Visual Studio\2019\Community\VC\Tools\MSVC\14.28.29333\include\vcruntime_exception.h
;	COMDAT ??0bad_array_new_length@std@@QAE@XZ
_TEXT	SEGMENT
_this$ = -4						; size = 4
??0bad_array_new_length@std@@QAE@XZ PROC		; std::bad_array_new_length::bad_array_new_length, COMDAT
; _this$ = ecx

; 141  :     {

  00000	55		 push	 ebp
  00001	8b ec		 mov	 ebp, esp
  00003	51		 push	 ecx
  00004	89 4d fc	 mov	 DWORD PTR _this$[ebp], ecx

; 66   :     {

  00007	8b 45 fc	 mov	 eax, DWORD PTR _this$[ebp]
  0000a	c7 00 00 00 00
	00		 mov	 DWORD PTR [eax], OFFSET ??_7exception@std@@6B@

; 65   :         : _Data()

  00010	33 c0		 xor	 eax, eax
  00012	8b 4d fc	 mov	 ecx, DWORD PTR _this$[ebp]
  00015	83 c1 04	 add	 ecx, 4
  00018	89 01		 mov	 DWORD PTR [ecx], eax
  0001a	89 41 04	 mov	 DWORD PTR [ecx+4], eax

; 67   :         _Data._What = _Message;

  0001d	8b 45 fc	 mov	 eax, DWORD PTR _this$[ebp]
  00020	c7 40 04 00 00
	00 00		 mov	 DWORD PTR [eax+4], OFFSET ??_C@_0BF@KINCDENJ@bad?5array?5new?5length@

; 130  :     {

  00027	8b 45 fc	 mov	 eax, DWORD PTR _this$[ebp]
  0002a	c7 00 00 00 00
	00		 mov	 DWORD PTR [eax], OFFSET ??_7bad_alloc@std@@6B@

; 141  :     {

  00030	8b 45 fc	 mov	 eax, DWORD PTR _this$[ebp]
  00033	c7 00 00 00 00
	00		 mov	 DWORD PTR [eax], OFFSET ??_7bad_array_new_length@std@@6B@

; 142  :     }

  00039	8b 45 fc	 mov	 eax, DWORD PTR _this$[ebp]
  0003c	c9		 leave
  0003d	c3		 ret	 0
??0bad_array_new_length@std@@QAE@XZ ENDP		; std::bad_array_new_length::bad_array_new_length
_TEXT	ENDS
; Function compile flags: /Odspy
; File C:\Program Files (x86)\Microsoft Visual Studio\2019\Community\VC\Tools\MSVC\14.28.29333\include\vcruntime_exception.h
;	COMDAT ??_Gbad_alloc@std@@UAEPAXI@Z
_TEXT	SEGMENT
_this$ = -4						; size = 4
___flags$ = 8						; size = 4
??_Gbad_alloc@std@@UAEPAXI@Z PROC			; std::bad_alloc::`scalar deleting destructor', COMDAT
; _this$ = ecx
  00000	55		 push	 ebp
  00001	8b ec		 mov	 ebp, esp
  00003	51		 push	 ecx
  00004	89 4d fc	 mov	 DWORD PTR _this$[ebp], ecx

; 89   :     {

  00007	8b 45 fc	 mov	 eax, DWORD PTR _this$[ebp]
  0000a	c7 00 00 00 00
	00		 mov	 DWORD PTR [eax], OFFSET ??_7exception@std@@6B@

; 90   :         __std_exception_destroy(&_Data);

  00010	8b 45 fc	 mov	 eax, DWORD PTR _this$[ebp]
  00013	83 c0 04	 add	 eax, 4
  00016	50		 push	 eax
  00017	e8 00 00 00 00	 call	 ___std_exception_destroy
  0001c	59		 pop	 ecx
  0001d	8b 45 08	 mov	 eax, DWORD PTR ___flags$[ebp]
  00020	83 e0 01	 and	 eax, 1
  00023	74 0c		 je	 SHORT $LN2@scalar
  00025	6a 0c		 push	 12			; 0000000cH
  00027	ff 75 fc	 push	 DWORD PTR _this$[ebp]
  0002a	e8 00 00 00 00	 call	 ??3@YAXPAXI@Z		; operator delete
  0002f	59		 pop	 ecx
  00030	59		 pop	 ecx
$LN2@scalar:
  00031	8b 45 fc	 mov	 eax, DWORD PTR _this$[ebp]
  00034	c9		 leave
  00035	c2 04 00	 ret	 4
??_Gbad_alloc@std@@UAEPAXI@Z ENDP			; std::bad_alloc::`scalar deleting destructor'
_TEXT	ENDS
; Function compile flags: /Odspy
;	COMDAT ??0bad_alloc@std@@QAE@ABV01@@Z
_TEXT	SEGMENT
_this$ = -4						; size = 4
___that$ = 8						; size = 4
??0bad_alloc@std@@QAE@ABV01@@Z PROC			; std::bad_alloc::bad_alloc, COMDAT
; _this$ = ecx
  00000	55		 push	 ebp
  00001	8b ec		 mov	 ebp, esp
  00003	51		 push	 ecx
  00004	89 4d fc	 mov	 DWORD PTR _this$[ebp], ecx
  00007	ff 75 08	 push	 DWORD PTR ___that$[ebp]
  0000a	8b 4d fc	 mov	 ecx, DWORD PTR _this$[ebp]
  0000d	e8 00 00 00 00	 call	 ??0exception@std@@QAE@ABV01@@Z ; std::exception::exception
  00012	8b 45 fc	 mov	 eax, DWORD PTR _this$[ebp]
  00015	c7 00 00 00 00
	00		 mov	 DWORD PTR [eax], OFFSET ??_7bad_alloc@std@@6B@
  0001b	8b 45 fc	 mov	 eax, DWORD PTR _this$[ebp]
  0001e	c9		 leave
  0001f	c2 04 00	 ret	 4
??0bad_alloc@std@@QAE@ABV01@@Z ENDP			; std::bad_alloc::bad_alloc
_TEXT	ENDS
; Function compile flags: /Odspy
; File C:\Program Files (x86)\Microsoft Visual Studio\2019\Community\VC\Tools\MSVC\14.28.29333\include\vcruntime_exception.h
;	COMDAT ??_Gexception@std@@UAEPAXI@Z
_TEXT	SEGMENT
_this$ = -4						; size = 4
___flags$ = 8						; size = 4
??_Gexception@std@@UAEPAXI@Z PROC			; std::exception::`scalar deleting destructor', COMDAT
; _this$ = ecx
  00000	55		 push	 ebp
  00001	8b ec		 mov	 ebp, esp
  00003	51		 push	 ecx
  00004	89 4d fc	 mov	 DWORD PTR _this$[ebp], ecx

; 89   :     {

  00007	8b 45 fc	 mov	 eax, DWORD PTR _this$[ebp]
  0000a	c7 00 00 00 00
	00		 mov	 DWORD PTR [eax], OFFSET ??_7exception@std@@6B@

; 90   :         __std_exception_destroy(&_Data);

  00010	8b 45 fc	 mov	 eax, DWORD PTR _this$[ebp]
  00013	83 c0 04	 add	 eax, 4
  00016	50		 push	 eax
  00017	e8 00 00 00 00	 call	 ___std_exception_destroy
  0001c	59		 pop	 ecx
  0001d	8b 45 08	 mov	 eax, DWORD PTR ___flags$[ebp]
  00020	83 e0 01	 and	 eax, 1
  00023	74 0c		 je	 SHORT $LN2@scalar
  00025	6a 0c		 push	 12			; 0000000cH
  00027	ff 75 fc	 push	 DWORD PTR _this$[ebp]
  0002a	e8 00 00 00 00	 call	 ??3@YAXPAXI@Z		; operator delete
  0002f	59		 pop	 ecx
  00030	59		 pop	 ecx
$LN2@scalar:
  00031	8b 45 fc	 mov	 eax, DWORD PTR _this$[ebp]
  00034	c9		 leave
  00035	c2 04 00	 ret	 4
??_Gexception@std@@UAEPAXI@Z ENDP			; std::exception::`scalar deleting destructor'
_TEXT	ENDS
; Function compile flags: /Odspy
; File C:\Program Files (x86)\Microsoft Visual Studio\2019\Community\VC\Tools\MSVC\14.28.29333\include\vcruntime_exception.h
;	COMDAT ?what@exception@std@@UBEPBDXZ
_TEXT	SEGMENT
tv69 = -8						; size = 4
_this$ = -4						; size = 4
?what@exception@std@@UBEPBDXZ PROC			; std::exception::what, COMDAT
; _this$ = ecx

; 94   :     {

  00000	55		 push	 ebp
  00001	8b ec		 mov	 ebp, esp
  00003	51		 push	 ecx
  00004	51		 push	 ecx
  00005	89 4d fc	 mov	 DWORD PTR _this$[ebp], ecx

; 95   :         return _Data._What ? _Data._What : "Unknown exception";

  00008	8b 45 fc	 mov	 eax, DWORD PTR _this$[ebp]
  0000b	83 78 04 00	 cmp	 DWORD PTR [eax+4], 0
  0000f	74 0b		 je	 SHORT $LN3@what
  00011	8b 45 fc	 mov	 eax, DWORD PTR _this$[ebp]
  00014	8b 40 04	 mov	 eax, DWORD PTR [eax+4]
  00017	89 45 f8	 mov	 DWORD PTR tv69[ebp], eax
  0001a	eb 07		 jmp	 SHORT $LN4@what
$LN3@what:
  0001c	c7 45 f8 00 00
	00 00		 mov	 DWORD PTR tv69[ebp], OFFSET ??_C@_0BC@EOODALEL@Unknown?5exception@
$LN4@what:
  00023	8b 45 f8	 mov	 eax, DWORD PTR tv69[ebp]

; 96   :     }

  00026	c9		 leave
  00027	c3		 ret	 0
?what@exception@std@@UBEPBDXZ ENDP			; std::exception::what
_TEXT	ENDS
; Function compile flags: /Odspy
; File C:\Program Files (x86)\Microsoft Visual Studio\2019\Community\VC\Tools\MSVC\14.28.29333\include\vcruntime_exception.h
;	COMDAT ??0exception@std@@QAE@ABV01@@Z
_TEXT	SEGMENT
_this$ = -4						; size = 4
__Other$ = 8						; size = 4
??0exception@std@@QAE@ABV01@@Z PROC			; std::exception::exception, COMDAT
; _this$ = ecx

; 72   :     {

  00000	55		 push	 ebp
  00001	8b ec		 mov	 ebp, esp
  00003	51		 push	 ecx
  00004	89 4d fc	 mov	 DWORD PTR _this$[ebp], ecx
  00007	8b 45 fc	 mov	 eax, DWORD PTR _this$[ebp]
  0000a	c7 00 00 00 00
	00		 mov	 DWORD PTR [eax], OFFSET ??_7exception@std@@6B@

; 71   :         : _Data()

  00010	33 c0		 xor	 eax, eax
  00012	8b 4d fc	 mov	 ecx, DWORD PTR _this$[ebp]
  00015	83 c1 04	 add	 ecx, 4
  00018	89 01		 mov	 DWORD PTR [ecx], eax
  0001a	89 41 04	 mov	 DWORD PTR [ecx+4], eax

; 73   :         __std_exception_copy(&_Other._Data, &_Data);

  0001d	8b 45 fc	 mov	 eax, DWORD PTR _this$[ebp]
  00020	83 c0 04	 add	 eax, 4
  00023	50		 push	 eax
  00024	8b 45 08	 mov	 eax, DWORD PTR __Other$[ebp]
  00027	83 c0 04	 add	 eax, 4
  0002a	50		 push	 eax
  0002b	e8 00 00 00 00	 call	 ___std_exception_copy
  00030	59		 pop	 ecx
  00031	59		 pop	 ecx

; 74   :     }

  00032	8b 45 fc	 mov	 eax, DWORD PTR _this$[ebp]
  00035	c9		 leave
  00036	c2 04 00	 ret	 4
??0exception@std@@QAE@ABV01@@Z ENDP			; std::exception::exception
_TEXT	ENDS
END
