; Listing generated by Microsoft (R) Optimizing Compiler Version 19.28.29335.0 

	TITLE	D:\Metin2 Server Files\mainline\SRC_2014\Metin2Client\EffectLib\ParticleInstance.cpp
	.686P
	.XMM
	include listing.inc
	.model	flat

INCLUDELIB LIBCMT
INCLUDELIB OLDNAMES

PUBLIC	??_H@YGXPAXIIP6EPAX0@Z@Z			; `vector constructor iterator'
PUBLIC	?__empty_global_delete@@YAXPAX@Z		; __empty_global_delete
PUBLIC	?__empty_global_delete@@YAXPAXI@Z		; __empty_global_delete
PUBLIC	??0exception@std@@QAE@ABV01@@Z			; std::exception::exception
PUBLIC	?what@exception@std@@UBEPBDXZ			; std::exception::what
PUBLIC	??_Gexception@std@@UAEPAXI@Z			; std::exception::`scalar deleting destructor'
PUBLIC	??0bad_alloc@std@@QAE@ABV01@@Z			; std::bad_alloc::bad_alloc
PUBLIC	??_Gbad_alloc@std@@UAEPAXI@Z			; std::bad_alloc::`scalar deleting destructor'
PUBLIC	??0bad_array_new_length@std@@QAE@XZ		; std::bad_array_new_length::bad_array_new_length
PUBLIC	??1bad_array_new_length@std@@UAE@XZ		; std::bad_array_new_length::~bad_array_new_length
PUBLIC	??0bad_array_new_length@std@@QAE@ABV01@@Z	; std::bad_array_new_length::bad_array_new_length
PUBLIC	??_Gbad_array_new_length@std@@UAEPAXI@Z		; std::bad_array_new_length::`scalar deleting destructor'
PUBLIC	?_Throw_bad_array_new_length@std@@YAXXZ		; std::_Throw_bad_array_new_length
PUBLIC	?_Adjust_manually_vector_aligned@std@@YAXAAPAXAAI@Z ; std::_Adjust_manually_vector_aligned
PUBLIC	??$_Deallocate@$07$0A@@std@@YAXPAXI@Z		; std::_Deallocate<8,0>
PUBLIC	??$_Allocate@$07U_Default_allocate_traits@std@@$0A@@std@@YAPAXI@Z ; std::_Allocate<8,std::_Default_allocate_traits,0>
PUBLIC	??$_Allocate_manually_vector_aligned@U_Default_allocate_traits@std@@@std@@YAPAXI@Z ; std::_Allocate_manually_vector_aligned<std::_Default_allocate_traits>
PUBLIC	?DeleteThis@CBaseDecorator@NEffectUpdateDecorator@@QAEXXZ ; NEffectUpdateDecorator::CBaseDecorator::DeleteThis
PUBLIC	??0CParticleInstance@@QAE@XZ			; CParticleInstance::CParticleInstance
PUBLIC	??1CParticleInstance@@QAE@XZ			; CParticleInstance::~CParticleInstance
PUBLIC	?GetRadiusApproximation@CParticleInstance@@QAEMXZ ; CParticleInstance::GetRadiusApproximation
PUBLIC	?Update@CParticleInstance@@QAEHMM@Z		; CParticleInstance::Update
PUBLIC	?New@CParticleInstance@@SAPAV1@XZ		; CParticleInstance::New
PUBLIC	?DestroySystem@CParticleInstance@@SAXXZ		; CParticleInstance::DestroySystem
PUBLIC	?Transform@CParticleInstance@@QAEXPBUD3DXMATRIX@@@Z ; CParticleInstance::Transform
PUBLIC	?Transform@CParticleInstance@@QAEXPBUD3DXMATRIX@@M@Z ; CParticleInstance::Transform
PUBLIC	?GetParticleMeshPointer@CParticleInstance@@QAEPAUSPTVertex@@XZ ; CParticleInstance::GetParticleMeshPointer
PUBLIC	?DeleteThis@CParticleInstance@@QAEXXZ		; CParticleInstance::DeleteThis
PUBLIC	?Destroy@CParticleInstance@@QAEXXZ		; CParticleInstance::Destroy
PUBLIC	?__Initialize@CParticleInstance@@IAEXXZ		; CParticleInstance::__Initialize
PUBLIC	??0?$CDynamicPool@VCParticleInstance@@@@QAE@XZ	; CDynamicPool<CParticleInstance>::CDynamicPool<CParticleInstance>
PUBLIC	??1?$CDynamicPool@VCParticleInstance@@@@UAE@XZ	; CDynamicPool<CParticleInstance>::~CDynamicPool<CParticleInstance>
PUBLIC	?Destroy@?$CDynamicPool@VCParticleInstance@@@@QAEXXZ ; CDynamicPool<CParticleInstance>::Destroy
PUBLIC	?Alloc@?$CDynamicPool@VCParticleInstance@@@@QAEPAVCParticleInstance@@XZ ; CDynamicPool<CParticleInstance>::Alloc
PUBLIC	?Delete@?$CDynamicPool@VCParticleInstance@@@@KAXPAVCParticleInstance@@@Z ; CDynamicPool<CParticleInstance>::Delete
PUBLIC	?deallocate@?$allocator@PAVCParticleInstance@@@std@@QAEXQAPAVCParticleInstance@@I@Z ; std::allocator<CParticleInstance *>::deallocate
PUBLIC	?clear@?$vector@PAVCParticleInstance@@V?$allocator@PAVCParticleInstance@@@std@@@std@@QAEXXZ ; std::vector<CParticleInstance *,std::allocator<CParticleInstance *> >::clear
PUBLIC	?_Destroy@?$vector@PAVCParticleInstance@@V?$allocator@PAVCParticleInstance@@@std@@@std@@AAEXPAPAVCParticleInstance@@0@Z ; std::vector<CParticleInstance *,std::allocator<CParticleInstance *> >::_Destroy
PUBLIC	?_Calculate_growth@?$vector@PAVCParticleInstance@@V?$allocator@PAVCParticleInstance@@@std@@@std@@ABEII@Z ; std::vector<CParticleInstance *,std::allocator<CParticleInstance *> >::_Calculate_growth
PUBLIC	?_Change_array@?$vector@PAVCParticleInstance@@V?$allocator@PAVCParticleInstance@@@std@@@std@@AAEXQAPAVCParticleInstance@@II@Z ; std::vector<CParticleInstance *,std::allocator<CParticleInstance *> >::_Change_array
PUBLIC	?_Tidy@?$vector@PAVCParticleInstance@@V?$allocator@PAVCParticleInstance@@@std@@@std@@AAEXXZ ; std::vector<CParticleInstance *,std::allocator<CParticleInstance *> >::_Tidy
PUBLIC	?_Xlength@?$vector@PAVCParticleInstance@@V?$allocator@PAVCParticleInstance@@@std@@@std@@CAXXZ ; std::vector<CParticleInstance *,std::allocator<CParticleInstance *> >::_Xlength
PUBLIC	??_G?$CDynamicPool@VCParticleInstance@@@@UAEPAXI@Z ; CDynamicPool<CParticleInstance>::`scalar deleting destructor'
PUBLIC	??0?$CDynamicPoolEx@VCRotationDecorator@NEffectUpdateDecorator@@@@QAE@XZ ; CDynamicPoolEx<NEffectUpdateDecorator::CRotationDecorator>::CDynamicPoolEx<NEffectUpdateDecorator::CRotationDecorator>
PUBLIC	??1?$CDynamicPoolEx@VCRotationDecorator@NEffectUpdateDecorator@@@@UAE@XZ ; CDynamicPoolEx<NEffectUpdateDecorator::CRotationDecorator>::~CDynamicPoolEx<NEffectUpdateDecorator::CRotationDecorator>
PUBLIC	?Destroy@?$CDynamicPoolEx@VCRotationDecorator@NEffectUpdateDecorator@@@@QAEXXZ ; CDynamicPoolEx<NEffectUpdateDecorator::CRotationDecorator>::Destroy
PUBLIC	?Delete@?$CDynamicPoolEx@VCRotationDecorator@NEffectUpdateDecorator@@@@KAXPAVCRotationDecorator@NEffectUpdateDecorator@@@Z ; CDynamicPoolEx<NEffectUpdateDecorator::CRotationDecorator>::Delete
PUBLIC	?clear@?$vector@PAVCRotationDecorator@NEffectUpdateDecorator@@V?$allocator@PAVCRotationDecorator@NEffectUpdateDecorator@@@std@@@std@@QAEXXZ ; std::vector<NEffectUpdateDecorator::CRotationDecorator *,std::allocator<NEffectUpdateDecorator::CRotationDecorator *> >::clear
PUBLIC	?_Tidy@?$vector@PAVCRotationDecorator@NEffectUpdateDecorator@@V?$allocator@PAVCRotationDecorator@NEffectUpdateDecorator@@@std@@@std@@AAEXXZ ; std::vector<NEffectUpdateDecorator::CRotationDecorator *,std::allocator<NEffectUpdateDecorator::CRotationDecorator *> >::_Tidy
PUBLIC	??_G?$CDynamicPoolEx@VCRotationDecorator@NEffectUpdateDecorator@@@@UAEPAXI@Z ; CDynamicPoolEx<NEffectUpdateDecorator::CRotationDecorator>::`scalar deleting destructor'
PUBLIC	??0?$CDynamicPoolEx@VCGravityDecorator@NEffectUpdateDecorator@@@@QAE@XZ ; CDynamicPoolEx<NEffectUpdateDecorator::CGravityDecorator>::CDynamicPoolEx<NEffectUpdateDecorator::CGravityDecorator>
PUBLIC	??1?$CDynamicPoolEx@VCGravityDecorator@NEffectUpdateDecorator@@@@UAE@XZ ; CDynamicPoolEx<NEffectUpdateDecorator::CGravityDecorator>::~CDynamicPoolEx<NEffectUpdateDecorator::CGravityDecorator>
PUBLIC	?Destroy@?$CDynamicPoolEx@VCGravityDecorator@NEffectUpdateDecorator@@@@QAEXXZ ; CDynamicPoolEx<NEffectUpdateDecorator::CGravityDecorator>::Destroy
PUBLIC	?Delete@?$CDynamicPoolEx@VCGravityDecorator@NEffectUpdateDecorator@@@@KAXPAVCGravityDecorator@NEffectUpdateDecorator@@@Z ; CDynamicPoolEx<NEffectUpdateDecorator::CGravityDecorator>::Delete
PUBLIC	?clear@?$vector@PAVCGravityDecorator@NEffectUpdateDecorator@@V?$allocator@PAVCGravityDecorator@NEffectUpdateDecorator@@@std@@@std@@QAEXXZ ; std::vector<NEffectUpdateDecorator::CGravityDecorator *,std::allocator<NEffectUpdateDecorator::CGravityDecorator *> >::clear
PUBLIC	?_Tidy@?$vector@PAVCGravityDecorator@NEffectUpdateDecorator@@V?$allocator@PAVCGravityDecorator@NEffectUpdateDecorator@@@std@@@std@@AAEXXZ ; std::vector<NEffectUpdateDecorator::CGravityDecorator *,std::allocator<NEffectUpdateDecorator::CGravityDecorator *> >::_Tidy
PUBLIC	??_G?$CDynamicPoolEx@VCGravityDecorator@NEffectUpdateDecorator@@@@UAEPAXI@Z ; CDynamicPoolEx<NEffectUpdateDecorator::CGravityDecorator>::`scalar deleting destructor'
PUBLIC	??0?$CDynamicPoolEx@VCAirResistanceDecorator@NEffectUpdateDecorator@@@@QAE@XZ ; CDynamicPoolEx<NEffectUpdateDecorator::CAirResistanceDecorator>::CDynamicPoolEx<NEffectUpdateDecorator::CAirResistanceDecorator>
PUBLIC	??1?$CDynamicPoolEx@VCAirResistanceDecorator@NEffectUpdateDecorator@@@@UAE@XZ ; CDynamicPoolEx<NEffectUpdateDecorator::CAirResistanceDecorator>::~CDynamicPoolEx<NEffectUpdateDecorator::CAirResistanceDecorator>
PUBLIC	?Destroy@?$CDynamicPoolEx@VCAirResistanceDecorator@NEffectUpdateDecorator@@@@QAEXXZ ; CDynamicPoolEx<NEffectUpdateDecorator::CAirResistanceDecorator>::Destroy
PUBLIC	?Delete@?$CDynamicPoolEx@VCAirResistanceDecorator@NEffectUpdateDecorator@@@@KAXPAVCAirResistanceDecorator@NEffectUpdateDecorator@@@Z ; CDynamicPoolEx<NEffectUpdateDecorator::CAirResistanceDecorator>::Delete
PUBLIC	?clear@?$vector@PAVCAirResistanceDecorator@NEffectUpdateDecorator@@V?$allocator@PAVCAirResistanceDecorator@NEffectUpdateDecorator@@@std@@@std@@QAEXXZ ; std::vector<NEffectUpdateDecorator::CAirResistanceDecorator *,std::allocator<NEffectUpdateDecorator::CAirResistanceDecorator *> >::clear
PUBLIC	?_Tidy@?$vector@PAVCAirResistanceDecorator@NEffectUpdateDecorator@@V?$allocator@PAVCAirResistanceDecorator@NEffectUpdateDecorator@@@std@@@std@@AAEXXZ ; std::vector<NEffectUpdateDecorator::CAirResistanceDecorator *,std::allocator<NEffectUpdateDecorator::CAirResistanceDecorator *> >::_Tidy
PUBLIC	??_G?$CDynamicPoolEx@VCAirResistanceDecorator@NEffectUpdateDecorator@@@@UAEPAXI@Z ; CDynamicPoolEx<NEffectUpdateDecorator::CAirResistanceDecorator>::`scalar deleting destructor'
PUBLIC	??0?$CDynamicPoolEx@VCTextureAnimationRandomDecorator@NEffectUpdateDecorator@@@@QAE@XZ ; CDynamicPoolEx<NEffectUpdateDecorator::CTextureAnimationRandomDecorator>::CDynamicPoolEx<NEffectUpdateDecorator::CTextureAnimationRandomDecorator>
PUBLIC	??1?$CDynamicPoolEx@VCTextureAnimationRandomDecorator@NEffectUpdateDecorator@@@@UAE@XZ ; CDynamicPoolEx<NEffectUpdateDecorator::CTextureAnimationRandomDecorator>::~CDynamicPoolEx<NEffectUpdateDecorator::CTextureAnimationRandomDecorator>
PUBLIC	?Destroy@?$CDynamicPoolEx@VCTextureAnimationRandomDecorator@NEffectUpdateDecorator@@@@QAEXXZ ; CDynamicPoolEx<NEffectUpdateDecorator::CTextureAnimationRandomDecorator>::Destroy
PUBLIC	?Delete@?$CDynamicPoolEx@VCTextureAnimationRandomDecorator@NEffectUpdateDecorator@@@@KAXPAVCTextureAnimationRandomDecorator@NEffectUpdateDecorator@@@Z ; CDynamicPoolEx<NEffectUpdateDecorator::CTextureAnimationRandomDecorator>::Delete
PUBLIC	?clear@?$vector@PAVCTextureAnimationRandomDecorator@NEffectUpdateDecorator@@V?$allocator@PAVCTextureAnimationRandomDecorator@NEffectUpdateDecorator@@@std@@@std@@QAEXXZ ; std::vector<NEffectUpdateDecorator::CTextureAnimationRandomDecorator *,std::allocator<NEffectUpdateDecorator::CTextureAnimationRandomDecorator *> >::clear
PUBLIC	?_Tidy@?$vector@PAVCTextureAnimationRandomDecorator@NEffectUpdateDecorator@@V?$allocator@PAVCTextureAnimationRandomDecorator@NEffectUpdateDecorator@@@std@@@std@@AAEXXZ ; std::vector<NEffectUpdateDecorator::CTextureAnimationRandomDecorator *,std::allocator<NEffectUpdateDecorator::CTextureAnimationRandomDecorator *> >::_Tidy
PUBLIC	??_G?$CDynamicPoolEx@VCTextureAnimationRandomDecorator@NEffectUpdateDecorator@@@@UAEPAXI@Z ; CDynamicPoolEx<NEffectUpdateDecorator::CTextureAnimationRandomDecorator>::`scalar deleting destructor'
PUBLIC	??0?$CDynamicPoolEx@VCTextureAnimationCCWDecorator@NEffectUpdateDecorator@@@@QAE@XZ ; CDynamicPoolEx<NEffectUpdateDecorator::CTextureAnimationCCWDecorator>::CDynamicPoolEx<NEffectUpdateDecorator::CTextureAnimationCCWDecorator>
PUBLIC	??1?$CDynamicPoolEx@VCTextureAnimationCCWDecorator@NEffectUpdateDecorator@@@@UAE@XZ ; CDynamicPoolEx<NEffectUpdateDecorator::CTextureAnimationCCWDecorator>::~CDynamicPoolEx<NEffectUpdateDecorator::CTextureAnimationCCWDecorator>
PUBLIC	?Destroy@?$CDynamicPoolEx@VCTextureAnimationCCWDecorator@NEffectUpdateDecorator@@@@QAEXXZ ; CDynamicPoolEx<NEffectUpdateDecorator::CTextureAnimationCCWDecorator>::Destroy
PUBLIC	?Delete@?$CDynamicPoolEx@VCTextureAnimationCCWDecorator@NEffectUpdateDecorator@@@@KAXPAVCTextureAnimationCCWDecorator@NEffectUpdateDecorator@@@Z ; CDynamicPoolEx<NEffectUpdateDecorator::CTextureAnimationCCWDecorator>::Delete
PUBLIC	?clear@?$vector@PAVCTextureAnimationCCWDecorator@NEffectUpdateDecorator@@V?$allocator@PAVCTextureAnimationCCWDecorator@NEffectUpdateDecorator@@@std@@@std@@QAEXXZ ; std::vector<NEffectUpdateDecorator::CTextureAnimationCCWDecorator *,std::allocator<NEffectUpdateDecorator::CTextureAnimationCCWDecorator *> >::clear
PUBLIC	?_Tidy@?$vector@PAVCTextureAnimationCCWDecorator@NEffectUpdateDecorator@@V?$allocator@PAVCTextureAnimationCCWDecorator@NEffectUpdateDecorator@@@std@@@std@@AAEXXZ ; std::vector<NEffectUpdateDecorator::CTextureAnimationCCWDecorator *,std::allocator<NEffectUpdateDecorator::CTextureAnimationCCWDecorator *> >::_Tidy
PUBLIC	??_G?$CDynamicPoolEx@VCTextureAnimationCCWDecorator@NEffectUpdateDecorator@@@@UAEPAXI@Z ; CDynamicPoolEx<NEffectUpdateDecorator::CTextureAnimationCCWDecorator>::`scalar deleting destructor'
PUBLIC	??0?$CDynamicPoolEx@VCTextureAnimationCWDecorator@NEffectUpdateDecorator@@@@QAE@XZ ; CDynamicPoolEx<NEffectUpdateDecorator::CTextureAnimationCWDecorator>::CDynamicPoolEx<NEffectUpdateDecorator::CTextureAnimationCWDecorator>
PUBLIC	??1?$CDynamicPoolEx@VCTextureAnimationCWDecorator@NEffectUpdateDecorator@@@@UAE@XZ ; CDynamicPoolEx<NEffectUpdateDecorator::CTextureAnimationCWDecorator>::~CDynamicPoolEx<NEffectUpdateDecorator::CTextureAnimationCWDecorator>
PUBLIC	?Destroy@?$CDynamicPoolEx@VCTextureAnimationCWDecorator@NEffectUpdateDecorator@@@@QAEXXZ ; CDynamicPoolEx<NEffectUpdateDecorator::CTextureAnimationCWDecorator>::Destroy
PUBLIC	?Delete@?$CDynamicPoolEx@VCTextureAnimationCWDecorator@NEffectUpdateDecorator@@@@KAXPAVCTextureAnimationCWDecorator@NEffectUpdateDecorator@@@Z ; CDynamicPoolEx<NEffectUpdateDecorator::CTextureAnimationCWDecorator>::Delete
PUBLIC	?clear@?$vector@PAVCTextureAnimationCWDecorator@NEffectUpdateDecorator@@V?$allocator@PAVCTextureAnimationCWDecorator@NEffectUpdateDecorator@@@std@@@std@@QAEXXZ ; std::vector<NEffectUpdateDecorator::CTextureAnimationCWDecorator *,std::allocator<NEffectUpdateDecorator::CTextureAnimationCWDecorator *> >::clear
PUBLIC	?_Tidy@?$vector@PAVCTextureAnimationCWDecorator@NEffectUpdateDecorator@@V?$allocator@PAVCTextureAnimationCWDecorator@NEffectUpdateDecorator@@@std@@@std@@AAEXXZ ; std::vector<NEffectUpdateDecorator::CTextureAnimationCWDecorator *,std::allocator<NEffectUpdateDecorator::CTextureAnimationCWDecorator *> >::_Tidy
PUBLIC	??_G?$CDynamicPoolEx@VCTextureAnimationCWDecorator@NEffectUpdateDecorator@@@@UAEPAXI@Z ; CDynamicPoolEx<NEffectUpdateDecorator::CTextureAnimationCWDecorator>::`scalar deleting destructor'
PUBLIC	??0?$CDynamicPoolEx@VCNullDecorator@NEffectUpdateDecorator@@@@QAE@XZ ; CDynamicPoolEx<NEffectUpdateDecorator::CNullDecorator>::CDynamicPoolEx<NEffectUpdateDecorator::CNullDecorator>
PUBLIC	??1?$CDynamicPoolEx@VCNullDecorator@NEffectUpdateDecorator@@@@UAE@XZ ; CDynamicPoolEx<NEffectUpdateDecorator::CNullDecorator>::~CDynamicPoolEx<NEffectUpdateDecorator::CNullDecorator>
PUBLIC	?Destroy@?$CDynamicPoolEx@VCNullDecorator@NEffectUpdateDecorator@@@@QAEXXZ ; CDynamicPoolEx<NEffectUpdateDecorator::CNullDecorator>::Destroy
PUBLIC	?Delete@?$CDynamicPoolEx@VCNullDecorator@NEffectUpdateDecorator@@@@KAXPAVCNullDecorator@NEffectUpdateDecorator@@@Z ; CDynamicPoolEx<NEffectUpdateDecorator::CNullDecorator>::Delete
PUBLIC	?clear@?$vector@PAVCNullDecorator@NEffectUpdateDecorator@@V?$allocator@PAVCNullDecorator@NEffectUpdateDecorator@@@std@@@std@@QAEXXZ ; std::vector<NEffectUpdateDecorator::CNullDecorator *,std::allocator<NEffectUpdateDecorator::CNullDecorator *> >::clear
PUBLIC	?_Tidy@?$vector@PAVCNullDecorator@NEffectUpdateDecorator@@V?$allocator@PAVCNullDecorator@NEffectUpdateDecorator@@@std@@@std@@AAEXXZ ; std::vector<NEffectUpdateDecorator::CNullDecorator *,std::allocator<NEffectUpdateDecorator::CNullDecorator *> >::_Tidy
PUBLIC	??_G?$CDynamicPoolEx@VCNullDecorator@NEffectUpdateDecorator@@@@UAEPAXI@Z ; CDynamicPoolEx<NEffectUpdateDecorator::CNullDecorator>::`scalar deleting destructor'
PUBLIC	??0?$CDynamicPoolEx@VCHeaderDecorator@NEffectUpdateDecorator@@@@QAE@XZ ; CDynamicPoolEx<NEffectUpdateDecorator::CHeaderDecorator>::CDynamicPoolEx<NEffectUpdateDecorator::CHeaderDecorator>
PUBLIC	??1?$CDynamicPoolEx@VCHeaderDecorator@NEffectUpdateDecorator@@@@UAE@XZ ; CDynamicPoolEx<NEffectUpdateDecorator::CHeaderDecorator>::~CDynamicPoolEx<NEffectUpdateDecorator::CHeaderDecorator>
PUBLIC	?Destroy@?$CDynamicPoolEx@VCHeaderDecorator@NEffectUpdateDecorator@@@@QAEXXZ ; CDynamicPoolEx<NEffectUpdateDecorator::CHeaderDecorator>::Destroy
PUBLIC	?Delete@?$CDynamicPoolEx@VCHeaderDecorator@NEffectUpdateDecorator@@@@KAXPAVCHeaderDecorator@NEffectUpdateDecorator@@@Z ; CDynamicPoolEx<NEffectUpdateDecorator::CHeaderDecorator>::Delete
PUBLIC	?clear@?$vector@PAVCHeaderDecorator@NEffectUpdateDecorator@@V?$allocator@PAVCHeaderDecorator@NEffectUpdateDecorator@@@std@@@std@@QAEXXZ ; std::vector<NEffectUpdateDecorator::CHeaderDecorator *,std::allocator<NEffectUpdateDecorator::CHeaderDecorator *> >::clear
PUBLIC	?_Tidy@?$vector@PAVCHeaderDecorator@NEffectUpdateDecorator@@V?$allocator@PAVCHeaderDecorator@NEffectUpdateDecorator@@@std@@@std@@AAEXXZ ; std::vector<NEffectUpdateDecorator::CHeaderDecorator *,std::allocator<NEffectUpdateDecorator::CHeaderDecorator *> >::_Tidy
PUBLIC	??_G?$CDynamicPoolEx@VCHeaderDecorator@NEffectUpdateDecorator@@@@UAEPAXI@Z ; CDynamicPoolEx<NEffectUpdateDecorator::CHeaderDecorator>::`scalar deleting destructor'
PUBLIC	??$emplace_back@ABQAVCParticleInstance@@@?$vector@PAVCParticleInstance@@V?$allocator@PAVCParticleInstance@@@std@@@std@@QAEXABQAVCParticleInstance@@@Z ; std::vector<CParticleInstance *,std::allocator<CParticleInstance *> >::emplace_back<CParticleInstance * const &>
PUBLIC	??$_Emplace_back_with_unused_capacity@ABQAVCParticleInstance@@@?$vector@PAVCParticleInstance@@V?$allocator@PAVCParticleInstance@@@std@@@std@@AAEXABQAVCParticleInstance@@@Z ; std::vector<CParticleInstance *,std::allocator<CParticleInstance *> >::_Emplace_back_with_unused_capacity<CParticleInstance * const &>
PUBLIC	??$_Emplace_reallocate@ABQAVCParticleInstance@@@?$vector@PAVCParticleInstance@@V?$allocator@PAVCParticleInstance@@@std@@@std@@QAEPAPAVCParticleInstance@@QAPAV2@ABQAV2@@Z ; std::vector<CParticleInstance *,std::allocator<CParticleInstance *> >::_Emplace_reallocate<CParticleInstance * const &>
PUBLIC	??$for_each@V?$_Vector_iterator@V?$_Vector_val@U?$_Simple_types@PAVCHeaderDecorator@NEffectUpdateDecorator@@@std@@@std@@@std@@P6AXPAVCHeaderDecorator@NEffectUpdateDecorator@@@Z@std@@YAP6AXPAVCHeaderDecorator@NEffectUpdateDecorator@@@ZV?$_Vector_iterator@V?$_Vector_val@U?$_Simple_types@PAVCHeaderDecorator@NEffectUpdateDecorator@@@std@@@std@@@0@1P6AX0@Z@Z ; std::for_each<std::_Vector_iterator<std::_Vector_val<std::_Simple_types<NEffectUpdateDecorator::CHeaderDecorator *> > >,void (__cdecl*)(NEffectUpdateDecorator::CHeaderDecorator *)>
PUBLIC	??$for_each@V?$_Vector_iterator@V?$_Vector_val@U?$_Simple_types@PAVCNullDecorator@NEffectUpdateDecorator@@@std@@@std@@@std@@P6AXPAVCNullDecorator@NEffectUpdateDecorator@@@Z@std@@YAP6AXPAVCNullDecorator@NEffectUpdateDecorator@@@ZV?$_Vector_iterator@V?$_Vector_val@U?$_Simple_types@PAVCNullDecorator@NEffectUpdateDecorator@@@std@@@std@@@0@1P6AX0@Z@Z ; std::for_each<std::_Vector_iterator<std::_Vector_val<std::_Simple_types<NEffectUpdateDecorator::CNullDecorator *> > >,void (__cdecl*)(NEffectUpdateDecorator::CNullDecorator *)>
PUBLIC	??$for_each@V?$_Vector_iterator@V?$_Vector_val@U?$_Simple_types@PAVCTextureAnimationCWDecorator@NEffectUpdateDecorator@@@std@@@std@@@std@@P6AXPAVCTextureAnimationCWDecorator@NEffectUpdateDecorator@@@Z@std@@YAP6AXPAVCTextureAnimationCWDecorator@NEffectUpdateDecorator@@@ZV?$_Vector_iterator@V?$_Vector_val@U?$_Simple_types@PAVCTextureAnimationCWDecorator@NEffectUpdateDecorator@@@std@@@std@@@0@1P6AX0@Z@Z ; std::for_each<std::_Vector_iterator<std::_Vector_val<std::_Simple_types<NEffectUpdateDecorator::CTextureAnimationCWDecorator *> > >,void (__cdecl*)(NEffectUpdateDecorator::CTextureAnimationCWDecorator *)>
PUBLIC	??$for_each@V?$_Vector_iterator@V?$_Vector_val@U?$_Simple_types@PAVCTextureAnimationCCWDecorator@NEffectUpdateDecorator@@@std@@@std@@@std@@P6AXPAVCTextureAnimationCCWDecorator@NEffectUpdateDecorator@@@Z@std@@YAP6AXPAVCTextureAnimationCCWDecorator@NEffectUpdateDecorator@@@ZV?$_Vector_iterator@V?$_Vector_val@U?$_Simple_types@PAVCTextureAnimationCCWDecorator@NEffectUpdateDecorator@@@std@@@std@@@0@1P6AX0@Z@Z ; std::for_each<std::_Vector_iterator<std::_Vector_val<std::_Simple_types<NEffectUpdateDecorator::CTextureAnimationCCWDecorator *> > >,void (__cdecl*)(NEffectUpdateDecorator::CTextureAnimationCCWDecorator *)>
PUBLIC	??$for_each@V?$_Vector_iterator@V?$_Vector_val@U?$_Simple_types@PAVCTextureAnimationRandomDecorator@NEffectUpdateDecorator@@@std@@@std@@@std@@P6AXPAVCTextureAnimationRandomDecorator@NEffectUpdateDecorator@@@Z@std@@YAP6AXPAVCTextureAnimationRandomDecorator@NEffectUpdateDecorator@@@ZV?$_Vector_iterator@V?$_Vector_val@U?$_Simple_types@PAVCTextureAnimationRandomDecorator@NEffectUpdateDecorator@@@std@@@std@@@0@1P6AX0@Z@Z ; std::for_each<std::_Vector_iterator<std::_Vector_val<std::_Simple_types<NEffectUpdateDecorator::CTextureAnimationRandomDecorator *> > >,void (__cdecl*)(NEffectUpdateDecorator::CTextureAnimationRandomDecorator *)>
PUBLIC	??$for_each@V?$_Vector_iterator@V?$_Vector_val@U?$_Simple_types@PAVCAirResistanceDecorator@NEffectUpdateDecorator@@@std@@@std@@@std@@P6AXPAVCAirResistanceDecorator@NEffectUpdateDecorator@@@Z@std@@YAP6AXPAVCAirResistanceDecorator@NEffectUpdateDecorator@@@ZV?$_Vector_iterator@V?$_Vector_val@U?$_Simple_types@PAVCAirResistanceDecorator@NEffectUpdateDecorator@@@std@@@std@@@0@1P6AX0@Z@Z ; std::for_each<std::_Vector_iterator<std::_Vector_val<std::_Simple_types<NEffectUpdateDecorator::CAirResistanceDecorator *> > >,void (__cdecl*)(NEffectUpdateDecorator::CAirResistanceDecorator *)>
PUBLIC	??$for_each@V?$_Vector_iterator@V?$_Vector_val@U?$_Simple_types@PAVCGravityDecorator@NEffectUpdateDecorator@@@std@@@std@@@std@@P6AXPAVCGravityDecorator@NEffectUpdateDecorator@@@Z@std@@YAP6AXPAVCGravityDecorator@NEffectUpdateDecorator@@@ZV?$_Vector_iterator@V?$_Vector_val@U?$_Simple_types@PAVCGravityDecorator@NEffectUpdateDecorator@@@std@@@std@@@0@1P6AX0@Z@Z ; std::for_each<std::_Vector_iterator<std::_Vector_val<std::_Simple_types<NEffectUpdateDecorator::CGravityDecorator *> > >,void (__cdecl*)(NEffectUpdateDecorator::CGravityDecorator *)>
PUBLIC	??$for_each@V?$_Vector_iterator@V?$_Vector_val@U?$_Simple_types@PAVCRotationDecorator@NEffectUpdateDecorator@@@std@@@std@@@std@@P6AXPAVCRotationDecorator@NEffectUpdateDecorator@@@Z@std@@YAP6AXPAVCRotationDecorator@NEffectUpdateDecorator@@@ZV?$_Vector_iterator@V?$_Vector_val@U?$_Simple_types@PAVCRotationDecorator@NEffectUpdateDecorator@@@std@@@std@@@0@1P6AX0@Z@Z ; std::for_each<std::_Vector_iterator<std::_Vector_val<std::_Simple_types<NEffectUpdateDecorator::CRotationDecorator *> > >,void (__cdecl*)(NEffectUpdateDecorator::CRotationDecorator *)>
PUBLIC	??$_Destroy_range@V?$allocator@PAVCParticleInstance@@@std@@@std@@YAXPAPAVCParticleInstance@@QAPAV1@AAV?$allocator@PAVCParticleInstance@@@0@@Z ; std::_Destroy_range<std::allocator<CParticleInstance *> >
PUBLIC	??$_Destroy_range@V?$allocator@PAVCHeaderDecorator@NEffectUpdateDecorator@@@std@@@std@@YAXPAPAVCHeaderDecorator@NEffectUpdateDecorator@@QAPAV12@AAV?$allocator@PAVCHeaderDecorator@NEffectUpdateDecorator@@@0@@Z ; std::_Destroy_range<std::allocator<NEffectUpdateDecorator::CHeaderDecorator *> >
PUBLIC	??$_Destroy_range@V?$allocator@PAVCNullDecorator@NEffectUpdateDecorator@@@std@@@std@@YAXPAPAVCNullDecorator@NEffectUpdateDecorator@@QAPAV12@AAV?$allocator@PAVCNullDecorator@NEffectUpdateDecorator@@@0@@Z ; std::_Destroy_range<std::allocator<NEffectUpdateDecorator::CNullDecorator *> >
PUBLIC	??$_Destroy_range@V?$allocator@PAVCTextureAnimationCWDecorator@NEffectUpdateDecorator@@@std@@@std@@YAXPAPAVCTextureAnimationCWDecorator@NEffectUpdateDecorator@@QAPAV12@AAV?$allocator@PAVCTextureAnimationCWDecorator@NEffectUpdateDecorator@@@0@@Z ; std::_Destroy_range<std::allocator<NEffectUpdateDecorator::CTextureAnimationCWDecorator *> >
PUBLIC	??$_Destroy_range@V?$allocator@PAVCTextureAnimationCCWDecorator@NEffectUpdateDecorator@@@std@@@std@@YAXPAPAVCTextureAnimationCCWDecorator@NEffectUpdateDecorator@@QAPAV12@AAV?$allocator@PAVCTextureAnimationCCWDecorator@NEffectUpdateDecorator@@@0@@Z ; std::_Destroy_range<std::allocator<NEffectUpdateDecorator::CTextureAnimationCCWDecorator *> >
PUBLIC	??$_Destroy_range@V?$allocator@PAVCTextureAnimationRandomDecorator@NEffectUpdateDecorator@@@std@@@std@@YAXPAPAVCTextureAnimationRandomDecorator@NEffectUpdateDecorator@@QAPAV12@AAV?$allocator@PAVCTextureAnimationRandomDecorator@NEffectUpdateDecorator@@@0@@Z ; std::_Destroy_range<std::allocator<NEffectUpdateDecorator::CTextureAnimationRandomDecorator *> >
PUBLIC	??$_Destroy_range@V?$allocator@PAVCAirResistanceDecorator@NEffectUpdateDecorator@@@std@@@std@@YAXPAPAVCAirResistanceDecorator@NEffectUpdateDecorator@@QAPAV12@AAV?$allocator@PAVCAirResistanceDecorator@NEffectUpdateDecorator@@@0@@Z ; std::_Destroy_range<std::allocator<NEffectUpdateDecorator::CAirResistanceDecorator *> >
PUBLIC	??$_Destroy_range@V?$allocator@PAVCGravityDecorator@NEffectUpdateDecorator@@@std@@@std@@YAXPAPAVCGravityDecorator@NEffectUpdateDecorator@@QAPAV12@AAV?$allocator@PAVCGravityDecorator@NEffectUpdateDecorator@@@0@@Z ; std::_Destroy_range<std::allocator<NEffectUpdateDecorator::CGravityDecorator *> >
PUBLIC	??$_Destroy_range@V?$allocator@PAVCRotationDecorator@NEffectUpdateDecorator@@@std@@@std@@YAXPAPAVCRotationDecorator@NEffectUpdateDecorator@@QAPAV12@AAV?$allocator@PAVCRotationDecorator@NEffectUpdateDecorator@@@0@@Z ; std::_Destroy_range<std::allocator<NEffectUpdateDecorator::CRotationDecorator *> >
PUBLIC	??$_Uninitialized_move@PAPAVCParticleInstance@@V?$allocator@PAVCParticleInstance@@@std@@@std@@YAPAPAVCParticleInstance@@QAPAV1@0PAPAV1@AAV?$allocator@PAVCParticleInstance@@@0@@Z ; std::_Uninitialized_move<CParticleInstance * *,std::allocator<CParticleInstance *> >
PUBLIC	??$_Copy_memmove@PAPAVCParticleInstance@@PAPAV1@@std@@YAPAPAVCParticleInstance@@PAPAV1@00@Z ; std::_Copy_memmove<CParticleInstance * *,CParticleInstance * *>
PUBLIC	??_7exception@std@@6B@				; std::exception::`vftable'
PUBLIC	??_C@_0BC@EOODALEL@Unknown?5exception@		; `string'
PUBLIC	??_7bad_alloc@std@@6B@				; std::bad_alloc::`vftable'
PUBLIC	??_7bad_array_new_length@std@@6B@		; std::bad_array_new_length::`vftable'
PUBLIC	??_C@_0BF@KINCDENJ@bad?5array?5new?5length@	; `string'
PUBLIC	__TI3?AVbad_array_new_length@std@@
PUBLIC	__CTA3?AVbad_array_new_length@std@@
PUBLIC	??_R0?AVbad_array_new_length@std@@@8		; std::bad_array_new_length `RTTI Type Descriptor'
PUBLIC	__CT??_R0?AVbad_array_new_length@std@@@8??0bad_array_new_length@std@@QAE@ABV01@@Z12
PUBLIC	??_R0?AVbad_alloc@std@@@8			; std::bad_alloc `RTTI Type Descriptor'
PUBLIC	__CT??_R0?AVbad_alloc@std@@@8??0bad_alloc@std@@QAE@ABV01@@Z12
PUBLIC	??_R0?AVexception@std@@@8			; std::exception `RTTI Type Descriptor'
PUBLIC	__CT??_R0?AVexception@std@@@8??0exception@std@@QAE@ABV01@@Z12
PUBLIC	??_R4exception@std@@6B@				; std::exception::`RTTI Complete Object Locator'
PUBLIC	??_R3exception@std@@8				; std::exception::`RTTI Class Hierarchy Descriptor'
PUBLIC	??_R2exception@std@@8				; std::exception::`RTTI Base Class Array'
PUBLIC	??_R1A@?0A@EA@exception@std@@8			; std::exception::`RTTI Base Class Descriptor at (0,-1,0,64)'
PUBLIC	??_R4bad_alloc@std@@6B@				; std::bad_alloc::`RTTI Complete Object Locator'
PUBLIC	??_R3bad_alloc@std@@8				; std::bad_alloc::`RTTI Class Hierarchy Descriptor'
PUBLIC	??_R2bad_alloc@std@@8				; std::bad_alloc::`RTTI Base Class Array'
PUBLIC	??_R1A@?0A@EA@bad_alloc@std@@8			; std::bad_alloc::`RTTI Base Class Descriptor at (0,-1,0,64)'
PUBLIC	??_R4bad_array_new_length@std@@6B@		; std::bad_array_new_length::`RTTI Complete Object Locator'
PUBLIC	??_R3bad_array_new_length@std@@8		; std::bad_array_new_length::`RTTI Class Hierarchy Descriptor'
PUBLIC	??_R2bad_array_new_length@std@@8		; std::bad_array_new_length::`RTTI Base Class Array'
PUBLIC	??_R1A@?0A@EA@bad_array_new_length@std@@8	; std::bad_array_new_length::`RTTI Base Class Descriptor at (0,-1,0,64)'
PUBLIC	?ms_kPool@?$CPooledObject@VCHeaderDecorator@NEffectUpdateDecorator@@@@1V?$CDynamicPoolEx@VCHeaderDecorator@NEffectUpdateDecorator@@@@A ; CPooledObject<NEffectUpdateDecorator::CHeaderDecorator>::ms_kPool
PUBLIC	?ms_kPool@?$CPooledObject@VCNullDecorator@NEffectUpdateDecorator@@@@1V?$CDynamicPoolEx@VCNullDecorator@NEffectUpdateDecorator@@@@A ; CPooledObject<NEffectUpdateDecorator::CNullDecorator>::ms_kPool
PUBLIC	?ms_kPool@?$CPooledObject@VCTextureAnimationCWDecorator@NEffectUpdateDecorator@@@@1V?$CDynamicPoolEx@VCTextureAnimationCWDecorator@NEffectUpdateDecorator@@@@A ; CPooledObject<NEffectUpdateDecorator::CTextureAnimationCWDecorator>::ms_kPool
PUBLIC	?ms_kPool@?$CPooledObject@VCTextureAnimationCCWDecorator@NEffectUpdateDecorator@@@@1V?$CDynamicPoolEx@VCTextureAnimationCCWDecorator@NEffectUpdateDecorator@@@@A ; CPooledObject<NEffectUpdateDecorator::CTextureAnimationCCWDecorator>::ms_kPool
PUBLIC	?ms_kPool@?$CPooledObject@VCTextureAnimationRandomDecorator@NEffectUpdateDecorator@@@@1V?$CDynamicPoolEx@VCTextureAnimationRandomDecorator@NEffectUpdateDecorator@@@@A ; CPooledObject<NEffectUpdateDecorator::CTextureAnimationRandomDecorator>::ms_kPool
PUBLIC	?ms_kPool@?$CPooledObject@VCAirResistanceDecorator@NEffectUpdateDecorator@@@@1V?$CDynamicPoolEx@VCAirResistanceDecorator@NEffectUpdateDecorator@@@@A ; CPooledObject<NEffectUpdateDecorator::CAirResistanceDecorator>::ms_kPool
PUBLIC	?ms_kPool@?$CPooledObject@VCGravityDecorator@NEffectUpdateDecorator@@@@1V?$CDynamicPoolEx@VCGravityDecorator@NEffectUpdateDecorator@@@@A ; CPooledObject<NEffectUpdateDecorator::CGravityDecorator>::ms_kPool
PUBLIC	?ms_kPool@?$CPooledObject@VCRotationDecorator@NEffectUpdateDecorator@@@@1V?$CDynamicPoolEx@VCRotationDecorator@NEffectUpdateDecorator@@@@A ; CPooledObject<NEffectUpdateDecorator::CRotationDecorator>::ms_kPool
PUBLIC	?ms_kPool@CParticleInstance@@2V?$CDynamicPool@VCParticleInstance@@@@A ; CParticleInstance::ms_kPool
PUBLIC	?ms_singleton@?$CSingleton@VCCameraManager@@@@0PAVCCameraManager@@A ; CSingleton<CCameraManager>::ms_singleton
PUBLIC	?ms_singleton@?$CSingleton@VCStateManager@@@@0PAVCStateManager@@A ; CSingleton<CStateManager>::ms_singleton
PUBLIC	??_7?$CDynamicPool@VCParticleInstance@@@@6B@	; CDynamicPool<CParticleInstance>::`vftable'
PUBLIC	??_7?$CDynamicPoolEx@VCRotationDecorator@NEffectUpdateDecorator@@@@6B@ ; CDynamicPoolEx<NEffectUpdateDecorator::CRotationDecorator>::`vftable'
PUBLIC	??_7?$CDynamicPoolEx@VCGravityDecorator@NEffectUpdateDecorator@@@@6B@ ; CDynamicPoolEx<NEffectUpdateDecorator::CGravityDecorator>::`vftable'
PUBLIC	??_7?$CDynamicPoolEx@VCAirResistanceDecorator@NEffectUpdateDecorator@@@@6B@ ; CDynamicPoolEx<NEffectUpdateDecorator::CAirResistanceDecorator>::`vftable'
PUBLIC	??_7?$CDynamicPoolEx@VCTextureAnimationRandomDecorator@NEffectUpdateDecorator@@@@6B@ ; CDynamicPoolEx<NEffectUpdateDecorator::CTextureAnimationRandomDecorator>::`vftable'
PUBLIC	??_7?$CDynamicPoolEx@VCTextureAnimationCCWDecorator@NEffectUpdateDecorator@@@@6B@ ; CDynamicPoolEx<NEffectUpdateDecorator::CTextureAnimationCCWDecorator>::`vftable'
PUBLIC	??_7?$CDynamicPoolEx@VCTextureAnimationCWDecorator@NEffectUpdateDecorator@@@@6B@ ; CDynamicPoolEx<NEffectUpdateDecorator::CTextureAnimationCWDecorator>::`vftable'
PUBLIC	??_7?$CDynamicPoolEx@VCNullDecorator@NEffectUpdateDecorator@@@@6B@ ; CDynamicPoolEx<NEffectUpdateDecorator::CNullDecorator>::`vftable'
PUBLIC	??_7?$CDynamicPoolEx@VCHeaderDecorator@NEffectUpdateDecorator@@@@6B@ ; CDynamicPoolEx<NEffectUpdateDecorator::CHeaderDecorator>::`vftable'
PUBLIC	??_C@_0BA@FOIKENOD@vector?5too?5long@		; `string'
PUBLIC	??_R4?$CDynamicPoolEx@VCHeaderDecorator@NEffectUpdateDecorator@@@@6B@ ; CDynamicPoolEx<NEffectUpdateDecorator::CHeaderDecorator>::`RTTI Complete Object Locator'
PUBLIC	??_R0?AV?$CDynamicPoolEx@VCHeaderDecorator@NEffectUpdateDecorator@@@@@8 ; CDynamicPoolEx<NEffectUpdateDecorator::CHeaderDecorator> `RTTI Type Descriptor'
PUBLIC	??_R3?$CDynamicPoolEx@VCHeaderDecorator@NEffectUpdateDecorator@@@@8 ; CDynamicPoolEx<NEffectUpdateDecorator::CHeaderDecorator>::`RTTI Class Hierarchy Descriptor'
PUBLIC	??_R2?$CDynamicPoolEx@VCHeaderDecorator@NEffectUpdateDecorator@@@@8 ; CDynamicPoolEx<NEffectUpdateDecorator::CHeaderDecorator>::`RTTI Base Class Array'
PUBLIC	??_R1A@?0A@EA@?$CDynamicPoolEx@VCHeaderDecorator@NEffectUpdateDecorator@@@@8 ; CDynamicPoolEx<NEffectUpdateDecorator::CHeaderDecorator>::`RTTI Base Class Descriptor at (0,-1,0,64)'
PUBLIC	??_R4?$CDynamicPoolEx@VCNullDecorator@NEffectUpdateDecorator@@@@6B@ ; CDynamicPoolEx<NEffectUpdateDecorator::CNullDecorator>::`RTTI Complete Object Locator'
PUBLIC	??_R0?AV?$CDynamicPoolEx@VCNullDecorator@NEffectUpdateDecorator@@@@@8 ; CDynamicPoolEx<NEffectUpdateDecorator::CNullDecorator> `RTTI Type Descriptor'
PUBLIC	??_R3?$CDynamicPoolEx@VCNullDecorator@NEffectUpdateDecorator@@@@8 ; CDynamicPoolEx<NEffectUpdateDecorator::CNullDecorator>::`RTTI Class Hierarchy Descriptor'
PUBLIC	??_R2?$CDynamicPoolEx@VCNullDecorator@NEffectUpdateDecorator@@@@8 ; CDynamicPoolEx<NEffectUpdateDecorator::CNullDecorator>::`RTTI Base Class Array'
PUBLIC	??_R1A@?0A@EA@?$CDynamicPoolEx@VCNullDecorator@NEffectUpdateDecorator@@@@8 ; CDynamicPoolEx<NEffectUpdateDecorator::CNullDecorator>::`RTTI Base Class Descriptor at (0,-1,0,64)'
PUBLIC	??_R4?$CDynamicPoolEx@VCTextureAnimationCWDecorator@NEffectUpdateDecorator@@@@6B@ ; CDynamicPoolEx<NEffectUpdateDecorator::CTextureAnimationCWDecorator>::`RTTI Complete Object Locator'
PUBLIC	??_R0?AV?$CDynamicPoolEx@VCTextureAnimationCWDecorator@NEffectUpdateDecorator@@@@@8 ; CDynamicPoolEx<NEffectUpdateDecorator::CTextureAnimationCWDecorator> `RTTI Type Descriptor'
PUBLIC	??_R3?$CDynamicPoolEx@VCTextureAnimationCWDecorator@NEffectUpdateDecorator@@@@8 ; CDynamicPoolEx<NEffectUpdateDecorator::CTextureAnimationCWDecorator>::`RTTI Class Hierarchy Descriptor'
PUBLIC	??_R2?$CDynamicPoolEx@VCTextureAnimationCWDecorator@NEffectUpdateDecorator@@@@8 ; CDynamicPoolEx<NEffectUpdateDecorator::CTextureAnimationCWDecorator>::`RTTI Base Class Array'
PUBLIC	??_R1A@?0A@EA@?$CDynamicPoolEx@VCTextureAnimationCWDecorator@NEffectUpdateDecorator@@@@8 ; CDynamicPoolEx<NEffectUpdateDecorator::CTextureAnimationCWDecorator>::`RTTI Base Class Descriptor at (0,-1,0,64)'
PUBLIC	??_R4?$CDynamicPoolEx@VCTextureAnimationCCWDecorator@NEffectUpdateDecorator@@@@6B@ ; CDynamicPoolEx<NEffectUpdateDecorator::CTextureAnimationCCWDecorator>::`RTTI Complete Object Locator'
PUBLIC	??_R0?AV?$CDynamicPoolEx@VCTextureAnimationCCWDecorator@NEffectUpdateDecorator@@@@@8 ; CDynamicPoolEx<NEffectUpdateDecorator::CTextureAnimationCCWDecorator> `RTTI Type Descriptor'
PUBLIC	??_R3?$CDynamicPoolEx@VCTextureAnimationCCWDecorator@NEffectUpdateDecorator@@@@8 ; CDynamicPoolEx<NEffectUpdateDecorator::CTextureAnimationCCWDecorator>::`RTTI Class Hierarchy Descriptor'
PUBLIC	??_R2?$CDynamicPoolEx@VCTextureAnimationCCWDecorator@NEffectUpdateDecorator@@@@8 ; CDynamicPoolEx<NEffectUpdateDecorator::CTextureAnimationCCWDecorator>::`RTTI Base Class Array'
PUBLIC	??_R1A@?0A@EA@?$CDynamicPoolEx@VCTextureAnimationCCWDecorator@NEffectUpdateDecorator@@@@8 ; CDynamicPoolEx<NEffectUpdateDecorator::CTextureAnimationCCWDecorator>::`RTTI Base Class Descriptor at (0,-1,0,64)'
PUBLIC	??_R4?$CDynamicPoolEx@VCTextureAnimationRandomDecorator@NEffectUpdateDecorator@@@@6B@ ; CDynamicPoolEx<NEffectUpdateDecorator::CTextureAnimationRandomDecorator>::`RTTI Complete Object Locator'
PUBLIC	??_R0?AV?$CDynamicPoolEx@VCTextureAnimationRandomDecorator@NEffectUpdateDecorator@@@@@8 ; CDynamicPoolEx<NEffectUpdateDecorator::CTextureAnimationRandomDecorator> `RTTI Type Descriptor'
PUBLIC	??_R3?$CDynamicPoolEx@VCTextureAnimationRandomDecorator@NEffectUpdateDecorator@@@@8 ; CDynamicPoolEx<NEffectUpdateDecorator::CTextureAnimationRandomDecorator>::`RTTI Class Hierarchy Descriptor'
PUBLIC	??_R2?$CDynamicPoolEx@VCTextureAnimationRandomDecorator@NEffectUpdateDecorator@@@@8 ; CDynamicPoolEx<NEffectUpdateDecorator::CTextureAnimationRandomDecorator>::`RTTI Base Class Array'
PUBLIC	??_R1A@?0A@EA@?$CDynamicPoolEx@VCTextureAnimationRandomDecorator@NEffectUpdateDecorator@@@@8 ; CDynamicPoolEx<NEffectUpdateDecorator::CTextureAnimationRandomDecorator>::`RTTI Base Class Descriptor at (0,-1,0,64)'
PUBLIC	??_R4?$CDynamicPoolEx@VCAirResistanceDecorator@NEffectUpdateDecorator@@@@6B@ ; CDynamicPoolEx<NEffectUpdateDecorator::CAirResistanceDecorator>::`RTTI Complete Object Locator'
PUBLIC	??_R0?AV?$CDynamicPoolEx@VCAirResistanceDecorator@NEffectUpdateDecorator@@@@@8 ; CDynamicPoolEx<NEffectUpdateDecorator::CAirResistanceDecorator> `RTTI Type Descriptor'
PUBLIC	??_R3?$CDynamicPoolEx@VCAirResistanceDecorator@NEffectUpdateDecorator@@@@8 ; CDynamicPoolEx<NEffectUpdateDecorator::CAirResistanceDecorator>::`RTTI Class Hierarchy Descriptor'
PUBLIC	??_R2?$CDynamicPoolEx@VCAirResistanceDecorator@NEffectUpdateDecorator@@@@8 ; CDynamicPoolEx<NEffectUpdateDecorator::CAirResistanceDecorator>::`RTTI Base Class Array'
PUBLIC	??_R1A@?0A@EA@?$CDynamicPoolEx@VCAirResistanceDecorator@NEffectUpdateDecorator@@@@8 ; CDynamicPoolEx<NEffectUpdateDecorator::CAirResistanceDecorator>::`RTTI Base Class Descriptor at (0,-1,0,64)'
PUBLIC	??_R4?$CDynamicPoolEx@VCGravityDecorator@NEffectUpdateDecorator@@@@6B@ ; CDynamicPoolEx<NEffectUpdateDecorator::CGravityDecorator>::`RTTI Complete Object Locator'
PUBLIC	??_R0?AV?$CDynamicPoolEx@VCGravityDecorator@NEffectUpdateDecorator@@@@@8 ; CDynamicPoolEx<NEffectUpdateDecorator::CGravityDecorator> `RTTI Type Descriptor'
PUBLIC	??_R3?$CDynamicPoolEx@VCGravityDecorator@NEffectUpdateDecorator@@@@8 ; CDynamicPoolEx<NEffectUpdateDecorator::CGravityDecorator>::`RTTI Class Hierarchy Descriptor'
PUBLIC	??_R2?$CDynamicPoolEx@VCGravityDecorator@NEffectUpdateDecorator@@@@8 ; CDynamicPoolEx<NEffectUpdateDecorator::CGravityDecorator>::`RTTI Base Class Array'
PUBLIC	??_R1A@?0A@EA@?$CDynamicPoolEx@VCGravityDecorator@NEffectUpdateDecorator@@@@8 ; CDynamicPoolEx<NEffectUpdateDecorator::CGravityDecorator>::`RTTI Base Class Descriptor at (0,-1,0,64)'
PUBLIC	??_R4?$CDynamicPoolEx@VCRotationDecorator@NEffectUpdateDecorator@@@@6B@ ; CDynamicPoolEx<NEffectUpdateDecorator::CRotationDecorator>::`RTTI Complete Object Locator'
PUBLIC	??_R0?AV?$CDynamicPoolEx@VCRotationDecorator@NEffectUpdateDecorator@@@@@8 ; CDynamicPoolEx<NEffectUpdateDecorator::CRotationDecorator> `RTTI Type Descriptor'
PUBLIC	??_R3?$CDynamicPoolEx@VCRotationDecorator@NEffectUpdateDecorator@@@@8 ; CDynamicPoolEx<NEffectUpdateDecorator::CRotationDecorator>::`RTTI Class Hierarchy Descriptor'
PUBLIC	??_R2?$CDynamicPoolEx@VCRotationDecorator@NEffectUpdateDecorator@@@@8 ; CDynamicPoolEx<NEffectUpdateDecorator::CRotationDecorator>::`RTTI Base Class Array'
PUBLIC	??_R1A@?0A@EA@?$CDynamicPoolEx@VCRotationDecorator@NEffectUpdateDecorator@@@@8 ; CDynamicPoolEx<NEffectUpdateDecorator::CRotationDecorator>::`RTTI Base Class Descriptor at (0,-1,0,64)'
PUBLIC	??_R4?$CDynamicPool@VCParticleInstance@@@@6B@	; CDynamicPool<CParticleInstance>::`RTTI Complete Object Locator'
PUBLIC	??_R0?AV?$CDynamicPool@VCParticleInstance@@@@@8	; CDynamicPool<CParticleInstance> `RTTI Type Descriptor'
PUBLIC	??_R3?$CDynamicPool@VCParticleInstance@@@@8	; CDynamicPool<CParticleInstance>::`RTTI Class Hierarchy Descriptor'
PUBLIC	??_R2?$CDynamicPool@VCParticleInstance@@@@8	; CDynamicPool<CParticleInstance>::`RTTI Base Class Array'
PUBLIC	??_R1A@?0A@EA@?$CDynamicPool@VCParticleInstance@@@@8 ; CDynamicPool<CParticleInstance>::`RTTI Base Class Descriptor at (0,-1,0,64)'
PUBLIC	__real@00000000
PUBLIC	__real@3c8efa35
PUBLIC	__real@3f800000
PUBLIC	__real@bf800000
PUBLIC	__xmm@80000000800000008000000080000000
EXTRN	??2@YAPAXI@Z:PROC				; operator new
EXTRN	??3@YAXPAX@Z:PROC				; operator delete
EXTRN	??3@YAXPAXI@Z:PROC				; operator delete
EXTRN	_atexit:PROC
EXTRN	__invalid_parameter_noinfo_noreturn:PROC
EXTRN	_memmove:PROC
EXTRN	_cos:PROC
EXTRN	_log:PROC
EXTRN	_sin:PROC
EXTRN	_sqrt:PROC
EXTRN	___std_exception_copy:PROC
EXTRN	___std_exception_destroy:PROC
EXTRN	??_Eexception@std@@UAEPAXI@Z:PROC		; std::exception::`vector deleting destructor'
EXTRN	??_Ebad_alloc@std@@UAEPAXI@Z:PROC		; std::bad_alloc::`vector deleting destructor'
EXTRN	??_Ebad_array_new_length@std@@UAEPAXI@Z:PROC	; std::bad_array_new_length::`vector deleting destructor'
EXTRN	?_Xlength_error@std@@YAXPBD@Z:PROC		; std::_Xlength_error
EXTRN	_D3DXVec3Normalize@8:PROC
EXTRN	_D3DXVec3TransformCoord@12:PROC
EXTRN	_D3DXVec3TransformNormal@12:PROC
EXTRN	_D3DXMatrixRotationAxis@12:PROC
EXTRN	_D3DXQuaternionRotationAxis@12:PROC
EXTRN	_D3DXQuaternionMultiply@12:PROC
EXTRN	?GetCurrentCamera@CCameraManager@@QAEPAVCCamera@@XZ:PROC ; CCameraManager::GetCurrentCamera
EXTRN	?SetRenderState@CStateManager@@QAEXW4_D3DRENDERSTATETYPE@@K@Z:PROC ; CStateManager::SetRenderState
EXTRN	??_E?$CDynamicPool@VCParticleInstance@@@@UAEPAXI@Z:PROC ; CDynamicPool<CParticleInstance>::`vector deleting destructor'
EXTRN	??_E?$CDynamicPoolEx@VCRotationDecorator@NEffectUpdateDecorator@@@@UAEPAXI@Z:PROC ; CDynamicPoolEx<NEffectUpdateDecorator::CRotationDecorator>::`vector deleting destructor'
EXTRN	??_E?$CDynamicPoolEx@VCGravityDecorator@NEffectUpdateDecorator@@@@UAEPAXI@Z:PROC ; CDynamicPoolEx<NEffectUpdateDecorator::CGravityDecorator>::`vector deleting destructor'
EXTRN	??_E?$CDynamicPoolEx@VCAirResistanceDecorator@NEffectUpdateDecorator@@@@UAEPAXI@Z:PROC ; CDynamicPoolEx<NEffectUpdateDecorator::CAirResistanceDecorator>::`vector deleting destructor'
EXTRN	??_E?$CDynamicPoolEx@VCTextureAnimationRandomDecorator@NEffectUpdateDecorator@@@@UAEPAXI@Z:PROC ; CDynamicPoolEx<NEffectUpdateDecorator::CTextureAnimationRandomDecorator>::`vector deleting destructor'
EXTRN	??_E?$CDynamicPoolEx@VCTextureAnimationCCWDecorator@NEffectUpdateDecorator@@@@UAEPAXI@Z:PROC ; CDynamicPoolEx<NEffectUpdateDecorator::CTextureAnimationCCWDecorator>::`vector deleting destructor'
EXTRN	??_E?$CDynamicPoolEx@VCTextureAnimationCWDecorator@NEffectUpdateDecorator@@@@UAEPAXI@Z:PROC ; CDynamicPoolEx<NEffectUpdateDecorator::CTextureAnimationCWDecorator>::`vector deleting destructor'
EXTRN	??_E?$CDynamicPoolEx@VCNullDecorator@NEffectUpdateDecorator@@@@UAEPAXI@Z:PROC ; CDynamicPoolEx<NEffectUpdateDecorator::CNullDecorator>::`vector deleting destructor'
EXTRN	??_E?$CDynamicPoolEx@VCHeaderDecorator@NEffectUpdateDecorator@@@@UAEPAXI@Z:PROC ; CDynamicPoolEx<NEffectUpdateDecorator::CHeaderDecorator>::`vector deleting destructor'
EXTRN	@__security_check_cookie@4:PROC
EXTRN	__CxxThrowException@8:PROC
EXTRN	___CxxFrameHandler3:PROC
EXTRN	??_7type_info@@6B@:QWORD			; type_info::`vftable'
EXTRN	___security_cookie:DWORD
EXTRN	__fltused:DWORD
;	COMDAT ?ms_kPool@?$CPooledObject@VCHeaderDecorator@NEffectUpdateDecorator@@@@1V?$CDynamicPoolEx@VCHeaderDecorator@NEffectUpdateDecorator@@@@A
_BSS	SEGMENT
?ms_kPool@?$CPooledObject@VCHeaderDecorator@NEffectUpdateDecorator@@@@1V?$CDynamicPoolEx@VCHeaderDecorator@NEffectUpdateDecorator@@@@A DB 024H DUP (?) ; CPooledObject<NEffectUpdateDecorator::CHeaderDecorator>::ms_kPool
_BSS	ENDS
;	COMDAT ?ms_kPool@?$CPooledObject@VCNullDecorator@NEffectUpdateDecorator@@@@1V?$CDynamicPoolEx@VCNullDecorator@NEffectUpdateDecorator@@@@A
_BSS	SEGMENT
?ms_kPool@?$CPooledObject@VCNullDecorator@NEffectUpdateDecorator@@@@1V?$CDynamicPoolEx@VCNullDecorator@NEffectUpdateDecorator@@@@A DB 024H DUP (?) ; CPooledObject<NEffectUpdateDecorator::CNullDecorator>::ms_kPool
_BSS	ENDS
;	COMDAT ?ms_kPool@?$CPooledObject@VCTextureAnimationCWDecorator@NEffectUpdateDecorator@@@@1V?$CDynamicPoolEx@VCTextureAnimationCWDecorator@NEffectUpdateDecorator@@@@A
_BSS	SEGMENT
?ms_kPool@?$CPooledObject@VCTextureAnimationCWDecorator@NEffectUpdateDecorator@@@@1V?$CDynamicPoolEx@VCTextureAnimationCWDecorator@NEffectUpdateDecorator@@@@A DB 024H DUP (?) ; CPooledObject<NEffectUpdateDecorator::CTextureAnimationCWDecorator>::ms_kPool
_BSS	ENDS
;	COMDAT ?ms_kPool@?$CPooledObject@VCTextureAnimationCCWDecorator@NEffectUpdateDecorator@@@@1V?$CDynamicPoolEx@VCTextureAnimationCCWDecorator@NEffectUpdateDecorator@@@@A
_BSS	SEGMENT
?ms_kPool@?$CPooledObject@VCTextureAnimationCCWDecorator@NEffectUpdateDecorator@@@@1V?$CDynamicPoolEx@VCTextureAnimationCCWDecorator@NEffectUpdateDecorator@@@@A DB 024H DUP (?) ; CPooledObject<NEffectUpdateDecorator::CTextureAnimationCCWDecorator>::ms_kPool
_BSS	ENDS
;	COMDAT ?ms_kPool@?$CPooledObject@VCTextureAnimationRandomDecorator@NEffectUpdateDecorator@@@@1V?$CDynamicPoolEx@VCTextureAnimationRandomDecorator@NEffectUpdateDecorator@@@@A
_BSS	SEGMENT
?ms_kPool@?$CPooledObject@VCTextureAnimationRandomDecorator@NEffectUpdateDecorator@@@@1V?$CDynamicPoolEx@VCTextureAnimationRandomDecorator@NEffectUpdateDecorator@@@@A DB 024H DUP (?) ; CPooledObject<NEffectUpdateDecorator::CTextureAnimationRandomDecorator>::ms_kPool
_BSS	ENDS
;	COMDAT ?ms_kPool@?$CPooledObject@VCAirResistanceDecorator@NEffectUpdateDecorator@@@@1V?$CDynamicPoolEx@VCAirResistanceDecorator@NEffectUpdateDecorator@@@@A
_BSS	SEGMENT
?ms_kPool@?$CPooledObject@VCAirResistanceDecorator@NEffectUpdateDecorator@@@@1V?$CDynamicPoolEx@VCAirResistanceDecorator@NEffectUpdateDecorator@@@@A DB 024H DUP (?) ; CPooledObject<NEffectUpdateDecorator::CAirResistanceDecorator>::ms_kPool
_BSS	ENDS
;	COMDAT ?ms_kPool@?$CPooledObject@VCGravityDecorator@NEffectUpdateDecorator@@@@1V?$CDynamicPoolEx@VCGravityDecorator@NEffectUpdateDecorator@@@@A
_BSS	SEGMENT
?ms_kPool@?$CPooledObject@VCGravityDecorator@NEffectUpdateDecorator@@@@1V?$CDynamicPoolEx@VCGravityDecorator@NEffectUpdateDecorator@@@@A DB 024H DUP (?) ; CPooledObject<NEffectUpdateDecorator::CGravityDecorator>::ms_kPool
_BSS	ENDS
;	COMDAT ?ms_kPool@?$CPooledObject@VCRotationDecorator@NEffectUpdateDecorator@@@@1V?$CDynamicPoolEx@VCRotationDecorator@NEffectUpdateDecorator@@@@A
_BSS	SEGMENT
?ms_kPool@?$CPooledObject@VCRotationDecorator@NEffectUpdateDecorator@@@@1V?$CDynamicPoolEx@VCRotationDecorator@NEffectUpdateDecorator@@@@A DB 024H DUP (?) ; CPooledObject<NEffectUpdateDecorator::CRotationDecorator>::ms_kPool
_BSS	ENDS
_BSS	SEGMENT
?ms_kPool@CParticleInstance@@2V?$CDynamicPool@VCParticleInstance@@@@A DB 024H DUP (?) ; CParticleInstance::ms_kPool
_BSS	ENDS
;	COMDAT ?ms_singleton@?$CSingleton@VCCameraManager@@@@0PAVCCameraManager@@A
_BSS	SEGMENT
?ms_singleton@?$CSingleton@VCCameraManager@@@@0PAVCCameraManager@@A DD 01H DUP (?) ; CSingleton<CCameraManager>::ms_singleton
_BSS	ENDS
;	COMDAT ?ms_singleton@?$CSingleton@VCStateManager@@@@0PAVCStateManager@@A
_BSS	SEGMENT
?ms_singleton@?$CSingleton@VCStateManager@@@@0PAVCStateManager@@A DD 01H DUP (?) ; CSingleton<CStateManager>::ms_singleton
_BSS	ENDS
CRT$XCU	SEGMENT
??ms_kPool$initializer$@CParticleInstance@@2P6AXXZA@@3P6AXXZA DD FLAT:??__E?ms_kPool@CParticleInstance@@2V?$CDynamicPool@VCParticleInstance@@@@A@@YAXXZ ; ??ms_kPool$initializer$@CParticleInstance@@2P6AXXZA@@3P6AXXZA
CRT$XCU	ENDS
;	COMDAT __xmm@80000000800000008000000080000000
CONST	SEGMENT
__xmm@80000000800000008000000080000000 DB 00H, 00H, 00H, 080H, 00H, 00H, 00H
	DB	080H, 00H, 00H, 00H, 080H, 00H, 00H, 00H, 080H
CONST	ENDS
;	COMDAT __real@bf800000
CONST	SEGMENT
__real@bf800000 DD 0bf800000r			; -1
CONST	ENDS
;	COMDAT __real@3f800000
CONST	SEGMENT
__real@3f800000 DD 03f800000r			; 1
CONST	ENDS
;	COMDAT __real@3c8efa35
CONST	SEGMENT
__real@3c8efa35 DD 03c8efa35r			; 0.0174533
CONST	ENDS
;	COMDAT __real@00000000
CONST	SEGMENT
__real@00000000 DD 000000000r			; 0
CONST	ENDS
;	COMDAT ??_R1A@?0A@EA@?$CDynamicPool@VCParticleInstance@@@@8
rdata$r	SEGMENT
??_R1A@?0A@EA@?$CDynamicPool@VCParticleInstance@@@@8 DD FLAT:??_R0?AV?$CDynamicPool@VCParticleInstance@@@@@8 ; CDynamicPool<CParticleInstance>::`RTTI Base Class Descriptor at (0,-1,0,64)'
	DD	00H
	DD	00H
	DD	0ffffffffH
	DD	00H
	DD	040H
	DD	FLAT:??_R3?$CDynamicPool@VCParticleInstance@@@@8
rdata$r	ENDS
;	COMDAT ??_R2?$CDynamicPool@VCParticleInstance@@@@8
rdata$r	SEGMENT
??_R2?$CDynamicPool@VCParticleInstance@@@@8 DD FLAT:??_R1A@?0A@EA@?$CDynamicPool@VCParticleInstance@@@@8 ; CDynamicPool<CParticleInstance>::`RTTI Base Class Array'
rdata$r	ENDS
;	COMDAT ??_R3?$CDynamicPool@VCParticleInstance@@@@8
rdata$r	SEGMENT
??_R3?$CDynamicPool@VCParticleInstance@@@@8 DD 00H	; CDynamicPool<CParticleInstance>::`RTTI Class Hierarchy Descriptor'
	DD	00H
	DD	01H
	DD	FLAT:??_R2?$CDynamicPool@VCParticleInstance@@@@8
rdata$r	ENDS
;	COMDAT ??_R0?AV?$CDynamicPool@VCParticleInstance@@@@@8
data$rs	SEGMENT
??_R0?AV?$CDynamicPool@VCParticleInstance@@@@@8 DD FLAT:??_7type_info@@6B@ ; CDynamicPool<CParticleInstance> `RTTI Type Descriptor'
	DD	00H
	DB	'.?AV?$CDynamicPool@VCParticleInstance@@@@', 00H
data$rs	ENDS
;	COMDAT ??_R4?$CDynamicPool@VCParticleInstance@@@@6B@
rdata$r	SEGMENT
??_R4?$CDynamicPool@VCParticleInstance@@@@6B@ DD 00H	; CDynamicPool<CParticleInstance>::`RTTI Complete Object Locator'
	DD	00H
	DD	00H
	DD	FLAT:??_R0?AV?$CDynamicPool@VCParticleInstance@@@@@8
	DD	FLAT:??_R3?$CDynamicPool@VCParticleInstance@@@@8
rdata$r	ENDS
;	COMDAT ??_R1A@?0A@EA@?$CDynamicPoolEx@VCRotationDecorator@NEffectUpdateDecorator@@@@8
rdata$r	SEGMENT
??_R1A@?0A@EA@?$CDynamicPoolEx@VCRotationDecorator@NEffectUpdateDecorator@@@@8 DD FLAT:??_R0?AV?$CDynamicPoolEx@VCRotationDecorator@NEffectUpdateDecorator@@@@@8 ; CDynamicPoolEx<NEffectUpdateDecorator::CRotationDecorator>::`RTTI Base Class Descriptor at (0,-1,0,64)'
	DD	00H
	DD	00H
	DD	0ffffffffH
	DD	00H
	DD	040H
	DD	FLAT:??_R3?$CDynamicPoolEx@VCRotationDecorator@NEffectUpdateDecorator@@@@8
rdata$r	ENDS
;	COMDAT ??_R2?$CDynamicPoolEx@VCRotationDecorator@NEffectUpdateDecorator@@@@8
rdata$r	SEGMENT
??_R2?$CDynamicPoolEx@VCRotationDecorator@NEffectUpdateDecorator@@@@8 DD FLAT:??_R1A@?0A@EA@?$CDynamicPoolEx@VCRotationDecorator@NEffectUpdateDecorator@@@@8 ; CDynamicPoolEx<NEffectUpdateDecorator::CRotationDecorator>::`RTTI Base Class Array'
rdata$r	ENDS
;	COMDAT ??_R3?$CDynamicPoolEx@VCRotationDecorator@NEffectUpdateDecorator@@@@8
rdata$r	SEGMENT
??_R3?$CDynamicPoolEx@VCRotationDecorator@NEffectUpdateDecorator@@@@8 DD 00H ; CDynamicPoolEx<NEffectUpdateDecorator::CRotationDecorator>::`RTTI Class Hierarchy Descriptor'
	DD	00H
	DD	01H
	DD	FLAT:??_R2?$CDynamicPoolEx@VCRotationDecorator@NEffectUpdateDecorator@@@@8
rdata$r	ENDS
;	COMDAT ??_R0?AV?$CDynamicPoolEx@VCRotationDecorator@NEffectUpdateDecorator@@@@@8
data$rs	SEGMENT
??_R0?AV?$CDynamicPoolEx@VCRotationDecorator@NEffectUpdateDecorator@@@@@8 DD FLAT:??_7type_info@@6B@ ; CDynamicPoolEx<NEffectUpdateDecorator::CRotationDecorator> `RTTI Type Descriptor'
	DD	00H
	DB	'.?AV?$CDynamicPoolEx@VCRotationDecorator@NEffectUpdateDe'
	DB	'corator@@@@', 00H
data$rs	ENDS
;	COMDAT ??_R4?$CDynamicPoolEx@VCRotationDecorator@NEffectUpdateDecorator@@@@6B@
rdata$r	SEGMENT
??_R4?$CDynamicPoolEx@VCRotationDecorator@NEffectUpdateDecorator@@@@6B@ DD 00H ; CDynamicPoolEx<NEffectUpdateDecorator::CRotationDecorator>::`RTTI Complete Object Locator'
	DD	00H
	DD	00H
	DD	FLAT:??_R0?AV?$CDynamicPoolEx@VCRotationDecorator@NEffectUpdateDecorator@@@@@8
	DD	FLAT:??_R3?$CDynamicPoolEx@VCRotationDecorator@NEffectUpdateDecorator@@@@8
rdata$r	ENDS
;	COMDAT ??_R1A@?0A@EA@?$CDynamicPoolEx@VCGravityDecorator@NEffectUpdateDecorator@@@@8
rdata$r	SEGMENT
??_R1A@?0A@EA@?$CDynamicPoolEx@VCGravityDecorator@NEffectUpdateDecorator@@@@8 DD FLAT:??_R0?AV?$CDynamicPoolEx@VCGravityDecorator@NEffectUpdateDecorator@@@@@8 ; CDynamicPoolEx<NEffectUpdateDecorator::CGravityDecorator>::`RTTI Base Class Descriptor at (0,-1,0,64)'
	DD	00H
	DD	00H
	DD	0ffffffffH
	DD	00H
	DD	040H
	DD	FLAT:??_R3?$CDynamicPoolEx@VCGravityDecorator@NEffectUpdateDecorator@@@@8
rdata$r	ENDS
;	COMDAT ??_R2?$CDynamicPoolEx@VCGravityDecorator@NEffectUpdateDecorator@@@@8
rdata$r	SEGMENT
??_R2?$CDynamicPoolEx@VCGravityDecorator@NEffectUpdateDecorator@@@@8 DD FLAT:??_R1A@?0A@EA@?$CDynamicPoolEx@VCGravityDecorator@NEffectUpdateDecorator@@@@8 ; CDynamicPoolEx<NEffectUpdateDecorator::CGravityDecorator>::`RTTI Base Class Array'
rdata$r	ENDS
;	COMDAT ??_R3?$CDynamicPoolEx@VCGravityDecorator@NEffectUpdateDecorator@@@@8
rdata$r	SEGMENT
??_R3?$CDynamicPoolEx@VCGravityDecorator@NEffectUpdateDecorator@@@@8 DD 00H ; CDynamicPoolEx<NEffectUpdateDecorator::CGravityDecorator>::`RTTI Class Hierarchy Descriptor'
	DD	00H
	DD	01H
	DD	FLAT:??_R2?$CDynamicPoolEx@VCGravityDecorator@NEffectUpdateDecorator@@@@8
rdata$r	ENDS
;	COMDAT ??_R0?AV?$CDynamicPoolEx@VCGravityDecorator@NEffectUpdateDecorator@@@@@8
data$rs	SEGMENT
??_R0?AV?$CDynamicPoolEx@VCGravityDecorator@NEffectUpdateDecorator@@@@@8 DD FLAT:??_7type_info@@6B@ ; CDynamicPoolEx<NEffectUpdateDecorator::CGravityDecorator> `RTTI Type Descriptor'
	DD	00H
	DB	'.?AV?$CDynamicPoolEx@VCGravityDecorator@NEffectUpdateDec'
	DB	'orator@@@@', 00H
data$rs	ENDS
;	COMDAT ??_R4?$CDynamicPoolEx@VCGravityDecorator@NEffectUpdateDecorator@@@@6B@
rdata$r	SEGMENT
??_R4?$CDynamicPoolEx@VCGravityDecorator@NEffectUpdateDecorator@@@@6B@ DD 00H ; CDynamicPoolEx<NEffectUpdateDecorator::CGravityDecorator>::`RTTI Complete Object Locator'
	DD	00H
	DD	00H
	DD	FLAT:??_R0?AV?$CDynamicPoolEx@VCGravityDecorator@NEffectUpdateDecorator@@@@@8
	DD	FLAT:??_R3?$CDynamicPoolEx@VCGravityDecorator@NEffectUpdateDecorator@@@@8
rdata$r	ENDS
;	COMDAT ??_R1A@?0A@EA@?$CDynamicPoolEx@VCAirResistanceDecorator@NEffectUpdateDecorator@@@@8
rdata$r	SEGMENT
??_R1A@?0A@EA@?$CDynamicPoolEx@VCAirResistanceDecorator@NEffectUpdateDecorator@@@@8 DD FLAT:??_R0?AV?$CDynamicPoolEx@VCAirResistanceDecorator@NEffectUpdateDecorator@@@@@8 ; CDynamicPoolEx<NEffectUpdateDecorator::CAirResistanceDecorator>::`RTTI Base Class Descriptor at (0,-1,0,64)'
	DD	00H
	DD	00H
	DD	0ffffffffH
	DD	00H
	DD	040H
	DD	FLAT:??_R3?$CDynamicPoolEx@VCAirResistanceDecorator@NEffectUpdateDecorator@@@@8
rdata$r	ENDS
;	COMDAT ??_R2?$CDynamicPoolEx@VCAirResistanceDecorator@NEffectUpdateDecorator@@@@8
rdata$r	SEGMENT
??_R2?$CDynamicPoolEx@VCAirResistanceDecorator@NEffectUpdateDecorator@@@@8 DD FLAT:??_R1A@?0A@EA@?$CDynamicPoolEx@VCAirResistanceDecorator@NEffectUpdateDecorator@@@@8 ; CDynamicPoolEx<NEffectUpdateDecorator::CAirResistanceDecorator>::`RTTI Base Class Array'
rdata$r	ENDS
;	COMDAT ??_R3?$CDynamicPoolEx@VCAirResistanceDecorator@NEffectUpdateDecorator@@@@8
rdata$r	SEGMENT
??_R3?$CDynamicPoolEx@VCAirResistanceDecorator@NEffectUpdateDecorator@@@@8 DD 00H ; CDynamicPoolEx<NEffectUpdateDecorator::CAirResistanceDecorator>::`RTTI Class Hierarchy Descriptor'
	DD	00H
	DD	01H
	DD	FLAT:??_R2?$CDynamicPoolEx@VCAirResistanceDecorator@NEffectUpdateDecorator@@@@8
rdata$r	ENDS
;	COMDAT ??_R0?AV?$CDynamicPoolEx@VCAirResistanceDecorator@NEffectUpdateDecorator@@@@@8
data$rs	SEGMENT
??_R0?AV?$CDynamicPoolEx@VCAirResistanceDecorator@NEffectUpdateDecorator@@@@@8 DD FLAT:??_7type_info@@6B@ ; CDynamicPoolEx<NEffectUpdateDecorator::CAirResistanceDecorator> `RTTI Type Descriptor'
	DD	00H
	DB	'.?AV?$CDynamicPoolEx@VCAirResistanceDecorator@NEffectUpd'
	DB	'ateDecorator@@@@', 00H
data$rs	ENDS
;	COMDAT ??_R4?$CDynamicPoolEx@VCAirResistanceDecorator@NEffectUpdateDecorator@@@@6B@
rdata$r	SEGMENT
??_R4?$CDynamicPoolEx@VCAirResistanceDecorator@NEffectUpdateDecorator@@@@6B@ DD 00H ; CDynamicPoolEx<NEffectUpdateDecorator::CAirResistanceDecorator>::`RTTI Complete Object Locator'
	DD	00H
	DD	00H
	DD	FLAT:??_R0?AV?$CDynamicPoolEx@VCAirResistanceDecorator@NEffectUpdateDecorator@@@@@8
	DD	FLAT:??_R3?$CDynamicPoolEx@VCAirResistanceDecorator@NEffectUpdateDecorator@@@@8
rdata$r	ENDS
;	COMDAT ??_R1A@?0A@EA@?$CDynamicPoolEx@VCTextureAnimationRandomDecorator@NEffectUpdateDecorator@@@@8
rdata$r	SEGMENT
??_R1A@?0A@EA@?$CDynamicPoolEx@VCTextureAnimationRandomDecorator@NEffectUpdateDecorator@@@@8 DD FLAT:??_R0?AV?$CDynamicPoolEx@VCTextureAnimationRandomDecorator@NEffectUpdateDecorator@@@@@8 ; CDynamicPoolEx<NEffectUpdateDecorator::CTextureAnimationRandomDecorator>::`RTTI Base Class Descriptor at (0,-1,0,64)'
	DD	00H
	DD	00H
	DD	0ffffffffH
	DD	00H
	DD	040H
	DD	FLAT:??_R3?$CDynamicPoolEx@VCTextureAnimationRandomDecorator@NEffectUpdateDecorator@@@@8
rdata$r	ENDS
;	COMDAT ??_R2?$CDynamicPoolEx@VCTextureAnimationRandomDecorator@NEffectUpdateDecorator@@@@8
rdata$r	SEGMENT
??_R2?$CDynamicPoolEx@VCTextureAnimationRandomDecorator@NEffectUpdateDecorator@@@@8 DD FLAT:??_R1A@?0A@EA@?$CDynamicPoolEx@VCTextureAnimationRandomDecorator@NEffectUpdateDecorator@@@@8 ; CDynamicPoolEx<NEffectUpdateDecorator::CTextureAnimationRandomDecorator>::`RTTI Base Class Array'
rdata$r	ENDS
;	COMDAT ??_R3?$CDynamicPoolEx@VCTextureAnimationRandomDecorator@NEffectUpdateDecorator@@@@8
rdata$r	SEGMENT
??_R3?$CDynamicPoolEx@VCTextureAnimationRandomDecorator@NEffectUpdateDecorator@@@@8 DD 00H ; CDynamicPoolEx<NEffectUpdateDecorator::CTextureAnimationRandomDecorator>::`RTTI Class Hierarchy Descriptor'
	DD	00H
	DD	01H
	DD	FLAT:??_R2?$CDynamicPoolEx@VCTextureAnimationRandomDecorator@NEffectUpdateDecorator@@@@8
rdata$r	ENDS
;	COMDAT ??_R0?AV?$CDynamicPoolEx@VCTextureAnimationRandomDecorator@NEffectUpdateDecorator@@@@@8
data$rs	SEGMENT
??_R0?AV?$CDynamicPoolEx@VCTextureAnimationRandomDecorator@NEffectUpdateDecorator@@@@@8 DD FLAT:??_7type_info@@6B@ ; CDynamicPoolEx<NEffectUpdateDecorator::CTextureAnimationRandomDecorator> `RTTI Type Descriptor'
	DD	00H
	DB	'.?AV?$CDynamicPoolEx@VCTextureAnimationRandomDecorator@N'
	DB	'EffectUpdateDecorator@@@@', 00H
data$rs	ENDS
;	COMDAT ??_R4?$CDynamicPoolEx@VCTextureAnimationRandomDecorator@NEffectUpdateDecorator@@@@6B@
rdata$r	SEGMENT
??_R4?$CDynamicPoolEx@VCTextureAnimationRandomDecorator@NEffectUpdateDecorator@@@@6B@ DD 00H ; CDynamicPoolEx<NEffectUpdateDecorator::CTextureAnimationRandomDecorator>::`RTTI Complete Object Locator'
	DD	00H
	DD	00H
	DD	FLAT:??_R0?AV?$CDynamicPoolEx@VCTextureAnimationRandomDecorator@NEffectUpdateDecorator@@@@@8
	DD	FLAT:??_R3?$CDynamicPoolEx@VCTextureAnimationRandomDecorator@NEffectUpdateDecorator@@@@8
rdata$r	ENDS
;	COMDAT ??_R1A@?0A@EA@?$CDynamicPoolEx@VCTextureAnimationCCWDecorator@NEffectUpdateDecorator@@@@8
rdata$r	SEGMENT
??_R1A@?0A@EA@?$CDynamicPoolEx@VCTextureAnimationCCWDecorator@NEffectUpdateDecorator@@@@8 DD FLAT:??_R0?AV?$CDynamicPoolEx@VCTextureAnimationCCWDecorator@NEffectUpdateDecorator@@@@@8 ; CDynamicPoolEx<NEffectUpdateDecorator::CTextureAnimationCCWDecorator>::`RTTI Base Class Descriptor at (0,-1,0,64)'
	DD	00H
	DD	00H
	DD	0ffffffffH
	DD	00H
	DD	040H
	DD	FLAT:??_R3?$CDynamicPoolEx@VCTextureAnimationCCWDecorator@NEffectUpdateDecorator@@@@8
rdata$r	ENDS
;	COMDAT ??_R2?$CDynamicPoolEx@VCTextureAnimationCCWDecorator@NEffectUpdateDecorator@@@@8
rdata$r	SEGMENT
??_R2?$CDynamicPoolEx@VCTextureAnimationCCWDecorator@NEffectUpdateDecorator@@@@8 DD FLAT:??_R1A@?0A@EA@?$CDynamicPoolEx@VCTextureAnimationCCWDecorator@NEffectUpdateDecorator@@@@8 ; CDynamicPoolEx<NEffectUpdateDecorator::CTextureAnimationCCWDecorator>::`RTTI Base Class Array'
rdata$r	ENDS
;	COMDAT ??_R3?$CDynamicPoolEx@VCTextureAnimationCCWDecorator@NEffectUpdateDecorator@@@@8
rdata$r	SEGMENT
??_R3?$CDynamicPoolEx@VCTextureAnimationCCWDecorator@NEffectUpdateDecorator@@@@8 DD 00H ; CDynamicPoolEx<NEffectUpdateDecorator::CTextureAnimationCCWDecorator>::`RTTI Class Hierarchy Descriptor'
	DD	00H
	DD	01H
	DD	FLAT:??_R2?$CDynamicPoolEx@VCTextureAnimationCCWDecorator@NEffectUpdateDecorator@@@@8
rdata$r	ENDS
;	COMDAT ??_R0?AV?$CDynamicPoolEx@VCTextureAnimationCCWDecorator@NEffectUpdateDecorator@@@@@8
data$rs	SEGMENT
??_R0?AV?$CDynamicPoolEx@VCTextureAnimationCCWDecorator@NEffectUpdateDecorator@@@@@8 DD FLAT:??_7type_info@@6B@ ; CDynamicPoolEx<NEffectUpdateDecorator::CTextureAnimationCCWDecorator> `RTTI Type Descriptor'
	DD	00H
	DB	'.?AV?$CDynamicPoolEx@VCTextureAnimationCCWDecorator@NEff'
	DB	'ectUpdateDecorator@@@@', 00H
data$rs	ENDS
;	COMDAT ??_R4?$CDynamicPoolEx@VCTextureAnimationCCWDecorator@NEffectUpdateDecorator@@@@6B@
rdata$r	SEGMENT
??_R4?$CDynamicPoolEx@VCTextureAnimationCCWDecorator@NEffectUpdateDecorator@@@@6B@ DD 00H ; CDynamicPoolEx<NEffectUpdateDecorator::CTextureAnimationCCWDecorator>::`RTTI Complete Object Locator'
	DD	00H
	DD	00H
	DD	FLAT:??_R0?AV?$CDynamicPoolEx@VCTextureAnimationCCWDecorator@NEffectUpdateDecorator@@@@@8
	DD	FLAT:??_R3?$CDynamicPoolEx@VCTextureAnimationCCWDecorator@NEffectUpdateDecorator@@@@8
rdata$r	ENDS
;	COMDAT ??_R1A@?0A@EA@?$CDynamicPoolEx@VCTextureAnimationCWDecorator@NEffectUpdateDecorator@@@@8
rdata$r	SEGMENT
??_R1A@?0A@EA@?$CDynamicPoolEx@VCTextureAnimationCWDecorator@NEffectUpdateDecorator@@@@8 DD FLAT:??_R0?AV?$CDynamicPoolEx@VCTextureAnimationCWDecorator@NEffectUpdateDecorator@@@@@8 ; CDynamicPoolEx<NEffectUpdateDecorator::CTextureAnimationCWDecorator>::`RTTI Base Class Descriptor at (0,-1,0,64)'
	DD	00H
	DD	00H
	DD	0ffffffffH
	DD	00H
	DD	040H
	DD	FLAT:??_R3?$CDynamicPoolEx@VCTextureAnimationCWDecorator@NEffectUpdateDecorator@@@@8
rdata$r	ENDS
;	COMDAT ??_R2?$CDynamicPoolEx@VCTextureAnimationCWDecorator@NEffectUpdateDecorator@@@@8
rdata$r	SEGMENT
??_R2?$CDynamicPoolEx@VCTextureAnimationCWDecorator@NEffectUpdateDecorator@@@@8 DD FLAT:??_R1A@?0A@EA@?$CDynamicPoolEx@VCTextureAnimationCWDecorator@NEffectUpdateDecorator@@@@8 ; CDynamicPoolEx<NEffectUpdateDecorator::CTextureAnimationCWDecorator>::`RTTI Base Class Array'
rdata$r	ENDS
;	COMDAT ??_R3?$CDynamicPoolEx@VCTextureAnimationCWDecorator@NEffectUpdateDecorator@@@@8
rdata$r	SEGMENT
??_R3?$CDynamicPoolEx@VCTextureAnimationCWDecorator@NEffectUpdateDecorator@@@@8 DD 00H ; CDynamicPoolEx<NEffectUpdateDecorator::CTextureAnimationCWDecorator>::`RTTI Class Hierarchy Descriptor'
	DD	00H
	DD	01H
	DD	FLAT:??_R2?$CDynamicPoolEx@VCTextureAnimationCWDecorator@NEffectUpdateDecorator@@@@8
rdata$r	ENDS
;	COMDAT ??_R0?AV?$CDynamicPoolEx@VCTextureAnimationCWDecorator@NEffectUpdateDecorator@@@@@8
data$rs	SEGMENT
??_R0?AV?$CDynamicPoolEx@VCTextureAnimationCWDecorator@NEffectUpdateDecorator@@@@@8 DD FLAT:??_7type_info@@6B@ ; CDynamicPoolEx<NEffectUpdateDecorator::CTextureAnimationCWDecorator> `RTTI Type Descriptor'
	DD	00H
	DB	'.?AV?$CDynamicPoolEx@VCTextureAnimationCWDecorator@NEffe'
	DB	'ctUpdateDecorator@@@@', 00H
data$rs	ENDS
;	COMDAT ??_R4?$CDynamicPoolEx@VCTextureAnimationCWDecorator@NEffectUpdateDecorator@@@@6B@
rdata$r	SEGMENT
??_R4?$CDynamicPoolEx@VCTextureAnimationCWDecorator@NEffectUpdateDecorator@@@@6B@ DD 00H ; CDynamicPoolEx<NEffectUpdateDecorator::CTextureAnimationCWDecorator>::`RTTI Complete Object Locator'
	DD	00H
	DD	00H
	DD	FLAT:??_R0?AV?$CDynamicPoolEx@VCTextureAnimationCWDecorator@NEffectUpdateDecorator@@@@@8
	DD	FLAT:??_R3?$CDynamicPoolEx@VCTextureAnimationCWDecorator@NEffectUpdateDecorator@@@@8
rdata$r	ENDS
;	COMDAT ??_R1A@?0A@EA@?$CDynamicPoolEx@VCNullDecorator@NEffectUpdateDecorator@@@@8
rdata$r	SEGMENT
??_R1A@?0A@EA@?$CDynamicPoolEx@VCNullDecorator@NEffectUpdateDecorator@@@@8 DD FLAT:??_R0?AV?$CDynamicPoolEx@VCNullDecorator@NEffectUpdateDecorator@@@@@8 ; CDynamicPoolEx<NEffectUpdateDecorator::CNullDecorator>::`RTTI Base Class Descriptor at (0,-1,0,64)'
	DD	00H
	DD	00H
	DD	0ffffffffH
	DD	00H
	DD	040H
	DD	FLAT:??_R3?$CDynamicPoolEx@VCNullDecorator@NEffectUpdateDecorator@@@@8
rdata$r	ENDS
;	COMDAT ??_R2?$CDynamicPoolEx@VCNullDecorator@NEffectUpdateDecorator@@@@8
rdata$r	SEGMENT
??_R2?$CDynamicPoolEx@VCNullDecorator@NEffectUpdateDecorator@@@@8 DD FLAT:??_R1A@?0A@EA@?$CDynamicPoolEx@VCNullDecorator@NEffectUpdateDecorator@@@@8 ; CDynamicPoolEx<NEffectUpdateDecorator::CNullDecorator>::`RTTI Base Class Array'
rdata$r	ENDS
;	COMDAT ??_R3?$CDynamicPoolEx@VCNullDecorator@NEffectUpdateDecorator@@@@8
rdata$r	SEGMENT
??_R3?$CDynamicPoolEx@VCNullDecorator@NEffectUpdateDecorator@@@@8 DD 00H ; CDynamicPoolEx<NEffectUpdateDecorator::CNullDecorator>::`RTTI Class Hierarchy Descriptor'
	DD	00H
	DD	01H
	DD	FLAT:??_R2?$CDynamicPoolEx@VCNullDecorator@NEffectUpdateDecorator@@@@8
rdata$r	ENDS
;	COMDAT ??_R0?AV?$CDynamicPoolEx@VCNullDecorator@NEffectUpdateDecorator@@@@@8
data$rs	SEGMENT
??_R0?AV?$CDynamicPoolEx@VCNullDecorator@NEffectUpdateDecorator@@@@@8 DD FLAT:??_7type_info@@6B@ ; CDynamicPoolEx<NEffectUpdateDecorator::CNullDecorator> `RTTI Type Descriptor'
	DD	00H
	DB	'.?AV?$CDynamicPoolEx@VCNullDecorator@NEffectUpdateDecora'
	DB	'tor@@@@', 00H
data$rs	ENDS
;	COMDAT ??_R4?$CDynamicPoolEx@VCNullDecorator@NEffectUpdateDecorator@@@@6B@
rdata$r	SEGMENT
??_R4?$CDynamicPoolEx@VCNullDecorator@NEffectUpdateDecorator@@@@6B@ DD 00H ; CDynamicPoolEx<NEffectUpdateDecorator::CNullDecorator>::`RTTI Complete Object Locator'
	DD	00H
	DD	00H
	DD	FLAT:??_R0?AV?$CDynamicPoolEx@VCNullDecorator@NEffectUpdateDecorator@@@@@8
	DD	FLAT:??_R3?$CDynamicPoolEx@VCNullDecorator@NEffectUpdateDecorator@@@@8
rdata$r	ENDS
;	COMDAT ??_R1A@?0A@EA@?$CDynamicPoolEx@VCHeaderDecorator@NEffectUpdateDecorator@@@@8
rdata$r	SEGMENT
??_R1A@?0A@EA@?$CDynamicPoolEx@VCHeaderDecorator@NEffectUpdateDecorator@@@@8 DD FLAT:??_R0?AV?$CDynamicPoolEx@VCHeaderDecorator@NEffectUpdateDecorator@@@@@8 ; CDynamicPoolEx<NEffectUpdateDecorator::CHeaderDecorator>::`RTTI Base Class Descriptor at (0,-1,0,64)'
	DD	00H
	DD	00H
	DD	0ffffffffH
	DD	00H
	DD	040H
	DD	FLAT:??_R3?$CDynamicPoolEx@VCHeaderDecorator@NEffectUpdateDecorator@@@@8
rdata$r	ENDS
;	COMDAT ??_R2?$CDynamicPoolEx@VCHeaderDecorator@NEffectUpdateDecorator@@@@8
rdata$r	SEGMENT
??_R2?$CDynamicPoolEx@VCHeaderDecorator@NEffectUpdateDecorator@@@@8 DD FLAT:??_R1A@?0A@EA@?$CDynamicPoolEx@VCHeaderDecorator@NEffectUpdateDecorator@@@@8 ; CDynamicPoolEx<NEffectUpdateDecorator::CHeaderDecorator>::`RTTI Base Class Array'
rdata$r	ENDS
;	COMDAT ??_R3?$CDynamicPoolEx@VCHeaderDecorator@NEffectUpdateDecorator@@@@8
rdata$r	SEGMENT
??_R3?$CDynamicPoolEx@VCHeaderDecorator@NEffectUpdateDecorator@@@@8 DD 00H ; CDynamicPoolEx<NEffectUpdateDecorator::CHeaderDecorator>::`RTTI Class Hierarchy Descriptor'
	DD	00H
	DD	01H
	DD	FLAT:??_R2?$CDynamicPoolEx@VCHeaderDecorator@NEffectUpdateDecorator@@@@8
rdata$r	ENDS
;	COMDAT ??_R0?AV?$CDynamicPoolEx@VCHeaderDecorator@NEffectUpdateDecorator@@@@@8
data$rs	SEGMENT
??_R0?AV?$CDynamicPoolEx@VCHeaderDecorator@NEffectUpdateDecorator@@@@@8 DD FLAT:??_7type_info@@6B@ ; CDynamicPoolEx<NEffectUpdateDecorator::CHeaderDecorator> `RTTI Type Descriptor'
	DD	00H
	DB	'.?AV?$CDynamicPoolEx@VCHeaderDecorator@NEffectUpdateDeco'
	DB	'rator@@@@', 00H
data$rs	ENDS
;	COMDAT ??_R4?$CDynamicPoolEx@VCHeaderDecorator@NEffectUpdateDecorator@@@@6B@
rdata$r	SEGMENT
??_R4?$CDynamicPoolEx@VCHeaderDecorator@NEffectUpdateDecorator@@@@6B@ DD 00H ; CDynamicPoolEx<NEffectUpdateDecorator::CHeaderDecorator>::`RTTI Complete Object Locator'
	DD	00H
	DD	00H
	DD	FLAT:??_R0?AV?$CDynamicPoolEx@VCHeaderDecorator@NEffectUpdateDecorator@@@@@8
	DD	FLAT:??_R3?$CDynamicPoolEx@VCHeaderDecorator@NEffectUpdateDecorator@@@@8
rdata$r	ENDS
;	COMDAT ??_C@_0BA@FOIKENOD@vector?5too?5long@
CONST	SEGMENT
??_C@_0BA@FOIKENOD@vector?5too?5long@ DB 'vector too long', 00H ; `string'
CONST	ENDS
;	COMDAT ??_7?$CDynamicPoolEx@VCHeaderDecorator@NEffectUpdateDecorator@@@@6B@
CONST	SEGMENT
??_7?$CDynamicPoolEx@VCHeaderDecorator@NEffectUpdateDecorator@@@@6B@ DD FLAT:??_R4?$CDynamicPoolEx@VCHeaderDecorator@NEffectUpdateDecorator@@@@6B@ ; CDynamicPoolEx<NEffectUpdateDecorator::CHeaderDecorator>::`vftable'
	DD	FLAT:??_E?$CDynamicPoolEx@VCHeaderDecorator@NEffectUpdateDecorator@@@@UAEPAXI@Z
CONST	ENDS
;	COMDAT ??_7?$CDynamicPoolEx@VCNullDecorator@NEffectUpdateDecorator@@@@6B@
CONST	SEGMENT
??_7?$CDynamicPoolEx@VCNullDecorator@NEffectUpdateDecorator@@@@6B@ DD FLAT:??_R4?$CDynamicPoolEx@VCNullDecorator@NEffectUpdateDecorator@@@@6B@ ; CDynamicPoolEx<NEffectUpdateDecorator::CNullDecorator>::`vftable'
	DD	FLAT:??_E?$CDynamicPoolEx@VCNullDecorator@NEffectUpdateDecorator@@@@UAEPAXI@Z
CONST	ENDS
;	COMDAT ??_7?$CDynamicPoolEx@VCTextureAnimationCWDecorator@NEffectUpdateDecorator@@@@6B@
CONST	SEGMENT
??_7?$CDynamicPoolEx@VCTextureAnimationCWDecorator@NEffectUpdateDecorator@@@@6B@ DD FLAT:??_R4?$CDynamicPoolEx@VCTextureAnimationCWDecorator@NEffectUpdateDecorator@@@@6B@ ; CDynamicPoolEx<NEffectUpdateDecorator::CTextureAnimationCWDecorator>::`vftable'
	DD	FLAT:??_E?$CDynamicPoolEx@VCTextureAnimationCWDecorator@NEffectUpdateDecorator@@@@UAEPAXI@Z
CONST	ENDS
;	COMDAT ??_7?$CDynamicPoolEx@VCTextureAnimationCCWDecorator@NEffectUpdateDecorator@@@@6B@
CONST	SEGMENT
??_7?$CDynamicPoolEx@VCTextureAnimationCCWDecorator@NEffectUpdateDecorator@@@@6B@ DD FLAT:??_R4?$CDynamicPoolEx@VCTextureAnimationCCWDecorator@NEffectUpdateDecorator@@@@6B@ ; CDynamicPoolEx<NEffectUpdateDecorator::CTextureAnimationCCWDecorator>::`vftable'
	DD	FLAT:??_E?$CDynamicPoolEx@VCTextureAnimationCCWDecorator@NEffectUpdateDecorator@@@@UAEPAXI@Z
CONST	ENDS
;	COMDAT ??_7?$CDynamicPoolEx@VCTextureAnimationRandomDecorator@NEffectUpdateDecorator@@@@6B@
CONST	SEGMENT
??_7?$CDynamicPoolEx@VCTextureAnimationRandomDecorator@NEffectUpdateDecorator@@@@6B@ DD FLAT:??_R4?$CDynamicPoolEx@VCTextureAnimationRandomDecorator@NEffectUpdateDecorator@@@@6B@ ; CDynamicPoolEx<NEffectUpdateDecorator::CTextureAnimationRandomDecorator>::`vftable'
	DD	FLAT:??_E?$CDynamicPoolEx@VCTextureAnimationRandomDecorator@NEffectUpdateDecorator@@@@UAEPAXI@Z
CONST	ENDS
;	COMDAT ??_7?$CDynamicPoolEx@VCAirResistanceDecorator@NEffectUpdateDecorator@@@@6B@
CONST	SEGMENT
??_7?$CDynamicPoolEx@VCAirResistanceDecorator@NEffectUpdateDecorator@@@@6B@ DD FLAT:??_R4?$CDynamicPoolEx@VCAirResistanceDecorator@NEffectUpdateDecorator@@@@6B@ ; CDynamicPoolEx<NEffectUpdateDecorator::CAirResistanceDecorator>::`vftable'
	DD	FLAT:??_E?$CDynamicPoolEx@VCAirResistanceDecorator@NEffectUpdateDecorator@@@@UAEPAXI@Z
CONST	ENDS
;	COMDAT ??_7?$CDynamicPoolEx@VCGravityDecorator@NEffectUpdateDecorator@@@@6B@
CONST	SEGMENT
??_7?$CDynamicPoolEx@VCGravityDecorator@NEffectUpdateDecorator@@@@6B@ DD FLAT:??_R4?$CDynamicPoolEx@VCGravityDecorator@NEffectUpdateDecorator@@@@6B@ ; CDynamicPoolEx<NEffectUpdateDecorator::CGravityDecorator>::`vftable'
	DD	FLAT:??_E?$CDynamicPoolEx@VCGravityDecorator@NEffectUpdateDecorator@@@@UAEPAXI@Z
CONST	ENDS
;	COMDAT ??_7?$CDynamicPoolEx@VCRotationDecorator@NEffectUpdateDecorator@@@@6B@
CONST	SEGMENT
??_7?$CDynamicPoolEx@VCRotationDecorator@NEffectUpdateDecorator@@@@6B@ DD FLAT:??_R4?$CDynamicPoolEx@VCRotationDecorator@NEffectUpdateDecorator@@@@6B@ ; CDynamicPoolEx<NEffectUpdateDecorator::CRotationDecorator>::`vftable'
	DD	FLAT:??_E?$CDynamicPoolEx@VCRotationDecorator@NEffectUpdateDecorator@@@@UAEPAXI@Z
CONST	ENDS
;	COMDAT ??_7?$CDynamicPool@VCParticleInstance@@@@6B@
CONST	SEGMENT
??_7?$CDynamicPool@VCParticleInstance@@@@6B@ DD FLAT:??_R4?$CDynamicPool@VCParticleInstance@@@@6B@ ; CDynamicPool<CParticleInstance>::`vftable'
	DD	FLAT:??_E?$CDynamicPool@VCParticleInstance@@@@UAEPAXI@Z
CONST	ENDS
;	COMDAT ??_R1A@?0A@EA@bad_array_new_length@std@@8
rdata$r	SEGMENT
??_R1A@?0A@EA@bad_array_new_length@std@@8 DD FLAT:??_R0?AVbad_array_new_length@std@@@8 ; std::bad_array_new_length::`RTTI Base Class Descriptor at (0,-1,0,64)'
	DD	02H
	DD	00H
	DD	0ffffffffH
	DD	00H
	DD	040H
	DD	FLAT:??_R3bad_array_new_length@std@@8
rdata$r	ENDS
;	COMDAT ??_R2bad_array_new_length@std@@8
rdata$r	SEGMENT
??_R2bad_array_new_length@std@@8 DD FLAT:??_R1A@?0A@EA@bad_array_new_length@std@@8 ; std::bad_array_new_length::`RTTI Base Class Array'
	DD	FLAT:??_R1A@?0A@EA@bad_alloc@std@@8
	DD	FLAT:??_R1A@?0A@EA@exception@std@@8
rdata$r	ENDS
;	COMDAT ??_R3bad_array_new_length@std@@8
rdata$r	SEGMENT
??_R3bad_array_new_length@std@@8 DD 00H			; std::bad_array_new_length::`RTTI Class Hierarchy Descriptor'
	DD	00H
	DD	03H
	DD	FLAT:??_R2bad_array_new_length@std@@8
rdata$r	ENDS
;	COMDAT ??_R4bad_array_new_length@std@@6B@
rdata$r	SEGMENT
??_R4bad_array_new_length@std@@6B@ DD 00H		; std::bad_array_new_length::`RTTI Complete Object Locator'
	DD	00H
	DD	00H
	DD	FLAT:??_R0?AVbad_array_new_length@std@@@8
	DD	FLAT:??_R3bad_array_new_length@std@@8
rdata$r	ENDS
;	COMDAT ??_R1A@?0A@EA@bad_alloc@std@@8
rdata$r	SEGMENT
??_R1A@?0A@EA@bad_alloc@std@@8 DD FLAT:??_R0?AVbad_alloc@std@@@8 ; std::bad_alloc::`RTTI Base Class Descriptor at (0,-1,0,64)'
	DD	01H
	DD	00H
	DD	0ffffffffH
	DD	00H
	DD	040H
	DD	FLAT:??_R3bad_alloc@std@@8
rdata$r	ENDS
;	COMDAT ??_R2bad_alloc@std@@8
rdata$r	SEGMENT
??_R2bad_alloc@std@@8 DD FLAT:??_R1A@?0A@EA@bad_alloc@std@@8 ; std::bad_alloc::`RTTI Base Class Array'
	DD	FLAT:??_R1A@?0A@EA@exception@std@@8
rdata$r	ENDS
;	COMDAT ??_R3bad_alloc@std@@8
rdata$r	SEGMENT
??_R3bad_alloc@std@@8 DD 00H				; std::bad_alloc::`RTTI Class Hierarchy Descriptor'
	DD	00H
	DD	02H
	DD	FLAT:??_R2bad_alloc@std@@8
rdata$r	ENDS
;	COMDAT ??_R4bad_alloc@std@@6B@
rdata$r	SEGMENT
??_R4bad_alloc@std@@6B@ DD 00H				; std::bad_alloc::`RTTI Complete Object Locator'
	DD	00H
	DD	00H
	DD	FLAT:??_R0?AVbad_alloc@std@@@8
	DD	FLAT:??_R3bad_alloc@std@@8
rdata$r	ENDS
;	COMDAT ??_R1A@?0A@EA@exception@std@@8
rdata$r	SEGMENT
??_R1A@?0A@EA@exception@std@@8 DD FLAT:??_R0?AVexception@std@@@8 ; std::exception::`RTTI Base Class Descriptor at (0,-1,0,64)'
	DD	00H
	DD	00H
	DD	0ffffffffH
	DD	00H
	DD	040H
	DD	FLAT:??_R3exception@std@@8
rdata$r	ENDS
;	COMDAT ??_R2exception@std@@8
rdata$r	SEGMENT
??_R2exception@std@@8 DD FLAT:??_R1A@?0A@EA@exception@std@@8 ; std::exception::`RTTI Base Class Array'
rdata$r	ENDS
;	COMDAT ??_R3exception@std@@8
rdata$r	SEGMENT
??_R3exception@std@@8 DD 00H				; std::exception::`RTTI Class Hierarchy Descriptor'
	DD	00H
	DD	01H
	DD	FLAT:??_R2exception@std@@8
rdata$r	ENDS
;	COMDAT ??_R4exception@std@@6B@
rdata$r	SEGMENT
??_R4exception@std@@6B@ DD 00H				; std::exception::`RTTI Complete Object Locator'
	DD	00H
	DD	00H
	DD	FLAT:??_R0?AVexception@std@@@8
	DD	FLAT:??_R3exception@std@@8
rdata$r	ENDS
;	COMDAT __CT??_R0?AVexception@std@@@8??0exception@std@@QAE@ABV01@@Z12
xdata$x	SEGMENT
__CT??_R0?AVexception@std@@@8??0exception@std@@QAE@ABV01@@Z12 DD 00H
	DD	FLAT:??_R0?AVexception@std@@@8
	DD	00H
	DD	0ffffffffH
	ORG $+4
	DD	0cH
	DD	FLAT:??0exception@std@@QAE@ABV01@@Z
xdata$x	ENDS
;	COMDAT ??_R0?AVexception@std@@@8
data$r	SEGMENT
??_R0?AVexception@std@@@8 DD FLAT:??_7type_info@@6B@	; std::exception `RTTI Type Descriptor'
	DD	00H
	DB	'.?AVexception@std@@', 00H
data$r	ENDS
;	COMDAT __CT??_R0?AVbad_alloc@std@@@8??0bad_alloc@std@@QAE@ABV01@@Z12
xdata$x	SEGMENT
__CT??_R0?AVbad_alloc@std@@@8??0bad_alloc@std@@QAE@ABV01@@Z12 DD 010H
	DD	FLAT:??_R0?AVbad_alloc@std@@@8
	DD	00H
	DD	0ffffffffH
	ORG $+4
	DD	0cH
	DD	FLAT:??0bad_alloc@std@@QAE@ABV01@@Z
xdata$x	ENDS
;	COMDAT ??_R0?AVbad_alloc@std@@@8
data$r	SEGMENT
??_R0?AVbad_alloc@std@@@8 DD FLAT:??_7type_info@@6B@	; std::bad_alloc `RTTI Type Descriptor'
	DD	00H
	DB	'.?AVbad_alloc@std@@', 00H
data$r	ENDS
;	COMDAT __CT??_R0?AVbad_array_new_length@std@@@8??0bad_array_new_length@std@@QAE@ABV01@@Z12
xdata$x	SEGMENT
__CT??_R0?AVbad_array_new_length@std@@@8??0bad_array_new_length@std@@QAE@ABV01@@Z12 DD 00H
	DD	FLAT:??_R0?AVbad_array_new_length@std@@@8
	DD	00H
	DD	0ffffffffH
	ORG $+4
	DD	0cH
	DD	FLAT:??0bad_array_new_length@std@@QAE@ABV01@@Z
xdata$x	ENDS
;	COMDAT ??_R0?AVbad_array_new_length@std@@@8
data$r	SEGMENT
??_R0?AVbad_array_new_length@std@@@8 DD FLAT:??_7type_info@@6B@ ; std::bad_array_new_length `RTTI Type Descriptor'
	DD	00H
	DB	'.?AVbad_array_new_length@std@@', 00H
data$r	ENDS
;	COMDAT __CTA3?AVbad_array_new_length@std@@
xdata$x	SEGMENT
__CTA3?AVbad_array_new_length@std@@ DD 03H
	DD	FLAT:__CT??_R0?AVbad_array_new_length@std@@@8??0bad_array_new_length@std@@QAE@ABV01@@Z12
	DD	FLAT:__CT??_R0?AVbad_alloc@std@@@8??0bad_alloc@std@@QAE@ABV01@@Z12
	DD	FLAT:__CT??_R0?AVexception@std@@@8??0exception@std@@QAE@ABV01@@Z12
xdata$x	ENDS
;	COMDAT __TI3?AVbad_array_new_length@std@@
xdata$x	SEGMENT
__TI3?AVbad_array_new_length@std@@ DD 00H
	DD	FLAT:??1bad_array_new_length@std@@UAE@XZ
	DD	00H
	DD	FLAT:__CTA3?AVbad_array_new_length@std@@
xdata$x	ENDS
;	COMDAT ??_C@_0BF@KINCDENJ@bad?5array?5new?5length@
CONST	SEGMENT
??_C@_0BF@KINCDENJ@bad?5array?5new?5length@ DB 'bad array new length', 00H ; `string'
CONST	ENDS
;	COMDAT ??_7bad_array_new_length@std@@6B@
CONST	SEGMENT
??_7bad_array_new_length@std@@6B@ DD FLAT:??_R4bad_array_new_length@std@@6B@ ; std::bad_array_new_length::`vftable'
	DD	FLAT:??_Ebad_array_new_length@std@@UAEPAXI@Z
	DD	FLAT:?what@exception@std@@UBEPBDXZ
CONST	ENDS
;	COMDAT ??_7bad_alloc@std@@6B@
CONST	SEGMENT
??_7bad_alloc@std@@6B@ DD FLAT:??_R4bad_alloc@std@@6B@	; std::bad_alloc::`vftable'
	DD	FLAT:??_Ebad_alloc@std@@UAEPAXI@Z
	DD	FLAT:?what@exception@std@@UBEPBDXZ
CONST	ENDS
;	COMDAT ??_C@_0BC@EOODALEL@Unknown?5exception@
CONST	SEGMENT
??_C@_0BC@EOODALEL@Unknown?5exception@ DB 'Unknown exception', 00H ; `string'
CONST	ENDS
;	COMDAT ??_7exception@std@@6B@
CONST	SEGMENT
??_7exception@std@@6B@ DD FLAT:??_R4exception@std@@6B@	; std::exception::`vftable'
	DD	FLAT:??_Eexception@std@@UAEPAXI@Z
	DD	FLAT:?what@exception@std@@UBEPBDXZ
CONST	ENDS
;	COMDAT xdata$x
xdata$x	SEGMENT
__catchsym$??$_Emplace_reallocate@ABQAVCParticleInstance@@@?$vector@PAVCParticleInstance@@V?$allocator@PAVCParticleInstance@@@std@@@std@@QAEPAPAVCParticleInstance@@QAPAV2@ABQAV2@@Z$32 DD 040H
	DD	00H
	DD	00H
	DD	FLAT:__catch$??$_Emplace_reallocate@ABQAVCParticleInstance@@@?$vector@PAVCParticleInstance@@V?$allocator@PAVCParticleInstance@@@std@@@std@@QAEPAPAVCParticleInstance@@QAPAV2@ABQAV2@@Z$0
__unwindtable$??$_Emplace_reallocate@ABQAVCParticleInstance@@@?$vector@PAVCParticleInstance@@V?$allocator@PAVCParticleInstance@@@std@@@std@@QAEPAPAVCParticleInstance@@QAPAV2@ABQAV2@@Z DD 0ffffffffH
	DD	00H
	DD	0ffffffffH
	DD	00H
__tryblocktable$??$_Emplace_reallocate@ABQAVCParticleInstance@@@?$vector@PAVCParticleInstance@@V?$allocator@PAVCParticleInstance@@@std@@@std@@QAEPAPAVCParticleInstance@@QAPAV2@ABQAV2@@Z DD 00H
	DD	00H
	DD	01H
	DD	01H
	DD	FLAT:__catchsym$??$_Emplace_reallocate@ABQAVCParticleInstance@@@?$vector@PAVCParticleInstance@@V?$allocator@PAVCParticleInstance@@@std@@@std@@QAEPAPAVCParticleInstance@@QAPAV2@ABQAV2@@Z$32
__ehfuncinfo$??$_Emplace_reallocate@ABQAVCParticleInstance@@@?$vector@PAVCParticleInstance@@V?$allocator@PAVCParticleInstance@@@std@@@std@@QAEPAPAVCParticleInstance@@QAPAV2@ABQAV2@@Z DD 019930522H
	DD	02H
	DD	FLAT:__unwindtable$??$_Emplace_reallocate@ABQAVCParticleInstance@@@?$vector@PAVCParticleInstance@@V?$allocator@PAVCParticleInstance@@@std@@@std@@QAEPAPAVCParticleInstance@@QAPAV2@ABQAV2@@Z
	DD	01H
	DD	FLAT:__tryblocktable$??$_Emplace_reallocate@ABQAVCParticleInstance@@@?$vector@PAVCParticleInstance@@V?$allocator@PAVCParticleInstance@@@std@@@std@@QAEPAPAVCParticleInstance@@QAPAV2@ABQAV2@@Z
	DD	2 DUP(00H)
	DD	00H
	DD	01H
xdata$x	ENDS
;	COMDAT xdata$x
xdata$x	SEGMENT
__ehfuncinfo$??1?$CDynamicPoolEx@VCHeaderDecorator@NEffectUpdateDecorator@@@@UAE@XZ DD 019930522H
	DD	00H
	DD	00H
	DD	2 DUP(00H)
	DD	2 DUP(00H)
	DD	00H
	DD	05H
xdata$x	ENDS
;	COMDAT xdata$x
xdata$x	SEGMENT
__ehfuncinfo$??1?$CDynamicPoolEx@VCNullDecorator@NEffectUpdateDecorator@@@@UAE@XZ DD 019930522H
	DD	00H
	DD	00H
	DD	2 DUP(00H)
	DD	2 DUP(00H)
	DD	00H
	DD	05H
xdata$x	ENDS
;	COMDAT xdata$x
xdata$x	SEGMENT
__ehfuncinfo$??1?$CDynamicPoolEx@VCTextureAnimationCWDecorator@NEffectUpdateDecorator@@@@UAE@XZ DD 019930522H
	DD	00H
	DD	00H
	DD	2 DUP(00H)
	DD	2 DUP(00H)
	DD	00H
	DD	05H
xdata$x	ENDS
;	COMDAT xdata$x
xdata$x	SEGMENT
__ehfuncinfo$??1?$CDynamicPoolEx@VCTextureAnimationCCWDecorator@NEffectUpdateDecorator@@@@UAE@XZ DD 019930522H
	DD	00H
	DD	00H
	DD	2 DUP(00H)
	DD	2 DUP(00H)
	DD	00H
	DD	05H
xdata$x	ENDS
;	COMDAT xdata$x
xdata$x	SEGMENT
__ehfuncinfo$??1?$CDynamicPoolEx@VCTextureAnimationRandomDecorator@NEffectUpdateDecorator@@@@UAE@XZ DD 019930522H
	DD	00H
	DD	00H
	DD	2 DUP(00H)
	DD	2 DUP(00H)
	DD	00H
	DD	05H
xdata$x	ENDS
;	COMDAT xdata$x
xdata$x	SEGMENT
__ehfuncinfo$??1?$CDynamicPoolEx@VCAirResistanceDecorator@NEffectUpdateDecorator@@@@UAE@XZ DD 019930522H
	DD	00H
	DD	00H
	DD	2 DUP(00H)
	DD	2 DUP(00H)
	DD	00H
	DD	05H
xdata$x	ENDS
;	COMDAT xdata$x
xdata$x	SEGMENT
__ehfuncinfo$??1?$CDynamicPoolEx@VCGravityDecorator@NEffectUpdateDecorator@@@@UAE@XZ DD 019930522H
	DD	00H
	DD	00H
	DD	2 DUP(00H)
	DD	2 DUP(00H)
	DD	00H
	DD	05H
xdata$x	ENDS
;	COMDAT xdata$x
xdata$x	SEGMENT
__ehfuncinfo$??1?$CDynamicPoolEx@VCRotationDecorator@NEffectUpdateDecorator@@@@UAE@XZ DD 019930522H
	DD	00H
	DD	00H
	DD	2 DUP(00H)
	DD	2 DUP(00H)
	DD	00H
	DD	05H
xdata$x	ENDS
;	COMDAT xdata$x
xdata$x	SEGMENT
__unwindtable$?Alloc@?$CDynamicPool@VCParticleInstance@@@@QAEPAVCParticleInstance@@XZ DD 0ffffffffH
	DD	FLAT:__unwindfunclet$?Alloc@?$CDynamicPool@VCParticleInstance@@@@QAEPAVCParticleInstance@@XZ$0
__ehfuncinfo$?Alloc@?$CDynamicPool@VCParticleInstance@@@@QAEPAVCParticleInstance@@XZ DD 019930522H
	DD	01H
	DD	FLAT:__unwindtable$?Alloc@?$CDynamicPool@VCParticleInstance@@@@QAEPAVCParticleInstance@@XZ
	DD	2 DUP(00H)
	DD	2 DUP(00H)
	DD	00H
	DD	01H
xdata$x	ENDS
;	COMDAT xdata$x
xdata$x	SEGMENT
__ehfuncinfo$??1CParticleInstance@@QAE@XZ DD 019930522H
	DD	00H
	DD	00H
	DD	2 DUP(00H)
	DD	2 DUP(00H)
	DD	00H
	DD	05H
xdata$x	ENDS
;	COMDAT xdata$x
xdata$x	SEGMENT
__ehfuncinfo$??$_Deallocate@$07$0A@@std@@YAXPAXI@Z DD 019930522H
	DD	00H
	DD	00H
	DD	2 DUP(00H)
	DD	2 DUP(00H)
	DD	00H
	DD	05H
xdata$x	ENDS
;	COMDAT CRT$XCU
CRT$XCU	SEGMENT
??ms_kPool$initializer$@?$CPooledObject@VCHeaderDecorator@NEffectUpdateDecorator@@@@1P6AXXZA@@3P6AXXZA DD FLAT:??__E?ms_kPool@?$CPooledObject@VCHeaderDecorator@NEffectUpdateDecorator@@@@1V?$CDynamicPoolEx@VCHeaderDecorator@NEffectUpdateDecorator@@@@A@@YAXXZ ; ??ms_kPool$initializer$@?$CPooledObject@VCHeaderDecorator@NEffectUpdateDecorator@@@@1P6AXXZA@@3P6AXXZA
CRT$XCU	ENDS
;	COMDAT CRT$XCU
CRT$XCU	SEGMENT
??ms_kPool$initializer$@?$CPooledObject@VCNullDecorator@NEffectUpdateDecorator@@@@1P6AXXZA@@3P6AXXZA DD FLAT:??__E?ms_kPool@?$CPooledObject@VCNullDecorator@NEffectUpdateDecorator@@@@1V?$CDynamicPoolEx@VCNullDecorator@NEffectUpdateDecorator@@@@A@@YAXXZ ; ??ms_kPool$initializer$@?$CPooledObject@VCNullDecorator@NEffectUpdateDecorator@@@@1P6AXXZA@@3P6AXXZA
CRT$XCU	ENDS
;	COMDAT CRT$XCU
CRT$XCU	SEGMENT
??ms_kPool$initializer$@?$CPooledObject@VCTextureAnimationCWDecorator@NEffectUpdateDecorator@@@@1P6AXXZA@@3P6AXXZA DD FLAT:??__E?ms_kPool@?$CPooledObject@VCTextureAnimationCWDecorator@NEffectUpdateDecorator@@@@1V?$CDynamicPoolEx@VCTextureAnimationCWDecorator@NEffectUpdateDecorator@@@@A@@YAXXZ ; ??ms_kPool$initializer$@?$CPooledObject@VCTextureAnimationCWDecorator@NEffectUpdateDecorator@@@@1P6AXXZA@@3P6AXXZA
CRT$XCU	ENDS
;	COMDAT CRT$XCU
CRT$XCU	SEGMENT
??ms_kPool$initializer$@?$CPooledObject@VCTextureAnimationCCWDecorator@NEffectUpdateDecorator@@@@1P6AXXZA@@3P6AXXZA DD FLAT:??__E?ms_kPool@?$CPooledObject@VCTextureAnimationCCWDecorator@NEffectUpdateDecorator@@@@1V?$CDynamicPoolEx@VCTextureAnimationCCWDecorator@NEffectUpdateDecorator@@@@A@@YAXXZ ; ??ms_kPool$initializer$@?$CPooledObject@VCTextureAnimationCCWDecorator@NEffectUpdateDecorator@@@@1P6AXXZA@@3P6AXXZA
CRT$XCU	ENDS
;	COMDAT CRT$XCU
CRT$XCU	SEGMENT
??ms_kPool$initializer$@?$CPooledObject@VCTextureAnimationRandomDecorator@NEffectUpdateDecorator@@@@1P6AXXZA@@3P6AXXZA DD FLAT:??__E?ms_kPool@?$CPooledObject@VCTextureAnimationRandomDecorator@NEffectUpdateDecorator@@@@1V?$CDynamicPoolEx@VCTextureAnimationRandomDecorator@NEffectUpdateDecorator@@@@A@@YAXXZ ; ??ms_kPool$initializer$@?$CPooledObject@VCTextureAnimationRandomDecorator@NEffectUpdateDecorator@@@@1P6AXXZA@@3P6AXXZA
CRT$XCU	ENDS
;	COMDAT CRT$XCU
CRT$XCU	SEGMENT
??ms_kPool$initializer$@?$CPooledObject@VCAirResistanceDecorator@NEffectUpdateDecorator@@@@1P6AXXZA@@3P6AXXZA DD FLAT:??__E?ms_kPool@?$CPooledObject@VCAirResistanceDecorator@NEffectUpdateDecorator@@@@1V?$CDynamicPoolEx@VCAirResistanceDecorator@NEffectUpdateDecorator@@@@A@@YAXXZ ; ??ms_kPool$initializer$@?$CPooledObject@VCAirResistanceDecorator@NEffectUpdateDecorator@@@@1P6AXXZA@@3P6AXXZA
CRT$XCU	ENDS
;	COMDAT CRT$XCU
CRT$XCU	SEGMENT
??ms_kPool$initializer$@?$CPooledObject@VCGravityDecorator@NEffectUpdateDecorator@@@@1P6AXXZA@@3P6AXXZA DD FLAT:??__E?ms_kPool@?$CPooledObject@VCGravityDecorator@NEffectUpdateDecorator@@@@1V?$CDynamicPoolEx@VCGravityDecorator@NEffectUpdateDecorator@@@@A@@YAXXZ ; ??ms_kPool$initializer$@?$CPooledObject@VCGravityDecorator@NEffectUpdateDecorator@@@@1P6AXXZA@@3P6AXXZA
CRT$XCU	ENDS
;	COMDAT CRT$XCU
CRT$XCU	SEGMENT
??ms_kPool$initializer$@?$CPooledObject@VCRotationDecorator@NEffectUpdateDecorator@@@@1P6AXXZA@@3P6AXXZA DD FLAT:??__E?ms_kPool@?$CPooledObject@VCRotationDecorator@NEffectUpdateDecorator@@@@1V?$CDynamicPoolEx@VCRotationDecorator@NEffectUpdateDecorator@@@@A@@YAXXZ ; ??ms_kPool$initializer$@?$CPooledObject@VCRotationDecorator@NEffectUpdateDecorator@@@@1P6AXXZA@@3P6AXXZA
CRT$XCU	ENDS
; Function compile flags: /Odspy
; File C:\Program Files (x86)\Microsoft Visual Studio\2019\Community\VC\Tools\MSVC\14.28.29333\include\xutility
;	COMDAT ??$_Copy_memmove@PAPAVCParticleInstance@@PAPAV1@@std@@YAPAPAVCParticleInstance@@PAPAV1@00@Z
_TEXT	SEGMENT
__Last_ch$ = -16					; size = 4
__Count$ = -12						; size = 4
__Dest_ch$ = -8						; size = 4
__First_ch$ = -4					; size = 4
__First$ = 8						; size = 4
__Last$ = 12						; size = 4
__Dest$ = 16						; size = 4
??$_Copy_memmove@PAPAVCParticleInstance@@PAPAV1@@std@@YAPAPAVCParticleInstance@@PAPAV1@00@Z PROC ; std::_Copy_memmove<CParticleInstance * *,CParticleInstance * *>, COMDAT

; 4360 : _OutIt _Copy_memmove(_InIt _First, _InIt _Last, _OutIt _Dest) {

  00000	55		 push	 ebp
  00001	8b ec		 mov	 ebp, esp
  00003	83 ec 10	 sub	 esp, 16			; 00000010H

; 4361 :     const char* const _First_ch = const_cast<const char*>(reinterpret_cast<const volatile char*>(_First));

  00006	8b 45 08	 mov	 eax, DWORD PTR __First$[ebp]
  00009	89 45 fc	 mov	 DWORD PTR __First_ch$[ebp], eax

; 4362 :     const char* const _Last_ch  = const_cast<const char*>(reinterpret_cast<const volatile char*>(_Last));

  0000c	8b 45 0c	 mov	 eax, DWORD PTR __Last$[ebp]
  0000f	89 45 f0	 mov	 DWORD PTR __Last_ch$[ebp], eax

; 4363 :     char* const _Dest_ch        = const_cast<char*>(reinterpret_cast<volatile char*>(_Dest));

  00012	8b 45 10	 mov	 eax, DWORD PTR __Dest$[ebp]
  00015	89 45 f8	 mov	 DWORD PTR __Dest_ch$[ebp], eax

; 4364 :     const auto _Count           = static_cast<size_t>(_Last_ch - _First_ch);

  00018	8b 45 f0	 mov	 eax, DWORD PTR __Last_ch$[ebp]
  0001b	2b 45 fc	 sub	 eax, DWORD PTR __First_ch$[ebp]
  0001e	89 45 f4	 mov	 DWORD PTR __Count$[ebp], eax

; 4365 :     _CSTD memmove(_Dest_ch, _First_ch, _Count);

  00021	ff 75 f4	 push	 DWORD PTR __Count$[ebp]
  00024	ff 75 fc	 push	 DWORD PTR __First_ch$[ebp]
  00027	ff 75 f8	 push	 DWORD PTR __Dest_ch$[ebp]
  0002a	e8 00 00 00 00	 call	 _memmove
  0002f	83 c4 0c	 add	 esp, 12			; 0000000cH

; 4366 :     return reinterpret_cast<_OutIt>(_Dest_ch + _Count);

  00032	8b 45 f8	 mov	 eax, DWORD PTR __Dest_ch$[ebp]
  00035	03 45 f4	 add	 eax, DWORD PTR __Count$[ebp]

; 4367 : }

  00038	c9		 leave
  00039	c3		 ret	 0
??$_Copy_memmove@PAPAVCParticleInstance@@PAPAV1@@std@@YAPAPAVCParticleInstance@@PAPAV1@00@Z ENDP ; std::_Copy_memmove<CParticleInstance * *,CParticleInstance * *>
_TEXT	ENDS
; Function compile flags: /Odspy
; File C:\Program Files (x86)\Microsoft Visual Studio\2019\Community\VC\Tools\MSVC\14.28.29333\include\xmemory
; File C:\Program Files (x86)\Microsoft Visual Studio\2019\Community\VC\Tools\MSVC\14.28.29333\include\xstddef
; File C:\Program Files (x86)\Microsoft Visual Studio\2019\Community\VC\Tools\MSVC\14.28.29333\include\xmemory
;	COMDAT ??$_Uninitialized_move@PAPAVCParticleInstance@@V?$allocator@PAVCParticleInstance@@@std@@@std@@YAPAPAVCParticleInstance@@QAPAV1@0PAPAV1@AAV?$allocator@PAVCParticleInstance@@@0@@Z
_TEXT	SEGMENT
$T1 = -12						; size = 4
__UFirst$ = -8						; size = 4
__ULast$ = -4						; size = 4
__First$ = 8						; size = 4
__Last$ = 12						; size = 4
__Dest$ = 16						; size = 4
__Al$ = 20						; size = 4
??$_Uninitialized_move@PAPAVCParticleInstance@@V?$allocator@PAVCParticleInstance@@@std@@@std@@YAPAPAVCParticleInstance@@QAPAV1@0PAPAV1@AAV?$allocator@PAVCParticleInstance@@@0@@Z PROC ; std::_Uninitialized_move<CParticleInstance * *,std::allocator<CParticleInstance *> >, COMDAT

; 1685 :     const _InIt _First, const _InIt _Last, _Alloc_ptr_t<_Alloc> _Dest, _Alloc& _Al) {

  00000	55		 push	 ebp
  00001	8b ec		 mov	 ebp, esp
  00003	83 ec 0c	 sub	 esp, 12			; 0000000cH

; 1686 :     // move [_First, _Last) to raw _Dest, using _Al
; 1687 :     // note: only called internally from elsewhere in the STL
; 1688 :     using _Ptrval     = typename _Alloc::value_type*;
; 1689 :     auto _UFirst      = _Get_unwrapped(_First);

  00006	8b 45 08	 mov	 eax, DWORD PTR __First$[ebp]
  00009	89 45 f8	 mov	 DWORD PTR __UFirst$[ebp], eax

; 1690 :     const auto _ULast = _Get_unwrapped(_Last);

  0000c	8b 45 0c	 mov	 eax, DWORD PTR __Last$[ebp]
  0000f	89 45 fc	 mov	 DWORD PTR __ULast$[ebp], eax
; File C:\Program Files (x86)\Microsoft Visual Studio\2019\Community\VC\Tools\MSVC\14.28.29333\include\xstddef

; 289  :     return _Ptr;

  00012	8b 45 10	 mov	 eax, DWORD PTR __Dest$[ebp]
  00015	89 45 f4	 mov	 DWORD PTR $T1[ebp], eax
; File C:\Program Files (x86)\Microsoft Visual Studio\2019\Community\VC\Tools\MSVC\14.28.29333\include\xmemory

; 1693 :         _Copy_memmove(_UFirst, _ULast, _Unfancy(_Dest));

  00018	ff 75 f4	 push	 DWORD PTR $T1[ebp]
  0001b	ff 75 fc	 push	 DWORD PTR __ULast$[ebp]
  0001e	ff 75 f8	 push	 DWORD PTR __UFirst$[ebp]
  00021	e8 00 00 00 00	 call	 ??$_Copy_memmove@PAPAVCParticleInstance@@PAPAV1@@std@@YAPAPAVCParticleInstance@@PAPAV1@00@Z ; std::_Copy_memmove<CParticleInstance * *,CParticleInstance * *>
  00026	83 c4 0c	 add	 esp, 12			; 0000000cH

; 1694 :         return _Dest + (_ULast - _UFirst);

  00029	8b 45 fc	 mov	 eax, DWORD PTR __ULast$[ebp]
  0002c	2b 45 f8	 sub	 eax, DWORD PTR __UFirst$[ebp]
  0002f	c1 f8 02	 sar	 eax, 2
  00032	8b 4d 10	 mov	 ecx, DWORD PTR __Dest$[ebp]
  00035	8d 04 81	 lea	 eax, DWORD PTR [ecx+eax*4]

; 1695 :     } else {
; 1696 :         _Uninitialized_backout_al<_Alloc> _Backout{_Dest, _Al};
; 1697 :         for (; _UFirst != _ULast; ++_UFirst) {
; 1698 :             _Backout._Emplace_back(_STD move(*_UFirst));
; 1699 :         }
; 1700 : 
; 1701 :         return _Backout._Release();
; 1702 :     }
; 1703 : }

  00038	c9		 leave
  00039	c3		 ret	 0
??$_Uninitialized_move@PAPAVCParticleInstance@@V?$allocator@PAVCParticleInstance@@@std@@@std@@YAPAPAVCParticleInstance@@QAPAV1@0PAPAV1@AAV?$allocator@PAVCParticleInstance@@@0@@Z ENDP ; std::_Uninitialized_move<CParticleInstance * *,std::allocator<CParticleInstance *> >
_TEXT	ENDS
; Function compile flags: /Odspy
;	COMDAT ??__F?ms_kPool@?$CPooledObject@VCRotationDecorator@NEffectUpdateDecorator@@@@1V?$CDynamicPoolEx@VCRotationDecorator@NEffectUpdateDecorator@@@@A@@YAXXZ
text$yd	SEGMENT
??__F?ms_kPool@?$CPooledObject@VCRotationDecorator@NEffectUpdateDecorator@@@@1V?$CDynamicPoolEx@VCRotationDecorator@NEffectUpdateDecorator@@@@A@@YAXXZ PROC ; `dynamic atexit destructor for 'CPooledObject<NEffectUpdateDecorator::CRotationDecorator>::ms_kPool'', COMDAT
  00000	55		 push	 ebp
  00001	8b ec		 mov	 ebp, esp
  00003	b9 00 00 00 00	 mov	 ecx, OFFSET ?ms_kPool@?$CPooledObject@VCRotationDecorator@NEffectUpdateDecorator@@@@1V?$CDynamicPoolEx@VCRotationDecorator@NEffectUpdateDecorator@@@@A ; CPooledObject<NEffectUpdateDecorator::CRotationDecorator>::ms_kPool
  00008	e8 00 00 00 00	 call	 ??1?$CDynamicPoolEx@VCRotationDecorator@NEffectUpdateDecorator@@@@UAE@XZ ; CDynamicPoolEx<NEffectUpdateDecorator::CRotationDecorator>::~CDynamicPoolEx<NEffectUpdateDecorator::CRotationDecorator>
  0000d	5d		 pop	 ebp
  0000e	c3		 ret	 0
??__F?ms_kPool@?$CPooledObject@VCRotationDecorator@NEffectUpdateDecorator@@@@1V?$CDynamicPoolEx@VCRotationDecorator@NEffectUpdateDecorator@@@@A@@YAXXZ ENDP ; `dynamic atexit destructor for 'CPooledObject<NEffectUpdateDecorator::CRotationDecorator>::ms_kPool''
text$yd	ENDS
; Function compile flags: /Odspy
; File D:\Metin2 Server Files\mainline\SRC_2014\Metin2Client\eterLib\Pool.h
;	COMDAT ??__E?ms_kPool@?$CPooledObject@VCRotationDecorator@NEffectUpdateDecorator@@@@1V?$CDynamicPoolEx@VCRotationDecorator@NEffectUpdateDecorator@@@@A@@YAXXZ
text$di	SEGMENT
??__E?ms_kPool@?$CPooledObject@VCRotationDecorator@NEffectUpdateDecorator@@@@1V?$CDynamicPoolEx@VCRotationDecorator@NEffectUpdateDecorator@@@@A@@YAXXZ PROC ; `dynamic initializer for 'CPooledObject<NEffectUpdateDecorator::CRotationDecorator>::ms_kPool'', COMDAT

; 272  : template <class T> CDynamicPoolEx<T> CPooledObject<T>::ms_kPool;

  00000	55		 push	 ebp
  00001	8b ec		 mov	 ebp, esp
  00003	b9 00 00 00 00	 mov	 ecx, OFFSET ?ms_kPool@?$CPooledObject@VCRotationDecorator@NEffectUpdateDecorator@@@@1V?$CDynamicPoolEx@VCRotationDecorator@NEffectUpdateDecorator@@@@A ; CPooledObject<NEffectUpdateDecorator::CRotationDecorator>::ms_kPool
  00008	e8 00 00 00 00	 call	 ??0?$CDynamicPoolEx@VCRotationDecorator@NEffectUpdateDecorator@@@@QAE@XZ ; CDynamicPoolEx<NEffectUpdateDecorator::CRotationDecorator>::CDynamicPoolEx<NEffectUpdateDecorator::CRotationDecorator>
  0000d	68 00 00 00 00	 push	 OFFSET ??__F?ms_kPool@?$CPooledObject@VCRotationDecorator@NEffectUpdateDecorator@@@@1V?$CDynamicPoolEx@VCRotationDecorator@NEffectUpdateDecorator@@@@A@@YAXXZ ; `dynamic atexit destructor for 'CPooledObject<NEffectUpdateDecorator::CRotationDecorator>::ms_kPool''
  00012	e8 00 00 00 00	 call	 _atexit
  00017	59		 pop	 ecx
  00018	5d		 pop	 ebp
  00019	c3		 ret	 0
??__E?ms_kPool@?$CPooledObject@VCRotationDecorator@NEffectUpdateDecorator@@@@1V?$CDynamicPoolEx@VCRotationDecorator@NEffectUpdateDecorator@@@@A@@YAXXZ ENDP ; `dynamic initializer for 'CPooledObject<NEffectUpdateDecorator::CRotationDecorator>::ms_kPool''
text$di	ENDS
; Function compile flags: /Odspy
;	COMDAT ??__F?ms_kPool@?$CPooledObject@VCGravityDecorator@NEffectUpdateDecorator@@@@1V?$CDynamicPoolEx@VCGravityDecorator@NEffectUpdateDecorator@@@@A@@YAXXZ
text$yd	SEGMENT
??__F?ms_kPool@?$CPooledObject@VCGravityDecorator@NEffectUpdateDecorator@@@@1V?$CDynamicPoolEx@VCGravityDecorator@NEffectUpdateDecorator@@@@A@@YAXXZ PROC ; `dynamic atexit destructor for 'CPooledObject<NEffectUpdateDecorator::CGravityDecorator>::ms_kPool'', COMDAT
  00000	55		 push	 ebp
  00001	8b ec		 mov	 ebp, esp
  00003	b9 00 00 00 00	 mov	 ecx, OFFSET ?ms_kPool@?$CPooledObject@VCGravityDecorator@NEffectUpdateDecorator@@@@1V?$CDynamicPoolEx@VCGravityDecorator@NEffectUpdateDecorator@@@@A ; CPooledObject<NEffectUpdateDecorator::CGravityDecorator>::ms_kPool
  00008	e8 00 00 00 00	 call	 ??1?$CDynamicPoolEx@VCGravityDecorator@NEffectUpdateDecorator@@@@UAE@XZ ; CDynamicPoolEx<NEffectUpdateDecorator::CGravityDecorator>::~CDynamicPoolEx<NEffectUpdateDecorator::CGravityDecorator>
  0000d	5d		 pop	 ebp
  0000e	c3		 ret	 0
??__F?ms_kPool@?$CPooledObject@VCGravityDecorator@NEffectUpdateDecorator@@@@1V?$CDynamicPoolEx@VCGravityDecorator@NEffectUpdateDecorator@@@@A@@YAXXZ ENDP ; `dynamic atexit destructor for 'CPooledObject<NEffectUpdateDecorator::CGravityDecorator>::ms_kPool''
text$yd	ENDS
; Function compile flags: /Odspy
; File D:\Metin2 Server Files\mainline\SRC_2014\Metin2Client\eterLib\Pool.h
;	COMDAT ??__E?ms_kPool@?$CPooledObject@VCGravityDecorator@NEffectUpdateDecorator@@@@1V?$CDynamicPoolEx@VCGravityDecorator@NEffectUpdateDecorator@@@@A@@YAXXZ
text$di	SEGMENT
??__E?ms_kPool@?$CPooledObject@VCGravityDecorator@NEffectUpdateDecorator@@@@1V?$CDynamicPoolEx@VCGravityDecorator@NEffectUpdateDecorator@@@@A@@YAXXZ PROC ; `dynamic initializer for 'CPooledObject<NEffectUpdateDecorator::CGravityDecorator>::ms_kPool'', COMDAT

; 272  : template <class T> CDynamicPoolEx<T> CPooledObject<T>::ms_kPool;

  00000	55		 push	 ebp
  00001	8b ec		 mov	 ebp, esp
  00003	b9 00 00 00 00	 mov	 ecx, OFFSET ?ms_kPool@?$CPooledObject@VCGravityDecorator@NEffectUpdateDecorator@@@@1V?$CDynamicPoolEx@VCGravityDecorator@NEffectUpdateDecorator@@@@A ; CPooledObject<NEffectUpdateDecorator::CGravityDecorator>::ms_kPool
  00008	e8 00 00 00 00	 call	 ??0?$CDynamicPoolEx@VCGravityDecorator@NEffectUpdateDecorator@@@@QAE@XZ ; CDynamicPoolEx<NEffectUpdateDecorator::CGravityDecorator>::CDynamicPoolEx<NEffectUpdateDecorator::CGravityDecorator>
  0000d	68 00 00 00 00	 push	 OFFSET ??__F?ms_kPool@?$CPooledObject@VCGravityDecorator@NEffectUpdateDecorator@@@@1V?$CDynamicPoolEx@VCGravityDecorator@NEffectUpdateDecorator@@@@A@@YAXXZ ; `dynamic atexit destructor for 'CPooledObject<NEffectUpdateDecorator::CGravityDecorator>::ms_kPool''
  00012	e8 00 00 00 00	 call	 _atexit
  00017	59		 pop	 ecx
  00018	5d		 pop	 ebp
  00019	c3		 ret	 0
??__E?ms_kPool@?$CPooledObject@VCGravityDecorator@NEffectUpdateDecorator@@@@1V?$CDynamicPoolEx@VCGravityDecorator@NEffectUpdateDecorator@@@@A@@YAXXZ ENDP ; `dynamic initializer for 'CPooledObject<NEffectUpdateDecorator::CGravityDecorator>::ms_kPool''
text$di	ENDS
; Function compile flags: /Odspy
;	COMDAT ??__F?ms_kPool@?$CPooledObject@VCAirResistanceDecorator@NEffectUpdateDecorator@@@@1V?$CDynamicPoolEx@VCAirResistanceDecorator@NEffectUpdateDecorator@@@@A@@YAXXZ
text$yd	SEGMENT
??__F?ms_kPool@?$CPooledObject@VCAirResistanceDecorator@NEffectUpdateDecorator@@@@1V?$CDynamicPoolEx@VCAirResistanceDecorator@NEffectUpdateDecorator@@@@A@@YAXXZ PROC ; `dynamic atexit destructor for 'CPooledObject<NEffectUpdateDecorator::CAirResistanceDecorator>::ms_kPool'', COMDAT
  00000	55		 push	 ebp
  00001	8b ec		 mov	 ebp, esp
  00003	b9 00 00 00 00	 mov	 ecx, OFFSET ?ms_kPool@?$CPooledObject@VCAirResistanceDecorator@NEffectUpdateDecorator@@@@1V?$CDynamicPoolEx@VCAirResistanceDecorator@NEffectUpdateDecorator@@@@A ; CPooledObject<NEffectUpdateDecorator::CAirResistanceDecorator>::ms_kPool
  00008	e8 00 00 00 00	 call	 ??1?$CDynamicPoolEx@VCAirResistanceDecorator@NEffectUpdateDecorator@@@@UAE@XZ ; CDynamicPoolEx<NEffectUpdateDecorator::CAirResistanceDecorator>::~CDynamicPoolEx<NEffectUpdateDecorator::CAirResistanceDecorator>
  0000d	5d		 pop	 ebp
  0000e	c3		 ret	 0
??__F?ms_kPool@?$CPooledObject@VCAirResistanceDecorator@NEffectUpdateDecorator@@@@1V?$CDynamicPoolEx@VCAirResistanceDecorator@NEffectUpdateDecorator@@@@A@@YAXXZ ENDP ; `dynamic atexit destructor for 'CPooledObject<NEffectUpdateDecorator::CAirResistanceDecorator>::ms_kPool''
text$yd	ENDS
; Function compile flags: /Odspy
; File D:\Metin2 Server Files\mainline\SRC_2014\Metin2Client\eterLib\Pool.h
;	COMDAT ??__E?ms_kPool@?$CPooledObject@VCAirResistanceDecorator@NEffectUpdateDecorator@@@@1V?$CDynamicPoolEx@VCAirResistanceDecorator@NEffectUpdateDecorator@@@@A@@YAXXZ
text$di	SEGMENT
??__E?ms_kPool@?$CPooledObject@VCAirResistanceDecorator@NEffectUpdateDecorator@@@@1V?$CDynamicPoolEx@VCAirResistanceDecorator@NEffectUpdateDecorator@@@@A@@YAXXZ PROC ; `dynamic initializer for 'CPooledObject<NEffectUpdateDecorator::CAirResistanceDecorator>::ms_kPool'', COMDAT

; 272  : template <class T> CDynamicPoolEx<T> CPooledObject<T>::ms_kPool;

  00000	55		 push	 ebp
  00001	8b ec		 mov	 ebp, esp
  00003	b9 00 00 00 00	 mov	 ecx, OFFSET ?ms_kPool@?$CPooledObject@VCAirResistanceDecorator@NEffectUpdateDecorator@@@@1V?$CDynamicPoolEx@VCAirResistanceDecorator@NEffectUpdateDecorator@@@@A ; CPooledObject<NEffectUpdateDecorator::CAirResistanceDecorator>::ms_kPool
  00008	e8 00 00 00 00	 call	 ??0?$CDynamicPoolEx@VCAirResistanceDecorator@NEffectUpdateDecorator@@@@QAE@XZ ; CDynamicPoolEx<NEffectUpdateDecorator::CAirResistanceDecorator>::CDynamicPoolEx<NEffectUpdateDecorator::CAirResistanceDecorator>
  0000d	68 00 00 00 00	 push	 OFFSET ??__F?ms_kPool@?$CPooledObject@VCAirResistanceDecorator@NEffectUpdateDecorator@@@@1V?$CDynamicPoolEx@VCAirResistanceDecorator@NEffectUpdateDecorator@@@@A@@YAXXZ ; `dynamic atexit destructor for 'CPooledObject<NEffectUpdateDecorator::CAirResistanceDecorator>::ms_kPool''
  00012	e8 00 00 00 00	 call	 _atexit
  00017	59		 pop	 ecx
  00018	5d		 pop	 ebp
  00019	c3		 ret	 0
??__E?ms_kPool@?$CPooledObject@VCAirResistanceDecorator@NEffectUpdateDecorator@@@@1V?$CDynamicPoolEx@VCAirResistanceDecorator@NEffectUpdateDecorator@@@@A@@YAXXZ ENDP ; `dynamic initializer for 'CPooledObject<NEffectUpdateDecorator::CAirResistanceDecorator>::ms_kPool''
text$di	ENDS
; Function compile flags: /Odspy
;	COMDAT ??__F?ms_kPool@?$CPooledObject@VCTextureAnimationRandomDecorator@NEffectUpdateDecorator@@@@1V?$CDynamicPoolEx@VCTextureAnimationRandomDecorator@NEffectUpdateDecorator@@@@A@@YAXXZ
text$yd	SEGMENT
??__F?ms_kPool@?$CPooledObject@VCTextureAnimationRandomDecorator@NEffectUpdateDecorator@@@@1V?$CDynamicPoolEx@VCTextureAnimationRandomDecorator@NEffectUpdateDecorator@@@@A@@YAXXZ PROC ; `dynamic atexit destructor for 'CPooledObject<NEffectUpdateDecorator::CTextureAnimationRandomDecorator>::ms_kPool'', COMDAT
  00000	55		 push	 ebp
  00001	8b ec		 mov	 ebp, esp
  00003	b9 00 00 00 00	 mov	 ecx, OFFSET ?ms_kPool@?$CPooledObject@VCTextureAnimationRandomDecorator@NEffectUpdateDecorator@@@@1V?$CDynamicPoolEx@VCTextureAnimationRandomDecorator@NEffectUpdateDecorator@@@@A ; CPooledObject<NEffectUpdateDecorator::CTextureAnimationRandomDecorator>::ms_kPool
  00008	e8 00 00 00 00	 call	 ??1?$CDynamicPoolEx@VCTextureAnimationRandomDecorator@NEffectUpdateDecorator@@@@UAE@XZ ; CDynamicPoolEx<NEffectUpdateDecorator::CTextureAnimationRandomDecorator>::~CDynamicPoolEx<NEffectUpdateDecorator::CTextureAnimationRandomDecorator>
  0000d	5d		 pop	 ebp
  0000e	c3		 ret	 0
??__F?ms_kPool@?$CPooledObject@VCTextureAnimationRandomDecorator@NEffectUpdateDecorator@@@@1V?$CDynamicPoolEx@VCTextureAnimationRandomDecorator@NEffectUpdateDecorator@@@@A@@YAXXZ ENDP ; `dynamic atexit destructor for 'CPooledObject<NEffectUpdateDecorator::CTextureAnimationRandomDecorator>::ms_kPool''
text$yd	ENDS
; Function compile flags: /Odspy
; File D:\Metin2 Server Files\mainline\SRC_2014\Metin2Client\eterLib\Pool.h
;	COMDAT ??__E?ms_kPool@?$CPooledObject@VCTextureAnimationRandomDecorator@NEffectUpdateDecorator@@@@1V?$CDynamicPoolEx@VCTextureAnimationRandomDecorator@NEffectUpdateDecorator@@@@A@@YAXXZ
text$di	SEGMENT
??__E?ms_kPool@?$CPooledObject@VCTextureAnimationRandomDecorator@NEffectUpdateDecorator@@@@1V?$CDynamicPoolEx@VCTextureAnimationRandomDecorator@NEffectUpdateDecorator@@@@A@@YAXXZ PROC ; `dynamic initializer for 'CPooledObject<NEffectUpdateDecorator::CTextureAnimationRandomDecorator>::ms_kPool'', COMDAT

; 272  : template <class T> CDynamicPoolEx<T> CPooledObject<T>::ms_kPool;

  00000	55		 push	 ebp
  00001	8b ec		 mov	 ebp, esp
  00003	b9 00 00 00 00	 mov	 ecx, OFFSET ?ms_kPool@?$CPooledObject@VCTextureAnimationRandomDecorator@NEffectUpdateDecorator@@@@1V?$CDynamicPoolEx@VCTextureAnimationRandomDecorator@NEffectUpdateDecorator@@@@A ; CPooledObject<NEffectUpdateDecorator::CTextureAnimationRandomDecorator>::ms_kPool
  00008	e8 00 00 00 00	 call	 ??0?$CDynamicPoolEx@VCTextureAnimationRandomDecorator@NEffectUpdateDecorator@@@@QAE@XZ ; CDynamicPoolEx<NEffectUpdateDecorator::CTextureAnimationRandomDecorator>::CDynamicPoolEx<NEffectUpdateDecorator::CTextureAnimationRandomDecorator>
  0000d	68 00 00 00 00	 push	 OFFSET ??__F?ms_kPool@?$CPooledObject@VCTextureAnimationRandomDecorator@NEffectUpdateDecorator@@@@1V?$CDynamicPoolEx@VCTextureAnimationRandomDecorator@NEffectUpdateDecorator@@@@A@@YAXXZ ; `dynamic atexit destructor for 'CPooledObject<NEffectUpdateDecorator::CTextureAnimationRandomDecorator>::ms_kPool''
  00012	e8 00 00 00 00	 call	 _atexit
  00017	59		 pop	 ecx
  00018	5d		 pop	 ebp
  00019	c3		 ret	 0
??__E?ms_kPool@?$CPooledObject@VCTextureAnimationRandomDecorator@NEffectUpdateDecorator@@@@1V?$CDynamicPoolEx@VCTextureAnimationRandomDecorator@NEffectUpdateDecorator@@@@A@@YAXXZ ENDP ; `dynamic initializer for 'CPooledObject<NEffectUpdateDecorator::CTextureAnimationRandomDecorator>::ms_kPool''
text$di	ENDS
; Function compile flags: /Odspy
;	COMDAT ??__F?ms_kPool@?$CPooledObject@VCTextureAnimationCCWDecorator@NEffectUpdateDecorator@@@@1V?$CDynamicPoolEx@VCTextureAnimationCCWDecorator@NEffectUpdateDecorator@@@@A@@YAXXZ
text$yd	SEGMENT
??__F?ms_kPool@?$CPooledObject@VCTextureAnimationCCWDecorator@NEffectUpdateDecorator@@@@1V?$CDynamicPoolEx@VCTextureAnimationCCWDecorator@NEffectUpdateDecorator@@@@A@@YAXXZ PROC ; `dynamic atexit destructor for 'CPooledObject<NEffectUpdateDecorator::CTextureAnimationCCWDecorator>::ms_kPool'', COMDAT
  00000	55		 push	 ebp
  00001	8b ec		 mov	 ebp, esp
  00003	b9 00 00 00 00	 mov	 ecx, OFFSET ?ms_kPool@?$CPooledObject@VCTextureAnimationCCWDecorator@NEffectUpdateDecorator@@@@1V?$CDynamicPoolEx@VCTextureAnimationCCWDecorator@NEffectUpdateDecorator@@@@A ; CPooledObject<NEffectUpdateDecorator::CTextureAnimationCCWDecorator>::ms_kPool
  00008	e8 00 00 00 00	 call	 ??1?$CDynamicPoolEx@VCTextureAnimationCCWDecorator@NEffectUpdateDecorator@@@@UAE@XZ ; CDynamicPoolEx<NEffectUpdateDecorator::CTextureAnimationCCWDecorator>::~CDynamicPoolEx<NEffectUpdateDecorator::CTextureAnimationCCWDecorator>
  0000d	5d		 pop	 ebp
  0000e	c3		 ret	 0
??__F?ms_kPool@?$CPooledObject@VCTextureAnimationCCWDecorator@NEffectUpdateDecorator@@@@1V?$CDynamicPoolEx@VCTextureAnimationCCWDecorator@NEffectUpdateDecorator@@@@A@@YAXXZ ENDP ; `dynamic atexit destructor for 'CPooledObject<NEffectUpdateDecorator::CTextureAnimationCCWDecorator>::ms_kPool''
text$yd	ENDS
; Function compile flags: /Odspy
; File D:\Metin2 Server Files\mainline\SRC_2014\Metin2Client\eterLib\Pool.h
;	COMDAT ??__E?ms_kPool@?$CPooledObject@VCTextureAnimationCCWDecorator@NEffectUpdateDecorator@@@@1V?$CDynamicPoolEx@VCTextureAnimationCCWDecorator@NEffectUpdateDecorator@@@@A@@YAXXZ
text$di	SEGMENT
??__E?ms_kPool@?$CPooledObject@VCTextureAnimationCCWDecorator@NEffectUpdateDecorator@@@@1V?$CDynamicPoolEx@VCTextureAnimationCCWDecorator@NEffectUpdateDecorator@@@@A@@YAXXZ PROC ; `dynamic initializer for 'CPooledObject<NEffectUpdateDecorator::CTextureAnimationCCWDecorator>::ms_kPool'', COMDAT

; 272  : template <class T> CDynamicPoolEx<T> CPooledObject<T>::ms_kPool;

  00000	55		 push	 ebp
  00001	8b ec		 mov	 ebp, esp
  00003	b9 00 00 00 00	 mov	 ecx, OFFSET ?ms_kPool@?$CPooledObject@VCTextureAnimationCCWDecorator@NEffectUpdateDecorator@@@@1V?$CDynamicPoolEx@VCTextureAnimationCCWDecorator@NEffectUpdateDecorator@@@@A ; CPooledObject<NEffectUpdateDecorator::CTextureAnimationCCWDecorator>::ms_kPool
  00008	e8 00 00 00 00	 call	 ??0?$CDynamicPoolEx@VCTextureAnimationCCWDecorator@NEffectUpdateDecorator@@@@QAE@XZ ; CDynamicPoolEx<NEffectUpdateDecorator::CTextureAnimationCCWDecorator>::CDynamicPoolEx<NEffectUpdateDecorator::CTextureAnimationCCWDecorator>
  0000d	68 00 00 00 00	 push	 OFFSET ??__F?ms_kPool@?$CPooledObject@VCTextureAnimationCCWDecorator@NEffectUpdateDecorator@@@@1V?$CDynamicPoolEx@VCTextureAnimationCCWDecorator@NEffectUpdateDecorator@@@@A@@YAXXZ ; `dynamic atexit destructor for 'CPooledObject<NEffectUpdateDecorator::CTextureAnimationCCWDecorator>::ms_kPool''
  00012	e8 00 00 00 00	 call	 _atexit
  00017	59		 pop	 ecx
  00018	5d		 pop	 ebp
  00019	c3		 ret	 0
??__E?ms_kPool@?$CPooledObject@VCTextureAnimationCCWDecorator@NEffectUpdateDecorator@@@@1V?$CDynamicPoolEx@VCTextureAnimationCCWDecorator@NEffectUpdateDecorator@@@@A@@YAXXZ ENDP ; `dynamic initializer for 'CPooledObject<NEffectUpdateDecorator::CTextureAnimationCCWDecorator>::ms_kPool''
text$di	ENDS
; Function compile flags: /Odspy
;	COMDAT ??__F?ms_kPool@?$CPooledObject@VCTextureAnimationCWDecorator@NEffectUpdateDecorator@@@@1V?$CDynamicPoolEx@VCTextureAnimationCWDecorator@NEffectUpdateDecorator@@@@A@@YAXXZ
text$yd	SEGMENT
??__F?ms_kPool@?$CPooledObject@VCTextureAnimationCWDecorator@NEffectUpdateDecorator@@@@1V?$CDynamicPoolEx@VCTextureAnimationCWDecorator@NEffectUpdateDecorator@@@@A@@YAXXZ PROC ; `dynamic atexit destructor for 'CPooledObject<NEffectUpdateDecorator::CTextureAnimationCWDecorator>::ms_kPool'', COMDAT
  00000	55		 push	 ebp
  00001	8b ec		 mov	 ebp, esp
  00003	b9 00 00 00 00	 mov	 ecx, OFFSET ?ms_kPool@?$CPooledObject@VCTextureAnimationCWDecorator@NEffectUpdateDecorator@@@@1V?$CDynamicPoolEx@VCTextureAnimationCWDecorator@NEffectUpdateDecorator@@@@A ; CPooledObject<NEffectUpdateDecorator::CTextureAnimationCWDecorator>::ms_kPool
  00008	e8 00 00 00 00	 call	 ??1?$CDynamicPoolEx@VCTextureAnimationCWDecorator@NEffectUpdateDecorator@@@@UAE@XZ ; CDynamicPoolEx<NEffectUpdateDecorator::CTextureAnimationCWDecorator>::~CDynamicPoolEx<NEffectUpdateDecorator::CTextureAnimationCWDecorator>
  0000d	5d		 pop	 ebp
  0000e	c3		 ret	 0
??__F?ms_kPool@?$CPooledObject@VCTextureAnimationCWDecorator@NEffectUpdateDecorator@@@@1V?$CDynamicPoolEx@VCTextureAnimationCWDecorator@NEffectUpdateDecorator@@@@A@@YAXXZ ENDP ; `dynamic atexit destructor for 'CPooledObject<NEffectUpdateDecorator::CTextureAnimationCWDecorator>::ms_kPool''
text$yd	ENDS
; Function compile flags: /Odspy
; File D:\Metin2 Server Files\mainline\SRC_2014\Metin2Client\eterLib\Pool.h
;	COMDAT ??__E?ms_kPool@?$CPooledObject@VCTextureAnimationCWDecorator@NEffectUpdateDecorator@@@@1V?$CDynamicPoolEx@VCTextureAnimationCWDecorator@NEffectUpdateDecorator@@@@A@@YAXXZ
text$di	SEGMENT
??__E?ms_kPool@?$CPooledObject@VCTextureAnimationCWDecorator@NEffectUpdateDecorator@@@@1V?$CDynamicPoolEx@VCTextureAnimationCWDecorator@NEffectUpdateDecorator@@@@A@@YAXXZ PROC ; `dynamic initializer for 'CPooledObject<NEffectUpdateDecorator::CTextureAnimationCWDecorator>::ms_kPool'', COMDAT

; 272  : template <class T> CDynamicPoolEx<T> CPooledObject<T>::ms_kPool;

  00000	55		 push	 ebp
  00001	8b ec		 mov	 ebp, esp
  00003	b9 00 00 00 00	 mov	 ecx, OFFSET ?ms_kPool@?$CPooledObject@VCTextureAnimationCWDecorator@NEffectUpdateDecorator@@@@1V?$CDynamicPoolEx@VCTextureAnimationCWDecorator@NEffectUpdateDecorator@@@@A ; CPooledObject<NEffectUpdateDecorator::CTextureAnimationCWDecorator>::ms_kPool
  00008	e8 00 00 00 00	 call	 ??0?$CDynamicPoolEx@VCTextureAnimationCWDecorator@NEffectUpdateDecorator@@@@QAE@XZ ; CDynamicPoolEx<NEffectUpdateDecorator::CTextureAnimationCWDecorator>::CDynamicPoolEx<NEffectUpdateDecorator::CTextureAnimationCWDecorator>
  0000d	68 00 00 00 00	 push	 OFFSET ??__F?ms_kPool@?$CPooledObject@VCTextureAnimationCWDecorator@NEffectUpdateDecorator@@@@1V?$CDynamicPoolEx@VCTextureAnimationCWDecorator@NEffectUpdateDecorator@@@@A@@YAXXZ ; `dynamic atexit destructor for 'CPooledObject<NEffectUpdateDecorator::CTextureAnimationCWDecorator>::ms_kPool''
  00012	e8 00 00 00 00	 call	 _atexit
  00017	59		 pop	 ecx
  00018	5d		 pop	 ebp
  00019	c3		 ret	 0
??__E?ms_kPool@?$CPooledObject@VCTextureAnimationCWDecorator@NEffectUpdateDecorator@@@@1V?$CDynamicPoolEx@VCTextureAnimationCWDecorator@NEffectUpdateDecorator@@@@A@@YAXXZ ENDP ; `dynamic initializer for 'CPooledObject<NEffectUpdateDecorator::CTextureAnimationCWDecorator>::ms_kPool''
text$di	ENDS
; Function compile flags: /Odspy
;	COMDAT ??__F?ms_kPool@?$CPooledObject@VCNullDecorator@NEffectUpdateDecorator@@@@1V?$CDynamicPoolEx@VCNullDecorator@NEffectUpdateDecorator@@@@A@@YAXXZ
text$yd	SEGMENT
??__F?ms_kPool@?$CPooledObject@VCNullDecorator@NEffectUpdateDecorator@@@@1V?$CDynamicPoolEx@VCNullDecorator@NEffectUpdateDecorator@@@@A@@YAXXZ PROC ; `dynamic atexit destructor for 'CPooledObject<NEffectUpdateDecorator::CNullDecorator>::ms_kPool'', COMDAT
  00000	55		 push	 ebp
  00001	8b ec		 mov	 ebp, esp
  00003	b9 00 00 00 00	 mov	 ecx, OFFSET ?ms_kPool@?$CPooledObject@VCNullDecorator@NEffectUpdateDecorator@@@@1V?$CDynamicPoolEx@VCNullDecorator@NEffectUpdateDecorator@@@@A ; CPooledObject<NEffectUpdateDecorator::CNullDecorator>::ms_kPool
  00008	e8 00 00 00 00	 call	 ??1?$CDynamicPoolEx@VCNullDecorator@NEffectUpdateDecorator@@@@UAE@XZ ; CDynamicPoolEx<NEffectUpdateDecorator::CNullDecorator>::~CDynamicPoolEx<NEffectUpdateDecorator::CNullDecorator>
  0000d	5d		 pop	 ebp
  0000e	c3		 ret	 0
??__F?ms_kPool@?$CPooledObject@VCNullDecorator@NEffectUpdateDecorator@@@@1V?$CDynamicPoolEx@VCNullDecorator@NEffectUpdateDecorator@@@@A@@YAXXZ ENDP ; `dynamic atexit destructor for 'CPooledObject<NEffectUpdateDecorator::CNullDecorator>::ms_kPool''
text$yd	ENDS
; Function compile flags: /Odspy
; File D:\Metin2 Server Files\mainline\SRC_2014\Metin2Client\eterLib\Pool.h
;	COMDAT ??__E?ms_kPool@?$CPooledObject@VCNullDecorator@NEffectUpdateDecorator@@@@1V?$CDynamicPoolEx@VCNullDecorator@NEffectUpdateDecorator@@@@A@@YAXXZ
text$di	SEGMENT
??__E?ms_kPool@?$CPooledObject@VCNullDecorator@NEffectUpdateDecorator@@@@1V?$CDynamicPoolEx@VCNullDecorator@NEffectUpdateDecorator@@@@A@@YAXXZ PROC ; `dynamic initializer for 'CPooledObject<NEffectUpdateDecorator::CNullDecorator>::ms_kPool'', COMDAT

; 272  : template <class T> CDynamicPoolEx<T> CPooledObject<T>::ms_kPool;

  00000	55		 push	 ebp
  00001	8b ec		 mov	 ebp, esp
  00003	b9 00 00 00 00	 mov	 ecx, OFFSET ?ms_kPool@?$CPooledObject@VCNullDecorator@NEffectUpdateDecorator@@@@1V?$CDynamicPoolEx@VCNullDecorator@NEffectUpdateDecorator@@@@A ; CPooledObject<NEffectUpdateDecorator::CNullDecorator>::ms_kPool
  00008	e8 00 00 00 00	 call	 ??0?$CDynamicPoolEx@VCNullDecorator@NEffectUpdateDecorator@@@@QAE@XZ ; CDynamicPoolEx<NEffectUpdateDecorator::CNullDecorator>::CDynamicPoolEx<NEffectUpdateDecorator::CNullDecorator>
  0000d	68 00 00 00 00	 push	 OFFSET ??__F?ms_kPool@?$CPooledObject@VCNullDecorator@NEffectUpdateDecorator@@@@1V?$CDynamicPoolEx@VCNullDecorator@NEffectUpdateDecorator@@@@A@@YAXXZ ; `dynamic atexit destructor for 'CPooledObject<NEffectUpdateDecorator::CNullDecorator>::ms_kPool''
  00012	e8 00 00 00 00	 call	 _atexit
  00017	59		 pop	 ecx
  00018	5d		 pop	 ebp
  00019	c3		 ret	 0
??__E?ms_kPool@?$CPooledObject@VCNullDecorator@NEffectUpdateDecorator@@@@1V?$CDynamicPoolEx@VCNullDecorator@NEffectUpdateDecorator@@@@A@@YAXXZ ENDP ; `dynamic initializer for 'CPooledObject<NEffectUpdateDecorator::CNullDecorator>::ms_kPool''
text$di	ENDS
; Function compile flags: /Odspy
;	COMDAT ??__F?ms_kPool@?$CPooledObject@VCHeaderDecorator@NEffectUpdateDecorator@@@@1V?$CDynamicPoolEx@VCHeaderDecorator@NEffectUpdateDecorator@@@@A@@YAXXZ
text$yd	SEGMENT
??__F?ms_kPool@?$CPooledObject@VCHeaderDecorator@NEffectUpdateDecorator@@@@1V?$CDynamicPoolEx@VCHeaderDecorator@NEffectUpdateDecorator@@@@A@@YAXXZ PROC ; `dynamic atexit destructor for 'CPooledObject<NEffectUpdateDecorator::CHeaderDecorator>::ms_kPool'', COMDAT
  00000	55		 push	 ebp
  00001	8b ec		 mov	 ebp, esp
  00003	b9 00 00 00 00	 mov	 ecx, OFFSET ?ms_kPool@?$CPooledObject@VCHeaderDecorator@NEffectUpdateDecorator@@@@1V?$CDynamicPoolEx@VCHeaderDecorator@NEffectUpdateDecorator@@@@A ; CPooledObject<NEffectUpdateDecorator::CHeaderDecorator>::ms_kPool
  00008	e8 00 00 00 00	 call	 ??1?$CDynamicPoolEx@VCHeaderDecorator@NEffectUpdateDecorator@@@@UAE@XZ ; CDynamicPoolEx<NEffectUpdateDecorator::CHeaderDecorator>::~CDynamicPoolEx<NEffectUpdateDecorator::CHeaderDecorator>
  0000d	5d		 pop	 ebp
  0000e	c3		 ret	 0
??__F?ms_kPool@?$CPooledObject@VCHeaderDecorator@NEffectUpdateDecorator@@@@1V?$CDynamicPoolEx@VCHeaderDecorator@NEffectUpdateDecorator@@@@A@@YAXXZ ENDP ; `dynamic atexit destructor for 'CPooledObject<NEffectUpdateDecorator::CHeaderDecorator>::ms_kPool''
text$yd	ENDS
; Function compile flags: /Odspy
; File D:\Metin2 Server Files\mainline\SRC_2014\Metin2Client\eterLib\Pool.h
;	COMDAT ??__E?ms_kPool@?$CPooledObject@VCHeaderDecorator@NEffectUpdateDecorator@@@@1V?$CDynamicPoolEx@VCHeaderDecorator@NEffectUpdateDecorator@@@@A@@YAXXZ
text$di	SEGMENT
??__E?ms_kPool@?$CPooledObject@VCHeaderDecorator@NEffectUpdateDecorator@@@@1V?$CDynamicPoolEx@VCHeaderDecorator@NEffectUpdateDecorator@@@@A@@YAXXZ PROC ; `dynamic initializer for 'CPooledObject<NEffectUpdateDecorator::CHeaderDecorator>::ms_kPool'', COMDAT

; 272  : template <class T> CDynamicPoolEx<T> CPooledObject<T>::ms_kPool;

  00000	55		 push	 ebp
  00001	8b ec		 mov	 ebp, esp
  00003	b9 00 00 00 00	 mov	 ecx, OFFSET ?ms_kPool@?$CPooledObject@VCHeaderDecorator@NEffectUpdateDecorator@@@@1V?$CDynamicPoolEx@VCHeaderDecorator@NEffectUpdateDecorator@@@@A ; CPooledObject<NEffectUpdateDecorator::CHeaderDecorator>::ms_kPool
  00008	e8 00 00 00 00	 call	 ??0?$CDynamicPoolEx@VCHeaderDecorator@NEffectUpdateDecorator@@@@QAE@XZ ; CDynamicPoolEx<NEffectUpdateDecorator::CHeaderDecorator>::CDynamicPoolEx<NEffectUpdateDecorator::CHeaderDecorator>
  0000d	68 00 00 00 00	 push	 OFFSET ??__F?ms_kPool@?$CPooledObject@VCHeaderDecorator@NEffectUpdateDecorator@@@@1V?$CDynamicPoolEx@VCHeaderDecorator@NEffectUpdateDecorator@@@@A@@YAXXZ ; `dynamic atexit destructor for 'CPooledObject<NEffectUpdateDecorator::CHeaderDecorator>::ms_kPool''
  00012	e8 00 00 00 00	 call	 _atexit
  00017	59		 pop	 ecx
  00018	5d		 pop	 ebp
  00019	c3		 ret	 0
??__E?ms_kPool@?$CPooledObject@VCHeaderDecorator@NEffectUpdateDecorator@@@@1V?$CDynamicPoolEx@VCHeaderDecorator@NEffectUpdateDecorator@@@@A@@YAXXZ ENDP ; `dynamic initializer for 'CPooledObject<NEffectUpdateDecorator::CHeaderDecorator>::ms_kPool''
text$di	ENDS
; Function compile flags: /Odspy
; File C:\Program Files (x86)\Microsoft Visual Studio\2019\Community\VC\Tools\MSVC\14.28.29333\include\xmemory
;	COMDAT ??$_Destroy_range@V?$allocator@PAVCRotationDecorator@NEffectUpdateDecorator@@@std@@@std@@YAXPAPAVCRotationDecorator@NEffectUpdateDecorator@@QAPAV12@AAV?$allocator@PAVCRotationDecorator@NEffectUpdateDecorator@@@0@@Z
_TEXT	SEGMENT
__First$ = 8						; size = 4
__Last$ = 12						; size = 4
__Al$ = 16						; size = 4
??$_Destroy_range@V?$allocator@PAVCRotationDecorator@NEffectUpdateDecorator@@@std@@@std@@YAXPAPAVCRotationDecorator@NEffectUpdateDecorator@@QAPAV12@AAV?$allocator@PAVCRotationDecorator@NEffectUpdateDecorator@@@0@@Z PROC ; std::_Destroy_range<std::allocator<NEffectUpdateDecorator::CRotationDecorator *> >, COMDAT

; 962  :     _Alloc_ptr_t<_Alloc> _First, const _Alloc_ptr_t<_Alloc> _Last, _Alloc& _Al) noexcept {

  00000	55		 push	 ebp
  00001	8b ec		 mov	 ebp, esp

; 963  :     // note that this is an optimization for debug mode codegen; in release mode the BE removes all of this
; 964  :     using _Ty = typename _Alloc::value_type;
; 965  :     if _CONSTEXPR_IF (!conjunction_v<is_trivially_destructible<_Ty>, _Uses_default_destroy<_Alloc, _Ty*>>) {
; 966  :         for (; _First != _Last; ++_First) {
; 967  :             allocator_traits<_Alloc>::destroy(_Al, _Unfancy(_First));
; 968  :         }
; 969  :     }
; 970  : }

  00003	5d		 pop	 ebp
  00004	c3		 ret	 0
??$_Destroy_range@V?$allocator@PAVCRotationDecorator@NEffectUpdateDecorator@@@std@@@std@@YAXPAPAVCRotationDecorator@NEffectUpdateDecorator@@QAPAV12@AAV?$allocator@PAVCRotationDecorator@NEffectUpdateDecorator@@@0@@Z ENDP ; std::_Destroy_range<std::allocator<NEffectUpdateDecorator::CRotationDecorator *> >
_TEXT	ENDS
; Function compile flags: /Odspy
; File C:\Program Files (x86)\Microsoft Visual Studio\2019\Community\VC\Tools\MSVC\14.28.29333\include\xmemory
;	COMDAT ??$_Destroy_range@V?$allocator@PAVCGravityDecorator@NEffectUpdateDecorator@@@std@@@std@@YAXPAPAVCGravityDecorator@NEffectUpdateDecorator@@QAPAV12@AAV?$allocator@PAVCGravityDecorator@NEffectUpdateDecorator@@@0@@Z
_TEXT	SEGMENT
__First$ = 8						; size = 4
__Last$ = 12						; size = 4
__Al$ = 16						; size = 4
??$_Destroy_range@V?$allocator@PAVCGravityDecorator@NEffectUpdateDecorator@@@std@@@std@@YAXPAPAVCGravityDecorator@NEffectUpdateDecorator@@QAPAV12@AAV?$allocator@PAVCGravityDecorator@NEffectUpdateDecorator@@@0@@Z PROC ; std::_Destroy_range<std::allocator<NEffectUpdateDecorator::CGravityDecorator *> >, COMDAT

; 962  :     _Alloc_ptr_t<_Alloc> _First, const _Alloc_ptr_t<_Alloc> _Last, _Alloc& _Al) noexcept {

  00000	55		 push	 ebp
  00001	8b ec		 mov	 ebp, esp

; 963  :     // note that this is an optimization for debug mode codegen; in release mode the BE removes all of this
; 964  :     using _Ty = typename _Alloc::value_type;
; 965  :     if _CONSTEXPR_IF (!conjunction_v<is_trivially_destructible<_Ty>, _Uses_default_destroy<_Alloc, _Ty*>>) {
; 966  :         for (; _First != _Last; ++_First) {
; 967  :             allocator_traits<_Alloc>::destroy(_Al, _Unfancy(_First));
; 968  :         }
; 969  :     }
; 970  : }

  00003	5d		 pop	 ebp
  00004	c3		 ret	 0
??$_Destroy_range@V?$allocator@PAVCGravityDecorator@NEffectUpdateDecorator@@@std@@@std@@YAXPAPAVCGravityDecorator@NEffectUpdateDecorator@@QAPAV12@AAV?$allocator@PAVCGravityDecorator@NEffectUpdateDecorator@@@0@@Z ENDP ; std::_Destroy_range<std::allocator<NEffectUpdateDecorator::CGravityDecorator *> >
_TEXT	ENDS
; Function compile flags: /Odspy
; File C:\Program Files (x86)\Microsoft Visual Studio\2019\Community\VC\Tools\MSVC\14.28.29333\include\xmemory
;	COMDAT ??$_Destroy_range@V?$allocator@PAVCAirResistanceDecorator@NEffectUpdateDecorator@@@std@@@std@@YAXPAPAVCAirResistanceDecorator@NEffectUpdateDecorator@@QAPAV12@AAV?$allocator@PAVCAirResistanceDecorator@NEffectUpdateDecorator@@@0@@Z
_TEXT	SEGMENT
__First$ = 8						; size = 4
__Last$ = 12						; size = 4
__Al$ = 16						; size = 4
??$_Destroy_range@V?$allocator@PAVCAirResistanceDecorator@NEffectUpdateDecorator@@@std@@@std@@YAXPAPAVCAirResistanceDecorator@NEffectUpdateDecorator@@QAPAV12@AAV?$allocator@PAVCAirResistanceDecorator@NEffectUpdateDecorator@@@0@@Z PROC ; std::_Destroy_range<std::allocator<NEffectUpdateDecorator::CAirResistanceDecorator *> >, COMDAT

; 962  :     _Alloc_ptr_t<_Alloc> _First, const _Alloc_ptr_t<_Alloc> _Last, _Alloc& _Al) noexcept {

  00000	55		 push	 ebp
  00001	8b ec		 mov	 ebp, esp

; 963  :     // note that this is an optimization for debug mode codegen; in release mode the BE removes all of this
; 964  :     using _Ty = typename _Alloc::value_type;
; 965  :     if _CONSTEXPR_IF (!conjunction_v<is_trivially_destructible<_Ty>, _Uses_default_destroy<_Alloc, _Ty*>>) {
; 966  :         for (; _First != _Last; ++_First) {
; 967  :             allocator_traits<_Alloc>::destroy(_Al, _Unfancy(_First));
; 968  :         }
; 969  :     }
; 970  : }

  00003	5d		 pop	 ebp
  00004	c3		 ret	 0
??$_Destroy_range@V?$allocator@PAVCAirResistanceDecorator@NEffectUpdateDecorator@@@std@@@std@@YAXPAPAVCAirResistanceDecorator@NEffectUpdateDecorator@@QAPAV12@AAV?$allocator@PAVCAirResistanceDecorator@NEffectUpdateDecorator@@@0@@Z ENDP ; std::_Destroy_range<std::allocator<NEffectUpdateDecorator::CAirResistanceDecorator *> >
_TEXT	ENDS
; Function compile flags: /Odspy
; File C:\Program Files (x86)\Microsoft Visual Studio\2019\Community\VC\Tools\MSVC\14.28.29333\include\xmemory
;	COMDAT ??$_Destroy_range@V?$allocator@PAVCTextureAnimationRandomDecorator@NEffectUpdateDecorator@@@std@@@std@@YAXPAPAVCTextureAnimationRandomDecorator@NEffectUpdateDecorator@@QAPAV12@AAV?$allocator@PAVCTextureAnimationRandomDecorator@NEffectUpdateDecorator@@@0@@Z
_TEXT	SEGMENT
__First$ = 8						; size = 4
__Last$ = 12						; size = 4
__Al$ = 16						; size = 4
??$_Destroy_range@V?$allocator@PAVCTextureAnimationRandomDecorator@NEffectUpdateDecorator@@@std@@@std@@YAXPAPAVCTextureAnimationRandomDecorator@NEffectUpdateDecorator@@QAPAV12@AAV?$allocator@PAVCTextureAnimationRandomDecorator@NEffectUpdateDecorator@@@0@@Z PROC ; std::_Destroy_range<std::allocator<NEffectUpdateDecorator::CTextureAnimationRandomDecorator *> >, COMDAT

; 962  :     _Alloc_ptr_t<_Alloc> _First, const _Alloc_ptr_t<_Alloc> _Last, _Alloc& _Al) noexcept {

  00000	55		 push	 ebp
  00001	8b ec		 mov	 ebp, esp

; 963  :     // note that this is an optimization for debug mode codegen; in release mode the BE removes all of this
; 964  :     using _Ty = typename _Alloc::value_type;
; 965  :     if _CONSTEXPR_IF (!conjunction_v<is_trivially_destructible<_Ty>, _Uses_default_destroy<_Alloc, _Ty*>>) {
; 966  :         for (; _First != _Last; ++_First) {
; 967  :             allocator_traits<_Alloc>::destroy(_Al, _Unfancy(_First));
; 968  :         }
; 969  :     }
; 970  : }

  00003	5d		 pop	 ebp
  00004	c3		 ret	 0
??$_Destroy_range@V?$allocator@PAVCTextureAnimationRandomDecorator@NEffectUpdateDecorator@@@std@@@std@@YAXPAPAVCTextureAnimationRandomDecorator@NEffectUpdateDecorator@@QAPAV12@AAV?$allocator@PAVCTextureAnimationRandomDecorator@NEffectUpdateDecorator@@@0@@Z ENDP ; std::_Destroy_range<std::allocator<NEffectUpdateDecorator::CTextureAnimationRandomDecorator *> >
_TEXT	ENDS
; Function compile flags: /Odspy
; File C:\Program Files (x86)\Microsoft Visual Studio\2019\Community\VC\Tools\MSVC\14.28.29333\include\xmemory
;	COMDAT ??$_Destroy_range@V?$allocator@PAVCTextureAnimationCCWDecorator@NEffectUpdateDecorator@@@std@@@std@@YAXPAPAVCTextureAnimationCCWDecorator@NEffectUpdateDecorator@@QAPAV12@AAV?$allocator@PAVCTextureAnimationCCWDecorator@NEffectUpdateDecorator@@@0@@Z
_TEXT	SEGMENT
__First$ = 8						; size = 4
__Last$ = 12						; size = 4
__Al$ = 16						; size = 4
??$_Destroy_range@V?$allocator@PAVCTextureAnimationCCWDecorator@NEffectUpdateDecorator@@@std@@@std@@YAXPAPAVCTextureAnimationCCWDecorator@NEffectUpdateDecorator@@QAPAV12@AAV?$allocator@PAVCTextureAnimationCCWDecorator@NEffectUpdateDecorator@@@0@@Z PROC ; std::_Destroy_range<std::allocator<NEffectUpdateDecorator::CTextureAnimationCCWDecorator *> >, COMDAT

; 962  :     _Alloc_ptr_t<_Alloc> _First, const _Alloc_ptr_t<_Alloc> _Last, _Alloc& _Al) noexcept {

  00000	55		 push	 ebp
  00001	8b ec		 mov	 ebp, esp

; 963  :     // note that this is an optimization for debug mode codegen; in release mode the BE removes all of this
; 964  :     using _Ty = typename _Alloc::value_type;
; 965  :     if _CONSTEXPR_IF (!conjunction_v<is_trivially_destructible<_Ty>, _Uses_default_destroy<_Alloc, _Ty*>>) {
; 966  :         for (; _First != _Last; ++_First) {
; 967  :             allocator_traits<_Alloc>::destroy(_Al, _Unfancy(_First));
; 968  :         }
; 969  :     }
; 970  : }

  00003	5d		 pop	 ebp
  00004	c3		 ret	 0
??$_Destroy_range@V?$allocator@PAVCTextureAnimationCCWDecorator@NEffectUpdateDecorator@@@std@@@std@@YAXPAPAVCTextureAnimationCCWDecorator@NEffectUpdateDecorator@@QAPAV12@AAV?$allocator@PAVCTextureAnimationCCWDecorator@NEffectUpdateDecorator@@@0@@Z ENDP ; std::_Destroy_range<std::allocator<NEffectUpdateDecorator::CTextureAnimationCCWDecorator *> >
_TEXT	ENDS
; Function compile flags: /Odspy
; File C:\Program Files (x86)\Microsoft Visual Studio\2019\Community\VC\Tools\MSVC\14.28.29333\include\xmemory
;	COMDAT ??$_Destroy_range@V?$allocator@PAVCTextureAnimationCWDecorator@NEffectUpdateDecorator@@@std@@@std@@YAXPAPAVCTextureAnimationCWDecorator@NEffectUpdateDecorator@@QAPAV12@AAV?$allocator@PAVCTextureAnimationCWDecorator@NEffectUpdateDecorator@@@0@@Z
_TEXT	SEGMENT
__First$ = 8						; size = 4
__Last$ = 12						; size = 4
__Al$ = 16						; size = 4
??$_Destroy_range@V?$allocator@PAVCTextureAnimationCWDecorator@NEffectUpdateDecorator@@@std@@@std@@YAXPAPAVCTextureAnimationCWDecorator@NEffectUpdateDecorator@@QAPAV12@AAV?$allocator@PAVCTextureAnimationCWDecorator@NEffectUpdateDecorator@@@0@@Z PROC ; std::_Destroy_range<std::allocator<NEffectUpdateDecorator::CTextureAnimationCWDecorator *> >, COMDAT

; 962  :     _Alloc_ptr_t<_Alloc> _First, const _Alloc_ptr_t<_Alloc> _Last, _Alloc& _Al) noexcept {

  00000	55		 push	 ebp
  00001	8b ec		 mov	 ebp, esp

; 963  :     // note that this is an optimization for debug mode codegen; in release mode the BE removes all of this
; 964  :     using _Ty = typename _Alloc::value_type;
; 965  :     if _CONSTEXPR_IF (!conjunction_v<is_trivially_destructible<_Ty>, _Uses_default_destroy<_Alloc, _Ty*>>) {
; 966  :         for (; _First != _Last; ++_First) {
; 967  :             allocator_traits<_Alloc>::destroy(_Al, _Unfancy(_First));
; 968  :         }
; 969  :     }
; 970  : }

  00003	5d		 pop	 ebp
  00004	c3		 ret	 0
??$_Destroy_range@V?$allocator@PAVCTextureAnimationCWDecorator@NEffectUpdateDecorator@@@std@@@std@@YAXPAPAVCTextureAnimationCWDecorator@NEffectUpdateDecorator@@QAPAV12@AAV?$allocator@PAVCTextureAnimationCWDecorator@NEffectUpdateDecorator@@@0@@Z ENDP ; std::_Destroy_range<std::allocator<NEffectUpdateDecorator::CTextureAnimationCWDecorator *> >
_TEXT	ENDS
; Function compile flags: /Odspy
; File C:\Program Files (x86)\Microsoft Visual Studio\2019\Community\VC\Tools\MSVC\14.28.29333\include\xmemory
;	COMDAT ??$_Destroy_range@V?$allocator@PAVCNullDecorator@NEffectUpdateDecorator@@@std@@@std@@YAXPAPAVCNullDecorator@NEffectUpdateDecorator@@QAPAV12@AAV?$allocator@PAVCNullDecorator@NEffectUpdateDecorator@@@0@@Z
_TEXT	SEGMENT
__First$ = 8						; size = 4
__Last$ = 12						; size = 4
__Al$ = 16						; size = 4
??$_Destroy_range@V?$allocator@PAVCNullDecorator@NEffectUpdateDecorator@@@std@@@std@@YAXPAPAVCNullDecorator@NEffectUpdateDecorator@@QAPAV12@AAV?$allocator@PAVCNullDecorator@NEffectUpdateDecorator@@@0@@Z PROC ; std::_Destroy_range<std::allocator<NEffectUpdateDecorator::CNullDecorator *> >, COMDAT

; 962  :     _Alloc_ptr_t<_Alloc> _First, const _Alloc_ptr_t<_Alloc> _Last, _Alloc& _Al) noexcept {

  00000	55		 push	 ebp
  00001	8b ec		 mov	 ebp, esp

; 963  :     // note that this is an optimization for debug mode codegen; in release mode the BE removes all of this
; 964  :     using _Ty = typename _Alloc::value_type;
; 965  :     if _CONSTEXPR_IF (!conjunction_v<is_trivially_destructible<_Ty>, _Uses_default_destroy<_Alloc, _Ty*>>) {
; 966  :         for (; _First != _Last; ++_First) {
; 967  :             allocator_traits<_Alloc>::destroy(_Al, _Unfancy(_First));
; 968  :         }
; 969  :     }
; 970  : }

  00003	5d		 pop	 ebp
  00004	c3		 ret	 0
??$_Destroy_range@V?$allocator@PAVCNullDecorator@NEffectUpdateDecorator@@@std@@@std@@YAXPAPAVCNullDecorator@NEffectUpdateDecorator@@QAPAV12@AAV?$allocator@PAVCNullDecorator@NEffectUpdateDecorator@@@0@@Z ENDP ; std::_Destroy_range<std::allocator<NEffectUpdateDecorator::CNullDecorator *> >
_TEXT	ENDS
; Function compile flags: /Odspy
; File C:\Program Files (x86)\Microsoft Visual Studio\2019\Community\VC\Tools\MSVC\14.28.29333\include\xmemory
;	COMDAT ??$_Destroy_range@V?$allocator@PAVCHeaderDecorator@NEffectUpdateDecorator@@@std@@@std@@YAXPAPAVCHeaderDecorator@NEffectUpdateDecorator@@QAPAV12@AAV?$allocator@PAVCHeaderDecorator@NEffectUpdateDecorator@@@0@@Z
_TEXT	SEGMENT
__First$ = 8						; size = 4
__Last$ = 12						; size = 4
__Al$ = 16						; size = 4
??$_Destroy_range@V?$allocator@PAVCHeaderDecorator@NEffectUpdateDecorator@@@std@@@std@@YAXPAPAVCHeaderDecorator@NEffectUpdateDecorator@@QAPAV12@AAV?$allocator@PAVCHeaderDecorator@NEffectUpdateDecorator@@@0@@Z PROC ; std::_Destroy_range<std::allocator<NEffectUpdateDecorator::CHeaderDecorator *> >, COMDAT

; 962  :     _Alloc_ptr_t<_Alloc> _First, const _Alloc_ptr_t<_Alloc> _Last, _Alloc& _Al) noexcept {

  00000	55		 push	 ebp
  00001	8b ec		 mov	 ebp, esp

; 963  :     // note that this is an optimization for debug mode codegen; in release mode the BE removes all of this
; 964  :     using _Ty = typename _Alloc::value_type;
; 965  :     if _CONSTEXPR_IF (!conjunction_v<is_trivially_destructible<_Ty>, _Uses_default_destroy<_Alloc, _Ty*>>) {
; 966  :         for (; _First != _Last; ++_First) {
; 967  :             allocator_traits<_Alloc>::destroy(_Al, _Unfancy(_First));
; 968  :         }
; 969  :     }
; 970  : }

  00003	5d		 pop	 ebp
  00004	c3		 ret	 0
??$_Destroy_range@V?$allocator@PAVCHeaderDecorator@NEffectUpdateDecorator@@@std@@@std@@YAXPAPAVCHeaderDecorator@NEffectUpdateDecorator@@QAPAV12@AAV?$allocator@PAVCHeaderDecorator@NEffectUpdateDecorator@@@0@@Z ENDP ; std::_Destroy_range<std::allocator<NEffectUpdateDecorator::CHeaderDecorator *> >
_TEXT	ENDS
; Function compile flags: /Odspy
; File C:\Program Files (x86)\Microsoft Visual Studio\2019\Community\VC\Tools\MSVC\14.28.29333\include\xmemory
;	COMDAT ??$_Destroy_range@V?$allocator@PAVCParticleInstance@@@std@@@std@@YAXPAPAVCParticleInstance@@QAPAV1@AAV?$allocator@PAVCParticleInstance@@@0@@Z
_TEXT	SEGMENT
__First$ = 8						; size = 4
__Last$ = 12						; size = 4
__Al$ = 16						; size = 4
??$_Destroy_range@V?$allocator@PAVCParticleInstance@@@std@@@std@@YAXPAPAVCParticleInstance@@QAPAV1@AAV?$allocator@PAVCParticleInstance@@@0@@Z PROC ; std::_Destroy_range<std::allocator<CParticleInstance *> >, COMDAT

; 962  :     _Alloc_ptr_t<_Alloc> _First, const _Alloc_ptr_t<_Alloc> _Last, _Alloc& _Al) noexcept {

  00000	55		 push	 ebp
  00001	8b ec		 mov	 ebp, esp

; 963  :     // note that this is an optimization for debug mode codegen; in release mode the BE removes all of this
; 964  :     using _Ty = typename _Alloc::value_type;
; 965  :     if _CONSTEXPR_IF (!conjunction_v<is_trivially_destructible<_Ty>, _Uses_default_destroy<_Alloc, _Ty*>>) {
; 966  :         for (; _First != _Last; ++_First) {
; 967  :             allocator_traits<_Alloc>::destroy(_Al, _Unfancy(_First));
; 968  :         }
; 969  :     }
; 970  : }

  00003	5d		 pop	 ebp
  00004	c3		 ret	 0
??$_Destroy_range@V?$allocator@PAVCParticleInstance@@@std@@@std@@YAXPAPAVCParticleInstance@@QAPAV1@AAV?$allocator@PAVCParticleInstance@@@0@@Z ENDP ; std::_Destroy_range<std::allocator<CParticleInstance *> >
_TEXT	ENDS
; Function compile flags: /Odspy
; File C:\Program Files (x86)\Microsoft Visual Studio\2019\Community\VC\Tools\MSVC\14.28.29333\include\algorithm
; File C:\Program Files (x86)\Microsoft Visual Studio\2019\Community\VC\Tools\MSVC\14.28.29333\include\vector
; File C:\Program Files (x86)\Microsoft Visual Studio\2019\Community\VC\Tools\MSVC\14.28.29333\include\xstddef
; File C:\Program Files (x86)\Microsoft Visual Studio\2019\Community\VC\Tools\MSVC\14.28.29333\include\vector
; File C:\Program Files (x86)\Microsoft Visual Studio\2019\Community\VC\Tools\MSVC\14.28.29333\include\algorithm
; File C:\Program Files (x86)\Microsoft Visual Studio\2019\Community\VC\Tools\MSVC\14.28.29333\include\vector
; File C:\Program Files (x86)\Microsoft Visual Studio\2019\Community\VC\Tools\MSVC\14.28.29333\include\xstddef
; File C:\Program Files (x86)\Microsoft Visual Studio\2019\Community\VC\Tools\MSVC\14.28.29333\include\vector
; File C:\Program Files (x86)\Microsoft Visual Studio\2019\Community\VC\Tools\MSVC\14.28.29333\include\algorithm
;	COMDAT ??$for_each@V?$_Vector_iterator@V?$_Vector_val@U?$_Simple_types@PAVCRotationDecorator@NEffectUpdateDecorator@@@std@@@std@@@std@@P6AXPAVCRotationDecorator@NEffectUpdateDecorator@@@Z@std@@YAP6AXPAVCRotationDecorator@NEffectUpdateDecorator@@@ZV?$_Vector_iterator@V?$_Vector_val@U?$_Simple_types@PAVCRotationDecorator@NEffectUpdateDecorator@@@std@@@std@@@0@1P6AX0@Z@Z
_TEXT	SEGMENT
__ULast$ = -32						; size = 4
$T1 = -28						; size = 4
$T2 = -24						; size = 4
__Ptr$3 = -20						; size = 4
$T4 = -16						; size = 4
$T5 = -12						; size = 4
__Ptr$6 = -8						; size = 4
__UFirst$ = -4						; size = 4
__First$ = 8						; size = 4
__Last$ = 12						; size = 4
__Func$ = 16						; size = 4
??$for_each@V?$_Vector_iterator@V?$_Vector_val@U?$_Simple_types@PAVCRotationDecorator@NEffectUpdateDecorator@@@std@@@std@@@std@@P6AXPAVCRotationDecorator@NEffectUpdateDecorator@@@Z@std@@YAP6AXPAVCRotationDecorator@NEffectUpdateDecorator@@@ZV?$_Vector_iterator@V?$_Vector_val@U?$_Simple_types@PAVCRotationDecorator@NEffectUpdateDecorator@@@std@@@std@@@0@1P6AX0@Z@Z PROC ; std::for_each<std::_Vector_iterator<std::_Vector_val<std::_Simple_types<NEffectUpdateDecorator::CRotationDecorator *> > >,void (__cdecl*)(NEffectUpdateDecorator::CRotationDecorator *)>, COMDAT

; 303  : _CONSTEXPR20 _Fn for_each(_InIt _First, _InIt _Last, _Fn _Func) { // perform function for each element [_First, _Last)

  00000	55		 push	 ebp
  00001	8b ec		 mov	 ebp, esp
  00003	83 ec 20	 sub	 esp, 32			; 00000020H
; File C:\Program Files (x86)\Microsoft Visual Studio\2019\Community\VC\Tools\MSVC\14.28.29333\include\vector

; 310  :         return _Unfancy(this->_Ptr);

  00006	8b 45 08	 mov	 eax, DWORD PTR __First$[ebp]
  00009	89 45 f8	 mov	 DWORD PTR __Ptr$6[ebp], eax
; File C:\Program Files (x86)\Microsoft Visual Studio\2019\Community\VC\Tools\MSVC\14.28.29333\include\xstddef

; 289  :     return _Ptr;

  0000c	8b 45 f8	 mov	 eax, DWORD PTR __Ptr$6[ebp]
  0000f	89 45 f4	 mov	 DWORD PTR $T5[ebp], eax
; File C:\Program Files (x86)\Microsoft Visual Studio\2019\Community\VC\Tools\MSVC\14.28.29333\include\vector

; 310  :         return _Unfancy(this->_Ptr);

  00012	8b 45 f4	 mov	 eax, DWORD PTR $T5[ebp]
  00015	89 45 f0	 mov	 DWORD PTR $T4[ebp], eax
; File C:\Program Files (x86)\Microsoft Visual Studio\2019\Community\VC\Tools\MSVC\14.28.29333\include\algorithm

; 305  :     auto _UFirst      = _Get_unwrapped(_First);

  00018	8b 45 f0	 mov	 eax, DWORD PTR $T4[ebp]
  0001b	89 45 fc	 mov	 DWORD PTR __UFirst$[ebp], eax
; File C:\Program Files (x86)\Microsoft Visual Studio\2019\Community\VC\Tools\MSVC\14.28.29333\include\vector

; 310  :         return _Unfancy(this->_Ptr);

  0001e	8b 45 0c	 mov	 eax, DWORD PTR __Last$[ebp]
  00021	89 45 ec	 mov	 DWORD PTR __Ptr$3[ebp], eax
; File C:\Program Files (x86)\Microsoft Visual Studio\2019\Community\VC\Tools\MSVC\14.28.29333\include\xstddef

; 289  :     return _Ptr;

  00024	8b 45 ec	 mov	 eax, DWORD PTR __Ptr$3[ebp]
  00027	89 45 e8	 mov	 DWORD PTR $T2[ebp], eax
; File C:\Program Files (x86)\Microsoft Visual Studio\2019\Community\VC\Tools\MSVC\14.28.29333\include\vector

; 310  :         return _Unfancy(this->_Ptr);

  0002a	8b 45 e8	 mov	 eax, DWORD PTR $T2[ebp]
  0002d	89 45 e4	 mov	 DWORD PTR $T1[ebp], eax
; File C:\Program Files (x86)\Microsoft Visual Studio\2019\Community\VC\Tools\MSVC\14.28.29333\include\algorithm

; 306  :     const auto _ULast = _Get_unwrapped(_Last);

  00030	8b 45 e4	 mov	 eax, DWORD PTR $T1[ebp]
  00033	89 45 e0	 mov	 DWORD PTR __ULast$[ebp], eax

; 307  :     for (; _UFirst != _ULast; ++_UFirst) {

  00036	eb 09		 jmp	 SHORT $LN4@for_each
$LN2@for_each:
  00038	8b 45 fc	 mov	 eax, DWORD PTR __UFirst$[ebp]
  0003b	83 c0 04	 add	 eax, 4
  0003e	89 45 fc	 mov	 DWORD PTR __UFirst$[ebp], eax
$LN4@for_each:
  00041	8b 45 fc	 mov	 eax, DWORD PTR __UFirst$[ebp]
  00044	3b 45 e0	 cmp	 eax, DWORD PTR __ULast$[ebp]
  00047	74 0b		 je	 SHORT $LN3@for_each

; 308  :         _Func(*_UFirst);

  00049	8b 45 fc	 mov	 eax, DWORD PTR __UFirst$[ebp]
  0004c	ff 30		 push	 DWORD PTR [eax]
  0004e	ff 55 10	 call	 DWORD PTR __Func$[ebp]
  00051	59		 pop	 ecx

; 309  :     }

  00052	eb e4		 jmp	 SHORT $LN2@for_each
$LN3@for_each:

; 310  : 
; 311  :     return _Func;

  00054	8b 45 10	 mov	 eax, DWORD PTR __Func$[ebp]

; 312  : }

  00057	c9		 leave
  00058	c3		 ret	 0
??$for_each@V?$_Vector_iterator@V?$_Vector_val@U?$_Simple_types@PAVCRotationDecorator@NEffectUpdateDecorator@@@std@@@std@@@std@@P6AXPAVCRotationDecorator@NEffectUpdateDecorator@@@Z@std@@YAP6AXPAVCRotationDecorator@NEffectUpdateDecorator@@@ZV?$_Vector_iterator@V?$_Vector_val@U?$_Simple_types@PAVCRotationDecorator@NEffectUpdateDecorator@@@std@@@std@@@0@1P6AX0@Z@Z ENDP ; std::for_each<std::_Vector_iterator<std::_Vector_val<std::_Simple_types<NEffectUpdateDecorator::CRotationDecorator *> > >,void (__cdecl*)(NEffectUpdateDecorator::CRotationDecorator *)>
_TEXT	ENDS
; Function compile flags: /Odspy
; File C:\Program Files (x86)\Microsoft Visual Studio\2019\Community\VC\Tools\MSVC\14.28.29333\include\algorithm
; File C:\Program Files (x86)\Microsoft Visual Studio\2019\Community\VC\Tools\MSVC\14.28.29333\include\vector
; File C:\Program Files (x86)\Microsoft Visual Studio\2019\Community\VC\Tools\MSVC\14.28.29333\include\xstddef
; File C:\Program Files (x86)\Microsoft Visual Studio\2019\Community\VC\Tools\MSVC\14.28.29333\include\vector
; File C:\Program Files (x86)\Microsoft Visual Studio\2019\Community\VC\Tools\MSVC\14.28.29333\include\algorithm
; File C:\Program Files (x86)\Microsoft Visual Studio\2019\Community\VC\Tools\MSVC\14.28.29333\include\vector
; File C:\Program Files (x86)\Microsoft Visual Studio\2019\Community\VC\Tools\MSVC\14.28.29333\include\xstddef
; File C:\Program Files (x86)\Microsoft Visual Studio\2019\Community\VC\Tools\MSVC\14.28.29333\include\vector
; File C:\Program Files (x86)\Microsoft Visual Studio\2019\Community\VC\Tools\MSVC\14.28.29333\include\algorithm
;	COMDAT ??$for_each@V?$_Vector_iterator@V?$_Vector_val@U?$_Simple_types@PAVCGravityDecorator@NEffectUpdateDecorator@@@std@@@std@@@std@@P6AXPAVCGravityDecorator@NEffectUpdateDecorator@@@Z@std@@YAP6AXPAVCGravityDecorator@NEffectUpdateDecorator@@@ZV?$_Vector_iterator@V?$_Vector_val@U?$_Simple_types@PAVCGravityDecorator@NEffectUpdateDecorator@@@std@@@std@@@0@1P6AX0@Z@Z
_TEXT	SEGMENT
__ULast$ = -32						; size = 4
$T1 = -28						; size = 4
$T2 = -24						; size = 4
__Ptr$3 = -20						; size = 4
$T4 = -16						; size = 4
$T5 = -12						; size = 4
__Ptr$6 = -8						; size = 4
__UFirst$ = -4						; size = 4
__First$ = 8						; size = 4
__Last$ = 12						; size = 4
__Func$ = 16						; size = 4
??$for_each@V?$_Vector_iterator@V?$_Vector_val@U?$_Simple_types@PAVCGravityDecorator@NEffectUpdateDecorator@@@std@@@std@@@std@@P6AXPAVCGravityDecorator@NEffectUpdateDecorator@@@Z@std@@YAP6AXPAVCGravityDecorator@NEffectUpdateDecorator@@@ZV?$_Vector_iterator@V?$_Vector_val@U?$_Simple_types@PAVCGravityDecorator@NEffectUpdateDecorator@@@std@@@std@@@0@1P6AX0@Z@Z PROC ; std::for_each<std::_Vector_iterator<std::_Vector_val<std::_Simple_types<NEffectUpdateDecorator::CGravityDecorator *> > >,void (__cdecl*)(NEffectUpdateDecorator::CGravityDecorator *)>, COMDAT

; 303  : _CONSTEXPR20 _Fn for_each(_InIt _First, _InIt _Last, _Fn _Func) { // perform function for each element [_First, _Last)

  00000	55		 push	 ebp
  00001	8b ec		 mov	 ebp, esp
  00003	83 ec 20	 sub	 esp, 32			; 00000020H
; File C:\Program Files (x86)\Microsoft Visual Studio\2019\Community\VC\Tools\MSVC\14.28.29333\include\vector

; 310  :         return _Unfancy(this->_Ptr);

  00006	8b 45 08	 mov	 eax, DWORD PTR __First$[ebp]
  00009	89 45 f8	 mov	 DWORD PTR __Ptr$6[ebp], eax
; File C:\Program Files (x86)\Microsoft Visual Studio\2019\Community\VC\Tools\MSVC\14.28.29333\include\xstddef

; 289  :     return _Ptr;

  0000c	8b 45 f8	 mov	 eax, DWORD PTR __Ptr$6[ebp]
  0000f	89 45 f4	 mov	 DWORD PTR $T5[ebp], eax
; File C:\Program Files (x86)\Microsoft Visual Studio\2019\Community\VC\Tools\MSVC\14.28.29333\include\vector

; 310  :         return _Unfancy(this->_Ptr);

  00012	8b 45 f4	 mov	 eax, DWORD PTR $T5[ebp]
  00015	89 45 f0	 mov	 DWORD PTR $T4[ebp], eax
; File C:\Program Files (x86)\Microsoft Visual Studio\2019\Community\VC\Tools\MSVC\14.28.29333\include\algorithm

; 305  :     auto _UFirst      = _Get_unwrapped(_First);

  00018	8b 45 f0	 mov	 eax, DWORD PTR $T4[ebp]
  0001b	89 45 fc	 mov	 DWORD PTR __UFirst$[ebp], eax
; File C:\Program Files (x86)\Microsoft Visual Studio\2019\Community\VC\Tools\MSVC\14.28.29333\include\vector

; 310  :         return _Unfancy(this->_Ptr);

  0001e	8b 45 0c	 mov	 eax, DWORD PTR __Last$[ebp]
  00021	89 45 ec	 mov	 DWORD PTR __Ptr$3[ebp], eax
; File C:\Program Files (x86)\Microsoft Visual Studio\2019\Community\VC\Tools\MSVC\14.28.29333\include\xstddef

; 289  :     return _Ptr;

  00024	8b 45 ec	 mov	 eax, DWORD PTR __Ptr$3[ebp]
  00027	89 45 e8	 mov	 DWORD PTR $T2[ebp], eax
; File C:\Program Files (x86)\Microsoft Visual Studio\2019\Community\VC\Tools\MSVC\14.28.29333\include\vector

; 310  :         return _Unfancy(this->_Ptr);

  0002a	8b 45 e8	 mov	 eax, DWORD PTR $T2[ebp]
  0002d	89 45 e4	 mov	 DWORD PTR $T1[ebp], eax
; File C:\Program Files (x86)\Microsoft Visual Studio\2019\Community\VC\Tools\MSVC\14.28.29333\include\algorithm

; 306  :     const auto _ULast = _Get_unwrapped(_Last);

  00030	8b 45 e4	 mov	 eax, DWORD PTR $T1[ebp]
  00033	89 45 e0	 mov	 DWORD PTR __ULast$[ebp], eax

; 307  :     for (; _UFirst != _ULast; ++_UFirst) {

  00036	eb 09		 jmp	 SHORT $LN4@for_each
$LN2@for_each:
  00038	8b 45 fc	 mov	 eax, DWORD PTR __UFirst$[ebp]
  0003b	83 c0 04	 add	 eax, 4
  0003e	89 45 fc	 mov	 DWORD PTR __UFirst$[ebp], eax
$LN4@for_each:
  00041	8b 45 fc	 mov	 eax, DWORD PTR __UFirst$[ebp]
  00044	3b 45 e0	 cmp	 eax, DWORD PTR __ULast$[ebp]
  00047	74 0b		 je	 SHORT $LN3@for_each

; 308  :         _Func(*_UFirst);

  00049	8b 45 fc	 mov	 eax, DWORD PTR __UFirst$[ebp]
  0004c	ff 30		 push	 DWORD PTR [eax]
  0004e	ff 55 10	 call	 DWORD PTR __Func$[ebp]
  00051	59		 pop	 ecx

; 309  :     }

  00052	eb e4		 jmp	 SHORT $LN2@for_each
$LN3@for_each:

; 310  : 
; 311  :     return _Func;

  00054	8b 45 10	 mov	 eax, DWORD PTR __Func$[ebp]

; 312  : }

  00057	c9		 leave
  00058	c3		 ret	 0
??$for_each@V?$_Vector_iterator@V?$_Vector_val@U?$_Simple_types@PAVCGravityDecorator@NEffectUpdateDecorator@@@std@@@std@@@std@@P6AXPAVCGravityDecorator@NEffectUpdateDecorator@@@Z@std@@YAP6AXPAVCGravityDecorator@NEffectUpdateDecorator@@@ZV?$_Vector_iterator@V?$_Vector_val@U?$_Simple_types@PAVCGravityDecorator@NEffectUpdateDecorator@@@std@@@std@@@0@1P6AX0@Z@Z ENDP ; std::for_each<std::_Vector_iterator<std::_Vector_val<std::_Simple_types<NEffectUpdateDecorator::CGravityDecorator *> > >,void (__cdecl*)(NEffectUpdateDecorator::CGravityDecorator *)>
_TEXT	ENDS
; Function compile flags: /Odspy
; File C:\Program Files (x86)\Microsoft Visual Studio\2019\Community\VC\Tools\MSVC\14.28.29333\include\algorithm
; File C:\Program Files (x86)\Microsoft Visual Studio\2019\Community\VC\Tools\MSVC\14.28.29333\include\vector
; File C:\Program Files (x86)\Microsoft Visual Studio\2019\Community\VC\Tools\MSVC\14.28.29333\include\xstddef
; File C:\Program Files (x86)\Microsoft Visual Studio\2019\Community\VC\Tools\MSVC\14.28.29333\include\vector
; File C:\Program Files (x86)\Microsoft Visual Studio\2019\Community\VC\Tools\MSVC\14.28.29333\include\algorithm
; File C:\Program Files (x86)\Microsoft Visual Studio\2019\Community\VC\Tools\MSVC\14.28.29333\include\vector
; File C:\Program Files (x86)\Microsoft Visual Studio\2019\Community\VC\Tools\MSVC\14.28.29333\include\xstddef
; File C:\Program Files (x86)\Microsoft Visual Studio\2019\Community\VC\Tools\MSVC\14.28.29333\include\vector
; File C:\Program Files (x86)\Microsoft Visual Studio\2019\Community\VC\Tools\MSVC\14.28.29333\include\algorithm
;	COMDAT ??$for_each@V?$_Vector_iterator@V?$_Vector_val@U?$_Simple_types@PAVCAirResistanceDecorator@NEffectUpdateDecorator@@@std@@@std@@@std@@P6AXPAVCAirResistanceDecorator@NEffectUpdateDecorator@@@Z@std@@YAP6AXPAVCAirResistanceDecorator@NEffectUpdateDecorator@@@ZV?$_Vector_iterator@V?$_Vector_val@U?$_Simple_types@PAVCAirResistanceDecorator@NEffectUpdateDecorator@@@std@@@std@@@0@1P6AX0@Z@Z
_TEXT	SEGMENT
__ULast$ = -32						; size = 4
$T1 = -28						; size = 4
$T2 = -24						; size = 4
__Ptr$3 = -20						; size = 4
$T4 = -16						; size = 4
$T5 = -12						; size = 4
__Ptr$6 = -8						; size = 4
__UFirst$ = -4						; size = 4
__First$ = 8						; size = 4
__Last$ = 12						; size = 4
__Func$ = 16						; size = 4
??$for_each@V?$_Vector_iterator@V?$_Vector_val@U?$_Simple_types@PAVCAirResistanceDecorator@NEffectUpdateDecorator@@@std@@@std@@@std@@P6AXPAVCAirResistanceDecorator@NEffectUpdateDecorator@@@Z@std@@YAP6AXPAVCAirResistanceDecorator@NEffectUpdateDecorator@@@ZV?$_Vector_iterator@V?$_Vector_val@U?$_Simple_types@PAVCAirResistanceDecorator@NEffectUpdateDecorator@@@std@@@std@@@0@1P6AX0@Z@Z PROC ; std::for_each<std::_Vector_iterator<std::_Vector_val<std::_Simple_types<NEffectUpdateDecorator::CAirResistanceDecorator *> > >,void (__cdecl*)(NEffectUpdateDecorator::CAirResistanceDecorator *)>, COMDAT

; 303  : _CONSTEXPR20 _Fn for_each(_InIt _First, _InIt _Last, _Fn _Func) { // perform function for each element [_First, _Last)

  00000	55		 push	 ebp
  00001	8b ec		 mov	 ebp, esp
  00003	83 ec 20	 sub	 esp, 32			; 00000020H
; File C:\Program Files (x86)\Microsoft Visual Studio\2019\Community\VC\Tools\MSVC\14.28.29333\include\vector

; 310  :         return _Unfancy(this->_Ptr);

  00006	8b 45 08	 mov	 eax, DWORD PTR __First$[ebp]
  00009	89 45 f8	 mov	 DWORD PTR __Ptr$6[ebp], eax
; File C:\Program Files (x86)\Microsoft Visual Studio\2019\Community\VC\Tools\MSVC\14.28.29333\include\xstddef

; 289  :     return _Ptr;

  0000c	8b 45 f8	 mov	 eax, DWORD PTR __Ptr$6[ebp]
  0000f	89 45 f4	 mov	 DWORD PTR $T5[ebp], eax
; File C:\Program Files (x86)\Microsoft Visual Studio\2019\Community\VC\Tools\MSVC\14.28.29333\include\vector

; 310  :         return _Unfancy(this->_Ptr);

  00012	8b 45 f4	 mov	 eax, DWORD PTR $T5[ebp]
  00015	89 45 f0	 mov	 DWORD PTR $T4[ebp], eax
; File C:\Program Files (x86)\Microsoft Visual Studio\2019\Community\VC\Tools\MSVC\14.28.29333\include\algorithm

; 305  :     auto _UFirst      = _Get_unwrapped(_First);

  00018	8b 45 f0	 mov	 eax, DWORD PTR $T4[ebp]
  0001b	89 45 fc	 mov	 DWORD PTR __UFirst$[ebp], eax
; File C:\Program Files (x86)\Microsoft Visual Studio\2019\Community\VC\Tools\MSVC\14.28.29333\include\vector

; 310  :         return _Unfancy(this->_Ptr);

  0001e	8b 45 0c	 mov	 eax, DWORD PTR __Last$[ebp]
  00021	89 45 ec	 mov	 DWORD PTR __Ptr$3[ebp], eax
; File C:\Program Files (x86)\Microsoft Visual Studio\2019\Community\VC\Tools\MSVC\14.28.29333\include\xstddef

; 289  :     return _Ptr;

  00024	8b 45 ec	 mov	 eax, DWORD PTR __Ptr$3[ebp]
  00027	89 45 e8	 mov	 DWORD PTR $T2[ebp], eax
; File C:\Program Files (x86)\Microsoft Visual Studio\2019\Community\VC\Tools\MSVC\14.28.29333\include\vector

; 310  :         return _Unfancy(this->_Ptr);

  0002a	8b 45 e8	 mov	 eax, DWORD PTR $T2[ebp]
  0002d	89 45 e4	 mov	 DWORD PTR $T1[ebp], eax
; File C:\Program Files (x86)\Microsoft Visual Studio\2019\Community\VC\Tools\MSVC\14.28.29333\include\algorithm

; 306  :     const auto _ULast = _Get_unwrapped(_Last);

  00030	8b 45 e4	 mov	 eax, DWORD PTR $T1[ebp]
  00033	89 45 e0	 mov	 DWORD PTR __ULast$[ebp], eax

; 307  :     for (; _UFirst != _ULast; ++_UFirst) {

  00036	eb 09		 jmp	 SHORT $LN4@for_each
$LN2@for_each:
  00038	8b 45 fc	 mov	 eax, DWORD PTR __UFirst$[ebp]
  0003b	83 c0 04	 add	 eax, 4
  0003e	89 45 fc	 mov	 DWORD PTR __UFirst$[ebp], eax
$LN4@for_each:
  00041	8b 45 fc	 mov	 eax, DWORD PTR __UFirst$[ebp]
  00044	3b 45 e0	 cmp	 eax, DWORD PTR __ULast$[ebp]
  00047	74 0b		 je	 SHORT $LN3@for_each

; 308  :         _Func(*_UFirst);

  00049	8b 45 fc	 mov	 eax, DWORD PTR __UFirst$[ebp]
  0004c	ff 30		 push	 DWORD PTR [eax]
  0004e	ff 55 10	 call	 DWORD PTR __Func$[ebp]
  00051	59		 pop	 ecx

; 309  :     }

  00052	eb e4		 jmp	 SHORT $LN2@for_each
$LN3@for_each:

; 310  : 
; 311  :     return _Func;

  00054	8b 45 10	 mov	 eax, DWORD PTR __Func$[ebp]

; 312  : }

  00057	c9		 leave
  00058	c3		 ret	 0
??$for_each@V?$_Vector_iterator@V?$_Vector_val@U?$_Simple_types@PAVCAirResistanceDecorator@NEffectUpdateDecorator@@@std@@@std@@@std@@P6AXPAVCAirResistanceDecorator@NEffectUpdateDecorator@@@Z@std@@YAP6AXPAVCAirResistanceDecorator@NEffectUpdateDecorator@@@ZV?$_Vector_iterator@V?$_Vector_val@U?$_Simple_types@PAVCAirResistanceDecorator@NEffectUpdateDecorator@@@std@@@std@@@0@1P6AX0@Z@Z ENDP ; std::for_each<std::_Vector_iterator<std::_Vector_val<std::_Simple_types<NEffectUpdateDecorator::CAirResistanceDecorator *> > >,void (__cdecl*)(NEffectUpdateDecorator::CAirResistanceDecorator *)>
_TEXT	ENDS
; Function compile flags: /Odspy
; File C:\Program Files (x86)\Microsoft Visual Studio\2019\Community\VC\Tools\MSVC\14.28.29333\include\algorithm
; File C:\Program Files (x86)\Microsoft Visual Studio\2019\Community\VC\Tools\MSVC\14.28.29333\include\vector
; File C:\Program Files (x86)\Microsoft Visual Studio\2019\Community\VC\Tools\MSVC\14.28.29333\include\xstddef
; File C:\Program Files (x86)\Microsoft Visual Studio\2019\Community\VC\Tools\MSVC\14.28.29333\include\vector
; File C:\Program Files (x86)\Microsoft Visual Studio\2019\Community\VC\Tools\MSVC\14.28.29333\include\algorithm
; File C:\Program Files (x86)\Microsoft Visual Studio\2019\Community\VC\Tools\MSVC\14.28.29333\include\vector
; File C:\Program Files (x86)\Microsoft Visual Studio\2019\Community\VC\Tools\MSVC\14.28.29333\include\xstddef
; File C:\Program Files (x86)\Microsoft Visual Studio\2019\Community\VC\Tools\MSVC\14.28.29333\include\vector
; File C:\Program Files (x86)\Microsoft Visual Studio\2019\Community\VC\Tools\MSVC\14.28.29333\include\algorithm
;	COMDAT ??$for_each@V?$_Vector_iterator@V?$_Vector_val@U?$_Simple_types@PAVCTextureAnimationRandomDecorator@NEffectUpdateDecorator@@@std@@@std@@@std@@P6AXPAVCTextureAnimationRandomDecorator@NEffectUpdateDecorator@@@Z@std@@YAP6AXPAVCTextureAnimationRandomDecorator@NEffectUpdateDecorator@@@ZV?$_Vector_iterator@V?$_Vector_val@U?$_Simple_types@PAVCTextureAnimationRandomDecorator@NEffectUpdateDecorator@@@std@@@std@@@0@1P6AX0@Z@Z
_TEXT	SEGMENT
__ULast$ = -32						; size = 4
$T1 = -28						; size = 4
$T2 = -24						; size = 4
__Ptr$3 = -20						; size = 4
$T4 = -16						; size = 4
$T5 = -12						; size = 4
__Ptr$6 = -8						; size = 4
__UFirst$ = -4						; size = 4
__First$ = 8						; size = 4
__Last$ = 12						; size = 4
__Func$ = 16						; size = 4
??$for_each@V?$_Vector_iterator@V?$_Vector_val@U?$_Simple_types@PAVCTextureAnimationRandomDecorator@NEffectUpdateDecorator@@@std@@@std@@@std@@P6AXPAVCTextureAnimationRandomDecorator@NEffectUpdateDecorator@@@Z@std@@YAP6AXPAVCTextureAnimationRandomDecorator@NEffectUpdateDecorator@@@ZV?$_Vector_iterator@V?$_Vector_val@U?$_Simple_types@PAVCTextureAnimationRandomDecorator@NEffectUpdateDecorator@@@std@@@std@@@0@1P6AX0@Z@Z PROC ; std::for_each<std::_Vector_iterator<std::_Vector_val<std::_Simple_types<NEffectUpdateDecorator::CTextureAnimationRandomDecorator *> > >,void (__cdecl*)(NEffectUpdateDecorator::CTextureAnimationRandomDecorator *)>, COMDAT

; 303  : _CONSTEXPR20 _Fn for_each(_InIt _First, _InIt _Last, _Fn _Func) { // perform function for each element [_First, _Last)

  00000	55		 push	 ebp
  00001	8b ec		 mov	 ebp, esp
  00003	83 ec 20	 sub	 esp, 32			; 00000020H
; File C:\Program Files (x86)\Microsoft Visual Studio\2019\Community\VC\Tools\MSVC\14.28.29333\include\vector

; 310  :         return _Unfancy(this->_Ptr);

  00006	8b 45 08	 mov	 eax, DWORD PTR __First$[ebp]
  00009	89 45 f8	 mov	 DWORD PTR __Ptr$6[ebp], eax
; File C:\Program Files (x86)\Microsoft Visual Studio\2019\Community\VC\Tools\MSVC\14.28.29333\include\xstddef

; 289  :     return _Ptr;

  0000c	8b 45 f8	 mov	 eax, DWORD PTR __Ptr$6[ebp]
  0000f	89 45 f4	 mov	 DWORD PTR $T5[ebp], eax
; File C:\Program Files (x86)\Microsoft Visual Studio\2019\Community\VC\Tools\MSVC\14.28.29333\include\vector

; 310  :         return _Unfancy(this->_Ptr);

  00012	8b 45 f4	 mov	 eax, DWORD PTR $T5[ebp]
  00015	89 45 f0	 mov	 DWORD PTR $T4[ebp], eax
; File C:\Program Files (x86)\Microsoft Visual Studio\2019\Community\VC\Tools\MSVC\14.28.29333\include\algorithm

; 305  :     auto _UFirst      = _Get_unwrapped(_First);

  00018	8b 45 f0	 mov	 eax, DWORD PTR $T4[ebp]
  0001b	89 45 fc	 mov	 DWORD PTR __UFirst$[ebp], eax
; File C:\Program Files (x86)\Microsoft Visual Studio\2019\Community\VC\Tools\MSVC\14.28.29333\include\vector

; 310  :         return _Unfancy(this->_Ptr);

  0001e	8b 45 0c	 mov	 eax, DWORD PTR __Last$[ebp]
  00021	89 45 ec	 mov	 DWORD PTR __Ptr$3[ebp], eax
; File C:\Program Files (x86)\Microsoft Visual Studio\2019\Community\VC\Tools\MSVC\14.28.29333\include\xstddef

; 289  :     return _Ptr;

  00024	8b 45 ec	 mov	 eax, DWORD PTR __Ptr$3[ebp]
  00027	89 45 e8	 mov	 DWORD PTR $T2[ebp], eax
; File C:\Program Files (x86)\Microsoft Visual Studio\2019\Community\VC\Tools\MSVC\14.28.29333\include\vector

; 310  :         return _Unfancy(this->_Ptr);

  0002a	8b 45 e8	 mov	 eax, DWORD PTR $T2[ebp]
  0002d	89 45 e4	 mov	 DWORD PTR $T1[ebp], eax
; File C:\Program Files (x86)\Microsoft Visual Studio\2019\Community\VC\Tools\MSVC\14.28.29333\include\algorithm

; 306  :     const auto _ULast = _Get_unwrapped(_Last);

  00030	8b 45 e4	 mov	 eax, DWORD PTR $T1[ebp]
  00033	89 45 e0	 mov	 DWORD PTR __ULast$[ebp], eax

; 307  :     for (; _UFirst != _ULast; ++_UFirst) {

  00036	eb 09		 jmp	 SHORT $LN4@for_each
$LN2@for_each:
  00038	8b 45 fc	 mov	 eax, DWORD PTR __UFirst$[ebp]
  0003b	83 c0 04	 add	 eax, 4
  0003e	89 45 fc	 mov	 DWORD PTR __UFirst$[ebp], eax
$LN4@for_each:
  00041	8b 45 fc	 mov	 eax, DWORD PTR __UFirst$[ebp]
  00044	3b 45 e0	 cmp	 eax, DWORD PTR __ULast$[ebp]
  00047	74 0b		 je	 SHORT $LN3@for_each

; 308  :         _Func(*_UFirst);

  00049	8b 45 fc	 mov	 eax, DWORD PTR __UFirst$[ebp]
  0004c	ff 30		 push	 DWORD PTR [eax]
  0004e	ff 55 10	 call	 DWORD PTR __Func$[ebp]
  00051	59		 pop	 ecx

; 309  :     }

  00052	eb e4		 jmp	 SHORT $LN2@for_each
$LN3@for_each:

; 310  : 
; 311  :     return _Func;

  00054	8b 45 10	 mov	 eax, DWORD PTR __Func$[ebp]

; 312  : }

  00057	c9		 leave
  00058	c3		 ret	 0
??$for_each@V?$_Vector_iterator@V?$_Vector_val@U?$_Simple_types@PAVCTextureAnimationRandomDecorator@NEffectUpdateDecorator@@@std@@@std@@@std@@P6AXPAVCTextureAnimationRandomDecorator@NEffectUpdateDecorator@@@Z@std@@YAP6AXPAVCTextureAnimationRandomDecorator@NEffectUpdateDecorator@@@ZV?$_Vector_iterator@V?$_Vector_val@U?$_Simple_types@PAVCTextureAnimationRandomDecorator@NEffectUpdateDecorator@@@std@@@std@@@0@1P6AX0@Z@Z ENDP ; std::for_each<std::_Vector_iterator<std::_Vector_val<std::_Simple_types<NEffectUpdateDecorator::CTextureAnimationRandomDecorator *> > >,void (__cdecl*)(NEffectUpdateDecorator::CTextureAnimationRandomDecorator *)>
_TEXT	ENDS
; Function compile flags: /Odspy
; File C:\Program Files (x86)\Microsoft Visual Studio\2019\Community\VC\Tools\MSVC\14.28.29333\include\algorithm
; File C:\Program Files (x86)\Microsoft Visual Studio\2019\Community\VC\Tools\MSVC\14.28.29333\include\vector
; File C:\Program Files (x86)\Microsoft Visual Studio\2019\Community\VC\Tools\MSVC\14.28.29333\include\xstddef
; File C:\Program Files (x86)\Microsoft Visual Studio\2019\Community\VC\Tools\MSVC\14.28.29333\include\vector
; File C:\Program Files (x86)\Microsoft Visual Studio\2019\Community\VC\Tools\MSVC\14.28.29333\include\algorithm
; File C:\Program Files (x86)\Microsoft Visual Studio\2019\Community\VC\Tools\MSVC\14.28.29333\include\vector
; File C:\Program Files (x86)\Microsoft Visual Studio\2019\Community\VC\Tools\MSVC\14.28.29333\include\xstddef
; File C:\Program Files (x86)\Microsoft Visual Studio\2019\Community\VC\Tools\MSVC\14.28.29333\include\vector
; File C:\Program Files (x86)\Microsoft Visual Studio\2019\Community\VC\Tools\MSVC\14.28.29333\include\algorithm
;	COMDAT ??$for_each@V?$_Vector_iterator@V?$_Vector_val@U?$_Simple_types@PAVCTextureAnimationCCWDecorator@NEffectUpdateDecorator@@@std@@@std@@@std@@P6AXPAVCTextureAnimationCCWDecorator@NEffectUpdateDecorator@@@Z@std@@YAP6AXPAVCTextureAnimationCCWDecorator@NEffectUpdateDecorator@@@ZV?$_Vector_iterator@V?$_Vector_val@U?$_Simple_types@PAVCTextureAnimationCCWDecorator@NEffectUpdateDecorator@@@std@@@std@@@0@1P6AX0@Z@Z
_TEXT	SEGMENT
__ULast$ = -32						; size = 4
$T1 = -28						; size = 4
$T2 = -24						; size = 4
__Ptr$3 = -20						; size = 4
$T4 = -16						; size = 4
$T5 = -12						; size = 4
__Ptr$6 = -8						; size = 4
__UFirst$ = -4						; size = 4
__First$ = 8						; size = 4
__Last$ = 12						; size = 4
__Func$ = 16						; size = 4
??$for_each@V?$_Vector_iterator@V?$_Vector_val@U?$_Simple_types@PAVCTextureAnimationCCWDecorator@NEffectUpdateDecorator@@@std@@@std@@@std@@P6AXPAVCTextureAnimationCCWDecorator@NEffectUpdateDecorator@@@Z@std@@YAP6AXPAVCTextureAnimationCCWDecorator@NEffectUpdateDecorator@@@ZV?$_Vector_iterator@V?$_Vector_val@U?$_Simple_types@PAVCTextureAnimationCCWDecorator@NEffectUpdateDecorator@@@std@@@std@@@0@1P6AX0@Z@Z PROC ; std::for_each<std::_Vector_iterator<std::_Vector_val<std::_Simple_types<NEffectUpdateDecorator::CTextureAnimationCCWDecorator *> > >,void (__cdecl*)(NEffectUpdateDecorator::CTextureAnimationCCWDecorator *)>, COMDAT

; 303  : _CONSTEXPR20 _Fn for_each(_InIt _First, _InIt _Last, _Fn _Func) { // perform function for each element [_First, _Last)

  00000	55		 push	 ebp
  00001	8b ec		 mov	 ebp, esp
  00003	83 ec 20	 sub	 esp, 32			; 00000020H
; File C:\Program Files (x86)\Microsoft Visual Studio\2019\Community\VC\Tools\MSVC\14.28.29333\include\vector

; 310  :         return _Unfancy(this->_Ptr);

  00006	8b 45 08	 mov	 eax, DWORD PTR __First$[ebp]
  00009	89 45 f8	 mov	 DWORD PTR __Ptr$6[ebp], eax
; File C:\Program Files (x86)\Microsoft Visual Studio\2019\Community\VC\Tools\MSVC\14.28.29333\include\xstddef

; 289  :     return _Ptr;

  0000c	8b 45 f8	 mov	 eax, DWORD PTR __Ptr$6[ebp]
  0000f	89 45 f4	 mov	 DWORD PTR $T5[ebp], eax
; File C:\Program Files (x86)\Microsoft Visual Studio\2019\Community\VC\Tools\MSVC\14.28.29333\include\vector

; 310  :         return _Unfancy(this->_Ptr);

  00012	8b 45 f4	 mov	 eax, DWORD PTR $T5[ebp]
  00015	89 45 f0	 mov	 DWORD PTR $T4[ebp], eax
; File C:\Program Files (x86)\Microsoft Visual Studio\2019\Community\VC\Tools\MSVC\14.28.29333\include\algorithm

; 305  :     auto _UFirst      = _Get_unwrapped(_First);

  00018	8b 45 f0	 mov	 eax, DWORD PTR $T4[ebp]
  0001b	89 45 fc	 mov	 DWORD PTR __UFirst$[ebp], eax
; File C:\Program Files (x86)\Microsoft Visual Studio\2019\Community\VC\Tools\MSVC\14.28.29333\include\vector

; 310  :         return _Unfancy(this->_Ptr);

  0001e	8b 45 0c	 mov	 eax, DWORD PTR __Last$[ebp]
  00021	89 45 ec	 mov	 DWORD PTR __Ptr$3[ebp], eax
; File C:\Program Files (x86)\Microsoft Visual Studio\2019\Community\VC\Tools\MSVC\14.28.29333\include\xstddef

; 289  :     return _Ptr;

  00024	8b 45 ec	 mov	 eax, DWORD PTR __Ptr$3[ebp]
  00027	89 45 e8	 mov	 DWORD PTR $T2[ebp], eax
; File C:\Program Files (x86)\Microsoft Visual Studio\2019\Community\VC\Tools\MSVC\14.28.29333\include\vector

; 310  :         return _Unfancy(this->_Ptr);

  0002a	8b 45 e8	 mov	 eax, DWORD PTR $T2[ebp]
  0002d	89 45 e4	 mov	 DWORD PTR $T1[ebp], eax
; File C:\Program Files (x86)\Microsoft Visual Studio\2019\Community\VC\Tools\MSVC\14.28.29333\include\algorithm

; 306  :     const auto _ULast = _Get_unwrapped(_Last);

  00030	8b 45 e4	 mov	 eax, DWORD PTR $T1[ebp]
  00033	89 45 e0	 mov	 DWORD PTR __ULast$[ebp], eax

; 307  :     for (; _UFirst != _ULast; ++_UFirst) {

  00036	eb 09		 jmp	 SHORT $LN4@for_each
$LN2@for_each:
  00038	8b 45 fc	 mov	 eax, DWORD PTR __UFirst$[ebp]
  0003b	83 c0 04	 add	 eax, 4
  0003e	89 45 fc	 mov	 DWORD PTR __UFirst$[ebp], eax
$LN4@for_each:
  00041	8b 45 fc	 mov	 eax, DWORD PTR __UFirst$[ebp]
  00044	3b 45 e0	 cmp	 eax, DWORD PTR __ULast$[ebp]
  00047	74 0b		 je	 SHORT $LN3@for_each

; 308  :         _Func(*_UFirst);

  00049	8b 45 fc	 mov	 eax, DWORD PTR __UFirst$[ebp]
  0004c	ff 30		 push	 DWORD PTR [eax]
  0004e	ff 55 10	 call	 DWORD PTR __Func$[ebp]
  00051	59		 pop	 ecx

; 309  :     }

  00052	eb e4		 jmp	 SHORT $LN2@for_each
$LN3@for_each:

; 310  : 
; 311  :     return _Func;

  00054	8b 45 10	 mov	 eax, DWORD PTR __Func$[ebp]

; 312  : }

  00057	c9		 leave
  00058	c3		 ret	 0
??$for_each@V?$_Vector_iterator@V?$_Vector_val@U?$_Simple_types@PAVCTextureAnimationCCWDecorator@NEffectUpdateDecorator@@@std@@@std@@@std@@P6AXPAVCTextureAnimationCCWDecorator@NEffectUpdateDecorator@@@Z@std@@YAP6AXPAVCTextureAnimationCCWDecorator@NEffectUpdateDecorator@@@ZV?$_Vector_iterator@V?$_Vector_val@U?$_Simple_types@PAVCTextureAnimationCCWDecorator@NEffectUpdateDecorator@@@std@@@std@@@0@1P6AX0@Z@Z ENDP ; std::for_each<std::_Vector_iterator<std::_Vector_val<std::_Simple_types<NEffectUpdateDecorator::CTextureAnimationCCWDecorator *> > >,void (__cdecl*)(NEffectUpdateDecorator::CTextureAnimationCCWDecorator *)>
_TEXT	ENDS
; Function compile flags: /Odspy
; File C:\Program Files (x86)\Microsoft Visual Studio\2019\Community\VC\Tools\MSVC\14.28.29333\include\algorithm
; File C:\Program Files (x86)\Microsoft Visual Studio\2019\Community\VC\Tools\MSVC\14.28.29333\include\vector
; File C:\Program Files (x86)\Microsoft Visual Studio\2019\Community\VC\Tools\MSVC\14.28.29333\include\xstddef
; File C:\Program Files (x86)\Microsoft Visual Studio\2019\Community\VC\Tools\MSVC\14.28.29333\include\vector
; File C:\Program Files (x86)\Microsoft Visual Studio\2019\Community\VC\Tools\MSVC\14.28.29333\include\algorithm
; File C:\Program Files (x86)\Microsoft Visual Studio\2019\Community\VC\Tools\MSVC\14.28.29333\include\vector
; File C:\Program Files (x86)\Microsoft Visual Studio\2019\Community\VC\Tools\MSVC\14.28.29333\include\xstddef
; File C:\Program Files (x86)\Microsoft Visual Studio\2019\Community\VC\Tools\MSVC\14.28.29333\include\vector
; File C:\Program Files (x86)\Microsoft Visual Studio\2019\Community\VC\Tools\MSVC\14.28.29333\include\algorithm
;	COMDAT ??$for_each@V?$_Vector_iterator@V?$_Vector_val@U?$_Simple_types@PAVCTextureAnimationCWDecorator@NEffectUpdateDecorator@@@std@@@std@@@std@@P6AXPAVCTextureAnimationCWDecorator@NEffectUpdateDecorator@@@Z@std@@YAP6AXPAVCTextureAnimationCWDecorator@NEffectUpdateDecorator@@@ZV?$_Vector_iterator@V?$_Vector_val@U?$_Simple_types@PAVCTextureAnimationCWDecorator@NEffectUpdateDecorator@@@std@@@std@@@0@1P6AX0@Z@Z
_TEXT	SEGMENT
__ULast$ = -32						; size = 4
$T1 = -28						; size = 4
$T2 = -24						; size = 4
__Ptr$3 = -20						; size = 4
$T4 = -16						; size = 4
$T5 = -12						; size = 4
__Ptr$6 = -8						; size = 4
__UFirst$ = -4						; size = 4
__First$ = 8						; size = 4
__Last$ = 12						; size = 4
__Func$ = 16						; size = 4
??$for_each@V?$_Vector_iterator@V?$_Vector_val@U?$_Simple_types@PAVCTextureAnimationCWDecorator@NEffectUpdateDecorator@@@std@@@std@@@std@@P6AXPAVCTextureAnimationCWDecorator@NEffectUpdateDecorator@@@Z@std@@YAP6AXPAVCTextureAnimationCWDecorator@NEffectUpdateDecorator@@@ZV?$_Vector_iterator@V?$_Vector_val@U?$_Simple_types@PAVCTextureAnimationCWDecorator@NEffectUpdateDecorator@@@std@@@std@@@0@1P6AX0@Z@Z PROC ; std::for_each<std::_Vector_iterator<std::_Vector_val<std::_Simple_types<NEffectUpdateDecorator::CTextureAnimationCWDecorator *> > >,void (__cdecl*)(NEffectUpdateDecorator::CTextureAnimationCWDecorator *)>, COMDAT

; 303  : _CONSTEXPR20 _Fn for_each(_InIt _First, _InIt _Last, _Fn _Func) { // perform function for each element [_First, _Last)

  00000	55		 push	 ebp
  00001	8b ec		 mov	 ebp, esp
  00003	83 ec 20	 sub	 esp, 32			; 00000020H
; File C:\Program Files (x86)\Microsoft Visual Studio\2019\Community\VC\Tools\MSVC\14.28.29333\include\vector

; 310  :         return _Unfancy(this->_Ptr);

  00006	8b 45 08	 mov	 eax, DWORD PTR __First$[ebp]
  00009	89 45 f8	 mov	 DWORD PTR __Ptr$6[ebp], eax
; File C:\Program Files (x86)\Microsoft Visual Studio\2019\Community\VC\Tools\MSVC\14.28.29333\include\xstddef

; 289  :     return _Ptr;

  0000c	8b 45 f8	 mov	 eax, DWORD PTR __Ptr$6[ebp]
  0000f	89 45 f4	 mov	 DWORD PTR $T5[ebp], eax
; File C:\Program Files (x86)\Microsoft Visual Studio\2019\Community\VC\Tools\MSVC\14.28.29333\include\vector

; 310  :         return _Unfancy(this->_Ptr);

  00012	8b 45 f4	 mov	 eax, DWORD PTR $T5[ebp]
  00015	89 45 f0	 mov	 DWORD PTR $T4[ebp], eax
; File C:\Program Files (x86)\Microsoft Visual Studio\2019\Community\VC\Tools\MSVC\14.28.29333\include\algorithm

; 305  :     auto _UFirst      = _Get_unwrapped(_First);

  00018	8b 45 f0	 mov	 eax, DWORD PTR $T4[ebp]
  0001b	89 45 fc	 mov	 DWORD PTR __UFirst$[ebp], eax
; File C:\Program Files (x86)\Microsoft Visual Studio\2019\Community\VC\Tools\MSVC\14.28.29333\include\vector

; 310  :         return _Unfancy(this->_Ptr);

  0001e	8b 45 0c	 mov	 eax, DWORD PTR __Last$[ebp]
  00021	89 45 ec	 mov	 DWORD PTR __Ptr$3[ebp], eax
; File C:\Program Files (x86)\Microsoft Visual Studio\2019\Community\VC\Tools\MSVC\14.28.29333\include\xstddef

; 289  :     return _Ptr;

  00024	8b 45 ec	 mov	 eax, DWORD PTR __Ptr$3[ebp]
  00027	89 45 e8	 mov	 DWORD PTR $T2[ebp], eax
; File C:\Program Files (x86)\Microsoft Visual Studio\2019\Community\VC\Tools\MSVC\14.28.29333\include\vector

; 310  :         return _Unfancy(this->_Ptr);

  0002a	8b 45 e8	 mov	 eax, DWORD PTR $T2[ebp]
  0002d	89 45 e4	 mov	 DWORD PTR $T1[ebp], eax
; File C:\Program Files (x86)\Microsoft Visual Studio\2019\Community\VC\Tools\MSVC\14.28.29333\include\algorithm

; 306  :     const auto _ULast = _Get_unwrapped(_Last);

  00030	8b 45 e4	 mov	 eax, DWORD PTR $T1[ebp]
  00033	89 45 e0	 mov	 DWORD PTR __ULast$[ebp], eax

; 307  :     for (; _UFirst != _ULast; ++_UFirst) {

  00036	eb 09		 jmp	 SHORT $LN4@for_each
$LN2@for_each:
  00038	8b 45 fc	 mov	 eax, DWORD PTR __UFirst$[ebp]
  0003b	83 c0 04	 add	 eax, 4
  0003e	89 45 fc	 mov	 DWORD PTR __UFirst$[ebp], eax
$LN4@for_each:
  00041	8b 45 fc	 mov	 eax, DWORD PTR __UFirst$[ebp]
  00044	3b 45 e0	 cmp	 eax, DWORD PTR __ULast$[ebp]
  00047	74 0b		 je	 SHORT $LN3@for_each

; 308  :         _Func(*_UFirst);

  00049	8b 45 fc	 mov	 eax, DWORD PTR __UFirst$[ebp]
  0004c	ff 30		 push	 DWORD PTR [eax]
  0004e	ff 55 10	 call	 DWORD PTR __Func$[ebp]
  00051	59		 pop	 ecx

; 309  :     }

  00052	eb e4		 jmp	 SHORT $LN2@for_each
$LN3@for_each:

; 310  : 
; 311  :     return _Func;

  00054	8b 45 10	 mov	 eax, DWORD PTR __Func$[ebp]

; 312  : }

  00057	c9		 leave
  00058	c3		 ret	 0
??$for_each@V?$_Vector_iterator@V?$_Vector_val@U?$_Simple_types@PAVCTextureAnimationCWDecorator@NEffectUpdateDecorator@@@std@@@std@@@std@@P6AXPAVCTextureAnimationCWDecorator@NEffectUpdateDecorator@@@Z@std@@YAP6AXPAVCTextureAnimationCWDecorator@NEffectUpdateDecorator@@@ZV?$_Vector_iterator@V?$_Vector_val@U?$_Simple_types@PAVCTextureAnimationCWDecorator@NEffectUpdateDecorator@@@std@@@std@@@0@1P6AX0@Z@Z ENDP ; std::for_each<std::_Vector_iterator<std::_Vector_val<std::_Simple_types<NEffectUpdateDecorator::CTextureAnimationCWDecorator *> > >,void (__cdecl*)(NEffectUpdateDecorator::CTextureAnimationCWDecorator *)>
_TEXT	ENDS
; Function compile flags: /Odspy
; File C:\Program Files (x86)\Microsoft Visual Studio\2019\Community\VC\Tools\MSVC\14.28.29333\include\algorithm
; File C:\Program Files (x86)\Microsoft Visual Studio\2019\Community\VC\Tools\MSVC\14.28.29333\include\vector
; File C:\Program Files (x86)\Microsoft Visual Studio\2019\Community\VC\Tools\MSVC\14.28.29333\include\xstddef
; File C:\Program Files (x86)\Microsoft Visual Studio\2019\Community\VC\Tools\MSVC\14.28.29333\include\vector
; File C:\Program Files (x86)\Microsoft Visual Studio\2019\Community\VC\Tools\MSVC\14.28.29333\include\algorithm
; File C:\Program Files (x86)\Microsoft Visual Studio\2019\Community\VC\Tools\MSVC\14.28.29333\include\vector
; File C:\Program Files (x86)\Microsoft Visual Studio\2019\Community\VC\Tools\MSVC\14.28.29333\include\xstddef
; File C:\Program Files (x86)\Microsoft Visual Studio\2019\Community\VC\Tools\MSVC\14.28.29333\include\vector
; File C:\Program Files (x86)\Microsoft Visual Studio\2019\Community\VC\Tools\MSVC\14.28.29333\include\algorithm
;	COMDAT ??$for_each@V?$_Vector_iterator@V?$_Vector_val@U?$_Simple_types@PAVCNullDecorator@NEffectUpdateDecorator@@@std@@@std@@@std@@P6AXPAVCNullDecorator@NEffectUpdateDecorator@@@Z@std@@YAP6AXPAVCNullDecorator@NEffectUpdateDecorator@@@ZV?$_Vector_iterator@V?$_Vector_val@U?$_Simple_types@PAVCNullDecorator@NEffectUpdateDecorator@@@std@@@std@@@0@1P6AX0@Z@Z
_TEXT	SEGMENT
__ULast$ = -32						; size = 4
$T1 = -28						; size = 4
$T2 = -24						; size = 4
__Ptr$3 = -20						; size = 4
$T4 = -16						; size = 4
$T5 = -12						; size = 4
__Ptr$6 = -8						; size = 4
__UFirst$ = -4						; size = 4
__First$ = 8						; size = 4
__Last$ = 12						; size = 4
__Func$ = 16						; size = 4
??$for_each@V?$_Vector_iterator@V?$_Vector_val@U?$_Simple_types@PAVCNullDecorator@NEffectUpdateDecorator@@@std@@@std@@@std@@P6AXPAVCNullDecorator@NEffectUpdateDecorator@@@Z@std@@YAP6AXPAVCNullDecorator@NEffectUpdateDecorator@@@ZV?$_Vector_iterator@V?$_Vector_val@U?$_Simple_types@PAVCNullDecorator@NEffectUpdateDecorator@@@std@@@std@@@0@1P6AX0@Z@Z PROC ; std::for_each<std::_Vector_iterator<std::_Vector_val<std::_Simple_types<NEffectUpdateDecorator::CNullDecorator *> > >,void (__cdecl*)(NEffectUpdateDecorator::CNullDecorator *)>, COMDAT

; 303  : _CONSTEXPR20 _Fn for_each(_InIt _First, _InIt _Last, _Fn _Func) { // perform function for each element [_First, _Last)

  00000	55		 push	 ebp
  00001	8b ec		 mov	 ebp, esp
  00003	83 ec 20	 sub	 esp, 32			; 00000020H
; File C:\Program Files (x86)\Microsoft Visual Studio\2019\Community\VC\Tools\MSVC\14.28.29333\include\vector

; 310  :         return _Unfancy(this->_Ptr);

  00006	8b 45 08	 mov	 eax, DWORD PTR __First$[ebp]
  00009	89 45 f8	 mov	 DWORD PTR __Ptr$6[ebp], eax
; File C:\Program Files (x86)\Microsoft Visual Studio\2019\Community\VC\Tools\MSVC\14.28.29333\include\xstddef

; 289  :     return _Ptr;

  0000c	8b 45 f8	 mov	 eax, DWORD PTR __Ptr$6[ebp]
  0000f	89 45 f4	 mov	 DWORD PTR $T5[ebp], eax
; File C:\Program Files (x86)\Microsoft Visual Studio\2019\Community\VC\Tools\MSVC\14.28.29333\include\vector

; 310  :         return _Unfancy(this->_Ptr);

  00012	8b 45 f4	 mov	 eax, DWORD PTR $T5[ebp]
  00015	89 45 f0	 mov	 DWORD PTR $T4[ebp], eax
; File C:\Program Files (x86)\Microsoft Visual Studio\2019\Community\VC\Tools\MSVC\14.28.29333\include\algorithm

; 305  :     auto _UFirst      = _Get_unwrapped(_First);

  00018	8b 45 f0	 mov	 eax, DWORD PTR $T4[ebp]
  0001b	89 45 fc	 mov	 DWORD PTR __UFirst$[ebp], eax
; File C:\Program Files (x86)\Microsoft Visual Studio\2019\Community\VC\Tools\MSVC\14.28.29333\include\vector

; 310  :         return _Unfancy(this->_Ptr);

  0001e	8b 45 0c	 mov	 eax, DWORD PTR __Last$[ebp]
  00021	89 45 ec	 mov	 DWORD PTR __Ptr$3[ebp], eax
; File C:\Program Files (x86)\Microsoft Visual Studio\2019\Community\VC\Tools\MSVC\14.28.29333\include\xstddef

; 289  :     return _Ptr;

  00024	8b 45 ec	 mov	 eax, DWORD PTR __Ptr$3[ebp]
  00027	89 45 e8	 mov	 DWORD PTR $T2[ebp], eax
; File C:\Program Files (x86)\Microsoft Visual Studio\2019\Community\VC\Tools\MSVC\14.28.29333\include\vector

; 310  :         return _Unfancy(this->_Ptr);

  0002a	8b 45 e8	 mov	 eax, DWORD PTR $T2[ebp]
  0002d	89 45 e4	 mov	 DWORD PTR $T1[ebp], eax
; File C:\Program Files (x86)\Microsoft Visual Studio\2019\Community\VC\Tools\MSVC\14.28.29333\include\algorithm

; 306  :     const auto _ULast = _Get_unwrapped(_Last);

  00030	8b 45 e4	 mov	 eax, DWORD PTR $T1[ebp]
  00033	89 45 e0	 mov	 DWORD PTR __ULast$[ebp], eax

; 307  :     for (; _UFirst != _ULast; ++_UFirst) {

  00036	eb 09		 jmp	 SHORT $LN4@for_each
$LN2@for_each:
  00038	8b 45 fc	 mov	 eax, DWORD PTR __UFirst$[ebp]
  0003b	83 c0 04	 add	 eax, 4
  0003e	89 45 fc	 mov	 DWORD PTR __UFirst$[ebp], eax
$LN4@for_each:
  00041	8b 45 fc	 mov	 eax, DWORD PTR __UFirst$[ebp]
  00044	3b 45 e0	 cmp	 eax, DWORD PTR __ULast$[ebp]
  00047	74 0b		 je	 SHORT $LN3@for_each

; 308  :         _Func(*_UFirst);

  00049	8b 45 fc	 mov	 eax, DWORD PTR __UFirst$[ebp]
  0004c	ff 30		 push	 DWORD PTR [eax]
  0004e	ff 55 10	 call	 DWORD PTR __Func$[ebp]
  00051	59		 pop	 ecx

; 309  :     }

  00052	eb e4		 jmp	 SHORT $LN2@for_each
$LN3@for_each:

; 310  : 
; 311  :     return _Func;

  00054	8b 45 10	 mov	 eax, DWORD PTR __Func$[ebp]

; 312  : }

  00057	c9		 leave
  00058	c3		 ret	 0
??$for_each@V?$_Vector_iterator@V?$_Vector_val@U?$_Simple_types@PAVCNullDecorator@NEffectUpdateDecorator@@@std@@@std@@@std@@P6AXPAVCNullDecorator@NEffectUpdateDecorator@@@Z@std@@YAP6AXPAVCNullDecorator@NEffectUpdateDecorator@@@ZV?$_Vector_iterator@V?$_Vector_val@U?$_Simple_types@PAVCNullDecorator@NEffectUpdateDecorator@@@std@@@std@@@0@1P6AX0@Z@Z ENDP ; std::for_each<std::_Vector_iterator<std::_Vector_val<std::_Simple_types<NEffectUpdateDecorator::CNullDecorator *> > >,void (__cdecl*)(NEffectUpdateDecorator::CNullDecorator *)>
_TEXT	ENDS
; Function compile flags: /Odspy
; File C:\Program Files (x86)\Microsoft Visual Studio\2019\Community\VC\Tools\MSVC\14.28.29333\include\algorithm
; File C:\Program Files (x86)\Microsoft Visual Studio\2019\Community\VC\Tools\MSVC\14.28.29333\include\vector
; File C:\Program Files (x86)\Microsoft Visual Studio\2019\Community\VC\Tools\MSVC\14.28.29333\include\xstddef
; File C:\Program Files (x86)\Microsoft Visual Studio\2019\Community\VC\Tools\MSVC\14.28.29333\include\vector
; File C:\Program Files (x86)\Microsoft Visual Studio\2019\Community\VC\Tools\MSVC\14.28.29333\include\algorithm
; File C:\Program Files (x86)\Microsoft Visual Studio\2019\Community\VC\Tools\MSVC\14.28.29333\include\vector
; File C:\Program Files (x86)\Microsoft Visual Studio\2019\Community\VC\Tools\MSVC\14.28.29333\include\xstddef
; File C:\Program Files (x86)\Microsoft Visual Studio\2019\Community\VC\Tools\MSVC\14.28.29333\include\vector
; File C:\Program Files (x86)\Microsoft Visual Studio\2019\Community\VC\Tools\MSVC\14.28.29333\include\algorithm
;	COMDAT ??$for_each@V?$_Vector_iterator@V?$_Vector_val@U?$_Simple_types@PAVCHeaderDecorator@NEffectUpdateDecorator@@@std@@@std@@@std@@P6AXPAVCHeaderDecorator@NEffectUpdateDecorator@@@Z@std@@YAP6AXPAVCHeaderDecorator@NEffectUpdateDecorator@@@ZV?$_Vector_iterator@V?$_Vector_val@U?$_Simple_types@PAVCHeaderDecorator@NEffectUpdateDecorator@@@std@@@std@@@0@1P6AX0@Z@Z
_TEXT	SEGMENT
__ULast$ = -32						; size = 4
$T1 = -28						; size = 4
$T2 = -24						; size = 4
__Ptr$3 = -20						; size = 4
$T4 = -16						; size = 4
$T5 = -12						; size = 4
__Ptr$6 = -8						; size = 4
__UFirst$ = -4						; size = 4
__First$ = 8						; size = 4
__Last$ = 12						; size = 4
__Func$ = 16						; size = 4
??$for_each@V?$_Vector_iterator@V?$_Vector_val@U?$_Simple_types@PAVCHeaderDecorator@NEffectUpdateDecorator@@@std@@@std@@@std@@P6AXPAVCHeaderDecorator@NEffectUpdateDecorator@@@Z@std@@YAP6AXPAVCHeaderDecorator@NEffectUpdateDecorator@@@ZV?$_Vector_iterator@V?$_Vector_val@U?$_Simple_types@PAVCHeaderDecorator@NEffectUpdateDecorator@@@std@@@std@@@0@1P6AX0@Z@Z PROC ; std::for_each<std::_Vector_iterator<std::_Vector_val<std::_Simple_types<NEffectUpdateDecorator::CHeaderDecorator *> > >,void (__cdecl*)(NEffectUpdateDecorator::CHeaderDecorator *)>, COMDAT

; 303  : _CONSTEXPR20 _Fn for_each(_InIt _First, _InIt _Last, _Fn _Func) { // perform function for each element [_First, _Last)

  00000	55		 push	 ebp
  00001	8b ec		 mov	 ebp, esp
  00003	83 ec 20	 sub	 esp, 32			; 00000020H
; File C:\Program Files (x86)\Microsoft Visual Studio\2019\Community\VC\Tools\MSVC\14.28.29333\include\vector

; 310  :         return _Unfancy(this->_Ptr);

  00006	8b 45 08	 mov	 eax, DWORD PTR __First$[ebp]
  00009	89 45 f8	 mov	 DWORD PTR __Ptr$6[ebp], eax
; File C:\Program Files (x86)\Microsoft Visual Studio\2019\Community\VC\Tools\MSVC\14.28.29333\include\xstddef

; 289  :     return _Ptr;

  0000c	8b 45 f8	 mov	 eax, DWORD PTR __Ptr$6[ebp]
  0000f	89 45 f4	 mov	 DWORD PTR $T5[ebp], eax
; File C:\Program Files (x86)\Microsoft Visual Studio\2019\Community\VC\Tools\MSVC\14.28.29333\include\vector

; 310  :         return _Unfancy(this->_Ptr);

  00012	8b 45 f4	 mov	 eax, DWORD PTR $T5[ebp]
  00015	89 45 f0	 mov	 DWORD PTR $T4[ebp], eax
; File C:\Program Files (x86)\Microsoft Visual Studio\2019\Community\VC\Tools\MSVC\14.28.29333\include\algorithm

; 305  :     auto _UFirst      = _Get_unwrapped(_First);

  00018	8b 45 f0	 mov	 eax, DWORD PTR $T4[ebp]
  0001b	89 45 fc	 mov	 DWORD PTR __UFirst$[ebp], eax
; File C:\Program Files (x86)\Microsoft Visual Studio\2019\Community\VC\Tools\MSVC\14.28.29333\include\vector

; 310  :         return _Unfancy(this->_Ptr);

  0001e	8b 45 0c	 mov	 eax, DWORD PTR __Last$[ebp]
  00021	89 45 ec	 mov	 DWORD PTR __Ptr$3[ebp], eax
; File C:\Program Files (x86)\Microsoft Visual Studio\2019\Community\VC\Tools\MSVC\14.28.29333\include\xstddef

; 289  :     return _Ptr;

  00024	8b 45 ec	 mov	 eax, DWORD PTR __Ptr$3[ebp]
  00027	89 45 e8	 mov	 DWORD PTR $T2[ebp], eax
; File C:\Program Files (x86)\Microsoft Visual Studio\2019\Community\VC\Tools\MSVC\14.28.29333\include\vector

; 310  :         return _Unfancy(this->_Ptr);

  0002a	8b 45 e8	 mov	 eax, DWORD PTR $T2[ebp]
  0002d	89 45 e4	 mov	 DWORD PTR $T1[ebp], eax
; File C:\Program Files (x86)\Microsoft Visual Studio\2019\Community\VC\Tools\MSVC\14.28.29333\include\algorithm

; 306  :     const auto _ULast = _Get_unwrapped(_Last);

  00030	8b 45 e4	 mov	 eax, DWORD PTR $T1[ebp]
  00033	89 45 e0	 mov	 DWORD PTR __ULast$[ebp], eax

; 307  :     for (; _UFirst != _ULast; ++_UFirst) {

  00036	eb 09		 jmp	 SHORT $LN4@for_each
$LN2@for_each:
  00038	8b 45 fc	 mov	 eax, DWORD PTR __UFirst$[ebp]
  0003b	83 c0 04	 add	 eax, 4
  0003e	89 45 fc	 mov	 DWORD PTR __UFirst$[ebp], eax
$LN4@for_each:
  00041	8b 45 fc	 mov	 eax, DWORD PTR __UFirst$[ebp]
  00044	3b 45 e0	 cmp	 eax, DWORD PTR __ULast$[ebp]
  00047	74 0b		 je	 SHORT $LN3@for_each

; 308  :         _Func(*_UFirst);

  00049	8b 45 fc	 mov	 eax, DWORD PTR __UFirst$[ebp]
  0004c	ff 30		 push	 DWORD PTR [eax]
  0004e	ff 55 10	 call	 DWORD PTR __Func$[ebp]
  00051	59		 pop	 ecx

; 309  :     }

  00052	eb e4		 jmp	 SHORT $LN2@for_each
$LN3@for_each:

; 310  : 
; 311  :     return _Func;

  00054	8b 45 10	 mov	 eax, DWORD PTR __Func$[ebp]

; 312  : }

  00057	c9		 leave
  00058	c3		 ret	 0
??$for_each@V?$_Vector_iterator@V?$_Vector_val@U?$_Simple_types@PAVCHeaderDecorator@NEffectUpdateDecorator@@@std@@@std@@@std@@P6AXPAVCHeaderDecorator@NEffectUpdateDecorator@@@Z@std@@YAP6AXPAVCHeaderDecorator@NEffectUpdateDecorator@@@ZV?$_Vector_iterator@V?$_Vector_val@U?$_Simple_types@PAVCHeaderDecorator@NEffectUpdateDecorator@@@std@@@std@@@0@1P6AX0@Z@Z ENDP ; std::for_each<std::_Vector_iterator<std::_Vector_val<std::_Simple_types<NEffectUpdateDecorator::CHeaderDecorator *> > >,void (__cdecl*)(NEffectUpdateDecorator::CHeaderDecorator *)>
_TEXT	ENDS
; Function compile flags: /Odspy
; File C:\Program Files (x86)\Microsoft Visual Studio\2019\Community\VC\Tools\MSVC\14.28.29333\include\vector
; File C:\Program Files (x86)\Microsoft Visual Studio\2019\Community\VC\Tools\MSVC\14.28.29333\include\xmemory
; File C:\Program Files (x86)\Microsoft Visual Studio\2019\Community\VC\Tools\MSVC\14.28.29333\include\vector
; File C:\Program Files (x86)\Microsoft Visual Studio\2019\Community\VC\Tools\MSVC\14.28.29333\include\xmemory
; File C:\Program Files (x86)\Microsoft Visual Studio\2019\Community\VC\Tools\MSVC\14.28.29333\include\vector
; File C:\Program Files (x86)\Microsoft Visual Studio\2019\Community\VC\Tools\MSVC\14.28.29333\include\xmemory
; File C:\Program Files (x86)\Microsoft Visual Studio\2019\Community\VC\Tools\MSVC\14.28.29333\include\limits
; File C:\Program Files (x86)\Microsoft Visual Studio\2019\Community\VC\Tools\MSVC\14.28.29333\include\vector
; File C:\Program Files (x86)\Microsoft Visual Studio\2019\Community\VC\Tools\MSVC\14.28.29333\include\utility
; File C:\Program Files (x86)\Microsoft Visual Studio\2019\Community\VC\Tools\MSVC\14.28.29333\include\vector
; File C:\Program Files (x86)\Microsoft Visual Studio\2019\Community\VC\Tools\MSVC\14.28.29333\include\xmemory
; File C:\Program Files (x86)\Microsoft Visual Studio\2019\Community\VC\Tools\MSVC\14.28.29333\include\vector
; File C:\Program Files (x86)\Microsoft Visual Studio\2019\Community\VC\Tools\MSVC\14.28.29333\include\type_traits
; File C:\Program Files (x86)\Microsoft Visual Studio\2019\Community\VC\Tools\MSVC\14.28.29333\include\vector
; File C:\Program Files (x86)\Microsoft Visual Studio\2019\Community\VC\Tools\MSVC\14.28.29333\include\xstddef
; File C:\Program Files (x86)\Microsoft Visual Studio\2019\Community\VC\Tools\MSVC\14.28.29333\include\vcruntime_new.h
; File C:\Program Files (x86)\Microsoft Visual Studio\2019\Community\VC\Tools\MSVC\14.28.29333\include\type_traits
; File C:\Program Files (x86)\Microsoft Visual Studio\2019\Community\VC\Tools\MSVC\14.28.29333\include\xmemory
; File C:\Program Files (x86)\Microsoft Visual Studio\2019\Community\VC\Tools\MSVC\14.28.29333\include\vector
; File C:\Program Files (x86)\Microsoft Visual Studio\2019\Community\VC\Tools\MSVC\14.28.29333\include\xmemory
; File C:\Program Files (x86)\Microsoft Visual Studio\2019\Community\VC\Tools\MSVC\14.28.29333\include\vector
; File C:\Program Files (x86)\Microsoft Visual Studio\2019\Community\VC\Tools\MSVC\14.28.29333\include\xmemory
; File C:\Program Files (x86)\Microsoft Visual Studio\2019\Community\VC\Tools\MSVC\14.28.29333\include\vector
; File C:\Program Files (x86)\Microsoft Visual Studio\2019\Community\VC\Tools\MSVC\14.28.29333\include\xmemory
; File C:\Program Files (x86)\Microsoft Visual Studio\2019\Community\VC\Tools\MSVC\14.28.29333\include\vector
;	COMDAT ??$_Emplace_reallocate@ABQAVCParticleInstance@@@?$vector@PAVCParticleInstance@@V?$allocator@PAVCParticleInstance@@@std@@@std@@QAEPAPAVCParticleInstance@@QAPAV2@ABQAV2@@Z
_TEXT	SEGMENT
__Max_possible$2 = -68					; size = 4
$T3 = -64						; size = 4
__Al$ = -60						; size = 4
__Last$ = -56						; size = 4
$T4 = -52						; size = 4
$T5 = -48						; size = 4
__First$ = -44						; size = 4
$T6 = -40						; size = 4
$T7 = -36						; size = 4
__First$ = -32						; size = 4
__Last$ = -28						; size = 4
$T8 = -24						; size = 4
$T9 = -20						; size = 4
__$EHRec$ = -16						; size = 16
$T10 = 0						; size = 4
$T11 = 4						; size = 4
$T12 = 8						; size = 4
$T13 = 12						; size = 4
$T14 = 16						; size = 4
$T15 = 20						; size = 4
$T16 = 24						; size = 4
$T17 = 28						; size = 4
$T18 = 32						; size = 4
$T19 = 36						; size = 4
$T20 = 40						; size = 4
__Newsize$ = 44						; size = 4
__Constructed_last$ = 48				; size = 4
__Oldsize$ = 52						; size = 4
tv172 = 56						; size = 4
$T21 = 60						; size = 4
$T22 = 64						; size = 4
__My_data$ = 68						; size = 4
__Constructed_first$ = 72				; size = 4
___formal$ = 76						; size = 1
__Overflow_is_possible$23 = 83				; size = 1
__Newcapacity$ = 84					; size = 4
__Mylast$ = 88						; size = 4
__Myfirst$ = 92						; size = 4
__Whereoff$ = 96					; size = 4
$T24 = 103						; size = 1
_this$ = 104						; size = 4
__Newvec$ = 108						; size = 4
__Whereptr$ = 120					; size = 4
_<_Val_0>$ = 124					; size = 4
??$_Emplace_reallocate@ABQAVCParticleInstance@@@?$vector@PAVCParticleInstance@@V?$allocator@PAVCParticleInstance@@@std@@@std@@QAEPAPAVCParticleInstance@@QAPAV2@ABQAV2@@Z PROC ; std::vector<CParticleInstance *,std::allocator<CParticleInstance *> >::_Emplace_reallocate<CParticleInstance * const &>, COMDAT
; _this$ = ecx

; 725  :     pointer _Emplace_reallocate(const pointer _Whereptr, _Valty&&... _Val) {

  00000	55		 push	 ebp
  00001	8d 6c 24 90	 lea	 ebp, DWORD PTR [esp-112]
  00005	83 ec 70	 sub	 esp, 112		; 00000070H
  00008	6a ff		 push	 -1
  0000a	68 00 00 00 00	 push	 __ehhandler$??$_Emplace_reallocate@ABQAVCParticleInstance@@@?$vector@PAVCParticleInstance@@V?$allocator@PAVCParticleInstance@@@std@@@std@@QAEPAPAVCParticleInstance@@QAPAV2@ABQAV2@@Z
  0000f	64 a1 00 00 00
	00		 mov	 eax, DWORD PTR fs:0
  00015	50		 push	 eax
  00016	51		 push	 ecx
  00017	83 ec 34	 sub	 esp, 52			; 00000034H
  0001a	53		 push	 ebx
  0001b	56		 push	 esi
  0001c	57		 push	 edi
  0001d	a1 00 00 00 00	 mov	 eax, DWORD PTR ___security_cookie
  00022	33 c5		 xor	 eax, ebp
  00024	50		 push	 eax
  00025	8d 45 f4	 lea	 eax, DWORD PTR __$EHRec$[ebp+4]
  00028	64 a3 00 00 00
	00		 mov	 DWORD PTR fs:0, eax
  0002e	89 65 f0	 mov	 DWORD PTR __$EHRec$[ebp], esp
  00031	89 4d 68	 mov	 DWORD PTR _this$[ebp], ecx

; 1733 :         return _Mypair._Get_first();

  00034	8b 45 68	 mov	 eax, DWORD PTR _this$[ebp]
; File C:\Program Files (x86)\Microsoft Visual Studio\2019\Community\VC\Tools\MSVC\14.28.29333\include\xmemory

; 1347 :         return *this;

  00037	89 45 28	 mov	 DWORD PTR $T20[ebp], eax
; File C:\Program Files (x86)\Microsoft Visual Studio\2019\Community\VC\Tools\MSVC\14.28.29333\include\vector

; 1733 :         return _Mypair._Get_first();

  0003a	8b 45 28	 mov	 eax, DWORD PTR $T20[ebp]
  0003d	89 45 c4	 mov	 DWORD PTR __Al$[ebp], eax

; 726  :         // reallocate and insert by perfectly forwarding _Val at _Whereptr
; 727  :         _Alty& _Al        = _Getal();
; 728  :         auto& _My_data    = _Mypair._Myval2;

  00040	8b 45 68	 mov	 eax, DWORD PTR _this$[ebp]
  00043	89 45 44	 mov	 DWORD PTR __My_data$[ebp], eax

; 729  :         pointer& _Myfirst = _My_data._Myfirst;

  00046	8b 45 44	 mov	 eax, DWORD PTR __My_data$[ebp]
  00049	89 45 5c	 mov	 DWORD PTR __Myfirst$[ebp], eax

; 730  :         pointer& _Mylast  = _My_data._Mylast;

  0004c	8b 45 44	 mov	 eax, DWORD PTR __My_data$[ebp]
  0004f	83 c0 04	 add	 eax, 4
  00052	89 45 58	 mov	 DWORD PTR __Mylast$[ebp], eax

; 731  : 
; 732  :         _STL_INTERNAL_CHECK(_Mylast == _My_data._Myend); // check that we have no unused capacity
; 733  : 
; 734  :         const auto _Whereoff = static_cast<size_type>(_Whereptr - _Myfirst);

  00055	8b 45 5c	 mov	 eax, DWORD PTR __Myfirst$[ebp]
  00058	8b 4d 78	 mov	 ecx, DWORD PTR __Whereptr$[ebp]
  0005b	2b 08		 sub	 ecx, DWORD PTR [eax]
  0005d	c1 f9 02	 sar	 ecx, 2
  00060	89 4d 60	 mov	 DWORD PTR __Whereoff$[ebp], ecx

; 735  :         const auto _Oldsize  = static_cast<size_type>(_Mylast - _Myfirst);

  00063	8b 45 58	 mov	 eax, DWORD PTR __Mylast$[ebp]
  00066	8b 4d 5c	 mov	 ecx, DWORD PTR __Myfirst$[ebp]
  00069	8b 00		 mov	 eax, DWORD PTR [eax]
  0006b	2b 01		 sub	 eax, DWORD PTR [ecx]
  0006d	c1 f8 02	 sar	 eax, 2
  00070	89 45 34	 mov	 DWORD PTR __Oldsize$[ebp], eax

; 1737 :         return _Mypair._Get_first();

  00073	8b 45 68	 mov	 eax, DWORD PTR _this$[ebp]
; File C:\Program Files (x86)\Microsoft Visual Studio\2019\Community\VC\Tools\MSVC\14.28.29333\include\xmemory

; 1351 :         return *this;

  00076	89 45 24	 mov	 DWORD PTR $T19[ebp], eax
; File C:\Program Files (x86)\Microsoft Visual Studio\2019\Community\VC\Tools\MSVC\14.28.29333\include\vector

; 1737 :         return _Mypair._Get_first();

  00079	8b 45 24	 mov	 eax, DWORD PTR $T19[ebp]
  0007c	89 45 c0	 mov	 DWORD PTR $T3[ebp], eax
; File C:\Program Files (x86)\Microsoft Visual Studio\2019\Community\VC\Tools\MSVC\14.28.29333\include\xmemory

; 710  :         return static_cast<size_t>(-1) / sizeof(value_type);

  0007f	c7 45 40 ff ff
	ff 3f		 mov	 DWORD PTR $T22[ebp], 1073741823 ; 3fffffffH
; File C:\Program Files (x86)\Microsoft Visual Studio\2019\Community\VC\Tools\MSVC\14.28.29333\include\limits

; 557  :         return INT_MAX;

  00086	c7 45 20 ff ff
	ff 7f		 mov	 DWORD PTR $T18[ebp], 2147483647 ; 7fffffffH
; File C:\Program Files (x86)\Microsoft Visual Studio\2019\Community\VC\Tools\MSVC\14.28.29333\include\vector

; 1488 :         return (_STD min)(

  0008d	8b 45 20	 mov	 eax, DWORD PTR $T18[ebp]
  00090	89 45 3c	 mov	 DWORD PTR $T21[ebp], eax
; File C:\Program Files (x86)\Microsoft Visual Studio\2019\Community\VC\Tools\MSVC\14.28.29333\include\utility

; 68   :     return _Right < _Left ? _Right : _Left;

  00093	8b 45 40	 mov	 eax, DWORD PTR $T22[ebp]
  00096	3b 45 3c	 cmp	 eax, DWORD PTR $T21[ebp]
  00099	73 08		 jae	 SHORT $LN34@Emplace_re
  0009b	8d 45 40	 lea	 eax, DWORD PTR $T22[ebp]
  0009e	89 45 38	 mov	 DWORD PTR tv172[ebp], eax
  000a1	eb 06		 jmp	 SHORT $LN35@Emplace_re
$LN34@Emplace_re:
  000a3	8d 45 3c	 lea	 eax, DWORD PTR $T21[ebp]
  000a6	89 45 38	 mov	 DWORD PTR tv172[ebp], eax
$LN35@Emplace_re:
  000a9	8b 45 38	 mov	 eax, DWORD PTR tv172[ebp]
  000ac	89 45 1c	 mov	 DWORD PTR $T17[ebp], eax
  000af	8b 45 1c	 mov	 eax, DWORD PTR $T17[ebp]
  000b2	89 45 18	 mov	 DWORD PTR $T16[ebp], eax
; File C:\Program Files (x86)\Microsoft Visual Studio\2019\Community\VC\Tools\MSVC\14.28.29333\include\vector

; 1488 :         return (_STD min)(

  000b5	8b 45 18	 mov	 eax, DWORD PTR $T16[ebp]
  000b8	8b 00		 mov	 eax, DWORD PTR [eax]
  000ba	89 45 14	 mov	 DWORD PTR $T15[ebp], eax

; 736  : 
; 737  :         if (_Oldsize == max_size()) {

  000bd	8b 45 34	 mov	 eax, DWORD PTR __Oldsize$[ebp]
  000c0	3b 45 14	 cmp	 eax, DWORD PTR $T15[ebp]
  000c3	75 05		 jne	 SHORT $LN2@Emplace_re

; 738  :             _Xlength();

  000c5	e8 00 00 00 00	 call	 ?_Xlength@?$vector@PAVCParticleInstance@@V?$allocator@PAVCParticleInstance@@@std@@@std@@CAXXZ ; std::vector<CParticleInstance *,std::allocator<CParticleInstance *> >::_Xlength
$LN2@Emplace_re:

; 739  :         }
; 740  : 
; 741  :         const size_type _Newsize     = _Oldsize + 1;

  000ca	8b 45 34	 mov	 eax, DWORD PTR __Oldsize$[ebp]
  000cd	40		 inc	 eax
  000ce	89 45 2c	 mov	 DWORD PTR __Newsize$[ebp], eax

; 742  :         const size_type _Newcapacity = _Calculate_growth(_Newsize);

  000d1	ff 75 2c	 push	 DWORD PTR __Newsize$[ebp]
  000d4	8b 4d 68	 mov	 ecx, DWORD PTR _this$[ebp]
  000d7	e8 00 00 00 00	 call	 ?_Calculate_growth@?$vector@PAVCParticleInstance@@V?$allocator@PAVCParticleInstance@@@std@@@std@@ABEII@Z ; std::vector<CParticleInstance *,std::allocator<CParticleInstance *> >::_Calculate_growth
  000dc	89 45 54	 mov	 DWORD PTR __Newcapacity$[ebp], eax
; File C:\Program Files (x86)\Microsoft Visual Studio\2019\Community\VC\Tools\MSVC\14.28.29333\include\xmemory

; 56   :     constexpr bool _Overflow_is_possible = _Ty_size > 1;

  000df	c6 45 53 01	 mov	 BYTE PTR __Overflow_is_possible$23[ebp], 1

; 57   : 
; 58   :     if _CONSTEXPR_IF (_Overflow_is_possible) {
; 59   :         constexpr size_t _Max_possible = static_cast<size_t>(-1) / _Ty_size;

  000e3	c7 45 bc ff ff
	ff 3f		 mov	 DWORD PTR __Max_possible$2[ebp], 1073741823 ; 3fffffffH

; 60   :         if (_Count > _Max_possible) {

  000ea	81 7d 54 ff ff
	ff 3f		 cmp	 DWORD PTR __Newcapacity$[ebp], 1073741823 ; 3fffffffH
  000f1	76 05		 jbe	 SHORT $LN67@Emplace_re

; 61   :             _Throw_bad_array_new_length(); // multiply overflow

  000f3	e8 00 00 00 00	 call	 ?_Throw_bad_array_new_length@std@@YAXXZ ; std::_Throw_bad_array_new_length
$LN67@Emplace_re:

; 62   :         }
; 63   :     }
; 64   : 
; 65   :     return _Count * _Ty_size;

  000f8	8b 45 54	 mov	 eax, DWORD PTR __Newcapacity$[ebp]
  000fb	c1 e0 02	 shl	 eax, 2
  000fe	89 45 10	 mov	 DWORD PTR $T14[ebp], eax

; 814  :         return static_cast<_Ty*>(_Allocate<_New_alignof<_Ty>>(_Get_size_of_n<sizeof(_Ty)>(_Count)));

  00101	ff 75 10	 push	 DWORD PTR $T14[ebp]
  00104	e8 00 00 00 00	 call	 ??$_Allocate@$07U_Default_allocate_traits@std@@$0A@@std@@YAPAXI@Z ; std::_Allocate<8,std::_Default_allocate_traits,0>
  00109	59		 pop	 ecx
  0010a	89 45 6c	 mov	 DWORD PTR __Newvec$[ebp], eax
; File C:\Program Files (x86)\Microsoft Visual Studio\2019\Community\VC\Tools\MSVC\14.28.29333\include\vector

; 745  :         const pointer _Constructed_last = _Newvec + _Whereoff + 1;

  0010d	8b 45 60	 mov	 eax, DWORD PTR __Whereoff$[ebp]
  00110	8b 4d 6c	 mov	 ecx, DWORD PTR __Newvec$[ebp]
  00113	8d 44 81 04	 lea	 eax, DWORD PTR [ecx+eax*4+4]
  00117	89 45 30	 mov	 DWORD PTR __Constructed_last$[ebp], eax

; 746  :         pointer _Constructed_first      = _Constructed_last;

  0011a	8b 45 30	 mov	 eax, DWORD PTR __Constructed_last$[ebp]
  0011d	89 45 48	 mov	 DWORD PTR __Constructed_first$[ebp], eax

; 747  : 
; 748  :         _TRY_BEGIN

  00120	83 65 fc 00	 and	 DWORD PTR __$EHRec$[ebp+12], 0
; File C:\Program Files (x86)\Microsoft Visual Studio\2019\Community\VC\Tools\MSVC\14.28.29333\include\type_traits

; 1443 :     return static_cast<_Ty&&>(_Arg);

  00124	8b 45 7c	 mov	 eax, DWORD PTR _<_Val_0>$[ebp]
  00127	89 45 08	 mov	 DWORD PTR $T12[ebp], eax
; File C:\Program Files (x86)\Microsoft Visual Studio\2019\Community\VC\Tools\MSVC\14.28.29333\include\vector

; 749  :         _Alty_traits::construct(_Al, _Unfancy(_Newvec + _Whereoff), _STD forward<_Valty>(_Val)...);

  0012a	8b 45 60	 mov	 eax, DWORD PTR __Whereoff$[ebp]
  0012d	8b 4d 6c	 mov	 ecx, DWORD PTR __Newvec$[ebp]
  00130	8d 04 81	 lea	 eax, DWORD PTR [ecx+eax*4]
; File C:\Program Files (x86)\Microsoft Visual Studio\2019\Community\VC\Tools\MSVC\14.28.29333\include\xstddef

; 289  :     return _Ptr;

  00133	89 45 0c	 mov	 DWORD PTR $T13[ebp], eax
; File C:\Program Files (x86)\Microsoft Visual Studio\2019\Community\VC\Tools\MSVC\14.28.29333\include\vcruntime_new.h

; 169  :         return _Where;

  00136	8b 45 0c	 mov	 eax, DWORD PTR $T13[ebp]
  00139	89 45 04	 mov	 DWORD PTR $T11[ebp], eax
; File C:\Program Files (x86)\Microsoft Visual Studio\2019\Community\VC\Tools\MSVC\14.28.29333\include\type_traits

; 1443 :     return static_cast<_Ty&&>(_Arg);

  0013c	8b 45 08	 mov	 eax, DWORD PTR $T12[ebp]
  0013f	89 45 00	 mov	 DWORD PTR $T10[ebp], eax
; File C:\Program Files (x86)\Microsoft Visual Studio\2019\Community\VC\Tools\MSVC\14.28.29333\include\xmemory

; 701  :         ::new (const_cast<void*>(static_cast<const volatile void*>(_Ptr))) _Objty(_STD forward<_Types>(_Args)...);

  00142	8b 45 04	 mov	 eax, DWORD PTR $T11[ebp]
  00145	8b 4d 00	 mov	 ecx, DWORD PTR $T10[ebp]
  00148	8b 09		 mov	 ecx, DWORD PTR [ecx]
  0014a	89 08		 mov	 DWORD PTR [eax], ecx
; File C:\Program Files (x86)\Microsoft Visual Studio\2019\Community\VC\Tools\MSVC\14.28.29333\include\vector

; 750  :         _Constructed_first = _Newvec + _Whereoff;

  0014c	8b 45 60	 mov	 eax, DWORD PTR __Whereoff$[ebp]
  0014f	8b 4d 6c	 mov	 ecx, DWORD PTR __Newvec$[ebp]
  00152	8d 04 81	 lea	 eax, DWORD PTR [ecx+eax*4]
  00155	89 45 48	 mov	 DWORD PTR __Constructed_first$[ebp], eax

; 751  : 
; 752  :         if (_Whereptr == _Mylast) { // at back, provide strong guarantee

  00158	8b 45 58	 mov	 eax, DWORD PTR __Mylast$[ebp]
  0015b	8b 4d 78	 mov	 ecx, DWORD PTR __Whereptr$[ebp]
  0015e	3b 08		 cmp	 ecx, DWORD PTR [eax]
  00160	75 3d		 jne	 SHORT $LN4@Emplace_re

; 753  :             _Umove_if_noexcept(_Myfirst, _Mylast, _Newvec);

  00162	8b 45 58	 mov	 eax, DWORD PTR __Mylast$[ebp]
  00165	8b 00		 mov	 eax, DWORD PTR [eax]
  00167	89 45 e4	 mov	 DWORD PTR __Last$[ebp], eax
  0016a	8b 45 5c	 mov	 eax, DWORD PTR __Myfirst$[ebp]
  0016d	8b 00		 mov	 eax, DWORD PTR [eax]
  0016f	89 45 e0	 mov	 DWORD PTR __First$[ebp], eax

; 1607 :         _Umove_if_noexcept1(_First, _Last, _Dest,

  00172	33 c0		 xor	 eax, eax
  00174	88 45 67	 mov	 BYTE PTR $T24[ebp], al
  00177	8a 45 67	 mov	 al, BYTE PTR $T24[ebp]
  0017a	88 45 4c	 mov	 BYTE PTR ___formal$[ebp], al

; 1733 :         return _Mypair._Get_first();

  0017d	8b 45 68	 mov	 eax, DWORD PTR _this$[ebp]
; File C:\Program Files (x86)\Microsoft Visual Studio\2019\Community\VC\Tools\MSVC\14.28.29333\include\xmemory

; 1347 :         return *this;

  00180	89 45 ec	 mov	 DWORD PTR $T9[ebp], eax
; File C:\Program Files (x86)\Microsoft Visual Studio\2019\Community\VC\Tools\MSVC\14.28.29333\include\vector

; 1733 :         return _Mypair._Get_first();

  00183	8b 45 ec	 mov	 eax, DWORD PTR $T9[ebp]
  00186	89 45 e8	 mov	 DWORD PTR $T8[ebp], eax

; 1597 :         _Uninitialized_move(_First, _Last, _Dest, _Getal());

  00189	ff 75 e8	 push	 DWORD PTR $T8[ebp]
  0018c	ff 75 6c	 push	 DWORD PTR __Newvec$[ebp]
  0018f	ff 75 e4	 push	 DWORD PTR __Last$[ebp]
  00192	ff 75 e0	 push	 DWORD PTR __First$[ebp]
  00195	e8 00 00 00 00	 call	 ??$_Uninitialized_move@PAPAVCParticleInstance@@V?$allocator@PAVCParticleInstance@@@std@@@std@@YAPAPAVCParticleInstance@@QAPAV1@0PAPAV1@AAV?$allocator@PAVCParticleInstance@@@0@@Z ; std::_Uninitialized_move<CParticleInstance * *,std::allocator<CParticleInstance *> >
  0019a	83 c4 10	 add	 esp, 16			; 00000010H

; 754  :         } else { // provide basic guarantee

  0019d	eb 5e		 jmp	 SHORT $LN5@Emplace_re
$LN4@Emplace_re:

; 755  :             _Umove(_Myfirst, _Whereptr, _Newvec);

  0019f	8b 45 5c	 mov	 eax, DWORD PTR __Myfirst$[ebp]
  001a2	8b 00		 mov	 eax, DWORD PTR [eax]
  001a4	89 45 d4	 mov	 DWORD PTR __First$[ebp], eax

; 1733 :         return _Mypair._Get_first();

  001a7	8b 45 68	 mov	 eax, DWORD PTR _this$[ebp]
; File C:\Program Files (x86)\Microsoft Visual Studio\2019\Community\VC\Tools\MSVC\14.28.29333\include\xmemory

; 1347 :         return *this;

  001aa	89 45 dc	 mov	 DWORD PTR $T7[ebp], eax
; File C:\Program Files (x86)\Microsoft Visual Studio\2019\Community\VC\Tools\MSVC\14.28.29333\include\vector

; 1733 :         return _Mypair._Get_first();

  001ad	8b 45 dc	 mov	 eax, DWORD PTR $T7[ebp]
  001b0	89 45 d8	 mov	 DWORD PTR $T6[ebp], eax

; 1592 :         return _Uninitialized_move(_First, _Last, _Dest, _Getal());

  001b3	ff 75 d8	 push	 DWORD PTR $T6[ebp]
  001b6	ff 75 6c	 push	 DWORD PTR __Newvec$[ebp]
  001b9	ff 75 78	 push	 DWORD PTR __Whereptr$[ebp]
  001bc	ff 75 d4	 push	 DWORD PTR __First$[ebp]
  001bf	e8 00 00 00 00	 call	 ??$_Uninitialized_move@PAPAVCParticleInstance@@V?$allocator@PAVCParticleInstance@@@std@@@std@@YAPAPAVCParticleInstance@@QAPAV1@0PAPAV1@AAV?$allocator@PAVCParticleInstance@@@0@@Z ; std::_Uninitialized_move<CParticleInstance * *,std::allocator<CParticleInstance *> >
  001c4	83 c4 10	 add	 esp, 16			; 00000010H

; 756  :             _Constructed_first = _Newvec;

  001c7	8b 45 6c	 mov	 eax, DWORD PTR __Newvec$[ebp]
  001ca	89 45 48	 mov	 DWORD PTR __Constructed_first$[ebp], eax

; 757  :             _Umove(_Whereptr, _Mylast, _Newvec + _Whereoff + 1);

  001cd	8b 45 58	 mov	 eax, DWORD PTR __Mylast$[ebp]
  001d0	8b 00		 mov	 eax, DWORD PTR [eax]
  001d2	89 45 c8	 mov	 DWORD PTR __Last$[ebp], eax

; 1733 :         return _Mypair._Get_first();

  001d5	8b 45 68	 mov	 eax, DWORD PTR _this$[ebp]
; File C:\Program Files (x86)\Microsoft Visual Studio\2019\Community\VC\Tools\MSVC\14.28.29333\include\xmemory

; 1347 :         return *this;

  001d8	89 45 d0	 mov	 DWORD PTR $T5[ebp], eax
; File C:\Program Files (x86)\Microsoft Visual Studio\2019\Community\VC\Tools\MSVC\14.28.29333\include\vector

; 1733 :         return _Mypair._Get_first();

  001db	8b 45 d0	 mov	 eax, DWORD PTR $T5[ebp]
  001de	89 45 cc	 mov	 DWORD PTR $T4[ebp], eax

; 1592 :         return _Uninitialized_move(_First, _Last, _Dest, _Getal());

  001e1	ff 75 cc	 push	 DWORD PTR $T4[ebp]

; 757  :             _Umove(_Whereptr, _Mylast, _Newvec + _Whereoff + 1);

  001e4	8b 45 60	 mov	 eax, DWORD PTR __Whereoff$[ebp]
  001e7	8b 4d 6c	 mov	 ecx, DWORD PTR __Newvec$[ebp]
  001ea	8d 44 81 04	 lea	 eax, DWORD PTR [ecx+eax*4+4]

; 1592 :         return _Uninitialized_move(_First, _Last, _Dest, _Getal());

  001ee	50		 push	 eax
  001ef	ff 75 c8	 push	 DWORD PTR __Last$[ebp]
  001f2	ff 75 78	 push	 DWORD PTR __Whereptr$[ebp]
  001f5	e8 00 00 00 00	 call	 ??$_Uninitialized_move@PAPAVCParticleInstance@@V?$allocator@PAVCParticleInstance@@@std@@@std@@YAPAPAVCParticleInstance@@QAPAV1@0PAPAV1@AAV?$allocator@PAVCParticleInstance@@@0@@Z ; std::_Uninitialized_move<CParticleInstance * *,std::allocator<CParticleInstance *> >
  001fa	83 c4 10	 add	 esp, 16			; 00000010H
$LN5@Emplace_re:

; 757  :             _Umove(_Whereptr, _Mylast, _Newvec + _Whereoff + 1);

  001fd	eb 2b		 jmp	 SHORT $LN7@Emplace_re
__catch$??$_Emplace_reallocate@ABQAVCParticleInstance@@@?$vector@PAVCParticleInstance@@V?$allocator@PAVCParticleInstance@@@std@@@std@@QAEPAPAVCParticleInstance@@QAPAV2@ABQAV2@@Z$0:

; 758  :         }
; 759  :         _CATCH_ALL
; 760  :         _Destroy(_Constructed_first, _Constructed_last);

  001ff	ff 75 30	 push	 DWORD PTR __Constructed_last$[ebp]
  00202	ff 75 48	 push	 DWORD PTR __Constructed_first$[ebp]
  00205	8b 4d 68	 mov	 ecx, DWORD PTR _this$[ebp]
  00208	e8 00 00 00 00	 call	 ?_Destroy@?$vector@PAVCParticleInstance@@V?$allocator@PAVCParticleInstance@@@std@@@std@@AAEXPAPAVCParticleInstance@@0@Z ; std::vector<CParticleInstance *,std::allocator<CParticleInstance *> >::_Destroy

; 761  :         _Al.deallocate(_Newvec, _Newcapacity);

  0020d	ff 75 54	 push	 DWORD PTR __Newcapacity$[ebp]
  00210	ff 75 6c	 push	 DWORD PTR __Newvec$[ebp]
  00213	8b 4d c4	 mov	 ecx, DWORD PTR __Al$[ebp]
  00216	e8 00 00 00 00	 call	 ?deallocate@?$allocator@PAVCParticleInstance@@@std@@QAEXQAPAVCParticleInstance@@I@Z ; std::allocator<CParticleInstance *>::deallocate

; 762  :         _RERAISE;

  0021b	6a 00		 push	 0
  0021d	6a 00		 push	 0
  0021f	e8 00 00 00 00	 call	 __CxxThrowException@8

; 763  :         _CATCH_END

  00224	b8 00 00 00 00	 mov	 eax, $LN10@Emplace_re
  00229	c3		 ret	 0
$LN7@Emplace_re:
  0022a	83 4d fc ff	 or	 DWORD PTR __$EHRec$[ebp+12], -1
  0022e	eb 04		 jmp	 SHORT __tryend$??$_Emplace_reallocate@ABQAVCParticleInstance@@@?$vector@PAVCParticleInstance@@V?$allocator@PAVCParticleInstance@@@std@@@std@@QAEPAPAVCParticleInstance@@QAPAV2@ABQAV2@@Z$1
$LN10@Emplace_re:
; File C:\Program Files (x86)\Microsoft Visual Studio\2019\Community\VC\Tools\MSVC\14.28.29333\include\xmemory
  00230	83 4d fc ff	 or	 DWORD PTR __$EHRec$[ebp+12], -1
__tryend$??$_Emplace_reallocate@ABQAVCParticleInstance@@@?$vector@PAVCParticleInstance@@V?$allocator@PAVCParticleInstance@@@std@@@std@@QAEPAPAVCParticleInstance@@QAPAV2@ABQAV2@@Z$1:
; File C:\Program Files (x86)\Microsoft Visual Studio\2019\Community\VC\Tools\MSVC\14.28.29333\include\vector

; 764  : 
; 765  :         _Change_array(_Newvec, _Newsize, _Newcapacity);

  00234	ff 75 54	 push	 DWORD PTR __Newcapacity$[ebp]
  00237	ff 75 2c	 push	 DWORD PTR __Newsize$[ebp]
  0023a	ff 75 6c	 push	 DWORD PTR __Newvec$[ebp]
  0023d	8b 4d 68	 mov	 ecx, DWORD PTR _this$[ebp]
  00240	e8 00 00 00 00	 call	 ?_Change_array@?$vector@PAVCParticleInstance@@V?$allocator@PAVCParticleInstance@@@std@@@std@@AAEXQAPAVCParticleInstance@@II@Z ; std::vector<CParticleInstance *,std::allocator<CParticleInstance *> >::_Change_array

; 766  :         return _Newvec + _Whereoff;

  00245	8b 45 60	 mov	 eax, DWORD PTR __Whereoff$[ebp]
  00248	8b 4d 6c	 mov	 ecx, DWORD PTR __Newvec$[ebp]
  0024b	8d 04 81	 lea	 eax, DWORD PTR [ecx+eax*4]
$LN70@Emplace_re:

; 767  :     }

  0024e	8b 4d f4	 mov	 ecx, DWORD PTR __$EHRec$[ebp+4]
  00251	64 89 0d 00 00
	00 00		 mov	 DWORD PTR fs:0, ecx
  00258	59		 pop	 ecx
  00259	5f		 pop	 edi
  0025a	5e		 pop	 esi
  0025b	5b		 pop	 ebx
  0025c	83 c5 70	 add	 ebp, 112		; 00000070H
  0025f	c9		 leave
  00260	c2 08 00	 ret	 8
  00263	cc		 int	 3
  00264	cc		 int	 3
  00265	cc		 int	 3
  00266	cc		 int	 3
  00267	cc		 int	 3
_TEXT	ENDS
;	COMDAT text$x
text$x	SEGMENT
__ehhandler$??$_Emplace_reallocate@ABQAVCParticleInstance@@@?$vector@PAVCParticleInstance@@V?$allocator@PAVCParticleInstance@@@std@@@std@@QAEPAPAVCParticleInstance@@QAPAV2@ABQAV2@@Z:
  00000	90		 npad	 1
  00001	90		 npad	 1
  00002	8b 54 24 08	 mov	 edx, DWORD PTR [esp+8]
  00006	8d 42 0c	 lea	 eax, DWORD PTR [edx+12]
  00009	8b 4a b8	 mov	 ecx, DWORD PTR [edx-72]
  0000c	33 c8		 xor	 ecx, eax
  0000e	e8 00 00 00 00	 call	 @__security_check_cookie@4
  00013	b8 00 00 00 00	 mov	 eax, OFFSET __ehfuncinfo$??$_Emplace_reallocate@ABQAVCParticleInstance@@@?$vector@PAVCParticleInstance@@V?$allocator@PAVCParticleInstance@@@std@@@std@@QAEPAPAVCParticleInstance@@QAPAV2@ABQAV2@@Z
  00018	e9 00 00 00 00	 jmp	 ___CxxFrameHandler3
text$x	ENDS
??$_Emplace_reallocate@ABQAVCParticleInstance@@@?$vector@PAVCParticleInstance@@V?$allocator@PAVCParticleInstance@@@std@@@std@@QAEPAPAVCParticleInstance@@QAPAV2@ABQAV2@@Z ENDP ; std::vector<CParticleInstance *,std::allocator<CParticleInstance *> >::_Emplace_reallocate<CParticleInstance * const &>
; Function compile flags: /Odspy
; File C:\Program Files (x86)\Microsoft Visual Studio\2019\Community\VC\Tools\MSVC\14.28.29333\include\vector
; File C:\Program Files (x86)\Microsoft Visual Studio\2019\Community\VC\Tools\MSVC\14.28.29333\include\type_traits
; File C:\Program Files (x86)\Microsoft Visual Studio\2019\Community\VC\Tools\MSVC\14.28.29333\include\vector
; File C:\Program Files (x86)\Microsoft Visual Studio\2019\Community\VC\Tools\MSVC\14.28.29333\include\xstddef
; File C:\Program Files (x86)\Microsoft Visual Studio\2019\Community\VC\Tools\MSVC\14.28.29333\include\vector
; File C:\Program Files (x86)\Microsoft Visual Studio\2019\Community\VC\Tools\MSVC\14.28.29333\include\xmemory
; File C:\Program Files (x86)\Microsoft Visual Studio\2019\Community\VC\Tools\MSVC\14.28.29333\include\vector
; File C:\Program Files (x86)\Microsoft Visual Studio\2019\Community\VC\Tools\MSVC\14.28.29333\include\vcruntime_new.h
; File C:\Program Files (x86)\Microsoft Visual Studio\2019\Community\VC\Tools\MSVC\14.28.29333\include\type_traits
; File C:\Program Files (x86)\Microsoft Visual Studio\2019\Community\VC\Tools\MSVC\14.28.29333\include\xmemory
; File C:\Program Files (x86)\Microsoft Visual Studio\2019\Community\VC\Tools\MSVC\14.28.29333\include\vector
;	COMDAT ??$_Emplace_back_with_unused_capacity@ABQAVCParticleInstance@@@?$vector@PAVCParticleInstance@@V?$allocator@PAVCParticleInstance@@@std@@@std@@AAEXABQAVCParticleInstance@@@Z
_TEXT	SEGMENT
__Result$ = -44						; size = 4
$T1 = -40						; size = 4
$T2 = -36						; size = 4
$T3 = -32						; size = 4
$T4 = -28						; size = 4
$T5 = -24						; size = 4
$T6 = -20						; size = 4
__Ptr$ = -16						; size = 4
__My_data$ = -12					; size = 4
_this$ = -8						; size = 4
__Mylast$ = -4						; size = 4
_<_Val_0>$ = 8						; size = 4
??$_Emplace_back_with_unused_capacity@ABQAVCParticleInstance@@@?$vector@PAVCParticleInstance@@V?$allocator@PAVCParticleInstance@@@std@@@std@@AAEXABQAVCParticleInstance@@@Z PROC ; std::vector<CParticleInstance *,std::allocator<CParticleInstance *> >::_Emplace_back_with_unused_capacity<CParticleInstance * const &>, COMDAT
; _this$ = ecx

; 682  :     decltype(auto) _Emplace_back_with_unused_capacity(_Valty&&... _Val) {

  00000	55		 push	 ebp
  00001	8b ec		 mov	 ebp, esp
  00003	83 ec 2c	 sub	 esp, 44			; 0000002cH
  00006	89 4d f8	 mov	 DWORD PTR _this$[ebp], ecx

; 683  :         // insert by perfectly forwarding into element at end, provide strong guarantee
; 684  :         auto& _My_data   = _Mypair._Myval2;

  00009	8b 45 f8	 mov	 eax, DWORD PTR _this$[ebp]
  0000c	89 45 f4	 mov	 DWORD PTR __My_data$[ebp], eax

; 685  :         pointer& _Mylast = _My_data._Mylast;

  0000f	8b 45 f4	 mov	 eax, DWORD PTR __My_data$[ebp]
  00012	83 c0 04	 add	 eax, 4
  00015	89 45 fc	 mov	 DWORD PTR __Mylast$[ebp], eax
; File C:\Program Files (x86)\Microsoft Visual Studio\2019\Community\VC\Tools\MSVC\14.28.29333\include\type_traits

; 1443 :     return static_cast<_Ty&&>(_Arg);

  00018	8b 45 08	 mov	 eax, DWORD PTR _<_Val_0>$[ebp]
  0001b	89 45 e4	 mov	 DWORD PTR $T4[ebp], eax
; File C:\Program Files (x86)\Microsoft Visual Studio\2019\Community\VC\Tools\MSVC\14.28.29333\include\vector

; 687  :         _Alty_traits::construct(_Getal(), _Unfancy(_Mylast), _STD forward<_Valty>(_Val)...);

  0001e	8b 45 fc	 mov	 eax, DWORD PTR __Mylast$[ebp]
  00021	8b 00		 mov	 eax, DWORD PTR [eax]
  00023	89 45 f0	 mov	 DWORD PTR __Ptr$[ebp], eax
; File C:\Program Files (x86)\Microsoft Visual Studio\2019\Community\VC\Tools\MSVC\14.28.29333\include\xstddef

; 289  :     return _Ptr;

  00026	8b 45 f0	 mov	 eax, DWORD PTR __Ptr$[ebp]
  00029	89 45 e8	 mov	 DWORD PTR $T5[ebp], eax
; File C:\Program Files (x86)\Microsoft Visual Studio\2019\Community\VC\Tools\MSVC\14.28.29333\include\vector

; 1733 :         return _Mypair._Get_first();

  0002c	8b 45 f8	 mov	 eax, DWORD PTR _this$[ebp]
; File C:\Program Files (x86)\Microsoft Visual Studio\2019\Community\VC\Tools\MSVC\14.28.29333\include\xmemory

; 1347 :         return *this;

  0002f	89 45 ec	 mov	 DWORD PTR $T6[ebp], eax
; File C:\Program Files (x86)\Microsoft Visual Studio\2019\Community\VC\Tools\MSVC\14.28.29333\include\vector

; 1733 :         return _Mypair._Get_first();

  00032	8b 45 ec	 mov	 eax, DWORD PTR $T6[ebp]
  00035	89 45 d8	 mov	 DWORD PTR $T1[ebp], eax
; File C:\Program Files (x86)\Microsoft Visual Studio\2019\Community\VC\Tools\MSVC\14.28.29333\include\vcruntime_new.h

; 169  :         return _Where;

  00038	8b 45 e8	 mov	 eax, DWORD PTR $T5[ebp]
  0003b	89 45 e0	 mov	 DWORD PTR $T3[ebp], eax
; File C:\Program Files (x86)\Microsoft Visual Studio\2019\Community\VC\Tools\MSVC\14.28.29333\include\type_traits

; 1443 :     return static_cast<_Ty&&>(_Arg);

  0003e	8b 45 e4	 mov	 eax, DWORD PTR $T4[ebp]
  00041	89 45 dc	 mov	 DWORD PTR $T2[ebp], eax
; File C:\Program Files (x86)\Microsoft Visual Studio\2019\Community\VC\Tools\MSVC\14.28.29333\include\xmemory

; 701  :         ::new (const_cast<void*>(static_cast<const volatile void*>(_Ptr))) _Objty(_STD forward<_Types>(_Args)...);

  00044	8b 45 e0	 mov	 eax, DWORD PTR $T3[ebp]
  00047	8b 4d dc	 mov	 ecx, DWORD PTR $T2[ebp]
  0004a	8b 09		 mov	 ecx, DWORD PTR [ecx]
  0004c	89 08		 mov	 DWORD PTR [eax], ecx
; File C:\Program Files (x86)\Microsoft Visual Studio\2019\Community\VC\Tools\MSVC\14.28.29333\include\vector

; 689  :         _Ty& _Result = *_Mylast;

  0004e	8b 45 fc	 mov	 eax, DWORD PTR __Mylast$[ebp]
  00051	8b 00		 mov	 eax, DWORD PTR [eax]
  00053	89 45 d4	 mov	 DWORD PTR __Result$[ebp], eax

; 690  :         ++_Mylast;

  00056	8b 45 fc	 mov	 eax, DWORD PTR __Mylast$[ebp]
  00059	8b 00		 mov	 eax, DWORD PTR [eax]
  0005b	83 c0 04	 add	 eax, 4
  0005e	8b 4d fc	 mov	 ecx, DWORD PTR __Mylast$[ebp]
  00061	89 01		 mov	 DWORD PTR [ecx], eax

; 691  : #if _HAS_CXX17
; 692  :         return _Result;
; 693  : #else // ^^^ _HAS_CXX17 ^^^ // vvv !_HAS_CXX17 vvv
; 694  :         (void) _Result;
; 695  : #endif // _HAS_CXX17
; 696  :     }

  00063	c9		 leave
  00064	c2 04 00	 ret	 4
??$_Emplace_back_with_unused_capacity@ABQAVCParticleInstance@@@?$vector@PAVCParticleInstance@@V?$allocator@PAVCParticleInstance@@@std@@@std@@AAEXABQAVCParticleInstance@@@Z ENDP ; std::vector<CParticleInstance *,std::allocator<CParticleInstance *> >::_Emplace_back_with_unused_capacity<CParticleInstance * const &>
_TEXT	ENDS
; Function compile flags: /Odspy
; File C:\Program Files (x86)\Microsoft Visual Studio\2019\Community\VC\Tools\MSVC\14.28.29333\include\vector
; File C:\Program Files (x86)\Microsoft Visual Studio\2019\Community\VC\Tools\MSVC\14.28.29333\include\type_traits
; File C:\Program Files (x86)\Microsoft Visual Studio\2019\Community\VC\Tools\MSVC\14.28.29333\include\vector
; File C:\Program Files (x86)\Microsoft Visual Studio\2019\Community\VC\Tools\MSVC\14.28.29333\include\type_traits
; File C:\Program Files (x86)\Microsoft Visual Studio\2019\Community\VC\Tools\MSVC\14.28.29333\include\vector
;	COMDAT ??$emplace_back@ABQAVCParticleInstance@@@?$vector@PAVCParticleInstance@@V?$allocator@PAVCParticleInstance@@@std@@@std@@QAEXABQAVCParticleInstance@@@Z
_TEXT	SEGMENT
__Result$ = -24						; size = 4
$T1 = -20						; size = 4
$T2 = -16						; size = 4
__Mylast$ = -12						; size = 4
__My_data$ = -8						; size = 4
_this$ = -4						; size = 4
_<_Val_0>$ = 8						; size = 4
??$emplace_back@ABQAVCParticleInstance@@@?$vector@PAVCParticleInstance@@V?$allocator@PAVCParticleInstance@@@std@@@std@@QAEXABQAVCParticleInstance@@@Z PROC ; std::vector<CParticleInstance *,std::allocator<CParticleInstance *> >::emplace_back<CParticleInstance * const &>, COMDAT
; _this$ = ecx

; 700  :     decltype(auto) emplace_back(_Valty&&... _Val) {

  00000	55		 push	 ebp
  00001	8b ec		 mov	 ebp, esp
  00003	83 ec 18	 sub	 esp, 24			; 00000018H
  00006	89 4d fc	 mov	 DWORD PTR _this$[ebp], ecx

; 701  :         // insert by perfectly forwarding into element at end, provide strong guarantee
; 702  :         auto& _My_data   = _Mypair._Myval2;

  00009	8b 45 fc	 mov	 eax, DWORD PTR _this$[ebp]
  0000c	89 45 f8	 mov	 DWORD PTR __My_data$[ebp], eax

; 703  :         pointer& _Mylast = _My_data._Mylast;

  0000f	8b 45 f8	 mov	 eax, DWORD PTR __My_data$[ebp]
  00012	83 c0 04	 add	 eax, 4
  00015	89 45 f4	 mov	 DWORD PTR __Mylast$[ebp], eax

; 704  :         if (_Mylast != _My_data._Myend) {

  00018	8b 45 f4	 mov	 eax, DWORD PTR __Mylast$[ebp]
  0001b	8b 4d f8	 mov	 ecx, DWORD PTR __My_data$[ebp]
  0001e	8b 00		 mov	 eax, DWORD PTR [eax]
  00020	3b 41 08	 cmp	 eax, DWORD PTR [ecx+8]
  00023	74 13		 je	 SHORT $LN2@emplace_ba
; File C:\Program Files (x86)\Microsoft Visual Studio\2019\Community\VC\Tools\MSVC\14.28.29333\include\type_traits

; 1443 :     return static_cast<_Ty&&>(_Arg);

  00025	8b 45 08	 mov	 eax, DWORD PTR _<_Val_0>$[ebp]
  00028	89 45 f0	 mov	 DWORD PTR $T2[ebp], eax
; File C:\Program Files (x86)\Microsoft Visual Studio\2019\Community\VC\Tools\MSVC\14.28.29333\include\vector

; 705  :             return _Emplace_back_with_unused_capacity(_STD forward<_Valty>(_Val)...);

  0002b	ff 75 f0	 push	 DWORD PTR $T2[ebp]
  0002e	8b 4d fc	 mov	 ecx, DWORD PTR _this$[ebp]
  00031	e8 00 00 00 00	 call	 ??$_Emplace_back_with_unused_capacity@ABQAVCParticleInstance@@@?$vector@PAVCParticleInstance@@V?$allocator@PAVCParticleInstance@@@std@@@std@@AAEXABQAVCParticleInstance@@@Z ; std::vector<CParticleInstance *,std::allocator<CParticleInstance *> >::_Emplace_back_with_unused_capacity<CParticleInstance * const &>
  00036	eb 19		 jmp	 SHORT $LN1@emplace_ba
$LN2@emplace_ba:
; File C:\Program Files (x86)\Microsoft Visual Studio\2019\Community\VC\Tools\MSVC\14.28.29333\include\type_traits

; 1443 :     return static_cast<_Ty&&>(_Arg);

  00038	8b 45 08	 mov	 eax, DWORD PTR _<_Val_0>$[ebp]
  0003b	89 45 ec	 mov	 DWORD PTR $T1[ebp], eax
; File C:\Program Files (x86)\Microsoft Visual Studio\2019\Community\VC\Tools\MSVC\14.28.29333\include\vector

; 708  :         _Ty& _Result = *_Emplace_reallocate(_Mylast, _STD forward<_Valty>(_Val)...);

  0003e	ff 75 ec	 push	 DWORD PTR $T1[ebp]
  00041	8b 45 f4	 mov	 eax, DWORD PTR __Mylast$[ebp]
  00044	ff 30		 push	 DWORD PTR [eax]
  00046	8b 4d fc	 mov	 ecx, DWORD PTR _this$[ebp]
  00049	e8 00 00 00 00	 call	 ??$_Emplace_reallocate@ABQAVCParticleInstance@@@?$vector@PAVCParticleInstance@@V?$allocator@PAVCParticleInstance@@@std@@@std@@QAEPAPAVCParticleInstance@@QAPAV2@ABQAV2@@Z ; std::vector<CParticleInstance *,std::allocator<CParticleInstance *> >::_Emplace_reallocate<CParticleInstance * const &>
  0004e	89 45 e8	 mov	 DWORD PTR __Result$[ebp], eax
$LN1@emplace_ba:

; 709  : #if _HAS_CXX17
; 710  :         return _Result;
; 711  : #else // ^^^ _HAS_CXX17 ^^^ // vvv !_HAS_CXX17 vvv
; 712  :         (void) _Result;
; 713  : #endif // _HAS_CXX17
; 714  :     }

  00051	c9		 leave
  00052	c2 04 00	 ret	 4
??$emplace_back@ABQAVCParticleInstance@@@?$vector@PAVCParticleInstance@@V?$allocator@PAVCParticleInstance@@@std@@@std@@QAEXABQAVCParticleInstance@@@Z ENDP ; std::vector<CParticleInstance *,std::allocator<CParticleInstance *> >::emplace_back<CParticleInstance * const &>
_TEXT	ENDS
; Function compile flags: /Odspy
;	COMDAT ??_G?$CDynamicPoolEx@VCHeaderDecorator@NEffectUpdateDecorator@@@@UAEPAXI@Z
_TEXT	SEGMENT
_this$ = -4						; size = 4
___flags$ = 8						; size = 4
??_G?$CDynamicPoolEx@VCHeaderDecorator@NEffectUpdateDecorator@@@@UAEPAXI@Z PROC ; CDynamicPoolEx<NEffectUpdateDecorator::CHeaderDecorator>::`scalar deleting destructor', COMDAT
; _this$ = ecx
  00000	55		 push	 ebp
  00001	8b ec		 mov	 ebp, esp
  00003	51		 push	 ecx
  00004	89 4d fc	 mov	 DWORD PTR _this$[ebp], ecx
  00007	8b 4d fc	 mov	 ecx, DWORD PTR _this$[ebp]
  0000a	e8 00 00 00 00	 call	 ??1?$CDynamicPoolEx@VCHeaderDecorator@NEffectUpdateDecorator@@@@UAE@XZ ; CDynamicPoolEx<NEffectUpdateDecorator::CHeaderDecorator>::~CDynamicPoolEx<NEffectUpdateDecorator::CHeaderDecorator>
  0000f	8b 45 08	 mov	 eax, DWORD PTR ___flags$[ebp]
  00012	83 e0 01	 and	 eax, 1
  00015	74 0c		 je	 SHORT $LN2@scalar
  00017	6a 24		 push	 36			; 00000024H
  00019	ff 75 fc	 push	 DWORD PTR _this$[ebp]
  0001c	e8 00 00 00 00	 call	 ??3@YAXPAXI@Z		; operator delete
  00021	59		 pop	 ecx
  00022	59		 pop	 ecx
$LN2@scalar:
  00023	8b 45 fc	 mov	 eax, DWORD PTR _this$[ebp]
  00026	c9		 leave
  00027	c2 04 00	 ret	 4
??_G?$CDynamicPoolEx@VCHeaderDecorator@NEffectUpdateDecorator@@@@UAEPAXI@Z ENDP ; CDynamicPoolEx<NEffectUpdateDecorator::CHeaderDecorator>::`scalar deleting destructor'
_TEXT	ENDS
; Function compile flags: /Odspy
; File C:\Program Files (x86)\Microsoft Visual Studio\2019\Community\VC\Tools\MSVC\14.28.29333\include\vector
; File C:\Program Files (x86)\Microsoft Visual Studio\2019\Community\VC\Tools\MSVC\14.28.29333\include\xmemory
; File C:\Program Files (x86)\Microsoft Visual Studio\2019\Community\VC\Tools\MSVC\14.28.29333\include\vector
; File C:\Program Files (x86)\Microsoft Visual Studio\2019\Community\VC\Tools\MSVC\14.28.29333\include\xmemory
; File C:\Program Files (x86)\Microsoft Visual Studio\2019\Community\VC\Tools\MSVC\14.28.29333\include\vector
; File C:\Program Files (x86)\Microsoft Visual Studio\2019\Community\VC\Tools\MSVC\14.28.29333\include\xmemory
; File C:\Program Files (x86)\Microsoft Visual Studio\2019\Community\VC\Tools\MSVC\14.28.29333\include\vector
;	COMDAT ?_Tidy@?$vector@PAVCHeaderDecorator@NEffectUpdateDecorator@@V?$allocator@PAVCHeaderDecorator@NEffectUpdateDecorator@@@std@@@std@@AAEXXZ
_TEXT	SEGMENT
$T1 = -52						; size = 4
__Ptr$ = -48						; size = 4
__Count$ = -44						; size = 4
$T2 = -40						; size = 4
__First$ = -36						; size = 4
__Last$ = -32						; size = 4
$T3 = -28						; size = 4
$T4 = -24						; size = 4
__Myend$ = -20						; size = 4
__Mylast$ = -16						; size = 4
_this$ = -12						; size = 4
__My_data$ = -8						; size = 4
__Myfirst$ = -4						; size = 4
?_Tidy@?$vector@PAVCHeaderDecorator@NEffectUpdateDecorator@@V?$allocator@PAVCHeaderDecorator@NEffectUpdateDecorator@@@std@@@std@@AAEXXZ PROC ; std::vector<NEffectUpdateDecorator::CHeaderDecorator *,std::allocator<NEffectUpdateDecorator::CHeaderDecorator *> >::_Tidy, COMDAT
; _this$ = ecx

; 1686 :     void _Tidy() noexcept { // free all storage

  00000	55		 push	 ebp
  00001	8b ec		 mov	 ebp, esp
  00003	83 ec 34	 sub	 esp, 52			; 00000034H
  00006	89 4d f4	 mov	 DWORD PTR _this$[ebp], ecx

; 1687 :         auto& _My_data    = _Mypair._Myval2;

  00009	8b 45 f4	 mov	 eax, DWORD PTR _this$[ebp]
  0000c	89 45 f8	 mov	 DWORD PTR __My_data$[ebp], eax

; 1688 :         pointer& _Myfirst = _My_data._Myfirst;

  0000f	8b 45 f8	 mov	 eax, DWORD PTR __My_data$[ebp]
  00012	89 45 fc	 mov	 DWORD PTR __Myfirst$[ebp], eax

; 1689 :         pointer& _Mylast  = _My_data._Mylast;

  00015	8b 45 f8	 mov	 eax, DWORD PTR __My_data$[ebp]
  00018	83 c0 04	 add	 eax, 4
  0001b	89 45 f0	 mov	 DWORD PTR __Mylast$[ebp], eax

; 1690 :         pointer& _Myend   = _My_data._Myend;

  0001e	8b 45 f8	 mov	 eax, DWORD PTR __My_data$[ebp]
  00021	83 c0 08	 add	 eax, 8
  00024	89 45 ec	 mov	 DWORD PTR __Myend$[ebp], eax

; 1691 : 
; 1692 :         _My_data._Orphan_all();
; 1693 : 
; 1694 :         if (_Myfirst) { // destroy and deallocate old array

  00027	8b 45 fc	 mov	 eax, DWORD PTR __Myfirst$[ebp]
  0002a	83 38 00	 cmp	 DWORD PTR [eax], 0
  0002d	74 74		 je	 SHORT $LN3@Tidy

; 1695 :             _Destroy(_Myfirst, _Mylast);

  0002f	8b 45 f0	 mov	 eax, DWORD PTR __Mylast$[ebp]
  00032	8b 00		 mov	 eax, DWORD PTR [eax]
  00034	89 45 e0	 mov	 DWORD PTR __Last$[ebp], eax
  00037	8b 45 fc	 mov	 eax, DWORD PTR __Myfirst$[ebp]
  0003a	8b 00		 mov	 eax, DWORD PTR [eax]
  0003c	89 45 dc	 mov	 DWORD PTR __First$[ebp], eax

; 1733 :         return _Mypair._Get_first();

  0003f	8b 45 f4	 mov	 eax, DWORD PTR _this$[ebp]
; File C:\Program Files (x86)\Microsoft Visual Studio\2019\Community\VC\Tools\MSVC\14.28.29333\include\xmemory

; 1347 :         return *this;

  00042	89 45 e8	 mov	 DWORD PTR $T4[ebp], eax
; File C:\Program Files (x86)\Microsoft Visual Studio\2019\Community\VC\Tools\MSVC\14.28.29333\include\vector

; 1733 :         return _Mypair._Get_first();

  00045	8b 45 e8	 mov	 eax, DWORD PTR $T4[ebp]
  00048	89 45 e4	 mov	 DWORD PTR $T3[ebp], eax

; 1612 :         _Destroy_range(_First, _Last, _Getal());

  0004b	ff 75 e4	 push	 DWORD PTR $T3[ebp]
  0004e	ff 75 e0	 push	 DWORD PTR __Last$[ebp]
  00051	ff 75 dc	 push	 DWORD PTR __First$[ebp]
  00054	e8 00 00 00 00	 call	 ??$_Destroy_range@V?$allocator@PAVCHeaderDecorator@NEffectUpdateDecorator@@@std@@@std@@YAXPAPAVCHeaderDecorator@NEffectUpdateDecorator@@QAPAV12@AAV?$allocator@PAVCHeaderDecorator@NEffectUpdateDecorator@@@0@@Z ; std::_Destroy_range<std::allocator<NEffectUpdateDecorator::CHeaderDecorator *> >
  00059	83 c4 0c	 add	 esp, 12			; 0000000cH

; 1733 :         return _Mypair._Get_first();

  0005c	8b 45 f4	 mov	 eax, DWORD PTR _this$[ebp]
; File C:\Program Files (x86)\Microsoft Visual Studio\2019\Community\VC\Tools\MSVC\14.28.29333\include\xmemory

; 1347 :         return *this;

  0005f	89 45 d8	 mov	 DWORD PTR $T2[ebp], eax
; File C:\Program Files (x86)\Microsoft Visual Studio\2019\Community\VC\Tools\MSVC\14.28.29333\include\vector

; 1733 :         return _Mypair._Get_first();

  00062	8b 45 d8	 mov	 eax, DWORD PTR $T2[ebp]
  00065	89 45 cc	 mov	 DWORD PTR $T1[ebp], eax

; 1696 :             _Getal().deallocate(_Myfirst, static_cast<size_type>(_Myend - _Myfirst));

  00068	8b 45 ec	 mov	 eax, DWORD PTR __Myend$[ebp]
  0006b	8b 4d fc	 mov	 ecx, DWORD PTR __Myfirst$[ebp]
  0006e	8b 00		 mov	 eax, DWORD PTR [eax]
  00070	2b 01		 sub	 eax, DWORD PTR [ecx]
  00072	c1 f8 02	 sar	 eax, 2
  00075	89 45 d4	 mov	 DWORD PTR __Count$[ebp], eax
  00078	8b 45 fc	 mov	 eax, DWORD PTR __Myfirst$[ebp]
  0007b	8b 00		 mov	 eax, DWORD PTR [eax]
  0007d	89 45 d0	 mov	 DWORD PTR __Ptr$[ebp], eax
; File C:\Program Files (x86)\Microsoft Visual Studio\2019\Community\VC\Tools\MSVC\14.28.29333\include\xmemory

; 810  :         _Deallocate<_New_alignof<_Ty>>(_Ptr, sizeof(_Ty) * _Count);

  00080	8b 45 d4	 mov	 eax, DWORD PTR __Count$[ebp]
  00083	c1 e0 02	 shl	 eax, 2
  00086	50		 push	 eax
  00087	ff 75 d0	 push	 DWORD PTR __Ptr$[ebp]
  0008a	e8 00 00 00 00	 call	 ??$_Deallocate@$07$0A@@std@@YAXPAXI@Z ; std::_Deallocate<8,0>
  0008f	59		 pop	 ecx
  00090	59		 pop	 ecx
; File C:\Program Files (x86)\Microsoft Visual Studio\2019\Community\VC\Tools\MSVC\14.28.29333\include\vector

; 1698 :             _Myfirst = pointer();

  00091	8b 45 fc	 mov	 eax, DWORD PTR __Myfirst$[ebp]
  00094	83 20 00	 and	 DWORD PTR [eax], 0

; 1699 :             _Mylast  = pointer();

  00097	8b 45 f0	 mov	 eax, DWORD PTR __Mylast$[ebp]
  0009a	83 20 00	 and	 DWORD PTR [eax], 0

; 1700 :             _Myend   = pointer();

  0009d	8b 45 ec	 mov	 eax, DWORD PTR __Myend$[ebp]
  000a0	83 20 00	 and	 DWORD PTR [eax], 0
$LN3@Tidy:

; 1701 :         }
; 1702 :     }

  000a3	c9		 leave
  000a4	c3		 ret	 0
?_Tidy@?$vector@PAVCHeaderDecorator@NEffectUpdateDecorator@@V?$allocator@PAVCHeaderDecorator@NEffectUpdateDecorator@@@std@@@std@@AAEXXZ ENDP ; std::vector<NEffectUpdateDecorator::CHeaderDecorator *,std::allocator<NEffectUpdateDecorator::CHeaderDecorator *> >::_Tidy
_TEXT	ENDS
; Function compile flags: /Odspy
; File C:\Program Files (x86)\Microsoft Visual Studio\2019\Community\VC\Tools\MSVC\14.28.29333\include\vector
; File C:\Program Files (x86)\Microsoft Visual Studio\2019\Community\VC\Tools\MSVC\14.28.29333\include\xmemory
; File C:\Program Files (x86)\Microsoft Visual Studio\2019\Community\VC\Tools\MSVC\14.28.29333\include\vector
;	COMDAT ?clear@?$vector@PAVCHeaderDecorator@NEffectUpdateDecorator@@V?$allocator@PAVCHeaderDecorator@NEffectUpdateDecorator@@@std@@@std@@QAEXXZ
_TEXT	SEGMENT
__First$ = -32						; size = 4
__Last$ = -28						; size = 4
$T1 = -24						; size = 4
$T2 = -20						; size = 4
__Myfirst$ = -16					; size = 4
__Mylast$ = -12						; size = 4
_this$ = -8						; size = 4
__My_data$ = -4						; size = 4
?clear@?$vector@PAVCHeaderDecorator@NEffectUpdateDecorator@@V?$allocator@PAVCHeaderDecorator@NEffectUpdateDecorator@@@std@@@std@@QAEXXZ PROC ; std::vector<NEffectUpdateDecorator::CHeaderDecorator *,std::allocator<NEffectUpdateDecorator::CHeaderDecorator *> >::clear, COMDAT
; _this$ = ecx

; 1383 :     void clear() noexcept { // erase all

  00000	55		 push	 ebp
  00001	8b ec		 mov	 ebp, esp
  00003	83 ec 20	 sub	 esp, 32			; 00000020H
  00006	89 4d f8	 mov	 DWORD PTR _this$[ebp], ecx

; 1384 :         auto& _My_data    = _Mypair._Myval2;

  00009	8b 45 f8	 mov	 eax, DWORD PTR _this$[ebp]
  0000c	89 45 fc	 mov	 DWORD PTR __My_data$[ebp], eax

; 1385 :         pointer& _Myfirst = _My_data._Myfirst;

  0000f	8b 45 fc	 mov	 eax, DWORD PTR __My_data$[ebp]
  00012	89 45 f0	 mov	 DWORD PTR __Myfirst$[ebp], eax

; 1386 :         pointer& _Mylast  = _My_data._Mylast;

  00015	8b 45 fc	 mov	 eax, DWORD PTR __My_data$[ebp]
  00018	83 c0 04	 add	 eax, 4
  0001b	89 45 f4	 mov	 DWORD PTR __Mylast$[ebp], eax

; 1387 : 
; 1388 :         _My_data._Orphan_all();
; 1389 :         _Destroy(_Myfirst, _Mylast);

  0001e	8b 45 f4	 mov	 eax, DWORD PTR __Mylast$[ebp]
  00021	8b 00		 mov	 eax, DWORD PTR [eax]
  00023	89 45 e4	 mov	 DWORD PTR __Last$[ebp], eax
  00026	8b 45 f0	 mov	 eax, DWORD PTR __Myfirst$[ebp]
  00029	8b 00		 mov	 eax, DWORD PTR [eax]
  0002b	89 45 e0	 mov	 DWORD PTR __First$[ebp], eax

; 1733 :         return _Mypair._Get_first();

  0002e	8b 45 f8	 mov	 eax, DWORD PTR _this$[ebp]
; File C:\Program Files (x86)\Microsoft Visual Studio\2019\Community\VC\Tools\MSVC\14.28.29333\include\xmemory

; 1347 :         return *this;

  00031	89 45 ec	 mov	 DWORD PTR $T2[ebp], eax
; File C:\Program Files (x86)\Microsoft Visual Studio\2019\Community\VC\Tools\MSVC\14.28.29333\include\vector

; 1733 :         return _Mypair._Get_first();

  00034	8b 45 ec	 mov	 eax, DWORD PTR $T2[ebp]
  00037	89 45 e8	 mov	 DWORD PTR $T1[ebp], eax

; 1612 :         _Destroy_range(_First, _Last, _Getal());

  0003a	ff 75 e8	 push	 DWORD PTR $T1[ebp]
  0003d	ff 75 e4	 push	 DWORD PTR __Last$[ebp]
  00040	ff 75 e0	 push	 DWORD PTR __First$[ebp]
  00043	e8 00 00 00 00	 call	 ??$_Destroy_range@V?$allocator@PAVCHeaderDecorator@NEffectUpdateDecorator@@@std@@@std@@YAXPAPAVCHeaderDecorator@NEffectUpdateDecorator@@QAPAV12@AAV?$allocator@PAVCHeaderDecorator@NEffectUpdateDecorator@@@0@@Z ; std::_Destroy_range<std::allocator<NEffectUpdateDecorator::CHeaderDecorator *> >
  00048	83 c4 0c	 add	 esp, 12			; 0000000cH

; 1390 :         _Mylast = _Myfirst;

  0004b	8b 45 f4	 mov	 eax, DWORD PTR __Mylast$[ebp]
  0004e	8b 4d f0	 mov	 ecx, DWORD PTR __Myfirst$[ebp]
  00051	8b 09		 mov	 ecx, DWORD PTR [ecx]
  00053	89 08		 mov	 DWORD PTR [eax], ecx

; 1391 :     }

  00055	c9		 leave
  00056	c3		 ret	 0
?clear@?$vector@PAVCHeaderDecorator@NEffectUpdateDecorator@@V?$allocator@PAVCHeaderDecorator@NEffectUpdateDecorator@@@std@@@std@@QAEXXZ ENDP ; std::vector<NEffectUpdateDecorator::CHeaderDecorator *,std::allocator<NEffectUpdateDecorator::CHeaderDecorator *> >::clear
_TEXT	ENDS
; Function compile flags: /Odspy
; File D:\Metin2 Server Files\mainline\SRC_2014\Metin2Client\eterLib\Pool.h
;	COMDAT ?Delete@?$CDynamicPoolEx@VCHeaderDecorator@NEffectUpdateDecorator@@@@KAXPAVCHeaderDecorator@NEffectUpdateDecorator@@@Z
_TEXT	SEGMENT
_pkData$ = 8						; size = 4
?Delete@?$CDynamicPoolEx@VCHeaderDecorator@NEffectUpdateDecorator@@@@KAXPAVCHeaderDecorator@NEffectUpdateDecorator@@@Z PROC ; CDynamicPoolEx<NEffectUpdateDecorator::CHeaderDecorator>::Delete, COMDAT

; 223  : 		{

  00000	55		 push	 ebp
  00001	8b ec		 mov	 ebp, esp

; 224  : 			::operator delete(pkData);

  00003	ff 75 08	 push	 DWORD PTR _pkData$[ebp]
  00006	e8 00 00 00 00	 call	 ??3@YAXPAX@Z		; operator delete
  0000b	59		 pop	 ecx

; 225  : 		}

  0000c	5d		 pop	 ebp
  0000d	c3		 ret	 0
?Delete@?$CDynamicPoolEx@VCHeaderDecorator@NEffectUpdateDecorator@@@@KAXPAVCHeaderDecorator@NEffectUpdateDecorator@@@Z ENDP ; CDynamicPoolEx<NEffectUpdateDecorator::CHeaderDecorator>::Delete
_TEXT	ENDS
; Function compile flags: /Odspy
; File D:\Metin2 Server Files\mainline\SRC_2014\Metin2Client\eterLib\Pool.h
; File C:\Program Files (x86)\Microsoft Visual Studio\2019\Community\VC\Tools\MSVC\14.28.29333\include\vector
; File C:\Program Files (x86)\Microsoft Visual Studio\2019\Community\VC\Tools\MSVC\14.28.29333\include\xstddef
; File C:\Program Files (x86)\Microsoft Visual Studio\2019\Community\VC\Tools\MSVC\14.28.29333\include\vector
; File C:\Program Files (x86)\Microsoft Visual Studio\2019\Community\VC\Tools\MSVC\14.28.29333\include\xstddef
; File C:\Program Files (x86)\Microsoft Visual Studio\2019\Community\VC\Tools\MSVC\14.28.29333\include\vector
; File D:\Metin2 Server Files\mainline\SRC_2014\Metin2Client\eterLib\Pool.h
;	COMDAT ?Destroy@?$CDynamicPoolEx@VCHeaderDecorator@NEffectUpdateDecorator@@@@QAEXXZ
_TEXT	SEGMENT
$T1 = -44						; size = 4
$T2 = -40						; size = 4
$T3 = -36						; size = 4
$T4 = -32						; size = 4
$T5 = -28						; size = 4
___param0$ = -24					; size = 4
$T6 = -20						; size = 4
___param0$ = -16					; size = 4
__My_data$7 = -12					; size = 4
__My_data$8 = -8					; size = 4
_this$ = -4						; size = 4
?Destroy@?$CDynamicPoolEx@VCHeaderDecorator@NEffectUpdateDecorator@@@@QAEXXZ PROC ; CDynamicPoolEx<NEffectUpdateDecorator::CHeaderDecorator>::Destroy, COMDAT
; _this$ = ecx

; 150  : 		{

  00000	55		 push	 ebp
  00001	8b ec		 mov	 ebp, esp
  00003	83 ec 2c	 sub	 esp, 44			; 0000002cH
  00006	89 4d fc	 mov	 DWORD PTR _this$[ebp], ecx
; File C:\Program Files (x86)\Microsoft Visual Studio\2019\Community\VC\Tools\MSVC\14.28.29333\include\vector

; 1420 :         auto& _My_data = _Mypair._Myval2;

  00009	8b 45 fc	 mov	 eax, DWORD PTR _this$[ebp]
  0000c	83 c0 04	 add	 eax, 4
  0000f	89 45 f8	 mov	 DWORD PTR __My_data$8[ebp], eax
; File C:\Program Files (x86)\Microsoft Visual Studio\2019\Community\VC\Tools\MSVC\14.28.29333\include\xstddef

; 275  :     return __builtin_addressof(_Val);

  00012	8b 45 f8	 mov	 eax, DWORD PTR __My_data$8[ebp]
  00015	89 45 d8	 mov	 DWORD PTR $T2[ebp], eax
; File C:\Program Files (x86)\Microsoft Visual Studio\2019\Community\VC\Tools\MSVC\14.28.29333\include\vector

; 1421 :         return iterator(_My_data._Mylast, _STD addressof(_My_data));

  00018	8b 45 f8	 mov	 eax, DWORD PTR __My_data$8[ebp]
  0001b	8b 40 04	 mov	 eax, DWORD PTR [eax+4]
  0001e	89 45 f0	 mov	 DWORD PTR ___param0$[ebp], eax

; 42   :     _Vector_const_iterator(_Tptr _Parg, const _Container_base* _Pvector) noexcept : _Ptr(_Parg) {

  00021	8b 45 f0	 mov	 eax, DWORD PTR ___param0$[ebp]
  00024	89 45 ec	 mov	 DWORD PTR $T6[ebp], eax

; 1421 :         return iterator(_My_data._Mylast, _STD addressof(_My_data));

  00027	8d 45 ec	 lea	 eax, DWORD PTR $T6[ebp]
  0002a	89 45 e0	 mov	 DWORD PTR $T4[ebp], eax

; 1410 :         auto& _My_data = _Mypair._Myval2;

  0002d	8b 45 fc	 mov	 eax, DWORD PTR _this$[ebp]
  00030	83 c0 04	 add	 eax, 4
  00033	89 45 f4	 mov	 DWORD PTR __My_data$7[ebp], eax
; File C:\Program Files (x86)\Microsoft Visual Studio\2019\Community\VC\Tools\MSVC\14.28.29333\include\xstddef

; 275  :     return __builtin_addressof(_Val);

  00036	8b 45 f4	 mov	 eax, DWORD PTR __My_data$7[ebp]
  00039	89 45 d4	 mov	 DWORD PTR $T1[ebp], eax
; File C:\Program Files (x86)\Microsoft Visual Studio\2019\Community\VC\Tools\MSVC\14.28.29333\include\vector

; 1411 :         return iterator(_My_data._Myfirst, _STD addressof(_My_data));

  0003c	8b 45 f4	 mov	 eax, DWORD PTR __My_data$7[ebp]
  0003f	8b 00		 mov	 eax, DWORD PTR [eax]
  00041	89 45 e8	 mov	 DWORD PTR ___param0$[ebp], eax

; 42   :     _Vector_const_iterator(_Tptr _Parg, const _Container_base* _Pvector) noexcept : _Ptr(_Parg) {

  00044	8b 45 e8	 mov	 eax, DWORD PTR ___param0$[ebp]
  00047	89 45 e4	 mov	 DWORD PTR $T5[ebp], eax

; 1411 :         return iterator(_My_data._Myfirst, _STD addressof(_My_data));

  0004a	8d 45 e4	 lea	 eax, DWORD PTR $T5[ebp]
  0004d	89 45 dc	 mov	 DWORD PTR $T3[ebp], eax
; File D:\Metin2 Server Files\mainline\SRC_2014\Metin2Client\eterLib\Pool.h

; 160  : 			std::for_each(m_kVct_pkData.begin(), m_kVct_pkData.end(), Delete);

  00050	68 00 00 00 00	 push	 OFFSET ?Delete@?$CDynamicPoolEx@VCHeaderDecorator@NEffectUpdateDecorator@@@@KAXPAVCHeaderDecorator@NEffectUpdateDecorator@@@Z ; CDynamicPoolEx<NEffectUpdateDecorator::CHeaderDecorator>::Delete
  00055	8b 45 e0	 mov	 eax, DWORD PTR $T4[ebp]
  00058	ff 30		 push	 DWORD PTR [eax]
  0005a	8b 45 dc	 mov	 eax, DWORD PTR $T3[ebp]
  0005d	ff 30		 push	 DWORD PTR [eax]
  0005f	e8 00 00 00 00	 call	 ??$for_each@V?$_Vector_iterator@V?$_Vector_val@U?$_Simple_types@PAVCHeaderDecorator@NEffectUpdateDecorator@@@std@@@std@@@std@@P6AXPAVCHeaderDecorator@NEffectUpdateDecorator@@@Z@std@@YAP6AXPAVCHeaderDecorator@NEffectUpdateDecorator@@@ZV?$_Vector_iterator@V?$_Vector_val@U?$_Simple_types@PAVCHeaderDecorator@NEffectUpdateDecorator@@@std@@@std@@@0@1P6AX0@Z@Z ; std::for_each<std::_Vector_iterator<std::_Vector_val<std::_Simple_types<NEffectUpdateDecorator::CHeaderDecorator *> > >,void (__cdecl*)(NEffectUpdateDecorator::CHeaderDecorator *)>
  00064	83 c4 0c	 add	 esp, 12			; 0000000cH

; 161  : 			m_kVct_pkData.clear();

  00067	8b 4d fc	 mov	 ecx, DWORD PTR _this$[ebp]
  0006a	83 c1 04	 add	 ecx, 4
  0006d	e8 00 00 00 00	 call	 ?clear@?$vector@PAVCHeaderDecorator@NEffectUpdateDecorator@@V?$allocator@PAVCHeaderDecorator@NEffectUpdateDecorator@@@std@@@std@@QAEXXZ ; std::vector<NEffectUpdateDecorator::CHeaderDecorator *,std::allocator<NEffectUpdateDecorator::CHeaderDecorator *> >::clear

; 162  : 			m_kVct_pkFree.clear();

  00072	8b 4d fc	 mov	 ecx, DWORD PTR _this$[ebp]
  00075	83 c1 10	 add	 ecx, 16			; 00000010H
  00078	e8 00 00 00 00	 call	 ?clear@?$vector@PAVCHeaderDecorator@NEffectUpdateDecorator@@V?$allocator@PAVCHeaderDecorator@NEffectUpdateDecorator@@@std@@@std@@QAEXXZ ; std::vector<NEffectUpdateDecorator::CHeaderDecorator *,std::allocator<NEffectUpdateDecorator::CHeaderDecorator *> >::clear

; 163  : 		}

  0007d	c9		 leave
  0007e	c3		 ret	 0
?Destroy@?$CDynamicPoolEx@VCHeaderDecorator@NEffectUpdateDecorator@@@@QAEXXZ ENDP ; CDynamicPoolEx<NEffectUpdateDecorator::CHeaderDecorator>::Destroy
_TEXT	ENDS
; Function compile flags: /Odspy
; File D:\Metin2 Server Files\mainline\SRC_2014\Metin2Client\eterLib\Pool.h
; File C:\Program Files (x86)\Microsoft Visual Studio\2019\Community\VC\Tools\MSVC\14.28.29333\include\vector
; File D:\Metin2 Server Files\mainline\SRC_2014\Metin2Client\eterLib\Pool.h
; File C:\Program Files (x86)\Microsoft Visual Studio\2019\Community\VC\Tools\MSVC\14.28.29333\include\vector
; File D:\Metin2 Server Files\mainline\SRC_2014\Metin2Client\eterLib\Pool.h
;	COMDAT ??1?$CDynamicPoolEx@VCHeaderDecorator@NEffectUpdateDecorator@@@@UAE@XZ
_TEXT	SEGMENT
_this$ = -16						; size = 4
__$EHRec$ = -12						; size = 12
??1?$CDynamicPoolEx@VCHeaderDecorator@NEffectUpdateDecorator@@@@UAE@XZ PROC ; CDynamicPoolEx<NEffectUpdateDecorator::CHeaderDecorator>::~CDynamicPoolEx<NEffectUpdateDecorator::CHeaderDecorator>, COMDAT
; _this$ = ecx

; 132  : 		{

  00000	55		 push	 ebp
  00001	8b ec		 mov	 ebp, esp
  00003	6a ff		 push	 -1
  00005	68 00 00 00 00	 push	 __ehhandler$??1?$CDynamicPoolEx@VCHeaderDecorator@NEffectUpdateDecorator@@@@UAE@XZ
  0000a	64 a1 00 00 00
	00		 mov	 eax, DWORD PTR fs:0
  00010	50		 push	 eax
  00011	51		 push	 ecx
  00012	a1 00 00 00 00	 mov	 eax, DWORD PTR ___security_cookie
  00017	33 c5		 xor	 eax, ebp
  00019	50		 push	 eax
  0001a	8d 45 f4	 lea	 eax, DWORD PTR __$EHRec$[ebp]
  0001d	64 a3 00 00 00
	00		 mov	 DWORD PTR fs:0, eax
  00023	89 4d f0	 mov	 DWORD PTR _this$[ebp], ecx
  00026	8b 45 f0	 mov	 eax, DWORD PTR _this$[ebp]
  00029	c7 00 00 00 00
	00		 mov	 DWORD PTR [eax], OFFSET ??_7?$CDynamicPoolEx@VCHeaderDecorator@NEffectUpdateDecorator@@@@6B@

; 133  : 			assert(m_kVct_pkFree.size()==m_kVct_pkData.size());
; 134  : 			Destroy();

  0002f	8b 4d f0	 mov	 ecx, DWORD PTR _this$[ebp]
  00032	e8 00 00 00 00	 call	 ?Destroy@?$CDynamicPoolEx@VCHeaderDecorator@NEffectUpdateDecorator@@@@QAEXXZ ; CDynamicPoolEx<NEffectUpdateDecorator::CHeaderDecorator>::Destroy

; 142  : 		}

  00037	8b 4d f0	 mov	 ecx, DWORD PTR _this$[ebp]
  0003a	83 c1 10	 add	 ecx, 16			; 00000010H
; File C:\Program Files (x86)\Microsoft Visual Studio\2019\Community\VC\Tools\MSVC\14.28.29333\include\vector

; 673  :         _Tidy();

  0003d	e8 00 00 00 00	 call	 ?_Tidy@?$vector@PAVCHeaderDecorator@NEffectUpdateDecorator@@V?$allocator@PAVCHeaderDecorator@NEffectUpdateDecorator@@@std@@@std@@AAEXXZ ; std::vector<NEffectUpdateDecorator::CHeaderDecorator *,std::allocator<NEffectUpdateDecorator::CHeaderDecorator *> >::_Tidy
; File D:\Metin2 Server Files\mainline\SRC_2014\Metin2Client\eterLib\Pool.h

; 142  : 		}

  00042	8b 4d f0	 mov	 ecx, DWORD PTR _this$[ebp]
  00045	83 c1 04	 add	 ecx, 4
; File C:\Program Files (x86)\Microsoft Visual Studio\2019\Community\VC\Tools\MSVC\14.28.29333\include\vector

; 673  :         _Tidy();

  00048	e8 00 00 00 00	 call	 ?_Tidy@?$vector@PAVCHeaderDecorator@NEffectUpdateDecorator@@V?$allocator@PAVCHeaderDecorator@NEffectUpdateDecorator@@@std@@@std@@AAEXXZ ; std::vector<NEffectUpdateDecorator::CHeaderDecorator *,std::allocator<NEffectUpdateDecorator::CHeaderDecorator *> >::_Tidy
; File D:\Metin2 Server Files\mainline\SRC_2014\Metin2Client\eterLib\Pool.h

; 142  : 		}

  0004d	8b 4d f4	 mov	 ecx, DWORD PTR __$EHRec$[ebp]
  00050	64 89 0d 00 00
	00 00		 mov	 DWORD PTR fs:0, ecx
  00057	59		 pop	 ecx
  00058	c9		 leave
  00059	c3		 ret	 0
  0005a	cc		 int	 3
  0005b	cc		 int	 3
  0005c	cc		 int	 3
  0005d	cc		 int	 3
  0005e	cc		 int	 3
_TEXT	ENDS
;	COMDAT text$x
text$x	SEGMENT
__ehhandler$??1?$CDynamicPoolEx@VCHeaderDecorator@NEffectUpdateDecorator@@@@UAE@XZ:
  00000	90		 npad	 1
  00001	90		 npad	 1
  00002	8b 54 24 08	 mov	 edx, DWORD PTR [esp+8]
  00006	8d 42 0c	 lea	 eax, DWORD PTR [edx+12]
  00009	8b 4a f8	 mov	 ecx, DWORD PTR [edx-8]
  0000c	33 c8		 xor	 ecx, eax
  0000e	e8 00 00 00 00	 call	 @__security_check_cookie@4
  00013	b8 00 00 00 00	 mov	 eax, OFFSET __ehfuncinfo$??1?$CDynamicPoolEx@VCHeaderDecorator@NEffectUpdateDecorator@@@@UAE@XZ
  00018	e9 00 00 00 00	 jmp	 ___CxxFrameHandler3
text$x	ENDS
??1?$CDynamicPoolEx@VCHeaderDecorator@NEffectUpdateDecorator@@@@UAE@XZ ENDP ; CDynamicPoolEx<NEffectUpdateDecorator::CHeaderDecorator>::~CDynamicPoolEx<NEffectUpdateDecorator::CHeaderDecorator>
; Function compile flags: /Odspy
; File D:\Metin2 Server Files\mainline\SRC_2014\Metin2Client\eterLib\Pool.h
; File C:\Program Files (x86)\Microsoft Visual Studio\2019\Community\VC\Tools\MSVC\14.28.29333\include\vector
; File C:\Program Files (x86)\Microsoft Visual Studio\2019\Community\VC\Tools\MSVC\14.28.29333\include\xmemory
; File C:\Program Files (x86)\Microsoft Visual Studio\2019\Community\VC\Tools\MSVC\14.28.29333\include\vector
; File D:\Metin2 Server Files\mainline\SRC_2014\Metin2Client\eterLib\Pool.h
; File C:\Program Files (x86)\Microsoft Visual Studio\2019\Community\VC\Tools\MSVC\14.28.29333\include\vector
; File C:\Program Files (x86)\Microsoft Visual Studio\2019\Community\VC\Tools\MSVC\14.28.29333\include\xmemory
; File C:\Program Files (x86)\Microsoft Visual Studio\2019\Community\VC\Tools\MSVC\14.28.29333\include\vector
; File D:\Metin2 Server Files\mainline\SRC_2014\Metin2Client\eterLib\Pool.h
;	COMDAT ??0?$CDynamicPoolEx@VCHeaderDecorator@NEffectUpdateDecorator@@@@QAE@XZ
_TEXT	SEGMENT
_this$ = -28						; size = 4
_this$ = -24						; size = 4
_this$ = -20						; size = 4
_this$ = -16						; size = 4
_this$1 = -12						; size = 4
_this$2 = -8						; size = 4
_this$ = -4						; size = 4
??0?$CDynamicPoolEx@VCHeaderDecorator@NEffectUpdateDecorator@@@@QAE@XZ PROC ; CDynamicPoolEx<NEffectUpdateDecorator::CHeaderDecorator>::CDynamicPoolEx<NEffectUpdateDecorator::CHeaderDecorator>, COMDAT
; _this$ = ecx

; 126  : 		CDynamicPoolEx()

  00000	55		 push	 ebp
  00001	8b ec		 mov	 ebp, esp
  00003	83 ec 1c	 sub	 esp, 28			; 0000001cH
  00006	89 4d fc	 mov	 DWORD PTR _this$[ebp], ecx

; 127  : 		{

  00009	8b 45 fc	 mov	 eax, DWORD PTR _this$[ebp]
  0000c	c7 00 00 00 00
	00		 mov	 DWORD PTR [eax], OFFSET ??_7?$CDynamicPoolEx@VCHeaderDecorator@NEffectUpdateDecorator@@@@6B@
  00012	8b 45 fc	 mov	 eax, DWORD PTR _this$[ebp]
  00015	83 c0 04	 add	 eax, 4
  00018	89 45 f0	 mov	 DWORD PTR _this$[ebp], eax
; File C:\Program Files (x86)\Microsoft Visual Studio\2019\Community\VC\Tools\MSVC\14.28.29333\include\vector

; 445  :     vector() noexcept(is_nothrow_default_constructible_v<_Alty>) : _Mypair(_Zero_then_variadic_args_t{}) {

  0001b	8b 45 f0	 mov	 eax, DWORD PTR _this$[ebp]
  0001e	89 45 ec	 mov	 DWORD PTR _this$[ebp], eax
; File C:\Program Files (x86)\Microsoft Visual Studio\2019\Community\VC\Tools\MSVC\14.28.29333\include\xmemory

; 1339 :         : _Ty1(), _Myval2(_STD forward<_Other2>(_Val2)...) {}

  00021	8b 45 ec	 mov	 eax, DWORD PTR _this$[ebp]
  00024	89 45 f8	 mov	 DWORD PTR _this$2[ebp], eax
; File C:\Program Files (x86)\Microsoft Visual Studio\2019\Community\VC\Tools\MSVC\14.28.29333\include\vector

; 375  :     _Vector_val() noexcept : _Myfirst(), _Mylast(), _Myend() {}

  00027	8b 45 f8	 mov	 eax, DWORD PTR _this$2[ebp]
  0002a	83 20 00	 and	 DWORD PTR [eax], 0
  0002d	8b 45 f8	 mov	 eax, DWORD PTR _this$2[ebp]
  00030	83 60 04 00	 and	 DWORD PTR [eax+4], 0
  00034	8b 45 f8	 mov	 eax, DWORD PTR _this$2[ebp]
  00037	83 60 08 00	 and	 DWORD PTR [eax+8], 0
; File D:\Metin2 Server Files\mainline\SRC_2014\Metin2Client\eterLib\Pool.h

; 127  : 		{

  0003b	8b 45 fc	 mov	 eax, DWORD PTR _this$[ebp]
  0003e	83 c0 10	 add	 eax, 16			; 00000010H
  00041	89 45 e8	 mov	 DWORD PTR _this$[ebp], eax
; File C:\Program Files (x86)\Microsoft Visual Studio\2019\Community\VC\Tools\MSVC\14.28.29333\include\vector

; 445  :     vector() noexcept(is_nothrow_default_constructible_v<_Alty>) : _Mypair(_Zero_then_variadic_args_t{}) {

  00044	8b 45 e8	 mov	 eax, DWORD PTR _this$[ebp]
  00047	89 45 e4	 mov	 DWORD PTR _this$[ebp], eax
; File C:\Program Files (x86)\Microsoft Visual Studio\2019\Community\VC\Tools\MSVC\14.28.29333\include\xmemory

; 1339 :         : _Ty1(), _Myval2(_STD forward<_Other2>(_Val2)...) {}

  0004a	8b 45 e4	 mov	 eax, DWORD PTR _this$[ebp]
  0004d	89 45 f4	 mov	 DWORD PTR _this$1[ebp], eax
; File C:\Program Files (x86)\Microsoft Visual Studio\2019\Community\VC\Tools\MSVC\14.28.29333\include\vector

; 375  :     _Vector_val() noexcept : _Myfirst(), _Mylast(), _Myend() {}

  00050	8b 45 f4	 mov	 eax, DWORD PTR _this$1[ebp]
  00053	83 20 00	 and	 DWORD PTR [eax], 0
  00056	8b 45 f4	 mov	 eax, DWORD PTR _this$1[ebp]
  00059	83 60 04 00	 and	 DWORD PTR [eax+4], 0
  0005d	8b 45 f4	 mov	 eax, DWORD PTR _this$1[ebp]
  00060	83 60 08 00	 and	 DWORD PTR [eax+8], 0
; File D:\Metin2 Server Files\mainline\SRC_2014\Metin2Client\eterLib\Pool.h

; 128  : 			m_uInitCapacity=0;

  00064	8b 45 fc	 mov	 eax, DWORD PTR _this$[ebp]
  00067	83 60 1c 00	 and	 DWORD PTR [eax+28], 0

; 129  : 			m_uUsedCapacity=0;

  0006b	8b 45 fc	 mov	 eax, DWORD PTR _this$[ebp]
  0006e	83 60 20 00	 and	 DWORD PTR [eax+32], 0

; 130  : 		}

  00072	8b 45 fc	 mov	 eax, DWORD PTR _this$[ebp]
  00075	c9		 leave
  00076	c3		 ret	 0
??0?$CDynamicPoolEx@VCHeaderDecorator@NEffectUpdateDecorator@@@@QAE@XZ ENDP ; CDynamicPoolEx<NEffectUpdateDecorator::CHeaderDecorator>::CDynamicPoolEx<NEffectUpdateDecorator::CHeaderDecorator>
_TEXT	ENDS
; Function compile flags: /Odspy
;	COMDAT ??_G?$CDynamicPoolEx@VCNullDecorator@NEffectUpdateDecorator@@@@UAEPAXI@Z
_TEXT	SEGMENT
_this$ = -4						; size = 4
___flags$ = 8						; size = 4
??_G?$CDynamicPoolEx@VCNullDecorator@NEffectUpdateDecorator@@@@UAEPAXI@Z PROC ; CDynamicPoolEx<NEffectUpdateDecorator::CNullDecorator>::`scalar deleting destructor', COMDAT
; _this$ = ecx
  00000	55		 push	 ebp
  00001	8b ec		 mov	 ebp, esp
  00003	51		 push	 ecx
  00004	89 4d fc	 mov	 DWORD PTR _this$[ebp], ecx
  00007	8b 4d fc	 mov	 ecx, DWORD PTR _this$[ebp]
  0000a	e8 00 00 00 00	 call	 ??1?$CDynamicPoolEx@VCNullDecorator@NEffectUpdateDecorator@@@@UAE@XZ ; CDynamicPoolEx<NEffectUpdateDecorator::CNullDecorator>::~CDynamicPoolEx<NEffectUpdateDecorator::CNullDecorator>
  0000f	8b 45 08	 mov	 eax, DWORD PTR ___flags$[ebp]
  00012	83 e0 01	 and	 eax, 1
  00015	74 0c		 je	 SHORT $LN2@scalar
  00017	6a 24		 push	 36			; 00000024H
  00019	ff 75 fc	 push	 DWORD PTR _this$[ebp]
  0001c	e8 00 00 00 00	 call	 ??3@YAXPAXI@Z		; operator delete
  00021	59		 pop	 ecx
  00022	59		 pop	 ecx
$LN2@scalar:
  00023	8b 45 fc	 mov	 eax, DWORD PTR _this$[ebp]
  00026	c9		 leave
  00027	c2 04 00	 ret	 4
??_G?$CDynamicPoolEx@VCNullDecorator@NEffectUpdateDecorator@@@@UAEPAXI@Z ENDP ; CDynamicPoolEx<NEffectUpdateDecorator::CNullDecorator>::`scalar deleting destructor'
_TEXT	ENDS
; Function compile flags: /Odspy
; File C:\Program Files (x86)\Microsoft Visual Studio\2019\Community\VC\Tools\MSVC\14.28.29333\include\vector
; File C:\Program Files (x86)\Microsoft Visual Studio\2019\Community\VC\Tools\MSVC\14.28.29333\include\xmemory
; File C:\Program Files (x86)\Microsoft Visual Studio\2019\Community\VC\Tools\MSVC\14.28.29333\include\vector
; File C:\Program Files (x86)\Microsoft Visual Studio\2019\Community\VC\Tools\MSVC\14.28.29333\include\xmemory
; File C:\Program Files (x86)\Microsoft Visual Studio\2019\Community\VC\Tools\MSVC\14.28.29333\include\vector
; File C:\Program Files (x86)\Microsoft Visual Studio\2019\Community\VC\Tools\MSVC\14.28.29333\include\xmemory
; File C:\Program Files (x86)\Microsoft Visual Studio\2019\Community\VC\Tools\MSVC\14.28.29333\include\vector
;	COMDAT ?_Tidy@?$vector@PAVCNullDecorator@NEffectUpdateDecorator@@V?$allocator@PAVCNullDecorator@NEffectUpdateDecorator@@@std@@@std@@AAEXXZ
_TEXT	SEGMENT
$T1 = -52						; size = 4
__Ptr$ = -48						; size = 4
__Count$ = -44						; size = 4
$T2 = -40						; size = 4
__First$ = -36						; size = 4
__Last$ = -32						; size = 4
$T3 = -28						; size = 4
$T4 = -24						; size = 4
__Myend$ = -20						; size = 4
__Mylast$ = -16						; size = 4
_this$ = -12						; size = 4
__My_data$ = -8						; size = 4
__Myfirst$ = -4						; size = 4
?_Tidy@?$vector@PAVCNullDecorator@NEffectUpdateDecorator@@V?$allocator@PAVCNullDecorator@NEffectUpdateDecorator@@@std@@@std@@AAEXXZ PROC ; std::vector<NEffectUpdateDecorator::CNullDecorator *,std::allocator<NEffectUpdateDecorator::CNullDecorator *> >::_Tidy, COMDAT
; _this$ = ecx

; 1686 :     void _Tidy() noexcept { // free all storage

  00000	55		 push	 ebp
  00001	8b ec		 mov	 ebp, esp
  00003	83 ec 34	 sub	 esp, 52			; 00000034H
  00006	89 4d f4	 mov	 DWORD PTR _this$[ebp], ecx

; 1687 :         auto& _My_data    = _Mypair._Myval2;

  00009	8b 45 f4	 mov	 eax, DWORD PTR _this$[ebp]
  0000c	89 45 f8	 mov	 DWORD PTR __My_data$[ebp], eax

; 1688 :         pointer& _Myfirst = _My_data._Myfirst;

  0000f	8b 45 f8	 mov	 eax, DWORD PTR __My_data$[ebp]
  00012	89 45 fc	 mov	 DWORD PTR __Myfirst$[ebp], eax

; 1689 :         pointer& _Mylast  = _My_data._Mylast;

  00015	8b 45 f8	 mov	 eax, DWORD PTR __My_data$[ebp]
  00018	83 c0 04	 add	 eax, 4
  0001b	89 45 f0	 mov	 DWORD PTR __Mylast$[ebp], eax

; 1690 :         pointer& _Myend   = _My_data._Myend;

  0001e	8b 45 f8	 mov	 eax, DWORD PTR __My_data$[ebp]
  00021	83 c0 08	 add	 eax, 8
  00024	89 45 ec	 mov	 DWORD PTR __Myend$[ebp], eax

; 1691 : 
; 1692 :         _My_data._Orphan_all();
; 1693 : 
; 1694 :         if (_Myfirst) { // destroy and deallocate old array

  00027	8b 45 fc	 mov	 eax, DWORD PTR __Myfirst$[ebp]
  0002a	83 38 00	 cmp	 DWORD PTR [eax], 0
  0002d	74 74		 je	 SHORT $LN3@Tidy

; 1695 :             _Destroy(_Myfirst, _Mylast);

  0002f	8b 45 f0	 mov	 eax, DWORD PTR __Mylast$[ebp]
  00032	8b 00		 mov	 eax, DWORD PTR [eax]
  00034	89 45 e0	 mov	 DWORD PTR __Last$[ebp], eax
  00037	8b 45 fc	 mov	 eax, DWORD PTR __Myfirst$[ebp]
  0003a	8b 00		 mov	 eax, DWORD PTR [eax]
  0003c	89 45 dc	 mov	 DWORD PTR __First$[ebp], eax

; 1733 :         return _Mypair._Get_first();

  0003f	8b 45 f4	 mov	 eax, DWORD PTR _this$[ebp]
; File C:\Program Files (x86)\Microsoft Visual Studio\2019\Community\VC\Tools\MSVC\14.28.29333\include\xmemory

; 1347 :         return *this;

  00042	89 45 e8	 mov	 DWORD PTR $T4[ebp], eax
; File C:\Program Files (x86)\Microsoft Visual Studio\2019\Community\VC\Tools\MSVC\14.28.29333\include\vector

; 1733 :         return _Mypair._Get_first();

  00045	8b 45 e8	 mov	 eax, DWORD PTR $T4[ebp]
  00048	89 45 e4	 mov	 DWORD PTR $T3[ebp], eax

; 1612 :         _Destroy_range(_First, _Last, _Getal());

  0004b	ff 75 e4	 push	 DWORD PTR $T3[ebp]
  0004e	ff 75 e0	 push	 DWORD PTR __Last$[ebp]
  00051	ff 75 dc	 push	 DWORD PTR __First$[ebp]
  00054	e8 00 00 00 00	 call	 ??$_Destroy_range@V?$allocator@PAVCNullDecorator@NEffectUpdateDecorator@@@std@@@std@@YAXPAPAVCNullDecorator@NEffectUpdateDecorator@@QAPAV12@AAV?$allocator@PAVCNullDecorator@NEffectUpdateDecorator@@@0@@Z ; std::_Destroy_range<std::allocator<NEffectUpdateDecorator::CNullDecorator *> >
  00059	83 c4 0c	 add	 esp, 12			; 0000000cH

; 1733 :         return _Mypair._Get_first();

  0005c	8b 45 f4	 mov	 eax, DWORD PTR _this$[ebp]
; File C:\Program Files (x86)\Microsoft Visual Studio\2019\Community\VC\Tools\MSVC\14.28.29333\include\xmemory

; 1347 :         return *this;

  0005f	89 45 d8	 mov	 DWORD PTR $T2[ebp], eax
; File C:\Program Files (x86)\Microsoft Visual Studio\2019\Community\VC\Tools\MSVC\14.28.29333\include\vector

; 1733 :         return _Mypair._Get_first();

  00062	8b 45 d8	 mov	 eax, DWORD PTR $T2[ebp]
  00065	89 45 cc	 mov	 DWORD PTR $T1[ebp], eax

; 1696 :             _Getal().deallocate(_Myfirst, static_cast<size_type>(_Myend - _Myfirst));

  00068	8b 45 ec	 mov	 eax, DWORD PTR __Myend$[ebp]
  0006b	8b 4d fc	 mov	 ecx, DWORD PTR __Myfirst$[ebp]
  0006e	8b 00		 mov	 eax, DWORD PTR [eax]
  00070	2b 01		 sub	 eax, DWORD PTR [ecx]
  00072	c1 f8 02	 sar	 eax, 2
  00075	89 45 d4	 mov	 DWORD PTR __Count$[ebp], eax
  00078	8b 45 fc	 mov	 eax, DWORD PTR __Myfirst$[ebp]
  0007b	8b 00		 mov	 eax, DWORD PTR [eax]
  0007d	89 45 d0	 mov	 DWORD PTR __Ptr$[ebp], eax
; File C:\Program Files (x86)\Microsoft Visual Studio\2019\Community\VC\Tools\MSVC\14.28.29333\include\xmemory

; 810  :         _Deallocate<_New_alignof<_Ty>>(_Ptr, sizeof(_Ty) * _Count);

  00080	8b 45 d4	 mov	 eax, DWORD PTR __Count$[ebp]
  00083	c1 e0 02	 shl	 eax, 2
  00086	50		 push	 eax
  00087	ff 75 d0	 push	 DWORD PTR __Ptr$[ebp]
  0008a	e8 00 00 00 00	 call	 ??$_Deallocate@$07$0A@@std@@YAXPAXI@Z ; std::_Deallocate<8,0>
  0008f	59		 pop	 ecx
  00090	59		 pop	 ecx
; File C:\Program Files (x86)\Microsoft Visual Studio\2019\Community\VC\Tools\MSVC\14.28.29333\include\vector

; 1698 :             _Myfirst = pointer();

  00091	8b 45 fc	 mov	 eax, DWORD PTR __Myfirst$[ebp]
  00094	83 20 00	 and	 DWORD PTR [eax], 0

; 1699 :             _Mylast  = pointer();

  00097	8b 45 f0	 mov	 eax, DWORD PTR __Mylast$[ebp]
  0009a	83 20 00	 and	 DWORD PTR [eax], 0

; 1700 :             _Myend   = pointer();

  0009d	8b 45 ec	 mov	 eax, DWORD PTR __Myend$[ebp]
  000a0	83 20 00	 and	 DWORD PTR [eax], 0
$LN3@Tidy:

; 1701 :         }
; 1702 :     }

  000a3	c9		 leave
  000a4	c3		 ret	 0
?_Tidy@?$vector@PAVCNullDecorator@NEffectUpdateDecorator@@V?$allocator@PAVCNullDecorator@NEffectUpdateDecorator@@@std@@@std@@AAEXXZ ENDP ; std::vector<NEffectUpdateDecorator::CNullDecorator *,std::allocator<NEffectUpdateDecorator::CNullDecorator *> >::_Tidy
_TEXT	ENDS
; Function compile flags: /Odspy
; File C:\Program Files (x86)\Microsoft Visual Studio\2019\Community\VC\Tools\MSVC\14.28.29333\include\vector
; File C:\Program Files (x86)\Microsoft Visual Studio\2019\Community\VC\Tools\MSVC\14.28.29333\include\xmemory
; File C:\Program Files (x86)\Microsoft Visual Studio\2019\Community\VC\Tools\MSVC\14.28.29333\include\vector
;	COMDAT ?clear@?$vector@PAVCNullDecorator@NEffectUpdateDecorator@@V?$allocator@PAVCNullDecorator@NEffectUpdateDecorator@@@std@@@std@@QAEXXZ
_TEXT	SEGMENT
__First$ = -32						; size = 4
__Last$ = -28						; size = 4
$T1 = -24						; size = 4
$T2 = -20						; size = 4
__Myfirst$ = -16					; size = 4
__Mylast$ = -12						; size = 4
_this$ = -8						; size = 4
__My_data$ = -4						; size = 4
?clear@?$vector@PAVCNullDecorator@NEffectUpdateDecorator@@V?$allocator@PAVCNullDecorator@NEffectUpdateDecorator@@@std@@@std@@QAEXXZ PROC ; std::vector<NEffectUpdateDecorator::CNullDecorator *,std::allocator<NEffectUpdateDecorator::CNullDecorator *> >::clear, COMDAT
; _this$ = ecx

; 1383 :     void clear() noexcept { // erase all

  00000	55		 push	 ebp
  00001	8b ec		 mov	 ebp, esp
  00003	83 ec 20	 sub	 esp, 32			; 00000020H
  00006	89 4d f8	 mov	 DWORD PTR _this$[ebp], ecx

; 1384 :         auto& _My_data    = _Mypair._Myval2;

  00009	8b 45 f8	 mov	 eax, DWORD PTR _this$[ebp]
  0000c	89 45 fc	 mov	 DWORD PTR __My_data$[ebp], eax

; 1385 :         pointer& _Myfirst = _My_data._Myfirst;

  0000f	8b 45 fc	 mov	 eax, DWORD PTR __My_data$[ebp]
  00012	89 45 f0	 mov	 DWORD PTR __Myfirst$[ebp], eax

; 1386 :         pointer& _Mylast  = _My_data._Mylast;

  00015	8b 45 fc	 mov	 eax, DWORD PTR __My_data$[ebp]
  00018	83 c0 04	 add	 eax, 4
  0001b	89 45 f4	 mov	 DWORD PTR __Mylast$[ebp], eax

; 1387 : 
; 1388 :         _My_data._Orphan_all();
; 1389 :         _Destroy(_Myfirst, _Mylast);

  0001e	8b 45 f4	 mov	 eax, DWORD PTR __Mylast$[ebp]
  00021	8b 00		 mov	 eax, DWORD PTR [eax]
  00023	89 45 e4	 mov	 DWORD PTR __Last$[ebp], eax
  00026	8b 45 f0	 mov	 eax, DWORD PTR __Myfirst$[ebp]
  00029	8b 00		 mov	 eax, DWORD PTR [eax]
  0002b	89 45 e0	 mov	 DWORD PTR __First$[ebp], eax

; 1733 :         return _Mypair._Get_first();

  0002e	8b 45 f8	 mov	 eax, DWORD PTR _this$[ebp]
; File C:\Program Files (x86)\Microsoft Visual Studio\2019\Community\VC\Tools\MSVC\14.28.29333\include\xmemory

; 1347 :         return *this;

  00031	89 45 ec	 mov	 DWORD PTR $T2[ebp], eax
; File C:\Program Files (x86)\Microsoft Visual Studio\2019\Community\VC\Tools\MSVC\14.28.29333\include\vector

; 1733 :         return _Mypair._Get_first();

  00034	8b 45 ec	 mov	 eax, DWORD PTR $T2[ebp]
  00037	89 45 e8	 mov	 DWORD PTR $T1[ebp], eax

; 1612 :         _Destroy_range(_First, _Last, _Getal());

  0003a	ff 75 e8	 push	 DWORD PTR $T1[ebp]
  0003d	ff 75 e4	 push	 DWORD PTR __Last$[ebp]
  00040	ff 75 e0	 push	 DWORD PTR __First$[ebp]
  00043	e8 00 00 00 00	 call	 ??$_Destroy_range@V?$allocator@PAVCNullDecorator@NEffectUpdateDecorator@@@std@@@std@@YAXPAPAVCNullDecorator@NEffectUpdateDecorator@@QAPAV12@AAV?$allocator@PAVCNullDecorator@NEffectUpdateDecorator@@@0@@Z ; std::_Destroy_range<std::allocator<NEffectUpdateDecorator::CNullDecorator *> >
  00048	83 c4 0c	 add	 esp, 12			; 0000000cH

; 1390 :         _Mylast = _Myfirst;

  0004b	8b 45 f4	 mov	 eax, DWORD PTR __Mylast$[ebp]
  0004e	8b 4d f0	 mov	 ecx, DWORD PTR __Myfirst$[ebp]
  00051	8b 09		 mov	 ecx, DWORD PTR [ecx]
  00053	89 08		 mov	 DWORD PTR [eax], ecx

; 1391 :     }

  00055	c9		 leave
  00056	c3		 ret	 0
?clear@?$vector@PAVCNullDecorator@NEffectUpdateDecorator@@V?$allocator@PAVCNullDecorator@NEffectUpdateDecorator@@@std@@@std@@QAEXXZ ENDP ; std::vector<NEffectUpdateDecorator::CNullDecorator *,std::allocator<NEffectUpdateDecorator::CNullDecorator *> >::clear
_TEXT	ENDS
; Function compile flags: /Odspy
; File D:\Metin2 Server Files\mainline\SRC_2014\Metin2Client\eterLib\Pool.h
;	COMDAT ?Delete@?$CDynamicPoolEx@VCNullDecorator@NEffectUpdateDecorator@@@@KAXPAVCNullDecorator@NEffectUpdateDecorator@@@Z
_TEXT	SEGMENT
_pkData$ = 8						; size = 4
?Delete@?$CDynamicPoolEx@VCNullDecorator@NEffectUpdateDecorator@@@@KAXPAVCNullDecorator@NEffectUpdateDecorator@@@Z PROC ; CDynamicPoolEx<NEffectUpdateDecorator::CNullDecorator>::Delete, COMDAT

; 223  : 		{

  00000	55		 push	 ebp
  00001	8b ec		 mov	 ebp, esp

; 224  : 			::operator delete(pkData);

  00003	ff 75 08	 push	 DWORD PTR _pkData$[ebp]
  00006	e8 00 00 00 00	 call	 ??3@YAXPAX@Z		; operator delete
  0000b	59		 pop	 ecx

; 225  : 		}

  0000c	5d		 pop	 ebp
  0000d	c3		 ret	 0
?Delete@?$CDynamicPoolEx@VCNullDecorator@NEffectUpdateDecorator@@@@KAXPAVCNullDecorator@NEffectUpdateDecorator@@@Z ENDP ; CDynamicPoolEx<NEffectUpdateDecorator::CNullDecorator>::Delete
_TEXT	ENDS
; Function compile flags: /Odspy
; File D:\Metin2 Server Files\mainline\SRC_2014\Metin2Client\eterLib\Pool.h
; File C:\Program Files (x86)\Microsoft Visual Studio\2019\Community\VC\Tools\MSVC\14.28.29333\include\vector
; File C:\Program Files (x86)\Microsoft Visual Studio\2019\Community\VC\Tools\MSVC\14.28.29333\include\xstddef
; File C:\Program Files (x86)\Microsoft Visual Studio\2019\Community\VC\Tools\MSVC\14.28.29333\include\vector
; File C:\Program Files (x86)\Microsoft Visual Studio\2019\Community\VC\Tools\MSVC\14.28.29333\include\xstddef
; File C:\Program Files (x86)\Microsoft Visual Studio\2019\Community\VC\Tools\MSVC\14.28.29333\include\vector
; File D:\Metin2 Server Files\mainline\SRC_2014\Metin2Client\eterLib\Pool.h
;	COMDAT ?Destroy@?$CDynamicPoolEx@VCNullDecorator@NEffectUpdateDecorator@@@@QAEXXZ
_TEXT	SEGMENT
$T1 = -44						; size = 4
$T2 = -40						; size = 4
$T3 = -36						; size = 4
$T4 = -32						; size = 4
$T5 = -28						; size = 4
___param0$ = -24					; size = 4
$T6 = -20						; size = 4
___param0$ = -16					; size = 4
__My_data$7 = -12					; size = 4
__My_data$8 = -8					; size = 4
_this$ = -4						; size = 4
?Destroy@?$CDynamicPoolEx@VCNullDecorator@NEffectUpdateDecorator@@@@QAEXXZ PROC ; CDynamicPoolEx<NEffectUpdateDecorator::CNullDecorator>::Destroy, COMDAT
; _this$ = ecx

; 150  : 		{

  00000	55		 push	 ebp
  00001	8b ec		 mov	 ebp, esp
  00003	83 ec 2c	 sub	 esp, 44			; 0000002cH
  00006	89 4d fc	 mov	 DWORD PTR _this$[ebp], ecx
; File C:\Program Files (x86)\Microsoft Visual Studio\2019\Community\VC\Tools\MSVC\14.28.29333\include\vector

; 1420 :         auto& _My_data = _Mypair._Myval2;

  00009	8b 45 fc	 mov	 eax, DWORD PTR _this$[ebp]
  0000c	83 c0 04	 add	 eax, 4
  0000f	89 45 f8	 mov	 DWORD PTR __My_data$8[ebp], eax
; File C:\Program Files (x86)\Microsoft Visual Studio\2019\Community\VC\Tools\MSVC\14.28.29333\include\xstddef

; 275  :     return __builtin_addressof(_Val);

  00012	8b 45 f8	 mov	 eax, DWORD PTR __My_data$8[ebp]
  00015	89 45 d8	 mov	 DWORD PTR $T2[ebp], eax
; File C:\Program Files (x86)\Microsoft Visual Studio\2019\Community\VC\Tools\MSVC\14.28.29333\include\vector

; 1421 :         return iterator(_My_data._Mylast, _STD addressof(_My_data));

  00018	8b 45 f8	 mov	 eax, DWORD PTR __My_data$8[ebp]
  0001b	8b 40 04	 mov	 eax, DWORD PTR [eax+4]
  0001e	89 45 f0	 mov	 DWORD PTR ___param0$[ebp], eax

; 42   :     _Vector_const_iterator(_Tptr _Parg, const _Container_base* _Pvector) noexcept : _Ptr(_Parg) {

  00021	8b 45 f0	 mov	 eax, DWORD PTR ___param0$[ebp]
  00024	89 45 ec	 mov	 DWORD PTR $T6[ebp], eax

; 1421 :         return iterator(_My_data._Mylast, _STD addressof(_My_data));

  00027	8d 45 ec	 lea	 eax, DWORD PTR $T6[ebp]
  0002a	89 45 e0	 mov	 DWORD PTR $T4[ebp], eax

; 1410 :         auto& _My_data = _Mypair._Myval2;

  0002d	8b 45 fc	 mov	 eax, DWORD PTR _this$[ebp]
  00030	83 c0 04	 add	 eax, 4
  00033	89 45 f4	 mov	 DWORD PTR __My_data$7[ebp], eax
; File C:\Program Files (x86)\Microsoft Visual Studio\2019\Community\VC\Tools\MSVC\14.28.29333\include\xstddef

; 275  :     return __builtin_addressof(_Val);

  00036	8b 45 f4	 mov	 eax, DWORD PTR __My_data$7[ebp]
  00039	89 45 d4	 mov	 DWORD PTR $T1[ebp], eax
; File C:\Program Files (x86)\Microsoft Visual Studio\2019\Community\VC\Tools\MSVC\14.28.29333\include\vector

; 1411 :         return iterator(_My_data._Myfirst, _STD addressof(_My_data));

  0003c	8b 45 f4	 mov	 eax, DWORD PTR __My_data$7[ebp]
  0003f	8b 00		 mov	 eax, DWORD PTR [eax]
  00041	89 45 e8	 mov	 DWORD PTR ___param0$[ebp], eax

; 42   :     _Vector_const_iterator(_Tptr _Parg, const _Container_base* _Pvector) noexcept : _Ptr(_Parg) {

  00044	8b 45 e8	 mov	 eax, DWORD PTR ___param0$[ebp]
  00047	89 45 e4	 mov	 DWORD PTR $T5[ebp], eax

; 1411 :         return iterator(_My_data._Myfirst, _STD addressof(_My_data));

  0004a	8d 45 e4	 lea	 eax, DWORD PTR $T5[ebp]
  0004d	89 45 dc	 mov	 DWORD PTR $T3[ebp], eax
; File D:\Metin2 Server Files\mainline\SRC_2014\Metin2Client\eterLib\Pool.h

; 160  : 			std::for_each(m_kVct_pkData.begin(), m_kVct_pkData.end(), Delete);

  00050	68 00 00 00 00	 push	 OFFSET ?Delete@?$CDynamicPoolEx@VCNullDecorator@NEffectUpdateDecorator@@@@KAXPAVCNullDecorator@NEffectUpdateDecorator@@@Z ; CDynamicPoolEx<NEffectUpdateDecorator::CNullDecorator>::Delete
  00055	8b 45 e0	 mov	 eax, DWORD PTR $T4[ebp]
  00058	ff 30		 push	 DWORD PTR [eax]
  0005a	8b 45 dc	 mov	 eax, DWORD PTR $T3[ebp]
  0005d	ff 30		 push	 DWORD PTR [eax]
  0005f	e8 00 00 00 00	 call	 ??$for_each@V?$_Vector_iterator@V?$_Vector_val@U?$_Simple_types@PAVCNullDecorator@NEffectUpdateDecorator@@@std@@@std@@@std@@P6AXPAVCNullDecorator@NEffectUpdateDecorator@@@Z@std@@YAP6AXPAVCNullDecorator@NEffectUpdateDecorator@@@ZV?$_Vector_iterator@V?$_Vector_val@U?$_Simple_types@PAVCNullDecorator@NEffectUpdateDecorator@@@std@@@std@@@0@1P6AX0@Z@Z ; std::for_each<std::_Vector_iterator<std::_Vector_val<std::_Simple_types<NEffectUpdateDecorator::CNullDecorator *> > >,void (__cdecl*)(NEffectUpdateDecorator::CNullDecorator *)>
  00064	83 c4 0c	 add	 esp, 12			; 0000000cH

; 161  : 			m_kVct_pkData.clear();

  00067	8b 4d fc	 mov	 ecx, DWORD PTR _this$[ebp]
  0006a	83 c1 04	 add	 ecx, 4
  0006d	e8 00 00 00 00	 call	 ?clear@?$vector@PAVCNullDecorator@NEffectUpdateDecorator@@V?$allocator@PAVCNullDecorator@NEffectUpdateDecorator@@@std@@@std@@QAEXXZ ; std::vector<NEffectUpdateDecorator::CNullDecorator *,std::allocator<NEffectUpdateDecorator::CNullDecorator *> >::clear

; 162  : 			m_kVct_pkFree.clear();

  00072	8b 4d fc	 mov	 ecx, DWORD PTR _this$[ebp]
  00075	83 c1 10	 add	 ecx, 16			; 00000010H
  00078	e8 00 00 00 00	 call	 ?clear@?$vector@PAVCNullDecorator@NEffectUpdateDecorator@@V?$allocator@PAVCNullDecorator@NEffectUpdateDecorator@@@std@@@std@@QAEXXZ ; std::vector<NEffectUpdateDecorator::CNullDecorator *,std::allocator<NEffectUpdateDecorator::CNullDecorator *> >::clear

; 163  : 		}

  0007d	c9		 leave
  0007e	c3		 ret	 0
?Destroy@?$CDynamicPoolEx@VCNullDecorator@NEffectUpdateDecorator@@@@QAEXXZ ENDP ; CDynamicPoolEx<NEffectUpdateDecorator::CNullDecorator>::Destroy
_TEXT	ENDS
; Function compile flags: /Odspy
; File D:\Metin2 Server Files\mainline\SRC_2014\Metin2Client\eterLib\Pool.h
; File C:\Program Files (x86)\Microsoft Visual Studio\2019\Community\VC\Tools\MSVC\14.28.29333\include\vector
; File D:\Metin2 Server Files\mainline\SRC_2014\Metin2Client\eterLib\Pool.h
; File C:\Program Files (x86)\Microsoft Visual Studio\2019\Community\VC\Tools\MSVC\14.28.29333\include\vector
; File D:\Metin2 Server Files\mainline\SRC_2014\Metin2Client\eterLib\Pool.h
;	COMDAT ??1?$CDynamicPoolEx@VCNullDecorator@NEffectUpdateDecorator@@@@UAE@XZ
_TEXT	SEGMENT
_this$ = -16						; size = 4
__$EHRec$ = -12						; size = 12
??1?$CDynamicPoolEx@VCNullDecorator@NEffectUpdateDecorator@@@@UAE@XZ PROC ; CDynamicPoolEx<NEffectUpdateDecorator::CNullDecorator>::~CDynamicPoolEx<NEffectUpdateDecorator::CNullDecorator>, COMDAT
; _this$ = ecx

; 132  : 		{

  00000	55		 push	 ebp
  00001	8b ec		 mov	 ebp, esp
  00003	6a ff		 push	 -1
  00005	68 00 00 00 00	 push	 __ehhandler$??1?$CDynamicPoolEx@VCNullDecorator@NEffectUpdateDecorator@@@@UAE@XZ
  0000a	64 a1 00 00 00
	00		 mov	 eax, DWORD PTR fs:0
  00010	50		 push	 eax
  00011	51		 push	 ecx
  00012	a1 00 00 00 00	 mov	 eax, DWORD PTR ___security_cookie
  00017	33 c5		 xor	 eax, ebp
  00019	50		 push	 eax
  0001a	8d 45 f4	 lea	 eax, DWORD PTR __$EHRec$[ebp]
  0001d	64 a3 00 00 00
	00		 mov	 DWORD PTR fs:0, eax
  00023	89 4d f0	 mov	 DWORD PTR _this$[ebp], ecx
  00026	8b 45 f0	 mov	 eax, DWORD PTR _this$[ebp]
  00029	c7 00 00 00 00
	00		 mov	 DWORD PTR [eax], OFFSET ??_7?$CDynamicPoolEx@VCNullDecorator@NEffectUpdateDecorator@@@@6B@

; 133  : 			assert(m_kVct_pkFree.size()==m_kVct_pkData.size());
; 134  : 			Destroy();

  0002f	8b 4d f0	 mov	 ecx, DWORD PTR _this$[ebp]
  00032	e8 00 00 00 00	 call	 ?Destroy@?$CDynamicPoolEx@VCNullDecorator@NEffectUpdateDecorator@@@@QAEXXZ ; CDynamicPoolEx<NEffectUpdateDecorator::CNullDecorator>::Destroy

; 142  : 		}

  00037	8b 4d f0	 mov	 ecx, DWORD PTR _this$[ebp]
  0003a	83 c1 10	 add	 ecx, 16			; 00000010H
; File C:\Program Files (x86)\Microsoft Visual Studio\2019\Community\VC\Tools\MSVC\14.28.29333\include\vector

; 673  :         _Tidy();

  0003d	e8 00 00 00 00	 call	 ?_Tidy@?$vector@PAVCNullDecorator@NEffectUpdateDecorator@@V?$allocator@PAVCNullDecorator@NEffectUpdateDecorator@@@std@@@std@@AAEXXZ ; std::vector<NEffectUpdateDecorator::CNullDecorator *,std::allocator<NEffectUpdateDecorator::CNullDecorator *> >::_Tidy
; File D:\Metin2 Server Files\mainline\SRC_2014\Metin2Client\eterLib\Pool.h

; 142  : 		}

  00042	8b 4d f0	 mov	 ecx, DWORD PTR _this$[ebp]
  00045	83 c1 04	 add	 ecx, 4
; File C:\Program Files (x86)\Microsoft Visual Studio\2019\Community\VC\Tools\MSVC\14.28.29333\include\vector

; 673  :         _Tidy();

  00048	e8 00 00 00 00	 call	 ?_Tidy@?$vector@PAVCNullDecorator@NEffectUpdateDecorator@@V?$allocator@PAVCNullDecorator@NEffectUpdateDecorator@@@std@@@std@@AAEXXZ ; std::vector<NEffectUpdateDecorator::CNullDecorator *,std::allocator<NEffectUpdateDecorator::CNullDecorator *> >::_Tidy
; File D:\Metin2 Server Files\mainline\SRC_2014\Metin2Client\eterLib\Pool.h

; 142  : 		}

  0004d	8b 4d f4	 mov	 ecx, DWORD PTR __$EHRec$[ebp]
  00050	64 89 0d 00 00
	00 00		 mov	 DWORD PTR fs:0, ecx
  00057	59		 pop	 ecx
  00058	c9		 leave
  00059	c3		 ret	 0
  0005a	cc		 int	 3
  0005b	cc		 int	 3
  0005c	cc		 int	 3
  0005d	cc		 int	 3
  0005e	cc		 int	 3
_TEXT	ENDS
;	COMDAT text$x
text$x	SEGMENT
__ehhandler$??1?$CDynamicPoolEx@VCNullDecorator@NEffectUpdateDecorator@@@@UAE@XZ:
  00000	90		 npad	 1
  00001	90		 npad	 1
  00002	8b 54 24 08	 mov	 edx, DWORD PTR [esp+8]
  00006	8d 42 0c	 lea	 eax, DWORD PTR [edx+12]
  00009	8b 4a f8	 mov	 ecx, DWORD PTR [edx-8]
  0000c	33 c8		 xor	 ecx, eax
  0000e	e8 00 00 00 00	 call	 @__security_check_cookie@4
  00013	b8 00 00 00 00	 mov	 eax, OFFSET __ehfuncinfo$??1?$CDynamicPoolEx@VCNullDecorator@NEffectUpdateDecorator@@@@UAE@XZ
  00018	e9 00 00 00 00	 jmp	 ___CxxFrameHandler3
text$x	ENDS
??1?$CDynamicPoolEx@VCNullDecorator@NEffectUpdateDecorator@@@@UAE@XZ ENDP ; CDynamicPoolEx<NEffectUpdateDecorator::CNullDecorator>::~CDynamicPoolEx<NEffectUpdateDecorator::CNullDecorator>
; Function compile flags: /Odspy
; File D:\Metin2 Server Files\mainline\SRC_2014\Metin2Client\eterLib\Pool.h
; File C:\Program Files (x86)\Microsoft Visual Studio\2019\Community\VC\Tools\MSVC\14.28.29333\include\vector
; File C:\Program Files (x86)\Microsoft Visual Studio\2019\Community\VC\Tools\MSVC\14.28.29333\include\xmemory
; File C:\Program Files (x86)\Microsoft Visual Studio\2019\Community\VC\Tools\MSVC\14.28.29333\include\vector
; File D:\Metin2 Server Files\mainline\SRC_2014\Metin2Client\eterLib\Pool.h
; File C:\Program Files (x86)\Microsoft Visual Studio\2019\Community\VC\Tools\MSVC\14.28.29333\include\vector
; File C:\Program Files (x86)\Microsoft Visual Studio\2019\Community\VC\Tools\MSVC\14.28.29333\include\xmemory
; File C:\Program Files (x86)\Microsoft Visual Studio\2019\Community\VC\Tools\MSVC\14.28.29333\include\vector
; File D:\Metin2 Server Files\mainline\SRC_2014\Metin2Client\eterLib\Pool.h
;	COMDAT ??0?$CDynamicPoolEx@VCNullDecorator@NEffectUpdateDecorator@@@@QAE@XZ
_TEXT	SEGMENT
_this$ = -28						; size = 4
_this$ = -24						; size = 4
_this$ = -20						; size = 4
_this$ = -16						; size = 4
_this$1 = -12						; size = 4
_this$2 = -8						; size = 4
_this$ = -4						; size = 4
??0?$CDynamicPoolEx@VCNullDecorator@NEffectUpdateDecorator@@@@QAE@XZ PROC ; CDynamicPoolEx<NEffectUpdateDecorator::CNullDecorator>::CDynamicPoolEx<NEffectUpdateDecorator::CNullDecorator>, COMDAT
; _this$ = ecx

; 126  : 		CDynamicPoolEx()

  00000	55		 push	 ebp
  00001	8b ec		 mov	 ebp, esp
  00003	83 ec 1c	 sub	 esp, 28			; 0000001cH
  00006	89 4d fc	 mov	 DWORD PTR _this$[ebp], ecx

; 127  : 		{

  00009	8b 45 fc	 mov	 eax, DWORD PTR _this$[ebp]
  0000c	c7 00 00 00 00
	00		 mov	 DWORD PTR [eax], OFFSET ??_7?$CDynamicPoolEx@VCNullDecorator@NEffectUpdateDecorator@@@@6B@
  00012	8b 45 fc	 mov	 eax, DWORD PTR _this$[ebp]
  00015	83 c0 04	 add	 eax, 4
  00018	89 45 f0	 mov	 DWORD PTR _this$[ebp], eax
; File C:\Program Files (x86)\Microsoft Visual Studio\2019\Community\VC\Tools\MSVC\14.28.29333\include\vector

; 445  :     vector() noexcept(is_nothrow_default_constructible_v<_Alty>) : _Mypair(_Zero_then_variadic_args_t{}) {

  0001b	8b 45 f0	 mov	 eax, DWORD PTR _this$[ebp]
  0001e	89 45 ec	 mov	 DWORD PTR _this$[ebp], eax
; File C:\Program Files (x86)\Microsoft Visual Studio\2019\Community\VC\Tools\MSVC\14.28.29333\include\xmemory

; 1339 :         : _Ty1(), _Myval2(_STD forward<_Other2>(_Val2)...) {}

  00021	8b 45 ec	 mov	 eax, DWORD PTR _this$[ebp]
  00024	89 45 f8	 mov	 DWORD PTR _this$2[ebp], eax
; File C:\Program Files (x86)\Microsoft Visual Studio\2019\Community\VC\Tools\MSVC\14.28.29333\include\vector

; 375  :     _Vector_val() noexcept : _Myfirst(), _Mylast(), _Myend() {}

  00027	8b 45 f8	 mov	 eax, DWORD PTR _this$2[ebp]
  0002a	83 20 00	 and	 DWORD PTR [eax], 0
  0002d	8b 45 f8	 mov	 eax, DWORD PTR _this$2[ebp]
  00030	83 60 04 00	 and	 DWORD PTR [eax+4], 0
  00034	8b 45 f8	 mov	 eax, DWORD PTR _this$2[ebp]
  00037	83 60 08 00	 and	 DWORD PTR [eax+8], 0
; File D:\Metin2 Server Files\mainline\SRC_2014\Metin2Client\eterLib\Pool.h

; 127  : 		{

  0003b	8b 45 fc	 mov	 eax, DWORD PTR _this$[ebp]
  0003e	83 c0 10	 add	 eax, 16			; 00000010H
  00041	89 45 e8	 mov	 DWORD PTR _this$[ebp], eax
; File C:\Program Files (x86)\Microsoft Visual Studio\2019\Community\VC\Tools\MSVC\14.28.29333\include\vector

; 445  :     vector() noexcept(is_nothrow_default_constructible_v<_Alty>) : _Mypair(_Zero_then_variadic_args_t{}) {

  00044	8b 45 e8	 mov	 eax, DWORD PTR _this$[ebp]
  00047	89 45 e4	 mov	 DWORD PTR _this$[ebp], eax
; File C:\Program Files (x86)\Microsoft Visual Studio\2019\Community\VC\Tools\MSVC\14.28.29333\include\xmemory

; 1339 :         : _Ty1(), _Myval2(_STD forward<_Other2>(_Val2)...) {}

  0004a	8b 45 e4	 mov	 eax, DWORD PTR _this$[ebp]
  0004d	89 45 f4	 mov	 DWORD PTR _this$1[ebp], eax
; File C:\Program Files (x86)\Microsoft Visual Studio\2019\Community\VC\Tools\MSVC\14.28.29333\include\vector

; 375  :     _Vector_val() noexcept : _Myfirst(), _Mylast(), _Myend() {}

  00050	8b 45 f4	 mov	 eax, DWORD PTR _this$1[ebp]
  00053	83 20 00	 and	 DWORD PTR [eax], 0
  00056	8b 45 f4	 mov	 eax, DWORD PTR _this$1[ebp]
  00059	83 60 04 00	 and	 DWORD PTR [eax+4], 0
  0005d	8b 45 f4	 mov	 eax, DWORD PTR _this$1[ebp]
  00060	83 60 08 00	 and	 DWORD PTR [eax+8], 0
; File D:\Metin2 Server Files\mainline\SRC_2014\Metin2Client\eterLib\Pool.h

; 128  : 			m_uInitCapacity=0;

  00064	8b 45 fc	 mov	 eax, DWORD PTR _this$[ebp]
  00067	83 60 1c 00	 and	 DWORD PTR [eax+28], 0

; 129  : 			m_uUsedCapacity=0;

  0006b	8b 45 fc	 mov	 eax, DWORD PTR _this$[ebp]
  0006e	83 60 20 00	 and	 DWORD PTR [eax+32], 0

; 130  : 		}

  00072	8b 45 fc	 mov	 eax, DWORD PTR _this$[ebp]
  00075	c9		 leave
  00076	c3		 ret	 0
??0?$CDynamicPoolEx@VCNullDecorator@NEffectUpdateDecorator@@@@QAE@XZ ENDP ; CDynamicPoolEx<NEffectUpdateDecorator::CNullDecorator>::CDynamicPoolEx<NEffectUpdateDecorator::CNullDecorator>
_TEXT	ENDS
; Function compile flags: /Odspy
;	COMDAT ??_G?$CDynamicPoolEx@VCTextureAnimationCWDecorator@NEffectUpdateDecorator@@@@UAEPAXI@Z
_TEXT	SEGMENT
_this$ = -4						; size = 4
___flags$ = 8						; size = 4
??_G?$CDynamicPoolEx@VCTextureAnimationCWDecorator@NEffectUpdateDecorator@@@@UAEPAXI@Z PROC ; CDynamicPoolEx<NEffectUpdateDecorator::CTextureAnimationCWDecorator>::`scalar deleting destructor', COMDAT
; _this$ = ecx
  00000	55		 push	 ebp
  00001	8b ec		 mov	 ebp, esp
  00003	51		 push	 ecx
  00004	89 4d fc	 mov	 DWORD PTR _this$[ebp], ecx
  00007	8b 4d fc	 mov	 ecx, DWORD PTR _this$[ebp]
  0000a	e8 00 00 00 00	 call	 ??1?$CDynamicPoolEx@VCTextureAnimationCWDecorator@NEffectUpdateDecorator@@@@UAE@XZ ; CDynamicPoolEx<NEffectUpdateDecorator::CTextureAnimationCWDecorator>::~CDynamicPoolEx<NEffectUpdateDecorator::CTextureAnimationCWDecorator>
  0000f	8b 45 08	 mov	 eax, DWORD PTR ___flags$[ebp]
  00012	83 e0 01	 and	 eax, 1
  00015	74 0c		 je	 SHORT $LN2@scalar
  00017	6a 24		 push	 36			; 00000024H
  00019	ff 75 fc	 push	 DWORD PTR _this$[ebp]
  0001c	e8 00 00 00 00	 call	 ??3@YAXPAXI@Z		; operator delete
  00021	59		 pop	 ecx
  00022	59		 pop	 ecx
$LN2@scalar:
  00023	8b 45 fc	 mov	 eax, DWORD PTR _this$[ebp]
  00026	c9		 leave
  00027	c2 04 00	 ret	 4
??_G?$CDynamicPoolEx@VCTextureAnimationCWDecorator@NEffectUpdateDecorator@@@@UAEPAXI@Z ENDP ; CDynamicPoolEx<NEffectUpdateDecorator::CTextureAnimationCWDecorator>::`scalar deleting destructor'
_TEXT	ENDS
; Function compile flags: /Odspy
; File C:\Program Files (x86)\Microsoft Visual Studio\2019\Community\VC\Tools\MSVC\14.28.29333\include\vector
; File C:\Program Files (x86)\Microsoft Visual Studio\2019\Community\VC\Tools\MSVC\14.28.29333\include\xmemory
; File C:\Program Files (x86)\Microsoft Visual Studio\2019\Community\VC\Tools\MSVC\14.28.29333\include\vector
; File C:\Program Files (x86)\Microsoft Visual Studio\2019\Community\VC\Tools\MSVC\14.28.29333\include\xmemory
; File C:\Program Files (x86)\Microsoft Visual Studio\2019\Community\VC\Tools\MSVC\14.28.29333\include\vector
; File C:\Program Files (x86)\Microsoft Visual Studio\2019\Community\VC\Tools\MSVC\14.28.29333\include\xmemory
; File C:\Program Files (x86)\Microsoft Visual Studio\2019\Community\VC\Tools\MSVC\14.28.29333\include\vector
;	COMDAT ?_Tidy@?$vector@PAVCTextureAnimationCWDecorator@NEffectUpdateDecorator@@V?$allocator@PAVCTextureAnimationCWDecorator@NEffectUpdateDecorator@@@std@@@std@@AAEXXZ
_TEXT	SEGMENT
$T1 = -52						; size = 4
__Ptr$ = -48						; size = 4
__Count$ = -44						; size = 4
$T2 = -40						; size = 4
__First$ = -36						; size = 4
__Last$ = -32						; size = 4
$T3 = -28						; size = 4
$T4 = -24						; size = 4
__Myend$ = -20						; size = 4
__Mylast$ = -16						; size = 4
_this$ = -12						; size = 4
__My_data$ = -8						; size = 4
__Myfirst$ = -4						; size = 4
?_Tidy@?$vector@PAVCTextureAnimationCWDecorator@NEffectUpdateDecorator@@V?$allocator@PAVCTextureAnimationCWDecorator@NEffectUpdateDecorator@@@std@@@std@@AAEXXZ PROC ; std::vector<NEffectUpdateDecorator::CTextureAnimationCWDecorator *,std::allocator<NEffectUpdateDecorator::CTextureAnimationCWDecorator *> >::_Tidy, COMDAT
; _this$ = ecx

; 1686 :     void _Tidy() noexcept { // free all storage

  00000	55		 push	 ebp
  00001	8b ec		 mov	 ebp, esp
  00003	83 ec 34	 sub	 esp, 52			; 00000034H
  00006	89 4d f4	 mov	 DWORD PTR _this$[ebp], ecx

; 1687 :         auto& _My_data    = _Mypair._Myval2;

  00009	8b 45 f4	 mov	 eax, DWORD PTR _this$[ebp]
  0000c	89 45 f8	 mov	 DWORD PTR __My_data$[ebp], eax

; 1688 :         pointer& _Myfirst = _My_data._Myfirst;

  0000f	8b 45 f8	 mov	 eax, DWORD PTR __My_data$[ebp]
  00012	89 45 fc	 mov	 DWORD PTR __Myfirst$[ebp], eax

; 1689 :         pointer& _Mylast  = _My_data._Mylast;

  00015	8b 45 f8	 mov	 eax, DWORD PTR __My_data$[ebp]
  00018	83 c0 04	 add	 eax, 4
  0001b	89 45 f0	 mov	 DWORD PTR __Mylast$[ebp], eax

; 1690 :         pointer& _Myend   = _My_data._Myend;

  0001e	8b 45 f8	 mov	 eax, DWORD PTR __My_data$[ebp]
  00021	83 c0 08	 add	 eax, 8
  00024	89 45 ec	 mov	 DWORD PTR __Myend$[ebp], eax

; 1691 : 
; 1692 :         _My_data._Orphan_all();
; 1693 : 
; 1694 :         if (_Myfirst) { // destroy and deallocate old array

  00027	8b 45 fc	 mov	 eax, DWORD PTR __Myfirst$[ebp]
  0002a	83 38 00	 cmp	 DWORD PTR [eax], 0
  0002d	74 74		 je	 SHORT $LN3@Tidy

; 1695 :             _Destroy(_Myfirst, _Mylast);

  0002f	8b 45 f0	 mov	 eax, DWORD PTR __Mylast$[ebp]
  00032	8b 00		 mov	 eax, DWORD PTR [eax]
  00034	89 45 e0	 mov	 DWORD PTR __Last$[ebp], eax
  00037	8b 45 fc	 mov	 eax, DWORD PTR __Myfirst$[ebp]
  0003a	8b 00		 mov	 eax, DWORD PTR [eax]
  0003c	89 45 dc	 mov	 DWORD PTR __First$[ebp], eax

; 1733 :         return _Mypair._Get_first();

  0003f	8b 45 f4	 mov	 eax, DWORD PTR _this$[ebp]
; File C:\Program Files (x86)\Microsoft Visual Studio\2019\Community\VC\Tools\MSVC\14.28.29333\include\xmemory

; 1347 :         return *this;

  00042	89 45 e8	 mov	 DWORD PTR $T4[ebp], eax
; File C:\Program Files (x86)\Microsoft Visual Studio\2019\Community\VC\Tools\MSVC\14.28.29333\include\vector

; 1733 :         return _Mypair._Get_first();

  00045	8b 45 e8	 mov	 eax, DWORD PTR $T4[ebp]
  00048	89 45 e4	 mov	 DWORD PTR $T3[ebp], eax

; 1612 :         _Destroy_range(_First, _Last, _Getal());

  0004b	ff 75 e4	 push	 DWORD PTR $T3[ebp]
  0004e	ff 75 e0	 push	 DWORD PTR __Last$[ebp]
  00051	ff 75 dc	 push	 DWORD PTR __First$[ebp]
  00054	e8 00 00 00 00	 call	 ??$_Destroy_range@V?$allocator@PAVCTextureAnimationCWDecorator@NEffectUpdateDecorator@@@std@@@std@@YAXPAPAVCTextureAnimationCWDecorator@NEffectUpdateDecorator@@QAPAV12@AAV?$allocator@PAVCTextureAnimationCWDecorator@NEffectUpdateDecorator@@@0@@Z ; std::_Destroy_range<std::allocator<NEffectUpdateDecorator::CTextureAnimationCWDecorator *> >
  00059	83 c4 0c	 add	 esp, 12			; 0000000cH

; 1733 :         return _Mypair._Get_first();

  0005c	8b 45 f4	 mov	 eax, DWORD PTR _this$[ebp]
; File C:\Program Files (x86)\Microsoft Visual Studio\2019\Community\VC\Tools\MSVC\14.28.29333\include\xmemory

; 1347 :         return *this;

  0005f	89 45 d8	 mov	 DWORD PTR $T2[ebp], eax
; File C:\Program Files (x86)\Microsoft Visual Studio\2019\Community\VC\Tools\MSVC\14.28.29333\include\vector

; 1733 :         return _Mypair._Get_first();

  00062	8b 45 d8	 mov	 eax, DWORD PTR $T2[ebp]
  00065	89 45 cc	 mov	 DWORD PTR $T1[ebp], eax

; 1696 :             _Getal().deallocate(_Myfirst, static_cast<size_type>(_Myend - _Myfirst));

  00068	8b 45 ec	 mov	 eax, DWORD PTR __Myend$[ebp]
  0006b	8b 4d fc	 mov	 ecx, DWORD PTR __Myfirst$[ebp]
  0006e	8b 00		 mov	 eax, DWORD PTR [eax]
  00070	2b 01		 sub	 eax, DWORD PTR [ecx]
  00072	c1 f8 02	 sar	 eax, 2
  00075	89 45 d4	 mov	 DWORD PTR __Count$[ebp], eax
  00078	8b 45 fc	 mov	 eax, DWORD PTR __Myfirst$[ebp]
  0007b	8b 00		 mov	 eax, DWORD PTR [eax]
  0007d	89 45 d0	 mov	 DWORD PTR __Ptr$[ebp], eax
; File C:\Program Files (x86)\Microsoft Visual Studio\2019\Community\VC\Tools\MSVC\14.28.29333\include\xmemory

; 810  :         _Deallocate<_New_alignof<_Ty>>(_Ptr, sizeof(_Ty) * _Count);

  00080	8b 45 d4	 mov	 eax, DWORD PTR __Count$[ebp]
  00083	c1 e0 02	 shl	 eax, 2
  00086	50		 push	 eax
  00087	ff 75 d0	 push	 DWORD PTR __Ptr$[ebp]
  0008a	e8 00 00 00 00	 call	 ??$_Deallocate@$07$0A@@std@@YAXPAXI@Z ; std::_Deallocate<8,0>
  0008f	59		 pop	 ecx
  00090	59		 pop	 ecx
; File C:\Program Files (x86)\Microsoft Visual Studio\2019\Community\VC\Tools\MSVC\14.28.29333\include\vector

; 1698 :             _Myfirst = pointer();

  00091	8b 45 fc	 mov	 eax, DWORD PTR __Myfirst$[ebp]
  00094	83 20 00	 and	 DWORD PTR [eax], 0

; 1699 :             _Mylast  = pointer();

  00097	8b 45 f0	 mov	 eax, DWORD PTR __Mylast$[ebp]
  0009a	83 20 00	 and	 DWORD PTR [eax], 0

; 1700 :             _Myend   = pointer();

  0009d	8b 45 ec	 mov	 eax, DWORD PTR __Myend$[ebp]
  000a0	83 20 00	 and	 DWORD PTR [eax], 0
$LN3@Tidy:

; 1701 :         }
; 1702 :     }

  000a3	c9		 leave
  000a4	c3		 ret	 0
?_Tidy@?$vector@PAVCTextureAnimationCWDecorator@NEffectUpdateDecorator@@V?$allocator@PAVCTextureAnimationCWDecorator@NEffectUpdateDecorator@@@std@@@std@@AAEXXZ ENDP ; std::vector<NEffectUpdateDecorator::CTextureAnimationCWDecorator *,std::allocator<NEffectUpdateDecorator::CTextureAnimationCWDecorator *> >::_Tidy
_TEXT	ENDS
; Function compile flags: /Odspy
; File C:\Program Files (x86)\Microsoft Visual Studio\2019\Community\VC\Tools\MSVC\14.28.29333\include\vector
; File C:\Program Files (x86)\Microsoft Visual Studio\2019\Community\VC\Tools\MSVC\14.28.29333\include\xmemory
; File C:\Program Files (x86)\Microsoft Visual Studio\2019\Community\VC\Tools\MSVC\14.28.29333\include\vector
;	COMDAT ?clear@?$vector@PAVCTextureAnimationCWDecorator@NEffectUpdateDecorator@@V?$allocator@PAVCTextureAnimationCWDecorator@NEffectUpdateDecorator@@@std@@@std@@QAEXXZ
_TEXT	SEGMENT
__First$ = -32						; size = 4
__Last$ = -28						; size = 4
$T1 = -24						; size = 4
$T2 = -20						; size = 4
__Myfirst$ = -16					; size = 4
__Mylast$ = -12						; size = 4
_this$ = -8						; size = 4
__My_data$ = -4						; size = 4
?clear@?$vector@PAVCTextureAnimationCWDecorator@NEffectUpdateDecorator@@V?$allocator@PAVCTextureAnimationCWDecorator@NEffectUpdateDecorator@@@std@@@std@@QAEXXZ PROC ; std::vector<NEffectUpdateDecorator::CTextureAnimationCWDecorator *,std::allocator<NEffectUpdateDecorator::CTextureAnimationCWDecorator *> >::clear, COMDAT
; _this$ = ecx

; 1383 :     void clear() noexcept { // erase all

  00000	55		 push	 ebp
  00001	8b ec		 mov	 ebp, esp
  00003	83 ec 20	 sub	 esp, 32			; 00000020H
  00006	89 4d f8	 mov	 DWORD PTR _this$[ebp], ecx

; 1384 :         auto& _My_data    = _Mypair._Myval2;

  00009	8b 45 f8	 mov	 eax, DWORD PTR _this$[ebp]
  0000c	89 45 fc	 mov	 DWORD PTR __My_data$[ebp], eax

; 1385 :         pointer& _Myfirst = _My_data._Myfirst;

  0000f	8b 45 fc	 mov	 eax, DWORD PTR __My_data$[ebp]
  00012	89 45 f0	 mov	 DWORD PTR __Myfirst$[ebp], eax

; 1386 :         pointer& _Mylast  = _My_data._Mylast;

  00015	8b 45 fc	 mov	 eax, DWORD PTR __My_data$[ebp]
  00018	83 c0 04	 add	 eax, 4
  0001b	89 45 f4	 mov	 DWORD PTR __Mylast$[ebp], eax

; 1387 : 
; 1388 :         _My_data._Orphan_all();
; 1389 :         _Destroy(_Myfirst, _Mylast);

  0001e	8b 45 f4	 mov	 eax, DWORD PTR __Mylast$[ebp]
  00021	8b 00		 mov	 eax, DWORD PTR [eax]
  00023	89 45 e4	 mov	 DWORD PTR __Last$[ebp], eax
  00026	8b 45 f0	 mov	 eax, DWORD PTR __Myfirst$[ebp]
  00029	8b 00		 mov	 eax, DWORD PTR [eax]
  0002b	89 45 e0	 mov	 DWORD PTR __First$[ebp], eax

; 1733 :         return _Mypair._Get_first();

  0002e	8b 45 f8	 mov	 eax, DWORD PTR _this$[ebp]
; File C:\Program Files (x86)\Microsoft Visual Studio\2019\Community\VC\Tools\MSVC\14.28.29333\include\xmemory

; 1347 :         return *this;

  00031	89 45 ec	 mov	 DWORD PTR $T2[ebp], eax
; File C:\Program Files (x86)\Microsoft Visual Studio\2019\Community\VC\Tools\MSVC\14.28.29333\include\vector

; 1733 :         return _Mypair._Get_first();

  00034	8b 45 ec	 mov	 eax, DWORD PTR $T2[ebp]
  00037	89 45 e8	 mov	 DWORD PTR $T1[ebp], eax

; 1612 :         _Destroy_range(_First, _Last, _Getal());

  0003a	ff 75 e8	 push	 DWORD PTR $T1[ebp]
  0003d	ff 75 e4	 push	 DWORD PTR __Last$[ebp]
  00040	ff 75 e0	 push	 DWORD PTR __First$[ebp]
  00043	e8 00 00 00 00	 call	 ??$_Destroy_range@V?$allocator@PAVCTextureAnimationCWDecorator@NEffectUpdateDecorator@@@std@@@std@@YAXPAPAVCTextureAnimationCWDecorator@NEffectUpdateDecorator@@QAPAV12@AAV?$allocator@PAVCTextureAnimationCWDecorator@NEffectUpdateDecorator@@@0@@Z ; std::_Destroy_range<std::allocator<NEffectUpdateDecorator::CTextureAnimationCWDecorator *> >
  00048	83 c4 0c	 add	 esp, 12			; 0000000cH

; 1390 :         _Mylast = _Myfirst;

  0004b	8b 45 f4	 mov	 eax, DWORD PTR __Mylast$[ebp]
  0004e	8b 4d f0	 mov	 ecx, DWORD PTR __Myfirst$[ebp]
  00051	8b 09		 mov	 ecx, DWORD PTR [ecx]
  00053	89 08		 mov	 DWORD PTR [eax], ecx

; 1391 :     }

  00055	c9		 leave
  00056	c3		 ret	 0
?clear@?$vector@PAVCTextureAnimationCWDecorator@NEffectUpdateDecorator@@V?$allocator@PAVCTextureAnimationCWDecorator@NEffectUpdateDecorator@@@std@@@std@@QAEXXZ ENDP ; std::vector<NEffectUpdateDecorator::CTextureAnimationCWDecorator *,std::allocator<NEffectUpdateDecorator::CTextureAnimationCWDecorator *> >::clear
_TEXT	ENDS
; Function compile flags: /Odspy
; File D:\Metin2 Server Files\mainline\SRC_2014\Metin2Client\eterLib\Pool.h
;	COMDAT ?Delete@?$CDynamicPoolEx@VCTextureAnimationCWDecorator@NEffectUpdateDecorator@@@@KAXPAVCTextureAnimationCWDecorator@NEffectUpdateDecorator@@@Z
_TEXT	SEGMENT
_pkData$ = 8						; size = 4
?Delete@?$CDynamicPoolEx@VCTextureAnimationCWDecorator@NEffectUpdateDecorator@@@@KAXPAVCTextureAnimationCWDecorator@NEffectUpdateDecorator@@@Z PROC ; CDynamicPoolEx<NEffectUpdateDecorator::CTextureAnimationCWDecorator>::Delete, COMDAT

; 223  : 		{

  00000	55		 push	 ebp
  00001	8b ec		 mov	 ebp, esp

; 224  : 			::operator delete(pkData);

  00003	ff 75 08	 push	 DWORD PTR _pkData$[ebp]
  00006	e8 00 00 00 00	 call	 ??3@YAXPAX@Z		; operator delete
  0000b	59		 pop	 ecx

; 225  : 		}

  0000c	5d		 pop	 ebp
  0000d	c3		 ret	 0
?Delete@?$CDynamicPoolEx@VCTextureAnimationCWDecorator@NEffectUpdateDecorator@@@@KAXPAVCTextureAnimationCWDecorator@NEffectUpdateDecorator@@@Z ENDP ; CDynamicPoolEx<NEffectUpdateDecorator::CTextureAnimationCWDecorator>::Delete
_TEXT	ENDS
; Function compile flags: /Odspy
; File D:\Metin2 Server Files\mainline\SRC_2014\Metin2Client\eterLib\Pool.h
; File C:\Program Files (x86)\Microsoft Visual Studio\2019\Community\VC\Tools\MSVC\14.28.29333\include\vector
; File C:\Program Files (x86)\Microsoft Visual Studio\2019\Community\VC\Tools\MSVC\14.28.29333\include\xstddef
; File C:\Program Files (x86)\Microsoft Visual Studio\2019\Community\VC\Tools\MSVC\14.28.29333\include\vector
; File C:\Program Files (x86)\Microsoft Visual Studio\2019\Community\VC\Tools\MSVC\14.28.29333\include\xstddef
; File C:\Program Files (x86)\Microsoft Visual Studio\2019\Community\VC\Tools\MSVC\14.28.29333\include\vector
; File D:\Metin2 Server Files\mainline\SRC_2014\Metin2Client\eterLib\Pool.h
;	COMDAT ?Destroy@?$CDynamicPoolEx@VCTextureAnimationCWDecorator@NEffectUpdateDecorator@@@@QAEXXZ
_TEXT	SEGMENT
$T1 = -44						; size = 4
$T2 = -40						; size = 4
$T3 = -36						; size = 4
$T4 = -32						; size = 4
$T5 = -28						; size = 4
___param0$ = -24					; size = 4
$T6 = -20						; size = 4
___param0$ = -16					; size = 4
__My_data$7 = -12					; size = 4
__My_data$8 = -8					; size = 4
_this$ = -4						; size = 4
?Destroy@?$CDynamicPoolEx@VCTextureAnimationCWDecorator@NEffectUpdateDecorator@@@@QAEXXZ PROC ; CDynamicPoolEx<NEffectUpdateDecorator::CTextureAnimationCWDecorator>::Destroy, COMDAT
; _this$ = ecx

; 150  : 		{

  00000	55		 push	 ebp
  00001	8b ec		 mov	 ebp, esp
  00003	83 ec 2c	 sub	 esp, 44			; 0000002cH
  00006	89 4d fc	 mov	 DWORD PTR _this$[ebp], ecx
; File C:\Program Files (x86)\Microsoft Visual Studio\2019\Community\VC\Tools\MSVC\14.28.29333\include\vector

; 1420 :         auto& _My_data = _Mypair._Myval2;

  00009	8b 45 fc	 mov	 eax, DWORD PTR _this$[ebp]
  0000c	83 c0 04	 add	 eax, 4
  0000f	89 45 f8	 mov	 DWORD PTR __My_data$8[ebp], eax
; File C:\Program Files (x86)\Microsoft Visual Studio\2019\Community\VC\Tools\MSVC\14.28.29333\include\xstddef

; 275  :     return __builtin_addressof(_Val);

  00012	8b 45 f8	 mov	 eax, DWORD PTR __My_data$8[ebp]
  00015	89 45 d8	 mov	 DWORD PTR $T2[ebp], eax
; File C:\Program Files (x86)\Microsoft Visual Studio\2019\Community\VC\Tools\MSVC\14.28.29333\include\vector

; 1421 :         return iterator(_My_data._Mylast, _STD addressof(_My_data));

  00018	8b 45 f8	 mov	 eax, DWORD PTR __My_data$8[ebp]
  0001b	8b 40 04	 mov	 eax, DWORD PTR [eax+4]
  0001e	89 45 f0	 mov	 DWORD PTR ___param0$[ebp], eax

; 42   :     _Vector_const_iterator(_Tptr _Parg, const _Container_base* _Pvector) noexcept : _Ptr(_Parg) {

  00021	8b 45 f0	 mov	 eax, DWORD PTR ___param0$[ebp]
  00024	89 45 ec	 mov	 DWORD PTR $T6[ebp], eax

; 1421 :         return iterator(_My_data._Mylast, _STD addressof(_My_data));

  00027	8d 45 ec	 lea	 eax, DWORD PTR $T6[ebp]
  0002a	89 45 e0	 mov	 DWORD PTR $T4[ebp], eax

; 1410 :         auto& _My_data = _Mypair._Myval2;

  0002d	8b 45 fc	 mov	 eax, DWORD PTR _this$[ebp]
  00030	83 c0 04	 add	 eax, 4
  00033	89 45 f4	 mov	 DWORD PTR __My_data$7[ebp], eax
; File C:\Program Files (x86)\Microsoft Visual Studio\2019\Community\VC\Tools\MSVC\14.28.29333\include\xstddef

; 275  :     return __builtin_addressof(_Val);

  00036	8b 45 f4	 mov	 eax, DWORD PTR __My_data$7[ebp]
  00039	89 45 d4	 mov	 DWORD PTR $T1[ebp], eax
; File C:\Program Files (x86)\Microsoft Visual Studio\2019\Community\VC\Tools\MSVC\14.28.29333\include\vector

; 1411 :         return iterator(_My_data._Myfirst, _STD addressof(_My_data));

  0003c	8b 45 f4	 mov	 eax, DWORD PTR __My_data$7[ebp]
  0003f	8b 00		 mov	 eax, DWORD PTR [eax]
  00041	89 45 e8	 mov	 DWORD PTR ___param0$[ebp], eax

; 42   :     _Vector_const_iterator(_Tptr _Parg, const _Container_base* _Pvector) noexcept : _Ptr(_Parg) {

  00044	8b 45 e8	 mov	 eax, DWORD PTR ___param0$[ebp]
  00047	89 45 e4	 mov	 DWORD PTR $T5[ebp], eax

; 1411 :         return iterator(_My_data._Myfirst, _STD addressof(_My_data));

  0004a	8d 45 e4	 lea	 eax, DWORD PTR $T5[ebp]
  0004d	89 45 dc	 mov	 DWORD PTR $T3[ebp], eax
; File D:\Metin2 Server Files\mainline\SRC_2014\Metin2Client\eterLib\Pool.h

; 160  : 			std::for_each(m_kVct_pkData.begin(), m_kVct_pkData.end(), Delete);

  00050	68 00 00 00 00	 push	 OFFSET ?Delete@?$CDynamicPoolEx@VCTextureAnimationCWDecorator@NEffectUpdateDecorator@@@@KAXPAVCTextureAnimationCWDecorator@NEffectUpdateDecorator@@@Z ; CDynamicPoolEx<NEffectUpdateDecorator::CTextureAnimationCWDecorator>::Delete
  00055	8b 45 e0	 mov	 eax, DWORD PTR $T4[ebp]
  00058	ff 30		 push	 DWORD PTR [eax]
  0005a	8b 45 dc	 mov	 eax, DWORD PTR $T3[ebp]
  0005d	ff 30		 push	 DWORD PTR [eax]
  0005f	e8 00 00 00 00	 call	 ??$for_each@V?$_Vector_iterator@V?$_Vector_val@U?$_Simple_types@PAVCTextureAnimationCWDecorator@NEffectUpdateDecorator@@@std@@@std@@@std@@P6AXPAVCTextureAnimationCWDecorator@NEffectUpdateDecorator@@@Z@std@@YAP6AXPAVCTextureAnimationCWDecorator@NEffectUpdateDecorator@@@ZV?$_Vector_iterator@V?$_Vector_val@U?$_Simple_types@PAVCTextureAnimationCWDecorator@NEffectUpdateDecorator@@@std@@@std@@@0@1P6AX0@Z@Z ; std::for_each<std::_Vector_iterator<std::_Vector_val<std::_Simple_types<NEffectUpdateDecorator::CTextureAnimationCWDecorator *> > >,void (__cdecl*)(NEffectUpdateDecorator::CTextureAnimationCWDecorator *)>
  00064	83 c4 0c	 add	 esp, 12			; 0000000cH

; 161  : 			m_kVct_pkData.clear();

  00067	8b 4d fc	 mov	 ecx, DWORD PTR _this$[ebp]
  0006a	83 c1 04	 add	 ecx, 4
  0006d	e8 00 00 00 00	 call	 ?clear@?$vector@PAVCTextureAnimationCWDecorator@NEffectUpdateDecorator@@V?$allocator@PAVCTextureAnimationCWDecorator@NEffectUpdateDecorator@@@std@@@std@@QAEXXZ ; std::vector<NEffectUpdateDecorator::CTextureAnimationCWDecorator *,std::allocator<NEffectUpdateDecorator::CTextureAnimationCWDecorator *> >::clear

; 162  : 			m_kVct_pkFree.clear();

  00072	8b 4d fc	 mov	 ecx, DWORD PTR _this$[ebp]
  00075	83 c1 10	 add	 ecx, 16			; 00000010H
  00078	e8 00 00 00 00	 call	 ?clear@?$vector@PAVCTextureAnimationCWDecorator@NEffectUpdateDecorator@@V?$allocator@PAVCTextureAnimationCWDecorator@NEffectUpdateDecorator@@@std@@@std@@QAEXXZ ; std::vector<NEffectUpdateDecorator::CTextureAnimationCWDecorator *,std::allocator<NEffectUpdateDecorator::CTextureAnimationCWDecorator *> >::clear

; 163  : 		}

  0007d	c9		 leave
  0007e	c3		 ret	 0
?Destroy@?$CDynamicPoolEx@VCTextureAnimationCWDecorator@NEffectUpdateDecorator@@@@QAEXXZ ENDP ; CDynamicPoolEx<NEffectUpdateDecorator::CTextureAnimationCWDecorator>::Destroy
_TEXT	ENDS
; Function compile flags: /Odspy
; File D:\Metin2 Server Files\mainline\SRC_2014\Metin2Client\eterLib\Pool.h
; File C:\Program Files (x86)\Microsoft Visual Studio\2019\Community\VC\Tools\MSVC\14.28.29333\include\vector
; File D:\Metin2 Server Files\mainline\SRC_2014\Metin2Client\eterLib\Pool.h
; File C:\Program Files (x86)\Microsoft Visual Studio\2019\Community\VC\Tools\MSVC\14.28.29333\include\vector
; File D:\Metin2 Server Files\mainline\SRC_2014\Metin2Client\eterLib\Pool.h
;	COMDAT ??1?$CDynamicPoolEx@VCTextureAnimationCWDecorator@NEffectUpdateDecorator@@@@UAE@XZ
_TEXT	SEGMENT
_this$ = -16						; size = 4
__$EHRec$ = -12						; size = 12
??1?$CDynamicPoolEx@VCTextureAnimationCWDecorator@NEffectUpdateDecorator@@@@UAE@XZ PROC ; CDynamicPoolEx<NEffectUpdateDecorator::CTextureAnimationCWDecorator>::~CDynamicPoolEx<NEffectUpdateDecorator::CTextureAnimationCWDecorator>, COMDAT
; _this$ = ecx

; 132  : 		{

  00000	55		 push	 ebp
  00001	8b ec		 mov	 ebp, esp
  00003	6a ff		 push	 -1
  00005	68 00 00 00 00	 push	 __ehhandler$??1?$CDynamicPoolEx@VCTextureAnimationCWDecorator@NEffectUpdateDecorator@@@@UAE@XZ
  0000a	64 a1 00 00 00
	00		 mov	 eax, DWORD PTR fs:0
  00010	50		 push	 eax
  00011	51		 push	 ecx
  00012	a1 00 00 00 00	 mov	 eax, DWORD PTR ___security_cookie
  00017	33 c5		 xor	 eax, ebp
  00019	50		 push	 eax
  0001a	8d 45 f4	 lea	 eax, DWORD PTR __$EHRec$[ebp]
  0001d	64 a3 00 00 00
	00		 mov	 DWORD PTR fs:0, eax
  00023	89 4d f0	 mov	 DWORD PTR _this$[ebp], ecx
  00026	8b 45 f0	 mov	 eax, DWORD PTR _this$[ebp]
  00029	c7 00 00 00 00
	00		 mov	 DWORD PTR [eax], OFFSET ??_7?$CDynamicPoolEx@VCTextureAnimationCWDecorator@NEffectUpdateDecorator@@@@6B@

; 133  : 			assert(m_kVct_pkFree.size()==m_kVct_pkData.size());
; 134  : 			Destroy();

  0002f	8b 4d f0	 mov	 ecx, DWORD PTR _this$[ebp]
  00032	e8 00 00 00 00	 call	 ?Destroy@?$CDynamicPoolEx@VCTextureAnimationCWDecorator@NEffectUpdateDecorator@@@@QAEXXZ ; CDynamicPoolEx<NEffectUpdateDecorator::CTextureAnimationCWDecorator>::Destroy

; 142  : 		}

  00037	8b 4d f0	 mov	 ecx, DWORD PTR _this$[ebp]
  0003a	83 c1 10	 add	 ecx, 16			; 00000010H
; File C:\Program Files (x86)\Microsoft Visual Studio\2019\Community\VC\Tools\MSVC\14.28.29333\include\vector

; 673  :         _Tidy();

  0003d	e8 00 00 00 00	 call	 ?_Tidy@?$vector@PAVCTextureAnimationCWDecorator@NEffectUpdateDecorator@@V?$allocator@PAVCTextureAnimationCWDecorator@NEffectUpdateDecorator@@@std@@@std@@AAEXXZ ; std::vector<NEffectUpdateDecorator::CTextureAnimationCWDecorator *,std::allocator<NEffectUpdateDecorator::CTextureAnimationCWDecorator *> >::_Tidy
; File D:\Metin2 Server Files\mainline\SRC_2014\Metin2Client\eterLib\Pool.h

; 142  : 		}

  00042	8b 4d f0	 mov	 ecx, DWORD PTR _this$[ebp]
  00045	83 c1 04	 add	 ecx, 4
; File C:\Program Files (x86)\Microsoft Visual Studio\2019\Community\VC\Tools\MSVC\14.28.29333\include\vector

; 673  :         _Tidy();

  00048	e8 00 00 00 00	 call	 ?_Tidy@?$vector@PAVCTextureAnimationCWDecorator@NEffectUpdateDecorator@@V?$allocator@PAVCTextureAnimationCWDecorator@NEffectUpdateDecorator@@@std@@@std@@AAEXXZ ; std::vector<NEffectUpdateDecorator::CTextureAnimationCWDecorator *,std::allocator<NEffectUpdateDecorator::CTextureAnimationCWDecorator *> >::_Tidy
; File D:\Metin2 Server Files\mainline\SRC_2014\Metin2Client\eterLib\Pool.h

; 142  : 		}

  0004d	8b 4d f4	 mov	 ecx, DWORD PTR __$EHRec$[ebp]
  00050	64 89 0d 00 00
	00 00		 mov	 DWORD PTR fs:0, ecx
  00057	59		 pop	 ecx
  00058	c9		 leave
  00059	c3		 ret	 0
  0005a	cc		 int	 3
  0005b	cc		 int	 3
  0005c	cc		 int	 3
  0005d	cc		 int	 3
  0005e	cc		 int	 3
_TEXT	ENDS
;	COMDAT text$x
text$x	SEGMENT
__ehhandler$??1?$CDynamicPoolEx@VCTextureAnimationCWDecorator@NEffectUpdateDecorator@@@@UAE@XZ:
  00000	90		 npad	 1
  00001	90		 npad	 1
  00002	8b 54 24 08	 mov	 edx, DWORD PTR [esp+8]
  00006	8d 42 0c	 lea	 eax, DWORD PTR [edx+12]
  00009	8b 4a f8	 mov	 ecx, DWORD PTR [edx-8]
  0000c	33 c8		 xor	 ecx, eax
  0000e	e8 00 00 00 00	 call	 @__security_check_cookie@4
  00013	b8 00 00 00 00	 mov	 eax, OFFSET __ehfuncinfo$??1?$CDynamicPoolEx@VCTextureAnimationCWDecorator@NEffectUpdateDecorator@@@@UAE@XZ
  00018	e9 00 00 00 00	 jmp	 ___CxxFrameHandler3
text$x	ENDS
??1?$CDynamicPoolEx@VCTextureAnimationCWDecorator@NEffectUpdateDecorator@@@@UAE@XZ ENDP ; CDynamicPoolEx<NEffectUpdateDecorator::CTextureAnimationCWDecorator>::~CDynamicPoolEx<NEffectUpdateDecorator::CTextureAnimationCWDecorator>
; Function compile flags: /Odspy
; File D:\Metin2 Server Files\mainline\SRC_2014\Metin2Client\eterLib\Pool.h
; File C:\Program Files (x86)\Microsoft Visual Studio\2019\Community\VC\Tools\MSVC\14.28.29333\include\vector
; File C:\Program Files (x86)\Microsoft Visual Studio\2019\Community\VC\Tools\MSVC\14.28.29333\include\xmemory
; File C:\Program Files (x86)\Microsoft Visual Studio\2019\Community\VC\Tools\MSVC\14.28.29333\include\vector
; File D:\Metin2 Server Files\mainline\SRC_2014\Metin2Client\eterLib\Pool.h
; File C:\Program Files (x86)\Microsoft Visual Studio\2019\Community\VC\Tools\MSVC\14.28.29333\include\vector
; File C:\Program Files (x86)\Microsoft Visual Studio\2019\Community\VC\Tools\MSVC\14.28.29333\include\xmemory
; File C:\Program Files (x86)\Microsoft Visual Studio\2019\Community\VC\Tools\MSVC\14.28.29333\include\vector
; File D:\Metin2 Server Files\mainline\SRC_2014\Metin2Client\eterLib\Pool.h
;	COMDAT ??0?$CDynamicPoolEx@VCTextureAnimationCWDecorator@NEffectUpdateDecorator@@@@QAE@XZ
_TEXT	SEGMENT
_this$ = -28						; size = 4
_this$ = -24						; size = 4
_this$ = -20						; size = 4
_this$ = -16						; size = 4
_this$1 = -12						; size = 4
_this$2 = -8						; size = 4
_this$ = -4						; size = 4
??0?$CDynamicPoolEx@VCTextureAnimationCWDecorator@NEffectUpdateDecorator@@@@QAE@XZ PROC ; CDynamicPoolEx<NEffectUpdateDecorator::CTextureAnimationCWDecorator>::CDynamicPoolEx<NEffectUpdateDecorator::CTextureAnimationCWDecorator>, COMDAT
; _this$ = ecx

; 126  : 		CDynamicPoolEx()

  00000	55		 push	 ebp
  00001	8b ec		 mov	 ebp, esp
  00003	83 ec 1c	 sub	 esp, 28			; 0000001cH
  00006	89 4d fc	 mov	 DWORD PTR _this$[ebp], ecx

; 127  : 		{

  00009	8b 45 fc	 mov	 eax, DWORD PTR _this$[ebp]
  0000c	c7 00 00 00 00
	00		 mov	 DWORD PTR [eax], OFFSET ??_7?$CDynamicPoolEx@VCTextureAnimationCWDecorator@NEffectUpdateDecorator@@@@6B@
  00012	8b 45 fc	 mov	 eax, DWORD PTR _this$[ebp]
  00015	83 c0 04	 add	 eax, 4
  00018	89 45 f0	 mov	 DWORD PTR _this$[ebp], eax
; File C:\Program Files (x86)\Microsoft Visual Studio\2019\Community\VC\Tools\MSVC\14.28.29333\include\vector

; 445  :     vector() noexcept(is_nothrow_default_constructible_v<_Alty>) : _Mypair(_Zero_then_variadic_args_t{}) {

  0001b	8b 45 f0	 mov	 eax, DWORD PTR _this$[ebp]
  0001e	89 45 ec	 mov	 DWORD PTR _this$[ebp], eax
; File C:\Program Files (x86)\Microsoft Visual Studio\2019\Community\VC\Tools\MSVC\14.28.29333\include\xmemory

; 1339 :         : _Ty1(), _Myval2(_STD forward<_Other2>(_Val2)...) {}

  00021	8b 45 ec	 mov	 eax, DWORD PTR _this$[ebp]
  00024	89 45 f8	 mov	 DWORD PTR _this$2[ebp], eax
; File C:\Program Files (x86)\Microsoft Visual Studio\2019\Community\VC\Tools\MSVC\14.28.29333\include\vector

; 375  :     _Vector_val() noexcept : _Myfirst(), _Mylast(), _Myend() {}

  00027	8b 45 f8	 mov	 eax, DWORD PTR _this$2[ebp]
  0002a	83 20 00	 and	 DWORD PTR [eax], 0
  0002d	8b 45 f8	 mov	 eax, DWORD PTR _this$2[ebp]
  00030	83 60 04 00	 and	 DWORD PTR [eax+4], 0
  00034	8b 45 f8	 mov	 eax, DWORD PTR _this$2[ebp]
  00037	83 60 08 00	 and	 DWORD PTR [eax+8], 0
; File D:\Metin2 Server Files\mainline\SRC_2014\Metin2Client\eterLib\Pool.h

; 127  : 		{

  0003b	8b 45 fc	 mov	 eax, DWORD PTR _this$[ebp]
  0003e	83 c0 10	 add	 eax, 16			; 00000010H
  00041	89 45 e8	 mov	 DWORD PTR _this$[ebp], eax
; File C:\Program Files (x86)\Microsoft Visual Studio\2019\Community\VC\Tools\MSVC\14.28.29333\include\vector

; 445  :     vector() noexcept(is_nothrow_default_constructible_v<_Alty>) : _Mypair(_Zero_then_variadic_args_t{}) {

  00044	8b 45 e8	 mov	 eax, DWORD PTR _this$[ebp]
  00047	89 45 e4	 mov	 DWORD PTR _this$[ebp], eax
; File C:\Program Files (x86)\Microsoft Visual Studio\2019\Community\VC\Tools\MSVC\14.28.29333\include\xmemory

; 1339 :         : _Ty1(), _Myval2(_STD forward<_Other2>(_Val2)...) {}

  0004a	8b 45 e4	 mov	 eax, DWORD PTR _this$[ebp]
  0004d	89 45 f4	 mov	 DWORD PTR _this$1[ebp], eax
; File C:\Program Files (x86)\Microsoft Visual Studio\2019\Community\VC\Tools\MSVC\14.28.29333\include\vector

; 375  :     _Vector_val() noexcept : _Myfirst(), _Mylast(), _Myend() {}

  00050	8b 45 f4	 mov	 eax, DWORD PTR _this$1[ebp]
  00053	83 20 00	 and	 DWORD PTR [eax], 0
  00056	8b 45 f4	 mov	 eax, DWORD PTR _this$1[ebp]
  00059	83 60 04 00	 and	 DWORD PTR [eax+4], 0
  0005d	8b 45 f4	 mov	 eax, DWORD PTR _this$1[ebp]
  00060	83 60 08 00	 and	 DWORD PTR [eax+8], 0
; File D:\Metin2 Server Files\mainline\SRC_2014\Metin2Client\eterLib\Pool.h

; 128  : 			m_uInitCapacity=0;

  00064	8b 45 fc	 mov	 eax, DWORD PTR _this$[ebp]
  00067	83 60 1c 00	 and	 DWORD PTR [eax+28], 0

; 129  : 			m_uUsedCapacity=0;

  0006b	8b 45 fc	 mov	 eax, DWORD PTR _this$[ebp]
  0006e	83 60 20 00	 and	 DWORD PTR [eax+32], 0

; 130  : 		}

  00072	8b 45 fc	 mov	 eax, DWORD PTR _this$[ebp]
  00075	c9		 leave
  00076	c3		 ret	 0
??0?$CDynamicPoolEx@VCTextureAnimationCWDecorator@NEffectUpdateDecorator@@@@QAE@XZ ENDP ; CDynamicPoolEx<NEffectUpdateDecorator::CTextureAnimationCWDecorator>::CDynamicPoolEx<NEffectUpdateDecorator::CTextureAnimationCWDecorator>
_TEXT	ENDS
; Function compile flags: /Odspy
;	COMDAT ??_G?$CDynamicPoolEx@VCTextureAnimationCCWDecorator@NEffectUpdateDecorator@@@@UAEPAXI@Z
_TEXT	SEGMENT
_this$ = -4						; size = 4
___flags$ = 8						; size = 4
??_G?$CDynamicPoolEx@VCTextureAnimationCCWDecorator@NEffectUpdateDecorator@@@@UAEPAXI@Z PROC ; CDynamicPoolEx<NEffectUpdateDecorator::CTextureAnimationCCWDecorator>::`scalar deleting destructor', COMDAT
; _this$ = ecx
  00000	55		 push	 ebp
  00001	8b ec		 mov	 ebp, esp
  00003	51		 push	 ecx
  00004	89 4d fc	 mov	 DWORD PTR _this$[ebp], ecx
  00007	8b 4d fc	 mov	 ecx, DWORD PTR _this$[ebp]
  0000a	e8 00 00 00 00	 call	 ??1?$CDynamicPoolEx@VCTextureAnimationCCWDecorator@NEffectUpdateDecorator@@@@UAE@XZ ; CDynamicPoolEx<NEffectUpdateDecorator::CTextureAnimationCCWDecorator>::~CDynamicPoolEx<NEffectUpdateDecorator::CTextureAnimationCCWDecorator>
  0000f	8b 45 08	 mov	 eax, DWORD PTR ___flags$[ebp]
  00012	83 e0 01	 and	 eax, 1
  00015	74 0c		 je	 SHORT $LN2@scalar
  00017	6a 24		 push	 36			; 00000024H
  00019	ff 75 fc	 push	 DWORD PTR _this$[ebp]
  0001c	e8 00 00 00 00	 call	 ??3@YAXPAXI@Z		; operator delete
  00021	59		 pop	 ecx
  00022	59		 pop	 ecx
$LN2@scalar:
  00023	8b 45 fc	 mov	 eax, DWORD PTR _this$[ebp]
  00026	c9		 leave
  00027	c2 04 00	 ret	 4
??_G?$CDynamicPoolEx@VCTextureAnimationCCWDecorator@NEffectUpdateDecorator@@@@UAEPAXI@Z ENDP ; CDynamicPoolEx<NEffectUpdateDecorator::CTextureAnimationCCWDecorator>::`scalar deleting destructor'
_TEXT	ENDS
; Function compile flags: /Odspy
; File C:\Program Files (x86)\Microsoft Visual Studio\2019\Community\VC\Tools\MSVC\14.28.29333\include\vector
; File C:\Program Files (x86)\Microsoft Visual Studio\2019\Community\VC\Tools\MSVC\14.28.29333\include\xmemory
; File C:\Program Files (x86)\Microsoft Visual Studio\2019\Community\VC\Tools\MSVC\14.28.29333\include\vector
; File C:\Program Files (x86)\Microsoft Visual Studio\2019\Community\VC\Tools\MSVC\14.28.29333\include\xmemory
; File C:\Program Files (x86)\Microsoft Visual Studio\2019\Community\VC\Tools\MSVC\14.28.29333\include\vector
; File C:\Program Files (x86)\Microsoft Visual Studio\2019\Community\VC\Tools\MSVC\14.28.29333\include\xmemory
; File C:\Program Files (x86)\Microsoft Visual Studio\2019\Community\VC\Tools\MSVC\14.28.29333\include\vector
;	COMDAT ?_Tidy@?$vector@PAVCTextureAnimationCCWDecorator@NEffectUpdateDecorator@@V?$allocator@PAVCTextureAnimationCCWDecorator@NEffectUpdateDecorator@@@std@@@std@@AAEXXZ
_TEXT	SEGMENT
$T1 = -52						; size = 4
__Ptr$ = -48						; size = 4
__Count$ = -44						; size = 4
$T2 = -40						; size = 4
__First$ = -36						; size = 4
__Last$ = -32						; size = 4
$T3 = -28						; size = 4
$T4 = -24						; size = 4
__Myend$ = -20						; size = 4
__Mylast$ = -16						; size = 4
_this$ = -12						; size = 4
__My_data$ = -8						; size = 4
__Myfirst$ = -4						; size = 4
?_Tidy@?$vector@PAVCTextureAnimationCCWDecorator@NEffectUpdateDecorator@@V?$allocator@PAVCTextureAnimationCCWDecorator@NEffectUpdateDecorator@@@std@@@std@@AAEXXZ PROC ; std::vector<NEffectUpdateDecorator::CTextureAnimationCCWDecorator *,std::allocator<NEffectUpdateDecorator::CTextureAnimationCCWDecorator *> >::_Tidy, COMDAT
; _this$ = ecx

; 1686 :     void _Tidy() noexcept { // free all storage

  00000	55		 push	 ebp
  00001	8b ec		 mov	 ebp, esp
  00003	83 ec 34	 sub	 esp, 52			; 00000034H
  00006	89 4d f4	 mov	 DWORD PTR _this$[ebp], ecx

; 1687 :         auto& _My_data    = _Mypair._Myval2;

  00009	8b 45 f4	 mov	 eax, DWORD PTR _this$[ebp]
  0000c	89 45 f8	 mov	 DWORD PTR __My_data$[ebp], eax

; 1688 :         pointer& _Myfirst = _My_data._Myfirst;

  0000f	8b 45 f8	 mov	 eax, DWORD PTR __My_data$[ebp]
  00012	89 45 fc	 mov	 DWORD PTR __Myfirst$[ebp], eax

; 1689 :         pointer& _Mylast  = _My_data._Mylast;

  00015	8b 45 f8	 mov	 eax, DWORD PTR __My_data$[ebp]
  00018	83 c0 04	 add	 eax, 4
  0001b	89 45 f0	 mov	 DWORD PTR __Mylast$[ebp], eax

; 1690 :         pointer& _Myend   = _My_data._Myend;

  0001e	8b 45 f8	 mov	 eax, DWORD PTR __My_data$[ebp]
  00021	83 c0 08	 add	 eax, 8
  00024	89 45 ec	 mov	 DWORD PTR __Myend$[ebp], eax

; 1691 : 
; 1692 :         _My_data._Orphan_all();
; 1693 : 
; 1694 :         if (_Myfirst) { // destroy and deallocate old array

  00027	8b 45 fc	 mov	 eax, DWORD PTR __Myfirst$[ebp]
  0002a	83 38 00	 cmp	 DWORD PTR [eax], 0
  0002d	74 74		 je	 SHORT $LN3@Tidy

; 1695 :             _Destroy(_Myfirst, _Mylast);

  0002f	8b 45 f0	 mov	 eax, DWORD PTR __Mylast$[ebp]
  00032	8b 00		 mov	 eax, DWORD PTR [eax]
  00034	89 45 e0	 mov	 DWORD PTR __Last$[ebp], eax
  00037	8b 45 fc	 mov	 eax, DWORD PTR __Myfirst$[ebp]
  0003a	8b 00		 mov	 eax, DWORD PTR [eax]
  0003c	89 45 dc	 mov	 DWORD PTR __First$[ebp], eax

; 1733 :         return _Mypair._Get_first();

  0003f	8b 45 f4	 mov	 eax, DWORD PTR _this$[ebp]
; File C:\Program Files (x86)\Microsoft Visual Studio\2019\Community\VC\Tools\MSVC\14.28.29333\include\xmemory

; 1347 :         return *this;

  00042	89 45 e8	 mov	 DWORD PTR $T4[ebp], eax
; File C:\Program Files (x86)\Microsoft Visual Studio\2019\Community\VC\Tools\MSVC\14.28.29333\include\vector

; 1733 :         return _Mypair._Get_first();

  00045	8b 45 e8	 mov	 eax, DWORD PTR $T4[ebp]
  00048	89 45 e4	 mov	 DWORD PTR $T3[ebp], eax

; 1612 :         _Destroy_range(_First, _Last, _Getal());

  0004b	ff 75 e4	 push	 DWORD PTR $T3[ebp]
  0004e	ff 75 e0	 push	 DWORD PTR __Last$[ebp]
  00051	ff 75 dc	 push	 DWORD PTR __First$[ebp]
  00054	e8 00 00 00 00	 call	 ??$_Destroy_range@V?$allocator@PAVCTextureAnimationCCWDecorator@NEffectUpdateDecorator@@@std@@@std@@YAXPAPAVCTextureAnimationCCWDecorator@NEffectUpdateDecorator@@QAPAV12@AAV?$allocator@PAVCTextureAnimationCCWDecorator@NEffectUpdateDecorator@@@0@@Z ; std::_Destroy_range<std::allocator<NEffectUpdateDecorator::CTextureAnimationCCWDecorator *> >
  00059	83 c4 0c	 add	 esp, 12			; 0000000cH

; 1733 :         return _Mypair._Get_first();

  0005c	8b 45 f4	 mov	 eax, DWORD PTR _this$[ebp]
; File C:\Program Files (x86)\Microsoft Visual Studio\2019\Community\VC\Tools\MSVC\14.28.29333\include\xmemory

; 1347 :         return *this;

  0005f	89 45 d8	 mov	 DWORD PTR $T2[ebp], eax
; File C:\Program Files (x86)\Microsoft Visual Studio\2019\Community\VC\Tools\MSVC\14.28.29333\include\vector

; 1733 :         return _Mypair._Get_first();

  00062	8b 45 d8	 mov	 eax, DWORD PTR $T2[ebp]
  00065	89 45 cc	 mov	 DWORD PTR $T1[ebp], eax

; 1696 :             _Getal().deallocate(_Myfirst, static_cast<size_type>(_Myend - _Myfirst));

  00068	8b 45 ec	 mov	 eax, DWORD PTR __Myend$[ebp]
  0006b	8b 4d fc	 mov	 ecx, DWORD PTR __Myfirst$[ebp]
  0006e	8b 00		 mov	 eax, DWORD PTR [eax]
  00070	2b 01		 sub	 eax, DWORD PTR [ecx]
  00072	c1 f8 02	 sar	 eax, 2
  00075	89 45 d4	 mov	 DWORD PTR __Count$[ebp], eax
  00078	8b 45 fc	 mov	 eax, DWORD PTR __Myfirst$[ebp]
  0007b	8b 00		 mov	 eax, DWORD PTR [eax]
  0007d	89 45 d0	 mov	 DWORD PTR __Ptr$[ebp], eax
; File C:\Program Files (x86)\Microsoft Visual Studio\2019\Community\VC\Tools\MSVC\14.28.29333\include\xmemory

; 810  :         _Deallocate<_New_alignof<_Ty>>(_Ptr, sizeof(_Ty) * _Count);

  00080	8b 45 d4	 mov	 eax, DWORD PTR __Count$[ebp]
  00083	c1 e0 02	 shl	 eax, 2
  00086	50		 push	 eax
  00087	ff 75 d0	 push	 DWORD PTR __Ptr$[ebp]
  0008a	e8 00 00 00 00	 call	 ??$_Deallocate@$07$0A@@std@@YAXPAXI@Z ; std::_Deallocate<8,0>
  0008f	59		 pop	 ecx
  00090	59		 pop	 ecx
; File C:\Program Files (x86)\Microsoft Visual Studio\2019\Community\VC\Tools\MSVC\14.28.29333\include\vector

; 1698 :             _Myfirst = pointer();

  00091	8b 45 fc	 mov	 eax, DWORD PTR __Myfirst$[ebp]
  00094	83 20 00	 and	 DWORD PTR [eax], 0

; 1699 :             _Mylast  = pointer();

  00097	8b 45 f0	 mov	 eax, DWORD PTR __Mylast$[ebp]
  0009a	83 20 00	 and	 DWORD PTR [eax], 0

; 1700 :             _Myend   = pointer();

  0009d	8b 45 ec	 mov	 eax, DWORD PTR __Myend$[ebp]
  000a0	83 20 00	 and	 DWORD PTR [eax], 0
$LN3@Tidy:

; 1701 :         }
; 1702 :     }

  000a3	c9		 leave
  000a4	c3		 ret	 0
?_Tidy@?$vector@PAVCTextureAnimationCCWDecorator@NEffectUpdateDecorator@@V?$allocator@PAVCTextureAnimationCCWDecorator@NEffectUpdateDecorator@@@std@@@std@@AAEXXZ ENDP ; std::vector<NEffectUpdateDecorator::CTextureAnimationCCWDecorator *,std::allocator<NEffectUpdateDecorator::CTextureAnimationCCWDecorator *> >::_Tidy
_TEXT	ENDS
; Function compile flags: /Odspy
; File C:\Program Files (x86)\Microsoft Visual Studio\2019\Community\VC\Tools\MSVC\14.28.29333\include\vector
; File C:\Program Files (x86)\Microsoft Visual Studio\2019\Community\VC\Tools\MSVC\14.28.29333\include\xmemory
; File C:\Program Files (x86)\Microsoft Visual Studio\2019\Community\VC\Tools\MSVC\14.28.29333\include\vector
;	COMDAT ?clear@?$vector@PAVCTextureAnimationCCWDecorator@NEffectUpdateDecorator@@V?$allocator@PAVCTextureAnimationCCWDecorator@NEffectUpdateDecorator@@@std@@@std@@QAEXXZ
_TEXT	SEGMENT
__First$ = -32						; size = 4
__Last$ = -28						; size = 4
$T1 = -24						; size = 4
$T2 = -20						; size = 4
__Myfirst$ = -16					; size = 4
__Mylast$ = -12						; size = 4
_this$ = -8						; size = 4
__My_data$ = -4						; size = 4
?clear@?$vector@PAVCTextureAnimationCCWDecorator@NEffectUpdateDecorator@@V?$allocator@PAVCTextureAnimationCCWDecorator@NEffectUpdateDecorator@@@std@@@std@@QAEXXZ PROC ; std::vector<NEffectUpdateDecorator::CTextureAnimationCCWDecorator *,std::allocator<NEffectUpdateDecorator::CTextureAnimationCCWDecorator *> >::clear, COMDAT
; _this$ = ecx

; 1383 :     void clear() noexcept { // erase all

  00000	55		 push	 ebp
  00001	8b ec		 mov	 ebp, esp
  00003	83 ec 20	 sub	 esp, 32			; 00000020H
  00006	89 4d f8	 mov	 DWORD PTR _this$[ebp], ecx

; 1384 :         auto& _My_data    = _Mypair._Myval2;

  00009	8b 45 f8	 mov	 eax, DWORD PTR _this$[ebp]
  0000c	89 45 fc	 mov	 DWORD PTR __My_data$[ebp], eax

; 1385 :         pointer& _Myfirst = _My_data._Myfirst;

  0000f	8b 45 fc	 mov	 eax, DWORD PTR __My_data$[ebp]
  00012	89 45 f0	 mov	 DWORD PTR __Myfirst$[ebp], eax

; 1386 :         pointer& _Mylast  = _My_data._Mylast;

  00015	8b 45 fc	 mov	 eax, DWORD PTR __My_data$[ebp]
  00018	83 c0 04	 add	 eax, 4
  0001b	89 45 f4	 mov	 DWORD PTR __Mylast$[ebp], eax

; 1387 : 
; 1388 :         _My_data._Orphan_all();
; 1389 :         _Destroy(_Myfirst, _Mylast);

  0001e	8b 45 f4	 mov	 eax, DWORD PTR __Mylast$[ebp]
  00021	8b 00		 mov	 eax, DWORD PTR [eax]
  00023	89 45 e4	 mov	 DWORD PTR __Last$[ebp], eax
  00026	8b 45 f0	 mov	 eax, DWORD PTR __Myfirst$[ebp]
  00029	8b 00		 mov	 eax, DWORD PTR [eax]
  0002b	89 45 e0	 mov	 DWORD PTR __First$[ebp], eax

; 1733 :         return _Mypair._Get_first();

  0002e	8b 45 f8	 mov	 eax, DWORD PTR _this$[ebp]
; File C:\Program Files (x86)\Microsoft Visual Studio\2019\Community\VC\Tools\MSVC\14.28.29333\include\xmemory

; 1347 :         return *this;

  00031	89 45 ec	 mov	 DWORD PTR $T2[ebp], eax
; File C:\Program Files (x86)\Microsoft Visual Studio\2019\Community\VC\Tools\MSVC\14.28.29333\include\vector

; 1733 :         return _Mypair._Get_first();

  00034	8b 45 ec	 mov	 eax, DWORD PTR $T2[ebp]
  00037	89 45 e8	 mov	 DWORD PTR $T1[ebp], eax

; 1612 :         _Destroy_range(_First, _Last, _Getal());

  0003a	ff 75 e8	 push	 DWORD PTR $T1[ebp]
  0003d	ff 75 e4	 push	 DWORD PTR __Last$[ebp]
  00040	ff 75 e0	 push	 DWORD PTR __First$[ebp]
  00043	e8 00 00 00 00	 call	 ??$_Destroy_range@V?$allocator@PAVCTextureAnimationCCWDecorator@NEffectUpdateDecorator@@@std@@@std@@YAXPAPAVCTextureAnimationCCWDecorator@NEffectUpdateDecorator@@QAPAV12@AAV?$allocator@PAVCTextureAnimationCCWDecorator@NEffectUpdateDecorator@@@0@@Z ; std::_Destroy_range<std::allocator<NEffectUpdateDecorator::CTextureAnimationCCWDecorator *> >
  00048	83 c4 0c	 add	 esp, 12			; 0000000cH

; 1390 :         _Mylast = _Myfirst;

  0004b	8b 45 f4	 mov	 eax, DWORD PTR __Mylast$[ebp]
  0004e	8b 4d f0	 mov	 ecx, DWORD PTR __Myfirst$[ebp]
  00051	8b 09		 mov	 ecx, DWORD PTR [ecx]
  00053	89 08		 mov	 DWORD PTR [eax], ecx

; 1391 :     }

  00055	c9		 leave
  00056	c3		 ret	 0
?clear@?$vector@PAVCTextureAnimationCCWDecorator@NEffectUpdateDecorator@@V?$allocator@PAVCTextureAnimationCCWDecorator@NEffectUpdateDecorator@@@std@@@std@@QAEXXZ ENDP ; std::vector<NEffectUpdateDecorator::CTextureAnimationCCWDecorator *,std::allocator<NEffectUpdateDecorator::CTextureAnimationCCWDecorator *> >::clear
_TEXT	ENDS
; Function compile flags: /Odspy
; File D:\Metin2 Server Files\mainline\SRC_2014\Metin2Client\eterLib\Pool.h
;	COMDAT ?Delete@?$CDynamicPoolEx@VCTextureAnimationCCWDecorator@NEffectUpdateDecorator@@@@KAXPAVCTextureAnimationCCWDecorator@NEffectUpdateDecorator@@@Z
_TEXT	SEGMENT
_pkData$ = 8						; size = 4
?Delete@?$CDynamicPoolEx@VCTextureAnimationCCWDecorator@NEffectUpdateDecorator@@@@KAXPAVCTextureAnimationCCWDecorator@NEffectUpdateDecorator@@@Z PROC ; CDynamicPoolEx<NEffectUpdateDecorator::CTextureAnimationCCWDecorator>::Delete, COMDAT

; 223  : 		{

  00000	55		 push	 ebp
  00001	8b ec		 mov	 ebp, esp

; 224  : 			::operator delete(pkData);

  00003	ff 75 08	 push	 DWORD PTR _pkData$[ebp]
  00006	e8 00 00 00 00	 call	 ??3@YAXPAX@Z		; operator delete
  0000b	59		 pop	 ecx

; 225  : 		}

  0000c	5d		 pop	 ebp
  0000d	c3		 ret	 0
?Delete@?$CDynamicPoolEx@VCTextureAnimationCCWDecorator@NEffectUpdateDecorator@@@@KAXPAVCTextureAnimationCCWDecorator@NEffectUpdateDecorator@@@Z ENDP ; CDynamicPoolEx<NEffectUpdateDecorator::CTextureAnimationCCWDecorator>::Delete
_TEXT	ENDS
; Function compile flags: /Odspy
; File D:\Metin2 Server Files\mainline\SRC_2014\Metin2Client\eterLib\Pool.h
; File C:\Program Files (x86)\Microsoft Visual Studio\2019\Community\VC\Tools\MSVC\14.28.29333\include\vector
; File C:\Program Files (x86)\Microsoft Visual Studio\2019\Community\VC\Tools\MSVC\14.28.29333\include\xstddef
; File C:\Program Files (x86)\Microsoft Visual Studio\2019\Community\VC\Tools\MSVC\14.28.29333\include\vector
; File C:\Program Files (x86)\Microsoft Visual Studio\2019\Community\VC\Tools\MSVC\14.28.29333\include\xstddef
; File C:\Program Files (x86)\Microsoft Visual Studio\2019\Community\VC\Tools\MSVC\14.28.29333\include\vector
; File D:\Metin2 Server Files\mainline\SRC_2014\Metin2Client\eterLib\Pool.h
;	COMDAT ?Destroy@?$CDynamicPoolEx@VCTextureAnimationCCWDecorator@NEffectUpdateDecorator@@@@QAEXXZ
_TEXT	SEGMENT
$T1 = -44						; size = 4
$T2 = -40						; size = 4
$T3 = -36						; size = 4
$T4 = -32						; size = 4
$T5 = -28						; size = 4
___param0$ = -24					; size = 4
$T6 = -20						; size = 4
___param0$ = -16					; size = 4
__My_data$7 = -12					; size = 4
__My_data$8 = -8					; size = 4
_this$ = -4						; size = 4
?Destroy@?$CDynamicPoolEx@VCTextureAnimationCCWDecorator@NEffectUpdateDecorator@@@@QAEXXZ PROC ; CDynamicPoolEx<NEffectUpdateDecorator::CTextureAnimationCCWDecorator>::Destroy, COMDAT
; _this$ = ecx

; 150  : 		{

  00000	55		 push	 ebp
  00001	8b ec		 mov	 ebp, esp
  00003	83 ec 2c	 sub	 esp, 44			; 0000002cH
  00006	89 4d fc	 mov	 DWORD PTR _this$[ebp], ecx
; File C:\Program Files (x86)\Microsoft Visual Studio\2019\Community\VC\Tools\MSVC\14.28.29333\include\vector

; 1420 :         auto& _My_data = _Mypair._Myval2;

  00009	8b 45 fc	 mov	 eax, DWORD PTR _this$[ebp]
  0000c	83 c0 04	 add	 eax, 4
  0000f	89 45 f8	 mov	 DWORD PTR __My_data$8[ebp], eax
; File C:\Program Files (x86)\Microsoft Visual Studio\2019\Community\VC\Tools\MSVC\14.28.29333\include\xstddef

; 275  :     return __builtin_addressof(_Val);

  00012	8b 45 f8	 mov	 eax, DWORD PTR __My_data$8[ebp]
  00015	89 45 d8	 mov	 DWORD PTR $T2[ebp], eax
; File C:\Program Files (x86)\Microsoft Visual Studio\2019\Community\VC\Tools\MSVC\14.28.29333\include\vector

; 1421 :         return iterator(_My_data._Mylast, _STD addressof(_My_data));

  00018	8b 45 f8	 mov	 eax, DWORD PTR __My_data$8[ebp]
  0001b	8b 40 04	 mov	 eax, DWORD PTR [eax+4]
  0001e	89 45 f0	 mov	 DWORD PTR ___param0$[ebp], eax

; 42   :     _Vector_const_iterator(_Tptr _Parg, const _Container_base* _Pvector) noexcept : _Ptr(_Parg) {

  00021	8b 45 f0	 mov	 eax, DWORD PTR ___param0$[ebp]
  00024	89 45 ec	 mov	 DWORD PTR $T6[ebp], eax

; 1421 :         return iterator(_My_data._Mylast, _STD addressof(_My_data));

  00027	8d 45 ec	 lea	 eax, DWORD PTR $T6[ebp]
  0002a	89 45 e0	 mov	 DWORD PTR $T4[ebp], eax

; 1410 :         auto& _My_data = _Mypair._Myval2;

  0002d	8b 45 fc	 mov	 eax, DWORD PTR _this$[ebp]
  00030	83 c0 04	 add	 eax, 4
  00033	89 45 f4	 mov	 DWORD PTR __My_data$7[ebp], eax
; File C:\Program Files (x86)\Microsoft Visual Studio\2019\Community\VC\Tools\MSVC\14.28.29333\include\xstddef

; 275  :     return __builtin_addressof(_Val);

  00036	8b 45 f4	 mov	 eax, DWORD PTR __My_data$7[ebp]
  00039	89 45 d4	 mov	 DWORD PTR $T1[ebp], eax
; File C:\Program Files (x86)\Microsoft Visual Studio\2019\Community\VC\Tools\MSVC\14.28.29333\include\vector

; 1411 :         return iterator(_My_data._Myfirst, _STD addressof(_My_data));

  0003c	8b 45 f4	 mov	 eax, DWORD PTR __My_data$7[ebp]
  0003f	8b 00		 mov	 eax, DWORD PTR [eax]
  00041	89 45 e8	 mov	 DWORD PTR ___param0$[ebp], eax

; 42   :     _Vector_const_iterator(_Tptr _Parg, const _Container_base* _Pvector) noexcept : _Ptr(_Parg) {

  00044	8b 45 e8	 mov	 eax, DWORD PTR ___param0$[ebp]
  00047	89 45 e4	 mov	 DWORD PTR $T5[ebp], eax

; 1411 :         return iterator(_My_data._Myfirst, _STD addressof(_My_data));

  0004a	8d 45 e4	 lea	 eax, DWORD PTR $T5[ebp]
  0004d	89 45 dc	 mov	 DWORD PTR $T3[ebp], eax
; File D:\Metin2 Server Files\mainline\SRC_2014\Metin2Client\eterLib\Pool.h

; 160  : 			std::for_each(m_kVct_pkData.begin(), m_kVct_pkData.end(), Delete);

  00050	68 00 00 00 00	 push	 OFFSET ?Delete@?$CDynamicPoolEx@VCTextureAnimationCCWDecorator@NEffectUpdateDecorator@@@@KAXPAVCTextureAnimationCCWDecorator@NEffectUpdateDecorator@@@Z ; CDynamicPoolEx<NEffectUpdateDecorator::CTextureAnimationCCWDecorator>::Delete
  00055	8b 45 e0	 mov	 eax, DWORD PTR $T4[ebp]
  00058	ff 30		 push	 DWORD PTR [eax]
  0005a	8b 45 dc	 mov	 eax, DWORD PTR $T3[ebp]
  0005d	ff 30		 push	 DWORD PTR [eax]
  0005f	e8 00 00 00 00	 call	 ??$for_each@V?$_Vector_iterator@V?$_Vector_val@U?$_Simple_types@PAVCTextureAnimationCCWDecorator@NEffectUpdateDecorator@@@std@@@std@@@std@@P6AXPAVCTextureAnimationCCWDecorator@NEffectUpdateDecorator@@@Z@std@@YAP6AXPAVCTextureAnimationCCWDecorator@NEffectUpdateDecorator@@@ZV?$_Vector_iterator@V?$_Vector_val@U?$_Simple_types@PAVCTextureAnimationCCWDecorator@NEffectUpdateDecorator@@@std@@@std@@@0@1P6AX0@Z@Z ; std::for_each<std::_Vector_iterator<std::_Vector_val<std::_Simple_types<NEffectUpdateDecorator::CTextureAnimationCCWDecorator *> > >,void (__cdecl*)(NEffectUpdateDecorator::CTextureAnimationCCWDecorator *)>
  00064	83 c4 0c	 add	 esp, 12			; 0000000cH

; 161  : 			m_kVct_pkData.clear();

  00067	8b 4d fc	 mov	 ecx, DWORD PTR _this$[ebp]
  0006a	83 c1 04	 add	 ecx, 4
  0006d	e8 00 00 00 00	 call	 ?clear@?$vector@PAVCTextureAnimationCCWDecorator@NEffectUpdateDecorator@@V?$allocator@PAVCTextureAnimationCCWDecorator@NEffectUpdateDecorator@@@std@@@std@@QAEXXZ ; std::vector<NEffectUpdateDecorator::CTextureAnimationCCWDecorator *,std::allocator<NEffectUpdateDecorator::CTextureAnimationCCWDecorator *> >::clear

; 162  : 			m_kVct_pkFree.clear();

  00072	8b 4d fc	 mov	 ecx, DWORD PTR _this$[ebp]
  00075	83 c1 10	 add	 ecx, 16			; 00000010H
  00078	e8 00 00 00 00	 call	 ?clear@?$vector@PAVCTextureAnimationCCWDecorator@NEffectUpdateDecorator@@V?$allocator@PAVCTextureAnimationCCWDecorator@NEffectUpdateDecorator@@@std@@@std@@QAEXXZ ; std::vector<NEffectUpdateDecorator::CTextureAnimationCCWDecorator *,std::allocator<NEffectUpdateDecorator::CTextureAnimationCCWDecorator *> >::clear

; 163  : 		}

  0007d	c9		 leave
  0007e	c3		 ret	 0
?Destroy@?$CDynamicPoolEx@VCTextureAnimationCCWDecorator@NEffectUpdateDecorator@@@@QAEXXZ ENDP ; CDynamicPoolEx<NEffectUpdateDecorator::CTextureAnimationCCWDecorator>::Destroy
_TEXT	ENDS
; Function compile flags: /Odspy
; File D:\Metin2 Server Files\mainline\SRC_2014\Metin2Client\eterLib\Pool.h
; File C:\Program Files (x86)\Microsoft Visual Studio\2019\Community\VC\Tools\MSVC\14.28.29333\include\vector
; File D:\Metin2 Server Files\mainline\SRC_2014\Metin2Client\eterLib\Pool.h
; File C:\Program Files (x86)\Microsoft Visual Studio\2019\Community\VC\Tools\MSVC\14.28.29333\include\vector
; File D:\Metin2 Server Files\mainline\SRC_2014\Metin2Client\eterLib\Pool.h
;	COMDAT ??1?$CDynamicPoolEx@VCTextureAnimationCCWDecorator@NEffectUpdateDecorator@@@@UAE@XZ
_TEXT	SEGMENT
_this$ = -16						; size = 4
__$EHRec$ = -12						; size = 12
??1?$CDynamicPoolEx@VCTextureAnimationCCWDecorator@NEffectUpdateDecorator@@@@UAE@XZ PROC ; CDynamicPoolEx<NEffectUpdateDecorator::CTextureAnimationCCWDecorator>::~CDynamicPoolEx<NEffectUpdateDecorator::CTextureAnimationCCWDecorator>, COMDAT
; _this$ = ecx

; 132  : 		{

  00000	55		 push	 ebp
  00001	8b ec		 mov	 ebp, esp
  00003	6a ff		 push	 -1
  00005	68 00 00 00 00	 push	 __ehhandler$??1?$CDynamicPoolEx@VCTextureAnimationCCWDecorator@NEffectUpdateDecorator@@@@UAE@XZ
  0000a	64 a1 00 00 00
	00		 mov	 eax, DWORD PTR fs:0
  00010	50		 push	 eax
  00011	51		 push	 ecx
  00012	a1 00 00 00 00	 mov	 eax, DWORD PTR ___security_cookie
  00017	33 c5		 xor	 eax, ebp
  00019	50		 push	 eax
  0001a	8d 45 f4	 lea	 eax, DWORD PTR __$EHRec$[ebp]
  0001d	64 a3 00 00 00
	00		 mov	 DWORD PTR fs:0, eax
  00023	89 4d f0	 mov	 DWORD PTR _this$[ebp], ecx
  00026	8b 45 f0	 mov	 eax, DWORD PTR _this$[ebp]
  00029	c7 00 00 00 00
	00		 mov	 DWORD PTR [eax], OFFSET ??_7?$CDynamicPoolEx@VCTextureAnimationCCWDecorator@NEffectUpdateDecorator@@@@6B@

; 133  : 			assert(m_kVct_pkFree.size()==m_kVct_pkData.size());
; 134  : 			Destroy();

  0002f	8b 4d f0	 mov	 ecx, DWORD PTR _this$[ebp]
  00032	e8 00 00 00 00	 call	 ?Destroy@?$CDynamicPoolEx@VCTextureAnimationCCWDecorator@NEffectUpdateDecorator@@@@QAEXXZ ; CDynamicPoolEx<NEffectUpdateDecorator::CTextureAnimationCCWDecorator>::Destroy

; 142  : 		}

  00037	8b 4d f0	 mov	 ecx, DWORD PTR _this$[ebp]
  0003a	83 c1 10	 add	 ecx, 16			; 00000010H
; File C:\Program Files (x86)\Microsoft Visual Studio\2019\Community\VC\Tools\MSVC\14.28.29333\include\vector

; 673  :         _Tidy();

  0003d	e8 00 00 00 00	 call	 ?_Tidy@?$vector@PAVCTextureAnimationCCWDecorator@NEffectUpdateDecorator@@V?$allocator@PAVCTextureAnimationCCWDecorator@NEffectUpdateDecorator@@@std@@@std@@AAEXXZ ; std::vector<NEffectUpdateDecorator::CTextureAnimationCCWDecorator *,std::allocator<NEffectUpdateDecorator::CTextureAnimationCCWDecorator *> >::_Tidy
; File D:\Metin2 Server Files\mainline\SRC_2014\Metin2Client\eterLib\Pool.h

; 142  : 		}

  00042	8b 4d f0	 mov	 ecx, DWORD PTR _this$[ebp]
  00045	83 c1 04	 add	 ecx, 4
; File C:\Program Files (x86)\Microsoft Visual Studio\2019\Community\VC\Tools\MSVC\14.28.29333\include\vector

; 673  :         _Tidy();

  00048	e8 00 00 00 00	 call	 ?_Tidy@?$vector@PAVCTextureAnimationCCWDecorator@NEffectUpdateDecorator@@V?$allocator@PAVCTextureAnimationCCWDecorator@NEffectUpdateDecorator@@@std@@@std@@AAEXXZ ; std::vector<NEffectUpdateDecorator::CTextureAnimationCCWDecorator *,std::allocator<NEffectUpdateDecorator::CTextureAnimationCCWDecorator *> >::_Tidy
; File D:\Metin2 Server Files\mainline\SRC_2014\Metin2Client\eterLib\Pool.h

; 142  : 		}

  0004d	8b 4d f4	 mov	 ecx, DWORD PTR __$EHRec$[ebp]
  00050	64 89 0d 00 00
	00 00		 mov	 DWORD PTR fs:0, ecx
  00057	59		 pop	 ecx
  00058	c9		 leave
  00059	c3		 ret	 0
  0005a	cc		 int	 3
  0005b	cc		 int	 3
  0005c	cc		 int	 3
  0005d	cc		 int	 3
  0005e	cc		 int	 3
_TEXT	ENDS
;	COMDAT text$x
text$x	SEGMENT
__ehhandler$??1?$CDynamicPoolEx@VCTextureAnimationCCWDecorator@NEffectUpdateDecorator@@@@UAE@XZ:
  00000	90		 npad	 1
  00001	90		 npad	 1
  00002	8b 54 24 08	 mov	 edx, DWORD PTR [esp+8]
  00006	8d 42 0c	 lea	 eax, DWORD PTR [edx+12]
  00009	8b 4a f8	 mov	 ecx, DWORD PTR [edx-8]
  0000c	33 c8		 xor	 ecx, eax
  0000e	e8 00 00 00 00	 call	 @__security_check_cookie@4
  00013	b8 00 00 00 00	 mov	 eax, OFFSET __ehfuncinfo$??1?$CDynamicPoolEx@VCTextureAnimationCCWDecorator@NEffectUpdateDecorator@@@@UAE@XZ
  00018	e9 00 00 00 00	 jmp	 ___CxxFrameHandler3
text$x	ENDS
??1?$CDynamicPoolEx@VCTextureAnimationCCWDecorator@NEffectUpdateDecorator@@@@UAE@XZ ENDP ; CDynamicPoolEx<NEffectUpdateDecorator::CTextureAnimationCCWDecorator>::~CDynamicPoolEx<NEffectUpdateDecorator::CTextureAnimationCCWDecorator>
; Function compile flags: /Odspy
; File D:\Metin2 Server Files\mainline\SRC_2014\Metin2Client\eterLib\Pool.h
; File C:\Program Files (x86)\Microsoft Visual Studio\2019\Community\VC\Tools\MSVC\14.28.29333\include\vector
; File C:\Program Files (x86)\Microsoft Visual Studio\2019\Community\VC\Tools\MSVC\14.28.29333\include\xmemory
; File C:\Program Files (x86)\Microsoft Visual Studio\2019\Community\VC\Tools\MSVC\14.28.29333\include\vector
; File D:\Metin2 Server Files\mainline\SRC_2014\Metin2Client\eterLib\Pool.h
; File C:\Program Files (x86)\Microsoft Visual Studio\2019\Community\VC\Tools\MSVC\14.28.29333\include\vector
; File C:\Program Files (x86)\Microsoft Visual Studio\2019\Community\VC\Tools\MSVC\14.28.29333\include\xmemory
; File C:\Program Files (x86)\Microsoft Visual Studio\2019\Community\VC\Tools\MSVC\14.28.29333\include\vector
; File D:\Metin2 Server Files\mainline\SRC_2014\Metin2Client\eterLib\Pool.h
;	COMDAT ??0?$CDynamicPoolEx@VCTextureAnimationCCWDecorator@NEffectUpdateDecorator@@@@QAE@XZ
_TEXT	SEGMENT
_this$ = -28						; size = 4
_this$ = -24						; size = 4
_this$ = -20						; size = 4
_this$ = -16						; size = 4
_this$1 = -12						; size = 4
_this$2 = -8						; size = 4
_this$ = -4						; size = 4
??0?$CDynamicPoolEx@VCTextureAnimationCCWDecorator@NEffectUpdateDecorator@@@@QAE@XZ PROC ; CDynamicPoolEx<NEffectUpdateDecorator::CTextureAnimationCCWDecorator>::CDynamicPoolEx<NEffectUpdateDecorator::CTextureAnimationCCWDecorator>, COMDAT
; _this$ = ecx

; 126  : 		CDynamicPoolEx()

  00000	55		 push	 ebp
  00001	8b ec		 mov	 ebp, esp
  00003	83 ec 1c	 sub	 esp, 28			; 0000001cH
  00006	89 4d fc	 mov	 DWORD PTR _this$[ebp], ecx

; 127  : 		{

  00009	8b 45 fc	 mov	 eax, DWORD PTR _this$[ebp]
  0000c	c7 00 00 00 00
	00		 mov	 DWORD PTR [eax], OFFSET ??_7?$CDynamicPoolEx@VCTextureAnimationCCWDecorator@NEffectUpdateDecorator@@@@6B@
  00012	8b 45 fc	 mov	 eax, DWORD PTR _this$[ebp]
  00015	83 c0 04	 add	 eax, 4
  00018	89 45 f0	 mov	 DWORD PTR _this$[ebp], eax
; File C:\Program Files (x86)\Microsoft Visual Studio\2019\Community\VC\Tools\MSVC\14.28.29333\include\vector

; 445  :     vector() noexcept(is_nothrow_default_constructible_v<_Alty>) : _Mypair(_Zero_then_variadic_args_t{}) {

  0001b	8b 45 f0	 mov	 eax, DWORD PTR _this$[ebp]
  0001e	89 45 ec	 mov	 DWORD PTR _this$[ebp], eax
; File C:\Program Files (x86)\Microsoft Visual Studio\2019\Community\VC\Tools\MSVC\14.28.29333\include\xmemory

; 1339 :         : _Ty1(), _Myval2(_STD forward<_Other2>(_Val2)...) {}

  00021	8b 45 ec	 mov	 eax, DWORD PTR _this$[ebp]
  00024	89 45 f8	 mov	 DWORD PTR _this$2[ebp], eax
; File C:\Program Files (x86)\Microsoft Visual Studio\2019\Community\VC\Tools\MSVC\14.28.29333\include\vector

; 375  :     _Vector_val() noexcept : _Myfirst(), _Mylast(), _Myend() {}

  00027	8b 45 f8	 mov	 eax, DWORD PTR _this$2[ebp]
  0002a	83 20 00	 and	 DWORD PTR [eax], 0
  0002d	8b 45 f8	 mov	 eax, DWORD PTR _this$2[ebp]
  00030	83 60 04 00	 and	 DWORD PTR [eax+4], 0
  00034	8b 45 f8	 mov	 eax, DWORD PTR _this$2[ebp]
  00037	83 60 08 00	 and	 DWORD PTR [eax+8], 0
; File D:\Metin2 Server Files\mainline\SRC_2014\Metin2Client\eterLib\Pool.h

; 127  : 		{

  0003b	8b 45 fc	 mov	 eax, DWORD PTR _this$[ebp]
  0003e	83 c0 10	 add	 eax, 16			; 00000010H
  00041	89 45 e8	 mov	 DWORD PTR _this$[ebp], eax
; File C:\Program Files (x86)\Microsoft Visual Studio\2019\Community\VC\Tools\MSVC\14.28.29333\include\vector

; 445  :     vector() noexcept(is_nothrow_default_constructible_v<_Alty>) : _Mypair(_Zero_then_variadic_args_t{}) {

  00044	8b 45 e8	 mov	 eax, DWORD PTR _this$[ebp]
  00047	89 45 e4	 mov	 DWORD PTR _this$[ebp], eax
; File C:\Program Files (x86)\Microsoft Visual Studio\2019\Community\VC\Tools\MSVC\14.28.29333\include\xmemory

; 1339 :         : _Ty1(), _Myval2(_STD forward<_Other2>(_Val2)...) {}

  0004a	8b 45 e4	 mov	 eax, DWORD PTR _this$[ebp]
  0004d	89 45 f4	 mov	 DWORD PTR _this$1[ebp], eax
; File C:\Program Files (x86)\Microsoft Visual Studio\2019\Community\VC\Tools\MSVC\14.28.29333\include\vector

; 375  :     _Vector_val() noexcept : _Myfirst(), _Mylast(), _Myend() {}

  00050	8b 45 f4	 mov	 eax, DWORD PTR _this$1[ebp]
  00053	83 20 00	 and	 DWORD PTR [eax], 0
  00056	8b 45 f4	 mov	 eax, DWORD PTR _this$1[ebp]
  00059	83 60 04 00	 and	 DWORD PTR [eax+4], 0
  0005d	8b 45 f4	 mov	 eax, DWORD PTR _this$1[ebp]
  00060	83 60 08 00	 and	 DWORD PTR [eax+8], 0
; File D:\Metin2 Server Files\mainline\SRC_2014\Metin2Client\eterLib\Pool.h

; 128  : 			m_uInitCapacity=0;

  00064	8b 45 fc	 mov	 eax, DWORD PTR _this$[ebp]
  00067	83 60 1c 00	 and	 DWORD PTR [eax+28], 0

; 129  : 			m_uUsedCapacity=0;

  0006b	8b 45 fc	 mov	 eax, DWORD PTR _this$[ebp]
  0006e	83 60 20 00	 and	 DWORD PTR [eax+32], 0

; 130  : 		}

  00072	8b 45 fc	 mov	 eax, DWORD PTR _this$[ebp]
  00075	c9		 leave
  00076	c3		 ret	 0
??0?$CDynamicPoolEx@VCTextureAnimationCCWDecorator@NEffectUpdateDecorator@@@@QAE@XZ ENDP ; CDynamicPoolEx<NEffectUpdateDecorator::CTextureAnimationCCWDecorator>::CDynamicPoolEx<NEffectUpdateDecorator::CTextureAnimationCCWDecorator>
_TEXT	ENDS
; Function compile flags: /Odspy
;	COMDAT ??_G?$CDynamicPoolEx@VCTextureAnimationRandomDecorator@NEffectUpdateDecorator@@@@UAEPAXI@Z
_TEXT	SEGMENT
_this$ = -4						; size = 4
___flags$ = 8						; size = 4
??_G?$CDynamicPoolEx@VCTextureAnimationRandomDecorator@NEffectUpdateDecorator@@@@UAEPAXI@Z PROC ; CDynamicPoolEx<NEffectUpdateDecorator::CTextureAnimationRandomDecorator>::`scalar deleting destructor', COMDAT
; _this$ = ecx
  00000	55		 push	 ebp
  00001	8b ec		 mov	 ebp, esp
  00003	51		 push	 ecx
  00004	89 4d fc	 mov	 DWORD PTR _this$[ebp], ecx
  00007	8b 4d fc	 mov	 ecx, DWORD PTR _this$[ebp]
  0000a	e8 00 00 00 00	 call	 ??1?$CDynamicPoolEx@VCTextureAnimationRandomDecorator@NEffectUpdateDecorator@@@@UAE@XZ ; CDynamicPoolEx<NEffectUpdateDecorator::CTextureAnimationRandomDecorator>::~CDynamicPoolEx<NEffectUpdateDecorator::CTextureAnimationRandomDecorator>
  0000f	8b 45 08	 mov	 eax, DWORD PTR ___flags$[ebp]
  00012	83 e0 01	 and	 eax, 1
  00015	74 0c		 je	 SHORT $LN2@scalar
  00017	6a 24		 push	 36			; 00000024H
  00019	ff 75 fc	 push	 DWORD PTR _this$[ebp]
  0001c	e8 00 00 00 00	 call	 ??3@YAXPAXI@Z		; operator delete
  00021	59		 pop	 ecx
  00022	59		 pop	 ecx
$LN2@scalar:
  00023	8b 45 fc	 mov	 eax, DWORD PTR _this$[ebp]
  00026	c9		 leave
  00027	c2 04 00	 ret	 4
??_G?$CDynamicPoolEx@VCTextureAnimationRandomDecorator@NEffectUpdateDecorator@@@@UAEPAXI@Z ENDP ; CDynamicPoolEx<NEffectUpdateDecorator::CTextureAnimationRandomDecorator>::`scalar deleting destructor'
_TEXT	ENDS
; Function compile flags: /Odspy
; File C:\Program Files (x86)\Microsoft Visual Studio\2019\Community\VC\Tools\MSVC\14.28.29333\include\vector
; File C:\Program Files (x86)\Microsoft Visual Studio\2019\Community\VC\Tools\MSVC\14.28.29333\include\xmemory
; File C:\Program Files (x86)\Microsoft Visual Studio\2019\Community\VC\Tools\MSVC\14.28.29333\include\vector
; File C:\Program Files (x86)\Microsoft Visual Studio\2019\Community\VC\Tools\MSVC\14.28.29333\include\xmemory
; File C:\Program Files (x86)\Microsoft Visual Studio\2019\Community\VC\Tools\MSVC\14.28.29333\include\vector
; File C:\Program Files (x86)\Microsoft Visual Studio\2019\Community\VC\Tools\MSVC\14.28.29333\include\xmemory
; File C:\Program Files (x86)\Microsoft Visual Studio\2019\Community\VC\Tools\MSVC\14.28.29333\include\vector
;	COMDAT ?_Tidy@?$vector@PAVCTextureAnimationRandomDecorator@NEffectUpdateDecorator@@V?$allocator@PAVCTextureAnimationRandomDecorator@NEffectUpdateDecorator@@@std@@@std@@AAEXXZ
_TEXT	SEGMENT
$T1 = -52						; size = 4
__Ptr$ = -48						; size = 4
__Count$ = -44						; size = 4
$T2 = -40						; size = 4
__First$ = -36						; size = 4
__Last$ = -32						; size = 4
$T3 = -28						; size = 4
$T4 = -24						; size = 4
__Myend$ = -20						; size = 4
__Mylast$ = -16						; size = 4
_this$ = -12						; size = 4
__My_data$ = -8						; size = 4
__Myfirst$ = -4						; size = 4
?_Tidy@?$vector@PAVCTextureAnimationRandomDecorator@NEffectUpdateDecorator@@V?$allocator@PAVCTextureAnimationRandomDecorator@NEffectUpdateDecorator@@@std@@@std@@AAEXXZ PROC ; std::vector<NEffectUpdateDecorator::CTextureAnimationRandomDecorator *,std::allocator<NEffectUpdateDecorator::CTextureAnimationRandomDecorator *> >::_Tidy, COMDAT
; _this$ = ecx

; 1686 :     void _Tidy() noexcept { // free all storage

  00000	55		 push	 ebp
  00001	8b ec		 mov	 ebp, esp
  00003	83 ec 34	 sub	 esp, 52			; 00000034H
  00006	89 4d f4	 mov	 DWORD PTR _this$[ebp], ecx

; 1687 :         auto& _My_data    = _Mypair._Myval2;

  00009	8b 45 f4	 mov	 eax, DWORD PTR _this$[ebp]
  0000c	89 45 f8	 mov	 DWORD PTR __My_data$[ebp], eax

; 1688 :         pointer& _Myfirst = _My_data._Myfirst;

  0000f	8b 45 f8	 mov	 eax, DWORD PTR __My_data$[ebp]
  00012	89 45 fc	 mov	 DWORD PTR __Myfirst$[ebp], eax

; 1689 :         pointer& _Mylast  = _My_data._Mylast;

  00015	8b 45 f8	 mov	 eax, DWORD PTR __My_data$[ebp]
  00018	83 c0 04	 add	 eax, 4
  0001b	89 45 f0	 mov	 DWORD PTR __Mylast$[ebp], eax

; 1690 :         pointer& _Myend   = _My_data._Myend;

  0001e	8b 45 f8	 mov	 eax, DWORD PTR __My_data$[ebp]
  00021	83 c0 08	 add	 eax, 8
  00024	89 45 ec	 mov	 DWORD PTR __Myend$[ebp], eax

; 1691 : 
; 1692 :         _My_data._Orphan_all();
; 1693 : 
; 1694 :         if (_Myfirst) { // destroy and deallocate old array

  00027	8b 45 fc	 mov	 eax, DWORD PTR __Myfirst$[ebp]
  0002a	83 38 00	 cmp	 DWORD PTR [eax], 0
  0002d	74 74		 je	 SHORT $LN3@Tidy

; 1695 :             _Destroy(_Myfirst, _Mylast);

  0002f	8b 45 f0	 mov	 eax, DWORD PTR __Mylast$[ebp]
  00032	8b 00		 mov	 eax, DWORD PTR [eax]
  00034	89 45 e0	 mov	 DWORD PTR __Last$[ebp], eax
  00037	8b 45 fc	 mov	 eax, DWORD PTR __Myfirst$[ebp]
  0003a	8b 00		 mov	 eax, DWORD PTR [eax]
  0003c	89 45 dc	 mov	 DWORD PTR __First$[ebp], eax

; 1733 :         return _Mypair._Get_first();

  0003f	8b 45 f4	 mov	 eax, DWORD PTR _this$[ebp]
; File C:\Program Files (x86)\Microsoft Visual Studio\2019\Community\VC\Tools\MSVC\14.28.29333\include\xmemory

; 1347 :         return *this;

  00042	89 45 e8	 mov	 DWORD PTR $T4[ebp], eax
; File C:\Program Files (x86)\Microsoft Visual Studio\2019\Community\VC\Tools\MSVC\14.28.29333\include\vector

; 1733 :         return _Mypair._Get_first();

  00045	8b 45 e8	 mov	 eax, DWORD PTR $T4[ebp]
  00048	89 45 e4	 mov	 DWORD PTR $T3[ebp], eax

; 1612 :         _Destroy_range(_First, _Last, _Getal());

  0004b	ff 75 e4	 push	 DWORD PTR $T3[ebp]
  0004e	ff 75 e0	 push	 DWORD PTR __Last$[ebp]
  00051	ff 75 dc	 push	 DWORD PTR __First$[ebp]
  00054	e8 00 00 00 00	 call	 ??$_Destroy_range@V?$allocator@PAVCTextureAnimationRandomDecorator@NEffectUpdateDecorator@@@std@@@std@@YAXPAPAVCTextureAnimationRandomDecorator@NEffectUpdateDecorator@@QAPAV12@AAV?$allocator@PAVCTextureAnimationRandomDecorator@NEffectUpdateDecorator@@@0@@Z ; std::_Destroy_range<std::allocator<NEffectUpdateDecorator::CTextureAnimationRandomDecorator *> >
  00059	83 c4 0c	 add	 esp, 12			; 0000000cH

; 1733 :         return _Mypair._Get_first();

  0005c	8b 45 f4	 mov	 eax, DWORD PTR _this$[ebp]
; File C:\Program Files (x86)\Microsoft Visual Studio\2019\Community\VC\Tools\MSVC\14.28.29333\include\xmemory

; 1347 :         return *this;

  0005f	89 45 d8	 mov	 DWORD PTR $T2[ebp], eax
; File C:\Program Files (x86)\Microsoft Visual Studio\2019\Community\VC\Tools\MSVC\14.28.29333\include\vector

; 1733 :         return _Mypair._Get_first();

  00062	8b 45 d8	 mov	 eax, DWORD PTR $T2[ebp]
  00065	89 45 cc	 mov	 DWORD PTR $T1[ebp], eax

; 1696 :             _Getal().deallocate(_Myfirst, static_cast<size_type>(_Myend - _Myfirst));

  00068	8b 45 ec	 mov	 eax, DWORD PTR __Myend$[ebp]
  0006b	8b 4d fc	 mov	 ecx, DWORD PTR __Myfirst$[ebp]
  0006e	8b 00		 mov	 eax, DWORD PTR [eax]
  00070	2b 01		 sub	 eax, DWORD PTR [ecx]
  00072	c1 f8 02	 sar	 eax, 2
  00075	89 45 d4	 mov	 DWORD PTR __Count$[ebp], eax
  00078	8b 45 fc	 mov	 eax, DWORD PTR __Myfirst$[ebp]
  0007b	8b 00		 mov	 eax, DWORD PTR [eax]
  0007d	89 45 d0	 mov	 DWORD PTR __Ptr$[ebp], eax
; File C:\Program Files (x86)\Microsoft Visual Studio\2019\Community\VC\Tools\MSVC\14.28.29333\include\xmemory

; 810  :         _Deallocate<_New_alignof<_Ty>>(_Ptr, sizeof(_Ty) * _Count);

  00080	8b 45 d4	 mov	 eax, DWORD PTR __Count$[ebp]
  00083	c1 e0 02	 shl	 eax, 2
  00086	50		 push	 eax
  00087	ff 75 d0	 push	 DWORD PTR __Ptr$[ebp]
  0008a	e8 00 00 00 00	 call	 ??$_Deallocate@$07$0A@@std@@YAXPAXI@Z ; std::_Deallocate<8,0>
  0008f	59		 pop	 ecx
  00090	59		 pop	 ecx
; File C:\Program Files (x86)\Microsoft Visual Studio\2019\Community\VC\Tools\MSVC\14.28.29333\include\vector

; 1698 :             _Myfirst = pointer();

  00091	8b 45 fc	 mov	 eax, DWORD PTR __Myfirst$[ebp]
  00094	83 20 00	 and	 DWORD PTR [eax], 0

; 1699 :             _Mylast  = pointer();

  00097	8b 45 f0	 mov	 eax, DWORD PTR __Mylast$[ebp]
  0009a	83 20 00	 and	 DWORD PTR [eax], 0

; 1700 :             _Myend   = pointer();

  0009d	8b 45 ec	 mov	 eax, DWORD PTR __Myend$[ebp]
  000a0	83 20 00	 and	 DWORD PTR [eax], 0
$LN3@Tidy:

; 1701 :         }
; 1702 :     }

  000a3	c9		 leave
  000a4	c3		 ret	 0
?_Tidy@?$vector@PAVCTextureAnimationRandomDecorator@NEffectUpdateDecorator@@V?$allocator@PAVCTextureAnimationRandomDecorator@NEffectUpdateDecorator@@@std@@@std@@AAEXXZ ENDP ; std::vector<NEffectUpdateDecorator::CTextureAnimationRandomDecorator *,std::allocator<NEffectUpdateDecorator::CTextureAnimationRandomDecorator *> >::_Tidy
_TEXT	ENDS
; Function compile flags: /Odspy
; File C:\Program Files (x86)\Microsoft Visual Studio\2019\Community\VC\Tools\MSVC\14.28.29333\include\vector
; File C:\Program Files (x86)\Microsoft Visual Studio\2019\Community\VC\Tools\MSVC\14.28.29333\include\xmemory
; File C:\Program Files (x86)\Microsoft Visual Studio\2019\Community\VC\Tools\MSVC\14.28.29333\include\vector
;	COMDAT ?clear@?$vector@PAVCTextureAnimationRandomDecorator@NEffectUpdateDecorator@@V?$allocator@PAVCTextureAnimationRandomDecorator@NEffectUpdateDecorator@@@std@@@std@@QAEXXZ
_TEXT	SEGMENT
__First$ = -32						; size = 4
__Last$ = -28						; size = 4
$T1 = -24						; size = 4
$T2 = -20						; size = 4
__Myfirst$ = -16					; size = 4
__Mylast$ = -12						; size = 4
_this$ = -8						; size = 4
__My_data$ = -4						; size = 4
?clear@?$vector@PAVCTextureAnimationRandomDecorator@NEffectUpdateDecorator@@V?$allocator@PAVCTextureAnimationRandomDecorator@NEffectUpdateDecorator@@@std@@@std@@QAEXXZ PROC ; std::vector<NEffectUpdateDecorator::CTextureAnimationRandomDecorator *,std::allocator<NEffectUpdateDecorator::CTextureAnimationRandomDecorator *> >::clear, COMDAT
; _this$ = ecx

; 1383 :     void clear() noexcept { // erase all

  00000	55		 push	 ebp
  00001	8b ec		 mov	 ebp, esp
  00003	83 ec 20	 sub	 esp, 32			; 00000020H
  00006	89 4d f8	 mov	 DWORD PTR _this$[ebp], ecx

; 1384 :         auto& _My_data    = _Mypair._Myval2;

  00009	8b 45 f8	 mov	 eax, DWORD PTR _this$[ebp]
  0000c	89 45 fc	 mov	 DWORD PTR __My_data$[ebp], eax

; 1385 :         pointer& _Myfirst = _My_data._Myfirst;

  0000f	8b 45 fc	 mov	 eax, DWORD PTR __My_data$[ebp]
  00012	89 45 f0	 mov	 DWORD PTR __Myfirst$[ebp], eax

; 1386 :         pointer& _Mylast  = _My_data._Mylast;

  00015	8b 45 fc	 mov	 eax, DWORD PTR __My_data$[ebp]
  00018	83 c0 04	 add	 eax, 4
  0001b	89 45 f4	 mov	 DWORD PTR __Mylast$[ebp], eax

; 1387 : 
; 1388 :         _My_data._Orphan_all();
; 1389 :         _Destroy(_Myfirst, _Mylast);

  0001e	8b 45 f4	 mov	 eax, DWORD PTR __Mylast$[ebp]
  00021	8b 00		 mov	 eax, DWORD PTR [eax]
  00023	89 45 e4	 mov	 DWORD PTR __Last$[ebp], eax
  00026	8b 45 f0	 mov	 eax, DWORD PTR __Myfirst$[ebp]
  00029	8b 00		 mov	 eax, DWORD PTR [eax]
  0002b	89 45 e0	 mov	 DWORD PTR __First$[ebp], eax

; 1733 :         return _Mypair._Get_first();

  0002e	8b 45 f8	 mov	 eax, DWORD PTR _this$[ebp]
; File C:\Program Files (x86)\Microsoft Visual Studio\2019\Community\VC\Tools\MSVC\14.28.29333\include\xmemory

; 1347 :         return *this;

  00031	89 45 ec	 mov	 DWORD PTR $T2[ebp], eax
; File C:\Program Files (x86)\Microsoft Visual Studio\2019\Community\VC\Tools\MSVC\14.28.29333\include\vector

; 1733 :         return _Mypair._Get_first();

  00034	8b 45 ec	 mov	 eax, DWORD PTR $T2[ebp]
  00037	89 45 e8	 mov	 DWORD PTR $T1[ebp], eax

; 1612 :         _Destroy_range(_First, _Last, _Getal());

  0003a	ff 75 e8	 push	 DWORD PTR $T1[ebp]
  0003d	ff 75 e4	 push	 DWORD PTR __Last$[ebp]
  00040	ff 75 e0	 push	 DWORD PTR __First$[ebp]
  00043	e8 00 00 00 00	 call	 ??$_Destroy_range@V?$allocator@PAVCTextureAnimationRandomDecorator@NEffectUpdateDecorator@@@std@@@std@@YAXPAPAVCTextureAnimationRandomDecorator@NEffectUpdateDecorator@@QAPAV12@AAV?$allocator@PAVCTextureAnimationRandomDecorator@NEffectUpdateDecorator@@@0@@Z ; std::_Destroy_range<std::allocator<NEffectUpdateDecorator::CTextureAnimationRandomDecorator *> >
  00048	83 c4 0c	 add	 esp, 12			; 0000000cH

; 1390 :         _Mylast = _Myfirst;

  0004b	8b 45 f4	 mov	 eax, DWORD PTR __Mylast$[ebp]
  0004e	8b 4d f0	 mov	 ecx, DWORD PTR __Myfirst$[ebp]
  00051	8b 09		 mov	 ecx, DWORD PTR [ecx]
  00053	89 08		 mov	 DWORD PTR [eax], ecx

; 1391 :     }

  00055	c9		 leave
  00056	c3		 ret	 0
?clear@?$vector@PAVCTextureAnimationRandomDecorator@NEffectUpdateDecorator@@V?$allocator@PAVCTextureAnimationRandomDecorator@NEffectUpdateDecorator@@@std@@@std@@QAEXXZ ENDP ; std::vector<NEffectUpdateDecorator::CTextureAnimationRandomDecorator *,std::allocator<NEffectUpdateDecorator::CTextureAnimationRandomDecorator *> >::clear
_TEXT	ENDS
; Function compile flags: /Odspy
; File D:\Metin2 Server Files\mainline\SRC_2014\Metin2Client\eterLib\Pool.h
;	COMDAT ?Delete@?$CDynamicPoolEx@VCTextureAnimationRandomDecorator@NEffectUpdateDecorator@@@@KAXPAVCTextureAnimationRandomDecorator@NEffectUpdateDecorator@@@Z
_TEXT	SEGMENT
_pkData$ = 8						; size = 4
?Delete@?$CDynamicPoolEx@VCTextureAnimationRandomDecorator@NEffectUpdateDecorator@@@@KAXPAVCTextureAnimationRandomDecorator@NEffectUpdateDecorator@@@Z PROC ; CDynamicPoolEx<NEffectUpdateDecorator::CTextureAnimationRandomDecorator>::Delete, COMDAT

; 223  : 		{

  00000	55		 push	 ebp
  00001	8b ec		 mov	 ebp, esp

; 224  : 			::operator delete(pkData);

  00003	ff 75 08	 push	 DWORD PTR _pkData$[ebp]
  00006	e8 00 00 00 00	 call	 ??3@YAXPAX@Z		; operator delete
  0000b	59		 pop	 ecx

; 225  : 		}

  0000c	5d		 pop	 ebp
  0000d	c3		 ret	 0
?Delete@?$CDynamicPoolEx@VCTextureAnimationRandomDecorator@NEffectUpdateDecorator@@@@KAXPAVCTextureAnimationRandomDecorator@NEffectUpdateDecorator@@@Z ENDP ; CDynamicPoolEx<NEffectUpdateDecorator::CTextureAnimationRandomDecorator>::Delete
_TEXT	ENDS
; Function compile flags: /Odspy
; File D:\Metin2 Server Files\mainline\SRC_2014\Metin2Client\eterLib\Pool.h
; File C:\Program Files (x86)\Microsoft Visual Studio\2019\Community\VC\Tools\MSVC\14.28.29333\include\vector
; File C:\Program Files (x86)\Microsoft Visual Studio\2019\Community\VC\Tools\MSVC\14.28.29333\include\xstddef
; File C:\Program Files (x86)\Microsoft Visual Studio\2019\Community\VC\Tools\MSVC\14.28.29333\include\vector
; File C:\Program Files (x86)\Microsoft Visual Studio\2019\Community\VC\Tools\MSVC\14.28.29333\include\xstddef
; File C:\Program Files (x86)\Microsoft Visual Studio\2019\Community\VC\Tools\MSVC\14.28.29333\include\vector
; File D:\Metin2 Server Files\mainline\SRC_2014\Metin2Client\eterLib\Pool.h
;	COMDAT ?Destroy@?$CDynamicPoolEx@VCTextureAnimationRandomDecorator@NEffectUpdateDecorator@@@@QAEXXZ
_TEXT	SEGMENT
$T1 = -44						; size = 4
$T2 = -40						; size = 4
$T3 = -36						; size = 4
$T4 = -32						; size = 4
$T5 = -28						; size = 4
___param0$ = -24					; size = 4
$T6 = -20						; size = 4
___param0$ = -16					; size = 4
__My_data$7 = -12					; size = 4
__My_data$8 = -8					; size = 4
_this$ = -4						; size = 4
?Destroy@?$CDynamicPoolEx@VCTextureAnimationRandomDecorator@NEffectUpdateDecorator@@@@QAEXXZ PROC ; CDynamicPoolEx<NEffectUpdateDecorator::CTextureAnimationRandomDecorator>::Destroy, COMDAT
; _this$ = ecx

; 150  : 		{

  00000	55		 push	 ebp
  00001	8b ec		 mov	 ebp, esp
  00003	83 ec 2c	 sub	 esp, 44			; 0000002cH
  00006	89 4d fc	 mov	 DWORD PTR _this$[ebp], ecx
; File C:\Program Files (x86)\Microsoft Visual Studio\2019\Community\VC\Tools\MSVC\14.28.29333\include\vector

; 1420 :         auto& _My_data = _Mypair._Myval2;

  00009	8b 45 fc	 mov	 eax, DWORD PTR _this$[ebp]
  0000c	83 c0 04	 add	 eax, 4
  0000f	89 45 f8	 mov	 DWORD PTR __My_data$8[ebp], eax
; File C:\Program Files (x86)\Microsoft Visual Studio\2019\Community\VC\Tools\MSVC\14.28.29333\include\xstddef

; 275  :     return __builtin_addressof(_Val);

  00012	8b 45 f8	 mov	 eax, DWORD PTR __My_data$8[ebp]
  00015	89 45 d8	 mov	 DWORD PTR $T2[ebp], eax
; File C:\Program Files (x86)\Microsoft Visual Studio\2019\Community\VC\Tools\MSVC\14.28.29333\include\vector

; 1421 :         return iterator(_My_data._Mylast, _STD addressof(_My_data));

  00018	8b 45 f8	 mov	 eax, DWORD PTR __My_data$8[ebp]
  0001b	8b 40 04	 mov	 eax, DWORD PTR [eax+4]
  0001e	89 45 f0	 mov	 DWORD PTR ___param0$[ebp], eax

; 42   :     _Vector_const_iterator(_Tptr _Parg, const _Container_base* _Pvector) noexcept : _Ptr(_Parg) {

  00021	8b 45 f0	 mov	 eax, DWORD PTR ___param0$[ebp]
  00024	89 45 ec	 mov	 DWORD PTR $T6[ebp], eax

; 1421 :         return iterator(_My_data._Mylast, _STD addressof(_My_data));

  00027	8d 45 ec	 lea	 eax, DWORD PTR $T6[ebp]
  0002a	89 45 e0	 mov	 DWORD PTR $T4[ebp], eax

; 1410 :         auto& _My_data = _Mypair._Myval2;

  0002d	8b 45 fc	 mov	 eax, DWORD PTR _this$[ebp]
  00030	83 c0 04	 add	 eax, 4
  00033	89 45 f4	 mov	 DWORD PTR __My_data$7[ebp], eax
; File C:\Program Files (x86)\Microsoft Visual Studio\2019\Community\VC\Tools\MSVC\14.28.29333\include\xstddef

; 275  :     return __builtin_addressof(_Val);

  00036	8b 45 f4	 mov	 eax, DWORD PTR __My_data$7[ebp]
  00039	89 45 d4	 mov	 DWORD PTR $T1[ebp], eax
; File C:\Program Files (x86)\Microsoft Visual Studio\2019\Community\VC\Tools\MSVC\14.28.29333\include\vector

; 1411 :         return iterator(_My_data._Myfirst, _STD addressof(_My_data));

  0003c	8b 45 f4	 mov	 eax, DWORD PTR __My_data$7[ebp]
  0003f	8b 00		 mov	 eax, DWORD PTR [eax]
  00041	89 45 e8	 mov	 DWORD PTR ___param0$[ebp], eax

; 42   :     _Vector_const_iterator(_Tptr _Parg, const _Container_base* _Pvector) noexcept : _Ptr(_Parg) {

  00044	8b 45 e8	 mov	 eax, DWORD PTR ___param0$[ebp]
  00047	89 45 e4	 mov	 DWORD PTR $T5[ebp], eax

; 1411 :         return iterator(_My_data._Myfirst, _STD addressof(_My_data));

  0004a	8d 45 e4	 lea	 eax, DWORD PTR $T5[ebp]
  0004d	89 45 dc	 mov	 DWORD PTR $T3[ebp], eax
; File D:\Metin2 Server Files\mainline\SRC_2014\Metin2Client\eterLib\Pool.h

; 160  : 			std::for_each(m_kVct_pkData.begin(), m_kVct_pkData.end(), Delete);

  00050	68 00 00 00 00	 push	 OFFSET ?Delete@?$CDynamicPoolEx@VCTextureAnimationRandomDecorator@NEffectUpdateDecorator@@@@KAXPAVCTextureAnimationRandomDecorator@NEffectUpdateDecorator@@@Z ; CDynamicPoolEx<NEffectUpdateDecorator::CTextureAnimationRandomDecorator>::Delete
  00055	8b 45 e0	 mov	 eax, DWORD PTR $T4[ebp]
  00058	ff 30		 push	 DWORD PTR [eax]
  0005a	8b 45 dc	 mov	 eax, DWORD PTR $T3[ebp]
  0005d	ff 30		 push	 DWORD PTR [eax]
  0005f	e8 00 00 00 00	 call	 ??$for_each@V?$_Vector_iterator@V?$_Vector_val@U?$_Simple_types@PAVCTextureAnimationRandomDecorator@NEffectUpdateDecorator@@@std@@@std@@@std@@P6AXPAVCTextureAnimationRandomDecorator@NEffectUpdateDecorator@@@Z@std@@YAP6AXPAVCTextureAnimationRandomDecorator@NEffectUpdateDecorator@@@ZV?$_Vector_iterator@V?$_Vector_val@U?$_Simple_types@PAVCTextureAnimationRandomDecorator@NEffectUpdateDecorator@@@std@@@std@@@0@1P6AX0@Z@Z ; std::for_each<std::_Vector_iterator<std::_Vector_val<std::_Simple_types<NEffectUpdateDecorator::CTextureAnimationRandomDecorator *> > >,void (__cdecl*)(NEffectUpdateDecorator::CTextureAnimationRandomDecorator *)>
  00064	83 c4 0c	 add	 esp, 12			; 0000000cH

; 161  : 			m_kVct_pkData.clear();

  00067	8b 4d fc	 mov	 ecx, DWORD PTR _this$[ebp]
  0006a	83 c1 04	 add	 ecx, 4
  0006d	e8 00 00 00 00	 call	 ?clear@?$vector@PAVCTextureAnimationRandomDecorator@NEffectUpdateDecorator@@V?$allocator@PAVCTextureAnimationRandomDecorator@NEffectUpdateDecorator@@@std@@@std@@QAEXXZ ; std::vector<NEffectUpdateDecorator::CTextureAnimationRandomDecorator *,std::allocator<NEffectUpdateDecorator::CTextureAnimationRandomDecorator *> >::clear

; 162  : 			m_kVct_pkFree.clear();

  00072	8b 4d fc	 mov	 ecx, DWORD PTR _this$[ebp]
  00075	83 c1 10	 add	 ecx, 16			; 00000010H
  00078	e8 00 00 00 00	 call	 ?clear@?$vector@PAVCTextureAnimationRandomDecorator@NEffectUpdateDecorator@@V?$allocator@PAVCTextureAnimationRandomDecorator@NEffectUpdateDecorator@@@std@@@std@@QAEXXZ ; std::vector<NEffectUpdateDecorator::CTextureAnimationRandomDecorator *,std::allocator<NEffectUpdateDecorator::CTextureAnimationRandomDecorator *> >::clear

; 163  : 		}

  0007d	c9		 leave
  0007e	c3		 ret	 0
?Destroy@?$CDynamicPoolEx@VCTextureAnimationRandomDecorator@NEffectUpdateDecorator@@@@QAEXXZ ENDP ; CDynamicPoolEx<NEffectUpdateDecorator::CTextureAnimationRandomDecorator>::Destroy
_TEXT	ENDS
; Function compile flags: /Odspy
; File D:\Metin2 Server Files\mainline\SRC_2014\Metin2Client\eterLib\Pool.h
; File C:\Program Files (x86)\Microsoft Visual Studio\2019\Community\VC\Tools\MSVC\14.28.29333\include\vector
; File D:\Metin2 Server Files\mainline\SRC_2014\Metin2Client\eterLib\Pool.h
; File C:\Program Files (x86)\Microsoft Visual Studio\2019\Community\VC\Tools\MSVC\14.28.29333\include\vector
; File D:\Metin2 Server Files\mainline\SRC_2014\Metin2Client\eterLib\Pool.h
;	COMDAT ??1?$CDynamicPoolEx@VCTextureAnimationRandomDecorator@NEffectUpdateDecorator@@@@UAE@XZ
_TEXT	SEGMENT
_this$ = -16						; size = 4
__$EHRec$ = -12						; size = 12
??1?$CDynamicPoolEx@VCTextureAnimationRandomDecorator@NEffectUpdateDecorator@@@@UAE@XZ PROC ; CDynamicPoolEx<NEffectUpdateDecorator::CTextureAnimationRandomDecorator>::~CDynamicPoolEx<NEffectUpdateDecorator::CTextureAnimationRandomDecorator>, COMDAT
; _this$ = ecx

; 132  : 		{

  00000	55		 push	 ebp
  00001	8b ec		 mov	 ebp, esp
  00003	6a ff		 push	 -1
  00005	68 00 00 00 00	 push	 __ehhandler$??1?$CDynamicPoolEx@VCTextureAnimationRandomDecorator@NEffectUpdateDecorator@@@@UAE@XZ
  0000a	64 a1 00 00 00
	00		 mov	 eax, DWORD PTR fs:0
  00010	50		 push	 eax
  00011	51		 push	 ecx
  00012	a1 00 00 00 00	 mov	 eax, DWORD PTR ___security_cookie
  00017	33 c5		 xor	 eax, ebp
  00019	50		 push	 eax
  0001a	8d 45 f4	 lea	 eax, DWORD PTR __$EHRec$[ebp]
  0001d	64 a3 00 00 00
	00		 mov	 DWORD PTR fs:0, eax
  00023	89 4d f0	 mov	 DWORD PTR _this$[ebp], ecx
  00026	8b 45 f0	 mov	 eax, DWORD PTR _this$[ebp]
  00029	c7 00 00 00 00
	00		 mov	 DWORD PTR [eax], OFFSET ??_7?$CDynamicPoolEx@VCTextureAnimationRandomDecorator@NEffectUpdateDecorator@@@@6B@

; 133  : 			assert(m_kVct_pkFree.size()==m_kVct_pkData.size());
; 134  : 			Destroy();

  0002f	8b 4d f0	 mov	 ecx, DWORD PTR _this$[ebp]
  00032	e8 00 00 00 00	 call	 ?Destroy@?$CDynamicPoolEx@VCTextureAnimationRandomDecorator@NEffectUpdateDecorator@@@@QAEXXZ ; CDynamicPoolEx<NEffectUpdateDecorator::CTextureAnimationRandomDecorator>::Destroy

; 142  : 		}

  00037	8b 4d f0	 mov	 ecx, DWORD PTR _this$[ebp]
  0003a	83 c1 10	 add	 ecx, 16			; 00000010H
; File C:\Program Files (x86)\Microsoft Visual Studio\2019\Community\VC\Tools\MSVC\14.28.29333\include\vector

; 673  :         _Tidy();

  0003d	e8 00 00 00 00	 call	 ?_Tidy@?$vector@PAVCTextureAnimationRandomDecorator@NEffectUpdateDecorator@@V?$allocator@PAVCTextureAnimationRandomDecorator@NEffectUpdateDecorator@@@std@@@std@@AAEXXZ ; std::vector<NEffectUpdateDecorator::CTextureAnimationRandomDecorator *,std::allocator<NEffectUpdateDecorator::CTextureAnimationRandomDecorator *> >::_Tidy
; File D:\Metin2 Server Files\mainline\SRC_2014\Metin2Client\eterLib\Pool.h

; 142  : 		}

  00042	8b 4d f0	 mov	 ecx, DWORD PTR _this$[ebp]
  00045	83 c1 04	 add	 ecx, 4
; File C:\Program Files (x86)\Microsoft Visual Studio\2019\Community\VC\Tools\MSVC\14.28.29333\include\vector

; 673  :         _Tidy();

  00048	e8 00 00 00 00	 call	 ?_Tidy@?$vector@PAVCTextureAnimationRandomDecorator@NEffectUpdateDecorator@@V?$allocator@PAVCTextureAnimationRandomDecorator@NEffectUpdateDecorator@@@std@@@std@@AAEXXZ ; std::vector<NEffectUpdateDecorator::CTextureAnimationRandomDecorator *,std::allocator<NEffectUpdateDecorator::CTextureAnimationRandomDecorator *> >::_Tidy
; File D:\Metin2 Server Files\mainline\SRC_2014\Metin2Client\eterLib\Pool.h

; 142  : 		}

  0004d	8b 4d f4	 mov	 ecx, DWORD PTR __$EHRec$[ebp]
  00050	64 89 0d 00 00
	00 00		 mov	 DWORD PTR fs:0, ecx
  00057	59		 pop	 ecx
  00058	c9		 leave
  00059	c3		 ret	 0
  0005a	cc		 int	 3
  0005b	cc		 int	 3
  0005c	cc		 int	 3
  0005d	cc		 int	 3
  0005e	cc		 int	 3
_TEXT	ENDS
;	COMDAT text$x
text$x	SEGMENT
__ehhandler$??1?$CDynamicPoolEx@VCTextureAnimationRandomDecorator@NEffectUpdateDecorator@@@@UAE@XZ:
  00000	90		 npad	 1
  00001	90		 npad	 1
  00002	8b 54 24 08	 mov	 edx, DWORD PTR [esp+8]
  00006	8d 42 0c	 lea	 eax, DWORD PTR [edx+12]
  00009	8b 4a f8	 mov	 ecx, DWORD PTR [edx-8]
  0000c	33 c8		 xor	 ecx, eax
  0000e	e8 00 00 00 00	 call	 @__security_check_cookie@4
  00013	b8 00 00 00 00	 mov	 eax, OFFSET __ehfuncinfo$??1?$CDynamicPoolEx@VCTextureAnimationRandomDecorator@NEffectUpdateDecorator@@@@UAE@XZ
  00018	e9 00 00 00 00	 jmp	 ___CxxFrameHandler3
text$x	ENDS
??1?$CDynamicPoolEx@VCTextureAnimationRandomDecorator@NEffectUpdateDecorator@@@@UAE@XZ ENDP ; CDynamicPoolEx<NEffectUpdateDecorator::CTextureAnimationRandomDecorator>::~CDynamicPoolEx<NEffectUpdateDecorator::CTextureAnimationRandomDecorator>
; Function compile flags: /Odspy
; File D:\Metin2 Server Files\mainline\SRC_2014\Metin2Client\eterLib\Pool.h
; File C:\Program Files (x86)\Microsoft Visual Studio\2019\Community\VC\Tools\MSVC\14.28.29333\include\vector
; File C:\Program Files (x86)\Microsoft Visual Studio\2019\Community\VC\Tools\MSVC\14.28.29333\include\xmemory
; File C:\Program Files (x86)\Microsoft Visual Studio\2019\Community\VC\Tools\MSVC\14.28.29333\include\vector
; File D:\Metin2 Server Files\mainline\SRC_2014\Metin2Client\eterLib\Pool.h
; File C:\Program Files (x86)\Microsoft Visual Studio\2019\Community\VC\Tools\MSVC\14.28.29333\include\vector
; File C:\Program Files (x86)\Microsoft Visual Studio\2019\Community\VC\Tools\MSVC\14.28.29333\include\xmemory
; File C:\Program Files (x86)\Microsoft Visual Studio\2019\Community\VC\Tools\MSVC\14.28.29333\include\vector
; File D:\Metin2 Server Files\mainline\SRC_2014\Metin2Client\eterLib\Pool.h
;	COMDAT ??0?$CDynamicPoolEx@VCTextureAnimationRandomDecorator@NEffectUpdateDecorator@@@@QAE@XZ
_TEXT	SEGMENT
_this$ = -28						; size = 4
_this$ = -24						; size = 4
_this$ = -20						; size = 4
_this$ = -16						; size = 4
_this$1 = -12						; size = 4
_this$2 = -8						; size = 4
_this$ = -4						; size = 4
??0?$CDynamicPoolEx@VCTextureAnimationRandomDecorator@NEffectUpdateDecorator@@@@QAE@XZ PROC ; CDynamicPoolEx<NEffectUpdateDecorator::CTextureAnimationRandomDecorator>::CDynamicPoolEx<NEffectUpdateDecorator::CTextureAnimationRandomDecorator>, COMDAT
; _this$ = ecx

; 126  : 		CDynamicPoolEx()

  00000	55		 push	 ebp
  00001	8b ec		 mov	 ebp, esp
  00003	83 ec 1c	 sub	 esp, 28			; 0000001cH
  00006	89 4d fc	 mov	 DWORD PTR _this$[ebp], ecx

; 127  : 		{

  00009	8b 45 fc	 mov	 eax, DWORD PTR _this$[ebp]
  0000c	c7 00 00 00 00
	00		 mov	 DWORD PTR [eax], OFFSET ??_7?$CDynamicPoolEx@VCTextureAnimationRandomDecorator@NEffectUpdateDecorator@@@@6B@
  00012	8b 45 fc	 mov	 eax, DWORD PTR _this$[ebp]
  00015	83 c0 04	 add	 eax, 4
  00018	89 45 f0	 mov	 DWORD PTR _this$[ebp], eax
; File C:\Program Files (x86)\Microsoft Visual Studio\2019\Community\VC\Tools\MSVC\14.28.29333\include\vector

; 445  :     vector() noexcept(is_nothrow_default_constructible_v<_Alty>) : _Mypair(_Zero_then_variadic_args_t{}) {

  0001b	8b 45 f0	 mov	 eax, DWORD PTR _this$[ebp]
  0001e	89 45 ec	 mov	 DWORD PTR _this$[ebp], eax
; File C:\Program Files (x86)\Microsoft Visual Studio\2019\Community\VC\Tools\MSVC\14.28.29333\include\xmemory

; 1339 :         : _Ty1(), _Myval2(_STD forward<_Other2>(_Val2)...) {}

  00021	8b 45 ec	 mov	 eax, DWORD PTR _this$[ebp]
  00024	89 45 f8	 mov	 DWORD PTR _this$2[ebp], eax
; File C:\Program Files (x86)\Microsoft Visual Studio\2019\Community\VC\Tools\MSVC\14.28.29333\include\vector

; 375  :     _Vector_val() noexcept : _Myfirst(), _Mylast(), _Myend() {}

  00027	8b 45 f8	 mov	 eax, DWORD PTR _this$2[ebp]
  0002a	83 20 00	 and	 DWORD PTR [eax], 0
  0002d	8b 45 f8	 mov	 eax, DWORD PTR _this$2[ebp]
  00030	83 60 04 00	 and	 DWORD PTR [eax+4], 0
  00034	8b 45 f8	 mov	 eax, DWORD PTR _this$2[ebp]
  00037	83 60 08 00	 and	 DWORD PTR [eax+8], 0
; File D:\Metin2 Server Files\mainline\SRC_2014\Metin2Client\eterLib\Pool.h

; 127  : 		{

  0003b	8b 45 fc	 mov	 eax, DWORD PTR _this$[ebp]
  0003e	83 c0 10	 add	 eax, 16			; 00000010H
  00041	89 45 e8	 mov	 DWORD PTR _this$[ebp], eax
; File C:\Program Files (x86)\Microsoft Visual Studio\2019\Community\VC\Tools\MSVC\14.28.29333\include\vector

; 445  :     vector() noexcept(is_nothrow_default_constructible_v<_Alty>) : _Mypair(_Zero_then_variadic_args_t{}) {

  00044	8b 45 e8	 mov	 eax, DWORD PTR _this$[ebp]
  00047	89 45 e4	 mov	 DWORD PTR _this$[ebp], eax
; File C:\Program Files (x86)\Microsoft Visual Studio\2019\Community\VC\Tools\MSVC\14.28.29333\include\xmemory

; 1339 :         : _Ty1(), _Myval2(_STD forward<_Other2>(_Val2)...) {}

  0004a	8b 45 e4	 mov	 eax, DWORD PTR _this$[ebp]
  0004d	89 45 f4	 mov	 DWORD PTR _this$1[ebp], eax
; File C:\Program Files (x86)\Microsoft Visual Studio\2019\Community\VC\Tools\MSVC\14.28.29333\include\vector

; 375  :     _Vector_val() noexcept : _Myfirst(), _Mylast(), _Myend() {}

  00050	8b 45 f4	 mov	 eax, DWORD PTR _this$1[ebp]
  00053	83 20 00	 and	 DWORD PTR [eax], 0
  00056	8b 45 f4	 mov	 eax, DWORD PTR _this$1[ebp]
  00059	83 60 04 00	 and	 DWORD PTR [eax+4], 0
  0005d	8b 45 f4	 mov	 eax, DWORD PTR _this$1[ebp]
  00060	83 60 08 00	 and	 DWORD PTR [eax+8], 0
; File D:\Metin2 Server Files\mainline\SRC_2014\Metin2Client\eterLib\Pool.h

; 128  : 			m_uInitCapacity=0;

  00064	8b 45 fc	 mov	 eax, DWORD PTR _this$[ebp]
  00067	83 60 1c 00	 and	 DWORD PTR [eax+28], 0

; 129  : 			m_uUsedCapacity=0;

  0006b	8b 45 fc	 mov	 eax, DWORD PTR _this$[ebp]
  0006e	83 60 20 00	 and	 DWORD PTR [eax+32], 0

; 130  : 		}

  00072	8b 45 fc	 mov	 eax, DWORD PTR _this$[ebp]
  00075	c9		 leave
  00076	c3		 ret	 0
??0?$CDynamicPoolEx@VCTextureAnimationRandomDecorator@NEffectUpdateDecorator@@@@QAE@XZ ENDP ; CDynamicPoolEx<NEffectUpdateDecorator::CTextureAnimationRandomDecorator>::CDynamicPoolEx<NEffectUpdateDecorator::CTextureAnimationRandomDecorator>
_TEXT	ENDS
; Function compile flags: /Odspy
;	COMDAT ??_G?$CDynamicPoolEx@VCAirResistanceDecorator@NEffectUpdateDecorator@@@@UAEPAXI@Z
_TEXT	SEGMENT
_this$ = -4						; size = 4
___flags$ = 8						; size = 4
??_G?$CDynamicPoolEx@VCAirResistanceDecorator@NEffectUpdateDecorator@@@@UAEPAXI@Z PROC ; CDynamicPoolEx<NEffectUpdateDecorator::CAirResistanceDecorator>::`scalar deleting destructor', COMDAT
; _this$ = ecx
  00000	55		 push	 ebp
  00001	8b ec		 mov	 ebp, esp
  00003	51		 push	 ecx
  00004	89 4d fc	 mov	 DWORD PTR _this$[ebp], ecx
  00007	8b 4d fc	 mov	 ecx, DWORD PTR _this$[ebp]
  0000a	e8 00 00 00 00	 call	 ??1?$CDynamicPoolEx@VCAirResistanceDecorator@NEffectUpdateDecorator@@@@UAE@XZ ; CDynamicPoolEx<NEffectUpdateDecorator::CAirResistanceDecorator>::~CDynamicPoolEx<NEffectUpdateDecorator::CAirResistanceDecorator>
  0000f	8b 45 08	 mov	 eax, DWORD PTR ___flags$[ebp]
  00012	83 e0 01	 and	 eax, 1
  00015	74 0c		 je	 SHORT $LN2@scalar
  00017	6a 24		 push	 36			; 00000024H
  00019	ff 75 fc	 push	 DWORD PTR _this$[ebp]
  0001c	e8 00 00 00 00	 call	 ??3@YAXPAXI@Z		; operator delete
  00021	59		 pop	 ecx
  00022	59		 pop	 ecx
$LN2@scalar:
  00023	8b 45 fc	 mov	 eax, DWORD PTR _this$[ebp]
  00026	c9		 leave
  00027	c2 04 00	 ret	 4
??_G?$CDynamicPoolEx@VCAirResistanceDecorator@NEffectUpdateDecorator@@@@UAEPAXI@Z ENDP ; CDynamicPoolEx<NEffectUpdateDecorator::CAirResistanceDecorator>::`scalar deleting destructor'
_TEXT	ENDS
; Function compile flags: /Odspy
; File C:\Program Files (x86)\Microsoft Visual Studio\2019\Community\VC\Tools\MSVC\14.28.29333\include\vector
; File C:\Program Files (x86)\Microsoft Visual Studio\2019\Community\VC\Tools\MSVC\14.28.29333\include\xmemory
; File C:\Program Files (x86)\Microsoft Visual Studio\2019\Community\VC\Tools\MSVC\14.28.29333\include\vector
; File C:\Program Files (x86)\Microsoft Visual Studio\2019\Community\VC\Tools\MSVC\14.28.29333\include\xmemory
; File C:\Program Files (x86)\Microsoft Visual Studio\2019\Community\VC\Tools\MSVC\14.28.29333\include\vector
; File C:\Program Files (x86)\Microsoft Visual Studio\2019\Community\VC\Tools\MSVC\14.28.29333\include\xmemory
; File C:\Program Files (x86)\Microsoft Visual Studio\2019\Community\VC\Tools\MSVC\14.28.29333\include\vector
;	COMDAT ?_Tidy@?$vector@PAVCAirResistanceDecorator@NEffectUpdateDecorator@@V?$allocator@PAVCAirResistanceDecorator@NEffectUpdateDecorator@@@std@@@std@@AAEXXZ
_TEXT	SEGMENT
$T1 = -52						; size = 4
__Ptr$ = -48						; size = 4
__Count$ = -44						; size = 4
$T2 = -40						; size = 4
__First$ = -36						; size = 4
__Last$ = -32						; size = 4
$T3 = -28						; size = 4
$T4 = -24						; size = 4
__Myend$ = -20						; size = 4
__Mylast$ = -16						; size = 4
_this$ = -12						; size = 4
__My_data$ = -8						; size = 4
__Myfirst$ = -4						; size = 4
?_Tidy@?$vector@PAVCAirResistanceDecorator@NEffectUpdateDecorator@@V?$allocator@PAVCAirResistanceDecorator@NEffectUpdateDecorator@@@std@@@std@@AAEXXZ PROC ; std::vector<NEffectUpdateDecorator::CAirResistanceDecorator *,std::allocator<NEffectUpdateDecorator::CAirResistanceDecorator *> >::_Tidy, COMDAT
; _this$ = ecx

; 1686 :     void _Tidy() noexcept { // free all storage

  00000	55		 push	 ebp
  00001	8b ec		 mov	 ebp, esp
  00003	83 ec 34	 sub	 esp, 52			; 00000034H
  00006	89 4d f4	 mov	 DWORD PTR _this$[ebp], ecx

; 1687 :         auto& _My_data    = _Mypair._Myval2;

  00009	8b 45 f4	 mov	 eax, DWORD PTR _this$[ebp]
  0000c	89 45 f8	 mov	 DWORD PTR __My_data$[ebp], eax

; 1688 :         pointer& _Myfirst = _My_data._Myfirst;

  0000f	8b 45 f8	 mov	 eax, DWORD PTR __My_data$[ebp]
  00012	89 45 fc	 mov	 DWORD PTR __Myfirst$[ebp], eax

; 1689 :         pointer& _Mylast  = _My_data._Mylast;

  00015	8b 45 f8	 mov	 eax, DWORD PTR __My_data$[ebp]
  00018	83 c0 04	 add	 eax, 4
  0001b	89 45 f0	 mov	 DWORD PTR __Mylast$[ebp], eax

; 1690 :         pointer& _Myend   = _My_data._Myend;

  0001e	8b 45 f8	 mov	 eax, DWORD PTR __My_data$[ebp]
  00021	83 c0 08	 add	 eax, 8
  00024	89 45 ec	 mov	 DWORD PTR __Myend$[ebp], eax

; 1691 : 
; 1692 :         _My_data._Orphan_all();
; 1693 : 
; 1694 :         if (_Myfirst) { // destroy and deallocate old array

  00027	8b 45 fc	 mov	 eax, DWORD PTR __Myfirst$[ebp]
  0002a	83 38 00	 cmp	 DWORD PTR [eax], 0
  0002d	74 74		 je	 SHORT $LN3@Tidy

; 1695 :             _Destroy(_Myfirst, _Mylast);

  0002f	8b 45 f0	 mov	 eax, DWORD PTR __Mylast$[ebp]
  00032	8b 00		 mov	 eax, DWORD PTR [eax]
  00034	89 45 e0	 mov	 DWORD PTR __Last$[ebp], eax
  00037	8b 45 fc	 mov	 eax, DWORD PTR __Myfirst$[ebp]
  0003a	8b 00		 mov	 eax, DWORD PTR [eax]
  0003c	89 45 dc	 mov	 DWORD PTR __First$[ebp], eax

; 1733 :         return _Mypair._Get_first();

  0003f	8b 45 f4	 mov	 eax, DWORD PTR _this$[ebp]
; File C:\Program Files (x86)\Microsoft Visual Studio\2019\Community\VC\Tools\MSVC\14.28.29333\include\xmemory

; 1347 :         return *this;

  00042	89 45 e8	 mov	 DWORD PTR $T4[ebp], eax
; File C:\Program Files (x86)\Microsoft Visual Studio\2019\Community\VC\Tools\MSVC\14.28.29333\include\vector

; 1733 :         return _Mypair._Get_first();

  00045	8b 45 e8	 mov	 eax, DWORD PTR $T4[ebp]
  00048	89 45 e4	 mov	 DWORD PTR $T3[ebp], eax

; 1612 :         _Destroy_range(_First, _Last, _Getal());

  0004b	ff 75 e4	 push	 DWORD PTR $T3[ebp]
  0004e	ff 75 e0	 push	 DWORD PTR __Last$[ebp]
  00051	ff 75 dc	 push	 DWORD PTR __First$[ebp]
  00054	e8 00 00 00 00	 call	 ??$_Destroy_range@V?$allocator@PAVCAirResistanceDecorator@NEffectUpdateDecorator@@@std@@@std@@YAXPAPAVCAirResistanceDecorator@NEffectUpdateDecorator@@QAPAV12@AAV?$allocator@PAVCAirResistanceDecorator@NEffectUpdateDecorator@@@0@@Z ; std::_Destroy_range<std::allocator<NEffectUpdateDecorator::CAirResistanceDecorator *> >
  00059	83 c4 0c	 add	 esp, 12			; 0000000cH

; 1733 :         return _Mypair._Get_first();

  0005c	8b 45 f4	 mov	 eax, DWORD PTR _this$[ebp]
; File C:\Program Files (x86)\Microsoft Visual Studio\2019\Community\VC\Tools\MSVC\14.28.29333\include\xmemory

; 1347 :         return *this;

  0005f	89 45 d8	 mov	 DWORD PTR $T2[ebp], eax
; File C:\Program Files (x86)\Microsoft Visual Studio\2019\Community\VC\Tools\MSVC\14.28.29333\include\vector

; 1733 :         return _Mypair._Get_first();

  00062	8b 45 d8	 mov	 eax, DWORD PTR $T2[ebp]
  00065	89 45 cc	 mov	 DWORD PTR $T1[ebp], eax

; 1696 :             _Getal().deallocate(_Myfirst, static_cast<size_type>(_Myend - _Myfirst));

  00068	8b 45 ec	 mov	 eax, DWORD PTR __Myend$[ebp]
  0006b	8b 4d fc	 mov	 ecx, DWORD PTR __Myfirst$[ebp]
  0006e	8b 00		 mov	 eax, DWORD PTR [eax]
  00070	2b 01		 sub	 eax, DWORD PTR [ecx]
  00072	c1 f8 02	 sar	 eax, 2
  00075	89 45 d4	 mov	 DWORD PTR __Count$[ebp], eax
  00078	8b 45 fc	 mov	 eax, DWORD PTR __Myfirst$[ebp]
  0007b	8b 00		 mov	 eax, DWORD PTR [eax]
  0007d	89 45 d0	 mov	 DWORD PTR __Ptr$[ebp], eax
; File C:\Program Files (x86)\Microsoft Visual Studio\2019\Community\VC\Tools\MSVC\14.28.29333\include\xmemory

; 810  :         _Deallocate<_New_alignof<_Ty>>(_Ptr, sizeof(_Ty) * _Count);

  00080	8b 45 d4	 mov	 eax, DWORD PTR __Count$[ebp]
  00083	c1 e0 02	 shl	 eax, 2
  00086	50		 push	 eax
  00087	ff 75 d0	 push	 DWORD PTR __Ptr$[ebp]
  0008a	e8 00 00 00 00	 call	 ??$_Deallocate@$07$0A@@std@@YAXPAXI@Z ; std::_Deallocate<8,0>
  0008f	59		 pop	 ecx
  00090	59		 pop	 ecx
; File C:\Program Files (x86)\Microsoft Visual Studio\2019\Community\VC\Tools\MSVC\14.28.29333\include\vector

; 1698 :             _Myfirst = pointer();

  00091	8b 45 fc	 mov	 eax, DWORD PTR __Myfirst$[ebp]
  00094	83 20 00	 and	 DWORD PTR [eax], 0

; 1699 :             _Mylast  = pointer();

  00097	8b 45 f0	 mov	 eax, DWORD PTR __Mylast$[ebp]
  0009a	83 20 00	 and	 DWORD PTR [eax], 0

; 1700 :             _Myend   = pointer();

  0009d	8b 45 ec	 mov	 eax, DWORD PTR __Myend$[ebp]
  000a0	83 20 00	 and	 DWORD PTR [eax], 0
$LN3@Tidy:

; 1701 :         }
; 1702 :     }

  000a3	c9		 leave
  000a4	c3		 ret	 0
?_Tidy@?$vector@PAVCAirResistanceDecorator@NEffectUpdateDecorator@@V?$allocator@PAVCAirResistanceDecorator@NEffectUpdateDecorator@@@std@@@std@@AAEXXZ ENDP ; std::vector<NEffectUpdateDecorator::CAirResistanceDecorator *,std::allocator<NEffectUpdateDecorator::CAirResistanceDecorator *> >::_Tidy
_TEXT	ENDS
; Function compile flags: /Odspy
; File C:\Program Files (x86)\Microsoft Visual Studio\2019\Community\VC\Tools\MSVC\14.28.29333\include\vector
; File C:\Program Files (x86)\Microsoft Visual Studio\2019\Community\VC\Tools\MSVC\14.28.29333\include\xmemory
; File C:\Program Files (x86)\Microsoft Visual Studio\2019\Community\VC\Tools\MSVC\14.28.29333\include\vector
;	COMDAT ?clear@?$vector@PAVCAirResistanceDecorator@NEffectUpdateDecorator@@V?$allocator@PAVCAirResistanceDecorator@NEffectUpdateDecorator@@@std@@@std@@QAEXXZ
_TEXT	SEGMENT
__First$ = -32						; size = 4
__Last$ = -28						; size = 4
$T1 = -24						; size = 4
$T2 = -20						; size = 4
__Myfirst$ = -16					; size = 4
__Mylast$ = -12						; size = 4
_this$ = -8						; size = 4
__My_data$ = -4						; size = 4
?clear@?$vector@PAVCAirResistanceDecorator@NEffectUpdateDecorator@@V?$allocator@PAVCAirResistanceDecorator@NEffectUpdateDecorator@@@std@@@std@@QAEXXZ PROC ; std::vector<NEffectUpdateDecorator::CAirResistanceDecorator *,std::allocator<NEffectUpdateDecorator::CAirResistanceDecorator *> >::clear, COMDAT
; _this$ = ecx

; 1383 :     void clear() noexcept { // erase all

  00000	55		 push	 ebp
  00001	8b ec		 mov	 ebp, esp
  00003	83 ec 20	 sub	 esp, 32			; 00000020H
  00006	89 4d f8	 mov	 DWORD PTR _this$[ebp], ecx

; 1384 :         auto& _My_data    = _Mypair._Myval2;

  00009	8b 45 f8	 mov	 eax, DWORD PTR _this$[ebp]
  0000c	89 45 fc	 mov	 DWORD PTR __My_data$[ebp], eax

; 1385 :         pointer& _Myfirst = _My_data._Myfirst;

  0000f	8b 45 fc	 mov	 eax, DWORD PTR __My_data$[ebp]
  00012	89 45 f0	 mov	 DWORD PTR __Myfirst$[ebp], eax

; 1386 :         pointer& _Mylast  = _My_data._Mylast;

  00015	8b 45 fc	 mov	 eax, DWORD PTR __My_data$[ebp]
  00018	83 c0 04	 add	 eax, 4
  0001b	89 45 f4	 mov	 DWORD PTR __Mylast$[ebp], eax

; 1387 : 
; 1388 :         _My_data._Orphan_all();
; 1389 :         _Destroy(_Myfirst, _Mylast);

  0001e	8b 45 f4	 mov	 eax, DWORD PTR __Mylast$[ebp]
  00021	8b 00		 mov	 eax, DWORD PTR [eax]
  00023	89 45 e4	 mov	 DWORD PTR __Last$[ebp], eax
  00026	8b 45 f0	 mov	 eax, DWORD PTR __Myfirst$[ebp]
  00029	8b 00		 mov	 eax, DWORD PTR [eax]
  0002b	89 45 e0	 mov	 DWORD PTR __First$[ebp], eax

; 1733 :         return _Mypair._Get_first();

  0002e	8b 45 f8	 mov	 eax, DWORD PTR _this$[ebp]
; File C:\Program Files (x86)\Microsoft Visual Studio\2019\Community\VC\Tools\MSVC\14.28.29333\include\xmemory

; 1347 :         return *this;

  00031	89 45 ec	 mov	 DWORD PTR $T2[ebp], eax
; File C:\Program Files (x86)\Microsoft Visual Studio\2019\Community\VC\Tools\MSVC\14.28.29333\include\vector

; 1733 :         return _Mypair._Get_first();

  00034	8b 45 ec	 mov	 eax, DWORD PTR $T2[ebp]
  00037	89 45 e8	 mov	 DWORD PTR $T1[ebp], eax

; 1612 :         _Destroy_range(_First, _Last, _Getal());

  0003a	ff 75 e8	 push	 DWORD PTR $T1[ebp]
  0003d	ff 75 e4	 push	 DWORD PTR __Last$[ebp]
  00040	ff 75 e0	 push	 DWORD PTR __First$[ebp]
  00043	e8 00 00 00 00	 call	 ??$_Destroy_range@V?$allocator@PAVCAirResistanceDecorator@NEffectUpdateDecorator@@@std@@@std@@YAXPAPAVCAirResistanceDecorator@NEffectUpdateDecorator@@QAPAV12@AAV?$allocator@PAVCAirResistanceDecorator@NEffectUpdateDecorator@@@0@@Z ; std::_Destroy_range<std::allocator<NEffectUpdateDecorator::CAirResistanceDecorator *> >
  00048	83 c4 0c	 add	 esp, 12			; 0000000cH

; 1390 :         _Mylast = _Myfirst;

  0004b	8b 45 f4	 mov	 eax, DWORD PTR __Mylast$[ebp]
  0004e	8b 4d f0	 mov	 ecx, DWORD PTR __Myfirst$[ebp]
  00051	8b 09		 mov	 ecx, DWORD PTR [ecx]
  00053	89 08		 mov	 DWORD PTR [eax], ecx

; 1391 :     }

  00055	c9		 leave
  00056	c3		 ret	 0
?clear@?$vector@PAVCAirResistanceDecorator@NEffectUpdateDecorator@@V?$allocator@PAVCAirResistanceDecorator@NEffectUpdateDecorator@@@std@@@std@@QAEXXZ ENDP ; std::vector<NEffectUpdateDecorator::CAirResistanceDecorator *,std::allocator<NEffectUpdateDecorator::CAirResistanceDecorator *> >::clear
_TEXT	ENDS
; Function compile flags: /Odspy
; File D:\Metin2 Server Files\mainline\SRC_2014\Metin2Client\eterLib\Pool.h
;	COMDAT ?Delete@?$CDynamicPoolEx@VCAirResistanceDecorator@NEffectUpdateDecorator@@@@KAXPAVCAirResistanceDecorator@NEffectUpdateDecorator@@@Z
_TEXT	SEGMENT
_pkData$ = 8						; size = 4
?Delete@?$CDynamicPoolEx@VCAirResistanceDecorator@NEffectUpdateDecorator@@@@KAXPAVCAirResistanceDecorator@NEffectUpdateDecorator@@@Z PROC ; CDynamicPoolEx<NEffectUpdateDecorator::CAirResistanceDecorator>::Delete, COMDAT

; 223  : 		{

  00000	55		 push	 ebp
  00001	8b ec		 mov	 ebp, esp

; 224  : 			::operator delete(pkData);

  00003	ff 75 08	 push	 DWORD PTR _pkData$[ebp]
  00006	e8 00 00 00 00	 call	 ??3@YAXPAX@Z		; operator delete
  0000b	59		 pop	 ecx

; 225  : 		}

  0000c	5d		 pop	 ebp
  0000d	c3		 ret	 0
?Delete@?$CDynamicPoolEx@VCAirResistanceDecorator@NEffectUpdateDecorator@@@@KAXPAVCAirResistanceDecorator@NEffectUpdateDecorator@@@Z ENDP ; CDynamicPoolEx<NEffectUpdateDecorator::CAirResistanceDecorator>::Delete
_TEXT	ENDS
; Function compile flags: /Odspy
; File D:\Metin2 Server Files\mainline\SRC_2014\Metin2Client\eterLib\Pool.h
; File C:\Program Files (x86)\Microsoft Visual Studio\2019\Community\VC\Tools\MSVC\14.28.29333\include\vector
; File C:\Program Files (x86)\Microsoft Visual Studio\2019\Community\VC\Tools\MSVC\14.28.29333\include\xstddef
; File C:\Program Files (x86)\Microsoft Visual Studio\2019\Community\VC\Tools\MSVC\14.28.29333\include\vector
; File C:\Program Files (x86)\Microsoft Visual Studio\2019\Community\VC\Tools\MSVC\14.28.29333\include\xstddef
; File C:\Program Files (x86)\Microsoft Visual Studio\2019\Community\VC\Tools\MSVC\14.28.29333\include\vector
; File D:\Metin2 Server Files\mainline\SRC_2014\Metin2Client\eterLib\Pool.h
;	COMDAT ?Destroy@?$CDynamicPoolEx@VCAirResistanceDecorator@NEffectUpdateDecorator@@@@QAEXXZ
_TEXT	SEGMENT
$T1 = -44						; size = 4
$T2 = -40						; size = 4
$T3 = -36						; size = 4
$T4 = -32						; size = 4
$T5 = -28						; size = 4
___param0$ = -24					; size = 4
$T6 = -20						; size = 4
___param0$ = -16					; size = 4
__My_data$7 = -12					; size = 4
__My_data$8 = -8					; size = 4
_this$ = -4						; size = 4
?Destroy@?$CDynamicPoolEx@VCAirResistanceDecorator@NEffectUpdateDecorator@@@@QAEXXZ PROC ; CDynamicPoolEx<NEffectUpdateDecorator::CAirResistanceDecorator>::Destroy, COMDAT
; _this$ = ecx

; 150  : 		{

  00000	55		 push	 ebp
  00001	8b ec		 mov	 ebp, esp
  00003	83 ec 2c	 sub	 esp, 44			; 0000002cH
  00006	89 4d fc	 mov	 DWORD PTR _this$[ebp], ecx
; File C:\Program Files (x86)\Microsoft Visual Studio\2019\Community\VC\Tools\MSVC\14.28.29333\include\vector

; 1420 :         auto& _My_data = _Mypair._Myval2;

  00009	8b 45 fc	 mov	 eax, DWORD PTR _this$[ebp]
  0000c	83 c0 04	 add	 eax, 4
  0000f	89 45 f8	 mov	 DWORD PTR __My_data$8[ebp], eax
; File C:\Program Files (x86)\Microsoft Visual Studio\2019\Community\VC\Tools\MSVC\14.28.29333\include\xstddef

; 275  :     return __builtin_addressof(_Val);

  00012	8b 45 f8	 mov	 eax, DWORD PTR __My_data$8[ebp]
  00015	89 45 d8	 mov	 DWORD PTR $T2[ebp], eax
; File C:\Program Files (x86)\Microsoft Visual Studio\2019\Community\VC\Tools\MSVC\14.28.29333\include\vector

; 1421 :         return iterator(_My_data._Mylast, _STD addressof(_My_data));

  00018	8b 45 f8	 mov	 eax, DWORD PTR __My_data$8[ebp]
  0001b	8b 40 04	 mov	 eax, DWORD PTR [eax+4]
  0001e	89 45 f0	 mov	 DWORD PTR ___param0$[ebp], eax

; 42   :     _Vector_const_iterator(_Tptr _Parg, const _Container_base* _Pvector) noexcept : _Ptr(_Parg) {

  00021	8b 45 f0	 mov	 eax, DWORD PTR ___param0$[ebp]
  00024	89 45 ec	 mov	 DWORD PTR $T6[ebp], eax

; 1421 :         return iterator(_My_data._Mylast, _STD addressof(_My_data));

  00027	8d 45 ec	 lea	 eax, DWORD PTR $T6[ebp]
  0002a	89 45 e0	 mov	 DWORD PTR $T4[ebp], eax

; 1410 :         auto& _My_data = _Mypair._Myval2;

  0002d	8b 45 fc	 mov	 eax, DWORD PTR _this$[ebp]
  00030	83 c0 04	 add	 eax, 4
  00033	89 45 f4	 mov	 DWORD PTR __My_data$7[ebp], eax
; File C:\Program Files (x86)\Microsoft Visual Studio\2019\Community\VC\Tools\MSVC\14.28.29333\include\xstddef

; 275  :     return __builtin_addressof(_Val);

  00036	8b 45 f4	 mov	 eax, DWORD PTR __My_data$7[ebp]
  00039	89 45 d4	 mov	 DWORD PTR $T1[ebp], eax
; File C:\Program Files (x86)\Microsoft Visual Studio\2019\Community\VC\Tools\MSVC\14.28.29333\include\vector

; 1411 :         return iterator(_My_data._Myfirst, _STD addressof(_My_data));

  0003c	8b 45 f4	 mov	 eax, DWORD PTR __My_data$7[ebp]
  0003f	8b 00		 mov	 eax, DWORD PTR [eax]
  00041	89 45 e8	 mov	 DWORD PTR ___param0$[ebp], eax

; 42   :     _Vector_const_iterator(_Tptr _Parg, const _Container_base* _Pvector) noexcept : _Ptr(_Parg) {

  00044	8b 45 e8	 mov	 eax, DWORD PTR ___param0$[ebp]
  00047	89 45 e4	 mov	 DWORD PTR $T5[ebp], eax

; 1411 :         return iterator(_My_data._Myfirst, _STD addressof(_My_data));

  0004a	8d 45 e4	 lea	 eax, DWORD PTR $T5[ebp]
  0004d	89 45 dc	 mov	 DWORD PTR $T3[ebp], eax
; File D:\Metin2 Server Files\mainline\SRC_2014\Metin2Client\eterLib\Pool.h

; 160  : 			std::for_each(m_kVct_pkData.begin(), m_kVct_pkData.end(), Delete);

  00050	68 00 00 00 00	 push	 OFFSET ?Delete@?$CDynamicPoolEx@VCAirResistanceDecorator@NEffectUpdateDecorator@@@@KAXPAVCAirResistanceDecorator@NEffectUpdateDecorator@@@Z ; CDynamicPoolEx<NEffectUpdateDecorator::CAirResistanceDecorator>::Delete
  00055	8b 45 e0	 mov	 eax, DWORD PTR $T4[ebp]
  00058	ff 30		 push	 DWORD PTR [eax]
  0005a	8b 45 dc	 mov	 eax, DWORD PTR $T3[ebp]
  0005d	ff 30		 push	 DWORD PTR [eax]
  0005f	e8 00 00 00 00	 call	 ??$for_each@V?$_Vector_iterator@V?$_Vector_val@U?$_Simple_types@PAVCAirResistanceDecorator@NEffectUpdateDecorator@@@std@@@std@@@std@@P6AXPAVCAirResistanceDecorator@NEffectUpdateDecorator@@@Z@std@@YAP6AXPAVCAirResistanceDecorator@NEffectUpdateDecorator@@@ZV?$_Vector_iterator@V?$_Vector_val@U?$_Simple_types@PAVCAirResistanceDecorator@NEffectUpdateDecorator@@@std@@@std@@@0@1P6AX0@Z@Z ; std::for_each<std::_Vector_iterator<std::_Vector_val<std::_Simple_types<NEffectUpdateDecorator::CAirResistanceDecorator *> > >,void (__cdecl*)(NEffectUpdateDecorator::CAirResistanceDecorator *)>
  00064	83 c4 0c	 add	 esp, 12			; 0000000cH

; 161  : 			m_kVct_pkData.clear();

  00067	8b 4d fc	 mov	 ecx, DWORD PTR _this$[ebp]
  0006a	83 c1 04	 add	 ecx, 4
  0006d	e8 00 00 00 00	 call	 ?clear@?$vector@PAVCAirResistanceDecorator@NEffectUpdateDecorator@@V?$allocator@PAVCAirResistanceDecorator@NEffectUpdateDecorator@@@std@@@std@@QAEXXZ ; std::vector<NEffectUpdateDecorator::CAirResistanceDecorator *,std::allocator<NEffectUpdateDecorator::CAirResistanceDecorator *> >::clear

; 162  : 			m_kVct_pkFree.clear();

  00072	8b 4d fc	 mov	 ecx, DWORD PTR _this$[ebp]
  00075	83 c1 10	 add	 ecx, 16			; 00000010H
  00078	e8 00 00 00 00	 call	 ?clear@?$vector@PAVCAirResistanceDecorator@NEffectUpdateDecorator@@V?$allocator@PAVCAirResistanceDecorator@NEffectUpdateDecorator@@@std@@@std@@QAEXXZ ; std::vector<NEffectUpdateDecorator::CAirResistanceDecorator *,std::allocator<NEffectUpdateDecorator::CAirResistanceDecorator *> >::clear

; 163  : 		}

  0007d	c9		 leave
  0007e	c3		 ret	 0
?Destroy@?$CDynamicPoolEx@VCAirResistanceDecorator@NEffectUpdateDecorator@@@@QAEXXZ ENDP ; CDynamicPoolEx<NEffectUpdateDecorator::CAirResistanceDecorator>::Destroy
_TEXT	ENDS
; Function compile flags: /Odspy
; File D:\Metin2 Server Files\mainline\SRC_2014\Metin2Client\eterLib\Pool.h
; File C:\Program Files (x86)\Microsoft Visual Studio\2019\Community\VC\Tools\MSVC\14.28.29333\include\vector
; File D:\Metin2 Server Files\mainline\SRC_2014\Metin2Client\eterLib\Pool.h
; File C:\Program Files (x86)\Microsoft Visual Studio\2019\Community\VC\Tools\MSVC\14.28.29333\include\vector
; File D:\Metin2 Server Files\mainline\SRC_2014\Metin2Client\eterLib\Pool.h
;	COMDAT ??1?$CDynamicPoolEx@VCAirResistanceDecorator@NEffectUpdateDecorator@@@@UAE@XZ
_TEXT	SEGMENT
_this$ = -16						; size = 4
__$EHRec$ = -12						; size = 12
??1?$CDynamicPoolEx@VCAirResistanceDecorator@NEffectUpdateDecorator@@@@UAE@XZ PROC ; CDynamicPoolEx<NEffectUpdateDecorator::CAirResistanceDecorator>::~CDynamicPoolEx<NEffectUpdateDecorator::CAirResistanceDecorator>, COMDAT
; _this$ = ecx

; 132  : 		{

  00000	55		 push	 ebp
  00001	8b ec		 mov	 ebp, esp
  00003	6a ff		 push	 -1
  00005	68 00 00 00 00	 push	 __ehhandler$??1?$CDynamicPoolEx@VCAirResistanceDecorator@NEffectUpdateDecorator@@@@UAE@XZ
  0000a	64 a1 00 00 00
	00		 mov	 eax, DWORD PTR fs:0
  00010	50		 push	 eax
  00011	51		 push	 ecx
  00012	a1 00 00 00 00	 mov	 eax, DWORD PTR ___security_cookie
  00017	33 c5		 xor	 eax, ebp
  00019	50		 push	 eax
  0001a	8d 45 f4	 lea	 eax, DWORD PTR __$EHRec$[ebp]
  0001d	64 a3 00 00 00
	00		 mov	 DWORD PTR fs:0, eax
  00023	89 4d f0	 mov	 DWORD PTR _this$[ebp], ecx
  00026	8b 45 f0	 mov	 eax, DWORD PTR _this$[ebp]
  00029	c7 00 00 00 00
	00		 mov	 DWORD PTR [eax], OFFSET ??_7?$CDynamicPoolEx@VCAirResistanceDecorator@NEffectUpdateDecorator@@@@6B@

; 133  : 			assert(m_kVct_pkFree.size()==m_kVct_pkData.size());
; 134  : 			Destroy();

  0002f	8b 4d f0	 mov	 ecx, DWORD PTR _this$[ebp]
  00032	e8 00 00 00 00	 call	 ?Destroy@?$CDynamicPoolEx@VCAirResistanceDecorator@NEffectUpdateDecorator@@@@QAEXXZ ; CDynamicPoolEx<NEffectUpdateDecorator::CAirResistanceDecorator>::Destroy

; 142  : 		}

  00037	8b 4d f0	 mov	 ecx, DWORD PTR _this$[ebp]
  0003a	83 c1 10	 add	 ecx, 16			; 00000010H
; File C:\Program Files (x86)\Microsoft Visual Studio\2019\Community\VC\Tools\MSVC\14.28.29333\include\vector

; 673  :         _Tidy();

  0003d	e8 00 00 00 00	 call	 ?_Tidy@?$vector@PAVCAirResistanceDecorator@NEffectUpdateDecorator@@V?$allocator@PAVCAirResistanceDecorator@NEffectUpdateDecorator@@@std@@@std@@AAEXXZ ; std::vector<NEffectUpdateDecorator::CAirResistanceDecorator *,std::allocator<NEffectUpdateDecorator::CAirResistanceDecorator *> >::_Tidy
; File D:\Metin2 Server Files\mainline\SRC_2014\Metin2Client\eterLib\Pool.h

; 142  : 		}

  00042	8b 4d f0	 mov	 ecx, DWORD PTR _this$[ebp]
  00045	83 c1 04	 add	 ecx, 4
; File C:\Program Files (x86)\Microsoft Visual Studio\2019\Community\VC\Tools\MSVC\14.28.29333\include\vector

; 673  :         _Tidy();

  00048	e8 00 00 00 00	 call	 ?_Tidy@?$vector@PAVCAirResistanceDecorator@NEffectUpdateDecorator@@V?$allocator@PAVCAirResistanceDecorator@NEffectUpdateDecorator@@@std@@@std@@AAEXXZ ; std::vector<NEffectUpdateDecorator::CAirResistanceDecorator *,std::allocator<NEffectUpdateDecorator::CAirResistanceDecorator *> >::_Tidy
; File D:\Metin2 Server Files\mainline\SRC_2014\Metin2Client\eterLib\Pool.h

; 142  : 		}

  0004d	8b 4d f4	 mov	 ecx, DWORD PTR __$EHRec$[ebp]
  00050	64 89 0d 00 00
	00 00		 mov	 DWORD PTR fs:0, ecx
  00057	59		 pop	 ecx
  00058	c9		 leave
  00059	c3		 ret	 0
  0005a	cc		 int	 3
  0005b	cc		 int	 3
  0005c	cc		 int	 3
  0005d	cc		 int	 3
  0005e	cc		 int	 3
_TEXT	ENDS
;	COMDAT text$x
text$x	SEGMENT
__ehhandler$??1?$CDynamicPoolEx@VCAirResistanceDecorator@NEffectUpdateDecorator@@@@UAE@XZ:
  00000	90		 npad	 1
  00001	90		 npad	 1
  00002	8b 54 24 08	 mov	 edx, DWORD PTR [esp+8]
  00006	8d 42 0c	 lea	 eax, DWORD PTR [edx+12]
  00009	8b 4a f8	 mov	 ecx, DWORD PTR [edx-8]
  0000c	33 c8		 xor	 ecx, eax
  0000e	e8 00 00 00 00	 call	 @__security_check_cookie@4
  00013	b8 00 00 00 00	 mov	 eax, OFFSET __ehfuncinfo$??1?$CDynamicPoolEx@VCAirResistanceDecorator@NEffectUpdateDecorator@@@@UAE@XZ
  00018	e9 00 00 00 00	 jmp	 ___CxxFrameHandler3
text$x	ENDS
??1?$CDynamicPoolEx@VCAirResistanceDecorator@NEffectUpdateDecorator@@@@UAE@XZ ENDP ; CDynamicPoolEx<NEffectUpdateDecorator::CAirResistanceDecorator>::~CDynamicPoolEx<NEffectUpdateDecorator::CAirResistanceDecorator>
; Function compile flags: /Odspy
; File D:\Metin2 Server Files\mainline\SRC_2014\Metin2Client\eterLib\Pool.h
; File C:\Program Files (x86)\Microsoft Visual Studio\2019\Community\VC\Tools\MSVC\14.28.29333\include\vector
; File C:\Program Files (x86)\Microsoft Visual Studio\2019\Community\VC\Tools\MSVC\14.28.29333\include\xmemory
; File C:\Program Files (x86)\Microsoft Visual Studio\2019\Community\VC\Tools\MSVC\14.28.29333\include\vector
; File D:\Metin2 Server Files\mainline\SRC_2014\Metin2Client\eterLib\Pool.h
; File C:\Program Files (x86)\Microsoft Visual Studio\2019\Community\VC\Tools\MSVC\14.28.29333\include\vector
; File C:\Program Files (x86)\Microsoft Visual Studio\2019\Community\VC\Tools\MSVC\14.28.29333\include\xmemory
; File C:\Program Files (x86)\Microsoft Visual Studio\2019\Community\VC\Tools\MSVC\14.28.29333\include\vector
; File D:\Metin2 Server Files\mainline\SRC_2014\Metin2Client\eterLib\Pool.h
;	COMDAT ??0?$CDynamicPoolEx@VCAirResistanceDecorator@NEffectUpdateDecorator@@@@QAE@XZ
_TEXT	SEGMENT
_this$ = -28						; size = 4
_this$ = -24						; size = 4
_this$ = -20						; size = 4
_this$ = -16						; size = 4
_this$1 = -12						; size = 4
_this$2 = -8						; size = 4
_this$ = -4						; size = 4
??0?$CDynamicPoolEx@VCAirResistanceDecorator@NEffectUpdateDecorator@@@@QAE@XZ PROC ; CDynamicPoolEx<NEffectUpdateDecorator::CAirResistanceDecorator>::CDynamicPoolEx<NEffectUpdateDecorator::CAirResistanceDecorator>, COMDAT
; _this$ = ecx

; 126  : 		CDynamicPoolEx()

  00000	55		 push	 ebp
  00001	8b ec		 mov	 ebp, esp
  00003	83 ec 1c	 sub	 esp, 28			; 0000001cH
  00006	89 4d fc	 mov	 DWORD PTR _this$[ebp], ecx

; 127  : 		{

  00009	8b 45 fc	 mov	 eax, DWORD PTR _this$[ebp]
  0000c	c7 00 00 00 00
	00		 mov	 DWORD PTR [eax], OFFSET ??_7?$CDynamicPoolEx@VCAirResistanceDecorator@NEffectUpdateDecorator@@@@6B@
  00012	8b 45 fc	 mov	 eax, DWORD PTR _this$[ebp]
  00015	83 c0 04	 add	 eax, 4
  00018	89 45 f0	 mov	 DWORD PTR _this$[ebp], eax
; File C:\Program Files (x86)\Microsoft Visual Studio\2019\Community\VC\Tools\MSVC\14.28.29333\include\vector

; 445  :     vector() noexcept(is_nothrow_default_constructible_v<_Alty>) : _Mypair(_Zero_then_variadic_args_t{}) {

  0001b	8b 45 f0	 mov	 eax, DWORD PTR _this$[ebp]
  0001e	89 45 ec	 mov	 DWORD PTR _this$[ebp], eax
; File C:\Program Files (x86)\Microsoft Visual Studio\2019\Community\VC\Tools\MSVC\14.28.29333\include\xmemory

; 1339 :         : _Ty1(), _Myval2(_STD forward<_Other2>(_Val2)...) {}

  00021	8b 45 ec	 mov	 eax, DWORD PTR _this$[ebp]
  00024	89 45 f8	 mov	 DWORD PTR _this$2[ebp], eax
; File C:\Program Files (x86)\Microsoft Visual Studio\2019\Community\VC\Tools\MSVC\14.28.29333\include\vector

; 375  :     _Vector_val() noexcept : _Myfirst(), _Mylast(), _Myend() {}

  00027	8b 45 f8	 mov	 eax, DWORD PTR _this$2[ebp]
  0002a	83 20 00	 and	 DWORD PTR [eax], 0
  0002d	8b 45 f8	 mov	 eax, DWORD PTR _this$2[ebp]
  00030	83 60 04 00	 and	 DWORD PTR [eax+4], 0
  00034	8b 45 f8	 mov	 eax, DWORD PTR _this$2[ebp]
  00037	83 60 08 00	 and	 DWORD PTR [eax+8], 0
; File D:\Metin2 Server Files\mainline\SRC_2014\Metin2Client\eterLib\Pool.h

; 127  : 		{

  0003b	8b 45 fc	 mov	 eax, DWORD PTR _this$[ebp]
  0003e	83 c0 10	 add	 eax, 16			; 00000010H
  00041	89 45 e8	 mov	 DWORD PTR _this$[ebp], eax
; File C:\Program Files (x86)\Microsoft Visual Studio\2019\Community\VC\Tools\MSVC\14.28.29333\include\vector

; 445  :     vector() noexcept(is_nothrow_default_constructible_v<_Alty>) : _Mypair(_Zero_then_variadic_args_t{}) {

  00044	8b 45 e8	 mov	 eax, DWORD PTR _this$[ebp]
  00047	89 45 e4	 mov	 DWORD PTR _this$[ebp], eax
; File C:\Program Files (x86)\Microsoft Visual Studio\2019\Community\VC\Tools\MSVC\14.28.29333\include\xmemory

; 1339 :         : _Ty1(), _Myval2(_STD forward<_Other2>(_Val2)...) {}

  0004a	8b 45 e4	 mov	 eax, DWORD PTR _this$[ebp]
  0004d	89 45 f4	 mov	 DWORD PTR _this$1[ebp], eax
; File C:\Program Files (x86)\Microsoft Visual Studio\2019\Community\VC\Tools\MSVC\14.28.29333\include\vector

; 375  :     _Vector_val() noexcept : _Myfirst(), _Mylast(), _Myend() {}

  00050	8b 45 f4	 mov	 eax, DWORD PTR _this$1[ebp]
  00053	83 20 00	 and	 DWORD PTR [eax], 0
  00056	8b 45 f4	 mov	 eax, DWORD PTR _this$1[ebp]
  00059	83 60 04 00	 and	 DWORD PTR [eax+4], 0
  0005d	8b 45 f4	 mov	 eax, DWORD PTR _this$1[ebp]
  00060	83 60 08 00	 and	 DWORD PTR [eax+8], 0
; File D:\Metin2 Server Files\mainline\SRC_2014\Metin2Client\eterLib\Pool.h

; 128  : 			m_uInitCapacity=0;

  00064	8b 45 fc	 mov	 eax, DWORD PTR _this$[ebp]
  00067	83 60 1c 00	 and	 DWORD PTR [eax+28], 0

; 129  : 			m_uUsedCapacity=0;

  0006b	8b 45 fc	 mov	 eax, DWORD PTR _this$[ebp]
  0006e	83 60 20 00	 and	 DWORD PTR [eax+32], 0

; 130  : 		}

  00072	8b 45 fc	 mov	 eax, DWORD PTR _this$[ebp]
  00075	c9		 leave
  00076	c3		 ret	 0
??0?$CDynamicPoolEx@VCAirResistanceDecorator@NEffectUpdateDecorator@@@@QAE@XZ ENDP ; CDynamicPoolEx<NEffectUpdateDecorator::CAirResistanceDecorator>::CDynamicPoolEx<NEffectUpdateDecorator::CAirResistanceDecorator>
_TEXT	ENDS
; Function compile flags: /Odspy
;	COMDAT ??_G?$CDynamicPoolEx@VCGravityDecorator@NEffectUpdateDecorator@@@@UAEPAXI@Z
_TEXT	SEGMENT
_this$ = -4						; size = 4
___flags$ = 8						; size = 4
??_G?$CDynamicPoolEx@VCGravityDecorator@NEffectUpdateDecorator@@@@UAEPAXI@Z PROC ; CDynamicPoolEx<NEffectUpdateDecorator::CGravityDecorator>::`scalar deleting destructor', COMDAT
; _this$ = ecx
  00000	55		 push	 ebp
  00001	8b ec		 mov	 ebp, esp
  00003	51		 push	 ecx
  00004	89 4d fc	 mov	 DWORD PTR _this$[ebp], ecx
  00007	8b 4d fc	 mov	 ecx, DWORD PTR _this$[ebp]
  0000a	e8 00 00 00 00	 call	 ??1?$CDynamicPoolEx@VCGravityDecorator@NEffectUpdateDecorator@@@@UAE@XZ ; CDynamicPoolEx<NEffectUpdateDecorator::CGravityDecorator>::~CDynamicPoolEx<NEffectUpdateDecorator::CGravityDecorator>
  0000f	8b 45 08	 mov	 eax, DWORD PTR ___flags$[ebp]
  00012	83 e0 01	 and	 eax, 1
  00015	74 0c		 je	 SHORT $LN2@scalar
  00017	6a 24		 push	 36			; 00000024H
  00019	ff 75 fc	 push	 DWORD PTR _this$[ebp]
  0001c	e8 00 00 00 00	 call	 ??3@YAXPAXI@Z		; operator delete
  00021	59		 pop	 ecx
  00022	59		 pop	 ecx
$LN2@scalar:
  00023	8b 45 fc	 mov	 eax, DWORD PTR _this$[ebp]
  00026	c9		 leave
  00027	c2 04 00	 ret	 4
??_G?$CDynamicPoolEx@VCGravityDecorator@NEffectUpdateDecorator@@@@UAEPAXI@Z ENDP ; CDynamicPoolEx<NEffectUpdateDecorator::CGravityDecorator>::`scalar deleting destructor'
_TEXT	ENDS
; Function compile flags: /Odspy
; File C:\Program Files (x86)\Microsoft Visual Studio\2019\Community\VC\Tools\MSVC\14.28.29333\include\vector
; File C:\Program Files (x86)\Microsoft Visual Studio\2019\Community\VC\Tools\MSVC\14.28.29333\include\xmemory
; File C:\Program Files (x86)\Microsoft Visual Studio\2019\Community\VC\Tools\MSVC\14.28.29333\include\vector
; File C:\Program Files (x86)\Microsoft Visual Studio\2019\Community\VC\Tools\MSVC\14.28.29333\include\xmemory
; File C:\Program Files (x86)\Microsoft Visual Studio\2019\Community\VC\Tools\MSVC\14.28.29333\include\vector
; File C:\Program Files (x86)\Microsoft Visual Studio\2019\Community\VC\Tools\MSVC\14.28.29333\include\xmemory
; File C:\Program Files (x86)\Microsoft Visual Studio\2019\Community\VC\Tools\MSVC\14.28.29333\include\vector
;	COMDAT ?_Tidy@?$vector@PAVCGravityDecorator@NEffectUpdateDecorator@@V?$allocator@PAVCGravityDecorator@NEffectUpdateDecorator@@@std@@@std@@AAEXXZ
_TEXT	SEGMENT
$T1 = -52						; size = 4
__Ptr$ = -48						; size = 4
__Count$ = -44						; size = 4
$T2 = -40						; size = 4
__First$ = -36						; size = 4
__Last$ = -32						; size = 4
$T3 = -28						; size = 4
$T4 = -24						; size = 4
__Myend$ = -20						; size = 4
__Mylast$ = -16						; size = 4
_this$ = -12						; size = 4
__My_data$ = -8						; size = 4
__Myfirst$ = -4						; size = 4
?_Tidy@?$vector@PAVCGravityDecorator@NEffectUpdateDecorator@@V?$allocator@PAVCGravityDecorator@NEffectUpdateDecorator@@@std@@@std@@AAEXXZ PROC ; std::vector<NEffectUpdateDecorator::CGravityDecorator *,std::allocator<NEffectUpdateDecorator::CGravityDecorator *> >::_Tidy, COMDAT
; _this$ = ecx

; 1686 :     void _Tidy() noexcept { // free all storage

  00000	55		 push	 ebp
  00001	8b ec		 mov	 ebp, esp
  00003	83 ec 34	 sub	 esp, 52			; 00000034H
  00006	89 4d f4	 mov	 DWORD PTR _this$[ebp], ecx

; 1687 :         auto& _My_data    = _Mypair._Myval2;

  00009	8b 45 f4	 mov	 eax, DWORD PTR _this$[ebp]
  0000c	89 45 f8	 mov	 DWORD PTR __My_data$[ebp], eax

; 1688 :         pointer& _Myfirst = _My_data._Myfirst;

  0000f	8b 45 f8	 mov	 eax, DWORD PTR __My_data$[ebp]
  00012	89 45 fc	 mov	 DWORD PTR __Myfirst$[ebp], eax

; 1689 :         pointer& _Mylast  = _My_data._Mylast;

  00015	8b 45 f8	 mov	 eax, DWORD PTR __My_data$[ebp]
  00018	83 c0 04	 add	 eax, 4
  0001b	89 45 f0	 mov	 DWORD PTR __Mylast$[ebp], eax

; 1690 :         pointer& _Myend   = _My_data._Myend;

  0001e	8b 45 f8	 mov	 eax, DWORD PTR __My_data$[ebp]
  00021	83 c0 08	 add	 eax, 8
  00024	89 45 ec	 mov	 DWORD PTR __Myend$[ebp], eax

; 1691 : 
; 1692 :         _My_data._Orphan_all();
; 1693 : 
; 1694 :         if (_Myfirst) { // destroy and deallocate old array

  00027	8b 45 fc	 mov	 eax, DWORD PTR __Myfirst$[ebp]
  0002a	83 38 00	 cmp	 DWORD PTR [eax], 0
  0002d	74 74		 je	 SHORT $LN3@Tidy

; 1695 :             _Destroy(_Myfirst, _Mylast);

  0002f	8b 45 f0	 mov	 eax, DWORD PTR __Mylast$[ebp]
  00032	8b 00		 mov	 eax, DWORD PTR [eax]
  00034	89 45 e0	 mov	 DWORD PTR __Last$[ebp], eax
  00037	8b 45 fc	 mov	 eax, DWORD PTR __Myfirst$[ebp]
  0003a	8b 00		 mov	 eax, DWORD PTR [eax]
  0003c	89 45 dc	 mov	 DWORD PTR __First$[ebp], eax

; 1733 :         return _Mypair._Get_first();

  0003f	8b 45 f4	 mov	 eax, DWORD PTR _this$[ebp]
; File C:\Program Files (x86)\Microsoft Visual Studio\2019\Community\VC\Tools\MSVC\14.28.29333\include\xmemory

; 1347 :         return *this;

  00042	89 45 e8	 mov	 DWORD PTR $T4[ebp], eax
; File C:\Program Files (x86)\Microsoft Visual Studio\2019\Community\VC\Tools\MSVC\14.28.29333\include\vector

; 1733 :         return _Mypair._Get_first();

  00045	8b 45 e8	 mov	 eax, DWORD PTR $T4[ebp]
  00048	89 45 e4	 mov	 DWORD PTR $T3[ebp], eax

; 1612 :         _Destroy_range(_First, _Last, _Getal());

  0004b	ff 75 e4	 push	 DWORD PTR $T3[ebp]
  0004e	ff 75 e0	 push	 DWORD PTR __Last$[ebp]
  00051	ff 75 dc	 push	 DWORD PTR __First$[ebp]
  00054	e8 00 00 00 00	 call	 ??$_Destroy_range@V?$allocator@PAVCGravityDecorator@NEffectUpdateDecorator@@@std@@@std@@YAXPAPAVCGravityDecorator@NEffectUpdateDecorator@@QAPAV12@AAV?$allocator@PAVCGravityDecorator@NEffectUpdateDecorator@@@0@@Z ; std::_Destroy_range<std::allocator<NEffectUpdateDecorator::CGravityDecorator *> >
  00059	83 c4 0c	 add	 esp, 12			; 0000000cH

; 1733 :         return _Mypair._Get_first();

  0005c	8b 45 f4	 mov	 eax, DWORD PTR _this$[ebp]
; File C:\Program Files (x86)\Microsoft Visual Studio\2019\Community\VC\Tools\MSVC\14.28.29333\include\xmemory

; 1347 :         return *this;

  0005f	89 45 d8	 mov	 DWORD PTR $T2[ebp], eax
; File C:\Program Files (x86)\Microsoft Visual Studio\2019\Community\VC\Tools\MSVC\14.28.29333\include\vector

; 1733 :         return _Mypair._Get_first();

  00062	8b 45 d8	 mov	 eax, DWORD PTR $T2[ebp]
  00065	89 45 cc	 mov	 DWORD PTR $T1[ebp], eax

; 1696 :             _Getal().deallocate(_Myfirst, static_cast<size_type>(_Myend - _Myfirst));

  00068	8b 45 ec	 mov	 eax, DWORD PTR __Myend$[ebp]
  0006b	8b 4d fc	 mov	 ecx, DWORD PTR __Myfirst$[ebp]
  0006e	8b 00		 mov	 eax, DWORD PTR [eax]
  00070	2b 01		 sub	 eax, DWORD PTR [ecx]
  00072	c1 f8 02	 sar	 eax, 2
  00075	89 45 d4	 mov	 DWORD PTR __Count$[ebp], eax
  00078	8b 45 fc	 mov	 eax, DWORD PTR __Myfirst$[ebp]
  0007b	8b 00		 mov	 eax, DWORD PTR [eax]
  0007d	89 45 d0	 mov	 DWORD PTR __Ptr$[ebp], eax
; File C:\Program Files (x86)\Microsoft Visual Studio\2019\Community\VC\Tools\MSVC\14.28.29333\include\xmemory

; 810  :         _Deallocate<_New_alignof<_Ty>>(_Ptr, sizeof(_Ty) * _Count);

  00080	8b 45 d4	 mov	 eax, DWORD PTR __Count$[ebp]
  00083	c1 e0 02	 shl	 eax, 2
  00086	50		 push	 eax
  00087	ff 75 d0	 push	 DWORD PTR __Ptr$[ebp]
  0008a	e8 00 00 00 00	 call	 ??$_Deallocate@$07$0A@@std@@YAXPAXI@Z ; std::_Deallocate<8,0>
  0008f	59		 pop	 ecx
  00090	59		 pop	 ecx
; File C:\Program Files (x86)\Microsoft Visual Studio\2019\Community\VC\Tools\MSVC\14.28.29333\include\vector

; 1698 :             _Myfirst = pointer();

  00091	8b 45 fc	 mov	 eax, DWORD PTR __Myfirst$[ebp]
  00094	83 20 00	 and	 DWORD PTR [eax], 0

; 1699 :             _Mylast  = pointer();

  00097	8b 45 f0	 mov	 eax, DWORD PTR __Mylast$[ebp]
  0009a	83 20 00	 and	 DWORD PTR [eax], 0

; 1700 :             _Myend   = pointer();

  0009d	8b 45 ec	 mov	 eax, DWORD PTR __Myend$[ebp]
  000a0	83 20 00	 and	 DWORD PTR [eax], 0
$LN3@Tidy:

; 1701 :         }
; 1702 :     }

  000a3	c9		 leave
  000a4	c3		 ret	 0
?_Tidy@?$vector@PAVCGravityDecorator@NEffectUpdateDecorator@@V?$allocator@PAVCGravityDecorator@NEffectUpdateDecorator@@@std@@@std@@AAEXXZ ENDP ; std::vector<NEffectUpdateDecorator::CGravityDecorator *,std::allocator<NEffectUpdateDecorator::CGravityDecorator *> >::_Tidy
_TEXT	ENDS
; Function compile flags: /Odspy
; File C:\Program Files (x86)\Microsoft Visual Studio\2019\Community\VC\Tools\MSVC\14.28.29333\include\vector
; File C:\Program Files (x86)\Microsoft Visual Studio\2019\Community\VC\Tools\MSVC\14.28.29333\include\xmemory
; File C:\Program Files (x86)\Microsoft Visual Studio\2019\Community\VC\Tools\MSVC\14.28.29333\include\vector
;	COMDAT ?clear@?$vector@PAVCGravityDecorator@NEffectUpdateDecorator@@V?$allocator@PAVCGravityDecorator@NEffectUpdateDecorator@@@std@@@std@@QAEXXZ
_TEXT	SEGMENT
__First$ = -32						; size = 4
__Last$ = -28						; size = 4
$T1 = -24						; size = 4
$T2 = -20						; size = 4
__Myfirst$ = -16					; size = 4
__Mylast$ = -12						; size = 4
_this$ = -8						; size = 4
__My_data$ = -4						; size = 4
?clear@?$vector@PAVCGravityDecorator@NEffectUpdateDecorator@@V?$allocator@PAVCGravityDecorator@NEffectUpdateDecorator@@@std@@@std@@QAEXXZ PROC ; std::vector<NEffectUpdateDecorator::CGravityDecorator *,std::allocator<NEffectUpdateDecorator::CGravityDecorator *> >::clear, COMDAT
; _this$ = ecx

; 1383 :     void clear() noexcept { // erase all

  00000	55		 push	 ebp
  00001	8b ec		 mov	 ebp, esp
  00003	83 ec 20	 sub	 esp, 32			; 00000020H
  00006	89 4d f8	 mov	 DWORD PTR _this$[ebp], ecx

; 1384 :         auto& _My_data    = _Mypair._Myval2;

  00009	8b 45 f8	 mov	 eax, DWORD PTR _this$[ebp]
  0000c	89 45 fc	 mov	 DWORD PTR __My_data$[ebp], eax

; 1385 :         pointer& _Myfirst = _My_data._Myfirst;

  0000f	8b 45 fc	 mov	 eax, DWORD PTR __My_data$[ebp]
  00012	89 45 f0	 mov	 DWORD PTR __Myfirst$[ebp], eax

; 1386 :         pointer& _Mylast  = _My_data._Mylast;

  00015	8b 45 fc	 mov	 eax, DWORD PTR __My_data$[ebp]
  00018	83 c0 04	 add	 eax, 4
  0001b	89 45 f4	 mov	 DWORD PTR __Mylast$[ebp], eax

; 1387 : 
; 1388 :         _My_data._Orphan_all();
; 1389 :         _Destroy(_Myfirst, _Mylast);

  0001e	8b 45 f4	 mov	 eax, DWORD PTR __Mylast$[ebp]
  00021	8b 00		 mov	 eax, DWORD PTR [eax]
  00023	89 45 e4	 mov	 DWORD PTR __Last$[ebp], eax
  00026	8b 45 f0	 mov	 eax, DWORD PTR __Myfirst$[ebp]
  00029	8b 00		 mov	 eax, DWORD PTR [eax]
  0002b	89 45 e0	 mov	 DWORD PTR __First$[ebp], eax

; 1733 :         return _Mypair._Get_first();

  0002e	8b 45 f8	 mov	 eax, DWORD PTR _this$[ebp]
; File C:\Program Files (x86)\Microsoft Visual Studio\2019\Community\VC\Tools\MSVC\14.28.29333\include\xmemory

; 1347 :         return *this;

  00031	89 45 ec	 mov	 DWORD PTR $T2[ebp], eax
; File C:\Program Files (x86)\Microsoft Visual Studio\2019\Community\VC\Tools\MSVC\14.28.29333\include\vector

; 1733 :         return _Mypair._Get_first();

  00034	8b 45 ec	 mov	 eax, DWORD PTR $T2[ebp]
  00037	89 45 e8	 mov	 DWORD PTR $T1[ebp], eax

; 1612 :         _Destroy_range(_First, _Last, _Getal());

  0003a	ff 75 e8	 push	 DWORD PTR $T1[ebp]
  0003d	ff 75 e4	 push	 DWORD PTR __Last$[ebp]
  00040	ff 75 e0	 push	 DWORD PTR __First$[ebp]
  00043	e8 00 00 00 00	 call	 ??$_Destroy_range@V?$allocator@PAVCGravityDecorator@NEffectUpdateDecorator@@@std@@@std@@YAXPAPAVCGravityDecorator@NEffectUpdateDecorator@@QAPAV12@AAV?$allocator@PAVCGravityDecorator@NEffectUpdateDecorator@@@0@@Z ; std::_Destroy_range<std::allocator<NEffectUpdateDecorator::CGravityDecorator *> >
  00048	83 c4 0c	 add	 esp, 12			; 0000000cH

; 1390 :         _Mylast = _Myfirst;

  0004b	8b 45 f4	 mov	 eax, DWORD PTR __Mylast$[ebp]
  0004e	8b 4d f0	 mov	 ecx, DWORD PTR __Myfirst$[ebp]
  00051	8b 09		 mov	 ecx, DWORD PTR [ecx]
  00053	89 08		 mov	 DWORD PTR [eax], ecx

; 1391 :     }

  00055	c9		 leave
  00056	c3		 ret	 0
?clear@?$vector@PAVCGravityDecorator@NEffectUpdateDecorator@@V?$allocator@PAVCGravityDecorator@NEffectUpdateDecorator@@@std@@@std@@QAEXXZ ENDP ; std::vector<NEffectUpdateDecorator::CGravityDecorator *,std::allocator<NEffectUpdateDecorator::CGravityDecorator *> >::clear
_TEXT	ENDS
; Function compile flags: /Odspy
; File D:\Metin2 Server Files\mainline\SRC_2014\Metin2Client\eterLib\Pool.h
;	COMDAT ?Delete@?$CDynamicPoolEx@VCGravityDecorator@NEffectUpdateDecorator@@@@KAXPAVCGravityDecorator@NEffectUpdateDecorator@@@Z
_TEXT	SEGMENT
_pkData$ = 8						; size = 4
?Delete@?$CDynamicPoolEx@VCGravityDecorator@NEffectUpdateDecorator@@@@KAXPAVCGravityDecorator@NEffectUpdateDecorator@@@Z PROC ; CDynamicPoolEx<NEffectUpdateDecorator::CGravityDecorator>::Delete, COMDAT

; 223  : 		{

  00000	55		 push	 ebp
  00001	8b ec		 mov	 ebp, esp

; 224  : 			::operator delete(pkData);

  00003	ff 75 08	 push	 DWORD PTR _pkData$[ebp]
  00006	e8 00 00 00 00	 call	 ??3@YAXPAX@Z		; operator delete
  0000b	59		 pop	 ecx

; 225  : 		}

  0000c	5d		 pop	 ebp
  0000d	c3		 ret	 0
?Delete@?$CDynamicPoolEx@VCGravityDecorator@NEffectUpdateDecorator@@@@KAXPAVCGravityDecorator@NEffectUpdateDecorator@@@Z ENDP ; CDynamicPoolEx<NEffectUpdateDecorator::CGravityDecorator>::Delete
_TEXT	ENDS
; Function compile flags: /Odspy
; File D:\Metin2 Server Files\mainline\SRC_2014\Metin2Client\eterLib\Pool.h
; File C:\Program Files (x86)\Microsoft Visual Studio\2019\Community\VC\Tools\MSVC\14.28.29333\include\vector
; File C:\Program Files (x86)\Microsoft Visual Studio\2019\Community\VC\Tools\MSVC\14.28.29333\include\xstddef
; File C:\Program Files (x86)\Microsoft Visual Studio\2019\Community\VC\Tools\MSVC\14.28.29333\include\vector
; File C:\Program Files (x86)\Microsoft Visual Studio\2019\Community\VC\Tools\MSVC\14.28.29333\include\xstddef
; File C:\Program Files (x86)\Microsoft Visual Studio\2019\Community\VC\Tools\MSVC\14.28.29333\include\vector
; File D:\Metin2 Server Files\mainline\SRC_2014\Metin2Client\eterLib\Pool.h
;	COMDAT ?Destroy@?$CDynamicPoolEx@VCGravityDecorator@NEffectUpdateDecorator@@@@QAEXXZ
_TEXT	SEGMENT
$T1 = -44						; size = 4
$T2 = -40						; size = 4
$T3 = -36						; size = 4
$T4 = -32						; size = 4
$T5 = -28						; size = 4
___param0$ = -24					; size = 4
$T6 = -20						; size = 4
___param0$ = -16					; size = 4
__My_data$7 = -12					; size = 4
__My_data$8 = -8					; size = 4
_this$ = -4						; size = 4
?Destroy@?$CDynamicPoolEx@VCGravityDecorator@NEffectUpdateDecorator@@@@QAEXXZ PROC ; CDynamicPoolEx<NEffectUpdateDecorator::CGravityDecorator>::Destroy, COMDAT
; _this$ = ecx

; 150  : 		{

  00000	55		 push	 ebp
  00001	8b ec		 mov	 ebp, esp
  00003	83 ec 2c	 sub	 esp, 44			; 0000002cH
  00006	89 4d fc	 mov	 DWORD PTR _this$[ebp], ecx
; File C:\Program Files (x86)\Microsoft Visual Studio\2019\Community\VC\Tools\MSVC\14.28.29333\include\vector

; 1420 :         auto& _My_data = _Mypair._Myval2;

  00009	8b 45 fc	 mov	 eax, DWORD PTR _this$[ebp]
  0000c	83 c0 04	 add	 eax, 4
  0000f	89 45 f8	 mov	 DWORD PTR __My_data$8[ebp], eax
; File C:\Program Files (x86)\Microsoft Visual Studio\2019\Community\VC\Tools\MSVC\14.28.29333\include\xstddef

; 275  :     return __builtin_addressof(_Val);

  00012	8b 45 f8	 mov	 eax, DWORD PTR __My_data$8[ebp]
  00015	89 45 d8	 mov	 DWORD PTR $T2[ebp], eax
; File C:\Program Files (x86)\Microsoft Visual Studio\2019\Community\VC\Tools\MSVC\14.28.29333\include\vector

; 1421 :         return iterator(_My_data._Mylast, _STD addressof(_My_data));

  00018	8b 45 f8	 mov	 eax, DWORD PTR __My_data$8[ebp]
  0001b	8b 40 04	 mov	 eax, DWORD PTR [eax+4]
  0001e	89 45 f0	 mov	 DWORD PTR ___param0$[ebp], eax

; 42   :     _Vector_const_iterator(_Tptr _Parg, const _Container_base* _Pvector) noexcept : _Ptr(_Parg) {

  00021	8b 45 f0	 mov	 eax, DWORD PTR ___param0$[ebp]
  00024	89 45 ec	 mov	 DWORD PTR $T6[ebp], eax

; 1421 :         return iterator(_My_data._Mylast, _STD addressof(_My_data));

  00027	8d 45 ec	 lea	 eax, DWORD PTR $T6[ebp]
  0002a	89 45 e0	 mov	 DWORD PTR $T4[ebp], eax

; 1410 :         auto& _My_data = _Mypair._Myval2;

  0002d	8b 45 fc	 mov	 eax, DWORD PTR _this$[ebp]
  00030	83 c0 04	 add	 eax, 4
  00033	89 45 f4	 mov	 DWORD PTR __My_data$7[ebp], eax
; File C:\Program Files (x86)\Microsoft Visual Studio\2019\Community\VC\Tools\MSVC\14.28.29333\include\xstddef

; 275  :     return __builtin_addressof(_Val);

  00036	8b 45 f4	 mov	 eax, DWORD PTR __My_data$7[ebp]
  00039	89 45 d4	 mov	 DWORD PTR $T1[ebp], eax
; File C:\Program Files (x86)\Microsoft Visual Studio\2019\Community\VC\Tools\MSVC\14.28.29333\include\vector

; 1411 :         return iterator(_My_data._Myfirst, _STD addressof(_My_data));

  0003c	8b 45 f4	 mov	 eax, DWORD PTR __My_data$7[ebp]
  0003f	8b 00		 mov	 eax, DWORD PTR [eax]
  00041	89 45 e8	 mov	 DWORD PTR ___param0$[ebp], eax

; 42   :     _Vector_const_iterator(_Tptr _Parg, const _Container_base* _Pvector) noexcept : _Ptr(_Parg) {

  00044	8b 45 e8	 mov	 eax, DWORD PTR ___param0$[ebp]
  00047	89 45 e4	 mov	 DWORD PTR $T5[ebp], eax

; 1411 :         return iterator(_My_data._Myfirst, _STD addressof(_My_data));

  0004a	8d 45 e4	 lea	 eax, DWORD PTR $T5[ebp]
  0004d	89 45 dc	 mov	 DWORD PTR $T3[ebp], eax
; File D:\Metin2 Server Files\mainline\SRC_2014\Metin2Client\eterLib\Pool.h

; 160  : 			std::for_each(m_kVct_pkData.begin(), m_kVct_pkData.end(), Delete);

  00050	68 00 00 00 00	 push	 OFFSET ?Delete@?$CDynamicPoolEx@VCGravityDecorator@NEffectUpdateDecorator@@@@KAXPAVCGravityDecorator@NEffectUpdateDecorator@@@Z ; CDynamicPoolEx<NEffectUpdateDecorator::CGravityDecorator>::Delete
  00055	8b 45 e0	 mov	 eax, DWORD PTR $T4[ebp]
  00058	ff 30		 push	 DWORD PTR [eax]
  0005a	8b 45 dc	 mov	 eax, DWORD PTR $T3[ebp]
  0005d	ff 30		 push	 DWORD PTR [eax]
  0005f	e8 00 00 00 00	 call	 ??$for_each@V?$_Vector_iterator@V?$_Vector_val@U?$_Simple_types@PAVCGravityDecorator@NEffectUpdateDecorator@@@std@@@std@@@std@@P6AXPAVCGravityDecorator@NEffectUpdateDecorator@@@Z@std@@YAP6AXPAVCGravityDecorator@NEffectUpdateDecorator@@@ZV?$_Vector_iterator@V?$_Vector_val@U?$_Simple_types@PAVCGravityDecorator@NEffectUpdateDecorator@@@std@@@std@@@0@1P6AX0@Z@Z ; std::for_each<std::_Vector_iterator<std::_Vector_val<std::_Simple_types<NEffectUpdateDecorator::CGravityDecorator *> > >,void (__cdecl*)(NEffectUpdateDecorator::CGravityDecorator *)>
  00064	83 c4 0c	 add	 esp, 12			; 0000000cH

; 161  : 			m_kVct_pkData.clear();

  00067	8b 4d fc	 mov	 ecx, DWORD PTR _this$[ebp]
  0006a	83 c1 04	 add	 ecx, 4
  0006d	e8 00 00 00 00	 call	 ?clear@?$vector@PAVCGravityDecorator@NEffectUpdateDecorator@@V?$allocator@PAVCGravityDecorator@NEffectUpdateDecorator@@@std@@@std@@QAEXXZ ; std::vector<NEffectUpdateDecorator::CGravityDecorator *,std::allocator<NEffectUpdateDecorator::CGravityDecorator *> >::clear

; 162  : 			m_kVct_pkFree.clear();

  00072	8b 4d fc	 mov	 ecx, DWORD PTR _this$[ebp]
  00075	83 c1 10	 add	 ecx, 16			; 00000010H
  00078	e8 00 00 00 00	 call	 ?clear@?$vector@PAVCGravityDecorator@NEffectUpdateDecorator@@V?$allocator@PAVCGravityDecorator@NEffectUpdateDecorator@@@std@@@std@@QAEXXZ ; std::vector<NEffectUpdateDecorator::CGravityDecorator *,std::allocator<NEffectUpdateDecorator::CGravityDecorator *> >::clear

; 163  : 		}

  0007d	c9		 leave
  0007e	c3		 ret	 0
?Destroy@?$CDynamicPoolEx@VCGravityDecorator@NEffectUpdateDecorator@@@@QAEXXZ ENDP ; CDynamicPoolEx<NEffectUpdateDecorator::CGravityDecorator>::Destroy
_TEXT	ENDS
; Function compile flags: /Odspy
; File D:\Metin2 Server Files\mainline\SRC_2014\Metin2Client\eterLib\Pool.h
; File C:\Program Files (x86)\Microsoft Visual Studio\2019\Community\VC\Tools\MSVC\14.28.29333\include\vector
; File D:\Metin2 Server Files\mainline\SRC_2014\Metin2Client\eterLib\Pool.h
; File C:\Program Files (x86)\Microsoft Visual Studio\2019\Community\VC\Tools\MSVC\14.28.29333\include\vector
; File D:\Metin2 Server Files\mainline\SRC_2014\Metin2Client\eterLib\Pool.h
;	COMDAT ??1?$CDynamicPoolEx@VCGravityDecorator@NEffectUpdateDecorator@@@@UAE@XZ
_TEXT	SEGMENT
_this$ = -16						; size = 4
__$EHRec$ = -12						; size = 12
??1?$CDynamicPoolEx@VCGravityDecorator@NEffectUpdateDecorator@@@@UAE@XZ PROC ; CDynamicPoolEx<NEffectUpdateDecorator::CGravityDecorator>::~CDynamicPoolEx<NEffectUpdateDecorator::CGravityDecorator>, COMDAT
; _this$ = ecx

; 132  : 		{

  00000	55		 push	 ebp
  00001	8b ec		 mov	 ebp, esp
  00003	6a ff		 push	 -1
  00005	68 00 00 00 00	 push	 __ehhandler$??1?$CDynamicPoolEx@VCGravityDecorator@NEffectUpdateDecorator@@@@UAE@XZ
  0000a	64 a1 00 00 00
	00		 mov	 eax, DWORD PTR fs:0
  00010	50		 push	 eax
  00011	51		 push	 ecx
  00012	a1 00 00 00 00	 mov	 eax, DWORD PTR ___security_cookie
  00017	33 c5		 xor	 eax, ebp
  00019	50		 push	 eax
  0001a	8d 45 f4	 lea	 eax, DWORD PTR __$EHRec$[ebp]
  0001d	64 a3 00 00 00
	00		 mov	 DWORD PTR fs:0, eax
  00023	89 4d f0	 mov	 DWORD PTR _this$[ebp], ecx
  00026	8b 45 f0	 mov	 eax, DWORD PTR _this$[ebp]
  00029	c7 00 00 00 00
	00		 mov	 DWORD PTR [eax], OFFSET ??_7?$CDynamicPoolEx@VCGravityDecorator@NEffectUpdateDecorator@@@@6B@

; 133  : 			assert(m_kVct_pkFree.size()==m_kVct_pkData.size());
; 134  : 			Destroy();

  0002f	8b 4d f0	 mov	 ecx, DWORD PTR _this$[ebp]
  00032	e8 00 00 00 00	 call	 ?Destroy@?$CDynamicPoolEx@VCGravityDecorator@NEffectUpdateDecorator@@@@QAEXXZ ; CDynamicPoolEx<NEffectUpdateDecorator::CGravityDecorator>::Destroy

; 142  : 		}

  00037	8b 4d f0	 mov	 ecx, DWORD PTR _this$[ebp]
  0003a	83 c1 10	 add	 ecx, 16			; 00000010H
; File C:\Program Files (x86)\Microsoft Visual Studio\2019\Community\VC\Tools\MSVC\14.28.29333\include\vector

; 673  :         _Tidy();

  0003d	e8 00 00 00 00	 call	 ?_Tidy@?$vector@PAVCGravityDecorator@NEffectUpdateDecorator@@V?$allocator@PAVCGravityDecorator@NEffectUpdateDecorator@@@std@@@std@@AAEXXZ ; std::vector<NEffectUpdateDecorator::CGravityDecorator *,std::allocator<NEffectUpdateDecorator::CGravityDecorator *> >::_Tidy
; File D:\Metin2 Server Files\mainline\SRC_2014\Metin2Client\eterLib\Pool.h

; 142  : 		}

  00042	8b 4d f0	 mov	 ecx, DWORD PTR _this$[ebp]
  00045	83 c1 04	 add	 ecx, 4
; File C:\Program Files (x86)\Microsoft Visual Studio\2019\Community\VC\Tools\MSVC\14.28.29333\include\vector

; 673  :         _Tidy();

  00048	e8 00 00 00 00	 call	 ?_Tidy@?$vector@PAVCGravityDecorator@NEffectUpdateDecorator@@V?$allocator@PAVCGravityDecorator@NEffectUpdateDecorator@@@std@@@std@@AAEXXZ ; std::vector<NEffectUpdateDecorator::CGravityDecorator *,std::allocator<NEffectUpdateDecorator::CGravityDecorator *> >::_Tidy
; File D:\Metin2 Server Files\mainline\SRC_2014\Metin2Client\eterLib\Pool.h

; 142  : 		}

  0004d	8b 4d f4	 mov	 ecx, DWORD PTR __$EHRec$[ebp]
  00050	64 89 0d 00 00
	00 00		 mov	 DWORD PTR fs:0, ecx
  00057	59		 pop	 ecx
  00058	c9		 leave
  00059	c3		 ret	 0
  0005a	cc		 int	 3
  0005b	cc		 int	 3
  0005c	cc		 int	 3
  0005d	cc		 int	 3
  0005e	cc		 int	 3
_TEXT	ENDS
;	COMDAT text$x
text$x	SEGMENT
__ehhandler$??1?$CDynamicPoolEx@VCGravityDecorator@NEffectUpdateDecorator@@@@UAE@XZ:
  00000	90		 npad	 1
  00001	90		 npad	 1
  00002	8b 54 24 08	 mov	 edx, DWORD PTR [esp+8]
  00006	8d 42 0c	 lea	 eax, DWORD PTR [edx+12]
  00009	8b 4a f8	 mov	 ecx, DWORD PTR [edx-8]
  0000c	33 c8		 xor	 ecx, eax
  0000e	e8 00 00 00 00	 call	 @__security_check_cookie@4
  00013	b8 00 00 00 00	 mov	 eax, OFFSET __ehfuncinfo$??1?$CDynamicPoolEx@VCGravityDecorator@NEffectUpdateDecorator@@@@UAE@XZ
  00018	e9 00 00 00 00	 jmp	 ___CxxFrameHandler3
text$x	ENDS
??1?$CDynamicPoolEx@VCGravityDecorator@NEffectUpdateDecorator@@@@UAE@XZ ENDP ; CDynamicPoolEx<NEffectUpdateDecorator::CGravityDecorator>::~CDynamicPoolEx<NEffectUpdateDecorator::CGravityDecorator>
; Function compile flags: /Odspy
; File D:\Metin2 Server Files\mainline\SRC_2014\Metin2Client\eterLib\Pool.h
; File C:\Program Files (x86)\Microsoft Visual Studio\2019\Community\VC\Tools\MSVC\14.28.29333\include\vector
; File C:\Program Files (x86)\Microsoft Visual Studio\2019\Community\VC\Tools\MSVC\14.28.29333\include\xmemory
; File C:\Program Files (x86)\Microsoft Visual Studio\2019\Community\VC\Tools\MSVC\14.28.29333\include\vector
; File D:\Metin2 Server Files\mainline\SRC_2014\Metin2Client\eterLib\Pool.h
; File C:\Program Files (x86)\Microsoft Visual Studio\2019\Community\VC\Tools\MSVC\14.28.29333\include\vector
; File C:\Program Files (x86)\Microsoft Visual Studio\2019\Community\VC\Tools\MSVC\14.28.29333\include\xmemory
; File C:\Program Files (x86)\Microsoft Visual Studio\2019\Community\VC\Tools\MSVC\14.28.29333\include\vector
; File D:\Metin2 Server Files\mainline\SRC_2014\Metin2Client\eterLib\Pool.h
;	COMDAT ??0?$CDynamicPoolEx@VCGravityDecorator@NEffectUpdateDecorator@@@@QAE@XZ
_TEXT	SEGMENT
_this$ = -28						; size = 4
_this$ = -24						; size = 4
_this$ = -20						; size = 4
_this$ = -16						; size = 4
_this$1 = -12						; size = 4
_this$2 = -8						; size = 4
_this$ = -4						; size = 4
??0?$CDynamicPoolEx@VCGravityDecorator@NEffectUpdateDecorator@@@@QAE@XZ PROC ; CDynamicPoolEx<NEffectUpdateDecorator::CGravityDecorator>::CDynamicPoolEx<NEffectUpdateDecorator::CGravityDecorator>, COMDAT
; _this$ = ecx

; 126  : 		CDynamicPoolEx()

  00000	55		 push	 ebp
  00001	8b ec		 mov	 ebp, esp
  00003	83 ec 1c	 sub	 esp, 28			; 0000001cH
  00006	89 4d fc	 mov	 DWORD PTR _this$[ebp], ecx

; 127  : 		{

  00009	8b 45 fc	 mov	 eax, DWORD PTR _this$[ebp]
  0000c	c7 00 00 00 00
	00		 mov	 DWORD PTR [eax], OFFSET ??_7?$CDynamicPoolEx@VCGravityDecorator@NEffectUpdateDecorator@@@@6B@
  00012	8b 45 fc	 mov	 eax, DWORD PTR _this$[ebp]
  00015	83 c0 04	 add	 eax, 4
  00018	89 45 f0	 mov	 DWORD PTR _this$[ebp], eax
; File C:\Program Files (x86)\Microsoft Visual Studio\2019\Community\VC\Tools\MSVC\14.28.29333\include\vector

; 445  :     vector() noexcept(is_nothrow_default_constructible_v<_Alty>) : _Mypair(_Zero_then_variadic_args_t{}) {

  0001b	8b 45 f0	 mov	 eax, DWORD PTR _this$[ebp]
  0001e	89 45 ec	 mov	 DWORD PTR _this$[ebp], eax
; File C:\Program Files (x86)\Microsoft Visual Studio\2019\Community\VC\Tools\MSVC\14.28.29333\include\xmemory

; 1339 :         : _Ty1(), _Myval2(_STD forward<_Other2>(_Val2)...) {}

  00021	8b 45 ec	 mov	 eax, DWORD PTR _this$[ebp]
  00024	89 45 f8	 mov	 DWORD PTR _this$2[ebp], eax
; File C:\Program Files (x86)\Microsoft Visual Studio\2019\Community\VC\Tools\MSVC\14.28.29333\include\vector

; 375  :     _Vector_val() noexcept : _Myfirst(), _Mylast(), _Myend() {}

  00027	8b 45 f8	 mov	 eax, DWORD PTR _this$2[ebp]
  0002a	83 20 00	 and	 DWORD PTR [eax], 0
  0002d	8b 45 f8	 mov	 eax, DWORD PTR _this$2[ebp]
  00030	83 60 04 00	 and	 DWORD PTR [eax+4], 0
  00034	8b 45 f8	 mov	 eax, DWORD PTR _this$2[ebp]
  00037	83 60 08 00	 and	 DWORD PTR [eax+8], 0
; File D:\Metin2 Server Files\mainline\SRC_2014\Metin2Client\eterLib\Pool.h

; 127  : 		{

  0003b	8b 45 fc	 mov	 eax, DWORD PTR _this$[ebp]
  0003e	83 c0 10	 add	 eax, 16			; 00000010H
  00041	89 45 e8	 mov	 DWORD PTR _this$[ebp], eax
; File C:\Program Files (x86)\Microsoft Visual Studio\2019\Community\VC\Tools\MSVC\14.28.29333\include\vector

; 445  :     vector() noexcept(is_nothrow_default_constructible_v<_Alty>) : _Mypair(_Zero_then_variadic_args_t{}) {

  00044	8b 45 e8	 mov	 eax, DWORD PTR _this$[ebp]
  00047	89 45 e4	 mov	 DWORD PTR _this$[ebp], eax
; File C:\Program Files (x86)\Microsoft Visual Studio\2019\Community\VC\Tools\MSVC\14.28.29333\include\xmemory

; 1339 :         : _Ty1(), _Myval2(_STD forward<_Other2>(_Val2)...) {}

  0004a	8b 45 e4	 mov	 eax, DWORD PTR _this$[ebp]
  0004d	89 45 f4	 mov	 DWORD PTR _this$1[ebp], eax
; File C:\Program Files (x86)\Microsoft Visual Studio\2019\Community\VC\Tools\MSVC\14.28.29333\include\vector

; 375  :     _Vector_val() noexcept : _Myfirst(), _Mylast(), _Myend() {}

  00050	8b 45 f4	 mov	 eax, DWORD PTR _this$1[ebp]
  00053	83 20 00	 and	 DWORD PTR [eax], 0
  00056	8b 45 f4	 mov	 eax, DWORD PTR _this$1[ebp]
  00059	83 60 04 00	 and	 DWORD PTR [eax+4], 0
  0005d	8b 45 f4	 mov	 eax, DWORD PTR _this$1[ebp]
  00060	83 60 08 00	 and	 DWORD PTR [eax+8], 0
; File D:\Metin2 Server Files\mainline\SRC_2014\Metin2Client\eterLib\Pool.h

; 128  : 			m_uInitCapacity=0;

  00064	8b 45 fc	 mov	 eax, DWORD PTR _this$[ebp]
  00067	83 60 1c 00	 and	 DWORD PTR [eax+28], 0

; 129  : 			m_uUsedCapacity=0;

  0006b	8b 45 fc	 mov	 eax, DWORD PTR _this$[ebp]
  0006e	83 60 20 00	 and	 DWORD PTR [eax+32], 0

; 130  : 		}

  00072	8b 45 fc	 mov	 eax, DWORD PTR _this$[ebp]
  00075	c9		 leave
  00076	c3		 ret	 0
??0?$CDynamicPoolEx@VCGravityDecorator@NEffectUpdateDecorator@@@@QAE@XZ ENDP ; CDynamicPoolEx<NEffectUpdateDecorator::CGravityDecorator>::CDynamicPoolEx<NEffectUpdateDecorator::CGravityDecorator>
_TEXT	ENDS
; Function compile flags: /Odspy
;	COMDAT ??_G?$CDynamicPoolEx@VCRotationDecorator@NEffectUpdateDecorator@@@@UAEPAXI@Z
_TEXT	SEGMENT
_this$ = -4						; size = 4
___flags$ = 8						; size = 4
??_G?$CDynamicPoolEx@VCRotationDecorator@NEffectUpdateDecorator@@@@UAEPAXI@Z PROC ; CDynamicPoolEx<NEffectUpdateDecorator::CRotationDecorator>::`scalar deleting destructor', COMDAT
; _this$ = ecx
  00000	55		 push	 ebp
  00001	8b ec		 mov	 ebp, esp
  00003	51		 push	 ecx
  00004	89 4d fc	 mov	 DWORD PTR _this$[ebp], ecx
  00007	8b 4d fc	 mov	 ecx, DWORD PTR _this$[ebp]
  0000a	e8 00 00 00 00	 call	 ??1?$CDynamicPoolEx@VCRotationDecorator@NEffectUpdateDecorator@@@@UAE@XZ ; CDynamicPoolEx<NEffectUpdateDecorator::CRotationDecorator>::~CDynamicPoolEx<NEffectUpdateDecorator::CRotationDecorator>
  0000f	8b 45 08	 mov	 eax, DWORD PTR ___flags$[ebp]
  00012	83 e0 01	 and	 eax, 1
  00015	74 0c		 je	 SHORT $LN2@scalar
  00017	6a 24		 push	 36			; 00000024H
  00019	ff 75 fc	 push	 DWORD PTR _this$[ebp]
  0001c	e8 00 00 00 00	 call	 ??3@YAXPAXI@Z		; operator delete
  00021	59		 pop	 ecx
  00022	59		 pop	 ecx
$LN2@scalar:
  00023	8b 45 fc	 mov	 eax, DWORD PTR _this$[ebp]
  00026	c9		 leave
  00027	c2 04 00	 ret	 4
??_G?$CDynamicPoolEx@VCRotationDecorator@NEffectUpdateDecorator@@@@UAEPAXI@Z ENDP ; CDynamicPoolEx<NEffectUpdateDecorator::CRotationDecorator>::`scalar deleting destructor'
_TEXT	ENDS
; Function compile flags: /Odspy
; File C:\Program Files (x86)\Microsoft Visual Studio\2019\Community\VC\Tools\MSVC\14.28.29333\include\vector
; File C:\Program Files (x86)\Microsoft Visual Studio\2019\Community\VC\Tools\MSVC\14.28.29333\include\xmemory
; File C:\Program Files (x86)\Microsoft Visual Studio\2019\Community\VC\Tools\MSVC\14.28.29333\include\vector
; File C:\Program Files (x86)\Microsoft Visual Studio\2019\Community\VC\Tools\MSVC\14.28.29333\include\xmemory
; File C:\Program Files (x86)\Microsoft Visual Studio\2019\Community\VC\Tools\MSVC\14.28.29333\include\vector
; File C:\Program Files (x86)\Microsoft Visual Studio\2019\Community\VC\Tools\MSVC\14.28.29333\include\xmemory
; File C:\Program Files (x86)\Microsoft Visual Studio\2019\Community\VC\Tools\MSVC\14.28.29333\include\vector
;	COMDAT ?_Tidy@?$vector@PAVCRotationDecorator@NEffectUpdateDecorator@@V?$allocator@PAVCRotationDecorator@NEffectUpdateDecorator@@@std@@@std@@AAEXXZ
_TEXT	SEGMENT
$T1 = -52						; size = 4
__Ptr$ = -48						; size = 4
__Count$ = -44						; size = 4
$T2 = -40						; size = 4
__First$ = -36						; size = 4
__Last$ = -32						; size = 4
$T3 = -28						; size = 4
$T4 = -24						; size = 4
__Myend$ = -20						; size = 4
__Mylast$ = -16						; size = 4
_this$ = -12						; size = 4
__My_data$ = -8						; size = 4
__Myfirst$ = -4						; size = 4
?_Tidy@?$vector@PAVCRotationDecorator@NEffectUpdateDecorator@@V?$allocator@PAVCRotationDecorator@NEffectUpdateDecorator@@@std@@@std@@AAEXXZ PROC ; std::vector<NEffectUpdateDecorator::CRotationDecorator *,std::allocator<NEffectUpdateDecorator::CRotationDecorator *> >::_Tidy, COMDAT
; _this$ = ecx

; 1686 :     void _Tidy() noexcept { // free all storage

  00000	55		 push	 ebp
  00001	8b ec		 mov	 ebp, esp
  00003	83 ec 34	 sub	 esp, 52			; 00000034H
  00006	89 4d f4	 mov	 DWORD PTR _this$[ebp], ecx

; 1687 :         auto& _My_data    = _Mypair._Myval2;

  00009	8b 45 f4	 mov	 eax, DWORD PTR _this$[ebp]
  0000c	89 45 f8	 mov	 DWORD PTR __My_data$[ebp], eax

; 1688 :         pointer& _Myfirst = _My_data._Myfirst;

  0000f	8b 45 f8	 mov	 eax, DWORD PTR __My_data$[ebp]
  00012	89 45 fc	 mov	 DWORD PTR __Myfirst$[ebp], eax

; 1689 :         pointer& _Mylast  = _My_data._Mylast;

  00015	8b 45 f8	 mov	 eax, DWORD PTR __My_data$[ebp]
  00018	83 c0 04	 add	 eax, 4
  0001b	89 45 f0	 mov	 DWORD PTR __Mylast$[ebp], eax

; 1690 :         pointer& _Myend   = _My_data._Myend;

  0001e	8b 45 f8	 mov	 eax, DWORD PTR __My_data$[ebp]
  00021	83 c0 08	 add	 eax, 8
  00024	89 45 ec	 mov	 DWORD PTR __Myend$[ebp], eax

; 1691 : 
; 1692 :         _My_data._Orphan_all();
; 1693 : 
; 1694 :         if (_Myfirst) { // destroy and deallocate old array

  00027	8b 45 fc	 mov	 eax, DWORD PTR __Myfirst$[ebp]
  0002a	83 38 00	 cmp	 DWORD PTR [eax], 0
  0002d	74 74		 je	 SHORT $LN3@Tidy

; 1695 :             _Destroy(_Myfirst, _Mylast);

  0002f	8b 45 f0	 mov	 eax, DWORD PTR __Mylast$[ebp]
  00032	8b 00		 mov	 eax, DWORD PTR [eax]
  00034	89 45 e0	 mov	 DWORD PTR __Last$[ebp], eax
  00037	8b 45 fc	 mov	 eax, DWORD PTR __Myfirst$[ebp]
  0003a	8b 00		 mov	 eax, DWORD PTR [eax]
  0003c	89 45 dc	 mov	 DWORD PTR __First$[ebp], eax

; 1733 :         return _Mypair._Get_first();

  0003f	8b 45 f4	 mov	 eax, DWORD PTR _this$[ebp]
; File C:\Program Files (x86)\Microsoft Visual Studio\2019\Community\VC\Tools\MSVC\14.28.29333\include\xmemory

; 1347 :         return *this;

  00042	89 45 e8	 mov	 DWORD PTR $T4[ebp], eax
; File C:\Program Files (x86)\Microsoft Visual Studio\2019\Community\VC\Tools\MSVC\14.28.29333\include\vector

; 1733 :         return _Mypair._Get_first();

  00045	8b 45 e8	 mov	 eax, DWORD PTR $T4[ebp]
  00048	89 45 e4	 mov	 DWORD PTR $T3[ebp], eax

; 1612 :         _Destroy_range(_First, _Last, _Getal());

  0004b	ff 75 e4	 push	 DWORD PTR $T3[ebp]
  0004e	ff 75 e0	 push	 DWORD PTR __Last$[ebp]
  00051	ff 75 dc	 push	 DWORD PTR __First$[ebp]
  00054	e8 00 00 00 00	 call	 ??$_Destroy_range@V?$allocator@PAVCRotationDecorator@NEffectUpdateDecorator@@@std@@@std@@YAXPAPAVCRotationDecorator@NEffectUpdateDecorator@@QAPAV12@AAV?$allocator@PAVCRotationDecorator@NEffectUpdateDecorator@@@0@@Z ; std::_Destroy_range<std::allocator<NEffectUpdateDecorator::CRotationDecorator *> >
  00059	83 c4 0c	 add	 esp, 12			; 0000000cH

; 1733 :         return _Mypair._Get_first();

  0005c	8b 45 f4	 mov	 eax, DWORD PTR _this$[ebp]
; File C:\Program Files (x86)\Microsoft Visual Studio\2019\Community\VC\Tools\MSVC\14.28.29333\include\xmemory

; 1347 :         return *this;

  0005f	89 45 d8	 mov	 DWORD PTR $T2[ebp], eax
; File C:\Program Files (x86)\Microsoft Visual Studio\2019\Community\VC\Tools\MSVC\14.28.29333\include\vector

; 1733 :         return _Mypair._Get_first();

  00062	8b 45 d8	 mov	 eax, DWORD PTR $T2[ebp]
  00065	89 45 cc	 mov	 DWORD PTR $T1[ebp], eax

; 1696 :             _Getal().deallocate(_Myfirst, static_cast<size_type>(_Myend - _Myfirst));

  00068	8b 45 ec	 mov	 eax, DWORD PTR __Myend$[ebp]
  0006b	8b 4d fc	 mov	 ecx, DWORD PTR __Myfirst$[ebp]
  0006e	8b 00		 mov	 eax, DWORD PTR [eax]
  00070	2b 01		 sub	 eax, DWORD PTR [ecx]
  00072	c1 f8 02	 sar	 eax, 2
  00075	89 45 d4	 mov	 DWORD PTR __Count$[ebp], eax
  00078	8b 45 fc	 mov	 eax, DWORD PTR __Myfirst$[ebp]
  0007b	8b 00		 mov	 eax, DWORD PTR [eax]
  0007d	89 45 d0	 mov	 DWORD PTR __Ptr$[ebp], eax
; File C:\Program Files (x86)\Microsoft Visual Studio\2019\Community\VC\Tools\MSVC\14.28.29333\include\xmemory

; 810  :         _Deallocate<_New_alignof<_Ty>>(_Ptr, sizeof(_Ty) * _Count);

  00080	8b 45 d4	 mov	 eax, DWORD PTR __Count$[ebp]
  00083	c1 e0 02	 shl	 eax, 2
  00086	50		 push	 eax
  00087	ff 75 d0	 push	 DWORD PTR __Ptr$[ebp]
  0008a	e8 00 00 00 00	 call	 ??$_Deallocate@$07$0A@@std@@YAXPAXI@Z ; std::_Deallocate<8,0>
  0008f	59		 pop	 ecx
  00090	59		 pop	 ecx
; File C:\Program Files (x86)\Microsoft Visual Studio\2019\Community\VC\Tools\MSVC\14.28.29333\include\vector

; 1698 :             _Myfirst = pointer();

  00091	8b 45 fc	 mov	 eax, DWORD PTR __Myfirst$[ebp]
  00094	83 20 00	 and	 DWORD PTR [eax], 0

; 1699 :             _Mylast  = pointer();

  00097	8b 45 f0	 mov	 eax, DWORD PTR __Mylast$[ebp]
  0009a	83 20 00	 and	 DWORD PTR [eax], 0

; 1700 :             _Myend   = pointer();

  0009d	8b 45 ec	 mov	 eax, DWORD PTR __Myend$[ebp]
  000a0	83 20 00	 and	 DWORD PTR [eax], 0
$LN3@Tidy:

; 1701 :         }
; 1702 :     }

  000a3	c9		 leave
  000a4	c3		 ret	 0
?_Tidy@?$vector@PAVCRotationDecorator@NEffectUpdateDecorator@@V?$allocator@PAVCRotationDecorator@NEffectUpdateDecorator@@@std@@@std@@AAEXXZ ENDP ; std::vector<NEffectUpdateDecorator::CRotationDecorator *,std::allocator<NEffectUpdateDecorator::CRotationDecorator *> >::_Tidy
_TEXT	ENDS
; Function compile flags: /Odspy
; File C:\Program Files (x86)\Microsoft Visual Studio\2019\Community\VC\Tools\MSVC\14.28.29333\include\vector
; File C:\Program Files (x86)\Microsoft Visual Studio\2019\Community\VC\Tools\MSVC\14.28.29333\include\xmemory
; File C:\Program Files (x86)\Microsoft Visual Studio\2019\Community\VC\Tools\MSVC\14.28.29333\include\vector
;	COMDAT ?clear@?$vector@PAVCRotationDecorator@NEffectUpdateDecorator@@V?$allocator@PAVCRotationDecorator@NEffectUpdateDecorator@@@std@@@std@@QAEXXZ
_TEXT	SEGMENT
__First$ = -32						; size = 4
__Last$ = -28						; size = 4
$T1 = -24						; size = 4
$T2 = -20						; size = 4
__Myfirst$ = -16					; size = 4
__Mylast$ = -12						; size = 4
_this$ = -8						; size = 4
__My_data$ = -4						; size = 4
?clear@?$vector@PAVCRotationDecorator@NEffectUpdateDecorator@@V?$allocator@PAVCRotationDecorator@NEffectUpdateDecorator@@@std@@@std@@QAEXXZ PROC ; std::vector<NEffectUpdateDecorator::CRotationDecorator *,std::allocator<NEffectUpdateDecorator::CRotationDecorator *> >::clear, COMDAT
; _this$ = ecx

; 1383 :     void clear() noexcept { // erase all

  00000	55		 push	 ebp
  00001	8b ec		 mov	 ebp, esp
  00003	83 ec 20	 sub	 esp, 32			; 00000020H
  00006	89 4d f8	 mov	 DWORD PTR _this$[ebp], ecx

; 1384 :         auto& _My_data    = _Mypair._Myval2;

  00009	8b 45 f8	 mov	 eax, DWORD PTR _this$[ebp]
  0000c	89 45 fc	 mov	 DWORD PTR __My_data$[ebp], eax

; 1385 :         pointer& _Myfirst = _My_data._Myfirst;

  0000f	8b 45 fc	 mov	 eax, DWORD PTR __My_data$[ebp]
  00012	89 45 f0	 mov	 DWORD PTR __Myfirst$[ebp], eax

; 1386 :         pointer& _Mylast  = _My_data._Mylast;

  00015	8b 45 fc	 mov	 eax, DWORD PTR __My_data$[ebp]
  00018	83 c0 04	 add	 eax, 4
  0001b	89 45 f4	 mov	 DWORD PTR __Mylast$[ebp], eax

; 1387 : 
; 1388 :         _My_data._Orphan_all();
; 1389 :         _Destroy(_Myfirst, _Mylast);

  0001e	8b 45 f4	 mov	 eax, DWORD PTR __Mylast$[ebp]
  00021	8b 00		 mov	 eax, DWORD PTR [eax]
  00023	89 45 e4	 mov	 DWORD PTR __Last$[ebp], eax
  00026	8b 45 f0	 mov	 eax, DWORD PTR __Myfirst$[ebp]
  00029	8b 00		 mov	 eax, DWORD PTR [eax]
  0002b	89 45 e0	 mov	 DWORD PTR __First$[ebp], eax

; 1733 :         return _Mypair._Get_first();

  0002e	8b 45 f8	 mov	 eax, DWORD PTR _this$[ebp]
; File C:\Program Files (x86)\Microsoft Visual Studio\2019\Community\VC\Tools\MSVC\14.28.29333\include\xmemory

; 1347 :         return *this;

  00031	89 45 ec	 mov	 DWORD PTR $T2[ebp], eax
; File C:\Program Files (x86)\Microsoft Visual Studio\2019\Community\VC\Tools\MSVC\14.28.29333\include\vector

; 1733 :         return _Mypair._Get_first();

  00034	8b 45 ec	 mov	 eax, DWORD PTR $T2[ebp]
  00037	89 45 e8	 mov	 DWORD PTR $T1[ebp], eax

; 1612 :         _Destroy_range(_First, _Last, _Getal());

  0003a	ff 75 e8	 push	 DWORD PTR $T1[ebp]
  0003d	ff 75 e4	 push	 DWORD PTR __Last$[ebp]
  00040	ff 75 e0	 push	 DWORD PTR __First$[ebp]
  00043	e8 00 00 00 00	 call	 ??$_Destroy_range@V?$allocator@PAVCRotationDecorator@NEffectUpdateDecorator@@@std@@@std@@YAXPAPAVCRotationDecorator@NEffectUpdateDecorator@@QAPAV12@AAV?$allocator@PAVCRotationDecorator@NEffectUpdateDecorator@@@0@@Z ; std::_Destroy_range<std::allocator<NEffectUpdateDecorator::CRotationDecorator *> >
  00048	83 c4 0c	 add	 esp, 12			; 0000000cH

; 1390 :         _Mylast = _Myfirst;

  0004b	8b 45 f4	 mov	 eax, DWORD PTR __Mylast$[ebp]
  0004e	8b 4d f0	 mov	 ecx, DWORD PTR __Myfirst$[ebp]
  00051	8b 09		 mov	 ecx, DWORD PTR [ecx]
  00053	89 08		 mov	 DWORD PTR [eax], ecx

; 1391 :     }

  00055	c9		 leave
  00056	c3		 ret	 0
?clear@?$vector@PAVCRotationDecorator@NEffectUpdateDecorator@@V?$allocator@PAVCRotationDecorator@NEffectUpdateDecorator@@@std@@@std@@QAEXXZ ENDP ; std::vector<NEffectUpdateDecorator::CRotationDecorator *,std::allocator<NEffectUpdateDecorator::CRotationDecorator *> >::clear
_TEXT	ENDS
; Function compile flags: /Odspy
; File D:\Metin2 Server Files\mainline\SRC_2014\Metin2Client\eterLib\Pool.h
;	COMDAT ?Delete@?$CDynamicPoolEx@VCRotationDecorator@NEffectUpdateDecorator@@@@KAXPAVCRotationDecorator@NEffectUpdateDecorator@@@Z
_TEXT	SEGMENT
_pkData$ = 8						; size = 4
?Delete@?$CDynamicPoolEx@VCRotationDecorator@NEffectUpdateDecorator@@@@KAXPAVCRotationDecorator@NEffectUpdateDecorator@@@Z PROC ; CDynamicPoolEx<NEffectUpdateDecorator::CRotationDecorator>::Delete, COMDAT

; 223  : 		{

  00000	55		 push	 ebp
  00001	8b ec		 mov	 ebp, esp

; 224  : 			::operator delete(pkData);

  00003	ff 75 08	 push	 DWORD PTR _pkData$[ebp]
  00006	e8 00 00 00 00	 call	 ??3@YAXPAX@Z		; operator delete
  0000b	59		 pop	 ecx

; 225  : 		}

  0000c	5d		 pop	 ebp
  0000d	c3		 ret	 0
?Delete@?$CDynamicPoolEx@VCRotationDecorator@NEffectUpdateDecorator@@@@KAXPAVCRotationDecorator@NEffectUpdateDecorator@@@Z ENDP ; CDynamicPoolEx<NEffectUpdateDecorator::CRotationDecorator>::Delete
_TEXT	ENDS
; Function compile flags: /Odspy
; File D:\Metin2 Server Files\mainline\SRC_2014\Metin2Client\eterLib\Pool.h
; File C:\Program Files (x86)\Microsoft Visual Studio\2019\Community\VC\Tools\MSVC\14.28.29333\include\vector
; File C:\Program Files (x86)\Microsoft Visual Studio\2019\Community\VC\Tools\MSVC\14.28.29333\include\xstddef
; File C:\Program Files (x86)\Microsoft Visual Studio\2019\Community\VC\Tools\MSVC\14.28.29333\include\vector
; File C:\Program Files (x86)\Microsoft Visual Studio\2019\Community\VC\Tools\MSVC\14.28.29333\include\xstddef
; File C:\Program Files (x86)\Microsoft Visual Studio\2019\Community\VC\Tools\MSVC\14.28.29333\include\vector
; File D:\Metin2 Server Files\mainline\SRC_2014\Metin2Client\eterLib\Pool.h
;	COMDAT ?Destroy@?$CDynamicPoolEx@VCRotationDecorator@NEffectUpdateDecorator@@@@QAEXXZ
_TEXT	SEGMENT
$T1 = -44						; size = 4
$T2 = -40						; size = 4
$T3 = -36						; size = 4
$T4 = -32						; size = 4
$T5 = -28						; size = 4
___param0$ = -24					; size = 4
$T6 = -20						; size = 4
___param0$ = -16					; size = 4
__My_data$7 = -12					; size = 4
__My_data$8 = -8					; size = 4
_this$ = -4						; size = 4
?Destroy@?$CDynamicPoolEx@VCRotationDecorator@NEffectUpdateDecorator@@@@QAEXXZ PROC ; CDynamicPoolEx<NEffectUpdateDecorator::CRotationDecorator>::Destroy, COMDAT
; _this$ = ecx

; 150  : 		{

  00000	55		 push	 ebp
  00001	8b ec		 mov	 ebp, esp
  00003	83 ec 2c	 sub	 esp, 44			; 0000002cH
  00006	89 4d fc	 mov	 DWORD PTR _this$[ebp], ecx
; File C:\Program Files (x86)\Microsoft Visual Studio\2019\Community\VC\Tools\MSVC\14.28.29333\include\vector

; 1420 :         auto& _My_data = _Mypair._Myval2;

  00009	8b 45 fc	 mov	 eax, DWORD PTR _this$[ebp]
  0000c	83 c0 04	 add	 eax, 4
  0000f	89 45 f8	 mov	 DWORD PTR __My_data$8[ebp], eax
; File C:\Program Files (x86)\Microsoft Visual Studio\2019\Community\VC\Tools\MSVC\14.28.29333\include\xstddef

; 275  :     return __builtin_addressof(_Val);

  00012	8b 45 f8	 mov	 eax, DWORD PTR __My_data$8[ebp]
  00015	89 45 d8	 mov	 DWORD PTR $T2[ebp], eax
; File C:\Program Files (x86)\Microsoft Visual Studio\2019\Community\VC\Tools\MSVC\14.28.29333\include\vector

; 1421 :         return iterator(_My_data._Mylast, _STD addressof(_My_data));

  00018	8b 45 f8	 mov	 eax, DWORD PTR __My_data$8[ebp]
  0001b	8b 40 04	 mov	 eax, DWORD PTR [eax+4]
  0001e	89 45 f0	 mov	 DWORD PTR ___param0$[ebp], eax

; 42   :     _Vector_const_iterator(_Tptr _Parg, const _Container_base* _Pvector) noexcept : _Ptr(_Parg) {

  00021	8b 45 f0	 mov	 eax, DWORD PTR ___param0$[ebp]
  00024	89 45 ec	 mov	 DWORD PTR $T6[ebp], eax

; 1421 :         return iterator(_My_data._Mylast, _STD addressof(_My_data));

  00027	8d 45 ec	 lea	 eax, DWORD PTR $T6[ebp]
  0002a	89 45 e0	 mov	 DWORD PTR $T4[ebp], eax

; 1410 :         auto& _My_data = _Mypair._Myval2;

  0002d	8b 45 fc	 mov	 eax, DWORD PTR _this$[ebp]
  00030	83 c0 04	 add	 eax, 4
  00033	89 45 f4	 mov	 DWORD PTR __My_data$7[ebp], eax
; File C:\Program Files (x86)\Microsoft Visual Studio\2019\Community\VC\Tools\MSVC\14.28.29333\include\xstddef

; 275  :     return __builtin_addressof(_Val);

  00036	8b 45 f4	 mov	 eax, DWORD PTR __My_data$7[ebp]
  00039	89 45 d4	 mov	 DWORD PTR $T1[ebp], eax
; File C:\Program Files (x86)\Microsoft Visual Studio\2019\Community\VC\Tools\MSVC\14.28.29333\include\vector

; 1411 :         return iterator(_My_data._Myfirst, _STD addressof(_My_data));

  0003c	8b 45 f4	 mov	 eax, DWORD PTR __My_data$7[ebp]
  0003f	8b 00		 mov	 eax, DWORD PTR [eax]
  00041	89 45 e8	 mov	 DWORD PTR ___param0$[ebp], eax

; 42   :     _Vector_const_iterator(_Tptr _Parg, const _Container_base* _Pvector) noexcept : _Ptr(_Parg) {

  00044	8b 45 e8	 mov	 eax, DWORD PTR ___param0$[ebp]
  00047	89 45 e4	 mov	 DWORD PTR $T5[ebp], eax

; 1411 :         return iterator(_My_data._Myfirst, _STD addressof(_My_data));

  0004a	8d 45 e4	 lea	 eax, DWORD PTR $T5[ebp]
  0004d	89 45 dc	 mov	 DWORD PTR $T3[ebp], eax
; File D:\Metin2 Server Files\mainline\SRC_2014\Metin2Client\eterLib\Pool.h

; 160  : 			std::for_each(m_kVct_pkData.begin(), m_kVct_pkData.end(), Delete);

  00050	68 00 00 00 00	 push	 OFFSET ?Delete@?$CDynamicPoolEx@VCRotationDecorator@NEffectUpdateDecorator@@@@KAXPAVCRotationDecorator@NEffectUpdateDecorator@@@Z ; CDynamicPoolEx<NEffectUpdateDecorator::CRotationDecorator>::Delete
  00055	8b 45 e0	 mov	 eax, DWORD PTR $T4[ebp]
  00058	ff 30		 push	 DWORD PTR [eax]
  0005a	8b 45 dc	 mov	 eax, DWORD PTR $T3[ebp]
  0005d	ff 30		 push	 DWORD PTR [eax]
  0005f	e8 00 00 00 00	 call	 ??$for_each@V?$_Vector_iterator@V?$_Vector_val@U?$_Simple_types@PAVCRotationDecorator@NEffectUpdateDecorator@@@std@@@std@@@std@@P6AXPAVCRotationDecorator@NEffectUpdateDecorator@@@Z@std@@YAP6AXPAVCRotationDecorator@NEffectUpdateDecorator@@@ZV?$_Vector_iterator@V?$_Vector_val@U?$_Simple_types@PAVCRotationDecorator@NEffectUpdateDecorator@@@std@@@std@@@0@1P6AX0@Z@Z ; std::for_each<std::_Vector_iterator<std::_Vector_val<std::_Simple_types<NEffectUpdateDecorator::CRotationDecorator *> > >,void (__cdecl*)(NEffectUpdateDecorator::CRotationDecorator *)>
  00064	83 c4 0c	 add	 esp, 12			; 0000000cH

; 161  : 			m_kVct_pkData.clear();

  00067	8b 4d fc	 mov	 ecx, DWORD PTR _this$[ebp]
  0006a	83 c1 04	 add	 ecx, 4
  0006d	e8 00 00 00 00	 call	 ?clear@?$vector@PAVCRotationDecorator@NEffectUpdateDecorator@@V?$allocator@PAVCRotationDecorator@NEffectUpdateDecorator@@@std@@@std@@QAEXXZ ; std::vector<NEffectUpdateDecorator::CRotationDecorator *,std::allocator<NEffectUpdateDecorator::CRotationDecorator *> >::clear

; 162  : 			m_kVct_pkFree.clear();

  00072	8b 4d fc	 mov	 ecx, DWORD PTR _this$[ebp]
  00075	83 c1 10	 add	 ecx, 16			; 00000010H
  00078	e8 00 00 00 00	 call	 ?clear@?$vector@PAVCRotationDecorator@NEffectUpdateDecorator@@V?$allocator@PAVCRotationDecorator@NEffectUpdateDecorator@@@std@@@std@@QAEXXZ ; std::vector<NEffectUpdateDecorator::CRotationDecorator *,std::allocator<NEffectUpdateDecorator::CRotationDecorator *> >::clear

; 163  : 		}

  0007d	c9		 leave
  0007e	c3		 ret	 0
?Destroy@?$CDynamicPoolEx@VCRotationDecorator@NEffectUpdateDecorator@@@@QAEXXZ ENDP ; CDynamicPoolEx<NEffectUpdateDecorator::CRotationDecorator>::Destroy
_TEXT	ENDS
; Function compile flags: /Odspy
; File D:\Metin2 Server Files\mainline\SRC_2014\Metin2Client\eterLib\Pool.h
; File C:\Program Files (x86)\Microsoft Visual Studio\2019\Community\VC\Tools\MSVC\14.28.29333\include\vector
; File D:\Metin2 Server Files\mainline\SRC_2014\Metin2Client\eterLib\Pool.h
; File C:\Program Files (x86)\Microsoft Visual Studio\2019\Community\VC\Tools\MSVC\14.28.29333\include\vector
; File D:\Metin2 Server Files\mainline\SRC_2014\Metin2Client\eterLib\Pool.h
;	COMDAT ??1?$CDynamicPoolEx@VCRotationDecorator@NEffectUpdateDecorator@@@@UAE@XZ
_TEXT	SEGMENT
_this$ = -16						; size = 4
__$EHRec$ = -12						; size = 12
??1?$CDynamicPoolEx@VCRotationDecorator@NEffectUpdateDecorator@@@@UAE@XZ PROC ; CDynamicPoolEx<NEffectUpdateDecorator::CRotationDecorator>::~CDynamicPoolEx<NEffectUpdateDecorator::CRotationDecorator>, COMDAT
; _this$ = ecx

; 132  : 		{

  00000	55		 push	 ebp
  00001	8b ec		 mov	 ebp, esp
  00003	6a ff		 push	 -1
  00005	68 00 00 00 00	 push	 __ehhandler$??1?$CDynamicPoolEx@VCRotationDecorator@NEffectUpdateDecorator@@@@UAE@XZ
  0000a	64 a1 00 00 00
	00		 mov	 eax, DWORD PTR fs:0
  00010	50		 push	 eax
  00011	51		 push	 ecx
  00012	a1 00 00 00 00	 mov	 eax, DWORD PTR ___security_cookie
  00017	33 c5		 xor	 eax, ebp
  00019	50		 push	 eax
  0001a	8d 45 f4	 lea	 eax, DWORD PTR __$EHRec$[ebp]
  0001d	64 a3 00 00 00
	00		 mov	 DWORD PTR fs:0, eax
  00023	89 4d f0	 mov	 DWORD PTR _this$[ebp], ecx
  00026	8b 45 f0	 mov	 eax, DWORD PTR _this$[ebp]
  00029	c7 00 00 00 00
	00		 mov	 DWORD PTR [eax], OFFSET ??_7?$CDynamicPoolEx@VCRotationDecorator@NEffectUpdateDecorator@@@@6B@

; 133  : 			assert(m_kVct_pkFree.size()==m_kVct_pkData.size());
; 134  : 			Destroy();

  0002f	8b 4d f0	 mov	 ecx, DWORD PTR _this$[ebp]
  00032	e8 00 00 00 00	 call	 ?Destroy@?$CDynamicPoolEx@VCRotationDecorator@NEffectUpdateDecorator@@@@QAEXXZ ; CDynamicPoolEx<NEffectUpdateDecorator::CRotationDecorator>::Destroy

; 142  : 		}

  00037	8b 4d f0	 mov	 ecx, DWORD PTR _this$[ebp]
  0003a	83 c1 10	 add	 ecx, 16			; 00000010H
; File C:\Program Files (x86)\Microsoft Visual Studio\2019\Community\VC\Tools\MSVC\14.28.29333\include\vector

; 673  :         _Tidy();

  0003d	e8 00 00 00 00	 call	 ?_Tidy@?$vector@PAVCRotationDecorator@NEffectUpdateDecorator@@V?$allocator@PAVCRotationDecorator@NEffectUpdateDecorator@@@std@@@std@@AAEXXZ ; std::vector<NEffectUpdateDecorator::CRotationDecorator *,std::allocator<NEffectUpdateDecorator::CRotationDecorator *> >::_Tidy
; File D:\Metin2 Server Files\mainline\SRC_2014\Metin2Client\eterLib\Pool.h

; 142  : 		}

  00042	8b 4d f0	 mov	 ecx, DWORD PTR _this$[ebp]
  00045	83 c1 04	 add	 ecx, 4
; File C:\Program Files (x86)\Microsoft Visual Studio\2019\Community\VC\Tools\MSVC\14.28.29333\include\vector

; 673  :         _Tidy();

  00048	e8 00 00 00 00	 call	 ?_Tidy@?$vector@PAVCRotationDecorator@NEffectUpdateDecorator@@V?$allocator@PAVCRotationDecorator@NEffectUpdateDecorator@@@std@@@std@@AAEXXZ ; std::vector<NEffectUpdateDecorator::CRotationDecorator *,std::allocator<NEffectUpdateDecorator::CRotationDecorator *> >::_Tidy
; File D:\Metin2 Server Files\mainline\SRC_2014\Metin2Client\eterLib\Pool.h

; 142  : 		}

  0004d	8b 4d f4	 mov	 ecx, DWORD PTR __$EHRec$[ebp]
  00050	64 89 0d 00 00
	00 00		 mov	 DWORD PTR fs:0, ecx
  00057	59		 pop	 ecx
  00058	c9		 leave
  00059	c3		 ret	 0
  0005a	cc		 int	 3
  0005b	cc		 int	 3
  0005c	cc		 int	 3
  0005d	cc		 int	 3
  0005e	cc		 int	 3
_TEXT	ENDS
;	COMDAT text$x
text$x	SEGMENT
__ehhandler$??1?$CDynamicPoolEx@VCRotationDecorator@NEffectUpdateDecorator@@@@UAE@XZ:
  00000	90		 npad	 1
  00001	90		 npad	 1
  00002	8b 54 24 08	 mov	 edx, DWORD PTR [esp+8]
  00006	8d 42 0c	 lea	 eax, DWORD PTR [edx+12]
  00009	8b 4a f8	 mov	 ecx, DWORD PTR [edx-8]
  0000c	33 c8		 xor	 ecx, eax
  0000e	e8 00 00 00 00	 call	 @__security_check_cookie@4
  00013	b8 00 00 00 00	 mov	 eax, OFFSET __ehfuncinfo$??1?$CDynamicPoolEx@VCRotationDecorator@NEffectUpdateDecorator@@@@UAE@XZ
  00018	e9 00 00 00 00	 jmp	 ___CxxFrameHandler3
text$x	ENDS
??1?$CDynamicPoolEx@VCRotationDecorator@NEffectUpdateDecorator@@@@UAE@XZ ENDP ; CDynamicPoolEx<NEffectUpdateDecorator::CRotationDecorator>::~CDynamicPoolEx<NEffectUpdateDecorator::CRotationDecorator>
; Function compile flags: /Odspy
; File D:\Metin2 Server Files\mainline\SRC_2014\Metin2Client\eterLib\Pool.h
; File C:\Program Files (x86)\Microsoft Visual Studio\2019\Community\VC\Tools\MSVC\14.28.29333\include\vector
; File C:\Program Files (x86)\Microsoft Visual Studio\2019\Community\VC\Tools\MSVC\14.28.29333\include\xmemory
; File C:\Program Files (x86)\Microsoft Visual Studio\2019\Community\VC\Tools\MSVC\14.28.29333\include\vector
; File D:\Metin2 Server Files\mainline\SRC_2014\Metin2Client\eterLib\Pool.h
; File C:\Program Files (x86)\Microsoft Visual Studio\2019\Community\VC\Tools\MSVC\14.28.29333\include\vector
; File C:\Program Files (x86)\Microsoft Visual Studio\2019\Community\VC\Tools\MSVC\14.28.29333\include\xmemory
; File C:\Program Files (x86)\Microsoft Visual Studio\2019\Community\VC\Tools\MSVC\14.28.29333\include\vector
; File D:\Metin2 Server Files\mainline\SRC_2014\Metin2Client\eterLib\Pool.h
;	COMDAT ??0?$CDynamicPoolEx@VCRotationDecorator@NEffectUpdateDecorator@@@@QAE@XZ
_TEXT	SEGMENT
_this$ = -28						; size = 4
_this$ = -24						; size = 4
_this$ = -20						; size = 4
_this$ = -16						; size = 4
_this$1 = -12						; size = 4
_this$2 = -8						; size = 4
_this$ = -4						; size = 4
??0?$CDynamicPoolEx@VCRotationDecorator@NEffectUpdateDecorator@@@@QAE@XZ PROC ; CDynamicPoolEx<NEffectUpdateDecorator::CRotationDecorator>::CDynamicPoolEx<NEffectUpdateDecorator::CRotationDecorator>, COMDAT
; _this$ = ecx

; 126  : 		CDynamicPoolEx()

  00000	55		 push	 ebp
  00001	8b ec		 mov	 ebp, esp
  00003	83 ec 1c	 sub	 esp, 28			; 0000001cH
  00006	89 4d fc	 mov	 DWORD PTR _this$[ebp], ecx

; 127  : 		{

  00009	8b 45 fc	 mov	 eax, DWORD PTR _this$[ebp]
  0000c	c7 00 00 00 00
	00		 mov	 DWORD PTR [eax], OFFSET ??_7?$CDynamicPoolEx@VCRotationDecorator@NEffectUpdateDecorator@@@@6B@
  00012	8b 45 fc	 mov	 eax, DWORD PTR _this$[ebp]
  00015	83 c0 04	 add	 eax, 4
  00018	89 45 f0	 mov	 DWORD PTR _this$[ebp], eax
; File C:\Program Files (x86)\Microsoft Visual Studio\2019\Community\VC\Tools\MSVC\14.28.29333\include\vector

; 445  :     vector() noexcept(is_nothrow_default_constructible_v<_Alty>) : _Mypair(_Zero_then_variadic_args_t{}) {

  0001b	8b 45 f0	 mov	 eax, DWORD PTR _this$[ebp]
  0001e	89 45 ec	 mov	 DWORD PTR _this$[ebp], eax
; File C:\Program Files (x86)\Microsoft Visual Studio\2019\Community\VC\Tools\MSVC\14.28.29333\include\xmemory

; 1339 :         : _Ty1(), _Myval2(_STD forward<_Other2>(_Val2)...) {}

  00021	8b 45 ec	 mov	 eax, DWORD PTR _this$[ebp]
  00024	89 45 f8	 mov	 DWORD PTR _this$2[ebp], eax
; File C:\Program Files (x86)\Microsoft Visual Studio\2019\Community\VC\Tools\MSVC\14.28.29333\include\vector

; 375  :     _Vector_val() noexcept : _Myfirst(), _Mylast(), _Myend() {}

  00027	8b 45 f8	 mov	 eax, DWORD PTR _this$2[ebp]
  0002a	83 20 00	 and	 DWORD PTR [eax], 0
  0002d	8b 45 f8	 mov	 eax, DWORD PTR _this$2[ebp]
  00030	83 60 04 00	 and	 DWORD PTR [eax+4], 0
  00034	8b 45 f8	 mov	 eax, DWORD PTR _this$2[ebp]
  00037	83 60 08 00	 and	 DWORD PTR [eax+8], 0
; File D:\Metin2 Server Files\mainline\SRC_2014\Metin2Client\eterLib\Pool.h

; 127  : 		{

  0003b	8b 45 fc	 mov	 eax, DWORD PTR _this$[ebp]
  0003e	83 c0 10	 add	 eax, 16			; 00000010H
  00041	89 45 e8	 mov	 DWORD PTR _this$[ebp], eax
; File C:\Program Files (x86)\Microsoft Visual Studio\2019\Community\VC\Tools\MSVC\14.28.29333\include\vector

; 445  :     vector() noexcept(is_nothrow_default_constructible_v<_Alty>) : _Mypair(_Zero_then_variadic_args_t{}) {

  00044	8b 45 e8	 mov	 eax, DWORD PTR _this$[ebp]
  00047	89 45 e4	 mov	 DWORD PTR _this$[ebp], eax
; File C:\Program Files (x86)\Microsoft Visual Studio\2019\Community\VC\Tools\MSVC\14.28.29333\include\xmemory

; 1339 :         : _Ty1(), _Myval2(_STD forward<_Other2>(_Val2)...) {}

  0004a	8b 45 e4	 mov	 eax, DWORD PTR _this$[ebp]
  0004d	89 45 f4	 mov	 DWORD PTR _this$1[ebp], eax
; File C:\Program Files (x86)\Microsoft Visual Studio\2019\Community\VC\Tools\MSVC\14.28.29333\include\vector

; 375  :     _Vector_val() noexcept : _Myfirst(), _Mylast(), _Myend() {}

  00050	8b 45 f4	 mov	 eax, DWORD PTR _this$1[ebp]
  00053	83 20 00	 and	 DWORD PTR [eax], 0
  00056	8b 45 f4	 mov	 eax, DWORD PTR _this$1[ebp]
  00059	83 60 04 00	 and	 DWORD PTR [eax+4], 0
  0005d	8b 45 f4	 mov	 eax, DWORD PTR _this$1[ebp]
  00060	83 60 08 00	 and	 DWORD PTR [eax+8], 0
; File D:\Metin2 Server Files\mainline\SRC_2014\Metin2Client\eterLib\Pool.h

; 128  : 			m_uInitCapacity=0;

  00064	8b 45 fc	 mov	 eax, DWORD PTR _this$[ebp]
  00067	83 60 1c 00	 and	 DWORD PTR [eax+28], 0

; 129  : 			m_uUsedCapacity=0;

  0006b	8b 45 fc	 mov	 eax, DWORD PTR _this$[ebp]
  0006e	83 60 20 00	 and	 DWORD PTR [eax+32], 0

; 130  : 		}

  00072	8b 45 fc	 mov	 eax, DWORD PTR _this$[ebp]
  00075	c9		 leave
  00076	c3		 ret	 0
??0?$CDynamicPoolEx@VCRotationDecorator@NEffectUpdateDecorator@@@@QAE@XZ ENDP ; CDynamicPoolEx<NEffectUpdateDecorator::CRotationDecorator>::CDynamicPoolEx<NEffectUpdateDecorator::CRotationDecorator>
_TEXT	ENDS
; Function compile flags: /Odspy
;	COMDAT ??__F?ms_kPool@CParticleInstance@@2V?$CDynamicPool@VCParticleInstance@@@@A@@YAXXZ
text$yd	SEGMENT
??__F?ms_kPool@CParticleInstance@@2V?$CDynamicPool@VCParticleInstance@@@@A@@YAXXZ PROC ; `dynamic atexit destructor for 'CParticleInstance::ms_kPool'', COMDAT
  00000	55		 push	 ebp
  00001	8b ec		 mov	 ebp, esp
  00003	b9 00 00 00 00	 mov	 ecx, OFFSET ?ms_kPool@CParticleInstance@@2V?$CDynamicPool@VCParticleInstance@@@@A ; CParticleInstance::ms_kPool
  00008	e8 00 00 00 00	 call	 ??1?$CDynamicPool@VCParticleInstance@@@@UAE@XZ ; CDynamicPool<CParticleInstance>::~CDynamicPool<CParticleInstance>
  0000d	5d		 pop	 ebp
  0000e	c3		 ret	 0
??__F?ms_kPool@CParticleInstance@@2V?$CDynamicPool@VCParticleInstance@@@@A@@YAXXZ ENDP ; `dynamic atexit destructor for 'CParticleInstance::ms_kPool''
text$yd	ENDS
; Function compile flags: /Odspy
; File D:\Metin2 Server Files\mainline\SRC_2014\Metin2Client\EffectLib\ParticleInstance.cpp
;	COMDAT ??__E?ms_kPool@CParticleInstance@@2V?$CDynamicPool@VCParticleInstance@@@@A@@YAXXZ
text$di	SEGMENT
??__E?ms_kPool@CParticleInstance@@2V?$CDynamicPool@VCParticleInstance@@@@A@@YAXXZ PROC ; `dynamic initializer for 'CParticleInstance::ms_kPool'', COMDAT

; 9    : CDynamicPool<CParticleInstance> CParticleInstance::ms_kPool;

  00000	55		 push	 ebp
  00001	8b ec		 mov	 ebp, esp
  00003	b9 00 00 00 00	 mov	 ecx, OFFSET ?ms_kPool@CParticleInstance@@2V?$CDynamicPool@VCParticleInstance@@@@A ; CParticleInstance::ms_kPool
  00008	e8 00 00 00 00	 call	 ??0?$CDynamicPool@VCParticleInstance@@@@QAE@XZ ; CDynamicPool<CParticleInstance>::CDynamicPool<CParticleInstance>
  0000d	68 00 00 00 00	 push	 OFFSET ??__F?ms_kPool@CParticleInstance@@2V?$CDynamicPool@VCParticleInstance@@@@A@@YAXXZ ; `dynamic atexit destructor for 'CParticleInstance::ms_kPool''
  00012	e8 00 00 00 00	 call	 _atexit
  00017	59		 pop	 ecx
  00018	5d		 pop	 ebp
  00019	c3		 ret	 0
??__E?ms_kPool@CParticleInstance@@2V?$CDynamicPool@VCParticleInstance@@@@A@@YAXXZ ENDP ; `dynamic initializer for 'CParticleInstance::ms_kPool''
text$di	ENDS
; Function compile flags: /Odspy
;	COMDAT ??_G?$CDynamicPool@VCParticleInstance@@@@UAEPAXI@Z
_TEXT	SEGMENT
_this$ = -4						; size = 4
___flags$ = 8						; size = 4
??_G?$CDynamicPool@VCParticleInstance@@@@UAEPAXI@Z PROC	; CDynamicPool<CParticleInstance>::`scalar deleting destructor', COMDAT
; _this$ = ecx
  00000	55		 push	 ebp
  00001	8b ec		 mov	 ebp, esp
  00003	51		 push	 ecx
  00004	89 4d fc	 mov	 DWORD PTR _this$[ebp], ecx
  00007	8b 4d fc	 mov	 ecx, DWORD PTR _this$[ebp]
  0000a	e8 00 00 00 00	 call	 ??1?$CDynamicPool@VCParticleInstance@@@@UAE@XZ ; CDynamicPool<CParticleInstance>::~CDynamicPool<CParticleInstance>
  0000f	8b 45 08	 mov	 eax, DWORD PTR ___flags$[ebp]
  00012	83 e0 01	 and	 eax, 1
  00015	74 0c		 je	 SHORT $LN2@scalar
  00017	6a 24		 push	 36			; 00000024H
  00019	ff 75 fc	 push	 DWORD PTR _this$[ebp]
  0001c	e8 00 00 00 00	 call	 ??3@YAXPAXI@Z		; operator delete
  00021	59		 pop	 ecx
  00022	59		 pop	 ecx
$LN2@scalar:
  00023	8b 45 fc	 mov	 eax, DWORD PTR _this$[ebp]
  00026	c9		 leave
  00027	c2 04 00	 ret	 4
??_G?$CDynamicPool@VCParticleInstance@@@@UAEPAXI@Z ENDP	; CDynamicPool<CParticleInstance>::`scalar deleting destructor'
_TEXT	ENDS
; Function compile flags: /Odspy
; File C:\Program Files (x86)\Microsoft Visual Studio\2019\Community\VC\Tools\MSVC\14.28.29333\include\vector
;	COMDAT ?_Xlength@?$vector@PAVCParticleInstance@@V?$allocator@PAVCParticleInstance@@@std@@@std@@CAXXZ
_TEXT	SEGMENT
?_Xlength@?$vector@PAVCParticleInstance@@V?$allocator@PAVCParticleInstance@@@std@@@std@@CAXXZ PROC ; std::vector<CParticleInstance *,std::allocator<CParticleInstance *> >::_Xlength, COMDAT

; 1704 :     [[noreturn]] static void _Xlength() {

  00000	55		 push	 ebp
  00001	8b ec		 mov	 ebp, esp

; 1705 :         _Xlength_error("vector too long");

  00003	68 00 00 00 00	 push	 OFFSET ??_C@_0BA@FOIKENOD@vector?5too?5long@
  00008	e8 00 00 00 00	 call	 ?_Xlength_error@std@@YAXPBD@Z ; std::_Xlength_error
$LN2@Xlength:

; 1706 :     }

  0000d	5d		 pop	 ebp
  0000e	c3		 ret	 0
?_Xlength@?$vector@PAVCParticleInstance@@V?$allocator@PAVCParticleInstance@@@std@@@std@@CAXXZ ENDP ; std::vector<CParticleInstance *,std::allocator<CParticleInstance *> >::_Xlength
_TEXT	ENDS
; Function compile flags: /Odspy
; File C:\Program Files (x86)\Microsoft Visual Studio\2019\Community\VC\Tools\MSVC\14.28.29333\include\vector
; File C:\Program Files (x86)\Microsoft Visual Studio\2019\Community\VC\Tools\MSVC\14.28.29333\include\xmemory
; File C:\Program Files (x86)\Microsoft Visual Studio\2019\Community\VC\Tools\MSVC\14.28.29333\include\vector
; File C:\Program Files (x86)\Microsoft Visual Studio\2019\Community\VC\Tools\MSVC\14.28.29333\include\xmemory
; File C:\Program Files (x86)\Microsoft Visual Studio\2019\Community\VC\Tools\MSVC\14.28.29333\include\vector
; File C:\Program Files (x86)\Microsoft Visual Studio\2019\Community\VC\Tools\MSVC\14.28.29333\include\xmemory
; File C:\Program Files (x86)\Microsoft Visual Studio\2019\Community\VC\Tools\MSVC\14.28.29333\include\vector
;	COMDAT ?_Tidy@?$vector@PAVCParticleInstance@@V?$allocator@PAVCParticleInstance@@@std@@@std@@AAEXXZ
_TEXT	SEGMENT
$T1 = -52						; size = 4
__Ptr$ = -48						; size = 4
__Count$ = -44						; size = 4
$T2 = -40						; size = 4
__First$ = -36						; size = 4
__Last$ = -32						; size = 4
$T3 = -28						; size = 4
$T4 = -24						; size = 4
__Myend$ = -20						; size = 4
__Mylast$ = -16						; size = 4
_this$ = -12						; size = 4
__My_data$ = -8						; size = 4
__Myfirst$ = -4						; size = 4
?_Tidy@?$vector@PAVCParticleInstance@@V?$allocator@PAVCParticleInstance@@@std@@@std@@AAEXXZ PROC ; std::vector<CParticleInstance *,std::allocator<CParticleInstance *> >::_Tidy, COMDAT
; _this$ = ecx

; 1686 :     void _Tidy() noexcept { // free all storage

  00000	55		 push	 ebp
  00001	8b ec		 mov	 ebp, esp
  00003	83 ec 34	 sub	 esp, 52			; 00000034H
  00006	89 4d f4	 mov	 DWORD PTR _this$[ebp], ecx

; 1687 :         auto& _My_data    = _Mypair._Myval2;

  00009	8b 45 f4	 mov	 eax, DWORD PTR _this$[ebp]
  0000c	89 45 f8	 mov	 DWORD PTR __My_data$[ebp], eax

; 1688 :         pointer& _Myfirst = _My_data._Myfirst;

  0000f	8b 45 f8	 mov	 eax, DWORD PTR __My_data$[ebp]
  00012	89 45 fc	 mov	 DWORD PTR __Myfirst$[ebp], eax

; 1689 :         pointer& _Mylast  = _My_data._Mylast;

  00015	8b 45 f8	 mov	 eax, DWORD PTR __My_data$[ebp]
  00018	83 c0 04	 add	 eax, 4
  0001b	89 45 f0	 mov	 DWORD PTR __Mylast$[ebp], eax

; 1690 :         pointer& _Myend   = _My_data._Myend;

  0001e	8b 45 f8	 mov	 eax, DWORD PTR __My_data$[ebp]
  00021	83 c0 08	 add	 eax, 8
  00024	89 45 ec	 mov	 DWORD PTR __Myend$[ebp], eax

; 1691 : 
; 1692 :         _My_data._Orphan_all();
; 1693 : 
; 1694 :         if (_Myfirst) { // destroy and deallocate old array

  00027	8b 45 fc	 mov	 eax, DWORD PTR __Myfirst$[ebp]
  0002a	83 38 00	 cmp	 DWORD PTR [eax], 0
  0002d	74 74		 je	 SHORT $LN3@Tidy

; 1695 :             _Destroy(_Myfirst, _Mylast);

  0002f	8b 45 f0	 mov	 eax, DWORD PTR __Mylast$[ebp]
  00032	8b 00		 mov	 eax, DWORD PTR [eax]
  00034	89 45 e0	 mov	 DWORD PTR __Last$[ebp], eax
  00037	8b 45 fc	 mov	 eax, DWORD PTR __Myfirst$[ebp]
  0003a	8b 00		 mov	 eax, DWORD PTR [eax]
  0003c	89 45 dc	 mov	 DWORD PTR __First$[ebp], eax

; 1733 :         return _Mypair._Get_first();

  0003f	8b 45 f4	 mov	 eax, DWORD PTR _this$[ebp]
; File C:\Program Files (x86)\Microsoft Visual Studio\2019\Community\VC\Tools\MSVC\14.28.29333\include\xmemory

; 1347 :         return *this;

  00042	89 45 e8	 mov	 DWORD PTR $T4[ebp], eax
; File C:\Program Files (x86)\Microsoft Visual Studio\2019\Community\VC\Tools\MSVC\14.28.29333\include\vector

; 1733 :         return _Mypair._Get_first();

  00045	8b 45 e8	 mov	 eax, DWORD PTR $T4[ebp]
  00048	89 45 e4	 mov	 DWORD PTR $T3[ebp], eax

; 1612 :         _Destroy_range(_First, _Last, _Getal());

  0004b	ff 75 e4	 push	 DWORD PTR $T3[ebp]
  0004e	ff 75 e0	 push	 DWORD PTR __Last$[ebp]
  00051	ff 75 dc	 push	 DWORD PTR __First$[ebp]
  00054	e8 00 00 00 00	 call	 ??$_Destroy_range@V?$allocator@PAVCParticleInstance@@@std@@@std@@YAXPAPAVCParticleInstance@@QAPAV1@AAV?$allocator@PAVCParticleInstance@@@0@@Z ; std::_Destroy_range<std::allocator<CParticleInstance *> >
  00059	83 c4 0c	 add	 esp, 12			; 0000000cH

; 1733 :         return _Mypair._Get_first();

  0005c	8b 45 f4	 mov	 eax, DWORD PTR _this$[ebp]
; File C:\Program Files (x86)\Microsoft Visual Studio\2019\Community\VC\Tools\MSVC\14.28.29333\include\xmemory

; 1347 :         return *this;

  0005f	89 45 d8	 mov	 DWORD PTR $T2[ebp], eax
; File C:\Program Files (x86)\Microsoft Visual Studio\2019\Community\VC\Tools\MSVC\14.28.29333\include\vector

; 1733 :         return _Mypair._Get_first();

  00062	8b 45 d8	 mov	 eax, DWORD PTR $T2[ebp]
  00065	89 45 cc	 mov	 DWORD PTR $T1[ebp], eax

; 1696 :             _Getal().deallocate(_Myfirst, static_cast<size_type>(_Myend - _Myfirst));

  00068	8b 45 ec	 mov	 eax, DWORD PTR __Myend$[ebp]
  0006b	8b 4d fc	 mov	 ecx, DWORD PTR __Myfirst$[ebp]
  0006e	8b 00		 mov	 eax, DWORD PTR [eax]
  00070	2b 01		 sub	 eax, DWORD PTR [ecx]
  00072	c1 f8 02	 sar	 eax, 2
  00075	89 45 d4	 mov	 DWORD PTR __Count$[ebp], eax
  00078	8b 45 fc	 mov	 eax, DWORD PTR __Myfirst$[ebp]
  0007b	8b 00		 mov	 eax, DWORD PTR [eax]
  0007d	89 45 d0	 mov	 DWORD PTR __Ptr$[ebp], eax
; File C:\Program Files (x86)\Microsoft Visual Studio\2019\Community\VC\Tools\MSVC\14.28.29333\include\xmemory

; 810  :         _Deallocate<_New_alignof<_Ty>>(_Ptr, sizeof(_Ty) * _Count);

  00080	8b 45 d4	 mov	 eax, DWORD PTR __Count$[ebp]
  00083	c1 e0 02	 shl	 eax, 2
  00086	50		 push	 eax
  00087	ff 75 d0	 push	 DWORD PTR __Ptr$[ebp]
  0008a	e8 00 00 00 00	 call	 ??$_Deallocate@$07$0A@@std@@YAXPAXI@Z ; std::_Deallocate<8,0>
  0008f	59		 pop	 ecx
  00090	59		 pop	 ecx
; File C:\Program Files (x86)\Microsoft Visual Studio\2019\Community\VC\Tools\MSVC\14.28.29333\include\vector

; 1698 :             _Myfirst = pointer();

  00091	8b 45 fc	 mov	 eax, DWORD PTR __Myfirst$[ebp]
  00094	83 20 00	 and	 DWORD PTR [eax], 0

; 1699 :             _Mylast  = pointer();

  00097	8b 45 f0	 mov	 eax, DWORD PTR __Mylast$[ebp]
  0009a	83 20 00	 and	 DWORD PTR [eax], 0

; 1700 :             _Myend   = pointer();

  0009d	8b 45 ec	 mov	 eax, DWORD PTR __Myend$[ebp]
  000a0	83 20 00	 and	 DWORD PTR [eax], 0
$LN3@Tidy:

; 1701 :         }
; 1702 :     }

  000a3	c9		 leave
  000a4	c3		 ret	 0
?_Tidy@?$vector@PAVCParticleInstance@@V?$allocator@PAVCParticleInstance@@@std@@@std@@AAEXXZ ENDP ; std::vector<CParticleInstance *,std::allocator<CParticleInstance *> >::_Tidy
_TEXT	ENDS
; Function compile flags: /Odspy
; File C:\Program Files (x86)\Microsoft Visual Studio\2019\Community\VC\Tools\MSVC\14.28.29333\include\vector
; File C:\Program Files (x86)\Microsoft Visual Studio\2019\Community\VC\Tools\MSVC\14.28.29333\include\xmemory
; File C:\Program Files (x86)\Microsoft Visual Studio\2019\Community\VC\Tools\MSVC\14.28.29333\include\vector
; File C:\Program Files (x86)\Microsoft Visual Studio\2019\Community\VC\Tools\MSVC\14.28.29333\include\xmemory
; File C:\Program Files (x86)\Microsoft Visual Studio\2019\Community\VC\Tools\MSVC\14.28.29333\include\vector
; File C:\Program Files (x86)\Microsoft Visual Studio\2019\Community\VC\Tools\MSVC\14.28.29333\include\xmemory
; File C:\Program Files (x86)\Microsoft Visual Studio\2019\Community\VC\Tools\MSVC\14.28.29333\include\vector
;	COMDAT ?_Change_array@?$vector@PAVCParticleInstance@@V?$allocator@PAVCParticleInstance@@@std@@@std@@AAEXQAPAVCParticleInstance@@II@Z
_TEXT	SEGMENT
$T1 = -52						; size = 4
__Ptr$ = -48						; size = 4
__Count$ = -44						; size = 4
$T2 = -40						; size = 4
__First$ = -36						; size = 4
__Last$ = -32						; size = 4
$T3 = -28						; size = 4
$T4 = -24						; size = 4
__Myend$ = -20						; size = 4
__Mylast$ = -16						; size = 4
_this$ = -12						; size = 4
__My_data$ = -8						; size = 4
__Myfirst$ = -4						; size = 4
__Newvec$ = 8						; size = 4
__Newsize$ = 12						; size = 4
__Newcapacity$ = 16					; size = 4
?_Change_array@?$vector@PAVCParticleInstance@@V?$allocator@PAVCParticleInstance@@@std@@@std@@AAEXQAPAVCParticleInstance@@II@Z PROC ; std::vector<CParticleInstance *,std::allocator<CParticleInstance *> >::_Change_array, COMDAT
; _this$ = ecx

; 1667 :     void _Change_array(const pointer _Newvec, const size_type _Newsize, const size_type _Newcapacity) {

  00000	55		 push	 ebp
  00001	8b ec		 mov	 ebp, esp
  00003	83 ec 34	 sub	 esp, 52			; 00000034H
  00006	89 4d f4	 mov	 DWORD PTR _this$[ebp], ecx

; 1668 :         // orphan all iterators, discard old array, acquire new array
; 1669 :         auto& _My_data    = _Mypair._Myval2;

  00009	8b 45 f4	 mov	 eax, DWORD PTR _this$[ebp]
  0000c	89 45 f8	 mov	 DWORD PTR __My_data$[ebp], eax

; 1670 :         pointer& _Myfirst = _My_data._Myfirst;

  0000f	8b 45 f8	 mov	 eax, DWORD PTR __My_data$[ebp]
  00012	89 45 fc	 mov	 DWORD PTR __Myfirst$[ebp], eax

; 1671 :         pointer& _Mylast  = _My_data._Mylast;

  00015	8b 45 f8	 mov	 eax, DWORD PTR __My_data$[ebp]
  00018	83 c0 04	 add	 eax, 4
  0001b	89 45 f0	 mov	 DWORD PTR __Mylast$[ebp], eax

; 1672 :         pointer& _Myend   = _My_data._Myend;

  0001e	8b 45 f8	 mov	 eax, DWORD PTR __My_data$[ebp]
  00021	83 c0 08	 add	 eax, 8
  00024	89 45 ec	 mov	 DWORD PTR __Myend$[ebp], eax

; 1673 : 
; 1674 :         _My_data._Orphan_all();
; 1675 : 
; 1676 :         if (_Myfirst) { // destroy and deallocate old array

  00027	8b 45 fc	 mov	 eax, DWORD PTR __Myfirst$[ebp]
  0002a	83 38 00	 cmp	 DWORD PTR [eax], 0
  0002d	74 62		 je	 SHORT $LN2@Change_arr

; 1677 :             _Destroy(_Myfirst, _Mylast);

  0002f	8b 45 f0	 mov	 eax, DWORD PTR __Mylast$[ebp]
  00032	8b 00		 mov	 eax, DWORD PTR [eax]
  00034	89 45 e0	 mov	 DWORD PTR __Last$[ebp], eax
  00037	8b 45 fc	 mov	 eax, DWORD PTR __Myfirst$[ebp]
  0003a	8b 00		 mov	 eax, DWORD PTR [eax]
  0003c	89 45 dc	 mov	 DWORD PTR __First$[ebp], eax

; 1733 :         return _Mypair._Get_first();

  0003f	8b 45 f4	 mov	 eax, DWORD PTR _this$[ebp]
; File C:\Program Files (x86)\Microsoft Visual Studio\2019\Community\VC\Tools\MSVC\14.28.29333\include\xmemory

; 1347 :         return *this;

  00042	89 45 e8	 mov	 DWORD PTR $T4[ebp], eax
; File C:\Program Files (x86)\Microsoft Visual Studio\2019\Community\VC\Tools\MSVC\14.28.29333\include\vector

; 1733 :         return _Mypair._Get_first();

  00045	8b 45 e8	 mov	 eax, DWORD PTR $T4[ebp]
  00048	89 45 e4	 mov	 DWORD PTR $T3[ebp], eax

; 1612 :         _Destroy_range(_First, _Last, _Getal());

  0004b	ff 75 e4	 push	 DWORD PTR $T3[ebp]
  0004e	ff 75 e0	 push	 DWORD PTR __Last$[ebp]
  00051	ff 75 dc	 push	 DWORD PTR __First$[ebp]
  00054	e8 00 00 00 00	 call	 ??$_Destroy_range@V?$allocator@PAVCParticleInstance@@@std@@@std@@YAXPAPAVCParticleInstance@@QAPAV1@AAV?$allocator@PAVCParticleInstance@@@0@@Z ; std::_Destroy_range<std::allocator<CParticleInstance *> >
  00059	83 c4 0c	 add	 esp, 12			; 0000000cH

; 1733 :         return _Mypair._Get_first();

  0005c	8b 45 f4	 mov	 eax, DWORD PTR _this$[ebp]
; File C:\Program Files (x86)\Microsoft Visual Studio\2019\Community\VC\Tools\MSVC\14.28.29333\include\xmemory

; 1347 :         return *this;

  0005f	89 45 d8	 mov	 DWORD PTR $T2[ebp], eax
; File C:\Program Files (x86)\Microsoft Visual Studio\2019\Community\VC\Tools\MSVC\14.28.29333\include\vector

; 1733 :         return _Mypair._Get_first();

  00062	8b 45 d8	 mov	 eax, DWORD PTR $T2[ebp]
  00065	89 45 cc	 mov	 DWORD PTR $T1[ebp], eax

; 1678 :             _Getal().deallocate(_Myfirst, static_cast<size_type>(_Myend - _Myfirst));

  00068	8b 45 ec	 mov	 eax, DWORD PTR __Myend$[ebp]
  0006b	8b 4d fc	 mov	 ecx, DWORD PTR __Myfirst$[ebp]
  0006e	8b 00		 mov	 eax, DWORD PTR [eax]
  00070	2b 01		 sub	 eax, DWORD PTR [ecx]
  00072	c1 f8 02	 sar	 eax, 2
  00075	89 45 d4	 mov	 DWORD PTR __Count$[ebp], eax
  00078	8b 45 fc	 mov	 eax, DWORD PTR __Myfirst$[ebp]
  0007b	8b 00		 mov	 eax, DWORD PTR [eax]
  0007d	89 45 d0	 mov	 DWORD PTR __Ptr$[ebp], eax
; File C:\Program Files (x86)\Microsoft Visual Studio\2019\Community\VC\Tools\MSVC\14.28.29333\include\xmemory

; 810  :         _Deallocate<_New_alignof<_Ty>>(_Ptr, sizeof(_Ty) * _Count);

  00080	8b 45 d4	 mov	 eax, DWORD PTR __Count$[ebp]
  00083	c1 e0 02	 shl	 eax, 2
  00086	50		 push	 eax
  00087	ff 75 d0	 push	 DWORD PTR __Ptr$[ebp]
  0008a	e8 00 00 00 00	 call	 ??$_Deallocate@$07$0A@@std@@YAXPAXI@Z ; std::_Deallocate<8,0>
  0008f	59		 pop	 ecx
  00090	59		 pop	 ecx
$LN2@Change_arr:
; File C:\Program Files (x86)\Microsoft Visual Studio\2019\Community\VC\Tools\MSVC\14.28.29333\include\vector

; 1681 :         _Myfirst = _Newvec;

  00091	8b 45 fc	 mov	 eax, DWORD PTR __Myfirst$[ebp]
  00094	8b 4d 08	 mov	 ecx, DWORD PTR __Newvec$[ebp]
  00097	89 08		 mov	 DWORD PTR [eax], ecx

; 1682 :         _Mylast  = _Newvec + _Newsize;

  00099	8b 45 0c	 mov	 eax, DWORD PTR __Newsize$[ebp]
  0009c	8b 4d 08	 mov	 ecx, DWORD PTR __Newvec$[ebp]
  0009f	8d 04 81	 lea	 eax, DWORD PTR [ecx+eax*4]
  000a2	8b 4d f0	 mov	 ecx, DWORD PTR __Mylast$[ebp]
  000a5	89 01		 mov	 DWORD PTR [ecx], eax

; 1683 :         _Myend   = _Newvec + _Newcapacity;

  000a7	8b 45 10	 mov	 eax, DWORD PTR __Newcapacity$[ebp]
  000aa	8b 4d 08	 mov	 ecx, DWORD PTR __Newvec$[ebp]
  000ad	8d 04 81	 lea	 eax, DWORD PTR [ecx+eax*4]
  000b0	8b 4d ec	 mov	 ecx, DWORD PTR __Myend$[ebp]
  000b3	89 01		 mov	 DWORD PTR [ecx], eax

; 1684 :     }

  000b5	c9		 leave
  000b6	c2 0c 00	 ret	 12			; 0000000cH
?_Change_array@?$vector@PAVCParticleInstance@@V?$allocator@PAVCParticleInstance@@@std@@@std@@AAEXQAPAVCParticleInstance@@II@Z ENDP ; std::vector<CParticleInstance *,std::allocator<CParticleInstance *> >::_Change_array
_TEXT	ENDS
; Function compile flags: /Odspy
; File C:\Program Files (x86)\Microsoft Visual Studio\2019\Community\VC\Tools\MSVC\14.28.29333\include\vector
; File C:\Program Files (x86)\Microsoft Visual Studio\2019\Community\VC\Tools\MSVC\14.28.29333\include\xmemory
; File C:\Program Files (x86)\Microsoft Visual Studio\2019\Community\VC\Tools\MSVC\14.28.29333\include\vector
; File C:\Program Files (x86)\Microsoft Visual Studio\2019\Community\VC\Tools\MSVC\14.28.29333\include\xmemory
; File C:\Program Files (x86)\Microsoft Visual Studio\2019\Community\VC\Tools\MSVC\14.28.29333\include\limits
; File C:\Program Files (x86)\Microsoft Visual Studio\2019\Community\VC\Tools\MSVC\14.28.29333\include\vector
; File C:\Program Files (x86)\Microsoft Visual Studio\2019\Community\VC\Tools\MSVC\14.28.29333\include\utility
; File C:\Program Files (x86)\Microsoft Visual Studio\2019\Community\VC\Tools\MSVC\14.28.29333\include\vector
;	COMDAT ?_Calculate_growth@?$vector@PAVCParticleInstance@@V?$allocator@PAVCParticleInstance@@@std@@@std@@ABEII@Z
_TEXT	SEGMENT
$T1 = -52						; size = 4
$T2 = -48						; size = 4
$T3 = -44						; size = 4
$T4 = -40						; size = 4
$T5 = -36						; size = 4
__Geometric$ = -32					; size = 4
__Max$ = -28						; size = 4
tv82 = -24						; size = 4
$T6 = -20						; size = 4
$T7 = -16						; size = 4
_this$ = -12						; size = 4
__My_data$8 = -8					; size = 4
__Oldcapacity$ = -4					; size = 4
__Newsize$ = 8						; size = 4
?_Calculate_growth@?$vector@PAVCParticleInstance@@V?$allocator@PAVCParticleInstance@@@std@@@std@@ABEII@Z PROC ; std::vector<CParticleInstance *,std::allocator<CParticleInstance *> >::_Calculate_growth, COMDAT
; _this$ = ecx

; 1615 :     size_type _Calculate_growth(const size_type _Newsize) const {

  00000	55		 push	 ebp
  00001	8b ec		 mov	 ebp, esp
  00003	83 ec 34	 sub	 esp, 52			; 00000034H
  00006	89 4d f4	 mov	 DWORD PTR _this$[ebp], ecx

; 1493 :         auto& _My_data = _Mypair._Myval2;

  00009	8b 45 f4	 mov	 eax, DWORD PTR _this$[ebp]
  0000c	89 45 f8	 mov	 DWORD PTR __My_data$8[ebp], eax

; 1494 :         return static_cast<size_type>(_My_data._Myend - _My_data._Myfirst);

  0000f	8b 45 f8	 mov	 eax, DWORD PTR __My_data$8[ebp]
  00012	8b 4d f8	 mov	 ecx, DWORD PTR __My_data$8[ebp]
  00015	8b 40 08	 mov	 eax, DWORD PTR [eax+8]
  00018	2b 01		 sub	 eax, DWORD PTR [ecx]
  0001a	c1 f8 02	 sar	 eax, 2
  0001d	89 45 fc	 mov	 DWORD PTR __Oldcapacity$[ebp], eax

; 1737 :         return _Mypair._Get_first();

  00020	8b 45 f4	 mov	 eax, DWORD PTR _this$[ebp]
; File C:\Program Files (x86)\Microsoft Visual Studio\2019\Community\VC\Tools\MSVC\14.28.29333\include\xmemory

; 1351 :         return *this;

  00023	89 45 dc	 mov	 DWORD PTR $T5[ebp], eax
; File C:\Program Files (x86)\Microsoft Visual Studio\2019\Community\VC\Tools\MSVC\14.28.29333\include\vector

; 1737 :         return _Mypair._Get_first();

  00026	8b 45 dc	 mov	 eax, DWORD PTR $T5[ebp]
  00029	89 45 cc	 mov	 DWORD PTR $T1[ebp], eax
; File C:\Program Files (x86)\Microsoft Visual Studio\2019\Community\VC\Tools\MSVC\14.28.29333\include\xmemory

; 710  :         return static_cast<size_t>(-1) / sizeof(value_type);

  0002c	c7 45 f0 ff ff
	ff 3f		 mov	 DWORD PTR $T7[ebp], 1073741823 ; 3fffffffH
; File C:\Program Files (x86)\Microsoft Visual Studio\2019\Community\VC\Tools\MSVC\14.28.29333\include\limits

; 557  :         return INT_MAX;

  00033	c7 45 d8 ff ff
	ff 7f		 mov	 DWORD PTR $T4[ebp], 2147483647 ; 7fffffffH
; File C:\Program Files (x86)\Microsoft Visual Studio\2019\Community\VC\Tools\MSVC\14.28.29333\include\vector

; 1488 :         return (_STD min)(

  0003a	8b 45 d8	 mov	 eax, DWORD PTR $T4[ebp]
  0003d	89 45 ec	 mov	 DWORD PTR $T6[ebp], eax
; File C:\Program Files (x86)\Microsoft Visual Studio\2019\Community\VC\Tools\MSVC\14.28.29333\include\utility

; 68   :     return _Right < _Left ? _Right : _Left;

  00040	8b 45 f0	 mov	 eax, DWORD PTR $T7[ebp]
  00043	3b 45 ec	 cmp	 eax, DWORD PTR $T6[ebp]
  00046	73 08		 jae	 SHORT $LN25@Calculate_
  00048	8d 45 f0	 lea	 eax, DWORD PTR $T7[ebp]
  0004b	89 45 e8	 mov	 DWORD PTR tv82[ebp], eax
  0004e	eb 06		 jmp	 SHORT $LN26@Calculate_
$LN25@Calculate_:
  00050	8d 45 ec	 lea	 eax, DWORD PTR $T6[ebp]
  00053	89 45 e8	 mov	 DWORD PTR tv82[ebp], eax
$LN26@Calculate_:
  00056	8b 45 e8	 mov	 eax, DWORD PTR tv82[ebp]
  00059	89 45 d4	 mov	 DWORD PTR $T3[ebp], eax
  0005c	8b 45 d4	 mov	 eax, DWORD PTR $T3[ebp]
  0005f	89 45 d0	 mov	 DWORD PTR $T2[ebp], eax
; File C:\Program Files (x86)\Microsoft Visual Studio\2019\Community\VC\Tools\MSVC\14.28.29333\include\vector

; 1488 :         return (_STD min)(

  00062	8b 45 d0	 mov	 eax, DWORD PTR $T2[ebp]
  00065	8b 00		 mov	 eax, DWORD PTR [eax]
  00067	89 45 e4	 mov	 DWORD PTR __Max$[ebp], eax

; 1616 :         // given _Oldcapacity and _Newsize, calculate geometric growth
; 1617 :         const size_type _Oldcapacity = capacity();
; 1618 :         const auto _Max              = max_size();
; 1619 : 
; 1620 :         if (_Oldcapacity > _Max - _Oldcapacity / 2) {

  0006a	8b 45 fc	 mov	 eax, DWORD PTR __Oldcapacity$[ebp]
  0006d	d1 e8		 shr	 eax, 1
  0006f	8b 4d e4	 mov	 ecx, DWORD PTR __Max$[ebp]
  00072	2b c8		 sub	 ecx, eax
  00074	39 4d fc	 cmp	 DWORD PTR __Oldcapacity$[ebp], ecx
  00077	76 05		 jbe	 SHORT $LN2@Calculate_

; 1621 :             return _Max; // geometric growth would overflow

  00079	8b 45 e4	 mov	 eax, DWORD PTR __Max$[ebp]
  0007c	eb 1b		 jmp	 SHORT $LN1@Calculate_
$LN2@Calculate_:

; 1622 :         }
; 1623 : 
; 1624 :         const size_type _Geometric = _Oldcapacity + _Oldcapacity / 2;

  0007e	8b 45 fc	 mov	 eax, DWORD PTR __Oldcapacity$[ebp]
  00081	d1 e8		 shr	 eax, 1
  00083	03 45 fc	 add	 eax, DWORD PTR __Oldcapacity$[ebp]
  00086	89 45 e0	 mov	 DWORD PTR __Geometric$[ebp], eax

; 1625 : 
; 1626 :         if (_Geometric < _Newsize) {

  00089	8b 45 e0	 mov	 eax, DWORD PTR __Geometric$[ebp]
  0008c	3b 45 08	 cmp	 eax, DWORD PTR __Newsize$[ebp]
  0008f	73 05		 jae	 SHORT $LN3@Calculate_

; 1627 :             return _Newsize; // geometric growth would be insufficient

  00091	8b 45 08	 mov	 eax, DWORD PTR __Newsize$[ebp]
  00094	eb 03		 jmp	 SHORT $LN1@Calculate_
$LN3@Calculate_:

; 1628 :         }
; 1629 : 
; 1630 :         return _Geometric; // geometric growth is sufficient

  00096	8b 45 e0	 mov	 eax, DWORD PTR __Geometric$[ebp]
$LN1@Calculate_:

; 1631 :     }

  00099	c9		 leave
  0009a	c2 04 00	 ret	 4
?_Calculate_growth@?$vector@PAVCParticleInstance@@V?$allocator@PAVCParticleInstance@@@std@@@std@@ABEII@Z ENDP ; std::vector<CParticleInstance *,std::allocator<CParticleInstance *> >::_Calculate_growth
_TEXT	ENDS
; Function compile flags: /Odspy
; File C:\Program Files (x86)\Microsoft Visual Studio\2019\Community\VC\Tools\MSVC\14.28.29333\include\vector
; File C:\Program Files (x86)\Microsoft Visual Studio\2019\Community\VC\Tools\MSVC\14.28.29333\include\xmemory
; File C:\Program Files (x86)\Microsoft Visual Studio\2019\Community\VC\Tools\MSVC\14.28.29333\include\vector
;	COMDAT ?_Destroy@?$vector@PAVCParticleInstance@@V?$allocator@PAVCParticleInstance@@@std@@@std@@AAEXPAPAVCParticleInstance@@0@Z
_TEXT	SEGMENT
$T1 = -12						; size = 4
$T2 = -8						; size = 4
_this$ = -4						; size = 4
__First$ = 8						; size = 4
__Last$ = 12						; size = 4
?_Destroy@?$vector@PAVCParticleInstance@@V?$allocator@PAVCParticleInstance@@@std@@@std@@AAEXPAPAVCParticleInstance@@0@Z PROC ; std::vector<CParticleInstance *,std::allocator<CParticleInstance *> >::_Destroy, COMDAT
; _this$ = ecx

; 1611 :     void _Destroy(pointer _First, pointer _Last) { // destroy [_First, _Last) using allocator

  00000	55		 push	 ebp
  00001	8b ec		 mov	 ebp, esp
  00003	83 ec 0c	 sub	 esp, 12			; 0000000cH
  00006	89 4d fc	 mov	 DWORD PTR _this$[ebp], ecx

; 1733 :         return _Mypair._Get_first();

  00009	8b 45 fc	 mov	 eax, DWORD PTR _this$[ebp]
; File C:\Program Files (x86)\Microsoft Visual Studio\2019\Community\VC\Tools\MSVC\14.28.29333\include\xmemory

; 1347 :         return *this;

  0000c	89 45 f8	 mov	 DWORD PTR $T2[ebp], eax
; File C:\Program Files (x86)\Microsoft Visual Studio\2019\Community\VC\Tools\MSVC\14.28.29333\include\vector

; 1733 :         return _Mypair._Get_first();

  0000f	8b 45 f8	 mov	 eax, DWORD PTR $T2[ebp]
  00012	89 45 f4	 mov	 DWORD PTR $T1[ebp], eax

; 1612 :         _Destroy_range(_First, _Last, _Getal());

  00015	ff 75 f4	 push	 DWORD PTR $T1[ebp]
  00018	ff 75 0c	 push	 DWORD PTR __Last$[ebp]
  0001b	ff 75 08	 push	 DWORD PTR __First$[ebp]
  0001e	e8 00 00 00 00	 call	 ??$_Destroy_range@V?$allocator@PAVCParticleInstance@@@std@@@std@@YAXPAPAVCParticleInstance@@QAPAV1@AAV?$allocator@PAVCParticleInstance@@@0@@Z ; std::_Destroy_range<std::allocator<CParticleInstance *> >
  00023	83 c4 0c	 add	 esp, 12			; 0000000cH

; 1613 :     }

  00026	c9		 leave
  00027	c2 08 00	 ret	 8
?_Destroy@?$vector@PAVCParticleInstance@@V?$allocator@PAVCParticleInstance@@@std@@@std@@AAEXPAPAVCParticleInstance@@0@Z ENDP ; std::vector<CParticleInstance *,std::allocator<CParticleInstance *> >::_Destroy
_TEXT	ENDS
; Function compile flags: /Odspy
; File C:\Program Files (x86)\Microsoft Visual Studio\2019\Community\VC\Tools\MSVC\14.28.29333\include\vector
; File C:\Program Files (x86)\Microsoft Visual Studio\2019\Community\VC\Tools\MSVC\14.28.29333\include\xmemory
; File C:\Program Files (x86)\Microsoft Visual Studio\2019\Community\VC\Tools\MSVC\14.28.29333\include\vector
;	COMDAT ?clear@?$vector@PAVCParticleInstance@@V?$allocator@PAVCParticleInstance@@@std@@@std@@QAEXXZ
_TEXT	SEGMENT
__First$ = -32						; size = 4
__Last$ = -28						; size = 4
$T1 = -24						; size = 4
$T2 = -20						; size = 4
__Myfirst$ = -16					; size = 4
__Mylast$ = -12						; size = 4
_this$ = -8						; size = 4
__My_data$ = -4						; size = 4
?clear@?$vector@PAVCParticleInstance@@V?$allocator@PAVCParticleInstance@@@std@@@std@@QAEXXZ PROC ; std::vector<CParticleInstance *,std::allocator<CParticleInstance *> >::clear, COMDAT
; _this$ = ecx

; 1383 :     void clear() noexcept { // erase all

  00000	55		 push	 ebp
  00001	8b ec		 mov	 ebp, esp
  00003	83 ec 20	 sub	 esp, 32			; 00000020H
  00006	89 4d f8	 mov	 DWORD PTR _this$[ebp], ecx

; 1384 :         auto& _My_data    = _Mypair._Myval2;

  00009	8b 45 f8	 mov	 eax, DWORD PTR _this$[ebp]
  0000c	89 45 fc	 mov	 DWORD PTR __My_data$[ebp], eax

; 1385 :         pointer& _Myfirst = _My_data._Myfirst;

  0000f	8b 45 fc	 mov	 eax, DWORD PTR __My_data$[ebp]
  00012	89 45 f0	 mov	 DWORD PTR __Myfirst$[ebp], eax

; 1386 :         pointer& _Mylast  = _My_data._Mylast;

  00015	8b 45 fc	 mov	 eax, DWORD PTR __My_data$[ebp]
  00018	83 c0 04	 add	 eax, 4
  0001b	89 45 f4	 mov	 DWORD PTR __Mylast$[ebp], eax

; 1387 : 
; 1388 :         _My_data._Orphan_all();
; 1389 :         _Destroy(_Myfirst, _Mylast);

  0001e	8b 45 f4	 mov	 eax, DWORD PTR __Mylast$[ebp]
  00021	8b 00		 mov	 eax, DWORD PTR [eax]
  00023	89 45 e4	 mov	 DWORD PTR __Last$[ebp], eax
  00026	8b 45 f0	 mov	 eax, DWORD PTR __Myfirst$[ebp]
  00029	8b 00		 mov	 eax, DWORD PTR [eax]
  0002b	89 45 e0	 mov	 DWORD PTR __First$[ebp], eax

; 1733 :         return _Mypair._Get_first();

  0002e	8b 45 f8	 mov	 eax, DWORD PTR _this$[ebp]
; File C:\Program Files (x86)\Microsoft Visual Studio\2019\Community\VC\Tools\MSVC\14.28.29333\include\xmemory

; 1347 :         return *this;

  00031	89 45 ec	 mov	 DWORD PTR $T2[ebp], eax
; File C:\Program Files (x86)\Microsoft Visual Studio\2019\Community\VC\Tools\MSVC\14.28.29333\include\vector

; 1733 :         return _Mypair._Get_first();

  00034	8b 45 ec	 mov	 eax, DWORD PTR $T2[ebp]
  00037	89 45 e8	 mov	 DWORD PTR $T1[ebp], eax

; 1612 :         _Destroy_range(_First, _Last, _Getal());

  0003a	ff 75 e8	 push	 DWORD PTR $T1[ebp]
  0003d	ff 75 e4	 push	 DWORD PTR __Last$[ebp]
  00040	ff 75 e0	 push	 DWORD PTR __First$[ebp]
  00043	e8 00 00 00 00	 call	 ??$_Destroy_range@V?$allocator@PAVCParticleInstance@@@std@@@std@@YAXPAPAVCParticleInstance@@QAPAV1@AAV?$allocator@PAVCParticleInstance@@@0@@Z ; std::_Destroy_range<std::allocator<CParticleInstance *> >
  00048	83 c4 0c	 add	 esp, 12			; 0000000cH

; 1390 :         _Mylast = _Myfirst;

  0004b	8b 45 f4	 mov	 eax, DWORD PTR __Mylast$[ebp]
  0004e	8b 4d f0	 mov	 ecx, DWORD PTR __Myfirst$[ebp]
  00051	8b 09		 mov	 ecx, DWORD PTR [ecx]
  00053	89 08		 mov	 DWORD PTR [eax], ecx

; 1391 :     }

  00055	c9		 leave
  00056	c3		 ret	 0
?clear@?$vector@PAVCParticleInstance@@V?$allocator@PAVCParticleInstance@@@std@@@std@@QAEXXZ ENDP ; std::vector<CParticleInstance *,std::allocator<CParticleInstance *> >::clear
_TEXT	ENDS
; Function compile flags: /Odspy
; File C:\Program Files (x86)\Microsoft Visual Studio\2019\Community\VC\Tools\MSVC\14.28.29333\include\xmemory
;	COMDAT ?deallocate@?$allocator@PAVCParticleInstance@@@std@@QAEXQAPAVCParticleInstance@@I@Z
_TEXT	SEGMENT
_this$ = -4						; size = 4
__Ptr$ = 8						; size = 4
__Count$ = 12						; size = 4
?deallocate@?$allocator@PAVCParticleInstance@@@std@@QAEXQAPAVCParticleInstance@@I@Z PROC ; std::allocator<CParticleInstance *>::deallocate, COMDAT
; _this$ = ecx

; 808  :     void deallocate(_Ty* const _Ptr, const size_t _Count) {

  00000	55		 push	 ebp
  00001	8b ec		 mov	 ebp, esp
  00003	51		 push	 ecx
  00004	89 4d fc	 mov	 DWORD PTR _this$[ebp], ecx

; 809  :         // no overflow check on the following multiply; we assume _Allocate did that check
; 810  :         _Deallocate<_New_alignof<_Ty>>(_Ptr, sizeof(_Ty) * _Count);

  00007	8b 45 0c	 mov	 eax, DWORD PTR __Count$[ebp]
  0000a	c1 e0 02	 shl	 eax, 2
  0000d	50		 push	 eax
  0000e	ff 75 08	 push	 DWORD PTR __Ptr$[ebp]
  00011	e8 00 00 00 00	 call	 ??$_Deallocate@$07$0A@@std@@YAXPAXI@Z ; std::_Deallocate<8,0>
  00016	59		 pop	 ecx
  00017	59		 pop	 ecx

; 811  :     }

  00018	c9		 leave
  00019	c2 08 00	 ret	 8
?deallocate@?$allocator@PAVCParticleInstance@@@std@@QAEXQAPAVCParticleInstance@@I@Z ENDP ; std::allocator<CParticleInstance *>::deallocate
_TEXT	ENDS
; Function compile flags: /Odspy
; File D:\Metin2 Server Files\mainline\SRC_2014\Metin2Client\eterLib\Pool.h
;	COMDAT ?Delete@?$CDynamicPool@VCParticleInstance@@@@KAXPAVCParticleInstance@@@Z
_TEXT	SEGMENT
$T1 = -12						; size = 4
tv68 = -8						; size = 4
$T2 = -4						; size = 4
_pkData$ = 8						; size = 4
?Delete@?$CDynamicPool@VCParticleInstance@@@@KAXPAVCParticleInstance@@@Z PROC ; CDynamicPool<CParticleInstance>::Delete, COMDAT

; 109  : 		{

  00000	55		 push	 ebp
  00001	8b ec		 mov	 ebp, esp
  00003	83 ec 0c	 sub	 esp, 12			; 0000000cH

; 110  : 			delete pkData;

  00006	8b 45 08	 mov	 eax, DWORD PTR _pkData$[ebp]
  00009	89 45 fc	 mov	 DWORD PTR $T2[ebp], eax
  0000c	83 7d fc 00	 cmp	 DWORD PTR $T2[ebp], 0
  00010	74 2d		 je	 SHORT $LN3@Delete
  00012	8b 45 f4	 mov	 eax, DWORD PTR $T1[ebp]
  00015	89 45 f8	 mov	 DWORD PTR tv68[ebp], eax
  00018	8b 4d fc	 mov	 ecx, DWORD PTR $T2[ebp]
  0001b	e8 00 00 00 00	 call	 ??1CParticleInstance@@QAE@XZ ; CParticleInstance::~CParticleInstance
  00020	33 c0		 xor	 eax, eax
  00022	40		 inc	 eax
  00023	83 e0 01	 and	 eax, 1
  00026	74 0f		 je	 SHORT $LN6@Delete
  00028	68 c4 00 00 00	 push	 196			; 000000c4H
  0002d	ff 75 fc	 push	 DWORD PTR $T2[ebp]
  00030	e8 00 00 00 00	 call	 ??3@YAXPAXI@Z		; operator delete
  00035	59		 pop	 ecx
  00036	59		 pop	 ecx
$LN6@Delete:
  00037	8b 45 fc	 mov	 eax, DWORD PTR $T2[ebp]
  0003a	89 45 f8	 mov	 DWORD PTR tv68[ebp], eax
  0003d	eb 04		 jmp	 SHORT $LN1@Delete
$LN3@Delete:
  0003f	83 65 f8 00	 and	 DWORD PTR tv68[ebp], 0
$LN1@Delete:

; 111  : 		}

  00043	c9		 leave
  00044	c3		 ret	 0
?Delete@?$CDynamicPool@VCParticleInstance@@@@KAXPAVCParticleInstance@@@Z ENDP ; CDynamicPool<CParticleInstance>::Delete
_TEXT	ENDS
; Function compile flags: /Odspy
; File D:\Metin2 Server Files\mainline\SRC_2014\Metin2Client\eterLib\Pool.h
; File C:\Program Files (x86)\Microsoft Visual Studio\2019\Community\VC\Tools\MSVC\14.28.29333\include\vector
; File D:\Metin2 Server Files\mainline\SRC_2014\Metin2Client\eterLib\Pool.h
; File C:\Program Files (x86)\Microsoft Visual Studio\2019\Community\VC\Tools\MSVC\14.28.29333\include\vector
; File D:\Metin2 Server Files\mainline\SRC_2014\Metin2Client\eterLib\Pool.h
; File C:\Program Files (x86)\Microsoft Visual Studio\2019\Community\VC\Tools\MSVC\14.28.29333\include\vector
; File D:\Metin2 Server Files\mainline\SRC_2014\Metin2Client\eterLib\Pool.h
; File C:\Program Files (x86)\Microsoft Visual Studio\2019\Community\VC\Tools\MSVC\14.28.29333\include\vector
; File D:\Metin2 Server Files\mainline\SRC_2014\Metin2Client\eterLib\Pool.h
; File C:\Program Files (x86)\Microsoft Visual Studio\2019\Community\VC\Tools\MSVC\14.28.29333\include\vector
; File C:\Program Files (x86)\Microsoft Visual Studio\2019\Community\VC\Tools\MSVC\14.28.29333\include\xstddef
; File C:\Program Files (x86)\Microsoft Visual Studio\2019\Community\VC\Tools\MSVC\14.28.29333\include\vector
; File C:\Program Files (x86)\Microsoft Visual Studio\2019\Community\VC\Tools\MSVC\14.28.29333\include\xmemory
; File C:\Program Files (x86)\Microsoft Visual Studio\2019\Community\VC\Tools\MSVC\14.28.29333\include\vector
; File D:\Metin2 Server Files\mainline\SRC_2014\Metin2Client\eterLib\Pool.h
;	COMDAT ?Alloc@?$CDynamicPool@VCParticleInstance@@@@QAEPAVCParticleInstance@@XZ
_TEXT	SEGMENT
$T2 = -84						; size = 4
$T3 = -80						; size = 4
_pkFreeData$ = -76					; size = 4
$T4 = -72						; size = 4
__Ptr$ = -68						; size = 4
__My_data$5 = -64					; size = 4
$T6 = -60						; size = 4
__My_data$7 = -56					; size = 4
$T8 = -52						; size = 4
_this$ = -48						; size = 4
_pkNewData$9 = -44					; size = 4
tv80 = -40						; size = 4
$T10 = -36						; size = 4
tv130 = -32						; size = 4
__My_data$11 = -28					; size = 4
__Mylast$12 = -24					; size = 4
_this$ = -20						; size = 4
$T13 = -13						; size = 1
__$EHRec$ = -12						; size = 12
?Alloc@?$CDynamicPool@VCParticleInstance@@@@QAEPAVCParticleInstance@@XZ PROC ; CDynamicPool<CParticleInstance>::Alloc, COMDAT
; _this$ = ecx

; 62   : 		{

  00000	55		 push	 ebp
  00001	8b ec		 mov	 ebp, esp
  00003	6a ff		 push	 -1
  00005	68 00 00 00 00	 push	 __ehhandler$?Alloc@?$CDynamicPool@VCParticleInstance@@@@QAEPAVCParticleInstance@@XZ
  0000a	64 a1 00 00 00
	00		 mov	 eax, DWORD PTR fs:0
  00010	50		 push	 eax
  00011	83 ec 48	 sub	 esp, 72			; 00000048H
  00014	a1 00 00 00 00	 mov	 eax, DWORD PTR ___security_cookie
  00019	33 c5		 xor	 eax, ebp
  0001b	50		 push	 eax
  0001c	8d 45 f4	 lea	 eax, DWORD PTR __$EHRec$[ebp]
  0001f	64 a3 00 00 00
	00		 mov	 DWORD PTR fs:0, eax
  00025	89 4d ec	 mov	 DWORD PTR _this$[ebp], ecx
; File C:\Program Files (x86)\Microsoft Visual Studio\2019\Community\VC\Tools\MSVC\14.28.29333\include\vector

; 1478 :         auto& _My_data = _Mypair._Myval2;

  00028	8b 45 ec	 mov	 eax, DWORD PTR _this$[ebp]
  0002b	83 c0 10	 add	 eax, 16			; 00000010H
  0002e	89 45 e4	 mov	 DWORD PTR __My_data$11[ebp], eax

; 1479 :         return _My_data._Myfirst == _My_data._Mylast;

  00031	8b 45 e4	 mov	 eax, DWORD PTR __My_data$11[ebp]
  00034	8b 4d e4	 mov	 ecx, DWORD PTR __My_data$11[ebp]
  00037	8b 00		 mov	 eax, DWORD PTR [eax]
  00039	3b 41 04	 cmp	 eax, DWORD PTR [ecx+4]
  0003c	75 09		 jne	 SHORT $LN9@Alloc
  0003e	c7 45 e0 01 00
	00 00		 mov	 DWORD PTR tv130[ebp], 1
  00045	eb 04		 jmp	 SHORT $LN10@Alloc
$LN9@Alloc:
  00047	83 65 e0 00	 and	 DWORD PTR tv130[ebp], 0
$LN10@Alloc:
  0004b	8a 45 e0	 mov	 al, BYTE PTR tv130[ebp]
  0004e	88 45 f3	 mov	 BYTE PTR $T13[ebp], al
; File D:\Metin2 Server Files\mainline\SRC_2014\Metin2Client\eterLib\Pool.h

; 63   : 			if (m_kVct_pkFree.empty())

  00051	0f b6 45 f3	 movzx	 eax, BYTE PTR $T13[ebp]
  00055	85 c0		 test	 eax, eax
  00057	74 5a		 je	 SHORT $LN2@Alloc

; 64   : 			{
; 65   : 				T* pkNewData=new T;

  00059	68 c4 00 00 00	 push	 196			; 000000c4H
  0005e	e8 00 00 00 00	 call	 ??2@YAPAXI@Z		; operator new
  00063	59		 pop	 ecx
  00064	89 45 dc	 mov	 DWORD PTR $T10[ebp], eax
  00067	83 65 fc 00	 and	 DWORD PTR __$EHRec$[ebp+8], 0
  0006b	83 7d dc 00	 cmp	 DWORD PTR $T10[ebp], 0
  0006f	74 0d		 je	 SHORT $LN4@Alloc
  00071	8b 4d dc	 mov	 ecx, DWORD PTR $T10[ebp]
  00074	e8 00 00 00 00	 call	 ??0CParticleInstance@@QAE@XZ ; CParticleInstance::CParticleInstance
  00079	89 45 d8	 mov	 DWORD PTR tv80[ebp], eax
  0007c	eb 04		 jmp	 SHORT $LN5@Alloc
$LN4@Alloc:
  0007e	83 65 d8 00	 and	 DWORD PTR tv80[ebp], 0
$LN5@Alloc:
  00082	8b 45 d8	 mov	 eax, DWORD PTR tv80[ebp]
  00085	89 45 cc	 mov	 DWORD PTR $T8[ebp], eax
  00088	83 4d fc ff	 or	 DWORD PTR __$EHRec$[ebp+8], -1
  0008c	8b 45 cc	 mov	 eax, DWORD PTR $T8[ebp]
  0008f	89 45 d4	 mov	 DWORD PTR _pkNewData$9[ebp], eax
; File C:\Program Files (x86)\Microsoft Visual Studio\2019\Community\VC\Tools\MSVC\14.28.29333\include\vector

; 717  :         emplace_back(_Val);

  00092	8d 45 d4	 lea	 eax, DWORD PTR _pkNewData$9[ebp]
  00095	50		 push	 eax
; File D:\Metin2 Server Files\mainline\SRC_2014\Metin2Client\eterLib\Pool.h

; 66   : 				m_kVct_pkData.push_back(pkNewData);

  00096	8b 4d ec	 mov	 ecx, DWORD PTR _this$[ebp]
  00099	83 c1 04	 add	 ecx, 4
; File C:\Program Files (x86)\Microsoft Visual Studio\2019\Community\VC\Tools\MSVC\14.28.29333\include\vector

; 717  :         emplace_back(_Val);

  0009c	e8 00 00 00 00	 call	 ??$emplace_back@ABQAVCParticleInstance@@@?$vector@PAVCParticleInstance@@V?$allocator@PAVCParticleInstance@@@std@@@std@@QAEXABQAVCParticleInstance@@@Z ; std::vector<CParticleInstance *,std::allocator<CParticleInstance *> >::emplace_back<CParticleInstance * const &>
; File D:\Metin2 Server Files\mainline\SRC_2014\Metin2Client\eterLib\Pool.h

; 67   : 				++m_uUsedCapacity;

  000a1	8b 45 ec	 mov	 eax, DWORD PTR _this$[ebp]
  000a4	8b 40 20	 mov	 eax, DWORD PTR [eax+32]
  000a7	40		 inc	 eax
  000a8	8b 4d ec	 mov	 ecx, DWORD PTR _this$[ebp]
  000ab	89 41 20	 mov	 DWORD PTR [ecx+32], eax

; 68   : 				return pkNewData;

  000ae	8b 45 d4	 mov	 eax, DWORD PTR _pkNewData$9[ebp]
  000b1	eb 65		 jmp	 SHORT $LN1@Alloc
$LN2@Alloc:
; File C:\Program Files (x86)\Microsoft Visual Studio\2019\Community\VC\Tools\MSVC\14.28.29333\include\vector

; 1554 :         auto& _My_data = _Mypair._Myval2;

  000b3	8b 45 ec	 mov	 eax, DWORD PTR _this$[ebp]
  000b6	83 c0 10	 add	 eax, 16			; 00000010H
  000b9	89 45 c8	 mov	 DWORD PTR __My_data$7[ebp], eax

; 1555 : #if _CONTAINER_DEBUG_LEVEL > 0
; 1556 :         _STL_VERIFY(_My_data._Myfirst != _My_data._Mylast, "back() called on empty vector");
; 1557 : #endif // _CONTAINER_DEBUG_LEVEL > 0
; 1558 : 
; 1559 :         return _My_data._Mylast[-1];

  000bc	6a 04		 push	 4
  000be	58		 pop	 eax
  000bf	6b c0 ff	 imul	 eax, eax, -1
  000c2	8b 4d c8	 mov	 ecx, DWORD PTR __My_data$7[ebp]
  000c5	03 41 04	 add	 eax, DWORD PTR [ecx+4]
  000c8	89 45 c4	 mov	 DWORD PTR $T6[ebp], eax
; File D:\Metin2 Server Files\mainline\SRC_2014\Metin2Client\eterLib\Pool.h

; 71   : 			T* pkFreeData=m_kVct_pkFree.back();

  000cb	8b 45 c4	 mov	 eax, DWORD PTR $T6[ebp]
  000ce	8b 00		 mov	 eax, DWORD PTR [eax]
  000d0	89 45 b4	 mov	 DWORD PTR _pkFreeData$[ebp], eax

; 72   : 			m_kVct_pkFree.pop_back();

  000d3	8b 45 ec	 mov	 eax, DWORD PTR _this$[ebp]
  000d6	83 c0 10	 add	 eax, 16			; 00000010H
  000d9	89 45 d0	 mov	 DWORD PTR _this$[ebp], eax
; File C:\Program Files (x86)\Microsoft Visual Studio\2019\Community\VC\Tools\MSVC\14.28.29333\include\vector

; 1329 :         auto& _My_data   = _Mypair._Myval2;

  000dc	8b 45 d0	 mov	 eax, DWORD PTR _this$[ebp]
  000df	89 45 c0	 mov	 DWORD PTR __My_data$5[ebp], eax

; 1330 :         pointer& _Mylast = _My_data._Mylast;

  000e2	8b 45 c0	 mov	 eax, DWORD PTR __My_data$5[ebp]
  000e5	83 c0 04	 add	 eax, 4
  000e8	89 45 e8	 mov	 DWORD PTR __Mylast$12[ebp], eax

; 1331 : 
; 1332 : #if _ITERATOR_DEBUG_LEVEL == 2
; 1333 :         _STL_VERIFY(_My_data._Myfirst != _Mylast, "vector empty before pop");
; 1334 :         _Orphan_range(_Mylast - 1, _Mylast);
; 1335 : #endif // _ITERATOR_DEBUG_LEVEL == 2
; 1336 : 
; 1337 :         _Alty_traits::destroy(_Getal(), _Unfancy(_Mylast - 1));

  000eb	8b 45 e8	 mov	 eax, DWORD PTR __Mylast$12[ebp]
  000ee	8b 00		 mov	 eax, DWORD PTR [eax]
  000f0	83 e8 04	 sub	 eax, 4
  000f3	89 45 bc	 mov	 DWORD PTR __Ptr$[ebp], eax
; File C:\Program Files (x86)\Microsoft Visual Studio\2019\Community\VC\Tools\MSVC\14.28.29333\include\xstddef

; 289  :     return _Ptr;

  000f6	8b 45 bc	 mov	 eax, DWORD PTR __Ptr$[ebp]
  000f9	89 45 b0	 mov	 DWORD PTR $T3[ebp], eax
; File C:\Program Files (x86)\Microsoft Visual Studio\2019\Community\VC\Tools\MSVC\14.28.29333\include\vector

; 1733 :         return _Mypair._Get_first();

  000fc	8b 45 d0	 mov	 eax, DWORD PTR _this$[ebp]
; File C:\Program Files (x86)\Microsoft Visual Studio\2019\Community\VC\Tools\MSVC\14.28.29333\include\xmemory

; 1347 :         return *this;

  000ff	89 45 b8	 mov	 DWORD PTR $T4[ebp], eax
; File C:\Program Files (x86)\Microsoft Visual Studio\2019\Community\VC\Tools\MSVC\14.28.29333\include\vector

; 1733 :         return _Mypair._Get_first();

  00102	8b 45 b8	 mov	 eax, DWORD PTR $T4[ebp]
  00105	89 45 ac	 mov	 DWORD PTR $T2[ebp], eax

; 1338 :         --_Mylast;

  00108	8b 45 e8	 mov	 eax, DWORD PTR __Mylast$12[ebp]
  0010b	8b 00		 mov	 eax, DWORD PTR [eax]
  0010d	83 e8 04	 sub	 eax, 4
  00110	8b 4d e8	 mov	 ecx, DWORD PTR __Mylast$12[ebp]
  00113	89 01		 mov	 DWORD PTR [ecx], eax
; File D:\Metin2 Server Files\mainline\SRC_2014\Metin2Client\eterLib\Pool.h

; 73   : 			return pkFreeData;

  00115	8b 45 b4	 mov	 eax, DWORD PTR _pkFreeData$[ebp]
$LN1@Alloc:

; 74   : 		}

  00118	8b 4d f4	 mov	 ecx, DWORD PTR __$EHRec$[ebp]
  0011b	64 89 0d 00 00
	00 00		 mov	 DWORD PTR fs:0, ecx
  00122	59		 pop	 ecx
  00123	c9		 leave
  00124	c3		 ret	 0
_TEXT	ENDS
;	COMDAT text$x
text$x	SEGMENT
__unwindfunclet$?Alloc@?$CDynamicPool@VCParticleInstance@@@@QAEPAVCParticleInstance@@XZ$0:
  00000	68 c4 00 00 00	 push	 196			; 000000c4H
  00005	ff 75 dc	 push	 DWORD PTR $T10[ebp]
  00008	e8 00 00 00 00	 call	 ??3@YAXPAXI@Z		; operator delete
  0000d	59		 pop	 ecx
  0000e	59		 pop	 ecx
  0000f	c3		 ret	 0
  00010	cc		 int	 3
  00011	cc		 int	 3
  00012	cc		 int	 3
  00013	cc		 int	 3
  00014	cc		 int	 3
__ehhandler$?Alloc@?$CDynamicPool@VCParticleInstance@@@@QAEPAVCParticleInstance@@XZ:
  00015	90		 npad	 1
  00016	90		 npad	 1
  00017	8b 54 24 08	 mov	 edx, DWORD PTR [esp+8]
  0001b	8d 42 0c	 lea	 eax, DWORD PTR [edx+12]
  0001e	8b 4a b4	 mov	 ecx, DWORD PTR [edx-76]
  00021	33 c8		 xor	 ecx, eax
  00023	e8 00 00 00 00	 call	 @__security_check_cookie@4
  00028	b8 00 00 00 00	 mov	 eax, OFFSET __ehfuncinfo$?Alloc@?$CDynamicPool@VCParticleInstance@@@@QAEPAVCParticleInstance@@XZ
  0002d	e9 00 00 00 00	 jmp	 ___CxxFrameHandler3
text$x	ENDS
?Alloc@?$CDynamicPool@VCParticleInstance@@@@QAEPAVCParticleInstance@@XZ ENDP ; CDynamicPool<CParticleInstance>::Alloc
; Function compile flags: /Odspy
; File D:\Metin2 Server Files\mainline\SRC_2014\Metin2Client\eterLib\Pool.h
; File C:\Program Files (x86)\Microsoft Visual Studio\2019\Community\VC\Tools\MSVC\14.28.29333\include\vector
; File C:\Program Files (x86)\Microsoft Visual Studio\2019\Community\VC\Tools\MSVC\14.28.29333\include\xstddef
; File C:\Program Files (x86)\Microsoft Visual Studio\2019\Community\VC\Tools\MSVC\14.28.29333\include\vector
; File C:\Program Files (x86)\Microsoft Visual Studio\2019\Community\VC\Tools\MSVC\14.28.29333\include\xstddef
; File C:\Program Files (x86)\Microsoft Visual Studio\2019\Community\VC\Tools\MSVC\14.28.29333\include\vector
; File D:\Metin2 Server Files\mainline\SRC_2014\Metin2Client\eterLib\Pool.h
; File C:\Program Files (x86)\Microsoft Visual Studio\2019\Community\VC\Tools\MSVC\14.28.29333\include\vector
; File C:\Program Files (x86)\Microsoft Visual Studio\2019\Community\VC\Tools\MSVC\14.28.29333\include\xstddef
; File C:\Program Files (x86)\Microsoft Visual Studio\2019\Community\VC\Tools\MSVC\14.28.29333\include\vector
; File C:\Program Files (x86)\Microsoft Visual Studio\2019\Community\VC\Tools\MSVC\14.28.29333\include\algorithm
; File C:\Program Files (x86)\Microsoft Visual Studio\2019\Community\VC\Tools\MSVC\14.28.29333\include\vector
; File C:\Program Files (x86)\Microsoft Visual Studio\2019\Community\VC\Tools\MSVC\14.28.29333\include\xstddef
; File C:\Program Files (x86)\Microsoft Visual Studio\2019\Community\VC\Tools\MSVC\14.28.29333\include\vector
; File C:\Program Files (x86)\Microsoft Visual Studio\2019\Community\VC\Tools\MSVC\14.28.29333\include\algorithm
; File D:\Metin2 Server Files\mainline\SRC_2014\Metin2Client\eterLib\Pool.h
;	COMDAT ?Destroy@?$CDynamicPool@VCParticleInstance@@@@QAEXXZ
_TEXT	SEGMENT
$T1 = -84						; size = 4
$T2 = -80						; size = 4
__ULast$3 = -76						; size = 4
$T4 = -72						; size = 4
$T5 = -68						; size = 4
__Ptr$6 = -64						; size = 4
__Last$ = -60						; size = 4
$T7 = -56						; size = 4
$T8 = -52						; size = 4
__Ptr$9 = -48						; size = 4
__First$ = -44						; size = 4
$T10 = -40						; size = 4
$T11 = -36						; size = 4
$T12 = -32						; size = 4
___param0$ = -28					; size = 4
$T13 = -24						; size = 4
___param0$ = -20					; size = 4
__My_data$14 = -16					; size = 4
__My_data$15 = -12					; size = 4
_this$ = -8						; size = 4
__UFirst$16 = -4					; size = 4
?Destroy@?$CDynamicPool@VCParticleInstance@@@@QAEXXZ PROC ; CDynamicPool<CParticleInstance>::Destroy, COMDAT
; _this$ = ecx

; 38   : 		{

  00000	55		 push	 ebp
  00001	8b ec		 mov	 ebp, esp
  00003	83 ec 54	 sub	 esp, 84			; 00000054H
  00006	89 4d f8	 mov	 DWORD PTR _this$[ebp], ecx
; File C:\Program Files (x86)\Microsoft Visual Studio\2019\Community\VC\Tools\MSVC\14.28.29333\include\vector

; 1420 :         auto& _My_data = _Mypair._Myval2;

  00009	8b 45 f8	 mov	 eax, DWORD PTR _this$[ebp]
  0000c	83 c0 04	 add	 eax, 4
  0000f	89 45 f4	 mov	 DWORD PTR __My_data$15[ebp], eax
; File C:\Program Files (x86)\Microsoft Visual Studio\2019\Community\VC\Tools\MSVC\14.28.29333\include\xstddef

; 275  :     return __builtin_addressof(_Val);

  00012	8b 45 f4	 mov	 eax, DWORD PTR __My_data$15[ebp]
  00015	89 45 b0	 mov	 DWORD PTR $T2[ebp], eax
; File C:\Program Files (x86)\Microsoft Visual Studio\2019\Community\VC\Tools\MSVC\14.28.29333\include\vector

; 1421 :         return iterator(_My_data._Mylast, _STD addressof(_My_data));

  00018	8b 45 f4	 mov	 eax, DWORD PTR __My_data$15[ebp]
  0001b	8b 40 04	 mov	 eax, DWORD PTR [eax+4]
  0001e	89 45 ec	 mov	 DWORD PTR ___param0$[ebp], eax

; 42   :     _Vector_const_iterator(_Tptr _Parg, const _Container_base* _Pvector) noexcept : _Ptr(_Parg) {

  00021	8b 45 ec	 mov	 eax, DWORD PTR ___param0$[ebp]
  00024	89 45 e8	 mov	 DWORD PTR $T13[ebp], eax

; 1421 :         return iterator(_My_data._Mylast, _STD addressof(_My_data));

  00027	8d 45 e8	 lea	 eax, DWORD PTR $T13[ebp]
  0002a	89 45 dc	 mov	 DWORD PTR $T11[ebp], eax

; 1410 :         auto& _My_data = _Mypair._Myval2;

  0002d	8b 45 f8	 mov	 eax, DWORD PTR _this$[ebp]
  00030	83 c0 04	 add	 eax, 4
  00033	89 45 f0	 mov	 DWORD PTR __My_data$14[ebp], eax
; File C:\Program Files (x86)\Microsoft Visual Studio\2019\Community\VC\Tools\MSVC\14.28.29333\include\xstddef

; 275  :     return __builtin_addressof(_Val);

  00036	8b 45 f0	 mov	 eax, DWORD PTR __My_data$14[ebp]
  00039	89 45 ac	 mov	 DWORD PTR $T1[ebp], eax
; File C:\Program Files (x86)\Microsoft Visual Studio\2019\Community\VC\Tools\MSVC\14.28.29333\include\vector

; 1411 :         return iterator(_My_data._Myfirst, _STD addressof(_My_data));

  0003c	8b 45 f0	 mov	 eax, DWORD PTR __My_data$14[ebp]
  0003f	8b 00		 mov	 eax, DWORD PTR [eax]
  00041	89 45 e4	 mov	 DWORD PTR ___param0$[ebp], eax

; 42   :     _Vector_const_iterator(_Tptr _Parg, const _Container_base* _Pvector) noexcept : _Ptr(_Parg) {

  00044	8b 45 e4	 mov	 eax, DWORD PTR ___param0$[ebp]
  00047	89 45 e0	 mov	 DWORD PTR $T12[ebp], eax

; 1411 :         return iterator(_My_data._Myfirst, _STD addressof(_My_data));

  0004a	8d 45 e0	 lea	 eax, DWORD PTR $T12[ebp]
  0004d	89 45 d8	 mov	 DWORD PTR $T10[ebp], eax
; File D:\Metin2 Server Files\mainline\SRC_2014\Metin2Client\eterLib\Pool.h

; 50   : 			std::for_each(m_kVct_pkData.begin(), m_kVct_pkData.end(), Delete);

  00050	8b 45 dc	 mov	 eax, DWORD PTR $T11[ebp]
  00053	8b 00		 mov	 eax, DWORD PTR [eax]
  00055	89 45 c4	 mov	 DWORD PTR __Last$[ebp], eax
  00058	8b 45 d8	 mov	 eax, DWORD PTR $T10[ebp]
  0005b	8b 00		 mov	 eax, DWORD PTR [eax]
  0005d	89 45 d4	 mov	 DWORD PTR __First$[ebp], eax
; File C:\Program Files (x86)\Microsoft Visual Studio\2019\Community\VC\Tools\MSVC\14.28.29333\include\vector

; 310  :         return _Unfancy(this->_Ptr);

  00060	8b 45 d4	 mov	 eax, DWORD PTR __First$[ebp]
  00063	89 45 d0	 mov	 DWORD PTR __Ptr$9[ebp], eax
; File C:\Program Files (x86)\Microsoft Visual Studio\2019\Community\VC\Tools\MSVC\14.28.29333\include\xstddef

; 289  :     return _Ptr;

  00066	8b 45 d0	 mov	 eax, DWORD PTR __Ptr$9[ebp]
  00069	89 45 cc	 mov	 DWORD PTR $T8[ebp], eax
; File C:\Program Files (x86)\Microsoft Visual Studio\2019\Community\VC\Tools\MSVC\14.28.29333\include\vector

; 310  :         return _Unfancy(this->_Ptr);

  0006c	8b 45 cc	 mov	 eax, DWORD PTR $T8[ebp]
  0006f	89 45 c8	 mov	 DWORD PTR $T7[ebp], eax
; File C:\Program Files (x86)\Microsoft Visual Studio\2019\Community\VC\Tools\MSVC\14.28.29333\include\algorithm

; 305  :     auto _UFirst      = _Get_unwrapped(_First);

  00072	8b 45 c8	 mov	 eax, DWORD PTR $T7[ebp]
  00075	89 45 fc	 mov	 DWORD PTR __UFirst$16[ebp], eax
; File C:\Program Files (x86)\Microsoft Visual Studio\2019\Community\VC\Tools\MSVC\14.28.29333\include\vector

; 310  :         return _Unfancy(this->_Ptr);

  00078	8b 45 c4	 mov	 eax, DWORD PTR __Last$[ebp]
  0007b	89 45 c0	 mov	 DWORD PTR __Ptr$6[ebp], eax
; File C:\Program Files (x86)\Microsoft Visual Studio\2019\Community\VC\Tools\MSVC\14.28.29333\include\xstddef

; 289  :     return _Ptr;

  0007e	8b 45 c0	 mov	 eax, DWORD PTR __Ptr$6[ebp]
  00081	89 45 bc	 mov	 DWORD PTR $T5[ebp], eax
; File C:\Program Files (x86)\Microsoft Visual Studio\2019\Community\VC\Tools\MSVC\14.28.29333\include\vector

; 310  :         return _Unfancy(this->_Ptr);

  00084	8b 45 bc	 mov	 eax, DWORD PTR $T5[ebp]
  00087	89 45 b8	 mov	 DWORD PTR $T4[ebp], eax
; File C:\Program Files (x86)\Microsoft Visual Studio\2019\Community\VC\Tools\MSVC\14.28.29333\include\algorithm

; 306  :     const auto _ULast = _Get_unwrapped(_Last);

  0008a	8b 45 b8	 mov	 eax, DWORD PTR $T4[ebp]
  0008d	89 45 b4	 mov	 DWORD PTR __ULast$3[ebp], eax

; 307  :     for (; _UFirst != _ULast; ++_UFirst) {

  00090	eb 09		 jmp	 SHORT $LN36@Destroy
$LN34@Destroy:
  00092	8b 45 fc	 mov	 eax, DWORD PTR __UFirst$16[ebp]
  00095	83 c0 04	 add	 eax, 4
  00098	89 45 fc	 mov	 DWORD PTR __UFirst$16[ebp], eax
$LN36@Destroy:
  0009b	8b 45 fc	 mov	 eax, DWORD PTR __UFirst$16[ebp]
  0009e	3b 45 b4	 cmp	 eax, DWORD PTR __ULast$3[ebp]
  000a1	74 0d		 je	 SHORT $LN33@Destroy

; 308  :         _Func(*_UFirst);

  000a3	8b 45 fc	 mov	 eax, DWORD PTR __UFirst$16[ebp]
  000a6	ff 30		 push	 DWORD PTR [eax]
  000a8	e8 00 00 00 00	 call	 ?Delete@?$CDynamicPool@VCParticleInstance@@@@KAXPAVCParticleInstance@@@Z ; CDynamicPool<CParticleInstance>::Delete
  000ad	59		 pop	 ecx

; 309  :     }

  000ae	eb e2		 jmp	 SHORT $LN34@Destroy
$LN33@Destroy:
; File D:\Metin2 Server Files\mainline\SRC_2014\Metin2Client\eterLib\Pool.h

; 51   : 			m_kVct_pkData.clear();

  000b0	8b 4d f8	 mov	 ecx, DWORD PTR _this$[ebp]
  000b3	83 c1 04	 add	 ecx, 4
  000b6	e8 00 00 00 00	 call	 ?clear@?$vector@PAVCParticleInstance@@V?$allocator@PAVCParticleInstance@@@std@@@std@@QAEXXZ ; std::vector<CParticleInstance *,std::allocator<CParticleInstance *> >::clear

; 52   : 			m_kVct_pkFree.clear();

  000bb	8b 4d f8	 mov	 ecx, DWORD PTR _this$[ebp]
  000be	83 c1 10	 add	 ecx, 16			; 00000010H
  000c1	e8 00 00 00 00	 call	 ?clear@?$vector@PAVCParticleInstance@@V?$allocator@PAVCParticleInstance@@@std@@@std@@QAEXXZ ; std::vector<CParticleInstance *,std::allocator<CParticleInstance *> >::clear

; 53   : 		}

  000c6	c9		 leave
  000c7	c3		 ret	 0
?Destroy@?$CDynamicPool@VCParticleInstance@@@@QAEXXZ ENDP ; CDynamicPool<CParticleInstance>::Destroy
_TEXT	ENDS
; Function compile flags: /Odspy
; File D:\Metin2 Server Files\mainline\SRC_2014\Metin2Client\eterLib\Pool.h
; File C:\Program Files (x86)\Microsoft Visual Studio\2019\Community\VC\Tools\MSVC\14.28.29333\include\vector
; File D:\Metin2 Server Files\mainline\SRC_2014\Metin2Client\eterLib\Pool.h
; File C:\Program Files (x86)\Microsoft Visual Studio\2019\Community\VC\Tools\MSVC\14.28.29333\include\vector
; File D:\Metin2 Server Files\mainline\SRC_2014\Metin2Client\eterLib\Pool.h
;	COMDAT ??1?$CDynamicPool@VCParticleInstance@@@@UAE@XZ
_TEXT	SEGMENT
_this$ = -4						; size = 4
??1?$CDynamicPool@VCParticleInstance@@@@UAE@XZ PROC	; CDynamicPool<CParticleInstance>::~CDynamicPool<CParticleInstance>, COMDAT
; _this$ = ecx

; 18   : 		{

  00000	55		 push	 ebp
  00001	8b ec		 mov	 ebp, esp
  00003	51		 push	 ecx
  00004	89 4d fc	 mov	 DWORD PTR _this$[ebp], ecx
  00007	8b 45 fc	 mov	 eax, DWORD PTR _this$[ebp]
  0000a	c7 00 00 00 00
	00		 mov	 DWORD PTR [eax], OFFSET ??_7?$CDynamicPool@VCParticleInstance@@@@6B@

; 26   : 		}

  00010	8b 4d fc	 mov	 ecx, DWORD PTR _this$[ebp]
  00013	83 c1 10	 add	 ecx, 16			; 00000010H
; File C:\Program Files (x86)\Microsoft Visual Studio\2019\Community\VC\Tools\MSVC\14.28.29333\include\vector

; 673  :         _Tidy();

  00016	e8 00 00 00 00	 call	 ?_Tidy@?$vector@PAVCParticleInstance@@V?$allocator@PAVCParticleInstance@@@std@@@std@@AAEXXZ ; std::vector<CParticleInstance *,std::allocator<CParticleInstance *> >::_Tidy
; File D:\Metin2 Server Files\mainline\SRC_2014\Metin2Client\eterLib\Pool.h

; 26   : 		}

  0001b	8b 4d fc	 mov	 ecx, DWORD PTR _this$[ebp]
  0001e	83 c1 04	 add	 ecx, 4
; File C:\Program Files (x86)\Microsoft Visual Studio\2019\Community\VC\Tools\MSVC\14.28.29333\include\vector

; 673  :         _Tidy();

  00021	e8 00 00 00 00	 call	 ?_Tidy@?$vector@PAVCParticleInstance@@V?$allocator@PAVCParticleInstance@@@std@@@std@@AAEXXZ ; std::vector<CParticleInstance *,std::allocator<CParticleInstance *> >::_Tidy
; File D:\Metin2 Server Files\mainline\SRC_2014\Metin2Client\eterLib\Pool.h

; 26   : 		}

  00026	c9		 leave
  00027	c3		 ret	 0
??1?$CDynamicPool@VCParticleInstance@@@@UAE@XZ ENDP	; CDynamicPool<CParticleInstance>::~CDynamicPool<CParticleInstance>
_TEXT	ENDS
; Function compile flags: /Odspy
; File D:\Metin2 Server Files\mainline\SRC_2014\Metin2Client\eterLib\Pool.h
; File C:\Program Files (x86)\Microsoft Visual Studio\2019\Community\VC\Tools\MSVC\14.28.29333\include\vector
; File C:\Program Files (x86)\Microsoft Visual Studio\2019\Community\VC\Tools\MSVC\14.28.29333\include\xmemory
; File C:\Program Files (x86)\Microsoft Visual Studio\2019\Community\VC\Tools\MSVC\14.28.29333\include\vector
; File D:\Metin2 Server Files\mainline\SRC_2014\Metin2Client\eterLib\Pool.h
; File C:\Program Files (x86)\Microsoft Visual Studio\2019\Community\VC\Tools\MSVC\14.28.29333\include\vector
; File C:\Program Files (x86)\Microsoft Visual Studio\2019\Community\VC\Tools\MSVC\14.28.29333\include\xmemory
; File C:\Program Files (x86)\Microsoft Visual Studio\2019\Community\VC\Tools\MSVC\14.28.29333\include\vector
; File D:\Metin2 Server Files\mainline\SRC_2014\Metin2Client\eterLib\Pool.h
;	COMDAT ??0?$CDynamicPool@VCParticleInstance@@@@QAE@XZ
_TEXT	SEGMENT
_this$ = -28						; size = 4
_this$ = -24						; size = 4
_this$ = -20						; size = 4
_this$ = -16						; size = 4
_this$1 = -12						; size = 4
_this$2 = -8						; size = 4
_this$ = -4						; size = 4
??0?$CDynamicPool@VCParticleInstance@@@@QAE@XZ PROC	; CDynamicPool<CParticleInstance>::CDynamicPool<CParticleInstance>, COMDAT
; _this$ = ecx

; 11   : 		CDynamicPool()

  00000	55		 push	 ebp
  00001	8b ec		 mov	 ebp, esp
  00003	83 ec 1c	 sub	 esp, 28			; 0000001cH
  00006	89 4d fc	 mov	 DWORD PTR _this$[ebp], ecx

; 12   : 		{

  00009	8b 45 fc	 mov	 eax, DWORD PTR _this$[ebp]
  0000c	c7 00 00 00 00
	00		 mov	 DWORD PTR [eax], OFFSET ??_7?$CDynamicPool@VCParticleInstance@@@@6B@
  00012	8b 45 fc	 mov	 eax, DWORD PTR _this$[ebp]
  00015	83 c0 04	 add	 eax, 4
  00018	89 45 f0	 mov	 DWORD PTR _this$[ebp], eax
; File C:\Program Files (x86)\Microsoft Visual Studio\2019\Community\VC\Tools\MSVC\14.28.29333\include\vector

; 445  :     vector() noexcept(is_nothrow_default_constructible_v<_Alty>) : _Mypair(_Zero_then_variadic_args_t{}) {

  0001b	8b 45 f0	 mov	 eax, DWORD PTR _this$[ebp]
  0001e	89 45 ec	 mov	 DWORD PTR _this$[ebp], eax
; File C:\Program Files (x86)\Microsoft Visual Studio\2019\Community\VC\Tools\MSVC\14.28.29333\include\xmemory

; 1339 :         : _Ty1(), _Myval2(_STD forward<_Other2>(_Val2)...) {}

  00021	8b 45 ec	 mov	 eax, DWORD PTR _this$[ebp]
  00024	89 45 f8	 mov	 DWORD PTR _this$2[ebp], eax
; File C:\Program Files (x86)\Microsoft Visual Studio\2019\Community\VC\Tools\MSVC\14.28.29333\include\vector

; 375  :     _Vector_val() noexcept : _Myfirst(), _Mylast(), _Myend() {}

  00027	8b 45 f8	 mov	 eax, DWORD PTR _this$2[ebp]
  0002a	83 20 00	 and	 DWORD PTR [eax], 0
  0002d	8b 45 f8	 mov	 eax, DWORD PTR _this$2[ebp]
  00030	83 60 04 00	 and	 DWORD PTR [eax+4], 0
  00034	8b 45 f8	 mov	 eax, DWORD PTR _this$2[ebp]
  00037	83 60 08 00	 and	 DWORD PTR [eax+8], 0
; File D:\Metin2 Server Files\mainline\SRC_2014\Metin2Client\eterLib\Pool.h

; 12   : 		{

  0003b	8b 45 fc	 mov	 eax, DWORD PTR _this$[ebp]
  0003e	83 c0 10	 add	 eax, 16			; 00000010H
  00041	89 45 e8	 mov	 DWORD PTR _this$[ebp], eax
; File C:\Program Files (x86)\Microsoft Visual Studio\2019\Community\VC\Tools\MSVC\14.28.29333\include\vector

; 445  :     vector() noexcept(is_nothrow_default_constructible_v<_Alty>) : _Mypair(_Zero_then_variadic_args_t{}) {

  00044	8b 45 e8	 mov	 eax, DWORD PTR _this$[ebp]
  00047	89 45 e4	 mov	 DWORD PTR _this$[ebp], eax
; File C:\Program Files (x86)\Microsoft Visual Studio\2019\Community\VC\Tools\MSVC\14.28.29333\include\xmemory

; 1339 :         : _Ty1(), _Myval2(_STD forward<_Other2>(_Val2)...) {}

  0004a	8b 45 e4	 mov	 eax, DWORD PTR _this$[ebp]
  0004d	89 45 f4	 mov	 DWORD PTR _this$1[ebp], eax
; File C:\Program Files (x86)\Microsoft Visual Studio\2019\Community\VC\Tools\MSVC\14.28.29333\include\vector

; 375  :     _Vector_val() noexcept : _Myfirst(), _Mylast(), _Myend() {}

  00050	8b 45 f4	 mov	 eax, DWORD PTR _this$1[ebp]
  00053	83 20 00	 and	 DWORD PTR [eax], 0
  00056	8b 45 f4	 mov	 eax, DWORD PTR _this$1[ebp]
  00059	83 60 04 00	 and	 DWORD PTR [eax+4], 0
  0005d	8b 45 f4	 mov	 eax, DWORD PTR _this$1[ebp]
  00060	83 60 08 00	 and	 DWORD PTR [eax+8], 0
; File D:\Metin2 Server Files\mainline\SRC_2014\Metin2Client\eterLib\Pool.h

; 14   : 			m_uInitCapacity=0;

  00064	8b 45 fc	 mov	 eax, DWORD PTR _this$[ebp]
  00067	83 60 1c 00	 and	 DWORD PTR [eax+28], 0

; 15   : 			m_uUsedCapacity=0;

  0006b	8b 45 fc	 mov	 eax, DWORD PTR _this$[ebp]
  0006e	83 60 20 00	 and	 DWORD PTR [eax+32], 0

; 16   : 		}

  00072	8b 45 fc	 mov	 eax, DWORD PTR _this$[ebp]
  00075	c9		 leave
  00076	c3		 ret	 0
??0?$CDynamicPool@VCParticleInstance@@@@QAE@XZ ENDP	; CDynamicPool<CParticleInstance>::CDynamicPool<CParticleInstance>
_TEXT	ENDS
; Function compile flags: /Odspy
; File D:\Metin2 Server Files\mainline\SRC_2014\Metin2Client\EffectLib\ParticleInstance.cpp
; File D:\Metin2 Server Files\mainline\SRC_2014\M2Data\include\d3dx8math.inl
; File D:\Metin2 Server Files\mainline\SRC_2014\Metin2Client\EffectLib\ParticleInstance.cpp
; File D:\Metin2 Server Files\mainline\SRC_2014\M2Data\include\d3dx8math.inl
; File D:\Metin2 Server Files\mainline\SRC_2014\Metin2Client\EffectLib\ParticleInstance.cpp
; File D:\Metin2 Server Files\mainline\SRC_2014\M2Data\include\d3dx8math.inl
; File D:\Metin2 Server Files\mainline\SRC_2014\Metin2Client\EffectLib\ParticleInstance.cpp
; File D:\Metin2 Server Files\mainline\SRC_2014\M2Data\include\d3dx8math.inl
; File D:\Metin2 Server Files\mainline\SRC_2014\Metin2Client\EffectLib\ParticleInstance.cpp
; File D:\Metin2 Server Files\mainline\SRC_2014\M2Data\include\d3dx8math.inl
; File D:\Metin2 Server Files\mainline\SRC_2014\Metin2Client\EffectLib\ParticleInstance.cpp
; File D:\Metin2 Server Files\mainline\SRC_2014\M2Data\include\d3dx8math.inl
; File D:\Metin2 Server Files\mainline\SRC_2014\Metin2Client\EffectLib\ParticleInstance.cpp
; File D:\Metin2 Server Files\mainline\SRC_2014\M2Data\include\d3dx8math.inl
; File D:\Metin2 Server Files\mainline\SRC_2014\Metin2Client\EffectLib\ParticleInstance.cpp
;	COMDAT ?__Initialize@CParticleInstance@@IAEXXZ
_TEXT	SEGMENT
$T1 = -72						; size = 8
$T2 = -64						; size = 8
$T3 = -56						; size = 8
$T4 = -48						; size = 8
$T5 = -40						; size = 8
_this$ = -32						; size = 4
$T6 = -28						; size = 12
$T7 = -16						; size = 12
__$ArrayPad$ = -4					; size = 4
?__Initialize@CParticleInstance@@IAEXXZ PROC		; CParticleInstance::__Initialize, COMDAT
; _this$ = ecx

; 442  : {

  00000	55		 push	 ebp
  00001	8b ec		 mov	 ebp, esp
  00003	83 ec 48	 sub	 esp, 72			; 00000048H
  00006	a1 00 00 00 00	 mov	 eax, DWORD PTR ___security_cookie
  0000b	33 c5		 xor	 eax, ebp
  0000d	89 45 fc	 mov	 DWORD PTR __$ArrayPad$[ebp], eax
  00010	56		 push	 esi
  00011	57		 push	 edi
  00012	89 4d e0	 mov	 DWORD PTR _this$[ebp], ecx

; 443  : 	//*
; 444  : 	m_pDecorator=NULL;

  00015	8b 45 e0	 mov	 eax, DWORD PTR _this$[ebp]
  00018	83 60 70 00	 and	 DWORD PTR [eax+112], 0
; File D:\Metin2 Server Files\mainline\SRC_2014\M2Data\include\d3dx8math.inl

; 180  :     x = fx;

  0001c	0f 57 c0	 xorps	 xmm0, xmm0
  0001f	f3 0f 11 45 f0	 movss	 DWORD PTR $T7[ebp], xmm0

; 181  :     y = fy;

  00024	0f 57 c0	 xorps	 xmm0, xmm0
  00027	f3 0f 11 45 f4	 movss	 DWORD PTR $T7[ebp+4], xmm0

; 182  :     z = fz;

  0002c	0f 57 c0	 xorps	 xmm0, xmm0
  0002f	f3 0f 11 45 f8	 movss	 DWORD PTR $T7[ebp+8], xmm0
; File D:\Metin2 Server Files\mainline\SRC_2014\Metin2Client\EffectLib\ParticleInstance.cpp

; 446  : 	m_v3Position = D3DXVECTOR3(0.0f, 0.0f, 0.0f);

  00034	8b 7d e0	 mov	 edi, DWORD PTR _this$[ebp]
  00037	83 c7 0c	 add	 edi, 12			; 0000000cH
  0003a	8d 75 f0	 lea	 esi, DWORD PTR $T7[ebp]
  0003d	a5		 movsd
  0003e	a5		 movsd
  0003f	a5		 movsd

; 447  : 	m_v3LastPosition = m_v3Position;

  00040	8b 75 e0	 mov	 esi, DWORD PTR _this$[ebp]
  00043	83 c6 0c	 add	 esi, 12			; 0000000cH
  00046	8b 7d e0	 mov	 edi, DWORD PTR _this$[ebp]
  00049	83 c7 18	 add	 edi, 24			; 00000018H
  0004c	a5		 movsd
  0004d	a5		 movsd
  0004e	a5		 movsd
; File D:\Metin2 Server Files\mainline\SRC_2014\M2Data\include\d3dx8math.inl

; 180  :     x = fx;

  0004f	0f 57 c0	 xorps	 xmm0, xmm0
  00052	f3 0f 11 45 e4	 movss	 DWORD PTR $T6[ebp], xmm0

; 181  :     y = fy;

  00057	0f 57 c0	 xorps	 xmm0, xmm0
  0005a	f3 0f 11 45 e8	 movss	 DWORD PTR $T6[ebp+4], xmm0

; 182  :     z = fz;

  0005f	0f 57 c0	 xorps	 xmm0, xmm0
  00062	f3 0f 11 45 ec	 movss	 DWORD PTR $T6[ebp+8], xmm0
; File D:\Metin2 Server Files\mainline\SRC_2014\Metin2Client\EffectLib\ParticleInstance.cpp

; 448  : 	m_v3Velocity = D3DXVECTOR3(0.0f, 0.0f, 0.0f);

  00067	8b 7d e0	 mov	 edi, DWORD PTR _this$[ebp]
  0006a	83 c7 24	 add	 edi, 36			; 00000024H
  0006d	8d 75 e4	 lea	 esi, DWORD PTR $T6[ebp]
  00070	a5		 movsd
  00071	a5		 movsd
  00072	a5		 movsd
; File D:\Metin2 Server Files\mainline\SRC_2014\M2Data\include\d3dx8math.inl

; 41   :     x = fx;

  00073	f3 0f 10 05 00
	00 00 00	 movss	 xmm0, DWORD PTR __real@3f800000
  0007b	f3 0f 11 45 d8	 movss	 DWORD PTR $T5[ebp], xmm0

; 42   :     y = fy;

  00080	f3 0f 10 05 00
	00 00 00	 movss	 xmm0, DWORD PTR __real@3f800000
  00088	f3 0f 11 45 dc	 movss	 DWORD PTR $T5[ebp+4], xmm0
; File D:\Metin2 Server Files\mainline\SRC_2014\Metin2Client\EffectLib\ParticleInstance.cpp

; 450  : 	m_v2Scale = D3DXVECTOR2(1.0f, 1.0f);

  0008d	8b 45 d8	 mov	 eax, DWORD PTR $T5[ebp]
  00090	8b 4d dc	 mov	 ecx, DWORD PTR $T5[ebp+4]
  00093	8b 55 e0	 mov	 edx, DWORD PTR _this$[ebp]
  00096	89 42 38	 mov	 DWORD PTR [edx+56], eax
  00099	89 4a 3c	 mov	 DWORD PTR [edx+60], ecx

; 451  : #ifdef WORLD_EDITOR
; 452  : 	m_Color = D3DXCOLOR(1.0f, 1.0f, 1.0f, 1.0f);
; 453  : #else
; 454  : 	m_dcColor.m_dwColor = 0xffffffff;

  0009c	8b 45 e0	 mov	 eax, DWORD PTR _this$[ebp]
  0009f	83 48 44 ff	 or	 DWORD PTR [eax+68], -1

; 455  : #endif
; 456  : 
; 457  : 	m_byFrameIndex = 0;

  000a3	8b 45 e0	 mov	 eax, DWORD PTR _this$[ebp]
  000a6	c6 40 50 00	 mov	 BYTE PTR [eax+80], 0
; File D:\Metin2 Server Files\mainline\SRC_2014\M2Data\include\d3dx8math.inl

; 41   :     x = fx;

  000aa	0f 57 c0	 xorps	 xmm0, xmm0
  000ad	f3 0f 11 45 d0	 movss	 DWORD PTR $T4[ebp], xmm0

; 42   :     y = fy;

  000b2	f3 0f 10 05 00
	00 00 00	 movss	 xmm0, DWORD PTR __real@3f800000
  000ba	f3 0f 11 45 d4	 movss	 DWORD PTR $T4[ebp+4], xmm0
; File D:\Metin2 Server Files\mainline\SRC_2014\Metin2Client\EffectLib\ParticleInstance.cpp

; 458  : 	m_ParticleMesh[0].texCoord = D3DXVECTOR2(0.0f, 1.0f);

  000bf	8b 45 d0	 mov	 eax, DWORD PTR $T4[ebp]
  000c2	8b 4d d4	 mov	 ecx, DWORD PTR $T4[ebp+4]
  000c5	6a 14		 push	 20			; 00000014H
  000c7	5a		 pop	 edx
  000c8	6b d2 00	 imul	 edx, edx, 0
  000cb	8b 75 e0	 mov	 esi, DWORD PTR _this$[ebp]
  000ce	89 84 16 80 00
	00 00		 mov	 DWORD PTR [esi+edx+128], eax
  000d5	89 8c 16 84 00
	00 00		 mov	 DWORD PTR [esi+edx+132], ecx
; File D:\Metin2 Server Files\mainline\SRC_2014\M2Data\include\d3dx8math.inl

; 41   :     x = fx;

  000dc	0f 57 c0	 xorps	 xmm0, xmm0
  000df	f3 0f 11 45 c8	 movss	 DWORD PTR $T3[ebp], xmm0

; 42   :     y = fy;

  000e4	0f 57 c0	 xorps	 xmm0, xmm0
  000e7	f3 0f 11 45 cc	 movss	 DWORD PTR $T3[ebp+4], xmm0
; File D:\Metin2 Server Files\mainline\SRC_2014\Metin2Client\EffectLib\ParticleInstance.cpp

; 459  : 	m_ParticleMesh[1].texCoord = D3DXVECTOR2(0.0f, 0.0f);

  000ec	8b 45 c8	 mov	 eax, DWORD PTR $T3[ebp]
  000ef	8b 4d cc	 mov	 ecx, DWORD PTR $T3[ebp+4]
  000f2	6a 14		 push	 20			; 00000014H
  000f4	5a		 pop	 edx
  000f5	c1 e2 00	 shl	 edx, 0
  000f8	8b 75 e0	 mov	 esi, DWORD PTR _this$[ebp]
  000fb	89 84 16 80 00
	00 00		 mov	 DWORD PTR [esi+edx+128], eax
  00102	89 8c 16 84 00
	00 00		 mov	 DWORD PTR [esi+edx+132], ecx
; File D:\Metin2 Server Files\mainline\SRC_2014\M2Data\include\d3dx8math.inl

; 41   :     x = fx;

  00109	f3 0f 10 05 00
	00 00 00	 movss	 xmm0, DWORD PTR __real@3f800000
  00111	f3 0f 11 45 c0	 movss	 DWORD PTR $T2[ebp], xmm0

; 42   :     y = fy;

  00116	f3 0f 10 05 00
	00 00 00	 movss	 xmm0, DWORD PTR __real@3f800000
  0011e	f3 0f 11 45 c4	 movss	 DWORD PTR $T2[ebp+4], xmm0
; File D:\Metin2 Server Files\mainline\SRC_2014\Metin2Client\EffectLib\ParticleInstance.cpp

; 460  : 	m_ParticleMesh[2].texCoord = D3DXVECTOR2(1.0f, 1.0f);

  00123	8b 45 c0	 mov	 eax, DWORD PTR $T2[ebp]
  00126	8b 4d c4	 mov	 ecx, DWORD PTR $T2[ebp+4]
  00129	6a 14		 push	 20			; 00000014H
  0012b	5a		 pop	 edx
  0012c	d1 e2		 shl	 edx, 1
  0012e	8b 75 e0	 mov	 esi, DWORD PTR _this$[ebp]
  00131	89 84 16 80 00
	00 00		 mov	 DWORD PTR [esi+edx+128], eax
  00138	89 8c 16 84 00
	00 00		 mov	 DWORD PTR [esi+edx+132], ecx
; File D:\Metin2 Server Files\mainline\SRC_2014\M2Data\include\d3dx8math.inl

; 41   :     x = fx;

  0013f	f3 0f 10 05 00
	00 00 00	 movss	 xmm0, DWORD PTR __real@3f800000
  00147	f3 0f 11 45 b8	 movss	 DWORD PTR $T1[ebp], xmm0

; 42   :     y = fy;

  0014c	0f 57 c0	 xorps	 xmm0, xmm0
  0014f	f3 0f 11 45 bc	 movss	 DWORD PTR $T1[ebp+4], xmm0
; File D:\Metin2 Server Files\mainline\SRC_2014\Metin2Client\EffectLib\ParticleInstance.cpp

; 461  : 	m_ParticleMesh[3].texCoord = D3DXVECTOR2(1.0f, 0.0f);

  00154	8b 45 b8	 mov	 eax, DWORD PTR $T1[ebp]
  00157	8b 4d bc	 mov	 ecx, DWORD PTR $T1[ebp+4]
  0015a	6a 14		 push	 20			; 00000014H
  0015c	5a		 pop	 edx
  0015d	6b d2 03	 imul	 edx, edx, 3
  00160	8b 75 e0	 mov	 esi, DWORD PTR _this$[ebp]
  00163	89 84 16 80 00
	00 00		 mov	 DWORD PTR [esi+edx+128], eax
  0016a	89 8c 16 84 00
	00 00		 mov	 DWORD PTR [esi+edx+132], ecx

; 462  : }

  00171	5f		 pop	 edi
  00172	5e		 pop	 esi
  00173	8b 4d fc	 mov	 ecx, DWORD PTR __$ArrayPad$[ebp]
  00176	33 cd		 xor	 ecx, ebp
  00178	e8 00 00 00 00	 call	 @__security_check_cookie@4
  0017d	c9		 leave
  0017e	c3		 ret	 0
?__Initialize@CParticleInstance@@IAEXXZ ENDP		; CParticleInstance::__Initialize
_TEXT	ENDS
; Function compile flags: /Odspy
; File D:\Metin2 Server Files\mainline\SRC_2014\Metin2Client\EffectLib\ParticleInstance.cpp
;	COMDAT ?Destroy@CParticleInstance@@QAEXXZ
_TEXT	SEGMENT
_this$ = -4						; size = 4
?Destroy@CParticleInstance@@QAEXXZ PROC			; CParticleInstance::Destroy, COMDAT
; _this$ = ecx

; 433  : {

  00000	55		 push	 ebp
  00001	8b ec		 mov	 ebp, esp
  00003	51		 push	 ecx
  00004	89 4d fc	 mov	 DWORD PTR _this$[ebp], ecx

; 434  : 	if (m_pDecorator)

  00007	8b 45 fc	 mov	 eax, DWORD PTR _this$[ebp]
  0000a	83 78 70 00	 cmp	 DWORD PTR [eax+112], 0
  0000e	74 0b		 je	 SHORT $LN2@Destroy

; 435  : 		m_pDecorator->DeleteThis();

  00010	8b 45 fc	 mov	 eax, DWORD PTR _this$[ebp]
  00013	8b 48 70	 mov	 ecx, DWORD PTR [eax+112]
  00016	e8 00 00 00 00	 call	 ?DeleteThis@CBaseDecorator@NEffectUpdateDecorator@@QAEXXZ ; NEffectUpdateDecorator::CBaseDecorator::DeleteThis
$LN2@Destroy:

; 436  : 
; 437  : 	__Initialize();

  0001b	8b 4d fc	 mov	 ecx, DWORD PTR _this$[ebp]
  0001e	e8 00 00 00 00	 call	 ?__Initialize@CParticleInstance@@IAEXXZ ; CParticleInstance::__Initialize

; 438  : 
; 439  : }

  00023	c9		 leave
  00024	c3		 ret	 0
?Destroy@CParticleInstance@@QAEXXZ ENDP			; CParticleInstance::Destroy
_TEXT	ENDS
; Function compile flags: /Odspy
; File D:\Metin2 Server Files\mainline\SRC_2014\Metin2Client\EffectLib\ParticleInstance.cpp
; File C:\Program Files (x86)\Microsoft Visual Studio\2019\Community\VC\Tools\MSVC\14.28.29333\include\vector
; File D:\Metin2 Server Files\mainline\SRC_2014\Metin2Client\EffectLib\ParticleInstance.cpp
;	COMDAT ?DeleteThis@CParticleInstance@@QAEXXZ
_TEXT	SEGMENT
_pkData$ = -8						; size = 4
_this$ = -4						; size = 4
?DeleteThis@CParticleInstance@@QAEXXZ PROC		; CParticleInstance::DeleteThis, COMDAT
; _this$ = ecx

; 24   : {

  00000	55		 push	 ebp
  00001	8b ec		 mov	 ebp, esp
  00003	51		 push	 ecx
  00004	51		 push	 ecx
  00005	89 4d fc	 mov	 DWORD PTR _this$[ebp], ecx

; 25   : 	Destroy();

  00008	8b 4d fc	 mov	 ecx, DWORD PTR _this$[ebp]
  0000b	e8 00 00 00 00	 call	 ?Destroy@CParticleInstance@@QAEXXZ ; CParticleInstance::Destroy

; 26   : 	
; 27   : 	ms_kPool.Free(this);	

  00010	8b 45 fc	 mov	 eax, DWORD PTR _this$[ebp]
  00013	89 45 f8	 mov	 DWORD PTR _pkData$[ebp], eax
; File C:\Program Files (x86)\Microsoft Visual Studio\2019\Community\VC\Tools\MSVC\14.28.29333\include\vector

; 717  :         emplace_back(_Val);

  00016	8d 45 f8	 lea	 eax, DWORD PTR _pkData$[ebp]
  00019	50		 push	 eax
  0001a	b9 10 00 00 00	 mov	 ecx, OFFSET ?ms_kPool@CParticleInstance@@2V?$CDynamicPool@VCParticleInstance@@@@A+16
  0001f	e8 00 00 00 00	 call	 ??$emplace_back@ABQAVCParticleInstance@@@?$vector@PAVCParticleInstance@@V?$allocator@PAVCParticleInstance@@@std@@@std@@QAEXABQAVCParticleInstance@@@Z ; std::vector<CParticleInstance *,std::allocator<CParticleInstance *> >::emplace_back<CParticleInstance * const &>
; File D:\Metin2 Server Files\mainline\SRC_2014\Metin2Client\EffectLib\ParticleInstance.cpp

; 28   : }

  00024	c9		 leave
  00025	c3		 ret	 0
?DeleteThis@CParticleInstance@@QAEXXZ ENDP		; CParticleInstance::DeleteThis
_TEXT	ENDS
; Function compile flags: /Odspy
; File D:\Metin2 Server Files\mainline\SRC_2014\Metin2Client\EffectLib\ParticleInstance.cpp
;	COMDAT ?GetParticleMeshPointer@CParticleInstance@@QAEPAUSPTVertex@@XZ
_TEXT	SEGMENT
_this$ = -4						; size = 4
?GetParticleMeshPointer@CParticleInstance@@QAEPAUSPTVertex@@XZ PROC ; CParticleInstance::GetParticleMeshPointer, COMDAT
; _this$ = ecx

; 501  : {

  00000	55		 push	 ebp
  00001	8b ec		 mov	 ebp, esp
  00003	51		 push	 ecx
  00004	89 4d fc	 mov	 DWORD PTR _this$[ebp], ecx

; 502  : 	return m_ParticleMesh;

  00007	8b 45 fc	 mov	 eax, DWORD PTR _this$[ebp]
  0000a	83 c0 74	 add	 eax, 116		; 00000074H

; 503  : }

  0000d	c9		 leave
  0000e	c3		 ret	 0
?GetParticleMeshPointer@CParticleInstance@@QAEPAUSPTVertex@@XZ ENDP ; CParticleInstance::GetParticleMeshPointer
_TEXT	ENDS
; Function compile flags: /Odspy
; File D:\Metin2 Server Files\mainline\SRC_2014\Metin2Client\EffectLib\ParticleInstance.cpp
; File D:\Metin2 Server Files\mainline\SRC_2014\Metin2Client\EffectLib\Type.h
; File D:\Metin2 Server Files\mainline\SRC_2014\Metin2Client\EffectLib\ParticleInstance.cpp
; File D:\Metin2 Server Files\mainline\SRC_2014\Metin2Client\eterBase\Singleton.h
; File D:\Metin2 Server Files\mainline\SRC_2014\Metin2Client\EffectLib\ParticleInstance.cpp
; File D:\Metin2 Server Files\mainline\SRC_2014\Metin2Client\eterLib\Camera.h
; File D:\Metin2 Server Files\mainline\SRC_2014\Metin2Client\EffectLib\ParticleInstance.cpp
; File D:\Metin2 Server Files\mainline\SRC_2014\Metin2Client\eterLib\Camera.h
; File D:\Metin2 Server Files\mainline\SRC_2014\Metin2Client\EffectLib\ParticleInstance.cpp
; File C:\Program Files (x86)\Windows Kits\10\Include\10.0.18362.0\ucrt\corecrt_math.h
; File D:\Metin2 Server Files\mainline\SRC_2014\Metin2Client\EffectLib\ParticleInstance.cpp
; File C:\Program Files (x86)\Windows Kits\10\Include\10.0.18362.0\ucrt\corecrt_math.h
; File D:\Metin2 Server Files\mainline\SRC_2014\Metin2Client\EffectLib\ParticleInstance.cpp
; File D:\Metin2 Server Files\mainline\SRC_2014\M2Data\include\d3dx8math.inl
; File D:\Metin2 Server Files\mainline\SRC_2014\Metin2Client\EffectLib\ParticleInstance.cpp
; File D:\Metin2 Server Files\mainline\SRC_2014\Metin2Client\eterLib\Camera.h
; File D:\Metin2 Server Files\mainline\SRC_2014\Metin2Client\EffectLib\ParticleInstance.cpp
; File D:\Metin2 Server Files\mainline\SRC_2014\M2Data\include\d3dx8math.inl
; File D:\Metin2 Server Files\mainline\SRC_2014\Metin2Client\EffectLib\ParticleInstance.cpp
; File D:\Metin2 Server Files\mainline\SRC_2014\M2Data\include\d3dx8math.inl
; File D:\Metin2 Server Files\mainline\SRC_2014\Metin2Client\EffectLib\ParticleInstance.cpp
; File C:\Program Files (x86)\Windows Kits\10\Include\10.0.18362.0\ucrt\corecrt_math.h
; File D:\Metin2 Server Files\mainline\SRC_2014\Metin2Client\EffectLib\ParticleInstance.cpp
; File C:\Program Files (x86)\Windows Kits\10\Include\10.0.18362.0\ucrt\corecrt_math.h
; File D:\Metin2 Server Files\mainline\SRC_2014\Metin2Client\EffectLib\ParticleInstance.cpp
; File D:\Metin2 Server Files\mainline\SRC_2014\M2Data\include\d3dx8math.inl
; File D:\Metin2 Server Files\mainline\SRC_2014\Metin2Client\EffectLib\ParticleInstance.cpp
; File D:\Metin2 Server Files\mainline\SRC_2014\M2Data\include\d3dx8math.inl
; File D:\Metin2 Server Files\mainline\SRC_2014\Metin2Client\EffectLib\ParticleInstance.cpp
; File D:\Metin2 Server Files\mainline\SRC_2014\Metin2Client\eterLib\Camera.h
; File D:\Metin2 Server Files\mainline\SRC_2014\Metin2Client\EffectLib\ParticleInstance.cpp
; File D:\Metin2 Server Files\mainline\SRC_2014\M2Data\include\d3dx8math.inl
; File D:\Metin2 Server Files\mainline\SRC_2014\Metin2Client\EffectLib\ParticleInstance.cpp
; File D:\Metin2 Server Files\mainline\SRC_2014\M2Data\include\d3dx8math.inl
; File D:\Metin2 Server Files\mainline\SRC_2014\Metin2Client\EffectLib\ParticleInstance.cpp
; File D:\Metin2 Server Files\mainline\SRC_2014\M2Data\include\d3dx8math.inl
; File C:\Program Files (x86)\Windows Kits\10\Include\10.0.18362.0\ucrt\corecrt_math.h
; File D:\Metin2 Server Files\mainline\SRC_2014\Metin2Client\EffectLib\ParticleInstance.cpp
; File D:\Metin2 Server Files\mainline\SRC_2014\M2Data\include\d3dx8math.inl
; File D:\Metin2 Server Files\mainline\SRC_2014\Metin2Client\EffectLib\ParticleInstance.cpp
; File C:\Program Files (x86)\Windows Kits\10\Include\10.0.18362.0\ucrt\corecrt_math.h
; File C:\Program Files (x86)\Microsoft Visual Studio\2019\Community\VC\Tools\MSVC\14.28.29333\include\cmath
; File D:\Metin2 Server Files\mainline\SRC_2014\Metin2Client\EffectLib\ParticleInstance.cpp
; File D:\Metin2 Server Files\mainline\SRC_2014\M2Data\include\d3dx8math.inl
; File D:\Metin2 Server Files\mainline\SRC_2014\Metin2Client\eterBase\Singleton.h
; File D:\Metin2 Server Files\mainline\SRC_2014\Metin2Client\EffectLib\ParticleInstance.cpp
; File D:\Metin2 Server Files\mainline\SRC_2014\Metin2Client\eterLib\Camera.h
; File D:\Metin2 Server Files\mainline\SRC_2014\Metin2Client\EffectLib\ParticleInstance.cpp
; File D:\Metin2 Server Files\mainline\SRC_2014\M2Data\include\d3dx8math.inl
; File D:\Metin2 Server Files\mainline\SRC_2014\Metin2Client\EffectLib\ParticleInstance.cpp
; File C:\Program Files (x86)\Windows Kits\10\Include\10.0.18362.0\ucrt\corecrt_math.h
; File D:\Metin2 Server Files\mainline\SRC_2014\Metin2Client\EffectLib\ParticleInstance.cpp
; File C:\Program Files (x86)\Windows Kits\10\Include\10.0.18362.0\ucrt\corecrt_math.h
; File D:\Metin2 Server Files\mainline\SRC_2014\Metin2Client\EffectLib\ParticleInstance.cpp
; File D:\Metin2 Server Files\mainline\SRC_2014\M2Data\include\d3dx8math.inl
; File D:\Metin2 Server Files\mainline\SRC_2014\Metin2Client\EffectLib\ParticleInstance.cpp
; File D:\Metin2 Server Files\mainline\SRC_2014\M2Data\include\d3dx8math.inl
; File D:\Metin2 Server Files\mainline\SRC_2014\Metin2Client\EffectLib\ParticleInstance.cpp
; File D:\Metin2 Server Files\mainline\SRC_2014\M2Data\include\d3dx8math.inl
; File D:\Metin2 Server Files\mainline\SRC_2014\Metin2Client\EffectLib\ParticleInstance.cpp
; File D:\Metin2 Server Files\mainline\SRC_2014\M2Data\include\d3dx8math.inl
; File D:\Metin2 Server Files\mainline\SRC_2014\Metin2Client\EffectLib\ParticleInstance.cpp
; File D:\Metin2 Server Files\mainline\SRC_2014\M2Data\include\d3dx8math.inl
; File D:\Metin2 Server Files\mainline\SRC_2014\Metin2Client\EffectLib\ParticleInstance.cpp
; File D:\Metin2 Server Files\mainline\SRC_2014\M2Data\include\d3dx8math.inl
; File D:\Metin2 Server Files\mainline\SRC_2014\Metin2Client\EffectLib\ParticleInstance.cpp
; File D:\Metin2 Server Files\mainline\SRC_2014\M2Data\include\d3dx8math.inl
; File D:\Metin2 Server Files\mainline\SRC_2014\Metin2Client\EffectLib\ParticleInstance.cpp
; File D:\Metin2 Server Files\mainline\SRC_2014\M2Data\include\d3dx8math.inl
; File D:\Metin2 Server Files\mainline\SRC_2014\Metin2Client\EffectLib\ParticleInstance.cpp
; File D:\Metin2 Server Files\mainline\SRC_2014\M2Data\include\d3dx8math.inl
; File D:\Metin2 Server Files\mainline\SRC_2014\Metin2Client\EffectLib\ParticleInstance.cpp
; File D:\Metin2 Server Files\mainline\SRC_2014\M2Data\include\d3dx8math.inl
; File D:\Metin2 Server Files\mainline\SRC_2014\Metin2Client\EffectLib\ParticleInstance.cpp
;	COMDAT ?Transform@CParticleInstance@@QAEXPBUD3DXMATRIX@@M@Z
_TEXT	SEGMENT
_fx$ = -972						; size = 4
_fz$ = -968						; size = 4
_fx$ = -964						; size = 4
_fy$ = -960						; size = 4
_fz$ = -956						; size = 4
_fx$ = -952						; size = 4
_fy$ = -948						; size = 4
_fz$ = -944						; size = 4
_fx$ = -940						; size = 4
_fy$ = -936						; size = 4
_fz$ = -932						; size = 4
_fx$ = -928						; size = 4
_fy$ = -924						; size = 4
_fz$ = -920						; size = 4
_c_rv3View$1 = -916					; size = 4
_fx$ = -912						; size = 4
_fy$ = -908						; size = 4
_fz$ = -904						; size = 4
_fx$ = -900						; size = 4
_fz$ = -896						; size = 4
_fy$ = -892						; size = 4
_fz$ = -888						; size = 4
__X$ = -884						; size = 4
$T2 = -880						; size = 4
$T3 = -876						; size = 4
_pCurrentCamera$4 = -872				; size = 4
_fx$ = -868						; size = 4
_fy$ = -864						; size = 4
_fz$ = -860						; size = 4
_fx$ = -856						; size = 4
_fy$ = -852						; size = 4
_fz$ = -848						; size = 4
_fx$ = -844						; size = 4
_fy$ = -840						; size = 4
_fz$ = -836						; size = 4
_fx$ = -832						; size = 4
_fz$ = -828						; size = 4
_fy$ = -824						; size = 4
_fy$ = -820						; size = 4
_fz$ = -816						; size = 4
_fy$ = -812						; size = 4
_fx$ = -808						; size = 4
_fz$ = -804						; size = 4
_fy$ = -800						; size = 4
_fx$ = -796						; size = 4
_fz$ = -792						; size = 4
_fy$ = -788						; size = 4
_fx$ = -784						; size = 4
_fz$ = -780						; size = 4
_fy$ = -776						; size = 4
_fx$ = -772						; size = 4
_fz$ = -768						; size = 4
_fy$ = -764						; size = 4
_fx$ = -760						; size = 4
_fz$ = -756						; size = 4
_fy$ = -752						; size = 4
_fx$ = -748						; size = 4
_fz$ = -744						; size = 4
_fy$ = -740						; size = 4
_fx$ = -736						; size = 4
_fz$ = -732						; size = 4
_fy$ = -728						; size = 4
_fx$ = -724						; size = 4
_fz$ = -720						; size = 4
_fy$ = -716						; size = 4
_fx$ = -712						; size = 4
_fz$ = -708						; size = 4
_fy$ = -704						; size = 4
_fx$ = -700						; size = 4
_fz$ = -696						; size = 4
_fy$ = -692						; size = 4
_fx$ = -688						; size = 4
_fz$ = -684						; size = 4
_fy$ = -680						; size = 4
_fx$ = -676						; size = 4
_fz$ = -672						; size = 4
_fy$ = -668						; size = 4
_fx$ = -664						; size = 4
_fy$ = -660						; size = 4
_fx$ = -656						; size = 4
_fz$ = -652						; size = 4
_fy$ = -648						; size = 4
_fx$ = -644						; size = 4
_fz$ = -640						; size = 4
_fy$ = -636						; size = 4
_fx$ = -632						; size = 4
__X$ = -628						; size = 4
tv2578 = -624						; size = 4
tv2577 = -620						; size = 4
__X$ = -616						; size = 4
_fy$ = -612						; size = 4
_fx$ = -608						; size = 4
__X$ = -604						; size = 4
__X$ = -600						; size = 4
$T5 = -596						; size = 4
$T6 = -592						; size = 4
_c_rv3Up$7 = -588					; size = 4
_fCos$8 = -584						; size = 4
_fSin$9 = -580						; size = 4
_this$ = -576						; size = 4
_this$ = -572						; size = 4
_this$ = -568						; size = 4
_this$ = -564						; size = 4
_f$ = -560						; size = 4
_f$ = -556						; size = 4
_f$ = -552						; size = 4
_length$10 = -548					; size = 4
_v$ = -544						; size = 4
_this$ = -540						; size = 4
tv87 = -536						; size = 4
_c_rv3View$11 = -532					; size = 4
_pCurrentCamera$12 = -528				; size = 4
_fCos$13 = -524						; size = 4
_fSin$14 = -520						; size = 4
_y$15 = -516						; size = 4
_x$16 = -512						; size = 4
_fSin$17 = -508						; size = 4
_fCos$18 = -504						; size = 4
_c_rv3Cross$19 = -500					; size = 4
_c_rv3View$20 = -496					; size = 4
_this$ = -492						; size = 4
_matRotation$21 = -488					; size = 64
$T22 = -424						; size = 12
$T23 = -412						; size = 12
$T24 = -400						; size = 12
$T25 = -388						; size = 12
$T26 = -376						; size = 12
$T27 = -364						; size = 12
$T28 = -352						; size = 12
$T29 = -340						; size = 12
$T30 = -328						; size = 12
_v$31 = -316						; size = 12
$T32 = -304						; size = 12
_v3Temp$33 = -292					; size = 12
$T34 = -280						; size = 12
$T35 = -268						; size = 12
$T36 = -256						; size = 12
_v$37 = -244						; size = 12
$T38 = -232						; size = 12
$T39 = -220						; size = 12
$T40 = -208						; size = 12
$T41 = -196						; size = 12
$T42 = -184						; size = 12
$T43 = -172						; size = 12
$T44 = -160						; size = 12
$T45 = -148						; size = 12
$T46 = -136						; size = 12
$T47 = -124						; size = 12
$T48 = -112						; size = 12
$T49 = -100						; size = 12
$T50 = -88						; size = 12
$T51 = -76						; size = 12
$T52 = -64						; size = 12
$T53 = -52						; size = 12
_v3Position$54 = -40					; size = 12
_v3Cross$ = -28						; size = 12
_v3Up$ = -16						; size = 12
__$ArrayPad$ = -4					; size = 4
_c_matLocal$ = 8					; size = 4
_c_fZRotation$ = 12					; size = 4
?Transform@CParticleInstance@@QAEXPBUD3DXMATRIX@@M@Z PROC ; CParticleInstance::Transform, COMDAT
; _this$ = ecx

; 281  : {

  00000	55		 push	 ebp
  00001	8b ec		 mov	 ebp, esp
  00003	81 ec cc 03 00
	00		 sub	 esp, 972		; 000003ccH
  00009	a1 00 00 00 00	 mov	 eax, DWORD PTR ___security_cookie
  0000e	33 c5		 xor	 eax, ebp
  00010	89 45 fc	 mov	 DWORD PTR __$ArrayPad$[ebp], eax
  00013	56		 push	 esi
  00014	57		 push	 edi
  00015	89 8d 14 fe ff
	ff		 mov	 DWORD PTR _this$[ebp], ecx
; File D:\Metin2 Server Files\mainline\SRC_2014\Metin2Client\EffectLib\Type.h

; 164  : 		return m_dwColor;

  0001b	8b 85 14 fe ff
	ff		 mov	 eax, DWORD PTR _this$[ebp]
  00021	8b 40 44	 mov	 eax, DWORD PTR [eax+68]
  00024	89 85 b0 fd ff
	ff		 mov	 DWORD PTR $T6[ebp], eax
; File D:\Metin2 Server Files\mainline\SRC_2014\Metin2Client\EffectLib\ParticleInstance.cpp

; 285  : 	STATEMANAGER.SetRenderState(D3DRS_TEXTUREFACTOR, (DWORD)m_dcColor);

  0002a	ff b5 b0 fd ff
	ff		 push	 DWORD PTR $T6[ebp]
  00030	6a 3c		 push	 60			; 0000003cH
  00032	8b 0d 00 00 00
	00		 mov	 ecx, DWORD PTR ?ms_singleton@?$CSingleton@VCStateManager@@@@0PAVCStateManager@@A ; CSingleton<CStateManager>::ms_singleton
  00038	e8 00 00 00 00	 call	 ?SetRenderState@CStateManager@@QAEXW4_D3DRENDERSTATETYPE@@K@Z ; CStateManager::SetRenderState

; 286  : #endif
; 287  : 
; 288  : 	/////
; 289  : 
; 290  : 	D3DXVECTOR3 v3Up;
; 291  : 	D3DXVECTOR3 v3Cross;
; 292  : 
; 293  : 	if (!m_pParticleProperty->m_bStretchFlag)

  0003d	8b 85 14 fe ff
	ff		 mov	 eax, DWORD PTR _this$[ebp]
  00043	8b 40 5c	 mov	 eax, DWORD PTR [eax+92]
  00046	83 78 24 00	 cmp	 DWORD PTR [eax+36], 0
  0004a	0f 85 6e 07 00
	00		 jne	 $LN4@Transform
; File D:\Metin2 Server Files\mainline\SRC_2014\Metin2Client\eterBase\Singleton.h

; 27   : 		return (*ms_singleton);

  00050	a1 00 00 00 00	 mov	 eax, DWORD PTR ?ms_singleton@?$CSingleton@VCCameraManager@@@@0PAVCCameraManager@@A ; CSingleton<CCameraManager>::ms_singleton
  00055	89 85 ac fd ff
	ff		 mov	 DWORD PTR $T5[ebp], eax
; File D:\Metin2 Server Files\mainline\SRC_2014\Metin2Client\EffectLib\ParticleInstance.cpp

; 295  : 		CCamera * pCurrentCamera = CCameraManager::Instance().GetCurrentCamera();

  0005b	8b 8d ac fd ff
	ff		 mov	 ecx, DWORD PTR $T5[ebp]
  00061	e8 00 00 00 00	 call	 ?GetCurrentCamera@CCameraManager@@QAEPAVCCamera@@XZ ; CCameraManager::GetCurrentCamera
  00066	89 85 f0 fd ff
	ff		 mov	 DWORD PTR _pCurrentCamera$12[ebp], eax
; File D:\Metin2 Server Files\mainline\SRC_2014\Metin2Client\eterLib\Camera.h

; 170  : 		const D3DXVECTOR3 & GetUp() const		{ return m_v3Up; }

  0006c	8b 85 f0 fd ff
	ff		 mov	 eax, DWORD PTR _pCurrentCamera$12[ebp]
  00072	83 c0 48	 add	 eax, 72			; 00000048H
; File D:\Metin2 Server Files\mainline\SRC_2014\Metin2Client\EffectLib\ParticleInstance.cpp

; 296  : 		const D3DXVECTOR3 & c_rv3Up = pCurrentCamera->GetUp();

  00075	89 85 b4 fd ff
	ff		 mov	 DWORD PTR _c_rv3Up$7[ebp], eax
; File D:\Metin2 Server Files\mainline\SRC_2014\Metin2Client\eterLib\Camera.h

; 172  : 		const D3DXVECTOR3 & GetCross() const	{ return m_v3Cross; }

  0007b	8b 85 f0 fd ff
	ff		 mov	 eax, DWORD PTR _pCurrentCamera$12[ebp]
  00081	83 c0 60	 add	 eax, 96			; 00000060H
; File D:\Metin2 Server Files\mainline\SRC_2014\Metin2Client\EffectLib\ParticleInstance.cpp

; 297  : 		const D3DXVECTOR3 & c_rv3Cross = pCurrentCamera->GetCross();

  00084	89 85 0c fe ff
	ff		 mov	 DWORD PTR _c_rv3Cross$19[ebp], eax

; 298  : 
; 299  : 		D3DXVECTOR3 v3Rotation;
; 300  : 
; 301  : 		switch(m_pParticleProperty->m_byBillboardType) {

  0008a	8b 85 14 fe ff
	ff		 mov	 eax, DWORD PTR _this$[ebp]
  00090	8b 40 5c	 mov	 eax, DWORD PTR [eax+92]
  00093	8a 40 13	 mov	 al, BYTE PTR [eax+19]
  00096	88 85 e8 fd ff
	ff		 mov	 BYTE PTR tv87[ebp], al
  0009c	80 bd e8 fd ff
	ff 02		 cmp	 BYTE PTR tv87[ebp], 2
  000a3	0f 84 e6 00 00
	00		 je	 $LN7@Transform
  000a9	80 bd e8 fd ff
	ff 03		 cmp	 BYTE PTR tv87[ebp], 3
  000b0	74 1f		 je	 SHORT $LN6@Transform
  000b2	80 bd e8 fd ff
	ff 03		 cmp	 BYTE PTR tv87[ebp], 3
  000b9	0f 86 60 05 00
	00		 jbe	 $LN10@Transform
  000bf	80 bd e8 fd ff
	ff 05		 cmp	 BYTE PTR tv87[ebp], 5
  000c6	0f 86 c3 00 00
	00		 jbe	 $LN7@Transform
  000cc	e9 4e 05 00 00	 jmp	 $LN10@Transform
$LN6@Transform:

; 304  : 				float fCos = cosf(D3DXToRadian(m_fRotation)), fSin = sinf(D3DXToRadian(m_fRotation));

  000d1	8b 85 14 fe ff
	ff		 mov	 eax, DWORD PTR _this$[ebp]
  000d7	f3 0f 10 40 40	 movss	 xmm0, DWORD PTR [eax+64]
  000dc	f3 0f 59 05 00
	00 00 00	 mulss	 xmm0, DWORD PTR __real@3c8efa35
  000e4	f3 0f 11 85 a8
	fd ff ff	 movss	 DWORD PTR __X$[ebp], xmm0
; File C:\Program Files (x86)\Windows Kits\10\Include\10.0.18362.0\ucrt\corecrt_math.h

; 649  :             return (float)cos(_X);

  000ec	f3 0f 5a 85 a8
	fd ff ff	 cvtss2sd xmm0, DWORD PTR __X$[ebp]
  000f4	51		 push	 ecx
  000f5	51		 push	 ecx
  000f6	f2 0f 11 04 24	 movsd	 QWORD PTR [esp], xmm0
  000fb	e8 00 00 00 00	 call	 _cos
  00100	59		 pop	 ecx
  00101	59		 pop	 ecx
; File D:\Metin2 Server Files\mainline\SRC_2014\Metin2Client\EffectLib\ParticleInstance.cpp

; 304  : 				float fCos = cosf(D3DXToRadian(m_fRotation)), fSin = sinf(D3DXToRadian(m_fRotation));

  00102	d9 9d b8 fd ff
	ff		 fstp	 DWORD PTR _fCos$8[ebp]
  00108	8b 85 14 fe ff
	ff		 mov	 eax, DWORD PTR _this$[ebp]
  0010e	f3 0f 10 40 40	 movss	 xmm0, DWORD PTR [eax+64]
  00113	f3 0f 59 05 00
	00 00 00	 mulss	 xmm0, DWORD PTR __real@3c8efa35
  0011b	f3 0f 11 85 a4
	fd ff ff	 movss	 DWORD PTR __X$[ebp], xmm0
; File C:\Program Files (x86)\Windows Kits\10\Include\10.0.18362.0\ucrt\corecrt_math.h

; 750  :             return (float)sin(_X);

  00123	f3 0f 5a 85 a4
	fd ff ff	 cvtss2sd xmm0, DWORD PTR __X$[ebp]
  0012b	51		 push	 ecx
  0012c	51		 push	 ecx
  0012d	f2 0f 11 04 24	 movsd	 QWORD PTR [esp], xmm0
  00132	e8 00 00 00 00	 call	 _sin
  00137	59		 pop	 ecx
  00138	59		 pop	 ecx
; File D:\Metin2 Server Files\mainline\SRC_2014\Metin2Client\EffectLib\ParticleInstance.cpp

; 304  : 				float fCos = cosf(D3DXToRadian(m_fRotation)), fSin = sinf(D3DXToRadian(m_fRotation));

  00139	d9 9d bc fd ff
	ff		 fstp	 DWORD PTR _fSin$9[ebp]

; 305  : 				v3Up.x = fCos;

  0013f	f3 0f 10 85 b8
	fd ff ff	 movss	 xmm0, DWORD PTR _fCos$8[ebp]
  00147	f3 0f 11 45 f0	 movss	 DWORD PTR _v3Up$[ebp], xmm0

; 306  : 				v3Up.y = -fSin;

  0014c	f3 0f 10 85 bc
	fd ff ff	 movss	 xmm0, DWORD PTR _fSin$9[ebp]
  00154	0f 57 05 00 00
	00 00		 xorps	 xmm0, DWORD PTR __xmm@80000000800000008000000080000000
  0015b	f3 0f 11 45 f4	 movss	 DWORD PTR _v3Up$[ebp+4], xmm0

; 307  : 				v3Up.z = 0;

  00160	0f 57 c0	 xorps	 xmm0, xmm0
  00163	f3 0f 11 45 f8	 movss	 DWORD PTR _v3Up$[ebp+8], xmm0

; 308  : 
; 309  : 				v3Cross.x = fSin;

  00168	f3 0f 10 85 bc
	fd ff ff	 movss	 xmm0, DWORD PTR _fSin$9[ebp]
  00170	f3 0f 11 45 e4	 movss	 DWORD PTR _v3Cross$[ebp], xmm0

; 310  : 				v3Cross.y = fCos;

  00175	f3 0f 10 85 b8
	fd ff ff	 movss	 xmm0, DWORD PTR _fCos$8[ebp]
  0017d	f3 0f 11 45 e8	 movss	 DWORD PTR _v3Cross$[ebp+4], xmm0

; 311  : 				v3Cross.z = 0;

  00182	0f 57 c0	 xorps	 xmm0, xmm0
  00185	f3 0f 11 45 ec	 movss	 DWORD PTR _v3Cross$[ebp+8], xmm0

; 312  : 			}
; 313  : 			break;

  0018a	e9 2a 06 00 00	 jmp	 $LN2@Transform
$LN7@Transform:
; File D:\Metin2 Server Files\mainline\SRC_2014\M2Data\include\d3dx8math.inl

; 180  :     x = fx;

  0018f	0f 57 c0	 xorps	 xmm0, xmm0
  00192	f3 0f 11 85 94
	fe ff ff	 movss	 DWORD PTR $T27[ebp], xmm0

; 181  :     y = fy;

  0019a	0f 57 c0	 xorps	 xmm0, xmm0
  0019d	f3 0f 11 85 98
	fe ff ff	 movss	 DWORD PTR $T27[ebp+4], xmm0

; 182  :     z = fz;

  001a5	f3 0f 10 05 00
	00 00 00	 movss	 xmm0, DWORD PTR __real@3f800000
  001ad	f3 0f 11 85 9c
	fe ff ff	 movss	 DWORD PTR $T27[ebp+8], xmm0
; File D:\Metin2 Server Files\mainline\SRC_2014\Metin2Client\EffectLib\ParticleInstance.cpp

; 319  : 				v3Up = D3DXVECTOR3(0.0f,0.0f,1.0f);

  001b5	8d b5 94 fe ff
	ff		 lea	 esi, DWORD PTR $T27[ebp]
  001bb	8d 7d f0	 lea	 edi, DWORD PTR _v3Up$[ebp]
  001be	a5		 movsd
  001bf	a5		 movsd
  001c0	a5		 movsd
; File D:\Metin2 Server Files\mainline\SRC_2014\Metin2Client\eterLib\Camera.h

; 171  : 		const D3DXVECTOR3 & GetView() const		{ return m_v3View; }

  001c1	8b 85 f0 fd ff
	ff		 mov	 eax, DWORD PTR _pCurrentCamera$12[ebp]
  001c7	83 c0 54	 add	 eax, 84			; 00000054H
; File D:\Metin2 Server Files\mainline\SRC_2014\Metin2Client\EffectLib\ParticleInstance.cpp

; 321  : 				const D3DXVECTOR3 & c_rv3View = pCurrentCamera->GetView();

  001ca	89 85 ec fd ff
	ff		 mov	 DWORD PTR _c_rv3View$11[ebp], eax

; 322  : 				if (v3Up.x * c_rv3View.y - v3Up.y * c_rv3View.x<0)

  001d0	8b 85 ec fd ff
	ff		 mov	 eax, DWORD PTR _c_rv3View$11[ebp]
  001d6	f3 0f 10 45 f0	 movss	 xmm0, DWORD PTR _v3Up$[ebp]
  001db	f3 0f 59 40 04	 mulss	 xmm0, DWORD PTR [eax+4]
  001e0	8b 85 ec fd ff
	ff		 mov	 eax, DWORD PTR _c_rv3View$11[ebp]
  001e6	f3 0f 10 4d f4	 movss	 xmm1, DWORD PTR _v3Up$[ebp+4]
  001eb	f3 0f 59 08	 mulss	 xmm1, DWORD PTR [eax]
  001ef	f3 0f 5c c1	 subss	 xmm0, xmm1
  001f3	0f 57 c9	 xorps	 xmm1, xmm1
  001f6	0f 2f c8	 comiss	 xmm1, xmm0
  001f9	76 36		 jbe	 SHORT $LN44@Transform
; File D:\Metin2 Server Files\mainline\SRC_2014\M2Data\include\d3dx8math.inl

; 222  :     x *= f;

  001fb	f3 0f 10 45 f0	 movss	 xmm0, DWORD PTR _v3Up$[ebp]
  00200	f3 0f 59 05 00
	00 00 00	 mulss	 xmm0, DWORD PTR __real@bf800000
  00208	f3 0f 11 45 f0	 movss	 DWORD PTR _v3Up$[ebp], xmm0

; 223  :     y *= f;

  0020d	f3 0f 10 45 f4	 movss	 xmm0, DWORD PTR _v3Up$[ebp+4]
  00212	f3 0f 59 05 00
	00 00 00	 mulss	 xmm0, DWORD PTR __real@bf800000
  0021a	f3 0f 11 45 f4	 movss	 DWORD PTR _v3Up$[ebp+4], xmm0

; 224  :     z *= f;

  0021f	f3 0f 10 45 f8	 movss	 xmm0, DWORD PTR _v3Up$[ebp+8]
  00224	f3 0f 59 05 00
	00 00 00	 mulss	 xmm0, DWORD PTR __real@bf800000
  0022c	f3 0f 11 45 f8	 movss	 DWORD PTR _v3Up$[ebp+8], xmm0
$LN44@Transform:
; File D:\Metin2 Server Files\mainline\SRC_2014\Metin2Client\EffectLib\ParticleInstance.cpp

; 324  : 				D3DXVec3Cross(&v3Cross, &v3Up, &D3DXVECTOR3(c_rv3View.x,c_rv3View.y,0));

  00231	8b 85 ec fd ff
	ff		 mov	 eax, DWORD PTR _c_rv3View$11[ebp]
  00237	f3 0f 10 00	 movss	 xmm0, DWORD PTR [eax]
  0023b	f3 0f 11 85 a0
	fd ff ff	 movss	 DWORD PTR _fx$[ebp], xmm0
  00243	8b 85 ec fd ff
	ff		 mov	 eax, DWORD PTR _c_rv3View$11[ebp]
  00249	f3 0f 10 40 04	 movss	 xmm0, DWORD PTR [eax+4]
  0024e	f3 0f 11 85 9c
	fd ff ff	 movss	 DWORD PTR _fy$[ebp], xmm0
; File D:\Metin2 Server Files\mainline\SRC_2014\M2Data\include\d3dx8math.inl

; 180  :     x = fx;

  00256	f3 0f 10 85 a0
	fd ff ff	 movss	 xmm0, DWORD PTR _fx$[ebp]
  0025e	f3 0f 11 45 cc	 movss	 DWORD PTR $T53[ebp], xmm0

; 181  :     y = fy;

  00263	f3 0f 10 85 9c
	fd ff ff	 movss	 xmm0, DWORD PTR _fy$[ebp]
  0026b	f3 0f 11 45 d0	 movss	 DWORD PTR $T53[ebp+4], xmm0

; 182  :     z = fz;

  00270	0f 57 c0	 xorps	 xmm0, xmm0
  00273	f3 0f 11 45 d4	 movss	 DWORD PTR $T53[ebp+8], xmm0

; 1277 :     v.x = pV1->y * pV2->z - pV1->z * pV2->y;

  00278	f3 0f 10 45 f4	 movss	 xmm0, DWORD PTR _v3Up$[ebp+4]
  0027d	f3 0f 59 45 d4	 mulss	 xmm0, DWORD PTR $T53[ebp+8]
  00282	f3 0f 10 4d f8	 movss	 xmm1, DWORD PTR _v3Up$[ebp+8]
  00287	f3 0f 59 4d d0	 mulss	 xmm1, DWORD PTR $T53[ebp+4]
  0028c	f3 0f 5c c1	 subss	 xmm0, xmm1
  00290	f3 0f 11 85 c4
	fe ff ff	 movss	 DWORD PTR _v$31[ebp], xmm0

; 1278 :     v.y = pV1->z * pV2->x - pV1->x * pV2->z;

  00298	f3 0f 10 45 f8	 movss	 xmm0, DWORD PTR _v3Up$[ebp+8]
  0029d	f3 0f 59 45 cc	 mulss	 xmm0, DWORD PTR $T53[ebp]
  002a2	f3 0f 10 4d f0	 movss	 xmm1, DWORD PTR _v3Up$[ebp]
  002a7	f3 0f 59 4d d4	 mulss	 xmm1, DWORD PTR $T53[ebp+8]
  002ac	f3 0f 5c c1	 subss	 xmm0, xmm1
  002b0	f3 0f 11 85 c8
	fe ff ff	 movss	 DWORD PTR _v$31[ebp+4], xmm0

; 1279 :     v.z = pV1->x * pV2->y - pV1->y * pV2->x;

  002b8	f3 0f 10 45 f0	 movss	 xmm0, DWORD PTR _v3Up$[ebp]
  002bd	f3 0f 59 45 d0	 mulss	 xmm0, DWORD PTR $T53[ebp+4]
  002c2	f3 0f 10 4d f4	 movss	 xmm1, DWORD PTR _v3Up$[ebp+4]
  002c7	f3 0f 59 4d cc	 mulss	 xmm1, DWORD PTR $T53[ebp]
  002cc	f3 0f 5c c1	 subss	 xmm0, xmm1
  002d0	f3 0f 11 85 cc
	fe ff ff	 movss	 DWORD PTR _v$31[ebp+8], xmm0

; 1280 : 
; 1281 :     *pOut = v;

  002d8	8d b5 c4 fe ff
	ff		 lea	 esi, DWORD PTR _v$31[ebp]
  002de	8d 7d e4	 lea	 edi, DWORD PTR _v3Cross$[ebp]
  002e1	a5		 movsd
  002e2	a5		 movsd
  002e3	a5		 movsd
; File D:\Metin2 Server Files\mainline\SRC_2014\Metin2Client\EffectLib\ParticleInstance.cpp

; 325  : 				D3DXVec3Normalize(&v3Cross, &v3Cross);

  002e4	8d 45 e4	 lea	 eax, DWORD PTR _v3Cross$[ebp]
  002e7	50		 push	 eax
  002e8	8d 45 e4	 lea	 eax, DWORD PTR _v3Cross$[ebp]
  002eb	50		 push	 eax
  002ec	e8 00 00 00 00	 call	 _D3DXVec3Normalize@8

; 326  : 
; 327  : 				if (m_fRotation)

  002f1	8b 85 14 fe ff
	ff		 mov	 eax, DWORD PTR _this$[ebp]
  002f7	f3 0f 10 40 40	 movss	 xmm0, DWORD PTR [eax+64]
  002fc	0f 2e 05 00 00
	00 00		 ucomiss xmm0, DWORD PTR __real@00000000
  00303	9f		 lahf
  00304	f6 c4 44	 test	 ah, 68			; 00000044H
  00307	0f 8b 0d 03 00
	00		 jnp	 $LN9@Transform

; 329  : 					float fCos = -sinf(D3DXToRadian(m_fRotation)); // + 90

  0030d	8b 85 14 fe ff
	ff		 mov	 eax, DWORD PTR _this$[ebp]
  00313	f3 0f 10 40 40	 movss	 xmm0, DWORD PTR [eax+64]
  00318	f3 0f 59 05 00
	00 00 00	 mulss	 xmm0, DWORD PTR __real@3c8efa35
  00320	f3 0f 11 85 98
	fd ff ff	 movss	 DWORD PTR __X$[ebp], xmm0
; File C:\Program Files (x86)\Windows Kits\10\Include\10.0.18362.0\ucrt\corecrt_math.h

; 750  :             return (float)sin(_X);

  00328	f3 0f 5a 85 98
	fd ff ff	 cvtss2sd xmm0, DWORD PTR __X$[ebp]
  00330	51		 push	 ecx
  00331	51		 push	 ecx
  00332	f2 0f 11 04 24	 movsd	 QWORD PTR [esp], xmm0
  00337	e8 00 00 00 00	 call	 _sin
  0033c	59		 pop	 ecx
  0033d	59		 pop	 ecx
  0033e	d9 9d 94 fd ff
	ff		 fstp	 DWORD PTR tv2577[ebp]
  00344	d9 85 94 fd ff
	ff		 fld	 DWORD PTR tv2577[ebp]
  0034a	d9 9d 90 fd ff
	ff		 fstp	 DWORD PTR tv2578[ebp]
  00350	f3 0f 10 85 90
	fd ff ff	 movss	 xmm0, DWORD PTR tv2578[ebp]
; File D:\Metin2 Server Files\mainline\SRC_2014\Metin2Client\EffectLib\ParticleInstance.cpp

; 329  : 					float fCos = -sinf(D3DXToRadian(m_fRotation)); // + 90

  00358	0f 57 05 00 00
	00 00		 xorps	 xmm0, DWORD PTR __xmm@80000000800000008000000080000000
  0035f	f3 0f 11 85 08
	fe ff ff	 movss	 DWORD PTR _fCos$18[ebp], xmm0

; 330  : 					float fSin = cosf(D3DXToRadian(m_fRotation));

  00367	8b 85 14 fe ff
	ff		 mov	 eax, DWORD PTR _this$[ebp]
  0036d	f3 0f 10 40 40	 movss	 xmm0, DWORD PTR [eax+64]
  00372	f3 0f 59 05 00
	00 00 00	 mulss	 xmm0, DWORD PTR __real@3c8efa35
  0037a	f3 0f 11 85 8c
	fd ff ff	 movss	 DWORD PTR __X$[ebp], xmm0
; File C:\Program Files (x86)\Windows Kits\10\Include\10.0.18362.0\ucrt\corecrt_math.h

; 649  :             return (float)cos(_X);

  00382	f3 0f 5a 85 8c
	fd ff ff	 cvtss2sd xmm0, DWORD PTR __X$[ebp]
  0038a	51		 push	 ecx
  0038b	51		 push	 ecx
  0038c	f2 0f 11 04 24	 movsd	 QWORD PTR [esp], xmm0
  00391	e8 00 00 00 00	 call	 _cos
  00396	59		 pop	 ecx
  00397	59		 pop	 ecx
; File D:\Metin2 Server Files\mainline\SRC_2014\Metin2Client\EffectLib\ParticleInstance.cpp

; 330  : 					float fSin = cosf(D3DXToRadian(m_fRotation));

  00398	d9 9d 04 fe ff
	ff		 fstp	 DWORD PTR _fSin$17[ebp]
; File D:\Metin2 Server Files\mainline\SRC_2014\M2Data\include\d3dx8math.inl

; 269  :     return D3DXVECTOR3(x * f, y * f, z * f);

  0039e	f3 0f 10 45 e4	 movss	 xmm0, DWORD PTR _v3Cross$[ebp]
  003a3	f3 0f 59 85 04
	fe ff ff	 mulss	 xmm0, DWORD PTR _fSin$17[ebp]
  003ab	f3 0f 11 85 88
	fd ff ff	 movss	 DWORD PTR _fx$[ebp], xmm0
  003b3	f3 0f 10 45 e8	 movss	 xmm0, DWORD PTR _v3Cross$[ebp+4]
  003b8	f3 0f 59 85 04
	fe ff ff	 mulss	 xmm0, DWORD PTR _fSin$17[ebp]
  003c0	f3 0f 11 85 84
	fd ff ff	 movss	 DWORD PTR _fy$[ebp], xmm0
  003c8	f3 0f 10 45 ec	 movss	 xmm0, DWORD PTR _v3Cross$[ebp+8]
  003cd	f3 0f 59 85 04
	fe ff ff	 mulss	 xmm0, DWORD PTR _fSin$17[ebp]
  003d5	f3 0f 11 85 80
	fd ff ff	 movss	 DWORD PTR _fz$[ebp], xmm0

; 180  :     x = fx;

  003dd	f3 0f 10 85 88
	fd ff ff	 movss	 xmm0, DWORD PTR _fx$[ebp]
  003e5	f3 0f 11 45 a8	 movss	 DWORD PTR $T50[ebp], xmm0

; 181  :     y = fy;

  003ea	f3 0f 10 85 84
	fd ff ff	 movss	 xmm0, DWORD PTR _fy$[ebp]
  003f2	f3 0f 11 45 ac	 movss	 DWORD PTR $T50[ebp+4], xmm0

; 182  :     z = fz;

  003f7	f3 0f 10 85 80
	fd ff ff	 movss	 xmm0, DWORD PTR _fz$[ebp]
  003ff	f3 0f 11 45 b0	 movss	 DWORD PTR $T50[ebp+8], xmm0

; 269  :     return D3DXVECTOR3(x * f, y * f, z * f);

  00404	f3 0f 10 45 f0	 movss	 xmm0, DWORD PTR _v3Up$[ebp]
  00409	f3 0f 59 85 08
	fe ff ff	 mulss	 xmm0, DWORD PTR _fCos$18[ebp]
  00411	f3 0f 11 85 7c
	fd ff ff	 movss	 DWORD PTR _fx$[ebp], xmm0
  00419	f3 0f 10 45 f4	 movss	 xmm0, DWORD PTR _v3Up$[ebp+4]
  0041e	f3 0f 59 85 08
	fe ff ff	 mulss	 xmm0, DWORD PTR _fCos$18[ebp]
  00426	f3 0f 11 85 78
	fd ff ff	 movss	 DWORD PTR _fy$[ebp], xmm0
  0042e	f3 0f 10 45 f8	 movss	 xmm0, DWORD PTR _v3Up$[ebp+8]
  00433	f3 0f 59 85 08
	fe ff ff	 mulss	 xmm0, DWORD PTR _fCos$18[ebp]
  0043b	f3 0f 11 85 74
	fd ff ff	 movss	 DWORD PTR _fz$[ebp], xmm0

; 180  :     x = fx;

  00443	f3 0f 10 85 7c
	fd ff ff	 movss	 xmm0, DWORD PTR _fx$[ebp]
  0044b	f3 0f 11 45 b4	 movss	 DWORD PTR $T51[ebp], xmm0

; 181  :     y = fy;

  00450	f3 0f 10 85 78
	fd ff ff	 movss	 xmm0, DWORD PTR _fy$[ebp]
  00458	f3 0f 11 45 b8	 movss	 DWORD PTR $T51[ebp+4], xmm0

; 182  :     z = fz;

  0045d	f3 0f 10 85 74
	fd ff ff	 movss	 xmm0, DWORD PTR _fz$[ebp]
  00465	f3 0f 11 45 bc	 movss	 DWORD PTR $T51[ebp+8], xmm0

; 263  :     return D3DXVECTOR3(x - v.x, y - v.y, z - v.z);

  0046a	f3 0f 10 45 b4	 movss	 xmm0, DWORD PTR $T51[ebp]
  0046f	f3 0f 5c 45 a8	 subss	 xmm0, DWORD PTR $T50[ebp]
  00474	f3 0f 11 85 70
	fd ff ff	 movss	 DWORD PTR _fx$[ebp], xmm0
  0047c	f3 0f 10 45 b8	 movss	 xmm0, DWORD PTR $T51[ebp+4]
  00481	f3 0f 5c 45 ac	 subss	 xmm0, DWORD PTR $T50[ebp+4]
  00486	f3 0f 11 85 6c
	fd ff ff	 movss	 DWORD PTR _fy$[ebp], xmm0
  0048e	f3 0f 10 45 bc	 movss	 xmm0, DWORD PTR $T51[ebp+8]
  00493	f3 0f 5c 45 b0	 subss	 xmm0, DWORD PTR $T50[ebp+8]
  00498	f3 0f 11 85 38
	fc ff ff	 movss	 DWORD PTR _fz$[ebp], xmm0

; 180  :     x = fx;

  004a0	f3 0f 10 85 70
	fd ff ff	 movss	 xmm0, DWORD PTR _fx$[ebp]
  004a8	f3 0f 11 85 dc
	fe ff ff	 movss	 DWORD PTR _v3Temp$33[ebp], xmm0

; 181  :     y = fy;

  004b0	f3 0f 10 85 6c
	fd ff ff	 movss	 xmm0, DWORD PTR _fy$[ebp]
  004b8	f3 0f 11 85 e0
	fe ff ff	 movss	 DWORD PTR _v3Temp$33[ebp+4], xmm0

; 182  :     z = fz;

  004c0	f3 0f 10 85 38
	fc ff ff	 movss	 xmm0, DWORD PTR _fz$[ebp]
  004c8	f3 0f 11 85 e4
	fe ff ff	 movss	 DWORD PTR _v3Temp$33[ebp+8], xmm0

; 269  :     return D3DXVECTOR3(x * f, y * f, z * f);

  004d0	f3 0f 10 45 f0	 movss	 xmm0, DWORD PTR _v3Up$[ebp]
  004d5	f3 0f 59 85 04
	fe ff ff	 mulss	 xmm0, DWORD PTR _fSin$17[ebp]
  004dd	f3 0f 11 85 3c
	fc ff ff	 movss	 DWORD PTR _fx$[ebp], xmm0
  004e5	f3 0f 10 45 f4	 movss	 xmm0, DWORD PTR _v3Up$[ebp+4]
  004ea	f3 0f 59 85 04
	fe ff ff	 mulss	 xmm0, DWORD PTR _fSin$17[ebp]
  004f2	f3 0f 11 85 40
	fc ff ff	 movss	 DWORD PTR _fy$[ebp], xmm0
  004fa	f3 0f 10 45 f8	 movss	 xmm0, DWORD PTR _v3Up$[ebp+8]
  004ff	f3 0f 59 85 04
	fe ff ff	 mulss	 xmm0, DWORD PTR _fSin$17[ebp]
  00507	f3 0f 11 85 44
	fc ff ff	 movss	 DWORD PTR _fz$[ebp], xmm0

; 180  :     x = fx;

  0050f	f3 0f 10 85 3c
	fc ff ff	 movss	 xmm0, DWORD PTR _fx$[ebp]
  00517	f3 0f 11 45 9c	 movss	 DWORD PTR $T49[ebp], xmm0

; 181  :     y = fy;

  0051c	f3 0f 10 85 40
	fc ff ff	 movss	 xmm0, DWORD PTR _fy$[ebp]
  00524	f3 0f 11 45 a0	 movss	 DWORD PTR $T49[ebp+4], xmm0

; 182  :     z = fz;

  00529	f3 0f 10 85 44
	fc ff ff	 movss	 xmm0, DWORD PTR _fz$[ebp]
  00531	f3 0f 11 45 a4	 movss	 DWORD PTR $T49[ebp+8], xmm0

; 269  :     return D3DXVECTOR3(x * f, y * f, z * f);

  00536	f3 0f 10 45 e4	 movss	 xmm0, DWORD PTR _v3Cross$[ebp]
  0053b	f3 0f 59 85 08
	fe ff ff	 mulss	 xmm0, DWORD PTR _fCos$18[ebp]
  00543	f3 0f 11 85 48
	fc ff ff	 movss	 DWORD PTR _fx$[ebp], xmm0
  0054b	f3 0f 10 45 e8	 movss	 xmm0, DWORD PTR _v3Cross$[ebp+4]
  00550	f3 0f 59 85 08
	fe ff ff	 mulss	 xmm0, DWORD PTR _fCos$18[ebp]
  00558	f3 0f 11 85 4c
	fc ff ff	 movss	 DWORD PTR _fy$[ebp], xmm0
  00560	f3 0f 10 45 ec	 movss	 xmm0, DWORD PTR _v3Cross$[ebp+8]
  00565	f3 0f 59 85 08
	fe ff ff	 mulss	 xmm0, DWORD PTR _fCos$18[ebp]
  0056d	f3 0f 11 85 50
	fc ff ff	 movss	 DWORD PTR _fz$[ebp], xmm0

; 180  :     x = fx;

  00575	f3 0f 10 85 48
	fc ff ff	 movss	 xmm0, DWORD PTR _fx$[ebp]
  0057d	f3 0f 11 45 90	 movss	 DWORD PTR $T48[ebp], xmm0

; 181  :     y = fy;

  00582	f3 0f 10 85 4c
	fc ff ff	 movss	 xmm0, DWORD PTR _fy$[ebp]
  0058a	f3 0f 11 45 94	 movss	 DWORD PTR $T48[ebp+4], xmm0

; 182  :     z = fz;

  0058f	f3 0f 10 85 50
	fc ff ff	 movss	 xmm0, DWORD PTR _fz$[ebp]
  00597	f3 0f 11 45 98	 movss	 DWORD PTR $T48[ebp+8], xmm0

; 257  :     return D3DXVECTOR3(x + v.x, y + v.y, z + v.z);

  0059c	f3 0f 10 45 90	 movss	 xmm0, DWORD PTR $T48[ebp]
  005a1	f3 0f 58 45 9c	 addss	 xmm0, DWORD PTR $T49[ebp]
  005a6	f3 0f 11 85 54
	fc ff ff	 movss	 DWORD PTR _fx$[ebp], xmm0
  005ae	f3 0f 10 45 94	 movss	 xmm0, DWORD PTR $T48[ebp+4]
  005b3	f3 0f 58 45 a0	 addss	 xmm0, DWORD PTR $T49[ebp+4]
  005b8	f3 0f 11 85 58
	fc ff ff	 movss	 DWORD PTR _fy$[ebp], xmm0
  005c0	f3 0f 10 45 98	 movss	 xmm0, DWORD PTR $T48[ebp+8]
  005c5	f3 0f 58 45 a4	 addss	 xmm0, DWORD PTR $T49[ebp+8]
  005ca	f3 0f 11 85 5c
	fc ff ff	 movss	 DWORD PTR _fz$[ebp], xmm0

; 180  :     x = fx;

  005d2	f3 0f 10 85 54
	fc ff ff	 movss	 xmm0, DWORD PTR _fx$[ebp]
  005da	f3 0f 11 85 b8
	fe ff ff	 movss	 DWORD PTR $T30[ebp], xmm0

; 181  :     y = fy;

  005e2	f3 0f 10 85 58
	fc ff ff	 movss	 xmm0, DWORD PTR _fy$[ebp]
  005ea	f3 0f 11 85 bc
	fe ff ff	 movss	 DWORD PTR $T30[ebp+4], xmm0

; 182  :     z = fz;

  005f2	f3 0f 10 85 5c
	fc ff ff	 movss	 xmm0, DWORD PTR _fz$[ebp]
  005fa	f3 0f 11 85 c0
	fe ff ff	 movss	 DWORD PTR $T30[ebp+8], xmm0
; File D:\Metin2 Server Files\mainline\SRC_2014\Metin2Client\EffectLib\ParticleInstance.cpp

; 333  : 					v3Cross = v3Cross * fCos + v3Up * fSin;

  00602	8d b5 b8 fe ff
	ff		 lea	 esi, DWORD PTR $T30[ebp]
  00608	8d 7d e4	 lea	 edi, DWORD PTR _v3Cross$[ebp]
  0060b	a5		 movsd
  0060c	a5		 movsd
  0060d	a5		 movsd

; 334  : 					v3Up = v3Temp;

  0060e	8d b5 dc fe ff
	ff		 lea	 esi, DWORD PTR _v3Temp$33[ebp]
  00614	8d 7d f0	 lea	 edi, DWORD PTR _v3Up$[ebp]
  00617	a5		 movsd
  00618	a5		 movsd
  00619	a5		 movsd
$LN9@Transform:

; 335  : 				}
; 336  : 
; 337  : 				//D3DXVECTOR3 v3Rotation;
; 338  : 				//D3DXVec3Cross(&v3Rotation, &v3Up, &v3Cross);
; 339  : 
; 340  : 			}
; 341  : 			break;

  0061a	e9 9a 01 00 00	 jmp	 $LN2@Transform
$LN10@Transform:

; 342  : 		case BILLBOARD_TYPE_ALL:
; 343  : 		default:
; 344  : 			{
; 345  : 				// NOTE : Rotation Routine. Camera Up Vector Cross Vector  View Vector 
; 346  : 				//        Rotation .
; 347  : 				// FIXME :    !
; 348  : 				if (m_fRotation==0.0f)

  0061f	8b 85 14 fe ff
	ff		 mov	 eax, DWORD PTR _this$[ebp]
  00625	f3 0f 10 40 40	 movss	 xmm0, DWORD PTR [eax+64]
  0062a	0f 2e 05 00 00
	00 00		 ucomiss xmm0, DWORD PTR __real@00000000
  00631	9f		 lahf
  00632	f6 c4 44	 test	 ah, 68			; 00000044H
  00635	0f 8a 9a 00 00
	00		 jp	 $LN11@Transform
; File D:\Metin2 Server Files\mainline\SRC_2014\M2Data\include\d3dx8math.inl

; 249  :     return D3DXVECTOR3(-x, -y, -z);

  0063b	8b 85 0c fe ff
	ff		 mov	 eax, DWORD PTR _c_rv3Cross$19[ebp]
  00641	f3 0f 10 00	 movss	 xmm0, DWORD PTR [eax]
  00645	0f 57 05 00 00
	00 00		 xorps	 xmm0, DWORD PTR __xmm@80000000800000008000000080000000
  0064c	f3 0f 11 85 60
	fc ff ff	 movss	 DWORD PTR _fx$[ebp], xmm0
  00654	8b 85 0c fe ff
	ff		 mov	 eax, DWORD PTR _c_rv3Cross$19[ebp]
  0065a	f3 0f 10 40 04	 movss	 xmm0, DWORD PTR [eax+4]
  0065f	0f 57 05 00 00
	00 00		 xorps	 xmm0, DWORD PTR __xmm@80000000800000008000000080000000
  00666	f3 0f 11 85 64
	fc ff ff	 movss	 DWORD PTR _fy$[ebp], xmm0
  0066e	8b 85 0c fe ff
	ff		 mov	 eax, DWORD PTR _c_rv3Cross$19[ebp]
  00674	f3 0f 10 40 08	 movss	 xmm0, DWORD PTR [eax+8]
  00679	0f 57 05 00 00
	00 00		 xorps	 xmm0, DWORD PTR __xmm@80000000800000008000000080000000
  00680	f3 0f 11 85 68
	fc ff ff	 movss	 DWORD PTR _fz$[ebp], xmm0

; 180  :     x = fx;

  00688	f3 0f 10 85 60
	fc ff ff	 movss	 xmm0, DWORD PTR _fx$[ebp]
  00690	f3 0f 11 85 e8
	fe ff ff	 movss	 DWORD PTR $T34[ebp], xmm0

; 181  :     y = fy;

  00698	f3 0f 10 85 64
	fc ff ff	 movss	 xmm0, DWORD PTR _fy$[ebp]
  006a0	f3 0f 11 85 ec
	fe ff ff	 movss	 DWORD PTR $T34[ebp+4], xmm0

; 182  :     z = fz;

  006a8	f3 0f 10 85 68
	fc ff ff	 movss	 xmm0, DWORD PTR _fz$[ebp]
  006b0	f3 0f 11 85 f0
	fe ff ff	 movss	 DWORD PTR $T34[ebp+8], xmm0
; File D:\Metin2 Server Files\mainline\SRC_2014\Metin2Client\EffectLib\ParticleInstance.cpp

; 350  : 					v3Up = -c_rv3Cross;

  006b8	8d b5 e8 fe ff
	ff		 lea	 esi, DWORD PTR $T34[ebp]
  006be	8d 7d f0	 lea	 edi, DWORD PTR _v3Up$[ebp]
  006c1	a5		 movsd
  006c2	a5		 movsd
  006c3	a5		 movsd

; 351  : 					v3Cross = c_rv3Up;

  006c4	8b b5 b4 fd ff
	ff		 mov	 esi, DWORD PTR _c_rv3Up$7[ebp]
  006ca	8d 7d e4	 lea	 edi, DWORD PTR _v3Cross$[ebp]
  006cd	a5		 movsd
  006ce	a5		 movsd
  006cf	a5		 movsd

; 352  : 				}

  006d0	e9 e4 00 00 00	 jmp	 $LN12@Transform
$LN11@Transform:
; File D:\Metin2 Server Files\mainline\SRC_2014\Metin2Client\eterLib\Camera.h

; 171  : 		const D3DXVECTOR3 & GetView() const		{ return m_v3View; }

  006d5	8b 85 f0 fd ff
	ff		 mov	 eax, DWORD PTR _pCurrentCamera$12[ebp]
  006db	83 c0 54	 add	 eax, 84			; 00000054H
; File D:\Metin2 Server Files\mainline\SRC_2014\Metin2Client\EffectLib\ParticleInstance.cpp

; 355  : 					const D3DXVECTOR3 & c_rv3View = pCurrentCamera->GetView();

  006de	89 85 6c fc ff
	ff		 mov	 DWORD PTR _c_rv3View$1[ebp], eax

; 356  : 					D3DXMATRIX matRotation;
; 357  : 					
; 358  : 					D3DXMatrixRotationAxis(&matRotation, &c_rv3View, D3DXToRadian(m_fRotation));

  006e4	8b 85 14 fe ff
	ff		 mov	 eax, DWORD PTR _this$[ebp]
  006ea	f3 0f 10 40 40	 movss	 xmm0, DWORD PTR [eax+64]
  006ef	f3 0f 59 05 00
	00 00 00	 mulss	 xmm0, DWORD PTR __real@3c8efa35
  006f7	51		 push	 ecx
  006f8	f3 0f 11 04 24	 movss	 DWORD PTR [esp], xmm0
  006fd	ff b5 6c fc ff
	ff		 push	 DWORD PTR _c_rv3View$1[ebp]
  00703	8d 85 18 fe ff
	ff		 lea	 eax, DWORD PTR _matRotation$21[ebp]
  00709	50		 push	 eax
  0070a	e8 00 00 00 00	 call	 _D3DXMatrixRotationAxis@12
; File D:\Metin2 Server Files\mainline\SRC_2014\M2Data\include\d3dx8math.inl

; 249  :     return D3DXVECTOR3(-x, -y, -z);

  0070f	8b 85 0c fe ff
	ff		 mov	 eax, DWORD PTR _c_rv3Cross$19[ebp]
  00715	f3 0f 10 00	 movss	 xmm0, DWORD PTR [eax]
  00719	0f 57 05 00 00
	00 00		 xorps	 xmm0, DWORD PTR __xmm@80000000800000008000000080000000
  00720	f3 0f 11 85 70
	fc ff ff	 movss	 DWORD PTR _fx$[ebp], xmm0
  00728	8b 85 0c fe ff
	ff		 mov	 eax, DWORD PTR _c_rv3Cross$19[ebp]
  0072e	f3 0f 10 40 04	 movss	 xmm0, DWORD PTR [eax+4]
  00733	0f 57 05 00 00
	00 00		 xorps	 xmm0, DWORD PTR __xmm@80000000800000008000000080000000
  0073a	f3 0f 11 85 74
	fc ff ff	 movss	 DWORD PTR _fy$[ebp], xmm0
  00742	8b 85 0c fe ff
	ff		 mov	 eax, DWORD PTR _c_rv3Cross$19[ebp]
  00748	f3 0f 10 40 08	 movss	 xmm0, DWORD PTR [eax+8]
  0074d	0f 57 05 00 00
	00 00		 xorps	 xmm0, DWORD PTR __xmm@80000000800000008000000080000000
  00754	f3 0f 11 85 78
	fc ff ff	 movss	 DWORD PTR _fz$[ebp], xmm0

; 180  :     x = fx;

  0075c	f3 0f 10 85 70
	fc ff ff	 movss	 xmm0, DWORD PTR _fx$[ebp]
  00764	f3 0f 11 85 f4
	fe ff ff	 movss	 DWORD PTR $T35[ebp], xmm0

; 181  :     y = fy;

  0076c	f3 0f 10 85 74
	fc ff ff	 movss	 xmm0, DWORD PTR _fy$[ebp]
  00774	f3 0f 11 85 f8
	fe ff ff	 movss	 DWORD PTR $T35[ebp+4], xmm0

; 182  :     z = fz;

  0077c	f3 0f 10 85 78
	fc ff ff	 movss	 xmm0, DWORD PTR _fz$[ebp]
  00784	f3 0f 11 85 fc
	fe ff ff	 movss	 DWORD PTR $T35[ebp+8], xmm0
; File D:\Metin2 Server Files\mainline\SRC_2014\Metin2Client\EffectLib\ParticleInstance.cpp

; 359  : 					D3DXVec3TransformCoord(&v3Up, &(-c_rv3Cross), &matRotation);

  0078c	8d 85 18 fe ff
	ff		 lea	 eax, DWORD PTR _matRotation$21[ebp]
  00792	50		 push	 eax
  00793	8d 85 f4 fe ff
	ff		 lea	 eax, DWORD PTR $T35[ebp]
  00799	50		 push	 eax
  0079a	8d 45 f0	 lea	 eax, DWORD PTR _v3Up$[ebp]
  0079d	50		 push	 eax
  0079e	e8 00 00 00 00	 call	 _D3DXVec3TransformCoord@12

; 360  : 					D3DXVec3TransformCoord(&v3Cross, &c_rv3Up, &matRotation);

  007a3	8d 85 18 fe ff
	ff		 lea	 eax, DWORD PTR _matRotation$21[ebp]
  007a9	50		 push	 eax
  007aa	ff b5 b4 fd ff
	ff		 push	 DWORD PTR _c_rv3Up$7[ebp]
  007b0	8d 45 e4	 lea	 eax, DWORD PTR _v3Cross$[ebp]
  007b3	50		 push	 eax
  007b4	e8 00 00 00 00	 call	 _D3DXVec3TransformCoord@12
$LN12@Transform:
$LN2@Transform:

; 361  : 				}
; 362  : 			}
; 363  : 			break;
; 364  : 		}
; 365  : 	}

  007b9	e9 9f 02 00 00	 jmp	 $LN5@Transform
$LN4@Transform:

; 368  : 		v3Up = m_v3Position - m_v3LastPosition;

  007be	8b 85 14 fe ff
	ff		 mov	 eax, DWORD PTR _this$[ebp]
  007c4	83 c0 18	 add	 eax, 24			; 00000018H
  007c7	89 85 e0 fd ff
	ff		 mov	 DWORD PTR _v$[ebp], eax
  007cd	8b 85 14 fe ff
	ff		 mov	 eax, DWORD PTR _this$[ebp]
  007d3	83 c0 0c	 add	 eax, 12			; 0000000cH
  007d6	89 85 e4 fd ff
	ff		 mov	 DWORD PTR _this$[ebp], eax
; File D:\Metin2 Server Files\mainline\SRC_2014\M2Data\include\d3dx8math.inl

; 263  :     return D3DXVECTOR3(x - v.x, y - v.y, z - v.z);

  007dc	8b 85 e4 fd ff
	ff		 mov	 eax, DWORD PTR _this$[ebp]
  007e2	8b 8d e0 fd ff
	ff		 mov	 ecx, DWORD PTR _v$[ebp]
  007e8	f3 0f 10 00	 movss	 xmm0, DWORD PTR [eax]
  007ec	f3 0f 5c 01	 subss	 xmm0, DWORD PTR [ecx]
  007f0	f3 0f 11 85 7c
	fc ff ff	 movss	 DWORD PTR _fx$[ebp], xmm0
  007f8	8b 85 e4 fd ff
	ff		 mov	 eax, DWORD PTR _this$[ebp]
  007fe	8b 8d e0 fd ff
	ff		 mov	 ecx, DWORD PTR _v$[ebp]
  00804	f3 0f 10 40 04	 movss	 xmm0, DWORD PTR [eax+4]
  00809	f3 0f 5c 41 04	 subss	 xmm0, DWORD PTR [ecx+4]
  0080e	f3 0f 11 85 84
	fc ff ff	 movss	 DWORD PTR _fy$[ebp], xmm0
  00816	8b 85 e4 fd ff
	ff		 mov	 eax, DWORD PTR _this$[ebp]
  0081c	8b 8d e0 fd ff
	ff		 mov	 ecx, DWORD PTR _v$[ebp]
  00822	f3 0f 10 40 08	 movss	 xmm0, DWORD PTR [eax+8]
  00827	f3 0f 5c 41 08	 subss	 xmm0, DWORD PTR [ecx+8]
  0082c	f3 0f 11 85 88
	fc ff ff	 movss	 DWORD PTR _fz$[ebp], xmm0

; 180  :     x = fx;

  00834	f3 0f 10 85 7c
	fc ff ff	 movss	 xmm0, DWORD PTR _fx$[ebp]
  0083c	f3 0f 11 85 00
	ff ff ff	 movss	 DWORD PTR $T36[ebp], xmm0

; 181  :     y = fy;

  00844	f3 0f 10 85 84
	fc ff ff	 movss	 xmm0, DWORD PTR _fy$[ebp]
  0084c	f3 0f 11 85 04
	ff ff ff	 movss	 DWORD PTR $T36[ebp+4], xmm0

; 182  :     z = fz;

  00854	f3 0f 10 85 88
	fc ff ff	 movss	 xmm0, DWORD PTR _fz$[ebp]
  0085c	f3 0f 11 85 08
	ff ff ff	 movss	 DWORD PTR $T36[ebp+8], xmm0
; File D:\Metin2 Server Files\mainline\SRC_2014\Metin2Client\EffectLib\ParticleInstance.cpp

; 368  : 		v3Up = m_v3Position - m_v3LastPosition;

  00864	8d b5 00 ff ff
	ff		 lea	 esi, DWORD PTR $T36[ebp]
  0086a	8d 7d f0	 lea	 edi, DWORD PTR _v3Up$[ebp]
  0086d	a5		 movsd
  0086e	a5		 movsd
  0086f	a5		 movsd

; 369  : 
; 370  : 		if (c_matLocal)

  00870	83 7d 08 00	 cmp	 DWORD PTR _c_matLocal$[ebp], 0
  00874	74 10		 je	 SHORT $LN13@Transform

; 371  : 		{
; 372  : 			//if (!m_pParticleProperty->m_bAttachFlag)
; 373  : 				D3DXVec3TransformNormal(&v3Up, &v3Up, c_matLocal);

  00876	ff 75 08	 push	 DWORD PTR _c_matLocal$[ebp]
  00879	8d 45 f0	 lea	 eax, DWORD PTR _v3Up$[ebp]
  0087c	50		 push	 eax
  0087d	8d 45 f0	 lea	 eax, DWORD PTR _v3Up$[ebp]
  00880	50		 push	 eax
  00881	e8 00 00 00 00	 call	 _D3DXVec3TransformNormal@12
$LN13@Transform:
; File D:\Metin2 Server Files\mainline\SRC_2014\M2Data\include\d3dx8math.inl

; 1239 :     return sqrtf(pV->x * pV->x + pV->y * pV->y + pV->z * pV->z);

  00886	f3 0f 10 45 f8	 movss	 xmm0, DWORD PTR _v3Up$[ebp+8]
  0088b	f3 0f 59 45 f8	 mulss	 xmm0, DWORD PTR _v3Up$[ebp+8]
  00890	f3 0f 10 4d f4	 movss	 xmm1, DWORD PTR _v3Up$[ebp+4]
  00895	f3 0f 59 4d f4	 mulss	 xmm1, DWORD PTR _v3Up$[ebp+4]
  0089a	f3 0f 10 55 f0	 movss	 xmm2, DWORD PTR _v3Up$[ebp]
  0089f	f3 0f 59 55 f0	 mulss	 xmm2, DWORD PTR _v3Up$[ebp]
  008a4	f3 0f 58 d1	 addss	 xmm2, xmm1
  008a8	f3 0f 58 d0	 addss	 xmm2, xmm0
  008ac	f3 0f 11 95 8c
	fc ff ff	 movss	 DWORD PTR __X$[ebp], xmm2
; File C:\Program Files (x86)\Windows Kits\10\Include\10.0.18362.0\ucrt\corecrt_math.h

; 760  :             return (float)sqrt(_X);

  008b4	f3 0f 5a 85 8c
	fc ff ff	 cvtss2sd xmm0, DWORD PTR __X$[ebp]
  008bc	51		 push	 ecx
  008bd	51		 push	 ecx
  008be	f2 0f 11 04 24	 movsd	 QWORD PTR [esp], xmm0
  008c3	e8 00 00 00 00	 call	 _sqrt
  008c8	59		 pop	 ecx
  008c9	59		 pop	 ecx
; File D:\Metin2 Server Files\mainline\SRC_2014\Metin2Client\EffectLib\ParticleInstance.cpp

; 377  : 		float length = D3DXVec3Length(&v3Up);

  008ca	d9 9d dc fd ff
	ff		 fstp	 DWORD PTR _length$10[ebp]

; 378  : 		if (length == 0.0f)

  008d0	f3 0f 10 85 dc
	fd ff ff	 movss	 xmm0, DWORD PTR _length$10[ebp]
  008d8	0f 2e 05 00 00
	00 00		 ucomiss xmm0, DWORD PTR __real@00000000
  008df	9f		 lahf
  008e0	f6 c4 44	 test	 ah, 68			; 00000044H
  008e3	7a 34		 jp	 SHORT $LN14@Transform
; File D:\Metin2 Server Files\mainline\SRC_2014\M2Data\include\d3dx8math.inl

; 180  :     x = fx;

  008e5	0f 57 c0	 xorps	 xmm0, xmm0
  008e8	f3 0f 11 85 d0
	fe ff ff	 movss	 DWORD PTR $T32[ebp], xmm0

; 181  :     y = fy;

  008f0	0f 57 c0	 xorps	 xmm0, xmm0
  008f3	f3 0f 11 85 d4
	fe ff ff	 movss	 DWORD PTR $T32[ebp+4], xmm0

; 182  :     z = fz;

  008fb	f3 0f 10 05 00
	00 00 00	 movss	 xmm0, DWORD PTR __real@3f800000
  00903	f3 0f 11 85 d8
	fe ff ff	 movss	 DWORD PTR $T32[ebp+8], xmm0
; File D:\Metin2 Server Files\mainline\SRC_2014\Metin2Client\EffectLib\ParticleInstance.cpp

; 380  : 			v3Up = D3DXVECTOR3(0.0f,0.0f,1.0f);

  0090b	8d b5 d0 fe ff
	ff		 lea	 esi, DWORD PTR $T32[ebp]
  00911	8d 7d f0	 lea	 edi, DWORD PTR _v3Up$[ebp]
  00914	a5		 movsd
  00915	a5		 movsd
  00916	a5		 movsd

; 381  : 		}

  00917	eb 7e		 jmp	 SHORT $LN107@Transform
$LN14@Transform:

; 383  : 			v3Up *=(1+log(1+length))/length;

  00919	f3 0f 10 05 00
	00 00 00	 movss	 xmm0, DWORD PTR __real@3f800000
  00921	f3 0f 58 85 dc
	fd ff ff	 addss	 xmm0, DWORD PTR _length$10[ebp]
; File C:\Program Files (x86)\Windows Kits\10\Include\10.0.18362.0\ucrt\corecrt_math.h

; 732  :             return (float)log(_X);

  00929	f3 0f 5a c0	 cvtss2sd xmm0, xmm0
  0092d	51		 push	 ecx
  0092e	51		 push	 ecx
  0092f	f2 0f 11 04 24	 movsd	 QWORD PTR [esp], xmm0
  00934	e8 00 00 00 00	 call	 _log
  00939	59		 pop	 ecx
  0093a	59		 pop	 ecx
; File C:\Program Files (x86)\Microsoft Visual Studio\2019\Community\VC\Tools\MSVC\14.28.29333\include\cmath

; 151  :     return _CSTD logf(_Xx);

  0093b	d9 9d 90 fc ff
	ff		 fstp	 DWORD PTR $T2[ebp]
; File D:\Metin2 Server Files\mainline\SRC_2014\Metin2Client\EffectLib\ParticleInstance.cpp

; 383  : 			v3Up *=(1+log(1+length))/length;

  00941	f3 0f 10 05 00
	00 00 00	 movss	 xmm0, DWORD PTR __real@3f800000
  00949	f3 0f 58 85 90
	fc ff ff	 addss	 xmm0, DWORD PTR $T2[ebp]
  00951	f3 0f 5e 85 dc
	fd ff ff	 divss	 xmm0, DWORD PTR _length$10[ebp]
  00959	f3 0f 11 85 d8
	fd ff ff	 movss	 DWORD PTR _f$[ebp], xmm0
; File D:\Metin2 Server Files\mainline\SRC_2014\M2Data\include\d3dx8math.inl

; 222  :     x *= f;

  00961	f3 0f 10 45 f0	 movss	 xmm0, DWORD PTR _v3Up$[ebp]
  00966	f3 0f 59 85 d8
	fd ff ff	 mulss	 xmm0, DWORD PTR _f$[ebp]
  0096e	f3 0f 11 45 f0	 movss	 DWORD PTR _v3Up$[ebp], xmm0

; 223  :     y *= f;

  00973	f3 0f 10 45 f4	 movss	 xmm0, DWORD PTR _v3Up$[ebp+4]
  00978	f3 0f 59 85 d8
	fd ff ff	 mulss	 xmm0, DWORD PTR _f$[ebp]
  00980	f3 0f 11 45 f4	 movss	 DWORD PTR _v3Up$[ebp+4], xmm0

; 224  :     z *= f;

  00985	f3 0f 10 45 f8	 movss	 xmm0, DWORD PTR _v3Up$[ebp+8]
  0098a	f3 0f 59 85 d8
	fd ff ff	 mulss	 xmm0, DWORD PTR _f$[ebp]
  00992	f3 0f 11 45 f8	 movss	 DWORD PTR _v3Up$[ebp+8], xmm0
$LN107@Transform:
; File D:\Metin2 Server Files\mainline\SRC_2014\Metin2Client\eterBase\Singleton.h

; 27   : 		return (*ms_singleton);

  00997	a1 00 00 00 00	 mov	 eax, DWORD PTR ?ms_singleton@?$CSingleton@VCCameraManager@@@@0PAVCCameraManager@@A ; CSingleton<CCameraManager>::ms_singleton
  0099c	89 85 94 fc ff
	ff		 mov	 DWORD PTR $T3[ebp], eax
; File D:\Metin2 Server Files\mainline\SRC_2014\Metin2Client\EffectLib\ParticleInstance.cpp

; 387  : 		CCamera * pCurrentCamera = CCameraManager::Instance().GetCurrentCamera();

  009a2	8b 8d 94 fc ff
	ff		 mov	 ecx, DWORD PTR $T3[ebp]
  009a8	e8 00 00 00 00	 call	 ?GetCurrentCamera@CCameraManager@@QAEPAVCCamera@@XZ ; CCameraManager::GetCurrentCamera
  009ad	89 85 98 fc ff
	ff		 mov	 DWORD PTR _pCurrentCamera$4[ebp], eax
; File D:\Metin2 Server Files\mainline\SRC_2014\Metin2Client\eterLib\Camera.h

; 171  : 		const D3DXVECTOR3 & GetView() const		{ return m_v3View; }

  009b3	8b 85 98 fc ff
	ff		 mov	 eax, DWORD PTR _pCurrentCamera$4[ebp]
  009b9	83 c0 54	 add	 eax, 84			; 00000054H
; File D:\Metin2 Server Files\mainline\SRC_2014\Metin2Client\EffectLib\ParticleInstance.cpp

; 388  : 		const D3DXVECTOR3 & c_rv3View = pCurrentCamera->GetView();

  009bc	89 85 10 fe ff
	ff		 mov	 DWORD PTR _c_rv3View$20[ebp], eax
; File D:\Metin2 Server Files\mainline\SRC_2014\M2Data\include\d3dx8math.inl

; 1277 :     v.x = pV1->y * pV2->z - pV1->z * pV2->y;

  009c2	8b 85 10 fe ff
	ff		 mov	 eax, DWORD PTR _c_rv3View$20[ebp]
  009c8	f3 0f 10 45 f4	 movss	 xmm0, DWORD PTR _v3Up$[ebp+4]
  009cd	f3 0f 59 40 08	 mulss	 xmm0, DWORD PTR [eax+8]
  009d2	8b 85 10 fe ff
	ff		 mov	 eax, DWORD PTR _c_rv3View$20[ebp]
  009d8	f3 0f 10 4d f8	 movss	 xmm1, DWORD PTR _v3Up$[ebp+8]
  009dd	f3 0f 59 48 04	 mulss	 xmm1, DWORD PTR [eax+4]
  009e2	f3 0f 5c c1	 subss	 xmm0, xmm1
  009e6	f3 0f 11 85 0c
	ff ff ff	 movss	 DWORD PTR _v$37[ebp], xmm0

; 1278 :     v.y = pV1->z * pV2->x - pV1->x * pV2->z;

  009ee	8b 85 10 fe ff
	ff		 mov	 eax, DWORD PTR _c_rv3View$20[ebp]
  009f4	f3 0f 10 45 f8	 movss	 xmm0, DWORD PTR _v3Up$[ebp+8]
  009f9	f3 0f 59 00	 mulss	 xmm0, DWORD PTR [eax]
  009fd	8b 85 10 fe ff
	ff		 mov	 eax, DWORD PTR _c_rv3View$20[ebp]
  00a03	f3 0f 10 4d f0	 movss	 xmm1, DWORD PTR _v3Up$[ebp]
  00a08	f3 0f 59 48 08	 mulss	 xmm1, DWORD PTR [eax+8]
  00a0d	f3 0f 5c c1	 subss	 xmm0, xmm1
  00a11	f3 0f 11 85 10
	ff ff ff	 movss	 DWORD PTR _v$37[ebp+4], xmm0

; 1279 :     v.z = pV1->x * pV2->y - pV1->y * pV2->x;

  00a19	8b 85 10 fe ff
	ff		 mov	 eax, DWORD PTR _c_rv3View$20[ebp]
  00a1f	f3 0f 10 45 f0	 movss	 xmm0, DWORD PTR _v3Up$[ebp]
  00a24	f3 0f 59 40 04	 mulss	 xmm0, DWORD PTR [eax+4]
  00a29	8b 85 10 fe ff
	ff		 mov	 eax, DWORD PTR _c_rv3View$20[ebp]
  00a2f	f3 0f 10 4d f4	 movss	 xmm1, DWORD PTR _v3Up$[ebp+4]
  00a34	f3 0f 59 08	 mulss	 xmm1, DWORD PTR [eax]
  00a38	f3 0f 5c c1	 subss	 xmm0, xmm1
  00a3c	f3 0f 11 85 14
	ff ff ff	 movss	 DWORD PTR _v$37[ebp+8], xmm0

; 1280 : 
; 1281 :     *pOut = v;

  00a44	8d b5 0c ff ff
	ff		 lea	 esi, DWORD PTR _v$37[ebp]
  00a4a	8d 7d e4	 lea	 edi, DWORD PTR _v3Cross$[ebp]
  00a4d	a5		 movsd
  00a4e	a5		 movsd
  00a4f	a5		 movsd
; File D:\Metin2 Server Files\mainline\SRC_2014\Metin2Client\EffectLib\ParticleInstance.cpp

; 390  : 		D3DXVec3Normalize(&v3Cross, &v3Cross);

  00a50	8d 45 e4	 lea	 eax, DWORD PTR _v3Cross$[ebp]
  00a53	50		 push	 eax
  00a54	8d 45 e4	 lea	 eax, DWORD PTR _v3Cross$[ebp]
  00a57	50		 push	 eax
  00a58	e8 00 00 00 00	 call	 _D3DXVec3Normalize@8
$LN5@Transform:

; 391  : 
; 392  : 	}
; 393  : 
; 394  : 	if (c_fZRotation)

  00a5d	f3 0f 10 45 0c	 movss	 xmm0, DWORD PTR _c_fZRotation$[ebp]
  00a62	0f 2e 05 00 00
	00 00		 ucomiss xmm0, DWORD PTR __real@00000000
  00a69	9f		 lahf
  00a6a	f6 c4 44	 test	 ah, 68			; 00000044H
  00a6d	0f 8b 0a 01 00
	00		 jnp	 $LN16@Transform
; File C:\Program Files (x86)\Windows Kits\10\Include\10.0.18362.0\ucrt\corecrt_math.h

; 649  :             return (float)cos(_X);

  00a73	f3 0f 5a 45 0c	 cvtss2sd xmm0, DWORD PTR _c_fZRotation$[ebp]
  00a78	51		 push	 ecx
  00a79	51		 push	 ecx
  00a7a	f2 0f 11 04 24	 movsd	 QWORD PTR [esp], xmm0
  00a7f	e8 00 00 00 00	 call	 _cos
  00a84	59		 pop	 ecx
  00a85	59		 pop	 ecx
; File D:\Metin2 Server Files\mainline\SRC_2014\Metin2Client\EffectLib\ParticleInstance.cpp

; 397  : 		float fCos = cosf(c_fZRotation);

  00a86	d9 9d f4 fd ff
	ff		 fstp	 DWORD PTR _fCos$13[ebp]
; File C:\Program Files (x86)\Windows Kits\10\Include\10.0.18362.0\ucrt\corecrt_math.h

; 750  :             return (float)sin(_X);

  00a8c	f3 0f 5a 45 0c	 cvtss2sd xmm0, DWORD PTR _c_fZRotation$[ebp]
  00a91	51		 push	 ecx
  00a92	51		 push	 ecx
  00a93	f2 0f 11 04 24	 movsd	 QWORD PTR [esp], xmm0
  00a98	e8 00 00 00 00	 call	 _sin
  00a9d	59		 pop	 ecx
  00a9e	59		 pop	 ecx
; File D:\Metin2 Server Files\mainline\SRC_2014\Metin2Client\EffectLib\ParticleInstance.cpp

; 398  : 		float fSin = sinf(c_fZRotation);

  00a9f	d9 9d f8 fd ff
	ff		 fstp	 DWORD PTR _fSin$14[ebp]

; 399  : 
; 400  : 		x = v3Up.x;

  00aa5	f3 0f 10 45 f0	 movss	 xmm0, DWORD PTR _v3Up$[ebp]
  00aaa	f3 0f 11 85 00
	fe ff ff	 movss	 DWORD PTR _x$16[ebp], xmm0

; 401  : 		y = v3Up.y;

  00ab2	f3 0f 10 45 f4	 movss	 xmm0, DWORD PTR _v3Up$[ebp+4]
  00ab7	f3 0f 11 85 fc
	fd ff ff	 movss	 DWORD PTR _y$15[ebp], xmm0

; 402  : 		v3Up.x = x * fCos - y * fSin;

  00abf	f3 0f 10 85 00
	fe ff ff	 movss	 xmm0, DWORD PTR _x$16[ebp]
  00ac7	f3 0f 59 85 f4
	fd ff ff	 mulss	 xmm0, DWORD PTR _fCos$13[ebp]
  00acf	f3 0f 10 8d fc
	fd ff ff	 movss	 xmm1, DWORD PTR _y$15[ebp]
  00ad7	f3 0f 59 8d f8
	fd ff ff	 mulss	 xmm1, DWORD PTR _fSin$14[ebp]
  00adf	f3 0f 5c c1	 subss	 xmm0, xmm1
  00ae3	f3 0f 11 45 f0	 movss	 DWORD PTR _v3Up$[ebp], xmm0

; 403  : 		v3Up.y = y * fCos + x * fSin;

  00ae8	f3 0f 10 85 fc
	fd ff ff	 movss	 xmm0, DWORD PTR _y$15[ebp]
  00af0	f3 0f 59 85 f4
	fd ff ff	 mulss	 xmm0, DWORD PTR _fCos$13[ebp]
  00af8	f3 0f 10 8d 00
	fe ff ff	 movss	 xmm1, DWORD PTR _x$16[ebp]
  00b00	f3 0f 59 8d f8
	fd ff ff	 mulss	 xmm1, DWORD PTR _fSin$14[ebp]
  00b08	f3 0f 58 c1	 addss	 xmm0, xmm1
  00b0c	f3 0f 11 45 f4	 movss	 DWORD PTR _v3Up$[ebp+4], xmm0

; 404  : 
; 405  : 		x = v3Cross.x;

  00b11	f3 0f 10 45 e4	 movss	 xmm0, DWORD PTR _v3Cross$[ebp]
  00b16	f3 0f 11 85 00
	fe ff ff	 movss	 DWORD PTR _x$16[ebp], xmm0

; 406  : 		y = v3Cross.y;

  00b1e	f3 0f 10 45 e8	 movss	 xmm0, DWORD PTR _v3Cross$[ebp+4]
  00b23	f3 0f 11 85 fc
	fd ff ff	 movss	 DWORD PTR _y$15[ebp], xmm0

; 407  : 		v3Cross.x = x * fCos - y * fSin;

  00b2b	f3 0f 10 85 00
	fe ff ff	 movss	 xmm0, DWORD PTR _x$16[ebp]
  00b33	f3 0f 59 85 f4
	fd ff ff	 mulss	 xmm0, DWORD PTR _fCos$13[ebp]
  00b3b	f3 0f 10 8d fc
	fd ff ff	 movss	 xmm1, DWORD PTR _y$15[ebp]
  00b43	f3 0f 59 8d f8
	fd ff ff	 mulss	 xmm1, DWORD PTR _fSin$14[ebp]
  00b4b	f3 0f 5c c1	 subss	 xmm0, xmm1
  00b4f	f3 0f 11 45 e4	 movss	 DWORD PTR _v3Cross$[ebp], xmm0

; 408  : 		v3Cross.y = y * fCos + x * fSin;

  00b54	f3 0f 10 85 fc
	fd ff ff	 movss	 xmm0, DWORD PTR _y$15[ebp]
  00b5c	f3 0f 59 85 f4
	fd ff ff	 mulss	 xmm0, DWORD PTR _fCos$13[ebp]
  00b64	f3 0f 10 8d 00
	fe ff ff	 movss	 xmm1, DWORD PTR _x$16[ebp]
  00b6c	f3 0f 59 8d f8
	fd ff ff	 mulss	 xmm1, DWORD PTR _fSin$14[ebp]
  00b74	f3 0f 58 c1	 addss	 xmm0, xmm1
  00b78	f3 0f 11 45 e8	 movss	 DWORD PTR _v3Cross$[ebp+4], xmm0
$LN16@Transform:

; 411  : 	v3Cross = -(m_v2HalfSize.x*m_v2Scale.x) * v3Cross;

  00b7d	8b 85 14 fe ff
	ff		 mov	 eax, DWORD PTR _this$[ebp]
  00b83	8b 8d 14 fe ff
	ff		 mov	 ecx, DWORD PTR _this$[ebp]
  00b89	f3 0f 10 40 30	 movss	 xmm0, DWORD PTR [eax+48]
  00b8e	f3 0f 59 41 38	 mulss	 xmm0, DWORD PTR [ecx+56]
  00b93	0f 57 05 00 00
	00 00		 xorps	 xmm0, DWORD PTR __xmm@80000000800000008000000080000000
  00b9a	f3 0f 11 85 d4
	fd ff ff	 movss	 DWORD PTR _f$[ebp], xmm0
; File D:\Metin2 Server Files\mainline\SRC_2014\M2Data\include\d3dx8math.inl

; 283  :     return D3DXVECTOR3(f * v.x, f * v.y, f * v.z);

  00ba2	f3 0f 10 85 d4
	fd ff ff	 movss	 xmm0, DWORD PTR _f$[ebp]
  00baa	f3 0f 59 45 e4	 mulss	 xmm0, DWORD PTR _v3Cross$[ebp]
  00baf	f3 0f 11 85 9c
	fc ff ff	 movss	 DWORD PTR _fx$[ebp], xmm0
  00bb7	f3 0f 10 85 d4
	fd ff ff	 movss	 xmm0, DWORD PTR _f$[ebp]
  00bbf	f3 0f 59 45 e8	 mulss	 xmm0, DWORD PTR _v3Cross$[ebp+4]
  00bc4	f3 0f 11 85 a0
	fc ff ff	 movss	 DWORD PTR _fy$[ebp], xmm0
  00bcc	f3 0f 10 85 d4
	fd ff ff	 movss	 xmm0, DWORD PTR _f$[ebp]
  00bd4	f3 0f 59 45 ec	 mulss	 xmm0, DWORD PTR _v3Cross$[ebp+8]
  00bd9	f3 0f 11 85 a4
	fc ff ff	 movss	 DWORD PTR _fz$[ebp], xmm0

; 180  :     x = fx;

  00be1	f3 0f 10 85 9c
	fc ff ff	 movss	 xmm0, DWORD PTR _fx$[ebp]
  00be9	f3 0f 11 85 18
	ff ff ff	 movss	 DWORD PTR $T38[ebp], xmm0

; 181  :     y = fy;

  00bf1	f3 0f 10 85 a0
	fc ff ff	 movss	 xmm0, DWORD PTR _fy$[ebp]
  00bf9	f3 0f 11 85 1c
	ff ff ff	 movss	 DWORD PTR $T38[ebp+4], xmm0

; 182  :     z = fz;

  00c01	f3 0f 10 85 a4
	fc ff ff	 movss	 xmm0, DWORD PTR _fz$[ebp]
  00c09	f3 0f 11 85 20
	ff ff ff	 movss	 DWORD PTR $T38[ebp+8], xmm0
; File D:\Metin2 Server Files\mainline\SRC_2014\Metin2Client\EffectLib\ParticleInstance.cpp

; 411  : 	v3Cross = -(m_v2HalfSize.x*m_v2Scale.x) * v3Cross;

  00c11	8d b5 18 ff ff
	ff		 lea	 esi, DWORD PTR $T38[ebp]
  00c17	8d 7d e4	 lea	 edi, DWORD PTR _v3Cross$[ebp]
  00c1a	a5		 movsd
  00c1b	a5		 movsd
  00c1c	a5		 movsd

; 412  : 	v3Up = (m_v2HalfSize.y*m_v2Scale.y) * v3Up;

  00c1d	8b 85 14 fe ff
	ff		 mov	 eax, DWORD PTR _this$[ebp]
  00c23	8b 8d 14 fe ff
	ff		 mov	 ecx, DWORD PTR _this$[ebp]
  00c29	f3 0f 10 40 34	 movss	 xmm0, DWORD PTR [eax+52]
  00c2e	f3 0f 59 41 3c	 mulss	 xmm0, DWORD PTR [ecx+60]
  00c33	f3 0f 11 85 d0
	fd ff ff	 movss	 DWORD PTR _f$[ebp], xmm0
; File D:\Metin2 Server Files\mainline\SRC_2014\M2Data\include\d3dx8math.inl

; 283  :     return D3DXVECTOR3(f * v.x, f * v.y, f * v.z);

  00c3b	f3 0f 10 85 d0
	fd ff ff	 movss	 xmm0, DWORD PTR _f$[ebp]
  00c43	f3 0f 59 45 f0	 mulss	 xmm0, DWORD PTR _v3Up$[ebp]
  00c48	f3 0f 11 85 a8
	fc ff ff	 movss	 DWORD PTR _fx$[ebp], xmm0
  00c50	f3 0f 10 85 d0
	fd ff ff	 movss	 xmm0, DWORD PTR _f$[ebp]
  00c58	f3 0f 59 45 f4	 mulss	 xmm0, DWORD PTR _v3Up$[ebp+4]
  00c5d	f3 0f 11 85 ac
	fc ff ff	 movss	 DWORD PTR _fy$[ebp], xmm0
  00c65	f3 0f 10 85 d0
	fd ff ff	 movss	 xmm0, DWORD PTR _f$[ebp]
  00c6d	f3 0f 59 45 f8	 mulss	 xmm0, DWORD PTR _v3Up$[ebp+8]
  00c72	f3 0f 11 85 b0
	fc ff ff	 movss	 DWORD PTR _fz$[ebp], xmm0

; 180  :     x = fx;

  00c7a	f3 0f 10 85 a8
	fc ff ff	 movss	 xmm0, DWORD PTR _fx$[ebp]
  00c82	f3 0f 11 85 24
	ff ff ff	 movss	 DWORD PTR $T39[ebp], xmm0

; 181  :     y = fy;

  00c8a	f3 0f 10 85 ac
	fc ff ff	 movss	 xmm0, DWORD PTR _fy$[ebp]
  00c92	f3 0f 11 85 28
	ff ff ff	 movss	 DWORD PTR $T39[ebp+4], xmm0

; 182  :     z = fz;

  00c9a	f3 0f 10 85 b0
	fc ff ff	 movss	 xmm0, DWORD PTR _fz$[ebp]
  00ca2	f3 0f 11 85 2c
	ff ff ff	 movss	 DWORD PTR $T39[ebp+8], xmm0
; File D:\Metin2 Server Files\mainline\SRC_2014\Metin2Client\EffectLib\ParticleInstance.cpp

; 412  : 	v3Up = (m_v2HalfSize.y*m_v2Scale.y) * v3Up;

  00caa	8d b5 24 ff ff
	ff		 lea	 esi, DWORD PTR $T39[ebp]
  00cb0	8d 7d f0	 lea	 edi, DWORD PTR _v3Up$[ebp]
  00cb3	a5		 movsd
  00cb4	a5		 movsd
  00cb5	a5		 movsd

; 413  : 
; 414  : 	if (c_matLocal && m_pParticleProperty->m_bAttachFlag)

  00cb6	83 7d 08 00	 cmp	 DWORD PTR _c_matLocal$[ebp], 0
  00cba	0f 84 bb 03 00
	00		 je	 $LN17@Transform
  00cc0	8b 85 14 fe ff
	ff		 mov	 eax, DWORD PTR _this$[ebp]
  00cc6	8b 40 5c	 mov	 eax, DWORD PTR [eax+92]
  00cc9	83 78 20 00	 cmp	 DWORD PTR [eax+32], 0
  00ccd	0f 84 a8 03 00
	00		 je	 $LN17@Transform

; 415  : 	{
; 416  : 		D3DXVECTOR3 v3Position;
; 417  : 		D3DXVec3TransformCoord(&v3Position, &m_v3Position, c_matLocal);

  00cd3	ff 75 08	 push	 DWORD PTR _c_matLocal$[ebp]
  00cd6	8b 85 14 fe ff
	ff		 mov	 eax, DWORD PTR _this$[ebp]
  00cdc	83 c0 0c	 add	 eax, 12			; 0000000cH
  00cdf	50		 push	 eax
  00ce0	8d 45 d8	 lea	 eax, DWORD PTR _v3Position$54[ebp]
  00ce3	50		 push	 eax
  00ce4	e8 00 00 00 00	 call	 _D3DXVec3TransformCoord@12
; File D:\Metin2 Server Files\mainline\SRC_2014\M2Data\include\d3dx8math.inl

; 263  :     return D3DXVECTOR3(x - v.x, y - v.y, z - v.z);

  00ce9	f3 0f 10 45 d8	 movss	 xmm0, DWORD PTR _v3Position$54[ebp]
  00cee	f3 0f 5c 45 f0	 subss	 xmm0, DWORD PTR _v3Up$[ebp]
  00cf3	f3 0f 11 85 b4
	fc ff ff	 movss	 DWORD PTR _fx$[ebp], xmm0
  00cfb	f3 0f 10 45 dc	 movss	 xmm0, DWORD PTR _v3Position$54[ebp+4]
  00d00	f3 0f 5c 45 f4	 subss	 xmm0, DWORD PTR _v3Up$[ebp+4]
  00d05	f3 0f 11 85 b8
	fc ff ff	 movss	 DWORD PTR _fy$[ebp], xmm0
  00d0d	f3 0f 10 45 e0	 movss	 xmm0, DWORD PTR _v3Position$54[ebp+8]
  00d12	f3 0f 5c 45 f8	 subss	 xmm0, DWORD PTR _v3Up$[ebp+8]
  00d17	f3 0f 11 85 bc
	fc ff ff	 movss	 DWORD PTR _fz$[ebp], xmm0

; 180  :     x = fx;

  00d1f	f3 0f 10 85 b4
	fc ff ff	 movss	 xmm0, DWORD PTR _fx$[ebp]
  00d27	f3 0f 11 45 84	 movss	 DWORD PTR $T47[ebp], xmm0

; 181  :     y = fy;

  00d2c	f3 0f 10 85 b8
	fc ff ff	 movss	 xmm0, DWORD PTR _fy$[ebp]
  00d34	f3 0f 11 45 88	 movss	 DWORD PTR $T47[ebp+4], xmm0

; 182  :     z = fz;

  00d39	f3 0f 10 85 bc
	fc ff ff	 movss	 xmm0, DWORD PTR _fz$[ebp]
  00d41	f3 0f 11 45 8c	 movss	 DWORD PTR $T47[ebp+8], xmm0

; 257  :     return D3DXVECTOR3(x + v.x, y + v.y, z + v.z);

  00d46	f3 0f 10 45 84	 movss	 xmm0, DWORD PTR $T47[ebp]
  00d4b	f3 0f 58 45 e4	 addss	 xmm0, DWORD PTR _v3Cross$[ebp]
  00d50	f3 0f 11 85 c0
	fc ff ff	 movss	 DWORD PTR _fx$[ebp], xmm0
  00d58	f3 0f 10 45 88	 movss	 xmm0, DWORD PTR $T47[ebp+4]
  00d5d	f3 0f 58 45 e8	 addss	 xmm0, DWORD PTR _v3Cross$[ebp+4]
  00d62	f3 0f 11 85 cc
	fc ff ff	 movss	 DWORD PTR _fy$[ebp], xmm0
  00d6a	f3 0f 10 45 8c	 movss	 xmm0, DWORD PTR $T47[ebp+8]
  00d6f	f3 0f 58 45 ec	 addss	 xmm0, DWORD PTR _v3Cross$[ebp+8]
  00d74	f3 0f 11 85 80
	fc ff ff	 movss	 DWORD PTR _fz$[ebp], xmm0

; 180  :     x = fx;

  00d7c	f3 0f 10 85 c0
	fc ff ff	 movss	 xmm0, DWORD PTR _fx$[ebp]
  00d84	f3 0f 11 85 30
	ff ff ff	 movss	 DWORD PTR $T40[ebp], xmm0

; 181  :     y = fy;

  00d8c	f3 0f 10 85 cc
	fc ff ff	 movss	 xmm0, DWORD PTR _fy$[ebp]
  00d94	f3 0f 11 85 34
	ff ff ff	 movss	 DWORD PTR $T40[ebp+4], xmm0

; 182  :     z = fz;

  00d9c	f3 0f 10 85 80
	fc ff ff	 movss	 xmm0, DWORD PTR _fz$[ebp]
  00da4	f3 0f 11 85 38
	ff ff ff	 movss	 DWORD PTR $T40[ebp+8], xmm0
; File D:\Metin2 Server Files\mainline\SRC_2014\Metin2Client\EffectLib\ParticleInstance.cpp

; 418  : 		m_ParticleMesh[0].position = v3Position - v3Up + v3Cross;

  00dac	6a 14		 push	 20			; 00000014H
  00dae	58		 pop	 eax
  00daf	6b c0 00	 imul	 eax, eax, 0
  00db2	8b 8d 14 fe ff
	ff		 mov	 ecx, DWORD PTR _this$[ebp]
  00db8	8d 7c 01 74	 lea	 edi, DWORD PTR [ecx+eax+116]
  00dbc	8d b5 30 ff ff
	ff		 lea	 esi, DWORD PTR $T40[ebp]
  00dc2	a5		 movsd
  00dc3	a5		 movsd
  00dc4	a5		 movsd
; File D:\Metin2 Server Files\mainline\SRC_2014\M2Data\include\d3dx8math.inl

; 263  :     return D3DXVECTOR3(x - v.x, y - v.y, z - v.z);

  00dc5	f3 0f 10 45 d8	 movss	 xmm0, DWORD PTR _v3Position$54[ebp]
  00dca	f3 0f 5c 45 f0	 subss	 xmm0, DWORD PTR _v3Up$[ebp]
  00dcf	f3 0f 11 85 68
	fd ff ff	 movss	 DWORD PTR _fx$[ebp], xmm0
  00dd7	f3 0f 10 45 dc	 movss	 xmm0, DWORD PTR _v3Position$54[ebp+4]
  00ddc	f3 0f 5c 45 f4	 subss	 xmm0, DWORD PTR _v3Up$[ebp+4]
  00de1	f3 0f 11 85 64
	fd ff ff	 movss	 DWORD PTR _fy$[ebp], xmm0
  00de9	f3 0f 10 45 e0	 movss	 xmm0, DWORD PTR _v3Position$54[ebp+8]
  00dee	f3 0f 5c 45 f8	 subss	 xmm0, DWORD PTR _v3Up$[ebp+8]
  00df3	f3 0f 11 85 60
	fd ff ff	 movss	 DWORD PTR _fz$[ebp], xmm0

; 180  :     x = fx;

  00dfb	f3 0f 10 85 68
	fd ff ff	 movss	 xmm0, DWORD PTR _fx$[ebp]
  00e03	f3 0f 11 85 78
	ff ff ff	 movss	 DWORD PTR $T46[ebp], xmm0

; 181  :     y = fy;

  00e0b	f3 0f 10 85 64
	fd ff ff	 movss	 xmm0, DWORD PTR _fy$[ebp]
  00e13	f3 0f 11 85 7c
	ff ff ff	 movss	 DWORD PTR $T46[ebp+4], xmm0

; 182  :     z = fz;

  00e1b	f3 0f 10 85 60
	fd ff ff	 movss	 xmm0, DWORD PTR _fz$[ebp]
  00e23	f3 0f 11 45 80	 movss	 DWORD PTR $T46[ebp+8], xmm0

; 263  :     return D3DXVECTOR3(x - v.x, y - v.y, z - v.z);

  00e28	f3 0f 10 85 78
	ff ff ff	 movss	 xmm0, DWORD PTR $T46[ebp]
  00e30	f3 0f 5c 45 e4	 subss	 xmm0, DWORD PTR _v3Cross$[ebp]
  00e35	f3 0f 11 85 5c
	fd ff ff	 movss	 DWORD PTR _fx$[ebp], xmm0
  00e3d	f3 0f 10 85 7c
	ff ff ff	 movss	 xmm0, DWORD PTR $T46[ebp+4]
  00e45	f3 0f 5c 45 e8	 subss	 xmm0, DWORD PTR _v3Cross$[ebp+4]
  00e4a	f3 0f 11 85 58
	fd ff ff	 movss	 DWORD PTR _fy$[ebp], xmm0
  00e52	f3 0f 10 45 80	 movss	 xmm0, DWORD PTR $T46[ebp+8]
  00e57	f3 0f 5c 45 ec	 subss	 xmm0, DWORD PTR _v3Cross$[ebp+8]
  00e5c	f3 0f 11 85 54
	fd ff ff	 movss	 DWORD PTR _fz$[ebp], xmm0

; 180  :     x = fx;

  00e64	f3 0f 10 85 5c
	fd ff ff	 movss	 xmm0, DWORD PTR _fx$[ebp]
  00e6c	f3 0f 11 85 a0
	fe ff ff	 movss	 DWORD PTR $T28[ebp], xmm0

; 181  :     y = fy;

  00e74	f3 0f 10 85 58
	fd ff ff	 movss	 xmm0, DWORD PTR _fy$[ebp]
  00e7c	f3 0f 11 85 a4
	fe ff ff	 movss	 DWORD PTR $T28[ebp+4], xmm0

; 182  :     z = fz;

  00e84	f3 0f 10 85 54
	fd ff ff	 movss	 xmm0, DWORD PTR _fz$[ebp]
  00e8c	f3 0f 11 85 a8
	fe ff ff	 movss	 DWORD PTR $T28[ebp+8], xmm0
; File D:\Metin2 Server Files\mainline\SRC_2014\Metin2Client\EffectLib\ParticleInstance.cpp

; 419  : 		m_ParticleMesh[1].position = v3Position - v3Up - v3Cross;

  00e94	6a 14		 push	 20			; 00000014H
  00e96	58		 pop	 eax
  00e97	c1 e0 00	 shl	 eax, 0
  00e9a	8b 8d 14 fe ff
	ff		 mov	 ecx, DWORD PTR _this$[ebp]
  00ea0	8d 7c 01 74	 lea	 edi, DWORD PTR [ecx+eax+116]
  00ea4	8d b5 a0 fe ff
	ff		 lea	 esi, DWORD PTR $T28[ebp]
  00eaa	a5		 movsd
  00eab	a5		 movsd
  00eac	a5		 movsd
; File D:\Metin2 Server Files\mainline\SRC_2014\M2Data\include\d3dx8math.inl

; 257  :     return D3DXVECTOR3(x + v.x, y + v.y, z + v.z);

  00ead	f3 0f 10 45 d8	 movss	 xmm0, DWORD PTR _v3Position$54[ebp]
  00eb2	f3 0f 58 45 f0	 addss	 xmm0, DWORD PTR _v3Up$[ebp]
  00eb7	f3 0f 11 85 50
	fd ff ff	 movss	 DWORD PTR _fx$[ebp], xmm0
  00ebf	f3 0f 10 45 dc	 movss	 xmm0, DWORD PTR _v3Position$54[ebp+4]
  00ec4	f3 0f 58 45 f4	 addss	 xmm0, DWORD PTR _v3Up$[ebp+4]
  00ec9	f3 0f 11 85 4c
	fd ff ff	 movss	 DWORD PTR _fy$[ebp], xmm0
  00ed1	f3 0f 10 45 e0	 movss	 xmm0, DWORD PTR _v3Position$54[ebp+8]
  00ed6	f3 0f 58 45 f8	 addss	 xmm0, DWORD PTR _v3Up$[ebp+8]
  00edb	f3 0f 11 85 48
	fd ff ff	 movss	 DWORD PTR _fz$[ebp], xmm0

; 180  :     x = fx;

  00ee3	f3 0f 10 85 50
	fd ff ff	 movss	 xmm0, DWORD PTR _fx$[ebp]
  00eeb	f3 0f 11 85 6c
	ff ff ff	 movss	 DWORD PTR $T45[ebp], xmm0

; 181  :     y = fy;

  00ef3	f3 0f 10 85 4c
	fd ff ff	 movss	 xmm0, DWORD PTR _fy$[ebp]
  00efb	f3 0f 11 85 70
	ff ff ff	 movss	 DWORD PTR $T45[ebp+4], xmm0

; 182  :     z = fz;

  00f03	f3 0f 10 85 48
	fd ff ff	 movss	 xmm0, DWORD PTR _fz$[ebp]
  00f0b	f3 0f 11 85 74
	ff ff ff	 movss	 DWORD PTR $T45[ebp+8], xmm0

; 257  :     return D3DXVECTOR3(x + v.x, y + v.y, z + v.z);

  00f13	f3 0f 10 85 6c
	ff ff ff	 movss	 xmm0, DWORD PTR $T45[ebp]
  00f1b	f3 0f 58 45 e4	 addss	 xmm0, DWORD PTR _v3Cross$[ebp]
  00f20	f3 0f 11 85 44
	fd ff ff	 movss	 DWORD PTR _fx$[ebp], xmm0
  00f28	f3 0f 10 85 70
	ff ff ff	 movss	 xmm0, DWORD PTR $T45[ebp+4]
  00f30	f3 0f 58 45 e8	 addss	 xmm0, DWORD PTR _v3Cross$[ebp+4]
  00f35	f3 0f 11 85 40
	fd ff ff	 movss	 DWORD PTR _fy$[ebp], xmm0
  00f3d	f3 0f 10 85 74
	ff ff ff	 movss	 xmm0, DWORD PTR $T45[ebp+8]
  00f45	f3 0f 58 45 ec	 addss	 xmm0, DWORD PTR _v3Cross$[ebp+8]
  00f4a	f3 0f 11 85 3c
	fd ff ff	 movss	 DWORD PTR _fz$[ebp], xmm0

; 180  :     x = fx;

  00f52	f3 0f 10 85 44
	fd ff ff	 movss	 xmm0, DWORD PTR _fx$[ebp]
  00f5a	f3 0f 11 85 ac
	fe ff ff	 movss	 DWORD PTR $T29[ebp], xmm0

; 181  :     y = fy;

  00f62	f3 0f 10 85 40
	fd ff ff	 movss	 xmm0, DWORD PTR _fy$[ebp]
  00f6a	f3 0f 11 85 b0
	fe ff ff	 movss	 DWORD PTR $T29[ebp+4], xmm0

; 182  :     z = fz;

  00f72	f3 0f 10 85 3c
	fd ff ff	 movss	 xmm0, DWORD PTR _fz$[ebp]
  00f7a	f3 0f 11 85 b4
	fe ff ff	 movss	 DWORD PTR $T29[ebp+8], xmm0
; File D:\Metin2 Server Files\mainline\SRC_2014\Metin2Client\EffectLib\ParticleInstance.cpp

; 420  : 		m_ParticleMesh[2].position = v3Position + v3Up + v3Cross;

  00f82	6a 14		 push	 20			; 00000014H
  00f84	58		 pop	 eax
  00f85	d1 e0		 shl	 eax, 1
  00f87	8b 8d 14 fe ff
	ff		 mov	 ecx, DWORD PTR _this$[ebp]
  00f8d	8d 7c 01 74	 lea	 edi, DWORD PTR [ecx+eax+116]
  00f91	8d b5 ac fe ff
	ff		 lea	 esi, DWORD PTR $T29[ebp]
  00f97	a5		 movsd
  00f98	a5		 movsd
  00f99	a5		 movsd
; File D:\Metin2 Server Files\mainline\SRC_2014\M2Data\include\d3dx8math.inl

; 257  :     return D3DXVECTOR3(x + v.x, y + v.y, z + v.z);

  00f9a	f3 0f 10 45 d8	 movss	 xmm0, DWORD PTR _v3Position$54[ebp]
  00f9f	f3 0f 58 45 f0	 addss	 xmm0, DWORD PTR _v3Up$[ebp]
  00fa4	f3 0f 11 85 38
	fd ff ff	 movss	 DWORD PTR _fx$[ebp], xmm0
  00fac	f3 0f 10 45 dc	 movss	 xmm0, DWORD PTR _v3Position$54[ebp+4]
  00fb1	f3 0f 58 45 f4	 addss	 xmm0, DWORD PTR _v3Up$[ebp+4]
  00fb6	f3 0f 11 85 34
	fd ff ff	 movss	 DWORD PTR _fy$[ebp], xmm0
  00fbe	f3 0f 10 45 e0	 movss	 xmm0, DWORD PTR _v3Position$54[ebp+8]
  00fc3	f3 0f 58 45 f8	 addss	 xmm0, DWORD PTR _v3Up$[ebp+8]
  00fc8	f3 0f 11 85 30
	fd ff ff	 movss	 DWORD PTR _fz$[ebp], xmm0

; 180  :     x = fx;

  00fd0	f3 0f 10 85 38
	fd ff ff	 movss	 xmm0, DWORD PTR _fx$[ebp]
  00fd8	f3 0f 11 45 c0	 movss	 DWORD PTR $T52[ebp], xmm0

; 181  :     y = fy;

  00fdd	f3 0f 10 85 34
	fd ff ff	 movss	 xmm0, DWORD PTR _fy$[ebp]
  00fe5	f3 0f 11 45 c4	 movss	 DWORD PTR $T52[ebp+4], xmm0

; 182  :     z = fz;

  00fea	f3 0f 10 85 30
	fd ff ff	 movss	 xmm0, DWORD PTR _fz$[ebp]
  00ff2	f3 0f 11 45 c8	 movss	 DWORD PTR $T52[ebp+8], xmm0

; 263  :     return D3DXVECTOR3(x - v.x, y - v.y, z - v.z);

  00ff7	f3 0f 10 45 c0	 movss	 xmm0, DWORD PTR $T52[ebp]
  00ffc	f3 0f 5c 45 e4	 subss	 xmm0, DWORD PTR _v3Cross$[ebp]
  01001	f3 0f 11 85 2c
	fd ff ff	 movss	 DWORD PTR _fx$[ebp], xmm0
  01009	f3 0f 10 45 c4	 movss	 xmm0, DWORD PTR $T52[ebp+4]
  0100e	f3 0f 5c 45 e8	 subss	 xmm0, DWORD PTR _v3Cross$[ebp+4]
  01013	f3 0f 11 85 28
	fd ff ff	 movss	 DWORD PTR _fy$[ebp], xmm0
  0101b	f3 0f 10 45 c8	 movss	 xmm0, DWORD PTR $T52[ebp+8]
  01020	f3 0f 5c 45 ec	 subss	 xmm0, DWORD PTR _v3Cross$[ebp+8]
  01025	f3 0f 11 85 24
	fd ff ff	 movss	 DWORD PTR _fz$[ebp], xmm0

; 180  :     x = fx;

  0102d	f3 0f 10 85 2c
	fd ff ff	 movss	 xmm0, DWORD PTR _fx$[ebp]
  01035	f3 0f 11 85 58
	fe ff ff	 movss	 DWORD PTR $T22[ebp], xmm0

; 181  :     y = fy;

  0103d	f3 0f 10 85 28
	fd ff ff	 movss	 xmm0, DWORD PTR _fy$[ebp]
  01045	f3 0f 11 85 5c
	fe ff ff	 movss	 DWORD PTR $T22[ebp+4], xmm0

; 182  :     z = fz;

  0104d	f3 0f 10 85 24
	fd ff ff	 movss	 xmm0, DWORD PTR _fz$[ebp]
  01055	f3 0f 11 85 60
	fe ff ff	 movss	 DWORD PTR $T22[ebp+8], xmm0
; File D:\Metin2 Server Files\mainline\SRC_2014\Metin2Client\EffectLib\ParticleInstance.cpp

; 421  : 		m_ParticleMesh[3].position = v3Position + v3Up - v3Cross;

  0105d	6a 14		 push	 20			; 00000014H
  0105f	58		 pop	 eax
  01060	6b c0 03	 imul	 eax, eax, 3
  01063	8b 8d 14 fe ff
	ff		 mov	 ecx, DWORD PTR _this$[ebp]
  01069	8d 7c 01 74	 lea	 edi, DWORD PTR [ecx+eax+116]
  0106d	8d b5 58 fe ff
	ff		 lea	 esi, DWORD PTR $T22[ebp]
  01073	a5		 movsd
  01074	a5		 movsd
  01075	a5		 movsd

; 422  : 	}

  01076	e9 37 04 00 00	 jmp	 $LN18@Transform
$LN17@Transform:

; 425  : 		m_ParticleMesh[0].position = m_v3Position - v3Up + v3Cross;

  0107b	8b 85 14 fe ff
	ff		 mov	 eax, DWORD PTR _this$[ebp]
  01081	83 c0 0c	 add	 eax, 12			; 0000000cH
  01084	89 85 cc fd ff
	ff		 mov	 DWORD PTR _this$[ebp], eax
; File D:\Metin2 Server Files\mainline\SRC_2014\M2Data\include\d3dx8math.inl

; 263  :     return D3DXVECTOR3(x - v.x, y - v.y, z - v.z);

  0108a	8b 85 cc fd ff
	ff		 mov	 eax, DWORD PTR _this$[ebp]
  01090	f3 0f 10 00	 movss	 xmm0, DWORD PTR [eax]
  01094	f3 0f 5c 45 f0	 subss	 xmm0, DWORD PTR _v3Up$[ebp]
  01099	f3 0f 11 85 20
	fd ff ff	 movss	 DWORD PTR _fx$[ebp], xmm0
  010a1	8b 85 cc fd ff
	ff		 mov	 eax, DWORD PTR _this$[ebp]
  010a7	f3 0f 10 40 04	 movss	 xmm0, DWORD PTR [eax+4]
  010ac	f3 0f 5c 45 f4	 subss	 xmm0, DWORD PTR _v3Up$[ebp+4]
  010b1	f3 0f 11 85 1c
	fd ff ff	 movss	 DWORD PTR _fy$[ebp], xmm0
  010b9	8b 85 cc fd ff
	ff		 mov	 eax, DWORD PTR _this$[ebp]
  010bf	f3 0f 10 40 08	 movss	 xmm0, DWORD PTR [eax+8]
  010c4	f3 0f 5c 45 f8	 subss	 xmm0, DWORD PTR _v3Up$[ebp+8]
  010c9	f3 0f 11 85 18
	fd ff ff	 movss	 DWORD PTR _fz$[ebp], xmm0

; 180  :     x = fx;

  010d1	f3 0f 10 85 20
	fd ff ff	 movss	 xmm0, DWORD PTR _fx$[ebp]
  010d9	f3 0f 11 85 60
	ff ff ff	 movss	 DWORD PTR $T44[ebp], xmm0

; 181  :     y = fy;

  010e1	f3 0f 10 85 1c
	fd ff ff	 movss	 xmm0, DWORD PTR _fy$[ebp]
  010e9	f3 0f 11 85 64
	ff ff ff	 movss	 DWORD PTR $T44[ebp+4], xmm0

; 182  :     z = fz;

  010f1	f3 0f 10 85 18
	fd ff ff	 movss	 xmm0, DWORD PTR _fz$[ebp]
  010f9	f3 0f 11 85 68
	ff ff ff	 movss	 DWORD PTR $T44[ebp+8], xmm0

; 257  :     return D3DXVECTOR3(x + v.x, y + v.y, z + v.z);

  01101	f3 0f 10 85 60
	ff ff ff	 movss	 xmm0, DWORD PTR $T44[ebp]
  01109	f3 0f 58 45 e4	 addss	 xmm0, DWORD PTR _v3Cross$[ebp]
  0110e	f3 0f 11 85 14
	fd ff ff	 movss	 DWORD PTR _fx$[ebp], xmm0
  01116	f3 0f 10 85 64
	ff ff ff	 movss	 xmm0, DWORD PTR $T44[ebp+4]
  0111e	f3 0f 58 45 e8	 addss	 xmm0, DWORD PTR _v3Cross$[ebp+4]
  01123	f3 0f 11 85 10
	fd ff ff	 movss	 DWORD PTR _fy$[ebp], xmm0
  0112b	f3 0f 10 85 68
	ff ff ff	 movss	 xmm0, DWORD PTR $T44[ebp+8]
  01133	f3 0f 58 45 ec	 addss	 xmm0, DWORD PTR _v3Cross$[ebp+8]
  01138	f3 0f 11 85 0c
	fd ff ff	 movss	 DWORD PTR _fz$[ebp], xmm0

; 180  :     x = fx;

  01140	f3 0f 10 85 14
	fd ff ff	 movss	 xmm0, DWORD PTR _fx$[ebp]
  01148	f3 0f 11 85 64
	fe ff ff	 movss	 DWORD PTR $T23[ebp], xmm0

; 181  :     y = fy;

  01150	f3 0f 10 85 10
	fd ff ff	 movss	 xmm0, DWORD PTR _fy$[ebp]
  01158	f3 0f 11 85 68
	fe ff ff	 movss	 DWORD PTR $T23[ebp+4], xmm0

; 182  :     z = fz;

  01160	f3 0f 10 85 0c
	fd ff ff	 movss	 xmm0, DWORD PTR _fz$[ebp]
  01168	f3 0f 11 85 6c
	fe ff ff	 movss	 DWORD PTR $T23[ebp+8], xmm0
; File D:\Metin2 Server Files\mainline\SRC_2014\Metin2Client\EffectLib\ParticleInstance.cpp

; 425  : 		m_ParticleMesh[0].position = m_v3Position - v3Up + v3Cross;

  01170	6a 14		 push	 20			; 00000014H
  01172	58		 pop	 eax
  01173	6b c0 00	 imul	 eax, eax, 0
  01176	8b 8d 14 fe ff
	ff		 mov	 ecx, DWORD PTR _this$[ebp]
  0117c	8d 7c 01 74	 lea	 edi, DWORD PTR [ecx+eax+116]
  01180	8d b5 64 fe ff
	ff		 lea	 esi, DWORD PTR $T23[ebp]
  01186	a5		 movsd
  01187	a5		 movsd
  01188	a5		 movsd

; 426  : 		m_ParticleMesh[1].position = m_v3Position - v3Up - v3Cross;

  01189	8b 85 14 fe ff
	ff		 mov	 eax, DWORD PTR _this$[ebp]
  0118f	83 c0 0c	 add	 eax, 12			; 0000000cH
  01192	89 85 c0 fd ff
	ff		 mov	 DWORD PTR _this$[ebp], eax
; File D:\Metin2 Server Files\mainline\SRC_2014\M2Data\include\d3dx8math.inl

; 263  :     return D3DXVECTOR3(x - v.x, y - v.y, z - v.z);

  01198	8b 85 c0 fd ff
	ff		 mov	 eax, DWORD PTR _this$[ebp]
  0119e	f3 0f 10 00	 movss	 xmm0, DWORD PTR [eax]
  011a2	f3 0f 5c 45 f0	 subss	 xmm0, DWORD PTR _v3Up$[ebp]
  011a7	f3 0f 11 85 08
	fd ff ff	 movss	 DWORD PTR _fx$[ebp], xmm0
  011af	8b 85 c0 fd ff
	ff		 mov	 eax, DWORD PTR _this$[ebp]
  011b5	f3 0f 10 40 04	 movss	 xmm0, DWORD PTR [eax+4]
  011ba	f3 0f 5c 45 f4	 subss	 xmm0, DWORD PTR _v3Up$[ebp+4]
  011bf	f3 0f 11 85 04
	fd ff ff	 movss	 DWORD PTR _fy$[ebp], xmm0
  011c7	8b 85 c0 fd ff
	ff		 mov	 eax, DWORD PTR _this$[ebp]
  011cd	f3 0f 10 40 08	 movss	 xmm0, DWORD PTR [eax+8]
  011d2	f3 0f 5c 45 f8	 subss	 xmm0, DWORD PTR _v3Up$[ebp+8]
  011d7	f3 0f 11 85 00
	fd ff ff	 movss	 DWORD PTR _fz$[ebp], xmm0

; 180  :     x = fx;

  011df	f3 0f 10 85 08
	fd ff ff	 movss	 xmm0, DWORD PTR _fx$[ebp]
  011e7	f3 0f 11 85 54
	ff ff ff	 movss	 DWORD PTR $T43[ebp], xmm0

; 181  :     y = fy;

  011ef	f3 0f 10 85 04
	fd ff ff	 movss	 xmm0, DWORD PTR _fy$[ebp]
  011f7	f3 0f 11 85 58
	ff ff ff	 movss	 DWORD PTR $T43[ebp+4], xmm0

; 182  :     z = fz;

  011ff	f3 0f 10 85 00
	fd ff ff	 movss	 xmm0, DWORD PTR _fz$[ebp]
  01207	f3 0f 11 85 5c
	ff ff ff	 movss	 DWORD PTR $T43[ebp+8], xmm0

; 263  :     return D3DXVECTOR3(x - v.x, y - v.y, z - v.z);

  0120f	f3 0f 10 85 54
	ff ff ff	 movss	 xmm0, DWORD PTR $T43[ebp]
  01217	f3 0f 5c 45 e4	 subss	 xmm0, DWORD PTR _v3Cross$[ebp]
  0121c	f3 0f 11 85 fc
	fc ff ff	 movss	 DWORD PTR _fx$[ebp], xmm0
  01224	f3 0f 10 85 58
	ff ff ff	 movss	 xmm0, DWORD PTR $T43[ebp+4]
  0122c	f3 0f 5c 45 e8	 subss	 xmm0, DWORD PTR _v3Cross$[ebp+4]
  01231	f3 0f 11 85 f8
	fc ff ff	 movss	 DWORD PTR _fy$[ebp], xmm0
  01239	f3 0f 10 85 5c
	ff ff ff	 movss	 xmm0, DWORD PTR $T43[ebp+8]
  01241	f3 0f 5c 45 ec	 subss	 xmm0, DWORD PTR _v3Cross$[ebp+8]
  01246	f3 0f 11 85 f4
	fc ff ff	 movss	 DWORD PTR _fz$[ebp], xmm0

; 180  :     x = fx;

  0124e	f3 0f 10 85 fc
	fc ff ff	 movss	 xmm0, DWORD PTR _fx$[ebp]
  01256	f3 0f 11 85 70
	fe ff ff	 movss	 DWORD PTR $T24[ebp], xmm0

; 181  :     y = fy;

  0125e	f3 0f 10 85 f8
	fc ff ff	 movss	 xmm0, DWORD PTR _fy$[ebp]
  01266	f3 0f 11 85 74
	fe ff ff	 movss	 DWORD PTR $T24[ebp+4], xmm0

; 182  :     z = fz;

  0126e	f3 0f 10 85 f4
	fc ff ff	 movss	 xmm0, DWORD PTR _fz$[ebp]
  01276	f3 0f 11 85 78
	fe ff ff	 movss	 DWORD PTR $T24[ebp+8], xmm0
; File D:\Metin2 Server Files\mainline\SRC_2014\Metin2Client\EffectLib\ParticleInstance.cpp

; 426  : 		m_ParticleMesh[1].position = m_v3Position - v3Up - v3Cross;

  0127e	6a 14		 push	 20			; 00000014H
  01280	58		 pop	 eax
  01281	c1 e0 00	 shl	 eax, 0
  01284	8b 8d 14 fe ff
	ff		 mov	 ecx, DWORD PTR _this$[ebp]
  0128a	8d 7c 01 74	 lea	 edi, DWORD PTR [ecx+eax+116]
  0128e	8d b5 70 fe ff
	ff		 lea	 esi, DWORD PTR $T24[ebp]
  01294	a5		 movsd
  01295	a5		 movsd
  01296	a5		 movsd

; 427  : 		m_ParticleMesh[2].position = m_v3Position + v3Up + v3Cross;

  01297	8b 85 14 fe ff
	ff		 mov	 eax, DWORD PTR _this$[ebp]
  0129d	83 c0 0c	 add	 eax, 12			; 0000000cH
  012a0	89 85 c8 fd ff
	ff		 mov	 DWORD PTR _this$[ebp], eax
; File D:\Metin2 Server Files\mainline\SRC_2014\M2Data\include\d3dx8math.inl

; 257  :     return D3DXVECTOR3(x + v.x, y + v.y, z + v.z);

  012a6	8b 85 c8 fd ff
	ff		 mov	 eax, DWORD PTR _this$[ebp]
  012ac	f3 0f 10 00	 movss	 xmm0, DWORD PTR [eax]
  012b0	f3 0f 58 45 f0	 addss	 xmm0, DWORD PTR _v3Up$[ebp]
  012b5	f3 0f 11 85 f0
	fc ff ff	 movss	 DWORD PTR _fx$[ebp], xmm0
  012bd	8b 85 c8 fd ff
	ff		 mov	 eax, DWORD PTR _this$[ebp]
  012c3	f3 0f 10 40 04	 movss	 xmm0, DWORD PTR [eax+4]
  012c8	f3 0f 58 45 f4	 addss	 xmm0, DWORD PTR _v3Up$[ebp+4]
  012cd	f3 0f 11 85 ec
	fc ff ff	 movss	 DWORD PTR _fy$[ebp], xmm0
  012d5	8b 85 c8 fd ff
	ff		 mov	 eax, DWORD PTR _this$[ebp]
  012db	f3 0f 10 40 08	 movss	 xmm0, DWORD PTR [eax+8]
  012e0	f3 0f 58 45 f8	 addss	 xmm0, DWORD PTR _v3Up$[ebp+8]
  012e5	f3 0f 11 85 e8
	fc ff ff	 movss	 DWORD PTR _fz$[ebp], xmm0

; 180  :     x = fx;

  012ed	f3 0f 10 85 f0
	fc ff ff	 movss	 xmm0, DWORD PTR _fx$[ebp]
  012f5	f3 0f 11 85 48
	ff ff ff	 movss	 DWORD PTR $T42[ebp], xmm0

; 181  :     y = fy;

  012fd	f3 0f 10 85 ec
	fc ff ff	 movss	 xmm0, DWORD PTR _fy$[ebp]
  01305	f3 0f 11 85 4c
	ff ff ff	 movss	 DWORD PTR $T42[ebp+4], xmm0

; 182  :     z = fz;

  0130d	f3 0f 10 85 e8
	fc ff ff	 movss	 xmm0, DWORD PTR _fz$[ebp]
  01315	f3 0f 11 85 50
	ff ff ff	 movss	 DWORD PTR $T42[ebp+8], xmm0

; 257  :     return D3DXVECTOR3(x + v.x, y + v.y, z + v.z);

  0131d	f3 0f 10 85 48
	ff ff ff	 movss	 xmm0, DWORD PTR $T42[ebp]
  01325	f3 0f 58 45 e4	 addss	 xmm0, DWORD PTR _v3Cross$[ebp]
  0132a	f3 0f 11 85 e4
	fc ff ff	 movss	 DWORD PTR _fx$[ebp], xmm0
  01332	f3 0f 10 85 4c
	ff ff ff	 movss	 xmm0, DWORD PTR $T42[ebp+4]
  0133a	f3 0f 58 45 e8	 addss	 xmm0, DWORD PTR _v3Cross$[ebp+4]
  0133f	f3 0f 11 85 e0
	fc ff ff	 movss	 DWORD PTR _fy$[ebp], xmm0
  01347	f3 0f 10 85 50
	ff ff ff	 movss	 xmm0, DWORD PTR $T42[ebp+8]
  0134f	f3 0f 58 45 ec	 addss	 xmm0, DWORD PTR _v3Cross$[ebp+8]
  01354	f3 0f 11 85 dc
	fc ff ff	 movss	 DWORD PTR _fz$[ebp], xmm0

; 180  :     x = fx;

  0135c	f3 0f 10 85 e4
	fc ff ff	 movss	 xmm0, DWORD PTR _fx$[ebp]
  01364	f3 0f 11 85 7c
	fe ff ff	 movss	 DWORD PTR $T25[ebp], xmm0

; 181  :     y = fy;

  0136c	f3 0f 10 85 e0
	fc ff ff	 movss	 xmm0, DWORD PTR _fy$[ebp]
  01374	f3 0f 11 85 80
	fe ff ff	 movss	 DWORD PTR $T25[ebp+4], xmm0

; 182  :     z = fz;

  0137c	f3 0f 10 85 dc
	fc ff ff	 movss	 xmm0, DWORD PTR _fz$[ebp]
  01384	f3 0f 11 85 84
	fe ff ff	 movss	 DWORD PTR $T25[ebp+8], xmm0
; File D:\Metin2 Server Files\mainline\SRC_2014\Metin2Client\EffectLib\ParticleInstance.cpp

; 427  : 		m_ParticleMesh[2].position = m_v3Position + v3Up + v3Cross;

  0138c	6a 14		 push	 20			; 00000014H
  0138e	58		 pop	 eax
  0138f	d1 e0		 shl	 eax, 1
  01391	8b 8d 14 fe ff
	ff		 mov	 ecx, DWORD PTR _this$[ebp]
  01397	8d 7c 01 74	 lea	 edi, DWORD PTR [ecx+eax+116]
  0139b	8d b5 7c fe ff
	ff		 lea	 esi, DWORD PTR $T25[ebp]
  013a1	a5		 movsd
  013a2	a5		 movsd
  013a3	a5		 movsd

; 428  : 		m_ParticleMesh[3].position = m_v3Position + v3Up - v3Cross;

  013a4	8b 85 14 fe ff
	ff		 mov	 eax, DWORD PTR _this$[ebp]
  013aa	83 c0 0c	 add	 eax, 12			; 0000000cH
  013ad	89 85 c4 fd ff
	ff		 mov	 DWORD PTR _this$[ebp], eax
; File D:\Metin2 Server Files\mainline\SRC_2014\M2Data\include\d3dx8math.inl

; 257  :     return D3DXVECTOR3(x + v.x, y + v.y, z + v.z);

  013b3	8b 85 c4 fd ff
	ff		 mov	 eax, DWORD PTR _this$[ebp]
  013b9	f3 0f 10 00	 movss	 xmm0, DWORD PTR [eax]
  013bd	f3 0f 58 45 f0	 addss	 xmm0, DWORD PTR _v3Up$[ebp]
  013c2	f3 0f 11 85 d8
	fc ff ff	 movss	 DWORD PTR _fx$[ebp], xmm0
  013ca	8b 85 c4 fd ff
	ff		 mov	 eax, DWORD PTR _this$[ebp]
  013d0	f3 0f 10 40 04	 movss	 xmm0, DWORD PTR [eax+4]
  013d5	f3 0f 58 45 f4	 addss	 xmm0, DWORD PTR _v3Up$[ebp+4]
  013da	f3 0f 11 85 d4
	fc ff ff	 movss	 DWORD PTR _fy$[ebp], xmm0
  013e2	8b 85 c4 fd ff
	ff		 mov	 eax, DWORD PTR _this$[ebp]
  013e8	f3 0f 10 40 08	 movss	 xmm0, DWORD PTR [eax+8]
  013ed	f3 0f 58 45 f8	 addss	 xmm0, DWORD PTR _v3Up$[ebp+8]
  013f2	f3 0f 11 85 d0
	fc ff ff	 movss	 DWORD PTR _fz$[ebp], xmm0

; 180  :     x = fx;

  013fa	f3 0f 10 85 d8
	fc ff ff	 movss	 xmm0, DWORD PTR _fx$[ebp]
  01402	f3 0f 11 85 3c
	ff ff ff	 movss	 DWORD PTR $T41[ebp], xmm0

; 181  :     y = fy;

  0140a	f3 0f 10 85 d4
	fc ff ff	 movss	 xmm0, DWORD PTR _fy$[ebp]
  01412	f3 0f 11 85 40
	ff ff ff	 movss	 DWORD PTR $T41[ebp+4], xmm0

; 182  :     z = fz;

  0141a	f3 0f 10 85 d0
	fc ff ff	 movss	 xmm0, DWORD PTR _fz$[ebp]
  01422	f3 0f 11 85 44
	ff ff ff	 movss	 DWORD PTR $T41[ebp+8], xmm0

; 263  :     return D3DXVECTOR3(x - v.x, y - v.y, z - v.z);

  0142a	f3 0f 10 85 3c
	ff ff ff	 movss	 xmm0, DWORD PTR $T41[ebp]
  01432	f3 0f 5c 45 e4	 subss	 xmm0, DWORD PTR _v3Cross$[ebp]
  01437	f3 0f 11 85 34
	fc ff ff	 movss	 DWORD PTR _fx$[ebp], xmm0
  0143f	f3 0f 10 85 40
	ff ff ff	 movss	 xmm0, DWORD PTR $T41[ebp+4]
  01447	f3 0f 5c 45 e8	 subss	 xmm0, DWORD PTR _v3Cross$[ebp+4]
  0144c	f3 0f 11 85 c8
	fc ff ff	 movss	 DWORD PTR _fy$[ebp], xmm0
  01454	f3 0f 10 85 44
	ff ff ff	 movss	 xmm0, DWORD PTR $T41[ebp+8]
  0145c	f3 0f 5c 45 ec	 subss	 xmm0, DWORD PTR _v3Cross$[ebp+8]
  01461	f3 0f 11 85 c4
	fc ff ff	 movss	 DWORD PTR _fz$[ebp], xmm0

; 180  :     x = fx;

  01469	f3 0f 10 85 34
	fc ff ff	 movss	 xmm0, DWORD PTR _fx$[ebp]
  01471	f3 0f 11 85 88
	fe ff ff	 movss	 DWORD PTR $T26[ebp], xmm0

; 181  :     y = fy;

  01479	f3 0f 10 85 c8
	fc ff ff	 movss	 xmm0, DWORD PTR _fy$[ebp]
  01481	f3 0f 11 85 8c
	fe ff ff	 movss	 DWORD PTR $T26[ebp+4], xmm0

; 182  :     z = fz;

  01489	f3 0f 10 85 c4
	fc ff ff	 movss	 xmm0, DWORD PTR _fz$[ebp]
  01491	f3 0f 11 85 90
	fe ff ff	 movss	 DWORD PTR $T26[ebp+8], xmm0
; File D:\Metin2 Server Files\mainline\SRC_2014\Metin2Client\EffectLib\ParticleInstance.cpp

; 428  : 		m_ParticleMesh[3].position = m_v3Position + v3Up - v3Cross;

  01499	6a 14		 push	 20			; 00000014H
  0149b	58		 pop	 eax
  0149c	6b c0 03	 imul	 eax, eax, 3
  0149f	8b 8d 14 fe ff
	ff		 mov	 ecx, DWORD PTR _this$[ebp]
  014a5	8d 7c 01 74	 lea	 edi, DWORD PTR [ecx+eax+116]
  014a9	8d b5 88 fe ff
	ff		 lea	 esi, DWORD PTR $T26[ebp]
  014af	a5		 movsd
  014b0	a5		 movsd
  014b1	a5		 movsd
$LN18@Transform:

; 429  : 	}
; 430  : }

  014b2	5f		 pop	 edi
  014b3	5e		 pop	 esi
  014b4	8b 4d fc	 mov	 ecx, DWORD PTR __$ArrayPad$[ebp]
  014b7	33 cd		 xor	 ecx, ebp
  014b9	e8 00 00 00 00	 call	 @__security_check_cookie@4
  014be	c9		 leave
  014bf	c2 08 00	 ret	 8
?Transform@CParticleInstance@@QAEXPBUD3DXMATRIX@@M@Z ENDP ; CParticleInstance::Transform
_TEXT	ENDS
; Function compile flags: /Odspy
; File D:\Metin2 Server Files\mainline\SRC_2014\Metin2Client\EffectLib\ParticleInstance.cpp
; File D:\Metin2 Server Files\mainline\SRC_2014\Metin2Client\EffectLib\Type.h
; File D:\Metin2 Server Files\mainline\SRC_2014\Metin2Client\EffectLib\ParticleInstance.cpp
; File D:\Metin2 Server Files\mainline\SRC_2014\Metin2Client\eterBase\Singleton.h
; File D:\Metin2 Server Files\mainline\SRC_2014\Metin2Client\EffectLib\ParticleInstance.cpp
; File D:\Metin2 Server Files\mainline\SRC_2014\Metin2Client\eterLib\Camera.h
; File D:\Metin2 Server Files\mainline\SRC_2014\Metin2Client\EffectLib\ParticleInstance.cpp
; File D:\Metin2 Server Files\mainline\SRC_2014\Metin2Client\eterLib\Camera.h
; File D:\Metin2 Server Files\mainline\SRC_2014\Metin2Client\EffectLib\ParticleInstance.cpp
; File C:\Program Files (x86)\Windows Kits\10\Include\10.0.18362.0\ucrt\corecrt_math.h
; File D:\Metin2 Server Files\mainline\SRC_2014\Metin2Client\EffectLib\ParticleInstance.cpp
; File C:\Program Files (x86)\Windows Kits\10\Include\10.0.18362.0\ucrt\corecrt_math.h
; File D:\Metin2 Server Files\mainline\SRC_2014\Metin2Client\EffectLib\ParticleInstance.cpp
; File D:\Metin2 Server Files\mainline\SRC_2014\M2Data\include\d3dx8math.inl
; File D:\Metin2 Server Files\mainline\SRC_2014\Metin2Client\EffectLib\ParticleInstance.cpp
; File D:\Metin2 Server Files\mainline\SRC_2014\Metin2Client\eterLib\Camera.h
; File D:\Metin2 Server Files\mainline\SRC_2014\Metin2Client\EffectLib\ParticleInstance.cpp
; File D:\Metin2 Server Files\mainline\SRC_2014\M2Data\include\d3dx8math.inl
; File D:\Metin2 Server Files\mainline\SRC_2014\Metin2Client\EffectLib\ParticleInstance.cpp
; File D:\Metin2 Server Files\mainline\SRC_2014\M2Data\include\d3dx8math.inl
; File D:\Metin2 Server Files\mainline\SRC_2014\Metin2Client\EffectLib\ParticleInstance.cpp
; File C:\Program Files (x86)\Windows Kits\10\Include\10.0.18362.0\ucrt\corecrt_math.h
; File D:\Metin2 Server Files\mainline\SRC_2014\Metin2Client\EffectLib\ParticleInstance.cpp
; File C:\Program Files (x86)\Windows Kits\10\Include\10.0.18362.0\ucrt\corecrt_math.h
; File D:\Metin2 Server Files\mainline\SRC_2014\Metin2Client\EffectLib\ParticleInstance.cpp
; File D:\Metin2 Server Files\mainline\SRC_2014\M2Data\include\d3dx8math.inl
; File D:\Metin2 Server Files\mainline\SRC_2014\Metin2Client\EffectLib\ParticleInstance.cpp
; File D:\Metin2 Server Files\mainline\SRC_2014\M2Data\include\d3dx8math.inl
; File D:\Metin2 Server Files\mainline\SRC_2014\Metin2Client\EffectLib\ParticleInstance.cpp
; File D:\Metin2 Server Files\mainline\SRC_2014\Metin2Client\eterLib\Camera.h
; File D:\Metin2 Server Files\mainline\SRC_2014\Metin2Client\EffectLib\ParticleInstance.cpp
; File D:\Metin2 Server Files\mainline\SRC_2014\M2Data\include\d3dx8math.inl
; File D:\Metin2 Server Files\mainline\SRC_2014\Metin2Client\EffectLib\ParticleInstance.cpp
; File D:\Metin2 Server Files\mainline\SRC_2014\M2Data\include\d3dx8math.inl
; File D:\Metin2 Server Files\mainline\SRC_2014\Metin2Client\EffectLib\ParticleInstance.cpp
; File D:\Metin2 Server Files\mainline\SRC_2014\M2Data\include\d3dx8math.inl
; File D:\Metin2 Server Files\mainline\SRC_2014\Metin2Client\EffectLib\ParticleInstance.cpp
; File D:\Metin2 Server Files\mainline\SRC_2014\M2Data\include\d3dx8math.inl
; File D:\Metin2 Server Files\mainline\SRC_2014\Metin2Client\EffectLib\ParticleInstance.cpp
; File D:\Metin2 Server Files\mainline\SRC_2014\M2Data\include\d3dx8math.inl
; File C:\Program Files (x86)\Windows Kits\10\Include\10.0.18362.0\ucrt\corecrt_math.h
; File D:\Metin2 Server Files\mainline\SRC_2014\Metin2Client\EffectLib\ParticleInstance.cpp
; File D:\Metin2 Server Files\mainline\SRC_2014\M2Data\include\d3dx8math.inl
; File D:\Metin2 Server Files\mainline\SRC_2014\Metin2Client\EffectLib\ParticleInstance.cpp
; File C:\Program Files (x86)\Windows Kits\10\Include\10.0.18362.0\ucrt\corecrt_math.h
; File C:\Program Files (x86)\Microsoft Visual Studio\2019\Community\VC\Tools\MSVC\14.28.29333\include\cmath
; File D:\Metin2 Server Files\mainline\SRC_2014\Metin2Client\EffectLib\ParticleInstance.cpp
; File D:\Metin2 Server Files\mainline\SRC_2014\M2Data\include\d3dx8math.inl
; File D:\Metin2 Server Files\mainline\SRC_2014\Metin2Client\eterBase\Singleton.h
; File D:\Metin2 Server Files\mainline\SRC_2014\Metin2Client\EffectLib\ParticleInstance.cpp
; File D:\Metin2 Server Files\mainline\SRC_2014\Metin2Client\eterLib\Camera.h
; File D:\Metin2 Server Files\mainline\SRC_2014\Metin2Client\EffectLib\ParticleInstance.cpp
; File D:\Metin2 Server Files\mainline\SRC_2014\M2Data\include\d3dx8math.inl
; File D:\Metin2 Server Files\mainline\SRC_2014\Metin2Client\EffectLib\ParticleInstance.cpp
; File D:\Metin2 Server Files\mainline\SRC_2014\M2Data\include\d3dx8math.inl
; File D:\Metin2 Server Files\mainline\SRC_2014\Metin2Client\EffectLib\ParticleInstance.cpp
; File D:\Metin2 Server Files\mainline\SRC_2014\M2Data\include\d3dx8math.inl
; File D:\Metin2 Server Files\mainline\SRC_2014\Metin2Client\EffectLib\ParticleInstance.cpp
; File D:\Metin2 Server Files\mainline\SRC_2014\M2Data\include\d3dx8math.inl
; File D:\Metin2 Server Files\mainline\SRC_2014\Metin2Client\EffectLib\ParticleInstance.cpp
; File D:\Metin2 Server Files\mainline\SRC_2014\M2Data\include\d3dx8math.inl
; File D:\Metin2 Server Files\mainline\SRC_2014\Metin2Client\EffectLib\ParticleInstance.cpp
; File D:\Metin2 Server Files\mainline\SRC_2014\M2Data\include\d3dx8math.inl
; File D:\Metin2 Server Files\mainline\SRC_2014\Metin2Client\EffectLib\ParticleInstance.cpp
; File D:\Metin2 Server Files\mainline\SRC_2014\M2Data\include\d3dx8math.inl
; File D:\Metin2 Server Files\mainline\SRC_2014\Metin2Client\EffectLib\ParticleInstance.cpp
; File D:\Metin2 Server Files\mainline\SRC_2014\M2Data\include\d3dx8math.inl
; File D:\Metin2 Server Files\mainline\SRC_2014\Metin2Client\EffectLib\ParticleInstance.cpp
; File D:\Metin2 Server Files\mainline\SRC_2014\M2Data\include\d3dx8math.inl
; File D:\Metin2 Server Files\mainline\SRC_2014\Metin2Client\EffectLib\ParticleInstance.cpp
; File D:\Metin2 Server Files\mainline\SRC_2014\M2Data\include\d3dx8math.inl
; File D:\Metin2 Server Files\mainline\SRC_2014\Metin2Client\EffectLib\ParticleInstance.cpp
; File D:\Metin2 Server Files\mainline\SRC_2014\M2Data\include\d3dx8math.inl
; File D:\Metin2 Server Files\mainline\SRC_2014\Metin2Client\EffectLib\ParticleInstance.cpp
;	COMDAT ?Transform@CParticleInstance@@QAEXPBUD3DXMATRIX@@@Z
_TEXT	SEGMENT
_qc$1 = -956						; size = 16
_q$2 = -940						; size = 16
_fx$ = -924						; size = 4
_fz$ = -920						; size = 4
_fy$ = -916						; size = 4
_fx$ = -912						; size = 4
_c_rv3View$3 = -908					; size = 4
_fz$ = -904						; size = 4
_fy$ = -900						; size = 4
_fx$ = -896						; size = 4
_fz$ = -892						; size = 4
_fy$ = -888						; size = 4
_fx$ = -884						; size = 4
_fz$ = -880						; size = 4
_fy$ = -876						; size = 4
_fx$ = -872						; size = 4
_fz$ = -868						; size = 4
_fy$ = -864						; size = 4
_fx$ = -860						; size = 4
_fz$ = -856						; size = 4
_fz$ = -852						; size = 4
_fy$ = -848						; size = 4
_fx$ = -844						; size = 4
_fz$ = -840						; size = 4
_fy$ = -836						; size = 4
_fx$ = -832						; size = 4
_fz$ = -828						; size = 4
_fy$ = -824						; size = 4
_fx$ = -820						; size = 4
__X$ = -816						; size = 4
tv2593 = -812						; size = 4
tv2592 = -808						; size = 4
__X$ = -804						; size = 4
_fy$ = -800						; size = 4
_fx$ = -796						; size = 4
__X$ = -792						; size = 4
__X$ = -788						; size = 4
$T4 = -784						; size = 4
$T5 = -780						; size = 4
_fy$ = -776						; size = 4
_fx$ = -772						; size = 4
_fz$ = -768						; size = 4
_fy$ = -764						; size = 4
_fx$ = -760						; size = 4
_fz$ = -756						; size = 4
_fy$ = -752						; size = 4
_fx$ = -748						; size = 4
_fz$ = -744						; size = 4
_fy$ = -740						; size = 4
_fx$ = -736						; size = 4
_fz$ = -732						; size = 4
_fy$ = -728						; size = 4
_fx$ = -724						; size = 4
_fz$ = -720						; size = 4
_fy$ = -716						; size = 4
_fx$ = -712						; size = 4
_fz$ = -708						; size = 4
_fy$ = -704						; size = 4
_fx$ = -700						; size = 4
_fz$ = -696						; size = 4
_fy$ = -692						; size = 4
_fx$ = -688						; size = 4
_fz$ = -684						; size = 4
_fy$ = -680						; size = 4
_fx$ = -676						; size = 4
_fz$ = -672						; size = 4
_fy$ = -668						; size = 4
_fx$ = -664						; size = 4
_fz$ = -660						; size = 4
_fy$ = -656						; size = 4
_fx$ = -652						; size = 4
_fz$ = -648						; size = 4
_fy$ = -644						; size = 4
_fx$ = -640						; size = 4
_fz$ = -636						; size = 4
_fy$ = -632						; size = 4
_fx$ = -628						; size = 4
_fz$ = -624						; size = 4
_fy$ = -620						; size = 4
_fx$ = -616						; size = 4
_fz$ = -612						; size = 4
_fy$ = -608						; size = 4
_fx$ = -604						; size = 4
_fz$ = -600						; size = 4
_fy$ = -596						; size = 4
_fx$ = -592						; size = 4
_fz$ = -588						; size = 4
_fy$ = -584						; size = 4
_fx$ = -580						; size = 4
_fz$ = -576						; size = 4
_fy$ = -572						; size = 4
_fx$ = -568						; size = 4
_pCurrentCamera$6 = -564				; size = 4
$T7 = -560						; size = 4
$T8 = -556						; size = 4
__X$ = -552						; size = 4
_fz$ = -548						; size = 4
_fy$ = -544						; size = 4
_fx$ = -540						; size = 4
_fz$ = -536						; size = 4
_fy$ = -532						; size = 4
_qr$9 = -528						; size = 16
_qr$10 = -512						; size = 16
_fCos$11 = -496						; size = 4
_fSin$12 = -492						; size = 4
_f$ = -488						; size = 4
_f$ = -484						; size = 4
_this$ = -480						; size = 4
_this$ = -476						; size = 4
_this$ = -472						; size = 4
_this$ = -468						; size = 4
_f$ = -464						; size = 4
_length$13 = -460					; size = 4
_v$ = -456						; size = 4
_this$ = -452						; size = 4
_pCurrentCamera$14 = -448				; size = 4
_c_rv3Up$15 = -444					; size = 4
_c_rv3View$16 = -440					; size = 4
tv87 = -436						; size = 4
_c_rv3View$17 = -432					; size = 4
_c_rv3Cross$18 = -428					; size = 4
_fCos$19 = -424						; size = 4
_fSin$20 = -420						; size = 4
_this$ = -416						; size = 4
$T21 = -412						; size = 12
_v3Temp$22 = -400					; size = 12
_v$23 = -388						; size = 12
$T24 = -376						; size = 12
$T25 = -364						; size = 12
$T26 = -352						; size = 12
$T27 = -340						; size = 12
$T28 = -328						; size = 12
$T29 = -316						; size = 12
$T30 = -304						; size = 12
$T31 = -292						; size = 12
$T32 = -280						; size = 12
$T33 = -268						; size = 12
$T34 = -256						; size = 12
$T35 = -244						; size = 12
_v$36 = -232						; size = 12
$T37 = -220						; size = 12
$T38 = -208						; size = 12
$T39 = -196						; size = 12
$T40 = -184						; size = 12
$T41 = -172						; size = 12
$T42 = -160						; size = 12
$T43 = -148						; size = 12
$T44 = -136						; size = 12
$T45 = -124						; size = 12
$T46 = -112						; size = 12
$T47 = -100						; size = 12
$T48 = -88						; size = 12
$T49 = -76						; size = 12
$T50 = -64						; size = 12
$T51 = -52						; size = 12
_v3Position$52 = -40					; size = 12
_v3Cross$ = -28						; size = 12
_v3Up$ = -16						; size = 12
__$ArrayPad$ = -4					; size = 4
_c_matLocal$ = 8					; size = 4
?Transform@CParticleInstance@@QAEXPBUD3DXMATRIX@@@Z PROC ; CParticleInstance::Transform, COMDAT
; _this$ = ecx

; 125  : {

  00000	55		 push	 ebp
  00001	8b ec		 mov	 ebp, esp
  00003	81 ec bc 03 00
	00		 sub	 esp, 956		; 000003bcH
  00009	a1 00 00 00 00	 mov	 eax, DWORD PTR ___security_cookie
  0000e	33 c5		 xor	 eax, ebp
  00010	89 45 fc	 mov	 DWORD PTR __$ArrayPad$[ebp], eax
  00013	56		 push	 esi
  00014	57		 push	 edi
  00015	89 8d 60 fe ff
	ff		 mov	 DWORD PTR _this$[ebp], ecx
; File D:\Metin2 Server Files\mainline\SRC_2014\Metin2Client\EffectLib\Type.h

; 164  : 		return m_dwColor;

  0001b	8b 85 60 fe ff
	ff		 mov	 eax, DWORD PTR _this$[ebp]
  00021	8b 40 44	 mov	 eax, DWORD PTR [eax+68]
  00024	89 85 f4 fc ff
	ff		 mov	 DWORD PTR $T5[ebp], eax
; File D:\Metin2 Server Files\mainline\SRC_2014\Metin2Client\EffectLib\ParticleInstance.cpp

; 129  : 	STATEMANAGER.SetRenderState(D3DRS_TEXTUREFACTOR, m_dcColor);

  0002a	ff b5 f4 fc ff
	ff		 push	 DWORD PTR $T5[ebp]
  00030	6a 3c		 push	 60			; 0000003cH
  00032	8b 0d 00 00 00
	00		 mov	 ecx, DWORD PTR ?ms_singleton@?$CSingleton@VCStateManager@@@@0PAVCStateManager@@A ; CSingleton<CStateManager>::ms_singleton
  00038	e8 00 00 00 00	 call	 ?SetRenderState@CStateManager@@QAEXW4_D3DRENDERSTATETYPE@@K@Z ; CStateManager::SetRenderState

; 130  : #endif
; 131  : 
; 132  : 	/////
; 133  : 
; 134  : 	D3DXVECTOR3 v3Up;
; 135  : 	D3DXVECTOR3 v3Cross;
; 136  : 
; 137  : 	if (!m_pParticleProperty->m_bStretchFlag)

  0003d	8b 85 60 fe ff
	ff		 mov	 eax, DWORD PTR _this$[ebp]
  00043	8b 40 5c	 mov	 eax, DWORD PTR [eax+92]
  00046	83 78 24 00	 cmp	 DWORD PTR [eax+36], 0
  0004a	0f 85 ee 08 00
	00		 jne	 $LN4@Transform
; File D:\Metin2 Server Files\mainline\SRC_2014\Metin2Client\eterBase\Singleton.h

; 27   : 		return (*ms_singleton);

  00050	a1 00 00 00 00	 mov	 eax, DWORD PTR ?ms_singleton@?$CSingleton@VCCameraManager@@@@0PAVCCameraManager@@A ; CSingleton<CCameraManager>::ms_singleton
  00055	89 85 f0 fc ff
	ff		 mov	 DWORD PTR $T4[ebp], eax
; File D:\Metin2 Server Files\mainline\SRC_2014\Metin2Client\EffectLib\ParticleInstance.cpp

; 139  : 		CCamera * pCurrentCamera = CCameraManager::Instance().GetCurrentCamera();

  0005b	8b 8d f0 fc ff
	ff		 mov	 ecx, DWORD PTR $T4[ebp]
  00061	e8 00 00 00 00	 call	 ?GetCurrentCamera@CCameraManager@@QAEPAVCCamera@@XZ ; CCameraManager::GetCurrentCamera
  00066	89 85 40 fe ff
	ff		 mov	 DWORD PTR _pCurrentCamera$14[ebp], eax
; File D:\Metin2 Server Files\mainline\SRC_2014\Metin2Client\eterLib\Camera.h

; 170  : 		const D3DXVECTOR3 & GetUp() const		{ return m_v3Up; }

  0006c	8b 85 40 fe ff
	ff		 mov	 eax, DWORD PTR _pCurrentCamera$14[ebp]
  00072	83 c0 48	 add	 eax, 72			; 00000048H
; File D:\Metin2 Server Files\mainline\SRC_2014\Metin2Client\EffectLib\ParticleInstance.cpp

; 140  : 		const D3DXVECTOR3 & c_rv3Up = pCurrentCamera->GetUp();

  00075	89 85 44 fe ff
	ff		 mov	 DWORD PTR _c_rv3Up$15[ebp], eax
; File D:\Metin2 Server Files\mainline\SRC_2014\Metin2Client\eterLib\Camera.h

; 172  : 		const D3DXVECTOR3 & GetCross() const	{ return m_v3Cross; }

  0007b	8b 85 40 fe ff
	ff		 mov	 eax, DWORD PTR _pCurrentCamera$14[ebp]
  00081	83 c0 60	 add	 eax, 96			; 00000060H
; File D:\Metin2 Server Files\mainline\SRC_2014\Metin2Client\EffectLib\ParticleInstance.cpp

; 141  : 		const D3DXVECTOR3 & c_rv3Cross = pCurrentCamera->GetCross();

  00084	89 85 54 fe ff
	ff		 mov	 DWORD PTR _c_rv3Cross$18[ebp], eax

; 142  : 
; 143  : 		D3DXVECTOR3 v3Rotation;
; 144  : 
; 145  : 		switch(m_pParticleProperty->m_byBillboardType) {

  0008a	8b 85 60 fe ff
	ff		 mov	 eax, DWORD PTR _this$[ebp]
  00090	8b 40 5c	 mov	 eax, DWORD PTR [eax+92]
  00093	8a 40 13	 mov	 al, BYTE PTR [eax+19]
  00096	88 85 4c fe ff
	ff		 mov	 BYTE PTR tv87[ebp], al
  0009c	80 bd 4c fe ff
	ff 02		 cmp	 BYTE PTR tv87[ebp], 2
  000a3	0f 84 e6 00 00
	00		 je	 $LN7@Transform
  000a9	80 bd 4c fe ff
	ff 03		 cmp	 BYTE PTR tv87[ebp], 3
  000b0	74 1f		 je	 SHORT $LN6@Transform
  000b2	80 bd 4c fe ff
	ff 03		 cmp	 BYTE PTR tv87[ebp], 3
  000b9	0f 86 84 05 00
	00		 jbe	 $LN10@Transform
  000bf	80 bd 4c fe ff
	ff 05		 cmp	 BYTE PTR tv87[ebp], 5
  000c6	0f 86 c3 00 00
	00		 jbe	 $LN7@Transform
  000cc	e9 72 05 00 00	 jmp	 $LN10@Transform
$LN6@Transform:

; 148  : 				float fCos = cosf(D3DXToRadian(m_fRotation)), fSin = sinf(D3DXToRadian(m_fRotation));

  000d1	8b 85 60 fe ff
	ff		 mov	 eax, DWORD PTR _this$[ebp]
  000d7	f3 0f 10 40 40	 movss	 xmm0, DWORD PTR [eax+64]
  000dc	f3 0f 59 05 00
	00 00 00	 mulss	 xmm0, DWORD PTR __real@3c8efa35
  000e4	f3 0f 11 85 ec
	fc ff ff	 movss	 DWORD PTR __X$[ebp], xmm0
; File C:\Program Files (x86)\Windows Kits\10\Include\10.0.18362.0\ucrt\corecrt_math.h

; 649  :             return (float)cos(_X);

  000ec	f3 0f 5a 85 ec
	fc ff ff	 cvtss2sd xmm0, DWORD PTR __X$[ebp]
  000f4	51		 push	 ecx
  000f5	51		 push	 ecx
  000f6	f2 0f 11 04 24	 movsd	 QWORD PTR [esp], xmm0
  000fb	e8 00 00 00 00	 call	 _cos
  00100	59		 pop	 ecx
  00101	59		 pop	 ecx
; File D:\Metin2 Server Files\mainline\SRC_2014\Metin2Client\EffectLib\ParticleInstance.cpp

; 148  : 				float fCos = cosf(D3DXToRadian(m_fRotation)), fSin = sinf(D3DXToRadian(m_fRotation));

  00102	d9 9d 10 fe ff
	ff		 fstp	 DWORD PTR _fCos$11[ebp]
  00108	8b 85 60 fe ff
	ff		 mov	 eax, DWORD PTR _this$[ebp]
  0010e	f3 0f 10 40 40	 movss	 xmm0, DWORD PTR [eax+64]
  00113	f3 0f 59 05 00
	00 00 00	 mulss	 xmm0, DWORD PTR __real@3c8efa35
  0011b	f3 0f 11 85 e8
	fc ff ff	 movss	 DWORD PTR __X$[ebp], xmm0
; File C:\Program Files (x86)\Windows Kits\10\Include\10.0.18362.0\ucrt\corecrt_math.h

; 750  :             return (float)sin(_X);

  00123	f3 0f 5a 85 e8
	fc ff ff	 cvtss2sd xmm0, DWORD PTR __X$[ebp]
  0012b	51		 push	 ecx
  0012c	51		 push	 ecx
  0012d	f2 0f 11 04 24	 movsd	 QWORD PTR [esp], xmm0
  00132	e8 00 00 00 00	 call	 _sin
  00137	59		 pop	 ecx
  00138	59		 pop	 ecx
; File D:\Metin2 Server Files\mainline\SRC_2014\Metin2Client\EffectLib\ParticleInstance.cpp

; 148  : 				float fCos = cosf(D3DXToRadian(m_fRotation)), fSin = sinf(D3DXToRadian(m_fRotation));

  00139	d9 9d 14 fe ff
	ff		 fstp	 DWORD PTR _fSin$12[ebp]

; 149  : 				v3Up.x = fCos;

  0013f	f3 0f 10 85 10
	fe ff ff	 movss	 xmm0, DWORD PTR _fCos$11[ebp]
  00147	f3 0f 11 45 f0	 movss	 DWORD PTR _v3Up$[ebp], xmm0

; 150  : 				v3Up.y = -fSin;

  0014c	f3 0f 10 85 14
	fe ff ff	 movss	 xmm0, DWORD PTR _fSin$12[ebp]
  00154	0f 57 05 00 00
	00 00		 xorps	 xmm0, DWORD PTR __xmm@80000000800000008000000080000000
  0015b	f3 0f 11 45 f4	 movss	 DWORD PTR _v3Up$[ebp+4], xmm0

; 151  : 				v3Up.z = 0;

  00160	0f 57 c0	 xorps	 xmm0, xmm0
  00163	f3 0f 11 45 f8	 movss	 DWORD PTR _v3Up$[ebp+8], xmm0

; 152  : 				v3Cross.x = fSin;

  00168	f3 0f 10 85 14
	fe ff ff	 movss	 xmm0, DWORD PTR _fSin$12[ebp]
  00170	f3 0f 11 45 e4	 movss	 DWORD PTR _v3Cross$[ebp], xmm0

; 153  : 				v3Cross.y = fCos;

  00175	f3 0f 10 85 10
	fe ff ff	 movss	 xmm0, DWORD PTR _fCos$11[ebp]
  0017d	f3 0f 11 45 e8	 movss	 DWORD PTR _v3Cross$[ebp+4], xmm0

; 154  : 				v3Cross.z = 0;

  00182	0f 57 c0	 xorps	 xmm0, xmm0
  00185	f3 0f 11 45 ec	 movss	 DWORD PTR _v3Cross$[ebp+8], xmm0

; 155  : 			}
; 156  : 			break;

  0018a	e9 aa 07 00 00	 jmp	 $LN2@Transform
$LN7@Transform:
; File D:\Metin2 Server Files\mainline\SRC_2014\M2Data\include\d3dx8math.inl

; 180  :     x = fx;

  0018f	0f 57 c0	 xorps	 xmm0, xmm0
  00192	f3 0f 11 85 88
	fe ff ff	 movss	 DWORD PTR $T24[ebp], xmm0

; 181  :     y = fy;

  0019a	0f 57 c0	 xorps	 xmm0, xmm0
  0019d	f3 0f 11 85 8c
	fe ff ff	 movss	 DWORD PTR $T24[ebp+4], xmm0

; 182  :     z = fz;

  001a5	f3 0f 10 05 00
	00 00 00	 movss	 xmm0, DWORD PTR __real@3f800000
  001ad	f3 0f 11 85 90
	fe ff ff	 movss	 DWORD PTR $T24[ebp+8], xmm0
; File D:\Metin2 Server Files\mainline\SRC_2014\Metin2Client\EffectLib\ParticleInstance.cpp

; 162  : 				v3Up = D3DXVECTOR3(0.0f,0.0f,1.0f);

  001b5	8d b5 88 fe ff
	ff		 lea	 esi, DWORD PTR $T24[ebp]
  001bb	8d 7d f0	 lea	 edi, DWORD PTR _v3Up$[ebp]
  001be	a5		 movsd
  001bf	a5		 movsd
  001c0	a5		 movsd
; File D:\Metin2 Server Files\mainline\SRC_2014\Metin2Client\eterLib\Camera.h

; 171  : 		const D3DXVECTOR3 & GetView() const		{ return m_v3View; }

  001c1	8b 85 40 fe ff
	ff		 mov	 eax, DWORD PTR _pCurrentCamera$14[ebp]
  001c7	83 c0 54	 add	 eax, 84			; 00000054H
; File D:\Metin2 Server Files\mainline\SRC_2014\Metin2Client\EffectLib\ParticleInstance.cpp

; 164  : 				const D3DXVECTOR3 & c_rv3View = pCurrentCamera->GetView();

  001ca	89 85 48 fe ff
	ff		 mov	 DWORD PTR _c_rv3View$16[ebp], eax

; 165  : 				if (v3Up.x * c_rv3View.y - v3Up.y * c_rv3View.x<0)

  001d0	8b 85 48 fe ff
	ff		 mov	 eax, DWORD PTR _c_rv3View$16[ebp]
  001d6	f3 0f 10 45 f0	 movss	 xmm0, DWORD PTR _v3Up$[ebp]
  001db	f3 0f 59 40 04	 mulss	 xmm0, DWORD PTR [eax+4]
  001e0	8b 85 48 fe ff
	ff		 mov	 eax, DWORD PTR _c_rv3View$16[ebp]
  001e6	f3 0f 10 4d f4	 movss	 xmm1, DWORD PTR _v3Up$[ebp+4]
  001eb	f3 0f 59 08	 mulss	 xmm1, DWORD PTR [eax]
  001ef	f3 0f 5c c1	 subss	 xmm0, xmm1
  001f3	0f 57 c9	 xorps	 xmm1, xmm1
  001f6	0f 2f c8	 comiss	 xmm1, xmm0
  001f9	76 36		 jbe	 SHORT $LN43@Transform
; File D:\Metin2 Server Files\mainline\SRC_2014\M2Data\include\d3dx8math.inl

; 222  :     x *= f;

  001fb	f3 0f 10 45 f0	 movss	 xmm0, DWORD PTR _v3Up$[ebp]
  00200	f3 0f 59 05 00
	00 00 00	 mulss	 xmm0, DWORD PTR __real@bf800000
  00208	f3 0f 11 45 f0	 movss	 DWORD PTR _v3Up$[ebp], xmm0

; 223  :     y *= f;

  0020d	f3 0f 10 45 f4	 movss	 xmm0, DWORD PTR _v3Up$[ebp+4]
  00212	f3 0f 59 05 00
	00 00 00	 mulss	 xmm0, DWORD PTR __real@bf800000
  0021a	f3 0f 11 45 f4	 movss	 DWORD PTR _v3Up$[ebp+4], xmm0

; 224  :     z *= f;

  0021f	f3 0f 10 45 f8	 movss	 xmm0, DWORD PTR _v3Up$[ebp+8]
  00224	f3 0f 59 05 00
	00 00 00	 mulss	 xmm0, DWORD PTR __real@bf800000
  0022c	f3 0f 11 45 f8	 movss	 DWORD PTR _v3Up$[ebp+8], xmm0
$LN43@Transform:
; File D:\Metin2 Server Files\mainline\SRC_2014\Metin2Client\EffectLib\ParticleInstance.cpp

; 167  : 				D3DXVec3Cross(&v3Cross, &v3Up, &D3DXVECTOR3(c_rv3View.x,c_rv3View.y,0));

  00231	8b 85 48 fe ff
	ff		 mov	 eax, DWORD PTR _c_rv3View$16[ebp]
  00237	f3 0f 10 00	 movss	 xmm0, DWORD PTR [eax]
  0023b	f3 0f 11 85 e4
	fc ff ff	 movss	 DWORD PTR _fx$[ebp], xmm0
  00243	8b 85 48 fe ff
	ff		 mov	 eax, DWORD PTR _c_rv3View$16[ebp]
  00249	f3 0f 10 40 04	 movss	 xmm0, DWORD PTR [eax+4]
  0024e	f3 0f 11 85 e0
	fc ff ff	 movss	 DWORD PTR _fy$[ebp], xmm0
; File D:\Metin2 Server Files\mainline\SRC_2014\M2Data\include\d3dx8math.inl

; 180  :     x = fx;

  00256	f3 0f 10 85 e4
	fc ff ff	 movss	 xmm0, DWORD PTR _fx$[ebp]
  0025e	f3 0f 11 45 cc	 movss	 DWORD PTR $T51[ebp], xmm0

; 181  :     y = fy;

  00263	f3 0f 10 85 e0
	fc ff ff	 movss	 xmm0, DWORD PTR _fy$[ebp]
  0026b	f3 0f 11 45 d0	 movss	 DWORD PTR $T51[ebp+4], xmm0

; 182  :     z = fz;

  00270	0f 57 c0	 xorps	 xmm0, xmm0
  00273	f3 0f 11 45 d4	 movss	 DWORD PTR $T51[ebp+8], xmm0

; 1277 :     v.x = pV1->y * pV2->z - pV1->z * pV2->y;

  00278	f3 0f 10 45 f4	 movss	 xmm0, DWORD PTR _v3Up$[ebp+4]
  0027d	f3 0f 59 45 d4	 mulss	 xmm0, DWORD PTR $T51[ebp+8]
  00282	f3 0f 10 4d f8	 movss	 xmm1, DWORD PTR _v3Up$[ebp+8]
  00287	f3 0f 59 4d d0	 mulss	 xmm1, DWORD PTR $T51[ebp+4]
  0028c	f3 0f 5c c1	 subss	 xmm0, xmm1
  00290	f3 0f 11 85 7c
	fe ff ff	 movss	 DWORD PTR _v$23[ebp], xmm0

; 1278 :     v.y = pV1->z * pV2->x - pV1->x * pV2->z;

  00298	f3 0f 10 45 f8	 movss	 xmm0, DWORD PTR _v3Up$[ebp+8]
  0029d	f3 0f 59 45 cc	 mulss	 xmm0, DWORD PTR $T51[ebp]
  002a2	f3 0f 10 4d f0	 movss	 xmm1, DWORD PTR _v3Up$[ebp]
  002a7	f3 0f 59 4d d4	 mulss	 xmm1, DWORD PTR $T51[ebp+8]
  002ac	f3 0f 5c c1	 subss	 xmm0, xmm1
  002b0	f3 0f 11 85 80
	fe ff ff	 movss	 DWORD PTR _v$23[ebp+4], xmm0

; 1279 :     v.z = pV1->x * pV2->y - pV1->y * pV2->x;

  002b8	f3 0f 10 45 f0	 movss	 xmm0, DWORD PTR _v3Up$[ebp]
  002bd	f3 0f 59 45 d0	 mulss	 xmm0, DWORD PTR $T51[ebp+4]
  002c2	f3 0f 10 4d f4	 movss	 xmm1, DWORD PTR _v3Up$[ebp+4]
  002c7	f3 0f 59 4d cc	 mulss	 xmm1, DWORD PTR $T51[ebp]
  002cc	f3 0f 5c c1	 subss	 xmm0, xmm1
  002d0	f3 0f 11 85 84
	fe ff ff	 movss	 DWORD PTR _v$23[ebp+8], xmm0

; 1280 : 
; 1281 :     *pOut = v;

  002d8	8d b5 7c fe ff
	ff		 lea	 esi, DWORD PTR _v$23[ebp]
  002de	8d 7d e4	 lea	 edi, DWORD PTR _v3Cross$[ebp]
  002e1	a5		 movsd
  002e2	a5		 movsd
  002e3	a5		 movsd
; File D:\Metin2 Server Files\mainline\SRC_2014\Metin2Client\EffectLib\ParticleInstance.cpp

; 168  : 				D3DXVec3Normalize(&v3Cross, &v3Cross);

  002e4	8d 45 e4	 lea	 eax, DWORD PTR _v3Cross$[ebp]
  002e7	50		 push	 eax
  002e8	8d 45 e4	 lea	 eax, DWORD PTR _v3Cross$[ebp]
  002eb	50		 push	 eax
  002ec	e8 00 00 00 00	 call	 _D3DXVec3Normalize@8

; 169  : 
; 170  : 				if (m_fRotation)

  002f1	8b 85 60 fe ff
	ff		 mov	 eax, DWORD PTR _this$[ebp]
  002f7	f3 0f 10 40 40	 movss	 xmm0, DWORD PTR [eax+64]
  002fc	0f 2e 05 00 00
	00 00		 ucomiss xmm0, DWORD PTR __real@00000000
  00303	9f		 lahf
  00304	f6 c4 44	 test	 ah, 68			; 00000044H
  00307	0f 8b 31 03 00
	00		 jnp	 $LN9@Transform

; 172  : 					float fCos = -sinf(D3DXToRadian(m_fRotation)); // + 90

  0030d	8b 85 60 fe ff
	ff		 mov	 eax, DWORD PTR _this$[ebp]
  00313	f3 0f 10 40 40	 movss	 xmm0, DWORD PTR [eax+64]
  00318	f3 0f 59 05 00
	00 00 00	 mulss	 xmm0, DWORD PTR __real@3c8efa35
  00320	f3 0f 11 85 dc
	fc ff ff	 movss	 DWORD PTR __X$[ebp], xmm0
; File C:\Program Files (x86)\Windows Kits\10\Include\10.0.18362.0\ucrt\corecrt_math.h

; 750  :             return (float)sin(_X);

  00328	f3 0f 5a 85 dc
	fc ff ff	 cvtss2sd xmm0, DWORD PTR __X$[ebp]
  00330	51		 push	 ecx
  00331	51		 push	 ecx
  00332	f2 0f 11 04 24	 movsd	 QWORD PTR [esp], xmm0
  00337	e8 00 00 00 00	 call	 _sin
  0033c	59		 pop	 ecx
  0033d	59		 pop	 ecx
  0033e	d9 9d d8 fc ff
	ff		 fstp	 DWORD PTR tv2592[ebp]
  00344	d9 85 d8 fc ff
	ff		 fld	 DWORD PTR tv2592[ebp]
  0034a	d9 9d d4 fc ff
	ff		 fstp	 DWORD PTR tv2593[ebp]
  00350	f3 0f 10 85 d4
	fc ff ff	 movss	 xmm0, DWORD PTR tv2593[ebp]
; File D:\Metin2 Server Files\mainline\SRC_2014\Metin2Client\EffectLib\ParticleInstance.cpp

; 172  : 					float fCos = -sinf(D3DXToRadian(m_fRotation)); // + 90

  00358	0f 57 05 00 00
	00 00		 xorps	 xmm0, DWORD PTR __xmm@80000000800000008000000080000000
  0035f	f3 0f 11 85 58
	fe ff ff	 movss	 DWORD PTR _fCos$19[ebp], xmm0

; 173  : 					float fSin = cosf(D3DXToRadian(m_fRotation));

  00367	8b 85 60 fe ff
	ff		 mov	 eax, DWORD PTR _this$[ebp]
  0036d	f3 0f 10 40 40	 movss	 xmm0, DWORD PTR [eax+64]
  00372	f3 0f 59 05 00
	00 00 00	 mulss	 xmm0, DWORD PTR __real@3c8efa35
  0037a	f3 0f 11 85 d0
	fc ff ff	 movss	 DWORD PTR __X$[ebp], xmm0
; File C:\Program Files (x86)\Windows Kits\10\Include\10.0.18362.0\ucrt\corecrt_math.h

; 649  :             return (float)cos(_X);

  00382	f3 0f 5a 85 d0
	fc ff ff	 cvtss2sd xmm0, DWORD PTR __X$[ebp]
  0038a	51		 push	 ecx
  0038b	51		 push	 ecx
  0038c	f2 0f 11 04 24	 movsd	 QWORD PTR [esp], xmm0
  00391	e8 00 00 00 00	 call	 _cos
  00396	59		 pop	 ecx
  00397	59		 pop	 ecx
; File D:\Metin2 Server Files\mainline\SRC_2014\Metin2Client\EffectLib\ParticleInstance.cpp

; 173  : 					float fSin = cosf(D3DXToRadian(m_fRotation));

  00398	d9 9d 5c fe ff
	ff		 fstp	 DWORD PTR _fSin$20[ebp]
; File D:\Metin2 Server Files\mainline\SRC_2014\M2Data\include\d3dx8math.inl

; 269  :     return D3DXVECTOR3(x * f, y * f, z * f);

  0039e	f3 0f 10 45 e4	 movss	 xmm0, DWORD PTR _v3Cross$[ebp]
  003a3	f3 0f 59 85 5c
	fe ff ff	 mulss	 xmm0, DWORD PTR _fSin$20[ebp]
  003ab	f3 0f 11 85 cc
	fc ff ff	 movss	 DWORD PTR _fx$[ebp], xmm0
  003b3	f3 0f 10 45 e8	 movss	 xmm0, DWORD PTR _v3Cross$[ebp+4]
  003b8	f3 0f 59 85 5c
	fe ff ff	 mulss	 xmm0, DWORD PTR _fSin$20[ebp]
  003c0	f3 0f 11 85 c8
	fc ff ff	 movss	 DWORD PTR _fy$[ebp], xmm0
  003c8	f3 0f 10 45 ec	 movss	 xmm0, DWORD PTR _v3Cross$[ebp+8]
  003cd	f3 0f 59 85 5c
	fe ff ff	 mulss	 xmm0, DWORD PTR _fSin$20[ebp]
  003d5	f3 0f 11 85 c4
	fc ff ff	 movss	 DWORD PTR _fz$[ebp], xmm0

; 180  :     x = fx;

  003dd	f3 0f 10 85 cc
	fc ff ff	 movss	 xmm0, DWORD PTR _fx$[ebp]
  003e5	f3 0f 11 85 60
	ff ff ff	 movss	 DWORD PTR $T42[ebp], xmm0

; 181  :     y = fy;

  003ed	f3 0f 10 85 c8
	fc ff ff	 movss	 xmm0, DWORD PTR _fy$[ebp]
  003f5	f3 0f 11 85 64
	ff ff ff	 movss	 DWORD PTR $T42[ebp+4], xmm0

; 182  :     z = fz;

  003fd	f3 0f 10 85 c4
	fc ff ff	 movss	 xmm0, DWORD PTR _fz$[ebp]
  00405	f3 0f 11 85 68
	ff ff ff	 movss	 DWORD PTR $T42[ebp+8], xmm0

; 269  :     return D3DXVECTOR3(x * f, y * f, z * f);

  0040d	f3 0f 10 45 f0	 movss	 xmm0, DWORD PTR _v3Up$[ebp]
  00412	f3 0f 59 85 58
	fe ff ff	 mulss	 xmm0, DWORD PTR _fCos$19[ebp]
  0041a	f3 0f 11 85 c0
	fc ff ff	 movss	 DWORD PTR _fx$[ebp], xmm0
  00422	f3 0f 10 45 f4	 movss	 xmm0, DWORD PTR _v3Up$[ebp+4]
  00427	f3 0f 59 85 58
	fe ff ff	 mulss	 xmm0, DWORD PTR _fCos$19[ebp]
  0042f	f3 0f 11 85 bc
	fc ff ff	 movss	 DWORD PTR _fy$[ebp], xmm0
  00437	f3 0f 10 45 f8	 movss	 xmm0, DWORD PTR _v3Up$[ebp+8]
  0043c	f3 0f 59 85 58
	fe ff ff	 mulss	 xmm0, DWORD PTR _fCos$19[ebp]
  00444	f3 0f 11 85 b8
	fc ff ff	 movss	 DWORD PTR _fz$[ebp], xmm0

; 180  :     x = fx;

  0044c	f3 0f 10 85 c0
	fc ff ff	 movss	 xmm0, DWORD PTR _fx$[ebp]
  00454	f3 0f 11 85 6c
	ff ff ff	 movss	 DWORD PTR $T43[ebp], xmm0

; 181  :     y = fy;

  0045c	f3 0f 10 85 bc
	fc ff ff	 movss	 xmm0, DWORD PTR _fy$[ebp]
  00464	f3 0f 11 85 70
	ff ff ff	 movss	 DWORD PTR $T43[ebp+4], xmm0

; 182  :     z = fz;

  0046c	f3 0f 10 85 b8
	fc ff ff	 movss	 xmm0, DWORD PTR _fz$[ebp]
  00474	f3 0f 11 85 74
	ff ff ff	 movss	 DWORD PTR $T43[ebp+8], xmm0

; 263  :     return D3DXVECTOR3(x - v.x, y - v.y, z - v.z);

  0047c	f3 0f 10 85 6c
	ff ff ff	 movss	 xmm0, DWORD PTR $T43[ebp]
  00484	f3 0f 5c 85 60
	ff ff ff	 subss	 xmm0, DWORD PTR $T42[ebp]
  0048c	f3 0f 11 85 b4
	fc ff ff	 movss	 DWORD PTR _fx$[ebp], xmm0
  00494	f3 0f 10 85 70
	ff ff ff	 movss	 xmm0, DWORD PTR $T43[ebp+4]
  0049c	f3 0f 5c 85 64
	ff ff ff	 subss	 xmm0, DWORD PTR $T42[ebp+4]
  004a4	f3 0f 11 85 b0
	fc ff ff	 movss	 DWORD PTR _fy$[ebp], xmm0
  004ac	f3 0f 10 85 74
	ff ff ff	 movss	 xmm0, DWORD PTR $T43[ebp+8]
  004b4	f3 0f 5c 85 68
	ff ff ff	 subss	 xmm0, DWORD PTR $T42[ebp+8]
  004bc	f3 0f 11 85 ac
	fc ff ff	 movss	 DWORD PTR _fz$[ebp], xmm0

; 180  :     x = fx;

  004c4	f3 0f 10 85 b4
	fc ff ff	 movss	 xmm0, DWORD PTR _fx$[ebp]
  004cc	f3 0f 11 85 70
	fe ff ff	 movss	 DWORD PTR _v3Temp$22[ebp], xmm0

; 181  :     y = fy;

  004d4	f3 0f 10 85 b0
	fc ff ff	 movss	 xmm0, DWORD PTR _fy$[ebp]
  004dc	f3 0f 11 85 74
	fe ff ff	 movss	 DWORD PTR _v3Temp$22[ebp+4], xmm0

; 182  :     z = fz;

  004e4	f3 0f 10 85 ac
	fc ff ff	 movss	 xmm0, DWORD PTR _fz$[ebp]
  004ec	f3 0f 11 85 78
	fe ff ff	 movss	 DWORD PTR _v3Temp$22[ebp+8], xmm0

; 269  :     return D3DXVECTOR3(x * f, y * f, z * f);

  004f4	f3 0f 10 45 f0	 movss	 xmm0, DWORD PTR _v3Up$[ebp]
  004f9	f3 0f 59 85 5c
	fe ff ff	 mulss	 xmm0, DWORD PTR _fSin$20[ebp]
  00501	f3 0f 11 85 a4
	fc ff ff	 movss	 DWORD PTR _fx$[ebp], xmm0
  00509	f3 0f 10 45 f4	 movss	 xmm0, DWORD PTR _v3Up$[ebp+4]
  0050e	f3 0f 59 85 5c
	fe ff ff	 mulss	 xmm0, DWORD PTR _fSin$20[ebp]
  00516	f3 0f 11 85 a0
	fc ff ff	 movss	 DWORD PTR _fy$[ebp], xmm0
  0051e	f3 0f 10 45 f8	 movss	 xmm0, DWORD PTR _v3Up$[ebp+8]
  00523	f3 0f 59 85 5c
	fe ff ff	 mulss	 xmm0, DWORD PTR _fSin$20[ebp]
  0052b	f3 0f 11 85 9c
	fc ff ff	 movss	 DWORD PTR _fz$[ebp], xmm0

; 180  :     x = fx;

  00533	f3 0f 10 85 a4
	fc ff ff	 movss	 xmm0, DWORD PTR _fx$[ebp]
  0053b	f3 0f 11 45 90	 movss	 DWORD PTR $T46[ebp], xmm0

; 181  :     y = fy;

  00540	f3 0f 10 85 a0
	fc ff ff	 movss	 xmm0, DWORD PTR _fy$[ebp]
  00548	f3 0f 11 45 94	 movss	 DWORD PTR $T46[ebp+4], xmm0

; 182  :     z = fz;

  0054d	f3 0f 10 85 9c
	fc ff ff	 movss	 xmm0, DWORD PTR _fz$[ebp]
  00555	f3 0f 11 45 98	 movss	 DWORD PTR $T46[ebp+8], xmm0

; 269  :     return D3DXVECTOR3(x * f, y * f, z * f);

  0055a	f3 0f 10 45 e4	 movss	 xmm0, DWORD PTR _v3Cross$[ebp]
  0055f	f3 0f 59 85 58
	fe ff ff	 mulss	 xmm0, DWORD PTR _fCos$19[ebp]
  00567	f3 0f 11 85 98
	fc ff ff	 movss	 DWORD PTR _fx$[ebp], xmm0
  0056f	f3 0f 10 45 e8	 movss	 xmm0, DWORD PTR _v3Cross$[ebp+4]
  00574	f3 0f 59 85 58
	fe ff ff	 mulss	 xmm0, DWORD PTR _fCos$19[ebp]
  0057c	f3 0f 11 85 94
	fc ff ff	 movss	 DWORD PTR _fy$[ebp], xmm0
  00584	f3 0f 10 45 ec	 movss	 xmm0, DWORD PTR _v3Cross$[ebp+8]
  00589	f3 0f 59 85 58
	fe ff ff	 mulss	 xmm0, DWORD PTR _fCos$19[ebp]
  00591	f3 0f 11 85 90
	fc ff ff	 movss	 DWORD PTR _fz$[ebp], xmm0

; 180  :     x = fx;

  00599	f3 0f 10 85 98
	fc ff ff	 movss	 xmm0, DWORD PTR _fx$[ebp]
  005a1	f3 0f 11 45 84	 movss	 DWORD PTR $T45[ebp], xmm0

; 181  :     y = fy;

  005a6	f3 0f 10 85 94
	fc ff ff	 movss	 xmm0, DWORD PTR _fy$[ebp]
  005ae	f3 0f 11 45 88	 movss	 DWORD PTR $T45[ebp+4], xmm0

; 182  :     z = fz;

  005b3	f3 0f 10 85 90
	fc ff ff	 movss	 xmm0, DWORD PTR _fz$[ebp]
  005bb	f3 0f 11 45 8c	 movss	 DWORD PTR $T45[ebp+8], xmm0

; 257  :     return D3DXVECTOR3(x + v.x, y + v.y, z + v.z);

  005c0	f3 0f 10 45 84	 movss	 xmm0, DWORD PTR $T45[ebp]
  005c5	f3 0f 58 45 90	 addss	 xmm0, DWORD PTR $T46[ebp]
  005ca	f3 0f 11 85 8c
	fc ff ff	 movss	 DWORD PTR _fx$[ebp], xmm0
  005d2	f3 0f 10 45 88	 movss	 xmm0, DWORD PTR $T45[ebp+4]
  005d7	f3 0f 58 45 94	 addss	 xmm0, DWORD PTR $T46[ebp+4]
  005dc	f3 0f 11 85 88
	fc ff ff	 movss	 DWORD PTR _fy$[ebp], xmm0
  005e4	f3 0f 10 45 8c	 movss	 xmm0, DWORD PTR $T45[ebp+8]
  005e9	f3 0f 58 45 98	 addss	 xmm0, DWORD PTR $T46[ebp+8]
  005ee	f3 0f 11 85 84
	fc ff ff	 movss	 DWORD PTR _fz$[ebp], xmm0

; 180  :     x = fx;

  005f6	f3 0f 10 85 8c
	fc ff ff	 movss	 xmm0, DWORD PTR _fx$[ebp]
  005fe	f3 0f 11 85 94
	fe ff ff	 movss	 DWORD PTR $T25[ebp], xmm0

; 181  :     y = fy;

  00606	f3 0f 10 85 88
	fc ff ff	 movss	 xmm0, DWORD PTR _fy$[ebp]
  0060e	f3 0f 11 85 98
	fe ff ff	 movss	 DWORD PTR $T25[ebp+4], xmm0

; 182  :     z = fz;

  00616	f3 0f 10 85 84
	fc ff ff	 movss	 xmm0, DWORD PTR _fz$[ebp]
  0061e	f3 0f 11 85 9c
	fe ff ff	 movss	 DWORD PTR $T25[ebp+8], xmm0
; File D:\Metin2 Server Files\mainline\SRC_2014\Metin2Client\EffectLib\ParticleInstance.cpp

; 176  : 					v3Cross = v3Cross * fCos + v3Up * fSin;

  00626	8d b5 94 fe ff
	ff		 lea	 esi, DWORD PTR $T25[ebp]
  0062c	8d 7d e4	 lea	 edi, DWORD PTR _v3Cross$[ebp]
  0062f	a5		 movsd
  00630	a5		 movsd
  00631	a5		 movsd

; 177  : 					v3Up = v3Temp;

  00632	8d b5 70 fe ff
	ff		 lea	 esi, DWORD PTR _v3Temp$22[ebp]
  00638	8d 7d f0	 lea	 edi, DWORD PTR _v3Up$[ebp]
  0063b	a5		 movsd
  0063c	a5		 movsd
  0063d	a5		 movsd
$LN9@Transform:

; 178  : 				}
; 179  : 
; 180  : 				//D3DXVECTOR3 v3Rotation;
; 181  : 				//D3DXVec3Cross(&v3Rotation, &v3Up, &v3Cross);
; 182  : 
; 183  : 			}
; 184  : 			break;

  0063e	e9 f6 02 00 00	 jmp	 $LN2@Transform
$LN10@Transform:

; 185  : 		case BILLBOARD_TYPE_ALL:
; 186  : 		default:
; 187  : 			{
; 188  : 				// NOTE : Rotation Routine. Camera Up Vector Cross Vector  View Vector 
; 189  : 				//        Rotation .
; 190  : 				// FIXME :    !
; 191  : 				if (m_fRotation==0.0f)

  00643	8b 85 60 fe ff
	ff		 mov	 eax, DWORD PTR _this$[ebp]
  00649	f3 0f 10 40 40	 movss	 xmm0, DWORD PTR [eax+64]
  0064e	0f 2e 05 00 00
	00 00		 ucomiss xmm0, DWORD PTR __real@00000000
  00655	9f		 lahf
  00656	f6 c4 44	 test	 ah, 68			; 00000044H
  00659	0f 8a 9a 00 00
	00		 jp	 $LN11@Transform
; File D:\Metin2 Server Files\mainline\SRC_2014\M2Data\include\d3dx8math.inl

; 249  :     return D3DXVECTOR3(-x, -y, -z);

  0065f	8b 85 54 fe ff
	ff		 mov	 eax, DWORD PTR _c_rv3Cross$18[ebp]
  00665	f3 0f 10 00	 movss	 xmm0, DWORD PTR [eax]
  00669	0f 57 05 00 00
	00 00		 xorps	 xmm0, DWORD PTR __xmm@80000000800000008000000080000000
  00670	f3 0f 11 85 80
	fc ff ff	 movss	 DWORD PTR _fx$[ebp], xmm0
  00678	8b 85 54 fe ff
	ff		 mov	 eax, DWORD PTR _c_rv3Cross$18[ebp]
  0067e	f3 0f 10 40 04	 movss	 xmm0, DWORD PTR [eax+4]
  00683	0f 57 05 00 00
	00 00		 xorps	 xmm0, DWORD PTR __xmm@80000000800000008000000080000000
  0068a	f3 0f 11 85 7c
	fc ff ff	 movss	 DWORD PTR _fy$[ebp], xmm0
  00692	8b 85 54 fe ff
	ff		 mov	 eax, DWORD PTR _c_rv3Cross$18[ebp]
  00698	f3 0f 10 40 08	 movss	 xmm0, DWORD PTR [eax+8]
  0069d	0f 57 05 00 00
	00 00		 xorps	 xmm0, DWORD PTR __xmm@80000000800000008000000080000000
  006a4	f3 0f 11 85 78
	fc ff ff	 movss	 DWORD PTR _fz$[ebp], xmm0

; 180  :     x = fx;

  006ac	f3 0f 10 85 80
	fc ff ff	 movss	 xmm0, DWORD PTR _fx$[ebp]
  006b4	f3 0f 11 85 64
	fe ff ff	 movss	 DWORD PTR $T21[ebp], xmm0

; 181  :     y = fy;

  006bc	f3 0f 10 85 7c
	fc ff ff	 movss	 xmm0, DWORD PTR _fy$[ebp]
  006c4	f3 0f 11 85 68
	fe ff ff	 movss	 DWORD PTR $T21[ebp+4], xmm0

; 182  :     z = fz;

  006cc	f3 0f 10 85 78
	fc ff ff	 movss	 xmm0, DWORD PTR _fz$[ebp]
  006d4	f3 0f 11 85 6c
	fe ff ff	 movss	 DWORD PTR $T21[ebp+8], xmm0
; File D:\Metin2 Server Files\mainline\SRC_2014\Metin2Client\EffectLib\ParticleInstance.cpp

; 193  : 					v3Up = -c_rv3Cross;

  006dc	8d b5 64 fe ff
	ff		 lea	 esi, DWORD PTR $T21[ebp]
  006e2	8d 7d f0	 lea	 edi, DWORD PTR _v3Up$[ebp]
  006e5	a5		 movsd
  006e6	a5		 movsd
  006e7	a5		 movsd

; 194  : 					v3Cross = c_rv3Up;

  006e8	8b b5 44 fe ff
	ff		 mov	 esi, DWORD PTR _c_rv3Up$15[ebp]
  006ee	8d 7d e4	 lea	 edi, DWORD PTR _v3Cross$[ebp]
  006f1	a5		 movsd
  006f2	a5		 movsd
  006f3	a5		 movsd

; 195  : 				}

  006f4	e9 40 02 00 00	 jmp	 $LN12@Transform
$LN11@Transform:
; File D:\Metin2 Server Files\mainline\SRC_2014\Metin2Client\eterLib\Camera.h

; 171  : 		const D3DXVECTOR3 & GetView() const		{ return m_v3View; }

  006f9	8b 85 40 fe ff
	ff		 mov	 eax, DWORD PTR _pCurrentCamera$14[ebp]
  006ff	83 c0 54	 add	 eax, 84			; 00000054H
; File D:\Metin2 Server Files\mainline\SRC_2014\Metin2Client\EffectLib\ParticleInstance.cpp

; 198  : 					const D3DXVECTOR3 & c_rv3View = pCurrentCamera->GetView();

  00702	89 85 74 fc ff
	ff		 mov	 DWORD PTR _c_rv3View$3[ebp], eax

; 199  : 					D3DXQUATERNION q,qc;
; 200  : 					D3DXQuaternionRotationAxis(&q, &c_rv3View, D3DXToRadian(m_fRotation));

  00708	8b 85 60 fe ff
	ff		 mov	 eax, DWORD PTR _this$[ebp]
  0070e	f3 0f 10 40 40	 movss	 xmm0, DWORD PTR [eax+64]
  00713	f3 0f 59 05 00
	00 00 00	 mulss	 xmm0, DWORD PTR __real@3c8efa35
  0071b	51		 push	 ecx
  0071c	f3 0f 11 04 24	 movss	 DWORD PTR [esp], xmm0
  00721	ff b5 74 fc ff
	ff		 push	 DWORD PTR _c_rv3View$3[ebp]
  00727	8d 85 54 fc ff
	ff		 lea	 eax, DWORD PTR _q$2[ebp]
  0072d	50		 push	 eax
  0072e	e8 00 00 00 00	 call	 _D3DXQuaternionRotationAxis@12
; File D:\Metin2 Server Files\mainline\SRC_2014\M2Data\include\d3dx8math.inl

; 1616 :     pOut->x = -pQ->x;

  00733	f3 0f 10 85 54
	fc ff ff	 movss	 xmm0, DWORD PTR _q$2[ebp]
  0073b	0f 57 05 00 00
	00 00		 xorps	 xmm0, DWORD PTR __xmm@80000000800000008000000080000000
  00742	f3 0f 11 85 44
	fc ff ff	 movss	 DWORD PTR _qc$1[ebp], xmm0

; 1617 :     pOut->y = -pQ->y;

  0074a	f3 0f 10 85 58
	fc ff ff	 movss	 xmm0, DWORD PTR _q$2[ebp+4]
  00752	0f 57 05 00 00
	00 00		 xorps	 xmm0, DWORD PTR __xmm@80000000800000008000000080000000
  00759	f3 0f 11 85 48
	fc ff ff	 movss	 DWORD PTR _qc$1[ebp+4], xmm0

; 1618 :     pOut->z = -pQ->z;

  00761	f3 0f 10 85 5c
	fc ff ff	 movss	 xmm0, DWORD PTR _q$2[ebp+8]
  00769	0f 57 05 00 00
	00 00		 xorps	 xmm0, DWORD PTR __xmm@80000000800000008000000080000000
  00770	f3 0f 11 85 4c
	fc ff ff	 movss	 DWORD PTR _qc$1[ebp+8], xmm0

; 1619 :     pOut->w =  pQ->w;

  00778	f3 0f 10 85 60
	fc ff ff	 movss	 xmm0, DWORD PTR _q$2[ebp+12]
  00780	f3 0f 11 85 50
	fc ff ff	 movss	 DWORD PTR _qc$1[ebp+12], xmm0
; File D:\Metin2 Server Files\mainline\SRC_2014\Metin2Client\EffectLib\ParticleInstance.cpp

; 204  : 						D3DXQUATERNION qr(-c_rv3Cross.x, -c_rv3Cross.y, -c_rv3Cross.z, 0);

  00788	8b 85 54 fe ff
	ff		 mov	 eax, DWORD PTR _c_rv3Cross$18[ebp]
  0078e	f3 0f 10 00	 movss	 xmm0, DWORD PTR [eax]
  00792	0f 57 05 00 00
	00 00		 xorps	 xmm0, DWORD PTR __xmm@80000000800000008000000080000000
  00799	f3 0f 11 85 70
	fc ff ff	 movss	 DWORD PTR _fx$[ebp], xmm0
  007a1	8b 85 54 fe ff
	ff		 mov	 eax, DWORD PTR _c_rv3Cross$18[ebp]
  007a7	f3 0f 10 40 04	 movss	 xmm0, DWORD PTR [eax+4]
  007ac	0f 57 05 00 00
	00 00		 xorps	 xmm0, DWORD PTR __xmm@80000000800000008000000080000000
  007b3	f3 0f 11 85 6c
	fc ff ff	 movss	 DWORD PTR _fy$[ebp], xmm0
  007bb	8b 85 54 fe ff
	ff		 mov	 eax, DWORD PTR _c_rv3Cross$18[ebp]
  007c1	f3 0f 10 40 08	 movss	 xmm0, DWORD PTR [eax+8]
  007c6	0f 57 05 00 00
	00 00		 xorps	 xmm0, DWORD PTR __xmm@80000000800000008000000080000000
  007cd	f3 0f 11 85 68
	fc ff ff	 movss	 DWORD PTR _fz$[ebp], xmm0
; File D:\Metin2 Server Files\mainline\SRC_2014\M2Data\include\d3dx8math.inl

; 667  :     x = fx;

  007d5	f3 0f 10 85 70
	fc ff ff	 movss	 xmm0, DWORD PTR _fx$[ebp]
  007dd	f3 0f 11 85 00
	fe ff ff	 movss	 DWORD PTR _qr$10[ebp], xmm0

; 668  :     y = fy;

  007e5	f3 0f 10 85 6c
	fc ff ff	 movss	 xmm0, DWORD PTR _fy$[ebp]
  007ed	f3 0f 11 85 04
	fe ff ff	 movss	 DWORD PTR _qr$10[ebp+4], xmm0

; 669  :     z = fz;

  007f5	f3 0f 10 85 68
	fc ff ff	 movss	 xmm0, DWORD PTR _fz$[ebp]
  007fd	f3 0f 11 85 08
	fe ff ff	 movss	 DWORD PTR _qr$10[ebp+8], xmm0

; 670  :     w = fw;

  00805	0f 57 c0	 xorps	 xmm0, xmm0
  00808	f3 0f 11 85 0c
	fe ff ff	 movss	 DWORD PTR _qr$10[ebp+12], xmm0
; File D:\Metin2 Server Files\mainline\SRC_2014\Metin2Client\EffectLib\ParticleInstance.cpp

; 205  : 						D3DXQuaternionMultiply(&qr,&qc,&qr);

  00810	8d 85 00 fe ff
	ff		 lea	 eax, DWORD PTR _qr$10[ebp]
  00816	50		 push	 eax
  00817	8d 85 44 fc ff
	ff		 lea	 eax, DWORD PTR _qc$1[ebp]
  0081d	50		 push	 eax
  0081e	8d 85 00 fe ff
	ff		 lea	 eax, DWORD PTR _qr$10[ebp]
  00824	50		 push	 eax
  00825	e8 00 00 00 00	 call	 _D3DXQuaternionMultiply@12

; 206  : 						D3DXQuaternionMultiply(&qr,&qr,&q);

  0082a	8d 85 54 fc ff
	ff		 lea	 eax, DWORD PTR _q$2[ebp]
  00830	50		 push	 eax
  00831	8d 85 00 fe ff
	ff		 lea	 eax, DWORD PTR _qr$10[ebp]
  00837	50		 push	 eax
  00838	8d 85 00 fe ff
	ff		 lea	 eax, DWORD PTR _qr$10[ebp]
  0083e	50		 push	 eax
  0083f	e8 00 00 00 00	 call	 _D3DXQuaternionMultiply@12

; 207  : 						v3Up.x = qr.x;

  00844	f3 0f 10 85 00
	fe ff ff	 movss	 xmm0, DWORD PTR _qr$10[ebp]
  0084c	f3 0f 11 45 f0	 movss	 DWORD PTR _v3Up$[ebp], xmm0

; 208  : 						v3Up.y = qr.y;

  00851	f3 0f 10 85 04
	fe ff ff	 movss	 xmm0, DWORD PTR _qr$10[ebp+4]
  00859	f3 0f 11 45 f4	 movss	 DWORD PTR _v3Up$[ebp+4], xmm0

; 209  : 						v3Up.z = qr.z;

  0085e	f3 0f 10 85 08
	fe ff ff	 movss	 xmm0, DWORD PTR _qr$10[ebp+8]
  00866	f3 0f 11 45 f8	 movss	 DWORD PTR _v3Up$[ebp+8], xmm0

; 210  : 					}
; 211  : 					{
; 212  : 						D3DXQUATERNION qr(c_rv3Up.x, c_rv3Up.y, c_rv3Up.z, 0);

  0086b	8b 85 44 fe ff
	ff		 mov	 eax, DWORD PTR _c_rv3Up$15[ebp]
  00871	f3 0f 10 00	 movss	 xmm0, DWORD PTR [eax]
  00875	f3 0f 11 85 64
	fc ff ff	 movss	 DWORD PTR _fx$[ebp], xmm0
  0087d	8b 85 44 fe ff
	ff		 mov	 eax, DWORD PTR _c_rv3Up$15[ebp]
  00883	f3 0f 10 40 04	 movss	 xmm0, DWORD PTR [eax+4]
  00888	f3 0f 11 85 ec
	fd ff ff	 movss	 DWORD PTR _fy$[ebp], xmm0
  00890	8b 85 44 fe ff
	ff		 mov	 eax, DWORD PTR _c_rv3Up$15[ebp]
  00896	f3 0f 10 40 08	 movss	 xmm0, DWORD PTR [eax+8]
  0089b	f3 0f 11 85 e8
	fd ff ff	 movss	 DWORD PTR _fz$[ebp], xmm0
; File D:\Metin2 Server Files\mainline\SRC_2014\M2Data\include\d3dx8math.inl

; 667  :     x = fx;

  008a3	f3 0f 10 85 64
	fc ff ff	 movss	 xmm0, DWORD PTR _fx$[ebp]
  008ab	f3 0f 11 85 f0
	fd ff ff	 movss	 DWORD PTR _qr$9[ebp], xmm0

; 668  :     y = fy;

  008b3	f3 0f 10 85 ec
	fd ff ff	 movss	 xmm0, DWORD PTR _fy$[ebp]
  008bb	f3 0f 11 85 f4
	fd ff ff	 movss	 DWORD PTR _qr$9[ebp+4], xmm0

; 669  :     z = fz;

  008c3	f3 0f 10 85 e8
	fd ff ff	 movss	 xmm0, DWORD PTR _fz$[ebp]
  008cb	f3 0f 11 85 f8
	fd ff ff	 movss	 DWORD PTR _qr$9[ebp+8], xmm0

; 670  :     w = fw;

  008d3	0f 57 c0	 xorps	 xmm0, xmm0
  008d6	f3 0f 11 85 fc
	fd ff ff	 movss	 DWORD PTR _qr$9[ebp+12], xmm0
; File D:\Metin2 Server Files\mainline\SRC_2014\Metin2Client\EffectLib\ParticleInstance.cpp

; 213  : 						D3DXQuaternionMultiply(&qr,&qc,&qr);

  008de	8d 85 f0 fd ff
	ff		 lea	 eax, DWORD PTR _qr$9[ebp]
  008e4	50		 push	 eax
  008e5	8d 85 44 fc ff
	ff		 lea	 eax, DWORD PTR _qc$1[ebp]
  008eb	50		 push	 eax
  008ec	8d 85 f0 fd ff
	ff		 lea	 eax, DWORD PTR _qr$9[ebp]
  008f2	50		 push	 eax
  008f3	e8 00 00 00 00	 call	 _D3DXQuaternionMultiply@12

; 214  : 						D3DXQuaternionMultiply(&qr,&qr,&q);

  008f8	8d 85 54 fc ff
	ff		 lea	 eax, DWORD PTR _q$2[ebp]
  008fe	50		 push	 eax
  008ff	8d 85 f0 fd ff
	ff		 lea	 eax, DWORD PTR _qr$9[ebp]
  00905	50		 push	 eax
  00906	8d 85 f0 fd ff
	ff		 lea	 eax, DWORD PTR _qr$9[ebp]
  0090c	50		 push	 eax
  0090d	e8 00 00 00 00	 call	 _D3DXQuaternionMultiply@12

; 215  : 						v3Cross.x = qr.x;

  00912	f3 0f 10 85 f0
	fd ff ff	 movss	 xmm0, DWORD PTR _qr$9[ebp]
  0091a	f3 0f 11 45 e4	 movss	 DWORD PTR _v3Cross$[ebp], xmm0

; 216  : 						v3Cross.y = qr.y;

  0091f	f3 0f 10 85 f4
	fd ff ff	 movss	 xmm0, DWORD PTR _qr$9[ebp+4]
  00927	f3 0f 11 45 e8	 movss	 DWORD PTR _v3Cross$[ebp+4], xmm0

; 217  : 						v3Cross.z = qr.z;

  0092c	f3 0f 10 85 f8
	fd ff ff	 movss	 xmm0, DWORD PTR _qr$9[ebp+8]
  00934	f3 0f 11 45 ec	 movss	 DWORD PTR _v3Cross$[ebp+8], xmm0
$LN12@Transform:
$LN2@Transform:

; 218  : 					}
; 219  : 
; 220  : 				}
; 221  : 				//D3DXMATRIX matRotation;
; 222  : 				
; 223  : 				//D3DXMatrixRotationAxis(&matRotation, &c_rv3View, D3DXToRadian(m_fRotation));
; 224  : 				
; 225  : 				//D3DXVec3TransformCoord(&v3Up, &(-c_rv3Cross), &matRotation);
; 226  : 				//D3DXVec3TransformCoord(&v3Cross, &c_rv3Up, &matRotation);
; 227  : 			}
; 228  : 			break;
; 229  : 		} 
; 230  : 
; 231  : 	}

  00939	e9 9f 02 00 00	 jmp	 $LN5@Transform
$LN4@Transform:

; 234  : 		v3Up = m_v3Position - m_v3LastPosition;

  0093e	8b 85 60 fe ff
	ff		 mov	 eax, DWORD PTR _this$[ebp]
  00944	83 c0 18	 add	 eax, 24			; 00000018H
  00947	89 85 38 fe ff
	ff		 mov	 DWORD PTR _v$[ebp], eax
  0094d	8b 85 60 fe ff
	ff		 mov	 eax, DWORD PTR _this$[ebp]
  00953	83 c0 0c	 add	 eax, 12			; 0000000cH
  00956	89 85 3c fe ff
	ff		 mov	 DWORD PTR _this$[ebp], eax
; File D:\Metin2 Server Files\mainline\SRC_2014\M2Data\include\d3dx8math.inl

; 263  :     return D3DXVECTOR3(x - v.x, y - v.y, z - v.z);

  0095c	8b 85 3c fe ff
	ff		 mov	 eax, DWORD PTR _this$[ebp]
  00962	8b 8d 38 fe ff
	ff		 mov	 ecx, DWORD PTR _v$[ebp]
  00968	f3 0f 10 00	 movss	 xmm0, DWORD PTR [eax]
  0096c	f3 0f 5c 01	 subss	 xmm0, DWORD PTR [ecx]
  00970	f3 0f 11 85 e4
	fd ff ff	 movss	 DWORD PTR _fx$[ebp], xmm0
  00978	8b 85 3c fe ff
	ff		 mov	 eax, DWORD PTR _this$[ebp]
  0097e	8b 8d 38 fe ff
	ff		 mov	 ecx, DWORD PTR _v$[ebp]
  00984	f3 0f 10 40 04	 movss	 xmm0, DWORD PTR [eax+4]
  00989	f3 0f 5c 41 04	 subss	 xmm0, DWORD PTR [ecx+4]
  0098e	f3 0f 11 85 e0
	fd ff ff	 movss	 DWORD PTR _fy$[ebp], xmm0
  00996	8b 85 3c fe ff
	ff		 mov	 eax, DWORD PTR _this$[ebp]
  0099c	8b 8d 38 fe ff
	ff		 mov	 ecx, DWORD PTR _v$[ebp]
  009a2	f3 0f 10 40 08	 movss	 xmm0, DWORD PTR [eax+8]
  009a7	f3 0f 5c 41 08	 subss	 xmm0, DWORD PTR [ecx+8]
  009ac	f3 0f 11 85 dc
	fd ff ff	 movss	 DWORD PTR _fz$[ebp], xmm0

; 180  :     x = fx;

  009b4	f3 0f 10 85 e4
	fd ff ff	 movss	 xmm0, DWORD PTR _fx$[ebp]
  009bc	f3 0f 11 85 30
	ff ff ff	 movss	 DWORD PTR $T38[ebp], xmm0

; 181  :     y = fy;

  009c4	f3 0f 10 85 e0
	fd ff ff	 movss	 xmm0, DWORD PTR _fy$[ebp]
  009cc	f3 0f 11 85 34
	ff ff ff	 movss	 DWORD PTR $T38[ebp+4], xmm0

; 182  :     z = fz;

  009d4	f3 0f 10 85 dc
	fd ff ff	 movss	 xmm0, DWORD PTR _fz$[ebp]
  009dc	f3 0f 11 85 38
	ff ff ff	 movss	 DWORD PTR $T38[ebp+8], xmm0
; File D:\Metin2 Server Files\mainline\SRC_2014\Metin2Client\EffectLib\ParticleInstance.cpp

; 234  : 		v3Up = m_v3Position - m_v3LastPosition;

  009e4	8d b5 30 ff ff
	ff		 lea	 esi, DWORD PTR $T38[ebp]
  009ea	8d 7d f0	 lea	 edi, DWORD PTR _v3Up$[ebp]
  009ed	a5		 movsd
  009ee	a5		 movsd
  009ef	a5		 movsd

; 235  : 
; 236  : 		if (c_matLocal)

  009f0	83 7d 08 00	 cmp	 DWORD PTR _c_matLocal$[ebp], 0
  009f4	74 10		 je	 SHORT $LN13@Transform

; 237  : 		{
; 238  : 			//if (!m_pParticleProperty->m_bAttachFlag)
; 239  : 				D3DXVec3TransformNormal(&v3Up, &v3Up, c_matLocal);

  009f6	ff 75 08	 push	 DWORD PTR _c_matLocal$[ebp]
  009f9	8d 45 f0	 lea	 eax, DWORD PTR _v3Up$[ebp]
  009fc	50		 push	 eax
  009fd	8d 45 f0	 lea	 eax, DWORD PTR _v3Up$[ebp]
  00a00	50		 push	 eax
  00a01	e8 00 00 00 00	 call	 _D3DXVec3TransformNormal@12
$LN13@Transform:
; File D:\Metin2 Server Files\mainline\SRC_2014\M2Data\include\d3dx8math.inl

; 1239 :     return sqrtf(pV->x * pV->x + pV->y * pV->y + pV->z * pV->z);

  00a06	f3 0f 10 45 f8	 movss	 xmm0, DWORD PTR _v3Up$[ebp+8]
  00a0b	f3 0f 59 45 f8	 mulss	 xmm0, DWORD PTR _v3Up$[ebp+8]
  00a10	f3 0f 10 4d f4	 movss	 xmm1, DWORD PTR _v3Up$[ebp+4]
  00a15	f3 0f 59 4d f4	 mulss	 xmm1, DWORD PTR _v3Up$[ebp+4]
  00a1a	f3 0f 10 55 f0	 movss	 xmm2, DWORD PTR _v3Up$[ebp]
  00a1f	f3 0f 59 55 f0	 mulss	 xmm2, DWORD PTR _v3Up$[ebp]
  00a24	f3 0f 58 d1	 addss	 xmm2, xmm1
  00a28	f3 0f 58 d0	 addss	 xmm2, xmm0
  00a2c	f3 0f 11 95 d8
	fd ff ff	 movss	 DWORD PTR __X$[ebp], xmm2
; File C:\Program Files (x86)\Windows Kits\10\Include\10.0.18362.0\ucrt\corecrt_math.h

; 760  :             return (float)sqrt(_X);

  00a34	f3 0f 5a 85 d8
	fd ff ff	 cvtss2sd xmm0, DWORD PTR __X$[ebp]
  00a3c	51		 push	 ecx
  00a3d	51		 push	 ecx
  00a3e	f2 0f 11 04 24	 movsd	 QWORD PTR [esp], xmm0
  00a43	e8 00 00 00 00	 call	 _sqrt
  00a48	59		 pop	 ecx
  00a49	59		 pop	 ecx
; File D:\Metin2 Server Files\mainline\SRC_2014\Metin2Client\EffectLib\ParticleInstance.cpp

; 243  : 		float length = D3DXVec3Length(&v3Up);

  00a4a	d9 9d 34 fe ff
	ff		 fstp	 DWORD PTR _length$13[ebp]

; 244  : 		if (length == 0.0f)

  00a50	f3 0f 10 85 34
	fe ff ff	 movss	 xmm0, DWORD PTR _length$13[ebp]
  00a58	0f 2e 05 00 00
	00 00		 ucomiss xmm0, DWORD PTR __real@00000000
  00a5f	9f		 lahf
  00a60	f6 c4 44	 test	 ah, 68			; 00000044H
  00a63	7a 34		 jp	 SHORT $LN14@Transform
; File D:\Metin2 Server Files\mainline\SRC_2014\M2Data\include\d3dx8math.inl

; 180  :     x = fx;

  00a65	0f 57 c0	 xorps	 xmm0, xmm0
  00a68	f3 0f 11 85 24
	ff ff ff	 movss	 DWORD PTR $T37[ebp], xmm0

; 181  :     y = fy;

  00a70	0f 57 c0	 xorps	 xmm0, xmm0
  00a73	f3 0f 11 85 28
	ff ff ff	 movss	 DWORD PTR $T37[ebp+4], xmm0

; 182  :     z = fz;

  00a7b	f3 0f 10 05 00
	00 00 00	 movss	 xmm0, DWORD PTR __real@3f800000
  00a83	f3 0f 11 85 2c
	ff ff ff	 movss	 DWORD PTR $T37[ebp+8], xmm0
; File D:\Metin2 Server Files\mainline\SRC_2014\Metin2Client\EffectLib\ParticleInstance.cpp

; 246  : 			v3Up = D3DXVECTOR3(0.0f,0.0f,1.0f);

  00a8b	8d b5 24 ff ff
	ff		 lea	 esi, DWORD PTR $T37[ebp]
  00a91	8d 7d f0	 lea	 edi, DWORD PTR _v3Up$[ebp]
  00a94	a5		 movsd
  00a95	a5		 movsd
  00a96	a5		 movsd

; 247  : 		}

  00a97	eb 7e		 jmp	 SHORT $LN110@Transform
$LN14@Transform:

; 249  : 			v3Up *=(1+log(1+length))/length;

  00a99	f3 0f 10 05 00
	00 00 00	 movss	 xmm0, DWORD PTR __real@3f800000
  00aa1	f3 0f 58 85 34
	fe ff ff	 addss	 xmm0, DWORD PTR _length$13[ebp]
; File C:\Program Files (x86)\Windows Kits\10\Include\10.0.18362.0\ucrt\corecrt_math.h

; 732  :             return (float)log(_X);

  00aa9	f3 0f 5a c0	 cvtss2sd xmm0, xmm0
  00aad	51		 push	 ecx
  00aae	51		 push	 ecx
  00aaf	f2 0f 11 04 24	 movsd	 QWORD PTR [esp], xmm0
  00ab4	e8 00 00 00 00	 call	 _log
  00ab9	59		 pop	 ecx
  00aba	59		 pop	 ecx
; File C:\Program Files (x86)\Microsoft Visual Studio\2019\Community\VC\Tools\MSVC\14.28.29333\include\cmath

; 151  :     return _CSTD logf(_Xx);

  00abb	d9 9d d4 fd ff
	ff		 fstp	 DWORD PTR $T8[ebp]
; File D:\Metin2 Server Files\mainline\SRC_2014\Metin2Client\EffectLib\ParticleInstance.cpp

; 249  : 			v3Up *=(1+log(1+length))/length;

  00ac1	f3 0f 10 05 00
	00 00 00	 movss	 xmm0, DWORD PTR __real@3f800000
  00ac9	f3 0f 58 85 d4
	fd ff ff	 addss	 xmm0, DWORD PTR $T8[ebp]
  00ad1	f3 0f 5e 85 34
	fe ff ff	 divss	 xmm0, DWORD PTR _length$13[ebp]
  00ad9	f3 0f 11 85 30
	fe ff ff	 movss	 DWORD PTR _f$[ebp], xmm0
; File D:\Metin2 Server Files\mainline\SRC_2014\M2Data\include\d3dx8math.inl

; 222  :     x *= f;

  00ae1	f3 0f 10 45 f0	 movss	 xmm0, DWORD PTR _v3Up$[ebp]
  00ae6	f3 0f 59 85 30
	fe ff ff	 mulss	 xmm0, DWORD PTR _f$[ebp]
  00aee	f3 0f 11 45 f0	 movss	 DWORD PTR _v3Up$[ebp], xmm0

; 223  :     y *= f;

  00af3	f3 0f 10 45 f4	 movss	 xmm0, DWORD PTR _v3Up$[ebp+4]
  00af8	f3 0f 59 85 30
	fe ff ff	 mulss	 xmm0, DWORD PTR _f$[ebp]
  00b00	f3 0f 11 45 f4	 movss	 DWORD PTR _v3Up$[ebp+4], xmm0

; 224  :     z *= f;

  00b05	f3 0f 10 45 f8	 movss	 xmm0, DWORD PTR _v3Up$[ebp+8]
  00b0a	f3 0f 59 85 30
	fe ff ff	 mulss	 xmm0, DWORD PTR _f$[ebp]
  00b12	f3 0f 11 45 f8	 movss	 DWORD PTR _v3Up$[ebp+8], xmm0
$LN110@Transform:
; File D:\Metin2 Server Files\mainline\SRC_2014\Metin2Client\eterBase\Singleton.h

; 27   : 		return (*ms_singleton);

  00b17	a1 00 00 00 00	 mov	 eax, DWORD PTR ?ms_singleton@?$CSingleton@VCCameraManager@@@@0PAVCCameraManager@@A ; CSingleton<CCameraManager>::ms_singleton
  00b1c	89 85 d0 fd ff
	ff		 mov	 DWORD PTR $T7[ebp], eax
; File D:\Metin2 Server Files\mainline\SRC_2014\Metin2Client\EffectLib\ParticleInstance.cpp

; 251  : 		CCamera * pCurrentCamera = CCameraManager::Instance().GetCurrentCamera();

  00b22	8b 8d d0 fd ff
	ff		 mov	 ecx, DWORD PTR $T7[ebp]
  00b28	e8 00 00 00 00	 call	 ?GetCurrentCamera@CCameraManager@@QAEPAVCCamera@@XZ ; CCameraManager::GetCurrentCamera
  00b2d	89 85 cc fd ff
	ff		 mov	 DWORD PTR _pCurrentCamera$6[ebp], eax
; File D:\Metin2 Server Files\mainline\SRC_2014\Metin2Client\eterLib\Camera.h

; 171  : 		const D3DXVECTOR3 & GetView() const		{ return m_v3View; }

  00b33	8b 85 cc fd ff
	ff		 mov	 eax, DWORD PTR _pCurrentCamera$6[ebp]
  00b39	83 c0 54	 add	 eax, 84			; 00000054H
; File D:\Metin2 Server Files\mainline\SRC_2014\Metin2Client\EffectLib\ParticleInstance.cpp

; 252  : 		const D3DXVECTOR3 & c_rv3View = pCurrentCamera->GetView();

  00b3c	89 85 50 fe ff
	ff		 mov	 DWORD PTR _c_rv3View$17[ebp], eax
; File D:\Metin2 Server Files\mainline\SRC_2014\M2Data\include\d3dx8math.inl

; 1277 :     v.x = pV1->y * pV2->z - pV1->z * pV2->y;

  00b42	8b 85 50 fe ff
	ff		 mov	 eax, DWORD PTR _c_rv3View$17[ebp]
  00b48	f3 0f 10 45 f4	 movss	 xmm0, DWORD PTR _v3Up$[ebp+4]
  00b4d	f3 0f 59 40 08	 mulss	 xmm0, DWORD PTR [eax+8]
  00b52	8b 85 50 fe ff
	ff		 mov	 eax, DWORD PTR _c_rv3View$17[ebp]
  00b58	f3 0f 10 4d f8	 movss	 xmm1, DWORD PTR _v3Up$[ebp+8]
  00b5d	f3 0f 59 48 04	 mulss	 xmm1, DWORD PTR [eax+4]
  00b62	f3 0f 5c c1	 subss	 xmm0, xmm1
  00b66	f3 0f 11 85 18
	ff ff ff	 movss	 DWORD PTR _v$36[ebp], xmm0

; 1278 :     v.y = pV1->z * pV2->x - pV1->x * pV2->z;

  00b6e	8b 85 50 fe ff
	ff		 mov	 eax, DWORD PTR _c_rv3View$17[ebp]
  00b74	f3 0f 10 45 f8	 movss	 xmm0, DWORD PTR _v3Up$[ebp+8]
  00b79	f3 0f 59 00	 mulss	 xmm0, DWORD PTR [eax]
  00b7d	8b 85 50 fe ff
	ff		 mov	 eax, DWORD PTR _c_rv3View$17[ebp]
  00b83	f3 0f 10 4d f0	 movss	 xmm1, DWORD PTR _v3Up$[ebp]
  00b88	f3 0f 59 48 08	 mulss	 xmm1, DWORD PTR [eax+8]
  00b8d	f3 0f 5c c1	 subss	 xmm0, xmm1
  00b91	f3 0f 11 85 1c
	ff ff ff	 movss	 DWORD PTR _v$36[ebp+4], xmm0

; 1279 :     v.z = pV1->x * pV2->y - pV1->y * pV2->x;

  00b99	8b 85 50 fe ff
	ff		 mov	 eax, DWORD PTR _c_rv3View$17[ebp]
  00b9f	f3 0f 10 45 f0	 movss	 xmm0, DWORD PTR _v3Up$[ebp]
  00ba4	f3 0f 59 40 04	 mulss	 xmm0, DWORD PTR [eax+4]
  00ba9	8b 85 50 fe ff
	ff		 mov	 eax, DWORD PTR _c_rv3View$17[ebp]
  00baf	f3 0f 10 4d f4	 movss	 xmm1, DWORD PTR _v3Up$[ebp+4]
  00bb4	f3 0f 59 08	 mulss	 xmm1, DWORD PTR [eax]
  00bb8	f3 0f 5c c1	 subss	 xmm0, xmm1
  00bbc	f3 0f 11 85 20
	ff ff ff	 movss	 DWORD PTR _v$36[ebp+8], xmm0

; 1280 : 
; 1281 :     *pOut = v;

  00bc4	8d b5 18 ff ff
	ff		 lea	 esi, DWORD PTR _v$36[ebp]
  00bca	8d 7d e4	 lea	 edi, DWORD PTR _v3Cross$[ebp]
  00bcd	a5		 movsd
  00bce	a5		 movsd
  00bcf	a5		 movsd
; File D:\Metin2 Server Files\mainline\SRC_2014\Metin2Client\EffectLib\ParticleInstance.cpp

; 254  : 		D3DXVec3Normalize(&v3Cross, &v3Cross);

  00bd0	8d 45 e4	 lea	 eax, DWORD PTR _v3Cross$[ebp]
  00bd3	50		 push	 eax
  00bd4	8d 45 e4	 lea	 eax, DWORD PTR _v3Cross$[ebp]
  00bd7	50		 push	 eax
  00bd8	e8 00 00 00 00	 call	 _D3DXVec3Normalize@8
$LN5@Transform:

; 258  : 	v3Cross = -(m_v2HalfSize.x*m_v2Scale.x) * v3Cross;

  00bdd	8b 85 60 fe ff
	ff		 mov	 eax, DWORD PTR _this$[ebp]
  00be3	8b 8d 60 fe ff
	ff		 mov	 ecx, DWORD PTR _this$[ebp]
  00be9	f3 0f 10 40 30	 movss	 xmm0, DWORD PTR [eax+48]
  00bee	f3 0f 59 41 38	 mulss	 xmm0, DWORD PTR [ecx+56]
  00bf3	0f 57 05 00 00
	00 00		 xorps	 xmm0, DWORD PTR __xmm@80000000800000008000000080000000
  00bfa	f3 0f 11 85 18
	fe ff ff	 movss	 DWORD PTR _f$[ebp], xmm0
; File D:\Metin2 Server Files\mainline\SRC_2014\M2Data\include\d3dx8math.inl

; 283  :     return D3DXVECTOR3(f * v.x, f * v.y, f * v.z);

  00c02	f3 0f 10 85 18
	fe ff ff	 movss	 xmm0, DWORD PTR _f$[ebp]
  00c0a	f3 0f 59 45 e4	 mulss	 xmm0, DWORD PTR _v3Cross$[ebp]
  00c0f	f3 0f 11 85 c8
	fd ff ff	 movss	 DWORD PTR _fx$[ebp], xmm0
  00c17	f3 0f 10 85 18
	fe ff ff	 movss	 xmm0, DWORD PTR _f$[ebp]
  00c1f	f3 0f 59 45 e8	 mulss	 xmm0, DWORD PTR _v3Cross$[ebp+4]
  00c24	f3 0f 11 85 c4
	fd ff ff	 movss	 DWORD PTR _fy$[ebp], xmm0
  00c2c	f3 0f 10 85 18
	fe ff ff	 movss	 xmm0, DWORD PTR _f$[ebp]
  00c34	f3 0f 59 45 ec	 mulss	 xmm0, DWORD PTR _v3Cross$[ebp+8]
  00c39	f3 0f 11 85 c0
	fd ff ff	 movss	 DWORD PTR _fz$[ebp], xmm0

; 180  :     x = fx;

  00c41	f3 0f 10 85 c8
	fd ff ff	 movss	 xmm0, DWORD PTR _fx$[ebp]
  00c49	f3 0f 11 85 0c
	ff ff ff	 movss	 DWORD PTR $T35[ebp], xmm0

; 181  :     y = fy;

  00c51	f3 0f 10 85 c4
	fd ff ff	 movss	 xmm0, DWORD PTR _fy$[ebp]
  00c59	f3 0f 11 85 10
	ff ff ff	 movss	 DWORD PTR $T35[ebp+4], xmm0

; 182  :     z = fz;

  00c61	f3 0f 10 85 c0
	fd ff ff	 movss	 xmm0, DWORD PTR _fz$[ebp]
  00c69	f3 0f 11 85 14
	ff ff ff	 movss	 DWORD PTR $T35[ebp+8], xmm0
; File D:\Metin2 Server Files\mainline\SRC_2014\Metin2Client\EffectLib\ParticleInstance.cpp

; 258  : 	v3Cross = -(m_v2HalfSize.x*m_v2Scale.x) * v3Cross;

  00c71	8d b5 0c ff ff
	ff		 lea	 esi, DWORD PTR $T35[ebp]
  00c77	8d 7d e4	 lea	 edi, DWORD PTR _v3Cross$[ebp]
  00c7a	a5		 movsd
  00c7b	a5		 movsd
  00c7c	a5		 movsd

; 259  : 	v3Up = (m_v2HalfSize.y*m_v2Scale.y) * v3Up;

  00c7d	8b 85 60 fe ff
	ff		 mov	 eax, DWORD PTR _this$[ebp]
  00c83	8b 8d 60 fe ff
	ff		 mov	 ecx, DWORD PTR _this$[ebp]
  00c89	f3 0f 10 40 34	 movss	 xmm0, DWORD PTR [eax+52]
  00c8e	f3 0f 59 41 3c	 mulss	 xmm0, DWORD PTR [ecx+60]
  00c93	f3 0f 11 85 1c
	fe ff ff	 movss	 DWORD PTR _f$[ebp], xmm0
; File D:\Metin2 Server Files\mainline\SRC_2014\M2Data\include\d3dx8math.inl

; 283  :     return D3DXVECTOR3(f * v.x, f * v.y, f * v.z);

  00c9b	f3 0f 10 85 1c
	fe ff ff	 movss	 xmm0, DWORD PTR _f$[ebp]
  00ca3	f3 0f 59 45 f0	 mulss	 xmm0, DWORD PTR _v3Up$[ebp]
  00ca8	f3 0f 11 85 bc
	fd ff ff	 movss	 DWORD PTR _fx$[ebp], xmm0
  00cb0	f3 0f 10 85 1c
	fe ff ff	 movss	 xmm0, DWORD PTR _f$[ebp]
  00cb8	f3 0f 59 45 f4	 mulss	 xmm0, DWORD PTR _v3Up$[ebp+4]
  00cbd	f3 0f 11 85 b8
	fd ff ff	 movss	 DWORD PTR _fy$[ebp], xmm0
  00cc5	f3 0f 10 85 1c
	fe ff ff	 movss	 xmm0, DWORD PTR _f$[ebp]
  00ccd	f3 0f 59 45 f8	 mulss	 xmm0, DWORD PTR _v3Up$[ebp+8]
  00cd2	f3 0f 11 85 b4
	fd ff ff	 movss	 DWORD PTR _fz$[ebp], xmm0

; 180  :     x = fx;

  00cda	f3 0f 10 85 bc
	fd ff ff	 movss	 xmm0, DWORD PTR _fx$[ebp]
  00ce2	f3 0f 11 85 00
	ff ff ff	 movss	 DWORD PTR $T34[ebp], xmm0

; 181  :     y = fy;

  00cea	f3 0f 10 85 b8
	fd ff ff	 movss	 xmm0, DWORD PTR _fy$[ebp]
  00cf2	f3 0f 11 85 04
	ff ff ff	 movss	 DWORD PTR $T34[ebp+4], xmm0

; 182  :     z = fz;

  00cfa	f3 0f 10 85 b4
	fd ff ff	 movss	 xmm0, DWORD PTR _fz$[ebp]
  00d02	f3 0f 11 85 08
	ff ff ff	 movss	 DWORD PTR $T34[ebp+8], xmm0
; File D:\Metin2 Server Files\mainline\SRC_2014\Metin2Client\EffectLib\ParticleInstance.cpp

; 259  : 	v3Up = (m_v2HalfSize.y*m_v2Scale.y) * v3Up;

  00d0a	8d b5 00 ff ff
	ff		 lea	 esi, DWORD PTR $T34[ebp]
  00d10	8d 7d f0	 lea	 edi, DWORD PTR _v3Up$[ebp]
  00d13	a5		 movsd
  00d14	a5		 movsd
  00d15	a5		 movsd

; 260  : 
; 261  : 	if (c_matLocal && m_pParticleProperty->m_bAttachFlag)

  00d16	83 7d 08 00	 cmp	 DWORD PTR _c_matLocal$[ebp], 0
  00d1a	0f 84 9d 03 00
	00		 je	 $LN16@Transform
  00d20	8b 85 60 fe ff
	ff		 mov	 eax, DWORD PTR _this$[ebp]
  00d26	8b 40 5c	 mov	 eax, DWORD PTR [eax+92]
  00d29	83 78 20 00	 cmp	 DWORD PTR [eax+32], 0
  00d2d	0f 84 8a 03 00
	00		 je	 $LN16@Transform

; 262  : 	{
; 263  : 		D3DXVECTOR3 v3Position;
; 264  : 		D3DXVec3TransformCoord(&v3Position, &m_v3Position, c_matLocal);

  00d33	ff 75 08	 push	 DWORD PTR _c_matLocal$[ebp]
  00d36	8b 85 60 fe ff
	ff		 mov	 eax, DWORD PTR _this$[ebp]
  00d3c	83 c0 0c	 add	 eax, 12			; 0000000cH
  00d3f	50		 push	 eax
  00d40	8d 45 d8	 lea	 eax, DWORD PTR _v3Position$52[ebp]
  00d43	50		 push	 eax
  00d44	e8 00 00 00 00	 call	 _D3DXVec3TransformCoord@12
; File D:\Metin2 Server Files\mainline\SRC_2014\M2Data\include\d3dx8math.inl

; 263  :     return D3DXVECTOR3(x - v.x, y - v.y, z - v.z);

  00d49	f3 0f 10 45 d8	 movss	 xmm0, DWORD PTR _v3Position$52[ebp]
  00d4e	f3 0f 5c 45 f0	 subss	 xmm0, DWORD PTR _v3Up$[ebp]
  00d53	f3 0f 11 85 b0
	fd ff ff	 movss	 DWORD PTR _fx$[ebp], xmm0
  00d5b	f3 0f 10 45 dc	 movss	 xmm0, DWORD PTR _v3Position$52[ebp+4]
  00d60	f3 0f 5c 45 f4	 subss	 xmm0, DWORD PTR _v3Up$[ebp+4]
  00d65	f3 0f 11 85 ac
	fd ff ff	 movss	 DWORD PTR _fy$[ebp], xmm0
  00d6d	f3 0f 10 45 e0	 movss	 xmm0, DWORD PTR _v3Position$52[ebp+8]
  00d72	f3 0f 5c 45 f8	 subss	 xmm0, DWORD PTR _v3Up$[ebp+8]
  00d77	f3 0f 11 85 a8
	fd ff ff	 movss	 DWORD PTR _fz$[ebp], xmm0

; 180  :     x = fx;

  00d7f	f3 0f 10 85 b0
	fd ff ff	 movss	 xmm0, DWORD PTR _fx$[ebp]
  00d87	f3 0f 11 45 9c	 movss	 DWORD PTR $T47[ebp], xmm0

; 181  :     y = fy;

  00d8c	f3 0f 10 85 ac
	fd ff ff	 movss	 xmm0, DWORD PTR _fy$[ebp]
  00d94	f3 0f 11 45 a0	 movss	 DWORD PTR $T47[ebp+4], xmm0

; 182  :     z = fz;

  00d99	f3 0f 10 85 a8
	fd ff ff	 movss	 xmm0, DWORD PTR _fz$[ebp]
  00da1	f3 0f 11 45 a4	 movss	 DWORD PTR $T47[ebp+8], xmm0

; 257  :     return D3DXVECTOR3(x + v.x, y + v.y, z + v.z);

  00da6	f3 0f 10 45 9c	 movss	 xmm0, DWORD PTR $T47[ebp]
  00dab	f3 0f 58 45 e4	 addss	 xmm0, DWORD PTR _v3Cross$[ebp]
  00db0	f3 0f 11 85 a4
	fd ff ff	 movss	 DWORD PTR _fx$[ebp], xmm0
  00db8	f3 0f 10 45 a0	 movss	 xmm0, DWORD PTR $T47[ebp+4]
  00dbd	f3 0f 58 45 e8	 addss	 xmm0, DWORD PTR _v3Cross$[ebp+4]
  00dc2	f3 0f 11 85 a0
	fd ff ff	 movss	 DWORD PTR _fy$[ebp], xmm0
  00dca	f3 0f 10 45 a4	 movss	 xmm0, DWORD PTR $T47[ebp+8]
  00dcf	f3 0f 58 45 ec	 addss	 xmm0, DWORD PTR _v3Cross$[ebp+8]
  00dd4	f3 0f 11 85 9c
	fd ff ff	 movss	 DWORD PTR _fz$[ebp], xmm0

; 180  :     x = fx;

  00ddc	f3 0f 10 85 a4
	fd ff ff	 movss	 xmm0, DWORD PTR _fx$[ebp]
  00de4	f3 0f 11 85 f4
	fe ff ff	 movss	 DWORD PTR $T33[ebp], xmm0

; 181  :     y = fy;

  00dec	f3 0f 10 85 a0
	fd ff ff	 movss	 xmm0, DWORD PTR _fy$[ebp]
  00df4	f3 0f 11 85 f8
	fe ff ff	 movss	 DWORD PTR $T33[ebp+4], xmm0

; 182  :     z = fz;

  00dfc	f3 0f 10 85 9c
	fd ff ff	 movss	 xmm0, DWORD PTR _fz$[ebp]
  00e04	f3 0f 11 85 fc
	fe ff ff	 movss	 DWORD PTR $T33[ebp+8], xmm0
; File D:\Metin2 Server Files\mainline\SRC_2014\Metin2Client\EffectLib\ParticleInstance.cpp

; 265  : 		m_ParticleMesh[0].position = v3Position - v3Up + v3Cross;

  00e0c	6a 14		 push	 20			; 00000014H
  00e0e	58		 pop	 eax
  00e0f	6b c0 00	 imul	 eax, eax, 0
  00e12	8b 8d 60 fe ff
	ff		 mov	 ecx, DWORD PTR _this$[ebp]
  00e18	8d 7c 01 74	 lea	 edi, DWORD PTR [ecx+eax+116]
  00e1c	8d b5 f4 fe ff
	ff		 lea	 esi, DWORD PTR $T33[ebp]
  00e22	a5		 movsd
  00e23	a5		 movsd
  00e24	a5		 movsd
; File D:\Metin2 Server Files\mainline\SRC_2014\M2Data\include\d3dx8math.inl

; 263  :     return D3DXVECTOR3(x - v.x, y - v.y, z - v.z);

  00e25	f3 0f 10 45 d8	 movss	 xmm0, DWORD PTR _v3Position$52[ebp]
  00e2a	f3 0f 5c 45 f0	 subss	 xmm0, DWORD PTR _v3Up$[ebp]
  00e2f	f3 0f 11 85 98
	fd ff ff	 movss	 DWORD PTR _fx$[ebp], xmm0
  00e37	f3 0f 10 45 dc	 movss	 xmm0, DWORD PTR _v3Position$52[ebp+4]
  00e3c	f3 0f 5c 45 f4	 subss	 xmm0, DWORD PTR _v3Up$[ebp+4]
  00e41	f3 0f 11 85 94
	fd ff ff	 movss	 DWORD PTR _fy$[ebp], xmm0
  00e49	f3 0f 10 45 e0	 movss	 xmm0, DWORD PTR _v3Position$52[ebp+8]
  00e4e	f3 0f 5c 45 f8	 subss	 xmm0, DWORD PTR _v3Up$[ebp+8]
  00e53	f3 0f 11 85 90
	fd ff ff	 movss	 DWORD PTR _fz$[ebp], xmm0

; 180  :     x = fx;

  00e5b	f3 0f 10 85 98
	fd ff ff	 movss	 xmm0, DWORD PTR _fx$[ebp]
  00e63	f3 0f 11 45 a8	 movss	 DWORD PTR $T48[ebp], xmm0

; 181  :     y = fy;

  00e68	f3 0f 10 85 94
	fd ff ff	 movss	 xmm0, DWORD PTR _fy$[ebp]
  00e70	f3 0f 11 45 ac	 movss	 DWORD PTR $T48[ebp+4], xmm0

; 182  :     z = fz;

  00e75	f3 0f 10 85 90
	fd ff ff	 movss	 xmm0, DWORD PTR _fz$[ebp]
  00e7d	f3 0f 11 45 b0	 movss	 DWORD PTR $T48[ebp+8], xmm0

; 263  :     return D3DXVECTOR3(x - v.x, y - v.y, z - v.z);

  00e82	f3 0f 10 45 a8	 movss	 xmm0, DWORD PTR $T48[ebp]
  00e87	f3 0f 5c 45 e4	 subss	 xmm0, DWORD PTR _v3Cross$[ebp]
  00e8c	f3 0f 11 85 8c
	fd ff ff	 movss	 DWORD PTR _fx$[ebp], xmm0
  00e94	f3 0f 10 45 ac	 movss	 xmm0, DWORD PTR $T48[ebp+4]
  00e99	f3 0f 5c 45 e8	 subss	 xmm0, DWORD PTR _v3Cross$[ebp+4]
  00e9e	f3 0f 11 85 88
	fd ff ff	 movss	 DWORD PTR _fy$[ebp], xmm0
  00ea6	f3 0f 10 45 b0	 movss	 xmm0, DWORD PTR $T48[ebp+8]
  00eab	f3 0f 5c 45 ec	 subss	 xmm0, DWORD PTR _v3Cross$[ebp+8]
  00eb0	f3 0f 11 85 84
	fd ff ff	 movss	 DWORD PTR _fz$[ebp], xmm0

; 180  :     x = fx;

  00eb8	f3 0f 10 85 8c
	fd ff ff	 movss	 xmm0, DWORD PTR _fx$[ebp]
  00ec0	f3 0f 11 85 e8
	fe ff ff	 movss	 DWORD PTR $T32[ebp], xmm0

; 181  :     y = fy;

  00ec8	f3 0f 10 85 88
	fd ff ff	 movss	 xmm0, DWORD PTR _fy$[ebp]
  00ed0	f3 0f 11 85 ec
	fe ff ff	 movss	 DWORD PTR $T32[ebp+4], xmm0

; 182  :     z = fz;

  00ed8	f3 0f 10 85 84
	fd ff ff	 movss	 xmm0, DWORD PTR _fz$[ebp]
  00ee0	f3 0f 11 85 f0
	fe ff ff	 movss	 DWORD PTR $T32[ebp+8], xmm0
; File D:\Metin2 Server Files\mainline\SRC_2014\Metin2Client\EffectLib\ParticleInstance.cpp

; 266  : 		m_ParticleMesh[1].position = v3Position - v3Up - v3Cross;

  00ee8	6a 14		 push	 20			; 00000014H
  00eea	58		 pop	 eax
  00eeb	c1 e0 00	 shl	 eax, 0
  00eee	8b 8d 60 fe ff
	ff		 mov	 ecx, DWORD PTR _this$[ebp]
  00ef4	8d 7c 01 74	 lea	 edi, DWORD PTR [ecx+eax+116]
  00ef8	8d b5 e8 fe ff
	ff		 lea	 esi, DWORD PTR $T32[ebp]
  00efe	a5		 movsd
  00eff	a5		 movsd
  00f00	a5		 movsd
; File D:\Metin2 Server Files\mainline\SRC_2014\M2Data\include\d3dx8math.inl

; 257  :     return D3DXVECTOR3(x + v.x, y + v.y, z + v.z);

  00f01	f3 0f 10 45 d8	 movss	 xmm0, DWORD PTR _v3Position$52[ebp]
  00f06	f3 0f 58 45 f0	 addss	 xmm0, DWORD PTR _v3Up$[ebp]
  00f0b	f3 0f 11 85 80
	fd ff ff	 movss	 DWORD PTR _fx$[ebp], xmm0
  00f13	f3 0f 10 45 dc	 movss	 xmm0, DWORD PTR _v3Position$52[ebp+4]
  00f18	f3 0f 58 45 f4	 addss	 xmm0, DWORD PTR _v3Up$[ebp+4]
  00f1d	f3 0f 11 85 7c
	fd ff ff	 movss	 DWORD PTR _fy$[ebp], xmm0
  00f25	f3 0f 10 45 e0	 movss	 xmm0, DWORD PTR _v3Position$52[ebp+8]
  00f2a	f3 0f 58 45 f8	 addss	 xmm0, DWORD PTR _v3Up$[ebp+8]
  00f2f	f3 0f 11 85 78
	fd ff ff	 movss	 DWORD PTR _fz$[ebp], xmm0

; 180  :     x = fx;

  00f37	f3 0f 10 85 80
	fd ff ff	 movss	 xmm0, DWORD PTR _fx$[ebp]
  00f3f	f3 0f 11 45 b4	 movss	 DWORD PTR $T49[ebp], xmm0

; 181  :     y = fy;

  00f44	f3 0f 10 85 7c
	fd ff ff	 movss	 xmm0, DWORD PTR _fy$[ebp]
  00f4c	f3 0f 11 45 b8	 movss	 DWORD PTR $T49[ebp+4], xmm0

; 182  :     z = fz;

  00f51	f3 0f 10 85 78
	fd ff ff	 movss	 xmm0, DWORD PTR _fz$[ebp]
  00f59	f3 0f 11 45 bc	 movss	 DWORD PTR $T49[ebp+8], xmm0

; 257  :     return D3DXVECTOR3(x + v.x, y + v.y, z + v.z);

  00f5e	f3 0f 10 45 b4	 movss	 xmm0, DWORD PTR $T49[ebp]
  00f63	f3 0f 58 45 e4	 addss	 xmm0, DWORD PTR _v3Cross$[ebp]
  00f68	f3 0f 11 85 74
	fd ff ff	 movss	 DWORD PTR _fx$[ebp], xmm0
  00f70	f3 0f 10 45 b8	 movss	 xmm0, DWORD PTR $T49[ebp+4]
  00f75	f3 0f 58 45 e8	 addss	 xmm0, DWORD PTR _v3Cross$[ebp+4]
  00f7a	f3 0f 11 85 70
	fd ff ff	 movss	 DWORD PTR _fy$[ebp], xmm0
  00f82	f3 0f 10 45 bc	 movss	 xmm0, DWORD PTR $T49[ebp+8]
  00f87	f3 0f 58 45 ec	 addss	 xmm0, DWORD PTR _v3Cross$[ebp+8]
  00f8c	f3 0f 11 85 6c
	fd ff ff	 movss	 DWORD PTR _fz$[ebp], xmm0

; 180  :     x = fx;

  00f94	f3 0f 10 85 74
	fd ff ff	 movss	 xmm0, DWORD PTR _fx$[ebp]
  00f9c	f3 0f 11 85 a0
	fe ff ff	 movss	 DWORD PTR $T26[ebp], xmm0

; 181  :     y = fy;

  00fa4	f3 0f 10 85 70
	fd ff ff	 movss	 xmm0, DWORD PTR _fy$[ebp]
  00fac	f3 0f 11 85 a4
	fe ff ff	 movss	 DWORD PTR $T26[ebp+4], xmm0

; 182  :     z = fz;

  00fb4	f3 0f 10 85 6c
	fd ff ff	 movss	 xmm0, DWORD PTR _fz$[ebp]
  00fbc	f3 0f 11 85 a8
	fe ff ff	 movss	 DWORD PTR $T26[ebp+8], xmm0
; File D:\Metin2 Server Files\mainline\SRC_2014\Metin2Client\EffectLib\ParticleInstance.cpp

; 267  : 		m_ParticleMesh[2].position = v3Position + v3Up + v3Cross;

  00fc4	6a 14		 push	 20			; 00000014H
  00fc6	58		 pop	 eax
  00fc7	d1 e0		 shl	 eax, 1
  00fc9	8b 8d 60 fe ff
	ff		 mov	 ecx, DWORD PTR _this$[ebp]
  00fcf	8d 7c 01 74	 lea	 edi, DWORD PTR [ecx+eax+116]
  00fd3	8d b5 a0 fe ff
	ff		 lea	 esi, DWORD PTR $T26[ebp]
  00fd9	a5		 movsd
  00fda	a5		 movsd
  00fdb	a5		 movsd
; File D:\Metin2 Server Files\mainline\SRC_2014\M2Data\include\d3dx8math.inl

; 257  :     return D3DXVECTOR3(x + v.x, y + v.y, z + v.z);

  00fdc	f3 0f 10 45 d8	 movss	 xmm0, DWORD PTR _v3Position$52[ebp]
  00fe1	f3 0f 58 45 f0	 addss	 xmm0, DWORD PTR _v3Up$[ebp]
  00fe6	f3 0f 11 85 68
	fd ff ff	 movss	 DWORD PTR _fx$[ebp], xmm0
  00fee	f3 0f 10 45 dc	 movss	 xmm0, DWORD PTR _v3Position$52[ebp+4]
  00ff3	f3 0f 58 45 f4	 addss	 xmm0, DWORD PTR _v3Up$[ebp+4]
  00ff8	f3 0f 11 85 64
	fd ff ff	 movss	 DWORD PTR _fy$[ebp], xmm0
  01000	f3 0f 10 45 e0	 movss	 xmm0, DWORD PTR _v3Position$52[ebp+8]
  01005	f3 0f 58 45 f8	 addss	 xmm0, DWORD PTR _v3Up$[ebp+8]
  0100a	f3 0f 11 85 60
	fd ff ff	 movss	 DWORD PTR _fz$[ebp], xmm0

; 180  :     x = fx;

  01012	f3 0f 10 85 68
	fd ff ff	 movss	 xmm0, DWORD PTR _fx$[ebp]
  0101a	f3 0f 11 45 c0	 movss	 DWORD PTR $T50[ebp], xmm0

; 181  :     y = fy;

  0101f	f3 0f 10 85 64
	fd ff ff	 movss	 xmm0, DWORD PTR _fy$[ebp]
  01027	f3 0f 11 45 c4	 movss	 DWORD PTR $T50[ebp+4], xmm0

; 182  :     z = fz;

  0102c	f3 0f 10 85 60
	fd ff ff	 movss	 xmm0, DWORD PTR _fz$[ebp]
  01034	f3 0f 11 45 c8	 movss	 DWORD PTR $T50[ebp+8], xmm0

; 263  :     return D3DXVECTOR3(x - v.x, y - v.y, z - v.z);

  01039	f3 0f 10 45 c0	 movss	 xmm0, DWORD PTR $T50[ebp]
  0103e	f3 0f 5c 45 e4	 subss	 xmm0, DWORD PTR _v3Cross$[ebp]
  01043	f3 0f 11 85 5c
	fd ff ff	 movss	 DWORD PTR _fx$[ebp], xmm0
  0104b	f3 0f 10 45 c4	 movss	 xmm0, DWORD PTR $T50[ebp+4]
  01050	f3 0f 5c 45 e8	 subss	 xmm0, DWORD PTR _v3Cross$[ebp+4]
  01055	f3 0f 11 85 58
	fd ff ff	 movss	 DWORD PTR _fy$[ebp], xmm0
  0105d	f3 0f 10 45 c8	 movss	 xmm0, DWORD PTR $T50[ebp+8]
  01062	f3 0f 5c 45 ec	 subss	 xmm0, DWORD PTR _v3Cross$[ebp+8]
  01067	f3 0f 11 85 54
	fd ff ff	 movss	 DWORD PTR _fz$[ebp], xmm0

; 180  :     x = fx;

  0106f	f3 0f 10 85 5c
	fd ff ff	 movss	 xmm0, DWORD PTR _fx$[ebp]
  01077	f3 0f 11 85 dc
	fe ff ff	 movss	 DWORD PTR $T31[ebp], xmm0

; 181  :     y = fy;

  0107f	f3 0f 10 85 58
	fd ff ff	 movss	 xmm0, DWORD PTR _fy$[ebp]
  01087	f3 0f 11 85 e0
	fe ff ff	 movss	 DWORD PTR $T31[ebp+4], xmm0

; 182  :     z = fz;

  0108f	f3 0f 10 85 54
	fd ff ff	 movss	 xmm0, DWORD PTR _fz$[ebp]
  01097	f3 0f 11 85 e4
	fe ff ff	 movss	 DWORD PTR $T31[ebp+8], xmm0
; File D:\Metin2 Server Files\mainline\SRC_2014\Metin2Client\EffectLib\ParticleInstance.cpp

; 268  : 		m_ParticleMesh[3].position = v3Position + v3Up - v3Cross;

  0109f	6a 14		 push	 20			; 00000014H
  010a1	58		 pop	 eax
  010a2	6b c0 03	 imul	 eax, eax, 3
  010a5	8b 8d 60 fe ff
	ff		 mov	 ecx, DWORD PTR _this$[ebp]
  010ab	8d 7c 01 74	 lea	 edi, DWORD PTR [ecx+eax+116]
  010af	8d b5 dc fe ff
	ff		 lea	 esi, DWORD PTR $T31[ebp]
  010b5	a5		 movsd
  010b6	a5		 movsd
  010b7	a5		 movsd

; 269  : 	}

  010b8	e9 31 04 00 00	 jmp	 $LN17@Transform
$LN16@Transform:

; 272  : 		m_ParticleMesh[0].position = m_v3Position - v3Up + v3Cross;

  010bd	8b 85 60 fe ff
	ff		 mov	 eax, DWORD PTR _this$[ebp]
  010c3	83 c0 0c	 add	 eax, 12			; 0000000cH
  010c6	89 85 20 fe ff
	ff		 mov	 DWORD PTR _this$[ebp], eax
; File D:\Metin2 Server Files\mainline\SRC_2014\M2Data\include\d3dx8math.inl

; 263  :     return D3DXVECTOR3(x - v.x, y - v.y, z - v.z);

  010cc	8b 85 20 fe ff
	ff		 mov	 eax, DWORD PTR _this$[ebp]
  010d2	f3 0f 10 00	 movss	 xmm0, DWORD PTR [eax]
  010d6	f3 0f 5c 45 f0	 subss	 xmm0, DWORD PTR _v3Up$[ebp]
  010db	f3 0f 11 85 50
	fd ff ff	 movss	 DWORD PTR _fx$[ebp], xmm0
  010e3	8b 85 20 fe ff
	ff		 mov	 eax, DWORD PTR _this$[ebp]
  010e9	f3 0f 10 40 04	 movss	 xmm0, DWORD PTR [eax+4]
  010ee	f3 0f 5c 45 f4	 subss	 xmm0, DWORD PTR _v3Up$[ebp+4]
  010f3	f3 0f 11 85 4c
	fd ff ff	 movss	 DWORD PTR _fy$[ebp], xmm0
  010fb	8b 85 20 fe ff
	ff		 mov	 eax, DWORD PTR _this$[ebp]
  01101	f3 0f 10 40 08	 movss	 xmm0, DWORD PTR [eax+8]
  01106	f3 0f 5c 45 f8	 subss	 xmm0, DWORD PTR _v3Up$[ebp+8]
  0110b	f3 0f 11 85 48
	fd ff ff	 movss	 DWORD PTR _fz$[ebp], xmm0

; 180  :     x = fx;

  01113	f3 0f 10 85 50
	fd ff ff	 movss	 xmm0, DWORD PTR _fx$[ebp]
  0111b	f3 0f 11 85 3c
	ff ff ff	 movss	 DWORD PTR $T39[ebp], xmm0

; 181  :     y = fy;

  01123	f3 0f 10 85 4c
	fd ff ff	 movss	 xmm0, DWORD PTR _fy$[ebp]
  0112b	f3 0f 11 85 40
	ff ff ff	 movss	 DWORD PTR $T39[ebp+4], xmm0

; 182  :     z = fz;

  01133	f3 0f 10 85 48
	fd ff ff	 movss	 xmm0, DWORD PTR _fz$[ebp]
  0113b	f3 0f 11 85 44
	ff ff ff	 movss	 DWORD PTR $T39[ebp+8], xmm0

; 257  :     return D3DXVECTOR3(x + v.x, y + v.y, z + v.z);

  01143	f3 0f 10 85 3c
	ff ff ff	 movss	 xmm0, DWORD PTR $T39[ebp]
  0114b	f3 0f 58 45 e4	 addss	 xmm0, DWORD PTR _v3Cross$[ebp]
  01150	f3 0f 11 85 44
	fd ff ff	 movss	 DWORD PTR _fx$[ebp], xmm0
  01158	f3 0f 10 85 40
	ff ff ff	 movss	 xmm0, DWORD PTR $T39[ebp+4]
  01160	f3 0f 58 45 e8	 addss	 xmm0, DWORD PTR _v3Cross$[ebp+4]
  01165	f3 0f 11 85 40
	fd ff ff	 movss	 DWORD PTR _fy$[ebp], xmm0
  0116d	f3 0f 10 85 44
	ff ff ff	 movss	 xmm0, DWORD PTR $T39[ebp+8]
  01175	f3 0f 58 45 ec	 addss	 xmm0, DWORD PTR _v3Cross$[ebp+8]
  0117a	f3 0f 11 85 3c
	fd ff ff	 movss	 DWORD PTR _fz$[ebp], xmm0

; 180  :     x = fx;

  01182	f3 0f 10 85 44
	fd ff ff	 movss	 xmm0, DWORD PTR _fx$[ebp]
  0118a	f3 0f 11 85 d0
	fe ff ff	 movss	 DWORD PTR $T30[ebp], xmm0

; 181  :     y = fy;

  01192	f3 0f 10 85 40
	fd ff ff	 movss	 xmm0, DWORD PTR _fy$[ebp]
  0119a	f3 0f 11 85 d4
	fe ff ff	 movss	 DWORD PTR $T30[ebp+4], xmm0

; 182  :     z = fz;

  011a2	f3 0f 10 85 3c
	fd ff ff	 movss	 xmm0, DWORD PTR _fz$[ebp]
  011aa	f3 0f 11 85 d8
	fe ff ff	 movss	 DWORD PTR $T30[ebp+8], xmm0
; File D:\Metin2 Server Files\mainline\SRC_2014\Metin2Client\EffectLib\ParticleInstance.cpp

; 272  : 		m_ParticleMesh[0].position = m_v3Position - v3Up + v3Cross;

  011b2	6a 14		 push	 20			; 00000014H
  011b4	58		 pop	 eax
  011b5	6b c0 00	 imul	 eax, eax, 0
  011b8	8b 8d 60 fe ff
	ff		 mov	 ecx, DWORD PTR _this$[ebp]
  011be	8d 7c 01 74	 lea	 edi, DWORD PTR [ecx+eax+116]
  011c2	8d b5 d0 fe ff
	ff		 lea	 esi, DWORD PTR $T30[ebp]
  011c8	a5		 movsd
  011c9	a5		 movsd
  011ca	a5		 movsd

; 273  : 		m_ParticleMesh[1].position = m_v3Position - v3Up - v3Cross;

  011cb	8b 85 60 fe ff
	ff		 mov	 eax, DWORD PTR _this$[ebp]
  011d1	83 c0 0c	 add	 eax, 12			; 0000000cH
  011d4	89 85 24 fe ff
	ff		 mov	 DWORD PTR _this$[ebp], eax
; File D:\Metin2 Server Files\mainline\SRC_2014\M2Data\include\d3dx8math.inl

; 263  :     return D3DXVECTOR3(x - v.x, y - v.y, z - v.z);

  011da	8b 85 24 fe ff
	ff		 mov	 eax, DWORD PTR _this$[ebp]
  011e0	f3 0f 10 00	 movss	 xmm0, DWORD PTR [eax]
  011e4	f3 0f 5c 45 f0	 subss	 xmm0, DWORD PTR _v3Up$[ebp]
  011e9	f3 0f 11 85 38
	fd ff ff	 movss	 DWORD PTR _fx$[ebp], xmm0
  011f1	8b 85 24 fe ff
	ff		 mov	 eax, DWORD PTR _this$[ebp]
  011f7	f3 0f 10 40 04	 movss	 xmm0, DWORD PTR [eax+4]
  011fc	f3 0f 5c 45 f4	 subss	 xmm0, DWORD PTR _v3Up$[ebp+4]
  01201	f3 0f 11 85 34
	fd ff ff	 movss	 DWORD PTR _fy$[ebp], xmm0
  01209	8b 85 24 fe ff
	ff		 mov	 eax, DWORD PTR _this$[ebp]
  0120f	f3 0f 10 40 08	 movss	 xmm0, DWORD PTR [eax+8]
  01214	f3 0f 5c 45 f8	 subss	 xmm0, DWORD PTR _v3Up$[ebp+8]
  01219	f3 0f 11 85 30
	fd ff ff	 movss	 DWORD PTR _fz$[ebp], xmm0

; 180  :     x = fx;

  01221	f3 0f 10 85 38
	fd ff ff	 movss	 xmm0, DWORD PTR _fx$[ebp]
  01229	f3 0f 11 85 78
	ff ff ff	 movss	 DWORD PTR $T44[ebp], xmm0

; 181  :     y = fy;

  01231	f3 0f 10 85 34
	fd ff ff	 movss	 xmm0, DWORD PTR _fy$[ebp]
  01239	f3 0f 11 85 7c
	ff ff ff	 movss	 DWORD PTR $T44[ebp+4], xmm0

; 182  :     z = fz;

  01241	f3 0f 10 85 30
	fd ff ff	 movss	 xmm0, DWORD PTR _fz$[ebp]
  01249	f3 0f 11 45 80	 movss	 DWORD PTR $T44[ebp+8], xmm0

; 263  :     return D3DXVECTOR3(x - v.x, y - v.y, z - v.z);

  0124e	f3 0f 10 85 78
	ff ff ff	 movss	 xmm0, DWORD PTR $T44[ebp]
  01256	f3 0f 5c 45 e4	 subss	 xmm0, DWORD PTR _v3Cross$[ebp]
  0125b	f3 0f 11 85 2c
	fd ff ff	 movss	 DWORD PTR _fx$[ebp], xmm0
  01263	f3 0f 10 85 7c
	ff ff ff	 movss	 xmm0, DWORD PTR $T44[ebp+4]
  0126b	f3 0f 5c 45 e8	 subss	 xmm0, DWORD PTR _v3Cross$[ebp+4]
  01270	f3 0f 11 85 28
	fd ff ff	 movss	 DWORD PTR _fy$[ebp], xmm0
  01278	f3 0f 10 45 80	 movss	 xmm0, DWORD PTR $T44[ebp+8]
  0127d	f3 0f 5c 45 ec	 subss	 xmm0, DWORD PTR _v3Cross$[ebp+8]
  01282	f3 0f 11 85 24
	fd ff ff	 movss	 DWORD PTR _fz$[ebp], xmm0

; 180  :     x = fx;

  0128a	f3 0f 10 85 2c
	fd ff ff	 movss	 xmm0, DWORD PTR _fx$[ebp]
  01292	f3 0f 11 85 c4
	fe ff ff	 movss	 DWORD PTR $T29[ebp], xmm0

; 181  :     y = fy;

  0129a	f3 0f 10 85 28
	fd ff ff	 movss	 xmm0, DWORD PTR _fy$[ebp]
  012a2	f3 0f 11 85 c8
	fe ff ff	 movss	 DWORD PTR $T29[ebp+4], xmm0

; 182  :     z = fz;

  012aa	f3 0f 10 85 24
	fd ff ff	 movss	 xmm0, DWORD PTR _fz$[ebp]
  012b2	f3 0f 11 85 cc
	fe ff ff	 movss	 DWORD PTR $T29[ebp+8], xmm0
; File D:\Metin2 Server Files\mainline\SRC_2014\Metin2Client\EffectLib\ParticleInstance.cpp

; 273  : 		m_ParticleMesh[1].position = m_v3Position - v3Up - v3Cross;

  012ba	6a 14		 push	 20			; 00000014H
  012bc	58		 pop	 eax
  012bd	c1 e0 00	 shl	 eax, 0
  012c0	8b 8d 60 fe ff
	ff		 mov	 ecx, DWORD PTR _this$[ebp]
  012c6	8d 7c 01 74	 lea	 edi, DWORD PTR [ecx+eax+116]
  012ca	8d b5 c4 fe ff
	ff		 lea	 esi, DWORD PTR $T29[ebp]
  012d0	a5		 movsd
  012d1	a5		 movsd
  012d2	a5		 movsd

; 274  : 		m_ParticleMesh[2].position = m_v3Position + v3Up + v3Cross;

  012d3	8b 85 60 fe ff
	ff		 mov	 eax, DWORD PTR _this$[ebp]
  012d9	83 c0 0c	 add	 eax, 12			; 0000000cH
  012dc	89 85 28 fe ff
	ff		 mov	 DWORD PTR _this$[ebp], eax
; File D:\Metin2 Server Files\mainline\SRC_2014\M2Data\include\d3dx8math.inl

; 257  :     return D3DXVECTOR3(x + v.x, y + v.y, z + v.z);

  012e2	8b 85 28 fe ff
	ff		 mov	 eax, DWORD PTR _this$[ebp]
  012e8	f3 0f 10 00	 movss	 xmm0, DWORD PTR [eax]
  012ec	f3 0f 58 45 f0	 addss	 xmm0, DWORD PTR _v3Up$[ebp]
  012f1	f3 0f 11 85 20
	fd ff ff	 movss	 DWORD PTR _fx$[ebp], xmm0
  012f9	8b 85 28 fe ff
	ff		 mov	 eax, DWORD PTR _this$[ebp]
  012ff	f3 0f 10 40 04	 movss	 xmm0, DWORD PTR [eax+4]
  01304	f3 0f 58 45 f4	 addss	 xmm0, DWORD PTR _v3Up$[ebp+4]
  01309	f3 0f 11 85 1c
	fd ff ff	 movss	 DWORD PTR _fy$[ebp], xmm0
  01311	8b 85 28 fe ff
	ff		 mov	 eax, DWORD PTR _this$[ebp]
  01317	f3 0f 10 40 08	 movss	 xmm0, DWORD PTR [eax+8]
  0131c	f3 0f 58 45 f8	 addss	 xmm0, DWORD PTR _v3Up$[ebp+8]
  01321	f3 0f 11 85 18
	fd ff ff	 movss	 DWORD PTR _fz$[ebp], xmm0

; 180  :     x = fx;

  01329	f3 0f 10 85 20
	fd ff ff	 movss	 xmm0, DWORD PTR _fx$[ebp]
  01331	f3 0f 11 85 48
	ff ff ff	 movss	 DWORD PTR $T40[ebp], xmm0

; 181  :     y = fy;

  01339	f3 0f 10 85 1c
	fd ff ff	 movss	 xmm0, DWORD PTR _fy$[ebp]
  01341	f3 0f 11 85 4c
	ff ff ff	 movss	 DWORD PTR $T40[ebp+4], xmm0

; 182  :     z = fz;

  01349	f3 0f 10 85 18
	fd ff ff	 movss	 xmm0, DWORD PTR _fz$[ebp]
  01351	f3 0f 11 85 50
	ff ff ff	 movss	 DWORD PTR $T40[ebp+8], xmm0

; 257  :     return D3DXVECTOR3(x + v.x, y + v.y, z + v.z);

  01359	f3 0f 10 85 48
	ff ff ff	 movss	 xmm0, DWORD PTR $T40[ebp]
  01361	f3 0f 58 45 e4	 addss	 xmm0, DWORD PTR _v3Cross$[ebp]
  01366	f3 0f 11 85 14
	fd ff ff	 movss	 DWORD PTR _fx$[ebp], xmm0
  0136e	f3 0f 10 85 4c
	ff ff ff	 movss	 xmm0, DWORD PTR $T40[ebp+4]
  01376	f3 0f 58 45 e8	 addss	 xmm0, DWORD PTR _v3Cross$[ebp+4]
  0137b	f3 0f 11 85 10
	fd ff ff	 movss	 DWORD PTR _fy$[ebp], xmm0
  01383	f3 0f 10 85 50
	ff ff ff	 movss	 xmm0, DWORD PTR $T40[ebp+8]
  0138b	f3 0f 58 45 ec	 addss	 xmm0, DWORD PTR _v3Cross$[ebp+8]
  01390	f3 0f 11 85 0c
	fd ff ff	 movss	 DWORD PTR _fz$[ebp], xmm0

; 180  :     x = fx;

  01398	f3 0f 10 85 14
	fd ff ff	 movss	 xmm0, DWORD PTR _fx$[ebp]
  013a0	f3 0f 11 85 b8
	fe ff ff	 movss	 DWORD PTR $T28[ebp], xmm0

; 181  :     y = fy;

  013a8	f3 0f 10 85 10
	fd ff ff	 movss	 xmm0, DWORD PTR _fy$[ebp]
  013b0	f3 0f 11 85 bc
	fe ff ff	 movss	 DWORD PTR $T28[ebp+4], xmm0

; 182  :     z = fz;

  013b8	f3 0f 10 85 0c
	fd ff ff	 movss	 xmm0, DWORD PTR _fz$[ebp]
  013c0	f3 0f 11 85 c0
	fe ff ff	 movss	 DWORD PTR $T28[ebp+8], xmm0
; File D:\Metin2 Server Files\mainline\SRC_2014\Metin2Client\EffectLib\ParticleInstance.cpp

; 274  : 		m_ParticleMesh[2].position = m_v3Position + v3Up + v3Cross;

  013c8	6a 14		 push	 20			; 00000014H
  013ca	58		 pop	 eax
  013cb	d1 e0		 shl	 eax, 1
  013cd	8b 8d 60 fe ff
	ff		 mov	 ecx, DWORD PTR _this$[ebp]
  013d3	8d 7c 01 74	 lea	 edi, DWORD PTR [ecx+eax+116]
  013d7	8d b5 b8 fe ff
	ff		 lea	 esi, DWORD PTR $T28[ebp]
  013dd	a5		 movsd
  013de	a5		 movsd
  013df	a5		 movsd

; 275  : 		m_ParticleMesh[3].position = m_v3Position + v3Up - v3Cross;

  013e0	8b 85 60 fe ff
	ff		 mov	 eax, DWORD PTR _this$[ebp]
  013e6	83 c0 0c	 add	 eax, 12			; 0000000cH
  013e9	89 85 2c fe ff
	ff		 mov	 DWORD PTR _this$[ebp], eax
; File D:\Metin2 Server Files\mainline\SRC_2014\M2Data\include\d3dx8math.inl

; 257  :     return D3DXVECTOR3(x + v.x, y + v.y, z + v.z);

  013ef	8b 85 2c fe ff
	ff		 mov	 eax, DWORD PTR _this$[ebp]
  013f5	f3 0f 10 00	 movss	 xmm0, DWORD PTR [eax]
  013f9	f3 0f 58 45 f0	 addss	 xmm0, DWORD PTR _v3Up$[ebp]
  013fe	f3 0f 11 85 08
	fd ff ff	 movss	 DWORD PTR _fx$[ebp], xmm0
  01406	8b 85 2c fe ff
	ff		 mov	 eax, DWORD PTR _this$[ebp]
  0140c	f3 0f 10 40 04	 movss	 xmm0, DWORD PTR [eax+4]
  01411	f3 0f 58 45 f4	 addss	 xmm0, DWORD PTR _v3Up$[ebp+4]
  01416	f3 0f 11 85 04
	fd ff ff	 movss	 DWORD PTR _fy$[ebp], xmm0
  0141e	8b 85 2c fe ff
	ff		 mov	 eax, DWORD PTR _this$[ebp]
  01424	f3 0f 10 40 08	 movss	 xmm0, DWORD PTR [eax+8]
  01429	f3 0f 58 45 f8	 addss	 xmm0, DWORD PTR _v3Up$[ebp+8]
  0142e	f3 0f 11 85 00
	fd ff ff	 movss	 DWORD PTR _fz$[ebp], xmm0

; 180  :     x = fx;

  01436	f3 0f 10 85 08
	fd ff ff	 movss	 xmm0, DWORD PTR _fx$[ebp]
  0143e	f3 0f 11 85 54
	ff ff ff	 movss	 DWORD PTR $T41[ebp], xmm0

; 181  :     y = fy;

  01446	f3 0f 10 85 04
	fd ff ff	 movss	 xmm0, DWORD PTR _fy$[ebp]
  0144e	f3 0f 11 85 58
	ff ff ff	 movss	 DWORD PTR $T41[ebp+4], xmm0

; 182  :     z = fz;

  01456	f3 0f 10 85 00
	fd ff ff	 movss	 xmm0, DWORD PTR _fz$[ebp]
  0145e	f3 0f 11 85 5c
	ff ff ff	 movss	 DWORD PTR $T41[ebp+8], xmm0

; 263  :     return D3DXVECTOR3(x - v.x, y - v.y, z - v.z);

  01466	f3 0f 10 85 54
	ff ff ff	 movss	 xmm0, DWORD PTR $T41[ebp]
  0146e	f3 0f 5c 45 e4	 subss	 xmm0, DWORD PTR _v3Cross$[ebp]
  01473	f3 0f 11 85 fc
	fc ff ff	 movss	 DWORD PTR _fx$[ebp], xmm0
  0147b	f3 0f 10 85 58
	ff ff ff	 movss	 xmm0, DWORD PTR $T41[ebp+4]
  01483	f3 0f 5c 45 e8	 subss	 xmm0, DWORD PTR _v3Cross$[ebp+4]
  01488	f3 0f 11 85 f8
	fc ff ff	 movss	 DWORD PTR _fy$[ebp], xmm0
  01490	f3 0f 10 85 5c
	ff ff ff	 movss	 xmm0, DWORD PTR $T41[ebp+8]
  01498	f3 0f 5c 45 ec	 subss	 xmm0, DWORD PTR _v3Cross$[ebp+8]
  0149d	f3 0f 11 85 a8
	fc ff ff	 movss	 DWORD PTR _fz$[ebp], xmm0

; 180  :     x = fx;

  014a5	f3 0f 10 85 fc
	fc ff ff	 movss	 xmm0, DWORD PTR _fx$[ebp]
  014ad	f3 0f 11 85 ac
	fe ff ff	 movss	 DWORD PTR $T27[ebp], xmm0

; 181  :     y = fy;

  014b5	f3 0f 10 85 f8
	fc ff ff	 movss	 xmm0, DWORD PTR _fy$[ebp]
  014bd	f3 0f 11 85 b0
	fe ff ff	 movss	 DWORD PTR $T27[ebp+4], xmm0

; 182  :     z = fz;

  014c5	f3 0f 10 85 a8
	fc ff ff	 movss	 xmm0, DWORD PTR _fz$[ebp]
  014cd	f3 0f 11 85 b4
	fe ff ff	 movss	 DWORD PTR $T27[ebp+8], xmm0
; File D:\Metin2 Server Files\mainline\SRC_2014\Metin2Client\EffectLib\ParticleInstance.cpp

; 275  : 		m_ParticleMesh[3].position = m_v3Position + v3Up - v3Cross;

  014d5	6a 14		 push	 20			; 00000014H
  014d7	58		 pop	 eax
  014d8	6b c0 03	 imul	 eax, eax, 3
  014db	8b 8d 60 fe ff
	ff		 mov	 ecx, DWORD PTR _this$[ebp]
  014e1	8d 7c 01 74	 lea	 edi, DWORD PTR [ecx+eax+116]
  014e5	8d b5 ac fe ff
	ff		 lea	 esi, DWORD PTR $T27[ebp]
  014eb	a5		 movsd
  014ec	a5		 movsd
  014ed	a5		 movsd
$LN17@Transform:

; 276  : 	}
; 277  : }

  014ee	5f		 pop	 edi
  014ef	5e		 pop	 esi
  014f0	8b 4d fc	 mov	 ecx, DWORD PTR __$ArrayPad$[ebp]
  014f3	33 cd		 xor	 ecx, ebp
  014f5	e8 00 00 00 00	 call	 @__security_check_cookie@4
  014fa	c9		 leave
  014fb	c2 04 00	 ret	 4
?Transform@CParticleInstance@@QAEXPBUD3DXMATRIX@@@Z ENDP ; CParticleInstance::Transform
_TEXT	ENDS
; Function compile flags: /Odspy
; File D:\Metin2 Server Files\mainline\SRC_2014\Metin2Client\EffectLib\ParticleInstance.cpp
;	COMDAT ?DestroySystem@CParticleInstance@@SAXXZ
_TEXT	SEGMENT
?DestroySystem@CParticleInstance@@SAXXZ PROC		; CParticleInstance::DestroySystem, COMDAT

; 14   : {

  00000	55		 push	 ebp
  00001	8b ec		 mov	 ebp, esp

; 15   : 	ms_kPool.Destroy();

  00003	b9 00 00 00 00	 mov	 ecx, OFFSET ?ms_kPool@CParticleInstance@@2V?$CDynamicPool@VCParticleInstance@@@@A ; CParticleInstance::ms_kPool
  00008	e8 00 00 00 00	 call	 ?Destroy@?$CDynamicPool@VCParticleInstance@@@@QAEXXZ ; CDynamicPool<CParticleInstance>::Destroy

; 16   : }

  0000d	5d		 pop	 ebp
  0000e	c3		 ret	 0
?DestroySystem@CParticleInstance@@SAXXZ ENDP		; CParticleInstance::DestroySystem
_TEXT	ENDS
; Function compile flags: /Odspy
; File D:\Metin2 Server Files\mainline\SRC_2014\Metin2Client\EffectLib\ParticleInstance.cpp
;	COMDAT ?New@CParticleInstance@@SAPAV1@XZ
_TEXT	SEGMENT
?New@CParticleInstance@@SAPAV1@XZ PROC			; CParticleInstance::New, COMDAT

; 19   : {

  00000	55		 push	 ebp
  00001	8b ec		 mov	 ebp, esp

; 20   : 	return ms_kPool.Alloc();

  00003	b9 00 00 00 00	 mov	 ecx, OFFSET ?ms_kPool@CParticleInstance@@2V?$CDynamicPool@VCParticleInstance@@@@A ; CParticleInstance::ms_kPool
  00008	e8 00 00 00 00	 call	 ?Alloc@?$CDynamicPool@VCParticleInstance@@@@QAEPAVCParticleInstance@@XZ ; CDynamicPool<CParticleInstance>::Alloc

; 21   : }

  0000d	5d		 pop	 ebp
  0000e	c3		 ret	 0
?New@CParticleInstance@@SAPAV1@XZ ENDP			; CParticleInstance::New
_TEXT	ENDS
; Function compile flags: /Odspy
; File D:\Metin2 Server Files\mainline\SRC_2014\Metin2Client\EffectLib\ParticleInstance.cpp
; File D:\Metin2 Server Files\mainline\SRC_2014\Metin2Client\EffectLib\EffectUpdateDecorator.h
; File D:\Metin2 Server Files\mainline\SRC_2014\Metin2Client\EffectLib\ParticleInstance.cpp
; File D:\Metin2 Server Files\mainline\SRC_2014\Metin2Client\EffectLib\EffectUpdateDecorator.h
; File D:\Metin2 Server Files\mainline\SRC_2014\Metin2Client\EffectLib\ParticleInstance.cpp
; File D:\Metin2 Server Files\mainline\SRC_2014\M2Data\include\d3dx8math.inl
; File D:\Metin2 Server Files\mainline\SRC_2014\Metin2Client\EffectLib\ParticleInstance.cpp
; File D:\Metin2 Server Files\mainline\SRC_2014\M2Data\include\d3dx8math.inl
; File D:\Metin2 Server Files\mainline\SRC_2014\Metin2Client\EffectLib\ParticleInstance.cpp
; File C:\Program Files (x86)\Windows Kits\10\Include\10.0.18362.0\ucrt\corecrt_math.h
; File C:\Program Files (x86)\Microsoft Visual Studio\2019\Community\VC\Tools\MSVC\14.28.29333\include\cmath
; File C:\Program Files (x86)\Windows Kits\10\Include\10.0.18362.0\ucrt\corecrt_math.h
; File C:\Program Files (x86)\Microsoft Visual Studio\2019\Community\VC\Tools\MSVC\14.28.29333\include\cmath
; File D:\Metin2 Server Files\mainline\SRC_2014\Metin2Client\EffectLib\ParticleInstance.cpp
; File D:\Metin2 Server Files\mainline\SRC_2014\M2Data\include\d3dx8math.inl
; File D:\Metin2 Server Files\mainline\SRC_2014\Metin2Client\EffectLib\ParticleInstance.cpp
; File D:\Metin2 Server Files\mainline\SRC_2014\M2Data\include\d3dx8math.inl
; File D:\Metin2 Server Files\mainline\SRC_2014\Metin2Client\EffectLib\ParticleInstance.cpp
; File D:\Metin2 Server Files\mainline\SRC_2014\M2Data\include\d3dx8math.inl
; File D:\Metin2 Server Files\mainline\SRC_2014\Metin2Client\EffectLib\ParticleInstance.cpp
;	COMDAT ?Update@CParticleInstance@@QAEHMM@Z
_TEXT	SEGMENT
_qc$1 = -152						; size = 16
$T2 = -136						; size = 12
_q$3 = -124						; size = 16
_fz$ = -108						; size = 4
_fy$ = -104						; size = 4
_fx$ = -100						; size = 4
_fz$ = -96						; size = 4
_fy$ = -92						; size = 4
_fx$ = -88						; size = 4
_pNextDecorator$4 = -84					; size = 4
_this$ = -80						; size = 4
_fLifePercentage$ = -76					; size = 4
_qr$5 = -72						; size = 16
_ry$6 = -56						; size = 4
_fCos$7 = -52						; size = 4
_rx$8 = -48						; size = 4
_fSin$9 = -44						; size = 4
_v$ = -40						; size = 4
_this$ = -36						; size = 4
_pd$10 = -32						; size = 4
_this$ = -28						; size = 4
_this$ = -24						; size = 4
_this$ = -20						; size = 4
$T11 = -16						; size = 12
__$ArrayPad$ = -4					; size = 4
_fElapsedTime$ = 8					; size = 4
_fAngle$ = 12						; size = 4
?Update@CParticleInstance@@QAEHMM@Z PROC		; CParticleInstance::Update, COMDAT
; _this$ = ecx

; 72   : {

  00000	55		 push	 ebp
  00001	8b ec		 mov	 ebp, esp
  00003	81 ec 98 00 00
	00		 sub	 esp, 152		; 00000098H
  00009	a1 00 00 00 00	 mov	 eax, DWORD PTR ___security_cookie
  0000e	33 c5		 xor	 eax, ebp
  00010	89 45 fc	 mov	 DWORD PTR __$ArrayPad$[ebp], eax
  00013	56		 push	 esi
  00014	57		 push	 edi
  00015	89 4d ec	 mov	 DWORD PTR _this$[ebp], ecx

; 73   : 	m_fLastLifeTime -= fElapsedTime;

  00018	8b 45 ec	 mov	 eax, DWORD PTR _this$[ebp]
  0001b	f3 0f 10 40 58	 movss	 xmm0, DWORD PTR [eax+88]
  00020	f3 0f 5c 45 08	 subss	 xmm0, DWORD PTR _fElapsedTime$[ebp]
  00025	8b 45 ec	 mov	 eax, DWORD PTR _this$[ebp]
  00028	f3 0f 11 40 58	 movss	 DWORD PTR [eax+88], xmm0

; 74   : 	if (m_fLastLifeTime < 0.0f)

  0002d	8b 45 ec	 mov	 eax, DWORD PTR _this$[ebp]
  00030	0f 57 c0	 xorps	 xmm0, xmm0
  00033	0f 2f 40 58	 comiss	 xmm0, DWORD PTR [eax+88]
  00037	76 07		 jbe	 SHORT $LN2@Update

; 75   : 		return FALSE;

  00039	33 c0		 xor	 eax, eax
  0003b	e9 84 03 00 00	 jmp	 $LN1@Update
$LN2@Update:

; 76   : 
; 77   : 	float fLifePercentage = (m_fLifeTime - m_fLastLifeTime) / m_fLifeTime;

  00040	8b 45 ec	 mov	 eax, DWORD PTR _this$[ebp]
  00043	8b 4d ec	 mov	 ecx, DWORD PTR _this$[ebp]
  00046	f3 0f 10 40 54	 movss	 xmm0, DWORD PTR [eax+84]
  0004b	f3 0f 5c 41 58	 subss	 xmm0, DWORD PTR [ecx+88]
  00050	8b 45 ec	 mov	 eax, DWORD PTR _this$[ebp]
  00053	f3 0f 5e 40 54	 divss	 xmm0, DWORD PTR [eax+84]
  00058	f3 0f 11 45 b4	 movss	 DWORD PTR _fLifePercentage$[ebp], xmm0
; File D:\Metin2 Server Files\mainline\SRC_2014\Metin2Client\EffectLib\EffectUpdateDecorator.h

; 17   : 			: fTime(fTime), fElapsedTime(fElapsedTime), pInstance(pInstance)

  0005d	f3 0f 10 45 b4	 movss	 xmm0, DWORD PTR _fLifePercentage$[ebp]
  00062	f3 0f 11 85 78
	ff ff ff	 movss	 DWORD PTR $T2[ebp], xmm0
  0006a	f3 0f 10 45 08	 movss	 xmm0, DWORD PTR _fElapsedTime$[ebp]
  0006f	f3 0f 11 85 7c
	ff ff ff	 movss	 DWORD PTR $T2[ebp+4], xmm0
  00077	8b 45 ec	 mov	 eax, DWORD PTR _this$[ebp]
  0007a	89 45 80	 mov	 DWORD PTR $T2[ebp+8], eax
; File D:\Metin2 Server Files\mainline\SRC_2014\Metin2Client\EffectLib\ParticleInstance.cpp

; 79   : 	m_pDecorator->Excute(CDecoratorData(fLifePercentage,fElapsedTime,this));

  0007d	8b 45 ec	 mov	 eax, DWORD PTR _this$[ebp]
  00080	8b 40 70	 mov	 eax, DWORD PTR [eax+112]
  00083	89 45 b0	 mov	 DWORD PTR _this$[ebp], eax
; File D:\Metin2 Server Files\mainline\SRC_2014\Metin2Client\EffectLib\EffectUpdateDecorator.h

; 29   : 			CBaseDecorator* pd = this;

  00086	8b 45 b0	 mov	 eax, DWORD PTR _this$[ebp]
  00089	89 45 e0	 mov	 DWORD PTR _pd$10[ebp], eax
$LN10@Update:

; 30   : 			while(pd)

  0008c	83 7d e0 00	 cmp	 DWORD PTR _pd$10[ebp], 0
  00090	74 23		 je	 SHORT $LN11@Update

; 31   : 			{
; 32   : 				CBaseDecorator* pNextDecorator = pd->m_NextDecorator;

  00092	8b 45 e0	 mov	 eax, DWORD PTR _pd$10[ebp]
  00095	8b 40 04	 mov	 eax, DWORD PTR [eax+4]
  00098	89 45 ac	 mov	 DWORD PTR _pNextDecorator$4[ebp], eax

; 33   : 				pd->__Excute(d);

  0009b	8d 85 78 ff ff
	ff		 lea	 eax, DWORD PTR $T2[ebp]
  000a1	50		 push	 eax
  000a2	8b 45 e0	 mov	 eax, DWORD PTR _pd$10[ebp]
  000a5	8b 00		 mov	 eax, DWORD PTR [eax]
  000a7	8b 4d e0	 mov	 ecx, DWORD PTR _pd$10[ebp]
  000aa	ff 50 04	 call	 DWORD PTR [eax+4]

; 34   : 				pd = pNextDecorator;

  000ad	8b 45 ac	 mov	 eax, DWORD PTR _pNextDecorator$4[ebp]
  000b0	89 45 e0	 mov	 DWORD PTR _pd$10[ebp], eax

; 35   : 			}

  000b3	eb d7		 jmp	 SHORT $LN10@Update
$LN11@Update:
; File D:\Metin2 Server Files\mainline\SRC_2014\Metin2Client\EffectLib\ParticleInstance.cpp

; 81   : 	m_v3LastPosition = m_v3Position;

  000b5	8b 75 ec	 mov	 esi, DWORD PTR _this$[ebp]
  000b8	83 c6 0c	 add	 esi, 12			; 0000000cH
  000bb	8b 7d ec	 mov	 edi, DWORD PTR _this$[ebp]
  000be	83 c7 18	 add	 edi, 24			; 00000018H
  000c1	a5		 movsd
  000c2	a5		 movsd
  000c3	a5		 movsd

; 82   : 	m_v3Position += m_v3Velocity * fElapsedTime;

  000c4	8b 45 ec	 mov	 eax, DWORD PTR _this$[ebp]
  000c7	83 c0 24	 add	 eax, 36			; 00000024H
  000ca	89 45 dc	 mov	 DWORD PTR _this$[ebp], eax
; File D:\Metin2 Server Files\mainline\SRC_2014\M2Data\include\d3dx8math.inl

; 269  :     return D3DXVECTOR3(x * f, y * f, z * f);

  000cd	8b 45 dc	 mov	 eax, DWORD PTR _this$[ebp]
  000d0	f3 0f 10 00	 movss	 xmm0, DWORD PTR [eax]
  000d4	f3 0f 59 45 08	 mulss	 xmm0, DWORD PTR _fElapsedTime$[ebp]
  000d9	f3 0f 11 45 a8	 movss	 DWORD PTR _fx$[ebp], xmm0
  000de	8b 45 dc	 mov	 eax, DWORD PTR _this$[ebp]
  000e1	f3 0f 10 40 04	 movss	 xmm0, DWORD PTR [eax+4]
  000e6	f3 0f 59 45 08	 mulss	 xmm0, DWORD PTR _fElapsedTime$[ebp]
  000eb	f3 0f 11 45 a4	 movss	 DWORD PTR _fy$[ebp], xmm0
  000f0	8b 45 dc	 mov	 eax, DWORD PTR _this$[ebp]
  000f3	f3 0f 10 40 08	 movss	 xmm0, DWORD PTR [eax+8]
  000f8	f3 0f 59 45 08	 mulss	 xmm0, DWORD PTR _fElapsedTime$[ebp]
  000fd	f3 0f 11 45 a0	 movss	 DWORD PTR _fz$[ebp], xmm0

; 180  :     x = fx;

  00102	f3 0f 10 45 a8	 movss	 xmm0, DWORD PTR _fx$[ebp]
  00107	f3 0f 11 45 f0	 movss	 DWORD PTR $T11[ebp], xmm0

; 181  :     y = fy;

  0010c	f3 0f 10 45 a4	 movss	 xmm0, DWORD PTR _fy$[ebp]
  00111	f3 0f 11 45 f4	 movss	 DWORD PTR $T11[ebp+4], xmm0

; 182  :     z = fz;

  00116	f3 0f 10 45 a0	 movss	 xmm0, DWORD PTR _fz$[ebp]
  0011b	f3 0f 11 45 f8	 movss	 DWORD PTR $T11[ebp+8], xmm0
; File D:\Metin2 Server Files\mainline\SRC_2014\Metin2Client\EffectLib\ParticleInstance.cpp

; 82   : 	m_v3Position += m_v3Velocity * fElapsedTime;

  00120	8b 45 ec	 mov	 eax, DWORD PTR _this$[ebp]
  00123	83 c0 0c	 add	 eax, 12			; 0000000cH
  00126	89 45 e8	 mov	 DWORD PTR _this$[ebp], eax
; File D:\Metin2 Server Files\mainline\SRC_2014\M2Data\include\d3dx8math.inl

; 204  :     x += v.x;

  00129	8b 45 e8	 mov	 eax, DWORD PTR _this$[ebp]
  0012c	f3 0f 10 00	 movss	 xmm0, DWORD PTR [eax]
  00130	f3 0f 58 45 f0	 addss	 xmm0, DWORD PTR $T11[ebp]
  00135	8b 45 e8	 mov	 eax, DWORD PTR _this$[ebp]
  00138	f3 0f 11 00	 movss	 DWORD PTR [eax], xmm0

; 205  :     y += v.y;

  0013c	8b 45 e8	 mov	 eax, DWORD PTR _this$[ebp]
  0013f	f3 0f 10 40 04	 movss	 xmm0, DWORD PTR [eax+4]
  00144	f3 0f 58 45 f4	 addss	 xmm0, DWORD PTR $T11[ebp+4]
  00149	8b 45 e8	 mov	 eax, DWORD PTR _this$[ebp]
  0014c	f3 0f 11 40 04	 movss	 DWORD PTR [eax+4], xmm0

; 206  :     z += v.z;

  00151	8b 45 e8	 mov	 eax, DWORD PTR _this$[ebp]
  00154	f3 0f 10 40 08	 movss	 xmm0, DWORD PTR [eax+8]
  00159	f3 0f 58 45 f8	 addss	 xmm0, DWORD PTR $T11[ebp+8]
  0015e	8b 45 e8	 mov	 eax, DWORD PTR _this$[ebp]
  00161	f3 0f 11 40 08	 movss	 DWORD PTR [eax+8], xmm0
; File D:\Metin2 Server Files\mainline\SRC_2014\Metin2Client\EffectLib\ParticleInstance.cpp

; 84   : 	if (fAngle)

  00166	f3 0f 10 45 0c	 movss	 xmm0, DWORD PTR _fAngle$[ebp]
  0016b	0f 2e 05 00 00
	00 00		 ucomiss xmm0, DWORD PTR __real@00000000
  00172	9f		 lahf
  00173	f6 c4 44	 test	 ah, 68			; 00000044H
  00176	0f 8b 45 02 00
	00		 jnp	 $LN37@Update

; 85   : 	{
; 86   : 		if (m_pParticleProperty->m_bAttachFlag)

  0017c	8b 45 ec	 mov	 eax, DWORD PTR _this$[ebp]
  0017f	8b 40 5c	 mov	 eax, DWORD PTR [eax+92]
  00182	83 78 20 00	 cmp	 DWORD PTR [eax+32], 0
  00186	0f 84 c2 00 00
	00		 je	 $LN4@Update

; 87   : 		{
; 88   : 			float fCos, fSin;
; 89   : 			fAngle = D3DXToRadian(fAngle);

  0018c	f3 0f 10 45 0c	 movss	 xmm0, DWORD PTR _fAngle$[ebp]
  00191	f3 0f 59 05 00
	00 00 00	 mulss	 xmm0, DWORD PTR __real@3c8efa35
  00199	f3 0f 11 45 0c	 movss	 DWORD PTR _fAngle$[ebp], xmm0
; File C:\Program Files (x86)\Windows Kits\10\Include\10.0.18362.0\ucrt\corecrt_math.h

; 649  :             return (float)cos(_X);

  0019e	f3 0f 5a 45 0c	 cvtss2sd xmm0, DWORD PTR _fAngle$[ebp]
  001a3	51		 push	 ecx
  001a4	51		 push	 ecx
  001a5	f2 0f 11 04 24	 movsd	 QWORD PTR [esp], xmm0
  001aa	e8 00 00 00 00	 call	 _cos
  001af	59		 pop	 ecx
  001b0	59		 pop	 ecx
; File C:\Program Files (x86)\Microsoft Visual Studio\2019\Community\VC\Tools\MSVC\14.28.29333\include\cmath

; 67   :     return _CSTD cosf(_Xx);

  001b1	d9 5d cc	 fstp	 DWORD PTR _fCos$7[ebp]
; File C:\Program Files (x86)\Windows Kits\10\Include\10.0.18362.0\ucrt\corecrt_math.h

; 750  :             return (float)sin(_X);

  001b4	f3 0f 5a 45 0c	 cvtss2sd xmm0, DWORD PTR _fAngle$[ebp]
  001b9	51		 push	 ecx
  001ba	51		 push	 ecx
  001bb	f2 0f 11 04 24	 movsd	 QWORD PTR [esp], xmm0
  001c0	e8 00 00 00 00	 call	 _sin
  001c5	59		 pop	 ecx
  001c6	59		 pop	 ecx
; File C:\Program Files (x86)\Microsoft Visual Studio\2019\Community\VC\Tools\MSVC\14.28.29333\include\cmath

; 223  :     return _CSTD sinf(_Xx);

  001c7	d9 5d d4	 fstp	 DWORD PTR _fSin$9[ebp]
; File D:\Metin2 Server Files\mainline\SRC_2014\Metin2Client\EffectLib\ParticleInstance.cpp

; 93   : 			float rx = m_v3Position.x - m_v3StartPosition.x;

  001ca	8b 45 ec	 mov	 eax, DWORD PTR _this$[ebp]
  001cd	8b 4d ec	 mov	 ecx, DWORD PTR _this$[ebp]
  001d0	f3 0f 10 40 0c	 movss	 xmm0, DWORD PTR [eax+12]
  001d5	f3 0f 5c 01	 subss	 xmm0, DWORD PTR [ecx]
  001d9	f3 0f 11 45 d0	 movss	 DWORD PTR _rx$8[ebp], xmm0

; 94   : 			float ry = m_v3Position.y - m_v3StartPosition.y;

  001de	8b 45 ec	 mov	 eax, DWORD PTR _this$[ebp]
  001e1	8b 4d ec	 mov	 ecx, DWORD PTR _this$[ebp]
  001e4	f3 0f 10 40 10	 movss	 xmm0, DWORD PTR [eax+16]
  001e9	f3 0f 5c 41 04	 subss	 xmm0, DWORD PTR [ecx+4]
  001ee	f3 0f 11 45 c8	 movss	 DWORD PTR _ry$6[ebp], xmm0

; 95   : 
; 96   : 			m_v3Position.x =   fCos * rx + fSin * ry + m_v3StartPosition.x;

  001f3	f3 0f 10 45 cc	 movss	 xmm0, DWORD PTR _fCos$7[ebp]
  001f8	f3 0f 59 45 d0	 mulss	 xmm0, DWORD PTR _rx$8[ebp]
  001fd	f3 0f 10 4d d4	 movss	 xmm1, DWORD PTR _fSin$9[ebp]
  00202	f3 0f 59 4d c8	 mulss	 xmm1, DWORD PTR _ry$6[ebp]
  00207	f3 0f 58 c1	 addss	 xmm0, xmm1
  0020b	8b 45 ec	 mov	 eax, DWORD PTR _this$[ebp]
  0020e	f3 0f 58 00	 addss	 xmm0, DWORD PTR [eax]
  00212	8b 45 ec	 mov	 eax, DWORD PTR _this$[ebp]
  00215	f3 0f 11 40 0c	 movss	 DWORD PTR [eax+12], xmm0

; 97   : 			m_v3Position.y = - fSin * rx + fCos * ry + m_v3StartPosition.y;

  0021a	f3 0f 10 45 d4	 movss	 xmm0, DWORD PTR _fSin$9[ebp]
  0021f	0f 57 05 00 00
	00 00		 xorps	 xmm0, DWORD PTR __xmm@80000000800000008000000080000000
  00226	f3 0f 59 45 d0	 mulss	 xmm0, DWORD PTR _rx$8[ebp]
  0022b	f3 0f 10 4d cc	 movss	 xmm1, DWORD PTR _fCos$7[ebp]
  00230	f3 0f 59 4d c8	 mulss	 xmm1, DWORD PTR _ry$6[ebp]
  00235	f3 0f 58 c1	 addss	 xmm0, xmm1
  00239	8b 45 ec	 mov	 eax, DWORD PTR _this$[ebp]
  0023c	f3 0f 58 40 04	 addss	 xmm0, DWORD PTR [eax+4]
  00241	8b 45 ec	 mov	 eax, DWORD PTR _this$[ebp]
  00244	f3 0f 11 40 10	 movss	 DWORD PTR [eax+16], xmm0

; 98   : 		}

  00249	e9 73 01 00 00	 jmp	 $LN37@Update
$LN4@Update:

; 99   : 		else
; 100  : 		{
; 101  : 			D3DXQUATERNION q,qc;
; 102  : 			D3DXQuaternionRotationAxis(&q,&m_pParticleProperty->m_v3ZAxis,D3DXToRadian(fAngle));

  0024e	f3 0f 10 45 0c	 movss	 xmm0, DWORD PTR _fAngle$[ebp]
  00253	f3 0f 59 05 00
	00 00 00	 mulss	 xmm0, DWORD PTR __real@3c8efa35
  0025b	51		 push	 ecx
  0025c	f3 0f 11 04 24	 movss	 DWORD PTR [esp], xmm0
  00261	8b 45 ec	 mov	 eax, DWORD PTR _this$[ebp]
  00264	8b 40 5c	 mov	 eax, DWORD PTR [eax+92]
  00267	83 c0 7c	 add	 eax, 124		; 0000007cH
  0026a	50		 push	 eax
  0026b	8d 45 84	 lea	 eax, DWORD PTR _q$3[ebp]
  0026e	50		 push	 eax
  0026f	e8 00 00 00 00	 call	 _D3DXQuaternionRotationAxis@12
; File D:\Metin2 Server Files\mainline\SRC_2014\M2Data\include\d3dx8math.inl

; 1616 :     pOut->x = -pQ->x;

  00274	f3 0f 10 45 84	 movss	 xmm0, DWORD PTR _q$3[ebp]
  00279	0f 57 05 00 00
	00 00		 xorps	 xmm0, DWORD PTR __xmm@80000000800000008000000080000000
  00280	f3 0f 11 85 68
	ff ff ff	 movss	 DWORD PTR _qc$1[ebp], xmm0

; 1617 :     pOut->y = -pQ->y;

  00288	f3 0f 10 45 88	 movss	 xmm0, DWORD PTR _q$3[ebp+4]
  0028d	0f 57 05 00 00
	00 00		 xorps	 xmm0, DWORD PTR __xmm@80000000800000008000000080000000
  00294	f3 0f 11 85 6c
	ff ff ff	 movss	 DWORD PTR _qc$1[ebp+4], xmm0

; 1618 :     pOut->z = -pQ->z;

  0029c	f3 0f 10 45 8c	 movss	 xmm0, DWORD PTR _q$3[ebp+8]
  002a1	0f 57 05 00 00
	00 00		 xorps	 xmm0, DWORD PTR __xmm@80000000800000008000000080000000
  002a8	f3 0f 11 85 70
	ff ff ff	 movss	 DWORD PTR _qc$1[ebp+8], xmm0

; 1619 :     pOut->w =  pQ->w;

  002b0	f3 0f 10 45 90	 movss	 xmm0, DWORD PTR _q$3[ebp+12]
  002b5	f3 0f 11 85 74
	ff ff ff	 movss	 DWORD PTR _qc$1[ebp+12], xmm0
; File D:\Metin2 Server Files\mainline\SRC_2014\Metin2Client\EffectLib\ParticleInstance.cpp

; 105  : 			D3DXQUATERNION qr(

  002bd	8b 45 ec	 mov	 eax, DWORD PTR _this$[ebp]
  002c0	8b 4d ec	 mov	 ecx, DWORD PTR _this$[ebp]
  002c3	f3 0f 10 40 0c	 movss	 xmm0, DWORD PTR [eax+12]
  002c8	f3 0f 5c 01	 subss	 xmm0, DWORD PTR [ecx]
  002cc	f3 0f 11 45 9c	 movss	 DWORD PTR _fx$[ebp], xmm0
  002d1	8b 45 ec	 mov	 eax, DWORD PTR _this$[ebp]
  002d4	8b 4d ec	 mov	 ecx, DWORD PTR _this$[ebp]
  002d7	f3 0f 10 40 10	 movss	 xmm0, DWORD PTR [eax+16]
  002dc	f3 0f 5c 41 04	 subss	 xmm0, DWORD PTR [ecx+4]
  002e1	f3 0f 11 45 98	 movss	 DWORD PTR _fy$[ebp], xmm0
  002e6	8b 45 ec	 mov	 eax, DWORD PTR _this$[ebp]
  002e9	8b 4d ec	 mov	 ecx, DWORD PTR _this$[ebp]
  002ec	f3 0f 10 40 14	 movss	 xmm0, DWORD PTR [eax+20]
  002f1	f3 0f 5c 41 08	 subss	 xmm0, DWORD PTR [ecx+8]
  002f6	f3 0f 11 45 94	 movss	 DWORD PTR _fz$[ebp], xmm0
; File D:\Metin2 Server Files\mainline\SRC_2014\M2Data\include\d3dx8math.inl

; 667  :     x = fx;

  002fb	f3 0f 10 45 9c	 movss	 xmm0, DWORD PTR _fx$[ebp]
  00300	f3 0f 11 45 b8	 movss	 DWORD PTR _qr$5[ebp], xmm0

; 668  :     y = fy;

  00305	f3 0f 10 45 98	 movss	 xmm0, DWORD PTR _fy$[ebp]
  0030a	f3 0f 11 45 bc	 movss	 DWORD PTR _qr$5[ebp+4], xmm0

; 669  :     z = fz;

  0030f	f3 0f 10 45 94	 movss	 xmm0, DWORD PTR _fz$[ebp]
  00314	f3 0f 11 45 c0	 movss	 DWORD PTR _qr$5[ebp+8], xmm0

; 670  :     w = fw;

  00319	0f 57 c0	 xorps	 xmm0, xmm0
  0031c	f3 0f 11 45 c4	 movss	 DWORD PTR _qr$5[ebp+12], xmm0
; File D:\Metin2 Server Files\mainline\SRC_2014\Metin2Client\EffectLib\ParticleInstance.cpp

; 110  : 			D3DXQuaternionMultiply(&qr,&q,&qr);

  00321	8d 45 b8	 lea	 eax, DWORD PTR _qr$5[ebp]
  00324	50		 push	 eax
  00325	8d 45 84	 lea	 eax, DWORD PTR _q$3[ebp]
  00328	50		 push	 eax
  00329	8d 45 b8	 lea	 eax, DWORD PTR _qr$5[ebp]
  0032c	50		 push	 eax
  0032d	e8 00 00 00 00	 call	 _D3DXQuaternionMultiply@12

; 111  : 			D3DXQuaternionMultiply(&qr,&qr,&qc);

  00332	8d 85 68 ff ff
	ff		 lea	 eax, DWORD PTR _qc$1[ebp]
  00338	50		 push	 eax
  00339	8d 45 b8	 lea	 eax, DWORD PTR _qr$5[ebp]
  0033c	50		 push	 eax
  0033d	8d 45 b8	 lea	 eax, DWORD PTR _qr$5[ebp]
  00340	50		 push	 eax
  00341	e8 00 00 00 00	 call	 _D3DXQuaternionMultiply@12

; 112  : 
; 113  : 			m_v3Position.x = qr.x;

  00346	8b 45 ec	 mov	 eax, DWORD PTR _this$[ebp]
  00349	f3 0f 10 45 b8	 movss	 xmm0, DWORD PTR _qr$5[ebp]
  0034e	f3 0f 11 40 0c	 movss	 DWORD PTR [eax+12], xmm0

; 114  : 			m_v3Position.y = qr.y;

  00353	8b 45 ec	 mov	 eax, DWORD PTR _this$[ebp]
  00356	f3 0f 10 45 bc	 movss	 xmm0, DWORD PTR _qr$5[ebp+4]
  0035b	f3 0f 11 40 10	 movss	 DWORD PTR [eax+16], xmm0

; 115  : 			m_v3Position.z = qr.z;

  00360	8b 45 ec	 mov	 eax, DWORD PTR _this$[ebp]
  00363	f3 0f 10 45 c0	 movss	 xmm0, DWORD PTR _qr$5[ebp+8]
  00368	f3 0f 11 40 14	 movss	 DWORD PTR [eax+20], xmm0

; 116  : 
; 117  : 			m_v3Position += m_v3StartPosition;

  0036d	8b 45 ec	 mov	 eax, DWORD PTR _this$[ebp]
  00370	89 45 d8	 mov	 DWORD PTR _v$[ebp], eax
  00373	8b 45 ec	 mov	 eax, DWORD PTR _this$[ebp]
  00376	83 c0 0c	 add	 eax, 12			; 0000000cH
  00379	89 45 e4	 mov	 DWORD PTR _this$[ebp], eax
; File D:\Metin2 Server Files\mainline\SRC_2014\M2Data\include\d3dx8math.inl

; 204  :     x += v.x;

  0037c	8b 45 e4	 mov	 eax, DWORD PTR _this$[ebp]
  0037f	8b 4d d8	 mov	 ecx, DWORD PTR _v$[ebp]
  00382	f3 0f 10 00	 movss	 xmm0, DWORD PTR [eax]
  00386	f3 0f 58 01	 addss	 xmm0, DWORD PTR [ecx]
  0038a	8b 45 e4	 mov	 eax, DWORD PTR _this$[ebp]
  0038d	f3 0f 11 00	 movss	 DWORD PTR [eax], xmm0

; 205  :     y += v.y;

  00391	8b 45 e4	 mov	 eax, DWORD PTR _this$[ebp]
  00394	8b 4d d8	 mov	 ecx, DWORD PTR _v$[ebp]
  00397	f3 0f 10 40 04	 movss	 xmm0, DWORD PTR [eax+4]
  0039c	f3 0f 58 41 04	 addss	 xmm0, DWORD PTR [ecx+4]
  003a1	8b 45 e4	 mov	 eax, DWORD PTR _this$[ebp]
  003a4	f3 0f 11 40 04	 movss	 DWORD PTR [eax+4], xmm0

; 206  :     z += v.z;

  003a9	8b 45 e4	 mov	 eax, DWORD PTR _this$[ebp]
  003ac	8b 4d d8	 mov	 ecx, DWORD PTR _v$[ebp]
  003af	f3 0f 10 40 08	 movss	 xmm0, DWORD PTR [eax+8]
  003b4	f3 0f 58 41 08	 addss	 xmm0, DWORD PTR [ecx+8]
  003b9	8b 45 e4	 mov	 eax, DWORD PTR _this$[ebp]
  003bc	f3 0f 11 40 08	 movss	 DWORD PTR [eax+8], xmm0
$LN37@Update:
; File D:\Metin2 Server Files\mainline\SRC_2014\Metin2Client\EffectLib\ParticleInstance.cpp

; 121  : 	return TRUE;

  003c1	33 c0		 xor	 eax, eax
  003c3	40		 inc	 eax
$LN1@Update:

; 122  : }

  003c4	5f		 pop	 edi
  003c5	5e		 pop	 esi
  003c6	8b 4d fc	 mov	 ecx, DWORD PTR __$ArrayPad$[ebp]
  003c9	33 cd		 xor	 ecx, ebp
  003cb	e8 00 00 00 00	 call	 @__security_check_cookie@4
  003d0	c9		 leave
  003d1	c2 08 00	 ret	 8
?Update@CParticleInstance@@QAEHMM@Z ENDP		; CParticleInstance::Update
_TEXT	ENDS
; Function compile flags: /Odspy
; File D:\Metin2 Server Files\mainline\SRC_2014\Metin2Client\EffectLib\ParticleInstance.cpp
;	COMDAT ?GetRadiusApproximation@CParticleInstance@@QAEMXZ
_TEXT	SEGMENT
tv82 = -8						; size = 4
_this$ = -4						; size = 4
?GetRadiusApproximation@CParticleInstance@@QAEMXZ PROC	; CParticleInstance::GetRadiusApproximation, COMDAT
; _this$ = ecx

; 57   : {

  00000	55		 push	 ebp
  00001	8b ec		 mov	 ebp, esp
  00003	51		 push	 ecx
  00004	51		 push	 ecx
  00005	89 4d fc	 mov	 DWORD PTR _this$[ebp], ecx

; 58   : 	return m_v2HalfSize.y*m_v2Scale.y + m_v2HalfSize.x*m_v2Scale.x;

  00008	8b 45 fc	 mov	 eax, DWORD PTR _this$[ebp]
  0000b	8b 4d fc	 mov	 ecx, DWORD PTR _this$[ebp]
  0000e	f3 0f 10 40 34	 movss	 xmm0, DWORD PTR [eax+52]
  00013	f3 0f 59 41 3c	 mulss	 xmm0, DWORD PTR [ecx+60]
  00018	8b 45 fc	 mov	 eax, DWORD PTR _this$[ebp]
  0001b	8b 4d fc	 mov	 ecx, DWORD PTR _this$[ebp]
  0001e	f3 0f 10 48 30	 movss	 xmm1, DWORD PTR [eax+48]
  00023	f3 0f 59 49 38	 mulss	 xmm1, DWORD PTR [ecx+56]
  00028	f3 0f 58 c1	 addss	 xmm0, xmm1
  0002c	f3 0f 11 45 f8	 movss	 DWORD PTR tv82[ebp], xmm0
  00031	d9 45 f8	 fld	 DWORD PTR tv82[ebp]

; 59   : }

  00034	c9		 leave
  00035	c3		 ret	 0
?GetRadiusApproximation@CParticleInstance@@QAEMXZ ENDP	; CParticleInstance::GetRadiusApproximation
_TEXT	ENDS
; Function compile flags: /Odspy
; File D:\Metin2 Server Files\mainline\SRC_2014\Metin2Client\EffectLib\ParticleInstance.cpp
;	COMDAT ??1CParticleInstance@@QAE@XZ
_TEXT	SEGMENT
_this$ = -16						; size = 4
__$EHRec$ = -12						; size = 12
??1CParticleInstance@@QAE@XZ PROC			; CParticleInstance::~CParticleInstance, COMDAT
; _this$ = ecx

; 470  : {

  00000	55		 push	 ebp
  00001	8b ec		 mov	 ebp, esp
  00003	6a ff		 push	 -1
  00005	68 00 00 00 00	 push	 __ehhandler$??1CParticleInstance@@QAE@XZ
  0000a	64 a1 00 00 00
	00		 mov	 eax, DWORD PTR fs:0
  00010	50		 push	 eax
  00011	51		 push	 ecx
  00012	a1 00 00 00 00	 mov	 eax, DWORD PTR ___security_cookie
  00017	33 c5		 xor	 eax, ebp
  00019	50		 push	 eax
  0001a	8d 45 f4	 lea	 eax, DWORD PTR __$EHRec$[ebp]
  0001d	64 a3 00 00 00
	00		 mov	 DWORD PTR fs:0, eax
  00023	89 4d f0	 mov	 DWORD PTR _this$[ebp], ecx

; 471  : 	Destroy();

  00026	8b 4d f0	 mov	 ecx, DWORD PTR _this$[ebp]
  00029	e8 00 00 00 00	 call	 ?Destroy@CParticleInstance@@QAEXXZ ; CParticleInstance::Destroy

; 472  : }

  0002e	8b 4d f4	 mov	 ecx, DWORD PTR __$EHRec$[ebp]
  00031	64 89 0d 00 00
	00 00		 mov	 DWORD PTR fs:0, ecx
  00038	59		 pop	 ecx
  00039	c9		 leave
  0003a	c3		 ret	 0
  0003b	cc		 int	 3
  0003c	cc		 int	 3
  0003d	cc		 int	 3
  0003e	cc		 int	 3
  0003f	cc		 int	 3
_TEXT	ENDS
;	COMDAT text$x
text$x	SEGMENT
__ehhandler$??1CParticleInstance@@QAE@XZ:
  00000	90		 npad	 1
  00001	90		 npad	 1
  00002	8b 54 24 08	 mov	 edx, DWORD PTR [esp+8]
  00006	8d 42 0c	 lea	 eax, DWORD PTR [edx+12]
  00009	8b 4a f8	 mov	 ecx, DWORD PTR [edx-8]
  0000c	33 c8		 xor	 ecx, eax
  0000e	e8 00 00 00 00	 call	 @__security_check_cookie@4
  00013	b8 00 00 00 00	 mov	 eax, OFFSET __ehfuncinfo$??1CParticleInstance@@QAE@XZ
  00018	e9 00 00 00 00	 jmp	 ___CxxFrameHandler3
text$x	ENDS
??1CParticleInstance@@QAE@XZ ENDP			; CParticleInstance::~CParticleInstance
; Function compile flags: /Odspy
; File D:\Metin2 Server Files\mainline\SRC_2014\Metin2Client\EffectLib\ParticleInstance.cpp
; File D:\Metin2 Server Files\mainline\SRC_2014\Metin2Client\EffectLib\ParticleInstance.h
; File D:\Metin2 Server Files\mainline\SRC_2014\Metin2Client\EffectLib\ParticleInstance.cpp
;	COMDAT ??0CParticleInstance@@QAE@XZ
_TEXT	SEGMENT
tv74 = -16						; size = 4
___t$ = -12						; size = 4
_this$ = -8						; size = 4
___n$ = -4						; size = 4
??0CParticleInstance@@QAE@XZ PROC			; CParticleInstance::CParticleInstance, COMDAT
; _this$ = ecx

; 465  : {

  00000	55		 push	 ebp
  00001	8b ec		 mov	 ebp, esp
  00003	83 ec 10	 sub	 esp, 16			; 00000010H
  00006	89 4d f8	 mov	 DWORD PTR _this$[ebp], ecx
; File D:\Metin2 Server Files\mainline\SRC_2014\Metin2Client\EffectLib\ParticleInstance.h

; 71   : 		NEffectUpdateDecorator::CBaseDecorator * m_pDecorator;	

  00009	c7 45 fc 04 00
	00 00		 mov	 DWORD PTR ___n$[ebp], 4
  00010	8b 45 f8	 mov	 eax, DWORD PTR _this$[ebp]
  00013	83 c0 74	 add	 eax, 116		; 00000074H
  00016	89 45 f4	 mov	 DWORD PTR ___t$[ebp], eax
$LN18@CParticleI:
  00019	8b 45 fc	 mov	 eax, DWORD PTR ___n$[ebp]
  0001c	89 45 f0	 mov	 DWORD PTR tv74[ebp], eax
  0001f	8b 45 fc	 mov	 eax, DWORD PTR ___n$[ebp]
  00022	48		 dec	 eax
  00023	89 45 fc	 mov	 DWORD PTR ___n$[ebp], eax
  00026	83 7d f0 00	 cmp	 DWORD PTR tv74[ebp], 0
  0002a	76 0b		 jbe	 SHORT $LN17@CParticleI
  0002c	8b 45 f4	 mov	 eax, DWORD PTR ___t$[ebp]
  0002f	83 c0 14	 add	 eax, 20			; 00000014H
  00032	89 45 f4	 mov	 DWORD PTR ___t$[ebp], eax
  00035	eb e2		 jmp	 SHORT $LN18@CParticleI
$LN17@CParticleI:
; File D:\Metin2 Server Files\mainline\SRC_2014\Metin2Client\EffectLib\ParticleInstance.cpp

; 466  : 	__Initialize();

  00037	8b 4d f8	 mov	 ecx, DWORD PTR _this$[ebp]
  0003a	e8 00 00 00 00	 call	 ?__Initialize@CParticleInstance@@IAEXXZ ; CParticleInstance::__Initialize

; 467  : }

  0003f	8b 45 f8	 mov	 eax, DWORD PTR _this$[ebp]
  00042	c9		 leave
  00043	c3		 ret	 0
??0CParticleInstance@@QAE@XZ ENDP			; CParticleInstance::CParticleInstance
_TEXT	ENDS
; Function compile flags: /Odspy
; File D:\Metin2 Server Files\mainline\SRC_2014\Metin2Client\EffectLib\EffectUpdateDecorator.h
;	COMDAT ?DeleteThis@CBaseDecorator@NEffectUpdateDecorator@@QAEXXZ
_TEXT	SEGMENT
tv74 = -12						; size = 4
$T1 = -8						; size = 4
_this$ = -4						; size = 4
?DeleteThis@CBaseDecorator@NEffectUpdateDecorator@@QAEXXZ PROC ; NEffectUpdateDecorator::CBaseDecorator::DeleteThis, COMDAT
; _this$ = ecx

; 44   : 		{

  00000	55		 push	 ebp
  00001	8b ec		 mov	 ebp, esp
  00003	83 ec 0c	 sub	 esp, 12			; 0000000cH
  00006	89 4d fc	 mov	 DWORD PTR _this$[ebp], ecx

; 45   : 			//return;
; 46   : 			if (m_NextDecorator)

  00009	8b 45 fc	 mov	 eax, DWORD PTR _this$[ebp]
  0000c	83 78 04 00	 cmp	 DWORD PTR [eax+4], 0
  00010	74 0b		 je	 SHORT $LN2@DeleteThis

; 47   : 				m_NextDecorator->DeleteThis();

  00012	8b 45 fc	 mov	 eax, DWORD PTR _this$[ebp]
  00015	8b 48 04	 mov	 ecx, DWORD PTR [eax+4]
  00018	e8 00 00 00 00	 call	 ?DeleteThis@CBaseDecorator@NEffectUpdateDecorator@@QAEXXZ ; NEffectUpdateDecorator::CBaseDecorator::DeleteThis
$LN2@DeleteThis:

; 48   : 			delete this;

  0001d	8b 45 fc	 mov	 eax, DWORD PTR _this$[ebp]
  00020	89 45 f8	 mov	 DWORD PTR $T1[ebp], eax
  00023	83 7d f8 00	 cmp	 DWORD PTR $T1[ebp], 0
  00027	74 11		 je	 SHORT $LN4@DeleteThis
  00029	6a 01		 push	 1
  0002b	8b 45 f8	 mov	 eax, DWORD PTR $T1[ebp]
  0002e	8b 00		 mov	 eax, DWORD PTR [eax]
  00030	8b 4d f8	 mov	 ecx, DWORD PTR $T1[ebp]
  00033	ff 10		 call	 DWORD PTR [eax]
  00035	89 45 f4	 mov	 DWORD PTR tv74[ebp], eax
  00038	eb 04		 jmp	 SHORT $LN1@DeleteThis
$LN4@DeleteThis:
  0003a	83 65 f4 00	 and	 DWORD PTR tv74[ebp], 0
$LN1@DeleteThis:

; 49   : 		}

  0003e	c9		 leave
  0003f	c3		 ret	 0
?DeleteThis@CBaseDecorator@NEffectUpdateDecorator@@QAEXXZ ENDP ; NEffectUpdateDecorator::CBaseDecorator::DeleteThis
_TEXT	ENDS
; Function compile flags: /Odspy
; File C:\Program Files (x86)\Microsoft Visual Studio\2019\Community\VC\Tools\MSVC\14.28.29333\include\xmemory
;	COMDAT ??$_Allocate_manually_vector_aligned@U_Default_allocate_traits@std@@@std@@YAPAXI@Z
_TEXT	SEGMENT
__Ptr$ = -12						; size = 4
__Block_size$ = -8					; size = 4
__Ptr_container$ = -4					; size = 4
__Bytes$ = 8						; size = 4
??$_Allocate_manually_vector_aligned@U_Default_allocate_traits@std@@@std@@YAPAXI@Z PROC ; std::_Allocate_manually_vector_aligned<std::_Default_allocate_traits>, COMDAT

; 113  : __declspec(allocator) void* _Allocate_manually_vector_aligned(const size_t _Bytes) {

  00000	55		 push	 ebp
  00001	8b ec		 mov	 ebp, esp
  00003	83 ec 0c	 sub	 esp, 12			; 0000000cH

; 114  :     // allocate _Bytes manually aligned to at least _Big_allocation_alignment
; 115  :     const size_t _Block_size = _Non_user_size + _Bytes;

  00006	8b 45 08	 mov	 eax, DWORD PTR __Bytes$[ebp]
  00009	83 c0 23	 add	 eax, 35			; 00000023H
  0000c	89 45 f8	 mov	 DWORD PTR __Block_size$[ebp], eax

; 116  :     if (_Block_size <= _Bytes) {

  0000f	8b 45 f8	 mov	 eax, DWORD PTR __Block_size$[ebp]
  00012	3b 45 08	 cmp	 eax, DWORD PTR __Bytes$[ebp]
  00015	77 05		 ja	 SHORT $LN12@Allocate_m

; 117  :         _Throw_bad_array_new_length(); // add overflow

  00017	e8 00 00 00 00	 call	 ?_Throw_bad_array_new_length@std@@YAXXZ ; std::_Throw_bad_array_new_length
$LN12@Allocate_m:

; 77   :         return ::operator new(_Bytes);

  0001c	ff 75 f8	 push	 DWORD PTR __Block_size$[ebp]
  0001f	e8 00 00 00 00	 call	 ??2@YAPAXI@Z		; operator new
  00024	59		 pop	 ecx

; 118  :     }
; 119  : 
; 120  :     const uintptr_t _Ptr_container = reinterpret_cast<uintptr_t>(_Traits::_Allocate(_Block_size));

  00025	89 45 fc	 mov	 DWORD PTR __Ptr_container$[ebp], eax
$LN4@Allocate_m:

; 121  :     _STL_VERIFY(_Ptr_container != 0, "invalid argument"); // validate even in release since we're doing p[-1]

  00028	83 7d fc 00	 cmp	 DWORD PTR __Ptr_container$[ebp], 0
  0002c	74 02		 je	 SHORT $LN7@Allocate_m
  0002e	eb 09		 jmp	 SHORT $LN2@Allocate_m
$LN7@Allocate_m:
  00030	e8 00 00 00 00	 call	 __invalid_parameter_noinfo_noreturn
  00035	33 c0		 xor	 eax, eax
  00037	75 f7		 jne	 SHORT $LN7@Allocate_m
$LN2@Allocate_m:
  00039	33 c0		 xor	 eax, eax
  0003b	75 eb		 jne	 SHORT $LN4@Allocate_m

; 122  :     void* const _Ptr = reinterpret_cast<void*>((_Ptr_container + _Non_user_size) & ~(_Big_allocation_alignment - 1));

  0003d	8b 45 fc	 mov	 eax, DWORD PTR __Ptr_container$[ebp]
  00040	83 c0 23	 add	 eax, 35			; 00000023H
  00043	83 e0 e0	 and	 eax, -32		; ffffffe0H
  00046	89 45 f4	 mov	 DWORD PTR __Ptr$[ebp], eax

; 123  :     static_cast<uintptr_t*>(_Ptr)[-1] = _Ptr_container;

  00049	6a 04		 push	 4
  0004b	58		 pop	 eax
  0004c	6b c0 ff	 imul	 eax, eax, -1
  0004f	8b 4d f4	 mov	 ecx, DWORD PTR __Ptr$[ebp]
  00052	8b 55 fc	 mov	 edx, DWORD PTR __Ptr_container$[ebp]
  00055	89 14 01	 mov	 DWORD PTR [ecx+eax], edx

; 124  : 
; 125  : #ifdef _DEBUG
; 126  :     static_cast<uintptr_t*>(_Ptr)[-2] = _Big_allocation_sentinel;
; 127  : #endif // _DEBUG
; 128  :     return _Ptr;

  00058	8b 45 f4	 mov	 eax, DWORD PTR __Ptr$[ebp]
$LN11@Allocate_m:

; 129  : }

  0005b	c9		 leave
  0005c	c3		 ret	 0
??$_Allocate_manually_vector_aligned@U_Default_allocate_traits@std@@@std@@YAPAXI@Z ENDP ; std::_Allocate_manually_vector_aligned<std::_Default_allocate_traits>
_TEXT	ENDS
; Function compile flags: /Odspy
; File C:\Program Files (x86)\Microsoft Visual Studio\2019\Community\VC\Tools\MSVC\14.28.29333\include\xmemory
;	COMDAT ??$_Allocate@$07U_Default_allocate_traits@std@@$0A@@std@@YAPAXI@Z
_TEXT	SEGMENT
__Bytes$ = 8						; size = 4
??$_Allocate@$07U_Default_allocate_traits@std@@$0A@@std@@YAPAXI@Z PROC ; std::_Allocate<8,std::_Default_allocate_traits,0>, COMDAT

; 197  : __declspec(allocator) void* _Allocate(const size_t _Bytes) {

  00000	55		 push	 ebp
  00001	8b ec		 mov	 ebp, esp

; 198  :     // allocate _Bytes when !_HAS_ALIGNED_NEW || _Align <= __STDCPP_DEFAULT_NEW_ALIGNMENT__
; 199  : #if defined(_M_IX86) || defined(_M_X64)
; 200  :     if (_Bytes >= _Big_allocation_threshold) { // boost the alignment of big allocations to help autovectorization

  00003	81 7d 08 00 10
	00 00		 cmp	 DWORD PTR __Bytes$[ebp], 4096 ; 00001000H
  0000a	72 0b		 jb	 SHORT $LN2@Allocate

; 201  :         return _Allocate_manually_vector_aligned<_Traits>(_Bytes);

  0000c	ff 75 08	 push	 DWORD PTR __Bytes$[ebp]
  0000f	e8 00 00 00 00	 call	 ??$_Allocate_manually_vector_aligned@U_Default_allocate_traits@std@@@std@@YAPAXI@Z ; std::_Allocate_manually_vector_aligned<std::_Default_allocate_traits>
  00014	59		 pop	 ecx
  00015	eb 13		 jmp	 SHORT $LN1@Allocate
$LN2@Allocate:

; 202  :     }
; 203  : #endif // defined(_M_IX86) || defined(_M_X64)
; 204  : 
; 205  :     if (_Bytes != 0) {

  00017	83 7d 08 00	 cmp	 DWORD PTR __Bytes$[ebp], 0
  0001b	74 0b		 je	 SHORT $LN3@Allocate

; 77   :         return ::operator new(_Bytes);

  0001d	ff 75 08	 push	 DWORD PTR __Bytes$[ebp]
  00020	e8 00 00 00 00	 call	 ??2@YAPAXI@Z		; operator new
  00025	59		 pop	 ecx

; 206  :         return _Traits::_Allocate(_Bytes);

  00026	eb 02		 jmp	 SHORT $LN1@Allocate
$LN3@Allocate:

; 207  :     }
; 208  : 
; 209  :     return nullptr;

  00028	33 c0		 xor	 eax, eax
$LN1@Allocate:

; 210  : }

  0002a	5d		 pop	 ebp
  0002b	c3		 ret	 0
??$_Allocate@$07U_Default_allocate_traits@std@@$0A@@std@@YAPAXI@Z ENDP ; std::_Allocate<8,std::_Default_allocate_traits,0>
_TEXT	ENDS
; Function compile flags: /Odspy
; File C:\Program Files (x86)\Microsoft Visual Studio\2019\Community\VC\Tools\MSVC\14.28.29333\include\xmemory
;	COMDAT ??$_Deallocate@$07$0A@@std@@YAXPAXI@Z
_TEXT	SEGMENT
__$EHRec$ = -12						; size = 12
__Ptr$ = 8						; size = 4
__Bytes$ = 12						; size = 4
??$_Deallocate@$07$0A@@std@@YAXPAXI@Z PROC		; std::_Deallocate<8,0>, COMDAT

; 213  : void _Deallocate(void* _Ptr, size_t _Bytes) noexcept {

  00000	55		 push	 ebp
  00001	8b ec		 mov	 ebp, esp
  00003	6a ff		 push	 -1
  00005	68 00 00 00 00	 push	 __ehhandler$??$_Deallocate@$07$0A@@std@@YAXPAXI@Z
  0000a	64 a1 00 00 00
	00		 mov	 eax, DWORD PTR fs:0
  00010	50		 push	 eax
  00011	a1 00 00 00 00	 mov	 eax, DWORD PTR ___security_cookie
  00016	33 c5		 xor	 eax, ebp
  00018	50		 push	 eax
  00019	8d 45 f4	 lea	 eax, DWORD PTR __$EHRec$[ebp]
  0001c	64 a3 00 00 00
	00		 mov	 DWORD PTR fs:0, eax

; 214  :     // deallocate storage allocated by _Allocate when !_HAS_ALIGNED_NEW || _Align <= __STDCPP_DEFAULT_NEW_ALIGNMENT__
; 215  : #if defined(_M_IX86) || defined(_M_X64)
; 216  :     if (_Bytes >= _Big_allocation_threshold) { // boost the alignment of big allocations to help autovectorization

  00022	81 7d 0c 00 10
	00 00		 cmp	 DWORD PTR __Bytes$[ebp], 4096 ; 00001000H
  00029	72 0f		 jb	 SHORT $LN2@Deallocate

; 217  :         _Adjust_manually_vector_aligned(_Ptr, _Bytes);

  0002b	8d 45 0c	 lea	 eax, DWORD PTR __Bytes$[ebp]
  0002e	50		 push	 eax
  0002f	8d 45 08	 lea	 eax, DWORD PTR __Ptr$[ebp]
  00032	50		 push	 eax
  00033	e8 00 00 00 00	 call	 ?_Adjust_manually_vector_aligned@std@@YAXAAPAXAAI@Z ; std::_Adjust_manually_vector_aligned
  00038	59		 pop	 ecx
  00039	59		 pop	 ecx
$LN2@Deallocate:

; 218  :     }
; 219  : #endif // defined(_M_IX86) || defined(_M_X64)
; 220  : 
; 221  :     ::operator delete(_Ptr, _Bytes);

  0003a	ff 75 0c	 push	 DWORD PTR __Bytes$[ebp]
  0003d	ff 75 08	 push	 DWORD PTR __Ptr$[ebp]
  00040	e8 00 00 00 00	 call	 ??3@YAXPAXI@Z		; operator delete
  00045	59		 pop	 ecx
  00046	59		 pop	 ecx

; 222  : }

  00047	8b 4d f4	 mov	 ecx, DWORD PTR __$EHRec$[ebp]
  0004a	64 89 0d 00 00
	00 00		 mov	 DWORD PTR fs:0, ecx
  00051	59		 pop	 ecx
  00052	c9		 leave
  00053	c3		 ret	 0
  00054	cc		 int	 3
  00055	cc		 int	 3
  00056	cc		 int	 3
  00057	cc		 int	 3
  00058	cc		 int	 3
_TEXT	ENDS
;	COMDAT text$x
text$x	SEGMENT
__ehhandler$??$_Deallocate@$07$0A@@std@@YAXPAXI@Z:
  00000	90		 npad	 1
  00001	90		 npad	 1
  00002	8b 54 24 08	 mov	 edx, DWORD PTR [esp+8]
  00006	8d 42 0c	 lea	 eax, DWORD PTR [edx+12]
  00009	8b 4a fc	 mov	 ecx, DWORD PTR [edx-4]
  0000c	33 c8		 xor	 ecx, eax
  0000e	e8 00 00 00 00	 call	 @__security_check_cookie@4
  00013	b8 00 00 00 00	 mov	 eax, OFFSET __ehfuncinfo$??$_Deallocate@$07$0A@@std@@YAXPAXI@Z
  00018	e9 00 00 00 00	 jmp	 ___CxxFrameHandler3
text$x	ENDS
??$_Deallocate@$07$0A@@std@@YAXPAXI@Z ENDP		; std::_Deallocate<8,0>
; Function compile flags: /Odspy
; File C:\Program Files (x86)\Microsoft Visual Studio\2019\Community\VC\Tools\MSVC\14.28.29333\include\xmemory
;	COMDAT ?_Adjust_manually_vector_aligned@std@@YAXAAPAXAAI@Z
_TEXT	SEGMENT
__Min_back_shift$ = -16					; size = 4
__Ptr_user$ = -12					; size = 4
__Ptr_container$ = -8					; size = 4
__Back_shift$ = -4					; size = 4
__Ptr$ = 8						; size = 4
__Bytes$ = 12						; size = 4
?_Adjust_manually_vector_aligned@std@@YAXAAPAXAAI@Z PROC ; std::_Adjust_manually_vector_aligned, COMDAT

; 132  : inline void _Adjust_manually_vector_aligned(void*& _Ptr, size_t& _Bytes) {

  00000	55		 push	 ebp
  00001	8b ec		 mov	 ebp, esp
  00003	83 ec 10	 sub	 esp, 16			; 00000010H

; 133  :     // adjust parameters from _Allocate_manually_vector_aligned to pass to operator delete
; 134  :     _Bytes += _Non_user_size;

  00006	8b 45 0c	 mov	 eax, DWORD PTR __Bytes$[ebp]
  00009	8b 00		 mov	 eax, DWORD PTR [eax]
  0000b	83 c0 23	 add	 eax, 35			; 00000023H
  0000e	8b 4d 0c	 mov	 ecx, DWORD PTR __Bytes$[ebp]
  00011	89 01		 mov	 DWORD PTR [ecx], eax

; 135  : 
; 136  :     const uintptr_t* const _Ptr_user = reinterpret_cast<uintptr_t*>(_Ptr);

  00013	8b 45 08	 mov	 eax, DWORD PTR __Ptr$[ebp]
  00016	8b 00		 mov	 eax, DWORD PTR [eax]
  00018	89 45 f4	 mov	 DWORD PTR __Ptr_user$[ebp], eax

; 137  :     const uintptr_t _Ptr_container   = _Ptr_user[-1];

  0001b	6a 04		 push	 4
  0001d	58		 pop	 eax
  0001e	6b c0 ff	 imul	 eax, eax, -1
  00021	8b 4d f4	 mov	 ecx, DWORD PTR __Ptr_user$[ebp]
  00024	8b 04 01	 mov	 eax, DWORD PTR [ecx+eax]
  00027	89 45 f8	 mov	 DWORD PTR __Ptr_container$[ebp], eax

; 138  : 
; 139  :     // If the following asserts, it likely means that we are performing
; 140  :     // an aligned delete on memory coming from an unaligned allocation.
; 141  :     _STL_ASSERT(_Ptr_user[-2] == _Big_allocation_sentinel, "invalid argument");
; 142  : 
; 143  :     // Extra paranoia on aligned allocation/deallocation; ensure _Ptr_container is
; 144  :     // in range [_Min_back_shift, _Non_user_size]
; 145  : #ifdef _DEBUG
; 146  :     constexpr uintptr_t _Min_back_shift = 2 * sizeof(void*);
; 147  : #else // ^^^ _DEBUG ^^^ // vvv !_DEBUG vvv
; 148  :     constexpr uintptr_t _Min_back_shift = sizeof(void*);

  0002a	c7 45 f0 04 00
	00 00		 mov	 DWORD PTR __Min_back_shift$[ebp], 4

; 149  : #endif // _DEBUG
; 150  :     const uintptr_t _Back_shift = reinterpret_cast<uintptr_t>(_Ptr) - _Ptr_container;

  00031	8b 45 08	 mov	 eax, DWORD PTR __Ptr$[ebp]
  00034	8b 00		 mov	 eax, DWORD PTR [eax]
  00036	2b 45 f8	 sub	 eax, DWORD PTR __Ptr_container$[ebp]
  00039	89 45 fc	 mov	 DWORD PTR __Back_shift$[ebp], eax
$LN4@Adjust_man:

; 151  :     _STL_VERIFY(_Back_shift >= _Min_back_shift && _Back_shift <= _Non_user_size, "invalid argument");

  0003c	83 7d fc 04	 cmp	 DWORD PTR __Back_shift$[ebp], 4
  00040	72 08		 jb	 SHORT $LN7@Adjust_man
  00042	83 7d fc 23	 cmp	 DWORD PTR __Back_shift$[ebp], 35 ; 00000023H
  00046	77 02		 ja	 SHORT $LN7@Adjust_man
  00048	eb 09		 jmp	 SHORT $LN2@Adjust_man
$LN7@Adjust_man:
  0004a	e8 00 00 00 00	 call	 __invalid_parameter_noinfo_noreturn
  0004f	33 c0		 xor	 eax, eax
  00051	75 f7		 jne	 SHORT $LN7@Adjust_man
$LN2@Adjust_man:
  00053	33 c0		 xor	 eax, eax
  00055	75 e5		 jne	 SHORT $LN4@Adjust_man

; 152  :     _Ptr = reinterpret_cast<void*>(_Ptr_container);

  00057	8b 45 08	 mov	 eax, DWORD PTR __Ptr$[ebp]
  0005a	8b 4d f8	 mov	 ecx, DWORD PTR __Ptr_container$[ebp]
  0005d	89 08		 mov	 DWORD PTR [eax], ecx
$LN10@Adjust_man:

; 153  : }

  0005f	c9		 leave
  00060	c3		 ret	 0
?_Adjust_manually_vector_aligned@std@@YAXAAPAXAAI@Z ENDP ; std::_Adjust_manually_vector_aligned
_TEXT	ENDS
; Function compile flags: /Odspy
; File C:\Program Files (x86)\Microsoft Visual Studio\2019\Community\VC\Tools\MSVC\14.28.29333\include\exception
;	COMDAT ?_Throw_bad_array_new_length@std@@YAXXZ
_TEXT	SEGMENT
$T1 = -12						; size = 12
?_Throw_bad_array_new_length@std@@YAXXZ PROC		; std::_Throw_bad_array_new_length, COMDAT

; 320  : [[noreturn]] inline void _Throw_bad_array_new_length() {

  00000	55		 push	 ebp
  00001	8b ec		 mov	 ebp, esp
  00003	83 ec 0c	 sub	 esp, 12			; 0000000cH

; 321  :     _THROW(bad_array_new_length{});

  00006	8d 4d f4	 lea	 ecx, DWORD PTR $T1[ebp]
  00009	e8 00 00 00 00	 call	 ??0bad_array_new_length@std@@QAE@XZ ; std::bad_array_new_length::bad_array_new_length
  0000e	68 00 00 00 00	 push	 OFFSET __TI3?AVbad_array_new_length@std@@
  00013	8d 45 f4	 lea	 eax, DWORD PTR $T1[ebp]
  00016	50		 push	 eax
  00017	e8 00 00 00 00	 call	 __CxxThrowException@8
$LN2@Throw_bad_:

; 322  : }

  0001c	c9		 leave
  0001d	c3		 ret	 0
?_Throw_bad_array_new_length@std@@YAXXZ ENDP		; std::_Throw_bad_array_new_length
_TEXT	ENDS
; Function compile flags: /Odspy
; File C:\Program Files (x86)\Microsoft Visual Studio\2019\Community\VC\Tools\MSVC\14.28.29333\include\vcruntime_exception.h
;	COMDAT ??_Gbad_array_new_length@std@@UAEPAXI@Z
_TEXT	SEGMENT
_this$ = -4						; size = 4
___flags$ = 8						; size = 4
??_Gbad_array_new_length@std@@UAEPAXI@Z PROC		; std::bad_array_new_length::`scalar deleting destructor', COMDAT
; _this$ = ecx
  00000	55		 push	 ebp
  00001	8b ec		 mov	 ebp, esp
  00003	51		 push	 ecx
  00004	89 4d fc	 mov	 DWORD PTR _this$[ebp], ecx

; 89   :     {

  00007	8b 45 fc	 mov	 eax, DWORD PTR _this$[ebp]
  0000a	c7 00 00 00 00
	00		 mov	 DWORD PTR [eax], OFFSET ??_7exception@std@@6B@

; 90   :         __std_exception_destroy(&_Data);

  00010	8b 45 fc	 mov	 eax, DWORD PTR _this$[ebp]
  00013	83 c0 04	 add	 eax, 4
  00016	50		 push	 eax
  00017	e8 00 00 00 00	 call	 ___std_exception_destroy
  0001c	59		 pop	 ecx
  0001d	8b 45 08	 mov	 eax, DWORD PTR ___flags$[ebp]
  00020	83 e0 01	 and	 eax, 1
  00023	74 0c		 je	 SHORT $LN2@scalar
  00025	6a 0c		 push	 12			; 0000000cH
  00027	ff 75 fc	 push	 DWORD PTR _this$[ebp]
  0002a	e8 00 00 00 00	 call	 ??3@YAXPAXI@Z		; operator delete
  0002f	59		 pop	 ecx
  00030	59		 pop	 ecx
$LN2@scalar:
  00031	8b 45 fc	 mov	 eax, DWORD PTR _this$[ebp]
  00034	c9		 leave
  00035	c2 04 00	 ret	 4
??_Gbad_array_new_length@std@@UAEPAXI@Z ENDP		; std::bad_array_new_length::`scalar deleting destructor'
_TEXT	ENDS
; Function compile flags: /Odspy
;	COMDAT ??0bad_array_new_length@std@@QAE@ABV01@@Z
_TEXT	SEGMENT
_this$ = -4						; size = 4
___that$ = 8						; size = 4
??0bad_array_new_length@std@@QAE@ABV01@@Z PROC		; std::bad_array_new_length::bad_array_new_length, COMDAT
; _this$ = ecx
  00000	55		 push	 ebp
  00001	8b ec		 mov	 ebp, esp
  00003	51		 push	 ecx
  00004	89 4d fc	 mov	 DWORD PTR _this$[ebp], ecx
  00007	ff 75 08	 push	 DWORD PTR ___that$[ebp]
  0000a	8b 4d fc	 mov	 ecx, DWORD PTR _this$[ebp]
  0000d	e8 00 00 00 00	 call	 ??0exception@std@@QAE@ABV01@@Z ; std::exception::exception
  00012	8b 45 fc	 mov	 eax, DWORD PTR _this$[ebp]
  00015	c7 00 00 00 00
	00		 mov	 DWORD PTR [eax], OFFSET ??_7bad_alloc@std@@6B@
  0001b	8b 45 fc	 mov	 eax, DWORD PTR _this$[ebp]
  0001e	c7 00 00 00 00
	00		 mov	 DWORD PTR [eax], OFFSET ??_7bad_array_new_length@std@@6B@
  00024	8b 45 fc	 mov	 eax, DWORD PTR _this$[ebp]
  00027	c9		 leave
  00028	c2 04 00	 ret	 4
??0bad_array_new_length@std@@QAE@ABV01@@Z ENDP		; std::bad_array_new_length::bad_array_new_length
_TEXT	ENDS
; Function compile flags: /Odspy
; File C:\Program Files (x86)\Microsoft Visual Studio\2019\Community\VC\Tools\MSVC\14.28.29333\include\vcruntime_exception.h
;	COMDAT ??1bad_array_new_length@std@@UAE@XZ
_TEXT	SEGMENT
_this$ = -4						; size = 4
??1bad_array_new_length@std@@UAE@XZ PROC		; std::bad_array_new_length::~bad_array_new_length, COMDAT
; _this$ = ecx
  00000	55		 push	 ebp
  00001	8b ec		 mov	 ebp, esp
  00003	51		 push	 ecx
  00004	89 4d fc	 mov	 DWORD PTR _this$[ebp], ecx

; 89   :     {

  00007	8b 45 fc	 mov	 eax, DWORD PTR _this$[ebp]
  0000a	c7 00 00 00 00
	00		 mov	 DWORD PTR [eax], OFFSET ??_7exception@std@@6B@

; 90   :         __std_exception_destroy(&_Data);

  00010	8b 45 fc	 mov	 eax, DWORD PTR _this$[ebp]
  00013	83 c0 04	 add	 eax, 4
  00016	50		 push	 eax
  00017	e8 00 00 00 00	 call	 ___std_exception_destroy
  0001c	59		 pop	 ecx
  0001d	c9		 leave
  0001e	c3		 ret	 0
??1bad_array_new_length@std@@UAE@XZ ENDP		; std::bad_array_new_length::~bad_array_new_length
_TEXT	ENDS
; Function compile flags: /Odspy
; File C:\Program Files (x86)\Microsoft Visual Studio\2019\Community\VC\Tools\MSVC\14.28.29333\include\vcruntime_exception.h
;	COMDAT ??0bad_array_new_length@std@@QAE@XZ
_TEXT	SEGMENT
_this$ = -4						; size = 4
??0bad_array_new_length@std@@QAE@XZ PROC		; std::bad_array_new_length::bad_array_new_length, COMDAT
; _this$ = ecx

; 141  :     {

  00000	55		 push	 ebp
  00001	8b ec		 mov	 ebp, esp
  00003	51		 push	 ecx
  00004	89 4d fc	 mov	 DWORD PTR _this$[ebp], ecx

; 66   :     {

  00007	8b 45 fc	 mov	 eax, DWORD PTR _this$[ebp]
  0000a	c7 00 00 00 00
	00		 mov	 DWORD PTR [eax], OFFSET ??_7exception@std@@6B@

; 65   :         : _Data()

  00010	33 c0		 xor	 eax, eax
  00012	8b 4d fc	 mov	 ecx, DWORD PTR _this$[ebp]
  00015	83 c1 04	 add	 ecx, 4
  00018	89 01		 mov	 DWORD PTR [ecx], eax
  0001a	89 41 04	 mov	 DWORD PTR [ecx+4], eax

; 67   :         _Data._What = _Message;

  0001d	8b 45 fc	 mov	 eax, DWORD PTR _this$[ebp]
  00020	c7 40 04 00 00
	00 00		 mov	 DWORD PTR [eax+4], OFFSET ??_C@_0BF@KINCDENJ@bad?5array?5new?5length@

; 130  :     {

  00027	8b 45 fc	 mov	 eax, DWORD PTR _this$[ebp]
  0002a	c7 00 00 00 00
	00		 mov	 DWORD PTR [eax], OFFSET ??_7bad_alloc@std@@6B@

; 141  :     {

  00030	8b 45 fc	 mov	 eax, DWORD PTR _this$[ebp]
  00033	c7 00 00 00 00
	00		 mov	 DWORD PTR [eax], OFFSET ??_7bad_array_new_length@std@@6B@

; 142  :     }

  00039	8b 45 fc	 mov	 eax, DWORD PTR _this$[ebp]
  0003c	c9		 leave
  0003d	c3		 ret	 0
??0bad_array_new_length@std@@QAE@XZ ENDP		; std::bad_array_new_length::bad_array_new_length
_TEXT	ENDS
; Function compile flags: /Odspy
; File C:\Program Files (x86)\Microsoft Visual Studio\2019\Community\VC\Tools\MSVC\14.28.29333\include\vcruntime_exception.h
;	COMDAT ??_Gbad_alloc@std@@UAEPAXI@Z
_TEXT	SEGMENT
_this$ = -4						; size = 4
___flags$ = 8						; size = 4
??_Gbad_alloc@std@@UAEPAXI@Z PROC			; std::bad_alloc::`scalar deleting destructor', COMDAT
; _this$ = ecx
  00000	55		 push	 ebp
  00001	8b ec		 mov	 ebp, esp
  00003	51		 push	 ecx
  00004	89 4d fc	 mov	 DWORD PTR _this$[ebp], ecx

; 89   :     {

  00007	8b 45 fc	 mov	 eax, DWORD PTR _this$[ebp]
  0000a	c7 00 00 00 00
	00		 mov	 DWORD PTR [eax], OFFSET ??_7exception@std@@6B@

; 90   :         __std_exception_destroy(&_Data);

  00010	8b 45 fc	 mov	 eax, DWORD PTR _this$[ebp]
  00013	83 c0 04	 add	 eax, 4
  00016	50		 push	 eax
  00017	e8 00 00 00 00	 call	 ___std_exception_destroy
  0001c	59		 pop	 ecx
  0001d	8b 45 08	 mov	 eax, DWORD PTR ___flags$[ebp]
  00020	83 e0 01	 and	 eax, 1
  00023	74 0c		 je	 SHORT $LN2@scalar
  00025	6a 0c		 push	 12			; 0000000cH
  00027	ff 75 fc	 push	 DWORD PTR _this$[ebp]
  0002a	e8 00 00 00 00	 call	 ??3@YAXPAXI@Z		; operator delete
  0002f	59		 pop	 ecx
  00030	59		 pop	 ecx
$LN2@scalar:
  00031	8b 45 fc	 mov	 eax, DWORD PTR _this$[ebp]
  00034	c9		 leave
  00035	c2 04 00	 ret	 4
??_Gbad_alloc@std@@UAEPAXI@Z ENDP			; std::bad_alloc::`scalar deleting destructor'
_TEXT	ENDS
; Function compile flags: /Odspy
;	COMDAT ??0bad_alloc@std@@QAE@ABV01@@Z
_TEXT	SEGMENT
_this$ = -4						; size = 4
___that$ = 8						; size = 4
??0bad_alloc@std@@QAE@ABV01@@Z PROC			; std::bad_alloc::bad_alloc, COMDAT
; _this$ = ecx
  00000	55		 push	 ebp
  00001	8b ec		 mov	 ebp, esp
  00003	51		 push	 ecx
  00004	89 4d fc	 mov	 DWORD PTR _this$[ebp], ecx
  00007	ff 75 08	 push	 DWORD PTR ___that$[ebp]
  0000a	8b 4d fc	 mov	 ecx, DWORD PTR _this$[ebp]
  0000d	e8 00 00 00 00	 call	 ??0exception@std@@QAE@ABV01@@Z ; std::exception::exception
  00012	8b 45 fc	 mov	 eax, DWORD PTR _this$[ebp]
  00015	c7 00 00 00 00
	00		 mov	 DWORD PTR [eax], OFFSET ??_7bad_alloc@std@@6B@
  0001b	8b 45 fc	 mov	 eax, DWORD PTR _this$[ebp]
  0001e	c9		 leave
  0001f	c2 04 00	 ret	 4
??0bad_alloc@std@@QAE@ABV01@@Z ENDP			; std::bad_alloc::bad_alloc
_TEXT	ENDS
; Function compile flags: /Odspy
; File C:\Program Files (x86)\Microsoft Visual Studio\2019\Community\VC\Tools\MSVC\14.28.29333\include\vcruntime_exception.h
;	COMDAT ??_Gexception@std@@UAEPAXI@Z
_TEXT	SEGMENT
_this$ = -4						; size = 4
___flags$ = 8						; size = 4
??_Gexception@std@@UAEPAXI@Z PROC			; std::exception::`scalar deleting destructor', COMDAT
; _this$ = ecx
  00000	55		 push	 ebp
  00001	8b ec		 mov	 ebp, esp
  00003	51		 push	 ecx
  00004	89 4d fc	 mov	 DWORD PTR _this$[ebp], ecx

; 89   :     {

  00007	8b 45 fc	 mov	 eax, DWORD PTR _this$[ebp]
  0000a	c7 00 00 00 00
	00		 mov	 DWORD PTR [eax], OFFSET ??_7exception@std@@6B@

; 90   :         __std_exception_destroy(&_Data);

  00010	8b 45 fc	 mov	 eax, DWORD PTR _this$[ebp]
  00013	83 c0 04	 add	 eax, 4
  00016	50		 push	 eax
  00017	e8 00 00 00 00	 call	 ___std_exception_destroy
  0001c	59		 pop	 ecx
  0001d	8b 45 08	 mov	 eax, DWORD PTR ___flags$[ebp]
  00020	83 e0 01	 and	 eax, 1
  00023	74 0c		 je	 SHORT $LN2@scalar
  00025	6a 0c		 push	 12			; 0000000cH
  00027	ff 75 fc	 push	 DWORD PTR _this$[ebp]
  0002a	e8 00 00 00 00	 call	 ??3@YAXPAXI@Z		; operator delete
  0002f	59		 pop	 ecx
  00030	59		 pop	 ecx
$LN2@scalar:
  00031	8b 45 fc	 mov	 eax, DWORD PTR _this$[ebp]
  00034	c9		 leave
  00035	c2 04 00	 ret	 4
??_Gexception@std@@UAEPAXI@Z ENDP			; std::exception::`scalar deleting destructor'
_TEXT	ENDS
; Function compile flags: /Odspy
; File C:\Program Files (x86)\Microsoft Visual Studio\2019\Community\VC\Tools\MSVC\14.28.29333\include\vcruntime_exception.h
;	COMDAT ?what@exception@std@@UBEPBDXZ
_TEXT	SEGMENT
tv69 = -8						; size = 4
_this$ = -4						; size = 4
?what@exception@std@@UBEPBDXZ PROC			; std::exception::what, COMDAT
; _this$ = ecx

; 94   :     {

  00000	55		 push	 ebp
  00001	8b ec		 mov	 ebp, esp
  00003	51		 push	 ecx
  00004	51		 push	 ecx
  00005	89 4d fc	 mov	 DWORD PTR _this$[ebp], ecx

; 95   :         return _Data._What ? _Data._What : "Unknown exception";

  00008	8b 45 fc	 mov	 eax, DWORD PTR _this$[ebp]
  0000b	83 78 04 00	 cmp	 DWORD PTR [eax+4], 0
  0000f	74 0b		 je	 SHORT $LN3@what
  00011	8b 45 fc	 mov	 eax, DWORD PTR _this$[ebp]
  00014	8b 40 04	 mov	 eax, DWORD PTR [eax+4]
  00017	89 45 f8	 mov	 DWORD PTR tv69[ebp], eax
  0001a	eb 07		 jmp	 SHORT $LN4@what
$LN3@what:
  0001c	c7 45 f8 00 00
	00 00		 mov	 DWORD PTR tv69[ebp], OFFSET ??_C@_0BC@EOODALEL@Unknown?5exception@
$LN4@what:
  00023	8b 45 f8	 mov	 eax, DWORD PTR tv69[ebp]

; 96   :     }

  00026	c9		 leave
  00027	c3		 ret	 0
?what@exception@std@@UBEPBDXZ ENDP			; std::exception::what
_TEXT	ENDS
; Function compile flags: /Odspy
; File C:\Program Files (x86)\Microsoft Visual Studio\2019\Community\VC\Tools\MSVC\14.28.29333\include\vcruntime_exception.h
;	COMDAT ??0exception@std@@QAE@ABV01@@Z
_TEXT	SEGMENT
_this$ = -4						; size = 4
__Other$ = 8						; size = 4
??0exception@std@@QAE@ABV01@@Z PROC			; std::exception::exception, COMDAT
; _this$ = ecx

; 72   :     {

  00000	55		 push	 ebp
  00001	8b ec		 mov	 ebp, esp
  00003	51		 push	 ecx
  00004	89 4d fc	 mov	 DWORD PTR _this$[ebp], ecx
  00007	8b 45 fc	 mov	 eax, DWORD PTR _this$[ebp]
  0000a	c7 00 00 00 00
	00		 mov	 DWORD PTR [eax], OFFSET ??_7exception@std@@6B@

; 71   :         : _Data()

  00010	33 c0		 xor	 eax, eax
  00012	8b 4d fc	 mov	 ecx, DWORD PTR _this$[ebp]
  00015	83 c1 04	 add	 ecx, 4
  00018	89 01		 mov	 DWORD PTR [ecx], eax
  0001a	89 41 04	 mov	 DWORD PTR [ecx+4], eax

; 73   :         __std_exception_copy(&_Other._Data, &_Data);

  0001d	8b 45 fc	 mov	 eax, DWORD PTR _this$[ebp]
  00020	83 c0 04	 add	 eax, 4
  00023	50		 push	 eax
  00024	8b 45 08	 mov	 eax, DWORD PTR __Other$[ebp]
  00027	83 c0 04	 add	 eax, 4
  0002a	50		 push	 eax
  0002b	e8 00 00 00 00	 call	 ___std_exception_copy
  00030	59		 pop	 ecx
  00031	59		 pop	 ecx

; 74   :     }

  00032	8b 45 fc	 mov	 eax, DWORD PTR _this$[ebp]
  00035	c9		 leave
  00036	c2 04 00	 ret	 4
??0exception@std@@QAE@ABV01@@Z ENDP			; std::exception::exception
_TEXT	ENDS
; Function compile flags: /Odspy
; File D:\Metin2 Server Files\mainline\SRC_2014\Metin2Client\EffectLib\ParticleInstance.cpp
;	COMDAT ?__empty_global_delete@@YAXPAXI@Z
_TEXT	SEGMENT
___formal$ = 8						; size = 4
___formal$ = 12						; size = 4
?__empty_global_delete@@YAXPAXI@Z PROC			; __empty_global_delete, COMDAT

  00000	55		 push	 ebp
  00001	8b ec		 mov	 ebp, esp
  00003	5d		 pop	 ebp
  00004	c3		 ret	 0
?__empty_global_delete@@YAXPAXI@Z ENDP			; __empty_global_delete
_TEXT	ENDS
; Function compile flags: /Odspy
; File D:\Metin2 Server Files\mainline\SRC_2014\Metin2Client\EffectLib\ParticleInstance.cpp
;	COMDAT ?__empty_global_delete@@YAXPAX@Z
_TEXT	SEGMENT
___formal$ = 8						; size = 4
?__empty_global_delete@@YAXPAX@Z PROC			; __empty_global_delete, COMDAT

  00000	55		 push	 ebp
  00001	8b ec		 mov	 ebp, esp
  00003	5d		 pop	 ebp
  00004	c3		 ret	 0
?__empty_global_delete@@YAXPAX@Z ENDP			; __empty_global_delete
_TEXT	ENDS
; Function compile flags: /Odspy
;	COMDAT ??_H@YGXPAXIIP6EPAX0@Z@Z
_TEXT	SEGMENT
tv66 = -4						; size = 4
___t$ = 8						; size = 4
___s$ = 12						; size = 4
___n$ = 16						; size = 4
___f$ = 20						; size = 4
??_H@YGXPAXIIP6EPAX0@Z@Z PROC				; `vector constructor iterator', COMDAT
  00000	55		 push	 ebp
  00001	8b ec		 mov	 ebp, esp
  00003	51		 push	 ecx
$LN2@vector:
  00004	8b 45 10	 mov	 eax, DWORD PTR ___n$[ebp]
  00007	89 45 fc	 mov	 DWORD PTR tv66[ebp], eax
  0000a	8b 45 10	 mov	 eax, DWORD PTR ___n$[ebp]
  0000d	48		 dec	 eax
  0000e	89 45 10	 mov	 DWORD PTR ___n$[ebp], eax
  00011	83 7d fc 00	 cmp	 DWORD PTR tv66[ebp], 0
  00015	76 11		 jbe	 SHORT $LN1@vector
  00017	8b 4d 08	 mov	 ecx, DWORD PTR ___t$[ebp]
  0001a	ff 55 14	 call	 DWORD PTR ___f$[ebp]
  0001d	8b 45 08	 mov	 eax, DWORD PTR ___t$[ebp]
  00020	03 45 0c	 add	 eax, DWORD PTR ___s$[ebp]
  00023	89 45 08	 mov	 DWORD PTR ___t$[ebp], eax
  00026	eb dc		 jmp	 SHORT $LN2@vector
$LN1@vector:
  00028	c9		 leave
  00029	c2 10 00	 ret	 16			; 00000010H
??_H@YGXPAXIIP6EPAX0@Z@Z ENDP				; `vector constructor iterator'
_TEXT	ENDS
END
