; Listing generated by Microsoft (R) Optimizing Compiler Version 19.28.29335.0 

	TITLE	D:\Metin2 Server Files\mainline\SRC_2014\Metin2Client\EffectLib\SimpleLightData.cpp
	.686P
	.XMM
	include listing.inc
	.model	flat

INCLUDELIB LIBCMT
INCLUDELIB OLDNAMES

PUBLIC	??0exception@std@@QAE@ABV01@@Z			; std::exception::exception
PUBLIC	?what@exception@std@@UBEPBDXZ			; std::exception::what
PUBLIC	??_Gexception@std@@UAEPAXI@Z			; std::exception::`scalar deleting destructor'
PUBLIC	??0bad_alloc@std@@QAE@ABV01@@Z			; std::bad_alloc::bad_alloc
PUBLIC	??_Gbad_alloc@std@@UAEPAXI@Z			; std::bad_alloc::`scalar deleting destructor'
PUBLIC	??0bad_array_new_length@std@@QAE@XZ		; std::bad_array_new_length::bad_array_new_length
PUBLIC	??1bad_array_new_length@std@@UAE@XZ		; std::bad_array_new_length::~bad_array_new_length
PUBLIC	??0bad_array_new_length@std@@QAE@ABV01@@Z	; std::bad_array_new_length::bad_array_new_length
PUBLIC	??_Gbad_array_new_length@std@@UAEPAXI@Z		; std::bad_array_new_length::`scalar deleting destructor'
PUBLIC	?_Throw_bad_array_new_length@std@@YAXXZ		; std::_Throw_bad_array_new_length
PUBLIC	?_Adjust_manually_vector_aligned@std@@YAXAAPAXAAI@Z ; std::_Adjust_manually_vector_aligned
PUBLIC	?_Xlen_string@std@@YAXXZ			; std::_Xlen_string
PUBLIC	?_Myptr@?$_String_val@U?$_Simple_types@D@std@@@std@@QAEPADXZ ; std::_String_val<std::_Simple_types<char> >::_Myptr
PUBLIC	??0?$basic_string@DU?$char_traits@D@std@@V?$allocator@D@2@@std@@QAE@QBD@Z ; std::basic_string<char,std::char_traits<char>,std::allocator<char> >::basic_string<char,std::char_traits<char>,std::allocator<char> >
PUBLIC	??1?$basic_string@DU?$char_traits@D@std@@V?$allocator@D@2@@std@@QAE@XZ ; std::basic_string<char,std::char_traits<char>,std::allocator<char> >::~basic_string<char,std::char_traits<char>,std::allocator<char> >
PUBLIC	?assign@?$basic_string@DU?$char_traits@D@std@@V?$allocator@D@2@@std@@QAEAAV12@QBDI@Z ; std::basic_string<char,std::char_traits<char>,std::allocator<char> >::assign
PUBLIC	?max_size@?$basic_string@DU?$char_traits@D@std@@V?$allocator@D@2@@std@@QBEIXZ ; std::basic_string<char,std::char_traits<char>,std::allocator<char> >::max_size
PUBLIC	?_Calculate_growth@?$basic_string@DU?$char_traits@D@std@@V?$allocator@D@2@@std@@ABEII@Z ; std::basic_string<char,std::char_traits<char>,std::allocator<char> >::_Calculate_growth
PUBLIC	?_Tidy_init@?$basic_string@DU?$char_traits@D@std@@V?$allocator@D@2@@std@@AAEXXZ ; std::basic_string<char,std::char_traits<char>,std::allocator<char> >::_Tidy_init
PUBLIC	?_Tidy_deallocate@?$basic_string@DU?$char_traits@D@std@@V?$allocator@D@2@@std@@AAEXXZ ; std::basic_string<char,std::char_traits<char>,std::allocator<char> >::_Tidy_deallocate
PUBLIC	??1?$_Compressed_pair@V?$allocator@D@std@@V?$_String_val@U?$_Simple_types@D@std@@@2@$00@std@@QAE@XZ ; std::_Compressed_pair<std::allocator<char>,std::_String_val<std::_Simple_types<char> >,1>::~_Compressed_pair<std::allocator<char>,std::_String_val<std::_Simple_types<char> >,1>
PUBLIC	??$_Destroy_in_place@PAD@std@@YAXAAPAD@Z	; std::_Destroy_in_place<char *>
PUBLIC	??$_Reallocate_for@V<lambda_9366063389c5f42a00a5088cf24e69de>@@PBD@?$basic_string@DU?$char_traits@D@std@@V?$allocator@D@2@@std@@AAEAAV01@IV<lambda_9366063389c5f42a00a5088cf24e69de>@@PBD@Z ; std::basic_string<char,std::char_traits<char>,std::allocator<char> >::_Reallocate_for<<lambda_9366063389c5f42a00a5088cf24e69de>,char const *>
PUBLIC	??$_Construct_in_place@PADABQAD@std@@YAXAAPADABQAD@Z ; std::_Construct_in_place<char *,char * const &>
PUBLIC	??$_Deallocate@$07$0A@@std@@YAXPAXI@Z		; std::_Deallocate<8,0>
PUBLIC	??$_Allocate@$07U_Default_allocate_traits@std@@$0A@@std@@YAPAXI@Z ; std::_Allocate<8,std::_Default_allocate_traits,0>
PUBLIC	??$_Allocate_manually_vector_aligned@U_Default_allocate_traits@std@@@std@@YAPAXI@Z ; std::_Allocate_manually_vector_aligned<std::_Default_allocate_traits>
PUBLIC	??0CLightData@@QAE@XZ				; CLightData::CLightData
PUBLIC	??1CLightData@@UAE@XZ				; CLightData::~CLightData
PUBLIC	?GetRange@CLightData@@QAEXMAAM@Z		; CLightData::GetRange
PUBLIC	?GetDuration@CLightData@@QAEMXZ			; CLightData::GetDuration
PUBLIC	?InitializeLight@CLightData@@QAEXAAU_D3DLIGHT8@@@Z ; CLightData::InitializeLight
PUBLIC	?OnClear@CLightData@@MAEXXZ			; CLightData::OnClear
PUBLIC	?OnIsData@CLightData@@MAE_NXZ			; CLightData::OnIsData
PUBLIC	?OnLoadScript@CLightData@@MAEHAAVCTextFileLoader@@@Z ; CLightData::OnLoadScript
PUBLIC	??1?$vector@V?$CTimeEvent@M@@V?$allocator@V?$CTimeEvent@M@@@std@@@std@@QAE@XZ ; std::vector<CTimeEvent<float>,std::allocator<CTimeEvent<float> > >::~vector<CTimeEvent<float>,std::allocator<CTimeEvent<float> > >
PUBLIC	?clear@?$vector@V?$CTimeEvent@M@@V?$allocator@V?$CTimeEvent@M@@@std@@@std@@QAEXXZ ; std::vector<CTimeEvent<float>,std::allocator<CTimeEvent<float> > >::clear
PUBLIC	?_Tidy@?$vector@V?$CTimeEvent@M@@V?$allocator@V?$CTimeEvent@M@@@std@@@std@@AAEXXZ ; std::vector<CTimeEvent<float>,std::allocator<CTimeEvent<float> > >::_Tidy
PUBLIC	?DestroySystem@CLightData@@SAXXZ		; CLightData::DestroySystem
PUBLIC	?New@CLightData@@SAPAV1@XZ			; CLightData::New
PUBLIC	?Delete@CLightData@@SAXPAV1@@Z			; CLightData::Delete
PUBLIC	??_GCLightData@@UAEPAXI@Z			; CLightData::`scalar deleting destructor'
PUBLIC	??0?$CDynamicPool@VCLightData@@@@QAE@XZ		; CDynamicPool<CLightData>::CDynamicPool<CLightData>
PUBLIC	??1?$CDynamicPool@VCLightData@@@@UAE@XZ		; CDynamicPool<CLightData>::~CDynamicPool<CLightData>
PUBLIC	?Destroy@?$CDynamicPool@VCLightData@@@@QAEXXZ	; CDynamicPool<CLightData>::Destroy
PUBLIC	?Alloc@?$CDynamicPool@VCLightData@@@@QAEPAVCLightData@@XZ ; CDynamicPool<CLightData>::Alloc
PUBLIC	?Delete@?$CDynamicPool@VCLightData@@@@KAXPAVCLightData@@@Z ; CDynamicPool<CLightData>::Delete
PUBLIC	?deallocate@?$allocator@PAVCLightData@@@std@@QAEXQAPAVCLightData@@I@Z ; std::allocator<CLightData *>::deallocate
PUBLIC	?clear@?$vector@PAVCLightData@@V?$allocator@PAVCLightData@@@std@@@std@@QAEXXZ ; std::vector<CLightData *,std::allocator<CLightData *> >::clear
PUBLIC	?_Destroy@?$vector@PAVCLightData@@V?$allocator@PAVCLightData@@@std@@@std@@AAEXPAPAVCLightData@@0@Z ; std::vector<CLightData *,std::allocator<CLightData *> >::_Destroy
PUBLIC	?_Calculate_growth@?$vector@PAVCLightData@@V?$allocator@PAVCLightData@@@std@@@std@@ABEII@Z ; std::vector<CLightData *,std::allocator<CLightData *> >::_Calculate_growth
PUBLIC	?_Change_array@?$vector@PAVCLightData@@V?$allocator@PAVCLightData@@@std@@@std@@AAEXQAPAVCLightData@@II@Z ; std::vector<CLightData *,std::allocator<CLightData *> >::_Change_array
PUBLIC	?_Tidy@?$vector@PAVCLightData@@V?$allocator@PAVCLightData@@@std@@@std@@AAEXXZ ; std::vector<CLightData *,std::allocator<CLightData *> >::_Tidy
PUBLIC	?_Xlength@?$vector@PAVCLightData@@V?$allocator@PAVCLightData@@@std@@@std@@CAXXZ ; std::vector<CLightData *,std::allocator<CLightData *> >::_Xlength
PUBLIC	??_G?$CDynamicPool@VCLightData@@@@UAEPAXI@Z	; CDynamicPool<CLightData>::`scalar deleting destructor'
PUBLIC	??$for_each@V?$_Vector_iterator@V?$_Vector_val@U?$_Simple_types@PAVCLightData@@@std@@@std@@@std@@P6AXPAVCLightData@@@Z@std@@YAP6AXPAVCLightData@@@ZV?$_Vector_iterator@V?$_Vector_val@U?$_Simple_types@PAVCLightData@@@std@@@std@@@0@1P6AX0@Z@Z ; std::for_each<std::_Vector_iterator<std::_Vector_val<std::_Simple_types<CLightData *> > >,void (__cdecl*)(CLightData *)>
PUBLIC	??$emplace_back@ABQAVCLightData@@@?$vector@PAVCLightData@@V?$allocator@PAVCLightData@@@std@@@std@@QAEXABQAVCLightData@@@Z ; std::vector<CLightData *,std::allocator<CLightData *> >::emplace_back<CLightData * const &>
PUBLIC	??$_Emplace_back_with_unused_capacity@ABQAVCLightData@@@?$vector@PAVCLightData@@V?$allocator@PAVCLightData@@@std@@@std@@AAEXABQAVCLightData@@@Z ; std::vector<CLightData *,std::allocator<CLightData *> >::_Emplace_back_with_unused_capacity<CLightData * const &>
PUBLIC	??$_Emplace_reallocate@ABQAVCLightData@@@?$vector@PAVCLightData@@V?$allocator@PAVCLightData@@@std@@@std@@QAEPAPAVCLightData@@QAPAV2@ABQAV2@@Z ; std::vector<CLightData *,std::allocator<CLightData *> >::_Emplace_reallocate<CLightData * const &>
PUBLIC	??$_Destroy_range@V?$allocator@V?$CTimeEvent@M@@@std@@@std@@YAXPAV?$CTimeEvent@M@@QAV1@AAV?$allocator@V?$CTimeEvent@M@@@0@@Z ; std::_Destroy_range<std::allocator<CTimeEvent<float> > >
PUBLIC	??$_Destroy_range@V?$allocator@PAVCLightData@@@std@@@std@@YAXPAPAVCLightData@@QAPAV1@AAV?$allocator@PAVCLightData@@@0@@Z ; std::_Destroy_range<std::allocator<CLightData *> >
PUBLIC	??0?$_Vector_const_iterator@V?$_Vector_val@U?$_Simple_types@V?$CTimeEvent@M@@@std@@@std@@@std@@QAE@PAV?$CTimeEvent@M@@PBU_Container_base0@1@@Z ; std::_Vector_const_iterator<std::_Vector_val<std::_Simple_types<CTimeEvent<float> > > >::_Vector_const_iterator<std::_Vector_val<std::_Simple_types<CTimeEvent<float> > > >
PUBLIC	??$_Const_cast@$$CBV?$CTimeEvent@M@@@std@@YAPAV?$CTimeEvent@M@@PBV1@@Z ; std::_Const_cast<CTimeEvent<float> const >
PUBLIC	??$_Uninitialized_move@PAPAVCLightData@@V?$allocator@PAVCLightData@@@std@@@std@@YAPAPAVCLightData@@QAPAV1@0PAPAV1@AAV?$allocator@PAVCLightData@@@0@@Z ; std::_Uninitialized_move<CLightData * *,std::allocator<CLightData *> >
PUBLIC	??$equal_range@V?$_Vector_iterator@V?$_Vector_val@U?$_Simple_types@V?$CTimeEvent@M@@@std@@@std@@@std@@MU?$less@X@2@@std@@YA?AU?$pair@V?$_Vector_iterator@V?$_Vector_val@U?$_Simple_types@V?$CTimeEvent@M@@@std@@@std@@@std@@V12@@0@V?$_Vector_iterator@V?$_Vector_val@U?$_Simple_types@V?$CTimeEvent@M@@@std@@@std@@@0@0ABMU?$less@X@0@@Z ; std::equal_range<std::_Vector_iterator<std::_Vector_val<std::_Simple_types<CTimeEvent<float> > > >,float,std::less<void> >
PUBLIC	??$_Copy_memmove@PAPAVCLightData@@PAPAV1@@std@@YAPAPAVCLightData@@PAPAV1@00@Z ; std::_Copy_memmove<CLightData * *,CLightData * *>
PUBLIC	??$lower_bound@PAV?$CTimeEvent@M@@MU?$less@X@std@@@std@@YAPAV?$CTimeEvent@M@@PAV1@QAV1@ABMU?$less@X@0@@Z ; std::lower_bound<CTimeEvent<float> *,float,std::less<void> >
PUBLIC	??$upper_bound@PAV?$CTimeEvent@M@@MU?$less@X@std@@@std@@YAPAV?$CTimeEvent@M@@PAV1@0ABMU?$less@X@0@@Z ; std::upper_bound<CTimeEvent<float> *,float,std::less<void> >
PUBLIC	??$_Refancy@PAV?$CTimeEvent@M@@$0A@@std@@YAPAV?$CTimeEvent@M@@PAV1@@Z ; std::_Refancy<CTimeEvent<float> *,0>
PUBLIC	??_7exception@std@@6B@				; std::exception::`vftable'
PUBLIC	??_C@_0BC@EOODALEL@Unknown?5exception@		; `string'
PUBLIC	??_7bad_alloc@std@@6B@				; std::bad_alloc::`vftable'
PUBLIC	??_7bad_array_new_length@std@@6B@		; std::bad_array_new_length::`vftable'
PUBLIC	??_C@_0BF@KINCDENJ@bad?5array?5new?5length@	; `string'
PUBLIC	__TI3?AVbad_array_new_length@std@@
PUBLIC	__CTA3?AVbad_array_new_length@std@@
PUBLIC	??_R0?AVbad_array_new_length@std@@@8		; std::bad_array_new_length `RTTI Type Descriptor'
PUBLIC	__CT??_R0?AVbad_array_new_length@std@@@8??0bad_array_new_length@std@@QAE@ABV01@@Z12
PUBLIC	??_R0?AVbad_alloc@std@@@8			; std::bad_alloc `RTTI Type Descriptor'
PUBLIC	__CT??_R0?AVbad_alloc@std@@@8??0bad_alloc@std@@QAE@ABV01@@Z12
PUBLIC	??_R0?AVexception@std@@@8			; std::exception `RTTI Type Descriptor'
PUBLIC	__CT??_R0?AVexception@std@@@8??0exception@std@@QAE@ABV01@@Z12
PUBLIC	??_C@_0BA@JFNIOLAK@string?5too?5long@		; `string'
PUBLIC	??_R4exception@std@@6B@				; std::exception::`RTTI Complete Object Locator'
PUBLIC	??_R3exception@std@@8				; std::exception::`RTTI Class Hierarchy Descriptor'
PUBLIC	??_R2exception@std@@8				; std::exception::`RTTI Base Class Array'
PUBLIC	??_R1A@?0A@EA@exception@std@@8			; std::exception::`RTTI Base Class Descriptor at (0,-1,0,64)'
PUBLIC	??_R4bad_alloc@std@@6B@				; std::bad_alloc::`RTTI Complete Object Locator'
PUBLIC	??_R3bad_alloc@std@@8				; std::bad_alloc::`RTTI Class Hierarchy Descriptor'
PUBLIC	??_R2bad_alloc@std@@8				; std::bad_alloc::`RTTI Base Class Array'
PUBLIC	??_R1A@?0A@EA@bad_alloc@std@@8			; std::bad_alloc::`RTTI Base Class Descriptor at (0,-1,0,64)'
PUBLIC	??_R4bad_array_new_length@std@@6B@		; std::bad_array_new_length::`RTTI Complete Object Locator'
PUBLIC	??_R3bad_array_new_length@std@@8		; std::bad_array_new_length::`RTTI Class Hierarchy Descriptor'
PUBLIC	??_R2bad_array_new_length@std@@8		; std::bad_array_new_length::`RTTI Base Class Array'
PUBLIC	??_R1A@?0A@EA@bad_array_new_length@std@@8	; std::bad_array_new_length::`RTTI Base Class Descriptor at (0,-1,0,64)'
PUBLIC	?ms_kPool@CLightData@@2V?$CDynamicPool@VCLightData@@@@A ; CLightData::ms_kPool
PUBLIC	??_7CLightData@@6B@				; CLightData::`vftable'
PUBLIC	??_7?$CDynamicPool@VCLightData@@@@6B@		; CDynamicPool<CLightData>::`vftable'
PUBLIC	??_C@_08LGBPINEC@duration@			; `string'
PUBLIC	??_C@_08NIJNIMBK@loopflag@			; `string'
PUBLIC	??_C@_09HBCOMICA@loopcount@			; `string'
PUBLIC	??_C@_0N@MBJLBHOD@ambientcolor@			; `string'
PUBLIC	??_C@_0N@BELHEGHB@diffusecolor@			; `string'
PUBLIC	??_C@_08BLEPIDIL@maxrange@			; `string'
PUBLIC	??_C@_0N@NKJMABJM@attenuation0@			; `string'
PUBLIC	??_C@_0N@MDIHDANN@attenuation1@			; `string'
PUBLIC	??_C@_0N@OIKKGDBO@attenuation2@			; `string'
PUBLIC	??_C@_0P@CJMOPDJ@timeeventrange@		; `string'
PUBLIC	??_C@_0BA@FOIKENOD@vector?5too?5long@		; `string'
PUBLIC	??_R4CLightData@@6B@				; CLightData::`RTTI Complete Object Locator'
PUBLIC	??_R0?AVCLightData@@@8				; CLightData `RTTI Type Descriptor'
PUBLIC	??_R3CLightData@@8				; CLightData::`RTTI Class Hierarchy Descriptor'
PUBLIC	??_R2CLightData@@8				; CLightData::`RTTI Base Class Array'
PUBLIC	??_R1A@?0A@EA@CLightData@@8			; CLightData::`RTTI Base Class Descriptor at (0,-1,0,64)'
PUBLIC	??_R1A@?0A@EA@CEffectElementBase@@8		; CEffectElementBase::`RTTI Base Class Descriptor at (0,-1,0,64)'
PUBLIC	??_R0?AVCEffectElementBase@@@8			; CEffectElementBase `RTTI Type Descriptor'
PUBLIC	??_R3CEffectElementBase@@8			; CEffectElementBase::`RTTI Class Hierarchy Descriptor'
PUBLIC	??_R2CEffectElementBase@@8			; CEffectElementBase::`RTTI Base Class Array'
PUBLIC	??_R4?$CDynamicPool@VCLightData@@@@6B@		; CDynamicPool<CLightData>::`RTTI Complete Object Locator'
PUBLIC	??_R0?AV?$CDynamicPool@VCLightData@@@@@8	; CDynamicPool<CLightData> `RTTI Type Descriptor'
PUBLIC	??_R3?$CDynamicPool@VCLightData@@@@8		; CDynamicPool<CLightData>::`RTTI Class Hierarchy Descriptor'
PUBLIC	??_R2?$CDynamicPool@VCLightData@@@@8		; CDynamicPool<CLightData>::`RTTI Base Class Array'
PUBLIC	??_R1A@?0A@EA@?$CDynamicPool@VCLightData@@@@8	; CDynamicPool<CLightData>::`RTTI Base Class Descriptor at (0,-1,0,64)'
PUBLIC	__real@3dcccccd
PUBLIC	__real@3f000000
PUBLIC	__real@3f800000
PUBLIC	__real@43960000
EXTRN	??2@YAPAXI@Z:PROC				; operator new
EXTRN	??3@YAXPAXI@Z:PROC				; operator delete
EXTRN	_atexit:PROC
EXTRN	__invalid_parameter_noinfo_noreturn:PROC
EXTRN	_memcpy:PROC
EXTRN	_memmove:PROC
EXTRN	_strlen:PROC
EXTRN	___std_exception_copy:PROC
EXTRN	___std_exception_destroy:PROC
EXTRN	??_Eexception@std@@UAEPAXI@Z:PROC		; std::exception::`vector deleting destructor'
EXTRN	??_Ebad_alloc@std@@UAEPAXI@Z:PROC		; std::bad_alloc::`vector deleting destructor'
EXTRN	??_Ebad_array_new_length@std@@UAEPAXI@Z:PROC	; std::bad_array_new_length::`vector deleting destructor'
EXTRN	?_Xlength_error@std@@YAXPBD@Z:PROC		; std::_Xlength_error
EXTRN	?GetTokenBoolean@CTextFileLoader@@QAEHABV?$basic_string@DU?$char_traits@D@std@@V?$allocator@D@2@@std@@PAH@Z:PROC ; CTextFileLoader::GetTokenBoolean
EXTRN	?GetTokenInteger@CTextFileLoader@@QAEHABV?$basic_string@DU?$char_traits@D@std@@V?$allocator@D@2@@std@@PAH@Z:PROC ; CTextFileLoader::GetTokenInteger
EXTRN	?GetTokenFloat@CTextFileLoader@@QAEHABV?$basic_string@DU?$char_traits@D@std@@V?$allocator@D@2@@std@@PAM@Z:PROC ; CTextFileLoader::GetTokenFloat
EXTRN	?GetTokenColor@CTextFileLoader@@QAEHABV?$basic_string@DU?$char_traits@D@std@@V?$allocator@D@2@@std@@PAUD3DXCOLOR@@@Z:PROC ; CTextFileLoader::GetTokenColor
EXTRN	?GetTokenTimeEventFloat@@YAHAAVCTextFileLoader@@PBDPAV?$vector@V?$CTimeEvent@M@@V?$allocator@V?$CTimeEvent@M@@@std@@@std@@@Z:PROC ; GetTokenTimeEventFloat
EXTRN	??0CEffectElementBase@@QAE@XZ:PROC		; CEffectElementBase::CEffectElementBase
EXTRN	??1CEffectElementBase@@UAE@XZ:PROC		; CEffectElementBase::~CEffectElementBase
EXTRN	?Clear@CEffectElementBase@@QAEXXZ:PROC		; CEffectElementBase::Clear
EXTRN	?GetPosition@CEffectElementBase@@QAEXMAAUD3DXVECTOR3@@@Z:PROC ; CEffectElementBase::GetPosition
EXTRN	??_ECLightData@@UAEPAXI@Z:PROC			; CLightData::`vector deleting destructor'
EXTRN	??_E?$CDynamicPool@VCLightData@@@@UAEPAXI@Z:PROC ; CDynamicPool<CLightData>::`vector deleting destructor'
EXTRN	@__security_check_cookie@4:PROC
EXTRN	__CxxThrowException@8:PROC
EXTRN	___CxxFrameHandler3:PROC
EXTRN	??_7type_info@@6B@:QWORD			; type_info::`vftable'
EXTRN	___security_cookie:DWORD
EXTRN	__fltused:DWORD
_BSS	SEGMENT
?ms_kPool@CLightData@@2V?$CDynamicPool@VCLightData@@@@A DB 024H DUP (?) ; CLightData::ms_kPool
_BSS	ENDS
CRT$XCU	SEGMENT
??ms_kPool$initializer$@CLightData@@2P6AXXZA@@3P6AXXZA DD FLAT:??__E?ms_kPool@CLightData@@2V?$CDynamicPool@VCLightData@@@@A@@YAXXZ ; ??ms_kPool$initializer$@CLightData@@2P6AXXZA@@3P6AXXZA
CRT$XCU	ENDS
;	COMDAT __real@43960000
CONST	SEGMENT
__real@43960000 DD 043960000r			; 300
CONST	ENDS
;	COMDAT __real@3f800000
CONST	SEGMENT
__real@3f800000 DD 03f800000r			; 1
CONST	ENDS
;	COMDAT __real@3f000000
CONST	SEGMENT
__real@3f000000 DD 03f000000r			; 0.5
CONST	ENDS
;	COMDAT __real@3dcccccd
CONST	SEGMENT
__real@3dcccccd DD 03dcccccdr			; 0.1
CONST	ENDS
;	COMDAT ??_R1A@?0A@EA@?$CDynamicPool@VCLightData@@@@8
rdata$r	SEGMENT
??_R1A@?0A@EA@?$CDynamicPool@VCLightData@@@@8 DD FLAT:??_R0?AV?$CDynamicPool@VCLightData@@@@@8 ; CDynamicPool<CLightData>::`RTTI Base Class Descriptor at (0,-1,0,64)'
	DD	00H
	DD	00H
	DD	0ffffffffH
	DD	00H
	DD	040H
	DD	FLAT:??_R3?$CDynamicPool@VCLightData@@@@8
rdata$r	ENDS
;	COMDAT ??_R2?$CDynamicPool@VCLightData@@@@8
rdata$r	SEGMENT
??_R2?$CDynamicPool@VCLightData@@@@8 DD FLAT:??_R1A@?0A@EA@?$CDynamicPool@VCLightData@@@@8 ; CDynamicPool<CLightData>::`RTTI Base Class Array'
rdata$r	ENDS
;	COMDAT ??_R3?$CDynamicPool@VCLightData@@@@8
rdata$r	SEGMENT
??_R3?$CDynamicPool@VCLightData@@@@8 DD 00H		; CDynamicPool<CLightData>::`RTTI Class Hierarchy Descriptor'
	DD	00H
	DD	01H
	DD	FLAT:??_R2?$CDynamicPool@VCLightData@@@@8
rdata$r	ENDS
;	COMDAT ??_R0?AV?$CDynamicPool@VCLightData@@@@@8
data$rs	SEGMENT
??_R0?AV?$CDynamicPool@VCLightData@@@@@8 DD FLAT:??_7type_info@@6B@ ; CDynamicPool<CLightData> `RTTI Type Descriptor'
	DD	00H
	DB	'.?AV?$CDynamicPool@VCLightData@@@@', 00H
data$rs	ENDS
;	COMDAT ??_R4?$CDynamicPool@VCLightData@@@@6B@
rdata$r	SEGMENT
??_R4?$CDynamicPool@VCLightData@@@@6B@ DD 00H		; CDynamicPool<CLightData>::`RTTI Complete Object Locator'
	DD	00H
	DD	00H
	DD	FLAT:??_R0?AV?$CDynamicPool@VCLightData@@@@@8
	DD	FLAT:??_R3?$CDynamicPool@VCLightData@@@@8
rdata$r	ENDS
;	COMDAT ??_R2CEffectElementBase@@8
rdata$r	SEGMENT
??_R2CEffectElementBase@@8 DD FLAT:??_R1A@?0A@EA@CEffectElementBase@@8 ; CEffectElementBase::`RTTI Base Class Array'
rdata$r	ENDS
;	COMDAT ??_R3CEffectElementBase@@8
rdata$r	SEGMENT
??_R3CEffectElementBase@@8 DD 00H			; CEffectElementBase::`RTTI Class Hierarchy Descriptor'
	DD	00H
	DD	01H
	DD	FLAT:??_R2CEffectElementBase@@8
rdata$r	ENDS
;	COMDAT ??_R0?AVCEffectElementBase@@@8
data$rs	SEGMENT
??_R0?AVCEffectElementBase@@@8 DD FLAT:??_7type_info@@6B@ ; CEffectElementBase `RTTI Type Descriptor'
	DD	00H
	DB	'.?AVCEffectElementBase@@', 00H
data$rs	ENDS
;	COMDAT ??_R1A@?0A@EA@CEffectElementBase@@8
rdata$r	SEGMENT
??_R1A@?0A@EA@CEffectElementBase@@8 DD FLAT:??_R0?AVCEffectElementBase@@@8 ; CEffectElementBase::`RTTI Base Class Descriptor at (0,-1,0,64)'
	DD	00H
	DD	00H
	DD	0ffffffffH
	DD	00H
	DD	040H
	DD	FLAT:??_R3CEffectElementBase@@8
rdata$r	ENDS
;	COMDAT ??_R1A@?0A@EA@CLightData@@8
rdata$r	SEGMENT
??_R1A@?0A@EA@CLightData@@8 DD FLAT:??_R0?AVCLightData@@@8 ; CLightData::`RTTI Base Class Descriptor at (0,-1,0,64)'
	DD	01H
	DD	00H
	DD	0ffffffffH
	DD	00H
	DD	040H
	DD	FLAT:??_R3CLightData@@8
rdata$r	ENDS
;	COMDAT ??_R2CLightData@@8
rdata$r	SEGMENT
??_R2CLightData@@8 DD FLAT:??_R1A@?0A@EA@CLightData@@8	; CLightData::`RTTI Base Class Array'
	DD	FLAT:??_R1A@?0A@EA@CEffectElementBase@@8
rdata$r	ENDS
;	COMDAT ??_R3CLightData@@8
rdata$r	SEGMENT
??_R3CLightData@@8 DD 00H				; CLightData::`RTTI Class Hierarchy Descriptor'
	DD	00H
	DD	02H
	DD	FLAT:??_R2CLightData@@8
rdata$r	ENDS
;	COMDAT ??_R0?AVCLightData@@@8
data$rs	SEGMENT
??_R0?AVCLightData@@@8 DD FLAT:??_7type_info@@6B@	; CLightData `RTTI Type Descriptor'
	DD	00H
	DB	'.?AVCLightData@@', 00H
data$rs	ENDS
;	COMDAT ??_R4CLightData@@6B@
rdata$r	SEGMENT
??_R4CLightData@@6B@ DD 00H				; CLightData::`RTTI Complete Object Locator'
	DD	00H
	DD	00H
	DD	FLAT:??_R0?AVCLightData@@@8
	DD	FLAT:??_R3CLightData@@8
rdata$r	ENDS
;	COMDAT ??_C@_0BA@FOIKENOD@vector?5too?5long@
CONST	SEGMENT
??_C@_0BA@FOIKENOD@vector?5too?5long@ DB 'vector too long', 00H ; `string'
CONST	ENDS
;	COMDAT ??_C@_0P@CJMOPDJ@timeeventrange@
CONST	SEGMENT
??_C@_0P@CJMOPDJ@timeeventrange@ DB 'timeeventrange', 00H ; `string'
CONST	ENDS
;	COMDAT ??_C@_0N@OIKKGDBO@attenuation2@
CONST	SEGMENT
??_C@_0N@OIKKGDBO@attenuation2@ DB 'attenuation2', 00H	; `string'
CONST	ENDS
;	COMDAT ??_C@_0N@MDIHDANN@attenuation1@
CONST	SEGMENT
??_C@_0N@MDIHDANN@attenuation1@ DB 'attenuation1', 00H	; `string'
CONST	ENDS
;	COMDAT ??_C@_0N@NKJMABJM@attenuation0@
CONST	SEGMENT
??_C@_0N@NKJMABJM@attenuation0@ DB 'attenuation0', 00H	; `string'
CONST	ENDS
;	COMDAT ??_C@_08BLEPIDIL@maxrange@
CONST	SEGMENT
??_C@_08BLEPIDIL@maxrange@ DB 'maxrange', 00H		; `string'
CONST	ENDS
;	COMDAT ??_C@_0N@BELHEGHB@diffusecolor@
CONST	SEGMENT
??_C@_0N@BELHEGHB@diffusecolor@ DB 'diffusecolor', 00H	; `string'
CONST	ENDS
;	COMDAT ??_C@_0N@MBJLBHOD@ambientcolor@
CONST	SEGMENT
??_C@_0N@MBJLBHOD@ambientcolor@ DB 'ambientcolor', 00H	; `string'
CONST	ENDS
;	COMDAT ??_C@_09HBCOMICA@loopcount@
CONST	SEGMENT
??_C@_09HBCOMICA@loopcount@ DB 'loopcount', 00H		; `string'
CONST	ENDS
;	COMDAT ??_C@_08NIJNIMBK@loopflag@
CONST	SEGMENT
??_C@_08NIJNIMBK@loopflag@ DB 'loopflag', 00H		; `string'
CONST	ENDS
;	COMDAT ??_C@_08LGBPINEC@duration@
CONST	SEGMENT
??_C@_08LGBPINEC@duration@ DB 'duration', 00H		; `string'
CONST	ENDS
;	COMDAT ??_7?$CDynamicPool@VCLightData@@@@6B@
CONST	SEGMENT
??_7?$CDynamicPool@VCLightData@@@@6B@ DD FLAT:??_R4?$CDynamicPool@VCLightData@@@@6B@ ; CDynamicPool<CLightData>::`vftable'
	DD	FLAT:??_E?$CDynamicPool@VCLightData@@@@UAEPAXI@Z
CONST	ENDS
;	COMDAT ??_7CLightData@@6B@
CONST	SEGMENT
??_7CLightData@@6B@ DD FLAT:??_R4CLightData@@6B@	; CLightData::`vftable'
	DD	FLAT:??_ECLightData@@UAEPAXI@Z
	DD	FLAT:?OnClear@CLightData@@MAEXXZ
	DD	FLAT:?OnIsData@CLightData@@MAE_NXZ
	DD	FLAT:?OnLoadScript@CLightData@@MAEHAAVCTextFileLoader@@@Z
CONST	ENDS
;	COMDAT ??_R1A@?0A@EA@bad_array_new_length@std@@8
rdata$r	SEGMENT
??_R1A@?0A@EA@bad_array_new_length@std@@8 DD FLAT:??_R0?AVbad_array_new_length@std@@@8 ; std::bad_array_new_length::`RTTI Base Class Descriptor at (0,-1,0,64)'
	DD	02H
	DD	00H
	DD	0ffffffffH
	DD	00H
	DD	040H
	DD	FLAT:??_R3bad_array_new_length@std@@8
rdata$r	ENDS
;	COMDAT ??_R2bad_array_new_length@std@@8
rdata$r	SEGMENT
??_R2bad_array_new_length@std@@8 DD FLAT:??_R1A@?0A@EA@bad_array_new_length@std@@8 ; std::bad_array_new_length::`RTTI Base Class Array'
	DD	FLAT:??_R1A@?0A@EA@bad_alloc@std@@8
	DD	FLAT:??_R1A@?0A@EA@exception@std@@8
rdata$r	ENDS
;	COMDAT ??_R3bad_array_new_length@std@@8
rdata$r	SEGMENT
??_R3bad_array_new_length@std@@8 DD 00H			; std::bad_array_new_length::`RTTI Class Hierarchy Descriptor'
	DD	00H
	DD	03H
	DD	FLAT:??_R2bad_array_new_length@std@@8
rdata$r	ENDS
;	COMDAT ??_R4bad_array_new_length@std@@6B@
rdata$r	SEGMENT
??_R4bad_array_new_length@std@@6B@ DD 00H		; std::bad_array_new_length::`RTTI Complete Object Locator'
	DD	00H
	DD	00H
	DD	FLAT:??_R0?AVbad_array_new_length@std@@@8
	DD	FLAT:??_R3bad_array_new_length@std@@8
rdata$r	ENDS
;	COMDAT ??_R1A@?0A@EA@bad_alloc@std@@8
rdata$r	SEGMENT
??_R1A@?0A@EA@bad_alloc@std@@8 DD FLAT:??_R0?AVbad_alloc@std@@@8 ; std::bad_alloc::`RTTI Base Class Descriptor at (0,-1,0,64)'
	DD	01H
	DD	00H
	DD	0ffffffffH
	DD	00H
	DD	040H
	DD	FLAT:??_R3bad_alloc@std@@8
rdata$r	ENDS
;	COMDAT ??_R2bad_alloc@std@@8
rdata$r	SEGMENT
??_R2bad_alloc@std@@8 DD FLAT:??_R1A@?0A@EA@bad_alloc@std@@8 ; std::bad_alloc::`RTTI Base Class Array'
	DD	FLAT:??_R1A@?0A@EA@exception@std@@8
rdata$r	ENDS
;	COMDAT ??_R3bad_alloc@std@@8
rdata$r	SEGMENT
??_R3bad_alloc@std@@8 DD 00H				; std::bad_alloc::`RTTI Class Hierarchy Descriptor'
	DD	00H
	DD	02H
	DD	FLAT:??_R2bad_alloc@std@@8
rdata$r	ENDS
;	COMDAT ??_R4bad_alloc@std@@6B@
rdata$r	SEGMENT
??_R4bad_alloc@std@@6B@ DD 00H				; std::bad_alloc::`RTTI Complete Object Locator'
	DD	00H
	DD	00H
	DD	FLAT:??_R0?AVbad_alloc@std@@@8
	DD	FLAT:??_R3bad_alloc@std@@8
rdata$r	ENDS
;	COMDAT ??_R1A@?0A@EA@exception@std@@8
rdata$r	SEGMENT
??_R1A@?0A@EA@exception@std@@8 DD FLAT:??_R0?AVexception@std@@@8 ; std::exception::`RTTI Base Class Descriptor at (0,-1,0,64)'
	DD	00H
	DD	00H
	DD	0ffffffffH
	DD	00H
	DD	040H
	DD	FLAT:??_R3exception@std@@8
rdata$r	ENDS
;	COMDAT ??_R2exception@std@@8
rdata$r	SEGMENT
??_R2exception@std@@8 DD FLAT:??_R1A@?0A@EA@exception@std@@8 ; std::exception::`RTTI Base Class Array'
rdata$r	ENDS
;	COMDAT ??_R3exception@std@@8
rdata$r	SEGMENT
??_R3exception@std@@8 DD 00H				; std::exception::`RTTI Class Hierarchy Descriptor'
	DD	00H
	DD	01H
	DD	FLAT:??_R2exception@std@@8
rdata$r	ENDS
;	COMDAT ??_R4exception@std@@6B@
rdata$r	SEGMENT
??_R4exception@std@@6B@ DD 00H				; std::exception::`RTTI Complete Object Locator'
	DD	00H
	DD	00H
	DD	FLAT:??_R0?AVexception@std@@@8
	DD	FLAT:??_R3exception@std@@8
rdata$r	ENDS
;	COMDAT ??_C@_0BA@JFNIOLAK@string?5too?5long@
CONST	SEGMENT
??_C@_0BA@JFNIOLAK@string?5too?5long@ DB 'string too long', 00H ; `string'
CONST	ENDS
;	COMDAT __CT??_R0?AVexception@std@@@8??0exception@std@@QAE@ABV01@@Z12
xdata$x	SEGMENT
__CT??_R0?AVexception@std@@@8??0exception@std@@QAE@ABV01@@Z12 DD 00H
	DD	FLAT:??_R0?AVexception@std@@@8
	DD	00H
	DD	0ffffffffH
	ORG $+4
	DD	0cH
	DD	FLAT:??0exception@std@@QAE@ABV01@@Z
xdata$x	ENDS
;	COMDAT ??_R0?AVexception@std@@@8
data$r	SEGMENT
??_R0?AVexception@std@@@8 DD FLAT:??_7type_info@@6B@	; std::exception `RTTI Type Descriptor'
	DD	00H
	DB	'.?AVexception@std@@', 00H
data$r	ENDS
;	COMDAT __CT??_R0?AVbad_alloc@std@@@8??0bad_alloc@std@@QAE@ABV01@@Z12
xdata$x	SEGMENT
__CT??_R0?AVbad_alloc@std@@@8??0bad_alloc@std@@QAE@ABV01@@Z12 DD 010H
	DD	FLAT:??_R0?AVbad_alloc@std@@@8
	DD	00H
	DD	0ffffffffH
	ORG $+4
	DD	0cH
	DD	FLAT:??0bad_alloc@std@@QAE@ABV01@@Z
xdata$x	ENDS
;	COMDAT ??_R0?AVbad_alloc@std@@@8
data$r	SEGMENT
??_R0?AVbad_alloc@std@@@8 DD FLAT:??_7type_info@@6B@	; std::bad_alloc `RTTI Type Descriptor'
	DD	00H
	DB	'.?AVbad_alloc@std@@', 00H
data$r	ENDS
;	COMDAT __CT??_R0?AVbad_array_new_length@std@@@8??0bad_array_new_length@std@@QAE@ABV01@@Z12
xdata$x	SEGMENT
__CT??_R0?AVbad_array_new_length@std@@@8??0bad_array_new_length@std@@QAE@ABV01@@Z12 DD 00H
	DD	FLAT:??_R0?AVbad_array_new_length@std@@@8
	DD	00H
	DD	0ffffffffH
	ORG $+4
	DD	0cH
	DD	FLAT:??0bad_array_new_length@std@@QAE@ABV01@@Z
xdata$x	ENDS
;	COMDAT ??_R0?AVbad_array_new_length@std@@@8
data$r	SEGMENT
??_R0?AVbad_array_new_length@std@@@8 DD FLAT:??_7type_info@@6B@ ; std::bad_array_new_length `RTTI Type Descriptor'
	DD	00H
	DB	'.?AVbad_array_new_length@std@@', 00H
data$r	ENDS
;	COMDAT __CTA3?AVbad_array_new_length@std@@
xdata$x	SEGMENT
__CTA3?AVbad_array_new_length@std@@ DD 03H
	DD	FLAT:__CT??_R0?AVbad_array_new_length@std@@@8??0bad_array_new_length@std@@QAE@ABV01@@Z12
	DD	FLAT:__CT??_R0?AVbad_alloc@std@@@8??0bad_alloc@std@@QAE@ABV01@@Z12
	DD	FLAT:__CT??_R0?AVexception@std@@@8??0exception@std@@QAE@ABV01@@Z12
xdata$x	ENDS
;	COMDAT __TI3?AVbad_array_new_length@std@@
xdata$x	SEGMENT
__TI3?AVbad_array_new_length@std@@ DD 00H
	DD	FLAT:??1bad_array_new_length@std@@UAE@XZ
	DD	00H
	DD	FLAT:__CTA3?AVbad_array_new_length@std@@
xdata$x	ENDS
;	COMDAT ??_C@_0BF@KINCDENJ@bad?5array?5new?5length@
CONST	SEGMENT
??_C@_0BF@KINCDENJ@bad?5array?5new?5length@ DB 'bad array new length', 00H ; `string'
CONST	ENDS
;	COMDAT ??_7bad_array_new_length@std@@6B@
CONST	SEGMENT
??_7bad_array_new_length@std@@6B@ DD FLAT:??_R4bad_array_new_length@std@@6B@ ; std::bad_array_new_length::`vftable'
	DD	FLAT:??_Ebad_array_new_length@std@@UAEPAXI@Z
	DD	FLAT:?what@exception@std@@UBEPBDXZ
CONST	ENDS
;	COMDAT ??_7bad_alloc@std@@6B@
CONST	SEGMENT
??_7bad_alloc@std@@6B@ DD FLAT:??_R4bad_alloc@std@@6B@	; std::bad_alloc::`vftable'
	DD	FLAT:??_Ebad_alloc@std@@UAEPAXI@Z
	DD	FLAT:?what@exception@std@@UBEPBDXZ
CONST	ENDS
;	COMDAT ??_C@_0BC@EOODALEL@Unknown?5exception@
CONST	SEGMENT
??_C@_0BC@EOODALEL@Unknown?5exception@ DB 'Unknown exception', 00H ; `string'
CONST	ENDS
;	COMDAT ??_7exception@std@@6B@
CONST	SEGMENT
??_7exception@std@@6B@ DD FLAT:??_R4exception@std@@6B@	; std::exception::`vftable'
	DD	FLAT:??_Eexception@std@@UAEPAXI@Z
	DD	FLAT:?what@exception@std@@UBEPBDXZ
CONST	ENDS
;	COMDAT xdata$x
xdata$x	SEGMENT
__catchsym$??$_Emplace_reallocate@ABQAVCLightData@@@?$vector@PAVCLightData@@V?$allocator@PAVCLightData@@@std@@@std@@QAEPAPAVCLightData@@QAPAV2@ABQAV2@@Z$32 DD 040H
	DD	00H
	DD	00H
	DD	FLAT:__catch$??$_Emplace_reallocate@ABQAVCLightData@@@?$vector@PAVCLightData@@V?$allocator@PAVCLightData@@@std@@@std@@QAEPAPAVCLightData@@QAPAV2@ABQAV2@@Z$0
__unwindtable$??$_Emplace_reallocate@ABQAVCLightData@@@?$vector@PAVCLightData@@V?$allocator@PAVCLightData@@@std@@@std@@QAEPAPAVCLightData@@QAPAV2@ABQAV2@@Z DD 0ffffffffH
	DD	00H
	DD	0ffffffffH
	DD	00H
__tryblocktable$??$_Emplace_reallocate@ABQAVCLightData@@@?$vector@PAVCLightData@@V?$allocator@PAVCLightData@@@std@@@std@@QAEPAPAVCLightData@@QAPAV2@ABQAV2@@Z DD 00H
	DD	00H
	DD	01H
	DD	01H
	DD	FLAT:__catchsym$??$_Emplace_reallocate@ABQAVCLightData@@@?$vector@PAVCLightData@@V?$allocator@PAVCLightData@@@std@@@std@@QAEPAPAVCLightData@@QAPAV2@ABQAV2@@Z$32
__ehfuncinfo$??$_Emplace_reallocate@ABQAVCLightData@@@?$vector@PAVCLightData@@V?$allocator@PAVCLightData@@@std@@@std@@QAEPAPAVCLightData@@QAPAV2@ABQAV2@@Z DD 019930522H
	DD	02H
	DD	FLAT:__unwindtable$??$_Emplace_reallocate@ABQAVCLightData@@@?$vector@PAVCLightData@@V?$allocator@PAVCLightData@@@std@@@std@@QAEPAPAVCLightData@@QAPAV2@ABQAV2@@Z
	DD	01H
	DD	FLAT:__tryblocktable$??$_Emplace_reallocate@ABQAVCLightData@@@?$vector@PAVCLightData@@V?$allocator@PAVCLightData@@@std@@@std@@QAEPAPAVCLightData@@QAPAV2@ABQAV2@@Z
	DD	2 DUP(00H)
	DD	00H
	DD	01H
xdata$x	ENDS
;	COMDAT xdata$x
xdata$x	SEGMENT
__unwindtable$?Alloc@?$CDynamicPool@VCLightData@@@@QAEPAVCLightData@@XZ DD 0ffffffffH
	DD	FLAT:__unwindfunclet$?Alloc@?$CDynamicPool@VCLightData@@@@QAEPAVCLightData@@XZ$0
__ehfuncinfo$?Alloc@?$CDynamicPool@VCLightData@@@@QAEPAVCLightData@@XZ DD 019930522H
	DD	01H
	DD	FLAT:__unwindtable$?Alloc@?$CDynamicPool@VCLightData@@@@QAEPAVCLightData@@XZ
	DD	2 DUP(00H)
	DD	2 DUP(00H)
	DD	00H
	DD	01H
xdata$x	ENDS
;	COMDAT xdata$x
xdata$x	SEGMENT
__ehfuncinfo$?OnLoadScript@CLightData@@MAEHAAVCTextFileLoader@@@Z DD 019930522H
	DD	09H
	DD	FLAT:__unwindtable$?OnLoadScript@CLightData@@MAEHAAVCTextFileLoader@@@Z
	DD	2 DUP(00H)
	DD	2 DUP(00H)
	DD	00H
	DD	01H
__unwindtable$?OnLoadScript@CLightData@@MAEHAAVCTextFileLoader@@@Z DD 0ffffffffH
	DD	FLAT:__unwindfunclet$?OnLoadScript@CLightData@@MAEHAAVCTextFileLoader@@@Z$0
	DD	0ffffffffH
	DD	FLAT:__unwindfunclet$?OnLoadScript@CLightData@@MAEHAAVCTextFileLoader@@@Z$1
	DD	0ffffffffH
	DD	FLAT:__unwindfunclet$?OnLoadScript@CLightData@@MAEHAAVCTextFileLoader@@@Z$2
	DD	0ffffffffH
	DD	FLAT:__unwindfunclet$?OnLoadScript@CLightData@@MAEHAAVCTextFileLoader@@@Z$3
	DD	0ffffffffH
	DD	FLAT:__unwindfunclet$?OnLoadScript@CLightData@@MAEHAAVCTextFileLoader@@@Z$4
	DD	0ffffffffH
	DD	FLAT:__unwindfunclet$?OnLoadScript@CLightData@@MAEHAAVCTextFileLoader@@@Z$5
	DD	0ffffffffH
	DD	FLAT:__unwindfunclet$?OnLoadScript@CLightData@@MAEHAAVCTextFileLoader@@@Z$6
	DD	0ffffffffH
	DD	FLAT:__unwindfunclet$?OnLoadScript@CLightData@@MAEHAAVCTextFileLoader@@@Z$7
	DD	0ffffffffH
	DD	FLAT:__unwindfunclet$?OnLoadScript@CLightData@@MAEHAAVCTextFileLoader@@@Z$8
xdata$x	ENDS
;	COMDAT xdata$x
xdata$x	SEGMENT
__unwindtable$??0CLightData@@QAE@XZ DD 0ffffffffH
	DD	FLAT:__unwindfunclet$??0CLightData@@QAE@XZ$0
	DD	00H
	DD	FLAT:__unwindfunclet$??0CLightData@@QAE@XZ$1
__ehfuncinfo$??0CLightData@@QAE@XZ DD 019930522H
	DD	02H
	DD	FLAT:__unwindtable$??0CLightData@@QAE@XZ
	DD	2 DUP(00H)
	DD	2 DUP(00H)
	DD	00H
	DD	01H
xdata$x	ENDS
;	COMDAT xdata$x
xdata$x	SEGMENT
__ehfuncinfo$??$_Deallocate@$07$0A@@std@@YAXPAXI@Z DD 019930522H
	DD	00H
	DD	00H
	DD	2 DUP(00H)
	DD	2 DUP(00H)
	DD	00H
	DD	05H
xdata$x	ENDS
;	COMDAT xdata$x
xdata$x	SEGMENT
__unwindtable$??0?$basic_string@DU?$char_traits@D@std@@V?$allocator@D@2@@std@@QAE@QBD@Z DD 0ffffffffH
	DD	FLAT:__unwindfunclet$??0?$basic_string@DU?$char_traits@D@std@@V?$allocator@D@2@@std@@QAE@QBD@Z$0
__ehfuncinfo$??0?$basic_string@DU?$char_traits@D@std@@V?$allocator@D@2@@std@@QAE@QBD@Z DD 019930522H
	DD	01H
	DD	FLAT:__unwindtable$??0?$basic_string@DU?$char_traits@D@std@@V?$allocator@D@2@@std@@QAE@QBD@Z
	DD	2 DUP(00H)
	DD	2 DUP(00H)
	DD	00H
	DD	01H
xdata$x	ENDS
; Function compile flags: /Odspy
; File C:\Program Files (x86)\Microsoft Visual Studio\2019\Community\VC\Tools\MSVC\14.28.29333\include\xmemory
;	COMDAT ??$_Refancy@PAV?$CTimeEvent@M@@$0A@@std@@YAPAV?$CTimeEvent@M@@PAV1@@Z
_TEXT	SEGMENT
__Ptr$ = 8						; size = 4
??$_Refancy@PAV?$CTimeEvent@M@@$0A@@std@@YAPAV?$CTimeEvent@M@@PAV1@@Z PROC ; std::_Refancy<CTimeEvent<float> *,0>, COMDAT

; 261  : _Pointer _Refancy(_Pointer _Ptr) noexcept {

  00000	55		 push	 ebp
  00001	8b ec		 mov	 ebp, esp

; 262  :     return _Ptr;

  00003	8b 45 08	 mov	 eax, DWORD PTR __Ptr$[ebp]

; 263  : }

  00006	5d		 pop	 ebp
  00007	c3		 ret	 0
??$_Refancy@PAV?$CTimeEvent@M@@$0A@@std@@YAPAV?$CTimeEvent@M@@PAV1@@Z ENDP ; std::_Refancy<CTimeEvent<float> *,0>
_TEXT	ENDS
; Function compile flags: /Odspy
; File C:\Program Files (x86)\Microsoft Visual Studio\2019\Community\VC\Tools\MSVC\14.28.29333\include\algorithm
; File C:\Program Files (x86)\Microsoft Visual Studio\2019\Community\VC\Tools\MSVC\14.28.29333\include\xutility
; File C:\Program Files (x86)\Microsoft Visual Studio\2019\Community\VC\Tools\MSVC\14.28.29333\include\algorithm
; File C:\Program Files (x86)\Microsoft Visual Studio\2019\Community\VC\Tools\MSVC\14.28.29333\include\xutility
; File C:\Program Files (x86)\Microsoft Visual Studio\2019\Community\VC\Tools\MSVC\14.28.29333\include\algorithm
; File D:\Metin2 Server Files\mainline\SRC_2014\Metin2Client\EffectLib\Type.h
; File C:\Program Files (x86)\Microsoft Visual Studio\2019\Community\VC\Tools\MSVC\14.28.29333\include\algorithm
; File C:\Program Files (x86)\Microsoft Visual Studio\2019\Community\VC\Tools\MSVC\14.28.29333\include\xutility
; File C:\Program Files (x86)\Microsoft Visual Studio\2019\Community\VC\Tools\MSVC\14.28.29333\include\algorithm
; File C:\Program Files (x86)\Microsoft Visual Studio\2019\Community\VC\Tools\MSVC\14.28.29333\include\xutility
; File C:\Program Files (x86)\Microsoft Visual Studio\2019\Community\VC\Tools\MSVC\14.28.29333\include\algorithm
;	COMDAT ??$upper_bound@PAV?$CTimeEvent@M@@MU?$less@X@std@@@std@@YAPAV?$CTimeEvent@M@@PAV1@0ABMU?$less@X@0@@Z
_TEXT	SEGMENT
$T1 = -32						; size = 4
__UMid$2 = -28						; size = 4
tv91 = -24						; size = 4
__Count2$3 = -20					; size = 4
__First$ = -16						; size = 4
__First$ = -12						; size = 4
__UFirst$ = -8						; size = 4
__Count$ = -4						; size = 4
__First$ = 8						; size = 4
__Last$ = 12						; size = 4
__Val$ = 16						; size = 4
__Pred$ = 20						; size = 1
??$upper_bound@PAV?$CTimeEvent@M@@MU?$less@X@std@@@std@@YAPAV?$CTimeEvent@M@@PAV1@0ABMU?$less@X@0@@Z PROC ; std::upper_bound<CTimeEvent<float> *,float,std::less<void> >, COMDAT

; 6725 : _NODISCARD _CONSTEXPR20 _FwdIt upper_bound(_FwdIt _First, _FwdIt _Last, const _Ty& _Val, _Pr _Pred) {

  00000	55		 push	 ebp
  00001	8b ec		 mov	 ebp, esp
  00003	83 ec 20	 sub	 esp, 32			; 00000020H

; 6726 :     // find first element that _Val is before
; 6727 :     _Adl_verify_range(_First, _Last);
; 6728 :     auto _UFirst                = _Get_unwrapped(_First);

  00006	8b 45 08	 mov	 eax, DWORD PTR __First$[ebp]
  00009	89 45 f8	 mov	 DWORD PTR __UFirst$[ebp], eax
; File C:\Program Files (x86)\Microsoft Visual Studio\2019\Community\VC\Tools\MSVC\14.28.29333\include\xutility

; 1303 :         return _It + 0;

  0000c	8b 45 0c	 mov	 eax, DWORD PTR __Last$[ebp]
  0000f	89 45 e0	 mov	 DWORD PTR $T1[ebp], eax

; 1794 :         return _Last - _First; // assume the iterator will do debug checking

  00012	8b 45 e0	 mov	 eax, DWORD PTR $T1[ebp]
  00015	2b 45 f8	 sub	 eax, DWORD PTR __UFirst$[ebp]
  00018	c1 f8 03	 sar	 eax, 3
; File C:\Program Files (x86)\Microsoft Visual Studio\2019\Community\VC\Tools\MSVC\14.28.29333\include\algorithm

; 6729 :     _Iter_diff_t<_FwdIt> _Count = _STD distance(_UFirst, _Get_unwrapped(_Last));

  0001b	89 45 fc	 mov	 DWORD PTR __Count$[ebp], eax
$LN2@upper_boun:

; 6730 : 
; 6731 :     while (0 < _Count) { // divide and conquer, find half that contains answer

  0001e	83 7d fc 00	 cmp	 DWORD PTR __Count$[ebp], 0
  00022	7e 72		 jle	 SHORT $LN3@upper_boun

; 6732 :         _Iter_diff_t<_FwdIt> _Count2 = _Count / 2;

  00024	8b 45 fc	 mov	 eax, DWORD PTR __Count$[ebp]
  00027	99		 cdq
  00028	2b c2		 sub	 eax, edx
  0002a	d1 f8		 sar	 eax, 1
  0002c	89 45 ec	 mov	 DWORD PTR __Count2$3[ebp], eax

; 6733 :         const auto _UMid             = _STD next(_UFirst, _Count2);

  0002f	8b 45 f8	 mov	 eax, DWORD PTR __UFirst$[ebp]
  00032	89 45 f4	 mov	 DWORD PTR __First$[ebp], eax
; File C:\Program Files (x86)\Microsoft Visual Studio\2019\Community\VC\Tools\MSVC\14.28.29333\include\xutility

; 1714 :         _Where += _Off;

  00035	8b 45 ec	 mov	 eax, DWORD PTR __Count2$3[ebp]
  00038	8b 4d f4	 mov	 ecx, DWORD PTR __First$[ebp]
  0003b	8d 04 c1	 lea	 eax, DWORD PTR [ecx+eax*8]
  0003e	89 45 f4	 mov	 DWORD PTR __First$[ebp], eax
; File C:\Program Files (x86)\Microsoft Visual Studio\2019\Community\VC\Tools\MSVC\14.28.29333\include\algorithm

; 6733 :         const auto _UMid             = _STD next(_UFirst, _Count2);

  00041	8b 45 f4	 mov	 eax, DWORD PTR __First$[ebp]
  00044	89 45 e4	 mov	 DWORD PTR __UMid$2[ebp], eax
; File D:\Metin2 Server Files\mainline\SRC_2014\Metin2Client\EffectLib\Type.h

; 199  : 	return lhs < rhs.m_fTime;

  00047	8b 45 e4	 mov	 eax, DWORD PTR __UMid$2[ebp]
  0004a	8b 4d 10	 mov	 ecx, DWORD PTR __Val$[ebp]
  0004d	f3 0f 10 00	 movss	 xmm0, DWORD PTR [eax]
  00051	0f 2f 01	 comiss	 xmm0, DWORD PTR [ecx]
  00054	76 09		 jbe	 SHORT $LN23@upper_boun
  00056	c7 45 e8 01 00
	00 00		 mov	 DWORD PTR tv91[ebp], 1
  0005d	eb 04		 jmp	 SHORT $LN24@upper_boun
$LN23@upper_boun:
  0005f	83 65 e8 00	 and	 DWORD PTR tv91[ebp], 0
$LN24@upper_boun:
; File C:\Program Files (x86)\Microsoft Visual Studio\2019\Community\VC\Tools\MSVC\14.28.29333\include\algorithm

; 6734 :         if (_Pred(_Val, *_UMid)) {

  00063	0f b6 45 e8	 movzx	 eax, BYTE PTR tv91[ebp]
  00067	85 c0		 test	 eax, eax
  00069	74 08		 je	 SHORT $LN4@upper_boun

; 6735 :             _Count = _Count2;

  0006b	8b 45 ec	 mov	 eax, DWORD PTR __Count2$3[ebp]
  0006e	89 45 fc	 mov	 DWORD PTR __Count$[ebp], eax

; 6736 :         } else { // try top half

  00071	eb 21		 jmp	 SHORT $LN5@upper_boun
$LN4@upper_boun:

; 6737 :             _UFirst = _Next_iter(_UMid);

  00073	8b 45 e4	 mov	 eax, DWORD PTR __UMid$2[ebp]
  00076	89 45 f0	 mov	 DWORD PTR __First$[ebp], eax
; File C:\Program Files (x86)\Microsoft Visual Studio\2019\Community\VC\Tools\MSVC\14.28.29333\include\xutility

; 1837 :     return ++_First;

  00079	8b 45 f0	 mov	 eax, DWORD PTR __First$[ebp]
  0007c	83 c0 08	 add	 eax, 8
  0007f	89 45 f0	 mov	 DWORD PTR __First$[ebp], eax
; File C:\Program Files (x86)\Microsoft Visual Studio\2019\Community\VC\Tools\MSVC\14.28.29333\include\algorithm

; 6737 :             _UFirst = _Next_iter(_UMid);

  00082	8b 45 f0	 mov	 eax, DWORD PTR __First$[ebp]
  00085	89 45 f8	 mov	 DWORD PTR __UFirst$[ebp], eax

; 6738 :             _Count -= _Count2 + 1;

  00088	8b 45 ec	 mov	 eax, DWORD PTR __Count2$3[ebp]
  0008b	40		 inc	 eax
  0008c	8b 4d fc	 mov	 ecx, DWORD PTR __Count$[ebp]
  0008f	2b c8		 sub	 ecx, eax
  00091	89 4d fc	 mov	 DWORD PTR __Count$[ebp], ecx
$LN5@upper_boun:

; 6739 :         }
; 6740 :     }

  00094	eb 88		 jmp	 SHORT $LN2@upper_boun
$LN3@upper_boun:
; File C:\Program Files (x86)\Microsoft Visual Studio\2019\Community\VC\Tools\MSVC\14.28.29333\include\xutility

; 1492 :         _It = static_cast<_UIter&&>(_UIt);

  00096	8b 45 f8	 mov	 eax, DWORD PTR __UFirst$[ebp]
  00099	89 45 08	 mov	 DWORD PTR __First$[ebp], eax
; File C:\Program Files (x86)\Microsoft Visual Studio\2019\Community\VC\Tools\MSVC\14.28.29333\include\algorithm

; 6743 :     return _First;

  0009c	8b 45 08	 mov	 eax, DWORD PTR __First$[ebp]

; 6744 : }

  0009f	c9		 leave
  000a0	c3		 ret	 0
??$upper_bound@PAV?$CTimeEvent@M@@MU?$less@X@std@@@std@@YAPAV?$CTimeEvent@M@@PAV1@0ABMU?$less@X@0@@Z ENDP ; std::upper_bound<CTimeEvent<float> *,float,std::less<void> >
_TEXT	ENDS
; Function compile flags: /Odspy
; File C:\Program Files (x86)\Microsoft Visual Studio\2019\Community\VC\Tools\MSVC\14.28.29333\include\xutility
; File D:\Metin2 Server Files\mainline\SRC_2014\Metin2Client\EffectLib\Type.h
; File C:\Program Files (x86)\Microsoft Visual Studio\2019\Community\VC\Tools\MSVC\14.28.29333\include\xutility
;	COMDAT ??$lower_bound@PAV?$CTimeEvent@M@@MU?$less@X@std@@@std@@YAPAV?$CTimeEvent@M@@PAV1@QAV1@ABMU?$less@X@0@@Z
_TEXT	SEGMENT
$T1 = -32						; size = 4
__UMid$2 = -28						; size = 4
tv91 = -24						; size = 4
__Count2$3 = -20					; size = 4
__First$ = -16						; size = 4
__First$ = -12						; size = 4
__UFirst$ = -8						; size = 4
__Count$ = -4						; size = 4
__First$ = 8						; size = 4
__Last$ = 12						; size = 4
__Val$ = 16						; size = 4
__Pred$ = 20						; size = 1
??$lower_bound@PAV?$CTimeEvent@M@@MU?$less@X@std@@@std@@YAPAV?$CTimeEvent@M@@PAV1@QAV1@ABMU?$less@X@0@@Z PROC ; std::lower_bound<CTimeEvent<float> *,float,std::less<void> >, COMDAT

; 5849 : _NODISCARD _CONSTEXPR20 _FwdIt lower_bound(_FwdIt _First, const _FwdIt _Last, const _Ty& _Val, _Pr _Pred) {

  00000	55		 push	 ebp
  00001	8b ec		 mov	 ebp, esp
  00003	83 ec 20	 sub	 esp, 32			; 00000020H

; 5850 :     // find first element not before _Val
; 5851 :     _Adl_verify_range(_First, _Last);
; 5852 :     auto _UFirst                = _Get_unwrapped(_First);

  00006	8b 45 08	 mov	 eax, DWORD PTR __First$[ebp]
  00009	89 45 f8	 mov	 DWORD PTR __UFirst$[ebp], eax

; 1303 :         return _It + 0;

  0000c	8b 45 0c	 mov	 eax, DWORD PTR __Last$[ebp]
  0000f	89 45 e0	 mov	 DWORD PTR $T1[ebp], eax

; 1794 :         return _Last - _First; // assume the iterator will do debug checking

  00012	8b 45 e0	 mov	 eax, DWORD PTR $T1[ebp]
  00015	2b 45 f8	 sub	 eax, DWORD PTR __UFirst$[ebp]
  00018	c1 f8 03	 sar	 eax, 3

; 5853 :     _Iter_diff_t<_FwdIt> _Count = _STD distance(_UFirst, _Get_unwrapped(_Last));

  0001b	89 45 fc	 mov	 DWORD PTR __Count$[ebp], eax
$LN2@lower_boun:

; 5854 : 
; 5855 :     while (0 < _Count) { // divide and conquer, find half that contains answer

  0001e	83 7d fc 00	 cmp	 DWORD PTR __Count$[ebp], 0
  00022	7e 72		 jle	 SHORT $LN3@lower_boun

; 5856 :         const _Iter_diff_t<_FwdIt> _Count2 = _Count / 2;

  00024	8b 45 fc	 mov	 eax, DWORD PTR __Count$[ebp]
  00027	99		 cdq
  00028	2b c2		 sub	 eax, edx
  0002a	d1 f8		 sar	 eax, 1
  0002c	89 45 ec	 mov	 DWORD PTR __Count2$3[ebp], eax

; 5857 :         const auto _UMid                   = _STD next(_UFirst, _Count2);

  0002f	8b 45 f8	 mov	 eax, DWORD PTR __UFirst$[ebp]
  00032	89 45 f4	 mov	 DWORD PTR __First$[ebp], eax

; 1714 :         _Where += _Off;

  00035	8b 45 ec	 mov	 eax, DWORD PTR __Count2$3[ebp]
  00038	8b 4d f4	 mov	 ecx, DWORD PTR __First$[ebp]
  0003b	8d 04 c1	 lea	 eax, DWORD PTR [ecx+eax*8]
  0003e	89 45 f4	 mov	 DWORD PTR __First$[ebp], eax

; 5857 :         const auto _UMid                   = _STD next(_UFirst, _Count2);

  00041	8b 45 f4	 mov	 eax, DWORD PTR __First$[ebp]
  00044	89 45 e4	 mov	 DWORD PTR __UMid$2[ebp], eax
; File D:\Metin2 Server Files\mainline\SRC_2014\Metin2Client\EffectLib\Type.h

; 193  : 	return lhs.m_fTime < rhs;

  00047	8b 45 10	 mov	 eax, DWORD PTR __Val$[ebp]
  0004a	8b 4d e4	 mov	 ecx, DWORD PTR __UMid$2[ebp]
  0004d	f3 0f 10 00	 movss	 xmm0, DWORD PTR [eax]
  00051	0f 2f 01	 comiss	 xmm0, DWORD PTR [ecx]
  00054	76 09		 jbe	 SHORT $LN23@lower_boun
  00056	c7 45 e8 01 00
	00 00		 mov	 DWORD PTR tv91[ebp], 1
  0005d	eb 04		 jmp	 SHORT $LN24@lower_boun
$LN23@lower_boun:
  0005f	83 65 e8 00	 and	 DWORD PTR tv91[ebp], 0
$LN24@lower_boun:
; File C:\Program Files (x86)\Microsoft Visual Studio\2019\Community\VC\Tools\MSVC\14.28.29333\include\xutility

; 5858 :         if (_Pred(*_UMid, _Val)) { // try top half

  00063	0f b6 45 e8	 movzx	 eax, BYTE PTR tv91[ebp]
  00067	85 c0		 test	 eax, eax
  00069	74 23		 je	 SHORT $LN4@lower_boun

; 5859 :             _UFirst = _Next_iter(_UMid);

  0006b	8b 45 e4	 mov	 eax, DWORD PTR __UMid$2[ebp]
  0006e	89 45 f0	 mov	 DWORD PTR __First$[ebp], eax

; 1837 :     return ++_First;

  00071	8b 45 f0	 mov	 eax, DWORD PTR __First$[ebp]
  00074	83 c0 08	 add	 eax, 8
  00077	89 45 f0	 mov	 DWORD PTR __First$[ebp], eax

; 5859 :             _UFirst = _Next_iter(_UMid);

  0007a	8b 45 f0	 mov	 eax, DWORD PTR __First$[ebp]
  0007d	89 45 f8	 mov	 DWORD PTR __UFirst$[ebp], eax

; 5860 :             _Count -= _Count2 + 1;

  00080	8b 45 ec	 mov	 eax, DWORD PTR __Count2$3[ebp]
  00083	40		 inc	 eax
  00084	8b 4d fc	 mov	 ecx, DWORD PTR __Count$[ebp]
  00087	2b c8		 sub	 ecx, eax
  00089	89 4d fc	 mov	 DWORD PTR __Count$[ebp], ecx

; 5861 :         } else {

  0008c	eb 06		 jmp	 SHORT $LN5@lower_boun
$LN4@lower_boun:

; 5862 :             _Count = _Count2;

  0008e	8b 45 ec	 mov	 eax, DWORD PTR __Count2$3[ebp]
  00091	89 45 fc	 mov	 DWORD PTR __Count$[ebp], eax
$LN5@lower_boun:

; 5863 :         }
; 5864 :     }

  00094	eb 88		 jmp	 SHORT $LN2@lower_boun
$LN3@lower_boun:

; 1492 :         _It = static_cast<_UIter&&>(_UIt);

  00096	8b 45 f8	 mov	 eax, DWORD PTR __UFirst$[ebp]
  00099	89 45 08	 mov	 DWORD PTR __First$[ebp], eax

; 5865 : 
; 5866 :     _Seek_wrapped(_First, _UFirst);
; 5867 :     return _First;

  0009c	8b 45 08	 mov	 eax, DWORD PTR __First$[ebp]

; 5868 : }

  0009f	c9		 leave
  000a0	c3		 ret	 0
??$lower_bound@PAV?$CTimeEvent@M@@MU?$less@X@std@@@std@@YAPAV?$CTimeEvent@M@@PAV1@QAV1@ABMU?$less@X@0@@Z ENDP ; std::lower_bound<CTimeEvent<float> *,float,std::less<void> >
_TEXT	ENDS
; Function compile flags: /Odspy
; File C:\Program Files (x86)\Microsoft Visual Studio\2019\Community\VC\Tools\MSVC\14.28.29333\include\xutility
;	COMDAT ??$_Copy_memmove@PAPAVCLightData@@PAPAV1@@std@@YAPAPAVCLightData@@PAPAV1@00@Z
_TEXT	SEGMENT
__Last_ch$ = -16					; size = 4
__Count$ = -12						; size = 4
__Dest_ch$ = -8						; size = 4
__First_ch$ = -4					; size = 4
__First$ = 8						; size = 4
__Last$ = 12						; size = 4
__Dest$ = 16						; size = 4
??$_Copy_memmove@PAPAVCLightData@@PAPAV1@@std@@YAPAPAVCLightData@@PAPAV1@00@Z PROC ; std::_Copy_memmove<CLightData * *,CLightData * *>, COMDAT

; 4360 : _OutIt _Copy_memmove(_InIt _First, _InIt _Last, _OutIt _Dest) {

  00000	55		 push	 ebp
  00001	8b ec		 mov	 ebp, esp
  00003	83 ec 10	 sub	 esp, 16			; 00000010H

; 4361 :     const char* const _First_ch = const_cast<const char*>(reinterpret_cast<const volatile char*>(_First));

  00006	8b 45 08	 mov	 eax, DWORD PTR __First$[ebp]
  00009	89 45 fc	 mov	 DWORD PTR __First_ch$[ebp], eax

; 4362 :     const char* const _Last_ch  = const_cast<const char*>(reinterpret_cast<const volatile char*>(_Last));

  0000c	8b 45 0c	 mov	 eax, DWORD PTR __Last$[ebp]
  0000f	89 45 f0	 mov	 DWORD PTR __Last_ch$[ebp], eax

; 4363 :     char* const _Dest_ch        = const_cast<char*>(reinterpret_cast<volatile char*>(_Dest));

  00012	8b 45 10	 mov	 eax, DWORD PTR __Dest$[ebp]
  00015	89 45 f8	 mov	 DWORD PTR __Dest_ch$[ebp], eax

; 4364 :     const auto _Count           = static_cast<size_t>(_Last_ch - _First_ch);

  00018	8b 45 f0	 mov	 eax, DWORD PTR __Last_ch$[ebp]
  0001b	2b 45 fc	 sub	 eax, DWORD PTR __First_ch$[ebp]
  0001e	89 45 f4	 mov	 DWORD PTR __Count$[ebp], eax

; 4365 :     _CSTD memmove(_Dest_ch, _First_ch, _Count);

  00021	ff 75 f4	 push	 DWORD PTR __Count$[ebp]
  00024	ff 75 fc	 push	 DWORD PTR __First_ch$[ebp]
  00027	ff 75 f8	 push	 DWORD PTR __Dest_ch$[ebp]
  0002a	e8 00 00 00 00	 call	 _memmove
  0002f	83 c4 0c	 add	 esp, 12			; 0000000cH

; 4366 :     return reinterpret_cast<_OutIt>(_Dest_ch + _Count);

  00032	8b 45 f8	 mov	 eax, DWORD PTR __Dest_ch$[ebp]
  00035	03 45 f4	 add	 eax, DWORD PTR __Count$[ebp]

; 4367 : }

  00038	c9		 leave
  00039	c3		 ret	 0
??$_Copy_memmove@PAPAVCLightData@@PAPAV1@@std@@YAPAPAVCLightData@@PAPAV1@00@Z ENDP ; std::_Copy_memmove<CLightData * *,CLightData * *>
_TEXT	ENDS
; Function compile flags: /Odspy
; File C:\Program Files (x86)\Microsoft Visual Studio\2019\Community\VC\Tools\MSVC\14.28.29333\include\algorithm
; File C:\Program Files (x86)\Microsoft Visual Studio\2019\Community\VC\Tools\MSVC\14.28.29333\include\vector
; File C:\Program Files (x86)\Microsoft Visual Studio\2019\Community\VC\Tools\MSVC\14.28.29333\include\xstddef
; File C:\Program Files (x86)\Microsoft Visual Studio\2019\Community\VC\Tools\MSVC\14.28.29333\include\vector
; File C:\Program Files (x86)\Microsoft Visual Studio\2019\Community\VC\Tools\MSVC\14.28.29333\include\algorithm
; File C:\Program Files (x86)\Microsoft Visual Studio\2019\Community\VC\Tools\MSVC\14.28.29333\include\vector
; File C:\Program Files (x86)\Microsoft Visual Studio\2019\Community\VC\Tools\MSVC\14.28.29333\include\xstddef
; File C:\Program Files (x86)\Microsoft Visual Studio\2019\Community\VC\Tools\MSVC\14.28.29333\include\vector
; File C:\Program Files (x86)\Microsoft Visual Studio\2019\Community\VC\Tools\MSVC\14.28.29333\include\algorithm
; File C:\Program Files (x86)\Microsoft Visual Studio\2019\Community\VC\Tools\MSVC\14.28.29333\include\xutility
; File C:\Program Files (x86)\Microsoft Visual Studio\2019\Community\VC\Tools\MSVC\14.28.29333\include\algorithm
; File C:\Program Files (x86)\Microsoft Visual Studio\2019\Community\VC\Tools\MSVC\14.28.29333\include\xutility
; File C:\Program Files (x86)\Microsoft Visual Studio\2019\Community\VC\Tools\MSVC\14.28.29333\include\vector
; File C:\Program Files (x86)\Microsoft Visual Studio\2019\Community\VC\Tools\MSVC\14.28.29333\include\xutility
; File C:\Program Files (x86)\Microsoft Visual Studio\2019\Community\VC\Tools\MSVC\14.28.29333\include\vector
; File C:\Program Files (x86)\Microsoft Visual Studio\2019\Community\VC\Tools\MSVC\14.28.29333\include\algorithm
; File C:\Program Files (x86)\Microsoft Visual Studio\2019\Community\VC\Tools\MSVC\14.28.29333\include\xutility
; File C:\Program Files (x86)\Microsoft Visual Studio\2019\Community\VC\Tools\MSVC\14.28.29333\include\algorithm
; File D:\Metin2 Server Files\mainline\SRC_2014\Metin2Client\EffectLib\Type.h
; File C:\Program Files (x86)\Microsoft Visual Studio\2019\Community\VC\Tools\MSVC\14.28.29333\include\algorithm
; File C:\Program Files (x86)\Microsoft Visual Studio\2019\Community\VC\Tools\MSVC\14.28.29333\include\xutility
; File C:\Program Files (x86)\Microsoft Visual Studio\2019\Community\VC\Tools\MSVC\14.28.29333\include\algorithm
; File D:\Metin2 Server Files\mainline\SRC_2014\Metin2Client\EffectLib\Type.h
; File C:\Program Files (x86)\Microsoft Visual Studio\2019\Community\VC\Tools\MSVC\14.28.29333\include\algorithm
; File C:\Program Files (x86)\Microsoft Visual Studio\2019\Community\VC\Tools\MSVC\14.28.29333\include\xutility
; File C:\Program Files (x86)\Microsoft Visual Studio\2019\Community\VC\Tools\MSVC\14.28.29333\include\algorithm
; File C:\Program Files (x86)\Microsoft Visual Studio\2019\Community\VC\Tools\MSVC\14.28.29333\include\xutility
; File C:\Program Files (x86)\Microsoft Visual Studio\2019\Community\VC\Tools\MSVC\14.28.29333\include\algorithm
; File C:\Program Files (x86)\Microsoft Visual Studio\2019\Community\VC\Tools\MSVC\14.28.29333\include\xutility
; File C:\Program Files (x86)\Microsoft Visual Studio\2019\Community\VC\Tools\MSVC\14.28.29333\include\vector
; File C:\Program Files (x86)\Microsoft Visual Studio\2019\Community\VC\Tools\MSVC\14.28.29333\include\xutility
; File C:\Program Files (x86)\Microsoft Visual Studio\2019\Community\VC\Tools\MSVC\14.28.29333\include\vector
; File C:\Program Files (x86)\Microsoft Visual Studio\2019\Community\VC\Tools\MSVC\14.28.29333\include\algorithm
; File C:\Program Files (x86)\Microsoft Visual Studio\2019\Community\VC\Tools\MSVC\14.28.29333\include\type_traits
; File C:\Program Files (x86)\Microsoft Visual Studio\2019\Community\VC\Tools\MSVC\14.28.29333\include\utility
; File C:\Program Files (x86)\Microsoft Visual Studio\2019\Community\VC\Tools\MSVC\14.28.29333\include\type_traits
; File C:\Program Files (x86)\Microsoft Visual Studio\2019\Community\VC\Tools\MSVC\14.28.29333\include\utility
; File C:\Program Files (x86)\Microsoft Visual Studio\2019\Community\VC\Tools\MSVC\14.28.29333\include\algorithm
;	COMDAT ??$equal_range@V?$_Vector_iterator@V?$_Vector_val@U?$_Simple_types@V?$CTimeEvent@M@@@std@@@std@@@std@@MU?$less@X@2@@std@@YA?AU?$pair@V?$_Vector_iterator@V?$_Vector_val@U?$_Simple_types@V?$CTimeEvent@M@@@std@@@std@@@std@@V12@@0@V?$_Vector_iterator@V?$_Vector_val@U?$_Simple_types@V?$CTimeEvent@M@@@std@@@std@@@0@0ABMU?$less@X@0@@Z
_TEXT	SEGMENT
$T1 = -104						; size = 4
$T2 = -100						; size = 4
__It$ = -96						; size = 4
__UFirst2$3 = -92					; size = 4
__It$ = -88						; size = 4
__ULast2$4 = -84					; size = 4
$T5 = -80						; size = 1
$T6 = -76						; size = 1
__It$ = -72						; size = 4
__It$ = -68						; size = 4
__ULast$ = -64						; size = 4
$T7 = -60						; size = 4
$T8 = -56						; size = 4
__Ptr$9 = -52						; size = 4
$T10 = -48						; size = 4
$T11 = -44						; size = 4
__Ptr$12 = -40						; size = 4
tv182 = -36						; size = 4
tv180 = -32						; size = 4
__First$ = -28						; size = 4
__Count2$13 = -24					; size = 4
__First$ = -20						; size = 4
__First$ = -16						; size = 4
__UMid$14 = -12						; size = 4
__Count$ = -8						; size = 4
__UFirst$ = -4						; size = 4
___$ReturnUdt$ = 8					; size = 4
__First$ = 12						; size = 4
__Last$ = 16						; size = 4
__Val$ = 20						; size = 4
__Pred$ = 24						; size = 1
??$equal_range@V?$_Vector_iterator@V?$_Vector_val@U?$_Simple_types@V?$CTimeEvent@M@@@std@@@std@@@std@@MU?$less@X@2@@std@@YA?AU?$pair@V?$_Vector_iterator@V?$_Vector_val@U?$_Simple_types@V?$CTimeEvent@M@@@std@@@std@@@std@@V12@@0@V?$_Vector_iterator@V?$_Vector_val@U?$_Simple_types@V?$CTimeEvent@M@@@std@@@std@@@0@0ABMU?$less@X@0@@Z PROC ; std::equal_range<std::_Vector_iterator<std::_Vector_val<std::_Simple_types<CTimeEvent<float> > > >,float,std::less<void> >, COMDAT

; 6812 : _NODISCARD _CONSTEXPR20 pair<_FwdIt, _FwdIt> equal_range(_FwdIt _First, _FwdIt _Last, const _Ty& _Val, _Pr _Pred) {

  00000	55		 push	 ebp
  00001	8b ec		 mov	 ebp, esp
  00003	83 ec 68	 sub	 esp, 104		; 00000068H
; File C:\Program Files (x86)\Microsoft Visual Studio\2019\Community\VC\Tools\MSVC\14.28.29333\include\vector

; 310  :         return _Unfancy(this->_Ptr);

  00006	8b 45 0c	 mov	 eax, DWORD PTR __First$[ebp]
  00009	89 45 d8	 mov	 DWORD PTR __Ptr$12[ebp], eax
; File C:\Program Files (x86)\Microsoft Visual Studio\2019\Community\VC\Tools\MSVC\14.28.29333\include\xstddef

; 289  :     return _Ptr;

  0000c	8b 45 d8	 mov	 eax, DWORD PTR __Ptr$12[ebp]
  0000f	89 45 d4	 mov	 DWORD PTR $T11[ebp], eax
; File C:\Program Files (x86)\Microsoft Visual Studio\2019\Community\VC\Tools\MSVC\14.28.29333\include\vector

; 310  :         return _Unfancy(this->_Ptr);

  00012	8b 45 d4	 mov	 eax, DWORD PTR $T11[ebp]
  00015	89 45 d0	 mov	 DWORD PTR $T10[ebp], eax
; File C:\Program Files (x86)\Microsoft Visual Studio\2019\Community\VC\Tools\MSVC\14.28.29333\include\algorithm

; 6815 :     auto _UFirst      = _Get_unwrapped(_First);

  00018	8b 45 d0	 mov	 eax, DWORD PTR $T10[ebp]
  0001b	89 45 fc	 mov	 DWORD PTR __UFirst$[ebp], eax
; File C:\Program Files (x86)\Microsoft Visual Studio\2019\Community\VC\Tools\MSVC\14.28.29333\include\vector

; 310  :         return _Unfancy(this->_Ptr);

  0001e	8b 45 10	 mov	 eax, DWORD PTR __Last$[ebp]
  00021	89 45 cc	 mov	 DWORD PTR __Ptr$9[ebp], eax
; File C:\Program Files (x86)\Microsoft Visual Studio\2019\Community\VC\Tools\MSVC\14.28.29333\include\xstddef

; 289  :     return _Ptr;

  00024	8b 45 cc	 mov	 eax, DWORD PTR __Ptr$9[ebp]
  00027	89 45 c8	 mov	 DWORD PTR $T8[ebp], eax
; File C:\Program Files (x86)\Microsoft Visual Studio\2019\Community\VC\Tools\MSVC\14.28.29333\include\vector

; 310  :         return _Unfancy(this->_Ptr);

  0002a	8b 45 c8	 mov	 eax, DWORD PTR $T8[ebp]
  0002d	89 45 c4	 mov	 DWORD PTR $T7[ebp], eax
; File C:\Program Files (x86)\Microsoft Visual Studio\2019\Community\VC\Tools\MSVC\14.28.29333\include\algorithm

; 6816 :     const auto _ULast = _Get_unwrapped(_Last);

  00030	8b 45 c4	 mov	 eax, DWORD PTR $T7[ebp]
  00033	89 45 c0	 mov	 DWORD PTR __ULast$[ebp], eax
; File C:\Program Files (x86)\Microsoft Visual Studio\2019\Community\VC\Tools\MSVC\14.28.29333\include\xutility

; 1794 :         return _Last - _First; // assume the iterator will do debug checking

  00036	8b 45 c0	 mov	 eax, DWORD PTR __ULast$[ebp]
  00039	2b 45 fc	 sub	 eax, DWORD PTR __UFirst$[ebp]
  0003c	c1 f8 03	 sar	 eax, 3
; File C:\Program Files (x86)\Microsoft Visual Studio\2019\Community\VC\Tools\MSVC\14.28.29333\include\algorithm

; 6819 :     _Diff _Count = _STD distance(_UFirst, _ULast);

  0003f	89 45 f8	 mov	 DWORD PTR __Count$[ebp], eax
$LN2@equal_rang:

; 6820 : 
; 6821 :     for (;;) { // divide and conquer, check midpoint
; 6822 :         if (_Count <= 0) {

  00042	83 7d f8 00	 cmp	 DWORD PTR __Count$[ebp], 0
  00046	7f 29		 jg	 SHORT $LN5@equal_rang
; File C:\Program Files (x86)\Microsoft Visual Studio\2019\Community\VC\Tools\MSVC\14.28.29333\include\xutility

; 1490 :         _It._Seek_to(static_cast<_UIter&&>(_UIt));

  00048	8b 45 fc	 mov	 eax, DWORD PTR __UFirst$[ebp]
  0004b	89 45 bc	 mov	 DWORD PTR __It$[ebp], eax
; File C:\Program Files (x86)\Microsoft Visual Studio\2019\Community\VC\Tools\MSVC\14.28.29333\include\vector

; 195  :         _Ptr = _Refancy<_Tptr>(const_cast<value_type*>(_It));

  0004e	ff 75 bc	 push	 DWORD PTR __It$[ebp]
  00051	e8 00 00 00 00	 call	 ??$_Refancy@PAV?$CTimeEvent@M@@$0A@@std@@YAPAV?$CTimeEvent@M@@PAV1@@Z ; std::_Refancy<CTimeEvent<float> *,0>
  00056	59		 pop	 ecx
  00057	89 45 10	 mov	 DWORD PTR __Last$[ebp], eax
; File C:\Program Files (x86)\Microsoft Visual Studio\2019\Community\VC\Tools\MSVC\14.28.29333\include\xutility

; 1490 :         _It._Seek_to(static_cast<_UIter&&>(_UIt));

  0005a	8b 45 fc	 mov	 eax, DWORD PTR __UFirst$[ebp]
  0005d	89 45 b8	 mov	 DWORD PTR __It$[ebp], eax
; File C:\Program Files (x86)\Microsoft Visual Studio\2019\Community\VC\Tools\MSVC\14.28.29333\include\vector

; 195  :         _Ptr = _Refancy<_Tptr>(const_cast<value_type*>(_It));

  00060	ff 75 b8	 push	 DWORD PTR __It$[ebp]
  00063	e8 00 00 00 00	 call	 ??$_Refancy@PAV?$CTimeEvent@M@@$0A@@std@@YAPAV?$CTimeEvent@M@@PAV1@@Z ; std::_Refancy<CTimeEvent<float> *,0>
  00068	59		 pop	 ecx
  00069	89 45 0c	 mov	 DWORD PTR __First$[ebp], eax
; File C:\Program Files (x86)\Microsoft Visual Studio\2019\Community\VC\Tools\MSVC\14.28.29333\include\algorithm

; 6825 :             break;

  0006c	e9 19 01 00 00	 jmp	 $LN3@equal_rang
$LN5@equal_rang:

; 6826 :         }
; 6827 : 
; 6828 :         _Diff _Count2    = _Count / 2;

  00071	8b 45 f8	 mov	 eax, DWORD PTR __Count$[ebp]
  00074	99		 cdq
  00075	2b c2		 sub	 eax, edx
  00077	d1 f8		 sar	 eax, 1
  00079	89 45 e8	 mov	 DWORD PTR __Count2$13[ebp], eax

; 6829 :         const auto _UMid = _STD next(_UFirst, _Count2);

  0007c	8b 45 fc	 mov	 eax, DWORD PTR __UFirst$[ebp]
  0007f	89 45 f0	 mov	 DWORD PTR __First$[ebp], eax
; File C:\Program Files (x86)\Microsoft Visual Studio\2019\Community\VC\Tools\MSVC\14.28.29333\include\xutility

; 1714 :         _Where += _Off;

  00082	8b 45 e8	 mov	 eax, DWORD PTR __Count2$13[ebp]
  00085	8b 4d f0	 mov	 ecx, DWORD PTR __First$[ebp]
  00088	8d 04 c1	 lea	 eax, DWORD PTR [ecx+eax*8]
  0008b	89 45 f0	 mov	 DWORD PTR __First$[ebp], eax
; File C:\Program Files (x86)\Microsoft Visual Studio\2019\Community\VC\Tools\MSVC\14.28.29333\include\algorithm

; 6829 :         const auto _UMid = _STD next(_UFirst, _Count2);

  0008e	8b 45 f0	 mov	 eax, DWORD PTR __First$[ebp]
  00091	89 45 f4	 mov	 DWORD PTR __UMid$14[ebp], eax
; File D:\Metin2 Server Files\mainline\SRC_2014\Metin2Client\EffectLib\Type.h

; 193  : 	return lhs.m_fTime < rhs;

  00094	8b 45 14	 mov	 eax, DWORD PTR __Val$[ebp]
  00097	8b 4d f4	 mov	 ecx, DWORD PTR __UMid$14[ebp]
  0009a	f3 0f 10 00	 movss	 xmm0, DWORD PTR [eax]
  0009e	0f 2f 01	 comiss	 xmm0, DWORD PTR [ecx]
  000a1	76 09		 jbe	 SHORT $LN49@equal_rang
  000a3	c7 45 e0 01 00
	00 00		 mov	 DWORD PTR tv180[ebp], 1
  000aa	eb 04		 jmp	 SHORT $LN50@equal_rang
$LN49@equal_rang:
  000ac	83 65 e0 00	 and	 DWORD PTR tv180[ebp], 0
$LN50@equal_rang:
; File C:\Program Files (x86)\Microsoft Visual Studio\2019\Community\VC\Tools\MSVC\14.28.29333\include\algorithm

; 6830 :         if (_DEBUG_LT_PRED(_Pred, *_UMid, _Val)) { // range begins above _UMid, loop

  000b0	0f b6 45 e0	 movzx	 eax, BYTE PTR tv180[ebp]
  000b4	85 c0		 test	 eax, eax
  000b6	74 26		 je	 SHORT $LN6@equal_rang

; 6831 :             _UFirst = _Next_iter(_UMid);

  000b8	8b 45 f4	 mov	 eax, DWORD PTR __UMid$14[ebp]
  000bb	89 45 ec	 mov	 DWORD PTR __First$[ebp], eax
; File C:\Program Files (x86)\Microsoft Visual Studio\2019\Community\VC\Tools\MSVC\14.28.29333\include\xutility

; 1837 :     return ++_First;

  000be	8b 45 ec	 mov	 eax, DWORD PTR __First$[ebp]
  000c1	83 c0 08	 add	 eax, 8
  000c4	89 45 ec	 mov	 DWORD PTR __First$[ebp], eax
; File C:\Program Files (x86)\Microsoft Visual Studio\2019\Community\VC\Tools\MSVC\14.28.29333\include\algorithm

; 6831 :             _UFirst = _Next_iter(_UMid);

  000c7	8b 45 ec	 mov	 eax, DWORD PTR __First$[ebp]
  000ca	89 45 fc	 mov	 DWORD PTR __UFirst$[ebp], eax

; 6832 :             _Count -= _Count2 + 1;

  000cd	8b 45 e8	 mov	 eax, DWORD PTR __Count2$13[ebp]
  000d0	40		 inc	 eax
  000d1	8b 4d f8	 mov	 ecx, DWORD PTR __Count$[ebp]
  000d4	2b c8		 sub	 ecx, eax
  000d6	89 4d f8	 mov	 DWORD PTR __Count$[ebp], ecx

; 6833 :         } else if (_Pred(_Val, *_UMid)) {

  000d9	e9 a7 00 00 00	 jmp	 $LN9@equal_rang
$LN6@equal_rang:
; File D:\Metin2 Server Files\mainline\SRC_2014\Metin2Client\EffectLib\Type.h

; 199  : 	return lhs < rhs.m_fTime;

  000de	8b 45 f4	 mov	 eax, DWORD PTR __UMid$14[ebp]
  000e1	8b 4d 14	 mov	 ecx, DWORD PTR __Val$[ebp]
  000e4	f3 0f 10 00	 movss	 xmm0, DWORD PTR [eax]
  000e8	0f 2f 01	 comiss	 xmm0, DWORD PTR [ecx]
  000eb	76 09		 jbe	 SHORT $LN57@equal_rang
  000ed	c7 45 dc 01 00
	00 00		 mov	 DWORD PTR tv182[ebp], 1
  000f4	eb 04		 jmp	 SHORT $LN58@equal_rang
$LN57@equal_rang:
  000f6	83 65 dc 00	 and	 DWORD PTR tv182[ebp], 0
$LN58@equal_rang:
; File C:\Program Files (x86)\Microsoft Visual Studio\2019\Community\VC\Tools\MSVC\14.28.29333\include\algorithm

; 6833 :         } else if (_Pred(_Val, *_UMid)) {

  000fa	0f b6 45 dc	 movzx	 eax, BYTE PTR tv182[ebp]
  000fe	85 c0		 test	 eax, eax
  00100	74 08		 je	 SHORT $LN8@equal_rang

; 6834 :             _Count = _Count2; // range in first half, loop

  00102	8b 45 e8	 mov	 eax, DWORD PTR __Count2$13[ebp]
  00105	89 45 f8	 mov	 DWORD PTR __Count$[ebp], eax

; 6835 :         } else { // range straddles _UMid, find each end and return

  00108	eb 7b		 jmp	 SHORT $LN9@equal_rang
$LN8@equal_rang:

; 6836 :             auto _UFirst2 = _STD lower_bound(_UFirst, _UMid, _Val, _Pass_fn(_Pred));

  0010a	8a 45 18	 mov	 al, BYTE PTR __Pred$[ebp]
  0010d	88 45 b4	 mov	 BYTE PTR $T6[ebp], al
  00110	ff 75 b4	 push	 DWORD PTR $T6[ebp]
  00113	ff 75 14	 push	 DWORD PTR __Val$[ebp]
  00116	ff 75 f4	 push	 DWORD PTR __UMid$14[ebp]
  00119	ff 75 fc	 push	 DWORD PTR __UFirst$[ebp]
  0011c	e8 00 00 00 00	 call	 ??$lower_bound@PAV?$CTimeEvent@M@@MU?$less@X@std@@@std@@YAPAV?$CTimeEvent@M@@PAV1@QAV1@ABMU?$less@X@0@@Z ; std::lower_bound<CTimeEvent<float> *,float,std::less<void> >
  00121	83 c4 10	 add	 esp, 16			; 00000010H
  00124	89 45 a4	 mov	 DWORD PTR __UFirst2$3[ebp], eax
; File C:\Program Files (x86)\Microsoft Visual Studio\2019\Community\VC\Tools\MSVC\14.28.29333\include\xutility

; 1714 :         _Where += _Off;

  00127	8b 45 f8	 mov	 eax, DWORD PTR __Count$[ebp]
  0012a	8b 4d fc	 mov	 ecx, DWORD PTR __UFirst$[ebp]
  0012d	8d 04 c1	 lea	 eax, DWORD PTR [ecx+eax*8]
  00130	89 45 fc	 mov	 DWORD PTR __UFirst$[ebp], eax
; File C:\Program Files (x86)\Microsoft Visual Studio\2019\Community\VC\Tools\MSVC\14.28.29333\include\algorithm

; 6838 :             auto _ULast2 = _STD upper_bound(_Next_iter(_UMid), _UFirst, _Val, _Pass_fn(_Pred));

  00133	8a 45 18	 mov	 al, BYTE PTR __Pred$[ebp]
  00136	88 45 b0	 mov	 BYTE PTR $T5[ebp], al
  00139	8b 45 f4	 mov	 eax, DWORD PTR __UMid$14[ebp]
  0013c	89 45 e4	 mov	 DWORD PTR __First$[ebp], eax
; File C:\Program Files (x86)\Microsoft Visual Studio\2019\Community\VC\Tools\MSVC\14.28.29333\include\xutility

; 1837 :     return ++_First;

  0013f	8b 45 e4	 mov	 eax, DWORD PTR __First$[ebp]
  00142	83 c0 08	 add	 eax, 8
  00145	89 45 e4	 mov	 DWORD PTR __First$[ebp], eax
; File C:\Program Files (x86)\Microsoft Visual Studio\2019\Community\VC\Tools\MSVC\14.28.29333\include\algorithm

; 6838 :             auto _ULast2 = _STD upper_bound(_Next_iter(_UMid), _UFirst, _Val, _Pass_fn(_Pred));

  00148	ff 75 b0	 push	 DWORD PTR $T5[ebp]
  0014b	ff 75 14	 push	 DWORD PTR __Val$[ebp]
  0014e	ff 75 fc	 push	 DWORD PTR __UFirst$[ebp]
  00151	ff 75 e4	 push	 DWORD PTR __First$[ebp]
  00154	e8 00 00 00 00	 call	 ??$upper_bound@PAV?$CTimeEvent@M@@MU?$less@X@std@@@std@@YAPAV?$CTimeEvent@M@@PAV1@0ABMU?$less@X@0@@Z ; std::upper_bound<CTimeEvent<float> *,float,std::less<void> >
  00159	83 c4 10	 add	 esp, 16			; 00000010H
  0015c	89 45 ac	 mov	 DWORD PTR __ULast2$4[ebp], eax
; File C:\Program Files (x86)\Microsoft Visual Studio\2019\Community\VC\Tools\MSVC\14.28.29333\include\xutility

; 1490 :         _It._Seek_to(static_cast<_UIter&&>(_UIt));

  0015f	8b 45 ac	 mov	 eax, DWORD PTR __ULast2$4[ebp]
  00162	89 45 a8	 mov	 DWORD PTR __It$[ebp], eax
; File C:\Program Files (x86)\Microsoft Visual Studio\2019\Community\VC\Tools\MSVC\14.28.29333\include\vector

; 195  :         _Ptr = _Refancy<_Tptr>(const_cast<value_type*>(_It));

  00165	ff 75 a8	 push	 DWORD PTR __It$[ebp]
  00168	e8 00 00 00 00	 call	 ??$_Refancy@PAV?$CTimeEvent@M@@$0A@@std@@YAPAV?$CTimeEvent@M@@PAV1@@Z ; std::_Refancy<CTimeEvent<float> *,0>
  0016d	59		 pop	 ecx
  0016e	89 45 10	 mov	 DWORD PTR __Last$[ebp], eax
; File C:\Program Files (x86)\Microsoft Visual Studio\2019\Community\VC\Tools\MSVC\14.28.29333\include\xutility

; 1490 :         _It._Seek_to(static_cast<_UIter&&>(_UIt));

  00171	8b 45 a4	 mov	 eax, DWORD PTR __UFirst2$3[ebp]
  00174	89 45 a0	 mov	 DWORD PTR __It$[ebp], eax
; File C:\Program Files (x86)\Microsoft Visual Studio\2019\Community\VC\Tools\MSVC\14.28.29333\include\vector

; 195  :         _Ptr = _Refancy<_Tptr>(const_cast<value_type*>(_It));

  00177	ff 75 a0	 push	 DWORD PTR __It$[ebp]
  0017a	e8 00 00 00 00	 call	 ??$_Refancy@PAV?$CTimeEvent@M@@$0A@@std@@YAPAV?$CTimeEvent@M@@PAV1@@Z ; std::_Refancy<CTimeEvent<float> *,0>
  0017f	59		 pop	 ecx
  00180	89 45 0c	 mov	 DWORD PTR __First$[ebp], eax
; File C:\Program Files (x86)\Microsoft Visual Studio\2019\Community\VC\Tools\MSVC\14.28.29333\include\algorithm

; 6841 :             break;

  00183	eb 05		 jmp	 SHORT $LN3@equal_rang
$LN9@equal_rang:

; 6842 :         }
; 6843 :     }

  00185	e9 b8 fe ff ff	 jmp	 $LN2@equal_rang
$LN3@equal_rang:
; File C:\Program Files (x86)\Microsoft Visual Studio\2019\Community\VC\Tools\MSVC\14.28.29333\include\type_traits

; 1443 :     return static_cast<_Ty&&>(_Arg);

  0018a	8d 45 0c	 lea	 eax, DWORD PTR __First$[ebp]
  0018d	89 45 9c	 mov	 DWORD PTR $T2[ebp], eax
; File C:\Program Files (x86)\Microsoft Visual Studio\2019\Community\VC\Tools\MSVC\14.28.29333\include\utility

; 190  :         : first(_STD forward<_Other1>(_Val1)), second(_STD forward<_Other2>(_Val2)) {}

  00190	8b 45 9c	 mov	 eax, DWORD PTR $T2[ebp]
  00193	8b 00		 mov	 eax, DWORD PTR [eax]
  00195	8b 4d 08	 mov	 ecx, DWORD PTR ___$ReturnUdt$[ebp]
  00198	89 01		 mov	 DWORD PTR [ecx], eax
; File C:\Program Files (x86)\Microsoft Visual Studio\2019\Community\VC\Tools\MSVC\14.28.29333\include\type_traits

; 1443 :     return static_cast<_Ty&&>(_Arg);

  0019a	8d 45 10	 lea	 eax, DWORD PTR __Last$[ebp]
  0019d	89 45 98	 mov	 DWORD PTR $T1[ebp], eax
; File C:\Program Files (x86)\Microsoft Visual Studio\2019\Community\VC\Tools\MSVC\14.28.29333\include\utility

; 190  :         : first(_STD forward<_Other1>(_Val1)), second(_STD forward<_Other2>(_Val2)) {}

  001a0	8b 45 98	 mov	 eax, DWORD PTR $T1[ebp]
  001a3	8b 00		 mov	 eax, DWORD PTR [eax]
  001a5	8b 4d 08	 mov	 ecx, DWORD PTR ___$ReturnUdt$[ebp]
  001a8	89 41 04	 mov	 DWORD PTR [ecx+4], eax
; File C:\Program Files (x86)\Microsoft Visual Studio\2019\Community\VC\Tools\MSVC\14.28.29333\include\algorithm

; 6845 :     return {_First, _Last};

  001ab	8b 45 08	 mov	 eax, DWORD PTR ___$ReturnUdt$[ebp]

; 6846 : }

  001ae	c9		 leave
  001af	c3		 ret	 0
??$equal_range@V?$_Vector_iterator@V?$_Vector_val@U?$_Simple_types@V?$CTimeEvent@M@@@std@@@std@@@std@@MU?$less@X@2@@std@@YA?AU?$pair@V?$_Vector_iterator@V?$_Vector_val@U?$_Simple_types@V?$CTimeEvent@M@@@std@@@std@@@std@@V12@@0@V?$_Vector_iterator@V?$_Vector_val@U?$_Simple_types@V?$CTimeEvent@M@@@std@@@std@@@0@0ABMU?$less@X@0@@Z ENDP ; std::equal_range<std::_Vector_iterator<std::_Vector_val<std::_Simple_types<CTimeEvent<float> > > >,float,std::less<void> >
_TEXT	ENDS
; Function compile flags: /Odspy
; File C:\Program Files (x86)\Microsoft Visual Studio\2019\Community\VC\Tools\MSVC\14.28.29333\include\xmemory
; File C:\Program Files (x86)\Microsoft Visual Studio\2019\Community\VC\Tools\MSVC\14.28.29333\include\xstddef
; File C:\Program Files (x86)\Microsoft Visual Studio\2019\Community\VC\Tools\MSVC\14.28.29333\include\xmemory
;	COMDAT ??$_Uninitialized_move@PAPAVCLightData@@V?$allocator@PAVCLightData@@@std@@@std@@YAPAPAVCLightData@@QAPAV1@0PAPAV1@AAV?$allocator@PAVCLightData@@@0@@Z
_TEXT	SEGMENT
$T1 = -12						; size = 4
__UFirst$ = -8						; size = 4
__ULast$ = -4						; size = 4
__First$ = 8						; size = 4
__Last$ = 12						; size = 4
__Dest$ = 16						; size = 4
__Al$ = 20						; size = 4
??$_Uninitialized_move@PAPAVCLightData@@V?$allocator@PAVCLightData@@@std@@@std@@YAPAPAVCLightData@@QAPAV1@0PAPAV1@AAV?$allocator@PAVCLightData@@@0@@Z PROC ; std::_Uninitialized_move<CLightData * *,std::allocator<CLightData *> >, COMDAT

; 1685 :     const _InIt _First, const _InIt _Last, _Alloc_ptr_t<_Alloc> _Dest, _Alloc& _Al) {

  00000	55		 push	 ebp
  00001	8b ec		 mov	 ebp, esp
  00003	83 ec 0c	 sub	 esp, 12			; 0000000cH

; 1686 :     // move [_First, _Last) to raw _Dest, using _Al
; 1687 :     // note: only called internally from elsewhere in the STL
; 1688 :     using _Ptrval     = typename _Alloc::value_type*;
; 1689 :     auto _UFirst      = _Get_unwrapped(_First);

  00006	8b 45 08	 mov	 eax, DWORD PTR __First$[ebp]
  00009	89 45 f8	 mov	 DWORD PTR __UFirst$[ebp], eax

; 1690 :     const auto _ULast = _Get_unwrapped(_Last);

  0000c	8b 45 0c	 mov	 eax, DWORD PTR __Last$[ebp]
  0000f	89 45 fc	 mov	 DWORD PTR __ULast$[ebp], eax
; File C:\Program Files (x86)\Microsoft Visual Studio\2019\Community\VC\Tools\MSVC\14.28.29333\include\xstddef

; 289  :     return _Ptr;

  00012	8b 45 10	 mov	 eax, DWORD PTR __Dest$[ebp]
  00015	89 45 f4	 mov	 DWORD PTR $T1[ebp], eax
; File C:\Program Files (x86)\Microsoft Visual Studio\2019\Community\VC\Tools\MSVC\14.28.29333\include\xmemory

; 1693 :         _Copy_memmove(_UFirst, _ULast, _Unfancy(_Dest));

  00018	ff 75 f4	 push	 DWORD PTR $T1[ebp]
  0001b	ff 75 fc	 push	 DWORD PTR __ULast$[ebp]
  0001e	ff 75 f8	 push	 DWORD PTR __UFirst$[ebp]
  00021	e8 00 00 00 00	 call	 ??$_Copy_memmove@PAPAVCLightData@@PAPAV1@@std@@YAPAPAVCLightData@@PAPAV1@00@Z ; std::_Copy_memmove<CLightData * *,CLightData * *>
  00026	83 c4 0c	 add	 esp, 12			; 0000000cH

; 1694 :         return _Dest + (_ULast - _UFirst);

  00029	8b 45 fc	 mov	 eax, DWORD PTR __ULast$[ebp]
  0002c	2b 45 f8	 sub	 eax, DWORD PTR __UFirst$[ebp]
  0002f	c1 f8 02	 sar	 eax, 2
  00032	8b 4d 10	 mov	 ecx, DWORD PTR __Dest$[ebp]
  00035	8d 04 81	 lea	 eax, DWORD PTR [ecx+eax*4]

; 1695 :     } else {
; 1696 :         _Uninitialized_backout_al<_Alloc> _Backout{_Dest, _Al};
; 1697 :         for (; _UFirst != _ULast; ++_UFirst) {
; 1698 :             _Backout._Emplace_back(_STD move(*_UFirst));
; 1699 :         }
; 1700 : 
; 1701 :         return _Backout._Release();
; 1702 :     }
; 1703 : }

  00038	c9		 leave
  00039	c3		 ret	 0
??$_Uninitialized_move@PAPAVCLightData@@V?$allocator@PAVCLightData@@@std@@@std@@YAPAPAVCLightData@@QAPAV1@0PAPAV1@AAV?$allocator@PAVCLightData@@@0@@Z ENDP ; std::_Uninitialized_move<CLightData * *,std::allocator<CLightData *> >
_TEXT	ENDS
; Function compile flags: /Odspy
; File C:\Program Files (x86)\Microsoft Visual Studio\2019\Community\VC\Tools\MSVC\14.28.29333\include\xmemory
;	COMDAT ??$_Const_cast@$$CBV?$CTimeEvent@M@@@std@@YAPAV?$CTimeEvent@M@@PBV1@@Z
_TEXT	SEGMENT
__Ptr$ = 8						; size = 4
??$_Const_cast@$$CBV?$CTimeEvent@M@@@std@@YAPAV?$CTimeEvent@M@@PBV1@@Z PROC ; std::_Const_cast<CTimeEvent<float> const >, COMDAT

; 292  : auto _Const_cast(_Ty* _Ptr) noexcept {

  00000	55		 push	 ebp
  00001	8b ec		 mov	 ebp, esp

; 293  :     return const_cast<remove_const_t<_Ty>*>(_Ptr);

  00003	8b 45 08	 mov	 eax, DWORD PTR __Ptr$[ebp]

; 294  : }

  00006	5d		 pop	 ebp
  00007	c3		 ret	 0
??$_Const_cast@$$CBV?$CTimeEvent@M@@@std@@YAPAV?$CTimeEvent@M@@PBV1@@Z ENDP ; std::_Const_cast<CTimeEvent<float> const >
_TEXT	ENDS
; Function compile flags: /Odspy
; File C:\Program Files (x86)\Microsoft Visual Studio\2019\Community\VC\Tools\MSVC\14.28.29333\include\vector
;	COMDAT ??0?$_Vector_const_iterator@V?$_Vector_val@U?$_Simple_types@V?$CTimeEvent@M@@@std@@@std@@@std@@QAE@PAV?$CTimeEvent@M@@PBU_Container_base0@1@@Z
_TEXT	SEGMENT
_this$ = -4						; size = 4
__Parg$ = 8						; size = 4
__Pvector$ = 12						; size = 4
??0?$_Vector_const_iterator@V?$_Vector_val@U?$_Simple_types@V?$CTimeEvent@M@@@std@@@std@@@std@@QAE@PAV?$CTimeEvent@M@@PBU_Container_base0@1@@Z PROC ; std::_Vector_const_iterator<std::_Vector_val<std::_Simple_types<CTimeEvent<float> > > >::_Vector_const_iterator<std::_Vector_val<std::_Simple_types<CTimeEvent<float> > > >, COMDAT
; _this$ = ecx

; 42   :     _Vector_const_iterator(_Tptr _Parg, const _Container_base* _Pvector) noexcept : _Ptr(_Parg) {

  00000	55		 push	 ebp
  00001	8b ec		 mov	 ebp, esp
  00003	51		 push	 ecx
  00004	89 4d fc	 mov	 DWORD PTR _this$[ebp], ecx
  00007	8b 45 fc	 mov	 eax, DWORD PTR _this$[ebp]
  0000a	8b 4d 08	 mov	 ecx, DWORD PTR __Parg$[ebp]
  0000d	89 08		 mov	 DWORD PTR [eax], ecx

; 43   :         this->_Adopt(_Pvector);
; 44   :     }

  0000f	8b 45 fc	 mov	 eax, DWORD PTR _this$[ebp]
  00012	c9		 leave
  00013	c2 08 00	 ret	 8
??0?$_Vector_const_iterator@V?$_Vector_val@U?$_Simple_types@V?$CTimeEvent@M@@@std@@@std@@@std@@QAE@PAV?$CTimeEvent@M@@PBU_Container_base0@1@@Z ENDP ; std::_Vector_const_iterator<std::_Vector_val<std::_Simple_types<CTimeEvent<float> > > >::_Vector_const_iterator<std::_Vector_val<std::_Simple_types<CTimeEvent<float> > > >
_TEXT	ENDS
; Function compile flags: /Odspy
; File C:\Program Files (x86)\Microsoft Visual Studio\2019\Community\VC\Tools\MSVC\14.28.29333\include\xmemory
;	COMDAT ??$_Destroy_range@V?$allocator@PAVCLightData@@@std@@@std@@YAXPAPAVCLightData@@QAPAV1@AAV?$allocator@PAVCLightData@@@0@@Z
_TEXT	SEGMENT
__First$ = 8						; size = 4
__Last$ = 12						; size = 4
__Al$ = 16						; size = 4
??$_Destroy_range@V?$allocator@PAVCLightData@@@std@@@std@@YAXPAPAVCLightData@@QAPAV1@AAV?$allocator@PAVCLightData@@@0@@Z PROC ; std::_Destroy_range<std::allocator<CLightData *> >, COMDAT

; 962  :     _Alloc_ptr_t<_Alloc> _First, const _Alloc_ptr_t<_Alloc> _Last, _Alloc& _Al) noexcept {

  00000	55		 push	 ebp
  00001	8b ec		 mov	 ebp, esp

; 963  :     // note that this is an optimization for debug mode codegen; in release mode the BE removes all of this
; 964  :     using _Ty = typename _Alloc::value_type;
; 965  :     if _CONSTEXPR_IF (!conjunction_v<is_trivially_destructible<_Ty>, _Uses_default_destroy<_Alloc, _Ty*>>) {
; 966  :         for (; _First != _Last; ++_First) {
; 967  :             allocator_traits<_Alloc>::destroy(_Al, _Unfancy(_First));
; 968  :         }
; 969  :     }
; 970  : }

  00003	5d		 pop	 ebp
  00004	c3		 ret	 0
??$_Destroy_range@V?$allocator@PAVCLightData@@@std@@@std@@YAXPAPAVCLightData@@QAPAV1@AAV?$allocator@PAVCLightData@@@0@@Z ENDP ; std::_Destroy_range<std::allocator<CLightData *> >
_TEXT	ENDS
; Function compile flags: /Odspy
; File C:\Program Files (x86)\Microsoft Visual Studio\2019\Community\VC\Tools\MSVC\14.28.29333\include\xmemory
; File C:\Program Files (x86)\Microsoft Visual Studio\2019\Community\VC\Tools\MSVC\14.28.29333\include\xstddef
; File C:\Program Files (x86)\Microsoft Visual Studio\2019\Community\VC\Tools\MSVC\14.28.29333\include\xmemory
;	COMDAT ??$_Destroy_range@V?$allocator@V?$CTimeEvent@M@@@std@@@std@@YAXPAV?$CTimeEvent@M@@QAV1@AAV?$allocator@V?$CTimeEvent@M@@@0@@Z
_TEXT	SEGMENT
$T1 = -4						; size = 4
__First$ = 8						; size = 4
__Last$ = 12						; size = 4
__Al$ = 16						; size = 4
??$_Destroy_range@V?$allocator@V?$CTimeEvent@M@@@std@@@std@@YAXPAV?$CTimeEvent@M@@QAV1@AAV?$allocator@V?$CTimeEvent@M@@@0@@Z PROC ; std::_Destroy_range<std::allocator<CTimeEvent<float> > >, COMDAT

; 962  :     _Alloc_ptr_t<_Alloc> _First, const _Alloc_ptr_t<_Alloc> _Last, _Alloc& _Al) noexcept {

  00000	55		 push	 ebp
  00001	8b ec		 mov	 ebp, esp
  00003	51		 push	 ecx

; 963  :     // note that this is an optimization for debug mode codegen; in release mode the BE removes all of this
; 964  :     using _Ty = typename _Alloc::value_type;
; 965  :     if _CONSTEXPR_IF (!conjunction_v<is_trivially_destructible<_Ty>, _Uses_default_destroy<_Alloc, _Ty*>>) {
; 966  :         for (; _First != _Last; ++_First) {

  00004	eb 09		 jmp	 SHORT $LN4@Destroy_ra
$LN2@Destroy_ra:
  00006	8b 45 08	 mov	 eax, DWORD PTR __First$[ebp]
  00009	83 c0 08	 add	 eax, 8
  0000c	89 45 08	 mov	 DWORD PTR __First$[ebp], eax
$LN4@Destroy_ra:
  0000f	8b 45 08	 mov	 eax, DWORD PTR __First$[ebp]
  00012	3b 45 0c	 cmp	 eax, DWORD PTR __Last$[ebp]
  00015	74 1b		 je	 SHORT $LN5@Destroy_ra
; File C:\Program Files (x86)\Microsoft Visual Studio\2019\Community\VC\Tools\MSVC\14.28.29333\include\xstddef

; 289  :     return _Ptr;

  00017	8b 45 08	 mov	 eax, DWORD PTR __First$[ebp]
  0001a	89 45 fc	 mov	 DWORD PTR $T1[ebp], eax
  0001d	33 c0		 xor	 eax, eax
  0001f	83 e0 01	 and	 eax, 1
  00022	74 0c		 je	 SHORT $LN9@Destroy_ra
  00024	6a 08		 push	 8
  00026	ff 75 fc	 push	 DWORD PTR $T1[ebp]
  00029	e8 00 00 00 00	 call	 ??3@YAXPAXI@Z		; operator delete
  0002e	59		 pop	 ecx
  0002f	59		 pop	 ecx
$LN9@Destroy_ra:
; File C:\Program Files (x86)\Microsoft Visual Studio\2019\Community\VC\Tools\MSVC\14.28.29333\include\xmemory

; 968  :         }

  00030	eb d4		 jmp	 SHORT $LN2@Destroy_ra
$LN5@Destroy_ra:

; 969  :     }
; 970  : }

  00032	c9		 leave
  00033	c3		 ret	 0
??$_Destroy_range@V?$allocator@V?$CTimeEvent@M@@@std@@@std@@YAXPAV?$CTimeEvent@M@@QAV1@AAV?$allocator@V?$CTimeEvent@M@@@0@@Z ENDP ; std::_Destroy_range<std::allocator<CTimeEvent<float> > >
_TEXT	ENDS
; Function compile flags: /Odspy
; File C:\Program Files (x86)\Microsoft Visual Studio\2019\Community\VC\Tools\MSVC\14.28.29333\include\vector
; File C:\Program Files (x86)\Microsoft Visual Studio\2019\Community\VC\Tools\MSVC\14.28.29333\include\xmemory
; File C:\Program Files (x86)\Microsoft Visual Studio\2019\Community\VC\Tools\MSVC\14.28.29333\include\vector
; File C:\Program Files (x86)\Microsoft Visual Studio\2019\Community\VC\Tools\MSVC\14.28.29333\include\xmemory
; File C:\Program Files (x86)\Microsoft Visual Studio\2019\Community\VC\Tools\MSVC\14.28.29333\include\vector
; File C:\Program Files (x86)\Microsoft Visual Studio\2019\Community\VC\Tools\MSVC\14.28.29333\include\xmemory
; File C:\Program Files (x86)\Microsoft Visual Studio\2019\Community\VC\Tools\MSVC\14.28.29333\include\limits
; File C:\Program Files (x86)\Microsoft Visual Studio\2019\Community\VC\Tools\MSVC\14.28.29333\include\vector
; File C:\Program Files (x86)\Microsoft Visual Studio\2019\Community\VC\Tools\MSVC\14.28.29333\include\utility
; File C:\Program Files (x86)\Microsoft Visual Studio\2019\Community\VC\Tools\MSVC\14.28.29333\include\vector
; File C:\Program Files (x86)\Microsoft Visual Studio\2019\Community\VC\Tools\MSVC\14.28.29333\include\xmemory
; File C:\Program Files (x86)\Microsoft Visual Studio\2019\Community\VC\Tools\MSVC\14.28.29333\include\vector
; File C:\Program Files (x86)\Microsoft Visual Studio\2019\Community\VC\Tools\MSVC\14.28.29333\include\type_traits
; File C:\Program Files (x86)\Microsoft Visual Studio\2019\Community\VC\Tools\MSVC\14.28.29333\include\vector
; File C:\Program Files (x86)\Microsoft Visual Studio\2019\Community\VC\Tools\MSVC\14.28.29333\include\xstddef
; File C:\Program Files (x86)\Microsoft Visual Studio\2019\Community\VC\Tools\MSVC\14.28.29333\include\vcruntime_new.h
; File C:\Program Files (x86)\Microsoft Visual Studio\2019\Community\VC\Tools\MSVC\14.28.29333\include\type_traits
; File C:\Program Files (x86)\Microsoft Visual Studio\2019\Community\VC\Tools\MSVC\14.28.29333\include\xmemory
; File C:\Program Files (x86)\Microsoft Visual Studio\2019\Community\VC\Tools\MSVC\14.28.29333\include\vector
; File C:\Program Files (x86)\Microsoft Visual Studio\2019\Community\VC\Tools\MSVC\14.28.29333\include\xmemory
; File C:\Program Files (x86)\Microsoft Visual Studio\2019\Community\VC\Tools\MSVC\14.28.29333\include\vector
; File C:\Program Files (x86)\Microsoft Visual Studio\2019\Community\VC\Tools\MSVC\14.28.29333\include\xmemory
; File C:\Program Files (x86)\Microsoft Visual Studio\2019\Community\VC\Tools\MSVC\14.28.29333\include\vector
; File C:\Program Files (x86)\Microsoft Visual Studio\2019\Community\VC\Tools\MSVC\14.28.29333\include\xmemory
; File C:\Program Files (x86)\Microsoft Visual Studio\2019\Community\VC\Tools\MSVC\14.28.29333\include\vector
;	COMDAT ??$_Emplace_reallocate@ABQAVCLightData@@@?$vector@PAVCLightData@@V?$allocator@PAVCLightData@@@std@@@std@@QAEPAPAVCLightData@@QAPAV2@ABQAV2@@Z
_TEXT	SEGMENT
__Max_possible$2 = -68					; size = 4
$T3 = -64						; size = 4
__Al$ = -60						; size = 4
__Last$ = -56						; size = 4
$T4 = -52						; size = 4
$T5 = -48						; size = 4
__First$ = -44						; size = 4
$T6 = -40						; size = 4
$T7 = -36						; size = 4
__First$ = -32						; size = 4
__Last$ = -28						; size = 4
$T8 = -24						; size = 4
$T9 = -20						; size = 4
__$EHRec$ = -16						; size = 16
$T10 = 0						; size = 4
$T11 = 4						; size = 4
$T12 = 8						; size = 4
$T13 = 12						; size = 4
$T14 = 16						; size = 4
$T15 = 20						; size = 4
$T16 = 24						; size = 4
$T17 = 28						; size = 4
$T18 = 32						; size = 4
$T19 = 36						; size = 4
$T20 = 40						; size = 4
__Newsize$ = 44						; size = 4
__Constructed_last$ = 48				; size = 4
__Oldsize$ = 52						; size = 4
tv172 = 56						; size = 4
$T21 = 60						; size = 4
$T22 = 64						; size = 4
__My_data$ = 68						; size = 4
__Constructed_first$ = 72				; size = 4
___formal$ = 76						; size = 1
__Overflow_is_possible$23 = 83				; size = 1
__Newcapacity$ = 84					; size = 4
__Mylast$ = 88						; size = 4
__Myfirst$ = 92						; size = 4
__Whereoff$ = 96					; size = 4
$T24 = 103						; size = 1
_this$ = 104						; size = 4
__Newvec$ = 108						; size = 4
__Whereptr$ = 120					; size = 4
_<_Val_0>$ = 124					; size = 4
??$_Emplace_reallocate@ABQAVCLightData@@@?$vector@PAVCLightData@@V?$allocator@PAVCLightData@@@std@@@std@@QAEPAPAVCLightData@@QAPAV2@ABQAV2@@Z PROC ; std::vector<CLightData *,std::allocator<CLightData *> >::_Emplace_reallocate<CLightData * const &>, COMDAT
; _this$ = ecx

; 725  :     pointer _Emplace_reallocate(const pointer _Whereptr, _Valty&&... _Val) {

  00000	55		 push	 ebp
  00001	8d 6c 24 90	 lea	 ebp, DWORD PTR [esp-112]
  00005	83 ec 70	 sub	 esp, 112		; 00000070H
  00008	6a ff		 push	 -1
  0000a	68 00 00 00 00	 push	 __ehhandler$??$_Emplace_reallocate@ABQAVCLightData@@@?$vector@PAVCLightData@@V?$allocator@PAVCLightData@@@std@@@std@@QAEPAPAVCLightData@@QAPAV2@ABQAV2@@Z
  0000f	64 a1 00 00 00
	00		 mov	 eax, DWORD PTR fs:0
  00015	50		 push	 eax
  00016	51		 push	 ecx
  00017	83 ec 34	 sub	 esp, 52			; 00000034H
  0001a	53		 push	 ebx
  0001b	56		 push	 esi
  0001c	57		 push	 edi
  0001d	a1 00 00 00 00	 mov	 eax, DWORD PTR ___security_cookie
  00022	33 c5		 xor	 eax, ebp
  00024	50		 push	 eax
  00025	8d 45 f4	 lea	 eax, DWORD PTR __$EHRec$[ebp+4]
  00028	64 a3 00 00 00
	00		 mov	 DWORD PTR fs:0, eax
  0002e	89 65 f0	 mov	 DWORD PTR __$EHRec$[ebp], esp
  00031	89 4d 68	 mov	 DWORD PTR _this$[ebp], ecx

; 1733 :         return _Mypair._Get_first();

  00034	8b 45 68	 mov	 eax, DWORD PTR _this$[ebp]
; File C:\Program Files (x86)\Microsoft Visual Studio\2019\Community\VC\Tools\MSVC\14.28.29333\include\xmemory

; 1347 :         return *this;

  00037	89 45 28	 mov	 DWORD PTR $T20[ebp], eax
; File C:\Program Files (x86)\Microsoft Visual Studio\2019\Community\VC\Tools\MSVC\14.28.29333\include\vector

; 1733 :         return _Mypair._Get_first();

  0003a	8b 45 28	 mov	 eax, DWORD PTR $T20[ebp]
  0003d	89 45 c4	 mov	 DWORD PTR __Al$[ebp], eax

; 726  :         // reallocate and insert by perfectly forwarding _Val at _Whereptr
; 727  :         _Alty& _Al        = _Getal();
; 728  :         auto& _My_data    = _Mypair._Myval2;

  00040	8b 45 68	 mov	 eax, DWORD PTR _this$[ebp]
  00043	89 45 44	 mov	 DWORD PTR __My_data$[ebp], eax

; 729  :         pointer& _Myfirst = _My_data._Myfirst;

  00046	8b 45 44	 mov	 eax, DWORD PTR __My_data$[ebp]
  00049	89 45 5c	 mov	 DWORD PTR __Myfirst$[ebp], eax

; 730  :         pointer& _Mylast  = _My_data._Mylast;

  0004c	8b 45 44	 mov	 eax, DWORD PTR __My_data$[ebp]
  0004f	83 c0 04	 add	 eax, 4
  00052	89 45 58	 mov	 DWORD PTR __Mylast$[ebp], eax

; 731  : 
; 732  :         _STL_INTERNAL_CHECK(_Mylast == _My_data._Myend); // check that we have no unused capacity
; 733  : 
; 734  :         const auto _Whereoff = static_cast<size_type>(_Whereptr - _Myfirst);

  00055	8b 45 5c	 mov	 eax, DWORD PTR __Myfirst$[ebp]
  00058	8b 4d 78	 mov	 ecx, DWORD PTR __Whereptr$[ebp]
  0005b	2b 08		 sub	 ecx, DWORD PTR [eax]
  0005d	c1 f9 02	 sar	 ecx, 2
  00060	89 4d 60	 mov	 DWORD PTR __Whereoff$[ebp], ecx

; 735  :         const auto _Oldsize  = static_cast<size_type>(_Mylast - _Myfirst);

  00063	8b 45 58	 mov	 eax, DWORD PTR __Mylast$[ebp]
  00066	8b 4d 5c	 mov	 ecx, DWORD PTR __Myfirst$[ebp]
  00069	8b 00		 mov	 eax, DWORD PTR [eax]
  0006b	2b 01		 sub	 eax, DWORD PTR [ecx]
  0006d	c1 f8 02	 sar	 eax, 2
  00070	89 45 34	 mov	 DWORD PTR __Oldsize$[ebp], eax

; 1737 :         return _Mypair._Get_first();

  00073	8b 45 68	 mov	 eax, DWORD PTR _this$[ebp]
; File C:\Program Files (x86)\Microsoft Visual Studio\2019\Community\VC\Tools\MSVC\14.28.29333\include\xmemory

; 1351 :         return *this;

  00076	89 45 24	 mov	 DWORD PTR $T19[ebp], eax
; File C:\Program Files (x86)\Microsoft Visual Studio\2019\Community\VC\Tools\MSVC\14.28.29333\include\vector

; 1737 :         return _Mypair._Get_first();

  00079	8b 45 24	 mov	 eax, DWORD PTR $T19[ebp]
  0007c	89 45 c0	 mov	 DWORD PTR $T3[ebp], eax
; File C:\Program Files (x86)\Microsoft Visual Studio\2019\Community\VC\Tools\MSVC\14.28.29333\include\xmemory

; 710  :         return static_cast<size_t>(-1) / sizeof(value_type);

  0007f	c7 45 40 ff ff
	ff 3f		 mov	 DWORD PTR $T22[ebp], 1073741823 ; 3fffffffH
; File C:\Program Files (x86)\Microsoft Visual Studio\2019\Community\VC\Tools\MSVC\14.28.29333\include\limits

; 557  :         return INT_MAX;

  00086	c7 45 20 ff ff
	ff 7f		 mov	 DWORD PTR $T18[ebp], 2147483647 ; 7fffffffH
; File C:\Program Files (x86)\Microsoft Visual Studio\2019\Community\VC\Tools\MSVC\14.28.29333\include\vector

; 1488 :         return (_STD min)(

  0008d	8b 45 20	 mov	 eax, DWORD PTR $T18[ebp]
  00090	89 45 3c	 mov	 DWORD PTR $T21[ebp], eax
; File C:\Program Files (x86)\Microsoft Visual Studio\2019\Community\VC\Tools\MSVC\14.28.29333\include\utility

; 68   :     return _Right < _Left ? _Right : _Left;

  00093	8b 45 40	 mov	 eax, DWORD PTR $T22[ebp]
  00096	3b 45 3c	 cmp	 eax, DWORD PTR $T21[ebp]
  00099	73 08		 jae	 SHORT $LN34@Emplace_re
  0009b	8d 45 40	 lea	 eax, DWORD PTR $T22[ebp]
  0009e	89 45 38	 mov	 DWORD PTR tv172[ebp], eax
  000a1	eb 06		 jmp	 SHORT $LN35@Emplace_re
$LN34@Emplace_re:
  000a3	8d 45 3c	 lea	 eax, DWORD PTR $T21[ebp]
  000a6	89 45 38	 mov	 DWORD PTR tv172[ebp], eax
$LN35@Emplace_re:
  000a9	8b 45 38	 mov	 eax, DWORD PTR tv172[ebp]
  000ac	89 45 1c	 mov	 DWORD PTR $T17[ebp], eax
  000af	8b 45 1c	 mov	 eax, DWORD PTR $T17[ebp]
  000b2	89 45 18	 mov	 DWORD PTR $T16[ebp], eax
; File C:\Program Files (x86)\Microsoft Visual Studio\2019\Community\VC\Tools\MSVC\14.28.29333\include\vector

; 1488 :         return (_STD min)(

  000b5	8b 45 18	 mov	 eax, DWORD PTR $T16[ebp]
  000b8	8b 00		 mov	 eax, DWORD PTR [eax]
  000ba	89 45 14	 mov	 DWORD PTR $T15[ebp], eax

; 736  : 
; 737  :         if (_Oldsize == max_size()) {

  000bd	8b 45 34	 mov	 eax, DWORD PTR __Oldsize$[ebp]
  000c0	3b 45 14	 cmp	 eax, DWORD PTR $T15[ebp]
  000c3	75 05		 jne	 SHORT $LN2@Emplace_re

; 738  :             _Xlength();

  000c5	e8 00 00 00 00	 call	 ?_Xlength@?$vector@PAVCLightData@@V?$allocator@PAVCLightData@@@std@@@std@@CAXXZ ; std::vector<CLightData *,std::allocator<CLightData *> >::_Xlength
$LN2@Emplace_re:

; 739  :         }
; 740  : 
; 741  :         const size_type _Newsize     = _Oldsize + 1;

  000ca	8b 45 34	 mov	 eax, DWORD PTR __Oldsize$[ebp]
  000cd	40		 inc	 eax
  000ce	89 45 2c	 mov	 DWORD PTR __Newsize$[ebp], eax

; 742  :         const size_type _Newcapacity = _Calculate_growth(_Newsize);

  000d1	ff 75 2c	 push	 DWORD PTR __Newsize$[ebp]
  000d4	8b 4d 68	 mov	 ecx, DWORD PTR _this$[ebp]
  000d7	e8 00 00 00 00	 call	 ?_Calculate_growth@?$vector@PAVCLightData@@V?$allocator@PAVCLightData@@@std@@@std@@ABEII@Z ; std::vector<CLightData *,std::allocator<CLightData *> >::_Calculate_growth
  000dc	89 45 54	 mov	 DWORD PTR __Newcapacity$[ebp], eax
; File C:\Program Files (x86)\Microsoft Visual Studio\2019\Community\VC\Tools\MSVC\14.28.29333\include\xmemory

; 56   :     constexpr bool _Overflow_is_possible = _Ty_size > 1;

  000df	c6 45 53 01	 mov	 BYTE PTR __Overflow_is_possible$23[ebp], 1

; 57   : 
; 58   :     if _CONSTEXPR_IF (_Overflow_is_possible) {
; 59   :         constexpr size_t _Max_possible = static_cast<size_t>(-1) / _Ty_size;

  000e3	c7 45 bc ff ff
	ff 3f		 mov	 DWORD PTR __Max_possible$2[ebp], 1073741823 ; 3fffffffH

; 60   :         if (_Count > _Max_possible) {

  000ea	81 7d 54 ff ff
	ff 3f		 cmp	 DWORD PTR __Newcapacity$[ebp], 1073741823 ; 3fffffffH
  000f1	76 05		 jbe	 SHORT $LN67@Emplace_re

; 61   :             _Throw_bad_array_new_length(); // multiply overflow

  000f3	e8 00 00 00 00	 call	 ?_Throw_bad_array_new_length@std@@YAXXZ ; std::_Throw_bad_array_new_length
$LN67@Emplace_re:

; 62   :         }
; 63   :     }
; 64   : 
; 65   :     return _Count * _Ty_size;

  000f8	8b 45 54	 mov	 eax, DWORD PTR __Newcapacity$[ebp]
  000fb	c1 e0 02	 shl	 eax, 2
  000fe	89 45 10	 mov	 DWORD PTR $T14[ebp], eax

; 814  :         return static_cast<_Ty*>(_Allocate<_New_alignof<_Ty>>(_Get_size_of_n<sizeof(_Ty)>(_Count)));

  00101	ff 75 10	 push	 DWORD PTR $T14[ebp]
  00104	e8 00 00 00 00	 call	 ??$_Allocate@$07U_Default_allocate_traits@std@@$0A@@std@@YAPAXI@Z ; std::_Allocate<8,std::_Default_allocate_traits,0>
  00109	59		 pop	 ecx
  0010a	89 45 6c	 mov	 DWORD PTR __Newvec$[ebp], eax
; File C:\Program Files (x86)\Microsoft Visual Studio\2019\Community\VC\Tools\MSVC\14.28.29333\include\vector

; 745  :         const pointer _Constructed_last = _Newvec + _Whereoff + 1;

  0010d	8b 45 60	 mov	 eax, DWORD PTR __Whereoff$[ebp]
  00110	8b 4d 6c	 mov	 ecx, DWORD PTR __Newvec$[ebp]
  00113	8d 44 81 04	 lea	 eax, DWORD PTR [ecx+eax*4+4]
  00117	89 45 30	 mov	 DWORD PTR __Constructed_last$[ebp], eax

; 746  :         pointer _Constructed_first      = _Constructed_last;

  0011a	8b 45 30	 mov	 eax, DWORD PTR __Constructed_last$[ebp]
  0011d	89 45 48	 mov	 DWORD PTR __Constructed_first$[ebp], eax

; 747  : 
; 748  :         _TRY_BEGIN

  00120	83 65 fc 00	 and	 DWORD PTR __$EHRec$[ebp+12], 0
; File C:\Program Files (x86)\Microsoft Visual Studio\2019\Community\VC\Tools\MSVC\14.28.29333\include\type_traits

; 1443 :     return static_cast<_Ty&&>(_Arg);

  00124	8b 45 7c	 mov	 eax, DWORD PTR _<_Val_0>$[ebp]
  00127	89 45 08	 mov	 DWORD PTR $T12[ebp], eax
; File C:\Program Files (x86)\Microsoft Visual Studio\2019\Community\VC\Tools\MSVC\14.28.29333\include\vector

; 749  :         _Alty_traits::construct(_Al, _Unfancy(_Newvec + _Whereoff), _STD forward<_Valty>(_Val)...);

  0012a	8b 45 60	 mov	 eax, DWORD PTR __Whereoff$[ebp]
  0012d	8b 4d 6c	 mov	 ecx, DWORD PTR __Newvec$[ebp]
  00130	8d 04 81	 lea	 eax, DWORD PTR [ecx+eax*4]
; File C:\Program Files (x86)\Microsoft Visual Studio\2019\Community\VC\Tools\MSVC\14.28.29333\include\xstddef

; 289  :     return _Ptr;

  00133	89 45 0c	 mov	 DWORD PTR $T13[ebp], eax
; File C:\Program Files (x86)\Microsoft Visual Studio\2019\Community\VC\Tools\MSVC\14.28.29333\include\vcruntime_new.h

; 169  :         return _Where;

  00136	8b 45 0c	 mov	 eax, DWORD PTR $T13[ebp]
  00139	89 45 04	 mov	 DWORD PTR $T11[ebp], eax
; File C:\Program Files (x86)\Microsoft Visual Studio\2019\Community\VC\Tools\MSVC\14.28.29333\include\type_traits

; 1443 :     return static_cast<_Ty&&>(_Arg);

  0013c	8b 45 08	 mov	 eax, DWORD PTR $T12[ebp]
  0013f	89 45 00	 mov	 DWORD PTR $T10[ebp], eax
; File C:\Program Files (x86)\Microsoft Visual Studio\2019\Community\VC\Tools\MSVC\14.28.29333\include\xmemory

; 701  :         ::new (const_cast<void*>(static_cast<const volatile void*>(_Ptr))) _Objty(_STD forward<_Types>(_Args)...);

  00142	8b 45 04	 mov	 eax, DWORD PTR $T11[ebp]
  00145	8b 4d 00	 mov	 ecx, DWORD PTR $T10[ebp]
  00148	8b 09		 mov	 ecx, DWORD PTR [ecx]
  0014a	89 08		 mov	 DWORD PTR [eax], ecx
; File C:\Program Files (x86)\Microsoft Visual Studio\2019\Community\VC\Tools\MSVC\14.28.29333\include\vector

; 750  :         _Constructed_first = _Newvec + _Whereoff;

  0014c	8b 45 60	 mov	 eax, DWORD PTR __Whereoff$[ebp]
  0014f	8b 4d 6c	 mov	 ecx, DWORD PTR __Newvec$[ebp]
  00152	8d 04 81	 lea	 eax, DWORD PTR [ecx+eax*4]
  00155	89 45 48	 mov	 DWORD PTR __Constructed_first$[ebp], eax

; 751  : 
; 752  :         if (_Whereptr == _Mylast) { // at back, provide strong guarantee

  00158	8b 45 58	 mov	 eax, DWORD PTR __Mylast$[ebp]
  0015b	8b 4d 78	 mov	 ecx, DWORD PTR __Whereptr$[ebp]
  0015e	3b 08		 cmp	 ecx, DWORD PTR [eax]
  00160	75 3d		 jne	 SHORT $LN4@Emplace_re

; 753  :             _Umove_if_noexcept(_Myfirst, _Mylast, _Newvec);

  00162	8b 45 58	 mov	 eax, DWORD PTR __Mylast$[ebp]
  00165	8b 00		 mov	 eax, DWORD PTR [eax]
  00167	89 45 e4	 mov	 DWORD PTR __Last$[ebp], eax
  0016a	8b 45 5c	 mov	 eax, DWORD PTR __Myfirst$[ebp]
  0016d	8b 00		 mov	 eax, DWORD PTR [eax]
  0016f	89 45 e0	 mov	 DWORD PTR __First$[ebp], eax

; 1607 :         _Umove_if_noexcept1(_First, _Last, _Dest,

  00172	33 c0		 xor	 eax, eax
  00174	88 45 67	 mov	 BYTE PTR $T24[ebp], al
  00177	8a 45 67	 mov	 al, BYTE PTR $T24[ebp]
  0017a	88 45 4c	 mov	 BYTE PTR ___formal$[ebp], al

; 1733 :         return _Mypair._Get_first();

  0017d	8b 45 68	 mov	 eax, DWORD PTR _this$[ebp]
; File C:\Program Files (x86)\Microsoft Visual Studio\2019\Community\VC\Tools\MSVC\14.28.29333\include\xmemory

; 1347 :         return *this;

  00180	89 45 ec	 mov	 DWORD PTR $T9[ebp], eax
; File C:\Program Files (x86)\Microsoft Visual Studio\2019\Community\VC\Tools\MSVC\14.28.29333\include\vector

; 1733 :         return _Mypair._Get_first();

  00183	8b 45 ec	 mov	 eax, DWORD PTR $T9[ebp]
  00186	89 45 e8	 mov	 DWORD PTR $T8[ebp], eax

; 1597 :         _Uninitialized_move(_First, _Last, _Dest, _Getal());

  00189	ff 75 e8	 push	 DWORD PTR $T8[ebp]
  0018c	ff 75 6c	 push	 DWORD PTR __Newvec$[ebp]
  0018f	ff 75 e4	 push	 DWORD PTR __Last$[ebp]
  00192	ff 75 e0	 push	 DWORD PTR __First$[ebp]
  00195	e8 00 00 00 00	 call	 ??$_Uninitialized_move@PAPAVCLightData@@V?$allocator@PAVCLightData@@@std@@@std@@YAPAPAVCLightData@@QAPAV1@0PAPAV1@AAV?$allocator@PAVCLightData@@@0@@Z ; std::_Uninitialized_move<CLightData * *,std::allocator<CLightData *> >
  0019a	83 c4 10	 add	 esp, 16			; 00000010H

; 754  :         } else { // provide basic guarantee

  0019d	eb 5e		 jmp	 SHORT $LN5@Emplace_re
$LN4@Emplace_re:

; 755  :             _Umove(_Myfirst, _Whereptr, _Newvec);

  0019f	8b 45 5c	 mov	 eax, DWORD PTR __Myfirst$[ebp]
  001a2	8b 00		 mov	 eax, DWORD PTR [eax]
  001a4	89 45 d4	 mov	 DWORD PTR __First$[ebp], eax

; 1733 :         return _Mypair._Get_first();

  001a7	8b 45 68	 mov	 eax, DWORD PTR _this$[ebp]
; File C:\Program Files (x86)\Microsoft Visual Studio\2019\Community\VC\Tools\MSVC\14.28.29333\include\xmemory

; 1347 :         return *this;

  001aa	89 45 dc	 mov	 DWORD PTR $T7[ebp], eax
; File C:\Program Files (x86)\Microsoft Visual Studio\2019\Community\VC\Tools\MSVC\14.28.29333\include\vector

; 1733 :         return _Mypair._Get_first();

  001ad	8b 45 dc	 mov	 eax, DWORD PTR $T7[ebp]
  001b0	89 45 d8	 mov	 DWORD PTR $T6[ebp], eax

; 1592 :         return _Uninitialized_move(_First, _Last, _Dest, _Getal());

  001b3	ff 75 d8	 push	 DWORD PTR $T6[ebp]
  001b6	ff 75 6c	 push	 DWORD PTR __Newvec$[ebp]
  001b9	ff 75 78	 push	 DWORD PTR __Whereptr$[ebp]
  001bc	ff 75 d4	 push	 DWORD PTR __First$[ebp]
  001bf	e8 00 00 00 00	 call	 ??$_Uninitialized_move@PAPAVCLightData@@V?$allocator@PAVCLightData@@@std@@@std@@YAPAPAVCLightData@@QAPAV1@0PAPAV1@AAV?$allocator@PAVCLightData@@@0@@Z ; std::_Uninitialized_move<CLightData * *,std::allocator<CLightData *> >
  001c4	83 c4 10	 add	 esp, 16			; 00000010H

; 756  :             _Constructed_first = _Newvec;

  001c7	8b 45 6c	 mov	 eax, DWORD PTR __Newvec$[ebp]
  001ca	89 45 48	 mov	 DWORD PTR __Constructed_first$[ebp], eax

; 757  :             _Umove(_Whereptr, _Mylast, _Newvec + _Whereoff + 1);

  001cd	8b 45 58	 mov	 eax, DWORD PTR __Mylast$[ebp]
  001d0	8b 00		 mov	 eax, DWORD PTR [eax]
  001d2	89 45 c8	 mov	 DWORD PTR __Last$[ebp], eax

; 1733 :         return _Mypair._Get_first();

  001d5	8b 45 68	 mov	 eax, DWORD PTR _this$[ebp]
; File C:\Program Files (x86)\Microsoft Visual Studio\2019\Community\VC\Tools\MSVC\14.28.29333\include\xmemory

; 1347 :         return *this;

  001d8	89 45 d0	 mov	 DWORD PTR $T5[ebp], eax
; File C:\Program Files (x86)\Microsoft Visual Studio\2019\Community\VC\Tools\MSVC\14.28.29333\include\vector

; 1733 :         return _Mypair._Get_first();

  001db	8b 45 d0	 mov	 eax, DWORD PTR $T5[ebp]
  001de	89 45 cc	 mov	 DWORD PTR $T4[ebp], eax

; 1592 :         return _Uninitialized_move(_First, _Last, _Dest, _Getal());

  001e1	ff 75 cc	 push	 DWORD PTR $T4[ebp]

; 757  :             _Umove(_Whereptr, _Mylast, _Newvec + _Whereoff + 1);

  001e4	8b 45 60	 mov	 eax, DWORD PTR __Whereoff$[ebp]
  001e7	8b 4d 6c	 mov	 ecx, DWORD PTR __Newvec$[ebp]
  001ea	8d 44 81 04	 lea	 eax, DWORD PTR [ecx+eax*4+4]

; 1592 :         return _Uninitialized_move(_First, _Last, _Dest, _Getal());

  001ee	50		 push	 eax
  001ef	ff 75 c8	 push	 DWORD PTR __Last$[ebp]
  001f2	ff 75 78	 push	 DWORD PTR __Whereptr$[ebp]
  001f5	e8 00 00 00 00	 call	 ??$_Uninitialized_move@PAPAVCLightData@@V?$allocator@PAVCLightData@@@std@@@std@@YAPAPAVCLightData@@QAPAV1@0PAPAV1@AAV?$allocator@PAVCLightData@@@0@@Z ; std::_Uninitialized_move<CLightData * *,std::allocator<CLightData *> >
  001fa	83 c4 10	 add	 esp, 16			; 00000010H
$LN5@Emplace_re:

; 757  :             _Umove(_Whereptr, _Mylast, _Newvec + _Whereoff + 1);

  001fd	eb 2b		 jmp	 SHORT $LN7@Emplace_re
__catch$??$_Emplace_reallocate@ABQAVCLightData@@@?$vector@PAVCLightData@@V?$allocator@PAVCLightData@@@std@@@std@@QAEPAPAVCLightData@@QAPAV2@ABQAV2@@Z$0:

; 758  :         }
; 759  :         _CATCH_ALL
; 760  :         _Destroy(_Constructed_first, _Constructed_last);

  001ff	ff 75 30	 push	 DWORD PTR __Constructed_last$[ebp]
  00202	ff 75 48	 push	 DWORD PTR __Constructed_first$[ebp]
  00205	8b 4d 68	 mov	 ecx, DWORD PTR _this$[ebp]
  00208	e8 00 00 00 00	 call	 ?_Destroy@?$vector@PAVCLightData@@V?$allocator@PAVCLightData@@@std@@@std@@AAEXPAPAVCLightData@@0@Z ; std::vector<CLightData *,std::allocator<CLightData *> >::_Destroy

; 761  :         _Al.deallocate(_Newvec, _Newcapacity);

  0020d	ff 75 54	 push	 DWORD PTR __Newcapacity$[ebp]
  00210	ff 75 6c	 push	 DWORD PTR __Newvec$[ebp]
  00213	8b 4d c4	 mov	 ecx, DWORD PTR __Al$[ebp]
  00216	e8 00 00 00 00	 call	 ?deallocate@?$allocator@PAVCLightData@@@std@@QAEXQAPAVCLightData@@I@Z ; std::allocator<CLightData *>::deallocate

; 762  :         _RERAISE;

  0021b	6a 00		 push	 0
  0021d	6a 00		 push	 0
  0021f	e8 00 00 00 00	 call	 __CxxThrowException@8

; 763  :         _CATCH_END

  00224	b8 00 00 00 00	 mov	 eax, $LN10@Emplace_re
  00229	c3		 ret	 0
$LN7@Emplace_re:
  0022a	83 4d fc ff	 or	 DWORD PTR __$EHRec$[ebp+12], -1
  0022e	eb 04		 jmp	 SHORT __tryend$??$_Emplace_reallocate@ABQAVCLightData@@@?$vector@PAVCLightData@@V?$allocator@PAVCLightData@@@std@@@std@@QAEPAPAVCLightData@@QAPAV2@ABQAV2@@Z$1
$LN10@Emplace_re:
; File C:\Program Files (x86)\Microsoft Visual Studio\2019\Community\VC\Tools\MSVC\14.28.29333\include\xmemory
  00230	83 4d fc ff	 or	 DWORD PTR __$EHRec$[ebp+12], -1
__tryend$??$_Emplace_reallocate@ABQAVCLightData@@@?$vector@PAVCLightData@@V?$allocator@PAVCLightData@@@std@@@std@@QAEPAPAVCLightData@@QAPAV2@ABQAV2@@Z$1:
; File C:\Program Files (x86)\Microsoft Visual Studio\2019\Community\VC\Tools\MSVC\14.28.29333\include\vector

; 764  : 
; 765  :         _Change_array(_Newvec, _Newsize, _Newcapacity);

  00234	ff 75 54	 push	 DWORD PTR __Newcapacity$[ebp]
  00237	ff 75 2c	 push	 DWORD PTR __Newsize$[ebp]
  0023a	ff 75 6c	 push	 DWORD PTR __Newvec$[ebp]
  0023d	8b 4d 68	 mov	 ecx, DWORD PTR _this$[ebp]
  00240	e8 00 00 00 00	 call	 ?_Change_array@?$vector@PAVCLightData@@V?$allocator@PAVCLightData@@@std@@@std@@AAEXQAPAVCLightData@@II@Z ; std::vector<CLightData *,std::allocator<CLightData *> >::_Change_array

; 766  :         return _Newvec + _Whereoff;

  00245	8b 45 60	 mov	 eax, DWORD PTR __Whereoff$[ebp]
  00248	8b 4d 6c	 mov	 ecx, DWORD PTR __Newvec$[ebp]
  0024b	8d 04 81	 lea	 eax, DWORD PTR [ecx+eax*4]
$LN70@Emplace_re:

; 767  :     }

  0024e	8b 4d f4	 mov	 ecx, DWORD PTR __$EHRec$[ebp+4]
  00251	64 89 0d 00 00
	00 00		 mov	 DWORD PTR fs:0, ecx
  00258	59		 pop	 ecx
  00259	5f		 pop	 edi
  0025a	5e		 pop	 esi
  0025b	5b		 pop	 ebx
  0025c	83 c5 70	 add	 ebp, 112		; 00000070H
  0025f	c9		 leave
  00260	c2 08 00	 ret	 8
  00263	cc		 int	 3
  00264	cc		 int	 3
  00265	cc		 int	 3
  00266	cc		 int	 3
  00267	cc		 int	 3
_TEXT	ENDS
;	COMDAT text$x
text$x	SEGMENT
__ehhandler$??$_Emplace_reallocate@ABQAVCLightData@@@?$vector@PAVCLightData@@V?$allocator@PAVCLightData@@@std@@@std@@QAEPAPAVCLightData@@QAPAV2@ABQAV2@@Z:
  00000	90		 npad	 1
  00001	90		 npad	 1
  00002	8b 54 24 08	 mov	 edx, DWORD PTR [esp+8]
  00006	8d 42 0c	 lea	 eax, DWORD PTR [edx+12]
  00009	8b 4a b8	 mov	 ecx, DWORD PTR [edx-72]
  0000c	33 c8		 xor	 ecx, eax
  0000e	e8 00 00 00 00	 call	 @__security_check_cookie@4
  00013	b8 00 00 00 00	 mov	 eax, OFFSET __ehfuncinfo$??$_Emplace_reallocate@ABQAVCLightData@@@?$vector@PAVCLightData@@V?$allocator@PAVCLightData@@@std@@@std@@QAEPAPAVCLightData@@QAPAV2@ABQAV2@@Z
  00018	e9 00 00 00 00	 jmp	 ___CxxFrameHandler3
text$x	ENDS
??$_Emplace_reallocate@ABQAVCLightData@@@?$vector@PAVCLightData@@V?$allocator@PAVCLightData@@@std@@@std@@QAEPAPAVCLightData@@QAPAV2@ABQAV2@@Z ENDP ; std::vector<CLightData *,std::allocator<CLightData *> >::_Emplace_reallocate<CLightData * const &>
; Function compile flags: /Odspy
; File C:\Program Files (x86)\Microsoft Visual Studio\2019\Community\VC\Tools\MSVC\14.28.29333\include\vector
; File C:\Program Files (x86)\Microsoft Visual Studio\2019\Community\VC\Tools\MSVC\14.28.29333\include\type_traits
; File C:\Program Files (x86)\Microsoft Visual Studio\2019\Community\VC\Tools\MSVC\14.28.29333\include\vector
; File C:\Program Files (x86)\Microsoft Visual Studio\2019\Community\VC\Tools\MSVC\14.28.29333\include\xstddef
; File C:\Program Files (x86)\Microsoft Visual Studio\2019\Community\VC\Tools\MSVC\14.28.29333\include\vector
; File C:\Program Files (x86)\Microsoft Visual Studio\2019\Community\VC\Tools\MSVC\14.28.29333\include\xmemory
; File C:\Program Files (x86)\Microsoft Visual Studio\2019\Community\VC\Tools\MSVC\14.28.29333\include\vector
; File C:\Program Files (x86)\Microsoft Visual Studio\2019\Community\VC\Tools\MSVC\14.28.29333\include\vcruntime_new.h
; File C:\Program Files (x86)\Microsoft Visual Studio\2019\Community\VC\Tools\MSVC\14.28.29333\include\type_traits
; File C:\Program Files (x86)\Microsoft Visual Studio\2019\Community\VC\Tools\MSVC\14.28.29333\include\xmemory
; File C:\Program Files (x86)\Microsoft Visual Studio\2019\Community\VC\Tools\MSVC\14.28.29333\include\vector
;	COMDAT ??$_Emplace_back_with_unused_capacity@ABQAVCLightData@@@?$vector@PAVCLightData@@V?$allocator@PAVCLightData@@@std@@@std@@AAEXABQAVCLightData@@@Z
_TEXT	SEGMENT
__Result$ = -44						; size = 4
$T1 = -40						; size = 4
$T2 = -36						; size = 4
$T3 = -32						; size = 4
$T4 = -28						; size = 4
$T5 = -24						; size = 4
$T6 = -20						; size = 4
__Ptr$ = -16						; size = 4
__My_data$ = -12					; size = 4
_this$ = -8						; size = 4
__Mylast$ = -4						; size = 4
_<_Val_0>$ = 8						; size = 4
??$_Emplace_back_with_unused_capacity@ABQAVCLightData@@@?$vector@PAVCLightData@@V?$allocator@PAVCLightData@@@std@@@std@@AAEXABQAVCLightData@@@Z PROC ; std::vector<CLightData *,std::allocator<CLightData *> >::_Emplace_back_with_unused_capacity<CLightData * const &>, COMDAT
; _this$ = ecx

; 682  :     decltype(auto) _Emplace_back_with_unused_capacity(_Valty&&... _Val) {

  00000	55		 push	 ebp
  00001	8b ec		 mov	 ebp, esp
  00003	83 ec 2c	 sub	 esp, 44			; 0000002cH
  00006	89 4d f8	 mov	 DWORD PTR _this$[ebp], ecx

; 683  :         // insert by perfectly forwarding into element at end, provide strong guarantee
; 684  :         auto& _My_data   = _Mypair._Myval2;

  00009	8b 45 f8	 mov	 eax, DWORD PTR _this$[ebp]
  0000c	89 45 f4	 mov	 DWORD PTR __My_data$[ebp], eax

; 685  :         pointer& _Mylast = _My_data._Mylast;

  0000f	8b 45 f4	 mov	 eax, DWORD PTR __My_data$[ebp]
  00012	83 c0 04	 add	 eax, 4
  00015	89 45 fc	 mov	 DWORD PTR __Mylast$[ebp], eax
; File C:\Program Files (x86)\Microsoft Visual Studio\2019\Community\VC\Tools\MSVC\14.28.29333\include\type_traits

; 1443 :     return static_cast<_Ty&&>(_Arg);

  00018	8b 45 08	 mov	 eax, DWORD PTR _<_Val_0>$[ebp]
  0001b	89 45 e4	 mov	 DWORD PTR $T4[ebp], eax
; File C:\Program Files (x86)\Microsoft Visual Studio\2019\Community\VC\Tools\MSVC\14.28.29333\include\vector

; 687  :         _Alty_traits::construct(_Getal(), _Unfancy(_Mylast), _STD forward<_Valty>(_Val)...);

  0001e	8b 45 fc	 mov	 eax, DWORD PTR __Mylast$[ebp]
  00021	8b 00		 mov	 eax, DWORD PTR [eax]
  00023	89 45 f0	 mov	 DWORD PTR __Ptr$[ebp], eax
; File C:\Program Files (x86)\Microsoft Visual Studio\2019\Community\VC\Tools\MSVC\14.28.29333\include\xstddef

; 289  :     return _Ptr;

  00026	8b 45 f0	 mov	 eax, DWORD PTR __Ptr$[ebp]
  00029	89 45 e8	 mov	 DWORD PTR $T5[ebp], eax
; File C:\Program Files (x86)\Microsoft Visual Studio\2019\Community\VC\Tools\MSVC\14.28.29333\include\vector

; 1733 :         return _Mypair._Get_first();

  0002c	8b 45 f8	 mov	 eax, DWORD PTR _this$[ebp]
; File C:\Program Files (x86)\Microsoft Visual Studio\2019\Community\VC\Tools\MSVC\14.28.29333\include\xmemory

; 1347 :         return *this;

  0002f	89 45 ec	 mov	 DWORD PTR $T6[ebp], eax
; File C:\Program Files (x86)\Microsoft Visual Studio\2019\Community\VC\Tools\MSVC\14.28.29333\include\vector

; 1733 :         return _Mypair._Get_first();

  00032	8b 45 ec	 mov	 eax, DWORD PTR $T6[ebp]
  00035	89 45 d8	 mov	 DWORD PTR $T1[ebp], eax
; File C:\Program Files (x86)\Microsoft Visual Studio\2019\Community\VC\Tools\MSVC\14.28.29333\include\vcruntime_new.h

; 169  :         return _Where;

  00038	8b 45 e8	 mov	 eax, DWORD PTR $T5[ebp]
  0003b	89 45 e0	 mov	 DWORD PTR $T3[ebp], eax
; File C:\Program Files (x86)\Microsoft Visual Studio\2019\Community\VC\Tools\MSVC\14.28.29333\include\type_traits

; 1443 :     return static_cast<_Ty&&>(_Arg);

  0003e	8b 45 e4	 mov	 eax, DWORD PTR $T4[ebp]
  00041	89 45 dc	 mov	 DWORD PTR $T2[ebp], eax
; File C:\Program Files (x86)\Microsoft Visual Studio\2019\Community\VC\Tools\MSVC\14.28.29333\include\xmemory

; 701  :         ::new (const_cast<void*>(static_cast<const volatile void*>(_Ptr))) _Objty(_STD forward<_Types>(_Args)...);

  00044	8b 45 e0	 mov	 eax, DWORD PTR $T3[ebp]
  00047	8b 4d dc	 mov	 ecx, DWORD PTR $T2[ebp]
  0004a	8b 09		 mov	 ecx, DWORD PTR [ecx]
  0004c	89 08		 mov	 DWORD PTR [eax], ecx
; File C:\Program Files (x86)\Microsoft Visual Studio\2019\Community\VC\Tools\MSVC\14.28.29333\include\vector

; 689  :         _Ty& _Result = *_Mylast;

  0004e	8b 45 fc	 mov	 eax, DWORD PTR __Mylast$[ebp]
  00051	8b 00		 mov	 eax, DWORD PTR [eax]
  00053	89 45 d4	 mov	 DWORD PTR __Result$[ebp], eax

; 690  :         ++_Mylast;

  00056	8b 45 fc	 mov	 eax, DWORD PTR __Mylast$[ebp]
  00059	8b 00		 mov	 eax, DWORD PTR [eax]
  0005b	83 c0 04	 add	 eax, 4
  0005e	8b 4d fc	 mov	 ecx, DWORD PTR __Mylast$[ebp]
  00061	89 01		 mov	 DWORD PTR [ecx], eax

; 691  : #if _HAS_CXX17
; 692  :         return _Result;
; 693  : #else // ^^^ _HAS_CXX17 ^^^ // vvv !_HAS_CXX17 vvv
; 694  :         (void) _Result;
; 695  : #endif // _HAS_CXX17
; 696  :     }

  00063	c9		 leave
  00064	c2 04 00	 ret	 4
??$_Emplace_back_with_unused_capacity@ABQAVCLightData@@@?$vector@PAVCLightData@@V?$allocator@PAVCLightData@@@std@@@std@@AAEXABQAVCLightData@@@Z ENDP ; std::vector<CLightData *,std::allocator<CLightData *> >::_Emplace_back_with_unused_capacity<CLightData * const &>
_TEXT	ENDS
; Function compile flags: /Odspy
; File C:\Program Files (x86)\Microsoft Visual Studio\2019\Community\VC\Tools\MSVC\14.28.29333\include\vector
; File C:\Program Files (x86)\Microsoft Visual Studio\2019\Community\VC\Tools\MSVC\14.28.29333\include\type_traits
; File C:\Program Files (x86)\Microsoft Visual Studio\2019\Community\VC\Tools\MSVC\14.28.29333\include\vector
; File C:\Program Files (x86)\Microsoft Visual Studio\2019\Community\VC\Tools\MSVC\14.28.29333\include\type_traits
; File C:\Program Files (x86)\Microsoft Visual Studio\2019\Community\VC\Tools\MSVC\14.28.29333\include\vector
;	COMDAT ??$emplace_back@ABQAVCLightData@@@?$vector@PAVCLightData@@V?$allocator@PAVCLightData@@@std@@@std@@QAEXABQAVCLightData@@@Z
_TEXT	SEGMENT
__Result$ = -24						; size = 4
$T1 = -20						; size = 4
$T2 = -16						; size = 4
__Mylast$ = -12						; size = 4
__My_data$ = -8						; size = 4
_this$ = -4						; size = 4
_<_Val_0>$ = 8						; size = 4
??$emplace_back@ABQAVCLightData@@@?$vector@PAVCLightData@@V?$allocator@PAVCLightData@@@std@@@std@@QAEXABQAVCLightData@@@Z PROC ; std::vector<CLightData *,std::allocator<CLightData *> >::emplace_back<CLightData * const &>, COMDAT
; _this$ = ecx

; 700  :     decltype(auto) emplace_back(_Valty&&... _Val) {

  00000	55		 push	 ebp
  00001	8b ec		 mov	 ebp, esp
  00003	83 ec 18	 sub	 esp, 24			; 00000018H
  00006	89 4d fc	 mov	 DWORD PTR _this$[ebp], ecx

; 701  :         // insert by perfectly forwarding into element at end, provide strong guarantee
; 702  :         auto& _My_data   = _Mypair._Myval2;

  00009	8b 45 fc	 mov	 eax, DWORD PTR _this$[ebp]
  0000c	89 45 f8	 mov	 DWORD PTR __My_data$[ebp], eax

; 703  :         pointer& _Mylast = _My_data._Mylast;

  0000f	8b 45 f8	 mov	 eax, DWORD PTR __My_data$[ebp]
  00012	83 c0 04	 add	 eax, 4
  00015	89 45 f4	 mov	 DWORD PTR __Mylast$[ebp], eax

; 704  :         if (_Mylast != _My_data._Myend) {

  00018	8b 45 f4	 mov	 eax, DWORD PTR __Mylast$[ebp]
  0001b	8b 4d f8	 mov	 ecx, DWORD PTR __My_data$[ebp]
  0001e	8b 00		 mov	 eax, DWORD PTR [eax]
  00020	3b 41 08	 cmp	 eax, DWORD PTR [ecx+8]
  00023	74 13		 je	 SHORT $LN2@emplace_ba
; File C:\Program Files (x86)\Microsoft Visual Studio\2019\Community\VC\Tools\MSVC\14.28.29333\include\type_traits

; 1443 :     return static_cast<_Ty&&>(_Arg);

  00025	8b 45 08	 mov	 eax, DWORD PTR _<_Val_0>$[ebp]
  00028	89 45 f0	 mov	 DWORD PTR $T2[ebp], eax
; File C:\Program Files (x86)\Microsoft Visual Studio\2019\Community\VC\Tools\MSVC\14.28.29333\include\vector

; 705  :             return _Emplace_back_with_unused_capacity(_STD forward<_Valty>(_Val)...);

  0002b	ff 75 f0	 push	 DWORD PTR $T2[ebp]
  0002e	8b 4d fc	 mov	 ecx, DWORD PTR _this$[ebp]
  00031	e8 00 00 00 00	 call	 ??$_Emplace_back_with_unused_capacity@ABQAVCLightData@@@?$vector@PAVCLightData@@V?$allocator@PAVCLightData@@@std@@@std@@AAEXABQAVCLightData@@@Z ; std::vector<CLightData *,std::allocator<CLightData *> >::_Emplace_back_with_unused_capacity<CLightData * const &>
  00036	eb 19		 jmp	 SHORT $LN1@emplace_ba
$LN2@emplace_ba:
; File C:\Program Files (x86)\Microsoft Visual Studio\2019\Community\VC\Tools\MSVC\14.28.29333\include\type_traits

; 1443 :     return static_cast<_Ty&&>(_Arg);

  00038	8b 45 08	 mov	 eax, DWORD PTR _<_Val_0>$[ebp]
  0003b	89 45 ec	 mov	 DWORD PTR $T1[ebp], eax
; File C:\Program Files (x86)\Microsoft Visual Studio\2019\Community\VC\Tools\MSVC\14.28.29333\include\vector

; 708  :         _Ty& _Result = *_Emplace_reallocate(_Mylast, _STD forward<_Valty>(_Val)...);

  0003e	ff 75 ec	 push	 DWORD PTR $T1[ebp]
  00041	8b 45 f4	 mov	 eax, DWORD PTR __Mylast$[ebp]
  00044	ff 30		 push	 DWORD PTR [eax]
  00046	8b 4d fc	 mov	 ecx, DWORD PTR _this$[ebp]
  00049	e8 00 00 00 00	 call	 ??$_Emplace_reallocate@ABQAVCLightData@@@?$vector@PAVCLightData@@V?$allocator@PAVCLightData@@@std@@@std@@QAEPAPAVCLightData@@QAPAV2@ABQAV2@@Z ; std::vector<CLightData *,std::allocator<CLightData *> >::_Emplace_reallocate<CLightData * const &>
  0004e	89 45 e8	 mov	 DWORD PTR __Result$[ebp], eax
$LN1@emplace_ba:

; 709  : #if _HAS_CXX17
; 710  :         return _Result;
; 711  : #else // ^^^ _HAS_CXX17 ^^^ // vvv !_HAS_CXX17 vvv
; 712  :         (void) _Result;
; 713  : #endif // _HAS_CXX17
; 714  :     }

  00051	c9		 leave
  00052	c2 04 00	 ret	 4
??$emplace_back@ABQAVCLightData@@@?$vector@PAVCLightData@@V?$allocator@PAVCLightData@@@std@@@std@@QAEXABQAVCLightData@@@Z ENDP ; std::vector<CLightData *,std::allocator<CLightData *> >::emplace_back<CLightData * const &>
_TEXT	ENDS
; Function compile flags: /Odspy
; File C:\Program Files (x86)\Microsoft Visual Studio\2019\Community\VC\Tools\MSVC\14.28.29333\include\algorithm
; File C:\Program Files (x86)\Microsoft Visual Studio\2019\Community\VC\Tools\MSVC\14.28.29333\include\vector
; File C:\Program Files (x86)\Microsoft Visual Studio\2019\Community\VC\Tools\MSVC\14.28.29333\include\xstddef
; File C:\Program Files (x86)\Microsoft Visual Studio\2019\Community\VC\Tools\MSVC\14.28.29333\include\vector
; File C:\Program Files (x86)\Microsoft Visual Studio\2019\Community\VC\Tools\MSVC\14.28.29333\include\algorithm
; File C:\Program Files (x86)\Microsoft Visual Studio\2019\Community\VC\Tools\MSVC\14.28.29333\include\vector
; File C:\Program Files (x86)\Microsoft Visual Studio\2019\Community\VC\Tools\MSVC\14.28.29333\include\xstddef
; File C:\Program Files (x86)\Microsoft Visual Studio\2019\Community\VC\Tools\MSVC\14.28.29333\include\vector
; File C:\Program Files (x86)\Microsoft Visual Studio\2019\Community\VC\Tools\MSVC\14.28.29333\include\algorithm
;	COMDAT ??$for_each@V?$_Vector_iterator@V?$_Vector_val@U?$_Simple_types@PAVCLightData@@@std@@@std@@@std@@P6AXPAVCLightData@@@Z@std@@YAP6AXPAVCLightData@@@ZV?$_Vector_iterator@V?$_Vector_val@U?$_Simple_types@PAVCLightData@@@std@@@std@@@0@1P6AX0@Z@Z
_TEXT	SEGMENT
__ULast$ = -32						; size = 4
$T1 = -28						; size = 4
$T2 = -24						; size = 4
__Ptr$3 = -20						; size = 4
$T4 = -16						; size = 4
$T5 = -12						; size = 4
__Ptr$6 = -8						; size = 4
__UFirst$ = -4						; size = 4
__First$ = 8						; size = 4
__Last$ = 12						; size = 4
__Func$ = 16						; size = 4
??$for_each@V?$_Vector_iterator@V?$_Vector_val@U?$_Simple_types@PAVCLightData@@@std@@@std@@@std@@P6AXPAVCLightData@@@Z@std@@YAP6AXPAVCLightData@@@ZV?$_Vector_iterator@V?$_Vector_val@U?$_Simple_types@PAVCLightData@@@std@@@std@@@0@1P6AX0@Z@Z PROC ; std::for_each<std::_Vector_iterator<std::_Vector_val<std::_Simple_types<CLightData *> > >,void (__cdecl*)(CLightData *)>, COMDAT

; 303  : _CONSTEXPR20 _Fn for_each(_InIt _First, _InIt _Last, _Fn _Func) { // perform function for each element [_First, _Last)

  00000	55		 push	 ebp
  00001	8b ec		 mov	 ebp, esp
  00003	83 ec 20	 sub	 esp, 32			; 00000020H
; File C:\Program Files (x86)\Microsoft Visual Studio\2019\Community\VC\Tools\MSVC\14.28.29333\include\vector

; 310  :         return _Unfancy(this->_Ptr);

  00006	8b 45 08	 mov	 eax, DWORD PTR __First$[ebp]
  00009	89 45 f8	 mov	 DWORD PTR __Ptr$6[ebp], eax
; File C:\Program Files (x86)\Microsoft Visual Studio\2019\Community\VC\Tools\MSVC\14.28.29333\include\xstddef

; 289  :     return _Ptr;

  0000c	8b 45 f8	 mov	 eax, DWORD PTR __Ptr$6[ebp]
  0000f	89 45 f4	 mov	 DWORD PTR $T5[ebp], eax
; File C:\Program Files (x86)\Microsoft Visual Studio\2019\Community\VC\Tools\MSVC\14.28.29333\include\vector

; 310  :         return _Unfancy(this->_Ptr);

  00012	8b 45 f4	 mov	 eax, DWORD PTR $T5[ebp]
  00015	89 45 f0	 mov	 DWORD PTR $T4[ebp], eax
; File C:\Program Files (x86)\Microsoft Visual Studio\2019\Community\VC\Tools\MSVC\14.28.29333\include\algorithm

; 305  :     auto _UFirst      = _Get_unwrapped(_First);

  00018	8b 45 f0	 mov	 eax, DWORD PTR $T4[ebp]
  0001b	89 45 fc	 mov	 DWORD PTR __UFirst$[ebp], eax
; File C:\Program Files (x86)\Microsoft Visual Studio\2019\Community\VC\Tools\MSVC\14.28.29333\include\vector

; 310  :         return _Unfancy(this->_Ptr);

  0001e	8b 45 0c	 mov	 eax, DWORD PTR __Last$[ebp]
  00021	89 45 ec	 mov	 DWORD PTR __Ptr$3[ebp], eax
; File C:\Program Files (x86)\Microsoft Visual Studio\2019\Community\VC\Tools\MSVC\14.28.29333\include\xstddef

; 289  :     return _Ptr;

  00024	8b 45 ec	 mov	 eax, DWORD PTR __Ptr$3[ebp]
  00027	89 45 e8	 mov	 DWORD PTR $T2[ebp], eax
; File C:\Program Files (x86)\Microsoft Visual Studio\2019\Community\VC\Tools\MSVC\14.28.29333\include\vector

; 310  :         return _Unfancy(this->_Ptr);

  0002a	8b 45 e8	 mov	 eax, DWORD PTR $T2[ebp]
  0002d	89 45 e4	 mov	 DWORD PTR $T1[ebp], eax
; File C:\Program Files (x86)\Microsoft Visual Studio\2019\Community\VC\Tools\MSVC\14.28.29333\include\algorithm

; 306  :     const auto _ULast = _Get_unwrapped(_Last);

  00030	8b 45 e4	 mov	 eax, DWORD PTR $T1[ebp]
  00033	89 45 e0	 mov	 DWORD PTR __ULast$[ebp], eax

; 307  :     for (; _UFirst != _ULast; ++_UFirst) {

  00036	eb 09		 jmp	 SHORT $LN4@for_each
$LN2@for_each:
  00038	8b 45 fc	 mov	 eax, DWORD PTR __UFirst$[ebp]
  0003b	83 c0 04	 add	 eax, 4
  0003e	89 45 fc	 mov	 DWORD PTR __UFirst$[ebp], eax
$LN4@for_each:
  00041	8b 45 fc	 mov	 eax, DWORD PTR __UFirst$[ebp]
  00044	3b 45 e0	 cmp	 eax, DWORD PTR __ULast$[ebp]
  00047	74 0b		 je	 SHORT $LN3@for_each

; 308  :         _Func(*_UFirst);

  00049	8b 45 fc	 mov	 eax, DWORD PTR __UFirst$[ebp]
  0004c	ff 30		 push	 DWORD PTR [eax]
  0004e	ff 55 10	 call	 DWORD PTR __Func$[ebp]
  00051	59		 pop	 ecx

; 309  :     }

  00052	eb e4		 jmp	 SHORT $LN2@for_each
$LN3@for_each:

; 310  : 
; 311  :     return _Func;

  00054	8b 45 10	 mov	 eax, DWORD PTR __Func$[ebp]

; 312  : }

  00057	c9		 leave
  00058	c3		 ret	 0
??$for_each@V?$_Vector_iterator@V?$_Vector_val@U?$_Simple_types@PAVCLightData@@@std@@@std@@@std@@P6AXPAVCLightData@@@Z@std@@YAP6AXPAVCLightData@@@ZV?$_Vector_iterator@V?$_Vector_val@U?$_Simple_types@PAVCLightData@@@std@@@std@@@0@1P6AX0@Z@Z ENDP ; std::for_each<std::_Vector_iterator<std::_Vector_val<std::_Simple_types<CLightData *> > >,void (__cdecl*)(CLightData *)>
_TEXT	ENDS
; Function compile flags: /Odspy
;	COMDAT ??__F?ms_kPool@CLightData@@2V?$CDynamicPool@VCLightData@@@@A@@YAXXZ
text$yd	SEGMENT
??__F?ms_kPool@CLightData@@2V?$CDynamicPool@VCLightData@@@@A@@YAXXZ PROC ; `dynamic atexit destructor for 'CLightData::ms_kPool'', COMDAT
  00000	55		 push	 ebp
  00001	8b ec		 mov	 ebp, esp
  00003	b9 00 00 00 00	 mov	 ecx, OFFSET ?ms_kPool@CLightData@@2V?$CDynamicPool@VCLightData@@@@A ; CLightData::ms_kPool
  00008	e8 00 00 00 00	 call	 ??1?$CDynamicPool@VCLightData@@@@UAE@XZ ; CDynamicPool<CLightData>::~CDynamicPool<CLightData>
  0000d	5d		 pop	 ebp
  0000e	c3		 ret	 0
??__F?ms_kPool@CLightData@@2V?$CDynamicPool@VCLightData@@@@A@@YAXXZ ENDP ; `dynamic atexit destructor for 'CLightData::ms_kPool''
text$yd	ENDS
; Function compile flags: /Odspy
; File D:\Metin2 Server Files\mainline\SRC_2014\Metin2Client\EffectLib\SimpleLightData.cpp
;	COMDAT ??__E?ms_kPool@CLightData@@2V?$CDynamicPool@VCLightData@@@@A@@YAXXZ
text$di	SEGMENT
??__E?ms_kPool@CLightData@@2V?$CDynamicPool@VCLightData@@@@A@@YAXXZ PROC ; `dynamic initializer for 'CLightData::ms_kPool'', COMDAT

; 4    : CDynamicPool<CLightData> CLightData::ms_kPool;

  00000	55		 push	 ebp
  00001	8b ec		 mov	 ebp, esp
  00003	b9 00 00 00 00	 mov	 ecx, OFFSET ?ms_kPool@CLightData@@2V?$CDynamicPool@VCLightData@@@@A ; CLightData::ms_kPool
  00008	e8 00 00 00 00	 call	 ??0?$CDynamicPool@VCLightData@@@@QAE@XZ ; CDynamicPool<CLightData>::CDynamicPool<CLightData>
  0000d	68 00 00 00 00	 push	 OFFSET ??__F?ms_kPool@CLightData@@2V?$CDynamicPool@VCLightData@@@@A@@YAXXZ ; `dynamic atexit destructor for 'CLightData::ms_kPool''
  00012	e8 00 00 00 00	 call	 _atexit
  00017	59		 pop	 ecx
  00018	5d		 pop	 ebp
  00019	c3		 ret	 0
??__E?ms_kPool@CLightData@@2V?$CDynamicPool@VCLightData@@@@A@@YAXXZ ENDP ; `dynamic initializer for 'CLightData::ms_kPool''
text$di	ENDS
; Function compile flags: /Odspy
;	COMDAT ??_G?$CDynamicPool@VCLightData@@@@UAEPAXI@Z
_TEXT	SEGMENT
_this$ = -4						; size = 4
___flags$ = 8						; size = 4
??_G?$CDynamicPool@VCLightData@@@@UAEPAXI@Z PROC	; CDynamicPool<CLightData>::`scalar deleting destructor', COMDAT
; _this$ = ecx
  00000	55		 push	 ebp
  00001	8b ec		 mov	 ebp, esp
  00003	51		 push	 ecx
  00004	89 4d fc	 mov	 DWORD PTR _this$[ebp], ecx
  00007	8b 4d fc	 mov	 ecx, DWORD PTR _this$[ebp]
  0000a	e8 00 00 00 00	 call	 ??1?$CDynamicPool@VCLightData@@@@UAE@XZ ; CDynamicPool<CLightData>::~CDynamicPool<CLightData>
  0000f	8b 45 08	 mov	 eax, DWORD PTR ___flags$[ebp]
  00012	83 e0 01	 and	 eax, 1
  00015	74 0c		 je	 SHORT $LN2@scalar
  00017	6a 24		 push	 36			; 00000024H
  00019	ff 75 fc	 push	 DWORD PTR _this$[ebp]
  0001c	e8 00 00 00 00	 call	 ??3@YAXPAXI@Z		; operator delete
  00021	59		 pop	 ecx
  00022	59		 pop	 ecx
$LN2@scalar:
  00023	8b 45 fc	 mov	 eax, DWORD PTR _this$[ebp]
  00026	c9		 leave
  00027	c2 04 00	 ret	 4
??_G?$CDynamicPool@VCLightData@@@@UAEPAXI@Z ENDP	; CDynamicPool<CLightData>::`scalar deleting destructor'
_TEXT	ENDS
; Function compile flags: /Odspy
; File C:\Program Files (x86)\Microsoft Visual Studio\2019\Community\VC\Tools\MSVC\14.28.29333\include\vector
;	COMDAT ?_Xlength@?$vector@PAVCLightData@@V?$allocator@PAVCLightData@@@std@@@std@@CAXXZ
_TEXT	SEGMENT
?_Xlength@?$vector@PAVCLightData@@V?$allocator@PAVCLightData@@@std@@@std@@CAXXZ PROC ; std::vector<CLightData *,std::allocator<CLightData *> >::_Xlength, COMDAT

; 1704 :     [[noreturn]] static void _Xlength() {

  00000	55		 push	 ebp
  00001	8b ec		 mov	 ebp, esp

; 1705 :         _Xlength_error("vector too long");

  00003	68 00 00 00 00	 push	 OFFSET ??_C@_0BA@FOIKENOD@vector?5too?5long@
  00008	e8 00 00 00 00	 call	 ?_Xlength_error@std@@YAXPBD@Z ; std::_Xlength_error
$LN2@Xlength:

; 1706 :     }

  0000d	5d		 pop	 ebp
  0000e	c3		 ret	 0
?_Xlength@?$vector@PAVCLightData@@V?$allocator@PAVCLightData@@@std@@@std@@CAXXZ ENDP ; std::vector<CLightData *,std::allocator<CLightData *> >::_Xlength
_TEXT	ENDS
; Function compile flags: /Odspy
; File C:\Program Files (x86)\Microsoft Visual Studio\2019\Community\VC\Tools\MSVC\14.28.29333\include\vector
; File C:\Program Files (x86)\Microsoft Visual Studio\2019\Community\VC\Tools\MSVC\14.28.29333\include\xmemory
; File C:\Program Files (x86)\Microsoft Visual Studio\2019\Community\VC\Tools\MSVC\14.28.29333\include\vector
; File C:\Program Files (x86)\Microsoft Visual Studio\2019\Community\VC\Tools\MSVC\14.28.29333\include\xmemory
; File C:\Program Files (x86)\Microsoft Visual Studio\2019\Community\VC\Tools\MSVC\14.28.29333\include\vector
; File C:\Program Files (x86)\Microsoft Visual Studio\2019\Community\VC\Tools\MSVC\14.28.29333\include\xmemory
; File C:\Program Files (x86)\Microsoft Visual Studio\2019\Community\VC\Tools\MSVC\14.28.29333\include\vector
;	COMDAT ?_Tidy@?$vector@PAVCLightData@@V?$allocator@PAVCLightData@@@std@@@std@@AAEXXZ
_TEXT	SEGMENT
$T1 = -52						; size = 4
__Ptr$ = -48						; size = 4
__Count$ = -44						; size = 4
$T2 = -40						; size = 4
__First$ = -36						; size = 4
__Last$ = -32						; size = 4
$T3 = -28						; size = 4
$T4 = -24						; size = 4
__Myend$ = -20						; size = 4
__Mylast$ = -16						; size = 4
_this$ = -12						; size = 4
__My_data$ = -8						; size = 4
__Myfirst$ = -4						; size = 4
?_Tidy@?$vector@PAVCLightData@@V?$allocator@PAVCLightData@@@std@@@std@@AAEXXZ PROC ; std::vector<CLightData *,std::allocator<CLightData *> >::_Tidy, COMDAT
; _this$ = ecx

; 1686 :     void _Tidy() noexcept { // free all storage

  00000	55		 push	 ebp
  00001	8b ec		 mov	 ebp, esp
  00003	83 ec 34	 sub	 esp, 52			; 00000034H
  00006	89 4d f4	 mov	 DWORD PTR _this$[ebp], ecx

; 1687 :         auto& _My_data    = _Mypair._Myval2;

  00009	8b 45 f4	 mov	 eax, DWORD PTR _this$[ebp]
  0000c	89 45 f8	 mov	 DWORD PTR __My_data$[ebp], eax

; 1688 :         pointer& _Myfirst = _My_data._Myfirst;

  0000f	8b 45 f8	 mov	 eax, DWORD PTR __My_data$[ebp]
  00012	89 45 fc	 mov	 DWORD PTR __Myfirst$[ebp], eax

; 1689 :         pointer& _Mylast  = _My_data._Mylast;

  00015	8b 45 f8	 mov	 eax, DWORD PTR __My_data$[ebp]
  00018	83 c0 04	 add	 eax, 4
  0001b	89 45 f0	 mov	 DWORD PTR __Mylast$[ebp], eax

; 1690 :         pointer& _Myend   = _My_data._Myend;

  0001e	8b 45 f8	 mov	 eax, DWORD PTR __My_data$[ebp]
  00021	83 c0 08	 add	 eax, 8
  00024	89 45 ec	 mov	 DWORD PTR __Myend$[ebp], eax

; 1691 : 
; 1692 :         _My_data._Orphan_all();
; 1693 : 
; 1694 :         if (_Myfirst) { // destroy and deallocate old array

  00027	8b 45 fc	 mov	 eax, DWORD PTR __Myfirst$[ebp]
  0002a	83 38 00	 cmp	 DWORD PTR [eax], 0
  0002d	74 74		 je	 SHORT $LN3@Tidy

; 1695 :             _Destroy(_Myfirst, _Mylast);

  0002f	8b 45 f0	 mov	 eax, DWORD PTR __Mylast$[ebp]
  00032	8b 00		 mov	 eax, DWORD PTR [eax]
  00034	89 45 e0	 mov	 DWORD PTR __Last$[ebp], eax
  00037	8b 45 fc	 mov	 eax, DWORD PTR __Myfirst$[ebp]
  0003a	8b 00		 mov	 eax, DWORD PTR [eax]
  0003c	89 45 dc	 mov	 DWORD PTR __First$[ebp], eax

; 1733 :         return _Mypair._Get_first();

  0003f	8b 45 f4	 mov	 eax, DWORD PTR _this$[ebp]
; File C:\Program Files (x86)\Microsoft Visual Studio\2019\Community\VC\Tools\MSVC\14.28.29333\include\xmemory

; 1347 :         return *this;

  00042	89 45 e8	 mov	 DWORD PTR $T4[ebp], eax
; File C:\Program Files (x86)\Microsoft Visual Studio\2019\Community\VC\Tools\MSVC\14.28.29333\include\vector

; 1733 :         return _Mypair._Get_first();

  00045	8b 45 e8	 mov	 eax, DWORD PTR $T4[ebp]
  00048	89 45 e4	 mov	 DWORD PTR $T3[ebp], eax

; 1612 :         _Destroy_range(_First, _Last, _Getal());

  0004b	ff 75 e4	 push	 DWORD PTR $T3[ebp]
  0004e	ff 75 e0	 push	 DWORD PTR __Last$[ebp]
  00051	ff 75 dc	 push	 DWORD PTR __First$[ebp]
  00054	e8 00 00 00 00	 call	 ??$_Destroy_range@V?$allocator@PAVCLightData@@@std@@@std@@YAXPAPAVCLightData@@QAPAV1@AAV?$allocator@PAVCLightData@@@0@@Z ; std::_Destroy_range<std::allocator<CLightData *> >
  00059	83 c4 0c	 add	 esp, 12			; 0000000cH

; 1733 :         return _Mypair._Get_first();

  0005c	8b 45 f4	 mov	 eax, DWORD PTR _this$[ebp]
; File C:\Program Files (x86)\Microsoft Visual Studio\2019\Community\VC\Tools\MSVC\14.28.29333\include\xmemory

; 1347 :         return *this;

  0005f	89 45 d8	 mov	 DWORD PTR $T2[ebp], eax
; File C:\Program Files (x86)\Microsoft Visual Studio\2019\Community\VC\Tools\MSVC\14.28.29333\include\vector

; 1733 :         return _Mypair._Get_first();

  00062	8b 45 d8	 mov	 eax, DWORD PTR $T2[ebp]
  00065	89 45 cc	 mov	 DWORD PTR $T1[ebp], eax

; 1696 :             _Getal().deallocate(_Myfirst, static_cast<size_type>(_Myend - _Myfirst));

  00068	8b 45 ec	 mov	 eax, DWORD PTR __Myend$[ebp]
  0006b	8b 4d fc	 mov	 ecx, DWORD PTR __Myfirst$[ebp]
  0006e	8b 00		 mov	 eax, DWORD PTR [eax]
  00070	2b 01		 sub	 eax, DWORD PTR [ecx]
  00072	c1 f8 02	 sar	 eax, 2
  00075	89 45 d4	 mov	 DWORD PTR __Count$[ebp], eax
  00078	8b 45 fc	 mov	 eax, DWORD PTR __Myfirst$[ebp]
  0007b	8b 00		 mov	 eax, DWORD PTR [eax]
  0007d	89 45 d0	 mov	 DWORD PTR __Ptr$[ebp], eax
; File C:\Program Files (x86)\Microsoft Visual Studio\2019\Community\VC\Tools\MSVC\14.28.29333\include\xmemory

; 810  :         _Deallocate<_New_alignof<_Ty>>(_Ptr, sizeof(_Ty) * _Count);

  00080	8b 45 d4	 mov	 eax, DWORD PTR __Count$[ebp]
  00083	c1 e0 02	 shl	 eax, 2
  00086	50		 push	 eax
  00087	ff 75 d0	 push	 DWORD PTR __Ptr$[ebp]
  0008a	e8 00 00 00 00	 call	 ??$_Deallocate@$07$0A@@std@@YAXPAXI@Z ; std::_Deallocate<8,0>
  0008f	59		 pop	 ecx
  00090	59		 pop	 ecx
; File C:\Program Files (x86)\Microsoft Visual Studio\2019\Community\VC\Tools\MSVC\14.28.29333\include\vector

; 1698 :             _Myfirst = pointer();

  00091	8b 45 fc	 mov	 eax, DWORD PTR __Myfirst$[ebp]
  00094	83 20 00	 and	 DWORD PTR [eax], 0

; 1699 :             _Mylast  = pointer();

  00097	8b 45 f0	 mov	 eax, DWORD PTR __Mylast$[ebp]
  0009a	83 20 00	 and	 DWORD PTR [eax], 0

; 1700 :             _Myend   = pointer();

  0009d	8b 45 ec	 mov	 eax, DWORD PTR __Myend$[ebp]
  000a0	83 20 00	 and	 DWORD PTR [eax], 0
$LN3@Tidy:

; 1701 :         }
; 1702 :     }

  000a3	c9		 leave
  000a4	c3		 ret	 0
?_Tidy@?$vector@PAVCLightData@@V?$allocator@PAVCLightData@@@std@@@std@@AAEXXZ ENDP ; std::vector<CLightData *,std::allocator<CLightData *> >::_Tidy
_TEXT	ENDS
; Function compile flags: /Odspy
; File C:\Program Files (x86)\Microsoft Visual Studio\2019\Community\VC\Tools\MSVC\14.28.29333\include\vector
; File C:\Program Files (x86)\Microsoft Visual Studio\2019\Community\VC\Tools\MSVC\14.28.29333\include\xmemory
; File C:\Program Files (x86)\Microsoft Visual Studio\2019\Community\VC\Tools\MSVC\14.28.29333\include\vector
; File C:\Program Files (x86)\Microsoft Visual Studio\2019\Community\VC\Tools\MSVC\14.28.29333\include\xmemory
; File C:\Program Files (x86)\Microsoft Visual Studio\2019\Community\VC\Tools\MSVC\14.28.29333\include\vector
; File C:\Program Files (x86)\Microsoft Visual Studio\2019\Community\VC\Tools\MSVC\14.28.29333\include\xmemory
; File C:\Program Files (x86)\Microsoft Visual Studio\2019\Community\VC\Tools\MSVC\14.28.29333\include\vector
;	COMDAT ?_Change_array@?$vector@PAVCLightData@@V?$allocator@PAVCLightData@@@std@@@std@@AAEXQAPAVCLightData@@II@Z
_TEXT	SEGMENT
$T1 = -52						; size = 4
__Ptr$ = -48						; size = 4
__Count$ = -44						; size = 4
$T2 = -40						; size = 4
__First$ = -36						; size = 4
__Last$ = -32						; size = 4
$T3 = -28						; size = 4
$T4 = -24						; size = 4
__Myend$ = -20						; size = 4
__Mylast$ = -16						; size = 4
_this$ = -12						; size = 4
__My_data$ = -8						; size = 4
__Myfirst$ = -4						; size = 4
__Newvec$ = 8						; size = 4
__Newsize$ = 12						; size = 4
__Newcapacity$ = 16					; size = 4
?_Change_array@?$vector@PAVCLightData@@V?$allocator@PAVCLightData@@@std@@@std@@AAEXQAPAVCLightData@@II@Z PROC ; std::vector<CLightData *,std::allocator<CLightData *> >::_Change_array, COMDAT
; _this$ = ecx

; 1667 :     void _Change_array(const pointer _Newvec, const size_type _Newsize, const size_type _Newcapacity) {

  00000	55		 push	 ebp
  00001	8b ec		 mov	 ebp, esp
  00003	83 ec 34	 sub	 esp, 52			; 00000034H
  00006	89 4d f4	 mov	 DWORD PTR _this$[ebp], ecx

; 1668 :         // orphan all iterators, discard old array, acquire new array
; 1669 :         auto& _My_data    = _Mypair._Myval2;

  00009	8b 45 f4	 mov	 eax, DWORD PTR _this$[ebp]
  0000c	89 45 f8	 mov	 DWORD PTR __My_data$[ebp], eax

; 1670 :         pointer& _Myfirst = _My_data._Myfirst;

  0000f	8b 45 f8	 mov	 eax, DWORD PTR __My_data$[ebp]
  00012	89 45 fc	 mov	 DWORD PTR __Myfirst$[ebp], eax

; 1671 :         pointer& _Mylast  = _My_data._Mylast;

  00015	8b 45 f8	 mov	 eax, DWORD PTR __My_data$[ebp]
  00018	83 c0 04	 add	 eax, 4
  0001b	89 45 f0	 mov	 DWORD PTR __Mylast$[ebp], eax

; 1672 :         pointer& _Myend   = _My_data._Myend;

  0001e	8b 45 f8	 mov	 eax, DWORD PTR __My_data$[ebp]
  00021	83 c0 08	 add	 eax, 8
  00024	89 45 ec	 mov	 DWORD PTR __Myend$[ebp], eax

; 1673 : 
; 1674 :         _My_data._Orphan_all();
; 1675 : 
; 1676 :         if (_Myfirst) { // destroy and deallocate old array

  00027	8b 45 fc	 mov	 eax, DWORD PTR __Myfirst$[ebp]
  0002a	83 38 00	 cmp	 DWORD PTR [eax], 0
  0002d	74 62		 je	 SHORT $LN2@Change_arr

; 1677 :             _Destroy(_Myfirst, _Mylast);

  0002f	8b 45 f0	 mov	 eax, DWORD PTR __Mylast$[ebp]
  00032	8b 00		 mov	 eax, DWORD PTR [eax]
  00034	89 45 e0	 mov	 DWORD PTR __Last$[ebp], eax
  00037	8b 45 fc	 mov	 eax, DWORD PTR __Myfirst$[ebp]
  0003a	8b 00		 mov	 eax, DWORD PTR [eax]
  0003c	89 45 dc	 mov	 DWORD PTR __First$[ebp], eax

; 1733 :         return _Mypair._Get_first();

  0003f	8b 45 f4	 mov	 eax, DWORD PTR _this$[ebp]
; File C:\Program Files (x86)\Microsoft Visual Studio\2019\Community\VC\Tools\MSVC\14.28.29333\include\xmemory

; 1347 :         return *this;

  00042	89 45 e8	 mov	 DWORD PTR $T4[ebp], eax
; File C:\Program Files (x86)\Microsoft Visual Studio\2019\Community\VC\Tools\MSVC\14.28.29333\include\vector

; 1733 :         return _Mypair._Get_first();

  00045	8b 45 e8	 mov	 eax, DWORD PTR $T4[ebp]
  00048	89 45 e4	 mov	 DWORD PTR $T3[ebp], eax

; 1612 :         _Destroy_range(_First, _Last, _Getal());

  0004b	ff 75 e4	 push	 DWORD PTR $T3[ebp]
  0004e	ff 75 e0	 push	 DWORD PTR __Last$[ebp]
  00051	ff 75 dc	 push	 DWORD PTR __First$[ebp]
  00054	e8 00 00 00 00	 call	 ??$_Destroy_range@V?$allocator@PAVCLightData@@@std@@@std@@YAXPAPAVCLightData@@QAPAV1@AAV?$allocator@PAVCLightData@@@0@@Z ; std::_Destroy_range<std::allocator<CLightData *> >
  00059	83 c4 0c	 add	 esp, 12			; 0000000cH

; 1733 :         return _Mypair._Get_first();

  0005c	8b 45 f4	 mov	 eax, DWORD PTR _this$[ebp]
; File C:\Program Files (x86)\Microsoft Visual Studio\2019\Community\VC\Tools\MSVC\14.28.29333\include\xmemory

; 1347 :         return *this;

  0005f	89 45 d8	 mov	 DWORD PTR $T2[ebp], eax
; File C:\Program Files (x86)\Microsoft Visual Studio\2019\Community\VC\Tools\MSVC\14.28.29333\include\vector

; 1733 :         return _Mypair._Get_first();

  00062	8b 45 d8	 mov	 eax, DWORD PTR $T2[ebp]
  00065	89 45 cc	 mov	 DWORD PTR $T1[ebp], eax

; 1678 :             _Getal().deallocate(_Myfirst, static_cast<size_type>(_Myend - _Myfirst));

  00068	8b 45 ec	 mov	 eax, DWORD PTR __Myend$[ebp]
  0006b	8b 4d fc	 mov	 ecx, DWORD PTR __Myfirst$[ebp]
  0006e	8b 00		 mov	 eax, DWORD PTR [eax]
  00070	2b 01		 sub	 eax, DWORD PTR [ecx]
  00072	c1 f8 02	 sar	 eax, 2
  00075	89 45 d4	 mov	 DWORD PTR __Count$[ebp], eax
  00078	8b 45 fc	 mov	 eax, DWORD PTR __Myfirst$[ebp]
  0007b	8b 00		 mov	 eax, DWORD PTR [eax]
  0007d	89 45 d0	 mov	 DWORD PTR __Ptr$[ebp], eax
; File C:\Program Files (x86)\Microsoft Visual Studio\2019\Community\VC\Tools\MSVC\14.28.29333\include\xmemory

; 810  :         _Deallocate<_New_alignof<_Ty>>(_Ptr, sizeof(_Ty) * _Count);

  00080	8b 45 d4	 mov	 eax, DWORD PTR __Count$[ebp]
  00083	c1 e0 02	 shl	 eax, 2
  00086	50		 push	 eax
  00087	ff 75 d0	 push	 DWORD PTR __Ptr$[ebp]
  0008a	e8 00 00 00 00	 call	 ??$_Deallocate@$07$0A@@std@@YAXPAXI@Z ; std::_Deallocate<8,0>
  0008f	59		 pop	 ecx
  00090	59		 pop	 ecx
$LN2@Change_arr:
; File C:\Program Files (x86)\Microsoft Visual Studio\2019\Community\VC\Tools\MSVC\14.28.29333\include\vector

; 1681 :         _Myfirst = _Newvec;

  00091	8b 45 fc	 mov	 eax, DWORD PTR __Myfirst$[ebp]
  00094	8b 4d 08	 mov	 ecx, DWORD PTR __Newvec$[ebp]
  00097	89 08		 mov	 DWORD PTR [eax], ecx

; 1682 :         _Mylast  = _Newvec + _Newsize;

  00099	8b 45 0c	 mov	 eax, DWORD PTR __Newsize$[ebp]
  0009c	8b 4d 08	 mov	 ecx, DWORD PTR __Newvec$[ebp]
  0009f	8d 04 81	 lea	 eax, DWORD PTR [ecx+eax*4]
  000a2	8b 4d f0	 mov	 ecx, DWORD PTR __Mylast$[ebp]
  000a5	89 01		 mov	 DWORD PTR [ecx], eax

; 1683 :         _Myend   = _Newvec + _Newcapacity;

  000a7	8b 45 10	 mov	 eax, DWORD PTR __Newcapacity$[ebp]
  000aa	8b 4d 08	 mov	 ecx, DWORD PTR __Newvec$[ebp]
  000ad	8d 04 81	 lea	 eax, DWORD PTR [ecx+eax*4]
  000b0	8b 4d ec	 mov	 ecx, DWORD PTR __Myend$[ebp]
  000b3	89 01		 mov	 DWORD PTR [ecx], eax

; 1684 :     }

  000b5	c9		 leave
  000b6	c2 0c 00	 ret	 12			; 0000000cH
?_Change_array@?$vector@PAVCLightData@@V?$allocator@PAVCLightData@@@std@@@std@@AAEXQAPAVCLightData@@II@Z ENDP ; std::vector<CLightData *,std::allocator<CLightData *> >::_Change_array
_TEXT	ENDS
; Function compile flags: /Odspy
; File C:\Program Files (x86)\Microsoft Visual Studio\2019\Community\VC\Tools\MSVC\14.28.29333\include\vector
; File C:\Program Files (x86)\Microsoft Visual Studio\2019\Community\VC\Tools\MSVC\14.28.29333\include\xmemory
; File C:\Program Files (x86)\Microsoft Visual Studio\2019\Community\VC\Tools\MSVC\14.28.29333\include\vector
; File C:\Program Files (x86)\Microsoft Visual Studio\2019\Community\VC\Tools\MSVC\14.28.29333\include\xmemory
; File C:\Program Files (x86)\Microsoft Visual Studio\2019\Community\VC\Tools\MSVC\14.28.29333\include\limits
; File C:\Program Files (x86)\Microsoft Visual Studio\2019\Community\VC\Tools\MSVC\14.28.29333\include\vector
; File C:\Program Files (x86)\Microsoft Visual Studio\2019\Community\VC\Tools\MSVC\14.28.29333\include\utility
; File C:\Program Files (x86)\Microsoft Visual Studio\2019\Community\VC\Tools\MSVC\14.28.29333\include\vector
;	COMDAT ?_Calculate_growth@?$vector@PAVCLightData@@V?$allocator@PAVCLightData@@@std@@@std@@ABEII@Z
_TEXT	SEGMENT
$T1 = -52						; size = 4
$T2 = -48						; size = 4
$T3 = -44						; size = 4
$T4 = -40						; size = 4
$T5 = -36						; size = 4
__Geometric$ = -32					; size = 4
__Max$ = -28						; size = 4
tv82 = -24						; size = 4
$T6 = -20						; size = 4
$T7 = -16						; size = 4
_this$ = -12						; size = 4
__My_data$8 = -8					; size = 4
__Oldcapacity$ = -4					; size = 4
__Newsize$ = 8						; size = 4
?_Calculate_growth@?$vector@PAVCLightData@@V?$allocator@PAVCLightData@@@std@@@std@@ABEII@Z PROC ; std::vector<CLightData *,std::allocator<CLightData *> >::_Calculate_growth, COMDAT
; _this$ = ecx

; 1615 :     size_type _Calculate_growth(const size_type _Newsize) const {

  00000	55		 push	 ebp
  00001	8b ec		 mov	 ebp, esp
  00003	83 ec 34	 sub	 esp, 52			; 00000034H
  00006	89 4d f4	 mov	 DWORD PTR _this$[ebp], ecx

; 1493 :         auto& _My_data = _Mypair._Myval2;

  00009	8b 45 f4	 mov	 eax, DWORD PTR _this$[ebp]
  0000c	89 45 f8	 mov	 DWORD PTR __My_data$8[ebp], eax

; 1494 :         return static_cast<size_type>(_My_data._Myend - _My_data._Myfirst);

  0000f	8b 45 f8	 mov	 eax, DWORD PTR __My_data$8[ebp]
  00012	8b 4d f8	 mov	 ecx, DWORD PTR __My_data$8[ebp]
  00015	8b 40 08	 mov	 eax, DWORD PTR [eax+8]
  00018	2b 01		 sub	 eax, DWORD PTR [ecx]
  0001a	c1 f8 02	 sar	 eax, 2
  0001d	89 45 fc	 mov	 DWORD PTR __Oldcapacity$[ebp], eax

; 1737 :         return _Mypair._Get_first();

  00020	8b 45 f4	 mov	 eax, DWORD PTR _this$[ebp]
; File C:\Program Files (x86)\Microsoft Visual Studio\2019\Community\VC\Tools\MSVC\14.28.29333\include\xmemory

; 1351 :         return *this;

  00023	89 45 dc	 mov	 DWORD PTR $T5[ebp], eax
; File C:\Program Files (x86)\Microsoft Visual Studio\2019\Community\VC\Tools\MSVC\14.28.29333\include\vector

; 1737 :         return _Mypair._Get_first();

  00026	8b 45 dc	 mov	 eax, DWORD PTR $T5[ebp]
  00029	89 45 cc	 mov	 DWORD PTR $T1[ebp], eax
; File C:\Program Files (x86)\Microsoft Visual Studio\2019\Community\VC\Tools\MSVC\14.28.29333\include\xmemory

; 710  :         return static_cast<size_t>(-1) / sizeof(value_type);

  0002c	c7 45 f0 ff ff
	ff 3f		 mov	 DWORD PTR $T7[ebp], 1073741823 ; 3fffffffH
; File C:\Program Files (x86)\Microsoft Visual Studio\2019\Community\VC\Tools\MSVC\14.28.29333\include\limits

; 557  :         return INT_MAX;

  00033	c7 45 d8 ff ff
	ff 7f		 mov	 DWORD PTR $T4[ebp], 2147483647 ; 7fffffffH
; File C:\Program Files (x86)\Microsoft Visual Studio\2019\Community\VC\Tools\MSVC\14.28.29333\include\vector

; 1488 :         return (_STD min)(

  0003a	8b 45 d8	 mov	 eax, DWORD PTR $T4[ebp]
  0003d	89 45 ec	 mov	 DWORD PTR $T6[ebp], eax
; File C:\Program Files (x86)\Microsoft Visual Studio\2019\Community\VC\Tools\MSVC\14.28.29333\include\utility

; 68   :     return _Right < _Left ? _Right : _Left;

  00040	8b 45 f0	 mov	 eax, DWORD PTR $T7[ebp]
  00043	3b 45 ec	 cmp	 eax, DWORD PTR $T6[ebp]
  00046	73 08		 jae	 SHORT $LN25@Calculate_
  00048	8d 45 f0	 lea	 eax, DWORD PTR $T7[ebp]
  0004b	89 45 e8	 mov	 DWORD PTR tv82[ebp], eax
  0004e	eb 06		 jmp	 SHORT $LN26@Calculate_
$LN25@Calculate_:
  00050	8d 45 ec	 lea	 eax, DWORD PTR $T6[ebp]
  00053	89 45 e8	 mov	 DWORD PTR tv82[ebp], eax
$LN26@Calculate_:
  00056	8b 45 e8	 mov	 eax, DWORD PTR tv82[ebp]
  00059	89 45 d4	 mov	 DWORD PTR $T3[ebp], eax
  0005c	8b 45 d4	 mov	 eax, DWORD PTR $T3[ebp]
  0005f	89 45 d0	 mov	 DWORD PTR $T2[ebp], eax
; File C:\Program Files (x86)\Microsoft Visual Studio\2019\Community\VC\Tools\MSVC\14.28.29333\include\vector

; 1488 :         return (_STD min)(

  00062	8b 45 d0	 mov	 eax, DWORD PTR $T2[ebp]
  00065	8b 00		 mov	 eax, DWORD PTR [eax]
  00067	89 45 e4	 mov	 DWORD PTR __Max$[ebp], eax

; 1616 :         // given _Oldcapacity and _Newsize, calculate geometric growth
; 1617 :         const size_type _Oldcapacity = capacity();
; 1618 :         const auto _Max              = max_size();
; 1619 : 
; 1620 :         if (_Oldcapacity > _Max - _Oldcapacity / 2) {

  0006a	8b 45 fc	 mov	 eax, DWORD PTR __Oldcapacity$[ebp]
  0006d	d1 e8		 shr	 eax, 1
  0006f	8b 4d e4	 mov	 ecx, DWORD PTR __Max$[ebp]
  00072	2b c8		 sub	 ecx, eax
  00074	39 4d fc	 cmp	 DWORD PTR __Oldcapacity$[ebp], ecx
  00077	76 05		 jbe	 SHORT $LN2@Calculate_

; 1621 :             return _Max; // geometric growth would overflow

  00079	8b 45 e4	 mov	 eax, DWORD PTR __Max$[ebp]
  0007c	eb 1b		 jmp	 SHORT $LN1@Calculate_
$LN2@Calculate_:

; 1622 :         }
; 1623 : 
; 1624 :         const size_type _Geometric = _Oldcapacity + _Oldcapacity / 2;

  0007e	8b 45 fc	 mov	 eax, DWORD PTR __Oldcapacity$[ebp]
  00081	d1 e8		 shr	 eax, 1
  00083	03 45 fc	 add	 eax, DWORD PTR __Oldcapacity$[ebp]
  00086	89 45 e0	 mov	 DWORD PTR __Geometric$[ebp], eax

; 1625 : 
; 1626 :         if (_Geometric < _Newsize) {

  00089	8b 45 e0	 mov	 eax, DWORD PTR __Geometric$[ebp]
  0008c	3b 45 08	 cmp	 eax, DWORD PTR __Newsize$[ebp]
  0008f	73 05		 jae	 SHORT $LN3@Calculate_

; 1627 :             return _Newsize; // geometric growth would be insufficient

  00091	8b 45 08	 mov	 eax, DWORD PTR __Newsize$[ebp]
  00094	eb 03		 jmp	 SHORT $LN1@Calculate_
$LN3@Calculate_:

; 1628 :         }
; 1629 : 
; 1630 :         return _Geometric; // geometric growth is sufficient

  00096	8b 45 e0	 mov	 eax, DWORD PTR __Geometric$[ebp]
$LN1@Calculate_:

; 1631 :     }

  00099	c9		 leave
  0009a	c2 04 00	 ret	 4
?_Calculate_growth@?$vector@PAVCLightData@@V?$allocator@PAVCLightData@@@std@@@std@@ABEII@Z ENDP ; std::vector<CLightData *,std::allocator<CLightData *> >::_Calculate_growth
_TEXT	ENDS
; Function compile flags: /Odspy
; File C:\Program Files (x86)\Microsoft Visual Studio\2019\Community\VC\Tools\MSVC\14.28.29333\include\vector
; File C:\Program Files (x86)\Microsoft Visual Studio\2019\Community\VC\Tools\MSVC\14.28.29333\include\xmemory
; File C:\Program Files (x86)\Microsoft Visual Studio\2019\Community\VC\Tools\MSVC\14.28.29333\include\vector
;	COMDAT ?_Destroy@?$vector@PAVCLightData@@V?$allocator@PAVCLightData@@@std@@@std@@AAEXPAPAVCLightData@@0@Z
_TEXT	SEGMENT
$T1 = -12						; size = 4
$T2 = -8						; size = 4
_this$ = -4						; size = 4
__First$ = 8						; size = 4
__Last$ = 12						; size = 4
?_Destroy@?$vector@PAVCLightData@@V?$allocator@PAVCLightData@@@std@@@std@@AAEXPAPAVCLightData@@0@Z PROC ; std::vector<CLightData *,std::allocator<CLightData *> >::_Destroy, COMDAT
; _this$ = ecx

; 1611 :     void _Destroy(pointer _First, pointer _Last) { // destroy [_First, _Last) using allocator

  00000	55		 push	 ebp
  00001	8b ec		 mov	 ebp, esp
  00003	83 ec 0c	 sub	 esp, 12			; 0000000cH
  00006	89 4d fc	 mov	 DWORD PTR _this$[ebp], ecx

; 1733 :         return _Mypair._Get_first();

  00009	8b 45 fc	 mov	 eax, DWORD PTR _this$[ebp]
; File C:\Program Files (x86)\Microsoft Visual Studio\2019\Community\VC\Tools\MSVC\14.28.29333\include\xmemory

; 1347 :         return *this;

  0000c	89 45 f8	 mov	 DWORD PTR $T2[ebp], eax
; File C:\Program Files (x86)\Microsoft Visual Studio\2019\Community\VC\Tools\MSVC\14.28.29333\include\vector

; 1733 :         return _Mypair._Get_first();

  0000f	8b 45 f8	 mov	 eax, DWORD PTR $T2[ebp]
  00012	89 45 f4	 mov	 DWORD PTR $T1[ebp], eax

; 1612 :         _Destroy_range(_First, _Last, _Getal());

  00015	ff 75 f4	 push	 DWORD PTR $T1[ebp]
  00018	ff 75 0c	 push	 DWORD PTR __Last$[ebp]
  0001b	ff 75 08	 push	 DWORD PTR __First$[ebp]
  0001e	e8 00 00 00 00	 call	 ??$_Destroy_range@V?$allocator@PAVCLightData@@@std@@@std@@YAXPAPAVCLightData@@QAPAV1@AAV?$allocator@PAVCLightData@@@0@@Z ; std::_Destroy_range<std::allocator<CLightData *> >
  00023	83 c4 0c	 add	 esp, 12			; 0000000cH

; 1613 :     }

  00026	c9		 leave
  00027	c2 08 00	 ret	 8
?_Destroy@?$vector@PAVCLightData@@V?$allocator@PAVCLightData@@@std@@@std@@AAEXPAPAVCLightData@@0@Z ENDP ; std::vector<CLightData *,std::allocator<CLightData *> >::_Destroy
_TEXT	ENDS
; Function compile flags: /Odspy
; File C:\Program Files (x86)\Microsoft Visual Studio\2019\Community\VC\Tools\MSVC\14.28.29333\include\vector
; File C:\Program Files (x86)\Microsoft Visual Studio\2019\Community\VC\Tools\MSVC\14.28.29333\include\xmemory
; File C:\Program Files (x86)\Microsoft Visual Studio\2019\Community\VC\Tools\MSVC\14.28.29333\include\vector
;	COMDAT ?clear@?$vector@PAVCLightData@@V?$allocator@PAVCLightData@@@std@@@std@@QAEXXZ
_TEXT	SEGMENT
__First$ = -32						; size = 4
__Last$ = -28						; size = 4
$T1 = -24						; size = 4
$T2 = -20						; size = 4
__Myfirst$ = -16					; size = 4
__Mylast$ = -12						; size = 4
_this$ = -8						; size = 4
__My_data$ = -4						; size = 4
?clear@?$vector@PAVCLightData@@V?$allocator@PAVCLightData@@@std@@@std@@QAEXXZ PROC ; std::vector<CLightData *,std::allocator<CLightData *> >::clear, COMDAT
; _this$ = ecx

; 1383 :     void clear() noexcept { // erase all

  00000	55		 push	 ebp
  00001	8b ec		 mov	 ebp, esp
  00003	83 ec 20	 sub	 esp, 32			; 00000020H
  00006	89 4d f8	 mov	 DWORD PTR _this$[ebp], ecx

; 1384 :         auto& _My_data    = _Mypair._Myval2;

  00009	8b 45 f8	 mov	 eax, DWORD PTR _this$[ebp]
  0000c	89 45 fc	 mov	 DWORD PTR __My_data$[ebp], eax

; 1385 :         pointer& _Myfirst = _My_data._Myfirst;

  0000f	8b 45 fc	 mov	 eax, DWORD PTR __My_data$[ebp]
  00012	89 45 f0	 mov	 DWORD PTR __Myfirst$[ebp], eax

; 1386 :         pointer& _Mylast  = _My_data._Mylast;

  00015	8b 45 fc	 mov	 eax, DWORD PTR __My_data$[ebp]
  00018	83 c0 04	 add	 eax, 4
  0001b	89 45 f4	 mov	 DWORD PTR __Mylast$[ebp], eax

; 1387 : 
; 1388 :         _My_data._Orphan_all();
; 1389 :         _Destroy(_Myfirst, _Mylast);

  0001e	8b 45 f4	 mov	 eax, DWORD PTR __Mylast$[ebp]
  00021	8b 00		 mov	 eax, DWORD PTR [eax]
  00023	89 45 e4	 mov	 DWORD PTR __Last$[ebp], eax
  00026	8b 45 f0	 mov	 eax, DWORD PTR __Myfirst$[ebp]
  00029	8b 00		 mov	 eax, DWORD PTR [eax]
  0002b	89 45 e0	 mov	 DWORD PTR __First$[ebp], eax

; 1733 :         return _Mypair._Get_first();

  0002e	8b 45 f8	 mov	 eax, DWORD PTR _this$[ebp]
; File C:\Program Files (x86)\Microsoft Visual Studio\2019\Community\VC\Tools\MSVC\14.28.29333\include\xmemory

; 1347 :         return *this;

  00031	89 45 ec	 mov	 DWORD PTR $T2[ebp], eax
; File C:\Program Files (x86)\Microsoft Visual Studio\2019\Community\VC\Tools\MSVC\14.28.29333\include\vector

; 1733 :         return _Mypair._Get_first();

  00034	8b 45 ec	 mov	 eax, DWORD PTR $T2[ebp]
  00037	89 45 e8	 mov	 DWORD PTR $T1[ebp], eax

; 1612 :         _Destroy_range(_First, _Last, _Getal());

  0003a	ff 75 e8	 push	 DWORD PTR $T1[ebp]
  0003d	ff 75 e4	 push	 DWORD PTR __Last$[ebp]
  00040	ff 75 e0	 push	 DWORD PTR __First$[ebp]
  00043	e8 00 00 00 00	 call	 ??$_Destroy_range@V?$allocator@PAVCLightData@@@std@@@std@@YAXPAPAVCLightData@@QAPAV1@AAV?$allocator@PAVCLightData@@@0@@Z ; std::_Destroy_range<std::allocator<CLightData *> >
  00048	83 c4 0c	 add	 esp, 12			; 0000000cH

; 1390 :         _Mylast = _Myfirst;

  0004b	8b 45 f4	 mov	 eax, DWORD PTR __Mylast$[ebp]
  0004e	8b 4d f0	 mov	 ecx, DWORD PTR __Myfirst$[ebp]
  00051	8b 09		 mov	 ecx, DWORD PTR [ecx]
  00053	89 08		 mov	 DWORD PTR [eax], ecx

; 1391 :     }

  00055	c9		 leave
  00056	c3		 ret	 0
?clear@?$vector@PAVCLightData@@V?$allocator@PAVCLightData@@@std@@@std@@QAEXXZ ENDP ; std::vector<CLightData *,std::allocator<CLightData *> >::clear
_TEXT	ENDS
; Function compile flags: /Odspy
; File C:\Program Files (x86)\Microsoft Visual Studio\2019\Community\VC\Tools\MSVC\14.28.29333\include\xmemory
;	COMDAT ?deallocate@?$allocator@PAVCLightData@@@std@@QAEXQAPAVCLightData@@I@Z
_TEXT	SEGMENT
_this$ = -4						; size = 4
__Ptr$ = 8						; size = 4
__Count$ = 12						; size = 4
?deallocate@?$allocator@PAVCLightData@@@std@@QAEXQAPAVCLightData@@I@Z PROC ; std::allocator<CLightData *>::deallocate, COMDAT
; _this$ = ecx

; 808  :     void deallocate(_Ty* const _Ptr, const size_t _Count) {

  00000	55		 push	 ebp
  00001	8b ec		 mov	 ebp, esp
  00003	51		 push	 ecx
  00004	89 4d fc	 mov	 DWORD PTR _this$[ebp], ecx

; 809  :         // no overflow check on the following multiply; we assume _Allocate did that check
; 810  :         _Deallocate<_New_alignof<_Ty>>(_Ptr, sizeof(_Ty) * _Count);

  00007	8b 45 0c	 mov	 eax, DWORD PTR __Count$[ebp]
  0000a	c1 e0 02	 shl	 eax, 2
  0000d	50		 push	 eax
  0000e	ff 75 08	 push	 DWORD PTR __Ptr$[ebp]
  00011	e8 00 00 00 00	 call	 ??$_Deallocate@$07$0A@@std@@YAXPAXI@Z ; std::_Deallocate<8,0>
  00016	59		 pop	 ecx
  00017	59		 pop	 ecx

; 811  :     }

  00018	c9		 leave
  00019	c2 08 00	 ret	 8
?deallocate@?$allocator@PAVCLightData@@@std@@QAEXQAPAVCLightData@@I@Z ENDP ; std::allocator<CLightData *>::deallocate
_TEXT	ENDS
; Function compile flags: /Odspy
; File D:\Metin2 Server Files\mainline\SRC_2014\Metin2Client\eterLib\Pool.h
;	COMDAT ?Delete@?$CDynamicPool@VCLightData@@@@KAXPAVCLightData@@@Z
_TEXT	SEGMENT
tv74 = -8						; size = 4
$T1 = -4						; size = 4
_pkData$ = 8						; size = 4
?Delete@?$CDynamicPool@VCLightData@@@@KAXPAVCLightData@@@Z PROC ; CDynamicPool<CLightData>::Delete, COMDAT

; 109  : 		{

  00000	55		 push	 ebp
  00001	8b ec		 mov	 ebp, esp
  00003	51		 push	 ecx
  00004	51		 push	 ecx

; 110  : 			delete pkData;

  00005	8b 45 08	 mov	 eax, DWORD PTR _pkData$[ebp]
  00008	89 45 fc	 mov	 DWORD PTR $T1[ebp], eax
  0000b	83 7d fc 00	 cmp	 DWORD PTR $T1[ebp], 0
  0000f	74 11		 je	 SHORT $LN3@Delete
  00011	6a 01		 push	 1
  00013	8b 45 fc	 mov	 eax, DWORD PTR $T1[ebp]
  00016	8b 00		 mov	 eax, DWORD PTR [eax]
  00018	8b 4d fc	 mov	 ecx, DWORD PTR $T1[ebp]
  0001b	ff 10		 call	 DWORD PTR [eax]
  0001d	89 45 f8	 mov	 DWORD PTR tv74[ebp], eax
  00020	eb 04		 jmp	 SHORT $LN1@Delete
$LN3@Delete:
  00022	83 65 f8 00	 and	 DWORD PTR tv74[ebp], 0
$LN1@Delete:

; 111  : 		}

  00026	c9		 leave
  00027	c3		 ret	 0
?Delete@?$CDynamicPool@VCLightData@@@@KAXPAVCLightData@@@Z ENDP ; CDynamicPool<CLightData>::Delete
_TEXT	ENDS
; Function compile flags: /Odspy
; File D:\Metin2 Server Files\mainline\SRC_2014\Metin2Client\eterLib\Pool.h
; File C:\Program Files (x86)\Microsoft Visual Studio\2019\Community\VC\Tools\MSVC\14.28.29333\include\vector
; File D:\Metin2 Server Files\mainline\SRC_2014\Metin2Client\eterLib\Pool.h
; File C:\Program Files (x86)\Microsoft Visual Studio\2019\Community\VC\Tools\MSVC\14.28.29333\include\vector
; File D:\Metin2 Server Files\mainline\SRC_2014\Metin2Client\eterLib\Pool.h
; File C:\Program Files (x86)\Microsoft Visual Studio\2019\Community\VC\Tools\MSVC\14.28.29333\include\vector
; File D:\Metin2 Server Files\mainline\SRC_2014\Metin2Client\eterLib\Pool.h
; File C:\Program Files (x86)\Microsoft Visual Studio\2019\Community\VC\Tools\MSVC\14.28.29333\include\vector
; File D:\Metin2 Server Files\mainline\SRC_2014\Metin2Client\eterLib\Pool.h
; File C:\Program Files (x86)\Microsoft Visual Studio\2019\Community\VC\Tools\MSVC\14.28.29333\include\vector
; File C:\Program Files (x86)\Microsoft Visual Studio\2019\Community\VC\Tools\MSVC\14.28.29333\include\xstddef
; File C:\Program Files (x86)\Microsoft Visual Studio\2019\Community\VC\Tools\MSVC\14.28.29333\include\vector
; File C:\Program Files (x86)\Microsoft Visual Studio\2019\Community\VC\Tools\MSVC\14.28.29333\include\xmemory
; File C:\Program Files (x86)\Microsoft Visual Studio\2019\Community\VC\Tools\MSVC\14.28.29333\include\vector
; File D:\Metin2 Server Files\mainline\SRC_2014\Metin2Client\eterLib\Pool.h
;	COMDAT ?Alloc@?$CDynamicPool@VCLightData@@@@QAEPAVCLightData@@XZ
_TEXT	SEGMENT
$T2 = -84						; size = 4
$T3 = -80						; size = 4
_pkFreeData$ = -76					; size = 4
$T4 = -72						; size = 4
__Ptr$ = -68						; size = 4
__My_data$5 = -64					; size = 4
$T6 = -60						; size = 4
__My_data$7 = -56					; size = 4
$T8 = -52						; size = 4
_this$ = -48						; size = 4
_pkNewData$9 = -44					; size = 4
tv80 = -40						; size = 4
$T10 = -36						; size = 4
tv130 = -32						; size = 4
__My_data$11 = -28					; size = 4
__Mylast$12 = -24					; size = 4
_this$ = -20						; size = 4
$T13 = -13						; size = 1
__$EHRec$ = -12						; size = 12
?Alloc@?$CDynamicPool@VCLightData@@@@QAEPAVCLightData@@XZ PROC ; CDynamicPool<CLightData>::Alloc, COMDAT
; _this$ = ecx

; 62   : 		{

  00000	55		 push	 ebp
  00001	8b ec		 mov	 ebp, esp
  00003	6a ff		 push	 -1
  00005	68 00 00 00 00	 push	 __ehhandler$?Alloc@?$CDynamicPool@VCLightData@@@@QAEPAVCLightData@@XZ
  0000a	64 a1 00 00 00
	00		 mov	 eax, DWORD PTR fs:0
  00010	50		 push	 eax
  00011	83 ec 48	 sub	 esp, 72			; 00000048H
  00014	a1 00 00 00 00	 mov	 eax, DWORD PTR ___security_cookie
  00019	33 c5		 xor	 eax, ebp
  0001b	50		 push	 eax
  0001c	8d 45 f4	 lea	 eax, DWORD PTR __$EHRec$[ebp]
  0001f	64 a3 00 00 00
	00		 mov	 DWORD PTR fs:0, eax
  00025	89 4d ec	 mov	 DWORD PTR _this$[ebp], ecx
; File C:\Program Files (x86)\Microsoft Visual Studio\2019\Community\VC\Tools\MSVC\14.28.29333\include\vector

; 1478 :         auto& _My_data = _Mypair._Myval2;

  00028	8b 45 ec	 mov	 eax, DWORD PTR _this$[ebp]
  0002b	83 c0 10	 add	 eax, 16			; 00000010H
  0002e	89 45 e4	 mov	 DWORD PTR __My_data$11[ebp], eax

; 1479 :         return _My_data._Myfirst == _My_data._Mylast;

  00031	8b 45 e4	 mov	 eax, DWORD PTR __My_data$11[ebp]
  00034	8b 4d e4	 mov	 ecx, DWORD PTR __My_data$11[ebp]
  00037	8b 00		 mov	 eax, DWORD PTR [eax]
  00039	3b 41 04	 cmp	 eax, DWORD PTR [ecx+4]
  0003c	75 09		 jne	 SHORT $LN9@Alloc
  0003e	c7 45 e0 01 00
	00 00		 mov	 DWORD PTR tv130[ebp], 1
  00045	eb 04		 jmp	 SHORT $LN10@Alloc
$LN9@Alloc:
  00047	83 65 e0 00	 and	 DWORD PTR tv130[ebp], 0
$LN10@Alloc:
  0004b	8a 45 e0	 mov	 al, BYTE PTR tv130[ebp]
  0004e	88 45 f3	 mov	 BYTE PTR $T13[ebp], al
; File D:\Metin2 Server Files\mainline\SRC_2014\Metin2Client\eterLib\Pool.h

; 63   : 			if (m_kVct_pkFree.empty())

  00051	0f b6 45 f3	 movzx	 eax, BYTE PTR $T13[ebp]
  00055	85 c0		 test	 eax, eax
  00057	74 57		 je	 SHORT $LN2@Alloc

; 64   : 			{
; 65   : 				T* pkNewData=new T;

  00059	6a 5c		 push	 92			; 0000005cH
  0005b	e8 00 00 00 00	 call	 ??2@YAPAXI@Z		; operator new
  00060	59		 pop	 ecx
  00061	89 45 dc	 mov	 DWORD PTR $T10[ebp], eax
  00064	83 65 fc 00	 and	 DWORD PTR __$EHRec$[ebp+8], 0
  00068	83 7d dc 00	 cmp	 DWORD PTR $T10[ebp], 0
  0006c	74 0d		 je	 SHORT $LN4@Alloc
  0006e	8b 4d dc	 mov	 ecx, DWORD PTR $T10[ebp]
  00071	e8 00 00 00 00	 call	 ??0CLightData@@QAE@XZ	; CLightData::CLightData
  00076	89 45 d8	 mov	 DWORD PTR tv80[ebp], eax
  00079	eb 04		 jmp	 SHORT $LN5@Alloc
$LN4@Alloc:
  0007b	83 65 d8 00	 and	 DWORD PTR tv80[ebp], 0
$LN5@Alloc:
  0007f	8b 45 d8	 mov	 eax, DWORD PTR tv80[ebp]
  00082	89 45 cc	 mov	 DWORD PTR $T8[ebp], eax
  00085	83 4d fc ff	 or	 DWORD PTR __$EHRec$[ebp+8], -1
  00089	8b 45 cc	 mov	 eax, DWORD PTR $T8[ebp]
  0008c	89 45 d4	 mov	 DWORD PTR _pkNewData$9[ebp], eax
; File C:\Program Files (x86)\Microsoft Visual Studio\2019\Community\VC\Tools\MSVC\14.28.29333\include\vector

; 717  :         emplace_back(_Val);

  0008f	8d 45 d4	 lea	 eax, DWORD PTR _pkNewData$9[ebp]
  00092	50		 push	 eax
; File D:\Metin2 Server Files\mainline\SRC_2014\Metin2Client\eterLib\Pool.h

; 66   : 				m_kVct_pkData.push_back(pkNewData);

  00093	8b 4d ec	 mov	 ecx, DWORD PTR _this$[ebp]
  00096	83 c1 04	 add	 ecx, 4
; File C:\Program Files (x86)\Microsoft Visual Studio\2019\Community\VC\Tools\MSVC\14.28.29333\include\vector

; 717  :         emplace_back(_Val);

  00099	e8 00 00 00 00	 call	 ??$emplace_back@ABQAVCLightData@@@?$vector@PAVCLightData@@V?$allocator@PAVCLightData@@@std@@@std@@QAEXABQAVCLightData@@@Z ; std::vector<CLightData *,std::allocator<CLightData *> >::emplace_back<CLightData * const &>
; File D:\Metin2 Server Files\mainline\SRC_2014\Metin2Client\eterLib\Pool.h

; 67   : 				++m_uUsedCapacity;

  0009e	8b 45 ec	 mov	 eax, DWORD PTR _this$[ebp]
  000a1	8b 40 20	 mov	 eax, DWORD PTR [eax+32]
  000a4	40		 inc	 eax
  000a5	8b 4d ec	 mov	 ecx, DWORD PTR _this$[ebp]
  000a8	89 41 20	 mov	 DWORD PTR [ecx+32], eax

; 68   : 				return pkNewData;

  000ab	8b 45 d4	 mov	 eax, DWORD PTR _pkNewData$9[ebp]
  000ae	eb 65		 jmp	 SHORT $LN1@Alloc
$LN2@Alloc:
; File C:\Program Files (x86)\Microsoft Visual Studio\2019\Community\VC\Tools\MSVC\14.28.29333\include\vector

; 1554 :         auto& _My_data = _Mypair._Myval2;

  000b0	8b 45 ec	 mov	 eax, DWORD PTR _this$[ebp]
  000b3	83 c0 10	 add	 eax, 16			; 00000010H
  000b6	89 45 c8	 mov	 DWORD PTR __My_data$7[ebp], eax

; 1555 : #if _CONTAINER_DEBUG_LEVEL > 0
; 1556 :         _STL_VERIFY(_My_data._Myfirst != _My_data._Mylast, "back() called on empty vector");
; 1557 : #endif // _CONTAINER_DEBUG_LEVEL > 0
; 1558 : 
; 1559 :         return _My_data._Mylast[-1];

  000b9	6a 04		 push	 4
  000bb	58		 pop	 eax
  000bc	6b c0 ff	 imul	 eax, eax, -1
  000bf	8b 4d c8	 mov	 ecx, DWORD PTR __My_data$7[ebp]
  000c2	03 41 04	 add	 eax, DWORD PTR [ecx+4]
  000c5	89 45 c4	 mov	 DWORD PTR $T6[ebp], eax
; File D:\Metin2 Server Files\mainline\SRC_2014\Metin2Client\eterLib\Pool.h

; 71   : 			T* pkFreeData=m_kVct_pkFree.back();

  000c8	8b 45 c4	 mov	 eax, DWORD PTR $T6[ebp]
  000cb	8b 00		 mov	 eax, DWORD PTR [eax]
  000cd	89 45 b4	 mov	 DWORD PTR _pkFreeData$[ebp], eax

; 72   : 			m_kVct_pkFree.pop_back();

  000d0	8b 45 ec	 mov	 eax, DWORD PTR _this$[ebp]
  000d3	83 c0 10	 add	 eax, 16			; 00000010H
  000d6	89 45 d0	 mov	 DWORD PTR _this$[ebp], eax
; File C:\Program Files (x86)\Microsoft Visual Studio\2019\Community\VC\Tools\MSVC\14.28.29333\include\vector

; 1329 :         auto& _My_data   = _Mypair._Myval2;

  000d9	8b 45 d0	 mov	 eax, DWORD PTR _this$[ebp]
  000dc	89 45 c0	 mov	 DWORD PTR __My_data$5[ebp], eax

; 1330 :         pointer& _Mylast = _My_data._Mylast;

  000df	8b 45 c0	 mov	 eax, DWORD PTR __My_data$5[ebp]
  000e2	83 c0 04	 add	 eax, 4
  000e5	89 45 e8	 mov	 DWORD PTR __Mylast$12[ebp], eax

; 1331 : 
; 1332 : #if _ITERATOR_DEBUG_LEVEL == 2
; 1333 :         _STL_VERIFY(_My_data._Myfirst != _Mylast, "vector empty before pop");
; 1334 :         _Orphan_range(_Mylast - 1, _Mylast);
; 1335 : #endif // _ITERATOR_DEBUG_LEVEL == 2
; 1336 : 
; 1337 :         _Alty_traits::destroy(_Getal(), _Unfancy(_Mylast - 1));

  000e8	8b 45 e8	 mov	 eax, DWORD PTR __Mylast$12[ebp]
  000eb	8b 00		 mov	 eax, DWORD PTR [eax]
  000ed	83 e8 04	 sub	 eax, 4
  000f0	89 45 bc	 mov	 DWORD PTR __Ptr$[ebp], eax
; File C:\Program Files (x86)\Microsoft Visual Studio\2019\Community\VC\Tools\MSVC\14.28.29333\include\xstddef

; 289  :     return _Ptr;

  000f3	8b 45 bc	 mov	 eax, DWORD PTR __Ptr$[ebp]
  000f6	89 45 b0	 mov	 DWORD PTR $T3[ebp], eax
; File C:\Program Files (x86)\Microsoft Visual Studio\2019\Community\VC\Tools\MSVC\14.28.29333\include\vector

; 1733 :         return _Mypair._Get_first();

  000f9	8b 45 d0	 mov	 eax, DWORD PTR _this$[ebp]
; File C:\Program Files (x86)\Microsoft Visual Studio\2019\Community\VC\Tools\MSVC\14.28.29333\include\xmemory

; 1347 :         return *this;

  000fc	89 45 b8	 mov	 DWORD PTR $T4[ebp], eax
; File C:\Program Files (x86)\Microsoft Visual Studio\2019\Community\VC\Tools\MSVC\14.28.29333\include\vector

; 1733 :         return _Mypair._Get_first();

  000ff	8b 45 b8	 mov	 eax, DWORD PTR $T4[ebp]
  00102	89 45 ac	 mov	 DWORD PTR $T2[ebp], eax

; 1338 :         --_Mylast;

  00105	8b 45 e8	 mov	 eax, DWORD PTR __Mylast$12[ebp]
  00108	8b 00		 mov	 eax, DWORD PTR [eax]
  0010a	83 e8 04	 sub	 eax, 4
  0010d	8b 4d e8	 mov	 ecx, DWORD PTR __Mylast$12[ebp]
  00110	89 01		 mov	 DWORD PTR [ecx], eax
; File D:\Metin2 Server Files\mainline\SRC_2014\Metin2Client\eterLib\Pool.h

; 73   : 			return pkFreeData;

  00112	8b 45 b4	 mov	 eax, DWORD PTR _pkFreeData$[ebp]
$LN1@Alloc:

; 74   : 		}

  00115	8b 4d f4	 mov	 ecx, DWORD PTR __$EHRec$[ebp]
  00118	64 89 0d 00 00
	00 00		 mov	 DWORD PTR fs:0, ecx
  0011f	59		 pop	 ecx
  00120	c9		 leave
  00121	c3		 ret	 0
_TEXT	ENDS
;	COMDAT text$x
text$x	SEGMENT
__unwindfunclet$?Alloc@?$CDynamicPool@VCLightData@@@@QAEPAVCLightData@@XZ$0:
  00000	6a 5c		 push	 92			; 0000005cH
  00002	ff 75 dc	 push	 DWORD PTR $T10[ebp]
  00005	e8 00 00 00 00	 call	 ??3@YAXPAXI@Z		; operator delete
  0000a	59		 pop	 ecx
  0000b	59		 pop	 ecx
  0000c	c3		 ret	 0
  0000d	cc		 int	 3
  0000e	cc		 int	 3
  0000f	cc		 int	 3
  00010	cc		 int	 3
  00011	cc		 int	 3
__ehhandler$?Alloc@?$CDynamicPool@VCLightData@@@@QAEPAVCLightData@@XZ:
  00012	90		 npad	 1
  00013	90		 npad	 1
  00014	8b 54 24 08	 mov	 edx, DWORD PTR [esp+8]
  00018	8d 42 0c	 lea	 eax, DWORD PTR [edx+12]
  0001b	8b 4a b4	 mov	 ecx, DWORD PTR [edx-76]
  0001e	33 c8		 xor	 ecx, eax
  00020	e8 00 00 00 00	 call	 @__security_check_cookie@4
  00025	b8 00 00 00 00	 mov	 eax, OFFSET __ehfuncinfo$?Alloc@?$CDynamicPool@VCLightData@@@@QAEPAVCLightData@@XZ
  0002a	e9 00 00 00 00	 jmp	 ___CxxFrameHandler3
text$x	ENDS
?Alloc@?$CDynamicPool@VCLightData@@@@QAEPAVCLightData@@XZ ENDP ; CDynamicPool<CLightData>::Alloc
; Function compile flags: /Odspy
; File D:\Metin2 Server Files\mainline\SRC_2014\Metin2Client\eterLib\Pool.h
; File C:\Program Files (x86)\Microsoft Visual Studio\2019\Community\VC\Tools\MSVC\14.28.29333\include\vector
; File C:\Program Files (x86)\Microsoft Visual Studio\2019\Community\VC\Tools\MSVC\14.28.29333\include\xstddef
; File C:\Program Files (x86)\Microsoft Visual Studio\2019\Community\VC\Tools\MSVC\14.28.29333\include\vector
; File C:\Program Files (x86)\Microsoft Visual Studio\2019\Community\VC\Tools\MSVC\14.28.29333\include\xstddef
; File C:\Program Files (x86)\Microsoft Visual Studio\2019\Community\VC\Tools\MSVC\14.28.29333\include\vector
; File D:\Metin2 Server Files\mainline\SRC_2014\Metin2Client\eterLib\Pool.h
;	COMDAT ?Destroy@?$CDynamicPool@VCLightData@@@@QAEXXZ
_TEXT	SEGMENT
$T1 = -44						; size = 4
$T2 = -40						; size = 4
$T3 = -36						; size = 4
$T4 = -32						; size = 4
$T5 = -28						; size = 4
___param0$ = -24					; size = 4
$T6 = -20						; size = 4
___param0$ = -16					; size = 4
__My_data$7 = -12					; size = 4
__My_data$8 = -8					; size = 4
_this$ = -4						; size = 4
?Destroy@?$CDynamicPool@VCLightData@@@@QAEXXZ PROC	; CDynamicPool<CLightData>::Destroy, COMDAT
; _this$ = ecx

; 38   : 		{

  00000	55		 push	 ebp
  00001	8b ec		 mov	 ebp, esp
  00003	83 ec 2c	 sub	 esp, 44			; 0000002cH
  00006	89 4d fc	 mov	 DWORD PTR _this$[ebp], ecx
; File C:\Program Files (x86)\Microsoft Visual Studio\2019\Community\VC\Tools\MSVC\14.28.29333\include\vector

; 1420 :         auto& _My_data = _Mypair._Myval2;

  00009	8b 45 fc	 mov	 eax, DWORD PTR _this$[ebp]
  0000c	83 c0 04	 add	 eax, 4
  0000f	89 45 f8	 mov	 DWORD PTR __My_data$8[ebp], eax
; File C:\Program Files (x86)\Microsoft Visual Studio\2019\Community\VC\Tools\MSVC\14.28.29333\include\xstddef

; 275  :     return __builtin_addressof(_Val);

  00012	8b 45 f8	 mov	 eax, DWORD PTR __My_data$8[ebp]
  00015	89 45 d8	 mov	 DWORD PTR $T2[ebp], eax
; File C:\Program Files (x86)\Microsoft Visual Studio\2019\Community\VC\Tools\MSVC\14.28.29333\include\vector

; 1421 :         return iterator(_My_data._Mylast, _STD addressof(_My_data));

  00018	8b 45 f8	 mov	 eax, DWORD PTR __My_data$8[ebp]
  0001b	8b 40 04	 mov	 eax, DWORD PTR [eax+4]
  0001e	89 45 f0	 mov	 DWORD PTR ___param0$[ebp], eax

; 42   :     _Vector_const_iterator(_Tptr _Parg, const _Container_base* _Pvector) noexcept : _Ptr(_Parg) {

  00021	8b 45 f0	 mov	 eax, DWORD PTR ___param0$[ebp]
  00024	89 45 ec	 mov	 DWORD PTR $T6[ebp], eax

; 1421 :         return iterator(_My_data._Mylast, _STD addressof(_My_data));

  00027	8d 45 ec	 lea	 eax, DWORD PTR $T6[ebp]
  0002a	89 45 e0	 mov	 DWORD PTR $T4[ebp], eax

; 1410 :         auto& _My_data = _Mypair._Myval2;

  0002d	8b 45 fc	 mov	 eax, DWORD PTR _this$[ebp]
  00030	83 c0 04	 add	 eax, 4
  00033	89 45 f4	 mov	 DWORD PTR __My_data$7[ebp], eax
; File C:\Program Files (x86)\Microsoft Visual Studio\2019\Community\VC\Tools\MSVC\14.28.29333\include\xstddef

; 275  :     return __builtin_addressof(_Val);

  00036	8b 45 f4	 mov	 eax, DWORD PTR __My_data$7[ebp]
  00039	89 45 d4	 mov	 DWORD PTR $T1[ebp], eax
; File C:\Program Files (x86)\Microsoft Visual Studio\2019\Community\VC\Tools\MSVC\14.28.29333\include\vector

; 1411 :         return iterator(_My_data._Myfirst, _STD addressof(_My_data));

  0003c	8b 45 f4	 mov	 eax, DWORD PTR __My_data$7[ebp]
  0003f	8b 00		 mov	 eax, DWORD PTR [eax]
  00041	89 45 e8	 mov	 DWORD PTR ___param0$[ebp], eax

; 42   :     _Vector_const_iterator(_Tptr _Parg, const _Container_base* _Pvector) noexcept : _Ptr(_Parg) {

  00044	8b 45 e8	 mov	 eax, DWORD PTR ___param0$[ebp]
  00047	89 45 e4	 mov	 DWORD PTR $T5[ebp], eax

; 1411 :         return iterator(_My_data._Myfirst, _STD addressof(_My_data));

  0004a	8d 45 e4	 lea	 eax, DWORD PTR $T5[ebp]
  0004d	89 45 dc	 mov	 DWORD PTR $T3[ebp], eax
; File D:\Metin2 Server Files\mainline\SRC_2014\Metin2Client\eterLib\Pool.h

; 50   : 			std::for_each(m_kVct_pkData.begin(), m_kVct_pkData.end(), Delete);

  00050	68 00 00 00 00	 push	 OFFSET ?Delete@?$CDynamicPool@VCLightData@@@@KAXPAVCLightData@@@Z ; CDynamicPool<CLightData>::Delete
  00055	8b 45 e0	 mov	 eax, DWORD PTR $T4[ebp]
  00058	ff 30		 push	 DWORD PTR [eax]
  0005a	8b 45 dc	 mov	 eax, DWORD PTR $T3[ebp]
  0005d	ff 30		 push	 DWORD PTR [eax]
  0005f	e8 00 00 00 00	 call	 ??$for_each@V?$_Vector_iterator@V?$_Vector_val@U?$_Simple_types@PAVCLightData@@@std@@@std@@@std@@P6AXPAVCLightData@@@Z@std@@YAP6AXPAVCLightData@@@ZV?$_Vector_iterator@V?$_Vector_val@U?$_Simple_types@PAVCLightData@@@std@@@std@@@0@1P6AX0@Z@Z ; std::for_each<std::_Vector_iterator<std::_Vector_val<std::_Simple_types<CLightData *> > >,void (__cdecl*)(CLightData *)>
  00064	83 c4 0c	 add	 esp, 12			; 0000000cH

; 51   : 			m_kVct_pkData.clear();

  00067	8b 4d fc	 mov	 ecx, DWORD PTR _this$[ebp]
  0006a	83 c1 04	 add	 ecx, 4
  0006d	e8 00 00 00 00	 call	 ?clear@?$vector@PAVCLightData@@V?$allocator@PAVCLightData@@@std@@@std@@QAEXXZ ; std::vector<CLightData *,std::allocator<CLightData *> >::clear

; 52   : 			m_kVct_pkFree.clear();

  00072	8b 4d fc	 mov	 ecx, DWORD PTR _this$[ebp]
  00075	83 c1 10	 add	 ecx, 16			; 00000010H
  00078	e8 00 00 00 00	 call	 ?clear@?$vector@PAVCLightData@@V?$allocator@PAVCLightData@@@std@@@std@@QAEXXZ ; std::vector<CLightData *,std::allocator<CLightData *> >::clear

; 53   : 		}

  0007d	c9		 leave
  0007e	c3		 ret	 0
?Destroy@?$CDynamicPool@VCLightData@@@@QAEXXZ ENDP	; CDynamicPool<CLightData>::Destroy
_TEXT	ENDS
; Function compile flags: /Odspy
; File D:\Metin2 Server Files\mainline\SRC_2014\Metin2Client\eterLib\Pool.h
; File C:\Program Files (x86)\Microsoft Visual Studio\2019\Community\VC\Tools\MSVC\14.28.29333\include\vector
; File D:\Metin2 Server Files\mainline\SRC_2014\Metin2Client\eterLib\Pool.h
; File C:\Program Files (x86)\Microsoft Visual Studio\2019\Community\VC\Tools\MSVC\14.28.29333\include\vector
; File D:\Metin2 Server Files\mainline\SRC_2014\Metin2Client\eterLib\Pool.h
;	COMDAT ??1?$CDynamicPool@VCLightData@@@@UAE@XZ
_TEXT	SEGMENT
_this$ = -4						; size = 4
??1?$CDynamicPool@VCLightData@@@@UAE@XZ PROC		; CDynamicPool<CLightData>::~CDynamicPool<CLightData>, COMDAT
; _this$ = ecx

; 18   : 		{

  00000	55		 push	 ebp
  00001	8b ec		 mov	 ebp, esp
  00003	51		 push	 ecx
  00004	89 4d fc	 mov	 DWORD PTR _this$[ebp], ecx
  00007	8b 45 fc	 mov	 eax, DWORD PTR _this$[ebp]
  0000a	c7 00 00 00 00
	00		 mov	 DWORD PTR [eax], OFFSET ??_7?$CDynamicPool@VCLightData@@@@6B@

; 26   : 		}

  00010	8b 4d fc	 mov	 ecx, DWORD PTR _this$[ebp]
  00013	83 c1 10	 add	 ecx, 16			; 00000010H
; File C:\Program Files (x86)\Microsoft Visual Studio\2019\Community\VC\Tools\MSVC\14.28.29333\include\vector

; 673  :         _Tidy();

  00016	e8 00 00 00 00	 call	 ?_Tidy@?$vector@PAVCLightData@@V?$allocator@PAVCLightData@@@std@@@std@@AAEXXZ ; std::vector<CLightData *,std::allocator<CLightData *> >::_Tidy
; File D:\Metin2 Server Files\mainline\SRC_2014\Metin2Client\eterLib\Pool.h

; 26   : 		}

  0001b	8b 4d fc	 mov	 ecx, DWORD PTR _this$[ebp]
  0001e	83 c1 04	 add	 ecx, 4
; File C:\Program Files (x86)\Microsoft Visual Studio\2019\Community\VC\Tools\MSVC\14.28.29333\include\vector

; 673  :         _Tidy();

  00021	e8 00 00 00 00	 call	 ?_Tidy@?$vector@PAVCLightData@@V?$allocator@PAVCLightData@@@std@@@std@@AAEXXZ ; std::vector<CLightData *,std::allocator<CLightData *> >::_Tidy
; File D:\Metin2 Server Files\mainline\SRC_2014\Metin2Client\eterLib\Pool.h

; 26   : 		}

  00026	c9		 leave
  00027	c3		 ret	 0
??1?$CDynamicPool@VCLightData@@@@UAE@XZ ENDP		; CDynamicPool<CLightData>::~CDynamicPool<CLightData>
_TEXT	ENDS
; Function compile flags: /Odspy
; File D:\Metin2 Server Files\mainline\SRC_2014\Metin2Client\eterLib\Pool.h
; File C:\Program Files (x86)\Microsoft Visual Studio\2019\Community\VC\Tools\MSVC\14.28.29333\include\vector
; File C:\Program Files (x86)\Microsoft Visual Studio\2019\Community\VC\Tools\MSVC\14.28.29333\include\xmemory
; File C:\Program Files (x86)\Microsoft Visual Studio\2019\Community\VC\Tools\MSVC\14.28.29333\include\vector
; File D:\Metin2 Server Files\mainline\SRC_2014\Metin2Client\eterLib\Pool.h
; File C:\Program Files (x86)\Microsoft Visual Studio\2019\Community\VC\Tools\MSVC\14.28.29333\include\vector
; File C:\Program Files (x86)\Microsoft Visual Studio\2019\Community\VC\Tools\MSVC\14.28.29333\include\xmemory
; File C:\Program Files (x86)\Microsoft Visual Studio\2019\Community\VC\Tools\MSVC\14.28.29333\include\vector
; File D:\Metin2 Server Files\mainline\SRC_2014\Metin2Client\eterLib\Pool.h
;	COMDAT ??0?$CDynamicPool@VCLightData@@@@QAE@XZ
_TEXT	SEGMENT
_this$ = -28						; size = 4
_this$ = -24						; size = 4
_this$ = -20						; size = 4
_this$ = -16						; size = 4
_this$1 = -12						; size = 4
_this$2 = -8						; size = 4
_this$ = -4						; size = 4
??0?$CDynamicPool@VCLightData@@@@QAE@XZ PROC		; CDynamicPool<CLightData>::CDynamicPool<CLightData>, COMDAT
; _this$ = ecx

; 11   : 		CDynamicPool()

  00000	55		 push	 ebp
  00001	8b ec		 mov	 ebp, esp
  00003	83 ec 1c	 sub	 esp, 28			; 0000001cH
  00006	89 4d fc	 mov	 DWORD PTR _this$[ebp], ecx

; 12   : 		{

  00009	8b 45 fc	 mov	 eax, DWORD PTR _this$[ebp]
  0000c	c7 00 00 00 00
	00		 mov	 DWORD PTR [eax], OFFSET ??_7?$CDynamicPool@VCLightData@@@@6B@
  00012	8b 45 fc	 mov	 eax, DWORD PTR _this$[ebp]
  00015	83 c0 04	 add	 eax, 4
  00018	89 45 f0	 mov	 DWORD PTR _this$[ebp], eax
; File C:\Program Files (x86)\Microsoft Visual Studio\2019\Community\VC\Tools\MSVC\14.28.29333\include\vector

; 445  :     vector() noexcept(is_nothrow_default_constructible_v<_Alty>) : _Mypair(_Zero_then_variadic_args_t{}) {

  0001b	8b 45 f0	 mov	 eax, DWORD PTR _this$[ebp]
  0001e	89 45 ec	 mov	 DWORD PTR _this$[ebp], eax
; File C:\Program Files (x86)\Microsoft Visual Studio\2019\Community\VC\Tools\MSVC\14.28.29333\include\xmemory

; 1339 :         : _Ty1(), _Myval2(_STD forward<_Other2>(_Val2)...) {}

  00021	8b 45 ec	 mov	 eax, DWORD PTR _this$[ebp]
  00024	89 45 f8	 mov	 DWORD PTR _this$2[ebp], eax
; File C:\Program Files (x86)\Microsoft Visual Studio\2019\Community\VC\Tools\MSVC\14.28.29333\include\vector

; 375  :     _Vector_val() noexcept : _Myfirst(), _Mylast(), _Myend() {}

  00027	8b 45 f8	 mov	 eax, DWORD PTR _this$2[ebp]
  0002a	83 20 00	 and	 DWORD PTR [eax], 0
  0002d	8b 45 f8	 mov	 eax, DWORD PTR _this$2[ebp]
  00030	83 60 04 00	 and	 DWORD PTR [eax+4], 0
  00034	8b 45 f8	 mov	 eax, DWORD PTR _this$2[ebp]
  00037	83 60 08 00	 and	 DWORD PTR [eax+8], 0
; File D:\Metin2 Server Files\mainline\SRC_2014\Metin2Client\eterLib\Pool.h

; 12   : 		{

  0003b	8b 45 fc	 mov	 eax, DWORD PTR _this$[ebp]
  0003e	83 c0 10	 add	 eax, 16			; 00000010H
  00041	89 45 e8	 mov	 DWORD PTR _this$[ebp], eax
; File C:\Program Files (x86)\Microsoft Visual Studio\2019\Community\VC\Tools\MSVC\14.28.29333\include\vector

; 445  :     vector() noexcept(is_nothrow_default_constructible_v<_Alty>) : _Mypair(_Zero_then_variadic_args_t{}) {

  00044	8b 45 e8	 mov	 eax, DWORD PTR _this$[ebp]
  00047	89 45 e4	 mov	 DWORD PTR _this$[ebp], eax
; File C:\Program Files (x86)\Microsoft Visual Studio\2019\Community\VC\Tools\MSVC\14.28.29333\include\xmemory

; 1339 :         : _Ty1(), _Myval2(_STD forward<_Other2>(_Val2)...) {}

  0004a	8b 45 e4	 mov	 eax, DWORD PTR _this$[ebp]
  0004d	89 45 f4	 mov	 DWORD PTR _this$1[ebp], eax
; File C:\Program Files (x86)\Microsoft Visual Studio\2019\Community\VC\Tools\MSVC\14.28.29333\include\vector

; 375  :     _Vector_val() noexcept : _Myfirst(), _Mylast(), _Myend() {}

  00050	8b 45 f4	 mov	 eax, DWORD PTR _this$1[ebp]
  00053	83 20 00	 and	 DWORD PTR [eax], 0
  00056	8b 45 f4	 mov	 eax, DWORD PTR _this$1[ebp]
  00059	83 60 04 00	 and	 DWORD PTR [eax+4], 0
  0005d	8b 45 f4	 mov	 eax, DWORD PTR _this$1[ebp]
  00060	83 60 08 00	 and	 DWORD PTR [eax+8], 0
; File D:\Metin2 Server Files\mainline\SRC_2014\Metin2Client\eterLib\Pool.h

; 14   : 			m_uInitCapacity=0;

  00064	8b 45 fc	 mov	 eax, DWORD PTR _this$[ebp]
  00067	83 60 1c 00	 and	 DWORD PTR [eax+28], 0

; 15   : 			m_uUsedCapacity=0;

  0006b	8b 45 fc	 mov	 eax, DWORD PTR _this$[ebp]
  0006e	83 60 20 00	 and	 DWORD PTR [eax+32], 0

; 16   : 		}

  00072	8b 45 fc	 mov	 eax, DWORD PTR _this$[ebp]
  00075	c9		 leave
  00076	c3		 ret	 0
??0?$CDynamicPool@VCLightData@@@@QAE@XZ ENDP		; CDynamicPool<CLightData>::CDynamicPool<CLightData>
_TEXT	ENDS
; Function compile flags: /Odspy
;	COMDAT ??_GCLightData@@UAEPAXI@Z
_TEXT	SEGMENT
_this$ = -4						; size = 4
___flags$ = 8						; size = 4
??_GCLightData@@UAEPAXI@Z PROC				; CLightData::`scalar deleting destructor', COMDAT
; _this$ = ecx
  00000	55		 push	 ebp
  00001	8b ec		 mov	 ebp, esp
  00003	51		 push	 ecx
  00004	89 4d fc	 mov	 DWORD PTR _this$[ebp], ecx
  00007	8b 4d fc	 mov	 ecx, DWORD PTR _this$[ebp]
  0000a	e8 00 00 00 00	 call	 ??1CLightData@@UAE@XZ	; CLightData::~CLightData
  0000f	8b 45 08	 mov	 eax, DWORD PTR ___flags$[ebp]
  00012	83 e0 01	 and	 eax, 1
  00015	74 0c		 je	 SHORT $LN2@scalar
  00017	6a 5c		 push	 92			; 0000005cH
  00019	ff 75 fc	 push	 DWORD PTR _this$[ebp]
  0001c	e8 00 00 00 00	 call	 ??3@YAXPAXI@Z		; operator delete
  00021	59		 pop	 ecx
  00022	59		 pop	 ecx
$LN2@scalar:
  00023	8b 45 fc	 mov	 eax, DWORD PTR _this$[ebp]
  00026	c9		 leave
  00027	c2 04 00	 ret	 4
??_GCLightData@@UAEPAXI@Z ENDP				; CLightData::`scalar deleting destructor'
_TEXT	ENDS
; Function compile flags: /Odspy
; File D:\Metin2 Server Files\mainline\SRC_2014\Metin2Client\EffectLib\SimpleLightData.cpp
; File C:\Program Files (x86)\Microsoft Visual Studio\2019\Community\VC\Tools\MSVC\14.28.29333\include\vector
; File D:\Metin2 Server Files\mainline\SRC_2014\Metin2Client\EffectLib\SimpleLightData.cpp
;	COMDAT ?Delete@CLightData@@SAXPAV1@@Z
_TEXT	SEGMENT
_pkData$ = -4						; size = 4
_pkData$ = 8						; size = 4
?Delete@CLightData@@SAXPAV1@@Z PROC			; CLightData::Delete, COMDAT

; 17   : {

  00000	55		 push	 ebp
  00001	8b ec		 mov	 ebp, esp
  00003	51		 push	 ecx

; 18   : 	pkData->Clear();

  00004	8b 4d 08	 mov	 ecx, DWORD PTR _pkData$[ebp]
  00007	e8 00 00 00 00	 call	 ?Clear@CEffectElementBase@@QAEXXZ ; CEffectElementBase::Clear

; 19   : 	ms_kPool.Free(pkData);

  0000c	8b 45 08	 mov	 eax, DWORD PTR _pkData$[ebp]
  0000f	89 45 fc	 mov	 DWORD PTR _pkData$[ebp], eax
; File C:\Program Files (x86)\Microsoft Visual Studio\2019\Community\VC\Tools\MSVC\14.28.29333\include\vector

; 717  :         emplace_back(_Val);

  00012	8d 45 fc	 lea	 eax, DWORD PTR _pkData$[ebp]
  00015	50		 push	 eax
  00016	b9 10 00 00 00	 mov	 ecx, OFFSET ?ms_kPool@CLightData@@2V?$CDynamicPool@VCLightData@@@@A+16
  0001b	e8 00 00 00 00	 call	 ??$emplace_back@ABQAVCLightData@@@?$vector@PAVCLightData@@V?$allocator@PAVCLightData@@@std@@@std@@QAEXABQAVCLightData@@@Z ; std::vector<CLightData *,std::allocator<CLightData *> >::emplace_back<CLightData * const &>
; File D:\Metin2 Server Files\mainline\SRC_2014\Metin2Client\EffectLib\SimpleLightData.cpp

; 20   : }

  00020	c9		 leave
  00021	c3		 ret	 0
?Delete@CLightData@@SAXPAV1@@Z ENDP			; CLightData::Delete
_TEXT	ENDS
; Function compile flags: /Odspy
; File D:\Metin2 Server Files\mainline\SRC_2014\Metin2Client\EffectLib\SimpleLightData.cpp
;	COMDAT ?New@CLightData@@SAPAV1@XZ
_TEXT	SEGMENT
?New@CLightData@@SAPAV1@XZ PROC				; CLightData::New, COMDAT

; 12   : {

  00000	55		 push	 ebp
  00001	8b ec		 mov	 ebp, esp

; 13   : 	return ms_kPool.Alloc();

  00003	b9 00 00 00 00	 mov	 ecx, OFFSET ?ms_kPool@CLightData@@2V?$CDynamicPool@VCLightData@@@@A ; CLightData::ms_kPool
  00008	e8 00 00 00 00	 call	 ?Alloc@?$CDynamicPool@VCLightData@@@@QAEPAVCLightData@@XZ ; CDynamicPool<CLightData>::Alloc

; 14   : }

  0000d	5d		 pop	 ebp
  0000e	c3		 ret	 0
?New@CLightData@@SAPAV1@XZ ENDP				; CLightData::New
_TEXT	ENDS
; Function compile flags: /Odspy
; File D:\Metin2 Server Files\mainline\SRC_2014\Metin2Client\EffectLib\SimpleLightData.cpp
;	COMDAT ?DestroySystem@CLightData@@SAXXZ
_TEXT	SEGMENT
?DestroySystem@CLightData@@SAXXZ PROC			; CLightData::DestroySystem, COMDAT

; 7    : {

  00000	55		 push	 ebp
  00001	8b ec		 mov	 ebp, esp

; 8    : 	ms_kPool.Destroy();

  00003	b9 00 00 00 00	 mov	 ecx, OFFSET ?ms_kPool@CLightData@@2V?$CDynamicPool@VCLightData@@@@A ; CLightData::ms_kPool
  00008	e8 00 00 00 00	 call	 ?Destroy@?$CDynamicPool@VCLightData@@@@QAEXXZ ; CDynamicPool<CLightData>::Destroy

; 9    : }

  0000d	5d		 pop	 ebp
  0000e	c3		 ret	 0
?DestroySystem@CLightData@@SAXXZ ENDP			; CLightData::DestroySystem
_TEXT	ENDS
; Function compile flags: /Odspy
; File C:\Program Files (x86)\Microsoft Visual Studio\2019\Community\VC\Tools\MSVC\14.28.29333\include\vector
; File C:\Program Files (x86)\Microsoft Visual Studio\2019\Community\VC\Tools\MSVC\14.28.29333\include\xmemory
; File C:\Program Files (x86)\Microsoft Visual Studio\2019\Community\VC\Tools\MSVC\14.28.29333\include\vector
; File C:\Program Files (x86)\Microsoft Visual Studio\2019\Community\VC\Tools\MSVC\14.28.29333\include\xmemory
; File C:\Program Files (x86)\Microsoft Visual Studio\2019\Community\VC\Tools\MSVC\14.28.29333\include\vector
; File C:\Program Files (x86)\Microsoft Visual Studio\2019\Community\VC\Tools\MSVC\14.28.29333\include\xmemory
; File C:\Program Files (x86)\Microsoft Visual Studio\2019\Community\VC\Tools\MSVC\14.28.29333\include\vector
;	COMDAT ?_Tidy@?$vector@V?$CTimeEvent@M@@V?$allocator@V?$CTimeEvent@M@@@std@@@std@@AAEXXZ
_TEXT	SEGMENT
$T1 = -52						; size = 4
__Ptr$ = -48						; size = 4
__Count$ = -44						; size = 4
$T2 = -40						; size = 4
__First$ = -36						; size = 4
__Last$ = -32						; size = 4
$T3 = -28						; size = 4
$T4 = -24						; size = 4
__Myend$ = -20						; size = 4
__Mylast$ = -16						; size = 4
_this$ = -12						; size = 4
__My_data$ = -8						; size = 4
__Myfirst$ = -4						; size = 4
?_Tidy@?$vector@V?$CTimeEvent@M@@V?$allocator@V?$CTimeEvent@M@@@std@@@std@@AAEXXZ PROC ; std::vector<CTimeEvent<float>,std::allocator<CTimeEvent<float> > >::_Tidy, COMDAT
; _this$ = ecx

; 1686 :     void _Tidy() noexcept { // free all storage

  00000	55		 push	 ebp
  00001	8b ec		 mov	 ebp, esp
  00003	83 ec 34	 sub	 esp, 52			; 00000034H
  00006	89 4d f4	 mov	 DWORD PTR _this$[ebp], ecx

; 1687 :         auto& _My_data    = _Mypair._Myval2;

  00009	8b 45 f4	 mov	 eax, DWORD PTR _this$[ebp]
  0000c	89 45 f8	 mov	 DWORD PTR __My_data$[ebp], eax

; 1688 :         pointer& _Myfirst = _My_data._Myfirst;

  0000f	8b 45 f8	 mov	 eax, DWORD PTR __My_data$[ebp]
  00012	89 45 fc	 mov	 DWORD PTR __Myfirst$[ebp], eax

; 1689 :         pointer& _Mylast  = _My_data._Mylast;

  00015	8b 45 f8	 mov	 eax, DWORD PTR __My_data$[ebp]
  00018	83 c0 04	 add	 eax, 4
  0001b	89 45 f0	 mov	 DWORD PTR __Mylast$[ebp], eax

; 1690 :         pointer& _Myend   = _My_data._Myend;

  0001e	8b 45 f8	 mov	 eax, DWORD PTR __My_data$[ebp]
  00021	83 c0 08	 add	 eax, 8
  00024	89 45 ec	 mov	 DWORD PTR __Myend$[ebp], eax

; 1691 : 
; 1692 :         _My_data._Orphan_all();
; 1693 : 
; 1694 :         if (_Myfirst) { // destroy and deallocate old array

  00027	8b 45 fc	 mov	 eax, DWORD PTR __Myfirst$[ebp]
  0002a	83 38 00	 cmp	 DWORD PTR [eax], 0
  0002d	74 74		 je	 SHORT $LN3@Tidy

; 1695 :             _Destroy(_Myfirst, _Mylast);

  0002f	8b 45 f0	 mov	 eax, DWORD PTR __Mylast$[ebp]
  00032	8b 00		 mov	 eax, DWORD PTR [eax]
  00034	89 45 e0	 mov	 DWORD PTR __Last$[ebp], eax
  00037	8b 45 fc	 mov	 eax, DWORD PTR __Myfirst$[ebp]
  0003a	8b 00		 mov	 eax, DWORD PTR [eax]
  0003c	89 45 dc	 mov	 DWORD PTR __First$[ebp], eax

; 1733 :         return _Mypair._Get_first();

  0003f	8b 45 f4	 mov	 eax, DWORD PTR _this$[ebp]
; File C:\Program Files (x86)\Microsoft Visual Studio\2019\Community\VC\Tools\MSVC\14.28.29333\include\xmemory

; 1347 :         return *this;

  00042	89 45 e8	 mov	 DWORD PTR $T4[ebp], eax
; File C:\Program Files (x86)\Microsoft Visual Studio\2019\Community\VC\Tools\MSVC\14.28.29333\include\vector

; 1733 :         return _Mypair._Get_first();

  00045	8b 45 e8	 mov	 eax, DWORD PTR $T4[ebp]
  00048	89 45 e4	 mov	 DWORD PTR $T3[ebp], eax

; 1612 :         _Destroy_range(_First, _Last, _Getal());

  0004b	ff 75 e4	 push	 DWORD PTR $T3[ebp]
  0004e	ff 75 e0	 push	 DWORD PTR __Last$[ebp]
  00051	ff 75 dc	 push	 DWORD PTR __First$[ebp]
  00054	e8 00 00 00 00	 call	 ??$_Destroy_range@V?$allocator@V?$CTimeEvent@M@@@std@@@std@@YAXPAV?$CTimeEvent@M@@QAV1@AAV?$allocator@V?$CTimeEvent@M@@@0@@Z ; std::_Destroy_range<std::allocator<CTimeEvent<float> > >
  00059	83 c4 0c	 add	 esp, 12			; 0000000cH

; 1733 :         return _Mypair._Get_first();

  0005c	8b 45 f4	 mov	 eax, DWORD PTR _this$[ebp]
; File C:\Program Files (x86)\Microsoft Visual Studio\2019\Community\VC\Tools\MSVC\14.28.29333\include\xmemory

; 1347 :         return *this;

  0005f	89 45 d8	 mov	 DWORD PTR $T2[ebp], eax
; File C:\Program Files (x86)\Microsoft Visual Studio\2019\Community\VC\Tools\MSVC\14.28.29333\include\vector

; 1733 :         return _Mypair._Get_first();

  00062	8b 45 d8	 mov	 eax, DWORD PTR $T2[ebp]
  00065	89 45 cc	 mov	 DWORD PTR $T1[ebp], eax

; 1696 :             _Getal().deallocate(_Myfirst, static_cast<size_type>(_Myend - _Myfirst));

  00068	8b 45 ec	 mov	 eax, DWORD PTR __Myend$[ebp]
  0006b	8b 4d fc	 mov	 ecx, DWORD PTR __Myfirst$[ebp]
  0006e	8b 00		 mov	 eax, DWORD PTR [eax]
  00070	2b 01		 sub	 eax, DWORD PTR [ecx]
  00072	c1 f8 03	 sar	 eax, 3
  00075	89 45 d4	 mov	 DWORD PTR __Count$[ebp], eax
  00078	8b 45 fc	 mov	 eax, DWORD PTR __Myfirst$[ebp]
  0007b	8b 00		 mov	 eax, DWORD PTR [eax]
  0007d	89 45 d0	 mov	 DWORD PTR __Ptr$[ebp], eax
; File C:\Program Files (x86)\Microsoft Visual Studio\2019\Community\VC\Tools\MSVC\14.28.29333\include\xmemory

; 810  :         _Deallocate<_New_alignof<_Ty>>(_Ptr, sizeof(_Ty) * _Count);

  00080	8b 45 d4	 mov	 eax, DWORD PTR __Count$[ebp]
  00083	c1 e0 03	 shl	 eax, 3
  00086	50		 push	 eax
  00087	ff 75 d0	 push	 DWORD PTR __Ptr$[ebp]
  0008a	e8 00 00 00 00	 call	 ??$_Deallocate@$07$0A@@std@@YAXPAXI@Z ; std::_Deallocate<8,0>
  0008f	59		 pop	 ecx
  00090	59		 pop	 ecx
; File C:\Program Files (x86)\Microsoft Visual Studio\2019\Community\VC\Tools\MSVC\14.28.29333\include\vector

; 1698 :             _Myfirst = pointer();

  00091	8b 45 fc	 mov	 eax, DWORD PTR __Myfirst$[ebp]
  00094	83 20 00	 and	 DWORD PTR [eax], 0

; 1699 :             _Mylast  = pointer();

  00097	8b 45 f0	 mov	 eax, DWORD PTR __Mylast$[ebp]
  0009a	83 20 00	 and	 DWORD PTR [eax], 0

; 1700 :             _Myend   = pointer();

  0009d	8b 45 ec	 mov	 eax, DWORD PTR __Myend$[ebp]
  000a0	83 20 00	 and	 DWORD PTR [eax], 0
$LN3@Tidy:

; 1701 :         }
; 1702 :     }

  000a3	c9		 leave
  000a4	c3		 ret	 0
?_Tidy@?$vector@V?$CTimeEvent@M@@V?$allocator@V?$CTimeEvent@M@@@std@@@std@@AAEXXZ ENDP ; std::vector<CTimeEvent<float>,std::allocator<CTimeEvent<float> > >::_Tidy
_TEXT	ENDS
; Function compile flags: /Odspy
; File C:\Program Files (x86)\Microsoft Visual Studio\2019\Community\VC\Tools\MSVC\14.28.29333\include\vector
; File C:\Program Files (x86)\Microsoft Visual Studio\2019\Community\VC\Tools\MSVC\14.28.29333\include\xmemory
; File C:\Program Files (x86)\Microsoft Visual Studio\2019\Community\VC\Tools\MSVC\14.28.29333\include\vector
;	COMDAT ?clear@?$vector@V?$CTimeEvent@M@@V?$allocator@V?$CTimeEvent@M@@@std@@@std@@QAEXXZ
_TEXT	SEGMENT
__First$ = -32						; size = 4
__Last$ = -28						; size = 4
$T1 = -24						; size = 4
$T2 = -20						; size = 4
__Myfirst$ = -16					; size = 4
__Mylast$ = -12						; size = 4
_this$ = -8						; size = 4
__My_data$ = -4						; size = 4
?clear@?$vector@V?$CTimeEvent@M@@V?$allocator@V?$CTimeEvent@M@@@std@@@std@@QAEXXZ PROC ; std::vector<CTimeEvent<float>,std::allocator<CTimeEvent<float> > >::clear, COMDAT
; _this$ = ecx

; 1383 :     void clear() noexcept { // erase all

  00000	55		 push	 ebp
  00001	8b ec		 mov	 ebp, esp
  00003	83 ec 20	 sub	 esp, 32			; 00000020H
  00006	89 4d f8	 mov	 DWORD PTR _this$[ebp], ecx

; 1384 :         auto& _My_data    = _Mypair._Myval2;

  00009	8b 45 f8	 mov	 eax, DWORD PTR _this$[ebp]
  0000c	89 45 fc	 mov	 DWORD PTR __My_data$[ebp], eax

; 1385 :         pointer& _Myfirst = _My_data._Myfirst;

  0000f	8b 45 fc	 mov	 eax, DWORD PTR __My_data$[ebp]
  00012	89 45 f0	 mov	 DWORD PTR __Myfirst$[ebp], eax

; 1386 :         pointer& _Mylast  = _My_data._Mylast;

  00015	8b 45 fc	 mov	 eax, DWORD PTR __My_data$[ebp]
  00018	83 c0 04	 add	 eax, 4
  0001b	89 45 f4	 mov	 DWORD PTR __Mylast$[ebp], eax

; 1387 : 
; 1388 :         _My_data._Orphan_all();
; 1389 :         _Destroy(_Myfirst, _Mylast);

  0001e	8b 45 f4	 mov	 eax, DWORD PTR __Mylast$[ebp]
  00021	8b 00		 mov	 eax, DWORD PTR [eax]
  00023	89 45 e4	 mov	 DWORD PTR __Last$[ebp], eax
  00026	8b 45 f0	 mov	 eax, DWORD PTR __Myfirst$[ebp]
  00029	8b 00		 mov	 eax, DWORD PTR [eax]
  0002b	89 45 e0	 mov	 DWORD PTR __First$[ebp], eax

; 1733 :         return _Mypair._Get_first();

  0002e	8b 45 f8	 mov	 eax, DWORD PTR _this$[ebp]
; File C:\Program Files (x86)\Microsoft Visual Studio\2019\Community\VC\Tools\MSVC\14.28.29333\include\xmemory

; 1347 :         return *this;

  00031	89 45 ec	 mov	 DWORD PTR $T2[ebp], eax
; File C:\Program Files (x86)\Microsoft Visual Studio\2019\Community\VC\Tools\MSVC\14.28.29333\include\vector

; 1733 :         return _Mypair._Get_first();

  00034	8b 45 ec	 mov	 eax, DWORD PTR $T2[ebp]
  00037	89 45 e8	 mov	 DWORD PTR $T1[ebp], eax

; 1612 :         _Destroy_range(_First, _Last, _Getal());

  0003a	ff 75 e8	 push	 DWORD PTR $T1[ebp]
  0003d	ff 75 e4	 push	 DWORD PTR __Last$[ebp]
  00040	ff 75 e0	 push	 DWORD PTR __First$[ebp]
  00043	e8 00 00 00 00	 call	 ??$_Destroy_range@V?$allocator@V?$CTimeEvent@M@@@std@@@std@@YAXPAV?$CTimeEvent@M@@QAV1@AAV?$allocator@V?$CTimeEvent@M@@@0@@Z ; std::_Destroy_range<std::allocator<CTimeEvent<float> > >
  00048	83 c4 0c	 add	 esp, 12			; 0000000cH

; 1390 :         _Mylast = _Myfirst;

  0004b	8b 45 f4	 mov	 eax, DWORD PTR __Mylast$[ebp]
  0004e	8b 4d f0	 mov	 ecx, DWORD PTR __Myfirst$[ebp]
  00051	8b 09		 mov	 ecx, DWORD PTR [ecx]
  00053	89 08		 mov	 DWORD PTR [eax], ecx

; 1391 :     }

  00055	c9		 leave
  00056	c3		 ret	 0
?clear@?$vector@V?$CTimeEvent@M@@V?$allocator@V?$CTimeEvent@M@@@std@@@std@@QAEXXZ ENDP ; std::vector<CTimeEvent<float>,std::allocator<CTimeEvent<float> > >::clear
_TEXT	ENDS
; Function compile flags: /Odspy
; File C:\Program Files (x86)\Microsoft Visual Studio\2019\Community\VC\Tools\MSVC\14.28.29333\include\vector
;	COMDAT ??1?$vector@V?$CTimeEvent@M@@V?$allocator@V?$CTimeEvent@M@@@std@@@std@@QAE@XZ
_TEXT	SEGMENT
_this$ = -4						; size = 4
??1?$vector@V?$CTimeEvent@M@@V?$allocator@V?$CTimeEvent@M@@@std@@@std@@QAE@XZ PROC ; std::vector<CTimeEvent<float>,std::allocator<CTimeEvent<float> > >::~vector<CTimeEvent<float>,std::allocator<CTimeEvent<float> > >, COMDAT
; _this$ = ecx

; 672  :     ~vector() noexcept {

  00000	55		 push	 ebp
  00001	8b ec		 mov	 ebp, esp
  00003	51		 push	 ecx
  00004	89 4d fc	 mov	 DWORD PTR _this$[ebp], ecx

; 673  :         _Tidy();

  00007	8b 4d fc	 mov	 ecx, DWORD PTR _this$[ebp]
  0000a	e8 00 00 00 00	 call	 ?_Tidy@?$vector@V?$CTimeEvent@M@@V?$allocator@V?$CTimeEvent@M@@@std@@@std@@AAEXXZ ; std::vector<CTimeEvent<float>,std::allocator<CTimeEvent<float> > >::_Tidy

; 674  : #if _ITERATOR_DEBUG_LEVEL != 0
; 675  :         auto&& _Alproxy = _GET_PROXY_ALLOCATOR(_Alty, _Getal());
; 676  :         _Delete_plain_internal(_Alproxy, _STD exchange(_Mypair._Myval2._Myproxy, nullptr));
; 677  : #endif // _ITERATOR_DEBUG_LEVEL != 0
; 678  :     }

  0000f	c9		 leave
  00010	c3		 ret	 0
??1?$vector@V?$CTimeEvent@M@@V?$allocator@V?$CTimeEvent@M@@@std@@@std@@QAE@XZ ENDP ; std::vector<CTimeEvent<float>,std::allocator<CTimeEvent<float> > >::~vector<CTimeEvent<float>,std::allocator<CTimeEvent<float> > >
_TEXT	ENDS
; Function compile flags: /Odspy
; File D:\Metin2 Server Files\mainline\SRC_2014\Metin2Client\EffectLib\SimpleLightData.cpp
; File C:\Program Files (x86)\Microsoft Visual Studio\2019\Community\VC\Tools\MSVC\14.28.29333\include\xstring
; File D:\Metin2 Server Files\mainline\SRC_2014\Metin2Client\EffectLib\SimpleLightData.cpp
; File C:\Program Files (x86)\Microsoft Visual Studio\2019\Community\VC\Tools\MSVC\14.28.29333\include\xstring
; File D:\Metin2 Server Files\mainline\SRC_2014\Metin2Client\EffectLib\SimpleLightData.cpp
; File C:\Program Files (x86)\Microsoft Visual Studio\2019\Community\VC\Tools\MSVC\14.28.29333\include\xstring
; File D:\Metin2 Server Files\mainline\SRC_2014\Metin2Client\EffectLib\SimpleLightData.cpp
; File C:\Program Files (x86)\Microsoft Visual Studio\2019\Community\VC\Tools\MSVC\14.28.29333\include\xstring
; File D:\Metin2 Server Files\mainline\SRC_2014\Metin2Client\EffectLib\SimpleLightData.cpp
; File C:\Program Files (x86)\Microsoft Visual Studio\2019\Community\VC\Tools\MSVC\14.28.29333\include\xstring
; File D:\Metin2 Server Files\mainline\SRC_2014\Metin2Client\EffectLib\SimpleLightData.cpp
; File C:\Program Files (x86)\Microsoft Visual Studio\2019\Community\VC\Tools\MSVC\14.28.29333\include\xstring
; File D:\Metin2 Server Files\mainline\SRC_2014\Metin2Client\EffectLib\SimpleLightData.cpp
; File C:\Program Files (x86)\Microsoft Visual Studio\2019\Community\VC\Tools\MSVC\14.28.29333\include\xstring
; File D:\Metin2 Server Files\mainline\SRC_2014\Metin2Client\EffectLib\SimpleLightData.cpp
; File C:\Program Files (x86)\Microsoft Visual Studio\2019\Community\VC\Tools\MSVC\14.28.29333\include\xstring
; File D:\Metin2 Server Files\mainline\SRC_2014\Metin2Client\EffectLib\SimpleLightData.cpp
; File C:\Program Files (x86)\Microsoft Visual Studio\2019\Community\VC\Tools\MSVC\14.28.29333\include\xstring
; File D:\Metin2 Server Files\mainline\SRC_2014\Metin2Client\EffectLib\SimpleLightData.cpp
;	COMDAT ?OnLoadScript@CLightData@@MAEHAAVCTextFileLoader@@@Z
_TEXT	SEGMENT
tv221 = -64						; size = 4
tv207 = -60						; size = 4
tv193 = -56						; size = 4
tv179 = -52						; size = 4
tv165 = -48						; size = 4
tv151 = -44						; size = 4
tv136 = -40						; size = 4
tv89 = -36						; size = 4
tv74 = -32						; size = 4
$T2 = -25						; size = 1
$T3 = -24						; size = 1
$T4 = -23						; size = 1
$T5 = -22						; size = 1
$T6 = -21						; size = 1
$T7 = -20						; size = 1
$T8 = -19						; size = 1
$T9 = -18						; size = 1
$T10 = -17						; size = 1
_this$ = -16						; size = 4
__$EHRec$ = -12						; size = 12
$T11 = 0						; size = 24
$T12 = 24						; size = 24
$T13 = 48						; size = 24
$T14 = 72						; size = 24
$T15 = 96						; size = 24
$T16 = 120						; size = 24
$T17 = 144						; size = 24
$T18 = 168						; size = 24
$T19 = 192						; size = 24
__$ArrayPad$ = 216					; size = 4
_rTextFileLoader$ = 228					; size = 4
?OnLoadScript@CLightData@@MAEHAAVCTextFileLoader@@@Z PROC ; CLightData::OnLoadScript, COMDAT
; _this$ = ecx

; 99   : {

  00000	55		 push	 ebp
  00001	8d ac 24 24 ff
	ff ff		 lea	 ebp, DWORD PTR [esp-220]
  00008	81 ec dc 00 00
	00		 sub	 esp, 220		; 000000dcH
  0000e	6a ff		 push	 -1
  00010	68 00 00 00 00	 push	 __ehhandler$?OnLoadScript@CLightData@@MAEHAAVCTextFileLoader@@@Z
  00015	64 a1 00 00 00
	00		 mov	 eax, DWORD PTR fs:0
  0001b	50		 push	 eax
  0001c	83 ec 34	 sub	 esp, 52			; 00000034H
  0001f	a1 00 00 00 00	 mov	 eax, DWORD PTR ___security_cookie
  00024	33 c5		 xor	 eax, ebp
  00026	89 85 d8 00 00
	00		 mov	 DWORD PTR __$ArrayPad$[ebp], eax
  0002c	50		 push	 eax
  0002d	8d 45 f4	 lea	 eax, DWORD PTR __$EHRec$[ebp]
  00030	64 a3 00 00 00
	00		 mov	 DWORD PTR fs:0, eax
  00036	89 4d f0	 mov	 DWORD PTR _this$[ebp], ecx

; 100  : 	if (!rTextFileLoader.GetTokenFloat("duration",&m_fDuration))

  00039	68 00 00 00 00	 push	 OFFSET ??_C@_08LGBPINEC@duration@
  0003e	8d 8d c0 00 00
	00		 lea	 ecx, DWORD PTR $T19[ebp]
  00044	e8 00 00 00 00	 call	 ??0?$basic_string@DU?$char_traits@D@std@@V?$allocator@D@2@@std@@QAE@QBD@Z ; std::basic_string<char,std::char_traits<char>,std::allocator<char> >::basic_string<char,std::char_traits<char>,std::allocator<char> >
  00049	83 65 fc 00	 and	 DWORD PTR __$EHRec$[ebp+8], 0
  0004d	8b 45 f0	 mov	 eax, DWORD PTR _this$[ebp]
  00050	83 c0 18	 add	 eax, 24			; 00000018H
  00053	50		 push	 eax
  00054	8d 85 c0 00 00
	00		 lea	 eax, DWORD PTR $T19[ebp]
  0005a	50		 push	 eax
  0005b	8b 8d e4 00 00
	00		 mov	 ecx, DWORD PTR _rTextFileLoader$[ebp]
  00061	e8 00 00 00 00	 call	 ?GetTokenFloat@CTextFileLoader@@QAEHABV?$basic_string@DU?$char_traits@D@std@@V?$allocator@D@2@@std@@PAM@Z ; CTextFileLoader::GetTokenFloat
  00066	85 c0		 test	 eax, eax
  00068	75 09		 jne	 SHORT $LN13@OnLoadScri
  0006a	c7 45 e0 01 00
	00 00		 mov	 DWORD PTR tv74[ebp], 1
  00071	eb 04		 jmp	 SHORT $LN14@OnLoadScri
$LN13@OnLoadScri:
  00073	83 65 e0 00	 and	 DWORD PTR tv74[ebp], 0
$LN14@OnLoadScri:
  00077	8a 45 e0	 mov	 al, BYTE PTR tv74[ebp]
  0007a	88 45 ef	 mov	 BYTE PTR $T10[ebp], al
  0007d	83 4d fc ff	 or	 DWORD PTR __$EHRec$[ebp+8], -1
; File C:\Program Files (x86)\Microsoft Visual Studio\2019\Community\VC\Tools\MSVC\14.28.29333\include\xstring

; 2801 :         _Tidy_deallocate();

  00081	8d 8d c0 00 00
	00		 lea	 ecx, DWORD PTR $T19[ebp]
  00087	e8 00 00 00 00	 call	 ?_Tidy_deallocate@?$basic_string@DU?$char_traits@D@std@@V?$allocator@D@2@@std@@AAEXXZ ; std::basic_string<char,std::char_traits<char>,std::allocator<char> >::_Tidy_deallocate
; File D:\Metin2 Server Files\mainline\SRC_2014\Metin2Client\EffectLib\SimpleLightData.cpp

; 100  : 	if (!rTextFileLoader.GetTokenFloat("duration",&m_fDuration))

  0008c	0f b6 45 ef	 movzx	 eax, BYTE PTR $T10[ebp]
  00090	85 c0		 test	 eax, eax
  00092	74 10		 je	 SHORT $LN2@OnLoadScri

; 101  : 		m_fDuration = 1.0f;

  00094	8b 45 f0	 mov	 eax, DWORD PTR _this$[ebp]
  00097	f3 0f 10 05 00
	00 00 00	 movss	 xmm0, DWORD PTR __real@3f800000
  0009f	f3 0f 11 40 18	 movss	 DWORD PTR [eax+24], xmm0
$LN2@OnLoadScri:

; 103  : 	if (!rTextFileLoader.GetTokenBoolean("loopflag",&m_bLoopFlag))

  000a4	68 00 00 00 00	 push	 OFFSET ??_C@_08NIJNIMBK@loopflag@
  000a9	8d 8d a8 00 00
	00		 lea	 ecx, DWORD PTR $T18[ebp]
  000af	e8 00 00 00 00	 call	 ??0?$basic_string@DU?$char_traits@D@std@@V?$allocator@D@2@@std@@QAE@QBD@Z ; std::basic_string<char,std::char_traits<char>,std::allocator<char> >::basic_string<char,std::char_traits<char>,std::allocator<char> >
  000b4	c7 45 fc 01 00
	00 00		 mov	 DWORD PTR __$EHRec$[ebp+8], 1
  000bb	8b 45 f0	 mov	 eax, DWORD PTR _this$[ebp]
  000be	83 c0 48	 add	 eax, 72			; 00000048H
  000c1	50		 push	 eax
  000c2	8d 85 a8 00 00
	00		 lea	 eax, DWORD PTR $T18[ebp]
  000c8	50		 push	 eax
  000c9	8b 8d e4 00 00
	00		 mov	 ecx, DWORD PTR _rTextFileLoader$[ebp]
  000cf	e8 00 00 00 00	 call	 ?GetTokenBoolean@CTextFileLoader@@QAEHABV?$basic_string@DU?$char_traits@D@std@@V?$allocator@D@2@@std@@PAH@Z ; CTextFileLoader::GetTokenBoolean
  000d4	85 c0		 test	 eax, eax
  000d6	75 09		 jne	 SHORT $LN15@OnLoadScri
  000d8	c7 45 dc 01 00
	00 00		 mov	 DWORD PTR tv89[ebp], 1
  000df	eb 04		 jmp	 SHORT $LN16@OnLoadScri
$LN15@OnLoadScri:
  000e1	83 65 dc 00	 and	 DWORD PTR tv89[ebp], 0
$LN16@OnLoadScri:
  000e5	8a 45 dc	 mov	 al, BYTE PTR tv89[ebp]
  000e8	88 45 ee	 mov	 BYTE PTR $T9[ebp], al
  000eb	83 4d fc ff	 or	 DWORD PTR __$EHRec$[ebp+8], -1
; File C:\Program Files (x86)\Microsoft Visual Studio\2019\Community\VC\Tools\MSVC\14.28.29333\include\xstring

; 2801 :         _Tidy_deallocate();

  000ef	8d 8d a8 00 00
	00		 lea	 ecx, DWORD PTR $T18[ebp]
  000f5	e8 00 00 00 00	 call	 ?_Tidy_deallocate@?$basic_string@DU?$char_traits@D@std@@V?$allocator@D@2@@std@@AAEXXZ ; std::basic_string<char,std::char_traits<char>,std::allocator<char> >::_Tidy_deallocate
; File D:\Metin2 Server Files\mainline\SRC_2014\Metin2Client\EffectLib\SimpleLightData.cpp

; 103  : 	if (!rTextFileLoader.GetTokenBoolean("loopflag",&m_bLoopFlag))

  000fa	0f b6 45 ee	 movzx	 eax, BYTE PTR $T9[ebp]
  000fe	85 c0		 test	 eax, eax
  00100	74 07		 je	 SHORT $LN3@OnLoadScri

; 104  : 		m_bLoopFlag = false;

  00102	8b 45 f0	 mov	 eax, DWORD PTR _this$[ebp]
  00105	83 60 48 00	 and	 DWORD PTR [eax+72], 0
$LN3@OnLoadScri:

; 106  : 	if (!rTextFileLoader.GetTokenInteger("loopcount",&m_iLoopCount))

  00109	68 00 00 00 00	 push	 OFFSET ??_C@_09HBCOMICA@loopcount@
  0010e	8d 8d 90 00 00
	00		 lea	 ecx, DWORD PTR $T17[ebp]
  00114	e8 00 00 00 00	 call	 ??0?$basic_string@DU?$char_traits@D@std@@V?$allocator@D@2@@std@@QAE@QBD@Z ; std::basic_string<char,std::char_traits<char>,std::allocator<char> >::basic_string<char,std::char_traits<char>,std::allocator<char> >
  00119	c7 45 fc 02 00
	00 00		 mov	 DWORD PTR __$EHRec$[ebp+8], 2
  00120	8b 45 f0	 mov	 eax, DWORD PTR _this$[ebp]
  00123	83 c0 4c	 add	 eax, 76			; 0000004cH
  00126	50		 push	 eax
  00127	8d 85 90 00 00
	00		 lea	 eax, DWORD PTR $T17[ebp]
  0012d	50		 push	 eax
  0012e	8b 8d e4 00 00
	00		 mov	 ecx, DWORD PTR _rTextFileLoader$[ebp]
  00134	e8 00 00 00 00	 call	 ?GetTokenInteger@CTextFileLoader@@QAEHABV?$basic_string@DU?$char_traits@D@std@@V?$allocator@D@2@@std@@PAH@Z ; CTextFileLoader::GetTokenInteger
  00139	85 c0		 test	 eax, eax
  0013b	75 09		 jne	 SHORT $LN17@OnLoadScri
  0013d	c7 45 d8 01 00
	00 00		 mov	 DWORD PTR tv136[ebp], 1
  00144	eb 04		 jmp	 SHORT $LN18@OnLoadScri
$LN17@OnLoadScri:
  00146	83 65 d8 00	 and	 DWORD PTR tv136[ebp], 0
$LN18@OnLoadScri:
  0014a	8a 45 d8	 mov	 al, BYTE PTR tv136[ebp]
  0014d	88 45 ed	 mov	 BYTE PTR $T8[ebp], al
  00150	83 4d fc ff	 or	 DWORD PTR __$EHRec$[ebp+8], -1
; File C:\Program Files (x86)\Microsoft Visual Studio\2019\Community\VC\Tools\MSVC\14.28.29333\include\xstring

; 2801 :         _Tidy_deallocate();

  00154	8d 8d 90 00 00
	00		 lea	 ecx, DWORD PTR $T17[ebp]
  0015a	e8 00 00 00 00	 call	 ?_Tidy_deallocate@?$basic_string@DU?$char_traits@D@std@@V?$allocator@D@2@@std@@AAEXXZ ; std::basic_string<char,std::char_traits<char>,std::allocator<char> >::_Tidy_deallocate
; File D:\Metin2 Server Files\mainline\SRC_2014\Metin2Client\EffectLib\SimpleLightData.cpp

; 106  : 	if (!rTextFileLoader.GetTokenInteger("loopcount",&m_iLoopCount))

  0015f	0f b6 45 ed	 movzx	 eax, BYTE PTR $T8[ebp]
  00163	85 c0		 test	 eax, eax
  00165	74 07		 je	 SHORT $LN4@OnLoadScri

; 107  : 		m_iLoopCount = 0;

  00167	8b 45 f0	 mov	 eax, DWORD PTR _this$[ebp]
  0016a	83 60 4c 00	 and	 DWORD PTR [eax+76], 0
$LN4@OnLoadScri:

; 109  : 	if (!rTextFileLoader.GetTokenColor("ambientcolor",&m_cAmbient))

  0016e	68 00 00 00 00	 push	 OFFSET ??_C@_0N@MBJLBHOD@ambientcolor@
  00173	8d 4d 78	 lea	 ecx, DWORD PTR $T16[ebp]
  00176	e8 00 00 00 00	 call	 ??0?$basic_string@DU?$char_traits@D@std@@V?$allocator@D@2@@std@@QAE@QBD@Z ; std::basic_string<char,std::char_traits<char>,std::allocator<char> >::basic_string<char,std::char_traits<char>,std::allocator<char> >
  0017b	c7 45 fc 03 00
	00 00		 mov	 DWORD PTR __$EHRec$[ebp+8], 3
  00182	8b 45 f0	 mov	 eax, DWORD PTR _this$[ebp]
  00185	83 c0 28	 add	 eax, 40			; 00000028H
  00188	50		 push	 eax
  00189	8d 45 78	 lea	 eax, DWORD PTR $T16[ebp]
  0018c	50		 push	 eax
  0018d	8b 8d e4 00 00
	00		 mov	 ecx, DWORD PTR _rTextFileLoader$[ebp]
  00193	e8 00 00 00 00	 call	 ?GetTokenColor@CTextFileLoader@@QAEHABV?$basic_string@DU?$char_traits@D@std@@V?$allocator@D@2@@std@@PAUD3DXCOLOR@@@Z ; CTextFileLoader::GetTokenColor
  00198	85 c0		 test	 eax, eax
  0019a	75 09		 jne	 SHORT $LN19@OnLoadScri
  0019c	c7 45 d4 01 00
	00 00		 mov	 DWORD PTR tv151[ebp], 1
  001a3	eb 04		 jmp	 SHORT $LN20@OnLoadScri
$LN19@OnLoadScri:
  001a5	83 65 d4 00	 and	 DWORD PTR tv151[ebp], 0
$LN20@OnLoadScri:
  001a9	8a 45 d4	 mov	 al, BYTE PTR tv151[ebp]
  001ac	88 45 ec	 mov	 BYTE PTR $T7[ebp], al
  001af	83 4d fc ff	 or	 DWORD PTR __$EHRec$[ebp+8], -1
; File C:\Program Files (x86)\Microsoft Visual Studio\2019\Community\VC\Tools\MSVC\14.28.29333\include\xstring

; 2801 :         _Tidy_deallocate();

  001b3	8d 4d 78	 lea	 ecx, DWORD PTR $T16[ebp]
  001b6	e8 00 00 00 00	 call	 ?_Tidy_deallocate@?$basic_string@DU?$char_traits@D@std@@V?$allocator@D@2@@std@@AAEXXZ ; std::basic_string<char,std::char_traits<char>,std::allocator<char> >::_Tidy_deallocate
; File D:\Metin2 Server Files\mainline\SRC_2014\Metin2Client\EffectLib\SimpleLightData.cpp

; 109  : 	if (!rTextFileLoader.GetTokenColor("ambientcolor",&m_cAmbient))

  001bb	0f b6 45 ec	 movzx	 eax, BYTE PTR $T7[ebp]
  001bf	85 c0		 test	 eax, eax
  001c1	74 07		 je	 SHORT $LN5@OnLoadScri

; 110  : 		return FALSE;

  001c3	33 c0		 xor	 eax, eax
  001c5	e9 f5 01 00 00	 jmp	 $LN1@OnLoadScri
$LN5@OnLoadScri:

; 112  : 	if (!rTextFileLoader.GetTokenColor("diffusecolor",&m_cDiffuse))

  001ca	68 00 00 00 00	 push	 OFFSET ??_C@_0N@BELHEGHB@diffusecolor@
  001cf	8d 4d 60	 lea	 ecx, DWORD PTR $T15[ebp]
  001d2	e8 00 00 00 00	 call	 ??0?$basic_string@DU?$char_traits@D@std@@V?$allocator@D@2@@std@@QAE@QBD@Z ; std::basic_string<char,std::char_traits<char>,std::allocator<char> >::basic_string<char,std::char_traits<char>,std::allocator<char> >
  001d7	c7 45 fc 04 00
	00 00		 mov	 DWORD PTR __$EHRec$[ebp+8], 4
  001de	8b 45 f0	 mov	 eax, DWORD PTR _this$[ebp]
  001e1	83 c0 38	 add	 eax, 56			; 00000038H
  001e4	50		 push	 eax
  001e5	8d 45 60	 lea	 eax, DWORD PTR $T15[ebp]
  001e8	50		 push	 eax
  001e9	8b 8d e4 00 00
	00		 mov	 ecx, DWORD PTR _rTextFileLoader$[ebp]
  001ef	e8 00 00 00 00	 call	 ?GetTokenColor@CTextFileLoader@@QAEHABV?$basic_string@DU?$char_traits@D@std@@V?$allocator@D@2@@std@@PAUD3DXCOLOR@@@Z ; CTextFileLoader::GetTokenColor
  001f4	85 c0		 test	 eax, eax
  001f6	75 09		 jne	 SHORT $LN21@OnLoadScri
  001f8	c7 45 d0 01 00
	00 00		 mov	 DWORD PTR tv165[ebp], 1
  001ff	eb 04		 jmp	 SHORT $LN22@OnLoadScri
$LN21@OnLoadScri:
  00201	83 65 d0 00	 and	 DWORD PTR tv165[ebp], 0
$LN22@OnLoadScri:
  00205	8a 45 d0	 mov	 al, BYTE PTR tv165[ebp]
  00208	88 45 eb	 mov	 BYTE PTR $T6[ebp], al
  0020b	83 4d fc ff	 or	 DWORD PTR __$EHRec$[ebp+8], -1
; File C:\Program Files (x86)\Microsoft Visual Studio\2019\Community\VC\Tools\MSVC\14.28.29333\include\xstring

; 2801 :         _Tidy_deallocate();

  0020f	8d 4d 60	 lea	 ecx, DWORD PTR $T15[ebp]
  00212	e8 00 00 00 00	 call	 ?_Tidy_deallocate@?$basic_string@DU?$char_traits@D@std@@V?$allocator@D@2@@std@@AAEXXZ ; std::basic_string<char,std::char_traits<char>,std::allocator<char> >::_Tidy_deallocate
; File D:\Metin2 Server Files\mainline\SRC_2014\Metin2Client\EffectLib\SimpleLightData.cpp

; 112  : 	if (!rTextFileLoader.GetTokenColor("diffusecolor",&m_cDiffuse))

  00217	0f b6 45 eb	 movzx	 eax, BYTE PTR $T6[ebp]
  0021b	85 c0		 test	 eax, eax
  0021d	74 07		 je	 SHORT $LN6@OnLoadScri

; 113  : 		return FALSE;

  0021f	33 c0		 xor	 eax, eax
  00221	e9 99 01 00 00	 jmp	 $LN1@OnLoadScri
$LN6@OnLoadScri:

; 115  : 	if (!rTextFileLoader.GetTokenFloat("maxrange",&m_fMaxRange))

  00226	68 00 00 00 00	 push	 OFFSET ??_C@_08BLEPIDIL@maxrange@
  0022b	8d 4d 48	 lea	 ecx, DWORD PTR $T14[ebp]
  0022e	e8 00 00 00 00	 call	 ??0?$basic_string@DU?$char_traits@D@std@@V?$allocator@D@2@@std@@QAE@QBD@Z ; std::basic_string<char,std::char_traits<char>,std::allocator<char> >::basic_string<char,std::char_traits<char>,std::allocator<char> >
  00233	c7 45 fc 05 00
	00 00		 mov	 DWORD PTR __$EHRec$[ebp+8], 5
  0023a	8b 45 f0	 mov	 eax, DWORD PTR _this$[ebp]
  0023d	83 c0 14	 add	 eax, 20			; 00000014H
  00240	50		 push	 eax
  00241	8d 45 48	 lea	 eax, DWORD PTR $T14[ebp]
  00244	50		 push	 eax
  00245	8b 8d e4 00 00
	00		 mov	 ecx, DWORD PTR _rTextFileLoader$[ebp]
  0024b	e8 00 00 00 00	 call	 ?GetTokenFloat@CTextFileLoader@@QAEHABV?$basic_string@DU?$char_traits@D@std@@V?$allocator@D@2@@std@@PAM@Z ; CTextFileLoader::GetTokenFloat
  00250	85 c0		 test	 eax, eax
  00252	75 09		 jne	 SHORT $LN23@OnLoadScri
  00254	c7 45 cc 01 00
	00 00		 mov	 DWORD PTR tv179[ebp], 1
  0025b	eb 04		 jmp	 SHORT $LN24@OnLoadScri
$LN23@OnLoadScri:
  0025d	83 65 cc 00	 and	 DWORD PTR tv179[ebp], 0
$LN24@OnLoadScri:
  00261	8a 45 cc	 mov	 al, BYTE PTR tv179[ebp]
  00264	88 45 ea	 mov	 BYTE PTR $T5[ebp], al
  00267	83 4d fc ff	 or	 DWORD PTR __$EHRec$[ebp+8], -1
; File C:\Program Files (x86)\Microsoft Visual Studio\2019\Community\VC\Tools\MSVC\14.28.29333\include\xstring

; 2801 :         _Tidy_deallocate();

  0026b	8d 4d 48	 lea	 ecx, DWORD PTR $T14[ebp]
  0026e	e8 00 00 00 00	 call	 ?_Tidy_deallocate@?$basic_string@DU?$char_traits@D@std@@V?$allocator@D@2@@std@@AAEXXZ ; std::basic_string<char,std::char_traits<char>,std::allocator<char> >::_Tidy_deallocate
; File D:\Metin2 Server Files\mainline\SRC_2014\Metin2Client\EffectLib\SimpleLightData.cpp

; 115  : 	if (!rTextFileLoader.GetTokenFloat("maxrange",&m_fMaxRange))

  00273	0f b6 45 ea	 movzx	 eax, BYTE PTR $T5[ebp]
  00277	85 c0		 test	 eax, eax
  00279	74 07		 je	 SHORT $LN7@OnLoadScri

; 116  : 		return FALSE;

  0027b	33 c0		 xor	 eax, eax
  0027d	e9 3d 01 00 00	 jmp	 $LN1@OnLoadScri
$LN7@OnLoadScri:

; 118  : 	if (!rTextFileLoader.GetTokenFloat("attenuation0",&m_fAttenuation0))

  00282	68 00 00 00 00	 push	 OFFSET ??_C@_0N@NKJMABJM@attenuation0@
  00287	8d 4d 30	 lea	 ecx, DWORD PTR $T13[ebp]
  0028a	e8 00 00 00 00	 call	 ??0?$basic_string@DU?$char_traits@D@std@@V?$allocator@D@2@@std@@QAE@QBD@Z ; std::basic_string<char,std::char_traits<char>,std::allocator<char> >::basic_string<char,std::char_traits<char>,std::allocator<char> >
  0028f	c7 45 fc 06 00
	00 00		 mov	 DWORD PTR __$EHRec$[ebp+8], 6
  00296	8b 45 f0	 mov	 eax, DWORD PTR _this$[ebp]
  00299	83 c0 50	 add	 eax, 80			; 00000050H
  0029c	50		 push	 eax
  0029d	8d 45 30	 lea	 eax, DWORD PTR $T13[ebp]
  002a0	50		 push	 eax
  002a1	8b 8d e4 00 00
	00		 mov	 ecx, DWORD PTR _rTextFileLoader$[ebp]
  002a7	e8 00 00 00 00	 call	 ?GetTokenFloat@CTextFileLoader@@QAEHABV?$basic_string@DU?$char_traits@D@std@@V?$allocator@D@2@@std@@PAM@Z ; CTextFileLoader::GetTokenFloat
  002ac	85 c0		 test	 eax, eax
  002ae	75 09		 jne	 SHORT $LN25@OnLoadScri
  002b0	c7 45 c8 01 00
	00 00		 mov	 DWORD PTR tv193[ebp], 1
  002b7	eb 04		 jmp	 SHORT $LN26@OnLoadScri
$LN25@OnLoadScri:
  002b9	83 65 c8 00	 and	 DWORD PTR tv193[ebp], 0
$LN26@OnLoadScri:
  002bd	8a 45 c8	 mov	 al, BYTE PTR tv193[ebp]
  002c0	88 45 e9	 mov	 BYTE PTR $T4[ebp], al
  002c3	83 4d fc ff	 or	 DWORD PTR __$EHRec$[ebp+8], -1
; File C:\Program Files (x86)\Microsoft Visual Studio\2019\Community\VC\Tools\MSVC\14.28.29333\include\xstring

; 2801 :         _Tidy_deallocate();

  002c7	8d 4d 30	 lea	 ecx, DWORD PTR $T13[ebp]
  002ca	e8 00 00 00 00	 call	 ?_Tidy_deallocate@?$basic_string@DU?$char_traits@D@std@@V?$allocator@D@2@@std@@AAEXXZ ; std::basic_string<char,std::char_traits<char>,std::allocator<char> >::_Tidy_deallocate
; File D:\Metin2 Server Files\mainline\SRC_2014\Metin2Client\EffectLib\SimpleLightData.cpp

; 118  : 	if (!rTextFileLoader.GetTokenFloat("attenuation0",&m_fAttenuation0))

  002cf	0f b6 45 e9	 movzx	 eax, BYTE PTR $T4[ebp]
  002d3	85 c0		 test	 eax, eax
  002d5	74 07		 je	 SHORT $LN8@OnLoadScri

; 119  : 		return FALSE;

  002d7	33 c0		 xor	 eax, eax
  002d9	e9 e1 00 00 00	 jmp	 $LN1@OnLoadScri
$LN8@OnLoadScri:

; 121  : 	if (!rTextFileLoader.GetTokenFloat("attenuation1",&m_fAttenuation1))

  002de	68 00 00 00 00	 push	 OFFSET ??_C@_0N@MDIHDANN@attenuation1@
  002e3	8d 4d 18	 lea	 ecx, DWORD PTR $T12[ebp]
  002e6	e8 00 00 00 00	 call	 ??0?$basic_string@DU?$char_traits@D@std@@V?$allocator@D@2@@std@@QAE@QBD@Z ; std::basic_string<char,std::char_traits<char>,std::allocator<char> >::basic_string<char,std::char_traits<char>,std::allocator<char> >
  002eb	c7 45 fc 07 00
	00 00		 mov	 DWORD PTR __$EHRec$[ebp+8], 7
  002f2	8b 45 f0	 mov	 eax, DWORD PTR _this$[ebp]
  002f5	83 c0 54	 add	 eax, 84			; 00000054H
  002f8	50		 push	 eax
  002f9	8d 45 18	 lea	 eax, DWORD PTR $T12[ebp]
  002fc	50		 push	 eax
  002fd	8b 8d e4 00 00
	00		 mov	 ecx, DWORD PTR _rTextFileLoader$[ebp]
  00303	e8 00 00 00 00	 call	 ?GetTokenFloat@CTextFileLoader@@QAEHABV?$basic_string@DU?$char_traits@D@std@@V?$allocator@D@2@@std@@PAM@Z ; CTextFileLoader::GetTokenFloat
  00308	85 c0		 test	 eax, eax
  0030a	75 09		 jne	 SHORT $LN27@OnLoadScri
  0030c	c7 45 c4 01 00
	00 00		 mov	 DWORD PTR tv207[ebp], 1
  00313	eb 04		 jmp	 SHORT $LN28@OnLoadScri
$LN27@OnLoadScri:
  00315	83 65 c4 00	 and	 DWORD PTR tv207[ebp], 0
$LN28@OnLoadScri:
  00319	8a 45 c4	 mov	 al, BYTE PTR tv207[ebp]
  0031c	88 45 e8	 mov	 BYTE PTR $T3[ebp], al
  0031f	83 4d fc ff	 or	 DWORD PTR __$EHRec$[ebp+8], -1
; File C:\Program Files (x86)\Microsoft Visual Studio\2019\Community\VC\Tools\MSVC\14.28.29333\include\xstring

; 2801 :         _Tidy_deallocate();

  00323	8d 4d 18	 lea	 ecx, DWORD PTR $T12[ebp]
  00326	e8 00 00 00 00	 call	 ?_Tidy_deallocate@?$basic_string@DU?$char_traits@D@std@@V?$allocator@D@2@@std@@AAEXXZ ; std::basic_string<char,std::char_traits<char>,std::allocator<char> >::_Tidy_deallocate
; File D:\Metin2 Server Files\mainline\SRC_2014\Metin2Client\EffectLib\SimpleLightData.cpp

; 121  : 	if (!rTextFileLoader.GetTokenFloat("attenuation1",&m_fAttenuation1))

  0032b	0f b6 45 e8	 movzx	 eax, BYTE PTR $T3[ebp]
  0032f	85 c0		 test	 eax, eax
  00331	74 07		 je	 SHORT $LN9@OnLoadScri

; 122  : 		return FALSE;

  00333	33 c0		 xor	 eax, eax
  00335	e9 85 00 00 00	 jmp	 $LN1@OnLoadScri
$LN9@OnLoadScri:

; 124  : 	if (!rTextFileLoader.GetTokenFloat("attenuation2",&m_fAttenuation2))

  0033a	68 00 00 00 00	 push	 OFFSET ??_C@_0N@OIKKGDBO@attenuation2@
  0033f	8d 4d 00	 lea	 ecx, DWORD PTR $T11[ebp]
  00342	e8 00 00 00 00	 call	 ??0?$basic_string@DU?$char_traits@D@std@@V?$allocator@D@2@@std@@QAE@QBD@Z ; std::basic_string<char,std::char_traits<char>,std::allocator<char> >::basic_string<char,std::char_traits<char>,std::allocator<char> >
  00347	c7 45 fc 08 00
	00 00		 mov	 DWORD PTR __$EHRec$[ebp+8], 8
  0034e	8b 45 f0	 mov	 eax, DWORD PTR _this$[ebp]
  00351	83 c0 58	 add	 eax, 88			; 00000058H
  00354	50		 push	 eax
  00355	8d 45 00	 lea	 eax, DWORD PTR $T11[ebp]
  00358	50		 push	 eax
  00359	8b 8d e4 00 00
	00		 mov	 ecx, DWORD PTR _rTextFileLoader$[ebp]
  0035f	e8 00 00 00 00	 call	 ?GetTokenFloat@CTextFileLoader@@QAEHABV?$basic_string@DU?$char_traits@D@std@@V?$allocator@D@2@@std@@PAM@Z ; CTextFileLoader::GetTokenFloat
  00364	85 c0		 test	 eax, eax
  00366	75 09		 jne	 SHORT $LN29@OnLoadScri
  00368	c7 45 c0 01 00
	00 00		 mov	 DWORD PTR tv221[ebp], 1
  0036f	eb 04		 jmp	 SHORT $LN30@OnLoadScri
$LN29@OnLoadScri:
  00371	83 65 c0 00	 and	 DWORD PTR tv221[ebp], 0
$LN30@OnLoadScri:
  00375	8a 45 c0	 mov	 al, BYTE PTR tv221[ebp]
  00378	88 45 e7	 mov	 BYTE PTR $T2[ebp], al
  0037b	83 4d fc ff	 or	 DWORD PTR __$EHRec$[ebp+8], -1
; File C:\Program Files (x86)\Microsoft Visual Studio\2019\Community\VC\Tools\MSVC\14.28.29333\include\xstring

; 2801 :         _Tidy_deallocate();

  0037f	8d 4d 00	 lea	 ecx, DWORD PTR $T11[ebp]
  00382	e8 00 00 00 00	 call	 ?_Tidy_deallocate@?$basic_string@DU?$char_traits@D@std@@V?$allocator@D@2@@std@@AAEXXZ ; std::basic_string<char,std::char_traits<char>,std::allocator<char> >::_Tidy_deallocate
; File D:\Metin2 Server Files\mainline\SRC_2014\Metin2Client\EffectLib\SimpleLightData.cpp

; 124  : 	if (!rTextFileLoader.GetTokenFloat("attenuation2",&m_fAttenuation2))

  00387	0f b6 45 e7	 movzx	 eax, BYTE PTR $T2[ebp]
  0038b	85 c0		 test	 eax, eax
  0038d	74 04		 je	 SHORT $LN10@OnLoadScri

; 125  : 		return FALSE;

  0038f	33 c0		 xor	 eax, eax
  00391	eb 2c		 jmp	 SHORT $LN1@OnLoadScri
$LN10@OnLoadScri:

; 126  : 
; 127  : 	if (!GetTokenTimeEventFloat(rTextFileLoader,"timeeventrange",&m_TimeEventTableRange))

  00393	8b 45 f0	 mov	 eax, DWORD PTR _this$[ebp]
  00396	83 c0 1c	 add	 eax, 28			; 0000001cH
  00399	50		 push	 eax
  0039a	68 00 00 00 00	 push	 OFFSET ??_C@_0P@CJMOPDJ@timeeventrange@
  0039f	ff b5 e4 00 00
	00		 push	 DWORD PTR _rTextFileLoader$[ebp]
  003a5	e8 00 00 00 00	 call	 ?GetTokenTimeEventFloat@@YAHAAVCTextFileLoader@@PBDPAV?$vector@V?$CTimeEvent@M@@V?$allocator@V?$CTimeEvent@M@@@std@@@std@@@Z ; GetTokenTimeEventFloat
  003aa	83 c4 0c	 add	 esp, 12			; 0000000cH
  003ad	85 c0		 test	 eax, eax
  003af	75 0b		 jne	 SHORT $LN11@OnLoadScri

; 128  : 	{
; 129  : 		m_TimeEventTableRange.clear();

  003b1	8b 4d f0	 mov	 ecx, DWORD PTR _this$[ebp]
  003b4	83 c1 1c	 add	 ecx, 28			; 0000001cH
  003b7	e8 00 00 00 00	 call	 ?clear@?$vector@V?$CTimeEvent@M@@V?$allocator@V?$CTimeEvent@M@@@std@@@std@@QAEXXZ ; std::vector<CTimeEvent<float>,std::allocator<CTimeEvent<float> > >::clear
$LN11@OnLoadScri:

; 130  : 	}
; 131  : 
; 132  : 	return true;

  003bc	33 c0		 xor	 eax, eax
  003be	40		 inc	 eax
$LN1@OnLoadScri:

; 133  : }

  003bf	8b 4d f4	 mov	 ecx, DWORD PTR __$EHRec$[ebp]
  003c2	64 89 0d 00 00
	00 00		 mov	 DWORD PTR fs:0, ecx
  003c9	59		 pop	 ecx
  003ca	8b 8d d8 00 00
	00		 mov	 ecx, DWORD PTR __$ArrayPad$[ebp]
  003d0	33 cd		 xor	 ecx, ebp
  003d2	e8 00 00 00 00	 call	 @__security_check_cookie@4
  003d7	81 c5 dc 00 00
	00		 add	 ebp, 220		; 000000dcH
  003dd	c9		 leave
  003de	c2 04 00	 ret	 4
_TEXT	ENDS
;	COMDAT text$x
text$x	SEGMENT
__unwindfunclet$?OnLoadScript@CLightData@@MAEHAAVCTextFileLoader@@@Z$0:
  00000	8d 8d c0 00 00
	00		 lea	 ecx, DWORD PTR $T19[ebp]
  00006	e9 00 00 00 00	 jmp	 ??1?$basic_string@DU?$char_traits@D@std@@V?$allocator@D@2@@std@@QAE@XZ ; std::basic_string<char,std::char_traits<char>,std::allocator<char> >::~basic_string<char,std::char_traits<char>,std::allocator<char> >
__unwindfunclet$?OnLoadScript@CLightData@@MAEHAAVCTextFileLoader@@@Z$1:
  0000b	8d 8d a8 00 00
	00		 lea	 ecx, DWORD PTR $T18[ebp]
  00011	e9 00 00 00 00	 jmp	 ??1?$basic_string@DU?$char_traits@D@std@@V?$allocator@D@2@@std@@QAE@XZ ; std::basic_string<char,std::char_traits<char>,std::allocator<char> >::~basic_string<char,std::char_traits<char>,std::allocator<char> >
__unwindfunclet$?OnLoadScript@CLightData@@MAEHAAVCTextFileLoader@@@Z$2:
  00016	8d 8d 90 00 00
	00		 lea	 ecx, DWORD PTR $T17[ebp]
  0001c	e9 00 00 00 00	 jmp	 ??1?$basic_string@DU?$char_traits@D@std@@V?$allocator@D@2@@std@@QAE@XZ ; std::basic_string<char,std::char_traits<char>,std::allocator<char> >::~basic_string<char,std::char_traits<char>,std::allocator<char> >
__unwindfunclet$?OnLoadScript@CLightData@@MAEHAAVCTextFileLoader@@@Z$3:
  00021	8d 4d 78	 lea	 ecx, DWORD PTR $T16[ebp]
  00024	e9 00 00 00 00	 jmp	 ??1?$basic_string@DU?$char_traits@D@std@@V?$allocator@D@2@@std@@QAE@XZ ; std::basic_string<char,std::char_traits<char>,std::allocator<char> >::~basic_string<char,std::char_traits<char>,std::allocator<char> >
__unwindfunclet$?OnLoadScript@CLightData@@MAEHAAVCTextFileLoader@@@Z$4:
  00029	8d 4d 60	 lea	 ecx, DWORD PTR $T15[ebp]
  0002c	e9 00 00 00 00	 jmp	 ??1?$basic_string@DU?$char_traits@D@std@@V?$allocator@D@2@@std@@QAE@XZ ; std::basic_string<char,std::char_traits<char>,std::allocator<char> >::~basic_string<char,std::char_traits<char>,std::allocator<char> >
__unwindfunclet$?OnLoadScript@CLightData@@MAEHAAVCTextFileLoader@@@Z$5:
  00031	8d 4d 48	 lea	 ecx, DWORD PTR $T14[ebp]
  00034	e9 00 00 00 00	 jmp	 ??1?$basic_string@DU?$char_traits@D@std@@V?$allocator@D@2@@std@@QAE@XZ ; std::basic_string<char,std::char_traits<char>,std::allocator<char> >::~basic_string<char,std::char_traits<char>,std::allocator<char> >
__unwindfunclet$?OnLoadScript@CLightData@@MAEHAAVCTextFileLoader@@@Z$6:
  00039	8d 4d 30	 lea	 ecx, DWORD PTR $T13[ebp]
  0003c	e9 00 00 00 00	 jmp	 ??1?$basic_string@DU?$char_traits@D@std@@V?$allocator@D@2@@std@@QAE@XZ ; std::basic_string<char,std::char_traits<char>,std::allocator<char> >::~basic_string<char,std::char_traits<char>,std::allocator<char> >
__unwindfunclet$?OnLoadScript@CLightData@@MAEHAAVCTextFileLoader@@@Z$7:
  00041	8d 4d 18	 lea	 ecx, DWORD PTR $T12[ebp]
  00044	e9 00 00 00 00	 jmp	 ??1?$basic_string@DU?$char_traits@D@std@@V?$allocator@D@2@@std@@QAE@XZ ; std::basic_string<char,std::char_traits<char>,std::allocator<char> >::~basic_string<char,std::char_traits<char>,std::allocator<char> >
__unwindfunclet$?OnLoadScript@CLightData@@MAEHAAVCTextFileLoader@@@Z$8:
  00049	8d 4d 00	 lea	 ecx, DWORD PTR $T11[ebp]
  0004c	e9 00 00 00 00	 jmp	 ??1?$basic_string@DU?$char_traits@D@std@@V?$allocator@D@2@@std@@QAE@XZ ; std::basic_string<char,std::char_traits<char>,std::allocator<char> >::~basic_string<char,std::char_traits<char>,std::allocator<char> >
  00051	cc		 int	 3
  00052	cc		 int	 3
  00053	cc		 int	 3
  00054	cc		 int	 3
  00055	cc		 int	 3
__ehhandler$?OnLoadScript@CLightData@@MAEHAAVCTextFileLoader@@@Z:
  00056	90		 npad	 1
  00057	90		 npad	 1
  00058	8b 54 24 08	 mov	 edx, DWORD PTR [esp+8]
  0005c	8d 42 0c	 lea	 eax, DWORD PTR [edx+12]
  0005f	8b 4a c8	 mov	 ecx, DWORD PTR [edx-56]
  00062	33 c8		 xor	 ecx, eax
  00064	e8 00 00 00 00	 call	 @__security_check_cookie@4
  00069	8b 8a e4 00 00
	00		 mov	 ecx, DWORD PTR [edx+228]
  0006f	33 c8		 xor	 ecx, eax
  00071	e8 00 00 00 00	 call	 @__security_check_cookie@4
  00076	b8 00 00 00 00	 mov	 eax, OFFSET __ehfuncinfo$?OnLoadScript@CLightData@@MAEHAAVCTextFileLoader@@@Z
  0007b	e9 00 00 00 00	 jmp	 ___CxxFrameHandler3
text$x	ENDS
?OnLoadScript@CLightData@@MAEHAAVCTextFileLoader@@@Z ENDP ; CLightData::OnLoadScript
; Function compile flags: /Odspy
; File D:\Metin2 Server Files\mainline\SRC_2014\Metin2Client\EffectLib\SimpleLightData.cpp
;	COMDAT ?OnIsData@CLightData@@MAE_NXZ
_TEXT	SEGMENT
_this$ = -4						; size = 4
?OnIsData@CLightData@@MAE_NXZ PROC			; CLightData::OnIsData, COMDAT
; _this$ = ecx

; 94   : {

  00000	55		 push	 ebp
  00001	8b ec		 mov	 ebp, esp
  00003	51		 push	 ecx
  00004	89 4d fc	 mov	 DWORD PTR _this$[ebp], ecx

; 95   : 	return true;

  00007	b0 01		 mov	 al, 1

; 96   : }

  00009	c9		 leave
  0000a	c3		 ret	 0
?OnIsData@CLightData@@MAE_NXZ ENDP			; CLightData::OnIsData
_TEXT	ENDS
; Function compile flags: /Odspy
; File D:\Metin2 Server Files\mainline\SRC_2014\Metin2Client\EffectLib\SimpleLightData.cpp
;	COMDAT ?OnClear@CLightData@@MAEXXZ
_TEXT	SEGMENT
_this$ = -4						; size = 4
?OnClear@CLightData@@MAEXXZ PROC			; CLightData::OnClear, COMDAT
; _this$ = ecx

; 25   : {

  00000	55		 push	 ebp
  00001	8b ec		 mov	 ebp, esp
  00003	51		 push	 ecx
  00004	89 4d fc	 mov	 DWORD PTR _this$[ebp], ecx

; 26   : 	m_fMaxRange = 300.0f;

  00007	8b 45 fc	 mov	 eax, DWORD PTR _this$[ebp]
  0000a	f3 0f 10 05 00
	00 00 00	 movss	 xmm0, DWORD PTR __real@43960000
  00012	f3 0f 11 40 14	 movss	 DWORD PTR [eax+20], xmm0

; 27   : 
; 28   : 	m_TimeEventTableRange.clear();

  00017	8b 4d fc	 mov	 ecx, DWORD PTR _this$[ebp]
  0001a	83 c1 1c	 add	 ecx, 28			; 0000001cH
  0001d	e8 00 00 00 00	 call	 ?clear@?$vector@V?$CTimeEvent@M@@V?$allocator@V?$CTimeEvent@M@@@std@@@std@@QAEXXZ ; std::vector<CTimeEvent<float>,std::allocator<CTimeEvent<float> > >::clear

; 29   : 
; 30   : 	m_cAmbient.r = 0.5f;

  00022	8b 45 fc	 mov	 eax, DWORD PTR _this$[ebp]
  00025	f3 0f 10 05 00
	00 00 00	 movss	 xmm0, DWORD PTR __real@3f000000
  0002d	f3 0f 11 40 28	 movss	 DWORD PTR [eax+40], xmm0

; 31   : 	m_cAmbient.g = 0.5f;

  00032	8b 45 fc	 mov	 eax, DWORD PTR _this$[ebp]
  00035	f3 0f 10 05 00
	00 00 00	 movss	 xmm0, DWORD PTR __real@3f000000
  0003d	f3 0f 11 40 2c	 movss	 DWORD PTR [eax+44], xmm0

; 32   : 	m_cAmbient.b = 0.5f;

  00042	8b 45 fc	 mov	 eax, DWORD PTR _this$[ebp]
  00045	f3 0f 10 05 00
	00 00 00	 movss	 xmm0, DWORD PTR __real@3f000000
  0004d	f3 0f 11 40 30	 movss	 DWORD PTR [eax+48], xmm0

; 33   : 	m_cAmbient.a = 1.0f;

  00052	8b 45 fc	 mov	 eax, DWORD PTR _this$[ebp]
  00055	f3 0f 10 05 00
	00 00 00	 movss	 xmm0, DWORD PTR __real@3f800000
  0005d	f3 0f 11 40 34	 movss	 DWORD PTR [eax+52], xmm0

; 34   : 	m_cDiffuse.r = 0.0f;

  00062	8b 45 fc	 mov	 eax, DWORD PTR _this$[ebp]
  00065	0f 57 c0	 xorps	 xmm0, xmm0
  00068	f3 0f 11 40 38	 movss	 DWORD PTR [eax+56], xmm0

; 35   : 	m_cDiffuse.g = 0.0f;

  0006d	8b 45 fc	 mov	 eax, DWORD PTR _this$[ebp]
  00070	0f 57 c0	 xorps	 xmm0, xmm0
  00073	f3 0f 11 40 3c	 movss	 DWORD PTR [eax+60], xmm0

; 36   : 	m_cDiffuse.b = 0.0f;

  00078	8b 45 fc	 mov	 eax, DWORD PTR _this$[ebp]
  0007b	0f 57 c0	 xorps	 xmm0, xmm0
  0007e	f3 0f 11 40 40	 movss	 DWORD PTR [eax+64], xmm0

; 37   : 	m_cDiffuse.a = 1.0f;

  00083	8b 45 fc	 mov	 eax, DWORD PTR _this$[ebp]
  00086	f3 0f 10 05 00
	00 00 00	 movss	 xmm0, DWORD PTR __real@3f800000
  0008e	f3 0f 11 40 44	 movss	 DWORD PTR [eax+68], xmm0

; 38   : 
; 39   : 	m_fDuration = 1.0f;

  00093	8b 45 fc	 mov	 eax, DWORD PTR _this$[ebp]
  00096	f3 0f 10 05 00
	00 00 00	 movss	 xmm0, DWORD PTR __real@3f800000
  0009e	f3 0f 11 40 18	 movss	 DWORD PTR [eax+24], xmm0

; 40   : 
; 41   : 	m_fAttenuation0 = 0.0f;

  000a3	8b 45 fc	 mov	 eax, DWORD PTR _this$[ebp]
  000a6	0f 57 c0	 xorps	 xmm0, xmm0
  000a9	f3 0f 11 40 50	 movss	 DWORD PTR [eax+80], xmm0

; 42   : 	m_fAttenuation1 = 0.1f;

  000ae	8b 45 fc	 mov	 eax, DWORD PTR _this$[ebp]
  000b1	f3 0f 10 05 00
	00 00 00	 movss	 xmm0, DWORD PTR __real@3dcccccd
  000b9	f3 0f 11 40 54	 movss	 DWORD PTR [eax+84], xmm0

; 43   : 	m_fAttenuation2 = 0.0f;

  000be	8b 45 fc	 mov	 eax, DWORD PTR _this$[ebp]
  000c1	0f 57 c0	 xorps	 xmm0, xmm0
  000c4	f3 0f 11 40 58	 movss	 DWORD PTR [eax+88], xmm0

; 44   : 
; 45   : 	m_bLoopFlag = false;

  000c9	8b 45 fc	 mov	 eax, DWORD PTR _this$[ebp]
  000cc	83 60 48 00	 and	 DWORD PTR [eax+72], 0

; 46   : 	m_iLoopCount = 0;

  000d0	8b 45 fc	 mov	 eax, DWORD PTR _this$[ebp]
  000d3	83 60 4c 00	 and	 DWORD PTR [eax+76], 0

; 47   : }

  000d7	c9		 leave
  000d8	c3		 ret	 0
?OnClear@CLightData@@MAEXXZ ENDP			; CLightData::OnClear
_TEXT	ENDS
; Function compile flags: /Odspy
; File D:\Metin2 Server Files\mainline\SRC_2014\Metin2Client\EffectLib\SimpleLightData.cpp
; File D:\Metin2 Server Files\mainline\SRC_2014\M2Data\include\d3dx8math.inl
; File D:\Metin2 Server Files\mainline\SRC_2014\Metin2Client\EffectLib\SimpleLightData.cpp
; File D:\Metin2 Server Files\mainline\SRC_2014\M2Data\include\d3dx8math.inl
; File D:\Metin2 Server Files\mainline\SRC_2014\Metin2Client\EffectLib\SimpleLightData.cpp
;	COMDAT ?InitializeLight@CLightData@@QAEXAAU_D3DLIGHT8@@@Z
_TEXT	SEGMENT
_this$ = -20						; size = 4
_position$ = -16					; size = 12
__$ArrayPad$ = -4					; size = 4
_light$ = 8						; size = 4
?InitializeLight@CLightData@@QAEXAAU_D3DLIGHT8@@@Z PROC	; CLightData::InitializeLight, COMDAT
; _this$ = ecx

; 149  : {

  00000	55		 push	 ebp
  00001	8b ec		 mov	 ebp, esp
  00003	83 ec 14	 sub	 esp, 20			; 00000014H
  00006	a1 00 00 00 00	 mov	 eax, DWORD PTR ___security_cookie
  0000b	33 c5		 xor	 eax, ebp
  0000d	89 45 fc	 mov	 DWORD PTR __$ArrayPad$[ebp], eax
  00010	56		 push	 esi
  00011	57		 push	 edi
  00012	89 4d ec	 mov	 DWORD PTR _this$[ebp], ecx

; 150  : 	light.Type = D3DLIGHT_POINT;

  00015	8b 45 08	 mov	 eax, DWORD PTR _light$[ebp]
  00018	c7 00 01 00 00
	00		 mov	 DWORD PTR [eax], 1
; File D:\Metin2 Server Files\mainline\SRC_2014\M2Data\include\d3dx8math.inl

; 969  :     return *((D3DCOLORVALUE *) &r);

  0001e	8b 75 ec	 mov	 esi, DWORD PTR _this$[ebp]
  00021	83 c6 28	 add	 esi, 40			; 00000028H
; File D:\Metin2 Server Files\mainline\SRC_2014\Metin2Client\EffectLib\SimpleLightData.cpp

; 152  : 	light.Ambient = m_cAmbient;

  00024	8b 7d 08	 mov	 edi, DWORD PTR _light$[ebp]
  00027	83 c7 24	 add	 edi, 36			; 00000024H
  0002a	a5		 movsd
  0002b	a5		 movsd
  0002c	a5		 movsd
  0002d	a5		 movsd
; File D:\Metin2 Server Files\mainline\SRC_2014\M2Data\include\d3dx8math.inl

; 969  :     return *((D3DCOLORVALUE *) &r);

  0002e	8b 75 ec	 mov	 esi, DWORD PTR _this$[ebp]
  00031	83 c6 38	 add	 esi, 56			; 00000038H
; File D:\Metin2 Server Files\mainline\SRC_2014\Metin2Client\EffectLib\SimpleLightData.cpp

; 153  : 	light.Diffuse = m_cDiffuse;

  00034	8b 7d 08	 mov	 edi, DWORD PTR _light$[ebp]
  00037	83 c7 04	 add	 edi, 4
  0003a	a5		 movsd
  0003b	a5		 movsd
  0003c	a5		 movsd
  0003d	a5		 movsd

; 154  : 	light.Attenuation0 = m_fAttenuation0;

  0003e	8b 45 08	 mov	 eax, DWORD PTR _light$[ebp]
  00041	8b 4d ec	 mov	 ecx, DWORD PTR _this$[ebp]
  00044	8b 49 50	 mov	 ecx, DWORD PTR [ecx+80]
  00047	89 48 54	 mov	 DWORD PTR [eax+84], ecx

; 155  : 	light.Attenuation1 = m_fAttenuation1;

  0004a	8b 45 08	 mov	 eax, DWORD PTR _light$[ebp]
  0004d	8b 4d ec	 mov	 ecx, DWORD PTR _this$[ebp]
  00050	8b 49 54	 mov	 ecx, DWORD PTR [ecx+84]
  00053	89 48 58	 mov	 DWORD PTR [eax+88], ecx

; 156  : 	light.Attenuation2 = m_fAttenuation2;

  00056	8b 45 08	 mov	 eax, DWORD PTR _light$[ebp]
  00059	8b 4d ec	 mov	 ecx, DWORD PTR _this$[ebp]
  0005c	8b 49 58	 mov	 ecx, DWORD PTR [ecx+88]
  0005f	89 48 5c	 mov	 DWORD PTR [eax+92], ecx

; 157  : 
; 158  : 
; 159  : 	D3DXVECTOR3 position;
; 160  : 	GetPosition( 0.0f, position);

  00062	8d 45 f0	 lea	 eax, DWORD PTR _position$[ebp]
  00065	50		 push	 eax
  00066	51		 push	 ecx
  00067	0f 57 c0	 xorps	 xmm0, xmm0
  0006a	f3 0f 11 04 24	 movss	 DWORD PTR [esp], xmm0
  0006f	8b 4d ec	 mov	 ecx, DWORD PTR _this$[ebp]
  00072	e8 00 00 00 00	 call	 ?GetPosition@CEffectElementBase@@QAEXMAAUD3DXVECTOR3@@@Z ; CEffectElementBase::GetPosition

; 161  : 	light.Position = position;

  00077	8b 7d 08	 mov	 edi, DWORD PTR _light$[ebp]
  0007a	83 c7 34	 add	 edi, 52			; 00000034H
  0007d	8d 75 f0	 lea	 esi, DWORD PTR _position$[ebp]
  00080	a5		 movsd
  00081	a5		 movsd
  00082	a5		 movsd

; 162  : 	
; 163  : 	GetRange(0.0f, light.Range);

  00083	8b 45 08	 mov	 eax, DWORD PTR _light$[ebp]
  00086	83 c0 4c	 add	 eax, 76			; 0000004cH
  00089	50		 push	 eax
  0008a	51		 push	 ecx
  0008b	0f 57 c0	 xorps	 xmm0, xmm0
  0008e	f3 0f 11 04 24	 movss	 DWORD PTR [esp], xmm0
  00093	8b 4d ec	 mov	 ecx, DWORD PTR _this$[ebp]
  00096	e8 00 00 00 00	 call	 ?GetRange@CLightData@@QAEXMAAM@Z ; CLightData::GetRange

; 164  : }

  0009b	5f		 pop	 edi
  0009c	5e		 pop	 esi
  0009d	8b 4d fc	 mov	 ecx, DWORD PTR __$ArrayPad$[ebp]
  000a0	33 cd		 xor	 ecx, ebp
  000a2	e8 00 00 00 00	 call	 @__security_check_cookie@4
  000a7	c9		 leave
  000a8	c2 04 00	 ret	 4
?InitializeLight@CLightData@@QAEXAAU_D3DLIGHT8@@@Z ENDP	; CLightData::InitializeLight
_TEXT	ENDS
; Function compile flags: /Odspy
; File D:\Metin2 Server Files\mainline\SRC_2014\Metin2Client\EffectLib\SimpleLightData.cpp
;	COMDAT ?GetDuration@CLightData@@QAEMXZ
_TEXT	SEGMENT
_this$ = -4						; size = 4
?GetDuration@CLightData@@QAEMXZ PROC			; CLightData::GetDuration, COMDAT
; _this$ = ecx

; 145  : {

  00000	55		 push	 ebp
  00001	8b ec		 mov	 ebp, esp
  00003	51		 push	 ecx
  00004	89 4d fc	 mov	 DWORD PTR _this$[ebp], ecx

; 146  : 	return m_fDuration;

  00007	8b 45 fc	 mov	 eax, DWORD PTR _this$[ebp]
  0000a	d9 40 18	 fld	 DWORD PTR [eax+24]

; 147  : }

  0000d	c9		 leave
  0000e	c3		 ret	 0
?GetDuration@CLightData@@QAEMXZ ENDP			; CLightData::GetDuration
_TEXT	ENDS
; Function compile flags: /Odspy
; File D:\Metin2 Server Files\mainline\SRC_2014\Metin2Client\EffectLib\SimpleLightData.cpp
; File C:\Program Files (x86)\Microsoft Visual Studio\2019\Community\VC\Tools\MSVC\14.28.29333\include\vector
; File D:\Metin2 Server Files\mainline\SRC_2014\Metin2Client\EffectLib\SimpleLightData.cpp
; File C:\Program Files (x86)\Microsoft Visual Studio\2019\Community\VC\Tools\MSVC\14.28.29333\include\vector
; File D:\Metin2 Server Files\mainline\SRC_2014\Metin2Client\EffectLib\Type.h
; File C:\Program Files (x86)\Microsoft Visual Studio\2019\Community\VC\Tools\MSVC\14.28.29333\include\vector
; File C:\Program Files (x86)\Microsoft Visual Studio\2019\Community\VC\Tools\MSVC\14.28.29333\include\xstddef
; File C:\Program Files (x86)\Microsoft Visual Studio\2019\Community\VC\Tools\MSVC\14.28.29333\include\vector
; File C:\Program Files (x86)\Microsoft Visual Studio\2019\Community\VC\Tools\MSVC\14.28.29333\include\xstddef
; File C:\Program Files (x86)\Microsoft Visual Studio\2019\Community\VC\Tools\MSVC\14.28.29333\include\vector
; File D:\Metin2 Server Files\mainline\SRC_2014\Metin2Client\EffectLib\Type.h
; File C:\Program Files (x86)\Microsoft Visual Studio\2019\Community\VC\Tools\MSVC\14.28.29333\include\vector
; File D:\Metin2 Server Files\mainline\SRC_2014\Metin2Client\EffectLib\Type.h
; File C:\Program Files (x86)\Microsoft Visual Studio\2019\Community\VC\Tools\MSVC\14.28.29333\include\vector
; File D:\Metin2 Server Files\mainline\SRC_2014\Metin2Client\EffectLib\Type.h
; File C:\Program Files (x86)\Microsoft Visual Studio\2019\Community\VC\Tools\MSVC\14.28.29333\include\vector
; File D:\Metin2 Server Files\mainline\SRC_2014\Metin2Client\EffectLib\Type.h
; File C:\Program Files (x86)\Microsoft Visual Studio\2019\Community\VC\Tools\MSVC\14.28.29333\include\vector
; File D:\Metin2 Server Files\mainline\SRC_2014\Metin2Client\EffectLib\Type.h
; File C:\Program Files (x86)\Microsoft Visual Studio\2019\Community\VC\Tools\MSVC\14.28.29333\include\vector
; File D:\Metin2 Server Files\mainline\SRC_2014\Metin2Client\EffectLib\Type.h
; File C:\Program Files (x86)\Microsoft Visual Studio\2019\Community\VC\Tools\MSVC\14.28.29333\include\vector
; File C:\Program Files (x86)\Microsoft Visual Studio\2019\Community\VC\Tools\MSVC\14.28.29333\include\xstddef
; File C:\Program Files (x86)\Microsoft Visual Studio\2019\Community\VC\Tools\MSVC\14.28.29333\include\vector
; File C:\Program Files (x86)\Microsoft Visual Studio\2019\Community\VC\Tools\MSVC\14.28.29333\include\xstddef
; File C:\Program Files (x86)\Microsoft Visual Studio\2019\Community\VC\Tools\MSVC\14.28.29333\include\vector
; File D:\Metin2 Server Files\mainline\SRC_2014\Metin2Client\EffectLib\Type.h
; File C:\Program Files (x86)\Microsoft Visual Studio\2019\Community\VC\Tools\MSVC\14.28.29333\include\algorithm
; File C:\Program Files (x86)\Microsoft Visual Studio\2019\Community\VC\Tools\MSVC\14.28.29333\include\vector
; File D:\Metin2 Server Files\mainline\SRC_2014\Metin2Client\EffectLib\Type.h
; File C:\Program Files (x86)\Microsoft Visual Studio\2019\Community\VC\Tools\MSVC\14.28.29333\include\vector
; File D:\Metin2 Server Files\mainline\SRC_2014\Metin2Client\EffectLib\Type.h
; File C:\Program Files (x86)\Microsoft Visual Studio\2019\Community\VC\Tools\MSVC\14.28.29333\include\vector
; File D:\Metin2 Server Files\mainline\SRC_2014\Metin2Client\EffectLib\Type.h
; File C:\Program Files (x86)\Microsoft Visual Studio\2019\Community\VC\Tools\MSVC\14.28.29333\include\vector
; File D:\Metin2 Server Files\mainline\SRC_2014\Metin2Client\EffectLib\Type.h
; File D:\Metin2 Server Files\mainline\SRC_2014\Metin2Client\EffectLib\SimpleLightData.cpp
;	COMDAT ?GetRange@CLightData@@QAEXMAAM@Z
_TEXT	SEGMENT
$T1 = -152						; size = 4
$T2 = -148						; size = 4
$T3 = -144						; size = 4
$T4 = -140						; size = 4
_Head$5 = -136						; size = 4
$T6 = -132						; size = 4
$T7 = -128						; size = 4
$T8 = -124						; size = 4
$T9 = -120						; size = 4
$T10 = -116						; size = 4
$T11 = -112						; size = 4
$T12 = -108						; size = 4
$T13 = -104						; size = 4
$T14 = -100						; size = 4
$T15 = -96						; size = 4
$T16 = -92						; size = 4
$T17 = -88						; size = 4
$T18 = -84						; size = 4
__First$ = -80						; size = 4
__Last$ = -76						; size = 4
$T19 = -72						; size = 1
$T20 = -68						; size = 4
$T21 = -64						; size = 4
$T22 = -60						; size = 4
___param0$23 = -56					; size = 4
$T24 = -52						; size = 4
___param0$25 = -48					; size = 4
$T26 = -44						; size = 4
__My_data$27 = -40					; size = 4
$T28 = -36						; size = 4
__My_data$29 = -32					; size = 4
$T30 = -28						; size = 4
__My_data$31 = -24					; size = 4
$T32 = -20						; size = 4
__My_data$33 = -16					; size = 4
$T34 = -12						; size = 4
__My_data$35 = -8					; size = 4
$T36 = -4						; size = 4
$T37 = 0						; size = 4
$T38 = 4						; size = 4
$T39 = 8						; size = 4
$T40 = 12						; size = 4
$T41 = 16						; size = 4
___param0$42 = 20					; size = 4
$T43 = 24						; size = 4
$T44 = 28						; size = 4
___param0$45 = 32					; size = 4
tv347 = 36						; size = 4
tv355 = 40						; size = 4
__My_data$46 = 44					; size = 4
__My_data$47 = 48					; size = 4
tv255 = 52						; size = 4
__My_data$48 = 56					; size = 4
__My_data$49 = 60					; size = 4
tv217 = 64						; size = 4
__My_data$50 = 68					; size = 4
tv84 = 72						; size = 4
__My_data$51 = 76					; size = 4
__Tmp$52 = 80						; size = 4
_this$ = 84						; size = 4
_fElapsedTime$ = 88					; size = 4
_result$53 = 92						; size = 8
$T54 = 103						; size = 1
$T55 = 104						; size = 1
$T56 = 105						; size = 1
$T57 = 106						; size = 1
$T58 = 107						; size = 1
_rVector$ = 108						; size = 4
_fTime$ = 120						; size = 4
_rRange$ = 124						; size = 4
?GetRange@CLightData@@QAEXMAAM@Z PROC			; CLightData::GetRange, COMDAT
; _this$ = ecx

; 49   : {

  00000	55		 push	 ebp
  00001	8d 6c 24 90	 lea	 ebp, DWORD PTR [esp-112]
  00005	81 ec 08 01 00
	00		 sub	 esp, 264		; 00000108H
  0000b	89 4d 54	 mov	 DWORD PTR _this$[ebp], ecx
; File C:\Program Files (x86)\Microsoft Visual Studio\2019\Community\VC\Tools\MSVC\14.28.29333\include\vector

; 1478 :         auto& _My_data = _Mypair._Myval2;

  0000e	8b 45 54	 mov	 eax, DWORD PTR _this$[ebp]
  00011	83 c0 1c	 add	 eax, 28			; 0000001cH
  00014	89 45 4c	 mov	 DWORD PTR __My_data$51[ebp], eax

; 1479 :         return _My_data._Myfirst == _My_data._Mylast;

  00017	8b 45 4c	 mov	 eax, DWORD PTR __My_data$51[ebp]
  0001a	8b 4d 4c	 mov	 ecx, DWORD PTR __My_data$51[ebp]
  0001d	8b 00		 mov	 eax, DWORD PTR [eax]
  0001f	3b 41 04	 cmp	 eax, DWORD PTR [ecx+4]
  00022	75 09		 jne	 SHORT $LN8@GetRange
  00024	c7 45 48 01 00
	00 00		 mov	 DWORD PTR tv84[ebp], 1
  0002b	eb 04		 jmp	 SHORT $LN9@GetRange
$LN8@GetRange:
  0002d	83 65 48 00	 and	 DWORD PTR tv84[ebp], 0
$LN9@GetRange:
  00031	8a 45 48	 mov	 al, BYTE PTR tv84[ebp]
  00034	88 45 6b	 mov	 BYTE PTR $T58[ebp], al
; File D:\Metin2 Server Files\mainline\SRC_2014\Metin2Client\EffectLib\SimpleLightData.cpp

; 50   : 	if (m_TimeEventTableRange.empty())

  00037	0f b6 45 6b	 movzx	 eax, BYTE PTR $T58[ebp]
  0003b	85 c0		 test	 eax, eax
  0003d	74 31		 je	 SHORT $LN2@GetRange

; 51   : 	{
; 52   : 		rRange = 1.0f * m_fMaxRange;

  0003f	8b 45 54	 mov	 eax, DWORD PTR _this$[ebp]
  00042	f3 0f 10 05 00
	00 00 00	 movss	 xmm0, DWORD PTR __real@3f800000
  0004a	f3 0f 59 40 14	 mulss	 xmm0, DWORD PTR [eax+20]
  0004f	8b 45 7c	 mov	 eax, DWORD PTR _rRange$[ebp]
  00052	f3 0f 11 00	 movss	 DWORD PTR [eax], xmm0

; 53   : 		if (rRange<0.0f)

  00056	8b 45 7c	 mov	 eax, DWORD PTR _rRange$[ebp]
  00059	0f 57 c0	 xorps	 xmm0, xmm0
  0005c	0f 2f 00	 comiss	 xmm0, DWORD PTR [eax]
  0005f	76 0a		 jbe	 SHORT $LN3@GetRange

; 54   : 			rRange = 0.0f;

  00061	8b 45 7c	 mov	 eax, DWORD PTR _rRange$[ebp]
  00064	0f 57 c0	 xorps	 xmm0, xmm0
  00067	f3 0f 11 00	 movss	 DWORD PTR [eax], xmm0
$LN3@GetRange:

; 55   : 		return;

  0006b	e9 62 03 00 00	 jmp	 $LN1@GetRange
$LN2@GetRange:

; 56   : 	}
; 57   : 	
; 58   : 	GetTimeEventBlendValue(fTime, m_TimeEventTableRange, &rRange);

  00070	8b 45 54	 mov	 eax, DWORD PTR _this$[ebp]
  00073	83 c0 1c	 add	 eax, 28			; 0000001cH
  00076	89 45 6c	 mov	 DWORD PTR _rVector$[ebp], eax
  00079	f3 0f 10 45 78	 movss	 xmm0, DWORD PTR _fTime$[ebp]
  0007e	f3 0f 11 45 58	 movss	 DWORD PTR _fElapsedTime$[ebp], xmm0
; File C:\Program Files (x86)\Microsoft Visual Studio\2019\Community\VC\Tools\MSVC\14.28.29333\include\vector

; 1478 :         auto& _My_data = _Mypair._Myval2;

  00083	8b 45 6c	 mov	 eax, DWORD PTR _rVector$[ebp]
  00086	89 45 44	 mov	 DWORD PTR __My_data$50[ebp], eax

; 1479 :         return _My_data._Myfirst == _My_data._Mylast;

  00089	8b 45 44	 mov	 eax, DWORD PTR __My_data$50[ebp]
  0008c	8b 4d 44	 mov	 ecx, DWORD PTR __My_data$50[ebp]
  0008f	8b 00		 mov	 eax, DWORD PTR [eax]
  00091	3b 41 04	 cmp	 eax, DWORD PTR [ecx+4]
  00094	75 09		 jne	 SHORT $LN21@GetRange
  00096	c7 45 40 01 00
	00 00		 mov	 DWORD PTR tv217[ebp], 1
  0009d	eb 04		 jmp	 SHORT $LN22@GetRange
$LN21@GetRange:
  0009f	83 65 40 00	 and	 DWORD PTR tv217[ebp], 0
$LN22@GetRange:
  000a3	8a 45 40	 mov	 al, BYTE PTR tv217[ebp]
  000a6	88 45 6a	 mov	 BYTE PTR $T57[ebp], al
; File D:\Metin2 Server Files\mainline\SRC_2014\Metin2Client\EffectLib\Type.h

; 229  : 	if (rVector.empty())

  000a9	0f b6 45 6a	 movzx	 eax, BYTE PTR $T57[ebp]
  000ad	85 c0		 test	 eax, eax
  000af	74 0f		 je	 SHORT $LN12@GetRange

; 230  : 	{
; 231  : 		*pReturnValue = T();

  000b1	8b 45 7c	 mov	 eax, DWORD PTR _rRange$[ebp]
  000b4	0f 57 c0	 xorps	 xmm0, xmm0
  000b7	f3 0f 11 00	 movss	 DWORD PTR [eax], xmm0

; 232  : 		return;

  000bb	e9 e7 02 00 00	 jmp	 $LN11@GetRange
$LN12@GetRange:
; File C:\Program Files (x86)\Microsoft Visual Studio\2019\Community\VC\Tools\MSVC\14.28.29333\include\vector

; 1420 :         auto& _My_data = _Mypair._Myval2;

  000c0	8b 45 6c	 mov	 eax, DWORD PTR _rVector$[ebp]
  000c3	89 45 3c	 mov	 DWORD PTR __My_data$49[ebp], eax
; File C:\Program Files (x86)\Microsoft Visual Studio\2019\Community\VC\Tools\MSVC\14.28.29333\include\xstddef

; 275  :     return __builtin_addressof(_Val);

  000c6	8b 45 3c	 mov	 eax, DWORD PTR __My_data$49[ebp]
  000c9	89 45 a8	 mov	 DWORD PTR $T17[ebp], eax
; File C:\Program Files (x86)\Microsoft Visual Studio\2019\Community\VC\Tools\MSVC\14.28.29333\include\vector

; 1421 :         return iterator(_My_data._Mylast, _STD addressof(_My_data));

  000cc	8b 45 3c	 mov	 eax, DWORD PTR __My_data$49[ebp]
  000cf	8b 40 04	 mov	 eax, DWORD PTR [eax+4]
  000d2	89 45 20	 mov	 DWORD PTR ___param0$45[ebp], eax
  000d5	ff 75 a8	 push	 DWORD PTR $T17[ebp]
  000d8	ff 75 20	 push	 DWORD PTR ___param0$45[ebp]
  000db	8d 4d 1c	 lea	 ecx, DWORD PTR $T44[ebp]
  000de	e8 00 00 00 00	 call	 ??0?$_Vector_const_iterator@V?$_Vector_val@U?$_Simple_types@V?$CTimeEvent@M@@@std@@@std@@@std@@QAE@PAV?$CTimeEvent@M@@PBU_Container_base0@1@@Z ; std::_Vector_const_iterator<std::_Vector_val<std::_Simple_types<CTimeEvent<float> > > >::_Vector_const_iterator<std::_Vector_val<std::_Simple_types<CTimeEvent<float> > > >
  000e3	8d 45 1c	 lea	 eax, DWORD PTR $T44[ebp]
  000e6	89 45 fc	 mov	 DWORD PTR $T36[ebp], eax

; 1410 :         auto& _My_data = _Mypair._Myval2;

  000e9	8b 45 6c	 mov	 eax, DWORD PTR _rVector$[ebp]
  000ec	89 45 38	 mov	 DWORD PTR __My_data$48[ebp], eax
; File C:\Program Files (x86)\Microsoft Visual Studio\2019\Community\VC\Tools\MSVC\14.28.29333\include\xstddef

; 275  :     return __builtin_addressof(_Val);

  000ef	8b 45 38	 mov	 eax, DWORD PTR __My_data$48[ebp]
  000f2	89 45 18	 mov	 DWORD PTR $T43[ebp], eax
; File C:\Program Files (x86)\Microsoft Visual Studio\2019\Community\VC\Tools\MSVC\14.28.29333\include\vector

; 1411 :         return iterator(_My_data._Myfirst, _STD addressof(_My_data));

  000f5	8b 45 38	 mov	 eax, DWORD PTR __My_data$48[ebp]
  000f8	8b 00		 mov	 eax, DWORD PTR [eax]
  000fa	89 45 14	 mov	 DWORD PTR ___param0$42[ebp], eax
  000fd	ff 75 18	 push	 DWORD PTR $T43[ebp]
  00100	ff 75 14	 push	 DWORD PTR ___param0$42[ebp]
  00103	8d 4d 10	 lea	 ecx, DWORD PTR $T41[ebp]
  00106	e8 00 00 00 00	 call	 ??0?$_Vector_const_iterator@V?$_Vector_val@U?$_Simple_types@V?$CTimeEvent@M@@@std@@@std@@@std@@QAE@PAV?$CTimeEvent@M@@PBU_Container_base0@1@@Z ; std::_Vector_const_iterator<std::_Vector_val<std::_Simple_types<CTimeEvent<float> > > >::_Vector_const_iterator<std::_Vector_val<std::_Simple_types<CTimeEvent<float> > > >
  0010b	8d 45 10	 lea	 eax, DWORD PTR $T41[ebp]
  0010e	89 45 0c	 mov	 DWORD PTR $T40[ebp], eax

; 287  :         _Vector_iterator _Tmp = *this;

  00111	8b 45 0c	 mov	 eax, DWORD PTR $T40[ebp]
  00114	8b 00		 mov	 eax, DWORD PTR [eax]
  00116	89 45 50	 mov	 DWORD PTR __Tmp$52[ebp], eax

; 120  :         _Ptr += _Off;

  00119	33 c0		 xor	 eax, eax
  0011b	40		 inc	 eax
  0011c	c1 e0 03	 shl	 eax, 3
  0011f	03 45 50	 add	 eax, DWORD PTR __Tmp$52[ebp]
  00122	89 45 50	 mov	 DWORD PTR __Tmp$52[ebp], eax

; 283  :         return *this;

  00125	8d 45 50	 lea	 eax, DWORD PTR __Tmp$52[ebp]
  00128	89 45 08	 mov	 DWORD PTR $T39[ebp], eax

; 288  :         return _Tmp += _Off;

  0012b	8b 45 08	 mov	 eax, DWORD PTR $T39[ebp]
  0012e	8b 00		 mov	 eax, DWORD PTR [eax]
  00130	89 45 04	 mov	 DWORD PTR $T38[ebp], eax
  00133	8d 45 04	 lea	 eax, DWORD PTR $T38[ebp]
  00136	89 45 00	 mov	 DWORD PTR $T37[ebp], eax

; 149  :         return _Ptr == _Right._Ptr;

  00139	8b 45 00	 mov	 eax, DWORD PTR $T37[ebp]
  0013c	8b 4d fc	 mov	 ecx, DWORD PTR $T36[ebp]
  0013f	8b 00		 mov	 eax, DWORD PTR [eax]
  00141	3b 01		 cmp	 eax, DWORD PTR [ecx]
  00143	75 09		 jne	 SHORT $LN56@GetRange
  00145	c7 45 34 01 00
	00 00		 mov	 DWORD PTR tv255[ebp], 1
  0014c	eb 04		 jmp	 SHORT $LN57@GetRange
$LN56@GetRange:
  0014e	83 65 34 00	 and	 DWORD PTR tv255[ebp], 0
$LN57@GetRange:
  00152	8a 45 34	 mov	 al, BYTE PTR tv255[ebp]
  00155	88 45 69	 mov	 BYTE PTR $T56[ebp], al
; File D:\Metin2 Server Files\mainline\SRC_2014\Metin2Client\EffectLib\Type.h

; 235  : 	if(rVector.begin()+1==rVector.end())

  00158	0f b6 45 69	 movzx	 eax, BYTE PTR $T56[ebp]
  0015c	85 c0		 test	 eax, eax
  0015e	74 1e		 je	 SHORT $LN13@GetRange
; File C:\Program Files (x86)\Microsoft Visual Studio\2019\Community\VC\Tools\MSVC\14.28.29333\include\vector

; 1536 :         auto& _My_data = _Mypair._Myval2;

  00160	8b 45 6c	 mov	 eax, DWORD PTR _rVector$[ebp]
  00163	89 45 f8	 mov	 DWORD PTR __My_data$35[ebp], eax

; 1537 : #if _CONTAINER_DEBUG_LEVEL > 0
; 1538 :         _STL_VERIFY(_My_data._Myfirst != _My_data._Mylast, "front() called on empty vector");
; 1539 : #endif // _CONTAINER_DEBUG_LEVEL > 0
; 1540 : 
; 1541 :         return *_My_data._Myfirst;

  00166	8b 45 f8	 mov	 eax, DWORD PTR __My_data$35[ebp]
  00169	8b 00		 mov	 eax, DWORD PTR [eax]
  0016b	89 45 f4	 mov	 DWORD PTR $T34[ebp], eax
; File D:\Metin2 Server Files\mainline\SRC_2014\Metin2Client\EffectLib\Type.h

; 237  : 		*pReturnValue = rVector.front().m_Value;

  0016e	8b 45 7c	 mov	 eax, DWORD PTR _rRange$[ebp]
  00171	8b 4d f4	 mov	 ecx, DWORD PTR $T34[ebp]
  00174	8b 49 04	 mov	 ecx, DWORD PTR [ecx+4]
  00177	89 08		 mov	 DWORD PTR [eax], ecx

; 238  : 		return;

  00179	e9 29 02 00 00	 jmp	 $LN11@GetRange
$LN13@GetRange:
; File C:\Program Files (x86)\Microsoft Visual Studio\2019\Community\VC\Tools\MSVC\14.28.29333\include\vector

; 1536 :         auto& _My_data = _Mypair._Myval2;

  0017e	8b 45 6c	 mov	 eax, DWORD PTR _rVector$[ebp]
  00181	89 45 f0	 mov	 DWORD PTR __My_data$33[ebp], eax

; 1537 : #if _CONTAINER_DEBUG_LEVEL > 0
; 1538 :         _STL_VERIFY(_My_data._Myfirst != _My_data._Mylast, "front() called on empty vector");
; 1539 : #endif // _CONTAINER_DEBUG_LEVEL > 0
; 1540 : 
; 1541 :         return *_My_data._Myfirst;

  00184	8b 45 f0	 mov	 eax, DWORD PTR __My_data$33[ebp]
  00187	8b 00		 mov	 eax, DWORD PTR [eax]
  00189	89 45 ec	 mov	 DWORD PTR $T32[ebp], eax
; File D:\Metin2 Server Files\mainline\SRC_2014\Metin2Client\EffectLib\Type.h

; 241  : 	if (fElapsedTime < rVector.front().m_fTime)

  0018c	8b 45 ec	 mov	 eax, DWORD PTR $T32[ebp]
  0018f	f3 0f 10 00	 movss	 xmm0, DWORD PTR [eax]
  00193	0f 2f 45 58	 comiss	 xmm0, DWORD PTR _fElapsedTime$[ebp]
  00197	76 1e		 jbe	 SHORT $LN14@GetRange
; File C:\Program Files (x86)\Microsoft Visual Studio\2019\Community\VC\Tools\MSVC\14.28.29333\include\vector

; 1536 :         auto& _My_data = _Mypair._Myval2;

  00199	8b 45 6c	 mov	 eax, DWORD PTR _rVector$[ebp]
  0019c	89 45 e8	 mov	 DWORD PTR __My_data$31[ebp], eax

; 1537 : #if _CONTAINER_DEBUG_LEVEL > 0
; 1538 :         _STL_VERIFY(_My_data._Myfirst != _My_data._Mylast, "front() called on empty vector");
; 1539 : #endif // _CONTAINER_DEBUG_LEVEL > 0
; 1540 : 
; 1541 :         return *_My_data._Myfirst;

  0019f	8b 45 e8	 mov	 eax, DWORD PTR __My_data$31[ebp]
  001a2	8b 00		 mov	 eax, DWORD PTR [eax]
  001a4	89 45 e4	 mov	 DWORD PTR $T30[ebp], eax
; File D:\Metin2 Server Files\mainline\SRC_2014\Metin2Client\EffectLib\Type.h

; 243  : 		*pReturnValue = rVector.front().m_Value;

  001a7	8b 45 7c	 mov	 eax, DWORD PTR _rRange$[ebp]
  001aa	8b 4d e4	 mov	 ecx, DWORD PTR $T30[ebp]
  001ad	8b 49 04	 mov	 ecx, DWORD PTR [ecx+4]
  001b0	89 08		 mov	 DWORD PTR [eax], ecx

; 244  : 		return;

  001b2	e9 f0 01 00 00	 jmp	 $LN11@GetRange
$LN14@GetRange:
; File C:\Program Files (x86)\Microsoft Visual Studio\2019\Community\VC\Tools\MSVC\14.28.29333\include\vector

; 1554 :         auto& _My_data = _Mypair._Myval2;

  001b7	8b 45 6c	 mov	 eax, DWORD PTR _rVector$[ebp]
  001ba	89 45 e0	 mov	 DWORD PTR __My_data$29[ebp], eax

; 1555 : #if _CONTAINER_DEBUG_LEVEL > 0
; 1556 :         _STL_VERIFY(_My_data._Myfirst != _My_data._Mylast, "back() called on empty vector");
; 1557 : #endif // _CONTAINER_DEBUG_LEVEL > 0
; 1558 : 
; 1559 :         return _My_data._Mylast[-1];

  001bd	6a 08		 push	 8
  001bf	58		 pop	 eax
  001c0	6b c0 ff	 imul	 eax, eax, -1
  001c3	8b 4d e0	 mov	 ecx, DWORD PTR __My_data$29[ebp]
  001c6	03 41 04	 add	 eax, DWORD PTR [ecx+4]
  001c9	89 45 dc	 mov	 DWORD PTR $T28[ebp], eax
; File D:\Metin2 Server Files\mainline\SRC_2014\Metin2Client\EffectLib\Type.h

; 247  : 	if (fElapsedTime > rVector.back().m_fTime)

  001cc	8b 45 dc	 mov	 eax, DWORD PTR $T28[ebp]
  001cf	f3 0f 10 45 58	 movss	 xmm0, DWORD PTR _fElapsedTime$[ebp]
  001d4	0f 2f 00	 comiss	 xmm0, DWORD PTR [eax]
  001d7	76 25		 jbe	 SHORT $LN15@GetRange
; File C:\Program Files (x86)\Microsoft Visual Studio\2019\Community\VC\Tools\MSVC\14.28.29333\include\vector

; 1554 :         auto& _My_data = _Mypair._Myval2;

  001d9	8b 45 6c	 mov	 eax, DWORD PTR _rVector$[ebp]
  001dc	89 45 d8	 mov	 DWORD PTR __My_data$27[ebp], eax

; 1555 : #if _CONTAINER_DEBUG_LEVEL > 0
; 1556 :         _STL_VERIFY(_My_data._Myfirst != _My_data._Mylast, "back() called on empty vector");
; 1557 : #endif // _CONTAINER_DEBUG_LEVEL > 0
; 1558 : 
; 1559 :         return _My_data._Mylast[-1];

  001df	6a 08		 push	 8
  001e1	58		 pop	 eax
  001e2	6b c0 ff	 imul	 eax, eax, -1
  001e5	8b 4d d8	 mov	 ecx, DWORD PTR __My_data$27[ebp]
  001e8	03 41 04	 add	 eax, DWORD PTR [ecx+4]
  001eb	89 45 d4	 mov	 DWORD PTR $T26[ebp], eax
; File D:\Metin2 Server Files\mainline\SRC_2014\Metin2Client\EffectLib\Type.h

; 249  : 		*pReturnValue = rVector.back().m_Value;

  001ee	8b 45 7c	 mov	 eax, DWORD PTR _rRange$[ebp]
  001f1	8b 4d d4	 mov	 ecx, DWORD PTR $T26[ebp]
  001f4	8b 49 04	 mov	 ecx, DWORD PTR [ecx+4]
  001f7	89 08		 mov	 DWORD PTR [eax], ecx

; 250  : 		return;

  001f9	e9 a9 01 00 00	 jmp	 $LN11@GetRange
$LN15@GetRange:
; File C:\Program Files (x86)\Microsoft Visual Studio\2019\Community\VC\Tools\MSVC\14.28.29333\include\vector

; 1420 :         auto& _My_data = _Mypair._Myval2;

  001fe	8b 45 6c	 mov	 eax, DWORD PTR _rVector$[ebp]
  00201	89 45 30	 mov	 DWORD PTR __My_data$47[ebp], eax
; File C:\Program Files (x86)\Microsoft Visual Studio\2019\Community\VC\Tools\MSVC\14.28.29333\include\xstddef

; 275  :     return __builtin_addressof(_Val);

  00204	8b 45 30	 mov	 eax, DWORD PTR __My_data$47[ebp]
  00207	89 85 68 ff ff
	ff		 mov	 DWORD PTR $T1[ebp], eax
; File C:\Program Files (x86)\Microsoft Visual Studio\2019\Community\VC\Tools\MSVC\14.28.29333\include\vector

; 1421 :         return iterator(_My_data._Mylast, _STD addressof(_My_data));

  0020d	8b 45 30	 mov	 eax, DWORD PTR __My_data$47[ebp]
  00210	8b 40 04	 mov	 eax, DWORD PTR [eax+4]
  00213	89 45 d0	 mov	 DWORD PTR ___param0$25[ebp], eax

; 42   :     _Vector_const_iterator(_Tptr _Parg, const _Container_base* _Pvector) noexcept : _Ptr(_Parg) {

  00216	8b 45 d0	 mov	 eax, DWORD PTR ___param0$25[ebp]
  00219	89 45 cc	 mov	 DWORD PTR $T24[ebp], eax

; 1421 :         return iterator(_My_data._Mylast, _STD addressof(_My_data));

  0021c	8d 45 cc	 lea	 eax, DWORD PTR $T24[ebp]
  0021f	89 45 c0	 mov	 DWORD PTR $T21[ebp], eax

; 1410 :         auto& _My_data = _Mypair._Myval2;

  00222	8b 45 6c	 mov	 eax, DWORD PTR _rVector$[ebp]
  00225	89 45 2c	 mov	 DWORD PTR __My_data$46[ebp], eax
; File C:\Program Files (x86)\Microsoft Visual Studio\2019\Community\VC\Tools\MSVC\14.28.29333\include\xstddef

; 275  :     return __builtin_addressof(_Val);

  00228	8b 45 2c	 mov	 eax, DWORD PTR __My_data$46[ebp]
  0022b	89 85 6c ff ff
	ff		 mov	 DWORD PTR $T2[ebp], eax
; File C:\Program Files (x86)\Microsoft Visual Studio\2019\Community\VC\Tools\MSVC\14.28.29333\include\vector

; 1411 :         return iterator(_My_data._Myfirst, _STD addressof(_My_data));

  00231	8b 45 2c	 mov	 eax, DWORD PTR __My_data$46[ebp]
  00234	8b 00		 mov	 eax, DWORD PTR [eax]
  00236	89 45 c8	 mov	 DWORD PTR ___param0$23[ebp], eax

; 42   :     _Vector_const_iterator(_Tptr _Parg, const _Container_base* _Pvector) noexcept : _Ptr(_Parg) {

  00239	8b 45 c8	 mov	 eax, DWORD PTR ___param0$23[ebp]
  0023c	89 45 c4	 mov	 DWORD PTR $T22[ebp], eax

; 1411 :         return iterator(_My_data._Myfirst, _STD addressof(_My_data));

  0023f	8d 45 c4	 lea	 eax, DWORD PTR $T22[ebp]
  00242	89 45 bc	 mov	 DWORD PTR $T20[ebp], eax
; File D:\Metin2 Server Files\mainline\SRC_2014\Metin2Client\EffectLib\Type.h

; 255  : 	std::pair<iterator, iterator> result = std::equal_range(rVector.begin(), rVector.end(), fElapsedTime);

  00245	8b 45 c0	 mov	 eax, DWORD PTR $T21[ebp]
  00248	8b 00		 mov	 eax, DWORD PTR [eax]
  0024a	89 45 b4	 mov	 DWORD PTR __Last$[ebp], eax
  0024d	8b 45 bc	 mov	 eax, DWORD PTR $T20[ebp]
  00250	8b 00		 mov	 eax, DWORD PTR [eax]
  00252	89 45 b0	 mov	 DWORD PTR __First$[ebp], eax
; File C:\Program Files (x86)\Microsoft Visual Studio\2019\Community\VC\Tools\MSVC\14.28.29333\include\algorithm

; 6851 :     return _STD equal_range(_First, _Last, _Val, less<>{});

  00255	33 c0		 xor	 eax, eax
  00257	88 45 b8	 mov	 BYTE PTR $T19[ebp], al
  0025a	ff 75 b8	 push	 DWORD PTR $T19[ebp]
  0025d	8d 45 58	 lea	 eax, DWORD PTR _fElapsedTime$[ebp]
  00260	50		 push	 eax
  00261	ff 75 b4	 push	 DWORD PTR __Last$[ebp]
  00264	ff 75 b0	 push	 DWORD PTR __First$[ebp]
  00267	8d 45 5c	 lea	 eax, DWORD PTR _result$53[ebp]
  0026a	50		 push	 eax
  0026b	e8 00 00 00 00	 call	 ??$equal_range@V?$_Vector_iterator@V?$_Vector_val@U?$_Simple_types@V?$CTimeEvent@M@@@std@@@std@@@std@@MU?$less@X@2@@std@@YA?AU?$pair@V?$_Vector_iterator@V?$_Vector_val@U?$_Simple_types@V?$CTimeEvent@M@@@std@@@std@@@std@@V12@@0@V?$_Vector_iterator@V?$_Vector_val@U?$_Simple_types@V?$CTimeEvent@M@@@std@@@std@@@0@0ABMU?$less@X@0@@Z ; std::equal_range<std::_Vector_iterator<std::_Vector_val<std::_Simple_types<CTimeEvent<float> > > >,float,std::less<void> >
  00270	83 c4 14	 add	 esp, 20			; 00000014H
; File C:\Program Files (x86)\Microsoft Visual Studio\2019\Community\VC\Tools\MSVC\14.28.29333\include\vector

; 149  :         return _Ptr == _Right._Ptr;

  00273	8b 45 5c	 mov	 eax, DWORD PTR _result$53[ebp]
  00276	3b 45 60	 cmp	 eax, DWORD PTR _result$53[ebp+4]
  00279	75 09		 jne	 SHORT $LN116@GetRange
  0027b	c7 45 28 01 00
	00 00		 mov	 DWORD PTR tv355[ebp], 1
  00282	eb 04		 jmp	 SHORT $LN117@GetRange
$LN116@GetRange:
  00284	83 65 28 00	 and	 DWORD PTR tv355[ebp], 0
$LN117@GetRange:
  00288	8a 45 28	 mov	 al, BYTE PTR tv355[ebp]
  0028b	88 45 68	 mov	 BYTE PTR $T55[ebp], al

; 153  :         return !(*this == _Right);

  0028e	0f b6 45 68	 movzx	 eax, BYTE PTR $T55[ebp]
  00292	85 c0		 test	 eax, eax
  00294	75 09		 jne	 SHORT $LN111@GetRange
  00296	c7 45 24 01 00
	00 00		 mov	 DWORD PTR tv347[ebp], 1
  0029d	eb 04		 jmp	 SHORT $LN112@GetRange
$LN111@GetRange:
  0029f	83 65 24 00	 and	 DWORD PTR tv347[ebp], 0
$LN112@GetRange:
  002a3	8a 45 24	 mov	 al, BYTE PTR tv347[ebp]
  002a6	88 45 67	 mov	 BYTE PTR $T54[ebp], al
; File D:\Metin2 Server Files\mainline\SRC_2014\Metin2Client\EffectLib\Type.h

; 257  : 	if (result.first != result.second)

  002a9	0f b6 45 67	 movzx	 eax, BYTE PTR $T54[ebp]
  002ad	85 c0		 test	 eax, eax
  002af	74 22		 je	 SHORT $LN16@GetRange
; File C:\Program Files (x86)\Microsoft Visual Studio\2019\Community\VC\Tools\MSVC\14.28.29333\include\vector

; 65   :         return _Ptr;

  002b1	8b 45 5c	 mov	 eax, DWORD PTR _result$53[ebp]
  002b4	89 45 ac	 mov	 DWORD PTR $T18[ebp], eax

; 256  :         return _Const_cast(_Mybase::operator->());

  002b7	ff 75 ac	 push	 DWORD PTR $T18[ebp]
  002ba	e8 00 00 00 00	 call	 ??$_Const_cast@$$CBV?$CTimeEvent@M@@@std@@YAPAV?$CTimeEvent@M@@PBV1@@Z ; std::_Const_cast<CTimeEvent<float> const >
  002bf	59		 pop	 ecx
  002c0	89 45 88	 mov	 DWORD PTR $T9[ebp], eax
; File D:\Metin2 Server Files\mainline\SRC_2014\Metin2Client\EffectLib\Type.h

; 258  : 		*pReturnValue = result.first->m_Value;

  002c3	8b 45 7c	 mov	 eax, DWORD PTR _rRange$[ebp]
  002c6	8b 4d 88	 mov	 ecx, DWORD PTR $T9[ebp]
  002c9	8b 49 04	 mov	 ecx, DWORD PTR [ecx+4]
  002cc	89 08		 mov	 DWORD PTR [eax], ecx
  002ce	e9 d4 00 00 00	 jmp	 $LN17@GetRange
$LN16@GetRange:
; File C:\Program Files (x86)\Microsoft Visual Studio\2019\Community\VC\Tools\MSVC\14.28.29333\include\vector

; 92   :         --_Ptr;

  002d3	8b 45 5c	 mov	 eax, DWORD PTR _result$53[ebp]
  002d6	83 e8 08	 sub	 eax, 8
  002d9	89 45 5c	 mov	 DWORD PTR _result$53[ebp], eax

; 65   :         return _Ptr;

  002dc	8b 45 60	 mov	 eax, DWORD PTR _result$53[ebp+4]
  002df	89 45 a4	 mov	 DWORD PTR $T16[ebp], eax

; 256  :         return _Const_cast(_Mybase::operator->());

  002e2	ff 75 a4	 push	 DWORD PTR $T16[ebp]
  002e5	e8 00 00 00 00	 call	 ??$_Const_cast@$$CBV?$CTimeEvent@M@@@std@@YAPAV?$CTimeEvent@M@@PBV1@@Z ; std::_Const_cast<CTimeEvent<float> const >
  002ea	59		 pop	 ecx
  002eb	89 45 98	 mov	 DWORD PTR $T13[ebp], eax

; 65   :         return _Ptr;

  002ee	8b 45 60	 mov	 eax, DWORD PTR _result$53[ebp+4]
  002f1	89 45 a0	 mov	 DWORD PTR $T15[ebp], eax

; 256  :         return _Const_cast(_Mybase::operator->());

  002f4	ff 75 a0	 push	 DWORD PTR $T15[ebp]
  002f7	e8 00 00 00 00	 call	 ??$_Const_cast@$$CBV?$CTimeEvent@M@@@std@@YAPAV?$CTimeEvent@M@@PBV1@@Z ; std::_Const_cast<CTimeEvent<float> const >
  002fc	59		 pop	 ecx
  002fd	89 45 94	 mov	 DWORD PTR $T12[ebp], eax

; 65   :         return _Ptr;

  00300	8b 45 5c	 mov	 eax, DWORD PTR _result$53[ebp]
  00303	89 45 9c	 mov	 DWORD PTR $T14[ebp], eax

; 256  :         return _Const_cast(_Mybase::operator->());

  00306	ff 75 9c	 push	 DWORD PTR $T14[ebp]
  00309	e8 00 00 00 00	 call	 ??$_Const_cast@$$CBV?$CTimeEvent@M@@@std@@YAPAV?$CTimeEvent@M@@PBV1@@Z ; std::_Const_cast<CTimeEvent<float> const >
  0030e	59		 pop	 ecx
  0030f	89 45 90	 mov	 DWORD PTR $T11[ebp], eax
; File D:\Metin2 Server Files\mainline\SRC_2014\Metin2Client\EffectLib\Type.h

; 262  : 		float Head = (result.second->m_fTime - fElapsedTime) / (result.second->m_fTime - result.first->m_fTime);

  00312	8b 45 98	 mov	 eax, DWORD PTR $T13[ebp]
  00315	f3 0f 10 00	 movss	 xmm0, DWORD PTR [eax]
  00319	f3 0f 5c 45 58	 subss	 xmm0, DWORD PTR _fElapsedTime$[ebp]
  0031e	8b 45 94	 mov	 eax, DWORD PTR $T12[ebp]
  00321	8b 4d 90	 mov	 ecx, DWORD PTR $T11[ebp]
  00324	f3 0f 10 08	 movss	 xmm1, DWORD PTR [eax]
  00328	f3 0f 5c 09	 subss	 xmm1, DWORD PTR [ecx]
  0032c	f3 0f 5e c1	 divss	 xmm0, xmm1
  00330	f3 0f 11 85 78
	ff ff ff	 movss	 DWORD PTR _Head$5[ebp], xmm0
; File C:\Program Files (x86)\Microsoft Visual Studio\2019\Community\VC\Tools\MSVC\14.28.29333\include\vector

; 65   :         return _Ptr;

  00338	8b 45 5c	 mov	 eax, DWORD PTR _result$53[ebp]
  0033b	89 45 8c	 mov	 DWORD PTR $T10[ebp], eax

; 256  :         return _Const_cast(_Mybase::operator->());

  0033e	ff 75 8c	 push	 DWORD PTR $T10[ebp]
  00341	e8 00 00 00 00	 call	 ??$_Const_cast@$$CBV?$CTimeEvent@M@@@std@@YAPAV?$CTimeEvent@M@@PBV1@@Z ; std::_Const_cast<CTimeEvent<float> const >
  00346	59		 pop	 ecx
  00347	89 45 80	 mov	 DWORD PTR $T7[ebp], eax

; 65   :         return _Ptr;

  0034a	8b 45 60	 mov	 eax, DWORD PTR _result$53[ebp+4]
  0034d	89 85 70 ff ff
	ff		 mov	 DWORD PTR $T3[ebp], eax

; 256  :         return _Const_cast(_Mybase::operator->());

  00353	ff b5 70 ff ff
	ff		 push	 DWORD PTR $T3[ebp]
  00359	e8 00 00 00 00	 call	 ??$_Const_cast@$$CBV?$CTimeEvent@M@@@std@@YAPAV?$CTimeEvent@M@@PBV1@@Z ; std::_Const_cast<CTimeEvent<float> const >
  0035e	59		 pop	 ecx
  0035f	89 85 7c ff ff
	ff		 mov	 DWORD PTR $T6[ebp], eax

; 65   :         return _Ptr;

  00365	8b 45 60	 mov	 eax, DWORD PTR _result$53[ebp+4]
  00368	89 45 84	 mov	 DWORD PTR $T8[ebp], eax

; 256  :         return _Const_cast(_Mybase::operator->());

  0036b	ff 75 84	 push	 DWORD PTR $T8[ebp]
  0036e	e8 00 00 00 00	 call	 ??$_Const_cast@$$CBV?$CTimeEvent@M@@@std@@YAPAV?$CTimeEvent@M@@PBV1@@Z ; std::_Const_cast<CTimeEvent<float> const >
  00373	59		 pop	 ecx
  00374	89 85 74 ff ff
	ff		 mov	 DWORD PTR $T4[ebp], eax
; File D:\Metin2 Server Files\mainline\SRC_2014\Metin2Client\EffectLib\Type.h

; 263  : 		*pReturnValue = T((result.first->m_Value-result.second->m_Value)*Head+(result.second->m_Value));

  0037a	8b 45 80	 mov	 eax, DWORD PTR $T7[ebp]
  0037d	8b 8d 7c ff ff
	ff		 mov	 ecx, DWORD PTR $T6[ebp]
  00383	f3 0f 10 40 04	 movss	 xmm0, DWORD PTR [eax+4]
  00388	f3 0f 5c 41 04	 subss	 xmm0, DWORD PTR [ecx+4]
  0038d	f3 0f 59 85 78
	ff ff ff	 mulss	 xmm0, DWORD PTR _Head$5[ebp]
  00395	8b 85 74 ff ff
	ff		 mov	 eax, DWORD PTR $T4[ebp]
  0039b	f3 0f 58 40 04	 addss	 xmm0, DWORD PTR [eax+4]
  003a0	8b 45 7c	 mov	 eax, DWORD PTR _rRange$[ebp]
  003a3	f3 0f 11 00	 movss	 DWORD PTR [eax], xmm0
$LN17@GetRange:
$LN11@GetRange:
; File D:\Metin2 Server Files\mainline\SRC_2014\Metin2Client\EffectLib\SimpleLightData.cpp

; 59   : 	rRange *= m_fMaxRange;

  003a7	8b 45 7c	 mov	 eax, DWORD PTR _rRange$[ebp]
  003aa	8b 4d 54	 mov	 ecx, DWORD PTR _this$[ebp]
  003ad	f3 0f 10 00	 movss	 xmm0, DWORD PTR [eax]
  003b1	f3 0f 59 41 14	 mulss	 xmm0, DWORD PTR [ecx+20]
  003b6	8b 45 7c	 mov	 eax, DWORD PTR _rRange$[ebp]
  003b9	f3 0f 11 00	 movss	 DWORD PTR [eax], xmm0

; 60   : 	if (rRange<0.0f)

  003bd	8b 45 7c	 mov	 eax, DWORD PTR _rRange$[ebp]
  003c0	0f 57 c0	 xorps	 xmm0, xmm0
  003c3	0f 2f 00	 comiss	 xmm0, DWORD PTR [eax]
  003c6	76 0a		 jbe	 SHORT $LN4@GetRange

; 61   : 		rRange = 0.0f;

  003c8	8b 45 7c	 mov	 eax, DWORD PTR _rRange$[ebp]
  003cb	0f 57 c0	 xorps	 xmm0, xmm0
  003ce	f3 0f 11 00	 movss	 DWORD PTR [eax], xmm0
$LN4@GetRange:
$LN1@GetRange:

; 62   : 	return;
; 63   : 	/*
; 64   : 	float vecLastRange = m_TimeEventTableRange[0].m_Value;
; 65   : 
; 66   : 	for (DWORD dwIndex = 0; dwIndex < m_TimeEventTableRange.size(); ++dwIndex)
; 67   : 	{
; 68   : 		if(fTime < m_TimeEventTableRange[dwIndex].m_fTime)
; 69   : 		{
; 70   : 			break;
; 71   : 		}
; 72   : 	}
; 73   : 
; 74   : 	if (dwIndex >= m_TimeEventTableRange.size())
; 75   : 	{
; 76   : 		rRange = m_TimeEventTableRange[m_TimeEventTableRange.size()-1].m_Value * m_fMaxRange;
; 77   : 		if (rRange<0.0f)
; 78   : 			rRange = 0.0f;
; 79   : 		return;
; 80   : 	}
; 81   : 
; 82   : 	TTimeEventTypeFloat & rEffectRange = m_TimeEventTableRange[dwIndex];
; 83   : 	TTimeEventTypeFloat & rPrevEffectRange = m_TimeEventTableRange[dwIndex-1];
; 84   : 
; 85   : 	float Head = fabs(rEffectRange.m_fTime - fTime) / fabs(rEffectRange.m_fTime - rPrevEffectRange.m_fTime);
; 86   : 	float Tail = 1.0f - fabs(rEffectRange.m_fTime - fTime) / fabs(rEffectRange.m_fTime - rPrevEffectRange.m_fTime);
; 87   : 	rRange = ((rPrevEffectRange.m_Value*Head) + (rEffectRange.m_Value*Tail) )*m_fMaxRange;
; 88   : 	if (rRange<0.0f)
; 89   : 		rRange = 0.0f;
; 90   : 		*/
; 91   : }

  003d2	83 c5 70	 add	 ebp, 112		; 00000070H
  003d5	c9		 leave
  003d6	c2 08 00	 ret	 8
?GetRange@CLightData@@QAEXMAAM@Z ENDP			; CLightData::GetRange
_TEXT	ENDS
; Function compile flags: /Odspy
; File D:\Metin2 Server Files\mainline\SRC_2014\Metin2Client\EffectLib\SimpleLightData.cpp
; File C:\Program Files (x86)\Microsoft Visual Studio\2019\Community\VC\Tools\MSVC\14.28.29333\include\vector
; File D:\Metin2 Server Files\mainline\SRC_2014\Metin2Client\EffectLib\SimpleLightData.cpp
;	COMDAT ??1CLightData@@UAE@XZ
_TEXT	SEGMENT
_this$ = -4						; size = 4
??1CLightData@@UAE@XZ PROC				; CLightData::~CLightData, COMDAT
; _this$ = ecx

; 141  : {

  00000	55		 push	 ebp
  00001	8b ec		 mov	 ebp, esp
  00003	51		 push	 ecx
  00004	89 4d fc	 mov	 DWORD PTR _this$[ebp], ecx
  00007	8b 45 fc	 mov	 eax, DWORD PTR _this$[ebp]
  0000a	c7 00 00 00 00
	00		 mov	 DWORD PTR [eax], OFFSET ??_7CLightData@@6B@

; 142  : }

  00010	8b 4d fc	 mov	 ecx, DWORD PTR _this$[ebp]
  00013	83 c1 1c	 add	 ecx, 28			; 0000001cH
; File C:\Program Files (x86)\Microsoft Visual Studio\2019\Community\VC\Tools\MSVC\14.28.29333\include\vector

; 673  :         _Tidy();

  00016	e8 00 00 00 00	 call	 ?_Tidy@?$vector@V?$CTimeEvent@M@@V?$allocator@V?$CTimeEvent@M@@@std@@@std@@AAEXXZ ; std::vector<CTimeEvent<float>,std::allocator<CTimeEvent<float> > >::_Tidy
; File D:\Metin2 Server Files\mainline\SRC_2014\Metin2Client\EffectLib\SimpleLightData.cpp

; 142  : }

  0001b	8b 4d fc	 mov	 ecx, DWORD PTR _this$[ebp]
  0001e	e8 00 00 00 00	 call	 ??1CEffectElementBase@@UAE@XZ ; CEffectElementBase::~CEffectElementBase
  00023	c9		 leave
  00024	c3		 ret	 0
??1CLightData@@UAE@XZ ENDP				; CLightData::~CLightData
_TEXT	ENDS
; Function compile flags: /Odspy
; File D:\Metin2 Server Files\mainline\SRC_2014\Metin2Client\EffectLib\SimpleLightData.cpp
; File C:\Program Files (x86)\Microsoft Visual Studio\2019\Community\VC\Tools\MSVC\14.28.29333\include\vector
; File C:\Program Files (x86)\Microsoft Visual Studio\2019\Community\VC\Tools\MSVC\14.28.29333\include\xmemory
; File C:\Program Files (x86)\Microsoft Visual Studio\2019\Community\VC\Tools\MSVC\14.28.29333\include\vector
; File D:\Metin2 Server Files\mainline\SRC_2014\Metin2Client\EffectLib\SimpleLightData.cpp
;	COMDAT ??0CLightData@@QAE@XZ
_TEXT	SEGMENT
_this$ = -28						; size = 4
_this$ = -24						; size = 4
_this$2 = -20						; size = 4
_this$ = -16						; size = 4
__$EHRec$ = -12						; size = 12
??0CLightData@@QAE@XZ PROC				; CLightData::CLightData, COMDAT
; _this$ = ecx

; 136  : {

  00000	55		 push	 ebp
  00001	8b ec		 mov	 ebp, esp
  00003	6a ff		 push	 -1
  00005	68 00 00 00 00	 push	 __ehhandler$??0CLightData@@QAE@XZ
  0000a	64 a1 00 00 00
	00		 mov	 eax, DWORD PTR fs:0
  00010	50		 push	 eax
  00011	83 ec 10	 sub	 esp, 16			; 00000010H
  00014	a1 00 00 00 00	 mov	 eax, DWORD PTR ___security_cookie
  00019	33 c5		 xor	 eax, ebp
  0001b	50		 push	 eax
  0001c	8d 45 f4	 lea	 eax, DWORD PTR __$EHRec$[ebp]
  0001f	64 a3 00 00 00
	00		 mov	 DWORD PTR fs:0, eax
  00025	89 4d f0	 mov	 DWORD PTR _this$[ebp], ecx
  00028	8b 4d f0	 mov	 ecx, DWORD PTR _this$[ebp]
  0002b	e8 00 00 00 00	 call	 ??0CEffectElementBase@@QAE@XZ ; CEffectElementBase::CEffectElementBase
  00030	83 65 fc 00	 and	 DWORD PTR __$EHRec$[ebp+8], 0
  00034	8b 45 f0	 mov	 eax, DWORD PTR _this$[ebp]
  00037	c7 00 00 00 00
	00		 mov	 DWORD PTR [eax], OFFSET ??_7CLightData@@6B@
  0003d	8b 45 f0	 mov	 eax, DWORD PTR _this$[ebp]
  00040	83 c0 1c	 add	 eax, 28			; 0000001cH
  00043	89 45 e8	 mov	 DWORD PTR _this$[ebp], eax
; File C:\Program Files (x86)\Microsoft Visual Studio\2019\Community\VC\Tools\MSVC\14.28.29333\include\vector

; 445  :     vector() noexcept(is_nothrow_default_constructible_v<_Alty>) : _Mypair(_Zero_then_variadic_args_t{}) {

  00046	8b 45 e8	 mov	 eax, DWORD PTR _this$[ebp]
  00049	89 45 e4	 mov	 DWORD PTR _this$[ebp], eax
; File C:\Program Files (x86)\Microsoft Visual Studio\2019\Community\VC\Tools\MSVC\14.28.29333\include\xmemory

; 1339 :         : _Ty1(), _Myval2(_STD forward<_Other2>(_Val2)...) {}

  0004c	8b 45 e4	 mov	 eax, DWORD PTR _this$[ebp]
  0004f	89 45 ec	 mov	 DWORD PTR _this$2[ebp], eax
; File C:\Program Files (x86)\Microsoft Visual Studio\2019\Community\VC\Tools\MSVC\14.28.29333\include\vector

; 375  :     _Vector_val() noexcept : _Myfirst(), _Mylast(), _Myend() {}

  00052	8b 45 ec	 mov	 eax, DWORD PTR _this$2[ebp]
  00055	83 20 00	 and	 DWORD PTR [eax], 0
  00058	8b 45 ec	 mov	 eax, DWORD PTR _this$2[ebp]
  0005b	83 60 04 00	 and	 DWORD PTR [eax+4], 0
  0005f	8b 45 ec	 mov	 eax, DWORD PTR _this$2[ebp]
  00062	83 60 08 00	 and	 DWORD PTR [eax+8], 0
; File D:\Metin2 Server Files\mainline\SRC_2014\Metin2Client\EffectLib\SimpleLightData.cpp

; 136  : {

  00066	c6 45 fc 01	 mov	 BYTE PTR __$EHRec$[ebp+8], 1

; 137  : 	Clear();

  0006a	8b 4d f0	 mov	 ecx, DWORD PTR _this$[ebp]
  0006d	e8 00 00 00 00	 call	 ?Clear@CEffectElementBase@@QAEXXZ ; CEffectElementBase::Clear

; 138  : }

  00072	83 4d fc ff	 or	 DWORD PTR __$EHRec$[ebp+8], -1
  00076	8b 45 f0	 mov	 eax, DWORD PTR _this$[ebp]
  00079	8b 4d f4	 mov	 ecx, DWORD PTR __$EHRec$[ebp]
  0007c	64 89 0d 00 00
	00 00		 mov	 DWORD PTR fs:0, ecx
  00083	59		 pop	 ecx
  00084	c9		 leave
  00085	c3		 ret	 0
_TEXT	ENDS
;	COMDAT text$x
text$x	SEGMENT
__unwindfunclet$??0CLightData@@QAE@XZ$0:
  00000	8b 4d f0	 mov	 ecx, DWORD PTR _this$[ebp]
  00003	e9 00 00 00 00	 jmp	 ??1CEffectElementBase@@UAE@XZ ; CEffectElementBase::~CEffectElementBase
__unwindfunclet$??0CLightData@@QAE@XZ$1:
  00008	8b 4d f0	 mov	 ecx, DWORD PTR _this$[ebp]
  0000b	83 c1 1c	 add	 ecx, 28			; 0000001cH
  0000e	e9 00 00 00 00	 jmp	 ??1?$vector@V?$CTimeEvent@M@@V?$allocator@V?$CTimeEvent@M@@@std@@@std@@QAE@XZ ; std::vector<CTimeEvent<float>,std::allocator<CTimeEvent<float> > >::~vector<CTimeEvent<float>,std::allocator<CTimeEvent<float> > >
  00013	cc		 int	 3
  00014	cc		 int	 3
  00015	cc		 int	 3
  00016	cc		 int	 3
  00017	cc		 int	 3
__ehhandler$??0CLightData@@QAE@XZ:
  00018	90		 npad	 1
  00019	90		 npad	 1
  0001a	8b 54 24 08	 mov	 edx, DWORD PTR [esp+8]
  0001e	8d 42 0c	 lea	 eax, DWORD PTR [edx+12]
  00021	8b 4a ec	 mov	 ecx, DWORD PTR [edx-20]
  00024	33 c8		 xor	 ecx, eax
  00026	e8 00 00 00 00	 call	 @__security_check_cookie@4
  0002b	b8 00 00 00 00	 mov	 eax, OFFSET __ehfuncinfo$??0CLightData@@QAE@XZ
  00030	e9 00 00 00 00	 jmp	 ___CxxFrameHandler3
text$x	ENDS
??0CLightData@@QAE@XZ ENDP				; CLightData::CLightData
; Function compile flags: /Odspy
; File C:\Program Files (x86)\Microsoft Visual Studio\2019\Community\VC\Tools\MSVC\14.28.29333\include\xmemory
;	COMDAT ??$_Allocate_manually_vector_aligned@U_Default_allocate_traits@std@@@std@@YAPAXI@Z
_TEXT	SEGMENT
__Ptr$ = -12						; size = 4
__Block_size$ = -8					; size = 4
__Ptr_container$ = -4					; size = 4
__Bytes$ = 8						; size = 4
??$_Allocate_manually_vector_aligned@U_Default_allocate_traits@std@@@std@@YAPAXI@Z PROC ; std::_Allocate_manually_vector_aligned<std::_Default_allocate_traits>, COMDAT

; 113  : __declspec(allocator) void* _Allocate_manually_vector_aligned(const size_t _Bytes) {

  00000	55		 push	 ebp
  00001	8b ec		 mov	 ebp, esp
  00003	83 ec 0c	 sub	 esp, 12			; 0000000cH

; 114  :     // allocate _Bytes manually aligned to at least _Big_allocation_alignment
; 115  :     const size_t _Block_size = _Non_user_size + _Bytes;

  00006	8b 45 08	 mov	 eax, DWORD PTR __Bytes$[ebp]
  00009	83 c0 23	 add	 eax, 35			; 00000023H
  0000c	89 45 f8	 mov	 DWORD PTR __Block_size$[ebp], eax

; 116  :     if (_Block_size <= _Bytes) {

  0000f	8b 45 f8	 mov	 eax, DWORD PTR __Block_size$[ebp]
  00012	3b 45 08	 cmp	 eax, DWORD PTR __Bytes$[ebp]
  00015	77 05		 ja	 SHORT $LN12@Allocate_m

; 117  :         _Throw_bad_array_new_length(); // add overflow

  00017	e8 00 00 00 00	 call	 ?_Throw_bad_array_new_length@std@@YAXXZ ; std::_Throw_bad_array_new_length
$LN12@Allocate_m:

; 77   :         return ::operator new(_Bytes);

  0001c	ff 75 f8	 push	 DWORD PTR __Block_size$[ebp]
  0001f	e8 00 00 00 00	 call	 ??2@YAPAXI@Z		; operator new
  00024	59		 pop	 ecx

; 118  :     }
; 119  : 
; 120  :     const uintptr_t _Ptr_container = reinterpret_cast<uintptr_t>(_Traits::_Allocate(_Block_size));

  00025	89 45 fc	 mov	 DWORD PTR __Ptr_container$[ebp], eax
$LN4@Allocate_m:

; 121  :     _STL_VERIFY(_Ptr_container != 0, "invalid argument"); // validate even in release since we're doing p[-1]

  00028	83 7d fc 00	 cmp	 DWORD PTR __Ptr_container$[ebp], 0
  0002c	74 02		 je	 SHORT $LN7@Allocate_m
  0002e	eb 09		 jmp	 SHORT $LN2@Allocate_m
$LN7@Allocate_m:
  00030	e8 00 00 00 00	 call	 __invalid_parameter_noinfo_noreturn
  00035	33 c0		 xor	 eax, eax
  00037	75 f7		 jne	 SHORT $LN7@Allocate_m
$LN2@Allocate_m:
  00039	33 c0		 xor	 eax, eax
  0003b	75 eb		 jne	 SHORT $LN4@Allocate_m

; 122  :     void* const _Ptr = reinterpret_cast<void*>((_Ptr_container + _Non_user_size) & ~(_Big_allocation_alignment - 1));

  0003d	8b 45 fc	 mov	 eax, DWORD PTR __Ptr_container$[ebp]
  00040	83 c0 23	 add	 eax, 35			; 00000023H
  00043	83 e0 e0	 and	 eax, -32		; ffffffe0H
  00046	89 45 f4	 mov	 DWORD PTR __Ptr$[ebp], eax

; 123  :     static_cast<uintptr_t*>(_Ptr)[-1] = _Ptr_container;

  00049	6a 04		 push	 4
  0004b	58		 pop	 eax
  0004c	6b c0 ff	 imul	 eax, eax, -1
  0004f	8b 4d f4	 mov	 ecx, DWORD PTR __Ptr$[ebp]
  00052	8b 55 fc	 mov	 edx, DWORD PTR __Ptr_container$[ebp]
  00055	89 14 01	 mov	 DWORD PTR [ecx+eax], edx

; 124  : 
; 125  : #ifdef _DEBUG
; 126  :     static_cast<uintptr_t*>(_Ptr)[-2] = _Big_allocation_sentinel;
; 127  : #endif // _DEBUG
; 128  :     return _Ptr;

  00058	8b 45 f4	 mov	 eax, DWORD PTR __Ptr$[ebp]
$LN11@Allocate_m:

; 129  : }

  0005b	c9		 leave
  0005c	c3		 ret	 0
??$_Allocate_manually_vector_aligned@U_Default_allocate_traits@std@@@std@@YAPAXI@Z ENDP ; std::_Allocate_manually_vector_aligned<std::_Default_allocate_traits>
_TEXT	ENDS
; Function compile flags: /Odspy
; File C:\Program Files (x86)\Microsoft Visual Studio\2019\Community\VC\Tools\MSVC\14.28.29333\include\xmemory
;	COMDAT ??$_Allocate@$07U_Default_allocate_traits@std@@$0A@@std@@YAPAXI@Z
_TEXT	SEGMENT
__Bytes$ = 8						; size = 4
??$_Allocate@$07U_Default_allocate_traits@std@@$0A@@std@@YAPAXI@Z PROC ; std::_Allocate<8,std::_Default_allocate_traits,0>, COMDAT

; 197  : __declspec(allocator) void* _Allocate(const size_t _Bytes) {

  00000	55		 push	 ebp
  00001	8b ec		 mov	 ebp, esp

; 198  :     // allocate _Bytes when !_HAS_ALIGNED_NEW || _Align <= __STDCPP_DEFAULT_NEW_ALIGNMENT__
; 199  : #if defined(_M_IX86) || defined(_M_X64)
; 200  :     if (_Bytes >= _Big_allocation_threshold) { // boost the alignment of big allocations to help autovectorization

  00003	81 7d 08 00 10
	00 00		 cmp	 DWORD PTR __Bytes$[ebp], 4096 ; 00001000H
  0000a	72 0b		 jb	 SHORT $LN2@Allocate

; 201  :         return _Allocate_manually_vector_aligned<_Traits>(_Bytes);

  0000c	ff 75 08	 push	 DWORD PTR __Bytes$[ebp]
  0000f	e8 00 00 00 00	 call	 ??$_Allocate_manually_vector_aligned@U_Default_allocate_traits@std@@@std@@YAPAXI@Z ; std::_Allocate_manually_vector_aligned<std::_Default_allocate_traits>
  00014	59		 pop	 ecx
  00015	eb 13		 jmp	 SHORT $LN1@Allocate
$LN2@Allocate:

; 202  :     }
; 203  : #endif // defined(_M_IX86) || defined(_M_X64)
; 204  : 
; 205  :     if (_Bytes != 0) {

  00017	83 7d 08 00	 cmp	 DWORD PTR __Bytes$[ebp], 0
  0001b	74 0b		 je	 SHORT $LN3@Allocate

; 77   :         return ::operator new(_Bytes);

  0001d	ff 75 08	 push	 DWORD PTR __Bytes$[ebp]
  00020	e8 00 00 00 00	 call	 ??2@YAPAXI@Z		; operator new
  00025	59		 pop	 ecx

; 206  :         return _Traits::_Allocate(_Bytes);

  00026	eb 02		 jmp	 SHORT $LN1@Allocate
$LN3@Allocate:

; 207  :     }
; 208  : 
; 209  :     return nullptr;

  00028	33 c0		 xor	 eax, eax
$LN1@Allocate:

; 210  : }

  0002a	5d		 pop	 ebp
  0002b	c3		 ret	 0
??$_Allocate@$07U_Default_allocate_traits@std@@$0A@@std@@YAPAXI@Z ENDP ; std::_Allocate<8,std::_Default_allocate_traits,0>
_TEXT	ENDS
; Function compile flags: /Odspy
; File C:\Program Files (x86)\Microsoft Visual Studio\2019\Community\VC\Tools\MSVC\14.28.29333\include\xmemory
;	COMDAT ??$_Deallocate@$07$0A@@std@@YAXPAXI@Z
_TEXT	SEGMENT
__$EHRec$ = -12						; size = 12
__Ptr$ = 8						; size = 4
__Bytes$ = 12						; size = 4
??$_Deallocate@$07$0A@@std@@YAXPAXI@Z PROC		; std::_Deallocate<8,0>, COMDAT

; 213  : void _Deallocate(void* _Ptr, size_t _Bytes) noexcept {

  00000	55		 push	 ebp
  00001	8b ec		 mov	 ebp, esp
  00003	6a ff		 push	 -1
  00005	68 00 00 00 00	 push	 __ehhandler$??$_Deallocate@$07$0A@@std@@YAXPAXI@Z
  0000a	64 a1 00 00 00
	00		 mov	 eax, DWORD PTR fs:0
  00010	50		 push	 eax
  00011	a1 00 00 00 00	 mov	 eax, DWORD PTR ___security_cookie
  00016	33 c5		 xor	 eax, ebp
  00018	50		 push	 eax
  00019	8d 45 f4	 lea	 eax, DWORD PTR __$EHRec$[ebp]
  0001c	64 a3 00 00 00
	00		 mov	 DWORD PTR fs:0, eax

; 214  :     // deallocate storage allocated by _Allocate when !_HAS_ALIGNED_NEW || _Align <= __STDCPP_DEFAULT_NEW_ALIGNMENT__
; 215  : #if defined(_M_IX86) || defined(_M_X64)
; 216  :     if (_Bytes >= _Big_allocation_threshold) { // boost the alignment of big allocations to help autovectorization

  00022	81 7d 0c 00 10
	00 00		 cmp	 DWORD PTR __Bytes$[ebp], 4096 ; 00001000H
  00029	72 0f		 jb	 SHORT $LN2@Deallocate

; 217  :         _Adjust_manually_vector_aligned(_Ptr, _Bytes);

  0002b	8d 45 0c	 lea	 eax, DWORD PTR __Bytes$[ebp]
  0002e	50		 push	 eax
  0002f	8d 45 08	 lea	 eax, DWORD PTR __Ptr$[ebp]
  00032	50		 push	 eax
  00033	e8 00 00 00 00	 call	 ?_Adjust_manually_vector_aligned@std@@YAXAAPAXAAI@Z ; std::_Adjust_manually_vector_aligned
  00038	59		 pop	 ecx
  00039	59		 pop	 ecx
$LN2@Deallocate:

; 218  :     }
; 219  : #endif // defined(_M_IX86) || defined(_M_X64)
; 220  : 
; 221  :     ::operator delete(_Ptr, _Bytes);

  0003a	ff 75 0c	 push	 DWORD PTR __Bytes$[ebp]
  0003d	ff 75 08	 push	 DWORD PTR __Ptr$[ebp]
  00040	e8 00 00 00 00	 call	 ??3@YAXPAXI@Z		; operator delete
  00045	59		 pop	 ecx
  00046	59		 pop	 ecx

; 222  : }

  00047	8b 4d f4	 mov	 ecx, DWORD PTR __$EHRec$[ebp]
  0004a	64 89 0d 00 00
	00 00		 mov	 DWORD PTR fs:0, ecx
  00051	59		 pop	 ecx
  00052	c9		 leave
  00053	c3		 ret	 0
  00054	cc		 int	 3
  00055	cc		 int	 3
  00056	cc		 int	 3
  00057	cc		 int	 3
  00058	cc		 int	 3
_TEXT	ENDS
;	COMDAT text$x
text$x	SEGMENT
__ehhandler$??$_Deallocate@$07$0A@@std@@YAXPAXI@Z:
  00000	90		 npad	 1
  00001	90		 npad	 1
  00002	8b 54 24 08	 mov	 edx, DWORD PTR [esp+8]
  00006	8d 42 0c	 lea	 eax, DWORD PTR [edx+12]
  00009	8b 4a fc	 mov	 ecx, DWORD PTR [edx-4]
  0000c	33 c8		 xor	 ecx, eax
  0000e	e8 00 00 00 00	 call	 @__security_check_cookie@4
  00013	b8 00 00 00 00	 mov	 eax, OFFSET __ehfuncinfo$??$_Deallocate@$07$0A@@std@@YAXPAXI@Z
  00018	e9 00 00 00 00	 jmp	 ___CxxFrameHandler3
text$x	ENDS
??$_Deallocate@$07$0A@@std@@YAXPAXI@Z ENDP		; std::_Deallocate<8,0>
; Function compile flags: /Odspy
; File C:\Program Files (x86)\Microsoft Visual Studio\2019\Community\VC\Tools\MSVC\14.28.29333\include\xmemory
; File C:\Program Files (x86)\Microsoft Visual Studio\2019\Community\VC\Tools\MSVC\14.28.29333\include\xstddef
; File C:\Program Files (x86)\Microsoft Visual Studio\2019\Community\VC\Tools\MSVC\14.28.29333\include\vcruntime_new.h
; File C:\Program Files (x86)\Microsoft Visual Studio\2019\Community\VC\Tools\MSVC\14.28.29333\include\type_traits
; File C:\Program Files (x86)\Microsoft Visual Studio\2019\Community\VC\Tools\MSVC\14.28.29333\include\xmemory
;	COMDAT ??$_Construct_in_place@PADABQAD@std@@YAXAAPADABQAD@Z
_TEXT	SEGMENT
$T1 = -12						; size = 4
$T2 = -8						; size = 4
$T3 = -4						; size = 4
__Obj$ = 8						; size = 4
_<_Args_0>$ = 12					; size = 4
??$_Construct_in_place@PADABQAD@std@@YAXAAPADABQAD@Z PROC ; std::_Construct_in_place<char *,char * const &>, COMDAT

; 228  : void _Construct_in_place(_Ty& _Obj, _Types&&... _Args) noexcept(is_nothrow_constructible_v<_Ty, _Types...>) {

  00000	55		 push	 ebp
  00001	8b ec		 mov	 ebp, esp
  00003	83 ec 0c	 sub	 esp, 12			; 0000000cH
; File C:\Program Files (x86)\Microsoft Visual Studio\2019\Community\VC\Tools\MSVC\14.28.29333\include\xstddef

; 275  :     return __builtin_addressof(_Val);

  00006	8b 45 08	 mov	 eax, DWORD PTR __Obj$[ebp]
  00009	89 45 fc	 mov	 DWORD PTR $T3[ebp], eax
; File C:\Program Files (x86)\Microsoft Visual Studio\2019\Community\VC\Tools\MSVC\14.28.29333\include\vcruntime_new.h

; 169  :         return _Where;

  0000c	8b 45 fc	 mov	 eax, DWORD PTR $T3[ebp]
  0000f	89 45 f8	 mov	 DWORD PTR $T2[ebp], eax
; File C:\Program Files (x86)\Microsoft Visual Studio\2019\Community\VC\Tools\MSVC\14.28.29333\include\type_traits

; 1443 :     return static_cast<_Ty&&>(_Arg);

  00012	8b 45 0c	 mov	 eax, DWORD PTR _<_Args_0>$[ebp]
  00015	89 45 f4	 mov	 DWORD PTR $T1[ebp], eax
; File C:\Program Files (x86)\Microsoft Visual Studio\2019\Community\VC\Tools\MSVC\14.28.29333\include\xmemory

; 229  :     ::new (const_cast<void*>(static_cast<const volatile void*>(_STD addressof(_Obj))))

  00018	8b 45 f8	 mov	 eax, DWORD PTR $T2[ebp]
  0001b	8b 4d f4	 mov	 ecx, DWORD PTR $T1[ebp]
  0001e	8b 09		 mov	 ecx, DWORD PTR [ecx]
  00020	89 08		 mov	 DWORD PTR [eax], ecx

; 230  :         _Ty(_STD forward<_Types>(_Args)...);
; 231  : }

  00022	c9		 leave
  00023	c3		 ret	 0
??$_Construct_in_place@PADABQAD@std@@YAXAAPADABQAD@Z ENDP ; std::_Construct_in_place<char *,char * const &>
_TEXT	ENDS
; Function compile flags: /Odspy
; File C:\Program Files (x86)\Microsoft Visual Studio\2019\Community\VC\Tools\MSVC\14.28.29333\include\xstring
; File C:\Program Files (x86)\Microsoft Visual Studio\2019\Community\VC\Tools\MSVC\14.28.29333\include\xmemory
; File C:\Program Files (x86)\Microsoft Visual Studio\2019\Community\VC\Tools\MSVC\14.28.29333\include\xstring
; File C:\Program Files (x86)\Microsoft Visual Studio\2019\Community\VC\Tools\MSVC\14.28.29333\include\xmemory
; File C:\Program Files (x86)\Microsoft Visual Studio\2019\Community\VC\Tools\MSVC\14.28.29333\include\xstring
; File C:\Program Files (x86)\Microsoft Visual Studio\2019\Community\VC\Tools\MSVC\14.28.29333\include\xmemory
; File C:\Program Files (x86)\Microsoft Visual Studio\2019\Community\VC\Tools\MSVC\14.28.29333\include\xstring
; File C:\Program Files (x86)\Microsoft Visual Studio\2019\Community\VC\Tools\MSVC\14.28.29333\include\xstddef
; File C:\Program Files (x86)\Microsoft Visual Studio\2019\Community\VC\Tools\MSVC\14.28.29333\include\xstring
; File C:\Program Files (x86)\Microsoft Visual Studio\2019\Community\VC\Tools\MSVC\14.28.29333\include\xmemory
; File C:\Program Files (x86)\Microsoft Visual Studio\2019\Community\VC\Tools\MSVC\14.28.29333\include\xstring
;	COMDAT ??$_Reallocate_for@V<lambda_9366063389c5f42a00a5088cf24e69de>@@PBD@?$basic_string@DU?$char_traits@D@std@@V?$allocator@D@2@@std@@AAEAAV01@IV<lambda_9366063389c5f42a00a5088cf24e69de>@@PBD@Z
_TEXT	SEGMENT
__Al$ = -40						; size = 4
__Ptr$ = -36						; size = 4
__Ptr$ = -32						; size = 4
$T1 = -28						; size = 4
__Old_capacity$ = -24					; size = 4
$T2 = -20						; size = 4
__New_capacity$ = -16					; size = 4
__New_ptr$ = -12					; size = 4
_this$ = -8						; size = 4
__Overflow_is_possible$3 = -2				; size = 1
$T4 = -1						; size = 1
__New_size$ = 8						; size = 4
__Fn$ = 12						; size = 1
_<_Args_0>$ = 16					; size = 4
??$_Reallocate_for@V<lambda_9366063389c5f42a00a5088cf24e69de>@@PBD@?$basic_string@DU?$char_traits@D@std@@V?$allocator@D@2@@std@@AAEAAV01@IV<lambda_9366063389c5f42a00a5088cf24e69de>@@PBD@Z PROC ; std::basic_string<char,std::char_traits<char>,std::allocator<char> >::_Reallocate_for<<lambda_9366063389c5f42a00a5088cf24e69de>,char const *>, COMDAT
; _this$ = ecx

; 4302 :     basic_string& _Reallocate_for(const size_type _New_size, _Fty _Fn, _ArgTys... _Args) {

  00000	55		 push	 ebp
  00001	8b ec		 mov	 ebp, esp
  00003	83 ec 28	 sub	 esp, 40			; 00000028H
  00006	89 4d f8	 mov	 DWORD PTR _this$[ebp], ecx

; 4303 :         // reallocate to store exactly _New_size elements, new buffer prepared by
; 4304 :         // _Fn(_New_ptr, _New_size, _Args...)
; 4305 :         if (_New_size > max_size()) {

  00009	8b 4d f8	 mov	 ecx, DWORD PTR _this$[ebp]
  0000c	e8 00 00 00 00	 call	 ?max_size@?$basic_string@DU?$char_traits@D@std@@V?$allocator@D@2@@std@@QBEIXZ ; std::basic_string<char,std::char_traits<char>,std::allocator<char> >::max_size
  00011	39 45 08	 cmp	 DWORD PTR __New_size$[ebp], eax
  00014	76 05		 jbe	 SHORT $LN2@Reallocate

; 4306 :             _Xlen_string(); // result too long

  00016	e8 00 00 00 00	 call	 ?_Xlen_string@std@@YAXXZ ; std::_Xlen_string
$LN2@Reallocate:

; 4307 :         }
; 4308 : 
; 4309 :         const size_type _Old_capacity = _Mypair._Myval2._Myres;

  0001b	8b 45 f8	 mov	 eax, DWORD PTR _this$[ebp]
  0001e	8b 40 14	 mov	 eax, DWORD PTR [eax+20]
  00021	89 45 e8	 mov	 DWORD PTR __Old_capacity$[ebp], eax

; 4310 :         const size_type _New_capacity = _Calculate_growth(_New_size);

  00024	ff 75 08	 push	 DWORD PTR __New_size$[ebp]
  00027	8b 4d f8	 mov	 ecx, DWORD PTR _this$[ebp]
  0002a	e8 00 00 00 00	 call	 ?_Calculate_growth@?$basic_string@DU?$char_traits@D@std@@V?$allocator@D@2@@std@@ABEII@Z ; std::basic_string<char,std::char_traits<char>,std::allocator<char> >::_Calculate_growth
  0002f	89 45 f0	 mov	 DWORD PTR __New_capacity$[ebp], eax

; 4409 :         return _Mypair._Get_first();

  00032	8b 45 f8	 mov	 eax, DWORD PTR _this$[ebp]
; File C:\Program Files (x86)\Microsoft Visual Studio\2019\Community\VC\Tools\MSVC\14.28.29333\include\xmemory

; 1347 :         return *this;

  00035	89 45 e4	 mov	 DWORD PTR $T1[ebp], eax
; File C:\Program Files (x86)\Microsoft Visual Studio\2019\Community\VC\Tools\MSVC\14.28.29333\include\xstring

; 4409 :         return _Mypair._Get_first();

  00038	8b 45 e4	 mov	 eax, DWORD PTR $T1[ebp]
  0003b	89 45 d8	 mov	 DWORD PTR __Al$[ebp], eax
; File C:\Program Files (x86)\Microsoft Visual Studio\2019\Community\VC\Tools\MSVC\14.28.29333\include\xmemory

; 56   :     constexpr bool _Overflow_is_possible = _Ty_size > 1;

  0003e	c6 45 fe 00	 mov	 BYTE PTR __Overflow_is_possible$3[ebp], 0
; File C:\Program Files (x86)\Microsoft Visual Studio\2019\Community\VC\Tools\MSVC\14.28.29333\include\xstring

; 4312 :         const pointer _New_ptr        = _Al.allocate(_New_capacity + 1); // throws

  00042	8b 45 f0	 mov	 eax, DWORD PTR __New_capacity$[ebp]
  00045	40		 inc	 eax
; File C:\Program Files (x86)\Microsoft Visual Studio\2019\Community\VC\Tools\MSVC\14.28.29333\include\xmemory

; 814  :         return static_cast<_Ty*>(_Allocate<_New_alignof<_Ty>>(_Get_size_of_n<sizeof(_Ty)>(_Count)));

  00046	50		 push	 eax
  00047	e8 00 00 00 00	 call	 ??$_Allocate@$07U_Default_allocate_traits@std@@$0A@@std@@YAPAXI@Z ; std::_Allocate<8,std::_Default_allocate_traits,0>
  0004c	59		 pop	 ecx
; File C:\Program Files (x86)\Microsoft Visual Studio\2019\Community\VC\Tools\MSVC\14.28.29333\include\xstring

; 4312 :         const pointer _New_ptr        = _Al.allocate(_New_capacity + 1); // throws

  0004d	89 45 f4	 mov	 DWORD PTR __New_ptr$[ebp], eax

; 4313 :         _Mypair._Myval2._Orphan_all();
; 4314 :         _Mypair._Myval2._Mysize = _New_size;

  00050	8b 45 f8	 mov	 eax, DWORD PTR _this$[ebp]
  00053	8b 4d 08	 mov	 ecx, DWORD PTR __New_size$[ebp]
  00056	89 48 10	 mov	 DWORD PTR [eax+16], ecx

; 4315 :         _Mypair._Myval2._Myres  = _New_capacity;

  00059	8b 45 f8	 mov	 eax, DWORD PTR _this$[ebp]
  0005c	8b 4d f0	 mov	 ecx, DWORD PTR __New_capacity$[ebp]
  0005f	89 48 14	 mov	 DWORD PTR [eax+20], ecx

; 4316 :         _Fn(_Unfancy(_New_ptr), _New_size, _Args...);

  00062	8b 45 f4	 mov	 eax, DWORD PTR __New_ptr$[ebp]
  00065	89 45 e0	 mov	 DWORD PTR __Ptr$[ebp], eax
; File C:\Program Files (x86)\Microsoft Visual Studio\2019\Community\VC\Tools\MSVC\14.28.29333\include\xstddef

; 289  :     return _Ptr;

  00068	8b 45 e0	 mov	 eax, DWORD PTR __Ptr$[ebp]
  0006b	89 45 ec	 mov	 DWORD PTR $T2[ebp], eax
; File C:\Program Files (x86)\Microsoft Visual Studio\2019\Community\VC\Tools\MSVC\14.28.29333\include\xstring

; 62   :         _CSTD memcpy(_First1, _First2, _Count * sizeof(_Elem));

  0006e	ff 75 08	 push	 DWORD PTR __New_size$[ebp]
  00071	ff 75 10	 push	 DWORD PTR _<_Args_0>$[ebp]
  00074	ff 75 ec	 push	 DWORD PTR $T2[ebp]
  00077	e8 00 00 00 00	 call	 _memcpy
  0007c	83 c4 0c	 add	 esp, 12			; 0000000cH

; 3056 :                 _Traits::assign(_New_ptr[_Count], _Elem());

  0007f	c6 45 ff 00	 mov	 BYTE PTR $T4[ebp], 0

; 428  :         _Left = _Right;

  00083	8b 45 ec	 mov	 eax, DWORD PTR $T2[ebp]
  00086	03 45 08	 add	 eax, DWORD PTR __New_size$[ebp]
  00089	8a 4d ff	 mov	 cl, BYTE PTR $T4[ebp]
  0008c	88 08		 mov	 BYTE PTR [eax], cl

; 4317 :         if (_BUF_SIZE <= _Old_capacity) {

  0008e	83 7d e8 10	 cmp	 DWORD PTR __Old_capacity$[ebp], 16 ; 00000010H
  00092	72 21		 jb	 SHORT $LN3@Reallocate

; 4318 :             _Al.deallocate(_Mypair._Myval2._Bx._Ptr, _Old_capacity + 1);

  00094	8b 45 f8	 mov	 eax, DWORD PTR _this$[ebp]
  00097	8b 00		 mov	 eax, DWORD PTR [eax]
  00099	89 45 dc	 mov	 DWORD PTR __Ptr$[ebp], eax
  0009c	8b 45 e8	 mov	 eax, DWORD PTR __Old_capacity$[ebp]
  0009f	40		 inc	 eax
; File C:\Program Files (x86)\Microsoft Visual Studio\2019\Community\VC\Tools\MSVC\14.28.29333\include\xmemory

; 810  :         _Deallocate<_New_alignof<_Ty>>(_Ptr, sizeof(_Ty) * _Count);

  000a0	50		 push	 eax
  000a1	ff 75 dc	 push	 DWORD PTR __Ptr$[ebp]
  000a4	e8 00 00 00 00	 call	 ??$_Deallocate@$07$0A@@std@@YAXPAXI@Z ; std::_Deallocate<8,0>
  000a9	59		 pop	 ecx
  000aa	59		 pop	 ecx
; File C:\Program Files (x86)\Microsoft Visual Studio\2019\Community\VC\Tools\MSVC\14.28.29333\include\xstring

; 4319 :             _Mypair._Myval2._Bx._Ptr = _New_ptr;

  000ab	8b 45 f8	 mov	 eax, DWORD PTR _this$[ebp]
  000ae	8b 4d f4	 mov	 ecx, DWORD PTR __New_ptr$[ebp]
  000b1	89 08		 mov	 DWORD PTR [eax], ecx

; 4320 :         } else {

  000b3	eb 0e		 jmp	 SHORT $LN4@Reallocate
$LN3@Reallocate:

; 4321 :             _Construct_in_place(_Mypair._Myval2._Bx._Ptr, _New_ptr);

  000b5	8d 45 f4	 lea	 eax, DWORD PTR __New_ptr$[ebp]
  000b8	50		 push	 eax
  000b9	ff 75 f8	 push	 DWORD PTR _this$[ebp]
  000bc	e8 00 00 00 00	 call	 ??$_Construct_in_place@PADABQAD@std@@YAXAAPADABQAD@Z ; std::_Construct_in_place<char *,char * const &>
  000c1	59		 pop	 ecx
  000c2	59		 pop	 ecx
$LN4@Reallocate:

; 4322 :         }
; 4323 : 
; 4324 :         return *this;

  000c3	8b 45 f8	 mov	 eax, DWORD PTR _this$[ebp]
$LN5@Reallocate:

; 4325 :     }

  000c6	c9		 leave
  000c7	c2 0c 00	 ret	 12			; 0000000cH
??$_Reallocate_for@V<lambda_9366063389c5f42a00a5088cf24e69de>@@PBD@?$basic_string@DU?$char_traits@D@std@@V?$allocator@D@2@@std@@AAEAAV01@IV<lambda_9366063389c5f42a00a5088cf24e69de>@@PBD@Z ENDP ; std::basic_string<char,std::char_traits<char>,std::allocator<char> >::_Reallocate_for<<lambda_9366063389c5f42a00a5088cf24e69de>,char const *>
_TEXT	ENDS
; Function compile flags: /Odspy
; File C:\Program Files (x86)\Microsoft Visual Studio\2019\Community\VC\Tools\MSVC\14.28.29333\include\xmemory
;	COMDAT ??$_Destroy_in_place@PAD@std@@YAXAAPAD@Z
_TEXT	SEGMENT
__Obj$ = 8						; size = 4
??$_Destroy_in_place@PAD@std@@YAXAAPAD@Z PROC		; std::_Destroy_in_place<char *>, COMDAT

; 270  : /* _CONSTEXPR20_DYNALLOC */ void _Destroy_in_place(_Ty& _Obj) noexcept {

  00000	55		 push	 ebp
  00001	8b ec		 mov	 ebp, esp

; 271  : #if _HAS_IF_CONSTEXPR
; 272  :     if constexpr (is_array_v<_Ty>) {
; 273  :         _Destroy_range(_Obj, _Obj + extent_v<_Ty>);
; 274  :     } else
; 275  : #endif // _HAS_IF_CONSTEXPR
; 276  :     {
; 277  :         _Obj.~_Ty();
; 278  :     }
; 279  : }

  00003	5d		 pop	 ebp
  00004	c3		 ret	 0
??$_Destroy_in_place@PAD@std@@YAXAAPAD@Z ENDP		; std::_Destroy_in_place<char *>
_TEXT	ENDS
; Function compile flags: /Odspy
;	COMDAT ??1?$_Compressed_pair@V?$allocator@D@std@@V?$_String_val@U?$_Simple_types@D@std@@@2@$00@std@@QAE@XZ
_TEXT	SEGMENT
_this$ = -4						; size = 4
??1?$_Compressed_pair@V?$allocator@D@std@@V?$_String_val@U?$_Simple_types@D@std@@@2@$00@std@@QAE@XZ PROC ; std::_Compressed_pair<std::allocator<char>,std::_String_val<std::_Simple_types<char> >,1>::~_Compressed_pair<std::allocator<char>,std::_String_val<std::_Simple_types<char> >,1>, COMDAT
; _this$ = ecx
  00000	55		 push	 ebp
  00001	8b ec		 mov	 ebp, esp
  00003	51		 push	 ecx
  00004	89 4d fc	 mov	 DWORD PTR _this$[ebp], ecx
  00007	c9		 leave
  00008	c3		 ret	 0
??1?$_Compressed_pair@V?$allocator@D@std@@V?$_String_val@U?$_Simple_types@D@std@@@2@$00@std@@QAE@XZ ENDP ; std::_Compressed_pair<std::allocator<char>,std::_String_val<std::_Simple_types<char> >,1>::~_Compressed_pair<std::allocator<char>,std::_String_val<std::_Simple_types<char> >,1>
_TEXT	ENDS
; Function compile flags: /Odspy
; File C:\Program Files (x86)\Microsoft Visual Studio\2019\Community\VC\Tools\MSVC\14.28.29333\include\xstring
; File C:\Program Files (x86)\Microsoft Visual Studio\2019\Community\VC\Tools\MSVC\14.28.29333\include\xmemory
; File C:\Program Files (x86)\Microsoft Visual Studio\2019\Community\VC\Tools\MSVC\14.28.29333\include\xstring
; File C:\Program Files (x86)\Microsoft Visual Studio\2019\Community\VC\Tools\MSVC\14.28.29333\include\xmemory
; File C:\Program Files (x86)\Microsoft Visual Studio\2019\Community\VC\Tools\MSVC\14.28.29333\include\xstring
;	COMDAT ?_Tidy_deallocate@?$basic_string@DU?$char_traits@D@std@@V?$allocator@D@2@@std@@AAEXXZ
_TEXT	SEGMENT
__Al$1 = -28						; size = 4
__Ptr$2 = -24						; size = 4
__Count$ = -20						; size = 4
$T3 = -16						; size = 4
tv68 = -12						; size = 4
_this$ = -8						; size = 4
$T4 = -2						; size = 1
$T5 = -1						; size = 1
?_Tidy_deallocate@?$basic_string@DU?$char_traits@D@std@@V?$allocator@D@2@@std@@AAEXXZ PROC ; std::basic_string<char,std::char_traits<char>,std::allocator<char> >::_Tidy_deallocate, COMDAT
; _this$ = ecx

; 4383 :     void _Tidy_deallocate() noexcept { // initialize buffer, deallocating any storage

  00000	55		 push	 ebp
  00001	8b ec		 mov	 ebp, esp
  00003	83 ec 1c	 sub	 esp, 28			; 0000001cH
  00006	89 4d f8	 mov	 DWORD PTR _this$[ebp], ecx

; 2227 :         return _BUF_SIZE <= _Myres;

  00009	8b 45 f8	 mov	 eax, DWORD PTR _this$[ebp]
  0000c	83 78 14 10	 cmp	 DWORD PTR [eax+20], 16	; 00000010H
  00010	72 09		 jb	 SHORT $LN9@Tidy_deall
  00012	c7 45 f4 01 00
	00 00		 mov	 DWORD PTR tv68[ebp], 1
  00019	eb 04		 jmp	 SHORT $LN10@Tidy_deall
$LN9@Tidy_deall:
  0001b	83 65 f4 00	 and	 DWORD PTR tv68[ebp], 0
$LN10@Tidy_deall:
  0001f	8a 45 f4	 mov	 al, BYTE PTR tv68[ebp]
  00022	88 45 ff	 mov	 BYTE PTR $T5[ebp], al

; 4384 :         _Mypair._Myval2._Orphan_all();
; 4385 :         if (_Mypair._Myval2._Large_string_engaged()) {

  00025	0f b6 45 ff	 movzx	 eax, BYTE PTR $T5[ebp]
  00029	85 c0		 test	 eax, eax
  0002b	74 34		 je	 SHORT $LN2@Tidy_deall

; 4386 :             const pointer _Ptr = _Mypair._Myval2._Bx._Ptr;

  0002d	8b 45 f8	 mov	 eax, DWORD PTR _this$[ebp]
  00030	8b 00		 mov	 eax, DWORD PTR [eax]
  00032	89 45 e8	 mov	 DWORD PTR __Ptr$2[ebp], eax

; 4409 :         return _Mypair._Get_first();

  00035	8b 45 f8	 mov	 eax, DWORD PTR _this$[ebp]
; File C:\Program Files (x86)\Microsoft Visual Studio\2019\Community\VC\Tools\MSVC\14.28.29333\include\xmemory

; 1347 :         return *this;

  00038	89 45 f0	 mov	 DWORD PTR $T3[ebp], eax
; File C:\Program Files (x86)\Microsoft Visual Studio\2019\Community\VC\Tools\MSVC\14.28.29333\include\xstring

; 4409 :         return _Mypair._Get_first();

  0003b	8b 45 f0	 mov	 eax, DWORD PTR $T3[ebp]
  0003e	89 45 e4	 mov	 DWORD PTR __Al$1[ebp], eax

; 4387 :             auto& _Al          = _Getal();
; 4388 :             _Destroy_in_place(_Mypair._Myval2._Bx._Ptr);

  00041	ff 75 f8	 push	 DWORD PTR _this$[ebp]
  00044	e8 00 00 00 00	 call	 ??$_Destroy_in_place@PAD@std@@YAXAAPAD@Z ; std::_Destroy_in_place<char *>
  00049	59		 pop	 ecx

; 4389 :             _Al.deallocate(_Ptr, _Mypair._Myval2._Myres + 1);

  0004a	8b 45 f8	 mov	 eax, DWORD PTR _this$[ebp]
  0004d	8b 40 14	 mov	 eax, DWORD PTR [eax+20]
  00050	40		 inc	 eax
  00051	89 45 ec	 mov	 DWORD PTR __Count$[ebp], eax
; File C:\Program Files (x86)\Microsoft Visual Studio\2019\Community\VC\Tools\MSVC\14.28.29333\include\xmemory

; 810  :         _Deallocate<_New_alignof<_Ty>>(_Ptr, sizeof(_Ty) * _Count);

  00054	ff 75 ec	 push	 DWORD PTR __Count$[ebp]
  00057	ff 75 e8	 push	 DWORD PTR __Ptr$2[ebp]
  0005a	e8 00 00 00 00	 call	 ??$_Deallocate@$07$0A@@std@@YAXPAXI@Z ; std::_Deallocate<8,0>
  0005f	59		 pop	 ecx
  00060	59		 pop	 ecx
$LN2@Tidy_deall:
; File C:\Program Files (x86)\Microsoft Visual Studio\2019\Community\VC\Tools\MSVC\14.28.29333\include\xstring

; 4392 :         _Mypair._Myval2._Mysize = 0;

  00061	8b 45 f8	 mov	 eax, DWORD PTR _this$[ebp]
  00064	83 60 10 00	 and	 DWORD PTR [eax+16], 0

; 4393 :         _Mypair._Myval2._Myres  = _BUF_SIZE - 1;

  00068	8b 45 f8	 mov	 eax, DWORD PTR _this$[ebp]
  0006b	c7 40 14 0f 00
	00 00		 mov	 DWORD PTR [eax+20], 15	; 0000000fH

; 4394 :         // the _Traits::assign is last so the codegen doesn't think the char write can alias this
; 4395 :         _Traits::assign(_Mypair._Myval2._Bx._Buf[0], _Elem());

  00072	c6 45 fe 00	 mov	 BYTE PTR $T4[ebp], 0
  00076	33 c0		 xor	 eax, eax
  00078	40		 inc	 eax
  00079	6b c0 00	 imul	 eax, eax, 0

; 428  :         _Left = _Right;

  0007c	8b 4d f8	 mov	 ecx, DWORD PTR _this$[ebp]
  0007f	8a 55 fe	 mov	 dl, BYTE PTR $T4[ebp]
  00082	88 14 01	 mov	 BYTE PTR [ecx+eax], dl

; 4396 :     }

  00085	c9		 leave
  00086	c3		 ret	 0
?_Tidy_deallocate@?$basic_string@DU?$char_traits@D@std@@V?$allocator@D@2@@std@@AAEXXZ ENDP ; std::basic_string<char,std::char_traits<char>,std::allocator<char> >::_Tidy_deallocate
_TEXT	ENDS
; Function compile flags: /Odspy
; File C:\Program Files (x86)\Microsoft Visual Studio\2019\Community\VC\Tools\MSVC\14.28.29333\include\xstring
;	COMDAT ?_Tidy_init@?$basic_string@DU?$char_traits@D@std@@V?$allocator@D@2@@std@@AAEXXZ
_TEXT	SEGMENT
_this$ = -8						; size = 4
$T1 = -1						; size = 1
?_Tidy_init@?$basic_string@DU?$char_traits@D@std@@V?$allocator@D@2@@std@@AAEXXZ PROC ; std::basic_string<char,std::char_traits<char>,std::allocator<char> >::_Tidy_init, COMDAT
; _this$ = ecx

; 4376 :     void _Tidy_init() noexcept { // initialize basic_string data members

  00000	55		 push	 ebp
  00001	8b ec		 mov	 ebp, esp
  00003	51		 push	 ecx
  00004	51		 push	 ecx
  00005	89 4d f8	 mov	 DWORD PTR _this$[ebp], ecx

; 4377 :         _Mypair._Myval2._Mysize = 0;

  00008	8b 45 f8	 mov	 eax, DWORD PTR _this$[ebp]
  0000b	83 60 10 00	 and	 DWORD PTR [eax+16], 0

; 4378 :         _Mypair._Myval2._Myres  = _BUF_SIZE - 1;

  0000f	8b 45 f8	 mov	 eax, DWORD PTR _this$[ebp]
  00012	c7 40 14 0f 00
	00 00		 mov	 DWORD PTR [eax+20], 15	; 0000000fH

; 4379 :         // the _Traits::assign is last so the codegen doesn't think the char write can alias this
; 4380 :         _Traits::assign(_Mypair._Myval2._Bx._Buf[0], _Elem());

  00019	c6 45 ff 00	 mov	 BYTE PTR $T1[ebp], 0
  0001d	33 c0		 xor	 eax, eax
  0001f	40		 inc	 eax
  00020	6b c0 00	 imul	 eax, eax, 0

; 428  :         _Left = _Right;

  00023	8b 4d f8	 mov	 ecx, DWORD PTR _this$[ebp]
  00026	8a 55 ff	 mov	 dl, BYTE PTR $T1[ebp]
  00029	88 14 01	 mov	 BYTE PTR [ecx+eax], dl

; 4381 :     }

  0002c	c9		 leave
  0002d	c3		 ret	 0
?_Tidy_init@?$basic_string@DU?$char_traits@D@std@@V?$allocator@D@2@@std@@AAEXXZ ENDP ; std::basic_string<char,std::char_traits<char>,std::allocator<char> >::_Tidy_init
_TEXT	ENDS
; Function compile flags: /Odspy
; File C:\Program Files (x86)\Microsoft Visual Studio\2019\Community\VC\Tools\MSVC\14.28.29333\include\xstring
; File C:\Program Files (x86)\Microsoft Visual Studio\2019\Community\VC\Tools\MSVC\14.28.29333\include\utility
; File C:\Program Files (x86)\Microsoft Visual Studio\2019\Community\VC\Tools\MSVC\14.28.29333\include\xstring
;	COMDAT ?_Calculate_growth@?$basic_string@DU?$char_traits@D@std@@V?$allocator@D@2@@std@@ABEII@Z
_TEXT	SEGMENT
$T1 = -36						; size = 4
$T2 = -32						; size = 4
tv93 = -28						; size = 4
$T3 = -24						; size = 4
_this$ = -20						; size = 4
$T4 = -16						; size = 4
__Masked$5 = -12					; size = 4
__Old$ = -8						; size = 4
__Max$ = -4						; size = 4
__Requested$ = 8					; size = 4
?_Calculate_growth@?$basic_string@DU?$char_traits@D@std@@V?$allocator@D@2@@std@@ABEII@Z PROC ; std::basic_string<char,std::char_traits<char>,std::allocator<char> >::_Calculate_growth, COMDAT
; _this$ = ecx

; 4297 :     _NODISCARD size_type _Calculate_growth(const size_type _Requested) const noexcept {

  00000	55		 push	 ebp
  00001	8b ec		 mov	 ebp, esp
  00003	83 ec 24	 sub	 esp, 36			; 00000024H
  00006	89 4d ec	 mov	 DWORD PTR _this$[ebp], ecx

; 4298 :         return _Calculate_growth(_Requested, _Mypair._Myval2._Myres, max_size());

  00009	8b 4d ec	 mov	 ecx, DWORD PTR _this$[ebp]
  0000c	e8 00 00 00 00	 call	 ?max_size@?$basic_string@DU?$char_traits@D@std@@V?$allocator@D@2@@std@@QBEIXZ ; std::basic_string<char,std::char_traits<char>,std::allocator<char> >::max_size
  00011	89 45 fc	 mov	 DWORD PTR __Max$[ebp], eax
  00014	8b 45 ec	 mov	 eax, DWORD PTR _this$[ebp]
  00017	8b 40 14	 mov	 eax, DWORD PTR [eax+20]
  0001a	89 45 f8	 mov	 DWORD PTR __Old$[ebp], eax

; 4285 :         const size_type _Masked = _Requested | _ALLOC_MASK;

  0001d	8b 45 08	 mov	 eax, DWORD PTR __Requested$[ebp]
  00020	83 c8 0f	 or	 eax, 15			; 0000000fH
  00023	89 45 f4	 mov	 DWORD PTR __Masked$5[ebp], eax

; 4286 :         if (_Masked > _Max) { // the mask overflows, settle for max_size()

  00026	8b 45 f4	 mov	 eax, DWORD PTR __Masked$5[ebp]
  00029	3b 45 fc	 cmp	 eax, DWORD PTR __Max$[ebp]
  0002c	76 08		 jbe	 SHORT $LN29@Calculate_

; 4287 :             return _Max;

  0002e	8b 45 fc	 mov	 eax, DWORD PTR __Max$[ebp]
  00031	89 45 f0	 mov	 DWORD PTR $T4[ebp], eax
  00034	eb 4c		 jmp	 SHORT $LN31@Calculate_
$LN29@Calculate_:

; 4288 :         }
; 4289 : 
; 4290 :         if (_Old > _Max - _Old / 2) { // similarly, geometric overflows

  00036	8b 45 f8	 mov	 eax, DWORD PTR __Old$[ebp]
  00039	d1 e8		 shr	 eax, 1
  0003b	8b 4d fc	 mov	 ecx, DWORD PTR __Max$[ebp]
  0003e	2b c8		 sub	 ecx, eax
  00040	39 4d f8	 cmp	 DWORD PTR __Old$[ebp], ecx
  00043	76 08		 jbe	 SHORT $LN30@Calculate_

; 4291 :             return _Max;

  00045	8b 45 fc	 mov	 eax, DWORD PTR __Max$[ebp]
  00048	89 45 f0	 mov	 DWORD PTR $T4[ebp], eax
  0004b	eb 35		 jmp	 SHORT $LN31@Calculate_
$LN30@Calculate_:

; 4294 :         return (_STD max)(_Masked, _Old + _Old / 2);

  0004d	8b 45 f8	 mov	 eax, DWORD PTR __Old$[ebp]
  00050	d1 e8		 shr	 eax, 1
  00052	03 45 f8	 add	 eax, DWORD PTR __Old$[ebp]
  00055	89 45 e8	 mov	 DWORD PTR $T3[ebp], eax
; File C:\Program Files (x86)\Microsoft Visual Studio\2019\Community\VC\Tools\MSVC\14.28.29333\include\utility

; 44   :     return _Left < _Right ? _Right : _Left;

  00058	8b 45 f4	 mov	 eax, DWORD PTR __Masked$5[ebp]
  0005b	3b 45 e8	 cmp	 eax, DWORD PTR $T3[ebp]
  0005e	73 08		 jae	 SHORT $LN35@Calculate_
  00060	8d 45 e8	 lea	 eax, DWORD PTR $T3[ebp]
  00063	89 45 e4	 mov	 DWORD PTR tv93[ebp], eax
  00066	eb 06		 jmp	 SHORT $LN36@Calculate_
$LN35@Calculate_:
  00068	8d 45 f4	 lea	 eax, DWORD PTR __Masked$5[ebp]
  0006b	89 45 e4	 mov	 DWORD PTR tv93[ebp], eax
$LN36@Calculate_:
  0006e	8b 45 e4	 mov	 eax, DWORD PTR tv93[ebp]
  00071	89 45 e0	 mov	 DWORD PTR $T2[ebp], eax
  00074	8b 45 e0	 mov	 eax, DWORD PTR $T2[ebp]
  00077	89 45 dc	 mov	 DWORD PTR $T1[ebp], eax
; File C:\Program Files (x86)\Microsoft Visual Studio\2019\Community\VC\Tools\MSVC\14.28.29333\include\xstring

; 4294 :         return (_STD max)(_Masked, _Old + _Old / 2);

  0007a	8b 45 dc	 mov	 eax, DWORD PTR $T1[ebp]
  0007d	8b 00		 mov	 eax, DWORD PTR [eax]
  0007f	89 45 f0	 mov	 DWORD PTR $T4[ebp], eax
$LN31@Calculate_:

; 4298 :         return _Calculate_growth(_Requested, _Mypair._Myval2._Myres, max_size());

  00082	8b 45 f0	 mov	 eax, DWORD PTR $T4[ebp]

; 4299 :     }

  00085	c9		 leave
  00086	c2 04 00	 ret	 4
?_Calculate_growth@?$basic_string@DU?$char_traits@D@std@@V?$allocator@D@2@@std@@ABEII@Z ENDP ; std::basic_string<char,std::char_traits<char>,std::allocator<char> >::_Calculate_growth
_TEXT	ENDS
; Function compile flags: /Odspy
; File C:\Program Files (x86)\Microsoft Visual Studio\2019\Community\VC\Tools\MSVC\14.28.29333\include\xstring
; File C:\Program Files (x86)\Microsoft Visual Studio\2019\Community\VC\Tools\MSVC\14.28.29333\include\xmemory
; File C:\Program Files (x86)\Microsoft Visual Studio\2019\Community\VC\Tools\MSVC\14.28.29333\include\xstring
; File C:\Program Files (x86)\Microsoft Visual Studio\2019\Community\VC\Tools\MSVC\14.28.29333\include\xmemory
; File C:\Program Files (x86)\Microsoft Visual Studio\2019\Community\VC\Tools\MSVC\14.28.29333\include\xstring
; File C:\Program Files (x86)\Microsoft Visual Studio\2019\Community\VC\Tools\MSVC\14.28.29333\include\utility
; File C:\Program Files (x86)\Microsoft Visual Studio\2019\Community\VC\Tools\MSVC\14.28.29333\include\xstring
; File C:\Program Files (x86)\Microsoft Visual Studio\2019\Community\VC\Tools\MSVC\14.28.29333\include\limits
; File C:\Program Files (x86)\Microsoft Visual Studio\2019\Community\VC\Tools\MSVC\14.28.29333\include\xstring
; File C:\Program Files (x86)\Microsoft Visual Studio\2019\Community\VC\Tools\MSVC\14.28.29333\include\utility
; File C:\Program Files (x86)\Microsoft Visual Studio\2019\Community\VC\Tools\MSVC\14.28.29333\include\xstring
;	COMDAT ?max_size@?$basic_string@DU?$char_traits@D@std@@V?$allocator@D@2@@std@@QBEIXZ
_TEXT	SEGMENT
$T1 = -60						; size = 4
$T2 = -56						; size = 4
$T3 = -52						; size = 4
$T4 = -48						; size = 4
__Storage_max$ = -44					; size = 4
$T5 = -40						; size = 4
$T6 = -36						; size = 4
$T7 = -32						; size = 4
_this$ = -28						; size = 4
tv70 = -24						; size = 4
$T8 = -20						; size = 4
$T9 = -16						; size = 4
tv67 = -12						; size = 4
__Alloc_max$ = -8					; size = 4
$T10 = -4						; size = 4
?max_size@?$basic_string@DU?$char_traits@D@std@@V?$allocator@D@2@@std@@QBEIXZ PROC ; std::basic_string<char,std::char_traits<char>,std::allocator<char> >::max_size, COMDAT
; _this$ = ecx

; 3773 :     _NODISCARD size_type max_size() const noexcept {

  00000	55		 push	 ebp
  00001	8b ec		 mov	 ebp, esp
  00003	83 ec 3c	 sub	 esp, 60			; 0000003cH
  00006	89 4d e4	 mov	 DWORD PTR _this$[ebp], ecx

; 4413 :         return _Mypair._Get_first();

  00009	8b 45 e4	 mov	 eax, DWORD PTR _this$[ebp]
; File C:\Program Files (x86)\Microsoft Visual Studio\2019\Community\VC\Tools\MSVC\14.28.29333\include\xmemory

; 1351 :         return *this;

  0000c	89 45 e0	 mov	 DWORD PTR $T7[ebp], eax
; File C:\Program Files (x86)\Microsoft Visual Studio\2019\Community\VC\Tools\MSVC\14.28.29333\include\xstring

; 4413 :         return _Mypair._Get_first();

  0000f	8b 45 e0	 mov	 eax, DWORD PTR $T7[ebp]
  00012	89 45 c4	 mov	 DWORD PTR $T1[ebp], eax
; File C:\Program Files (x86)\Microsoft Visual Studio\2019\Community\VC\Tools\MSVC\14.28.29333\include\xmemory

; 710  :         return static_cast<size_t>(-1) / sizeof(value_type);

  00015	83 4d f8 ff	 or	 DWORD PTR __Alloc_max$[ebp], -1
; File C:\Program Files (x86)\Microsoft Visual Studio\2019\Community\VC\Tools\MSVC\14.28.29333\include\xstring

; 3775 :         const size_type _Storage_max = // can always store small string

  00019	c7 45 fc 10 00
	00 00		 mov	 DWORD PTR $T10[ebp], 16	; 00000010H
; File C:\Program Files (x86)\Microsoft Visual Studio\2019\Community\VC\Tools\MSVC\14.28.29333\include\utility

; 44   :     return _Left < _Right ? _Right : _Left;

  00020	8b 45 f8	 mov	 eax, DWORD PTR __Alloc_max$[ebp]
  00023	3b 45 fc	 cmp	 eax, DWORD PTR $T10[ebp]
  00026	73 08		 jae	 SHORT $LN14@max_size
  00028	8d 45 fc	 lea	 eax, DWORD PTR $T10[ebp]
  0002b	89 45 f4	 mov	 DWORD PTR tv67[ebp], eax
  0002e	eb 06		 jmp	 SHORT $LN15@max_size
$LN14@max_size:
  00030	8d 45 f8	 lea	 eax, DWORD PTR __Alloc_max$[ebp]
  00033	89 45 f4	 mov	 DWORD PTR tv67[ebp], eax
$LN15@max_size:
  00036	8b 45 f4	 mov	 eax, DWORD PTR tv67[ebp]
  00039	89 45 dc	 mov	 DWORD PTR $T6[ebp], eax
  0003c	8b 45 dc	 mov	 eax, DWORD PTR $T6[ebp]
  0003f	89 45 d8	 mov	 DWORD PTR $T5[ebp], eax
; File C:\Program Files (x86)\Microsoft Visual Studio\2019\Community\VC\Tools\MSVC\14.28.29333\include\xstring

; 3775 :         const size_type _Storage_max = // can always store small string

  00042	8b 45 d8	 mov	 eax, DWORD PTR $T5[ebp]
  00045	8b 00		 mov	 eax, DWORD PTR [eax]
  00047	89 45 d4	 mov	 DWORD PTR __Storage_max$[ebp], eax

; 3777 :         return (_STD min)(static_cast<size_type>((numeric_limits<difference_type>::max)()),

  0004a	8b 45 d4	 mov	 eax, DWORD PTR __Storage_max$[ebp]
  0004d	48		 dec	 eax
  0004e	89 45 f0	 mov	 DWORD PTR $T9[ebp], eax
; File C:\Program Files (x86)\Microsoft Visual Studio\2019\Community\VC\Tools\MSVC\14.28.29333\include\limits

; 557  :         return INT_MAX;

  00051	c7 45 d0 ff ff
	ff 7f		 mov	 DWORD PTR $T4[ebp], 2147483647 ; 7fffffffH
; File C:\Program Files (x86)\Microsoft Visual Studio\2019\Community\VC\Tools\MSVC\14.28.29333\include\xstring

; 3777 :         return (_STD min)(static_cast<size_type>((numeric_limits<difference_type>::max)()),

  00058	8b 45 d0	 mov	 eax, DWORD PTR $T4[ebp]
  0005b	89 45 ec	 mov	 DWORD PTR $T8[ebp], eax
; File C:\Program Files (x86)\Microsoft Visual Studio\2019\Community\VC\Tools\MSVC\14.28.29333\include\utility

; 68   :     return _Right < _Left ? _Right : _Left;

  0005e	8b 45 f0	 mov	 eax, DWORD PTR $T9[ebp]
  00061	3b 45 ec	 cmp	 eax, DWORD PTR $T8[ebp]
  00064	73 08		 jae	 SHORT $LN22@max_size
  00066	8d 45 f0	 lea	 eax, DWORD PTR $T9[ebp]
  00069	89 45 e8	 mov	 DWORD PTR tv70[ebp], eax
  0006c	eb 06		 jmp	 SHORT $LN23@max_size
$LN22@max_size:
  0006e	8d 45 ec	 lea	 eax, DWORD PTR $T8[ebp]
  00071	89 45 e8	 mov	 DWORD PTR tv70[ebp], eax
$LN23@max_size:
  00074	8b 45 e8	 mov	 eax, DWORD PTR tv70[ebp]
  00077	89 45 cc	 mov	 DWORD PTR $T3[ebp], eax
  0007a	8b 45 cc	 mov	 eax, DWORD PTR $T3[ebp]
  0007d	89 45 c8	 mov	 DWORD PTR $T2[ebp], eax
; File C:\Program Files (x86)\Microsoft Visual Studio\2019\Community\VC\Tools\MSVC\14.28.29333\include\xstring

; 3777 :         return (_STD min)(static_cast<size_type>((numeric_limits<difference_type>::max)()),

  00080	8b 45 c8	 mov	 eax, DWORD PTR $T2[ebp]
  00083	8b 00		 mov	 eax, DWORD PTR [eax]

; 3778 :             _Storage_max - 1 // -1 is for null terminator and/or npos
; 3779 :         );
; 3780 :     }

  00085	c9		 leave
  00086	c3		 ret	 0
?max_size@?$basic_string@DU?$char_traits@D@std@@V?$allocator@D@2@@std@@QBEIXZ ENDP ; std::basic_string<char,std::char_traits<char>,std::allocator<char> >::max_size
_TEXT	ENDS
; Function compile flags: /Odspy
; File C:\Program Files (x86)\Microsoft Visual Studio\2019\Community\VC\Tools\MSVC\14.28.29333\include\xstring
;	COMDAT ?assign@?$basic_string@DU?$char_traits@D@std@@V?$allocator@D@2@@std@@QAEAAV12@QBDI@Z
_TEXT	SEGMENT
$T1 = -16						; size = 1
__Old_ptr$2 = -12					; size = 4
_this$ = -8						; size = 4
$T3 = -1						; size = 1
__Ptr$ = 8						; size = 4
__Count$ = 12						; size = 4
?assign@?$basic_string@DU?$char_traits@D@std@@V?$allocator@D@2@@std@@QAEAAV12@QBDI@Z PROC ; std::basic_string<char,std::char_traits<char>,std::allocator<char> >::assign, COMDAT
; _this$ = ecx

; 3042 :     basic_string& assign(_In_reads_(_Count) const _Elem* const _Ptr, _CRT_GUARDOVERFLOW const size_type _Count) {

  00000	55		 push	 ebp
  00001	8b ec		 mov	 ebp, esp
  00003	83 ec 10	 sub	 esp, 16			; 00000010H
  00006	89 4d f8	 mov	 DWORD PTR _this$[ebp], ecx

; 3043 :         // assign [_Ptr, _Ptr + _Count)
; 3044 :         if (_Count <= _Mypair._Myval2._Myres) {

  00009	8b 45 f8	 mov	 eax, DWORD PTR _this$[ebp]
  0000c	8b 4d 0c	 mov	 ecx, DWORD PTR __Count$[ebp]
  0000f	3b 48 14	 cmp	 ecx, DWORD PTR [eax+20]
  00012	77 39		 ja	 SHORT $LN2@assign

; 3045 :             _Elem* const _Old_ptr   = _Mypair._Myval2._Myptr();

  00014	8b 4d f8	 mov	 ecx, DWORD PTR _this$[ebp]
  00017	e8 00 00 00 00	 call	 ?_Myptr@?$_String_val@U?$_Simple_types@D@std@@@std@@QAEPADXZ ; std::_String_val<std::_Simple_types<char> >::_Myptr
  0001c	89 45 f4	 mov	 DWORD PTR __Old_ptr$2[ebp], eax

; 3046 :             _Mypair._Myval2._Mysize = _Count;

  0001f	8b 45 f8	 mov	 eax, DWORD PTR _this$[ebp]
  00022	8b 4d 0c	 mov	 ecx, DWORD PTR __Count$[ebp]
  00025	89 48 10	 mov	 DWORD PTR [eax+16], ecx

; 119  :         _CSTD memmove(_First1, _First2, _Count * sizeof(_Elem));

  00028	ff 75 0c	 push	 DWORD PTR __Count$[ebp]
  0002b	ff 75 08	 push	 DWORD PTR __Ptr$[ebp]
  0002e	ff 75 f4	 push	 DWORD PTR __Old_ptr$2[ebp]
  00031	e8 00 00 00 00	 call	 _memmove
  00036	83 c4 0c	 add	 esp, 12			; 0000000cH

; 3047 :             _Traits::move(_Old_ptr, _Ptr, _Count);
; 3048 :             _Traits::assign(_Old_ptr[_Count], _Elem());

  00039	c6 45 ff 00	 mov	 BYTE PTR $T3[ebp], 0

; 428  :         _Left = _Right;

  0003d	8b 45 f4	 mov	 eax, DWORD PTR __Old_ptr$2[ebp]
  00040	03 45 0c	 add	 eax, DWORD PTR __Count$[ebp]
  00043	8a 4d ff	 mov	 cl, BYTE PTR $T3[ebp]
  00046	88 08		 mov	 BYTE PTR [eax], cl

; 3049 :             return *this;

  00048	8b 45 f8	 mov	 eax, DWORD PTR _this$[ebp]
  0004b	eb 16		 jmp	 SHORT $LN1@assign
$LN2@assign:

; 3050 :         }
; 3051 : 
; 3052 :         return _Reallocate_for(

  0004d	33 c0		 xor	 eax, eax
  0004f	88 45 f0	 mov	 BYTE PTR $T1[ebp], al
  00052	ff 75 08	 push	 DWORD PTR __Ptr$[ebp]
  00055	ff 75 f0	 push	 DWORD PTR $T1[ebp]
  00058	ff 75 0c	 push	 DWORD PTR __Count$[ebp]
  0005b	8b 4d f8	 mov	 ecx, DWORD PTR _this$[ebp]
  0005e	e8 00 00 00 00	 call	 ??$_Reallocate_for@V<lambda_9366063389c5f42a00a5088cf24e69de>@@PBD@?$basic_string@DU?$char_traits@D@std@@V?$allocator@D@2@@std@@AAEAAV01@IV<lambda_9366063389c5f42a00a5088cf24e69de>@@PBD@Z ; std::basic_string<char,std::char_traits<char>,std::allocator<char> >::_Reallocate_for<<lambda_9366063389c5f42a00a5088cf24e69de>,char const *>
$LN1@assign:

; 3053 :             _Count,
; 3054 :             [](_Elem* const _New_ptr, const size_type _Count, const _Elem* const _Ptr) {
; 3055 :                 _Traits::copy(_New_ptr, _Ptr, _Count);
; 3056 :                 _Traits::assign(_New_ptr[_Count], _Elem());
; 3057 :             },
; 3058 :             _Ptr);
; 3059 :     }

  00063	c9		 leave
  00064	c2 08 00	 ret	 8
?assign@?$basic_string@DU?$char_traits@D@std@@V?$allocator@D@2@@std@@QAEAAV12@QBDI@Z ENDP ; std::basic_string<char,std::char_traits<char>,std::allocator<char> >::assign
_TEXT	ENDS
; Function compile flags: /Odspy
; File C:\Program Files (x86)\Microsoft Visual Studio\2019\Community\VC\Tools\MSVC\14.28.29333\include\xstring
;	COMDAT ??1?$basic_string@DU?$char_traits@D@std@@V?$allocator@D@2@@std@@QAE@XZ
_TEXT	SEGMENT
_this$ = -4						; size = 4
??1?$basic_string@DU?$char_traits@D@std@@V?$allocator@D@2@@std@@QAE@XZ PROC ; std::basic_string<char,std::char_traits<char>,std::allocator<char> >::~basic_string<char,std::char_traits<char>,std::allocator<char> >, COMDAT
; _this$ = ecx

; 2800 :     ~basic_string() noexcept {

  00000	55		 push	 ebp
  00001	8b ec		 mov	 ebp, esp
  00003	51		 push	 ecx
  00004	89 4d fc	 mov	 DWORD PTR _this$[ebp], ecx

; 2801 :         _Tidy_deallocate();

  00007	8b 4d fc	 mov	 ecx, DWORD PTR _this$[ebp]
  0000a	e8 00 00 00 00	 call	 ?_Tidy_deallocate@?$basic_string@DU?$char_traits@D@std@@V?$allocator@D@2@@std@@AAEXXZ ; std::basic_string<char,std::char_traits<char>,std::allocator<char> >::_Tidy_deallocate

; 2802 : #if _ITERATOR_DEBUG_LEVEL != 0
; 2803 :         auto&& _Alproxy          = _GET_PROXY_ALLOCATOR(_Alty, _Getal());
; 2804 :         const auto _To_delete    = _Mypair._Myval2._Myproxy;
; 2805 :         _Mypair._Myval2._Myproxy = nullptr;
; 2806 :         _Delete_plain_internal(_Alproxy, _To_delete);
; 2807 : #endif // _ITERATOR_DEBUG_LEVEL != 0
; 2808 :     }

  0000f	c9		 leave
  00010	c3		 ret	 0
??1?$basic_string@DU?$char_traits@D@std@@V?$allocator@D@2@@std@@QAE@XZ ENDP ; std::basic_string<char,std::char_traits<char>,std::allocator<char> >::~basic_string<char,std::char_traits<char>,std::allocator<char> >
_TEXT	ENDS
; Function compile flags: /Odspy
; File C:\Program Files (x86)\Microsoft Visual Studio\2019\Community\VC\Tools\MSVC\14.28.29333\include\xstring
; File C:\Program Files (x86)\Microsoft Visual Studio\2019\Community\VC\Tools\MSVC\14.28.29333\include\xmemory
; File C:\Program Files (x86)\Microsoft Visual Studio\2019\Community\VC\Tools\MSVC\14.28.29333\include\xstring
; File C:\Program Files (x86)\Microsoft Visual Studio\2019\Community\VC\Tools\MSVC\14.28.29333\include\xmemory
; File C:\Program Files (x86)\Microsoft Visual Studio\2019\Community\VC\Tools\MSVC\14.28.29333\include\xstring
;	COMDAT ??0?$basic_string@DU?$char_traits@D@std@@V?$allocator@D@2@@std@@QAE@QBD@Z
_TEXT	SEGMENT
__Alproxy$ = -40					; size = 4
$T2 = -36						; size = 4
$T3 = -32						; size = 4
_this$ = -28						; size = 4
_this$ = -24						; size = 4
_this$ = -20						; size = 4
_$S6$ = -13						; size = 1
__$EHRec$ = -12						; size = 12
__Ptr$ = 8						; size = 4
??0?$basic_string@DU?$char_traits@D@std@@V?$allocator@D@2@@std@@QAE@QBD@Z PROC ; std::basic_string<char,std::char_traits<char>,std::allocator<char> >::basic_string<char,std::char_traits<char>,std::allocator<char> >, COMDAT
; _this$ = ecx

; 2413 :     basic_string(_In_z_ const _Elem* const _Ptr) : _Mypair(_Zero_then_variadic_args_t{}) {

  00000	55		 push	 ebp
  00001	8b ec		 mov	 ebp, esp
  00003	6a ff		 push	 -1
  00005	68 00 00 00 00	 push	 __ehhandler$??0?$basic_string@DU?$char_traits@D@std@@V?$allocator@D@2@@std@@QAE@QBD@Z
  0000a	64 a1 00 00 00
	00		 mov	 eax, DWORD PTR fs:0
  00010	50		 push	 eax
  00011	83 ec 1c	 sub	 esp, 28			; 0000001cH
  00014	a1 00 00 00 00	 mov	 eax, DWORD PTR ___security_cookie
  00019	33 c5		 xor	 eax, ebp
  0001b	50		 push	 eax
  0001c	8d 45 f4	 lea	 eax, DWORD PTR __$EHRec$[ebp]
  0001f	64 a3 00 00 00
	00		 mov	 DWORD PTR fs:0, eax
  00025	89 4d ec	 mov	 DWORD PTR _this$[ebp], ecx
  00028	8b 45 ec	 mov	 eax, DWORD PTR _this$[ebp]
  0002b	89 45 e4	 mov	 DWORD PTR _this$[ebp], eax
; File C:\Program Files (x86)\Microsoft Visual Studio\2019\Community\VC\Tools\MSVC\14.28.29333\include\xmemory

; 1339 :         : _Ty1(), _Myval2(_STD forward<_Other2>(_Val2)...) {}

  0002e	8b 45 e4	 mov	 eax, DWORD PTR _this$[ebp]
  00031	89 45 e8	 mov	 DWORD PTR _this$[ebp], eax
; File C:\Program Files (x86)\Microsoft Visual Studio\2019\Community\VC\Tools\MSVC\14.28.29333\include\xstring

; 2198 :     _String_val() noexcept : _Bx(), _Mysize(0), _Myres(0) {}

  00034	8b 45 e8	 mov	 eax, DWORD PTR _this$[ebp]
  00037	83 60 10 00	 and	 DWORD PTR [eax+16], 0
  0003b	8b 45 e8	 mov	 eax, DWORD PTR _this$[ebp]
  0003e	83 60 14 00	 and	 DWORD PTR [eax+20], 0

; 2413 :     basic_string(_In_z_ const _Elem* const _Ptr) : _Mypair(_Zero_then_variadic_args_t{}) {

  00042	83 65 fc 00	 and	 DWORD PTR __$EHRec$[ebp+8], 0

; 2414 :         auto&& _Alproxy = _GET_PROXY_ALLOCATOR(_Alty, _Getal());

  00046	8d 45 f3	 lea	 eax, DWORD PTR _$S6$[ebp]
  00049	89 45 d8	 mov	 DWORD PTR __Alproxy$[ebp], eax

; 2415 :         _Container_proxy_ptr<_Alty> _Proxy(_Alproxy, _Mypair._Myval2);
; 2416 :         _Tidy_init();

  0004c	8b 4d ec	 mov	 ecx, DWORD PTR _this$[ebp]
  0004f	e8 00 00 00 00	 call	 ?_Tidy_init@?$basic_string@DU?$char_traits@D@std@@V?$allocator@D@2@@std@@AAEXXZ ; std::basic_string<char,std::char_traits<char>,std::allocator<char> >::_Tidy_init

; 389  :         return _CSTD strlen(reinterpret_cast<const char*>(_First));

  00054	ff 75 08	 push	 DWORD PTR __Ptr$[ebp]
  00057	e8 00 00 00 00	 call	 _strlen
  0005c	59		 pop	 ecx
  0005d	89 45 e0	 mov	 DWORD PTR $T3[ebp], eax
; File C:\Program Files (x86)\Microsoft Visual Studio\2019\Community\VC\Tools\MSVC\14.28.29333\include\xmemory

; 997  :     return _Len;

  00060	8b 45 e0	 mov	 eax, DWORD PTR $T3[ebp]
  00063	89 45 dc	 mov	 DWORD PTR $T2[ebp], eax
; File C:\Program Files (x86)\Microsoft Visual Studio\2019\Community\VC\Tools\MSVC\14.28.29333\include\xstring

; 3062 :         return assign(_Ptr, _Convert_size<size_type>(_Traits::length(_Ptr)));

  00066	ff 75 dc	 push	 DWORD PTR $T2[ebp]
  00069	ff 75 08	 push	 DWORD PTR __Ptr$[ebp]
  0006c	8b 4d ec	 mov	 ecx, DWORD PTR _this$[ebp]
  0006f	e8 00 00 00 00	 call	 ?assign@?$basic_string@DU?$char_traits@D@std@@V?$allocator@D@2@@std@@QAEAAV12@QBDI@Z ; std::basic_string<char,std::char_traits<char>,std::allocator<char> >::assign

; 2417 :         assign(_Ptr);
; 2418 :         _Proxy._Release();
; 2419 :     }

  00074	83 4d fc ff	 or	 DWORD PTR __$EHRec$[ebp+8], -1
  00078	8b 45 ec	 mov	 eax, DWORD PTR _this$[ebp]
  0007b	8b 4d f4	 mov	 ecx, DWORD PTR __$EHRec$[ebp]
  0007e	64 89 0d 00 00
	00 00		 mov	 DWORD PTR fs:0, ecx
  00085	59		 pop	 ecx
  00086	c9		 leave
  00087	c2 04 00	 ret	 4
_TEXT	ENDS
;	COMDAT text$x
text$x	SEGMENT
__unwindfunclet$??0?$basic_string@DU?$char_traits@D@std@@V?$allocator@D@2@@std@@QAE@QBD@Z$0:
  00000	8b 4d ec	 mov	 ecx, DWORD PTR _this$[ebp]
  00003	e9 00 00 00 00	 jmp	 ??1?$_Compressed_pair@V?$allocator@D@std@@V?$_String_val@U?$_Simple_types@D@std@@@2@$00@std@@QAE@XZ
  00008	cc		 int	 3
  00009	cc		 int	 3
  0000a	cc		 int	 3
  0000b	cc		 int	 3
  0000c	cc		 int	 3
__ehhandler$??0?$basic_string@DU?$char_traits@D@std@@V?$allocator@D@2@@std@@QAE@QBD@Z:
  0000d	90		 npad	 1
  0000e	90		 npad	 1
  0000f	8b 54 24 08	 mov	 edx, DWORD PTR [esp+8]
  00013	8d 42 0c	 lea	 eax, DWORD PTR [edx+12]
  00016	8b 4a e0	 mov	 ecx, DWORD PTR [edx-32]
  00019	33 c8		 xor	 ecx, eax
  0001b	e8 00 00 00 00	 call	 @__security_check_cookie@4
  00020	b8 00 00 00 00	 mov	 eax, OFFSET __ehfuncinfo$??0?$basic_string@DU?$char_traits@D@std@@V?$allocator@D@2@@std@@QAE@QBD@Z
  00025	e9 00 00 00 00	 jmp	 ___CxxFrameHandler3
text$x	ENDS
??0?$basic_string@DU?$char_traits@D@std@@V?$allocator@D@2@@std@@QAE@QBD@Z ENDP ; std::basic_string<char,std::char_traits<char>,std::allocator<char> >::basic_string<char,std::char_traits<char>,std::allocator<char> >
; Function compile flags: /Odspy
; File C:\Program Files (x86)\Microsoft Visual Studio\2019\Community\VC\Tools\MSVC\14.28.29333\include\xstring
; File C:\Program Files (x86)\Microsoft Visual Studio\2019\Community\VC\Tools\MSVC\14.28.29333\include\xstddef
; File C:\Program Files (x86)\Microsoft Visual Studio\2019\Community\VC\Tools\MSVC\14.28.29333\include\xstring
;	COMDAT ?_Myptr@?$_String_val@U?$_Simple_types@D@std@@@std@@QAEPADXZ
_TEXT	SEGMENT
__Ptr$ = -20						; size = 4
__Result$ = -16						; size = 4
tv76 = -12						; size = 4
_this$ = -8						; size = 4
$T1 = -1						; size = 1
?_Myptr@?$_String_val@U?$_Simple_types@D@std@@@std@@QAEPADXZ PROC ; std::_String_val<std::_Simple_types<char> >::_Myptr, COMDAT
; _this$ = ecx

; 2208 :     value_type* _Myptr() noexcept {

  00000	55		 push	 ebp
  00001	8b ec		 mov	 ebp, esp
  00003	83 ec 14	 sub	 esp, 20			; 00000014H
  00006	89 4d f8	 mov	 DWORD PTR _this$[ebp], ecx

; 2209 :         value_type* _Result = _Bx._Buf;

  00009	8b 45 f8	 mov	 eax, DWORD PTR _this$[ebp]
  0000c	89 45 f0	 mov	 DWORD PTR __Result$[ebp], eax

; 2227 :         return _BUF_SIZE <= _Myres;

  0000f	8b 45 f8	 mov	 eax, DWORD PTR _this$[ebp]
  00012	83 78 14 10	 cmp	 DWORD PTR [eax+20], 16	; 00000010H
  00016	72 09		 jb	 SHORT $LN6@Myptr
  00018	c7 45 f4 01 00
	00 00		 mov	 DWORD PTR tv76[ebp], 1
  0001f	eb 04		 jmp	 SHORT $LN7@Myptr
$LN6@Myptr:
  00021	83 65 f4 00	 and	 DWORD PTR tv76[ebp], 0
$LN7@Myptr:
  00025	8a 45 f4	 mov	 al, BYTE PTR tv76[ebp]
  00028	88 45 ff	 mov	 BYTE PTR $T1[ebp], al

; 2210 :         if (_Large_string_engaged()) {

  0002b	0f b6 45 ff	 movzx	 eax, BYTE PTR $T1[ebp]
  0002f	85 c0		 test	 eax, eax
  00031	74 0e		 je	 SHORT $LN2@Myptr

; 2211 :             _Result = _Unfancy(_Bx._Ptr);

  00033	8b 45 f8	 mov	 eax, DWORD PTR _this$[ebp]
  00036	8b 00		 mov	 eax, DWORD PTR [eax]
  00038	89 45 ec	 mov	 DWORD PTR __Ptr$[ebp], eax
; File C:\Program Files (x86)\Microsoft Visual Studio\2019\Community\VC\Tools\MSVC\14.28.29333\include\xstddef

; 289  :     return _Ptr;

  0003b	8b 45 ec	 mov	 eax, DWORD PTR __Ptr$[ebp]
  0003e	89 45 f0	 mov	 DWORD PTR __Result$[ebp], eax
$LN2@Myptr:
; File C:\Program Files (x86)\Microsoft Visual Studio\2019\Community\VC\Tools\MSVC\14.28.29333\include\xstring

; 2214 :         return _Result;

  00041	8b 45 f0	 mov	 eax, DWORD PTR __Result$[ebp]

; 2215 :     }

  00044	c9		 leave
  00045	c3		 ret	 0
?_Myptr@?$_String_val@U?$_Simple_types@D@std@@@std@@QAEPADXZ ENDP ; std::_String_val<std::_Simple_types<char> >::_Myptr
_TEXT	ENDS
; Function compile flags: /Odspy
; File C:\Program Files (x86)\Microsoft Visual Studio\2019\Community\VC\Tools\MSVC\14.28.29333\include\xstring
;	COMDAT ?_Xlen_string@std@@YAXXZ
_TEXT	SEGMENT
?_Xlen_string@std@@YAXXZ PROC				; std::_Xlen_string, COMDAT

; 2274 : [[noreturn]] inline void _Xlen_string() {

  00000	55		 push	 ebp
  00001	8b ec		 mov	 ebp, esp

; 2275 :     _Xlength_error("string too long");

  00003	68 00 00 00 00	 push	 OFFSET ??_C@_0BA@JFNIOLAK@string?5too?5long@
  00008	e8 00 00 00 00	 call	 ?_Xlength_error@std@@YAXPBD@Z ; std::_Xlength_error
$LN2@Xlen_strin:

; 2276 : }

  0000d	5d		 pop	 ebp
  0000e	c3		 ret	 0
?_Xlen_string@std@@YAXXZ ENDP				; std::_Xlen_string
_TEXT	ENDS
; Function compile flags: /Odspy
; File C:\Program Files (x86)\Microsoft Visual Studio\2019\Community\VC\Tools\MSVC\14.28.29333\include\xmemory
;	COMDAT ?_Adjust_manually_vector_aligned@std@@YAXAAPAXAAI@Z
_TEXT	SEGMENT
__Min_back_shift$ = -16					; size = 4
__Ptr_user$ = -12					; size = 4
__Ptr_container$ = -8					; size = 4
__Back_shift$ = -4					; size = 4
__Ptr$ = 8						; size = 4
__Bytes$ = 12						; size = 4
?_Adjust_manually_vector_aligned@std@@YAXAAPAXAAI@Z PROC ; std::_Adjust_manually_vector_aligned, COMDAT

; 132  : inline void _Adjust_manually_vector_aligned(void*& _Ptr, size_t& _Bytes) {

  00000	55		 push	 ebp
  00001	8b ec		 mov	 ebp, esp
  00003	83 ec 10	 sub	 esp, 16			; 00000010H

; 133  :     // adjust parameters from _Allocate_manually_vector_aligned to pass to operator delete
; 134  :     _Bytes += _Non_user_size;

  00006	8b 45 0c	 mov	 eax, DWORD PTR __Bytes$[ebp]
  00009	8b 00		 mov	 eax, DWORD PTR [eax]
  0000b	83 c0 23	 add	 eax, 35			; 00000023H
  0000e	8b 4d 0c	 mov	 ecx, DWORD PTR __Bytes$[ebp]
  00011	89 01		 mov	 DWORD PTR [ecx], eax

; 135  : 
; 136  :     const uintptr_t* const _Ptr_user = reinterpret_cast<uintptr_t*>(_Ptr);

  00013	8b 45 08	 mov	 eax, DWORD PTR __Ptr$[ebp]
  00016	8b 00		 mov	 eax, DWORD PTR [eax]
  00018	89 45 f4	 mov	 DWORD PTR __Ptr_user$[ebp], eax

; 137  :     const uintptr_t _Ptr_container   = _Ptr_user[-1];

  0001b	6a 04		 push	 4
  0001d	58		 pop	 eax
  0001e	6b c0 ff	 imul	 eax, eax, -1
  00021	8b 4d f4	 mov	 ecx, DWORD PTR __Ptr_user$[ebp]
  00024	8b 04 01	 mov	 eax, DWORD PTR [ecx+eax]
  00027	89 45 f8	 mov	 DWORD PTR __Ptr_container$[ebp], eax

; 138  : 
; 139  :     // If the following asserts, it likely means that we are performing
; 140  :     // an aligned delete on memory coming from an unaligned allocation.
; 141  :     _STL_ASSERT(_Ptr_user[-2] == _Big_allocation_sentinel, "invalid argument");
; 142  : 
; 143  :     // Extra paranoia on aligned allocation/deallocation; ensure _Ptr_container is
; 144  :     // in range [_Min_back_shift, _Non_user_size]
; 145  : #ifdef _DEBUG
; 146  :     constexpr uintptr_t _Min_back_shift = 2 * sizeof(void*);
; 147  : #else // ^^^ _DEBUG ^^^ // vvv !_DEBUG vvv
; 148  :     constexpr uintptr_t _Min_back_shift = sizeof(void*);

  0002a	c7 45 f0 04 00
	00 00		 mov	 DWORD PTR __Min_back_shift$[ebp], 4

; 149  : #endif // _DEBUG
; 150  :     const uintptr_t _Back_shift = reinterpret_cast<uintptr_t>(_Ptr) - _Ptr_container;

  00031	8b 45 08	 mov	 eax, DWORD PTR __Ptr$[ebp]
  00034	8b 00		 mov	 eax, DWORD PTR [eax]
  00036	2b 45 f8	 sub	 eax, DWORD PTR __Ptr_container$[ebp]
  00039	89 45 fc	 mov	 DWORD PTR __Back_shift$[ebp], eax
$LN4@Adjust_man:

; 151  :     _STL_VERIFY(_Back_shift >= _Min_back_shift && _Back_shift <= _Non_user_size, "invalid argument");

  0003c	83 7d fc 04	 cmp	 DWORD PTR __Back_shift$[ebp], 4
  00040	72 08		 jb	 SHORT $LN7@Adjust_man
  00042	83 7d fc 23	 cmp	 DWORD PTR __Back_shift$[ebp], 35 ; 00000023H
  00046	77 02		 ja	 SHORT $LN7@Adjust_man
  00048	eb 09		 jmp	 SHORT $LN2@Adjust_man
$LN7@Adjust_man:
  0004a	e8 00 00 00 00	 call	 __invalid_parameter_noinfo_noreturn
  0004f	33 c0		 xor	 eax, eax
  00051	75 f7		 jne	 SHORT $LN7@Adjust_man
$LN2@Adjust_man:
  00053	33 c0		 xor	 eax, eax
  00055	75 e5		 jne	 SHORT $LN4@Adjust_man

; 152  :     _Ptr = reinterpret_cast<void*>(_Ptr_container);

  00057	8b 45 08	 mov	 eax, DWORD PTR __Ptr$[ebp]
  0005a	8b 4d f8	 mov	 ecx, DWORD PTR __Ptr_container$[ebp]
  0005d	89 08		 mov	 DWORD PTR [eax], ecx
$LN10@Adjust_man:

; 153  : }

  0005f	c9		 leave
  00060	c3		 ret	 0
?_Adjust_manually_vector_aligned@std@@YAXAAPAXAAI@Z ENDP ; std::_Adjust_manually_vector_aligned
_TEXT	ENDS
; Function compile flags: /Odspy
; File C:\Program Files (x86)\Microsoft Visual Studio\2019\Community\VC\Tools\MSVC\14.28.29333\include\exception
;	COMDAT ?_Throw_bad_array_new_length@std@@YAXXZ
_TEXT	SEGMENT
$T1 = -12						; size = 12
?_Throw_bad_array_new_length@std@@YAXXZ PROC		; std::_Throw_bad_array_new_length, COMDAT

; 320  : [[noreturn]] inline void _Throw_bad_array_new_length() {

  00000	55		 push	 ebp
  00001	8b ec		 mov	 ebp, esp
  00003	83 ec 0c	 sub	 esp, 12			; 0000000cH

; 321  :     _THROW(bad_array_new_length{});

  00006	8d 4d f4	 lea	 ecx, DWORD PTR $T1[ebp]
  00009	e8 00 00 00 00	 call	 ??0bad_array_new_length@std@@QAE@XZ ; std::bad_array_new_length::bad_array_new_length
  0000e	68 00 00 00 00	 push	 OFFSET __TI3?AVbad_array_new_length@std@@
  00013	8d 45 f4	 lea	 eax, DWORD PTR $T1[ebp]
  00016	50		 push	 eax
  00017	e8 00 00 00 00	 call	 __CxxThrowException@8
$LN2@Throw_bad_:

; 322  : }

  0001c	c9		 leave
  0001d	c3		 ret	 0
?_Throw_bad_array_new_length@std@@YAXXZ ENDP		; std::_Throw_bad_array_new_length
_TEXT	ENDS
; Function compile flags: /Odspy
; File C:\Program Files (x86)\Microsoft Visual Studio\2019\Community\VC\Tools\MSVC\14.28.29333\include\vcruntime_exception.h
;	COMDAT ??_Gbad_array_new_length@std@@UAEPAXI@Z
_TEXT	SEGMENT
_this$ = -4						; size = 4
___flags$ = 8						; size = 4
??_Gbad_array_new_length@std@@UAEPAXI@Z PROC		; std::bad_array_new_length::`scalar deleting destructor', COMDAT
; _this$ = ecx
  00000	55		 push	 ebp
  00001	8b ec		 mov	 ebp, esp
  00003	51		 push	 ecx
  00004	89 4d fc	 mov	 DWORD PTR _this$[ebp], ecx

; 89   :     {

  00007	8b 45 fc	 mov	 eax, DWORD PTR _this$[ebp]
  0000a	c7 00 00 00 00
	00		 mov	 DWORD PTR [eax], OFFSET ??_7exception@std@@6B@

; 90   :         __std_exception_destroy(&_Data);

  00010	8b 45 fc	 mov	 eax, DWORD PTR _this$[ebp]
  00013	83 c0 04	 add	 eax, 4
  00016	50		 push	 eax
  00017	e8 00 00 00 00	 call	 ___std_exception_destroy
  0001c	59		 pop	 ecx
  0001d	8b 45 08	 mov	 eax, DWORD PTR ___flags$[ebp]
  00020	83 e0 01	 and	 eax, 1
  00023	74 0c		 je	 SHORT $LN2@scalar
  00025	6a 0c		 push	 12			; 0000000cH
  00027	ff 75 fc	 push	 DWORD PTR _this$[ebp]
  0002a	e8 00 00 00 00	 call	 ??3@YAXPAXI@Z		; operator delete
  0002f	59		 pop	 ecx
  00030	59		 pop	 ecx
$LN2@scalar:
  00031	8b 45 fc	 mov	 eax, DWORD PTR _this$[ebp]
  00034	c9		 leave
  00035	c2 04 00	 ret	 4
??_Gbad_array_new_length@std@@UAEPAXI@Z ENDP		; std::bad_array_new_length::`scalar deleting destructor'
_TEXT	ENDS
; Function compile flags: /Odspy
;	COMDAT ??0bad_array_new_length@std@@QAE@ABV01@@Z
_TEXT	SEGMENT
_this$ = -4						; size = 4
___that$ = 8						; size = 4
??0bad_array_new_length@std@@QAE@ABV01@@Z PROC		; std::bad_array_new_length::bad_array_new_length, COMDAT
; _this$ = ecx
  00000	55		 push	 ebp
  00001	8b ec		 mov	 ebp, esp
  00003	51		 push	 ecx
  00004	89 4d fc	 mov	 DWORD PTR _this$[ebp], ecx
  00007	ff 75 08	 push	 DWORD PTR ___that$[ebp]
  0000a	8b 4d fc	 mov	 ecx, DWORD PTR _this$[ebp]
  0000d	e8 00 00 00 00	 call	 ??0exception@std@@QAE@ABV01@@Z ; std::exception::exception
  00012	8b 45 fc	 mov	 eax, DWORD PTR _this$[ebp]
  00015	c7 00 00 00 00
	00		 mov	 DWORD PTR [eax], OFFSET ??_7bad_alloc@std@@6B@
  0001b	8b 45 fc	 mov	 eax, DWORD PTR _this$[ebp]
  0001e	c7 00 00 00 00
	00		 mov	 DWORD PTR [eax], OFFSET ??_7bad_array_new_length@std@@6B@
  00024	8b 45 fc	 mov	 eax, DWORD PTR _this$[ebp]
  00027	c9		 leave
  00028	c2 04 00	 ret	 4
??0bad_array_new_length@std@@QAE@ABV01@@Z ENDP		; std::bad_array_new_length::bad_array_new_length
_TEXT	ENDS
; Function compile flags: /Odspy
; File C:\Program Files (x86)\Microsoft Visual Studio\2019\Community\VC\Tools\MSVC\14.28.29333\include\vcruntime_exception.h
;	COMDAT ??1bad_array_new_length@std@@UAE@XZ
_TEXT	SEGMENT
_this$ = -4						; size = 4
??1bad_array_new_length@std@@UAE@XZ PROC		; std::bad_array_new_length::~bad_array_new_length, COMDAT
; _this$ = ecx
  00000	55		 push	 ebp
  00001	8b ec		 mov	 ebp, esp
  00003	51		 push	 ecx
  00004	89 4d fc	 mov	 DWORD PTR _this$[ebp], ecx

; 89   :     {

  00007	8b 45 fc	 mov	 eax, DWORD PTR _this$[ebp]
  0000a	c7 00 00 00 00
	00		 mov	 DWORD PTR [eax], OFFSET ??_7exception@std@@6B@

; 90   :         __std_exception_destroy(&_Data);

  00010	8b 45 fc	 mov	 eax, DWORD PTR _this$[ebp]
  00013	83 c0 04	 add	 eax, 4
  00016	50		 push	 eax
  00017	e8 00 00 00 00	 call	 ___std_exception_destroy
  0001c	59		 pop	 ecx
  0001d	c9		 leave
  0001e	c3		 ret	 0
??1bad_array_new_length@std@@UAE@XZ ENDP		; std::bad_array_new_length::~bad_array_new_length
_TEXT	ENDS
; Function compile flags: /Odspy
; File C:\Program Files (x86)\Microsoft Visual Studio\2019\Community\VC\Tools\MSVC\14.28.29333\include\vcruntime_exception.h
;	COMDAT ??0bad_array_new_length@std@@QAE@XZ
_TEXT	SEGMENT
_this$ = -4						; size = 4
??0bad_array_new_length@std@@QAE@XZ PROC		; std::bad_array_new_length::bad_array_new_length, COMDAT
; _this$ = ecx

; 141  :     {

  00000	55		 push	 ebp
  00001	8b ec		 mov	 ebp, esp
  00003	51		 push	 ecx
  00004	89 4d fc	 mov	 DWORD PTR _this$[ebp], ecx

; 66   :     {

  00007	8b 45 fc	 mov	 eax, DWORD PTR _this$[ebp]
  0000a	c7 00 00 00 00
	00		 mov	 DWORD PTR [eax], OFFSET ??_7exception@std@@6B@

; 65   :         : _Data()

  00010	33 c0		 xor	 eax, eax
  00012	8b 4d fc	 mov	 ecx, DWORD PTR _this$[ebp]
  00015	83 c1 04	 add	 ecx, 4
  00018	89 01		 mov	 DWORD PTR [ecx], eax
  0001a	89 41 04	 mov	 DWORD PTR [ecx+4], eax

; 67   :         _Data._What = _Message;

  0001d	8b 45 fc	 mov	 eax, DWORD PTR _this$[ebp]
  00020	c7 40 04 00 00
	00 00		 mov	 DWORD PTR [eax+4], OFFSET ??_C@_0BF@KINCDENJ@bad?5array?5new?5length@

; 130  :     {

  00027	8b 45 fc	 mov	 eax, DWORD PTR _this$[ebp]
  0002a	c7 00 00 00 00
	00		 mov	 DWORD PTR [eax], OFFSET ??_7bad_alloc@std@@6B@

; 141  :     {

  00030	8b 45 fc	 mov	 eax, DWORD PTR _this$[ebp]
  00033	c7 00 00 00 00
	00		 mov	 DWORD PTR [eax], OFFSET ??_7bad_array_new_length@std@@6B@

; 142  :     }

  00039	8b 45 fc	 mov	 eax, DWORD PTR _this$[ebp]
  0003c	c9		 leave
  0003d	c3		 ret	 0
??0bad_array_new_length@std@@QAE@XZ ENDP		; std::bad_array_new_length::bad_array_new_length
_TEXT	ENDS
; Function compile flags: /Odspy
; File C:\Program Files (x86)\Microsoft Visual Studio\2019\Community\VC\Tools\MSVC\14.28.29333\include\vcruntime_exception.h
;	COMDAT ??_Gbad_alloc@std@@UAEPAXI@Z
_TEXT	SEGMENT
_this$ = -4						; size = 4
___flags$ = 8						; size = 4
??_Gbad_alloc@std@@UAEPAXI@Z PROC			; std::bad_alloc::`scalar deleting destructor', COMDAT
; _this$ = ecx
  00000	55		 push	 ebp
  00001	8b ec		 mov	 ebp, esp
  00003	51		 push	 ecx
  00004	89 4d fc	 mov	 DWORD PTR _this$[ebp], ecx

; 89   :     {

  00007	8b 45 fc	 mov	 eax, DWORD PTR _this$[ebp]
  0000a	c7 00 00 00 00
	00		 mov	 DWORD PTR [eax], OFFSET ??_7exception@std@@6B@

; 90   :         __std_exception_destroy(&_Data);

  00010	8b 45 fc	 mov	 eax, DWORD PTR _this$[ebp]
  00013	83 c0 04	 add	 eax, 4
  00016	50		 push	 eax
  00017	e8 00 00 00 00	 call	 ___std_exception_destroy
  0001c	59		 pop	 ecx
  0001d	8b 45 08	 mov	 eax, DWORD PTR ___flags$[ebp]
  00020	83 e0 01	 and	 eax, 1
  00023	74 0c		 je	 SHORT $LN2@scalar
  00025	6a 0c		 push	 12			; 0000000cH
  00027	ff 75 fc	 push	 DWORD PTR _this$[ebp]
  0002a	e8 00 00 00 00	 call	 ??3@YAXPAXI@Z		; operator delete
  0002f	59		 pop	 ecx
  00030	59		 pop	 ecx
$LN2@scalar:
  00031	8b 45 fc	 mov	 eax, DWORD PTR _this$[ebp]
  00034	c9		 leave
  00035	c2 04 00	 ret	 4
??_Gbad_alloc@std@@UAEPAXI@Z ENDP			; std::bad_alloc::`scalar deleting destructor'
_TEXT	ENDS
; Function compile flags: /Odspy
;	COMDAT ??0bad_alloc@std@@QAE@ABV01@@Z
_TEXT	SEGMENT
_this$ = -4						; size = 4
___that$ = 8						; size = 4
??0bad_alloc@std@@QAE@ABV01@@Z PROC			; std::bad_alloc::bad_alloc, COMDAT
; _this$ = ecx
  00000	55		 push	 ebp
  00001	8b ec		 mov	 ebp, esp
  00003	51		 push	 ecx
  00004	89 4d fc	 mov	 DWORD PTR _this$[ebp], ecx
  00007	ff 75 08	 push	 DWORD PTR ___that$[ebp]
  0000a	8b 4d fc	 mov	 ecx, DWORD PTR _this$[ebp]
  0000d	e8 00 00 00 00	 call	 ??0exception@std@@QAE@ABV01@@Z ; std::exception::exception
  00012	8b 45 fc	 mov	 eax, DWORD PTR _this$[ebp]
  00015	c7 00 00 00 00
	00		 mov	 DWORD PTR [eax], OFFSET ??_7bad_alloc@std@@6B@
  0001b	8b 45 fc	 mov	 eax, DWORD PTR _this$[ebp]
  0001e	c9		 leave
  0001f	c2 04 00	 ret	 4
??0bad_alloc@std@@QAE@ABV01@@Z ENDP			; std::bad_alloc::bad_alloc
_TEXT	ENDS
; Function compile flags: /Odspy
; File C:\Program Files (x86)\Microsoft Visual Studio\2019\Community\VC\Tools\MSVC\14.28.29333\include\vcruntime_exception.h
;	COMDAT ??_Gexception@std@@UAEPAXI@Z
_TEXT	SEGMENT
_this$ = -4						; size = 4
___flags$ = 8						; size = 4
??_Gexception@std@@UAEPAXI@Z PROC			; std::exception::`scalar deleting destructor', COMDAT
; _this$ = ecx
  00000	55		 push	 ebp
  00001	8b ec		 mov	 ebp, esp
  00003	51		 push	 ecx
  00004	89 4d fc	 mov	 DWORD PTR _this$[ebp], ecx

; 89   :     {

  00007	8b 45 fc	 mov	 eax, DWORD PTR _this$[ebp]
  0000a	c7 00 00 00 00
	00		 mov	 DWORD PTR [eax], OFFSET ??_7exception@std@@6B@

; 90   :         __std_exception_destroy(&_Data);

  00010	8b 45 fc	 mov	 eax, DWORD PTR _this$[ebp]
  00013	83 c0 04	 add	 eax, 4
  00016	50		 push	 eax
  00017	e8 00 00 00 00	 call	 ___std_exception_destroy
  0001c	59		 pop	 ecx
  0001d	8b 45 08	 mov	 eax, DWORD PTR ___flags$[ebp]
  00020	83 e0 01	 and	 eax, 1
  00023	74 0c		 je	 SHORT $LN2@scalar
  00025	6a 0c		 push	 12			; 0000000cH
  00027	ff 75 fc	 push	 DWORD PTR _this$[ebp]
  0002a	e8 00 00 00 00	 call	 ??3@YAXPAXI@Z		; operator delete
  0002f	59		 pop	 ecx
  00030	59		 pop	 ecx
$LN2@scalar:
  00031	8b 45 fc	 mov	 eax, DWORD PTR _this$[ebp]
  00034	c9		 leave
  00035	c2 04 00	 ret	 4
??_Gexception@std@@UAEPAXI@Z ENDP			; std::exception::`scalar deleting destructor'
_TEXT	ENDS
; Function compile flags: /Odspy
; File C:\Program Files (x86)\Microsoft Visual Studio\2019\Community\VC\Tools\MSVC\14.28.29333\include\vcruntime_exception.h
;	COMDAT ?what@exception@std@@UBEPBDXZ
_TEXT	SEGMENT
tv69 = -8						; size = 4
_this$ = -4						; size = 4
?what@exception@std@@UBEPBDXZ PROC			; std::exception::what, COMDAT
; _this$ = ecx

; 94   :     {

  00000	55		 push	 ebp
  00001	8b ec		 mov	 ebp, esp
  00003	51		 push	 ecx
  00004	51		 push	 ecx
  00005	89 4d fc	 mov	 DWORD PTR _this$[ebp], ecx

; 95   :         return _Data._What ? _Data._What : "Unknown exception";

  00008	8b 45 fc	 mov	 eax, DWORD PTR _this$[ebp]
  0000b	83 78 04 00	 cmp	 DWORD PTR [eax+4], 0
  0000f	74 0b		 je	 SHORT $LN3@what
  00011	8b 45 fc	 mov	 eax, DWORD PTR _this$[ebp]
  00014	8b 40 04	 mov	 eax, DWORD PTR [eax+4]
  00017	89 45 f8	 mov	 DWORD PTR tv69[ebp], eax
  0001a	eb 07		 jmp	 SHORT $LN4@what
$LN3@what:
  0001c	c7 45 f8 00 00
	00 00		 mov	 DWORD PTR tv69[ebp], OFFSET ??_C@_0BC@EOODALEL@Unknown?5exception@
$LN4@what:
  00023	8b 45 f8	 mov	 eax, DWORD PTR tv69[ebp]

; 96   :     }

  00026	c9		 leave
  00027	c3		 ret	 0
?what@exception@std@@UBEPBDXZ ENDP			; std::exception::what
_TEXT	ENDS
; Function compile flags: /Odspy
; File C:\Program Files (x86)\Microsoft Visual Studio\2019\Community\VC\Tools\MSVC\14.28.29333\include\vcruntime_exception.h
;	COMDAT ??0exception@std@@QAE@ABV01@@Z
_TEXT	SEGMENT
_this$ = -4						; size = 4
__Other$ = 8						; size = 4
??0exception@std@@QAE@ABV01@@Z PROC			; std::exception::exception, COMDAT
; _this$ = ecx

; 72   :     {

  00000	55		 push	 ebp
  00001	8b ec		 mov	 ebp, esp
  00003	51		 push	 ecx
  00004	89 4d fc	 mov	 DWORD PTR _this$[ebp], ecx
  00007	8b 45 fc	 mov	 eax, DWORD PTR _this$[ebp]
  0000a	c7 00 00 00 00
	00		 mov	 DWORD PTR [eax], OFFSET ??_7exception@std@@6B@

; 71   :         : _Data()

  00010	33 c0		 xor	 eax, eax
  00012	8b 4d fc	 mov	 ecx, DWORD PTR _this$[ebp]
  00015	83 c1 04	 add	 ecx, 4
  00018	89 01		 mov	 DWORD PTR [ecx], eax
  0001a	89 41 04	 mov	 DWORD PTR [ecx+4], eax

; 73   :         __std_exception_copy(&_Other._Data, &_Data);

  0001d	8b 45 fc	 mov	 eax, DWORD PTR _this$[ebp]
  00020	83 c0 04	 add	 eax, 4
  00023	50		 push	 eax
  00024	8b 45 08	 mov	 eax, DWORD PTR __Other$[ebp]
  00027	83 c0 04	 add	 eax, 4
  0002a	50		 push	 eax
  0002b	e8 00 00 00 00	 call	 ___std_exception_copy
  00030	59		 pop	 ecx
  00031	59		 pop	 ecx

; 74   :     }

  00032	8b 45 fc	 mov	 eax, DWORD PTR _this$[ebp]
  00035	c9		 leave
  00036	c2 04 00	 ret	 4
??0exception@std@@QAE@ABV01@@Z ENDP			; std::exception::exception
_TEXT	ENDS
END
