; Listing generated by Microsoft (R) Optimizing Compiler Version 19.28.29335.0 

	TITLE	D:\Metin2 Server Files\mainline\SRC_2014\Metin2Client\GameLib\ActorInstanceMotion.cpp
	.686P
	.XMM
	include listing.inc
	.model	flat

INCLUDELIB LIBCMT
INCLUDELIB OLDNAMES

PUBLIC	??_H@YGXPAXIIP6EPAX0@Z@Z			; `vector constructor iterator'
PUBLIC	?__empty_global_delete@@YAXPAX@Z		; __empty_global_delete
PUBLIC	?__empty_global_delete@@YAXPAXI@Z		; __empty_global_delete
PUBLIC	??0exception@std@@QAE@ABV01@@Z			; std::exception::exception
PUBLIC	?what@exception@std@@UBEPBDXZ			; std::exception::what
PUBLIC	??_Gexception@std@@UAEPAXI@Z			; std::exception::`scalar deleting destructor'
PUBLIC	??0bad_alloc@std@@QAE@ABV01@@Z			; std::bad_alloc::bad_alloc
PUBLIC	??_Gbad_alloc@std@@UAEPAXI@Z			; std::bad_alloc::`scalar deleting destructor'
PUBLIC	??0bad_array_new_length@std@@QAE@XZ		; std::bad_array_new_length::bad_array_new_length
PUBLIC	??1bad_array_new_length@std@@UAE@XZ		; std::bad_array_new_length::~bad_array_new_length
PUBLIC	??0bad_array_new_length@std@@QAE@ABV01@@Z	; std::bad_array_new_length::bad_array_new_length
PUBLIC	??_Gbad_array_new_length@std@@UAEPAXI@Z		; std::bad_array_new_length::`scalar deleting destructor'
PUBLIC	?_Throw_bad_array_new_length@std@@YAXXZ		; std::_Throw_bad_array_new_length
PUBLIC	?_Adjust_manually_vector_aligned@std@@YAXAAPAXAAI@Z ; std::_Adjust_manually_vector_aligned
PUBLIC	??$_Deallocate@$07$0A@@std@@YAXPAXI@Z		; std::_Deallocate<8,0>
PUBLIC	??$_Allocate@$07U_Default_allocate_traits@std@@$0A@@std@@YAPAXI@Z ; std::_Allocate<8,std::_Default_allocate_traits,0>
PUBLIC	??$_Allocate_manually_vector_aligned@U_Default_allocate_traits@std@@@std@@YAPAXI@Z ; std::_Allocate_manually_vector_aligned<std::_Default_allocate_traits>
PUBLIC	??1?$_Tree@V?$_Tmap_traits@PAVCActorInstance@@MU?$less@PAVCActorInstance@@@std@@V?$allocator@U?$pair@QAVCActorInstance@@M@std@@@3@$0A@@std@@@std@@QAE@XZ ; std::_Tree<std::_Tmap_traits<CActorInstance *,float,std::less<CActorInstance *>,std::allocator<std::pair<CActorInstance * const,float> >,0> >::~_Tree<std::_Tmap_traits<CActorInstance *,float,std::less<CActorInstance *>,std::allocator<std::pair<CActorInstance * const,float> >,0> >
PUBLIC	?SetMotionMode@CActorInstance@@QAEXH@Z		; CActorInstance::SetMotionMode
PUBLIC	?GetMotionMode@CActorInstance@@QAEHXZ		; CActorInstance::GetMotionMode
PUBLIC	?SetLoopMotion@CActorInstance@@QAEXKMM@Z	; CActorInstance::SetLoopMotion
PUBLIC	?InterceptOnceMotion@CActorInstance@@QAE_NKMIM@Z ; CActorInstance::InterceptOnceMotion
PUBLIC	?InterceptLoopMotion@CActorInstance@@QAE_NKM@Z	; CActorInstance::InterceptLoopMotion
PUBLIC	?PushOnceMotion@CActorInstance@@QAE_NKMM@Z	; CActorInstance::PushOnceMotion
PUBLIC	?PushLoopMotion@CActorInstance@@QAE_NKMM@Z	; CActorInstance::PushLoopMotion
PUBLIC	?SetMotionLoopCount@CActorInstance@@QAEXH@Z	; CActorInstance::SetMotionLoopCount
PUBLIC	?isLock@CActorInstance@@QAEHXZ			; CActorInstance::isLock
PUBLIC	?IsUsingSkill@CActorInstance@@QAEHXZ		; CActorInstance::IsUsingSkill
PUBLIC	?CanCancelSkill@CActorInstance@@QAEHXZ		; CActorInstance::CanCancelSkill
PUBLIC	?PreAttack@CActorInstance@@QAEXXZ		; CActorInstance::PreAttack
PUBLIC	?IsFishing@CActorInstance@@QAEHXZ		; CActorInstance::IsFishing
PUBLIC	?HORSE_MotionProcess@CActorInstance@@QAEXH@Z	; CActorInstance::HORSE_MotionProcess
PUBLIC	?MotionProcess@CActorInstance@@QAEXH@Z		; CActorInstance::MotionProcess
PUBLIC	?__MotionEventProcess@CActorInstance@@QAEXH@Z	; CActorInstance::__MotionEventProcess
PUBLIC	?front@?$deque@VCFlyTarget@@V?$allocator@VCFlyTarget@@@std@@@std@@QAEAAVCFlyTarget@@XZ ; std::deque<CFlyTarget,std::allocator<CFlyTarget> >::front
PUBLIC	?pop_front@?$deque@VCFlyTarget@@V?$allocator@VCFlyTarget@@@std@@@std@@QAEXXZ ; std::deque<CFlyTarget,std::allocator<CFlyTarget> >::pop_front
PUBLIC	?ReservingMotionProcess@CActorInstance@@IAEXXZ	; CActorInstance::ReservingMotionProcess
PUBLIC	?CurrentMotionProcess@CActorInstance@@IAEXXZ	; CActorInstance::CurrentMotionProcess
PUBLIC	?GetRandomMotionKey@CActorInstance@@IAEKK@Z	; CActorInstance::GetRandomMotionKey
PUBLIC	?GetLastMotionTime@CActorInstance@@IAEMM@Z	; CActorInstance::GetLastMotionTime
PUBLIC	?GetMotionDuration@CActorInstance@@IAEMK@Z	; CActorInstance::GetMotionDuration
PUBLIC	?InterceptMotion@CActorInstance@@IAE_NW4EMotionPushType@1@GMIM@Z ; CActorInstance::InterceptMotion
PUBLIC	?PushMotion@CActorInstance@@IAEXW4EMotionPushType@1@KMM@Z ; CActorInstance::PushMotion
PUBLIC	??0SSetMotionData@CActorInstance@@QAE@XZ	; CActorInstance::SSetMotionData::SSetMotionData
PUBLIC	?__SetMotion@CActorInstance@@IAEKABUSSetMotionData@1@K@Z ; CActorInstance::__SetMotion
PUBLIC	?__ClearMotion@CActorInstance@@IAEXXZ		; CActorInstance::__ClearMotion
PUBLIC	?__BindMotionData@CActorInstance@@IAE_NK@Z	; CActorInstance::__BindMotionData
PUBLIC	?__GetMotionType@CActorInstance@@IAEIXZ		; CActorInstance::__GetMotionType
PUBLIC	?__IsNeedFlyTargetMotion@CActorInstance@@IAE_NXZ ; CActorInstance::__IsNeedFlyTargetMotion
PUBLIC	?__HasMotionFlyEvent@CActorInstance@@IAE_NXZ	; CActorInstance::__HasMotionFlyEvent
PUBLIC	?__IsWaitMotion@CActorInstance@@IAE_NXZ		; CActorInstance::__IsWaitMotion
PUBLIC	?__IsMoveMotion@CActorInstance@@IAE_NXZ		; CActorInstance::__IsMoveMotion
PUBLIC	?__IsAttackMotion@CActorInstance@@IAE_NXZ	; CActorInstance::__IsAttackMotion
PUBLIC	?__IsComboAttackMotion@CActorInstance@@IAE_NXZ	; CActorInstance::__IsComboAttackMotion
PUBLIC	?__IsDamageMotion@CActorInstance@@IAE_NXZ	; CActorInstance::__IsDamageMotion
PUBLIC	?__IsKnockDownMotion@CActorInstance@@IAE_NXZ	; CActorInstance::__IsKnockDownMotion
PUBLIC	?__IsDieMotion@CActorInstance@@IAE_NXZ		; CActorInstance::__IsDieMotion
PUBLIC	?__IsStandUpMotion@CActorInstance@@IAE_NXZ	; CActorInstance::__IsStandUpMotion
PUBLIC	?__CanAttack@CActorInstance@@IAE_NXZ		; CActorInstance::__CanAttack
PUBLIC	?__CanNextComboAttack@CActorInstance@@IAE_NXZ	; CActorInstance::__CanNextComboAttack
PUBLIC	?__IsComboAttacking@CActorInstance@@IAE_NXZ	; CActorInstance::__IsComboAttacking
PUBLIC	?__GetCurrentMotionIndex@CActorInstance@@IAEGXZ	; CActorInstance::__GetCurrentMotionIndex
PUBLIC	?__GetCurrentMotionKey@CActorInstance@@IAEKXZ	; CActorInstance::__GetCurrentMotionKey
PUBLIC	?__GetLoopCount@CActorInstance@@IAEHXZ		; CActorInstance::__GetLoopCount
PUBLIC	?begin@?$deque@USReservingMotionNode@CActorInstance@@V?$allocator@USReservingMotionNode@CActorInstance@@@std@@@std@@QAE?AV?$_Deque_iterator@V?$_Deque_val@U?$_Deque_simple_types@USReservingMotionNode@CActorInstance@@@std@@@std@@@2@XZ ; std::deque<CActorInstance::SReservingMotionNode,std::allocator<CActorInstance::SReservingMotionNode> >::begin
PUBLIC	?end@?$deque@USReservingMotionNode@CActorInstance@@V?$allocator@USReservingMotionNode@CActorInstance@@@std@@@std@@QAE?AV?$_Deque_iterator@V?$_Deque_val@U?$_Deque_simple_types@USReservingMotionNode@CActorInstance@@@std@@@std@@@2@XZ ; std::deque<CActorInstance::SReservingMotionNode,std::allocator<CActorInstance::SReservingMotionNode> >::end
PUBLIC	??A?$deque@USReservingMotionNode@CActorInstance@@V?$allocator@USReservingMotionNode@CActorInstance@@@std@@@std@@QAEAAUSReservingMotionNode@CActorInstance@@I@Z ; std::deque<CActorInstance::SReservingMotionNode,std::allocator<CActorInstance::SReservingMotionNode> >::operator[]
PUBLIC	?front@?$deque@USReservingMotionNode@CActorInstance@@V?$allocator@USReservingMotionNode@CActorInstance@@@std@@@std@@QAEAAUSReservingMotionNode@CActorInstance@@XZ ; std::deque<CActorInstance::SReservingMotionNode,std::allocator<CActorInstance::SReservingMotionNode> >::front
PUBLIC	?pop_front@?$deque@USReservingMotionNode@CActorInstance@@V?$allocator@USReservingMotionNode@CActorInstance@@@std@@@std@@QAEXXZ ; std::deque<CActorInstance::SReservingMotionNode,std::allocator<CActorInstance::SReservingMotionNode> >::pop_front
PUBLIC	?pop_back@?$deque@USReservingMotionNode@CActorInstance@@V?$allocator@USReservingMotionNode@CActorInstance@@@std@@@std@@QAEXXZ ; std::deque<CActorInstance::SReservingMotionNode,std::allocator<CActorInstance::SReservingMotionNode> >::pop_back
PUBLIC	?_Xlen@?$deque@USReservingMotionNode@CActorInstance@@V?$allocator@USReservingMotionNode@CActorInstance@@@std@@@std@@ABEXXZ ; std::deque<CActorInstance::SReservingMotionNode,std::allocator<CActorInstance::SReservingMotionNode> >::_Xlen
PUBLIC	?_Growmap@?$deque@USReservingMotionNode@CActorInstance@@V?$allocator@USReservingMotionNode@CActorInstance@@@std@@@std@@AAEXI@Z ; std::deque<CActorInstance::SReservingMotionNode,std::allocator<CActorInstance::SReservingMotionNode> >::_Growmap
PUBLIC	?_Tidy@?$deque@USReservingMotionNode@CActorInstance@@V?$allocator@USReservingMotionNode@CActorInstance@@@std@@@std@@AAEXXZ ; std::deque<CActorInstance::SReservingMotionNode,std::allocator<CActorInstance::SReservingMotionNode> >::_Tidy
PUBLIC	?clear@?$_Tree@V?$_Tmap_traits@PBUSHitData@NRaceData@@V?$map@PAVCActorInstance@@MU?$less@PAVCActorInstance@@@std@@V?$allocator@U?$pair@QAVCActorInstance@@M@std@@@3@@std@@U?$less@PBUSHitData@NRaceData@@@4@V?$allocator@U?$pair@QBUSHitData@NRaceData@@V?$map@PAVCActorInstance@@MU?$less@PAVCActorInstance@@@std@@V?$allocator@U?$pair@QAVCActorInstance@@M@std@@@3@@std@@@std@@@4@$0A@@std@@@std@@QAEXXZ ; std::_Tree<std::_Tmap_traits<NRaceData::SHitData const *,std::map<CActorInstance *,float,std::less<CActorInstance *>,std::allocator<std::pair<CActorInstance * const,float> > >,std::less<NRaceData::SHitData const *>,std::allocator<std::pair<NRaceData::SHitData const * const,std::map<CActorInstance *,float,std::less<CActorInstance *>,std::allocator<std::pair<CActorInstance * const,float> > > > >,0> >::clear
PUBLIC	??D?$_Deque_const_iterator@V?$_Deque_val@U?$_Deque_simple_types@USReservingMotionNode@CActorInstance@@@std@@@std@@@std@@QBEABUSReservingMotionNode@CActorInstance@@XZ ; std::_Deque_const_iterator<std::_Deque_val<std::_Deque_simple_types<CActorInstance::SReservingMotionNode> > >::operator*
PUBLIC	?at@?$vector@USMotion@CRaceData@@V?$allocator@USMotion@CRaceData@@@std@@@std@@QBEABUSMotion@CRaceData@@I@Z ; std::vector<CRaceData::SMotion,std::allocator<CRaceData::SMotion> >::at
PUBLIC	?_Xrange@?$vector@USMotion@CRaceData@@V?$allocator@USMotion@CRaceData@@@std@@@std@@CAXXZ ; std::vector<CRaceData::SMotion,std::allocator<CRaceData::SMotion> >::_Xrange
PUBLIC	??$_Erase_tree@V?$allocator@U?$_Tree_node@U?$pair@QBUSHitData@NRaceData@@V?$map@PAVCActorInstance@@MU?$less@PAVCActorInstance@@@std@@V?$allocator@U?$pair@QAVCActorInstance@@M@std@@@3@@std@@@std@@PAX@std@@@std@@@?$_Tree_val@U?$_Tree_simple_types@U?$pair@QBUSHitData@NRaceData@@V?$map@PAVCActorInstance@@MU?$less@PAVCActorInstance@@@std@@V?$allocator@U?$pair@QAVCActorInstance@@M@std@@@3@@std@@@std@@@std@@@std@@QAEXAAV?$allocator@U?$_Tree_node@U?$pair@QBUSHitData@NRaceData@@V?$map@PAVCActorInstance@@MU?$less@PAVCActorInstance@@@std@@V?$allocator@U?$pair@QAVCActorInstance@@M@std@@@3@@std@@@std@@PAX@std@@@1@PAU?$_Tree_node@U?$pair@QBUSHitData@NRaceData@@V?$map@PAVCActorInstance@@MU?$less@PAVCActorInstance@@@std@@V?$allocator@U?$pair@QAVCActorInstance@@M@std@@@3@@std@@@std@@PAX@1@@Z ; std::_Tree_val<std::_Tree_simple_types<std::pair<NRaceData::SHitData const * const,std::map<CActorInstance *,float,std::less<CActorInstance *>,std::allocator<std::pair<CActorInstance * const,float> > > > > >::_Erase_tree<std::allocator<std::_Tree_node<std::pair<NRaceData::SHitData const * const,std::map<CActorInstance *,float,std::less<CActorInstance *>,std::allocator<std::pair<CActorInstance * const,float> > > >,void *> > >
PUBLIC	??$_Emplace_back_internal@ABUSReservingMotionNode@CActorInstance@@@?$deque@USReservingMotionNode@CActorInstance@@V?$allocator@USReservingMotionNode@CActorInstance@@@std@@@std@@AAEXABUSReservingMotionNode@CActorInstance@@@Z ; std::deque<CActorInstance::SReservingMotionNode,std::allocator<CActorInstance::SReservingMotionNode> >::_Emplace_back_internal<CActorInstance::SReservingMotionNode const &>
PUBLIC	??D?$_Deque_unchecked_const_iterator@V?$_Deque_val@U?$_Deque_simple_types@USReservingMotionNode@CActorInstance@@@std@@@std@@@std@@QBEABUSReservingMotionNode@CActorInstance@@XZ ; std::_Deque_unchecked_const_iterator<std::_Deque_val<std::_Deque_simple_types<CActorInstance::SReservingMotionNode> > >::operator*
PUBLIC	??D?$_Deque_unchecked_const_iterator@V?$_Deque_val@U?$_Deque_simple_types@VCFlyTarget@@@std@@@std@@@std@@QBEABVCFlyTarget@@XZ ; std::_Deque_unchecked_const_iterator<std::_Deque_val<std::_Deque_simple_types<CFlyTarget> > >::operator*
PUBLIC	??0?$CDynamicPoolEx@VCRotationDecorator@NEffectUpdateDecorator@@@@QAE@XZ ; CDynamicPoolEx<NEffectUpdateDecorator::CRotationDecorator>::CDynamicPoolEx<NEffectUpdateDecorator::CRotationDecorator>
PUBLIC	??1?$CDynamicPoolEx@VCRotationDecorator@NEffectUpdateDecorator@@@@UAE@XZ ; CDynamicPoolEx<NEffectUpdateDecorator::CRotationDecorator>::~CDynamicPoolEx<NEffectUpdateDecorator::CRotationDecorator>
PUBLIC	?Destroy@?$CDynamicPoolEx@VCRotationDecorator@NEffectUpdateDecorator@@@@QAEXXZ ; CDynamicPoolEx<NEffectUpdateDecorator::CRotationDecorator>::Destroy
PUBLIC	?Delete@?$CDynamicPoolEx@VCRotationDecorator@NEffectUpdateDecorator@@@@KAXPAVCRotationDecorator@NEffectUpdateDecorator@@@Z ; CDynamicPoolEx<NEffectUpdateDecorator::CRotationDecorator>::Delete
PUBLIC	?clear@?$vector@PAVCRotationDecorator@NEffectUpdateDecorator@@V?$allocator@PAVCRotationDecorator@NEffectUpdateDecorator@@@std@@@std@@QAEXXZ ; std::vector<NEffectUpdateDecorator::CRotationDecorator *,std::allocator<NEffectUpdateDecorator::CRotationDecorator *> >::clear
PUBLIC	?_Tidy@?$vector@PAVCRotationDecorator@NEffectUpdateDecorator@@V?$allocator@PAVCRotationDecorator@NEffectUpdateDecorator@@@std@@@std@@AAEXXZ ; std::vector<NEffectUpdateDecorator::CRotationDecorator *,std::allocator<NEffectUpdateDecorator::CRotationDecorator *> >::_Tidy
PUBLIC	??_G?$CDynamicPoolEx@VCRotationDecorator@NEffectUpdateDecorator@@@@UAEPAXI@Z ; CDynamicPoolEx<NEffectUpdateDecorator::CRotationDecorator>::`scalar deleting destructor'
PUBLIC	??0?$CDynamicPoolEx@VCGravityDecorator@NEffectUpdateDecorator@@@@QAE@XZ ; CDynamicPoolEx<NEffectUpdateDecorator::CGravityDecorator>::CDynamicPoolEx<NEffectUpdateDecorator::CGravityDecorator>
PUBLIC	??1?$CDynamicPoolEx@VCGravityDecorator@NEffectUpdateDecorator@@@@UAE@XZ ; CDynamicPoolEx<NEffectUpdateDecorator::CGravityDecorator>::~CDynamicPoolEx<NEffectUpdateDecorator::CGravityDecorator>
PUBLIC	?Destroy@?$CDynamicPoolEx@VCGravityDecorator@NEffectUpdateDecorator@@@@QAEXXZ ; CDynamicPoolEx<NEffectUpdateDecorator::CGravityDecorator>::Destroy
PUBLIC	?Delete@?$CDynamicPoolEx@VCGravityDecorator@NEffectUpdateDecorator@@@@KAXPAVCGravityDecorator@NEffectUpdateDecorator@@@Z ; CDynamicPoolEx<NEffectUpdateDecorator::CGravityDecorator>::Delete
PUBLIC	?clear@?$vector@PAVCGravityDecorator@NEffectUpdateDecorator@@V?$allocator@PAVCGravityDecorator@NEffectUpdateDecorator@@@std@@@std@@QAEXXZ ; std::vector<NEffectUpdateDecorator::CGravityDecorator *,std::allocator<NEffectUpdateDecorator::CGravityDecorator *> >::clear
PUBLIC	?_Tidy@?$vector@PAVCGravityDecorator@NEffectUpdateDecorator@@V?$allocator@PAVCGravityDecorator@NEffectUpdateDecorator@@@std@@@std@@AAEXXZ ; std::vector<NEffectUpdateDecorator::CGravityDecorator *,std::allocator<NEffectUpdateDecorator::CGravityDecorator *> >::_Tidy
PUBLIC	??_G?$CDynamicPoolEx@VCGravityDecorator@NEffectUpdateDecorator@@@@UAEPAXI@Z ; CDynamicPoolEx<NEffectUpdateDecorator::CGravityDecorator>::`scalar deleting destructor'
PUBLIC	??0?$CDynamicPoolEx@VCAirResistanceDecorator@NEffectUpdateDecorator@@@@QAE@XZ ; CDynamicPoolEx<NEffectUpdateDecorator::CAirResistanceDecorator>::CDynamicPoolEx<NEffectUpdateDecorator::CAirResistanceDecorator>
PUBLIC	??1?$CDynamicPoolEx@VCAirResistanceDecorator@NEffectUpdateDecorator@@@@UAE@XZ ; CDynamicPoolEx<NEffectUpdateDecorator::CAirResistanceDecorator>::~CDynamicPoolEx<NEffectUpdateDecorator::CAirResistanceDecorator>
PUBLIC	?Destroy@?$CDynamicPoolEx@VCAirResistanceDecorator@NEffectUpdateDecorator@@@@QAEXXZ ; CDynamicPoolEx<NEffectUpdateDecorator::CAirResistanceDecorator>::Destroy
PUBLIC	?Delete@?$CDynamicPoolEx@VCAirResistanceDecorator@NEffectUpdateDecorator@@@@KAXPAVCAirResistanceDecorator@NEffectUpdateDecorator@@@Z ; CDynamicPoolEx<NEffectUpdateDecorator::CAirResistanceDecorator>::Delete
PUBLIC	?clear@?$vector@PAVCAirResistanceDecorator@NEffectUpdateDecorator@@V?$allocator@PAVCAirResistanceDecorator@NEffectUpdateDecorator@@@std@@@std@@QAEXXZ ; std::vector<NEffectUpdateDecorator::CAirResistanceDecorator *,std::allocator<NEffectUpdateDecorator::CAirResistanceDecorator *> >::clear
PUBLIC	?_Tidy@?$vector@PAVCAirResistanceDecorator@NEffectUpdateDecorator@@V?$allocator@PAVCAirResistanceDecorator@NEffectUpdateDecorator@@@std@@@std@@AAEXXZ ; std::vector<NEffectUpdateDecorator::CAirResistanceDecorator *,std::allocator<NEffectUpdateDecorator::CAirResistanceDecorator *> >::_Tidy
PUBLIC	??_G?$CDynamicPoolEx@VCAirResistanceDecorator@NEffectUpdateDecorator@@@@UAEPAXI@Z ; CDynamicPoolEx<NEffectUpdateDecorator::CAirResistanceDecorator>::`scalar deleting destructor'
PUBLIC	??0?$CDynamicPoolEx@VCTextureAnimationRandomDecorator@NEffectUpdateDecorator@@@@QAE@XZ ; CDynamicPoolEx<NEffectUpdateDecorator::CTextureAnimationRandomDecorator>::CDynamicPoolEx<NEffectUpdateDecorator::CTextureAnimationRandomDecorator>
PUBLIC	??1?$CDynamicPoolEx@VCTextureAnimationRandomDecorator@NEffectUpdateDecorator@@@@UAE@XZ ; CDynamicPoolEx<NEffectUpdateDecorator::CTextureAnimationRandomDecorator>::~CDynamicPoolEx<NEffectUpdateDecorator::CTextureAnimationRandomDecorator>
PUBLIC	?Destroy@?$CDynamicPoolEx@VCTextureAnimationRandomDecorator@NEffectUpdateDecorator@@@@QAEXXZ ; CDynamicPoolEx<NEffectUpdateDecorator::CTextureAnimationRandomDecorator>::Destroy
PUBLIC	?Delete@?$CDynamicPoolEx@VCTextureAnimationRandomDecorator@NEffectUpdateDecorator@@@@KAXPAVCTextureAnimationRandomDecorator@NEffectUpdateDecorator@@@Z ; CDynamicPoolEx<NEffectUpdateDecorator::CTextureAnimationRandomDecorator>::Delete
PUBLIC	?clear@?$vector@PAVCTextureAnimationRandomDecorator@NEffectUpdateDecorator@@V?$allocator@PAVCTextureAnimationRandomDecorator@NEffectUpdateDecorator@@@std@@@std@@QAEXXZ ; std::vector<NEffectUpdateDecorator::CTextureAnimationRandomDecorator *,std::allocator<NEffectUpdateDecorator::CTextureAnimationRandomDecorator *> >::clear
PUBLIC	?_Tidy@?$vector@PAVCTextureAnimationRandomDecorator@NEffectUpdateDecorator@@V?$allocator@PAVCTextureAnimationRandomDecorator@NEffectUpdateDecorator@@@std@@@std@@AAEXXZ ; std::vector<NEffectUpdateDecorator::CTextureAnimationRandomDecorator *,std::allocator<NEffectUpdateDecorator::CTextureAnimationRandomDecorator *> >::_Tidy
PUBLIC	??_G?$CDynamicPoolEx@VCTextureAnimationRandomDecorator@NEffectUpdateDecorator@@@@UAEPAXI@Z ; CDynamicPoolEx<NEffectUpdateDecorator::CTextureAnimationRandomDecorator>::`scalar deleting destructor'
PUBLIC	??0?$CDynamicPoolEx@VCTextureAnimationCCWDecorator@NEffectUpdateDecorator@@@@QAE@XZ ; CDynamicPoolEx<NEffectUpdateDecorator::CTextureAnimationCCWDecorator>::CDynamicPoolEx<NEffectUpdateDecorator::CTextureAnimationCCWDecorator>
PUBLIC	??1?$CDynamicPoolEx@VCTextureAnimationCCWDecorator@NEffectUpdateDecorator@@@@UAE@XZ ; CDynamicPoolEx<NEffectUpdateDecorator::CTextureAnimationCCWDecorator>::~CDynamicPoolEx<NEffectUpdateDecorator::CTextureAnimationCCWDecorator>
PUBLIC	?Destroy@?$CDynamicPoolEx@VCTextureAnimationCCWDecorator@NEffectUpdateDecorator@@@@QAEXXZ ; CDynamicPoolEx<NEffectUpdateDecorator::CTextureAnimationCCWDecorator>::Destroy
PUBLIC	?Delete@?$CDynamicPoolEx@VCTextureAnimationCCWDecorator@NEffectUpdateDecorator@@@@KAXPAVCTextureAnimationCCWDecorator@NEffectUpdateDecorator@@@Z ; CDynamicPoolEx<NEffectUpdateDecorator::CTextureAnimationCCWDecorator>::Delete
PUBLIC	?clear@?$vector@PAVCTextureAnimationCCWDecorator@NEffectUpdateDecorator@@V?$allocator@PAVCTextureAnimationCCWDecorator@NEffectUpdateDecorator@@@std@@@std@@QAEXXZ ; std::vector<NEffectUpdateDecorator::CTextureAnimationCCWDecorator *,std::allocator<NEffectUpdateDecorator::CTextureAnimationCCWDecorator *> >::clear
PUBLIC	?_Tidy@?$vector@PAVCTextureAnimationCCWDecorator@NEffectUpdateDecorator@@V?$allocator@PAVCTextureAnimationCCWDecorator@NEffectUpdateDecorator@@@std@@@std@@AAEXXZ ; std::vector<NEffectUpdateDecorator::CTextureAnimationCCWDecorator *,std::allocator<NEffectUpdateDecorator::CTextureAnimationCCWDecorator *> >::_Tidy
PUBLIC	??_G?$CDynamicPoolEx@VCTextureAnimationCCWDecorator@NEffectUpdateDecorator@@@@UAEPAXI@Z ; CDynamicPoolEx<NEffectUpdateDecorator::CTextureAnimationCCWDecorator>::`scalar deleting destructor'
PUBLIC	??0?$CDynamicPoolEx@VCTextureAnimationCWDecorator@NEffectUpdateDecorator@@@@QAE@XZ ; CDynamicPoolEx<NEffectUpdateDecorator::CTextureAnimationCWDecorator>::CDynamicPoolEx<NEffectUpdateDecorator::CTextureAnimationCWDecorator>
PUBLIC	??1?$CDynamicPoolEx@VCTextureAnimationCWDecorator@NEffectUpdateDecorator@@@@UAE@XZ ; CDynamicPoolEx<NEffectUpdateDecorator::CTextureAnimationCWDecorator>::~CDynamicPoolEx<NEffectUpdateDecorator::CTextureAnimationCWDecorator>
PUBLIC	?Destroy@?$CDynamicPoolEx@VCTextureAnimationCWDecorator@NEffectUpdateDecorator@@@@QAEXXZ ; CDynamicPoolEx<NEffectUpdateDecorator::CTextureAnimationCWDecorator>::Destroy
PUBLIC	?Delete@?$CDynamicPoolEx@VCTextureAnimationCWDecorator@NEffectUpdateDecorator@@@@KAXPAVCTextureAnimationCWDecorator@NEffectUpdateDecorator@@@Z ; CDynamicPoolEx<NEffectUpdateDecorator::CTextureAnimationCWDecorator>::Delete
PUBLIC	?clear@?$vector@PAVCTextureAnimationCWDecorator@NEffectUpdateDecorator@@V?$allocator@PAVCTextureAnimationCWDecorator@NEffectUpdateDecorator@@@std@@@std@@QAEXXZ ; std::vector<NEffectUpdateDecorator::CTextureAnimationCWDecorator *,std::allocator<NEffectUpdateDecorator::CTextureAnimationCWDecorator *> >::clear
PUBLIC	?_Tidy@?$vector@PAVCTextureAnimationCWDecorator@NEffectUpdateDecorator@@V?$allocator@PAVCTextureAnimationCWDecorator@NEffectUpdateDecorator@@@std@@@std@@AAEXXZ ; std::vector<NEffectUpdateDecorator::CTextureAnimationCWDecorator *,std::allocator<NEffectUpdateDecorator::CTextureAnimationCWDecorator *> >::_Tidy
PUBLIC	??_G?$CDynamicPoolEx@VCTextureAnimationCWDecorator@NEffectUpdateDecorator@@@@UAEPAXI@Z ; CDynamicPoolEx<NEffectUpdateDecorator::CTextureAnimationCWDecorator>::`scalar deleting destructor'
PUBLIC	??0?$CDynamicPoolEx@VCNullDecorator@NEffectUpdateDecorator@@@@QAE@XZ ; CDynamicPoolEx<NEffectUpdateDecorator::CNullDecorator>::CDynamicPoolEx<NEffectUpdateDecorator::CNullDecorator>
PUBLIC	??1?$CDynamicPoolEx@VCNullDecorator@NEffectUpdateDecorator@@@@UAE@XZ ; CDynamicPoolEx<NEffectUpdateDecorator::CNullDecorator>::~CDynamicPoolEx<NEffectUpdateDecorator::CNullDecorator>
PUBLIC	?Destroy@?$CDynamicPoolEx@VCNullDecorator@NEffectUpdateDecorator@@@@QAEXXZ ; CDynamicPoolEx<NEffectUpdateDecorator::CNullDecorator>::Destroy
PUBLIC	?Delete@?$CDynamicPoolEx@VCNullDecorator@NEffectUpdateDecorator@@@@KAXPAVCNullDecorator@NEffectUpdateDecorator@@@Z ; CDynamicPoolEx<NEffectUpdateDecorator::CNullDecorator>::Delete
PUBLIC	?clear@?$vector@PAVCNullDecorator@NEffectUpdateDecorator@@V?$allocator@PAVCNullDecorator@NEffectUpdateDecorator@@@std@@@std@@QAEXXZ ; std::vector<NEffectUpdateDecorator::CNullDecorator *,std::allocator<NEffectUpdateDecorator::CNullDecorator *> >::clear
PUBLIC	?_Tidy@?$vector@PAVCNullDecorator@NEffectUpdateDecorator@@V?$allocator@PAVCNullDecorator@NEffectUpdateDecorator@@@std@@@std@@AAEXXZ ; std::vector<NEffectUpdateDecorator::CNullDecorator *,std::allocator<NEffectUpdateDecorator::CNullDecorator *> >::_Tidy
PUBLIC	??_G?$CDynamicPoolEx@VCNullDecorator@NEffectUpdateDecorator@@@@UAEPAXI@Z ; CDynamicPoolEx<NEffectUpdateDecorator::CNullDecorator>::`scalar deleting destructor'
PUBLIC	??0?$CDynamicPoolEx@VCHeaderDecorator@NEffectUpdateDecorator@@@@QAE@XZ ; CDynamicPoolEx<NEffectUpdateDecorator::CHeaderDecorator>::CDynamicPoolEx<NEffectUpdateDecorator::CHeaderDecorator>
PUBLIC	??1?$CDynamicPoolEx@VCHeaderDecorator@NEffectUpdateDecorator@@@@UAE@XZ ; CDynamicPoolEx<NEffectUpdateDecorator::CHeaderDecorator>::~CDynamicPoolEx<NEffectUpdateDecorator::CHeaderDecorator>
PUBLIC	?Destroy@?$CDynamicPoolEx@VCHeaderDecorator@NEffectUpdateDecorator@@@@QAEXXZ ; CDynamicPoolEx<NEffectUpdateDecorator::CHeaderDecorator>::Destroy
PUBLIC	?Delete@?$CDynamicPoolEx@VCHeaderDecorator@NEffectUpdateDecorator@@@@KAXPAVCHeaderDecorator@NEffectUpdateDecorator@@@Z ; CDynamicPoolEx<NEffectUpdateDecorator::CHeaderDecorator>::Delete
PUBLIC	?clear@?$vector@PAVCHeaderDecorator@NEffectUpdateDecorator@@V?$allocator@PAVCHeaderDecorator@NEffectUpdateDecorator@@@std@@@std@@QAEXXZ ; std::vector<NEffectUpdateDecorator::CHeaderDecorator *,std::allocator<NEffectUpdateDecorator::CHeaderDecorator *> >::clear
PUBLIC	?_Tidy@?$vector@PAVCHeaderDecorator@NEffectUpdateDecorator@@V?$allocator@PAVCHeaderDecorator@NEffectUpdateDecorator@@@std@@@std@@AAEXXZ ; std::vector<NEffectUpdateDecorator::CHeaderDecorator *,std::allocator<NEffectUpdateDecorator::CHeaderDecorator *> >::_Tidy
PUBLIC	??_G?$CDynamicPoolEx@VCHeaderDecorator@NEffectUpdateDecorator@@@@UAEPAXI@Z ; CDynamicPoolEx<NEffectUpdateDecorator::CHeaderDecorator>::`scalar deleting destructor'
PUBLIC	??$_Destroy_in_place@PAUSReservingMotionNode@CActorInstance@@@std@@YAXAAPAUSReservingMotionNode@CActorInstance@@@Z ; std::_Destroy_in_place<CActorInstance::SReservingMotionNode *>
PUBLIC	??$for_each@V?$_Vector_iterator@V?$_Vector_val@U?$_Simple_types@PAVCHeaderDecorator@NEffectUpdateDecorator@@@std@@@std@@@std@@P6AXPAVCHeaderDecorator@NEffectUpdateDecorator@@@Z@std@@YAP6AXPAVCHeaderDecorator@NEffectUpdateDecorator@@@ZV?$_Vector_iterator@V?$_Vector_val@U?$_Simple_types@PAVCHeaderDecorator@NEffectUpdateDecorator@@@std@@@std@@@0@1P6AX0@Z@Z ; std::for_each<std::_Vector_iterator<std::_Vector_val<std::_Simple_types<NEffectUpdateDecorator::CHeaderDecorator *> > >,void (__cdecl*)(NEffectUpdateDecorator::CHeaderDecorator *)>
PUBLIC	??$for_each@V?$_Vector_iterator@V?$_Vector_val@U?$_Simple_types@PAVCNullDecorator@NEffectUpdateDecorator@@@std@@@std@@@std@@P6AXPAVCNullDecorator@NEffectUpdateDecorator@@@Z@std@@YAP6AXPAVCNullDecorator@NEffectUpdateDecorator@@@ZV?$_Vector_iterator@V?$_Vector_val@U?$_Simple_types@PAVCNullDecorator@NEffectUpdateDecorator@@@std@@@std@@@0@1P6AX0@Z@Z ; std::for_each<std::_Vector_iterator<std::_Vector_val<std::_Simple_types<NEffectUpdateDecorator::CNullDecorator *> > >,void (__cdecl*)(NEffectUpdateDecorator::CNullDecorator *)>
PUBLIC	??$for_each@V?$_Vector_iterator@V?$_Vector_val@U?$_Simple_types@PAVCTextureAnimationCWDecorator@NEffectUpdateDecorator@@@std@@@std@@@std@@P6AXPAVCTextureAnimationCWDecorator@NEffectUpdateDecorator@@@Z@std@@YAP6AXPAVCTextureAnimationCWDecorator@NEffectUpdateDecorator@@@ZV?$_Vector_iterator@V?$_Vector_val@U?$_Simple_types@PAVCTextureAnimationCWDecorator@NEffectUpdateDecorator@@@std@@@std@@@0@1P6AX0@Z@Z ; std::for_each<std::_Vector_iterator<std::_Vector_val<std::_Simple_types<NEffectUpdateDecorator::CTextureAnimationCWDecorator *> > >,void (__cdecl*)(NEffectUpdateDecorator::CTextureAnimationCWDecorator *)>
PUBLIC	??$for_each@V?$_Vector_iterator@V?$_Vector_val@U?$_Simple_types@PAVCTextureAnimationCCWDecorator@NEffectUpdateDecorator@@@std@@@std@@@std@@P6AXPAVCTextureAnimationCCWDecorator@NEffectUpdateDecorator@@@Z@std@@YAP6AXPAVCTextureAnimationCCWDecorator@NEffectUpdateDecorator@@@ZV?$_Vector_iterator@V?$_Vector_val@U?$_Simple_types@PAVCTextureAnimationCCWDecorator@NEffectUpdateDecorator@@@std@@@std@@@0@1P6AX0@Z@Z ; std::for_each<std::_Vector_iterator<std::_Vector_val<std::_Simple_types<NEffectUpdateDecorator::CTextureAnimationCCWDecorator *> > >,void (__cdecl*)(NEffectUpdateDecorator::CTextureAnimationCCWDecorator *)>
PUBLIC	??$for_each@V?$_Vector_iterator@V?$_Vector_val@U?$_Simple_types@PAVCTextureAnimationRandomDecorator@NEffectUpdateDecorator@@@std@@@std@@@std@@P6AXPAVCTextureAnimationRandomDecorator@NEffectUpdateDecorator@@@Z@std@@YAP6AXPAVCTextureAnimationRandomDecorator@NEffectUpdateDecorator@@@ZV?$_Vector_iterator@V?$_Vector_val@U?$_Simple_types@PAVCTextureAnimationRandomDecorator@NEffectUpdateDecorator@@@std@@@std@@@0@1P6AX0@Z@Z ; std::for_each<std::_Vector_iterator<std::_Vector_val<std::_Simple_types<NEffectUpdateDecorator::CTextureAnimationRandomDecorator *> > >,void (__cdecl*)(NEffectUpdateDecorator::CTextureAnimationRandomDecorator *)>
PUBLIC	??$for_each@V?$_Vector_iterator@V?$_Vector_val@U?$_Simple_types@PAVCAirResistanceDecorator@NEffectUpdateDecorator@@@std@@@std@@@std@@P6AXPAVCAirResistanceDecorator@NEffectUpdateDecorator@@@Z@std@@YAP6AXPAVCAirResistanceDecorator@NEffectUpdateDecorator@@@ZV?$_Vector_iterator@V?$_Vector_val@U?$_Simple_types@PAVCAirResistanceDecorator@NEffectUpdateDecorator@@@std@@@std@@@0@1P6AX0@Z@Z ; std::for_each<std::_Vector_iterator<std::_Vector_val<std::_Simple_types<NEffectUpdateDecorator::CAirResistanceDecorator *> > >,void (__cdecl*)(NEffectUpdateDecorator::CAirResistanceDecorator *)>
PUBLIC	??$for_each@V?$_Vector_iterator@V?$_Vector_val@U?$_Simple_types@PAVCGravityDecorator@NEffectUpdateDecorator@@@std@@@std@@@std@@P6AXPAVCGravityDecorator@NEffectUpdateDecorator@@@Z@std@@YAP6AXPAVCGravityDecorator@NEffectUpdateDecorator@@@ZV?$_Vector_iterator@V?$_Vector_val@U?$_Simple_types@PAVCGravityDecorator@NEffectUpdateDecorator@@@std@@@std@@@0@1P6AX0@Z@Z ; std::for_each<std::_Vector_iterator<std::_Vector_val<std::_Simple_types<NEffectUpdateDecorator::CGravityDecorator *> > >,void (__cdecl*)(NEffectUpdateDecorator::CGravityDecorator *)>
PUBLIC	??$for_each@V?$_Vector_iterator@V?$_Vector_val@U?$_Simple_types@PAVCRotationDecorator@NEffectUpdateDecorator@@@std@@@std@@@std@@P6AXPAVCRotationDecorator@NEffectUpdateDecorator@@@Z@std@@YAP6AXPAVCRotationDecorator@NEffectUpdateDecorator@@@ZV?$_Vector_iterator@V?$_Vector_val@U?$_Simple_types@PAVCRotationDecorator@NEffectUpdateDecorator@@@std@@@std@@@0@1P6AX0@Z@Z ; std::for_each<std::_Vector_iterator<std::_Vector_val<std::_Simple_types<NEffectUpdateDecorator::CRotationDecorator *> > >,void (__cdecl*)(NEffectUpdateDecorator::CRotationDecorator *)>
PUBLIC	??$_Destroy_range@V?$allocator@PAVCHeaderDecorator@NEffectUpdateDecorator@@@std@@@std@@YAXPAPAVCHeaderDecorator@NEffectUpdateDecorator@@QAPAV12@AAV?$allocator@PAVCHeaderDecorator@NEffectUpdateDecorator@@@0@@Z ; std::_Destroy_range<std::allocator<NEffectUpdateDecorator::CHeaderDecorator *> >
PUBLIC	??$_Destroy_range@V?$allocator@PAVCNullDecorator@NEffectUpdateDecorator@@@std@@@std@@YAXPAPAVCNullDecorator@NEffectUpdateDecorator@@QAPAV12@AAV?$allocator@PAVCNullDecorator@NEffectUpdateDecorator@@@0@@Z ; std::_Destroy_range<std::allocator<NEffectUpdateDecorator::CNullDecorator *> >
PUBLIC	??$_Destroy_range@V?$allocator@PAVCTextureAnimationCWDecorator@NEffectUpdateDecorator@@@std@@@std@@YAXPAPAVCTextureAnimationCWDecorator@NEffectUpdateDecorator@@QAPAV12@AAV?$allocator@PAVCTextureAnimationCWDecorator@NEffectUpdateDecorator@@@0@@Z ; std::_Destroy_range<std::allocator<NEffectUpdateDecorator::CTextureAnimationCWDecorator *> >
PUBLIC	??$_Destroy_range@V?$allocator@PAVCTextureAnimationCCWDecorator@NEffectUpdateDecorator@@@std@@@std@@YAXPAPAVCTextureAnimationCCWDecorator@NEffectUpdateDecorator@@QAPAV12@AAV?$allocator@PAVCTextureAnimationCCWDecorator@NEffectUpdateDecorator@@@0@@Z ; std::_Destroy_range<std::allocator<NEffectUpdateDecorator::CTextureAnimationCCWDecorator *> >
PUBLIC	??$_Destroy_range@V?$allocator@PAVCTextureAnimationRandomDecorator@NEffectUpdateDecorator@@@std@@@std@@YAXPAPAVCTextureAnimationRandomDecorator@NEffectUpdateDecorator@@QAPAV12@AAV?$allocator@PAVCTextureAnimationRandomDecorator@NEffectUpdateDecorator@@@0@@Z ; std::_Destroy_range<std::allocator<NEffectUpdateDecorator::CTextureAnimationRandomDecorator *> >
PUBLIC	??$_Destroy_range@V?$allocator@PAVCAirResistanceDecorator@NEffectUpdateDecorator@@@std@@@std@@YAXPAPAVCAirResistanceDecorator@NEffectUpdateDecorator@@QAPAV12@AAV?$allocator@PAVCAirResistanceDecorator@NEffectUpdateDecorator@@@0@@Z ; std::_Destroy_range<std::allocator<NEffectUpdateDecorator::CAirResistanceDecorator *> >
PUBLIC	??$_Destroy_range@V?$allocator@PAVCGravityDecorator@NEffectUpdateDecorator@@@std@@@std@@YAXPAPAVCGravityDecorator@NEffectUpdateDecorator@@QAPAV12@AAV?$allocator@PAVCGravityDecorator@NEffectUpdateDecorator@@@0@@Z ; std::_Destroy_range<std::allocator<NEffectUpdateDecorator::CGravityDecorator *> >
PUBLIC	??$_Destroy_range@V?$allocator@PAVCRotationDecorator@NEffectUpdateDecorator@@@std@@@std@@YAXPAPAVCRotationDecorator@NEffectUpdateDecorator@@QAPAV12@AAV?$allocator@PAVCRotationDecorator@NEffectUpdateDecorator@@@0@@Z ; std::_Destroy_range<std::allocator<NEffectUpdateDecorator::CRotationDecorator *> >
PUBLIC	??$_Freenode@V?$allocator@U?$_Tree_node@U?$pair@QBUSHitData@NRaceData@@V?$map@PAVCActorInstance@@MU?$less@PAVCActorInstance@@@std@@V?$allocator@U?$pair@QAVCActorInstance@@M@std@@@3@@std@@@std@@PAX@std@@@std@@@?$_Tree_node@U?$pair@QBUSHitData@NRaceData@@V?$map@PAVCActorInstance@@MU?$less@PAVCActorInstance@@@std@@V?$allocator@U?$pair@QAVCActorInstance@@M@std@@@3@@std@@@std@@PAX@std@@SAXAAV?$allocator@U?$_Tree_node@U?$pair@QBUSHitData@NRaceData@@V?$map@PAVCActorInstance@@MU?$less@PAVCActorInstance@@@std@@V?$allocator@U?$pair@QAVCActorInstance@@M@std@@@3@@std@@@std@@PAX@std@@@1@PAU01@@Z ; std::_Tree_node<std::pair<NRaceData::SHitData const * const,std::map<CActorInstance *,float,std::less<CActorInstance *>,std::allocator<std::pair<CActorInstance * const,float> > > >,void *>::_Freenode<std::allocator<std::_Tree_node<std::pair<NRaceData::SHitData const * const,std::map<CActorInstance *,float,std::less<CActorInstance *>,std::allocator<std::pair<CActorInstance * const,float> > > >,void *> > >
PUBLIC	??$uninitialized_copy@PAPAUSReservingMotionNode@CActorInstance@@PAPAU12@@std@@YAPAPAUSReservingMotionNode@CActorInstance@@QAPAU12@0PAPAU12@@Z ; std::uninitialized_copy<CActorInstance::SReservingMotionNode * *,CActorInstance::SReservingMotionNode * *>
PUBLIC	??$_Uninitialized_value_construct_n_unchecked1@PAPAUSReservingMotionNode@CActorInstance@@I@std@@YAPAPAUSReservingMotionNode@CActorInstance@@PAPAU12@I@Z ; std::_Uninitialized_value_construct_n_unchecked1<CActorInstance::SReservingMotionNode * *,unsigned int>
PUBLIC	??$_Destroy_range@PAPAUSReservingMotionNode@CActorInstance@@PAPAU12@@std@@YAXPAPAUSReservingMotionNode@CActorInstance@@QAPAU12@@Z ; std::_Destroy_range<CActorInstance::SReservingMotionNode * *,CActorInstance::SReservingMotionNode * *>
PUBLIC	??$_Freenode0@V?$allocator@U?$_Tree_node@U?$pair@QBUSHitData@NRaceData@@V?$map@PAVCActorInstance@@MU?$less@PAVCActorInstance@@@std@@V?$allocator@U?$pair@QAVCActorInstance@@M@std@@@3@@std@@@std@@PAX@std@@@std@@@?$_Tree_node@U?$pair@QBUSHitData@NRaceData@@V?$map@PAVCActorInstance@@MU?$less@PAVCActorInstance@@@std@@V?$allocator@U?$pair@QAVCActorInstance@@M@std@@@3@@std@@@std@@PAX@std@@SAXAAV?$allocator@U?$_Tree_node@U?$pair@QBUSHitData@NRaceData@@V?$map@PAVCActorInstance@@MU?$less@PAVCActorInstance@@@std@@V?$allocator@U?$pair@QAVCActorInstance@@M@std@@@3@@std@@@std@@PAX@std@@@1@PAU01@@Z ; std::_Tree_node<std::pair<NRaceData::SHitData const * const,std::map<CActorInstance *,float,std::less<CActorInstance *>,std::allocator<std::pair<CActorInstance * const,float> > > >,void *>::_Freenode0<std::allocator<std::_Tree_node<std::pair<NRaceData::SHitData const * const,std::map<CActorInstance *,float,std::less<CActorInstance *>,std::allocator<std::pair<CActorInstance * const,float> > > >,void *> > >
PUBLIC	??$_Copy_memmove@PAPAUSReservingMotionNode@CActorInstance@@PAPAU12@@std@@YAPAPAUSReservingMotionNode@CActorInstance@@PAPAU12@00@Z ; std::_Copy_memmove<CActorInstance::SReservingMotionNode * *,CActorInstance::SReservingMotionNode * *>
PUBLIC	??$_Zero_range@PAPAUSReservingMotionNode@CActorInstance@@@std@@YAPAPAUSReservingMotionNode@CActorInstance@@QAPAU12@0@Z ; std::_Zero_range<CActorInstance::SReservingMotionNode * *>
PUBLIC	??$_Destroy_in_place@PAU?$_Tree_node@U?$pair@QBUSHitData@NRaceData@@V?$map@PAVCActorInstance@@MU?$less@PAVCActorInstance@@@std@@V?$allocator@U?$pair@QAVCActorInstance@@M@std@@@3@@std@@@std@@PAX@std@@@std@@YAXAAPAU?$_Tree_node@U?$pair@QBUSHitData@NRaceData@@V?$map@PAVCActorInstance@@MU?$less@PAVCActorInstance@@@std@@V?$allocator@U?$pair@QAVCActorInstance@@M@std@@@3@@std@@@std@@PAX@0@@Z ; std::_Destroy_in_place<std::_Tree_node<std::pair<NRaceData::SHitData const * const,std::map<CActorInstance *,float,std::less<CActorInstance *>,std::allocator<std::pair<CActorInstance * const,float> > > >,void *> *>
PUBLIC	??$_Erase_tree@V?$allocator@U?$_Tree_node@U?$pair@QAVCActorInstance@@M@std@@PAX@std@@@std@@@?$_Tree_val@U?$_Tree_simple_types@U?$pair@QAVCActorInstance@@M@std@@@std@@@std@@QAEXAAV?$allocator@U?$_Tree_node@U?$pair@QAVCActorInstance@@M@std@@PAX@std@@@1@PAU?$_Tree_node@U?$pair@QAVCActorInstance@@M@std@@PAX@1@@Z ; std::_Tree_val<std::_Tree_simple_types<std::pair<CActorInstance * const,float> > >::_Erase_tree<std::allocator<std::_Tree_node<std::pair<CActorInstance * const,float>,void *> > >
PUBLIC	??$_Freenode0@V?$allocator@U?$_Tree_node@U?$pair@QAVCActorInstance@@M@std@@PAX@std@@@std@@@?$_Tree_node@U?$pair@QAVCActorInstance@@M@std@@PAX@std@@SAXAAV?$allocator@U?$_Tree_node@U?$pair@QAVCActorInstance@@M@std@@PAX@std@@@1@PAU01@@Z ; std::_Tree_node<std::pair<CActorInstance * const,float>,void *>::_Freenode0<std::allocator<std::_Tree_node<std::pair<CActorInstance * const,float>,void *> > >
PUBLIC	??$_Destroy_in_place@PAU?$_Tree_node@U?$pair@QAVCActorInstance@@M@std@@PAX@std@@@std@@YAXAAPAU?$_Tree_node@U?$pair@QAVCActorInstance@@M@std@@PAX@0@@Z ; std::_Destroy_in_place<std::_Tree_node<std::pair<CActorInstance * const,float>,void *> *>
PUBLIC	??_7exception@std@@6B@				; std::exception::`vftable'
PUBLIC	??_C@_0BC@EOODALEL@Unknown?5exception@		; `string'
PUBLIC	??_7bad_alloc@std@@6B@				; std::bad_alloc::`vftable'
PUBLIC	??_7bad_array_new_length@std@@6B@		; std::bad_array_new_length::`vftable'
PUBLIC	??_C@_0BF@KINCDENJ@bad?5array?5new?5length@	; `string'
PUBLIC	__TI3?AVbad_array_new_length@std@@
PUBLIC	__CTA3?AVbad_array_new_length@std@@
PUBLIC	??_R0?AVbad_array_new_length@std@@@8		; std::bad_array_new_length `RTTI Type Descriptor'
PUBLIC	__CT??_R0?AVbad_array_new_length@std@@@8??0bad_array_new_length@std@@QAE@ABV01@@Z12
PUBLIC	??_R0?AVbad_alloc@std@@@8			; std::bad_alloc `RTTI Type Descriptor'
PUBLIC	__CT??_R0?AVbad_alloc@std@@@8??0bad_alloc@std@@QAE@ABV01@@Z12
PUBLIC	??_R0?AVexception@std@@@8			; std::exception `RTTI Type Descriptor'
PUBLIC	__CT??_R0?AVexception@std@@@8??0exception@std@@QAE@ABV01@@Z12
PUBLIC	??_R4exception@std@@6B@				; std::exception::`RTTI Complete Object Locator'
PUBLIC	??_R3exception@std@@8				; std::exception::`RTTI Class Hierarchy Descriptor'
PUBLIC	??_R2exception@std@@8				; std::exception::`RTTI Base Class Array'
PUBLIC	??_R1A@?0A@EA@exception@std@@8			; std::exception::`RTTI Base Class Descriptor at (0,-1,0,64)'
PUBLIC	??_R4bad_alloc@std@@6B@				; std::bad_alloc::`RTTI Complete Object Locator'
PUBLIC	??_R3bad_alloc@std@@8				; std::bad_alloc::`RTTI Class Hierarchy Descriptor'
PUBLIC	??_R2bad_alloc@std@@8				; std::bad_alloc::`RTTI Base Class Array'
PUBLIC	??_R1A@?0A@EA@bad_alloc@std@@8			; std::bad_alloc::`RTTI Base Class Descriptor at (0,-1,0,64)'
PUBLIC	??_R4bad_array_new_length@std@@6B@		; std::bad_array_new_length::`RTTI Complete Object Locator'
PUBLIC	??_R3bad_array_new_length@std@@8		; std::bad_array_new_length::`RTTI Class Hierarchy Descriptor'
PUBLIC	??_R2bad_array_new_length@std@@8		; std::bad_array_new_length::`RTTI Base Class Array'
PUBLIC	??_R1A@?0A@EA@bad_array_new_length@std@@8	; std::bad_array_new_length::`RTTI Base Class Descriptor at (0,-1,0,64)'
PUBLIC	?ms_kPool@?$CPooledObject@VCHeaderDecorator@NEffectUpdateDecorator@@@@1V?$CDynamicPoolEx@VCHeaderDecorator@NEffectUpdateDecorator@@@@A ; CPooledObject<NEffectUpdateDecorator::CHeaderDecorator>::ms_kPool
PUBLIC	?ms_kPool@?$CPooledObject@VCNullDecorator@NEffectUpdateDecorator@@@@1V?$CDynamicPoolEx@VCNullDecorator@NEffectUpdateDecorator@@@@A ; CPooledObject<NEffectUpdateDecorator::CNullDecorator>::ms_kPool
PUBLIC	?ms_kPool@?$CPooledObject@VCTextureAnimationCWDecorator@NEffectUpdateDecorator@@@@1V?$CDynamicPoolEx@VCTextureAnimationCWDecorator@NEffectUpdateDecorator@@@@A ; CPooledObject<NEffectUpdateDecorator::CTextureAnimationCWDecorator>::ms_kPool
PUBLIC	?ms_kPool@?$CPooledObject@VCTextureAnimationCCWDecorator@NEffectUpdateDecorator@@@@1V?$CDynamicPoolEx@VCTextureAnimationCCWDecorator@NEffectUpdateDecorator@@@@A ; CPooledObject<NEffectUpdateDecorator::CTextureAnimationCCWDecorator>::ms_kPool
PUBLIC	?ms_kPool@?$CPooledObject@VCTextureAnimationRandomDecorator@NEffectUpdateDecorator@@@@1V?$CDynamicPoolEx@VCTextureAnimationRandomDecorator@NEffectUpdateDecorator@@@@A ; CPooledObject<NEffectUpdateDecorator::CTextureAnimationRandomDecorator>::ms_kPool
PUBLIC	?ms_kPool@?$CPooledObject@VCAirResistanceDecorator@NEffectUpdateDecorator@@@@1V?$CDynamicPoolEx@VCAirResistanceDecorator@NEffectUpdateDecorator@@@@A ; CPooledObject<NEffectUpdateDecorator::CAirResistanceDecorator>::ms_kPool
PUBLIC	?ms_kPool@?$CPooledObject@VCGravityDecorator@NEffectUpdateDecorator@@@@1V?$CDynamicPoolEx@VCGravityDecorator@NEffectUpdateDecorator@@@@A ; CPooledObject<NEffectUpdateDecorator::CGravityDecorator>::ms_kPool
PUBLIC	?ms_kPool@?$CPooledObject@VCRotationDecorator@NEffectUpdateDecorator@@@@1V?$CDynamicPoolEx@VCRotationDecorator@NEffectUpdateDecorator@@@@A ; CPooledObject<NEffectUpdateDecorator::CRotationDecorator>::ms_kPool
PUBLIC	?ms_singleton@?$CSingleton@VCEffectManager@@@@0PAVCEffectManager@@A ; CSingleton<CEffectManager>::ms_singleton
PUBLIC	??_C@_0CO@FPMNJLLG@?5Error?5?9?5Not?5found?5want?5to?5usin@ ; `string'
PUBLIC	??_C@_0EK@IFOPNGGO@CActorInstance?3?3SetLoopMotion?$CId@ ; `string'
PUBLIC	??_C@_0IN@JKOADFII@CActorInstance?3?3SetLoopMotion?$CId@ ; `string'
PUBLIC	??_C@_0GC@LNLDMJJ@CActorInstance?3?3InterceptMotion@ ; `string'
PUBLIC	??_C@_0JL@GEIDCHAJ@CActorInstance?3?3InterceptMotion@ ; `string'
PUBLIC	??_C@_0DP@CBIMEEGJ@CActorInstance?3?3GetMotionDurati@ ; `string'
PUBLIC	??_C@_0DH@FBKOGHDC@?A?V?$MA?N?$LA?x?$MA?L?5?$LO?F?$LE?O?$LG?s?$LI?i?5?$MA?L?$LF?$LP?A?$NP?$MA?L?$LG?s?5?$LF?$KF@ ; `string'
PUBLIC	??_C@_0BH@MJFHAINF@Failed?5to?5bind?5motion?4@	; `string'
PUBLIC	??_C@_0DP@MJFILIBP@CActorInstance?3?3__GetLoopCount?$CI@ ; `string'
PUBLIC	??_C@_0DM@CHLCPNIC@CActorInstance?3?3__CanAttack?$CI?$CJ?5?9@ ; `string'
PUBLIC	??_C@_0EF@EBECGAL@CActorInstance?3?3__CanNextComboA@ ; `string'
PUBLIC	??_7?$CDynamicPoolEx@VCRotationDecorator@NEffectUpdateDecorator@@@@6B@ ; CDynamicPoolEx<NEffectUpdateDecorator::CRotationDecorator>::`vftable'
PUBLIC	??_7?$CDynamicPoolEx@VCGravityDecorator@NEffectUpdateDecorator@@@@6B@ ; CDynamicPoolEx<NEffectUpdateDecorator::CGravityDecorator>::`vftable'
PUBLIC	??_7?$CDynamicPoolEx@VCAirResistanceDecorator@NEffectUpdateDecorator@@@@6B@ ; CDynamicPoolEx<NEffectUpdateDecorator::CAirResistanceDecorator>::`vftable'
PUBLIC	??_7?$CDynamicPoolEx@VCTextureAnimationRandomDecorator@NEffectUpdateDecorator@@@@6B@ ; CDynamicPoolEx<NEffectUpdateDecorator::CTextureAnimationRandomDecorator>::`vftable'
PUBLIC	??_7?$CDynamicPoolEx@VCTextureAnimationCCWDecorator@NEffectUpdateDecorator@@@@6B@ ; CDynamicPoolEx<NEffectUpdateDecorator::CTextureAnimationCCWDecorator>::`vftable'
PUBLIC	??_7?$CDynamicPoolEx@VCTextureAnimationCWDecorator@NEffectUpdateDecorator@@@@6B@ ; CDynamicPoolEx<NEffectUpdateDecorator::CTextureAnimationCWDecorator>::`vftable'
PUBLIC	??_7?$CDynamicPoolEx@VCNullDecorator@NEffectUpdateDecorator@@@@6B@ ; CDynamicPoolEx<NEffectUpdateDecorator::CNullDecorator>::`vftable'
PUBLIC	??_7?$CDynamicPoolEx@VCHeaderDecorator@NEffectUpdateDecorator@@@@6B@ ; CDynamicPoolEx<NEffectUpdateDecorator::CHeaderDecorator>::`vftable'
PUBLIC	??_C@_0BJ@DHFDPMIM@invalid?5vector?5subscript@	; `string'
PUBLIC	??_C@_0BC@KBDMBKEH@deque?$DMT?$DO?5too?5long@	; `string'
PUBLIC	??_R4?$CDynamicPoolEx@VCHeaderDecorator@NEffectUpdateDecorator@@@@6B@ ; CDynamicPoolEx<NEffectUpdateDecorator::CHeaderDecorator>::`RTTI Complete Object Locator'
PUBLIC	??_R0?AV?$CDynamicPoolEx@VCHeaderDecorator@NEffectUpdateDecorator@@@@@8 ; CDynamicPoolEx<NEffectUpdateDecorator::CHeaderDecorator> `RTTI Type Descriptor'
PUBLIC	??_R3?$CDynamicPoolEx@VCHeaderDecorator@NEffectUpdateDecorator@@@@8 ; CDynamicPoolEx<NEffectUpdateDecorator::CHeaderDecorator>::`RTTI Class Hierarchy Descriptor'
PUBLIC	??_R2?$CDynamicPoolEx@VCHeaderDecorator@NEffectUpdateDecorator@@@@8 ; CDynamicPoolEx<NEffectUpdateDecorator::CHeaderDecorator>::`RTTI Base Class Array'
PUBLIC	??_R1A@?0A@EA@?$CDynamicPoolEx@VCHeaderDecorator@NEffectUpdateDecorator@@@@8 ; CDynamicPoolEx<NEffectUpdateDecorator::CHeaderDecorator>::`RTTI Base Class Descriptor at (0,-1,0,64)'
PUBLIC	??_R4?$CDynamicPoolEx@VCNullDecorator@NEffectUpdateDecorator@@@@6B@ ; CDynamicPoolEx<NEffectUpdateDecorator::CNullDecorator>::`RTTI Complete Object Locator'
PUBLIC	??_R0?AV?$CDynamicPoolEx@VCNullDecorator@NEffectUpdateDecorator@@@@@8 ; CDynamicPoolEx<NEffectUpdateDecorator::CNullDecorator> `RTTI Type Descriptor'
PUBLIC	??_R3?$CDynamicPoolEx@VCNullDecorator@NEffectUpdateDecorator@@@@8 ; CDynamicPoolEx<NEffectUpdateDecorator::CNullDecorator>::`RTTI Class Hierarchy Descriptor'
PUBLIC	??_R2?$CDynamicPoolEx@VCNullDecorator@NEffectUpdateDecorator@@@@8 ; CDynamicPoolEx<NEffectUpdateDecorator::CNullDecorator>::`RTTI Base Class Array'
PUBLIC	??_R1A@?0A@EA@?$CDynamicPoolEx@VCNullDecorator@NEffectUpdateDecorator@@@@8 ; CDynamicPoolEx<NEffectUpdateDecorator::CNullDecorator>::`RTTI Base Class Descriptor at (0,-1,0,64)'
PUBLIC	??_R4?$CDynamicPoolEx@VCTextureAnimationCWDecorator@NEffectUpdateDecorator@@@@6B@ ; CDynamicPoolEx<NEffectUpdateDecorator::CTextureAnimationCWDecorator>::`RTTI Complete Object Locator'
PUBLIC	??_R0?AV?$CDynamicPoolEx@VCTextureAnimationCWDecorator@NEffectUpdateDecorator@@@@@8 ; CDynamicPoolEx<NEffectUpdateDecorator::CTextureAnimationCWDecorator> `RTTI Type Descriptor'
PUBLIC	??_R3?$CDynamicPoolEx@VCTextureAnimationCWDecorator@NEffectUpdateDecorator@@@@8 ; CDynamicPoolEx<NEffectUpdateDecorator::CTextureAnimationCWDecorator>::`RTTI Class Hierarchy Descriptor'
PUBLIC	??_R2?$CDynamicPoolEx@VCTextureAnimationCWDecorator@NEffectUpdateDecorator@@@@8 ; CDynamicPoolEx<NEffectUpdateDecorator::CTextureAnimationCWDecorator>::`RTTI Base Class Array'
PUBLIC	??_R1A@?0A@EA@?$CDynamicPoolEx@VCTextureAnimationCWDecorator@NEffectUpdateDecorator@@@@8 ; CDynamicPoolEx<NEffectUpdateDecorator::CTextureAnimationCWDecorator>::`RTTI Base Class Descriptor at (0,-1,0,64)'
PUBLIC	??_R4?$CDynamicPoolEx@VCTextureAnimationCCWDecorator@NEffectUpdateDecorator@@@@6B@ ; CDynamicPoolEx<NEffectUpdateDecorator::CTextureAnimationCCWDecorator>::`RTTI Complete Object Locator'
PUBLIC	??_R0?AV?$CDynamicPoolEx@VCTextureAnimationCCWDecorator@NEffectUpdateDecorator@@@@@8 ; CDynamicPoolEx<NEffectUpdateDecorator::CTextureAnimationCCWDecorator> `RTTI Type Descriptor'
PUBLIC	??_R3?$CDynamicPoolEx@VCTextureAnimationCCWDecorator@NEffectUpdateDecorator@@@@8 ; CDynamicPoolEx<NEffectUpdateDecorator::CTextureAnimationCCWDecorator>::`RTTI Class Hierarchy Descriptor'
PUBLIC	??_R2?$CDynamicPoolEx@VCTextureAnimationCCWDecorator@NEffectUpdateDecorator@@@@8 ; CDynamicPoolEx<NEffectUpdateDecorator::CTextureAnimationCCWDecorator>::`RTTI Base Class Array'
PUBLIC	??_R1A@?0A@EA@?$CDynamicPoolEx@VCTextureAnimationCCWDecorator@NEffectUpdateDecorator@@@@8 ; CDynamicPoolEx<NEffectUpdateDecorator::CTextureAnimationCCWDecorator>::`RTTI Base Class Descriptor at (0,-1,0,64)'
PUBLIC	??_R4?$CDynamicPoolEx@VCTextureAnimationRandomDecorator@NEffectUpdateDecorator@@@@6B@ ; CDynamicPoolEx<NEffectUpdateDecorator::CTextureAnimationRandomDecorator>::`RTTI Complete Object Locator'
PUBLIC	??_R0?AV?$CDynamicPoolEx@VCTextureAnimationRandomDecorator@NEffectUpdateDecorator@@@@@8 ; CDynamicPoolEx<NEffectUpdateDecorator::CTextureAnimationRandomDecorator> `RTTI Type Descriptor'
PUBLIC	??_R3?$CDynamicPoolEx@VCTextureAnimationRandomDecorator@NEffectUpdateDecorator@@@@8 ; CDynamicPoolEx<NEffectUpdateDecorator::CTextureAnimationRandomDecorator>::`RTTI Class Hierarchy Descriptor'
PUBLIC	??_R2?$CDynamicPoolEx@VCTextureAnimationRandomDecorator@NEffectUpdateDecorator@@@@8 ; CDynamicPoolEx<NEffectUpdateDecorator::CTextureAnimationRandomDecorator>::`RTTI Base Class Array'
PUBLIC	??_R1A@?0A@EA@?$CDynamicPoolEx@VCTextureAnimationRandomDecorator@NEffectUpdateDecorator@@@@8 ; CDynamicPoolEx<NEffectUpdateDecorator::CTextureAnimationRandomDecorator>::`RTTI Base Class Descriptor at (0,-1,0,64)'
PUBLIC	??_R4?$CDynamicPoolEx@VCAirResistanceDecorator@NEffectUpdateDecorator@@@@6B@ ; CDynamicPoolEx<NEffectUpdateDecorator::CAirResistanceDecorator>::`RTTI Complete Object Locator'
PUBLIC	??_R0?AV?$CDynamicPoolEx@VCAirResistanceDecorator@NEffectUpdateDecorator@@@@@8 ; CDynamicPoolEx<NEffectUpdateDecorator::CAirResistanceDecorator> `RTTI Type Descriptor'
PUBLIC	??_R3?$CDynamicPoolEx@VCAirResistanceDecorator@NEffectUpdateDecorator@@@@8 ; CDynamicPoolEx<NEffectUpdateDecorator::CAirResistanceDecorator>::`RTTI Class Hierarchy Descriptor'
PUBLIC	??_R2?$CDynamicPoolEx@VCAirResistanceDecorator@NEffectUpdateDecorator@@@@8 ; CDynamicPoolEx<NEffectUpdateDecorator::CAirResistanceDecorator>::`RTTI Base Class Array'
PUBLIC	??_R1A@?0A@EA@?$CDynamicPoolEx@VCAirResistanceDecorator@NEffectUpdateDecorator@@@@8 ; CDynamicPoolEx<NEffectUpdateDecorator::CAirResistanceDecorator>::`RTTI Base Class Descriptor at (0,-1,0,64)'
PUBLIC	??_R4?$CDynamicPoolEx@VCGravityDecorator@NEffectUpdateDecorator@@@@6B@ ; CDynamicPoolEx<NEffectUpdateDecorator::CGravityDecorator>::`RTTI Complete Object Locator'
PUBLIC	??_R0?AV?$CDynamicPoolEx@VCGravityDecorator@NEffectUpdateDecorator@@@@@8 ; CDynamicPoolEx<NEffectUpdateDecorator::CGravityDecorator> `RTTI Type Descriptor'
PUBLIC	??_R3?$CDynamicPoolEx@VCGravityDecorator@NEffectUpdateDecorator@@@@8 ; CDynamicPoolEx<NEffectUpdateDecorator::CGravityDecorator>::`RTTI Class Hierarchy Descriptor'
PUBLIC	??_R2?$CDynamicPoolEx@VCGravityDecorator@NEffectUpdateDecorator@@@@8 ; CDynamicPoolEx<NEffectUpdateDecorator::CGravityDecorator>::`RTTI Base Class Array'
PUBLIC	??_R1A@?0A@EA@?$CDynamicPoolEx@VCGravityDecorator@NEffectUpdateDecorator@@@@8 ; CDynamicPoolEx<NEffectUpdateDecorator::CGravityDecorator>::`RTTI Base Class Descriptor at (0,-1,0,64)'
PUBLIC	??_R4?$CDynamicPoolEx@VCRotationDecorator@NEffectUpdateDecorator@@@@6B@ ; CDynamicPoolEx<NEffectUpdateDecorator::CRotationDecorator>::`RTTI Complete Object Locator'
PUBLIC	??_R0?AV?$CDynamicPoolEx@VCRotationDecorator@NEffectUpdateDecorator@@@@@8 ; CDynamicPoolEx<NEffectUpdateDecorator::CRotationDecorator> `RTTI Type Descriptor'
PUBLIC	??_R3?$CDynamicPoolEx@VCRotationDecorator@NEffectUpdateDecorator@@@@8 ; CDynamicPoolEx<NEffectUpdateDecorator::CRotationDecorator>::`RTTI Class Hierarchy Descriptor'
PUBLIC	??_R2?$CDynamicPoolEx@VCRotationDecorator@NEffectUpdateDecorator@@@@8 ; CDynamicPoolEx<NEffectUpdateDecorator::CRotationDecorator>::`RTTI Base Class Array'
PUBLIC	??_R1A@?0A@EA@?$CDynamicPoolEx@VCRotationDecorator@NEffectUpdateDecorator@@@@8 ; CDynamicPoolEx<NEffectUpdateDecorator::CRotationDecorator>::`RTTI Base Class Descriptor at (0,-1,0,64)'
PUBLIC	__real@00000000
PUBLIC	__real@3dcccccd
PUBLIC	__real@3f000000
PUBLIC	__real@3f800000
PUBLIC	__real@40400000
EXTRN	??2@YAPAXI@Z:PROC				; operator new
EXTRN	??3@YAXPAX@Z:PROC				; operator delete
EXTRN	??3@YAXPAXI@Z:PROC				; operator delete
EXTRN	_atexit:PROC
EXTRN	__invalid_parameter_noinfo_noreturn:PROC
EXTRN	_memmove:PROC
EXTRN	_memset:PROC
EXTRN	___std_exception_copy:PROC
EXTRN	___std_exception_destroy:PROC
EXTRN	??_Eexception@std@@UAEPAXI@Z:PROC		; std::exception::`vector deleting destructor'
EXTRN	??_Ebad_alloc@std@@UAEPAXI@Z:PROC		; std::bad_alloc::`vector deleting destructor'
EXTRN	??_Ebad_array_new_length@std@@UAEPAXI@Z:PROC	; std::bad_array_new_length::`vector deleting destructor'
EXTRN	?_Xlength_error@std@@YAXPBD@Z:PROC		; std::_Xlength_error
EXTRN	?_Xout_of_range@std@@YAXPBD@Z:PROC		; std::_Xout_of_range
EXTRN	?random@@YAKXZ:PROC				; random
EXTRN	?Logn@@YAXIPBD@Z:PROC				; Logn
EXTRN	?Tracen@@YAXPBD@Z:PROC				; Tracen
EXTRN	?Tracenf@@YAXPBDZZ:PROC				; Tracenf
EXTRN	?Tracef@@YAXPBDZZ:PROC				; Tracef
EXTRN	?TraceError@@YAXPBDZZ:PROC			; TraceError
EXTRN	?Clear@CFlyTarget@@QAEXXZ:PROC			; CFlyTarget::Clear
EXTRN	?IsObject@CFlyTarget@@QAE_NXZ:PROC		; CFlyTarget::IsObject
EXTRN	?IsValidTarget@CFlyTarget@@QAE_NXZ:PROC		; CFlyTarget::IsValidTarget
EXTRN	??4CFlyTarget@@QAEAAV0@ABV0@@Z:PROC		; CFlyTarget::operator=
EXTRN	?GetDuration@CGrannyMotion@@QBEMXZ:PROC		; CGrannyMotion::GetDuration
EXTRN	?GetMotionPointer@CGraphicThing@@QAEPAVCGrannyMotion@@H@Z:PROC ; CGraphicThing::GetMotionPointer
EXTRN	?GetMotionCount@CGraphicThing@@QBEHXZ:PROC	; CGraphicThing::GetMotionCount
EXTRN	?GetMotionKey@CRaceData@@QAEHGGPAK@Z:PROC	; CRaceData::GetMotionKey
EXTRN	?GetMotionVectorPointer@CRaceData@@QAEHGGPAPBV?$vector@USMotion@CRaceData@@V?$allocator@USMotion@CRaceData@@@std@@@std@@@Z:PROC ; CRaceData::GetMotionVectorPointer
EXTRN	?GetMotionDataPointer@CRaceData@@QAEHKPAPAVCRaceMotionData@@@Z:PROC ; CRaceData::GetMotionDataPointer
EXTRN	?DeactiveEffectInstance@CEffectManager@@QAEXK@Z:PROC ; CEffectManager::DeactiveEffectInstance
EXTRN	?GetType@CRaceMotionData@@QBEIXZ:PROC		; CRaceMotionData::GetType
EXTRN	?GetLoopCount@CRaceMotionData@@QBEHXZ:PROC	; CRaceMotionData::GetLoopCount
EXTRN	?IsComboInputTimeData@CRaceMotionData@@QBEHXZ:PROC ; CRaceMotionData::IsComboInputTimeData
EXTRN	?isAttackingMotion@CRaceMotionData@@QBEHXZ:PROC	; CRaceMotionData::isAttackingMotion
EXTRN	?IsCancelEnableSkill@CRaceMotionData@@QBEHXZ:PROC ; CRaceMotionData::IsCancelEnableSkill
EXTRN	?IsLoopMotion@CRaceMotionData@@QBEHXZ:PROC	; CRaceMotionData::IsLoopMotion
EXTRN	?GetLoopStartTime@CRaceMotionData@@QBEMXZ:PROC	; CRaceMotionData::GetLoopStartTime
EXTRN	?GetLoopEndTime@CRaceMotionData@@QBEMXZ:PROC	; CRaceMotionData::GetLoopEndTime
EXTRN	?GetMotionEventDataCount@CRaceMotionData@@QBEKXZ:PROC ; CRaceMotionData::GetMotionEventDataCount
EXTRN	?GetMotionEventDataPointer@CRaceMotionData@@QBEHEPAPBUSMotionEventData@NMotionEvent@@@Z:PROC ; CRaceMotionData::GetMotionEventDataPointer
EXTRN	?CheckMotionThingIndex@CGraphicThingInstance@@QAE_NK@Z:PROC ; CGraphicThingInstance::CheckMotionThingIndex
EXTRN	?GetMotionThingPointer@CGraphicThingInstance@@QAE_NKPAPAVCGraphicThing@@@Z:PROC ; CGraphicThingInstance::GetMotionThingPointer
EXTRN	?SetEndStopMotion@CGraphicThingInstance@@QAEXXZ:PROC ; CGraphicThingInstance::SetEndStopMotion
EXTRN	?__SetLocalTime@CGraphicThingInstance@@QAEXM@Z:PROC ; CGraphicThingInstance::__SetLocalTime
EXTRN	?GetLocalTime@CGraphicThingInstance@@QAEMXZ:PROC ; CGraphicThingInstance::GetLocalTime
EXTRN	?SetMotion@CGraphicThingInstance@@QAE_NKMHM@Z:PROC ; CGraphicThingInstance::SetMotion
EXTRN	?ChangeMotion@CGraphicThingInstance@@QAE_NKHM@Z:PROC ; CGraphicThingInstance::ChangeMotion
EXTRN	?IsPoly@CActorInstance@@QAE_NXZ:PROC		; CActorInstance::IsPoly
EXTRN	?isAttacking@CActorInstance@@QAEHXZ:PROC	; CActorInstance::isAttacking
EXTRN	?GetAttackingElapsedTime@CActorInstance@@QAEMXZ:PROC ; CActorInstance::GetAttackingElapsedTime
EXTRN	?IsFaint@CActorInstance@@QAEHXZ:PROC		; CActorInstance::IsFaint
EXTRN	?IsDead@CActorInstance@@QAEHXZ:PROC		; CActorInstance::IsDead
EXTRN	?MotionEventProcess@CActorInstance@@QAEXXZ:PROC	; CActorInstance::MotionEventProcess
EXTRN	?SoundEventProcess@CActorInstance@@QAEXH@Z:PROC	; CActorInstance::SoundEventProcess
EXTRN	?SetFlyTarget@CActorInstance@@QAEXABVCFlyTarget@@@Z:PROC ; CActorInstance::SetFlyTarget
EXTRN	?__ShowEvent@CActorInstance@@IAEXXZ:PROC	; CActorInstance::__ShowEvent
EXTRN	?__IsHiding@CActorInstance@@IAEHXZ:PROC		; CActorInstance::__IsHiding
EXTRN	?__IsMovingSkill@CActorInstance@@IAEHG@Z:PROC	; CActorInstance::__IsMovingSkill
EXTRN	?__ShowWeaponTrace@CActorInstance@@IAEXXZ:PROC	; CActorInstance::__ShowWeaponTrace
EXTRN	?__HideWeaponTrace@CActorInstance@@IAEXXZ:PROC	; CActorInstance::__HideWeaponTrace
EXTRN	?__OnMove@CActorInstance@@QAEXXZ:PROC		; CActorInstance::__OnMove
EXTRN	?__OnStop@CActorInstance@@QAEXXZ:PROC		; CActorInstance::__OnStop
EXTRN	??_E?$CDynamicPoolEx@VCRotationDecorator@NEffectUpdateDecorator@@@@UAEPAXI@Z:PROC ; CDynamicPoolEx<NEffectUpdateDecorator::CRotationDecorator>::`vector deleting destructor'
EXTRN	??_E?$CDynamicPoolEx@VCGravityDecorator@NEffectUpdateDecorator@@@@UAEPAXI@Z:PROC ; CDynamicPoolEx<NEffectUpdateDecorator::CGravityDecorator>::`vector deleting destructor'
EXTRN	??_E?$CDynamicPoolEx@VCAirResistanceDecorator@NEffectUpdateDecorator@@@@UAEPAXI@Z:PROC ; CDynamicPoolEx<NEffectUpdateDecorator::CAirResistanceDecorator>::`vector deleting destructor'
EXTRN	??_E?$CDynamicPoolEx@VCTextureAnimationRandomDecorator@NEffectUpdateDecorator@@@@UAEPAXI@Z:PROC ; CDynamicPoolEx<NEffectUpdateDecorator::CTextureAnimationRandomDecorator>::`vector deleting destructor'
EXTRN	??_E?$CDynamicPoolEx@VCTextureAnimationCCWDecorator@NEffectUpdateDecorator@@@@UAEPAXI@Z:PROC ; CDynamicPoolEx<NEffectUpdateDecorator::CTextureAnimationCCWDecorator>::`vector deleting destructor'
EXTRN	??_E?$CDynamicPoolEx@VCTextureAnimationCWDecorator@NEffectUpdateDecorator@@@@UAEPAXI@Z:PROC ; CDynamicPoolEx<NEffectUpdateDecorator::CTextureAnimationCWDecorator>::`vector deleting destructor'
EXTRN	??_E?$CDynamicPoolEx@VCNullDecorator@NEffectUpdateDecorator@@@@UAEPAXI@Z:PROC ; CDynamicPoolEx<NEffectUpdateDecorator::CNullDecorator>::`vector deleting destructor'
EXTRN	??_E?$CDynamicPoolEx@VCHeaderDecorator@NEffectUpdateDecorator@@@@UAEPAXI@Z:PROC ; CDynamicPoolEx<NEffectUpdateDecorator::CHeaderDecorator>::`vector deleting destructor'
EXTRN	@__security_check_cookie@4:PROC
EXTRN	__CxxThrowException@8:PROC
EXTRN	___CxxFrameHandler3:PROC
EXTRN	__ftoui3:PROC
EXTRN	??_7type_info@@6B@:QWORD			; type_info::`vftable'
EXTRN	?g_fGameFPS@@3MA:DWORD				; g_fGameFPS
EXTRN	___security_cookie:DWORD
EXTRN	__fltused:DWORD
;	COMDAT ?ms_kPool@?$CPooledObject@VCHeaderDecorator@NEffectUpdateDecorator@@@@1V?$CDynamicPoolEx@VCHeaderDecorator@NEffectUpdateDecorator@@@@A
_BSS	SEGMENT
?ms_kPool@?$CPooledObject@VCHeaderDecorator@NEffectUpdateDecorator@@@@1V?$CDynamicPoolEx@VCHeaderDecorator@NEffectUpdateDecorator@@@@A DB 024H DUP (?) ; CPooledObject<NEffectUpdateDecorator::CHeaderDecorator>::ms_kPool
_BSS	ENDS
;	COMDAT ?ms_kPool@?$CPooledObject@VCNullDecorator@NEffectUpdateDecorator@@@@1V?$CDynamicPoolEx@VCNullDecorator@NEffectUpdateDecorator@@@@A
_BSS	SEGMENT
?ms_kPool@?$CPooledObject@VCNullDecorator@NEffectUpdateDecorator@@@@1V?$CDynamicPoolEx@VCNullDecorator@NEffectUpdateDecorator@@@@A DB 024H DUP (?) ; CPooledObject<NEffectUpdateDecorator::CNullDecorator>::ms_kPool
_BSS	ENDS
;	COMDAT ?ms_kPool@?$CPooledObject@VCTextureAnimationCWDecorator@NEffectUpdateDecorator@@@@1V?$CDynamicPoolEx@VCTextureAnimationCWDecorator@NEffectUpdateDecorator@@@@A
_BSS	SEGMENT
?ms_kPool@?$CPooledObject@VCTextureAnimationCWDecorator@NEffectUpdateDecorator@@@@1V?$CDynamicPoolEx@VCTextureAnimationCWDecorator@NEffectUpdateDecorator@@@@A DB 024H DUP (?) ; CPooledObject<NEffectUpdateDecorator::CTextureAnimationCWDecorator>::ms_kPool
_BSS	ENDS
;	COMDAT ?ms_kPool@?$CPooledObject@VCTextureAnimationCCWDecorator@NEffectUpdateDecorator@@@@1V?$CDynamicPoolEx@VCTextureAnimationCCWDecorator@NEffectUpdateDecorator@@@@A
_BSS	SEGMENT
?ms_kPool@?$CPooledObject@VCTextureAnimationCCWDecorator@NEffectUpdateDecorator@@@@1V?$CDynamicPoolEx@VCTextureAnimationCCWDecorator@NEffectUpdateDecorator@@@@A DB 024H DUP (?) ; CPooledObject<NEffectUpdateDecorator::CTextureAnimationCCWDecorator>::ms_kPool
_BSS	ENDS
;	COMDAT ?ms_kPool@?$CPooledObject@VCTextureAnimationRandomDecorator@NEffectUpdateDecorator@@@@1V?$CDynamicPoolEx@VCTextureAnimationRandomDecorator@NEffectUpdateDecorator@@@@A
_BSS	SEGMENT
?ms_kPool@?$CPooledObject@VCTextureAnimationRandomDecorator@NEffectUpdateDecorator@@@@1V?$CDynamicPoolEx@VCTextureAnimationRandomDecorator@NEffectUpdateDecorator@@@@A DB 024H DUP (?) ; CPooledObject<NEffectUpdateDecorator::CTextureAnimationRandomDecorator>::ms_kPool
_BSS	ENDS
;	COMDAT ?ms_kPool@?$CPooledObject@VCAirResistanceDecorator@NEffectUpdateDecorator@@@@1V?$CDynamicPoolEx@VCAirResistanceDecorator@NEffectUpdateDecorator@@@@A
_BSS	SEGMENT
?ms_kPool@?$CPooledObject@VCAirResistanceDecorator@NEffectUpdateDecorator@@@@1V?$CDynamicPoolEx@VCAirResistanceDecorator@NEffectUpdateDecorator@@@@A DB 024H DUP (?) ; CPooledObject<NEffectUpdateDecorator::CAirResistanceDecorator>::ms_kPool
_BSS	ENDS
;	COMDAT ?ms_kPool@?$CPooledObject@VCGravityDecorator@NEffectUpdateDecorator@@@@1V?$CDynamicPoolEx@VCGravityDecorator@NEffectUpdateDecorator@@@@A
_BSS	SEGMENT
?ms_kPool@?$CPooledObject@VCGravityDecorator@NEffectUpdateDecorator@@@@1V?$CDynamicPoolEx@VCGravityDecorator@NEffectUpdateDecorator@@@@A DB 024H DUP (?) ; CPooledObject<NEffectUpdateDecorator::CGravityDecorator>::ms_kPool
_BSS	ENDS
;	COMDAT ?ms_kPool@?$CPooledObject@VCRotationDecorator@NEffectUpdateDecorator@@@@1V?$CDynamicPoolEx@VCRotationDecorator@NEffectUpdateDecorator@@@@A
_BSS	SEGMENT
?ms_kPool@?$CPooledObject@VCRotationDecorator@NEffectUpdateDecorator@@@@1V?$CDynamicPoolEx@VCRotationDecorator@NEffectUpdateDecorator@@@@A DB 024H DUP (?) ; CPooledObject<NEffectUpdateDecorator::CRotationDecorator>::ms_kPool
_BSS	ENDS
;	COMDAT ?ms_singleton@?$CSingleton@VCEffectManager@@@@0PAVCEffectManager@@A
_BSS	SEGMENT
?ms_singleton@?$CSingleton@VCEffectManager@@@@0PAVCEffectManager@@A DD 01H DUP (?) ; CSingleton<CEffectManager>::ms_singleton
_BSS	ENDS
;	COMDAT CRT$XCU
CRT$XCU	SEGMENT
??ms_kPool$initializer$@?$CPooledObject@VCHeaderDecorator@NEffectUpdateDecorator@@@@1P6AXXZA@@3P6AXXZA DD FLAT:??__E?ms_kPool@?$CPooledObject@VCHeaderDecorator@NEffectUpdateDecorator@@@@1V?$CDynamicPoolEx@VCHeaderDecorator@NEffectUpdateDecorator@@@@A@@YAXXZ ; ??ms_kPool$initializer$@?$CPooledObject@VCHeaderDecorator@NEffectUpdateDecorator@@@@1P6AXXZA@@3P6AXXZA
CRT$XCU	ENDS
;	COMDAT __real@40400000
CONST	SEGMENT
__real@40400000 DD 040400000r			; 3
CONST	ENDS
;	COMDAT __real@3f800000
CONST	SEGMENT
__real@3f800000 DD 03f800000r			; 1
CONST	ENDS
;	COMDAT __real@3f000000
CONST	SEGMENT
__real@3f000000 DD 03f000000r			; 0.5
CONST	ENDS
;	COMDAT __real@3dcccccd
CONST	SEGMENT
__real@3dcccccd DD 03dcccccdr			; 0.1
CONST	ENDS
;	COMDAT __real@00000000
CONST	SEGMENT
__real@00000000 DD 000000000r			; 0
CONST	ENDS
;	COMDAT ??_R1A@?0A@EA@?$CDynamicPoolEx@VCRotationDecorator@NEffectUpdateDecorator@@@@8
rdata$r	SEGMENT
??_R1A@?0A@EA@?$CDynamicPoolEx@VCRotationDecorator@NEffectUpdateDecorator@@@@8 DD FLAT:??_R0?AV?$CDynamicPoolEx@VCRotationDecorator@NEffectUpdateDecorator@@@@@8 ; CDynamicPoolEx<NEffectUpdateDecorator::CRotationDecorator>::`RTTI Base Class Descriptor at (0,-1,0,64)'
	DD	00H
	DD	00H
	DD	0ffffffffH
	DD	00H
	DD	040H
	DD	FLAT:??_R3?$CDynamicPoolEx@VCRotationDecorator@NEffectUpdateDecorator@@@@8
rdata$r	ENDS
;	COMDAT ??_R2?$CDynamicPoolEx@VCRotationDecorator@NEffectUpdateDecorator@@@@8
rdata$r	SEGMENT
??_R2?$CDynamicPoolEx@VCRotationDecorator@NEffectUpdateDecorator@@@@8 DD FLAT:??_R1A@?0A@EA@?$CDynamicPoolEx@VCRotationDecorator@NEffectUpdateDecorator@@@@8 ; CDynamicPoolEx<NEffectUpdateDecorator::CRotationDecorator>::`RTTI Base Class Array'
rdata$r	ENDS
;	COMDAT ??_R3?$CDynamicPoolEx@VCRotationDecorator@NEffectUpdateDecorator@@@@8
rdata$r	SEGMENT
??_R3?$CDynamicPoolEx@VCRotationDecorator@NEffectUpdateDecorator@@@@8 DD 00H ; CDynamicPoolEx<NEffectUpdateDecorator::CRotationDecorator>::`RTTI Class Hierarchy Descriptor'
	DD	00H
	DD	01H
	DD	FLAT:??_R2?$CDynamicPoolEx@VCRotationDecorator@NEffectUpdateDecorator@@@@8
rdata$r	ENDS
;	COMDAT ??_R0?AV?$CDynamicPoolEx@VCRotationDecorator@NEffectUpdateDecorator@@@@@8
data$rs	SEGMENT
??_R0?AV?$CDynamicPoolEx@VCRotationDecorator@NEffectUpdateDecorator@@@@@8 DD FLAT:??_7type_info@@6B@ ; CDynamicPoolEx<NEffectUpdateDecorator::CRotationDecorator> `RTTI Type Descriptor'
	DD	00H
	DB	'.?AV?$CDynamicPoolEx@VCRotationDecorator@NEffectUpdateDe'
	DB	'corator@@@@', 00H
data$rs	ENDS
;	COMDAT ??_R4?$CDynamicPoolEx@VCRotationDecorator@NEffectUpdateDecorator@@@@6B@
rdata$r	SEGMENT
??_R4?$CDynamicPoolEx@VCRotationDecorator@NEffectUpdateDecorator@@@@6B@ DD 00H ; CDynamicPoolEx<NEffectUpdateDecorator::CRotationDecorator>::`RTTI Complete Object Locator'
	DD	00H
	DD	00H
	DD	FLAT:??_R0?AV?$CDynamicPoolEx@VCRotationDecorator@NEffectUpdateDecorator@@@@@8
	DD	FLAT:??_R3?$CDynamicPoolEx@VCRotationDecorator@NEffectUpdateDecorator@@@@8
rdata$r	ENDS
;	COMDAT ??_R1A@?0A@EA@?$CDynamicPoolEx@VCGravityDecorator@NEffectUpdateDecorator@@@@8
rdata$r	SEGMENT
??_R1A@?0A@EA@?$CDynamicPoolEx@VCGravityDecorator@NEffectUpdateDecorator@@@@8 DD FLAT:??_R0?AV?$CDynamicPoolEx@VCGravityDecorator@NEffectUpdateDecorator@@@@@8 ; CDynamicPoolEx<NEffectUpdateDecorator::CGravityDecorator>::`RTTI Base Class Descriptor at (0,-1,0,64)'
	DD	00H
	DD	00H
	DD	0ffffffffH
	DD	00H
	DD	040H
	DD	FLAT:??_R3?$CDynamicPoolEx@VCGravityDecorator@NEffectUpdateDecorator@@@@8
rdata$r	ENDS
;	COMDAT ??_R2?$CDynamicPoolEx@VCGravityDecorator@NEffectUpdateDecorator@@@@8
rdata$r	SEGMENT
??_R2?$CDynamicPoolEx@VCGravityDecorator@NEffectUpdateDecorator@@@@8 DD FLAT:??_R1A@?0A@EA@?$CDynamicPoolEx@VCGravityDecorator@NEffectUpdateDecorator@@@@8 ; CDynamicPoolEx<NEffectUpdateDecorator::CGravityDecorator>::`RTTI Base Class Array'
rdata$r	ENDS
;	COMDAT ??_R3?$CDynamicPoolEx@VCGravityDecorator@NEffectUpdateDecorator@@@@8
rdata$r	SEGMENT
??_R3?$CDynamicPoolEx@VCGravityDecorator@NEffectUpdateDecorator@@@@8 DD 00H ; CDynamicPoolEx<NEffectUpdateDecorator::CGravityDecorator>::`RTTI Class Hierarchy Descriptor'
	DD	00H
	DD	01H
	DD	FLAT:??_R2?$CDynamicPoolEx@VCGravityDecorator@NEffectUpdateDecorator@@@@8
rdata$r	ENDS
;	COMDAT ??_R0?AV?$CDynamicPoolEx@VCGravityDecorator@NEffectUpdateDecorator@@@@@8
data$rs	SEGMENT
??_R0?AV?$CDynamicPoolEx@VCGravityDecorator@NEffectUpdateDecorator@@@@@8 DD FLAT:??_7type_info@@6B@ ; CDynamicPoolEx<NEffectUpdateDecorator::CGravityDecorator> `RTTI Type Descriptor'
	DD	00H
	DB	'.?AV?$CDynamicPoolEx@VCGravityDecorator@NEffectUpdateDec'
	DB	'orator@@@@', 00H
data$rs	ENDS
;	COMDAT ??_R4?$CDynamicPoolEx@VCGravityDecorator@NEffectUpdateDecorator@@@@6B@
rdata$r	SEGMENT
??_R4?$CDynamicPoolEx@VCGravityDecorator@NEffectUpdateDecorator@@@@6B@ DD 00H ; CDynamicPoolEx<NEffectUpdateDecorator::CGravityDecorator>::`RTTI Complete Object Locator'
	DD	00H
	DD	00H
	DD	FLAT:??_R0?AV?$CDynamicPoolEx@VCGravityDecorator@NEffectUpdateDecorator@@@@@8
	DD	FLAT:??_R3?$CDynamicPoolEx@VCGravityDecorator@NEffectUpdateDecorator@@@@8
rdata$r	ENDS
;	COMDAT ??_R1A@?0A@EA@?$CDynamicPoolEx@VCAirResistanceDecorator@NEffectUpdateDecorator@@@@8
rdata$r	SEGMENT
??_R1A@?0A@EA@?$CDynamicPoolEx@VCAirResistanceDecorator@NEffectUpdateDecorator@@@@8 DD FLAT:??_R0?AV?$CDynamicPoolEx@VCAirResistanceDecorator@NEffectUpdateDecorator@@@@@8 ; CDynamicPoolEx<NEffectUpdateDecorator::CAirResistanceDecorator>::`RTTI Base Class Descriptor at (0,-1,0,64)'
	DD	00H
	DD	00H
	DD	0ffffffffH
	DD	00H
	DD	040H
	DD	FLAT:??_R3?$CDynamicPoolEx@VCAirResistanceDecorator@NEffectUpdateDecorator@@@@8
rdata$r	ENDS
;	COMDAT ??_R2?$CDynamicPoolEx@VCAirResistanceDecorator@NEffectUpdateDecorator@@@@8
rdata$r	SEGMENT
??_R2?$CDynamicPoolEx@VCAirResistanceDecorator@NEffectUpdateDecorator@@@@8 DD FLAT:??_R1A@?0A@EA@?$CDynamicPoolEx@VCAirResistanceDecorator@NEffectUpdateDecorator@@@@8 ; CDynamicPoolEx<NEffectUpdateDecorator::CAirResistanceDecorator>::`RTTI Base Class Array'
rdata$r	ENDS
;	COMDAT ??_R3?$CDynamicPoolEx@VCAirResistanceDecorator@NEffectUpdateDecorator@@@@8
rdata$r	SEGMENT
??_R3?$CDynamicPoolEx@VCAirResistanceDecorator@NEffectUpdateDecorator@@@@8 DD 00H ; CDynamicPoolEx<NEffectUpdateDecorator::CAirResistanceDecorator>::`RTTI Class Hierarchy Descriptor'
	DD	00H
	DD	01H
	DD	FLAT:??_R2?$CDynamicPoolEx@VCAirResistanceDecorator@NEffectUpdateDecorator@@@@8
rdata$r	ENDS
;	COMDAT ??_R0?AV?$CDynamicPoolEx@VCAirResistanceDecorator@NEffectUpdateDecorator@@@@@8
data$rs	SEGMENT
??_R0?AV?$CDynamicPoolEx@VCAirResistanceDecorator@NEffectUpdateDecorator@@@@@8 DD FLAT:??_7type_info@@6B@ ; CDynamicPoolEx<NEffectUpdateDecorator::CAirResistanceDecorator> `RTTI Type Descriptor'
	DD	00H
	DB	'.?AV?$CDynamicPoolEx@VCAirResistanceDecorator@NEffectUpd'
	DB	'ateDecorator@@@@', 00H
data$rs	ENDS
;	COMDAT ??_R4?$CDynamicPoolEx@VCAirResistanceDecorator@NEffectUpdateDecorator@@@@6B@
rdata$r	SEGMENT
??_R4?$CDynamicPoolEx@VCAirResistanceDecorator@NEffectUpdateDecorator@@@@6B@ DD 00H ; CDynamicPoolEx<NEffectUpdateDecorator::CAirResistanceDecorator>::`RTTI Complete Object Locator'
	DD	00H
	DD	00H
	DD	FLAT:??_R0?AV?$CDynamicPoolEx@VCAirResistanceDecorator@NEffectUpdateDecorator@@@@@8
	DD	FLAT:??_R3?$CDynamicPoolEx@VCAirResistanceDecorator@NEffectUpdateDecorator@@@@8
rdata$r	ENDS
;	COMDAT ??_R1A@?0A@EA@?$CDynamicPoolEx@VCTextureAnimationRandomDecorator@NEffectUpdateDecorator@@@@8
rdata$r	SEGMENT
??_R1A@?0A@EA@?$CDynamicPoolEx@VCTextureAnimationRandomDecorator@NEffectUpdateDecorator@@@@8 DD FLAT:??_R0?AV?$CDynamicPoolEx@VCTextureAnimationRandomDecorator@NEffectUpdateDecorator@@@@@8 ; CDynamicPoolEx<NEffectUpdateDecorator::CTextureAnimationRandomDecorator>::`RTTI Base Class Descriptor at (0,-1,0,64)'
	DD	00H
	DD	00H
	DD	0ffffffffH
	DD	00H
	DD	040H
	DD	FLAT:??_R3?$CDynamicPoolEx@VCTextureAnimationRandomDecorator@NEffectUpdateDecorator@@@@8
rdata$r	ENDS
;	COMDAT ??_R2?$CDynamicPoolEx@VCTextureAnimationRandomDecorator@NEffectUpdateDecorator@@@@8
rdata$r	SEGMENT
??_R2?$CDynamicPoolEx@VCTextureAnimationRandomDecorator@NEffectUpdateDecorator@@@@8 DD FLAT:??_R1A@?0A@EA@?$CDynamicPoolEx@VCTextureAnimationRandomDecorator@NEffectUpdateDecorator@@@@8 ; CDynamicPoolEx<NEffectUpdateDecorator::CTextureAnimationRandomDecorator>::`RTTI Base Class Array'
rdata$r	ENDS
;	COMDAT ??_R3?$CDynamicPoolEx@VCTextureAnimationRandomDecorator@NEffectUpdateDecorator@@@@8
rdata$r	SEGMENT
??_R3?$CDynamicPoolEx@VCTextureAnimationRandomDecorator@NEffectUpdateDecorator@@@@8 DD 00H ; CDynamicPoolEx<NEffectUpdateDecorator::CTextureAnimationRandomDecorator>::`RTTI Class Hierarchy Descriptor'
	DD	00H
	DD	01H
	DD	FLAT:??_R2?$CDynamicPoolEx@VCTextureAnimationRandomDecorator@NEffectUpdateDecorator@@@@8
rdata$r	ENDS
;	COMDAT ??_R0?AV?$CDynamicPoolEx@VCTextureAnimationRandomDecorator@NEffectUpdateDecorator@@@@@8
data$rs	SEGMENT
??_R0?AV?$CDynamicPoolEx@VCTextureAnimationRandomDecorator@NEffectUpdateDecorator@@@@@8 DD FLAT:??_7type_info@@6B@ ; CDynamicPoolEx<NEffectUpdateDecorator::CTextureAnimationRandomDecorator> `RTTI Type Descriptor'
	DD	00H
	DB	'.?AV?$CDynamicPoolEx@VCTextureAnimationRandomDecorator@N'
	DB	'EffectUpdateDecorator@@@@', 00H
data$rs	ENDS
;	COMDAT ??_R4?$CDynamicPoolEx@VCTextureAnimationRandomDecorator@NEffectUpdateDecorator@@@@6B@
rdata$r	SEGMENT
??_R4?$CDynamicPoolEx@VCTextureAnimationRandomDecorator@NEffectUpdateDecorator@@@@6B@ DD 00H ; CDynamicPoolEx<NEffectUpdateDecorator::CTextureAnimationRandomDecorator>::`RTTI Complete Object Locator'
	DD	00H
	DD	00H
	DD	FLAT:??_R0?AV?$CDynamicPoolEx@VCTextureAnimationRandomDecorator@NEffectUpdateDecorator@@@@@8
	DD	FLAT:??_R3?$CDynamicPoolEx@VCTextureAnimationRandomDecorator@NEffectUpdateDecorator@@@@8
rdata$r	ENDS
;	COMDAT ??_R1A@?0A@EA@?$CDynamicPoolEx@VCTextureAnimationCCWDecorator@NEffectUpdateDecorator@@@@8
rdata$r	SEGMENT
??_R1A@?0A@EA@?$CDynamicPoolEx@VCTextureAnimationCCWDecorator@NEffectUpdateDecorator@@@@8 DD FLAT:??_R0?AV?$CDynamicPoolEx@VCTextureAnimationCCWDecorator@NEffectUpdateDecorator@@@@@8 ; CDynamicPoolEx<NEffectUpdateDecorator::CTextureAnimationCCWDecorator>::`RTTI Base Class Descriptor at (0,-1,0,64)'
	DD	00H
	DD	00H
	DD	0ffffffffH
	DD	00H
	DD	040H
	DD	FLAT:??_R3?$CDynamicPoolEx@VCTextureAnimationCCWDecorator@NEffectUpdateDecorator@@@@8
rdata$r	ENDS
;	COMDAT ??_R2?$CDynamicPoolEx@VCTextureAnimationCCWDecorator@NEffectUpdateDecorator@@@@8
rdata$r	SEGMENT
??_R2?$CDynamicPoolEx@VCTextureAnimationCCWDecorator@NEffectUpdateDecorator@@@@8 DD FLAT:??_R1A@?0A@EA@?$CDynamicPoolEx@VCTextureAnimationCCWDecorator@NEffectUpdateDecorator@@@@8 ; CDynamicPoolEx<NEffectUpdateDecorator::CTextureAnimationCCWDecorator>::`RTTI Base Class Array'
rdata$r	ENDS
;	COMDAT ??_R3?$CDynamicPoolEx@VCTextureAnimationCCWDecorator@NEffectUpdateDecorator@@@@8
rdata$r	SEGMENT
??_R3?$CDynamicPoolEx@VCTextureAnimationCCWDecorator@NEffectUpdateDecorator@@@@8 DD 00H ; CDynamicPoolEx<NEffectUpdateDecorator::CTextureAnimationCCWDecorator>::`RTTI Class Hierarchy Descriptor'
	DD	00H
	DD	01H
	DD	FLAT:??_R2?$CDynamicPoolEx@VCTextureAnimationCCWDecorator@NEffectUpdateDecorator@@@@8
rdata$r	ENDS
;	COMDAT ??_R0?AV?$CDynamicPoolEx@VCTextureAnimationCCWDecorator@NEffectUpdateDecorator@@@@@8
data$rs	SEGMENT
??_R0?AV?$CDynamicPoolEx@VCTextureAnimationCCWDecorator@NEffectUpdateDecorator@@@@@8 DD FLAT:??_7type_info@@6B@ ; CDynamicPoolEx<NEffectUpdateDecorator::CTextureAnimationCCWDecorator> `RTTI Type Descriptor'
	DD	00H
	DB	'.?AV?$CDynamicPoolEx@VCTextureAnimationCCWDecorator@NEff'
	DB	'ectUpdateDecorator@@@@', 00H
data$rs	ENDS
;	COMDAT ??_R4?$CDynamicPoolEx@VCTextureAnimationCCWDecorator@NEffectUpdateDecorator@@@@6B@
rdata$r	SEGMENT
??_R4?$CDynamicPoolEx@VCTextureAnimationCCWDecorator@NEffectUpdateDecorator@@@@6B@ DD 00H ; CDynamicPoolEx<NEffectUpdateDecorator::CTextureAnimationCCWDecorator>::`RTTI Complete Object Locator'
	DD	00H
	DD	00H
	DD	FLAT:??_R0?AV?$CDynamicPoolEx@VCTextureAnimationCCWDecorator@NEffectUpdateDecorator@@@@@8
	DD	FLAT:??_R3?$CDynamicPoolEx@VCTextureAnimationCCWDecorator@NEffectUpdateDecorator@@@@8
rdata$r	ENDS
;	COMDAT ??_R1A@?0A@EA@?$CDynamicPoolEx@VCTextureAnimationCWDecorator@NEffectUpdateDecorator@@@@8
rdata$r	SEGMENT
??_R1A@?0A@EA@?$CDynamicPoolEx@VCTextureAnimationCWDecorator@NEffectUpdateDecorator@@@@8 DD FLAT:??_R0?AV?$CDynamicPoolEx@VCTextureAnimationCWDecorator@NEffectUpdateDecorator@@@@@8 ; CDynamicPoolEx<NEffectUpdateDecorator::CTextureAnimationCWDecorator>::`RTTI Base Class Descriptor at (0,-1,0,64)'
	DD	00H
	DD	00H
	DD	0ffffffffH
	DD	00H
	DD	040H
	DD	FLAT:??_R3?$CDynamicPoolEx@VCTextureAnimationCWDecorator@NEffectUpdateDecorator@@@@8
rdata$r	ENDS
;	COMDAT ??_R2?$CDynamicPoolEx@VCTextureAnimationCWDecorator@NEffectUpdateDecorator@@@@8
rdata$r	SEGMENT
??_R2?$CDynamicPoolEx@VCTextureAnimationCWDecorator@NEffectUpdateDecorator@@@@8 DD FLAT:??_R1A@?0A@EA@?$CDynamicPoolEx@VCTextureAnimationCWDecorator@NEffectUpdateDecorator@@@@8 ; CDynamicPoolEx<NEffectUpdateDecorator::CTextureAnimationCWDecorator>::`RTTI Base Class Array'
rdata$r	ENDS
;	COMDAT ??_R3?$CDynamicPoolEx@VCTextureAnimationCWDecorator@NEffectUpdateDecorator@@@@8
rdata$r	SEGMENT
??_R3?$CDynamicPoolEx@VCTextureAnimationCWDecorator@NEffectUpdateDecorator@@@@8 DD 00H ; CDynamicPoolEx<NEffectUpdateDecorator::CTextureAnimationCWDecorator>::`RTTI Class Hierarchy Descriptor'
	DD	00H
	DD	01H
	DD	FLAT:??_R2?$CDynamicPoolEx@VCTextureAnimationCWDecorator@NEffectUpdateDecorator@@@@8
rdata$r	ENDS
;	COMDAT ??_R0?AV?$CDynamicPoolEx@VCTextureAnimationCWDecorator@NEffectUpdateDecorator@@@@@8
data$rs	SEGMENT
??_R0?AV?$CDynamicPoolEx@VCTextureAnimationCWDecorator@NEffectUpdateDecorator@@@@@8 DD FLAT:??_7type_info@@6B@ ; CDynamicPoolEx<NEffectUpdateDecorator::CTextureAnimationCWDecorator> `RTTI Type Descriptor'
	DD	00H
	DB	'.?AV?$CDynamicPoolEx@VCTextureAnimationCWDecorator@NEffe'
	DB	'ctUpdateDecorator@@@@', 00H
data$rs	ENDS
;	COMDAT ??_R4?$CDynamicPoolEx@VCTextureAnimationCWDecorator@NEffectUpdateDecorator@@@@6B@
rdata$r	SEGMENT
??_R4?$CDynamicPoolEx@VCTextureAnimationCWDecorator@NEffectUpdateDecorator@@@@6B@ DD 00H ; CDynamicPoolEx<NEffectUpdateDecorator::CTextureAnimationCWDecorator>::`RTTI Complete Object Locator'
	DD	00H
	DD	00H
	DD	FLAT:??_R0?AV?$CDynamicPoolEx@VCTextureAnimationCWDecorator@NEffectUpdateDecorator@@@@@8
	DD	FLAT:??_R3?$CDynamicPoolEx@VCTextureAnimationCWDecorator@NEffectUpdateDecorator@@@@8
rdata$r	ENDS
;	COMDAT ??_R1A@?0A@EA@?$CDynamicPoolEx@VCNullDecorator@NEffectUpdateDecorator@@@@8
rdata$r	SEGMENT
??_R1A@?0A@EA@?$CDynamicPoolEx@VCNullDecorator@NEffectUpdateDecorator@@@@8 DD FLAT:??_R0?AV?$CDynamicPoolEx@VCNullDecorator@NEffectUpdateDecorator@@@@@8 ; CDynamicPoolEx<NEffectUpdateDecorator::CNullDecorator>::`RTTI Base Class Descriptor at (0,-1,0,64)'
	DD	00H
	DD	00H
	DD	0ffffffffH
	DD	00H
	DD	040H
	DD	FLAT:??_R3?$CDynamicPoolEx@VCNullDecorator@NEffectUpdateDecorator@@@@8
rdata$r	ENDS
;	COMDAT ??_R2?$CDynamicPoolEx@VCNullDecorator@NEffectUpdateDecorator@@@@8
rdata$r	SEGMENT
??_R2?$CDynamicPoolEx@VCNullDecorator@NEffectUpdateDecorator@@@@8 DD FLAT:??_R1A@?0A@EA@?$CDynamicPoolEx@VCNullDecorator@NEffectUpdateDecorator@@@@8 ; CDynamicPoolEx<NEffectUpdateDecorator::CNullDecorator>::`RTTI Base Class Array'
rdata$r	ENDS
;	COMDAT ??_R3?$CDynamicPoolEx@VCNullDecorator@NEffectUpdateDecorator@@@@8
rdata$r	SEGMENT
??_R3?$CDynamicPoolEx@VCNullDecorator@NEffectUpdateDecorator@@@@8 DD 00H ; CDynamicPoolEx<NEffectUpdateDecorator::CNullDecorator>::`RTTI Class Hierarchy Descriptor'
	DD	00H
	DD	01H
	DD	FLAT:??_R2?$CDynamicPoolEx@VCNullDecorator@NEffectUpdateDecorator@@@@8
rdata$r	ENDS
;	COMDAT ??_R0?AV?$CDynamicPoolEx@VCNullDecorator@NEffectUpdateDecorator@@@@@8
data$rs	SEGMENT
??_R0?AV?$CDynamicPoolEx@VCNullDecorator@NEffectUpdateDecorator@@@@@8 DD FLAT:??_7type_info@@6B@ ; CDynamicPoolEx<NEffectUpdateDecorator::CNullDecorator> `RTTI Type Descriptor'
	DD	00H
	DB	'.?AV?$CDynamicPoolEx@VCNullDecorator@NEffectUpdateDecora'
	DB	'tor@@@@', 00H
data$rs	ENDS
;	COMDAT ??_R4?$CDynamicPoolEx@VCNullDecorator@NEffectUpdateDecorator@@@@6B@
rdata$r	SEGMENT
??_R4?$CDynamicPoolEx@VCNullDecorator@NEffectUpdateDecorator@@@@6B@ DD 00H ; CDynamicPoolEx<NEffectUpdateDecorator::CNullDecorator>::`RTTI Complete Object Locator'
	DD	00H
	DD	00H
	DD	FLAT:??_R0?AV?$CDynamicPoolEx@VCNullDecorator@NEffectUpdateDecorator@@@@@8
	DD	FLAT:??_R3?$CDynamicPoolEx@VCNullDecorator@NEffectUpdateDecorator@@@@8
rdata$r	ENDS
;	COMDAT ??_R1A@?0A@EA@?$CDynamicPoolEx@VCHeaderDecorator@NEffectUpdateDecorator@@@@8
rdata$r	SEGMENT
??_R1A@?0A@EA@?$CDynamicPoolEx@VCHeaderDecorator@NEffectUpdateDecorator@@@@8 DD FLAT:??_R0?AV?$CDynamicPoolEx@VCHeaderDecorator@NEffectUpdateDecorator@@@@@8 ; CDynamicPoolEx<NEffectUpdateDecorator::CHeaderDecorator>::`RTTI Base Class Descriptor at (0,-1,0,64)'
	DD	00H
	DD	00H
	DD	0ffffffffH
	DD	00H
	DD	040H
	DD	FLAT:??_R3?$CDynamicPoolEx@VCHeaderDecorator@NEffectUpdateDecorator@@@@8
rdata$r	ENDS
;	COMDAT ??_R2?$CDynamicPoolEx@VCHeaderDecorator@NEffectUpdateDecorator@@@@8
rdata$r	SEGMENT
??_R2?$CDynamicPoolEx@VCHeaderDecorator@NEffectUpdateDecorator@@@@8 DD FLAT:??_R1A@?0A@EA@?$CDynamicPoolEx@VCHeaderDecorator@NEffectUpdateDecorator@@@@8 ; CDynamicPoolEx<NEffectUpdateDecorator::CHeaderDecorator>::`RTTI Base Class Array'
rdata$r	ENDS
;	COMDAT ??_R3?$CDynamicPoolEx@VCHeaderDecorator@NEffectUpdateDecorator@@@@8
rdata$r	SEGMENT
??_R3?$CDynamicPoolEx@VCHeaderDecorator@NEffectUpdateDecorator@@@@8 DD 00H ; CDynamicPoolEx<NEffectUpdateDecorator::CHeaderDecorator>::`RTTI Class Hierarchy Descriptor'
	DD	00H
	DD	01H
	DD	FLAT:??_R2?$CDynamicPoolEx@VCHeaderDecorator@NEffectUpdateDecorator@@@@8
rdata$r	ENDS
;	COMDAT ??_R0?AV?$CDynamicPoolEx@VCHeaderDecorator@NEffectUpdateDecorator@@@@@8
data$rs	SEGMENT
??_R0?AV?$CDynamicPoolEx@VCHeaderDecorator@NEffectUpdateDecorator@@@@@8 DD FLAT:??_7type_info@@6B@ ; CDynamicPoolEx<NEffectUpdateDecorator::CHeaderDecorator> `RTTI Type Descriptor'
	DD	00H
	DB	'.?AV?$CDynamicPoolEx@VCHeaderDecorator@NEffectUpdateDeco'
	DB	'rator@@@@', 00H
data$rs	ENDS
;	COMDAT ??_R4?$CDynamicPoolEx@VCHeaderDecorator@NEffectUpdateDecorator@@@@6B@
rdata$r	SEGMENT
??_R4?$CDynamicPoolEx@VCHeaderDecorator@NEffectUpdateDecorator@@@@6B@ DD 00H ; CDynamicPoolEx<NEffectUpdateDecorator::CHeaderDecorator>::`RTTI Complete Object Locator'
	DD	00H
	DD	00H
	DD	FLAT:??_R0?AV?$CDynamicPoolEx@VCHeaderDecorator@NEffectUpdateDecorator@@@@@8
	DD	FLAT:??_R3?$CDynamicPoolEx@VCHeaderDecorator@NEffectUpdateDecorator@@@@8
rdata$r	ENDS
;	COMDAT ??_C@_0BC@KBDMBKEH@deque?$DMT?$DO?5too?5long@
CONST	SEGMENT
??_C@_0BC@KBDMBKEH@deque?$DMT?$DO?5too?5long@ DB 'deque<T> too long', 00H ; `string'
CONST	ENDS
;	COMDAT ??_C@_0BJ@DHFDPMIM@invalid?5vector?5subscript@
CONST	SEGMENT
??_C@_0BJ@DHFDPMIM@invalid?5vector?5subscript@ DB 'invalid vector subscri'
	DB	'pt', 00H					; `string'
CONST	ENDS
;	COMDAT ??_7?$CDynamicPoolEx@VCHeaderDecorator@NEffectUpdateDecorator@@@@6B@
CONST	SEGMENT
??_7?$CDynamicPoolEx@VCHeaderDecorator@NEffectUpdateDecorator@@@@6B@ DD FLAT:??_R4?$CDynamicPoolEx@VCHeaderDecorator@NEffectUpdateDecorator@@@@6B@ ; CDynamicPoolEx<NEffectUpdateDecorator::CHeaderDecorator>::`vftable'
	DD	FLAT:??_E?$CDynamicPoolEx@VCHeaderDecorator@NEffectUpdateDecorator@@@@UAEPAXI@Z
CONST	ENDS
;	COMDAT ??_7?$CDynamicPoolEx@VCNullDecorator@NEffectUpdateDecorator@@@@6B@
CONST	SEGMENT
??_7?$CDynamicPoolEx@VCNullDecorator@NEffectUpdateDecorator@@@@6B@ DD FLAT:??_R4?$CDynamicPoolEx@VCNullDecorator@NEffectUpdateDecorator@@@@6B@ ; CDynamicPoolEx<NEffectUpdateDecorator::CNullDecorator>::`vftable'
	DD	FLAT:??_E?$CDynamicPoolEx@VCNullDecorator@NEffectUpdateDecorator@@@@UAEPAXI@Z
CONST	ENDS
;	COMDAT ??_7?$CDynamicPoolEx@VCTextureAnimationCWDecorator@NEffectUpdateDecorator@@@@6B@
CONST	SEGMENT
??_7?$CDynamicPoolEx@VCTextureAnimationCWDecorator@NEffectUpdateDecorator@@@@6B@ DD FLAT:??_R4?$CDynamicPoolEx@VCTextureAnimationCWDecorator@NEffectUpdateDecorator@@@@6B@ ; CDynamicPoolEx<NEffectUpdateDecorator::CTextureAnimationCWDecorator>::`vftable'
	DD	FLAT:??_E?$CDynamicPoolEx@VCTextureAnimationCWDecorator@NEffectUpdateDecorator@@@@UAEPAXI@Z
CONST	ENDS
;	COMDAT ??_7?$CDynamicPoolEx@VCTextureAnimationCCWDecorator@NEffectUpdateDecorator@@@@6B@
CONST	SEGMENT
??_7?$CDynamicPoolEx@VCTextureAnimationCCWDecorator@NEffectUpdateDecorator@@@@6B@ DD FLAT:??_R4?$CDynamicPoolEx@VCTextureAnimationCCWDecorator@NEffectUpdateDecorator@@@@6B@ ; CDynamicPoolEx<NEffectUpdateDecorator::CTextureAnimationCCWDecorator>::`vftable'
	DD	FLAT:??_E?$CDynamicPoolEx@VCTextureAnimationCCWDecorator@NEffectUpdateDecorator@@@@UAEPAXI@Z
CONST	ENDS
;	COMDAT ??_7?$CDynamicPoolEx@VCTextureAnimationRandomDecorator@NEffectUpdateDecorator@@@@6B@
CONST	SEGMENT
??_7?$CDynamicPoolEx@VCTextureAnimationRandomDecorator@NEffectUpdateDecorator@@@@6B@ DD FLAT:??_R4?$CDynamicPoolEx@VCTextureAnimationRandomDecorator@NEffectUpdateDecorator@@@@6B@ ; CDynamicPoolEx<NEffectUpdateDecorator::CTextureAnimationRandomDecorator>::`vftable'
	DD	FLAT:??_E?$CDynamicPoolEx@VCTextureAnimationRandomDecorator@NEffectUpdateDecorator@@@@UAEPAXI@Z
CONST	ENDS
;	COMDAT ??_7?$CDynamicPoolEx@VCAirResistanceDecorator@NEffectUpdateDecorator@@@@6B@
CONST	SEGMENT
??_7?$CDynamicPoolEx@VCAirResistanceDecorator@NEffectUpdateDecorator@@@@6B@ DD FLAT:??_R4?$CDynamicPoolEx@VCAirResistanceDecorator@NEffectUpdateDecorator@@@@6B@ ; CDynamicPoolEx<NEffectUpdateDecorator::CAirResistanceDecorator>::`vftable'
	DD	FLAT:??_E?$CDynamicPoolEx@VCAirResistanceDecorator@NEffectUpdateDecorator@@@@UAEPAXI@Z
CONST	ENDS
;	COMDAT ??_7?$CDynamicPoolEx@VCGravityDecorator@NEffectUpdateDecorator@@@@6B@
CONST	SEGMENT
??_7?$CDynamicPoolEx@VCGravityDecorator@NEffectUpdateDecorator@@@@6B@ DD FLAT:??_R4?$CDynamicPoolEx@VCGravityDecorator@NEffectUpdateDecorator@@@@6B@ ; CDynamicPoolEx<NEffectUpdateDecorator::CGravityDecorator>::`vftable'
	DD	FLAT:??_E?$CDynamicPoolEx@VCGravityDecorator@NEffectUpdateDecorator@@@@UAEPAXI@Z
CONST	ENDS
;	COMDAT ??_7?$CDynamicPoolEx@VCRotationDecorator@NEffectUpdateDecorator@@@@6B@
CONST	SEGMENT
??_7?$CDynamicPoolEx@VCRotationDecorator@NEffectUpdateDecorator@@@@6B@ DD FLAT:??_R4?$CDynamicPoolEx@VCRotationDecorator@NEffectUpdateDecorator@@@@6B@ ; CDynamicPoolEx<NEffectUpdateDecorator::CRotationDecorator>::`vftable'
	DD	FLAT:??_E?$CDynamicPoolEx@VCRotationDecorator@NEffectUpdateDecorator@@@@UAEPAXI@Z
CONST	ENDS
;	COMDAT ??_C@_0EF@EBECGAL@CActorInstance?3?3__CanNextComboA@
CONST	SEGMENT
??_C@_0EF@EBECGAL@CActorInstance?3?3__CanNextComboA@ DB 'CActorInstance::'
	DB	'__CanNextComboAttack() - m_pkCurRaceMotionData==NULL', 00H ; `string'
CONST	ENDS
;	COMDAT ??_C@_0DM@CHLCPNIC@CActorInstance?3?3__CanAttack?$CI?$CJ?5?9@
CONST	SEGMENT
??_C@_0DM@CHLCPNIC@CActorInstance?3?3__CanAttack?$CI?$CJ?5?9@ DB 'CActorI'
	DB	'nstance::__CanAttack() - m_pkCurRaceMotionData==NULL', 00H ; `string'
CONST	ENDS
;	COMDAT ??_C@_0DP@MJFILIBP@CActorInstance?3?3__GetLoopCount?$CI@
CONST	SEGMENT
??_C@_0DP@MJFILIBP@CActorInstance?3?3__GetLoopCount?$CI@ DB 'CActorInstan'
	DB	'ce::__GetLoopCount() - m_pkCurRaceMotionData==NULL', 00H ; `string'
CONST	ENDS
;	COMDAT ??_C@_0BH@MJFHAINF@Failed?5to?5bind?5motion?4@
CONST	SEGMENT
??_C@_0BH@MJFHAINF@Failed?5to?5bind?5motion?4@ DB 'Failed to bind motion.'
	DB	00H						; `string'
CONST	ENDS
;	COMDAT ??_C@_0DH@FBKOGHDC@?A?V?$MA?N?$LA?x?$MA?L?5?$LO?F?$LE?O?$LG?s?$LI?i?5?$MA?L?$LF?$LP?A?$NP?$MA?L?$LG?s?5?$LF?$KF@
CONST	SEGMENT
??_C@_0DH@FBKOGHDC@?A?V?$MA?N?$LA?x?$MA?L?5?$LO?F?$LE?O?$LG?s?$LI?i?5?$MA?L?$LF?$LP?A?$NP?$MA?L?$LG?s?5?$LF?$KF@ DB 0c1H
	DB	0d6H, 0c0H, 0ceH, 0b0H, 0f8H, 0c0H, 0ccH, ' ', 0beH, 0c6H, 0b4H
	DB	0cfH, 0b6H, 0f3H, 0b8H, 0e9H, ' ', 0c0H, 0ccH, 0b5H, 0bfH, 0c1H
	DB	0dfH, 0c0H, 0ccH, 0b6H, 0f3H, ' ', 0b5H, 0a5H, 0b9H, 0ccH, 0c1H
	DB	0f6H, ' ', 0b5H, 0bfH, 0c0H, 0dbH, 0c0H, 0bbH, ' ', 0c3H, 0ebH
	DB	0c7H, 0cfH, 0c1H, 0f6H, ' ', 0beH, 0caH, 0c0H, 0bdH, 00H ; `string'
CONST	ENDS
;	COMDAT ??_C@_0DP@CBIMEEGJ@CActorInstance?3?3GetMotionDurati@
CONST	SEGMENT
??_C@_0DP@CBIMEEGJ@CActorInstance?3?3GetMotionDurati@ DB 'CActorInstance:'
	DB	':GetMotionDuration - Cannot get motion: %d / %d', 00H ; `string'
CONST	ENDS
;	COMDAT ??_C@_0JL@GEIDCHAJ@CActorInstance?3?3InterceptMotion@
CONST	SEGMENT
??_C@_0JL@GEIDCHAJ@CActorInstance?3?3InterceptMotion@ DB 'CActorInstance:'
	DB	':InterceptMotion(iLoopType=%d, wMotionMode=%d, wMotion=%d, fB'
	DB	'lendTime=%f) - GetMotionKey(m_wcurMotionMode=%d, wMotion=%d, '
	DB	'&MotionKey) ERROR', 00H			; `string'
CONST	ENDS
;	COMDAT ??_C@_0GC@LNLDMJJ@CActorInstance?3?3InterceptMotion@
CONST	SEGMENT
??_C@_0GC@LNLDMJJ@CActorInstance?3?3InterceptMotion@ DB 'CActorInstance::'
	DB	'InterceptMotion(iMotionType=%d, wMotion=%d, fBlendTime=%f) - '
	DB	'm_pkCurRaceData=NULL', 00H			; `string'
CONST	ENDS
;	COMDAT ??_C@_0IN@JKOADFII@CActorInstance?3?3SetLoopMotion?$CId@
CONST	SEGMENT
??_C@_0IN@JKOADFII@CActorInstance?3?3SetLoopMotion?$CId@ DB 'CActorInstan'
	DB	'ce::SetLoopMotion(dwMotion=%d, fBlendTime=%f, fSpeedRatio=%f)'
	DB	' - GetMotionKey(m_wcurMotionMode=%d, dwMotion=%d, &MotionKey)'
	DB	' ERROR', 00H				; `string'
CONST	ENDS
;	COMDAT ??_C@_0EK@IFOPNGGO@CActorInstance?3?3SetLoopMotion?$CId@
CONST	SEGMENT
??_C@_0EK@IFOPNGGO@CActorInstance?3?3SetLoopMotion?$CId@ DB 'CActorInstan'
	DB	'ce::SetLoopMotion(dwMotion=%d, fBlendTime=%f, fSpeedRatio=%f)'
	DB	00H						; `string'
CONST	ENDS
;	COMDAT ??_C@_0CO@FPMNJLLG@?5Error?5?9?5Not?5found?5want?5to?5usin@
CONST	SEGMENT
??_C@_0CO@FPMNJLLG@?5Error?5?9?5Not?5found?5want?5to?5usin@ DB ' Error - '
	DB	'Not found want to using motion : %d', 0aH, 00H ; `string'
CONST	ENDS
;	COMDAT ??_R1A@?0A@EA@bad_array_new_length@std@@8
rdata$r	SEGMENT
??_R1A@?0A@EA@bad_array_new_length@std@@8 DD FLAT:??_R0?AVbad_array_new_length@std@@@8 ; std::bad_array_new_length::`RTTI Base Class Descriptor at (0,-1,0,64)'
	DD	02H
	DD	00H
	DD	0ffffffffH
	DD	00H
	DD	040H
	DD	FLAT:??_R3bad_array_new_length@std@@8
rdata$r	ENDS
;	COMDAT ??_R2bad_array_new_length@std@@8
rdata$r	SEGMENT
??_R2bad_array_new_length@std@@8 DD FLAT:??_R1A@?0A@EA@bad_array_new_length@std@@8 ; std::bad_array_new_length::`RTTI Base Class Array'
	DD	FLAT:??_R1A@?0A@EA@bad_alloc@std@@8
	DD	FLAT:??_R1A@?0A@EA@exception@std@@8
rdata$r	ENDS
;	COMDAT ??_R3bad_array_new_length@std@@8
rdata$r	SEGMENT
??_R3bad_array_new_length@std@@8 DD 00H			; std::bad_array_new_length::`RTTI Class Hierarchy Descriptor'
	DD	00H
	DD	03H
	DD	FLAT:??_R2bad_array_new_length@std@@8
rdata$r	ENDS
;	COMDAT ??_R4bad_array_new_length@std@@6B@
rdata$r	SEGMENT
??_R4bad_array_new_length@std@@6B@ DD 00H		; std::bad_array_new_length::`RTTI Complete Object Locator'
	DD	00H
	DD	00H
	DD	FLAT:??_R0?AVbad_array_new_length@std@@@8
	DD	FLAT:??_R3bad_array_new_length@std@@8
rdata$r	ENDS
;	COMDAT ??_R1A@?0A@EA@bad_alloc@std@@8
rdata$r	SEGMENT
??_R1A@?0A@EA@bad_alloc@std@@8 DD FLAT:??_R0?AVbad_alloc@std@@@8 ; std::bad_alloc::`RTTI Base Class Descriptor at (0,-1,0,64)'
	DD	01H
	DD	00H
	DD	0ffffffffH
	DD	00H
	DD	040H
	DD	FLAT:??_R3bad_alloc@std@@8
rdata$r	ENDS
;	COMDAT ??_R2bad_alloc@std@@8
rdata$r	SEGMENT
??_R2bad_alloc@std@@8 DD FLAT:??_R1A@?0A@EA@bad_alloc@std@@8 ; std::bad_alloc::`RTTI Base Class Array'
	DD	FLAT:??_R1A@?0A@EA@exception@std@@8
rdata$r	ENDS
;	COMDAT ??_R3bad_alloc@std@@8
rdata$r	SEGMENT
??_R3bad_alloc@std@@8 DD 00H				; std::bad_alloc::`RTTI Class Hierarchy Descriptor'
	DD	00H
	DD	02H
	DD	FLAT:??_R2bad_alloc@std@@8
rdata$r	ENDS
;	COMDAT ??_R4bad_alloc@std@@6B@
rdata$r	SEGMENT
??_R4bad_alloc@std@@6B@ DD 00H				; std::bad_alloc::`RTTI Complete Object Locator'
	DD	00H
	DD	00H
	DD	FLAT:??_R0?AVbad_alloc@std@@@8
	DD	FLAT:??_R3bad_alloc@std@@8
rdata$r	ENDS
;	COMDAT ??_R1A@?0A@EA@exception@std@@8
rdata$r	SEGMENT
??_R1A@?0A@EA@exception@std@@8 DD FLAT:??_R0?AVexception@std@@@8 ; std::exception::`RTTI Base Class Descriptor at (0,-1,0,64)'
	DD	00H
	DD	00H
	DD	0ffffffffH
	DD	00H
	DD	040H
	DD	FLAT:??_R3exception@std@@8
rdata$r	ENDS
;	COMDAT ??_R2exception@std@@8
rdata$r	SEGMENT
??_R2exception@std@@8 DD FLAT:??_R1A@?0A@EA@exception@std@@8 ; std::exception::`RTTI Base Class Array'
rdata$r	ENDS
;	COMDAT ??_R3exception@std@@8
rdata$r	SEGMENT
??_R3exception@std@@8 DD 00H				; std::exception::`RTTI Class Hierarchy Descriptor'
	DD	00H
	DD	01H
	DD	FLAT:??_R2exception@std@@8
rdata$r	ENDS
;	COMDAT ??_R4exception@std@@6B@
rdata$r	SEGMENT
??_R4exception@std@@6B@ DD 00H				; std::exception::`RTTI Complete Object Locator'
	DD	00H
	DD	00H
	DD	FLAT:??_R0?AVexception@std@@@8
	DD	FLAT:??_R3exception@std@@8
rdata$r	ENDS
;	COMDAT __CT??_R0?AVexception@std@@@8??0exception@std@@QAE@ABV01@@Z12
xdata$x	SEGMENT
__CT??_R0?AVexception@std@@@8??0exception@std@@QAE@ABV01@@Z12 DD 00H
	DD	FLAT:??_R0?AVexception@std@@@8
	DD	00H
	DD	0ffffffffH
	ORG $+4
	DD	0cH
	DD	FLAT:??0exception@std@@QAE@ABV01@@Z
xdata$x	ENDS
;	COMDAT ??_R0?AVexception@std@@@8
data$r	SEGMENT
??_R0?AVexception@std@@@8 DD FLAT:??_7type_info@@6B@	; std::exception `RTTI Type Descriptor'
	DD	00H
	DB	'.?AVexception@std@@', 00H
data$r	ENDS
;	COMDAT __CT??_R0?AVbad_alloc@std@@@8??0bad_alloc@std@@QAE@ABV01@@Z12
xdata$x	SEGMENT
__CT??_R0?AVbad_alloc@std@@@8??0bad_alloc@std@@QAE@ABV01@@Z12 DD 010H
	DD	FLAT:??_R0?AVbad_alloc@std@@@8
	DD	00H
	DD	0ffffffffH
	ORG $+4
	DD	0cH
	DD	FLAT:??0bad_alloc@std@@QAE@ABV01@@Z
xdata$x	ENDS
;	COMDAT ??_R0?AVbad_alloc@std@@@8
data$r	SEGMENT
??_R0?AVbad_alloc@std@@@8 DD FLAT:??_7type_info@@6B@	; std::bad_alloc `RTTI Type Descriptor'
	DD	00H
	DB	'.?AVbad_alloc@std@@', 00H
data$r	ENDS
;	COMDAT __CT??_R0?AVbad_array_new_length@std@@@8??0bad_array_new_length@std@@QAE@ABV01@@Z12
xdata$x	SEGMENT
__CT??_R0?AVbad_array_new_length@std@@@8??0bad_array_new_length@std@@QAE@ABV01@@Z12 DD 00H
	DD	FLAT:??_R0?AVbad_array_new_length@std@@@8
	DD	00H
	DD	0ffffffffH
	ORG $+4
	DD	0cH
	DD	FLAT:??0bad_array_new_length@std@@QAE@ABV01@@Z
xdata$x	ENDS
;	COMDAT ??_R0?AVbad_array_new_length@std@@@8
data$r	SEGMENT
??_R0?AVbad_array_new_length@std@@@8 DD FLAT:??_7type_info@@6B@ ; std::bad_array_new_length `RTTI Type Descriptor'
	DD	00H
	DB	'.?AVbad_array_new_length@std@@', 00H
data$r	ENDS
;	COMDAT __CTA3?AVbad_array_new_length@std@@
xdata$x	SEGMENT
__CTA3?AVbad_array_new_length@std@@ DD 03H
	DD	FLAT:__CT??_R0?AVbad_array_new_length@std@@@8??0bad_array_new_length@std@@QAE@ABV01@@Z12
	DD	FLAT:__CT??_R0?AVbad_alloc@std@@@8??0bad_alloc@std@@QAE@ABV01@@Z12
	DD	FLAT:__CT??_R0?AVexception@std@@@8??0exception@std@@QAE@ABV01@@Z12
xdata$x	ENDS
;	COMDAT __TI3?AVbad_array_new_length@std@@
xdata$x	SEGMENT
__TI3?AVbad_array_new_length@std@@ DD 00H
	DD	FLAT:??1bad_array_new_length@std@@UAE@XZ
	DD	00H
	DD	FLAT:__CTA3?AVbad_array_new_length@std@@
xdata$x	ENDS
;	COMDAT ??_C@_0BF@KINCDENJ@bad?5array?5new?5length@
CONST	SEGMENT
??_C@_0BF@KINCDENJ@bad?5array?5new?5length@ DB 'bad array new length', 00H ; `string'
CONST	ENDS
;	COMDAT ??_7bad_array_new_length@std@@6B@
CONST	SEGMENT
??_7bad_array_new_length@std@@6B@ DD FLAT:??_R4bad_array_new_length@std@@6B@ ; std::bad_array_new_length::`vftable'
	DD	FLAT:??_Ebad_array_new_length@std@@UAEPAXI@Z
	DD	FLAT:?what@exception@std@@UBEPBDXZ
CONST	ENDS
;	COMDAT ??_7bad_alloc@std@@6B@
CONST	SEGMENT
??_7bad_alloc@std@@6B@ DD FLAT:??_R4bad_alloc@std@@6B@	; std::bad_alloc::`vftable'
	DD	FLAT:??_Ebad_alloc@std@@UAEPAXI@Z
	DD	FLAT:?what@exception@std@@UBEPBDXZ
CONST	ENDS
;	COMDAT ??_C@_0BC@EOODALEL@Unknown?5exception@
CONST	SEGMENT
??_C@_0BC@EOODALEL@Unknown?5exception@ DB 'Unknown exception', 00H ; `string'
CONST	ENDS
;	COMDAT ??_7exception@std@@6B@
CONST	SEGMENT
??_7exception@std@@6B@ DD FLAT:??_R4exception@std@@6B@	; std::exception::`vftable'
	DD	FLAT:??_Eexception@std@@UAEPAXI@Z
	DD	FLAT:?what@exception@std@@UBEPBDXZ
CONST	ENDS
;	COMDAT xdata$x
xdata$x	SEGMENT
__ehfuncinfo$??1?$CDynamicPoolEx@VCHeaderDecorator@NEffectUpdateDecorator@@@@UAE@XZ DD 019930522H
	DD	00H
	DD	00H
	DD	2 DUP(00H)
	DD	2 DUP(00H)
	DD	00H
	DD	05H
xdata$x	ENDS
;	COMDAT xdata$x
xdata$x	SEGMENT
__ehfuncinfo$??1?$CDynamicPoolEx@VCNullDecorator@NEffectUpdateDecorator@@@@UAE@XZ DD 019930522H
	DD	00H
	DD	00H
	DD	2 DUP(00H)
	DD	2 DUP(00H)
	DD	00H
	DD	05H
xdata$x	ENDS
;	COMDAT xdata$x
xdata$x	SEGMENT
__ehfuncinfo$??1?$CDynamicPoolEx@VCTextureAnimationCWDecorator@NEffectUpdateDecorator@@@@UAE@XZ DD 019930522H
	DD	00H
	DD	00H
	DD	2 DUP(00H)
	DD	2 DUP(00H)
	DD	00H
	DD	05H
xdata$x	ENDS
;	COMDAT xdata$x
xdata$x	SEGMENT
__ehfuncinfo$??1?$CDynamicPoolEx@VCTextureAnimationCCWDecorator@NEffectUpdateDecorator@@@@UAE@XZ DD 019930522H
	DD	00H
	DD	00H
	DD	2 DUP(00H)
	DD	2 DUP(00H)
	DD	00H
	DD	05H
xdata$x	ENDS
;	COMDAT xdata$x
xdata$x	SEGMENT
__ehfuncinfo$??1?$CDynamicPoolEx@VCTextureAnimationRandomDecorator@NEffectUpdateDecorator@@@@UAE@XZ DD 019930522H
	DD	00H
	DD	00H
	DD	2 DUP(00H)
	DD	2 DUP(00H)
	DD	00H
	DD	05H
xdata$x	ENDS
;	COMDAT xdata$x
xdata$x	SEGMENT
__ehfuncinfo$??1?$CDynamicPoolEx@VCAirResistanceDecorator@NEffectUpdateDecorator@@@@UAE@XZ DD 019930522H
	DD	00H
	DD	00H
	DD	2 DUP(00H)
	DD	2 DUP(00H)
	DD	00H
	DD	05H
xdata$x	ENDS
;	COMDAT xdata$x
xdata$x	SEGMENT
__ehfuncinfo$??1?$CDynamicPoolEx@VCGravityDecorator@NEffectUpdateDecorator@@@@UAE@XZ DD 019930522H
	DD	00H
	DD	00H
	DD	2 DUP(00H)
	DD	2 DUP(00H)
	DD	00H
	DD	05H
xdata$x	ENDS
;	COMDAT xdata$x
xdata$x	SEGMENT
__ehfuncinfo$??1?$CDynamicPoolEx@VCRotationDecorator@NEffectUpdateDecorator@@@@UAE@XZ DD 019930522H
	DD	00H
	DD	00H
	DD	2 DUP(00H)
	DD	2 DUP(00H)
	DD	00H
	DD	05H
xdata$x	ENDS
;	COMDAT xdata$x
xdata$x	SEGMENT
__ehfuncinfo$??$_Deallocate@$07$0A@@std@@YAXPAXI@Z DD 019930522H
	DD	00H
	DD	00H
	DD	2 DUP(00H)
	DD	2 DUP(00H)
	DD	00H
	DD	05H
xdata$x	ENDS
;	COMDAT CRT$XCU
CRT$XCU	SEGMENT
??ms_kPool$initializer$@?$CPooledObject@VCNullDecorator@NEffectUpdateDecorator@@@@1P6AXXZA@@3P6AXXZA DD FLAT:??__E?ms_kPool@?$CPooledObject@VCNullDecorator@NEffectUpdateDecorator@@@@1V?$CDynamicPoolEx@VCNullDecorator@NEffectUpdateDecorator@@@@A@@YAXXZ ; ??ms_kPool$initializer$@?$CPooledObject@VCNullDecorator@NEffectUpdateDecorator@@@@1P6AXXZA@@3P6AXXZA
CRT$XCU	ENDS
;	COMDAT CRT$XCU
CRT$XCU	SEGMENT
??ms_kPool$initializer$@?$CPooledObject@VCTextureAnimationCWDecorator@NEffectUpdateDecorator@@@@1P6AXXZA@@3P6AXXZA DD FLAT:??__E?ms_kPool@?$CPooledObject@VCTextureAnimationCWDecorator@NEffectUpdateDecorator@@@@1V?$CDynamicPoolEx@VCTextureAnimationCWDecorator@NEffectUpdateDecorator@@@@A@@YAXXZ ; ??ms_kPool$initializer$@?$CPooledObject@VCTextureAnimationCWDecorator@NEffectUpdateDecorator@@@@1P6AXXZA@@3P6AXXZA
CRT$XCU	ENDS
;	COMDAT CRT$XCU
CRT$XCU	SEGMENT
??ms_kPool$initializer$@?$CPooledObject@VCTextureAnimationCCWDecorator@NEffectUpdateDecorator@@@@1P6AXXZA@@3P6AXXZA DD FLAT:??__E?ms_kPool@?$CPooledObject@VCTextureAnimationCCWDecorator@NEffectUpdateDecorator@@@@1V?$CDynamicPoolEx@VCTextureAnimationCCWDecorator@NEffectUpdateDecorator@@@@A@@YAXXZ ; ??ms_kPool$initializer$@?$CPooledObject@VCTextureAnimationCCWDecorator@NEffectUpdateDecorator@@@@1P6AXXZA@@3P6AXXZA
CRT$XCU	ENDS
;	COMDAT CRT$XCU
CRT$XCU	SEGMENT
??ms_kPool$initializer$@?$CPooledObject@VCTextureAnimationRandomDecorator@NEffectUpdateDecorator@@@@1P6AXXZA@@3P6AXXZA DD FLAT:??__E?ms_kPool@?$CPooledObject@VCTextureAnimationRandomDecorator@NEffectUpdateDecorator@@@@1V?$CDynamicPoolEx@VCTextureAnimationRandomDecorator@NEffectUpdateDecorator@@@@A@@YAXXZ ; ??ms_kPool$initializer$@?$CPooledObject@VCTextureAnimationRandomDecorator@NEffectUpdateDecorator@@@@1P6AXXZA@@3P6AXXZA
CRT$XCU	ENDS
;	COMDAT CRT$XCU
CRT$XCU	SEGMENT
??ms_kPool$initializer$@?$CPooledObject@VCAirResistanceDecorator@NEffectUpdateDecorator@@@@1P6AXXZA@@3P6AXXZA DD FLAT:??__E?ms_kPool@?$CPooledObject@VCAirResistanceDecorator@NEffectUpdateDecorator@@@@1V?$CDynamicPoolEx@VCAirResistanceDecorator@NEffectUpdateDecorator@@@@A@@YAXXZ ; ??ms_kPool$initializer$@?$CPooledObject@VCAirResistanceDecorator@NEffectUpdateDecorator@@@@1P6AXXZA@@3P6AXXZA
CRT$XCU	ENDS
;	COMDAT CRT$XCU
CRT$XCU	SEGMENT
??ms_kPool$initializer$@?$CPooledObject@VCGravityDecorator@NEffectUpdateDecorator@@@@1P6AXXZA@@3P6AXXZA DD FLAT:??__E?ms_kPool@?$CPooledObject@VCGravityDecorator@NEffectUpdateDecorator@@@@1V?$CDynamicPoolEx@VCGravityDecorator@NEffectUpdateDecorator@@@@A@@YAXXZ ; ??ms_kPool$initializer$@?$CPooledObject@VCGravityDecorator@NEffectUpdateDecorator@@@@1P6AXXZA@@3P6AXXZA
CRT$XCU	ENDS
;	COMDAT CRT$XCU
CRT$XCU	SEGMENT
??ms_kPool$initializer$@?$CPooledObject@VCRotationDecorator@NEffectUpdateDecorator@@@@1P6AXXZA@@3P6AXXZA DD FLAT:??__E?ms_kPool@?$CPooledObject@VCRotationDecorator@NEffectUpdateDecorator@@@@1V?$CDynamicPoolEx@VCRotationDecorator@NEffectUpdateDecorator@@@@A@@YAXXZ ; ??ms_kPool$initializer$@?$CPooledObject@VCRotationDecorator@NEffectUpdateDecorator@@@@1P6AXXZA@@3P6AXXZA
CRT$XCU	ENDS
; Function compile flags: /Odspy
; File C:\Program Files (x86)\Microsoft Visual Studio\2019\Community\VC\Tools\MSVC\14.28.29333\include\xmemory
;	COMDAT ??$_Destroy_in_place@PAU?$_Tree_node@U?$pair@QAVCActorInstance@@M@std@@PAX@std@@@std@@YAXAAPAU?$_Tree_node@U?$pair@QAVCActorInstance@@M@std@@PAX@0@@Z
_TEXT	SEGMENT
__Obj$ = 8						; size = 4
??$_Destroy_in_place@PAU?$_Tree_node@U?$pair@QAVCActorInstance@@M@std@@PAX@std@@@std@@YAXAAPAU?$_Tree_node@U?$pair@QAVCActorInstance@@M@std@@PAX@0@@Z PROC ; std::_Destroy_in_place<std::_Tree_node<std::pair<CActorInstance * const,float>,void *> *>, COMDAT

; 270  : /* _CONSTEXPR20_DYNALLOC */ void _Destroy_in_place(_Ty& _Obj) noexcept {

  00000	55		 push	 ebp
  00001	8b ec		 mov	 ebp, esp

; 271  : #if _HAS_IF_CONSTEXPR
; 272  :     if constexpr (is_array_v<_Ty>) {
; 273  :         _Destroy_range(_Obj, _Obj + extent_v<_Ty>);
; 274  :     } else
; 275  : #endif // _HAS_IF_CONSTEXPR
; 276  :     {
; 277  :         _Obj.~_Ty();
; 278  :     }
; 279  : }

  00003	5d		 pop	 ebp
  00004	c3		 ret	 0
??$_Destroy_in_place@PAU?$_Tree_node@U?$pair@QAVCActorInstance@@M@std@@PAX@std@@@std@@YAXAAPAU?$_Tree_node@U?$pair@QAVCActorInstance@@M@std@@PAX@0@@Z ENDP ; std::_Destroy_in_place<std::_Tree_node<std::pair<CActorInstance * const,float>,void *> *>
_TEXT	ENDS
; Function compile flags: /Odspy
; File C:\Program Files (x86)\Microsoft Visual Studio\2019\Community\VC\Tools\MSVC\14.28.29333\include\xtree
; File C:\Program Files (x86)\Microsoft Visual Studio\2019\Community\VC\Tools\MSVC\14.28.29333\include\xmemory
; File C:\Program Files (x86)\Microsoft Visual Studio\2019\Community\VC\Tools\MSVC\14.28.29333\include\xtree
;	COMDAT ??$_Freenode0@V?$allocator@U?$_Tree_node@U?$pair@QAVCActorInstance@@M@std@@PAX@std@@@std@@@?$_Tree_node@U?$pair@QAVCActorInstance@@M@std@@PAX@std@@SAXAAV?$allocator@U?$_Tree_node@U?$pair@QAVCActorInstance@@M@std@@PAX@std@@@1@PAU01@@Z
_TEXT	SEGMENT
__Al$ = 8						; size = 4
__Ptr$ = 12						; size = 4
??$_Freenode0@V?$allocator@U?$_Tree_node@U?$pair@QAVCActorInstance@@M@std@@PAX@std@@@std@@@?$_Tree_node@U?$pair@QAVCActorInstance@@M@std@@PAX@std@@SAXAAV?$allocator@U?$_Tree_node@U?$pair@QAVCActorInstance@@M@std@@PAX@std@@@1@PAU01@@Z PROC ; std::_Tree_node<std::pair<CActorInstance * const,float>,void *>::_Freenode0<std::allocator<std::_Tree_node<std::pair<CActorInstance * const,float>,void *> > >, COMDAT

; 368  :     static void _Freenode0(_Alloc& _Al, _Nodeptr _Ptr) noexcept {

  00000	55		 push	 ebp
  00001	8b ec		 mov	 ebp, esp

; 369  :         static_assert(is_same_v<typename _Alloc::value_type, _Tree_node>, "Bad _Freenode0 call");
; 370  :         _Destroy_in_place(_Ptr->_Left);

  00003	ff 75 0c	 push	 DWORD PTR __Ptr$[ebp]
  00006	e8 00 00 00 00	 call	 ??$_Destroy_in_place@PAU?$_Tree_node@U?$pair@QAVCActorInstance@@M@std@@PAX@std@@@std@@YAXAAPAU?$_Tree_node@U?$pair@QAVCActorInstance@@M@std@@PAX@0@@Z ; std::_Destroy_in_place<std::_Tree_node<std::pair<CActorInstance * const,float>,void *> *>
  0000b	59		 pop	 ecx

; 371  :         _Destroy_in_place(_Ptr->_Parent);

  0000c	8b 45 0c	 mov	 eax, DWORD PTR __Ptr$[ebp]
  0000f	83 c0 04	 add	 eax, 4
  00012	50		 push	 eax
  00013	e8 00 00 00 00	 call	 ??$_Destroy_in_place@PAU?$_Tree_node@U?$pair@QAVCActorInstance@@M@std@@PAX@std@@@std@@YAXAAPAU?$_Tree_node@U?$pair@QAVCActorInstance@@M@std@@PAX@0@@Z ; std::_Destroy_in_place<std::_Tree_node<std::pair<CActorInstance * const,float>,void *> *>
  00018	59		 pop	 ecx

; 372  :         _Destroy_in_place(_Ptr->_Right);

  00019	8b 45 0c	 mov	 eax, DWORD PTR __Ptr$[ebp]
  0001c	83 c0 08	 add	 eax, 8
  0001f	50		 push	 eax
  00020	e8 00 00 00 00	 call	 ??$_Destroy_in_place@PAU?$_Tree_node@U?$pair@QAVCActorInstance@@M@std@@PAX@std@@@std@@YAXAAPAU?$_Tree_node@U?$pair@QAVCActorInstance@@M@std@@PAX@0@@Z ; std::_Destroy_in_place<std::_Tree_node<std::pair<CActorInstance * const,float>,void *> *>
  00025	59		 pop	 ecx
; File C:\Program Files (x86)\Microsoft Visual Studio\2019\Community\VC\Tools\MSVC\14.28.29333\include\xmemory

; 696  :         _Deallocate<_New_alignof<value_type>>(_Ptr, sizeof(value_type) * _Count);

  00026	33 c0		 xor	 eax, eax
  00028	40		 inc	 eax
  00029	6b c0 18	 imul	 eax, eax, 24
  0002c	50		 push	 eax
  0002d	ff 75 0c	 push	 DWORD PTR __Ptr$[ebp]
  00030	e8 00 00 00 00	 call	 ??$_Deallocate@$07$0A@@std@@YAXPAXI@Z ; std::_Deallocate<8,0>
  00035	59		 pop	 ecx
  00036	59		 pop	 ecx
; File C:\Program Files (x86)\Microsoft Visual Studio\2019\Community\VC\Tools\MSVC\14.28.29333\include\xtree

; 374  :     }

  00037	5d		 pop	 ebp
  00038	c3		 ret	 0
??$_Freenode0@V?$allocator@U?$_Tree_node@U?$pair@QAVCActorInstance@@M@std@@PAX@std@@@std@@@?$_Tree_node@U?$pair@QAVCActorInstance@@M@std@@PAX@std@@SAXAAV?$allocator@U?$_Tree_node@U?$pair@QAVCActorInstance@@M@std@@PAX@std@@@1@PAU01@@Z ENDP ; std::_Tree_node<std::pair<CActorInstance * const,float>,void *>::_Freenode0<std::allocator<std::_Tree_node<std::pair<CActorInstance * const,float>,void *> > >
_TEXT	ENDS
; Function compile flags: /Odspy
; File C:\Program Files (x86)\Microsoft Visual Studio\2019\Community\VC\Tools\MSVC\14.28.29333\include\xtree
; File C:\Program Files (x86)\Microsoft Visual Studio\2019\Community\VC\Tools\MSVC\14.28.29333\include\utility
; File C:\Program Files (x86)\Microsoft Visual Studio\2019\Community\VC\Tools\MSVC\14.28.29333\include\xtree
; File C:\Program Files (x86)\Microsoft Visual Studio\2019\Community\VC\Tools\MSVC\14.28.29333\include\xstddef
; File C:\Program Files (x86)\Microsoft Visual Studio\2019\Community\VC\Tools\MSVC\14.28.29333\include\xtree
;	COMDAT ??$_Erase_tree@V?$allocator@U?$_Tree_node@U?$pair@QAVCActorInstance@@M@std@@PAX@std@@@std@@@?$_Tree_val@U?$_Tree_simple_types@U?$pair@QAVCActorInstance@@M@std@@@std@@@std@@QAEXAAV?$allocator@U?$_Tree_node@U?$pair@QAVCActorInstance@@M@std@@PAX@std@@@1@PAU?$_Tree_node@U?$pair@QAVCActorInstance@@M@std@@PAX@1@@Z
_TEXT	SEGMENT
$T1 = -20						; size = 4
__Old_val$2 = -16					; size = 4
__New_val$ = -12					; size = 4
_this$ = -8						; size = 4
$T3 = -4						; size = 4
__Al$ = 8						; size = 4
__Rootnode$ = 12					; size = 4
??$_Erase_tree@V?$allocator@U?$_Tree_node@U?$pair@QAVCActorInstance@@M@std@@PAX@std@@@std@@@?$_Tree_val@U?$_Tree_simple_types@U?$pair@QAVCActorInstance@@M@std@@@std@@@std@@QAEXAAV?$allocator@U?$_Tree_node@U?$pair@QAVCActorInstance@@M@std@@PAX@std@@@1@PAU?$_Tree_node@U?$pair@QAVCActorInstance@@M@std@@PAX@1@@Z PROC ; std::_Tree_val<std::_Tree_simple_types<std::pair<CActorInstance * const,float> > >::_Erase_tree<std::allocator<std::_Tree_node<std::pair<CActorInstance * const,float>,void *> > >, COMDAT
; _this$ = ecx

; 742  :     void _Erase_tree(_Alnode& _Al, _Nodeptr _Rootnode) noexcept {

  00000	55		 push	 ebp
  00001	8b ec		 mov	 ebp, esp
  00003	83 ec 14	 sub	 esp, 20			; 00000014H
  00006	89 4d f8	 mov	 DWORD PTR _this$[ebp], ecx
$LN2@Erase_tree:

; 743  :         while (!_Rootnode->_Isnil) { // free subtrees, then node

  00009	8b 45 0c	 mov	 eax, DWORD PTR __Rootnode$[ebp]
  0000c	0f be 40 0d	 movsx	 eax, BYTE PTR [eax+13]
  00010	85 c0		 test	 eax, eax
  00012	75 43		 jne	 SHORT $LN4@Erase_tree

; 744  :             _Erase_tree(_Al, _Rootnode->_Right);

  00014	8b 45 0c	 mov	 eax, DWORD PTR __Rootnode$[ebp]
  00017	ff 70 08	 push	 DWORD PTR [eax+8]
  0001a	ff 75 08	 push	 DWORD PTR __Al$[ebp]
  0001d	8b 4d f8	 mov	 ecx, DWORD PTR _this$[ebp]
  00020	e8 00 00 00 00	 call	 ??$_Erase_tree@V?$allocator@U?$_Tree_node@U?$pair@QAVCActorInstance@@M@std@@PAX@std@@@std@@@?$_Tree_val@U?$_Tree_simple_types@U?$pair@QAVCActorInstance@@M@std@@@std@@@std@@QAEXAAV?$allocator@U?$_Tree_node@U?$pair@QAVCActorInstance@@M@std@@PAX@std@@@1@PAU?$_Tree_node@U?$pair@QAVCActorInstance@@M@std@@PAX@1@@Z ; std::_Tree_val<std::_Tree_simple_types<std::pair<CActorInstance * const,float> > >::_Erase_tree<std::allocator<std::_Tree_node<std::pair<CActorInstance * const,float>,void *> > >

; 745  :             _Alnode::value_type::_Freenode(_Al, _STD exchange(_Rootnode, _Rootnode->_Left));

  00025	8b 45 0c	 mov	 eax, DWORD PTR __Rootnode$[ebp]
  00028	89 45 f4	 mov	 DWORD PTR __New_val$[ebp], eax
; File C:\Program Files (x86)\Microsoft Visual Studio\2019\Community\VC\Tools\MSVC\14.28.29333\include\utility

; 598  :     _Ty _Old_val = static_cast<_Ty&&>(_Val);

  0002b	8b 45 0c	 mov	 eax, DWORD PTR __Rootnode$[ebp]
  0002e	89 45 f0	 mov	 DWORD PTR __Old_val$2[ebp], eax

; 599  :     _Val         = static_cast<_Other&&>(_New_val);

  00031	8b 45 f4	 mov	 eax, DWORD PTR __New_val$[ebp]
  00034	8b 00		 mov	 eax, DWORD PTR [eax]
  00036	89 45 0c	 mov	 DWORD PTR __Rootnode$[ebp], eax

; 600  :     return _Old_val;

  00039	8b 45 f0	 mov	 eax, DWORD PTR __Old_val$2[ebp]
  0003c	89 45 fc	 mov	 DWORD PTR $T3[ebp], eax
; File C:\Program Files (x86)\Microsoft Visual Studio\2019\Community\VC\Tools\MSVC\14.28.29333\include\xtree

; 379  :         allocator_traits<_Alloc>::destroy(_Al, _STD addressof(_Ptr->_Myval));

  0003f	8b 45 fc	 mov	 eax, DWORD PTR $T3[ebp]
  00042	83 c0 10	 add	 eax, 16			; 00000010H
; File C:\Program Files (x86)\Microsoft Visual Studio\2019\Community\VC\Tools\MSVC\14.28.29333\include\xstddef

; 275  :     return __builtin_addressof(_Val);

  00045	89 45 ec	 mov	 DWORD PTR $T1[ebp], eax
; File C:\Program Files (x86)\Microsoft Visual Studio\2019\Community\VC\Tools\MSVC\14.28.29333\include\xtree

; 380  :         _Freenode0(_Al, _Ptr);

  00048	ff 75 fc	 push	 DWORD PTR $T3[ebp]
  0004b	ff 75 08	 push	 DWORD PTR __Al$[ebp]
  0004e	e8 00 00 00 00	 call	 ??$_Freenode0@V?$allocator@U?$_Tree_node@U?$pair@QAVCActorInstance@@M@std@@PAX@std@@@std@@@?$_Tree_node@U?$pair@QAVCActorInstance@@M@std@@PAX@std@@SAXAAV?$allocator@U?$_Tree_node@U?$pair@QAVCActorInstance@@M@std@@PAX@std@@@1@PAU01@@Z ; std::_Tree_node<std::pair<CActorInstance * const,float>,void *>::_Freenode0<std::allocator<std::_Tree_node<std::pair<CActorInstance * const,float>,void *> > >
  00053	59		 pop	 ecx
  00054	59		 pop	 ecx

; 746  :         }

  00055	eb b2		 jmp	 SHORT $LN2@Erase_tree
$LN4@Erase_tree:

; 747  :     }

  00057	c9		 leave
  00058	c2 08 00	 ret	 8
??$_Erase_tree@V?$allocator@U?$_Tree_node@U?$pair@QAVCActorInstance@@M@std@@PAX@std@@@std@@@?$_Tree_val@U?$_Tree_simple_types@U?$pair@QAVCActorInstance@@M@std@@@std@@@std@@QAEXAAV?$allocator@U?$_Tree_node@U?$pair@QAVCActorInstance@@M@std@@PAX@std@@@1@PAU?$_Tree_node@U?$pair@QAVCActorInstance@@M@std@@PAX@1@@Z ENDP ; std::_Tree_val<std::_Tree_simple_types<std::pair<CActorInstance * const,float> > >::_Erase_tree<std::allocator<std::_Tree_node<std::pair<CActorInstance * const,float>,void *> > >
_TEXT	ENDS
; Function compile flags: /Odspy
; File C:\Program Files (x86)\Microsoft Visual Studio\2019\Community\VC\Tools\MSVC\14.28.29333\include\xmemory
;	COMDAT ??$_Destroy_in_place@PAU?$_Tree_node@U?$pair@QBUSHitData@NRaceData@@V?$map@PAVCActorInstance@@MU?$less@PAVCActorInstance@@@std@@V?$allocator@U?$pair@QAVCActorInstance@@M@std@@@3@@std@@@std@@PAX@std@@@std@@YAXAAPAU?$_Tree_node@U?$pair@QBUSHitData@NRaceData@@V?$map@PAVCActorInstance@@MU?$less@PAVCActorInstance@@@std@@V?$allocator@U?$pair@QAVCActorInstance@@M@std@@@3@@std@@@std@@PAX@0@@Z
_TEXT	SEGMENT
__Obj$ = 8						; size = 4
??$_Destroy_in_place@PAU?$_Tree_node@U?$pair@QBUSHitData@NRaceData@@V?$map@PAVCActorInstance@@MU?$less@PAVCActorInstance@@@std@@V?$allocator@U?$pair@QAVCActorInstance@@M@std@@@3@@std@@@std@@PAX@std@@@std@@YAXAAPAU?$_Tree_node@U?$pair@QBUSHitData@NRaceData@@V?$map@PAVCActorInstance@@MU?$less@PAVCActorInstance@@@std@@V?$allocator@U?$pair@QAVCActorInstance@@M@std@@@3@@std@@@std@@PAX@0@@Z PROC ; std::_Destroy_in_place<std::_Tree_node<std::pair<NRaceData::SHitData const * const,std::map<CActorInstance *,float,std::less<CActorInstance *>,std::allocator<std::pair<CActorInstance * const,float> > > >,void *> *>, COMDAT

; 270  : /* _CONSTEXPR20_DYNALLOC */ void _Destroy_in_place(_Ty& _Obj) noexcept {

  00000	55		 push	 ebp
  00001	8b ec		 mov	 ebp, esp

; 271  : #if _HAS_IF_CONSTEXPR
; 272  :     if constexpr (is_array_v<_Ty>) {
; 273  :         _Destroy_range(_Obj, _Obj + extent_v<_Ty>);
; 274  :     } else
; 275  : #endif // _HAS_IF_CONSTEXPR
; 276  :     {
; 277  :         _Obj.~_Ty();
; 278  :     }
; 279  : }

  00003	5d		 pop	 ebp
  00004	c3		 ret	 0
??$_Destroy_in_place@PAU?$_Tree_node@U?$pair@QBUSHitData@NRaceData@@V?$map@PAVCActorInstance@@MU?$less@PAVCActorInstance@@@std@@V?$allocator@U?$pair@QAVCActorInstance@@M@std@@@3@@std@@@std@@PAX@std@@@std@@YAXAAPAU?$_Tree_node@U?$pair@QBUSHitData@NRaceData@@V?$map@PAVCActorInstance@@MU?$less@PAVCActorInstance@@@std@@V?$allocator@U?$pair@QAVCActorInstance@@M@std@@@3@@std@@@std@@PAX@0@@Z ENDP ; std::_Destroy_in_place<std::_Tree_node<std::pair<NRaceData::SHitData const * const,std::map<CActorInstance *,float,std::less<CActorInstance *>,std::allocator<std::pair<CActorInstance * const,float> > > >,void *> *>
_TEXT	ENDS
; Function compile flags: /Odspy
; File C:\Program Files (x86)\Microsoft Visual Studio\2019\Community\VC\Tools\MSVC\14.28.29333\include\xmemory
;	COMDAT ??$_Zero_range@PAPAUSReservingMotionNode@CActorInstance@@@std@@YAPAPAUSReservingMotionNode@CActorInstance@@QAPAU12@0@Z
_TEXT	SEGMENT
__Last_ch$ = -8						; size = 4
__First_ch$ = -4					; size = 4
__First$ = 8						; size = 4
__Last$ = 12						; size = 4
??$_Zero_range@PAPAUSReservingMotionNode@CActorInstance@@@std@@YAPAPAUSReservingMotionNode@CActorInstance@@QAPAU12@0@Z PROC ; std::_Zero_range<CActorInstance::SReservingMotionNode * *>, COMDAT

; 1852 : _Ptr _Zero_range(const _Ptr _First, const _Ptr _Last) { // fill [_First, _Last) with zeroes

  00000	55		 push	 ebp
  00001	8b ec		 mov	 ebp, esp
  00003	51		 push	 ecx
  00004	51		 push	 ecx

; 1853 :     char* const _First_ch = reinterpret_cast<char*>(_First);

  00005	8b 45 08	 mov	 eax, DWORD PTR __First$[ebp]
  00008	89 45 fc	 mov	 DWORD PTR __First_ch$[ebp], eax

; 1854 :     char* const _Last_ch  = reinterpret_cast<char*>(_Last);

  0000b	8b 45 0c	 mov	 eax, DWORD PTR __Last$[ebp]
  0000e	89 45 f8	 mov	 DWORD PTR __Last_ch$[ebp], eax

; 1855 :     _CSTD memset(_First_ch, 0, static_cast<size_t>(_Last_ch - _First_ch));

  00011	8b 45 f8	 mov	 eax, DWORD PTR __Last_ch$[ebp]
  00014	2b 45 fc	 sub	 eax, DWORD PTR __First_ch$[ebp]
  00017	50		 push	 eax
  00018	6a 00		 push	 0
  0001a	ff 75 fc	 push	 DWORD PTR __First_ch$[ebp]
  0001d	e8 00 00 00 00	 call	 _memset
  00022	83 c4 0c	 add	 esp, 12			; 0000000cH

; 1856 :     return _Last;

  00025	8b 45 0c	 mov	 eax, DWORD PTR __Last$[ebp]

; 1857 : }

  00028	c9		 leave
  00029	c3		 ret	 0
??$_Zero_range@PAPAUSReservingMotionNode@CActorInstance@@@std@@YAPAPAUSReservingMotionNode@CActorInstance@@QAPAU12@0@Z ENDP ; std::_Zero_range<CActorInstance::SReservingMotionNode * *>
_TEXT	ENDS
; Function compile flags: /Odspy
; File C:\Program Files (x86)\Microsoft Visual Studio\2019\Community\VC\Tools\MSVC\14.28.29333\include\xutility
;	COMDAT ??$_Copy_memmove@PAPAUSReservingMotionNode@CActorInstance@@PAPAU12@@std@@YAPAPAUSReservingMotionNode@CActorInstance@@PAPAU12@00@Z
_TEXT	SEGMENT
__Last_ch$ = -16					; size = 4
__Count$ = -12						; size = 4
__Dest_ch$ = -8						; size = 4
__First_ch$ = -4					; size = 4
__First$ = 8						; size = 4
__Last$ = 12						; size = 4
__Dest$ = 16						; size = 4
??$_Copy_memmove@PAPAUSReservingMotionNode@CActorInstance@@PAPAU12@@std@@YAPAPAUSReservingMotionNode@CActorInstance@@PAPAU12@00@Z PROC ; std::_Copy_memmove<CActorInstance::SReservingMotionNode * *,CActorInstance::SReservingMotionNode * *>, COMDAT

; 4360 : _OutIt _Copy_memmove(_InIt _First, _InIt _Last, _OutIt _Dest) {

  00000	55		 push	 ebp
  00001	8b ec		 mov	 ebp, esp
  00003	83 ec 10	 sub	 esp, 16			; 00000010H

; 4361 :     const char* const _First_ch = const_cast<const char*>(reinterpret_cast<const volatile char*>(_First));

  00006	8b 45 08	 mov	 eax, DWORD PTR __First$[ebp]
  00009	89 45 fc	 mov	 DWORD PTR __First_ch$[ebp], eax

; 4362 :     const char* const _Last_ch  = const_cast<const char*>(reinterpret_cast<const volatile char*>(_Last));

  0000c	8b 45 0c	 mov	 eax, DWORD PTR __Last$[ebp]
  0000f	89 45 f0	 mov	 DWORD PTR __Last_ch$[ebp], eax

; 4363 :     char* const _Dest_ch        = const_cast<char*>(reinterpret_cast<volatile char*>(_Dest));

  00012	8b 45 10	 mov	 eax, DWORD PTR __Dest$[ebp]
  00015	89 45 f8	 mov	 DWORD PTR __Dest_ch$[ebp], eax

; 4364 :     const auto _Count           = static_cast<size_t>(_Last_ch - _First_ch);

  00018	8b 45 f0	 mov	 eax, DWORD PTR __Last_ch$[ebp]
  0001b	2b 45 fc	 sub	 eax, DWORD PTR __First_ch$[ebp]
  0001e	89 45 f4	 mov	 DWORD PTR __Count$[ebp], eax

; 4365 :     _CSTD memmove(_Dest_ch, _First_ch, _Count);

  00021	ff 75 f4	 push	 DWORD PTR __Count$[ebp]
  00024	ff 75 fc	 push	 DWORD PTR __First_ch$[ebp]
  00027	ff 75 f8	 push	 DWORD PTR __Dest_ch$[ebp]
  0002a	e8 00 00 00 00	 call	 _memmove
  0002f	83 c4 0c	 add	 esp, 12			; 0000000cH

; 4366 :     return reinterpret_cast<_OutIt>(_Dest_ch + _Count);

  00032	8b 45 f8	 mov	 eax, DWORD PTR __Dest_ch$[ebp]
  00035	03 45 f4	 add	 eax, DWORD PTR __Count$[ebp]

; 4367 : }

  00038	c9		 leave
  00039	c3		 ret	 0
??$_Copy_memmove@PAPAUSReservingMotionNode@CActorInstance@@PAPAU12@@std@@YAPAPAUSReservingMotionNode@CActorInstance@@PAPAU12@00@Z ENDP ; std::_Copy_memmove<CActorInstance::SReservingMotionNode * *,CActorInstance::SReservingMotionNode * *>
_TEXT	ENDS
; Function compile flags: /Odspy
; File C:\Program Files (x86)\Microsoft Visual Studio\2019\Community\VC\Tools\MSVC\14.28.29333\include\xtree
; File C:\Program Files (x86)\Microsoft Visual Studio\2019\Community\VC\Tools\MSVC\14.28.29333\include\xmemory
; File C:\Program Files (x86)\Microsoft Visual Studio\2019\Community\VC\Tools\MSVC\14.28.29333\include\xtree
;	COMDAT ??$_Freenode0@V?$allocator@U?$_Tree_node@U?$pair@QBUSHitData@NRaceData@@V?$map@PAVCActorInstance@@MU?$less@PAVCActorInstance@@@std@@V?$allocator@U?$pair@QAVCActorInstance@@M@std@@@3@@std@@@std@@PAX@std@@@std@@@?$_Tree_node@U?$pair@QBUSHitData@NRaceData@@V?$map@PAVCActorInstance@@MU?$less@PAVCActorInstance@@@std@@V?$allocator@U?$pair@QAVCActorInstance@@M@std@@@3@@std@@@std@@PAX@std@@SAXAAV?$allocator@U?$_Tree_node@U?$pair@QBUSHitData@NRaceData@@V?$map@PAVCActorInstance@@MU?$less@PAVCActorInstance@@@std@@V?$allocator@U?$pair@QAVCActorInstance@@M@std@@@3@@std@@@std@@PAX@std@@@1@PAU01@@Z
_TEXT	SEGMENT
__Al$ = 8						; size = 4
__Ptr$ = 12						; size = 4
??$_Freenode0@V?$allocator@U?$_Tree_node@U?$pair@QBUSHitData@NRaceData@@V?$map@PAVCActorInstance@@MU?$less@PAVCActorInstance@@@std@@V?$allocator@U?$pair@QAVCActorInstance@@M@std@@@3@@std@@@std@@PAX@std@@@std@@@?$_Tree_node@U?$pair@QBUSHitData@NRaceData@@V?$map@PAVCActorInstance@@MU?$less@PAVCActorInstance@@@std@@V?$allocator@U?$pair@QAVCActorInstance@@M@std@@@3@@std@@@std@@PAX@std@@SAXAAV?$allocator@U?$_Tree_node@U?$pair@QBUSHitData@NRaceData@@V?$map@PAVCActorInstance@@MU?$less@PAVCActorInstance@@@std@@V?$allocator@U?$pair@QAVCActorInstance@@M@std@@@3@@std@@@std@@PAX@std@@@1@PAU01@@Z PROC ; std::_Tree_node<std::pair<NRaceData::SHitData const * const,std::map<CActorInstance *,float,std::less<CActorInstance *>,std::allocator<std::pair<CActorInstance * const,float> > > >,void *>::_Freenode0<std::allocator<std::_Tree_node<std::pair<NRaceData::SHitData const * const,std::map<CActorInstance *,float,std::less<CActorInstance *>,std::allocator<std::pair<CActorInstance * const,float> > > >,void *> > >, COMDAT

; 368  :     static void _Freenode0(_Alloc& _Al, _Nodeptr _Ptr) noexcept {

  00000	55		 push	 ebp
  00001	8b ec		 mov	 ebp, esp

; 369  :         static_assert(is_same_v<typename _Alloc::value_type, _Tree_node>, "Bad _Freenode0 call");
; 370  :         _Destroy_in_place(_Ptr->_Left);

  00003	ff 75 0c	 push	 DWORD PTR __Ptr$[ebp]
  00006	e8 00 00 00 00	 call	 ??$_Destroy_in_place@PAU?$_Tree_node@U?$pair@QBUSHitData@NRaceData@@V?$map@PAVCActorInstance@@MU?$less@PAVCActorInstance@@@std@@V?$allocator@U?$pair@QAVCActorInstance@@M@std@@@3@@std@@@std@@PAX@std@@@std@@YAXAAPAU?$_Tree_node@U?$pair@QBUSHitData@NRaceData@@V?$map@PAVCActorInstance@@MU?$less@PAVCActorInstance@@@std@@V?$allocator@U?$pair@QAVCActorInstance@@M@std@@@3@@std@@@std@@PAX@0@@Z ; std::_Destroy_in_place<std::_Tree_node<std::pair<NRaceData::SHitData const * const,std::map<CActorInstance *,float,std::less<CActorInstance *>,std::allocator<std::pair<CActorInstance * const,float> > > >,void *> *>
  0000b	59		 pop	 ecx

; 371  :         _Destroy_in_place(_Ptr->_Parent);

  0000c	8b 45 0c	 mov	 eax, DWORD PTR __Ptr$[ebp]
  0000f	83 c0 04	 add	 eax, 4
  00012	50		 push	 eax
  00013	e8 00 00 00 00	 call	 ??$_Destroy_in_place@PAU?$_Tree_node@U?$pair@QBUSHitData@NRaceData@@V?$map@PAVCActorInstance@@MU?$less@PAVCActorInstance@@@std@@V?$allocator@U?$pair@QAVCActorInstance@@M@std@@@3@@std@@@std@@PAX@std@@@std@@YAXAAPAU?$_Tree_node@U?$pair@QBUSHitData@NRaceData@@V?$map@PAVCActorInstance@@MU?$less@PAVCActorInstance@@@std@@V?$allocator@U?$pair@QAVCActorInstance@@M@std@@@3@@std@@@std@@PAX@0@@Z ; std::_Destroy_in_place<std::_Tree_node<std::pair<NRaceData::SHitData const * const,std::map<CActorInstance *,float,std::less<CActorInstance *>,std::allocator<std::pair<CActorInstance * const,float> > > >,void *> *>
  00018	59		 pop	 ecx

; 372  :         _Destroy_in_place(_Ptr->_Right);

  00019	8b 45 0c	 mov	 eax, DWORD PTR __Ptr$[ebp]
  0001c	83 c0 08	 add	 eax, 8
  0001f	50		 push	 eax
  00020	e8 00 00 00 00	 call	 ??$_Destroy_in_place@PAU?$_Tree_node@U?$pair@QBUSHitData@NRaceData@@V?$map@PAVCActorInstance@@MU?$less@PAVCActorInstance@@@std@@V?$allocator@U?$pair@QAVCActorInstance@@M@std@@@3@@std@@@std@@PAX@std@@@std@@YAXAAPAU?$_Tree_node@U?$pair@QBUSHitData@NRaceData@@V?$map@PAVCActorInstance@@MU?$less@PAVCActorInstance@@@std@@V?$allocator@U?$pair@QAVCActorInstance@@M@std@@@3@@std@@@std@@PAX@0@@Z ; std::_Destroy_in_place<std::_Tree_node<std::pair<NRaceData::SHitData const * const,std::map<CActorInstance *,float,std::less<CActorInstance *>,std::allocator<std::pair<CActorInstance * const,float> > > >,void *> *>
  00025	59		 pop	 ecx
; File C:\Program Files (x86)\Microsoft Visual Studio\2019\Community\VC\Tools\MSVC\14.28.29333\include\xmemory

; 696  :         _Deallocate<_New_alignof<value_type>>(_Ptr, sizeof(value_type) * _Count);

  00026	33 c0		 xor	 eax, eax
  00028	40		 inc	 eax
  00029	6b c0 1c	 imul	 eax, eax, 28
  0002c	50		 push	 eax
  0002d	ff 75 0c	 push	 DWORD PTR __Ptr$[ebp]
  00030	e8 00 00 00 00	 call	 ??$_Deallocate@$07$0A@@std@@YAXPAXI@Z ; std::_Deallocate<8,0>
  00035	59		 pop	 ecx
  00036	59		 pop	 ecx
; File C:\Program Files (x86)\Microsoft Visual Studio\2019\Community\VC\Tools\MSVC\14.28.29333\include\xtree

; 374  :     }

  00037	5d		 pop	 ebp
  00038	c3		 ret	 0
??$_Freenode0@V?$allocator@U?$_Tree_node@U?$pair@QBUSHitData@NRaceData@@V?$map@PAVCActorInstance@@MU?$less@PAVCActorInstance@@@std@@V?$allocator@U?$pair@QAVCActorInstance@@M@std@@@3@@std@@@std@@PAX@std@@@std@@@?$_Tree_node@U?$pair@QBUSHitData@NRaceData@@V?$map@PAVCActorInstance@@MU?$less@PAVCActorInstance@@@std@@V?$allocator@U?$pair@QAVCActorInstance@@M@std@@@3@@std@@@std@@PAX@std@@SAXAAV?$allocator@U?$_Tree_node@U?$pair@QBUSHitData@NRaceData@@V?$map@PAVCActorInstance@@MU?$less@PAVCActorInstance@@@std@@V?$allocator@U?$pair@QAVCActorInstance@@M@std@@@3@@std@@@std@@PAX@std@@@1@PAU01@@Z ENDP ; std::_Tree_node<std::pair<NRaceData::SHitData const * const,std::map<CActorInstance *,float,std::less<CActorInstance *>,std::allocator<std::pair<CActorInstance * const,float> > > >,void *>::_Freenode0<std::allocator<std::_Tree_node<std::pair<NRaceData::SHitData const * const,std::map<CActorInstance *,float,std::less<CActorInstance *>,std::allocator<std::pair<CActorInstance * const,float> > > >,void *> > >
_TEXT	ENDS
; Function compile flags: /Odspy
; File C:\Program Files (x86)\Microsoft Visual Studio\2019\Community\VC\Tools\MSVC\14.28.29333\include\xmemory
;	COMDAT ??$_Destroy_range@PAPAUSReservingMotionNode@CActorInstance@@PAPAU12@@std@@YAXPAPAUSReservingMotionNode@CActorInstance@@QAPAU12@@Z
_TEXT	SEGMENT
__First$ = 8						; size = 4
__Last$ = 12						; size = 4
??$_Destroy_range@PAPAUSReservingMotionNode@CActorInstance@@PAPAU12@@std@@YAXPAPAUSReservingMotionNode@CActorInstance@@QAPAU12@@Z PROC ; std::_Destroy_range<CActorInstance::SReservingMotionNode * *,CActorInstance::SReservingMotionNode * *>, COMDAT

; 974  : /* _CONSTEXPR20_DYNALLOC */ void _Destroy_range(_NoThrowFwdIt _First, const _NoThrowSentinel _Last) noexcept {

  00000	55		 push	 ebp
  00001	8b ec		 mov	 ebp, esp

; 975  :     // note that this is an optimization for debug mode codegen; in release mode the BE removes all of this
; 976  :     if _CONSTEXPR_IF (!is_trivially_destructible_v<_Iter_value_t<_NoThrowFwdIt>>) {
; 977  :         for (; _First != _Last; ++_First) {
; 978  :             _Destroy_in_place(*_First);
; 979  :         }
; 980  :     }
; 981  : }

  00003	5d		 pop	 ebp
  00004	c3		 ret	 0
??$_Destroy_range@PAPAUSReservingMotionNode@CActorInstance@@PAPAU12@@std@@YAXPAPAUSReservingMotionNode@CActorInstance@@QAPAU12@@Z ENDP ; std::_Destroy_range<CActorInstance::SReservingMotionNode * *,CActorInstance::SReservingMotionNode * *>
_TEXT	ENDS
; Function compile flags: /Odspy
; File C:\Program Files (x86)\Microsoft Visual Studio\2019\Community\VC\Tools\MSVC\14.28.29333\include\xmemory
;	COMDAT ??$_Uninitialized_value_construct_n_unchecked1@PAPAUSReservingMotionNode@CActorInstance@@I@std@@YAPAPAUSReservingMotionNode@CActorInstance@@PAPAU12@I@Z
_TEXT	SEGMENT
__UFirst$ = 8						; size = 4
__Count$ = 12						; size = 4
??$_Uninitialized_value_construct_n_unchecked1@PAPAUSReservingMotionNode@CActorInstance@@I@std@@YAPAPAUSReservingMotionNode@CActorInstance@@PAPAU12@I@Z PROC ; std::_Uninitialized_value_construct_n_unchecked1<CActorInstance::SReservingMotionNode * *,unsigned int>, COMDAT

; 1912 : _NoThrowFwdIt _Uninitialized_value_construct_n_unchecked1(_NoThrowFwdIt _UFirst, _Diff _Count) {

  00000	55		 push	 ebp
  00001	8b ec		 mov	 ebp, esp

; 1913 :     // value-initialize all elements in [_UFirst, _UFirst + _Count_raw)
; 1914 :     _STL_INTERNAL_CHECK(_Count >= 0);
; 1915 :     if constexpr (_Use_memset_value_construct_v<_NoThrowFwdIt>) {
; 1916 :         return _Zero_range(_UFirst, _UFirst + _Count);

  00003	8b 45 0c	 mov	 eax, DWORD PTR __Count$[ebp]
  00006	8b 4d 08	 mov	 ecx, DWORD PTR __UFirst$[ebp]
  00009	8d 04 81	 lea	 eax, DWORD PTR [ecx+eax*4]
  0000c	50		 push	 eax
  0000d	ff 75 08	 push	 DWORD PTR __UFirst$[ebp]
  00010	e8 00 00 00 00	 call	 ??$_Zero_range@PAPAUSReservingMotionNode@CActorInstance@@@std@@YAPAPAUSReservingMotionNode@CActorInstance@@QAPAU12@0@Z ; std::_Zero_range<CActorInstance::SReservingMotionNode * *>
  00015	59		 pop	 ecx
  00016	59		 pop	 ecx

; 1917 :     } else {
; 1918 :         _Uninitialized_backout<_NoThrowFwdIt> _Backout{_UFirst};
; 1919 :         for (; 0 < _Count; --_Count) {
; 1920 :             _Backout._Emplace_back();
; 1921 :         }
; 1922 : 
; 1923 :         return _Backout._Release();
; 1924 :     }
; 1925 : }

  00017	5d		 pop	 ebp
  00018	c3		 ret	 0
??$_Uninitialized_value_construct_n_unchecked1@PAPAUSReservingMotionNode@CActorInstance@@I@std@@YAPAPAUSReservingMotionNode@CActorInstance@@PAPAU12@I@Z ENDP ; std::_Uninitialized_value_construct_n_unchecked1<CActorInstance::SReservingMotionNode * *,unsigned int>
_TEXT	ENDS
; Function compile flags: /Odspy
; File C:\Program Files (x86)\Microsoft Visual Studio\2019\Community\VC\Tools\MSVC\14.28.29333\include\xmemory
; File C:\Program Files (x86)\Microsoft Visual Studio\2019\Community\VC\Tools\MSVC\14.28.29333\include\xutility
; File C:\Program Files (x86)\Microsoft Visual Studio\2019\Community\VC\Tools\MSVC\14.28.29333\include\xmemory
; File C:\Program Files (x86)\Microsoft Visual Studio\2019\Community\VC\Tools\MSVC\14.28.29333\include\xutility
; File C:\Program Files (x86)\Microsoft Visual Studio\2019\Community\VC\Tools\MSVC\14.28.29333\include\xmemory
;	COMDAT ??$uninitialized_copy@PAPAUSReservingMotionNode@CActorInstance@@PAPAU12@@std@@YAPAPAUSReservingMotionNode@CActorInstance@@QAPAU12@0PAPAU12@@Z
_TEXT	SEGMENT
$T1 = -16						; size = 4
__UFirst$ = -12						; size = 4
__ULast$ = -8						; size = 4
__UDest$ = -4						; size = 4
__First$ = 8						; size = 4
__Last$ = 12						; size = 4
__Dest$ = 16						; size = 4
??$uninitialized_copy@PAPAUSReservingMotionNode@CActorInstance@@PAPAU12@@std@@YAPAPAUSReservingMotionNode@CActorInstance@@QAPAU12@0PAPAU12@@Z PROC ; std::uninitialized_copy<CActorInstance::SReservingMotionNode * *,CActorInstance::SReservingMotionNode * *>, COMDAT

; 1629 : _NoThrowFwdIt uninitialized_copy(const _InIt _First, const _InIt _Last, _NoThrowFwdIt _Dest) {

  00000	55		 push	 ebp
  00001	8b ec		 mov	 ebp, esp
  00003	83 ec 10	 sub	 esp, 16			; 00000010H

; 1630 :     // copy [_First, _Last) to raw [_Dest, ...)
; 1631 :     _Adl_verify_range(_First, _Last);
; 1632 :     auto _UFirst      = _Get_unwrapped(_First);

  00006	8b 45 08	 mov	 eax, DWORD PTR __First$[ebp]
  00009	89 45 f4	 mov	 DWORD PTR __UFirst$[ebp], eax

; 1633 :     const auto _ULast = _Get_unwrapped(_Last);

  0000c	8b 45 0c	 mov	 eax, DWORD PTR __Last$[ebp]
  0000f	89 45 f8	 mov	 DWORD PTR __ULast$[ebp], eax
; File C:\Program Files (x86)\Microsoft Visual Studio\2019\Community\VC\Tools\MSVC\14.28.29333\include\xutility

; 1557 :         return static_cast<_Iter_diff_t<_Checked>>(_Last - _First);

  00012	8b 45 f8	 mov	 eax, DWORD PTR __ULast$[ebp]
  00015	2b 45 f4	 sub	 eax, DWORD PTR __UFirst$[ebp]
  00018	c1 f8 02	 sar	 eax, 2
  0001b	89 45 f0	 mov	 DWORD PTR $T1[ebp], eax
; File C:\Program Files (x86)\Microsoft Visual Studio\2019\Community\VC\Tools\MSVC\14.28.29333\include\xmemory

; 1634 :     auto _UDest       = _Get_unwrapped_n(_Dest, _Idl_distance<_InIt>(_UFirst, _ULast));

  0001e	8b 45 10	 mov	 eax, DWORD PTR __Dest$[ebp]
  00021	89 45 fc	 mov	 DWORD PTR __UDest$[ebp], eax

; 1635 :     if constexpr (_Ptr_copy_cat<decltype(_UFirst), decltype(_UDest)>::_Really_trivial) {
; 1636 :         _UDest = _Copy_memmove(_UFirst, _ULast, _UDest);

  00024	ff 75 fc	 push	 DWORD PTR __UDest$[ebp]
  00027	ff 75 f8	 push	 DWORD PTR __ULast$[ebp]
  0002a	ff 75 f4	 push	 DWORD PTR __UFirst$[ebp]
  0002d	e8 00 00 00 00	 call	 ??$_Copy_memmove@PAPAUSReservingMotionNode@CActorInstance@@PAPAU12@@std@@YAPAPAUSReservingMotionNode@CActorInstance@@PAPAU12@00@Z ; std::_Copy_memmove<CActorInstance::SReservingMotionNode * *,CActorInstance::SReservingMotionNode * *>
  00032	83 c4 0c	 add	 esp, 12			; 0000000cH
  00035	89 45 fc	 mov	 DWORD PTR __UDest$[ebp], eax
; File C:\Program Files (x86)\Microsoft Visual Studio\2019\Community\VC\Tools\MSVC\14.28.29333\include\xutility

; 1492 :         _It = static_cast<_UIter&&>(_UIt);

  00038	8b 45 fc	 mov	 eax, DWORD PTR __UDest$[ebp]
  0003b	89 45 10	 mov	 DWORD PTR __Dest$[ebp], eax
; File C:\Program Files (x86)\Microsoft Visual Studio\2019\Community\VC\Tools\MSVC\14.28.29333\include\xmemory

; 1647 :     return _Dest;

  0003e	8b 45 10	 mov	 eax, DWORD PTR __Dest$[ebp]

; 1648 : }

  00041	c9		 leave
  00042	c3		 ret	 0
??$uninitialized_copy@PAPAUSReservingMotionNode@CActorInstance@@PAPAU12@@std@@YAPAPAUSReservingMotionNode@CActorInstance@@QAPAU12@0PAPAU12@@Z ENDP ; std::uninitialized_copy<CActorInstance::SReservingMotionNode * *,CActorInstance::SReservingMotionNode * *>
_TEXT	ENDS
; Function compile flags: /Odspy
; File C:\Program Files (x86)\Microsoft Visual Studio\2019\Community\VC\Tools\MSVC\14.28.29333\include\xtree
; File C:\Program Files (x86)\Microsoft Visual Studio\2019\Community\VC\Tools\MSVC\14.28.29333\include\xstddef
; File C:\Program Files (x86)\Microsoft Visual Studio\2019\Community\VC\Tools\MSVC\14.28.29333\include\xtree
;	COMDAT ??$_Freenode@V?$allocator@U?$_Tree_node@U?$pair@QBUSHitData@NRaceData@@V?$map@PAVCActorInstance@@MU?$less@PAVCActorInstance@@@std@@V?$allocator@U?$pair@QAVCActorInstance@@M@std@@@3@@std@@@std@@PAX@std@@@std@@@?$_Tree_node@U?$pair@QBUSHitData@NRaceData@@V?$map@PAVCActorInstance@@MU?$less@PAVCActorInstance@@@std@@V?$allocator@U?$pair@QAVCActorInstance@@M@std@@@3@@std@@@std@@PAX@std@@SAXAAV?$allocator@U?$_Tree_node@U?$pair@QBUSHitData@NRaceData@@V?$map@PAVCActorInstance@@MU?$less@PAVCActorInstance@@@std@@V?$allocator@U?$pair@QAVCActorInstance@@M@std@@@3@@std@@@std@@PAX@std@@@1@PAU01@@Z
_TEXT	SEGMENT
$T1 = -4						; size = 4
__Al$ = 8						; size = 4
__Ptr$ = 12						; size = 4
??$_Freenode@V?$allocator@U?$_Tree_node@U?$pair@QBUSHitData@NRaceData@@V?$map@PAVCActorInstance@@MU?$less@PAVCActorInstance@@@std@@V?$allocator@U?$pair@QAVCActorInstance@@M@std@@@3@@std@@@std@@PAX@std@@@std@@@?$_Tree_node@U?$pair@QBUSHitData@NRaceData@@V?$map@PAVCActorInstance@@MU?$less@PAVCActorInstance@@@std@@V?$allocator@U?$pair@QAVCActorInstance@@M@std@@@3@@std@@@std@@PAX@std@@SAXAAV?$allocator@U?$_Tree_node@U?$pair@QBUSHitData@NRaceData@@V?$map@PAVCActorInstance@@MU?$less@PAVCActorInstance@@@std@@V?$allocator@U?$pair@QAVCActorInstance@@M@std@@@3@@std@@@std@@PAX@std@@@1@PAU01@@Z PROC ; std::_Tree_node<std::pair<NRaceData::SHitData const * const,std::map<CActorInstance *,float,std::less<CActorInstance *>,std::allocator<std::pair<CActorInstance * const,float> > > >,void *>::_Freenode<std::allocator<std::_Tree_node<std::pair<NRaceData::SHitData const * const,std::map<CActorInstance *,float,std::less<CActorInstance *>,std::allocator<std::pair<CActorInstance * const,float> > > >,void *> > >, COMDAT

; 377  :     static void _Freenode(_Alloc& _Al, _Nodeptr _Ptr) noexcept {

  00000	55		 push	 ebp
  00001	8b ec		 mov	 ebp, esp
  00003	51		 push	 ecx

; 378  :         static_assert(is_same_v<typename _Alloc::value_type, _Tree_node>, "Bad _Freenode call");
; 379  :         allocator_traits<_Alloc>::destroy(_Al, _STD addressof(_Ptr->_Myval));

  00004	8b 45 0c	 mov	 eax, DWORD PTR __Ptr$[ebp]
  00007	83 c0 10	 add	 eax, 16			; 00000010H
; File C:\Program Files (x86)\Microsoft Visual Studio\2019\Community\VC\Tools\MSVC\14.28.29333\include\xstddef

; 275  :     return __builtin_addressof(_Val);

  0000a	89 45 fc	 mov	 DWORD PTR $T1[ebp], eax
  0000d	8b 4d fc	 mov	 ecx, DWORD PTR $T1[ebp]
  00010	83 c1 04	 add	 ecx, 4
  00013	e8 00 00 00 00	 call	 ??1?$_Tree@V?$_Tmap_traits@PAVCActorInstance@@MU?$less@PAVCActorInstance@@@std@@V?$allocator@U?$pair@QAVCActorInstance@@M@std@@@3@$0A@@std@@@std@@QAE@XZ ; std::_Tree<std::_Tmap_traits<CActorInstance *,float,std::less<CActorInstance *>,std::allocator<std::pair<CActorInstance * const,float> >,0> >::~_Tree<std::_Tmap_traits<CActorInstance *,float,std::less<CActorInstance *>,std::allocator<std::pair<CActorInstance * const,float> >,0> >
  00018	33 c0		 xor	 eax, eax
  0001a	83 e0 01	 and	 eax, 1
  0001d	74 0c		 je	 SHORT $LN6@Freenode
  0001f	6a 0c		 push	 12			; 0000000cH
  00021	ff 75 fc	 push	 DWORD PTR $T1[ebp]
  00024	e8 00 00 00 00	 call	 ??3@YAXPAXI@Z		; operator delete
  00029	59		 pop	 ecx
  0002a	59		 pop	 ecx
$LN6@Freenode:
; File C:\Program Files (x86)\Microsoft Visual Studio\2019\Community\VC\Tools\MSVC\14.28.29333\include\xtree

; 380  :         _Freenode0(_Al, _Ptr);

  0002b	ff 75 0c	 push	 DWORD PTR __Ptr$[ebp]
  0002e	ff 75 08	 push	 DWORD PTR __Al$[ebp]
  00031	e8 00 00 00 00	 call	 ??$_Freenode0@V?$allocator@U?$_Tree_node@U?$pair@QBUSHitData@NRaceData@@V?$map@PAVCActorInstance@@MU?$less@PAVCActorInstance@@@std@@V?$allocator@U?$pair@QAVCActorInstance@@M@std@@@3@@std@@@std@@PAX@std@@@std@@@?$_Tree_node@U?$pair@QBUSHitData@NRaceData@@V?$map@PAVCActorInstance@@MU?$less@PAVCActorInstance@@@std@@V?$allocator@U?$pair@QAVCActorInstance@@M@std@@@3@@std@@@std@@PAX@std@@SAXAAV?$allocator@U?$_Tree_node@U?$pair@QBUSHitData@NRaceData@@V?$map@PAVCActorInstance@@MU?$less@PAVCActorInstance@@@std@@V?$allocator@U?$pair@QAVCActorInstance@@M@std@@@3@@std@@@std@@PAX@std@@@1@PAU01@@Z ; std::_Tree_node<std::pair<NRaceData::SHitData const * const,std::map<CActorInstance *,float,std::less<CActorInstance *>,std::allocator<std::pair<CActorInstance * const,float> > > >,void *>::_Freenode0<std::allocator<std::_Tree_node<std::pair<NRaceData::SHitData const * const,std::map<CActorInstance *,float,std::less<CActorInstance *>,std::allocator<std::pair<CActorInstance * const,float> > > >,void *> > >
  00036	59		 pop	 ecx
  00037	59		 pop	 ecx

; 381  :     }

  00038	c9		 leave
  00039	c3		 ret	 0
??$_Freenode@V?$allocator@U?$_Tree_node@U?$pair@QBUSHitData@NRaceData@@V?$map@PAVCActorInstance@@MU?$less@PAVCActorInstance@@@std@@V?$allocator@U?$pair@QAVCActorInstance@@M@std@@@3@@std@@@std@@PAX@std@@@std@@@?$_Tree_node@U?$pair@QBUSHitData@NRaceData@@V?$map@PAVCActorInstance@@MU?$less@PAVCActorInstance@@@std@@V?$allocator@U?$pair@QAVCActorInstance@@M@std@@@3@@std@@@std@@PAX@std@@SAXAAV?$allocator@U?$_Tree_node@U?$pair@QBUSHitData@NRaceData@@V?$map@PAVCActorInstance@@MU?$less@PAVCActorInstance@@@std@@V?$allocator@U?$pair@QAVCActorInstance@@M@std@@@3@@std@@@std@@PAX@std@@@1@PAU01@@Z ENDP ; std::_Tree_node<std::pair<NRaceData::SHitData const * const,std::map<CActorInstance *,float,std::less<CActorInstance *>,std::allocator<std::pair<CActorInstance * const,float> > > >,void *>::_Freenode<std::allocator<std::_Tree_node<std::pair<NRaceData::SHitData const * const,std::map<CActorInstance *,float,std::less<CActorInstance *>,std::allocator<std::pair<CActorInstance * const,float> > > >,void *> > >
_TEXT	ENDS
; Function compile flags: /Odspy
;	COMDAT ??__F?ms_kPool@?$CPooledObject@VCRotationDecorator@NEffectUpdateDecorator@@@@1V?$CDynamicPoolEx@VCRotationDecorator@NEffectUpdateDecorator@@@@A@@YAXXZ
text$yd	SEGMENT
??__F?ms_kPool@?$CPooledObject@VCRotationDecorator@NEffectUpdateDecorator@@@@1V?$CDynamicPoolEx@VCRotationDecorator@NEffectUpdateDecorator@@@@A@@YAXXZ PROC ; `dynamic atexit destructor for 'CPooledObject<NEffectUpdateDecorator::CRotationDecorator>::ms_kPool'', COMDAT
  00000	55		 push	 ebp
  00001	8b ec		 mov	 ebp, esp
  00003	b9 00 00 00 00	 mov	 ecx, OFFSET ?ms_kPool@?$CPooledObject@VCRotationDecorator@NEffectUpdateDecorator@@@@1V?$CDynamicPoolEx@VCRotationDecorator@NEffectUpdateDecorator@@@@A ; CPooledObject<NEffectUpdateDecorator::CRotationDecorator>::ms_kPool
  00008	e8 00 00 00 00	 call	 ??1?$CDynamicPoolEx@VCRotationDecorator@NEffectUpdateDecorator@@@@UAE@XZ ; CDynamicPoolEx<NEffectUpdateDecorator::CRotationDecorator>::~CDynamicPoolEx<NEffectUpdateDecorator::CRotationDecorator>
  0000d	5d		 pop	 ebp
  0000e	c3		 ret	 0
??__F?ms_kPool@?$CPooledObject@VCRotationDecorator@NEffectUpdateDecorator@@@@1V?$CDynamicPoolEx@VCRotationDecorator@NEffectUpdateDecorator@@@@A@@YAXXZ ENDP ; `dynamic atexit destructor for 'CPooledObject<NEffectUpdateDecorator::CRotationDecorator>::ms_kPool''
text$yd	ENDS
; Function compile flags: /Odspy
; File D:\Metin2 Server Files\mainline\SRC_2014\Metin2Client\eterLib\Pool.h
;	COMDAT ??__E?ms_kPool@?$CPooledObject@VCRotationDecorator@NEffectUpdateDecorator@@@@1V?$CDynamicPoolEx@VCRotationDecorator@NEffectUpdateDecorator@@@@A@@YAXXZ
text$di	SEGMENT
??__E?ms_kPool@?$CPooledObject@VCRotationDecorator@NEffectUpdateDecorator@@@@1V?$CDynamicPoolEx@VCRotationDecorator@NEffectUpdateDecorator@@@@A@@YAXXZ PROC ; `dynamic initializer for 'CPooledObject<NEffectUpdateDecorator::CRotationDecorator>::ms_kPool'', COMDAT

; 272  : template <class T> CDynamicPoolEx<T> CPooledObject<T>::ms_kPool;

  00000	55		 push	 ebp
  00001	8b ec		 mov	 ebp, esp
  00003	b9 00 00 00 00	 mov	 ecx, OFFSET ?ms_kPool@?$CPooledObject@VCRotationDecorator@NEffectUpdateDecorator@@@@1V?$CDynamicPoolEx@VCRotationDecorator@NEffectUpdateDecorator@@@@A ; CPooledObject<NEffectUpdateDecorator::CRotationDecorator>::ms_kPool
  00008	e8 00 00 00 00	 call	 ??0?$CDynamicPoolEx@VCRotationDecorator@NEffectUpdateDecorator@@@@QAE@XZ ; CDynamicPoolEx<NEffectUpdateDecorator::CRotationDecorator>::CDynamicPoolEx<NEffectUpdateDecorator::CRotationDecorator>
  0000d	68 00 00 00 00	 push	 OFFSET ??__F?ms_kPool@?$CPooledObject@VCRotationDecorator@NEffectUpdateDecorator@@@@1V?$CDynamicPoolEx@VCRotationDecorator@NEffectUpdateDecorator@@@@A@@YAXXZ ; `dynamic atexit destructor for 'CPooledObject<NEffectUpdateDecorator::CRotationDecorator>::ms_kPool''
  00012	e8 00 00 00 00	 call	 _atexit
  00017	59		 pop	 ecx
  00018	5d		 pop	 ebp
  00019	c3		 ret	 0
??__E?ms_kPool@?$CPooledObject@VCRotationDecorator@NEffectUpdateDecorator@@@@1V?$CDynamicPoolEx@VCRotationDecorator@NEffectUpdateDecorator@@@@A@@YAXXZ ENDP ; `dynamic initializer for 'CPooledObject<NEffectUpdateDecorator::CRotationDecorator>::ms_kPool''
text$di	ENDS
; Function compile flags: /Odspy
;	COMDAT ??__F?ms_kPool@?$CPooledObject@VCGravityDecorator@NEffectUpdateDecorator@@@@1V?$CDynamicPoolEx@VCGravityDecorator@NEffectUpdateDecorator@@@@A@@YAXXZ
text$yd	SEGMENT
??__F?ms_kPool@?$CPooledObject@VCGravityDecorator@NEffectUpdateDecorator@@@@1V?$CDynamicPoolEx@VCGravityDecorator@NEffectUpdateDecorator@@@@A@@YAXXZ PROC ; `dynamic atexit destructor for 'CPooledObject<NEffectUpdateDecorator::CGravityDecorator>::ms_kPool'', COMDAT
  00000	55		 push	 ebp
  00001	8b ec		 mov	 ebp, esp
  00003	b9 00 00 00 00	 mov	 ecx, OFFSET ?ms_kPool@?$CPooledObject@VCGravityDecorator@NEffectUpdateDecorator@@@@1V?$CDynamicPoolEx@VCGravityDecorator@NEffectUpdateDecorator@@@@A ; CPooledObject<NEffectUpdateDecorator::CGravityDecorator>::ms_kPool
  00008	e8 00 00 00 00	 call	 ??1?$CDynamicPoolEx@VCGravityDecorator@NEffectUpdateDecorator@@@@UAE@XZ ; CDynamicPoolEx<NEffectUpdateDecorator::CGravityDecorator>::~CDynamicPoolEx<NEffectUpdateDecorator::CGravityDecorator>
  0000d	5d		 pop	 ebp
  0000e	c3		 ret	 0
??__F?ms_kPool@?$CPooledObject@VCGravityDecorator@NEffectUpdateDecorator@@@@1V?$CDynamicPoolEx@VCGravityDecorator@NEffectUpdateDecorator@@@@A@@YAXXZ ENDP ; `dynamic atexit destructor for 'CPooledObject<NEffectUpdateDecorator::CGravityDecorator>::ms_kPool''
text$yd	ENDS
; Function compile flags: /Odspy
; File D:\Metin2 Server Files\mainline\SRC_2014\Metin2Client\eterLib\Pool.h
;	COMDAT ??__E?ms_kPool@?$CPooledObject@VCGravityDecorator@NEffectUpdateDecorator@@@@1V?$CDynamicPoolEx@VCGravityDecorator@NEffectUpdateDecorator@@@@A@@YAXXZ
text$di	SEGMENT
??__E?ms_kPool@?$CPooledObject@VCGravityDecorator@NEffectUpdateDecorator@@@@1V?$CDynamicPoolEx@VCGravityDecorator@NEffectUpdateDecorator@@@@A@@YAXXZ PROC ; `dynamic initializer for 'CPooledObject<NEffectUpdateDecorator::CGravityDecorator>::ms_kPool'', COMDAT

; 272  : template <class T> CDynamicPoolEx<T> CPooledObject<T>::ms_kPool;

  00000	55		 push	 ebp
  00001	8b ec		 mov	 ebp, esp
  00003	b9 00 00 00 00	 mov	 ecx, OFFSET ?ms_kPool@?$CPooledObject@VCGravityDecorator@NEffectUpdateDecorator@@@@1V?$CDynamicPoolEx@VCGravityDecorator@NEffectUpdateDecorator@@@@A ; CPooledObject<NEffectUpdateDecorator::CGravityDecorator>::ms_kPool
  00008	e8 00 00 00 00	 call	 ??0?$CDynamicPoolEx@VCGravityDecorator@NEffectUpdateDecorator@@@@QAE@XZ ; CDynamicPoolEx<NEffectUpdateDecorator::CGravityDecorator>::CDynamicPoolEx<NEffectUpdateDecorator::CGravityDecorator>
  0000d	68 00 00 00 00	 push	 OFFSET ??__F?ms_kPool@?$CPooledObject@VCGravityDecorator@NEffectUpdateDecorator@@@@1V?$CDynamicPoolEx@VCGravityDecorator@NEffectUpdateDecorator@@@@A@@YAXXZ ; `dynamic atexit destructor for 'CPooledObject<NEffectUpdateDecorator::CGravityDecorator>::ms_kPool''
  00012	e8 00 00 00 00	 call	 _atexit
  00017	59		 pop	 ecx
  00018	5d		 pop	 ebp
  00019	c3		 ret	 0
??__E?ms_kPool@?$CPooledObject@VCGravityDecorator@NEffectUpdateDecorator@@@@1V?$CDynamicPoolEx@VCGravityDecorator@NEffectUpdateDecorator@@@@A@@YAXXZ ENDP ; `dynamic initializer for 'CPooledObject<NEffectUpdateDecorator::CGravityDecorator>::ms_kPool''
text$di	ENDS
; Function compile flags: /Odspy
;	COMDAT ??__F?ms_kPool@?$CPooledObject@VCAirResistanceDecorator@NEffectUpdateDecorator@@@@1V?$CDynamicPoolEx@VCAirResistanceDecorator@NEffectUpdateDecorator@@@@A@@YAXXZ
text$yd	SEGMENT
??__F?ms_kPool@?$CPooledObject@VCAirResistanceDecorator@NEffectUpdateDecorator@@@@1V?$CDynamicPoolEx@VCAirResistanceDecorator@NEffectUpdateDecorator@@@@A@@YAXXZ PROC ; `dynamic atexit destructor for 'CPooledObject<NEffectUpdateDecorator::CAirResistanceDecorator>::ms_kPool'', COMDAT
  00000	55		 push	 ebp
  00001	8b ec		 mov	 ebp, esp
  00003	b9 00 00 00 00	 mov	 ecx, OFFSET ?ms_kPool@?$CPooledObject@VCAirResistanceDecorator@NEffectUpdateDecorator@@@@1V?$CDynamicPoolEx@VCAirResistanceDecorator@NEffectUpdateDecorator@@@@A ; CPooledObject<NEffectUpdateDecorator::CAirResistanceDecorator>::ms_kPool
  00008	e8 00 00 00 00	 call	 ??1?$CDynamicPoolEx@VCAirResistanceDecorator@NEffectUpdateDecorator@@@@UAE@XZ ; CDynamicPoolEx<NEffectUpdateDecorator::CAirResistanceDecorator>::~CDynamicPoolEx<NEffectUpdateDecorator::CAirResistanceDecorator>
  0000d	5d		 pop	 ebp
  0000e	c3		 ret	 0
??__F?ms_kPool@?$CPooledObject@VCAirResistanceDecorator@NEffectUpdateDecorator@@@@1V?$CDynamicPoolEx@VCAirResistanceDecorator@NEffectUpdateDecorator@@@@A@@YAXXZ ENDP ; `dynamic atexit destructor for 'CPooledObject<NEffectUpdateDecorator::CAirResistanceDecorator>::ms_kPool''
text$yd	ENDS
; Function compile flags: /Odspy
; File D:\Metin2 Server Files\mainline\SRC_2014\Metin2Client\eterLib\Pool.h
;	COMDAT ??__E?ms_kPool@?$CPooledObject@VCAirResistanceDecorator@NEffectUpdateDecorator@@@@1V?$CDynamicPoolEx@VCAirResistanceDecorator@NEffectUpdateDecorator@@@@A@@YAXXZ
text$di	SEGMENT
??__E?ms_kPool@?$CPooledObject@VCAirResistanceDecorator@NEffectUpdateDecorator@@@@1V?$CDynamicPoolEx@VCAirResistanceDecorator@NEffectUpdateDecorator@@@@A@@YAXXZ PROC ; `dynamic initializer for 'CPooledObject<NEffectUpdateDecorator::CAirResistanceDecorator>::ms_kPool'', COMDAT

; 272  : template <class T> CDynamicPoolEx<T> CPooledObject<T>::ms_kPool;

  00000	55		 push	 ebp
  00001	8b ec		 mov	 ebp, esp
  00003	b9 00 00 00 00	 mov	 ecx, OFFSET ?ms_kPool@?$CPooledObject@VCAirResistanceDecorator@NEffectUpdateDecorator@@@@1V?$CDynamicPoolEx@VCAirResistanceDecorator@NEffectUpdateDecorator@@@@A ; CPooledObject<NEffectUpdateDecorator::CAirResistanceDecorator>::ms_kPool
  00008	e8 00 00 00 00	 call	 ??0?$CDynamicPoolEx@VCAirResistanceDecorator@NEffectUpdateDecorator@@@@QAE@XZ ; CDynamicPoolEx<NEffectUpdateDecorator::CAirResistanceDecorator>::CDynamicPoolEx<NEffectUpdateDecorator::CAirResistanceDecorator>
  0000d	68 00 00 00 00	 push	 OFFSET ??__F?ms_kPool@?$CPooledObject@VCAirResistanceDecorator@NEffectUpdateDecorator@@@@1V?$CDynamicPoolEx@VCAirResistanceDecorator@NEffectUpdateDecorator@@@@A@@YAXXZ ; `dynamic atexit destructor for 'CPooledObject<NEffectUpdateDecorator::CAirResistanceDecorator>::ms_kPool''
  00012	e8 00 00 00 00	 call	 _atexit
  00017	59		 pop	 ecx
  00018	5d		 pop	 ebp
  00019	c3		 ret	 0
??__E?ms_kPool@?$CPooledObject@VCAirResistanceDecorator@NEffectUpdateDecorator@@@@1V?$CDynamicPoolEx@VCAirResistanceDecorator@NEffectUpdateDecorator@@@@A@@YAXXZ ENDP ; `dynamic initializer for 'CPooledObject<NEffectUpdateDecorator::CAirResistanceDecorator>::ms_kPool''
text$di	ENDS
; Function compile flags: /Odspy
;	COMDAT ??__F?ms_kPool@?$CPooledObject@VCTextureAnimationRandomDecorator@NEffectUpdateDecorator@@@@1V?$CDynamicPoolEx@VCTextureAnimationRandomDecorator@NEffectUpdateDecorator@@@@A@@YAXXZ
text$yd	SEGMENT
??__F?ms_kPool@?$CPooledObject@VCTextureAnimationRandomDecorator@NEffectUpdateDecorator@@@@1V?$CDynamicPoolEx@VCTextureAnimationRandomDecorator@NEffectUpdateDecorator@@@@A@@YAXXZ PROC ; `dynamic atexit destructor for 'CPooledObject<NEffectUpdateDecorator::CTextureAnimationRandomDecorator>::ms_kPool'', COMDAT
  00000	55		 push	 ebp
  00001	8b ec		 mov	 ebp, esp
  00003	b9 00 00 00 00	 mov	 ecx, OFFSET ?ms_kPool@?$CPooledObject@VCTextureAnimationRandomDecorator@NEffectUpdateDecorator@@@@1V?$CDynamicPoolEx@VCTextureAnimationRandomDecorator@NEffectUpdateDecorator@@@@A ; CPooledObject<NEffectUpdateDecorator::CTextureAnimationRandomDecorator>::ms_kPool
  00008	e8 00 00 00 00	 call	 ??1?$CDynamicPoolEx@VCTextureAnimationRandomDecorator@NEffectUpdateDecorator@@@@UAE@XZ ; CDynamicPoolEx<NEffectUpdateDecorator::CTextureAnimationRandomDecorator>::~CDynamicPoolEx<NEffectUpdateDecorator::CTextureAnimationRandomDecorator>
  0000d	5d		 pop	 ebp
  0000e	c3		 ret	 0
??__F?ms_kPool@?$CPooledObject@VCTextureAnimationRandomDecorator@NEffectUpdateDecorator@@@@1V?$CDynamicPoolEx@VCTextureAnimationRandomDecorator@NEffectUpdateDecorator@@@@A@@YAXXZ ENDP ; `dynamic atexit destructor for 'CPooledObject<NEffectUpdateDecorator::CTextureAnimationRandomDecorator>::ms_kPool''
text$yd	ENDS
; Function compile flags: /Odspy
; File D:\Metin2 Server Files\mainline\SRC_2014\Metin2Client\eterLib\Pool.h
;	COMDAT ??__E?ms_kPool@?$CPooledObject@VCTextureAnimationRandomDecorator@NEffectUpdateDecorator@@@@1V?$CDynamicPoolEx@VCTextureAnimationRandomDecorator@NEffectUpdateDecorator@@@@A@@YAXXZ
text$di	SEGMENT
??__E?ms_kPool@?$CPooledObject@VCTextureAnimationRandomDecorator@NEffectUpdateDecorator@@@@1V?$CDynamicPoolEx@VCTextureAnimationRandomDecorator@NEffectUpdateDecorator@@@@A@@YAXXZ PROC ; `dynamic initializer for 'CPooledObject<NEffectUpdateDecorator::CTextureAnimationRandomDecorator>::ms_kPool'', COMDAT

; 272  : template <class T> CDynamicPoolEx<T> CPooledObject<T>::ms_kPool;

  00000	55		 push	 ebp
  00001	8b ec		 mov	 ebp, esp
  00003	b9 00 00 00 00	 mov	 ecx, OFFSET ?ms_kPool@?$CPooledObject@VCTextureAnimationRandomDecorator@NEffectUpdateDecorator@@@@1V?$CDynamicPoolEx@VCTextureAnimationRandomDecorator@NEffectUpdateDecorator@@@@A ; CPooledObject<NEffectUpdateDecorator::CTextureAnimationRandomDecorator>::ms_kPool
  00008	e8 00 00 00 00	 call	 ??0?$CDynamicPoolEx@VCTextureAnimationRandomDecorator@NEffectUpdateDecorator@@@@QAE@XZ ; CDynamicPoolEx<NEffectUpdateDecorator::CTextureAnimationRandomDecorator>::CDynamicPoolEx<NEffectUpdateDecorator::CTextureAnimationRandomDecorator>
  0000d	68 00 00 00 00	 push	 OFFSET ??__F?ms_kPool@?$CPooledObject@VCTextureAnimationRandomDecorator@NEffectUpdateDecorator@@@@1V?$CDynamicPoolEx@VCTextureAnimationRandomDecorator@NEffectUpdateDecorator@@@@A@@YAXXZ ; `dynamic atexit destructor for 'CPooledObject<NEffectUpdateDecorator::CTextureAnimationRandomDecorator>::ms_kPool''
  00012	e8 00 00 00 00	 call	 _atexit
  00017	59		 pop	 ecx
  00018	5d		 pop	 ebp
  00019	c3		 ret	 0
??__E?ms_kPool@?$CPooledObject@VCTextureAnimationRandomDecorator@NEffectUpdateDecorator@@@@1V?$CDynamicPoolEx@VCTextureAnimationRandomDecorator@NEffectUpdateDecorator@@@@A@@YAXXZ ENDP ; `dynamic initializer for 'CPooledObject<NEffectUpdateDecorator::CTextureAnimationRandomDecorator>::ms_kPool''
text$di	ENDS
; Function compile flags: /Odspy
;	COMDAT ??__F?ms_kPool@?$CPooledObject@VCTextureAnimationCCWDecorator@NEffectUpdateDecorator@@@@1V?$CDynamicPoolEx@VCTextureAnimationCCWDecorator@NEffectUpdateDecorator@@@@A@@YAXXZ
text$yd	SEGMENT
??__F?ms_kPool@?$CPooledObject@VCTextureAnimationCCWDecorator@NEffectUpdateDecorator@@@@1V?$CDynamicPoolEx@VCTextureAnimationCCWDecorator@NEffectUpdateDecorator@@@@A@@YAXXZ PROC ; `dynamic atexit destructor for 'CPooledObject<NEffectUpdateDecorator::CTextureAnimationCCWDecorator>::ms_kPool'', COMDAT
  00000	55		 push	 ebp
  00001	8b ec		 mov	 ebp, esp
  00003	b9 00 00 00 00	 mov	 ecx, OFFSET ?ms_kPool@?$CPooledObject@VCTextureAnimationCCWDecorator@NEffectUpdateDecorator@@@@1V?$CDynamicPoolEx@VCTextureAnimationCCWDecorator@NEffectUpdateDecorator@@@@A ; CPooledObject<NEffectUpdateDecorator::CTextureAnimationCCWDecorator>::ms_kPool
  00008	e8 00 00 00 00	 call	 ??1?$CDynamicPoolEx@VCTextureAnimationCCWDecorator@NEffectUpdateDecorator@@@@UAE@XZ ; CDynamicPoolEx<NEffectUpdateDecorator::CTextureAnimationCCWDecorator>::~CDynamicPoolEx<NEffectUpdateDecorator::CTextureAnimationCCWDecorator>
  0000d	5d		 pop	 ebp
  0000e	c3		 ret	 0
??__F?ms_kPool@?$CPooledObject@VCTextureAnimationCCWDecorator@NEffectUpdateDecorator@@@@1V?$CDynamicPoolEx@VCTextureAnimationCCWDecorator@NEffectUpdateDecorator@@@@A@@YAXXZ ENDP ; `dynamic atexit destructor for 'CPooledObject<NEffectUpdateDecorator::CTextureAnimationCCWDecorator>::ms_kPool''
text$yd	ENDS
; Function compile flags: /Odspy
; File D:\Metin2 Server Files\mainline\SRC_2014\Metin2Client\eterLib\Pool.h
;	COMDAT ??__E?ms_kPool@?$CPooledObject@VCTextureAnimationCCWDecorator@NEffectUpdateDecorator@@@@1V?$CDynamicPoolEx@VCTextureAnimationCCWDecorator@NEffectUpdateDecorator@@@@A@@YAXXZ
text$di	SEGMENT
??__E?ms_kPool@?$CPooledObject@VCTextureAnimationCCWDecorator@NEffectUpdateDecorator@@@@1V?$CDynamicPoolEx@VCTextureAnimationCCWDecorator@NEffectUpdateDecorator@@@@A@@YAXXZ PROC ; `dynamic initializer for 'CPooledObject<NEffectUpdateDecorator::CTextureAnimationCCWDecorator>::ms_kPool'', COMDAT

; 272  : template <class T> CDynamicPoolEx<T> CPooledObject<T>::ms_kPool;

  00000	55		 push	 ebp
  00001	8b ec		 mov	 ebp, esp
  00003	b9 00 00 00 00	 mov	 ecx, OFFSET ?ms_kPool@?$CPooledObject@VCTextureAnimationCCWDecorator@NEffectUpdateDecorator@@@@1V?$CDynamicPoolEx@VCTextureAnimationCCWDecorator@NEffectUpdateDecorator@@@@A ; CPooledObject<NEffectUpdateDecorator::CTextureAnimationCCWDecorator>::ms_kPool
  00008	e8 00 00 00 00	 call	 ??0?$CDynamicPoolEx@VCTextureAnimationCCWDecorator@NEffectUpdateDecorator@@@@QAE@XZ ; CDynamicPoolEx<NEffectUpdateDecorator::CTextureAnimationCCWDecorator>::CDynamicPoolEx<NEffectUpdateDecorator::CTextureAnimationCCWDecorator>
  0000d	68 00 00 00 00	 push	 OFFSET ??__F?ms_kPool@?$CPooledObject@VCTextureAnimationCCWDecorator@NEffectUpdateDecorator@@@@1V?$CDynamicPoolEx@VCTextureAnimationCCWDecorator@NEffectUpdateDecorator@@@@A@@YAXXZ ; `dynamic atexit destructor for 'CPooledObject<NEffectUpdateDecorator::CTextureAnimationCCWDecorator>::ms_kPool''
  00012	e8 00 00 00 00	 call	 _atexit
  00017	59		 pop	 ecx
  00018	5d		 pop	 ebp
  00019	c3		 ret	 0
??__E?ms_kPool@?$CPooledObject@VCTextureAnimationCCWDecorator@NEffectUpdateDecorator@@@@1V?$CDynamicPoolEx@VCTextureAnimationCCWDecorator@NEffectUpdateDecorator@@@@A@@YAXXZ ENDP ; `dynamic initializer for 'CPooledObject<NEffectUpdateDecorator::CTextureAnimationCCWDecorator>::ms_kPool''
text$di	ENDS
; Function compile flags: /Odspy
;	COMDAT ??__F?ms_kPool@?$CPooledObject@VCTextureAnimationCWDecorator@NEffectUpdateDecorator@@@@1V?$CDynamicPoolEx@VCTextureAnimationCWDecorator@NEffectUpdateDecorator@@@@A@@YAXXZ
text$yd	SEGMENT
??__F?ms_kPool@?$CPooledObject@VCTextureAnimationCWDecorator@NEffectUpdateDecorator@@@@1V?$CDynamicPoolEx@VCTextureAnimationCWDecorator@NEffectUpdateDecorator@@@@A@@YAXXZ PROC ; `dynamic atexit destructor for 'CPooledObject<NEffectUpdateDecorator::CTextureAnimationCWDecorator>::ms_kPool'', COMDAT
  00000	55		 push	 ebp
  00001	8b ec		 mov	 ebp, esp
  00003	b9 00 00 00 00	 mov	 ecx, OFFSET ?ms_kPool@?$CPooledObject@VCTextureAnimationCWDecorator@NEffectUpdateDecorator@@@@1V?$CDynamicPoolEx@VCTextureAnimationCWDecorator@NEffectUpdateDecorator@@@@A ; CPooledObject<NEffectUpdateDecorator::CTextureAnimationCWDecorator>::ms_kPool
  00008	e8 00 00 00 00	 call	 ??1?$CDynamicPoolEx@VCTextureAnimationCWDecorator@NEffectUpdateDecorator@@@@UAE@XZ ; CDynamicPoolEx<NEffectUpdateDecorator::CTextureAnimationCWDecorator>::~CDynamicPoolEx<NEffectUpdateDecorator::CTextureAnimationCWDecorator>
  0000d	5d		 pop	 ebp
  0000e	c3		 ret	 0
??__F?ms_kPool@?$CPooledObject@VCTextureAnimationCWDecorator@NEffectUpdateDecorator@@@@1V?$CDynamicPoolEx@VCTextureAnimationCWDecorator@NEffectUpdateDecorator@@@@A@@YAXXZ ENDP ; `dynamic atexit destructor for 'CPooledObject<NEffectUpdateDecorator::CTextureAnimationCWDecorator>::ms_kPool''
text$yd	ENDS
; Function compile flags: /Odspy
; File D:\Metin2 Server Files\mainline\SRC_2014\Metin2Client\eterLib\Pool.h
;	COMDAT ??__E?ms_kPool@?$CPooledObject@VCTextureAnimationCWDecorator@NEffectUpdateDecorator@@@@1V?$CDynamicPoolEx@VCTextureAnimationCWDecorator@NEffectUpdateDecorator@@@@A@@YAXXZ
text$di	SEGMENT
??__E?ms_kPool@?$CPooledObject@VCTextureAnimationCWDecorator@NEffectUpdateDecorator@@@@1V?$CDynamicPoolEx@VCTextureAnimationCWDecorator@NEffectUpdateDecorator@@@@A@@YAXXZ PROC ; `dynamic initializer for 'CPooledObject<NEffectUpdateDecorator::CTextureAnimationCWDecorator>::ms_kPool'', COMDAT

; 272  : template <class T> CDynamicPoolEx<T> CPooledObject<T>::ms_kPool;

  00000	55		 push	 ebp
  00001	8b ec		 mov	 ebp, esp
  00003	b9 00 00 00 00	 mov	 ecx, OFFSET ?ms_kPool@?$CPooledObject@VCTextureAnimationCWDecorator@NEffectUpdateDecorator@@@@1V?$CDynamicPoolEx@VCTextureAnimationCWDecorator@NEffectUpdateDecorator@@@@A ; CPooledObject<NEffectUpdateDecorator::CTextureAnimationCWDecorator>::ms_kPool
  00008	e8 00 00 00 00	 call	 ??0?$CDynamicPoolEx@VCTextureAnimationCWDecorator@NEffectUpdateDecorator@@@@QAE@XZ ; CDynamicPoolEx<NEffectUpdateDecorator::CTextureAnimationCWDecorator>::CDynamicPoolEx<NEffectUpdateDecorator::CTextureAnimationCWDecorator>
  0000d	68 00 00 00 00	 push	 OFFSET ??__F?ms_kPool@?$CPooledObject@VCTextureAnimationCWDecorator@NEffectUpdateDecorator@@@@1V?$CDynamicPoolEx@VCTextureAnimationCWDecorator@NEffectUpdateDecorator@@@@A@@YAXXZ ; `dynamic atexit destructor for 'CPooledObject<NEffectUpdateDecorator::CTextureAnimationCWDecorator>::ms_kPool''
  00012	e8 00 00 00 00	 call	 _atexit
  00017	59		 pop	 ecx
  00018	5d		 pop	 ebp
  00019	c3		 ret	 0
??__E?ms_kPool@?$CPooledObject@VCTextureAnimationCWDecorator@NEffectUpdateDecorator@@@@1V?$CDynamicPoolEx@VCTextureAnimationCWDecorator@NEffectUpdateDecorator@@@@A@@YAXXZ ENDP ; `dynamic initializer for 'CPooledObject<NEffectUpdateDecorator::CTextureAnimationCWDecorator>::ms_kPool''
text$di	ENDS
; Function compile flags: /Odspy
;	COMDAT ??__F?ms_kPool@?$CPooledObject@VCNullDecorator@NEffectUpdateDecorator@@@@1V?$CDynamicPoolEx@VCNullDecorator@NEffectUpdateDecorator@@@@A@@YAXXZ
text$yd	SEGMENT
??__F?ms_kPool@?$CPooledObject@VCNullDecorator@NEffectUpdateDecorator@@@@1V?$CDynamicPoolEx@VCNullDecorator@NEffectUpdateDecorator@@@@A@@YAXXZ PROC ; `dynamic atexit destructor for 'CPooledObject<NEffectUpdateDecorator::CNullDecorator>::ms_kPool'', COMDAT
  00000	55		 push	 ebp
  00001	8b ec		 mov	 ebp, esp
  00003	b9 00 00 00 00	 mov	 ecx, OFFSET ?ms_kPool@?$CPooledObject@VCNullDecorator@NEffectUpdateDecorator@@@@1V?$CDynamicPoolEx@VCNullDecorator@NEffectUpdateDecorator@@@@A ; CPooledObject<NEffectUpdateDecorator::CNullDecorator>::ms_kPool
  00008	e8 00 00 00 00	 call	 ??1?$CDynamicPoolEx@VCNullDecorator@NEffectUpdateDecorator@@@@UAE@XZ ; CDynamicPoolEx<NEffectUpdateDecorator::CNullDecorator>::~CDynamicPoolEx<NEffectUpdateDecorator::CNullDecorator>
  0000d	5d		 pop	 ebp
  0000e	c3		 ret	 0
??__F?ms_kPool@?$CPooledObject@VCNullDecorator@NEffectUpdateDecorator@@@@1V?$CDynamicPoolEx@VCNullDecorator@NEffectUpdateDecorator@@@@A@@YAXXZ ENDP ; `dynamic atexit destructor for 'CPooledObject<NEffectUpdateDecorator::CNullDecorator>::ms_kPool''
text$yd	ENDS
; Function compile flags: /Odspy
; File D:\Metin2 Server Files\mainline\SRC_2014\Metin2Client\eterLib\Pool.h
;	COMDAT ??__E?ms_kPool@?$CPooledObject@VCNullDecorator@NEffectUpdateDecorator@@@@1V?$CDynamicPoolEx@VCNullDecorator@NEffectUpdateDecorator@@@@A@@YAXXZ
text$di	SEGMENT
??__E?ms_kPool@?$CPooledObject@VCNullDecorator@NEffectUpdateDecorator@@@@1V?$CDynamicPoolEx@VCNullDecorator@NEffectUpdateDecorator@@@@A@@YAXXZ PROC ; `dynamic initializer for 'CPooledObject<NEffectUpdateDecorator::CNullDecorator>::ms_kPool'', COMDAT

; 272  : template <class T> CDynamicPoolEx<T> CPooledObject<T>::ms_kPool;

  00000	55		 push	 ebp
  00001	8b ec		 mov	 ebp, esp
  00003	b9 00 00 00 00	 mov	 ecx, OFFSET ?ms_kPool@?$CPooledObject@VCNullDecorator@NEffectUpdateDecorator@@@@1V?$CDynamicPoolEx@VCNullDecorator@NEffectUpdateDecorator@@@@A ; CPooledObject<NEffectUpdateDecorator::CNullDecorator>::ms_kPool
  00008	e8 00 00 00 00	 call	 ??0?$CDynamicPoolEx@VCNullDecorator@NEffectUpdateDecorator@@@@QAE@XZ ; CDynamicPoolEx<NEffectUpdateDecorator::CNullDecorator>::CDynamicPoolEx<NEffectUpdateDecorator::CNullDecorator>
  0000d	68 00 00 00 00	 push	 OFFSET ??__F?ms_kPool@?$CPooledObject@VCNullDecorator@NEffectUpdateDecorator@@@@1V?$CDynamicPoolEx@VCNullDecorator@NEffectUpdateDecorator@@@@A@@YAXXZ ; `dynamic atexit destructor for 'CPooledObject<NEffectUpdateDecorator::CNullDecorator>::ms_kPool''
  00012	e8 00 00 00 00	 call	 _atexit
  00017	59		 pop	 ecx
  00018	5d		 pop	 ebp
  00019	c3		 ret	 0
??__E?ms_kPool@?$CPooledObject@VCNullDecorator@NEffectUpdateDecorator@@@@1V?$CDynamicPoolEx@VCNullDecorator@NEffectUpdateDecorator@@@@A@@YAXXZ ENDP ; `dynamic initializer for 'CPooledObject<NEffectUpdateDecorator::CNullDecorator>::ms_kPool''
text$di	ENDS
; Function compile flags: /Odspy
;	COMDAT ??__F?ms_kPool@?$CPooledObject@VCHeaderDecorator@NEffectUpdateDecorator@@@@1V?$CDynamicPoolEx@VCHeaderDecorator@NEffectUpdateDecorator@@@@A@@YAXXZ
text$yd	SEGMENT
??__F?ms_kPool@?$CPooledObject@VCHeaderDecorator@NEffectUpdateDecorator@@@@1V?$CDynamicPoolEx@VCHeaderDecorator@NEffectUpdateDecorator@@@@A@@YAXXZ PROC ; `dynamic atexit destructor for 'CPooledObject<NEffectUpdateDecorator::CHeaderDecorator>::ms_kPool'', COMDAT
  00000	55		 push	 ebp
  00001	8b ec		 mov	 ebp, esp
  00003	b9 00 00 00 00	 mov	 ecx, OFFSET ?ms_kPool@?$CPooledObject@VCHeaderDecorator@NEffectUpdateDecorator@@@@1V?$CDynamicPoolEx@VCHeaderDecorator@NEffectUpdateDecorator@@@@A ; CPooledObject<NEffectUpdateDecorator::CHeaderDecorator>::ms_kPool
  00008	e8 00 00 00 00	 call	 ??1?$CDynamicPoolEx@VCHeaderDecorator@NEffectUpdateDecorator@@@@UAE@XZ ; CDynamicPoolEx<NEffectUpdateDecorator::CHeaderDecorator>::~CDynamicPoolEx<NEffectUpdateDecorator::CHeaderDecorator>
  0000d	5d		 pop	 ebp
  0000e	c3		 ret	 0
??__F?ms_kPool@?$CPooledObject@VCHeaderDecorator@NEffectUpdateDecorator@@@@1V?$CDynamicPoolEx@VCHeaderDecorator@NEffectUpdateDecorator@@@@A@@YAXXZ ENDP ; `dynamic atexit destructor for 'CPooledObject<NEffectUpdateDecorator::CHeaderDecorator>::ms_kPool''
text$yd	ENDS
; Function compile flags: /Odspy
; File D:\Metin2 Server Files\mainline\SRC_2014\Metin2Client\eterLib\Pool.h
;	COMDAT ??__E?ms_kPool@?$CPooledObject@VCHeaderDecorator@NEffectUpdateDecorator@@@@1V?$CDynamicPoolEx@VCHeaderDecorator@NEffectUpdateDecorator@@@@A@@YAXXZ
text$di	SEGMENT
??__E?ms_kPool@?$CPooledObject@VCHeaderDecorator@NEffectUpdateDecorator@@@@1V?$CDynamicPoolEx@VCHeaderDecorator@NEffectUpdateDecorator@@@@A@@YAXXZ PROC ; `dynamic initializer for 'CPooledObject<NEffectUpdateDecorator::CHeaderDecorator>::ms_kPool'', COMDAT

; 272  : template <class T> CDynamicPoolEx<T> CPooledObject<T>::ms_kPool;

  00000	55		 push	 ebp
  00001	8b ec		 mov	 ebp, esp
  00003	b9 00 00 00 00	 mov	 ecx, OFFSET ?ms_kPool@?$CPooledObject@VCHeaderDecorator@NEffectUpdateDecorator@@@@1V?$CDynamicPoolEx@VCHeaderDecorator@NEffectUpdateDecorator@@@@A ; CPooledObject<NEffectUpdateDecorator::CHeaderDecorator>::ms_kPool
  00008	e8 00 00 00 00	 call	 ??0?$CDynamicPoolEx@VCHeaderDecorator@NEffectUpdateDecorator@@@@QAE@XZ ; CDynamicPoolEx<NEffectUpdateDecorator::CHeaderDecorator>::CDynamicPoolEx<NEffectUpdateDecorator::CHeaderDecorator>
  0000d	68 00 00 00 00	 push	 OFFSET ??__F?ms_kPool@?$CPooledObject@VCHeaderDecorator@NEffectUpdateDecorator@@@@1V?$CDynamicPoolEx@VCHeaderDecorator@NEffectUpdateDecorator@@@@A@@YAXXZ ; `dynamic atexit destructor for 'CPooledObject<NEffectUpdateDecorator::CHeaderDecorator>::ms_kPool''
  00012	e8 00 00 00 00	 call	 _atexit
  00017	59		 pop	 ecx
  00018	5d		 pop	 ebp
  00019	c3		 ret	 0
??__E?ms_kPool@?$CPooledObject@VCHeaderDecorator@NEffectUpdateDecorator@@@@1V?$CDynamicPoolEx@VCHeaderDecorator@NEffectUpdateDecorator@@@@A@@YAXXZ ENDP ; `dynamic initializer for 'CPooledObject<NEffectUpdateDecorator::CHeaderDecorator>::ms_kPool''
text$di	ENDS
; Function compile flags: /Odspy
; File C:\Program Files (x86)\Microsoft Visual Studio\2019\Community\VC\Tools\MSVC\14.28.29333\include\xmemory
;	COMDAT ??$_Destroy_range@V?$allocator@PAVCRotationDecorator@NEffectUpdateDecorator@@@std@@@std@@YAXPAPAVCRotationDecorator@NEffectUpdateDecorator@@QAPAV12@AAV?$allocator@PAVCRotationDecorator@NEffectUpdateDecorator@@@0@@Z
_TEXT	SEGMENT
__First$ = 8						; size = 4
__Last$ = 12						; size = 4
__Al$ = 16						; size = 4
??$_Destroy_range@V?$allocator@PAVCRotationDecorator@NEffectUpdateDecorator@@@std@@@std@@YAXPAPAVCRotationDecorator@NEffectUpdateDecorator@@QAPAV12@AAV?$allocator@PAVCRotationDecorator@NEffectUpdateDecorator@@@0@@Z PROC ; std::_Destroy_range<std::allocator<NEffectUpdateDecorator::CRotationDecorator *> >, COMDAT

; 962  :     _Alloc_ptr_t<_Alloc> _First, const _Alloc_ptr_t<_Alloc> _Last, _Alloc& _Al) noexcept {

  00000	55		 push	 ebp
  00001	8b ec		 mov	 ebp, esp

; 963  :     // note that this is an optimization for debug mode codegen; in release mode the BE removes all of this
; 964  :     using _Ty = typename _Alloc::value_type;
; 965  :     if _CONSTEXPR_IF (!conjunction_v<is_trivially_destructible<_Ty>, _Uses_default_destroy<_Alloc, _Ty*>>) {
; 966  :         for (; _First != _Last; ++_First) {
; 967  :             allocator_traits<_Alloc>::destroy(_Al, _Unfancy(_First));
; 968  :         }
; 969  :     }
; 970  : }

  00003	5d		 pop	 ebp
  00004	c3		 ret	 0
??$_Destroy_range@V?$allocator@PAVCRotationDecorator@NEffectUpdateDecorator@@@std@@@std@@YAXPAPAVCRotationDecorator@NEffectUpdateDecorator@@QAPAV12@AAV?$allocator@PAVCRotationDecorator@NEffectUpdateDecorator@@@0@@Z ENDP ; std::_Destroy_range<std::allocator<NEffectUpdateDecorator::CRotationDecorator *> >
_TEXT	ENDS
; Function compile flags: /Odspy
; File C:\Program Files (x86)\Microsoft Visual Studio\2019\Community\VC\Tools\MSVC\14.28.29333\include\xmemory
;	COMDAT ??$_Destroy_range@V?$allocator@PAVCGravityDecorator@NEffectUpdateDecorator@@@std@@@std@@YAXPAPAVCGravityDecorator@NEffectUpdateDecorator@@QAPAV12@AAV?$allocator@PAVCGravityDecorator@NEffectUpdateDecorator@@@0@@Z
_TEXT	SEGMENT
__First$ = 8						; size = 4
__Last$ = 12						; size = 4
__Al$ = 16						; size = 4
??$_Destroy_range@V?$allocator@PAVCGravityDecorator@NEffectUpdateDecorator@@@std@@@std@@YAXPAPAVCGravityDecorator@NEffectUpdateDecorator@@QAPAV12@AAV?$allocator@PAVCGravityDecorator@NEffectUpdateDecorator@@@0@@Z PROC ; std::_Destroy_range<std::allocator<NEffectUpdateDecorator::CGravityDecorator *> >, COMDAT

; 962  :     _Alloc_ptr_t<_Alloc> _First, const _Alloc_ptr_t<_Alloc> _Last, _Alloc& _Al) noexcept {

  00000	55		 push	 ebp
  00001	8b ec		 mov	 ebp, esp

; 963  :     // note that this is an optimization for debug mode codegen; in release mode the BE removes all of this
; 964  :     using _Ty = typename _Alloc::value_type;
; 965  :     if _CONSTEXPR_IF (!conjunction_v<is_trivially_destructible<_Ty>, _Uses_default_destroy<_Alloc, _Ty*>>) {
; 966  :         for (; _First != _Last; ++_First) {
; 967  :             allocator_traits<_Alloc>::destroy(_Al, _Unfancy(_First));
; 968  :         }
; 969  :     }
; 970  : }

  00003	5d		 pop	 ebp
  00004	c3		 ret	 0
??$_Destroy_range@V?$allocator@PAVCGravityDecorator@NEffectUpdateDecorator@@@std@@@std@@YAXPAPAVCGravityDecorator@NEffectUpdateDecorator@@QAPAV12@AAV?$allocator@PAVCGravityDecorator@NEffectUpdateDecorator@@@0@@Z ENDP ; std::_Destroy_range<std::allocator<NEffectUpdateDecorator::CGravityDecorator *> >
_TEXT	ENDS
; Function compile flags: /Odspy
; File C:\Program Files (x86)\Microsoft Visual Studio\2019\Community\VC\Tools\MSVC\14.28.29333\include\xmemory
;	COMDAT ??$_Destroy_range@V?$allocator@PAVCAirResistanceDecorator@NEffectUpdateDecorator@@@std@@@std@@YAXPAPAVCAirResistanceDecorator@NEffectUpdateDecorator@@QAPAV12@AAV?$allocator@PAVCAirResistanceDecorator@NEffectUpdateDecorator@@@0@@Z
_TEXT	SEGMENT
__First$ = 8						; size = 4
__Last$ = 12						; size = 4
__Al$ = 16						; size = 4
??$_Destroy_range@V?$allocator@PAVCAirResistanceDecorator@NEffectUpdateDecorator@@@std@@@std@@YAXPAPAVCAirResistanceDecorator@NEffectUpdateDecorator@@QAPAV12@AAV?$allocator@PAVCAirResistanceDecorator@NEffectUpdateDecorator@@@0@@Z PROC ; std::_Destroy_range<std::allocator<NEffectUpdateDecorator::CAirResistanceDecorator *> >, COMDAT

; 962  :     _Alloc_ptr_t<_Alloc> _First, const _Alloc_ptr_t<_Alloc> _Last, _Alloc& _Al) noexcept {

  00000	55		 push	 ebp
  00001	8b ec		 mov	 ebp, esp

; 963  :     // note that this is an optimization for debug mode codegen; in release mode the BE removes all of this
; 964  :     using _Ty = typename _Alloc::value_type;
; 965  :     if _CONSTEXPR_IF (!conjunction_v<is_trivially_destructible<_Ty>, _Uses_default_destroy<_Alloc, _Ty*>>) {
; 966  :         for (; _First != _Last; ++_First) {
; 967  :             allocator_traits<_Alloc>::destroy(_Al, _Unfancy(_First));
; 968  :         }
; 969  :     }
; 970  : }

  00003	5d		 pop	 ebp
  00004	c3		 ret	 0
??$_Destroy_range@V?$allocator@PAVCAirResistanceDecorator@NEffectUpdateDecorator@@@std@@@std@@YAXPAPAVCAirResistanceDecorator@NEffectUpdateDecorator@@QAPAV12@AAV?$allocator@PAVCAirResistanceDecorator@NEffectUpdateDecorator@@@0@@Z ENDP ; std::_Destroy_range<std::allocator<NEffectUpdateDecorator::CAirResistanceDecorator *> >
_TEXT	ENDS
; Function compile flags: /Odspy
; File C:\Program Files (x86)\Microsoft Visual Studio\2019\Community\VC\Tools\MSVC\14.28.29333\include\xmemory
;	COMDAT ??$_Destroy_range@V?$allocator@PAVCTextureAnimationRandomDecorator@NEffectUpdateDecorator@@@std@@@std@@YAXPAPAVCTextureAnimationRandomDecorator@NEffectUpdateDecorator@@QAPAV12@AAV?$allocator@PAVCTextureAnimationRandomDecorator@NEffectUpdateDecorator@@@0@@Z
_TEXT	SEGMENT
__First$ = 8						; size = 4
__Last$ = 12						; size = 4
__Al$ = 16						; size = 4
??$_Destroy_range@V?$allocator@PAVCTextureAnimationRandomDecorator@NEffectUpdateDecorator@@@std@@@std@@YAXPAPAVCTextureAnimationRandomDecorator@NEffectUpdateDecorator@@QAPAV12@AAV?$allocator@PAVCTextureAnimationRandomDecorator@NEffectUpdateDecorator@@@0@@Z PROC ; std::_Destroy_range<std::allocator<NEffectUpdateDecorator::CTextureAnimationRandomDecorator *> >, COMDAT

; 962  :     _Alloc_ptr_t<_Alloc> _First, const _Alloc_ptr_t<_Alloc> _Last, _Alloc& _Al) noexcept {

  00000	55		 push	 ebp
  00001	8b ec		 mov	 ebp, esp

; 963  :     // note that this is an optimization for debug mode codegen; in release mode the BE removes all of this
; 964  :     using _Ty = typename _Alloc::value_type;
; 965  :     if _CONSTEXPR_IF (!conjunction_v<is_trivially_destructible<_Ty>, _Uses_default_destroy<_Alloc, _Ty*>>) {
; 966  :         for (; _First != _Last; ++_First) {
; 967  :             allocator_traits<_Alloc>::destroy(_Al, _Unfancy(_First));
; 968  :         }
; 969  :     }
; 970  : }

  00003	5d		 pop	 ebp
  00004	c3		 ret	 0
??$_Destroy_range@V?$allocator@PAVCTextureAnimationRandomDecorator@NEffectUpdateDecorator@@@std@@@std@@YAXPAPAVCTextureAnimationRandomDecorator@NEffectUpdateDecorator@@QAPAV12@AAV?$allocator@PAVCTextureAnimationRandomDecorator@NEffectUpdateDecorator@@@0@@Z ENDP ; std::_Destroy_range<std::allocator<NEffectUpdateDecorator::CTextureAnimationRandomDecorator *> >
_TEXT	ENDS
; Function compile flags: /Odspy
; File C:\Program Files (x86)\Microsoft Visual Studio\2019\Community\VC\Tools\MSVC\14.28.29333\include\xmemory
;	COMDAT ??$_Destroy_range@V?$allocator@PAVCTextureAnimationCCWDecorator@NEffectUpdateDecorator@@@std@@@std@@YAXPAPAVCTextureAnimationCCWDecorator@NEffectUpdateDecorator@@QAPAV12@AAV?$allocator@PAVCTextureAnimationCCWDecorator@NEffectUpdateDecorator@@@0@@Z
_TEXT	SEGMENT
__First$ = 8						; size = 4
__Last$ = 12						; size = 4
__Al$ = 16						; size = 4
??$_Destroy_range@V?$allocator@PAVCTextureAnimationCCWDecorator@NEffectUpdateDecorator@@@std@@@std@@YAXPAPAVCTextureAnimationCCWDecorator@NEffectUpdateDecorator@@QAPAV12@AAV?$allocator@PAVCTextureAnimationCCWDecorator@NEffectUpdateDecorator@@@0@@Z PROC ; std::_Destroy_range<std::allocator<NEffectUpdateDecorator::CTextureAnimationCCWDecorator *> >, COMDAT

; 962  :     _Alloc_ptr_t<_Alloc> _First, const _Alloc_ptr_t<_Alloc> _Last, _Alloc& _Al) noexcept {

  00000	55		 push	 ebp
  00001	8b ec		 mov	 ebp, esp

; 963  :     // note that this is an optimization for debug mode codegen; in release mode the BE removes all of this
; 964  :     using _Ty = typename _Alloc::value_type;
; 965  :     if _CONSTEXPR_IF (!conjunction_v<is_trivially_destructible<_Ty>, _Uses_default_destroy<_Alloc, _Ty*>>) {
; 966  :         for (; _First != _Last; ++_First) {
; 967  :             allocator_traits<_Alloc>::destroy(_Al, _Unfancy(_First));
; 968  :         }
; 969  :     }
; 970  : }

  00003	5d		 pop	 ebp
  00004	c3		 ret	 0
??$_Destroy_range@V?$allocator@PAVCTextureAnimationCCWDecorator@NEffectUpdateDecorator@@@std@@@std@@YAXPAPAVCTextureAnimationCCWDecorator@NEffectUpdateDecorator@@QAPAV12@AAV?$allocator@PAVCTextureAnimationCCWDecorator@NEffectUpdateDecorator@@@0@@Z ENDP ; std::_Destroy_range<std::allocator<NEffectUpdateDecorator::CTextureAnimationCCWDecorator *> >
_TEXT	ENDS
; Function compile flags: /Odspy
; File C:\Program Files (x86)\Microsoft Visual Studio\2019\Community\VC\Tools\MSVC\14.28.29333\include\xmemory
;	COMDAT ??$_Destroy_range@V?$allocator@PAVCTextureAnimationCWDecorator@NEffectUpdateDecorator@@@std@@@std@@YAXPAPAVCTextureAnimationCWDecorator@NEffectUpdateDecorator@@QAPAV12@AAV?$allocator@PAVCTextureAnimationCWDecorator@NEffectUpdateDecorator@@@0@@Z
_TEXT	SEGMENT
__First$ = 8						; size = 4
__Last$ = 12						; size = 4
__Al$ = 16						; size = 4
??$_Destroy_range@V?$allocator@PAVCTextureAnimationCWDecorator@NEffectUpdateDecorator@@@std@@@std@@YAXPAPAVCTextureAnimationCWDecorator@NEffectUpdateDecorator@@QAPAV12@AAV?$allocator@PAVCTextureAnimationCWDecorator@NEffectUpdateDecorator@@@0@@Z PROC ; std::_Destroy_range<std::allocator<NEffectUpdateDecorator::CTextureAnimationCWDecorator *> >, COMDAT

; 962  :     _Alloc_ptr_t<_Alloc> _First, const _Alloc_ptr_t<_Alloc> _Last, _Alloc& _Al) noexcept {

  00000	55		 push	 ebp
  00001	8b ec		 mov	 ebp, esp

; 963  :     // note that this is an optimization for debug mode codegen; in release mode the BE removes all of this
; 964  :     using _Ty = typename _Alloc::value_type;
; 965  :     if _CONSTEXPR_IF (!conjunction_v<is_trivially_destructible<_Ty>, _Uses_default_destroy<_Alloc, _Ty*>>) {
; 966  :         for (; _First != _Last; ++_First) {
; 967  :             allocator_traits<_Alloc>::destroy(_Al, _Unfancy(_First));
; 968  :         }
; 969  :     }
; 970  : }

  00003	5d		 pop	 ebp
  00004	c3		 ret	 0
??$_Destroy_range@V?$allocator@PAVCTextureAnimationCWDecorator@NEffectUpdateDecorator@@@std@@@std@@YAXPAPAVCTextureAnimationCWDecorator@NEffectUpdateDecorator@@QAPAV12@AAV?$allocator@PAVCTextureAnimationCWDecorator@NEffectUpdateDecorator@@@0@@Z ENDP ; std::_Destroy_range<std::allocator<NEffectUpdateDecorator::CTextureAnimationCWDecorator *> >
_TEXT	ENDS
; Function compile flags: /Odspy
; File C:\Program Files (x86)\Microsoft Visual Studio\2019\Community\VC\Tools\MSVC\14.28.29333\include\xmemory
;	COMDAT ??$_Destroy_range@V?$allocator@PAVCNullDecorator@NEffectUpdateDecorator@@@std@@@std@@YAXPAPAVCNullDecorator@NEffectUpdateDecorator@@QAPAV12@AAV?$allocator@PAVCNullDecorator@NEffectUpdateDecorator@@@0@@Z
_TEXT	SEGMENT
__First$ = 8						; size = 4
__Last$ = 12						; size = 4
__Al$ = 16						; size = 4
??$_Destroy_range@V?$allocator@PAVCNullDecorator@NEffectUpdateDecorator@@@std@@@std@@YAXPAPAVCNullDecorator@NEffectUpdateDecorator@@QAPAV12@AAV?$allocator@PAVCNullDecorator@NEffectUpdateDecorator@@@0@@Z PROC ; std::_Destroy_range<std::allocator<NEffectUpdateDecorator::CNullDecorator *> >, COMDAT

; 962  :     _Alloc_ptr_t<_Alloc> _First, const _Alloc_ptr_t<_Alloc> _Last, _Alloc& _Al) noexcept {

  00000	55		 push	 ebp
  00001	8b ec		 mov	 ebp, esp

; 963  :     // note that this is an optimization for debug mode codegen; in release mode the BE removes all of this
; 964  :     using _Ty = typename _Alloc::value_type;
; 965  :     if _CONSTEXPR_IF (!conjunction_v<is_trivially_destructible<_Ty>, _Uses_default_destroy<_Alloc, _Ty*>>) {
; 966  :         for (; _First != _Last; ++_First) {
; 967  :             allocator_traits<_Alloc>::destroy(_Al, _Unfancy(_First));
; 968  :         }
; 969  :     }
; 970  : }

  00003	5d		 pop	 ebp
  00004	c3		 ret	 0
??$_Destroy_range@V?$allocator@PAVCNullDecorator@NEffectUpdateDecorator@@@std@@@std@@YAXPAPAVCNullDecorator@NEffectUpdateDecorator@@QAPAV12@AAV?$allocator@PAVCNullDecorator@NEffectUpdateDecorator@@@0@@Z ENDP ; std::_Destroy_range<std::allocator<NEffectUpdateDecorator::CNullDecorator *> >
_TEXT	ENDS
; Function compile flags: /Odspy
; File C:\Program Files (x86)\Microsoft Visual Studio\2019\Community\VC\Tools\MSVC\14.28.29333\include\xmemory
;	COMDAT ??$_Destroy_range@V?$allocator@PAVCHeaderDecorator@NEffectUpdateDecorator@@@std@@@std@@YAXPAPAVCHeaderDecorator@NEffectUpdateDecorator@@QAPAV12@AAV?$allocator@PAVCHeaderDecorator@NEffectUpdateDecorator@@@0@@Z
_TEXT	SEGMENT
__First$ = 8						; size = 4
__Last$ = 12						; size = 4
__Al$ = 16						; size = 4
??$_Destroy_range@V?$allocator@PAVCHeaderDecorator@NEffectUpdateDecorator@@@std@@@std@@YAXPAPAVCHeaderDecorator@NEffectUpdateDecorator@@QAPAV12@AAV?$allocator@PAVCHeaderDecorator@NEffectUpdateDecorator@@@0@@Z PROC ; std::_Destroy_range<std::allocator<NEffectUpdateDecorator::CHeaderDecorator *> >, COMDAT

; 962  :     _Alloc_ptr_t<_Alloc> _First, const _Alloc_ptr_t<_Alloc> _Last, _Alloc& _Al) noexcept {

  00000	55		 push	 ebp
  00001	8b ec		 mov	 ebp, esp

; 963  :     // note that this is an optimization for debug mode codegen; in release mode the BE removes all of this
; 964  :     using _Ty = typename _Alloc::value_type;
; 965  :     if _CONSTEXPR_IF (!conjunction_v<is_trivially_destructible<_Ty>, _Uses_default_destroy<_Alloc, _Ty*>>) {
; 966  :         for (; _First != _Last; ++_First) {
; 967  :             allocator_traits<_Alloc>::destroy(_Al, _Unfancy(_First));
; 968  :         }
; 969  :     }
; 970  : }

  00003	5d		 pop	 ebp
  00004	c3		 ret	 0
??$_Destroy_range@V?$allocator@PAVCHeaderDecorator@NEffectUpdateDecorator@@@std@@@std@@YAXPAPAVCHeaderDecorator@NEffectUpdateDecorator@@QAPAV12@AAV?$allocator@PAVCHeaderDecorator@NEffectUpdateDecorator@@@0@@Z ENDP ; std::_Destroy_range<std::allocator<NEffectUpdateDecorator::CHeaderDecorator *> >
_TEXT	ENDS
; Function compile flags: /Odspy
; File C:\Program Files (x86)\Microsoft Visual Studio\2019\Community\VC\Tools\MSVC\14.28.29333\include\algorithm
; File C:\Program Files (x86)\Microsoft Visual Studio\2019\Community\VC\Tools\MSVC\14.28.29333\include\vector
; File C:\Program Files (x86)\Microsoft Visual Studio\2019\Community\VC\Tools\MSVC\14.28.29333\include\xstddef
; File C:\Program Files (x86)\Microsoft Visual Studio\2019\Community\VC\Tools\MSVC\14.28.29333\include\vector
; File C:\Program Files (x86)\Microsoft Visual Studio\2019\Community\VC\Tools\MSVC\14.28.29333\include\algorithm
; File C:\Program Files (x86)\Microsoft Visual Studio\2019\Community\VC\Tools\MSVC\14.28.29333\include\vector
; File C:\Program Files (x86)\Microsoft Visual Studio\2019\Community\VC\Tools\MSVC\14.28.29333\include\xstddef
; File C:\Program Files (x86)\Microsoft Visual Studio\2019\Community\VC\Tools\MSVC\14.28.29333\include\vector
; File C:\Program Files (x86)\Microsoft Visual Studio\2019\Community\VC\Tools\MSVC\14.28.29333\include\algorithm
;	COMDAT ??$for_each@V?$_Vector_iterator@V?$_Vector_val@U?$_Simple_types@PAVCRotationDecorator@NEffectUpdateDecorator@@@std@@@std@@@std@@P6AXPAVCRotationDecorator@NEffectUpdateDecorator@@@Z@std@@YAP6AXPAVCRotationDecorator@NEffectUpdateDecorator@@@ZV?$_Vector_iterator@V?$_Vector_val@U?$_Simple_types@PAVCRotationDecorator@NEffectUpdateDecorator@@@std@@@std@@@0@1P6AX0@Z@Z
_TEXT	SEGMENT
__ULast$ = -32						; size = 4
$T1 = -28						; size = 4
$T2 = -24						; size = 4
__Ptr$3 = -20						; size = 4
$T4 = -16						; size = 4
$T5 = -12						; size = 4
__Ptr$6 = -8						; size = 4
__UFirst$ = -4						; size = 4
__First$ = 8						; size = 4
__Last$ = 12						; size = 4
__Func$ = 16						; size = 4
??$for_each@V?$_Vector_iterator@V?$_Vector_val@U?$_Simple_types@PAVCRotationDecorator@NEffectUpdateDecorator@@@std@@@std@@@std@@P6AXPAVCRotationDecorator@NEffectUpdateDecorator@@@Z@std@@YAP6AXPAVCRotationDecorator@NEffectUpdateDecorator@@@ZV?$_Vector_iterator@V?$_Vector_val@U?$_Simple_types@PAVCRotationDecorator@NEffectUpdateDecorator@@@std@@@std@@@0@1P6AX0@Z@Z PROC ; std::for_each<std::_Vector_iterator<std::_Vector_val<std::_Simple_types<NEffectUpdateDecorator::CRotationDecorator *> > >,void (__cdecl*)(NEffectUpdateDecorator::CRotationDecorator *)>, COMDAT

; 303  : _CONSTEXPR20 _Fn for_each(_InIt _First, _InIt _Last, _Fn _Func) { // perform function for each element [_First, _Last)

  00000	55		 push	 ebp
  00001	8b ec		 mov	 ebp, esp
  00003	83 ec 20	 sub	 esp, 32			; 00000020H
; File C:\Program Files (x86)\Microsoft Visual Studio\2019\Community\VC\Tools\MSVC\14.28.29333\include\vector

; 310  :         return _Unfancy(this->_Ptr);

  00006	8b 45 08	 mov	 eax, DWORD PTR __First$[ebp]
  00009	89 45 f8	 mov	 DWORD PTR __Ptr$6[ebp], eax
; File C:\Program Files (x86)\Microsoft Visual Studio\2019\Community\VC\Tools\MSVC\14.28.29333\include\xstddef

; 289  :     return _Ptr;

  0000c	8b 45 f8	 mov	 eax, DWORD PTR __Ptr$6[ebp]
  0000f	89 45 f4	 mov	 DWORD PTR $T5[ebp], eax
; File C:\Program Files (x86)\Microsoft Visual Studio\2019\Community\VC\Tools\MSVC\14.28.29333\include\vector

; 310  :         return _Unfancy(this->_Ptr);

  00012	8b 45 f4	 mov	 eax, DWORD PTR $T5[ebp]
  00015	89 45 f0	 mov	 DWORD PTR $T4[ebp], eax
; File C:\Program Files (x86)\Microsoft Visual Studio\2019\Community\VC\Tools\MSVC\14.28.29333\include\algorithm

; 305  :     auto _UFirst      = _Get_unwrapped(_First);

  00018	8b 45 f0	 mov	 eax, DWORD PTR $T4[ebp]
  0001b	89 45 fc	 mov	 DWORD PTR __UFirst$[ebp], eax
; File C:\Program Files (x86)\Microsoft Visual Studio\2019\Community\VC\Tools\MSVC\14.28.29333\include\vector

; 310  :         return _Unfancy(this->_Ptr);

  0001e	8b 45 0c	 mov	 eax, DWORD PTR __Last$[ebp]
  00021	89 45 ec	 mov	 DWORD PTR __Ptr$3[ebp], eax
; File C:\Program Files (x86)\Microsoft Visual Studio\2019\Community\VC\Tools\MSVC\14.28.29333\include\xstddef

; 289  :     return _Ptr;

  00024	8b 45 ec	 mov	 eax, DWORD PTR __Ptr$3[ebp]
  00027	89 45 e8	 mov	 DWORD PTR $T2[ebp], eax
; File C:\Program Files (x86)\Microsoft Visual Studio\2019\Community\VC\Tools\MSVC\14.28.29333\include\vector

; 310  :         return _Unfancy(this->_Ptr);

  0002a	8b 45 e8	 mov	 eax, DWORD PTR $T2[ebp]
  0002d	89 45 e4	 mov	 DWORD PTR $T1[ebp], eax
; File C:\Program Files (x86)\Microsoft Visual Studio\2019\Community\VC\Tools\MSVC\14.28.29333\include\algorithm

; 306  :     const auto _ULast = _Get_unwrapped(_Last);

  00030	8b 45 e4	 mov	 eax, DWORD PTR $T1[ebp]
  00033	89 45 e0	 mov	 DWORD PTR __ULast$[ebp], eax

; 307  :     for (; _UFirst != _ULast; ++_UFirst) {

  00036	eb 09		 jmp	 SHORT $LN4@for_each
$LN2@for_each:
  00038	8b 45 fc	 mov	 eax, DWORD PTR __UFirst$[ebp]
  0003b	83 c0 04	 add	 eax, 4
  0003e	89 45 fc	 mov	 DWORD PTR __UFirst$[ebp], eax
$LN4@for_each:
  00041	8b 45 fc	 mov	 eax, DWORD PTR __UFirst$[ebp]
  00044	3b 45 e0	 cmp	 eax, DWORD PTR __ULast$[ebp]
  00047	74 0b		 je	 SHORT $LN3@for_each

; 308  :         _Func(*_UFirst);

  00049	8b 45 fc	 mov	 eax, DWORD PTR __UFirst$[ebp]
  0004c	ff 30		 push	 DWORD PTR [eax]
  0004e	ff 55 10	 call	 DWORD PTR __Func$[ebp]
  00051	59		 pop	 ecx

; 309  :     }

  00052	eb e4		 jmp	 SHORT $LN2@for_each
$LN3@for_each:

; 310  : 
; 311  :     return _Func;

  00054	8b 45 10	 mov	 eax, DWORD PTR __Func$[ebp]

; 312  : }

  00057	c9		 leave
  00058	c3		 ret	 0
??$for_each@V?$_Vector_iterator@V?$_Vector_val@U?$_Simple_types@PAVCRotationDecorator@NEffectUpdateDecorator@@@std@@@std@@@std@@P6AXPAVCRotationDecorator@NEffectUpdateDecorator@@@Z@std@@YAP6AXPAVCRotationDecorator@NEffectUpdateDecorator@@@ZV?$_Vector_iterator@V?$_Vector_val@U?$_Simple_types@PAVCRotationDecorator@NEffectUpdateDecorator@@@std@@@std@@@0@1P6AX0@Z@Z ENDP ; std::for_each<std::_Vector_iterator<std::_Vector_val<std::_Simple_types<NEffectUpdateDecorator::CRotationDecorator *> > >,void (__cdecl*)(NEffectUpdateDecorator::CRotationDecorator *)>
_TEXT	ENDS
; Function compile flags: /Odspy
; File C:\Program Files (x86)\Microsoft Visual Studio\2019\Community\VC\Tools\MSVC\14.28.29333\include\algorithm
; File C:\Program Files (x86)\Microsoft Visual Studio\2019\Community\VC\Tools\MSVC\14.28.29333\include\vector
; File C:\Program Files (x86)\Microsoft Visual Studio\2019\Community\VC\Tools\MSVC\14.28.29333\include\xstddef
; File C:\Program Files (x86)\Microsoft Visual Studio\2019\Community\VC\Tools\MSVC\14.28.29333\include\vector
; File C:\Program Files (x86)\Microsoft Visual Studio\2019\Community\VC\Tools\MSVC\14.28.29333\include\algorithm
; File C:\Program Files (x86)\Microsoft Visual Studio\2019\Community\VC\Tools\MSVC\14.28.29333\include\vector
; File C:\Program Files (x86)\Microsoft Visual Studio\2019\Community\VC\Tools\MSVC\14.28.29333\include\xstddef
; File C:\Program Files (x86)\Microsoft Visual Studio\2019\Community\VC\Tools\MSVC\14.28.29333\include\vector
; File C:\Program Files (x86)\Microsoft Visual Studio\2019\Community\VC\Tools\MSVC\14.28.29333\include\algorithm
;	COMDAT ??$for_each@V?$_Vector_iterator@V?$_Vector_val@U?$_Simple_types@PAVCGravityDecorator@NEffectUpdateDecorator@@@std@@@std@@@std@@P6AXPAVCGravityDecorator@NEffectUpdateDecorator@@@Z@std@@YAP6AXPAVCGravityDecorator@NEffectUpdateDecorator@@@ZV?$_Vector_iterator@V?$_Vector_val@U?$_Simple_types@PAVCGravityDecorator@NEffectUpdateDecorator@@@std@@@std@@@0@1P6AX0@Z@Z
_TEXT	SEGMENT
__ULast$ = -32						; size = 4
$T1 = -28						; size = 4
$T2 = -24						; size = 4
__Ptr$3 = -20						; size = 4
$T4 = -16						; size = 4
$T5 = -12						; size = 4
__Ptr$6 = -8						; size = 4
__UFirst$ = -4						; size = 4
__First$ = 8						; size = 4
__Last$ = 12						; size = 4
__Func$ = 16						; size = 4
??$for_each@V?$_Vector_iterator@V?$_Vector_val@U?$_Simple_types@PAVCGravityDecorator@NEffectUpdateDecorator@@@std@@@std@@@std@@P6AXPAVCGravityDecorator@NEffectUpdateDecorator@@@Z@std@@YAP6AXPAVCGravityDecorator@NEffectUpdateDecorator@@@ZV?$_Vector_iterator@V?$_Vector_val@U?$_Simple_types@PAVCGravityDecorator@NEffectUpdateDecorator@@@std@@@std@@@0@1P6AX0@Z@Z PROC ; std::for_each<std::_Vector_iterator<std::_Vector_val<std::_Simple_types<NEffectUpdateDecorator::CGravityDecorator *> > >,void (__cdecl*)(NEffectUpdateDecorator::CGravityDecorator *)>, COMDAT

; 303  : _CONSTEXPR20 _Fn for_each(_InIt _First, _InIt _Last, _Fn _Func) { // perform function for each element [_First, _Last)

  00000	55		 push	 ebp
  00001	8b ec		 mov	 ebp, esp
  00003	83 ec 20	 sub	 esp, 32			; 00000020H
; File C:\Program Files (x86)\Microsoft Visual Studio\2019\Community\VC\Tools\MSVC\14.28.29333\include\vector

; 310  :         return _Unfancy(this->_Ptr);

  00006	8b 45 08	 mov	 eax, DWORD PTR __First$[ebp]
  00009	89 45 f8	 mov	 DWORD PTR __Ptr$6[ebp], eax
; File C:\Program Files (x86)\Microsoft Visual Studio\2019\Community\VC\Tools\MSVC\14.28.29333\include\xstddef

; 289  :     return _Ptr;

  0000c	8b 45 f8	 mov	 eax, DWORD PTR __Ptr$6[ebp]
  0000f	89 45 f4	 mov	 DWORD PTR $T5[ebp], eax
; File C:\Program Files (x86)\Microsoft Visual Studio\2019\Community\VC\Tools\MSVC\14.28.29333\include\vector

; 310  :         return _Unfancy(this->_Ptr);

  00012	8b 45 f4	 mov	 eax, DWORD PTR $T5[ebp]
  00015	89 45 f0	 mov	 DWORD PTR $T4[ebp], eax
; File C:\Program Files (x86)\Microsoft Visual Studio\2019\Community\VC\Tools\MSVC\14.28.29333\include\algorithm

; 305  :     auto _UFirst      = _Get_unwrapped(_First);

  00018	8b 45 f0	 mov	 eax, DWORD PTR $T4[ebp]
  0001b	89 45 fc	 mov	 DWORD PTR __UFirst$[ebp], eax
; File C:\Program Files (x86)\Microsoft Visual Studio\2019\Community\VC\Tools\MSVC\14.28.29333\include\vector

; 310  :         return _Unfancy(this->_Ptr);

  0001e	8b 45 0c	 mov	 eax, DWORD PTR __Last$[ebp]
  00021	89 45 ec	 mov	 DWORD PTR __Ptr$3[ebp], eax
; File C:\Program Files (x86)\Microsoft Visual Studio\2019\Community\VC\Tools\MSVC\14.28.29333\include\xstddef

; 289  :     return _Ptr;

  00024	8b 45 ec	 mov	 eax, DWORD PTR __Ptr$3[ebp]
  00027	89 45 e8	 mov	 DWORD PTR $T2[ebp], eax
; File C:\Program Files (x86)\Microsoft Visual Studio\2019\Community\VC\Tools\MSVC\14.28.29333\include\vector

; 310  :         return _Unfancy(this->_Ptr);

  0002a	8b 45 e8	 mov	 eax, DWORD PTR $T2[ebp]
  0002d	89 45 e4	 mov	 DWORD PTR $T1[ebp], eax
; File C:\Program Files (x86)\Microsoft Visual Studio\2019\Community\VC\Tools\MSVC\14.28.29333\include\algorithm

; 306  :     const auto _ULast = _Get_unwrapped(_Last);

  00030	8b 45 e4	 mov	 eax, DWORD PTR $T1[ebp]
  00033	89 45 e0	 mov	 DWORD PTR __ULast$[ebp], eax

; 307  :     for (; _UFirst != _ULast; ++_UFirst) {

  00036	eb 09		 jmp	 SHORT $LN4@for_each
$LN2@for_each:
  00038	8b 45 fc	 mov	 eax, DWORD PTR __UFirst$[ebp]
  0003b	83 c0 04	 add	 eax, 4
  0003e	89 45 fc	 mov	 DWORD PTR __UFirst$[ebp], eax
$LN4@for_each:
  00041	8b 45 fc	 mov	 eax, DWORD PTR __UFirst$[ebp]
  00044	3b 45 e0	 cmp	 eax, DWORD PTR __ULast$[ebp]
  00047	74 0b		 je	 SHORT $LN3@for_each

; 308  :         _Func(*_UFirst);

  00049	8b 45 fc	 mov	 eax, DWORD PTR __UFirst$[ebp]
  0004c	ff 30		 push	 DWORD PTR [eax]
  0004e	ff 55 10	 call	 DWORD PTR __Func$[ebp]
  00051	59		 pop	 ecx

; 309  :     }

  00052	eb e4		 jmp	 SHORT $LN2@for_each
$LN3@for_each:

; 310  : 
; 311  :     return _Func;

  00054	8b 45 10	 mov	 eax, DWORD PTR __Func$[ebp]

; 312  : }

  00057	c9		 leave
  00058	c3		 ret	 0
??$for_each@V?$_Vector_iterator@V?$_Vector_val@U?$_Simple_types@PAVCGravityDecorator@NEffectUpdateDecorator@@@std@@@std@@@std@@P6AXPAVCGravityDecorator@NEffectUpdateDecorator@@@Z@std@@YAP6AXPAVCGravityDecorator@NEffectUpdateDecorator@@@ZV?$_Vector_iterator@V?$_Vector_val@U?$_Simple_types@PAVCGravityDecorator@NEffectUpdateDecorator@@@std@@@std@@@0@1P6AX0@Z@Z ENDP ; std::for_each<std::_Vector_iterator<std::_Vector_val<std::_Simple_types<NEffectUpdateDecorator::CGravityDecorator *> > >,void (__cdecl*)(NEffectUpdateDecorator::CGravityDecorator *)>
_TEXT	ENDS
; Function compile flags: /Odspy
; File C:\Program Files (x86)\Microsoft Visual Studio\2019\Community\VC\Tools\MSVC\14.28.29333\include\algorithm
; File C:\Program Files (x86)\Microsoft Visual Studio\2019\Community\VC\Tools\MSVC\14.28.29333\include\vector
; File C:\Program Files (x86)\Microsoft Visual Studio\2019\Community\VC\Tools\MSVC\14.28.29333\include\xstddef
; File C:\Program Files (x86)\Microsoft Visual Studio\2019\Community\VC\Tools\MSVC\14.28.29333\include\vector
; File C:\Program Files (x86)\Microsoft Visual Studio\2019\Community\VC\Tools\MSVC\14.28.29333\include\algorithm
; File C:\Program Files (x86)\Microsoft Visual Studio\2019\Community\VC\Tools\MSVC\14.28.29333\include\vector
; File C:\Program Files (x86)\Microsoft Visual Studio\2019\Community\VC\Tools\MSVC\14.28.29333\include\xstddef
; File C:\Program Files (x86)\Microsoft Visual Studio\2019\Community\VC\Tools\MSVC\14.28.29333\include\vector
; File C:\Program Files (x86)\Microsoft Visual Studio\2019\Community\VC\Tools\MSVC\14.28.29333\include\algorithm
;	COMDAT ??$for_each@V?$_Vector_iterator@V?$_Vector_val@U?$_Simple_types@PAVCAirResistanceDecorator@NEffectUpdateDecorator@@@std@@@std@@@std@@P6AXPAVCAirResistanceDecorator@NEffectUpdateDecorator@@@Z@std@@YAP6AXPAVCAirResistanceDecorator@NEffectUpdateDecorator@@@ZV?$_Vector_iterator@V?$_Vector_val@U?$_Simple_types@PAVCAirResistanceDecorator@NEffectUpdateDecorator@@@std@@@std@@@0@1P6AX0@Z@Z
_TEXT	SEGMENT
__ULast$ = -32						; size = 4
$T1 = -28						; size = 4
$T2 = -24						; size = 4
__Ptr$3 = -20						; size = 4
$T4 = -16						; size = 4
$T5 = -12						; size = 4
__Ptr$6 = -8						; size = 4
__UFirst$ = -4						; size = 4
__First$ = 8						; size = 4
__Last$ = 12						; size = 4
__Func$ = 16						; size = 4
??$for_each@V?$_Vector_iterator@V?$_Vector_val@U?$_Simple_types@PAVCAirResistanceDecorator@NEffectUpdateDecorator@@@std@@@std@@@std@@P6AXPAVCAirResistanceDecorator@NEffectUpdateDecorator@@@Z@std@@YAP6AXPAVCAirResistanceDecorator@NEffectUpdateDecorator@@@ZV?$_Vector_iterator@V?$_Vector_val@U?$_Simple_types@PAVCAirResistanceDecorator@NEffectUpdateDecorator@@@std@@@std@@@0@1P6AX0@Z@Z PROC ; std::for_each<std::_Vector_iterator<std::_Vector_val<std::_Simple_types<NEffectUpdateDecorator::CAirResistanceDecorator *> > >,void (__cdecl*)(NEffectUpdateDecorator::CAirResistanceDecorator *)>, COMDAT

; 303  : _CONSTEXPR20 _Fn for_each(_InIt _First, _InIt _Last, _Fn _Func) { // perform function for each element [_First, _Last)

  00000	55		 push	 ebp
  00001	8b ec		 mov	 ebp, esp
  00003	83 ec 20	 sub	 esp, 32			; 00000020H
; File C:\Program Files (x86)\Microsoft Visual Studio\2019\Community\VC\Tools\MSVC\14.28.29333\include\vector

; 310  :         return _Unfancy(this->_Ptr);

  00006	8b 45 08	 mov	 eax, DWORD PTR __First$[ebp]
  00009	89 45 f8	 mov	 DWORD PTR __Ptr$6[ebp], eax
; File C:\Program Files (x86)\Microsoft Visual Studio\2019\Community\VC\Tools\MSVC\14.28.29333\include\xstddef

; 289  :     return _Ptr;

  0000c	8b 45 f8	 mov	 eax, DWORD PTR __Ptr$6[ebp]
  0000f	89 45 f4	 mov	 DWORD PTR $T5[ebp], eax
; File C:\Program Files (x86)\Microsoft Visual Studio\2019\Community\VC\Tools\MSVC\14.28.29333\include\vector

; 310  :         return _Unfancy(this->_Ptr);

  00012	8b 45 f4	 mov	 eax, DWORD PTR $T5[ebp]
  00015	89 45 f0	 mov	 DWORD PTR $T4[ebp], eax
; File C:\Program Files (x86)\Microsoft Visual Studio\2019\Community\VC\Tools\MSVC\14.28.29333\include\algorithm

; 305  :     auto _UFirst      = _Get_unwrapped(_First);

  00018	8b 45 f0	 mov	 eax, DWORD PTR $T4[ebp]
  0001b	89 45 fc	 mov	 DWORD PTR __UFirst$[ebp], eax
; File C:\Program Files (x86)\Microsoft Visual Studio\2019\Community\VC\Tools\MSVC\14.28.29333\include\vector

; 310  :         return _Unfancy(this->_Ptr);

  0001e	8b 45 0c	 mov	 eax, DWORD PTR __Last$[ebp]
  00021	89 45 ec	 mov	 DWORD PTR __Ptr$3[ebp], eax
; File C:\Program Files (x86)\Microsoft Visual Studio\2019\Community\VC\Tools\MSVC\14.28.29333\include\xstddef

; 289  :     return _Ptr;

  00024	8b 45 ec	 mov	 eax, DWORD PTR __Ptr$3[ebp]
  00027	89 45 e8	 mov	 DWORD PTR $T2[ebp], eax
; File C:\Program Files (x86)\Microsoft Visual Studio\2019\Community\VC\Tools\MSVC\14.28.29333\include\vector

; 310  :         return _Unfancy(this->_Ptr);

  0002a	8b 45 e8	 mov	 eax, DWORD PTR $T2[ebp]
  0002d	89 45 e4	 mov	 DWORD PTR $T1[ebp], eax
; File C:\Program Files (x86)\Microsoft Visual Studio\2019\Community\VC\Tools\MSVC\14.28.29333\include\algorithm

; 306  :     const auto _ULast = _Get_unwrapped(_Last);

  00030	8b 45 e4	 mov	 eax, DWORD PTR $T1[ebp]
  00033	89 45 e0	 mov	 DWORD PTR __ULast$[ebp], eax

; 307  :     for (; _UFirst != _ULast; ++_UFirst) {

  00036	eb 09		 jmp	 SHORT $LN4@for_each
$LN2@for_each:
  00038	8b 45 fc	 mov	 eax, DWORD PTR __UFirst$[ebp]
  0003b	83 c0 04	 add	 eax, 4
  0003e	89 45 fc	 mov	 DWORD PTR __UFirst$[ebp], eax
$LN4@for_each:
  00041	8b 45 fc	 mov	 eax, DWORD PTR __UFirst$[ebp]
  00044	3b 45 e0	 cmp	 eax, DWORD PTR __ULast$[ebp]
  00047	74 0b		 je	 SHORT $LN3@for_each

; 308  :         _Func(*_UFirst);

  00049	8b 45 fc	 mov	 eax, DWORD PTR __UFirst$[ebp]
  0004c	ff 30		 push	 DWORD PTR [eax]
  0004e	ff 55 10	 call	 DWORD PTR __Func$[ebp]
  00051	59		 pop	 ecx

; 309  :     }

  00052	eb e4		 jmp	 SHORT $LN2@for_each
$LN3@for_each:

; 310  : 
; 311  :     return _Func;

  00054	8b 45 10	 mov	 eax, DWORD PTR __Func$[ebp]

; 312  : }

  00057	c9		 leave
  00058	c3		 ret	 0
??$for_each@V?$_Vector_iterator@V?$_Vector_val@U?$_Simple_types@PAVCAirResistanceDecorator@NEffectUpdateDecorator@@@std@@@std@@@std@@P6AXPAVCAirResistanceDecorator@NEffectUpdateDecorator@@@Z@std@@YAP6AXPAVCAirResistanceDecorator@NEffectUpdateDecorator@@@ZV?$_Vector_iterator@V?$_Vector_val@U?$_Simple_types@PAVCAirResistanceDecorator@NEffectUpdateDecorator@@@std@@@std@@@0@1P6AX0@Z@Z ENDP ; std::for_each<std::_Vector_iterator<std::_Vector_val<std::_Simple_types<NEffectUpdateDecorator::CAirResistanceDecorator *> > >,void (__cdecl*)(NEffectUpdateDecorator::CAirResistanceDecorator *)>
_TEXT	ENDS
; Function compile flags: /Odspy
; File C:\Program Files (x86)\Microsoft Visual Studio\2019\Community\VC\Tools\MSVC\14.28.29333\include\algorithm
; File C:\Program Files (x86)\Microsoft Visual Studio\2019\Community\VC\Tools\MSVC\14.28.29333\include\vector
; File C:\Program Files (x86)\Microsoft Visual Studio\2019\Community\VC\Tools\MSVC\14.28.29333\include\xstddef
; File C:\Program Files (x86)\Microsoft Visual Studio\2019\Community\VC\Tools\MSVC\14.28.29333\include\vector
; File C:\Program Files (x86)\Microsoft Visual Studio\2019\Community\VC\Tools\MSVC\14.28.29333\include\algorithm
; File C:\Program Files (x86)\Microsoft Visual Studio\2019\Community\VC\Tools\MSVC\14.28.29333\include\vector
; File C:\Program Files (x86)\Microsoft Visual Studio\2019\Community\VC\Tools\MSVC\14.28.29333\include\xstddef
; File C:\Program Files (x86)\Microsoft Visual Studio\2019\Community\VC\Tools\MSVC\14.28.29333\include\vector
; File C:\Program Files (x86)\Microsoft Visual Studio\2019\Community\VC\Tools\MSVC\14.28.29333\include\algorithm
;	COMDAT ??$for_each@V?$_Vector_iterator@V?$_Vector_val@U?$_Simple_types@PAVCTextureAnimationRandomDecorator@NEffectUpdateDecorator@@@std@@@std@@@std@@P6AXPAVCTextureAnimationRandomDecorator@NEffectUpdateDecorator@@@Z@std@@YAP6AXPAVCTextureAnimationRandomDecorator@NEffectUpdateDecorator@@@ZV?$_Vector_iterator@V?$_Vector_val@U?$_Simple_types@PAVCTextureAnimationRandomDecorator@NEffectUpdateDecorator@@@std@@@std@@@0@1P6AX0@Z@Z
_TEXT	SEGMENT
__ULast$ = -32						; size = 4
$T1 = -28						; size = 4
$T2 = -24						; size = 4
__Ptr$3 = -20						; size = 4
$T4 = -16						; size = 4
$T5 = -12						; size = 4
__Ptr$6 = -8						; size = 4
__UFirst$ = -4						; size = 4
__First$ = 8						; size = 4
__Last$ = 12						; size = 4
__Func$ = 16						; size = 4
??$for_each@V?$_Vector_iterator@V?$_Vector_val@U?$_Simple_types@PAVCTextureAnimationRandomDecorator@NEffectUpdateDecorator@@@std@@@std@@@std@@P6AXPAVCTextureAnimationRandomDecorator@NEffectUpdateDecorator@@@Z@std@@YAP6AXPAVCTextureAnimationRandomDecorator@NEffectUpdateDecorator@@@ZV?$_Vector_iterator@V?$_Vector_val@U?$_Simple_types@PAVCTextureAnimationRandomDecorator@NEffectUpdateDecorator@@@std@@@std@@@0@1P6AX0@Z@Z PROC ; std::for_each<std::_Vector_iterator<std::_Vector_val<std::_Simple_types<NEffectUpdateDecorator::CTextureAnimationRandomDecorator *> > >,void (__cdecl*)(NEffectUpdateDecorator::CTextureAnimationRandomDecorator *)>, COMDAT

; 303  : _CONSTEXPR20 _Fn for_each(_InIt _First, _InIt _Last, _Fn _Func) { // perform function for each element [_First, _Last)

  00000	55		 push	 ebp
  00001	8b ec		 mov	 ebp, esp
  00003	83 ec 20	 sub	 esp, 32			; 00000020H
; File C:\Program Files (x86)\Microsoft Visual Studio\2019\Community\VC\Tools\MSVC\14.28.29333\include\vector

; 310  :         return _Unfancy(this->_Ptr);

  00006	8b 45 08	 mov	 eax, DWORD PTR __First$[ebp]
  00009	89 45 f8	 mov	 DWORD PTR __Ptr$6[ebp], eax
; File C:\Program Files (x86)\Microsoft Visual Studio\2019\Community\VC\Tools\MSVC\14.28.29333\include\xstddef

; 289  :     return _Ptr;

  0000c	8b 45 f8	 mov	 eax, DWORD PTR __Ptr$6[ebp]
  0000f	89 45 f4	 mov	 DWORD PTR $T5[ebp], eax
; File C:\Program Files (x86)\Microsoft Visual Studio\2019\Community\VC\Tools\MSVC\14.28.29333\include\vector

; 310  :         return _Unfancy(this->_Ptr);

  00012	8b 45 f4	 mov	 eax, DWORD PTR $T5[ebp]
  00015	89 45 f0	 mov	 DWORD PTR $T4[ebp], eax
; File C:\Program Files (x86)\Microsoft Visual Studio\2019\Community\VC\Tools\MSVC\14.28.29333\include\algorithm

; 305  :     auto _UFirst      = _Get_unwrapped(_First);

  00018	8b 45 f0	 mov	 eax, DWORD PTR $T4[ebp]
  0001b	89 45 fc	 mov	 DWORD PTR __UFirst$[ebp], eax
; File C:\Program Files (x86)\Microsoft Visual Studio\2019\Community\VC\Tools\MSVC\14.28.29333\include\vector

; 310  :         return _Unfancy(this->_Ptr);

  0001e	8b 45 0c	 mov	 eax, DWORD PTR __Last$[ebp]
  00021	89 45 ec	 mov	 DWORD PTR __Ptr$3[ebp], eax
; File C:\Program Files (x86)\Microsoft Visual Studio\2019\Community\VC\Tools\MSVC\14.28.29333\include\xstddef

; 289  :     return _Ptr;

  00024	8b 45 ec	 mov	 eax, DWORD PTR __Ptr$3[ebp]
  00027	89 45 e8	 mov	 DWORD PTR $T2[ebp], eax
; File C:\Program Files (x86)\Microsoft Visual Studio\2019\Community\VC\Tools\MSVC\14.28.29333\include\vector

; 310  :         return _Unfancy(this->_Ptr);

  0002a	8b 45 e8	 mov	 eax, DWORD PTR $T2[ebp]
  0002d	89 45 e4	 mov	 DWORD PTR $T1[ebp], eax
; File C:\Program Files (x86)\Microsoft Visual Studio\2019\Community\VC\Tools\MSVC\14.28.29333\include\algorithm

; 306  :     const auto _ULast = _Get_unwrapped(_Last);

  00030	8b 45 e4	 mov	 eax, DWORD PTR $T1[ebp]
  00033	89 45 e0	 mov	 DWORD PTR __ULast$[ebp], eax

; 307  :     for (; _UFirst != _ULast; ++_UFirst) {

  00036	eb 09		 jmp	 SHORT $LN4@for_each
$LN2@for_each:
  00038	8b 45 fc	 mov	 eax, DWORD PTR __UFirst$[ebp]
  0003b	83 c0 04	 add	 eax, 4
  0003e	89 45 fc	 mov	 DWORD PTR __UFirst$[ebp], eax
$LN4@for_each:
  00041	8b 45 fc	 mov	 eax, DWORD PTR __UFirst$[ebp]
  00044	3b 45 e0	 cmp	 eax, DWORD PTR __ULast$[ebp]
  00047	74 0b		 je	 SHORT $LN3@for_each

; 308  :         _Func(*_UFirst);

  00049	8b 45 fc	 mov	 eax, DWORD PTR __UFirst$[ebp]
  0004c	ff 30		 push	 DWORD PTR [eax]
  0004e	ff 55 10	 call	 DWORD PTR __Func$[ebp]
  00051	59		 pop	 ecx

; 309  :     }

  00052	eb e4		 jmp	 SHORT $LN2@for_each
$LN3@for_each:

; 310  : 
; 311  :     return _Func;

  00054	8b 45 10	 mov	 eax, DWORD PTR __Func$[ebp]

; 312  : }

  00057	c9		 leave
  00058	c3		 ret	 0
??$for_each@V?$_Vector_iterator@V?$_Vector_val@U?$_Simple_types@PAVCTextureAnimationRandomDecorator@NEffectUpdateDecorator@@@std@@@std@@@std@@P6AXPAVCTextureAnimationRandomDecorator@NEffectUpdateDecorator@@@Z@std@@YAP6AXPAVCTextureAnimationRandomDecorator@NEffectUpdateDecorator@@@ZV?$_Vector_iterator@V?$_Vector_val@U?$_Simple_types@PAVCTextureAnimationRandomDecorator@NEffectUpdateDecorator@@@std@@@std@@@0@1P6AX0@Z@Z ENDP ; std::for_each<std::_Vector_iterator<std::_Vector_val<std::_Simple_types<NEffectUpdateDecorator::CTextureAnimationRandomDecorator *> > >,void (__cdecl*)(NEffectUpdateDecorator::CTextureAnimationRandomDecorator *)>
_TEXT	ENDS
; Function compile flags: /Odspy
; File C:\Program Files (x86)\Microsoft Visual Studio\2019\Community\VC\Tools\MSVC\14.28.29333\include\algorithm
; File C:\Program Files (x86)\Microsoft Visual Studio\2019\Community\VC\Tools\MSVC\14.28.29333\include\vector
; File C:\Program Files (x86)\Microsoft Visual Studio\2019\Community\VC\Tools\MSVC\14.28.29333\include\xstddef
; File C:\Program Files (x86)\Microsoft Visual Studio\2019\Community\VC\Tools\MSVC\14.28.29333\include\vector
; File C:\Program Files (x86)\Microsoft Visual Studio\2019\Community\VC\Tools\MSVC\14.28.29333\include\algorithm
; File C:\Program Files (x86)\Microsoft Visual Studio\2019\Community\VC\Tools\MSVC\14.28.29333\include\vector
; File C:\Program Files (x86)\Microsoft Visual Studio\2019\Community\VC\Tools\MSVC\14.28.29333\include\xstddef
; File C:\Program Files (x86)\Microsoft Visual Studio\2019\Community\VC\Tools\MSVC\14.28.29333\include\vector
; File C:\Program Files (x86)\Microsoft Visual Studio\2019\Community\VC\Tools\MSVC\14.28.29333\include\algorithm
;	COMDAT ??$for_each@V?$_Vector_iterator@V?$_Vector_val@U?$_Simple_types@PAVCTextureAnimationCCWDecorator@NEffectUpdateDecorator@@@std@@@std@@@std@@P6AXPAVCTextureAnimationCCWDecorator@NEffectUpdateDecorator@@@Z@std@@YAP6AXPAVCTextureAnimationCCWDecorator@NEffectUpdateDecorator@@@ZV?$_Vector_iterator@V?$_Vector_val@U?$_Simple_types@PAVCTextureAnimationCCWDecorator@NEffectUpdateDecorator@@@std@@@std@@@0@1P6AX0@Z@Z
_TEXT	SEGMENT
__ULast$ = -32						; size = 4
$T1 = -28						; size = 4
$T2 = -24						; size = 4
__Ptr$3 = -20						; size = 4
$T4 = -16						; size = 4
$T5 = -12						; size = 4
__Ptr$6 = -8						; size = 4
__UFirst$ = -4						; size = 4
__First$ = 8						; size = 4
__Last$ = 12						; size = 4
__Func$ = 16						; size = 4
??$for_each@V?$_Vector_iterator@V?$_Vector_val@U?$_Simple_types@PAVCTextureAnimationCCWDecorator@NEffectUpdateDecorator@@@std@@@std@@@std@@P6AXPAVCTextureAnimationCCWDecorator@NEffectUpdateDecorator@@@Z@std@@YAP6AXPAVCTextureAnimationCCWDecorator@NEffectUpdateDecorator@@@ZV?$_Vector_iterator@V?$_Vector_val@U?$_Simple_types@PAVCTextureAnimationCCWDecorator@NEffectUpdateDecorator@@@std@@@std@@@0@1P6AX0@Z@Z PROC ; std::for_each<std::_Vector_iterator<std::_Vector_val<std::_Simple_types<NEffectUpdateDecorator::CTextureAnimationCCWDecorator *> > >,void (__cdecl*)(NEffectUpdateDecorator::CTextureAnimationCCWDecorator *)>, COMDAT

; 303  : _CONSTEXPR20 _Fn for_each(_InIt _First, _InIt _Last, _Fn _Func) { // perform function for each element [_First, _Last)

  00000	55		 push	 ebp
  00001	8b ec		 mov	 ebp, esp
  00003	83 ec 20	 sub	 esp, 32			; 00000020H
; File C:\Program Files (x86)\Microsoft Visual Studio\2019\Community\VC\Tools\MSVC\14.28.29333\include\vector

; 310  :         return _Unfancy(this->_Ptr);

  00006	8b 45 08	 mov	 eax, DWORD PTR __First$[ebp]
  00009	89 45 f8	 mov	 DWORD PTR __Ptr$6[ebp], eax
; File C:\Program Files (x86)\Microsoft Visual Studio\2019\Community\VC\Tools\MSVC\14.28.29333\include\xstddef

; 289  :     return _Ptr;

  0000c	8b 45 f8	 mov	 eax, DWORD PTR __Ptr$6[ebp]
  0000f	89 45 f4	 mov	 DWORD PTR $T5[ebp], eax
; File C:\Program Files (x86)\Microsoft Visual Studio\2019\Community\VC\Tools\MSVC\14.28.29333\include\vector

; 310  :         return _Unfancy(this->_Ptr);

  00012	8b 45 f4	 mov	 eax, DWORD PTR $T5[ebp]
  00015	89 45 f0	 mov	 DWORD PTR $T4[ebp], eax
; File C:\Program Files (x86)\Microsoft Visual Studio\2019\Community\VC\Tools\MSVC\14.28.29333\include\algorithm

; 305  :     auto _UFirst      = _Get_unwrapped(_First);

  00018	8b 45 f0	 mov	 eax, DWORD PTR $T4[ebp]
  0001b	89 45 fc	 mov	 DWORD PTR __UFirst$[ebp], eax
; File C:\Program Files (x86)\Microsoft Visual Studio\2019\Community\VC\Tools\MSVC\14.28.29333\include\vector

; 310  :         return _Unfancy(this->_Ptr);

  0001e	8b 45 0c	 mov	 eax, DWORD PTR __Last$[ebp]
  00021	89 45 ec	 mov	 DWORD PTR __Ptr$3[ebp], eax
; File C:\Program Files (x86)\Microsoft Visual Studio\2019\Community\VC\Tools\MSVC\14.28.29333\include\xstddef

; 289  :     return _Ptr;

  00024	8b 45 ec	 mov	 eax, DWORD PTR __Ptr$3[ebp]
  00027	89 45 e8	 mov	 DWORD PTR $T2[ebp], eax
; File C:\Program Files (x86)\Microsoft Visual Studio\2019\Community\VC\Tools\MSVC\14.28.29333\include\vector

; 310  :         return _Unfancy(this->_Ptr);

  0002a	8b 45 e8	 mov	 eax, DWORD PTR $T2[ebp]
  0002d	89 45 e4	 mov	 DWORD PTR $T1[ebp], eax
; File C:\Program Files (x86)\Microsoft Visual Studio\2019\Community\VC\Tools\MSVC\14.28.29333\include\algorithm

; 306  :     const auto _ULast = _Get_unwrapped(_Last);

  00030	8b 45 e4	 mov	 eax, DWORD PTR $T1[ebp]
  00033	89 45 e0	 mov	 DWORD PTR __ULast$[ebp], eax

; 307  :     for (; _UFirst != _ULast; ++_UFirst) {

  00036	eb 09		 jmp	 SHORT $LN4@for_each
$LN2@for_each:
  00038	8b 45 fc	 mov	 eax, DWORD PTR __UFirst$[ebp]
  0003b	83 c0 04	 add	 eax, 4
  0003e	89 45 fc	 mov	 DWORD PTR __UFirst$[ebp], eax
$LN4@for_each:
  00041	8b 45 fc	 mov	 eax, DWORD PTR __UFirst$[ebp]
  00044	3b 45 e0	 cmp	 eax, DWORD PTR __ULast$[ebp]
  00047	74 0b		 je	 SHORT $LN3@for_each

; 308  :         _Func(*_UFirst);

  00049	8b 45 fc	 mov	 eax, DWORD PTR __UFirst$[ebp]
  0004c	ff 30		 push	 DWORD PTR [eax]
  0004e	ff 55 10	 call	 DWORD PTR __Func$[ebp]
  00051	59		 pop	 ecx

; 309  :     }

  00052	eb e4		 jmp	 SHORT $LN2@for_each
$LN3@for_each:

; 310  : 
; 311  :     return _Func;

  00054	8b 45 10	 mov	 eax, DWORD PTR __Func$[ebp]

; 312  : }

  00057	c9		 leave
  00058	c3		 ret	 0
??$for_each@V?$_Vector_iterator@V?$_Vector_val@U?$_Simple_types@PAVCTextureAnimationCCWDecorator@NEffectUpdateDecorator@@@std@@@std@@@std@@P6AXPAVCTextureAnimationCCWDecorator@NEffectUpdateDecorator@@@Z@std@@YAP6AXPAVCTextureAnimationCCWDecorator@NEffectUpdateDecorator@@@ZV?$_Vector_iterator@V?$_Vector_val@U?$_Simple_types@PAVCTextureAnimationCCWDecorator@NEffectUpdateDecorator@@@std@@@std@@@0@1P6AX0@Z@Z ENDP ; std::for_each<std::_Vector_iterator<std::_Vector_val<std::_Simple_types<NEffectUpdateDecorator::CTextureAnimationCCWDecorator *> > >,void (__cdecl*)(NEffectUpdateDecorator::CTextureAnimationCCWDecorator *)>
_TEXT	ENDS
; Function compile flags: /Odspy
; File C:\Program Files (x86)\Microsoft Visual Studio\2019\Community\VC\Tools\MSVC\14.28.29333\include\algorithm
; File C:\Program Files (x86)\Microsoft Visual Studio\2019\Community\VC\Tools\MSVC\14.28.29333\include\vector
; File C:\Program Files (x86)\Microsoft Visual Studio\2019\Community\VC\Tools\MSVC\14.28.29333\include\xstddef
; File C:\Program Files (x86)\Microsoft Visual Studio\2019\Community\VC\Tools\MSVC\14.28.29333\include\vector
; File C:\Program Files (x86)\Microsoft Visual Studio\2019\Community\VC\Tools\MSVC\14.28.29333\include\algorithm
; File C:\Program Files (x86)\Microsoft Visual Studio\2019\Community\VC\Tools\MSVC\14.28.29333\include\vector
; File C:\Program Files (x86)\Microsoft Visual Studio\2019\Community\VC\Tools\MSVC\14.28.29333\include\xstddef
; File C:\Program Files (x86)\Microsoft Visual Studio\2019\Community\VC\Tools\MSVC\14.28.29333\include\vector
; File C:\Program Files (x86)\Microsoft Visual Studio\2019\Community\VC\Tools\MSVC\14.28.29333\include\algorithm
;	COMDAT ??$for_each@V?$_Vector_iterator@V?$_Vector_val@U?$_Simple_types@PAVCTextureAnimationCWDecorator@NEffectUpdateDecorator@@@std@@@std@@@std@@P6AXPAVCTextureAnimationCWDecorator@NEffectUpdateDecorator@@@Z@std@@YAP6AXPAVCTextureAnimationCWDecorator@NEffectUpdateDecorator@@@ZV?$_Vector_iterator@V?$_Vector_val@U?$_Simple_types@PAVCTextureAnimationCWDecorator@NEffectUpdateDecorator@@@std@@@std@@@0@1P6AX0@Z@Z
_TEXT	SEGMENT
__ULast$ = -32						; size = 4
$T1 = -28						; size = 4
$T2 = -24						; size = 4
__Ptr$3 = -20						; size = 4
$T4 = -16						; size = 4
$T5 = -12						; size = 4
__Ptr$6 = -8						; size = 4
__UFirst$ = -4						; size = 4
__First$ = 8						; size = 4
__Last$ = 12						; size = 4
__Func$ = 16						; size = 4
??$for_each@V?$_Vector_iterator@V?$_Vector_val@U?$_Simple_types@PAVCTextureAnimationCWDecorator@NEffectUpdateDecorator@@@std@@@std@@@std@@P6AXPAVCTextureAnimationCWDecorator@NEffectUpdateDecorator@@@Z@std@@YAP6AXPAVCTextureAnimationCWDecorator@NEffectUpdateDecorator@@@ZV?$_Vector_iterator@V?$_Vector_val@U?$_Simple_types@PAVCTextureAnimationCWDecorator@NEffectUpdateDecorator@@@std@@@std@@@0@1P6AX0@Z@Z PROC ; std::for_each<std::_Vector_iterator<std::_Vector_val<std::_Simple_types<NEffectUpdateDecorator::CTextureAnimationCWDecorator *> > >,void (__cdecl*)(NEffectUpdateDecorator::CTextureAnimationCWDecorator *)>, COMDAT

; 303  : _CONSTEXPR20 _Fn for_each(_InIt _First, _InIt _Last, _Fn _Func) { // perform function for each element [_First, _Last)

  00000	55		 push	 ebp
  00001	8b ec		 mov	 ebp, esp
  00003	83 ec 20	 sub	 esp, 32			; 00000020H
; File C:\Program Files (x86)\Microsoft Visual Studio\2019\Community\VC\Tools\MSVC\14.28.29333\include\vector

; 310  :         return _Unfancy(this->_Ptr);

  00006	8b 45 08	 mov	 eax, DWORD PTR __First$[ebp]
  00009	89 45 f8	 mov	 DWORD PTR __Ptr$6[ebp], eax
; File C:\Program Files (x86)\Microsoft Visual Studio\2019\Community\VC\Tools\MSVC\14.28.29333\include\xstddef

; 289  :     return _Ptr;

  0000c	8b 45 f8	 mov	 eax, DWORD PTR __Ptr$6[ebp]
  0000f	89 45 f4	 mov	 DWORD PTR $T5[ebp], eax
; File C:\Program Files (x86)\Microsoft Visual Studio\2019\Community\VC\Tools\MSVC\14.28.29333\include\vector

; 310  :         return _Unfancy(this->_Ptr);

  00012	8b 45 f4	 mov	 eax, DWORD PTR $T5[ebp]
  00015	89 45 f0	 mov	 DWORD PTR $T4[ebp], eax
; File C:\Program Files (x86)\Microsoft Visual Studio\2019\Community\VC\Tools\MSVC\14.28.29333\include\algorithm

; 305  :     auto _UFirst      = _Get_unwrapped(_First);

  00018	8b 45 f0	 mov	 eax, DWORD PTR $T4[ebp]
  0001b	89 45 fc	 mov	 DWORD PTR __UFirst$[ebp], eax
; File C:\Program Files (x86)\Microsoft Visual Studio\2019\Community\VC\Tools\MSVC\14.28.29333\include\vector

; 310  :         return _Unfancy(this->_Ptr);

  0001e	8b 45 0c	 mov	 eax, DWORD PTR __Last$[ebp]
  00021	89 45 ec	 mov	 DWORD PTR __Ptr$3[ebp], eax
; File C:\Program Files (x86)\Microsoft Visual Studio\2019\Community\VC\Tools\MSVC\14.28.29333\include\xstddef

; 289  :     return _Ptr;

  00024	8b 45 ec	 mov	 eax, DWORD PTR __Ptr$3[ebp]
  00027	89 45 e8	 mov	 DWORD PTR $T2[ebp], eax
; File C:\Program Files (x86)\Microsoft Visual Studio\2019\Community\VC\Tools\MSVC\14.28.29333\include\vector

; 310  :         return _Unfancy(this->_Ptr);

  0002a	8b 45 e8	 mov	 eax, DWORD PTR $T2[ebp]
  0002d	89 45 e4	 mov	 DWORD PTR $T1[ebp], eax
; File C:\Program Files (x86)\Microsoft Visual Studio\2019\Community\VC\Tools\MSVC\14.28.29333\include\algorithm

; 306  :     const auto _ULast = _Get_unwrapped(_Last);

  00030	8b 45 e4	 mov	 eax, DWORD PTR $T1[ebp]
  00033	89 45 e0	 mov	 DWORD PTR __ULast$[ebp], eax

; 307  :     for (; _UFirst != _ULast; ++_UFirst) {

  00036	eb 09		 jmp	 SHORT $LN4@for_each
$LN2@for_each:
  00038	8b 45 fc	 mov	 eax, DWORD PTR __UFirst$[ebp]
  0003b	83 c0 04	 add	 eax, 4
  0003e	89 45 fc	 mov	 DWORD PTR __UFirst$[ebp], eax
$LN4@for_each:
  00041	8b 45 fc	 mov	 eax, DWORD PTR __UFirst$[ebp]
  00044	3b 45 e0	 cmp	 eax, DWORD PTR __ULast$[ebp]
  00047	74 0b		 je	 SHORT $LN3@for_each

; 308  :         _Func(*_UFirst);

  00049	8b 45 fc	 mov	 eax, DWORD PTR __UFirst$[ebp]
  0004c	ff 30		 push	 DWORD PTR [eax]
  0004e	ff 55 10	 call	 DWORD PTR __Func$[ebp]
  00051	59		 pop	 ecx

; 309  :     }

  00052	eb e4		 jmp	 SHORT $LN2@for_each
$LN3@for_each:

; 310  : 
; 311  :     return _Func;

  00054	8b 45 10	 mov	 eax, DWORD PTR __Func$[ebp]

; 312  : }

  00057	c9		 leave
  00058	c3		 ret	 0
??$for_each@V?$_Vector_iterator@V?$_Vector_val@U?$_Simple_types@PAVCTextureAnimationCWDecorator@NEffectUpdateDecorator@@@std@@@std@@@std@@P6AXPAVCTextureAnimationCWDecorator@NEffectUpdateDecorator@@@Z@std@@YAP6AXPAVCTextureAnimationCWDecorator@NEffectUpdateDecorator@@@ZV?$_Vector_iterator@V?$_Vector_val@U?$_Simple_types@PAVCTextureAnimationCWDecorator@NEffectUpdateDecorator@@@std@@@std@@@0@1P6AX0@Z@Z ENDP ; std::for_each<std::_Vector_iterator<std::_Vector_val<std::_Simple_types<NEffectUpdateDecorator::CTextureAnimationCWDecorator *> > >,void (__cdecl*)(NEffectUpdateDecorator::CTextureAnimationCWDecorator *)>
_TEXT	ENDS
; Function compile flags: /Odspy
; File C:\Program Files (x86)\Microsoft Visual Studio\2019\Community\VC\Tools\MSVC\14.28.29333\include\algorithm
; File C:\Program Files (x86)\Microsoft Visual Studio\2019\Community\VC\Tools\MSVC\14.28.29333\include\vector
; File C:\Program Files (x86)\Microsoft Visual Studio\2019\Community\VC\Tools\MSVC\14.28.29333\include\xstddef
; File C:\Program Files (x86)\Microsoft Visual Studio\2019\Community\VC\Tools\MSVC\14.28.29333\include\vector
; File C:\Program Files (x86)\Microsoft Visual Studio\2019\Community\VC\Tools\MSVC\14.28.29333\include\algorithm
; File C:\Program Files (x86)\Microsoft Visual Studio\2019\Community\VC\Tools\MSVC\14.28.29333\include\vector
; File C:\Program Files (x86)\Microsoft Visual Studio\2019\Community\VC\Tools\MSVC\14.28.29333\include\xstddef
; File C:\Program Files (x86)\Microsoft Visual Studio\2019\Community\VC\Tools\MSVC\14.28.29333\include\vector
; File C:\Program Files (x86)\Microsoft Visual Studio\2019\Community\VC\Tools\MSVC\14.28.29333\include\algorithm
;	COMDAT ??$for_each@V?$_Vector_iterator@V?$_Vector_val@U?$_Simple_types@PAVCNullDecorator@NEffectUpdateDecorator@@@std@@@std@@@std@@P6AXPAVCNullDecorator@NEffectUpdateDecorator@@@Z@std@@YAP6AXPAVCNullDecorator@NEffectUpdateDecorator@@@ZV?$_Vector_iterator@V?$_Vector_val@U?$_Simple_types@PAVCNullDecorator@NEffectUpdateDecorator@@@std@@@std@@@0@1P6AX0@Z@Z
_TEXT	SEGMENT
__ULast$ = -32						; size = 4
$T1 = -28						; size = 4
$T2 = -24						; size = 4
__Ptr$3 = -20						; size = 4
$T4 = -16						; size = 4
$T5 = -12						; size = 4
__Ptr$6 = -8						; size = 4
__UFirst$ = -4						; size = 4
__First$ = 8						; size = 4
__Last$ = 12						; size = 4
__Func$ = 16						; size = 4
??$for_each@V?$_Vector_iterator@V?$_Vector_val@U?$_Simple_types@PAVCNullDecorator@NEffectUpdateDecorator@@@std@@@std@@@std@@P6AXPAVCNullDecorator@NEffectUpdateDecorator@@@Z@std@@YAP6AXPAVCNullDecorator@NEffectUpdateDecorator@@@ZV?$_Vector_iterator@V?$_Vector_val@U?$_Simple_types@PAVCNullDecorator@NEffectUpdateDecorator@@@std@@@std@@@0@1P6AX0@Z@Z PROC ; std::for_each<std::_Vector_iterator<std::_Vector_val<std::_Simple_types<NEffectUpdateDecorator::CNullDecorator *> > >,void (__cdecl*)(NEffectUpdateDecorator::CNullDecorator *)>, COMDAT

; 303  : _CONSTEXPR20 _Fn for_each(_InIt _First, _InIt _Last, _Fn _Func) { // perform function for each element [_First, _Last)

  00000	55		 push	 ebp
  00001	8b ec		 mov	 ebp, esp
  00003	83 ec 20	 sub	 esp, 32			; 00000020H
; File C:\Program Files (x86)\Microsoft Visual Studio\2019\Community\VC\Tools\MSVC\14.28.29333\include\vector

; 310  :         return _Unfancy(this->_Ptr);

  00006	8b 45 08	 mov	 eax, DWORD PTR __First$[ebp]
  00009	89 45 f8	 mov	 DWORD PTR __Ptr$6[ebp], eax
; File C:\Program Files (x86)\Microsoft Visual Studio\2019\Community\VC\Tools\MSVC\14.28.29333\include\xstddef

; 289  :     return _Ptr;

  0000c	8b 45 f8	 mov	 eax, DWORD PTR __Ptr$6[ebp]
  0000f	89 45 f4	 mov	 DWORD PTR $T5[ebp], eax
; File C:\Program Files (x86)\Microsoft Visual Studio\2019\Community\VC\Tools\MSVC\14.28.29333\include\vector

; 310  :         return _Unfancy(this->_Ptr);

  00012	8b 45 f4	 mov	 eax, DWORD PTR $T5[ebp]
  00015	89 45 f0	 mov	 DWORD PTR $T4[ebp], eax
; File C:\Program Files (x86)\Microsoft Visual Studio\2019\Community\VC\Tools\MSVC\14.28.29333\include\algorithm

; 305  :     auto _UFirst      = _Get_unwrapped(_First);

  00018	8b 45 f0	 mov	 eax, DWORD PTR $T4[ebp]
  0001b	89 45 fc	 mov	 DWORD PTR __UFirst$[ebp], eax
; File C:\Program Files (x86)\Microsoft Visual Studio\2019\Community\VC\Tools\MSVC\14.28.29333\include\vector

; 310  :         return _Unfancy(this->_Ptr);

  0001e	8b 45 0c	 mov	 eax, DWORD PTR __Last$[ebp]
  00021	89 45 ec	 mov	 DWORD PTR __Ptr$3[ebp], eax
; File C:\Program Files (x86)\Microsoft Visual Studio\2019\Community\VC\Tools\MSVC\14.28.29333\include\xstddef

; 289  :     return _Ptr;

  00024	8b 45 ec	 mov	 eax, DWORD PTR __Ptr$3[ebp]
  00027	89 45 e8	 mov	 DWORD PTR $T2[ebp], eax
; File C:\Program Files (x86)\Microsoft Visual Studio\2019\Community\VC\Tools\MSVC\14.28.29333\include\vector

; 310  :         return _Unfancy(this->_Ptr);

  0002a	8b 45 e8	 mov	 eax, DWORD PTR $T2[ebp]
  0002d	89 45 e4	 mov	 DWORD PTR $T1[ebp], eax
; File C:\Program Files (x86)\Microsoft Visual Studio\2019\Community\VC\Tools\MSVC\14.28.29333\include\algorithm

; 306  :     const auto _ULast = _Get_unwrapped(_Last);

  00030	8b 45 e4	 mov	 eax, DWORD PTR $T1[ebp]
  00033	89 45 e0	 mov	 DWORD PTR __ULast$[ebp], eax

; 307  :     for (; _UFirst != _ULast; ++_UFirst) {

  00036	eb 09		 jmp	 SHORT $LN4@for_each
$LN2@for_each:
  00038	8b 45 fc	 mov	 eax, DWORD PTR __UFirst$[ebp]
  0003b	83 c0 04	 add	 eax, 4
  0003e	89 45 fc	 mov	 DWORD PTR __UFirst$[ebp], eax
$LN4@for_each:
  00041	8b 45 fc	 mov	 eax, DWORD PTR __UFirst$[ebp]
  00044	3b 45 e0	 cmp	 eax, DWORD PTR __ULast$[ebp]
  00047	74 0b		 je	 SHORT $LN3@for_each

; 308  :         _Func(*_UFirst);

  00049	8b 45 fc	 mov	 eax, DWORD PTR __UFirst$[ebp]
  0004c	ff 30		 push	 DWORD PTR [eax]
  0004e	ff 55 10	 call	 DWORD PTR __Func$[ebp]
  00051	59		 pop	 ecx

; 309  :     }

  00052	eb e4		 jmp	 SHORT $LN2@for_each
$LN3@for_each:

; 310  : 
; 311  :     return _Func;

  00054	8b 45 10	 mov	 eax, DWORD PTR __Func$[ebp]

; 312  : }

  00057	c9		 leave
  00058	c3		 ret	 0
??$for_each@V?$_Vector_iterator@V?$_Vector_val@U?$_Simple_types@PAVCNullDecorator@NEffectUpdateDecorator@@@std@@@std@@@std@@P6AXPAVCNullDecorator@NEffectUpdateDecorator@@@Z@std@@YAP6AXPAVCNullDecorator@NEffectUpdateDecorator@@@ZV?$_Vector_iterator@V?$_Vector_val@U?$_Simple_types@PAVCNullDecorator@NEffectUpdateDecorator@@@std@@@std@@@0@1P6AX0@Z@Z ENDP ; std::for_each<std::_Vector_iterator<std::_Vector_val<std::_Simple_types<NEffectUpdateDecorator::CNullDecorator *> > >,void (__cdecl*)(NEffectUpdateDecorator::CNullDecorator *)>
_TEXT	ENDS
; Function compile flags: /Odspy
; File C:\Program Files (x86)\Microsoft Visual Studio\2019\Community\VC\Tools\MSVC\14.28.29333\include\algorithm
; File C:\Program Files (x86)\Microsoft Visual Studio\2019\Community\VC\Tools\MSVC\14.28.29333\include\vector
; File C:\Program Files (x86)\Microsoft Visual Studio\2019\Community\VC\Tools\MSVC\14.28.29333\include\xstddef
; File C:\Program Files (x86)\Microsoft Visual Studio\2019\Community\VC\Tools\MSVC\14.28.29333\include\vector
; File C:\Program Files (x86)\Microsoft Visual Studio\2019\Community\VC\Tools\MSVC\14.28.29333\include\algorithm
; File C:\Program Files (x86)\Microsoft Visual Studio\2019\Community\VC\Tools\MSVC\14.28.29333\include\vector
; File C:\Program Files (x86)\Microsoft Visual Studio\2019\Community\VC\Tools\MSVC\14.28.29333\include\xstddef
; File C:\Program Files (x86)\Microsoft Visual Studio\2019\Community\VC\Tools\MSVC\14.28.29333\include\vector
; File C:\Program Files (x86)\Microsoft Visual Studio\2019\Community\VC\Tools\MSVC\14.28.29333\include\algorithm
;	COMDAT ??$for_each@V?$_Vector_iterator@V?$_Vector_val@U?$_Simple_types@PAVCHeaderDecorator@NEffectUpdateDecorator@@@std@@@std@@@std@@P6AXPAVCHeaderDecorator@NEffectUpdateDecorator@@@Z@std@@YAP6AXPAVCHeaderDecorator@NEffectUpdateDecorator@@@ZV?$_Vector_iterator@V?$_Vector_val@U?$_Simple_types@PAVCHeaderDecorator@NEffectUpdateDecorator@@@std@@@std@@@0@1P6AX0@Z@Z
_TEXT	SEGMENT
__ULast$ = -32						; size = 4
$T1 = -28						; size = 4
$T2 = -24						; size = 4
__Ptr$3 = -20						; size = 4
$T4 = -16						; size = 4
$T5 = -12						; size = 4
__Ptr$6 = -8						; size = 4
__UFirst$ = -4						; size = 4
__First$ = 8						; size = 4
__Last$ = 12						; size = 4
__Func$ = 16						; size = 4
??$for_each@V?$_Vector_iterator@V?$_Vector_val@U?$_Simple_types@PAVCHeaderDecorator@NEffectUpdateDecorator@@@std@@@std@@@std@@P6AXPAVCHeaderDecorator@NEffectUpdateDecorator@@@Z@std@@YAP6AXPAVCHeaderDecorator@NEffectUpdateDecorator@@@ZV?$_Vector_iterator@V?$_Vector_val@U?$_Simple_types@PAVCHeaderDecorator@NEffectUpdateDecorator@@@std@@@std@@@0@1P6AX0@Z@Z PROC ; std::for_each<std::_Vector_iterator<std::_Vector_val<std::_Simple_types<NEffectUpdateDecorator::CHeaderDecorator *> > >,void (__cdecl*)(NEffectUpdateDecorator::CHeaderDecorator *)>, COMDAT

; 303  : _CONSTEXPR20 _Fn for_each(_InIt _First, _InIt _Last, _Fn _Func) { // perform function for each element [_First, _Last)

  00000	55		 push	 ebp
  00001	8b ec		 mov	 ebp, esp
  00003	83 ec 20	 sub	 esp, 32			; 00000020H
; File C:\Program Files (x86)\Microsoft Visual Studio\2019\Community\VC\Tools\MSVC\14.28.29333\include\vector

; 310  :         return _Unfancy(this->_Ptr);

  00006	8b 45 08	 mov	 eax, DWORD PTR __First$[ebp]
  00009	89 45 f8	 mov	 DWORD PTR __Ptr$6[ebp], eax
; File C:\Program Files (x86)\Microsoft Visual Studio\2019\Community\VC\Tools\MSVC\14.28.29333\include\xstddef

; 289  :     return _Ptr;

  0000c	8b 45 f8	 mov	 eax, DWORD PTR __Ptr$6[ebp]
  0000f	89 45 f4	 mov	 DWORD PTR $T5[ebp], eax
; File C:\Program Files (x86)\Microsoft Visual Studio\2019\Community\VC\Tools\MSVC\14.28.29333\include\vector

; 310  :         return _Unfancy(this->_Ptr);

  00012	8b 45 f4	 mov	 eax, DWORD PTR $T5[ebp]
  00015	89 45 f0	 mov	 DWORD PTR $T4[ebp], eax
; File C:\Program Files (x86)\Microsoft Visual Studio\2019\Community\VC\Tools\MSVC\14.28.29333\include\algorithm

; 305  :     auto _UFirst      = _Get_unwrapped(_First);

  00018	8b 45 f0	 mov	 eax, DWORD PTR $T4[ebp]
  0001b	89 45 fc	 mov	 DWORD PTR __UFirst$[ebp], eax
; File C:\Program Files (x86)\Microsoft Visual Studio\2019\Community\VC\Tools\MSVC\14.28.29333\include\vector

; 310  :         return _Unfancy(this->_Ptr);

  0001e	8b 45 0c	 mov	 eax, DWORD PTR __Last$[ebp]
  00021	89 45 ec	 mov	 DWORD PTR __Ptr$3[ebp], eax
; File C:\Program Files (x86)\Microsoft Visual Studio\2019\Community\VC\Tools\MSVC\14.28.29333\include\xstddef

; 289  :     return _Ptr;

  00024	8b 45 ec	 mov	 eax, DWORD PTR __Ptr$3[ebp]
  00027	89 45 e8	 mov	 DWORD PTR $T2[ebp], eax
; File C:\Program Files (x86)\Microsoft Visual Studio\2019\Community\VC\Tools\MSVC\14.28.29333\include\vector

; 310  :         return _Unfancy(this->_Ptr);

  0002a	8b 45 e8	 mov	 eax, DWORD PTR $T2[ebp]
  0002d	89 45 e4	 mov	 DWORD PTR $T1[ebp], eax
; File C:\Program Files (x86)\Microsoft Visual Studio\2019\Community\VC\Tools\MSVC\14.28.29333\include\algorithm

; 306  :     const auto _ULast = _Get_unwrapped(_Last);

  00030	8b 45 e4	 mov	 eax, DWORD PTR $T1[ebp]
  00033	89 45 e0	 mov	 DWORD PTR __ULast$[ebp], eax

; 307  :     for (; _UFirst != _ULast; ++_UFirst) {

  00036	eb 09		 jmp	 SHORT $LN4@for_each
$LN2@for_each:
  00038	8b 45 fc	 mov	 eax, DWORD PTR __UFirst$[ebp]
  0003b	83 c0 04	 add	 eax, 4
  0003e	89 45 fc	 mov	 DWORD PTR __UFirst$[ebp], eax
$LN4@for_each:
  00041	8b 45 fc	 mov	 eax, DWORD PTR __UFirst$[ebp]
  00044	3b 45 e0	 cmp	 eax, DWORD PTR __ULast$[ebp]
  00047	74 0b		 je	 SHORT $LN3@for_each

; 308  :         _Func(*_UFirst);

  00049	8b 45 fc	 mov	 eax, DWORD PTR __UFirst$[ebp]
  0004c	ff 30		 push	 DWORD PTR [eax]
  0004e	ff 55 10	 call	 DWORD PTR __Func$[ebp]
  00051	59		 pop	 ecx

; 309  :     }

  00052	eb e4		 jmp	 SHORT $LN2@for_each
$LN3@for_each:

; 310  : 
; 311  :     return _Func;

  00054	8b 45 10	 mov	 eax, DWORD PTR __Func$[ebp]

; 312  : }

  00057	c9		 leave
  00058	c3		 ret	 0
??$for_each@V?$_Vector_iterator@V?$_Vector_val@U?$_Simple_types@PAVCHeaderDecorator@NEffectUpdateDecorator@@@std@@@std@@@std@@P6AXPAVCHeaderDecorator@NEffectUpdateDecorator@@@Z@std@@YAP6AXPAVCHeaderDecorator@NEffectUpdateDecorator@@@ZV?$_Vector_iterator@V?$_Vector_val@U?$_Simple_types@PAVCHeaderDecorator@NEffectUpdateDecorator@@@std@@@std@@@0@1P6AX0@Z@Z ENDP ; std::for_each<std::_Vector_iterator<std::_Vector_val<std::_Simple_types<NEffectUpdateDecorator::CHeaderDecorator *> > >,void (__cdecl*)(NEffectUpdateDecorator::CHeaderDecorator *)>
_TEXT	ENDS
; Function compile flags: /Odspy
; File C:\Program Files (x86)\Microsoft Visual Studio\2019\Community\VC\Tools\MSVC\14.28.29333\include\xmemory
;	COMDAT ??$_Destroy_in_place@PAUSReservingMotionNode@CActorInstance@@@std@@YAXAAPAUSReservingMotionNode@CActorInstance@@@Z
_TEXT	SEGMENT
__Obj$ = 8						; size = 4
??$_Destroy_in_place@PAUSReservingMotionNode@CActorInstance@@@std@@YAXAAPAUSReservingMotionNode@CActorInstance@@@Z PROC ; std::_Destroy_in_place<CActorInstance::SReservingMotionNode *>, COMDAT

; 270  : /* _CONSTEXPR20_DYNALLOC */ void _Destroy_in_place(_Ty& _Obj) noexcept {

  00000	55		 push	 ebp
  00001	8b ec		 mov	 ebp, esp

; 271  : #if _HAS_IF_CONSTEXPR
; 272  :     if constexpr (is_array_v<_Ty>) {
; 273  :         _Destroy_range(_Obj, _Obj + extent_v<_Ty>);
; 274  :     } else
; 275  : #endif // _HAS_IF_CONSTEXPR
; 276  :     {
; 277  :         _Obj.~_Ty();
; 278  :     }
; 279  : }

  00003	5d		 pop	 ebp
  00004	c3		 ret	 0
??$_Destroy_in_place@PAUSReservingMotionNode@CActorInstance@@@std@@YAXAAPAUSReservingMotionNode@CActorInstance@@@Z ENDP ; std::_Destroy_in_place<CActorInstance::SReservingMotionNode *>
_TEXT	ENDS
; Function compile flags: /Odspy
;	COMDAT ??_G?$CDynamicPoolEx@VCHeaderDecorator@NEffectUpdateDecorator@@@@UAEPAXI@Z
_TEXT	SEGMENT
_this$ = -4						; size = 4
___flags$ = 8						; size = 4
??_G?$CDynamicPoolEx@VCHeaderDecorator@NEffectUpdateDecorator@@@@UAEPAXI@Z PROC ; CDynamicPoolEx<NEffectUpdateDecorator::CHeaderDecorator>::`scalar deleting destructor', COMDAT
; _this$ = ecx
  00000	55		 push	 ebp
  00001	8b ec		 mov	 ebp, esp
  00003	51		 push	 ecx
  00004	89 4d fc	 mov	 DWORD PTR _this$[ebp], ecx
  00007	8b 4d fc	 mov	 ecx, DWORD PTR _this$[ebp]
  0000a	e8 00 00 00 00	 call	 ??1?$CDynamicPoolEx@VCHeaderDecorator@NEffectUpdateDecorator@@@@UAE@XZ ; CDynamicPoolEx<NEffectUpdateDecorator::CHeaderDecorator>::~CDynamicPoolEx<NEffectUpdateDecorator::CHeaderDecorator>
  0000f	8b 45 08	 mov	 eax, DWORD PTR ___flags$[ebp]
  00012	83 e0 01	 and	 eax, 1
  00015	74 0c		 je	 SHORT $LN2@scalar
  00017	6a 24		 push	 36			; 00000024H
  00019	ff 75 fc	 push	 DWORD PTR _this$[ebp]
  0001c	e8 00 00 00 00	 call	 ??3@YAXPAXI@Z		; operator delete
  00021	59		 pop	 ecx
  00022	59		 pop	 ecx
$LN2@scalar:
  00023	8b 45 fc	 mov	 eax, DWORD PTR _this$[ebp]
  00026	c9		 leave
  00027	c2 04 00	 ret	 4
??_G?$CDynamicPoolEx@VCHeaderDecorator@NEffectUpdateDecorator@@@@UAEPAXI@Z ENDP ; CDynamicPoolEx<NEffectUpdateDecorator::CHeaderDecorator>::`scalar deleting destructor'
_TEXT	ENDS
; Function compile flags: /Odspy
; File C:\Program Files (x86)\Microsoft Visual Studio\2019\Community\VC\Tools\MSVC\14.28.29333\include\vector
; File C:\Program Files (x86)\Microsoft Visual Studio\2019\Community\VC\Tools\MSVC\14.28.29333\include\xmemory
; File C:\Program Files (x86)\Microsoft Visual Studio\2019\Community\VC\Tools\MSVC\14.28.29333\include\vector
; File C:\Program Files (x86)\Microsoft Visual Studio\2019\Community\VC\Tools\MSVC\14.28.29333\include\xmemory
; File C:\Program Files (x86)\Microsoft Visual Studio\2019\Community\VC\Tools\MSVC\14.28.29333\include\vector
; File C:\Program Files (x86)\Microsoft Visual Studio\2019\Community\VC\Tools\MSVC\14.28.29333\include\xmemory
; File C:\Program Files (x86)\Microsoft Visual Studio\2019\Community\VC\Tools\MSVC\14.28.29333\include\vector
;	COMDAT ?_Tidy@?$vector@PAVCHeaderDecorator@NEffectUpdateDecorator@@V?$allocator@PAVCHeaderDecorator@NEffectUpdateDecorator@@@std@@@std@@AAEXXZ
_TEXT	SEGMENT
$T1 = -52						; size = 4
__Ptr$ = -48						; size = 4
__Count$ = -44						; size = 4
$T2 = -40						; size = 4
__First$ = -36						; size = 4
__Last$ = -32						; size = 4
$T3 = -28						; size = 4
$T4 = -24						; size = 4
__Myend$ = -20						; size = 4
__Mylast$ = -16						; size = 4
_this$ = -12						; size = 4
__My_data$ = -8						; size = 4
__Myfirst$ = -4						; size = 4
?_Tidy@?$vector@PAVCHeaderDecorator@NEffectUpdateDecorator@@V?$allocator@PAVCHeaderDecorator@NEffectUpdateDecorator@@@std@@@std@@AAEXXZ PROC ; std::vector<NEffectUpdateDecorator::CHeaderDecorator *,std::allocator<NEffectUpdateDecorator::CHeaderDecorator *> >::_Tidy, COMDAT
; _this$ = ecx

; 1686 :     void _Tidy() noexcept { // free all storage

  00000	55		 push	 ebp
  00001	8b ec		 mov	 ebp, esp
  00003	83 ec 34	 sub	 esp, 52			; 00000034H
  00006	89 4d f4	 mov	 DWORD PTR _this$[ebp], ecx

; 1687 :         auto& _My_data    = _Mypair._Myval2;

  00009	8b 45 f4	 mov	 eax, DWORD PTR _this$[ebp]
  0000c	89 45 f8	 mov	 DWORD PTR __My_data$[ebp], eax

; 1688 :         pointer& _Myfirst = _My_data._Myfirst;

  0000f	8b 45 f8	 mov	 eax, DWORD PTR __My_data$[ebp]
  00012	89 45 fc	 mov	 DWORD PTR __Myfirst$[ebp], eax

; 1689 :         pointer& _Mylast  = _My_data._Mylast;

  00015	8b 45 f8	 mov	 eax, DWORD PTR __My_data$[ebp]
  00018	83 c0 04	 add	 eax, 4
  0001b	89 45 f0	 mov	 DWORD PTR __Mylast$[ebp], eax

; 1690 :         pointer& _Myend   = _My_data._Myend;

  0001e	8b 45 f8	 mov	 eax, DWORD PTR __My_data$[ebp]
  00021	83 c0 08	 add	 eax, 8
  00024	89 45 ec	 mov	 DWORD PTR __Myend$[ebp], eax

; 1691 : 
; 1692 :         _My_data._Orphan_all();
; 1693 : 
; 1694 :         if (_Myfirst) { // destroy and deallocate old array

  00027	8b 45 fc	 mov	 eax, DWORD PTR __Myfirst$[ebp]
  0002a	83 38 00	 cmp	 DWORD PTR [eax], 0
  0002d	74 74		 je	 SHORT $LN3@Tidy

; 1695 :             _Destroy(_Myfirst, _Mylast);

  0002f	8b 45 f0	 mov	 eax, DWORD PTR __Mylast$[ebp]
  00032	8b 00		 mov	 eax, DWORD PTR [eax]
  00034	89 45 e0	 mov	 DWORD PTR __Last$[ebp], eax
  00037	8b 45 fc	 mov	 eax, DWORD PTR __Myfirst$[ebp]
  0003a	8b 00		 mov	 eax, DWORD PTR [eax]
  0003c	89 45 dc	 mov	 DWORD PTR __First$[ebp], eax

; 1733 :         return _Mypair._Get_first();

  0003f	8b 45 f4	 mov	 eax, DWORD PTR _this$[ebp]
; File C:\Program Files (x86)\Microsoft Visual Studio\2019\Community\VC\Tools\MSVC\14.28.29333\include\xmemory

; 1347 :         return *this;

  00042	89 45 e8	 mov	 DWORD PTR $T4[ebp], eax
; File C:\Program Files (x86)\Microsoft Visual Studio\2019\Community\VC\Tools\MSVC\14.28.29333\include\vector

; 1733 :         return _Mypair._Get_first();

  00045	8b 45 e8	 mov	 eax, DWORD PTR $T4[ebp]
  00048	89 45 e4	 mov	 DWORD PTR $T3[ebp], eax

; 1612 :         _Destroy_range(_First, _Last, _Getal());

  0004b	ff 75 e4	 push	 DWORD PTR $T3[ebp]
  0004e	ff 75 e0	 push	 DWORD PTR __Last$[ebp]
  00051	ff 75 dc	 push	 DWORD PTR __First$[ebp]
  00054	e8 00 00 00 00	 call	 ??$_Destroy_range@V?$allocator@PAVCHeaderDecorator@NEffectUpdateDecorator@@@std@@@std@@YAXPAPAVCHeaderDecorator@NEffectUpdateDecorator@@QAPAV12@AAV?$allocator@PAVCHeaderDecorator@NEffectUpdateDecorator@@@0@@Z ; std::_Destroy_range<std::allocator<NEffectUpdateDecorator::CHeaderDecorator *> >
  00059	83 c4 0c	 add	 esp, 12			; 0000000cH

; 1733 :         return _Mypair._Get_first();

  0005c	8b 45 f4	 mov	 eax, DWORD PTR _this$[ebp]
; File C:\Program Files (x86)\Microsoft Visual Studio\2019\Community\VC\Tools\MSVC\14.28.29333\include\xmemory

; 1347 :         return *this;

  0005f	89 45 d8	 mov	 DWORD PTR $T2[ebp], eax
; File C:\Program Files (x86)\Microsoft Visual Studio\2019\Community\VC\Tools\MSVC\14.28.29333\include\vector

; 1733 :         return _Mypair._Get_first();

  00062	8b 45 d8	 mov	 eax, DWORD PTR $T2[ebp]
  00065	89 45 cc	 mov	 DWORD PTR $T1[ebp], eax

; 1696 :             _Getal().deallocate(_Myfirst, static_cast<size_type>(_Myend - _Myfirst));

  00068	8b 45 ec	 mov	 eax, DWORD PTR __Myend$[ebp]
  0006b	8b 4d fc	 mov	 ecx, DWORD PTR __Myfirst$[ebp]
  0006e	8b 00		 mov	 eax, DWORD PTR [eax]
  00070	2b 01		 sub	 eax, DWORD PTR [ecx]
  00072	c1 f8 02	 sar	 eax, 2
  00075	89 45 d4	 mov	 DWORD PTR __Count$[ebp], eax
  00078	8b 45 fc	 mov	 eax, DWORD PTR __Myfirst$[ebp]
  0007b	8b 00		 mov	 eax, DWORD PTR [eax]
  0007d	89 45 d0	 mov	 DWORD PTR __Ptr$[ebp], eax
; File C:\Program Files (x86)\Microsoft Visual Studio\2019\Community\VC\Tools\MSVC\14.28.29333\include\xmemory

; 810  :         _Deallocate<_New_alignof<_Ty>>(_Ptr, sizeof(_Ty) * _Count);

  00080	8b 45 d4	 mov	 eax, DWORD PTR __Count$[ebp]
  00083	c1 e0 02	 shl	 eax, 2
  00086	50		 push	 eax
  00087	ff 75 d0	 push	 DWORD PTR __Ptr$[ebp]
  0008a	e8 00 00 00 00	 call	 ??$_Deallocate@$07$0A@@std@@YAXPAXI@Z ; std::_Deallocate<8,0>
  0008f	59		 pop	 ecx
  00090	59		 pop	 ecx
; File C:\Program Files (x86)\Microsoft Visual Studio\2019\Community\VC\Tools\MSVC\14.28.29333\include\vector

; 1698 :             _Myfirst = pointer();

  00091	8b 45 fc	 mov	 eax, DWORD PTR __Myfirst$[ebp]
  00094	83 20 00	 and	 DWORD PTR [eax], 0

; 1699 :             _Mylast  = pointer();

  00097	8b 45 f0	 mov	 eax, DWORD PTR __Mylast$[ebp]
  0009a	83 20 00	 and	 DWORD PTR [eax], 0

; 1700 :             _Myend   = pointer();

  0009d	8b 45 ec	 mov	 eax, DWORD PTR __Myend$[ebp]
  000a0	83 20 00	 and	 DWORD PTR [eax], 0
$LN3@Tidy:

; 1701 :         }
; 1702 :     }

  000a3	c9		 leave
  000a4	c3		 ret	 0
?_Tidy@?$vector@PAVCHeaderDecorator@NEffectUpdateDecorator@@V?$allocator@PAVCHeaderDecorator@NEffectUpdateDecorator@@@std@@@std@@AAEXXZ ENDP ; std::vector<NEffectUpdateDecorator::CHeaderDecorator *,std::allocator<NEffectUpdateDecorator::CHeaderDecorator *> >::_Tidy
_TEXT	ENDS
; Function compile flags: /Odspy
; File C:\Program Files (x86)\Microsoft Visual Studio\2019\Community\VC\Tools\MSVC\14.28.29333\include\vector
; File C:\Program Files (x86)\Microsoft Visual Studio\2019\Community\VC\Tools\MSVC\14.28.29333\include\xmemory
; File C:\Program Files (x86)\Microsoft Visual Studio\2019\Community\VC\Tools\MSVC\14.28.29333\include\vector
;	COMDAT ?clear@?$vector@PAVCHeaderDecorator@NEffectUpdateDecorator@@V?$allocator@PAVCHeaderDecorator@NEffectUpdateDecorator@@@std@@@std@@QAEXXZ
_TEXT	SEGMENT
__First$ = -32						; size = 4
__Last$ = -28						; size = 4
$T1 = -24						; size = 4
$T2 = -20						; size = 4
__Myfirst$ = -16					; size = 4
__Mylast$ = -12						; size = 4
_this$ = -8						; size = 4
__My_data$ = -4						; size = 4
?clear@?$vector@PAVCHeaderDecorator@NEffectUpdateDecorator@@V?$allocator@PAVCHeaderDecorator@NEffectUpdateDecorator@@@std@@@std@@QAEXXZ PROC ; std::vector<NEffectUpdateDecorator::CHeaderDecorator *,std::allocator<NEffectUpdateDecorator::CHeaderDecorator *> >::clear, COMDAT
; _this$ = ecx

; 1383 :     void clear() noexcept { // erase all

  00000	55		 push	 ebp
  00001	8b ec		 mov	 ebp, esp
  00003	83 ec 20	 sub	 esp, 32			; 00000020H
  00006	89 4d f8	 mov	 DWORD PTR _this$[ebp], ecx

; 1384 :         auto& _My_data    = _Mypair._Myval2;

  00009	8b 45 f8	 mov	 eax, DWORD PTR _this$[ebp]
  0000c	89 45 fc	 mov	 DWORD PTR __My_data$[ebp], eax

; 1385 :         pointer& _Myfirst = _My_data._Myfirst;

  0000f	8b 45 fc	 mov	 eax, DWORD PTR __My_data$[ebp]
  00012	89 45 f0	 mov	 DWORD PTR __Myfirst$[ebp], eax

; 1386 :         pointer& _Mylast  = _My_data._Mylast;

  00015	8b 45 fc	 mov	 eax, DWORD PTR __My_data$[ebp]
  00018	83 c0 04	 add	 eax, 4
  0001b	89 45 f4	 mov	 DWORD PTR __Mylast$[ebp], eax

; 1387 : 
; 1388 :         _My_data._Orphan_all();
; 1389 :         _Destroy(_Myfirst, _Mylast);

  0001e	8b 45 f4	 mov	 eax, DWORD PTR __Mylast$[ebp]
  00021	8b 00		 mov	 eax, DWORD PTR [eax]
  00023	89 45 e4	 mov	 DWORD PTR __Last$[ebp], eax
  00026	8b 45 f0	 mov	 eax, DWORD PTR __Myfirst$[ebp]
  00029	8b 00		 mov	 eax, DWORD PTR [eax]
  0002b	89 45 e0	 mov	 DWORD PTR __First$[ebp], eax

; 1733 :         return _Mypair._Get_first();

  0002e	8b 45 f8	 mov	 eax, DWORD PTR _this$[ebp]
; File C:\Program Files (x86)\Microsoft Visual Studio\2019\Community\VC\Tools\MSVC\14.28.29333\include\xmemory

; 1347 :         return *this;

  00031	89 45 ec	 mov	 DWORD PTR $T2[ebp], eax
; File C:\Program Files (x86)\Microsoft Visual Studio\2019\Community\VC\Tools\MSVC\14.28.29333\include\vector

; 1733 :         return _Mypair._Get_first();

  00034	8b 45 ec	 mov	 eax, DWORD PTR $T2[ebp]
  00037	89 45 e8	 mov	 DWORD PTR $T1[ebp], eax

; 1612 :         _Destroy_range(_First, _Last, _Getal());

  0003a	ff 75 e8	 push	 DWORD PTR $T1[ebp]
  0003d	ff 75 e4	 push	 DWORD PTR __Last$[ebp]
  00040	ff 75 e0	 push	 DWORD PTR __First$[ebp]
  00043	e8 00 00 00 00	 call	 ??$_Destroy_range@V?$allocator@PAVCHeaderDecorator@NEffectUpdateDecorator@@@std@@@std@@YAXPAPAVCHeaderDecorator@NEffectUpdateDecorator@@QAPAV12@AAV?$allocator@PAVCHeaderDecorator@NEffectUpdateDecorator@@@0@@Z ; std::_Destroy_range<std::allocator<NEffectUpdateDecorator::CHeaderDecorator *> >
  00048	83 c4 0c	 add	 esp, 12			; 0000000cH

; 1390 :         _Mylast = _Myfirst;

  0004b	8b 45 f4	 mov	 eax, DWORD PTR __Mylast$[ebp]
  0004e	8b 4d f0	 mov	 ecx, DWORD PTR __Myfirst$[ebp]
  00051	8b 09		 mov	 ecx, DWORD PTR [ecx]
  00053	89 08		 mov	 DWORD PTR [eax], ecx

; 1391 :     }

  00055	c9		 leave
  00056	c3		 ret	 0
?clear@?$vector@PAVCHeaderDecorator@NEffectUpdateDecorator@@V?$allocator@PAVCHeaderDecorator@NEffectUpdateDecorator@@@std@@@std@@QAEXXZ ENDP ; std::vector<NEffectUpdateDecorator::CHeaderDecorator *,std::allocator<NEffectUpdateDecorator::CHeaderDecorator *> >::clear
_TEXT	ENDS
; Function compile flags: /Odspy
; File D:\Metin2 Server Files\mainline\SRC_2014\Metin2Client\eterLib\Pool.h
;	COMDAT ?Delete@?$CDynamicPoolEx@VCHeaderDecorator@NEffectUpdateDecorator@@@@KAXPAVCHeaderDecorator@NEffectUpdateDecorator@@@Z
_TEXT	SEGMENT
_pkData$ = 8						; size = 4
?Delete@?$CDynamicPoolEx@VCHeaderDecorator@NEffectUpdateDecorator@@@@KAXPAVCHeaderDecorator@NEffectUpdateDecorator@@@Z PROC ; CDynamicPoolEx<NEffectUpdateDecorator::CHeaderDecorator>::Delete, COMDAT

; 223  : 		{

  00000	55		 push	 ebp
  00001	8b ec		 mov	 ebp, esp

; 224  : 			::operator delete(pkData);

  00003	ff 75 08	 push	 DWORD PTR _pkData$[ebp]
  00006	e8 00 00 00 00	 call	 ??3@YAXPAX@Z		; operator delete
  0000b	59		 pop	 ecx

; 225  : 		}

  0000c	5d		 pop	 ebp
  0000d	c3		 ret	 0
?Delete@?$CDynamicPoolEx@VCHeaderDecorator@NEffectUpdateDecorator@@@@KAXPAVCHeaderDecorator@NEffectUpdateDecorator@@@Z ENDP ; CDynamicPoolEx<NEffectUpdateDecorator::CHeaderDecorator>::Delete
_TEXT	ENDS
; Function compile flags: /Odspy
; File D:\Metin2 Server Files\mainline\SRC_2014\Metin2Client\eterLib\Pool.h
; File C:\Program Files (x86)\Microsoft Visual Studio\2019\Community\VC\Tools\MSVC\14.28.29333\include\vector
; File C:\Program Files (x86)\Microsoft Visual Studio\2019\Community\VC\Tools\MSVC\14.28.29333\include\xstddef
; File C:\Program Files (x86)\Microsoft Visual Studio\2019\Community\VC\Tools\MSVC\14.28.29333\include\vector
; File C:\Program Files (x86)\Microsoft Visual Studio\2019\Community\VC\Tools\MSVC\14.28.29333\include\xstddef
; File C:\Program Files (x86)\Microsoft Visual Studio\2019\Community\VC\Tools\MSVC\14.28.29333\include\vector
; File D:\Metin2 Server Files\mainline\SRC_2014\Metin2Client\eterLib\Pool.h
;	COMDAT ?Destroy@?$CDynamicPoolEx@VCHeaderDecorator@NEffectUpdateDecorator@@@@QAEXXZ
_TEXT	SEGMENT
$T1 = -44						; size = 4
$T2 = -40						; size = 4
$T3 = -36						; size = 4
$T4 = -32						; size = 4
$T5 = -28						; size = 4
___param0$ = -24					; size = 4
$T6 = -20						; size = 4
___param0$ = -16					; size = 4
__My_data$7 = -12					; size = 4
__My_data$8 = -8					; size = 4
_this$ = -4						; size = 4
?Destroy@?$CDynamicPoolEx@VCHeaderDecorator@NEffectUpdateDecorator@@@@QAEXXZ PROC ; CDynamicPoolEx<NEffectUpdateDecorator::CHeaderDecorator>::Destroy, COMDAT
; _this$ = ecx

; 150  : 		{

  00000	55		 push	 ebp
  00001	8b ec		 mov	 ebp, esp
  00003	83 ec 2c	 sub	 esp, 44			; 0000002cH
  00006	89 4d fc	 mov	 DWORD PTR _this$[ebp], ecx
; File C:\Program Files (x86)\Microsoft Visual Studio\2019\Community\VC\Tools\MSVC\14.28.29333\include\vector

; 1420 :         auto& _My_data = _Mypair._Myval2;

  00009	8b 45 fc	 mov	 eax, DWORD PTR _this$[ebp]
  0000c	83 c0 04	 add	 eax, 4
  0000f	89 45 f8	 mov	 DWORD PTR __My_data$8[ebp], eax
; File C:\Program Files (x86)\Microsoft Visual Studio\2019\Community\VC\Tools\MSVC\14.28.29333\include\xstddef

; 275  :     return __builtin_addressof(_Val);

  00012	8b 45 f8	 mov	 eax, DWORD PTR __My_data$8[ebp]
  00015	89 45 d8	 mov	 DWORD PTR $T2[ebp], eax
; File C:\Program Files (x86)\Microsoft Visual Studio\2019\Community\VC\Tools\MSVC\14.28.29333\include\vector

; 1421 :         return iterator(_My_data._Mylast, _STD addressof(_My_data));

  00018	8b 45 f8	 mov	 eax, DWORD PTR __My_data$8[ebp]
  0001b	8b 40 04	 mov	 eax, DWORD PTR [eax+4]
  0001e	89 45 f0	 mov	 DWORD PTR ___param0$[ebp], eax

; 42   :     _Vector_const_iterator(_Tptr _Parg, const _Container_base* _Pvector) noexcept : _Ptr(_Parg) {

  00021	8b 45 f0	 mov	 eax, DWORD PTR ___param0$[ebp]
  00024	89 45 ec	 mov	 DWORD PTR $T6[ebp], eax

; 1421 :         return iterator(_My_data._Mylast, _STD addressof(_My_data));

  00027	8d 45 ec	 lea	 eax, DWORD PTR $T6[ebp]
  0002a	89 45 e0	 mov	 DWORD PTR $T4[ebp], eax

; 1410 :         auto& _My_data = _Mypair._Myval2;

  0002d	8b 45 fc	 mov	 eax, DWORD PTR _this$[ebp]
  00030	83 c0 04	 add	 eax, 4
  00033	89 45 f4	 mov	 DWORD PTR __My_data$7[ebp], eax
; File C:\Program Files (x86)\Microsoft Visual Studio\2019\Community\VC\Tools\MSVC\14.28.29333\include\xstddef

; 275  :     return __builtin_addressof(_Val);

  00036	8b 45 f4	 mov	 eax, DWORD PTR __My_data$7[ebp]
  00039	89 45 d4	 mov	 DWORD PTR $T1[ebp], eax
; File C:\Program Files (x86)\Microsoft Visual Studio\2019\Community\VC\Tools\MSVC\14.28.29333\include\vector

; 1411 :         return iterator(_My_data._Myfirst, _STD addressof(_My_data));

  0003c	8b 45 f4	 mov	 eax, DWORD PTR __My_data$7[ebp]
  0003f	8b 00		 mov	 eax, DWORD PTR [eax]
  00041	89 45 e8	 mov	 DWORD PTR ___param0$[ebp], eax

; 42   :     _Vector_const_iterator(_Tptr _Parg, const _Container_base* _Pvector) noexcept : _Ptr(_Parg) {

  00044	8b 45 e8	 mov	 eax, DWORD PTR ___param0$[ebp]
  00047	89 45 e4	 mov	 DWORD PTR $T5[ebp], eax

; 1411 :         return iterator(_My_data._Myfirst, _STD addressof(_My_data));

  0004a	8d 45 e4	 lea	 eax, DWORD PTR $T5[ebp]
  0004d	89 45 dc	 mov	 DWORD PTR $T3[ebp], eax
; File D:\Metin2 Server Files\mainline\SRC_2014\Metin2Client\eterLib\Pool.h

; 160  : 			std::for_each(m_kVct_pkData.begin(), m_kVct_pkData.end(), Delete);

  00050	68 00 00 00 00	 push	 OFFSET ?Delete@?$CDynamicPoolEx@VCHeaderDecorator@NEffectUpdateDecorator@@@@KAXPAVCHeaderDecorator@NEffectUpdateDecorator@@@Z ; CDynamicPoolEx<NEffectUpdateDecorator::CHeaderDecorator>::Delete
  00055	8b 45 e0	 mov	 eax, DWORD PTR $T4[ebp]
  00058	ff 30		 push	 DWORD PTR [eax]
  0005a	8b 45 dc	 mov	 eax, DWORD PTR $T3[ebp]
  0005d	ff 30		 push	 DWORD PTR [eax]
  0005f	e8 00 00 00 00	 call	 ??$for_each@V?$_Vector_iterator@V?$_Vector_val@U?$_Simple_types@PAVCHeaderDecorator@NEffectUpdateDecorator@@@std@@@std@@@std@@P6AXPAVCHeaderDecorator@NEffectUpdateDecorator@@@Z@std@@YAP6AXPAVCHeaderDecorator@NEffectUpdateDecorator@@@ZV?$_Vector_iterator@V?$_Vector_val@U?$_Simple_types@PAVCHeaderDecorator@NEffectUpdateDecorator@@@std@@@std@@@0@1P6AX0@Z@Z ; std::for_each<std::_Vector_iterator<std::_Vector_val<std::_Simple_types<NEffectUpdateDecorator::CHeaderDecorator *> > >,void (__cdecl*)(NEffectUpdateDecorator::CHeaderDecorator *)>
  00064	83 c4 0c	 add	 esp, 12			; 0000000cH

; 161  : 			m_kVct_pkData.clear();

  00067	8b 4d fc	 mov	 ecx, DWORD PTR _this$[ebp]
  0006a	83 c1 04	 add	 ecx, 4
  0006d	e8 00 00 00 00	 call	 ?clear@?$vector@PAVCHeaderDecorator@NEffectUpdateDecorator@@V?$allocator@PAVCHeaderDecorator@NEffectUpdateDecorator@@@std@@@std@@QAEXXZ ; std::vector<NEffectUpdateDecorator::CHeaderDecorator *,std::allocator<NEffectUpdateDecorator::CHeaderDecorator *> >::clear

; 162  : 			m_kVct_pkFree.clear();

  00072	8b 4d fc	 mov	 ecx, DWORD PTR _this$[ebp]
  00075	83 c1 10	 add	 ecx, 16			; 00000010H
  00078	e8 00 00 00 00	 call	 ?clear@?$vector@PAVCHeaderDecorator@NEffectUpdateDecorator@@V?$allocator@PAVCHeaderDecorator@NEffectUpdateDecorator@@@std@@@std@@QAEXXZ ; std::vector<NEffectUpdateDecorator::CHeaderDecorator *,std::allocator<NEffectUpdateDecorator::CHeaderDecorator *> >::clear

; 163  : 		}

  0007d	c9		 leave
  0007e	c3		 ret	 0
?Destroy@?$CDynamicPoolEx@VCHeaderDecorator@NEffectUpdateDecorator@@@@QAEXXZ ENDP ; CDynamicPoolEx<NEffectUpdateDecorator::CHeaderDecorator>::Destroy
_TEXT	ENDS
; Function compile flags: /Odspy
; File D:\Metin2 Server Files\mainline\SRC_2014\Metin2Client\eterLib\Pool.h
; File C:\Program Files (x86)\Microsoft Visual Studio\2019\Community\VC\Tools\MSVC\14.28.29333\include\vector
; File D:\Metin2 Server Files\mainline\SRC_2014\Metin2Client\eterLib\Pool.h
; File C:\Program Files (x86)\Microsoft Visual Studio\2019\Community\VC\Tools\MSVC\14.28.29333\include\vector
; File D:\Metin2 Server Files\mainline\SRC_2014\Metin2Client\eterLib\Pool.h
;	COMDAT ??1?$CDynamicPoolEx@VCHeaderDecorator@NEffectUpdateDecorator@@@@UAE@XZ
_TEXT	SEGMENT
_this$ = -16						; size = 4
__$EHRec$ = -12						; size = 12
??1?$CDynamicPoolEx@VCHeaderDecorator@NEffectUpdateDecorator@@@@UAE@XZ PROC ; CDynamicPoolEx<NEffectUpdateDecorator::CHeaderDecorator>::~CDynamicPoolEx<NEffectUpdateDecorator::CHeaderDecorator>, COMDAT
; _this$ = ecx

; 132  : 		{

  00000	55		 push	 ebp
  00001	8b ec		 mov	 ebp, esp
  00003	6a ff		 push	 -1
  00005	68 00 00 00 00	 push	 __ehhandler$??1?$CDynamicPoolEx@VCHeaderDecorator@NEffectUpdateDecorator@@@@UAE@XZ
  0000a	64 a1 00 00 00
	00		 mov	 eax, DWORD PTR fs:0
  00010	50		 push	 eax
  00011	51		 push	 ecx
  00012	a1 00 00 00 00	 mov	 eax, DWORD PTR ___security_cookie
  00017	33 c5		 xor	 eax, ebp
  00019	50		 push	 eax
  0001a	8d 45 f4	 lea	 eax, DWORD PTR __$EHRec$[ebp]
  0001d	64 a3 00 00 00
	00		 mov	 DWORD PTR fs:0, eax
  00023	89 4d f0	 mov	 DWORD PTR _this$[ebp], ecx
  00026	8b 45 f0	 mov	 eax, DWORD PTR _this$[ebp]
  00029	c7 00 00 00 00
	00		 mov	 DWORD PTR [eax], OFFSET ??_7?$CDynamicPoolEx@VCHeaderDecorator@NEffectUpdateDecorator@@@@6B@

; 133  : 			assert(m_kVct_pkFree.size()==m_kVct_pkData.size());
; 134  : 			Destroy();

  0002f	8b 4d f0	 mov	 ecx, DWORD PTR _this$[ebp]
  00032	e8 00 00 00 00	 call	 ?Destroy@?$CDynamicPoolEx@VCHeaderDecorator@NEffectUpdateDecorator@@@@QAEXXZ ; CDynamicPoolEx<NEffectUpdateDecorator::CHeaderDecorator>::Destroy

; 142  : 		}

  00037	8b 4d f0	 mov	 ecx, DWORD PTR _this$[ebp]
  0003a	83 c1 10	 add	 ecx, 16			; 00000010H
; File C:\Program Files (x86)\Microsoft Visual Studio\2019\Community\VC\Tools\MSVC\14.28.29333\include\vector

; 673  :         _Tidy();

  0003d	e8 00 00 00 00	 call	 ?_Tidy@?$vector@PAVCHeaderDecorator@NEffectUpdateDecorator@@V?$allocator@PAVCHeaderDecorator@NEffectUpdateDecorator@@@std@@@std@@AAEXXZ ; std::vector<NEffectUpdateDecorator::CHeaderDecorator *,std::allocator<NEffectUpdateDecorator::CHeaderDecorator *> >::_Tidy
; File D:\Metin2 Server Files\mainline\SRC_2014\Metin2Client\eterLib\Pool.h

; 142  : 		}

  00042	8b 4d f0	 mov	 ecx, DWORD PTR _this$[ebp]
  00045	83 c1 04	 add	 ecx, 4
; File C:\Program Files (x86)\Microsoft Visual Studio\2019\Community\VC\Tools\MSVC\14.28.29333\include\vector

; 673  :         _Tidy();

  00048	e8 00 00 00 00	 call	 ?_Tidy@?$vector@PAVCHeaderDecorator@NEffectUpdateDecorator@@V?$allocator@PAVCHeaderDecorator@NEffectUpdateDecorator@@@std@@@std@@AAEXXZ ; std::vector<NEffectUpdateDecorator::CHeaderDecorator *,std::allocator<NEffectUpdateDecorator::CHeaderDecorator *> >::_Tidy
; File D:\Metin2 Server Files\mainline\SRC_2014\Metin2Client\eterLib\Pool.h

; 142  : 		}

  0004d	8b 4d f4	 mov	 ecx, DWORD PTR __$EHRec$[ebp]
  00050	64 89 0d 00 00
	00 00		 mov	 DWORD PTR fs:0, ecx
  00057	59		 pop	 ecx
  00058	c9		 leave
  00059	c3		 ret	 0
  0005a	cc		 int	 3
  0005b	cc		 int	 3
  0005c	cc		 int	 3
  0005d	cc		 int	 3
  0005e	cc		 int	 3
_TEXT	ENDS
;	COMDAT text$x
text$x	SEGMENT
__ehhandler$??1?$CDynamicPoolEx@VCHeaderDecorator@NEffectUpdateDecorator@@@@UAE@XZ:
  00000	90		 npad	 1
  00001	90		 npad	 1
  00002	8b 54 24 08	 mov	 edx, DWORD PTR [esp+8]
  00006	8d 42 0c	 lea	 eax, DWORD PTR [edx+12]
  00009	8b 4a f8	 mov	 ecx, DWORD PTR [edx-8]
  0000c	33 c8		 xor	 ecx, eax
  0000e	e8 00 00 00 00	 call	 @__security_check_cookie@4
  00013	b8 00 00 00 00	 mov	 eax, OFFSET __ehfuncinfo$??1?$CDynamicPoolEx@VCHeaderDecorator@NEffectUpdateDecorator@@@@UAE@XZ
  00018	e9 00 00 00 00	 jmp	 ___CxxFrameHandler3
text$x	ENDS
??1?$CDynamicPoolEx@VCHeaderDecorator@NEffectUpdateDecorator@@@@UAE@XZ ENDP ; CDynamicPoolEx<NEffectUpdateDecorator::CHeaderDecorator>::~CDynamicPoolEx<NEffectUpdateDecorator::CHeaderDecorator>
; Function compile flags: /Odspy
; File D:\Metin2 Server Files\mainline\SRC_2014\Metin2Client\eterLib\Pool.h
; File C:\Program Files (x86)\Microsoft Visual Studio\2019\Community\VC\Tools\MSVC\14.28.29333\include\vector
; File C:\Program Files (x86)\Microsoft Visual Studio\2019\Community\VC\Tools\MSVC\14.28.29333\include\xmemory
; File C:\Program Files (x86)\Microsoft Visual Studio\2019\Community\VC\Tools\MSVC\14.28.29333\include\vector
; File D:\Metin2 Server Files\mainline\SRC_2014\Metin2Client\eterLib\Pool.h
; File C:\Program Files (x86)\Microsoft Visual Studio\2019\Community\VC\Tools\MSVC\14.28.29333\include\vector
; File C:\Program Files (x86)\Microsoft Visual Studio\2019\Community\VC\Tools\MSVC\14.28.29333\include\xmemory
; File C:\Program Files (x86)\Microsoft Visual Studio\2019\Community\VC\Tools\MSVC\14.28.29333\include\vector
; File D:\Metin2 Server Files\mainline\SRC_2014\Metin2Client\eterLib\Pool.h
;	COMDAT ??0?$CDynamicPoolEx@VCHeaderDecorator@NEffectUpdateDecorator@@@@QAE@XZ
_TEXT	SEGMENT
_this$ = -28						; size = 4
_this$ = -24						; size = 4
_this$ = -20						; size = 4
_this$ = -16						; size = 4
_this$1 = -12						; size = 4
_this$2 = -8						; size = 4
_this$ = -4						; size = 4
??0?$CDynamicPoolEx@VCHeaderDecorator@NEffectUpdateDecorator@@@@QAE@XZ PROC ; CDynamicPoolEx<NEffectUpdateDecorator::CHeaderDecorator>::CDynamicPoolEx<NEffectUpdateDecorator::CHeaderDecorator>, COMDAT
; _this$ = ecx

; 126  : 		CDynamicPoolEx()

  00000	55		 push	 ebp
  00001	8b ec		 mov	 ebp, esp
  00003	83 ec 1c	 sub	 esp, 28			; 0000001cH
  00006	89 4d fc	 mov	 DWORD PTR _this$[ebp], ecx

; 127  : 		{

  00009	8b 45 fc	 mov	 eax, DWORD PTR _this$[ebp]
  0000c	c7 00 00 00 00
	00		 mov	 DWORD PTR [eax], OFFSET ??_7?$CDynamicPoolEx@VCHeaderDecorator@NEffectUpdateDecorator@@@@6B@
  00012	8b 45 fc	 mov	 eax, DWORD PTR _this$[ebp]
  00015	83 c0 04	 add	 eax, 4
  00018	89 45 f0	 mov	 DWORD PTR _this$[ebp], eax
; File C:\Program Files (x86)\Microsoft Visual Studio\2019\Community\VC\Tools\MSVC\14.28.29333\include\vector

; 445  :     vector() noexcept(is_nothrow_default_constructible_v<_Alty>) : _Mypair(_Zero_then_variadic_args_t{}) {

  0001b	8b 45 f0	 mov	 eax, DWORD PTR _this$[ebp]
  0001e	89 45 ec	 mov	 DWORD PTR _this$[ebp], eax
; File C:\Program Files (x86)\Microsoft Visual Studio\2019\Community\VC\Tools\MSVC\14.28.29333\include\xmemory

; 1339 :         : _Ty1(), _Myval2(_STD forward<_Other2>(_Val2)...) {}

  00021	8b 45 ec	 mov	 eax, DWORD PTR _this$[ebp]
  00024	89 45 f8	 mov	 DWORD PTR _this$2[ebp], eax
; File C:\Program Files (x86)\Microsoft Visual Studio\2019\Community\VC\Tools\MSVC\14.28.29333\include\vector

; 375  :     _Vector_val() noexcept : _Myfirst(), _Mylast(), _Myend() {}

  00027	8b 45 f8	 mov	 eax, DWORD PTR _this$2[ebp]
  0002a	83 20 00	 and	 DWORD PTR [eax], 0
  0002d	8b 45 f8	 mov	 eax, DWORD PTR _this$2[ebp]
  00030	83 60 04 00	 and	 DWORD PTR [eax+4], 0
  00034	8b 45 f8	 mov	 eax, DWORD PTR _this$2[ebp]
  00037	83 60 08 00	 and	 DWORD PTR [eax+8], 0
; File D:\Metin2 Server Files\mainline\SRC_2014\Metin2Client\eterLib\Pool.h

; 127  : 		{

  0003b	8b 45 fc	 mov	 eax, DWORD PTR _this$[ebp]
  0003e	83 c0 10	 add	 eax, 16			; 00000010H
  00041	89 45 e8	 mov	 DWORD PTR _this$[ebp], eax
; File C:\Program Files (x86)\Microsoft Visual Studio\2019\Community\VC\Tools\MSVC\14.28.29333\include\vector

; 445  :     vector() noexcept(is_nothrow_default_constructible_v<_Alty>) : _Mypair(_Zero_then_variadic_args_t{}) {

  00044	8b 45 e8	 mov	 eax, DWORD PTR _this$[ebp]
  00047	89 45 e4	 mov	 DWORD PTR _this$[ebp], eax
; File C:\Program Files (x86)\Microsoft Visual Studio\2019\Community\VC\Tools\MSVC\14.28.29333\include\xmemory

; 1339 :         : _Ty1(), _Myval2(_STD forward<_Other2>(_Val2)...) {}

  0004a	8b 45 e4	 mov	 eax, DWORD PTR _this$[ebp]
  0004d	89 45 f4	 mov	 DWORD PTR _this$1[ebp], eax
; File C:\Program Files (x86)\Microsoft Visual Studio\2019\Community\VC\Tools\MSVC\14.28.29333\include\vector

; 375  :     _Vector_val() noexcept : _Myfirst(), _Mylast(), _Myend() {}

  00050	8b 45 f4	 mov	 eax, DWORD PTR _this$1[ebp]
  00053	83 20 00	 and	 DWORD PTR [eax], 0
  00056	8b 45 f4	 mov	 eax, DWORD PTR _this$1[ebp]
  00059	83 60 04 00	 and	 DWORD PTR [eax+4], 0
  0005d	8b 45 f4	 mov	 eax, DWORD PTR _this$1[ebp]
  00060	83 60 08 00	 and	 DWORD PTR [eax+8], 0
; File D:\Metin2 Server Files\mainline\SRC_2014\Metin2Client\eterLib\Pool.h

; 128  : 			m_uInitCapacity=0;

  00064	8b 45 fc	 mov	 eax, DWORD PTR _this$[ebp]
  00067	83 60 1c 00	 and	 DWORD PTR [eax+28], 0

; 129  : 			m_uUsedCapacity=0;

  0006b	8b 45 fc	 mov	 eax, DWORD PTR _this$[ebp]
  0006e	83 60 20 00	 and	 DWORD PTR [eax+32], 0

; 130  : 		}

  00072	8b 45 fc	 mov	 eax, DWORD PTR _this$[ebp]
  00075	c9		 leave
  00076	c3		 ret	 0
??0?$CDynamicPoolEx@VCHeaderDecorator@NEffectUpdateDecorator@@@@QAE@XZ ENDP ; CDynamicPoolEx<NEffectUpdateDecorator::CHeaderDecorator>::CDynamicPoolEx<NEffectUpdateDecorator::CHeaderDecorator>
_TEXT	ENDS
; Function compile flags: /Odspy
;	COMDAT ??_G?$CDynamicPoolEx@VCNullDecorator@NEffectUpdateDecorator@@@@UAEPAXI@Z
_TEXT	SEGMENT
_this$ = -4						; size = 4
___flags$ = 8						; size = 4
??_G?$CDynamicPoolEx@VCNullDecorator@NEffectUpdateDecorator@@@@UAEPAXI@Z PROC ; CDynamicPoolEx<NEffectUpdateDecorator::CNullDecorator>::`scalar deleting destructor', COMDAT
; _this$ = ecx
  00000	55		 push	 ebp
  00001	8b ec		 mov	 ebp, esp
  00003	51		 push	 ecx
  00004	89 4d fc	 mov	 DWORD PTR _this$[ebp], ecx
  00007	8b 4d fc	 mov	 ecx, DWORD PTR _this$[ebp]
  0000a	e8 00 00 00 00	 call	 ??1?$CDynamicPoolEx@VCNullDecorator@NEffectUpdateDecorator@@@@UAE@XZ ; CDynamicPoolEx<NEffectUpdateDecorator::CNullDecorator>::~CDynamicPoolEx<NEffectUpdateDecorator::CNullDecorator>
  0000f	8b 45 08	 mov	 eax, DWORD PTR ___flags$[ebp]
  00012	83 e0 01	 and	 eax, 1
  00015	74 0c		 je	 SHORT $LN2@scalar
  00017	6a 24		 push	 36			; 00000024H
  00019	ff 75 fc	 push	 DWORD PTR _this$[ebp]
  0001c	e8 00 00 00 00	 call	 ??3@YAXPAXI@Z		; operator delete
  00021	59		 pop	 ecx
  00022	59		 pop	 ecx
$LN2@scalar:
  00023	8b 45 fc	 mov	 eax, DWORD PTR _this$[ebp]
  00026	c9		 leave
  00027	c2 04 00	 ret	 4
??_G?$CDynamicPoolEx@VCNullDecorator@NEffectUpdateDecorator@@@@UAEPAXI@Z ENDP ; CDynamicPoolEx<NEffectUpdateDecorator::CNullDecorator>::`scalar deleting destructor'
_TEXT	ENDS
; Function compile flags: /Odspy
; File C:\Program Files (x86)\Microsoft Visual Studio\2019\Community\VC\Tools\MSVC\14.28.29333\include\vector
; File C:\Program Files (x86)\Microsoft Visual Studio\2019\Community\VC\Tools\MSVC\14.28.29333\include\xmemory
; File C:\Program Files (x86)\Microsoft Visual Studio\2019\Community\VC\Tools\MSVC\14.28.29333\include\vector
; File C:\Program Files (x86)\Microsoft Visual Studio\2019\Community\VC\Tools\MSVC\14.28.29333\include\xmemory
; File C:\Program Files (x86)\Microsoft Visual Studio\2019\Community\VC\Tools\MSVC\14.28.29333\include\vector
; File C:\Program Files (x86)\Microsoft Visual Studio\2019\Community\VC\Tools\MSVC\14.28.29333\include\xmemory
; File C:\Program Files (x86)\Microsoft Visual Studio\2019\Community\VC\Tools\MSVC\14.28.29333\include\vector
;	COMDAT ?_Tidy@?$vector@PAVCNullDecorator@NEffectUpdateDecorator@@V?$allocator@PAVCNullDecorator@NEffectUpdateDecorator@@@std@@@std@@AAEXXZ
_TEXT	SEGMENT
$T1 = -52						; size = 4
__Ptr$ = -48						; size = 4
__Count$ = -44						; size = 4
$T2 = -40						; size = 4
__First$ = -36						; size = 4
__Last$ = -32						; size = 4
$T3 = -28						; size = 4
$T4 = -24						; size = 4
__Myend$ = -20						; size = 4
__Mylast$ = -16						; size = 4
_this$ = -12						; size = 4
__My_data$ = -8						; size = 4
__Myfirst$ = -4						; size = 4
?_Tidy@?$vector@PAVCNullDecorator@NEffectUpdateDecorator@@V?$allocator@PAVCNullDecorator@NEffectUpdateDecorator@@@std@@@std@@AAEXXZ PROC ; std::vector<NEffectUpdateDecorator::CNullDecorator *,std::allocator<NEffectUpdateDecorator::CNullDecorator *> >::_Tidy, COMDAT
; _this$ = ecx

; 1686 :     void _Tidy() noexcept { // free all storage

  00000	55		 push	 ebp
  00001	8b ec		 mov	 ebp, esp
  00003	83 ec 34	 sub	 esp, 52			; 00000034H
  00006	89 4d f4	 mov	 DWORD PTR _this$[ebp], ecx

; 1687 :         auto& _My_data    = _Mypair._Myval2;

  00009	8b 45 f4	 mov	 eax, DWORD PTR _this$[ebp]
  0000c	89 45 f8	 mov	 DWORD PTR __My_data$[ebp], eax

; 1688 :         pointer& _Myfirst = _My_data._Myfirst;

  0000f	8b 45 f8	 mov	 eax, DWORD PTR __My_data$[ebp]
  00012	89 45 fc	 mov	 DWORD PTR __Myfirst$[ebp], eax

; 1689 :         pointer& _Mylast  = _My_data._Mylast;

  00015	8b 45 f8	 mov	 eax, DWORD PTR __My_data$[ebp]
  00018	83 c0 04	 add	 eax, 4
  0001b	89 45 f0	 mov	 DWORD PTR __Mylast$[ebp], eax

; 1690 :         pointer& _Myend   = _My_data._Myend;

  0001e	8b 45 f8	 mov	 eax, DWORD PTR __My_data$[ebp]
  00021	83 c0 08	 add	 eax, 8
  00024	89 45 ec	 mov	 DWORD PTR __Myend$[ebp], eax

; 1691 : 
; 1692 :         _My_data._Orphan_all();
; 1693 : 
; 1694 :         if (_Myfirst) { // destroy and deallocate old array

  00027	8b 45 fc	 mov	 eax, DWORD PTR __Myfirst$[ebp]
  0002a	83 38 00	 cmp	 DWORD PTR [eax], 0
  0002d	74 74		 je	 SHORT $LN3@Tidy

; 1695 :             _Destroy(_Myfirst, _Mylast);

  0002f	8b 45 f0	 mov	 eax, DWORD PTR __Mylast$[ebp]
  00032	8b 00		 mov	 eax, DWORD PTR [eax]
  00034	89 45 e0	 mov	 DWORD PTR __Last$[ebp], eax
  00037	8b 45 fc	 mov	 eax, DWORD PTR __Myfirst$[ebp]
  0003a	8b 00		 mov	 eax, DWORD PTR [eax]
  0003c	89 45 dc	 mov	 DWORD PTR __First$[ebp], eax

; 1733 :         return _Mypair._Get_first();

  0003f	8b 45 f4	 mov	 eax, DWORD PTR _this$[ebp]
; File C:\Program Files (x86)\Microsoft Visual Studio\2019\Community\VC\Tools\MSVC\14.28.29333\include\xmemory

; 1347 :         return *this;

  00042	89 45 e8	 mov	 DWORD PTR $T4[ebp], eax
; File C:\Program Files (x86)\Microsoft Visual Studio\2019\Community\VC\Tools\MSVC\14.28.29333\include\vector

; 1733 :         return _Mypair._Get_first();

  00045	8b 45 e8	 mov	 eax, DWORD PTR $T4[ebp]
  00048	89 45 e4	 mov	 DWORD PTR $T3[ebp], eax

; 1612 :         _Destroy_range(_First, _Last, _Getal());

  0004b	ff 75 e4	 push	 DWORD PTR $T3[ebp]
  0004e	ff 75 e0	 push	 DWORD PTR __Last$[ebp]
  00051	ff 75 dc	 push	 DWORD PTR __First$[ebp]
  00054	e8 00 00 00 00	 call	 ??$_Destroy_range@V?$allocator@PAVCNullDecorator@NEffectUpdateDecorator@@@std@@@std@@YAXPAPAVCNullDecorator@NEffectUpdateDecorator@@QAPAV12@AAV?$allocator@PAVCNullDecorator@NEffectUpdateDecorator@@@0@@Z ; std::_Destroy_range<std::allocator<NEffectUpdateDecorator::CNullDecorator *> >
  00059	83 c4 0c	 add	 esp, 12			; 0000000cH

; 1733 :         return _Mypair._Get_first();

  0005c	8b 45 f4	 mov	 eax, DWORD PTR _this$[ebp]
; File C:\Program Files (x86)\Microsoft Visual Studio\2019\Community\VC\Tools\MSVC\14.28.29333\include\xmemory

; 1347 :         return *this;

  0005f	89 45 d8	 mov	 DWORD PTR $T2[ebp], eax
; File C:\Program Files (x86)\Microsoft Visual Studio\2019\Community\VC\Tools\MSVC\14.28.29333\include\vector

; 1733 :         return _Mypair._Get_first();

  00062	8b 45 d8	 mov	 eax, DWORD PTR $T2[ebp]
  00065	89 45 cc	 mov	 DWORD PTR $T1[ebp], eax

; 1696 :             _Getal().deallocate(_Myfirst, static_cast<size_type>(_Myend - _Myfirst));

  00068	8b 45 ec	 mov	 eax, DWORD PTR __Myend$[ebp]
  0006b	8b 4d fc	 mov	 ecx, DWORD PTR __Myfirst$[ebp]
  0006e	8b 00		 mov	 eax, DWORD PTR [eax]
  00070	2b 01		 sub	 eax, DWORD PTR [ecx]
  00072	c1 f8 02	 sar	 eax, 2
  00075	89 45 d4	 mov	 DWORD PTR __Count$[ebp], eax
  00078	8b 45 fc	 mov	 eax, DWORD PTR __Myfirst$[ebp]
  0007b	8b 00		 mov	 eax, DWORD PTR [eax]
  0007d	89 45 d0	 mov	 DWORD PTR __Ptr$[ebp], eax
; File C:\Program Files (x86)\Microsoft Visual Studio\2019\Community\VC\Tools\MSVC\14.28.29333\include\xmemory

; 810  :         _Deallocate<_New_alignof<_Ty>>(_Ptr, sizeof(_Ty) * _Count);

  00080	8b 45 d4	 mov	 eax, DWORD PTR __Count$[ebp]
  00083	c1 e0 02	 shl	 eax, 2
  00086	50		 push	 eax
  00087	ff 75 d0	 push	 DWORD PTR __Ptr$[ebp]
  0008a	e8 00 00 00 00	 call	 ??$_Deallocate@$07$0A@@std@@YAXPAXI@Z ; std::_Deallocate<8,0>
  0008f	59		 pop	 ecx
  00090	59		 pop	 ecx
; File C:\Program Files (x86)\Microsoft Visual Studio\2019\Community\VC\Tools\MSVC\14.28.29333\include\vector

; 1698 :             _Myfirst = pointer();

  00091	8b 45 fc	 mov	 eax, DWORD PTR __Myfirst$[ebp]
  00094	83 20 00	 and	 DWORD PTR [eax], 0

; 1699 :             _Mylast  = pointer();

  00097	8b 45 f0	 mov	 eax, DWORD PTR __Mylast$[ebp]
  0009a	83 20 00	 and	 DWORD PTR [eax], 0

; 1700 :             _Myend   = pointer();

  0009d	8b 45 ec	 mov	 eax, DWORD PTR __Myend$[ebp]
  000a0	83 20 00	 and	 DWORD PTR [eax], 0
$LN3@Tidy:

; 1701 :         }
; 1702 :     }

  000a3	c9		 leave
  000a4	c3		 ret	 0
?_Tidy@?$vector@PAVCNullDecorator@NEffectUpdateDecorator@@V?$allocator@PAVCNullDecorator@NEffectUpdateDecorator@@@std@@@std@@AAEXXZ ENDP ; std::vector<NEffectUpdateDecorator::CNullDecorator *,std::allocator<NEffectUpdateDecorator::CNullDecorator *> >::_Tidy
_TEXT	ENDS
; Function compile flags: /Odspy
; File C:\Program Files (x86)\Microsoft Visual Studio\2019\Community\VC\Tools\MSVC\14.28.29333\include\vector
; File C:\Program Files (x86)\Microsoft Visual Studio\2019\Community\VC\Tools\MSVC\14.28.29333\include\xmemory
; File C:\Program Files (x86)\Microsoft Visual Studio\2019\Community\VC\Tools\MSVC\14.28.29333\include\vector
;	COMDAT ?clear@?$vector@PAVCNullDecorator@NEffectUpdateDecorator@@V?$allocator@PAVCNullDecorator@NEffectUpdateDecorator@@@std@@@std@@QAEXXZ
_TEXT	SEGMENT
__First$ = -32						; size = 4
__Last$ = -28						; size = 4
$T1 = -24						; size = 4
$T2 = -20						; size = 4
__Myfirst$ = -16					; size = 4
__Mylast$ = -12						; size = 4
_this$ = -8						; size = 4
__My_data$ = -4						; size = 4
?clear@?$vector@PAVCNullDecorator@NEffectUpdateDecorator@@V?$allocator@PAVCNullDecorator@NEffectUpdateDecorator@@@std@@@std@@QAEXXZ PROC ; std::vector<NEffectUpdateDecorator::CNullDecorator *,std::allocator<NEffectUpdateDecorator::CNullDecorator *> >::clear, COMDAT
; _this$ = ecx

; 1383 :     void clear() noexcept { // erase all

  00000	55		 push	 ebp
  00001	8b ec		 mov	 ebp, esp
  00003	83 ec 20	 sub	 esp, 32			; 00000020H
  00006	89 4d f8	 mov	 DWORD PTR _this$[ebp], ecx

; 1384 :         auto& _My_data    = _Mypair._Myval2;

  00009	8b 45 f8	 mov	 eax, DWORD PTR _this$[ebp]
  0000c	89 45 fc	 mov	 DWORD PTR __My_data$[ebp], eax

; 1385 :         pointer& _Myfirst = _My_data._Myfirst;

  0000f	8b 45 fc	 mov	 eax, DWORD PTR __My_data$[ebp]
  00012	89 45 f0	 mov	 DWORD PTR __Myfirst$[ebp], eax

; 1386 :         pointer& _Mylast  = _My_data._Mylast;

  00015	8b 45 fc	 mov	 eax, DWORD PTR __My_data$[ebp]
  00018	83 c0 04	 add	 eax, 4
  0001b	89 45 f4	 mov	 DWORD PTR __Mylast$[ebp], eax

; 1387 : 
; 1388 :         _My_data._Orphan_all();
; 1389 :         _Destroy(_Myfirst, _Mylast);

  0001e	8b 45 f4	 mov	 eax, DWORD PTR __Mylast$[ebp]
  00021	8b 00		 mov	 eax, DWORD PTR [eax]
  00023	89 45 e4	 mov	 DWORD PTR __Last$[ebp], eax
  00026	8b 45 f0	 mov	 eax, DWORD PTR __Myfirst$[ebp]
  00029	8b 00		 mov	 eax, DWORD PTR [eax]
  0002b	89 45 e0	 mov	 DWORD PTR __First$[ebp], eax

; 1733 :         return _Mypair._Get_first();

  0002e	8b 45 f8	 mov	 eax, DWORD PTR _this$[ebp]
; File C:\Program Files (x86)\Microsoft Visual Studio\2019\Community\VC\Tools\MSVC\14.28.29333\include\xmemory

; 1347 :         return *this;

  00031	89 45 ec	 mov	 DWORD PTR $T2[ebp], eax
; File C:\Program Files (x86)\Microsoft Visual Studio\2019\Community\VC\Tools\MSVC\14.28.29333\include\vector

; 1733 :         return _Mypair._Get_first();

  00034	8b 45 ec	 mov	 eax, DWORD PTR $T2[ebp]
  00037	89 45 e8	 mov	 DWORD PTR $T1[ebp], eax

; 1612 :         _Destroy_range(_First, _Last, _Getal());

  0003a	ff 75 e8	 push	 DWORD PTR $T1[ebp]
  0003d	ff 75 e4	 push	 DWORD PTR __Last$[ebp]
  00040	ff 75 e0	 push	 DWORD PTR __First$[ebp]
  00043	e8 00 00 00 00	 call	 ??$_Destroy_range@V?$allocator@PAVCNullDecorator@NEffectUpdateDecorator@@@std@@@std@@YAXPAPAVCNullDecorator@NEffectUpdateDecorator@@QAPAV12@AAV?$allocator@PAVCNullDecorator@NEffectUpdateDecorator@@@0@@Z ; std::_Destroy_range<std::allocator<NEffectUpdateDecorator::CNullDecorator *> >
  00048	83 c4 0c	 add	 esp, 12			; 0000000cH

; 1390 :         _Mylast = _Myfirst;

  0004b	8b 45 f4	 mov	 eax, DWORD PTR __Mylast$[ebp]
  0004e	8b 4d f0	 mov	 ecx, DWORD PTR __Myfirst$[ebp]
  00051	8b 09		 mov	 ecx, DWORD PTR [ecx]
  00053	89 08		 mov	 DWORD PTR [eax], ecx

; 1391 :     }

  00055	c9		 leave
  00056	c3		 ret	 0
?clear@?$vector@PAVCNullDecorator@NEffectUpdateDecorator@@V?$allocator@PAVCNullDecorator@NEffectUpdateDecorator@@@std@@@std@@QAEXXZ ENDP ; std::vector<NEffectUpdateDecorator::CNullDecorator *,std::allocator<NEffectUpdateDecorator::CNullDecorator *> >::clear
_TEXT	ENDS
; Function compile flags: /Odspy
; File D:\Metin2 Server Files\mainline\SRC_2014\Metin2Client\eterLib\Pool.h
;	COMDAT ?Delete@?$CDynamicPoolEx@VCNullDecorator@NEffectUpdateDecorator@@@@KAXPAVCNullDecorator@NEffectUpdateDecorator@@@Z
_TEXT	SEGMENT
_pkData$ = 8						; size = 4
?Delete@?$CDynamicPoolEx@VCNullDecorator@NEffectUpdateDecorator@@@@KAXPAVCNullDecorator@NEffectUpdateDecorator@@@Z PROC ; CDynamicPoolEx<NEffectUpdateDecorator::CNullDecorator>::Delete, COMDAT

; 223  : 		{

  00000	55		 push	 ebp
  00001	8b ec		 mov	 ebp, esp

; 224  : 			::operator delete(pkData);

  00003	ff 75 08	 push	 DWORD PTR _pkData$[ebp]
  00006	e8 00 00 00 00	 call	 ??3@YAXPAX@Z		; operator delete
  0000b	59		 pop	 ecx

; 225  : 		}

  0000c	5d		 pop	 ebp
  0000d	c3		 ret	 0
?Delete@?$CDynamicPoolEx@VCNullDecorator@NEffectUpdateDecorator@@@@KAXPAVCNullDecorator@NEffectUpdateDecorator@@@Z ENDP ; CDynamicPoolEx<NEffectUpdateDecorator::CNullDecorator>::Delete
_TEXT	ENDS
; Function compile flags: /Odspy
; File D:\Metin2 Server Files\mainline\SRC_2014\Metin2Client\eterLib\Pool.h
; File C:\Program Files (x86)\Microsoft Visual Studio\2019\Community\VC\Tools\MSVC\14.28.29333\include\vector
; File C:\Program Files (x86)\Microsoft Visual Studio\2019\Community\VC\Tools\MSVC\14.28.29333\include\xstddef
; File C:\Program Files (x86)\Microsoft Visual Studio\2019\Community\VC\Tools\MSVC\14.28.29333\include\vector
; File C:\Program Files (x86)\Microsoft Visual Studio\2019\Community\VC\Tools\MSVC\14.28.29333\include\xstddef
; File C:\Program Files (x86)\Microsoft Visual Studio\2019\Community\VC\Tools\MSVC\14.28.29333\include\vector
; File D:\Metin2 Server Files\mainline\SRC_2014\Metin2Client\eterLib\Pool.h
;	COMDAT ?Destroy@?$CDynamicPoolEx@VCNullDecorator@NEffectUpdateDecorator@@@@QAEXXZ
_TEXT	SEGMENT
$T1 = -44						; size = 4
$T2 = -40						; size = 4
$T3 = -36						; size = 4
$T4 = -32						; size = 4
$T5 = -28						; size = 4
___param0$ = -24					; size = 4
$T6 = -20						; size = 4
___param0$ = -16					; size = 4
__My_data$7 = -12					; size = 4
__My_data$8 = -8					; size = 4
_this$ = -4						; size = 4
?Destroy@?$CDynamicPoolEx@VCNullDecorator@NEffectUpdateDecorator@@@@QAEXXZ PROC ; CDynamicPoolEx<NEffectUpdateDecorator::CNullDecorator>::Destroy, COMDAT
; _this$ = ecx

; 150  : 		{

  00000	55		 push	 ebp
  00001	8b ec		 mov	 ebp, esp
  00003	83 ec 2c	 sub	 esp, 44			; 0000002cH
  00006	89 4d fc	 mov	 DWORD PTR _this$[ebp], ecx
; File C:\Program Files (x86)\Microsoft Visual Studio\2019\Community\VC\Tools\MSVC\14.28.29333\include\vector

; 1420 :         auto& _My_data = _Mypair._Myval2;

  00009	8b 45 fc	 mov	 eax, DWORD PTR _this$[ebp]
  0000c	83 c0 04	 add	 eax, 4
  0000f	89 45 f8	 mov	 DWORD PTR __My_data$8[ebp], eax
; File C:\Program Files (x86)\Microsoft Visual Studio\2019\Community\VC\Tools\MSVC\14.28.29333\include\xstddef

; 275  :     return __builtin_addressof(_Val);

  00012	8b 45 f8	 mov	 eax, DWORD PTR __My_data$8[ebp]
  00015	89 45 d8	 mov	 DWORD PTR $T2[ebp], eax
; File C:\Program Files (x86)\Microsoft Visual Studio\2019\Community\VC\Tools\MSVC\14.28.29333\include\vector

; 1421 :         return iterator(_My_data._Mylast, _STD addressof(_My_data));

  00018	8b 45 f8	 mov	 eax, DWORD PTR __My_data$8[ebp]
  0001b	8b 40 04	 mov	 eax, DWORD PTR [eax+4]
  0001e	89 45 f0	 mov	 DWORD PTR ___param0$[ebp], eax

; 42   :     _Vector_const_iterator(_Tptr _Parg, const _Container_base* _Pvector) noexcept : _Ptr(_Parg) {

  00021	8b 45 f0	 mov	 eax, DWORD PTR ___param0$[ebp]
  00024	89 45 ec	 mov	 DWORD PTR $T6[ebp], eax

; 1421 :         return iterator(_My_data._Mylast, _STD addressof(_My_data));

  00027	8d 45 ec	 lea	 eax, DWORD PTR $T6[ebp]
  0002a	89 45 e0	 mov	 DWORD PTR $T4[ebp], eax

; 1410 :         auto& _My_data = _Mypair._Myval2;

  0002d	8b 45 fc	 mov	 eax, DWORD PTR _this$[ebp]
  00030	83 c0 04	 add	 eax, 4
  00033	89 45 f4	 mov	 DWORD PTR __My_data$7[ebp], eax
; File C:\Program Files (x86)\Microsoft Visual Studio\2019\Community\VC\Tools\MSVC\14.28.29333\include\xstddef

; 275  :     return __builtin_addressof(_Val);

  00036	8b 45 f4	 mov	 eax, DWORD PTR __My_data$7[ebp]
  00039	89 45 d4	 mov	 DWORD PTR $T1[ebp], eax
; File C:\Program Files (x86)\Microsoft Visual Studio\2019\Community\VC\Tools\MSVC\14.28.29333\include\vector

; 1411 :         return iterator(_My_data._Myfirst, _STD addressof(_My_data));

  0003c	8b 45 f4	 mov	 eax, DWORD PTR __My_data$7[ebp]
  0003f	8b 00		 mov	 eax, DWORD PTR [eax]
  00041	89 45 e8	 mov	 DWORD PTR ___param0$[ebp], eax

; 42   :     _Vector_const_iterator(_Tptr _Parg, const _Container_base* _Pvector) noexcept : _Ptr(_Parg) {

  00044	8b 45 e8	 mov	 eax, DWORD PTR ___param0$[ebp]
  00047	89 45 e4	 mov	 DWORD PTR $T5[ebp], eax

; 1411 :         return iterator(_My_data._Myfirst, _STD addressof(_My_data));

  0004a	8d 45 e4	 lea	 eax, DWORD PTR $T5[ebp]
  0004d	89 45 dc	 mov	 DWORD PTR $T3[ebp], eax
; File D:\Metin2 Server Files\mainline\SRC_2014\Metin2Client\eterLib\Pool.h

; 160  : 			std::for_each(m_kVct_pkData.begin(), m_kVct_pkData.end(), Delete);

  00050	68 00 00 00 00	 push	 OFFSET ?Delete@?$CDynamicPoolEx@VCNullDecorator@NEffectUpdateDecorator@@@@KAXPAVCNullDecorator@NEffectUpdateDecorator@@@Z ; CDynamicPoolEx<NEffectUpdateDecorator::CNullDecorator>::Delete
  00055	8b 45 e0	 mov	 eax, DWORD PTR $T4[ebp]
  00058	ff 30		 push	 DWORD PTR [eax]
  0005a	8b 45 dc	 mov	 eax, DWORD PTR $T3[ebp]
  0005d	ff 30		 push	 DWORD PTR [eax]
  0005f	e8 00 00 00 00	 call	 ??$for_each@V?$_Vector_iterator@V?$_Vector_val@U?$_Simple_types@PAVCNullDecorator@NEffectUpdateDecorator@@@std@@@std@@@std@@P6AXPAVCNullDecorator@NEffectUpdateDecorator@@@Z@std@@YAP6AXPAVCNullDecorator@NEffectUpdateDecorator@@@ZV?$_Vector_iterator@V?$_Vector_val@U?$_Simple_types@PAVCNullDecorator@NEffectUpdateDecorator@@@std@@@std@@@0@1P6AX0@Z@Z ; std::for_each<std::_Vector_iterator<std::_Vector_val<std::_Simple_types<NEffectUpdateDecorator::CNullDecorator *> > >,void (__cdecl*)(NEffectUpdateDecorator::CNullDecorator *)>
  00064	83 c4 0c	 add	 esp, 12			; 0000000cH

; 161  : 			m_kVct_pkData.clear();

  00067	8b 4d fc	 mov	 ecx, DWORD PTR _this$[ebp]
  0006a	83 c1 04	 add	 ecx, 4
  0006d	e8 00 00 00 00	 call	 ?clear@?$vector@PAVCNullDecorator@NEffectUpdateDecorator@@V?$allocator@PAVCNullDecorator@NEffectUpdateDecorator@@@std@@@std@@QAEXXZ ; std::vector<NEffectUpdateDecorator::CNullDecorator *,std::allocator<NEffectUpdateDecorator::CNullDecorator *> >::clear

; 162  : 			m_kVct_pkFree.clear();

  00072	8b 4d fc	 mov	 ecx, DWORD PTR _this$[ebp]
  00075	83 c1 10	 add	 ecx, 16			; 00000010H
  00078	e8 00 00 00 00	 call	 ?clear@?$vector@PAVCNullDecorator@NEffectUpdateDecorator@@V?$allocator@PAVCNullDecorator@NEffectUpdateDecorator@@@std@@@std@@QAEXXZ ; std::vector<NEffectUpdateDecorator::CNullDecorator *,std::allocator<NEffectUpdateDecorator::CNullDecorator *> >::clear

; 163  : 		}

  0007d	c9		 leave
  0007e	c3		 ret	 0
?Destroy@?$CDynamicPoolEx@VCNullDecorator@NEffectUpdateDecorator@@@@QAEXXZ ENDP ; CDynamicPoolEx<NEffectUpdateDecorator::CNullDecorator>::Destroy
_TEXT	ENDS
; Function compile flags: /Odspy
; File D:\Metin2 Server Files\mainline\SRC_2014\Metin2Client\eterLib\Pool.h
; File C:\Program Files (x86)\Microsoft Visual Studio\2019\Community\VC\Tools\MSVC\14.28.29333\include\vector
; File D:\Metin2 Server Files\mainline\SRC_2014\Metin2Client\eterLib\Pool.h
; File C:\Program Files (x86)\Microsoft Visual Studio\2019\Community\VC\Tools\MSVC\14.28.29333\include\vector
; File D:\Metin2 Server Files\mainline\SRC_2014\Metin2Client\eterLib\Pool.h
;	COMDAT ??1?$CDynamicPoolEx@VCNullDecorator@NEffectUpdateDecorator@@@@UAE@XZ
_TEXT	SEGMENT
_this$ = -16						; size = 4
__$EHRec$ = -12						; size = 12
??1?$CDynamicPoolEx@VCNullDecorator@NEffectUpdateDecorator@@@@UAE@XZ PROC ; CDynamicPoolEx<NEffectUpdateDecorator::CNullDecorator>::~CDynamicPoolEx<NEffectUpdateDecorator::CNullDecorator>, COMDAT
; _this$ = ecx

; 132  : 		{

  00000	55		 push	 ebp
  00001	8b ec		 mov	 ebp, esp
  00003	6a ff		 push	 -1
  00005	68 00 00 00 00	 push	 __ehhandler$??1?$CDynamicPoolEx@VCNullDecorator@NEffectUpdateDecorator@@@@UAE@XZ
  0000a	64 a1 00 00 00
	00		 mov	 eax, DWORD PTR fs:0
  00010	50		 push	 eax
  00011	51		 push	 ecx
  00012	a1 00 00 00 00	 mov	 eax, DWORD PTR ___security_cookie
  00017	33 c5		 xor	 eax, ebp
  00019	50		 push	 eax
  0001a	8d 45 f4	 lea	 eax, DWORD PTR __$EHRec$[ebp]
  0001d	64 a3 00 00 00
	00		 mov	 DWORD PTR fs:0, eax
  00023	89 4d f0	 mov	 DWORD PTR _this$[ebp], ecx
  00026	8b 45 f0	 mov	 eax, DWORD PTR _this$[ebp]
  00029	c7 00 00 00 00
	00		 mov	 DWORD PTR [eax], OFFSET ??_7?$CDynamicPoolEx@VCNullDecorator@NEffectUpdateDecorator@@@@6B@

; 133  : 			assert(m_kVct_pkFree.size()==m_kVct_pkData.size());
; 134  : 			Destroy();

  0002f	8b 4d f0	 mov	 ecx, DWORD PTR _this$[ebp]
  00032	e8 00 00 00 00	 call	 ?Destroy@?$CDynamicPoolEx@VCNullDecorator@NEffectUpdateDecorator@@@@QAEXXZ ; CDynamicPoolEx<NEffectUpdateDecorator::CNullDecorator>::Destroy

; 142  : 		}

  00037	8b 4d f0	 mov	 ecx, DWORD PTR _this$[ebp]
  0003a	83 c1 10	 add	 ecx, 16			; 00000010H
; File C:\Program Files (x86)\Microsoft Visual Studio\2019\Community\VC\Tools\MSVC\14.28.29333\include\vector

; 673  :         _Tidy();

  0003d	e8 00 00 00 00	 call	 ?_Tidy@?$vector@PAVCNullDecorator@NEffectUpdateDecorator@@V?$allocator@PAVCNullDecorator@NEffectUpdateDecorator@@@std@@@std@@AAEXXZ ; std::vector<NEffectUpdateDecorator::CNullDecorator *,std::allocator<NEffectUpdateDecorator::CNullDecorator *> >::_Tidy
; File D:\Metin2 Server Files\mainline\SRC_2014\Metin2Client\eterLib\Pool.h

; 142  : 		}

  00042	8b 4d f0	 mov	 ecx, DWORD PTR _this$[ebp]
  00045	83 c1 04	 add	 ecx, 4
; File C:\Program Files (x86)\Microsoft Visual Studio\2019\Community\VC\Tools\MSVC\14.28.29333\include\vector

; 673  :         _Tidy();

  00048	e8 00 00 00 00	 call	 ?_Tidy@?$vector@PAVCNullDecorator@NEffectUpdateDecorator@@V?$allocator@PAVCNullDecorator@NEffectUpdateDecorator@@@std@@@std@@AAEXXZ ; std::vector<NEffectUpdateDecorator::CNullDecorator *,std::allocator<NEffectUpdateDecorator::CNullDecorator *> >::_Tidy
; File D:\Metin2 Server Files\mainline\SRC_2014\Metin2Client\eterLib\Pool.h

; 142  : 		}

  0004d	8b 4d f4	 mov	 ecx, DWORD PTR __$EHRec$[ebp]
  00050	64 89 0d 00 00
	00 00		 mov	 DWORD PTR fs:0, ecx
  00057	59		 pop	 ecx
  00058	c9		 leave
  00059	c3		 ret	 0
  0005a	cc		 int	 3
  0005b	cc		 int	 3
  0005c	cc		 int	 3
  0005d	cc		 int	 3
  0005e	cc		 int	 3
_TEXT	ENDS
;	COMDAT text$x
text$x	SEGMENT
__ehhandler$??1?$CDynamicPoolEx@VCNullDecorator@NEffectUpdateDecorator@@@@UAE@XZ:
  00000	90		 npad	 1
  00001	90		 npad	 1
  00002	8b 54 24 08	 mov	 edx, DWORD PTR [esp+8]
  00006	8d 42 0c	 lea	 eax, DWORD PTR [edx+12]
  00009	8b 4a f8	 mov	 ecx, DWORD PTR [edx-8]
  0000c	33 c8		 xor	 ecx, eax
  0000e	e8 00 00 00 00	 call	 @__security_check_cookie@4
  00013	b8 00 00 00 00	 mov	 eax, OFFSET __ehfuncinfo$??1?$CDynamicPoolEx@VCNullDecorator@NEffectUpdateDecorator@@@@UAE@XZ
  00018	e9 00 00 00 00	 jmp	 ___CxxFrameHandler3
text$x	ENDS
??1?$CDynamicPoolEx@VCNullDecorator@NEffectUpdateDecorator@@@@UAE@XZ ENDP ; CDynamicPoolEx<NEffectUpdateDecorator::CNullDecorator>::~CDynamicPoolEx<NEffectUpdateDecorator::CNullDecorator>
; Function compile flags: /Odspy
; File D:\Metin2 Server Files\mainline\SRC_2014\Metin2Client\eterLib\Pool.h
; File C:\Program Files (x86)\Microsoft Visual Studio\2019\Community\VC\Tools\MSVC\14.28.29333\include\vector
; File C:\Program Files (x86)\Microsoft Visual Studio\2019\Community\VC\Tools\MSVC\14.28.29333\include\xmemory
; File C:\Program Files (x86)\Microsoft Visual Studio\2019\Community\VC\Tools\MSVC\14.28.29333\include\vector
; File D:\Metin2 Server Files\mainline\SRC_2014\Metin2Client\eterLib\Pool.h
; File C:\Program Files (x86)\Microsoft Visual Studio\2019\Community\VC\Tools\MSVC\14.28.29333\include\vector
; File C:\Program Files (x86)\Microsoft Visual Studio\2019\Community\VC\Tools\MSVC\14.28.29333\include\xmemory
; File C:\Program Files (x86)\Microsoft Visual Studio\2019\Community\VC\Tools\MSVC\14.28.29333\include\vector
; File D:\Metin2 Server Files\mainline\SRC_2014\Metin2Client\eterLib\Pool.h
;	COMDAT ??0?$CDynamicPoolEx@VCNullDecorator@NEffectUpdateDecorator@@@@QAE@XZ
_TEXT	SEGMENT
_this$ = -28						; size = 4
_this$ = -24						; size = 4
_this$ = -20						; size = 4
_this$ = -16						; size = 4
_this$1 = -12						; size = 4
_this$2 = -8						; size = 4
_this$ = -4						; size = 4
??0?$CDynamicPoolEx@VCNullDecorator@NEffectUpdateDecorator@@@@QAE@XZ PROC ; CDynamicPoolEx<NEffectUpdateDecorator::CNullDecorator>::CDynamicPoolEx<NEffectUpdateDecorator::CNullDecorator>, COMDAT
; _this$ = ecx

; 126  : 		CDynamicPoolEx()

  00000	55		 push	 ebp
  00001	8b ec		 mov	 ebp, esp
  00003	83 ec 1c	 sub	 esp, 28			; 0000001cH
  00006	89 4d fc	 mov	 DWORD PTR _this$[ebp], ecx

; 127  : 		{

  00009	8b 45 fc	 mov	 eax, DWORD PTR _this$[ebp]
  0000c	c7 00 00 00 00
	00		 mov	 DWORD PTR [eax], OFFSET ??_7?$CDynamicPoolEx@VCNullDecorator@NEffectUpdateDecorator@@@@6B@
  00012	8b 45 fc	 mov	 eax, DWORD PTR _this$[ebp]
  00015	83 c0 04	 add	 eax, 4
  00018	89 45 f0	 mov	 DWORD PTR _this$[ebp], eax
; File C:\Program Files (x86)\Microsoft Visual Studio\2019\Community\VC\Tools\MSVC\14.28.29333\include\vector

; 445  :     vector() noexcept(is_nothrow_default_constructible_v<_Alty>) : _Mypair(_Zero_then_variadic_args_t{}) {

  0001b	8b 45 f0	 mov	 eax, DWORD PTR _this$[ebp]
  0001e	89 45 ec	 mov	 DWORD PTR _this$[ebp], eax
; File C:\Program Files (x86)\Microsoft Visual Studio\2019\Community\VC\Tools\MSVC\14.28.29333\include\xmemory

; 1339 :         : _Ty1(), _Myval2(_STD forward<_Other2>(_Val2)...) {}

  00021	8b 45 ec	 mov	 eax, DWORD PTR _this$[ebp]
  00024	89 45 f8	 mov	 DWORD PTR _this$2[ebp], eax
; File C:\Program Files (x86)\Microsoft Visual Studio\2019\Community\VC\Tools\MSVC\14.28.29333\include\vector

; 375  :     _Vector_val() noexcept : _Myfirst(), _Mylast(), _Myend() {}

  00027	8b 45 f8	 mov	 eax, DWORD PTR _this$2[ebp]
  0002a	83 20 00	 and	 DWORD PTR [eax], 0
  0002d	8b 45 f8	 mov	 eax, DWORD PTR _this$2[ebp]
  00030	83 60 04 00	 and	 DWORD PTR [eax+4], 0
  00034	8b 45 f8	 mov	 eax, DWORD PTR _this$2[ebp]
  00037	83 60 08 00	 and	 DWORD PTR [eax+8], 0
; File D:\Metin2 Server Files\mainline\SRC_2014\Metin2Client\eterLib\Pool.h

; 127  : 		{

  0003b	8b 45 fc	 mov	 eax, DWORD PTR _this$[ebp]
  0003e	83 c0 10	 add	 eax, 16			; 00000010H
  00041	89 45 e8	 mov	 DWORD PTR _this$[ebp], eax
; File C:\Program Files (x86)\Microsoft Visual Studio\2019\Community\VC\Tools\MSVC\14.28.29333\include\vector

; 445  :     vector() noexcept(is_nothrow_default_constructible_v<_Alty>) : _Mypair(_Zero_then_variadic_args_t{}) {

  00044	8b 45 e8	 mov	 eax, DWORD PTR _this$[ebp]
  00047	89 45 e4	 mov	 DWORD PTR _this$[ebp], eax
; File C:\Program Files (x86)\Microsoft Visual Studio\2019\Community\VC\Tools\MSVC\14.28.29333\include\xmemory

; 1339 :         : _Ty1(), _Myval2(_STD forward<_Other2>(_Val2)...) {}

  0004a	8b 45 e4	 mov	 eax, DWORD PTR _this$[ebp]
  0004d	89 45 f4	 mov	 DWORD PTR _this$1[ebp], eax
; File C:\Program Files (x86)\Microsoft Visual Studio\2019\Community\VC\Tools\MSVC\14.28.29333\include\vector

; 375  :     _Vector_val() noexcept : _Myfirst(), _Mylast(), _Myend() {}

  00050	8b 45 f4	 mov	 eax, DWORD PTR _this$1[ebp]
  00053	83 20 00	 and	 DWORD PTR [eax], 0
  00056	8b 45 f4	 mov	 eax, DWORD PTR _this$1[ebp]
  00059	83 60 04 00	 and	 DWORD PTR [eax+4], 0
  0005d	8b 45 f4	 mov	 eax, DWORD PTR _this$1[ebp]
  00060	83 60 08 00	 and	 DWORD PTR [eax+8], 0
; File D:\Metin2 Server Files\mainline\SRC_2014\Metin2Client\eterLib\Pool.h

; 128  : 			m_uInitCapacity=0;

  00064	8b 45 fc	 mov	 eax, DWORD PTR _this$[ebp]
  00067	83 60 1c 00	 and	 DWORD PTR [eax+28], 0

; 129  : 			m_uUsedCapacity=0;

  0006b	8b 45 fc	 mov	 eax, DWORD PTR _this$[ebp]
  0006e	83 60 20 00	 and	 DWORD PTR [eax+32], 0

; 130  : 		}

  00072	8b 45 fc	 mov	 eax, DWORD PTR _this$[ebp]
  00075	c9		 leave
  00076	c3		 ret	 0
??0?$CDynamicPoolEx@VCNullDecorator@NEffectUpdateDecorator@@@@QAE@XZ ENDP ; CDynamicPoolEx<NEffectUpdateDecorator::CNullDecorator>::CDynamicPoolEx<NEffectUpdateDecorator::CNullDecorator>
_TEXT	ENDS
; Function compile flags: /Odspy
;	COMDAT ??_G?$CDynamicPoolEx@VCTextureAnimationCWDecorator@NEffectUpdateDecorator@@@@UAEPAXI@Z
_TEXT	SEGMENT
_this$ = -4						; size = 4
___flags$ = 8						; size = 4
??_G?$CDynamicPoolEx@VCTextureAnimationCWDecorator@NEffectUpdateDecorator@@@@UAEPAXI@Z PROC ; CDynamicPoolEx<NEffectUpdateDecorator::CTextureAnimationCWDecorator>::`scalar deleting destructor', COMDAT
; _this$ = ecx
  00000	55		 push	 ebp
  00001	8b ec		 mov	 ebp, esp
  00003	51		 push	 ecx
  00004	89 4d fc	 mov	 DWORD PTR _this$[ebp], ecx
  00007	8b 4d fc	 mov	 ecx, DWORD PTR _this$[ebp]
  0000a	e8 00 00 00 00	 call	 ??1?$CDynamicPoolEx@VCTextureAnimationCWDecorator@NEffectUpdateDecorator@@@@UAE@XZ ; CDynamicPoolEx<NEffectUpdateDecorator::CTextureAnimationCWDecorator>::~CDynamicPoolEx<NEffectUpdateDecorator::CTextureAnimationCWDecorator>
  0000f	8b 45 08	 mov	 eax, DWORD PTR ___flags$[ebp]
  00012	83 e0 01	 and	 eax, 1
  00015	74 0c		 je	 SHORT $LN2@scalar
  00017	6a 24		 push	 36			; 00000024H
  00019	ff 75 fc	 push	 DWORD PTR _this$[ebp]
  0001c	e8 00 00 00 00	 call	 ??3@YAXPAXI@Z		; operator delete
  00021	59		 pop	 ecx
  00022	59		 pop	 ecx
$LN2@scalar:
  00023	8b 45 fc	 mov	 eax, DWORD PTR _this$[ebp]
  00026	c9		 leave
  00027	c2 04 00	 ret	 4
??_G?$CDynamicPoolEx@VCTextureAnimationCWDecorator@NEffectUpdateDecorator@@@@UAEPAXI@Z ENDP ; CDynamicPoolEx<NEffectUpdateDecorator::CTextureAnimationCWDecorator>::`scalar deleting destructor'
_TEXT	ENDS
; Function compile flags: /Odspy
; File C:\Program Files (x86)\Microsoft Visual Studio\2019\Community\VC\Tools\MSVC\14.28.29333\include\vector
; File C:\Program Files (x86)\Microsoft Visual Studio\2019\Community\VC\Tools\MSVC\14.28.29333\include\xmemory
; File C:\Program Files (x86)\Microsoft Visual Studio\2019\Community\VC\Tools\MSVC\14.28.29333\include\vector
; File C:\Program Files (x86)\Microsoft Visual Studio\2019\Community\VC\Tools\MSVC\14.28.29333\include\xmemory
; File C:\Program Files (x86)\Microsoft Visual Studio\2019\Community\VC\Tools\MSVC\14.28.29333\include\vector
; File C:\Program Files (x86)\Microsoft Visual Studio\2019\Community\VC\Tools\MSVC\14.28.29333\include\xmemory
; File C:\Program Files (x86)\Microsoft Visual Studio\2019\Community\VC\Tools\MSVC\14.28.29333\include\vector
;	COMDAT ?_Tidy@?$vector@PAVCTextureAnimationCWDecorator@NEffectUpdateDecorator@@V?$allocator@PAVCTextureAnimationCWDecorator@NEffectUpdateDecorator@@@std@@@std@@AAEXXZ
_TEXT	SEGMENT
$T1 = -52						; size = 4
__Ptr$ = -48						; size = 4
__Count$ = -44						; size = 4
$T2 = -40						; size = 4
__First$ = -36						; size = 4
__Last$ = -32						; size = 4
$T3 = -28						; size = 4
$T4 = -24						; size = 4
__Myend$ = -20						; size = 4
__Mylast$ = -16						; size = 4
_this$ = -12						; size = 4
__My_data$ = -8						; size = 4
__Myfirst$ = -4						; size = 4
?_Tidy@?$vector@PAVCTextureAnimationCWDecorator@NEffectUpdateDecorator@@V?$allocator@PAVCTextureAnimationCWDecorator@NEffectUpdateDecorator@@@std@@@std@@AAEXXZ PROC ; std::vector<NEffectUpdateDecorator::CTextureAnimationCWDecorator *,std::allocator<NEffectUpdateDecorator::CTextureAnimationCWDecorator *> >::_Tidy, COMDAT
; _this$ = ecx

; 1686 :     void _Tidy() noexcept { // free all storage

  00000	55		 push	 ebp
  00001	8b ec		 mov	 ebp, esp
  00003	83 ec 34	 sub	 esp, 52			; 00000034H
  00006	89 4d f4	 mov	 DWORD PTR _this$[ebp], ecx

; 1687 :         auto& _My_data    = _Mypair._Myval2;

  00009	8b 45 f4	 mov	 eax, DWORD PTR _this$[ebp]
  0000c	89 45 f8	 mov	 DWORD PTR __My_data$[ebp], eax

; 1688 :         pointer& _Myfirst = _My_data._Myfirst;

  0000f	8b 45 f8	 mov	 eax, DWORD PTR __My_data$[ebp]
  00012	89 45 fc	 mov	 DWORD PTR __Myfirst$[ebp], eax

; 1689 :         pointer& _Mylast  = _My_data._Mylast;

  00015	8b 45 f8	 mov	 eax, DWORD PTR __My_data$[ebp]
  00018	83 c0 04	 add	 eax, 4
  0001b	89 45 f0	 mov	 DWORD PTR __Mylast$[ebp], eax

; 1690 :         pointer& _Myend   = _My_data._Myend;

  0001e	8b 45 f8	 mov	 eax, DWORD PTR __My_data$[ebp]
  00021	83 c0 08	 add	 eax, 8
  00024	89 45 ec	 mov	 DWORD PTR __Myend$[ebp], eax

; 1691 : 
; 1692 :         _My_data._Orphan_all();
; 1693 : 
; 1694 :         if (_Myfirst) { // destroy and deallocate old array

  00027	8b 45 fc	 mov	 eax, DWORD PTR __Myfirst$[ebp]
  0002a	83 38 00	 cmp	 DWORD PTR [eax], 0
  0002d	74 74		 je	 SHORT $LN3@Tidy

; 1695 :             _Destroy(_Myfirst, _Mylast);

  0002f	8b 45 f0	 mov	 eax, DWORD PTR __Mylast$[ebp]
  00032	8b 00		 mov	 eax, DWORD PTR [eax]
  00034	89 45 e0	 mov	 DWORD PTR __Last$[ebp], eax
  00037	8b 45 fc	 mov	 eax, DWORD PTR __Myfirst$[ebp]
  0003a	8b 00		 mov	 eax, DWORD PTR [eax]
  0003c	89 45 dc	 mov	 DWORD PTR __First$[ebp], eax

; 1733 :         return _Mypair._Get_first();

  0003f	8b 45 f4	 mov	 eax, DWORD PTR _this$[ebp]
; File C:\Program Files (x86)\Microsoft Visual Studio\2019\Community\VC\Tools\MSVC\14.28.29333\include\xmemory

; 1347 :         return *this;

  00042	89 45 e8	 mov	 DWORD PTR $T4[ebp], eax
; File C:\Program Files (x86)\Microsoft Visual Studio\2019\Community\VC\Tools\MSVC\14.28.29333\include\vector

; 1733 :         return _Mypair._Get_first();

  00045	8b 45 e8	 mov	 eax, DWORD PTR $T4[ebp]
  00048	89 45 e4	 mov	 DWORD PTR $T3[ebp], eax

; 1612 :         _Destroy_range(_First, _Last, _Getal());

  0004b	ff 75 e4	 push	 DWORD PTR $T3[ebp]
  0004e	ff 75 e0	 push	 DWORD PTR __Last$[ebp]
  00051	ff 75 dc	 push	 DWORD PTR __First$[ebp]
  00054	e8 00 00 00 00	 call	 ??$_Destroy_range@V?$allocator@PAVCTextureAnimationCWDecorator@NEffectUpdateDecorator@@@std@@@std@@YAXPAPAVCTextureAnimationCWDecorator@NEffectUpdateDecorator@@QAPAV12@AAV?$allocator@PAVCTextureAnimationCWDecorator@NEffectUpdateDecorator@@@0@@Z ; std::_Destroy_range<std::allocator<NEffectUpdateDecorator::CTextureAnimationCWDecorator *> >
  00059	83 c4 0c	 add	 esp, 12			; 0000000cH

; 1733 :         return _Mypair._Get_first();

  0005c	8b 45 f4	 mov	 eax, DWORD PTR _this$[ebp]
; File C:\Program Files (x86)\Microsoft Visual Studio\2019\Community\VC\Tools\MSVC\14.28.29333\include\xmemory

; 1347 :         return *this;

  0005f	89 45 d8	 mov	 DWORD PTR $T2[ebp], eax
; File C:\Program Files (x86)\Microsoft Visual Studio\2019\Community\VC\Tools\MSVC\14.28.29333\include\vector

; 1733 :         return _Mypair._Get_first();

  00062	8b 45 d8	 mov	 eax, DWORD PTR $T2[ebp]
  00065	89 45 cc	 mov	 DWORD PTR $T1[ebp], eax

; 1696 :             _Getal().deallocate(_Myfirst, static_cast<size_type>(_Myend - _Myfirst));

  00068	8b 45 ec	 mov	 eax, DWORD PTR __Myend$[ebp]
  0006b	8b 4d fc	 mov	 ecx, DWORD PTR __Myfirst$[ebp]
  0006e	8b 00		 mov	 eax, DWORD PTR [eax]
  00070	2b 01		 sub	 eax, DWORD PTR [ecx]
  00072	c1 f8 02	 sar	 eax, 2
  00075	89 45 d4	 mov	 DWORD PTR __Count$[ebp], eax
  00078	8b 45 fc	 mov	 eax, DWORD PTR __Myfirst$[ebp]
  0007b	8b 00		 mov	 eax, DWORD PTR [eax]
  0007d	89 45 d0	 mov	 DWORD PTR __Ptr$[ebp], eax
; File C:\Program Files (x86)\Microsoft Visual Studio\2019\Community\VC\Tools\MSVC\14.28.29333\include\xmemory

; 810  :         _Deallocate<_New_alignof<_Ty>>(_Ptr, sizeof(_Ty) * _Count);

  00080	8b 45 d4	 mov	 eax, DWORD PTR __Count$[ebp]
  00083	c1 e0 02	 shl	 eax, 2
  00086	50		 push	 eax
  00087	ff 75 d0	 push	 DWORD PTR __Ptr$[ebp]
  0008a	e8 00 00 00 00	 call	 ??$_Deallocate@$07$0A@@std@@YAXPAXI@Z ; std::_Deallocate<8,0>
  0008f	59		 pop	 ecx
  00090	59		 pop	 ecx
; File C:\Program Files (x86)\Microsoft Visual Studio\2019\Community\VC\Tools\MSVC\14.28.29333\include\vector

; 1698 :             _Myfirst = pointer();

  00091	8b 45 fc	 mov	 eax, DWORD PTR __Myfirst$[ebp]
  00094	83 20 00	 and	 DWORD PTR [eax], 0

; 1699 :             _Mylast  = pointer();

  00097	8b 45 f0	 mov	 eax, DWORD PTR __Mylast$[ebp]
  0009a	83 20 00	 and	 DWORD PTR [eax], 0

; 1700 :             _Myend   = pointer();

  0009d	8b 45 ec	 mov	 eax, DWORD PTR __Myend$[ebp]
  000a0	83 20 00	 and	 DWORD PTR [eax], 0
$LN3@Tidy:

; 1701 :         }
; 1702 :     }

  000a3	c9		 leave
  000a4	c3		 ret	 0
?_Tidy@?$vector@PAVCTextureAnimationCWDecorator@NEffectUpdateDecorator@@V?$allocator@PAVCTextureAnimationCWDecorator@NEffectUpdateDecorator@@@std@@@std@@AAEXXZ ENDP ; std::vector<NEffectUpdateDecorator::CTextureAnimationCWDecorator *,std::allocator<NEffectUpdateDecorator::CTextureAnimationCWDecorator *> >::_Tidy
_TEXT	ENDS
; Function compile flags: /Odspy
; File C:\Program Files (x86)\Microsoft Visual Studio\2019\Community\VC\Tools\MSVC\14.28.29333\include\vector
; File C:\Program Files (x86)\Microsoft Visual Studio\2019\Community\VC\Tools\MSVC\14.28.29333\include\xmemory
; File C:\Program Files (x86)\Microsoft Visual Studio\2019\Community\VC\Tools\MSVC\14.28.29333\include\vector
;	COMDAT ?clear@?$vector@PAVCTextureAnimationCWDecorator@NEffectUpdateDecorator@@V?$allocator@PAVCTextureAnimationCWDecorator@NEffectUpdateDecorator@@@std@@@std@@QAEXXZ
_TEXT	SEGMENT
__First$ = -32						; size = 4
__Last$ = -28						; size = 4
$T1 = -24						; size = 4
$T2 = -20						; size = 4
__Myfirst$ = -16					; size = 4
__Mylast$ = -12						; size = 4
_this$ = -8						; size = 4
__My_data$ = -4						; size = 4
?clear@?$vector@PAVCTextureAnimationCWDecorator@NEffectUpdateDecorator@@V?$allocator@PAVCTextureAnimationCWDecorator@NEffectUpdateDecorator@@@std@@@std@@QAEXXZ PROC ; std::vector<NEffectUpdateDecorator::CTextureAnimationCWDecorator *,std::allocator<NEffectUpdateDecorator::CTextureAnimationCWDecorator *> >::clear, COMDAT
; _this$ = ecx

; 1383 :     void clear() noexcept { // erase all

  00000	55		 push	 ebp
  00001	8b ec		 mov	 ebp, esp
  00003	83 ec 20	 sub	 esp, 32			; 00000020H
  00006	89 4d f8	 mov	 DWORD PTR _this$[ebp], ecx

; 1384 :         auto& _My_data    = _Mypair._Myval2;

  00009	8b 45 f8	 mov	 eax, DWORD PTR _this$[ebp]
  0000c	89 45 fc	 mov	 DWORD PTR __My_data$[ebp], eax

; 1385 :         pointer& _Myfirst = _My_data._Myfirst;

  0000f	8b 45 fc	 mov	 eax, DWORD PTR __My_data$[ebp]
  00012	89 45 f0	 mov	 DWORD PTR __Myfirst$[ebp], eax

; 1386 :         pointer& _Mylast  = _My_data._Mylast;

  00015	8b 45 fc	 mov	 eax, DWORD PTR __My_data$[ebp]
  00018	83 c0 04	 add	 eax, 4
  0001b	89 45 f4	 mov	 DWORD PTR __Mylast$[ebp], eax

; 1387 : 
; 1388 :         _My_data._Orphan_all();
; 1389 :         _Destroy(_Myfirst, _Mylast);

  0001e	8b 45 f4	 mov	 eax, DWORD PTR __Mylast$[ebp]
  00021	8b 00		 mov	 eax, DWORD PTR [eax]
  00023	89 45 e4	 mov	 DWORD PTR __Last$[ebp], eax
  00026	8b 45 f0	 mov	 eax, DWORD PTR __Myfirst$[ebp]
  00029	8b 00		 mov	 eax, DWORD PTR [eax]
  0002b	89 45 e0	 mov	 DWORD PTR __First$[ebp], eax

; 1733 :         return _Mypair._Get_first();

  0002e	8b 45 f8	 mov	 eax, DWORD PTR _this$[ebp]
; File C:\Program Files (x86)\Microsoft Visual Studio\2019\Community\VC\Tools\MSVC\14.28.29333\include\xmemory

; 1347 :         return *this;

  00031	89 45 ec	 mov	 DWORD PTR $T2[ebp], eax
; File C:\Program Files (x86)\Microsoft Visual Studio\2019\Community\VC\Tools\MSVC\14.28.29333\include\vector

; 1733 :         return _Mypair._Get_first();

  00034	8b 45 ec	 mov	 eax, DWORD PTR $T2[ebp]
  00037	89 45 e8	 mov	 DWORD PTR $T1[ebp], eax

; 1612 :         _Destroy_range(_First, _Last, _Getal());

  0003a	ff 75 e8	 push	 DWORD PTR $T1[ebp]
  0003d	ff 75 e4	 push	 DWORD PTR __Last$[ebp]
  00040	ff 75 e0	 push	 DWORD PTR __First$[ebp]
  00043	e8 00 00 00 00	 call	 ??$_Destroy_range@V?$allocator@PAVCTextureAnimationCWDecorator@NEffectUpdateDecorator@@@std@@@std@@YAXPAPAVCTextureAnimationCWDecorator@NEffectUpdateDecorator@@QAPAV12@AAV?$allocator@PAVCTextureAnimationCWDecorator@NEffectUpdateDecorator@@@0@@Z ; std::_Destroy_range<std::allocator<NEffectUpdateDecorator::CTextureAnimationCWDecorator *> >
  00048	83 c4 0c	 add	 esp, 12			; 0000000cH

; 1390 :         _Mylast = _Myfirst;

  0004b	8b 45 f4	 mov	 eax, DWORD PTR __Mylast$[ebp]
  0004e	8b 4d f0	 mov	 ecx, DWORD PTR __Myfirst$[ebp]
  00051	8b 09		 mov	 ecx, DWORD PTR [ecx]
  00053	89 08		 mov	 DWORD PTR [eax], ecx

; 1391 :     }

  00055	c9		 leave
  00056	c3		 ret	 0
?clear@?$vector@PAVCTextureAnimationCWDecorator@NEffectUpdateDecorator@@V?$allocator@PAVCTextureAnimationCWDecorator@NEffectUpdateDecorator@@@std@@@std@@QAEXXZ ENDP ; std::vector<NEffectUpdateDecorator::CTextureAnimationCWDecorator *,std::allocator<NEffectUpdateDecorator::CTextureAnimationCWDecorator *> >::clear
_TEXT	ENDS
; Function compile flags: /Odspy
; File D:\Metin2 Server Files\mainline\SRC_2014\Metin2Client\eterLib\Pool.h
;	COMDAT ?Delete@?$CDynamicPoolEx@VCTextureAnimationCWDecorator@NEffectUpdateDecorator@@@@KAXPAVCTextureAnimationCWDecorator@NEffectUpdateDecorator@@@Z
_TEXT	SEGMENT
_pkData$ = 8						; size = 4
?Delete@?$CDynamicPoolEx@VCTextureAnimationCWDecorator@NEffectUpdateDecorator@@@@KAXPAVCTextureAnimationCWDecorator@NEffectUpdateDecorator@@@Z PROC ; CDynamicPoolEx<NEffectUpdateDecorator::CTextureAnimationCWDecorator>::Delete, COMDAT

; 223  : 		{

  00000	55		 push	 ebp
  00001	8b ec		 mov	 ebp, esp

; 224  : 			::operator delete(pkData);

  00003	ff 75 08	 push	 DWORD PTR _pkData$[ebp]
  00006	e8 00 00 00 00	 call	 ??3@YAXPAX@Z		; operator delete
  0000b	59		 pop	 ecx

; 225  : 		}

  0000c	5d		 pop	 ebp
  0000d	c3		 ret	 0
?Delete@?$CDynamicPoolEx@VCTextureAnimationCWDecorator@NEffectUpdateDecorator@@@@KAXPAVCTextureAnimationCWDecorator@NEffectUpdateDecorator@@@Z ENDP ; CDynamicPoolEx<NEffectUpdateDecorator::CTextureAnimationCWDecorator>::Delete
_TEXT	ENDS
; Function compile flags: /Odspy
; File D:\Metin2 Server Files\mainline\SRC_2014\Metin2Client\eterLib\Pool.h
; File C:\Program Files (x86)\Microsoft Visual Studio\2019\Community\VC\Tools\MSVC\14.28.29333\include\vector
; File C:\Program Files (x86)\Microsoft Visual Studio\2019\Community\VC\Tools\MSVC\14.28.29333\include\xstddef
; File C:\Program Files (x86)\Microsoft Visual Studio\2019\Community\VC\Tools\MSVC\14.28.29333\include\vector
; File C:\Program Files (x86)\Microsoft Visual Studio\2019\Community\VC\Tools\MSVC\14.28.29333\include\xstddef
; File C:\Program Files (x86)\Microsoft Visual Studio\2019\Community\VC\Tools\MSVC\14.28.29333\include\vector
; File D:\Metin2 Server Files\mainline\SRC_2014\Metin2Client\eterLib\Pool.h
;	COMDAT ?Destroy@?$CDynamicPoolEx@VCTextureAnimationCWDecorator@NEffectUpdateDecorator@@@@QAEXXZ
_TEXT	SEGMENT
$T1 = -44						; size = 4
$T2 = -40						; size = 4
$T3 = -36						; size = 4
$T4 = -32						; size = 4
$T5 = -28						; size = 4
___param0$ = -24					; size = 4
$T6 = -20						; size = 4
___param0$ = -16					; size = 4
__My_data$7 = -12					; size = 4
__My_data$8 = -8					; size = 4
_this$ = -4						; size = 4
?Destroy@?$CDynamicPoolEx@VCTextureAnimationCWDecorator@NEffectUpdateDecorator@@@@QAEXXZ PROC ; CDynamicPoolEx<NEffectUpdateDecorator::CTextureAnimationCWDecorator>::Destroy, COMDAT
; _this$ = ecx

; 150  : 		{

  00000	55		 push	 ebp
  00001	8b ec		 mov	 ebp, esp
  00003	83 ec 2c	 sub	 esp, 44			; 0000002cH
  00006	89 4d fc	 mov	 DWORD PTR _this$[ebp], ecx
; File C:\Program Files (x86)\Microsoft Visual Studio\2019\Community\VC\Tools\MSVC\14.28.29333\include\vector

; 1420 :         auto& _My_data = _Mypair._Myval2;

  00009	8b 45 fc	 mov	 eax, DWORD PTR _this$[ebp]
  0000c	83 c0 04	 add	 eax, 4
  0000f	89 45 f8	 mov	 DWORD PTR __My_data$8[ebp], eax
; File C:\Program Files (x86)\Microsoft Visual Studio\2019\Community\VC\Tools\MSVC\14.28.29333\include\xstddef

; 275  :     return __builtin_addressof(_Val);

  00012	8b 45 f8	 mov	 eax, DWORD PTR __My_data$8[ebp]
  00015	89 45 d8	 mov	 DWORD PTR $T2[ebp], eax
; File C:\Program Files (x86)\Microsoft Visual Studio\2019\Community\VC\Tools\MSVC\14.28.29333\include\vector

; 1421 :         return iterator(_My_data._Mylast, _STD addressof(_My_data));

  00018	8b 45 f8	 mov	 eax, DWORD PTR __My_data$8[ebp]
  0001b	8b 40 04	 mov	 eax, DWORD PTR [eax+4]
  0001e	89 45 f0	 mov	 DWORD PTR ___param0$[ebp], eax

; 42   :     _Vector_const_iterator(_Tptr _Parg, const _Container_base* _Pvector) noexcept : _Ptr(_Parg) {

  00021	8b 45 f0	 mov	 eax, DWORD PTR ___param0$[ebp]
  00024	89 45 ec	 mov	 DWORD PTR $T6[ebp], eax

; 1421 :         return iterator(_My_data._Mylast, _STD addressof(_My_data));

  00027	8d 45 ec	 lea	 eax, DWORD PTR $T6[ebp]
  0002a	89 45 e0	 mov	 DWORD PTR $T4[ebp], eax

; 1410 :         auto& _My_data = _Mypair._Myval2;

  0002d	8b 45 fc	 mov	 eax, DWORD PTR _this$[ebp]
  00030	83 c0 04	 add	 eax, 4
  00033	89 45 f4	 mov	 DWORD PTR __My_data$7[ebp], eax
; File C:\Program Files (x86)\Microsoft Visual Studio\2019\Community\VC\Tools\MSVC\14.28.29333\include\xstddef

; 275  :     return __builtin_addressof(_Val);

  00036	8b 45 f4	 mov	 eax, DWORD PTR __My_data$7[ebp]
  00039	89 45 d4	 mov	 DWORD PTR $T1[ebp], eax
; File C:\Program Files (x86)\Microsoft Visual Studio\2019\Community\VC\Tools\MSVC\14.28.29333\include\vector

; 1411 :         return iterator(_My_data._Myfirst, _STD addressof(_My_data));

  0003c	8b 45 f4	 mov	 eax, DWORD PTR __My_data$7[ebp]
  0003f	8b 00		 mov	 eax, DWORD PTR [eax]
  00041	89 45 e8	 mov	 DWORD PTR ___param0$[ebp], eax

; 42   :     _Vector_const_iterator(_Tptr _Parg, const _Container_base* _Pvector) noexcept : _Ptr(_Parg) {

  00044	8b 45 e8	 mov	 eax, DWORD PTR ___param0$[ebp]
  00047	89 45 e4	 mov	 DWORD PTR $T5[ebp], eax

; 1411 :         return iterator(_My_data._Myfirst, _STD addressof(_My_data));

  0004a	8d 45 e4	 lea	 eax, DWORD PTR $T5[ebp]
  0004d	89 45 dc	 mov	 DWORD PTR $T3[ebp], eax
; File D:\Metin2 Server Files\mainline\SRC_2014\Metin2Client\eterLib\Pool.h

; 160  : 			std::for_each(m_kVct_pkData.begin(), m_kVct_pkData.end(), Delete);

  00050	68 00 00 00 00	 push	 OFFSET ?Delete@?$CDynamicPoolEx@VCTextureAnimationCWDecorator@NEffectUpdateDecorator@@@@KAXPAVCTextureAnimationCWDecorator@NEffectUpdateDecorator@@@Z ; CDynamicPoolEx<NEffectUpdateDecorator::CTextureAnimationCWDecorator>::Delete
  00055	8b 45 e0	 mov	 eax, DWORD PTR $T4[ebp]
  00058	ff 30		 push	 DWORD PTR [eax]
  0005a	8b 45 dc	 mov	 eax, DWORD PTR $T3[ebp]
  0005d	ff 30		 push	 DWORD PTR [eax]
  0005f	e8 00 00 00 00	 call	 ??$for_each@V?$_Vector_iterator@V?$_Vector_val@U?$_Simple_types@PAVCTextureAnimationCWDecorator@NEffectUpdateDecorator@@@std@@@std@@@std@@P6AXPAVCTextureAnimationCWDecorator@NEffectUpdateDecorator@@@Z@std@@YAP6AXPAVCTextureAnimationCWDecorator@NEffectUpdateDecorator@@@ZV?$_Vector_iterator@V?$_Vector_val@U?$_Simple_types@PAVCTextureAnimationCWDecorator@NEffectUpdateDecorator@@@std@@@std@@@0@1P6AX0@Z@Z ; std::for_each<std::_Vector_iterator<std::_Vector_val<std::_Simple_types<NEffectUpdateDecorator::CTextureAnimationCWDecorator *> > >,void (__cdecl*)(NEffectUpdateDecorator::CTextureAnimationCWDecorator *)>
  00064	83 c4 0c	 add	 esp, 12			; 0000000cH

; 161  : 			m_kVct_pkData.clear();

  00067	8b 4d fc	 mov	 ecx, DWORD PTR _this$[ebp]
  0006a	83 c1 04	 add	 ecx, 4
  0006d	e8 00 00 00 00	 call	 ?clear@?$vector@PAVCTextureAnimationCWDecorator@NEffectUpdateDecorator@@V?$allocator@PAVCTextureAnimationCWDecorator@NEffectUpdateDecorator@@@std@@@std@@QAEXXZ ; std::vector<NEffectUpdateDecorator::CTextureAnimationCWDecorator *,std::allocator<NEffectUpdateDecorator::CTextureAnimationCWDecorator *> >::clear

; 162  : 			m_kVct_pkFree.clear();

  00072	8b 4d fc	 mov	 ecx, DWORD PTR _this$[ebp]
  00075	83 c1 10	 add	 ecx, 16			; 00000010H
  00078	e8 00 00 00 00	 call	 ?clear@?$vector@PAVCTextureAnimationCWDecorator@NEffectUpdateDecorator@@V?$allocator@PAVCTextureAnimationCWDecorator@NEffectUpdateDecorator@@@std@@@std@@QAEXXZ ; std::vector<NEffectUpdateDecorator::CTextureAnimationCWDecorator *,std::allocator<NEffectUpdateDecorator::CTextureAnimationCWDecorator *> >::clear

; 163  : 		}

  0007d	c9		 leave
  0007e	c3		 ret	 0
?Destroy@?$CDynamicPoolEx@VCTextureAnimationCWDecorator@NEffectUpdateDecorator@@@@QAEXXZ ENDP ; CDynamicPoolEx<NEffectUpdateDecorator::CTextureAnimationCWDecorator>::Destroy
_TEXT	ENDS
; Function compile flags: /Odspy
; File D:\Metin2 Server Files\mainline\SRC_2014\Metin2Client\eterLib\Pool.h
; File C:\Program Files (x86)\Microsoft Visual Studio\2019\Community\VC\Tools\MSVC\14.28.29333\include\vector
; File D:\Metin2 Server Files\mainline\SRC_2014\Metin2Client\eterLib\Pool.h
; File C:\Program Files (x86)\Microsoft Visual Studio\2019\Community\VC\Tools\MSVC\14.28.29333\include\vector
; File D:\Metin2 Server Files\mainline\SRC_2014\Metin2Client\eterLib\Pool.h
;	COMDAT ??1?$CDynamicPoolEx@VCTextureAnimationCWDecorator@NEffectUpdateDecorator@@@@UAE@XZ
_TEXT	SEGMENT
_this$ = -16						; size = 4
__$EHRec$ = -12						; size = 12
??1?$CDynamicPoolEx@VCTextureAnimationCWDecorator@NEffectUpdateDecorator@@@@UAE@XZ PROC ; CDynamicPoolEx<NEffectUpdateDecorator::CTextureAnimationCWDecorator>::~CDynamicPoolEx<NEffectUpdateDecorator::CTextureAnimationCWDecorator>, COMDAT
; _this$ = ecx

; 132  : 		{

  00000	55		 push	 ebp
  00001	8b ec		 mov	 ebp, esp
  00003	6a ff		 push	 -1
  00005	68 00 00 00 00	 push	 __ehhandler$??1?$CDynamicPoolEx@VCTextureAnimationCWDecorator@NEffectUpdateDecorator@@@@UAE@XZ
  0000a	64 a1 00 00 00
	00		 mov	 eax, DWORD PTR fs:0
  00010	50		 push	 eax
  00011	51		 push	 ecx
  00012	a1 00 00 00 00	 mov	 eax, DWORD PTR ___security_cookie
  00017	33 c5		 xor	 eax, ebp
  00019	50		 push	 eax
  0001a	8d 45 f4	 lea	 eax, DWORD PTR __$EHRec$[ebp]
  0001d	64 a3 00 00 00
	00		 mov	 DWORD PTR fs:0, eax
  00023	89 4d f0	 mov	 DWORD PTR _this$[ebp], ecx
  00026	8b 45 f0	 mov	 eax, DWORD PTR _this$[ebp]
  00029	c7 00 00 00 00
	00		 mov	 DWORD PTR [eax], OFFSET ??_7?$CDynamicPoolEx@VCTextureAnimationCWDecorator@NEffectUpdateDecorator@@@@6B@

; 133  : 			assert(m_kVct_pkFree.size()==m_kVct_pkData.size());
; 134  : 			Destroy();

  0002f	8b 4d f0	 mov	 ecx, DWORD PTR _this$[ebp]
  00032	e8 00 00 00 00	 call	 ?Destroy@?$CDynamicPoolEx@VCTextureAnimationCWDecorator@NEffectUpdateDecorator@@@@QAEXXZ ; CDynamicPoolEx<NEffectUpdateDecorator::CTextureAnimationCWDecorator>::Destroy

; 142  : 		}

  00037	8b 4d f0	 mov	 ecx, DWORD PTR _this$[ebp]
  0003a	83 c1 10	 add	 ecx, 16			; 00000010H
; File C:\Program Files (x86)\Microsoft Visual Studio\2019\Community\VC\Tools\MSVC\14.28.29333\include\vector

; 673  :         _Tidy();

  0003d	e8 00 00 00 00	 call	 ?_Tidy@?$vector@PAVCTextureAnimationCWDecorator@NEffectUpdateDecorator@@V?$allocator@PAVCTextureAnimationCWDecorator@NEffectUpdateDecorator@@@std@@@std@@AAEXXZ ; std::vector<NEffectUpdateDecorator::CTextureAnimationCWDecorator *,std::allocator<NEffectUpdateDecorator::CTextureAnimationCWDecorator *> >::_Tidy
; File D:\Metin2 Server Files\mainline\SRC_2014\Metin2Client\eterLib\Pool.h

; 142  : 		}

  00042	8b 4d f0	 mov	 ecx, DWORD PTR _this$[ebp]
  00045	83 c1 04	 add	 ecx, 4
; File C:\Program Files (x86)\Microsoft Visual Studio\2019\Community\VC\Tools\MSVC\14.28.29333\include\vector

; 673  :         _Tidy();

  00048	e8 00 00 00 00	 call	 ?_Tidy@?$vector@PAVCTextureAnimationCWDecorator@NEffectUpdateDecorator@@V?$allocator@PAVCTextureAnimationCWDecorator@NEffectUpdateDecorator@@@std@@@std@@AAEXXZ ; std::vector<NEffectUpdateDecorator::CTextureAnimationCWDecorator *,std::allocator<NEffectUpdateDecorator::CTextureAnimationCWDecorator *> >::_Tidy
; File D:\Metin2 Server Files\mainline\SRC_2014\Metin2Client\eterLib\Pool.h

; 142  : 		}

  0004d	8b 4d f4	 mov	 ecx, DWORD PTR __$EHRec$[ebp]
  00050	64 89 0d 00 00
	00 00		 mov	 DWORD PTR fs:0, ecx
  00057	59		 pop	 ecx
  00058	c9		 leave
  00059	c3		 ret	 0
  0005a	cc		 int	 3
  0005b	cc		 int	 3
  0005c	cc		 int	 3
  0005d	cc		 int	 3
  0005e	cc		 int	 3
_TEXT	ENDS
;	COMDAT text$x
text$x	SEGMENT
__ehhandler$??1?$CDynamicPoolEx@VCTextureAnimationCWDecorator@NEffectUpdateDecorator@@@@UAE@XZ:
  00000	90		 npad	 1
  00001	90		 npad	 1
  00002	8b 54 24 08	 mov	 edx, DWORD PTR [esp+8]
  00006	8d 42 0c	 lea	 eax, DWORD PTR [edx+12]
  00009	8b 4a f8	 mov	 ecx, DWORD PTR [edx-8]
  0000c	33 c8		 xor	 ecx, eax
  0000e	e8 00 00 00 00	 call	 @__security_check_cookie@4
  00013	b8 00 00 00 00	 mov	 eax, OFFSET __ehfuncinfo$??1?$CDynamicPoolEx@VCTextureAnimationCWDecorator@NEffectUpdateDecorator@@@@UAE@XZ
  00018	e9 00 00 00 00	 jmp	 ___CxxFrameHandler3
text$x	ENDS
??1?$CDynamicPoolEx@VCTextureAnimationCWDecorator@NEffectUpdateDecorator@@@@UAE@XZ ENDP ; CDynamicPoolEx<NEffectUpdateDecorator::CTextureAnimationCWDecorator>::~CDynamicPoolEx<NEffectUpdateDecorator::CTextureAnimationCWDecorator>
; Function compile flags: /Odspy
; File D:\Metin2 Server Files\mainline\SRC_2014\Metin2Client\eterLib\Pool.h
; File C:\Program Files (x86)\Microsoft Visual Studio\2019\Community\VC\Tools\MSVC\14.28.29333\include\vector
; File C:\Program Files (x86)\Microsoft Visual Studio\2019\Community\VC\Tools\MSVC\14.28.29333\include\xmemory
; File C:\Program Files (x86)\Microsoft Visual Studio\2019\Community\VC\Tools\MSVC\14.28.29333\include\vector
; File D:\Metin2 Server Files\mainline\SRC_2014\Metin2Client\eterLib\Pool.h
; File C:\Program Files (x86)\Microsoft Visual Studio\2019\Community\VC\Tools\MSVC\14.28.29333\include\vector
; File C:\Program Files (x86)\Microsoft Visual Studio\2019\Community\VC\Tools\MSVC\14.28.29333\include\xmemory
; File C:\Program Files (x86)\Microsoft Visual Studio\2019\Community\VC\Tools\MSVC\14.28.29333\include\vector
; File D:\Metin2 Server Files\mainline\SRC_2014\Metin2Client\eterLib\Pool.h
;	COMDAT ??0?$CDynamicPoolEx@VCTextureAnimationCWDecorator@NEffectUpdateDecorator@@@@QAE@XZ
_TEXT	SEGMENT
_this$ = -28						; size = 4
_this$ = -24						; size = 4
_this$ = -20						; size = 4
_this$ = -16						; size = 4
_this$1 = -12						; size = 4
_this$2 = -8						; size = 4
_this$ = -4						; size = 4
??0?$CDynamicPoolEx@VCTextureAnimationCWDecorator@NEffectUpdateDecorator@@@@QAE@XZ PROC ; CDynamicPoolEx<NEffectUpdateDecorator::CTextureAnimationCWDecorator>::CDynamicPoolEx<NEffectUpdateDecorator::CTextureAnimationCWDecorator>, COMDAT
; _this$ = ecx

; 126  : 		CDynamicPoolEx()

  00000	55		 push	 ebp
  00001	8b ec		 mov	 ebp, esp
  00003	83 ec 1c	 sub	 esp, 28			; 0000001cH
  00006	89 4d fc	 mov	 DWORD PTR _this$[ebp], ecx

; 127  : 		{

  00009	8b 45 fc	 mov	 eax, DWORD PTR _this$[ebp]
  0000c	c7 00 00 00 00
	00		 mov	 DWORD PTR [eax], OFFSET ??_7?$CDynamicPoolEx@VCTextureAnimationCWDecorator@NEffectUpdateDecorator@@@@6B@
  00012	8b 45 fc	 mov	 eax, DWORD PTR _this$[ebp]
  00015	83 c0 04	 add	 eax, 4
  00018	89 45 f0	 mov	 DWORD PTR _this$[ebp], eax
; File C:\Program Files (x86)\Microsoft Visual Studio\2019\Community\VC\Tools\MSVC\14.28.29333\include\vector

; 445  :     vector() noexcept(is_nothrow_default_constructible_v<_Alty>) : _Mypair(_Zero_then_variadic_args_t{}) {

  0001b	8b 45 f0	 mov	 eax, DWORD PTR _this$[ebp]
  0001e	89 45 ec	 mov	 DWORD PTR _this$[ebp], eax
; File C:\Program Files (x86)\Microsoft Visual Studio\2019\Community\VC\Tools\MSVC\14.28.29333\include\xmemory

; 1339 :         : _Ty1(), _Myval2(_STD forward<_Other2>(_Val2)...) {}

  00021	8b 45 ec	 mov	 eax, DWORD PTR _this$[ebp]
  00024	89 45 f8	 mov	 DWORD PTR _this$2[ebp], eax
; File C:\Program Files (x86)\Microsoft Visual Studio\2019\Community\VC\Tools\MSVC\14.28.29333\include\vector

; 375  :     _Vector_val() noexcept : _Myfirst(), _Mylast(), _Myend() {}

  00027	8b 45 f8	 mov	 eax, DWORD PTR _this$2[ebp]
  0002a	83 20 00	 and	 DWORD PTR [eax], 0
  0002d	8b 45 f8	 mov	 eax, DWORD PTR _this$2[ebp]
  00030	83 60 04 00	 and	 DWORD PTR [eax+4], 0
  00034	8b 45 f8	 mov	 eax, DWORD PTR _this$2[ebp]
  00037	83 60 08 00	 and	 DWORD PTR [eax+8], 0
; File D:\Metin2 Server Files\mainline\SRC_2014\Metin2Client\eterLib\Pool.h

; 127  : 		{

  0003b	8b 45 fc	 mov	 eax, DWORD PTR _this$[ebp]
  0003e	83 c0 10	 add	 eax, 16			; 00000010H
  00041	89 45 e8	 mov	 DWORD PTR _this$[ebp], eax
; File C:\Program Files (x86)\Microsoft Visual Studio\2019\Community\VC\Tools\MSVC\14.28.29333\include\vector

; 445  :     vector() noexcept(is_nothrow_default_constructible_v<_Alty>) : _Mypair(_Zero_then_variadic_args_t{}) {

  00044	8b 45 e8	 mov	 eax, DWORD PTR _this$[ebp]
  00047	89 45 e4	 mov	 DWORD PTR _this$[ebp], eax
; File C:\Program Files (x86)\Microsoft Visual Studio\2019\Community\VC\Tools\MSVC\14.28.29333\include\xmemory

; 1339 :         : _Ty1(), _Myval2(_STD forward<_Other2>(_Val2)...) {}

  0004a	8b 45 e4	 mov	 eax, DWORD PTR _this$[ebp]
  0004d	89 45 f4	 mov	 DWORD PTR _this$1[ebp], eax
; File C:\Program Files (x86)\Microsoft Visual Studio\2019\Community\VC\Tools\MSVC\14.28.29333\include\vector

; 375  :     _Vector_val() noexcept : _Myfirst(), _Mylast(), _Myend() {}

  00050	8b 45 f4	 mov	 eax, DWORD PTR _this$1[ebp]
  00053	83 20 00	 and	 DWORD PTR [eax], 0
  00056	8b 45 f4	 mov	 eax, DWORD PTR _this$1[ebp]
  00059	83 60 04 00	 and	 DWORD PTR [eax+4], 0
  0005d	8b 45 f4	 mov	 eax, DWORD PTR _this$1[ebp]
  00060	83 60 08 00	 and	 DWORD PTR [eax+8], 0
; File D:\Metin2 Server Files\mainline\SRC_2014\Metin2Client\eterLib\Pool.h

; 128  : 			m_uInitCapacity=0;

  00064	8b 45 fc	 mov	 eax, DWORD PTR _this$[ebp]
  00067	83 60 1c 00	 and	 DWORD PTR [eax+28], 0

; 129  : 			m_uUsedCapacity=0;

  0006b	8b 45 fc	 mov	 eax, DWORD PTR _this$[ebp]
  0006e	83 60 20 00	 and	 DWORD PTR [eax+32], 0

; 130  : 		}

  00072	8b 45 fc	 mov	 eax, DWORD PTR _this$[ebp]
  00075	c9		 leave
  00076	c3		 ret	 0
??0?$CDynamicPoolEx@VCTextureAnimationCWDecorator@NEffectUpdateDecorator@@@@QAE@XZ ENDP ; CDynamicPoolEx<NEffectUpdateDecorator::CTextureAnimationCWDecorator>::CDynamicPoolEx<NEffectUpdateDecorator::CTextureAnimationCWDecorator>
_TEXT	ENDS
; Function compile flags: /Odspy
;	COMDAT ??_G?$CDynamicPoolEx@VCTextureAnimationCCWDecorator@NEffectUpdateDecorator@@@@UAEPAXI@Z
_TEXT	SEGMENT
_this$ = -4						; size = 4
___flags$ = 8						; size = 4
??_G?$CDynamicPoolEx@VCTextureAnimationCCWDecorator@NEffectUpdateDecorator@@@@UAEPAXI@Z PROC ; CDynamicPoolEx<NEffectUpdateDecorator::CTextureAnimationCCWDecorator>::`scalar deleting destructor', COMDAT
; _this$ = ecx
  00000	55		 push	 ebp
  00001	8b ec		 mov	 ebp, esp
  00003	51		 push	 ecx
  00004	89 4d fc	 mov	 DWORD PTR _this$[ebp], ecx
  00007	8b 4d fc	 mov	 ecx, DWORD PTR _this$[ebp]
  0000a	e8 00 00 00 00	 call	 ??1?$CDynamicPoolEx@VCTextureAnimationCCWDecorator@NEffectUpdateDecorator@@@@UAE@XZ ; CDynamicPoolEx<NEffectUpdateDecorator::CTextureAnimationCCWDecorator>::~CDynamicPoolEx<NEffectUpdateDecorator::CTextureAnimationCCWDecorator>
  0000f	8b 45 08	 mov	 eax, DWORD PTR ___flags$[ebp]
  00012	83 e0 01	 and	 eax, 1
  00015	74 0c		 je	 SHORT $LN2@scalar
  00017	6a 24		 push	 36			; 00000024H
  00019	ff 75 fc	 push	 DWORD PTR _this$[ebp]
  0001c	e8 00 00 00 00	 call	 ??3@YAXPAXI@Z		; operator delete
  00021	59		 pop	 ecx
  00022	59		 pop	 ecx
$LN2@scalar:
  00023	8b 45 fc	 mov	 eax, DWORD PTR _this$[ebp]
  00026	c9		 leave
  00027	c2 04 00	 ret	 4
??_G?$CDynamicPoolEx@VCTextureAnimationCCWDecorator@NEffectUpdateDecorator@@@@UAEPAXI@Z ENDP ; CDynamicPoolEx<NEffectUpdateDecorator::CTextureAnimationCCWDecorator>::`scalar deleting destructor'
_TEXT	ENDS
; Function compile flags: /Odspy
; File C:\Program Files (x86)\Microsoft Visual Studio\2019\Community\VC\Tools\MSVC\14.28.29333\include\vector
; File C:\Program Files (x86)\Microsoft Visual Studio\2019\Community\VC\Tools\MSVC\14.28.29333\include\xmemory
; File C:\Program Files (x86)\Microsoft Visual Studio\2019\Community\VC\Tools\MSVC\14.28.29333\include\vector
; File C:\Program Files (x86)\Microsoft Visual Studio\2019\Community\VC\Tools\MSVC\14.28.29333\include\xmemory
; File C:\Program Files (x86)\Microsoft Visual Studio\2019\Community\VC\Tools\MSVC\14.28.29333\include\vector
; File C:\Program Files (x86)\Microsoft Visual Studio\2019\Community\VC\Tools\MSVC\14.28.29333\include\xmemory
; File C:\Program Files (x86)\Microsoft Visual Studio\2019\Community\VC\Tools\MSVC\14.28.29333\include\vector
;	COMDAT ?_Tidy@?$vector@PAVCTextureAnimationCCWDecorator@NEffectUpdateDecorator@@V?$allocator@PAVCTextureAnimationCCWDecorator@NEffectUpdateDecorator@@@std@@@std@@AAEXXZ
_TEXT	SEGMENT
$T1 = -52						; size = 4
__Ptr$ = -48						; size = 4
__Count$ = -44						; size = 4
$T2 = -40						; size = 4
__First$ = -36						; size = 4
__Last$ = -32						; size = 4
$T3 = -28						; size = 4
$T4 = -24						; size = 4
__Myend$ = -20						; size = 4
__Mylast$ = -16						; size = 4
_this$ = -12						; size = 4
__My_data$ = -8						; size = 4
__Myfirst$ = -4						; size = 4
?_Tidy@?$vector@PAVCTextureAnimationCCWDecorator@NEffectUpdateDecorator@@V?$allocator@PAVCTextureAnimationCCWDecorator@NEffectUpdateDecorator@@@std@@@std@@AAEXXZ PROC ; std::vector<NEffectUpdateDecorator::CTextureAnimationCCWDecorator *,std::allocator<NEffectUpdateDecorator::CTextureAnimationCCWDecorator *> >::_Tidy, COMDAT
; _this$ = ecx

; 1686 :     void _Tidy() noexcept { // free all storage

  00000	55		 push	 ebp
  00001	8b ec		 mov	 ebp, esp
  00003	83 ec 34	 sub	 esp, 52			; 00000034H
  00006	89 4d f4	 mov	 DWORD PTR _this$[ebp], ecx

; 1687 :         auto& _My_data    = _Mypair._Myval2;

  00009	8b 45 f4	 mov	 eax, DWORD PTR _this$[ebp]
  0000c	89 45 f8	 mov	 DWORD PTR __My_data$[ebp], eax

; 1688 :         pointer& _Myfirst = _My_data._Myfirst;

  0000f	8b 45 f8	 mov	 eax, DWORD PTR __My_data$[ebp]
  00012	89 45 fc	 mov	 DWORD PTR __Myfirst$[ebp], eax

; 1689 :         pointer& _Mylast  = _My_data._Mylast;

  00015	8b 45 f8	 mov	 eax, DWORD PTR __My_data$[ebp]
  00018	83 c0 04	 add	 eax, 4
  0001b	89 45 f0	 mov	 DWORD PTR __Mylast$[ebp], eax

; 1690 :         pointer& _Myend   = _My_data._Myend;

  0001e	8b 45 f8	 mov	 eax, DWORD PTR __My_data$[ebp]
  00021	83 c0 08	 add	 eax, 8
  00024	89 45 ec	 mov	 DWORD PTR __Myend$[ebp], eax

; 1691 : 
; 1692 :         _My_data._Orphan_all();
; 1693 : 
; 1694 :         if (_Myfirst) { // destroy and deallocate old array

  00027	8b 45 fc	 mov	 eax, DWORD PTR __Myfirst$[ebp]
  0002a	83 38 00	 cmp	 DWORD PTR [eax], 0
  0002d	74 74		 je	 SHORT $LN3@Tidy

; 1695 :             _Destroy(_Myfirst, _Mylast);

  0002f	8b 45 f0	 mov	 eax, DWORD PTR __Mylast$[ebp]
  00032	8b 00		 mov	 eax, DWORD PTR [eax]
  00034	89 45 e0	 mov	 DWORD PTR __Last$[ebp], eax
  00037	8b 45 fc	 mov	 eax, DWORD PTR __Myfirst$[ebp]
  0003a	8b 00		 mov	 eax, DWORD PTR [eax]
  0003c	89 45 dc	 mov	 DWORD PTR __First$[ebp], eax

; 1733 :         return _Mypair._Get_first();

  0003f	8b 45 f4	 mov	 eax, DWORD PTR _this$[ebp]
; File C:\Program Files (x86)\Microsoft Visual Studio\2019\Community\VC\Tools\MSVC\14.28.29333\include\xmemory

; 1347 :         return *this;

  00042	89 45 e8	 mov	 DWORD PTR $T4[ebp], eax
; File C:\Program Files (x86)\Microsoft Visual Studio\2019\Community\VC\Tools\MSVC\14.28.29333\include\vector

; 1733 :         return _Mypair._Get_first();

  00045	8b 45 e8	 mov	 eax, DWORD PTR $T4[ebp]
  00048	89 45 e4	 mov	 DWORD PTR $T3[ebp], eax

; 1612 :         _Destroy_range(_First, _Last, _Getal());

  0004b	ff 75 e4	 push	 DWORD PTR $T3[ebp]
  0004e	ff 75 e0	 push	 DWORD PTR __Last$[ebp]
  00051	ff 75 dc	 push	 DWORD PTR __First$[ebp]
  00054	e8 00 00 00 00	 call	 ??$_Destroy_range@V?$allocator@PAVCTextureAnimationCCWDecorator@NEffectUpdateDecorator@@@std@@@std@@YAXPAPAVCTextureAnimationCCWDecorator@NEffectUpdateDecorator@@QAPAV12@AAV?$allocator@PAVCTextureAnimationCCWDecorator@NEffectUpdateDecorator@@@0@@Z ; std::_Destroy_range<std::allocator<NEffectUpdateDecorator::CTextureAnimationCCWDecorator *> >
  00059	83 c4 0c	 add	 esp, 12			; 0000000cH

; 1733 :         return _Mypair._Get_first();

  0005c	8b 45 f4	 mov	 eax, DWORD PTR _this$[ebp]
; File C:\Program Files (x86)\Microsoft Visual Studio\2019\Community\VC\Tools\MSVC\14.28.29333\include\xmemory

; 1347 :         return *this;

  0005f	89 45 d8	 mov	 DWORD PTR $T2[ebp], eax
; File C:\Program Files (x86)\Microsoft Visual Studio\2019\Community\VC\Tools\MSVC\14.28.29333\include\vector

; 1733 :         return _Mypair._Get_first();

  00062	8b 45 d8	 mov	 eax, DWORD PTR $T2[ebp]
  00065	89 45 cc	 mov	 DWORD PTR $T1[ebp], eax

; 1696 :             _Getal().deallocate(_Myfirst, static_cast<size_type>(_Myend - _Myfirst));

  00068	8b 45 ec	 mov	 eax, DWORD PTR __Myend$[ebp]
  0006b	8b 4d fc	 mov	 ecx, DWORD PTR __Myfirst$[ebp]
  0006e	8b 00		 mov	 eax, DWORD PTR [eax]
  00070	2b 01		 sub	 eax, DWORD PTR [ecx]
  00072	c1 f8 02	 sar	 eax, 2
  00075	89 45 d4	 mov	 DWORD PTR __Count$[ebp], eax
  00078	8b 45 fc	 mov	 eax, DWORD PTR __Myfirst$[ebp]
  0007b	8b 00		 mov	 eax, DWORD PTR [eax]
  0007d	89 45 d0	 mov	 DWORD PTR __Ptr$[ebp], eax
; File C:\Program Files (x86)\Microsoft Visual Studio\2019\Community\VC\Tools\MSVC\14.28.29333\include\xmemory

; 810  :         _Deallocate<_New_alignof<_Ty>>(_Ptr, sizeof(_Ty) * _Count);

  00080	8b 45 d4	 mov	 eax, DWORD PTR __Count$[ebp]
  00083	c1 e0 02	 shl	 eax, 2
  00086	50		 push	 eax
  00087	ff 75 d0	 push	 DWORD PTR __Ptr$[ebp]
  0008a	e8 00 00 00 00	 call	 ??$_Deallocate@$07$0A@@std@@YAXPAXI@Z ; std::_Deallocate<8,0>
  0008f	59		 pop	 ecx
  00090	59		 pop	 ecx
; File C:\Program Files (x86)\Microsoft Visual Studio\2019\Community\VC\Tools\MSVC\14.28.29333\include\vector

; 1698 :             _Myfirst = pointer();

  00091	8b 45 fc	 mov	 eax, DWORD PTR __Myfirst$[ebp]
  00094	83 20 00	 and	 DWORD PTR [eax], 0

; 1699 :             _Mylast  = pointer();

  00097	8b 45 f0	 mov	 eax, DWORD PTR __Mylast$[ebp]
  0009a	83 20 00	 and	 DWORD PTR [eax], 0

; 1700 :             _Myend   = pointer();

  0009d	8b 45 ec	 mov	 eax, DWORD PTR __Myend$[ebp]
  000a0	83 20 00	 and	 DWORD PTR [eax], 0
$LN3@Tidy:

; 1701 :         }
; 1702 :     }

  000a3	c9		 leave
  000a4	c3		 ret	 0
?_Tidy@?$vector@PAVCTextureAnimationCCWDecorator@NEffectUpdateDecorator@@V?$allocator@PAVCTextureAnimationCCWDecorator@NEffectUpdateDecorator@@@std@@@std@@AAEXXZ ENDP ; std::vector<NEffectUpdateDecorator::CTextureAnimationCCWDecorator *,std::allocator<NEffectUpdateDecorator::CTextureAnimationCCWDecorator *> >::_Tidy
_TEXT	ENDS
; Function compile flags: /Odspy
; File C:\Program Files (x86)\Microsoft Visual Studio\2019\Community\VC\Tools\MSVC\14.28.29333\include\vector
; File C:\Program Files (x86)\Microsoft Visual Studio\2019\Community\VC\Tools\MSVC\14.28.29333\include\xmemory
; File C:\Program Files (x86)\Microsoft Visual Studio\2019\Community\VC\Tools\MSVC\14.28.29333\include\vector
;	COMDAT ?clear@?$vector@PAVCTextureAnimationCCWDecorator@NEffectUpdateDecorator@@V?$allocator@PAVCTextureAnimationCCWDecorator@NEffectUpdateDecorator@@@std@@@std@@QAEXXZ
_TEXT	SEGMENT
__First$ = -32						; size = 4
__Last$ = -28						; size = 4
$T1 = -24						; size = 4
$T2 = -20						; size = 4
__Myfirst$ = -16					; size = 4
__Mylast$ = -12						; size = 4
_this$ = -8						; size = 4
__My_data$ = -4						; size = 4
?clear@?$vector@PAVCTextureAnimationCCWDecorator@NEffectUpdateDecorator@@V?$allocator@PAVCTextureAnimationCCWDecorator@NEffectUpdateDecorator@@@std@@@std@@QAEXXZ PROC ; std::vector<NEffectUpdateDecorator::CTextureAnimationCCWDecorator *,std::allocator<NEffectUpdateDecorator::CTextureAnimationCCWDecorator *> >::clear, COMDAT
; _this$ = ecx

; 1383 :     void clear() noexcept { // erase all

  00000	55		 push	 ebp
  00001	8b ec		 mov	 ebp, esp
  00003	83 ec 20	 sub	 esp, 32			; 00000020H
  00006	89 4d f8	 mov	 DWORD PTR _this$[ebp], ecx

; 1384 :         auto& _My_data    = _Mypair._Myval2;

  00009	8b 45 f8	 mov	 eax, DWORD PTR _this$[ebp]
  0000c	89 45 fc	 mov	 DWORD PTR __My_data$[ebp], eax

; 1385 :         pointer& _Myfirst = _My_data._Myfirst;

  0000f	8b 45 fc	 mov	 eax, DWORD PTR __My_data$[ebp]
  00012	89 45 f0	 mov	 DWORD PTR __Myfirst$[ebp], eax

; 1386 :         pointer& _Mylast  = _My_data._Mylast;

  00015	8b 45 fc	 mov	 eax, DWORD PTR __My_data$[ebp]
  00018	83 c0 04	 add	 eax, 4
  0001b	89 45 f4	 mov	 DWORD PTR __Mylast$[ebp], eax

; 1387 : 
; 1388 :         _My_data._Orphan_all();
; 1389 :         _Destroy(_Myfirst, _Mylast);

  0001e	8b 45 f4	 mov	 eax, DWORD PTR __Mylast$[ebp]
  00021	8b 00		 mov	 eax, DWORD PTR [eax]
  00023	89 45 e4	 mov	 DWORD PTR __Last$[ebp], eax
  00026	8b 45 f0	 mov	 eax, DWORD PTR __Myfirst$[ebp]
  00029	8b 00		 mov	 eax, DWORD PTR [eax]
  0002b	89 45 e0	 mov	 DWORD PTR __First$[ebp], eax

; 1733 :         return _Mypair._Get_first();

  0002e	8b 45 f8	 mov	 eax, DWORD PTR _this$[ebp]
; File C:\Program Files (x86)\Microsoft Visual Studio\2019\Community\VC\Tools\MSVC\14.28.29333\include\xmemory

; 1347 :         return *this;

  00031	89 45 ec	 mov	 DWORD PTR $T2[ebp], eax
; File C:\Program Files (x86)\Microsoft Visual Studio\2019\Community\VC\Tools\MSVC\14.28.29333\include\vector

; 1733 :         return _Mypair._Get_first();

  00034	8b 45 ec	 mov	 eax, DWORD PTR $T2[ebp]
  00037	89 45 e8	 mov	 DWORD PTR $T1[ebp], eax

; 1612 :         _Destroy_range(_First, _Last, _Getal());

  0003a	ff 75 e8	 push	 DWORD PTR $T1[ebp]
  0003d	ff 75 e4	 push	 DWORD PTR __Last$[ebp]
  00040	ff 75 e0	 push	 DWORD PTR __First$[ebp]
  00043	e8 00 00 00 00	 call	 ??$_Destroy_range@V?$allocator@PAVCTextureAnimationCCWDecorator@NEffectUpdateDecorator@@@std@@@std@@YAXPAPAVCTextureAnimationCCWDecorator@NEffectUpdateDecorator@@QAPAV12@AAV?$allocator@PAVCTextureAnimationCCWDecorator@NEffectUpdateDecorator@@@0@@Z ; std::_Destroy_range<std::allocator<NEffectUpdateDecorator::CTextureAnimationCCWDecorator *> >
  00048	83 c4 0c	 add	 esp, 12			; 0000000cH

; 1390 :         _Mylast = _Myfirst;

  0004b	8b 45 f4	 mov	 eax, DWORD PTR __Mylast$[ebp]
  0004e	8b 4d f0	 mov	 ecx, DWORD PTR __Myfirst$[ebp]
  00051	8b 09		 mov	 ecx, DWORD PTR [ecx]
  00053	89 08		 mov	 DWORD PTR [eax], ecx

; 1391 :     }

  00055	c9		 leave
  00056	c3		 ret	 0
?clear@?$vector@PAVCTextureAnimationCCWDecorator@NEffectUpdateDecorator@@V?$allocator@PAVCTextureAnimationCCWDecorator@NEffectUpdateDecorator@@@std@@@std@@QAEXXZ ENDP ; std::vector<NEffectUpdateDecorator::CTextureAnimationCCWDecorator *,std::allocator<NEffectUpdateDecorator::CTextureAnimationCCWDecorator *> >::clear
_TEXT	ENDS
; Function compile flags: /Odspy
; File D:\Metin2 Server Files\mainline\SRC_2014\Metin2Client\eterLib\Pool.h
;	COMDAT ?Delete@?$CDynamicPoolEx@VCTextureAnimationCCWDecorator@NEffectUpdateDecorator@@@@KAXPAVCTextureAnimationCCWDecorator@NEffectUpdateDecorator@@@Z
_TEXT	SEGMENT
_pkData$ = 8						; size = 4
?Delete@?$CDynamicPoolEx@VCTextureAnimationCCWDecorator@NEffectUpdateDecorator@@@@KAXPAVCTextureAnimationCCWDecorator@NEffectUpdateDecorator@@@Z PROC ; CDynamicPoolEx<NEffectUpdateDecorator::CTextureAnimationCCWDecorator>::Delete, COMDAT

; 223  : 		{

  00000	55		 push	 ebp
  00001	8b ec		 mov	 ebp, esp

; 224  : 			::operator delete(pkData);

  00003	ff 75 08	 push	 DWORD PTR _pkData$[ebp]
  00006	e8 00 00 00 00	 call	 ??3@YAXPAX@Z		; operator delete
  0000b	59		 pop	 ecx

; 225  : 		}

  0000c	5d		 pop	 ebp
  0000d	c3		 ret	 0
?Delete@?$CDynamicPoolEx@VCTextureAnimationCCWDecorator@NEffectUpdateDecorator@@@@KAXPAVCTextureAnimationCCWDecorator@NEffectUpdateDecorator@@@Z ENDP ; CDynamicPoolEx<NEffectUpdateDecorator::CTextureAnimationCCWDecorator>::Delete
_TEXT	ENDS
; Function compile flags: /Odspy
; File D:\Metin2 Server Files\mainline\SRC_2014\Metin2Client\eterLib\Pool.h
; File C:\Program Files (x86)\Microsoft Visual Studio\2019\Community\VC\Tools\MSVC\14.28.29333\include\vector
; File C:\Program Files (x86)\Microsoft Visual Studio\2019\Community\VC\Tools\MSVC\14.28.29333\include\xstddef
; File C:\Program Files (x86)\Microsoft Visual Studio\2019\Community\VC\Tools\MSVC\14.28.29333\include\vector
; File C:\Program Files (x86)\Microsoft Visual Studio\2019\Community\VC\Tools\MSVC\14.28.29333\include\xstddef
; File C:\Program Files (x86)\Microsoft Visual Studio\2019\Community\VC\Tools\MSVC\14.28.29333\include\vector
; File D:\Metin2 Server Files\mainline\SRC_2014\Metin2Client\eterLib\Pool.h
;	COMDAT ?Destroy@?$CDynamicPoolEx@VCTextureAnimationCCWDecorator@NEffectUpdateDecorator@@@@QAEXXZ
_TEXT	SEGMENT
$T1 = -44						; size = 4
$T2 = -40						; size = 4
$T3 = -36						; size = 4
$T4 = -32						; size = 4
$T5 = -28						; size = 4
___param0$ = -24					; size = 4
$T6 = -20						; size = 4
___param0$ = -16					; size = 4
__My_data$7 = -12					; size = 4
__My_data$8 = -8					; size = 4
_this$ = -4						; size = 4
?Destroy@?$CDynamicPoolEx@VCTextureAnimationCCWDecorator@NEffectUpdateDecorator@@@@QAEXXZ PROC ; CDynamicPoolEx<NEffectUpdateDecorator::CTextureAnimationCCWDecorator>::Destroy, COMDAT
; _this$ = ecx

; 150  : 		{

  00000	55		 push	 ebp
  00001	8b ec		 mov	 ebp, esp
  00003	83 ec 2c	 sub	 esp, 44			; 0000002cH
  00006	89 4d fc	 mov	 DWORD PTR _this$[ebp], ecx
; File C:\Program Files (x86)\Microsoft Visual Studio\2019\Community\VC\Tools\MSVC\14.28.29333\include\vector

; 1420 :         auto& _My_data = _Mypair._Myval2;

  00009	8b 45 fc	 mov	 eax, DWORD PTR _this$[ebp]
  0000c	83 c0 04	 add	 eax, 4
  0000f	89 45 f8	 mov	 DWORD PTR __My_data$8[ebp], eax
; File C:\Program Files (x86)\Microsoft Visual Studio\2019\Community\VC\Tools\MSVC\14.28.29333\include\xstddef

; 275  :     return __builtin_addressof(_Val);

  00012	8b 45 f8	 mov	 eax, DWORD PTR __My_data$8[ebp]
  00015	89 45 d8	 mov	 DWORD PTR $T2[ebp], eax
; File C:\Program Files (x86)\Microsoft Visual Studio\2019\Community\VC\Tools\MSVC\14.28.29333\include\vector

; 1421 :         return iterator(_My_data._Mylast, _STD addressof(_My_data));

  00018	8b 45 f8	 mov	 eax, DWORD PTR __My_data$8[ebp]
  0001b	8b 40 04	 mov	 eax, DWORD PTR [eax+4]
  0001e	89 45 f0	 mov	 DWORD PTR ___param0$[ebp], eax

; 42   :     _Vector_const_iterator(_Tptr _Parg, const _Container_base* _Pvector) noexcept : _Ptr(_Parg) {

  00021	8b 45 f0	 mov	 eax, DWORD PTR ___param0$[ebp]
  00024	89 45 ec	 mov	 DWORD PTR $T6[ebp], eax

; 1421 :         return iterator(_My_data._Mylast, _STD addressof(_My_data));

  00027	8d 45 ec	 lea	 eax, DWORD PTR $T6[ebp]
  0002a	89 45 e0	 mov	 DWORD PTR $T4[ebp], eax

; 1410 :         auto& _My_data = _Mypair._Myval2;

  0002d	8b 45 fc	 mov	 eax, DWORD PTR _this$[ebp]
  00030	83 c0 04	 add	 eax, 4
  00033	89 45 f4	 mov	 DWORD PTR __My_data$7[ebp], eax
; File C:\Program Files (x86)\Microsoft Visual Studio\2019\Community\VC\Tools\MSVC\14.28.29333\include\xstddef

; 275  :     return __builtin_addressof(_Val);

  00036	8b 45 f4	 mov	 eax, DWORD PTR __My_data$7[ebp]
  00039	89 45 d4	 mov	 DWORD PTR $T1[ebp], eax
; File C:\Program Files (x86)\Microsoft Visual Studio\2019\Community\VC\Tools\MSVC\14.28.29333\include\vector

; 1411 :         return iterator(_My_data._Myfirst, _STD addressof(_My_data));

  0003c	8b 45 f4	 mov	 eax, DWORD PTR __My_data$7[ebp]
  0003f	8b 00		 mov	 eax, DWORD PTR [eax]
  00041	89 45 e8	 mov	 DWORD PTR ___param0$[ebp], eax

; 42   :     _Vector_const_iterator(_Tptr _Parg, const _Container_base* _Pvector) noexcept : _Ptr(_Parg) {

  00044	8b 45 e8	 mov	 eax, DWORD PTR ___param0$[ebp]
  00047	89 45 e4	 mov	 DWORD PTR $T5[ebp], eax

; 1411 :         return iterator(_My_data._Myfirst, _STD addressof(_My_data));

  0004a	8d 45 e4	 lea	 eax, DWORD PTR $T5[ebp]
  0004d	89 45 dc	 mov	 DWORD PTR $T3[ebp], eax
; File D:\Metin2 Server Files\mainline\SRC_2014\Metin2Client\eterLib\Pool.h

; 160  : 			std::for_each(m_kVct_pkData.begin(), m_kVct_pkData.end(), Delete);

  00050	68 00 00 00 00	 push	 OFFSET ?Delete@?$CDynamicPoolEx@VCTextureAnimationCCWDecorator@NEffectUpdateDecorator@@@@KAXPAVCTextureAnimationCCWDecorator@NEffectUpdateDecorator@@@Z ; CDynamicPoolEx<NEffectUpdateDecorator::CTextureAnimationCCWDecorator>::Delete
  00055	8b 45 e0	 mov	 eax, DWORD PTR $T4[ebp]
  00058	ff 30		 push	 DWORD PTR [eax]
  0005a	8b 45 dc	 mov	 eax, DWORD PTR $T3[ebp]
  0005d	ff 30		 push	 DWORD PTR [eax]
  0005f	e8 00 00 00 00	 call	 ??$for_each@V?$_Vector_iterator@V?$_Vector_val@U?$_Simple_types@PAVCTextureAnimationCCWDecorator@NEffectUpdateDecorator@@@std@@@std@@@std@@P6AXPAVCTextureAnimationCCWDecorator@NEffectUpdateDecorator@@@Z@std@@YAP6AXPAVCTextureAnimationCCWDecorator@NEffectUpdateDecorator@@@ZV?$_Vector_iterator@V?$_Vector_val@U?$_Simple_types@PAVCTextureAnimationCCWDecorator@NEffectUpdateDecorator@@@std@@@std@@@0@1P6AX0@Z@Z ; std::for_each<std::_Vector_iterator<std::_Vector_val<std::_Simple_types<NEffectUpdateDecorator::CTextureAnimationCCWDecorator *> > >,void (__cdecl*)(NEffectUpdateDecorator::CTextureAnimationCCWDecorator *)>
  00064	83 c4 0c	 add	 esp, 12			; 0000000cH

; 161  : 			m_kVct_pkData.clear();

  00067	8b 4d fc	 mov	 ecx, DWORD PTR _this$[ebp]
  0006a	83 c1 04	 add	 ecx, 4
  0006d	e8 00 00 00 00	 call	 ?clear@?$vector@PAVCTextureAnimationCCWDecorator@NEffectUpdateDecorator@@V?$allocator@PAVCTextureAnimationCCWDecorator@NEffectUpdateDecorator@@@std@@@std@@QAEXXZ ; std::vector<NEffectUpdateDecorator::CTextureAnimationCCWDecorator *,std::allocator<NEffectUpdateDecorator::CTextureAnimationCCWDecorator *> >::clear

; 162  : 			m_kVct_pkFree.clear();

  00072	8b 4d fc	 mov	 ecx, DWORD PTR _this$[ebp]
  00075	83 c1 10	 add	 ecx, 16			; 00000010H
  00078	e8 00 00 00 00	 call	 ?clear@?$vector@PAVCTextureAnimationCCWDecorator@NEffectUpdateDecorator@@V?$allocator@PAVCTextureAnimationCCWDecorator@NEffectUpdateDecorator@@@std@@@std@@QAEXXZ ; std::vector<NEffectUpdateDecorator::CTextureAnimationCCWDecorator *,std::allocator<NEffectUpdateDecorator::CTextureAnimationCCWDecorator *> >::clear

; 163  : 		}

  0007d	c9		 leave
  0007e	c3		 ret	 0
?Destroy@?$CDynamicPoolEx@VCTextureAnimationCCWDecorator@NEffectUpdateDecorator@@@@QAEXXZ ENDP ; CDynamicPoolEx<NEffectUpdateDecorator::CTextureAnimationCCWDecorator>::Destroy
_TEXT	ENDS
; Function compile flags: /Odspy
; File D:\Metin2 Server Files\mainline\SRC_2014\Metin2Client\eterLib\Pool.h
; File C:\Program Files (x86)\Microsoft Visual Studio\2019\Community\VC\Tools\MSVC\14.28.29333\include\vector
; File D:\Metin2 Server Files\mainline\SRC_2014\Metin2Client\eterLib\Pool.h
; File C:\Program Files (x86)\Microsoft Visual Studio\2019\Community\VC\Tools\MSVC\14.28.29333\include\vector
; File D:\Metin2 Server Files\mainline\SRC_2014\Metin2Client\eterLib\Pool.h
;	COMDAT ??1?$CDynamicPoolEx@VCTextureAnimationCCWDecorator@NEffectUpdateDecorator@@@@UAE@XZ
_TEXT	SEGMENT
_this$ = -16						; size = 4
__$EHRec$ = -12						; size = 12
??1?$CDynamicPoolEx@VCTextureAnimationCCWDecorator@NEffectUpdateDecorator@@@@UAE@XZ PROC ; CDynamicPoolEx<NEffectUpdateDecorator::CTextureAnimationCCWDecorator>::~CDynamicPoolEx<NEffectUpdateDecorator::CTextureAnimationCCWDecorator>, COMDAT
; _this$ = ecx

; 132  : 		{

  00000	55		 push	 ebp
  00001	8b ec		 mov	 ebp, esp
  00003	6a ff		 push	 -1
  00005	68 00 00 00 00	 push	 __ehhandler$??1?$CDynamicPoolEx@VCTextureAnimationCCWDecorator@NEffectUpdateDecorator@@@@UAE@XZ
  0000a	64 a1 00 00 00
	00		 mov	 eax, DWORD PTR fs:0
  00010	50		 push	 eax
  00011	51		 push	 ecx
  00012	a1 00 00 00 00	 mov	 eax, DWORD PTR ___security_cookie
  00017	33 c5		 xor	 eax, ebp
  00019	50		 push	 eax
  0001a	8d 45 f4	 lea	 eax, DWORD PTR __$EHRec$[ebp]
  0001d	64 a3 00 00 00
	00		 mov	 DWORD PTR fs:0, eax
  00023	89 4d f0	 mov	 DWORD PTR _this$[ebp], ecx
  00026	8b 45 f0	 mov	 eax, DWORD PTR _this$[ebp]
  00029	c7 00 00 00 00
	00		 mov	 DWORD PTR [eax], OFFSET ??_7?$CDynamicPoolEx@VCTextureAnimationCCWDecorator@NEffectUpdateDecorator@@@@6B@

; 133  : 			assert(m_kVct_pkFree.size()==m_kVct_pkData.size());
; 134  : 			Destroy();

  0002f	8b 4d f0	 mov	 ecx, DWORD PTR _this$[ebp]
  00032	e8 00 00 00 00	 call	 ?Destroy@?$CDynamicPoolEx@VCTextureAnimationCCWDecorator@NEffectUpdateDecorator@@@@QAEXXZ ; CDynamicPoolEx<NEffectUpdateDecorator::CTextureAnimationCCWDecorator>::Destroy

; 142  : 		}

  00037	8b 4d f0	 mov	 ecx, DWORD PTR _this$[ebp]
  0003a	83 c1 10	 add	 ecx, 16			; 00000010H
; File C:\Program Files (x86)\Microsoft Visual Studio\2019\Community\VC\Tools\MSVC\14.28.29333\include\vector

; 673  :         _Tidy();

  0003d	e8 00 00 00 00	 call	 ?_Tidy@?$vector@PAVCTextureAnimationCCWDecorator@NEffectUpdateDecorator@@V?$allocator@PAVCTextureAnimationCCWDecorator@NEffectUpdateDecorator@@@std@@@std@@AAEXXZ ; std::vector<NEffectUpdateDecorator::CTextureAnimationCCWDecorator *,std::allocator<NEffectUpdateDecorator::CTextureAnimationCCWDecorator *> >::_Tidy
; File D:\Metin2 Server Files\mainline\SRC_2014\Metin2Client\eterLib\Pool.h

; 142  : 		}

  00042	8b 4d f0	 mov	 ecx, DWORD PTR _this$[ebp]
  00045	83 c1 04	 add	 ecx, 4
; File C:\Program Files (x86)\Microsoft Visual Studio\2019\Community\VC\Tools\MSVC\14.28.29333\include\vector

; 673  :         _Tidy();

  00048	e8 00 00 00 00	 call	 ?_Tidy@?$vector@PAVCTextureAnimationCCWDecorator@NEffectUpdateDecorator@@V?$allocator@PAVCTextureAnimationCCWDecorator@NEffectUpdateDecorator@@@std@@@std@@AAEXXZ ; std::vector<NEffectUpdateDecorator::CTextureAnimationCCWDecorator *,std::allocator<NEffectUpdateDecorator::CTextureAnimationCCWDecorator *> >::_Tidy
; File D:\Metin2 Server Files\mainline\SRC_2014\Metin2Client\eterLib\Pool.h

; 142  : 		}

  0004d	8b 4d f4	 mov	 ecx, DWORD PTR __$EHRec$[ebp]
  00050	64 89 0d 00 00
	00 00		 mov	 DWORD PTR fs:0, ecx
  00057	59		 pop	 ecx
  00058	c9		 leave
  00059	c3		 ret	 0
  0005a	cc		 int	 3
  0005b	cc		 int	 3
  0005c	cc		 int	 3
  0005d	cc		 int	 3
  0005e	cc		 int	 3
_TEXT	ENDS
;	COMDAT text$x
text$x	SEGMENT
__ehhandler$??1?$CDynamicPoolEx@VCTextureAnimationCCWDecorator@NEffectUpdateDecorator@@@@UAE@XZ:
  00000	90		 npad	 1
  00001	90		 npad	 1
  00002	8b 54 24 08	 mov	 edx, DWORD PTR [esp+8]
  00006	8d 42 0c	 lea	 eax, DWORD PTR [edx+12]
  00009	8b 4a f8	 mov	 ecx, DWORD PTR [edx-8]
  0000c	33 c8		 xor	 ecx, eax
  0000e	e8 00 00 00 00	 call	 @__security_check_cookie@4
  00013	b8 00 00 00 00	 mov	 eax, OFFSET __ehfuncinfo$??1?$CDynamicPoolEx@VCTextureAnimationCCWDecorator@NEffectUpdateDecorator@@@@UAE@XZ
  00018	e9 00 00 00 00	 jmp	 ___CxxFrameHandler3
text$x	ENDS
??1?$CDynamicPoolEx@VCTextureAnimationCCWDecorator@NEffectUpdateDecorator@@@@UAE@XZ ENDP ; CDynamicPoolEx<NEffectUpdateDecorator::CTextureAnimationCCWDecorator>::~CDynamicPoolEx<NEffectUpdateDecorator::CTextureAnimationCCWDecorator>
; Function compile flags: /Odspy
; File D:\Metin2 Server Files\mainline\SRC_2014\Metin2Client\eterLib\Pool.h
; File C:\Program Files (x86)\Microsoft Visual Studio\2019\Community\VC\Tools\MSVC\14.28.29333\include\vector
; File C:\Program Files (x86)\Microsoft Visual Studio\2019\Community\VC\Tools\MSVC\14.28.29333\include\xmemory
; File C:\Program Files (x86)\Microsoft Visual Studio\2019\Community\VC\Tools\MSVC\14.28.29333\include\vector
; File D:\Metin2 Server Files\mainline\SRC_2014\Metin2Client\eterLib\Pool.h
; File C:\Program Files (x86)\Microsoft Visual Studio\2019\Community\VC\Tools\MSVC\14.28.29333\include\vector
; File C:\Program Files (x86)\Microsoft Visual Studio\2019\Community\VC\Tools\MSVC\14.28.29333\include\xmemory
; File C:\Program Files (x86)\Microsoft Visual Studio\2019\Community\VC\Tools\MSVC\14.28.29333\include\vector
; File D:\Metin2 Server Files\mainline\SRC_2014\Metin2Client\eterLib\Pool.h
;	COMDAT ??0?$CDynamicPoolEx@VCTextureAnimationCCWDecorator@NEffectUpdateDecorator@@@@QAE@XZ
_TEXT	SEGMENT
_this$ = -28						; size = 4
_this$ = -24						; size = 4
_this$ = -20						; size = 4
_this$ = -16						; size = 4
_this$1 = -12						; size = 4
_this$2 = -8						; size = 4
_this$ = -4						; size = 4
??0?$CDynamicPoolEx@VCTextureAnimationCCWDecorator@NEffectUpdateDecorator@@@@QAE@XZ PROC ; CDynamicPoolEx<NEffectUpdateDecorator::CTextureAnimationCCWDecorator>::CDynamicPoolEx<NEffectUpdateDecorator::CTextureAnimationCCWDecorator>, COMDAT
; _this$ = ecx

; 126  : 		CDynamicPoolEx()

  00000	55		 push	 ebp
  00001	8b ec		 mov	 ebp, esp
  00003	83 ec 1c	 sub	 esp, 28			; 0000001cH
  00006	89 4d fc	 mov	 DWORD PTR _this$[ebp], ecx

; 127  : 		{

  00009	8b 45 fc	 mov	 eax, DWORD PTR _this$[ebp]
  0000c	c7 00 00 00 00
	00		 mov	 DWORD PTR [eax], OFFSET ??_7?$CDynamicPoolEx@VCTextureAnimationCCWDecorator@NEffectUpdateDecorator@@@@6B@
  00012	8b 45 fc	 mov	 eax, DWORD PTR _this$[ebp]
  00015	83 c0 04	 add	 eax, 4
  00018	89 45 f0	 mov	 DWORD PTR _this$[ebp], eax
; File C:\Program Files (x86)\Microsoft Visual Studio\2019\Community\VC\Tools\MSVC\14.28.29333\include\vector

; 445  :     vector() noexcept(is_nothrow_default_constructible_v<_Alty>) : _Mypair(_Zero_then_variadic_args_t{}) {

  0001b	8b 45 f0	 mov	 eax, DWORD PTR _this$[ebp]
  0001e	89 45 ec	 mov	 DWORD PTR _this$[ebp], eax
; File C:\Program Files (x86)\Microsoft Visual Studio\2019\Community\VC\Tools\MSVC\14.28.29333\include\xmemory

; 1339 :         : _Ty1(), _Myval2(_STD forward<_Other2>(_Val2)...) {}

  00021	8b 45 ec	 mov	 eax, DWORD PTR _this$[ebp]
  00024	89 45 f8	 mov	 DWORD PTR _this$2[ebp], eax
; File C:\Program Files (x86)\Microsoft Visual Studio\2019\Community\VC\Tools\MSVC\14.28.29333\include\vector

; 375  :     _Vector_val() noexcept : _Myfirst(), _Mylast(), _Myend() {}

  00027	8b 45 f8	 mov	 eax, DWORD PTR _this$2[ebp]
  0002a	83 20 00	 and	 DWORD PTR [eax], 0
  0002d	8b 45 f8	 mov	 eax, DWORD PTR _this$2[ebp]
  00030	83 60 04 00	 and	 DWORD PTR [eax+4], 0
  00034	8b 45 f8	 mov	 eax, DWORD PTR _this$2[ebp]
  00037	83 60 08 00	 and	 DWORD PTR [eax+8], 0
; File D:\Metin2 Server Files\mainline\SRC_2014\Metin2Client\eterLib\Pool.h

; 127  : 		{

  0003b	8b 45 fc	 mov	 eax, DWORD PTR _this$[ebp]
  0003e	83 c0 10	 add	 eax, 16			; 00000010H
  00041	89 45 e8	 mov	 DWORD PTR _this$[ebp], eax
; File C:\Program Files (x86)\Microsoft Visual Studio\2019\Community\VC\Tools\MSVC\14.28.29333\include\vector

; 445  :     vector() noexcept(is_nothrow_default_constructible_v<_Alty>) : _Mypair(_Zero_then_variadic_args_t{}) {

  00044	8b 45 e8	 mov	 eax, DWORD PTR _this$[ebp]
  00047	89 45 e4	 mov	 DWORD PTR _this$[ebp], eax
; File C:\Program Files (x86)\Microsoft Visual Studio\2019\Community\VC\Tools\MSVC\14.28.29333\include\xmemory

; 1339 :         : _Ty1(), _Myval2(_STD forward<_Other2>(_Val2)...) {}

  0004a	8b 45 e4	 mov	 eax, DWORD PTR _this$[ebp]
  0004d	89 45 f4	 mov	 DWORD PTR _this$1[ebp], eax
; File C:\Program Files (x86)\Microsoft Visual Studio\2019\Community\VC\Tools\MSVC\14.28.29333\include\vector

; 375  :     _Vector_val() noexcept : _Myfirst(), _Mylast(), _Myend() {}

  00050	8b 45 f4	 mov	 eax, DWORD PTR _this$1[ebp]
  00053	83 20 00	 and	 DWORD PTR [eax], 0
  00056	8b 45 f4	 mov	 eax, DWORD PTR _this$1[ebp]
  00059	83 60 04 00	 and	 DWORD PTR [eax+4], 0
  0005d	8b 45 f4	 mov	 eax, DWORD PTR _this$1[ebp]
  00060	83 60 08 00	 and	 DWORD PTR [eax+8], 0
; File D:\Metin2 Server Files\mainline\SRC_2014\Metin2Client\eterLib\Pool.h

; 128  : 			m_uInitCapacity=0;

  00064	8b 45 fc	 mov	 eax, DWORD PTR _this$[ebp]
  00067	83 60 1c 00	 and	 DWORD PTR [eax+28], 0

; 129  : 			m_uUsedCapacity=0;

  0006b	8b 45 fc	 mov	 eax, DWORD PTR _this$[ebp]
  0006e	83 60 20 00	 and	 DWORD PTR [eax+32], 0

; 130  : 		}

  00072	8b 45 fc	 mov	 eax, DWORD PTR _this$[ebp]
  00075	c9		 leave
  00076	c3		 ret	 0
??0?$CDynamicPoolEx@VCTextureAnimationCCWDecorator@NEffectUpdateDecorator@@@@QAE@XZ ENDP ; CDynamicPoolEx<NEffectUpdateDecorator::CTextureAnimationCCWDecorator>::CDynamicPoolEx<NEffectUpdateDecorator::CTextureAnimationCCWDecorator>
_TEXT	ENDS
; Function compile flags: /Odspy
;	COMDAT ??_G?$CDynamicPoolEx@VCTextureAnimationRandomDecorator@NEffectUpdateDecorator@@@@UAEPAXI@Z
_TEXT	SEGMENT
_this$ = -4						; size = 4
___flags$ = 8						; size = 4
??_G?$CDynamicPoolEx@VCTextureAnimationRandomDecorator@NEffectUpdateDecorator@@@@UAEPAXI@Z PROC ; CDynamicPoolEx<NEffectUpdateDecorator::CTextureAnimationRandomDecorator>::`scalar deleting destructor', COMDAT
; _this$ = ecx
  00000	55		 push	 ebp
  00001	8b ec		 mov	 ebp, esp
  00003	51		 push	 ecx
  00004	89 4d fc	 mov	 DWORD PTR _this$[ebp], ecx
  00007	8b 4d fc	 mov	 ecx, DWORD PTR _this$[ebp]
  0000a	e8 00 00 00 00	 call	 ??1?$CDynamicPoolEx@VCTextureAnimationRandomDecorator@NEffectUpdateDecorator@@@@UAE@XZ ; CDynamicPoolEx<NEffectUpdateDecorator::CTextureAnimationRandomDecorator>::~CDynamicPoolEx<NEffectUpdateDecorator::CTextureAnimationRandomDecorator>
  0000f	8b 45 08	 mov	 eax, DWORD PTR ___flags$[ebp]
  00012	83 e0 01	 and	 eax, 1
  00015	74 0c		 je	 SHORT $LN2@scalar
  00017	6a 24		 push	 36			; 00000024H
  00019	ff 75 fc	 push	 DWORD PTR _this$[ebp]
  0001c	e8 00 00 00 00	 call	 ??3@YAXPAXI@Z		; operator delete
  00021	59		 pop	 ecx
  00022	59		 pop	 ecx
$LN2@scalar:
  00023	8b 45 fc	 mov	 eax, DWORD PTR _this$[ebp]
  00026	c9		 leave
  00027	c2 04 00	 ret	 4
??_G?$CDynamicPoolEx@VCTextureAnimationRandomDecorator@NEffectUpdateDecorator@@@@UAEPAXI@Z ENDP ; CDynamicPoolEx<NEffectUpdateDecorator::CTextureAnimationRandomDecorator>::`scalar deleting destructor'
_TEXT	ENDS
; Function compile flags: /Odspy
; File C:\Program Files (x86)\Microsoft Visual Studio\2019\Community\VC\Tools\MSVC\14.28.29333\include\vector
; File C:\Program Files (x86)\Microsoft Visual Studio\2019\Community\VC\Tools\MSVC\14.28.29333\include\xmemory
; File C:\Program Files (x86)\Microsoft Visual Studio\2019\Community\VC\Tools\MSVC\14.28.29333\include\vector
; File C:\Program Files (x86)\Microsoft Visual Studio\2019\Community\VC\Tools\MSVC\14.28.29333\include\xmemory
; File C:\Program Files (x86)\Microsoft Visual Studio\2019\Community\VC\Tools\MSVC\14.28.29333\include\vector
; File C:\Program Files (x86)\Microsoft Visual Studio\2019\Community\VC\Tools\MSVC\14.28.29333\include\xmemory
; File C:\Program Files (x86)\Microsoft Visual Studio\2019\Community\VC\Tools\MSVC\14.28.29333\include\vector
;	COMDAT ?_Tidy@?$vector@PAVCTextureAnimationRandomDecorator@NEffectUpdateDecorator@@V?$allocator@PAVCTextureAnimationRandomDecorator@NEffectUpdateDecorator@@@std@@@std@@AAEXXZ
_TEXT	SEGMENT
$T1 = -52						; size = 4
__Ptr$ = -48						; size = 4
__Count$ = -44						; size = 4
$T2 = -40						; size = 4
__First$ = -36						; size = 4
__Last$ = -32						; size = 4
$T3 = -28						; size = 4
$T4 = -24						; size = 4
__Myend$ = -20						; size = 4
__Mylast$ = -16						; size = 4
_this$ = -12						; size = 4
__My_data$ = -8						; size = 4
__Myfirst$ = -4						; size = 4
?_Tidy@?$vector@PAVCTextureAnimationRandomDecorator@NEffectUpdateDecorator@@V?$allocator@PAVCTextureAnimationRandomDecorator@NEffectUpdateDecorator@@@std@@@std@@AAEXXZ PROC ; std::vector<NEffectUpdateDecorator::CTextureAnimationRandomDecorator *,std::allocator<NEffectUpdateDecorator::CTextureAnimationRandomDecorator *> >::_Tidy, COMDAT
; _this$ = ecx

; 1686 :     void _Tidy() noexcept { // free all storage

  00000	55		 push	 ebp
  00001	8b ec		 mov	 ebp, esp
  00003	83 ec 34	 sub	 esp, 52			; 00000034H
  00006	89 4d f4	 mov	 DWORD PTR _this$[ebp], ecx

; 1687 :         auto& _My_data    = _Mypair._Myval2;

  00009	8b 45 f4	 mov	 eax, DWORD PTR _this$[ebp]
  0000c	89 45 f8	 mov	 DWORD PTR __My_data$[ebp], eax

; 1688 :         pointer& _Myfirst = _My_data._Myfirst;

  0000f	8b 45 f8	 mov	 eax, DWORD PTR __My_data$[ebp]
  00012	89 45 fc	 mov	 DWORD PTR __Myfirst$[ebp], eax

; 1689 :         pointer& _Mylast  = _My_data._Mylast;

  00015	8b 45 f8	 mov	 eax, DWORD PTR __My_data$[ebp]
  00018	83 c0 04	 add	 eax, 4
  0001b	89 45 f0	 mov	 DWORD PTR __Mylast$[ebp], eax

; 1690 :         pointer& _Myend   = _My_data._Myend;

  0001e	8b 45 f8	 mov	 eax, DWORD PTR __My_data$[ebp]
  00021	83 c0 08	 add	 eax, 8
  00024	89 45 ec	 mov	 DWORD PTR __Myend$[ebp], eax

; 1691 : 
; 1692 :         _My_data._Orphan_all();
; 1693 : 
; 1694 :         if (_Myfirst) { // destroy and deallocate old array

  00027	8b 45 fc	 mov	 eax, DWORD PTR __Myfirst$[ebp]
  0002a	83 38 00	 cmp	 DWORD PTR [eax], 0
  0002d	74 74		 je	 SHORT $LN3@Tidy

; 1695 :             _Destroy(_Myfirst, _Mylast);

  0002f	8b 45 f0	 mov	 eax, DWORD PTR __Mylast$[ebp]
  00032	8b 00		 mov	 eax, DWORD PTR [eax]
  00034	89 45 e0	 mov	 DWORD PTR __Last$[ebp], eax
  00037	8b 45 fc	 mov	 eax, DWORD PTR __Myfirst$[ebp]
  0003a	8b 00		 mov	 eax, DWORD PTR [eax]
  0003c	89 45 dc	 mov	 DWORD PTR __First$[ebp], eax

; 1733 :         return _Mypair._Get_first();

  0003f	8b 45 f4	 mov	 eax, DWORD PTR _this$[ebp]
; File C:\Program Files (x86)\Microsoft Visual Studio\2019\Community\VC\Tools\MSVC\14.28.29333\include\xmemory

; 1347 :         return *this;

  00042	89 45 e8	 mov	 DWORD PTR $T4[ebp], eax
; File C:\Program Files (x86)\Microsoft Visual Studio\2019\Community\VC\Tools\MSVC\14.28.29333\include\vector

; 1733 :         return _Mypair._Get_first();

  00045	8b 45 e8	 mov	 eax, DWORD PTR $T4[ebp]
  00048	89 45 e4	 mov	 DWORD PTR $T3[ebp], eax

; 1612 :         _Destroy_range(_First, _Last, _Getal());

  0004b	ff 75 e4	 push	 DWORD PTR $T3[ebp]
  0004e	ff 75 e0	 push	 DWORD PTR __Last$[ebp]
  00051	ff 75 dc	 push	 DWORD PTR __First$[ebp]
  00054	e8 00 00 00 00	 call	 ??$_Destroy_range@V?$allocator@PAVCTextureAnimationRandomDecorator@NEffectUpdateDecorator@@@std@@@std@@YAXPAPAVCTextureAnimationRandomDecorator@NEffectUpdateDecorator@@QAPAV12@AAV?$allocator@PAVCTextureAnimationRandomDecorator@NEffectUpdateDecorator@@@0@@Z ; std::_Destroy_range<std::allocator<NEffectUpdateDecorator::CTextureAnimationRandomDecorator *> >
  00059	83 c4 0c	 add	 esp, 12			; 0000000cH

; 1733 :         return _Mypair._Get_first();

  0005c	8b 45 f4	 mov	 eax, DWORD PTR _this$[ebp]
; File C:\Program Files (x86)\Microsoft Visual Studio\2019\Community\VC\Tools\MSVC\14.28.29333\include\xmemory

; 1347 :         return *this;

  0005f	89 45 d8	 mov	 DWORD PTR $T2[ebp], eax
; File C:\Program Files (x86)\Microsoft Visual Studio\2019\Community\VC\Tools\MSVC\14.28.29333\include\vector

; 1733 :         return _Mypair._Get_first();

  00062	8b 45 d8	 mov	 eax, DWORD PTR $T2[ebp]
  00065	89 45 cc	 mov	 DWORD PTR $T1[ebp], eax

; 1696 :             _Getal().deallocate(_Myfirst, static_cast<size_type>(_Myend - _Myfirst));

  00068	8b 45 ec	 mov	 eax, DWORD PTR __Myend$[ebp]
  0006b	8b 4d fc	 mov	 ecx, DWORD PTR __Myfirst$[ebp]
  0006e	8b 00		 mov	 eax, DWORD PTR [eax]
  00070	2b 01		 sub	 eax, DWORD PTR [ecx]
  00072	c1 f8 02	 sar	 eax, 2
  00075	89 45 d4	 mov	 DWORD PTR __Count$[ebp], eax
  00078	8b 45 fc	 mov	 eax, DWORD PTR __Myfirst$[ebp]
  0007b	8b 00		 mov	 eax, DWORD PTR [eax]
  0007d	89 45 d0	 mov	 DWORD PTR __Ptr$[ebp], eax
; File C:\Program Files (x86)\Microsoft Visual Studio\2019\Community\VC\Tools\MSVC\14.28.29333\include\xmemory

; 810  :         _Deallocate<_New_alignof<_Ty>>(_Ptr, sizeof(_Ty) * _Count);

  00080	8b 45 d4	 mov	 eax, DWORD PTR __Count$[ebp]
  00083	c1 e0 02	 shl	 eax, 2
  00086	50		 push	 eax
  00087	ff 75 d0	 push	 DWORD PTR __Ptr$[ebp]
  0008a	e8 00 00 00 00	 call	 ??$_Deallocate@$07$0A@@std@@YAXPAXI@Z ; std::_Deallocate<8,0>
  0008f	59		 pop	 ecx
  00090	59		 pop	 ecx
; File C:\Program Files (x86)\Microsoft Visual Studio\2019\Community\VC\Tools\MSVC\14.28.29333\include\vector

; 1698 :             _Myfirst = pointer();

  00091	8b 45 fc	 mov	 eax, DWORD PTR __Myfirst$[ebp]
  00094	83 20 00	 and	 DWORD PTR [eax], 0

; 1699 :             _Mylast  = pointer();

  00097	8b 45 f0	 mov	 eax, DWORD PTR __Mylast$[ebp]
  0009a	83 20 00	 and	 DWORD PTR [eax], 0

; 1700 :             _Myend   = pointer();

  0009d	8b 45 ec	 mov	 eax, DWORD PTR __Myend$[ebp]
  000a0	83 20 00	 and	 DWORD PTR [eax], 0
$LN3@Tidy:

; 1701 :         }
; 1702 :     }

  000a3	c9		 leave
  000a4	c3		 ret	 0
?_Tidy@?$vector@PAVCTextureAnimationRandomDecorator@NEffectUpdateDecorator@@V?$allocator@PAVCTextureAnimationRandomDecorator@NEffectUpdateDecorator@@@std@@@std@@AAEXXZ ENDP ; std::vector<NEffectUpdateDecorator::CTextureAnimationRandomDecorator *,std::allocator<NEffectUpdateDecorator::CTextureAnimationRandomDecorator *> >::_Tidy
_TEXT	ENDS
; Function compile flags: /Odspy
; File C:\Program Files (x86)\Microsoft Visual Studio\2019\Community\VC\Tools\MSVC\14.28.29333\include\vector
; File C:\Program Files (x86)\Microsoft Visual Studio\2019\Community\VC\Tools\MSVC\14.28.29333\include\xmemory
; File C:\Program Files (x86)\Microsoft Visual Studio\2019\Community\VC\Tools\MSVC\14.28.29333\include\vector
;	COMDAT ?clear@?$vector@PAVCTextureAnimationRandomDecorator@NEffectUpdateDecorator@@V?$allocator@PAVCTextureAnimationRandomDecorator@NEffectUpdateDecorator@@@std@@@std@@QAEXXZ
_TEXT	SEGMENT
__First$ = -32						; size = 4
__Last$ = -28						; size = 4
$T1 = -24						; size = 4
$T2 = -20						; size = 4
__Myfirst$ = -16					; size = 4
__Mylast$ = -12						; size = 4
_this$ = -8						; size = 4
__My_data$ = -4						; size = 4
?clear@?$vector@PAVCTextureAnimationRandomDecorator@NEffectUpdateDecorator@@V?$allocator@PAVCTextureAnimationRandomDecorator@NEffectUpdateDecorator@@@std@@@std@@QAEXXZ PROC ; std::vector<NEffectUpdateDecorator::CTextureAnimationRandomDecorator *,std::allocator<NEffectUpdateDecorator::CTextureAnimationRandomDecorator *> >::clear, COMDAT
; _this$ = ecx

; 1383 :     void clear() noexcept { // erase all

  00000	55		 push	 ebp
  00001	8b ec		 mov	 ebp, esp
  00003	83 ec 20	 sub	 esp, 32			; 00000020H
  00006	89 4d f8	 mov	 DWORD PTR _this$[ebp], ecx

; 1384 :         auto& _My_data    = _Mypair._Myval2;

  00009	8b 45 f8	 mov	 eax, DWORD PTR _this$[ebp]
  0000c	89 45 fc	 mov	 DWORD PTR __My_data$[ebp], eax

; 1385 :         pointer& _Myfirst = _My_data._Myfirst;

  0000f	8b 45 fc	 mov	 eax, DWORD PTR __My_data$[ebp]
  00012	89 45 f0	 mov	 DWORD PTR __Myfirst$[ebp], eax

; 1386 :         pointer& _Mylast  = _My_data._Mylast;

  00015	8b 45 fc	 mov	 eax, DWORD PTR __My_data$[ebp]
  00018	83 c0 04	 add	 eax, 4
  0001b	89 45 f4	 mov	 DWORD PTR __Mylast$[ebp], eax

; 1387 : 
; 1388 :         _My_data._Orphan_all();
; 1389 :         _Destroy(_Myfirst, _Mylast);

  0001e	8b 45 f4	 mov	 eax, DWORD PTR __Mylast$[ebp]
  00021	8b 00		 mov	 eax, DWORD PTR [eax]
  00023	89 45 e4	 mov	 DWORD PTR __Last$[ebp], eax
  00026	8b 45 f0	 mov	 eax, DWORD PTR __Myfirst$[ebp]
  00029	8b 00		 mov	 eax, DWORD PTR [eax]
  0002b	89 45 e0	 mov	 DWORD PTR __First$[ebp], eax

; 1733 :         return _Mypair._Get_first();

  0002e	8b 45 f8	 mov	 eax, DWORD PTR _this$[ebp]
; File C:\Program Files (x86)\Microsoft Visual Studio\2019\Community\VC\Tools\MSVC\14.28.29333\include\xmemory

; 1347 :         return *this;

  00031	89 45 ec	 mov	 DWORD PTR $T2[ebp], eax
; File C:\Program Files (x86)\Microsoft Visual Studio\2019\Community\VC\Tools\MSVC\14.28.29333\include\vector

; 1733 :         return _Mypair._Get_first();

  00034	8b 45 ec	 mov	 eax, DWORD PTR $T2[ebp]
  00037	89 45 e8	 mov	 DWORD PTR $T1[ebp], eax

; 1612 :         _Destroy_range(_First, _Last, _Getal());

  0003a	ff 75 e8	 push	 DWORD PTR $T1[ebp]
  0003d	ff 75 e4	 push	 DWORD PTR __Last$[ebp]
  00040	ff 75 e0	 push	 DWORD PTR __First$[ebp]
  00043	e8 00 00 00 00	 call	 ??$_Destroy_range@V?$allocator@PAVCTextureAnimationRandomDecorator@NEffectUpdateDecorator@@@std@@@std@@YAXPAPAVCTextureAnimationRandomDecorator@NEffectUpdateDecorator@@QAPAV12@AAV?$allocator@PAVCTextureAnimationRandomDecorator@NEffectUpdateDecorator@@@0@@Z ; std::_Destroy_range<std::allocator<NEffectUpdateDecorator::CTextureAnimationRandomDecorator *> >
  00048	83 c4 0c	 add	 esp, 12			; 0000000cH

; 1390 :         _Mylast = _Myfirst;

  0004b	8b 45 f4	 mov	 eax, DWORD PTR __Mylast$[ebp]
  0004e	8b 4d f0	 mov	 ecx, DWORD PTR __Myfirst$[ebp]
  00051	8b 09		 mov	 ecx, DWORD PTR [ecx]
  00053	89 08		 mov	 DWORD PTR [eax], ecx

; 1391 :     }

  00055	c9		 leave
  00056	c3		 ret	 0
?clear@?$vector@PAVCTextureAnimationRandomDecorator@NEffectUpdateDecorator@@V?$allocator@PAVCTextureAnimationRandomDecorator@NEffectUpdateDecorator@@@std@@@std@@QAEXXZ ENDP ; std::vector<NEffectUpdateDecorator::CTextureAnimationRandomDecorator *,std::allocator<NEffectUpdateDecorator::CTextureAnimationRandomDecorator *> >::clear
_TEXT	ENDS
; Function compile flags: /Odspy
; File D:\Metin2 Server Files\mainline\SRC_2014\Metin2Client\eterLib\Pool.h
;	COMDAT ?Delete@?$CDynamicPoolEx@VCTextureAnimationRandomDecorator@NEffectUpdateDecorator@@@@KAXPAVCTextureAnimationRandomDecorator@NEffectUpdateDecorator@@@Z
_TEXT	SEGMENT
_pkData$ = 8						; size = 4
?Delete@?$CDynamicPoolEx@VCTextureAnimationRandomDecorator@NEffectUpdateDecorator@@@@KAXPAVCTextureAnimationRandomDecorator@NEffectUpdateDecorator@@@Z PROC ; CDynamicPoolEx<NEffectUpdateDecorator::CTextureAnimationRandomDecorator>::Delete, COMDAT

; 223  : 		{

  00000	55		 push	 ebp
  00001	8b ec		 mov	 ebp, esp

; 224  : 			::operator delete(pkData);

  00003	ff 75 08	 push	 DWORD PTR _pkData$[ebp]
  00006	e8 00 00 00 00	 call	 ??3@YAXPAX@Z		; operator delete
  0000b	59		 pop	 ecx

; 225  : 		}

  0000c	5d		 pop	 ebp
  0000d	c3		 ret	 0
?Delete@?$CDynamicPoolEx@VCTextureAnimationRandomDecorator@NEffectUpdateDecorator@@@@KAXPAVCTextureAnimationRandomDecorator@NEffectUpdateDecorator@@@Z ENDP ; CDynamicPoolEx<NEffectUpdateDecorator::CTextureAnimationRandomDecorator>::Delete
_TEXT	ENDS
; Function compile flags: /Odspy
; File D:\Metin2 Server Files\mainline\SRC_2014\Metin2Client\eterLib\Pool.h
; File C:\Program Files (x86)\Microsoft Visual Studio\2019\Community\VC\Tools\MSVC\14.28.29333\include\vector
; File C:\Program Files (x86)\Microsoft Visual Studio\2019\Community\VC\Tools\MSVC\14.28.29333\include\xstddef
; File C:\Program Files (x86)\Microsoft Visual Studio\2019\Community\VC\Tools\MSVC\14.28.29333\include\vector
; File C:\Program Files (x86)\Microsoft Visual Studio\2019\Community\VC\Tools\MSVC\14.28.29333\include\xstddef
; File C:\Program Files (x86)\Microsoft Visual Studio\2019\Community\VC\Tools\MSVC\14.28.29333\include\vector
; File D:\Metin2 Server Files\mainline\SRC_2014\Metin2Client\eterLib\Pool.h
;	COMDAT ?Destroy@?$CDynamicPoolEx@VCTextureAnimationRandomDecorator@NEffectUpdateDecorator@@@@QAEXXZ
_TEXT	SEGMENT
$T1 = -44						; size = 4
$T2 = -40						; size = 4
$T3 = -36						; size = 4
$T4 = -32						; size = 4
$T5 = -28						; size = 4
___param0$ = -24					; size = 4
$T6 = -20						; size = 4
___param0$ = -16					; size = 4
__My_data$7 = -12					; size = 4
__My_data$8 = -8					; size = 4
_this$ = -4						; size = 4
?Destroy@?$CDynamicPoolEx@VCTextureAnimationRandomDecorator@NEffectUpdateDecorator@@@@QAEXXZ PROC ; CDynamicPoolEx<NEffectUpdateDecorator::CTextureAnimationRandomDecorator>::Destroy, COMDAT
; _this$ = ecx

; 150  : 		{

  00000	55		 push	 ebp
  00001	8b ec		 mov	 ebp, esp
  00003	83 ec 2c	 sub	 esp, 44			; 0000002cH
  00006	89 4d fc	 mov	 DWORD PTR _this$[ebp], ecx
; File C:\Program Files (x86)\Microsoft Visual Studio\2019\Community\VC\Tools\MSVC\14.28.29333\include\vector

; 1420 :         auto& _My_data = _Mypair._Myval2;

  00009	8b 45 fc	 mov	 eax, DWORD PTR _this$[ebp]
  0000c	83 c0 04	 add	 eax, 4
  0000f	89 45 f8	 mov	 DWORD PTR __My_data$8[ebp], eax
; File C:\Program Files (x86)\Microsoft Visual Studio\2019\Community\VC\Tools\MSVC\14.28.29333\include\xstddef

; 275  :     return __builtin_addressof(_Val);

  00012	8b 45 f8	 mov	 eax, DWORD PTR __My_data$8[ebp]
  00015	89 45 d8	 mov	 DWORD PTR $T2[ebp], eax
; File C:\Program Files (x86)\Microsoft Visual Studio\2019\Community\VC\Tools\MSVC\14.28.29333\include\vector

; 1421 :         return iterator(_My_data._Mylast, _STD addressof(_My_data));

  00018	8b 45 f8	 mov	 eax, DWORD PTR __My_data$8[ebp]
  0001b	8b 40 04	 mov	 eax, DWORD PTR [eax+4]
  0001e	89 45 f0	 mov	 DWORD PTR ___param0$[ebp], eax

; 42   :     _Vector_const_iterator(_Tptr _Parg, const _Container_base* _Pvector) noexcept : _Ptr(_Parg) {

  00021	8b 45 f0	 mov	 eax, DWORD PTR ___param0$[ebp]
  00024	89 45 ec	 mov	 DWORD PTR $T6[ebp], eax

; 1421 :         return iterator(_My_data._Mylast, _STD addressof(_My_data));

  00027	8d 45 ec	 lea	 eax, DWORD PTR $T6[ebp]
  0002a	89 45 e0	 mov	 DWORD PTR $T4[ebp], eax

; 1410 :         auto& _My_data = _Mypair._Myval2;

  0002d	8b 45 fc	 mov	 eax, DWORD PTR _this$[ebp]
  00030	83 c0 04	 add	 eax, 4
  00033	89 45 f4	 mov	 DWORD PTR __My_data$7[ebp], eax
; File C:\Program Files (x86)\Microsoft Visual Studio\2019\Community\VC\Tools\MSVC\14.28.29333\include\xstddef

; 275  :     return __builtin_addressof(_Val);

  00036	8b 45 f4	 mov	 eax, DWORD PTR __My_data$7[ebp]
  00039	89 45 d4	 mov	 DWORD PTR $T1[ebp], eax
; File C:\Program Files (x86)\Microsoft Visual Studio\2019\Community\VC\Tools\MSVC\14.28.29333\include\vector

; 1411 :         return iterator(_My_data._Myfirst, _STD addressof(_My_data));

  0003c	8b 45 f4	 mov	 eax, DWORD PTR __My_data$7[ebp]
  0003f	8b 00		 mov	 eax, DWORD PTR [eax]
  00041	89 45 e8	 mov	 DWORD PTR ___param0$[ebp], eax

; 42   :     _Vector_const_iterator(_Tptr _Parg, const _Container_base* _Pvector) noexcept : _Ptr(_Parg) {

  00044	8b 45 e8	 mov	 eax, DWORD PTR ___param0$[ebp]
  00047	89 45 e4	 mov	 DWORD PTR $T5[ebp], eax

; 1411 :         return iterator(_My_data._Myfirst, _STD addressof(_My_data));

  0004a	8d 45 e4	 lea	 eax, DWORD PTR $T5[ebp]
  0004d	89 45 dc	 mov	 DWORD PTR $T3[ebp], eax
; File D:\Metin2 Server Files\mainline\SRC_2014\Metin2Client\eterLib\Pool.h

; 160  : 			std::for_each(m_kVct_pkData.begin(), m_kVct_pkData.end(), Delete);

  00050	68 00 00 00 00	 push	 OFFSET ?Delete@?$CDynamicPoolEx@VCTextureAnimationRandomDecorator@NEffectUpdateDecorator@@@@KAXPAVCTextureAnimationRandomDecorator@NEffectUpdateDecorator@@@Z ; CDynamicPoolEx<NEffectUpdateDecorator::CTextureAnimationRandomDecorator>::Delete
  00055	8b 45 e0	 mov	 eax, DWORD PTR $T4[ebp]
  00058	ff 30		 push	 DWORD PTR [eax]
  0005a	8b 45 dc	 mov	 eax, DWORD PTR $T3[ebp]
  0005d	ff 30		 push	 DWORD PTR [eax]
  0005f	e8 00 00 00 00	 call	 ??$for_each@V?$_Vector_iterator@V?$_Vector_val@U?$_Simple_types@PAVCTextureAnimationRandomDecorator@NEffectUpdateDecorator@@@std@@@std@@@std@@P6AXPAVCTextureAnimationRandomDecorator@NEffectUpdateDecorator@@@Z@std@@YAP6AXPAVCTextureAnimationRandomDecorator@NEffectUpdateDecorator@@@ZV?$_Vector_iterator@V?$_Vector_val@U?$_Simple_types@PAVCTextureAnimationRandomDecorator@NEffectUpdateDecorator@@@std@@@std@@@0@1P6AX0@Z@Z ; std::for_each<std::_Vector_iterator<std::_Vector_val<std::_Simple_types<NEffectUpdateDecorator::CTextureAnimationRandomDecorator *> > >,void (__cdecl*)(NEffectUpdateDecorator::CTextureAnimationRandomDecorator *)>
  00064	83 c4 0c	 add	 esp, 12			; 0000000cH

; 161  : 			m_kVct_pkData.clear();

  00067	8b 4d fc	 mov	 ecx, DWORD PTR _this$[ebp]
  0006a	83 c1 04	 add	 ecx, 4
  0006d	e8 00 00 00 00	 call	 ?clear@?$vector@PAVCTextureAnimationRandomDecorator@NEffectUpdateDecorator@@V?$allocator@PAVCTextureAnimationRandomDecorator@NEffectUpdateDecorator@@@std@@@std@@QAEXXZ ; std::vector<NEffectUpdateDecorator::CTextureAnimationRandomDecorator *,std::allocator<NEffectUpdateDecorator::CTextureAnimationRandomDecorator *> >::clear

; 162  : 			m_kVct_pkFree.clear();

  00072	8b 4d fc	 mov	 ecx, DWORD PTR _this$[ebp]
  00075	83 c1 10	 add	 ecx, 16			; 00000010H
  00078	e8 00 00 00 00	 call	 ?clear@?$vector@PAVCTextureAnimationRandomDecorator@NEffectUpdateDecorator@@V?$allocator@PAVCTextureAnimationRandomDecorator@NEffectUpdateDecorator@@@std@@@std@@QAEXXZ ; std::vector<NEffectUpdateDecorator::CTextureAnimationRandomDecorator *,std::allocator<NEffectUpdateDecorator::CTextureAnimationRandomDecorator *> >::clear

; 163  : 		}

  0007d	c9		 leave
  0007e	c3		 ret	 0
?Destroy@?$CDynamicPoolEx@VCTextureAnimationRandomDecorator@NEffectUpdateDecorator@@@@QAEXXZ ENDP ; CDynamicPoolEx<NEffectUpdateDecorator::CTextureAnimationRandomDecorator>::Destroy
_TEXT	ENDS
; Function compile flags: /Odspy
; File D:\Metin2 Server Files\mainline\SRC_2014\Metin2Client\eterLib\Pool.h
; File C:\Program Files (x86)\Microsoft Visual Studio\2019\Community\VC\Tools\MSVC\14.28.29333\include\vector
; File D:\Metin2 Server Files\mainline\SRC_2014\Metin2Client\eterLib\Pool.h
; File C:\Program Files (x86)\Microsoft Visual Studio\2019\Community\VC\Tools\MSVC\14.28.29333\include\vector
; File D:\Metin2 Server Files\mainline\SRC_2014\Metin2Client\eterLib\Pool.h
;	COMDAT ??1?$CDynamicPoolEx@VCTextureAnimationRandomDecorator@NEffectUpdateDecorator@@@@UAE@XZ
_TEXT	SEGMENT
_this$ = -16						; size = 4
__$EHRec$ = -12						; size = 12
??1?$CDynamicPoolEx@VCTextureAnimationRandomDecorator@NEffectUpdateDecorator@@@@UAE@XZ PROC ; CDynamicPoolEx<NEffectUpdateDecorator::CTextureAnimationRandomDecorator>::~CDynamicPoolEx<NEffectUpdateDecorator::CTextureAnimationRandomDecorator>, COMDAT
; _this$ = ecx

; 132  : 		{

  00000	55		 push	 ebp
  00001	8b ec		 mov	 ebp, esp
  00003	6a ff		 push	 -1
  00005	68 00 00 00 00	 push	 __ehhandler$??1?$CDynamicPoolEx@VCTextureAnimationRandomDecorator@NEffectUpdateDecorator@@@@UAE@XZ
  0000a	64 a1 00 00 00
	00		 mov	 eax, DWORD PTR fs:0
  00010	50		 push	 eax
  00011	51		 push	 ecx
  00012	a1 00 00 00 00	 mov	 eax, DWORD PTR ___security_cookie
  00017	33 c5		 xor	 eax, ebp
  00019	50		 push	 eax
  0001a	8d 45 f4	 lea	 eax, DWORD PTR __$EHRec$[ebp]
  0001d	64 a3 00 00 00
	00		 mov	 DWORD PTR fs:0, eax
  00023	89 4d f0	 mov	 DWORD PTR _this$[ebp], ecx
  00026	8b 45 f0	 mov	 eax, DWORD PTR _this$[ebp]
  00029	c7 00 00 00 00
	00		 mov	 DWORD PTR [eax], OFFSET ??_7?$CDynamicPoolEx@VCTextureAnimationRandomDecorator@NEffectUpdateDecorator@@@@6B@

; 133  : 			assert(m_kVct_pkFree.size()==m_kVct_pkData.size());
; 134  : 			Destroy();

  0002f	8b 4d f0	 mov	 ecx, DWORD PTR _this$[ebp]
  00032	e8 00 00 00 00	 call	 ?Destroy@?$CDynamicPoolEx@VCTextureAnimationRandomDecorator@NEffectUpdateDecorator@@@@QAEXXZ ; CDynamicPoolEx<NEffectUpdateDecorator::CTextureAnimationRandomDecorator>::Destroy

; 142  : 		}

  00037	8b 4d f0	 mov	 ecx, DWORD PTR _this$[ebp]
  0003a	83 c1 10	 add	 ecx, 16			; 00000010H
; File C:\Program Files (x86)\Microsoft Visual Studio\2019\Community\VC\Tools\MSVC\14.28.29333\include\vector

; 673  :         _Tidy();

  0003d	e8 00 00 00 00	 call	 ?_Tidy@?$vector@PAVCTextureAnimationRandomDecorator@NEffectUpdateDecorator@@V?$allocator@PAVCTextureAnimationRandomDecorator@NEffectUpdateDecorator@@@std@@@std@@AAEXXZ ; std::vector<NEffectUpdateDecorator::CTextureAnimationRandomDecorator *,std::allocator<NEffectUpdateDecorator::CTextureAnimationRandomDecorator *> >::_Tidy
; File D:\Metin2 Server Files\mainline\SRC_2014\Metin2Client\eterLib\Pool.h

; 142  : 		}

  00042	8b 4d f0	 mov	 ecx, DWORD PTR _this$[ebp]
  00045	83 c1 04	 add	 ecx, 4
; File C:\Program Files (x86)\Microsoft Visual Studio\2019\Community\VC\Tools\MSVC\14.28.29333\include\vector

; 673  :         _Tidy();

  00048	e8 00 00 00 00	 call	 ?_Tidy@?$vector@PAVCTextureAnimationRandomDecorator@NEffectUpdateDecorator@@V?$allocator@PAVCTextureAnimationRandomDecorator@NEffectUpdateDecorator@@@std@@@std@@AAEXXZ ; std::vector<NEffectUpdateDecorator::CTextureAnimationRandomDecorator *,std::allocator<NEffectUpdateDecorator::CTextureAnimationRandomDecorator *> >::_Tidy
; File D:\Metin2 Server Files\mainline\SRC_2014\Metin2Client\eterLib\Pool.h

; 142  : 		}

  0004d	8b 4d f4	 mov	 ecx, DWORD PTR __$EHRec$[ebp]
  00050	64 89 0d 00 00
	00 00		 mov	 DWORD PTR fs:0, ecx
  00057	59		 pop	 ecx
  00058	c9		 leave
  00059	c3		 ret	 0
  0005a	cc		 int	 3
  0005b	cc		 int	 3
  0005c	cc		 int	 3
  0005d	cc		 int	 3
  0005e	cc		 int	 3
_TEXT	ENDS
;	COMDAT text$x
text$x	SEGMENT
__ehhandler$??1?$CDynamicPoolEx@VCTextureAnimationRandomDecorator@NEffectUpdateDecorator@@@@UAE@XZ:
  00000	90		 npad	 1
  00001	90		 npad	 1
  00002	8b 54 24 08	 mov	 edx, DWORD PTR [esp+8]
  00006	8d 42 0c	 lea	 eax, DWORD PTR [edx+12]
  00009	8b 4a f8	 mov	 ecx, DWORD PTR [edx-8]
  0000c	33 c8		 xor	 ecx, eax
  0000e	e8 00 00 00 00	 call	 @__security_check_cookie@4
  00013	b8 00 00 00 00	 mov	 eax, OFFSET __ehfuncinfo$??1?$CDynamicPoolEx@VCTextureAnimationRandomDecorator@NEffectUpdateDecorator@@@@UAE@XZ
  00018	e9 00 00 00 00	 jmp	 ___CxxFrameHandler3
text$x	ENDS
??1?$CDynamicPoolEx@VCTextureAnimationRandomDecorator@NEffectUpdateDecorator@@@@UAE@XZ ENDP ; CDynamicPoolEx<NEffectUpdateDecorator::CTextureAnimationRandomDecorator>::~CDynamicPoolEx<NEffectUpdateDecorator::CTextureAnimationRandomDecorator>
; Function compile flags: /Odspy
; File D:\Metin2 Server Files\mainline\SRC_2014\Metin2Client\eterLib\Pool.h
; File C:\Program Files (x86)\Microsoft Visual Studio\2019\Community\VC\Tools\MSVC\14.28.29333\include\vector
; File C:\Program Files (x86)\Microsoft Visual Studio\2019\Community\VC\Tools\MSVC\14.28.29333\include\xmemory
; File C:\Program Files (x86)\Microsoft Visual Studio\2019\Community\VC\Tools\MSVC\14.28.29333\include\vector
; File D:\Metin2 Server Files\mainline\SRC_2014\Metin2Client\eterLib\Pool.h
; File C:\Program Files (x86)\Microsoft Visual Studio\2019\Community\VC\Tools\MSVC\14.28.29333\include\vector
; File C:\Program Files (x86)\Microsoft Visual Studio\2019\Community\VC\Tools\MSVC\14.28.29333\include\xmemory
; File C:\Program Files (x86)\Microsoft Visual Studio\2019\Community\VC\Tools\MSVC\14.28.29333\include\vector
; File D:\Metin2 Server Files\mainline\SRC_2014\Metin2Client\eterLib\Pool.h
;	COMDAT ??0?$CDynamicPoolEx@VCTextureAnimationRandomDecorator@NEffectUpdateDecorator@@@@QAE@XZ
_TEXT	SEGMENT
_this$ = -28						; size = 4
_this$ = -24						; size = 4
_this$ = -20						; size = 4
_this$ = -16						; size = 4
_this$1 = -12						; size = 4
_this$2 = -8						; size = 4
_this$ = -4						; size = 4
??0?$CDynamicPoolEx@VCTextureAnimationRandomDecorator@NEffectUpdateDecorator@@@@QAE@XZ PROC ; CDynamicPoolEx<NEffectUpdateDecorator::CTextureAnimationRandomDecorator>::CDynamicPoolEx<NEffectUpdateDecorator::CTextureAnimationRandomDecorator>, COMDAT
; _this$ = ecx

; 126  : 		CDynamicPoolEx()

  00000	55		 push	 ebp
  00001	8b ec		 mov	 ebp, esp
  00003	83 ec 1c	 sub	 esp, 28			; 0000001cH
  00006	89 4d fc	 mov	 DWORD PTR _this$[ebp], ecx

; 127  : 		{

  00009	8b 45 fc	 mov	 eax, DWORD PTR _this$[ebp]
  0000c	c7 00 00 00 00
	00		 mov	 DWORD PTR [eax], OFFSET ??_7?$CDynamicPoolEx@VCTextureAnimationRandomDecorator@NEffectUpdateDecorator@@@@6B@
  00012	8b 45 fc	 mov	 eax, DWORD PTR _this$[ebp]
  00015	83 c0 04	 add	 eax, 4
  00018	89 45 f0	 mov	 DWORD PTR _this$[ebp], eax
; File C:\Program Files (x86)\Microsoft Visual Studio\2019\Community\VC\Tools\MSVC\14.28.29333\include\vector

; 445  :     vector() noexcept(is_nothrow_default_constructible_v<_Alty>) : _Mypair(_Zero_then_variadic_args_t{}) {

  0001b	8b 45 f0	 mov	 eax, DWORD PTR _this$[ebp]
  0001e	89 45 ec	 mov	 DWORD PTR _this$[ebp], eax
; File C:\Program Files (x86)\Microsoft Visual Studio\2019\Community\VC\Tools\MSVC\14.28.29333\include\xmemory

; 1339 :         : _Ty1(), _Myval2(_STD forward<_Other2>(_Val2)...) {}

  00021	8b 45 ec	 mov	 eax, DWORD PTR _this$[ebp]
  00024	89 45 f8	 mov	 DWORD PTR _this$2[ebp], eax
; File C:\Program Files (x86)\Microsoft Visual Studio\2019\Community\VC\Tools\MSVC\14.28.29333\include\vector

; 375  :     _Vector_val() noexcept : _Myfirst(), _Mylast(), _Myend() {}

  00027	8b 45 f8	 mov	 eax, DWORD PTR _this$2[ebp]
  0002a	83 20 00	 and	 DWORD PTR [eax], 0
  0002d	8b 45 f8	 mov	 eax, DWORD PTR _this$2[ebp]
  00030	83 60 04 00	 and	 DWORD PTR [eax+4], 0
  00034	8b 45 f8	 mov	 eax, DWORD PTR _this$2[ebp]
  00037	83 60 08 00	 and	 DWORD PTR [eax+8], 0
; File D:\Metin2 Server Files\mainline\SRC_2014\Metin2Client\eterLib\Pool.h

; 127  : 		{

  0003b	8b 45 fc	 mov	 eax, DWORD PTR _this$[ebp]
  0003e	83 c0 10	 add	 eax, 16			; 00000010H
  00041	89 45 e8	 mov	 DWORD PTR _this$[ebp], eax
; File C:\Program Files (x86)\Microsoft Visual Studio\2019\Community\VC\Tools\MSVC\14.28.29333\include\vector

; 445  :     vector() noexcept(is_nothrow_default_constructible_v<_Alty>) : _Mypair(_Zero_then_variadic_args_t{}) {

  00044	8b 45 e8	 mov	 eax, DWORD PTR _this$[ebp]
  00047	89 45 e4	 mov	 DWORD PTR _this$[ebp], eax
; File C:\Program Files (x86)\Microsoft Visual Studio\2019\Community\VC\Tools\MSVC\14.28.29333\include\xmemory

; 1339 :         : _Ty1(), _Myval2(_STD forward<_Other2>(_Val2)...) {}

  0004a	8b 45 e4	 mov	 eax, DWORD PTR _this$[ebp]
  0004d	89 45 f4	 mov	 DWORD PTR _this$1[ebp], eax
; File C:\Program Files (x86)\Microsoft Visual Studio\2019\Community\VC\Tools\MSVC\14.28.29333\include\vector

; 375  :     _Vector_val() noexcept : _Myfirst(), _Mylast(), _Myend() {}

  00050	8b 45 f4	 mov	 eax, DWORD PTR _this$1[ebp]
  00053	83 20 00	 and	 DWORD PTR [eax], 0
  00056	8b 45 f4	 mov	 eax, DWORD PTR _this$1[ebp]
  00059	83 60 04 00	 and	 DWORD PTR [eax+4], 0
  0005d	8b 45 f4	 mov	 eax, DWORD PTR _this$1[ebp]
  00060	83 60 08 00	 and	 DWORD PTR [eax+8], 0
; File D:\Metin2 Server Files\mainline\SRC_2014\Metin2Client\eterLib\Pool.h

; 128  : 			m_uInitCapacity=0;

  00064	8b 45 fc	 mov	 eax, DWORD PTR _this$[ebp]
  00067	83 60 1c 00	 and	 DWORD PTR [eax+28], 0

; 129  : 			m_uUsedCapacity=0;

  0006b	8b 45 fc	 mov	 eax, DWORD PTR _this$[ebp]
  0006e	83 60 20 00	 and	 DWORD PTR [eax+32], 0

; 130  : 		}

  00072	8b 45 fc	 mov	 eax, DWORD PTR _this$[ebp]
  00075	c9		 leave
  00076	c3		 ret	 0
??0?$CDynamicPoolEx@VCTextureAnimationRandomDecorator@NEffectUpdateDecorator@@@@QAE@XZ ENDP ; CDynamicPoolEx<NEffectUpdateDecorator::CTextureAnimationRandomDecorator>::CDynamicPoolEx<NEffectUpdateDecorator::CTextureAnimationRandomDecorator>
_TEXT	ENDS
; Function compile flags: /Odspy
;	COMDAT ??_G?$CDynamicPoolEx@VCAirResistanceDecorator@NEffectUpdateDecorator@@@@UAEPAXI@Z
_TEXT	SEGMENT
_this$ = -4						; size = 4
___flags$ = 8						; size = 4
??_G?$CDynamicPoolEx@VCAirResistanceDecorator@NEffectUpdateDecorator@@@@UAEPAXI@Z PROC ; CDynamicPoolEx<NEffectUpdateDecorator::CAirResistanceDecorator>::`scalar deleting destructor', COMDAT
; _this$ = ecx
  00000	55		 push	 ebp
  00001	8b ec		 mov	 ebp, esp
  00003	51		 push	 ecx
  00004	89 4d fc	 mov	 DWORD PTR _this$[ebp], ecx
  00007	8b 4d fc	 mov	 ecx, DWORD PTR _this$[ebp]
  0000a	e8 00 00 00 00	 call	 ??1?$CDynamicPoolEx@VCAirResistanceDecorator@NEffectUpdateDecorator@@@@UAE@XZ ; CDynamicPoolEx<NEffectUpdateDecorator::CAirResistanceDecorator>::~CDynamicPoolEx<NEffectUpdateDecorator::CAirResistanceDecorator>
  0000f	8b 45 08	 mov	 eax, DWORD PTR ___flags$[ebp]
  00012	83 e0 01	 and	 eax, 1
  00015	74 0c		 je	 SHORT $LN2@scalar
  00017	6a 24		 push	 36			; 00000024H
  00019	ff 75 fc	 push	 DWORD PTR _this$[ebp]
  0001c	e8 00 00 00 00	 call	 ??3@YAXPAXI@Z		; operator delete
  00021	59		 pop	 ecx
  00022	59		 pop	 ecx
$LN2@scalar:
  00023	8b 45 fc	 mov	 eax, DWORD PTR _this$[ebp]
  00026	c9		 leave
  00027	c2 04 00	 ret	 4
??_G?$CDynamicPoolEx@VCAirResistanceDecorator@NEffectUpdateDecorator@@@@UAEPAXI@Z ENDP ; CDynamicPoolEx<NEffectUpdateDecorator::CAirResistanceDecorator>::`scalar deleting destructor'
_TEXT	ENDS
; Function compile flags: /Odspy
; File C:\Program Files (x86)\Microsoft Visual Studio\2019\Community\VC\Tools\MSVC\14.28.29333\include\vector
; File C:\Program Files (x86)\Microsoft Visual Studio\2019\Community\VC\Tools\MSVC\14.28.29333\include\xmemory
; File C:\Program Files (x86)\Microsoft Visual Studio\2019\Community\VC\Tools\MSVC\14.28.29333\include\vector
; File C:\Program Files (x86)\Microsoft Visual Studio\2019\Community\VC\Tools\MSVC\14.28.29333\include\xmemory
; File C:\Program Files (x86)\Microsoft Visual Studio\2019\Community\VC\Tools\MSVC\14.28.29333\include\vector
; File C:\Program Files (x86)\Microsoft Visual Studio\2019\Community\VC\Tools\MSVC\14.28.29333\include\xmemory
; File C:\Program Files (x86)\Microsoft Visual Studio\2019\Community\VC\Tools\MSVC\14.28.29333\include\vector
;	COMDAT ?_Tidy@?$vector@PAVCAirResistanceDecorator@NEffectUpdateDecorator@@V?$allocator@PAVCAirResistanceDecorator@NEffectUpdateDecorator@@@std@@@std@@AAEXXZ
_TEXT	SEGMENT
$T1 = -52						; size = 4
__Ptr$ = -48						; size = 4
__Count$ = -44						; size = 4
$T2 = -40						; size = 4
__First$ = -36						; size = 4
__Last$ = -32						; size = 4
$T3 = -28						; size = 4
$T4 = -24						; size = 4
__Myend$ = -20						; size = 4
__Mylast$ = -16						; size = 4
_this$ = -12						; size = 4
__My_data$ = -8						; size = 4
__Myfirst$ = -4						; size = 4
?_Tidy@?$vector@PAVCAirResistanceDecorator@NEffectUpdateDecorator@@V?$allocator@PAVCAirResistanceDecorator@NEffectUpdateDecorator@@@std@@@std@@AAEXXZ PROC ; std::vector<NEffectUpdateDecorator::CAirResistanceDecorator *,std::allocator<NEffectUpdateDecorator::CAirResistanceDecorator *> >::_Tidy, COMDAT
; _this$ = ecx

; 1686 :     void _Tidy() noexcept { // free all storage

  00000	55		 push	 ebp
  00001	8b ec		 mov	 ebp, esp
  00003	83 ec 34	 sub	 esp, 52			; 00000034H
  00006	89 4d f4	 mov	 DWORD PTR _this$[ebp], ecx

; 1687 :         auto& _My_data    = _Mypair._Myval2;

  00009	8b 45 f4	 mov	 eax, DWORD PTR _this$[ebp]
  0000c	89 45 f8	 mov	 DWORD PTR __My_data$[ebp], eax

; 1688 :         pointer& _Myfirst = _My_data._Myfirst;

  0000f	8b 45 f8	 mov	 eax, DWORD PTR __My_data$[ebp]
  00012	89 45 fc	 mov	 DWORD PTR __Myfirst$[ebp], eax

; 1689 :         pointer& _Mylast  = _My_data._Mylast;

  00015	8b 45 f8	 mov	 eax, DWORD PTR __My_data$[ebp]
  00018	83 c0 04	 add	 eax, 4
  0001b	89 45 f0	 mov	 DWORD PTR __Mylast$[ebp], eax

; 1690 :         pointer& _Myend   = _My_data._Myend;

  0001e	8b 45 f8	 mov	 eax, DWORD PTR __My_data$[ebp]
  00021	83 c0 08	 add	 eax, 8
  00024	89 45 ec	 mov	 DWORD PTR __Myend$[ebp], eax

; 1691 : 
; 1692 :         _My_data._Orphan_all();
; 1693 : 
; 1694 :         if (_Myfirst) { // destroy and deallocate old array

  00027	8b 45 fc	 mov	 eax, DWORD PTR __Myfirst$[ebp]
  0002a	83 38 00	 cmp	 DWORD PTR [eax], 0
  0002d	74 74		 je	 SHORT $LN3@Tidy

; 1695 :             _Destroy(_Myfirst, _Mylast);

  0002f	8b 45 f0	 mov	 eax, DWORD PTR __Mylast$[ebp]
  00032	8b 00		 mov	 eax, DWORD PTR [eax]
  00034	89 45 e0	 mov	 DWORD PTR __Last$[ebp], eax
  00037	8b 45 fc	 mov	 eax, DWORD PTR __Myfirst$[ebp]
  0003a	8b 00		 mov	 eax, DWORD PTR [eax]
  0003c	89 45 dc	 mov	 DWORD PTR __First$[ebp], eax

; 1733 :         return _Mypair._Get_first();

  0003f	8b 45 f4	 mov	 eax, DWORD PTR _this$[ebp]
; File C:\Program Files (x86)\Microsoft Visual Studio\2019\Community\VC\Tools\MSVC\14.28.29333\include\xmemory

; 1347 :         return *this;

  00042	89 45 e8	 mov	 DWORD PTR $T4[ebp], eax
; File C:\Program Files (x86)\Microsoft Visual Studio\2019\Community\VC\Tools\MSVC\14.28.29333\include\vector

; 1733 :         return _Mypair._Get_first();

  00045	8b 45 e8	 mov	 eax, DWORD PTR $T4[ebp]
  00048	89 45 e4	 mov	 DWORD PTR $T3[ebp], eax

; 1612 :         _Destroy_range(_First, _Last, _Getal());

  0004b	ff 75 e4	 push	 DWORD PTR $T3[ebp]
  0004e	ff 75 e0	 push	 DWORD PTR __Last$[ebp]
  00051	ff 75 dc	 push	 DWORD PTR __First$[ebp]
  00054	e8 00 00 00 00	 call	 ??$_Destroy_range@V?$allocator@PAVCAirResistanceDecorator@NEffectUpdateDecorator@@@std@@@std@@YAXPAPAVCAirResistanceDecorator@NEffectUpdateDecorator@@QAPAV12@AAV?$allocator@PAVCAirResistanceDecorator@NEffectUpdateDecorator@@@0@@Z ; std::_Destroy_range<std::allocator<NEffectUpdateDecorator::CAirResistanceDecorator *> >
  00059	83 c4 0c	 add	 esp, 12			; 0000000cH

; 1733 :         return _Mypair._Get_first();

  0005c	8b 45 f4	 mov	 eax, DWORD PTR _this$[ebp]
; File C:\Program Files (x86)\Microsoft Visual Studio\2019\Community\VC\Tools\MSVC\14.28.29333\include\xmemory

; 1347 :         return *this;

  0005f	89 45 d8	 mov	 DWORD PTR $T2[ebp], eax
; File C:\Program Files (x86)\Microsoft Visual Studio\2019\Community\VC\Tools\MSVC\14.28.29333\include\vector

; 1733 :         return _Mypair._Get_first();

  00062	8b 45 d8	 mov	 eax, DWORD PTR $T2[ebp]
  00065	89 45 cc	 mov	 DWORD PTR $T1[ebp], eax

; 1696 :             _Getal().deallocate(_Myfirst, static_cast<size_type>(_Myend - _Myfirst));

  00068	8b 45 ec	 mov	 eax, DWORD PTR __Myend$[ebp]
  0006b	8b 4d fc	 mov	 ecx, DWORD PTR __Myfirst$[ebp]
  0006e	8b 00		 mov	 eax, DWORD PTR [eax]
  00070	2b 01		 sub	 eax, DWORD PTR [ecx]
  00072	c1 f8 02	 sar	 eax, 2
  00075	89 45 d4	 mov	 DWORD PTR __Count$[ebp], eax
  00078	8b 45 fc	 mov	 eax, DWORD PTR __Myfirst$[ebp]
  0007b	8b 00		 mov	 eax, DWORD PTR [eax]
  0007d	89 45 d0	 mov	 DWORD PTR __Ptr$[ebp], eax
; File C:\Program Files (x86)\Microsoft Visual Studio\2019\Community\VC\Tools\MSVC\14.28.29333\include\xmemory

; 810  :         _Deallocate<_New_alignof<_Ty>>(_Ptr, sizeof(_Ty) * _Count);

  00080	8b 45 d4	 mov	 eax, DWORD PTR __Count$[ebp]
  00083	c1 e0 02	 shl	 eax, 2
  00086	50		 push	 eax
  00087	ff 75 d0	 push	 DWORD PTR __Ptr$[ebp]
  0008a	e8 00 00 00 00	 call	 ??$_Deallocate@$07$0A@@std@@YAXPAXI@Z ; std::_Deallocate<8,0>
  0008f	59		 pop	 ecx
  00090	59		 pop	 ecx
; File C:\Program Files (x86)\Microsoft Visual Studio\2019\Community\VC\Tools\MSVC\14.28.29333\include\vector

; 1698 :             _Myfirst = pointer();

  00091	8b 45 fc	 mov	 eax, DWORD PTR __Myfirst$[ebp]
  00094	83 20 00	 and	 DWORD PTR [eax], 0

; 1699 :             _Mylast  = pointer();

  00097	8b 45 f0	 mov	 eax, DWORD PTR __Mylast$[ebp]
  0009a	83 20 00	 and	 DWORD PTR [eax], 0

; 1700 :             _Myend   = pointer();

  0009d	8b 45 ec	 mov	 eax, DWORD PTR __Myend$[ebp]
  000a0	83 20 00	 and	 DWORD PTR [eax], 0
$LN3@Tidy:

; 1701 :         }
; 1702 :     }

  000a3	c9		 leave
  000a4	c3		 ret	 0
?_Tidy@?$vector@PAVCAirResistanceDecorator@NEffectUpdateDecorator@@V?$allocator@PAVCAirResistanceDecorator@NEffectUpdateDecorator@@@std@@@std@@AAEXXZ ENDP ; std::vector<NEffectUpdateDecorator::CAirResistanceDecorator *,std::allocator<NEffectUpdateDecorator::CAirResistanceDecorator *> >::_Tidy
_TEXT	ENDS
; Function compile flags: /Odspy
; File C:\Program Files (x86)\Microsoft Visual Studio\2019\Community\VC\Tools\MSVC\14.28.29333\include\vector
; File C:\Program Files (x86)\Microsoft Visual Studio\2019\Community\VC\Tools\MSVC\14.28.29333\include\xmemory
; File C:\Program Files (x86)\Microsoft Visual Studio\2019\Community\VC\Tools\MSVC\14.28.29333\include\vector
;	COMDAT ?clear@?$vector@PAVCAirResistanceDecorator@NEffectUpdateDecorator@@V?$allocator@PAVCAirResistanceDecorator@NEffectUpdateDecorator@@@std@@@std@@QAEXXZ
_TEXT	SEGMENT
__First$ = -32						; size = 4
__Last$ = -28						; size = 4
$T1 = -24						; size = 4
$T2 = -20						; size = 4
__Myfirst$ = -16					; size = 4
__Mylast$ = -12						; size = 4
_this$ = -8						; size = 4
__My_data$ = -4						; size = 4
?clear@?$vector@PAVCAirResistanceDecorator@NEffectUpdateDecorator@@V?$allocator@PAVCAirResistanceDecorator@NEffectUpdateDecorator@@@std@@@std@@QAEXXZ PROC ; std::vector<NEffectUpdateDecorator::CAirResistanceDecorator *,std::allocator<NEffectUpdateDecorator::CAirResistanceDecorator *> >::clear, COMDAT
; _this$ = ecx

; 1383 :     void clear() noexcept { // erase all

  00000	55		 push	 ebp
  00001	8b ec		 mov	 ebp, esp
  00003	83 ec 20	 sub	 esp, 32			; 00000020H
  00006	89 4d f8	 mov	 DWORD PTR _this$[ebp], ecx

; 1384 :         auto& _My_data    = _Mypair._Myval2;

  00009	8b 45 f8	 mov	 eax, DWORD PTR _this$[ebp]
  0000c	89 45 fc	 mov	 DWORD PTR __My_data$[ebp], eax

; 1385 :         pointer& _Myfirst = _My_data._Myfirst;

  0000f	8b 45 fc	 mov	 eax, DWORD PTR __My_data$[ebp]
  00012	89 45 f0	 mov	 DWORD PTR __Myfirst$[ebp], eax

; 1386 :         pointer& _Mylast  = _My_data._Mylast;

  00015	8b 45 fc	 mov	 eax, DWORD PTR __My_data$[ebp]
  00018	83 c0 04	 add	 eax, 4
  0001b	89 45 f4	 mov	 DWORD PTR __Mylast$[ebp], eax

; 1387 : 
; 1388 :         _My_data._Orphan_all();
; 1389 :         _Destroy(_Myfirst, _Mylast);

  0001e	8b 45 f4	 mov	 eax, DWORD PTR __Mylast$[ebp]
  00021	8b 00		 mov	 eax, DWORD PTR [eax]
  00023	89 45 e4	 mov	 DWORD PTR __Last$[ebp], eax
  00026	8b 45 f0	 mov	 eax, DWORD PTR __Myfirst$[ebp]
  00029	8b 00		 mov	 eax, DWORD PTR [eax]
  0002b	89 45 e0	 mov	 DWORD PTR __First$[ebp], eax

; 1733 :         return _Mypair._Get_first();

  0002e	8b 45 f8	 mov	 eax, DWORD PTR _this$[ebp]
; File C:\Program Files (x86)\Microsoft Visual Studio\2019\Community\VC\Tools\MSVC\14.28.29333\include\xmemory

; 1347 :         return *this;

  00031	89 45 ec	 mov	 DWORD PTR $T2[ebp], eax
; File C:\Program Files (x86)\Microsoft Visual Studio\2019\Community\VC\Tools\MSVC\14.28.29333\include\vector

; 1733 :         return _Mypair._Get_first();

  00034	8b 45 ec	 mov	 eax, DWORD PTR $T2[ebp]
  00037	89 45 e8	 mov	 DWORD PTR $T1[ebp], eax

; 1612 :         _Destroy_range(_First, _Last, _Getal());

  0003a	ff 75 e8	 push	 DWORD PTR $T1[ebp]
  0003d	ff 75 e4	 push	 DWORD PTR __Last$[ebp]
  00040	ff 75 e0	 push	 DWORD PTR __First$[ebp]
  00043	e8 00 00 00 00	 call	 ??$_Destroy_range@V?$allocator@PAVCAirResistanceDecorator@NEffectUpdateDecorator@@@std@@@std@@YAXPAPAVCAirResistanceDecorator@NEffectUpdateDecorator@@QAPAV12@AAV?$allocator@PAVCAirResistanceDecorator@NEffectUpdateDecorator@@@0@@Z ; std::_Destroy_range<std::allocator<NEffectUpdateDecorator::CAirResistanceDecorator *> >
  00048	83 c4 0c	 add	 esp, 12			; 0000000cH

; 1390 :         _Mylast = _Myfirst;

  0004b	8b 45 f4	 mov	 eax, DWORD PTR __Mylast$[ebp]
  0004e	8b 4d f0	 mov	 ecx, DWORD PTR __Myfirst$[ebp]
  00051	8b 09		 mov	 ecx, DWORD PTR [ecx]
  00053	89 08		 mov	 DWORD PTR [eax], ecx

; 1391 :     }

  00055	c9		 leave
  00056	c3		 ret	 0
?clear@?$vector@PAVCAirResistanceDecorator@NEffectUpdateDecorator@@V?$allocator@PAVCAirResistanceDecorator@NEffectUpdateDecorator@@@std@@@std@@QAEXXZ ENDP ; std::vector<NEffectUpdateDecorator::CAirResistanceDecorator *,std::allocator<NEffectUpdateDecorator::CAirResistanceDecorator *> >::clear
_TEXT	ENDS
; Function compile flags: /Odspy
; File D:\Metin2 Server Files\mainline\SRC_2014\Metin2Client\eterLib\Pool.h
;	COMDAT ?Delete@?$CDynamicPoolEx@VCAirResistanceDecorator@NEffectUpdateDecorator@@@@KAXPAVCAirResistanceDecorator@NEffectUpdateDecorator@@@Z
_TEXT	SEGMENT
_pkData$ = 8						; size = 4
?Delete@?$CDynamicPoolEx@VCAirResistanceDecorator@NEffectUpdateDecorator@@@@KAXPAVCAirResistanceDecorator@NEffectUpdateDecorator@@@Z PROC ; CDynamicPoolEx<NEffectUpdateDecorator::CAirResistanceDecorator>::Delete, COMDAT

; 223  : 		{

  00000	55		 push	 ebp
  00001	8b ec		 mov	 ebp, esp

; 224  : 			::operator delete(pkData);

  00003	ff 75 08	 push	 DWORD PTR _pkData$[ebp]
  00006	e8 00 00 00 00	 call	 ??3@YAXPAX@Z		; operator delete
  0000b	59		 pop	 ecx

; 225  : 		}

  0000c	5d		 pop	 ebp
  0000d	c3		 ret	 0
?Delete@?$CDynamicPoolEx@VCAirResistanceDecorator@NEffectUpdateDecorator@@@@KAXPAVCAirResistanceDecorator@NEffectUpdateDecorator@@@Z ENDP ; CDynamicPoolEx<NEffectUpdateDecorator::CAirResistanceDecorator>::Delete
_TEXT	ENDS
; Function compile flags: /Odspy
; File D:\Metin2 Server Files\mainline\SRC_2014\Metin2Client\eterLib\Pool.h
; File C:\Program Files (x86)\Microsoft Visual Studio\2019\Community\VC\Tools\MSVC\14.28.29333\include\vector
; File C:\Program Files (x86)\Microsoft Visual Studio\2019\Community\VC\Tools\MSVC\14.28.29333\include\xstddef
; File C:\Program Files (x86)\Microsoft Visual Studio\2019\Community\VC\Tools\MSVC\14.28.29333\include\vector
; File C:\Program Files (x86)\Microsoft Visual Studio\2019\Community\VC\Tools\MSVC\14.28.29333\include\xstddef
; File C:\Program Files (x86)\Microsoft Visual Studio\2019\Community\VC\Tools\MSVC\14.28.29333\include\vector
; File D:\Metin2 Server Files\mainline\SRC_2014\Metin2Client\eterLib\Pool.h
;	COMDAT ?Destroy@?$CDynamicPoolEx@VCAirResistanceDecorator@NEffectUpdateDecorator@@@@QAEXXZ
_TEXT	SEGMENT
$T1 = -44						; size = 4
$T2 = -40						; size = 4
$T3 = -36						; size = 4
$T4 = -32						; size = 4
$T5 = -28						; size = 4
___param0$ = -24					; size = 4
$T6 = -20						; size = 4
___param0$ = -16					; size = 4
__My_data$7 = -12					; size = 4
__My_data$8 = -8					; size = 4
_this$ = -4						; size = 4
?Destroy@?$CDynamicPoolEx@VCAirResistanceDecorator@NEffectUpdateDecorator@@@@QAEXXZ PROC ; CDynamicPoolEx<NEffectUpdateDecorator::CAirResistanceDecorator>::Destroy, COMDAT
; _this$ = ecx

; 150  : 		{

  00000	55		 push	 ebp
  00001	8b ec		 mov	 ebp, esp
  00003	83 ec 2c	 sub	 esp, 44			; 0000002cH
  00006	89 4d fc	 mov	 DWORD PTR _this$[ebp], ecx
; File C:\Program Files (x86)\Microsoft Visual Studio\2019\Community\VC\Tools\MSVC\14.28.29333\include\vector

; 1420 :         auto& _My_data = _Mypair._Myval2;

  00009	8b 45 fc	 mov	 eax, DWORD PTR _this$[ebp]
  0000c	83 c0 04	 add	 eax, 4
  0000f	89 45 f8	 mov	 DWORD PTR __My_data$8[ebp], eax
; File C:\Program Files (x86)\Microsoft Visual Studio\2019\Community\VC\Tools\MSVC\14.28.29333\include\xstddef

; 275  :     return __builtin_addressof(_Val);

  00012	8b 45 f8	 mov	 eax, DWORD PTR __My_data$8[ebp]
  00015	89 45 d8	 mov	 DWORD PTR $T2[ebp], eax
; File C:\Program Files (x86)\Microsoft Visual Studio\2019\Community\VC\Tools\MSVC\14.28.29333\include\vector

; 1421 :         return iterator(_My_data._Mylast, _STD addressof(_My_data));

  00018	8b 45 f8	 mov	 eax, DWORD PTR __My_data$8[ebp]
  0001b	8b 40 04	 mov	 eax, DWORD PTR [eax+4]
  0001e	89 45 f0	 mov	 DWORD PTR ___param0$[ebp], eax

; 42   :     _Vector_const_iterator(_Tptr _Parg, const _Container_base* _Pvector) noexcept : _Ptr(_Parg) {

  00021	8b 45 f0	 mov	 eax, DWORD PTR ___param0$[ebp]
  00024	89 45 ec	 mov	 DWORD PTR $T6[ebp], eax

; 1421 :         return iterator(_My_data._Mylast, _STD addressof(_My_data));

  00027	8d 45 ec	 lea	 eax, DWORD PTR $T6[ebp]
  0002a	89 45 e0	 mov	 DWORD PTR $T4[ebp], eax

; 1410 :         auto& _My_data = _Mypair._Myval2;

  0002d	8b 45 fc	 mov	 eax, DWORD PTR _this$[ebp]
  00030	83 c0 04	 add	 eax, 4
  00033	89 45 f4	 mov	 DWORD PTR __My_data$7[ebp], eax
; File C:\Program Files (x86)\Microsoft Visual Studio\2019\Community\VC\Tools\MSVC\14.28.29333\include\xstddef

; 275  :     return __builtin_addressof(_Val);

  00036	8b 45 f4	 mov	 eax, DWORD PTR __My_data$7[ebp]
  00039	89 45 d4	 mov	 DWORD PTR $T1[ebp], eax
; File C:\Program Files (x86)\Microsoft Visual Studio\2019\Community\VC\Tools\MSVC\14.28.29333\include\vector

; 1411 :         return iterator(_My_data._Myfirst, _STD addressof(_My_data));

  0003c	8b 45 f4	 mov	 eax, DWORD PTR __My_data$7[ebp]
  0003f	8b 00		 mov	 eax, DWORD PTR [eax]
  00041	89 45 e8	 mov	 DWORD PTR ___param0$[ebp], eax

; 42   :     _Vector_const_iterator(_Tptr _Parg, const _Container_base* _Pvector) noexcept : _Ptr(_Parg) {

  00044	8b 45 e8	 mov	 eax, DWORD PTR ___param0$[ebp]
  00047	89 45 e4	 mov	 DWORD PTR $T5[ebp], eax

; 1411 :         return iterator(_My_data._Myfirst, _STD addressof(_My_data));

  0004a	8d 45 e4	 lea	 eax, DWORD PTR $T5[ebp]
  0004d	89 45 dc	 mov	 DWORD PTR $T3[ebp], eax
; File D:\Metin2 Server Files\mainline\SRC_2014\Metin2Client\eterLib\Pool.h

; 160  : 			std::for_each(m_kVct_pkData.begin(), m_kVct_pkData.end(), Delete);

  00050	68 00 00 00 00	 push	 OFFSET ?Delete@?$CDynamicPoolEx@VCAirResistanceDecorator@NEffectUpdateDecorator@@@@KAXPAVCAirResistanceDecorator@NEffectUpdateDecorator@@@Z ; CDynamicPoolEx<NEffectUpdateDecorator::CAirResistanceDecorator>::Delete
  00055	8b 45 e0	 mov	 eax, DWORD PTR $T4[ebp]
  00058	ff 30		 push	 DWORD PTR [eax]
  0005a	8b 45 dc	 mov	 eax, DWORD PTR $T3[ebp]
  0005d	ff 30		 push	 DWORD PTR [eax]
  0005f	e8 00 00 00 00	 call	 ??$for_each@V?$_Vector_iterator@V?$_Vector_val@U?$_Simple_types@PAVCAirResistanceDecorator@NEffectUpdateDecorator@@@std@@@std@@@std@@P6AXPAVCAirResistanceDecorator@NEffectUpdateDecorator@@@Z@std@@YAP6AXPAVCAirResistanceDecorator@NEffectUpdateDecorator@@@ZV?$_Vector_iterator@V?$_Vector_val@U?$_Simple_types@PAVCAirResistanceDecorator@NEffectUpdateDecorator@@@std@@@std@@@0@1P6AX0@Z@Z ; std::for_each<std::_Vector_iterator<std::_Vector_val<std::_Simple_types<NEffectUpdateDecorator::CAirResistanceDecorator *> > >,void (__cdecl*)(NEffectUpdateDecorator::CAirResistanceDecorator *)>
  00064	83 c4 0c	 add	 esp, 12			; 0000000cH

; 161  : 			m_kVct_pkData.clear();

  00067	8b 4d fc	 mov	 ecx, DWORD PTR _this$[ebp]
  0006a	83 c1 04	 add	 ecx, 4
  0006d	e8 00 00 00 00	 call	 ?clear@?$vector@PAVCAirResistanceDecorator@NEffectUpdateDecorator@@V?$allocator@PAVCAirResistanceDecorator@NEffectUpdateDecorator@@@std@@@std@@QAEXXZ ; std::vector<NEffectUpdateDecorator::CAirResistanceDecorator *,std::allocator<NEffectUpdateDecorator::CAirResistanceDecorator *> >::clear

; 162  : 			m_kVct_pkFree.clear();

  00072	8b 4d fc	 mov	 ecx, DWORD PTR _this$[ebp]
  00075	83 c1 10	 add	 ecx, 16			; 00000010H
  00078	e8 00 00 00 00	 call	 ?clear@?$vector@PAVCAirResistanceDecorator@NEffectUpdateDecorator@@V?$allocator@PAVCAirResistanceDecorator@NEffectUpdateDecorator@@@std@@@std@@QAEXXZ ; std::vector<NEffectUpdateDecorator::CAirResistanceDecorator *,std::allocator<NEffectUpdateDecorator::CAirResistanceDecorator *> >::clear

; 163  : 		}

  0007d	c9		 leave
  0007e	c3		 ret	 0
?Destroy@?$CDynamicPoolEx@VCAirResistanceDecorator@NEffectUpdateDecorator@@@@QAEXXZ ENDP ; CDynamicPoolEx<NEffectUpdateDecorator::CAirResistanceDecorator>::Destroy
_TEXT	ENDS
; Function compile flags: /Odspy
; File D:\Metin2 Server Files\mainline\SRC_2014\Metin2Client\eterLib\Pool.h
; File C:\Program Files (x86)\Microsoft Visual Studio\2019\Community\VC\Tools\MSVC\14.28.29333\include\vector
; File D:\Metin2 Server Files\mainline\SRC_2014\Metin2Client\eterLib\Pool.h
; File C:\Program Files (x86)\Microsoft Visual Studio\2019\Community\VC\Tools\MSVC\14.28.29333\include\vector
; File D:\Metin2 Server Files\mainline\SRC_2014\Metin2Client\eterLib\Pool.h
;	COMDAT ??1?$CDynamicPoolEx@VCAirResistanceDecorator@NEffectUpdateDecorator@@@@UAE@XZ
_TEXT	SEGMENT
_this$ = -16						; size = 4
__$EHRec$ = -12						; size = 12
??1?$CDynamicPoolEx@VCAirResistanceDecorator@NEffectUpdateDecorator@@@@UAE@XZ PROC ; CDynamicPoolEx<NEffectUpdateDecorator::CAirResistanceDecorator>::~CDynamicPoolEx<NEffectUpdateDecorator::CAirResistanceDecorator>, COMDAT
; _this$ = ecx

; 132  : 		{

  00000	55		 push	 ebp
  00001	8b ec		 mov	 ebp, esp
  00003	6a ff		 push	 -1
  00005	68 00 00 00 00	 push	 __ehhandler$??1?$CDynamicPoolEx@VCAirResistanceDecorator@NEffectUpdateDecorator@@@@UAE@XZ
  0000a	64 a1 00 00 00
	00		 mov	 eax, DWORD PTR fs:0
  00010	50		 push	 eax
  00011	51		 push	 ecx
  00012	a1 00 00 00 00	 mov	 eax, DWORD PTR ___security_cookie
  00017	33 c5		 xor	 eax, ebp
  00019	50		 push	 eax
  0001a	8d 45 f4	 lea	 eax, DWORD PTR __$EHRec$[ebp]
  0001d	64 a3 00 00 00
	00		 mov	 DWORD PTR fs:0, eax
  00023	89 4d f0	 mov	 DWORD PTR _this$[ebp], ecx
  00026	8b 45 f0	 mov	 eax, DWORD PTR _this$[ebp]
  00029	c7 00 00 00 00
	00		 mov	 DWORD PTR [eax], OFFSET ??_7?$CDynamicPoolEx@VCAirResistanceDecorator@NEffectUpdateDecorator@@@@6B@

; 133  : 			assert(m_kVct_pkFree.size()==m_kVct_pkData.size());
; 134  : 			Destroy();

  0002f	8b 4d f0	 mov	 ecx, DWORD PTR _this$[ebp]
  00032	e8 00 00 00 00	 call	 ?Destroy@?$CDynamicPoolEx@VCAirResistanceDecorator@NEffectUpdateDecorator@@@@QAEXXZ ; CDynamicPoolEx<NEffectUpdateDecorator::CAirResistanceDecorator>::Destroy

; 142  : 		}

  00037	8b 4d f0	 mov	 ecx, DWORD PTR _this$[ebp]
  0003a	83 c1 10	 add	 ecx, 16			; 00000010H
; File C:\Program Files (x86)\Microsoft Visual Studio\2019\Community\VC\Tools\MSVC\14.28.29333\include\vector

; 673  :         _Tidy();

  0003d	e8 00 00 00 00	 call	 ?_Tidy@?$vector@PAVCAirResistanceDecorator@NEffectUpdateDecorator@@V?$allocator@PAVCAirResistanceDecorator@NEffectUpdateDecorator@@@std@@@std@@AAEXXZ ; std::vector<NEffectUpdateDecorator::CAirResistanceDecorator *,std::allocator<NEffectUpdateDecorator::CAirResistanceDecorator *> >::_Tidy
; File D:\Metin2 Server Files\mainline\SRC_2014\Metin2Client\eterLib\Pool.h

; 142  : 		}

  00042	8b 4d f0	 mov	 ecx, DWORD PTR _this$[ebp]
  00045	83 c1 04	 add	 ecx, 4
; File C:\Program Files (x86)\Microsoft Visual Studio\2019\Community\VC\Tools\MSVC\14.28.29333\include\vector

; 673  :         _Tidy();

  00048	e8 00 00 00 00	 call	 ?_Tidy@?$vector@PAVCAirResistanceDecorator@NEffectUpdateDecorator@@V?$allocator@PAVCAirResistanceDecorator@NEffectUpdateDecorator@@@std@@@std@@AAEXXZ ; std::vector<NEffectUpdateDecorator::CAirResistanceDecorator *,std::allocator<NEffectUpdateDecorator::CAirResistanceDecorator *> >::_Tidy
; File D:\Metin2 Server Files\mainline\SRC_2014\Metin2Client\eterLib\Pool.h

; 142  : 		}

  0004d	8b 4d f4	 mov	 ecx, DWORD PTR __$EHRec$[ebp]
  00050	64 89 0d 00 00
	00 00		 mov	 DWORD PTR fs:0, ecx
  00057	59		 pop	 ecx
  00058	c9		 leave
  00059	c3		 ret	 0
  0005a	cc		 int	 3
  0005b	cc		 int	 3
  0005c	cc		 int	 3
  0005d	cc		 int	 3
  0005e	cc		 int	 3
_TEXT	ENDS
;	COMDAT text$x
text$x	SEGMENT
__ehhandler$??1?$CDynamicPoolEx@VCAirResistanceDecorator@NEffectUpdateDecorator@@@@UAE@XZ:
  00000	90		 npad	 1
  00001	90		 npad	 1
  00002	8b 54 24 08	 mov	 edx, DWORD PTR [esp+8]
  00006	8d 42 0c	 lea	 eax, DWORD PTR [edx+12]
  00009	8b 4a f8	 mov	 ecx, DWORD PTR [edx-8]
  0000c	33 c8		 xor	 ecx, eax
  0000e	e8 00 00 00 00	 call	 @__security_check_cookie@4
  00013	b8 00 00 00 00	 mov	 eax, OFFSET __ehfuncinfo$??1?$CDynamicPoolEx@VCAirResistanceDecorator@NEffectUpdateDecorator@@@@UAE@XZ
  00018	e9 00 00 00 00	 jmp	 ___CxxFrameHandler3
text$x	ENDS
??1?$CDynamicPoolEx@VCAirResistanceDecorator@NEffectUpdateDecorator@@@@UAE@XZ ENDP ; CDynamicPoolEx<NEffectUpdateDecorator::CAirResistanceDecorator>::~CDynamicPoolEx<NEffectUpdateDecorator::CAirResistanceDecorator>
; Function compile flags: /Odspy
; File D:\Metin2 Server Files\mainline\SRC_2014\Metin2Client\eterLib\Pool.h
; File C:\Program Files (x86)\Microsoft Visual Studio\2019\Community\VC\Tools\MSVC\14.28.29333\include\vector
; File C:\Program Files (x86)\Microsoft Visual Studio\2019\Community\VC\Tools\MSVC\14.28.29333\include\xmemory
; File C:\Program Files (x86)\Microsoft Visual Studio\2019\Community\VC\Tools\MSVC\14.28.29333\include\vector
; File D:\Metin2 Server Files\mainline\SRC_2014\Metin2Client\eterLib\Pool.h
; File C:\Program Files (x86)\Microsoft Visual Studio\2019\Community\VC\Tools\MSVC\14.28.29333\include\vector
; File C:\Program Files (x86)\Microsoft Visual Studio\2019\Community\VC\Tools\MSVC\14.28.29333\include\xmemory
; File C:\Program Files (x86)\Microsoft Visual Studio\2019\Community\VC\Tools\MSVC\14.28.29333\include\vector
; File D:\Metin2 Server Files\mainline\SRC_2014\Metin2Client\eterLib\Pool.h
;	COMDAT ??0?$CDynamicPoolEx@VCAirResistanceDecorator@NEffectUpdateDecorator@@@@QAE@XZ
_TEXT	SEGMENT
_this$ = -28						; size = 4
_this$ = -24						; size = 4
_this$ = -20						; size = 4
_this$ = -16						; size = 4
_this$1 = -12						; size = 4
_this$2 = -8						; size = 4
_this$ = -4						; size = 4
??0?$CDynamicPoolEx@VCAirResistanceDecorator@NEffectUpdateDecorator@@@@QAE@XZ PROC ; CDynamicPoolEx<NEffectUpdateDecorator::CAirResistanceDecorator>::CDynamicPoolEx<NEffectUpdateDecorator::CAirResistanceDecorator>, COMDAT
; _this$ = ecx

; 126  : 		CDynamicPoolEx()

  00000	55		 push	 ebp
  00001	8b ec		 mov	 ebp, esp
  00003	83 ec 1c	 sub	 esp, 28			; 0000001cH
  00006	89 4d fc	 mov	 DWORD PTR _this$[ebp], ecx

; 127  : 		{

  00009	8b 45 fc	 mov	 eax, DWORD PTR _this$[ebp]
  0000c	c7 00 00 00 00
	00		 mov	 DWORD PTR [eax], OFFSET ??_7?$CDynamicPoolEx@VCAirResistanceDecorator@NEffectUpdateDecorator@@@@6B@
  00012	8b 45 fc	 mov	 eax, DWORD PTR _this$[ebp]
  00015	83 c0 04	 add	 eax, 4
  00018	89 45 f0	 mov	 DWORD PTR _this$[ebp], eax
; File C:\Program Files (x86)\Microsoft Visual Studio\2019\Community\VC\Tools\MSVC\14.28.29333\include\vector

; 445  :     vector() noexcept(is_nothrow_default_constructible_v<_Alty>) : _Mypair(_Zero_then_variadic_args_t{}) {

  0001b	8b 45 f0	 mov	 eax, DWORD PTR _this$[ebp]
  0001e	89 45 ec	 mov	 DWORD PTR _this$[ebp], eax
; File C:\Program Files (x86)\Microsoft Visual Studio\2019\Community\VC\Tools\MSVC\14.28.29333\include\xmemory

; 1339 :         : _Ty1(), _Myval2(_STD forward<_Other2>(_Val2)...) {}

  00021	8b 45 ec	 mov	 eax, DWORD PTR _this$[ebp]
  00024	89 45 f8	 mov	 DWORD PTR _this$2[ebp], eax
; File C:\Program Files (x86)\Microsoft Visual Studio\2019\Community\VC\Tools\MSVC\14.28.29333\include\vector

; 375  :     _Vector_val() noexcept : _Myfirst(), _Mylast(), _Myend() {}

  00027	8b 45 f8	 mov	 eax, DWORD PTR _this$2[ebp]
  0002a	83 20 00	 and	 DWORD PTR [eax], 0
  0002d	8b 45 f8	 mov	 eax, DWORD PTR _this$2[ebp]
  00030	83 60 04 00	 and	 DWORD PTR [eax+4], 0
  00034	8b 45 f8	 mov	 eax, DWORD PTR _this$2[ebp]
  00037	83 60 08 00	 and	 DWORD PTR [eax+8], 0
; File D:\Metin2 Server Files\mainline\SRC_2014\Metin2Client\eterLib\Pool.h

; 127  : 		{

  0003b	8b 45 fc	 mov	 eax, DWORD PTR _this$[ebp]
  0003e	83 c0 10	 add	 eax, 16			; 00000010H
  00041	89 45 e8	 mov	 DWORD PTR _this$[ebp], eax
; File C:\Program Files (x86)\Microsoft Visual Studio\2019\Community\VC\Tools\MSVC\14.28.29333\include\vector

; 445  :     vector() noexcept(is_nothrow_default_constructible_v<_Alty>) : _Mypair(_Zero_then_variadic_args_t{}) {

  00044	8b 45 e8	 mov	 eax, DWORD PTR _this$[ebp]
  00047	89 45 e4	 mov	 DWORD PTR _this$[ebp], eax
; File C:\Program Files (x86)\Microsoft Visual Studio\2019\Community\VC\Tools\MSVC\14.28.29333\include\xmemory

; 1339 :         : _Ty1(), _Myval2(_STD forward<_Other2>(_Val2)...) {}

  0004a	8b 45 e4	 mov	 eax, DWORD PTR _this$[ebp]
  0004d	89 45 f4	 mov	 DWORD PTR _this$1[ebp], eax
; File C:\Program Files (x86)\Microsoft Visual Studio\2019\Community\VC\Tools\MSVC\14.28.29333\include\vector

; 375  :     _Vector_val() noexcept : _Myfirst(), _Mylast(), _Myend() {}

  00050	8b 45 f4	 mov	 eax, DWORD PTR _this$1[ebp]
  00053	83 20 00	 and	 DWORD PTR [eax], 0
  00056	8b 45 f4	 mov	 eax, DWORD PTR _this$1[ebp]
  00059	83 60 04 00	 and	 DWORD PTR [eax+4], 0
  0005d	8b 45 f4	 mov	 eax, DWORD PTR _this$1[ebp]
  00060	83 60 08 00	 and	 DWORD PTR [eax+8], 0
; File D:\Metin2 Server Files\mainline\SRC_2014\Metin2Client\eterLib\Pool.h

; 128  : 			m_uInitCapacity=0;

  00064	8b 45 fc	 mov	 eax, DWORD PTR _this$[ebp]
  00067	83 60 1c 00	 and	 DWORD PTR [eax+28], 0

; 129  : 			m_uUsedCapacity=0;

  0006b	8b 45 fc	 mov	 eax, DWORD PTR _this$[ebp]
  0006e	83 60 20 00	 and	 DWORD PTR [eax+32], 0

; 130  : 		}

  00072	8b 45 fc	 mov	 eax, DWORD PTR _this$[ebp]
  00075	c9		 leave
  00076	c3		 ret	 0
??0?$CDynamicPoolEx@VCAirResistanceDecorator@NEffectUpdateDecorator@@@@QAE@XZ ENDP ; CDynamicPoolEx<NEffectUpdateDecorator::CAirResistanceDecorator>::CDynamicPoolEx<NEffectUpdateDecorator::CAirResistanceDecorator>
_TEXT	ENDS
; Function compile flags: /Odspy
;	COMDAT ??_G?$CDynamicPoolEx@VCGravityDecorator@NEffectUpdateDecorator@@@@UAEPAXI@Z
_TEXT	SEGMENT
_this$ = -4						; size = 4
___flags$ = 8						; size = 4
??_G?$CDynamicPoolEx@VCGravityDecorator@NEffectUpdateDecorator@@@@UAEPAXI@Z PROC ; CDynamicPoolEx<NEffectUpdateDecorator::CGravityDecorator>::`scalar deleting destructor', COMDAT
; _this$ = ecx
  00000	55		 push	 ebp
  00001	8b ec		 mov	 ebp, esp
  00003	51		 push	 ecx
  00004	89 4d fc	 mov	 DWORD PTR _this$[ebp], ecx
  00007	8b 4d fc	 mov	 ecx, DWORD PTR _this$[ebp]
  0000a	e8 00 00 00 00	 call	 ??1?$CDynamicPoolEx@VCGravityDecorator@NEffectUpdateDecorator@@@@UAE@XZ ; CDynamicPoolEx<NEffectUpdateDecorator::CGravityDecorator>::~CDynamicPoolEx<NEffectUpdateDecorator::CGravityDecorator>
  0000f	8b 45 08	 mov	 eax, DWORD PTR ___flags$[ebp]
  00012	83 e0 01	 and	 eax, 1
  00015	74 0c		 je	 SHORT $LN2@scalar
  00017	6a 24		 push	 36			; 00000024H
  00019	ff 75 fc	 push	 DWORD PTR _this$[ebp]
  0001c	e8 00 00 00 00	 call	 ??3@YAXPAXI@Z		; operator delete
  00021	59		 pop	 ecx
  00022	59		 pop	 ecx
$LN2@scalar:
  00023	8b 45 fc	 mov	 eax, DWORD PTR _this$[ebp]
  00026	c9		 leave
  00027	c2 04 00	 ret	 4
??_G?$CDynamicPoolEx@VCGravityDecorator@NEffectUpdateDecorator@@@@UAEPAXI@Z ENDP ; CDynamicPoolEx<NEffectUpdateDecorator::CGravityDecorator>::`scalar deleting destructor'
_TEXT	ENDS
; Function compile flags: /Odspy
; File C:\Program Files (x86)\Microsoft Visual Studio\2019\Community\VC\Tools\MSVC\14.28.29333\include\vector
; File C:\Program Files (x86)\Microsoft Visual Studio\2019\Community\VC\Tools\MSVC\14.28.29333\include\xmemory
; File C:\Program Files (x86)\Microsoft Visual Studio\2019\Community\VC\Tools\MSVC\14.28.29333\include\vector
; File C:\Program Files (x86)\Microsoft Visual Studio\2019\Community\VC\Tools\MSVC\14.28.29333\include\xmemory
; File C:\Program Files (x86)\Microsoft Visual Studio\2019\Community\VC\Tools\MSVC\14.28.29333\include\vector
; File C:\Program Files (x86)\Microsoft Visual Studio\2019\Community\VC\Tools\MSVC\14.28.29333\include\xmemory
; File C:\Program Files (x86)\Microsoft Visual Studio\2019\Community\VC\Tools\MSVC\14.28.29333\include\vector
;	COMDAT ?_Tidy@?$vector@PAVCGravityDecorator@NEffectUpdateDecorator@@V?$allocator@PAVCGravityDecorator@NEffectUpdateDecorator@@@std@@@std@@AAEXXZ
_TEXT	SEGMENT
$T1 = -52						; size = 4
__Ptr$ = -48						; size = 4
__Count$ = -44						; size = 4
$T2 = -40						; size = 4
__First$ = -36						; size = 4
__Last$ = -32						; size = 4
$T3 = -28						; size = 4
$T4 = -24						; size = 4
__Myend$ = -20						; size = 4
__Mylast$ = -16						; size = 4
_this$ = -12						; size = 4
__My_data$ = -8						; size = 4
__Myfirst$ = -4						; size = 4
?_Tidy@?$vector@PAVCGravityDecorator@NEffectUpdateDecorator@@V?$allocator@PAVCGravityDecorator@NEffectUpdateDecorator@@@std@@@std@@AAEXXZ PROC ; std::vector<NEffectUpdateDecorator::CGravityDecorator *,std::allocator<NEffectUpdateDecorator::CGravityDecorator *> >::_Tidy, COMDAT
; _this$ = ecx

; 1686 :     void _Tidy() noexcept { // free all storage

  00000	55		 push	 ebp
  00001	8b ec		 mov	 ebp, esp
  00003	83 ec 34	 sub	 esp, 52			; 00000034H
  00006	89 4d f4	 mov	 DWORD PTR _this$[ebp], ecx

; 1687 :         auto& _My_data    = _Mypair._Myval2;

  00009	8b 45 f4	 mov	 eax, DWORD PTR _this$[ebp]
  0000c	89 45 f8	 mov	 DWORD PTR __My_data$[ebp], eax

; 1688 :         pointer& _Myfirst = _My_data._Myfirst;

  0000f	8b 45 f8	 mov	 eax, DWORD PTR __My_data$[ebp]
  00012	89 45 fc	 mov	 DWORD PTR __Myfirst$[ebp], eax

; 1689 :         pointer& _Mylast  = _My_data._Mylast;

  00015	8b 45 f8	 mov	 eax, DWORD PTR __My_data$[ebp]
  00018	83 c0 04	 add	 eax, 4
  0001b	89 45 f0	 mov	 DWORD PTR __Mylast$[ebp], eax

; 1690 :         pointer& _Myend   = _My_data._Myend;

  0001e	8b 45 f8	 mov	 eax, DWORD PTR __My_data$[ebp]
  00021	83 c0 08	 add	 eax, 8
  00024	89 45 ec	 mov	 DWORD PTR __Myend$[ebp], eax

; 1691 : 
; 1692 :         _My_data._Orphan_all();
; 1693 : 
; 1694 :         if (_Myfirst) { // destroy and deallocate old array

  00027	8b 45 fc	 mov	 eax, DWORD PTR __Myfirst$[ebp]
  0002a	83 38 00	 cmp	 DWORD PTR [eax], 0
  0002d	74 74		 je	 SHORT $LN3@Tidy

; 1695 :             _Destroy(_Myfirst, _Mylast);

  0002f	8b 45 f0	 mov	 eax, DWORD PTR __Mylast$[ebp]
  00032	8b 00		 mov	 eax, DWORD PTR [eax]
  00034	89 45 e0	 mov	 DWORD PTR __Last$[ebp], eax
  00037	8b 45 fc	 mov	 eax, DWORD PTR __Myfirst$[ebp]
  0003a	8b 00		 mov	 eax, DWORD PTR [eax]
  0003c	89 45 dc	 mov	 DWORD PTR __First$[ebp], eax

; 1733 :         return _Mypair._Get_first();

  0003f	8b 45 f4	 mov	 eax, DWORD PTR _this$[ebp]
; File C:\Program Files (x86)\Microsoft Visual Studio\2019\Community\VC\Tools\MSVC\14.28.29333\include\xmemory

; 1347 :         return *this;

  00042	89 45 e8	 mov	 DWORD PTR $T4[ebp], eax
; File C:\Program Files (x86)\Microsoft Visual Studio\2019\Community\VC\Tools\MSVC\14.28.29333\include\vector

; 1733 :         return _Mypair._Get_first();

  00045	8b 45 e8	 mov	 eax, DWORD PTR $T4[ebp]
  00048	89 45 e4	 mov	 DWORD PTR $T3[ebp], eax

; 1612 :         _Destroy_range(_First, _Last, _Getal());

  0004b	ff 75 e4	 push	 DWORD PTR $T3[ebp]
  0004e	ff 75 e0	 push	 DWORD PTR __Last$[ebp]
  00051	ff 75 dc	 push	 DWORD PTR __First$[ebp]
  00054	e8 00 00 00 00	 call	 ??$_Destroy_range@V?$allocator@PAVCGravityDecorator@NEffectUpdateDecorator@@@std@@@std@@YAXPAPAVCGravityDecorator@NEffectUpdateDecorator@@QAPAV12@AAV?$allocator@PAVCGravityDecorator@NEffectUpdateDecorator@@@0@@Z ; std::_Destroy_range<std::allocator<NEffectUpdateDecorator::CGravityDecorator *> >
  00059	83 c4 0c	 add	 esp, 12			; 0000000cH

; 1733 :         return _Mypair._Get_first();

  0005c	8b 45 f4	 mov	 eax, DWORD PTR _this$[ebp]
; File C:\Program Files (x86)\Microsoft Visual Studio\2019\Community\VC\Tools\MSVC\14.28.29333\include\xmemory

; 1347 :         return *this;

  0005f	89 45 d8	 mov	 DWORD PTR $T2[ebp], eax
; File C:\Program Files (x86)\Microsoft Visual Studio\2019\Community\VC\Tools\MSVC\14.28.29333\include\vector

; 1733 :         return _Mypair._Get_first();

  00062	8b 45 d8	 mov	 eax, DWORD PTR $T2[ebp]
  00065	89 45 cc	 mov	 DWORD PTR $T1[ebp], eax

; 1696 :             _Getal().deallocate(_Myfirst, static_cast<size_type>(_Myend - _Myfirst));

  00068	8b 45 ec	 mov	 eax, DWORD PTR __Myend$[ebp]
  0006b	8b 4d fc	 mov	 ecx, DWORD PTR __Myfirst$[ebp]
  0006e	8b 00		 mov	 eax, DWORD PTR [eax]
  00070	2b 01		 sub	 eax, DWORD PTR [ecx]
  00072	c1 f8 02	 sar	 eax, 2
  00075	89 45 d4	 mov	 DWORD PTR __Count$[ebp], eax
  00078	8b 45 fc	 mov	 eax, DWORD PTR __Myfirst$[ebp]
  0007b	8b 00		 mov	 eax, DWORD PTR [eax]
  0007d	89 45 d0	 mov	 DWORD PTR __Ptr$[ebp], eax
; File C:\Program Files (x86)\Microsoft Visual Studio\2019\Community\VC\Tools\MSVC\14.28.29333\include\xmemory

; 810  :         _Deallocate<_New_alignof<_Ty>>(_Ptr, sizeof(_Ty) * _Count);

  00080	8b 45 d4	 mov	 eax, DWORD PTR __Count$[ebp]
  00083	c1 e0 02	 shl	 eax, 2
  00086	50		 push	 eax
  00087	ff 75 d0	 push	 DWORD PTR __Ptr$[ebp]
  0008a	e8 00 00 00 00	 call	 ??$_Deallocate@$07$0A@@std@@YAXPAXI@Z ; std::_Deallocate<8,0>
  0008f	59		 pop	 ecx
  00090	59		 pop	 ecx
; File C:\Program Files (x86)\Microsoft Visual Studio\2019\Community\VC\Tools\MSVC\14.28.29333\include\vector

; 1698 :             _Myfirst = pointer();

  00091	8b 45 fc	 mov	 eax, DWORD PTR __Myfirst$[ebp]
  00094	83 20 00	 and	 DWORD PTR [eax], 0

; 1699 :             _Mylast  = pointer();

  00097	8b 45 f0	 mov	 eax, DWORD PTR __Mylast$[ebp]
  0009a	83 20 00	 and	 DWORD PTR [eax], 0

; 1700 :             _Myend   = pointer();

  0009d	8b 45 ec	 mov	 eax, DWORD PTR __Myend$[ebp]
  000a0	83 20 00	 and	 DWORD PTR [eax], 0
$LN3@Tidy:

; 1701 :         }
; 1702 :     }

  000a3	c9		 leave
  000a4	c3		 ret	 0
?_Tidy@?$vector@PAVCGravityDecorator@NEffectUpdateDecorator@@V?$allocator@PAVCGravityDecorator@NEffectUpdateDecorator@@@std@@@std@@AAEXXZ ENDP ; std::vector<NEffectUpdateDecorator::CGravityDecorator *,std::allocator<NEffectUpdateDecorator::CGravityDecorator *> >::_Tidy
_TEXT	ENDS
; Function compile flags: /Odspy
; File C:\Program Files (x86)\Microsoft Visual Studio\2019\Community\VC\Tools\MSVC\14.28.29333\include\vector
; File C:\Program Files (x86)\Microsoft Visual Studio\2019\Community\VC\Tools\MSVC\14.28.29333\include\xmemory
; File C:\Program Files (x86)\Microsoft Visual Studio\2019\Community\VC\Tools\MSVC\14.28.29333\include\vector
;	COMDAT ?clear@?$vector@PAVCGravityDecorator@NEffectUpdateDecorator@@V?$allocator@PAVCGravityDecorator@NEffectUpdateDecorator@@@std@@@std@@QAEXXZ
_TEXT	SEGMENT
__First$ = -32						; size = 4
__Last$ = -28						; size = 4
$T1 = -24						; size = 4
$T2 = -20						; size = 4
__Myfirst$ = -16					; size = 4
__Mylast$ = -12						; size = 4
_this$ = -8						; size = 4
__My_data$ = -4						; size = 4
?clear@?$vector@PAVCGravityDecorator@NEffectUpdateDecorator@@V?$allocator@PAVCGravityDecorator@NEffectUpdateDecorator@@@std@@@std@@QAEXXZ PROC ; std::vector<NEffectUpdateDecorator::CGravityDecorator *,std::allocator<NEffectUpdateDecorator::CGravityDecorator *> >::clear, COMDAT
; _this$ = ecx

; 1383 :     void clear() noexcept { // erase all

  00000	55		 push	 ebp
  00001	8b ec		 mov	 ebp, esp
  00003	83 ec 20	 sub	 esp, 32			; 00000020H
  00006	89 4d f8	 mov	 DWORD PTR _this$[ebp], ecx

; 1384 :         auto& _My_data    = _Mypair._Myval2;

  00009	8b 45 f8	 mov	 eax, DWORD PTR _this$[ebp]
  0000c	89 45 fc	 mov	 DWORD PTR __My_data$[ebp], eax

; 1385 :         pointer& _Myfirst = _My_data._Myfirst;

  0000f	8b 45 fc	 mov	 eax, DWORD PTR __My_data$[ebp]
  00012	89 45 f0	 mov	 DWORD PTR __Myfirst$[ebp], eax

; 1386 :         pointer& _Mylast  = _My_data._Mylast;

  00015	8b 45 fc	 mov	 eax, DWORD PTR __My_data$[ebp]
  00018	83 c0 04	 add	 eax, 4
  0001b	89 45 f4	 mov	 DWORD PTR __Mylast$[ebp], eax

; 1387 : 
; 1388 :         _My_data._Orphan_all();
; 1389 :         _Destroy(_Myfirst, _Mylast);

  0001e	8b 45 f4	 mov	 eax, DWORD PTR __Mylast$[ebp]
  00021	8b 00		 mov	 eax, DWORD PTR [eax]
  00023	89 45 e4	 mov	 DWORD PTR __Last$[ebp], eax
  00026	8b 45 f0	 mov	 eax, DWORD PTR __Myfirst$[ebp]
  00029	8b 00		 mov	 eax, DWORD PTR [eax]
  0002b	89 45 e0	 mov	 DWORD PTR __First$[ebp], eax

; 1733 :         return _Mypair._Get_first();

  0002e	8b 45 f8	 mov	 eax, DWORD PTR _this$[ebp]
; File C:\Program Files (x86)\Microsoft Visual Studio\2019\Community\VC\Tools\MSVC\14.28.29333\include\xmemory

; 1347 :         return *this;

  00031	89 45 ec	 mov	 DWORD PTR $T2[ebp], eax
; File C:\Program Files (x86)\Microsoft Visual Studio\2019\Community\VC\Tools\MSVC\14.28.29333\include\vector

; 1733 :         return _Mypair._Get_first();

  00034	8b 45 ec	 mov	 eax, DWORD PTR $T2[ebp]
  00037	89 45 e8	 mov	 DWORD PTR $T1[ebp], eax

; 1612 :         _Destroy_range(_First, _Last, _Getal());

  0003a	ff 75 e8	 push	 DWORD PTR $T1[ebp]
  0003d	ff 75 e4	 push	 DWORD PTR __Last$[ebp]
  00040	ff 75 e0	 push	 DWORD PTR __First$[ebp]
  00043	e8 00 00 00 00	 call	 ??$_Destroy_range@V?$allocator@PAVCGravityDecorator@NEffectUpdateDecorator@@@std@@@std@@YAXPAPAVCGravityDecorator@NEffectUpdateDecorator@@QAPAV12@AAV?$allocator@PAVCGravityDecorator@NEffectUpdateDecorator@@@0@@Z ; std::_Destroy_range<std::allocator<NEffectUpdateDecorator::CGravityDecorator *> >
  00048	83 c4 0c	 add	 esp, 12			; 0000000cH

; 1390 :         _Mylast = _Myfirst;

  0004b	8b 45 f4	 mov	 eax, DWORD PTR __Mylast$[ebp]
  0004e	8b 4d f0	 mov	 ecx, DWORD PTR __Myfirst$[ebp]
  00051	8b 09		 mov	 ecx, DWORD PTR [ecx]
  00053	89 08		 mov	 DWORD PTR [eax], ecx

; 1391 :     }

  00055	c9		 leave
  00056	c3		 ret	 0
?clear@?$vector@PAVCGravityDecorator@NEffectUpdateDecorator@@V?$allocator@PAVCGravityDecorator@NEffectUpdateDecorator@@@std@@@std@@QAEXXZ ENDP ; std::vector<NEffectUpdateDecorator::CGravityDecorator *,std::allocator<NEffectUpdateDecorator::CGravityDecorator *> >::clear
_TEXT	ENDS
; Function compile flags: /Odspy
; File D:\Metin2 Server Files\mainline\SRC_2014\Metin2Client\eterLib\Pool.h
;	COMDAT ?Delete@?$CDynamicPoolEx@VCGravityDecorator@NEffectUpdateDecorator@@@@KAXPAVCGravityDecorator@NEffectUpdateDecorator@@@Z
_TEXT	SEGMENT
_pkData$ = 8						; size = 4
?Delete@?$CDynamicPoolEx@VCGravityDecorator@NEffectUpdateDecorator@@@@KAXPAVCGravityDecorator@NEffectUpdateDecorator@@@Z PROC ; CDynamicPoolEx<NEffectUpdateDecorator::CGravityDecorator>::Delete, COMDAT

; 223  : 		{

  00000	55		 push	 ebp
  00001	8b ec		 mov	 ebp, esp

; 224  : 			::operator delete(pkData);

  00003	ff 75 08	 push	 DWORD PTR _pkData$[ebp]
  00006	e8 00 00 00 00	 call	 ??3@YAXPAX@Z		; operator delete
  0000b	59		 pop	 ecx

; 225  : 		}

  0000c	5d		 pop	 ebp
  0000d	c3		 ret	 0
?Delete@?$CDynamicPoolEx@VCGravityDecorator@NEffectUpdateDecorator@@@@KAXPAVCGravityDecorator@NEffectUpdateDecorator@@@Z ENDP ; CDynamicPoolEx<NEffectUpdateDecorator::CGravityDecorator>::Delete
_TEXT	ENDS
; Function compile flags: /Odspy
; File D:\Metin2 Server Files\mainline\SRC_2014\Metin2Client\eterLib\Pool.h
; File C:\Program Files (x86)\Microsoft Visual Studio\2019\Community\VC\Tools\MSVC\14.28.29333\include\vector
; File C:\Program Files (x86)\Microsoft Visual Studio\2019\Community\VC\Tools\MSVC\14.28.29333\include\xstddef
; File C:\Program Files (x86)\Microsoft Visual Studio\2019\Community\VC\Tools\MSVC\14.28.29333\include\vector
; File C:\Program Files (x86)\Microsoft Visual Studio\2019\Community\VC\Tools\MSVC\14.28.29333\include\xstddef
; File C:\Program Files (x86)\Microsoft Visual Studio\2019\Community\VC\Tools\MSVC\14.28.29333\include\vector
; File D:\Metin2 Server Files\mainline\SRC_2014\Metin2Client\eterLib\Pool.h
;	COMDAT ?Destroy@?$CDynamicPoolEx@VCGravityDecorator@NEffectUpdateDecorator@@@@QAEXXZ
_TEXT	SEGMENT
$T1 = -44						; size = 4
$T2 = -40						; size = 4
$T3 = -36						; size = 4
$T4 = -32						; size = 4
$T5 = -28						; size = 4
___param0$ = -24					; size = 4
$T6 = -20						; size = 4
___param0$ = -16					; size = 4
__My_data$7 = -12					; size = 4
__My_data$8 = -8					; size = 4
_this$ = -4						; size = 4
?Destroy@?$CDynamicPoolEx@VCGravityDecorator@NEffectUpdateDecorator@@@@QAEXXZ PROC ; CDynamicPoolEx<NEffectUpdateDecorator::CGravityDecorator>::Destroy, COMDAT
; _this$ = ecx

; 150  : 		{

  00000	55		 push	 ebp
  00001	8b ec		 mov	 ebp, esp
  00003	83 ec 2c	 sub	 esp, 44			; 0000002cH
  00006	89 4d fc	 mov	 DWORD PTR _this$[ebp], ecx
; File C:\Program Files (x86)\Microsoft Visual Studio\2019\Community\VC\Tools\MSVC\14.28.29333\include\vector

; 1420 :         auto& _My_data = _Mypair._Myval2;

  00009	8b 45 fc	 mov	 eax, DWORD PTR _this$[ebp]
  0000c	83 c0 04	 add	 eax, 4
  0000f	89 45 f8	 mov	 DWORD PTR __My_data$8[ebp], eax
; File C:\Program Files (x86)\Microsoft Visual Studio\2019\Community\VC\Tools\MSVC\14.28.29333\include\xstddef

; 275  :     return __builtin_addressof(_Val);

  00012	8b 45 f8	 mov	 eax, DWORD PTR __My_data$8[ebp]
  00015	89 45 d8	 mov	 DWORD PTR $T2[ebp], eax
; File C:\Program Files (x86)\Microsoft Visual Studio\2019\Community\VC\Tools\MSVC\14.28.29333\include\vector

; 1421 :         return iterator(_My_data._Mylast, _STD addressof(_My_data));

  00018	8b 45 f8	 mov	 eax, DWORD PTR __My_data$8[ebp]
  0001b	8b 40 04	 mov	 eax, DWORD PTR [eax+4]
  0001e	89 45 f0	 mov	 DWORD PTR ___param0$[ebp], eax

; 42   :     _Vector_const_iterator(_Tptr _Parg, const _Container_base* _Pvector) noexcept : _Ptr(_Parg) {

  00021	8b 45 f0	 mov	 eax, DWORD PTR ___param0$[ebp]
  00024	89 45 ec	 mov	 DWORD PTR $T6[ebp], eax

; 1421 :         return iterator(_My_data._Mylast, _STD addressof(_My_data));

  00027	8d 45 ec	 lea	 eax, DWORD PTR $T6[ebp]
  0002a	89 45 e0	 mov	 DWORD PTR $T4[ebp], eax

; 1410 :         auto& _My_data = _Mypair._Myval2;

  0002d	8b 45 fc	 mov	 eax, DWORD PTR _this$[ebp]
  00030	83 c0 04	 add	 eax, 4
  00033	89 45 f4	 mov	 DWORD PTR __My_data$7[ebp], eax
; File C:\Program Files (x86)\Microsoft Visual Studio\2019\Community\VC\Tools\MSVC\14.28.29333\include\xstddef

; 275  :     return __builtin_addressof(_Val);

  00036	8b 45 f4	 mov	 eax, DWORD PTR __My_data$7[ebp]
  00039	89 45 d4	 mov	 DWORD PTR $T1[ebp], eax
; File C:\Program Files (x86)\Microsoft Visual Studio\2019\Community\VC\Tools\MSVC\14.28.29333\include\vector

; 1411 :         return iterator(_My_data._Myfirst, _STD addressof(_My_data));

  0003c	8b 45 f4	 mov	 eax, DWORD PTR __My_data$7[ebp]
  0003f	8b 00		 mov	 eax, DWORD PTR [eax]
  00041	89 45 e8	 mov	 DWORD PTR ___param0$[ebp], eax

; 42   :     _Vector_const_iterator(_Tptr _Parg, const _Container_base* _Pvector) noexcept : _Ptr(_Parg) {

  00044	8b 45 e8	 mov	 eax, DWORD PTR ___param0$[ebp]
  00047	89 45 e4	 mov	 DWORD PTR $T5[ebp], eax

; 1411 :         return iterator(_My_data._Myfirst, _STD addressof(_My_data));

  0004a	8d 45 e4	 lea	 eax, DWORD PTR $T5[ebp]
  0004d	89 45 dc	 mov	 DWORD PTR $T3[ebp], eax
; File D:\Metin2 Server Files\mainline\SRC_2014\Metin2Client\eterLib\Pool.h

; 160  : 			std::for_each(m_kVct_pkData.begin(), m_kVct_pkData.end(), Delete);

  00050	68 00 00 00 00	 push	 OFFSET ?Delete@?$CDynamicPoolEx@VCGravityDecorator@NEffectUpdateDecorator@@@@KAXPAVCGravityDecorator@NEffectUpdateDecorator@@@Z ; CDynamicPoolEx<NEffectUpdateDecorator::CGravityDecorator>::Delete
  00055	8b 45 e0	 mov	 eax, DWORD PTR $T4[ebp]
  00058	ff 30		 push	 DWORD PTR [eax]
  0005a	8b 45 dc	 mov	 eax, DWORD PTR $T3[ebp]
  0005d	ff 30		 push	 DWORD PTR [eax]
  0005f	e8 00 00 00 00	 call	 ??$for_each@V?$_Vector_iterator@V?$_Vector_val@U?$_Simple_types@PAVCGravityDecorator@NEffectUpdateDecorator@@@std@@@std@@@std@@P6AXPAVCGravityDecorator@NEffectUpdateDecorator@@@Z@std@@YAP6AXPAVCGravityDecorator@NEffectUpdateDecorator@@@ZV?$_Vector_iterator@V?$_Vector_val@U?$_Simple_types@PAVCGravityDecorator@NEffectUpdateDecorator@@@std@@@std@@@0@1P6AX0@Z@Z ; std::for_each<std::_Vector_iterator<std::_Vector_val<std::_Simple_types<NEffectUpdateDecorator::CGravityDecorator *> > >,void (__cdecl*)(NEffectUpdateDecorator::CGravityDecorator *)>
  00064	83 c4 0c	 add	 esp, 12			; 0000000cH

; 161  : 			m_kVct_pkData.clear();

  00067	8b 4d fc	 mov	 ecx, DWORD PTR _this$[ebp]
  0006a	83 c1 04	 add	 ecx, 4
  0006d	e8 00 00 00 00	 call	 ?clear@?$vector@PAVCGravityDecorator@NEffectUpdateDecorator@@V?$allocator@PAVCGravityDecorator@NEffectUpdateDecorator@@@std@@@std@@QAEXXZ ; std::vector<NEffectUpdateDecorator::CGravityDecorator *,std::allocator<NEffectUpdateDecorator::CGravityDecorator *> >::clear

; 162  : 			m_kVct_pkFree.clear();

  00072	8b 4d fc	 mov	 ecx, DWORD PTR _this$[ebp]
  00075	83 c1 10	 add	 ecx, 16			; 00000010H
  00078	e8 00 00 00 00	 call	 ?clear@?$vector@PAVCGravityDecorator@NEffectUpdateDecorator@@V?$allocator@PAVCGravityDecorator@NEffectUpdateDecorator@@@std@@@std@@QAEXXZ ; std::vector<NEffectUpdateDecorator::CGravityDecorator *,std::allocator<NEffectUpdateDecorator::CGravityDecorator *> >::clear

; 163  : 		}

  0007d	c9		 leave
  0007e	c3		 ret	 0
?Destroy@?$CDynamicPoolEx@VCGravityDecorator@NEffectUpdateDecorator@@@@QAEXXZ ENDP ; CDynamicPoolEx<NEffectUpdateDecorator::CGravityDecorator>::Destroy
_TEXT	ENDS
; Function compile flags: /Odspy
; File D:\Metin2 Server Files\mainline\SRC_2014\Metin2Client\eterLib\Pool.h
; File C:\Program Files (x86)\Microsoft Visual Studio\2019\Community\VC\Tools\MSVC\14.28.29333\include\vector
; File D:\Metin2 Server Files\mainline\SRC_2014\Metin2Client\eterLib\Pool.h
; File C:\Program Files (x86)\Microsoft Visual Studio\2019\Community\VC\Tools\MSVC\14.28.29333\include\vector
; File D:\Metin2 Server Files\mainline\SRC_2014\Metin2Client\eterLib\Pool.h
;	COMDAT ??1?$CDynamicPoolEx@VCGravityDecorator@NEffectUpdateDecorator@@@@UAE@XZ
_TEXT	SEGMENT
_this$ = -16						; size = 4
__$EHRec$ = -12						; size = 12
??1?$CDynamicPoolEx@VCGravityDecorator@NEffectUpdateDecorator@@@@UAE@XZ PROC ; CDynamicPoolEx<NEffectUpdateDecorator::CGravityDecorator>::~CDynamicPoolEx<NEffectUpdateDecorator::CGravityDecorator>, COMDAT
; _this$ = ecx

; 132  : 		{

  00000	55		 push	 ebp
  00001	8b ec		 mov	 ebp, esp
  00003	6a ff		 push	 -1
  00005	68 00 00 00 00	 push	 __ehhandler$??1?$CDynamicPoolEx@VCGravityDecorator@NEffectUpdateDecorator@@@@UAE@XZ
  0000a	64 a1 00 00 00
	00		 mov	 eax, DWORD PTR fs:0
  00010	50		 push	 eax
  00011	51		 push	 ecx
  00012	a1 00 00 00 00	 mov	 eax, DWORD PTR ___security_cookie
  00017	33 c5		 xor	 eax, ebp
  00019	50		 push	 eax
  0001a	8d 45 f4	 lea	 eax, DWORD PTR __$EHRec$[ebp]
  0001d	64 a3 00 00 00
	00		 mov	 DWORD PTR fs:0, eax
  00023	89 4d f0	 mov	 DWORD PTR _this$[ebp], ecx
  00026	8b 45 f0	 mov	 eax, DWORD PTR _this$[ebp]
  00029	c7 00 00 00 00
	00		 mov	 DWORD PTR [eax], OFFSET ??_7?$CDynamicPoolEx@VCGravityDecorator@NEffectUpdateDecorator@@@@6B@

; 133  : 			assert(m_kVct_pkFree.size()==m_kVct_pkData.size());
; 134  : 			Destroy();

  0002f	8b 4d f0	 mov	 ecx, DWORD PTR _this$[ebp]
  00032	e8 00 00 00 00	 call	 ?Destroy@?$CDynamicPoolEx@VCGravityDecorator@NEffectUpdateDecorator@@@@QAEXXZ ; CDynamicPoolEx<NEffectUpdateDecorator::CGravityDecorator>::Destroy

; 142  : 		}

  00037	8b 4d f0	 mov	 ecx, DWORD PTR _this$[ebp]
  0003a	83 c1 10	 add	 ecx, 16			; 00000010H
; File C:\Program Files (x86)\Microsoft Visual Studio\2019\Community\VC\Tools\MSVC\14.28.29333\include\vector

; 673  :         _Tidy();

  0003d	e8 00 00 00 00	 call	 ?_Tidy@?$vector@PAVCGravityDecorator@NEffectUpdateDecorator@@V?$allocator@PAVCGravityDecorator@NEffectUpdateDecorator@@@std@@@std@@AAEXXZ ; std::vector<NEffectUpdateDecorator::CGravityDecorator *,std::allocator<NEffectUpdateDecorator::CGravityDecorator *> >::_Tidy
; File D:\Metin2 Server Files\mainline\SRC_2014\Metin2Client\eterLib\Pool.h

; 142  : 		}

  00042	8b 4d f0	 mov	 ecx, DWORD PTR _this$[ebp]
  00045	83 c1 04	 add	 ecx, 4
; File C:\Program Files (x86)\Microsoft Visual Studio\2019\Community\VC\Tools\MSVC\14.28.29333\include\vector

; 673  :         _Tidy();

  00048	e8 00 00 00 00	 call	 ?_Tidy@?$vector@PAVCGravityDecorator@NEffectUpdateDecorator@@V?$allocator@PAVCGravityDecorator@NEffectUpdateDecorator@@@std@@@std@@AAEXXZ ; std::vector<NEffectUpdateDecorator::CGravityDecorator *,std::allocator<NEffectUpdateDecorator::CGravityDecorator *> >::_Tidy
; File D:\Metin2 Server Files\mainline\SRC_2014\Metin2Client\eterLib\Pool.h

; 142  : 		}

  0004d	8b 4d f4	 mov	 ecx, DWORD PTR __$EHRec$[ebp]
  00050	64 89 0d 00 00
	00 00		 mov	 DWORD PTR fs:0, ecx
  00057	59		 pop	 ecx
  00058	c9		 leave
  00059	c3		 ret	 0
  0005a	cc		 int	 3
  0005b	cc		 int	 3
  0005c	cc		 int	 3
  0005d	cc		 int	 3
  0005e	cc		 int	 3
_TEXT	ENDS
;	COMDAT text$x
text$x	SEGMENT
__ehhandler$??1?$CDynamicPoolEx@VCGravityDecorator@NEffectUpdateDecorator@@@@UAE@XZ:
  00000	90		 npad	 1
  00001	90		 npad	 1
  00002	8b 54 24 08	 mov	 edx, DWORD PTR [esp+8]
  00006	8d 42 0c	 lea	 eax, DWORD PTR [edx+12]
  00009	8b 4a f8	 mov	 ecx, DWORD PTR [edx-8]
  0000c	33 c8		 xor	 ecx, eax
  0000e	e8 00 00 00 00	 call	 @__security_check_cookie@4
  00013	b8 00 00 00 00	 mov	 eax, OFFSET __ehfuncinfo$??1?$CDynamicPoolEx@VCGravityDecorator@NEffectUpdateDecorator@@@@UAE@XZ
  00018	e9 00 00 00 00	 jmp	 ___CxxFrameHandler3
text$x	ENDS
??1?$CDynamicPoolEx@VCGravityDecorator@NEffectUpdateDecorator@@@@UAE@XZ ENDP ; CDynamicPoolEx<NEffectUpdateDecorator::CGravityDecorator>::~CDynamicPoolEx<NEffectUpdateDecorator::CGravityDecorator>
; Function compile flags: /Odspy
; File D:\Metin2 Server Files\mainline\SRC_2014\Metin2Client\eterLib\Pool.h
; File C:\Program Files (x86)\Microsoft Visual Studio\2019\Community\VC\Tools\MSVC\14.28.29333\include\vector
; File C:\Program Files (x86)\Microsoft Visual Studio\2019\Community\VC\Tools\MSVC\14.28.29333\include\xmemory
; File C:\Program Files (x86)\Microsoft Visual Studio\2019\Community\VC\Tools\MSVC\14.28.29333\include\vector
; File D:\Metin2 Server Files\mainline\SRC_2014\Metin2Client\eterLib\Pool.h
; File C:\Program Files (x86)\Microsoft Visual Studio\2019\Community\VC\Tools\MSVC\14.28.29333\include\vector
; File C:\Program Files (x86)\Microsoft Visual Studio\2019\Community\VC\Tools\MSVC\14.28.29333\include\xmemory
; File C:\Program Files (x86)\Microsoft Visual Studio\2019\Community\VC\Tools\MSVC\14.28.29333\include\vector
; File D:\Metin2 Server Files\mainline\SRC_2014\Metin2Client\eterLib\Pool.h
;	COMDAT ??0?$CDynamicPoolEx@VCGravityDecorator@NEffectUpdateDecorator@@@@QAE@XZ
_TEXT	SEGMENT
_this$ = -28						; size = 4
_this$ = -24						; size = 4
_this$ = -20						; size = 4
_this$ = -16						; size = 4
_this$1 = -12						; size = 4
_this$2 = -8						; size = 4
_this$ = -4						; size = 4
??0?$CDynamicPoolEx@VCGravityDecorator@NEffectUpdateDecorator@@@@QAE@XZ PROC ; CDynamicPoolEx<NEffectUpdateDecorator::CGravityDecorator>::CDynamicPoolEx<NEffectUpdateDecorator::CGravityDecorator>, COMDAT
; _this$ = ecx

; 126  : 		CDynamicPoolEx()

  00000	55		 push	 ebp
  00001	8b ec		 mov	 ebp, esp
  00003	83 ec 1c	 sub	 esp, 28			; 0000001cH
  00006	89 4d fc	 mov	 DWORD PTR _this$[ebp], ecx

; 127  : 		{

  00009	8b 45 fc	 mov	 eax, DWORD PTR _this$[ebp]
  0000c	c7 00 00 00 00
	00		 mov	 DWORD PTR [eax], OFFSET ??_7?$CDynamicPoolEx@VCGravityDecorator@NEffectUpdateDecorator@@@@6B@
  00012	8b 45 fc	 mov	 eax, DWORD PTR _this$[ebp]
  00015	83 c0 04	 add	 eax, 4
  00018	89 45 f0	 mov	 DWORD PTR _this$[ebp], eax
; File C:\Program Files (x86)\Microsoft Visual Studio\2019\Community\VC\Tools\MSVC\14.28.29333\include\vector

; 445  :     vector() noexcept(is_nothrow_default_constructible_v<_Alty>) : _Mypair(_Zero_then_variadic_args_t{}) {

  0001b	8b 45 f0	 mov	 eax, DWORD PTR _this$[ebp]
  0001e	89 45 ec	 mov	 DWORD PTR _this$[ebp], eax
; File C:\Program Files (x86)\Microsoft Visual Studio\2019\Community\VC\Tools\MSVC\14.28.29333\include\xmemory

; 1339 :         : _Ty1(), _Myval2(_STD forward<_Other2>(_Val2)...) {}

  00021	8b 45 ec	 mov	 eax, DWORD PTR _this$[ebp]
  00024	89 45 f8	 mov	 DWORD PTR _this$2[ebp], eax
; File C:\Program Files (x86)\Microsoft Visual Studio\2019\Community\VC\Tools\MSVC\14.28.29333\include\vector

; 375  :     _Vector_val() noexcept : _Myfirst(), _Mylast(), _Myend() {}

  00027	8b 45 f8	 mov	 eax, DWORD PTR _this$2[ebp]
  0002a	83 20 00	 and	 DWORD PTR [eax], 0
  0002d	8b 45 f8	 mov	 eax, DWORD PTR _this$2[ebp]
  00030	83 60 04 00	 and	 DWORD PTR [eax+4], 0
  00034	8b 45 f8	 mov	 eax, DWORD PTR _this$2[ebp]
  00037	83 60 08 00	 and	 DWORD PTR [eax+8], 0
; File D:\Metin2 Server Files\mainline\SRC_2014\Metin2Client\eterLib\Pool.h

; 127  : 		{

  0003b	8b 45 fc	 mov	 eax, DWORD PTR _this$[ebp]
  0003e	83 c0 10	 add	 eax, 16			; 00000010H
  00041	89 45 e8	 mov	 DWORD PTR _this$[ebp], eax
; File C:\Program Files (x86)\Microsoft Visual Studio\2019\Community\VC\Tools\MSVC\14.28.29333\include\vector

; 445  :     vector() noexcept(is_nothrow_default_constructible_v<_Alty>) : _Mypair(_Zero_then_variadic_args_t{}) {

  00044	8b 45 e8	 mov	 eax, DWORD PTR _this$[ebp]
  00047	89 45 e4	 mov	 DWORD PTR _this$[ebp], eax
; File C:\Program Files (x86)\Microsoft Visual Studio\2019\Community\VC\Tools\MSVC\14.28.29333\include\xmemory

; 1339 :         : _Ty1(), _Myval2(_STD forward<_Other2>(_Val2)...) {}

  0004a	8b 45 e4	 mov	 eax, DWORD PTR _this$[ebp]
  0004d	89 45 f4	 mov	 DWORD PTR _this$1[ebp], eax
; File C:\Program Files (x86)\Microsoft Visual Studio\2019\Community\VC\Tools\MSVC\14.28.29333\include\vector

; 375  :     _Vector_val() noexcept : _Myfirst(), _Mylast(), _Myend() {}

  00050	8b 45 f4	 mov	 eax, DWORD PTR _this$1[ebp]
  00053	83 20 00	 and	 DWORD PTR [eax], 0
  00056	8b 45 f4	 mov	 eax, DWORD PTR _this$1[ebp]
  00059	83 60 04 00	 and	 DWORD PTR [eax+4], 0
  0005d	8b 45 f4	 mov	 eax, DWORD PTR _this$1[ebp]
  00060	83 60 08 00	 and	 DWORD PTR [eax+8], 0
; File D:\Metin2 Server Files\mainline\SRC_2014\Metin2Client\eterLib\Pool.h

; 128  : 			m_uInitCapacity=0;

  00064	8b 45 fc	 mov	 eax, DWORD PTR _this$[ebp]
  00067	83 60 1c 00	 and	 DWORD PTR [eax+28], 0

; 129  : 			m_uUsedCapacity=0;

  0006b	8b 45 fc	 mov	 eax, DWORD PTR _this$[ebp]
  0006e	83 60 20 00	 and	 DWORD PTR [eax+32], 0

; 130  : 		}

  00072	8b 45 fc	 mov	 eax, DWORD PTR _this$[ebp]
  00075	c9		 leave
  00076	c3		 ret	 0
??0?$CDynamicPoolEx@VCGravityDecorator@NEffectUpdateDecorator@@@@QAE@XZ ENDP ; CDynamicPoolEx<NEffectUpdateDecorator::CGravityDecorator>::CDynamicPoolEx<NEffectUpdateDecorator::CGravityDecorator>
_TEXT	ENDS
; Function compile flags: /Odspy
;	COMDAT ??_G?$CDynamicPoolEx@VCRotationDecorator@NEffectUpdateDecorator@@@@UAEPAXI@Z
_TEXT	SEGMENT
_this$ = -4						; size = 4
___flags$ = 8						; size = 4
??_G?$CDynamicPoolEx@VCRotationDecorator@NEffectUpdateDecorator@@@@UAEPAXI@Z PROC ; CDynamicPoolEx<NEffectUpdateDecorator::CRotationDecorator>::`scalar deleting destructor', COMDAT
; _this$ = ecx
  00000	55		 push	 ebp
  00001	8b ec		 mov	 ebp, esp
  00003	51		 push	 ecx
  00004	89 4d fc	 mov	 DWORD PTR _this$[ebp], ecx
  00007	8b 4d fc	 mov	 ecx, DWORD PTR _this$[ebp]
  0000a	e8 00 00 00 00	 call	 ??1?$CDynamicPoolEx@VCRotationDecorator@NEffectUpdateDecorator@@@@UAE@XZ ; CDynamicPoolEx<NEffectUpdateDecorator::CRotationDecorator>::~CDynamicPoolEx<NEffectUpdateDecorator::CRotationDecorator>
  0000f	8b 45 08	 mov	 eax, DWORD PTR ___flags$[ebp]
  00012	83 e0 01	 and	 eax, 1
  00015	74 0c		 je	 SHORT $LN2@scalar
  00017	6a 24		 push	 36			; 00000024H
  00019	ff 75 fc	 push	 DWORD PTR _this$[ebp]
  0001c	e8 00 00 00 00	 call	 ??3@YAXPAXI@Z		; operator delete
  00021	59		 pop	 ecx
  00022	59		 pop	 ecx
$LN2@scalar:
  00023	8b 45 fc	 mov	 eax, DWORD PTR _this$[ebp]
  00026	c9		 leave
  00027	c2 04 00	 ret	 4
??_G?$CDynamicPoolEx@VCRotationDecorator@NEffectUpdateDecorator@@@@UAEPAXI@Z ENDP ; CDynamicPoolEx<NEffectUpdateDecorator::CRotationDecorator>::`scalar deleting destructor'
_TEXT	ENDS
; Function compile flags: /Odspy
; File C:\Program Files (x86)\Microsoft Visual Studio\2019\Community\VC\Tools\MSVC\14.28.29333\include\vector
; File C:\Program Files (x86)\Microsoft Visual Studio\2019\Community\VC\Tools\MSVC\14.28.29333\include\xmemory
; File C:\Program Files (x86)\Microsoft Visual Studio\2019\Community\VC\Tools\MSVC\14.28.29333\include\vector
; File C:\Program Files (x86)\Microsoft Visual Studio\2019\Community\VC\Tools\MSVC\14.28.29333\include\xmemory
; File C:\Program Files (x86)\Microsoft Visual Studio\2019\Community\VC\Tools\MSVC\14.28.29333\include\vector
; File C:\Program Files (x86)\Microsoft Visual Studio\2019\Community\VC\Tools\MSVC\14.28.29333\include\xmemory
; File C:\Program Files (x86)\Microsoft Visual Studio\2019\Community\VC\Tools\MSVC\14.28.29333\include\vector
;	COMDAT ?_Tidy@?$vector@PAVCRotationDecorator@NEffectUpdateDecorator@@V?$allocator@PAVCRotationDecorator@NEffectUpdateDecorator@@@std@@@std@@AAEXXZ
_TEXT	SEGMENT
$T1 = -52						; size = 4
__Ptr$ = -48						; size = 4
__Count$ = -44						; size = 4
$T2 = -40						; size = 4
__First$ = -36						; size = 4
__Last$ = -32						; size = 4
$T3 = -28						; size = 4
$T4 = -24						; size = 4
__Myend$ = -20						; size = 4
__Mylast$ = -16						; size = 4
_this$ = -12						; size = 4
__My_data$ = -8						; size = 4
__Myfirst$ = -4						; size = 4
?_Tidy@?$vector@PAVCRotationDecorator@NEffectUpdateDecorator@@V?$allocator@PAVCRotationDecorator@NEffectUpdateDecorator@@@std@@@std@@AAEXXZ PROC ; std::vector<NEffectUpdateDecorator::CRotationDecorator *,std::allocator<NEffectUpdateDecorator::CRotationDecorator *> >::_Tidy, COMDAT
; _this$ = ecx

; 1686 :     void _Tidy() noexcept { // free all storage

  00000	55		 push	 ebp
  00001	8b ec		 mov	 ebp, esp
  00003	83 ec 34	 sub	 esp, 52			; 00000034H
  00006	89 4d f4	 mov	 DWORD PTR _this$[ebp], ecx

; 1687 :         auto& _My_data    = _Mypair._Myval2;

  00009	8b 45 f4	 mov	 eax, DWORD PTR _this$[ebp]
  0000c	89 45 f8	 mov	 DWORD PTR __My_data$[ebp], eax

; 1688 :         pointer& _Myfirst = _My_data._Myfirst;

  0000f	8b 45 f8	 mov	 eax, DWORD PTR __My_data$[ebp]
  00012	89 45 fc	 mov	 DWORD PTR __Myfirst$[ebp], eax

; 1689 :         pointer& _Mylast  = _My_data._Mylast;

  00015	8b 45 f8	 mov	 eax, DWORD PTR __My_data$[ebp]
  00018	83 c0 04	 add	 eax, 4
  0001b	89 45 f0	 mov	 DWORD PTR __Mylast$[ebp], eax

; 1690 :         pointer& _Myend   = _My_data._Myend;

  0001e	8b 45 f8	 mov	 eax, DWORD PTR __My_data$[ebp]
  00021	83 c0 08	 add	 eax, 8
  00024	89 45 ec	 mov	 DWORD PTR __Myend$[ebp], eax

; 1691 : 
; 1692 :         _My_data._Orphan_all();
; 1693 : 
; 1694 :         if (_Myfirst) { // destroy and deallocate old array

  00027	8b 45 fc	 mov	 eax, DWORD PTR __Myfirst$[ebp]
  0002a	83 38 00	 cmp	 DWORD PTR [eax], 0
  0002d	74 74		 je	 SHORT $LN3@Tidy

; 1695 :             _Destroy(_Myfirst, _Mylast);

  0002f	8b 45 f0	 mov	 eax, DWORD PTR __Mylast$[ebp]
  00032	8b 00		 mov	 eax, DWORD PTR [eax]
  00034	89 45 e0	 mov	 DWORD PTR __Last$[ebp], eax
  00037	8b 45 fc	 mov	 eax, DWORD PTR __Myfirst$[ebp]
  0003a	8b 00		 mov	 eax, DWORD PTR [eax]
  0003c	89 45 dc	 mov	 DWORD PTR __First$[ebp], eax

; 1733 :         return _Mypair._Get_first();

  0003f	8b 45 f4	 mov	 eax, DWORD PTR _this$[ebp]
; File C:\Program Files (x86)\Microsoft Visual Studio\2019\Community\VC\Tools\MSVC\14.28.29333\include\xmemory

; 1347 :         return *this;

  00042	89 45 e8	 mov	 DWORD PTR $T4[ebp], eax
; File C:\Program Files (x86)\Microsoft Visual Studio\2019\Community\VC\Tools\MSVC\14.28.29333\include\vector

; 1733 :         return _Mypair._Get_first();

  00045	8b 45 e8	 mov	 eax, DWORD PTR $T4[ebp]
  00048	89 45 e4	 mov	 DWORD PTR $T3[ebp], eax

; 1612 :         _Destroy_range(_First, _Last, _Getal());

  0004b	ff 75 e4	 push	 DWORD PTR $T3[ebp]
  0004e	ff 75 e0	 push	 DWORD PTR __Last$[ebp]
  00051	ff 75 dc	 push	 DWORD PTR __First$[ebp]
  00054	e8 00 00 00 00	 call	 ??$_Destroy_range@V?$allocator@PAVCRotationDecorator@NEffectUpdateDecorator@@@std@@@std@@YAXPAPAVCRotationDecorator@NEffectUpdateDecorator@@QAPAV12@AAV?$allocator@PAVCRotationDecorator@NEffectUpdateDecorator@@@0@@Z ; std::_Destroy_range<std::allocator<NEffectUpdateDecorator::CRotationDecorator *> >
  00059	83 c4 0c	 add	 esp, 12			; 0000000cH

; 1733 :         return _Mypair._Get_first();

  0005c	8b 45 f4	 mov	 eax, DWORD PTR _this$[ebp]
; File C:\Program Files (x86)\Microsoft Visual Studio\2019\Community\VC\Tools\MSVC\14.28.29333\include\xmemory

; 1347 :         return *this;

  0005f	89 45 d8	 mov	 DWORD PTR $T2[ebp], eax
; File C:\Program Files (x86)\Microsoft Visual Studio\2019\Community\VC\Tools\MSVC\14.28.29333\include\vector

; 1733 :         return _Mypair._Get_first();

  00062	8b 45 d8	 mov	 eax, DWORD PTR $T2[ebp]
  00065	89 45 cc	 mov	 DWORD PTR $T1[ebp], eax

; 1696 :             _Getal().deallocate(_Myfirst, static_cast<size_type>(_Myend - _Myfirst));

  00068	8b 45 ec	 mov	 eax, DWORD PTR __Myend$[ebp]
  0006b	8b 4d fc	 mov	 ecx, DWORD PTR __Myfirst$[ebp]
  0006e	8b 00		 mov	 eax, DWORD PTR [eax]
  00070	2b 01		 sub	 eax, DWORD PTR [ecx]
  00072	c1 f8 02	 sar	 eax, 2
  00075	89 45 d4	 mov	 DWORD PTR __Count$[ebp], eax
  00078	8b 45 fc	 mov	 eax, DWORD PTR __Myfirst$[ebp]
  0007b	8b 00		 mov	 eax, DWORD PTR [eax]
  0007d	89 45 d0	 mov	 DWORD PTR __Ptr$[ebp], eax
; File C:\Program Files (x86)\Microsoft Visual Studio\2019\Community\VC\Tools\MSVC\14.28.29333\include\xmemory

; 810  :         _Deallocate<_New_alignof<_Ty>>(_Ptr, sizeof(_Ty) * _Count);

  00080	8b 45 d4	 mov	 eax, DWORD PTR __Count$[ebp]
  00083	c1 e0 02	 shl	 eax, 2
  00086	50		 push	 eax
  00087	ff 75 d0	 push	 DWORD PTR __Ptr$[ebp]
  0008a	e8 00 00 00 00	 call	 ??$_Deallocate@$07$0A@@std@@YAXPAXI@Z ; std::_Deallocate<8,0>
  0008f	59		 pop	 ecx
  00090	59		 pop	 ecx
; File C:\Program Files (x86)\Microsoft Visual Studio\2019\Community\VC\Tools\MSVC\14.28.29333\include\vector

; 1698 :             _Myfirst = pointer();

  00091	8b 45 fc	 mov	 eax, DWORD PTR __Myfirst$[ebp]
  00094	83 20 00	 and	 DWORD PTR [eax], 0

; 1699 :             _Mylast  = pointer();

  00097	8b 45 f0	 mov	 eax, DWORD PTR __Mylast$[ebp]
  0009a	83 20 00	 and	 DWORD PTR [eax], 0

; 1700 :             _Myend   = pointer();

  0009d	8b 45 ec	 mov	 eax, DWORD PTR __Myend$[ebp]
  000a0	83 20 00	 and	 DWORD PTR [eax], 0
$LN3@Tidy:

; 1701 :         }
; 1702 :     }

  000a3	c9		 leave
  000a4	c3		 ret	 0
?_Tidy@?$vector@PAVCRotationDecorator@NEffectUpdateDecorator@@V?$allocator@PAVCRotationDecorator@NEffectUpdateDecorator@@@std@@@std@@AAEXXZ ENDP ; std::vector<NEffectUpdateDecorator::CRotationDecorator *,std::allocator<NEffectUpdateDecorator::CRotationDecorator *> >::_Tidy
_TEXT	ENDS
; Function compile flags: /Odspy
; File C:\Program Files (x86)\Microsoft Visual Studio\2019\Community\VC\Tools\MSVC\14.28.29333\include\vector
; File C:\Program Files (x86)\Microsoft Visual Studio\2019\Community\VC\Tools\MSVC\14.28.29333\include\xmemory
; File C:\Program Files (x86)\Microsoft Visual Studio\2019\Community\VC\Tools\MSVC\14.28.29333\include\vector
;	COMDAT ?clear@?$vector@PAVCRotationDecorator@NEffectUpdateDecorator@@V?$allocator@PAVCRotationDecorator@NEffectUpdateDecorator@@@std@@@std@@QAEXXZ
_TEXT	SEGMENT
__First$ = -32						; size = 4
__Last$ = -28						; size = 4
$T1 = -24						; size = 4
$T2 = -20						; size = 4
__Myfirst$ = -16					; size = 4
__Mylast$ = -12						; size = 4
_this$ = -8						; size = 4
__My_data$ = -4						; size = 4
?clear@?$vector@PAVCRotationDecorator@NEffectUpdateDecorator@@V?$allocator@PAVCRotationDecorator@NEffectUpdateDecorator@@@std@@@std@@QAEXXZ PROC ; std::vector<NEffectUpdateDecorator::CRotationDecorator *,std::allocator<NEffectUpdateDecorator::CRotationDecorator *> >::clear, COMDAT
; _this$ = ecx

; 1383 :     void clear() noexcept { // erase all

  00000	55		 push	 ebp
  00001	8b ec		 mov	 ebp, esp
  00003	83 ec 20	 sub	 esp, 32			; 00000020H
  00006	89 4d f8	 mov	 DWORD PTR _this$[ebp], ecx

; 1384 :         auto& _My_data    = _Mypair._Myval2;

  00009	8b 45 f8	 mov	 eax, DWORD PTR _this$[ebp]
  0000c	89 45 fc	 mov	 DWORD PTR __My_data$[ebp], eax

; 1385 :         pointer& _Myfirst = _My_data._Myfirst;

  0000f	8b 45 fc	 mov	 eax, DWORD PTR __My_data$[ebp]
  00012	89 45 f0	 mov	 DWORD PTR __Myfirst$[ebp], eax

; 1386 :         pointer& _Mylast  = _My_data._Mylast;

  00015	8b 45 fc	 mov	 eax, DWORD PTR __My_data$[ebp]
  00018	83 c0 04	 add	 eax, 4
  0001b	89 45 f4	 mov	 DWORD PTR __Mylast$[ebp], eax

; 1387 : 
; 1388 :         _My_data._Orphan_all();
; 1389 :         _Destroy(_Myfirst, _Mylast);

  0001e	8b 45 f4	 mov	 eax, DWORD PTR __Mylast$[ebp]
  00021	8b 00		 mov	 eax, DWORD PTR [eax]
  00023	89 45 e4	 mov	 DWORD PTR __Last$[ebp], eax
  00026	8b 45 f0	 mov	 eax, DWORD PTR __Myfirst$[ebp]
  00029	8b 00		 mov	 eax, DWORD PTR [eax]
  0002b	89 45 e0	 mov	 DWORD PTR __First$[ebp], eax

; 1733 :         return _Mypair._Get_first();

  0002e	8b 45 f8	 mov	 eax, DWORD PTR _this$[ebp]
; File C:\Program Files (x86)\Microsoft Visual Studio\2019\Community\VC\Tools\MSVC\14.28.29333\include\xmemory

; 1347 :         return *this;

  00031	89 45 ec	 mov	 DWORD PTR $T2[ebp], eax
; File C:\Program Files (x86)\Microsoft Visual Studio\2019\Community\VC\Tools\MSVC\14.28.29333\include\vector

; 1733 :         return _Mypair._Get_first();

  00034	8b 45 ec	 mov	 eax, DWORD PTR $T2[ebp]
  00037	89 45 e8	 mov	 DWORD PTR $T1[ebp], eax

; 1612 :         _Destroy_range(_First, _Last, _Getal());

  0003a	ff 75 e8	 push	 DWORD PTR $T1[ebp]
  0003d	ff 75 e4	 push	 DWORD PTR __Last$[ebp]
  00040	ff 75 e0	 push	 DWORD PTR __First$[ebp]
  00043	e8 00 00 00 00	 call	 ??$_Destroy_range@V?$allocator@PAVCRotationDecorator@NEffectUpdateDecorator@@@std@@@std@@YAXPAPAVCRotationDecorator@NEffectUpdateDecorator@@QAPAV12@AAV?$allocator@PAVCRotationDecorator@NEffectUpdateDecorator@@@0@@Z ; std::_Destroy_range<std::allocator<NEffectUpdateDecorator::CRotationDecorator *> >
  00048	83 c4 0c	 add	 esp, 12			; 0000000cH

; 1390 :         _Mylast = _Myfirst;

  0004b	8b 45 f4	 mov	 eax, DWORD PTR __Mylast$[ebp]
  0004e	8b 4d f0	 mov	 ecx, DWORD PTR __Myfirst$[ebp]
  00051	8b 09		 mov	 ecx, DWORD PTR [ecx]
  00053	89 08		 mov	 DWORD PTR [eax], ecx

; 1391 :     }

  00055	c9		 leave
  00056	c3		 ret	 0
?clear@?$vector@PAVCRotationDecorator@NEffectUpdateDecorator@@V?$allocator@PAVCRotationDecorator@NEffectUpdateDecorator@@@std@@@std@@QAEXXZ ENDP ; std::vector<NEffectUpdateDecorator::CRotationDecorator *,std::allocator<NEffectUpdateDecorator::CRotationDecorator *> >::clear
_TEXT	ENDS
; Function compile flags: /Odspy
; File D:\Metin2 Server Files\mainline\SRC_2014\Metin2Client\eterLib\Pool.h
;	COMDAT ?Delete@?$CDynamicPoolEx@VCRotationDecorator@NEffectUpdateDecorator@@@@KAXPAVCRotationDecorator@NEffectUpdateDecorator@@@Z
_TEXT	SEGMENT
_pkData$ = 8						; size = 4
?Delete@?$CDynamicPoolEx@VCRotationDecorator@NEffectUpdateDecorator@@@@KAXPAVCRotationDecorator@NEffectUpdateDecorator@@@Z PROC ; CDynamicPoolEx<NEffectUpdateDecorator::CRotationDecorator>::Delete, COMDAT

; 223  : 		{

  00000	55		 push	 ebp
  00001	8b ec		 mov	 ebp, esp

; 224  : 			::operator delete(pkData);

  00003	ff 75 08	 push	 DWORD PTR _pkData$[ebp]
  00006	e8 00 00 00 00	 call	 ??3@YAXPAX@Z		; operator delete
  0000b	59		 pop	 ecx

; 225  : 		}

  0000c	5d		 pop	 ebp
  0000d	c3		 ret	 0
?Delete@?$CDynamicPoolEx@VCRotationDecorator@NEffectUpdateDecorator@@@@KAXPAVCRotationDecorator@NEffectUpdateDecorator@@@Z ENDP ; CDynamicPoolEx<NEffectUpdateDecorator::CRotationDecorator>::Delete
_TEXT	ENDS
; Function compile flags: /Odspy
; File D:\Metin2 Server Files\mainline\SRC_2014\Metin2Client\eterLib\Pool.h
; File C:\Program Files (x86)\Microsoft Visual Studio\2019\Community\VC\Tools\MSVC\14.28.29333\include\vector
; File C:\Program Files (x86)\Microsoft Visual Studio\2019\Community\VC\Tools\MSVC\14.28.29333\include\xstddef
; File C:\Program Files (x86)\Microsoft Visual Studio\2019\Community\VC\Tools\MSVC\14.28.29333\include\vector
; File C:\Program Files (x86)\Microsoft Visual Studio\2019\Community\VC\Tools\MSVC\14.28.29333\include\xstddef
; File C:\Program Files (x86)\Microsoft Visual Studio\2019\Community\VC\Tools\MSVC\14.28.29333\include\vector
; File D:\Metin2 Server Files\mainline\SRC_2014\Metin2Client\eterLib\Pool.h
;	COMDAT ?Destroy@?$CDynamicPoolEx@VCRotationDecorator@NEffectUpdateDecorator@@@@QAEXXZ
_TEXT	SEGMENT
$T1 = -44						; size = 4
$T2 = -40						; size = 4
$T3 = -36						; size = 4
$T4 = -32						; size = 4
$T5 = -28						; size = 4
___param0$ = -24					; size = 4
$T6 = -20						; size = 4
___param0$ = -16					; size = 4
__My_data$7 = -12					; size = 4
__My_data$8 = -8					; size = 4
_this$ = -4						; size = 4
?Destroy@?$CDynamicPoolEx@VCRotationDecorator@NEffectUpdateDecorator@@@@QAEXXZ PROC ; CDynamicPoolEx<NEffectUpdateDecorator::CRotationDecorator>::Destroy, COMDAT
; _this$ = ecx

; 150  : 		{

  00000	55		 push	 ebp
  00001	8b ec		 mov	 ebp, esp
  00003	83 ec 2c	 sub	 esp, 44			; 0000002cH
  00006	89 4d fc	 mov	 DWORD PTR _this$[ebp], ecx
; File C:\Program Files (x86)\Microsoft Visual Studio\2019\Community\VC\Tools\MSVC\14.28.29333\include\vector

; 1420 :         auto& _My_data = _Mypair._Myval2;

  00009	8b 45 fc	 mov	 eax, DWORD PTR _this$[ebp]
  0000c	83 c0 04	 add	 eax, 4
  0000f	89 45 f8	 mov	 DWORD PTR __My_data$8[ebp], eax
; File C:\Program Files (x86)\Microsoft Visual Studio\2019\Community\VC\Tools\MSVC\14.28.29333\include\xstddef

; 275  :     return __builtin_addressof(_Val);

  00012	8b 45 f8	 mov	 eax, DWORD PTR __My_data$8[ebp]
  00015	89 45 d8	 mov	 DWORD PTR $T2[ebp], eax
; File C:\Program Files (x86)\Microsoft Visual Studio\2019\Community\VC\Tools\MSVC\14.28.29333\include\vector

; 1421 :         return iterator(_My_data._Mylast, _STD addressof(_My_data));

  00018	8b 45 f8	 mov	 eax, DWORD PTR __My_data$8[ebp]
  0001b	8b 40 04	 mov	 eax, DWORD PTR [eax+4]
  0001e	89 45 f0	 mov	 DWORD PTR ___param0$[ebp], eax

; 42   :     _Vector_const_iterator(_Tptr _Parg, const _Container_base* _Pvector) noexcept : _Ptr(_Parg) {

  00021	8b 45 f0	 mov	 eax, DWORD PTR ___param0$[ebp]
  00024	89 45 ec	 mov	 DWORD PTR $T6[ebp], eax

; 1421 :         return iterator(_My_data._Mylast, _STD addressof(_My_data));

  00027	8d 45 ec	 lea	 eax, DWORD PTR $T6[ebp]
  0002a	89 45 e0	 mov	 DWORD PTR $T4[ebp], eax

; 1410 :         auto& _My_data = _Mypair._Myval2;

  0002d	8b 45 fc	 mov	 eax, DWORD PTR _this$[ebp]
  00030	83 c0 04	 add	 eax, 4
  00033	89 45 f4	 mov	 DWORD PTR __My_data$7[ebp], eax
; File C:\Program Files (x86)\Microsoft Visual Studio\2019\Community\VC\Tools\MSVC\14.28.29333\include\xstddef

; 275  :     return __builtin_addressof(_Val);

  00036	8b 45 f4	 mov	 eax, DWORD PTR __My_data$7[ebp]
  00039	89 45 d4	 mov	 DWORD PTR $T1[ebp], eax
; File C:\Program Files (x86)\Microsoft Visual Studio\2019\Community\VC\Tools\MSVC\14.28.29333\include\vector

; 1411 :         return iterator(_My_data._Myfirst, _STD addressof(_My_data));

  0003c	8b 45 f4	 mov	 eax, DWORD PTR __My_data$7[ebp]
  0003f	8b 00		 mov	 eax, DWORD PTR [eax]
  00041	89 45 e8	 mov	 DWORD PTR ___param0$[ebp], eax

; 42   :     _Vector_const_iterator(_Tptr _Parg, const _Container_base* _Pvector) noexcept : _Ptr(_Parg) {

  00044	8b 45 e8	 mov	 eax, DWORD PTR ___param0$[ebp]
  00047	89 45 e4	 mov	 DWORD PTR $T5[ebp], eax

; 1411 :         return iterator(_My_data._Myfirst, _STD addressof(_My_data));

  0004a	8d 45 e4	 lea	 eax, DWORD PTR $T5[ebp]
  0004d	89 45 dc	 mov	 DWORD PTR $T3[ebp], eax
; File D:\Metin2 Server Files\mainline\SRC_2014\Metin2Client\eterLib\Pool.h

; 160  : 			std::for_each(m_kVct_pkData.begin(), m_kVct_pkData.end(), Delete);

  00050	68 00 00 00 00	 push	 OFFSET ?Delete@?$CDynamicPoolEx@VCRotationDecorator@NEffectUpdateDecorator@@@@KAXPAVCRotationDecorator@NEffectUpdateDecorator@@@Z ; CDynamicPoolEx<NEffectUpdateDecorator::CRotationDecorator>::Delete
  00055	8b 45 e0	 mov	 eax, DWORD PTR $T4[ebp]
  00058	ff 30		 push	 DWORD PTR [eax]
  0005a	8b 45 dc	 mov	 eax, DWORD PTR $T3[ebp]
  0005d	ff 30		 push	 DWORD PTR [eax]
  0005f	e8 00 00 00 00	 call	 ??$for_each@V?$_Vector_iterator@V?$_Vector_val@U?$_Simple_types@PAVCRotationDecorator@NEffectUpdateDecorator@@@std@@@std@@@std@@P6AXPAVCRotationDecorator@NEffectUpdateDecorator@@@Z@std@@YAP6AXPAVCRotationDecorator@NEffectUpdateDecorator@@@ZV?$_Vector_iterator@V?$_Vector_val@U?$_Simple_types@PAVCRotationDecorator@NEffectUpdateDecorator@@@std@@@std@@@0@1P6AX0@Z@Z ; std::for_each<std::_Vector_iterator<std::_Vector_val<std::_Simple_types<NEffectUpdateDecorator::CRotationDecorator *> > >,void (__cdecl*)(NEffectUpdateDecorator::CRotationDecorator *)>
  00064	83 c4 0c	 add	 esp, 12			; 0000000cH

; 161  : 			m_kVct_pkData.clear();

  00067	8b 4d fc	 mov	 ecx, DWORD PTR _this$[ebp]
  0006a	83 c1 04	 add	 ecx, 4
  0006d	e8 00 00 00 00	 call	 ?clear@?$vector@PAVCRotationDecorator@NEffectUpdateDecorator@@V?$allocator@PAVCRotationDecorator@NEffectUpdateDecorator@@@std@@@std@@QAEXXZ ; std::vector<NEffectUpdateDecorator::CRotationDecorator *,std::allocator<NEffectUpdateDecorator::CRotationDecorator *> >::clear

; 162  : 			m_kVct_pkFree.clear();

  00072	8b 4d fc	 mov	 ecx, DWORD PTR _this$[ebp]
  00075	83 c1 10	 add	 ecx, 16			; 00000010H
  00078	e8 00 00 00 00	 call	 ?clear@?$vector@PAVCRotationDecorator@NEffectUpdateDecorator@@V?$allocator@PAVCRotationDecorator@NEffectUpdateDecorator@@@std@@@std@@QAEXXZ ; std::vector<NEffectUpdateDecorator::CRotationDecorator *,std::allocator<NEffectUpdateDecorator::CRotationDecorator *> >::clear

; 163  : 		}

  0007d	c9		 leave
  0007e	c3		 ret	 0
?Destroy@?$CDynamicPoolEx@VCRotationDecorator@NEffectUpdateDecorator@@@@QAEXXZ ENDP ; CDynamicPoolEx<NEffectUpdateDecorator::CRotationDecorator>::Destroy
_TEXT	ENDS
; Function compile flags: /Odspy
; File D:\Metin2 Server Files\mainline\SRC_2014\Metin2Client\eterLib\Pool.h
; File C:\Program Files (x86)\Microsoft Visual Studio\2019\Community\VC\Tools\MSVC\14.28.29333\include\vector
; File D:\Metin2 Server Files\mainline\SRC_2014\Metin2Client\eterLib\Pool.h
; File C:\Program Files (x86)\Microsoft Visual Studio\2019\Community\VC\Tools\MSVC\14.28.29333\include\vector
; File D:\Metin2 Server Files\mainline\SRC_2014\Metin2Client\eterLib\Pool.h
;	COMDAT ??1?$CDynamicPoolEx@VCRotationDecorator@NEffectUpdateDecorator@@@@UAE@XZ
_TEXT	SEGMENT
_this$ = -16						; size = 4
__$EHRec$ = -12						; size = 12
??1?$CDynamicPoolEx@VCRotationDecorator@NEffectUpdateDecorator@@@@UAE@XZ PROC ; CDynamicPoolEx<NEffectUpdateDecorator::CRotationDecorator>::~CDynamicPoolEx<NEffectUpdateDecorator::CRotationDecorator>, COMDAT
; _this$ = ecx

; 132  : 		{

  00000	55		 push	 ebp
  00001	8b ec		 mov	 ebp, esp
  00003	6a ff		 push	 -1
  00005	68 00 00 00 00	 push	 __ehhandler$??1?$CDynamicPoolEx@VCRotationDecorator@NEffectUpdateDecorator@@@@UAE@XZ
  0000a	64 a1 00 00 00
	00		 mov	 eax, DWORD PTR fs:0
  00010	50		 push	 eax
  00011	51		 push	 ecx
  00012	a1 00 00 00 00	 mov	 eax, DWORD PTR ___security_cookie
  00017	33 c5		 xor	 eax, ebp
  00019	50		 push	 eax
  0001a	8d 45 f4	 lea	 eax, DWORD PTR __$EHRec$[ebp]
  0001d	64 a3 00 00 00
	00		 mov	 DWORD PTR fs:0, eax
  00023	89 4d f0	 mov	 DWORD PTR _this$[ebp], ecx
  00026	8b 45 f0	 mov	 eax, DWORD PTR _this$[ebp]
  00029	c7 00 00 00 00
	00		 mov	 DWORD PTR [eax], OFFSET ??_7?$CDynamicPoolEx@VCRotationDecorator@NEffectUpdateDecorator@@@@6B@

; 133  : 			assert(m_kVct_pkFree.size()==m_kVct_pkData.size());
; 134  : 			Destroy();

  0002f	8b 4d f0	 mov	 ecx, DWORD PTR _this$[ebp]
  00032	e8 00 00 00 00	 call	 ?Destroy@?$CDynamicPoolEx@VCRotationDecorator@NEffectUpdateDecorator@@@@QAEXXZ ; CDynamicPoolEx<NEffectUpdateDecorator::CRotationDecorator>::Destroy

; 142  : 		}

  00037	8b 4d f0	 mov	 ecx, DWORD PTR _this$[ebp]
  0003a	83 c1 10	 add	 ecx, 16			; 00000010H
; File C:\Program Files (x86)\Microsoft Visual Studio\2019\Community\VC\Tools\MSVC\14.28.29333\include\vector

; 673  :         _Tidy();

  0003d	e8 00 00 00 00	 call	 ?_Tidy@?$vector@PAVCRotationDecorator@NEffectUpdateDecorator@@V?$allocator@PAVCRotationDecorator@NEffectUpdateDecorator@@@std@@@std@@AAEXXZ ; std::vector<NEffectUpdateDecorator::CRotationDecorator *,std::allocator<NEffectUpdateDecorator::CRotationDecorator *> >::_Tidy
; File D:\Metin2 Server Files\mainline\SRC_2014\Metin2Client\eterLib\Pool.h

; 142  : 		}

  00042	8b 4d f0	 mov	 ecx, DWORD PTR _this$[ebp]
  00045	83 c1 04	 add	 ecx, 4
; File C:\Program Files (x86)\Microsoft Visual Studio\2019\Community\VC\Tools\MSVC\14.28.29333\include\vector

; 673  :         _Tidy();

  00048	e8 00 00 00 00	 call	 ?_Tidy@?$vector@PAVCRotationDecorator@NEffectUpdateDecorator@@V?$allocator@PAVCRotationDecorator@NEffectUpdateDecorator@@@std@@@std@@AAEXXZ ; std::vector<NEffectUpdateDecorator::CRotationDecorator *,std::allocator<NEffectUpdateDecorator::CRotationDecorator *> >::_Tidy
; File D:\Metin2 Server Files\mainline\SRC_2014\Metin2Client\eterLib\Pool.h

; 142  : 		}

  0004d	8b 4d f4	 mov	 ecx, DWORD PTR __$EHRec$[ebp]
  00050	64 89 0d 00 00
	00 00		 mov	 DWORD PTR fs:0, ecx
  00057	59		 pop	 ecx
  00058	c9		 leave
  00059	c3		 ret	 0
  0005a	cc		 int	 3
  0005b	cc		 int	 3
  0005c	cc		 int	 3
  0005d	cc		 int	 3
  0005e	cc		 int	 3
_TEXT	ENDS
;	COMDAT text$x
text$x	SEGMENT
__ehhandler$??1?$CDynamicPoolEx@VCRotationDecorator@NEffectUpdateDecorator@@@@UAE@XZ:
  00000	90		 npad	 1
  00001	90		 npad	 1
  00002	8b 54 24 08	 mov	 edx, DWORD PTR [esp+8]
  00006	8d 42 0c	 lea	 eax, DWORD PTR [edx+12]
  00009	8b 4a f8	 mov	 ecx, DWORD PTR [edx-8]
  0000c	33 c8		 xor	 ecx, eax
  0000e	e8 00 00 00 00	 call	 @__security_check_cookie@4
  00013	b8 00 00 00 00	 mov	 eax, OFFSET __ehfuncinfo$??1?$CDynamicPoolEx@VCRotationDecorator@NEffectUpdateDecorator@@@@UAE@XZ
  00018	e9 00 00 00 00	 jmp	 ___CxxFrameHandler3
text$x	ENDS
??1?$CDynamicPoolEx@VCRotationDecorator@NEffectUpdateDecorator@@@@UAE@XZ ENDP ; CDynamicPoolEx<NEffectUpdateDecorator::CRotationDecorator>::~CDynamicPoolEx<NEffectUpdateDecorator::CRotationDecorator>
; Function compile flags: /Odspy
; File D:\Metin2 Server Files\mainline\SRC_2014\Metin2Client\eterLib\Pool.h
; File C:\Program Files (x86)\Microsoft Visual Studio\2019\Community\VC\Tools\MSVC\14.28.29333\include\vector
; File C:\Program Files (x86)\Microsoft Visual Studio\2019\Community\VC\Tools\MSVC\14.28.29333\include\xmemory
; File C:\Program Files (x86)\Microsoft Visual Studio\2019\Community\VC\Tools\MSVC\14.28.29333\include\vector
; File D:\Metin2 Server Files\mainline\SRC_2014\Metin2Client\eterLib\Pool.h
; File C:\Program Files (x86)\Microsoft Visual Studio\2019\Community\VC\Tools\MSVC\14.28.29333\include\vector
; File C:\Program Files (x86)\Microsoft Visual Studio\2019\Community\VC\Tools\MSVC\14.28.29333\include\xmemory
; File C:\Program Files (x86)\Microsoft Visual Studio\2019\Community\VC\Tools\MSVC\14.28.29333\include\vector
; File D:\Metin2 Server Files\mainline\SRC_2014\Metin2Client\eterLib\Pool.h
;	COMDAT ??0?$CDynamicPoolEx@VCRotationDecorator@NEffectUpdateDecorator@@@@QAE@XZ
_TEXT	SEGMENT
_this$ = -28						; size = 4
_this$ = -24						; size = 4
_this$ = -20						; size = 4
_this$ = -16						; size = 4
_this$1 = -12						; size = 4
_this$2 = -8						; size = 4
_this$ = -4						; size = 4
??0?$CDynamicPoolEx@VCRotationDecorator@NEffectUpdateDecorator@@@@QAE@XZ PROC ; CDynamicPoolEx<NEffectUpdateDecorator::CRotationDecorator>::CDynamicPoolEx<NEffectUpdateDecorator::CRotationDecorator>, COMDAT
; _this$ = ecx

; 126  : 		CDynamicPoolEx()

  00000	55		 push	 ebp
  00001	8b ec		 mov	 ebp, esp
  00003	83 ec 1c	 sub	 esp, 28			; 0000001cH
  00006	89 4d fc	 mov	 DWORD PTR _this$[ebp], ecx

; 127  : 		{

  00009	8b 45 fc	 mov	 eax, DWORD PTR _this$[ebp]
  0000c	c7 00 00 00 00
	00		 mov	 DWORD PTR [eax], OFFSET ??_7?$CDynamicPoolEx@VCRotationDecorator@NEffectUpdateDecorator@@@@6B@
  00012	8b 45 fc	 mov	 eax, DWORD PTR _this$[ebp]
  00015	83 c0 04	 add	 eax, 4
  00018	89 45 f0	 mov	 DWORD PTR _this$[ebp], eax
; File C:\Program Files (x86)\Microsoft Visual Studio\2019\Community\VC\Tools\MSVC\14.28.29333\include\vector

; 445  :     vector() noexcept(is_nothrow_default_constructible_v<_Alty>) : _Mypair(_Zero_then_variadic_args_t{}) {

  0001b	8b 45 f0	 mov	 eax, DWORD PTR _this$[ebp]
  0001e	89 45 ec	 mov	 DWORD PTR _this$[ebp], eax
; File C:\Program Files (x86)\Microsoft Visual Studio\2019\Community\VC\Tools\MSVC\14.28.29333\include\xmemory

; 1339 :         : _Ty1(), _Myval2(_STD forward<_Other2>(_Val2)...) {}

  00021	8b 45 ec	 mov	 eax, DWORD PTR _this$[ebp]
  00024	89 45 f8	 mov	 DWORD PTR _this$2[ebp], eax
; File C:\Program Files (x86)\Microsoft Visual Studio\2019\Community\VC\Tools\MSVC\14.28.29333\include\vector

; 375  :     _Vector_val() noexcept : _Myfirst(), _Mylast(), _Myend() {}

  00027	8b 45 f8	 mov	 eax, DWORD PTR _this$2[ebp]
  0002a	83 20 00	 and	 DWORD PTR [eax], 0
  0002d	8b 45 f8	 mov	 eax, DWORD PTR _this$2[ebp]
  00030	83 60 04 00	 and	 DWORD PTR [eax+4], 0
  00034	8b 45 f8	 mov	 eax, DWORD PTR _this$2[ebp]
  00037	83 60 08 00	 and	 DWORD PTR [eax+8], 0
; File D:\Metin2 Server Files\mainline\SRC_2014\Metin2Client\eterLib\Pool.h

; 127  : 		{

  0003b	8b 45 fc	 mov	 eax, DWORD PTR _this$[ebp]
  0003e	83 c0 10	 add	 eax, 16			; 00000010H
  00041	89 45 e8	 mov	 DWORD PTR _this$[ebp], eax
; File C:\Program Files (x86)\Microsoft Visual Studio\2019\Community\VC\Tools\MSVC\14.28.29333\include\vector

; 445  :     vector() noexcept(is_nothrow_default_constructible_v<_Alty>) : _Mypair(_Zero_then_variadic_args_t{}) {

  00044	8b 45 e8	 mov	 eax, DWORD PTR _this$[ebp]
  00047	89 45 e4	 mov	 DWORD PTR _this$[ebp], eax
; File C:\Program Files (x86)\Microsoft Visual Studio\2019\Community\VC\Tools\MSVC\14.28.29333\include\xmemory

; 1339 :         : _Ty1(), _Myval2(_STD forward<_Other2>(_Val2)...) {}

  0004a	8b 45 e4	 mov	 eax, DWORD PTR _this$[ebp]
  0004d	89 45 f4	 mov	 DWORD PTR _this$1[ebp], eax
; File C:\Program Files (x86)\Microsoft Visual Studio\2019\Community\VC\Tools\MSVC\14.28.29333\include\vector

; 375  :     _Vector_val() noexcept : _Myfirst(), _Mylast(), _Myend() {}

  00050	8b 45 f4	 mov	 eax, DWORD PTR _this$1[ebp]
  00053	83 20 00	 and	 DWORD PTR [eax], 0
  00056	8b 45 f4	 mov	 eax, DWORD PTR _this$1[ebp]
  00059	83 60 04 00	 and	 DWORD PTR [eax+4], 0
  0005d	8b 45 f4	 mov	 eax, DWORD PTR _this$1[ebp]
  00060	83 60 08 00	 and	 DWORD PTR [eax+8], 0
; File D:\Metin2 Server Files\mainline\SRC_2014\Metin2Client\eterLib\Pool.h

; 128  : 			m_uInitCapacity=0;

  00064	8b 45 fc	 mov	 eax, DWORD PTR _this$[ebp]
  00067	83 60 1c 00	 and	 DWORD PTR [eax+28], 0

; 129  : 			m_uUsedCapacity=0;

  0006b	8b 45 fc	 mov	 eax, DWORD PTR _this$[ebp]
  0006e	83 60 20 00	 and	 DWORD PTR [eax+32], 0

; 130  : 		}

  00072	8b 45 fc	 mov	 eax, DWORD PTR _this$[ebp]
  00075	c9		 leave
  00076	c3		 ret	 0
??0?$CDynamicPoolEx@VCRotationDecorator@NEffectUpdateDecorator@@@@QAE@XZ ENDP ; CDynamicPoolEx<NEffectUpdateDecorator::CRotationDecorator>::CDynamicPoolEx<NEffectUpdateDecorator::CRotationDecorator>
_TEXT	ENDS
; Function compile flags: /Odspy
; File C:\Program Files (x86)\Microsoft Visual Studio\2019\Community\VC\Tools\MSVC\14.28.29333\include\deque
;	COMDAT ??D?$_Deque_unchecked_const_iterator@V?$_Deque_val@U?$_Deque_simple_types@VCFlyTarget@@@std@@@std@@@std@@QBEABVCFlyTarget@@XZ
_TEXT	SEGMENT
__Block$ = -20						; size = 4
__Off$ = -16						; size = 4
__Off$ = -12						; size = 4
_this$ = -8						; size = 4
_this$ = -4						; size = 4
??D?$_Deque_unchecked_const_iterator@V?$_Deque_val@U?$_Deque_simple_types@VCFlyTarget@@@std@@@std@@@std@@QBEABVCFlyTarget@@XZ PROC ; std::_Deque_unchecked_const_iterator<std::_Deque_val<std::_Deque_simple_types<CFlyTarget> > >::operator*, COMDAT
; _this$ = ecx

; 54   :     _NODISCARD reference operator*() const noexcept {

  00000	55		 push	 ebp
  00001	8b ec		 mov	 ebp, esp
  00003	83 ec 14	 sub	 esp, 20			; 00000014H
  00006	89 4d fc	 mov	 DWORD PTR _this$[ebp], ecx

; 55   :         _Size_type _Block = _Mycont->_Getblock(_Myoff);

  00009	8b 45 fc	 mov	 eax, DWORD PTR _this$[ebp]
  0000c	8b 40 04	 mov	 eax, DWORD PTR [eax+4]
  0000f	89 45 f4	 mov	 DWORD PTR __Off$[ebp], eax
  00012	8b 45 fc	 mov	 eax, DWORD PTR _this$[ebp]
  00015	8b 00		 mov	 eax, DWORD PTR [eax]
  00017	89 45 f8	 mov	 DWORD PTR _this$[ebp], eax

; 548  :         return (_Off / _DEQUESIZ) & (_Mapsize - 1);

  0001a	8b 45 f8	 mov	 eax, DWORD PTR _this$[ebp]
  0001d	8b 40 08	 mov	 eax, DWORD PTR [eax+8]
  00020	48		 dec	 eax
  00021	23 45 f4	 and	 eax, DWORD PTR __Off$[ebp]
  00024	89 45 ec	 mov	 DWORD PTR __Block$[ebp], eax

; 56   :         _Size_type _Off   = _Myoff % _DEQUESIZ;

  00027	8b 45 fc	 mov	 eax, DWORD PTR _this$[ebp]
  0002a	8b 40 04	 mov	 eax, DWORD PTR [eax+4]
  0002d	33 d2		 xor	 edx, edx
  0002f	33 c9		 xor	 ecx, ecx
  00031	41		 inc	 ecx
  00032	f7 f1		 div	 ecx
  00034	89 55 f0	 mov	 DWORD PTR __Off$[ebp], edx

; 57   :         return _Mycont->_Map[_Block][_Off];

  00037	8b 45 fc	 mov	 eax, DWORD PTR _this$[ebp]
  0003a	8b 00		 mov	 eax, DWORD PTR [eax]
  0003c	8b 40 04	 mov	 eax, DWORD PTR [eax+4]
  0003f	6b 4d f0 18	 imul	 ecx, DWORD PTR __Off$[ebp], 24
  00043	8b 55 ec	 mov	 edx, DWORD PTR __Block$[ebp]
  00046	03 0c 90	 add	 ecx, DWORD PTR [eax+edx*4]
  00049	8b c1		 mov	 eax, ecx

; 58   :     }

  0004b	c9		 leave
  0004c	c3		 ret	 0
??D?$_Deque_unchecked_const_iterator@V?$_Deque_val@U?$_Deque_simple_types@VCFlyTarget@@@std@@@std@@@std@@QBEABVCFlyTarget@@XZ ENDP ; std::_Deque_unchecked_const_iterator<std::_Deque_val<std::_Deque_simple_types<CFlyTarget> > >::operator*
_TEXT	ENDS
; Function compile flags: /Odspy
; File C:\Program Files (x86)\Microsoft Visual Studio\2019\Community\VC\Tools\MSVC\14.28.29333\include\deque
;	COMDAT ??D?$_Deque_unchecked_const_iterator@V?$_Deque_val@U?$_Deque_simple_types@USReservingMotionNode@CActorInstance@@@std@@@std@@@std@@QBEABUSReservingMotionNode@CActorInstance@@XZ
_TEXT	SEGMENT
__Block$ = -20						; size = 4
__Off$ = -16						; size = 4
__Off$ = -12						; size = 4
_this$ = -8						; size = 4
_this$ = -4						; size = 4
??D?$_Deque_unchecked_const_iterator@V?$_Deque_val@U?$_Deque_simple_types@USReservingMotionNode@CActorInstance@@@std@@@std@@@std@@QBEABUSReservingMotionNode@CActorInstance@@XZ PROC ; std::_Deque_unchecked_const_iterator<std::_Deque_val<std::_Deque_simple_types<CActorInstance::SReservingMotionNode> > >::operator*, COMDAT
; _this$ = ecx

; 54   :     _NODISCARD reference operator*() const noexcept {

  00000	55		 push	 ebp
  00001	8b ec		 mov	 ebp, esp
  00003	83 ec 14	 sub	 esp, 20			; 00000014H
  00006	89 4d fc	 mov	 DWORD PTR _this$[ebp], ecx

; 55   :         _Size_type _Block = _Mycont->_Getblock(_Myoff);

  00009	8b 45 fc	 mov	 eax, DWORD PTR _this$[ebp]
  0000c	8b 40 04	 mov	 eax, DWORD PTR [eax+4]
  0000f	89 45 f4	 mov	 DWORD PTR __Off$[ebp], eax
  00012	8b 45 fc	 mov	 eax, DWORD PTR _this$[ebp]
  00015	8b 00		 mov	 eax, DWORD PTR [eax]
  00017	89 45 f8	 mov	 DWORD PTR _this$[ebp], eax

; 548  :         return (_Off / _DEQUESIZ) & (_Mapsize - 1);

  0001a	8b 45 f8	 mov	 eax, DWORD PTR _this$[ebp]
  0001d	8b 40 08	 mov	 eax, DWORD PTR [eax+8]
  00020	48		 dec	 eax
  00021	23 45 f4	 and	 eax, DWORD PTR __Off$[ebp]
  00024	89 45 ec	 mov	 DWORD PTR __Block$[ebp], eax

; 56   :         _Size_type _Off   = _Myoff % _DEQUESIZ;

  00027	8b 45 fc	 mov	 eax, DWORD PTR _this$[ebp]
  0002a	8b 40 04	 mov	 eax, DWORD PTR [eax+4]
  0002d	33 d2		 xor	 edx, edx
  0002f	33 c9		 xor	 ecx, ecx
  00031	41		 inc	 ecx
  00032	f7 f1		 div	 ecx
  00034	89 55 f0	 mov	 DWORD PTR __Off$[ebp], edx

; 57   :         return _Mycont->_Map[_Block][_Off];

  00037	8b 45 fc	 mov	 eax, DWORD PTR _this$[ebp]
  0003a	8b 00		 mov	 eax, DWORD PTR [eax]
  0003c	8b 40 04	 mov	 eax, DWORD PTR [eax+4]
  0003f	6b 4d f0 18	 imul	 ecx, DWORD PTR __Off$[ebp], 24
  00043	8b 55 ec	 mov	 edx, DWORD PTR __Block$[ebp]
  00046	03 0c 90	 add	 ecx, DWORD PTR [eax+edx*4]
  00049	8b c1		 mov	 eax, ecx

; 58   :     }

  0004b	c9		 leave
  0004c	c3		 ret	 0
??D?$_Deque_unchecked_const_iterator@V?$_Deque_val@U?$_Deque_simple_types@USReservingMotionNode@CActorInstance@@@std@@@std@@@std@@QBEABUSReservingMotionNode@CActorInstance@@XZ ENDP ; std::_Deque_unchecked_const_iterator<std::_Deque_val<std::_Deque_simple_types<CActorInstance::SReservingMotionNode> > >::operator*
_TEXT	ENDS
; Function compile flags: /Odspy
; File C:\Program Files (x86)\Microsoft Visual Studio\2019\Community\VC\Tools\MSVC\14.28.29333\include\deque
; File C:\Program Files (x86)\Microsoft Visual Studio\2019\Community\VC\Tools\MSVC\14.28.29333\include\xmemory
; File C:\Program Files (x86)\Microsoft Visual Studio\2019\Community\VC\Tools\MSVC\14.28.29333\include\deque
; File C:\Program Files (x86)\Microsoft Visual Studio\2019\Community\VC\Tools\MSVC\14.28.29333\include\xmemory
; File C:\Program Files (x86)\Microsoft Visual Studio\2019\Community\VC\Tools\MSVC\14.28.29333\include\deque
; File C:\Program Files (x86)\Microsoft Visual Studio\2019\Community\VC\Tools\MSVC\14.28.29333\include\type_traits
; File C:\Program Files (x86)\Microsoft Visual Studio\2019\Community\VC\Tools\MSVC\14.28.29333\include\deque
; File C:\Program Files (x86)\Microsoft Visual Studio\2019\Community\VC\Tools\MSVC\14.28.29333\include\xstddef
; File C:\Program Files (x86)\Microsoft Visual Studio\2019\Community\VC\Tools\MSVC\14.28.29333\include\deque
; File C:\Program Files (x86)\Microsoft Visual Studio\2019\Community\VC\Tools\MSVC\14.28.29333\include\xmemory
; File C:\Program Files (x86)\Microsoft Visual Studio\2019\Community\VC\Tools\MSVC\14.28.29333\include\deque
; File C:\Program Files (x86)\Microsoft Visual Studio\2019\Community\VC\Tools\MSVC\14.28.29333\include\vcruntime_new.h
; File C:\Program Files (x86)\Microsoft Visual Studio\2019\Community\VC\Tools\MSVC\14.28.29333\include\type_traits
; File C:\Program Files (x86)\Microsoft Visual Studio\2019\Community\VC\Tools\MSVC\14.28.29333\include\xmemory
; File C:\Program Files (x86)\Microsoft Visual Studio\2019\Community\VC\Tools\MSVC\14.28.29333\include\deque
;	COMDAT ??$_Emplace_back_internal@ABUSReservingMotionNode@CActorInstance@@@?$deque@USReservingMotionNode@CActorInstance@@V?$allocator@USReservingMotionNode@CActorInstance@@@std@@@std@@AAEXABUSReservingMotionNode@CActorInstance@@@Z
_TEXT	SEGMENT
$T1 = -60						; size = 4
$T2 = -56						; size = 4
__Max_possible$3 = -52					; size = 4
$T4 = -48						; size = 4
$T5 = -44						; size = 4
$T6 = -40						; size = 4
$T7 = -36						; size = 4
$T8 = -32						; size = 4
$T9 = -28						; size = 4
$T10 = -24						; size = 4
$T11 = -20						; size = 4
__Ptr$ = -16						; size = 4
$T12 = -12						; size = 4
$T13 = -8						; size = 4
$T14 = -4						; size = 4
$T15 = 0						; size = 4
$T16 = 4						; size = 4
$T17 = 8						; size = 4
$T18 = 12						; size = 4
$T19 = 16						; size = 4
$T20 = 20						; size = 4
$T21 = 24						; size = 4
$T22 = 28						; size = 4
$T23 = 32						; size = 4
$T24 = 36						; size = 4
$T25 = 40						; size = 4
$T26 = 44						; size = 4
$T27 = 48						; size = 4
$T28 = 52						; size = 4
$T29 = 56						; size = 4
$T30 = 60						; size = 4
$T31 = 64						; size = 4
$T32 = 68						; size = 4
$T33 = 72						; size = 4
$T34 = 76						; size = 4
$T35 = 80						; size = 4
$T36 = 84						; size = 4
$T37 = 88						; size = 4
__Newoff$ = 92						; size = 4
tv161 = 96						; size = 4
__Block$ = 100						; size = 4
tv84 = 104						; size = 4
__Overflow_is_possible$38 = 111				; size = 1
_this$ = 112						; size = 4
_<_Vals_0>$ = 124					; size = 4
??$_Emplace_back_internal@ABUSReservingMotionNode@CActorInstance@@@?$deque@USReservingMotionNode@CActorInstance@@V?$allocator@USReservingMotionNode@CActorInstance@@@std@@@std@@AAEXABUSReservingMotionNode@CActorInstance@@@Z PROC ; std::deque<CActorInstance::SReservingMotionNode,std::allocator<CActorInstance::SReservingMotionNode> >::_Emplace_back_internal<CActorInstance::SReservingMotionNode const &>, COMDAT
; _this$ = ecx

; 1114 :     void _Emplace_back_internal(_Tys&&... _Vals) {

  00000	55		 push	 ebp
  00001	8d 6c 24 8c	 lea	 ebp, DWORD PTR [esp-116]
  00005	81 ec b0 00 00
	00		 sub	 esp, 176		; 000000b0H
  0000b	56		 push	 esi
  0000c	57		 push	 edi
  0000d	89 4d 70	 mov	 DWORD PTR _this$[ebp], ecx

; 1530 :         return _Mypair._Myval2;

  00010	8b 45 70	 mov	 eax, DWORD PTR _this$[ebp]
  00013	89 45 58	 mov	 DWORD PTR $T37[ebp], eax

; 1554 :         return _Get_data()._Myoff;

  00016	8b 45 58	 mov	 eax, DWORD PTR $T37[ebp]
  00019	83 c0 0c	 add	 eax, 12			; 0000000cH
  0001c	89 45 50	 mov	 DWORD PTR $T35[ebp], eax

; 1530 :         return _Mypair._Myval2;

  0001f	8b 45 70	 mov	 eax, DWORD PTR _this$[ebp]
  00022	89 45 54	 mov	 DWORD PTR $T36[ebp], eax

; 1562 :         return _Get_data()._Mysize;

  00025	8b 45 54	 mov	 eax, DWORD PTR $T36[ebp]
  00028	83 c0 10	 add	 eax, 16			; 00000010H
  0002b	89 45 4c	 mov	 DWORD PTR $T34[ebp], eax

; 1115 :         _PUSH_BACK_BEGIN;

  0002e	8b 45 50	 mov	 eax, DWORD PTR $T35[ebp]
  00031	8b 00		 mov	 eax, DWORD PTR [eax]
  00033	8b 4d 4c	 mov	 ecx, DWORD PTR $T34[ebp]
  00036	03 01		 add	 eax, DWORD PTR [ecx]
  00038	33 d2		 xor	 edx, edx
  0003a	33 c9		 xor	 ecx, ecx
  0003c	41		 inc	 ecx
  0003d	f7 f1		 div	 ecx
  0003f	85 d2		 test	 edx, edx
  00041	75 35		 jne	 SHORT $LN2@Emplace_ba

; 1530 :         return _Mypair._Myval2;

  00043	8b 45 70	 mov	 eax, DWORD PTR _this$[ebp]
  00046	89 45 48	 mov	 DWORD PTR $T33[ebp], eax

; 1546 :         return _Get_data()._Mapsize;

  00049	8b 45 48	 mov	 eax, DWORD PTR $T33[ebp]
  0004c	83 c0 08	 add	 eax, 8
  0004f	89 45 3c	 mov	 DWORD PTR $T30[ebp], eax

; 1530 :         return _Mypair._Myval2;

  00052	8b 45 70	 mov	 eax, DWORD PTR _this$[ebp]
  00055	89 45 44	 mov	 DWORD PTR $T32[ebp], eax

; 1562 :         return _Get_data()._Mysize;

  00058	8b 45 44	 mov	 eax, DWORD PTR $T32[ebp]
  0005b	83 c0 10	 add	 eax, 16			; 00000010H
  0005e	89 45 40	 mov	 DWORD PTR $T31[ebp], eax

; 1115 :         _PUSH_BACK_BEGIN;

  00061	8b 45 40	 mov	 eax, DWORD PTR $T31[ebp]
  00064	8b 00		 mov	 eax, DWORD PTR [eax]
  00066	40		 inc	 eax
  00067	8b 4d 3c	 mov	 ecx, DWORD PTR $T30[ebp]
  0006a	39 01		 cmp	 DWORD PTR [ecx], eax
  0006c	77 0a		 ja	 SHORT $LN2@Emplace_ba
  0006e	6a 01		 push	 1
  00070	8b 4d 70	 mov	 ecx, DWORD PTR _this$[ebp]
  00073	e8 00 00 00 00	 call	 ?_Growmap@?$deque@USReservingMotionNode@CActorInstance@@V?$allocator@USReservingMotionNode@CActorInstance@@@std@@@std@@AAEXI@Z ; std::deque<CActorInstance::SReservingMotionNode,std::allocator<CActorInstance::SReservingMotionNode> >::_Growmap
$LN2@Emplace_ba:
  00078	8b 45 d4	 mov	 eax, DWORD PTR $T5[ebp]
  0007b	89 45 68	 mov	 DWORD PTR tv84[ebp], eax

; 1530 :         return _Mypair._Myval2;

  0007e	8b 45 70	 mov	 eax, DWORD PTR _this$[ebp]
  00081	89 45 38	 mov	 DWORD PTR $T29[ebp], eax

; 1554 :         return _Get_data()._Myoff;

  00084	8b 45 38	 mov	 eax, DWORD PTR $T29[ebp]
  00087	83 c0 0c	 add	 eax, 12			; 0000000cH
  0008a	89 45 68	 mov	 DWORD PTR tv84[ebp], eax

; 1530 :         return _Mypair._Myval2;

  0008d	8b 45 70	 mov	 eax, DWORD PTR _this$[ebp]
  00090	89 45 34	 mov	 DWORD PTR $T28[ebp], eax

; 1546 :         return _Get_data()._Mapsize;

  00093	8b 45 34	 mov	 eax, DWORD PTR $T28[ebp]
  00096	83 c0 08	 add	 eax, 8
  00099	89 45 30	 mov	 DWORD PTR $T27[ebp], eax

; 1115 :         _PUSH_BACK_BEGIN;

  0009c	8b 45 30	 mov	 eax, DWORD PTR $T27[ebp]
  0009f	8b 00		 mov	 eax, DWORD PTR [eax]
  000a1	48		 dec	 eax
  000a2	8b 4d 68	 mov	 ecx, DWORD PTR tv84[ebp]
  000a5	23 01		 and	 eax, DWORD PTR [ecx]
  000a7	8b 4d 68	 mov	 ecx, DWORD PTR tv84[ebp]
  000aa	89 01		 mov	 DWORD PTR [ecx], eax

; 1530 :         return _Mypair._Myval2;

  000ac	8b 45 70	 mov	 eax, DWORD PTR _this$[ebp]
  000af	89 45 2c	 mov	 DWORD PTR $T26[ebp], eax

; 1554 :         return _Get_data()._Myoff;

  000b2	8b 45 2c	 mov	 eax, DWORD PTR $T26[ebp]
  000b5	83 c0 0c	 add	 eax, 12			; 0000000cH
  000b8	89 45 24	 mov	 DWORD PTR $T24[ebp], eax

; 1530 :         return _Mypair._Myval2;

  000bb	8b 45 70	 mov	 eax, DWORD PTR _this$[ebp]
  000be	89 45 28	 mov	 DWORD PTR $T25[ebp], eax

; 1562 :         return _Get_data()._Mysize;

  000c1	8b 45 28	 mov	 eax, DWORD PTR $T25[ebp]
  000c4	83 c0 10	 add	 eax, 16			; 00000010H
  000c7	89 45 20	 mov	 DWORD PTR $T23[ebp], eax

; 1115 :         _PUSH_BACK_BEGIN;

  000ca	8b 45 24	 mov	 eax, DWORD PTR $T24[ebp]
  000cd	8b 00		 mov	 eax, DWORD PTR [eax]
  000cf	8b 4d 20	 mov	 ecx, DWORD PTR $T23[ebp]
  000d2	03 01		 add	 eax, DWORD PTR [ecx]
  000d4	89 45 5c	 mov	 DWORD PTR __Newoff$[ebp], eax

; 1534 :         return _Mypair._Myval2;

  000d7	8b 45 70	 mov	 eax, DWORD PTR _this$[ebp]
  000da	89 45 1c	 mov	 DWORD PTR $T22[ebp], eax

; 548  :         return (_Off / _DEQUESIZ) & (_Mapsize - 1);

  000dd	8b 45 1c	 mov	 eax, DWORD PTR $T22[ebp]
  000e0	8b 40 08	 mov	 eax, DWORD PTR [eax+8]
  000e3	48		 dec	 eax
  000e4	23 45 5c	 and	 eax, DWORD PTR __Newoff$[ebp]
  000e7	89 45 18	 mov	 DWORD PTR $T21[ebp], eax

; 1514 :         return _Get_data()._Getblock(_Off);

  000ea	8b 45 18	 mov	 eax, DWORD PTR $T21[ebp]
  000ed	89 45 64	 mov	 DWORD PTR __Block$[ebp], eax

; 1530 :         return _Mypair._Myval2;

  000f0	8b 45 70	 mov	 eax, DWORD PTR _this$[ebp]
  000f3	89 45 14	 mov	 DWORD PTR $T20[ebp], eax

; 1538 :         return _Get_data()._Map;

  000f6	8b 45 14	 mov	 eax, DWORD PTR $T20[ebp]
  000f9	83 c0 04	 add	 eax, 4
  000fc	89 45 10	 mov	 DWORD PTR $T19[ebp], eax

; 1115 :         _PUSH_BACK_BEGIN;

  000ff	8b 45 10	 mov	 eax, DWORD PTR $T19[ebp]
  00102	8b 00		 mov	 eax, DWORD PTR [eax]
  00104	8b 4d 64	 mov	 ecx, DWORD PTR __Block$[ebp]
  00107	83 3c 88 00	 cmp	 DWORD PTR [eax+ecx*4], 0
  0010b	75 58		 jne	 SHORT $LN3@Emplace_ba

; 1522 :         return _Mypair._Get_first();

  0010d	8b 45 70	 mov	 eax, DWORD PTR _this$[ebp]
; File C:\Program Files (x86)\Microsoft Visual Studio\2019\Community\VC\Tools\MSVC\14.28.29333\include\xmemory

; 1347 :         return *this;

  00110	89 45 0c	 mov	 DWORD PTR $T18[ebp], eax
; File C:\Program Files (x86)\Microsoft Visual Studio\2019\Community\VC\Tools\MSVC\14.28.29333\include\deque

; 1522 :         return _Mypair._Get_first();

  00113	8b 45 0c	 mov	 eax, DWORD PTR $T18[ebp]
  00116	89 45 d0	 mov	 DWORD PTR $T4[ebp], eax
; File C:\Program Files (x86)\Microsoft Visual Studio\2019\Community\VC\Tools\MSVC\14.28.29333\include\xmemory

; 56   :     constexpr bool _Overflow_is_possible = _Ty_size > 1;

  00119	c6 45 6f 01	 mov	 BYTE PTR __Overflow_is_possible$38[ebp], 1

; 57   : 
; 58   :     if _CONSTEXPR_IF (_Overflow_is_possible) {
; 59   :         constexpr size_t _Max_possible = static_cast<size_t>(-1) / _Ty_size;

  0011d	c7 45 cc aa aa
	aa 0a		 mov	 DWORD PTR __Max_possible$3[ebp], 178956970 ; 0aaaaaaaH

; 60   :         if (_Count > _Max_possible) {

  00124	33 c0		 xor	 eax, eax
  00126	40		 inc	 eax
  00127	3d aa aa aa 0a	 cmp	 eax, 178956970		; 0aaaaaaaH
  0012c	76 05		 jbe	 SHORT $LN77@Emplace_ba

; 61   :             _Throw_bad_array_new_length(); // multiply overflow

  0012e	e8 00 00 00 00	 call	 ?_Throw_bad_array_new_length@std@@YAXXZ ; std::_Throw_bad_array_new_length
$LN77@Emplace_ba:

; 62   :         }
; 63   :     }
; 64   : 
; 65   :     return _Count * _Ty_size;

  00133	33 c0		 xor	 eax, eax
  00135	40		 inc	 eax
  00136	6b c0 18	 imul	 eax, eax, 24
  00139	89 45 08	 mov	 DWORD PTR $T17[ebp], eax

; 814  :         return static_cast<_Ty*>(_Allocate<_New_alignof<_Ty>>(_Get_size_of_n<sizeof(_Ty)>(_Count)));

  0013c	ff 75 08	 push	 DWORD PTR $T17[ebp]
  0013f	e8 00 00 00 00	 call	 ??$_Allocate@$07U_Default_allocate_traits@std@@$0A@@std@@YAPAXI@Z ; std::_Allocate<8,std::_Default_allocate_traits,0>
  00144	59		 pop	 ecx
  00145	89 45 fc	 mov	 DWORD PTR $T14[ebp], eax
; File C:\Program Files (x86)\Microsoft Visual Studio\2019\Community\VC\Tools\MSVC\14.28.29333\include\deque

; 1530 :         return _Mypair._Myval2;

  00148	8b 45 70	 mov	 eax, DWORD PTR _this$[ebp]
  0014b	89 45 04	 mov	 DWORD PTR $T16[ebp], eax

; 1538 :         return _Get_data()._Map;

  0014e	8b 45 04	 mov	 eax, DWORD PTR $T16[ebp]
  00151	83 c0 04	 add	 eax, 4
  00154	89 45 00	 mov	 DWORD PTR $T15[ebp], eax

; 1115 :         _PUSH_BACK_BEGIN;

  00157	8b 45 00	 mov	 eax, DWORD PTR $T15[ebp]
  0015a	8b 00		 mov	 eax, DWORD PTR [eax]
  0015c	8b 4d 64	 mov	 ecx, DWORD PTR __Block$[ebp]
  0015f	8b 55 fc	 mov	 edx, DWORD PTR $T14[ebp]
  00162	89 14 88	 mov	 DWORD PTR [eax+ecx*4], edx
$LN3@Emplace_ba:
; File C:\Program Files (x86)\Microsoft Visual Studio\2019\Community\VC\Tools\MSVC\14.28.29333\include\type_traits

; 1443 :     return static_cast<_Ty&&>(_Arg);

  00165	8b 45 7c	 mov	 eax, DWORD PTR _<_Vals_0>$[ebp]
  00168	89 45 e4	 mov	 DWORD PTR $T9[ebp], eax
; File C:\Program Files (x86)\Microsoft Visual Studio\2019\Community\VC\Tools\MSVC\14.28.29333\include\deque

; 1530 :         return _Mypair._Myval2;

  0016b	8b 45 70	 mov	 eax, DWORD PTR _this$[ebp]
  0016e	89 45 f8	 mov	 DWORD PTR $T13[ebp], eax

; 1538 :         return _Get_data()._Map;

  00171	8b 45 f8	 mov	 eax, DWORD PTR $T13[ebp]
  00174	83 c0 04	 add	 eax, 4
  00177	89 45 f4	 mov	 DWORD PTR $T12[ebp], eax

; 1116 :         _Alty_traits::construct(_Getal(), _Unfancy(_Map()[_Block] + _Newoff % _DEQUESIZ), _STD forward<_Tys>(_Vals)...);

  0017a	8b 45 5c	 mov	 eax, DWORD PTR __Newoff$[ebp]
  0017d	33 d2		 xor	 edx, edx
  0017f	33 c9		 xor	 ecx, ecx
  00181	41		 inc	 ecx
  00182	f7 f1		 div	 ecx
  00184	6b c2 18	 imul	 eax, edx, 24
  00187	8b 4d f4	 mov	 ecx, DWORD PTR $T12[ebp]
  0018a	8b 09		 mov	 ecx, DWORD PTR [ecx]
  0018c	8b 55 64	 mov	 edx, DWORD PTR __Block$[ebp]
  0018f	03 04 91	 add	 eax, DWORD PTR [ecx+edx*4]
  00192	89 45 f0	 mov	 DWORD PTR __Ptr$[ebp], eax
; File C:\Program Files (x86)\Microsoft Visual Studio\2019\Community\VC\Tools\MSVC\14.28.29333\include\xstddef

; 289  :     return _Ptr;

  00195	8b 45 f0	 mov	 eax, DWORD PTR __Ptr$[ebp]
  00198	89 45 e8	 mov	 DWORD PTR $T10[ebp], eax
; File C:\Program Files (x86)\Microsoft Visual Studio\2019\Community\VC\Tools\MSVC\14.28.29333\include\deque

; 1522 :         return _Mypair._Get_first();

  0019b	8b 45 70	 mov	 eax, DWORD PTR _this$[ebp]
; File C:\Program Files (x86)\Microsoft Visual Studio\2019\Community\VC\Tools\MSVC\14.28.29333\include\xmemory

; 1347 :         return *this;

  0019e	89 45 ec	 mov	 DWORD PTR $T11[ebp], eax
; File C:\Program Files (x86)\Microsoft Visual Studio\2019\Community\VC\Tools\MSVC\14.28.29333\include\deque

; 1522 :         return _Mypair._Get_first();

  001a1	8b 45 ec	 mov	 eax, DWORD PTR $T11[ebp]
  001a4	89 45 c8	 mov	 DWORD PTR $T2[ebp], eax
; File C:\Program Files (x86)\Microsoft Visual Studio\2019\Community\VC\Tools\MSVC\14.28.29333\include\vcruntime_new.h

; 169  :         return _Where;

  001a7	8b 45 e8	 mov	 eax, DWORD PTR $T10[ebp]
  001aa	89 45 dc	 mov	 DWORD PTR $T7[ebp], eax
; File C:\Program Files (x86)\Microsoft Visual Studio\2019\Community\VC\Tools\MSVC\14.28.29333\include\type_traits

; 1443 :     return static_cast<_Ty&&>(_Arg);

  001ad	8b 45 e4	 mov	 eax, DWORD PTR $T9[ebp]
  001b0	89 45 e0	 mov	 DWORD PTR $T8[ebp], eax
; File C:\Program Files (x86)\Microsoft Visual Studio\2019\Community\VC\Tools\MSVC\14.28.29333\include\xmemory

; 701  :         ::new (const_cast<void*>(static_cast<const volatile void*>(_Ptr))) _Objty(_STD forward<_Types>(_Args)...);

  001b3	6a 06		 push	 6
  001b5	59		 pop	 ecx
  001b6	8b 75 e0	 mov	 esi, DWORD PTR $T8[ebp]
  001b9	8b 7d dc	 mov	 edi, DWORD PTR $T7[ebp]
  001bc	f3 a5		 rep movsd
; File C:\Program Files (x86)\Microsoft Visual Studio\2019\Community\VC\Tools\MSVC\14.28.29333\include\deque

; 1117 :         _PUSH_BACK_END;

  001be	8b 45 c4	 mov	 eax, DWORD PTR $T1[ebp]
  001c1	89 45 60	 mov	 DWORD PTR tv161[ebp], eax

; 1530 :         return _Mypair._Myval2;

  001c4	8b 45 70	 mov	 eax, DWORD PTR _this$[ebp]
  001c7	89 45 d8	 mov	 DWORD PTR $T6[ebp], eax

; 1562 :         return _Get_data()._Mysize;

  001ca	8b 45 d8	 mov	 eax, DWORD PTR $T6[ebp]
  001cd	83 c0 10	 add	 eax, 16			; 00000010H
  001d0	89 45 60	 mov	 DWORD PTR tv161[ebp], eax

; 1117 :         _PUSH_BACK_END;

  001d3	8b 45 60	 mov	 eax, DWORD PTR tv161[ebp]
  001d6	8b 00		 mov	 eax, DWORD PTR [eax]
  001d8	40		 inc	 eax
  001d9	8b 4d 60	 mov	 ecx, DWORD PTR tv161[ebp]
  001dc	89 01		 mov	 DWORD PTR [ecx], eax
$LN80@Emplace_ba:

; 1118 :     }

  001de	5f		 pop	 edi
  001df	5e		 pop	 esi
  001e0	83 c5 74	 add	 ebp, 116		; 00000074H
  001e3	c9		 leave
  001e4	c2 04 00	 ret	 4
??$_Emplace_back_internal@ABUSReservingMotionNode@CActorInstance@@@?$deque@USReservingMotionNode@CActorInstance@@V?$allocator@USReservingMotionNode@CActorInstance@@@std@@@std@@AAEXABUSReservingMotionNode@CActorInstance@@@Z ENDP ; std::deque<CActorInstance::SReservingMotionNode,std::allocator<CActorInstance::SReservingMotionNode> >::_Emplace_back_internal<CActorInstance::SReservingMotionNode const &>
_TEXT	ENDS
; Function compile flags: /Odspy
; File C:\Program Files (x86)\Microsoft Visual Studio\2019\Community\VC\Tools\MSVC\14.28.29333\include\xtree
; File C:\Program Files (x86)\Microsoft Visual Studio\2019\Community\VC\Tools\MSVC\14.28.29333\include\utility
; File C:\Program Files (x86)\Microsoft Visual Studio\2019\Community\VC\Tools\MSVC\14.28.29333\include\xtree
;	COMDAT ??$_Erase_tree@V?$allocator@U?$_Tree_node@U?$pair@QBUSHitData@NRaceData@@V?$map@PAVCActorInstance@@MU?$less@PAVCActorInstance@@@std@@V?$allocator@U?$pair@QAVCActorInstance@@M@std@@@3@@std@@@std@@PAX@std@@@std@@@?$_Tree_val@U?$_Tree_simple_types@U?$pair@QBUSHitData@NRaceData@@V?$map@PAVCActorInstance@@MU?$less@PAVCActorInstance@@@std@@V?$allocator@U?$pair@QAVCActorInstance@@M@std@@@3@@std@@@std@@@std@@@std@@QAEXAAV?$allocator@U?$_Tree_node@U?$pair@QBUSHitData@NRaceData@@V?$map@PAVCActorInstance@@MU?$less@PAVCActorInstance@@@std@@V?$allocator@U?$pair@QAVCActorInstance@@M@std@@@3@@std@@@std@@PAX@std@@@1@PAU?$_Tree_node@U?$pair@QBUSHitData@NRaceData@@V?$map@PAVCActorInstance@@MU?$less@PAVCActorInstance@@@std@@V?$allocator@U?$pair@QAVCActorInstance@@M@std@@@3@@std@@@std@@PAX@1@@Z
_TEXT	SEGMENT
$T1 = -16						; size = 4
__Old_val$2 = -12					; size = 4
__New_val$ = -8						; size = 4
_this$ = -4						; size = 4
__Al$ = 8						; size = 4
__Rootnode$ = 12					; size = 4
??$_Erase_tree@V?$allocator@U?$_Tree_node@U?$pair@QBUSHitData@NRaceData@@V?$map@PAVCActorInstance@@MU?$less@PAVCActorInstance@@@std@@V?$allocator@U?$pair@QAVCActorInstance@@M@std@@@3@@std@@@std@@PAX@std@@@std@@@?$_Tree_val@U?$_Tree_simple_types@U?$pair@QBUSHitData@NRaceData@@V?$map@PAVCActorInstance@@MU?$less@PAVCActorInstance@@@std@@V?$allocator@U?$pair@QAVCActorInstance@@M@std@@@3@@std@@@std@@@std@@@std@@QAEXAAV?$allocator@U?$_Tree_node@U?$pair@QBUSHitData@NRaceData@@V?$map@PAVCActorInstance@@MU?$less@PAVCActorInstance@@@std@@V?$allocator@U?$pair@QAVCActorInstance@@M@std@@@3@@std@@@std@@PAX@std@@@1@PAU?$_Tree_node@U?$pair@QBUSHitData@NRaceData@@V?$map@PAVCActorInstance@@MU?$less@PAVCActorInstance@@@std@@V?$allocator@U?$pair@QAVCActorInstance@@M@std@@@3@@std@@@std@@PAX@1@@Z PROC ; std::_Tree_val<std::_Tree_simple_types<std::pair<NRaceData::SHitData const * const,std::map<CActorInstance *,float,std::less<CActorInstance *>,std::allocator<std::pair<CActorInstance * const,float> > > > > >::_Erase_tree<std::allocator<std::_Tree_node<std::pair<NRaceData::SHitData const * const,std::map<CActorInstance *,float,std::less<CActorInstance *>,std::allocator<std::pair<CActorInstance * const,float> > > >,void *> > >, COMDAT
; _this$ = ecx

; 742  :     void _Erase_tree(_Alnode& _Al, _Nodeptr _Rootnode) noexcept {

  00000	55		 push	 ebp
  00001	8b ec		 mov	 ebp, esp
  00003	83 ec 10	 sub	 esp, 16			; 00000010H
  00006	89 4d fc	 mov	 DWORD PTR _this$[ebp], ecx
$LN2@Erase_tree:

; 743  :         while (!_Rootnode->_Isnil) { // free subtrees, then node

  00009	8b 45 0c	 mov	 eax, DWORD PTR __Rootnode$[ebp]
  0000c	0f be 40 0d	 movsx	 eax, BYTE PTR [eax+13]
  00010	85 c0		 test	 eax, eax
  00012	75 3a		 jne	 SHORT $LN4@Erase_tree

; 744  :             _Erase_tree(_Al, _Rootnode->_Right);

  00014	8b 45 0c	 mov	 eax, DWORD PTR __Rootnode$[ebp]
  00017	ff 70 08	 push	 DWORD PTR [eax+8]
  0001a	ff 75 08	 push	 DWORD PTR __Al$[ebp]
  0001d	8b 4d fc	 mov	 ecx, DWORD PTR _this$[ebp]
  00020	e8 00 00 00 00	 call	 ??$_Erase_tree@V?$allocator@U?$_Tree_node@U?$pair@QBUSHitData@NRaceData@@V?$map@PAVCActorInstance@@MU?$less@PAVCActorInstance@@@std@@V?$allocator@U?$pair@QAVCActorInstance@@M@std@@@3@@std@@@std@@PAX@std@@@std@@@?$_Tree_val@U?$_Tree_simple_types@U?$pair@QBUSHitData@NRaceData@@V?$map@PAVCActorInstance@@MU?$less@PAVCActorInstance@@@std@@V?$allocator@U?$pair@QAVCActorInstance@@M@std@@@3@@std@@@std@@@std@@@std@@QAEXAAV?$allocator@U?$_Tree_node@U?$pair@QBUSHitData@NRaceData@@V?$map@PAVCActorInstance@@MU?$less@PAVCActorInstance@@@std@@V?$allocator@U?$pair@QAVCActorInstance@@M@std@@@3@@std@@@std@@PAX@std@@@1@PAU?$_Tree_node@U?$pair@QBUSHitData@NRaceData@@V?$map@PAVCActorInstance@@MU?$less@PAVCActorInstance@@@std@@V?$allocator@U?$pair@QAVCActorInstance@@M@std@@@3@@std@@@std@@PAX@1@@Z ; std::_Tree_val<std::_Tree_simple_types<std::pair<NRaceData::SHitData const * const,std::map<CActorInstance *,float,std::less<CActorInstance *>,std::allocator<std::pair<CActorInstance * const,float> > > > > >::_Erase_tree<std::allocator<std::_Tree_node<std::pair<NRaceData::SHitData const * const,std::map<CActorInstance *,float,std::less<CActorInstance *>,std::allocator<std::pair<CActorInstance * const,float> > > >,void *> > >

; 745  :             _Alnode::value_type::_Freenode(_Al, _STD exchange(_Rootnode, _Rootnode->_Left));

  00025	8b 45 0c	 mov	 eax, DWORD PTR __Rootnode$[ebp]
  00028	89 45 f8	 mov	 DWORD PTR __New_val$[ebp], eax
; File C:\Program Files (x86)\Microsoft Visual Studio\2019\Community\VC\Tools\MSVC\14.28.29333\include\utility

; 598  :     _Ty _Old_val = static_cast<_Ty&&>(_Val);

  0002b	8b 45 0c	 mov	 eax, DWORD PTR __Rootnode$[ebp]
  0002e	89 45 f4	 mov	 DWORD PTR __Old_val$2[ebp], eax

; 599  :     _Val         = static_cast<_Other&&>(_New_val);

  00031	8b 45 f8	 mov	 eax, DWORD PTR __New_val$[ebp]
  00034	8b 00		 mov	 eax, DWORD PTR [eax]
  00036	89 45 0c	 mov	 DWORD PTR __Rootnode$[ebp], eax

; 600  :     return _Old_val;

  00039	8b 45 f4	 mov	 eax, DWORD PTR __Old_val$2[ebp]
  0003c	89 45 f0	 mov	 DWORD PTR $T1[ebp], eax
; File C:\Program Files (x86)\Microsoft Visual Studio\2019\Community\VC\Tools\MSVC\14.28.29333\include\xtree

; 745  :             _Alnode::value_type::_Freenode(_Al, _STD exchange(_Rootnode, _Rootnode->_Left));

  0003f	ff 75 f0	 push	 DWORD PTR $T1[ebp]
  00042	ff 75 08	 push	 DWORD PTR __Al$[ebp]
  00045	e8 00 00 00 00	 call	 ??$_Freenode@V?$allocator@U?$_Tree_node@U?$pair@QBUSHitData@NRaceData@@V?$map@PAVCActorInstance@@MU?$less@PAVCActorInstance@@@std@@V?$allocator@U?$pair@QAVCActorInstance@@M@std@@@3@@std@@@std@@PAX@std@@@std@@@?$_Tree_node@U?$pair@QBUSHitData@NRaceData@@V?$map@PAVCActorInstance@@MU?$less@PAVCActorInstance@@@std@@V?$allocator@U?$pair@QAVCActorInstance@@M@std@@@3@@std@@@std@@PAX@std@@SAXAAV?$allocator@U?$_Tree_node@U?$pair@QBUSHitData@NRaceData@@V?$map@PAVCActorInstance@@MU?$less@PAVCActorInstance@@@std@@V?$allocator@U?$pair@QAVCActorInstance@@M@std@@@3@@std@@@std@@PAX@std@@@1@PAU01@@Z ; std::_Tree_node<std::pair<NRaceData::SHitData const * const,std::map<CActorInstance *,float,std::less<CActorInstance *>,std::allocator<std::pair<CActorInstance * const,float> > > >,void *>::_Freenode<std::allocator<std::_Tree_node<std::pair<NRaceData::SHitData const * const,std::map<CActorInstance *,float,std::less<CActorInstance *>,std::allocator<std::pair<CActorInstance * const,float> > > >,void *> > >
  0004a	59		 pop	 ecx
  0004b	59		 pop	 ecx

; 746  :         }

  0004c	eb bb		 jmp	 SHORT $LN2@Erase_tree
$LN4@Erase_tree:

; 747  :     }

  0004e	c9		 leave
  0004f	c2 08 00	 ret	 8
??$_Erase_tree@V?$allocator@U?$_Tree_node@U?$pair@QBUSHitData@NRaceData@@V?$map@PAVCActorInstance@@MU?$less@PAVCActorInstance@@@std@@V?$allocator@U?$pair@QAVCActorInstance@@M@std@@@3@@std@@@std@@PAX@std@@@std@@@?$_Tree_val@U?$_Tree_simple_types@U?$pair@QBUSHitData@NRaceData@@V?$map@PAVCActorInstance@@MU?$less@PAVCActorInstance@@@std@@V?$allocator@U?$pair@QAVCActorInstance@@M@std@@@3@@std@@@std@@@std@@@std@@QAEXAAV?$allocator@U?$_Tree_node@U?$pair@QBUSHitData@NRaceData@@V?$map@PAVCActorInstance@@MU?$less@PAVCActorInstance@@@std@@V?$allocator@U?$pair@QAVCActorInstance@@M@std@@@3@@std@@@std@@PAX@std@@@1@PAU?$_Tree_node@U?$pair@QBUSHitData@NRaceData@@V?$map@PAVCActorInstance@@MU?$less@PAVCActorInstance@@@std@@V?$allocator@U?$pair@QAVCActorInstance@@M@std@@@3@@std@@@std@@PAX@1@@Z ENDP ; std::_Tree_val<std::_Tree_simple_types<std::pair<NRaceData::SHitData const * const,std::map<CActorInstance *,float,std::less<CActorInstance *>,std::allocator<std::pair<CActorInstance * const,float> > > > > >::_Erase_tree<std::allocator<std::_Tree_node<std::pair<NRaceData::SHitData const * const,std::map<CActorInstance *,float,std::less<CActorInstance *>,std::allocator<std::pair<CActorInstance * const,float> > > >,void *> > >
_TEXT	ENDS
; Function compile flags: /Odspy
; File C:\Program Files (x86)\Microsoft Visual Studio\2019\Community\VC\Tools\MSVC\14.28.29333\include\vector
;	COMDAT ?_Xrange@?$vector@USMotion@CRaceData@@V?$allocator@USMotion@CRaceData@@@std@@@std@@CAXXZ
_TEXT	SEGMENT
?_Xrange@?$vector@USMotion@CRaceData@@V?$allocator@USMotion@CRaceData@@@std@@@std@@CAXXZ PROC ; std::vector<CRaceData::SMotion,std::allocator<CRaceData::SMotion> >::_Xrange, COMDAT

; 1708 :     [[noreturn]] static void _Xrange() {

  00000	55		 push	 ebp
  00001	8b ec		 mov	 ebp, esp

; 1709 :         _Xout_of_range("invalid vector subscript");

  00003	68 00 00 00 00	 push	 OFFSET ??_C@_0BJ@DHFDPMIM@invalid?5vector?5subscript@
  00008	e8 00 00 00 00	 call	 ?_Xout_of_range@std@@YAXPBD@Z ; std::_Xout_of_range
$LN2@Xrange:

; 1710 :     }

  0000d	5d		 pop	 ebp
  0000e	c3		 ret	 0
?_Xrange@?$vector@USMotion@CRaceData@@V?$allocator@USMotion@CRaceData@@@std@@@std@@CAXXZ ENDP ; std::vector<CRaceData::SMotion,std::allocator<CRaceData::SMotion> >::_Xrange
_TEXT	ENDS
; Function compile flags: /Odspy
; File C:\Program Files (x86)\Microsoft Visual Studio\2019\Community\VC\Tools\MSVC\14.28.29333\include\vector
;	COMDAT ?at@?$vector@USMotion@CRaceData@@V?$allocator@USMotion@CRaceData@@@std@@@std@@QBEABUSMotion@CRaceData@@I@Z
_TEXT	SEGMENT
_this$ = -8						; size = 4
__My_data$ = -4						; size = 4
__Pos$ = 8						; size = 4
?at@?$vector@USMotion@CRaceData@@V?$allocator@USMotion@CRaceData@@@std@@@std@@QBEABUSMotion@CRaceData@@I@Z PROC ; std::vector<CRaceData::SMotion,std::allocator<CRaceData::SMotion> >::at, COMDAT
; _this$ = ecx

; 1526 :     _NODISCARD const _Ty& at(const size_type _Pos) const {

  00000	55		 push	 ebp
  00001	8b ec		 mov	 ebp, esp
  00003	51		 push	 ecx
  00004	51		 push	 ecx
  00005	89 4d f8	 mov	 DWORD PTR _this$[ebp], ecx

; 1527 :         auto& _My_data = _Mypair._Myval2;

  00008	8b 45 f8	 mov	 eax, DWORD PTR _this$[ebp]
  0000b	89 45 fc	 mov	 DWORD PTR __My_data$[ebp], eax

; 1528 :         if (static_cast<size_type>(_My_data._Mylast - _My_data._Myfirst) <= _Pos) {

  0000e	8b 45 fc	 mov	 eax, DWORD PTR __My_data$[ebp]
  00011	8b 4d fc	 mov	 ecx, DWORD PTR __My_data$[ebp]
  00014	8b 40 04	 mov	 eax, DWORD PTR [eax+4]
  00017	2b 01		 sub	 eax, DWORD PTR [ecx]
  00019	99		 cdq
  0001a	6a 0c		 push	 12			; 0000000cH
  0001c	59		 pop	 ecx
  0001d	f7 f9		 idiv	 ecx
  0001f	3b 45 08	 cmp	 eax, DWORD PTR __Pos$[ebp]
  00022	77 05		 ja	 SHORT $LN2@at

; 1529 :             _Xrange();

  00024	e8 00 00 00 00	 call	 ?_Xrange@?$vector@USMotion@CRaceData@@V?$allocator@USMotion@CRaceData@@@std@@@std@@CAXXZ ; std::vector<CRaceData::SMotion,std::allocator<CRaceData::SMotion> >::_Xrange
$LN2@at:

; 1530 :         }
; 1531 : 
; 1532 :         return _My_data._Myfirst[_Pos];

  00029	6b 45 08 0c	 imul	 eax, DWORD PTR __Pos$[ebp], 12
  0002d	8b 4d fc	 mov	 ecx, DWORD PTR __My_data$[ebp]
  00030	03 01		 add	 eax, DWORD PTR [ecx]
$LN3@at:

; 1533 :     }

  00032	c9		 leave
  00033	c2 04 00	 ret	 4
?at@?$vector@USMotion@CRaceData@@V?$allocator@USMotion@CRaceData@@@std@@@std@@QBEABUSMotion@CRaceData@@I@Z ENDP ; std::vector<CRaceData::SMotion,std::allocator<CRaceData::SMotion> >::at
_TEXT	ENDS
; Function compile flags: /Odspy
; File C:\Program Files (x86)\Microsoft Visual Studio\2019\Community\VC\Tools\MSVC\14.28.29333\include\deque
; File C:\Program Files (x86)\Microsoft Visual Studio\2019\Community\VC\Tools\MSVC\14.28.29333\include\xmemory
; File C:\Program Files (x86)\Microsoft Visual Studio\2019\Community\VC\Tools\MSVC\14.28.29333\include\deque
;	COMDAT ??D?$_Deque_const_iterator@V?$_Deque_val@U?$_Deque_simple_types@USReservingMotionNode@CActorInstance@@@std@@@std@@@std@@QBEABUSReservingMotionNode@CActorInstance@@XZ
_TEXT	SEGMENT
__Block$ = -24						; size = 4
__Off$ = -20						; size = 4
__Off$ = -16						; size = 4
__Mycont$ = -12						; size = 4
tv89 = -8						; size = 4
_this$ = -4						; size = 4
??D?$_Deque_const_iterator@V?$_Deque_val@U?$_Deque_simple_types@USReservingMotionNode@CActorInstance@@@std@@@std@@@std@@QBEABUSReservingMotionNode@CActorInstance@@XZ PROC ; std::_Deque_const_iterator<std::_Deque_val<std::_Deque_simple_types<CActorInstance::SReservingMotionNode> > >::operator*, COMDAT
; _this$ = ecx

; 260  :     _NODISCARD reference operator*() const noexcept {

  00000	55		 push	 ebp
  00001	8b ec		 mov	 ebp, esp
  00003	83 ec 18	 sub	 esp, 24			; 00000018H
  00006	89 4d fc	 mov	 DWORD PTR _this$[ebp], ecx
; File C:\Program Files (x86)\Microsoft Visual Studio\2019\Community\VC\Tools\MSVC\14.28.29333\include\xmemory

; 1185 :         return _Myproxy ? _Myproxy->_Mycont : nullptr;

  00009	8b 45 fc	 mov	 eax, DWORD PTR _this$[ebp]
  0000c	83 38 00	 cmp	 DWORD PTR [eax], 0
  0000f	74 0c		 je	 SHORT $LN5@operator
  00011	8b 45 fc	 mov	 eax, DWORD PTR _this$[ebp]
  00014	8b 00		 mov	 eax, DWORD PTR [eax]
  00016	8b 00		 mov	 eax, DWORD PTR [eax]
  00018	89 45 f8	 mov	 DWORD PTR tv89[ebp], eax
  0001b	eb 04		 jmp	 SHORT $LN6@operator
$LN5@operator:
  0001d	83 65 f8 00	 and	 DWORD PTR tv89[ebp], 0
$LN6@operator:
  00021	8b 45 f8	 mov	 eax, DWORD PTR tv89[ebp]
  00024	89 45 f4	 mov	 DWORD PTR __Mycont$[ebp], eax
; File C:\Program Files (x86)\Microsoft Visual Studio\2019\Community\VC\Tools\MSVC\14.28.29333\include\deque

; 268  :         _Size_type _Block = _Mycont->_Getblock(_Myoff);

  00027	8b 45 fc	 mov	 eax, DWORD PTR _this$[ebp]
  0002a	8b 40 08	 mov	 eax, DWORD PTR [eax+8]
  0002d	89 45 f0	 mov	 DWORD PTR __Off$[ebp], eax

; 548  :         return (_Off / _DEQUESIZ) & (_Mapsize - 1);

  00030	8b 45 f4	 mov	 eax, DWORD PTR __Mycont$[ebp]
  00033	8b 40 08	 mov	 eax, DWORD PTR [eax+8]
  00036	48		 dec	 eax
  00037	23 45 f0	 and	 eax, DWORD PTR __Off$[ebp]
  0003a	89 45 e8	 mov	 DWORD PTR __Block$[ebp], eax

; 269  :         _Size_type _Off   = _Myoff % _DEQUESIZ;

  0003d	8b 45 fc	 mov	 eax, DWORD PTR _this$[ebp]
  00040	8b 40 08	 mov	 eax, DWORD PTR [eax+8]
  00043	33 d2		 xor	 edx, edx
  00045	33 c9		 xor	 ecx, ecx
  00047	41		 inc	 ecx
  00048	f7 f1		 div	 ecx
  0004a	89 55 ec	 mov	 DWORD PTR __Off$[ebp], edx

; 270  :         return _Mycont->_Map[_Block][_Off];

  0004d	8b 45 f4	 mov	 eax, DWORD PTR __Mycont$[ebp]
  00050	8b 40 04	 mov	 eax, DWORD PTR [eax+4]
  00053	6b 4d ec 18	 imul	 ecx, DWORD PTR __Off$[ebp], 24
  00057	8b 55 e8	 mov	 edx, DWORD PTR __Block$[ebp]
  0005a	03 0c 90	 add	 ecx, DWORD PTR [eax+edx*4]
  0005d	8b c1		 mov	 eax, ecx

; 271  :     }

  0005f	c9		 leave
  00060	c3		 ret	 0
??D?$_Deque_const_iterator@V?$_Deque_val@U?$_Deque_simple_types@USReservingMotionNode@CActorInstance@@@std@@@std@@@std@@QBEABUSReservingMotionNode@CActorInstance@@XZ ENDP ; std::_Deque_const_iterator<std::_Deque_val<std::_Deque_simple_types<CActorInstance::SReservingMotionNode> > >::operator*
_TEXT	ENDS
; Function compile flags: /Odspy
; File C:\Program Files (x86)\Microsoft Visual Studio\2019\Community\VC\Tools\MSVC\14.28.29333\include\xtree
; File C:\Program Files (x86)\Microsoft Visual Studio\2019\Community\VC\Tools\MSVC\14.28.29333\include\xstddef
; File C:\Program Files (x86)\Microsoft Visual Studio\2019\Community\VC\Tools\MSVC\14.28.29333\include\xtree
; File C:\Program Files (x86)\Microsoft Visual Studio\2019\Community\VC\Tools\MSVC\14.28.29333\include\xmemory
; File C:\Program Files (x86)\Microsoft Visual Studio\2019\Community\VC\Tools\MSVC\14.28.29333\include\xtree
;	COMDAT ?clear@?$_Tree@V?$_Tmap_traits@PBUSHitData@NRaceData@@V?$map@PAVCActorInstance@@MU?$less@PAVCActorInstance@@@std@@V?$allocator@U?$pair@QAVCActorInstance@@M@std@@@3@@std@@U?$less@PBUSHitData@NRaceData@@@4@V?$allocator@U?$pair@QBUSHitData@NRaceData@@V?$map@PAVCActorInstance@@MU?$less@PAVCActorInstance@@@std@@V?$allocator@U?$pair@QAVCActorInstance@@M@std@@@3@@std@@@std@@@4@$0A@@std@@@std@@QAEXXZ
_TEXT	SEGMENT
$T1 = -24						; size = 4
$T2 = -20						; size = 4
$T3 = -16						; size = 4
_this$ = -12						; size = 4
__Scary$ = -8						; size = 4
__Head$ = -4						; size = 4
?clear@?$_Tree@V?$_Tmap_traits@PBUSHitData@NRaceData@@V?$map@PAVCActorInstance@@MU?$less@PAVCActorInstance@@@std@@V?$allocator@U?$pair@QAVCActorInstance@@M@std@@@3@@std@@U?$less@PBUSHitData@NRaceData@@@4@V?$allocator@U?$pair@QBUSHitData@NRaceData@@V?$map@PAVCActorInstance@@MU?$less@PAVCActorInstance@@@std@@V?$allocator@U?$pair@QAVCActorInstance@@M@std@@@3@@std@@@std@@@4@$0A@@std@@@std@@QAEXXZ PROC ; std::_Tree<std::_Tmap_traits<NRaceData::SHitData const *,std::map<CActorInstance *,float,std::less<CActorInstance *>,std::allocator<std::pair<CActorInstance * const,float> > >,std::less<NRaceData::SHitData const *>,std::allocator<std::pair<NRaceData::SHitData const * const,std::map<CActorInstance *,float,std::less<CActorInstance *>,std::allocator<std::pair<CActorInstance * const,float> > > > >,0> >::clear, COMDAT
; _this$ = ecx

; 1444 :     void clear() noexcept {

  00000	55		 push	 ebp
  00001	8b ec		 mov	 ebp, esp
  00003	83 ec 18	 sub	 esp, 24			; 00000018H
  00006	89 4d f4	 mov	 DWORD PTR _this$[ebp], ecx

; 2047 :         return _STD addressof(_Mypair._Myval2._Myval2);

  00009	8b 45 f4	 mov	 eax, DWORD PTR _this$[ebp]
; File C:\Program Files (x86)\Microsoft Visual Studio\2019\Community\VC\Tools\MSVC\14.28.29333\include\xstddef

; 275  :     return __builtin_addressof(_Val);

  0000c	89 45 f0	 mov	 DWORD PTR $T3[ebp], eax
; File C:\Program Files (x86)\Microsoft Visual Studio\2019\Community\VC\Tools\MSVC\14.28.29333\include\xtree

; 2047 :         return _STD addressof(_Mypair._Myval2._Myval2);

  0000f	8b 45 f0	 mov	 eax, DWORD PTR $T3[ebp]
  00012	89 45 f8	 mov	 DWORD PTR __Scary$[ebp], eax

; 1445 :         const auto _Scary = _Get_scary();
; 1446 :         _Scary->_Orphan_ptr(nullptr);
; 1447 :         auto _Head = _Scary->_Myhead;

  00015	8b 45 f8	 mov	 eax, DWORD PTR __Scary$[ebp]
  00018	8b 00		 mov	 eax, DWORD PTR [eax]
  0001a	89 45 fc	 mov	 DWORD PTR __Head$[ebp], eax

; 2039 :         return _Mypair._Myval2._Get_first();

  0001d	8b 45 f4	 mov	 eax, DWORD PTR _this$[ebp]
; File C:\Program Files (x86)\Microsoft Visual Studio\2019\Community\VC\Tools\MSVC\14.28.29333\include\xmemory

; 1347 :         return *this;

  00020	89 45 ec	 mov	 DWORD PTR $T2[ebp], eax
; File C:\Program Files (x86)\Microsoft Visual Studio\2019\Community\VC\Tools\MSVC\14.28.29333\include\xtree

; 2039 :         return _Mypair._Myval2._Get_first();

  00023	8b 45 ec	 mov	 eax, DWORD PTR $T2[ebp]
  00026	89 45 e8	 mov	 DWORD PTR $T1[ebp], eax

; 1448 :         _Scary->_Erase_tree(_Getal(), _Head->_Parent);

  00029	8b 45 fc	 mov	 eax, DWORD PTR __Head$[ebp]
  0002c	ff 70 04	 push	 DWORD PTR [eax+4]
  0002f	ff 75 e8	 push	 DWORD PTR $T1[ebp]
  00032	8b 4d f8	 mov	 ecx, DWORD PTR __Scary$[ebp]
  00035	e8 00 00 00 00	 call	 ??$_Erase_tree@V?$allocator@U?$_Tree_node@U?$pair@QBUSHitData@NRaceData@@V?$map@PAVCActorInstance@@MU?$less@PAVCActorInstance@@@std@@V?$allocator@U?$pair@QAVCActorInstance@@M@std@@@3@@std@@@std@@PAX@std@@@std@@@?$_Tree_val@U?$_Tree_simple_types@U?$pair@QBUSHitData@NRaceData@@V?$map@PAVCActorInstance@@MU?$less@PAVCActorInstance@@@std@@V?$allocator@U?$pair@QAVCActorInstance@@M@std@@@3@@std@@@std@@@std@@@std@@QAEXAAV?$allocator@U?$_Tree_node@U?$pair@QBUSHitData@NRaceData@@V?$map@PAVCActorInstance@@MU?$less@PAVCActorInstance@@@std@@V?$allocator@U?$pair@QAVCActorInstance@@M@std@@@3@@std@@@std@@PAX@std@@@1@PAU?$_Tree_node@U?$pair@QBUSHitData@NRaceData@@V?$map@PAVCActorInstance@@MU?$less@PAVCActorInstance@@@std@@V?$allocator@U?$pair@QAVCActorInstance@@M@std@@@3@@std@@@std@@PAX@1@@Z ; std::_Tree_val<std::_Tree_simple_types<std::pair<NRaceData::SHitData const * const,std::map<CActorInstance *,float,std::less<CActorInstance *>,std::allocator<std::pair<CActorInstance * const,float> > > > > >::_Erase_tree<std::allocator<std::_Tree_node<std::pair<NRaceData::SHitData const * const,std::map<CActorInstance *,float,std::less<CActorInstance *>,std::allocator<std::pair<CActorInstance * const,float> > > >,void *> > >

; 1449 :         _Head->_Parent  = _Head;

  0003a	8b 45 fc	 mov	 eax, DWORD PTR __Head$[ebp]
  0003d	8b 4d fc	 mov	 ecx, DWORD PTR __Head$[ebp]
  00040	89 48 04	 mov	 DWORD PTR [eax+4], ecx

; 1450 :         _Head->_Left    = _Head;

  00043	8b 45 fc	 mov	 eax, DWORD PTR __Head$[ebp]
  00046	8b 4d fc	 mov	 ecx, DWORD PTR __Head$[ebp]
  00049	89 08		 mov	 DWORD PTR [eax], ecx

; 1451 :         _Head->_Right   = _Head;

  0004b	8b 45 fc	 mov	 eax, DWORD PTR __Head$[ebp]
  0004e	8b 4d fc	 mov	 ecx, DWORD PTR __Head$[ebp]
  00051	89 48 08	 mov	 DWORD PTR [eax+8], ecx

; 1452 :         _Scary->_Mysize = 0;

  00054	8b 45 f8	 mov	 eax, DWORD PTR __Scary$[ebp]
  00057	83 60 04 00	 and	 DWORD PTR [eax+4], 0

; 1453 :     }

  0005b	c9		 leave
  0005c	c3		 ret	 0
?clear@?$_Tree@V?$_Tmap_traits@PBUSHitData@NRaceData@@V?$map@PAVCActorInstance@@MU?$less@PAVCActorInstance@@@std@@V?$allocator@U?$pair@QAVCActorInstance@@M@std@@@3@@std@@U?$less@PBUSHitData@NRaceData@@@4@V?$allocator@U?$pair@QBUSHitData@NRaceData@@V?$map@PAVCActorInstance@@MU?$less@PAVCActorInstance@@@std@@V?$allocator@U?$pair@QAVCActorInstance@@M@std@@@3@@std@@@std@@@4@$0A@@std@@@std@@QAEXXZ ENDP ; std::_Tree<std::_Tmap_traits<NRaceData::SHitData const *,std::map<CActorInstance *,float,std::less<CActorInstance *>,std::allocator<std::pair<CActorInstance * const,float> > >,std::less<NRaceData::SHitData const *>,std::allocator<std::pair<NRaceData::SHitData const * const,std::map<CActorInstance *,float,std::less<CActorInstance *>,std::allocator<std::pair<CActorInstance * const,float> > > > >,0> >::clear
_TEXT	ENDS
; Function compile flags: /Odspy
; File C:\Program Files (x86)\Microsoft Visual Studio\2019\Community\VC\Tools\MSVC\14.28.29333\include\deque
; File C:\Program Files (x86)\Microsoft Visual Studio\2019\Community\VC\Tools\MSVC\14.28.29333\include\xmemory
; File C:\Program Files (x86)\Microsoft Visual Studio\2019\Community\VC\Tools\MSVC\14.28.29333\include\deque
; File C:\Program Files (x86)\Microsoft Visual Studio\2019\Community\VC\Tools\MSVC\14.28.29333\include\xmemory
; File C:\Program Files (x86)\Microsoft Visual Studio\2019\Community\VC\Tools\MSVC\14.28.29333\include\deque
; File C:\Program Files (x86)\Microsoft Visual Studio\2019\Community\VC\Tools\MSVC\14.28.29333\include\xmemory
; File C:\Program Files (x86)\Microsoft Visual Studio\2019\Community\VC\Tools\MSVC\14.28.29333\include\deque
; File C:\Program Files (x86)\Microsoft Visual Studio\2019\Community\VC\Tools\MSVC\14.28.29333\include\xmemory
; File C:\Program Files (x86)\Microsoft Visual Studio\2019\Community\VC\Tools\MSVC\14.28.29333\include\deque
;	COMDAT ?_Tidy@?$deque@USReservingMotionNode@CActorInstance@@V?$allocator@USReservingMotionNode@CActorInstance@@@std@@@std@@AAEXXZ
_TEXT	SEGMENT
$T1 = -128						; size = 4
$T2 = -124						; size = 4
$T3 = -120						; size = 4
$T4 = -116						; size = 4
$T5 = -112						; size = 4
$T6 = -108						; size = 4
$T7 = -104						; size = 4
__Ptr$ = -100						; size = 4
__Count$ = -96						; size = 4
$T8 = -92						; size = 4
$T9 = -88						; size = 4
$T10 = -84						; size = 4
$T11 = -80						; size = 4
$T12 = -76						; size = 4
$T13 = -72						; size = 4
$T14 = -68						; size = 4
$T15 = -64						; size = 4
__Ptr$ = -60						; size = 4
$T16 = -56						; size = 4
$T17 = -52						; size = 4
$T18 = -48						; size = 4
$T19 = -44						; size = 4
$T20 = -40						; size = 4
$T21 = -36						; size = 4
$T22 = -32						; size = 4
$T23 = -28						; size = 4
$T24 = -24						; size = 4
$T25 = -20						; size = 4
tv149 = -16						; size = 4
__Block$26 = -12					; size = 4
_this$ = -8						; size = 4
$T27 = -1						; size = 1
?_Tidy@?$deque@USReservingMotionNode@CActorInstance@@V?$allocator@USReservingMotionNode@CActorInstance@@@std@@@std@@AAEXXZ PROC ; std::deque<CActorInstance::SReservingMotionNode,std::allocator<CActorInstance::SReservingMotionNode> >::_Tidy, COMDAT
; _this$ = ecx

; 1469 :     void _Tidy() noexcept { // free all storage

  00000	55		 push	 ebp
  00001	8b ec		 mov	 ebp, esp
  00003	81 ec 80 00 00
	00		 sub	 esp, 128		; 00000080H
  00009	89 4d f8	 mov	 DWORD PTR _this$[ebp], ecx

; 1530 :         return _Mypair._Myval2;

  0000c	8b 45 f8	 mov	 eax, DWORD PTR _this$[ebp]
  0000f	89 45 88	 mov	 DWORD PTR $T3[ebp], eax

; 1522 :         return _Mypair._Get_first();

  00012	8b 45 f8	 mov	 eax, DWORD PTR _this$[ebp]
; File C:\Program Files (x86)\Microsoft Visual Studio\2019\Community\VC\Tools\MSVC\14.28.29333\include\xmemory

; 1347 :         return *this;

  00015	89 45 ec	 mov	 DWORD PTR $T25[ebp], eax
; File C:\Program Files (x86)\Microsoft Visual Studio\2019\Community\VC\Tools\MSVC\14.28.29333\include\deque

; 1522 :         return _Mypair._Get_first();

  00018	8b 45 ec	 mov	 eax, DWORD PTR $T25[ebp]
  0001b	89 45 84	 mov	 DWORD PTR $T2[ebp], eax
$LN2@Tidy:

; 1534 :         return _Mypair._Myval2;

  0001e	8b 45 f8	 mov	 eax, DWORD PTR _this$[ebp]
  00021	89 45 e8	 mov	 DWORD PTR $T24[ebp], eax

; 1566 :         return _Get_data()._Mysize;

  00024	8b 45 e8	 mov	 eax, DWORD PTR $T24[ebp]
  00027	83 c0 10	 add	 eax, 16			; 00000010H
  0002a	89 45 e4	 mov	 DWORD PTR $T23[ebp], eax

; 1010 :         return _Mysize() == 0;

  0002d	8b 45 e4	 mov	 eax, DWORD PTR $T23[ebp]
  00030	83 38 00	 cmp	 DWORD PTR [eax], 0
  00033	75 09		 jne	 SHORT $LN30@Tidy
  00035	c7 45 f0 01 00
	00 00		 mov	 DWORD PTR tv149[ebp], 1
  0003c	eb 04		 jmp	 SHORT $LN31@Tidy
$LN30@Tidy:
  0003e	83 65 f0 00	 and	 DWORD PTR tv149[ebp], 0
$LN31@Tidy:
  00042	8a 45 f0	 mov	 al, BYTE PTR tv149[ebp]
  00045	88 45 ff	 mov	 BYTE PTR $T27[ebp], al

; 1470 :         _Orphan_all();
; 1471 : 
; 1472 :         _Alpty _Almap(_Getal());
; 1473 :         while (!empty()) {

  00048	0f b6 45 ff	 movzx	 eax, BYTE PTR $T27[ebp]
  0004c	85 c0		 test	 eax, eax
  0004e	75 0a		 jne	 SHORT $LN3@Tidy

; 1474 :             pop_back();

  00050	8b 4d f8	 mov	 ecx, DWORD PTR _this$[ebp]
  00053	e8 00 00 00 00	 call	 ?pop_back@?$deque@USReservingMotionNode@CActorInstance@@V?$allocator@USReservingMotionNode@CActorInstance@@@std@@@std@@QAEXXZ ; std::deque<CActorInstance::SReservingMotionNode,std::allocator<CActorInstance::SReservingMotionNode> >::pop_back

; 1475 :         }

  00058	eb c4		 jmp	 SHORT $LN2@Tidy
$LN3@Tidy:

; 1530 :         return _Mypair._Myval2;

  0005a	8b 45 f8	 mov	 eax, DWORD PTR _this$[ebp]
  0005d	89 45 e0	 mov	 DWORD PTR $T22[ebp], eax

; 1546 :         return _Get_data()._Mapsize;

  00060	8b 45 e0	 mov	 eax, DWORD PTR $T22[ebp]
  00063	83 c0 08	 add	 eax, 8
  00066	89 45 dc	 mov	 DWORD PTR $T21[ebp], eax

; 1476 : 
; 1477 :         for (size_type _Block = _Mapsize(); 0 < _Block;) { // free storage for a block and destroy pointer

  00069	8b 45 dc	 mov	 eax, DWORD PTR $T21[ebp]
  0006c	8b 00		 mov	 eax, DWORD PTR [eax]
  0006e	89 45 f4	 mov	 DWORD PTR __Block$26[ebp], eax
$LN6@Tidy:
  00071	83 7d f4 00	 cmp	 DWORD PTR __Block$26[ebp], 0
  00075	0f 86 84 00 00
	00		 jbe	 $LN5@Tidy

; 1478 :             if (_Map()[--_Block]) { // free block and destroy its pointer

  0007b	8b 45 f4	 mov	 eax, DWORD PTR __Block$26[ebp]
  0007e	48		 dec	 eax
  0007f	89 45 f4	 mov	 DWORD PTR __Block$26[ebp], eax

; 1530 :         return _Mypair._Myval2;

  00082	8b 45 f8	 mov	 eax, DWORD PTR _this$[ebp]
  00085	89 45 d8	 mov	 DWORD PTR $T20[ebp], eax

; 1538 :         return _Get_data()._Map;

  00088	8b 45 d8	 mov	 eax, DWORD PTR $T20[ebp]
  0008b	83 c0 04	 add	 eax, 4
  0008e	89 45 d4	 mov	 DWORD PTR $T19[ebp], eax

; 1478 :             if (_Map()[--_Block]) { // free block and destroy its pointer

  00091	8b 45 d4	 mov	 eax, DWORD PTR $T19[ebp]
  00094	8b 00		 mov	 eax, DWORD PTR [eax]
  00096	8b 4d f4	 mov	 ecx, DWORD PTR __Block$26[ebp]
  00099	83 3c 88 00	 cmp	 DWORD PTR [eax+ecx*4], 0
  0009d	74 5b		 je	 SHORT $LN7@Tidy

; 1530 :         return _Mypair._Myval2;

  0009f	8b 45 f8	 mov	 eax, DWORD PTR _this$[ebp]
  000a2	89 45 d0	 mov	 DWORD PTR $T18[ebp], eax

; 1538 :         return _Get_data()._Map;

  000a5	8b 45 d0	 mov	 eax, DWORD PTR $T18[ebp]
  000a8	83 c0 04	 add	 eax, 4
  000ab	89 45 c8	 mov	 DWORD PTR $T16[ebp], eax

; 1522 :         return _Mypair._Get_first();

  000ae	8b 45 f8	 mov	 eax, DWORD PTR _this$[ebp]
; File C:\Program Files (x86)\Microsoft Visual Studio\2019\Community\VC\Tools\MSVC\14.28.29333\include\xmemory

; 1347 :         return *this;

  000b1	89 45 cc	 mov	 DWORD PTR $T17[ebp], eax
; File C:\Program Files (x86)\Microsoft Visual Studio\2019\Community\VC\Tools\MSVC\14.28.29333\include\deque

; 1522 :         return _Mypair._Get_first();

  000b4	8b 45 cc	 mov	 eax, DWORD PTR $T17[ebp]
  000b7	89 45 80	 mov	 DWORD PTR $T1[ebp], eax

; 1479 :                 _Getal().deallocate(_Map()[_Block], _DEQUESIZ);

  000ba	8b 45 c8	 mov	 eax, DWORD PTR $T16[ebp]
  000bd	8b 00		 mov	 eax, DWORD PTR [eax]
  000bf	8b 4d f4	 mov	 ecx, DWORD PTR __Block$26[ebp]
  000c2	8b 04 88	 mov	 eax, DWORD PTR [eax+ecx*4]
  000c5	89 45 c4	 mov	 DWORD PTR __Ptr$[ebp], eax
; File C:\Program Files (x86)\Microsoft Visual Studio\2019\Community\VC\Tools\MSVC\14.28.29333\include\xmemory

; 810  :         _Deallocate<_New_alignof<_Ty>>(_Ptr, sizeof(_Ty) * _Count);

  000c8	33 c0		 xor	 eax, eax
  000ca	40		 inc	 eax
  000cb	6b c0 18	 imul	 eax, eax, 24
  000ce	50		 push	 eax
  000cf	ff 75 c4	 push	 DWORD PTR __Ptr$[ebp]
  000d2	e8 00 00 00 00	 call	 ??$_Deallocate@$07$0A@@std@@YAXPAXI@Z ; std::_Deallocate<8,0>
  000d7	59		 pop	 ecx
  000d8	59		 pop	 ecx
; File C:\Program Files (x86)\Microsoft Visual Studio\2019\Community\VC\Tools\MSVC\14.28.29333\include\deque

; 1530 :         return _Mypair._Myval2;

  000d9	8b 45 f8	 mov	 eax, DWORD PTR _this$[ebp]
  000dc	89 45 c0	 mov	 DWORD PTR $T15[ebp], eax

; 1538 :         return _Get_data()._Map;

  000df	8b 45 c0	 mov	 eax, DWORD PTR $T15[ebp]
  000e2	83 c0 04	 add	 eax, 4
  000e5	89 45 bc	 mov	 DWORD PTR $T14[ebp], eax

; 1480 :                 _Destroy_in_place(_Map()[_Block]);

  000e8	8b 45 bc	 mov	 eax, DWORD PTR $T14[ebp]
  000eb	8b 00		 mov	 eax, DWORD PTR [eax]
  000ed	8b 4d f4	 mov	 ecx, DWORD PTR __Block$26[ebp]
  000f0	8d 04 88	 lea	 eax, DWORD PTR [eax+ecx*4]
  000f3	50		 push	 eax
  000f4	e8 00 00 00 00	 call	 ??$_Destroy_in_place@PAUSReservingMotionNode@CActorInstance@@@std@@YAXAAPAUSReservingMotionNode@CActorInstance@@@Z ; std::_Destroy_in_place<CActorInstance::SReservingMotionNode *>
  000f9	59		 pop	 ecx
$LN7@Tidy:

; 1481 :             }
; 1482 :         }

  000fa	e9 72 ff ff ff	 jmp	 $LN6@Tidy
$LN5@Tidy:

; 1530 :         return _Mypair._Myval2;

  000ff	8b 45 f8	 mov	 eax, DWORD PTR _this$[ebp]
  00102	89 45 b8	 mov	 DWORD PTR $T13[ebp], eax

; 1538 :         return _Get_data()._Map;

  00105	8b 45 b8	 mov	 eax, DWORD PTR $T13[ebp]
  00108	83 c0 04	 add	 eax, 4
  0010b	89 45 b4	 mov	 DWORD PTR $T12[ebp], eax

; 1483 : 
; 1484 :         if (_Map() != _Mapptr()) {

  0010e	8b 45 b4	 mov	 eax, DWORD PTR $T12[ebp]
  00111	83 38 00	 cmp	 DWORD PTR [eax], 0
  00114	74 3f		 je	 SHORT $LN8@Tidy

; 1530 :         return _Mypair._Myval2;

  00116	8b 45 f8	 mov	 eax, DWORD PTR _this$[ebp]
  00119	89 45 b0	 mov	 DWORD PTR $T11[ebp], eax

; 1546 :         return _Get_data()._Mapsize;

  0011c	8b 45 b0	 mov	 eax, DWORD PTR $T11[ebp]
  0011f	83 c0 08	 add	 eax, 8
  00122	89 45 a8	 mov	 DWORD PTR $T9[ebp], eax

; 1530 :         return _Mypair._Myval2;

  00125	8b 45 f8	 mov	 eax, DWORD PTR _this$[ebp]
  00128	89 45 ac	 mov	 DWORD PTR $T10[ebp], eax

; 1538 :         return _Get_data()._Map;

  0012b	8b 45 ac	 mov	 eax, DWORD PTR $T10[ebp]
  0012e	83 c0 04	 add	 eax, 4
  00131	89 45 a4	 mov	 DWORD PTR $T8[ebp], eax

; 1485 :             _Almap.deallocate(_Map(), _Mapsize()); // free storage for map

  00134	8b 45 a8	 mov	 eax, DWORD PTR $T9[ebp]
  00137	8b 00		 mov	 eax, DWORD PTR [eax]
  00139	89 45 a0	 mov	 DWORD PTR __Count$[ebp], eax
  0013c	8b 45 a4	 mov	 eax, DWORD PTR $T8[ebp]
  0013f	8b 00		 mov	 eax, DWORD PTR [eax]
  00141	89 45 9c	 mov	 DWORD PTR __Ptr$[ebp], eax
; File C:\Program Files (x86)\Microsoft Visual Studio\2019\Community\VC\Tools\MSVC\14.28.29333\include\xmemory

; 810  :         _Deallocate<_New_alignof<_Ty>>(_Ptr, sizeof(_Ty) * _Count);

  00144	8b 45 a0	 mov	 eax, DWORD PTR __Count$[ebp]
  00147	c1 e0 02	 shl	 eax, 2
  0014a	50		 push	 eax
  0014b	ff 75 9c	 push	 DWORD PTR __Ptr$[ebp]
  0014e	e8 00 00 00 00	 call	 ??$_Deallocate@$07$0A@@std@@YAXPAXI@Z ; std::_Deallocate<8,0>
  00153	59		 pop	 ecx
  00154	59		 pop	 ecx
$LN8@Tidy:
; File C:\Program Files (x86)\Microsoft Visual Studio\2019\Community\VC\Tools\MSVC\14.28.29333\include\deque

; 1530 :         return _Mypair._Myval2;

  00155	8b 45 f8	 mov	 eax, DWORD PTR _this$[ebp]
  00158	89 45 98	 mov	 DWORD PTR $T7[ebp], eax

; 1546 :         return _Get_data()._Mapsize;

  0015b	8b 45 98	 mov	 eax, DWORD PTR $T7[ebp]
  0015e	83 c0 08	 add	 eax, 8
  00161	89 45 94	 mov	 DWORD PTR $T6[ebp], eax

; 1486 :         }
; 1487 : 
; 1488 :         _Mapsize() = 0;

  00164	8b 45 94	 mov	 eax, DWORD PTR $T6[ebp]
  00167	83 20 00	 and	 DWORD PTR [eax], 0

; 1530 :         return _Mypair._Myval2;

  0016a	8b 45 f8	 mov	 eax, DWORD PTR _this$[ebp]
  0016d	89 45 90	 mov	 DWORD PTR $T5[ebp], eax

; 1538 :         return _Get_data()._Map;

  00170	8b 45 90	 mov	 eax, DWORD PTR $T5[ebp]
  00173	83 c0 04	 add	 eax, 4
  00176	89 45 8c	 mov	 DWORD PTR $T4[ebp], eax

; 1489 :         _Map()     = _Mapptr();

  00179	8b 45 8c	 mov	 eax, DWORD PTR $T4[ebp]
  0017c	83 20 00	 and	 DWORD PTR [eax], 0

; 1490 :     }

  0017f	c9		 leave
  00180	c3		 ret	 0
?_Tidy@?$deque@USReservingMotionNode@CActorInstance@@V?$allocator@USReservingMotionNode@CActorInstance@@@std@@@std@@AAEXXZ ENDP ; std::deque<CActorInstance::SReservingMotionNode,std::allocator<CActorInstance::SReservingMotionNode> >::_Tidy
_TEXT	ENDS
; Function compile flags: /Odspy
; File C:\Program Files (x86)\Microsoft Visual Studio\2019\Community\VC\Tools\MSVC\14.28.29333\include\deque
; File C:\Program Files (x86)\Microsoft Visual Studio\2019\Community\VC\Tools\MSVC\14.28.29333\include\xmemory
; File C:\Program Files (x86)\Microsoft Visual Studio\2019\Community\VC\Tools\MSVC\14.28.29333\include\deque
; File C:\Program Files (x86)\Microsoft Visual Studio\2019\Community\VC\Tools\MSVC\14.28.29333\include\xmemory
; File C:\Program Files (x86)\Microsoft Visual Studio\2019\Community\VC\Tools\MSVC\14.28.29333\include\deque
; File C:\Program Files (x86)\Microsoft Visual Studio\2019\Community\VC\Tools\MSVC\14.28.29333\include\xmemory
; File C:\Program Files (x86)\Microsoft Visual Studio\2019\Community\VC\Tools\MSVC\14.28.29333\include\limits
; File C:\Program Files (x86)\Microsoft Visual Studio\2019\Community\VC\Tools\MSVC\14.28.29333\include\deque
; File C:\Program Files (x86)\Microsoft Visual Studio\2019\Community\VC\Tools\MSVC\14.28.29333\include\utility
; File C:\Program Files (x86)\Microsoft Visual Studio\2019\Community\VC\Tools\MSVC\14.28.29333\include\deque
; File C:\Program Files (x86)\Microsoft Visual Studio\2019\Community\VC\Tools\MSVC\14.28.29333\include\xmemory
; File C:\Program Files (x86)\Microsoft Visual Studio\2019\Community\VC\Tools\MSVC\14.28.29333\include\deque
; File C:\Program Files (x86)\Microsoft Visual Studio\2019\Community\VC\Tools\MSVC\14.28.29333\include\xmemory
; File C:\Program Files (x86)\Microsoft Visual Studio\2019\Community\VC\Tools\MSVC\14.28.29333\include\deque
;	COMDAT ?_Growmap@?$deque@USReservingMotionNode@CActorInstance@@V?$allocator@USReservingMotionNode@CActorInstance@@@std@@@std@@AAEXI@Z
_TEXT	SEGMENT
$T1 = -164						; size = 4
__Max_possible$2 = -160					; size = 4
$T3 = -156						; size = 4
$T4 = -152						; size = 4
$T5 = -148						; size = 4
$T6 = -144						; size = 4
$T7 = -140						; size = 4
__Ptr$ = -136						; size = 4
__Count$ = -132						; size = 4
$T8 = -128						; size = 4
$T9 = -124						; size = 4
$T10 = -120						; size = 4
$T11 = -116						; size = 4
$T12 = -112						; size = 4
$T13 = -108						; size = 4
$T14 = -104						; size = 4
$T15 = -100						; size = 4
$T16 = -96						; size = 4
$T17 = -92						; size = 4
$T18 = -88						; size = 4
$T19 = -84						; size = 4
$T20 = -80						; size = 4
$T21 = -76						; size = 4
$T22 = -72						; size = 4
$T23 = -68						; size = 4
$T24 = -64						; size = 4
$T25 = -60						; size = 4
$T26 = -56						; size = 4
$T27 = -52						; size = 4
$T28 = -48						; size = 4
$T29 = -44						; size = 4
$T30 = -40						; size = 4
$T31 = -36						; size = 4
$T32 = -32						; size = 4
$T33 = -28						; size = 4
$T34 = -24						; size = 4
$T35 = -20						; size = 4
$T36 = -16						; size = 4
$T37 = -12						; size = 4
$T38 = -8						; size = 4
$T39 = -4						; size = 4
$T40 = 0						; size = 4
$T41 = 4						; size = 4
$T42 = 8						; size = 4
$T43 = 12						; size = 4
$T44 = 16						; size = 4
$T45 = 20						; size = 4
$T46 = 24						; size = 4
$T47 = 28						; size = 4
$T48 = 32						; size = 4
$T49 = 36						; size = 4
$T50 = 40						; size = 4
$T51 = 44						; size = 4
$T52 = 48						; size = 4
$T53 = 52						; size = 4
$T54 = 56						; size = 4
$T55 = 60						; size = 4
$T56 = 64						; size = 4
__Count$ = 68						; size = 4
tv230 = 72						; size = 4
$T57 = 76						; size = 4
$T58 = 80						; size = 4
tv73 = 84						; size = 4
tv212 = 88						; size = 4
__Overflow_is_possible$59 = 95				; size = 1
__Newmap$ = 96						; size = 4
__Newsize$ = 100					; size = 4
__Myboff$ = 104						; size = 4
__Myptr$ = 108						; size = 4
_this$ = 112						; size = 4
__Count$ = 124						; size = 4
?_Growmap@?$deque@USReservingMotionNode@CActorInstance@@V?$allocator@USReservingMotionNode@CActorInstance@@@std@@@std@@AAEXI@Z PROC ; std::deque<CActorInstance::SReservingMotionNode,std::allocator<CActorInstance::SReservingMotionNode> >::_Growmap, COMDAT
; _this$ = ecx

; 1430 :     void _Growmap(size_type _Count) { // grow map by at least _Count pointers, _Mapsize() a power of 2

  00000	55		 push	 ebp
  00001	8d 6c 24 8c	 lea	 ebp, DWORD PTR [esp-116]
  00005	81 ec 18 01 00
	00		 sub	 esp, 280		; 00000118H
  0000b	89 4d 70	 mov	 DWORD PTR _this$[ebp], ecx

; 1522 :         return _Mypair._Get_first();

  0000e	8b 45 70	 mov	 eax, DWORD PTR _this$[ebp]
; File C:\Program Files (x86)\Microsoft Visual Studio\2019\Community\VC\Tools\MSVC\14.28.29333\include\xmemory

; 1347 :         return *this;

  00011	89 45 40	 mov	 DWORD PTR $T56[ebp], eax
; File C:\Program Files (x86)\Microsoft Visual Studio\2019\Community\VC\Tools\MSVC\14.28.29333\include\deque

; 1522 :         return _Mypair._Get_first();

  00014	8b 45 40	 mov	 eax, DWORD PTR $T56[ebp]
  00017	89 85 68 ff ff
	ff		 mov	 DWORD PTR $T4[ebp], eax

; 1530 :         return _Mypair._Myval2;

  0001d	8b 45 70	 mov	 eax, DWORD PTR _this$[ebp]
  00020	89 45 3c	 mov	 DWORD PTR $T55[ebp], eax

; 1546 :         return _Get_data()._Mapsize;

  00023	8b 45 3c	 mov	 eax, DWORD PTR $T55[ebp]
  00026	83 c0 08	 add	 eax, 8
  00029	89 45 38	 mov	 DWORD PTR $T54[ebp], eax

; 1431 :         static_assert(1 < _DEQUEMAPSIZ, "The _Xlen() test should always be performed.");
; 1432 : 
; 1433 :         _Alpty _Almap(_Getal());
; 1434 :         size_type _Newsize = 0 < _Mapsize() ? _Mapsize() : 1;

  0002c	8b 45 38	 mov	 eax, DWORD PTR $T54[ebp]
  0002f	83 38 00	 cmp	 DWORD PTR [eax], 0
  00032	76 19		 jbe	 SHORT $LN10@Growmap

; 1530 :         return _Mypair._Myval2;

  00034	8b 45 70	 mov	 eax, DWORD PTR _this$[ebp]
  00037	89 45 34	 mov	 DWORD PTR $T53[ebp], eax

; 1546 :         return _Get_data()._Mapsize;

  0003a	8b 45 34	 mov	 eax, DWORD PTR $T53[ebp]
  0003d	83 c0 08	 add	 eax, 8
  00040	89 45 30	 mov	 DWORD PTR $T52[ebp], eax

; 1431 :         static_assert(1 < _DEQUEMAPSIZ, "The _Xlen() test should always be performed.");
; 1432 : 
; 1433 :         _Alpty _Almap(_Getal());
; 1434 :         size_type _Newsize = 0 < _Mapsize() ? _Mapsize() : 1;

  00043	8b 45 30	 mov	 eax, DWORD PTR $T52[ebp]
  00046	8b 00		 mov	 eax, DWORD PTR [eax]
  00048	89 45 54	 mov	 DWORD PTR tv73[ebp], eax
  0004b	eb 07		 jmp	 SHORT $LN11@Growmap
$LN10@Growmap:
  0004d	c7 45 54 01 00
	00 00		 mov	 DWORD PTR tv73[ebp], 1
$LN11@Growmap:
  00054	8b 45 54	 mov	 eax, DWORD PTR tv73[ebp]
  00057	89 45 64	 mov	 DWORD PTR __Newsize$[ebp], eax
$LN2@Growmap:

; 1530 :         return _Mypair._Myval2;

  0005a	8b 45 70	 mov	 eax, DWORD PTR _this$[ebp]
  0005d	89 45 2c	 mov	 DWORD PTR $T51[ebp], eax

; 1546 :         return _Get_data()._Mapsize;

  00060	8b 45 2c	 mov	 eax, DWORD PTR $T51[ebp]
  00063	83 c0 08	 add	 eax, 8
  00066	89 45 28	 mov	 DWORD PTR $T50[ebp], eax

; 1435 :         while (_Newsize - _Mapsize() < _Count || _Newsize < _DEQUEMAPSIZ) {

  00069	8b 45 28	 mov	 eax, DWORD PTR $T50[ebp]
  0006c	8b 4d 64	 mov	 ecx, DWORD PTR __Newsize$[ebp]
  0006f	2b 08		 sub	 ecx, DWORD PTR [eax]
  00071	3b 4d 7c	 cmp	 ecx, DWORD PTR __Count$[ebp]
  00074	72 06		 jb	 SHORT $LN4@Growmap
  00076	83 7d 64 08	 cmp	 DWORD PTR __Newsize$[ebp], 8
  0007a	73 6d		 jae	 SHORT $LN3@Growmap
$LN4@Growmap:

; 1526 :         return _Mypair._Get_first();

  0007c	8b 45 70	 mov	 eax, DWORD PTR _this$[ebp]
; File C:\Program Files (x86)\Microsoft Visual Studio\2019\Community\VC\Tools\MSVC\14.28.29333\include\xmemory

; 1351 :         return *this;

  0007f	89 45 24	 mov	 DWORD PTR $T49[ebp], eax
; File C:\Program Files (x86)\Microsoft Visual Studio\2019\Community\VC\Tools\MSVC\14.28.29333\include\deque

; 1526 :         return _Mypair._Get_first();

  00082	8b 45 24	 mov	 eax, DWORD PTR $T49[ebp]
  00085	89 85 64 ff ff
	ff		 mov	 DWORD PTR $T3[ebp], eax
; File C:\Program Files (x86)\Microsoft Visual Studio\2019\Community\VC\Tools\MSVC\14.28.29333\include\xmemory

; 710  :         return static_cast<size_t>(-1) / sizeof(value_type);

  0008b	c7 45 50 aa aa
	aa 0a		 mov	 DWORD PTR $T58[ebp], 178956970 ; 0aaaaaaaH
; File C:\Program Files (x86)\Microsoft Visual Studio\2019\Community\VC\Tools\MSVC\14.28.29333\include\limits

; 557  :         return INT_MAX;

  00092	c7 45 20 ff ff
	ff 7f		 mov	 DWORD PTR $T48[ebp], 2147483647 ; 7fffffffH
; File C:\Program Files (x86)\Microsoft Visual Studio\2019\Community\VC\Tools\MSVC\14.28.29333\include\deque

; 1005 :         return (_STD min)(

  00099	8b 45 20	 mov	 eax, DWORD PTR $T48[ebp]
  0009c	89 45 4c	 mov	 DWORD PTR $T57[ebp], eax
; File C:\Program Files (x86)\Microsoft Visual Studio\2019\Community\VC\Tools\MSVC\14.28.29333\include\utility

; 68   :     return _Right < _Left ? _Right : _Left;

  0009f	8b 45 50	 mov	 eax, DWORD PTR $T58[ebp]
  000a2	3b 45 4c	 cmp	 eax, DWORD PTR $T57[ebp]
  000a5	73 08		 jae	 SHORT $LN56@Growmap
  000a7	8d 45 50	 lea	 eax, DWORD PTR $T58[ebp]
  000aa	89 45 48	 mov	 DWORD PTR tv230[ebp], eax
  000ad	eb 06		 jmp	 SHORT $LN57@Growmap
$LN56@Growmap:
  000af	8d 45 4c	 lea	 eax, DWORD PTR $T57[ebp]
  000b2	89 45 48	 mov	 DWORD PTR tv230[ebp], eax
$LN57@Growmap:
  000b5	8b 45 48	 mov	 eax, DWORD PTR tv230[ebp]
  000b8	89 45 1c	 mov	 DWORD PTR $T47[ebp], eax
  000bb	8b 45 1c	 mov	 eax, DWORD PTR $T47[ebp]
  000be	89 45 18	 mov	 DWORD PTR $T46[ebp], eax
; File C:\Program Files (x86)\Microsoft Visual Studio\2019\Community\VC\Tools\MSVC\14.28.29333\include\deque

; 1005 :         return (_STD min)(

  000c1	8b 45 18	 mov	 eax, DWORD PTR $T46[ebp]
  000c4	8b 00		 mov	 eax, DWORD PTR [eax]
  000c6	89 45 14	 mov	 DWORD PTR $T45[ebp], eax

; 1436 :             // scale _Newsize to 2^N >= _Mapsize() + _Count
; 1437 :             if (max_size() / _DEQUESIZ - _Newsize < _Newsize) {

  000c9	8b 45 14	 mov	 eax, DWORD PTR $T45[ebp]
  000cc	2b 45 64	 sub	 eax, DWORD PTR __Newsize$[ebp]
  000cf	3b 45 64	 cmp	 eax, DWORD PTR __Newsize$[ebp]
  000d2	73 08		 jae	 SHORT $LN5@Growmap

; 1438 :                 _Xlen(); // result too long

  000d4	8b 4d 70	 mov	 ecx, DWORD PTR _this$[ebp]
  000d7	e8 00 00 00 00	 call	 ?_Xlen@?$deque@USReservingMotionNode@CActorInstance@@V?$allocator@USReservingMotionNode@CActorInstance@@@std@@@std@@ABEXXZ ; std::deque<CActorInstance::SReservingMotionNode,std::allocator<CActorInstance::SReservingMotionNode> >::_Xlen
$LN5@Growmap:

; 1439 :             }
; 1440 : 
; 1441 :             _Newsize *= 2;

  000dc	8b 45 64	 mov	 eax, DWORD PTR __Newsize$[ebp]
  000df	d1 e0		 shl	 eax, 1
  000e1	89 45 64	 mov	 DWORD PTR __Newsize$[ebp], eax

; 1442 :         }

  000e4	e9 71 ff ff ff	 jmp	 $LN2@Growmap
$LN3@Growmap:

; 1530 :         return _Mypair._Myval2;

  000e9	8b 45 70	 mov	 eax, DWORD PTR _this$[ebp]
  000ec	89 45 10	 mov	 DWORD PTR $T44[ebp], eax

; 1546 :         return _Get_data()._Mapsize;

  000ef	8b 45 10	 mov	 eax, DWORD PTR $T44[ebp]
  000f2	83 c0 08	 add	 eax, 8
  000f5	89 45 0c	 mov	 DWORD PTR $T43[ebp], eax

; 1443 :         _Count = _Newsize - _Mapsize();

  000f8	8b 45 0c	 mov	 eax, DWORD PTR $T43[ebp]
  000fb	8b 4d 64	 mov	 ecx, DWORD PTR __Newsize$[ebp]
  000fe	2b 08		 sub	 ecx, DWORD PTR [eax]
  00100	89 4d 7c	 mov	 DWORD PTR __Count$[ebp], ecx

; 1530 :         return _Mypair._Myval2;

  00103	8b 45 70	 mov	 eax, DWORD PTR _this$[ebp]
  00106	89 45 08	 mov	 DWORD PTR $T42[ebp], eax

; 1554 :         return _Get_data()._Myoff;

  00109	8b 45 08	 mov	 eax, DWORD PTR $T42[ebp]
  0010c	83 c0 0c	 add	 eax, 12			; 0000000cH
  0010f	89 45 04	 mov	 DWORD PTR $T41[ebp], eax

; 1444 : 
; 1445 :         size_type _Myboff = _Myoff() / _DEQUESIZ;

  00112	8b 45 04	 mov	 eax, DWORD PTR $T41[ebp]
  00115	8b 00		 mov	 eax, DWORD PTR [eax]
  00117	89 45 68	 mov	 DWORD PTR __Myboff$[ebp], eax

; 1530 :         return _Mypair._Myval2;

  0011a	8b 45 70	 mov	 eax, DWORD PTR _this$[ebp]
  0011d	89 45 00	 mov	 DWORD PTR $T40[ebp], eax

; 1546 :         return _Get_data()._Mapsize;

  00120	8b 45 00	 mov	 eax, DWORD PTR $T40[ebp]
  00123	83 c0 08	 add	 eax, 8
  00126	89 45 fc	 mov	 DWORD PTR $T39[ebp], eax

; 1446 :         _Mapptr _Newmap   = _Almap.allocate(_Mapsize() + _Count);

  00129	8b 45 fc	 mov	 eax, DWORD PTR $T39[ebp]
  0012c	8b 00		 mov	 eax, DWORD PTR [eax]
  0012e	03 45 7c	 add	 eax, DWORD PTR __Count$[ebp]
  00131	89 45 44	 mov	 DWORD PTR __Count$[ebp], eax
; File C:\Program Files (x86)\Microsoft Visual Studio\2019\Community\VC\Tools\MSVC\14.28.29333\include\xmemory

; 56   :     constexpr bool _Overflow_is_possible = _Ty_size > 1;

  00134	c6 45 5f 01	 mov	 BYTE PTR __Overflow_is_possible$59[ebp], 1

; 57   : 
; 58   :     if _CONSTEXPR_IF (_Overflow_is_possible) {
; 59   :         constexpr size_t _Max_possible = static_cast<size_t>(-1) / _Ty_size;

  00138	c7 85 60 ff ff
	ff ff ff ff 3f	 mov	 DWORD PTR __Max_possible$2[ebp], 1073741823 ; 3fffffffH

; 60   :         if (_Count > _Max_possible) {

  00142	81 7d 44 ff ff
	ff 3f		 cmp	 DWORD PTR __Count$[ebp], 1073741823 ; 3fffffffH
  00149	76 05		 jbe	 SHORT $LN80@Growmap

; 61   :             _Throw_bad_array_new_length(); // multiply overflow

  0014b	e8 00 00 00 00	 call	 ?_Throw_bad_array_new_length@std@@YAXXZ ; std::_Throw_bad_array_new_length
$LN80@Growmap:

; 62   :         }
; 63   :     }
; 64   : 
; 65   :     return _Count * _Ty_size;

  00150	8b 45 44	 mov	 eax, DWORD PTR __Count$[ebp]
  00153	c1 e0 02	 shl	 eax, 2
  00156	89 45 f8	 mov	 DWORD PTR $T38[ebp], eax

; 814  :         return static_cast<_Ty*>(_Allocate<_New_alignof<_Ty>>(_Get_size_of_n<sizeof(_Ty)>(_Count)));

  00159	ff 75 f8	 push	 DWORD PTR $T38[ebp]
  0015c	e8 00 00 00 00	 call	 ??$_Allocate@$07U_Default_allocate_traits@std@@$0A@@std@@YAPAXI@Z ; std::_Allocate<8,std::_Default_allocate_traits,0>
  00161	59		 pop	 ecx
  00162	89 45 60	 mov	 DWORD PTR __Newmap$[ebp], eax
; File C:\Program Files (x86)\Microsoft Visual Studio\2019\Community\VC\Tools\MSVC\14.28.29333\include\deque

; 1447 :         _Mapptr _Myptr    = _Newmap + _Myboff;

  00165	8b 45 68	 mov	 eax, DWORD PTR __Myboff$[ebp]
  00168	8b 4d 60	 mov	 ecx, DWORD PTR __Newmap$[ebp]
  0016b	8d 04 81	 lea	 eax, DWORD PTR [ecx+eax*4]
  0016e	89 45 6c	 mov	 DWORD PTR __Myptr$[ebp], eax

; 1530 :         return _Mypair._Myval2;

  00171	8b 45 70	 mov	 eax, DWORD PTR _this$[ebp]
  00174	89 45 f4	 mov	 DWORD PTR $T37[ebp], eax

; 1538 :         return _Get_data()._Map;

  00177	8b 45 f4	 mov	 eax, DWORD PTR $T37[ebp]
  0017a	83 c0 04	 add	 eax, 4
  0017d	89 45 e4	 mov	 DWORD PTR $T33[ebp], eax

; 1530 :         return _Mypair._Myval2;

  00180	8b 45 70	 mov	 eax, DWORD PTR _this$[ebp]
  00183	89 45 f0	 mov	 DWORD PTR $T36[ebp], eax

; 1546 :         return _Get_data()._Mapsize;

  00186	8b 45 f0	 mov	 eax, DWORD PTR $T36[ebp]
  00189	83 c0 08	 add	 eax, 8
  0018c	89 45 e8	 mov	 DWORD PTR $T34[ebp], eax

; 1530 :         return _Mypair._Myval2;

  0018f	8b 45 70	 mov	 eax, DWORD PTR _this$[ebp]
  00192	89 45 ec	 mov	 DWORD PTR $T35[ebp], eax

; 1538 :         return _Get_data()._Map;

  00195	8b 45 ec	 mov	 eax, DWORD PTR $T35[ebp]
  00198	83 c0 04	 add	 eax, 4
  0019b	89 45 e0	 mov	 DWORD PTR $T32[ebp], eax

; 1448 : 
; 1449 :         _Myptr = _STD uninitialized_copy(_Map() + _Myboff, _Map() + _Mapsize(), _Myptr); // copy initial to end

  0019e	ff 75 6c	 push	 DWORD PTR __Myptr$[ebp]
  001a1	8b 45 e8	 mov	 eax, DWORD PTR $T34[ebp]
  001a4	8b 00		 mov	 eax, DWORD PTR [eax]
  001a6	8b 4d e4	 mov	 ecx, DWORD PTR $T33[ebp]
  001a9	8b 09		 mov	 ecx, DWORD PTR [ecx]
  001ab	8d 04 81	 lea	 eax, DWORD PTR [ecx+eax*4]
  001ae	50		 push	 eax
  001af	8b 45 e0	 mov	 eax, DWORD PTR $T32[ebp]
  001b2	8b 00		 mov	 eax, DWORD PTR [eax]
  001b4	8b 4d 68	 mov	 ecx, DWORD PTR __Myboff$[ebp]
  001b7	8d 04 88	 lea	 eax, DWORD PTR [eax+ecx*4]
  001ba	50		 push	 eax
  001bb	e8 00 00 00 00	 call	 ??$uninitialized_copy@PAPAUSReservingMotionNode@CActorInstance@@PAPAU12@@std@@YAPAPAUSReservingMotionNode@CActorInstance@@QAPAU12@0PAPAU12@@Z ; std::uninitialized_copy<CActorInstance::SReservingMotionNode * *,CActorInstance::SReservingMotionNode * *>
  001c0	83 c4 0c	 add	 esp, 12			; 0000000cH
  001c3	89 45 6c	 mov	 DWORD PTR __Myptr$[ebp], eax

; 1450 :         if (_Myboff <= _Count) { // increment greater than offset of initial block

  001c6	8b 45 68	 mov	 eax, DWORD PTR __Myboff$[ebp]
  001c9	3b 45 7c	 cmp	 eax, DWORD PTR __Count$[ebp]
  001cc	77 60		 ja	 SHORT $LN6@Growmap

; 1530 :         return _Mypair._Myval2;

  001ce	8b 45 70	 mov	 eax, DWORD PTR _this$[ebp]
  001d1	89 45 dc	 mov	 DWORD PTR $T31[ebp], eax

; 1538 :         return _Get_data()._Map;

  001d4	8b 45 dc	 mov	 eax, DWORD PTR $T31[ebp]
  001d7	83 c0 04	 add	 eax, 4
  001da	89 45 d4	 mov	 DWORD PTR $T29[ebp], eax

; 1530 :         return _Mypair._Myval2;

  001dd	8b 45 70	 mov	 eax, DWORD PTR _this$[ebp]
  001e0	89 45 d8	 mov	 DWORD PTR $T30[ebp], eax

; 1538 :         return _Get_data()._Map;

  001e3	8b 45 d8	 mov	 eax, DWORD PTR $T30[ebp]
  001e6	83 c0 04	 add	 eax, 4
  001e9	89 45 d0	 mov	 DWORD PTR $T28[ebp], eax

; 1451 :             _Myptr = _STD uninitialized_copy(_Map(), _Map() + _Myboff, _Myptr); // copy rest of old

  001ec	ff 75 6c	 push	 DWORD PTR __Myptr$[ebp]
  001ef	8b 45 d4	 mov	 eax, DWORD PTR $T29[ebp]
  001f2	8b 00		 mov	 eax, DWORD PTR [eax]
  001f4	8b 4d 68	 mov	 ecx, DWORD PTR __Myboff$[ebp]
  001f7	8d 04 88	 lea	 eax, DWORD PTR [eax+ecx*4]
  001fa	50		 push	 eax
  001fb	8b 45 d0	 mov	 eax, DWORD PTR $T28[ebp]
  001fe	ff 30		 push	 DWORD PTR [eax]
  00200	e8 00 00 00 00	 call	 ??$uninitialized_copy@PAPAUSReservingMotionNode@CActorInstance@@PAPAU12@@std@@YAPAPAUSReservingMotionNode@CActorInstance@@QAPAU12@0PAPAU12@@Z ; std::uninitialized_copy<CActorInstance::SReservingMotionNode * *,CActorInstance::SReservingMotionNode * *>
  00205	83 c4 0c	 add	 esp, 12			; 0000000cH
  00208	89 45 6c	 mov	 DWORD PTR __Myptr$[ebp], eax

; 1452 :             _Uninitialized_value_construct_n_unchecked1(_Myptr, _Count - _Myboff); // clear suffix of new

  0020b	8b 45 7c	 mov	 eax, DWORD PTR __Count$[ebp]
  0020e	2b 45 68	 sub	 eax, DWORD PTR __Myboff$[ebp]
  00211	50		 push	 eax
  00212	ff 75 6c	 push	 DWORD PTR __Myptr$[ebp]
  00215	e8 00 00 00 00	 call	 ??$_Uninitialized_value_construct_n_unchecked1@PAPAUSReservingMotionNode@CActorInstance@@I@std@@YAPAPAUSReservingMotionNode@CActorInstance@@PAPAU12@I@Z ; std::_Uninitialized_value_construct_n_unchecked1<CActorInstance::SReservingMotionNode * *,unsigned int>
  0021a	59		 pop	 ecx
  0021b	59		 pop	 ecx

; 1453 :             _Uninitialized_value_construct_n_unchecked1(_Newmap, _Myboff); // clear prefix of new

  0021c	ff 75 68	 push	 DWORD PTR __Myboff$[ebp]
  0021f	ff 75 60	 push	 DWORD PTR __Newmap$[ebp]
  00222	e8 00 00 00 00	 call	 ??$_Uninitialized_value_construct_n_unchecked1@PAPAUSReservingMotionNode@CActorInstance@@I@std@@YAPAPAUSReservingMotionNode@CActorInstance@@PAPAU12@I@Z ; std::_Uninitialized_value_construct_n_unchecked1<CActorInstance::SReservingMotionNode * *,unsigned int>
  00227	59		 pop	 ecx
  00228	59		 pop	 ecx

; 1454 :         } else { // increment not greater than offset of initial block

  00229	e9 8b 00 00 00	 jmp	 $LN7@Growmap
$LN6@Growmap:

; 1530 :         return _Mypair._Myval2;

  0022e	8b 45 70	 mov	 eax, DWORD PTR _this$[ebp]
  00231	89 45 cc	 mov	 DWORD PTR $T27[ebp], eax

; 1538 :         return _Get_data()._Map;

  00234	8b 45 cc	 mov	 eax, DWORD PTR $T27[ebp]
  00237	83 c0 04	 add	 eax, 4
  0023a	89 45 c4	 mov	 DWORD PTR $T25[ebp], eax

; 1530 :         return _Mypair._Myval2;

  0023d	8b 45 70	 mov	 eax, DWORD PTR _this$[ebp]
  00240	89 45 c8	 mov	 DWORD PTR $T26[ebp], eax

; 1538 :         return _Get_data()._Map;

  00243	8b 45 c8	 mov	 eax, DWORD PTR $T26[ebp]
  00246	83 c0 04	 add	 eax, 4
  00249	89 45 c0	 mov	 DWORD PTR $T24[ebp], eax

; 1455 :             _STD uninitialized_copy(_Map(), _Map() + _Count, _Myptr); // copy more old

  0024c	ff 75 6c	 push	 DWORD PTR __Myptr$[ebp]
  0024f	8b 45 c4	 mov	 eax, DWORD PTR $T25[ebp]
  00252	8b 00		 mov	 eax, DWORD PTR [eax]
  00254	8b 4d 7c	 mov	 ecx, DWORD PTR __Count$[ebp]
  00257	8d 04 88	 lea	 eax, DWORD PTR [eax+ecx*4]
  0025a	50		 push	 eax
  0025b	8b 45 c0	 mov	 eax, DWORD PTR $T24[ebp]
  0025e	ff 30		 push	 DWORD PTR [eax]
  00260	e8 00 00 00 00	 call	 ??$uninitialized_copy@PAPAUSReservingMotionNode@CActorInstance@@PAPAU12@@std@@YAPAPAUSReservingMotionNode@CActorInstance@@QAPAU12@0PAPAU12@@Z ; std::uninitialized_copy<CActorInstance::SReservingMotionNode * *,CActorInstance::SReservingMotionNode * *>
  00265	83 c4 0c	 add	 esp, 12			; 0000000cH

; 1530 :         return _Mypair._Myval2;

  00268	8b 45 70	 mov	 eax, DWORD PTR _this$[ebp]
  0026b	89 45 bc	 mov	 DWORD PTR $T23[ebp], eax

; 1538 :         return _Get_data()._Map;

  0026e	8b 45 bc	 mov	 eax, DWORD PTR $T23[ebp]
  00271	83 c0 04	 add	 eax, 4
  00274	89 45 b4	 mov	 DWORD PTR $T21[ebp], eax

; 1530 :         return _Mypair._Myval2;

  00277	8b 45 70	 mov	 eax, DWORD PTR _this$[ebp]
  0027a	89 45 b8	 mov	 DWORD PTR $T22[ebp], eax

; 1538 :         return _Get_data()._Map;

  0027d	8b 45 b8	 mov	 eax, DWORD PTR $T22[ebp]
  00280	83 c0 04	 add	 eax, 4
  00283	89 45 b0	 mov	 DWORD PTR $T20[ebp], eax

; 1456 :             _Myptr = _STD uninitialized_copy(_Map() + _Count, _Map() + _Myboff, _Newmap); // copy rest of old

  00286	ff 75 60	 push	 DWORD PTR __Newmap$[ebp]
  00289	8b 45 b4	 mov	 eax, DWORD PTR $T21[ebp]
  0028c	8b 00		 mov	 eax, DWORD PTR [eax]
  0028e	8b 4d 68	 mov	 ecx, DWORD PTR __Myboff$[ebp]
  00291	8d 04 88	 lea	 eax, DWORD PTR [eax+ecx*4]
  00294	50		 push	 eax
  00295	8b 45 b0	 mov	 eax, DWORD PTR $T20[ebp]
  00298	8b 00		 mov	 eax, DWORD PTR [eax]
  0029a	8b 4d 7c	 mov	 ecx, DWORD PTR __Count$[ebp]
  0029d	8d 04 88	 lea	 eax, DWORD PTR [eax+ecx*4]
  002a0	50		 push	 eax
  002a1	e8 00 00 00 00	 call	 ??$uninitialized_copy@PAPAUSReservingMotionNode@CActorInstance@@PAPAU12@@std@@YAPAPAUSReservingMotionNode@CActorInstance@@QAPAU12@0PAPAU12@@Z ; std::uninitialized_copy<CActorInstance::SReservingMotionNode * *,CActorInstance::SReservingMotionNode * *>
  002a6	83 c4 0c	 add	 esp, 12			; 0000000cH
  002a9	89 45 6c	 mov	 DWORD PTR __Myptr$[ebp], eax

; 1457 :             _Uninitialized_value_construct_n_unchecked1(_Myptr, _Count); // clear rest to initial block

  002ac	ff 75 7c	 push	 DWORD PTR __Count$[ebp]
  002af	ff 75 6c	 push	 DWORD PTR __Myptr$[ebp]
  002b2	e8 00 00 00 00	 call	 ??$_Uninitialized_value_construct_n_unchecked1@PAPAUSReservingMotionNode@CActorInstance@@I@std@@YAPAPAUSReservingMotionNode@CActorInstance@@PAPAU12@I@Z ; std::_Uninitialized_value_construct_n_unchecked1<CActorInstance::SReservingMotionNode * *,unsigned int>
  002b7	59		 pop	 ecx
  002b8	59		 pop	 ecx
$LN7@Growmap:

; 1530 :         return _Mypair._Myval2;

  002b9	8b 45 70	 mov	 eax, DWORD PTR _this$[ebp]
  002bc	89 45 ac	 mov	 DWORD PTR $T19[ebp], eax

; 1538 :         return _Get_data()._Map;

  002bf	8b 45 ac	 mov	 eax, DWORD PTR $T19[ebp]
  002c2	83 c0 04	 add	 eax, 4
  002c5	89 45 9c	 mov	 DWORD PTR $T15[ebp], eax

; 1530 :         return _Mypair._Myval2;

  002c8	8b 45 70	 mov	 eax, DWORD PTR _this$[ebp]
  002cb	89 45 a8	 mov	 DWORD PTR $T18[ebp], eax

; 1546 :         return _Get_data()._Mapsize;

  002ce	8b 45 a8	 mov	 eax, DWORD PTR $T18[ebp]
  002d1	83 c0 08	 add	 eax, 8
  002d4	89 45 a0	 mov	 DWORD PTR $T16[ebp], eax

; 1530 :         return _Mypair._Myval2;

  002d7	8b 45 70	 mov	 eax, DWORD PTR _this$[ebp]
  002da	89 45 a4	 mov	 DWORD PTR $T17[ebp], eax

; 1538 :         return _Get_data()._Map;

  002dd	8b 45 a4	 mov	 eax, DWORD PTR $T17[ebp]
  002e0	83 c0 04	 add	 eax, 4
  002e3	89 45 98	 mov	 DWORD PTR $T14[ebp], eax

; 1458 :         }
; 1459 : 
; 1460 :         _Destroy_range(_Map() + _Myboff, _Map() + _Mapsize());

  002e6	8b 45 a0	 mov	 eax, DWORD PTR $T16[ebp]
  002e9	8b 00		 mov	 eax, DWORD PTR [eax]
  002eb	8b 4d 9c	 mov	 ecx, DWORD PTR $T15[ebp]
  002ee	8b 09		 mov	 ecx, DWORD PTR [ecx]
  002f0	8d 04 81	 lea	 eax, DWORD PTR [ecx+eax*4]
  002f3	50		 push	 eax
  002f4	8b 45 98	 mov	 eax, DWORD PTR $T14[ebp]
  002f7	8b 00		 mov	 eax, DWORD PTR [eax]
  002f9	8b 4d 68	 mov	 ecx, DWORD PTR __Myboff$[ebp]
  002fc	8d 04 88	 lea	 eax, DWORD PTR [eax+ecx*4]
  002ff	50		 push	 eax
  00300	e8 00 00 00 00	 call	 ??$_Destroy_range@PAPAUSReservingMotionNode@CActorInstance@@PAPAU12@@std@@YAXPAPAUSReservingMotionNode@CActorInstance@@QAPAU12@@Z ; std::_Destroy_range<CActorInstance::SReservingMotionNode * *,CActorInstance::SReservingMotionNode * *>
  00305	59		 pop	 ecx
  00306	59		 pop	 ecx

; 1530 :         return _Mypair._Myval2;

  00307	8b 45 70	 mov	 eax, DWORD PTR _this$[ebp]
  0030a	89 45 94	 mov	 DWORD PTR $T13[ebp], eax

; 1538 :         return _Get_data()._Map;

  0030d	8b 45 94	 mov	 eax, DWORD PTR $T13[ebp]
  00310	83 c0 04	 add	 eax, 4
  00313	89 45 90	 mov	 DWORD PTR $T12[ebp], eax

; 1461 :         if (_Map() != _Mapptr()) {

  00316	8b 45 90	 mov	 eax, DWORD PTR $T12[ebp]
  00319	83 38 00	 cmp	 DWORD PTR [eax], 0
  0031c	74 4b		 je	 SHORT $LN8@Growmap

; 1530 :         return _Mypair._Myval2;

  0031e	8b 45 70	 mov	 eax, DWORD PTR _this$[ebp]
  00321	89 45 8c	 mov	 DWORD PTR $T11[ebp], eax

; 1546 :         return _Get_data()._Mapsize;

  00324	8b 45 8c	 mov	 eax, DWORD PTR $T11[ebp]
  00327	83 c0 08	 add	 eax, 8
  0032a	89 45 84	 mov	 DWORD PTR $T9[ebp], eax

; 1530 :         return _Mypair._Myval2;

  0032d	8b 45 70	 mov	 eax, DWORD PTR _this$[ebp]
  00330	89 45 88	 mov	 DWORD PTR $T10[ebp], eax

; 1538 :         return _Get_data()._Map;

  00333	8b 45 88	 mov	 eax, DWORD PTR $T10[ebp]
  00336	83 c0 04	 add	 eax, 4
  00339	89 45 80	 mov	 DWORD PTR $T8[ebp], eax

; 1462 :             _Almap.deallocate(_Map(), _Mapsize()); // free storage for old

  0033c	8b 45 84	 mov	 eax, DWORD PTR $T9[ebp]
  0033f	8b 00		 mov	 eax, DWORD PTR [eax]
  00341	89 85 7c ff ff
	ff		 mov	 DWORD PTR __Count$[ebp], eax
  00347	8b 45 80	 mov	 eax, DWORD PTR $T8[ebp]
  0034a	8b 00		 mov	 eax, DWORD PTR [eax]
  0034c	89 85 78 ff ff
	ff		 mov	 DWORD PTR __Ptr$[ebp], eax
; File C:\Program Files (x86)\Microsoft Visual Studio\2019\Community\VC\Tools\MSVC\14.28.29333\include\xmemory

; 810  :         _Deallocate<_New_alignof<_Ty>>(_Ptr, sizeof(_Ty) * _Count);

  00352	8b 85 7c ff ff
	ff		 mov	 eax, DWORD PTR __Count$[ebp]
  00358	c1 e0 02	 shl	 eax, 2
  0035b	50		 push	 eax
  0035c	ff b5 78 ff ff
	ff		 push	 DWORD PTR __Ptr$[ebp]
  00362	e8 00 00 00 00	 call	 ??$_Deallocate@$07$0A@@std@@YAXPAXI@Z ; std::_Deallocate<8,0>
  00367	59		 pop	 ecx
  00368	59		 pop	 ecx
$LN8@Growmap:
; File C:\Program Files (x86)\Microsoft Visual Studio\2019\Community\VC\Tools\MSVC\14.28.29333\include\deque

; 1530 :         return _Mypair._Myval2;

  00369	8b 45 70	 mov	 eax, DWORD PTR _this$[ebp]
  0036c	89 85 74 ff ff
	ff		 mov	 DWORD PTR $T7[ebp], eax

; 1538 :         return _Get_data()._Map;

  00372	8b 85 74 ff ff
	ff		 mov	 eax, DWORD PTR $T7[ebp]
  00378	83 c0 04	 add	 eax, 4
  0037b	89 85 70 ff ff
	ff		 mov	 DWORD PTR $T6[ebp], eax

; 1463 :         }
; 1464 : 
; 1465 :         _Map() = _Newmap; // point at new

  00381	8b 85 70 ff ff
	ff		 mov	 eax, DWORD PTR $T6[ebp]
  00387	8b 4d 60	 mov	 ecx, DWORD PTR __Newmap$[ebp]
  0038a	89 08		 mov	 DWORD PTR [eax], ecx

; 1466 :         _Mapsize() += _Count;

  0038c	8b 85 5c ff ff
	ff		 mov	 eax, DWORD PTR $T1[ebp]
  00392	89 45 58	 mov	 DWORD PTR tv212[ebp], eax

; 1530 :         return _Mypair._Myval2;

  00395	8b 45 70	 mov	 eax, DWORD PTR _this$[ebp]
  00398	89 85 6c ff ff
	ff		 mov	 DWORD PTR $T5[ebp], eax

; 1546 :         return _Get_data()._Mapsize;

  0039e	8b 85 6c ff ff
	ff		 mov	 eax, DWORD PTR $T5[ebp]
  003a4	83 c0 08	 add	 eax, 8
  003a7	89 45 58	 mov	 DWORD PTR tv212[ebp], eax

; 1466 :         _Mapsize() += _Count;

  003aa	8b 45 58	 mov	 eax, DWORD PTR tv212[ebp]
  003ad	8b 00		 mov	 eax, DWORD PTR [eax]
  003af	03 45 7c	 add	 eax, DWORD PTR __Count$[ebp]
  003b2	8b 4d 58	 mov	 ecx, DWORD PTR tv212[ebp]
  003b5	89 01		 mov	 DWORD PTR [ecx], eax
$LN83@Growmap:

; 1467 :     }

  003b7	83 c5 74	 add	 ebp, 116		; 00000074H
  003ba	c9		 leave
  003bb	c2 04 00	 ret	 4
?_Growmap@?$deque@USReservingMotionNode@CActorInstance@@V?$allocator@USReservingMotionNode@CActorInstance@@@std@@@std@@AAEXI@Z ENDP ; std::deque<CActorInstance::SReservingMotionNode,std::allocator<CActorInstance::SReservingMotionNode> >::_Growmap
_TEXT	ENDS
; Function compile flags: /Odspy
; File C:\Program Files (x86)\Microsoft Visual Studio\2019\Community\VC\Tools\MSVC\14.28.29333\include\deque
;	COMDAT ?_Xlen@?$deque@USReservingMotionNode@CActorInstance@@V?$allocator@USReservingMotionNode@CActorInstance@@@std@@@std@@ABEXXZ
_TEXT	SEGMENT
_this$ = -4						; size = 4
?_Xlen@?$deque@USReservingMotionNode@CActorInstance@@V?$allocator@USReservingMotionNode@CActorInstance@@@std@@@std@@ABEXXZ PROC ; std::deque<CActorInstance::SReservingMotionNode,std::allocator<CActorInstance::SReservingMotionNode> >::_Xlen, COMDAT
; _this$ = ecx

; 1422 :     [[noreturn]] void _Xlen() const {

  00000	55		 push	 ebp
  00001	8b ec		 mov	 ebp, esp
  00003	51		 push	 ecx
  00004	89 4d fc	 mov	 DWORD PTR _this$[ebp], ecx

; 1423 :         _Xlength_error("deque<T> too long");

  00007	68 00 00 00 00	 push	 OFFSET ??_C@_0BC@KBDMBKEH@deque?$DMT?$DO?5too?5long@
  0000c	e8 00 00 00 00	 call	 ?_Xlength_error@std@@YAXPBD@Z ; std::_Xlength_error
$LN2@Xlen:

; 1424 :     }

  00011	c9		 leave
  00012	c3		 ret	 0
?_Xlen@?$deque@USReservingMotionNode@CActorInstance@@V?$allocator@USReservingMotionNode@CActorInstance@@@std@@@std@@ABEXXZ ENDP ; std::deque<CActorInstance::SReservingMotionNode,std::allocator<CActorInstance::SReservingMotionNode> >::_Xlen
_TEXT	ENDS
; Function compile flags: /Odspy
; File C:\Program Files (x86)\Microsoft Visual Studio\2019\Community\VC\Tools\MSVC\14.28.29333\include\deque
; File C:\Program Files (x86)\Microsoft Visual Studio\2019\Community\VC\Tools\MSVC\14.28.29333\include\xstddef
; File C:\Program Files (x86)\Microsoft Visual Studio\2019\Community\VC\Tools\MSVC\14.28.29333\include\deque
; File C:\Program Files (x86)\Microsoft Visual Studio\2019\Community\VC\Tools\MSVC\14.28.29333\include\xmemory
; File C:\Program Files (x86)\Microsoft Visual Studio\2019\Community\VC\Tools\MSVC\14.28.29333\include\deque
;	COMDAT ?pop_back@?$deque@USReservingMotionNode@CActorInstance@@V?$allocator@USReservingMotionNode@CActorInstance@@@std@@@std@@QAEXXZ
_TEXT	SEGMENT
$T1 = -80						; size = 4
$T2 = -76						; size = 4
$T3 = -72						; size = 4
$T4 = -68						; size = 4
$T5 = -64						; size = 4
$T6 = -60						; size = 4
$T7 = -56						; size = 4
__Ptr$ = -52						; size = 4
__Block$ = -48						; size = 4
$T8 = -44						; size = 4
$T9 = -40						; size = 4
$T10 = -36						; size = 4
$T11 = -32						; size = 4
$T12 = -28						; size = 4
$T13 = -24						; size = 4
$T14 = -20						; size = 4
$T15 = -16						; size = 4
__Newoff$ = -12						; size = 4
tv88 = -8						; size = 4
_this$ = -4						; size = 4
?pop_back@?$deque@USReservingMotionNode@CActorInstance@@V?$allocator@USReservingMotionNode@CActorInstance@@@std@@@std@@QAEXXZ PROC ; std::deque<CActorInstance::SReservingMotionNode,std::allocator<CActorInstance::SReservingMotionNode> >::pop_back, COMDAT
; _this$ = ecx

; 1126 :     void pop_back() noexcept /* strengthened */ {

  00000	55		 push	 ebp
  00001	8b ec		 mov	 ebp, esp
  00003	83 ec 50	 sub	 esp, 80			; 00000050H
  00006	89 4d fc	 mov	 DWORD PTR _this$[ebp], ecx

; 1530 :         return _Mypair._Myval2;

  00009	8b 45 fc	 mov	 eax, DWORD PTR _this$[ebp]
  0000c	89 45 f0	 mov	 DWORD PTR $T15[ebp], eax

; 1554 :         return _Get_data()._Myoff;

  0000f	8b 45 f0	 mov	 eax, DWORD PTR $T15[ebp]
  00012	83 c0 0c	 add	 eax, 12			; 0000000cH
  00015	89 45 e8	 mov	 DWORD PTR $T13[ebp], eax

; 1530 :         return _Mypair._Myval2;

  00018	8b 45 fc	 mov	 eax, DWORD PTR _this$[ebp]
  0001b	89 45 ec	 mov	 DWORD PTR $T14[ebp], eax

; 1562 :         return _Get_data()._Mysize;

  0001e	8b 45 ec	 mov	 eax, DWORD PTR $T14[ebp]
  00021	83 c0 10	 add	 eax, 16			; 00000010H
  00024	89 45 e4	 mov	 DWORD PTR $T12[ebp], eax

; 1127 : #if _ITERATOR_DEBUG_LEVEL == 2
; 1128 :         if (empty()) {
; 1129 :             _STL_REPORT_ERROR("deque empty before pop");
; 1130 :         } else { // something to erase, do it
; 1131 :             size_type _Newoff = _Myoff() + _Mysize() - 1;
; 1132 :             _Orphan_off(_Newoff);
; 1133 :             size_type _Block = _Getblock(_Newoff);
; 1134 :             _Alty_traits::destroy(_Getal(), _Unfancy(_Map()[_Block] + _Newoff % _DEQUESIZ));
; 1135 :             if (--_Mysize() == 0) {
; 1136 :                 _Myoff() = 0;
; 1137 :             }
; 1138 :         }
; 1139 : 
; 1140 : #else // _ITERATOR_DEBUG_LEVEL == 2
; 1141 :         size_type _Newoff = _Myoff() + _Mysize() - 1;

  00027	8b 45 e8	 mov	 eax, DWORD PTR $T13[ebp]
  0002a	8b 00		 mov	 eax, DWORD PTR [eax]
  0002c	8b 4d e4	 mov	 ecx, DWORD PTR $T12[ebp]
  0002f	8b 09		 mov	 ecx, DWORD PTR [ecx]
  00031	8d 44 08 ff	 lea	 eax, DWORD PTR [eax+ecx-1]
  00035	89 45 f4	 mov	 DWORD PTR __Newoff$[ebp], eax

; 1534 :         return _Mypair._Myval2;

  00038	8b 45 fc	 mov	 eax, DWORD PTR _this$[ebp]
  0003b	89 45 e0	 mov	 DWORD PTR $T11[ebp], eax

; 548  :         return (_Off / _DEQUESIZ) & (_Mapsize - 1);

  0003e	8b 45 e0	 mov	 eax, DWORD PTR $T11[ebp]
  00041	8b 40 08	 mov	 eax, DWORD PTR [eax+8]
  00044	48		 dec	 eax
  00045	23 45 f4	 and	 eax, DWORD PTR __Newoff$[ebp]
  00048	89 45 dc	 mov	 DWORD PTR $T10[ebp], eax

; 1514 :         return _Get_data()._Getblock(_Off);

  0004b	8b 45 dc	 mov	 eax, DWORD PTR $T10[ebp]
  0004e	89 45 d0	 mov	 DWORD PTR __Block$[ebp], eax

; 1530 :         return _Mypair._Myval2;

  00051	8b 45 fc	 mov	 eax, DWORD PTR _this$[ebp]
  00054	89 45 d8	 mov	 DWORD PTR $T9[ebp], eax

; 1538 :         return _Get_data()._Map;

  00057	8b 45 d8	 mov	 eax, DWORD PTR $T9[ebp]
  0005a	83 c0 04	 add	 eax, 4
  0005d	89 45 d4	 mov	 DWORD PTR $T8[ebp], eax

; 1142 :         size_type _Block  = _Getblock(_Newoff);
; 1143 :         _Alty_traits::destroy(_Getal(), _Unfancy(_Map()[_Block] + _Newoff % _DEQUESIZ));

  00060	8b 45 f4	 mov	 eax, DWORD PTR __Newoff$[ebp]
  00063	33 d2		 xor	 edx, edx
  00065	33 c9		 xor	 ecx, ecx
  00067	41		 inc	 ecx
  00068	f7 f1		 div	 ecx
  0006a	6b c2 18	 imul	 eax, edx, 24
  0006d	8b 4d d4	 mov	 ecx, DWORD PTR $T8[ebp]
  00070	8b 09		 mov	 ecx, DWORD PTR [ecx]
  00072	8b 55 d0	 mov	 edx, DWORD PTR __Block$[ebp]
  00075	03 04 91	 add	 eax, DWORD PTR [ecx+edx*4]
  00078	89 45 cc	 mov	 DWORD PTR __Ptr$[ebp], eax
; File C:\Program Files (x86)\Microsoft Visual Studio\2019\Community\VC\Tools\MSVC\14.28.29333\include\xstddef

; 289  :     return _Ptr;

  0007b	8b 45 cc	 mov	 eax, DWORD PTR __Ptr$[ebp]
  0007e	89 45 b8	 mov	 DWORD PTR $T3[ebp], eax
; File C:\Program Files (x86)\Microsoft Visual Studio\2019\Community\VC\Tools\MSVC\14.28.29333\include\deque

; 1522 :         return _Mypair._Get_first();

  00081	8b 45 fc	 mov	 eax, DWORD PTR _this$[ebp]
; File C:\Program Files (x86)\Microsoft Visual Studio\2019\Community\VC\Tools\MSVC\14.28.29333\include\xmemory

; 1347 :         return *this;

  00084	89 45 c8	 mov	 DWORD PTR $T7[ebp], eax
; File C:\Program Files (x86)\Microsoft Visual Studio\2019\Community\VC\Tools\MSVC\14.28.29333\include\deque

; 1522 :         return _Mypair._Get_first();

  00087	8b 45 c8	 mov	 eax, DWORD PTR $T7[ebp]
  0008a	89 45 b4	 mov	 DWORD PTR $T2[ebp], eax

; 1144 :         if (--_Mysize() == 0) {

  0008d	8b 45 b0	 mov	 eax, DWORD PTR $T1[ebp]
  00090	89 45 f8	 mov	 DWORD PTR tv88[ebp], eax

; 1530 :         return _Mypair._Myval2;

  00093	8b 45 fc	 mov	 eax, DWORD PTR _this$[ebp]
  00096	89 45 c4	 mov	 DWORD PTR $T6[ebp], eax

; 1562 :         return _Get_data()._Mysize;

  00099	8b 45 c4	 mov	 eax, DWORD PTR $T6[ebp]
  0009c	83 c0 10	 add	 eax, 16			; 00000010H
  0009f	89 45 f8	 mov	 DWORD PTR tv88[ebp], eax

; 1144 :         if (--_Mysize() == 0) {

  000a2	8b 45 f8	 mov	 eax, DWORD PTR tv88[ebp]
  000a5	8b 00		 mov	 eax, DWORD PTR [eax]
  000a7	48		 dec	 eax
  000a8	8b 4d f8	 mov	 ecx, DWORD PTR tv88[ebp]
  000ab	89 01		 mov	 DWORD PTR [ecx], eax
  000ad	8b 45 f8	 mov	 eax, DWORD PTR tv88[ebp]
  000b0	83 38 00	 cmp	 DWORD PTR [eax], 0
  000b3	75 15		 jne	 SHORT $LN3@pop_back

; 1530 :         return _Mypair._Myval2;

  000b5	8b 45 fc	 mov	 eax, DWORD PTR _this$[ebp]
  000b8	89 45 c0	 mov	 DWORD PTR $T5[ebp], eax

; 1554 :         return _Get_data()._Myoff;

  000bb	8b 45 c0	 mov	 eax, DWORD PTR $T5[ebp]
  000be	83 c0 0c	 add	 eax, 12			; 0000000cH
  000c1	89 45 bc	 mov	 DWORD PTR $T4[ebp], eax

; 1145 :             _Myoff() = 0;

  000c4	8b 45 bc	 mov	 eax, DWORD PTR $T4[ebp]
  000c7	83 20 00	 and	 DWORD PTR [eax], 0
$LN3@pop_back:

; 1146 :         }
; 1147 : #endif // _ITERATOR_DEBUG_LEVEL == 2
; 1148 :     }

  000ca	c9		 leave
  000cb	c3		 ret	 0
?pop_back@?$deque@USReservingMotionNode@CActorInstance@@V?$allocator@USReservingMotionNode@CActorInstance@@@std@@@std@@QAEXXZ ENDP ; std::deque<CActorInstance::SReservingMotionNode,std::allocator<CActorInstance::SReservingMotionNode> >::pop_back
_TEXT	ENDS
; Function compile flags: /Odspy
; File C:\Program Files (x86)\Microsoft Visual Studio\2019\Community\VC\Tools\MSVC\14.28.29333\include\deque
; File C:\Program Files (x86)\Microsoft Visual Studio\2019\Community\VC\Tools\MSVC\14.28.29333\include\xstddef
; File C:\Program Files (x86)\Microsoft Visual Studio\2019\Community\VC\Tools\MSVC\14.28.29333\include\deque
; File C:\Program Files (x86)\Microsoft Visual Studio\2019\Community\VC\Tools\MSVC\14.28.29333\include\xmemory
; File C:\Program Files (x86)\Microsoft Visual Studio\2019\Community\VC\Tools\MSVC\14.28.29333\include\deque
;	COMDAT ?pop_front@?$deque@USReservingMotionNode@CActorInstance@@V?$allocator@USReservingMotionNode@CActorInstance@@@std@@@std@@QAEXXZ
_TEXT	SEGMENT
$T1 = -92						; size = 4
$T2 = -88						; size = 4
$T3 = -84						; size = 4
$T4 = -80						; size = 4
$T5 = -76						; size = 4
$T6 = -72						; size = 4
$T7 = -68						; size = 4
$T8 = -64						; size = 4
$T9 = -60						; size = 4
__Ptr$ = -56						; size = 4
__Block$ = -52						; size = 4
$T10 = -48						; size = 4
$T11 = -44						; size = 4
$T12 = -40						; size = 4
$T13 = -36						; size = 4
$T14 = -32						; size = 4
__Off$ = -28						; size = 4
$T15 = -24						; size = 4
$T16 = -20						; size = 4
$T17 = -16						; size = 4
tv93 = -12						; size = 4
tv86 = -8						; size = 4
_this$ = -4						; size = 4
?pop_front@?$deque@USReservingMotionNode@CActorInstance@@V?$allocator@USReservingMotionNode@CActorInstance@@@std@@@std@@QAEXXZ PROC ; std::deque<CActorInstance::SReservingMotionNode,std::allocator<CActorInstance::SReservingMotionNode> >::pop_front, COMDAT
; _this$ = ecx

; 1086 :     void pop_front() noexcept /* strengthened */ {

  00000	55		 push	 ebp
  00001	8b ec		 mov	 ebp, esp
  00003	83 ec 5c	 sub	 esp, 92			; 0000005cH
  00006	89 4d fc	 mov	 DWORD PTR _this$[ebp], ecx

; 1530 :         return _Mypair._Myval2;

  00009	8b 45 fc	 mov	 eax, DWORD PTR _this$[ebp]
  0000c	89 45 f0	 mov	 DWORD PTR $T17[ebp], eax

; 1554 :         return _Get_data()._Myoff;

  0000f	8b 45 f0	 mov	 eax, DWORD PTR $T17[ebp]
  00012	83 c0 0c	 add	 eax, 12			; 0000000cH
  00015	89 45 ec	 mov	 DWORD PTR $T16[ebp], eax

; 1087 : #if _ITERATOR_DEBUG_LEVEL == 2
; 1088 :         if (empty()) {
; 1089 :             _STL_REPORT_ERROR("deque empty before pop");
; 1090 :         } else { // something to erase, do it
; 1091 :             _Orphan_off(_Myoff());
; 1092 :             size_type _Block = _Getblock(_Myoff());
; 1093 :             _Alty_traits::destroy(_Getal(), _Unfancy(_Map()[_Block] + _Myoff() % _DEQUESIZ));
; 1094 :             if (--_Mysize() == 0) {
; 1095 :                 _Myoff() = 0;
; 1096 :             } else {
; 1097 :                 ++_Myoff();
; 1098 :             }
; 1099 :         }
; 1100 : 
; 1101 : #else // _ITERATOR_DEBUG_LEVEL == 2
; 1102 :         size_type _Block = _Getblock(_Myoff());

  00018	8b 45 ec	 mov	 eax, DWORD PTR $T16[ebp]
  0001b	8b 00		 mov	 eax, DWORD PTR [eax]
  0001d	89 45 e4	 mov	 DWORD PTR __Off$[ebp], eax

; 1534 :         return _Mypair._Myval2;

  00020	8b 45 fc	 mov	 eax, DWORD PTR _this$[ebp]
  00023	89 45 e8	 mov	 DWORD PTR $T15[ebp], eax

; 548  :         return (_Off / _DEQUESIZ) & (_Mapsize - 1);

  00026	8b 45 e8	 mov	 eax, DWORD PTR $T15[ebp]
  00029	8b 40 08	 mov	 eax, DWORD PTR [eax+8]
  0002c	48		 dec	 eax
  0002d	23 45 e4	 and	 eax, DWORD PTR __Off$[ebp]
  00030	89 45 e0	 mov	 DWORD PTR $T14[ebp], eax

; 1514 :         return _Get_data()._Getblock(_Off);

  00033	8b 45 e0	 mov	 eax, DWORD PTR $T14[ebp]
  00036	89 45 cc	 mov	 DWORD PTR __Block$[ebp], eax

; 1530 :         return _Mypair._Myval2;

  00039	8b 45 fc	 mov	 eax, DWORD PTR _this$[ebp]
  0003c	89 45 dc	 mov	 DWORD PTR $T13[ebp], eax

; 1538 :         return _Get_data()._Map;

  0003f	8b 45 dc	 mov	 eax, DWORD PTR $T13[ebp]
  00042	83 c0 04	 add	 eax, 4
  00045	89 45 d0	 mov	 DWORD PTR $T10[ebp], eax

; 1530 :         return _Mypair._Myval2;

  00048	8b 45 fc	 mov	 eax, DWORD PTR _this$[ebp]
  0004b	89 45 d8	 mov	 DWORD PTR $T12[ebp], eax

; 1554 :         return _Get_data()._Myoff;

  0004e	8b 45 d8	 mov	 eax, DWORD PTR $T12[ebp]
  00051	83 c0 0c	 add	 eax, 12			; 0000000cH
  00054	89 45 d4	 mov	 DWORD PTR $T11[ebp], eax

; 1103 :         _Alty_traits::destroy(_Getal(), _Unfancy(_Map()[_Block] + _Myoff() % _DEQUESIZ));

  00057	8b 45 d4	 mov	 eax, DWORD PTR $T11[ebp]
  0005a	8b 00		 mov	 eax, DWORD PTR [eax]
  0005c	33 d2		 xor	 edx, edx
  0005e	33 c9		 xor	 ecx, ecx
  00060	41		 inc	 ecx
  00061	f7 f1		 div	 ecx
  00063	6b c2 18	 imul	 eax, edx, 24
  00066	8b 4d d0	 mov	 ecx, DWORD PTR $T10[ebp]
  00069	8b 09		 mov	 ecx, DWORD PTR [ecx]
  0006b	8b 55 cc	 mov	 edx, DWORD PTR __Block$[ebp]
  0006e	03 04 91	 add	 eax, DWORD PTR [ecx+edx*4]
  00071	89 45 c8	 mov	 DWORD PTR __Ptr$[ebp], eax
; File C:\Program Files (x86)\Microsoft Visual Studio\2019\Community\VC\Tools\MSVC\14.28.29333\include\xstddef

; 289  :     return _Ptr;

  00074	8b 45 c8	 mov	 eax, DWORD PTR __Ptr$[ebp]
  00077	89 45 b0	 mov	 DWORD PTR $T4[ebp], eax
; File C:\Program Files (x86)\Microsoft Visual Studio\2019\Community\VC\Tools\MSVC\14.28.29333\include\deque

; 1522 :         return _Mypair._Get_first();

  0007a	8b 45 fc	 mov	 eax, DWORD PTR _this$[ebp]
; File C:\Program Files (x86)\Microsoft Visual Studio\2019\Community\VC\Tools\MSVC\14.28.29333\include\xmemory

; 1347 :         return *this;

  0007d	89 45 c4	 mov	 DWORD PTR $T9[ebp], eax
; File C:\Program Files (x86)\Microsoft Visual Studio\2019\Community\VC\Tools\MSVC\14.28.29333\include\deque

; 1522 :         return _Mypair._Get_first();

  00080	8b 45 c4	 mov	 eax, DWORD PTR $T9[ebp]
  00083	89 45 ac	 mov	 DWORD PTR $T3[ebp], eax

; 1104 :         if (--_Mysize() == 0) {

  00086	8b 45 a8	 mov	 eax, DWORD PTR $T2[ebp]
  00089	89 45 f8	 mov	 DWORD PTR tv86[ebp], eax

; 1530 :         return _Mypair._Myval2;

  0008c	8b 45 fc	 mov	 eax, DWORD PTR _this$[ebp]
  0008f	89 45 c0	 mov	 DWORD PTR $T8[ebp], eax

; 1562 :         return _Get_data()._Mysize;

  00092	8b 45 c0	 mov	 eax, DWORD PTR $T8[ebp]
  00095	83 c0 10	 add	 eax, 16			; 00000010H
  00098	89 45 f8	 mov	 DWORD PTR tv86[ebp], eax

; 1104 :         if (--_Mysize() == 0) {

  0009b	8b 45 f8	 mov	 eax, DWORD PTR tv86[ebp]
  0009e	8b 00		 mov	 eax, DWORD PTR [eax]
  000a0	48		 dec	 eax
  000a1	8b 4d f8	 mov	 ecx, DWORD PTR tv86[ebp]
  000a4	89 01		 mov	 DWORD PTR [ecx], eax
  000a6	8b 45 f8	 mov	 eax, DWORD PTR tv86[ebp]
  000a9	83 38 00	 cmp	 DWORD PTR [eax], 0
  000ac	75 17		 jne	 SHORT $LN2@pop_front

; 1530 :         return _Mypair._Myval2;

  000ae	8b 45 fc	 mov	 eax, DWORD PTR _this$[ebp]
  000b1	89 45 bc	 mov	 DWORD PTR $T7[ebp], eax

; 1554 :         return _Get_data()._Myoff;

  000b4	8b 45 bc	 mov	 eax, DWORD PTR $T7[ebp]
  000b7	83 c0 0c	 add	 eax, 12			; 0000000cH
  000ba	89 45 b8	 mov	 DWORD PTR $T6[ebp], eax

; 1105 :             _Myoff() = 0;

  000bd	8b 45 b8	 mov	 eax, DWORD PTR $T6[ebp]
  000c0	83 20 00	 and	 DWORD PTR [eax], 0

; 1106 :         } else {

  000c3	eb 20		 jmp	 SHORT $LN4@pop_front
$LN2@pop_front:

; 1107 :             ++_Myoff();

  000c5	8b 45 a4	 mov	 eax, DWORD PTR $T1[ebp]
  000c8	89 45 f4	 mov	 DWORD PTR tv93[ebp], eax

; 1530 :         return _Mypair._Myval2;

  000cb	8b 45 fc	 mov	 eax, DWORD PTR _this$[ebp]
  000ce	89 45 b4	 mov	 DWORD PTR $T5[ebp], eax

; 1554 :         return _Get_data()._Myoff;

  000d1	8b 45 b4	 mov	 eax, DWORD PTR $T5[ebp]
  000d4	83 c0 0c	 add	 eax, 12			; 0000000cH
  000d7	89 45 f4	 mov	 DWORD PTR tv93[ebp], eax

; 1107 :             ++_Myoff();

  000da	8b 45 f4	 mov	 eax, DWORD PTR tv93[ebp]
  000dd	8b 00		 mov	 eax, DWORD PTR [eax]
  000df	40		 inc	 eax
  000e0	8b 4d f4	 mov	 ecx, DWORD PTR tv93[ebp]
  000e3	89 01		 mov	 DWORD PTR [ecx], eax
$LN4@pop_front:

; 1108 :         }
; 1109 : #endif // _ITERATOR_DEBUG_LEVEL == 2
; 1110 :     }

  000e5	c9		 leave
  000e6	c3		 ret	 0
?pop_front@?$deque@USReservingMotionNode@CActorInstance@@V?$allocator@USReservingMotionNode@CActorInstance@@@std@@@std@@QAEXXZ ENDP ; std::deque<CActorInstance::SReservingMotionNode,std::allocator<CActorInstance::SReservingMotionNode> >::pop_front
_TEXT	ENDS
; Function compile flags: /Odspy
; File C:\Program Files (x86)\Microsoft Visual Studio\2019\Community\VC\Tools\MSVC\14.28.29333\include\deque
; File C:\Program Files (x86)\Microsoft Visual Studio\2019\Community\VC\Tools\MSVC\14.28.29333\include\xstddef
; File C:\Program Files (x86)\Microsoft Visual Studio\2019\Community\VC\Tools\MSVC\14.28.29333\include\deque
;	COMDAT ?front@?$deque@USReservingMotionNode@CActorInstance@@V?$allocator@USReservingMotionNode@CActorInstance@@@std@@@std@@QAEAAUSReservingMotionNode@CActorInstance@@XZ
_TEXT	SEGMENT
$T1 = -40						; size = 8
$T2 = -32						; size = 4
$T3 = -28						; size = 4
___param0$ = -24					; size = 4
$T4 = -20						; size = 4
$T5 = -16						; size = 4
$T6 = -12						; size = 4
$T7 = -8						; size = 4
_this$ = -4						; size = 4
?front@?$deque@USReservingMotionNode@CActorInstance@@V?$allocator@USReservingMotionNode@CActorInstance@@@std@@@std@@QAEAAUSReservingMotionNode@CActorInstance@@XZ PROC ; std::deque<CActorInstance::SReservingMotionNode,std::allocator<CActorInstance::SReservingMotionNode> >::front, COMDAT
; _this$ = ecx

; 1047 :     _NODISCARD reference front() noexcept /* strengthened */ {

  00000	55		 push	 ebp
  00001	8b ec		 mov	 ebp, esp
  00003	83 ec 28	 sub	 esp, 40			; 00000028H
  00006	89 4d fc	 mov	 DWORD PTR _this$[ebp], ecx

; 1530 :         return _Mypair._Myval2;

  00009	8b 45 fc	 mov	 eax, DWORD PTR _this$[ebp]
  0000c	89 45 f8	 mov	 DWORD PTR $T7[ebp], eax
; File C:\Program Files (x86)\Microsoft Visual Studio\2019\Community\VC\Tools\MSVC\14.28.29333\include\xstddef

; 275  :     return __builtin_addressof(_Val);

  0000f	8b 45 f8	 mov	 eax, DWORD PTR $T7[ebp]
  00012	89 45 ec	 mov	 DWORD PTR $T4[ebp], eax
; File C:\Program Files (x86)\Microsoft Visual Studio\2019\Community\VC\Tools\MSVC\14.28.29333\include\deque

; 1530 :         return _Mypair._Myval2;

  00015	8b 45 fc	 mov	 eax, DWORD PTR _this$[ebp]
  00018	89 45 f4	 mov	 DWORD PTR $T6[ebp], eax

; 1554 :         return _Get_data()._Myoff;

  0001b	8b 45 f4	 mov	 eax, DWORD PTR $T6[ebp]
  0001e	83 c0 0c	 add	 eax, 12			; 0000000cH
  00021	89 45 f0	 mov	 DWORD PTR $T5[ebp], eax

; 914  :         return _Unchecked_iterator(_Myoff(), _STD addressof(_Get_data()));

  00024	8b 45 f0	 mov	 eax, DWORD PTR $T5[ebp]
  00027	8b 00		 mov	 eax, DWORD PTR [eax]
  00029	89 45 e8	 mov	 DWORD PTR ___param0$[ebp], eax

; 52   :         : _Mycont(static_cast<const _Mydeque*>(_Pdeque)), _Myoff(_Off) {}

  0002c	8b 45 ec	 mov	 eax, DWORD PTR $T4[ebp]
  0002f	89 45 d8	 mov	 DWORD PTR $T1[ebp], eax
  00032	8b 45 e8	 mov	 eax, DWORD PTR ___param0$[ebp]
  00035	89 45 dc	 mov	 DWORD PTR $T1[ebp+4], eax

; 914  :         return _Unchecked_iterator(_Myoff(), _STD addressof(_Get_data()));

  00038	8d 45 d8	 lea	 eax, DWORD PTR $T1[ebp]
  0003b	89 45 e4	 mov	 DWORD PTR $T3[ebp], eax

; 171  :         return const_cast<reference>(_Mybase::operator*());

  0003e	8b 4d e4	 mov	 ecx, DWORD PTR $T3[ebp]
  00041	e8 00 00 00 00	 call	 ??D?$_Deque_unchecked_const_iterator@V?$_Deque_val@U?$_Deque_simple_types@USReservingMotionNode@CActorInstance@@@std@@@std@@@std@@QBEABUSReservingMotionNode@CActorInstance@@XZ ; std::_Deque_unchecked_const_iterator<std::_Deque_val<std::_Deque_simple_types<CActorInstance::SReservingMotionNode> > >::operator*
  00046	89 45 e0	 mov	 DWORD PTR $T2[ebp], eax

; 1048 : #if _CONTAINER_DEBUG_LEVEL > 0
; 1049 :         _STL_VERIFY(!empty(), "front() called on empty deque");
; 1050 : #endif // _CONTAINER_DEBUG_LEVEL > 0
; 1051 : 
; 1052 :         return *_Unchecked_begin();

  00049	8b 45 e0	 mov	 eax, DWORD PTR $T2[ebp]

; 1053 :     }

  0004c	c9		 leave
  0004d	c3		 ret	 0
?front@?$deque@USReservingMotionNode@CActorInstance@@V?$allocator@USReservingMotionNode@CActorInstance@@@std@@@std@@QAEAAUSReservingMotionNode@CActorInstance@@XZ ENDP ; std::deque<CActorInstance::SReservingMotionNode,std::allocator<CActorInstance::SReservingMotionNode> >::front
_TEXT	ENDS
; Function compile flags: /Odspy
; File C:\Program Files (x86)\Microsoft Visual Studio\2019\Community\VC\Tools\MSVC\14.28.29333\include\deque
; File C:\Program Files (x86)\Microsoft Visual Studio\2019\Community\VC\Tools\MSVC\14.28.29333\include\xstddef
; File C:\Program Files (x86)\Microsoft Visual Studio\2019\Community\VC\Tools\MSVC\14.28.29333\include\deque
;	COMDAT ??A?$deque@USReservingMotionNode@CActorInstance@@V?$allocator@USReservingMotionNode@CActorInstance@@@std@@@std@@QAEAAUSReservingMotionNode@CActorInstance@@I@Z
_TEXT	SEGMENT
$T1 = -64						; size = 8
$T2 = -56						; size = 8
__Tmp$3 = -48						; size = 8
$T4 = -40						; size = 4
$T5 = -36						; size = 4
$T6 = -32						; size = 4
$T7 = -28						; size = 4
___param0$ = -24					; size = 4
$T8 = -20						; size = 4
$T9 = -16						; size = 4
$T10 = -12						; size = 4
$T11 = -8						; size = 4
_this$ = -4						; size = 4
__Pos$ = 8						; size = 4
??A?$deque@USReservingMotionNode@CActorInstance@@V?$allocator@USReservingMotionNode@CActorInstance@@@std@@@std@@QAEAAUSReservingMotionNode@CActorInstance@@I@Z PROC ; std::deque<CActorInstance::SReservingMotionNode,std::allocator<CActorInstance::SReservingMotionNode> >::operator[], COMDAT
; _this$ = ecx

; 1039 :     _NODISCARD reference operator[](size_type _Pos) noexcept /* strengthened */ {

  00000	55		 push	 ebp
  00001	8b ec		 mov	 ebp, esp
  00003	83 ec 40	 sub	 esp, 64			; 00000040H
  00006	89 4d fc	 mov	 DWORD PTR _this$[ebp], ecx

; 1530 :         return _Mypair._Myval2;

  00009	8b 45 fc	 mov	 eax, DWORD PTR _this$[ebp]
  0000c	89 45 f8	 mov	 DWORD PTR $T11[ebp], eax
; File C:\Program Files (x86)\Microsoft Visual Studio\2019\Community\VC\Tools\MSVC\14.28.29333\include\xstddef

; 275  :     return __builtin_addressof(_Val);

  0000f	8b 45 f8	 mov	 eax, DWORD PTR $T11[ebp]
  00012	89 45 ec	 mov	 DWORD PTR $T8[ebp], eax
; File C:\Program Files (x86)\Microsoft Visual Studio\2019\Community\VC\Tools\MSVC\14.28.29333\include\deque

; 1530 :         return _Mypair._Myval2;

  00015	8b 45 fc	 mov	 eax, DWORD PTR _this$[ebp]
  00018	89 45 f4	 mov	 DWORD PTR $T10[ebp], eax

; 1554 :         return _Get_data()._Myoff;

  0001b	8b 45 f4	 mov	 eax, DWORD PTR $T10[ebp]
  0001e	83 c0 0c	 add	 eax, 12			; 0000000cH
  00021	89 45 f0	 mov	 DWORD PTR $T9[ebp], eax

; 914  :         return _Unchecked_iterator(_Myoff(), _STD addressof(_Get_data()));

  00024	8b 45 f0	 mov	 eax, DWORD PTR $T9[ebp]
  00027	8b 00		 mov	 eax, DWORD PTR [eax]
  00029	89 45 e8	 mov	 DWORD PTR ___param0$[ebp], eax

; 52   :         : _Mycont(static_cast<const _Mydeque*>(_Pdeque)), _Myoff(_Off) {}

  0002c	8b 45 ec	 mov	 eax, DWORD PTR $T8[ebp]
  0002f	89 45 c8	 mov	 DWORD PTR $T2[ebp], eax
  00032	8b 45 e8	 mov	 eax, DWORD PTR ___param0$[ebp]
  00035	89 45 cc	 mov	 DWORD PTR $T2[ebp+4], eax

; 914  :         return _Unchecked_iterator(_Myoff(), _STD addressof(_Get_data()));

  00038	8d 45 c8	 lea	 eax, DWORD PTR $T2[ebp]
  0003b	89 45 e4	 mov	 DWORD PTR $T7[ebp], eax

; 206  :         _Deque_unchecked_iterator _Tmp = *this;

  0003e	8b 45 e4	 mov	 eax, DWORD PTR $T7[ebp]
  00041	8b 08		 mov	 ecx, DWORD PTR [eax]
  00043	8b 40 04	 mov	 eax, DWORD PTR [eax+4]
  00046	89 4d d0	 mov	 DWORD PTR __Tmp$3[ebp], ecx
  00049	89 45 d4	 mov	 DWORD PTR __Tmp$3[ebp+4], eax

; 87   :         _Myoff += _Off;

  0004c	8b 45 d4	 mov	 eax, DWORD PTR __Tmp$3[ebp+4]
  0004f	03 45 08	 add	 eax, DWORD PTR __Pos$[ebp]
  00052	89 45 d4	 mov	 DWORD PTR __Tmp$3[ebp+4], eax

; 202  :         return *this;

  00055	8d 45 d0	 lea	 eax, DWORD PTR __Tmp$3[ebp]
  00058	89 45 e0	 mov	 DWORD PTR $T6[ebp], eax

; 207  :         return _Tmp += _Off;

  0005b	8b 45 e0	 mov	 eax, DWORD PTR $T6[ebp]
  0005e	8b 08		 mov	 ecx, DWORD PTR [eax]
  00060	8b 40 04	 mov	 eax, DWORD PTR [eax+4]
  00063	89 4d c0	 mov	 DWORD PTR $T1[ebp], ecx
  00066	89 45 c4	 mov	 DWORD PTR $T1[ebp+4], eax
  00069	8d 45 c0	 lea	 eax, DWORD PTR $T1[ebp]
  0006c	89 45 dc	 mov	 DWORD PTR $T5[ebp], eax

; 171  :         return const_cast<reference>(_Mybase::operator*());

  0006f	8b 4d dc	 mov	 ecx, DWORD PTR $T5[ebp]
  00072	e8 00 00 00 00	 call	 ??D?$_Deque_unchecked_const_iterator@V?$_Deque_val@U?$_Deque_simple_types@USReservingMotionNode@CActorInstance@@@std@@@std@@@std@@QBEABUSReservingMotionNode@CActorInstance@@XZ ; std::_Deque_unchecked_const_iterator<std::_Deque_val<std::_Deque_simple_types<CActorInstance::SReservingMotionNode> > >::operator*
  00077	89 45 d8	 mov	 DWORD PTR $T4[ebp], eax

; 1040 : #if _CONTAINER_DEBUG_LEVEL > 0
; 1041 :         _STL_VERIFY(_Pos < _Mysize(), "deque subscript out of range");
; 1042 : #endif // _CONTAINER_DEBUG_LEVEL > 0
; 1043 : 
; 1044 :         return *(_Unchecked_begin() + static_cast<difference_type>(_Pos));

  0007a	8b 45 d8	 mov	 eax, DWORD PTR $T4[ebp]

; 1045 :     }

  0007d	c9		 leave
  0007e	c2 04 00	 ret	 4
??A?$deque@USReservingMotionNode@CActorInstance@@V?$allocator@USReservingMotionNode@CActorInstance@@@std@@@std@@QAEAAUSReservingMotionNode@CActorInstance@@I@Z ENDP ; std::deque<CActorInstance::SReservingMotionNode,std::allocator<CActorInstance::SReservingMotionNode> >::operator[]
_TEXT	ENDS
; Function compile flags: /Odspy
; File C:\Program Files (x86)\Microsoft Visual Studio\2019\Community\VC\Tools\MSVC\14.28.29333\include\deque
; File C:\Program Files (x86)\Microsoft Visual Studio\2019\Community\VC\Tools\MSVC\14.28.29333\include\xstddef
; File C:\Program Files (x86)\Microsoft Visual Studio\2019\Community\VC\Tools\MSVC\14.28.29333\include\deque
; File C:\Program Files (x86)\Microsoft Visual Studio\2019\Community\VC\Tools\MSVC\14.28.29333\include\xmemory
; File C:\Program Files (x86)\Microsoft Visual Studio\2019\Community\VC\Tools\MSVC\14.28.29333\include\deque
; File C:\Program Files (x86)\Microsoft Visual Studio\2019\Community\VC\Tools\MSVC\14.28.29333\include\xmemory
; File C:\Program Files (x86)\Microsoft Visual Studio\2019\Community\VC\Tools\MSVC\14.28.29333\include\deque
;	COMDAT ?end@?$deque@USReservingMotionNode@CActorInstance@@V?$allocator@USReservingMotionNode@CActorInstance@@@std@@@std@@QAE?AV?$_Deque_iterator@V?$_Deque_val@U?$_Deque_simple_types@USReservingMotionNode@CActorInstance@@@std@@@std@@@2@XZ
_TEXT	SEGMENT
__Parent_proxy$1 = -36					; size = 4
___param0$ = -32					; size = 4
$T2 = -28						; size = 4
$T3 = -24						; size = 4
$T4 = -20						; size = 4
$T5 = -16						; size = 4
$T6 = -12						; size = 4
$T7 = -8						; size = 4
_this$ = -4						; size = 4
___$ReturnUdt$ = 8					; size = 4
?end@?$deque@USReservingMotionNode@CActorInstance@@V?$allocator@USReservingMotionNode@CActorInstance@@@std@@@std@@QAE?AV?$_Deque_iterator@V?$_Deque_val@U?$_Deque_simple_types@USReservingMotionNode@CActorInstance@@@std@@@std@@@2@XZ PROC ; std::deque<CActorInstance::SReservingMotionNode,std::allocator<CActorInstance::SReservingMotionNode> >::end, COMDAT
; _this$ = ecx

; 905  :     _NODISCARD iterator end() noexcept {

  00000	55		 push	 ebp
  00001	8b ec		 mov	 ebp, esp
  00003	83 ec 24	 sub	 esp, 36			; 00000024H
  00006	89 4d fc	 mov	 DWORD PTR _this$[ebp], ecx

; 1530 :         return _Mypair._Myval2;

  00009	8b 45 fc	 mov	 eax, DWORD PTR _this$[ebp]
  0000c	89 45 f4	 mov	 DWORD PTR $T6[ebp], eax
; File C:\Program Files (x86)\Microsoft Visual Studio\2019\Community\VC\Tools\MSVC\14.28.29333\include\xstddef

; 275  :     return __builtin_addressof(_Val);

  0000f	8b 45 f4	 mov	 eax, DWORD PTR $T6[ebp]
  00012	89 45 f8	 mov	 DWORD PTR $T7[ebp], eax
; File C:\Program Files (x86)\Microsoft Visual Studio\2019\Community\VC\Tools\MSVC\14.28.29333\include\deque

; 1530 :         return _Mypair._Myval2;

  00015	8b 45 fc	 mov	 eax, DWORD PTR _this$[ebp]
  00018	89 45 f0	 mov	 DWORD PTR $T5[ebp], eax

; 1554 :         return _Get_data()._Myoff;

  0001b	8b 45 f0	 mov	 eax, DWORD PTR $T5[ebp]
  0001e	83 c0 0c	 add	 eax, 12			; 0000000cH
  00021	89 45 e8	 mov	 DWORD PTR $T3[ebp], eax

; 1530 :         return _Mypair._Myval2;

  00024	8b 45 fc	 mov	 eax, DWORD PTR _this$[ebp]
  00027	89 45 ec	 mov	 DWORD PTR $T4[ebp], eax

; 1562 :         return _Get_data()._Mysize;

  0002a	8b 45 ec	 mov	 eax, DWORD PTR $T4[ebp]
  0002d	83 c0 10	 add	 eax, 16			; 00000010H
  00030	89 45 e4	 mov	 DWORD PTR $T2[ebp], eax

; 906  :         return iterator(_Myoff() + _Mysize(), _STD addressof(_Get_data()));

  00033	8b 45 e8	 mov	 eax, DWORD PTR $T3[ebp]
  00036	8b 00		 mov	 eax, DWORD PTR [eax]
  00038	8b 4d e4	 mov	 ecx, DWORD PTR $T2[ebp]
  0003b	03 01		 add	 eax, DWORD PTR [ecx]
  0003d	89 45 e0	 mov	 DWORD PTR ___param0$[ebp], eax
; File C:\Program Files (x86)\Microsoft Visual Studio\2019\Community\VC\Tools\MSVC\14.28.29333\include\xmemory

; 1126 :     _Iterator_base12() noexcept : _Myproxy(nullptr), _Mynextiter(nullptr) {} // construct orphaned iterator

  00040	8b 45 08	 mov	 eax, DWORD PTR ___$ReturnUdt$[ebp]
  00043	83 20 00	 and	 DWORD PTR [eax], 0
  00046	8b 45 08	 mov	 eax, DWORD PTR ___$ReturnUdt$[ebp]
  00049	83 60 04 00	 and	 DWORD PTR [eax+4], 0
; File C:\Program Files (x86)\Microsoft Visual Studio\2019\Community\VC\Tools\MSVC\14.28.29333\include\deque

; 256  :     _Deque_const_iterator(_Size_type _Off, const _Container_base12* _Pdeque) noexcept : _Myoff(_Off) {

  0004d	8b 45 08	 mov	 eax, DWORD PTR ___$ReturnUdt$[ebp]
  00050	8b 4d e0	 mov	 ecx, DWORD PTR ___param0$[ebp]
  00053	89 48 08	 mov	 DWORD PTR [eax+8], ecx
; File C:\Program Files (x86)\Microsoft Visual Studio\2019\Community\VC\Tools\MSVC\14.28.29333\include\xmemory

; 1157 :         if (_Parent) {

  00056	83 7d f8 00	 cmp	 DWORD PTR $T7[ebp], 0
  0005a	74 12		 je	 SHORT $LN34@end

; 1158 :             // have a parent, do adoption
; 1159 :             _Container_proxy* _Parent_proxy = _Parent->_Myproxy;

  0005c	8b 45 f8	 mov	 eax, DWORD PTR $T7[ebp]
  0005f	8b 00		 mov	 eax, DWORD PTR [eax]
  00061	89 45 dc	 mov	 DWORD PTR __Parent_proxy$1[ebp], eax

; 1160 : 
; 1161 : #if _ITERATOR_DEBUG_LEVEL == 2
; 1162 :             if (_Myproxy != _Parent_proxy) { // change parentage
; 1163 :                 _Lockit _Lock(_LOCK_DEBUG);
; 1164 :                 _Orphan_me();
; 1165 :                 _Mynextiter                 = _Parent_proxy->_Myfirstiter;
; 1166 :                 _Parent_proxy->_Myfirstiter = this;
; 1167 :                 _Myproxy                    = _Parent_proxy;
; 1168 :             }
; 1169 : 
; 1170 : #else // _ITERATOR_DEBUG_LEVEL == 2
; 1171 :             _Myproxy = _Parent_proxy;

  00064	8b 45 08	 mov	 eax, DWORD PTR ___$ReturnUdt$[ebp]
  00067	8b 4d dc	 mov	 ecx, DWORD PTR __Parent_proxy$1[ebp]
  0006a	89 08		 mov	 DWORD PTR [eax], ecx

; 1172 : #endif // _ITERATOR_DEBUG_LEVEL == 2
; 1173 :         } else {

  0006c	eb 06		 jmp	 SHORT $LN22@end
$LN34@end:

; 1174 :             // no future parent, just disown current parent
; 1175 : #if _ITERATOR_DEBUG_LEVEL == 2
; 1176 :             _Lockit _Lock(_LOCK_DEBUG);
; 1177 :             _Orphan_me();
; 1178 : #else // _ITERATOR_DEBUG_LEVEL == 2
; 1179 :             _Myproxy = nullptr;

  0006e	8b 45 08	 mov	 eax, DWORD PTR ___$ReturnUdt$[ebp]
  00071	83 20 00	 and	 DWORD PTR [eax], 0
$LN22@end:
; File C:\Program Files (x86)\Microsoft Visual Studio\2019\Community\VC\Tools\MSVC\14.28.29333\include\deque

; 906  :         return iterator(_Myoff() + _Mysize(), _STD addressof(_Get_data()));

  00074	8b 45 08	 mov	 eax, DWORD PTR ___$ReturnUdt$[ebp]

; 907  :     }

  00077	c9		 leave
  00078	c2 04 00	 ret	 4
?end@?$deque@USReservingMotionNode@CActorInstance@@V?$allocator@USReservingMotionNode@CActorInstance@@@std@@@std@@QAE?AV?$_Deque_iterator@V?$_Deque_val@U?$_Deque_simple_types@USReservingMotionNode@CActorInstance@@@std@@@std@@@2@XZ ENDP ; std::deque<CActorInstance::SReservingMotionNode,std::allocator<CActorInstance::SReservingMotionNode> >::end
_TEXT	ENDS
; Function compile flags: /Odspy
; File C:\Program Files (x86)\Microsoft Visual Studio\2019\Community\VC\Tools\MSVC\14.28.29333\include\deque
; File C:\Program Files (x86)\Microsoft Visual Studio\2019\Community\VC\Tools\MSVC\14.28.29333\include\xstddef
; File C:\Program Files (x86)\Microsoft Visual Studio\2019\Community\VC\Tools\MSVC\14.28.29333\include\deque
; File C:\Program Files (x86)\Microsoft Visual Studio\2019\Community\VC\Tools\MSVC\14.28.29333\include\xmemory
; File C:\Program Files (x86)\Microsoft Visual Studio\2019\Community\VC\Tools\MSVC\14.28.29333\include\deque
; File C:\Program Files (x86)\Microsoft Visual Studio\2019\Community\VC\Tools\MSVC\14.28.29333\include\xmemory
; File C:\Program Files (x86)\Microsoft Visual Studio\2019\Community\VC\Tools\MSVC\14.28.29333\include\deque
;	COMDAT ?begin@?$deque@USReservingMotionNode@CActorInstance@@V?$allocator@USReservingMotionNode@CActorInstance@@@std@@@std@@QAE?AV?$_Deque_iterator@V?$_Deque_val@U?$_Deque_simple_types@USReservingMotionNode@CActorInstance@@@std@@@std@@@2@XZ
_TEXT	SEGMENT
__Parent_proxy$1 = -28					; size = 4
___param0$ = -24					; size = 4
$T2 = -20						; size = 4
$T3 = -16						; size = 4
$T4 = -12						; size = 4
$T5 = -8						; size = 4
_this$ = -4						; size = 4
___$ReturnUdt$ = 8					; size = 4
?begin@?$deque@USReservingMotionNode@CActorInstance@@V?$allocator@USReservingMotionNode@CActorInstance@@@std@@@std@@QAE?AV?$_Deque_iterator@V?$_Deque_val@U?$_Deque_simple_types@USReservingMotionNode@CActorInstance@@@std@@@std@@@2@XZ PROC ; std::deque<CActorInstance::SReservingMotionNode,std::allocator<CActorInstance::SReservingMotionNode> >::begin, COMDAT
; _this$ = ecx

; 897  :     _NODISCARD iterator begin() noexcept {

  00000	55		 push	 ebp
  00001	8b ec		 mov	 ebp, esp
  00003	83 ec 1c	 sub	 esp, 28			; 0000001cH
  00006	89 4d fc	 mov	 DWORD PTR _this$[ebp], ecx

; 1530 :         return _Mypair._Myval2;

  00009	8b 45 fc	 mov	 eax, DWORD PTR _this$[ebp]
  0000c	89 45 f4	 mov	 DWORD PTR $T4[ebp], eax
; File C:\Program Files (x86)\Microsoft Visual Studio\2019\Community\VC\Tools\MSVC\14.28.29333\include\xstddef

; 275  :     return __builtin_addressof(_Val);

  0000f	8b 45 f4	 mov	 eax, DWORD PTR $T4[ebp]
  00012	89 45 f8	 mov	 DWORD PTR $T5[ebp], eax
; File C:\Program Files (x86)\Microsoft Visual Studio\2019\Community\VC\Tools\MSVC\14.28.29333\include\deque

; 1530 :         return _Mypair._Myval2;

  00015	8b 45 fc	 mov	 eax, DWORD PTR _this$[ebp]
  00018	89 45 f0	 mov	 DWORD PTR $T3[ebp], eax

; 1554 :         return _Get_data()._Myoff;

  0001b	8b 45 f0	 mov	 eax, DWORD PTR $T3[ebp]
  0001e	83 c0 0c	 add	 eax, 12			; 0000000cH
  00021	89 45 ec	 mov	 DWORD PTR $T2[ebp], eax

; 898  :         return iterator(_Myoff(), _STD addressof(_Get_data()));

  00024	8b 45 ec	 mov	 eax, DWORD PTR $T2[ebp]
  00027	8b 00		 mov	 eax, DWORD PTR [eax]
  00029	89 45 e8	 mov	 DWORD PTR ___param0$[ebp], eax
; File C:\Program Files (x86)\Microsoft Visual Studio\2019\Community\VC\Tools\MSVC\14.28.29333\include\xmemory

; 1126 :     _Iterator_base12() noexcept : _Myproxy(nullptr), _Mynextiter(nullptr) {} // construct orphaned iterator

  0002c	8b 45 08	 mov	 eax, DWORD PTR ___$ReturnUdt$[ebp]
  0002f	83 20 00	 and	 DWORD PTR [eax], 0
  00032	8b 45 08	 mov	 eax, DWORD PTR ___$ReturnUdt$[ebp]
  00035	83 60 04 00	 and	 DWORD PTR [eax+4], 0
; File C:\Program Files (x86)\Microsoft Visual Studio\2019\Community\VC\Tools\MSVC\14.28.29333\include\deque

; 256  :     _Deque_const_iterator(_Size_type _Off, const _Container_base12* _Pdeque) noexcept : _Myoff(_Off) {

  00039	8b 45 08	 mov	 eax, DWORD PTR ___$ReturnUdt$[ebp]
  0003c	8b 4d e8	 mov	 ecx, DWORD PTR ___param0$[ebp]
  0003f	89 48 08	 mov	 DWORD PTR [eax+8], ecx
; File C:\Program Files (x86)\Microsoft Visual Studio\2019\Community\VC\Tools\MSVC\14.28.29333\include\xmemory

; 1157 :         if (_Parent) {

  00042	83 7d f8 00	 cmp	 DWORD PTR $T5[ebp], 0
  00046	74 12		 je	 SHORT $LN28@begin

; 1158 :             // have a parent, do adoption
; 1159 :             _Container_proxy* _Parent_proxy = _Parent->_Myproxy;

  00048	8b 45 f8	 mov	 eax, DWORD PTR $T5[ebp]
  0004b	8b 00		 mov	 eax, DWORD PTR [eax]
  0004d	89 45 e4	 mov	 DWORD PTR __Parent_proxy$1[ebp], eax

; 1160 : 
; 1161 : #if _ITERATOR_DEBUG_LEVEL == 2
; 1162 :             if (_Myproxy != _Parent_proxy) { // change parentage
; 1163 :                 _Lockit _Lock(_LOCK_DEBUG);
; 1164 :                 _Orphan_me();
; 1165 :                 _Mynextiter                 = _Parent_proxy->_Myfirstiter;
; 1166 :                 _Parent_proxy->_Myfirstiter = this;
; 1167 :                 _Myproxy                    = _Parent_proxy;
; 1168 :             }
; 1169 : 
; 1170 : #else // _ITERATOR_DEBUG_LEVEL == 2
; 1171 :             _Myproxy = _Parent_proxy;

  00050	8b 45 08	 mov	 eax, DWORD PTR ___$ReturnUdt$[ebp]
  00053	8b 4d e4	 mov	 ecx, DWORD PTR __Parent_proxy$1[ebp]
  00056	89 08		 mov	 DWORD PTR [eax], ecx

; 1172 : #endif // _ITERATOR_DEBUG_LEVEL == 2
; 1173 :         } else {

  00058	eb 06		 jmp	 SHORT $LN16@begin
$LN28@begin:

; 1174 :             // no future parent, just disown current parent
; 1175 : #if _ITERATOR_DEBUG_LEVEL == 2
; 1176 :             _Lockit _Lock(_LOCK_DEBUG);
; 1177 :             _Orphan_me();
; 1178 : #else // _ITERATOR_DEBUG_LEVEL == 2
; 1179 :             _Myproxy = nullptr;

  0005a	8b 45 08	 mov	 eax, DWORD PTR ___$ReturnUdt$[ebp]
  0005d	83 20 00	 and	 DWORD PTR [eax], 0
$LN16@begin:
; File C:\Program Files (x86)\Microsoft Visual Studio\2019\Community\VC\Tools\MSVC\14.28.29333\include\deque

; 898  :         return iterator(_Myoff(), _STD addressof(_Get_data()));

  00060	8b 45 08	 mov	 eax, DWORD PTR ___$ReturnUdt$[ebp]

; 899  :     }

  00063	c9		 leave
  00064	c2 04 00	 ret	 4
?begin@?$deque@USReservingMotionNode@CActorInstance@@V?$allocator@USReservingMotionNode@CActorInstance@@@std@@@std@@QAE?AV?$_Deque_iterator@V?$_Deque_val@U?$_Deque_simple_types@USReservingMotionNode@CActorInstance@@@std@@@std@@@2@XZ ENDP ; std::deque<CActorInstance::SReservingMotionNode,std::allocator<CActorInstance::SReservingMotionNode> >::begin
_TEXT	ENDS
; Function compile flags: /Odspy
; File D:\Metin2 Server Files\mainline\SRC_2014\Metin2Client\GameLib\ActorInstanceMotion.cpp
;	COMDAT ?__GetLoopCount@CActorInstance@@IAEHXZ
_TEXT	SEGMENT
_this$ = -4						; size = 4
?__GetLoopCount@CActorInstance@@IAEHXZ PROC		; CActorInstance::__GetLoopCount, COMDAT
; _this$ = ecx

; 782  : {

  00000	55		 push	 ebp
  00001	8b ec		 mov	 ebp, esp
  00003	51		 push	 ecx
  00004	89 4d fc	 mov	 DWORD PTR _this$[ebp], ecx

; 783  : 	if (!m_pkCurRaceMotionData)

  00007	8b 45 fc	 mov	 eax, DWORD PTR _this$[ebp]
  0000a	83 b8 58 03 00
	00 00		 cmp	 DWORD PTR [eax+856], 0
  00011	75 10		 jne	 SHORT $LN2@GetLoopCou

; 784  : 	{
; 785  : 		TraceError("CActorInstance::__GetLoopCount() - m_pkCurRaceMotionData==NULL");

  00013	68 00 00 00 00	 push	 OFFSET ??_C@_0DP@MJFILIBP@CActorInstance?3?3__GetLoopCount?$CI@
  00018	e8 00 00 00 00	 call	 ?TraceError@@YAXPBDZZ	; TraceError
  0001d	59		 pop	 ecx

; 786  : 		return -1;

  0001e	83 c8 ff	 or	 eax, -1
  00021	eb 0e		 jmp	 SHORT $LN1@GetLoopCou
$LN2@GetLoopCou:

; 787  : 	}
; 788  : 
; 789  : 	return m_pkCurRaceMotionData->GetLoopCount();

  00023	8b 45 fc	 mov	 eax, DWORD PTR _this$[ebp]
  00026	8b 88 58 03 00
	00		 mov	 ecx, DWORD PTR [eax+856]
  0002c	e8 00 00 00 00	 call	 ?GetLoopCount@CRaceMotionData@@QBEHXZ ; CRaceMotionData::GetLoopCount
$LN1@GetLoopCou:

; 790  : }

  00031	c9		 leave
  00032	c3		 ret	 0
?__GetLoopCount@CActorInstance@@IAEHXZ ENDP		; CActorInstance::__GetLoopCount
_TEXT	ENDS
; Function compile flags: /Odspy
; File D:\Metin2 Server Files\mainline\SRC_2014\Metin2Client\GameLib\ActorInstanceMotion.cpp
;	COMDAT ?__GetCurrentMotionKey@CActorInstance@@IAEKXZ
_TEXT	SEGMENT
_this$ = -4						; size = 4
?__GetCurrentMotionKey@CActorInstance@@IAEKXZ PROC	; CActorInstance::__GetCurrentMotionKey, COMDAT
; _this$ = ecx

; 429  : {

  00000	55		 push	 ebp
  00001	8b ec		 mov	 ebp, esp
  00003	51		 push	 ecx
  00004	89 4d fc	 mov	 DWORD PTR _this$[ebp], ecx

; 430  : 	return m_kCurMotNode.dwMotionKey;

  00007	8b 45 fc	 mov	 eax, DWORD PTR _this$[ebp]
  0000a	8b 80 48 02 00
	00		 mov	 eax, DWORD PTR [eax+584]

; 431  : }

  00010	c9		 leave
  00011	c3		 ret	 0
?__GetCurrentMotionKey@CActorInstance@@IAEKXZ ENDP	; CActorInstance::__GetCurrentMotionKey
_TEXT	ENDS
; Function compile flags: /Odspy
; File D:\Metin2 Server Files\mainline\SRC_2014\Metin2Client\GameLib\ActorInstanceMotion.cpp
;	COMDAT ?__GetCurrentMotionIndex@CActorInstance@@IAEGXZ
_TEXT	SEGMENT
_this$ = -4						; size = 4
?__GetCurrentMotionIndex@CActorInstance@@IAEGXZ PROC	; CActorInstance::__GetCurrentMotionIndex, COMDAT
; _this$ = ecx

; 424  : {

  00000	55		 push	 ebp
  00001	8b ec		 mov	 ebp, esp
  00003	51		 push	 ecx
  00004	89 4d fc	 mov	 DWORD PTR _this$[ebp], ecx

; 425  : 	return GET_MOTION_INDEX(m_kCurMotNode.dwMotionKey);

  00007	8b 45 fc	 mov	 eax, DWORD PTR _this$[ebp]
  0000a	8b 80 48 02 00
	00		 mov	 eax, DWORD PTR [eax+584]
  00010	c1 e8 08	 shr	 eax, 8
  00013	25 ff ff 00 00	 and	 eax, 65535		; 0000ffffH

; 426  : }

  00018	c9		 leave
  00019	c3		 ret	 0
?__GetCurrentMotionIndex@CActorInstance@@IAEGXZ ENDP	; CActorInstance::__GetCurrentMotionIndex
_TEXT	ENDS
; Function compile flags: /Odspy
; File D:\Metin2 Server Files\mainline\SRC_2014\Metin2Client\GameLib\ActorInstanceMotion.cpp
;	COMDAT ?__IsComboAttacking@CActorInstance@@IAE_NXZ
_TEXT	SEGMENT
_this$ = -4						; size = 4
?__IsComboAttacking@CActorInstance@@IAE_NXZ PROC	; CActorInstance::__IsComboAttacking, COMDAT
; _this$ = ecx

; 821  : {

  00000	55		 push	 ebp
  00001	8b ec		 mov	 ebp, esp
  00003	51		 push	 ecx
  00004	89 4d fc	 mov	 DWORD PTR _this$[ebp], ecx

; 822  : 	if (0 == m_dwcurComboIndex)

  00007	8b 45 fc	 mov	 eax, DWORD PTR _this$[ebp]
  0000a	83 b8 2c 03 00
	00 00		 cmp	 DWORD PTR [eax+812], 0
  00011	75 04		 jne	 SHORT $LN2@IsComboAtt

; 823  : 		return false;

  00013	32 c0		 xor	 al, al
  00015	eb 02		 jmp	 SHORT $LN1@IsComboAtt
$LN2@IsComboAtt:

; 824  : 
; 825  : 	return true;

  00017	b0 01		 mov	 al, 1
$LN1@IsComboAtt:

; 826  : }

  00019	c9		 leave
  0001a	c3		 ret	 0
?__IsComboAttacking@CActorInstance@@IAE_NXZ ENDP	; CActorInstance::__IsComboAttacking
_TEXT	ENDS
; Function compile flags: /Odspy
; File D:\Metin2 Server Files\mainline\SRC_2014\Metin2Client\GameLib\ActorInstanceMotion.cpp
;	COMDAT ?__CanNextComboAttack@CActorInstance@@IAE_NXZ
_TEXT	SEGMENT
_this$ = -4						; size = 4
?__CanNextComboAttack@CActorInstance@@IAE_NXZ PROC	; CActorInstance::__CanNextComboAttack, COMDAT
; _this$ = ecx

; 807  : {

  00000	55		 push	 ebp
  00001	8b ec		 mov	 ebp, esp
  00003	51		 push	 ecx
  00004	89 4d fc	 mov	 DWORD PTR _this$[ebp], ecx

; 808  : 	if (!m_pkCurRaceMotionData)

  00007	8b 45 fc	 mov	 eax, DWORD PTR _this$[ebp]
  0000a	83 b8 58 03 00
	00 00		 cmp	 DWORD PTR [eax+856], 0
  00011	75 0f		 jne	 SHORT $LN2@CanNextCom

; 809  : 	{
; 810  : 		TraceError("CActorInstance::__CanNextComboAttack() - m_pkCurRaceMotionData==NULL");

  00013	68 00 00 00 00	 push	 OFFSET ??_C@_0EF@EBECGAL@CActorInstance?3?3__CanNextComboA@
  00018	e8 00 00 00 00	 call	 ?TraceError@@YAXPBDZZ	; TraceError
  0001d	59		 pop	 ecx

; 811  : 		return false;

  0001e	32 c0		 xor	 al, al
  00020	eb 18		 jmp	 SHORT $LN1@CanNextCom
$LN2@CanNextCom:

; 812  : 	}
; 813  : 
; 814  : 	if (!m_pkCurRaceMotionData->IsComboInputTimeData())

  00022	8b 45 fc	 mov	 eax, DWORD PTR _this$[ebp]
  00025	8b 88 58 03 00
	00		 mov	 ecx, DWORD PTR [eax+856]
  0002b	e8 00 00 00 00	 call	 ?IsComboInputTimeData@CRaceMotionData@@QBEHXZ ; CRaceMotionData::IsComboInputTimeData
  00030	85 c0		 test	 eax, eax
  00032	75 04		 jne	 SHORT $LN3@CanNextCom

; 815  : 		return false;

  00034	32 c0		 xor	 al, al
  00036	eb 02		 jmp	 SHORT $LN1@CanNextCom
$LN3@CanNextCom:

; 816  : 
; 817  : 	return true;

  00038	b0 01		 mov	 al, 1
$LN1@CanNextCom:

; 818  : }

  0003a	c9		 leave
  0003b	c3		 ret	 0
?__CanNextComboAttack@CActorInstance@@IAE_NXZ ENDP	; CActorInstance::__CanNextComboAttack
_TEXT	ENDS
; Function compile flags: /Odspy
; File D:\Metin2 Server Files\mainline\SRC_2014\Metin2Client\GameLib\ActorInstanceMotion.cpp
;	COMDAT ?__CanAttack@CActorInstance@@IAE_NXZ
_TEXT	SEGMENT
_this$ = -4						; size = 4
?__CanAttack@CActorInstance@@IAE_NXZ PROC		; CActorInstance::__CanAttack, COMDAT
; _this$ = ecx

; 793  : {

  00000	55		 push	 ebp
  00001	8b ec		 mov	 ebp, esp
  00003	51		 push	 ecx
  00004	89 4d fc	 mov	 DWORD PTR _this$[ebp], ecx

; 794  : 	if (!m_pkCurRaceMotionData)

  00007	8b 45 fc	 mov	 eax, DWORD PTR _this$[ebp]
  0000a	83 b8 58 03 00
	00 00		 cmp	 DWORD PTR [eax+856], 0
  00011	75 0f		 jne	 SHORT $LN2@CanAttack

; 795  : 	{
; 796  : 		TraceError("CActorInstance::__CanAttack() - m_pkCurRaceMotionData==NULL");

  00013	68 00 00 00 00	 push	 OFFSET ??_C@_0DM@CHLCPNIC@CActorInstance?3?3__CanAttack?$CI?$CJ?5?9@
  00018	e8 00 00 00 00	 call	 ?TraceError@@YAXPBDZZ	; TraceError
  0001d	59		 pop	 ecx

; 797  : 		return false;

  0001e	32 c0		 xor	 al, al
  00020	eb 18		 jmp	 SHORT $LN1@CanAttack
$LN2@CanAttack:

; 798  : 	}
; 799  : 
; 800  : 	if (!m_pkCurRaceMotionData->isAttackingMotion())

  00022	8b 45 fc	 mov	 eax, DWORD PTR _this$[ebp]
  00025	8b 88 58 03 00
	00		 mov	 ecx, DWORD PTR [eax+856]
  0002b	e8 00 00 00 00	 call	 ?isAttackingMotion@CRaceMotionData@@QBEHXZ ; CRaceMotionData::isAttackingMotion
  00030	85 c0		 test	 eax, eax
  00032	75 04		 jne	 SHORT $LN3@CanAttack

; 801  : 		return false;

  00034	32 c0		 xor	 al, al
  00036	eb 02		 jmp	 SHORT $LN1@CanAttack
$LN3@CanAttack:

; 802  : 
; 803  : 	return true;

  00038	b0 01		 mov	 al, 1
$LN1@CanAttack:

; 804  : }

  0003a	c9		 leave
  0003b	c3		 ret	 0
?__CanAttack@CActorInstance@@IAE_NXZ ENDP		; CActorInstance::__CanAttack
_TEXT	ENDS
; Function compile flags: /Odspy
; File D:\Metin2 Server Files\mainline\SRC_2014\Metin2Client\GameLib\ActorInstanceMotion.cpp
;	COMDAT ?__IsStandUpMotion@CActorInstance@@IAE_NXZ
_TEXT	SEGMENT
_this$ = -8						; size = 4
tv67 = -4						; size = 4
?__IsStandUpMotion@CActorInstance@@IAE_NXZ PROC		; CActorInstance::__IsStandUpMotion, COMDAT
; _this$ = ecx

; 909  : {

  00000	55		 push	 ebp
  00001	8b ec		 mov	 ebp, esp
  00003	51		 push	 ecx
  00004	51		 push	 ecx
  00005	89 4d f8	 mov	 DWORD PTR _this$[ebp], ecx

; 910  : 	return (__GetMotionType()==CRaceMotionData::TYPE_STANDUP);

  00008	8b 4d f8	 mov	 ecx, DWORD PTR _this$[ebp]
  0000b	e8 00 00 00 00	 call	 ?__GetMotionType@CActorInstance@@IAEIXZ ; CActorInstance::__GetMotionType
  00010	83 f8 09	 cmp	 eax, 9
  00013	75 09		 jne	 SHORT $LN3@IsStandUpM
  00015	c7 45 fc 01 00
	00 00		 mov	 DWORD PTR tv67[ebp], 1
  0001c	eb 04		 jmp	 SHORT $LN4@IsStandUpM
$LN3@IsStandUpM:
  0001e	83 65 fc 00	 and	 DWORD PTR tv67[ebp], 0
$LN4@IsStandUpM:
  00022	8a 45 fc	 mov	 al, BYTE PTR tv67[ebp]

; 911  : }

  00025	c9		 leave
  00026	c3		 ret	 0
?__IsStandUpMotion@CActorInstance@@IAE_NXZ ENDP		; CActorInstance::__IsStandUpMotion
_TEXT	ENDS
; Function compile flags: /Odspy
; File D:\Metin2 Server Files\mainline\SRC_2014\Metin2Client\GameLib\ActorInstanceMotion.cpp
;	COMDAT ?__IsDieMotion@CActorInstance@@IAE_NXZ
_TEXT	SEGMENT
tv71 = -8						; size = 4
_this$ = -4						; size = 4
?__IsDieMotion@CActorInstance@@IAE_NXZ PROC		; CActorInstance::__IsDieMotion, COMDAT
; _this$ = ecx

; 901  : {

  00000	55		 push	 ebp
  00001	8b ec		 mov	 ebp, esp
  00003	51		 push	 ecx
  00004	51		 push	 ecx
  00005	89 4d fc	 mov	 DWORD PTR _this$[ebp], ecx

; 902  : 	if (__IsKnockDownMotion())

  00008	8b 4d fc	 mov	 ecx, DWORD PTR _this$[ebp]
  0000b	e8 00 00 00 00	 call	 ?__IsKnockDownMotion@CActorInstance@@IAE_NXZ ; CActorInstance::__IsKnockDownMotion
  00010	0f b6 c0	 movzx	 eax, al
  00013	85 c0		 test	 eax, eax
  00015	74 04		 je	 SHORT $LN2@IsDieMotio

; 903  : 		return true;

  00017	b0 01		 mov	 al, 1
  00019	eb 1d		 jmp	 SHORT $LN1@IsDieMotio
$LN2@IsDieMotio:

; 904  : 
; 905  : 	return (__GetMotionType()==CRaceMotionData::TYPE_DIE);

  0001b	8b 4d fc	 mov	 ecx, DWORD PTR _this$[ebp]
  0001e	e8 00 00 00 00	 call	 ?__GetMotionType@CActorInstance@@IAEIXZ ; CActorInstance::__GetMotionType
  00023	83 f8 07	 cmp	 eax, 7
  00026	75 09		 jne	 SHORT $LN4@IsDieMotio
  00028	c7 45 f8 01 00
	00 00		 mov	 DWORD PTR tv71[ebp], 1
  0002f	eb 04		 jmp	 SHORT $LN5@IsDieMotio
$LN4@IsDieMotio:
  00031	83 65 f8 00	 and	 DWORD PTR tv71[ebp], 0
$LN5@IsDieMotio:
  00035	8a 45 f8	 mov	 al, BYTE PTR tv71[ebp]
$LN1@IsDieMotio:

; 906  : }

  00038	c9		 leave
  00039	c3		 ret	 0
?__IsDieMotion@CActorInstance@@IAE_NXZ ENDP		; CActorInstance::__IsDieMotion
_TEXT	ENDS
; Function compile flags: /Odspy
; File D:\Metin2 Server Files\mainline\SRC_2014\Metin2Client\GameLib\ActorInstanceMotion.cpp
;	COMDAT ?__IsKnockDownMotion@CActorInstance@@IAE_NXZ
_TEXT	SEGMENT
_this$ = -8						; size = 4
tv67 = -4						; size = 4
?__IsKnockDownMotion@CActorInstance@@IAE_NXZ PROC	; CActorInstance::__IsKnockDownMotion, COMDAT
; _this$ = ecx

; 896  : {

  00000	55		 push	 ebp
  00001	8b ec		 mov	 ebp, esp
  00003	51		 push	 ecx
  00004	51		 push	 ecx
  00005	89 4d f8	 mov	 DWORD PTR _this$[ebp], ecx

; 897  : 	return (__GetMotionType()==CRaceMotionData::TYPE_KNOCKDOWN);

  00008	8b 4d f8	 mov	 ecx, DWORD PTR _this$[ebp]
  0000b	e8 00 00 00 00	 call	 ?__GetMotionType@CActorInstance@@IAEIXZ ; CActorInstance::__GetMotionType
  00010	83 f8 06	 cmp	 eax, 6
  00013	75 09		 jne	 SHORT $LN3@IsKnockDow
  00015	c7 45 fc 01 00
	00 00		 mov	 DWORD PTR tv67[ebp], 1
  0001c	eb 04		 jmp	 SHORT $LN4@IsKnockDow
$LN3@IsKnockDow:
  0001e	83 65 fc 00	 and	 DWORD PTR tv67[ebp], 0
$LN4@IsKnockDow:
  00022	8a 45 fc	 mov	 al, BYTE PTR tv67[ebp]

; 898  : }

  00025	c9		 leave
  00026	c3		 ret	 0
?__IsKnockDownMotion@CActorInstance@@IAE_NXZ ENDP	; CActorInstance::__IsKnockDownMotion
_TEXT	ENDS
; Function compile flags: /Odspy
; File D:\Metin2 Server Files\mainline\SRC_2014\Metin2Client\GameLib\ActorInstanceMotion.cpp
;	COMDAT ?__IsDamageMotion@CActorInstance@@IAE_NXZ
_TEXT	SEGMENT
_this$ = -8						; size = 4
tv67 = -4						; size = 4
?__IsDamageMotion@CActorInstance@@IAE_NXZ PROC		; CActorInstance::__IsDamageMotion, COMDAT
; _this$ = ecx

; 891  : {

  00000	55		 push	 ebp
  00001	8b ec		 mov	 ebp, esp
  00003	51		 push	 ecx
  00004	51		 push	 ecx
  00005	89 4d f8	 mov	 DWORD PTR _this$[ebp], ecx

; 892  : 	return (__GetMotionType()==CRaceMotionData::TYPE_DAMAGE);

  00008	8b 4d f8	 mov	 ecx, DWORD PTR _this$[ebp]
  0000b	e8 00 00 00 00	 call	 ?__GetMotionType@CActorInstance@@IAEIXZ ; CActorInstance::__GetMotionType
  00010	83 f8 05	 cmp	 eax, 5
  00013	75 09		 jne	 SHORT $LN3@IsDamageMo
  00015	c7 45 fc 01 00
	00 00		 mov	 DWORD PTR tv67[ebp], 1
  0001c	eb 04		 jmp	 SHORT $LN4@IsDamageMo
$LN3@IsDamageMo:
  0001e	83 65 fc 00	 and	 DWORD PTR tv67[ebp], 0
$LN4@IsDamageMo:
  00022	8a 45 fc	 mov	 al, BYTE PTR tv67[ebp]

; 893  : }

  00025	c9		 leave
  00026	c3		 ret	 0
?__IsDamageMotion@CActorInstance@@IAE_NXZ ENDP		; CActorInstance::__IsDamageMotion
_TEXT	ENDS
; Function compile flags: /Odspy
; File D:\Metin2 Server Files\mainline\SRC_2014\Metin2Client\GameLib\ActorInstanceMotion.cpp
;	COMDAT ?__IsComboAttackMotion@CActorInstance@@IAE_NXZ
_TEXT	SEGMENT
_this$ = -8						; size = 4
tv67 = -4						; size = 4
?__IsComboAttackMotion@CActorInstance@@IAE_NXZ PROC	; CActorInstance::__IsComboAttackMotion, COMDAT
; _this$ = ecx

; 885  : {

  00000	55		 push	 ebp
  00001	8b ec		 mov	 ebp, esp
  00003	51		 push	 ecx
  00004	51		 push	 ecx
  00005	89 4d f8	 mov	 DWORD PTR _this$[ebp], ecx

; 886  : 	return (__GetMotionType()==CRaceMotionData::TYPE_COMBO);

  00008	8b 4d f8	 mov	 ecx, DWORD PTR _this$[ebp]
  0000b	e8 00 00 00 00	 call	 ?__GetMotionType@CActorInstance@@IAEIXZ ; CActorInstance::__GetMotionType
  00010	83 f8 04	 cmp	 eax, 4
  00013	75 09		 jne	 SHORT $LN3@IsComboAtt
  00015	c7 45 fc 01 00
	00 00		 mov	 DWORD PTR tv67[ebp], 1
  0001c	eb 04		 jmp	 SHORT $LN4@IsComboAtt
$LN3@IsComboAtt:
  0001e	83 65 fc 00	 and	 DWORD PTR tv67[ebp], 0
$LN4@IsComboAtt:
  00022	8a 45 fc	 mov	 al, BYTE PTR tv67[ebp]

; 887  : }

  00025	c9		 leave
  00026	c3		 ret	 0
?__IsComboAttackMotion@CActorInstance@@IAE_NXZ ENDP	; CActorInstance::__IsComboAttackMotion
_TEXT	ENDS
; Function compile flags: /Odspy
; File D:\Metin2 Server Files\mainline\SRC_2014\Metin2Client\GameLib\ActorInstanceMotion.cpp
;	COMDAT ?__IsAttackMotion@CActorInstance@@IAE_NXZ
_TEXT	SEGMENT
_this$ = -8						; size = 4
tv67 = -4						; size = 4
?__IsAttackMotion@CActorInstance@@IAE_NXZ PROC		; CActorInstance::__IsAttackMotion, COMDAT
; _this$ = ecx

; 880  : {

  00000	55		 push	 ebp
  00001	8b ec		 mov	 ebp, esp
  00003	51		 push	 ecx
  00004	51		 push	 ecx
  00005	89 4d f8	 mov	 DWORD PTR _this$[ebp], ecx

; 881  : 	return (__GetMotionType()==CRaceMotionData::TYPE_ATTACK);	

  00008	8b 4d f8	 mov	 ecx, DWORD PTR _this$[ebp]
  0000b	e8 00 00 00 00	 call	 ?__GetMotionType@CActorInstance@@IAEIXZ ; CActorInstance::__GetMotionType
  00010	83 f8 03	 cmp	 eax, 3
  00013	75 09		 jne	 SHORT $LN3@IsAttackMo
  00015	c7 45 fc 01 00
	00 00		 mov	 DWORD PTR tv67[ebp], 1
  0001c	eb 04		 jmp	 SHORT $LN4@IsAttackMo
$LN3@IsAttackMo:
  0001e	83 65 fc 00	 and	 DWORD PTR tv67[ebp], 0
$LN4@IsAttackMo:
  00022	8a 45 fc	 mov	 al, BYTE PTR tv67[ebp]

; 882  : }

  00025	c9		 leave
  00026	c3		 ret	 0
?__IsAttackMotion@CActorInstance@@IAE_NXZ ENDP		; CActorInstance::__IsAttackMotion
_TEXT	ENDS
; Function compile flags: /Odspy
; File D:\Metin2 Server Files\mainline\SRC_2014\Metin2Client\GameLib\ActorInstanceMotion.cpp
;	COMDAT ?__IsMoveMotion@CActorInstance@@IAE_NXZ
_TEXT	SEGMENT
_this$ = -8						; size = 4
tv67 = -4						; size = 4
?__IsMoveMotion@CActorInstance@@IAE_NXZ PROC		; CActorInstance::__IsMoveMotion, COMDAT
; _this$ = ecx

; 875  : {

  00000	55		 push	 ebp
  00001	8b ec		 mov	 ebp, esp
  00003	51		 push	 ecx
  00004	51		 push	 ecx
  00005	89 4d f8	 mov	 DWORD PTR _this$[ebp], ecx

; 876  : 	return (__GetMotionType()==CRaceMotionData::TYPE_MOVE);

  00008	8b 4d f8	 mov	 ecx, DWORD PTR _this$[ebp]
  0000b	e8 00 00 00 00	 call	 ?__GetMotionType@CActorInstance@@IAEIXZ ; CActorInstance::__GetMotionType
  00010	83 f8 02	 cmp	 eax, 2
  00013	75 09		 jne	 SHORT $LN3@IsMoveMoti
  00015	c7 45 fc 01 00
	00 00		 mov	 DWORD PTR tv67[ebp], 1
  0001c	eb 04		 jmp	 SHORT $LN4@IsMoveMoti
$LN3@IsMoveMoti:
  0001e	83 65 fc 00	 and	 DWORD PTR tv67[ebp], 0
$LN4@IsMoveMoti:
  00022	8a 45 fc	 mov	 al, BYTE PTR tv67[ebp]

; 877  : }

  00025	c9		 leave
  00026	c3		 ret	 0
?__IsMoveMotion@CActorInstance@@IAE_NXZ ENDP		; CActorInstance::__IsMoveMotion
_TEXT	ENDS
; Function compile flags: /Odspy
; File D:\Metin2 Server Files\mainline\SRC_2014\Metin2Client\GameLib\ActorInstanceMotion.cpp
;	COMDAT ?__IsWaitMotion@CActorInstance@@IAE_NXZ
_TEXT	SEGMENT
_this$ = -8						; size = 4
tv67 = -4						; size = 4
?__IsWaitMotion@CActorInstance@@IAE_NXZ PROC		; CActorInstance::__IsWaitMotion, COMDAT
; _this$ = ecx

; 870  : {

  00000	55		 push	 ebp
  00001	8b ec		 mov	 ebp, esp
  00003	51		 push	 ecx
  00004	51		 push	 ecx
  00005	89 4d f8	 mov	 DWORD PTR _this$[ebp], ecx

; 871  : 	return (__GetMotionType()==CRaceMotionData::TYPE_WAIT);

  00008	8b 4d f8	 mov	 ecx, DWORD PTR _this$[ebp]
  0000b	e8 00 00 00 00	 call	 ?__GetMotionType@CActorInstance@@IAEIXZ ; CActorInstance::__GetMotionType
  00010	83 f8 01	 cmp	 eax, 1
  00013	75 09		 jne	 SHORT $LN3@IsWaitMoti
  00015	c7 45 fc 01 00
	00 00		 mov	 DWORD PTR tv67[ebp], 1
  0001c	eb 04		 jmp	 SHORT $LN4@IsWaitMoti
$LN3@IsWaitMoti:
  0001e	83 65 fc 00	 and	 DWORD PTR tv67[ebp], 0
$LN4@IsWaitMoti:
  00022	8a 45 fc	 mov	 al, BYTE PTR tv67[ebp]

; 872  : }

  00025	c9		 leave
  00026	c3		 ret	 0
?__IsWaitMotion@CActorInstance@@IAE_NXZ ENDP		; CActorInstance::__IsWaitMotion
_TEXT	ENDS
; Function compile flags: /Odspy
; File D:\Metin2 Server Files\mainline\SRC_2014\Metin2Client\GameLib\ActorInstanceMotion.cpp
;	COMDAT ?__HasMotionFlyEvent@CActorInstance@@IAE_NXZ
_TEXT	SEGMENT
_c_pData$1 = -12					; size = 4
_this$ = -8						; size = 4
_i$2 = -4						; size = 4
?__HasMotionFlyEvent@CActorInstance@@IAE_NXZ PROC	; CActorInstance::__HasMotionFlyEvent, COMDAT
; _this$ = ecx

; 853  : {

  00000	55		 push	 ebp
  00001	8b ec		 mov	 ebp, esp
  00003	83 ec 0c	 sub	 esp, 12			; 0000000cH
  00006	89 4d f8	 mov	 DWORD PTR _this$[ebp], ecx

; 854  : 	if (!m_pkCurRaceMotionData)

  00009	8b 45 f8	 mov	 eax, DWORD PTR _this$[ebp]
  0000c	83 b8 58 03 00
	00 00		 cmp	 DWORD PTR [eax+856], 0
  00013	75 04		 jne	 SHORT $LN5@HasMotionF

; 855  : 		return true;

  00015	b0 01		 mov	 al, 1
  00017	eb 4c		 jmp	 SHORT $LN1@HasMotionF
$LN5@HasMotionF:

; 856  : 
; 857  : 	for (DWORD i = 0; i < m_pkCurRaceMotionData->GetMotionEventDataCount(); ++i)

  00019	83 65 fc 00	 and	 DWORD PTR _i$2[ebp], 0
  0001d	eb 07		 jmp	 SHORT $LN4@HasMotionF
$LN2@HasMotionF:
  0001f	8b 45 fc	 mov	 eax, DWORD PTR _i$2[ebp]
  00022	40		 inc	 eax
  00023	89 45 fc	 mov	 DWORD PTR _i$2[ebp], eax
$LN4@HasMotionF:
  00026	8b 45 f8	 mov	 eax, DWORD PTR _this$[ebp]
  00029	8b 88 58 03 00
	00		 mov	 ecx, DWORD PTR [eax+856]
  0002f	e8 00 00 00 00	 call	 ?GetMotionEventDataCount@CRaceMotionData@@QBEKXZ ; CRaceMotionData::GetMotionEventDataCount
  00034	39 45 fc	 cmp	 DWORD PTR _i$2[ebp], eax
  00037	73 2a		 jae	 SHORT $LN3@HasMotionF

; 858  : 	{
; 859  : 		const CRaceMotionData::TMotionEventData * c_pData;
; 860  : 		if (!m_pkCurRaceMotionData->GetMotionEventDataPointer(i, &c_pData))

  00039	8d 45 f4	 lea	 eax, DWORD PTR _c_pData$1[ebp]
  0003c	50		 push	 eax
  0003d	ff 75 fc	 push	 DWORD PTR _i$2[ebp]
  00040	8b 45 f8	 mov	 eax, DWORD PTR _this$[ebp]
  00043	8b 88 58 03 00
	00		 mov	 ecx, DWORD PTR [eax+856]
  00049	e8 00 00 00 00	 call	 ?GetMotionEventDataPointer@CRaceMotionData@@QBEHEPAPBUSMotionEventData@NMotionEvent@@@Z ; CRaceMotionData::GetMotionEventDataPointer
  0004e	85 c0		 test	 eax, eax
  00050	75 02		 jne	 SHORT $LN6@HasMotionF

; 861  : 			continue;

  00052	eb cb		 jmp	 SHORT $LN2@HasMotionF
$LN6@HasMotionF:

; 862  : 
; 863  : 		if (c_pData->iType == CRaceMotionData::MOTION_EVENT_TYPE_FLY)

  00054	8b 45 f4	 mov	 eax, DWORD PTR _c_pData$1[ebp]
  00057	83 78 04 06	 cmp	 DWORD PTR [eax+4], 6
  0005b	75 04		 jne	 SHORT $LN7@HasMotionF

; 864  : 			return true;

  0005d	b0 01		 mov	 al, 1
  0005f	eb 04		 jmp	 SHORT $LN1@HasMotionF
$LN7@HasMotionF:

; 865  : 	}

  00061	eb bc		 jmp	 SHORT $LN2@HasMotionF
$LN3@HasMotionF:

; 866  : 	return false;

  00063	32 c0		 xor	 al, al
$LN1@HasMotionF:

; 867  : }

  00065	c9		 leave
  00066	c3		 ret	 0
?__HasMotionFlyEvent@CActorInstance@@IAE_NXZ ENDP	; CActorInstance::__HasMotionFlyEvent
_TEXT	ENDS
; Function compile flags: /Odspy
; File D:\Metin2 Server Files\mainline\SRC_2014\Metin2Client\GameLib\ActorInstanceMotion.cpp
;	COMDAT ?__IsNeedFlyTargetMotion@CActorInstance@@IAE_NXZ
_TEXT	SEGMENT
_c_pData$1 = -12					; size = 4
_this$ = -8						; size = 4
_i$2 = -4						; size = 4
?__IsNeedFlyTargetMotion@CActorInstance@@IAE_NXZ PROC	; CActorInstance::__IsNeedFlyTargetMotion, COMDAT
; _this$ = ecx

; 829  : {

  00000	55		 push	 ebp
  00001	8b ec		 mov	 ebp, esp
  00003	83 ec 0c	 sub	 esp, 12			; 0000000cH
  00006	89 4d f8	 mov	 DWORD PTR _this$[ebp], ecx

; 830  : 	if (!m_pkCurRaceMotionData)

  00009	8b 45 f8	 mov	 eax, DWORD PTR _this$[ebp]
  0000c	83 b8 58 03 00
	00 00		 cmp	 DWORD PTR [eax+856], 0
  00013	75 04		 jne	 SHORT $LN5@IsNeedFlyT

; 831  : 		return true;

  00015	b0 01		 mov	 al, 1
  00017	eb 66		 jmp	 SHORT $LN1@IsNeedFlyT
$LN5@IsNeedFlyT:

; 832  : 
; 833  : 	for (DWORD i = 0; i < m_pkCurRaceMotionData->GetMotionEventDataCount(); ++i)

  00019	83 65 fc 00	 and	 DWORD PTR _i$2[ebp], 0
  0001d	eb 07		 jmp	 SHORT $LN4@IsNeedFlyT
$LN2@IsNeedFlyT:
  0001f	8b 45 fc	 mov	 eax, DWORD PTR _i$2[ebp]
  00022	40		 inc	 eax
  00023	89 45 fc	 mov	 DWORD PTR _i$2[ebp], eax
$LN4@IsNeedFlyT:
  00026	8b 45 f8	 mov	 eax, DWORD PTR _this$[ebp]
  00029	8b 88 58 03 00
	00		 mov	 ecx, DWORD PTR [eax+856]
  0002f	e8 00 00 00 00	 call	 ?GetMotionEventDataCount@CRaceMotionData@@QBEKXZ ; CRaceMotionData::GetMotionEventDataCount
  00034	39 45 fc	 cmp	 DWORD PTR _i$2[ebp], eax
  00037	73 44		 jae	 SHORT $LN3@IsNeedFlyT

; 834  : 	{
; 835  : 		const CRaceMotionData::TMotionEventData * c_pData;
; 836  : 		if (!m_pkCurRaceMotionData->GetMotionEventDataPointer(i, &c_pData))

  00039	8d 45 f4	 lea	 eax, DWORD PTR _c_pData$1[ebp]
  0003c	50		 push	 eax
  0003d	ff 75 fc	 push	 DWORD PTR _i$2[ebp]
  00040	8b 45 f8	 mov	 eax, DWORD PTR _this$[ebp]
  00043	8b 88 58 03 00
	00		 mov	 ecx, DWORD PTR [eax+856]
  00049	e8 00 00 00 00	 call	 ?GetMotionEventDataPointer@CRaceMotionData@@QBEHEPAPBUSMotionEventData@NMotionEvent@@@Z ; CRaceMotionData::GetMotionEventDataPointer
  0004e	85 c0		 test	 eax, eax
  00050	75 02		 jne	 SHORT $LN6@IsNeedFlyT

; 837  : 			continue;

  00052	eb cb		 jmp	 SHORT $LN2@IsNeedFlyT
$LN6@IsNeedFlyT:

; 838  : 
; 839  : 		if (c_pData->iType == CRaceMotionData::MOTION_EVENT_TYPE_WARP)

  00054	8b 45 f4	 mov	 eax, DWORD PTR _c_pData$1[ebp]
  00057	83 78 04 09	 cmp	 DWORD PTR [eax+4], 9
  0005b	75 04		 jne	 SHORT $LN7@IsNeedFlyT

; 840  : 			return true;

  0005d	b0 01		 mov	 al, 1
  0005f	eb 1e		 jmp	 SHORT $LN1@IsNeedFlyT
$LN7@IsNeedFlyT:

; 841  : 
; 842  : 		if (c_pData->iType == CRaceMotionData::MOTION_EVENT_TYPE_FLY)

  00061	8b 45 f4	 mov	 eax, DWORD PTR _c_pData$1[ebp]
  00064	83 78 04 06	 cmp	 DWORD PTR [eax+4], 6
  00068	75 04		 jne	 SHORT $LN8@IsNeedFlyT

; 843  : 			return true;

  0006a	b0 01		 mov	 al, 1
  0006c	eb 11		 jmp	 SHORT $LN1@IsNeedFlyT
$LN8@IsNeedFlyT:

; 844  : 
; 845  : 		if (c_pData->iType == CRaceMotionData::MOTION_EVENT_TYPE_EFFECT_TO_TARGET)

  0006e	8b 45 f4	 mov	 eax, DWORD PTR _c_pData$1[ebp]
  00071	83 78 04 0a	 cmp	 DWORD PTR [eax+4], 10	; 0000000aH
  00075	75 04		 jne	 SHORT $LN9@IsNeedFlyT

; 846  : 			return true;

  00077	b0 01		 mov	 al, 1
  00079	eb 04		 jmp	 SHORT $LN1@IsNeedFlyT
$LN9@IsNeedFlyT:

; 847  : 	}

  0007b	eb a2		 jmp	 SHORT $LN2@IsNeedFlyT
$LN3@IsNeedFlyT:

; 848  : 
; 849  : 	return false;

  0007d	32 c0		 xor	 al, al
$LN1@IsNeedFlyT:

; 850  : }

  0007f	c9		 leave
  00080	c3		 ret	 0
?__IsNeedFlyTargetMotion@CActorInstance@@IAE_NXZ ENDP	; CActorInstance::__IsNeedFlyTargetMotion
_TEXT	ENDS
; Function compile flags: /Odspy
; File D:\Metin2 Server Files\mainline\SRC_2014\Metin2Client\GameLib\ActorInstanceMotion.cpp
;	COMDAT ?__GetMotionType@CActorInstance@@IAEIXZ
_TEXT	SEGMENT
_this$ = -4						; size = 4
?__GetMotionType@CActorInstance@@IAEIXZ PROC		; CActorInstance::__GetMotionType, COMDAT
; _this$ = ecx

; 7    : {

  00000	55		 push	 ebp
  00001	8b ec		 mov	 ebp, esp
  00003	51		 push	 ecx
  00004	89 4d fc	 mov	 DWORD PTR _this$[ebp], ecx

; 8    : 	if (!m_pkCurRaceMotionData)

  00007	8b 45 fc	 mov	 eax, DWORD PTR _this$[ebp]
  0000a	83 b8 58 03 00
	00 00		 cmp	 DWORD PTR [eax+856], 0
  00011	75 04		 jne	 SHORT $LN2@GetMotionT

; 9    : 		return CRaceMotionData::TYPE_NONE;

  00013	33 c0		 xor	 eax, eax
  00015	eb 0e		 jmp	 SHORT $LN1@GetMotionT
$LN2@GetMotionT:

; 10   : 	
; 11   : 	return m_pkCurRaceMotionData->GetType();

  00017	8b 45 fc	 mov	 eax, DWORD PTR _this$[ebp]
  0001a	8b 88 58 03 00
	00		 mov	 ecx, DWORD PTR [eax+856]
  00020	e8 00 00 00 00	 call	 ?GetType@CRaceMotionData@@QBEIXZ ; CRaceMotionData::GetType
$LN1@GetMotionT:

; 12   : }

  00025	c9		 leave
  00026	c3		 ret	 0
?__GetMotionType@CActorInstance@@IAEIXZ ENDP		; CActorInstance::__GetMotionType
_TEXT	ENDS
; Function compile flags: /Odspy
; File D:\Metin2 Server Files\mainline\SRC_2014\Metin2Client\GameLib\ActorInstanceMotion.cpp
;	COMDAT ?__BindMotionData@CActorInstance@@IAE_NK@Z
_TEXT	SEGMENT
_this$ = -4						; size = 4
_dwMotionKey$ = 8					; size = 4
?__BindMotionData@CActorInstance@@IAE_NK@Z PROC		; CActorInstance::__BindMotionData, COMDAT
; _this$ = ecx

; 769  : {

  00000	55		 push	 ebp
  00001	8b ec		 mov	 ebp, esp
  00003	51		 push	 ecx
  00004	89 4d fc	 mov	 DWORD PTR _this$[ebp], ecx

; 770  : 	if (!m_pkCurRaceData->GetMotionDataPointer(dwMotionKey, &m_pkCurRaceMotionData))

  00007	8b 45 fc	 mov	 eax, DWORD PTR _this$[ebp]
  0000a	05 58 03 00 00	 add	 eax, 856		; 00000358H
  0000f	50		 push	 eax
  00010	ff 75 08	 push	 DWORD PTR _dwMotionKey$[ebp]
  00013	8b 45 fc	 mov	 eax, DWORD PTR _this$[ebp]
  00016	8b 88 54 03 00
	00		 mov	 ecx, DWORD PTR [eax+852]
  0001c	e8 00 00 00 00	 call	 ?GetMotionDataPointer@CRaceData@@QAEHKPAPAVCRaceMotionData@@@Z ; CRaceData::GetMotionDataPointer
  00021	85 c0		 test	 eax, eax
  00023	75 23		 jne	 SHORT $LN2@BindMotion

; 771  : 	{
; 772  : 		Tracen("Failed to bind motion.");

  00025	68 00 00 00 00	 push	 OFFSET ??_C@_0BH@MJFHAINF@Failed?5to?5bind?5motion?4@
  0002a	e8 00 00 00 00	 call	 ?Tracen@@YAXPBD@Z	; Tracen
  0002f	59		 pop	 ecx

; 773  : 		m_pkCurRaceMotionData=NULL;

  00030	8b 45 fc	 mov	 eax, DWORD PTR _this$[ebp]
  00033	83 a0 58 03 00
	00 00		 and	 DWORD PTR [eax+856], 0

; 774  : 		m_dwcurComboIndex=0;

  0003a	8b 45 fc	 mov	 eax, DWORD PTR _this$[ebp]
  0003d	83 a0 2c 03 00
	00 00		 and	 DWORD PTR [eax+812], 0

; 775  : 		return false;

  00044	32 c0		 xor	 al, al
  00046	eb 02		 jmp	 SHORT $LN1@BindMotion
$LN2@BindMotion:

; 776  : 	}
; 777  : 
; 778  : 	return true;

  00048	b0 01		 mov	 al, 1
$LN1@BindMotion:

; 779  : }

  0004a	c9		 leave
  0004b	c2 04 00	 ret	 4
?__BindMotionData@CActorInstance@@IAE_NK@Z ENDP		; CActorInstance::__BindMotionData
_TEXT	ENDS
; Function compile flags: /Odspy
; File D:\Metin2 Server Files\mainline\SRC_2014\Metin2Client\GameLib\ActorInstanceMotion.cpp
; File C:\Program Files (x86)\Microsoft Visual Studio\2019\Community\VC\Tools\MSVC\14.28.29333\include\deque
; File D:\Metin2 Server Files\mainline\SRC_2014\Metin2Client\GameLib\ActorInstanceMotion.cpp
;	COMDAT ?__ClearMotion@CActorInstance@@IAEXXZ
_TEXT	SEGMENT
_this$ = -4						; size = 4
?__ClearMotion@CActorInstance@@IAEXXZ PROC		; CActorInstance::__ClearMotion, COMDAT
; _this$ = ecx

; 628  : {

  00000	55		 push	 ebp
  00001	8b ec		 mov	 ebp, esp
  00003	51		 push	 ecx
  00004	89 4d fc	 mov	 DWORD PTR _this$[ebp], ecx

; 629  : 	__HideWeaponTrace();

  00007	8b 4d fc	 mov	 ecx, DWORD PTR _this$[ebp]
  0000a	e8 00 00 00 00	 call	 ?__HideWeaponTrace@CActorInstance@@IAEXXZ ; CActorInstance::__HideWeaponTrace

; 630  : 
; 631  : 	m_MotionDeque.clear();

  0000f	8b 4d fc	 mov	 ecx, DWORD PTR _this$[ebp]
  00012	81 c1 30 02 00
	00		 add	 ecx, 560		; 00000230H
; File C:\Program Files (x86)\Microsoft Visual Studio\2019\Community\VC\Tools\MSVC\14.28.29333\include\deque

; 1330 :         _Tidy();

  00018	e8 00 00 00 00	 call	 ?_Tidy@?$deque@USReservingMotionNode@CActorInstance@@V?$allocator@USReservingMotionNode@CActorInstance@@@std@@@std@@AAEXXZ ; std::deque<CActorInstance::SReservingMotionNode,std::allocator<CActorInstance::SReservingMotionNode> >::_Tidy
; File D:\Metin2 Server Files\mainline\SRC_2014\Metin2Client\GameLib\ActorInstanceMotion.cpp

; 632  : 	m_kCurMotNode.dwcurFrame=0;

  0001d	8b 45 fc	 mov	 eax, DWORD PTR _this$[ebp]
  00020	83 a0 4c 02 00
	00 00		 and	 DWORD PTR [eax+588], 0

; 633  : 	m_kCurMotNode.dwFrameCount=0;

  00027	8b 45 fc	 mov	 eax, DWORD PTR _this$[ebp]
  0002a	83 a0 50 02 00
	00 00		 and	 DWORD PTR [eax+592], 0

; 634  : 	m_kCurMotNode.uSkill=0;

  00031	8b 45 fc	 mov	 eax, DWORD PTR _this$[ebp]
  00034	83 a0 64 02 00
	00 00		 and	 DWORD PTR [eax+612], 0

; 635  : 	m_kCurMotNode.iLoopCount=0;

  0003b	8b 45 fc	 mov	 eax, DWORD PTR _this$[ebp]
  0003e	83 a0 60 02 00
	00 00		 and	 DWORD PTR [eax+608], 0

; 636  : 	m_kCurMotNode.iMotionType=MOTION_TYPE_NONE;

  00045	8b 45 fc	 mov	 eax, DWORD PTR _this$[ebp]
  00048	83 a0 44 02 00
	00 00		 and	 DWORD PTR [eax+580], 0

; 637  : }

  0004f	c9		 leave
  00050	c3		 ret	 0
?__ClearMotion@CActorInstance@@IAEXXZ ENDP		; CActorInstance::__ClearMotion
_TEXT	ENDS
; Function compile flags: /Odspy
; File D:\Metin2 Server Files\mainline\SRC_2014\Metin2Client\GameLib\ActorInstanceMotion.cpp
;	COMDAT ?__SetMotion@CActorInstance@@IAEKABUSSetMotionData@1@K@Z
_TEXT	SEGMENT
_iLoopCount$1 = -36					; size = 4
tv410 = -32						; size = 4
_rkEftMgr$2 = -28					; size = 4
_dwChildMotKey$3 = -24					; size = 4
_dwMotKey$ = -20					; size = 4
_uNextMot$ = -16					; size = 4
_this$ = -12						; size = 4
_wMotionSubIndex$4 = -8					; size = 2
_wMotionIndex$5 = -4					; size = 2
_c_rkSetMotData$ = 8					; size = 4
_dwRandMotKey$ = 12					; size = 4
?__SetMotion@CActorInstance@@IAEKABUSSetMotionData@1@K@Z PROC ; CActorInstance::__SetMotion, COMDAT
; _this$ = ecx

; 641  : {

  00000	55		 push	 ebp
  00001	8b ec		 mov	 ebp, esp
  00003	83 ec 24	 sub	 esp, 36			; 00000024H
  00006	89 4d f4	 mov	 DWORD PTR _this$[ebp], ecx

; 642  : 	DWORD dwMotKey = dwRandMotKey;

  00009	8b 45 0c	 mov	 eax, DWORD PTR _dwRandMotKey$[ebp]
  0000c	89 45 ec	 mov	 DWORD PTR _dwMotKey$[ebp], eax

; 643  : 
; 644  : 	if (dwMotKey == 0)

  0000f	83 7d ec 00	 cmp	 DWORD PTR _dwMotKey$[ebp], 0
  00013	75 10		 jne	 SHORT $LN2@SetMotion

; 645  : 		dwMotKey = GetRandomMotionKey(c_rkSetMotData.dwMotKey);

  00015	8b 45 08	 mov	 eax, DWORD PTR _c_rkSetMotData$[ebp]
  00018	ff 30		 push	 DWORD PTR [eax]
  0001a	8b 4d f4	 mov	 ecx, DWORD PTR _this$[ebp]
  0001d	e8 00 00 00 00	 call	 ?GetRandomMotionKey@CActorInstance@@IAEKK@Z ; CActorInstance::GetRandomMotionKey
  00022	89 45 ec	 mov	 DWORD PTR _dwMotKey$[ebp], eax
$LN2@SetMotion:

; 646  : 
; 647  : 	UINT uNextMot = GET_MOTION_INDEX(c_rkSetMotData.dwMotKey);

  00025	8b 45 08	 mov	 eax, DWORD PTR _c_rkSetMotData$[ebp]
  00028	8b 00		 mov	 eax, DWORD PTR [eax]
  0002a	c1 e8 08	 shr	 eax, 8
  0002d	25 ff ff 00 00	 and	 eax, 65535		; 0000ffffH
  00032	0f b7 c0	 movzx	 eax, ax
  00035	89 45 f0	 mov	 DWORD PTR _uNextMot$[ebp], eax

; 648  : 
; 649  : 	if (IsDead())

  00038	8b 4d f4	 mov	 ecx, DWORD PTR _this$[ebp]
  0003b	e8 00 00 00 00	 call	 ?IsDead@CActorInstance@@QAEHXZ ; CActorInstance::IsDead
  00040	85 c0		 test	 eax, eax
  00042	74 1f		 je	 SHORT $LN4@SetMotion

; 650  : 	{
; 651  : 		if (uNextMot!=CRaceMotionData::NAME_DAMAGE_FLYING && uNextMot!=CRaceMotionData::NAME_DAMAGE_FLYING_BACK && uNextMot!=CRaceMotionData::NAME_DEAD && uNextMot!=CRaceMotionData::NAME_DEAD_BACK)

  00044	83 7d f0 06	 cmp	 DWORD PTR _uNextMot$[ebp], 6
  00048	74 19		 je	 SHORT $LN4@SetMotion
  0004a	83 7d f0 09	 cmp	 DWORD PTR _uNextMot$[ebp], 9
  0004e	74 13		 je	 SHORT $LN4@SetMotion
  00050	83 7d f0 0b	 cmp	 DWORD PTR _uNextMot$[ebp], 11 ; 0000000bH
  00054	74 0d		 je	 SHORT $LN4@SetMotion
  00056	83 7d f0 0c	 cmp	 DWORD PTR _uNextMot$[ebp], 12 ; 0000000cH
  0005a	74 07		 je	 SHORT $LN4@SetMotion

; 652  : 			return 0;

  0005c	33 c0		 xor	 eax, eax
  0005e	e9 34 03 00 00	 jmp	 $LN1@SetMotion
$LN4@SetMotion:

; 653  : 	}
; 654  : 	if (IsUsingSkill())

  00063	8b 4d f4	 mov	 ecx, DWORD PTR _this$[ebp]
  00066	e8 00 00 00 00	 call	 ?IsUsingSkill@CActorInstance@@QAEHXZ ; CActorInstance::IsUsingSkill
  0006b	85 c0		 test	 eax, eax
  0006d	74 08		 je	 SHORT $LN5@SetMotion

; 655  : 	{
; 656  : 		__OnStop();

  0006f	8b 4d f4	 mov	 ecx, DWORD PTR _this$[ebp]
  00072	e8 00 00 00 00	 call	 ?__OnStop@CActorInstance@@QAEXXZ ; CActorInstance::__OnStop
$LN5@SetMotion:

; 657  : 	}
; 658  : 
; 659  : 	if (__IsStandUpMotion())

  00077	8b 4d f4	 mov	 ecx, DWORD PTR _this$[ebp]
  0007a	e8 00 00 00 00	 call	 ?__IsStandUpMotion@CActorInstance@@IAE_NXZ ; CActorInstance::__IsStandUpMotion
  0007f	0f b6 c0	 movzx	 eax, al
  00082	85 c0		 test	 eax, eax
  00084	74 08		 je	 SHORT $LN6@SetMotion

; 660  : 	{
; 661  : 		__OnStop();

  00086	8b 4d f4	 mov	 ecx, DWORD PTR _this$[ebp]
  00089	e8 00 00 00 00	 call	 ?__OnStop@CActorInstance@@QAEXXZ ; CActorInstance::__OnStop
$LN6@SetMotion:

; 662  : 	}
; 663  : 
; 664  : 
; 665  : 	if (__IsMoveMotion())

  0008e	8b 4d f4	 mov	 ecx, DWORD PTR _this$[ebp]
  00091	e8 00 00 00 00	 call	 ?__IsMoveMotion@CActorInstance@@IAE_NXZ ; CActorInstance::__IsMoveMotion
  00096	0f b6 c0	 movzx	 eax, al
  00099	85 c0		 test	 eax, eax
  0009b	74 63		 je	 SHORT $LN7@SetMotion

; 666  : 	{
; 667  : 		if (uNextMot==CRaceMotionData::NAME_DAMAGE || uNextMot==CRaceMotionData::NAME_DAMAGE_BACK || uNextMot==CRaceMotionData::NAME_DAMAGE_FLYING || uNextMot==CRaceMotionData::NAME_DAMAGE_FLYING_BACK)

  0009d	83 7d f0 05	 cmp	 DWORD PTR _uNextMot$[ebp], 5
  000a1	74 12		 je	 SHORT $LN10@SetMotion
  000a3	83 7d f0 08	 cmp	 DWORD PTR _uNextMot$[ebp], 8
  000a7	74 0c		 je	 SHORT $LN10@SetMotion
  000a9	83 7d f0 06	 cmp	 DWORD PTR _uNextMot$[ebp], 6
  000ad	74 06		 je	 SHORT $LN10@SetMotion
  000af	83 7d f0 09	 cmp	 DWORD PTR _uNextMot$[ebp], 9
  000b3	75 21		 jne	 SHORT $LN11@SetMotion
$LN10@SetMotion:

; 668  : 		{
; 669  : 			if (!m_isMain)

  000b5	8b 45 f4	 mov	 eax, DWORD PTR _this$[ebp]
  000b8	83 b8 80 03 00
	00 00		 cmp	 DWORD PTR [eax+896], 0
  000bf	75 15		 jne	 SHORT $LN11@SetMotion

; 670  : 			{
; 671  : 				Logn(0, "      ");

  000c1	68 00 00 00 00	 push	 OFFSET ??_C@_0DH@FBKOGHDC@?A?V?$MA?N?$LA?x?$MA?L?5?$LO?F?$LE?O?$LG?s?$LI?i?5?$MA?L?$LF?$LP?A?$NP?$MA?L?$LG?s?5?$LF?$KF@
  000c6	6a 00		 push	 0
  000c8	e8 00 00 00 00	 call	 ?Logn@@YAXIPBD@Z	; Logn
  000cd	59		 pop	 ecx
  000ce	59		 pop	 ecx

; 672  : 				return false;

  000cf	33 c0		 xor	 eax, eax
  000d1	e9 c1 02 00 00	 jmp	 $LN1@SetMotion
$LN11@SetMotion:

; 673  : 			}
; 674  : 		}
; 675  : 
; 676  : 		if (uNextMot!=CRaceMotionData::NAME_RUN &&
; 677  : 			uNextMot!=CRaceMotionData::NAME_WALK &&

  000d6	83 7d f0 03	 cmp	 DWORD PTR _uNextMot$[ebp], 3
  000da	74 22		 je	 SHORT $LN12@SetMotion
  000dc	83 7d f0 02	 cmp	 DWORD PTR _uNextMot$[ebp], 2
  000e0	74 1c		 je	 SHORT $LN12@SetMotion
  000e2	8b 45 08	 mov	 eax, DWORD PTR _c_rkSetMotData$[ebp]
  000e5	0f b7 40 10	 movzx	 eax, WORD PTR [eax+16]
  000e9	50		 push	 eax
  000ea	8b 4d f4	 mov	 ecx, DWORD PTR _this$[ebp]
  000ed	e8 00 00 00 00	 call	 ?__IsMovingSkill@CActorInstance@@IAEHG@Z ; CActorInstance::__IsMovingSkill
  000f2	85 c0		 test	 eax, eax
  000f4	75 08		 jne	 SHORT $LN12@SetMotion

; 678  : 			!__IsMovingSkill(c_rkSetMotData.uSkill))
; 679  : 		{
; 680  : 			__OnStop();

  000f6	8b 4d f4	 mov	 ecx, DWORD PTR _this$[ebp]
  000f9	e8 00 00 00 00	 call	 ?__OnStop@CActorInstance@@QAEXXZ ; CActorInstance::__OnStop
$LN12@SetMotion:

; 681  : 		}
; 682  : 	}

  000fe	eb 22		 jmp	 SHORT $LN13@SetMotion
$LN7@SetMotion:

; 683  : 	else
; 684  : 	{
; 685  : 		if (uNextMot==CRaceMotionData::NAME_RUN || __IsMovingSkill(c_rkSetMotData.uSkill))

  00100	83 7d f0 03	 cmp	 DWORD PTR _uNextMot$[ebp], 3
  00104	74 14		 je	 SHORT $LN14@SetMotion
  00106	8b 45 08	 mov	 eax, DWORD PTR _c_rkSetMotData$[ebp]
  00109	0f b7 40 10	 movzx	 eax, WORD PTR [eax+16]
  0010d	50		 push	 eax
  0010e	8b 4d f4	 mov	 ecx, DWORD PTR _this$[ebp]
  00111	e8 00 00 00 00	 call	 ?__IsMovingSkill@CActorInstance@@IAEHG@Z ; CActorInstance::__IsMovingSkill
  00116	85 c0		 test	 eax, eax
  00118	74 08		 je	 SHORT $LN13@SetMotion
$LN14@SetMotion:

; 686  : 		{
; 687  : 			__OnMove();

  0011a	8b 4d f4	 mov	 ecx, DWORD PTR _this$[ebp]
  0011d	e8 00 00 00 00	 call	 ?__OnMove@CActorInstance@@QAEXXZ ; CActorInstance::__OnMove
$LN13@SetMotion:

; 688  : 		}
; 689  : 	}
; 690  : 
; 691  : 
; 692  : 	// NOTE :        - [levites]
; 693  : 	if (__IsHiding())

  00122	8b 4d f4	 mov	 ecx, DWORD PTR _this$[ebp]
  00125	e8 00 00 00 00	 call	 ?__IsHiding@CActorInstance@@IAEHXZ ; CActorInstance::__IsHiding
  0012a	85 c0		 test	 eax, eax
  0012c	74 08		 je	 SHORT $LN15@SetMotion

; 694  : 	{
; 695  : 		__ShowEvent();

  0012e	8b 4d f4	 mov	 ecx, DWORD PTR _this$[ebp]
  00131	e8 00 00 00 00	 call	 ?__ShowEvent@CActorInstance@@IAEXXZ ; CActorInstance::__ShowEvent
$LN15@SetMotion:

; 696  : 	}
; 697  : 
; 698  : 
; 699  : 	if (-1 != m_iFishingEffectID)

  00136	8b 45 f4	 mov	 eax, DWORD PTR _this$[ebp]
  00139	83 b8 98 03 00
	00 ff		 cmp	 DWORD PTR [eax+920], -1
  00140	74 23		 je	 SHORT $LN16@SetMotion

; 700  : 	{
; 701  : 		CEffectManager& rkEftMgr=CEffectManager::Instance();

  00142	a1 00 00 00 00	 mov	 eax, DWORD PTR ?ms_singleton@?$CSingleton@VCEffectManager@@@@0PAVCEffectManager@@A ; CSingleton<CEffectManager>::ms_singleton
  00147	89 45 e4	 mov	 DWORD PTR _rkEftMgr$2[ebp], eax

; 702  :  		rkEftMgr.DeactiveEffectInstance(m_iFishingEffectID);

  0014a	8b 45 f4	 mov	 eax, DWORD PTR _this$[ebp]
  0014d	ff b0 98 03 00
	00		 push	 DWORD PTR [eax+920]
  00153	8b 4d e4	 mov	 ecx, DWORD PTR _rkEftMgr$2[ebp]
  00156	e8 00 00 00 00	 call	 ?DeactiveEffectInstance@CEffectManager@@QAEXK@Z ; CEffectManager::DeactiveEffectInstance

; 703  : 
; 704  : 		m_iFishingEffectID = -1;

  0015b	8b 45 f4	 mov	 eax, DWORD PTR _this$[ebp]
  0015e	83 88 98 03 00
	00 ff		 or	 DWORD PTR [eax+920], -1
$LN16@SetMotion:

; 705  : 	}
; 706  : 
; 707  : 	if (m_pkHorse)

  00165	8b 45 f4	 mov	 eax, DWORD PTR _this$[ebp]
  00168	83 b8 80 04 00
	00 00		 cmp	 DWORD PTR [eax+1152], 0
  0016f	0f 84 75 01 00
	00		 je	 $LN17@SetMotion

; 708  : 	{
; 709  : 		WORD wMotionIndex = GET_MOTION_INDEX(dwMotKey);

  00175	8b 45 ec	 mov	 eax, DWORD PTR _dwMotKey$[ebp]
  00178	c1 e8 08	 shr	 eax, 8
  0017b	25 ff ff 00 00	 and	 eax, 65535		; 0000ffffH
  00180	66 89 45 fc	 mov	 WORD PTR _wMotionIndex$5[ebp], ax

; 710  : 		WORD wMotionSubIndex = GET_MOTION_SUB_INDEX(dwMotKey);

  00184	8b 45 ec	 mov	 eax, DWORD PTR _dwMotKey$[ebp]
  00187	25 ff 00 00 00	 and	 eax, 255		; 000000ffH
  0018c	66 0f b6 c0	 movzx	 ax, al
  00190	66 89 45 f8	 mov	 WORD PTR _wMotionSubIndex$4[ebp], ax

; 711  : 		DWORD dwChildMotKey = MAKE_RANDOM_MOTION_KEY(m_pkHorse->m_wcurMotionMode, wMotionIndex, wMotionSubIndex);

  00194	8b 45 f4	 mov	 eax, DWORD PTR _this$[ebp]
  00197	8b 80 80 04 00
	00		 mov	 eax, DWORD PTR [eax+1152]
  0019d	0f b6 80 68 02
	00 00		 movzx	 eax, BYTE PTR [eax+616]
  001a4	c1 e0 18	 shl	 eax, 24			; 00000018H
  001a7	0f b7 4d fc	 movzx	 ecx, WORD PTR _wMotionIndex$5[ebp]
  001ab	c1 e1 08	 shl	 ecx, 8
  001ae	0b c1		 or	 eax, ecx
  001b0	0f b6 4d f8	 movzx	 ecx, BYTE PTR _wMotionSubIndex$4[ebp]
  001b4	0b c1		 or	 eax, ecx
  001b6	89 45 e8	 mov	 DWORD PTR _dwChildMotKey$3[ebp], eax

; 712  : 
; 713  : 		if (CRaceMotionData::NAME_DEAD == wMotionIndex)

  001b9	0f b7 45 fc	 movzx	 eax, WORD PTR _wMotionIndex$5[ebp]
  001bd	83 f8 0b	 cmp	 eax, 11			; 0000000bH
  001c0	75 21		 jne	 SHORT $LN19@SetMotion

; 714  : 			CGraphicThingInstance::ChangeMotion(dwMotKey, c_rkSetMotData.iLoopCount, c_rkSetMotData.fSpeedRatio);

  001c2	8b 45 08	 mov	 eax, DWORD PTR _c_rkSetMotData$[ebp]
  001c5	51		 push	 ecx
  001c6	f3 0f 10 40 04	 movss	 xmm0, DWORD PTR [eax+4]
  001cb	f3 0f 11 04 24	 movss	 DWORD PTR [esp], xmm0
  001d0	8b 45 08	 mov	 eax, DWORD PTR _c_rkSetMotData$[ebp]
  001d3	ff 70 0c	 push	 DWORD PTR [eax+12]
  001d6	ff 75 ec	 push	 DWORD PTR _dwMotKey$[ebp]
  001d9	8b 4d f4	 mov	 ecx, DWORD PTR _this$[ebp]
  001dc	e8 00 00 00 00	 call	 ?ChangeMotion@CGraphicThingInstance@@QAE_NKHM@Z ; CGraphicThingInstance::ChangeMotion
  001e1	eb 2d		 jmp	 SHORT $LN20@SetMotion
$LN19@SetMotion:

; 715  : 		else
; 716  : 			CGraphicThingInstance::SetMotion(dwMotKey, c_rkSetMotData.fBlendTime, c_rkSetMotData.iLoopCount, c_rkSetMotData.fSpeedRatio);

  001e3	8b 45 08	 mov	 eax, DWORD PTR _c_rkSetMotData$[ebp]
  001e6	51		 push	 ecx
  001e7	f3 0f 10 40 04	 movss	 xmm0, DWORD PTR [eax+4]
  001ec	f3 0f 11 04 24	 movss	 DWORD PTR [esp], xmm0
  001f1	8b 45 08	 mov	 eax, DWORD PTR _c_rkSetMotData$[ebp]
  001f4	ff 70 0c	 push	 DWORD PTR [eax+12]
  001f7	8b 45 08	 mov	 eax, DWORD PTR _c_rkSetMotData$[ebp]
  001fa	51		 push	 ecx
  001fb	f3 0f 10 40 08	 movss	 xmm0, DWORD PTR [eax+8]
  00200	f3 0f 11 04 24	 movss	 DWORD PTR [esp], xmm0
  00205	ff 75 ec	 push	 DWORD PTR _dwMotKey$[ebp]
  00208	8b 4d f4	 mov	 ecx, DWORD PTR _this$[ebp]
  0020b	e8 00 00 00 00	 call	 ?SetMotion@CGraphicThingInstance@@QAE_NKMHM@Z ; CGraphicThingInstance::SetMotion
$LN20@SetMotion:

; 717  : 
; 718  : 		m_pkHorse->SetMotion(dwChildMotKey, c_rkSetMotData.fBlendTime, c_rkSetMotData.iLoopCount, c_rkSetMotData.fSpeedRatio);

  00210	8b 45 08	 mov	 eax, DWORD PTR _c_rkSetMotData$[ebp]
  00213	51		 push	 ecx
  00214	f3 0f 10 40 04	 movss	 xmm0, DWORD PTR [eax+4]
  00219	f3 0f 11 04 24	 movss	 DWORD PTR [esp], xmm0
  0021e	8b 45 08	 mov	 eax, DWORD PTR _c_rkSetMotData$[ebp]
  00221	ff 70 0c	 push	 DWORD PTR [eax+12]
  00224	8b 45 08	 mov	 eax, DWORD PTR _c_rkSetMotData$[ebp]
  00227	51		 push	 ecx
  00228	f3 0f 10 40 08	 movss	 xmm0, DWORD PTR [eax+8]
  0022d	f3 0f 11 04 24	 movss	 DWORD PTR [esp], xmm0
  00232	ff 75 e8	 push	 DWORD PTR _dwChildMotKey$3[ebp]
  00235	8b 45 f4	 mov	 eax, DWORD PTR _this$[ebp]
  00238	8b 88 80 04 00
	00		 mov	 ecx, DWORD PTR [eax+1152]
  0023e	e8 00 00 00 00	 call	 ?SetMotion@CGraphicThingInstance@@QAE_NKMHM@Z ; CGraphicThingInstance::SetMotion

; 719  : 		m_pkHorse->__BindMotionData(dwChildMotKey);

  00243	ff 75 e8	 push	 DWORD PTR _dwChildMotKey$3[ebp]
  00246	8b 45 f4	 mov	 eax, DWORD PTR _this$[ebp]
  00249	8b 88 80 04 00
	00		 mov	 ecx, DWORD PTR [eax+1152]
  0024f	e8 00 00 00 00	 call	 ?__BindMotionData@CActorInstance@@IAE_NK@Z ; CActorInstance::__BindMotionData

; 720  : 
; 721  : 		if (c_rkSetMotData.iLoopCount)

  00254	8b 45 08	 mov	 eax, DWORD PTR _c_rkSetMotData$[ebp]
  00257	83 78 0c 00	 cmp	 DWORD PTR [eax+12], 0
  0025b	74 15		 je	 SHORT $LN21@SetMotion

; 722  : 			m_pkHorse->m_kCurMotNode.iMotionType = MOTION_TYPE_ONCE; //      

  0025d	8b 45 f4	 mov	 eax, DWORD PTR _this$[ebp]
  00260	8b 80 80 04 00
	00		 mov	 eax, DWORD PTR [eax+1152]
  00266	c7 80 44 02 00
	00 01 00 00 00	 mov	 DWORD PTR [eax+580], 1
  00270	eb 13		 jmp	 SHORT $LN22@SetMotion
$LN21@SetMotion:

; 723  : 		else
; 724  : 			m_pkHorse->m_kCurMotNode.iMotionType = MOTION_TYPE_LOOP;

  00272	8b 45 f4	 mov	 eax, DWORD PTR _this$[ebp]
  00275	8b 80 80 04 00
	00		 mov	 eax, DWORD PTR [eax+1152]
  0027b	c7 80 44 02 00
	00 02 00 00 00	 mov	 DWORD PTR [eax+580], 2
$LN22@SetMotion:

; 725  : 
; 726  : 		m_pkHorse->m_kCurMotNode.dwFrameCount	= m_pkHorse->GetMotionDuration(dwChildMotKey) / (1.0f / g_fGameFPS);

  00285	ff 75 e8	 push	 DWORD PTR _dwChildMotKey$3[ebp]
  00288	8b 45 f4	 mov	 eax, DWORD PTR _this$[ebp]
  0028b	8b 88 80 04 00
	00		 mov	 ecx, DWORD PTR [eax+1152]
  00291	e8 00 00 00 00	 call	 ?GetMotionDuration@CActorInstance@@IAEMK@Z ; CActorInstance::GetMotionDuration
  00296	d9 5d e0	 fstp	 DWORD PTR tv410[ebp]
  00299	f3 0f 10 45 e0	 movss	 xmm0, DWORD PTR tv410[ebp]
  0029e	f3 0f 10 0d 00
	00 00 00	 movss	 xmm1, DWORD PTR __real@3f800000
  002a6	f3 0f 5e 0d 00
	00 00 00	 divss	 xmm1, DWORD PTR ?g_fGameFPS@@3MA
  002ae	f3 0f 5e c1	 divss	 xmm0, xmm1
  002b2	e8 00 00 00 00	 call	 __ftoui3
  002b7	8b 4d f4	 mov	 ecx, DWORD PTR _this$[ebp]
  002ba	8b 89 80 04 00
	00		 mov	 ecx, DWORD PTR [ecx+1152]
  002c0	89 81 50 02 00
	00		 mov	 DWORD PTR [ecx+592], eax

; 727  : 		m_pkHorse->m_kCurMotNode.dwcurFrame		= 0;

  002c6	8b 45 f4	 mov	 eax, DWORD PTR _this$[ebp]
  002c9	8b 80 80 04 00
	00		 mov	 eax, DWORD PTR [eax+1152]
  002cf	83 a0 4c 02 00
	00 00		 and	 DWORD PTR [eax+588], 0

; 728  : 		m_pkHorse->m_kCurMotNode.dwMotionKey	= dwChildMotKey;

  002d6	8b 45 f4	 mov	 eax, DWORD PTR _this$[ebp]
  002d9	8b 80 80 04 00
	00		 mov	 eax, DWORD PTR [eax+1152]
  002df	8b 4d e8	 mov	 ecx, DWORD PTR _dwChildMotKey$3[ebp]
  002e2	89 88 48 02 00
	00		 mov	 DWORD PTR [eax+584], ecx

; 729  : 	}

  002e8	eb 2d		 jmp	 SHORT $LN18@SetMotion
$LN17@SetMotion:

; 730  : 	else
; 731  : 	{
; 732  : 		CGraphicThingInstance::SetMotion(dwMotKey, c_rkSetMotData.fBlendTime, c_rkSetMotData.iLoopCount, c_rkSetMotData.fSpeedRatio);

  002ea	8b 45 08	 mov	 eax, DWORD PTR _c_rkSetMotData$[ebp]
  002ed	51		 push	 ecx
  002ee	f3 0f 10 40 04	 movss	 xmm0, DWORD PTR [eax+4]
  002f3	f3 0f 11 04 24	 movss	 DWORD PTR [esp], xmm0
  002f8	8b 45 08	 mov	 eax, DWORD PTR _c_rkSetMotData$[ebp]
  002fb	ff 70 0c	 push	 DWORD PTR [eax+12]
  002fe	8b 45 08	 mov	 eax, DWORD PTR _c_rkSetMotData$[ebp]
  00301	51		 push	 ecx
  00302	f3 0f 10 40 08	 movss	 xmm0, DWORD PTR [eax+8]
  00307	f3 0f 11 04 24	 movss	 DWORD PTR [esp], xmm0
  0030c	ff 75 ec	 push	 DWORD PTR _dwMotKey$[ebp]
  0030f	8b 4d f4	 mov	 ecx, DWORD PTR _this$[ebp]
  00312	e8 00 00 00 00	 call	 ?SetMotion@CGraphicThingInstance@@QAE_NKMHM@Z ; CGraphicThingInstance::SetMotion
$LN18@SetMotion:

; 733  : 	}
; 734  : 	
; 735  : 	__HideWeaponTrace();

  00317	8b 4d f4	 mov	 ecx, DWORD PTR _this$[ebp]
  0031a	e8 00 00 00 00	 call	 ?__HideWeaponTrace@CActorInstance@@IAEXXZ ; CActorInstance::__HideWeaponTrace

; 736  : 
; 737  : 	if (__BindMotionData(dwMotKey))

  0031f	ff 75 ec	 push	 DWORD PTR _dwMotKey$[ebp]
  00322	8b 4d f4	 mov	 ecx, DWORD PTR _this$[ebp]
  00325	e8 00 00 00 00	 call	 ?__BindMotionData@CActorInstance@@IAE_NK@Z ; CActorInstance::__BindMotionData
  0032a	0f b6 c0	 movzx	 eax, al
  0032d	85 c0		 test	 eax, eax
  0032f	74 63		 je	 SHORT $LN26@SetMotion

; 738  : 	{
; 739  : 		int iLoopCount = __GetLoopCount();

  00331	8b 4d f4	 mov	 ecx, DWORD PTR _this$[ebp]
  00334	e8 00 00 00 00	 call	 ?__GetLoopCount@CActorInstance@@IAEHXZ ; CActorInstance::__GetLoopCount
  00339	89 45 dc	 mov	 DWORD PTR _iLoopCount$1[ebp], eax

; 740  : 		SetMotionLoopCount(iLoopCount);

  0033c	ff 75 dc	 push	 DWORD PTR _iLoopCount$1[ebp]
  0033f	8b 4d f4	 mov	 ecx, DWORD PTR _this$[ebp]
  00342	e8 00 00 00 00	 call	 ?SetMotionLoopCount@CActorInstance@@QAEXH@Z ; CActorInstance::SetMotionLoopCount

; 741  : 
; 742  : 		if (__CanAttack())

  00347	8b 4d f4	 mov	 ecx, DWORD PTR _this$[ebp]
  0034a	e8 00 00 00 00	 call	 ?__CanAttack@CActorInstance@@IAE_NXZ ; CActorInstance::__CanAttack
  0034f	0f b6 c0	 movzx	 eax, al
  00352	85 c0		 test	 eax, eax
  00354	74 16		 je	 SHORT $LN24@SetMotion

; 743  : 		{
; 744  : 			//       - [levites]
; 745  : 			__ShowWeaponTrace();

  00356	8b 4d f4	 mov	 ecx, DWORD PTR _this$[ebp]
  00359	e8 00 00 00 00	 call	 ?__ShowWeaponTrace@CActorInstance@@IAEXXZ ; CActorInstance::__ShowWeaponTrace

; 746  : 
; 747  : 			m_HitDataMap.clear();

  0035e	8b 4d f4	 mov	 ecx, DWORD PTR _this$[ebp]
  00361	81 c1 78 04 00
	00		 add	 ecx, 1144		; 00000478H
  00367	e8 00 00 00 00	 call	 ?clear@?$_Tree@V?$_Tmap_traits@PBUSHitData@NRaceData@@V?$map@PAVCActorInstance@@MU?$less@PAVCActorInstance@@@std@@V?$allocator@U?$pair@QAVCActorInstance@@M@std@@@3@@std@@U?$less@PBUSHitData@NRaceData@@@4@V?$allocator@U?$pair@QBUSHitData@NRaceData@@V?$map@PAVCActorInstance@@MU?$less@PAVCActorInstance@@@std@@V?$allocator@U?$pair@QAVCActorInstance@@M@std@@@3@@std@@@std@@@4@$0A@@std@@@std@@QAEXXZ ; std::_Tree<std::_Tmap_traits<NRaceData::SHitData const *,std::map<CActorInstance *,float,std::less<CActorInstance *>,std::allocator<std::pair<CActorInstance * const,float> > >,std::less<NRaceData::SHitData const *>,std::allocator<std::pair<NRaceData::SHitData const * const,std::map<CActorInstance *,float,std::less<CActorInstance *>,std::allocator<std::pair<CActorInstance * const,float> > > > >,0> >::clear
$LN24@SetMotion:

; 748  : 			//PreAttack();
; 749  : 		}
; 750  : 
; 751  : 		if (__IsComboAttacking())

  0036c	8b 4d f4	 mov	 ecx, DWORD PTR _this$[ebp]
  0036f	e8 00 00 00 00	 call	 ?__IsComboAttacking@CActorInstance@@IAE_NXZ ; CActorInstance::__IsComboAttacking
  00374	0f b6 c0	 movzx	 eax, al
  00377	85 c0		 test	 eax, eax
  00379	74 19		 je	 SHORT $LN26@SetMotion

; 752  : 		{
; 753  : 			if (!__CanNextComboAttack())

  0037b	8b 4d f4	 mov	 ecx, DWORD PTR _this$[ebp]
  0037e	e8 00 00 00 00	 call	 ?__CanNextComboAttack@CActorInstance@@IAE_NXZ ; CActorInstance::__CanNextComboAttack
  00383	0f b6 c0	 movzx	 eax, al
  00386	85 c0		 test	 eax, eax
  00388	75 0a		 jne	 SHORT $LN26@SetMotion

; 754  : 			{
; 755  : 				// 2004.11.19.myevan.      
; 756  : 				m_dwcurComboIndex = 0; //   - [levites]

  0038a	8b 45 f4	 mov	 eax, DWORD PTR _this$[ebp]
  0038d	83 a0 2c 03 00
	00 00		 and	 DWORD PTR [eax+812], 0
$LN26@SetMotion:

; 757  : 
; 758  : 				// NOTE : ClearCombo()   .
; 759  : 				//              m_pkCurRaceMotionData   .
; 760  : 				//Tracef("MotionData     .\n");
; 761  : 			}
; 762  : 		}
; 763  : 	}
; 764  : 
; 765  : 	return dwMotKey;

  00394	8b 45 ec	 mov	 eax, DWORD PTR _dwMotKey$[ebp]
$LN1@SetMotion:

; 766  : }

  00397	c9		 leave
  00398	c2 08 00	 ret	 8
?__SetMotion@CActorInstance@@IAEKABUSSetMotionData@1@K@Z ENDP ; CActorInstance::__SetMotion
_TEXT	ENDS
; Function compile flags: /Odspy
; File D:\Metin2 Server Files\mainline\SRC_2014\Metin2Client\GameLib\ActorInstance.h
;	COMDAT ??0SSetMotionData@CActorInstance@@QAE@XZ
_TEXT	SEGMENT
_this$ = -4						; size = 4
??0SSetMotionData@CActorInstance@@QAE@XZ PROC		; CActorInstance::SSetMotionData::SSetMotionData, COMDAT
; _this$ = ecx

; 628  : 			SSetMotionData()

  00000	55		 push	 ebp
  00001	8b ec		 mov	 ebp, esp
  00003	51		 push	 ecx
  00004	89 4d fc	 mov	 DWORD PTR _this$[ebp], ecx

; 629  : 			{
; 630  : 				iLoopCount=0;

  00007	8b 45 fc	 mov	 eax, DWORD PTR _this$[ebp]
  0000a	83 60 0c 00	 and	 DWORD PTR [eax+12], 0

; 631  : 				dwMotKey=0;

  0000e	8b 45 fc	 mov	 eax, DWORD PTR _this$[ebp]
  00011	83 20 00	 and	 DWORD PTR [eax], 0

; 632  : 				fSpeedRatio=1.0f;

  00014	8b 45 fc	 mov	 eax, DWORD PTR _this$[ebp]
  00017	f3 0f 10 05 00
	00 00 00	 movss	 xmm0, DWORD PTR __real@3f800000
  0001f	f3 0f 11 40 04	 movss	 DWORD PTR [eax+4], xmm0

; 633  : 				fBlendTime=0.0f;

  00024	8b 45 fc	 mov	 eax, DWORD PTR _this$[ebp]
  00027	0f 57 c0	 xorps	 xmm0, xmm0
  0002a	f3 0f 11 40 08	 movss	 DWORD PTR [eax+8], xmm0

; 634  : 				uSkill=0;

  0002f	8b 45 fc	 mov	 eax, DWORD PTR _this$[ebp]
  00032	83 60 10 00	 and	 DWORD PTR [eax+16], 0

; 635  : 			}

  00036	8b 45 fc	 mov	 eax, DWORD PTR _this$[ebp]
  00039	c9		 leave
  0003a	c3		 ret	 0
??0SSetMotionData@CActorInstance@@QAE@XZ ENDP		; CActorInstance::SSetMotionData::SSetMotionData
_TEXT	ENDS
; Function compile flags: /Odspy
; File D:\Metin2 Server Files\mainline\SRC_2014\Metin2Client\GameLib\ActorInstanceMotion.cpp
; File C:\Program Files (x86)\Microsoft Visual Studio\2019\Community\VC\Tools\MSVC\14.28.29333\include\deque
; File D:\Metin2 Server Files\mainline\SRC_2014\Metin2Client\GameLib\ActorInstanceMotion.cpp
;	COMDAT ?PushMotion@CActorInstance@@IAEXW4EMotionPushType@1@KMM@Z
_TEXT	SEGMENT
$T1 = -40						; size = 4
_this$ = -36						; size = 4
_this$ = -32						; size = 4
_MotionNode$ = -28					; size = 24
__$ArrayPad$ = -4					; size = 4
_iMotionType$ = 8					; size = 4
_dwMotionKey$ = 12					; size = 4
_fBlendTime$ = 16					; size = 4
_fSpeedRatio$ = 20					; size = 4
?PushMotion@CActorInstance@@IAEXW4EMotionPushType@1@KMM@Z PROC ; CActorInstance::PushMotion, COMDAT
; _this$ = ecx

; 267  : {

  00000	55		 push	 ebp
  00001	8b ec		 mov	 ebp, esp
  00003	83 ec 28	 sub	 esp, 40			; 00000028H
  00006	a1 00 00 00 00	 mov	 eax, DWORD PTR ___security_cookie
  0000b	33 c5		 xor	 eax, ebp
  0000d	89 45 fc	 mov	 DWORD PTR __$ArrayPad$[ebp], eax
  00010	89 4d e0	 mov	 DWORD PTR _this$[ebp], ecx

; 268  : 	if (!CheckMotionThingIndex(dwMotionKey))

  00013	ff 75 0c	 push	 DWORD PTR _dwMotionKey$[ebp]
  00016	8b 4d e0	 mov	 ecx, DWORD PTR _this$[ebp]
  00019	e8 00 00 00 00	 call	 ?CheckMotionThingIndex@CGraphicThingInstance@@QAE_NK@Z ; CGraphicThingInstance::CheckMotionThingIndex
  0001e	0f b6 c0	 movzx	 eax, al
  00021	85 c0		 test	 eax, eax
  00023	75 1d		 jne	 SHORT $LN2@PushMotion

; 269  : 	{
; 270  : 		Tracef(" Error - Not found want to using motion : %d\n", GET_MOTION_INDEX(dwMotionKey));

  00025	8b 45 0c	 mov	 eax, DWORD PTR _dwMotionKey$[ebp]
  00028	c1 e8 08	 shr	 eax, 8
  0002b	25 ff ff 00 00	 and	 eax, 65535		; 0000ffffH
  00030	0f b7 c0	 movzx	 eax, ax
  00033	50		 push	 eax
  00034	68 00 00 00 00	 push	 OFFSET ??_C@_0CO@FPMNJLLG@?5Error?5?9?5Not?5found?5want?5to?5usin@
  00039	e8 00 00 00 00	 call	 ?Tracef@@YAXPBDZZ	; Tracef
  0003e	59		 pop	 ecx
  0003f	59		 pop	 ecx

; 271  : 		return;

  00040	eb 61		 jmp	 SHORT $LN1@PushMotion
$LN2@PushMotion:

; 272  : 	}
; 273  : 
; 274  : 	TReservingMotionNode MotionNode;
; 275  : 
; 276  : 	MotionNode.iMotionType = iMotionType;

  00042	8b 45 08	 mov	 eax, DWORD PTR _iMotionType$[ebp]
  00045	89 45 e4	 mov	 DWORD PTR _MotionNode$[ebp], eax

; 277  : 	MotionNode.dwMotionKey = dwMotionKey;

  00048	8b 45 0c	 mov	 eax, DWORD PTR _dwMotionKey$[ebp]
  0004b	89 45 f8	 mov	 DWORD PTR _MotionNode$[ebp+20], eax

; 278  : 	MotionNode.fStartTime = GetLastMotionTime(fBlendTime);

  0004e	51		 push	 ecx
  0004f	f3 0f 10 45 10	 movss	 xmm0, DWORD PTR _fBlendTime$[ebp]
  00054	f3 0f 11 04 24	 movss	 DWORD PTR [esp], xmm0
  00059	8b 4d e0	 mov	 ecx, DWORD PTR _this$[ebp]
  0005c	e8 00 00 00 00	 call	 ?GetLastMotionTime@CActorInstance@@IAEMM@Z ; CActorInstance::GetLastMotionTime
  00061	d9 5d e8	 fstp	 DWORD PTR _MotionNode$[ebp+4]

; 279  : 	MotionNode.fBlendTime = fBlendTime;

  00064	f3 0f 10 45 10	 movss	 xmm0, DWORD PTR _fBlendTime$[ebp]
  00069	f3 0f 11 45 ec	 movss	 DWORD PTR _MotionNode$[ebp+8], xmm0

; 280  : 	MotionNode.fSpeedRatio = fSpeedRatio;

  0006e	f3 0f 10 45 14	 movss	 xmm0, DWORD PTR _fSpeedRatio$[ebp]
  00073	f3 0f 11 45 f4	 movss	 DWORD PTR _MotionNode$[ebp+16], xmm0

; 281  : 	MotionNode.fDuration = GetMotionDuration(dwMotionKey);

  00078	ff 75 0c	 push	 DWORD PTR _dwMotionKey$[ebp]
  0007b	8b 4d e0	 mov	 ecx, DWORD PTR _this$[ebp]
  0007e	e8 00 00 00 00	 call	 ?GetMotionDuration@CActorInstance@@IAEMK@Z ; CActorInstance::GetMotionDuration
  00083	d9 5d f0	 fstp	 DWORD PTR _MotionNode$[ebp+12]

; 282  : 
; 283  : 	m_MotionDeque.push_back(MotionNode);

  00086	8b 45 e0	 mov	 eax, DWORD PTR _this$[ebp]
  00089	05 30 02 00 00	 add	 eax, 560		; 00000230H
  0008e	89 45 dc	 mov	 DWORD PTR _this$[ebp], eax
; File C:\Program Files (x86)\Microsoft Visual Studio\2019\Community\VC\Tools\MSVC\14.28.29333\include\deque

; 1530 :         return _Mypair._Myval2;

  00091	8b 45 dc	 mov	 eax, DWORD PTR _this$[ebp]
  00094	89 45 d8	 mov	 DWORD PTR $T1[ebp], eax

; 1123 :         _Emplace_back_internal(_Val);

  00097	8d 45 e4	 lea	 eax, DWORD PTR _MotionNode$[ebp]
  0009a	50		 push	 eax
  0009b	8b 4d dc	 mov	 ecx, DWORD PTR _this$[ebp]
  0009e	e8 00 00 00 00	 call	 ??$_Emplace_back_internal@ABUSReservingMotionNode@CActorInstance@@@?$deque@USReservingMotionNode@CActorInstance@@V?$allocator@USReservingMotionNode@CActorInstance@@@std@@@std@@AAEXABUSReservingMotionNode@CActorInstance@@@Z ; std::deque<CActorInstance::SReservingMotionNode,std::allocator<CActorInstance::SReservingMotionNode> >::_Emplace_back_internal<CActorInstance::SReservingMotionNode const &>
$LN1@PushMotion:
; File D:\Metin2 Server Files\mainline\SRC_2014\Metin2Client\GameLib\ActorInstanceMotion.cpp

; 284  : }

  000a3	8b 4d fc	 mov	 ecx, DWORD PTR __$ArrayPad$[ebp]
  000a6	33 cd		 xor	 ecx, ebp
  000a8	e8 00 00 00 00	 call	 @__security_check_cookie@4
  000ad	c9		 leave
  000ae	c2 10 00	 ret	 16			; 00000010H
?PushMotion@CActorInstance@@IAEXW4EMotionPushType@1@KMM@Z ENDP ; CActorInstance::PushMotion
_TEXT	ENDS
; Function compile flags: /Odspy
; File D:\Metin2 Server Files\mainline\SRC_2014\Metin2Client\GameLib\ActorInstanceMotion.cpp
;	COMDAT ?InterceptMotion@CActorInstance@@IAE_NW4EMotionPushType@1@GMIM@Z
_TEXT	SEGMENT
_kSetMotData$ = -44					; size = 20
tv208 = -24						; size = 4
_dwMotionKey$ = -20					; size = 4
_fDuration$ = -16					; size = 4
_iLoopCount$ = -12					; size = 4
_dwRealMotionKey$ = -8					; size = 4
_this$ = -4						; size = 4
_iMotionType$ = 8					; size = 4
_wMotion$ = 12						; size = 2
_fBlendTime$ = 16					; size = 4
_uSkill$ = 20						; size = 4
_fSpeedRatio$ = 24					; size = 4
?InterceptMotion@CActorInstance@@IAE_NW4EMotionPushType@1@GMIM@Z PROC ; CActorInstance::InterceptMotion, COMDAT
; _this$ = ecx

; 337  : {

  00000	55		 push	 ebp
  00001	8b ec		 mov	 ebp, esp
  00003	83 ec 2c	 sub	 esp, 44			; 0000002cH
  00006	89 4d fc	 mov	 DWORD PTR _this$[ebp], ecx

; 338  : 	if (!m_pkCurRaceData)

  00009	8b 45 fc	 mov	 eax, DWORD PTR _this$[ebp]
  0000c	83 b8 54 03 00
	00 00		 cmp	 DWORD PTR [eax+852], 0
  00013	75 28		 jne	 SHORT $LN2@InterceptM

; 339  : 	{
; 340  : 		Tracef("CActorInstance::InterceptMotion(iMotionType=%d, wMotion=%d, fBlendTime=%f) - m_pkCurRaceData=NULL", iMotionType, wMotion, fBlendTime);

  00015	f3 0f 5a 45 10	 cvtss2sd xmm0, DWORD PTR _fBlendTime$[ebp]
  0001a	51		 push	 ecx
  0001b	51		 push	 ecx
  0001c	f2 0f 11 04 24	 movsd	 QWORD PTR [esp], xmm0
  00021	0f b7 45 0c	 movzx	 eax, WORD PTR _wMotion$[ebp]
  00025	50		 push	 eax
  00026	ff 75 08	 push	 DWORD PTR _iMotionType$[ebp]
  00029	68 00 00 00 00	 push	 OFFSET ??_C@_0GC@LNLDMJJ@CActorInstance?3?3InterceptMotion@
  0002e	e8 00 00 00 00	 call	 ?Tracef@@YAXPBDZZ	; Tracef
  00033	83 c4 14	 add	 esp, 20			; 00000014H

; 341  : 		return false;

  00036	32 c0		 xor	 al, al
  00038	e9 b3 01 00 00	 jmp	 $LN1@InterceptM
$LN2@InterceptM:

; 342  : 	}
; 343  : 
; 344  : 	MOTION_KEY dwMotionKey;
; 345  : 	if (!m_pkCurRaceData->GetMotionKey(m_wcurMotionMode, wMotion, &dwMotionKey))

  0003d	8d 45 ec	 lea	 eax, DWORD PTR _dwMotionKey$[ebp]
  00040	50		 push	 eax
  00041	ff 75 0c	 push	 DWORD PTR _wMotion$[ebp]
  00044	8b 45 fc	 mov	 eax, DWORD PTR _this$[ebp]
  00047	0f b7 80 68 02
	00 00		 movzx	 eax, WORD PTR [eax+616]
  0004e	50		 push	 eax
  0004f	8b 45 fc	 mov	 eax, DWORD PTR _this$[ebp]
  00052	8b 88 54 03 00
	00		 mov	 ecx, DWORD PTR [eax+852]
  00058	e8 00 00 00 00	 call	 ?GetMotionKey@CRaceData@@QAEHGGPAK@Z ; CRaceData::GetMotionKey
  0005d	85 c0		 test	 eax, eax
  0005f	75 43		 jne	 SHORT $LN3@InterceptM

; 346  : 	{
; 347  : 		Tracenf("CActorInstance::InterceptMotion(iLoopType=%d, wMotionMode=%d, wMotion=%d, fBlendTime=%f) - GetMotionKey(m_wcurMotionMode=%d, wMotion=%d, &MotionKey) ERROR", 

  00061	0f b7 45 0c	 movzx	 eax, WORD PTR _wMotion$[ebp]
  00065	50		 push	 eax
  00066	8b 45 fc	 mov	 eax, DWORD PTR _this$[ebp]
  00069	0f b7 80 68 02
	00 00		 movzx	 eax, WORD PTR [eax+616]
  00070	50		 push	 eax
  00071	f3 0f 5a 45 10	 cvtss2sd xmm0, DWORD PTR _fBlendTime$[ebp]
  00076	51		 push	 ecx
  00077	51		 push	 ecx
  00078	f2 0f 11 04 24	 movsd	 QWORD PTR [esp], xmm0
  0007d	0f b7 45 0c	 movzx	 eax, WORD PTR _wMotion$[ebp]
  00081	50		 push	 eax
  00082	8b 45 fc	 mov	 eax, DWORD PTR _this$[ebp]
  00085	0f b7 80 68 02
	00 00		 movzx	 eax, WORD PTR [eax+616]
  0008c	50		 push	 eax
  0008d	ff 75 08	 push	 DWORD PTR _iMotionType$[ebp]
  00090	68 00 00 00 00	 push	 OFFSET ??_C@_0JL@GEIDCHAJ@CActorInstance?3?3InterceptMotion@
  00095	e8 00 00 00 00	 call	 ?Tracenf@@YAXPBDZZ	; Tracenf
  0009a	83 c4 20	 add	 esp, 32			; 00000020H

; 348  : 			iMotionType, m_wcurMotionMode, wMotion, fBlendTime, m_wcurMotionMode, wMotion);
; 349  : 		return false;

  0009d	32 c0		 xor	 al, al
  0009f	e9 4c 01 00 00	 jmp	 $LN1@InterceptM
$LN3@InterceptM:

; 350  : 	}
; 351  : 
; 352  : 	__ClearMotion();

  000a4	8b 4d fc	 mov	 ecx, DWORD PTR _this$[ebp]
  000a7	e8 00 00 00 00	 call	 ?__ClearMotion@CActorInstance@@IAEXXZ ; CActorInstance::__ClearMotion

; 353  : 
; 354  : 	int iLoopCount;
; 355  : 	if (MOTION_TYPE_ONCE == iMotionType)

  000ac	83 7d 08 01	 cmp	 DWORD PTR _iMotionType$[ebp], 1
  000b0	75 09		 jne	 SHORT $LN4@InterceptM

; 356  : 		iLoopCount=1;

  000b2	c7 45 f4 01 00
	00 00		 mov	 DWORD PTR _iLoopCount$[ebp], 1
  000b9	eb 04		 jmp	 SHORT $LN5@InterceptM
$LN4@InterceptM:

; 357  : 	else
; 358  : 		iLoopCount=0;

  000bb	83 65 f4 00	 and	 DWORD PTR _iLoopCount$[ebp], 0
$LN5@InterceptM:

; 359  : 
; 360  : 	SSetMotionData kSetMotData;

  000bf	8d 4d d4	 lea	 ecx, DWORD PTR _kSetMotData$[ebp]
  000c2	e8 00 00 00 00	 call	 ??0SSetMotionData@CActorInstance@@QAE@XZ ; CActorInstance::SSetMotionData::SSetMotionData

; 361  : 	kSetMotData.dwMotKey=dwMotionKey;

  000c7	8b 45 ec	 mov	 eax, DWORD PTR _dwMotionKey$[ebp]
  000ca	89 45 d4	 mov	 DWORD PTR _kSetMotData$[ebp], eax

; 362  : 	kSetMotData.fBlendTime=fBlendTime;

  000cd	f3 0f 10 45 10	 movss	 xmm0, DWORD PTR _fBlendTime$[ebp]
  000d2	f3 0f 11 45 dc	 movss	 DWORD PTR _kSetMotData$[ebp+8], xmm0

; 363  : 	kSetMotData.iLoopCount=iLoopCount;

  000d7	8b 45 f4	 mov	 eax, DWORD PTR _iLoopCount$[ebp]
  000da	89 45 e0	 mov	 DWORD PTR _kSetMotData$[ebp+12], eax

; 364  : 	kSetMotData.fSpeedRatio=fSpeedRatio;

  000dd	f3 0f 10 45 18	 movss	 xmm0, DWORD PTR _fSpeedRatio$[ebp]
  000e2	f3 0f 11 45 d8	 movss	 DWORD PTR _kSetMotData$[ebp+4], xmm0

; 365  : 	kSetMotData.uSkill=uSkill;

  000e7	8b 45 14	 mov	 eax, DWORD PTR _uSkill$[ebp]
  000ea	89 45 e4	 mov	 DWORD PTR _kSetMotData$[ebp+16], eax

; 366  : 
; 367  : 	DWORD dwRealMotionKey = __SetMotion(kSetMotData);

  000ed	6a 00		 push	 0
  000ef	8d 45 d4	 lea	 eax, DWORD PTR _kSetMotData$[ebp]
  000f2	50		 push	 eax
  000f3	8b 4d fc	 mov	 ecx, DWORD PTR _this$[ebp]
  000f6	e8 00 00 00 00	 call	 ?__SetMotion@CActorInstance@@IAEKABUSSetMotionData@1@K@Z ; CActorInstance::__SetMotion
  000fb	89 45 f8	 mov	 DWORD PTR _dwRealMotionKey$[ebp], eax

; 368  : 
; 369  : 	if (0 == dwRealMotionKey)

  000fe	83 7d f8 00	 cmp	 DWORD PTR _dwRealMotionKey$[ebp], 0
  00102	75 07		 jne	 SHORT $LN6@InterceptM

; 370  : 		return false;

  00104	32 c0		 xor	 al, al
  00106	e9 e5 00 00 00	 jmp	 $LN1@InterceptM
$LN6@InterceptM:

; 371  : 
; 372  : 	if (m_pFlyEventHandler)

  0010b	8b 45 fc	 mov	 eax, DWORD PTR _this$[ebp]
  0010e	83 b8 e8 01 00
	00 00		 cmp	 DWORD PTR [eax+488], 0
  00115	74 26		 je	 SHORT $LN8@InterceptM

; 373  : 	{
; 374  : 		if (__IsNeedFlyTargetMotion())

  00117	8b 4d fc	 mov	 ecx, DWORD PTR _this$[ebp]
  0011a	e8 00 00 00 00	 call	 ?__IsNeedFlyTargetMotion@CActorInstance@@IAE_NXZ ; CActorInstance::__IsNeedFlyTargetMotion
  0011f	0f b6 c0	 movzx	 eax, al
  00122	85 c0		 test	 eax, eax
  00124	74 17		 je	 SHORT $LN8@InterceptM

; 375  : 		{		
; 376  : 			m_pFlyEventHandler->OnSetFlyTarget();

  00126	8b 45 fc	 mov	 eax, DWORD PTR _this$[ebp]
  00129	8b 80 e8 01 00
	00		 mov	 eax, DWORD PTR [eax+488]
  0012f	8b 4d fc	 mov	 ecx, DWORD PTR _this$[ebp]
  00132	8b 00		 mov	 eax, DWORD PTR [eax]
  00134	8b 89 e8 01 00
	00		 mov	 ecx, DWORD PTR [ecx+488]
  0013a	ff 50 04	 call	 DWORD PTR [eax+4]
$LN8@InterceptM:

; 377  : 		}	
; 378  : 	}
; 379  : 
; 380  : 	assert(NULL != m_pkCurRaceMotionData);
; 381  : 
; 382  : 	// FIX :   __SetMotion          dwMotionKey  
; 383  : 	//     duration  .   play    .. -_-;; 
; 384  : 	// float fDuration=GetMotionDuration(dwMotionKey)/fSpeedRatio;
; 385  : 	float fDuration = GetMotionDuration(dwRealMotionKey) / fSpeedRatio;

  0013d	ff 75 f8	 push	 DWORD PTR _dwRealMotionKey$[ebp]
  00140	8b 4d fc	 mov	 ecx, DWORD PTR _this$[ebp]
  00143	e8 00 00 00 00	 call	 ?GetMotionDuration@CActorInstance@@IAEMK@Z ; CActorInstance::GetMotionDuration
  00148	d9 5d e8	 fstp	 DWORD PTR tv208[ebp]
  0014b	f3 0f 10 45 e8	 movss	 xmm0, DWORD PTR tv208[ebp]
  00150	f3 0f 5e 45 18	 divss	 xmm0, DWORD PTR _fSpeedRatio$[ebp]
  00155	f3 0f 11 45 f0	 movss	 DWORD PTR _fDuration$[ebp], xmm0

; 386  : 
; 387  : 	m_kCurMotNode.iMotionType = iMotionType;

  0015a	8b 45 fc	 mov	 eax, DWORD PTR _this$[ebp]
  0015d	8b 4d 08	 mov	 ecx, DWORD PTR _iMotionType$[ebp]
  00160	89 88 44 02 00
	00		 mov	 DWORD PTR [eax+580], ecx

; 388  : 	m_kCurMotNode.fStartTime = GetLocalTime();

  00166	8b 4d fc	 mov	 ecx, DWORD PTR _this$[ebp]
  00169	e8 00 00 00 00	 call	 ?GetLocalTime@CGraphicThingInstance@@QAEMXZ ; CGraphicThingInstance::GetLocalTime
  0016e	8b 45 fc	 mov	 eax, DWORD PTR _this$[ebp]
  00171	d9 98 54 02 00
	00		 fstp	 DWORD PTR [eax+596]

; 389  : 	m_kCurMotNode.fEndTime = m_kCurMotNode.fStartTime + fDuration;

  00177	8b 45 fc	 mov	 eax, DWORD PTR _this$[ebp]
  0017a	f3 0f 10 80 54
	02 00 00	 movss	 xmm0, DWORD PTR [eax+596]
  00182	f3 0f 58 45 f0	 addss	 xmm0, DWORD PTR _fDuration$[ebp]
  00187	8b 45 fc	 mov	 eax, DWORD PTR _this$[ebp]
  0018a	f3 0f 11 80 58
	02 00 00	 movss	 DWORD PTR [eax+600], xmm0

; 390  : 	m_kCurMotNode.dwMotionKey = dwRealMotionKey;	

  00192	8b 45 fc	 mov	 eax, DWORD PTR _this$[ebp]
  00195	8b 4d f8	 mov	 ecx, DWORD PTR _dwRealMotionKey$[ebp]
  00198	89 88 48 02 00
	00		 mov	 DWORD PTR [eax+584], ecx

; 391  : 	m_kCurMotNode.dwcurFrame = 0;

  0019e	8b 45 fc	 mov	 eax, DWORD PTR _this$[ebp]
  001a1	83 a0 4c 02 00
	00 00		 and	 DWORD PTR [eax+588], 0

; 392  : 	m_kCurMotNode.dwFrameCount = fDuration / (1.0f / g_fGameFPS);

  001a8	f3 0f 10 05 00
	00 00 00	 movss	 xmm0, DWORD PTR __real@3f800000
  001b0	f3 0f 5e 05 00
	00 00 00	 divss	 xmm0, DWORD PTR ?g_fGameFPS@@3MA
  001b8	f3 0f 10 4d f0	 movss	 xmm1, DWORD PTR _fDuration$[ebp]
  001bd	f3 0f 5e c8	 divss	 xmm1, xmm0
  001c1	0f 28 c1	 movaps	 xmm0, xmm1
  001c4	e8 00 00 00 00	 call	 __ftoui3
  001c9	8b 4d fc	 mov	 ecx, DWORD PTR _this$[ebp]
  001cc	89 81 50 02 00
	00		 mov	 DWORD PTR [ecx+592], eax

; 393  : 	m_kCurMotNode.uSkill = uSkill;

  001d2	8b 45 fc	 mov	 eax, DWORD PTR _this$[ebp]
  001d5	8b 4d 14	 mov	 ecx, DWORD PTR _uSkill$[ebp]
  001d8	89 88 64 02 00
	00		 mov	 DWORD PTR [eax+612], ecx

; 394  : 	m_kCurMotNode.fSpeedRatio = fSpeedRatio;

  001de	8b 45 fc	 mov	 eax, DWORD PTR _this$[ebp]
  001e1	f3 0f 10 45 18	 movss	 xmm0, DWORD PTR _fSpeedRatio$[ebp]
  001e6	f3 0f 11 80 5c
	02 00 00	 movss	 DWORD PTR [eax+604], xmm0

; 395  : 
; 396  : 	return true;

  001ee	b0 01		 mov	 al, 1
$LN1@InterceptM:

; 397  : }

  001f0	c9		 leave
  001f1	c2 14 00	 ret	 20			; 00000014H
?InterceptMotion@CActorInstance@@IAE_NW4EMotionPushType@1@GMIM@Z ENDP ; CActorInstance::InterceptMotion
_TEXT	ENDS
; Function compile flags: /Odspy
; File D:\Metin2 Server Files\mainline\SRC_2014\Metin2Client\GameLib\ActorInstanceMotion.cpp
;	COMDAT ?GetMotionDuration@CActorInstance@@IAEMK@Z
_TEXT	SEGMENT
_pGrannyMotion$ = -12					; size = 4
_this$ = -8						; size = 4
_pMotion$ = -4						; size = 4
_dwMotionKey$ = 8					; size = 4
?GetMotionDuration@CActorInstance@@IAEMK@Z PROC		; CActorInstance::GetMotionDuration, COMDAT
; _this$ = ecx

; 566  : {

  00000	55		 push	 ebp
  00001	8b ec		 mov	 ebp, esp
  00003	83 ec 0c	 sub	 esp, 12			; 0000000cH
  00006	89 4d f8	 mov	 DWORD PTR _this$[ebp], ecx

; 567  : 	CGraphicThing * pMotion;
; 568  : 	
; 569  : 	if (!GetMotionThingPointer(dwMotionKey, &pMotion))

  00009	8d 45 fc	 lea	 eax, DWORD PTR _pMotion$[ebp]
  0000c	50		 push	 eax
  0000d	ff 75 08	 push	 DWORD PTR _dwMotionKey$[ebp]
  00010	8b 4d f8	 mov	 ecx, DWORD PTR _this$[ebp]
  00013	e8 00 00 00 00	 call	 ?GetMotionThingPointer@CGraphicThingInstance@@QAE_NKPAPAVCGraphicThing@@@Z ; CGraphicThingInstance::GetMotionThingPointer
  00018	0f b6 c0	 movzx	 eax, al
  0001b	85 c0		 test	 eax, eax
  0001d	75 2f		 jne	 SHORT $LN2@GetMotionD

; 570  : 	{
; 571  : 		Tracenf("CActorInstance::GetMotionDuration - Cannot get motion: %d / %d",

  0001f	8b 45 08	 mov	 eax, DWORD PTR _dwMotionKey$[ebp]
  00022	c1 e8 08	 shr	 eax, 8
  00025	25 ff ff 00 00	 and	 eax, 65535		; 0000ffffH
  0002a	0f b7 c0	 movzx	 eax, ax
  0002d	50		 push	 eax
  0002e	8b 45 08	 mov	 eax, DWORD PTR _dwMotionKey$[ebp]
  00031	c1 e8 18	 shr	 eax, 24			; 00000018H
  00034	25 ff 00 00 00	 and	 eax, 255		; 000000ffH
  00039	0f b6 c0	 movzx	 eax, al
  0003c	50		 push	 eax
  0003d	68 00 00 00 00	 push	 OFFSET ??_C@_0DP@CBIMEEGJ@CActorInstance?3?3GetMotionDurati@
  00042	e8 00 00 00 00	 call	 ?Tracenf@@YAXPBDZZ	; Tracenf
  00047	83 c4 0c	 add	 esp, 12			; 0000000cH

; 572  : 			GET_MOTION_MODE(dwMotionKey), GET_MOTION_INDEX(dwMotionKey));
; 573  : 		return 0.0f;

  0004a	d9 ee		 fldz
  0004c	eb 25		 jmp	 SHORT $LN1@GetMotionD
$LN2@GetMotionD:

; 574  : 	}
; 575  : 
; 576  : 	if (0 == pMotion->GetMotionCount())

  0004e	8b 4d fc	 mov	 ecx, DWORD PTR _pMotion$[ebp]
  00051	e8 00 00 00 00	 call	 ?GetMotionCount@CGraphicThing@@QBEHXZ ; CGraphicThing::GetMotionCount
  00056	85 c0		 test	 eax, eax
  00058	75 04		 jne	 SHORT $LN3@GetMotionD

; 577  : 	{
; 578  : #ifdef _DEBUG
; 579  : 		Tracenf("CActorInstance::GetMotionDuration - Invalid Motion Key : %d, %d, %d",
; 580  : 				GET_MOTION_MODE(dwMotionKey), GET_MOTION_INDEX(dwMotionKey), GET_MOTION_SUB_INDEX(dwMotionKey));
; 581  : #endif
; 582  : 		return 0.0f;

  0005a	d9 ee		 fldz
  0005c	eb 15		 jmp	 SHORT $LN1@GetMotionD
$LN3@GetMotionD:

; 583  : 	}
; 584  : 
; 585  : 	CGrannyMotion * pGrannyMotion = pMotion->GetMotionPointer(0);

  0005e	6a 00		 push	 0
  00060	8b 4d fc	 mov	 ecx, DWORD PTR _pMotion$[ebp]
  00063	e8 00 00 00 00	 call	 ?GetMotionPointer@CGraphicThing@@QAEPAVCGrannyMotion@@H@Z ; CGraphicThing::GetMotionPointer
  00068	89 45 f4	 mov	 DWORD PTR _pGrannyMotion$[ebp], eax

; 586  : 	return pGrannyMotion->GetDuration();

  0006b	8b 4d f4	 mov	 ecx, DWORD PTR _pGrannyMotion$[ebp]
  0006e	e8 00 00 00 00	 call	 ?GetDuration@CGrannyMotion@@QBEMXZ ; CGrannyMotion::GetDuration
$LN1@GetMotionD:

; 587  : }

  00073	c9		 leave
  00074	c2 04 00	 ret	 4
?GetMotionDuration@CActorInstance@@IAEMK@Z ENDP		; CActorInstance::GetMotionDuration
_TEXT	ENDS
; Function compile flags: /Odspy
; File D:\Metin2 Server Files\mainline\SRC_2014\Metin2Client\GameLib\ActorInstanceMotion.cpp
; File C:\Program Files (x86)\Microsoft Visual Studio\2019\Community\VC\Tools\MSVC\14.28.29333\include\deque
; File D:\Metin2 Server Files\mainline\SRC_2014\Metin2Client\GameLib\ActorInstanceMotion.cpp
; File C:\Program Files (x86)\Microsoft Visual Studio\2019\Community\VC\Tools\MSVC\14.28.29333\include\deque
; File D:\Metin2 Server Files\mainline\SRC_2014\Metin2Client\GameLib\ActorInstanceMotion.cpp
;	COMDAT ?GetLastMotionTime@CActorInstance@@IAEMM@Z
_TEXT	SEGMENT
tv193 = -44						; size = 4
$T1 = -40						; size = 4
$T2 = -36						; size = 4
$T3 = -32						; size = 4
tv161 = -28						; size = 4
$T4 = -24						; size = 4
$T5 = -20						; size = 4
_rMotionNode$ = -16					; size = 4
tv129 = -12						; size = 4
_this$ = -8						; size = 4
$T6 = -1						; size = 1
_fBlendTime$ = 8					; size = 4
?GetLastMotionTime@CActorInstance@@IAEMM@Z PROC		; CActorInstance::GetLastMotionTime, COMDAT
; _this$ = ecx

; 551  : {

  00000	55		 push	 ebp
  00001	8b ec		 mov	 ebp, esp
  00003	83 ec 2c	 sub	 esp, 44			; 0000002cH
  00006	89 4d f8	 mov	 DWORD PTR _this$[ebp], ecx
; File C:\Program Files (x86)\Microsoft Visual Studio\2019\Community\VC\Tools\MSVC\14.28.29333\include\deque

; 1534 :         return _Mypair._Myval2;

  00009	8b 45 f8	 mov	 eax, DWORD PTR _this$[ebp]
  0000c	05 30 02 00 00	 add	 eax, 560		; 00000230H
  00011	89 45 ec	 mov	 DWORD PTR $T5[ebp], eax

; 1566 :         return _Get_data()._Mysize;

  00014	8b 45 ec	 mov	 eax, DWORD PTR $T5[ebp]
  00017	83 c0 10	 add	 eax, 16			; 00000010H
  0001a	89 45 e8	 mov	 DWORD PTR $T4[ebp], eax

; 1010 :         return _Mysize() == 0;

  0001d	8b 45 e8	 mov	 eax, DWORD PTR $T4[ebp]
  00020	83 38 00	 cmp	 DWORD PTR [eax], 0
  00023	75 09		 jne	 SHORT $LN7@GetLastMot
  00025	c7 45 f4 01 00
	00 00		 mov	 DWORD PTR tv129[ebp], 1
  0002c	eb 04		 jmp	 SHORT $LN8@GetLastMot
$LN7@GetLastMot:
  0002e	83 65 f4 00	 and	 DWORD PTR tv129[ebp], 0
$LN8@GetLastMot:
  00032	8a 45 f4	 mov	 al, BYTE PTR tv129[ebp]
  00035	88 45 ff	 mov	 BYTE PTR $T6[ebp], al
; File D:\Metin2 Server Files\mainline\SRC_2014\Metin2Client\GameLib\ActorInstanceMotion.cpp

; 552  : 	if (m_MotionDeque.empty())

  00038	0f b6 45 ff	 movzx	 eax, BYTE PTR $T6[ebp]
  0003c	85 c0		 test	 eax, eax
  0003e	74 30		 je	 SHORT $LN2@GetLastMot

; 553  : 	{
; 554  : 		if (MOTION_TYPE_ONCE == m_kCurMotNode.iMotionType)

  00040	8b 45 f8	 mov	 eax, DWORD PTR _this$[ebp]
  00043	83 b8 44 02 00
	00 01		 cmp	 DWORD PTR [eax+580], 1
  0004a	75 1a		 jne	 SHORT $LN3@GetLastMot

; 555  : 			return (m_kCurMotNode.fEndTime - fBlendTime);

  0004c	8b 45 f8	 mov	 eax, DWORD PTR _this$[ebp]
  0004f	f3 0f 10 80 58
	02 00 00	 movss	 xmm0, DWORD PTR [eax+600]
  00057	f3 0f 5c 45 08	 subss	 xmm0, DWORD PTR _fBlendTime$[ebp]
  0005c	f3 0f 11 45 e4	 movss	 DWORD PTR tv161[ebp], xmm0
  00061	d9 45 e4	 fld	 DWORD PTR tv161[ebp]
  00064	eb 59		 jmp	 SHORT $LN1@GetLastMot
$LN3@GetLastMot:

; 556  : 
; 557  : 		return GetLocalTime();

  00066	8b 4d f8	 mov	 ecx, DWORD PTR _this$[ebp]
  00069	e8 00 00 00 00	 call	 ?GetLocalTime@CGraphicThingInstance@@QAEMXZ ; CGraphicThingInstance::GetLocalTime
  0006e	eb 4f		 jmp	 SHORT $LN1@GetLastMot
$LN2@GetLastMot:
; File C:\Program Files (x86)\Microsoft Visual Studio\2019\Community\VC\Tools\MSVC\14.28.29333\include\deque

; 1534 :         return _Mypair._Myval2;

  00070	8b 45 f8	 mov	 eax, DWORD PTR _this$[ebp]
  00073	05 30 02 00 00	 add	 eax, 560		; 00000230H
  00078	89 45 e0	 mov	 DWORD PTR $T3[ebp], eax

; 1566 :         return _Get_data()._Mysize;

  0007b	8b 45 e0	 mov	 eax, DWORD PTR $T3[ebp]
  0007e	83 c0 10	 add	 eax, 16			; 00000010H
  00081	89 45 dc	 mov	 DWORD PTR $T2[ebp], eax

; 1001 :         return _Mysize();

  00084	8b 45 dc	 mov	 eax, DWORD PTR $T2[ebp]
  00087	8b 00		 mov	 eax, DWORD PTR [eax]
  00089	89 45 d8	 mov	 DWORD PTR $T1[ebp], eax
; File D:\Metin2 Server Files\mainline\SRC_2014\Metin2Client\GameLib\ActorInstanceMotion.cpp

; 560  : 	TReservingMotionNode & rMotionNode = m_MotionDeque[m_MotionDeque.size()-1];

  0008c	8b 45 d8	 mov	 eax, DWORD PTR $T1[ebp]
  0008f	48		 dec	 eax
  00090	50		 push	 eax
  00091	8b 4d f8	 mov	 ecx, DWORD PTR _this$[ebp]
  00094	81 c1 30 02 00
	00		 add	 ecx, 560		; 00000230H
  0009a	e8 00 00 00 00	 call	 ??A?$deque@USReservingMotionNode@CActorInstance@@V?$allocator@USReservingMotionNode@CActorInstance@@@std@@@std@@QAEAAUSReservingMotionNode@CActorInstance@@I@Z ; std::deque<CActorInstance::SReservingMotionNode,std::allocator<CActorInstance::SReservingMotionNode> >::operator[]
  0009f	89 45 f0	 mov	 DWORD PTR _rMotionNode$[ebp], eax

; 561  : 
; 562  : 	return rMotionNode.fStartTime + rMotionNode.fDuration - fBlendTime;

  000a2	8b 45 f0	 mov	 eax, DWORD PTR _rMotionNode$[ebp]
  000a5	8b 4d f0	 mov	 ecx, DWORD PTR _rMotionNode$[ebp]
  000a8	f3 0f 10 40 04	 movss	 xmm0, DWORD PTR [eax+4]
  000ad	f3 0f 58 41 0c	 addss	 xmm0, DWORD PTR [ecx+12]
  000b2	f3 0f 5c 45 08	 subss	 xmm0, DWORD PTR _fBlendTime$[ebp]
  000b7	f3 0f 11 45 d4	 movss	 DWORD PTR tv193[ebp], xmm0
  000bc	d9 45 d4	 fld	 DWORD PTR tv193[ebp]
$LN1@GetLastMot:

; 563  : }

  000bf	c9		 leave
  000c0	c2 04 00	 ret	 4
?GetLastMotionTime@CActorInstance@@IAEMM@Z ENDP		; CActorInstance::GetLastMotionTime
_TEXT	ENDS
; Function compile flags: /Odspy
; File D:\Metin2 Server Files\mainline\SRC_2014\Metin2Client\GameLib\ActorInstanceMotion.cpp
; File C:\Program Files (x86)\Microsoft Visual Studio\2019\Community\VC\Tools\MSVC\14.28.29333\include\vector
; File D:\Metin2 Server Files\mainline\SRC_2014\Metin2Client\GameLib\ActorInstanceMotion.cpp
; File C:\Program Files (x86)\Microsoft Visual Studio\2019\Community\VC\Tools\MSVC\14.28.29333\include\vector
; File D:\Metin2 Server Files\mainline\SRC_2014\Metin2Client\GameLib\ActorInstanceMotion.cpp
;	COMDAT ?GetRandomMotionKey@CActorInstance@@IAEKK@Z
_TEXT	SEGMENT
_c_rMotion$1 = -52					; size = 4
$T2 = -48						; size = 4
_this$ = -44						; size = 4
$T3 = -40						; size = 4
_this$ = -36						; size = 4
_this$ = -32						; size = 4
_wIndex$ = -28						; size = 2
_wMode$ = -24						; size = 2
__My_data$4 = -20					; size = 4
__My_data$5 = -16					; size = 4
_iPercentage$6 = -12					; size = 4
_c_pMotionVector$ = -8					; size = 4
_i$7 = -4						; size = 4
_dwMotionKey$ = 8					; size = 4
?GetRandomMotionKey@CActorInstance@@IAEKK@Z PROC	; CActorInstance::GetRandomMotionKey, COMDAT
; _this$ = ecx

; 590  : {

  00000	55		 push	 ebp
  00001	8b ec		 mov	 ebp, esp
  00003	83 ec 34	 sub	 esp, 52			; 00000034H
  00006	89 4d e0	 mov	 DWORD PTR _this$[ebp], ecx

; 591  : 	// NOTE :           - [levites]
; 592  : 	// FIXME :          .
; 593  : 	WORD wMode = GET_MOTION_MODE(dwMotionKey);

  00009	8b 45 08	 mov	 eax, DWORD PTR _dwMotionKey$[ebp]
  0000c	c1 e8 18	 shr	 eax, 24			; 00000018H
  0000f	25 ff 00 00 00	 and	 eax, 255		; 000000ffH
  00014	66 0f b6 c0	 movzx	 ax, al
  00018	66 89 45 e8	 mov	 WORD PTR _wMode$[ebp], ax

; 594  : 	WORD wIndex = GET_MOTION_INDEX(dwMotionKey);

  0001c	8b 45 08	 mov	 eax, DWORD PTR _dwMotionKey$[ebp]
  0001f	c1 e8 08	 shr	 eax, 8
  00022	25 ff ff 00 00	 and	 eax, 65535		; 0000ffffH
  00027	66 89 45 e4	 mov	 WORD PTR _wIndex$[ebp], ax

; 595  : 
; 596  : 	const CRaceData::TMotionVector * c_pMotionVector;
; 597  : 	if (m_pkCurRaceData->GetMotionVectorPointer(wMode, wIndex, &c_pMotionVector))

  0002b	8d 45 f8	 lea	 eax, DWORD PTR _c_pMotionVector$[ebp]
  0002e	50		 push	 eax
  0002f	ff 75 e4	 push	 DWORD PTR _wIndex$[ebp]
  00032	ff 75 e8	 push	 DWORD PTR _wMode$[ebp]
  00035	8b 45 e0	 mov	 eax, DWORD PTR _this$[ebp]
  00038	8b 88 54 03 00
	00		 mov	 ecx, DWORD PTR [eax+852]
  0003e	e8 00 00 00 00	 call	 ?GetMotionVectorPointer@CRaceData@@QAEHGGPAPBV?$vector@USMotion@CRaceData@@V?$allocator@USMotion@CRaceData@@@std@@@std@@@Z ; CRaceData::GetMotionVectorPointer
  00043	85 c0		 test	 eax, eax
  00045	0f 84 ac 00 00
	00		 je	 $LN5@GetRandomM

; 598  : 	if (c_pMotionVector->size() > 1)

  0004b	8b 45 f8	 mov	 eax, DWORD PTR _c_pMotionVector$[ebp]
  0004e	89 45 dc	 mov	 DWORD PTR _this$[ebp], eax
; File C:\Program Files (x86)\Microsoft Visual Studio\2019\Community\VC\Tools\MSVC\14.28.29333\include\vector

; 1483 :         auto& _My_data = _Mypair._Myval2;

  00051	8b 45 dc	 mov	 eax, DWORD PTR _this$[ebp]
  00054	89 45 f0	 mov	 DWORD PTR __My_data$5[ebp], eax

; 1484 :         return static_cast<size_type>(_My_data._Mylast - _My_data._Myfirst);

  00057	8b 45 f0	 mov	 eax, DWORD PTR __My_data$5[ebp]
  0005a	8b 4d f0	 mov	 ecx, DWORD PTR __My_data$5[ebp]
  0005d	8b 40 04	 mov	 eax, DWORD PTR [eax+4]
  00060	2b 01		 sub	 eax, DWORD PTR [ecx]
  00062	99		 cdq
  00063	6a 0c		 push	 12			; 0000000cH
  00065	59		 pop	 ecx
  00066	f7 f9		 idiv	 ecx
  00068	89 45 d8	 mov	 DWORD PTR $T3[ebp], eax
; File D:\Metin2 Server Files\mainline\SRC_2014\Metin2Client\GameLib\ActorInstanceMotion.cpp

; 598  : 	if (c_pMotionVector->size() > 1)

  0006b	83 7d d8 01	 cmp	 DWORD PTR $T3[ebp], 1
  0006f	0f 86 82 00 00
	00		 jbe	 $LN5@GetRandomM

; 599  : 	{
; 600  : 		int iPercentage = random() % 100;

  00075	e8 00 00 00 00	 call	 ?random@@YAKXZ		; random
  0007a	33 d2		 xor	 edx, edx
  0007c	6a 64		 push	 100			; 00000064H
  0007e	59		 pop	 ecx
  0007f	f7 f1		 div	 ecx
  00081	89 55 f4	 mov	 DWORD PTR _iPercentage$6[ebp], edx

; 601  : 		for (DWORD i = 0; i < c_pMotionVector->size(); ++i)

  00084	83 65 fc 00	 and	 DWORD PTR _i$7[ebp], 0
  00088	eb 07		 jmp	 SHORT $LN4@GetRandomM
$LN2@GetRandomM:
  0008a	8b 45 fc	 mov	 eax, DWORD PTR _i$7[ebp]
  0008d	40		 inc	 eax
  0008e	89 45 fc	 mov	 DWORD PTR _i$7[ebp], eax
$LN4@GetRandomM:
  00091	8b 45 f8	 mov	 eax, DWORD PTR _c_pMotionVector$[ebp]
  00094	89 45 d4	 mov	 DWORD PTR _this$[ebp], eax
; File C:\Program Files (x86)\Microsoft Visual Studio\2019\Community\VC\Tools\MSVC\14.28.29333\include\vector

; 1483 :         auto& _My_data = _Mypair._Myval2;

  00097	8b 45 d4	 mov	 eax, DWORD PTR _this$[ebp]
  0009a	89 45 ec	 mov	 DWORD PTR __My_data$4[ebp], eax

; 1484 :         return static_cast<size_type>(_My_data._Mylast - _My_data._Myfirst);

  0009d	8b 45 ec	 mov	 eax, DWORD PTR __My_data$4[ebp]
  000a0	8b 4d ec	 mov	 ecx, DWORD PTR __My_data$4[ebp]
  000a3	8b 40 04	 mov	 eax, DWORD PTR [eax+4]
  000a6	2b 01		 sub	 eax, DWORD PTR [ecx]
  000a8	99		 cdq
  000a9	6a 0c		 push	 12			; 0000000cH
  000ab	59		 pop	 ecx
  000ac	f7 f9		 idiv	 ecx
  000ae	89 45 d0	 mov	 DWORD PTR $T2[ebp], eax
; File D:\Metin2 Server Files\mainline\SRC_2014\Metin2Client\GameLib\ActorInstanceMotion.cpp

; 601  : 		for (DWORD i = 0; i < c_pMotionVector->size(); ++i)

  000b1	8b 45 fc	 mov	 eax, DWORD PTR _i$7[ebp]
  000b4	3b 45 d0	 cmp	 eax, DWORD PTR $T2[ebp]
  000b7	73 3e		 jae	 SHORT $LN5@GetRandomM

; 602  : 		{
; 603  : 			const CRaceData::TMotion & c_rMotion = c_pMotionVector->at(i);

  000b9	ff 75 fc	 push	 DWORD PTR _i$7[ebp]
  000bc	8b 4d f8	 mov	 ecx, DWORD PTR _c_pMotionVector$[ebp]
  000bf	e8 00 00 00 00	 call	 ?at@?$vector@USMotion@CRaceData@@V?$allocator@USMotion@CRaceData@@@std@@@std@@QBEABUSMotion@CRaceData@@I@Z ; std::vector<CRaceData::SMotion,std::allocator<CRaceData::SMotion> >::at
  000c4	89 45 cc	 mov	 DWORD PTR _c_rMotion$1[ebp], eax

; 604  : 			iPercentage -= c_rMotion.byPercentage;

  000c7	8b 45 cc	 mov	 eax, DWORD PTR _c_rMotion$1[ebp]
  000ca	0f b6 00	 movzx	 eax, BYTE PTR [eax]
  000cd	8b 4d f4	 mov	 ecx, DWORD PTR _iPercentage$6[ebp]
  000d0	2b c8		 sub	 ecx, eax
  000d2	89 4d f4	 mov	 DWORD PTR _iPercentage$6[ebp], ecx

; 605  : 
; 606  : 			if (iPercentage < 0)

  000d5	79 1e		 jns	 SHORT $LN7@GetRandomM

; 607  : 			{
; 608  : 				dwMotionKey = MAKE_RANDOM_MOTION_KEY(wMode, wIndex, i);

  000d7	0f b6 45 e8	 movzx	 eax, BYTE PTR _wMode$[ebp]
  000db	c1 e0 18	 shl	 eax, 24			; 00000018H
  000de	0f b7 4d e4	 movzx	 ecx, WORD PTR _wIndex$[ebp]
  000e2	c1 e1 08	 shl	 ecx, 8
  000e5	0b c1		 or	 eax, ecx
  000e7	0f b6 4d fc	 movzx	 ecx, BYTE PTR _i$7[ebp]
  000eb	0b c1		 or	 eax, ecx
  000ed	89 45 08	 mov	 DWORD PTR _dwMotionKey$[ebp], eax

; 609  : 
; 610  : 				// Temporary
; 611  : 				// NOTE:    .          .   ..
; 612  : 				// m_kCurMotNode.fEndTime = m_kCurMotNode.fStartTime + GetMotionDuration(dwMotionKey);
; 613  : 				// Temporary
; 614  : 
; 615  : 				return dwMotionKey;

  000f0	8b 45 08	 mov	 eax, DWORD PTR _dwMotionKey$[ebp]
  000f3	eb 05		 jmp	 SHORT $LN1@GetRandomM
$LN7@GetRandomM:

; 616  : 			}
; 617  : 		}

  000f5	eb 93		 jmp	 SHORT $LN2@GetRandomM
$LN5@GetRandomM:

; 618  : 	}
; 619  : 
; 620  : 	return dwMotionKey;

  000f7	8b 45 08	 mov	 eax, DWORD PTR _dwMotionKey$[ebp]
$LN1@GetRandomM:

; 621  : }

  000fa	c9		 leave
  000fb	c2 04 00	 ret	 4
?GetRandomMotionKey@CActorInstance@@IAEKK@Z ENDP	; CActorInstance::GetRandomMotionKey
_TEXT	ENDS
; Function compile flags: /Odspy
; File D:\Metin2 Server Files\mainline\SRC_2014\Metin2Client\GameLib\ActorInstanceMotion.cpp
; File C:\Program Files (x86)\Microsoft Visual Studio\2019\Community\VC\Tools\MSVC\14.28.29333\include\deque
; File D:\Metin2 Server Files\mainline\SRC_2014\Metin2Client\GameLib\ActorInstanceMotion.cpp
; File C:\Program Files (x86)\Microsoft Visual Studio\2019\Community\VC\Tools\MSVC\14.28.29333\include\deque
; File D:\Metin2 Server Files\mainline\SRC_2014\Metin2Client\GameLib\ActorInstanceMotion.cpp
;	COMDAT ?CurrentMotionProcess@CActorInstance@@IAEXXZ
_TEXT	SEGMENT
tv401 = -76						; size = 4
tv392 = -72						; size = 4
tv387 = -68						; size = 4
tv431 = -64						; size = 4
$T1 = -60						; size = 4
$T2 = -56						; size = 4
tv366 = -52						; size = 4
tv335 = -48						; size = 4
tv312 = -44						; size = 4
tv429 = -40						; size = 4
$T3 = -36						; size = 4
$T4 = -32						; size = 4
_dwMotionIndex$ = -28					; size = 4
tv275 = -24						; size = 4
tv268 = -20						; size = 4
_fCurrentTime$ = -16					; size = 4
tv238 = -12						; size = 4
_this$ = -8						; size = 4
$T5 = -3						; size = 1
$T6 = -2						; size = 1
_isLooping$ = -1					; size = 1
?CurrentMotionProcess@CActorInstance@@IAEXXZ PROC	; CActorInstance::CurrentMotionProcess, COMDAT
; _this$ = ecx

; 155  : {

  00000	55		 push	 ebp
  00001	8b ec		 mov	 ebp, esp
  00003	83 ec 4c	 sub	 esp, 76			; 0000004cH
  00006	89 4d f8	 mov	 DWORD PTR _this$[ebp], ecx

; 156  : 	if (MOTION_TYPE_LOOP == m_kCurMotNode.iMotionType) // .   Once   . - [levites]

  00009	8b 45 f8	 mov	 eax, DWORD PTR _this$[ebp]
  0000c	83 b8 44 02 00
	00 02		 cmp	 DWORD PTR [eax+580], 2
  00013	75 1e		 jne	 SHORT $LN5@CurrentMot

; 157  : 		if (m_kCurMotNode.dwcurFrame >= m_kCurMotNode.dwFrameCount)

  00015	8b 45 f8	 mov	 eax, DWORD PTR _this$[ebp]
  00018	8b 4d f8	 mov	 ecx, DWORD PTR _this$[ebp]
  0001b	8b 80 4c 02 00
	00		 mov	 eax, DWORD PTR [eax+588]
  00021	3b 81 50 02 00
	00		 cmp	 eax, DWORD PTR [ecx+592]
  00027	72 0a		 jb	 SHORT $LN5@CurrentMot

; 158  : 			m_kCurMotNode.dwcurFrame = 0;

  00029	8b 45 f8	 mov	 eax, DWORD PTR _this$[ebp]
  0002c	83 a0 4c 02 00
	00 00		 and	 DWORD PTR [eax+588], 0
$LN5@CurrentMot:

; 159  : 
; 160  : 	if (IsDead())

  00033	8b 4d f8	 mov	 ecx, DWORD PTR _this$[ebp]
  00036	e8 00 00 00 00	 call	 ?IsDead@CActorInstance@@QAEHXZ ; CActorInstance::IsDead
  0003b	85 c0		 test	 eax, eax
  0003d	74 05		 je	 SHORT $LN6@CurrentMot

; 161  : 		return;

  0003f	e9 7f 03 00 00	 jmp	 $LN1@CurrentMot
$LN6@CurrentMot:
; File C:\Program Files (x86)\Microsoft Visual Studio\2019\Community\VC\Tools\MSVC\14.28.29333\include\deque

; 1534 :         return _Mypair._Myval2;

  00044	8b 45 f8	 mov	 eax, DWORD PTR _this$[ebp]
  00047	05 30 02 00 00	 add	 eax, 560		; 00000230H
  0004c	89 45 e0	 mov	 DWORD PTR $T4[ebp], eax

; 1566 :         return _Get_data()._Mysize;

  0004f	8b 45 e0	 mov	 eax, DWORD PTR $T4[ebp]
  00052	83 c0 10	 add	 eax, 16			; 00000010H
  00055	89 45 dc	 mov	 DWORD PTR $T3[ebp], eax

; 1010 :         return _Mysize() == 0;

  00058	8b 45 dc	 mov	 eax, DWORD PTR $T3[ebp]
  0005b	83 38 00	 cmp	 DWORD PTR [eax], 0
  0005e	75 09		 jne	 SHORT $LN29@CurrentMot
  00060	c7 45 ec 01 00
	00 00		 mov	 DWORD PTR tv268[ebp], 1
  00067	eb 04		 jmp	 SHORT $LN30@CurrentMot
$LN29@CurrentMot:
  00069	83 65 ec 00	 and	 DWORD PTR tv268[ebp], 0
$LN30@CurrentMot:
  0006d	8a 45 ec	 mov	 al, BYTE PTR tv268[ebp]
  00070	88 45 fe	 mov	 BYTE PTR $T6[ebp], al
; File D:\Metin2 Server Files\mainline\SRC_2014\Metin2Client\GameLib\ActorInstanceMotion.cpp

; 163  : 	if (!m_MotionDeque.empty())

  00073	0f b6 45 fe	 movzx	 eax, BYTE PTR $T6[ebp]
  00077	85 c0		 test	 eax, eax
  00079	75 05		 jne	 SHORT $LN7@CurrentMot

; 164  : 		return;

  0007b	e9 43 03 00 00	 jmp	 $LN1@CurrentMot
$LN7@CurrentMot:

; 165  : 
; 166  : 	float fCurrentTime = GetLocalTime();

  00080	8b 4d f8	 mov	 ecx, DWORD PTR _this$[ebp]
  00083	e8 00 00 00 00	 call	 ?GetLocalTime@CGraphicThingInstance@@QAEMXZ ; CGraphicThingInstance::GetLocalTime
  00088	d9 5d f0	 fstp	 DWORD PTR _fCurrentTime$[ebp]

; 167  : 
; 168  : 	DWORD dwMotionIndex=GET_MOTION_INDEX(m_kCurMotNode.dwMotionKey);

  0008b	8b 45 f8	 mov	 eax, DWORD PTR _this$[ebp]
  0008e	8b 80 48 02 00
	00		 mov	 eax, DWORD PTR [eax+584]
  00094	c1 e8 08	 shr	 eax, 8
  00097	25 ff ff 00 00	 and	 eax, 65535		; 0000ffffH
  0009c	0f b7 c0	 movzx	 eax, ax
  0009f	89 45 e4	 mov	 DWORD PTR _dwMotionIndex$[ebp], eax

; 169  : 
; 170  : 	bool isLooping=false;

  000a2	c6 45 ff 00	 mov	 BYTE PTR _isLooping$[ebp], 0

; 171  : 
; 172  : 	//  Playing Flag 
; 173  : 	if (m_pkCurRaceMotionData && m_pkCurRaceMotionData->IsLoopMotion())

  000a6	8b 45 f8	 mov	 eax, DWORD PTR _this$[ebp]
  000a9	83 b8 58 03 00
	00 00		 cmp	 DWORD PTR [eax+856], 0
  000b0	0f 84 06 02 00
	00		 je	 $LN16@CurrentMot
  000b6	8b 45 f8	 mov	 eax, DWORD PTR _this$[ebp]
  000b9	8b 88 58 03 00
	00		 mov	 ecx, DWORD PTR [eax+856]
  000bf	e8 00 00 00 00	 call	 ?IsLoopMotion@CRaceMotionData@@QBEHXZ ; CRaceMotionData::IsLoopMotion
  000c4	85 c0		 test	 eax, eax
  000c6	0f 84 f0 01 00
	00		 je	 $LN16@CurrentMot

; 174  : 	{
; 175  : 		if (m_kCurMotNode.iLoopCount > 1 || m_kCurMotNode.iLoopCount == -1)

  000cc	8b 45 f8	 mov	 eax, DWORD PTR _this$[ebp]
  000cf	83 b8 60 02 00
	00 01		 cmp	 DWORD PTR [eax+608], 1
  000d6	7f 10		 jg	 SHORT $LN11@CurrentMot
  000d8	8b 45 f8	 mov	 eax, DWORD PTR _this$[ebp]
  000db	83 b8 60 02 00
	00 ff		 cmp	 DWORD PTR [eax+608], -1
  000e2	0f 85 b4 00 00
	00		 jne	 $LN9@CurrentMot
$LN11@CurrentMot:

; 176  : 		{
; 177  : 			if (fCurrentTime - m_kCurMotNode.fStartTime > m_pkCurRaceMotionData->GetLoopEndTime())

  000e8	8b 45 f8	 mov	 eax, DWORD PTR _this$[ebp]
  000eb	f3 0f 10 45 f0	 movss	 xmm0, DWORD PTR _fCurrentTime$[ebp]
  000f0	f3 0f 5c 80 54
	02 00 00	 subss	 xmm0, DWORD PTR [eax+596]
  000f8	8b 45 f8	 mov	 eax, DWORD PTR _this$[ebp]
  000fb	8b 88 58 03 00
	00		 mov	 ecx, DWORD PTR [eax+856]
  00101	f3 0f 11 45 d8	 movss	 DWORD PTR tv429[ebp], xmm0
  00106	e8 00 00 00 00	 call	 ?GetLoopEndTime@CRaceMotionData@@QBEMXZ ; CRaceMotionData::GetLoopEndTime
  0010b	d9 5d d4	 fstp	 DWORD PTR tv312[ebp]
  0010e	f3 0f 10 45 d8	 movss	 xmm0, DWORD PTR tv429[ebp]
  00113	0f 2f 45 d4	 comiss	 xmm0, DWORD PTR tv312[ebp]
  00117	76 7e		 jbe	 SHORT $LN12@CurrentMot

; 178  : 			{
; 179  : 				m_kCurMotNode.dwcurFrame = DWORD(m_pkCurRaceMotionData->GetLoopStartTime() * g_fGameFPS);

  00119	8b 45 f8	 mov	 eax, DWORD PTR _this$[ebp]
  0011c	8b 88 58 03 00
	00		 mov	 ecx, DWORD PTR [eax+856]
  00122	e8 00 00 00 00	 call	 ?GetLoopStartTime@CRaceMotionData@@QBEMXZ ; CRaceMotionData::GetLoopStartTime
  00127	d9 5d d0	 fstp	 DWORD PTR tv335[ebp]
  0012a	f3 0f 10 45 d0	 movss	 xmm0, DWORD PTR tv335[ebp]
  0012f	f3 0f 59 05 00
	00 00 00	 mulss	 xmm0, DWORD PTR ?g_fGameFPS@@3MA
  00137	e8 00 00 00 00	 call	 __ftoui3
  0013c	8b 4d f8	 mov	 ecx, DWORD PTR _this$[ebp]
  0013f	89 81 4c 02 00
	00		 mov	 DWORD PTR [ecx+588], eax

; 180  : 				__SetLocalTime(m_kCurMotNode.fStartTime + m_pkCurRaceMotionData->GetLoopStartTime());

  00145	8b 45 f8	 mov	 eax, DWORD PTR _this$[ebp]
  00148	8b 88 58 03 00
	00		 mov	 ecx, DWORD PTR [eax+856]
  0014e	e8 00 00 00 00	 call	 ?GetLoopStartTime@CRaceMotionData@@QBEMXZ ; CRaceMotionData::GetLoopStartTime
  00153	d9 5d cc	 fstp	 DWORD PTR tv366[ebp]
  00156	8b 45 f8	 mov	 eax, DWORD PTR _this$[ebp]
  00159	f3 0f 10 45 cc	 movss	 xmm0, DWORD PTR tv366[ebp]
  0015e	f3 0f 58 80 54
	02 00 00	 addss	 xmm0, DWORD PTR [eax+596]
  00166	51		 push	 ecx
  00167	f3 0f 11 04 24	 movss	 DWORD PTR [esp], xmm0
  0016c	8b 4d f8	 mov	 ecx, DWORD PTR _this$[ebp]
  0016f	e8 00 00 00 00	 call	 ?__SetLocalTime@CGraphicThingInstance@@QAEXM@Z ; CGraphicThingInstance::__SetLocalTime

; 181  : 				if (-1 != m_kCurMotNode.iLoopCount)

  00174	8b 45 f8	 mov	 eax, DWORD PTR _this$[ebp]
  00177	83 b8 60 02 00
	00 ff		 cmp	 DWORD PTR [eax+608], -1
  0017e	74 13		 je	 SHORT $LN13@CurrentMot

; 182  : 					--m_kCurMotNode.iLoopCount;

  00180	8b 45 f8	 mov	 eax, DWORD PTR _this$[ebp]
  00183	8b 80 60 02 00
	00		 mov	 eax, DWORD PTR [eax+608]
  00189	48		 dec	 eax
  0018a	8b 4d f8	 mov	 ecx, DWORD PTR _this$[ebp]
  0018d	89 81 60 02 00
	00		 mov	 DWORD PTR [ecx+608], eax
$LN13@CurrentMot:

; 183  : 
; 184  : 				isLooping=true;

  00193	c6 45 ff 01	 mov	 BYTE PTR _isLooping$[ebp], 1
$LN12@CurrentMot:

; 185  : 			}
; 186  : 		}

  00197	e9 20 01 00 00	 jmp	 $LN16@CurrentMot
$LN9@CurrentMot:
; File C:\Program Files (x86)\Microsoft Visual Studio\2019\Community\VC\Tools\MSVC\14.28.29333\include\deque

; 1534 :         return _Mypair._Myval2;

  0019c	8b 45 f8	 mov	 eax, DWORD PTR _this$[ebp]
  0019f	05 1c 02 00 00	 add	 eax, 540		; 0000021cH
  001a4	89 45 c8	 mov	 DWORD PTR $T2[ebp], eax

; 1566 :         return _Get_data()._Mysize;

  001a7	8b 45 c8	 mov	 eax, DWORD PTR $T2[ebp]
  001aa	83 c0 10	 add	 eax, 16			; 00000010H
  001ad	89 45 c4	 mov	 DWORD PTR $T1[ebp], eax

; 1010 :         return _Mysize() == 0;

  001b0	8b 45 c4	 mov	 eax, DWORD PTR $T1[ebp]
  001b3	83 38 00	 cmp	 DWORD PTR [eax], 0
  001b6	75 09		 jne	 SHORT $LN40@CurrentMot
  001b8	c7 45 e8 01 00
	00 00		 mov	 DWORD PTR tv275[ebp], 1
  001bf	eb 04		 jmp	 SHORT $LN41@CurrentMot
$LN40@CurrentMot:
  001c1	83 65 e8 00	 and	 DWORD PTR tv275[ebp], 0
$LN41@CurrentMot:
  001c5	8a 45 e8	 mov	 al, BYTE PTR tv275[ebp]
  001c8	88 45 fd	 mov	 BYTE PTR $T5[ebp], al
; File D:\Metin2 Server Files\mainline\SRC_2014\Metin2Client\GameLib\ActorInstanceMotion.cpp

; 187  : 		else if (!m_kQue_kFlyTarget.empty())

  001cb	0f b6 45 fd	 movzx	 eax, BYTE PTR $T5[ebp]
  001cf	85 c0		 test	 eax, eax
  001d1	0f 85 e5 00 00
	00		 jne	 $LN16@CurrentMot

; 188  : 		{
; 189  : 			if (!m_kBackupFlyTarget.IsObject())

  001d7	8b 4d f8	 mov	 ecx, DWORD PTR _this$[ebp]
  001da	81 c1 04 02 00
	00		 add	 ecx, 516		; 00000204H
  001e0	e8 00 00 00 00	 call	 ?IsObject@CFlyTarget@@QAE_NXZ ; CFlyTarget::IsObject
  001e5	0f b6 c0	 movzx	 eax, al
  001e8	85 c0		 test	 eax, eax
  001ea	75 17		 jne	 SHORT $LN15@CurrentMot

; 190  : 			{
; 191  : 				m_kBackupFlyTarget = m_kFlyTarget;

  001ec	8b 45 f8	 mov	 eax, DWORD PTR _this$[ebp]
  001ef	05 ec 01 00 00	 add	 eax, 492		; 000001ecH
  001f4	50		 push	 eax
  001f5	8b 4d f8	 mov	 ecx, DWORD PTR _this$[ebp]
  001f8	81 c1 04 02 00
	00		 add	 ecx, 516		; 00000204H
  001fe	e8 00 00 00 00	 call	 ??4CFlyTarget@@QAEAAV0@ABV0@@Z ; CFlyTarget::operator=
$LN15@CurrentMot:

; 192  : 			}
; 193  : 
; 194  : 			if (fCurrentTime - m_kCurMotNode.fStartTime > m_pkCurRaceMotionData->GetLoopEndTime())

  00203	8b 45 f8	 mov	 eax, DWORD PTR _this$[ebp]
  00206	f3 0f 10 45 f0	 movss	 xmm0, DWORD PTR _fCurrentTime$[ebp]
  0020b	f3 0f 5c 80 54
	02 00 00	 subss	 xmm0, DWORD PTR [eax+596]
  00213	8b 45 f8	 mov	 eax, DWORD PTR _this$[ebp]
  00216	8b 88 58 03 00
	00		 mov	 ecx, DWORD PTR [eax+856]
  0021c	f3 0f 11 45 c0	 movss	 DWORD PTR tv431[ebp], xmm0
  00221	e8 00 00 00 00	 call	 ?GetLoopEndTime@CRaceMotionData@@QBEMXZ ; CRaceMotionData::GetLoopEndTime
  00226	d9 5d bc	 fstp	 DWORD PTR tv387[ebp]
  00229	f3 0f 10 45 c0	 movss	 xmm0, DWORD PTR tv431[ebp]
  0022e	0f 2f 45 bc	 comiss	 xmm0, DWORD PTR tv387[ebp]
  00232	0f 86 84 00 00
	00		 jbe	 $LN16@CurrentMot

; 195  : 			{
; 196  : 				m_kCurMotNode.dwcurFrame = DWORD(m_pkCurRaceMotionData->GetLoopStartTime() * g_fGameFPS);

  00238	8b 45 f8	 mov	 eax, DWORD PTR _this$[ebp]
  0023b	8b 88 58 03 00
	00		 mov	 ecx, DWORD PTR [eax+856]
  00241	e8 00 00 00 00	 call	 ?GetLoopStartTime@CRaceMotionData@@QBEMXZ ; CRaceMotionData::GetLoopStartTime
  00246	d9 5d b8	 fstp	 DWORD PTR tv392[ebp]
  00249	f3 0f 10 45 b8	 movss	 xmm0, DWORD PTR tv392[ebp]
  0024e	f3 0f 59 05 00
	00 00 00	 mulss	 xmm0, DWORD PTR ?g_fGameFPS@@3MA
  00256	e8 00 00 00 00	 call	 __ftoui3
  0025b	8b 4d f8	 mov	 ecx, DWORD PTR _this$[ebp]
  0025e	89 81 4c 02 00
	00		 mov	 DWORD PTR [ecx+588], eax

; 197  : 				__SetLocalTime(m_kCurMotNode.fStartTime + m_pkCurRaceMotionData->GetLoopStartTime());

  00264	8b 45 f8	 mov	 eax, DWORD PTR _this$[ebp]
  00267	8b 88 58 03 00
	00		 mov	 ecx, DWORD PTR [eax+856]
  0026d	e8 00 00 00 00	 call	 ?GetLoopStartTime@CRaceMotionData@@QBEMXZ ; CRaceMotionData::GetLoopStartTime
  00272	d9 5d b4	 fstp	 DWORD PTR tv401[ebp]
  00275	8b 45 f8	 mov	 eax, DWORD PTR _this$[ebp]
  00278	f3 0f 10 45 b4	 movss	 xmm0, DWORD PTR tv401[ebp]
  0027d	f3 0f 58 80 54
	02 00 00	 addss	 xmm0, DWORD PTR [eax+596]
  00285	51		 push	 ecx
  00286	f3 0f 11 04 24	 movss	 DWORD PTR [esp], xmm0
  0028b	8b 4d f8	 mov	 ecx, DWORD PTR _this$[ebp]
  0028e	e8 00 00 00 00	 call	 ?__SetLocalTime@CGraphicThingInstance@@QAEXM@Z ; CGraphicThingInstance::__SetLocalTime

; 198  : 
; 199  : 				SetFlyTarget(m_kQue_kFlyTarget.front());

  00293	8b 4d f8	 mov	 ecx, DWORD PTR _this$[ebp]
  00296	81 c1 1c 02 00
	00		 add	 ecx, 540		; 0000021cH
  0029c	e8 00 00 00 00	 call	 ?front@?$deque@VCFlyTarget@@V?$allocator@VCFlyTarget@@@std@@@std@@QAEAAVCFlyTarget@@XZ ; std::deque<CFlyTarget,std::allocator<CFlyTarget> >::front
  002a1	50		 push	 eax
  002a2	8b 4d f8	 mov	 ecx, DWORD PTR _this$[ebp]
  002a5	e8 00 00 00 00	 call	 ?SetFlyTarget@CActorInstance@@QAEXABVCFlyTarget@@@Z ; CActorInstance::SetFlyTarget

; 200  : 				m_kQue_kFlyTarget.pop_front();

  002aa	8b 4d f8	 mov	 ecx, DWORD PTR _this$[ebp]
  002ad	81 c1 1c 02 00
	00		 add	 ecx, 540		; 0000021cH
  002b3	e8 00 00 00 00	 call	 ?pop_front@?$deque@VCFlyTarget@@V?$allocator@VCFlyTarget@@@std@@@std@@QAEXXZ ; std::deque<CFlyTarget,std::allocator<CFlyTarget> >::pop_front

; 201  : 
; 202  : 				isLooping=true;

  002b8	c6 45 ff 01	 mov	 BYTE PTR _isLooping$[ebp], 1
$LN16@CurrentMot:

; 203  : 			}
; 204  : 		}
; 205  : 	}
; 206  : 
; 207  : 	if (!isLooping)

  002bc	0f b6 45 ff	 movzx	 eax, BYTE PTR _isLooping$[ebp]
  002c0	85 c0		 test	 eax, eax
  002c2	0f 85 fb 00 00
	00		 jne	 $LN25@CurrentMot

; 208  : 	{
; 209  : 		if (fCurrentTime > m_kCurMotNode.fEndTime)

  002c8	8b 45 f8	 mov	 eax, DWORD PTR _this$[ebp]
  002cb	f3 0f 10 45 f0	 movss	 xmm0, DWORD PTR _fCurrentTime$[ebp]
  002d0	0f 2f 80 58 02
	00 00		 comiss	 xmm0, DWORD PTR [eax+600]
  002d7	0f 86 e6 00 00
	00		 jbe	 $LN25@CurrentMot

; 210  : 		{
; 211  : 			if (m_kBackupFlyTarget.IsValidTarget())

  002dd	8b 4d f8	 mov	 ecx, DWORD PTR _this$[ebp]
  002e0	81 c1 04 02 00
	00		 add	 ecx, 516		; 00000204H
  002e6	e8 00 00 00 00	 call	 ?IsValidTarget@CFlyTarget@@QAE_NXZ ; CFlyTarget::IsValidTarget
  002eb	0f b6 c0	 movzx	 eax, al
  002ee	85 c0		 test	 eax, eax
  002f0	74 25		 je	 SHORT $LN19@CurrentMot

; 212  : 			{
; 213  : 				m_kFlyTarget = m_kBackupFlyTarget;

  002f2	8b 45 f8	 mov	 eax, DWORD PTR _this$[ebp]
  002f5	05 04 02 00 00	 add	 eax, 516		; 00000204H
  002fa	50		 push	 eax
  002fb	8b 4d f8	 mov	 ecx, DWORD PTR _this$[ebp]
  002fe	81 c1 ec 01 00
	00		 add	 ecx, 492		; 000001ecH
  00304	e8 00 00 00 00	 call	 ??4CFlyTarget@@QAEAAV0@ABV0@@Z ; CFlyTarget::operator=

; 214  : 				m_kBackupFlyTarget.Clear();

  00309	8b 4d f8	 mov	 ecx, DWORD PTR _this$[ebp]
  0030c	81 c1 04 02 00
	00		 add	 ecx, 516		; 00000204H
  00312	e8 00 00 00 00	 call	 ?Clear@CFlyTarget@@QAEXXZ ; CFlyTarget::Clear
$LN19@CurrentMot:

; 215  : 			}
; 216  : 
; 217  : 			////////////////////////////////////////////
; 218  : 
; 219  : 			if (MOTION_TYPE_ONCE == m_kCurMotNode.iMotionType)

  00317	8b 45 f8	 mov	 eax, DWORD PTR _this$[ebp]
  0031a	83 b8 44 02 00
	00 01		 cmp	 DWORD PTR [eax+580], 1
  00321	75 68		 jne	 SHORT $LN20@CurrentMot

; 220  : 			{
; 221  : 				switch (dwMotionIndex)

  00323	8b 45 e4	 mov	 eax, DWORD PTR _dwMotionIndex$[ebp]
  00326	89 45 f4	 mov	 DWORD PTR tv238[ebp], eax
  00329	83 7d f4 06	 cmp	 DWORD PTR tv238[ebp], 6
  0032d	74 1a		 je	 SHORT $LN22@CurrentMot
  0032f	83 7d f4 09	 cmp	 DWORD PTR tv238[ebp], 9
  00333	74 14		 je	 SHORT $LN22@CurrentMot
  00335	83 7d f4 0b	 cmp	 DWORD PTR tv238[ebp], 11 ; 0000000bH
  00339	74 0e		 je	 SHORT $LN22@CurrentMot
  0033b	83 7d f4 16	 cmp	 DWORD PTR tv238[ebp], 22 ; 00000016H
  0033f	76 30		 jbe	 SHORT $LN23@CurrentMot
  00341	83 7d f4 18	 cmp	 DWORD PTR tv238[ebp], 24 ; 00000018H
  00345	76 02		 jbe	 SHORT $LN22@CurrentMot
  00347	eb 28		 jmp	 SHORT $LN23@CurrentMot
$LN22@CurrentMot:

; 222  : 				{
; 223  : 					case CRaceMotionData::NAME_DAMAGE_FLYING:
; 224  : 					case CRaceMotionData::NAME_DAMAGE_FLYING_BACK:
; 225  : 					case CRaceMotionData::NAME_DEAD:
; 226  : 					case CRaceMotionData::NAME_INTRO_SELECTED:
; 227  : 					case CRaceMotionData::NAME_INTRO_NOT_SELECTED:
; 228  : 						m_kCurMotNode.fEndTime+=3.0f;

  00349	8b 45 f8	 mov	 eax, DWORD PTR _this$[ebp]
  0034c	f3 0f 10 80 58
	02 00 00	 movss	 xmm0, DWORD PTR [eax+600]
  00354	f3 0f 58 05 00
	00 00 00	 addss	 xmm0, DWORD PTR __real@40400000
  0035c	8b 45 f8	 mov	 eax, DWORD PTR _this$[ebp]
  0035f	f3 0f 11 80 58
	02 00 00	 movss	 DWORD PTR [eax+600], xmm0

; 229  : 						SetEndStopMotion();

  00367	8b 4d f8	 mov	 ecx, DWORD PTR _this$[ebp]
  0036a	e8 00 00 00 00	 call	 ?SetEndStopMotion@CGraphicThingInstance@@QAEXXZ ; CGraphicThingInstance::SetEndStopMotion

; 230  : 						break;

  0036f	eb 18		 jmp	 SHORT $LN2@CurrentMot
$LN23@CurrentMot:

; 231  : 					default:
; 232  : 						InterceptLoopMotion(CRaceMotionData::NAME_WAIT);

  00371	51		 push	 ecx
  00372	f3 0f 10 05 00
	00 00 00	 movss	 xmm0, DWORD PTR __real@3dcccccd
  0037a	f3 0f 11 04 24	 movss	 DWORD PTR [esp], xmm0
  0037f	6a 01		 push	 1
  00381	8b 4d f8	 mov	 ecx, DWORD PTR _this$[ebp]
  00384	e8 00 00 00 00	 call	 ?InterceptLoopMotion@CActorInstance@@QAE_NKM@Z ; CActorInstance::InterceptLoopMotion
$LN2@CurrentMot:

; 233  : 						break;
; 234  : 				}
; 235  : 			}

  00389	eb 38		 jmp	 SHORT $LN25@CurrentMot
$LN20@CurrentMot:

; 236  : 			else if (MOTION_TYPE_LOOP == m_kCurMotNode.iMotionType)

  0038b	8b 45 f8	 mov	 eax, DWORD PTR _this$[ebp]
  0038e	83 b8 44 02 00
	00 02		 cmp	 DWORD PTR [eax+580], 2
  00395	75 2c		 jne	 SHORT $LN25@CurrentMot

; 237  : 			{
; 238  : 				if (CRaceMotionData::NAME_WAIT == dwMotionIndex)

  00397	83 7d e4 01	 cmp	 DWORD PTR _dwMotionIndex$[ebp], 1
  0039b	75 26		 jne	 SHORT $LN25@CurrentMot

; 239  : 				{
; 240  : 					PushLoopMotion(CRaceMotionData::NAME_WAIT, 0.5f);

  0039d	51		 push	 ecx
  0039e	f3 0f 10 05 00
	00 00 00	 movss	 xmm0, DWORD PTR __real@3f800000
  003a6	f3 0f 11 04 24	 movss	 DWORD PTR [esp], xmm0
  003ab	51		 push	 ecx
  003ac	f3 0f 10 05 00
	00 00 00	 movss	 xmm0, DWORD PTR __real@3f000000
  003b4	f3 0f 11 04 24	 movss	 DWORD PTR [esp], xmm0
  003b9	6a 01		 push	 1
  003bb	8b 4d f8	 mov	 ecx, DWORD PTR _this$[ebp]
  003be	e8 00 00 00 00	 call	 ?PushLoopMotion@CActorInstance@@QAE_NKMM@Z ; CActorInstance::PushLoopMotion
$LN25@CurrentMot:
$LN1@CurrentMot:

; 241  : 				}
; 242  : 			}
; 243  : 		}
; 244  : 	}
; 245  : }

  003c3	c9		 leave
  003c4	c3		 ret	 0
?CurrentMotionProcess@CActorInstance@@IAEXXZ ENDP	; CActorInstance::CurrentMotionProcess
_TEXT	ENDS
; Function compile flags: /Odspy
; File D:\Metin2 Server Files\mainline\SRC_2014\Metin2Client\GameLib\ActorInstanceMotion.cpp
; File C:\Program Files (x86)\Microsoft Visual Studio\2019\Community\VC\Tools\MSVC\14.28.29333\include\deque
; File D:\Metin2 Server Files\mainline\SRC_2014\Metin2Client\GameLib\ActorInstanceMotion.cpp
; File C:\Program Files (x86)\Microsoft Visual Studio\2019\Community\VC\Tools\MSVC\14.28.29333\include\deque
; File D:\Metin2 Server Files\mainline\SRC_2014\Metin2Client\GameLib\ActorInstanceMotion.cpp
; File C:\Program Files (x86)\Microsoft Visual Studio\2019\Community\VC\Tools\MSVC\14.28.29333\include\deque
; File D:\Metin2 Server Files\mainline\SRC_2014\Metin2Client\GameLib\ActorInstanceMotion.cpp
; File C:\Program Files (x86)\Microsoft Visual Studio\2019\Community\VC\Tools\MSVC\14.28.29333\include\deque
; File D:\Metin2 Server Files\mainline\SRC_2014\Metin2Client\GameLib\ActorInstanceMotion.cpp
; File D:\Metin2 Server Files\mainline\SRC_2014\Metin2Client\GameLib\ActorInstance.h
; File D:\Metin2 Server Files\mainline\SRC_2014\Metin2Client\GameLib\ActorInstanceMotion.cpp
;	COMDAT ?ReservingMotionProcess@CActorInstance@@IAEXXZ
_TEXT	SEGMENT
$T1 = -68						; size = 12
_itor$2 = -56						; size = 12
_kSetMotData$ = -44					; size = 20
_fEndTime$ = -24					; size = 4
tv462 = -20						; size = 4
_fBlendTime$ = -16					; size = 4
_dwCurrentMotionIndex$ = -12				; size = 4
$T3 = -8						; size = 4
_dwNextMotionIndex$ = -4				; size = 4
_fCurrentTime$ = 0					; size = 4
$T4 = 4							; size = 4
$T5 = 8							; size = 4
_fDurationTime$ = 12					; size = 4
_fStartTime$ = 16					; size = 4
_iMotionType$ = 20					; size = 4
_bp$6 = 24						; size = 4
_iLoopCount$ = 28					; size = 4
_dwMotionKey$ = 32					; size = 4
tv170 = 36						; size = 4
_rNode$7 = 40						; size = 4
tv359 = 44						; size = 4
tv327 = 48						; size = 4
tv85 = 52						; size = 4
tv224 = 56						; size = 4
_fSpeedRatio$ = 60					; size = 4
_dwRealMotionKey$ = 64					; size = 4
_rReservingMotionNode$ = 68				; size = 4
$T8 = 73						; size = 1
$T9 = 74						; size = 1
$T10 = 75						; size = 1
_this$ = 76						; size = 4
_kPrevMotionNode$ = 80					; size = 36
__$ArrayPad$ = 116					; size = 4
?ReservingMotionProcess@CActorInstance@@IAEXXZ PROC	; CActorInstance::ReservingMotionProcess, COMDAT
; _this$ = ecx

; 51   : {

  00000	55		 push	 ebp
  00001	8d 6c 24 88	 lea	 ebp, DWORD PTR [esp-120]
  00005	81 ec bc 00 00
	00		 sub	 esp, 188		; 000000bcH
  0000b	a1 00 00 00 00	 mov	 eax, DWORD PTR ___security_cookie
  00010	33 c5		 xor	 eax, ebp
  00012	89 45 74	 mov	 DWORD PTR __$ArrayPad$[ebp], eax
  00015	56		 push	 esi
  00016	57		 push	 edi
  00017	89 4d 4c	 mov	 DWORD PTR _this$[ebp], ecx
; File C:\Program Files (x86)\Microsoft Visual Studio\2019\Community\VC\Tools\MSVC\14.28.29333\include\deque

; 1534 :         return _Mypair._Myval2;

  0001a	8b 45 4c	 mov	 eax, DWORD PTR _this$[ebp]
  0001d	05 30 02 00 00	 add	 eax, 560		; 00000230H
  00022	89 45 08	 mov	 DWORD PTR $T5[ebp], eax

; 1566 :         return _Get_data()._Mysize;

  00025	8b 45 08	 mov	 eax, DWORD PTR $T5[ebp]
  00028	83 c0 10	 add	 eax, 16			; 00000010H
  0002b	89 45 04	 mov	 DWORD PTR $T4[ebp], eax

; 1010 :         return _Mysize() == 0;

  0002e	8b 45 04	 mov	 eax, DWORD PTR $T4[ebp]
  00031	83 38 00	 cmp	 DWORD PTR [eax], 0
  00034	75 09		 jne	 SHORT $LN24@ReservingM
  00036	c7 45 38 01 00
	00 00		 mov	 DWORD PTR tv224[ebp], 1
  0003d	eb 04		 jmp	 SHORT $LN25@ReservingM
$LN24@ReservingM:
  0003f	83 65 38 00	 and	 DWORD PTR tv224[ebp], 0
$LN25@ReservingM:
  00043	8a 45 38	 mov	 al, BYTE PTR tv224[ebp]
  00046	88 45 4b	 mov	 BYTE PTR $T10[ebp], al
; File D:\Metin2 Server Files\mainline\SRC_2014\Metin2Client\GameLib\ActorInstanceMotion.cpp

; 52   : 	if (m_MotionDeque.empty())

  00049	0f b6 45 4b	 movzx	 eax, BYTE PTR $T10[ebp]
  0004d	85 c0		 test	 eax, eax
  0004f	74 05		 je	 SHORT $LN9@ReservingM

; 53   : 		return;

  00051	e9 f4 02 00 00	 jmp	 $LN1@ReservingM
$LN9@ReservingM:

; 54   : 
; 55   : 	TReservingMotionNode & rReservingMotionNode = m_MotionDeque.front();

  00056	8b 4d 4c	 mov	 ecx, DWORD PTR _this$[ebp]
  00059	81 c1 30 02 00
	00		 add	 ecx, 560		; 00000230H
  0005f	e8 00 00 00 00	 call	 ?front@?$deque@USReservingMotionNode@CActorInstance@@V?$allocator@USReservingMotionNode@CActorInstance@@@std@@@std@@QAEAAUSReservingMotionNode@CActorInstance@@XZ ; std::deque<CActorInstance::SReservingMotionNode,std::allocator<CActorInstance::SReservingMotionNode> >::front
  00064	89 45 44	 mov	 DWORD PTR _rReservingMotionNode$[ebp], eax

; 56   : 
; 57   : 	float fCurrentTime = GetLocalTime();

  00067	8b 4d 4c	 mov	 ecx, DWORD PTR _this$[ebp]
  0006a	e8 00 00 00 00	 call	 ?GetLocalTime@CGraphicThingInstance@@QAEMXZ ; CGraphicThingInstance::GetLocalTime
  0006f	d9 5d 00	 fstp	 DWORD PTR _fCurrentTime$[ebp]

; 58   : 	if (rReservingMotionNode.fStartTime > fCurrentTime)

  00072	8b 45 44	 mov	 eax, DWORD PTR _rReservingMotionNode$[ebp]
  00075	f3 0f 10 40 04	 movss	 xmm0, DWORD PTR [eax+4]
  0007a	0f 2f 45 00	 comiss	 xmm0, DWORD PTR _fCurrentTime$[ebp]
  0007e	76 05		 jbe	 SHORT $LN10@ReservingM

; 59   : 		return;

  00080	e9 c5 02 00 00	 jmp	 $LN1@ReservingM
$LN10@ReservingM:

; 60   : 
; 61   : 	DWORD dwNextMotionIndex = GET_MOTION_INDEX(rReservingMotionNode.dwMotionKey);

  00085	8b 45 44	 mov	 eax, DWORD PTR _rReservingMotionNode$[ebp]
  00088	8b 40 14	 mov	 eax, DWORD PTR [eax+20]
  0008b	c1 e8 08	 shr	 eax, 8
  0008e	25 ff ff 00 00	 and	 eax, 65535		; 0000ffffH
  00093	0f b7 c0	 movzx	 eax, ax
  00096	89 45 fc	 mov	 DWORD PTR _dwNextMotionIndex$[ebp], eax

; 62   : 	switch (dwNextMotionIndex)

  00099	8b 45 fc	 mov	 eax, DWORD PTR _dwNextMotionIndex$[ebp]
  0009c	89 45 34	 mov	 DWORD PTR tv85[ebp], eax
  0009f	83 7d 34 07	 cmp	 DWORD PTR tv85[ebp], 7
  000a3	74 0b		 je	 SHORT $LN11@ReservingM
  000a5	83 7d 34 0a	 cmp	 DWORD PTR tv85[ebp], 10	; 0000000aH
  000a9	74 05		 je	 SHORT $LN11@ReservingM
  000ab	e9 b6 00 00 00	 jmp	 $LN2@ReservingM
$LN11@ReservingM:

; 63   : 	{
; 64   : 		case CRaceMotionData::NAME_STAND_UP:
; 65   : 		case CRaceMotionData::NAME_STAND_UP_BACK:
; 66   : 			if (IsFaint())

  000b0	8b 4d 4c	 mov	 ecx, DWORD PTR _this$[ebp]
  000b3	e8 00 00 00 00	 call	 ?IsFaint@CActorInstance@@QAEHXZ ; CActorInstance::IsFaint
  000b8	85 c0		 test	 eax, eax
  000ba	0f 84 a6 00 00
	00		 je	 $LN12@ReservingM

; 67   : 			{
; 68   : 				//Tracenf("  ");
; 69   : 
; 70   : 				SetEndStopMotion();

  000c0	8b 4d 4c	 mov	 ecx, DWORD PTR _this$[ebp]
  000c3	e8 00 00 00 00	 call	 ?SetEndStopMotion@CGraphicThingInstance@@QAEXXZ ; CGraphicThingInstance::SetEndStopMotion

; 71   : 
; 72   : 				//    1 
; 73   : 				TMotionDeque::iterator itor = m_MotionDeque.begin();

  000c8	8d 45 c8	 lea	 eax, DWORD PTR _itor$2[ebp]
  000cb	50		 push	 eax
  000cc	8b 4d 4c	 mov	 ecx, DWORD PTR _this$[ebp]
  000cf	81 c1 30 02 00
	00		 add	 ecx, 560		; 00000230H
  000d5	e8 00 00 00 00	 call	 ?begin@?$deque@USReservingMotionNode@CActorInstance@@V?$allocator@USReservingMotionNode@CActorInstance@@@std@@@std@@QAE?AV?$_Deque_iterator@V?$_Deque_val@U?$_Deque_simple_types@USReservingMotionNode@CActorInstance@@@std@@@std@@@2@XZ ; std::deque<CActorInstance::SReservingMotionNode,std::allocator<CActorInstance::SReservingMotionNode> >::begin

; 74   : 				for (; itor != m_MotionDeque.end(); ++itor)

  000da	eb 07		 jmp	 SHORT $LN84@ReservingM
$LN4@ReservingM:
; File C:\Program Files (x86)\Microsoft Visual Studio\2019\Community\VC\Tools\MSVC\14.28.29333\include\deque

; 284  :         ++_Myoff;

  000dc	8b 45 d0	 mov	 eax, DWORD PTR _itor$2[ebp+8]
  000df	40		 inc	 eax
  000e0	89 45 d0	 mov	 DWORD PTR _itor$2[ebp+8], eax
$LN84@ReservingM:
; File D:\Metin2 Server Files\mainline\SRC_2014\Metin2Client\GameLib\ActorInstanceMotion.cpp

; 74   : 				for (; itor != m_MotionDeque.end(); ++itor)

  000e3	8d 45 bc	 lea	 eax, DWORD PTR $T1[ebp]
  000e6	50		 push	 eax
  000e7	8b 4d 4c	 mov	 ecx, DWORD PTR _this$[ebp]
  000ea	81 c1 30 02 00
	00		 add	 ecx, 560		; 00000230H
  000f0	e8 00 00 00 00	 call	 ?end@?$deque@USReservingMotionNode@CActorInstance@@V?$allocator@USReservingMotionNode@CActorInstance@@@std@@@std@@QAE?AV?$_Deque_iterator@V?$_Deque_val@U?$_Deque_simple_types@USReservingMotionNode@CActorInstance@@@std@@@std@@@2@XZ ; std::deque<CActorInstance::SReservingMotionNode,std::allocator<CActorInstance::SReservingMotionNode> >::end
  000f5	89 45 f8	 mov	 DWORD PTR $T3[ebp], eax
; File C:\Program Files (x86)\Microsoft Visual Studio\2019\Community\VC\Tools\MSVC\14.28.29333\include\deque

; 351  :         return this->_Myoff == _Right._Myoff;

  000f8	8b 45 f8	 mov	 eax, DWORD PTR $T3[ebp]
  000fb	8b 4d d0	 mov	 ecx, DWORD PTR _itor$2[ebp+8]
  000fe	3b 48 08	 cmp	 ecx, DWORD PTR [eax+8]
  00101	75 09		 jne	 SHORT $LN135@ReservingM
  00103	c7 45 30 01 00
	00 00		 mov	 DWORD PTR tv327[ebp], 1
  0010a	eb 04		 jmp	 SHORT $LN136@ReservingM
$LN135@ReservingM:
  0010c	83 65 30 00	 and	 DWORD PTR tv327[ebp], 0
$LN136@ReservingM:
  00110	8a 45 30	 mov	 al, BYTE PTR tv327[ebp]
  00113	88 45 4a	 mov	 BYTE PTR $T9[ebp], al

; 355  :         return !(*this == _Right);

  00116	0f b6 45 4a	 movzx	 eax, BYTE PTR $T9[ebp]
  0011a	85 c0		 test	 eax, eax
  0011c	75 09		 jne	 SHORT $LN130@ReservingM
  0011e	c7 45 2c 01 00
	00 00		 mov	 DWORD PTR tv359[ebp], 1
  00125	eb 04		 jmp	 SHORT $LN131@ReservingM
$LN130@ReservingM:
  00127	83 65 2c 00	 and	 DWORD PTR tv359[ebp], 0
$LN131@ReservingM:
  0012b	8a 45 2c	 mov	 al, BYTE PTR tv359[ebp]
  0012e	88 45 49	 mov	 BYTE PTR $T8[ebp], al
; File D:\Metin2 Server Files\mainline\SRC_2014\Metin2Client\GameLib\ActorInstanceMotion.cpp

; 74   : 				for (; itor != m_MotionDeque.end(); ++itor)

  00131	0f b6 45 49	 movzx	 eax, BYTE PTR $T8[ebp]
  00135	85 c0		 test	 eax, eax
  00137	74 28		 je	 SHORT $LN5@ReservingM
; File C:\Program Files (x86)\Microsoft Visual Studio\2019\Community\VC\Tools\MSVC\14.28.29333\include\deque

; 446  :         return const_cast<reference>(_Mybase::operator*());

  00139	8d 4d c8	 lea	 ecx, DWORD PTR _itor$2[ebp]
  0013c	e8 00 00 00 00	 call	 ??D?$_Deque_const_iterator@V?$_Deque_val@U?$_Deque_simple_types@USReservingMotionNode@CActorInstance@@@std@@@std@@@std@@QBEABUSReservingMotionNode@CActorInstance@@XZ ; std::_Deque_const_iterator<std::_Deque_val<std::_Deque_simple_types<CActorInstance::SReservingMotionNode> > >::operator*
  00141	89 45 28	 mov	 DWORD PTR _rNode$7[ebp], eax
; File D:\Metin2 Server Files\mainline\SRC_2014\Metin2Client\GameLib\ActorInstanceMotion.cpp

; 77   : 					rNode.fStartTime += 1.0f;

  00144	8b 45 28	 mov	 eax, DWORD PTR _rNode$7[ebp]
  00147	f3 0f 10 40 04	 movss	 xmm0, DWORD PTR [eax+4]
  0014c	f3 0f 58 05 00
	00 00 00	 addss	 xmm0, DWORD PTR __real@3f800000
  00154	8b 45 28	 mov	 eax, DWORD PTR _rNode$7[ebp]
  00157	f3 0f 11 40 04	 movss	 DWORD PTR [eax+4], xmm0

; 78   : 				}

  0015c	e9 7b ff ff ff	 jmp	 $LN4@ReservingM
$LN5@ReservingM:

; 79   : 				return;

  00161	e9 e4 01 00 00	 jmp	 $LN1@ReservingM
$LN12@ReservingM:
$LN2@ReservingM:

; 80   : 			}
; 81   : 			break;
; 82   : 	}
; 83   : 
; 84   : 	SCurrentMotionNode kPrevMotionNode=m_kCurMotNode;

  00166	8b 75 4c	 mov	 esi, DWORD PTR _this$[ebp]
  00169	81 c6 44 02 00
	00		 add	 esi, 580		; 00000244H
  0016f	6a 09		 push	 9
  00171	59		 pop	 ecx
  00172	8d 7d 50	 lea	 edi, DWORD PTR _kPrevMotionNode$[ebp]
  00175	f3 a5		 rep movsd

; 85   : 
; 86   : 	EMotionPushType iMotionType=rReservingMotionNode.iMotionType;

  00177	8b 45 44	 mov	 eax, DWORD PTR _rReservingMotionNode$[ebp]
  0017a	8b 00		 mov	 eax, DWORD PTR [eax]
  0017c	89 45 14	 mov	 DWORD PTR _iMotionType$[ebp], eax

; 87   : 	float fSpeedRatio=rReservingMotionNode.fSpeedRatio;

  0017f	8b 45 44	 mov	 eax, DWORD PTR _rReservingMotionNode$[ebp]
  00182	f3 0f 10 40 10	 movss	 xmm0, DWORD PTR [eax+16]
  00187	f3 0f 11 45 3c	 movss	 DWORD PTR _fSpeedRatio$[ebp], xmm0

; 88   : 	float fBlendTime=rReservingMotionNode.fBlendTime;

  0018c	8b 45 44	 mov	 eax, DWORD PTR _rReservingMotionNode$[ebp]
  0018f	f3 0f 10 40 08	 movss	 xmm0, DWORD PTR [eax+8]
  00194	f3 0f 11 45 f0	 movss	 DWORD PTR _fBlendTime$[ebp], xmm0

; 89   : 
; 90   : 	DWORD dwMotionKey=rReservingMotionNode.dwMotionKey;

  00199	8b 45 44	 mov	 eax, DWORD PTR _rReservingMotionNode$[ebp]
  0019c	8b 40 14	 mov	 eax, DWORD PTR [eax+20]
  0019f	89 45 20	 mov	 DWORD PTR _dwMotionKey$[ebp], eax

; 91   : 
; 92   : 	m_MotionDeque.pop_front();

  001a2	8b 4d 4c	 mov	 ecx, DWORD PTR _this$[ebp]
  001a5	81 c1 30 02 00
	00		 add	 ecx, 560		; 00000230H
  001ab	e8 00 00 00 00	 call	 ?pop_front@?$deque@USReservingMotionNode@CActorInstance@@V?$allocator@USReservingMotionNode@CActorInstance@@@std@@@std@@QAEXXZ ; std::deque<CActorInstance::SReservingMotionNode,std::allocator<CActorInstance::SReservingMotionNode> >::pop_front

; 93   : 
; 94   : 	DWORD dwCurrentMotionIndex=GET_MOTION_INDEX(dwMotionKey);

  001b0	8b 45 20	 mov	 eax, DWORD PTR _dwMotionKey$[ebp]
  001b3	c1 e8 08	 shr	 eax, 8
  001b6	25 ff ff 00 00	 and	 eax, 65535		; 0000ffffH
  001bb	0f b7 c0	 movzx	 eax, ax
  001be	89 45 f4	 mov	 DWORD PTR _dwCurrentMotionIndex$[ebp], eax

; 95   : 	switch (dwCurrentMotionIndex)

  001c1	8b 45 f4	 mov	 eax, DWORD PTR _dwCurrentMotionIndex$[ebp]
  001c4	89 45 24	 mov	 DWORD PTR tv170[ebp], eax
  001c7	83 7d 24 07	 cmp	 DWORD PTR tv170[ebp], 7
  001cb	74 08		 je	 SHORT $LN13@ReservingM
  001cd	83 7d 24 0a	 cmp	 DWORD PTR tv170[ebp], 10 ; 0000000aH
  001d1	74 02		 je	 SHORT $LN13@ReservingM
  001d3	eb 32		 jmp	 SHORT $LN7@ReservingM
$LN13@ReservingM:

; 96   : 	{
; 97   : 		case CRaceMotionData::NAME_STAND_UP:
; 98   : 		case CRaceMotionData::NAME_STAND_UP_BACK:
; 99   : 			if (IsDead())

  001d5	8b 4d 4c	 mov	 ecx, DWORD PTR _this$[ebp]
  001d8	e8 00 00 00 00	 call	 ?IsDead@CActorInstance@@QAEHXZ ; CActorInstance::IsDead
  001dd	85 c0		 test	 eax, eax
  001df	74 26		 je	 SHORT $LN14@ReservingM

; 100  : 			{
; 101  : 				//Tracenf("  ");
; 102  : 				//   
; 103  : 				m_kCurMotNode=kPrevMotionNode;

  001e1	8b 7d 4c	 mov	 edi, DWORD PTR _this$[ebp]
  001e4	81 c7 44 02 00
	00		 add	 edi, 580		; 00000244H
  001ea	6a 09		 push	 9
  001ec	59		 pop	 ecx
  001ed	8d 75 50	 lea	 esi, DWORD PTR _kPrevMotionNode$[ebp]
  001f0	f3 a5		 rep movsd

; 104  : 				__ClearMotion(); 

  001f2	8b 4d 4c	 mov	 ecx, DWORD PTR _this$[ebp]
  001f5	e8 00 00 00 00	 call	 ?__ClearMotion@CActorInstance@@IAEXXZ ; CActorInstance::__ClearMotion

; 105  : 
; 106  : 				//     
; 107  : 				SetEndStopMotion();

  001fa	8b 4d 4c	 mov	 ecx, DWORD PTR _this$[ebp]
  001fd	e8 00 00 00 00	 call	 ?SetEndStopMotion@CGraphicThingInstance@@QAEXXZ ; CGraphicThingInstance::SetEndStopMotion

; 108  : 				return;

  00202	e9 43 01 00 00	 jmp	 $LN1@ReservingM
$LN14@ReservingM:
$LN7@ReservingM:

; 109  : 			}
; 110  : 			break;
; 111  : 	}
; 112  : 
; 113  : 	//Tracenf("MOTION %d", GET_MOTION_INDEX(dwMotionKey));
; 114  : 
; 115  : 	int iLoopCount;
; 116  : 	if (MOTION_TYPE_ONCE == iMotionType)

  00207	83 7d 14 01	 cmp	 DWORD PTR _iMotionType$[ebp], 1
  0020b	75 09		 jne	 SHORT $LN15@ReservingM

; 117  : 		iLoopCount=1;

  0020d	c7 45 1c 01 00
	00 00		 mov	 DWORD PTR _iLoopCount$[ebp], 1
  00214	eb 04		 jmp	 SHORT $LN16@ReservingM
$LN15@ReservingM:

; 118  : 	else
; 119  : 		iLoopCount=0;

  00216	83 65 1c 00	 and	 DWORD PTR _iLoopCount$[ebp], 0
$LN16@ReservingM:
; File D:\Metin2 Server Files\mainline\SRC_2014\Metin2Client\GameLib\ActorInstance.h

; 630  : 				iLoopCount=0;

  0021a	83 65 e0 00	 and	 DWORD PTR _kSetMotData$[ebp+12], 0

; 631  : 				dwMotKey=0;

  0021e	83 65 d4 00	 and	 DWORD PTR _kSetMotData$[ebp], 0

; 632  : 				fSpeedRatio=1.0f;

  00222	f3 0f 10 05 00
	00 00 00	 movss	 xmm0, DWORD PTR __real@3f800000
  0022a	f3 0f 11 45 d8	 movss	 DWORD PTR _kSetMotData$[ebp+4], xmm0

; 633  : 				fBlendTime=0.0f;

  0022f	0f 57 c0	 xorps	 xmm0, xmm0
  00232	f3 0f 11 45 dc	 movss	 DWORD PTR _kSetMotData$[ebp+8], xmm0

; 634  : 				uSkill=0;

  00237	83 65 e4 00	 and	 DWORD PTR _kSetMotData$[ebp+16], 0
; File D:\Metin2 Server Files\mainline\SRC_2014\Metin2Client\GameLib\ActorInstanceMotion.cpp

; 122  : 	kSetMotData.dwMotKey=dwMotionKey;

  0023b	8b 45 20	 mov	 eax, DWORD PTR _dwMotionKey$[ebp]
  0023e	89 45 d4	 mov	 DWORD PTR _kSetMotData$[ebp], eax

; 123  : 	kSetMotData.fBlendTime=fBlendTime;

  00241	f3 0f 10 45 f0	 movss	 xmm0, DWORD PTR _fBlendTime$[ebp]
  00246	f3 0f 11 45 dc	 movss	 DWORD PTR _kSetMotData$[ebp+8], xmm0

; 124  : 	kSetMotData.fSpeedRatio=fSpeedRatio;

  0024b	f3 0f 10 45 3c	 movss	 xmm0, DWORD PTR _fSpeedRatio$[ebp]
  00250	f3 0f 11 45 d8	 movss	 DWORD PTR _kSetMotData$[ebp+4], xmm0

; 125  : 	kSetMotData.iLoopCount=iLoopCount;

  00255	8b 45 1c	 mov	 eax, DWORD PTR _iLoopCount$[ebp]
  00258	89 45 e0	 mov	 DWORD PTR _kSetMotData$[ebp+12], eax

; 126  : 
; 127  : 	DWORD dwRealMotionKey = __SetMotion(kSetMotData);

  0025b	6a 00		 push	 0
  0025d	8d 45 d4	 lea	 eax, DWORD PTR _kSetMotData$[ebp]
  00260	50		 push	 eax
  00261	8b 4d 4c	 mov	 ecx, DWORD PTR _this$[ebp]
  00264	e8 00 00 00 00	 call	 ?__SetMotion@CActorInstance@@IAEKABUSSetMotionData@1@K@Z ; CActorInstance::__SetMotion
  00269	89 45 40	 mov	 DWORD PTR _dwRealMotionKey$[ebp], eax

; 128  : 
; 129  : 	if (0 == dwRealMotionKey)

  0026c	83 7d 40 00	 cmp	 DWORD PTR _dwRealMotionKey$[ebp], 0
  00270	75 05		 jne	 SHORT $LN17@ReservingM

; 130  : 		return;

  00272	e9 d3 00 00 00	 jmp	 $LN1@ReservingM
$LN17@ReservingM:

; 131  : 
; 132  : 	// FIX:   __SetMotion         duration ' '  duration  .
; 133  : 	//float fDurationTime=rReservingMotionNode.fDuration;
; 134  : 	float fDurationTime = GetMotionDuration(dwRealMotionKey) / fSpeedRatio;

  00277	ff 75 40	 push	 DWORD PTR _dwRealMotionKey$[ebp]
  0027a	8b 4d 4c	 mov	 ecx, DWORD PTR _this$[ebp]
  0027d	e8 00 00 00 00	 call	 ?GetMotionDuration@CActorInstance@@IAEMK@Z ; CActorInstance::GetMotionDuration
  00282	d9 5d ec	 fstp	 DWORD PTR tv462[ebp]
  00285	f3 0f 10 45 ec	 movss	 xmm0, DWORD PTR tv462[ebp]
  0028a	f3 0f 5e 45 3c	 divss	 xmm0, DWORD PTR _fSpeedRatio$[ebp]
  0028f	f3 0f 11 45 0c	 movss	 DWORD PTR _fDurationTime$[ebp], xmm0

; 135  : 	float fStartTime = rReservingMotionNode.fStartTime;

  00294	8b 45 44	 mov	 eax, DWORD PTR _rReservingMotionNode$[ebp]
  00297	f3 0f 10 40 04	 movss	 xmm0, DWORD PTR [eax+4]
  0029c	f3 0f 11 45 10	 movss	 DWORD PTR _fStartTime$[ebp], xmm0

; 136  : 	float fEndTime = fStartTime + fDurationTime;

  002a1	f3 0f 10 45 10	 movss	 xmm0, DWORD PTR _fStartTime$[ebp]
  002a6	f3 0f 58 45 0c	 addss	 xmm0, DWORD PTR _fDurationTime$[ebp]
  002ab	f3 0f 11 45 e8	 movss	 DWORD PTR _fEndTime$[ebp], xmm0

; 137  : 
; 138  : 	if (dwRealMotionKey == 16777473)

  002b0	81 7d 40 01 01
	00 01		 cmp	 DWORD PTR _dwRealMotionKey$[ebp], 16777473 ; 01000101H
  002b7	75 0b		 jne	 SHORT $LN18@ReservingM

; 139  : 	{
; 140  : 		int bp = 0;

  002b9	83 65 18 00	 and	 DWORD PTR _bp$6[ebp], 0

; 141  : 		bp++;

  002bd	8b 45 18	 mov	 eax, DWORD PTR _bp$6[ebp]
  002c0	40		 inc	 eax
  002c1	89 45 18	 mov	 DWORD PTR _bp$6[ebp], eax
$LN18@ReservingM:

; 142  : 	}
; 143  : 
; 144  : 	m_kCurMotNode.uSkill = 0;

  002c4	8b 45 4c	 mov	 eax, DWORD PTR _this$[ebp]
  002c7	83 a0 64 02 00
	00 00		 and	 DWORD PTR [eax+612], 0

; 145  : 	m_kCurMotNode.iMotionType = iMotionType;

  002ce	8b 45 4c	 mov	 eax, DWORD PTR _this$[ebp]
  002d1	8b 4d 14	 mov	 ecx, DWORD PTR _iMotionType$[ebp]
  002d4	89 88 44 02 00
	00		 mov	 DWORD PTR [eax+580], ecx

; 146  : 	m_kCurMotNode.fSpeedRatio = fSpeedRatio;

  002da	8b 45 4c	 mov	 eax, DWORD PTR _this$[ebp]
  002dd	f3 0f 10 45 3c	 movss	 xmm0, DWORD PTR _fSpeedRatio$[ebp]
  002e2	f3 0f 11 80 5c
	02 00 00	 movss	 DWORD PTR [eax+604], xmm0

; 147  : 	m_kCurMotNode.fStartTime = fStartTime;	

  002ea	8b 45 4c	 mov	 eax, DWORD PTR _this$[ebp]
  002ed	f3 0f 10 45 10	 movss	 xmm0, DWORD PTR _fStartTime$[ebp]
  002f2	f3 0f 11 80 54
	02 00 00	 movss	 DWORD PTR [eax+596], xmm0

; 148  : 	m_kCurMotNode.fEndTime = fEndTime;

  002fa	8b 45 4c	 mov	 eax, DWORD PTR _this$[ebp]
  002fd	f3 0f 10 45 e8	 movss	 xmm0, DWORD PTR _fEndTime$[ebp]
  00302	f3 0f 11 80 58
	02 00 00	 movss	 DWORD PTR [eax+600], xmm0

; 149  : 	m_kCurMotNode.dwMotionKey = dwRealMotionKey;

  0030a	8b 45 4c	 mov	 eax, DWORD PTR _this$[ebp]
  0030d	8b 4d 40	 mov	 ecx, DWORD PTR _dwRealMotionKey$[ebp]
  00310	89 88 48 02 00
	00		 mov	 DWORD PTR [eax+584], ecx

; 150  : 	m_kCurMotNode.dwcurFrame = 0;

  00316	8b 45 4c	 mov	 eax, DWORD PTR _this$[ebp]
  00319	83 a0 4c 02 00
	00 00		 and	 DWORD PTR [eax+588], 0

; 151  : 	m_kCurMotNode.dwFrameCount = fDurationTime / (1.0f / g_fGameFPS);

  00320	f3 0f 10 05 00
	00 00 00	 movss	 xmm0, DWORD PTR __real@3f800000
  00328	f3 0f 5e 05 00
	00 00 00	 divss	 xmm0, DWORD PTR ?g_fGameFPS@@3MA
  00330	f3 0f 10 4d 0c	 movss	 xmm1, DWORD PTR _fDurationTime$[ebp]
  00335	f3 0f 5e c8	 divss	 xmm1, xmm0
  00339	0f 28 c1	 movaps	 xmm0, xmm1
  0033c	e8 00 00 00 00	 call	 __ftoui3
  00341	8b 4d 4c	 mov	 ecx, DWORD PTR _this$[ebp]
  00344	89 81 50 02 00
	00		 mov	 DWORD PTR [ecx+592], eax
$LN1@ReservingM:

; 152  : }

  0034a	5f		 pop	 edi
  0034b	5e		 pop	 esi
  0034c	8b 4d 74	 mov	 ecx, DWORD PTR __$ArrayPad$[ebp]
  0034f	33 cd		 xor	 ecx, ebp
  00351	e8 00 00 00 00	 call	 @__security_check_cookie@4
  00356	83 c5 78	 add	 ebp, 120		; 00000078H
  00359	c9		 leave
  0035a	c3		 ret	 0
?ReservingMotionProcess@CActorInstance@@IAEXXZ ENDP	; CActorInstance::ReservingMotionProcess
_TEXT	ENDS
; Function compile flags: /Odspy
; File C:\Program Files (x86)\Microsoft Visual Studio\2019\Community\VC\Tools\MSVC\14.28.29333\include\deque
; File C:\Program Files (x86)\Microsoft Visual Studio\2019\Community\VC\Tools\MSVC\14.28.29333\include\xstddef
; File C:\Program Files (x86)\Microsoft Visual Studio\2019\Community\VC\Tools\MSVC\14.28.29333\include\deque
; File C:\Program Files (x86)\Microsoft Visual Studio\2019\Community\VC\Tools\MSVC\14.28.29333\include\xmemory
; File C:\Program Files (x86)\Microsoft Visual Studio\2019\Community\VC\Tools\MSVC\14.28.29333\include\deque
; File C:\Program Files (x86)\Microsoft Visual Studio\2019\Community\VC\Tools\MSVC\14.28.29333\include\xmemory
; File C:\Program Files (x86)\Microsoft Visual Studio\2019\Community\VC\Tools\MSVC\14.28.29333\include\deque
;	COMDAT ?pop_front@?$deque@VCFlyTarget@@V?$allocator@VCFlyTarget@@@std@@@std@@QAEXXZ
_TEXT	SEGMENT
$T1 = -92						; size = 4
$T2 = -88						; size = 4
$T3 = -84						; size = 4
$T4 = -80						; size = 4
$T5 = -76						; size = 4
$T6 = -72						; size = 4
$T7 = -68						; size = 4
$T8 = -64						; size = 4
__Ptr$ = -60						; size = 4
__Block$ = -56						; size = 4
$T9 = -52						; size = 4
$T10 = -48						; size = 4
$T11 = -44						; size = 4
$T12 = -40						; size = 4
$T13 = -36						; size = 4
__Off$ = -32						; size = 4
$T14 = -28						; size = 4
$T15 = -24						; size = 4
$T16 = -20						; size = 4
$T17 = -16						; size = 4
tv93 = -12						; size = 4
tv86 = -8						; size = 4
_this$ = -4						; size = 4
?pop_front@?$deque@VCFlyTarget@@V?$allocator@VCFlyTarget@@@std@@@std@@QAEXXZ PROC ; std::deque<CFlyTarget,std::allocator<CFlyTarget> >::pop_front, COMDAT
; _this$ = ecx

; 1086 :     void pop_front() noexcept /* strengthened */ {

  00000	55		 push	 ebp
  00001	8b ec		 mov	 ebp, esp
  00003	83 ec 5c	 sub	 esp, 92			; 0000005cH
  00006	89 4d fc	 mov	 DWORD PTR _this$[ebp], ecx

; 1530 :         return _Mypair._Myval2;

  00009	8b 45 fc	 mov	 eax, DWORD PTR _this$[ebp]
  0000c	89 45 ec	 mov	 DWORD PTR $T16[ebp], eax

; 1554 :         return _Get_data()._Myoff;

  0000f	8b 45 ec	 mov	 eax, DWORD PTR $T16[ebp]
  00012	83 c0 0c	 add	 eax, 12			; 0000000cH
  00015	89 45 e8	 mov	 DWORD PTR $T15[ebp], eax

; 1087 : #if _ITERATOR_DEBUG_LEVEL == 2
; 1088 :         if (empty()) {
; 1089 :             _STL_REPORT_ERROR("deque empty before pop");
; 1090 :         } else { // something to erase, do it
; 1091 :             _Orphan_off(_Myoff());
; 1092 :             size_type _Block = _Getblock(_Myoff());
; 1093 :             _Alty_traits::destroy(_Getal(), _Unfancy(_Map()[_Block] + _Myoff() % _DEQUESIZ));
; 1094 :             if (--_Mysize() == 0) {
; 1095 :                 _Myoff() = 0;
; 1096 :             } else {
; 1097 :                 ++_Myoff();
; 1098 :             }
; 1099 :         }
; 1100 : 
; 1101 : #else // _ITERATOR_DEBUG_LEVEL == 2
; 1102 :         size_type _Block = _Getblock(_Myoff());

  00018	8b 45 e8	 mov	 eax, DWORD PTR $T15[ebp]
  0001b	8b 00		 mov	 eax, DWORD PTR [eax]
  0001d	89 45 e0	 mov	 DWORD PTR __Off$[ebp], eax

; 1534 :         return _Mypair._Myval2;

  00020	8b 45 fc	 mov	 eax, DWORD PTR _this$[ebp]
  00023	89 45 e4	 mov	 DWORD PTR $T14[ebp], eax

; 548  :         return (_Off / _DEQUESIZ) & (_Mapsize - 1);

  00026	8b 45 e4	 mov	 eax, DWORD PTR $T14[ebp]
  00029	8b 40 08	 mov	 eax, DWORD PTR [eax+8]
  0002c	48		 dec	 eax
  0002d	23 45 e0	 and	 eax, DWORD PTR __Off$[ebp]
  00030	89 45 dc	 mov	 DWORD PTR $T13[ebp], eax

; 1514 :         return _Get_data()._Getblock(_Off);

  00033	8b 45 dc	 mov	 eax, DWORD PTR $T13[ebp]
  00036	89 45 c8	 mov	 DWORD PTR __Block$[ebp], eax

; 1530 :         return _Mypair._Myval2;

  00039	8b 45 fc	 mov	 eax, DWORD PTR _this$[ebp]
  0003c	89 45 d8	 mov	 DWORD PTR $T12[ebp], eax

; 1538 :         return _Get_data()._Map;

  0003f	8b 45 d8	 mov	 eax, DWORD PTR $T12[ebp]
  00042	83 c0 04	 add	 eax, 4
  00045	89 45 cc	 mov	 DWORD PTR $T9[ebp], eax

; 1530 :         return _Mypair._Myval2;

  00048	8b 45 fc	 mov	 eax, DWORD PTR _this$[ebp]
  0004b	89 45 d4	 mov	 DWORD PTR $T11[ebp], eax

; 1554 :         return _Get_data()._Myoff;

  0004e	8b 45 d4	 mov	 eax, DWORD PTR $T11[ebp]
  00051	83 c0 0c	 add	 eax, 12			; 0000000cH
  00054	89 45 d0	 mov	 DWORD PTR $T10[ebp], eax

; 1103 :         _Alty_traits::destroy(_Getal(), _Unfancy(_Map()[_Block] + _Myoff() % _DEQUESIZ));

  00057	8b 45 d0	 mov	 eax, DWORD PTR $T10[ebp]
  0005a	8b 00		 mov	 eax, DWORD PTR [eax]
  0005c	33 d2		 xor	 edx, edx
  0005e	33 c9		 xor	 ecx, ecx
  00060	41		 inc	 ecx
  00061	f7 f1		 div	 ecx
  00063	6b c2 18	 imul	 eax, edx, 24
  00066	8b 4d cc	 mov	 ecx, DWORD PTR $T9[ebp]
  00069	8b 09		 mov	 ecx, DWORD PTR [ecx]
  0006b	8b 55 c8	 mov	 edx, DWORD PTR __Block$[ebp]
  0006e	03 04 91	 add	 eax, DWORD PTR [ecx+edx*4]
  00071	89 45 c4	 mov	 DWORD PTR __Ptr$[ebp], eax
; File C:\Program Files (x86)\Microsoft Visual Studio\2019\Community\VC\Tools\MSVC\14.28.29333\include\xstddef

; 289  :     return _Ptr;

  00074	8b 45 c4	 mov	 eax, DWORD PTR __Ptr$[ebp]
  00077	89 45 f0	 mov	 DWORD PTR $T17[ebp], eax
; File C:\Program Files (x86)\Microsoft Visual Studio\2019\Community\VC\Tools\MSVC\14.28.29333\include\deque

; 1522 :         return _Mypair._Get_first();

  0007a	8b 45 fc	 mov	 eax, DWORD PTR _this$[ebp]
; File C:\Program Files (x86)\Microsoft Visual Studio\2019\Community\VC\Tools\MSVC\14.28.29333\include\xmemory

; 1347 :         return *this;

  0007d	89 45 c0	 mov	 DWORD PTR $T8[ebp], eax
; File C:\Program Files (x86)\Microsoft Visual Studio\2019\Community\VC\Tools\MSVC\14.28.29333\include\deque

; 1522 :         return _Mypair._Get_first();

  00080	8b 45 c0	 mov	 eax, DWORD PTR $T8[ebp]
  00083	89 45 ac	 mov	 DWORD PTR $T3[ebp], eax
; File C:\Program Files (x86)\Microsoft Visual Studio\2019\Community\VC\Tools\MSVC\14.28.29333\include\xmemory

; 706  :         _Ptr->~_Uty();

  00086	6a 00		 push	 0
  00088	8b 45 f0	 mov	 eax, DWORD PTR $T17[ebp]
  0008b	8b 00		 mov	 eax, DWORD PTR [eax]
  0008d	8b 4d f0	 mov	 ecx, DWORD PTR $T17[ebp]
  00090	ff 10		 call	 DWORD PTR [eax]
; File C:\Program Files (x86)\Microsoft Visual Studio\2019\Community\VC\Tools\MSVC\14.28.29333\include\deque

; 1104 :         if (--_Mysize() == 0) {

  00092	8b 45 a8	 mov	 eax, DWORD PTR $T2[ebp]
  00095	89 45 f8	 mov	 DWORD PTR tv86[ebp], eax

; 1530 :         return _Mypair._Myval2;

  00098	8b 45 fc	 mov	 eax, DWORD PTR _this$[ebp]
  0009b	89 45 bc	 mov	 DWORD PTR $T7[ebp], eax

; 1562 :         return _Get_data()._Mysize;

  0009e	8b 45 bc	 mov	 eax, DWORD PTR $T7[ebp]
  000a1	83 c0 10	 add	 eax, 16			; 00000010H
  000a4	89 45 f8	 mov	 DWORD PTR tv86[ebp], eax

; 1104 :         if (--_Mysize() == 0) {

  000a7	8b 45 f8	 mov	 eax, DWORD PTR tv86[ebp]
  000aa	8b 00		 mov	 eax, DWORD PTR [eax]
  000ac	48		 dec	 eax
  000ad	8b 4d f8	 mov	 ecx, DWORD PTR tv86[ebp]
  000b0	89 01		 mov	 DWORD PTR [ecx], eax
  000b2	8b 45 f8	 mov	 eax, DWORD PTR tv86[ebp]
  000b5	83 38 00	 cmp	 DWORD PTR [eax], 0
  000b8	75 17		 jne	 SHORT $LN2@pop_front

; 1530 :         return _Mypair._Myval2;

  000ba	8b 45 fc	 mov	 eax, DWORD PTR _this$[ebp]
  000bd	89 45 b8	 mov	 DWORD PTR $T6[ebp], eax

; 1554 :         return _Get_data()._Myoff;

  000c0	8b 45 b8	 mov	 eax, DWORD PTR $T6[ebp]
  000c3	83 c0 0c	 add	 eax, 12			; 0000000cH
  000c6	89 45 b4	 mov	 DWORD PTR $T5[ebp], eax

; 1105 :             _Myoff() = 0;

  000c9	8b 45 b4	 mov	 eax, DWORD PTR $T5[ebp]
  000cc	83 20 00	 and	 DWORD PTR [eax], 0

; 1106 :         } else {

  000cf	eb 20		 jmp	 SHORT $LN4@pop_front
$LN2@pop_front:

; 1107 :             ++_Myoff();

  000d1	8b 45 a4	 mov	 eax, DWORD PTR $T1[ebp]
  000d4	89 45 f4	 mov	 DWORD PTR tv93[ebp], eax

; 1530 :         return _Mypair._Myval2;

  000d7	8b 45 fc	 mov	 eax, DWORD PTR _this$[ebp]
  000da	89 45 b0	 mov	 DWORD PTR $T4[ebp], eax

; 1554 :         return _Get_data()._Myoff;

  000dd	8b 45 b0	 mov	 eax, DWORD PTR $T4[ebp]
  000e0	83 c0 0c	 add	 eax, 12			; 0000000cH
  000e3	89 45 f4	 mov	 DWORD PTR tv93[ebp], eax

; 1107 :             ++_Myoff();

  000e6	8b 45 f4	 mov	 eax, DWORD PTR tv93[ebp]
  000e9	8b 00		 mov	 eax, DWORD PTR [eax]
  000eb	40		 inc	 eax
  000ec	8b 4d f4	 mov	 ecx, DWORD PTR tv93[ebp]
  000ef	89 01		 mov	 DWORD PTR [ecx], eax
$LN4@pop_front:

; 1108 :         }
; 1109 : #endif // _ITERATOR_DEBUG_LEVEL == 2
; 1110 :     }

  000f1	c9		 leave
  000f2	c3		 ret	 0
?pop_front@?$deque@VCFlyTarget@@V?$allocator@VCFlyTarget@@@std@@@std@@QAEXXZ ENDP ; std::deque<CFlyTarget,std::allocator<CFlyTarget> >::pop_front
_TEXT	ENDS
; Function compile flags: /Odspy
; File C:\Program Files (x86)\Microsoft Visual Studio\2019\Community\VC\Tools\MSVC\14.28.29333\include\deque
; File C:\Program Files (x86)\Microsoft Visual Studio\2019\Community\VC\Tools\MSVC\14.28.29333\include\xstddef
; File C:\Program Files (x86)\Microsoft Visual Studio\2019\Community\VC\Tools\MSVC\14.28.29333\include\deque
;	COMDAT ?front@?$deque@VCFlyTarget@@V?$allocator@VCFlyTarget@@@std@@@std@@QAEAAVCFlyTarget@@XZ
_TEXT	SEGMENT
$T1 = -40						; size = 8
$T2 = -32						; size = 4
$T3 = -28						; size = 4
___param0$ = -24					; size = 4
$T4 = -20						; size = 4
$T5 = -16						; size = 4
$T6 = -12						; size = 4
$T7 = -8						; size = 4
_this$ = -4						; size = 4
?front@?$deque@VCFlyTarget@@V?$allocator@VCFlyTarget@@@std@@@std@@QAEAAVCFlyTarget@@XZ PROC ; std::deque<CFlyTarget,std::allocator<CFlyTarget> >::front, COMDAT
; _this$ = ecx

; 1047 :     _NODISCARD reference front() noexcept /* strengthened */ {

  00000	55		 push	 ebp
  00001	8b ec		 mov	 ebp, esp
  00003	83 ec 28	 sub	 esp, 40			; 00000028H
  00006	89 4d fc	 mov	 DWORD PTR _this$[ebp], ecx

; 1530 :         return _Mypair._Myval2;

  00009	8b 45 fc	 mov	 eax, DWORD PTR _this$[ebp]
  0000c	89 45 f8	 mov	 DWORD PTR $T7[ebp], eax
; File C:\Program Files (x86)\Microsoft Visual Studio\2019\Community\VC\Tools\MSVC\14.28.29333\include\xstddef

; 275  :     return __builtin_addressof(_Val);

  0000f	8b 45 f8	 mov	 eax, DWORD PTR $T7[ebp]
  00012	89 45 ec	 mov	 DWORD PTR $T4[ebp], eax
; File C:\Program Files (x86)\Microsoft Visual Studio\2019\Community\VC\Tools\MSVC\14.28.29333\include\deque

; 1530 :         return _Mypair._Myval2;

  00015	8b 45 fc	 mov	 eax, DWORD PTR _this$[ebp]
  00018	89 45 f4	 mov	 DWORD PTR $T6[ebp], eax

; 1554 :         return _Get_data()._Myoff;

  0001b	8b 45 f4	 mov	 eax, DWORD PTR $T6[ebp]
  0001e	83 c0 0c	 add	 eax, 12			; 0000000cH
  00021	89 45 f0	 mov	 DWORD PTR $T5[ebp], eax

; 914  :         return _Unchecked_iterator(_Myoff(), _STD addressof(_Get_data()));

  00024	8b 45 f0	 mov	 eax, DWORD PTR $T5[ebp]
  00027	8b 00		 mov	 eax, DWORD PTR [eax]
  00029	89 45 e8	 mov	 DWORD PTR ___param0$[ebp], eax

; 52   :         : _Mycont(static_cast<const _Mydeque*>(_Pdeque)), _Myoff(_Off) {}

  0002c	8b 45 ec	 mov	 eax, DWORD PTR $T4[ebp]
  0002f	89 45 d8	 mov	 DWORD PTR $T1[ebp], eax
  00032	8b 45 e8	 mov	 eax, DWORD PTR ___param0$[ebp]
  00035	89 45 dc	 mov	 DWORD PTR $T1[ebp+4], eax

; 914  :         return _Unchecked_iterator(_Myoff(), _STD addressof(_Get_data()));

  00038	8d 45 d8	 lea	 eax, DWORD PTR $T1[ebp]
  0003b	89 45 e4	 mov	 DWORD PTR $T3[ebp], eax

; 171  :         return const_cast<reference>(_Mybase::operator*());

  0003e	8b 4d e4	 mov	 ecx, DWORD PTR $T3[ebp]
  00041	e8 00 00 00 00	 call	 ??D?$_Deque_unchecked_const_iterator@V?$_Deque_val@U?$_Deque_simple_types@VCFlyTarget@@@std@@@std@@@std@@QBEABVCFlyTarget@@XZ ; std::_Deque_unchecked_const_iterator<std::_Deque_val<std::_Deque_simple_types<CFlyTarget> > >::operator*
  00046	89 45 e0	 mov	 DWORD PTR $T2[ebp], eax

; 1048 : #if _CONTAINER_DEBUG_LEVEL > 0
; 1049 :         _STL_VERIFY(!empty(), "front() called on empty deque");
; 1050 : #endif // _CONTAINER_DEBUG_LEVEL > 0
; 1051 : 
; 1052 :         return *_Unchecked_begin();

  00049	8b 45 e0	 mov	 eax, DWORD PTR $T2[ebp]

; 1053 :     }

  0004c	c9		 leave
  0004d	c3		 ret	 0
?front@?$deque@VCFlyTarget@@V?$allocator@VCFlyTarget@@@std@@@std@@QAEAAVCFlyTarget@@XZ ENDP ; std::deque<CFlyTarget,std::allocator<CFlyTarget> >::front
_TEXT	ENDS
; Function compile flags: /Odspy
; File D:\Metin2 Server Files\mainline\SRC_2014\Metin2Client\GameLib\ActorInstanceMotion.cpp
;	COMDAT ?__MotionEventProcess@CActorInstance@@QAEXH@Z
_TEXT	SEGMENT
_dwNextFrame$1 = -20					; size = 4
tv132 = -16						; size = 4
tv87 = -12						; size = 4
tv82 = -8						; size = 4
_this$ = -4						; size = 4
_isPC$ = 8						; size = 4
?__MotionEventProcess@CActorInstance@@QAEXH@Z PROC	; CActorInstance::__MotionEventProcess, COMDAT
; _this$ = ecx

; 15   : {

  00000	55		 push	 ebp
  00001	8b ec		 mov	 ebp, esp
  00003	83 ec 14	 sub	 esp, 20			; 00000014H
  00006	89 4d fc	 mov	 DWORD PTR _this$[ebp], ecx

; 16   : 	if (isAttacking())

  00009	8b 4d fc	 mov	 ecx, DWORD PTR _this$[ebp]
  0000c	e8 00 00 00 00	 call	 ?isAttacking@CActorInstance@@QAEHXZ ; CActorInstance::isAttacking
  00011	85 c0		 test	 eax, eax
  00013	74 6d		 je	 SHORT $LN5@MotionEven

; 17   : 	{
; 18   : 		DWORD dwNextFrame = DWORD(GetAttackingElapsedTime() * g_fGameFPS);

  00015	8b 4d fc	 mov	 ecx, DWORD PTR _this$[ebp]
  00018	e8 00 00 00 00	 call	 ?GetAttackingElapsedTime@CActorInstance@@QAEMXZ ; CActorInstance::GetAttackingElapsedTime
  0001d	d9 5d f0	 fstp	 DWORD PTR tv132[ebp]
  00020	f3 0f 10 45 f0	 movss	 xmm0, DWORD PTR tv132[ebp]
  00025	f3 0f 59 05 00
	00 00 00	 mulss	 xmm0, DWORD PTR ?g_fGameFPS@@3MA
  0002d	e8 00 00 00 00	 call	 __ftoui3
  00032	89 45 ec	 mov	 DWORD PTR _dwNextFrame$1[ebp], eax

; 19   : 		for (; m_kCurMotNode.dwcurFrame < dwNextFrame; ++m_kCurMotNode.dwcurFrame)

  00035	eb 13		 jmp	 SHORT $LN4@MotionEven
$LN2@MotionEven:
  00037	8b 45 fc	 mov	 eax, DWORD PTR _this$[ebp]
  0003a	8b 80 4c 02 00
	00		 mov	 eax, DWORD PTR [eax+588]
  00040	40		 inc	 eax
  00041	8b 4d fc	 mov	 ecx, DWORD PTR _this$[ebp]
  00044	89 81 4c 02 00
	00		 mov	 DWORD PTR [ecx+588], eax
$LN4@MotionEven:
  0004a	8b 45 fc	 mov	 eax, DWORD PTR _this$[ebp]
  0004d	8b 80 4c 02 00
	00		 mov	 eax, DWORD PTR [eax+588]
  00053	3b 45 ec	 cmp	 eax, DWORD PTR _dwNextFrame$1[ebp]
  00056	73 28		 jae	 SHORT $LN3@MotionEven

; 20   : 		{
; 21   : 			MotionEventProcess();

  00058	8b 4d fc	 mov	 ecx, DWORD PTR _this$[ebp]
  0005b	e8 00 00 00 00	 call	 ?MotionEventProcess@CActorInstance@@QAEXXZ ; CActorInstance::MotionEventProcess

; 22   : 			SoundEventProcess(!isPC);

  00060	83 7d 08 00	 cmp	 DWORD PTR _isPC$[ebp], 0
  00064	75 09		 jne	 SHORT $LN8@MotionEven
  00066	c7 45 f8 01 00
	00 00		 mov	 DWORD PTR tv82[ebp], 1
  0006d	eb 04		 jmp	 SHORT $LN9@MotionEven
$LN8@MotionEven:
  0006f	83 65 f8 00	 and	 DWORD PTR tv82[ebp], 0
$LN9@MotionEven:
  00073	ff 75 f8	 push	 DWORD PTR tv82[ebp]
  00076	8b 4d fc	 mov	 ecx, DWORD PTR _this$[ebp]
  00079	e8 00 00 00 00	 call	 ?SoundEventProcess@CActorInstance@@QAEXH@Z ; CActorInstance::SoundEventProcess

; 23   : 		}

  0007e	eb b7		 jmp	 SHORT $LN2@MotionEven
$LN3@MotionEven:

; 24   : 	}

  00080	eb 39		 jmp	 SHORT $LN6@MotionEven
$LN5@MotionEven:

; 25   : 	else
; 26   : 	{
; 27   : 		MotionEventProcess();

  00082	8b 4d fc	 mov	 ecx, DWORD PTR _this$[ebp]
  00085	e8 00 00 00 00	 call	 ?MotionEventProcess@CActorInstance@@QAEXXZ ; CActorInstance::MotionEventProcess

; 28   : 		SoundEventProcess(!isPC);

  0008a	83 7d 08 00	 cmp	 DWORD PTR _isPC$[ebp], 0
  0008e	75 09		 jne	 SHORT $LN10@MotionEven
  00090	c7 45 f4 01 00
	00 00		 mov	 DWORD PTR tv87[ebp], 1
  00097	eb 04		 jmp	 SHORT $LN11@MotionEven
$LN10@MotionEven:
  00099	83 65 f4 00	 and	 DWORD PTR tv87[ebp], 0
$LN11@MotionEven:
  0009d	ff 75 f4	 push	 DWORD PTR tv87[ebp]
  000a0	8b 4d fc	 mov	 ecx, DWORD PTR _this$[ebp]
  000a3	e8 00 00 00 00	 call	 ?SoundEventProcess@CActorInstance@@QAEXH@Z ; CActorInstance::SoundEventProcess

; 29   : 
; 30   : 		++m_kCurMotNode.dwcurFrame;

  000a8	8b 45 fc	 mov	 eax, DWORD PTR _this$[ebp]
  000ab	8b 80 4c 02 00
	00		 mov	 eax, DWORD PTR [eax+588]
  000b1	40		 inc	 eax
  000b2	8b 4d fc	 mov	 ecx, DWORD PTR _this$[ebp]
  000b5	89 81 4c 02 00
	00		 mov	 DWORD PTR [ecx+588], eax
$LN6@MotionEven:

; 31   : 	}
; 32   : }

  000bb	c9		 leave
  000bc	c2 04 00	 ret	 4
?__MotionEventProcess@CActorInstance@@QAEXH@Z ENDP	; CActorInstance::__MotionEventProcess
_TEXT	ENDS
; Function compile flags: /Odspy
; File D:\Metin2 Server Files\mainline\SRC_2014\Metin2Client\GameLib\ActorInstanceMotion.cpp
;	COMDAT ?MotionProcess@CActorInstance@@QAEXH@Z
_TEXT	SEGMENT
_this$ = -4						; size = 4
_isPC$ = 8						; size = 4
?MotionProcess@CActorInstance@@QAEXH@Z PROC		; CActorInstance::MotionProcess, COMDAT
; _this$ = ecx

; 35   : {

  00000	55		 push	 ebp
  00001	8b ec		 mov	 ebp, esp
  00003	51		 push	 ecx
  00004	89 4d fc	 mov	 DWORD PTR _this$[ebp], ecx

; 36   : 	__MotionEventProcess(isPC);

  00007	ff 75 08	 push	 DWORD PTR _isPC$[ebp]
  0000a	8b 4d fc	 mov	 ecx, DWORD PTR _this$[ebp]
  0000d	e8 00 00 00 00	 call	 ?__MotionEventProcess@CActorInstance@@QAEXH@Z ; CActorInstance::__MotionEventProcess

; 37   : 	CurrentMotionProcess();

  00012	8b 4d fc	 mov	 ecx, DWORD PTR _this$[ebp]
  00015	e8 00 00 00 00	 call	 ?CurrentMotionProcess@CActorInstance@@IAEXXZ ; CActorInstance::CurrentMotionProcess

; 38   : 	ReservingMotionProcess();

  0001a	8b 4d fc	 mov	 ecx, DWORD PTR _this$[ebp]
  0001d	e8 00 00 00 00	 call	 ?ReservingMotionProcess@CActorInstance@@IAEXXZ ; CActorInstance::ReservingMotionProcess

; 39   : }

  00022	c9		 leave
  00023	c2 04 00	 ret	 4
?MotionProcess@CActorInstance@@QAEXH@Z ENDP		; CActorInstance::MotionProcess
_TEXT	ENDS
; Function compile flags: /Odspy
; File D:\Metin2 Server Files\mainline\SRC_2014\Metin2Client\GameLib\ActorInstanceMotion.cpp
;	COMDAT ?HORSE_MotionProcess@CActorInstance@@QAEXH@Z
_TEXT	SEGMENT
_this$ = -4						; size = 4
_isPC$ = 8						; size = 4
?HORSE_MotionProcess@CActorInstance@@QAEXH@Z PROC	; CActorInstance::HORSE_MotionProcess, COMDAT
; _this$ = ecx

; 42   : {

  00000	55		 push	 ebp
  00001	8b ec		 mov	 ebp, esp
  00003	51		 push	 ecx
  00004	89 4d fc	 mov	 DWORD PTR _this$[ebp], ecx

; 43   : 	__MotionEventProcess(isPC);

  00007	ff 75 08	 push	 DWORD PTR _isPC$[ebp]
  0000a	8b 4d fc	 mov	 ecx, DWORD PTR _this$[ebp]
  0000d	e8 00 00 00 00	 call	 ?__MotionEventProcess@CActorInstance@@QAEXH@Z ; CActorInstance::__MotionEventProcess

; 44   : 
; 45   : 	if (MOTION_TYPE_LOOP == m_kCurMotNode.iMotionType)

  00012	8b 45 fc	 mov	 eax, DWORD PTR _this$[ebp]
  00015	83 b8 44 02 00
	00 02		 cmp	 DWORD PTR [eax+580], 2
  0001c	75 1e		 jne	 SHORT $LN1@HORSE_Moti

; 46   : 		if (m_kCurMotNode.dwcurFrame >= m_kCurMotNode.dwFrameCount)

  0001e	8b 45 fc	 mov	 eax, DWORD PTR _this$[ebp]
  00021	8b 4d fc	 mov	 ecx, DWORD PTR _this$[ebp]
  00024	8b 80 4c 02 00
	00		 mov	 eax, DWORD PTR [eax+588]
  0002a	3b 81 50 02 00
	00		 cmp	 eax, DWORD PTR [ecx+592]
  00030	72 0a		 jb	 SHORT $LN1@HORSE_Moti

; 47   : 			m_kCurMotNode.dwcurFrame = 0;

  00032	8b 45 fc	 mov	 eax, DWORD PTR _this$[ebp]
  00035	83 a0 4c 02 00
	00 00		 and	 DWORD PTR [eax+588], 0
$LN1@HORSE_Moti:

; 48   : }

  0003c	c9		 leave
  0003d	c2 04 00	 ret	 4
?HORSE_MotionProcess@CActorInstance@@QAEXH@Z ENDP	; CActorInstance::HORSE_MotionProcess
_TEXT	ENDS
; Function compile flags: /Odspy
; File D:\Metin2 Server Files\mainline\SRC_2014\Metin2Client\GameLib\ActorInstanceMotion.cpp
;	COMDAT ?IsFishing@CActorInstance@@QAEHXZ
_TEXT	SEGMENT
_this$ = -4						; size = 4
?IsFishing@CActorInstance@@QAEHXZ PROC			; CActorInstance::IsFishing, COMDAT
; _this$ = ecx

; 455  : {

  00000	55		 push	 ebp
  00001	8b ec		 mov	 ebp, esp
  00003	51		 push	 ecx
  00004	89 4d fc	 mov	 DWORD PTR _this$[ebp], ecx

; 456  : 	if (!m_pkCurRaceMotionData)

  00007	8b 45 fc	 mov	 eax, DWORD PTR _this$[ebp]
  0000a	83 b8 58 03 00
	00 00		 cmp	 DWORD PTR [eax+856], 0
  00011	75 04		 jne	 SHORT $LN2@IsFishing

; 457  : 		return FALSE;

  00013	33 c0		 xor	 eax, eax
  00015	eb 27		 jmp	 SHORT $LN1@IsFishing
$LN2@IsFishing:

; 458  : 
; 459  : 	if (__GetCurrentMotionIndex() == CRaceMotionData::NAME_FISHING_WAIT ||

  00017	8b 4d fc	 mov	 ecx, DWORD PTR _this$[ebp]
  0001a	e8 00 00 00 00	 call	 ?__GetCurrentMotionIndex@CActorInstance@@IAEGXZ ; CActorInstance::__GetCurrentMotionIndex
  0001f	0f b7 c0	 movzx	 eax, ax
  00022	83 f8 1b	 cmp	 eax, 27			; 0000001bH
  00025	74 10		 je	 SHORT $LN4@IsFishing
  00027	8b 4d fc	 mov	 ecx, DWORD PTR _this$[ebp]
  0002a	e8 00 00 00 00	 call	 ?__GetCurrentMotionIndex@CActorInstance@@IAEGXZ ; CActorInstance::__GetCurrentMotionIndex
  0002f	0f b7 c0	 movzx	 eax, ax
  00032	83 f8 1d	 cmp	 eax, 29			; 0000001dH
  00035	75 05		 jne	 SHORT $LN3@IsFishing
$LN4@IsFishing:

; 460  : 		__GetCurrentMotionIndex() == CRaceMotionData::NAME_FISHING_REACT)
; 461  : 		return TRUE;

  00037	33 c0		 xor	 eax, eax
  00039	40		 inc	 eax
  0003a	eb 02		 jmp	 SHORT $LN1@IsFishing
$LN3@IsFishing:

; 462  : 
; 463  : 	return FALSE;

  0003c	33 c0		 xor	 eax, eax
$LN1@IsFishing:

; 464  : }

  0003e	c9		 leave
  0003f	c3		 ret	 0
?IsFishing@CActorInstance@@QAEHXZ ENDP			; CActorInstance::IsFishing
_TEXT	ENDS
; Function compile flags: /Odspy
; File D:\Metin2 Server Files\mainline\SRC_2014\Metin2Client\GameLib\ActorInstanceMotion.cpp
;	COMDAT ?PreAttack@CActorInstance@@QAEXXZ
_TEXT	SEGMENT
_this$ = -4						; size = 4
?PreAttack@CActorInstance@@QAEXXZ PROC			; CActorInstance::PreAttack, COMDAT
; _this$ = ecx

; 624  : {

  00000	55		 push	 ebp
  00001	8b ec		 mov	 ebp, esp
  00003	51		 push	 ecx
  00004	89 4d fc	 mov	 DWORD PTR _this$[ebp], ecx

; 625  : }

  00007	c9		 leave
  00008	c3		 ret	 0
?PreAttack@CActorInstance@@QAEXXZ ENDP			; CActorInstance::PreAttack
_TEXT	ENDS
; Function compile flags: /Odspy
; File D:\Metin2 Server Files\mainline\SRC_2014\Metin2Client\GameLib\ActorInstanceMotion.cpp
;	COMDAT ?CanCancelSkill@CActorInstance@@QAEHXZ
_TEXT	SEGMENT
_this$ = -4						; size = 4
?CanCancelSkill@CActorInstance@@QAEHXZ PROC		; CActorInstance::CanCancelSkill, COMDAT
; _this$ = ecx

; 467  : {

  00000	55		 push	 ebp
  00001	8b ec		 mov	 ebp, esp
  00003	51		 push	 ecx
  00004	89 4d fc	 mov	 DWORD PTR _this$[ebp], ecx

; 468  : 	assert(IsUsingSkill());
; 469  : 	return m_pkCurRaceMotionData->IsCancelEnableSkill();

  00007	8b 45 fc	 mov	 eax, DWORD PTR _this$[ebp]
  0000a	8b 88 58 03 00
	00		 mov	 ecx, DWORD PTR [eax+856]
  00010	e8 00 00 00 00	 call	 ?IsCancelEnableSkill@CRaceMotionData@@QBEHXZ ; CRaceMotionData::IsCancelEnableSkill

; 470  : }

  00015	c9		 leave
  00016	c3		 ret	 0
?CanCancelSkill@CActorInstance@@QAEHXZ ENDP		; CActorInstance::CanCancelSkill
_TEXT	ENDS
; Function compile flags: /Odspy
; File D:\Metin2 Server Files\mainline\SRC_2014\Metin2Client\GameLib\ActorInstanceMotion.cpp
;	COMDAT ?IsUsingSkill@CActorInstance@@QAEHXZ
_TEXT	SEGMENT
_this$ = -12						; size = 4
tv69 = -8						; size = 4
_dwCurMotionIndex$ = -4					; size = 4
?IsUsingSkill@CActorInstance@@QAEHXZ PROC		; CActorInstance::IsUsingSkill, COMDAT
; _this$ = ecx

; 434  : {

  00000	55		 push	 ebp
  00001	8b ec		 mov	 ebp, esp
  00003	83 ec 0c	 sub	 esp, 12			; 0000000cH
  00006	89 4d f4	 mov	 DWORD PTR _this$[ebp], ecx

; 435  : 	DWORD dwCurMotionIndex=__GetCurrentMotionIndex();

  00009	8b 4d f4	 mov	 ecx, DWORD PTR _this$[ebp]
  0000c	e8 00 00 00 00	 call	 ?__GetCurrentMotionIndex@CActorInstance@@IAEGXZ ; CActorInstance::__GetCurrentMotionIndex
  00011	0f b7 c0	 movzx	 eax, ax
  00014	89 45 fc	 mov	 DWORD PTR _dwCurMotionIndex$[ebp], eax

; 436  : 
; 437  : 	if (dwCurMotionIndex>=CRaceMotionData::NAME_SKILL && dwCurMotionIndex<CRaceMotionData::NAME_SKILL_END)

  00017	83 7d fc 32	 cmp	 DWORD PTR _dwCurMotionIndex$[ebp], 50 ; 00000032H
  0001b	72 0e		 jb	 SHORT $LN4@IsUsingSki
  0001d	81 7d fc 31 01
	00 00		 cmp	 DWORD PTR _dwCurMotionIndex$[ebp], 305 ; 00000131H
  00024	73 05		 jae	 SHORT $LN4@IsUsingSki

; 438  : 		return TRUE;

  00026	33 c0		 xor	 eax, eax
  00028	40		 inc	 eax
  00029	eb 1b		 jmp	 SHORT $LN1@IsUsingSki
$LN4@IsUsingSki:

; 439  : 
; 440  : 	switch (dwCurMotionIndex)

  0002b	8b 45 fc	 mov	 eax, DWORD PTR _dwCurMotionIndex$[ebp]
  0002e	89 45 f8	 mov	 DWORD PTR tv69[ebp], eax
  00031	83 7d f8 21	 cmp	 DWORD PTR tv69[ebp], 33	; 00000021H
  00035	72 0d		 jb	 SHORT $LN2@IsUsingSki
  00037	83 7d f8 26	 cmp	 DWORD PTR tv69[ebp], 38	; 00000026H
  0003b	76 02		 jbe	 SHORT $LN5@IsUsingSki
  0003d	eb 05		 jmp	 SHORT $LN2@IsUsingSki
$LN5@IsUsingSki:

; 441  : 	{
; 442  : 		case CRaceMotionData::NAME_SPECIAL_1:
; 443  : 		case CRaceMotionData::NAME_SPECIAL_2:
; 444  : 		case CRaceMotionData::NAME_SPECIAL_3:
; 445  : 		case CRaceMotionData::NAME_SPECIAL_4:
; 446  : 		case CRaceMotionData::NAME_SPECIAL_5:
; 447  : 		case CRaceMotionData::NAME_SPECIAL_6:
; 448  : 			return TRUE;

  0003f	33 c0		 xor	 eax, eax
  00041	40		 inc	 eax
  00042	eb 02		 jmp	 SHORT $LN1@IsUsingSki
$LN2@IsUsingSki:

; 449  : 	}
; 450  : 	
; 451  : 	return FALSE;

  00044	33 c0		 xor	 eax, eax
$LN1@IsUsingSki:

; 452  : }

  00046	c9		 leave
  00047	c3		 ret	 0
?IsUsingSkill@CActorInstance@@QAEHXZ ENDP		; CActorInstance::IsUsingSkill
_TEXT	ENDS
; Function compile flags: /Odspy
; File D:\Metin2 Server Files\mainline\SRC_2014\Metin2Client\GameLib\ActorInstanceMotion.cpp
;	COMDAT ?isLock@CActorInstance@@QAEHXZ
_TEXT	SEGMENT
_dwCurMotionIndex$ = -12				; size = 4
_this$ = -8						; size = 4
tv67 = -4						; size = 4
?isLock@CActorInstance@@QAEHXZ PROC			; CActorInstance::isLock, COMDAT
; _this$ = ecx

; 473  : {

  00000	55		 push	 ebp
  00001	8b ec		 mov	 ebp, esp
  00003	83 ec 0c	 sub	 esp, 12			; 0000000cH
  00006	89 4d f8	 mov	 DWORD PTR _this$[ebp], ecx

; 474  : 	DWORD dwCurMotionIndex=__GetCurrentMotionIndex();

  00009	8b 4d f8	 mov	 ecx, DWORD PTR _this$[ebp]
  0000c	e8 00 00 00 00	 call	 ?__GetCurrentMotionIndex@CActorInstance@@IAEGXZ ; CActorInstance::__GetCurrentMotionIndex
  00011	0f b7 c0	 movzx	 eax, ax
  00014	89 45 f4	 mov	 DWORD PTR _dwCurMotionIndex$[ebp], eax

; 475  : 
; 476  : 	// Locked during attack
; 477  : 	switch (dwCurMotionIndex)

  00017	8b 45 f4	 mov	 eax, DWORD PTR _dwCurMotionIndex$[ebp]
  0001a	89 45 fc	 mov	 DWORD PTR tv67[ebp], eax
  0001d	81 7d fc 44 01
	00 00		 cmp	 DWORD PTR tv67[ebp], 324 ; 00000144H
  00024	77 2f		 ja	 SHORT $LN8@isLock
  00026	81 7d fc 32 01
	00 00		 cmp	 DWORD PTR tv67[ebp], 306 ; 00000132H
  0002d	73 4c		 jae	 SHORT $LN4@isLock
  0002f	83 7d fc 0d	 cmp	 DWORD PTR tv67[ebp], 13	; 0000000dH
  00033	72 4b		 jb	 SHORT $LN2@isLock
  00035	83 7d fc 15	 cmp	 DWORD PTR tv67[ebp], 21	; 00000015H
  00039	76 40		 jbe	 SHORT $LN4@isLock
  0003b	83 7d fc 19	 cmp	 DWORD PTR tv67[ebp], 25	; 00000019H
  0003f	76 3f		 jbe	 SHORT $LN2@isLock
  00041	83 7d fc 1f	 cmp	 DWORD PTR tv67[ebp], 31	; 0000001fH
  00045	76 34		 jbe	 SHORT $LN4@isLock
  00047	83 7d fc 20	 cmp	 DWORD PTR tv67[ebp], 32	; 00000020H
  0004b	76 33		 jbe	 SHORT $LN2@isLock
  0004d	83 7d fc 26	 cmp	 DWORD PTR tv67[ebp], 38	; 00000026H
  00051	76 28		 jbe	 SHORT $LN4@isLock
  00053	eb 2b		 jmp	 SHORT $LN2@isLock
$LN8@isLock:
  00055	81 7d fc 46 01
	00 00		 cmp	 DWORD PTR tv67[ebp], 326 ; 00000146H
  0005c	72 22		 jb	 SHORT $LN2@isLock
  0005e	81 7d fc 4b 01
	00 00		 cmp	 DWORD PTR tv67[ebp], 331 ; 0000014bH
  00065	76 14		 jbe	 SHORT $LN4@isLock
  00067	81 7d fc 56 01
	00 00		 cmp	 DWORD PTR tv67[ebp], 342 ; 00000156H
  0006e	76 10		 jbe	 SHORT $LN2@isLock
  00070	81 7d fc 5f 01
	00 00		 cmp	 DWORD PTR tv67[ebp], 351 ; 0000015fH
  00077	76 02		 jbe	 SHORT $LN4@isLock
  00079	eb 05		 jmp	 SHORT $LN2@isLock
$LN4@isLock:

; 478  : 	{
; 479  : 		case CRaceMotionData::NAME_NORMAL_ATTACK:
; 480  : 		case CRaceMotionData::NAME_COMBO_ATTACK_1:
; 481  : 		case CRaceMotionData::NAME_COMBO_ATTACK_2:
; 482  : 		case CRaceMotionData::NAME_COMBO_ATTACK_3:
; 483  : 		case CRaceMotionData::NAME_COMBO_ATTACK_4:
; 484  : 		case CRaceMotionData::NAME_COMBO_ATTACK_5:
; 485  : 		case CRaceMotionData::NAME_COMBO_ATTACK_6:
; 486  : 		case CRaceMotionData::NAME_COMBO_ATTACK_7:
; 487  : 		case CRaceMotionData::NAME_COMBO_ATTACK_8:
; 488  : 		case CRaceMotionData::NAME_SPECIAL_1:
; 489  : 		case CRaceMotionData::NAME_SPECIAL_2:
; 490  : 		case CRaceMotionData::NAME_SPECIAL_3:
; 491  : 		case CRaceMotionData::NAME_SPECIAL_4:
; 492  : 		case CRaceMotionData::NAME_SPECIAL_5:
; 493  : 		case CRaceMotionData::NAME_SPECIAL_6:
; 494  : 		case CRaceMotionData::NAME_FISHING_THROW:
; 495  : 		case CRaceMotionData::NAME_FISHING_WAIT:
; 496  : 		case CRaceMotionData::NAME_FISHING_STOP:
; 497  : 		case CRaceMotionData::NAME_FISHING_REACT:
; 498  : 		case CRaceMotionData::NAME_FISHING_CATCH:
; 499  : 		case CRaceMotionData::NAME_FISHING_FAIL:
; 500  : 		case CRaceMotionData::NAME_CLAP:
; 501  : 		case CRaceMotionData::NAME_DANCE_1:
; 502  : 		case CRaceMotionData::NAME_DANCE_2:	
; 503  : 		case CRaceMotionData::NAME_DANCE_3:
; 504  : 		case CRaceMotionData::NAME_DANCE_4:
; 505  : 		case CRaceMotionData::NAME_DANCE_5:
; 506  : 		case CRaceMotionData::NAME_DANCE_6:
; 507  : 		case CRaceMotionData::NAME_CONGRATULATION:
; 508  : 		case CRaceMotionData::NAME_FORGIVE:
; 509  : 		case CRaceMotionData::NAME_ANGRY:
; 510  : 		case CRaceMotionData::NAME_ATTRACTIVE:
; 511  : 		case CRaceMotionData::NAME_SAD:
; 512  : 		case CRaceMotionData::NAME_SHY:
; 513  : 		case CRaceMotionData::NAME_CHEERUP:
; 514  : 		case CRaceMotionData::NAME_BANTER:
; 515  : 		case CRaceMotionData::NAME_JOY:
; 516  : 		case CRaceMotionData::NAME_CHEERS_1:
; 517  : 		case CRaceMotionData::NAME_CHEERS_2:
; 518  : 		case CRaceMotionData::NAME_KISS_WITH_WARRIOR:
; 519  : 		case CRaceMotionData::NAME_KISS_WITH_ASSASSIN:
; 520  : 		case CRaceMotionData::NAME_KISS_WITH_SURA:
; 521  : 		case CRaceMotionData::NAME_KISS_WITH_SHAMAN:
; 522  : 		case CRaceMotionData::NAME_FRENCH_KISS_WITH_WARRIOR:
; 523  : 		case CRaceMotionData::NAME_FRENCH_KISS_WITH_ASSASSIN:
; 524  : 		case CRaceMotionData::NAME_FRENCH_KISS_WITH_SURA:
; 525  : 		case CRaceMotionData::NAME_FRENCH_KISS_WITH_SHAMAN:
; 526  : 		case CRaceMotionData::NAME_SLAP_HIT_WITH_WARRIOR:
; 527  : 		case CRaceMotionData::NAME_SLAP_HIT_WITH_ASSASSIN:
; 528  : 		case CRaceMotionData::NAME_SLAP_HIT_WITH_SURA:
; 529  : 		case CRaceMotionData::NAME_SLAP_HIT_WITH_SHAMAN:
; 530  : 		case CRaceMotionData::NAME_SLAP_HURT_WITH_WARRIOR:
; 531  : 		case CRaceMotionData::NAME_SLAP_HURT_WITH_ASSASSIN:
; 532  : 		case CRaceMotionData::NAME_SLAP_HURT_WITH_SURA:
; 533  : 		case CRaceMotionData::NAME_SLAP_HURT_WITH_SHAMAN:
; 534  : 			return TRUE;

  0007b	33 c0		 xor	 eax, eax
  0007d	40		 inc	 eax
  0007e	eb 29		 jmp	 SHORT $LN1@isLock
$LN2@isLock:

; 535  : 			break;
; 536  : 	}
; 537  : 
; 538  : 	// Locked during using skill
; 539  : 	if (IsUsingSkill())

  00080	8b 4d f8	 mov	 ecx, DWORD PTR _this$[ebp]
  00083	e8 00 00 00 00	 call	 ?IsUsingSkill@CActorInstance@@QAEHXZ ; CActorInstance::IsUsingSkill
  00088	85 c0		 test	 eax, eax
  0008a	74 1b		 je	 SHORT $LN5@isLock

; 540  : 	{
; 541  : 		if (m_pkCurRaceMotionData->IsCancelEnableSkill())

  0008c	8b 45 f8	 mov	 eax, DWORD PTR _this$[ebp]
  0008f	8b 88 58 03 00
	00		 mov	 ecx, DWORD PTR [eax+856]
  00095	e8 00 00 00 00	 call	 ?IsCancelEnableSkill@CRaceMotionData@@QBEHXZ ; CRaceMotionData::IsCancelEnableSkill
  0009a	85 c0		 test	 eax, eax
  0009c	74 04		 je	 SHORT $LN6@isLock

; 542  : 			return FALSE;

  0009e	33 c0		 xor	 eax, eax
  000a0	eb 07		 jmp	 SHORT $LN1@isLock
$LN6@isLock:

; 543  : 
; 544  : 		return TRUE;

  000a2	33 c0		 xor	 eax, eax
  000a4	40		 inc	 eax
  000a5	eb 02		 jmp	 SHORT $LN1@isLock
$LN5@isLock:

; 545  : 	}
; 546  : 
; 547  : 	return FALSE;

  000a7	33 c0		 xor	 eax, eax
$LN1@isLock:

; 548  : }

  000a9	c9		 leave
  000aa	c3		 ret	 0
?isLock@CActorInstance@@QAEHXZ ENDP			; CActorInstance::isLock
_TEXT	ENDS
; Function compile flags: /Odspy
; File D:\Metin2 Server Files\mainline\SRC_2014\Metin2Client\GameLib\ActorInstanceMotion.cpp
;	COMDAT ?SetMotionLoopCount@CActorInstance@@QAEXH@Z
_TEXT	SEGMENT
_this$ = -4						; size = 4
_iCount$ = 8						; size = 4
?SetMotionLoopCount@CActorInstance@@QAEXH@Z PROC	; CActorInstance::SetMotionLoopCount, COMDAT
; _this$ = ecx

; 261  : {

  00000	55		 push	 ebp
  00001	8b ec		 mov	 ebp, esp
  00003	51		 push	 ecx
  00004	89 4d fc	 mov	 DWORD PTR _this$[ebp], ecx

; 262  : 	assert(iCount >= -1 && iCount < 100);
; 263  : 	m_kCurMotNode.iLoopCount = iCount;

  00007	8b 45 fc	 mov	 eax, DWORD PTR _this$[ebp]
  0000a	8b 4d 08	 mov	 ecx, DWORD PTR _iCount$[ebp]
  0000d	89 88 60 02 00
	00		 mov	 DWORD PTR [eax+608], ecx

; 264  : }

  00013	c9		 leave
  00014	c2 04 00	 ret	 4
?SetMotionLoopCount@CActorInstance@@QAEXH@Z ENDP	; CActorInstance::SetMotionLoopCount
_TEXT	ENDS
; Function compile flags: /Odspy
; File D:\Metin2 Server Files\mainline\SRC_2014\Metin2Client\GameLib\ActorInstanceMotion.cpp
;	COMDAT ?PushLoopMotion@CActorInstance@@QAE_NKMM@Z
_TEXT	SEGMENT
_MotionKey$ = -8					; size = 4
_this$ = -4						; size = 4
_dwMotion$ = 8						; size = 4
_fBlendTime$ = 12					; size = 4
_fSpeedRatio$ = 16					; size = 4
?PushLoopMotion@CActorInstance@@QAE_NKMM@Z PROC		; CActorInstance::PushLoopMotion, COMDAT
; _this$ = ecx

; 412  : {

  00000	55		 push	 ebp
  00001	8b ec		 mov	 ebp, esp
  00003	51		 push	 ecx
  00004	51		 push	 ecx
  00005	89 4d fc	 mov	 DWORD PTR _this$[ebp], ecx

; 413  : 	assert(m_pkCurRaceData);
; 414  : 
; 415  : 	MOTION_KEY MotionKey;
; 416  : 	if (!m_pkCurRaceData->GetMotionKey(m_wcurMotionMode, dwMotion, &MotionKey))

  00008	8d 45 f8	 lea	 eax, DWORD PTR _MotionKey$[ebp]
  0000b	50		 push	 eax
  0000c	ff 75 08	 push	 DWORD PTR _dwMotion$[ebp]
  0000f	8b 45 fc	 mov	 eax, DWORD PTR _this$[ebp]
  00012	0f b7 80 68 02
	00 00		 movzx	 eax, WORD PTR [eax+616]
  00019	50		 push	 eax
  0001a	8b 45 fc	 mov	 eax, DWORD PTR _this$[ebp]
  0001d	8b 88 54 03 00
	00		 mov	 ecx, DWORD PTR [eax+852]
  00023	e8 00 00 00 00	 call	 ?GetMotionKey@CRaceData@@QAEHGGPAK@Z ; CRaceData::GetMotionKey
  00028	85 c0		 test	 eax, eax
  0002a	75 04		 jne	 SHORT $LN2@PushLoopMo

; 417  : 		return false;

  0002c	32 c0		 xor	 al, al
  0002e	eb 25		 jmp	 SHORT $LN1@PushLoopMo
$LN2@PushLoopMo:

; 418  : 
; 419  : 	PushMotion(MOTION_TYPE_LOOP, MotionKey, fBlendTime, fSpeedRatio);

  00030	51		 push	 ecx
  00031	f3 0f 10 45 10	 movss	 xmm0, DWORD PTR _fSpeedRatio$[ebp]
  00036	f3 0f 11 04 24	 movss	 DWORD PTR [esp], xmm0
  0003b	51		 push	 ecx
  0003c	f3 0f 10 45 0c	 movss	 xmm0, DWORD PTR _fBlendTime$[ebp]
  00041	f3 0f 11 04 24	 movss	 DWORD PTR [esp], xmm0
  00046	ff 75 f8	 push	 DWORD PTR _MotionKey$[ebp]
  00049	6a 02		 push	 2
  0004b	8b 4d fc	 mov	 ecx, DWORD PTR _this$[ebp]
  0004e	e8 00 00 00 00	 call	 ?PushMotion@CActorInstance@@IAEXW4EMotionPushType@1@KMM@Z ; CActorInstance::PushMotion

; 420  : 	return true;

  00053	b0 01		 mov	 al, 1
$LN1@PushLoopMo:

; 421  : }

  00055	c9		 leave
  00056	c2 0c 00	 ret	 12			; 0000000cH
?PushLoopMotion@CActorInstance@@QAE_NKMM@Z ENDP		; CActorInstance::PushLoopMotion
_TEXT	ENDS
; Function compile flags: /Odspy
; File D:\Metin2 Server Files\mainline\SRC_2014\Metin2Client\GameLib\ActorInstanceMotion.cpp
;	COMDAT ?PushOnceMotion@CActorInstance@@QAE_NKMM@Z
_TEXT	SEGMENT
_MotionKey$ = -8					; size = 4
_this$ = -4						; size = 4
_dwMotion$ = 8						; size = 4
_fBlendTime$ = 12					; size = 4
_fSpeedRatio$ = 16					; size = 4
?PushOnceMotion@CActorInstance@@QAE_NKMM@Z PROC		; CActorInstance::PushOnceMotion, COMDAT
; _this$ = ecx

; 400  : {

  00000	55		 push	 ebp
  00001	8b ec		 mov	 ebp, esp
  00003	51		 push	 ecx
  00004	51		 push	 ecx
  00005	89 4d fc	 mov	 DWORD PTR _this$[ebp], ecx

; 401  : 	assert(m_pkCurRaceData);
; 402  : 
; 403  : 	MOTION_KEY MotionKey;
; 404  : 	if (!m_pkCurRaceData->GetMotionKey(m_wcurMotionMode, dwMotion, &MotionKey))

  00008	8d 45 f8	 lea	 eax, DWORD PTR _MotionKey$[ebp]
  0000b	50		 push	 eax
  0000c	ff 75 08	 push	 DWORD PTR _dwMotion$[ebp]
  0000f	8b 45 fc	 mov	 eax, DWORD PTR _this$[ebp]
  00012	0f b7 80 68 02
	00 00		 movzx	 eax, WORD PTR [eax+616]
  00019	50		 push	 eax
  0001a	8b 45 fc	 mov	 eax, DWORD PTR _this$[ebp]
  0001d	8b 88 54 03 00
	00		 mov	 ecx, DWORD PTR [eax+852]
  00023	e8 00 00 00 00	 call	 ?GetMotionKey@CRaceData@@QAEHGGPAK@Z ; CRaceData::GetMotionKey
  00028	85 c0		 test	 eax, eax
  0002a	75 04		 jne	 SHORT $LN2@PushOnceMo

; 405  : 		return false;

  0002c	32 c0		 xor	 al, al
  0002e	eb 25		 jmp	 SHORT $LN1@PushOnceMo
$LN2@PushOnceMo:

; 406  : 
; 407  : 	PushMotion(MOTION_TYPE_ONCE, MotionKey, fBlendTime, fSpeedRatio);

  00030	51		 push	 ecx
  00031	f3 0f 10 45 10	 movss	 xmm0, DWORD PTR _fSpeedRatio$[ebp]
  00036	f3 0f 11 04 24	 movss	 DWORD PTR [esp], xmm0
  0003b	51		 push	 ecx
  0003c	f3 0f 10 45 0c	 movss	 xmm0, DWORD PTR _fBlendTime$[ebp]
  00041	f3 0f 11 04 24	 movss	 DWORD PTR [esp], xmm0
  00046	ff 75 f8	 push	 DWORD PTR _MotionKey$[ebp]
  00049	6a 01		 push	 1
  0004b	8b 4d fc	 mov	 ecx, DWORD PTR _this$[ebp]
  0004e	e8 00 00 00 00	 call	 ?PushMotion@CActorInstance@@IAEXW4EMotionPushType@1@KMM@Z ; CActorInstance::PushMotion

; 408  : 	return true;

  00053	b0 01		 mov	 al, 1
$LN1@PushOnceMo:

; 409  : }

  00055	c9		 leave
  00056	c2 0c 00	 ret	 12			; 0000000cH
?PushOnceMotion@CActorInstance@@QAE_NKMM@Z ENDP		; CActorInstance::PushOnceMotion
_TEXT	ENDS
; Function compile flags: /Odspy
; File D:\Metin2 Server Files\mainline\SRC_2014\Metin2Client\GameLib\ActorInstanceMotion.cpp
;	COMDAT ?InterceptLoopMotion@CActorInstance@@QAE_NKM@Z
_TEXT	SEGMENT
_this$ = -4						; size = 4
_dwMotion$ = 8						; size = 4
_fBlendTime$ = 12					; size = 4
?InterceptLoopMotion@CActorInstance@@QAE_NKM@Z PROC	; CActorInstance::InterceptLoopMotion, COMDAT
; _this$ = ecx

; 292  : {

  00000	55		 push	 ebp
  00001	8b ec		 mov	 ebp, esp
  00003	51		 push	 ecx
  00004	89 4d fc	 mov	 DWORD PTR _this$[ebp], ecx

; 293  : 	return InterceptMotion(MOTION_TYPE_LOOP, dwMotion, fBlendTime);

  00007	51		 push	 ecx
  00008	f3 0f 10 05 00
	00 00 00	 movss	 xmm0, DWORD PTR __real@3f800000
  00010	f3 0f 11 04 24	 movss	 DWORD PTR [esp], xmm0
  00015	6a 00		 push	 0
  00017	51		 push	 ecx
  00018	f3 0f 10 45 0c	 movss	 xmm0, DWORD PTR _fBlendTime$[ebp]
  0001d	f3 0f 11 04 24	 movss	 DWORD PTR [esp], xmm0
  00022	ff 75 08	 push	 DWORD PTR _dwMotion$[ebp]
  00025	6a 02		 push	 2
  00027	8b 4d fc	 mov	 ecx, DWORD PTR _this$[ebp]
  0002a	e8 00 00 00 00	 call	 ?InterceptMotion@CActorInstance@@IAE_NW4EMotionPushType@1@GMIM@Z ; CActorInstance::InterceptMotion

; 294  : }

  0002f	c9		 leave
  00030	c2 08 00	 ret	 8
?InterceptLoopMotion@CActorInstance@@QAE_NKM@Z ENDP	; CActorInstance::InterceptLoopMotion
_TEXT	ENDS
; Function compile flags: /Odspy
; File D:\Metin2 Server Files\mainline\SRC_2014\Metin2Client\GameLib\ActorInstanceMotion.cpp
;	COMDAT ?InterceptOnceMotion@CActorInstance@@QAE_NKMIM@Z
_TEXT	SEGMENT
_this$ = -4						; size = 4
_dwMotion$ = 8						; size = 4
_fBlendTime$ = 12					; size = 4
_uSkill$ = 16						; size = 4
_fSpeedRatio$ = 20					; size = 4
?InterceptOnceMotion@CActorInstance@@QAE_NKMIM@Z PROC	; CActorInstance::InterceptOnceMotion, COMDAT
; _this$ = ecx

; 287  : {

  00000	55		 push	 ebp
  00001	8b ec		 mov	 ebp, esp
  00003	51		 push	 ecx
  00004	89 4d fc	 mov	 DWORD PTR _this$[ebp], ecx

; 288  : 	return InterceptMotion(MOTION_TYPE_ONCE, dwMotion, fBlendTime, uSkill, fSpeedRatio);

  00007	51		 push	 ecx
  00008	f3 0f 10 45 14	 movss	 xmm0, DWORD PTR _fSpeedRatio$[ebp]
  0000d	f3 0f 11 04 24	 movss	 DWORD PTR [esp], xmm0
  00012	ff 75 10	 push	 DWORD PTR _uSkill$[ebp]
  00015	51		 push	 ecx
  00016	f3 0f 10 45 0c	 movss	 xmm0, DWORD PTR _fBlendTime$[ebp]
  0001b	f3 0f 11 04 24	 movss	 DWORD PTR [esp], xmm0
  00020	ff 75 08	 push	 DWORD PTR _dwMotion$[ebp]
  00023	6a 01		 push	 1
  00025	8b 4d fc	 mov	 ecx, DWORD PTR _this$[ebp]
  00028	e8 00 00 00 00	 call	 ?InterceptMotion@CActorInstance@@IAE_NW4EMotionPushType@1@GMIM@Z ; CActorInstance::InterceptMotion

; 289  : }

  0002d	c9		 leave
  0002e	c2 10 00	 ret	 16			; 00000010H
?InterceptOnceMotion@CActorInstance@@QAE_NKMIM@Z ENDP	; CActorInstance::InterceptOnceMotion
_TEXT	ENDS
; Function compile flags: /Odspy
; File D:\Metin2 Server Files\mainline\SRC_2014\Metin2Client\GameLib\ActorInstanceMotion.cpp
;	COMDAT ?SetLoopMotion@CActorInstance@@QAEXKMM@Z
_TEXT	SEGMENT
_kSetMotData$ = -36					; size = 20
tv188 = -16						; size = 4
_dwMotionKey$ = -12					; size = 4
_dwRealMotionKey$ = -8					; size = 4
_this$ = -4						; size = 4
_dwMotion$ = 8						; size = 4
_fBlendTime$ = 12					; size = 4
_fSpeedRatio$ = 16					; size = 4
?SetLoopMotion@CActorInstance@@QAEXKMM@Z PROC		; CActorInstance::SetLoopMotion, COMDAT
; _this$ = ecx

; 297  : {

  00000	55		 push	 ebp
  00001	8b ec		 mov	 ebp, esp
  00003	83 ec 24	 sub	 esp, 36			; 00000024H
  00006	89 4d fc	 mov	 DWORD PTR _this$[ebp], ecx

; 298  : 	if (!m_pkCurRaceData)

  00009	8b 45 fc	 mov	 eax, DWORD PTR _this$[ebp]
  0000c	83 b8 54 03 00
	00 00		 cmp	 DWORD PTR [eax+852], 0
  00013	75 2d		 jne	 SHORT $LN2@SetLoopMot

; 299  : 	{
; 300  : 		Tracenf("CActorInstance::SetLoopMotion(dwMotion=%d, fBlendTime=%f, fSpeedRatio=%f)", 

  00015	f3 0f 5a 45 10	 cvtss2sd xmm0, DWORD PTR _fSpeedRatio$[ebp]
  0001a	51		 push	 ecx
  0001b	51		 push	 ecx
  0001c	f2 0f 11 04 24	 movsd	 QWORD PTR [esp], xmm0
  00021	f3 0f 5a 45 0c	 cvtss2sd xmm0, DWORD PTR _fBlendTime$[ebp]
  00026	51		 push	 ecx
  00027	51		 push	 ecx
  00028	f2 0f 11 04 24	 movsd	 QWORD PTR [esp], xmm0
  0002d	ff 75 08	 push	 DWORD PTR _dwMotion$[ebp]
  00030	68 00 00 00 00	 push	 OFFSET ??_C@_0EK@IFOPNGGO@CActorInstance?3?3SetLoopMotion?$CId@
  00035	e8 00 00 00 00	 call	 ?Tracenf@@YAXPBDZZ	; Tracenf
  0003a	83 c4 18	 add	 esp, 24			; 00000018H

; 301  : 			dwMotion, fBlendTime, fSpeedRatio);
; 302  : 		return;

  0003d	e9 36 01 00 00	 jmp	 $LN1@SetLoopMot
$LN2@SetLoopMot:

; 303  : 	}
; 304  : 
; 305  : 	MOTION_KEY dwMotionKey;
; 306  : 	if (!m_pkCurRaceData->GetMotionKey(m_wcurMotionMode, dwMotion, &dwMotionKey))

  00042	8d 45 f4	 lea	 eax, DWORD PTR _dwMotionKey$[ebp]
  00045	50		 push	 eax
  00046	ff 75 08	 push	 DWORD PTR _dwMotion$[ebp]
  00049	8b 45 fc	 mov	 eax, DWORD PTR _this$[ebp]
  0004c	0f b7 80 68 02
	00 00		 movzx	 eax, WORD PTR [eax+616]
  00053	50		 push	 eax
  00054	8b 45 fc	 mov	 eax, DWORD PTR _this$[ebp]
  00057	8b 88 54 03 00
	00		 mov	 ecx, DWORD PTR [eax+852]
  0005d	e8 00 00 00 00	 call	 ?GetMotionKey@CRaceData@@QAEHGGPAK@Z ; CRaceData::GetMotionKey
  00062	85 c0		 test	 eax, eax
  00064	75 3b		 jne	 SHORT $LN3@SetLoopMot

; 307  : 	{
; 308  : 		Tracenf("CActorInstance::SetLoopMotion(dwMotion=%d, fBlendTime=%f, fSpeedRatio=%f) - GetMotionKey(m_wcurMotionMode=%d, dwMotion=%d, &MotionKey) ERROR", 

  00066	ff 75 08	 push	 DWORD PTR _dwMotion$[ebp]
  00069	8b 45 fc	 mov	 eax, DWORD PTR _this$[ebp]
  0006c	0f b7 80 68 02
	00 00		 movzx	 eax, WORD PTR [eax+616]
  00073	50		 push	 eax
  00074	f3 0f 5a 45 10	 cvtss2sd xmm0, DWORD PTR _fSpeedRatio$[ebp]
  00079	51		 push	 ecx
  0007a	51		 push	 ecx
  0007b	f2 0f 11 04 24	 movsd	 QWORD PTR [esp], xmm0
  00080	f3 0f 5a 45 0c	 cvtss2sd xmm0, DWORD PTR _fBlendTime$[ebp]
  00085	51		 push	 ecx
  00086	51		 push	 ecx
  00087	f2 0f 11 04 24	 movsd	 QWORD PTR [esp], xmm0
  0008c	ff 75 08	 push	 DWORD PTR _dwMotion$[ebp]
  0008f	68 00 00 00 00	 push	 OFFSET ??_C@_0IN@JKOADFII@CActorInstance?3?3SetLoopMotion?$CId@
  00094	e8 00 00 00 00	 call	 ?Tracenf@@YAXPBDZZ	; Tracenf
  00099	83 c4 20	 add	 esp, 32			; 00000020H

; 309  : 			dwMotion, fBlendTime, fSpeedRatio, m_wcurMotionMode, dwMotion);
; 310  : 		return;

  0009c	e9 d7 00 00 00	 jmp	 $LN1@SetLoopMot
$LN3@SetLoopMot:

; 311  : 	}
; 312  : 
; 313  : 	__ClearMotion();

  000a1	8b 4d fc	 mov	 ecx, DWORD PTR _this$[ebp]
  000a4	e8 00 00 00 00	 call	 ?__ClearMotion@CActorInstance@@IAEXXZ ; CActorInstance::__ClearMotion

; 314  : 
; 315  : 	SSetMotionData kSetMotData;

  000a9	8d 4d dc	 lea	 ecx, DWORD PTR _kSetMotData$[ebp]
  000ac	e8 00 00 00 00	 call	 ??0SSetMotionData@CActorInstance@@QAE@XZ ; CActorInstance::SSetMotionData::SSetMotionData

; 316  : 	kSetMotData.dwMotKey=dwMotionKey;

  000b1	8b 45 f4	 mov	 eax, DWORD PTR _dwMotionKey$[ebp]
  000b4	89 45 dc	 mov	 DWORD PTR _kSetMotData$[ebp], eax

; 317  : 	kSetMotData.fBlendTime=fBlendTime;

  000b7	f3 0f 10 45 0c	 movss	 xmm0, DWORD PTR _fBlendTime$[ebp]
  000bc	f3 0f 11 45 e4	 movss	 DWORD PTR _kSetMotData$[ebp+8], xmm0

; 318  : 	kSetMotData.fSpeedRatio=fSpeedRatio;

  000c1	f3 0f 10 45 10	 movss	 xmm0, DWORD PTR _fSpeedRatio$[ebp]
  000c6	f3 0f 11 45 e0	 movss	 DWORD PTR _kSetMotData$[ebp+4], xmm0

; 319  : 
; 320  : 	DWORD dwRealMotionKey = __SetMotion(kSetMotData);

  000cb	6a 00		 push	 0
  000cd	8d 45 dc	 lea	 eax, DWORD PTR _kSetMotData$[ebp]
  000d0	50		 push	 eax
  000d1	8b 4d fc	 mov	 ecx, DWORD PTR _this$[ebp]
  000d4	e8 00 00 00 00	 call	 ?__SetMotion@CActorInstance@@IAEKABUSSetMotionData@1@K@Z ; CActorInstance::__SetMotion
  000d9	89 45 f8	 mov	 DWORD PTR _dwRealMotionKey$[ebp], eax

; 321  : 
; 322  : 	if (0 == dwRealMotionKey)

  000dc	83 7d f8 00	 cmp	 DWORD PTR _dwRealMotionKey$[ebp], 0
  000e0	75 05		 jne	 SHORT $LN4@SetLoopMot

; 323  : 		return;	

  000e2	e9 91 00 00 00	 jmp	 $LN1@SetLoopMot
$LN4@SetLoopMot:

; 324  : 
; 325  : 	m_kCurMotNode.iMotionType = MOTION_TYPE_LOOP;

  000e7	8b 45 fc	 mov	 eax, DWORD PTR _this$[ebp]
  000ea	c7 80 44 02 00
	00 02 00 00 00	 mov	 DWORD PTR [eax+580], 2

; 326  : 	m_kCurMotNode.fStartTime = GetLocalTime();

  000f4	8b 4d fc	 mov	 ecx, DWORD PTR _this$[ebp]
  000f7	e8 00 00 00 00	 call	 ?GetLocalTime@CGraphicThingInstance@@QAEMXZ ; CGraphicThingInstance::GetLocalTime
  000fc	8b 45 fc	 mov	 eax, DWORD PTR _this$[ebp]
  000ff	d9 98 54 02 00
	00		 fstp	 DWORD PTR [eax+596]

; 327  : 	m_kCurMotNode.dwMotionKey = dwRealMotionKey;

  00105	8b 45 fc	 mov	 eax, DWORD PTR _this$[ebp]
  00108	8b 4d f8	 mov	 ecx, DWORD PTR _dwRealMotionKey$[ebp]
  0010b	89 88 48 02 00
	00		 mov	 DWORD PTR [eax+584], ecx

; 328  : 	m_kCurMotNode.fEndTime = 0.0f;

  00111	8b 45 fc	 mov	 eax, DWORD PTR _this$[ebp]
  00114	0f 57 c0	 xorps	 xmm0, xmm0
  00117	f3 0f 11 80 58
	02 00 00	 movss	 DWORD PTR [eax+600], xmm0

; 329  : 	m_kCurMotNode.fSpeedRatio = fSpeedRatio;

  0011f	8b 45 fc	 mov	 eax, DWORD PTR _this$[ebp]
  00122	f3 0f 10 45 10	 movss	 xmm0, DWORD PTR _fSpeedRatio$[ebp]
  00127	f3 0f 11 80 5c
	02 00 00	 movss	 DWORD PTR [eax+604], xmm0

; 330  : 	m_kCurMotNode.dwcurFrame = 0;

  0012f	8b 45 fc	 mov	 eax, DWORD PTR _this$[ebp]
  00132	83 a0 4c 02 00
	00 00		 and	 DWORD PTR [eax+588], 0

; 331  : 	m_kCurMotNode.dwFrameCount = GetMotionDuration(dwRealMotionKey) / (1.0f / g_fGameFPS);

  00139	ff 75 f8	 push	 DWORD PTR _dwRealMotionKey$[ebp]
  0013c	8b 4d fc	 mov	 ecx, DWORD PTR _this$[ebp]
  0013f	e8 00 00 00 00	 call	 ?GetMotionDuration@CActorInstance@@IAEMK@Z ; CActorInstance::GetMotionDuration
  00144	d9 5d f0	 fstp	 DWORD PTR tv188[ebp]
  00147	f3 0f 10 45 f0	 movss	 xmm0, DWORD PTR tv188[ebp]
  0014c	f3 0f 10 0d 00
	00 00 00	 movss	 xmm1, DWORD PTR __real@3f800000
  00154	f3 0f 5e 0d 00
	00 00 00	 divss	 xmm1, DWORD PTR ?g_fGameFPS@@3MA
  0015c	f3 0f 5e c1	 divss	 xmm0, xmm1
  00160	e8 00 00 00 00	 call	 __ftoui3
  00165	8b 4d fc	 mov	 ecx, DWORD PTR _this$[ebp]
  00168	89 81 50 02 00
	00		 mov	 DWORD PTR [ecx+592], eax

; 332  : 	m_kCurMotNode.uSkill = 0;

  0016e	8b 45 fc	 mov	 eax, DWORD PTR _this$[ebp]
  00171	83 a0 64 02 00
	00 00		 and	 DWORD PTR [eax+612], 0
$LN1@SetLoopMot:

; 333  : }

  00178	c9		 leave
  00179	c2 0c 00	 ret	 12			; 0000000cH
?SetLoopMotion@CActorInstance@@QAEXKMM@Z ENDP		; CActorInstance::SetLoopMotion
_TEXT	ENDS
; Function compile flags: /Odspy
; File D:\Metin2 Server Files\mainline\SRC_2014\Metin2Client\GameLib\ActorInstanceMotion.cpp
;	COMDAT ?GetMotionMode@CActorInstance@@QAEHXZ
_TEXT	SEGMENT
_this$ = -4						; size = 4
?GetMotionMode@CActorInstance@@QAEHXZ PROC		; CActorInstance::GetMotionMode, COMDAT
; _this$ = ecx

; 256  : {

  00000	55		 push	 ebp
  00001	8b ec		 mov	 ebp, esp
  00003	51		 push	 ecx
  00004	89 4d fc	 mov	 DWORD PTR _this$[ebp], ecx

; 257  : 	return m_wcurMotionMode;

  00007	8b 45 fc	 mov	 eax, DWORD PTR _this$[ebp]
  0000a	0f b7 80 68 02
	00 00		 movzx	 eax, WORD PTR [eax+616]

; 258  : }

  00011	c9		 leave
  00012	c3		 ret	 0
?GetMotionMode@CActorInstance@@QAEHXZ ENDP		; CActorInstance::GetMotionMode
_TEXT	ENDS
; Function compile flags: /Odspy
; File D:\Metin2 Server Files\mainline\SRC_2014\Metin2Client\GameLib\ActorInstanceMotion.cpp
;	COMDAT ?SetMotionMode@CActorInstance@@QAEXH@Z
_TEXT	SEGMENT
_this$ = -4						; size = 4
_iMotionMode$ = 8					; size = 4
?SetMotionMode@CActorInstance@@QAEXH@Z PROC		; CActorInstance::SetMotionMode, COMDAT
; _this$ = ecx

; 248  : {

  00000	55		 push	 ebp
  00001	8b ec		 mov	 ebp, esp
  00003	51		 push	 ecx
  00004	89 4d fc	 mov	 DWORD PTR _this$[ebp], ecx

; 249  : 	if (IsPoly())

  00007	8b 4d fc	 mov	 ecx, DWORD PTR _this$[ebp]
  0000a	e8 00 00 00 00	 call	 ?IsPoly@CActorInstance@@QAE_NXZ ; CActorInstance::IsPoly
  0000f	0f b6 c0	 movzx	 eax, al
  00012	85 c0		 test	 eax, eax
  00014	74 07		 je	 SHORT $LN2@SetMotionM

; 250  : 		iMotionMode=CRaceMotionData::MODE_GENERAL;

  00016	c7 45 08 01 00
	00 00		 mov	 DWORD PTR _iMotionMode$[ebp], 1
$LN2@SetMotionM:

; 251  : 
; 252  : 	m_wcurMotionMode = iMotionMode;

  0001d	8b 45 fc	 mov	 eax, DWORD PTR _this$[ebp]
  00020	66 8b 4d 08	 mov	 cx, WORD PTR _iMotionMode$[ebp]
  00024	66 89 88 68 02
	00 00		 mov	 WORD PTR [eax+616], cx

; 253  : }

  0002b	c9		 leave
  0002c	c2 04 00	 ret	 4
?SetMotionMode@CActorInstance@@QAEXH@Z ENDP		; CActorInstance::SetMotionMode
_TEXT	ENDS
; Function compile flags: /Odspy
; File C:\Program Files (x86)\Microsoft Visual Studio\2019\Community\VC\Tools\MSVC\14.28.29333\include\xtree
; File C:\Program Files (x86)\Microsoft Visual Studio\2019\Community\VC\Tools\MSVC\14.28.29333\include\xstddef
; File C:\Program Files (x86)\Microsoft Visual Studio\2019\Community\VC\Tools\MSVC\14.28.29333\include\xtree
; File C:\Program Files (x86)\Microsoft Visual Studio\2019\Community\VC\Tools\MSVC\14.28.29333\include\xmemory
; File C:\Program Files (x86)\Microsoft Visual Studio\2019\Community\VC\Tools\MSVC\14.28.29333\include\xtree
;	COMDAT ??1?$_Tree@V?$_Tmap_traits@PAVCActorInstance@@MU?$less@PAVCActorInstance@@@std@@V?$allocator@U?$pair@QAVCActorInstance@@M@std@@@3@$0A@@std@@@std@@QAE@XZ
_TEXT	SEGMENT
$T1 = -20						; size = 4
$T2 = -16						; size = 4
$T3 = -12						; size = 4
_this$ = -8						; size = 4
__Scary$ = -4						; size = 4
??1?$_Tree@V?$_Tmap_traits@PAVCActorInstance@@MU?$less@PAVCActorInstance@@@std@@V?$allocator@U?$pair@QAVCActorInstance@@M@std@@@3@$0A@@std@@@std@@QAE@XZ PROC ; std::_Tree<std::_Tmap_traits<CActorInstance *,float,std::less<CActorInstance *>,std::allocator<std::pair<CActorInstance * const,float> >,0> >::~_Tree<std::_Tmap_traits<CActorInstance *,float,std::less<CActorInstance *>,std::allocator<std::pair<CActorInstance * const,float> >,0> >, COMDAT
; _this$ = ecx

; 1189 :     ~_Tree() noexcept {

  00000	55		 push	 ebp
  00001	8b ec		 mov	 ebp, esp
  00003	83 ec 14	 sub	 esp, 20			; 00000014H
  00006	89 4d f8	 mov	 DWORD PTR _this$[ebp], ecx

; 2047 :         return _STD addressof(_Mypair._Myval2._Myval2);

  00009	8b 45 f8	 mov	 eax, DWORD PTR _this$[ebp]
; File C:\Program Files (x86)\Microsoft Visual Studio\2019\Community\VC\Tools\MSVC\14.28.29333\include\xstddef

; 275  :     return __builtin_addressof(_Val);

  0000c	89 45 f0	 mov	 DWORD PTR $T2[ebp], eax
; File C:\Program Files (x86)\Microsoft Visual Studio\2019\Community\VC\Tools\MSVC\14.28.29333\include\xtree

; 2047 :         return _STD addressof(_Mypair._Myval2._Myval2);

  0000f	8b 45 f0	 mov	 eax, DWORD PTR $T2[ebp]
  00012	89 45 fc	 mov	 DWORD PTR __Scary$[ebp], eax

; 2039 :         return _Mypair._Myval2._Get_first();

  00015	8b 45 f8	 mov	 eax, DWORD PTR _this$[ebp]
; File C:\Program Files (x86)\Microsoft Visual Studio\2019\Community\VC\Tools\MSVC\14.28.29333\include\xmemory

; 1347 :         return *this;

  00018	89 45 ec	 mov	 DWORD PTR $T1[ebp], eax
; File C:\Program Files (x86)\Microsoft Visual Studio\2019\Community\VC\Tools\MSVC\14.28.29333\include\xtree

; 2039 :         return _Mypair._Myval2._Get_first();

  0001b	8b 45 ec	 mov	 eax, DWORD PTR $T1[ebp]
  0001e	89 45 f4	 mov	 DWORD PTR $T3[ebp], eax

; 752  :         _Erase_tree(_Al, _Myhead->_Parent);

  00021	8b 45 fc	 mov	 eax, DWORD PTR __Scary$[ebp]
  00024	8b 00		 mov	 eax, DWORD PTR [eax]
  00026	ff 70 04	 push	 DWORD PTR [eax+4]
  00029	ff 75 f4	 push	 DWORD PTR $T3[ebp]
  0002c	8b 4d fc	 mov	 ecx, DWORD PTR __Scary$[ebp]
  0002f	e8 00 00 00 00	 call	 ??$_Erase_tree@V?$allocator@U?$_Tree_node@U?$pair@QAVCActorInstance@@M@std@@PAX@std@@@std@@@?$_Tree_val@U?$_Tree_simple_types@U?$pair@QAVCActorInstance@@M@std@@@std@@@std@@QAEXAAV?$allocator@U?$_Tree_node@U?$pair@QAVCActorInstance@@M@std@@PAX@std@@@1@PAU?$_Tree_node@U?$pair@QAVCActorInstance@@M@std@@PAX@1@@Z ; std::_Tree_val<std::_Tree_simple_types<std::pair<CActorInstance * const,float> > >::_Erase_tree<std::allocator<std::_Tree_node<std::pair<CActorInstance * const,float>,void *> > >

; 753  :         _Alnode::value_type::_Freenode0(_Al, _Myhead);

  00034	8b 45 fc	 mov	 eax, DWORD PTR __Scary$[ebp]
  00037	ff 30		 push	 DWORD PTR [eax]
  00039	ff 75 f4	 push	 DWORD PTR $T3[ebp]
  0003c	e8 00 00 00 00	 call	 ??$_Freenode0@V?$allocator@U?$_Tree_node@U?$pair@QAVCActorInstance@@M@std@@PAX@std@@@std@@@?$_Tree_node@U?$pair@QAVCActorInstance@@M@std@@PAX@std@@SAXAAV?$allocator@U?$_Tree_node@U?$pair@QAVCActorInstance@@M@std@@PAX@std@@@1@PAU01@@Z ; std::_Tree_node<std::pair<CActorInstance * const,float>,void *>::_Freenode0<std::allocator<std::_Tree_node<std::pair<CActorInstance * const,float>,void *> > >
  00041	59		 pop	 ecx
  00042	59		 pop	 ecx

; 1190 :         const auto _Scary = _Get_scary();
; 1191 :         _Scary->_Erase_head(_Getal());
; 1192 : #if _ITERATOR_DEBUG_LEVEL != 0 // TRANSITION, ABI
; 1193 :         auto&& _Alproxy = _GET_PROXY_ALLOCATOR(_Alnode, _Getal());
; 1194 :         _Delete_plain_internal(_Alproxy, _Scary->_Myproxy);
; 1195 : #endif // _ITERATOR_DEBUG_LEVEL != 0
; 1196 :     }

  00043	c9		 leave
  00044	c3		 ret	 0
??1?$_Tree@V?$_Tmap_traits@PAVCActorInstance@@MU?$less@PAVCActorInstance@@@std@@V?$allocator@U?$pair@QAVCActorInstance@@M@std@@@3@$0A@@std@@@std@@QAE@XZ ENDP ; std::_Tree<std::_Tmap_traits<CActorInstance *,float,std::less<CActorInstance *>,std::allocator<std::pair<CActorInstance * const,float> >,0> >::~_Tree<std::_Tmap_traits<CActorInstance *,float,std::less<CActorInstance *>,std::allocator<std::pair<CActorInstance * const,float> >,0> >
_TEXT	ENDS
; Function compile flags: /Odspy
; File C:\Program Files (x86)\Microsoft Visual Studio\2019\Community\VC\Tools\MSVC\14.28.29333\include\xmemory
;	COMDAT ??$_Allocate_manually_vector_aligned@U_Default_allocate_traits@std@@@std@@YAPAXI@Z
_TEXT	SEGMENT
__Ptr$ = -12						; size = 4
__Block_size$ = -8					; size = 4
__Ptr_container$ = -4					; size = 4
__Bytes$ = 8						; size = 4
??$_Allocate_manually_vector_aligned@U_Default_allocate_traits@std@@@std@@YAPAXI@Z PROC ; std::_Allocate_manually_vector_aligned<std::_Default_allocate_traits>, COMDAT

; 113  : __declspec(allocator) void* _Allocate_manually_vector_aligned(const size_t _Bytes) {

  00000	55		 push	 ebp
  00001	8b ec		 mov	 ebp, esp
  00003	83 ec 0c	 sub	 esp, 12			; 0000000cH

; 114  :     // allocate _Bytes manually aligned to at least _Big_allocation_alignment
; 115  :     const size_t _Block_size = _Non_user_size + _Bytes;

  00006	8b 45 08	 mov	 eax, DWORD PTR __Bytes$[ebp]
  00009	83 c0 23	 add	 eax, 35			; 00000023H
  0000c	89 45 f8	 mov	 DWORD PTR __Block_size$[ebp], eax

; 116  :     if (_Block_size <= _Bytes) {

  0000f	8b 45 f8	 mov	 eax, DWORD PTR __Block_size$[ebp]
  00012	3b 45 08	 cmp	 eax, DWORD PTR __Bytes$[ebp]
  00015	77 05		 ja	 SHORT $LN12@Allocate_m

; 117  :         _Throw_bad_array_new_length(); // add overflow

  00017	e8 00 00 00 00	 call	 ?_Throw_bad_array_new_length@std@@YAXXZ ; std::_Throw_bad_array_new_length
$LN12@Allocate_m:

; 77   :         return ::operator new(_Bytes);

  0001c	ff 75 f8	 push	 DWORD PTR __Block_size$[ebp]
  0001f	e8 00 00 00 00	 call	 ??2@YAPAXI@Z		; operator new
  00024	59		 pop	 ecx

; 118  :     }
; 119  : 
; 120  :     const uintptr_t _Ptr_container = reinterpret_cast<uintptr_t>(_Traits::_Allocate(_Block_size));

  00025	89 45 fc	 mov	 DWORD PTR __Ptr_container$[ebp], eax
$LN4@Allocate_m:

; 121  :     _STL_VERIFY(_Ptr_container != 0, "invalid argument"); // validate even in release since we're doing p[-1]

  00028	83 7d fc 00	 cmp	 DWORD PTR __Ptr_container$[ebp], 0
  0002c	74 02		 je	 SHORT $LN7@Allocate_m
  0002e	eb 09		 jmp	 SHORT $LN2@Allocate_m
$LN7@Allocate_m:
  00030	e8 00 00 00 00	 call	 __invalid_parameter_noinfo_noreturn
  00035	33 c0		 xor	 eax, eax
  00037	75 f7		 jne	 SHORT $LN7@Allocate_m
$LN2@Allocate_m:
  00039	33 c0		 xor	 eax, eax
  0003b	75 eb		 jne	 SHORT $LN4@Allocate_m

; 122  :     void* const _Ptr = reinterpret_cast<void*>((_Ptr_container + _Non_user_size) & ~(_Big_allocation_alignment - 1));

  0003d	8b 45 fc	 mov	 eax, DWORD PTR __Ptr_container$[ebp]
  00040	83 c0 23	 add	 eax, 35			; 00000023H
  00043	83 e0 e0	 and	 eax, -32		; ffffffe0H
  00046	89 45 f4	 mov	 DWORD PTR __Ptr$[ebp], eax

; 123  :     static_cast<uintptr_t*>(_Ptr)[-1] = _Ptr_container;

  00049	6a 04		 push	 4
  0004b	58		 pop	 eax
  0004c	6b c0 ff	 imul	 eax, eax, -1
  0004f	8b 4d f4	 mov	 ecx, DWORD PTR __Ptr$[ebp]
  00052	8b 55 fc	 mov	 edx, DWORD PTR __Ptr_container$[ebp]
  00055	89 14 01	 mov	 DWORD PTR [ecx+eax], edx

; 124  : 
; 125  : #ifdef _DEBUG
; 126  :     static_cast<uintptr_t*>(_Ptr)[-2] = _Big_allocation_sentinel;
; 127  : #endif // _DEBUG
; 128  :     return _Ptr;

  00058	8b 45 f4	 mov	 eax, DWORD PTR __Ptr$[ebp]
$LN11@Allocate_m:

; 129  : }

  0005b	c9		 leave
  0005c	c3		 ret	 0
??$_Allocate_manually_vector_aligned@U_Default_allocate_traits@std@@@std@@YAPAXI@Z ENDP ; std::_Allocate_manually_vector_aligned<std::_Default_allocate_traits>
_TEXT	ENDS
; Function compile flags: /Odspy
; File C:\Program Files (x86)\Microsoft Visual Studio\2019\Community\VC\Tools\MSVC\14.28.29333\include\xmemory
;	COMDAT ??$_Allocate@$07U_Default_allocate_traits@std@@$0A@@std@@YAPAXI@Z
_TEXT	SEGMENT
__Bytes$ = 8						; size = 4
??$_Allocate@$07U_Default_allocate_traits@std@@$0A@@std@@YAPAXI@Z PROC ; std::_Allocate<8,std::_Default_allocate_traits,0>, COMDAT

; 197  : __declspec(allocator) void* _Allocate(const size_t _Bytes) {

  00000	55		 push	 ebp
  00001	8b ec		 mov	 ebp, esp

; 198  :     // allocate _Bytes when !_HAS_ALIGNED_NEW || _Align <= __STDCPP_DEFAULT_NEW_ALIGNMENT__
; 199  : #if defined(_M_IX86) || defined(_M_X64)
; 200  :     if (_Bytes >= _Big_allocation_threshold) { // boost the alignment of big allocations to help autovectorization

  00003	81 7d 08 00 10
	00 00		 cmp	 DWORD PTR __Bytes$[ebp], 4096 ; 00001000H
  0000a	72 0b		 jb	 SHORT $LN2@Allocate

; 201  :         return _Allocate_manually_vector_aligned<_Traits>(_Bytes);

  0000c	ff 75 08	 push	 DWORD PTR __Bytes$[ebp]
  0000f	e8 00 00 00 00	 call	 ??$_Allocate_manually_vector_aligned@U_Default_allocate_traits@std@@@std@@YAPAXI@Z ; std::_Allocate_manually_vector_aligned<std::_Default_allocate_traits>
  00014	59		 pop	 ecx
  00015	eb 13		 jmp	 SHORT $LN1@Allocate
$LN2@Allocate:

; 202  :     }
; 203  : #endif // defined(_M_IX86) || defined(_M_X64)
; 204  : 
; 205  :     if (_Bytes != 0) {

  00017	83 7d 08 00	 cmp	 DWORD PTR __Bytes$[ebp], 0
  0001b	74 0b		 je	 SHORT $LN3@Allocate

; 77   :         return ::operator new(_Bytes);

  0001d	ff 75 08	 push	 DWORD PTR __Bytes$[ebp]
  00020	e8 00 00 00 00	 call	 ??2@YAPAXI@Z		; operator new
  00025	59		 pop	 ecx

; 206  :         return _Traits::_Allocate(_Bytes);

  00026	eb 02		 jmp	 SHORT $LN1@Allocate
$LN3@Allocate:

; 207  :     }
; 208  : 
; 209  :     return nullptr;

  00028	33 c0		 xor	 eax, eax
$LN1@Allocate:

; 210  : }

  0002a	5d		 pop	 ebp
  0002b	c3		 ret	 0
??$_Allocate@$07U_Default_allocate_traits@std@@$0A@@std@@YAPAXI@Z ENDP ; std::_Allocate<8,std::_Default_allocate_traits,0>
_TEXT	ENDS
; Function compile flags: /Odspy
; File C:\Program Files (x86)\Microsoft Visual Studio\2019\Community\VC\Tools\MSVC\14.28.29333\include\xmemory
;	COMDAT ??$_Deallocate@$07$0A@@std@@YAXPAXI@Z
_TEXT	SEGMENT
__$EHRec$ = -12						; size = 12
__Ptr$ = 8						; size = 4
__Bytes$ = 12						; size = 4
??$_Deallocate@$07$0A@@std@@YAXPAXI@Z PROC		; std::_Deallocate<8,0>, COMDAT

; 213  : void _Deallocate(void* _Ptr, size_t _Bytes) noexcept {

  00000	55		 push	 ebp
  00001	8b ec		 mov	 ebp, esp
  00003	6a ff		 push	 -1
  00005	68 00 00 00 00	 push	 __ehhandler$??$_Deallocate@$07$0A@@std@@YAXPAXI@Z
  0000a	64 a1 00 00 00
	00		 mov	 eax, DWORD PTR fs:0
  00010	50		 push	 eax
  00011	a1 00 00 00 00	 mov	 eax, DWORD PTR ___security_cookie
  00016	33 c5		 xor	 eax, ebp
  00018	50		 push	 eax
  00019	8d 45 f4	 lea	 eax, DWORD PTR __$EHRec$[ebp]
  0001c	64 a3 00 00 00
	00		 mov	 DWORD PTR fs:0, eax

; 214  :     // deallocate storage allocated by _Allocate when !_HAS_ALIGNED_NEW || _Align <= __STDCPP_DEFAULT_NEW_ALIGNMENT__
; 215  : #if defined(_M_IX86) || defined(_M_X64)
; 216  :     if (_Bytes >= _Big_allocation_threshold) { // boost the alignment of big allocations to help autovectorization

  00022	81 7d 0c 00 10
	00 00		 cmp	 DWORD PTR __Bytes$[ebp], 4096 ; 00001000H
  00029	72 0f		 jb	 SHORT $LN2@Deallocate

; 217  :         _Adjust_manually_vector_aligned(_Ptr, _Bytes);

  0002b	8d 45 0c	 lea	 eax, DWORD PTR __Bytes$[ebp]
  0002e	50		 push	 eax
  0002f	8d 45 08	 lea	 eax, DWORD PTR __Ptr$[ebp]
  00032	50		 push	 eax
  00033	e8 00 00 00 00	 call	 ?_Adjust_manually_vector_aligned@std@@YAXAAPAXAAI@Z ; std::_Adjust_manually_vector_aligned
  00038	59		 pop	 ecx
  00039	59		 pop	 ecx
$LN2@Deallocate:

; 218  :     }
; 219  : #endif // defined(_M_IX86) || defined(_M_X64)
; 220  : 
; 221  :     ::operator delete(_Ptr, _Bytes);

  0003a	ff 75 0c	 push	 DWORD PTR __Bytes$[ebp]
  0003d	ff 75 08	 push	 DWORD PTR __Ptr$[ebp]
  00040	e8 00 00 00 00	 call	 ??3@YAXPAXI@Z		; operator delete
  00045	59		 pop	 ecx
  00046	59		 pop	 ecx

; 222  : }

  00047	8b 4d f4	 mov	 ecx, DWORD PTR __$EHRec$[ebp]
  0004a	64 89 0d 00 00
	00 00		 mov	 DWORD PTR fs:0, ecx
  00051	59		 pop	 ecx
  00052	c9		 leave
  00053	c3		 ret	 0
  00054	cc		 int	 3
  00055	cc		 int	 3
  00056	cc		 int	 3
  00057	cc		 int	 3
  00058	cc		 int	 3
_TEXT	ENDS
;	COMDAT text$x
text$x	SEGMENT
__ehhandler$??$_Deallocate@$07$0A@@std@@YAXPAXI@Z:
  00000	90		 npad	 1
  00001	90		 npad	 1
  00002	8b 54 24 08	 mov	 edx, DWORD PTR [esp+8]
  00006	8d 42 0c	 lea	 eax, DWORD PTR [edx+12]
  00009	8b 4a fc	 mov	 ecx, DWORD PTR [edx-4]
  0000c	33 c8		 xor	 ecx, eax
  0000e	e8 00 00 00 00	 call	 @__security_check_cookie@4
  00013	b8 00 00 00 00	 mov	 eax, OFFSET __ehfuncinfo$??$_Deallocate@$07$0A@@std@@YAXPAXI@Z
  00018	e9 00 00 00 00	 jmp	 ___CxxFrameHandler3
text$x	ENDS
??$_Deallocate@$07$0A@@std@@YAXPAXI@Z ENDP		; std::_Deallocate<8,0>
; Function compile flags: /Odspy
; File C:\Program Files (x86)\Microsoft Visual Studio\2019\Community\VC\Tools\MSVC\14.28.29333\include\xmemory
;	COMDAT ?_Adjust_manually_vector_aligned@std@@YAXAAPAXAAI@Z
_TEXT	SEGMENT
__Min_back_shift$ = -16					; size = 4
__Ptr_user$ = -12					; size = 4
__Ptr_container$ = -8					; size = 4
__Back_shift$ = -4					; size = 4
__Ptr$ = 8						; size = 4
__Bytes$ = 12						; size = 4
?_Adjust_manually_vector_aligned@std@@YAXAAPAXAAI@Z PROC ; std::_Adjust_manually_vector_aligned, COMDAT

; 132  : inline void _Adjust_manually_vector_aligned(void*& _Ptr, size_t& _Bytes) {

  00000	55		 push	 ebp
  00001	8b ec		 mov	 ebp, esp
  00003	83 ec 10	 sub	 esp, 16			; 00000010H

; 133  :     // adjust parameters from _Allocate_manually_vector_aligned to pass to operator delete
; 134  :     _Bytes += _Non_user_size;

  00006	8b 45 0c	 mov	 eax, DWORD PTR __Bytes$[ebp]
  00009	8b 00		 mov	 eax, DWORD PTR [eax]
  0000b	83 c0 23	 add	 eax, 35			; 00000023H
  0000e	8b 4d 0c	 mov	 ecx, DWORD PTR __Bytes$[ebp]
  00011	89 01		 mov	 DWORD PTR [ecx], eax

; 135  : 
; 136  :     const uintptr_t* const _Ptr_user = reinterpret_cast<uintptr_t*>(_Ptr);

  00013	8b 45 08	 mov	 eax, DWORD PTR __Ptr$[ebp]
  00016	8b 00		 mov	 eax, DWORD PTR [eax]
  00018	89 45 f4	 mov	 DWORD PTR __Ptr_user$[ebp], eax

; 137  :     const uintptr_t _Ptr_container   = _Ptr_user[-1];

  0001b	6a 04		 push	 4
  0001d	58		 pop	 eax
  0001e	6b c0 ff	 imul	 eax, eax, -1
  00021	8b 4d f4	 mov	 ecx, DWORD PTR __Ptr_user$[ebp]
  00024	8b 04 01	 mov	 eax, DWORD PTR [ecx+eax]
  00027	89 45 f8	 mov	 DWORD PTR __Ptr_container$[ebp], eax

; 138  : 
; 139  :     // If the following asserts, it likely means that we are performing
; 140  :     // an aligned delete on memory coming from an unaligned allocation.
; 141  :     _STL_ASSERT(_Ptr_user[-2] == _Big_allocation_sentinel, "invalid argument");
; 142  : 
; 143  :     // Extra paranoia on aligned allocation/deallocation; ensure _Ptr_container is
; 144  :     // in range [_Min_back_shift, _Non_user_size]
; 145  : #ifdef _DEBUG
; 146  :     constexpr uintptr_t _Min_back_shift = 2 * sizeof(void*);
; 147  : #else // ^^^ _DEBUG ^^^ // vvv !_DEBUG vvv
; 148  :     constexpr uintptr_t _Min_back_shift = sizeof(void*);

  0002a	c7 45 f0 04 00
	00 00		 mov	 DWORD PTR __Min_back_shift$[ebp], 4

; 149  : #endif // _DEBUG
; 150  :     const uintptr_t _Back_shift = reinterpret_cast<uintptr_t>(_Ptr) - _Ptr_container;

  00031	8b 45 08	 mov	 eax, DWORD PTR __Ptr$[ebp]
  00034	8b 00		 mov	 eax, DWORD PTR [eax]
  00036	2b 45 f8	 sub	 eax, DWORD PTR __Ptr_container$[ebp]
  00039	89 45 fc	 mov	 DWORD PTR __Back_shift$[ebp], eax
$LN4@Adjust_man:

; 151  :     _STL_VERIFY(_Back_shift >= _Min_back_shift && _Back_shift <= _Non_user_size, "invalid argument");

  0003c	83 7d fc 04	 cmp	 DWORD PTR __Back_shift$[ebp], 4
  00040	72 08		 jb	 SHORT $LN7@Adjust_man
  00042	83 7d fc 23	 cmp	 DWORD PTR __Back_shift$[ebp], 35 ; 00000023H
  00046	77 02		 ja	 SHORT $LN7@Adjust_man
  00048	eb 09		 jmp	 SHORT $LN2@Adjust_man
$LN7@Adjust_man:
  0004a	e8 00 00 00 00	 call	 __invalid_parameter_noinfo_noreturn
  0004f	33 c0		 xor	 eax, eax
  00051	75 f7		 jne	 SHORT $LN7@Adjust_man
$LN2@Adjust_man:
  00053	33 c0		 xor	 eax, eax
  00055	75 e5		 jne	 SHORT $LN4@Adjust_man

; 152  :     _Ptr = reinterpret_cast<void*>(_Ptr_container);

  00057	8b 45 08	 mov	 eax, DWORD PTR __Ptr$[ebp]
  0005a	8b 4d f8	 mov	 ecx, DWORD PTR __Ptr_container$[ebp]
  0005d	89 08		 mov	 DWORD PTR [eax], ecx
$LN10@Adjust_man:

; 153  : }

  0005f	c9		 leave
  00060	c3		 ret	 0
?_Adjust_manually_vector_aligned@std@@YAXAAPAXAAI@Z ENDP ; std::_Adjust_manually_vector_aligned
_TEXT	ENDS
; Function compile flags: /Odspy
; File C:\Program Files (x86)\Microsoft Visual Studio\2019\Community\VC\Tools\MSVC\14.28.29333\include\exception
;	COMDAT ?_Throw_bad_array_new_length@std@@YAXXZ
_TEXT	SEGMENT
$T1 = -12						; size = 12
?_Throw_bad_array_new_length@std@@YAXXZ PROC		; std::_Throw_bad_array_new_length, COMDAT

; 320  : [[noreturn]] inline void _Throw_bad_array_new_length() {

  00000	55		 push	 ebp
  00001	8b ec		 mov	 ebp, esp
  00003	83 ec 0c	 sub	 esp, 12			; 0000000cH

; 321  :     _THROW(bad_array_new_length{});

  00006	8d 4d f4	 lea	 ecx, DWORD PTR $T1[ebp]
  00009	e8 00 00 00 00	 call	 ??0bad_array_new_length@std@@QAE@XZ ; std::bad_array_new_length::bad_array_new_length
  0000e	68 00 00 00 00	 push	 OFFSET __TI3?AVbad_array_new_length@std@@
  00013	8d 45 f4	 lea	 eax, DWORD PTR $T1[ebp]
  00016	50		 push	 eax
  00017	e8 00 00 00 00	 call	 __CxxThrowException@8
$LN2@Throw_bad_:

; 322  : }

  0001c	c9		 leave
  0001d	c3		 ret	 0
?_Throw_bad_array_new_length@std@@YAXXZ ENDP		; std::_Throw_bad_array_new_length
_TEXT	ENDS
; Function compile flags: /Odspy
; File C:\Program Files (x86)\Microsoft Visual Studio\2019\Community\VC\Tools\MSVC\14.28.29333\include\vcruntime_exception.h
;	COMDAT ??_Gbad_array_new_length@std@@UAEPAXI@Z
_TEXT	SEGMENT
_this$ = -4						; size = 4
___flags$ = 8						; size = 4
??_Gbad_array_new_length@std@@UAEPAXI@Z PROC		; std::bad_array_new_length::`scalar deleting destructor', COMDAT
; _this$ = ecx
  00000	55		 push	 ebp
  00001	8b ec		 mov	 ebp, esp
  00003	51		 push	 ecx
  00004	89 4d fc	 mov	 DWORD PTR _this$[ebp], ecx

; 89   :     {

  00007	8b 45 fc	 mov	 eax, DWORD PTR _this$[ebp]
  0000a	c7 00 00 00 00
	00		 mov	 DWORD PTR [eax], OFFSET ??_7exception@std@@6B@

; 90   :         __std_exception_destroy(&_Data);

  00010	8b 45 fc	 mov	 eax, DWORD PTR _this$[ebp]
  00013	83 c0 04	 add	 eax, 4
  00016	50		 push	 eax
  00017	e8 00 00 00 00	 call	 ___std_exception_destroy
  0001c	59		 pop	 ecx
  0001d	8b 45 08	 mov	 eax, DWORD PTR ___flags$[ebp]
  00020	83 e0 01	 and	 eax, 1
  00023	74 0c		 je	 SHORT $LN2@scalar
  00025	6a 0c		 push	 12			; 0000000cH
  00027	ff 75 fc	 push	 DWORD PTR _this$[ebp]
  0002a	e8 00 00 00 00	 call	 ??3@YAXPAXI@Z		; operator delete
  0002f	59		 pop	 ecx
  00030	59		 pop	 ecx
$LN2@scalar:
  00031	8b 45 fc	 mov	 eax, DWORD PTR _this$[ebp]
  00034	c9		 leave
  00035	c2 04 00	 ret	 4
??_Gbad_array_new_length@std@@UAEPAXI@Z ENDP		; std::bad_array_new_length::`scalar deleting destructor'
_TEXT	ENDS
; Function compile flags: /Odspy
;	COMDAT ??0bad_array_new_length@std@@QAE@ABV01@@Z
_TEXT	SEGMENT
_this$ = -4						; size = 4
___that$ = 8						; size = 4
??0bad_array_new_length@std@@QAE@ABV01@@Z PROC		; std::bad_array_new_length::bad_array_new_length, COMDAT
; _this$ = ecx
  00000	55		 push	 ebp
  00001	8b ec		 mov	 ebp, esp
  00003	51		 push	 ecx
  00004	89 4d fc	 mov	 DWORD PTR _this$[ebp], ecx
  00007	ff 75 08	 push	 DWORD PTR ___that$[ebp]
  0000a	8b 4d fc	 mov	 ecx, DWORD PTR _this$[ebp]
  0000d	e8 00 00 00 00	 call	 ??0exception@std@@QAE@ABV01@@Z ; std::exception::exception
  00012	8b 45 fc	 mov	 eax, DWORD PTR _this$[ebp]
  00015	c7 00 00 00 00
	00		 mov	 DWORD PTR [eax], OFFSET ??_7bad_alloc@std@@6B@
  0001b	8b 45 fc	 mov	 eax, DWORD PTR _this$[ebp]
  0001e	c7 00 00 00 00
	00		 mov	 DWORD PTR [eax], OFFSET ??_7bad_array_new_length@std@@6B@
  00024	8b 45 fc	 mov	 eax, DWORD PTR _this$[ebp]
  00027	c9		 leave
  00028	c2 04 00	 ret	 4
??0bad_array_new_length@std@@QAE@ABV01@@Z ENDP		; std::bad_array_new_length::bad_array_new_length
_TEXT	ENDS
; Function compile flags: /Odspy
; File C:\Program Files (x86)\Microsoft Visual Studio\2019\Community\VC\Tools\MSVC\14.28.29333\include\vcruntime_exception.h
;	COMDAT ??1bad_array_new_length@std@@UAE@XZ
_TEXT	SEGMENT
_this$ = -4						; size = 4
??1bad_array_new_length@std@@UAE@XZ PROC		; std::bad_array_new_length::~bad_array_new_length, COMDAT
; _this$ = ecx
  00000	55		 push	 ebp
  00001	8b ec		 mov	 ebp, esp
  00003	51		 push	 ecx
  00004	89 4d fc	 mov	 DWORD PTR _this$[ebp], ecx

; 89   :     {

  00007	8b 45 fc	 mov	 eax, DWORD PTR _this$[ebp]
  0000a	c7 00 00 00 00
	00		 mov	 DWORD PTR [eax], OFFSET ??_7exception@std@@6B@

; 90   :         __std_exception_destroy(&_Data);

  00010	8b 45 fc	 mov	 eax, DWORD PTR _this$[ebp]
  00013	83 c0 04	 add	 eax, 4
  00016	50		 push	 eax
  00017	e8 00 00 00 00	 call	 ___std_exception_destroy
  0001c	59		 pop	 ecx
  0001d	c9		 leave
  0001e	c3		 ret	 0
??1bad_array_new_length@std@@UAE@XZ ENDP		; std::bad_array_new_length::~bad_array_new_length
_TEXT	ENDS
; Function compile flags: /Odspy
; File C:\Program Files (x86)\Microsoft Visual Studio\2019\Community\VC\Tools\MSVC\14.28.29333\include\vcruntime_exception.h
;	COMDAT ??0bad_array_new_length@std@@QAE@XZ
_TEXT	SEGMENT
_this$ = -4						; size = 4
??0bad_array_new_length@std@@QAE@XZ PROC		; std::bad_array_new_length::bad_array_new_length, COMDAT
; _this$ = ecx

; 141  :     {

  00000	55		 push	 ebp
  00001	8b ec		 mov	 ebp, esp
  00003	51		 push	 ecx
  00004	89 4d fc	 mov	 DWORD PTR _this$[ebp], ecx

; 66   :     {

  00007	8b 45 fc	 mov	 eax, DWORD PTR _this$[ebp]
  0000a	c7 00 00 00 00
	00		 mov	 DWORD PTR [eax], OFFSET ??_7exception@std@@6B@

; 65   :         : _Data()

  00010	33 c0		 xor	 eax, eax
  00012	8b 4d fc	 mov	 ecx, DWORD PTR _this$[ebp]
  00015	83 c1 04	 add	 ecx, 4
  00018	89 01		 mov	 DWORD PTR [ecx], eax
  0001a	89 41 04	 mov	 DWORD PTR [ecx+4], eax

; 67   :         _Data._What = _Message;

  0001d	8b 45 fc	 mov	 eax, DWORD PTR _this$[ebp]
  00020	c7 40 04 00 00
	00 00		 mov	 DWORD PTR [eax+4], OFFSET ??_C@_0BF@KINCDENJ@bad?5array?5new?5length@

; 130  :     {

  00027	8b 45 fc	 mov	 eax, DWORD PTR _this$[ebp]
  0002a	c7 00 00 00 00
	00		 mov	 DWORD PTR [eax], OFFSET ??_7bad_alloc@std@@6B@

; 141  :     {

  00030	8b 45 fc	 mov	 eax, DWORD PTR _this$[ebp]
  00033	c7 00 00 00 00
	00		 mov	 DWORD PTR [eax], OFFSET ??_7bad_array_new_length@std@@6B@

; 142  :     }

  00039	8b 45 fc	 mov	 eax, DWORD PTR _this$[ebp]
  0003c	c9		 leave
  0003d	c3		 ret	 0
??0bad_array_new_length@std@@QAE@XZ ENDP		; std::bad_array_new_length::bad_array_new_length
_TEXT	ENDS
; Function compile flags: /Odspy
; File C:\Program Files (x86)\Microsoft Visual Studio\2019\Community\VC\Tools\MSVC\14.28.29333\include\vcruntime_exception.h
;	COMDAT ??_Gbad_alloc@std@@UAEPAXI@Z
_TEXT	SEGMENT
_this$ = -4						; size = 4
___flags$ = 8						; size = 4
??_Gbad_alloc@std@@UAEPAXI@Z PROC			; std::bad_alloc::`scalar deleting destructor', COMDAT
; _this$ = ecx
  00000	55		 push	 ebp
  00001	8b ec		 mov	 ebp, esp
  00003	51		 push	 ecx
  00004	89 4d fc	 mov	 DWORD PTR _this$[ebp], ecx

; 89   :     {

  00007	8b 45 fc	 mov	 eax, DWORD PTR _this$[ebp]
  0000a	c7 00 00 00 00
	00		 mov	 DWORD PTR [eax], OFFSET ??_7exception@std@@6B@

; 90   :         __std_exception_destroy(&_Data);

  00010	8b 45 fc	 mov	 eax, DWORD PTR _this$[ebp]
  00013	83 c0 04	 add	 eax, 4
  00016	50		 push	 eax
  00017	e8 00 00 00 00	 call	 ___std_exception_destroy
  0001c	59		 pop	 ecx
  0001d	8b 45 08	 mov	 eax, DWORD PTR ___flags$[ebp]
  00020	83 e0 01	 and	 eax, 1
  00023	74 0c		 je	 SHORT $LN2@scalar
  00025	6a 0c		 push	 12			; 0000000cH
  00027	ff 75 fc	 push	 DWORD PTR _this$[ebp]
  0002a	e8 00 00 00 00	 call	 ??3@YAXPAXI@Z		; operator delete
  0002f	59		 pop	 ecx
  00030	59		 pop	 ecx
$LN2@scalar:
  00031	8b 45 fc	 mov	 eax, DWORD PTR _this$[ebp]
  00034	c9		 leave
  00035	c2 04 00	 ret	 4
??_Gbad_alloc@std@@UAEPAXI@Z ENDP			; std::bad_alloc::`scalar deleting destructor'
_TEXT	ENDS
; Function compile flags: /Odspy
;	COMDAT ??0bad_alloc@std@@QAE@ABV01@@Z
_TEXT	SEGMENT
_this$ = -4						; size = 4
___that$ = 8						; size = 4
??0bad_alloc@std@@QAE@ABV01@@Z PROC			; std::bad_alloc::bad_alloc, COMDAT
; _this$ = ecx
  00000	55		 push	 ebp
  00001	8b ec		 mov	 ebp, esp
  00003	51		 push	 ecx
  00004	89 4d fc	 mov	 DWORD PTR _this$[ebp], ecx
  00007	ff 75 08	 push	 DWORD PTR ___that$[ebp]
  0000a	8b 4d fc	 mov	 ecx, DWORD PTR _this$[ebp]
  0000d	e8 00 00 00 00	 call	 ??0exception@std@@QAE@ABV01@@Z ; std::exception::exception
  00012	8b 45 fc	 mov	 eax, DWORD PTR _this$[ebp]
  00015	c7 00 00 00 00
	00		 mov	 DWORD PTR [eax], OFFSET ??_7bad_alloc@std@@6B@
  0001b	8b 45 fc	 mov	 eax, DWORD PTR _this$[ebp]
  0001e	c9		 leave
  0001f	c2 04 00	 ret	 4
??0bad_alloc@std@@QAE@ABV01@@Z ENDP			; std::bad_alloc::bad_alloc
_TEXT	ENDS
; Function compile flags: /Odspy
; File C:\Program Files (x86)\Microsoft Visual Studio\2019\Community\VC\Tools\MSVC\14.28.29333\include\vcruntime_exception.h
;	COMDAT ??_Gexception@std@@UAEPAXI@Z
_TEXT	SEGMENT
_this$ = -4						; size = 4
___flags$ = 8						; size = 4
??_Gexception@std@@UAEPAXI@Z PROC			; std::exception::`scalar deleting destructor', COMDAT
; _this$ = ecx
  00000	55		 push	 ebp
  00001	8b ec		 mov	 ebp, esp
  00003	51		 push	 ecx
  00004	89 4d fc	 mov	 DWORD PTR _this$[ebp], ecx

; 89   :     {

  00007	8b 45 fc	 mov	 eax, DWORD PTR _this$[ebp]
  0000a	c7 00 00 00 00
	00		 mov	 DWORD PTR [eax], OFFSET ??_7exception@std@@6B@

; 90   :         __std_exception_destroy(&_Data);

  00010	8b 45 fc	 mov	 eax, DWORD PTR _this$[ebp]
  00013	83 c0 04	 add	 eax, 4
  00016	50		 push	 eax
  00017	e8 00 00 00 00	 call	 ___std_exception_destroy
  0001c	59		 pop	 ecx
  0001d	8b 45 08	 mov	 eax, DWORD PTR ___flags$[ebp]
  00020	83 e0 01	 and	 eax, 1
  00023	74 0c		 je	 SHORT $LN2@scalar
  00025	6a 0c		 push	 12			; 0000000cH
  00027	ff 75 fc	 push	 DWORD PTR _this$[ebp]
  0002a	e8 00 00 00 00	 call	 ??3@YAXPAXI@Z		; operator delete
  0002f	59		 pop	 ecx
  00030	59		 pop	 ecx
$LN2@scalar:
  00031	8b 45 fc	 mov	 eax, DWORD PTR _this$[ebp]
  00034	c9		 leave
  00035	c2 04 00	 ret	 4
??_Gexception@std@@UAEPAXI@Z ENDP			; std::exception::`scalar deleting destructor'
_TEXT	ENDS
; Function compile flags: /Odspy
; File C:\Program Files (x86)\Microsoft Visual Studio\2019\Community\VC\Tools\MSVC\14.28.29333\include\vcruntime_exception.h
;	COMDAT ?what@exception@std@@UBEPBDXZ
_TEXT	SEGMENT
tv69 = -8						; size = 4
_this$ = -4						; size = 4
?what@exception@std@@UBEPBDXZ PROC			; std::exception::what, COMDAT
; _this$ = ecx

; 94   :     {

  00000	55		 push	 ebp
  00001	8b ec		 mov	 ebp, esp
  00003	51		 push	 ecx
  00004	51		 push	 ecx
  00005	89 4d fc	 mov	 DWORD PTR _this$[ebp], ecx

; 95   :         return _Data._What ? _Data._What : "Unknown exception";

  00008	8b 45 fc	 mov	 eax, DWORD PTR _this$[ebp]
  0000b	83 78 04 00	 cmp	 DWORD PTR [eax+4], 0
  0000f	74 0b		 je	 SHORT $LN3@what
  00011	8b 45 fc	 mov	 eax, DWORD PTR _this$[ebp]
  00014	8b 40 04	 mov	 eax, DWORD PTR [eax+4]
  00017	89 45 f8	 mov	 DWORD PTR tv69[ebp], eax
  0001a	eb 07		 jmp	 SHORT $LN4@what
$LN3@what:
  0001c	c7 45 f8 00 00
	00 00		 mov	 DWORD PTR tv69[ebp], OFFSET ??_C@_0BC@EOODALEL@Unknown?5exception@
$LN4@what:
  00023	8b 45 f8	 mov	 eax, DWORD PTR tv69[ebp]

; 96   :     }

  00026	c9		 leave
  00027	c3		 ret	 0
?what@exception@std@@UBEPBDXZ ENDP			; std::exception::what
_TEXT	ENDS
; Function compile flags: /Odspy
; File C:\Program Files (x86)\Microsoft Visual Studio\2019\Community\VC\Tools\MSVC\14.28.29333\include\vcruntime_exception.h
;	COMDAT ??0exception@std@@QAE@ABV01@@Z
_TEXT	SEGMENT
_this$ = -4						; size = 4
__Other$ = 8						; size = 4
??0exception@std@@QAE@ABV01@@Z PROC			; std::exception::exception, COMDAT
; _this$ = ecx

; 72   :     {

  00000	55		 push	 ebp
  00001	8b ec		 mov	 ebp, esp
  00003	51		 push	 ecx
  00004	89 4d fc	 mov	 DWORD PTR _this$[ebp], ecx
  00007	8b 45 fc	 mov	 eax, DWORD PTR _this$[ebp]
  0000a	c7 00 00 00 00
	00		 mov	 DWORD PTR [eax], OFFSET ??_7exception@std@@6B@

; 71   :         : _Data()

  00010	33 c0		 xor	 eax, eax
  00012	8b 4d fc	 mov	 ecx, DWORD PTR _this$[ebp]
  00015	83 c1 04	 add	 ecx, 4
  00018	89 01		 mov	 DWORD PTR [ecx], eax
  0001a	89 41 04	 mov	 DWORD PTR [ecx+4], eax

; 73   :         __std_exception_copy(&_Other._Data, &_Data);

  0001d	8b 45 fc	 mov	 eax, DWORD PTR _this$[ebp]
  00020	83 c0 04	 add	 eax, 4
  00023	50		 push	 eax
  00024	8b 45 08	 mov	 eax, DWORD PTR __Other$[ebp]
  00027	83 c0 04	 add	 eax, 4
  0002a	50		 push	 eax
  0002b	e8 00 00 00 00	 call	 ___std_exception_copy
  00030	59		 pop	 ecx
  00031	59		 pop	 ecx

; 74   :     }

  00032	8b 45 fc	 mov	 eax, DWORD PTR _this$[ebp]
  00035	c9		 leave
  00036	c2 04 00	 ret	 4
??0exception@std@@QAE@ABV01@@Z ENDP			; std::exception::exception
_TEXT	ENDS
; Function compile flags: /Odspy
; File D:\Metin2 Server Files\mainline\SRC_2014\Metin2Client\GameLib\ActorInstanceMotion.cpp
;	COMDAT ?__empty_global_delete@@YAXPAXI@Z
_TEXT	SEGMENT
___formal$ = 8						; size = 4
___formal$ = 12						; size = 4
?__empty_global_delete@@YAXPAXI@Z PROC			; __empty_global_delete, COMDAT

  00000	55		 push	 ebp
  00001	8b ec		 mov	 ebp, esp
  00003	5d		 pop	 ebp
  00004	c3		 ret	 0
?__empty_global_delete@@YAXPAXI@Z ENDP			; __empty_global_delete
_TEXT	ENDS
; Function compile flags: /Odspy
; File D:\Metin2 Server Files\mainline\SRC_2014\Metin2Client\GameLib\ActorInstanceMotion.cpp
;	COMDAT ?__empty_global_delete@@YAXPAX@Z
_TEXT	SEGMENT
___formal$ = 8						; size = 4
?__empty_global_delete@@YAXPAX@Z PROC			; __empty_global_delete, COMDAT

  00000	55		 push	 ebp
  00001	8b ec		 mov	 ebp, esp
  00003	5d		 pop	 ebp
  00004	c3		 ret	 0
?__empty_global_delete@@YAXPAX@Z ENDP			; __empty_global_delete
_TEXT	ENDS
; Function compile flags: /Odspy
;	COMDAT ??_H@YGXPAXIIP6EPAX0@Z@Z
_TEXT	SEGMENT
tv66 = -4						; size = 4
___t$ = 8						; size = 4
___s$ = 12						; size = 4
___n$ = 16						; size = 4
___f$ = 20						; size = 4
??_H@YGXPAXIIP6EPAX0@Z@Z PROC				; `vector constructor iterator', COMDAT
  00000	55		 push	 ebp
  00001	8b ec		 mov	 ebp, esp
  00003	51		 push	 ecx
$LN2@vector:
  00004	8b 45 10	 mov	 eax, DWORD PTR ___n$[ebp]
  00007	89 45 fc	 mov	 DWORD PTR tv66[ebp], eax
  0000a	8b 45 10	 mov	 eax, DWORD PTR ___n$[ebp]
  0000d	48		 dec	 eax
  0000e	89 45 10	 mov	 DWORD PTR ___n$[ebp], eax
  00011	83 7d fc 00	 cmp	 DWORD PTR tv66[ebp], 0
  00015	76 11		 jbe	 SHORT $LN1@vector
  00017	8b 4d 08	 mov	 ecx, DWORD PTR ___t$[ebp]
  0001a	ff 55 14	 call	 DWORD PTR ___f$[ebp]
  0001d	8b 45 08	 mov	 eax, DWORD PTR ___t$[ebp]
  00020	03 45 0c	 add	 eax, DWORD PTR ___s$[ebp]
  00023	89 45 08	 mov	 DWORD PTR ___t$[ebp], eax
  00026	eb dc		 jmp	 SHORT $LN2@vector
$LN1@vector:
  00028	c9		 leave
  00029	c2 10 00	 ret	 16			; 00000010H
??_H@YGXPAXIIP6EPAX0@Z@Z ENDP				; `vector constructor iterator'
_TEXT	ENDS
END
