; Listing generated by Microsoft (R) Optimizing Compiler Version 19.28.29335.0 

	TITLE	D:\Metin2 Server Files\mainline\SRC_2014\Metin2Client\GameLib\AreaLoaderThread.cpp
	.686P
	.XMM
	include listing.inc
	.model	flat

INCLUDELIB LIBCMT
INCLUDELIB OLDNAMES

CONST	SEGMENT
?piecewise_construct@std@@3Upiecewise_construct_t@1@B	ORG $+1 ; std::piecewise_construct
CONST	ENDS
PUBLIC	___local_stdio_printf_options
PUBLIC	_sprintf
PUBLIC	__snprintf
PUBLIC	??0exception@std@@QAE@ABV01@@Z			; std::exception::exception
PUBLIC	?what@exception@std@@UBEPBDXZ			; std::exception::what
PUBLIC	??_Gexception@std@@UAEPAXI@Z			; std::exception::`scalar deleting destructor'
PUBLIC	??0bad_alloc@std@@QAE@ABV01@@Z			; std::bad_alloc::bad_alloc
PUBLIC	??_Gbad_alloc@std@@UAEPAXI@Z			; std::bad_alloc::`scalar deleting destructor'
PUBLIC	??0bad_array_new_length@std@@QAE@XZ		; std::bad_array_new_length::bad_array_new_length
PUBLIC	??1bad_array_new_length@std@@UAE@XZ		; std::bad_array_new_length::~bad_array_new_length
PUBLIC	??0bad_array_new_length@std@@QAE@ABV01@@Z	; std::bad_array_new_length::bad_array_new_length
PUBLIC	??_Gbad_array_new_length@std@@UAEPAXI@Z		; std::bad_array_new_length::`scalar deleting destructor'
PUBLIC	?_Throw_bad_array_new_length@std@@YAXXZ		; std::_Throw_bad_array_new_length
PUBLIC	?_Adjust_manually_vector_aligned@std@@YAXAAPAXAAI@Z ; std::_Adjust_manually_vector_aligned
PUBLIC	?_Xlen_string@std@@YAXXZ			; std::_Xlen_string
PUBLIC	?_Myptr@?$_String_val@U?$_Simple_types@D@std@@@std@@QAEPADXZ ; std::_String_val<std::_Simple_types<char> >::_Myptr
PUBLIC	??0?$basic_string@DU?$char_traits@D@std@@V?$allocator@D@2@@std@@QAE@QBD@Z ; std::basic_string<char,std::char_traits<char>,std::allocator<char> >::basic_string<char,std::char_traits<char>,std::allocator<char> >
PUBLIC	??0?$basic_string@DU?$char_traits@D@std@@V?$allocator@D@2@@std@@QAE@$$QAV01@@Z ; std::basic_string<char,std::char_traits<char>,std::allocator<char> >::basic_string<char,std::char_traits<char>,std::allocator<char> >
PUBLIC	??1?$basic_string@DU?$char_traits@D@std@@V?$allocator@D@2@@std@@QAE@XZ ; std::basic_string<char,std::char_traits<char>,std::allocator<char> >::~basic_string<char,std::char_traits<char>,std::allocator<char> >
PUBLIC	?_Copy_assign@?$basic_string@DU?$char_traits@D@std@@V?$allocator@D@2@@std@@AAEXABV12@U?$integral_constant@_N$0A@@2@@Z ; std::basic_string<char,std::char_traits<char>,std::allocator<char> >::_Copy_assign
PUBLIC	?assign@?$basic_string@DU?$char_traits@D@std@@V?$allocator@D@2@@std@@QAEAAV12@QBDI@Z ; std::basic_string<char,std::char_traits<char>,std::allocator<char> >::assign
PUBLIC	?c_str@?$basic_string@DU?$char_traits@D@std@@V?$allocator@D@2@@std@@QBEPBDXZ ; std::basic_string<char,std::char_traits<char>,std::allocator<char> >::c_str
PUBLIC	?max_size@?$basic_string@DU?$char_traits@D@std@@V?$allocator@D@2@@std@@QBEIXZ ; std::basic_string<char,std::char_traits<char>,std::allocator<char> >::max_size
PUBLIC	?_Equal@?$basic_string@DU?$char_traits@D@std@@V?$allocator@D@2@@std@@QBE_NQBD@Z ; std::basic_string<char,std::char_traits<char>,std::allocator<char> >::_Equal
PUBLIC	?compare@?$basic_string@DU?$char_traits@D@std@@V?$allocator@D@2@@std@@QBEHABV12@@Z ; std::basic_string<char,std::char_traits<char>,std::allocator<char> >::compare
PUBLIC	?_Calculate_growth@?$basic_string@DU?$char_traits@D@std@@V?$allocator@D@2@@std@@ABEII@Z ; std::basic_string<char,std::char_traits<char>,std::allocator<char> >::_Calculate_growth
PUBLIC	?_Tidy_init@?$basic_string@DU?$char_traits@D@std@@V?$allocator@D@2@@std@@AAEXXZ ; std::basic_string<char,std::char_traits<char>,std::allocator<char> >::_Tidy_init
PUBLIC	?_Tidy_deallocate@?$basic_string@DU?$char_traits@D@std@@V?$allocator@D@2@@std@@AAEXXZ ; std::basic_string<char,std::char_traits<char>,std::allocator<char> >::_Tidy_deallocate
PUBLIC	??1?$_Compressed_pair@V?$allocator@D@std@@V?$_String_val@U?$_Simple_types@D@std@@@2@$00@std@@QAE@XZ ; std::_Compressed_pair<std::allocator<char>,std::_String_val<std::_Simple_types<char> >,1>::~_Compressed_pair<std::allocator<char>,std::_String_val<std::_Simple_types<char> >,1>
PUBLIC	?_Throw_tree_length_error@std@@YAXXZ		; std::_Throw_tree_length_error
PUBLIC	?_Tidy@?$vector@V?$basic_string@DU?$char_traits@D@std@@V?$allocator@D@2@@std@@V?$allocator@V?$basic_string@DU?$char_traits@D@std@@V?$allocator@D@2@@std@@@2@@std@@AAEXXZ ; std::vector<std::basic_string<char,std::char_traits<char>,std::allocator<char> >,std::allocator<std::basic_string<char,std::char_traits<char>,std::allocator<char> > > >::_Tidy
PUBLIC	??$_Destroy_in_place@PAD@std@@YAXAAPAD@Z	; std::_Destroy_in_place<char *>
PUBLIC	??$_Reallocate_for@V<lambda_9366063389c5f42a00a5088cf24e69de>@@PBD@?$basic_string@DU?$char_traits@D@std@@V?$allocator@D@2@@std@@AAEAAV01@IV<lambda_9366063389c5f42a00a5088cf24e69de>@@PBD@Z ; std::basic_string<char,std::char_traits<char>,std::allocator<char> >::_Reallocate_for<<lambda_9366063389c5f42a00a5088cf24e69de>,char const *>
PUBLIC	??$_Construct_in_place@PADABQAD@std@@YAXAAPADABQAD@Z ; std::_Construct_in_place<char *,char * const &>
PUBLIC	??$_Deallocate@$07$0A@@std@@YAXPAXI@Z		; std::_Deallocate<8,0>
PUBLIC	??$_Allocate@$07U_Default_allocate_traits@std@@$0A@@std@@YAPAXI@Z ; std::_Allocate<8,std::_Default_allocate_traits,0>
PUBLIC	??$_Allocate_manually_vector_aligned@U_Default_allocate_traits@std@@@std@@YAPAXI@Z ; std::_Allocate_manually_vector_aligned<std::_Default_allocate_traits>
PUBLIC	??0TEMP_CAreaLoaderThread@@QAE@XZ		; TEMP_CAreaLoaderThread::TEMP_CAreaLoaderThread
PUBLIC	??1TEMP_CAreaLoaderThread@@UAE@XZ		; TEMP_CAreaLoaderThread::~TEMP_CAreaLoaderThread
PUBLIC	?Create@TEMP_CAreaLoaderThread@@QAE_NPAX@Z	; TEMP_CAreaLoaderThread::Create
PUBLIC	?Shutdown@TEMP_CAreaLoaderThread@@QAEXXZ	; TEMP_CAreaLoaderThread::Shutdown
PUBLIC	?Request@TEMP_CAreaLoaderThread@@QAEXPAVCTerrain@@@Z ; TEMP_CAreaLoaderThread::Request
PUBLIC	?Fetch@TEMP_CAreaLoaderThread@@QAE_NPAPAVCTerrain@@@Z ; TEMP_CAreaLoaderThread::Fetch
PUBLIC	?Request@TEMP_CAreaLoaderThread@@QAEXPAVCArea@@@Z ; TEMP_CAreaLoaderThread::Request
PUBLIC	?Fetch@TEMP_CAreaLoaderThread@@QAE_NPAPAVCArea@@@Z ; TEMP_CAreaLoaderThread::Fetch
PUBLIC	?EntryPoint@TEMP_CAreaLoaderThread@@KGIPAX@Z	; TEMP_CAreaLoaderThread::EntryPoint
PUBLIC	?Run@TEMP_CAreaLoaderThread@@IAEIPAX@Z		; TEMP_CAreaLoaderThread::Run
PUBLIC	?Setup@TEMP_CAreaLoaderThread@@IAEIXZ		; TEMP_CAreaLoaderThread::Setup
PUBLIC	?Execute@TEMP_CAreaLoaderThread@@IAEIPAX@Z	; TEMP_CAreaLoaderThread::Execute
PUBLIC	?Destroy@TEMP_CAreaLoaderThread@@IAEXXZ		; TEMP_CAreaLoaderThread::Destroy
PUBLIC	?ProcessTerrain@TEMP_CAreaLoaderThread@@IAEXXZ	; TEMP_CAreaLoaderThread::ProcessTerrain
PUBLIC	?ProcessArea@TEMP_CAreaLoaderThread@@IAEXXZ	; TEMP_CAreaLoaderThread::ProcessArea
PUBLIC	??0?$deque@PAVCTerrain@@V?$allocator@PAVCTerrain@@@std@@@std@@QAE@XZ ; std::deque<CTerrain *,std::allocator<CTerrain *> >::deque<CTerrain *,std::allocator<CTerrain *> >
PUBLIC	??1?$deque@PAVCTerrain@@V?$allocator@PAVCTerrain@@@std@@@std@@QAE@XZ ; std::deque<CTerrain *,std::allocator<CTerrain *> >::~deque<CTerrain *,std::allocator<CTerrain *> >
PUBLIC	?_Unchecked_begin@?$deque@PAVCTerrain@@V?$allocator@PAVCTerrain@@@std@@@std@@QAE?AV?$_Deque_unchecked_iterator@V?$_Deque_val@U?$_Deque_simple_types@PAVCTerrain@@@std@@@std@@@2@XZ ; std::deque<CTerrain *,std::allocator<CTerrain *> >::_Unchecked_begin
PUBLIC	?front@?$deque@PAVCTerrain@@V?$allocator@PAVCTerrain@@@std@@@std@@QAEAAPAVCTerrain@@XZ ; std::deque<CTerrain *,std::allocator<CTerrain *> >::front
PUBLIC	?pop_front@?$deque@PAVCTerrain@@V?$allocator@PAVCTerrain@@@std@@@std@@QAEXXZ ; std::deque<CTerrain *,std::allocator<CTerrain *> >::pop_front
PUBLIC	?pop_back@?$deque@PAVCTerrain@@V?$allocator@PAVCTerrain@@@std@@@std@@QAEXXZ ; std::deque<CTerrain *,std::allocator<CTerrain *> >::pop_back
PUBLIC	?_Xlen@?$deque@PAVCTerrain@@V?$allocator@PAVCTerrain@@@std@@@std@@ABEXXZ ; std::deque<CTerrain *,std::allocator<CTerrain *> >::_Xlen
PUBLIC	?_Growmap@?$deque@PAVCTerrain@@V?$allocator@PAVCTerrain@@@std@@@std@@AAEXI@Z ; std::deque<CTerrain *,std::allocator<CTerrain *> >::_Growmap
PUBLIC	?_Tidy@?$deque@PAVCTerrain@@V?$allocator@PAVCTerrain@@@std@@@std@@AAEXXZ ; std::deque<CTerrain *,std::allocator<CTerrain *> >::_Tidy
PUBLIC	??0?$_Deque_val@U?$_Deque_simple_types@PAVCTerrain@@@std@@@std@@QAE@XZ ; std::_Deque_val<std::_Deque_simple_types<CTerrain *> >::_Deque_val<std::_Deque_simple_types<CTerrain *> >
PUBLIC	??0?$deque@PAVCArea@@V?$allocator@PAVCArea@@@std@@@std@@QAE@XZ ; std::deque<CArea *,std::allocator<CArea *> >::deque<CArea *,std::allocator<CArea *> >
PUBLIC	??1?$deque@PAVCArea@@V?$allocator@PAVCArea@@@std@@@std@@QAE@XZ ; std::deque<CArea *,std::allocator<CArea *> >::~deque<CArea *,std::allocator<CArea *> >
PUBLIC	?front@?$deque@PAVCArea@@V?$allocator@PAVCArea@@@std@@@std@@QAEAAPAVCArea@@XZ ; std::deque<CArea *,std::allocator<CArea *> >::front
PUBLIC	?pop_front@?$deque@PAVCArea@@V?$allocator@PAVCArea@@@std@@@std@@QAEXXZ ; std::deque<CArea *,std::allocator<CArea *> >::pop_front
PUBLIC	?pop_back@?$deque@PAVCArea@@V?$allocator@PAVCArea@@@std@@@std@@QAEXXZ ; std::deque<CArea *,std::allocator<CArea *> >::pop_back
PUBLIC	?_Xlen@?$deque@PAVCArea@@V?$allocator@PAVCArea@@@std@@@std@@ABEXXZ ; std::deque<CArea *,std::allocator<CArea *> >::_Xlen
PUBLIC	?_Growmap@?$deque@PAVCArea@@V?$allocator@PAVCArea@@@std@@@std@@AAEXI@Z ; std::deque<CArea *,std::allocator<CArea *> >::_Growmap
PUBLIC	?_Tidy@?$deque@PAVCArea@@V?$allocator@PAVCArea@@@std@@@std@@AAEXXZ ; std::deque<CArea *,std::allocator<CArea *> >::_Tidy
PUBLIC	??0?$_Deque_val@U?$_Deque_simple_types@PAVCArea@@@std@@@std@@QAE@XZ ; std::_Deque_val<std::_Deque_simple_types<CArea *> >::_Deque_val<std::_Deque_simple_types<CArea *> >
PUBLIC	??_GTEMP_CAreaLoaderThread@@UAEPAXI@Z		; TEMP_CAreaLoaderThread::`scalar deleting destructor'
PUBLIC	?SetName@CTerrain@@QAEXV?$basic_string@DU?$char_traits@D@std@@V?$allocator@D@2@@std@@@Z ; CTerrain::SetName
PUBLIC	??0?$_Tree@V?$_Tmap_traits@V?$basic_string@DU?$char_traits@D@std@@V?$allocator@D@2@@std@@V?$vector@V?$basic_string@DU?$char_traits@D@std@@V?$allocator@D@2@@std@@V?$allocator@V?$basic_string@DU?$char_traits@D@std@@V?$allocator@D@2@@std@@@2@@2@U?$less@V?$basic_string@DU?$char_traits@D@std@@V?$allocator@D@2@@std@@@2@V?$allocator@U?$pair@$$CBV?$basic_string@DU?$char_traits@D@std@@V?$allocator@D@2@@std@@V?$vector@V?$basic_string@DU?$char_traits@D@std@@V?$allocator@D@2@@std@@V?$allocator@V?$basic_string@DU?$char_traits@D@std@@V?$allocator@D@2@@std@@@2@@2@@std@@@2@$0A@@std@@@std@@QAE@ABU?$less@V?$basic_string@DU?$char_traits@D@std@@V?$allocator@D@2@@std@@@1@@Z ; std::_Tree<std::_Tmap_traits<std::basic_string<char,std::char_traits<char>,std::allocator<char> >,std::vector<std::basic_string<char,std::char_traits<char>,std::allocator<char> >,std::allocator<std::basic_string<char,std::char_traits<char>,std::allocator<char> > > >,std::less<std::basic_string<char,std::char_traits<char>,std::allocator<char> > >,std::allocator<std::pair<std::basic_string<char,std::char_traits<char>,std::allocator<char> > const ,std::vector<std::basic_string<char,std::char_traits<char>,std::allocator<char> >,std::allocator<std::basic_string<char,std::char_traits<char>,std::allocator<char> > > > > >,0> >::_Tree<std::_Tmap_traits<std::basic_string<char,std::char_traits<char>,std::allocator<char> >,std::vector<std::basic_string<char,std::char_traits<char>,std::allocator<char> >,std::allocator<std::basic_string<char,std::char_traits<char>,std::allocator<char> > > >,std::less<std::basic_string<char,std::char_traits<char>,std::allocator<char> > >,std::allocator<std::pair<std::basic_string<char,std::char_traits<char>,std::allocator<char> > const ,std::vector<std::basic_string<char,std::char_traits<char>,std::allocator<char> >,std::allocator<std::basic_string<char,std::char_traits<char>,std::allocator<char> > > > > >,0> >
PUBLIC	??1?$_Tree@V?$_Tmap_traits@V?$basic_string@DU?$char_traits@D@std@@V?$allocator@D@2@@std@@V?$vector@V?$basic_string@DU?$char_traits@D@std@@V?$allocator@D@2@@std@@V?$allocator@V?$basic_string@DU?$char_traits@D@std@@V?$allocator@D@2@@std@@@2@@2@U?$less@V?$basic_string@DU?$char_traits@D@std@@V?$allocator@D@2@@std@@@2@V?$allocator@U?$pair@$$CBV?$basic_string@DU?$char_traits@D@std@@V?$allocator@D@2@@std@@V?$vector@V?$basic_string@DU?$char_traits@D@std@@V?$allocator@D@2@@std@@V?$allocator@V?$basic_string@DU?$char_traits@D@std@@V?$allocator@D@2@@std@@@2@@2@@std@@@2@$0A@@std@@@std@@QAE@XZ ; std::_Tree<std::_Tmap_traits<std::basic_string<char,std::char_traits<char>,std::allocator<char> >,std::vector<std::basic_string<char,std::char_traits<char>,std::allocator<char> >,std::allocator<std::basic_string<char,std::char_traits<char>,std::allocator<char> > > >,std::less<std::basic_string<char,std::char_traits<char>,std::allocator<char> > >,std::allocator<std::pair<std::basic_string<char,std::char_traits<char>,std::allocator<char> > const ,std::vector<std::basic_string<char,std::char_traits<char>,std::allocator<char> >,std::allocator<std::basic_string<char,std::char_traits<char>,std::allocator<char> > > > > >,0> >::~_Tree<std::_Tmap_traits<std::basic_string<char,std::char_traits<char>,std::allocator<char> >,std::vector<std::basic_string<char,std::char_traits<char>,std::allocator<char> >,std::allocator<std::basic_string<char,std::char_traits<char>,std::allocator<char> > > >,std::less<std::basic_string<char,std::char_traits<char>,std::allocator<char> > >,std::allocator<std::pair<std::basic_string<char,std::char_traits<char>,std::allocator<char> > const ,std::vector<std::basic_string<char,std::char_traits<char>,std::allocator<char> >,std::allocator<std::basic_string<char,std::char_traits<char>,std::allocator<char> > > > > >,0> >
PUBLIC	?end@?$_Tree@V?$_Tmap_traits@V?$basic_string@DU?$char_traits@D@std@@V?$allocator@D@2@@std@@V?$vector@V?$basic_string@DU?$char_traits@D@std@@V?$allocator@D@2@@std@@V?$allocator@V?$basic_string@DU?$char_traits@D@std@@V?$allocator@D@2@@std@@@2@@2@U?$less@V?$basic_string@DU?$char_traits@D@std@@V?$allocator@D@2@@std@@@2@V?$allocator@U?$pair@$$CBV?$basic_string@DU?$char_traits@D@std@@V?$allocator@D@2@@std@@V?$vector@V?$basic_string@DU?$char_traits@D@std@@V?$allocator@D@2@@std@@V?$allocator@V?$basic_string@DU?$char_traits@D@std@@V?$allocator@D@2@@std@@@2@@2@@std@@@2@$0A@@std@@@std@@QAE?AV?$_Tree_iterator@V?$_Tree_val@U?$_Tree_simple_types@U?$pair@$$CBV?$basic_string@DU?$char_traits@D@std@@V?$allocator@D@2@@std@@V?$vector@V?$basic_string@DU?$char_traits@D@std@@V?$allocator@D@2@@std@@V?$allocator@V?$basic_string@DU?$char_traits@D@std@@V?$allocator@D@2@@std@@@2@@2@@std@@@std@@@std@@@2@XZ ; std::_Tree<std::_Tmap_traits<std::basic_string<char,std::char_traits<char>,std::allocator<char> >,std::vector<std::basic_string<char,std::char_traits<char>,std::allocator<char> >,std::allocator<std::basic_string<char,std::char_traits<char>,std::allocator<char> > > >,std::less<std::basic_string<char,std::char_traits<char>,std::allocator<char> > >,std::allocator<std::pair<std::basic_string<char,std::char_traits<char>,std::allocator<char> > const ,std::vector<std::basic_string<char,std::char_traits<char>,std::allocator<char> >,std::allocator<std::basic_string<char,std::char_traits<char>,std::allocator<char> > > > > >,0> >::end
PUBLIC	?max_size@?$_Tree@V?$_Tmap_traits@V?$basic_string@DU?$char_traits@D@std@@V?$allocator@D@2@@std@@V?$vector@V?$basic_string@DU?$char_traits@D@std@@V?$allocator@D@2@@std@@V?$allocator@V?$basic_string@DU?$char_traits@D@std@@V?$allocator@D@2@@std@@@2@@2@U?$less@V?$basic_string@DU?$char_traits@D@std@@V?$allocator@D@2@@std@@@2@V?$allocator@U?$pair@$$CBV?$basic_string@DU?$char_traits@D@std@@V?$allocator@D@2@@std@@V?$vector@V?$basic_string@DU?$char_traits@D@std@@V?$allocator@D@2@@std@@V?$allocator@V?$basic_string@DU?$char_traits@D@std@@V?$allocator@D@2@@std@@@2@@2@@std@@@2@$0A@@std@@@std@@QBEIXZ ; std::_Tree<std::_Tmap_traits<std::basic_string<char,std::char_traits<char>,std::allocator<char> >,std::vector<std::basic_string<char,std::char_traits<char>,std::allocator<char> >,std::allocator<std::basic_string<char,std::char_traits<char>,std::allocator<char> > > >,std::less<std::basic_string<char,std::char_traits<char>,std::allocator<char> > >,std::allocator<std::pair<std::basic_string<char,std::char_traits<char>,std::allocator<char> > const ,std::vector<std::basic_string<char,std::char_traits<char>,std::allocator<char> >,std::allocator<std::basic_string<char,std::char_traits<char>,std::allocator<char> > > > > >,0> >::max_size
PUBLIC	?find@?$_Tree@V?$_Tmap_traits@V?$basic_string@DU?$char_traits@D@std@@V?$allocator@D@2@@std@@V?$vector@V?$basic_string@DU?$char_traits@D@std@@V?$allocator@D@2@@std@@V?$allocator@V?$basic_string@DU?$char_traits@D@std@@V?$allocator@D@2@@std@@@2@@2@U?$less@V?$basic_string@DU?$char_traits@D@std@@V?$allocator@D@2@@std@@@2@V?$allocator@U?$pair@$$CBV?$basic_string@DU?$char_traits@D@std@@V?$allocator@D@2@@std@@V?$vector@V?$basic_string@DU?$char_traits@D@std@@V?$allocator@D@2@@std@@V?$allocator@V?$basic_string@DU?$char_traits@D@std@@V?$allocator@D@2@@std@@@2@@2@@std@@@2@$0A@@std@@@std@@QAE?AV?$_Tree_iterator@V?$_Tree_val@U?$_Tree_simple_types@U?$pair@$$CBV?$basic_string@DU?$char_traits@D@std@@V?$allocator@D@2@@std@@V?$vector@V?$basic_string@DU?$char_traits@D@std@@V?$allocator@D@2@@std@@V?$allocator@V?$basic_string@DU?$char_traits@D@std@@V?$allocator@D@2@@std@@@2@@2@@std@@@std@@@std@@@2@ABV?$basic_string@DU?$char_traits@D@std@@V?$allocator@D@2@@2@@Z ; std::_Tree<std::_Tmap_traits<std::basic_string<char,std::char_traits<char>,std::allocator<char> >,std::vector<std::basic_string<char,std::char_traits<char>,std::allocator<char> >,std::allocator<std::basic_string<char,std::char_traits<char>,std::allocator<char> > > >,std::less<std::basic_string<char,std::char_traits<char>,std::allocator<char> > >,std::allocator<std::pair<std::basic_string<char,std::char_traits<char>,std::allocator<char> > const ,std::vector<std::basic_string<char,std::char_traits<char>,std::allocator<char> >,std::allocator<std::basic_string<char,std::char_traits<char>,std::allocator<char> > > > > >,0> >::find
PUBLIC	?_Check_grow_by_1@?$_Tree@V?$_Tmap_traits@V?$basic_string@DU?$char_traits@D@std@@V?$allocator@D@2@@std@@V?$vector@V?$basic_string@DU?$char_traits@D@std@@V?$allocator@D@2@@std@@V?$allocator@V?$basic_string@DU?$char_traits@D@std@@V?$allocator@D@2@@std@@@2@@2@U?$less@V?$basic_string@DU?$char_traits@D@std@@V?$allocator@D@2@@std@@@2@V?$allocator@U?$pair@$$CBV?$basic_string@DU?$char_traits@D@std@@V?$allocator@D@2@@std@@V?$vector@V?$basic_string@DU?$char_traits@D@std@@V?$allocator@D@2@@std@@V?$allocator@V?$basic_string@DU?$char_traits@D@std@@V?$allocator@D@2@@std@@@2@@2@@std@@@2@$0A@@std@@@std@@IAEXXZ ; std::_Tree<std::_Tmap_traits<std::basic_string<char,std::char_traits<char>,std::allocator<char> >,std::vector<std::basic_string<char,std::char_traits<char>,std::allocator<char> >,std::allocator<std::basic_string<char,std::char_traits<char>,std::allocator<char> > > >,std::less<std::basic_string<char,std::char_traits<char>,std::allocator<char> > >,std::allocator<std::pair<std::basic_string<char,std::char_traits<char>,std::allocator<char> > const ,std::vector<std::basic_string<char,std::char_traits<char>,std::allocator<char> >,std::allocator<std::basic_string<char,std::char_traits<char>,std::allocator<char> > > > > >,0> >::_Check_grow_by_1
PUBLIC	?_Alloc_sentinel_and_proxy@?$_Tree@V?$_Tmap_traits@V?$basic_string@DU?$char_traits@D@std@@V?$allocator@D@2@@std@@V?$vector@V?$basic_string@DU?$char_traits@D@std@@V?$allocator@D@2@@std@@V?$allocator@V?$basic_string@DU?$char_traits@D@std@@V?$allocator@D@2@@std@@@2@@2@U?$less@V?$basic_string@DU?$char_traits@D@std@@V?$allocator@D@2@@std@@@2@V?$allocator@U?$pair@$$CBV?$basic_string@DU?$char_traits@D@std@@V?$allocator@D@2@@std@@V?$vector@V?$basic_string@DU?$char_traits@D@std@@V?$allocator@D@2@@std@@V?$allocator@V?$basic_string@DU?$char_traits@D@std@@V?$allocator@D@2@@std@@@2@@2@@std@@@2@$0A@@std@@@std@@IAEXXZ ; std::_Tree<std::_Tmap_traits<std::basic_string<char,std::char_traits<char>,std::allocator<char> >,std::vector<std::basic_string<char,std::char_traits<char>,std::allocator<char> >,std::allocator<std::basic_string<char,std::char_traits<char>,std::allocator<char> > > >,std::less<std::basic_string<char,std::char_traits<char>,std::allocator<char> > >,std::allocator<std::pair<std::basic_string<char,std::char_traits<char>,std::allocator<char> > const ,std::vector<std::basic_string<char,std::char_traits<char>,std::allocator<char> >,std::allocator<std::basic_string<char,std::char_traits<char>,std::allocator<char> > > > > >,0> >::_Alloc_sentinel_and_proxy
PUBLIC	?_Lrotate@?$_Tree_val@U?$_Tree_simple_types@U?$pair@$$CBV?$basic_string@DU?$char_traits@D@std@@V?$allocator@D@2@@std@@V?$vector@V?$basic_string@DU?$char_traits@D@std@@V?$allocator@D@2@@std@@V?$allocator@V?$basic_string@DU?$char_traits@D@std@@V?$allocator@D@2@@std@@@2@@2@@std@@@std@@@std@@QAEXPAU?$_Tree_node@U?$pair@$$CBV?$basic_string@DU?$char_traits@D@std@@V?$allocator@D@2@@std@@V?$vector@V?$basic_string@DU?$char_traits@D@std@@V?$allocator@D@2@@std@@V?$allocator@V?$basic_string@DU?$char_traits@D@std@@V?$allocator@D@2@@std@@@2@@2@@std@@PAX@2@@Z ; std::_Tree_val<std::_Tree_simple_types<std::pair<std::basic_string<char,std::char_traits<char>,std::allocator<char> > const ,std::vector<std::basic_string<char,std::char_traits<char>,std::allocator<char> >,std::allocator<std::basic_string<char,std::char_traits<char>,std::allocator<char> > > > > > >::_Lrotate
PUBLIC	?_Rrotate@?$_Tree_val@U?$_Tree_simple_types@U?$pair@$$CBV?$basic_string@DU?$char_traits@D@std@@V?$allocator@D@2@@std@@V?$vector@V?$basic_string@DU?$char_traits@D@std@@V?$allocator@D@2@@std@@V?$allocator@V?$basic_string@DU?$char_traits@D@std@@V?$allocator@D@2@@std@@@2@@2@@std@@@std@@@std@@QAEXPAU?$_Tree_node@U?$pair@$$CBV?$basic_string@DU?$char_traits@D@std@@V?$allocator@D@2@@std@@V?$vector@V?$basic_string@DU?$char_traits@D@std@@V?$allocator@D@2@@std@@V?$allocator@V?$basic_string@DU?$char_traits@D@std@@V?$allocator@D@2@@std@@@2@@2@@std@@PAX@2@@Z ; std::_Tree_val<std::_Tree_simple_types<std::pair<std::basic_string<char,std::char_traits<char>,std::allocator<char> > const ,std::vector<std::basic_string<char,std::char_traits<char>,std::allocator<char> >,std::allocator<std::basic_string<char,std::char_traits<char>,std::allocator<char> > > > > > >::_Rrotate
PUBLIC	?_Insert_node@?$_Tree_val@U?$_Tree_simple_types@U?$pair@$$CBV?$basic_string@DU?$char_traits@D@std@@V?$allocator@D@2@@std@@V?$vector@V?$basic_string@DU?$char_traits@D@std@@V?$allocator@D@2@@std@@V?$allocator@V?$basic_string@DU?$char_traits@D@std@@V?$allocator@D@2@@std@@@2@@2@@std@@@std@@@std@@QAEPAU?$_Tree_node@U?$pair@$$CBV?$basic_string@DU?$char_traits@D@std@@V?$allocator@D@2@@std@@V?$vector@V?$basic_string@DU?$char_traits@D@std@@V?$allocator@D@2@@std@@V?$allocator@V?$basic_string@DU?$char_traits@D@std@@V?$allocator@D@2@@std@@@2@@2@@std@@PAX@2@U?$_Tree_id@PAU?$_Tree_node@U?$pair@$$CBV?$basic_string@DU?$char_traits@D@std@@V?$allocator@D@2@@std@@V?$vector@V?$basic_string@DU?$char_traits@D@std@@V?$allocator@D@2@@std@@V?$allocator@V?$basic_string@DU?$char_traits@D@std@@V?$allocator@D@2@@std@@@2@@2@@std@@PAX@std@@@2@QAU32@@Z ; std::_Tree_val<std::_Tree_simple_types<std::pair<std::basic_string<char,std::char_traits<char>,std::allocator<char> > const ,std::vector<std::basic_string<char,std::char_traits<char>,std::allocator<char> >,std::allocator<std::basic_string<char,std::char_traits<char>,std::allocator<char> > > > > > >::_Insert_node
PUBLIC	??0?$map@V?$basic_string@DU?$char_traits@D@std@@V?$allocator@D@2@@std@@V?$vector@V?$basic_string@DU?$char_traits@D@std@@V?$allocator@D@2@@std@@V?$allocator@V?$basic_string@DU?$char_traits@D@std@@V?$allocator@D@2@@std@@@2@@2@U?$less@V?$basic_string@DU?$char_traits@D@std@@V?$allocator@D@2@@std@@@2@V?$allocator@U?$pair@$$CBV?$basic_string@DU?$char_traits@D@std@@V?$allocator@D@2@@std@@V?$vector@V?$basic_string@DU?$char_traits@D@std@@V?$allocator@D@2@@std@@V?$allocator@V?$basic_string@DU?$char_traits@D@std@@V?$allocator@D@2@@std@@@2@@2@@std@@@2@@std@@QAE@XZ ; std::map<std::basic_string<char,std::char_traits<char>,std::allocator<char> >,std::vector<std::basic_string<char,std::char_traits<char>,std::allocator<char> >,std::allocator<std::basic_string<char,std::char_traits<char>,std::allocator<char> > > >,std::less<std::basic_string<char,std::char_traits<char>,std::allocator<char> > >,std::allocator<std::pair<std::basic_string<char,std::char_traits<char>,std::allocator<char> > const ,std::vector<std::basic_string<char,std::char_traits<char>,std::allocator<char> >,std::allocator<std::basic_string<char,std::char_traits<char>,std::allocator<char> > > > > > >::map<std::basic_string<char,std::char_traits<char>,std::allocator<char> >,std::vector<std::basic_string<char,std::char_traits<char>,std::allocator<char> >,std::allocator<std::basic_string<char,std::char_traits<char>,std::allocator<char> > > >,std::less<std::basic_string<char,std::char_traits<char>,std::allocator<char> > >,std::allocator<std::pair<std::basic_string<char,std::char_traits<char>,std::allocator<char> > const ,std::vector<std::basic_string<char,std::char_traits<char>,std::allocator<char> >,std::allocator<std::basic_string<char,std::char_traits<char>,std::allocator<char> > > > > > >
PUBLIC	??1?$map@V?$basic_string@DU?$char_traits@D@std@@V?$allocator@D@2@@std@@V?$vector@V?$basic_string@DU?$char_traits@D@std@@V?$allocator@D@2@@std@@V?$allocator@V?$basic_string@DU?$char_traits@D@std@@V?$allocator@D@2@@std@@@2@@2@U?$less@V?$basic_string@DU?$char_traits@D@std@@V?$allocator@D@2@@std@@@2@V?$allocator@U?$pair@$$CBV?$basic_string@DU?$char_traits@D@std@@V?$allocator@D@2@@std@@V?$vector@V?$basic_string@DU?$char_traits@D@std@@V?$allocator@D@2@@std@@V?$allocator@V?$basic_string@DU?$char_traits@D@std@@V?$allocator@D@2@@std@@@2@@2@@std@@@2@@std@@QAE@XZ ; std::map<std::basic_string<char,std::char_traits<char>,std::allocator<char> >,std::vector<std::basic_string<char,std::char_traits<char>,std::allocator<char> >,std::allocator<std::basic_string<char,std::char_traits<char>,std::allocator<char> > > >,std::less<std::basic_string<char,std::char_traits<char>,std::allocator<char> > >,std::allocator<std::pair<std::basic_string<char,std::char_traits<char>,std::allocator<char> > const ,std::vector<std::basic_string<char,std::char_traits<char>,std::allocator<char> >,std::allocator<std::basic_string<char,std::char_traits<char>,std::allocator<char> > > > > > >::~map<std::basic_string<char,std::char_traits<char>,std::allocator<char> >,std::vector<std::basic_string<char,std::char_traits<char>,std::allocator<char> >,std::allocator<std::basic_string<char,std::char_traits<char>,std::allocator<char> > > >,std::less<std::basic_string<char,std::char_traits<char>,std::allocator<char> > >,std::allocator<std::pair<std::basic_string<char,std::char_traits<char>,std::allocator<char> > const ,std::vector<std::basic_string<char,std::char_traits<char>,std::allocator<char> >,std::allocator<std::basic_string<char,std::char_traits<char>,std::allocator<char> > > > > > >
PUBLIC	??_G?$pair@$$CBV?$basic_string@DU?$char_traits@D@std@@V?$allocator@D@2@@std@@V?$vector@V?$basic_string@DU?$char_traits@D@std@@V?$allocator@D@2@@std@@V?$allocator@V?$basic_string@DU?$char_traits@D@std@@V?$allocator@D@2@@std@@@2@@2@@std@@QAEPAXI@Z ; std::pair<std::basic_string<char,std::char_traits<char>,std::allocator<char> > const ,std::vector<std::basic_string<char,std::char_traits<char>,std::allocator<char> >,std::allocator<std::basic_string<char,std::char_traits<char>,std::allocator<char> > > > >::`scalar deleting destructor'
PUBLIC	??$?9DU?$char_traits@D@std@@V?$allocator@D@1@@std@@YA_NABV?$basic_string@DU?$char_traits@D@std@@V?$allocator@D@2@@0@QBD@Z ; std::operator!=<char,std::char_traits<char>,std::allocator<char> >
PUBLIC	??$_Try_emplace@V?$basic_string@DU?$char_traits@D@std@@V?$allocator@D@2@@std@@$$V@?$map@V?$basic_string@DU?$char_traits@D@std@@V?$allocator@D@2@@std@@V?$vector@V?$basic_string@DU?$char_traits@D@std@@V?$allocator@D@2@@std@@V?$allocator@V?$basic_string@DU?$char_traits@D@std@@V?$allocator@D@2@@std@@@2@@2@U?$less@V?$basic_string@DU?$char_traits@D@std@@V?$allocator@D@2@@std@@@2@V?$allocator@U?$pair@$$CBV?$basic_string@DU?$char_traits@D@std@@V?$allocator@D@2@@std@@V?$vector@V?$basic_string@DU?$char_traits@D@std@@V?$allocator@D@2@@std@@V?$allocator@V?$basic_string@DU?$char_traits@D@std@@V?$allocator@D@2@@std@@@2@@2@@std@@@2@@std@@AAE?AU?$pair@PAU?$_Tree_node@U?$pair@$$CBV?$basic_string@DU?$char_traits@D@std@@V?$allocator@D@2@@std@@V?$vector@V?$basic_string@DU?$char_traits@D@std@@V?$allocator@D@2@@std@@V?$allocator@V?$basic_string@DU?$char_traits@D@std@@V?$allocator@D@2@@std@@@2@@2@@std@@PAX@std@@_N@1@$$QAV?$basic_string@DU?$char_traits@D@std@@V?$allocator@D@2@@1@@Z ; std::map<std::basic_string<char,std::char_traits<char>,std::allocator<char> >,std::vector<std::basic_string<char,std::char_traits<char>,std::allocator<char> >,std::allocator<std::basic_string<char,std::char_traits<char>,std::allocator<char> > > >,std::less<std::basic_string<char,std::char_traits<char>,std::allocator<char> > >,std::allocator<std::pair<std::basic_string<char,std::char_traits<char>,std::allocator<char> > const ,std::vector<std::basic_string<char,std::char_traits<char>,std::allocator<char> >,std::allocator<std::basic_string<char,std::char_traits<char>,std::allocator<char> > > > > > >::_Try_emplace<std::basic_string<char,std::char_traits<char>,std::allocator<char> > >
PUBLIC	??$_Find@V?$basic_string@DU?$char_traits@D@std@@V?$allocator@D@2@@std@@@?$_Tree@V?$_Tmap_traits@V?$basic_string@DU?$char_traits@D@std@@V?$allocator@D@2@@std@@V?$vector@V?$basic_string@DU?$char_traits@D@std@@V?$allocator@D@2@@std@@V?$allocator@V?$basic_string@DU?$char_traits@D@std@@V?$allocator@D@2@@std@@@2@@2@U?$less@V?$basic_string@DU?$char_traits@D@std@@V?$allocator@D@2@@std@@@2@V?$allocator@U?$pair@$$CBV?$basic_string@DU?$char_traits@D@std@@V?$allocator@D@2@@std@@V?$vector@V?$basic_string@DU?$char_traits@D@std@@V?$allocator@D@2@@std@@V?$allocator@V?$basic_string@DU?$char_traits@D@std@@V?$allocator@D@2@@std@@@2@@2@@std@@@2@$0A@@std@@@std@@ABEPAU?$_Tree_node@U?$pair@$$CBV?$basic_string@DU?$char_traits@D@std@@V?$allocator@D@2@@std@@V?$vector@V?$basic_string@DU?$char_traits@D@std@@V?$allocator@D@2@@std@@V?$allocator@V?$basic_string@DU?$char_traits@D@std@@V?$allocator@D@2@@std@@@2@@2@@std@@PAX@1@ABV?$basic_string@DU?$char_traits@D@std@@V?$allocator@D@2@@1@@Z ; std::_Tree<std::_Tmap_traits<std::basic_string<char,std::char_traits<char>,std::allocator<char> >,std::vector<std::basic_string<char,std::char_traits<char>,std::allocator<char> >,std::allocator<std::basic_string<char,std::char_traits<char>,std::allocator<char> > > >,std::less<std::basic_string<char,std::char_traits<char>,std::allocator<char> > >,std::allocator<std::pair<std::basic_string<char,std::char_traits<char>,std::allocator<char> > const ,std::vector<std::basic_string<char,std::char_traits<char>,std::allocator<char> >,std::allocator<std::basic_string<char,std::char_traits<char>,std::allocator<char> > > > > >,0> >::_Find<std::basic_string<char,std::char_traits<char>,std::allocator<char> > >
PUBLIC	??$_Emplace_back_internal@ABQAVCArea@@@?$deque@PAVCArea@@V?$allocator@PAVCArea@@@std@@@std@@AAEXABQAVCArea@@@Z ; std::deque<CArea *,std::allocator<CArea *> >::_Emplace_back_internal<CArea * const &>
PUBLIC	??D?$_Deque_unchecked_const_iterator@V?$_Deque_val@U?$_Deque_simple_types@PAVCArea@@@std@@@std@@@std@@QBEABQAVCArea@@XZ ; std::_Deque_unchecked_const_iterator<std::_Deque_val<std::_Deque_simple_types<CArea *> > >::operator*
PUBLIC	??$_Delete_plain_internal@V?$allocator@U_Container_proxy@std@@@std@@@std@@YAXAAV?$allocator@U_Container_proxy@std@@@0@QAU_Container_proxy@0@@Z ; std::_Delete_plain_internal<std::allocator<std::_Container_proxy> >
PUBLIC	??$_Alloc_proxy@V?$allocator@U_Container_proxy@std@@@std@@@_Container_base12@std@@QAEX$$QAV?$allocator@U_Container_proxy@std@@@1@@Z ; std::_Container_base12::_Alloc_proxy<std::allocator<std::_Container_proxy> >
PUBLIC	??$_Emplace_back_internal@ABQAVCTerrain@@@?$deque@PAVCTerrain@@V?$allocator@PAVCTerrain@@@std@@@std@@AAEXABQAVCTerrain@@@Z ; std::deque<CTerrain *,std::allocator<CTerrain *> >::_Emplace_back_internal<CTerrain * const &>
PUBLIC	??D?$_Deque_unchecked_const_iterator@V?$_Deque_val@U?$_Deque_simple_types@PAVCTerrain@@@std@@@std@@@std@@QBEABQAVCTerrain@@XZ ; std::_Deque_unchecked_const_iterator<std::_Deque_val<std::_Deque_simple_types<CTerrain *> > >::operator*
PUBLIC	??$_Destroy_in_place@PAPAVCArea@@@std@@YAXAAPAPAVCArea@@@Z ; std::_Destroy_in_place<CArea * *>
PUBLIC	??$_Destroy_in_place@PAPAVCTerrain@@@std@@YAXAAPAPAVCTerrain@@@Z ; std::_Destroy_in_place<CTerrain * *>
PUBLIC	??$_Pocca@V?$allocator@D@std@@@std@@YAXAAV?$allocator@D@0@ABV10@@Z ; std::_Pocca<std::allocator<char> >
PUBLIC	??$_Buyheadnode@V?$allocator@U?$_Tree_node@U?$pair@$$CBV?$basic_string@DU?$char_traits@D@std@@V?$allocator@D@2@@std@@V?$vector@V?$basic_string@DU?$char_traits@D@std@@V?$allocator@D@2@@std@@V?$allocator@V?$basic_string@DU?$char_traits@D@std@@V?$allocator@D@2@@std@@@2@@2@@std@@PAX@std@@@std@@@?$_Tree_node@U?$pair@$$CBV?$basic_string@DU?$char_traits@D@std@@V?$allocator@D@2@@std@@V?$vector@V?$basic_string@DU?$char_traits@D@std@@V?$allocator@D@2@@std@@V?$allocator@V?$basic_string@DU?$char_traits@D@std@@V?$allocator@D@2@@std@@@2@@2@@std@@PAX@std@@SAPAU01@AAV?$allocator@U?$_Tree_node@U?$pair@$$CBV?$basic_string@DU?$char_traits@D@std@@V?$allocator@D@2@@std@@V?$vector@V?$basic_string@DU?$char_traits@D@std@@V?$allocator@D@2@@std@@V?$allocator@V?$basic_string@DU?$char_traits@D@std@@V?$allocator@D@2@@std@@@2@@2@@std@@PAX@std@@@1@@Z ; std::_Tree_node<std::pair<std::basic_string<char,std::char_traits<char>,std::allocator<char> > const ,std::vector<std::basic_string<char,std::char_traits<char>,std::allocator<char> >,std::allocator<std::basic_string<char,std::char_traits<char>,std::allocator<char> > > > >,void *>::_Buyheadnode<std::allocator<std::_Tree_node<std::pair<std::basic_string<char,std::char_traits<char>,std::allocator<char> > const ,std::vector<std::basic_string<char,std::char_traits<char>,std::allocator<char> >,std::allocator<std::basic_string<char,std::char_traits<char>,std::allocator<char> > > > >,void *> > >
PUBLIC	??$_Destroy_range@V?$allocator@V?$basic_string@DU?$char_traits@D@std@@V?$allocator@D@2@@std@@@std@@@std@@YAXPAV?$basic_string@DU?$char_traits@D@std@@V?$allocator@D@2@@0@QAV10@AAV?$allocator@V?$basic_string@DU?$char_traits@D@std@@V?$allocator@D@2@@std@@@0@@Z ; std::_Destroy_range<std::allocator<std::basic_string<char,std::char_traits<char>,std::allocator<char> > > >
PUBLIC	??$?8DU?$char_traits@D@std@@V?$allocator@D@1@@std@@YA_NABV?$basic_string@DU?$char_traits@D@std@@V?$allocator@D@2@@0@QBD@Z ; std::operator==<char,std::char_traits<char>,std::allocator<char> >
PUBLIC	??$_Find_lower_bound@V?$basic_string@DU?$char_traits@D@std@@V?$allocator@D@2@@std@@@?$_Tree@V?$_Tmap_traits@V?$basic_string@DU?$char_traits@D@std@@V?$allocator@D@2@@std@@V?$vector@V?$basic_string@DU?$char_traits@D@std@@V?$allocator@D@2@@std@@V?$allocator@V?$basic_string@DU?$char_traits@D@std@@V?$allocator@D@2@@std@@@2@@2@U?$less@V?$basic_string@DU?$char_traits@D@std@@V?$allocator@D@2@@std@@@2@V?$allocator@U?$pair@$$CBV?$basic_string@DU?$char_traits@D@std@@V?$allocator@D@2@@std@@V?$vector@V?$basic_string@DU?$char_traits@D@std@@V?$allocator@D@2@@std@@V?$allocator@V?$basic_string@DU?$char_traits@D@std@@V?$allocator@D@2@@std@@@2@@2@@std@@@2@$0A@@std@@@std@@IBE?AU?$_Tree_find_result@PAU?$_Tree_node@U?$pair@$$CBV?$basic_string@DU?$char_traits@D@std@@V?$allocator@D@2@@std@@V?$vector@V?$basic_string@DU?$char_traits@D@std@@V?$allocator@D@2@@std@@V?$allocator@V?$basic_string@DU?$char_traits@D@std@@V?$allocator@D@2@@std@@@2@@2@@std@@PAX@std@@@1@ABV?$basic_string@DU?$char_traits@D@std@@V?$allocator@D@2@@1@@Z ; std::_Tree<std::_Tmap_traits<std::basic_string<char,std::char_traits<char>,std::allocator<char> >,std::vector<std::basic_string<char,std::char_traits<char>,std::allocator<char> >,std::allocator<std::basic_string<char,std::char_traits<char>,std::allocator<char> > > >,std::less<std::basic_string<char,std::char_traits<char>,std::allocator<char> > >,std::allocator<std::pair<std::basic_string<char,std::char_traits<char>,std::allocator<char> > const ,std::vector<std::basic_string<char,std::char_traits<char>,std::allocator<char> >,std::allocator<std::basic_string<char,std::char_traits<char>,std::allocator<char> > > > > >,0> >::_Find_lower_bound<std::basic_string<char,std::char_traits<char>,std::allocator<char> > >
PUBLIC	??$_Lower_bound_duplicate@V?$basic_string@DU?$char_traits@D@std@@V?$allocator@D@2@@std@@@?$_Tree@V?$_Tmap_traits@V?$basic_string@DU?$char_traits@D@std@@V?$allocator@D@2@@std@@V?$vector@V?$basic_string@DU?$char_traits@D@std@@V?$allocator@D@2@@std@@V?$allocator@V?$basic_string@DU?$char_traits@D@std@@V?$allocator@D@2@@std@@@2@@2@U?$less@V?$basic_string@DU?$char_traits@D@std@@V?$allocator@D@2@@std@@@2@V?$allocator@U?$pair@$$CBV?$basic_string@DU?$char_traits@D@std@@V?$allocator@D@2@@std@@V?$vector@V?$basic_string@DU?$char_traits@D@std@@V?$allocator@D@2@@std@@V?$allocator@V?$basic_string@DU?$char_traits@D@std@@V?$allocator@D@2@@std@@@2@@2@@std@@@2@$0A@@std@@@std@@IBE_NQAU?$_Tree_node@U?$pair@$$CBV?$basic_string@DU?$char_traits@D@std@@V?$allocator@D@2@@std@@V?$vector@V?$basic_string@DU?$char_traits@D@std@@V?$allocator@D@2@@std@@V?$allocator@V?$basic_string@DU?$char_traits@D@std@@V?$allocator@D@2@@std@@@2@@2@@std@@PAX@1@ABV?$basic_string@DU?$char_traits@D@std@@V?$allocator@D@2@@1@@Z ; std::_Tree<std::_Tmap_traits<std::basic_string<char,std::char_traits<char>,std::allocator<char> >,std::vector<std::basic_string<char,std::char_traits<char>,std::allocator<char> >,std::allocator<std::basic_string<char,std::char_traits<char>,std::allocator<char> > > >,std::less<std::basic_string<char,std::char_traits<char>,std::allocator<char> > >,std::allocator<std::pair<std::basic_string<char,std::char_traits<char>,std::allocator<char> > const ,std::vector<std::basic_string<char,std::char_traits<char>,std::allocator<char> >,std::allocator<std::basic_string<char,std::char_traits<char>,std::allocator<char> > > > > >,0> >::_Lower_bound_duplicate<std::basic_string<char,std::char_traits<char>,std::allocator<char> > >
PUBLIC	?_Allocate@?$_Alloc_construct_ptr@V?$allocator@U?$_Tree_node@U?$pair@$$CBV?$basic_string@DU?$char_traits@D@std@@V?$allocator@D@2@@std@@V?$vector@V?$basic_string@DU?$char_traits@D@std@@V?$allocator@D@2@@std@@V?$allocator@V?$basic_string@DU?$char_traits@D@std@@V?$allocator@D@2@@std@@@2@@2@@std@@PAX@std@@@std@@@std@@QAEXXZ ; std::_Alloc_construct_ptr<std::allocator<std::_Tree_node<std::pair<std::basic_string<char,std::char_traits<char>,std::allocator<char> > const ,std::vector<std::basic_string<char,std::char_traits<char>,std::allocator<char> >,std::allocator<std::basic_string<char,std::char_traits<char>,std::allocator<char> > > > >,void *> > >::_Allocate
PUBLIC	??1?$_Alloc_construct_ptr@V?$allocator@U?$_Tree_node@U?$pair@$$CBV?$basic_string@DU?$char_traits@D@std@@V?$allocator@D@2@@std@@V?$vector@V?$basic_string@DU?$char_traits@D@std@@V?$allocator@D@2@@std@@V?$allocator@V?$basic_string@DU?$char_traits@D@std@@V?$allocator@D@2@@std@@@2@@2@@std@@PAX@std@@@std@@@std@@QAE@XZ ; std::_Alloc_construct_ptr<std::allocator<std::_Tree_node<std::pair<std::basic_string<char,std::char_traits<char>,std::allocator<char> > const ,std::vector<std::basic_string<char,std::char_traits<char>,std::allocator<char> >,std::allocator<std::basic_string<char,std::char_traits<char>,std::allocator<char> > > > >,void *> > >::~_Alloc_construct_ptr<std::allocator<std::_Tree_node<std::pair<std::basic_string<char,std::char_traits<char>,std::allocator<char> > const ,std::vector<std::basic_string<char,std::char_traits<char>,std::allocator<char> >,std::allocator<std::basic_string<char,std::char_traits<char>,std::allocator<char> > > > >,void *> > >
PUBLIC	??1?$_Tree_temp_node_alloc@V?$allocator@U?$_Tree_node@U?$pair@$$CBV?$basic_string@DU?$char_traits@D@std@@V?$allocator@D@2@@std@@V?$vector@V?$basic_string@DU?$char_traits@D@std@@V?$allocator@D@2@@std@@V?$allocator@V?$basic_string@DU?$char_traits@D@std@@V?$allocator@D@2@@std@@@2@@2@@std@@PAX@std@@@std@@@std@@QAE@XZ ; std::_Tree_temp_node_alloc<std::allocator<std::_Tree_node<std::pair<std::basic_string<char,std::char_traits<char>,std::allocator<char> > const ,std::vector<std::basic_string<char,std::char_traits<char>,std::allocator<char> >,std::allocator<std::basic_string<char,std::char_traits<char>,std::allocator<char> > > > >,void *> > >::~_Tree_temp_node_alloc<std::allocator<std::_Tree_node<std::pair<std::basic_string<char,std::char_traits<char>,std::allocator<char> > const ,std::vector<std::basic_string<char,std::char_traits<char>,std::allocator<char> >,std::allocator<std::basic_string<char,std::char_traits<char>,std::allocator<char> > > > >,void *> > >
PUBLIC	??1?$_Tree_temp_node@V?$allocator@U?$_Tree_node@U?$pair@$$CBV?$basic_string@DU?$char_traits@D@std@@V?$allocator@D@2@@std@@V?$vector@V?$basic_string@DU?$char_traits@D@std@@V?$allocator@D@2@@std@@V?$allocator@V?$basic_string@DU?$char_traits@D@std@@V?$allocator@D@2@@std@@@2@@2@@std@@PAX@std@@@std@@@std@@QAE@XZ ; std::_Tree_temp_node<std::allocator<std::_Tree_node<std::pair<std::basic_string<char,std::char_traits<char>,std::allocator<char> > const ,std::vector<std::basic_string<char,std::char_traits<char>,std::allocator<char> >,std::allocator<std::basic_string<char,std::char_traits<char>,std::allocator<char> > > > >,void *> > >::~_Tree_temp_node<std::allocator<std::_Tree_node<std::pair<std::basic_string<char,std::char_traits<char>,std::allocator<char> > const ,std::vector<std::basic_string<char,std::char_traits<char>,std::allocator<char> >,std::allocator<std::basic_string<char,std::char_traits<char>,std::allocator<char> > > > >,void *> > >
PUBLIC	??$?0ABUpiecewise_construct_t@std@@V?$tuple@$$QAV?$basic_string@DU?$char_traits@D@std@@V?$allocator@D@2@@std@@@1@V?$tuple@$$V@1@@?$_Tree_temp_node@V?$allocator@U?$_Tree_node@U?$pair@$$CBV?$basic_string@DU?$char_traits@D@std@@V?$allocator@D@2@@std@@V?$vector@V?$basic_string@DU?$char_traits@D@std@@V?$allocator@D@2@@std@@V?$allocator@V?$basic_string@DU?$char_traits@D@std@@V?$allocator@D@2@@std@@@2@@2@@std@@PAX@std@@@std@@@std@@QAE@AAV?$allocator@U?$_Tree_node@U?$pair@$$CBV?$basic_string@DU?$char_traits@D@std@@V?$allocator@D@2@@std@@V?$vector@V?$basic_string@DU?$char_traits@D@std@@V?$allocator@D@2@@std@@V?$allocator@V?$basic_string@DU?$char_traits@D@std@@V?$allocator@D@2@@std@@@2@@2@@std@@PAX@std@@@1@PAU?$_Tree_node@U?$pair@$$CBV?$basic_string@DU?$char_traits@D@std@@V?$allocator@D@2@@std@@V?$vector@V?$basic_string@DU?$char_traits@D@std@@V?$allocator@D@2@@std@@V?$allocator@V?$basic_string@DU?$char_traits@D@std@@V?$allocator@D@2@@std@@@2@@2@@std@@PAX@1@ABUpiecewise_construct_t@1@$$QAV?$tuple@$$QAV?$basic_string@DU?$char_traits@D@std@@V?$allocator@D@2@@std@@@1@$$QAV?$tuple@$$V@1@@Z ; std::_Tree_temp_node<std::allocator<std::_Tree_node<std::pair<std::basic_string<char,std::char_traits<char>,std::allocator<char> > const ,std::vector<std::basic_string<char,std::char_traits<char>,std::allocator<char> >,std::allocator<std::basic_string<char,std::char_traits<char>,std::allocator<char> > > > >,void *> > >::_Tree_temp_node<std::allocator<std::_Tree_node<std::pair<std::basic_string<char,std::char_traits<char>,std::allocator<char> > const ,std::vector<std::basic_string<char,std::char_traits<char>,std::allocator<char> >,std::allocator<std::basic_string<char,std::char_traits<char>,std::allocator<char> > > > >,void *> > ><std::piecewise_construct_t const &,std::tuple<std::basic_string<char,std::char_traits<char>,std::allocator<char> > &&>,std::tuple<> >
PUBLIC	??$_Erase_tree@V?$allocator@U?$_Tree_node@U?$pair@$$CBV?$basic_string@DU?$char_traits@D@std@@V?$allocator@D@2@@std@@V?$vector@V?$basic_string@DU?$char_traits@D@std@@V?$allocator@D@2@@std@@V?$allocator@V?$basic_string@DU?$char_traits@D@std@@V?$allocator@D@2@@std@@@2@@2@@std@@PAX@std@@@std@@@?$_Tree_val@U?$_Tree_simple_types@U?$pair@$$CBV?$basic_string@DU?$char_traits@D@std@@V?$allocator@D@2@@std@@V?$vector@V?$basic_string@DU?$char_traits@D@std@@V?$allocator@D@2@@std@@V?$allocator@V?$basic_string@DU?$char_traits@D@std@@V?$allocator@D@2@@std@@@2@@2@@std@@@std@@@std@@QAEXAAV?$allocator@U?$_Tree_node@U?$pair@$$CBV?$basic_string@DU?$char_traits@D@std@@V?$allocator@D@2@@std@@V?$vector@V?$basic_string@DU?$char_traits@D@std@@V?$allocator@D@2@@std@@V?$allocator@V?$basic_string@DU?$char_traits@D@std@@V?$allocator@D@2@@std@@@2@@2@@std@@PAX@std@@@1@PAU?$_Tree_node@U?$pair@$$CBV?$basic_string@DU?$char_traits@D@std@@V?$allocator@D@2@@std@@V?$vector@V?$basic_string@DU?$char_traits@D@std@@V?$allocator@D@2@@std@@V?$allocator@V?$basic_string@DU?$char_traits@D@std@@V?$allocator@D@2@@std@@@2@@2@@std@@PAX@1@@Z ; std::_Tree_val<std::_Tree_simple_types<std::pair<std::basic_string<char,std::char_traits<char>,std::allocator<char> > const ,std::vector<std::basic_string<char,std::char_traits<char>,std::allocator<char> >,std::allocator<std::basic_string<char,std::char_traits<char>,std::allocator<char> > > > > > >::_Erase_tree<std::allocator<std::_Tree_node<std::pair<std::basic_string<char,std::char_traits<char>,std::allocator<char> > const ,std::vector<std::basic_string<char,std::char_traits<char>,std::allocator<char> >,std::allocator<std::basic_string<char,std::char_traits<char>,std::allocator<char> > > > >,void *> > >
PUBLIC	??$_Freenode0@V?$allocator@U?$_Tree_node@U?$pair@$$CBV?$basic_string@DU?$char_traits@D@std@@V?$allocator@D@2@@std@@V?$vector@V?$basic_string@DU?$char_traits@D@std@@V?$allocator@D@2@@std@@V?$allocator@V?$basic_string@DU?$char_traits@D@std@@V?$allocator@D@2@@std@@@2@@2@@std@@PAX@std@@@std@@@?$_Tree_node@U?$pair@$$CBV?$basic_string@DU?$char_traits@D@std@@V?$allocator@D@2@@std@@V?$vector@V?$basic_string@DU?$char_traits@D@std@@V?$allocator@D@2@@std@@V?$allocator@V?$basic_string@DU?$char_traits@D@std@@V?$allocator@D@2@@std@@@2@@2@@std@@PAX@std@@SAXAAV?$allocator@U?$_Tree_node@U?$pair@$$CBV?$basic_string@DU?$char_traits@D@std@@V?$allocator@D@2@@std@@V?$vector@V?$basic_string@DU?$char_traits@D@std@@V?$allocator@D@2@@std@@V?$allocator@V?$basic_string@DU?$char_traits@D@std@@V?$allocator@D@2@@std@@@2@@2@@std@@PAX@std@@@1@PAU01@@Z ; std::_Tree_node<std::pair<std::basic_string<char,std::char_traits<char>,std::allocator<char> > const ,std::vector<std::basic_string<char,std::char_traits<char>,std::allocator<char> >,std::allocator<std::basic_string<char,std::char_traits<char>,std::allocator<char> > > > >,void *>::_Freenode0<std::allocator<std::_Tree_node<std::pair<std::basic_string<char,std::char_traits<char>,std::allocator<char> > const ,std::vector<std::basic_string<char,std::char_traits<char>,std::allocator<char> >,std::allocator<std::basic_string<char,std::char_traits<char>,std::allocator<char> > > > >,void *> > >
PUBLIC	??$_Deallocate_plain@V?$allocator@U_Container_proxy@std@@@std@@@std@@YAXAAV?$allocator@U_Container_proxy@std@@@0@QAU_Container_proxy@0@@Z ; std::_Deallocate_plain<std::allocator<std::_Container_proxy> >
PUBLIC	??$_Construct_in_place@U_Container_proxy@std@@PAU_Container_base12@2@@std@@YAXAAU_Container_proxy@0@$$QAPAU_Container_base12@0@@Z ; std::_Construct_in_place<std::_Container_proxy,std::_Container_base12 *>
PUBLIC	??$_Construct_in_place@PAU?$_Tree_node@U?$pair@$$CBV?$basic_string@DU?$char_traits@D@std@@V?$allocator@D@2@@std@@V?$vector@V?$basic_string@DU?$char_traits@D@std@@V?$allocator@D@2@@std@@V?$allocator@V?$basic_string@DU?$char_traits@D@std@@V?$allocator@D@2@@std@@@2@@2@@std@@PAX@std@@ABQAU12@@std@@YAXAAPAU?$_Tree_node@U?$pair@$$CBV?$basic_string@DU?$char_traits@D@std@@V?$allocator@D@2@@std@@V?$vector@V?$basic_string@DU?$char_traits@D@std@@V?$allocator@D@2@@std@@V?$allocator@V?$basic_string@DU?$char_traits@D@std@@V?$allocator@D@2@@std@@@2@@2@@std@@PAX@0@ABQAU10@@Z ; std::_Construct_in_place<std::_Tree_node<std::pair<std::basic_string<char,std::char_traits<char>,std::allocator<char> > const ,std::vector<std::basic_string<char,std::char_traits<char>,std::allocator<char> >,std::allocator<std::basic_string<char,std::char_traits<char>,std::allocator<char> > > > >,void *> *,std::_Tree_node<std::pair<std::basic_string<char,std::char_traits<char>,std::allocator<char> > const ,std::vector<std::basic_string<char,std::char_traits<char>,std::allocator<char> >,std::allocator<std::basic_string<char,std::char_traits<char>,std::allocator<char> > > > >,void *> * const &>
PUBLIC	??$_Destroy_in_place@PAU?$_Tree_node@U?$pair@$$CBV?$basic_string@DU?$char_traits@D@std@@V?$allocator@D@2@@std@@V?$vector@V?$basic_string@DU?$char_traits@D@std@@V?$allocator@D@2@@std@@V?$allocator@V?$basic_string@DU?$char_traits@D@std@@V?$allocator@D@2@@std@@@2@@2@@std@@PAX@std@@@std@@YAXAAPAU?$_Tree_node@U?$pair@$$CBV?$basic_string@DU?$char_traits@D@std@@V?$allocator@D@2@@std@@V?$vector@V?$basic_string@DU?$char_traits@D@std@@V?$allocator@D@2@@std@@V?$allocator@V?$basic_string@DU?$char_traits@D@std@@V?$allocator@D@2@@std@@@2@@2@@std@@PAX@0@@Z ; std::_Destroy_in_place<std::_Tree_node<std::pair<std::basic_string<char,std::char_traits<char>,std::allocator<char> > const ,std::vector<std::basic_string<char,std::char_traits<char>,std::allocator<char> >,std::allocator<std::basic_string<char,std::char_traits<char>,std::allocator<char> > > > >,void *> *>
PUBLIC	??$uninitialized_copy@PAPAPAVCArea@@PAPAPAV1@@std@@YAPAPAPAVCArea@@QAPAPAV1@0PAPAPAV1@@Z ; std::uninitialized_copy<CArea * * *,CArea * * *>
PUBLIC	??$_Uninitialized_value_construct_n_unchecked1@PAPAPAVCArea@@I@std@@YAPAPAPAVCArea@@PAPAPAV1@I@Z ; std::_Uninitialized_value_construct_n_unchecked1<CArea * * *,unsigned int>
PUBLIC	??$_Destroy_range@PAPAPAVCArea@@PAPAPAV1@@std@@YAXPAPAPAVCArea@@QAPAPAV1@@Z ; std::_Destroy_range<CArea * * *,CArea * * *>
PUBLIC	??$uninitialized_copy@PAPAPAVCTerrain@@PAPAPAV1@@std@@YAPAPAPAVCTerrain@@QAPAPAV1@0PAPAPAV1@@Z ; std::uninitialized_copy<CTerrain * * *,CTerrain * * *>
PUBLIC	??$_Uninitialized_value_construct_n_unchecked1@PAPAPAVCTerrain@@I@std@@YAPAPAPAVCTerrain@@PAPAPAV1@I@Z ; std::_Uninitialized_value_construct_n_unchecked1<CTerrain * * *,unsigned int>
PUBLIC	??$_Destroy_range@PAPAPAVCTerrain@@PAPAPAV1@@std@@YAXPAPAPAVCTerrain@@QAPAPAV1@@Z ; std::_Destroy_range<CTerrain * * *,CTerrain * * *>
PUBLIC	??$construct@U?$pair@$$CBV?$basic_string@DU?$char_traits@D@std@@V?$allocator@D@2@@std@@V?$vector@V?$basic_string@DU?$char_traits@D@std@@V?$allocator@D@2@@std@@V?$allocator@V?$basic_string@DU?$char_traits@D@std@@V?$allocator@D@2@@std@@@2@@2@@std@@ABUpiecewise_construct_t@2@V?$tuple@$$QAV?$basic_string@DU?$char_traits@D@std@@V?$allocator@D@2@@std@@@2@V?$tuple@$$V@2@@?$_Default_allocator_traits@V?$allocator@U?$_Tree_node@U?$pair@$$CBV?$basic_string@DU?$char_traits@D@std@@V?$allocator@D@2@@std@@V?$vector@V?$basic_string@DU?$char_traits@D@std@@V?$allocator@D@2@@std@@V?$allocator@V?$basic_string@DU?$char_traits@D@std@@V?$allocator@D@2@@std@@@2@@2@@std@@PAX@std@@@std@@@std@@SAXAAV?$allocator@U?$_Tree_node@U?$pair@$$CBV?$basic_string@DU?$char_traits@D@std@@V?$allocator@D@2@@std@@V?$vector@V?$basic_string@DU?$char_traits@D@std@@V?$allocator@D@2@@std@@V?$allocator@V?$basic_string@DU?$char_traits@D@std@@V?$allocator@D@2@@std@@@2@@2@@std@@PAX@std@@@1@QAU?$pair@$$CBV?$basic_string@DU?$char_traits@D@std@@V?$allocator@D@2@@std@@V?$vector@V?$basic_string@DU?$char_traits@D@std@@V?$allocator@D@2@@std@@V?$allocator@V?$basic_string@DU?$char_traits@D@std@@V?$allocator@D@2@@std@@@2@@2@@1@ABUpiecewise_construct_t@1@$$QAV?$tuple@$$QAV?$basic_string@DU?$char_traits@D@std@@V?$allocator@D@2@@std@@@1@$$QAV?$tuple@$$V@1@@Z ; std::_Default_allocator_traits<std::allocator<std::_Tree_node<std::pair<std::basic_string<char,std::char_traits<char>,std::allocator<char> > const ,std::vector<std::basic_string<char,std::char_traits<char>,std::allocator<char> >,std::allocator<std::basic_string<char,std::char_traits<char>,std::allocator<char> > > > >,void *> > >::construct<std::pair<std::basic_string<char,std::char_traits<char>,std::allocator<char> > const ,std::vector<std::basic_string<char,std::char_traits<char>,std::allocator<char> >,std::allocator<std::basic_string<char,std::char_traits<char>,std::allocator<char> > > > >,std::piecewise_construct_t const &,std::tuple<std::basic_string<char,std::char_traits<char>,std::allocator<char> > &&>,std::tuple<> >
PUBLIC	??$_Construct_in_place@PAU?$_Tree_node@U?$pair@$$CBV?$basic_string@DU?$char_traits@D@std@@V?$allocator@D@2@@std@@V?$vector@V?$basic_string@DU?$char_traits@D@std@@V?$allocator@D@2@@std@@V?$allocator@V?$basic_string@DU?$char_traits@D@std@@V?$allocator@D@2@@std@@@2@@2@@std@@PAX@std@@AAPAU12@@std@@YAXAAPAU?$_Tree_node@U?$pair@$$CBV?$basic_string@DU?$char_traits@D@std@@V?$allocator@D@2@@std@@V?$vector@V?$basic_string@DU?$char_traits@D@std@@V?$allocator@D@2@@std@@V?$allocator@V?$basic_string@DU?$char_traits@D@std@@V?$allocator@D@2@@std@@@2@@2@@std@@PAX@0@0@Z ; std::_Construct_in_place<std::_Tree_node<std::pair<std::basic_string<char,std::char_traits<char>,std::allocator<char> > const ,std::vector<std::basic_string<char,std::char_traits<char>,std::allocator<char> >,std::allocator<std::basic_string<char,std::char_traits<char>,std::allocator<char> > > > >,void *> *,std::_Tree_node<std::pair<std::basic_string<char,std::char_traits<char>,std::allocator<char> > const ,std::vector<std::basic_string<char,std::char_traits<char>,std::allocator<char> >,std::allocator<std::basic_string<char,std::char_traits<char>,std::allocator<char> > > > >,void *> * &>
PUBLIC	??$_Copy_memmove@PAPAPAVCArea@@PAPAPAV1@@std@@YAPAPAPAVCArea@@PAPAPAV1@00@Z ; std::_Copy_memmove<CArea * * *,CArea * * *>
PUBLIC	??$_Zero_range@PAPAPAVCArea@@@std@@YAPAPAPAVCArea@@QAPAPAV1@0@Z ; std::_Zero_range<CArea * * *>
PUBLIC	??$_Copy_memmove@PAPAPAVCTerrain@@PAPAPAV1@@std@@YAPAPAPAVCTerrain@@PAPAPAV1@00@Z ; std::_Copy_memmove<CTerrain * * *,CTerrain * * *>
PUBLIC	??$_Zero_range@PAPAPAVCTerrain@@@std@@YAPAPAPAVCTerrain@@QAPAPAV1@0@Z ; std::_Zero_range<CTerrain * * *>
PUBLIC	??$?MDU?$char_traits@D@std@@V?$allocator@D@1@@std@@YA_NABV?$basic_string@DU?$char_traits@D@std@@V?$allocator@D@2@@0@0@Z ; std::operator<<char,std::char_traits<char>,std::allocator<char> >
PUBLIC	??$?0$$QAV?$basic_string@DU?$char_traits@D@std@@V?$allocator@D@2@@std@@$$Z$$V@?$pair@$$CBV?$basic_string@DU?$char_traits@D@std@@V?$allocator@D@2@@std@@V?$vector@V?$basic_string@DU?$char_traits@D@std@@V?$allocator@D@2@@std@@V?$allocator@V?$basic_string@DU?$char_traits@D@std@@V?$allocator@D@2@@std@@@2@@2@@std@@QAE@Upiecewise_construct_t@1@V?$tuple@$$QAV?$basic_string@DU?$char_traits@D@std@@V?$allocator@D@2@@std@@@1@V?$tuple@$$V@1@@Z ; std::pair<std::basic_string<char,std::char_traits<char>,std::allocator<char> > const ,std::vector<std::basic_string<char,std::char_traits<char>,std::allocator<char> >,std::allocator<std::basic_string<char,std::char_traits<char>,std::allocator<char> > > > >::pair<std::basic_string<char,std::char_traits<char>,std::allocator<char> > const ,std::vector<std::basic_string<char,std::char_traits<char>,std::allocator<char> >,std::allocator<std::basic_string<char,std::char_traits<char>,std::allocator<char> > > > ><std::basic_string<char,std::char_traits<char>,std::allocator<char> > &&>
PUBLIC	?_OptionsStorage@?1??__local_stdio_printf_options@@9@4_KA ; `__local_stdio_printf_options'::`2'::_OptionsStorage
PUBLIC	??_7exception@std@@6B@				; std::exception::`vftable'
PUBLIC	??_C@_0BC@EOODALEL@Unknown?5exception@		; `string'
PUBLIC	??_7bad_alloc@std@@6B@				; std::bad_alloc::`vftable'
PUBLIC	??_7bad_array_new_length@std@@6B@		; std::bad_array_new_length::`vftable'
PUBLIC	??_C@_0BF@KINCDENJ@bad?5array?5new?5length@	; `string'
PUBLIC	__TI3?AVbad_array_new_length@std@@
PUBLIC	__CTA3?AVbad_array_new_length@std@@
PUBLIC	??_R0?AVbad_array_new_length@std@@@8		; std::bad_array_new_length `RTTI Type Descriptor'
PUBLIC	__CT??_R0?AVbad_array_new_length@std@@@8??0bad_array_new_length@std@@QAE@ABV01@@Z12
PUBLIC	??_R0?AVbad_alloc@std@@@8			; std::bad_alloc `RTTI Type Descriptor'
PUBLIC	__CT??_R0?AVbad_alloc@std@@@8??0bad_alloc@std@@QAE@ABV01@@Z12
PUBLIC	??_R0?AVexception@std@@@8			; std::exception `RTTI Type Descriptor'
PUBLIC	__CT??_R0?AVexception@std@@@8??0exception@std@@QAE@ABV01@@Z12
PUBLIC	??_C@_0BA@JFNIOLAK@string?5too?5long@		; `string'
PUBLIC	??_C@_0BB@GCADKGJO@map?1set?5too?5long@		; `string'
PUBLIC	??_R4exception@std@@6B@				; std::exception::`RTTI Complete Object Locator'
PUBLIC	??_R3exception@std@@8				; std::exception::`RTTI Class Hierarchy Descriptor'
PUBLIC	??_R2exception@std@@8				; std::exception::`RTTI Base Class Array'
PUBLIC	??_R1A@?0A@EA@exception@std@@8			; std::exception::`RTTI Base Class Descriptor at (0,-1,0,64)'
PUBLIC	??_R4bad_alloc@std@@6B@				; std::bad_alloc::`RTTI Complete Object Locator'
PUBLIC	??_R3bad_alloc@std@@8				; std::bad_alloc::`RTTI Class Hierarchy Descriptor'
PUBLIC	??_R2bad_alloc@std@@8				; std::bad_alloc::`RTTI Base Class Array'
PUBLIC	??_R1A@?0A@EA@bad_alloc@std@@8			; std::bad_alloc::`RTTI Base Class Descriptor at (0,-1,0,64)'
PUBLIC	??_R4bad_array_new_length@std@@6B@		; std::bad_array_new_length::`RTTI Complete Object Locator'
PUBLIC	??_R3bad_array_new_length@std@@8		; std::bad_array_new_length::`RTTI Class Hierarchy Descriptor'
PUBLIC	??_R2bad_array_new_length@std@@8		; std::bad_array_new_length::`RTTI Base Class Array'
PUBLIC	??_R1A@?0A@EA@bad_array_new_length@std@@8	; std::bad_array_new_length::`RTTI Base Class Descriptor at (0,-1,0,64)'
PUBLIC	??_7TEMP_CAreaLoaderThread@@6B@			; TEMP_CAreaLoaderThread::`vftable'
PUBLIC	??_C@_0FE@BAIIJAJL@TEMP_CAreaLoaderThread?3?3Execute@ ; `string'
PUBLIC	??_C@_0DI@ILGIOFFC@TEMP_CAreaLoaderThread?3?3Request@ ; `string'
PUBLIC	??_C@_0DO@MFBBOCDC@TEMP_CAreaLoaderThread?3?3Process@ ; `string'
PUBLIC	??_C@_08HAAOAKJA@?$CFs?2?$CF06u?2@		; `string'
PUBLIC	??_C@_0DO@IKNACHFC@TEMP_CAreaLoaderThread?3?3Process@ ; `string'
PUBLIC	??_C@_0EB@FFIMHONH@TEMP_CAreaLoaderThread?3?3Process@ ; `string'
PUBLIC	??_C@_0BJ@PNPPDMHN@?$CFs?2?$CF06u?2AreaProperty?4txt@ ; `string'
PUBLIC	??_C@_0L@PCFMFEAG@scripttype@			; `string'
PUBLIC	??_C@_08FLKAMJDN@areaname@			; `string'
PUBLIC	??_C@_0N@JAFNMPED@AreaProperty@			; `string'
PUBLIC	??_C@_0BD@OEBGBMHL@?$CFs?2?$CF06u?2height?4raw@	; `string'
PUBLIC	??_C@_0BB@KIEAEMGF@?$CFs?2?$CF06u?2tile?4raw@	; `string'
PUBLIC	??_C@_0BB@MGHNOCIE@?$CFs?2?$CF06u?2attr?4atr@	; `string'
PUBLIC	??_C@_0BC@COFDKBDG@?$CFs?2?$CF06u?2water?4wtr@	; `string'
PUBLIC	??_C@_0BG@JDDLCJKB@?$CFs?2?$CF06u?2shadowmap?4dds@ ; `string'
PUBLIC	??_C@_0BG@IEOOCGAN@?$CFs?2?$CF06u?2shadowmap?4raw@ ; `string'
PUBLIC	??_C@_0BE@OEFJKKPK@?$CFs?2?$CF06u?2minimap?4dds@ ; `string'
PUBLIC	??_C@_0EE@GJPDLMNG@TEMP_CAreaLoaderThread?3?3Process@ ; `string'
PUBLIC	??_C@_0BC@KBDMBKEH@deque?$DMT?$DO?5too?5long@	; `string'
PUBLIC	??_R4TEMP_CAreaLoaderThread@@6B@		; TEMP_CAreaLoaderThread::`RTTI Complete Object Locator'
PUBLIC	??_R0?AVTEMP_CAreaLoaderThread@@@8		; TEMP_CAreaLoaderThread `RTTI Type Descriptor'
PUBLIC	??_R3TEMP_CAreaLoaderThread@@8			; TEMP_CAreaLoaderThread::`RTTI Class Hierarchy Descriptor'
PUBLIC	??_R2TEMP_CAreaLoaderThread@@8			; TEMP_CAreaLoaderThread::`RTTI Base Class Array'
PUBLIC	??_R1A@?0A@EA@TEMP_CAreaLoaderThread@@8		; TEMP_CAreaLoaderThread::`RTTI Base Class Descriptor at (0,-1,0,64)'
EXTRN	??2@YAPAXI@Z:PROC				; operator new
EXTRN	??3@YAXPAXI@Z:PROC				; operator delete
EXTRN	__invalid_parameter_noinfo_noreturn:PROC
EXTRN	_memcmp:PROC
EXTRN	_memcpy:PROC
EXTRN	_memmove:PROC
EXTRN	_memset:PROC
EXTRN	_strlen:PROC
EXTRN	__imp__CloseHandle@4:PROC
EXTRN	__imp__ReleaseSemaphore@12:PROC
EXTRN	__imp__WaitForSingleObject@8:PROC
EXTRN	__imp__Sleep@4:PROC
EXTRN	__imp__SetThreadPriority@8:PROC
EXTRN	__imp__CreateSemaphoreA@16:PROC
EXTRN	___stdio_common_vsprintf:PROC
EXTRN	___std_exception_copy:PROC
EXTRN	___std_exception_destroy:PROC
EXTRN	??_Eexception@std@@UAEPAXI@Z:PROC		; std::exception::`vector deleting destructor'
EXTRN	??_Ebad_alloc@std@@UAEPAXI@Z:PROC		; std::bad_alloc::`vector deleting destructor'
EXTRN	??_Ebad_array_new_length@std@@UAEPAXI@Z:PROC	; std::bad_array_new_length::`vector deleting destructor'
EXTRN	?_Xlength_error@std@@YAXPBD@Z:PROC		; std::_Xlength_error
EXTRN	__beginthreadex:PROC
EXTRN	?Tracef@@YAXPBDZZ:PROC				; Tracef
EXTRN	?TraceError@@YAXPBDZZ:PROC			; TraceError
EXTRN	?ELTimer_GetMSec@@YAKXZ:PROC			; ELTimer_GetMSec
EXTRN	?LoadMultipleTextData@@YA_NPBDAAV?$map@V?$basic_string@DU?$char_traits@D@std@@V?$allocator@D@2@@std@@V?$vector@V?$basic_string@DU?$char_traits@D@std@@V?$allocator@D@2@@std@@V?$allocator@V?$basic_string@DU?$char_traits@D@std@@V?$allocator@D@2@@std@@@2@@2@U?$less@V?$basic_string@DU?$char_traits@D@std@@V?$allocator@D@2@@std@@@2@V?$allocator@U?$pair@$$CBV?$basic_string@DU?$char_traits@D@std@@V?$allocator@D@2@@std@@V?$vector@V?$basic_string@DU?$char_traits@D@std@@V?$allocator@D@2@@std@@V?$allocator@V?$basic_string@DU?$char_traits@D@std@@V?$allocator@D@2@@std@@@2@@2@@std@@@2@@std@@@Z:PROC ; LoadMultipleTextData
EXTRN	??0Mutex@@QAE@XZ:PROC				; Mutex::Mutex
EXTRN	??1Mutex@@QAE@XZ:PROC				; Mutex::~Mutex
EXTRN	?Lock@Mutex@@QAEXXZ:PROC			; Mutex::Lock
EXTRN	?Unlock@Mutex@@QAEXXZ:PROC			; Mutex::Unlock
EXTRN	??_ETEMP_CAreaLoaderThread@@UAEPAXI@Z:PROC	; TEMP_CAreaLoaderThread::`vector deleting destructor'
EXTRN	?LoadWaterMap@CTerrainImpl@@QAE_NPBD@Z:PROC	; CTerrainImpl::LoadWaterMap
EXTRN	?RAW_LoadTileMap@CTerrain@@QAE_NPBD_N@Z:PROC	; CTerrain::RAW_LoadTileMap
EXTRN	?LoadHeightMap@CTerrain@@QAE_NPBD@Z:PROC	; CTerrain::LoadHeightMap
EXTRN	?CalculateTerrainPatch@CTerrain@@QAEXXZ:PROC	; CTerrain::CalculateTerrainPatch
EXTRN	?CopySettingFromGlobalSetting@CTerrain@@QAEXXZ:PROC ; CTerrain::CopySettingFromGlobalSetting
EXTRN	?LoadAttrMap@CTerrain@@QAE_NPBD@Z:PROC		; CTerrain::LoadAttrMap
EXTRN	?LoadShadowTexture@CTerrain@@QAEXPBD@Z:PROC	; CTerrain::LoadShadowTexture
EXTRN	?LoadShadowMap@CTerrain@@QAE_NPBD@Z:PROC	; CTerrain::LoadShadowMap
EXTRN	?LoadMiniMapTexture@CTerrain@@QAEXPBD@Z:PROC	; CTerrain::LoadMiniMapTexture
EXTRN	?Load@CArea@@QAE_NPBD@Z:PROC			; CArea::Load
EXTRN	?GetCoordinate@CArea@@QAEXPAG0@Z:PROC		; CArea::GetCoordinate
EXTRN	@__security_check_cookie@4:PROC
EXTRN	__CxxThrowException@8:PROC
EXTRN	___CxxFrameHandler3:PROC
EXTRN	??_7type_info@@6B@:QWORD			; type_info::`vftable'
EXTRN	?g_iLoadingDelayTime@@3HA:DWORD			; g_iLoadingDelayTime
EXTRN	___security_cookie:DWORD
;	COMDAT ?_OptionsStorage@?1??__local_stdio_printf_options@@9@4_KA
_BSS	SEGMENT
?_OptionsStorage@?1??__local_stdio_printf_options@@9@4_KA DQ 01H DUP (?) ; `__local_stdio_printf_options'::`2'::_OptionsStorage
_BSS	ENDS
;	COMDAT ??_R1A@?0A@EA@TEMP_CAreaLoaderThread@@8
rdata$r	SEGMENT
??_R1A@?0A@EA@TEMP_CAreaLoaderThread@@8 DD FLAT:??_R0?AVTEMP_CAreaLoaderThread@@@8 ; TEMP_CAreaLoaderThread::`RTTI Base Class Descriptor at (0,-1,0,64)'
	DD	00H
	DD	00H
	DD	0ffffffffH
	DD	00H
	DD	040H
	DD	FLAT:??_R3TEMP_CAreaLoaderThread@@8
rdata$r	ENDS
;	COMDAT ??_R2TEMP_CAreaLoaderThread@@8
rdata$r	SEGMENT
??_R2TEMP_CAreaLoaderThread@@8 DD FLAT:??_R1A@?0A@EA@TEMP_CAreaLoaderThread@@8 ; TEMP_CAreaLoaderThread::`RTTI Base Class Array'
rdata$r	ENDS
;	COMDAT ??_R3TEMP_CAreaLoaderThread@@8
rdata$r	SEGMENT
??_R3TEMP_CAreaLoaderThread@@8 DD 00H			; TEMP_CAreaLoaderThread::`RTTI Class Hierarchy Descriptor'
	DD	00H
	DD	01H
	DD	FLAT:??_R2TEMP_CAreaLoaderThread@@8
rdata$r	ENDS
;	COMDAT ??_R0?AVTEMP_CAreaLoaderThread@@@8
data$rs	SEGMENT
??_R0?AVTEMP_CAreaLoaderThread@@@8 DD FLAT:??_7type_info@@6B@ ; TEMP_CAreaLoaderThread `RTTI Type Descriptor'
	DD	00H
	DB	'.?AVTEMP_CAreaLoaderThread@@', 00H
data$rs	ENDS
;	COMDAT ??_R4TEMP_CAreaLoaderThread@@6B@
rdata$r	SEGMENT
??_R4TEMP_CAreaLoaderThread@@6B@ DD 00H			; TEMP_CAreaLoaderThread::`RTTI Complete Object Locator'
	DD	00H
	DD	00H
	DD	FLAT:??_R0?AVTEMP_CAreaLoaderThread@@@8
	DD	FLAT:??_R3TEMP_CAreaLoaderThread@@8
rdata$r	ENDS
;	COMDAT ??_C@_0BC@KBDMBKEH@deque?$DMT?$DO?5too?5long@
CONST	SEGMENT
??_C@_0BC@KBDMBKEH@deque?$DMT?$DO?5too?5long@ DB 'deque<T> too long', 00H ; `string'
CONST	ENDS
;	COMDAT ??_C@_0EE@GJPDLMNG@TEMP_CAreaLoaderThread?3?3Process@
CONST	SEGMENT
??_C@_0EE@GJPDLMNG@TEMP_CAreaLoaderThread?3?3Process@ DB 'TEMP_CAreaLoade'
	DB	'rThread::ProcessTerrain LoadTerrain : %d ms elapsed', 0aH, 00H ; `string'
CONST	ENDS
;	COMDAT ??_C@_0BE@OEFJKKPK@?$CFs?2?$CF06u?2minimap?4dds@
CONST	SEGMENT
??_C@_0BE@OEFJKKPK@?$CFs?2?$CF06u?2minimap?4dds@ DB '%s\%06u\minimap.dds', 00H ; `string'
CONST	ENDS
;	COMDAT ??_C@_0BG@IEOOCGAN@?$CFs?2?$CF06u?2shadowmap?4raw@
CONST	SEGMENT
??_C@_0BG@IEOOCGAN@?$CFs?2?$CF06u?2shadowmap?4raw@ DB '%s\%06u\shadowmap.'
	DB	'raw', 00H					; `string'
CONST	ENDS
;	COMDAT ??_C@_0BG@JDDLCJKB@?$CFs?2?$CF06u?2shadowmap?4dds@
CONST	SEGMENT
??_C@_0BG@JDDLCJKB@?$CFs?2?$CF06u?2shadowmap?4dds@ DB '%s\%06u\shadowmap.'
	DB	'dds', 00H					; `string'
CONST	ENDS
;	COMDAT ??_C@_0BC@COFDKBDG@?$CFs?2?$CF06u?2water?4wtr@
CONST	SEGMENT
??_C@_0BC@COFDKBDG@?$CFs?2?$CF06u?2water?4wtr@ DB '%s\%06u\water.wtr', 00H ; `string'
CONST	ENDS
;	COMDAT ??_C@_0BB@MGHNOCIE@?$CFs?2?$CF06u?2attr?4atr@
CONST	SEGMENT
??_C@_0BB@MGHNOCIE@?$CFs?2?$CF06u?2attr?4atr@ DB '%s\%06u\attr.atr', 00H ; `string'
CONST	ENDS
;	COMDAT ??_C@_0BB@KIEAEMGF@?$CFs?2?$CF06u?2tile?4raw@
CONST	SEGMENT
??_C@_0BB@KIEAEMGF@?$CFs?2?$CF06u?2tile?4raw@ DB '%s\%06u\tile.raw', 00H ; `string'
CONST	ENDS
;	COMDAT ??_C@_0BD@OEBGBMHL@?$CFs?2?$CF06u?2height?4raw@
CONST	SEGMENT
??_C@_0BD@OEBGBMHL@?$CFs?2?$CF06u?2height?4raw@ DB '%s\%06u\height.raw', 00H ; `string'
CONST	ENDS
;	COMDAT ??_C@_0N@JAFNMPED@AreaProperty@
CONST	SEGMENT
??_C@_0N@JAFNMPED@AreaProperty@ DB 'AreaProperty', 00H	; `string'
CONST	ENDS
;	COMDAT ??_C@_08FLKAMJDN@areaname@
CONST	SEGMENT
??_C@_08FLKAMJDN@areaname@ DB 'areaname', 00H		; `string'
CONST	ENDS
;	COMDAT ??_C@_0L@PCFMFEAG@scripttype@
CONST	SEGMENT
??_C@_0L@PCFMFEAG@scripttype@ DB 'scripttype', 00H	; `string'
CONST	ENDS
;	COMDAT ??_C@_0BJ@PNPPDMHN@?$CFs?2?$CF06u?2AreaProperty?4txt@
CONST	SEGMENT
??_C@_0BJ@PNPPDMHN@?$CFs?2?$CF06u?2AreaProperty?4txt@ DB '%s\%06u\AreaPro'
	DB	'perty.txt', 00H				; `string'
CONST	ENDS
;	COMDAT ??_C@_0EB@FFIMHONH@TEMP_CAreaLoaderThread?3?3Process@
CONST	SEGMENT
??_C@_0EB@FFIMHONH@TEMP_CAreaLoaderThread?3?3Process@ DB 'TEMP_CAreaLoade'
	DB	'rThread::ProcessTerrain() RequestDeque Size : %d', 0aH, 00H ; `string'
CONST	ENDS
;	COMDAT ??_C@_0DO@IKNACHFC@TEMP_CAreaLoaderThread?3?3Process@
CONST	SEGMENT
??_C@_0DO@IKNACHFC@TEMP_CAreaLoaderThread?3?3Process@ DB 'TEMP_CAreaLoade'
	DB	'rThread::ProcessArea LoadArea : %d ms elapsed', 0aH, 00H ; `string'
CONST	ENDS
;	COMDAT ??_C@_08HAAOAKJA@?$CFs?2?$CF06u?2@
CONST	SEGMENT
??_C@_08HAAOAKJA@?$CFs?2?$CF06u?2@ DB '%s\%06u\', 00H	; `string'
CONST	ENDS
;	COMDAT ??_C@_0DO@MFBBOCDC@TEMP_CAreaLoaderThread?3?3Process@
CONST	SEGMENT
??_C@_0DO@MFBBOCDC@TEMP_CAreaLoaderThread?3?3Process@ DB 'TEMP_CAreaLoade'
	DB	'rThread::ProcessArea() RequestDeque Size : %d', 0aH, 00H ; `string'
CONST	ENDS
;	COMDAT ??_C@_0DI@ILGIOFFC@TEMP_CAreaLoaderThread?3?3Request@
CONST	SEGMENT
??_C@_0DI@ILGIOFFC@TEMP_CAreaLoaderThread?3?3Request@ DB 'TEMP_CAreaLoade'
	DB	'rThread::Request: ReleaseSemaphore error', 00H ; `string'
CONST	ENDS
;	COMDAT ??_C@_0FE@BAIIJAJL@TEMP_CAreaLoaderThread?3?3Execute@
CONST	SEGMENT
??_C@_0FE@BAIIJAJL@TEMP_CAreaLoaderThread?3?3Execute@ DB 'TEMP_CAreaLoade'
	DB	'rThread::Execute: Timeout occured while time-out interval is '
	DB	'INIFITE', 00H				; `string'
CONST	ENDS
;	COMDAT ??_7TEMP_CAreaLoaderThread@@6B@
CONST	SEGMENT
??_7TEMP_CAreaLoaderThread@@6B@ DD FLAT:??_R4TEMP_CAreaLoaderThread@@6B@ ; TEMP_CAreaLoaderThread::`vftable'
	DD	FLAT:??_ETEMP_CAreaLoaderThread@@UAEPAXI@Z
CONST	ENDS
;	COMDAT ??_R1A@?0A@EA@bad_array_new_length@std@@8
rdata$r	SEGMENT
??_R1A@?0A@EA@bad_array_new_length@std@@8 DD FLAT:??_R0?AVbad_array_new_length@std@@@8 ; std::bad_array_new_length::`RTTI Base Class Descriptor at (0,-1,0,64)'
	DD	02H
	DD	00H
	DD	0ffffffffH
	DD	00H
	DD	040H
	DD	FLAT:??_R3bad_array_new_length@std@@8
rdata$r	ENDS
;	COMDAT ??_R2bad_array_new_length@std@@8
rdata$r	SEGMENT
??_R2bad_array_new_length@std@@8 DD FLAT:??_R1A@?0A@EA@bad_array_new_length@std@@8 ; std::bad_array_new_length::`RTTI Base Class Array'
	DD	FLAT:??_R1A@?0A@EA@bad_alloc@std@@8
	DD	FLAT:??_R1A@?0A@EA@exception@std@@8
rdata$r	ENDS
;	COMDAT ??_R3bad_array_new_length@std@@8
rdata$r	SEGMENT
??_R3bad_array_new_length@std@@8 DD 00H			; std::bad_array_new_length::`RTTI Class Hierarchy Descriptor'
	DD	00H
	DD	03H
	DD	FLAT:??_R2bad_array_new_length@std@@8
rdata$r	ENDS
;	COMDAT ??_R4bad_array_new_length@std@@6B@
rdata$r	SEGMENT
??_R4bad_array_new_length@std@@6B@ DD 00H		; std::bad_array_new_length::`RTTI Complete Object Locator'
	DD	00H
	DD	00H
	DD	FLAT:??_R0?AVbad_array_new_length@std@@@8
	DD	FLAT:??_R3bad_array_new_length@std@@8
rdata$r	ENDS
;	COMDAT ??_R1A@?0A@EA@bad_alloc@std@@8
rdata$r	SEGMENT
??_R1A@?0A@EA@bad_alloc@std@@8 DD FLAT:??_R0?AVbad_alloc@std@@@8 ; std::bad_alloc::`RTTI Base Class Descriptor at (0,-1,0,64)'
	DD	01H
	DD	00H
	DD	0ffffffffH
	DD	00H
	DD	040H
	DD	FLAT:??_R3bad_alloc@std@@8
rdata$r	ENDS
;	COMDAT ??_R2bad_alloc@std@@8
rdata$r	SEGMENT
??_R2bad_alloc@std@@8 DD FLAT:??_R1A@?0A@EA@bad_alloc@std@@8 ; std::bad_alloc::`RTTI Base Class Array'
	DD	FLAT:??_R1A@?0A@EA@exception@std@@8
rdata$r	ENDS
;	COMDAT ??_R3bad_alloc@std@@8
rdata$r	SEGMENT
??_R3bad_alloc@std@@8 DD 00H				; std::bad_alloc::`RTTI Class Hierarchy Descriptor'
	DD	00H
	DD	02H
	DD	FLAT:??_R2bad_alloc@std@@8
rdata$r	ENDS
;	COMDAT ??_R4bad_alloc@std@@6B@
rdata$r	SEGMENT
??_R4bad_alloc@std@@6B@ DD 00H				; std::bad_alloc::`RTTI Complete Object Locator'
	DD	00H
	DD	00H
	DD	FLAT:??_R0?AVbad_alloc@std@@@8
	DD	FLAT:??_R3bad_alloc@std@@8
rdata$r	ENDS
;	COMDAT ??_R1A@?0A@EA@exception@std@@8
rdata$r	SEGMENT
??_R1A@?0A@EA@exception@std@@8 DD FLAT:??_R0?AVexception@std@@@8 ; std::exception::`RTTI Base Class Descriptor at (0,-1,0,64)'
	DD	00H
	DD	00H
	DD	0ffffffffH
	DD	00H
	DD	040H
	DD	FLAT:??_R3exception@std@@8
rdata$r	ENDS
;	COMDAT ??_R2exception@std@@8
rdata$r	SEGMENT
??_R2exception@std@@8 DD FLAT:??_R1A@?0A@EA@exception@std@@8 ; std::exception::`RTTI Base Class Array'
rdata$r	ENDS
;	COMDAT ??_R3exception@std@@8
rdata$r	SEGMENT
??_R3exception@std@@8 DD 00H				; std::exception::`RTTI Class Hierarchy Descriptor'
	DD	00H
	DD	01H
	DD	FLAT:??_R2exception@std@@8
rdata$r	ENDS
;	COMDAT ??_R4exception@std@@6B@
rdata$r	SEGMENT
??_R4exception@std@@6B@ DD 00H				; std::exception::`RTTI Complete Object Locator'
	DD	00H
	DD	00H
	DD	FLAT:??_R0?AVexception@std@@@8
	DD	FLAT:??_R3exception@std@@8
rdata$r	ENDS
;	COMDAT ??_C@_0BB@GCADKGJO@map?1set?5too?5long@
CONST	SEGMENT
??_C@_0BB@GCADKGJO@map?1set?5too?5long@ DB 'map/set too long', 00H ; `string'
CONST	ENDS
;	COMDAT ??_C@_0BA@JFNIOLAK@string?5too?5long@
CONST	SEGMENT
??_C@_0BA@JFNIOLAK@string?5too?5long@ DB 'string too long', 00H ; `string'
CONST	ENDS
;	COMDAT __CT??_R0?AVexception@std@@@8??0exception@std@@QAE@ABV01@@Z12
xdata$x	SEGMENT
__CT??_R0?AVexception@std@@@8??0exception@std@@QAE@ABV01@@Z12 DD 00H
	DD	FLAT:??_R0?AVexception@std@@@8
	DD	00H
	DD	0ffffffffH
	ORG $+4
	DD	0cH
	DD	FLAT:??0exception@std@@QAE@ABV01@@Z
xdata$x	ENDS
;	COMDAT ??_R0?AVexception@std@@@8
data$r	SEGMENT
??_R0?AVexception@std@@@8 DD FLAT:??_7type_info@@6B@	; std::exception `RTTI Type Descriptor'
	DD	00H
	DB	'.?AVexception@std@@', 00H
data$r	ENDS
;	COMDAT __CT??_R0?AVbad_alloc@std@@@8??0bad_alloc@std@@QAE@ABV01@@Z12
xdata$x	SEGMENT
__CT??_R0?AVbad_alloc@std@@@8??0bad_alloc@std@@QAE@ABV01@@Z12 DD 010H
	DD	FLAT:??_R0?AVbad_alloc@std@@@8
	DD	00H
	DD	0ffffffffH
	ORG $+4
	DD	0cH
	DD	FLAT:??0bad_alloc@std@@QAE@ABV01@@Z
xdata$x	ENDS
;	COMDAT ??_R0?AVbad_alloc@std@@@8
data$r	SEGMENT
??_R0?AVbad_alloc@std@@@8 DD FLAT:??_7type_info@@6B@	; std::bad_alloc `RTTI Type Descriptor'
	DD	00H
	DB	'.?AVbad_alloc@std@@', 00H
data$r	ENDS
;	COMDAT __CT??_R0?AVbad_array_new_length@std@@@8??0bad_array_new_length@std@@QAE@ABV01@@Z12
xdata$x	SEGMENT
__CT??_R0?AVbad_array_new_length@std@@@8??0bad_array_new_length@std@@QAE@ABV01@@Z12 DD 00H
	DD	FLAT:??_R0?AVbad_array_new_length@std@@@8
	DD	00H
	DD	0ffffffffH
	ORG $+4
	DD	0cH
	DD	FLAT:??0bad_array_new_length@std@@QAE@ABV01@@Z
xdata$x	ENDS
;	COMDAT ??_R0?AVbad_array_new_length@std@@@8
data$r	SEGMENT
??_R0?AVbad_array_new_length@std@@@8 DD FLAT:??_7type_info@@6B@ ; std::bad_array_new_length `RTTI Type Descriptor'
	DD	00H
	DB	'.?AVbad_array_new_length@std@@', 00H
data$r	ENDS
;	COMDAT __CTA3?AVbad_array_new_length@std@@
xdata$x	SEGMENT
__CTA3?AVbad_array_new_length@std@@ DD 03H
	DD	FLAT:__CT??_R0?AVbad_array_new_length@std@@@8??0bad_array_new_length@std@@QAE@ABV01@@Z12
	DD	FLAT:__CT??_R0?AVbad_alloc@std@@@8??0bad_alloc@std@@QAE@ABV01@@Z12
	DD	FLAT:__CT??_R0?AVexception@std@@@8??0exception@std@@QAE@ABV01@@Z12
xdata$x	ENDS
;	COMDAT __TI3?AVbad_array_new_length@std@@
xdata$x	SEGMENT
__TI3?AVbad_array_new_length@std@@ DD 00H
	DD	FLAT:??1bad_array_new_length@std@@UAE@XZ
	DD	00H
	DD	FLAT:__CTA3?AVbad_array_new_length@std@@
xdata$x	ENDS
;	COMDAT ??_C@_0BF@KINCDENJ@bad?5array?5new?5length@
CONST	SEGMENT
??_C@_0BF@KINCDENJ@bad?5array?5new?5length@ DB 'bad array new length', 00H ; `string'
CONST	ENDS
;	COMDAT ??_7bad_array_new_length@std@@6B@
CONST	SEGMENT
??_7bad_array_new_length@std@@6B@ DD FLAT:??_R4bad_array_new_length@std@@6B@ ; std::bad_array_new_length::`vftable'
	DD	FLAT:??_Ebad_array_new_length@std@@UAEPAXI@Z
	DD	FLAT:?what@exception@std@@UBEPBDXZ
CONST	ENDS
;	COMDAT ??_7bad_alloc@std@@6B@
CONST	SEGMENT
??_7bad_alloc@std@@6B@ DD FLAT:??_R4bad_alloc@std@@6B@	; std::bad_alloc::`vftable'
	DD	FLAT:??_Ebad_alloc@std@@UAEPAXI@Z
	DD	FLAT:?what@exception@std@@UBEPBDXZ
CONST	ENDS
;	COMDAT ??_C@_0BC@EOODALEL@Unknown?5exception@
CONST	SEGMENT
??_C@_0BC@EOODALEL@Unknown?5exception@ DB 'Unknown exception', 00H ; `string'
CONST	ENDS
;	COMDAT ??_7exception@std@@6B@
CONST	SEGMENT
??_7exception@std@@6B@ DD FLAT:??_R4exception@std@@6B@	; std::exception::`vftable'
	DD	FLAT:??_Eexception@std@@UAEPAXI@Z
	DD	FLAT:?what@exception@std@@UBEPBDXZ
CONST	ENDS
;	COMDAT xdata$x
xdata$x	SEGMENT
__unwindtable$??$?0ABUpiecewise_construct_t@std@@V?$tuple@$$QAV?$basic_string@DU?$char_traits@D@std@@V?$allocator@D@2@@std@@@1@V?$tuple@$$V@1@@?$_Tree_temp_node@V?$allocator@U?$_Tree_node@U?$pair@$$CBV?$basic_string@DU?$char_traits@D@std@@V?$allocator@D@2@@std@@V?$vector@V?$basic_string@DU?$char_traits@D@std@@V?$allocator@D@2@@std@@V?$allocator@V?$basic_string@DU?$char_traits@D@std@@V?$allocator@D@2@@std@@@2@@2@@std@@PAX@std@@@std@@@std@@QAE@AAV?$allocator@U?$_Tree_node@U?$pair@$$CBV?$basic_string@DU?$char_traits@D@std@@V?$allocator@D@2@@std@@V?$vector@V?$basic_string@DU?$char_traits@D@std@@V?$allocator@D@2@@std@@V?$allocator@V?$basic_string@DU?$char_traits@D@std@@V?$allocator@D@2@@std@@@2@@2@@std@@PAX@std@@@1@PAU?$_Tree_node@U?$pair@$$CBV?$basic_string@DU?$char_traits@D@std@@V?$allocator@D@2@@std@@V?$vector@V?$basic_string@DU?$char_traits@D@std@@V?$allocator@D@2@@std@@V?$allocator@V?$basic_string@DU?$char_traits@D@std@@V?$allocator@D@2@@std@@@2@@2@@std@@PAX@1@ABUpiecewise_construct_t@1@$$QAV?$tuple@$$QAV?$basic_string@DU?$char_traits@D@std@@V?$allocator@D@2@@std@@@1@$$QAV?$tuple@$$V@1@@Z DD 0ffffffffH
	DD	FLAT:__unwindfunclet$??$?0ABUpiecewise_construct_t@std@@V?$tuple@$$QAV?$basic_string@DU?$char_traits@D@std@@V?$allocator@D@2@@std@@@1@V?$tuple@$$V@1@@?$_Tree_temp_node@V?$allocator@U?$_Tree_node@U?$pair@$$CBV?$basic_string@DU?$char_traits@D@std@@V?$allocator@D@2@@std@@V?$vector@V?$basic_string@DU?$char_traits@D@std@@V?$allocator@D@2@@std@@V?$allocator@V?$basic_string@DU?$char_traits@D@std@@V?$allocator@D@2@@std@@@2@@2@@std@@PAX@std@@@std@@@std@@QAE@AAV?$allocator@U?$_Tree_node@U?$pair@$$CBV?$basic_string@DU?$char_traits@D@std@@V?$allocator@D@2@@std@@V?$vector@V?$basic_string@DU?$char_traits@D@std@@V?$allocator@D@2@@std@@V?$allocator@V?$basic_string@DU?$char_traits@D@std@@V?$allocator@D@2@@std@@@2@@2@@std@@PAX@std@@@1@PAU?$_Tree_node@U?$pair@$$CBV?$basic_string@DU?$char_traits@D@std@@V?$allocator@D@2@@std@@V?$vector@V?$basic_string@DU?$char_traits@D@std@@V?$allocator@D@2@@std@@V?$allocator@V?$basic_string@DU?$char_traits@D@std@@V?$allocator@D@2@@std@@@2@@2@@std@@PAX@1@ABUpiecewise_construct_t@1@$$QAV?$tuple@$$QAV?$basic_string@DU?$char_traits@D@std@@V?$allocator@D@2@@std@@@1@$$QAV?$tuple@$$V@1@@Z$1
	DD	0ffffffffH
	DD	FLAT:__unwindfunclet$??$?0ABUpiecewise_construct_t@std@@V?$tuple@$$QAV?$basic_string@DU?$char_traits@D@std@@V?$allocator@D@2@@std@@@1@V?$tuple@$$V@1@@?$_Tree_temp_node@V?$allocator@U?$_Tree_node@U?$pair@$$CBV?$basic_string@DU?$char_traits@D@std@@V?$allocator@D@2@@std@@V?$vector@V?$basic_string@DU?$char_traits@D@std@@V?$allocator@D@2@@std@@V?$allocator@V?$basic_string@DU?$char_traits@D@std@@V?$allocator@D@2@@std@@@2@@2@@std@@PAX@std@@@std@@@std@@QAE@AAV?$allocator@U?$_Tree_node@U?$pair@$$CBV?$basic_string@DU?$char_traits@D@std@@V?$allocator@D@2@@std@@V?$vector@V?$basic_string@DU?$char_traits@D@std@@V?$allocator@D@2@@std@@V?$allocator@V?$basic_string@DU?$char_traits@D@std@@V?$allocator@D@2@@std@@@2@@2@@std@@PAX@std@@@1@PAU?$_Tree_node@U?$pair@$$CBV?$basic_string@DU?$char_traits@D@std@@V?$allocator@D@2@@std@@V?$vector@V?$basic_string@DU?$char_traits@D@std@@V?$allocator@D@2@@std@@V?$allocator@V?$basic_string@DU?$char_traits@D@std@@V?$allocator@D@2@@std@@@2@@2@@std@@PAX@1@ABUpiecewise_construct_t@1@$$QAV?$tuple@$$QAV?$basic_string@DU?$char_traits@D@std@@V?$allocator@D@2@@std@@@1@$$QAV?$tuple@$$V@1@@Z$0
__ehfuncinfo$??$?0ABUpiecewise_construct_t@std@@V?$tuple@$$QAV?$basic_string@DU?$char_traits@D@std@@V?$allocator@D@2@@std@@@1@V?$tuple@$$V@1@@?$_Tree_temp_node@V?$allocator@U?$_Tree_node@U?$pair@$$CBV?$basic_string@DU?$char_traits@D@std@@V?$allocator@D@2@@std@@V?$vector@V?$basic_string@DU?$char_traits@D@std@@V?$allocator@D@2@@std@@V?$allocator@V?$basic_string@DU?$char_traits@D@std@@V?$allocator@D@2@@std@@@2@@2@@std@@PAX@std@@@std@@@std@@QAE@AAV?$allocator@U?$_Tree_node@U?$pair@$$CBV?$basic_string@DU?$char_traits@D@std@@V?$allocator@D@2@@std@@V?$vector@V?$basic_string@DU?$char_traits@D@std@@V?$allocator@D@2@@std@@V?$allocator@V?$basic_string@DU?$char_traits@D@std@@V?$allocator@D@2@@std@@@2@@2@@std@@PAX@std@@@1@PAU?$_Tree_node@U?$pair@$$CBV?$basic_string@DU?$char_traits@D@std@@V?$allocator@D@2@@std@@V?$vector@V?$basic_string@DU?$char_traits@D@std@@V?$allocator@D@2@@std@@V?$allocator@V?$basic_string@DU?$char_traits@D@std@@V?$allocator@D@2@@std@@@2@@2@@std@@PAX@1@ABUpiecewise_construct_t@1@$$QAV?$tuple@$$QAV?$basic_string@DU?$char_traits@D@std@@V?$allocator@D@2@@std@@@1@$$QAV?$tuple@$$V@1@@Z DD 019930522H
	DD	02H
	DD	FLAT:__unwindtable$??$?0ABUpiecewise_construct_t@std@@V?$tuple@$$QAV?$basic_string@DU?$char_traits@D@std@@V?$allocator@D@2@@std@@@1@V?$tuple@$$V@1@@?$_Tree_temp_node@V?$allocator@U?$_Tree_node@U?$pair@$$CBV?$basic_string@DU?$char_traits@D@std@@V?$allocator@D@2@@std@@V?$vector@V?$basic_string@DU?$char_traits@D@std@@V?$allocator@D@2@@std@@V?$allocator@V?$basic_string@DU?$char_traits@D@std@@V?$allocator@D@2@@std@@@2@@2@@std@@PAX@std@@@std@@@std@@QAE@AAV?$allocator@U?$_Tree_node@U?$pair@$$CBV?$basic_string@DU?$char_traits@D@std@@V?$allocator@D@2@@std@@V?$vector@V?$basic_string@DU?$char_traits@D@std@@V?$allocator@D@2@@std@@V?$allocator@V?$basic_string@DU?$char_traits@D@std@@V?$allocator@D@2@@std@@@2@@2@@std@@PAX@std@@@1@PAU?$_Tree_node@U?$pair@$$CBV?$basic_string@DU?$char_traits@D@std@@V?$allocator@D@2@@std@@V?$vector@V?$basic_string@DU?$char_traits@D@std@@V?$allocator@D@2@@std@@V?$allocator@V?$basic_string@DU?$char_traits@D@std@@V?$allocator@D@2@@std@@@2@@2@@std@@PAX@1@ABUpiecewise_construct_t@1@$$QAV?$tuple@$$QAV?$basic_string@DU?$char_traits@D@std@@V?$allocator@D@2@@std@@@1@$$QAV?$tuple@$$V@1@@Z
	DD	2 DUP(00H)
	DD	2 DUP(00H)
	DD	00H
	DD	01H
xdata$x	ENDS
;	COMDAT xdata$x
xdata$x	SEGMENT
__unwindtable$?SetName@CTerrain@@QAEXV?$basic_string@DU?$char_traits@D@std@@V?$allocator@D@2@@std@@@Z DD 0ffffffffH
	DD	FLAT:__unwindfunclet$?SetName@CTerrain@@QAEXV?$basic_string@DU?$char_traits@D@std@@V?$allocator@D@2@@std@@@Z$0
__ehfuncinfo$?SetName@CTerrain@@QAEXV?$basic_string@DU?$char_traits@D@std@@V?$allocator@D@2@@std@@@Z DD 019930522H
	DD	01H
	DD	FLAT:__unwindtable$?SetName@CTerrain@@QAEXV?$basic_string@DU?$char_traits@D@std@@V?$allocator@D@2@@std@@@Z
	DD	2 DUP(00H)
	DD	2 DUP(00H)
	DD	00H
	DD	01H
xdata$x	ENDS
;	COMDAT xdata$x
xdata$x	SEGMENT
__ehfuncinfo$?ProcessTerrain@TEMP_CAreaLoaderThread@@IAEXXZ DD 019930522H
	DD	05H
	DD	FLAT:__unwindtable$?ProcessTerrain@TEMP_CAreaLoaderThread@@IAEXXZ
	DD	2 DUP(00H)
	DD	2 DUP(00H)
	DD	00H
	DD	01H
__unwindtable$?ProcessTerrain@TEMP_CAreaLoaderThread@@IAEXXZ DD 0ffffffffH
	DD	FLAT:__unwindfunclet$?ProcessTerrain@TEMP_CAreaLoaderThread@@IAEXXZ$0
	DD	00H
	DD	FLAT:__unwindfunclet$?ProcessTerrain@TEMP_CAreaLoaderThread@@IAEXXZ$1
	DD	00H
	DD	FLAT:__unwindfunclet$?ProcessTerrain@TEMP_CAreaLoaderThread@@IAEXXZ$2
	DD	00H
	DD	FLAT:__unwindfunclet$?ProcessTerrain@TEMP_CAreaLoaderThread@@IAEXXZ$3
	DD	00H
	DD	FLAT:__unwindfunclet$?ProcessTerrain@TEMP_CAreaLoaderThread@@IAEXXZ$4
xdata$x	ENDS
;	COMDAT xdata$x
xdata$x	SEGMENT
__ehfuncinfo$??1TEMP_CAreaLoaderThread@@UAE@XZ DD 019930522H
	DD	00H
	DD	00H
	DD	2 DUP(00H)
	DD	2 DUP(00H)
	DD	00H
	DD	05H
xdata$x	ENDS
;	COMDAT xdata$x
xdata$x	SEGMENT
__ehfuncinfo$??0TEMP_CAreaLoaderThread@@QAE@XZ DD 019930522H
	DD	07H
	DD	FLAT:__unwindtable$??0TEMP_CAreaLoaderThread@@QAE@XZ
	DD	2 DUP(00H)
	DD	2 DUP(00H)
	DD	00H
	DD	01H
__unwindtable$??0TEMP_CAreaLoaderThread@@QAE@XZ DD 0ffffffffH
	DD	FLAT:__unwindfunclet$??0TEMP_CAreaLoaderThread@@QAE@XZ$0
	DD	00H
	DD	FLAT:__unwindfunclet$??0TEMP_CAreaLoaderThread@@QAE@XZ$1
	DD	01H
	DD	FLAT:__unwindfunclet$??0TEMP_CAreaLoaderThread@@QAE@XZ$2
	DD	02H
	DD	FLAT:__unwindfunclet$??0TEMP_CAreaLoaderThread@@QAE@XZ$3
	DD	03H
	DD	FLAT:__unwindfunclet$??0TEMP_CAreaLoaderThread@@QAE@XZ$4
	DD	04H
	DD	FLAT:__unwindfunclet$??0TEMP_CAreaLoaderThread@@QAE@XZ$5
	DD	05H
	DD	FLAT:__unwindfunclet$??0TEMP_CAreaLoaderThread@@QAE@XZ$6
xdata$x	ENDS
;	COMDAT xdata$x
xdata$x	SEGMENT
__ehfuncinfo$??$_Deallocate@$07$0A@@std@@YAXPAXI@Z DD 019930522H
	DD	00H
	DD	00H
	DD	2 DUP(00H)
	DD	2 DUP(00H)
	DD	00H
	DD	05H
xdata$x	ENDS
;	COMDAT xdata$x
xdata$x	SEGMENT
__unwindtable$??0?$basic_string@DU?$char_traits@D@std@@V?$allocator@D@2@@std@@QAE@QBD@Z DD 0ffffffffH
	DD	FLAT:__unwindfunclet$??0?$basic_string@DU?$char_traits@D@std@@V?$allocator@D@2@@std@@QAE@QBD@Z$0
__ehfuncinfo$??0?$basic_string@DU?$char_traits@D@std@@V?$allocator@D@2@@std@@QAE@QBD@Z DD 019930522H
	DD	01H
	DD	FLAT:__unwindtable$??0?$basic_string@DU?$char_traits@D@std@@V?$allocator@D@2@@std@@QAE@QBD@Z
	DD	2 DUP(00H)
	DD	2 DUP(00H)
	DD	00H
	DD	01H
xdata$x	ENDS
; Function compile flags: /Odspy
; File C:\Program Files (x86)\Microsoft Visual Studio\2019\Community\VC\Tools\MSVC\14.28.29333\include\tuple
; File C:\Program Files (x86)\Microsoft Visual Studio\2019\Community\VC\Tools\MSVC\14.28.29333\include\type_traits
; File C:\Program Files (x86)\Microsoft Visual Studio\2019\Community\VC\Tools\MSVC\14.28.29333\include\tuple
; File C:\Program Files (x86)\Microsoft Visual Studio\2019\Community\VC\Tools\MSVC\14.28.29333\include\vector
; File C:\Program Files (x86)\Microsoft Visual Studio\2019\Community\VC\Tools\MSVC\14.28.29333\include\xmemory
; File C:\Program Files (x86)\Microsoft Visual Studio\2019\Community\VC\Tools\MSVC\14.28.29333\include\vector
; File C:\Program Files (x86)\Microsoft Visual Studio\2019\Community\VC\Tools\MSVC\14.28.29333\include\tuple
;	COMDAT ??$?0$$QAV?$basic_string@DU?$char_traits@D@std@@V?$allocator@D@2@@std@@$$Z$$V@?$pair@$$CBV?$basic_string@DU?$char_traits@D@std@@V?$allocator@D@2@@std@@V?$vector@V?$basic_string@DU?$char_traits@D@std@@V?$allocator@D@2@@std@@V?$allocator@V?$basic_string@DU?$char_traits@D@std@@V?$allocator@D@2@@std@@@2@@2@@std@@QAE@Upiecewise_construct_t@1@V?$tuple@$$QAV?$basic_string@DU?$char_traits@D@std@@V?$allocator@D@2@@std@@@1@V?$tuple@$$V@1@@Z
_TEXT	SEGMENT
_this$1 = -36						; size = 4
_this$ = -32						; size = 4
$T2 = -28						; size = 4
$T3 = -24						; size = 4
_this$ = -20						; size = 4
_this$4 = -16						; size = 4
___formal$ = -12					; size = 1
___formal$ = -8						; size = 1
$T5 = -2						; size = 1
$T6 = -1						; size = 1
___formal$ = 8						; size = 1
__Val1$ = 12						; size = 4
__Val2$ = 16						; size = 1
??$?0$$QAV?$basic_string@DU?$char_traits@D@std@@V?$allocator@D@2@@std@@$$Z$$V@?$pair@$$CBV?$basic_string@DU?$char_traits@D@std@@V?$allocator@D@2@@std@@V?$vector@V?$basic_string@DU?$char_traits@D@std@@V?$allocator@D@2@@std@@V?$allocator@V?$basic_string@DU?$char_traits@D@std@@V?$allocator@D@2@@std@@@2@@2@@std@@QAE@Upiecewise_construct_t@1@V?$tuple@$$QAV?$basic_string@DU?$char_traits@D@std@@V?$allocator@D@2@@std@@@1@V?$tuple@$$V@1@@Z PROC ; std::pair<std::basic_string<char,std::char_traits<char>,std::allocator<char> > const ,std::vector<std::basic_string<char,std::char_traits<char>,std::allocator<char> >,std::allocator<std::basic_string<char,std::char_traits<char>,std::allocator<char> > > > >::pair<std::basic_string<char,std::char_traits<char>,std::allocator<char> > const ,std::vector<std::basic_string<char,std::char_traits<char>,std::allocator<char> >,std::allocator<std::basic_string<char,std::char_traits<char>,std::allocator<char> > > > ><std::basic_string<char,std::char_traits<char>,std::allocator<char> > &&>, COMDAT
; _this$ = ecx

; 986  :     : pair(_Val1, _Val2, index_sequence_for<_Types1...>{}, index_sequence_for<_Types2...>{}) {}

  00000	55		 push	 ebp
  00001	8b ec		 mov	 ebp, esp
  00003	83 ec 24	 sub	 esp, 36			; 00000024H
  00006	89 4d ec	 mov	 DWORD PTR _this$[ebp], ecx
  00009	33 c0		 xor	 eax, eax
  0000b	88 45 ff	 mov	 BYTE PTR $T6[ebp], al
  0000e	33 c0		 xor	 eax, eax
  00010	88 45 fe	 mov	 BYTE PTR $T5[ebp], al
  00013	8a 45 ff	 mov	 al, BYTE PTR $T6[ebp]
  00016	88 45 f8	 mov	 BYTE PTR ___formal$[ebp], al
  00019	8a 45 fe	 mov	 al, BYTE PTR $T5[ebp]
  0001c	88 45 f4	 mov	 BYTE PTR ___formal$[ebp], al
; File C:\Program Files (x86)\Microsoft Visual Studio\2019\Community\VC\Tools\MSVC\14.28.29333\include\type_traits

; 1455 :     return static_cast<remove_reference_t<_Ty>&&>(_Arg);

  0001f	8d 45 0c	 lea	 eax, DWORD PTR __Val1$[ebp]
  00022	89 45 e8	 mov	 DWORD PTR $T3[ebp], eax
; File C:\Program Files (x86)\Microsoft Visual Studio\2019\Community\VC\Tools\MSVC\14.28.29333\include\tuple

; 790  :     return static_cast<_Ty&&>(static_cast<_Ttype&>(_Tuple)._Myfirst._Val);

  00025	8b 45 e8	 mov	 eax, DWORD PTR $T3[ebp]
  00028	8b 00		 mov	 eax, DWORD PTR [eax]
  0002a	89 45 e4	 mov	 DWORD PTR $T2[ebp], eax

; 980  :     : first(_STD get<_Indexes1>(_STD move(_Val1))...), second(_STD get<_Indexes2>(_STD move(_Val2))...) {}

  0002d	ff 75 e4	 push	 DWORD PTR $T2[ebp]
  00030	8b 4d ec	 mov	 ecx, DWORD PTR _this$[ebp]
  00033	e8 00 00 00 00	 call	 ??0?$basic_string@DU?$char_traits@D@std@@V?$allocator@D@2@@std@@QAE@$$QAV01@@Z ; std::basic_string<char,std::char_traits<char>,std::allocator<char> >::basic_string<char,std::char_traits<char>,std::allocator<char> >
  00038	8b 45 ec	 mov	 eax, DWORD PTR _this$[ebp]
  0003b	83 c0 18	 add	 eax, 24			; 00000018H
  0003e	89 45 e0	 mov	 DWORD PTR _this$[ebp], eax
; File C:\Program Files (x86)\Microsoft Visual Studio\2019\Community\VC\Tools\MSVC\14.28.29333\include\vector

; 445  :     vector() noexcept(is_nothrow_default_constructible_v<_Alty>) : _Mypair(_Zero_then_variadic_args_t{}) {

  00041	8b 45 e0	 mov	 eax, DWORD PTR _this$[ebp]
  00044	89 45 dc	 mov	 DWORD PTR _this$1[ebp], eax
; File C:\Program Files (x86)\Microsoft Visual Studio\2019\Community\VC\Tools\MSVC\14.28.29333\include\xmemory

; 1339 :         : _Ty1(), _Myval2(_STD forward<_Other2>(_Val2)...) {}

  00047	8b 45 dc	 mov	 eax, DWORD PTR _this$1[ebp]
  0004a	89 45 f0	 mov	 DWORD PTR _this$4[ebp], eax
; File C:\Program Files (x86)\Microsoft Visual Studio\2019\Community\VC\Tools\MSVC\14.28.29333\include\vector

; 375  :     _Vector_val() noexcept : _Myfirst(), _Mylast(), _Myend() {}

  0004d	8b 45 f0	 mov	 eax, DWORD PTR _this$4[ebp]
  00050	83 20 00	 and	 DWORD PTR [eax], 0
  00053	8b 45 f0	 mov	 eax, DWORD PTR _this$4[ebp]
  00056	83 60 04 00	 and	 DWORD PTR [eax+4], 0
  0005a	8b 45 f0	 mov	 eax, DWORD PTR _this$4[ebp]
  0005d	83 60 08 00	 and	 DWORD PTR [eax+8], 0
; File C:\Program Files (x86)\Microsoft Visual Studio\2019\Community\VC\Tools\MSVC\14.28.29333\include\tuple

; 986  :     : pair(_Val1, _Val2, index_sequence_for<_Types1...>{}, index_sequence_for<_Types2...>{}) {}

  00061	8b 45 ec	 mov	 eax, DWORD PTR _this$[ebp]
  00064	c9		 leave
  00065	c2 0c 00	 ret	 12			; 0000000cH
??$?0$$QAV?$basic_string@DU?$char_traits@D@std@@V?$allocator@D@2@@std@@$$Z$$V@?$pair@$$CBV?$basic_string@DU?$char_traits@D@std@@V?$allocator@D@2@@std@@V?$vector@V?$basic_string@DU?$char_traits@D@std@@V?$allocator@D@2@@std@@V?$allocator@V?$basic_string@DU?$char_traits@D@std@@V?$allocator@D@2@@std@@@2@@2@@std@@QAE@Upiecewise_construct_t@1@V?$tuple@$$QAV?$basic_string@DU?$char_traits@D@std@@V?$allocator@D@2@@std@@@1@V?$tuple@$$V@1@@Z ENDP ; std::pair<std::basic_string<char,std::char_traits<char>,std::allocator<char> > const ,std::vector<std::basic_string<char,std::char_traits<char>,std::allocator<char> >,std::allocator<std::basic_string<char,std::char_traits<char>,std::allocator<char> > > > >::pair<std::basic_string<char,std::char_traits<char>,std::allocator<char> > const ,std::vector<std::basic_string<char,std::char_traits<char>,std::allocator<char> >,std::allocator<std::basic_string<char,std::char_traits<char>,std::allocator<char> > > > ><std::basic_string<char,std::char_traits<char>,std::allocator<char> > &&>
_TEXT	ENDS
; Function compile flags: /Odspy
; File C:\Program Files (x86)\Microsoft Visual Studio\2019\Community\VC\Tools\MSVC\14.28.29333\include\xstring
;	COMDAT ??$?MDU?$char_traits@D@std@@V?$allocator@D@1@@std@@YA_NABV?$basic_string@DU?$char_traits@D@std@@V?$allocator@D@2@@0@0@Z
_TEXT	SEGMENT
tv68 = -4						; size = 4
__Left$ = 8						; size = 4
__Right$ = 12						; size = 4
??$?MDU?$char_traits@D@std@@V?$allocator@D@1@@std@@YA_NABV?$basic_string@DU?$char_traits@D@std@@V?$allocator@D@2@@0@0@Z PROC ; std::operator<<char,std::char_traits<char>,std::allocator<char> >, COMDAT

; 4586 :     const basic_string<_Elem, _Traits, _Alloc>& _Left, const basic_string<_Elem, _Traits, _Alloc>& _Right) noexcept {

  00000	55		 push	 ebp
  00001	8b ec		 mov	 ebp, esp
  00003	51		 push	 ecx

; 4587 :     return _Left.compare(_Right) < 0;

  00004	ff 75 0c	 push	 DWORD PTR __Right$[ebp]
  00007	8b 4d 08	 mov	 ecx, DWORD PTR __Left$[ebp]
  0000a	e8 00 00 00 00	 call	 ?compare@?$basic_string@DU?$char_traits@D@std@@V?$allocator@D@2@@std@@QBEHABV12@@Z ; std::basic_string<char,std::char_traits<char>,std::allocator<char> >::compare
  0000f	85 c0		 test	 eax, eax
  00011	7d 09		 jge	 SHORT $LN3@operator
  00013	c7 45 fc 01 00
	00 00		 mov	 DWORD PTR tv68[ebp], 1
  0001a	eb 04		 jmp	 SHORT $LN4@operator
$LN3@operator:
  0001c	83 65 fc 00	 and	 DWORD PTR tv68[ebp], 0
$LN4@operator:
  00020	8a 45 fc	 mov	 al, BYTE PTR tv68[ebp]

; 4588 : }

  00023	c9		 leave
  00024	c3		 ret	 0
??$?MDU?$char_traits@D@std@@V?$allocator@D@1@@std@@YA_NABV?$basic_string@DU?$char_traits@D@std@@V?$allocator@D@2@@0@0@Z ENDP ; std::operator<<char,std::char_traits<char>,std::allocator<char> >
_TEXT	ENDS
; Function compile flags: /Odspy
; File C:\Program Files (x86)\Microsoft Visual Studio\2019\Community\VC\Tools\MSVC\14.28.29333\include\xmemory
;	COMDAT ??$_Zero_range@PAPAPAVCTerrain@@@std@@YAPAPAPAVCTerrain@@QAPAPAV1@0@Z
_TEXT	SEGMENT
__Last_ch$ = -8						; size = 4
__First_ch$ = -4					; size = 4
__First$ = 8						; size = 4
__Last$ = 12						; size = 4
??$_Zero_range@PAPAPAVCTerrain@@@std@@YAPAPAPAVCTerrain@@QAPAPAV1@0@Z PROC ; std::_Zero_range<CTerrain * * *>, COMDAT

; 1852 : _Ptr _Zero_range(const _Ptr _First, const _Ptr _Last) { // fill [_First, _Last) with zeroes

  00000	55		 push	 ebp
  00001	8b ec		 mov	 ebp, esp
  00003	51		 push	 ecx
  00004	51		 push	 ecx

; 1853 :     char* const _First_ch = reinterpret_cast<char*>(_First);

  00005	8b 45 08	 mov	 eax, DWORD PTR __First$[ebp]
  00008	89 45 fc	 mov	 DWORD PTR __First_ch$[ebp], eax

; 1854 :     char* const _Last_ch  = reinterpret_cast<char*>(_Last);

  0000b	8b 45 0c	 mov	 eax, DWORD PTR __Last$[ebp]
  0000e	89 45 f8	 mov	 DWORD PTR __Last_ch$[ebp], eax

; 1855 :     _CSTD memset(_First_ch, 0, static_cast<size_t>(_Last_ch - _First_ch));

  00011	8b 45 f8	 mov	 eax, DWORD PTR __Last_ch$[ebp]
  00014	2b 45 fc	 sub	 eax, DWORD PTR __First_ch$[ebp]
  00017	50		 push	 eax
  00018	6a 00		 push	 0
  0001a	ff 75 fc	 push	 DWORD PTR __First_ch$[ebp]
  0001d	e8 00 00 00 00	 call	 _memset
  00022	83 c4 0c	 add	 esp, 12			; 0000000cH

; 1856 :     return _Last;

  00025	8b 45 0c	 mov	 eax, DWORD PTR __Last$[ebp]

; 1857 : }

  00028	c9		 leave
  00029	c3		 ret	 0
??$_Zero_range@PAPAPAVCTerrain@@@std@@YAPAPAPAVCTerrain@@QAPAPAV1@0@Z ENDP ; std::_Zero_range<CTerrain * * *>
_TEXT	ENDS
; Function compile flags: /Odspy
; File C:\Program Files (x86)\Microsoft Visual Studio\2019\Community\VC\Tools\MSVC\14.28.29333\include\xutility
;	COMDAT ??$_Copy_memmove@PAPAPAVCTerrain@@PAPAPAV1@@std@@YAPAPAPAVCTerrain@@PAPAPAV1@00@Z
_TEXT	SEGMENT
__Last_ch$ = -16					; size = 4
__Count$ = -12						; size = 4
__Dest_ch$ = -8						; size = 4
__First_ch$ = -4					; size = 4
__First$ = 8						; size = 4
__Last$ = 12						; size = 4
__Dest$ = 16						; size = 4
??$_Copy_memmove@PAPAPAVCTerrain@@PAPAPAV1@@std@@YAPAPAPAVCTerrain@@PAPAPAV1@00@Z PROC ; std::_Copy_memmove<CTerrain * * *,CTerrain * * *>, COMDAT

; 4360 : _OutIt _Copy_memmove(_InIt _First, _InIt _Last, _OutIt _Dest) {

  00000	55		 push	 ebp
  00001	8b ec		 mov	 ebp, esp
  00003	83 ec 10	 sub	 esp, 16			; 00000010H

; 4361 :     const char* const _First_ch = const_cast<const char*>(reinterpret_cast<const volatile char*>(_First));

  00006	8b 45 08	 mov	 eax, DWORD PTR __First$[ebp]
  00009	89 45 fc	 mov	 DWORD PTR __First_ch$[ebp], eax

; 4362 :     const char* const _Last_ch  = const_cast<const char*>(reinterpret_cast<const volatile char*>(_Last));

  0000c	8b 45 0c	 mov	 eax, DWORD PTR __Last$[ebp]
  0000f	89 45 f0	 mov	 DWORD PTR __Last_ch$[ebp], eax

; 4363 :     char* const _Dest_ch        = const_cast<char*>(reinterpret_cast<volatile char*>(_Dest));

  00012	8b 45 10	 mov	 eax, DWORD PTR __Dest$[ebp]
  00015	89 45 f8	 mov	 DWORD PTR __Dest_ch$[ebp], eax

; 4364 :     const auto _Count           = static_cast<size_t>(_Last_ch - _First_ch);

  00018	8b 45 f0	 mov	 eax, DWORD PTR __Last_ch$[ebp]
  0001b	2b 45 fc	 sub	 eax, DWORD PTR __First_ch$[ebp]
  0001e	89 45 f4	 mov	 DWORD PTR __Count$[ebp], eax

; 4365 :     _CSTD memmove(_Dest_ch, _First_ch, _Count);

  00021	ff 75 f4	 push	 DWORD PTR __Count$[ebp]
  00024	ff 75 fc	 push	 DWORD PTR __First_ch$[ebp]
  00027	ff 75 f8	 push	 DWORD PTR __Dest_ch$[ebp]
  0002a	e8 00 00 00 00	 call	 _memmove
  0002f	83 c4 0c	 add	 esp, 12			; 0000000cH

; 4366 :     return reinterpret_cast<_OutIt>(_Dest_ch + _Count);

  00032	8b 45 f8	 mov	 eax, DWORD PTR __Dest_ch$[ebp]
  00035	03 45 f4	 add	 eax, DWORD PTR __Count$[ebp]

; 4367 : }

  00038	c9		 leave
  00039	c3		 ret	 0
??$_Copy_memmove@PAPAPAVCTerrain@@PAPAPAV1@@std@@YAPAPAPAVCTerrain@@PAPAPAV1@00@Z ENDP ; std::_Copy_memmove<CTerrain * * *,CTerrain * * *>
_TEXT	ENDS
; Function compile flags: /Odspy
; File C:\Program Files (x86)\Microsoft Visual Studio\2019\Community\VC\Tools\MSVC\14.28.29333\include\xmemory
;	COMDAT ??$_Zero_range@PAPAPAVCArea@@@std@@YAPAPAPAVCArea@@QAPAPAV1@0@Z
_TEXT	SEGMENT
__Last_ch$ = -8						; size = 4
__First_ch$ = -4					; size = 4
__First$ = 8						; size = 4
__Last$ = 12						; size = 4
??$_Zero_range@PAPAPAVCArea@@@std@@YAPAPAPAVCArea@@QAPAPAV1@0@Z PROC ; std::_Zero_range<CArea * * *>, COMDAT

; 1852 : _Ptr _Zero_range(const _Ptr _First, const _Ptr _Last) { // fill [_First, _Last) with zeroes

  00000	55		 push	 ebp
  00001	8b ec		 mov	 ebp, esp
  00003	51		 push	 ecx
  00004	51		 push	 ecx

; 1853 :     char* const _First_ch = reinterpret_cast<char*>(_First);

  00005	8b 45 08	 mov	 eax, DWORD PTR __First$[ebp]
  00008	89 45 fc	 mov	 DWORD PTR __First_ch$[ebp], eax

; 1854 :     char* const _Last_ch  = reinterpret_cast<char*>(_Last);

  0000b	8b 45 0c	 mov	 eax, DWORD PTR __Last$[ebp]
  0000e	89 45 f8	 mov	 DWORD PTR __Last_ch$[ebp], eax

; 1855 :     _CSTD memset(_First_ch, 0, static_cast<size_t>(_Last_ch - _First_ch));

  00011	8b 45 f8	 mov	 eax, DWORD PTR __Last_ch$[ebp]
  00014	2b 45 fc	 sub	 eax, DWORD PTR __First_ch$[ebp]
  00017	50		 push	 eax
  00018	6a 00		 push	 0
  0001a	ff 75 fc	 push	 DWORD PTR __First_ch$[ebp]
  0001d	e8 00 00 00 00	 call	 _memset
  00022	83 c4 0c	 add	 esp, 12			; 0000000cH

; 1856 :     return _Last;

  00025	8b 45 0c	 mov	 eax, DWORD PTR __Last$[ebp]

; 1857 : }

  00028	c9		 leave
  00029	c3		 ret	 0
??$_Zero_range@PAPAPAVCArea@@@std@@YAPAPAPAVCArea@@QAPAPAV1@0@Z ENDP ; std::_Zero_range<CArea * * *>
_TEXT	ENDS
; Function compile flags: /Odspy
; File C:\Program Files (x86)\Microsoft Visual Studio\2019\Community\VC\Tools\MSVC\14.28.29333\include\xutility
;	COMDAT ??$_Copy_memmove@PAPAPAVCArea@@PAPAPAV1@@std@@YAPAPAPAVCArea@@PAPAPAV1@00@Z
_TEXT	SEGMENT
__Last_ch$ = -16					; size = 4
__Count$ = -12						; size = 4
__Dest_ch$ = -8						; size = 4
__First_ch$ = -4					; size = 4
__First$ = 8						; size = 4
__Last$ = 12						; size = 4
__Dest$ = 16						; size = 4
??$_Copy_memmove@PAPAPAVCArea@@PAPAPAV1@@std@@YAPAPAPAVCArea@@PAPAPAV1@00@Z PROC ; std::_Copy_memmove<CArea * * *,CArea * * *>, COMDAT

; 4360 : _OutIt _Copy_memmove(_InIt _First, _InIt _Last, _OutIt _Dest) {

  00000	55		 push	 ebp
  00001	8b ec		 mov	 ebp, esp
  00003	83 ec 10	 sub	 esp, 16			; 00000010H

; 4361 :     const char* const _First_ch = const_cast<const char*>(reinterpret_cast<const volatile char*>(_First));

  00006	8b 45 08	 mov	 eax, DWORD PTR __First$[ebp]
  00009	89 45 fc	 mov	 DWORD PTR __First_ch$[ebp], eax

; 4362 :     const char* const _Last_ch  = const_cast<const char*>(reinterpret_cast<const volatile char*>(_Last));

  0000c	8b 45 0c	 mov	 eax, DWORD PTR __Last$[ebp]
  0000f	89 45 f0	 mov	 DWORD PTR __Last_ch$[ebp], eax

; 4363 :     char* const _Dest_ch        = const_cast<char*>(reinterpret_cast<volatile char*>(_Dest));

  00012	8b 45 10	 mov	 eax, DWORD PTR __Dest$[ebp]
  00015	89 45 f8	 mov	 DWORD PTR __Dest_ch$[ebp], eax

; 4364 :     const auto _Count           = static_cast<size_t>(_Last_ch - _First_ch);

  00018	8b 45 f0	 mov	 eax, DWORD PTR __Last_ch$[ebp]
  0001b	2b 45 fc	 sub	 eax, DWORD PTR __First_ch$[ebp]
  0001e	89 45 f4	 mov	 DWORD PTR __Count$[ebp], eax

; 4365 :     _CSTD memmove(_Dest_ch, _First_ch, _Count);

  00021	ff 75 f4	 push	 DWORD PTR __Count$[ebp]
  00024	ff 75 fc	 push	 DWORD PTR __First_ch$[ebp]
  00027	ff 75 f8	 push	 DWORD PTR __Dest_ch$[ebp]
  0002a	e8 00 00 00 00	 call	 _memmove
  0002f	83 c4 0c	 add	 esp, 12			; 0000000cH

; 4366 :     return reinterpret_cast<_OutIt>(_Dest_ch + _Count);

  00032	8b 45 f8	 mov	 eax, DWORD PTR __Dest_ch$[ebp]
  00035	03 45 f4	 add	 eax, DWORD PTR __Count$[ebp]

; 4367 : }

  00038	c9		 leave
  00039	c3		 ret	 0
??$_Copy_memmove@PAPAPAVCArea@@PAPAPAV1@@std@@YAPAPAPAVCArea@@PAPAPAV1@00@Z ENDP ; std::_Copy_memmove<CArea * * *,CArea * * *>
_TEXT	ENDS
; Function compile flags: /Odspy
; File C:\Program Files (x86)\Microsoft Visual Studio\2019\Community\VC\Tools\MSVC\14.28.29333\include\xmemory
; File C:\Program Files (x86)\Microsoft Visual Studio\2019\Community\VC\Tools\MSVC\14.28.29333\include\xstddef
; File C:\Program Files (x86)\Microsoft Visual Studio\2019\Community\VC\Tools\MSVC\14.28.29333\include\vcruntime_new.h
; File C:\Program Files (x86)\Microsoft Visual Studio\2019\Community\VC\Tools\MSVC\14.28.29333\include\type_traits
; File C:\Program Files (x86)\Microsoft Visual Studio\2019\Community\VC\Tools\MSVC\14.28.29333\include\xmemory
;	COMDAT ??$_Construct_in_place@PAU?$_Tree_node@U?$pair@$$CBV?$basic_string@DU?$char_traits@D@std@@V?$allocator@D@2@@std@@V?$vector@V?$basic_string@DU?$char_traits@D@std@@V?$allocator@D@2@@std@@V?$allocator@V?$basic_string@DU?$char_traits@D@std@@V?$allocator@D@2@@std@@@2@@2@@std@@PAX@std@@AAPAU12@@std@@YAXAAPAU?$_Tree_node@U?$pair@$$CBV?$basic_string@DU?$char_traits@D@std@@V?$allocator@D@2@@std@@V?$vector@V?$basic_string@DU?$char_traits@D@std@@V?$allocator@D@2@@std@@V?$allocator@V?$basic_string@DU?$char_traits@D@std@@V?$allocator@D@2@@std@@@2@@2@@std@@PAX@0@0@Z
_TEXT	SEGMENT
$T1 = -12						; size = 4
$T2 = -8						; size = 4
$T3 = -4						; size = 4
__Obj$ = 8						; size = 4
_<_Args_0>$ = 12					; size = 4
??$_Construct_in_place@PAU?$_Tree_node@U?$pair@$$CBV?$basic_string@DU?$char_traits@D@std@@V?$allocator@D@2@@std@@V?$vector@V?$basic_string@DU?$char_traits@D@std@@V?$allocator@D@2@@std@@V?$allocator@V?$basic_string@DU?$char_traits@D@std@@V?$allocator@D@2@@std@@@2@@2@@std@@PAX@std@@AAPAU12@@std@@YAXAAPAU?$_Tree_node@U?$pair@$$CBV?$basic_string@DU?$char_traits@D@std@@V?$allocator@D@2@@std@@V?$vector@V?$basic_string@DU?$char_traits@D@std@@V?$allocator@D@2@@std@@V?$allocator@V?$basic_string@DU?$char_traits@D@std@@V?$allocator@D@2@@std@@@2@@2@@std@@PAX@0@0@Z PROC ; std::_Construct_in_place<std::_Tree_node<std::pair<std::basic_string<char,std::char_traits<char>,std::allocator<char> > const ,std::vector<std::basic_string<char,std::char_traits<char>,std::allocator<char> >,std::allocator<std::basic_string<char,std::char_traits<char>,std::allocator<char> > > > >,void *> *,std::_Tree_node<std::pair<std::basic_string<char,std::char_traits<char>,std::allocator<char> > const ,std::vector<std::basic_string<char,std::char_traits<char>,std::allocator<char> >,std::allocator<std::basic_string<char,std::char_traits<char>,std::allocator<char> > > > >,void *> * &>, COMDAT

; 228  : void _Construct_in_place(_Ty& _Obj, _Types&&... _Args) noexcept(is_nothrow_constructible_v<_Ty, _Types...>) {

  00000	55		 push	 ebp
  00001	8b ec		 mov	 ebp, esp
  00003	83 ec 0c	 sub	 esp, 12			; 0000000cH
; File C:\Program Files (x86)\Microsoft Visual Studio\2019\Community\VC\Tools\MSVC\14.28.29333\include\xstddef

; 275  :     return __builtin_addressof(_Val);

  00006	8b 45 08	 mov	 eax, DWORD PTR __Obj$[ebp]
  00009	89 45 fc	 mov	 DWORD PTR $T3[ebp], eax
; File C:\Program Files (x86)\Microsoft Visual Studio\2019\Community\VC\Tools\MSVC\14.28.29333\include\vcruntime_new.h

; 169  :         return _Where;

  0000c	8b 45 fc	 mov	 eax, DWORD PTR $T3[ebp]
  0000f	89 45 f8	 mov	 DWORD PTR $T2[ebp], eax
; File C:\Program Files (x86)\Microsoft Visual Studio\2019\Community\VC\Tools\MSVC\14.28.29333\include\type_traits

; 1443 :     return static_cast<_Ty&&>(_Arg);

  00012	8b 45 0c	 mov	 eax, DWORD PTR _<_Args_0>$[ebp]
  00015	89 45 f4	 mov	 DWORD PTR $T1[ebp], eax
; File C:\Program Files (x86)\Microsoft Visual Studio\2019\Community\VC\Tools\MSVC\14.28.29333\include\xmemory

; 229  :     ::new (const_cast<void*>(static_cast<const volatile void*>(_STD addressof(_Obj))))

  00018	8b 45 f8	 mov	 eax, DWORD PTR $T2[ebp]
  0001b	8b 4d f4	 mov	 ecx, DWORD PTR $T1[ebp]
  0001e	8b 09		 mov	 ecx, DWORD PTR [ecx]
  00020	89 08		 mov	 DWORD PTR [eax], ecx

; 230  :         _Ty(_STD forward<_Types>(_Args)...);
; 231  : }

  00022	c9		 leave
  00023	c3		 ret	 0
??$_Construct_in_place@PAU?$_Tree_node@U?$pair@$$CBV?$basic_string@DU?$char_traits@D@std@@V?$allocator@D@2@@std@@V?$vector@V?$basic_string@DU?$char_traits@D@std@@V?$allocator@D@2@@std@@V?$allocator@V?$basic_string@DU?$char_traits@D@std@@V?$allocator@D@2@@std@@@2@@2@@std@@PAX@std@@AAPAU12@@std@@YAXAAPAU?$_Tree_node@U?$pair@$$CBV?$basic_string@DU?$char_traits@D@std@@V?$allocator@D@2@@std@@V?$vector@V?$basic_string@DU?$char_traits@D@std@@V?$allocator@D@2@@std@@V?$allocator@V?$basic_string@DU?$char_traits@D@std@@V?$allocator@D@2@@std@@@2@@2@@std@@PAX@0@0@Z ENDP ; std::_Construct_in_place<std::_Tree_node<std::pair<std::basic_string<char,std::char_traits<char>,std::allocator<char> > const ,std::vector<std::basic_string<char,std::char_traits<char>,std::allocator<char> >,std::allocator<std::basic_string<char,std::char_traits<char>,std::allocator<char> > > > >,void *> *,std::_Tree_node<std::pair<std::basic_string<char,std::char_traits<char>,std::allocator<char> > const ,std::vector<std::basic_string<char,std::char_traits<char>,std::allocator<char> >,std::allocator<std::basic_string<char,std::char_traits<char>,std::allocator<char> > > > >,void *> * &>
_TEXT	ENDS
; Function compile flags: /Odspy
; File C:\Program Files (x86)\Microsoft Visual Studio\2019\Community\VC\Tools\MSVC\14.28.29333\include\xmemory
; File C:\Program Files (x86)\Microsoft Visual Studio\2019\Community\VC\Tools\MSVC\14.28.29333\include\vcruntime_new.h
; File C:\Program Files (x86)\Microsoft Visual Studio\2019\Community\VC\Tools\MSVC\14.28.29333\include\type_traits
; File C:\Program Files (x86)\Microsoft Visual Studio\2019\Community\VC\Tools\MSVC\14.28.29333\include\xmemory
; File C:\Program Files (x86)\Microsoft Visual Studio\2019\Community\VC\Tools\MSVC\14.28.29333\include\type_traits
; File C:\Program Files (x86)\Microsoft Visual Studio\2019\Community\VC\Tools\MSVC\14.28.29333\include\xmemory
; File D:\Metin2 Server Files\mainline\SRC_2014\Metin2Client\GameLib\AreaLoaderThread.cpp
; File C:\Program Files (x86)\Microsoft Visual Studio\2019\Community\VC\Tools\MSVC\14.28.29333\include\type_traits
; File C:\Program Files (x86)\Microsoft Visual Studio\2019\Community\VC\Tools\MSVC\14.28.29333\include\xmemory
;	COMDAT ??$construct@U?$pair@$$CBV?$basic_string@DU?$char_traits@D@std@@V?$allocator@D@2@@std@@V?$vector@V?$basic_string@DU?$char_traits@D@std@@V?$allocator@D@2@@std@@V?$allocator@V?$basic_string@DU?$char_traits@D@std@@V?$allocator@D@2@@std@@@2@@2@@std@@ABUpiecewise_construct_t@2@V?$tuple@$$QAV?$basic_string@DU?$char_traits@D@std@@V?$allocator@D@2@@std@@@2@V?$tuple@$$V@2@@?$_Default_allocator_traits@V?$allocator@U?$_Tree_node@U?$pair@$$CBV?$basic_string@DU?$char_traits@D@std@@V?$allocator@D@2@@std@@V?$vector@V?$basic_string@DU?$char_traits@D@std@@V?$allocator@D@2@@std@@V?$allocator@V?$basic_string@DU?$char_traits@D@std@@V?$allocator@D@2@@std@@@2@@2@@std@@PAX@std@@@std@@@std@@SAXAAV?$allocator@U?$_Tree_node@U?$pair@$$CBV?$basic_string@DU?$char_traits@D@std@@V?$allocator@D@2@@std@@V?$vector@V?$basic_string@DU?$char_traits@D@std@@V?$allocator@D@2@@std@@V?$allocator@V?$basic_string@DU?$char_traits@D@std@@V?$allocator@D@2@@std@@@2@@2@@std@@PAX@std@@@1@QAU?$pair@$$CBV?$basic_string@DU?$char_traits@D@std@@V?$allocator@D@2@@std@@V?$vector@V?$basic_string@DU?$char_traits@D@std@@V?$allocator@D@2@@std@@V?$allocator@V?$basic_string@DU?$char_traits@D@std@@V?$allocator@D@2@@std@@@2@@2@@1@ABUpiecewise_construct_t@1@$$QAV?$tuple@$$QAV?$basic_string@DU?$char_traits@D@std@@V?$allocator@D@2@@std@@@1@$$QAV?$tuple@$$V@1@@Z
_TEXT	SEGMENT
_this$ = -24						; size = 4
$T1 = -20						; size = 4
$T2 = -16						; size = 4
$T3 = -12						; size = 4
_this$ = -8						; size = 4
$T4 = -4						; size = 4
___formal$ = 8						; size = 4
__Ptr$ = 12						; size = 4
_<_Args_0>$ = 16					; size = 4
_<_Args_1>$ = 20					; size = 4
_<_Args_2>$ = 24					; size = 4
??$construct@U?$pair@$$CBV?$basic_string@DU?$char_traits@D@std@@V?$allocator@D@2@@std@@V?$vector@V?$basic_string@DU?$char_traits@D@std@@V?$allocator@D@2@@std@@V?$allocator@V?$basic_string@DU?$char_traits@D@std@@V?$allocator@D@2@@std@@@2@@2@@std@@ABUpiecewise_construct_t@2@V?$tuple@$$QAV?$basic_string@DU?$char_traits@D@std@@V?$allocator@D@2@@std@@@2@V?$tuple@$$V@2@@?$_Default_allocator_traits@V?$allocator@U?$_Tree_node@U?$pair@$$CBV?$basic_string@DU?$char_traits@D@std@@V?$allocator@D@2@@std@@V?$vector@V?$basic_string@DU?$char_traits@D@std@@V?$allocator@D@2@@std@@V?$allocator@V?$basic_string@DU?$char_traits@D@std@@V?$allocator@D@2@@std@@@2@@2@@std@@PAX@std@@@std@@@std@@SAXAAV?$allocator@U?$_Tree_node@U?$pair@$$CBV?$basic_string@DU?$char_traits@D@std@@V?$allocator@D@2@@std@@V?$vector@V?$basic_string@DU?$char_traits@D@std@@V?$allocator@D@2@@std@@V?$allocator@V?$basic_string@DU?$char_traits@D@std@@V?$allocator@D@2@@std@@@2@@2@@std@@PAX@std@@@1@QAU?$pair@$$CBV?$basic_string@DU?$char_traits@D@std@@V?$allocator@D@2@@std@@V?$vector@V?$basic_string@DU?$char_traits@D@std@@V?$allocator@D@2@@std@@V?$allocator@V?$basic_string@DU?$char_traits@D@std@@V?$allocator@D@2@@std@@@2@@2@@1@ABUpiecewise_construct_t@1@$$QAV?$tuple@$$QAV?$basic_string@DU?$char_traits@D@std@@V?$allocator@D@2@@std@@@1@$$QAV?$tuple@$$V@1@@Z PROC ; std::_Default_allocator_traits<std::allocator<std::_Tree_node<std::pair<std::basic_string<char,std::char_traits<char>,std::allocator<char> > const ,std::vector<std::basic_string<char,std::char_traits<char>,std::allocator<char> >,std::allocator<std::basic_string<char,std::char_traits<char>,std::allocator<char> > > > >,void *> > >::construct<std::pair<std::basic_string<char,std::char_traits<char>,std::allocator<char> > const ,std::vector<std::basic_string<char,std::char_traits<char>,std::allocator<char> >,std::allocator<std::basic_string<char,std::char_traits<char>,std::allocator<char> > > > >,std::piecewise_construct_t const &,std::tuple<std::basic_string<char,std::char_traits<char>,std::allocator<char> > &&>,std::tuple<> >, COMDAT

; 700  :     static void construct(_Alloc&, _Objty* const _Ptr, _Types&&... _Args) {

  00000	55		 push	 ebp
  00001	8b ec		 mov	 ebp, esp
  00003	83 ec 18	 sub	 esp, 24			; 00000018H
; File C:\Program Files (x86)\Microsoft Visual Studio\2019\Community\VC\Tools\MSVC\14.28.29333\include\vcruntime_new.h

; 169  :         return _Where;

  00006	8b 45 0c	 mov	 eax, DWORD PTR __Ptr$[ebp]
  00009	89 45 f0	 mov	 DWORD PTR $T2[ebp], eax
; File C:\Program Files (x86)\Microsoft Visual Studio\2019\Community\VC\Tools\MSVC\14.28.29333\include\type_traits

; 1443 :     return static_cast<_Ty&&>(_Arg);

  0000c	8b 45 18	 mov	 eax, DWORD PTR _<_Args_2>$[ebp]
  0000f	89 45 ec	 mov	 DWORD PTR $T1[ebp], eax
; File C:\Program Files (x86)\Microsoft Visual Studio\2019\Community\VC\Tools\MSVC\14.28.29333\include\xmemory

; 701  :         ::new (const_cast<void*>(static_cast<const volatile void*>(_Ptr))) _Objty(_STD forward<_Types>(_Args)...);

  00012	51		 push	 ecx
  00013	89 65 e8	 mov	 DWORD PTR _this$[ebp], esp
; File C:\Program Files (x86)\Microsoft Visual Studio\2019\Community\VC\Tools\MSVC\14.28.29333\include\type_traits

; 1443 :     return static_cast<_Ty&&>(_Arg);

  00016	8b 45 14	 mov	 eax, DWORD PTR _<_Args_1>$[ebp]
  00019	89 45 fc	 mov	 DWORD PTR $T4[ebp], eax
; File C:\Program Files (x86)\Microsoft Visual Studio\2019\Community\VC\Tools\MSVC\14.28.29333\include\xmemory

; 701  :         ::new (const_cast<void*>(static_cast<const volatile void*>(_Ptr))) _Objty(_STD forward<_Types>(_Args)...);

  0001c	51		 push	 ecx
  0001d	89 65 f8	 mov	 DWORD PTR _this$[ebp], esp
; File D:\Metin2 Server Files\mainline\SRC_2014\Metin2Client\GameLib\AreaLoaderThread.cpp

  00020	8b 45 fc	 mov	 eax, DWORD PTR $T4[ebp]
  00023	8b 00		 mov	 eax, DWORD PTR [eax]
  00025	8b 4d f8	 mov	 ecx, DWORD PTR _this$[ebp]
  00028	89 01		 mov	 DWORD PTR [ecx], eax
; File C:\Program Files (x86)\Microsoft Visual Studio\2019\Community\VC\Tools\MSVC\14.28.29333\include\type_traits

; 1443 :     return static_cast<_Ty&&>(_Arg);

  0002a	8b 45 10	 mov	 eax, DWORD PTR _<_Args_0>$[ebp]
  0002d	89 45 f4	 mov	 DWORD PTR $T3[ebp], eax
; File C:\Program Files (x86)\Microsoft Visual Studio\2019\Community\VC\Tools\MSVC\14.28.29333\include\xmemory

; 701  :         ::new (const_cast<void*>(static_cast<const volatile void*>(_Ptr))) _Objty(_STD forward<_Types>(_Args)...);

  00030	8b 45 f4	 mov	 eax, DWORD PTR $T3[ebp]
  00033	0f b6 00	 movzx	 eax, BYTE PTR [eax]
  00036	50		 push	 eax
  00037	8b 4d f0	 mov	 ecx, DWORD PTR $T2[ebp]
  0003a	e8 00 00 00 00	 call	 ??$?0$$QAV?$basic_string@DU?$char_traits@D@std@@V?$allocator@D@2@@std@@$$Z$$V@?$pair@$$CBV?$basic_string@DU?$char_traits@D@std@@V?$allocator@D@2@@std@@V?$vector@V?$basic_string@DU?$char_traits@D@std@@V?$allocator@D@2@@std@@V?$allocator@V?$basic_string@DU?$char_traits@D@std@@V?$allocator@D@2@@std@@@2@@2@@std@@QAE@Upiecewise_construct_t@1@V?$tuple@$$QAV?$basic_string@DU?$char_traits@D@std@@V?$allocator@D@2@@std@@@1@V?$tuple@$$V@1@@Z ; std::pair<std::basic_string<char,std::char_traits<char>,std::allocator<char> > const ,std::vector<std::basic_string<char,std::char_traits<char>,std::allocator<char> >,std::allocator<std::basic_string<char,std::char_traits<char>,std::allocator<char> > > > >::pair<std::basic_string<char,std::char_traits<char>,std::allocator<char> > const ,std::vector<std::basic_string<char,std::char_traits<char>,std::allocator<char> >,std::allocator<std::basic_string<char,std::char_traits<char>,std::allocator<char> > > > ><std::basic_string<char,std::char_traits<char>,std::allocator<char> > &&>

; 702  :     }

  0003f	c9		 leave
  00040	c3		 ret	 0
??$construct@U?$pair@$$CBV?$basic_string@DU?$char_traits@D@std@@V?$allocator@D@2@@std@@V?$vector@V?$basic_string@DU?$char_traits@D@std@@V?$allocator@D@2@@std@@V?$allocator@V?$basic_string@DU?$char_traits@D@std@@V?$allocator@D@2@@std@@@2@@2@@std@@ABUpiecewise_construct_t@2@V?$tuple@$$QAV?$basic_string@DU?$char_traits@D@std@@V?$allocator@D@2@@std@@@2@V?$tuple@$$V@2@@?$_Default_allocator_traits@V?$allocator@U?$_Tree_node@U?$pair@$$CBV?$basic_string@DU?$char_traits@D@std@@V?$allocator@D@2@@std@@V?$vector@V?$basic_string@DU?$char_traits@D@std@@V?$allocator@D@2@@std@@V?$allocator@V?$basic_string@DU?$char_traits@D@std@@V?$allocator@D@2@@std@@@2@@2@@std@@PAX@std@@@std@@@std@@SAXAAV?$allocator@U?$_Tree_node@U?$pair@$$CBV?$basic_string@DU?$char_traits@D@std@@V?$allocator@D@2@@std@@V?$vector@V?$basic_string@DU?$char_traits@D@std@@V?$allocator@D@2@@std@@V?$allocator@V?$basic_string@DU?$char_traits@D@std@@V?$allocator@D@2@@std@@@2@@2@@std@@PAX@std@@@1@QAU?$pair@$$CBV?$basic_string@DU?$char_traits@D@std@@V?$allocator@D@2@@std@@V?$vector@V?$basic_string@DU?$char_traits@D@std@@V?$allocator@D@2@@std@@V?$allocator@V?$basic_string@DU?$char_traits@D@std@@V?$allocator@D@2@@std@@@2@@2@@1@ABUpiecewise_construct_t@1@$$QAV?$tuple@$$QAV?$basic_string@DU?$char_traits@D@std@@V?$allocator@D@2@@std@@@1@$$QAV?$tuple@$$V@1@@Z ENDP ; std::_Default_allocator_traits<std::allocator<std::_Tree_node<std::pair<std::basic_string<char,std::char_traits<char>,std::allocator<char> > const ,std::vector<std::basic_string<char,std::char_traits<char>,std::allocator<char> >,std::allocator<std::basic_string<char,std::char_traits<char>,std::allocator<char> > > > >,void *> > >::construct<std::pair<std::basic_string<char,std::char_traits<char>,std::allocator<char> > const ,std::vector<std::basic_string<char,std::char_traits<char>,std::allocator<char> >,std::allocator<std::basic_string<char,std::char_traits<char>,std::allocator<char> > > > >,std::piecewise_construct_t const &,std::tuple<std::basic_string<char,std::char_traits<char>,std::allocator<char> > &&>,std::tuple<> >
_TEXT	ENDS
; Function compile flags: /Odspy
; File C:\Program Files (x86)\Microsoft Visual Studio\2019\Community\VC\Tools\MSVC\14.28.29333\include\xmemory
;	COMDAT ??$_Destroy_range@PAPAPAVCTerrain@@PAPAPAV1@@std@@YAXPAPAPAVCTerrain@@QAPAPAV1@@Z
_TEXT	SEGMENT
__First$ = 8						; size = 4
__Last$ = 12						; size = 4
??$_Destroy_range@PAPAPAVCTerrain@@PAPAPAV1@@std@@YAXPAPAPAVCTerrain@@QAPAPAV1@@Z PROC ; std::_Destroy_range<CTerrain * * *,CTerrain * * *>, COMDAT

; 974  : /* _CONSTEXPR20_DYNALLOC */ void _Destroy_range(_NoThrowFwdIt _First, const _NoThrowSentinel _Last) noexcept {

  00000	55		 push	 ebp
  00001	8b ec		 mov	 ebp, esp

; 975  :     // note that this is an optimization for debug mode codegen; in release mode the BE removes all of this
; 976  :     if _CONSTEXPR_IF (!is_trivially_destructible_v<_Iter_value_t<_NoThrowFwdIt>>) {
; 977  :         for (; _First != _Last; ++_First) {
; 978  :             _Destroy_in_place(*_First);
; 979  :         }
; 980  :     }
; 981  : }

  00003	5d		 pop	 ebp
  00004	c3		 ret	 0
??$_Destroy_range@PAPAPAVCTerrain@@PAPAPAV1@@std@@YAXPAPAPAVCTerrain@@QAPAPAV1@@Z ENDP ; std::_Destroy_range<CTerrain * * *,CTerrain * * *>
_TEXT	ENDS
; Function compile flags: /Odspy
; File C:\Program Files (x86)\Microsoft Visual Studio\2019\Community\VC\Tools\MSVC\14.28.29333\include\xmemory
;	COMDAT ??$_Uninitialized_value_construct_n_unchecked1@PAPAPAVCTerrain@@I@std@@YAPAPAPAVCTerrain@@PAPAPAV1@I@Z
_TEXT	SEGMENT
__UFirst$ = 8						; size = 4
__Count$ = 12						; size = 4
??$_Uninitialized_value_construct_n_unchecked1@PAPAPAVCTerrain@@I@std@@YAPAPAPAVCTerrain@@PAPAPAV1@I@Z PROC ; std::_Uninitialized_value_construct_n_unchecked1<CTerrain * * *,unsigned int>, COMDAT

; 1912 : _NoThrowFwdIt _Uninitialized_value_construct_n_unchecked1(_NoThrowFwdIt _UFirst, _Diff _Count) {

  00000	55		 push	 ebp
  00001	8b ec		 mov	 ebp, esp

; 1913 :     // value-initialize all elements in [_UFirst, _UFirst + _Count_raw)
; 1914 :     _STL_INTERNAL_CHECK(_Count >= 0);
; 1915 :     if constexpr (_Use_memset_value_construct_v<_NoThrowFwdIt>) {
; 1916 :         return _Zero_range(_UFirst, _UFirst + _Count);

  00003	8b 45 0c	 mov	 eax, DWORD PTR __Count$[ebp]
  00006	8b 4d 08	 mov	 ecx, DWORD PTR __UFirst$[ebp]
  00009	8d 04 81	 lea	 eax, DWORD PTR [ecx+eax*4]
  0000c	50		 push	 eax
  0000d	ff 75 08	 push	 DWORD PTR __UFirst$[ebp]
  00010	e8 00 00 00 00	 call	 ??$_Zero_range@PAPAPAVCTerrain@@@std@@YAPAPAPAVCTerrain@@QAPAPAV1@0@Z ; std::_Zero_range<CTerrain * * *>
  00015	59		 pop	 ecx
  00016	59		 pop	 ecx

; 1917 :     } else {
; 1918 :         _Uninitialized_backout<_NoThrowFwdIt> _Backout{_UFirst};
; 1919 :         for (; 0 < _Count; --_Count) {
; 1920 :             _Backout._Emplace_back();
; 1921 :         }
; 1922 : 
; 1923 :         return _Backout._Release();
; 1924 :     }
; 1925 : }

  00017	5d		 pop	 ebp
  00018	c3		 ret	 0
??$_Uninitialized_value_construct_n_unchecked1@PAPAPAVCTerrain@@I@std@@YAPAPAPAVCTerrain@@PAPAPAV1@I@Z ENDP ; std::_Uninitialized_value_construct_n_unchecked1<CTerrain * * *,unsigned int>
_TEXT	ENDS
; Function compile flags: /Odspy
; File C:\Program Files (x86)\Microsoft Visual Studio\2019\Community\VC\Tools\MSVC\14.28.29333\include\xmemory
; File C:\Program Files (x86)\Microsoft Visual Studio\2019\Community\VC\Tools\MSVC\14.28.29333\include\xutility
; File C:\Program Files (x86)\Microsoft Visual Studio\2019\Community\VC\Tools\MSVC\14.28.29333\include\xmemory
; File C:\Program Files (x86)\Microsoft Visual Studio\2019\Community\VC\Tools\MSVC\14.28.29333\include\xutility
; File C:\Program Files (x86)\Microsoft Visual Studio\2019\Community\VC\Tools\MSVC\14.28.29333\include\xmemory
;	COMDAT ??$uninitialized_copy@PAPAPAVCTerrain@@PAPAPAV1@@std@@YAPAPAPAVCTerrain@@QAPAPAV1@0PAPAPAV1@@Z
_TEXT	SEGMENT
$T1 = -16						; size = 4
__UFirst$ = -12						; size = 4
__ULast$ = -8						; size = 4
__UDest$ = -4						; size = 4
__First$ = 8						; size = 4
__Last$ = 12						; size = 4
__Dest$ = 16						; size = 4
??$uninitialized_copy@PAPAPAVCTerrain@@PAPAPAV1@@std@@YAPAPAPAVCTerrain@@QAPAPAV1@0PAPAPAV1@@Z PROC ; std::uninitialized_copy<CTerrain * * *,CTerrain * * *>, COMDAT

; 1629 : _NoThrowFwdIt uninitialized_copy(const _InIt _First, const _InIt _Last, _NoThrowFwdIt _Dest) {

  00000	55		 push	 ebp
  00001	8b ec		 mov	 ebp, esp
  00003	83 ec 10	 sub	 esp, 16			; 00000010H

; 1630 :     // copy [_First, _Last) to raw [_Dest, ...)
; 1631 :     _Adl_verify_range(_First, _Last);
; 1632 :     auto _UFirst      = _Get_unwrapped(_First);

  00006	8b 45 08	 mov	 eax, DWORD PTR __First$[ebp]
  00009	89 45 f4	 mov	 DWORD PTR __UFirst$[ebp], eax

; 1633 :     const auto _ULast = _Get_unwrapped(_Last);

  0000c	8b 45 0c	 mov	 eax, DWORD PTR __Last$[ebp]
  0000f	89 45 f8	 mov	 DWORD PTR __ULast$[ebp], eax
; File C:\Program Files (x86)\Microsoft Visual Studio\2019\Community\VC\Tools\MSVC\14.28.29333\include\xutility

; 1557 :         return static_cast<_Iter_diff_t<_Checked>>(_Last - _First);

  00012	8b 45 f8	 mov	 eax, DWORD PTR __ULast$[ebp]
  00015	2b 45 f4	 sub	 eax, DWORD PTR __UFirst$[ebp]
  00018	c1 f8 02	 sar	 eax, 2
  0001b	89 45 f0	 mov	 DWORD PTR $T1[ebp], eax
; File C:\Program Files (x86)\Microsoft Visual Studio\2019\Community\VC\Tools\MSVC\14.28.29333\include\xmemory

; 1634 :     auto _UDest       = _Get_unwrapped_n(_Dest, _Idl_distance<_InIt>(_UFirst, _ULast));

  0001e	8b 45 10	 mov	 eax, DWORD PTR __Dest$[ebp]
  00021	89 45 fc	 mov	 DWORD PTR __UDest$[ebp], eax

; 1635 :     if constexpr (_Ptr_copy_cat<decltype(_UFirst), decltype(_UDest)>::_Really_trivial) {
; 1636 :         _UDest = _Copy_memmove(_UFirst, _ULast, _UDest);

  00024	ff 75 fc	 push	 DWORD PTR __UDest$[ebp]
  00027	ff 75 f8	 push	 DWORD PTR __ULast$[ebp]
  0002a	ff 75 f4	 push	 DWORD PTR __UFirst$[ebp]
  0002d	e8 00 00 00 00	 call	 ??$_Copy_memmove@PAPAPAVCTerrain@@PAPAPAV1@@std@@YAPAPAPAVCTerrain@@PAPAPAV1@00@Z ; std::_Copy_memmove<CTerrain * * *,CTerrain * * *>
  00032	83 c4 0c	 add	 esp, 12			; 0000000cH
  00035	89 45 fc	 mov	 DWORD PTR __UDest$[ebp], eax
; File C:\Program Files (x86)\Microsoft Visual Studio\2019\Community\VC\Tools\MSVC\14.28.29333\include\xutility

; 1492 :         _It = static_cast<_UIter&&>(_UIt);

  00038	8b 45 fc	 mov	 eax, DWORD PTR __UDest$[ebp]
  0003b	89 45 10	 mov	 DWORD PTR __Dest$[ebp], eax
; File C:\Program Files (x86)\Microsoft Visual Studio\2019\Community\VC\Tools\MSVC\14.28.29333\include\xmemory

; 1647 :     return _Dest;

  0003e	8b 45 10	 mov	 eax, DWORD PTR __Dest$[ebp]

; 1648 : }

  00041	c9		 leave
  00042	c3		 ret	 0
??$uninitialized_copy@PAPAPAVCTerrain@@PAPAPAV1@@std@@YAPAPAPAVCTerrain@@QAPAPAV1@0PAPAPAV1@@Z ENDP ; std::uninitialized_copy<CTerrain * * *,CTerrain * * *>
_TEXT	ENDS
; Function compile flags: /Odspy
; File C:\Program Files (x86)\Microsoft Visual Studio\2019\Community\VC\Tools\MSVC\14.28.29333\include\xmemory
;	COMDAT ??$_Destroy_range@PAPAPAVCArea@@PAPAPAV1@@std@@YAXPAPAPAVCArea@@QAPAPAV1@@Z
_TEXT	SEGMENT
__First$ = 8						; size = 4
__Last$ = 12						; size = 4
??$_Destroy_range@PAPAPAVCArea@@PAPAPAV1@@std@@YAXPAPAPAVCArea@@QAPAPAV1@@Z PROC ; std::_Destroy_range<CArea * * *,CArea * * *>, COMDAT

; 974  : /* _CONSTEXPR20_DYNALLOC */ void _Destroy_range(_NoThrowFwdIt _First, const _NoThrowSentinel _Last) noexcept {

  00000	55		 push	 ebp
  00001	8b ec		 mov	 ebp, esp

; 975  :     // note that this is an optimization for debug mode codegen; in release mode the BE removes all of this
; 976  :     if _CONSTEXPR_IF (!is_trivially_destructible_v<_Iter_value_t<_NoThrowFwdIt>>) {
; 977  :         for (; _First != _Last; ++_First) {
; 978  :             _Destroy_in_place(*_First);
; 979  :         }
; 980  :     }
; 981  : }

  00003	5d		 pop	 ebp
  00004	c3		 ret	 0
??$_Destroy_range@PAPAPAVCArea@@PAPAPAV1@@std@@YAXPAPAPAVCArea@@QAPAPAV1@@Z ENDP ; std::_Destroy_range<CArea * * *,CArea * * *>
_TEXT	ENDS
; Function compile flags: /Odspy
; File C:\Program Files (x86)\Microsoft Visual Studio\2019\Community\VC\Tools\MSVC\14.28.29333\include\xmemory
;	COMDAT ??$_Uninitialized_value_construct_n_unchecked1@PAPAPAVCArea@@I@std@@YAPAPAPAVCArea@@PAPAPAV1@I@Z
_TEXT	SEGMENT
__UFirst$ = 8						; size = 4
__Count$ = 12						; size = 4
??$_Uninitialized_value_construct_n_unchecked1@PAPAPAVCArea@@I@std@@YAPAPAPAVCArea@@PAPAPAV1@I@Z PROC ; std::_Uninitialized_value_construct_n_unchecked1<CArea * * *,unsigned int>, COMDAT

; 1912 : _NoThrowFwdIt _Uninitialized_value_construct_n_unchecked1(_NoThrowFwdIt _UFirst, _Diff _Count) {

  00000	55		 push	 ebp
  00001	8b ec		 mov	 ebp, esp

; 1913 :     // value-initialize all elements in [_UFirst, _UFirst + _Count_raw)
; 1914 :     _STL_INTERNAL_CHECK(_Count >= 0);
; 1915 :     if constexpr (_Use_memset_value_construct_v<_NoThrowFwdIt>) {
; 1916 :         return _Zero_range(_UFirst, _UFirst + _Count);

  00003	8b 45 0c	 mov	 eax, DWORD PTR __Count$[ebp]
  00006	8b 4d 08	 mov	 ecx, DWORD PTR __UFirst$[ebp]
  00009	8d 04 81	 lea	 eax, DWORD PTR [ecx+eax*4]
  0000c	50		 push	 eax
  0000d	ff 75 08	 push	 DWORD PTR __UFirst$[ebp]
  00010	e8 00 00 00 00	 call	 ??$_Zero_range@PAPAPAVCArea@@@std@@YAPAPAPAVCArea@@QAPAPAV1@0@Z ; std::_Zero_range<CArea * * *>
  00015	59		 pop	 ecx
  00016	59		 pop	 ecx

; 1917 :     } else {
; 1918 :         _Uninitialized_backout<_NoThrowFwdIt> _Backout{_UFirst};
; 1919 :         for (; 0 < _Count; --_Count) {
; 1920 :             _Backout._Emplace_back();
; 1921 :         }
; 1922 : 
; 1923 :         return _Backout._Release();
; 1924 :     }
; 1925 : }

  00017	5d		 pop	 ebp
  00018	c3		 ret	 0
??$_Uninitialized_value_construct_n_unchecked1@PAPAPAVCArea@@I@std@@YAPAPAPAVCArea@@PAPAPAV1@I@Z ENDP ; std::_Uninitialized_value_construct_n_unchecked1<CArea * * *,unsigned int>
_TEXT	ENDS
; Function compile flags: /Odspy
; File C:\Program Files (x86)\Microsoft Visual Studio\2019\Community\VC\Tools\MSVC\14.28.29333\include\xmemory
; File C:\Program Files (x86)\Microsoft Visual Studio\2019\Community\VC\Tools\MSVC\14.28.29333\include\xutility
; File C:\Program Files (x86)\Microsoft Visual Studio\2019\Community\VC\Tools\MSVC\14.28.29333\include\xmemory
; File C:\Program Files (x86)\Microsoft Visual Studio\2019\Community\VC\Tools\MSVC\14.28.29333\include\xutility
; File C:\Program Files (x86)\Microsoft Visual Studio\2019\Community\VC\Tools\MSVC\14.28.29333\include\xmemory
;	COMDAT ??$uninitialized_copy@PAPAPAVCArea@@PAPAPAV1@@std@@YAPAPAPAVCArea@@QAPAPAV1@0PAPAPAV1@@Z
_TEXT	SEGMENT
$T1 = -16						; size = 4
__UFirst$ = -12						; size = 4
__ULast$ = -8						; size = 4
__UDest$ = -4						; size = 4
__First$ = 8						; size = 4
__Last$ = 12						; size = 4
__Dest$ = 16						; size = 4
??$uninitialized_copy@PAPAPAVCArea@@PAPAPAV1@@std@@YAPAPAPAVCArea@@QAPAPAV1@0PAPAPAV1@@Z PROC ; std::uninitialized_copy<CArea * * *,CArea * * *>, COMDAT

; 1629 : _NoThrowFwdIt uninitialized_copy(const _InIt _First, const _InIt _Last, _NoThrowFwdIt _Dest) {

  00000	55		 push	 ebp
  00001	8b ec		 mov	 ebp, esp
  00003	83 ec 10	 sub	 esp, 16			; 00000010H

; 1630 :     // copy [_First, _Last) to raw [_Dest, ...)
; 1631 :     _Adl_verify_range(_First, _Last);
; 1632 :     auto _UFirst      = _Get_unwrapped(_First);

  00006	8b 45 08	 mov	 eax, DWORD PTR __First$[ebp]
  00009	89 45 f4	 mov	 DWORD PTR __UFirst$[ebp], eax

; 1633 :     const auto _ULast = _Get_unwrapped(_Last);

  0000c	8b 45 0c	 mov	 eax, DWORD PTR __Last$[ebp]
  0000f	89 45 f8	 mov	 DWORD PTR __ULast$[ebp], eax
; File C:\Program Files (x86)\Microsoft Visual Studio\2019\Community\VC\Tools\MSVC\14.28.29333\include\xutility

; 1557 :         return static_cast<_Iter_diff_t<_Checked>>(_Last - _First);

  00012	8b 45 f8	 mov	 eax, DWORD PTR __ULast$[ebp]
  00015	2b 45 f4	 sub	 eax, DWORD PTR __UFirst$[ebp]
  00018	c1 f8 02	 sar	 eax, 2
  0001b	89 45 f0	 mov	 DWORD PTR $T1[ebp], eax
; File C:\Program Files (x86)\Microsoft Visual Studio\2019\Community\VC\Tools\MSVC\14.28.29333\include\xmemory

; 1634 :     auto _UDest       = _Get_unwrapped_n(_Dest, _Idl_distance<_InIt>(_UFirst, _ULast));

  0001e	8b 45 10	 mov	 eax, DWORD PTR __Dest$[ebp]
  00021	89 45 fc	 mov	 DWORD PTR __UDest$[ebp], eax

; 1635 :     if constexpr (_Ptr_copy_cat<decltype(_UFirst), decltype(_UDest)>::_Really_trivial) {
; 1636 :         _UDest = _Copy_memmove(_UFirst, _ULast, _UDest);

  00024	ff 75 fc	 push	 DWORD PTR __UDest$[ebp]
  00027	ff 75 f8	 push	 DWORD PTR __ULast$[ebp]
  0002a	ff 75 f4	 push	 DWORD PTR __UFirst$[ebp]
  0002d	e8 00 00 00 00	 call	 ??$_Copy_memmove@PAPAPAVCArea@@PAPAPAV1@@std@@YAPAPAPAVCArea@@PAPAPAV1@00@Z ; std::_Copy_memmove<CArea * * *,CArea * * *>
  00032	83 c4 0c	 add	 esp, 12			; 0000000cH
  00035	89 45 fc	 mov	 DWORD PTR __UDest$[ebp], eax
; File C:\Program Files (x86)\Microsoft Visual Studio\2019\Community\VC\Tools\MSVC\14.28.29333\include\xutility

; 1492 :         _It = static_cast<_UIter&&>(_UIt);

  00038	8b 45 fc	 mov	 eax, DWORD PTR __UDest$[ebp]
  0003b	89 45 10	 mov	 DWORD PTR __Dest$[ebp], eax
; File C:\Program Files (x86)\Microsoft Visual Studio\2019\Community\VC\Tools\MSVC\14.28.29333\include\xmemory

; 1647 :     return _Dest;

  0003e	8b 45 10	 mov	 eax, DWORD PTR __Dest$[ebp]

; 1648 : }

  00041	c9		 leave
  00042	c3		 ret	 0
??$uninitialized_copy@PAPAPAVCArea@@PAPAPAV1@@std@@YAPAPAPAVCArea@@QAPAPAV1@0PAPAPAV1@@Z ENDP ; std::uninitialized_copy<CArea * * *,CArea * * *>
_TEXT	ENDS
; Function compile flags: /Odspy
; File C:\Program Files (x86)\Microsoft Visual Studio\2019\Community\VC\Tools\MSVC\14.28.29333\include\xmemory
;	COMDAT ??$_Destroy_in_place@PAU?$_Tree_node@U?$pair@$$CBV?$basic_string@DU?$char_traits@D@std@@V?$allocator@D@2@@std@@V?$vector@V?$basic_string@DU?$char_traits@D@std@@V?$allocator@D@2@@std@@V?$allocator@V?$basic_string@DU?$char_traits@D@std@@V?$allocator@D@2@@std@@@2@@2@@std@@PAX@std@@@std@@YAXAAPAU?$_Tree_node@U?$pair@$$CBV?$basic_string@DU?$char_traits@D@std@@V?$allocator@D@2@@std@@V?$vector@V?$basic_string@DU?$char_traits@D@std@@V?$allocator@D@2@@std@@V?$allocator@V?$basic_string@DU?$char_traits@D@std@@V?$allocator@D@2@@std@@@2@@2@@std@@PAX@0@@Z
_TEXT	SEGMENT
__Obj$ = 8						; size = 4
??$_Destroy_in_place@PAU?$_Tree_node@U?$pair@$$CBV?$basic_string@DU?$char_traits@D@std@@V?$allocator@D@2@@std@@V?$vector@V?$basic_string@DU?$char_traits@D@std@@V?$allocator@D@2@@std@@V?$allocator@V?$basic_string@DU?$char_traits@D@std@@V?$allocator@D@2@@std@@@2@@2@@std@@PAX@std@@@std@@YAXAAPAU?$_Tree_node@U?$pair@$$CBV?$basic_string@DU?$char_traits@D@std@@V?$allocator@D@2@@std@@V?$vector@V?$basic_string@DU?$char_traits@D@std@@V?$allocator@D@2@@std@@V?$allocator@V?$basic_string@DU?$char_traits@D@std@@V?$allocator@D@2@@std@@@2@@2@@std@@PAX@0@@Z PROC ; std::_Destroy_in_place<std::_Tree_node<std::pair<std::basic_string<char,std::char_traits<char>,std::allocator<char> > const ,std::vector<std::basic_string<char,std::char_traits<char>,std::allocator<char> >,std::allocator<std::basic_string<char,std::char_traits<char>,std::allocator<char> > > > >,void *> *>, COMDAT

; 270  : /* _CONSTEXPR20_DYNALLOC */ void _Destroy_in_place(_Ty& _Obj) noexcept {

  00000	55		 push	 ebp
  00001	8b ec		 mov	 ebp, esp

; 271  : #if _HAS_IF_CONSTEXPR
; 272  :     if constexpr (is_array_v<_Ty>) {
; 273  :         _Destroy_range(_Obj, _Obj + extent_v<_Ty>);
; 274  :     } else
; 275  : #endif // _HAS_IF_CONSTEXPR
; 276  :     {
; 277  :         _Obj.~_Ty();
; 278  :     }
; 279  : }

  00003	5d		 pop	 ebp
  00004	c3		 ret	 0
??$_Destroy_in_place@PAU?$_Tree_node@U?$pair@$$CBV?$basic_string@DU?$char_traits@D@std@@V?$allocator@D@2@@std@@V?$vector@V?$basic_string@DU?$char_traits@D@std@@V?$allocator@D@2@@std@@V?$allocator@V?$basic_string@DU?$char_traits@D@std@@V?$allocator@D@2@@std@@@2@@2@@std@@PAX@std@@@std@@YAXAAPAU?$_Tree_node@U?$pair@$$CBV?$basic_string@DU?$char_traits@D@std@@V?$allocator@D@2@@std@@V?$vector@V?$basic_string@DU?$char_traits@D@std@@V?$allocator@D@2@@std@@V?$allocator@V?$basic_string@DU?$char_traits@D@std@@V?$allocator@D@2@@std@@@2@@2@@std@@PAX@0@@Z ENDP ; std::_Destroy_in_place<std::_Tree_node<std::pair<std::basic_string<char,std::char_traits<char>,std::allocator<char> > const ,std::vector<std::basic_string<char,std::char_traits<char>,std::allocator<char> >,std::allocator<std::basic_string<char,std::char_traits<char>,std::allocator<char> > > > >,void *> *>
_TEXT	ENDS
; Function compile flags: /Odspy
; File C:\Program Files (x86)\Microsoft Visual Studio\2019\Community\VC\Tools\MSVC\14.28.29333\include\xmemory
; File C:\Program Files (x86)\Microsoft Visual Studio\2019\Community\VC\Tools\MSVC\14.28.29333\include\xstddef
; File C:\Program Files (x86)\Microsoft Visual Studio\2019\Community\VC\Tools\MSVC\14.28.29333\include\vcruntime_new.h
; File C:\Program Files (x86)\Microsoft Visual Studio\2019\Community\VC\Tools\MSVC\14.28.29333\include\type_traits
; File C:\Program Files (x86)\Microsoft Visual Studio\2019\Community\VC\Tools\MSVC\14.28.29333\include\xmemory
;	COMDAT ??$_Construct_in_place@PAU?$_Tree_node@U?$pair@$$CBV?$basic_string@DU?$char_traits@D@std@@V?$allocator@D@2@@std@@V?$vector@V?$basic_string@DU?$char_traits@D@std@@V?$allocator@D@2@@std@@V?$allocator@V?$basic_string@DU?$char_traits@D@std@@V?$allocator@D@2@@std@@@2@@2@@std@@PAX@std@@ABQAU12@@std@@YAXAAPAU?$_Tree_node@U?$pair@$$CBV?$basic_string@DU?$char_traits@D@std@@V?$allocator@D@2@@std@@V?$vector@V?$basic_string@DU?$char_traits@D@std@@V?$allocator@D@2@@std@@V?$allocator@V?$basic_string@DU?$char_traits@D@std@@V?$allocator@D@2@@std@@@2@@2@@std@@PAX@0@ABQAU10@@Z
_TEXT	SEGMENT
$T1 = -12						; size = 4
$T2 = -8						; size = 4
$T3 = -4						; size = 4
__Obj$ = 8						; size = 4
_<_Args_0>$ = 12					; size = 4
??$_Construct_in_place@PAU?$_Tree_node@U?$pair@$$CBV?$basic_string@DU?$char_traits@D@std@@V?$allocator@D@2@@std@@V?$vector@V?$basic_string@DU?$char_traits@D@std@@V?$allocator@D@2@@std@@V?$allocator@V?$basic_string@DU?$char_traits@D@std@@V?$allocator@D@2@@std@@@2@@2@@std@@PAX@std@@ABQAU12@@std@@YAXAAPAU?$_Tree_node@U?$pair@$$CBV?$basic_string@DU?$char_traits@D@std@@V?$allocator@D@2@@std@@V?$vector@V?$basic_string@DU?$char_traits@D@std@@V?$allocator@D@2@@std@@V?$allocator@V?$basic_string@DU?$char_traits@D@std@@V?$allocator@D@2@@std@@@2@@2@@std@@PAX@0@ABQAU10@@Z PROC ; std::_Construct_in_place<std::_Tree_node<std::pair<std::basic_string<char,std::char_traits<char>,std::allocator<char> > const ,std::vector<std::basic_string<char,std::char_traits<char>,std::allocator<char> >,std::allocator<std::basic_string<char,std::char_traits<char>,std::allocator<char> > > > >,void *> *,std::_Tree_node<std::pair<std::basic_string<char,std::char_traits<char>,std::allocator<char> > const ,std::vector<std::basic_string<char,std::char_traits<char>,std::allocator<char> >,std::allocator<std::basic_string<char,std::char_traits<char>,std::allocator<char> > > > >,void *> * const &>, COMDAT

; 228  : void _Construct_in_place(_Ty& _Obj, _Types&&... _Args) noexcept(is_nothrow_constructible_v<_Ty, _Types...>) {

  00000	55		 push	 ebp
  00001	8b ec		 mov	 ebp, esp
  00003	83 ec 0c	 sub	 esp, 12			; 0000000cH
; File C:\Program Files (x86)\Microsoft Visual Studio\2019\Community\VC\Tools\MSVC\14.28.29333\include\xstddef

; 275  :     return __builtin_addressof(_Val);

  00006	8b 45 08	 mov	 eax, DWORD PTR __Obj$[ebp]
  00009	89 45 fc	 mov	 DWORD PTR $T3[ebp], eax
; File C:\Program Files (x86)\Microsoft Visual Studio\2019\Community\VC\Tools\MSVC\14.28.29333\include\vcruntime_new.h

; 169  :         return _Where;

  0000c	8b 45 fc	 mov	 eax, DWORD PTR $T3[ebp]
  0000f	89 45 f8	 mov	 DWORD PTR $T2[ebp], eax
; File C:\Program Files (x86)\Microsoft Visual Studio\2019\Community\VC\Tools\MSVC\14.28.29333\include\type_traits

; 1443 :     return static_cast<_Ty&&>(_Arg);

  00012	8b 45 0c	 mov	 eax, DWORD PTR _<_Args_0>$[ebp]
  00015	89 45 f4	 mov	 DWORD PTR $T1[ebp], eax
; File C:\Program Files (x86)\Microsoft Visual Studio\2019\Community\VC\Tools\MSVC\14.28.29333\include\xmemory

; 229  :     ::new (const_cast<void*>(static_cast<const volatile void*>(_STD addressof(_Obj))))

  00018	8b 45 f8	 mov	 eax, DWORD PTR $T2[ebp]
  0001b	8b 4d f4	 mov	 ecx, DWORD PTR $T1[ebp]
  0001e	8b 09		 mov	 ecx, DWORD PTR [ecx]
  00020	89 08		 mov	 DWORD PTR [eax], ecx

; 230  :         _Ty(_STD forward<_Types>(_Args)...);
; 231  : }

  00022	c9		 leave
  00023	c3		 ret	 0
??$_Construct_in_place@PAU?$_Tree_node@U?$pair@$$CBV?$basic_string@DU?$char_traits@D@std@@V?$allocator@D@2@@std@@V?$vector@V?$basic_string@DU?$char_traits@D@std@@V?$allocator@D@2@@std@@V?$allocator@V?$basic_string@DU?$char_traits@D@std@@V?$allocator@D@2@@std@@@2@@2@@std@@PAX@std@@ABQAU12@@std@@YAXAAPAU?$_Tree_node@U?$pair@$$CBV?$basic_string@DU?$char_traits@D@std@@V?$allocator@D@2@@std@@V?$vector@V?$basic_string@DU?$char_traits@D@std@@V?$allocator@D@2@@std@@V?$allocator@V?$basic_string@DU?$char_traits@D@std@@V?$allocator@D@2@@std@@@2@@2@@std@@PAX@0@ABQAU10@@Z ENDP ; std::_Construct_in_place<std::_Tree_node<std::pair<std::basic_string<char,std::char_traits<char>,std::allocator<char> > const ,std::vector<std::basic_string<char,std::char_traits<char>,std::allocator<char> >,std::allocator<std::basic_string<char,std::char_traits<char>,std::allocator<char> > > > >,void *> *,std::_Tree_node<std::pair<std::basic_string<char,std::char_traits<char>,std::allocator<char> > const ,std::vector<std::basic_string<char,std::char_traits<char>,std::allocator<char> >,std::allocator<std::basic_string<char,std::char_traits<char>,std::allocator<char> > > > >,void *> * const &>
_TEXT	ENDS
; Function compile flags: /Odspy
; File C:\Program Files (x86)\Microsoft Visual Studio\2019\Community\VC\Tools\MSVC\14.28.29333\include\xmemory
; File C:\Program Files (x86)\Microsoft Visual Studio\2019\Community\VC\Tools\MSVC\14.28.29333\include\xstddef
; File C:\Program Files (x86)\Microsoft Visual Studio\2019\Community\VC\Tools\MSVC\14.28.29333\include\vcruntime_new.h
; File C:\Program Files (x86)\Microsoft Visual Studio\2019\Community\VC\Tools\MSVC\14.28.29333\include\type_traits
; File C:\Program Files (x86)\Microsoft Visual Studio\2019\Community\VC\Tools\MSVC\14.28.29333\include\xmemory
;	COMDAT ??$_Construct_in_place@U_Container_proxy@std@@PAU_Container_base12@2@@std@@YAXAAU_Container_proxy@0@$$QAPAU_Container_base12@0@@Z
_TEXT	SEGMENT
__Mycont_$ = -16					; size = 4
$T1 = -12						; size = 4
$T2 = -8						; size = 4
$T3 = -4						; size = 4
__Obj$ = 8						; size = 4
_<_Args_0>$ = 12					; size = 4
??$_Construct_in_place@U_Container_proxy@std@@PAU_Container_base12@2@@std@@YAXAAU_Container_proxy@0@$$QAPAU_Container_base12@0@@Z PROC ; std::_Construct_in_place<std::_Container_proxy,std::_Container_base12 *>, COMDAT

; 228  : void _Construct_in_place(_Ty& _Obj, _Types&&... _Args) noexcept(is_nothrow_constructible_v<_Ty, _Types...>) {

  00000	55		 push	 ebp
  00001	8b ec		 mov	 ebp, esp
  00003	83 ec 10	 sub	 esp, 16			; 00000010H
; File C:\Program Files (x86)\Microsoft Visual Studio\2019\Community\VC\Tools\MSVC\14.28.29333\include\xstddef

; 275  :     return __builtin_addressof(_Val);

  00006	8b 45 08	 mov	 eax, DWORD PTR __Obj$[ebp]
  00009	89 45 f8	 mov	 DWORD PTR $T2[ebp], eax
; File C:\Program Files (x86)\Microsoft Visual Studio\2019\Community\VC\Tools\MSVC\14.28.29333\include\vcruntime_new.h

; 169  :         return _Where;

  0000c	8b 45 f8	 mov	 eax, DWORD PTR $T2[ebp]
  0000f	89 45 fc	 mov	 DWORD PTR $T3[ebp], eax
; File C:\Program Files (x86)\Microsoft Visual Studio\2019\Community\VC\Tools\MSVC\14.28.29333\include\type_traits

; 1443 :     return static_cast<_Ty&&>(_Arg);

  00012	8b 45 0c	 mov	 eax, DWORD PTR _<_Args_0>$[ebp]
  00015	89 45 f4	 mov	 DWORD PTR $T1[ebp], eax
; File C:\Program Files (x86)\Microsoft Visual Studio\2019\Community\VC\Tools\MSVC\14.28.29333\include\xmemory

; 229  :     ::new (const_cast<void*>(static_cast<const volatile void*>(_STD addressof(_Obj))))

  00018	8b 45 f4	 mov	 eax, DWORD PTR $T1[ebp]
  0001b	8b 00		 mov	 eax, DWORD PTR [eax]
  0001d	89 45 f0	 mov	 DWORD PTR __Mycont_$[ebp], eax

; 1089 :     _Container_proxy(_Container_base12* _Mycont_) noexcept : _Mycont(_Mycont_), _Myfirstiter(nullptr) {}

  00020	8b 45 fc	 mov	 eax, DWORD PTR $T3[ebp]
  00023	8b 4d f0	 mov	 ecx, DWORD PTR __Mycont_$[ebp]
  00026	89 08		 mov	 DWORD PTR [eax], ecx
  00028	8b 45 fc	 mov	 eax, DWORD PTR $T3[ebp]
  0002b	83 60 04 00	 and	 DWORD PTR [eax+4], 0

; 230  :         _Ty(_STD forward<_Types>(_Args)...);
; 231  : }

  0002f	c9		 leave
  00030	c3		 ret	 0
??$_Construct_in_place@U_Container_proxy@std@@PAU_Container_base12@2@@std@@YAXAAU_Container_proxy@0@$$QAPAU_Container_base12@0@@Z ENDP ; std::_Construct_in_place<std::_Container_proxy,std::_Container_base12 *>
_TEXT	ENDS
; Function compile flags: /Odspy
; File C:\Program Files (x86)\Microsoft Visual Studio\2019\Community\VC\Tools\MSVC\14.28.29333\include\xmemory
;	COMDAT ??$_Deallocate_plain@V?$allocator@U_Container_proxy@std@@@std@@@std@@YAXAAV?$allocator@U_Container_proxy@std@@@0@QAU_Container_proxy@0@@Z
_TEXT	SEGMENT
__Al$ = 8						; size = 4
__Ptr$ = 12						; size = 4
??$_Deallocate_plain@V?$allocator@U_Container_proxy@std@@@std@@@std@@YAXAAV?$allocator@U_Container_proxy@std@@@0@QAU_Container_proxy@0@@Z PROC ; std::_Deallocate_plain<std::allocator<std::_Container_proxy> >, COMDAT

; 1003 : void _Deallocate_plain(_Alloc& _Al, typename _Alloc::value_type* const _Ptr) noexcept {

  00000	55		 push	 ebp
  00001	8b ec		 mov	 ebp, esp

; 696  :         _Deallocate<_New_alignof<value_type>>(_Ptr, sizeof(value_type) * _Count);

  00003	33 c0		 xor	 eax, eax
  00005	40		 inc	 eax
  00006	c1 e0 03	 shl	 eax, 3
  00009	50		 push	 eax
  0000a	ff 75 0c	 push	 DWORD PTR __Ptr$[ebp]
  0000d	e8 00 00 00 00	 call	 ??$_Deallocate@$07$0A@@std@@YAXPAXI@Z ; std::_Deallocate<8,0>
  00012	59		 pop	 ecx
  00013	59		 pop	 ecx

; 1004 :     // deallocate a plain pointer using an allocator
; 1005 :     using _Alloc_traits = allocator_traits<_Alloc>;
; 1006 :     if constexpr (is_same_v<_Alloc_ptr_t<_Alloc>, typename _Alloc::value_type*>) {
; 1007 :         _Alloc_traits::deallocate(_Al, _Ptr, 1);
; 1008 :     } else {
; 1009 :         using _Ptr_traits = pointer_traits<_Alloc_ptr_t<_Alloc>>;
; 1010 :         _Alloc_traits::deallocate(_Al, _Ptr_traits::pointer_to(*_Ptr), 1);
; 1011 :     }
; 1012 : }

  00014	5d		 pop	 ebp
  00015	c3		 ret	 0
??$_Deallocate_plain@V?$allocator@U_Container_proxy@std@@@std@@@std@@YAXAAV?$allocator@U_Container_proxy@std@@@0@QAU_Container_proxy@0@@Z ENDP ; std::_Deallocate_plain<std::allocator<std::_Container_proxy> >
_TEXT	ENDS
; Function compile flags: /Odspy
; File C:\Program Files (x86)\Microsoft Visual Studio\2019\Community\VC\Tools\MSVC\14.28.29333\include\xtree
; File C:\Program Files (x86)\Microsoft Visual Studio\2019\Community\VC\Tools\MSVC\14.28.29333\include\xmemory
; File C:\Program Files (x86)\Microsoft Visual Studio\2019\Community\VC\Tools\MSVC\14.28.29333\include\xtree
;	COMDAT ??$_Freenode0@V?$allocator@U?$_Tree_node@U?$pair@$$CBV?$basic_string@DU?$char_traits@D@std@@V?$allocator@D@2@@std@@V?$vector@V?$basic_string@DU?$char_traits@D@std@@V?$allocator@D@2@@std@@V?$allocator@V?$basic_string@DU?$char_traits@D@std@@V?$allocator@D@2@@std@@@2@@2@@std@@PAX@std@@@std@@@?$_Tree_node@U?$pair@$$CBV?$basic_string@DU?$char_traits@D@std@@V?$allocator@D@2@@std@@V?$vector@V?$basic_string@DU?$char_traits@D@std@@V?$allocator@D@2@@std@@V?$allocator@V?$basic_string@DU?$char_traits@D@std@@V?$allocator@D@2@@std@@@2@@2@@std@@PAX@std@@SAXAAV?$allocator@U?$_Tree_node@U?$pair@$$CBV?$basic_string@DU?$char_traits@D@std@@V?$allocator@D@2@@std@@V?$vector@V?$basic_string@DU?$char_traits@D@std@@V?$allocator@D@2@@std@@V?$allocator@V?$basic_string@DU?$char_traits@D@std@@V?$allocator@D@2@@std@@@2@@2@@std@@PAX@std@@@1@PAU01@@Z
_TEXT	SEGMENT
__Al$ = 8						; size = 4
__Ptr$ = 12						; size = 4
??$_Freenode0@V?$allocator@U?$_Tree_node@U?$pair@$$CBV?$basic_string@DU?$char_traits@D@std@@V?$allocator@D@2@@std@@V?$vector@V?$basic_string@DU?$char_traits@D@std@@V?$allocator@D@2@@std@@V?$allocator@V?$basic_string@DU?$char_traits@D@std@@V?$allocator@D@2@@std@@@2@@2@@std@@PAX@std@@@std@@@?$_Tree_node@U?$pair@$$CBV?$basic_string@DU?$char_traits@D@std@@V?$allocator@D@2@@std@@V?$vector@V?$basic_string@DU?$char_traits@D@std@@V?$allocator@D@2@@std@@V?$allocator@V?$basic_string@DU?$char_traits@D@std@@V?$allocator@D@2@@std@@@2@@2@@std@@PAX@std@@SAXAAV?$allocator@U?$_Tree_node@U?$pair@$$CBV?$basic_string@DU?$char_traits@D@std@@V?$allocator@D@2@@std@@V?$vector@V?$basic_string@DU?$char_traits@D@std@@V?$allocator@D@2@@std@@V?$allocator@V?$basic_string@DU?$char_traits@D@std@@V?$allocator@D@2@@std@@@2@@2@@std@@PAX@std@@@1@PAU01@@Z PROC ; std::_Tree_node<std::pair<std::basic_string<char,std::char_traits<char>,std::allocator<char> > const ,std::vector<std::basic_string<char,std::char_traits<char>,std::allocator<char> >,std::allocator<std::basic_string<char,std::char_traits<char>,std::allocator<char> > > > >,void *>::_Freenode0<std::allocator<std::_Tree_node<std::pair<std::basic_string<char,std::char_traits<char>,std::allocator<char> > const ,std::vector<std::basic_string<char,std::char_traits<char>,std::allocator<char> >,std::allocator<std::basic_string<char,std::char_traits<char>,std::allocator<char> > > > >,void *> > >, COMDAT

; 368  :     static void _Freenode0(_Alloc& _Al, _Nodeptr _Ptr) noexcept {

  00000	55		 push	 ebp
  00001	8b ec		 mov	 ebp, esp

; 369  :         static_assert(is_same_v<typename _Alloc::value_type, _Tree_node>, "Bad _Freenode0 call");
; 370  :         _Destroy_in_place(_Ptr->_Left);

  00003	ff 75 0c	 push	 DWORD PTR __Ptr$[ebp]
  00006	e8 00 00 00 00	 call	 ??$_Destroy_in_place@PAU?$_Tree_node@U?$pair@$$CBV?$basic_string@DU?$char_traits@D@std@@V?$allocator@D@2@@std@@V?$vector@V?$basic_string@DU?$char_traits@D@std@@V?$allocator@D@2@@std@@V?$allocator@V?$basic_string@DU?$char_traits@D@std@@V?$allocator@D@2@@std@@@2@@2@@std@@PAX@std@@@std@@YAXAAPAU?$_Tree_node@U?$pair@$$CBV?$basic_string@DU?$char_traits@D@std@@V?$allocator@D@2@@std@@V?$vector@V?$basic_string@DU?$char_traits@D@std@@V?$allocator@D@2@@std@@V?$allocator@V?$basic_string@DU?$char_traits@D@std@@V?$allocator@D@2@@std@@@2@@2@@std@@PAX@0@@Z ; std::_Destroy_in_place<std::_Tree_node<std::pair<std::basic_string<char,std::char_traits<char>,std::allocator<char> > const ,std::vector<std::basic_string<char,std::char_traits<char>,std::allocator<char> >,std::allocator<std::basic_string<char,std::char_traits<char>,std::allocator<char> > > > >,void *> *>
  0000b	59		 pop	 ecx

; 371  :         _Destroy_in_place(_Ptr->_Parent);

  0000c	8b 45 0c	 mov	 eax, DWORD PTR __Ptr$[ebp]
  0000f	83 c0 04	 add	 eax, 4
  00012	50		 push	 eax
  00013	e8 00 00 00 00	 call	 ??$_Destroy_in_place@PAU?$_Tree_node@U?$pair@$$CBV?$basic_string@DU?$char_traits@D@std@@V?$allocator@D@2@@std@@V?$vector@V?$basic_string@DU?$char_traits@D@std@@V?$allocator@D@2@@std@@V?$allocator@V?$basic_string@DU?$char_traits@D@std@@V?$allocator@D@2@@std@@@2@@2@@std@@PAX@std@@@std@@YAXAAPAU?$_Tree_node@U?$pair@$$CBV?$basic_string@DU?$char_traits@D@std@@V?$allocator@D@2@@std@@V?$vector@V?$basic_string@DU?$char_traits@D@std@@V?$allocator@D@2@@std@@V?$allocator@V?$basic_string@DU?$char_traits@D@std@@V?$allocator@D@2@@std@@@2@@2@@std@@PAX@0@@Z ; std::_Destroy_in_place<std::_Tree_node<std::pair<std::basic_string<char,std::char_traits<char>,std::allocator<char> > const ,std::vector<std::basic_string<char,std::char_traits<char>,std::allocator<char> >,std::allocator<std::basic_string<char,std::char_traits<char>,std::allocator<char> > > > >,void *> *>
  00018	59		 pop	 ecx

; 372  :         _Destroy_in_place(_Ptr->_Right);

  00019	8b 45 0c	 mov	 eax, DWORD PTR __Ptr$[ebp]
  0001c	83 c0 08	 add	 eax, 8
  0001f	50		 push	 eax
  00020	e8 00 00 00 00	 call	 ??$_Destroy_in_place@PAU?$_Tree_node@U?$pair@$$CBV?$basic_string@DU?$char_traits@D@std@@V?$allocator@D@2@@std@@V?$vector@V?$basic_string@DU?$char_traits@D@std@@V?$allocator@D@2@@std@@V?$allocator@V?$basic_string@DU?$char_traits@D@std@@V?$allocator@D@2@@std@@@2@@2@@std@@PAX@std@@@std@@YAXAAPAU?$_Tree_node@U?$pair@$$CBV?$basic_string@DU?$char_traits@D@std@@V?$allocator@D@2@@std@@V?$vector@V?$basic_string@DU?$char_traits@D@std@@V?$allocator@D@2@@std@@V?$allocator@V?$basic_string@DU?$char_traits@D@std@@V?$allocator@D@2@@std@@@2@@2@@std@@PAX@0@@Z ; std::_Destroy_in_place<std::_Tree_node<std::pair<std::basic_string<char,std::char_traits<char>,std::allocator<char> > const ,std::vector<std::basic_string<char,std::char_traits<char>,std::allocator<char> >,std::allocator<std::basic_string<char,std::char_traits<char>,std::allocator<char> > > > >,void *> *>
  00025	59		 pop	 ecx
; File C:\Program Files (x86)\Microsoft Visual Studio\2019\Community\VC\Tools\MSVC\14.28.29333\include\xmemory

; 696  :         _Deallocate<_New_alignof<value_type>>(_Ptr, sizeof(value_type) * _Count);

  00026	33 c0		 xor	 eax, eax
  00028	40		 inc	 eax
  00029	6b c0 34	 imul	 eax, eax, 52
  0002c	50		 push	 eax
  0002d	ff 75 0c	 push	 DWORD PTR __Ptr$[ebp]
  00030	e8 00 00 00 00	 call	 ??$_Deallocate@$07$0A@@std@@YAXPAXI@Z ; std::_Deallocate<8,0>
  00035	59		 pop	 ecx
  00036	59		 pop	 ecx
; File C:\Program Files (x86)\Microsoft Visual Studio\2019\Community\VC\Tools\MSVC\14.28.29333\include\xtree

; 374  :     }

  00037	5d		 pop	 ebp
  00038	c3		 ret	 0
??$_Freenode0@V?$allocator@U?$_Tree_node@U?$pair@$$CBV?$basic_string@DU?$char_traits@D@std@@V?$allocator@D@2@@std@@V?$vector@V?$basic_string@DU?$char_traits@D@std@@V?$allocator@D@2@@std@@V?$allocator@V?$basic_string@DU?$char_traits@D@std@@V?$allocator@D@2@@std@@@2@@2@@std@@PAX@std@@@std@@@?$_Tree_node@U?$pair@$$CBV?$basic_string@DU?$char_traits@D@std@@V?$allocator@D@2@@std@@V?$vector@V?$basic_string@DU?$char_traits@D@std@@V?$allocator@D@2@@std@@V?$allocator@V?$basic_string@DU?$char_traits@D@std@@V?$allocator@D@2@@std@@@2@@2@@std@@PAX@std@@SAXAAV?$allocator@U?$_Tree_node@U?$pair@$$CBV?$basic_string@DU?$char_traits@D@std@@V?$allocator@D@2@@std@@V?$vector@V?$basic_string@DU?$char_traits@D@std@@V?$allocator@D@2@@std@@V?$allocator@V?$basic_string@DU?$char_traits@D@std@@V?$allocator@D@2@@std@@@2@@2@@std@@PAX@std@@@1@PAU01@@Z ENDP ; std::_Tree_node<std::pair<std::basic_string<char,std::char_traits<char>,std::allocator<char> > const ,std::vector<std::basic_string<char,std::char_traits<char>,std::allocator<char> >,std::allocator<std::basic_string<char,std::char_traits<char>,std::allocator<char> > > > >,void *>::_Freenode0<std::allocator<std::_Tree_node<std::pair<std::basic_string<char,std::char_traits<char>,std::allocator<char> > const ,std::vector<std::basic_string<char,std::char_traits<char>,std::allocator<char> >,std::allocator<std::basic_string<char,std::char_traits<char>,std::allocator<char> > > > >,void *> > >
_TEXT	ENDS
; Function compile flags: /Odspy
; File C:\Program Files (x86)\Microsoft Visual Studio\2019\Community\VC\Tools\MSVC\14.28.29333\include\xtree
; File C:\Program Files (x86)\Microsoft Visual Studio\2019\Community\VC\Tools\MSVC\14.28.29333\include\utility
; File C:\Program Files (x86)\Microsoft Visual Studio\2019\Community\VC\Tools\MSVC\14.28.29333\include\xtree
; File C:\Program Files (x86)\Microsoft Visual Studio\2019\Community\VC\Tools\MSVC\14.28.29333\include\xstddef
; File C:\Program Files (x86)\Microsoft Visual Studio\2019\Community\VC\Tools\MSVC\14.28.29333\include\xmemory
; File C:\Program Files (x86)\Microsoft Visual Studio\2019\Community\VC\Tools\MSVC\14.28.29333\include\xtree
;	COMDAT ??$_Erase_tree@V?$allocator@U?$_Tree_node@U?$pair@$$CBV?$basic_string@DU?$char_traits@D@std@@V?$allocator@D@2@@std@@V?$vector@V?$basic_string@DU?$char_traits@D@std@@V?$allocator@D@2@@std@@V?$allocator@V?$basic_string@DU?$char_traits@D@std@@V?$allocator@D@2@@std@@@2@@2@@std@@PAX@std@@@std@@@?$_Tree_val@U?$_Tree_simple_types@U?$pair@$$CBV?$basic_string@DU?$char_traits@D@std@@V?$allocator@D@2@@std@@V?$vector@V?$basic_string@DU?$char_traits@D@std@@V?$allocator@D@2@@std@@V?$allocator@V?$basic_string@DU?$char_traits@D@std@@V?$allocator@D@2@@std@@@2@@2@@std@@@std@@@std@@QAEXAAV?$allocator@U?$_Tree_node@U?$pair@$$CBV?$basic_string@DU?$char_traits@D@std@@V?$allocator@D@2@@std@@V?$vector@V?$basic_string@DU?$char_traits@D@std@@V?$allocator@D@2@@std@@V?$allocator@V?$basic_string@DU?$char_traits@D@std@@V?$allocator@D@2@@std@@@2@@2@@std@@PAX@std@@@1@PAU?$_Tree_node@U?$pair@$$CBV?$basic_string@DU?$char_traits@D@std@@V?$allocator@D@2@@std@@V?$vector@V?$basic_string@DU?$char_traits@D@std@@V?$allocator@D@2@@std@@V?$allocator@V?$basic_string@DU?$char_traits@D@std@@V?$allocator@D@2@@std@@@2@@2@@std@@PAX@1@@Z
_TEXT	SEGMENT
$T1 = -20						; size = 4
__Old_val$2 = -16					; size = 4
__New_val$ = -12					; size = 4
_this$ = -8						; size = 4
$T3 = -4						; size = 4
__Al$ = 8						; size = 4
__Rootnode$ = 12					; size = 4
??$_Erase_tree@V?$allocator@U?$_Tree_node@U?$pair@$$CBV?$basic_string@DU?$char_traits@D@std@@V?$allocator@D@2@@std@@V?$vector@V?$basic_string@DU?$char_traits@D@std@@V?$allocator@D@2@@std@@V?$allocator@V?$basic_string@DU?$char_traits@D@std@@V?$allocator@D@2@@std@@@2@@2@@std@@PAX@std@@@std@@@?$_Tree_val@U?$_Tree_simple_types@U?$pair@$$CBV?$basic_string@DU?$char_traits@D@std@@V?$allocator@D@2@@std@@V?$vector@V?$basic_string@DU?$char_traits@D@std@@V?$allocator@D@2@@std@@V?$allocator@V?$basic_string@DU?$char_traits@D@std@@V?$allocator@D@2@@std@@@2@@2@@std@@@std@@@std@@QAEXAAV?$allocator@U?$_Tree_node@U?$pair@$$CBV?$basic_string@DU?$char_traits@D@std@@V?$allocator@D@2@@std@@V?$vector@V?$basic_string@DU?$char_traits@D@std@@V?$allocator@D@2@@std@@V?$allocator@V?$basic_string@DU?$char_traits@D@std@@V?$allocator@D@2@@std@@@2@@2@@std@@PAX@std@@@1@PAU?$_Tree_node@U?$pair@$$CBV?$basic_string@DU?$char_traits@D@std@@V?$allocator@D@2@@std@@V?$vector@V?$basic_string@DU?$char_traits@D@std@@V?$allocator@D@2@@std@@V?$allocator@V?$basic_string@DU?$char_traits@D@std@@V?$allocator@D@2@@std@@@2@@2@@std@@PAX@1@@Z PROC ; std::_Tree_val<std::_Tree_simple_types<std::pair<std::basic_string<char,std::char_traits<char>,std::allocator<char> > const ,std::vector<std::basic_string<char,std::char_traits<char>,std::allocator<char> >,std::allocator<std::basic_string<char,std::char_traits<char>,std::allocator<char> > > > > > >::_Erase_tree<std::allocator<std::_Tree_node<std::pair<std::basic_string<char,std::char_traits<char>,std::allocator<char> > const ,std::vector<std::basic_string<char,std::char_traits<char>,std::allocator<char> >,std::allocator<std::basic_string<char,std::char_traits<char>,std::allocator<char> > > > >,void *> > >, COMDAT
; _this$ = ecx

; 742  :     void _Erase_tree(_Alnode& _Al, _Nodeptr _Rootnode) noexcept {

  00000	55		 push	 ebp
  00001	8b ec		 mov	 ebp, esp
  00003	83 ec 14	 sub	 esp, 20			; 00000014H
  00006	89 4d f8	 mov	 DWORD PTR _this$[ebp], ecx
$LN2@Erase_tree:

; 743  :         while (!_Rootnode->_Isnil) { // free subtrees, then node

  00009	8b 45 0c	 mov	 eax, DWORD PTR __Rootnode$[ebp]
  0000c	0f be 40 0d	 movsx	 eax, BYTE PTR [eax+13]
  00010	85 c0		 test	 eax, eax
  00012	75 4d		 jne	 SHORT $LN4@Erase_tree

; 744  :             _Erase_tree(_Al, _Rootnode->_Right);

  00014	8b 45 0c	 mov	 eax, DWORD PTR __Rootnode$[ebp]
  00017	ff 70 08	 push	 DWORD PTR [eax+8]
  0001a	ff 75 08	 push	 DWORD PTR __Al$[ebp]
  0001d	8b 4d f8	 mov	 ecx, DWORD PTR _this$[ebp]
  00020	e8 00 00 00 00	 call	 ??$_Erase_tree@V?$allocator@U?$_Tree_node@U?$pair@$$CBV?$basic_string@DU?$char_traits@D@std@@V?$allocator@D@2@@std@@V?$vector@V?$basic_string@DU?$char_traits@D@std@@V?$allocator@D@2@@std@@V?$allocator@V?$basic_string@DU?$char_traits@D@std@@V?$allocator@D@2@@std@@@2@@2@@std@@PAX@std@@@std@@@?$_Tree_val@U?$_Tree_simple_types@U?$pair@$$CBV?$basic_string@DU?$char_traits@D@std@@V?$allocator@D@2@@std@@V?$vector@V?$basic_string@DU?$char_traits@D@std@@V?$allocator@D@2@@std@@V?$allocator@V?$basic_string@DU?$char_traits@D@std@@V?$allocator@D@2@@std@@@2@@2@@std@@@std@@@std@@QAEXAAV?$allocator@U?$_Tree_node@U?$pair@$$CBV?$basic_string@DU?$char_traits@D@std@@V?$allocator@D@2@@std@@V?$vector@V?$basic_string@DU?$char_traits@D@std@@V?$allocator@D@2@@std@@V?$allocator@V?$basic_string@DU?$char_traits@D@std@@V?$allocator@D@2@@std@@@2@@2@@std@@PAX@std@@@1@PAU?$_Tree_node@U?$pair@$$CBV?$basic_string@DU?$char_traits@D@std@@V?$allocator@D@2@@std@@V?$vector@V?$basic_string@DU?$char_traits@D@std@@V?$allocator@D@2@@std@@V?$allocator@V?$basic_string@DU?$char_traits@D@std@@V?$allocator@D@2@@std@@@2@@2@@std@@PAX@1@@Z ; std::_Tree_val<std::_Tree_simple_types<std::pair<std::basic_string<char,std::char_traits<char>,std::allocator<char> > const ,std::vector<std::basic_string<char,std::char_traits<char>,std::allocator<char> >,std::allocator<std::basic_string<char,std::char_traits<char>,std::allocator<char> > > > > > >::_Erase_tree<std::allocator<std::_Tree_node<std::pair<std::basic_string<char,std::char_traits<char>,std::allocator<char> > const ,std::vector<std::basic_string<char,std::char_traits<char>,std::allocator<char> >,std::allocator<std::basic_string<char,std::char_traits<char>,std::allocator<char> > > > >,void *> > >

; 745  :             _Alnode::value_type::_Freenode(_Al, _STD exchange(_Rootnode, _Rootnode->_Left));

  00025	8b 45 0c	 mov	 eax, DWORD PTR __Rootnode$[ebp]
  00028	89 45 f4	 mov	 DWORD PTR __New_val$[ebp], eax
; File C:\Program Files (x86)\Microsoft Visual Studio\2019\Community\VC\Tools\MSVC\14.28.29333\include\utility

; 598  :     _Ty _Old_val = static_cast<_Ty&&>(_Val);

  0002b	8b 45 0c	 mov	 eax, DWORD PTR __Rootnode$[ebp]
  0002e	89 45 f0	 mov	 DWORD PTR __Old_val$2[ebp], eax

; 599  :     _Val         = static_cast<_Other&&>(_New_val);

  00031	8b 45 f4	 mov	 eax, DWORD PTR __New_val$[ebp]
  00034	8b 00		 mov	 eax, DWORD PTR [eax]
  00036	89 45 0c	 mov	 DWORD PTR __Rootnode$[ebp], eax

; 600  :     return _Old_val;

  00039	8b 45 f0	 mov	 eax, DWORD PTR __Old_val$2[ebp]
  0003c	89 45 fc	 mov	 DWORD PTR $T3[ebp], eax
; File C:\Program Files (x86)\Microsoft Visual Studio\2019\Community\VC\Tools\MSVC\14.28.29333\include\xtree

; 379  :         allocator_traits<_Alloc>::destroy(_Al, _STD addressof(_Ptr->_Myval));

  0003f	8b 45 fc	 mov	 eax, DWORD PTR $T3[ebp]
  00042	83 c0 10	 add	 eax, 16			; 00000010H
; File C:\Program Files (x86)\Microsoft Visual Studio\2019\Community\VC\Tools\MSVC\14.28.29333\include\xstddef

; 275  :     return __builtin_addressof(_Val);

  00045	89 45 ec	 mov	 DWORD PTR $T1[ebp], eax
; File C:\Program Files (x86)\Microsoft Visual Studio\2019\Community\VC\Tools\MSVC\14.28.29333\include\xmemory

; 706  :         _Ptr->~_Uty();

  00048	6a 00		 push	 0
  0004a	8b 4d ec	 mov	 ecx, DWORD PTR $T1[ebp]
  0004d	e8 00 00 00 00	 call	 ??_G?$pair@$$CBV?$basic_string@DU?$char_traits@D@std@@V?$allocator@D@2@@std@@V?$vector@V?$basic_string@DU?$char_traits@D@std@@V?$allocator@D@2@@std@@V?$allocator@V?$basic_string@DU?$char_traits@D@std@@V?$allocator@D@2@@std@@@2@@2@@std@@QAEPAXI@Z
; File C:\Program Files (x86)\Microsoft Visual Studio\2019\Community\VC\Tools\MSVC\14.28.29333\include\xtree

; 380  :         _Freenode0(_Al, _Ptr);

  00052	ff 75 fc	 push	 DWORD PTR $T3[ebp]
  00055	ff 75 08	 push	 DWORD PTR __Al$[ebp]
  00058	e8 00 00 00 00	 call	 ??$_Freenode0@V?$allocator@U?$_Tree_node@U?$pair@$$CBV?$basic_string@DU?$char_traits@D@std@@V?$allocator@D@2@@std@@V?$vector@V?$basic_string@DU?$char_traits@D@std@@V?$allocator@D@2@@std@@V?$allocator@V?$basic_string@DU?$char_traits@D@std@@V?$allocator@D@2@@std@@@2@@2@@std@@PAX@std@@@std@@@?$_Tree_node@U?$pair@$$CBV?$basic_string@DU?$char_traits@D@std@@V?$allocator@D@2@@std@@V?$vector@V?$basic_string@DU?$char_traits@D@std@@V?$allocator@D@2@@std@@V?$allocator@V?$basic_string@DU?$char_traits@D@std@@V?$allocator@D@2@@std@@@2@@2@@std@@PAX@std@@SAXAAV?$allocator@U?$_Tree_node@U?$pair@$$CBV?$basic_string@DU?$char_traits@D@std@@V?$allocator@D@2@@std@@V?$vector@V?$basic_string@DU?$char_traits@D@std@@V?$allocator@D@2@@std@@V?$allocator@V?$basic_string@DU?$char_traits@D@std@@V?$allocator@D@2@@std@@@2@@2@@std@@PAX@std@@@1@PAU01@@Z ; std::_Tree_node<std::pair<std::basic_string<char,std::char_traits<char>,std::allocator<char> > const ,std::vector<std::basic_string<char,std::char_traits<char>,std::allocator<char> >,std::allocator<std::basic_string<char,std::char_traits<char>,std::allocator<char> > > > >,void *>::_Freenode0<std::allocator<std::_Tree_node<std::pair<std::basic_string<char,std::char_traits<char>,std::allocator<char> > const ,std::vector<std::basic_string<char,std::char_traits<char>,std::allocator<char> >,std::allocator<std::basic_string<char,std::char_traits<char>,std::allocator<char> > > > >,void *> > >
  0005d	59		 pop	 ecx
  0005e	59		 pop	 ecx

; 746  :         }

  0005f	eb a8		 jmp	 SHORT $LN2@Erase_tree
$LN4@Erase_tree:

; 747  :     }

  00061	c9		 leave
  00062	c2 08 00	 ret	 8
??$_Erase_tree@V?$allocator@U?$_Tree_node@U?$pair@$$CBV?$basic_string@DU?$char_traits@D@std@@V?$allocator@D@2@@std@@V?$vector@V?$basic_string@DU?$char_traits@D@std@@V?$allocator@D@2@@std@@V?$allocator@V?$basic_string@DU?$char_traits@D@std@@V?$allocator@D@2@@std@@@2@@2@@std@@PAX@std@@@std@@@?$_Tree_val@U?$_Tree_simple_types@U?$pair@$$CBV?$basic_string@DU?$char_traits@D@std@@V?$allocator@D@2@@std@@V?$vector@V?$basic_string@DU?$char_traits@D@std@@V?$allocator@D@2@@std@@V?$allocator@V?$basic_string@DU?$char_traits@D@std@@V?$allocator@D@2@@std@@@2@@2@@std@@@std@@@std@@QAEXAAV?$allocator@U?$_Tree_node@U?$pair@$$CBV?$basic_string@DU?$char_traits@D@std@@V?$allocator@D@2@@std@@V?$vector@V?$basic_string@DU?$char_traits@D@std@@V?$allocator@D@2@@std@@V?$allocator@V?$basic_string@DU?$char_traits@D@std@@V?$allocator@D@2@@std@@@2@@2@@std@@PAX@std@@@1@PAU?$_Tree_node@U?$pair@$$CBV?$basic_string@DU?$char_traits@D@std@@V?$allocator@D@2@@std@@V?$vector@V?$basic_string@DU?$char_traits@D@std@@V?$allocator@D@2@@std@@V?$allocator@V?$basic_string@DU?$char_traits@D@std@@V?$allocator@D@2@@std@@@2@@2@@std@@PAX@1@@Z ENDP ; std::_Tree_val<std::_Tree_simple_types<std::pair<std::basic_string<char,std::char_traits<char>,std::allocator<char> > const ,std::vector<std::basic_string<char,std::char_traits<char>,std::allocator<char> >,std::allocator<std::basic_string<char,std::char_traits<char>,std::allocator<char> > > > > > >::_Erase_tree<std::allocator<std::_Tree_node<std::pair<std::basic_string<char,std::char_traits<char>,std::allocator<char> > const ,std::vector<std::basic_string<char,std::char_traits<char>,std::allocator<char> >,std::allocator<std::basic_string<char,std::char_traits<char>,std::allocator<char> > > > >,void *> > >
_TEXT	ENDS
; Function compile flags: /Odspy
; File C:\Program Files (x86)\Microsoft Visual Studio\2019\Community\VC\Tools\MSVC\14.28.29333\include\xtree
; File C:\Program Files (x86)\Microsoft Visual Studio\2019\Community\VC\Tools\MSVC\14.28.29333\include\xmemory
; File C:\Program Files (x86)\Microsoft Visual Studio\2019\Community\VC\Tools\MSVC\14.28.29333\include\xtree
; File C:\Program Files (x86)\Microsoft Visual Studio\2019\Community\VC\Tools\MSVC\14.28.29333\include\type_traits
; File C:\Program Files (x86)\Microsoft Visual Studio\2019\Community\VC\Tools\MSVC\14.28.29333\include\xtree
; File C:\Program Files (x86)\Microsoft Visual Studio\2019\Community\VC\Tools\MSVC\14.28.29333\include\xstddef
; File C:\Program Files (x86)\Microsoft Visual Studio\2019\Community\VC\Tools\MSVC\14.28.29333\include\xtree
;	COMDAT ??$?0ABUpiecewise_construct_t@std@@V?$tuple@$$QAV?$basic_string@DU?$char_traits@D@std@@V?$allocator@D@2@@std@@@1@V?$tuple@$$V@1@@?$_Tree_temp_node@V?$allocator@U?$_Tree_node@U?$pair@$$CBV?$basic_string@DU?$char_traits@D@std@@V?$allocator@D@2@@std@@V?$vector@V?$basic_string@DU?$char_traits@D@std@@V?$allocator@D@2@@std@@V?$allocator@V?$basic_string@DU?$char_traits@D@std@@V?$allocator@D@2@@std@@@2@@2@@std@@PAX@std@@@std@@@std@@QAE@AAV?$allocator@U?$_Tree_node@U?$pair@$$CBV?$basic_string@DU?$char_traits@D@std@@V?$allocator@D@2@@std@@V?$vector@V?$basic_string@DU?$char_traits@D@std@@V?$allocator@D@2@@std@@V?$allocator@V?$basic_string@DU?$char_traits@D@std@@V?$allocator@D@2@@std@@@2@@2@@std@@PAX@std@@@1@PAU?$_Tree_node@U?$pair@$$CBV?$basic_string@DU?$char_traits@D@std@@V?$allocator@D@2@@std@@V?$vector@V?$basic_string@DU?$char_traits@D@std@@V?$allocator@D@2@@std@@V?$allocator@V?$basic_string@DU?$char_traits@D@std@@V?$allocator@D@2@@std@@@2@@2@@std@@PAX@1@ABUpiecewise_construct_t@1@$$QAV?$tuple@$$QAV?$basic_string@DU?$char_traits@D@std@@V?$allocator@D@2@@std@@@1@$$QAV?$tuple@$$V@1@@Z
_TEXT	SEGMENT
$T2 = -36						; size = 4
$T3 = -32						; size = 4
$T4 = -28						; size = 4
$T5 = -24						; size = 4
__Val$ = -20						; size = 4
_this$ = -16						; size = 4
__$EHRec$ = -12						; size = 12
__Al_$ = 8						; size = 4
__Myhead$ = 12						; size = 4
_<_Vals_0>$ = 16					; size = 4
_<_Vals_1>$ = 20					; size = 4
_<_Vals_2>$ = 24					; size = 4
??$?0ABUpiecewise_construct_t@std@@V?$tuple@$$QAV?$basic_string@DU?$char_traits@D@std@@V?$allocator@D@2@@std@@@1@V?$tuple@$$V@1@@?$_Tree_temp_node@V?$allocator@U?$_Tree_node@U?$pair@$$CBV?$basic_string@DU?$char_traits@D@std@@V?$allocator@D@2@@std@@V?$vector@V?$basic_string@DU?$char_traits@D@std@@V?$allocator@D@2@@std@@V?$allocator@V?$basic_string@DU?$char_traits@D@std@@V?$allocator@D@2@@std@@@2@@2@@std@@PAX@std@@@std@@@std@@QAE@AAV?$allocator@U?$_Tree_node@U?$pair@$$CBV?$basic_string@DU?$char_traits@D@std@@V?$allocator@D@2@@std@@V?$vector@V?$basic_string@DU?$char_traits@D@std@@V?$allocator@D@2@@std@@V?$allocator@V?$basic_string@DU?$char_traits@D@std@@V?$allocator@D@2@@std@@@2@@2@@std@@PAX@std@@@1@PAU?$_Tree_node@U?$pair@$$CBV?$basic_string@DU?$char_traits@D@std@@V?$allocator@D@2@@std@@V?$vector@V?$basic_string@DU?$char_traits@D@std@@V?$allocator@D@2@@std@@V?$allocator@V?$basic_string@DU?$char_traits@D@std@@V?$allocator@D@2@@std@@@2@@2@@std@@PAX@1@ABUpiecewise_construct_t@1@$$QAV?$tuple@$$QAV?$basic_string@DU?$char_traits@D@std@@V?$allocator@D@2@@std@@@1@$$QAV?$tuple@$$V@1@@Z PROC ; std::_Tree_temp_node<std::allocator<std::_Tree_node<std::pair<std::basic_string<char,std::char_traits<char>,std::allocator<char> > const ,std::vector<std::basic_string<char,std::char_traits<char>,std::allocator<char> >,std::allocator<std::basic_string<char,std::char_traits<char>,std::allocator<char> > > > >,void *> > >::_Tree_temp_node<std::allocator<std::_Tree_node<std::pair<std::basic_string<char,std::char_traits<char>,std::allocator<char> > const ,std::vector<std::basic_string<char,std::char_traits<char>,std::allocator<char> >,std::allocator<std::basic_string<char,std::char_traits<char>,std::allocator<char> > > > >,void *> > ><std::piecewise_construct_t const &,std::tuple<std::basic_string<char,std::char_traits<char>,std::allocator<char> > &&>,std::tuple<> >, COMDAT
; _this$ = ecx

; 805  :         : _Tree_temp_node_alloc<_Alnode>(_Al_) {

  00000	55		 push	 ebp
  00001	8b ec		 mov	 ebp, esp
  00003	6a ff		 push	 -1
  00005	68 00 00 00 00	 push	 __ehhandler$??$?0ABUpiecewise_construct_t@std@@V?$tuple@$$QAV?$basic_string@DU?$char_traits@D@std@@V?$allocator@D@2@@std@@@1@V?$tuple@$$V@1@@?$_Tree_temp_node@V?$allocator@U?$_Tree_node@U?$pair@$$CBV?$basic_string@DU?$char_traits@D@std@@V?$allocator@D@2@@std@@V?$vector@V?$basic_string@DU?$char_traits@D@std@@V?$allocator@D@2@@std@@V?$allocator@V?$basic_string@DU?$char_traits@D@std@@V?$allocator@D@2@@std@@@2@@2@@std@@PAX@std@@@std@@@std@@QAE@AAV?$allocator@U?$_Tree_node@U?$pair@$$CBV?$basic_string@DU?$char_traits@D@std@@V?$allocator@D@2@@std@@V?$vector@V?$basic_string@DU?$char_traits@D@std@@V?$allocator@D@2@@std@@V?$allocator@V?$basic_string@DU?$char_traits@D@std@@V?$allocator@D@2@@std@@@2@@2@@std@@PAX@std@@@1@PAU?$_Tree_node@U?$pair@$$CBV?$basic_string@DU?$char_traits@D@std@@V?$allocator@D@2@@std@@V?$vector@V?$basic_string@DU?$char_traits@D@std@@V?$allocator@D@2@@std@@V?$allocator@V?$basic_string@DU?$char_traits@D@std@@V?$allocator@D@2@@std@@@2@@2@@std@@PAX@1@ABUpiecewise_construct_t@1@$$QAV?$tuple@$$QAV?$basic_string@DU?$char_traits@D@std@@V?$allocator@D@2@@std@@@1@$$QAV?$tuple@$$V@1@@Z
  0000a	64 a1 00 00 00
	00		 mov	 eax, DWORD PTR fs:0
  00010	50		 push	 eax
  00011	83 ec 18	 sub	 esp, 24			; 00000018H
  00014	a1 00 00 00 00	 mov	 eax, DWORD PTR ___security_cookie
  00019	33 c5		 xor	 eax, ebp
  0001b	50		 push	 eax
  0001c	8d 45 f4	 lea	 eax, DWORD PTR __$EHRec$[ebp]
  0001f	64 a3 00 00 00
	00		 mov	 DWORD PTR fs:0, eax
  00025	89 4d f0	 mov	 DWORD PTR _this$[ebp], ecx
; File C:\Program Files (x86)\Microsoft Visual Studio\2019\Community\VC\Tools\MSVC\14.28.29333\include\xmemory

; 1045 :     explicit _Alloc_construct_ptr(_Alloc& _Al_) : _Al(_Al_), _Ptr(nullptr) {}

  00028	8b 45 f0	 mov	 eax, DWORD PTR _this$[ebp]
  0002b	8b 4d 08	 mov	 ecx, DWORD PTR __Al_$[ebp]
  0002e	89 08		 mov	 DWORD PTR [eax], ecx
  00030	8b 45 f0	 mov	 eax, DWORD PTR _this$[ebp]
  00033	83 60 04 00	 and	 DWORD PTR [eax+4], 0
; File C:\Program Files (x86)\Microsoft Visual Studio\2019\Community\VC\Tools\MSVC\14.28.29333\include\xtree

; 784  :     explicit _Tree_temp_node_alloc(_Alnode& _Al_) : _Alloc_construct_ptr<_Alnode>(_Al_) {

  00037	83 65 fc 00	 and	 DWORD PTR __$EHRec$[ebp+8], 0

; 785  :         _Alloc_construct_ptr<_Alnode>::_Allocate();

  0003b	8b 4d f0	 mov	 ecx, DWORD PTR _this$[ebp]
  0003e	e8 00 00 00 00	 call	 ?_Allocate@?$_Alloc_construct_ptr@V?$allocator@U?$_Tree_node@U?$pair@$$CBV?$basic_string@DU?$char_traits@D@std@@V?$allocator@D@2@@std@@V?$vector@V?$basic_string@DU?$char_traits@D@std@@V?$allocator@D@2@@std@@V?$allocator@V?$basic_string@DU?$char_traits@D@std@@V?$allocator@D@2@@std@@@2@@2@@std@@PAX@std@@@std@@@std@@QAEXXZ ; std::_Alloc_construct_ptr<std::allocator<std::_Tree_node<std::pair<std::basic_string<char,std::char_traits<char>,std::allocator<char> > const ,std::vector<std::basic_string<char,std::char_traits<char>,std::allocator<char> >,std::allocator<std::basic_string<char,std::char_traits<char>,std::allocator<char> > > > >,void *> > >::_Allocate

; 805  :         : _Tree_temp_node_alloc<_Alnode>(_Al_) {

  00043	c7 45 fc 01 00
	00 00		 mov	 DWORD PTR __$EHRec$[ebp+8], 1
; File C:\Program Files (x86)\Microsoft Visual Studio\2019\Community\VC\Tools\MSVC\14.28.29333\include\type_traits

; 1443 :     return static_cast<_Ty&&>(_Arg);

  0004a	8b 45 18	 mov	 eax, DWORD PTR _<_Vals_2>$[ebp]
  0004d	89 45 e8	 mov	 DWORD PTR $T5[ebp], eax
  00050	8b 45 14	 mov	 eax, DWORD PTR _<_Vals_1>$[ebp]
  00053	89 45 e4	 mov	 DWORD PTR $T4[ebp], eax
  00056	8b 45 10	 mov	 eax, DWORD PTR _<_Vals_0>$[ebp]
  00059	89 45 e0	 mov	 DWORD PTR $T3[ebp], eax
; File C:\Program Files (x86)\Microsoft Visual Studio\2019\Community\VC\Tools\MSVC\14.28.29333\include\xtree

; 806  :         _Alnode_traits::construct(this->_Al, _STD addressof(this->_Ptr->_Myval), _STD forward<_Valtys>(_Vals)...);

  0005c	8b 45 f0	 mov	 eax, DWORD PTR _this$[ebp]
  0005f	8b 40 04	 mov	 eax, DWORD PTR [eax+4]
  00062	83 c0 10	 add	 eax, 16			; 00000010H
  00065	89 45 ec	 mov	 DWORD PTR __Val$[ebp], eax
; File C:\Program Files (x86)\Microsoft Visual Studio\2019\Community\VC\Tools\MSVC\14.28.29333\include\xstddef

; 275  :     return __builtin_addressof(_Val);

  00068	8b 45 ec	 mov	 eax, DWORD PTR __Val$[ebp]
  0006b	89 45 dc	 mov	 DWORD PTR $T2[ebp], eax
; File C:\Program Files (x86)\Microsoft Visual Studio\2019\Community\VC\Tools\MSVC\14.28.29333\include\xtree

; 806  :         _Alnode_traits::construct(this->_Al, _STD addressof(this->_Ptr->_Myval), _STD forward<_Valtys>(_Vals)...);

  0006e	ff 75 e8	 push	 DWORD PTR $T5[ebp]
  00071	ff 75 e4	 push	 DWORD PTR $T4[ebp]
  00074	ff 75 e0	 push	 DWORD PTR $T3[ebp]
  00077	ff 75 dc	 push	 DWORD PTR $T2[ebp]
  0007a	8b 45 f0	 mov	 eax, DWORD PTR _this$[ebp]
  0007d	ff 30		 push	 DWORD PTR [eax]
  0007f	e8 00 00 00 00	 call	 ??$construct@U?$pair@$$CBV?$basic_string@DU?$char_traits@D@std@@V?$allocator@D@2@@std@@V?$vector@V?$basic_string@DU?$char_traits@D@std@@V?$allocator@D@2@@std@@V?$allocator@V?$basic_string@DU?$char_traits@D@std@@V?$allocator@D@2@@std@@@2@@2@@std@@ABUpiecewise_construct_t@2@V?$tuple@$$QAV?$basic_string@DU?$char_traits@D@std@@V?$allocator@D@2@@std@@@2@V?$tuple@$$V@2@@?$_Default_allocator_traits@V?$allocator@U?$_Tree_node@U?$pair@$$CBV?$basic_string@DU?$char_traits@D@std@@V?$allocator@D@2@@std@@V?$vector@V?$basic_string@DU?$char_traits@D@std@@V?$allocator@D@2@@std@@V?$allocator@V?$basic_string@DU?$char_traits@D@std@@V?$allocator@D@2@@std@@@2@@2@@std@@PAX@std@@@std@@@std@@SAXAAV?$allocator@U?$_Tree_node@U?$pair@$$CBV?$basic_string@DU?$char_traits@D@std@@V?$allocator@D@2@@std@@V?$vector@V?$basic_string@DU?$char_traits@D@std@@V?$allocator@D@2@@std@@V?$allocator@V?$basic_string@DU?$char_traits@D@std@@V?$allocator@D@2@@std@@@2@@2@@std@@PAX@std@@@1@QAU?$pair@$$CBV?$basic_string@DU?$char_traits@D@std@@V?$allocator@D@2@@std@@V?$vector@V?$basic_string@DU?$char_traits@D@std@@V?$allocator@D@2@@std@@V?$allocator@V?$basic_string@DU?$char_traits@D@std@@V?$allocator@D@2@@std@@@2@@2@@1@ABUpiecewise_construct_t@1@$$QAV?$tuple@$$QAV?$basic_string@DU?$char_traits@D@std@@V?$allocator@D@2@@std@@@1@$$QAV?$tuple@$$V@1@@Z ; std::_Default_allocator_traits<std::allocator<std::_Tree_node<std::pair<std::basic_string<char,std::char_traits<char>,std::allocator<char> > const ,std::vector<std::basic_string<char,std::char_traits<char>,std::allocator<char> >,std::allocator<std::basic_string<char,std::char_traits<char>,std::allocator<char> > > > >,void *> > >::construct<std::pair<std::basic_string<char,std::char_traits<char>,std::allocator<char> > const ,std::vector<std::basic_string<char,std::char_traits<char>,std::allocator<char> >,std::allocator<std::basic_string<char,std::char_traits<char>,std::allocator<char> > > > >,std::piecewise_construct_t const &,std::tuple<std::basic_string<char,std::char_traits<char>,std::allocator<char> > &&>,std::tuple<> >
  00084	83 c4 14	 add	 esp, 20			; 00000014H

; 807  :         _Construct_in_place(this->_Ptr->_Left, _Myhead);

  00087	8d 45 0c	 lea	 eax, DWORD PTR __Myhead$[ebp]
  0008a	50		 push	 eax
  0008b	8b 45 f0	 mov	 eax, DWORD PTR _this$[ebp]
  0008e	ff 70 04	 push	 DWORD PTR [eax+4]
  00091	e8 00 00 00 00	 call	 ??$_Construct_in_place@PAU?$_Tree_node@U?$pair@$$CBV?$basic_string@DU?$char_traits@D@std@@V?$allocator@D@2@@std@@V?$vector@V?$basic_string@DU?$char_traits@D@std@@V?$allocator@D@2@@std@@V?$allocator@V?$basic_string@DU?$char_traits@D@std@@V?$allocator@D@2@@std@@@2@@2@@std@@PAX@std@@AAPAU12@@std@@YAXAAPAU?$_Tree_node@U?$pair@$$CBV?$basic_string@DU?$char_traits@D@std@@V?$allocator@D@2@@std@@V?$vector@V?$basic_string@DU?$char_traits@D@std@@V?$allocator@D@2@@std@@V?$allocator@V?$basic_string@DU?$char_traits@D@std@@V?$allocator@D@2@@std@@@2@@2@@std@@PAX@0@0@Z ; std::_Construct_in_place<std::_Tree_node<std::pair<std::basic_string<char,std::char_traits<char>,std::allocator<char> > const ,std::vector<std::basic_string<char,std::char_traits<char>,std::allocator<char> >,std::allocator<std::basic_string<char,std::char_traits<char>,std::allocator<char> > > > >,void *> *,std::_Tree_node<std::pair<std::basic_string<char,std::char_traits<char>,std::allocator<char> > const ,std::vector<std::basic_string<char,std::char_traits<char>,std::allocator<char> >,std::allocator<std::basic_string<char,std::char_traits<char>,std::allocator<char> > > > >,void *> * &>
  00096	59		 pop	 ecx
  00097	59		 pop	 ecx

; 808  :         _Construct_in_place(this->_Ptr->_Parent, _Myhead);

  00098	8d 45 0c	 lea	 eax, DWORD PTR __Myhead$[ebp]
  0009b	50		 push	 eax
  0009c	8b 45 f0	 mov	 eax, DWORD PTR _this$[ebp]
  0009f	8b 40 04	 mov	 eax, DWORD PTR [eax+4]
  000a2	83 c0 04	 add	 eax, 4
  000a5	50		 push	 eax
  000a6	e8 00 00 00 00	 call	 ??$_Construct_in_place@PAU?$_Tree_node@U?$pair@$$CBV?$basic_string@DU?$char_traits@D@std@@V?$allocator@D@2@@std@@V?$vector@V?$basic_string@DU?$char_traits@D@std@@V?$allocator@D@2@@std@@V?$allocator@V?$basic_string@DU?$char_traits@D@std@@V?$allocator@D@2@@std@@@2@@2@@std@@PAX@std@@AAPAU12@@std@@YAXAAPAU?$_Tree_node@U?$pair@$$CBV?$basic_string@DU?$char_traits@D@std@@V?$allocator@D@2@@std@@V?$vector@V?$basic_string@DU?$char_traits@D@std@@V?$allocator@D@2@@std@@V?$allocator@V?$basic_string@DU?$char_traits@D@std@@V?$allocator@D@2@@std@@@2@@2@@std@@PAX@0@0@Z ; std::_Construct_in_place<std::_Tree_node<std::pair<std::basic_string<char,std::char_traits<char>,std::allocator<char> > const ,std::vector<std::basic_string<char,std::char_traits<char>,std::allocator<char> >,std::allocator<std::basic_string<char,std::char_traits<char>,std::allocator<char> > > > >,void *> *,std::_Tree_node<std::pair<std::basic_string<char,std::char_traits<char>,std::allocator<char> > const ,std::vector<std::basic_string<char,std::char_traits<char>,std::allocator<char> >,std::allocator<std::basic_string<char,std::char_traits<char>,std::allocator<char> > > > >,void *> * &>
  000ab	59		 pop	 ecx
  000ac	59		 pop	 ecx

; 809  :         _Construct_in_place(this->_Ptr->_Right, _Myhead);

  000ad	8d 45 0c	 lea	 eax, DWORD PTR __Myhead$[ebp]
  000b0	50		 push	 eax
  000b1	8b 45 f0	 mov	 eax, DWORD PTR _this$[ebp]
  000b4	8b 40 04	 mov	 eax, DWORD PTR [eax+4]
  000b7	83 c0 08	 add	 eax, 8
  000ba	50		 push	 eax
  000bb	e8 00 00 00 00	 call	 ??$_Construct_in_place@PAU?$_Tree_node@U?$pair@$$CBV?$basic_string@DU?$char_traits@D@std@@V?$allocator@D@2@@std@@V?$vector@V?$basic_string@DU?$char_traits@D@std@@V?$allocator@D@2@@std@@V?$allocator@V?$basic_string@DU?$char_traits@D@std@@V?$allocator@D@2@@std@@@2@@2@@std@@PAX@std@@AAPAU12@@std@@YAXAAPAU?$_Tree_node@U?$pair@$$CBV?$basic_string@DU?$char_traits@D@std@@V?$allocator@D@2@@std@@V?$vector@V?$basic_string@DU?$char_traits@D@std@@V?$allocator@D@2@@std@@V?$allocator@V?$basic_string@DU?$char_traits@D@std@@V?$allocator@D@2@@std@@@2@@2@@std@@PAX@0@0@Z ; std::_Construct_in_place<std::_Tree_node<std::pair<std::basic_string<char,std::char_traits<char>,std::allocator<char> > const ,std::vector<std::basic_string<char,std::char_traits<char>,std::allocator<char> >,std::allocator<std::basic_string<char,std::char_traits<char>,std::allocator<char> > > > >,void *> *,std::_Tree_node<std::pair<std::basic_string<char,std::char_traits<char>,std::allocator<char> > const ,std::vector<std::basic_string<char,std::char_traits<char>,std::allocator<char> >,std::allocator<std::basic_string<char,std::char_traits<char>,std::allocator<char> > > > >,void *> * &>
  000c0	59		 pop	 ecx
  000c1	59		 pop	 ecx

; 810  :         this->_Ptr->_Color = _Red;

  000c2	8b 45 f0	 mov	 eax, DWORD PTR _this$[ebp]
  000c5	8b 40 04	 mov	 eax, DWORD PTR [eax+4]
  000c8	c6 40 0c 00	 mov	 BYTE PTR [eax+12], 0

; 811  :         this->_Ptr->_Isnil = false;

  000cc	8b 45 f0	 mov	 eax, DWORD PTR _this$[ebp]
  000cf	8b 40 04	 mov	 eax, DWORD PTR [eax+4]
  000d2	c6 40 0d 00	 mov	 BYTE PTR [eax+13], 0

; 812  :     }

  000d6	83 4d fc ff	 or	 DWORD PTR __$EHRec$[ebp+8], -1
  000da	8b 45 f0	 mov	 eax, DWORD PTR _this$[ebp]
  000dd	8b 4d f4	 mov	 ecx, DWORD PTR __$EHRec$[ebp]
  000e0	64 89 0d 00 00
	00 00		 mov	 DWORD PTR fs:0, ecx
  000e7	59		 pop	 ecx
  000e8	c9		 leave
  000e9	c2 14 00	 ret	 20			; 00000014H
_TEXT	ENDS
;	COMDAT text$x
text$x	SEGMENT
__unwindfunclet$??$?0ABUpiecewise_construct_t@std@@V?$tuple@$$QAV?$basic_string@DU?$char_traits@D@std@@V?$allocator@D@2@@std@@@1@V?$tuple@$$V@1@@?$_Tree_temp_node@V?$allocator@U?$_Tree_node@U?$pair@$$CBV?$basic_string@DU?$char_traits@D@std@@V?$allocator@D@2@@std@@V?$vector@V?$basic_string@DU?$char_traits@D@std@@V?$allocator@D@2@@std@@V?$allocator@V?$basic_string@DU?$char_traits@D@std@@V?$allocator@D@2@@std@@@2@@2@@std@@PAX@std@@@std@@@std@@QAE@AAV?$allocator@U?$_Tree_node@U?$pair@$$CBV?$basic_string@DU?$char_traits@D@std@@V?$allocator@D@2@@std@@V?$vector@V?$basic_string@DU?$char_traits@D@std@@V?$allocator@D@2@@std@@V?$allocator@V?$basic_string@DU?$char_traits@D@std@@V?$allocator@D@2@@std@@@2@@2@@std@@PAX@std@@@1@PAU?$_Tree_node@U?$pair@$$CBV?$basic_string@DU?$char_traits@D@std@@V?$allocator@D@2@@std@@V?$vector@V?$basic_string@DU?$char_traits@D@std@@V?$allocator@D@2@@std@@V?$allocator@V?$basic_string@DU?$char_traits@D@std@@V?$allocator@D@2@@std@@@2@@2@@std@@PAX@1@ABUpiecewise_construct_t@1@$$QAV?$tuple@$$QAV?$basic_string@DU?$char_traits@D@std@@V?$allocator@D@2@@std@@@1@$$QAV?$tuple@$$V@1@@Z$1:
  00000	8b 4d f0	 mov	 ecx, DWORD PTR _this$[ebp]
  00003	e9 00 00 00 00	 jmp	 ??1?$_Alloc_construct_ptr@V?$allocator@U?$_Tree_node@U?$pair@$$CBV?$basic_string@DU?$char_traits@D@std@@V?$allocator@D@2@@std@@V?$vector@V?$basic_string@DU?$char_traits@D@std@@V?$allocator@D@2@@std@@V?$allocator@V?$basic_string@DU?$char_traits@D@std@@V?$allocator@D@2@@std@@@2@@2@@std@@PAX@std@@@std@@@std@@QAE@XZ ; std::_Alloc_construct_ptr<std::allocator<std::_Tree_node<std::pair<std::basic_string<char,std::char_traits<char>,std::allocator<char> > const ,std::vector<std::basic_string<char,std::char_traits<char>,std::allocator<char> >,std::allocator<std::basic_string<char,std::char_traits<char>,std::allocator<char> > > > >,void *> > >::~_Alloc_construct_ptr<std::allocator<std::_Tree_node<std::pair<std::basic_string<char,std::char_traits<char>,std::allocator<char> > const ,std::vector<std::basic_string<char,std::char_traits<char>,std::allocator<char> >,std::allocator<std::basic_string<char,std::char_traits<char>,std::allocator<char> > > > >,void *> > >
__unwindfunclet$??$?0ABUpiecewise_construct_t@std@@V?$tuple@$$QAV?$basic_string@DU?$char_traits@D@std@@V?$allocator@D@2@@std@@@1@V?$tuple@$$V@1@@?$_Tree_temp_node@V?$allocator@U?$_Tree_node@U?$pair@$$CBV?$basic_string@DU?$char_traits@D@std@@V?$allocator@D@2@@std@@V?$vector@V?$basic_string@DU?$char_traits@D@std@@V?$allocator@D@2@@std@@V?$allocator@V?$basic_string@DU?$char_traits@D@std@@V?$allocator@D@2@@std@@@2@@2@@std@@PAX@std@@@std@@@std@@QAE@AAV?$allocator@U?$_Tree_node@U?$pair@$$CBV?$basic_string@DU?$char_traits@D@std@@V?$allocator@D@2@@std@@V?$vector@V?$basic_string@DU?$char_traits@D@std@@V?$allocator@D@2@@std@@V?$allocator@V?$basic_string@DU?$char_traits@D@std@@V?$allocator@D@2@@std@@@2@@2@@std@@PAX@std@@@1@PAU?$_Tree_node@U?$pair@$$CBV?$basic_string@DU?$char_traits@D@std@@V?$allocator@D@2@@std@@V?$vector@V?$basic_string@DU?$char_traits@D@std@@V?$allocator@D@2@@std@@V?$allocator@V?$basic_string@DU?$char_traits@D@std@@V?$allocator@D@2@@std@@@2@@2@@std@@PAX@1@ABUpiecewise_construct_t@1@$$QAV?$tuple@$$QAV?$basic_string@DU?$char_traits@D@std@@V?$allocator@D@2@@std@@@1@$$QAV?$tuple@$$V@1@@Z$0:
  00008	8b 4d f0	 mov	 ecx, DWORD PTR _this$[ebp]
  0000b	e9 00 00 00 00	 jmp	 ??1?$_Tree_temp_node_alloc@V?$allocator@U?$_Tree_node@U?$pair@$$CBV?$basic_string@DU?$char_traits@D@std@@V?$allocator@D@2@@std@@V?$vector@V?$basic_string@DU?$char_traits@D@std@@V?$allocator@D@2@@std@@V?$allocator@V?$basic_string@DU?$char_traits@D@std@@V?$allocator@D@2@@std@@@2@@2@@std@@PAX@std@@@std@@@std@@QAE@XZ
  00010	cc		 int	 3
  00011	cc		 int	 3
  00012	cc		 int	 3
  00013	cc		 int	 3
  00014	cc		 int	 3
__ehhandler$??$?0ABUpiecewise_construct_t@std@@V?$tuple@$$QAV?$basic_string@DU?$char_traits@D@std@@V?$allocator@D@2@@std@@@1@V?$tuple@$$V@1@@?$_Tree_temp_node@V?$allocator@U?$_Tree_node@U?$pair@$$CBV?$basic_string@DU?$char_traits@D@std@@V?$allocator@D@2@@std@@V?$vector@V?$basic_string@DU?$char_traits@D@std@@V?$allocator@D@2@@std@@V?$allocator@V?$basic_string@DU?$char_traits@D@std@@V?$allocator@D@2@@std@@@2@@2@@std@@PAX@std@@@std@@@std@@QAE@AAV?$allocator@U?$_Tree_node@U?$pair@$$CBV?$basic_string@DU?$char_traits@D@std@@V?$allocator@D@2@@std@@V?$vector@V?$basic_string@DU?$char_traits@D@std@@V?$allocator@D@2@@std@@V?$allocator@V?$basic_string@DU?$char_traits@D@std@@V?$allocator@D@2@@std@@@2@@2@@std@@PAX@std@@@1@PAU?$_Tree_node@U?$pair@$$CBV?$basic_string@DU?$char_traits@D@std@@V?$allocator@D@2@@std@@V?$vector@V?$basic_string@DU?$char_traits@D@std@@V?$allocator@D@2@@std@@V?$allocator@V?$basic_string@DU?$char_traits@D@std@@V?$allocator@D@2@@std@@@2@@2@@std@@PAX@1@ABUpiecewise_construct_t@1@$$QAV?$tuple@$$QAV?$basic_string@DU?$char_traits@D@std@@V?$allocator@D@2@@std@@@1@$$QAV?$tuple@$$V@1@@Z:
  00015	90		 npad	 1
  00016	90		 npad	 1
  00017	8b 54 24 08	 mov	 edx, DWORD PTR [esp+8]
  0001b	8d 42 0c	 lea	 eax, DWORD PTR [edx+12]
  0001e	8b 4a e4	 mov	 ecx, DWORD PTR [edx-28]
  00021	33 c8		 xor	 ecx, eax
  00023	e8 00 00 00 00	 call	 @__security_check_cookie@4
  00028	b8 00 00 00 00	 mov	 eax, OFFSET __ehfuncinfo$??$?0ABUpiecewise_construct_t@std@@V?$tuple@$$QAV?$basic_string@DU?$char_traits@D@std@@V?$allocator@D@2@@std@@@1@V?$tuple@$$V@1@@?$_Tree_temp_node@V?$allocator@U?$_Tree_node@U?$pair@$$CBV?$basic_string@DU?$char_traits@D@std@@V?$allocator@D@2@@std@@V?$vector@V?$basic_string@DU?$char_traits@D@std@@V?$allocator@D@2@@std@@V?$allocator@V?$basic_string@DU?$char_traits@D@std@@V?$allocator@D@2@@std@@@2@@2@@std@@PAX@std@@@std@@@std@@QAE@AAV?$allocator@U?$_Tree_node@U?$pair@$$CBV?$basic_string@DU?$char_traits@D@std@@V?$allocator@D@2@@std@@V?$vector@V?$basic_string@DU?$char_traits@D@std@@V?$allocator@D@2@@std@@V?$allocator@V?$basic_string@DU?$char_traits@D@std@@V?$allocator@D@2@@std@@@2@@2@@std@@PAX@std@@@1@PAU?$_Tree_node@U?$pair@$$CBV?$basic_string@DU?$char_traits@D@std@@V?$allocator@D@2@@std@@V?$vector@V?$basic_string@DU?$char_traits@D@std@@V?$allocator@D@2@@std@@V?$allocator@V?$basic_string@DU?$char_traits@D@std@@V?$allocator@D@2@@std@@@2@@2@@std@@PAX@1@ABUpiecewise_construct_t@1@$$QAV?$tuple@$$QAV?$basic_string@DU?$char_traits@D@std@@V?$allocator@D@2@@std@@@1@$$QAV?$tuple@$$V@1@@Z
  0002d	e9 00 00 00 00	 jmp	 ___CxxFrameHandler3
text$x	ENDS
??$?0ABUpiecewise_construct_t@std@@V?$tuple@$$QAV?$basic_string@DU?$char_traits@D@std@@V?$allocator@D@2@@std@@@1@V?$tuple@$$V@1@@?$_Tree_temp_node@V?$allocator@U?$_Tree_node@U?$pair@$$CBV?$basic_string@DU?$char_traits@D@std@@V?$allocator@D@2@@std@@V?$vector@V?$basic_string@DU?$char_traits@D@std@@V?$allocator@D@2@@std@@V?$allocator@V?$basic_string@DU?$char_traits@D@std@@V?$allocator@D@2@@std@@@2@@2@@std@@PAX@std@@@std@@@std@@QAE@AAV?$allocator@U?$_Tree_node@U?$pair@$$CBV?$basic_string@DU?$char_traits@D@std@@V?$allocator@D@2@@std@@V?$vector@V?$basic_string@DU?$char_traits@D@std@@V?$allocator@D@2@@std@@V?$allocator@V?$basic_string@DU?$char_traits@D@std@@V?$allocator@D@2@@std@@@2@@2@@std@@PAX@std@@@1@PAU?$_Tree_node@U?$pair@$$CBV?$basic_string@DU?$char_traits@D@std@@V?$allocator@D@2@@std@@V?$vector@V?$basic_string@DU?$char_traits@D@std@@V?$allocator@D@2@@std@@V?$allocator@V?$basic_string@DU?$char_traits@D@std@@V?$allocator@D@2@@std@@@2@@2@@std@@PAX@1@ABUpiecewise_construct_t@1@$$QAV?$tuple@$$QAV?$basic_string@DU?$char_traits@D@std@@V?$allocator@D@2@@std@@@1@$$QAV?$tuple@$$V@1@@Z ENDP ; std::_Tree_temp_node<std::allocator<std::_Tree_node<std::pair<std::basic_string<char,std::char_traits<char>,std::allocator<char> > const ,std::vector<std::basic_string<char,std::char_traits<char>,std::allocator<char> >,std::allocator<std::basic_string<char,std::char_traits<char>,std::allocator<char> > > > >,void *> > >::_Tree_temp_node<std::allocator<std::_Tree_node<std::pair<std::basic_string<char,std::char_traits<char>,std::allocator<char> > const ,std::vector<std::basic_string<char,std::char_traits<char>,std::allocator<char> >,std::allocator<std::basic_string<char,std::char_traits<char>,std::allocator<char> > > > >,void *> > ><std::piecewise_construct_t const &,std::tuple<std::basic_string<char,std::char_traits<char>,std::allocator<char> > &&>,std::tuple<> >
; Function compile flags: /Odspy
; File C:\Program Files (x86)\Microsoft Visual Studio\2019\Community\VC\Tools\MSVC\14.28.29333\include\xtree
; File C:\Program Files (x86)\Microsoft Visual Studio\2019\Community\VC\Tools\MSVC\14.28.29333\include\xstddef
; File C:\Program Files (x86)\Microsoft Visual Studio\2019\Community\VC\Tools\MSVC\14.28.29333\include\xtree
; File C:\Program Files (x86)\Microsoft Visual Studio\2019\Community\VC\Tools\MSVC\14.28.29333\include\xmemory
; File C:\Program Files (x86)\Microsoft Visual Studio\2019\Community\VC\Tools\MSVC\14.28.29333\include\xtree
;	COMDAT ??1?$_Tree_temp_node@V?$allocator@U?$_Tree_node@U?$pair@$$CBV?$basic_string@DU?$char_traits@D@std@@V?$allocator@D@2@@std@@V?$vector@V?$basic_string@DU?$char_traits@D@std@@V?$allocator@D@2@@std@@V?$allocator@V?$basic_string@DU?$char_traits@D@std@@V?$allocator@D@2@@std@@@2@@2@@std@@PAX@std@@@std@@@std@@QAE@XZ
_TEXT	SEGMENT
___formal$ = -16					; size = 4
$T1 = -12						; size = 4
__Val$ = -8						; size = 4
_this$ = -4						; size = 4
??1?$_Tree_temp_node@V?$allocator@U?$_Tree_node@U?$pair@$$CBV?$basic_string@DU?$char_traits@D@std@@V?$allocator@D@2@@std@@V?$vector@V?$basic_string@DU?$char_traits@D@std@@V?$allocator@D@2@@std@@V?$allocator@V?$basic_string@DU?$char_traits@D@std@@V?$allocator@D@2@@std@@@2@@2@@std@@PAX@std@@@std@@@std@@QAE@XZ PROC ; std::_Tree_temp_node<std::allocator<std::_Tree_node<std::pair<std::basic_string<char,std::char_traits<char>,std::allocator<char> > const ,std::vector<std::basic_string<char,std::char_traits<char>,std::allocator<char> >,std::allocator<std::basic_string<char,std::char_traits<char>,std::allocator<char> > > > >,void *> > >::~_Tree_temp_node<std::allocator<std::_Tree_node<std::pair<std::basic_string<char,std::char_traits<char>,std::allocator<char> > const ,std::vector<std::basic_string<char,std::char_traits<char>,std::allocator<char> >,std::allocator<std::basic_string<char,std::char_traits<char>,std::allocator<char> > > > >,void *> > >, COMDAT
; _this$ = ecx

; 817  :     ~_Tree_temp_node() {

  00000	55		 push	 ebp
  00001	8b ec		 mov	 ebp, esp
  00003	83 ec 10	 sub	 esp, 16			; 00000010H
  00006	89 4d fc	 mov	 DWORD PTR _this$[ebp], ecx

; 818  :         if (this->_Ptr) {

  00009	8b 45 fc	 mov	 eax, DWORD PTR _this$[ebp]
  0000c	83 78 04 00	 cmp	 DWORD PTR [eax+4], 0
  00010	74 50		 je	 SHORT $LN54@Tree_temp_

; 819  :             _Destroy_in_place(this->_Ptr->_Left);

  00012	8b 45 fc	 mov	 eax, DWORD PTR _this$[ebp]
  00015	ff 70 04	 push	 DWORD PTR [eax+4]
  00018	e8 00 00 00 00	 call	 ??$_Destroy_in_place@PAU?$_Tree_node@U?$pair@$$CBV?$basic_string@DU?$char_traits@D@std@@V?$allocator@D@2@@std@@V?$vector@V?$basic_string@DU?$char_traits@D@std@@V?$allocator@D@2@@std@@V?$allocator@V?$basic_string@DU?$char_traits@D@std@@V?$allocator@D@2@@std@@@2@@2@@std@@PAX@std@@@std@@YAXAAPAU?$_Tree_node@U?$pair@$$CBV?$basic_string@DU?$char_traits@D@std@@V?$allocator@D@2@@std@@V?$vector@V?$basic_string@DU?$char_traits@D@std@@V?$allocator@D@2@@std@@V?$allocator@V?$basic_string@DU?$char_traits@D@std@@V?$allocator@D@2@@std@@@2@@2@@std@@PAX@0@@Z ; std::_Destroy_in_place<std::_Tree_node<std::pair<std::basic_string<char,std::char_traits<char>,std::allocator<char> > const ,std::vector<std::basic_string<char,std::char_traits<char>,std::allocator<char> >,std::allocator<std::basic_string<char,std::char_traits<char>,std::allocator<char> > > > >,void *> *>
  0001d	59		 pop	 ecx

; 820  :             _Destroy_in_place(this->_Ptr->_Parent);

  0001e	8b 45 fc	 mov	 eax, DWORD PTR _this$[ebp]
  00021	8b 40 04	 mov	 eax, DWORD PTR [eax+4]
  00024	83 c0 04	 add	 eax, 4
  00027	50		 push	 eax
  00028	e8 00 00 00 00	 call	 ??$_Destroy_in_place@PAU?$_Tree_node@U?$pair@$$CBV?$basic_string@DU?$char_traits@D@std@@V?$allocator@D@2@@std@@V?$vector@V?$basic_string@DU?$char_traits@D@std@@V?$allocator@D@2@@std@@V?$allocator@V?$basic_string@DU?$char_traits@D@std@@V?$allocator@D@2@@std@@@2@@2@@std@@PAX@std@@@std@@YAXAAPAU?$_Tree_node@U?$pair@$$CBV?$basic_string@DU?$char_traits@D@std@@V?$allocator@D@2@@std@@V?$vector@V?$basic_string@DU?$char_traits@D@std@@V?$allocator@D@2@@std@@V?$allocator@V?$basic_string@DU?$char_traits@D@std@@V?$allocator@D@2@@std@@@2@@2@@std@@PAX@0@@Z ; std::_Destroy_in_place<std::_Tree_node<std::pair<std::basic_string<char,std::char_traits<char>,std::allocator<char> > const ,std::vector<std::basic_string<char,std::char_traits<char>,std::allocator<char> >,std::allocator<std::basic_string<char,std::char_traits<char>,std::allocator<char> > > > >,void *> *>
  0002d	59		 pop	 ecx

; 821  :             _Destroy_in_place(this->_Ptr->_Right);

  0002e	8b 45 fc	 mov	 eax, DWORD PTR _this$[ebp]
  00031	8b 40 04	 mov	 eax, DWORD PTR [eax+4]
  00034	83 c0 08	 add	 eax, 8
  00037	50		 push	 eax
  00038	e8 00 00 00 00	 call	 ??$_Destroy_in_place@PAU?$_Tree_node@U?$pair@$$CBV?$basic_string@DU?$char_traits@D@std@@V?$allocator@D@2@@std@@V?$vector@V?$basic_string@DU?$char_traits@D@std@@V?$allocator@D@2@@std@@V?$allocator@V?$basic_string@DU?$char_traits@D@std@@V?$allocator@D@2@@std@@@2@@2@@std@@PAX@std@@@std@@YAXAAPAU?$_Tree_node@U?$pair@$$CBV?$basic_string@DU?$char_traits@D@std@@V?$allocator@D@2@@std@@V?$vector@V?$basic_string@DU?$char_traits@D@std@@V?$allocator@D@2@@std@@V?$allocator@V?$basic_string@DU?$char_traits@D@std@@V?$allocator@D@2@@std@@@2@@2@@std@@PAX@0@@Z ; std::_Destroy_in_place<std::_Tree_node<std::pair<std::basic_string<char,std::char_traits<char>,std::allocator<char> > const ,std::vector<std::basic_string<char,std::char_traits<char>,std::allocator<char> >,std::allocator<std::basic_string<char,std::char_traits<char>,std::allocator<char> > > > >,void *> *>
  0003d	59		 pop	 ecx

; 822  :             _Alnode_traits::destroy(this->_Al, _STD addressof(this->_Ptr->_Myval));

  0003e	8b 45 fc	 mov	 eax, DWORD PTR _this$[ebp]
  00041	8b 40 04	 mov	 eax, DWORD PTR [eax+4]
  00044	83 c0 10	 add	 eax, 16			; 00000010H
  00047	89 45 f8	 mov	 DWORD PTR __Val$[ebp], eax
; File C:\Program Files (x86)\Microsoft Visual Studio\2019\Community\VC\Tools\MSVC\14.28.29333\include\xstddef

; 275  :     return __builtin_addressof(_Val);

  0004a	8b 45 f8	 mov	 eax, DWORD PTR __Val$[ebp]
  0004d	89 45 f4	 mov	 DWORD PTR $T1[ebp], eax
; File C:\Program Files (x86)\Microsoft Visual Studio\2019\Community\VC\Tools\MSVC\14.28.29333\include\xtree

; 822  :             _Alnode_traits::destroy(this->_Al, _STD addressof(this->_Ptr->_Myval));

  00050	8b 45 fc	 mov	 eax, DWORD PTR _this$[ebp]
  00053	8b 00		 mov	 eax, DWORD PTR [eax]
  00055	89 45 f0	 mov	 DWORD PTR ___formal$[ebp], eax
; File C:\Program Files (x86)\Microsoft Visual Studio\2019\Community\VC\Tools\MSVC\14.28.29333\include\xmemory

; 706  :         _Ptr->~_Uty();

  00058	6a 00		 push	 0
  0005a	8b 4d f4	 mov	 ecx, DWORD PTR $T1[ebp]
  0005d	e8 00 00 00 00	 call	 ??_G?$pair@$$CBV?$basic_string@DU?$char_traits@D@std@@V?$allocator@D@2@@std@@V?$vector@V?$basic_string@DU?$char_traits@D@std@@V?$allocator@D@2@@std@@V?$allocator@V?$basic_string@DU?$char_traits@D@std@@V?$allocator@D@2@@std@@@2@@2@@std@@QAEPAXI@Z
$LN54@Tree_temp_:
  00062	8b 4d fc	 mov	 ecx, DWORD PTR _this$[ebp]
  00065	e8 00 00 00 00	 call	 ??1?$_Alloc_construct_ptr@V?$allocator@U?$_Tree_node@U?$pair@$$CBV?$basic_string@DU?$char_traits@D@std@@V?$allocator@D@2@@std@@V?$vector@V?$basic_string@DU?$char_traits@D@std@@V?$allocator@D@2@@std@@V?$allocator@V?$basic_string@DU?$char_traits@D@std@@V?$allocator@D@2@@std@@@2@@2@@std@@PAX@std@@@std@@@std@@QAE@XZ ; std::_Alloc_construct_ptr<std::allocator<std::_Tree_node<std::pair<std::basic_string<char,std::char_traits<char>,std::allocator<char> > const ,std::vector<std::basic_string<char,std::char_traits<char>,std::allocator<char> >,std::allocator<std::basic_string<char,std::char_traits<char>,std::allocator<char> > > > >,void *> > >::~_Alloc_construct_ptr<std::allocator<std::_Tree_node<std::pair<std::basic_string<char,std::char_traits<char>,std::allocator<char> > const ,std::vector<std::basic_string<char,std::char_traits<char>,std::allocator<char> >,std::allocator<std::basic_string<char,std::char_traits<char>,std::allocator<char> > > > >,void *> > >
; File C:\Program Files (x86)\Microsoft Visual Studio\2019\Community\VC\Tools\MSVC\14.28.29333\include\xtree

; 824  :     }

  0006a	c9		 leave
  0006b	c3		 ret	 0
??1?$_Tree_temp_node@V?$allocator@U?$_Tree_node@U?$pair@$$CBV?$basic_string@DU?$char_traits@D@std@@V?$allocator@D@2@@std@@V?$vector@V?$basic_string@DU?$char_traits@D@std@@V?$allocator@D@2@@std@@V?$allocator@V?$basic_string@DU?$char_traits@D@std@@V?$allocator@D@2@@std@@@2@@2@@std@@PAX@std@@@std@@@std@@QAE@XZ ENDP ; std::_Tree_temp_node<std::allocator<std::_Tree_node<std::pair<std::basic_string<char,std::char_traits<char>,std::allocator<char> > const ,std::vector<std::basic_string<char,std::char_traits<char>,std::allocator<char> >,std::allocator<std::basic_string<char,std::char_traits<char>,std::allocator<char> > > > >,void *> > >::~_Tree_temp_node<std::allocator<std::_Tree_node<std::pair<std::basic_string<char,std::char_traits<char>,std::allocator<char> > const ,std::vector<std::basic_string<char,std::char_traits<char>,std::allocator<char> >,std::allocator<std::basic_string<char,std::char_traits<char>,std::allocator<char> > > > >,void *> > >
_TEXT	ENDS
; Function compile flags: /Odspy
;	COMDAT ??1?$_Tree_temp_node_alloc@V?$allocator@U?$_Tree_node@U?$pair@$$CBV?$basic_string@DU?$char_traits@D@std@@V?$allocator@D@2@@std@@V?$vector@V?$basic_string@DU?$char_traits@D@std@@V?$allocator@D@2@@std@@V?$allocator@V?$basic_string@DU?$char_traits@D@std@@V?$allocator@D@2@@std@@@2@@2@@std@@PAX@std@@@std@@@std@@QAE@XZ
_TEXT	SEGMENT
_this$ = -4						; size = 4
??1?$_Tree_temp_node_alloc@V?$allocator@U?$_Tree_node@U?$pair@$$CBV?$basic_string@DU?$char_traits@D@std@@V?$allocator@D@2@@std@@V?$vector@V?$basic_string@DU?$char_traits@D@std@@V?$allocator@D@2@@std@@V?$allocator@V?$basic_string@DU?$char_traits@D@std@@V?$allocator@D@2@@std@@@2@@2@@std@@PAX@std@@@std@@@std@@QAE@XZ PROC ; std::_Tree_temp_node_alloc<std::allocator<std::_Tree_node<std::pair<std::basic_string<char,std::char_traits<char>,std::allocator<char> > const ,std::vector<std::basic_string<char,std::char_traits<char>,std::allocator<char> >,std::allocator<std::basic_string<char,std::char_traits<char>,std::allocator<char> > > > >,void *> > >::~_Tree_temp_node_alloc<std::allocator<std::_Tree_node<std::pair<std::basic_string<char,std::char_traits<char>,std::allocator<char> > const ,std::vector<std::basic_string<char,std::char_traits<char>,std::allocator<char> >,std::allocator<std::basic_string<char,std::char_traits<char>,std::allocator<char> > > > >,void *> > >, COMDAT
; _this$ = ecx
  00000	55		 push	 ebp
  00001	8b ec		 mov	 ebp, esp
  00003	51		 push	 ecx
  00004	89 4d fc	 mov	 DWORD PTR _this$[ebp], ecx
  00007	8b 4d fc	 mov	 ecx, DWORD PTR _this$[ebp]
  0000a	e8 00 00 00 00	 call	 ??1?$_Alloc_construct_ptr@V?$allocator@U?$_Tree_node@U?$pair@$$CBV?$basic_string@DU?$char_traits@D@std@@V?$allocator@D@2@@std@@V?$vector@V?$basic_string@DU?$char_traits@D@std@@V?$allocator@D@2@@std@@V?$allocator@V?$basic_string@DU?$char_traits@D@std@@V?$allocator@D@2@@std@@@2@@2@@std@@PAX@std@@@std@@@std@@QAE@XZ ; std::_Alloc_construct_ptr<std::allocator<std::_Tree_node<std::pair<std::basic_string<char,std::char_traits<char>,std::allocator<char> > const ,std::vector<std::basic_string<char,std::char_traits<char>,std::allocator<char> >,std::allocator<std::basic_string<char,std::char_traits<char>,std::allocator<char> > > > >,void *> > >::~_Alloc_construct_ptr<std::allocator<std::_Tree_node<std::pair<std::basic_string<char,std::char_traits<char>,std::allocator<char> > const ,std::vector<std::basic_string<char,std::char_traits<char>,std::allocator<char> >,std::allocator<std::basic_string<char,std::char_traits<char>,std::allocator<char> > > > >,void *> > >
  0000f	c9		 leave
  00010	c3		 ret	 0
??1?$_Tree_temp_node_alloc@V?$allocator@U?$_Tree_node@U?$pair@$$CBV?$basic_string@DU?$char_traits@D@std@@V?$allocator@D@2@@std@@V?$vector@V?$basic_string@DU?$char_traits@D@std@@V?$allocator@D@2@@std@@V?$allocator@V?$basic_string@DU?$char_traits@D@std@@V?$allocator@D@2@@std@@@2@@2@@std@@PAX@std@@@std@@@std@@QAE@XZ ENDP ; std::_Tree_temp_node_alloc<std::allocator<std::_Tree_node<std::pair<std::basic_string<char,std::char_traits<char>,std::allocator<char> > const ,std::vector<std::basic_string<char,std::char_traits<char>,std::allocator<char> >,std::allocator<std::basic_string<char,std::char_traits<char>,std::allocator<char> > > > >,void *> > >::~_Tree_temp_node_alloc<std::allocator<std::_Tree_node<std::pair<std::basic_string<char,std::char_traits<char>,std::allocator<char> > const ,std::vector<std::basic_string<char,std::char_traits<char>,std::allocator<char> >,std::allocator<std::basic_string<char,std::char_traits<char>,std::allocator<char> > > > >,void *> > >
_TEXT	ENDS
; Function compile flags: /Odspy
; File C:\Program Files (x86)\Microsoft Visual Studio\2019\Community\VC\Tools\MSVC\14.28.29333\include\xmemory
;	COMDAT ??1?$_Alloc_construct_ptr@V?$allocator@U?$_Tree_node@U?$pair@$$CBV?$basic_string@DU?$char_traits@D@std@@V?$allocator@D@2@@std@@V?$vector@V?$basic_string@DU?$char_traits@D@std@@V?$allocator@D@2@@std@@V?$allocator@V?$basic_string@DU?$char_traits@D@std@@V?$allocator@D@2@@std@@@2@@2@@std@@PAX@std@@@std@@@std@@QAE@XZ
_TEXT	SEGMENT
_this$ = -12						; size = 4
__Ptr$ = -8						; size = 4
_this$ = -4						; size = 4
??1?$_Alloc_construct_ptr@V?$allocator@U?$_Tree_node@U?$pair@$$CBV?$basic_string@DU?$char_traits@D@std@@V?$allocator@D@2@@std@@V?$vector@V?$basic_string@DU?$char_traits@D@std@@V?$allocator@D@2@@std@@V?$allocator@V?$basic_string@DU?$char_traits@D@std@@V?$allocator@D@2@@std@@@2@@2@@std@@PAX@std@@@std@@@std@@QAE@XZ PROC ; std::_Alloc_construct_ptr<std::allocator<std::_Tree_node<std::pair<std::basic_string<char,std::char_traits<char>,std::allocator<char> > const ,std::vector<std::basic_string<char,std::char_traits<char>,std::allocator<char> >,std::allocator<std::basic_string<char,std::char_traits<char>,std::allocator<char> > > > >,void *> > >::~_Alloc_construct_ptr<std::allocator<std::_Tree_node<std::pair<std::basic_string<char,std::char_traits<char>,std::allocator<char> > const ,std::vector<std::basic_string<char,std::char_traits<char>,std::allocator<char> >,std::allocator<std::basic_string<char,std::char_traits<char>,std::allocator<char> > > > >,void *> > >, COMDAT
; _this$ = ecx

; 1056 :     ~_Alloc_construct_ptr() { // if this instance is engaged, deallocate storage

  00000	55		 push	 ebp
  00001	8b ec		 mov	 ebp, esp
  00003	83 ec 0c	 sub	 esp, 12			; 0000000cH
  00006	89 4d fc	 mov	 DWORD PTR _this$[ebp], ecx

; 1057 :         if (_Ptr) {

  00009	8b 45 fc	 mov	 eax, DWORD PTR _this$[ebp]
  0000c	83 78 04 00	 cmp	 DWORD PTR [eax+4], 0
  00010	74 22		 je	 SHORT $LN3@Alloc_cons

; 1058 :             _Al.deallocate(_Ptr, 1);

  00012	8b 45 fc	 mov	 eax, DWORD PTR _this$[ebp]
  00015	8b 40 04	 mov	 eax, DWORD PTR [eax+4]
  00018	89 45 f8	 mov	 DWORD PTR __Ptr$[ebp], eax
  0001b	8b 45 fc	 mov	 eax, DWORD PTR _this$[ebp]
  0001e	8b 00		 mov	 eax, DWORD PTR [eax]
  00020	89 45 f4	 mov	 DWORD PTR _this$[ebp], eax

; 810  :         _Deallocate<_New_alignof<_Ty>>(_Ptr, sizeof(_Ty) * _Count);

  00023	33 c0		 xor	 eax, eax
  00025	40		 inc	 eax
  00026	6b c0 34	 imul	 eax, eax, 52
  00029	50		 push	 eax
  0002a	ff 75 f8	 push	 DWORD PTR __Ptr$[ebp]
  0002d	e8 00 00 00 00	 call	 ??$_Deallocate@$07$0A@@std@@YAXPAXI@Z ; std::_Deallocate<8,0>
  00032	59		 pop	 ecx
  00033	59		 pop	 ecx
$LN3@Alloc_cons:

; 1059 :         }
; 1060 :     }

  00034	c9		 leave
  00035	c3		 ret	 0
??1?$_Alloc_construct_ptr@V?$allocator@U?$_Tree_node@U?$pair@$$CBV?$basic_string@DU?$char_traits@D@std@@V?$allocator@D@2@@std@@V?$vector@V?$basic_string@DU?$char_traits@D@std@@V?$allocator@D@2@@std@@V?$allocator@V?$basic_string@DU?$char_traits@D@std@@V?$allocator@D@2@@std@@@2@@2@@std@@PAX@std@@@std@@@std@@QAE@XZ ENDP ; std::_Alloc_construct_ptr<std::allocator<std::_Tree_node<std::pair<std::basic_string<char,std::char_traits<char>,std::allocator<char> > const ,std::vector<std::basic_string<char,std::char_traits<char>,std::allocator<char> >,std::allocator<std::basic_string<char,std::char_traits<char>,std::allocator<char> > > > >,void *> > >::~_Alloc_construct_ptr<std::allocator<std::_Tree_node<std::pair<std::basic_string<char,std::char_traits<char>,std::allocator<char> > const ,std::vector<std::basic_string<char,std::char_traits<char>,std::allocator<char> >,std::allocator<std::basic_string<char,std::char_traits<char>,std::allocator<char> > > > >,void *> > >
_TEXT	ENDS
; Function compile flags: /Odspy
; File C:\Program Files (x86)\Microsoft Visual Studio\2019\Community\VC\Tools\MSVC\14.28.29333\include\xmemory
;	COMDAT ?_Allocate@?$_Alloc_construct_ptr@V?$allocator@U?$_Tree_node@U?$pair@$$CBV?$basic_string@DU?$char_traits@D@std@@V?$allocator@D@2@@std@@V?$vector@V?$basic_string@DU?$char_traits@D@std@@V?$allocator@D@2@@std@@V?$allocator@V?$basic_string@DU?$char_traits@D@std@@V?$allocator@D@2@@std@@@2@@2@@std@@PAX@std@@@std@@@std@@QAEXXZ
_TEXT	SEGMENT
__Max_possible$1 = -24					; size = 4
_this$ = -20						; size = 4
$T2 = -16						; size = 4
$T3 = -12						; size = 4
_this$ = -8						; size = 4
__Overflow_is_possible$4 = -1				; size = 1
?_Allocate@?$_Alloc_construct_ptr@V?$allocator@U?$_Tree_node@U?$pair@$$CBV?$basic_string@DU?$char_traits@D@std@@V?$allocator@D@2@@std@@V?$vector@V?$basic_string@DU?$char_traits@D@std@@V?$allocator@D@2@@std@@V?$allocator@V?$basic_string@DU?$char_traits@D@std@@V?$allocator@D@2@@std@@@2@@2@@std@@PAX@std@@@std@@@std@@QAEXXZ PROC ; std::_Alloc_construct_ptr<std::allocator<std::_Tree_node<std::pair<std::basic_string<char,std::char_traits<char>,std::allocator<char> > const ,std::vector<std::basic_string<char,std::char_traits<char>,std::allocator<char> >,std::allocator<std::basic_string<char,std::char_traits<char>,std::allocator<char> > > > >,void *> > >::_Allocate, COMDAT
; _this$ = ecx

; 1051 :     void _Allocate() { // disengage *this, then allocate a new memory block

  00000	55		 push	 ebp
  00001	8b ec		 mov	 ebp, esp
  00003	83 ec 18	 sub	 esp, 24			; 00000018H
  00006	89 4d f8	 mov	 DWORD PTR _this$[ebp], ecx

; 1052 :         _Ptr = nullptr; // if allocate throws, prevents double-free

  00009	8b 45 f8	 mov	 eax, DWORD PTR _this$[ebp]
  0000c	83 60 04 00	 and	 DWORD PTR [eax+4], 0

; 1053 :         _Ptr = _Al.allocate(1);

  00010	8b 45 f8	 mov	 eax, DWORD PTR _this$[ebp]
  00013	8b 00		 mov	 eax, DWORD PTR [eax]
  00015	89 45 ec	 mov	 DWORD PTR _this$[ebp], eax

; 56   :     constexpr bool _Overflow_is_possible = _Ty_size > 1;

  00018	c6 45 ff 01	 mov	 BYTE PTR __Overflow_is_possible$4[ebp], 1

; 57   : 
; 58   :     if _CONSTEXPR_IF (_Overflow_is_possible) {
; 59   :         constexpr size_t _Max_possible = static_cast<size_t>(-1) / _Ty_size;

  0001c	c7 45 e8 c4 4e
	ec 04		 mov	 DWORD PTR __Max_possible$1[ebp], 82595524 ; 04ec4ec4H

; 60   :         if (_Count > _Max_possible) {

  00023	33 c0		 xor	 eax, eax
  00025	40		 inc	 eax
  00026	3d c4 4e ec 04	 cmp	 eax, 82595524		; 04ec4ec4H
  0002b	76 05		 jbe	 SHORT $LN6@Allocate

; 61   :             _Throw_bad_array_new_length(); // multiply overflow

  0002d	e8 00 00 00 00	 call	 ?_Throw_bad_array_new_length@std@@YAXXZ ; std::_Throw_bad_array_new_length
$LN6@Allocate:

; 62   :         }
; 63   :     }
; 64   : 
; 65   :     return _Count * _Ty_size;

  00032	33 c0		 xor	 eax, eax
  00034	40		 inc	 eax
  00035	6b c0 34	 imul	 eax, eax, 52
  00038	89 45 f4	 mov	 DWORD PTR $T3[ebp], eax

; 814  :         return static_cast<_Ty*>(_Allocate<_New_alignof<_Ty>>(_Get_size_of_n<sizeof(_Ty)>(_Count)));

  0003b	ff 75 f4	 push	 DWORD PTR $T3[ebp]
  0003e	e8 00 00 00 00	 call	 ??$_Allocate@$07U_Default_allocate_traits@std@@$0A@@std@@YAPAXI@Z ; std::_Allocate<8,std::_Default_allocate_traits,0>
  00043	59		 pop	 ecx
  00044	89 45 f0	 mov	 DWORD PTR $T2[ebp], eax

; 1053 :         _Ptr = _Al.allocate(1);

  00047	8b 45 f8	 mov	 eax, DWORD PTR _this$[ebp]
  0004a	8b 4d f0	 mov	 ecx, DWORD PTR $T2[ebp]
  0004d	89 48 04	 mov	 DWORD PTR [eax+4], ecx
$LN9@Allocate:

; 1054 :     }

  00050	c9		 leave
  00051	c3		 ret	 0
?_Allocate@?$_Alloc_construct_ptr@V?$allocator@U?$_Tree_node@U?$pair@$$CBV?$basic_string@DU?$char_traits@D@std@@V?$allocator@D@2@@std@@V?$vector@V?$basic_string@DU?$char_traits@D@std@@V?$allocator@D@2@@std@@V?$allocator@V?$basic_string@DU?$char_traits@D@std@@V?$allocator@D@2@@std@@@2@@2@@std@@PAX@std@@@std@@@std@@QAEXXZ ENDP ; std::_Alloc_construct_ptr<std::allocator<std::_Tree_node<std::pair<std::basic_string<char,std::char_traits<char>,std::allocator<char> > const ,std::vector<std::basic_string<char,std::char_traits<char>,std::allocator<char> >,std::allocator<std::basic_string<char,std::char_traits<char>,std::allocator<char> > > > >,void *> > >::_Allocate
_TEXT	ENDS
; Function compile flags: /Odspy
; File C:\Program Files (x86)\Microsoft Visual Studio\2019\Community\VC\Tools\MSVC\14.28.29333\include\xtree
; File C:\Program Files (x86)\Microsoft Visual Studio\2019\Community\VC\Tools\MSVC\14.28.29333\include\xmemory
; File C:\Program Files (x86)\Microsoft Visual Studio\2019\Community\VC\Tools\MSVC\14.28.29333\include\xtree
; File C:\Program Files (x86)\Microsoft Visual Studio\2019\Community\VC\Tools\MSVC\14.28.29333\include\map
; File C:\Program Files (x86)\Microsoft Visual Studio\2019\Community\VC\Tools\MSVC\14.28.29333\include\xstddef
; File C:\Program Files (x86)\Microsoft Visual Studio\2019\Community\VC\Tools\MSVC\14.28.29333\include\xtree
;	COMDAT ??$_Lower_bound_duplicate@V?$basic_string@DU?$char_traits@D@std@@V?$allocator@D@2@@std@@@?$_Tree@V?$_Tmap_traits@V?$basic_string@DU?$char_traits@D@std@@V?$allocator@D@2@@std@@V?$vector@V?$basic_string@DU?$char_traits@D@std@@V?$allocator@D@2@@std@@V?$allocator@V?$basic_string@DU?$char_traits@D@std@@V?$allocator@D@2@@std@@@2@@2@U?$less@V?$basic_string@DU?$char_traits@D@std@@V?$allocator@D@2@@std@@@2@V?$allocator@U?$pair@$$CBV?$basic_string@DU?$char_traits@D@std@@V?$allocator@D@2@@std@@V?$vector@V?$basic_string@DU?$char_traits@D@std@@V?$allocator@D@2@@std@@V?$allocator@V?$basic_string@DU?$char_traits@D@std@@V?$allocator@D@2@@std@@@2@@2@@std@@@2@$0A@@std@@@std@@IBE_NQAU?$_Tree_node@U?$pair@$$CBV?$basic_string@DU?$char_traits@D@std@@V?$allocator@D@2@@std@@V?$vector@V?$basic_string@DU?$char_traits@D@std@@V?$allocator@D@2@@std@@V?$allocator@V?$basic_string@DU?$char_traits@D@std@@V?$allocator@D@2@@std@@@2@@2@@std@@PAX@1@ABV?$basic_string@DU?$char_traits@D@std@@V?$allocator@D@2@@1@@Z
_TEXT	SEGMENT
$T1 = -16						; size = 4
$T2 = -12						; size = 4
_this$ = -8						; size = 4
tv78 = -4						; size = 4
__Bound$ = 8						; size = 4
__Keyval$ = 12						; size = 4
??$_Lower_bound_duplicate@V?$basic_string@DU?$char_traits@D@std@@V?$allocator@D@2@@std@@@?$_Tree@V?$_Tmap_traits@V?$basic_string@DU?$char_traits@D@std@@V?$allocator@D@2@@std@@V?$vector@V?$basic_string@DU?$char_traits@D@std@@V?$allocator@D@2@@std@@V?$allocator@V?$basic_string@DU?$char_traits@D@std@@V?$allocator@D@2@@std@@@2@@2@U?$less@V?$basic_string@DU?$char_traits@D@std@@V?$allocator@D@2@@std@@@2@V?$allocator@U?$pair@$$CBV?$basic_string@DU?$char_traits@D@std@@V?$allocator@D@2@@std@@V?$vector@V?$basic_string@DU?$char_traits@D@std@@V?$allocator@D@2@@std@@V?$allocator@V?$basic_string@DU?$char_traits@D@std@@V?$allocator@D@2@@std@@@2@@2@@std@@@2@$0A@@std@@@std@@IBE_NQAU?$_Tree_node@U?$pair@$$CBV?$basic_string@DU?$char_traits@D@std@@V?$allocator@D@2@@std@@V?$vector@V?$basic_string@DU?$char_traits@D@std@@V?$allocator@D@2@@std@@V?$allocator@V?$basic_string@DU?$char_traits@D@std@@V?$allocator@D@2@@std@@@2@@2@@std@@PAX@1@ABV?$basic_string@DU?$char_traits@D@std@@V?$allocator@D@2@@1@@Z PROC ; std::_Tree<std::_Tmap_traits<std::basic_string<char,std::char_traits<char>,std::allocator<char> >,std::vector<std::basic_string<char,std::char_traits<char>,std::allocator<char> >,std::allocator<std::basic_string<char,std::char_traits<char>,std::allocator<char> > > >,std::less<std::basic_string<char,std::char_traits<char>,std::allocator<char> > >,std::allocator<std::pair<std::basic_string<char,std::char_traits<char>,std::allocator<char> > const ,std::vector<std::basic_string<char,std::char_traits<char>,std::allocator<char> >,std::allocator<std::basic_string<char,std::char_traits<char>,std::allocator<char> > > > > >,0> >::_Lower_bound_duplicate<std::basic_string<char,std::char_traits<char>,std::allocator<char> > >, COMDAT
; _this$ = ecx

; 1694 :     bool _Lower_bound_duplicate(const _Nodeptr _Bound, const _Keyty& _Keyval) const {

  00000	55		 push	 ebp
  00001	8b ec		 mov	 ebp, esp
  00003	83 ec 10	 sub	 esp, 16			; 00000010H
  00006	89 4d f8	 mov	 DWORD PTR _this$[ebp], ecx

; 1695 :         return !_Bound->_Isnil && !_DEBUG_LT_PRED(_Getcomp(), _Keyval, _Traits::_Kfn(_Bound->_Myval));

  00009	8b 45 08	 mov	 eax, DWORD PTR __Bound$[ebp]
  0000c	0f be 40 0d	 movsx	 eax, BYTE PTR [eax+13]
  00010	85 c0		 test	 eax, eax
  00012	75 2d		 jne	 SHORT $LN3@Lower_boun

; 2035 :         return _Mypair._Get_first();

  00014	8b 45 f8	 mov	 eax, DWORD PTR _this$[ebp]
; File C:\Program Files (x86)\Microsoft Visual Studio\2019\Community\VC\Tools\MSVC\14.28.29333\include\xmemory

; 1351 :         return *this;

  00017	89 45 f4	 mov	 DWORD PTR $T2[ebp], eax
; File C:\Program Files (x86)\Microsoft Visual Studio\2019\Community\VC\Tools\MSVC\14.28.29333\include\xtree

; 2035 :         return _Mypair._Get_first();

  0001a	8b 45 f4	 mov	 eax, DWORD PTR $T2[ebp]
  0001d	89 45 f0	 mov	 DWORD PTR $T1[ebp], eax
; File C:\Program Files (x86)\Microsoft Visual Studio\2019\Community\VC\Tools\MSVC\14.28.29333\include\map

; 69   :         return _Val.first;

  00020	8b 45 08	 mov	 eax, DWORD PTR __Bound$[ebp]
  00023	83 c0 10	 add	 eax, 16			; 00000010H
; File C:\Program Files (x86)\Microsoft Visual Studio\2019\Community\VC\Tools\MSVC\14.28.29333\include\xstddef

; 127  :         return _Left < _Right;

  00026	50		 push	 eax
  00027	ff 75 0c	 push	 DWORD PTR __Keyval$[ebp]
  0002a	e8 00 00 00 00	 call	 ??$?MDU?$char_traits@D@std@@V?$allocator@D@1@@std@@YA_NABV?$basic_string@DU?$char_traits@D@std@@V?$allocator@D@2@@0@0@Z ; std::operator<<char,std::char_traits<char>,std::allocator<char> >
  0002f	59		 pop	 ecx
  00030	59		 pop	 ecx
; File C:\Program Files (x86)\Microsoft Visual Studio\2019\Community\VC\Tools\MSVC\14.28.29333\include\xtree

; 1695 :         return !_Bound->_Isnil && !_DEBUG_LT_PRED(_Getcomp(), _Keyval, _Traits::_Kfn(_Bound->_Myval));

  00031	0f b6 c0	 movzx	 eax, al
  00034	85 c0		 test	 eax, eax
  00036	75 09		 jne	 SHORT $LN3@Lower_boun
  00038	c7 45 fc 01 00
	00 00		 mov	 DWORD PTR tv78[ebp], 1
  0003f	eb 04		 jmp	 SHORT $LN4@Lower_boun
$LN3@Lower_boun:
  00041	83 65 fc 00	 and	 DWORD PTR tv78[ebp], 0
$LN4@Lower_boun:
  00045	8a 45 fc	 mov	 al, BYTE PTR tv78[ebp]

; 1696 :     }

  00048	c9		 leave
  00049	c2 08 00	 ret	 8
??$_Lower_bound_duplicate@V?$basic_string@DU?$char_traits@D@std@@V?$allocator@D@2@@std@@@?$_Tree@V?$_Tmap_traits@V?$basic_string@DU?$char_traits@D@std@@V?$allocator@D@2@@std@@V?$vector@V?$basic_string@DU?$char_traits@D@std@@V?$allocator@D@2@@std@@V?$allocator@V?$basic_string@DU?$char_traits@D@std@@V?$allocator@D@2@@std@@@2@@2@U?$less@V?$basic_string@DU?$char_traits@D@std@@V?$allocator@D@2@@std@@@2@V?$allocator@U?$pair@$$CBV?$basic_string@DU?$char_traits@D@std@@V?$allocator@D@2@@std@@V?$vector@V?$basic_string@DU?$char_traits@D@std@@V?$allocator@D@2@@std@@V?$allocator@V?$basic_string@DU?$char_traits@D@std@@V?$allocator@D@2@@std@@@2@@2@@std@@@2@$0A@@std@@@std@@IBE_NQAU?$_Tree_node@U?$pair@$$CBV?$basic_string@DU?$char_traits@D@std@@V?$allocator@D@2@@std@@V?$vector@V?$basic_string@DU?$char_traits@D@std@@V?$allocator@D@2@@std@@V?$allocator@V?$basic_string@DU?$char_traits@D@std@@V?$allocator@D@2@@std@@@2@@2@@std@@PAX@1@ABV?$basic_string@DU?$char_traits@D@std@@V?$allocator@D@2@@1@@Z ENDP ; std::_Tree<std::_Tmap_traits<std::basic_string<char,std::char_traits<char>,std::allocator<char> >,std::vector<std::basic_string<char,std::char_traits<char>,std::allocator<char> >,std::allocator<std::basic_string<char,std::char_traits<char>,std::allocator<char> > > >,std::less<std::basic_string<char,std::char_traits<char>,std::allocator<char> > >,std::allocator<std::pair<std::basic_string<char,std::char_traits<char>,std::allocator<char> > const ,std::vector<std::basic_string<char,std::char_traits<char>,std::allocator<char> >,std::allocator<std::basic_string<char,std::char_traits<char>,std::allocator<char> > > > > >,0> >::_Lower_bound_duplicate<std::basic_string<char,std::char_traits<char>,std::allocator<char> > >
_TEXT	ENDS
; Function compile flags: /Odspy
; File C:\Program Files (x86)\Microsoft Visual Studio\2019\Community\VC\Tools\MSVC\14.28.29333\include\xtree
; File C:\Program Files (x86)\Microsoft Visual Studio\2019\Community\VC\Tools\MSVC\14.28.29333\include\xstddef
; File C:\Program Files (x86)\Microsoft Visual Studio\2019\Community\VC\Tools\MSVC\14.28.29333\include\xtree
; File C:\Program Files (x86)\Microsoft Visual Studio\2019\Community\VC\Tools\MSVC\14.28.29333\include\xmemory
; File C:\Program Files (x86)\Microsoft Visual Studio\2019\Community\VC\Tools\MSVC\14.28.29333\include\xtree
; File C:\Program Files (x86)\Microsoft Visual Studio\2019\Community\VC\Tools\MSVC\14.28.29333\include\xstddef
; File C:\Program Files (x86)\Microsoft Visual Studio\2019\Community\VC\Tools\MSVC\14.28.29333\include\map
; File C:\Program Files (x86)\Microsoft Visual Studio\2019\Community\VC\Tools\MSVC\14.28.29333\include\xstddef
; File C:\Program Files (x86)\Microsoft Visual Studio\2019\Community\VC\Tools\MSVC\14.28.29333\include\xtree
;	COMDAT ??$_Find_lower_bound@V?$basic_string@DU?$char_traits@D@std@@V?$allocator@D@2@@std@@@?$_Tree@V?$_Tmap_traits@V?$basic_string@DU?$char_traits@D@std@@V?$allocator@D@2@@std@@V?$vector@V?$basic_string@DU?$char_traits@D@std@@V?$allocator@D@2@@std@@V?$allocator@V?$basic_string@DU?$char_traits@D@std@@V?$allocator@D@2@@std@@@2@@2@U?$less@V?$basic_string@DU?$char_traits@D@std@@V?$allocator@D@2@@std@@@2@V?$allocator@U?$pair@$$CBV?$basic_string@DU?$char_traits@D@std@@V?$allocator@D@2@@std@@V?$vector@V?$basic_string@DU?$char_traits@D@std@@V?$allocator@D@2@@std@@V?$allocator@V?$basic_string@DU?$char_traits@D@std@@V?$allocator@D@2@@std@@@2@@2@@std@@@2@$0A@@std@@@std@@IBE?AU?$_Tree_find_result@PAU?$_Tree_node@U?$pair@$$CBV?$basic_string@DU?$char_traits@D@std@@V?$allocator@D@2@@std@@V?$vector@V?$basic_string@DU?$char_traits@D@std@@V?$allocator@D@2@@std@@V?$allocator@V?$basic_string@DU?$char_traits@D@std@@V?$allocator@D@2@@std@@@2@@2@@std@@PAX@std@@@1@ABV?$basic_string@DU?$char_traits@D@std@@V?$allocator@D@2@@1@@Z
_TEXT	SEGMENT
__Result$ = -36						; size = 12
$T1 = -24						; size = 4
$T2 = -20						; size = 4
$T3 = -16						; size = 4
_this$ = -12						; size = 4
__Scary$ = -8						; size = 4
__Trynode$ = -4						; size = 4
___$ReturnUdt$ = 8					; size = 4
__Keyval$ = 12						; size = 4
??$_Find_lower_bound@V?$basic_string@DU?$char_traits@D@std@@V?$allocator@D@2@@std@@@?$_Tree@V?$_Tmap_traits@V?$basic_string@DU?$char_traits@D@std@@V?$allocator@D@2@@std@@V?$vector@V?$basic_string@DU?$char_traits@D@std@@V?$allocator@D@2@@std@@V?$allocator@V?$basic_string@DU?$char_traits@D@std@@V?$allocator@D@2@@std@@@2@@2@U?$less@V?$basic_string@DU?$char_traits@D@std@@V?$allocator@D@2@@std@@@2@V?$allocator@U?$pair@$$CBV?$basic_string@DU?$char_traits@D@std@@V?$allocator@D@2@@std@@V?$vector@V?$basic_string@DU?$char_traits@D@std@@V?$allocator@D@2@@std@@V?$allocator@V?$basic_string@DU?$char_traits@D@std@@V?$allocator@D@2@@std@@@2@@2@@std@@@2@$0A@@std@@@std@@IBE?AU?$_Tree_find_result@PAU?$_Tree_node@U?$pair@$$CBV?$basic_string@DU?$char_traits@D@std@@V?$allocator@D@2@@std@@V?$vector@V?$basic_string@DU?$char_traits@D@std@@V?$allocator@D@2@@std@@V?$allocator@V?$basic_string@DU?$char_traits@D@std@@V?$allocator@D@2@@std@@@2@@2@@std@@PAX@std@@@1@ABV?$basic_string@DU?$char_traits@D@std@@V?$allocator@D@2@@1@@Z PROC ; std::_Tree<std::_Tmap_traits<std::basic_string<char,std::char_traits<char>,std::allocator<char> >,std::vector<std::basic_string<char,std::char_traits<char>,std::allocator<char> >,std::allocator<std::basic_string<char,std::char_traits<char>,std::allocator<char> > > >,std::less<std::basic_string<char,std::char_traits<char>,std::allocator<char> > >,std::allocator<std::pair<std::basic_string<char,std::char_traits<char>,std::allocator<char> > const ,std::vector<std::basic_string<char,std::char_traits<char>,std::allocator<char> >,std::allocator<std::basic_string<char,std::char_traits<char>,std::allocator<char> > > > > >,0> >::_Find_lower_bound<std::basic_string<char,std::char_traits<char>,std::allocator<char> > >, COMDAT
; _this$ = ecx

; 1699 :     _Tree_find_result<_Nodeptr> _Find_lower_bound(const _Keyty& _Keyval) const {

  00000	55		 push	 ebp
  00001	8b ec		 mov	 ebp, esp
  00003	83 ec 24	 sub	 esp, 36			; 00000024H
  00006	56		 push	 esi
  00007	57		 push	 edi
  00008	89 4d f4	 mov	 DWORD PTR _this$[ebp], ecx

; 2051 :         return _STD addressof(_Mypair._Myval2._Myval2);

  0000b	8b 45 f4	 mov	 eax, DWORD PTR _this$[ebp]
; File C:\Program Files (x86)\Microsoft Visual Studio\2019\Community\VC\Tools\MSVC\14.28.29333\include\xstddef

; 275  :     return __builtin_addressof(_Val);

  0000e	89 45 f0	 mov	 DWORD PTR $T3[ebp], eax
; File C:\Program Files (x86)\Microsoft Visual Studio\2019\Community\VC\Tools\MSVC\14.28.29333\include\xtree

; 2051 :         return _STD addressof(_Mypair._Myval2._Myval2);

  00011	8b 45 f0	 mov	 eax, DWORD PTR $T3[ebp]
  00014	89 45 f8	 mov	 DWORD PTR __Scary$[ebp], eax

; 1700 :         const auto _Scary = _Get_scary();
; 1701 :         _Tree_find_result<_Nodeptr> _Result{{_Scary->_Myhead->_Parent, _Tree_child::_Right}, _Scary->_Myhead};

  00017	8b 45 f8	 mov	 eax, DWORD PTR __Scary$[ebp]
  0001a	8b 00		 mov	 eax, DWORD PTR [eax]
  0001c	8b 40 04	 mov	 eax, DWORD PTR [eax+4]
  0001f	89 45 dc	 mov	 DWORD PTR __Result$[ebp], eax
  00022	83 65 e0 00	 and	 DWORD PTR __Result$[ebp+4], 0
  00026	8b 45 f8	 mov	 eax, DWORD PTR __Scary$[ebp]
  00029	8b 00		 mov	 eax, DWORD PTR [eax]
  0002b	89 45 e4	 mov	 DWORD PTR __Result$[ebp+8], eax

; 1702 :         _Nodeptr _Trynode = _Result._Location._Parent;

  0002e	8b 45 dc	 mov	 eax, DWORD PTR __Result$[ebp]
  00031	89 45 fc	 mov	 DWORD PTR __Trynode$[ebp], eax
$LN2@Find_lower:

; 1703 :         while (!_Trynode->_Isnil) {

  00034	8b 45 fc	 mov	 eax, DWORD PTR __Trynode$[ebp]
  00037	0f be 40 0d	 movsx	 eax, BYTE PTR [eax+13]
  0003b	85 c0		 test	 eax, eax
  0003d	75 50		 jne	 SHORT $LN3@Find_lower

; 1704 :             _Result._Location._Parent = _Trynode;

  0003f	8b 45 fc	 mov	 eax, DWORD PTR __Trynode$[ebp]
  00042	89 45 dc	 mov	 DWORD PTR __Result$[ebp], eax

; 2035 :         return _Mypair._Get_first();

  00045	8b 45 f4	 mov	 eax, DWORD PTR _this$[ebp]
; File C:\Program Files (x86)\Microsoft Visual Studio\2019\Community\VC\Tools\MSVC\14.28.29333\include\xmemory

; 1351 :         return *this;

  00048	89 45 ec	 mov	 DWORD PTR $T2[ebp], eax
; File C:\Program Files (x86)\Microsoft Visual Studio\2019\Community\VC\Tools\MSVC\14.28.29333\include\xtree

; 2035 :         return _Mypair._Get_first();

  0004b	8b 45 ec	 mov	 eax, DWORD PTR $T2[ebp]
  0004e	89 45 e8	 mov	 DWORD PTR $T1[ebp], eax
; File C:\Program Files (x86)\Microsoft Visual Studio\2019\Community\VC\Tools\MSVC\14.28.29333\include\xstddef

; 127  :         return _Left < _Right;

  00051	ff 75 0c	 push	 DWORD PTR __Keyval$[ebp]
; File C:\Program Files (x86)\Microsoft Visual Studio\2019\Community\VC\Tools\MSVC\14.28.29333\include\map

; 69   :         return _Val.first;

  00054	8b 45 fc	 mov	 eax, DWORD PTR __Trynode$[ebp]
  00057	83 c0 10	 add	 eax, 16			; 00000010H
; File C:\Program Files (x86)\Microsoft Visual Studio\2019\Community\VC\Tools\MSVC\14.28.29333\include\xstddef

; 127  :         return _Left < _Right;

  0005a	50		 push	 eax
  0005b	e8 00 00 00 00	 call	 ??$?MDU?$char_traits@D@std@@V?$allocator@D@1@@std@@YA_NABV?$basic_string@DU?$char_traits@D@std@@V?$allocator@D@2@@0@0@Z ; std::operator<<char,std::char_traits<char>,std::allocator<char> >
  00060	59		 pop	 ecx
  00061	59		 pop	 ecx
; File C:\Program Files (x86)\Microsoft Visual Studio\2019\Community\VC\Tools\MSVC\14.28.29333\include\xtree

; 1705 :             if (_DEBUG_LT_PRED(_Getcomp(), _Traits::_Kfn(_Trynode->_Myval), _Keyval)) {

  00062	0f b6 c0	 movzx	 eax, al
  00065	85 c0		 test	 eax, eax
  00067	74 0f		 je	 SHORT $LN4@Find_lower

; 1706 :                 _Result._Location._Child = _Tree_child::_Right;

  00069	83 65 e0 00	 and	 DWORD PTR __Result$[ebp+4], 0

; 1707 :                 _Trynode                 = _Trynode->_Right;

  0006d	8b 45 fc	 mov	 eax, DWORD PTR __Trynode$[ebp]
  00070	8b 40 08	 mov	 eax, DWORD PTR [eax+8]
  00073	89 45 fc	 mov	 DWORD PTR __Trynode$[ebp], eax

; 1708 :             } else {

  00076	eb 15		 jmp	 SHORT $LN5@Find_lower
$LN4@Find_lower:

; 1709 :                 _Result._Location._Child = _Tree_child::_Left;

  00078	c7 45 e0 01 00
	00 00		 mov	 DWORD PTR __Result$[ebp+4], 1

; 1710 :                 _Result._Bound           = _Trynode;

  0007f	8b 45 fc	 mov	 eax, DWORD PTR __Trynode$[ebp]
  00082	89 45 e4	 mov	 DWORD PTR __Result$[ebp+8], eax

; 1711 :                 _Trynode                 = _Trynode->_Left;

  00085	8b 45 fc	 mov	 eax, DWORD PTR __Trynode$[ebp]
  00088	8b 00		 mov	 eax, DWORD PTR [eax]
  0008a	89 45 fc	 mov	 DWORD PTR __Trynode$[ebp], eax
$LN5@Find_lower:

; 1712 :             }
; 1713 :         }

  0008d	eb a5		 jmp	 SHORT $LN2@Find_lower
$LN3@Find_lower:

; 1714 : 
; 1715 :         return _Result;

  0008f	8d 75 dc	 lea	 esi, DWORD PTR __Result$[ebp]
  00092	8b 7d 08	 mov	 edi, DWORD PTR ___$ReturnUdt$[ebp]
  00095	a5		 movsd
  00096	a5		 movsd
  00097	a5		 movsd
  00098	8b 45 08	 mov	 eax, DWORD PTR ___$ReturnUdt$[ebp]

; 1716 :     }

  0009b	5f		 pop	 edi
  0009c	5e		 pop	 esi
  0009d	c9		 leave
  0009e	c2 08 00	 ret	 8
??$_Find_lower_bound@V?$basic_string@DU?$char_traits@D@std@@V?$allocator@D@2@@std@@@?$_Tree@V?$_Tmap_traits@V?$basic_string@DU?$char_traits@D@std@@V?$allocator@D@2@@std@@V?$vector@V?$basic_string@DU?$char_traits@D@std@@V?$allocator@D@2@@std@@V?$allocator@V?$basic_string@DU?$char_traits@D@std@@V?$allocator@D@2@@std@@@2@@2@U?$less@V?$basic_string@DU?$char_traits@D@std@@V?$allocator@D@2@@std@@@2@V?$allocator@U?$pair@$$CBV?$basic_string@DU?$char_traits@D@std@@V?$allocator@D@2@@std@@V?$vector@V?$basic_string@DU?$char_traits@D@std@@V?$allocator@D@2@@std@@V?$allocator@V?$basic_string@DU?$char_traits@D@std@@V?$allocator@D@2@@std@@@2@@2@@std@@@2@$0A@@std@@@std@@IBE?AU?$_Tree_find_result@PAU?$_Tree_node@U?$pair@$$CBV?$basic_string@DU?$char_traits@D@std@@V?$allocator@D@2@@std@@V?$vector@V?$basic_string@DU?$char_traits@D@std@@V?$allocator@D@2@@std@@V?$allocator@V?$basic_string@DU?$char_traits@D@std@@V?$allocator@D@2@@std@@@2@@2@@std@@PAX@std@@@1@ABV?$basic_string@DU?$char_traits@D@std@@V?$allocator@D@2@@1@@Z ENDP ; std::_Tree<std::_Tmap_traits<std::basic_string<char,std::char_traits<char>,std::allocator<char> >,std::vector<std::basic_string<char,std::char_traits<char>,std::allocator<char> >,std::allocator<std::basic_string<char,std::char_traits<char>,std::allocator<char> > > >,std::less<std::basic_string<char,std::char_traits<char>,std::allocator<char> > >,std::allocator<std::pair<std::basic_string<char,std::char_traits<char>,std::allocator<char> > const ,std::vector<std::basic_string<char,std::char_traits<char>,std::allocator<char> >,std::allocator<std::basic_string<char,std::char_traits<char>,std::allocator<char> > > > > >,0> >::_Find_lower_bound<std::basic_string<char,std::char_traits<char>,std::allocator<char> > >
_TEXT	ENDS
; Function compile flags: /Odspy
; File C:\Program Files (x86)\Microsoft Visual Studio\2019\Community\VC\Tools\MSVC\14.28.29333\include\xstring
;	COMDAT ??$?8DU?$char_traits@D@std@@V?$allocator@D@1@@std@@YA_NABV?$basic_string@DU?$char_traits@D@std@@V?$allocator@D@2@@0@QBD@Z
_TEXT	SEGMENT
__Left$ = 8						; size = 4
__Right$ = 12						; size = 4
??$?8DU?$char_traits@D@std@@V?$allocator@D@1@@std@@YA_NABV?$basic_string@DU?$char_traits@D@std@@V?$allocator@D@2@@0@QBD@Z PROC ; std::operator==<char,std::char_traits<char>,std::allocator<char> >, COMDAT

; 4564 : _NODISCARD bool operator==(const basic_string<_Elem, _Traits, _Alloc>& _Left, _In_z_ const _Elem* const _Right) {

  00000	55		 push	 ebp
  00001	8b ec		 mov	 ebp, esp

; 4565 :     return _Left._Equal(_Right);

  00003	ff 75 0c	 push	 DWORD PTR __Right$[ebp]
  00006	8b 4d 08	 mov	 ecx, DWORD PTR __Left$[ebp]
  00009	e8 00 00 00 00	 call	 ?_Equal@?$basic_string@DU?$char_traits@D@std@@V?$allocator@D@2@@std@@QBE_NQBD@Z ; std::basic_string<char,std::char_traits<char>,std::allocator<char> >::_Equal

; 4566 : }

  0000e	5d		 pop	 ebp
  0000f	c3		 ret	 0
??$?8DU?$char_traits@D@std@@V?$allocator@D@1@@std@@YA_NABV?$basic_string@DU?$char_traits@D@std@@V?$allocator@D@2@@0@QBD@Z ENDP ; std::operator==<char,std::char_traits<char>,std::allocator<char> >
_TEXT	ENDS
; Function compile flags: /Odspy
; File C:\Program Files (x86)\Microsoft Visual Studio\2019\Community\VC\Tools\MSVC\14.28.29333\include\xmemory
; File C:\Program Files (x86)\Microsoft Visual Studio\2019\Community\VC\Tools\MSVC\14.28.29333\include\xstddef
; File C:\Program Files (x86)\Microsoft Visual Studio\2019\Community\VC\Tools\MSVC\14.28.29333\include\xstring
; File C:\Program Files (x86)\Microsoft Visual Studio\2019\Community\VC\Tools\MSVC\14.28.29333\include\xmemory
;	COMDAT ??$_Destroy_range@V?$allocator@V?$basic_string@DU?$char_traits@D@std@@V?$allocator@D@2@@std@@@std@@@std@@YAXPAV?$basic_string@DU?$char_traits@D@std@@V?$allocator@D@2@@0@QAV10@AAV?$allocator@V?$basic_string@DU?$char_traits@D@std@@V?$allocator@D@2@@std@@@0@@Z
_TEXT	SEGMENT
$T1 = -4						; size = 4
__First$ = 8						; size = 4
__Last$ = 12						; size = 4
__Al$ = 16						; size = 4
??$_Destroy_range@V?$allocator@V?$basic_string@DU?$char_traits@D@std@@V?$allocator@D@2@@std@@@std@@@std@@YAXPAV?$basic_string@DU?$char_traits@D@std@@V?$allocator@D@2@@0@QAV10@AAV?$allocator@V?$basic_string@DU?$char_traits@D@std@@V?$allocator@D@2@@std@@@0@@Z PROC ; std::_Destroy_range<std::allocator<std::basic_string<char,std::char_traits<char>,std::allocator<char> > > >, COMDAT

; 962  :     _Alloc_ptr_t<_Alloc> _First, const _Alloc_ptr_t<_Alloc> _Last, _Alloc& _Al) noexcept {

  00000	55		 push	 ebp
  00001	8b ec		 mov	 ebp, esp
  00003	51		 push	 ecx

; 963  :     // note that this is an optimization for debug mode codegen; in release mode the BE removes all of this
; 964  :     using _Ty = typename _Alloc::value_type;
; 965  :     if _CONSTEXPR_IF (!conjunction_v<is_trivially_destructible<_Ty>, _Uses_default_destroy<_Alloc, _Ty*>>) {
; 966  :         for (; _First != _Last; ++_First) {

  00004	eb 09		 jmp	 SHORT $LN4@Destroy_ra
$LN2@Destroy_ra:
  00006	8b 45 08	 mov	 eax, DWORD PTR __First$[ebp]
  00009	83 c0 18	 add	 eax, 24			; 00000018H
  0000c	89 45 08	 mov	 DWORD PTR __First$[ebp], eax
$LN4@Destroy_ra:
  0000f	8b 45 08	 mov	 eax, DWORD PTR __First$[ebp]
  00012	3b 45 0c	 cmp	 eax, DWORD PTR __Last$[ebp]
  00015	74 23		 je	 SHORT $LN5@Destroy_ra
; File C:\Program Files (x86)\Microsoft Visual Studio\2019\Community\VC\Tools\MSVC\14.28.29333\include\xstddef

; 289  :     return _Ptr;

  00017	8b 45 08	 mov	 eax, DWORD PTR __First$[ebp]
  0001a	89 45 fc	 mov	 DWORD PTR $T1[ebp], eax
; File C:\Program Files (x86)\Microsoft Visual Studio\2019\Community\VC\Tools\MSVC\14.28.29333\include\xstring

; 2801 :         _Tidy_deallocate();

  0001d	8b 4d fc	 mov	 ecx, DWORD PTR $T1[ebp]
  00020	e8 00 00 00 00	 call	 ?_Tidy_deallocate@?$basic_string@DU?$char_traits@D@std@@V?$allocator@D@2@@std@@AAEXXZ ; std::basic_string<char,std::char_traits<char>,std::allocator<char> >::_Tidy_deallocate
  00025	33 c0		 xor	 eax, eax
  00027	83 e0 01	 and	 eax, 1
  0002a	74 0c		 je	 SHORT $LN9@Destroy_ra
  0002c	6a 18		 push	 24			; 00000018H
  0002e	ff 75 fc	 push	 DWORD PTR $T1[ebp]
  00031	e8 00 00 00 00	 call	 ??3@YAXPAXI@Z		; operator delete
  00036	59		 pop	 ecx
  00037	59		 pop	 ecx
$LN9@Destroy_ra:
; File C:\Program Files (x86)\Microsoft Visual Studio\2019\Community\VC\Tools\MSVC\14.28.29333\include\xmemory

; 968  :         }

  00038	eb cc		 jmp	 SHORT $LN2@Destroy_ra
$LN5@Destroy_ra:

; 969  :     }
; 970  : }

  0003a	c9		 leave
  0003b	c3		 ret	 0
??$_Destroy_range@V?$allocator@V?$basic_string@DU?$char_traits@D@std@@V?$allocator@D@2@@std@@@std@@@std@@YAXPAV?$basic_string@DU?$char_traits@D@std@@V?$allocator@D@2@@0@QAV10@AAV?$allocator@V?$basic_string@DU?$char_traits@D@std@@V?$allocator@D@2@@std@@@0@@Z ENDP ; std::_Destroy_range<std::allocator<std::basic_string<char,std::char_traits<char>,std::allocator<char> > > >
_TEXT	ENDS
; Function compile flags: /Odspy
; File C:\Program Files (x86)\Microsoft Visual Studio\2019\Community\VC\Tools\MSVC\14.28.29333\include\xtree
; File C:\Program Files (x86)\Microsoft Visual Studio\2019\Community\VC\Tools\MSVC\14.28.29333\include\xmemory
; File C:\Program Files (x86)\Microsoft Visual Studio\2019\Community\VC\Tools\MSVC\14.28.29333\include\xtree
;	COMDAT ??$_Buyheadnode@V?$allocator@U?$_Tree_node@U?$pair@$$CBV?$basic_string@DU?$char_traits@D@std@@V?$allocator@D@2@@std@@V?$vector@V?$basic_string@DU?$char_traits@D@std@@V?$allocator@D@2@@std@@V?$allocator@V?$basic_string@DU?$char_traits@D@std@@V?$allocator@D@2@@std@@@2@@2@@std@@PAX@std@@@std@@@?$_Tree_node@U?$pair@$$CBV?$basic_string@DU?$char_traits@D@std@@V?$allocator@D@2@@std@@V?$vector@V?$basic_string@DU?$char_traits@D@std@@V?$allocator@D@2@@std@@V?$allocator@V?$basic_string@DU?$char_traits@D@std@@V?$allocator@D@2@@std@@@2@@2@@std@@PAX@std@@SAPAU01@AAV?$allocator@U?$_Tree_node@U?$pair@$$CBV?$basic_string@DU?$char_traits@D@std@@V?$allocator@D@2@@std@@V?$vector@V?$basic_string@DU?$char_traits@D@std@@V?$allocator@D@2@@std@@V?$allocator@V?$basic_string@DU?$char_traits@D@std@@V?$allocator@D@2@@std@@@2@@2@@std@@PAX@std@@@1@@Z
_TEXT	SEGMENT
__Max_possible$1 = -20					; size = 4
$T2 = -16						; size = 4
$T3 = -12						; size = 4
__Pnode$ = -8						; size = 4
__Overflow_is_possible$4 = -1				; size = 1
__Al$ = 8						; size = 4
??$_Buyheadnode@V?$allocator@U?$_Tree_node@U?$pair@$$CBV?$basic_string@DU?$char_traits@D@std@@V?$allocator@D@2@@std@@V?$vector@V?$basic_string@DU?$char_traits@D@std@@V?$allocator@D@2@@std@@V?$allocator@V?$basic_string@DU?$char_traits@D@std@@V?$allocator@D@2@@std@@@2@@2@@std@@PAX@std@@@std@@@?$_Tree_node@U?$pair@$$CBV?$basic_string@DU?$char_traits@D@std@@V?$allocator@D@2@@std@@V?$vector@V?$basic_string@DU?$char_traits@D@std@@V?$allocator@D@2@@std@@V?$allocator@V?$basic_string@DU?$char_traits@D@std@@V?$allocator@D@2@@std@@@2@@2@@std@@PAX@std@@SAPAU01@AAV?$allocator@U?$_Tree_node@U?$pair@$$CBV?$basic_string@DU?$char_traits@D@std@@V?$allocator@D@2@@std@@V?$vector@V?$basic_string@DU?$char_traits@D@std@@V?$allocator@D@2@@std@@V?$allocator@V?$basic_string@DU?$char_traits@D@std@@V?$allocator@D@2@@std@@@2@@2@@std@@PAX@std@@@1@@Z PROC ; std::_Tree_node<std::pair<std::basic_string<char,std::char_traits<char>,std::allocator<char> > const ,std::vector<std::basic_string<char,std::char_traits<char>,std::allocator<char> >,std::allocator<std::basic_string<char,std::char_traits<char>,std::allocator<char> > > > >,void *>::_Buyheadnode<std::allocator<std::_Tree_node<std::pair<std::basic_string<char,std::char_traits<char>,std::allocator<char> > const ,std::vector<std::basic_string<char,std::char_traits<char>,std::allocator<char> >,std::allocator<std::basic_string<char,std::char_traits<char>,std::allocator<char> > > > >,void *> > >, COMDAT

; 341  :     static _Nodeptr _Buyheadnode(_Alloc& _Al) {

  00000	55		 push	 ebp
  00001	8b ec		 mov	 ebp, esp
  00003	83 ec 14	 sub	 esp, 20			; 00000014H
; File C:\Program Files (x86)\Microsoft Visual Studio\2019\Community\VC\Tools\MSVC\14.28.29333\include\xmemory

; 56   :     constexpr bool _Overflow_is_possible = _Ty_size > 1;

  00006	c6 45 ff 01	 mov	 BYTE PTR __Overflow_is_possible$4[ebp], 1

; 57   : 
; 58   :     if _CONSTEXPR_IF (_Overflow_is_possible) {
; 59   :         constexpr size_t _Max_possible = static_cast<size_t>(-1) / _Ty_size;

  0000a	c7 45 ec c4 4e
	ec 04		 mov	 DWORD PTR __Max_possible$1[ebp], 82595524 ; 04ec4ec4H

; 60   :         if (_Count > _Max_possible) {

  00011	33 c0		 xor	 eax, eax
  00013	40		 inc	 eax
  00014	3d c4 4e ec 04	 cmp	 eax, 82595524		; 04ec4ec4H
  00019	76 05		 jbe	 SHORT $LN6@Buyheadnod

; 61   :             _Throw_bad_array_new_length(); // multiply overflow

  0001b	e8 00 00 00 00	 call	 ?_Throw_bad_array_new_length@std@@YAXXZ ; std::_Throw_bad_array_new_length
$LN6@Buyheadnod:

; 62   :         }
; 63   :     }
; 64   : 
; 65   :     return _Count * _Ty_size;

  00020	33 c0		 xor	 eax, eax
  00022	40		 inc	 eax
  00023	6b c0 34	 imul	 eax, eax, 52
  00026	89 45 f4	 mov	 DWORD PTR $T3[ebp], eax

; 814  :         return static_cast<_Ty*>(_Allocate<_New_alignof<_Ty>>(_Get_size_of_n<sizeof(_Ty)>(_Count)));

  00029	ff 75 f4	 push	 DWORD PTR $T3[ebp]
  0002c	e8 00 00 00 00	 call	 ??$_Allocate@$07U_Default_allocate_traits@std@@$0A@@std@@YAPAXI@Z ; std::_Allocate<8,std::_Default_allocate_traits,0>
  00031	59		 pop	 ecx
  00032	89 45 f0	 mov	 DWORD PTR $T2[ebp], eax
; File C:\Program Files (x86)\Microsoft Visual Studio\2019\Community\VC\Tools\MSVC\14.28.29333\include\xtree

; 343  :         const auto _Pnode = _Al.allocate(1);

  00035	8b 45 f0	 mov	 eax, DWORD PTR $T2[ebp]
  00038	89 45 f8	 mov	 DWORD PTR __Pnode$[ebp], eax

; 344  :         _Construct_in_place(_Pnode->_Left, _Pnode);

  0003b	8d 45 f8	 lea	 eax, DWORD PTR __Pnode$[ebp]
  0003e	50		 push	 eax
  0003f	ff 75 f8	 push	 DWORD PTR __Pnode$[ebp]
  00042	e8 00 00 00 00	 call	 ??$_Construct_in_place@PAU?$_Tree_node@U?$pair@$$CBV?$basic_string@DU?$char_traits@D@std@@V?$allocator@D@2@@std@@V?$vector@V?$basic_string@DU?$char_traits@D@std@@V?$allocator@D@2@@std@@V?$allocator@V?$basic_string@DU?$char_traits@D@std@@V?$allocator@D@2@@std@@@2@@2@@std@@PAX@std@@ABQAU12@@std@@YAXAAPAU?$_Tree_node@U?$pair@$$CBV?$basic_string@DU?$char_traits@D@std@@V?$allocator@D@2@@std@@V?$vector@V?$basic_string@DU?$char_traits@D@std@@V?$allocator@D@2@@std@@V?$allocator@V?$basic_string@DU?$char_traits@D@std@@V?$allocator@D@2@@std@@@2@@2@@std@@PAX@0@ABQAU10@@Z ; std::_Construct_in_place<std::_Tree_node<std::pair<std::basic_string<char,std::char_traits<char>,std::allocator<char> > const ,std::vector<std::basic_string<char,std::char_traits<char>,std::allocator<char> >,std::allocator<std::basic_string<char,std::char_traits<char>,std::allocator<char> > > > >,void *> *,std::_Tree_node<std::pair<std::basic_string<char,std::char_traits<char>,std::allocator<char> > const ,std::vector<std::basic_string<char,std::char_traits<char>,std::allocator<char> >,std::allocator<std::basic_string<char,std::char_traits<char>,std::allocator<char> > > > >,void *> * const &>
  00047	59		 pop	 ecx
  00048	59		 pop	 ecx

; 345  :         _Construct_in_place(_Pnode->_Parent, _Pnode);

  00049	8d 45 f8	 lea	 eax, DWORD PTR __Pnode$[ebp]
  0004c	50		 push	 eax
  0004d	8b 45 f8	 mov	 eax, DWORD PTR __Pnode$[ebp]
  00050	83 c0 04	 add	 eax, 4
  00053	50		 push	 eax
  00054	e8 00 00 00 00	 call	 ??$_Construct_in_place@PAU?$_Tree_node@U?$pair@$$CBV?$basic_string@DU?$char_traits@D@std@@V?$allocator@D@2@@std@@V?$vector@V?$basic_string@DU?$char_traits@D@std@@V?$allocator@D@2@@std@@V?$allocator@V?$basic_string@DU?$char_traits@D@std@@V?$allocator@D@2@@std@@@2@@2@@std@@PAX@std@@ABQAU12@@std@@YAXAAPAU?$_Tree_node@U?$pair@$$CBV?$basic_string@DU?$char_traits@D@std@@V?$allocator@D@2@@std@@V?$vector@V?$basic_string@DU?$char_traits@D@std@@V?$allocator@D@2@@std@@V?$allocator@V?$basic_string@DU?$char_traits@D@std@@V?$allocator@D@2@@std@@@2@@2@@std@@PAX@0@ABQAU10@@Z ; std::_Construct_in_place<std::_Tree_node<std::pair<std::basic_string<char,std::char_traits<char>,std::allocator<char> > const ,std::vector<std::basic_string<char,std::char_traits<char>,std::allocator<char> >,std::allocator<std::basic_string<char,std::char_traits<char>,std::allocator<char> > > > >,void *> *,std::_Tree_node<std::pair<std::basic_string<char,std::char_traits<char>,std::allocator<char> > const ,std::vector<std::basic_string<char,std::char_traits<char>,std::allocator<char> >,std::allocator<std::basic_string<char,std::char_traits<char>,std::allocator<char> > > > >,void *> * const &>
  00059	59		 pop	 ecx
  0005a	59		 pop	 ecx

; 346  :         _Construct_in_place(_Pnode->_Right, _Pnode);

  0005b	8d 45 f8	 lea	 eax, DWORD PTR __Pnode$[ebp]
  0005e	50		 push	 eax
  0005f	8b 45 f8	 mov	 eax, DWORD PTR __Pnode$[ebp]
  00062	83 c0 08	 add	 eax, 8
  00065	50		 push	 eax
  00066	e8 00 00 00 00	 call	 ??$_Construct_in_place@PAU?$_Tree_node@U?$pair@$$CBV?$basic_string@DU?$char_traits@D@std@@V?$allocator@D@2@@std@@V?$vector@V?$basic_string@DU?$char_traits@D@std@@V?$allocator@D@2@@std@@V?$allocator@V?$basic_string@DU?$char_traits@D@std@@V?$allocator@D@2@@std@@@2@@2@@std@@PAX@std@@ABQAU12@@std@@YAXAAPAU?$_Tree_node@U?$pair@$$CBV?$basic_string@DU?$char_traits@D@std@@V?$allocator@D@2@@std@@V?$vector@V?$basic_string@DU?$char_traits@D@std@@V?$allocator@D@2@@std@@V?$allocator@V?$basic_string@DU?$char_traits@D@std@@V?$allocator@D@2@@std@@@2@@2@@std@@PAX@0@ABQAU10@@Z ; std::_Construct_in_place<std::_Tree_node<std::pair<std::basic_string<char,std::char_traits<char>,std::allocator<char> > const ,std::vector<std::basic_string<char,std::char_traits<char>,std::allocator<char> >,std::allocator<std::basic_string<char,std::char_traits<char>,std::allocator<char> > > > >,void *> *,std::_Tree_node<std::pair<std::basic_string<char,std::char_traits<char>,std::allocator<char> > const ,std::vector<std::basic_string<char,std::char_traits<char>,std::allocator<char> >,std::allocator<std::basic_string<char,std::char_traits<char>,std::allocator<char> > > > >,void *> * const &>
  0006b	59		 pop	 ecx
  0006c	59		 pop	 ecx

; 347  :         _Pnode->_Color = _Black;

  0006d	8b 45 f8	 mov	 eax, DWORD PTR __Pnode$[ebp]
  00070	c6 40 0c 01	 mov	 BYTE PTR [eax+12], 1

; 348  :         _Pnode->_Isnil = true;

  00074	8b 45 f8	 mov	 eax, DWORD PTR __Pnode$[ebp]
  00077	c6 40 0d 01	 mov	 BYTE PTR [eax+13], 1

; 349  :         return _Pnode;

  0007b	8b 45 f8	 mov	 eax, DWORD PTR __Pnode$[ebp]
$LN9@Buyheadnod:

; 350  :     }

  0007e	c9		 leave
  0007f	c3		 ret	 0
??$_Buyheadnode@V?$allocator@U?$_Tree_node@U?$pair@$$CBV?$basic_string@DU?$char_traits@D@std@@V?$allocator@D@2@@std@@V?$vector@V?$basic_string@DU?$char_traits@D@std@@V?$allocator@D@2@@std@@V?$allocator@V?$basic_string@DU?$char_traits@D@std@@V?$allocator@D@2@@std@@@2@@2@@std@@PAX@std@@@std@@@?$_Tree_node@U?$pair@$$CBV?$basic_string@DU?$char_traits@D@std@@V?$allocator@D@2@@std@@V?$vector@V?$basic_string@DU?$char_traits@D@std@@V?$allocator@D@2@@std@@V?$allocator@V?$basic_string@DU?$char_traits@D@std@@V?$allocator@D@2@@std@@@2@@2@@std@@PAX@std@@SAPAU01@AAV?$allocator@U?$_Tree_node@U?$pair@$$CBV?$basic_string@DU?$char_traits@D@std@@V?$allocator@D@2@@std@@V?$vector@V?$basic_string@DU?$char_traits@D@std@@V?$allocator@D@2@@std@@V?$allocator@V?$basic_string@DU?$char_traits@D@std@@V?$allocator@D@2@@std@@@2@@2@@std@@PAX@std@@@1@@Z ENDP ; std::_Tree_node<std::pair<std::basic_string<char,std::char_traits<char>,std::allocator<char> > const ,std::vector<std::basic_string<char,std::char_traits<char>,std::allocator<char> >,std::allocator<std::basic_string<char,std::char_traits<char>,std::allocator<char> > > > >,void *>::_Buyheadnode<std::allocator<std::_Tree_node<std::pair<std::basic_string<char,std::char_traits<char>,std::allocator<char> > const ,std::vector<std::basic_string<char,std::char_traits<char>,std::allocator<char> >,std::allocator<std::basic_string<char,std::char_traits<char>,std::allocator<char> > > > >,void *> > >
_TEXT	ENDS
; Function compile flags: /Odspy
; File C:\Program Files (x86)\Microsoft Visual Studio\2019\Community\VC\Tools\MSVC\14.28.29333\include\xmemory
;	COMDAT ??$_Pocca@V?$allocator@D@std@@@std@@YAXAAV?$allocator@D@0@ABV10@@Z
_TEXT	SEGMENT
__Left$ = 8						; size = 4
__Right$ = 12						; size = 4
??$_Pocca@V?$allocator@D@std@@@std@@YAXAAV?$allocator@D@0@ABV10@@Z PROC ; std::_Pocca<std::allocator<char> >, COMDAT

; 885  : void _Pocca(_Alloc& _Left, const _Alloc& _Right) noexcept {

  00000	55		 push	 ebp
  00001	8b ec		 mov	 ebp, esp

; 886  :     if constexpr (allocator_traits<_Alloc>::propagate_on_container_copy_assignment::value) {
; 887  :         _Left = _Right;
; 888  :     }
; 889  : }

  00003	5d		 pop	 ebp
  00004	c3		 ret	 0
??$_Pocca@V?$allocator@D@std@@@std@@YAXAAV?$allocator@D@0@ABV10@@Z ENDP ; std::_Pocca<std::allocator<char> >
_TEXT	ENDS
; Function compile flags: /Odspy
; File C:\Program Files (x86)\Microsoft Visual Studio\2019\Community\VC\Tools\MSVC\14.28.29333\include\xmemory
;	COMDAT ??$_Destroy_in_place@PAPAVCTerrain@@@std@@YAXAAPAPAVCTerrain@@@Z
_TEXT	SEGMENT
__Obj$ = 8						; size = 4
??$_Destroy_in_place@PAPAVCTerrain@@@std@@YAXAAPAPAVCTerrain@@@Z PROC ; std::_Destroy_in_place<CTerrain * *>, COMDAT

; 270  : /* _CONSTEXPR20_DYNALLOC */ void _Destroy_in_place(_Ty& _Obj) noexcept {

  00000	55		 push	 ebp
  00001	8b ec		 mov	 ebp, esp

; 271  : #if _HAS_IF_CONSTEXPR
; 272  :     if constexpr (is_array_v<_Ty>) {
; 273  :         _Destroy_range(_Obj, _Obj + extent_v<_Ty>);
; 274  :     } else
; 275  : #endif // _HAS_IF_CONSTEXPR
; 276  :     {
; 277  :         _Obj.~_Ty();
; 278  :     }
; 279  : }

  00003	5d		 pop	 ebp
  00004	c3		 ret	 0
??$_Destroy_in_place@PAPAVCTerrain@@@std@@YAXAAPAPAVCTerrain@@@Z ENDP ; std::_Destroy_in_place<CTerrain * *>
_TEXT	ENDS
; Function compile flags: /Odspy
; File C:\Program Files (x86)\Microsoft Visual Studio\2019\Community\VC\Tools\MSVC\14.28.29333\include\xmemory
;	COMDAT ??$_Destroy_in_place@PAPAVCArea@@@std@@YAXAAPAPAVCArea@@@Z
_TEXT	SEGMENT
__Obj$ = 8						; size = 4
??$_Destroy_in_place@PAPAVCArea@@@std@@YAXAAPAPAVCArea@@@Z PROC ; std::_Destroy_in_place<CArea * *>, COMDAT

; 270  : /* _CONSTEXPR20_DYNALLOC */ void _Destroy_in_place(_Ty& _Obj) noexcept {

  00000	55		 push	 ebp
  00001	8b ec		 mov	 ebp, esp

; 271  : #if _HAS_IF_CONSTEXPR
; 272  :     if constexpr (is_array_v<_Ty>) {
; 273  :         _Destroy_range(_Obj, _Obj + extent_v<_Ty>);
; 274  :     } else
; 275  : #endif // _HAS_IF_CONSTEXPR
; 276  :     {
; 277  :         _Obj.~_Ty();
; 278  :     }
; 279  : }

  00003	5d		 pop	 ebp
  00004	c3		 ret	 0
??$_Destroy_in_place@PAPAVCArea@@@std@@YAXAAPAPAVCArea@@@Z ENDP ; std::_Destroy_in_place<CArea * *>
_TEXT	ENDS
; Function compile flags: /Odspy
; File C:\Program Files (x86)\Microsoft Visual Studio\2019\Community\VC\Tools\MSVC\14.28.29333\include\deque
;	COMDAT ??D?$_Deque_unchecked_const_iterator@V?$_Deque_val@U?$_Deque_simple_types@PAVCTerrain@@@std@@@std@@@std@@QBEABQAVCTerrain@@XZ
_TEXT	SEGMENT
__Off$ = -20						; size = 4
__Block$ = -16						; size = 4
_this$ = -12						; size = 4
__Off$ = -8						; size = 4
_this$ = -4						; size = 4
??D?$_Deque_unchecked_const_iterator@V?$_Deque_val@U?$_Deque_simple_types@PAVCTerrain@@@std@@@std@@@std@@QBEABQAVCTerrain@@XZ PROC ; std::_Deque_unchecked_const_iterator<std::_Deque_val<std::_Deque_simple_types<CTerrain *> > >::operator*, COMDAT
; _this$ = ecx

; 54   :     _NODISCARD reference operator*() const noexcept {

  00000	55		 push	 ebp
  00001	8b ec		 mov	 ebp, esp
  00003	83 ec 14	 sub	 esp, 20			; 00000014H
  00006	89 4d fc	 mov	 DWORD PTR _this$[ebp], ecx

; 55   :         _Size_type _Block = _Mycont->_Getblock(_Myoff);

  00009	8b 45 fc	 mov	 eax, DWORD PTR _this$[ebp]
  0000c	8b 40 04	 mov	 eax, DWORD PTR [eax+4]
  0000f	89 45 f8	 mov	 DWORD PTR __Off$[ebp], eax
  00012	8b 45 fc	 mov	 eax, DWORD PTR _this$[ebp]
  00015	8b 00		 mov	 eax, DWORD PTR [eax]
  00017	89 45 f4	 mov	 DWORD PTR _this$[ebp], eax

; 548  :         return (_Off / _DEQUESIZ) & (_Mapsize - 1);

  0001a	8b 45 f8	 mov	 eax, DWORD PTR __Off$[ebp]
  0001d	c1 e8 02	 shr	 eax, 2
  00020	8b 4d f4	 mov	 ecx, DWORD PTR _this$[ebp]
  00023	8b 49 08	 mov	 ecx, DWORD PTR [ecx+8]
  00026	49		 dec	 ecx
  00027	23 c1		 and	 eax, ecx
  00029	89 45 f0	 mov	 DWORD PTR __Block$[ebp], eax

; 56   :         _Size_type _Off   = _Myoff % _DEQUESIZ;

  0002c	8b 45 fc	 mov	 eax, DWORD PTR _this$[ebp]
  0002f	8b 40 04	 mov	 eax, DWORD PTR [eax+4]
  00032	33 d2		 xor	 edx, edx
  00034	6a 04		 push	 4
  00036	59		 pop	 ecx
  00037	f7 f1		 div	 ecx
  00039	89 55 ec	 mov	 DWORD PTR __Off$[ebp], edx

; 57   :         return _Mycont->_Map[_Block][_Off];

  0003c	8b 45 fc	 mov	 eax, DWORD PTR _this$[ebp]
  0003f	8b 00		 mov	 eax, DWORD PTR [eax]
  00041	8b 40 04	 mov	 eax, DWORD PTR [eax+4]
  00044	8b 4d f0	 mov	 ecx, DWORD PTR __Block$[ebp]
  00047	8b 04 88	 mov	 eax, DWORD PTR [eax+ecx*4]
  0004a	8b 4d ec	 mov	 ecx, DWORD PTR __Off$[ebp]
  0004d	8d 04 88	 lea	 eax, DWORD PTR [eax+ecx*4]

; 58   :     }

  00050	c9		 leave
  00051	c3		 ret	 0
??D?$_Deque_unchecked_const_iterator@V?$_Deque_val@U?$_Deque_simple_types@PAVCTerrain@@@std@@@std@@@std@@QBEABQAVCTerrain@@XZ ENDP ; std::_Deque_unchecked_const_iterator<std::_Deque_val<std::_Deque_simple_types<CTerrain *> > >::operator*
_TEXT	ENDS
; Function compile flags: /Odspy
; File C:\Program Files (x86)\Microsoft Visual Studio\2019\Community\VC\Tools\MSVC\14.28.29333\include\deque
; File C:\Program Files (x86)\Microsoft Visual Studio\2019\Community\VC\Tools\MSVC\14.28.29333\include\xmemory
; File C:\Program Files (x86)\Microsoft Visual Studio\2019\Community\VC\Tools\MSVC\14.28.29333\include\deque
; File C:\Program Files (x86)\Microsoft Visual Studio\2019\Community\VC\Tools\MSVC\14.28.29333\include\xmemory
; File C:\Program Files (x86)\Microsoft Visual Studio\2019\Community\VC\Tools\MSVC\14.28.29333\include\deque
; File C:\Program Files (x86)\Microsoft Visual Studio\2019\Community\VC\Tools\MSVC\14.28.29333\include\type_traits
; File C:\Program Files (x86)\Microsoft Visual Studio\2019\Community\VC\Tools\MSVC\14.28.29333\include\deque
; File C:\Program Files (x86)\Microsoft Visual Studio\2019\Community\VC\Tools\MSVC\14.28.29333\include\xstddef
; File C:\Program Files (x86)\Microsoft Visual Studio\2019\Community\VC\Tools\MSVC\14.28.29333\include\deque
; File C:\Program Files (x86)\Microsoft Visual Studio\2019\Community\VC\Tools\MSVC\14.28.29333\include\xmemory
; File C:\Program Files (x86)\Microsoft Visual Studio\2019\Community\VC\Tools\MSVC\14.28.29333\include\deque
; File C:\Program Files (x86)\Microsoft Visual Studio\2019\Community\VC\Tools\MSVC\14.28.29333\include\vcruntime_new.h
; File C:\Program Files (x86)\Microsoft Visual Studio\2019\Community\VC\Tools\MSVC\14.28.29333\include\type_traits
; File C:\Program Files (x86)\Microsoft Visual Studio\2019\Community\VC\Tools\MSVC\14.28.29333\include\xmemory
; File C:\Program Files (x86)\Microsoft Visual Studio\2019\Community\VC\Tools\MSVC\14.28.29333\include\deque
;	COMDAT ??$_Emplace_back_internal@ABQAVCTerrain@@@?$deque@PAVCTerrain@@V?$allocator@PAVCTerrain@@@std@@@std@@AAEXABQAVCTerrain@@@Z
_TEXT	SEGMENT
$T1 = -60						; size = 4
$T2 = -56						; size = 4
__Max_possible$3 = -52					; size = 4
$T4 = -48						; size = 4
$T5 = -44						; size = 4
$T6 = -40						; size = 4
$T7 = -36						; size = 4
$T8 = -32						; size = 4
$T9 = -28						; size = 4
$T10 = -24						; size = 4
$T11 = -20						; size = 4
__Ptr$ = -16						; size = 4
$T12 = -12						; size = 4
$T13 = -8						; size = 4
$T14 = -4						; size = 4
$T15 = 0						; size = 4
$T16 = 4						; size = 4
$T17 = 8						; size = 4
$T18 = 12						; size = 4
$T19 = 16						; size = 4
$T20 = 20						; size = 4
$T21 = 24						; size = 4
$T22 = 28						; size = 4
$T23 = 32						; size = 4
$T24 = 36						; size = 4
$T25 = 40						; size = 4
$T26 = 44						; size = 4
$T27 = 48						; size = 4
$T28 = 52						; size = 4
$T29 = 56						; size = 4
$T30 = 60						; size = 4
$T31 = 64						; size = 4
$T32 = 68						; size = 4
$T33 = 72						; size = 4
$T34 = 76						; size = 4
$T35 = 80						; size = 4
$T36 = 84						; size = 4
$T37 = 88						; size = 4
__Newoff$ = 92						; size = 4
tv163 = 96						; size = 4
__Block$ = 100						; size = 4
tv86 = 104						; size = 4
__Overflow_is_possible$38 = 111				; size = 1
_this$ = 112						; size = 4
_<_Vals_0>$ = 124					; size = 4
??$_Emplace_back_internal@ABQAVCTerrain@@@?$deque@PAVCTerrain@@V?$allocator@PAVCTerrain@@@std@@@std@@AAEXABQAVCTerrain@@@Z PROC ; std::deque<CTerrain *,std::allocator<CTerrain *> >::_Emplace_back_internal<CTerrain * const &>, COMDAT
; _this$ = ecx

; 1114 :     void _Emplace_back_internal(_Tys&&... _Vals) {

  00000	55		 push	 ebp
  00001	8d 6c 24 8c	 lea	 ebp, DWORD PTR [esp-116]
  00005	81 ec b0 00 00
	00		 sub	 esp, 176		; 000000b0H
  0000b	89 4d 70	 mov	 DWORD PTR _this$[ebp], ecx

; 1530 :         return _Mypair._Myval2;

  0000e	8b 45 70	 mov	 eax, DWORD PTR _this$[ebp]
  00011	89 45 58	 mov	 DWORD PTR $T37[ebp], eax

; 1554 :         return _Get_data()._Myoff;

  00014	8b 45 58	 mov	 eax, DWORD PTR $T37[ebp]
  00017	83 c0 0c	 add	 eax, 12			; 0000000cH
  0001a	89 45 50	 mov	 DWORD PTR $T35[ebp], eax

; 1530 :         return _Mypair._Myval2;

  0001d	8b 45 70	 mov	 eax, DWORD PTR _this$[ebp]
  00020	89 45 54	 mov	 DWORD PTR $T36[ebp], eax

; 1562 :         return _Get_data()._Mysize;

  00023	8b 45 54	 mov	 eax, DWORD PTR $T36[ebp]
  00026	83 c0 10	 add	 eax, 16			; 00000010H
  00029	89 45 4c	 mov	 DWORD PTR $T34[ebp], eax

; 1115 :         _PUSH_BACK_BEGIN;

  0002c	8b 45 50	 mov	 eax, DWORD PTR $T35[ebp]
  0002f	8b 00		 mov	 eax, DWORD PTR [eax]
  00031	8b 4d 4c	 mov	 ecx, DWORD PTR $T34[ebp]
  00034	03 01		 add	 eax, DWORD PTR [ecx]
  00036	33 d2		 xor	 edx, edx
  00038	6a 04		 push	 4
  0003a	59		 pop	 ecx
  0003b	f7 f1		 div	 ecx
  0003d	85 d2		 test	 edx, edx
  0003f	75 3a		 jne	 SHORT $LN2@Emplace_ba

; 1530 :         return _Mypair._Myval2;

  00041	8b 45 70	 mov	 eax, DWORD PTR _this$[ebp]
  00044	89 45 48	 mov	 DWORD PTR $T33[ebp], eax

; 1546 :         return _Get_data()._Mapsize;

  00047	8b 45 48	 mov	 eax, DWORD PTR $T33[ebp]
  0004a	83 c0 08	 add	 eax, 8
  0004d	89 45 3c	 mov	 DWORD PTR $T30[ebp], eax

; 1530 :         return _Mypair._Myval2;

  00050	8b 45 70	 mov	 eax, DWORD PTR _this$[ebp]
  00053	89 45 44	 mov	 DWORD PTR $T32[ebp], eax

; 1562 :         return _Get_data()._Mysize;

  00056	8b 45 44	 mov	 eax, DWORD PTR $T32[ebp]
  00059	83 c0 10	 add	 eax, 16			; 00000010H
  0005c	89 45 40	 mov	 DWORD PTR $T31[ebp], eax

; 1115 :         _PUSH_BACK_BEGIN;

  0005f	8b 45 40	 mov	 eax, DWORD PTR $T31[ebp]
  00062	8b 00		 mov	 eax, DWORD PTR [eax]
  00064	83 c0 04	 add	 eax, 4
  00067	c1 e8 02	 shr	 eax, 2
  0006a	8b 4d 3c	 mov	 ecx, DWORD PTR $T30[ebp]
  0006d	39 01		 cmp	 DWORD PTR [ecx], eax
  0006f	77 0a		 ja	 SHORT $LN2@Emplace_ba
  00071	6a 01		 push	 1
  00073	8b 4d 70	 mov	 ecx, DWORD PTR _this$[ebp]
  00076	e8 00 00 00 00	 call	 ?_Growmap@?$deque@PAVCTerrain@@V?$allocator@PAVCTerrain@@@std@@@std@@AAEXI@Z ; std::deque<CTerrain *,std::allocator<CTerrain *> >::_Growmap
$LN2@Emplace_ba:
  0007b	8b 45 d4	 mov	 eax, DWORD PTR $T5[ebp]
  0007e	89 45 68	 mov	 DWORD PTR tv86[ebp], eax

; 1530 :         return _Mypair._Myval2;

  00081	8b 45 70	 mov	 eax, DWORD PTR _this$[ebp]
  00084	89 45 38	 mov	 DWORD PTR $T29[ebp], eax

; 1554 :         return _Get_data()._Myoff;

  00087	8b 45 38	 mov	 eax, DWORD PTR $T29[ebp]
  0008a	83 c0 0c	 add	 eax, 12			; 0000000cH
  0008d	89 45 68	 mov	 DWORD PTR tv86[ebp], eax

; 1530 :         return _Mypair._Myval2;

  00090	8b 45 70	 mov	 eax, DWORD PTR _this$[ebp]
  00093	89 45 34	 mov	 DWORD PTR $T28[ebp], eax

; 1546 :         return _Get_data()._Mapsize;

  00096	8b 45 34	 mov	 eax, DWORD PTR $T28[ebp]
  00099	83 c0 08	 add	 eax, 8
  0009c	89 45 30	 mov	 DWORD PTR $T27[ebp], eax

; 1115 :         _PUSH_BACK_BEGIN;

  0009f	8b 45 30	 mov	 eax, DWORD PTR $T27[ebp]
  000a2	8b 00		 mov	 eax, DWORD PTR [eax]
  000a4	8d 04 85 ff ff
	ff ff		 lea	 eax, DWORD PTR [eax*4-1]
  000ab	8b 4d 68	 mov	 ecx, DWORD PTR tv86[ebp]
  000ae	23 01		 and	 eax, DWORD PTR [ecx]
  000b0	8b 4d 68	 mov	 ecx, DWORD PTR tv86[ebp]
  000b3	89 01		 mov	 DWORD PTR [ecx], eax

; 1530 :         return _Mypair._Myval2;

  000b5	8b 45 70	 mov	 eax, DWORD PTR _this$[ebp]
  000b8	89 45 2c	 mov	 DWORD PTR $T26[ebp], eax

; 1554 :         return _Get_data()._Myoff;

  000bb	8b 45 2c	 mov	 eax, DWORD PTR $T26[ebp]
  000be	83 c0 0c	 add	 eax, 12			; 0000000cH
  000c1	89 45 24	 mov	 DWORD PTR $T24[ebp], eax

; 1530 :         return _Mypair._Myval2;

  000c4	8b 45 70	 mov	 eax, DWORD PTR _this$[ebp]
  000c7	89 45 28	 mov	 DWORD PTR $T25[ebp], eax

; 1562 :         return _Get_data()._Mysize;

  000ca	8b 45 28	 mov	 eax, DWORD PTR $T25[ebp]
  000cd	83 c0 10	 add	 eax, 16			; 00000010H
  000d0	89 45 20	 mov	 DWORD PTR $T23[ebp], eax

; 1115 :         _PUSH_BACK_BEGIN;

  000d3	8b 45 24	 mov	 eax, DWORD PTR $T24[ebp]
  000d6	8b 00		 mov	 eax, DWORD PTR [eax]
  000d8	8b 4d 20	 mov	 ecx, DWORD PTR $T23[ebp]
  000db	03 01		 add	 eax, DWORD PTR [ecx]
  000dd	89 45 5c	 mov	 DWORD PTR __Newoff$[ebp], eax

; 1534 :         return _Mypair._Myval2;

  000e0	8b 45 70	 mov	 eax, DWORD PTR _this$[ebp]
  000e3	89 45 1c	 mov	 DWORD PTR $T22[ebp], eax

; 548  :         return (_Off / _DEQUESIZ) & (_Mapsize - 1);

  000e6	8b 45 5c	 mov	 eax, DWORD PTR __Newoff$[ebp]
  000e9	c1 e8 02	 shr	 eax, 2
  000ec	8b 4d 1c	 mov	 ecx, DWORD PTR $T22[ebp]
  000ef	8b 49 08	 mov	 ecx, DWORD PTR [ecx+8]
  000f2	49		 dec	 ecx
  000f3	23 c1		 and	 eax, ecx
  000f5	89 45 18	 mov	 DWORD PTR $T21[ebp], eax

; 1514 :         return _Get_data()._Getblock(_Off);

  000f8	8b 45 18	 mov	 eax, DWORD PTR $T21[ebp]
  000fb	89 45 64	 mov	 DWORD PTR __Block$[ebp], eax

; 1530 :         return _Mypair._Myval2;

  000fe	8b 45 70	 mov	 eax, DWORD PTR _this$[ebp]
  00101	89 45 14	 mov	 DWORD PTR $T20[ebp], eax

; 1538 :         return _Get_data()._Map;

  00104	8b 45 14	 mov	 eax, DWORD PTR $T20[ebp]
  00107	83 c0 04	 add	 eax, 4
  0010a	89 45 10	 mov	 DWORD PTR $T19[ebp], eax

; 1115 :         _PUSH_BACK_BEGIN;

  0010d	8b 45 10	 mov	 eax, DWORD PTR $T19[ebp]
  00110	8b 00		 mov	 eax, DWORD PTR [eax]
  00112	8b 4d 64	 mov	 ecx, DWORD PTR __Block$[ebp]
  00115	83 3c 88 00	 cmp	 DWORD PTR [eax+ecx*4], 0
  00119	75 58		 jne	 SHORT $LN3@Emplace_ba

; 1522 :         return _Mypair._Get_first();

  0011b	8b 45 70	 mov	 eax, DWORD PTR _this$[ebp]
; File C:\Program Files (x86)\Microsoft Visual Studio\2019\Community\VC\Tools\MSVC\14.28.29333\include\xmemory

; 1347 :         return *this;

  0011e	89 45 0c	 mov	 DWORD PTR $T18[ebp], eax
; File C:\Program Files (x86)\Microsoft Visual Studio\2019\Community\VC\Tools\MSVC\14.28.29333\include\deque

; 1522 :         return _Mypair._Get_first();

  00121	8b 45 0c	 mov	 eax, DWORD PTR $T18[ebp]
  00124	89 45 d0	 mov	 DWORD PTR $T4[ebp], eax
; File C:\Program Files (x86)\Microsoft Visual Studio\2019\Community\VC\Tools\MSVC\14.28.29333\include\xmemory

; 56   :     constexpr bool _Overflow_is_possible = _Ty_size > 1;

  00127	c6 45 6f 01	 mov	 BYTE PTR __Overflow_is_possible$38[ebp], 1

; 57   : 
; 58   :     if _CONSTEXPR_IF (_Overflow_is_possible) {
; 59   :         constexpr size_t _Max_possible = static_cast<size_t>(-1) / _Ty_size;

  0012b	c7 45 cc ff ff
	ff 3f		 mov	 DWORD PTR __Max_possible$3[ebp], 1073741823 ; 3fffffffH

; 60   :         if (_Count > _Max_possible) {

  00132	6a 04		 push	 4
  00134	58		 pop	 eax
  00135	3d ff ff ff 3f	 cmp	 eax, 1073741823		; 3fffffffH
  0013a	76 05		 jbe	 SHORT $LN77@Emplace_ba

; 61   :             _Throw_bad_array_new_length(); // multiply overflow

  0013c	e8 00 00 00 00	 call	 ?_Throw_bad_array_new_length@std@@YAXXZ ; std::_Throw_bad_array_new_length
$LN77@Emplace_ba:

; 62   :         }
; 63   :     }
; 64   : 
; 65   :     return _Count * _Ty_size;

  00141	6a 04		 push	 4
  00143	58		 pop	 eax
  00144	c1 e0 02	 shl	 eax, 2
  00147	89 45 08	 mov	 DWORD PTR $T17[ebp], eax

; 814  :         return static_cast<_Ty*>(_Allocate<_New_alignof<_Ty>>(_Get_size_of_n<sizeof(_Ty)>(_Count)));

  0014a	ff 75 08	 push	 DWORD PTR $T17[ebp]
  0014d	e8 00 00 00 00	 call	 ??$_Allocate@$07U_Default_allocate_traits@std@@$0A@@std@@YAPAXI@Z ; std::_Allocate<8,std::_Default_allocate_traits,0>
  00152	59		 pop	 ecx
  00153	89 45 fc	 mov	 DWORD PTR $T14[ebp], eax
; File C:\Program Files (x86)\Microsoft Visual Studio\2019\Community\VC\Tools\MSVC\14.28.29333\include\deque

; 1530 :         return _Mypair._Myval2;

  00156	8b 45 70	 mov	 eax, DWORD PTR _this$[ebp]
  00159	89 45 04	 mov	 DWORD PTR $T16[ebp], eax

; 1538 :         return _Get_data()._Map;

  0015c	8b 45 04	 mov	 eax, DWORD PTR $T16[ebp]
  0015f	83 c0 04	 add	 eax, 4
  00162	89 45 00	 mov	 DWORD PTR $T15[ebp], eax

; 1115 :         _PUSH_BACK_BEGIN;

  00165	8b 45 00	 mov	 eax, DWORD PTR $T15[ebp]
  00168	8b 00		 mov	 eax, DWORD PTR [eax]
  0016a	8b 4d 64	 mov	 ecx, DWORD PTR __Block$[ebp]
  0016d	8b 55 fc	 mov	 edx, DWORD PTR $T14[ebp]
  00170	89 14 88	 mov	 DWORD PTR [eax+ecx*4], edx
$LN3@Emplace_ba:
; File C:\Program Files (x86)\Microsoft Visual Studio\2019\Community\VC\Tools\MSVC\14.28.29333\include\type_traits

; 1443 :     return static_cast<_Ty&&>(_Arg);

  00173	8b 45 7c	 mov	 eax, DWORD PTR _<_Vals_0>$[ebp]
  00176	89 45 e4	 mov	 DWORD PTR $T9[ebp], eax
; File C:\Program Files (x86)\Microsoft Visual Studio\2019\Community\VC\Tools\MSVC\14.28.29333\include\deque

; 1530 :         return _Mypair._Myval2;

  00179	8b 45 70	 mov	 eax, DWORD PTR _this$[ebp]
  0017c	89 45 f8	 mov	 DWORD PTR $T13[ebp], eax

; 1538 :         return _Get_data()._Map;

  0017f	8b 45 f8	 mov	 eax, DWORD PTR $T13[ebp]
  00182	83 c0 04	 add	 eax, 4
  00185	89 45 f4	 mov	 DWORD PTR $T12[ebp], eax

; 1116 :         _Alty_traits::construct(_Getal(), _Unfancy(_Map()[_Block] + _Newoff % _DEQUESIZ), _STD forward<_Tys>(_Vals)...);

  00188	8b 45 5c	 mov	 eax, DWORD PTR __Newoff$[ebp]
  0018b	33 d2		 xor	 edx, edx
  0018d	6a 04		 push	 4
  0018f	59		 pop	 ecx
  00190	f7 f1		 div	 ecx
  00192	8b 45 f4	 mov	 eax, DWORD PTR $T12[ebp]
  00195	8b 00		 mov	 eax, DWORD PTR [eax]
  00197	8b 4d 64	 mov	 ecx, DWORD PTR __Block$[ebp]
  0019a	8b 04 88	 mov	 eax, DWORD PTR [eax+ecx*4]
  0019d	8d 04 90	 lea	 eax, DWORD PTR [eax+edx*4]
  001a0	89 45 f0	 mov	 DWORD PTR __Ptr$[ebp], eax
; File C:\Program Files (x86)\Microsoft Visual Studio\2019\Community\VC\Tools\MSVC\14.28.29333\include\xstddef

; 289  :     return _Ptr;

  001a3	8b 45 f0	 mov	 eax, DWORD PTR __Ptr$[ebp]
  001a6	89 45 e8	 mov	 DWORD PTR $T10[ebp], eax
; File C:\Program Files (x86)\Microsoft Visual Studio\2019\Community\VC\Tools\MSVC\14.28.29333\include\deque

; 1522 :         return _Mypair._Get_first();

  001a9	8b 45 70	 mov	 eax, DWORD PTR _this$[ebp]
; File C:\Program Files (x86)\Microsoft Visual Studio\2019\Community\VC\Tools\MSVC\14.28.29333\include\xmemory

; 1347 :         return *this;

  001ac	89 45 ec	 mov	 DWORD PTR $T11[ebp], eax
; File C:\Program Files (x86)\Microsoft Visual Studio\2019\Community\VC\Tools\MSVC\14.28.29333\include\deque

; 1522 :         return _Mypair._Get_first();

  001af	8b 45 ec	 mov	 eax, DWORD PTR $T11[ebp]
  001b2	89 45 c8	 mov	 DWORD PTR $T2[ebp], eax
; File C:\Program Files (x86)\Microsoft Visual Studio\2019\Community\VC\Tools\MSVC\14.28.29333\include\vcruntime_new.h

; 169  :         return _Where;

  001b5	8b 45 e8	 mov	 eax, DWORD PTR $T10[ebp]
  001b8	89 45 e0	 mov	 DWORD PTR $T8[ebp], eax
; File C:\Program Files (x86)\Microsoft Visual Studio\2019\Community\VC\Tools\MSVC\14.28.29333\include\type_traits

; 1443 :     return static_cast<_Ty&&>(_Arg);

  001bb	8b 45 e4	 mov	 eax, DWORD PTR $T9[ebp]
  001be	89 45 dc	 mov	 DWORD PTR $T7[ebp], eax
; File C:\Program Files (x86)\Microsoft Visual Studio\2019\Community\VC\Tools\MSVC\14.28.29333\include\xmemory

; 701  :         ::new (const_cast<void*>(static_cast<const volatile void*>(_Ptr))) _Objty(_STD forward<_Types>(_Args)...);

  001c1	8b 45 e0	 mov	 eax, DWORD PTR $T8[ebp]
  001c4	8b 4d dc	 mov	 ecx, DWORD PTR $T7[ebp]
  001c7	8b 09		 mov	 ecx, DWORD PTR [ecx]
  001c9	89 08		 mov	 DWORD PTR [eax], ecx
; File C:\Program Files (x86)\Microsoft Visual Studio\2019\Community\VC\Tools\MSVC\14.28.29333\include\deque

; 1117 :         _PUSH_BACK_END;

  001cb	8b 45 c4	 mov	 eax, DWORD PTR $T1[ebp]
  001ce	89 45 60	 mov	 DWORD PTR tv163[ebp], eax

; 1530 :         return _Mypair._Myval2;

  001d1	8b 45 70	 mov	 eax, DWORD PTR _this$[ebp]
  001d4	89 45 d8	 mov	 DWORD PTR $T6[ebp], eax

; 1562 :         return _Get_data()._Mysize;

  001d7	8b 45 d8	 mov	 eax, DWORD PTR $T6[ebp]
  001da	83 c0 10	 add	 eax, 16			; 00000010H
  001dd	89 45 60	 mov	 DWORD PTR tv163[ebp], eax

; 1117 :         _PUSH_BACK_END;

  001e0	8b 45 60	 mov	 eax, DWORD PTR tv163[ebp]
  001e3	8b 00		 mov	 eax, DWORD PTR [eax]
  001e5	40		 inc	 eax
  001e6	8b 4d 60	 mov	 ecx, DWORD PTR tv163[ebp]
  001e9	89 01		 mov	 DWORD PTR [ecx], eax
$LN80@Emplace_ba:

; 1118 :     }

  001eb	83 c5 74	 add	 ebp, 116		; 00000074H
  001ee	c9		 leave
  001ef	c2 04 00	 ret	 4
??$_Emplace_back_internal@ABQAVCTerrain@@@?$deque@PAVCTerrain@@V?$allocator@PAVCTerrain@@@std@@@std@@AAEXABQAVCTerrain@@@Z ENDP ; std::deque<CTerrain *,std::allocator<CTerrain *> >::_Emplace_back_internal<CTerrain * const &>
_TEXT	ENDS
; Function compile flags: /Odspy
; File C:\Program Files (x86)\Microsoft Visual Studio\2019\Community\VC\Tools\MSVC\14.28.29333\include\xmemory
; File C:\Program Files (x86)\Microsoft Visual Studio\2019\Community\VC\Tools\MSVC\14.28.29333\include\xstddef
; File C:\Program Files (x86)\Microsoft Visual Studio\2019\Community\VC\Tools\MSVC\14.28.29333\include\xmemory
;	COMDAT ??$_Alloc_proxy@V?$allocator@U_Container_proxy@std@@@std@@@_Container_base12@std@@QAEX$$QAV?$allocator@U_Container_proxy@std@@@1@@Z
_TEXT	SEGMENT
__Max_possible$1 = -28					; size = 4
$T2 = -24						; size = 4
$T3 = -20						; size = 4
$T4 = -16						; size = 4
_this$ = -12						; size = 4
__New_proxy$ = -8					; size = 4
__Overflow_is_possible$5 = -1				; size = 1
__Al$ = 8						; size = 4
??$_Alloc_proxy@V?$allocator@U_Container_proxy@std@@@std@@@_Container_base12@std@@QAEX$$QAV?$allocator@U_Container_proxy@std@@@1@@Z PROC ; std::_Container_base12::_Alloc_proxy<std::allocator<std::_Container_proxy> >, COMDAT
; _this$ = ecx

; 1106 :     void _Alloc_proxy(_Alloc&& _Al) {

  00000	55		 push	 ebp
  00001	8b ec		 mov	 ebp, esp
  00003	83 ec 1c	 sub	 esp, 28			; 0000001cH
  00006	89 4d f4	 mov	 DWORD PTR _this$[ebp], ecx

; 56   :     constexpr bool _Overflow_is_possible = _Ty_size > 1;

  00009	c6 45 ff 01	 mov	 BYTE PTR __Overflow_is_possible$5[ebp], 1

; 57   : 
; 58   :     if _CONSTEXPR_IF (_Overflow_is_possible) {
; 59   :         constexpr size_t _Max_possible = static_cast<size_t>(-1) / _Ty_size;

  0000d	c7 45 e4 ff ff
	ff 1f		 mov	 DWORD PTR __Max_possible$1[ebp], 536870911 ; 1fffffffH

; 60   :         if (_Count > _Max_possible) {

  00014	33 c0		 xor	 eax, eax
  00016	40		 inc	 eax
  00017	3d ff ff ff 1f	 cmp	 eax, 536870911		; 1fffffffH
  0001c	76 05		 jbe	 SHORT $LN6@Alloc_prox

; 61   :             _Throw_bad_array_new_length(); // multiply overflow

  0001e	e8 00 00 00 00	 call	 ?_Throw_bad_array_new_length@std@@YAXXZ ; std::_Throw_bad_array_new_length
$LN6@Alloc_prox:

; 62   :         }
; 63   :     }
; 64   : 
; 65   :     return _Count * _Ty_size;

  00023	33 c0		 xor	 eax, eax
  00025	40		 inc	 eax
  00026	c1 e0 03	 shl	 eax, 3
  00029	89 45 f0	 mov	 DWORD PTR $T4[ebp], eax

; 814  :         return static_cast<_Ty*>(_Allocate<_New_alignof<_Ty>>(_Get_size_of_n<sizeof(_Ty)>(_Count)));

  0002c	ff 75 f0	 push	 DWORD PTR $T4[ebp]
  0002f	e8 00 00 00 00	 call	 ??$_Allocate@$07U_Default_allocate_traits@std@@$0A@@std@@YAPAXI@Z ; std::_Allocate<8,std::_Default_allocate_traits,0>
  00034	59		 pop	 ecx
  00035	89 45 ec	 mov	 DWORD PTR $T3[ebp], eax
; File C:\Program Files (x86)\Microsoft Visual Studio\2019\Community\VC\Tools\MSVC\14.28.29333\include\xstddef

; 289  :     return _Ptr;

  00038	8b 45 ec	 mov	 eax, DWORD PTR $T3[ebp]
  0003b	89 45 f8	 mov	 DWORD PTR __New_proxy$[ebp], eax
; File C:\Program Files (x86)\Microsoft Visual Studio\2019\Community\VC\Tools\MSVC\14.28.29333\include\xmemory

; 1108 :         _Construct_in_place(*_New_proxy, this);

  0003e	8b 45 f4	 mov	 eax, DWORD PTR _this$[ebp]
  00041	89 45 e8	 mov	 DWORD PTR $T2[ebp], eax
  00044	8d 45 e8	 lea	 eax, DWORD PTR $T2[ebp]
  00047	50		 push	 eax
  00048	ff 75 f8	 push	 DWORD PTR __New_proxy$[ebp]
  0004b	e8 00 00 00 00	 call	 ??$_Construct_in_place@U_Container_proxy@std@@PAU_Container_base12@2@@std@@YAXAAU_Container_proxy@0@$$QAPAU_Container_base12@0@@Z ; std::_Construct_in_place<std::_Container_proxy,std::_Container_base12 *>
  00050	59		 pop	 ecx
  00051	59		 pop	 ecx

; 1109 :         _Myproxy            = _New_proxy;

  00052	8b 45 f4	 mov	 eax, DWORD PTR _this$[ebp]
  00055	8b 4d f8	 mov	 ecx, DWORD PTR __New_proxy$[ebp]
  00058	89 08		 mov	 DWORD PTR [eax], ecx

; 1110 :         _New_proxy->_Mycont = this;

  0005a	8b 45 f8	 mov	 eax, DWORD PTR __New_proxy$[ebp]
  0005d	8b 4d f4	 mov	 ecx, DWORD PTR _this$[ebp]
  00060	89 08		 mov	 DWORD PTR [eax], ecx
$LN9@Alloc_prox:

; 1111 :     }

  00062	c9		 leave
  00063	c2 04 00	 ret	 4
??$_Alloc_proxy@V?$allocator@U_Container_proxy@std@@@std@@@_Container_base12@std@@QAEX$$QAV?$allocator@U_Container_proxy@std@@@1@@Z ENDP ; std::_Container_base12::_Alloc_proxy<std::allocator<std::_Container_proxy> >
_TEXT	ENDS
; Function compile flags: /Odspy
; File C:\Program Files (x86)\Microsoft Visual Studio\2019\Community\VC\Tools\MSVC\14.28.29333\include\xmemory
;	COMDAT ??$_Delete_plain_internal@V?$allocator@U_Container_proxy@std@@@std@@@std@@YAXAAV?$allocator@U_Container_proxy@std@@@0@QAU_Container_proxy@0@@Z
_TEXT	SEGMENT
__Al$ = 8						; size = 4
__Ptr$ = 12						; size = 4
??$_Delete_plain_internal@V?$allocator@U_Container_proxy@std@@@std@@@std@@YAXAAV?$allocator@U_Container_proxy@std@@@0@QAU_Container_proxy@0@@Z PROC ; std::_Delete_plain_internal<std::allocator<std::_Container_proxy> >, COMDAT

; 1031 : void _Delete_plain_internal(_Alloc& _Al, typename _Alloc::value_type* const _Ptr) noexcept {

  00000	55		 push	 ebp
  00001	8b ec		 mov	 ebp, esp

; 1032 :     // destroy *_Ptr in place, then deallocate _Ptr using _Al; used for internal container types the user didn't name
; 1033 :     using _Ty = typename _Alloc::value_type;
; 1034 :     _Ptr->~_Ty();
; 1035 :     _Deallocate_plain(_Al, _Ptr);

  00003	ff 75 0c	 push	 DWORD PTR __Ptr$[ebp]
  00006	ff 75 08	 push	 DWORD PTR __Al$[ebp]
  00009	e8 00 00 00 00	 call	 ??$_Deallocate_plain@V?$allocator@U_Container_proxy@std@@@std@@@std@@YAXAAV?$allocator@U_Container_proxy@std@@@0@QAU_Container_proxy@0@@Z ; std::_Deallocate_plain<std::allocator<std::_Container_proxy> >
  0000e	59		 pop	 ecx
  0000f	59		 pop	 ecx

; 1036 : }

  00010	5d		 pop	 ebp
  00011	c3		 ret	 0
??$_Delete_plain_internal@V?$allocator@U_Container_proxy@std@@@std@@@std@@YAXAAV?$allocator@U_Container_proxy@std@@@0@QAU_Container_proxy@0@@Z ENDP ; std::_Delete_plain_internal<std::allocator<std::_Container_proxy> >
_TEXT	ENDS
; Function compile flags: /Odspy
; File C:\Program Files (x86)\Microsoft Visual Studio\2019\Community\VC\Tools\MSVC\14.28.29333\include\deque
;	COMDAT ??D?$_Deque_unchecked_const_iterator@V?$_Deque_val@U?$_Deque_simple_types@PAVCArea@@@std@@@std@@@std@@QBEABQAVCArea@@XZ
_TEXT	SEGMENT
__Off$ = -20						; size = 4
__Block$ = -16						; size = 4
_this$ = -12						; size = 4
__Off$ = -8						; size = 4
_this$ = -4						; size = 4
??D?$_Deque_unchecked_const_iterator@V?$_Deque_val@U?$_Deque_simple_types@PAVCArea@@@std@@@std@@@std@@QBEABQAVCArea@@XZ PROC ; std::_Deque_unchecked_const_iterator<std::_Deque_val<std::_Deque_simple_types<CArea *> > >::operator*, COMDAT
; _this$ = ecx

; 54   :     _NODISCARD reference operator*() const noexcept {

  00000	55		 push	 ebp
  00001	8b ec		 mov	 ebp, esp
  00003	83 ec 14	 sub	 esp, 20			; 00000014H
  00006	89 4d fc	 mov	 DWORD PTR _this$[ebp], ecx

; 55   :         _Size_type _Block = _Mycont->_Getblock(_Myoff);

  00009	8b 45 fc	 mov	 eax, DWORD PTR _this$[ebp]
  0000c	8b 40 04	 mov	 eax, DWORD PTR [eax+4]
  0000f	89 45 f8	 mov	 DWORD PTR __Off$[ebp], eax
  00012	8b 45 fc	 mov	 eax, DWORD PTR _this$[ebp]
  00015	8b 00		 mov	 eax, DWORD PTR [eax]
  00017	89 45 f4	 mov	 DWORD PTR _this$[ebp], eax

; 548  :         return (_Off / _DEQUESIZ) & (_Mapsize - 1);

  0001a	8b 45 f8	 mov	 eax, DWORD PTR __Off$[ebp]
  0001d	c1 e8 02	 shr	 eax, 2
  00020	8b 4d f4	 mov	 ecx, DWORD PTR _this$[ebp]
  00023	8b 49 08	 mov	 ecx, DWORD PTR [ecx+8]
  00026	49		 dec	 ecx
  00027	23 c1		 and	 eax, ecx
  00029	89 45 f0	 mov	 DWORD PTR __Block$[ebp], eax

; 56   :         _Size_type _Off   = _Myoff % _DEQUESIZ;

  0002c	8b 45 fc	 mov	 eax, DWORD PTR _this$[ebp]
  0002f	8b 40 04	 mov	 eax, DWORD PTR [eax+4]
  00032	33 d2		 xor	 edx, edx
  00034	6a 04		 push	 4
  00036	59		 pop	 ecx
  00037	f7 f1		 div	 ecx
  00039	89 55 ec	 mov	 DWORD PTR __Off$[ebp], edx

; 57   :         return _Mycont->_Map[_Block][_Off];

  0003c	8b 45 fc	 mov	 eax, DWORD PTR _this$[ebp]
  0003f	8b 00		 mov	 eax, DWORD PTR [eax]
  00041	8b 40 04	 mov	 eax, DWORD PTR [eax+4]
  00044	8b 4d f0	 mov	 ecx, DWORD PTR __Block$[ebp]
  00047	8b 04 88	 mov	 eax, DWORD PTR [eax+ecx*4]
  0004a	8b 4d ec	 mov	 ecx, DWORD PTR __Off$[ebp]
  0004d	8d 04 88	 lea	 eax, DWORD PTR [eax+ecx*4]

; 58   :     }

  00050	c9		 leave
  00051	c3		 ret	 0
??D?$_Deque_unchecked_const_iterator@V?$_Deque_val@U?$_Deque_simple_types@PAVCArea@@@std@@@std@@@std@@QBEABQAVCArea@@XZ ENDP ; std::_Deque_unchecked_const_iterator<std::_Deque_val<std::_Deque_simple_types<CArea *> > >::operator*
_TEXT	ENDS
; Function compile flags: /Odspy
; File C:\Program Files (x86)\Microsoft Visual Studio\2019\Community\VC\Tools\MSVC\14.28.29333\include\deque
; File C:\Program Files (x86)\Microsoft Visual Studio\2019\Community\VC\Tools\MSVC\14.28.29333\include\xmemory
; File C:\Program Files (x86)\Microsoft Visual Studio\2019\Community\VC\Tools\MSVC\14.28.29333\include\deque
; File C:\Program Files (x86)\Microsoft Visual Studio\2019\Community\VC\Tools\MSVC\14.28.29333\include\xmemory
; File C:\Program Files (x86)\Microsoft Visual Studio\2019\Community\VC\Tools\MSVC\14.28.29333\include\deque
; File C:\Program Files (x86)\Microsoft Visual Studio\2019\Community\VC\Tools\MSVC\14.28.29333\include\type_traits
; File C:\Program Files (x86)\Microsoft Visual Studio\2019\Community\VC\Tools\MSVC\14.28.29333\include\deque
; File C:\Program Files (x86)\Microsoft Visual Studio\2019\Community\VC\Tools\MSVC\14.28.29333\include\xstddef
; File C:\Program Files (x86)\Microsoft Visual Studio\2019\Community\VC\Tools\MSVC\14.28.29333\include\deque
; File C:\Program Files (x86)\Microsoft Visual Studio\2019\Community\VC\Tools\MSVC\14.28.29333\include\xmemory
; File C:\Program Files (x86)\Microsoft Visual Studio\2019\Community\VC\Tools\MSVC\14.28.29333\include\deque
; File C:\Program Files (x86)\Microsoft Visual Studio\2019\Community\VC\Tools\MSVC\14.28.29333\include\vcruntime_new.h
; File C:\Program Files (x86)\Microsoft Visual Studio\2019\Community\VC\Tools\MSVC\14.28.29333\include\type_traits
; File C:\Program Files (x86)\Microsoft Visual Studio\2019\Community\VC\Tools\MSVC\14.28.29333\include\xmemory
; File C:\Program Files (x86)\Microsoft Visual Studio\2019\Community\VC\Tools\MSVC\14.28.29333\include\deque
;	COMDAT ??$_Emplace_back_internal@ABQAVCArea@@@?$deque@PAVCArea@@V?$allocator@PAVCArea@@@std@@@std@@AAEXABQAVCArea@@@Z
_TEXT	SEGMENT
$T1 = -60						; size = 4
$T2 = -56						; size = 4
__Max_possible$3 = -52					; size = 4
$T4 = -48						; size = 4
$T5 = -44						; size = 4
$T6 = -40						; size = 4
$T7 = -36						; size = 4
$T8 = -32						; size = 4
$T9 = -28						; size = 4
$T10 = -24						; size = 4
$T11 = -20						; size = 4
__Ptr$ = -16						; size = 4
$T12 = -12						; size = 4
$T13 = -8						; size = 4
$T14 = -4						; size = 4
$T15 = 0						; size = 4
$T16 = 4						; size = 4
$T17 = 8						; size = 4
$T18 = 12						; size = 4
$T19 = 16						; size = 4
$T20 = 20						; size = 4
$T21 = 24						; size = 4
$T22 = 28						; size = 4
$T23 = 32						; size = 4
$T24 = 36						; size = 4
$T25 = 40						; size = 4
$T26 = 44						; size = 4
$T27 = 48						; size = 4
$T28 = 52						; size = 4
$T29 = 56						; size = 4
$T30 = 60						; size = 4
$T31 = 64						; size = 4
$T32 = 68						; size = 4
$T33 = 72						; size = 4
$T34 = 76						; size = 4
$T35 = 80						; size = 4
$T36 = 84						; size = 4
$T37 = 88						; size = 4
__Newoff$ = 92						; size = 4
tv163 = 96						; size = 4
__Block$ = 100						; size = 4
tv86 = 104						; size = 4
__Overflow_is_possible$38 = 111				; size = 1
_this$ = 112						; size = 4
_<_Vals_0>$ = 124					; size = 4
??$_Emplace_back_internal@ABQAVCArea@@@?$deque@PAVCArea@@V?$allocator@PAVCArea@@@std@@@std@@AAEXABQAVCArea@@@Z PROC ; std::deque<CArea *,std::allocator<CArea *> >::_Emplace_back_internal<CArea * const &>, COMDAT
; _this$ = ecx

; 1114 :     void _Emplace_back_internal(_Tys&&... _Vals) {

  00000	55		 push	 ebp
  00001	8d 6c 24 8c	 lea	 ebp, DWORD PTR [esp-116]
  00005	81 ec b0 00 00
	00		 sub	 esp, 176		; 000000b0H
  0000b	89 4d 70	 mov	 DWORD PTR _this$[ebp], ecx

; 1530 :         return _Mypair._Myval2;

  0000e	8b 45 70	 mov	 eax, DWORD PTR _this$[ebp]
  00011	89 45 58	 mov	 DWORD PTR $T37[ebp], eax

; 1554 :         return _Get_data()._Myoff;

  00014	8b 45 58	 mov	 eax, DWORD PTR $T37[ebp]
  00017	83 c0 0c	 add	 eax, 12			; 0000000cH
  0001a	89 45 50	 mov	 DWORD PTR $T35[ebp], eax

; 1530 :         return _Mypair._Myval2;

  0001d	8b 45 70	 mov	 eax, DWORD PTR _this$[ebp]
  00020	89 45 54	 mov	 DWORD PTR $T36[ebp], eax

; 1562 :         return _Get_data()._Mysize;

  00023	8b 45 54	 mov	 eax, DWORD PTR $T36[ebp]
  00026	83 c0 10	 add	 eax, 16			; 00000010H
  00029	89 45 4c	 mov	 DWORD PTR $T34[ebp], eax

; 1115 :         _PUSH_BACK_BEGIN;

  0002c	8b 45 50	 mov	 eax, DWORD PTR $T35[ebp]
  0002f	8b 00		 mov	 eax, DWORD PTR [eax]
  00031	8b 4d 4c	 mov	 ecx, DWORD PTR $T34[ebp]
  00034	03 01		 add	 eax, DWORD PTR [ecx]
  00036	33 d2		 xor	 edx, edx
  00038	6a 04		 push	 4
  0003a	59		 pop	 ecx
  0003b	f7 f1		 div	 ecx
  0003d	85 d2		 test	 edx, edx
  0003f	75 3a		 jne	 SHORT $LN2@Emplace_ba

; 1530 :         return _Mypair._Myval2;

  00041	8b 45 70	 mov	 eax, DWORD PTR _this$[ebp]
  00044	89 45 48	 mov	 DWORD PTR $T33[ebp], eax

; 1546 :         return _Get_data()._Mapsize;

  00047	8b 45 48	 mov	 eax, DWORD PTR $T33[ebp]
  0004a	83 c0 08	 add	 eax, 8
  0004d	89 45 3c	 mov	 DWORD PTR $T30[ebp], eax

; 1530 :         return _Mypair._Myval2;

  00050	8b 45 70	 mov	 eax, DWORD PTR _this$[ebp]
  00053	89 45 44	 mov	 DWORD PTR $T32[ebp], eax

; 1562 :         return _Get_data()._Mysize;

  00056	8b 45 44	 mov	 eax, DWORD PTR $T32[ebp]
  00059	83 c0 10	 add	 eax, 16			; 00000010H
  0005c	89 45 40	 mov	 DWORD PTR $T31[ebp], eax

; 1115 :         _PUSH_BACK_BEGIN;

  0005f	8b 45 40	 mov	 eax, DWORD PTR $T31[ebp]
  00062	8b 00		 mov	 eax, DWORD PTR [eax]
  00064	83 c0 04	 add	 eax, 4
  00067	c1 e8 02	 shr	 eax, 2
  0006a	8b 4d 3c	 mov	 ecx, DWORD PTR $T30[ebp]
  0006d	39 01		 cmp	 DWORD PTR [ecx], eax
  0006f	77 0a		 ja	 SHORT $LN2@Emplace_ba
  00071	6a 01		 push	 1
  00073	8b 4d 70	 mov	 ecx, DWORD PTR _this$[ebp]
  00076	e8 00 00 00 00	 call	 ?_Growmap@?$deque@PAVCArea@@V?$allocator@PAVCArea@@@std@@@std@@AAEXI@Z ; std::deque<CArea *,std::allocator<CArea *> >::_Growmap
$LN2@Emplace_ba:
  0007b	8b 45 d4	 mov	 eax, DWORD PTR $T5[ebp]
  0007e	89 45 68	 mov	 DWORD PTR tv86[ebp], eax

; 1530 :         return _Mypair._Myval2;

  00081	8b 45 70	 mov	 eax, DWORD PTR _this$[ebp]
  00084	89 45 38	 mov	 DWORD PTR $T29[ebp], eax

; 1554 :         return _Get_data()._Myoff;

  00087	8b 45 38	 mov	 eax, DWORD PTR $T29[ebp]
  0008a	83 c0 0c	 add	 eax, 12			; 0000000cH
  0008d	89 45 68	 mov	 DWORD PTR tv86[ebp], eax

; 1530 :         return _Mypair._Myval2;

  00090	8b 45 70	 mov	 eax, DWORD PTR _this$[ebp]
  00093	89 45 34	 mov	 DWORD PTR $T28[ebp], eax

; 1546 :         return _Get_data()._Mapsize;

  00096	8b 45 34	 mov	 eax, DWORD PTR $T28[ebp]
  00099	83 c0 08	 add	 eax, 8
  0009c	89 45 30	 mov	 DWORD PTR $T27[ebp], eax

; 1115 :         _PUSH_BACK_BEGIN;

  0009f	8b 45 30	 mov	 eax, DWORD PTR $T27[ebp]
  000a2	8b 00		 mov	 eax, DWORD PTR [eax]
  000a4	8d 04 85 ff ff
	ff ff		 lea	 eax, DWORD PTR [eax*4-1]
  000ab	8b 4d 68	 mov	 ecx, DWORD PTR tv86[ebp]
  000ae	23 01		 and	 eax, DWORD PTR [ecx]
  000b0	8b 4d 68	 mov	 ecx, DWORD PTR tv86[ebp]
  000b3	89 01		 mov	 DWORD PTR [ecx], eax

; 1530 :         return _Mypair._Myval2;

  000b5	8b 45 70	 mov	 eax, DWORD PTR _this$[ebp]
  000b8	89 45 2c	 mov	 DWORD PTR $T26[ebp], eax

; 1554 :         return _Get_data()._Myoff;

  000bb	8b 45 2c	 mov	 eax, DWORD PTR $T26[ebp]
  000be	83 c0 0c	 add	 eax, 12			; 0000000cH
  000c1	89 45 24	 mov	 DWORD PTR $T24[ebp], eax

; 1530 :         return _Mypair._Myval2;

  000c4	8b 45 70	 mov	 eax, DWORD PTR _this$[ebp]
  000c7	89 45 28	 mov	 DWORD PTR $T25[ebp], eax

; 1562 :         return _Get_data()._Mysize;

  000ca	8b 45 28	 mov	 eax, DWORD PTR $T25[ebp]
  000cd	83 c0 10	 add	 eax, 16			; 00000010H
  000d0	89 45 20	 mov	 DWORD PTR $T23[ebp], eax

; 1115 :         _PUSH_BACK_BEGIN;

  000d3	8b 45 24	 mov	 eax, DWORD PTR $T24[ebp]
  000d6	8b 00		 mov	 eax, DWORD PTR [eax]
  000d8	8b 4d 20	 mov	 ecx, DWORD PTR $T23[ebp]
  000db	03 01		 add	 eax, DWORD PTR [ecx]
  000dd	89 45 5c	 mov	 DWORD PTR __Newoff$[ebp], eax

; 1534 :         return _Mypair._Myval2;

  000e0	8b 45 70	 mov	 eax, DWORD PTR _this$[ebp]
  000e3	89 45 1c	 mov	 DWORD PTR $T22[ebp], eax

; 548  :         return (_Off / _DEQUESIZ) & (_Mapsize - 1);

  000e6	8b 45 5c	 mov	 eax, DWORD PTR __Newoff$[ebp]
  000e9	c1 e8 02	 shr	 eax, 2
  000ec	8b 4d 1c	 mov	 ecx, DWORD PTR $T22[ebp]
  000ef	8b 49 08	 mov	 ecx, DWORD PTR [ecx+8]
  000f2	49		 dec	 ecx
  000f3	23 c1		 and	 eax, ecx
  000f5	89 45 18	 mov	 DWORD PTR $T21[ebp], eax

; 1514 :         return _Get_data()._Getblock(_Off);

  000f8	8b 45 18	 mov	 eax, DWORD PTR $T21[ebp]
  000fb	89 45 64	 mov	 DWORD PTR __Block$[ebp], eax

; 1530 :         return _Mypair._Myval2;

  000fe	8b 45 70	 mov	 eax, DWORD PTR _this$[ebp]
  00101	89 45 14	 mov	 DWORD PTR $T20[ebp], eax

; 1538 :         return _Get_data()._Map;

  00104	8b 45 14	 mov	 eax, DWORD PTR $T20[ebp]
  00107	83 c0 04	 add	 eax, 4
  0010a	89 45 10	 mov	 DWORD PTR $T19[ebp], eax

; 1115 :         _PUSH_BACK_BEGIN;

  0010d	8b 45 10	 mov	 eax, DWORD PTR $T19[ebp]
  00110	8b 00		 mov	 eax, DWORD PTR [eax]
  00112	8b 4d 64	 mov	 ecx, DWORD PTR __Block$[ebp]
  00115	83 3c 88 00	 cmp	 DWORD PTR [eax+ecx*4], 0
  00119	75 58		 jne	 SHORT $LN3@Emplace_ba

; 1522 :         return _Mypair._Get_first();

  0011b	8b 45 70	 mov	 eax, DWORD PTR _this$[ebp]
; File C:\Program Files (x86)\Microsoft Visual Studio\2019\Community\VC\Tools\MSVC\14.28.29333\include\xmemory

; 1347 :         return *this;

  0011e	89 45 0c	 mov	 DWORD PTR $T18[ebp], eax
; File C:\Program Files (x86)\Microsoft Visual Studio\2019\Community\VC\Tools\MSVC\14.28.29333\include\deque

; 1522 :         return _Mypair._Get_first();

  00121	8b 45 0c	 mov	 eax, DWORD PTR $T18[ebp]
  00124	89 45 d0	 mov	 DWORD PTR $T4[ebp], eax
; File C:\Program Files (x86)\Microsoft Visual Studio\2019\Community\VC\Tools\MSVC\14.28.29333\include\xmemory

; 56   :     constexpr bool _Overflow_is_possible = _Ty_size > 1;

  00127	c6 45 6f 01	 mov	 BYTE PTR __Overflow_is_possible$38[ebp], 1

; 57   : 
; 58   :     if _CONSTEXPR_IF (_Overflow_is_possible) {
; 59   :         constexpr size_t _Max_possible = static_cast<size_t>(-1) / _Ty_size;

  0012b	c7 45 cc ff ff
	ff 3f		 mov	 DWORD PTR __Max_possible$3[ebp], 1073741823 ; 3fffffffH

; 60   :         if (_Count > _Max_possible) {

  00132	6a 04		 push	 4
  00134	58		 pop	 eax
  00135	3d ff ff ff 3f	 cmp	 eax, 1073741823		; 3fffffffH
  0013a	76 05		 jbe	 SHORT $LN77@Emplace_ba

; 61   :             _Throw_bad_array_new_length(); // multiply overflow

  0013c	e8 00 00 00 00	 call	 ?_Throw_bad_array_new_length@std@@YAXXZ ; std::_Throw_bad_array_new_length
$LN77@Emplace_ba:

; 62   :         }
; 63   :     }
; 64   : 
; 65   :     return _Count * _Ty_size;

  00141	6a 04		 push	 4
  00143	58		 pop	 eax
  00144	c1 e0 02	 shl	 eax, 2
  00147	89 45 08	 mov	 DWORD PTR $T17[ebp], eax

; 814  :         return static_cast<_Ty*>(_Allocate<_New_alignof<_Ty>>(_Get_size_of_n<sizeof(_Ty)>(_Count)));

  0014a	ff 75 08	 push	 DWORD PTR $T17[ebp]
  0014d	e8 00 00 00 00	 call	 ??$_Allocate@$07U_Default_allocate_traits@std@@$0A@@std@@YAPAXI@Z ; std::_Allocate<8,std::_Default_allocate_traits,0>
  00152	59		 pop	 ecx
  00153	89 45 fc	 mov	 DWORD PTR $T14[ebp], eax
; File C:\Program Files (x86)\Microsoft Visual Studio\2019\Community\VC\Tools\MSVC\14.28.29333\include\deque

; 1530 :         return _Mypair._Myval2;

  00156	8b 45 70	 mov	 eax, DWORD PTR _this$[ebp]
  00159	89 45 04	 mov	 DWORD PTR $T16[ebp], eax

; 1538 :         return _Get_data()._Map;

  0015c	8b 45 04	 mov	 eax, DWORD PTR $T16[ebp]
  0015f	83 c0 04	 add	 eax, 4
  00162	89 45 00	 mov	 DWORD PTR $T15[ebp], eax

; 1115 :         _PUSH_BACK_BEGIN;

  00165	8b 45 00	 mov	 eax, DWORD PTR $T15[ebp]
  00168	8b 00		 mov	 eax, DWORD PTR [eax]
  0016a	8b 4d 64	 mov	 ecx, DWORD PTR __Block$[ebp]
  0016d	8b 55 fc	 mov	 edx, DWORD PTR $T14[ebp]
  00170	89 14 88	 mov	 DWORD PTR [eax+ecx*4], edx
$LN3@Emplace_ba:
; File C:\Program Files (x86)\Microsoft Visual Studio\2019\Community\VC\Tools\MSVC\14.28.29333\include\type_traits

; 1443 :     return static_cast<_Ty&&>(_Arg);

  00173	8b 45 7c	 mov	 eax, DWORD PTR _<_Vals_0>$[ebp]
  00176	89 45 e4	 mov	 DWORD PTR $T9[ebp], eax
; File C:\Program Files (x86)\Microsoft Visual Studio\2019\Community\VC\Tools\MSVC\14.28.29333\include\deque

; 1530 :         return _Mypair._Myval2;

  00179	8b 45 70	 mov	 eax, DWORD PTR _this$[ebp]
  0017c	89 45 f8	 mov	 DWORD PTR $T13[ebp], eax

; 1538 :         return _Get_data()._Map;

  0017f	8b 45 f8	 mov	 eax, DWORD PTR $T13[ebp]
  00182	83 c0 04	 add	 eax, 4
  00185	89 45 f4	 mov	 DWORD PTR $T12[ebp], eax

; 1116 :         _Alty_traits::construct(_Getal(), _Unfancy(_Map()[_Block] + _Newoff % _DEQUESIZ), _STD forward<_Tys>(_Vals)...);

  00188	8b 45 5c	 mov	 eax, DWORD PTR __Newoff$[ebp]
  0018b	33 d2		 xor	 edx, edx
  0018d	6a 04		 push	 4
  0018f	59		 pop	 ecx
  00190	f7 f1		 div	 ecx
  00192	8b 45 f4	 mov	 eax, DWORD PTR $T12[ebp]
  00195	8b 00		 mov	 eax, DWORD PTR [eax]
  00197	8b 4d 64	 mov	 ecx, DWORD PTR __Block$[ebp]
  0019a	8b 04 88	 mov	 eax, DWORD PTR [eax+ecx*4]
  0019d	8d 04 90	 lea	 eax, DWORD PTR [eax+edx*4]
  001a0	89 45 f0	 mov	 DWORD PTR __Ptr$[ebp], eax
; File C:\Program Files (x86)\Microsoft Visual Studio\2019\Community\VC\Tools\MSVC\14.28.29333\include\xstddef

; 289  :     return _Ptr;

  001a3	8b 45 f0	 mov	 eax, DWORD PTR __Ptr$[ebp]
  001a6	89 45 e8	 mov	 DWORD PTR $T10[ebp], eax
; File C:\Program Files (x86)\Microsoft Visual Studio\2019\Community\VC\Tools\MSVC\14.28.29333\include\deque

; 1522 :         return _Mypair._Get_first();

  001a9	8b 45 70	 mov	 eax, DWORD PTR _this$[ebp]
; File C:\Program Files (x86)\Microsoft Visual Studio\2019\Community\VC\Tools\MSVC\14.28.29333\include\xmemory

; 1347 :         return *this;

  001ac	89 45 ec	 mov	 DWORD PTR $T11[ebp], eax
; File C:\Program Files (x86)\Microsoft Visual Studio\2019\Community\VC\Tools\MSVC\14.28.29333\include\deque

; 1522 :         return _Mypair._Get_first();

  001af	8b 45 ec	 mov	 eax, DWORD PTR $T11[ebp]
  001b2	89 45 c8	 mov	 DWORD PTR $T2[ebp], eax
; File C:\Program Files (x86)\Microsoft Visual Studio\2019\Community\VC\Tools\MSVC\14.28.29333\include\vcruntime_new.h

; 169  :         return _Where;

  001b5	8b 45 e8	 mov	 eax, DWORD PTR $T10[ebp]
  001b8	89 45 e0	 mov	 DWORD PTR $T8[ebp], eax
; File C:\Program Files (x86)\Microsoft Visual Studio\2019\Community\VC\Tools\MSVC\14.28.29333\include\type_traits

; 1443 :     return static_cast<_Ty&&>(_Arg);

  001bb	8b 45 e4	 mov	 eax, DWORD PTR $T9[ebp]
  001be	89 45 dc	 mov	 DWORD PTR $T7[ebp], eax
; File C:\Program Files (x86)\Microsoft Visual Studio\2019\Community\VC\Tools\MSVC\14.28.29333\include\xmemory

; 701  :         ::new (const_cast<void*>(static_cast<const volatile void*>(_Ptr))) _Objty(_STD forward<_Types>(_Args)...);

  001c1	8b 45 e0	 mov	 eax, DWORD PTR $T8[ebp]
  001c4	8b 4d dc	 mov	 ecx, DWORD PTR $T7[ebp]
  001c7	8b 09		 mov	 ecx, DWORD PTR [ecx]
  001c9	89 08		 mov	 DWORD PTR [eax], ecx
; File C:\Program Files (x86)\Microsoft Visual Studio\2019\Community\VC\Tools\MSVC\14.28.29333\include\deque

; 1117 :         _PUSH_BACK_END;

  001cb	8b 45 c4	 mov	 eax, DWORD PTR $T1[ebp]
  001ce	89 45 60	 mov	 DWORD PTR tv163[ebp], eax

; 1530 :         return _Mypair._Myval2;

  001d1	8b 45 70	 mov	 eax, DWORD PTR _this$[ebp]
  001d4	89 45 d8	 mov	 DWORD PTR $T6[ebp], eax

; 1562 :         return _Get_data()._Mysize;

  001d7	8b 45 d8	 mov	 eax, DWORD PTR $T6[ebp]
  001da	83 c0 10	 add	 eax, 16			; 00000010H
  001dd	89 45 60	 mov	 DWORD PTR tv163[ebp], eax

; 1117 :         _PUSH_BACK_END;

  001e0	8b 45 60	 mov	 eax, DWORD PTR tv163[ebp]
  001e3	8b 00		 mov	 eax, DWORD PTR [eax]
  001e5	40		 inc	 eax
  001e6	8b 4d 60	 mov	 ecx, DWORD PTR tv163[ebp]
  001e9	89 01		 mov	 DWORD PTR [ecx], eax
$LN80@Emplace_ba:

; 1118 :     }

  001eb	83 c5 74	 add	 ebp, 116		; 00000074H
  001ee	c9		 leave
  001ef	c2 04 00	 ret	 4
??$_Emplace_back_internal@ABQAVCArea@@@?$deque@PAVCArea@@V?$allocator@PAVCArea@@@std@@@std@@AAEXABQAVCArea@@@Z ENDP ; std::deque<CArea *,std::allocator<CArea *> >::_Emplace_back_internal<CArea * const &>
_TEXT	ENDS
; Function compile flags: /Odspy
; File C:\Program Files (x86)\Microsoft Visual Studio\2019\Community\VC\Tools\MSVC\14.28.29333\include\xtree
; File C:\Program Files (x86)\Microsoft Visual Studio\2019\Community\VC\Tools\MSVC\14.28.29333\include\xstddef
; File C:\Program Files (x86)\Microsoft Visual Studio\2019\Community\VC\Tools\MSVC\14.28.29333\include\xtree
;	COMDAT ??$_Find@V?$basic_string@DU?$char_traits@D@std@@V?$allocator@D@2@@std@@@?$_Tree@V?$_Tmap_traits@V?$basic_string@DU?$char_traits@D@std@@V?$allocator@D@2@@std@@V?$vector@V?$basic_string@DU?$char_traits@D@std@@V?$allocator@D@2@@std@@V?$allocator@V?$basic_string@DU?$char_traits@D@std@@V?$allocator@D@2@@std@@@2@@2@U?$less@V?$basic_string@DU?$char_traits@D@std@@V?$allocator@D@2@@std@@@2@V?$allocator@U?$pair@$$CBV?$basic_string@DU?$char_traits@D@std@@V?$allocator@D@2@@std@@V?$vector@V?$basic_string@DU?$char_traits@D@std@@V?$allocator@D@2@@std@@V?$allocator@V?$basic_string@DU?$char_traits@D@std@@V?$allocator@D@2@@std@@@2@@2@@std@@@2@$0A@@std@@@std@@ABEPAU?$_Tree_node@U?$pair@$$CBV?$basic_string@DU?$char_traits@D@std@@V?$allocator@D@2@@std@@V?$vector@V?$basic_string@DU?$char_traits@D@std@@V?$allocator@D@2@@std@@V?$allocator@V?$basic_string@DU?$char_traits@D@std@@V?$allocator@D@2@@std@@@2@@2@@std@@PAX@1@ABV?$basic_string@DU?$char_traits@D@std@@V?$allocator@D@2@@1@@Z
_TEXT	SEGMENT
__Loc$ = -24						; size = 12
$T1 = -12						; size = 4
$T2 = -8						; size = 4
_this$ = -4						; size = 4
__Keyval$ = 8						; size = 4
??$_Find@V?$basic_string@DU?$char_traits@D@std@@V?$allocator@D@2@@std@@@?$_Tree@V?$_Tmap_traits@V?$basic_string@DU?$char_traits@D@std@@V?$allocator@D@2@@std@@V?$vector@V?$basic_string@DU?$char_traits@D@std@@V?$allocator@D@2@@std@@V?$allocator@V?$basic_string@DU?$char_traits@D@std@@V?$allocator@D@2@@std@@@2@@2@U?$less@V?$basic_string@DU?$char_traits@D@std@@V?$allocator@D@2@@std@@@2@V?$allocator@U?$pair@$$CBV?$basic_string@DU?$char_traits@D@std@@V?$allocator@D@2@@std@@V?$vector@V?$basic_string@DU?$char_traits@D@std@@V?$allocator@D@2@@std@@V?$allocator@V?$basic_string@DU?$char_traits@D@std@@V?$allocator@D@2@@std@@@2@@2@@std@@@2@$0A@@std@@@std@@ABEPAU?$_Tree_node@U?$pair@$$CBV?$basic_string@DU?$char_traits@D@std@@V?$allocator@D@2@@std@@V?$vector@V?$basic_string@DU?$char_traits@D@std@@V?$allocator@D@2@@std@@V?$allocator@V?$basic_string@DU?$char_traits@D@std@@V?$allocator@D@2@@std@@@2@@2@@std@@PAX@1@ABV?$basic_string@DU?$char_traits@D@std@@V?$allocator@D@2@@1@@Z PROC ; std::_Tree<std::_Tmap_traits<std::basic_string<char,std::char_traits<char>,std::allocator<char> >,std::vector<std::basic_string<char,std::char_traits<char>,std::allocator<char> >,std::allocator<std::basic_string<char,std::char_traits<char>,std::allocator<char> > > >,std::less<std::basic_string<char,std::char_traits<char>,std::allocator<char> > >,std::allocator<std::pair<std::basic_string<char,std::char_traits<char>,std::allocator<char> > const ,std::vector<std::basic_string<char,std::char_traits<char>,std::allocator<char> >,std::allocator<std::basic_string<char,std::char_traits<char>,std::allocator<char> > > > > >,0> >::_Find<std::basic_string<char,std::char_traits<char>,std::allocator<char> > >, COMDAT
; _this$ = ecx

; 1457 :     _NODISCARD _Nodeptr _Find(const _Other& _Keyval) const {

  00000	55		 push	 ebp
  00001	8b ec		 mov	 ebp, esp
  00003	83 ec 18	 sub	 esp, 24			; 00000018H
  00006	89 4d fc	 mov	 DWORD PTR _this$[ebp], ecx

; 1458 :         const _Tree_find_result<_Nodeptr> _Loc = _Find_lower_bound(_Keyval);

  00009	ff 75 08	 push	 DWORD PTR __Keyval$[ebp]
  0000c	8d 45 e8	 lea	 eax, DWORD PTR __Loc$[ebp]
  0000f	50		 push	 eax
  00010	8b 4d fc	 mov	 ecx, DWORD PTR _this$[ebp]
  00013	e8 00 00 00 00	 call	 ??$_Find_lower_bound@V?$basic_string@DU?$char_traits@D@std@@V?$allocator@D@2@@std@@@?$_Tree@V?$_Tmap_traits@V?$basic_string@DU?$char_traits@D@std@@V?$allocator@D@2@@std@@V?$vector@V?$basic_string@DU?$char_traits@D@std@@V?$allocator@D@2@@std@@V?$allocator@V?$basic_string@DU?$char_traits@D@std@@V?$allocator@D@2@@std@@@2@@2@U?$less@V?$basic_string@DU?$char_traits@D@std@@V?$allocator@D@2@@std@@@2@V?$allocator@U?$pair@$$CBV?$basic_string@DU?$char_traits@D@std@@V?$allocator@D@2@@std@@V?$vector@V?$basic_string@DU?$char_traits@D@std@@V?$allocator@D@2@@std@@V?$allocator@V?$basic_string@DU?$char_traits@D@std@@V?$allocator@D@2@@std@@@2@@2@@std@@@2@$0A@@std@@@std@@IBE?AU?$_Tree_find_result@PAU?$_Tree_node@U?$pair@$$CBV?$basic_string@DU?$char_traits@D@std@@V?$allocator@D@2@@std@@V?$vector@V?$basic_string@DU?$char_traits@D@std@@V?$allocator@D@2@@std@@V?$allocator@V?$basic_string@DU?$char_traits@D@std@@V?$allocator@D@2@@std@@@2@@2@@std@@PAX@std@@@1@ABV?$basic_string@DU?$char_traits@D@std@@V?$allocator@D@2@@1@@Z ; std::_Tree<std::_Tmap_traits<std::basic_string<char,std::char_traits<char>,std::allocator<char> >,std::vector<std::basic_string<char,std::char_traits<char>,std::allocator<char> >,std::allocator<std::basic_string<char,std::char_traits<char>,std::allocator<char> > > >,std::less<std::basic_string<char,std::char_traits<char>,std::allocator<char> > >,std::allocator<std::pair<std::basic_string<char,std::char_traits<char>,std::allocator<char> > const ,std::vector<std::basic_string<char,std::char_traits<char>,std::allocator<char> >,std::allocator<std::basic_string<char,std::char_traits<char>,std::allocator<char> > > > > >,0> >::_Find_lower_bound<std::basic_string<char,std::char_traits<char>,std::allocator<char> > >

; 1459 :         if (_Lower_bound_duplicate(_Loc._Bound, _Keyval)) {

  00018	ff 75 08	 push	 DWORD PTR __Keyval$[ebp]
  0001b	ff 75 f0	 push	 DWORD PTR __Loc$[ebp+8]
  0001e	8b 4d fc	 mov	 ecx, DWORD PTR _this$[ebp]
  00021	e8 00 00 00 00	 call	 ??$_Lower_bound_duplicate@V?$basic_string@DU?$char_traits@D@std@@V?$allocator@D@2@@std@@@?$_Tree@V?$_Tmap_traits@V?$basic_string@DU?$char_traits@D@std@@V?$allocator@D@2@@std@@V?$vector@V?$basic_string@DU?$char_traits@D@std@@V?$allocator@D@2@@std@@V?$allocator@V?$basic_string@DU?$char_traits@D@std@@V?$allocator@D@2@@std@@@2@@2@U?$less@V?$basic_string@DU?$char_traits@D@std@@V?$allocator@D@2@@std@@@2@V?$allocator@U?$pair@$$CBV?$basic_string@DU?$char_traits@D@std@@V?$allocator@D@2@@std@@V?$vector@V?$basic_string@DU?$char_traits@D@std@@V?$allocator@D@2@@std@@V?$allocator@V?$basic_string@DU?$char_traits@D@std@@V?$allocator@D@2@@std@@@2@@2@@std@@@2@$0A@@std@@@std@@IBE_NQAU?$_Tree_node@U?$pair@$$CBV?$basic_string@DU?$char_traits@D@std@@V?$allocator@D@2@@std@@V?$vector@V?$basic_string@DU?$char_traits@D@std@@V?$allocator@D@2@@std@@V?$allocator@V?$basic_string@DU?$char_traits@D@std@@V?$allocator@D@2@@std@@@2@@2@@std@@PAX@1@ABV?$basic_string@DU?$char_traits@D@std@@V?$allocator@D@2@@1@@Z ; std::_Tree<std::_Tmap_traits<std::basic_string<char,std::char_traits<char>,std::allocator<char> >,std::vector<std::basic_string<char,std::char_traits<char>,std::allocator<char> >,std::allocator<std::basic_string<char,std::char_traits<char>,std::allocator<char> > > >,std::less<std::basic_string<char,std::char_traits<char>,std::allocator<char> > >,std::allocator<std::pair<std::basic_string<char,std::char_traits<char>,std::allocator<char> > const ,std::vector<std::basic_string<char,std::char_traits<char>,std::allocator<char> >,std::allocator<std::basic_string<char,std::char_traits<char>,std::allocator<char> > > > > >,0> >::_Lower_bound_duplicate<std::basic_string<char,std::char_traits<char>,std::allocator<char> > >
  00026	0f b6 c0	 movzx	 eax, al
  00029	85 c0		 test	 eax, eax
  0002b	74 05		 je	 SHORT $LN2@Find

; 1460 :             return _Loc._Bound;

  0002d	8b 45 f0	 mov	 eax, DWORD PTR __Loc$[ebp+8]
  00030	eb 11		 jmp	 SHORT $LN1@Find
$LN2@Find:

; 2051 :         return _STD addressof(_Mypair._Myval2._Myval2);

  00032	8b 45 fc	 mov	 eax, DWORD PTR _this$[ebp]
; File C:\Program Files (x86)\Microsoft Visual Studio\2019\Community\VC\Tools\MSVC\14.28.29333\include\xstddef

; 275  :     return __builtin_addressof(_Val);

  00035	89 45 f8	 mov	 DWORD PTR $T2[ebp], eax
; File C:\Program Files (x86)\Microsoft Visual Studio\2019\Community\VC\Tools\MSVC\14.28.29333\include\xtree

; 2051 :         return _STD addressof(_Mypair._Myval2._Myval2);

  00038	8b 45 f8	 mov	 eax, DWORD PTR $T2[ebp]
  0003b	89 45 f4	 mov	 DWORD PTR $T1[ebp], eax

; 1461 :         }
; 1462 : 
; 1463 :         return _Get_scary()->_Myhead;

  0003e	8b 45 f4	 mov	 eax, DWORD PTR $T1[ebp]
  00041	8b 00		 mov	 eax, DWORD PTR [eax]
$LN1@Find:

; 1464 :     }

  00043	c9		 leave
  00044	c2 04 00	 ret	 4
??$_Find@V?$basic_string@DU?$char_traits@D@std@@V?$allocator@D@2@@std@@@?$_Tree@V?$_Tmap_traits@V?$basic_string@DU?$char_traits@D@std@@V?$allocator@D@2@@std@@V?$vector@V?$basic_string@DU?$char_traits@D@std@@V?$allocator@D@2@@std@@V?$allocator@V?$basic_string@DU?$char_traits@D@std@@V?$allocator@D@2@@std@@@2@@2@U?$less@V?$basic_string@DU?$char_traits@D@std@@V?$allocator@D@2@@std@@@2@V?$allocator@U?$pair@$$CBV?$basic_string@DU?$char_traits@D@std@@V?$allocator@D@2@@std@@V?$vector@V?$basic_string@DU?$char_traits@D@std@@V?$allocator@D@2@@std@@V?$allocator@V?$basic_string@DU?$char_traits@D@std@@V?$allocator@D@2@@std@@@2@@2@@std@@@2@$0A@@std@@@std@@ABEPAU?$_Tree_node@U?$pair@$$CBV?$basic_string@DU?$char_traits@D@std@@V?$allocator@D@2@@std@@V?$vector@V?$basic_string@DU?$char_traits@D@std@@V?$allocator@D@2@@std@@V?$allocator@V?$basic_string@DU?$char_traits@D@std@@V?$allocator@D@2@@std@@@2@@2@@std@@PAX@1@ABV?$basic_string@DU?$char_traits@D@std@@V?$allocator@D@2@@1@@Z ENDP ; std::_Tree<std::_Tmap_traits<std::basic_string<char,std::char_traits<char>,std::allocator<char> >,std::vector<std::basic_string<char,std::char_traits<char>,std::allocator<char> >,std::allocator<std::basic_string<char,std::char_traits<char>,std::allocator<char> > > >,std::less<std::basic_string<char,std::char_traits<char>,std::allocator<char> > >,std::allocator<std::pair<std::basic_string<char,std::char_traits<char>,std::allocator<char> > const ,std::vector<std::basic_string<char,std::char_traits<char>,std::allocator<char> >,std::allocator<std::basic_string<char,std::char_traits<char>,std::allocator<char> > > > > >,0> >::_Find<std::basic_string<char,std::char_traits<char>,std::allocator<char> > >
_TEXT	ENDS
; Function compile flags: /Odspy
; File C:\Program Files (x86)\Microsoft Visual Studio\2019\Community\VC\Tools\MSVC\14.28.29333\include\map
; File C:\Program Files (x86)\Microsoft Visual Studio\2019\Community\VC\Tools\MSVC\14.28.29333\include\type_traits
; File C:\Program Files (x86)\Microsoft Visual Studio\2019\Community\VC\Tools\MSVC\14.28.29333\include\utility
; File C:\Program Files (x86)\Microsoft Visual Studio\2019\Community\VC\Tools\MSVC\14.28.29333\include\type_traits
; File C:\Program Files (x86)\Microsoft Visual Studio\2019\Community\VC\Tools\MSVC\14.28.29333\include\utility
; File C:\Program Files (x86)\Microsoft Visual Studio\2019\Community\VC\Tools\MSVC\14.28.29333\include\map
; File C:\Program Files (x86)\Microsoft Visual Studio\2019\Community\VC\Tools\MSVC\14.28.29333\include\xtree
; File C:\Program Files (x86)\Microsoft Visual Studio\2019\Community\VC\Tools\MSVC\14.28.29333\include\xstddef
; File C:\Program Files (x86)\Microsoft Visual Studio\2019\Community\VC\Tools\MSVC\14.28.29333\include\xtree
; File C:\Program Files (x86)\Microsoft Visual Studio\2019\Community\VC\Tools\MSVC\14.28.29333\include\tuple
; File C:\Program Files (x86)\Microsoft Visual Studio\2019\Community\VC\Tools\MSVC\14.28.29333\include\type_traits
; File C:\Program Files (x86)\Microsoft Visual Studio\2019\Community\VC\Tools\MSVC\14.28.29333\include\tuple
; File C:\Program Files (x86)\Microsoft Visual Studio\2019\Community\VC\Tools\MSVC\14.28.29333\include\type_traits
; File C:\Program Files (x86)\Microsoft Visual Studio\2019\Community\VC\Tools\MSVC\14.28.29333\include\tuple
; File C:\Program Files (x86)\Microsoft Visual Studio\2019\Community\VC\Tools\MSVC\14.28.29333\include\xtree
; File C:\Program Files (x86)\Microsoft Visual Studio\2019\Community\VC\Tools\MSVC\14.28.29333\include\xmemory
; File C:\Program Files (x86)\Microsoft Visual Studio\2019\Community\VC\Tools\MSVC\14.28.29333\include\xtree
; File C:\Program Files (x86)\Microsoft Visual Studio\2019\Community\VC\Tools\MSVC\14.28.29333\include\map
; File C:\Program Files (x86)\Microsoft Visual Studio\2019\Community\VC\Tools\MSVC\14.28.29333\include\xmemory
; File C:\Program Files (x86)\Microsoft Visual Studio\2019\Community\VC\Tools\MSVC\14.28.29333\include\utility
; File C:\Program Files (x86)\Microsoft Visual Studio\2019\Community\VC\Tools\MSVC\14.28.29333\include\xmemory
; File C:\Program Files (x86)\Microsoft Visual Studio\2019\Community\VC\Tools\MSVC\14.28.29333\include\map
; File C:\Program Files (x86)\Microsoft Visual Studio\2019\Community\VC\Tools\MSVC\14.28.29333\include\type_traits
; File C:\Program Files (x86)\Microsoft Visual Studio\2019\Community\VC\Tools\MSVC\14.28.29333\include\utility
; File C:\Program Files (x86)\Microsoft Visual Studio\2019\Community\VC\Tools\MSVC\14.28.29333\include\type_traits
; File C:\Program Files (x86)\Microsoft Visual Studio\2019\Community\VC\Tools\MSVC\14.28.29333\include\utility
; File C:\Program Files (x86)\Microsoft Visual Studio\2019\Community\VC\Tools\MSVC\14.28.29333\include\map
;	COMDAT ??$_Try_emplace@V?$basic_string@DU?$char_traits@D@std@@V?$allocator@D@2@@std@@$$V@?$map@V?$basic_string@DU?$char_traits@D@std@@V?$allocator@D@2@@std@@V?$vector@V?$basic_string@DU?$char_traits@D@std@@V?$allocator@D@2@@std@@V?$allocator@V?$basic_string@DU?$char_traits@D@std@@V?$allocator@D@2@@std@@@2@@2@U?$less@V?$basic_string@DU?$char_traits@D@std@@V?$allocator@D@2@@std@@@2@V?$allocator@U?$pair@$$CBV?$basic_string@DU?$char_traits@D@std@@V?$allocator@D@2@@std@@V?$vector@V?$basic_string@DU?$char_traits@D@std@@V?$allocator@D@2@@std@@V?$allocator@V?$basic_string@DU?$char_traits@D@std@@V?$allocator@D@2@@std@@@2@@2@@std@@@2@@std@@AAE?AU?$pair@PAU?$_Tree_node@U?$pair@$$CBV?$basic_string@DU?$char_traits@D@std@@V?$allocator@D@2@@std@@V?$vector@V?$basic_string@DU?$char_traits@D@std@@V?$allocator@D@2@@std@@V?$allocator@V?$basic_string@DU?$char_traits@D@std@@V?$allocator@D@2@@std@@@2@@2@@std@@PAX@std@@_N@1@$$QAV?$basic_string@DU?$char_traits@D@std@@V?$allocator@D@2@@1@@Z
_TEXT	SEGMENT
$T1 = -128						; size = 8
__Loc$ = -120						; size = 12
$T2 = -108						; size = 4
$T3 = -104						; size = 4
$T4 = -100						; size = 4
__Inserted$ = -96					; size = 4
$T5 = -92						; size = 4
__Old_val$6 = -88					; size = 4
$T7 = -84						; size = 4
$T8 = -80						; size = 4
$T9 = -76						; size = 4
$T10 = -72						; size = 4
$T11 = -68						; size = 4
$T12 = -64						; size = 4
$T13 = -60						; size = 4
$T14 = -56						; size = 4
_this$15 = -52						; size = 4
$T16 = -48						; size = 4
$T17 = -44						; size = 4
$T18 = -40						; size = 4
$T19 = -36						; size = 4
$T20 = -32						; size = 4
$T21 = -28						; size = 4
$T22 = -24						; size = 4
__Scary$ = -20						; size = 4
__Val$ = -16						; size = 4
$T23 = -9						; size = 1
_this$ = -8						; size = 4
$T24 = -2						; size = 1
$T25 = -1						; size = 1
___$ReturnUdt$ = 8					; size = 4
__Keyval$ = 12						; size = 4
??$_Try_emplace@V?$basic_string@DU?$char_traits@D@std@@V?$allocator@D@2@@std@@$$V@?$map@V?$basic_string@DU?$char_traits@D@std@@V?$allocator@D@2@@std@@V?$vector@V?$basic_string@DU?$char_traits@D@std@@V?$allocator@D@2@@std@@V?$allocator@V?$basic_string@DU?$char_traits@D@std@@V?$allocator@D@2@@std@@@2@@2@U?$less@V?$basic_string@DU?$char_traits@D@std@@V?$allocator@D@2@@std@@@2@V?$allocator@U?$pair@$$CBV?$basic_string@DU?$char_traits@D@std@@V?$allocator@D@2@@std@@V?$vector@V?$basic_string@DU?$char_traits@D@std@@V?$allocator@D@2@@std@@V?$allocator@V?$basic_string@DU?$char_traits@D@std@@V?$allocator@D@2@@std@@@2@@2@@std@@@2@@std@@AAE?AU?$pair@PAU?$_Tree_node@U?$pair@$$CBV?$basic_string@DU?$char_traits@D@std@@V?$allocator@D@2@@std@@V?$vector@V?$basic_string@DU?$char_traits@D@std@@V?$allocator@D@2@@std@@V?$allocator@V?$basic_string@DU?$char_traits@D@std@@V?$allocator@D@2@@std@@@2@@2@@std@@PAX@std@@_N@1@$$QAV?$basic_string@DU?$char_traits@D@std@@V?$allocator@D@2@@1@@Z PROC ; std::map<std::basic_string<char,std::char_traits<char>,std::allocator<char> >,std::vector<std::basic_string<char,std::char_traits<char>,std::allocator<char> >,std::allocator<std::basic_string<char,std::char_traits<char>,std::allocator<char> > > >,std::less<std::basic_string<char,std::char_traits<char>,std::allocator<char> > >,std::allocator<std::pair<std::basic_string<char,std::char_traits<char>,std::allocator<char> > const ,std::vector<std::basic_string<char,std::char_traits<char>,std::allocator<char> >,std::allocator<std::basic_string<char,std::char_traits<char>,std::allocator<char> > > > > > >::_Try_emplace<std::basic_string<char,std::char_traits<char>,std::allocator<char> > >, COMDAT
; _this$ = ecx

; 175  :     pair<_Nodeptr, bool> _Try_emplace(_Keyty&& _Keyval, _Mappedty&&... _Mapval) {

  00000	55		 push	 ebp
  00001	8b ec		 mov	 ebp, esp
  00003	81 ec 80 00 00
	00		 sub	 esp, 128		; 00000080H
  00009	89 4d f8	 mov	 DWORD PTR _this$[ebp], ecx

; 176  :         const auto _Loc = _Mybase::_Find_lower_bound(_Keyval);

  0000c	ff 75 0c	 push	 DWORD PTR __Keyval$[ebp]
  0000f	8d 45 88	 lea	 eax, DWORD PTR __Loc$[ebp]
  00012	50		 push	 eax
  00013	8b 4d f8	 mov	 ecx, DWORD PTR _this$[ebp]
  00016	e8 00 00 00 00	 call	 ??$_Find_lower_bound@V?$basic_string@DU?$char_traits@D@std@@V?$allocator@D@2@@std@@@?$_Tree@V?$_Tmap_traits@V?$basic_string@DU?$char_traits@D@std@@V?$allocator@D@2@@std@@V?$vector@V?$basic_string@DU?$char_traits@D@std@@V?$allocator@D@2@@std@@V?$allocator@V?$basic_string@DU?$char_traits@D@std@@V?$allocator@D@2@@std@@@2@@2@U?$less@V?$basic_string@DU?$char_traits@D@std@@V?$allocator@D@2@@std@@@2@V?$allocator@U?$pair@$$CBV?$basic_string@DU?$char_traits@D@std@@V?$allocator@D@2@@std@@V?$vector@V?$basic_string@DU?$char_traits@D@std@@V?$allocator@D@2@@std@@V?$allocator@V?$basic_string@DU?$char_traits@D@std@@V?$allocator@D@2@@std@@@2@@2@@std@@@2@$0A@@std@@@std@@IBE?AU?$_Tree_find_result@PAU?$_Tree_node@U?$pair@$$CBV?$basic_string@DU?$char_traits@D@std@@V?$allocator@D@2@@std@@V?$vector@V?$basic_string@DU?$char_traits@D@std@@V?$allocator@D@2@@std@@V?$allocator@V?$basic_string@DU?$char_traits@D@std@@V?$allocator@D@2@@std@@@2@@2@@std@@PAX@std@@@1@ABV?$basic_string@DU?$char_traits@D@std@@V?$allocator@D@2@@1@@Z ; std::_Tree<std::_Tmap_traits<std::basic_string<char,std::char_traits<char>,std::allocator<char> >,std::vector<std::basic_string<char,std::char_traits<char>,std::allocator<char> >,std::allocator<std::basic_string<char,std::char_traits<char>,std::allocator<char> > > >,std::less<std::basic_string<char,std::char_traits<char>,std::allocator<char> > >,std::allocator<std::pair<std::basic_string<char,std::char_traits<char>,std::allocator<char> > const ,std::vector<std::basic_string<char,std::char_traits<char>,std::allocator<char> >,std::allocator<std::basic_string<char,std::char_traits<char>,std::allocator<char> > > > > >,0> >::_Find_lower_bound<std::basic_string<char,std::char_traits<char>,std::allocator<char> > >

; 177  :         if (_Mybase::_Lower_bound_duplicate(_Loc._Bound, _Keyval)) {

  0001b	ff 75 0c	 push	 DWORD PTR __Keyval$[ebp]
  0001e	ff 75 90	 push	 DWORD PTR __Loc$[ebp+8]
  00021	8b 4d f8	 mov	 ecx, DWORD PTR _this$[ebp]
  00024	e8 00 00 00 00	 call	 ??$_Lower_bound_duplicate@V?$basic_string@DU?$char_traits@D@std@@V?$allocator@D@2@@std@@@?$_Tree@V?$_Tmap_traits@V?$basic_string@DU?$char_traits@D@std@@V?$allocator@D@2@@std@@V?$vector@V?$basic_string@DU?$char_traits@D@std@@V?$allocator@D@2@@std@@V?$allocator@V?$basic_string@DU?$char_traits@D@std@@V?$allocator@D@2@@std@@@2@@2@U?$less@V?$basic_string@DU?$char_traits@D@std@@V?$allocator@D@2@@std@@@2@V?$allocator@U?$pair@$$CBV?$basic_string@DU?$char_traits@D@std@@V?$allocator@D@2@@std@@V?$vector@V?$basic_string@DU?$char_traits@D@std@@V?$allocator@D@2@@std@@V?$allocator@V?$basic_string@DU?$char_traits@D@std@@V?$allocator@D@2@@std@@@2@@2@@std@@@2@$0A@@std@@@std@@IBE_NQAU?$_Tree_node@U?$pair@$$CBV?$basic_string@DU?$char_traits@D@std@@V?$allocator@D@2@@std@@V?$vector@V?$basic_string@DU?$char_traits@D@std@@V?$allocator@D@2@@std@@V?$allocator@V?$basic_string@DU?$char_traits@D@std@@V?$allocator@D@2@@std@@@2@@2@@std@@PAX@1@ABV?$basic_string@DU?$char_traits@D@std@@V?$allocator@D@2@@1@@Z ; std::_Tree<std::_Tmap_traits<std::basic_string<char,std::char_traits<char>,std::allocator<char> >,std::vector<std::basic_string<char,std::char_traits<char>,std::allocator<char> >,std::allocator<std::basic_string<char,std::char_traits<char>,std::allocator<char> > > >,std::less<std::basic_string<char,std::char_traits<char>,std::allocator<char> > >,std::allocator<std::pair<std::basic_string<char,std::char_traits<char>,std::allocator<char> > const ,std::vector<std::basic_string<char,std::char_traits<char>,std::allocator<char> >,std::allocator<std::basic_string<char,std::char_traits<char>,std::allocator<char> > > > > >,0> >::_Lower_bound_duplicate<std::basic_string<char,std::char_traits<char>,std::allocator<char> > >
  00029	0f b6 c0	 movzx	 eax, al
  0002c	85 c0		 test	 eax, eax
  0002e	74 2d		 je	 SHORT $LN2@Try_emplac

; 178  :             return {_Loc._Bound, false};

  00030	c6 45 ff 00	 mov	 BYTE PTR $T25[ebp], 0
; File C:\Program Files (x86)\Microsoft Visual Studio\2019\Community\VC\Tools\MSVC\14.28.29333\include\type_traits

; 1443 :     return static_cast<_Ty&&>(_Arg);

  00034	8d 45 90	 lea	 eax, DWORD PTR __Loc$[ebp+8]
  00037	89 45 e8	 mov	 DWORD PTR $T22[ebp], eax
; File C:\Program Files (x86)\Microsoft Visual Studio\2019\Community\VC\Tools\MSVC\14.28.29333\include\utility

; 190  :         : first(_STD forward<_Other1>(_Val1)), second(_STD forward<_Other2>(_Val2)) {}

  0003a	8b 45 08	 mov	 eax, DWORD PTR ___$ReturnUdt$[ebp]
  0003d	8b 4d e8	 mov	 ecx, DWORD PTR $T22[ebp]
  00040	8b 09		 mov	 ecx, DWORD PTR [ecx]
  00042	89 08		 mov	 DWORD PTR [eax], ecx
; File C:\Program Files (x86)\Microsoft Visual Studio\2019\Community\VC\Tools\MSVC\14.28.29333\include\type_traits

; 1443 :     return static_cast<_Ty&&>(_Arg);

  00044	8d 45 ff	 lea	 eax, DWORD PTR $T25[ebp]
  00047	89 45 e4	 mov	 DWORD PTR $T21[ebp], eax
; File C:\Program Files (x86)\Microsoft Visual Studio\2019\Community\VC\Tools\MSVC\14.28.29333\include\utility

; 190  :         : first(_STD forward<_Other1>(_Val1)), second(_STD forward<_Other2>(_Val2)) {}

  0004a	8b 45 08	 mov	 eax, DWORD PTR ___$ReturnUdt$[ebp]
  0004d	8b 4d e4	 mov	 ecx, DWORD PTR $T21[ebp]
  00050	8a 09		 mov	 cl, BYTE PTR [ecx]
  00052	88 48 04	 mov	 BYTE PTR [eax+4], cl
; File C:\Program Files (x86)\Microsoft Visual Studio\2019\Community\VC\Tools\MSVC\14.28.29333\include\map

; 178  :             return {_Loc._Bound, false};

  00055	8b 45 08	 mov	 eax, DWORD PTR ___$ReturnUdt$[ebp]
  00058	e9 e3 00 00 00	 jmp	 $LN1@Try_emplac
$LN2@Try_emplac:

; 179  :         }
; 180  : 
; 181  :         _Mybase::_Check_grow_by_1();

  0005d	8b 4d f8	 mov	 ecx, DWORD PTR _this$[ebp]
  00060	e8 00 00 00 00	 call	 ?_Check_grow_by_1@?$_Tree@V?$_Tmap_traits@V?$basic_string@DU?$char_traits@D@std@@V?$allocator@D@2@@std@@V?$vector@V?$basic_string@DU?$char_traits@D@std@@V?$allocator@D@2@@std@@V?$allocator@V?$basic_string@DU?$char_traits@D@std@@V?$allocator@D@2@@std@@@2@@2@U?$less@V?$basic_string@DU?$char_traits@D@std@@V?$allocator@D@2@@std@@@2@V?$allocator@U?$pair@$$CBV?$basic_string@DU?$char_traits@D@std@@V?$allocator@D@2@@std@@V?$vector@V?$basic_string@DU?$char_traits@D@std@@V?$allocator@D@2@@std@@V?$allocator@V?$basic_string@DU?$char_traits@D@std@@V?$allocator@D@2@@std@@@2@@2@@std@@@2@$0A@@std@@@std@@IAEXXZ ; std::_Tree<std::_Tmap_traits<std::basic_string<char,std::char_traits<char>,std::allocator<char> >,std::vector<std::basic_string<char,std::char_traits<char>,std::allocator<char> >,std::allocator<std::basic_string<char,std::char_traits<char>,std::allocator<char> > > >,std::less<std::basic_string<char,std::char_traits<char>,std::allocator<char> > >,std::allocator<std::pair<std::basic_string<char,std::char_traits<char>,std::allocator<char> > const ,std::vector<std::basic_string<char,std::char_traits<char>,std::allocator<char> >,std::allocator<std::basic_string<char,std::char_traits<char>,std::allocator<char> > > > > >,0> >::_Check_grow_by_1
; File C:\Program Files (x86)\Microsoft Visual Studio\2019\Community\VC\Tools\MSVC\14.28.29333\include\xtree

; 2047 :         return _STD addressof(_Mypair._Myval2._Myval2);

  00065	8b 45 f8	 mov	 eax, DWORD PTR _this$[ebp]
; File C:\Program Files (x86)\Microsoft Visual Studio\2019\Community\VC\Tools\MSVC\14.28.29333\include\xstddef

; 275  :     return __builtin_addressof(_Val);

  00068	89 45 e0	 mov	 DWORD PTR $T20[ebp], eax
; File C:\Program Files (x86)\Microsoft Visual Studio\2019\Community\VC\Tools\MSVC\14.28.29333\include\xtree

; 2047 :         return _STD addressof(_Mypair._Myval2._Myval2);

  0006b	8b 45 e0	 mov	 eax, DWORD PTR $T20[ebp]
  0006e	89 45 ec	 mov	 DWORD PTR __Scary$[ebp], eax
; File C:\Program Files (x86)\Microsoft Visual Studio\2019\Community\VC\Tools\MSVC\14.28.29333\include\tuple

; 854  :     return tuple<_Types&&...>(_STD forward<_Types>(_Args)...);

  00071	8d 45 f7	 lea	 eax, DWORD PTR $T23[ebp]
  00074	89 45 bc	 mov	 DWORD PTR $T11[ebp], eax
; File C:\Program Files (x86)\Microsoft Visual Studio\2019\Community\VC\Tools\MSVC\14.28.29333\include\type_traits

; 1443 :     return static_cast<_Ty&&>(_Arg);

  00077	8b 45 0c	 mov	 eax, DWORD PTR __Keyval$[ebp]
  0007a	89 45 dc	 mov	 DWORD PTR $T19[ebp], eax
  0007d	8b 45 dc	 mov	 eax, DWORD PTR $T19[ebp]
  00080	89 45 d8	 mov	 DWORD PTR $T18[ebp], eax
  00083	8b 45 d8	 mov	 eax, DWORD PTR $T18[ebp]
  00086	89 45 d4	 mov	 DWORD PTR $T17[ebp], eax
  00089	8b 45 d4	 mov	 eax, DWORD PTR $T17[ebp]
  0008c	89 45 d0	 mov	 DWORD PTR $T16[ebp], eax
; File C:\Program Files (x86)\Microsoft Visual Studio\2019\Community\VC\Tools\MSVC\14.28.29333\include\tuple

; 245  :         : _Mybase(_Exact_args_t{}, _STD forward<_Rest2>(_Rest_arg)...), _Myfirst(_STD forward<_This2>(_This_arg)) {}

  0008f	8d 45 c4	 lea	 eax, DWORD PTR $T13[ebp]
  00092	89 45 cc	 mov	 DWORD PTR _this$15[ebp], eax
; File C:\Program Files (x86)\Microsoft Visual Studio\2019\Community\VC\Tools\MSVC\14.28.29333\include\type_traits

; 1443 :     return static_cast<_Ty&&>(_Arg);

  00095	8b 45 d0	 mov	 eax, DWORD PTR $T16[ebp]
  00098	89 45 c8	 mov	 DWORD PTR $T14[ebp], eax
; File C:\Program Files (x86)\Microsoft Visual Studio\2019\Community\VC\Tools\MSVC\14.28.29333\include\tuple

; 163  :     constexpr _Tuple_val(_Other&& _Arg) : _Val(_STD forward<_Other>(_Arg)) {}

  0009b	8b 45 cc	 mov	 eax, DWORD PTR _this$15[ebp]
  0009e	8b 4d c8	 mov	 ecx, DWORD PTR $T14[ebp]
  000a1	89 08		 mov	 DWORD PTR [eax], ecx

; 854  :     return tuple<_Types&&...>(_STD forward<_Types>(_Args)...);

  000a3	8d 45 c4	 lea	 eax, DWORD PTR $T13[ebp]
  000a6	89 45 b8	 mov	 DWORD PTR $T10[ebp], eax
; File C:\Program Files (x86)\Microsoft Visual Studio\2019\Community\VC\Tools\MSVC\14.28.29333\include\xtree

; 2039 :         return _Mypair._Myval2._Get_first();

  000a9	8b 45 f8	 mov	 eax, DWORD PTR _this$[ebp]
; File C:\Program Files (x86)\Microsoft Visual Studio\2019\Community\VC\Tools\MSVC\14.28.29333\include\xmemory

; 1347 :         return *this;

  000ac	89 45 c0	 mov	 DWORD PTR $T12[ebp], eax
; File C:\Program Files (x86)\Microsoft Visual Studio\2019\Community\VC\Tools\MSVC\14.28.29333\include\xtree

; 2039 :         return _Mypair._Myval2._Get_first();

  000af	8b 45 c0	 mov	 eax, DWORD PTR $T12[ebp]
  000b2	89 45 b4	 mov	 DWORD PTR $T9[ebp], eax
; File C:\Program Files (x86)\Microsoft Visual Studio\2019\Community\VC\Tools\MSVC\14.28.29333\include\map

; 184  :         const auto _Inserted = _Tree_temp_node<_Alnode>(_Mybase::_Getal(), _Scary->_Myhead, piecewise_construct,

  000b5	ff 75 bc	 push	 DWORD PTR $T11[ebp]
  000b8	ff 75 b8	 push	 DWORD PTR $T10[ebp]
  000bb	68 00 00 00 00	 push	 OFFSET ?piecewise_construct@std@@3Upiecewise_construct_t@1@B
  000c0	8b 45 ec	 mov	 eax, DWORD PTR __Scary$[ebp]
  000c3	ff 30		 push	 DWORD PTR [eax]
  000c5	ff 75 b4	 push	 DWORD PTR $T9[ebp]
  000c8	8d 4d 80	 lea	 ecx, DWORD PTR $T1[ebp]
  000cb	e8 00 00 00 00	 call	 ??$?0ABUpiecewise_construct_t@std@@V?$tuple@$$QAV?$basic_string@DU?$char_traits@D@std@@V?$allocator@D@2@@std@@@1@V?$tuple@$$V@1@@?$_Tree_temp_node@V?$allocator@U?$_Tree_node@U?$pair@$$CBV?$basic_string@DU?$char_traits@D@std@@V?$allocator@D@2@@std@@V?$vector@V?$basic_string@DU?$char_traits@D@std@@V?$allocator@D@2@@std@@V?$allocator@V?$basic_string@DU?$char_traits@D@std@@V?$allocator@D@2@@std@@@2@@2@@std@@PAX@std@@@std@@@std@@QAE@AAV?$allocator@U?$_Tree_node@U?$pair@$$CBV?$basic_string@DU?$char_traits@D@std@@V?$allocator@D@2@@std@@V?$vector@V?$basic_string@DU?$char_traits@D@std@@V?$allocator@D@2@@std@@V?$allocator@V?$basic_string@DU?$char_traits@D@std@@V?$allocator@D@2@@std@@@2@@2@@std@@PAX@std@@@1@PAU?$_Tree_node@U?$pair@$$CBV?$basic_string@DU?$char_traits@D@std@@V?$allocator@D@2@@std@@V?$vector@V?$basic_string@DU?$char_traits@D@std@@V?$allocator@D@2@@std@@V?$allocator@V?$basic_string@DU?$char_traits@D@std@@V?$allocator@D@2@@std@@@2@@2@@std@@PAX@1@ABUpiecewise_construct_t@1@$$QAV?$tuple@$$QAV?$basic_string@DU?$char_traits@D@std@@V?$allocator@D@2@@std@@@1@$$QAV?$tuple@$$V@1@@Z ; std::_Tree_temp_node<std::allocator<std::_Tree_node<std::pair<std::basic_string<char,std::char_traits<char>,std::allocator<char> > const ,std::vector<std::basic_string<char,std::char_traits<char>,std::allocator<char> >,std::allocator<std::basic_string<char,std::char_traits<char>,std::allocator<char> > > > >,void *> > >::_Tree_temp_node<std::allocator<std::_Tree_node<std::pair<std::basic_string<char,std::char_traits<char>,std::allocator<char> > const ,std::vector<std::basic_string<char,std::char_traits<char>,std::allocator<char> >,std::allocator<std::basic_string<char,std::char_traits<char>,std::allocator<char> > > > >,void *> > ><std::piecewise_construct_t const &,std::tuple<std::basic_string<char,std::char_traits<char>,std::allocator<char> > &&>,std::tuple<> >
  000d0	89 45 b0	 mov	 DWORD PTR $T8[ebp], eax
; File C:\Program Files (x86)\Microsoft Visual Studio\2019\Community\VC\Tools\MSVC\14.28.29333\include\xmemory

; 1048 :         return _STD exchange(_Ptr, nullptr);

  000d3	83 65 ac 00	 and	 DWORD PTR $T7[ebp], 0
  000d7	8b 45 b0	 mov	 eax, DWORD PTR $T8[ebp]
  000da	83 c0 04	 add	 eax, 4
  000dd	89 45 f0	 mov	 DWORD PTR __Val$[ebp], eax
; File C:\Program Files (x86)\Microsoft Visual Studio\2019\Community\VC\Tools\MSVC\14.28.29333\include\utility

; 598  :     _Ty _Old_val = static_cast<_Ty&&>(_Val);

  000e0	8b 45 f0	 mov	 eax, DWORD PTR __Val$[ebp]
  000e3	8b 00		 mov	 eax, DWORD PTR [eax]
  000e5	89 45 a8	 mov	 DWORD PTR __Old_val$6[ebp], eax

; 599  :     _Val         = static_cast<_Other&&>(_New_val);

  000e8	8b 45 f0	 mov	 eax, DWORD PTR __Val$[ebp]
  000eb	8b 4d ac	 mov	 ecx, DWORD PTR $T7[ebp]
  000ee	89 08		 mov	 DWORD PTR [eax], ecx

; 600  :     return _Old_val;

  000f0	8b 45 a8	 mov	 eax, DWORD PTR __Old_val$6[ebp]
  000f3	89 45 a4	 mov	 DWORD PTR $T5[ebp], eax
; File C:\Program Files (x86)\Microsoft Visual Studio\2019\Community\VC\Tools\MSVC\14.28.29333\include\xmemory

; 1048 :         return _STD exchange(_Ptr, nullptr);

  000f6	8b 45 a4	 mov	 eax, DWORD PTR $T5[ebp]
  000f9	89 45 a0	 mov	 DWORD PTR __Inserted$[ebp], eax
; File C:\Program Files (x86)\Microsoft Visual Studio\2019\Community\VC\Tools\MSVC\14.28.29333\include\map

; 184  :         const auto _Inserted = _Tree_temp_node<_Alnode>(_Mybase::_Getal(), _Scary->_Myhead, piecewise_construct,

  000fc	8d 4d 80	 lea	 ecx, DWORD PTR $T1[ebp]
  000ff	e8 00 00 00 00	 call	 ??1?$_Tree_temp_node@V?$allocator@U?$_Tree_node@U?$pair@$$CBV?$basic_string@DU?$char_traits@D@std@@V?$allocator@D@2@@std@@V?$vector@V?$basic_string@DU?$char_traits@D@std@@V?$allocator@D@2@@std@@V?$allocator@V?$basic_string@DU?$char_traits@D@std@@V?$allocator@D@2@@std@@@2@@2@@std@@PAX@std@@@std@@@std@@QAE@XZ ; std::_Tree_temp_node<std::allocator<std::_Tree_node<std::pair<std::basic_string<char,std::char_traits<char>,std::allocator<char> > const ,std::vector<std::basic_string<char,std::char_traits<char>,std::allocator<char> >,std::allocator<std::basic_string<char,std::char_traits<char>,std::allocator<char> > > > >,void *> > >::~_Tree_temp_node<std::allocator<std::_Tree_node<std::pair<std::basic_string<char,std::char_traits<char>,std::allocator<char> > const ,std::vector<std::basic_string<char,std::char_traits<char>,std::allocator<char> >,std::allocator<std::basic_string<char,std::char_traits<char>,std::allocator<char> > > > >,void *> > >

; 190  :         return {_Scary->_Insert_node(_Loc._Location, _Inserted), true};

  00104	ff 75 a0	 push	 DWORD PTR __Inserted$[ebp]
  00107	ff 75 8c	 push	 DWORD PTR __Loc$[ebp+4]
  0010a	ff 75 88	 push	 DWORD PTR __Loc$[ebp]
  0010d	8b 4d ec	 mov	 ecx, DWORD PTR __Scary$[ebp]
  00110	e8 00 00 00 00	 call	 ?_Insert_node@?$_Tree_val@U?$_Tree_simple_types@U?$pair@$$CBV?$basic_string@DU?$char_traits@D@std@@V?$allocator@D@2@@std@@V?$vector@V?$basic_string@DU?$char_traits@D@std@@V?$allocator@D@2@@std@@V?$allocator@V?$basic_string@DU?$char_traits@D@std@@V?$allocator@D@2@@std@@@2@@2@@std@@@std@@@std@@QAEPAU?$_Tree_node@U?$pair@$$CBV?$basic_string@DU?$char_traits@D@std@@V?$allocator@D@2@@std@@V?$vector@V?$basic_string@DU?$char_traits@D@std@@V?$allocator@D@2@@std@@V?$allocator@V?$basic_string@DU?$char_traits@D@std@@V?$allocator@D@2@@std@@@2@@2@@std@@PAX@2@U?$_Tree_id@PAU?$_Tree_node@U?$pair@$$CBV?$basic_string@DU?$char_traits@D@std@@V?$allocator@D@2@@std@@V?$vector@V?$basic_string@DU?$char_traits@D@std@@V?$allocator@D@2@@std@@V?$allocator@V?$basic_string@DU?$char_traits@D@std@@V?$allocator@D@2@@std@@@2@@2@@std@@PAX@std@@@2@QAU32@@Z ; std::_Tree_val<std::_Tree_simple_types<std::pair<std::basic_string<char,std::char_traits<char>,std::allocator<char> > const ,std::vector<std::basic_string<char,std::char_traits<char>,std::allocator<char> >,std::allocator<std::basic_string<char,std::char_traits<char>,std::allocator<char> > > > > > >::_Insert_node
  00115	89 45 9c	 mov	 DWORD PTR $T4[ebp], eax
  00118	c6 45 fe 01	 mov	 BYTE PTR $T24[ebp], 1
; File C:\Program Files (x86)\Microsoft Visual Studio\2019\Community\VC\Tools\MSVC\14.28.29333\include\type_traits

; 1443 :     return static_cast<_Ty&&>(_Arg);

  0011c	8d 45 9c	 lea	 eax, DWORD PTR $T4[ebp]
  0011f	89 45 98	 mov	 DWORD PTR $T3[ebp], eax
; File C:\Program Files (x86)\Microsoft Visual Studio\2019\Community\VC\Tools\MSVC\14.28.29333\include\utility

; 190  :         : first(_STD forward<_Other1>(_Val1)), second(_STD forward<_Other2>(_Val2)) {}

  00122	8b 45 08	 mov	 eax, DWORD PTR ___$ReturnUdt$[ebp]
  00125	8b 4d 98	 mov	 ecx, DWORD PTR $T3[ebp]
  00128	8b 09		 mov	 ecx, DWORD PTR [ecx]
  0012a	89 08		 mov	 DWORD PTR [eax], ecx
; File C:\Program Files (x86)\Microsoft Visual Studio\2019\Community\VC\Tools\MSVC\14.28.29333\include\type_traits

; 1443 :     return static_cast<_Ty&&>(_Arg);

  0012c	8d 45 fe	 lea	 eax, DWORD PTR $T24[ebp]
  0012f	89 45 94	 mov	 DWORD PTR $T2[ebp], eax
; File C:\Program Files (x86)\Microsoft Visual Studio\2019\Community\VC\Tools\MSVC\14.28.29333\include\utility

; 190  :         : first(_STD forward<_Other1>(_Val1)), second(_STD forward<_Other2>(_Val2)) {}

  00132	8b 45 08	 mov	 eax, DWORD PTR ___$ReturnUdt$[ebp]
  00135	8b 4d 94	 mov	 ecx, DWORD PTR $T2[ebp]
  00138	8a 09		 mov	 cl, BYTE PTR [ecx]
  0013a	88 48 04	 mov	 BYTE PTR [eax+4], cl
; File C:\Program Files (x86)\Microsoft Visual Studio\2019\Community\VC\Tools\MSVC\14.28.29333\include\map

; 190  :         return {_Scary->_Insert_node(_Loc._Location, _Inserted), true};

  0013d	8b 45 08	 mov	 eax, DWORD PTR ___$ReturnUdt$[ebp]
$LN1@Try_emplac:

; 191  :     }

  00140	c9		 leave
  00141	c2 08 00	 ret	 8
??$_Try_emplace@V?$basic_string@DU?$char_traits@D@std@@V?$allocator@D@2@@std@@$$V@?$map@V?$basic_string@DU?$char_traits@D@std@@V?$allocator@D@2@@std@@V?$vector@V?$basic_string@DU?$char_traits@D@std@@V?$allocator@D@2@@std@@V?$allocator@V?$basic_string@DU?$char_traits@D@std@@V?$allocator@D@2@@std@@@2@@2@U?$less@V?$basic_string@DU?$char_traits@D@std@@V?$allocator@D@2@@std@@@2@V?$allocator@U?$pair@$$CBV?$basic_string@DU?$char_traits@D@std@@V?$allocator@D@2@@std@@V?$vector@V?$basic_string@DU?$char_traits@D@std@@V?$allocator@D@2@@std@@V?$allocator@V?$basic_string@DU?$char_traits@D@std@@V?$allocator@D@2@@std@@@2@@2@@std@@@2@@std@@AAE?AU?$pair@PAU?$_Tree_node@U?$pair@$$CBV?$basic_string@DU?$char_traits@D@std@@V?$allocator@D@2@@std@@V?$vector@V?$basic_string@DU?$char_traits@D@std@@V?$allocator@D@2@@std@@V?$allocator@V?$basic_string@DU?$char_traits@D@std@@V?$allocator@D@2@@std@@@2@@2@@std@@PAX@std@@_N@1@$$QAV?$basic_string@DU?$char_traits@D@std@@V?$allocator@D@2@@1@@Z ENDP ; std::map<std::basic_string<char,std::char_traits<char>,std::allocator<char> >,std::vector<std::basic_string<char,std::char_traits<char>,std::allocator<char> >,std::allocator<std::basic_string<char,std::char_traits<char>,std::allocator<char> > > >,std::less<std::basic_string<char,std::char_traits<char>,std::allocator<char> > >,std::allocator<std::pair<std::basic_string<char,std::char_traits<char>,std::allocator<char> > const ,std::vector<std::basic_string<char,std::char_traits<char>,std::allocator<char> >,std::allocator<std::basic_string<char,std::char_traits<char>,std::allocator<char> > > > > > >::_Try_emplace<std::basic_string<char,std::char_traits<char>,std::allocator<char> > >
_TEXT	ENDS
; Function compile flags: /Odspy
; File C:\Program Files (x86)\Microsoft Visual Studio\2019\Community\VC\Tools\MSVC\14.28.29333\include\xstring
;	COMDAT ??$?9DU?$char_traits@D@std@@V?$allocator@D@1@@std@@YA_NABV?$basic_string@DU?$char_traits@D@std@@V?$allocator@D@2@@0@QBD@Z
_TEXT	SEGMENT
tv69 = -4						; size = 4
__Left$ = 8						; size = 4
__Right$ = 12						; size = 4
??$?9DU?$char_traits@D@std@@V?$allocator@D@1@@std@@YA_NABV?$basic_string@DU?$char_traits@D@std@@V?$allocator@D@2@@0@QBD@Z PROC ; std::operator!=<char,std::char_traits<char>,std::allocator<char> >, COMDAT

; 4580 : _NODISCARD bool operator!=(const basic_string<_Elem, _Traits, _Alloc>& _Left, _In_z_ const _Elem* const _Right) {

  00000	55		 push	 ebp
  00001	8b ec		 mov	 ebp, esp
  00003	51		 push	 ecx

; 4581 :     return !(_Left == _Right);

  00004	ff 75 0c	 push	 DWORD PTR __Right$[ebp]
  00007	ff 75 08	 push	 DWORD PTR __Left$[ebp]
  0000a	e8 00 00 00 00	 call	 ??$?8DU?$char_traits@D@std@@V?$allocator@D@1@@std@@YA_NABV?$basic_string@DU?$char_traits@D@std@@V?$allocator@D@2@@0@QBD@Z ; std::operator==<char,std::char_traits<char>,std::allocator<char> >
  0000f	59		 pop	 ecx
  00010	59		 pop	 ecx
  00011	0f b6 c0	 movzx	 eax, al
  00014	85 c0		 test	 eax, eax
  00016	75 09		 jne	 SHORT $LN3@operator
  00018	c7 45 fc 01 00
	00 00		 mov	 DWORD PTR tv69[ebp], 1
  0001f	eb 04		 jmp	 SHORT $LN4@operator
$LN3@operator:
  00021	83 65 fc 00	 and	 DWORD PTR tv69[ebp], 0
$LN4@operator:
  00025	8a 45 fc	 mov	 al, BYTE PTR tv69[ebp]

; 4582 : }

  00028	c9		 leave
  00029	c3		 ret	 0
??$?9DU?$char_traits@D@std@@V?$allocator@D@1@@std@@YA_NABV?$basic_string@DU?$char_traits@D@std@@V?$allocator@D@2@@0@QBD@Z ENDP ; std::operator!=<char,std::char_traits<char>,std::allocator<char> >
_TEXT	ENDS
; Function compile flags: /Odspy
; File C:\Program Files (x86)\Microsoft Visual Studio\2019\Community\VC\Tools\MSVC\14.28.29333\include\vector
; File C:\Program Files (x86)\Microsoft Visual Studio\2019\Community\VC\Tools\MSVC\14.28.29333\include\xstring
;	COMDAT ??_G?$pair@$$CBV?$basic_string@DU?$char_traits@D@std@@V?$allocator@D@2@@std@@V?$vector@V?$basic_string@DU?$char_traits@D@std@@V?$allocator@D@2@@std@@V?$allocator@V?$basic_string@DU?$char_traits@D@std@@V?$allocator@D@2@@std@@@2@@2@@std@@QAEPAXI@Z
_TEXT	SEGMENT
_this$ = -4						; size = 4
___flags$ = 8						; size = 4
??_G?$pair@$$CBV?$basic_string@DU?$char_traits@D@std@@V?$allocator@D@2@@std@@V?$vector@V?$basic_string@DU?$char_traits@D@std@@V?$allocator@D@2@@std@@V?$allocator@V?$basic_string@DU?$char_traits@D@std@@V?$allocator@D@2@@std@@@2@@2@@std@@QAEPAXI@Z PROC ; std::pair<std::basic_string<char,std::char_traits<char>,std::allocator<char> > const ,std::vector<std::basic_string<char,std::char_traits<char>,std::allocator<char> >,std::allocator<std::basic_string<char,std::char_traits<char>,std::allocator<char> > > > >::`scalar deleting destructor', COMDAT
; _this$ = ecx
  00000	55		 push	 ebp
  00001	8b ec		 mov	 ebp, esp
  00003	51		 push	 ecx
  00004	89 4d fc	 mov	 DWORD PTR _this$[ebp], ecx
  00007	8b 4d fc	 mov	 ecx, DWORD PTR _this$[ebp]
  0000a	83 c1 18	 add	 ecx, 24			; 00000018H
; File C:\Program Files (x86)\Microsoft Visual Studio\2019\Community\VC\Tools\MSVC\14.28.29333\include\vector

; 673  :         _Tidy();

  0000d	e8 00 00 00 00	 call	 ?_Tidy@?$vector@V?$basic_string@DU?$char_traits@D@std@@V?$allocator@D@2@@std@@V?$allocator@V?$basic_string@DU?$char_traits@D@std@@V?$allocator@D@2@@std@@@2@@std@@AAEXXZ ; std::vector<std::basic_string<char,std::char_traits<char>,std::allocator<char> >,std::allocator<std::basic_string<char,std::char_traits<char>,std::allocator<char> > > >::_Tidy
; File C:\Program Files (x86)\Microsoft Visual Studio\2019\Community\VC\Tools\MSVC\14.28.29333\include\xstring

; 2801 :         _Tidy_deallocate();

  00012	8b 4d fc	 mov	 ecx, DWORD PTR _this$[ebp]
  00015	e8 00 00 00 00	 call	 ?_Tidy_deallocate@?$basic_string@DU?$char_traits@D@std@@V?$allocator@D@2@@std@@AAEXXZ ; std::basic_string<char,std::char_traits<char>,std::allocator<char> >::_Tidy_deallocate
  0001a	8b 45 08	 mov	 eax, DWORD PTR ___flags$[ebp]
  0001d	83 e0 01	 and	 eax, 1
  00020	74 0c		 je	 SHORT $LN2@scalar
  00022	6a 24		 push	 36			; 00000024H
  00024	ff 75 fc	 push	 DWORD PTR _this$[ebp]
  00027	e8 00 00 00 00	 call	 ??3@YAXPAXI@Z		; operator delete
  0002c	59		 pop	 ecx
  0002d	59		 pop	 ecx
$LN2@scalar:
  0002e	8b 45 fc	 mov	 eax, DWORD PTR _this$[ebp]
  00031	c9		 leave
  00032	c2 04 00	 ret	 4
??_G?$pair@$$CBV?$basic_string@DU?$char_traits@D@std@@V?$allocator@D@2@@std@@V?$vector@V?$basic_string@DU?$char_traits@D@std@@V?$allocator@D@2@@std@@V?$allocator@V?$basic_string@DU?$char_traits@D@std@@V?$allocator@D@2@@std@@@2@@2@@std@@QAEPAXI@Z ENDP ; std::pair<std::basic_string<char,std::char_traits<char>,std::allocator<char> > const ,std::vector<std::basic_string<char,std::char_traits<char>,std::allocator<char> >,std::allocator<std::basic_string<char,std::char_traits<char>,std::allocator<char> > > > >::`scalar deleting destructor'
_TEXT	ENDS
; Function compile flags: /Odspy
;	COMDAT ??1?$map@V?$basic_string@DU?$char_traits@D@std@@V?$allocator@D@2@@std@@V?$vector@V?$basic_string@DU?$char_traits@D@std@@V?$allocator@D@2@@std@@V?$allocator@V?$basic_string@DU?$char_traits@D@std@@V?$allocator@D@2@@std@@@2@@2@U?$less@V?$basic_string@DU?$char_traits@D@std@@V?$allocator@D@2@@std@@@2@V?$allocator@U?$pair@$$CBV?$basic_string@DU?$char_traits@D@std@@V?$allocator@D@2@@std@@V?$vector@V?$basic_string@DU?$char_traits@D@std@@V?$allocator@D@2@@std@@V?$allocator@V?$basic_string@DU?$char_traits@D@std@@V?$allocator@D@2@@std@@@2@@2@@std@@@2@@std@@QAE@XZ
_TEXT	SEGMENT
_this$ = -4						; size = 4
??1?$map@V?$basic_string@DU?$char_traits@D@std@@V?$allocator@D@2@@std@@V?$vector@V?$basic_string@DU?$char_traits@D@std@@V?$allocator@D@2@@std@@V?$allocator@V?$basic_string@DU?$char_traits@D@std@@V?$allocator@D@2@@std@@@2@@2@U?$less@V?$basic_string@DU?$char_traits@D@std@@V?$allocator@D@2@@std@@@2@V?$allocator@U?$pair@$$CBV?$basic_string@DU?$char_traits@D@std@@V?$allocator@D@2@@std@@V?$vector@V?$basic_string@DU?$char_traits@D@std@@V?$allocator@D@2@@std@@V?$allocator@V?$basic_string@DU?$char_traits@D@std@@V?$allocator@D@2@@std@@@2@@2@@std@@@2@@std@@QAE@XZ PROC ; std::map<std::basic_string<char,std::char_traits<char>,std::allocator<char> >,std::vector<std::basic_string<char,std::char_traits<char>,std::allocator<char> >,std::allocator<std::basic_string<char,std::char_traits<char>,std::allocator<char> > > >,std::less<std::basic_string<char,std::char_traits<char>,std::allocator<char> > >,std::allocator<std::pair<std::basic_string<char,std::char_traits<char>,std::allocator<char> > const ,std::vector<std::basic_string<char,std::char_traits<char>,std::allocator<char> >,std::allocator<std::basic_string<char,std::char_traits<char>,std::allocator<char> > > > > > >::~map<std::basic_string<char,std::char_traits<char>,std::allocator<char> >,std::vector<std::basic_string<char,std::char_traits<char>,std::allocator<char> >,std::allocator<std::basic_string<char,std::char_traits<char>,std::allocator<char> > > >,std::less<std::basic_string<char,std::char_traits<char>,std::allocator<char> > >,std::allocator<std::pair<std::basic_string<char,std::char_traits<char>,std::allocator<char> > const ,std::vector<std::basic_string<char,std::char_traits<char>,std::allocator<char> >,std::allocator<std::basic_string<char,std::char_traits<char>,std::allocator<char> > > > > > >, COMDAT
; _this$ = ecx
  00000	55		 push	 ebp
  00001	8b ec		 mov	 ebp, esp
  00003	51		 push	 ecx
  00004	89 4d fc	 mov	 DWORD PTR _this$[ebp], ecx
  00007	8b 4d fc	 mov	 ecx, DWORD PTR _this$[ebp]
  0000a	e8 00 00 00 00	 call	 ??1?$_Tree@V?$_Tmap_traits@V?$basic_string@DU?$char_traits@D@std@@V?$allocator@D@2@@std@@V?$vector@V?$basic_string@DU?$char_traits@D@std@@V?$allocator@D@2@@std@@V?$allocator@V?$basic_string@DU?$char_traits@D@std@@V?$allocator@D@2@@std@@@2@@2@U?$less@V?$basic_string@DU?$char_traits@D@std@@V?$allocator@D@2@@std@@@2@V?$allocator@U?$pair@$$CBV?$basic_string@DU?$char_traits@D@std@@V?$allocator@D@2@@std@@V?$vector@V?$basic_string@DU?$char_traits@D@std@@V?$allocator@D@2@@std@@V?$allocator@V?$basic_string@DU?$char_traits@D@std@@V?$allocator@D@2@@std@@@2@@2@@std@@@2@$0A@@std@@@std@@QAE@XZ ; std::_Tree<std::_Tmap_traits<std::basic_string<char,std::char_traits<char>,std::allocator<char> >,std::vector<std::basic_string<char,std::char_traits<char>,std::allocator<char> >,std::allocator<std::basic_string<char,std::char_traits<char>,std::allocator<char> > > >,std::less<std::basic_string<char,std::char_traits<char>,std::allocator<char> > >,std::allocator<std::pair<std::basic_string<char,std::char_traits<char>,std::allocator<char> > const ,std::vector<std::basic_string<char,std::char_traits<char>,std::allocator<char> >,std::allocator<std::basic_string<char,std::char_traits<char>,std::allocator<char> > > > > >,0> >::~_Tree<std::_Tmap_traits<std::basic_string<char,std::char_traits<char>,std::allocator<char> >,std::vector<std::basic_string<char,std::char_traits<char>,std::allocator<char> >,std::allocator<std::basic_string<char,std::char_traits<char>,std::allocator<char> > > >,std::less<std::basic_string<char,std::char_traits<char>,std::allocator<char> > >,std::allocator<std::pair<std::basic_string<char,std::char_traits<char>,std::allocator<char> > const ,std::vector<std::basic_string<char,std::char_traits<char>,std::allocator<char> >,std::allocator<std::basic_string<char,std::char_traits<char>,std::allocator<char> > > > > >,0> >
  0000f	c9		 leave
  00010	c3		 ret	 0
??1?$map@V?$basic_string@DU?$char_traits@D@std@@V?$allocator@D@2@@std@@V?$vector@V?$basic_string@DU?$char_traits@D@std@@V?$allocator@D@2@@std@@V?$allocator@V?$basic_string@DU?$char_traits@D@std@@V?$allocator@D@2@@std@@@2@@2@U?$less@V?$basic_string@DU?$char_traits@D@std@@V?$allocator@D@2@@std@@@2@V?$allocator@U?$pair@$$CBV?$basic_string@DU?$char_traits@D@std@@V?$allocator@D@2@@std@@V?$vector@V?$basic_string@DU?$char_traits@D@std@@V?$allocator@D@2@@std@@V?$allocator@V?$basic_string@DU?$char_traits@D@std@@V?$allocator@D@2@@std@@@2@@2@@std@@@2@@std@@QAE@XZ ENDP ; std::map<std::basic_string<char,std::char_traits<char>,std::allocator<char> >,std::vector<std::basic_string<char,std::char_traits<char>,std::allocator<char> >,std::allocator<std::basic_string<char,std::char_traits<char>,std::allocator<char> > > >,std::less<std::basic_string<char,std::char_traits<char>,std::allocator<char> > >,std::allocator<std::pair<std::basic_string<char,std::char_traits<char>,std::allocator<char> > const ,std::vector<std::basic_string<char,std::char_traits<char>,std::allocator<char> >,std::allocator<std::basic_string<char,std::char_traits<char>,std::allocator<char> > > > > > >::~map<std::basic_string<char,std::char_traits<char>,std::allocator<char> >,std::vector<std::basic_string<char,std::char_traits<char>,std::allocator<char> >,std::allocator<std::basic_string<char,std::char_traits<char>,std::allocator<char> > > >,std::less<std::basic_string<char,std::char_traits<char>,std::allocator<char> > >,std::allocator<std::pair<std::basic_string<char,std::char_traits<char>,std::allocator<char> > const ,std::vector<std::basic_string<char,std::char_traits<char>,std::allocator<char> >,std::allocator<std::basic_string<char,std::char_traits<char>,std::allocator<char> > > > > > >
_TEXT	ENDS
; Function compile flags: /Odspy
; File C:\Program Files (x86)\Microsoft Visual Studio\2019\Community\VC\Tools\MSVC\14.28.29333\include\map
;	COMDAT ??0?$map@V?$basic_string@DU?$char_traits@D@std@@V?$allocator@D@2@@std@@V?$vector@V?$basic_string@DU?$char_traits@D@std@@V?$allocator@D@2@@std@@V?$allocator@V?$basic_string@DU?$char_traits@D@std@@V?$allocator@D@2@@std@@@2@@2@U?$less@V?$basic_string@DU?$char_traits@D@std@@V?$allocator@D@2@@std@@@2@V?$allocator@U?$pair@$$CBV?$basic_string@DU?$char_traits@D@std@@V?$allocator@D@2@@std@@V?$vector@V?$basic_string@DU?$char_traits@D@std@@V?$allocator@D@2@@std@@V?$allocator@V?$basic_string@DU?$char_traits@D@std@@V?$allocator@D@2@@std@@@2@@2@@std@@@2@@std@@QAE@XZ
_TEXT	SEGMENT
_this$ = -8						; size = 4
$T1 = -1						; size = 1
??0?$map@V?$basic_string@DU?$char_traits@D@std@@V?$allocator@D@2@@std@@V?$vector@V?$basic_string@DU?$char_traits@D@std@@V?$allocator@D@2@@std@@V?$allocator@V?$basic_string@DU?$char_traits@D@std@@V?$allocator@D@2@@std@@@2@@2@U?$less@V?$basic_string@DU?$char_traits@D@std@@V?$allocator@D@2@@std@@@2@V?$allocator@U?$pair@$$CBV?$basic_string@DU?$char_traits@D@std@@V?$allocator@D@2@@std@@V?$vector@V?$basic_string@DU?$char_traits@D@std@@V?$allocator@D@2@@std@@V?$allocator@V?$basic_string@DU?$char_traits@D@std@@V?$allocator@D@2@@std@@@2@@2@@std@@@2@@std@@QAE@XZ PROC ; std::map<std::basic_string<char,std::char_traits<char>,std::allocator<char> >,std::vector<std::basic_string<char,std::char_traits<char>,std::allocator<char> >,std::allocator<std::basic_string<char,std::char_traits<char>,std::allocator<char> > > >,std::less<std::basic_string<char,std::char_traits<char>,std::allocator<char> > >,std::allocator<std::pair<std::basic_string<char,std::char_traits<char>,std::allocator<char> > const ,std::vector<std::basic_string<char,std::char_traits<char>,std::allocator<char> >,std::allocator<std::basic_string<char,std::char_traits<char>,std::allocator<char> > > > > > >::map<std::basic_string<char,std::char_traits<char>,std::allocator<char> >,std::vector<std::basic_string<char,std::char_traits<char>,std::allocator<char> >,std::allocator<std::basic_string<char,std::char_traits<char>,std::allocator<char> > > >,std::less<std::basic_string<char,std::char_traits<char>,std::allocator<char> > >,std::allocator<std::pair<std::basic_string<char,std::char_traits<char>,std::allocator<char> > const ,std::vector<std::basic_string<char,std::char_traits<char>,std::allocator<char> >,std::allocator<std::basic_string<char,std::char_traits<char>,std::allocator<char> > > > > > >, COMDAT
; _this$ = ecx

; 107  :     map() : _Mybase(key_compare()) {}

  00000	55		 push	 ebp
  00001	8b ec		 mov	 ebp, esp
  00003	51		 push	 ecx
  00004	51		 push	 ecx
  00005	89 4d f8	 mov	 DWORD PTR _this$[ebp], ecx
  00008	8d 45 ff	 lea	 eax, DWORD PTR $T1[ebp]
  0000b	50		 push	 eax
  0000c	8b 4d f8	 mov	 ecx, DWORD PTR _this$[ebp]
  0000f	e8 00 00 00 00	 call	 ??0?$_Tree@V?$_Tmap_traits@V?$basic_string@DU?$char_traits@D@std@@V?$allocator@D@2@@std@@V?$vector@V?$basic_string@DU?$char_traits@D@std@@V?$allocator@D@2@@std@@V?$allocator@V?$basic_string@DU?$char_traits@D@std@@V?$allocator@D@2@@std@@@2@@2@U?$less@V?$basic_string@DU?$char_traits@D@std@@V?$allocator@D@2@@std@@@2@V?$allocator@U?$pair@$$CBV?$basic_string@DU?$char_traits@D@std@@V?$allocator@D@2@@std@@V?$vector@V?$basic_string@DU?$char_traits@D@std@@V?$allocator@D@2@@std@@V?$allocator@V?$basic_string@DU?$char_traits@D@std@@V?$allocator@D@2@@std@@@2@@2@@std@@@2@$0A@@std@@@std@@QAE@ABU?$less@V?$basic_string@DU?$char_traits@D@std@@V?$allocator@D@2@@std@@@1@@Z ; std::_Tree<std::_Tmap_traits<std::basic_string<char,std::char_traits<char>,std::allocator<char> >,std::vector<std::basic_string<char,std::char_traits<char>,std::allocator<char> >,std::allocator<std::basic_string<char,std::char_traits<char>,std::allocator<char> > > >,std::less<std::basic_string<char,std::char_traits<char>,std::allocator<char> > >,std::allocator<std::pair<std::basic_string<char,std::char_traits<char>,std::allocator<char> > const ,std::vector<std::basic_string<char,std::char_traits<char>,std::allocator<char> >,std::allocator<std::basic_string<char,std::char_traits<char>,std::allocator<char> > > > > >,0> >::_Tree<std::_Tmap_traits<std::basic_string<char,std::char_traits<char>,std::allocator<char> >,std::vector<std::basic_string<char,std::char_traits<char>,std::allocator<char> >,std::allocator<std::basic_string<char,std::char_traits<char>,std::allocator<char> > > >,std::less<std::basic_string<char,std::char_traits<char>,std::allocator<char> > >,std::allocator<std::pair<std::basic_string<char,std::char_traits<char>,std::allocator<char> > const ,std::vector<std::basic_string<char,std::char_traits<char>,std::allocator<char> >,std::allocator<std::basic_string<char,std::char_traits<char>,std::allocator<char> > > > > >,0> >
  00014	8b 45 f8	 mov	 eax, DWORD PTR _this$[ebp]
  00017	c9		 leave
  00018	c3		 ret	 0
??0?$map@V?$basic_string@DU?$char_traits@D@std@@V?$allocator@D@2@@std@@V?$vector@V?$basic_string@DU?$char_traits@D@std@@V?$allocator@D@2@@std@@V?$allocator@V?$basic_string@DU?$char_traits@D@std@@V?$allocator@D@2@@std@@@2@@2@U?$less@V?$basic_string@DU?$char_traits@D@std@@V?$allocator@D@2@@std@@@2@V?$allocator@U?$pair@$$CBV?$basic_string@DU?$char_traits@D@std@@V?$allocator@D@2@@std@@V?$vector@V?$basic_string@DU?$char_traits@D@std@@V?$allocator@D@2@@std@@V?$allocator@V?$basic_string@DU?$char_traits@D@std@@V?$allocator@D@2@@std@@@2@@2@@std@@@2@@std@@QAE@XZ ENDP ; std::map<std::basic_string<char,std::char_traits<char>,std::allocator<char> >,std::vector<std::basic_string<char,std::char_traits<char>,std::allocator<char> >,std::allocator<std::basic_string<char,std::char_traits<char>,std::allocator<char> > > >,std::less<std::basic_string<char,std::char_traits<char>,std::allocator<char> > >,std::allocator<std::pair<std::basic_string<char,std::char_traits<char>,std::allocator<char> > const ,std::vector<std::basic_string<char,std::char_traits<char>,std::allocator<char> >,std::allocator<std::basic_string<char,std::char_traits<char>,std::allocator<char> > > > > > >::map<std::basic_string<char,std::char_traits<char>,std::allocator<char> >,std::vector<std::basic_string<char,std::char_traits<char>,std::allocator<char> >,std::allocator<std::basic_string<char,std::char_traits<char>,std::allocator<char> > > >,std::less<std::basic_string<char,std::char_traits<char>,std::allocator<char> > >,std::allocator<std::pair<std::basic_string<char,std::char_traits<char>,std::allocator<char> > const ,std::vector<std::basic_string<char,std::char_traits<char>,std::allocator<char> >,std::allocator<std::basic_string<char,std::char_traits<char>,std::allocator<char> > > > > > >
_TEXT	ENDS
; Function compile flags: /Odspy
; File C:\Program Files (x86)\Microsoft Visual Studio\2019\Community\VC\Tools\MSVC\14.28.29333\include\xtree
;	COMDAT ?_Insert_node@?$_Tree_val@U?$_Tree_simple_types@U?$pair@$$CBV?$basic_string@DU?$char_traits@D@std@@V?$allocator@D@2@@std@@V?$vector@V?$basic_string@DU?$char_traits@D@std@@V?$allocator@D@2@@std@@V?$allocator@V?$basic_string@DU?$char_traits@D@std@@V?$allocator@D@2@@std@@@2@@2@@std@@@std@@@std@@QAEPAU?$_Tree_node@U?$pair@$$CBV?$basic_string@DU?$char_traits@D@std@@V?$allocator@D@2@@std@@V?$vector@V?$basic_string@DU?$char_traits@D@std@@V?$allocator@D@2@@std@@V?$allocator@V?$basic_string@DU?$char_traits@D@std@@V?$allocator@D@2@@std@@@2@@2@@std@@PAX@2@U?$_Tree_id@PAU?$_Tree_node@U?$pair@$$CBV?$basic_string@DU?$char_traits@D@std@@V?$allocator@D@2@@std@@V?$vector@V?$basic_string@DU?$char_traits@D@std@@V?$allocator@D@2@@std@@V?$allocator@V?$basic_string@DU?$char_traits@D@std@@V?$allocator@D@2@@std@@@2@@2@@std@@PAX@std@@@2@QAU32@@Z
_TEXT	SEGMENT
__Parent_sibling$1 = -20				; size = 4
__Parent_sibling$2 = -16				; size = 4
_this$ = -12						; size = 4
__Head$ = -8						; size = 4
__Pnode$3 = -4						; size = 4
__Loc$ = 8						; size = 8
__Newnode$ = 16						; size = 4
?_Insert_node@?$_Tree_val@U?$_Tree_simple_types@U?$pair@$$CBV?$basic_string@DU?$char_traits@D@std@@V?$allocator@D@2@@std@@V?$vector@V?$basic_string@DU?$char_traits@D@std@@V?$allocator@D@2@@std@@V?$allocator@V?$basic_string@DU?$char_traits@D@std@@V?$allocator@D@2@@std@@@2@@2@@std@@@std@@@std@@QAEPAU?$_Tree_node@U?$pair@$$CBV?$basic_string@DU?$char_traits@D@std@@V?$allocator@D@2@@std@@V?$vector@V?$basic_string@DU?$char_traits@D@std@@V?$allocator@D@2@@std@@V?$allocator@V?$basic_string@DU?$char_traits@D@std@@V?$allocator@D@2@@std@@@2@@2@@std@@PAX@2@U?$_Tree_id@PAU?$_Tree_node@U?$pair@$$CBV?$basic_string@DU?$char_traits@D@std@@V?$allocator@D@2@@std@@V?$vector@V?$basic_string@DU?$char_traits@D@std@@V?$allocator@D@2@@std@@V?$allocator@V?$basic_string@DU?$char_traits@D@std@@V?$allocator@D@2@@std@@@2@@2@@std@@PAX@std@@@2@QAU32@@Z PROC ; std::_Tree_val<std::_Tree_simple_types<std::pair<std::basic_string<char,std::char_traits<char>,std::allocator<char> > const ,std::vector<std::basic_string<char,std::char_traits<char>,std::allocator<char> >,std::allocator<std::basic_string<char,std::char_traits<char>,std::allocator<char> > > > > > >::_Insert_node, COMDAT
; _this$ = ecx

; 644  :     _Nodeptr _Insert_node(const _Tree_id<_Nodeptr> _Loc, const _Nodeptr _Newnode) noexcept {

  00000	55		 push	 ebp
  00001	8b ec		 mov	 ebp, esp
  00003	83 ec 14	 sub	 esp, 20			; 00000014H
  00006	89 4d f4	 mov	 DWORD PTR _this$[ebp], ecx

; 645  :         ++_Mysize;

  00009	8b 45 f4	 mov	 eax, DWORD PTR _this$[ebp]
  0000c	8b 40 04	 mov	 eax, DWORD PTR [eax+4]
  0000f	40		 inc	 eax
  00010	8b 4d f4	 mov	 ecx, DWORD PTR _this$[ebp]
  00013	89 41 04	 mov	 DWORD PTR [ecx+4], eax

; 646  :         const auto _Head  = _Myhead;

  00016	8b 45 f4	 mov	 eax, DWORD PTR _this$[ebp]
  00019	8b 00		 mov	 eax, DWORD PTR [eax]
  0001b	89 45 f8	 mov	 DWORD PTR __Head$[ebp], eax

; 647  :         _Newnode->_Parent = _Loc._Parent;

  0001e	8b 45 10	 mov	 eax, DWORD PTR __Newnode$[ebp]
  00021	8b 4d 08	 mov	 ecx, DWORD PTR __Loc$[ebp]
  00024	89 48 04	 mov	 DWORD PTR [eax+4], ecx

; 648  :         if (_Loc._Parent == _Head) { // first node in tree, just set head values

  00027	8b 45 08	 mov	 eax, DWORD PTR __Loc$[ebp]
  0002a	3b 45 f8	 cmp	 eax, DWORD PTR __Head$[ebp]
  0002d	75 29		 jne	 SHORT $LN5@Insert_nod

; 649  :             _Head->_Left     = _Newnode;

  0002f	8b 45 f8	 mov	 eax, DWORD PTR __Head$[ebp]
  00032	8b 4d 10	 mov	 ecx, DWORD PTR __Newnode$[ebp]
  00035	89 08		 mov	 DWORD PTR [eax], ecx

; 650  :             _Head->_Parent   = _Newnode;

  00037	8b 45 f8	 mov	 eax, DWORD PTR __Head$[ebp]
  0003a	8b 4d 10	 mov	 ecx, DWORD PTR __Newnode$[ebp]
  0003d	89 48 04	 mov	 DWORD PTR [eax+4], ecx

; 651  :             _Head->_Right    = _Newnode;

  00040	8b 45 f8	 mov	 eax, DWORD PTR __Head$[ebp]
  00043	8b 4d 10	 mov	 ecx, DWORD PTR __Newnode$[ebp]
  00046	89 48 08	 mov	 DWORD PTR [eax+8], ecx

; 652  :             _Newnode->_Color = _Black; // the root is black

  00049	8b 45 10	 mov	 eax, DWORD PTR __Newnode$[ebp]
  0004c	c6 40 0c 01	 mov	 BYTE PTR [eax+12], 1

; 653  :             return _Newnode;

  00050	8b 45 10	 mov	 eax, DWORD PTR __Newnode$[ebp]
  00053	e9 a3 01 00 00	 jmp	 $LN18@Insert_nod
$LN5@Insert_nod:

; 654  :         }
; 655  : 
; 656  :         _STL_INTERNAL_CHECK(_Loc._Child != _Tree_child::_Unused);
; 657  :         if (_Loc._Child == _Tree_child::_Right) { // add to right of _Loc._Parent

  00058	83 7d 0c 00	 cmp	 DWORD PTR __Loc$[ebp+4], 0
  0005c	75 1f		 jne	 SHORT $LN6@Insert_nod

; 658  :             _STL_INTERNAL_CHECK(_Loc._Parent->_Right->_Isnil);
; 659  :             _Loc._Parent->_Right = _Newnode;

  0005e	8b 45 08	 mov	 eax, DWORD PTR __Loc$[ebp]
  00061	8b 4d 10	 mov	 ecx, DWORD PTR __Newnode$[ebp]
  00064	89 48 08	 mov	 DWORD PTR [eax+8], ecx

; 660  :             if (_Loc._Parent == _Head->_Right) { // remember rightmost node

  00067	8b 45 f8	 mov	 eax, DWORD PTR __Head$[ebp]
  0006a	8b 4d 08	 mov	 ecx, DWORD PTR __Loc$[ebp]
  0006d	3b 48 08	 cmp	 ecx, DWORD PTR [eax+8]
  00070	75 09		 jne	 SHORT $LN8@Insert_nod

; 661  :                 _Head->_Right = _Newnode;

  00072	8b 45 f8	 mov	 eax, DWORD PTR __Head$[ebp]
  00075	8b 4d 10	 mov	 ecx, DWORD PTR __Newnode$[ebp]
  00078	89 48 08	 mov	 DWORD PTR [eax+8], ecx
$LN8@Insert_nod:

; 662  :             }
; 663  :         } else { // add to left of _Loc._Parent

  0007b	eb 1a		 jmp	 SHORT $LN7@Insert_nod
$LN6@Insert_nod:

; 664  :             _STL_INTERNAL_CHECK(_Loc._Parent->_Left->_Isnil);
; 665  :             _Loc._Parent->_Left = _Newnode;

  0007d	8b 45 08	 mov	 eax, DWORD PTR __Loc$[ebp]
  00080	8b 4d 10	 mov	 ecx, DWORD PTR __Newnode$[ebp]
  00083	89 08		 mov	 DWORD PTR [eax], ecx

; 666  :             if (_Loc._Parent == _Head->_Left) { // remember leftmost node

  00085	8b 45 f8	 mov	 eax, DWORD PTR __Head$[ebp]
  00088	8b 4d 08	 mov	 ecx, DWORD PTR __Loc$[ebp]
  0008b	3b 08		 cmp	 ecx, DWORD PTR [eax]
  0008d	75 08		 jne	 SHORT $LN7@Insert_nod

; 667  :                 _Head->_Left = _Newnode;

  0008f	8b 45 f8	 mov	 eax, DWORD PTR __Head$[ebp]
  00092	8b 4d 10	 mov	 ecx, DWORD PTR __Newnode$[ebp]
  00095	89 08		 mov	 DWORD PTR [eax], ecx
$LN7@Insert_nod:

; 668  :             }
; 669  :         }
; 670  : 
; 671  :         for (_Nodeptr _Pnode = _Newnode; _Pnode->_Parent->_Color == _Red;) {

  00097	8b 45 10	 mov	 eax, DWORD PTR __Newnode$[ebp]
  0009a	89 45 fc	 mov	 DWORD PTR __Pnode$3[ebp], eax
$LN4@Insert_nod:
  0009d	8b 45 fc	 mov	 eax, DWORD PTR __Pnode$3[ebp]
  000a0	8b 40 04	 mov	 eax, DWORD PTR [eax+4]
  000a3	0f be 40 0c	 movsx	 eax, BYTE PTR [eax+12]
  000a7	85 c0		 test	 eax, eax
  000a9	0f 85 3f 01 00
	00		 jne	 $LN3@Insert_nod

; 672  :             if (_Pnode->_Parent == _Pnode->_Parent->_Parent->_Left) { // fixup red-red in left subtree

  000af	8b 45 fc	 mov	 eax, DWORD PTR __Pnode$3[ebp]
  000b2	8b 40 04	 mov	 eax, DWORD PTR [eax+4]
  000b5	8b 40 04	 mov	 eax, DWORD PTR [eax+4]
  000b8	8b 4d fc	 mov	 ecx, DWORD PTR __Pnode$3[ebp]
  000bb	8b 49 04	 mov	 ecx, DWORD PTR [ecx+4]
  000be	3b 08		 cmp	 ecx, DWORD PTR [eax]
  000c0	0f 85 95 00 00
	00		 jne	 $LN10@Insert_nod

; 673  :                 const auto _Parent_sibling = _Pnode->_Parent->_Parent->_Right;

  000c6	8b 45 fc	 mov	 eax, DWORD PTR __Pnode$3[ebp]
  000c9	8b 40 04	 mov	 eax, DWORD PTR [eax+4]
  000cc	8b 40 04	 mov	 eax, DWORD PTR [eax+4]
  000cf	8b 40 08	 mov	 eax, DWORD PTR [eax+8]
  000d2	89 45 f0	 mov	 DWORD PTR __Parent_sibling$2[ebp], eax

; 674  :                 if (_Parent_sibling->_Color == _Red) { // parent's sibling has two red children, blacken both

  000d5	8b 45 f0	 mov	 eax, DWORD PTR __Parent_sibling$2[ebp]
  000d8	0f be 40 0c	 movsx	 eax, BYTE PTR [eax+12]
  000dc	85 c0		 test	 eax, eax
  000de	75 2c		 jne	 SHORT $LN12@Insert_nod

; 675  :                     _Pnode->_Parent->_Color          = _Black;

  000e0	8b 45 fc	 mov	 eax, DWORD PTR __Pnode$3[ebp]
  000e3	8b 40 04	 mov	 eax, DWORD PTR [eax+4]
  000e6	c6 40 0c 01	 mov	 BYTE PTR [eax+12], 1

; 676  :                     _Parent_sibling->_Color          = _Black;

  000ea	8b 45 f0	 mov	 eax, DWORD PTR __Parent_sibling$2[ebp]
  000ed	c6 40 0c 01	 mov	 BYTE PTR [eax+12], 1

; 677  :                     _Pnode->_Parent->_Parent->_Color = _Red;

  000f1	8b 45 fc	 mov	 eax, DWORD PTR __Pnode$3[ebp]
  000f4	8b 40 04	 mov	 eax, DWORD PTR [eax+4]
  000f7	8b 40 04	 mov	 eax, DWORD PTR [eax+4]
  000fa	c6 40 0c 00	 mov	 BYTE PTR [eax+12], 0

; 678  :                     _Pnode                           = _Pnode->_Parent->_Parent;

  000fe	8b 45 fc	 mov	 eax, DWORD PTR __Pnode$3[ebp]
  00101	8b 40 04	 mov	 eax, DWORD PTR [eax+4]
  00104	8b 40 04	 mov	 eax, DWORD PTR [eax+4]
  00107	89 45 fc	 mov	 DWORD PTR __Pnode$3[ebp], eax

; 679  :                 } else { // parent's sibling has red and black children

  0010a	eb 4a		 jmp	 SHORT $LN13@Insert_nod
$LN12@Insert_nod:

; 680  :                     if (_Pnode == _Pnode->_Parent->_Right) { // rotate right child to left

  0010c	8b 45 fc	 mov	 eax, DWORD PTR __Pnode$3[ebp]
  0010f	8b 40 04	 mov	 eax, DWORD PTR [eax+4]
  00112	8b 4d fc	 mov	 ecx, DWORD PTR __Pnode$3[ebp]
  00115	3b 48 08	 cmp	 ecx, DWORD PTR [eax+8]
  00118	75 14		 jne	 SHORT $LN14@Insert_nod

; 681  :                         _Pnode = _Pnode->_Parent;

  0011a	8b 45 fc	 mov	 eax, DWORD PTR __Pnode$3[ebp]
  0011d	8b 40 04	 mov	 eax, DWORD PTR [eax+4]
  00120	89 45 fc	 mov	 DWORD PTR __Pnode$3[ebp], eax

; 682  :                         _Lrotate(_Pnode);

  00123	ff 75 fc	 push	 DWORD PTR __Pnode$3[ebp]
  00126	8b 4d f4	 mov	 ecx, DWORD PTR _this$[ebp]
  00129	e8 00 00 00 00	 call	 ?_Lrotate@?$_Tree_val@U?$_Tree_simple_types@U?$pair@$$CBV?$basic_string@DU?$char_traits@D@std@@V?$allocator@D@2@@std@@V?$vector@V?$basic_string@DU?$char_traits@D@std@@V?$allocator@D@2@@std@@V?$allocator@V?$basic_string@DU?$char_traits@D@std@@V?$allocator@D@2@@std@@@2@@2@@std@@@std@@@std@@QAEXPAU?$_Tree_node@U?$pair@$$CBV?$basic_string@DU?$char_traits@D@std@@V?$allocator@D@2@@std@@V?$vector@V?$basic_string@DU?$char_traits@D@std@@V?$allocator@D@2@@std@@V?$allocator@V?$basic_string@DU?$char_traits@D@std@@V?$allocator@D@2@@std@@@2@@2@@std@@PAX@2@@Z ; std::_Tree_val<std::_Tree_simple_types<std::pair<std::basic_string<char,std::char_traits<char>,std::allocator<char> > const ,std::vector<std::basic_string<char,std::char_traits<char>,std::allocator<char> >,std::allocator<std::basic_string<char,std::char_traits<char>,std::allocator<char> > > > > > >::_Lrotate
$LN14@Insert_nod:

; 683  :                     }
; 684  : 
; 685  :                     _Pnode->_Parent->_Color          = _Black; // propagate red up

  0012e	8b 45 fc	 mov	 eax, DWORD PTR __Pnode$3[ebp]
  00131	8b 40 04	 mov	 eax, DWORD PTR [eax+4]
  00134	c6 40 0c 01	 mov	 BYTE PTR [eax+12], 1

; 686  :                     _Pnode->_Parent->_Parent->_Color = _Red;

  00138	8b 45 fc	 mov	 eax, DWORD PTR __Pnode$3[ebp]
  0013b	8b 40 04	 mov	 eax, DWORD PTR [eax+4]
  0013e	8b 40 04	 mov	 eax, DWORD PTR [eax+4]
  00141	c6 40 0c 00	 mov	 BYTE PTR [eax+12], 0

; 687  :                     _Rrotate(_Pnode->_Parent->_Parent);

  00145	8b 45 fc	 mov	 eax, DWORD PTR __Pnode$3[ebp]
  00148	8b 40 04	 mov	 eax, DWORD PTR [eax+4]
  0014b	ff 70 04	 push	 DWORD PTR [eax+4]
  0014e	8b 4d f4	 mov	 ecx, DWORD PTR _this$[ebp]
  00151	e8 00 00 00 00	 call	 ?_Rrotate@?$_Tree_val@U?$_Tree_simple_types@U?$pair@$$CBV?$basic_string@DU?$char_traits@D@std@@V?$allocator@D@2@@std@@V?$vector@V?$basic_string@DU?$char_traits@D@std@@V?$allocator@D@2@@std@@V?$allocator@V?$basic_string@DU?$char_traits@D@std@@V?$allocator@D@2@@std@@@2@@2@@std@@@std@@@std@@QAEXPAU?$_Tree_node@U?$pair@$$CBV?$basic_string@DU?$char_traits@D@std@@V?$allocator@D@2@@std@@V?$vector@V?$basic_string@DU?$char_traits@D@std@@V?$allocator@D@2@@std@@V?$allocator@V?$basic_string@DU?$char_traits@D@std@@V?$allocator@D@2@@std@@@2@@2@@std@@PAX@2@@Z ; std::_Tree_val<std::_Tree_simple_types<std::pair<std::basic_string<char,std::char_traits<char>,std::allocator<char> > const ,std::vector<std::basic_string<char,std::char_traits<char>,std::allocator<char> >,std::allocator<std::basic_string<char,std::char_traits<char>,std::allocator<char> > > > > > >::_Rrotate
$LN13@Insert_nod:

; 688  :                 }
; 689  :             } else { // fixup red-red in right subtree

  00156	e9 8e 00 00 00	 jmp	 $LN11@Insert_nod
$LN10@Insert_nod:

; 690  :                 const auto _Parent_sibling = _Pnode->_Parent->_Parent->_Left;

  0015b	8b 45 fc	 mov	 eax, DWORD PTR __Pnode$3[ebp]
  0015e	8b 40 04	 mov	 eax, DWORD PTR [eax+4]
  00161	8b 40 04	 mov	 eax, DWORD PTR [eax+4]
  00164	8b 00		 mov	 eax, DWORD PTR [eax]
  00166	89 45 ec	 mov	 DWORD PTR __Parent_sibling$1[ebp], eax

; 691  :                 if (_Parent_sibling->_Color == _Red) { // parent's sibling has two red children, blacken both

  00169	8b 45 ec	 mov	 eax, DWORD PTR __Parent_sibling$1[ebp]
  0016c	0f be 40 0c	 movsx	 eax, BYTE PTR [eax+12]
  00170	85 c0		 test	 eax, eax
  00172	75 2c		 jne	 SHORT $LN15@Insert_nod

; 692  :                     _Pnode->_Parent->_Color          = _Black;

  00174	8b 45 fc	 mov	 eax, DWORD PTR __Pnode$3[ebp]
  00177	8b 40 04	 mov	 eax, DWORD PTR [eax+4]
  0017a	c6 40 0c 01	 mov	 BYTE PTR [eax+12], 1

; 693  :                     _Parent_sibling->_Color          = _Black;

  0017e	8b 45 ec	 mov	 eax, DWORD PTR __Parent_sibling$1[ebp]
  00181	c6 40 0c 01	 mov	 BYTE PTR [eax+12], 1

; 694  :                     _Pnode->_Parent->_Parent->_Color = _Red;

  00185	8b 45 fc	 mov	 eax, DWORD PTR __Pnode$3[ebp]
  00188	8b 40 04	 mov	 eax, DWORD PTR [eax+4]
  0018b	8b 40 04	 mov	 eax, DWORD PTR [eax+4]
  0018e	c6 40 0c 00	 mov	 BYTE PTR [eax+12], 0

; 695  :                     _Pnode                           = _Pnode->_Parent->_Parent;

  00192	8b 45 fc	 mov	 eax, DWORD PTR __Pnode$3[ebp]
  00195	8b 40 04	 mov	 eax, DWORD PTR [eax+4]
  00198	8b 40 04	 mov	 eax, DWORD PTR [eax+4]
  0019b	89 45 fc	 mov	 DWORD PTR __Pnode$3[ebp], eax

; 696  :                 } else { // parent's sibling has red and black children

  0019e	eb 49		 jmp	 SHORT $LN11@Insert_nod
$LN15@Insert_nod:

; 697  :                     if (_Pnode == _Pnode->_Parent->_Left) { // rotate left child to right

  001a0	8b 45 fc	 mov	 eax, DWORD PTR __Pnode$3[ebp]
  001a3	8b 40 04	 mov	 eax, DWORD PTR [eax+4]
  001a6	8b 4d fc	 mov	 ecx, DWORD PTR __Pnode$3[ebp]
  001a9	3b 08		 cmp	 ecx, DWORD PTR [eax]
  001ab	75 14		 jne	 SHORT $LN17@Insert_nod

; 698  :                         _Pnode = _Pnode->_Parent;

  001ad	8b 45 fc	 mov	 eax, DWORD PTR __Pnode$3[ebp]
  001b0	8b 40 04	 mov	 eax, DWORD PTR [eax+4]
  001b3	89 45 fc	 mov	 DWORD PTR __Pnode$3[ebp], eax

; 699  :                         _Rrotate(_Pnode);

  001b6	ff 75 fc	 push	 DWORD PTR __Pnode$3[ebp]
  001b9	8b 4d f4	 mov	 ecx, DWORD PTR _this$[ebp]
  001bc	e8 00 00 00 00	 call	 ?_Rrotate@?$_Tree_val@U?$_Tree_simple_types@U?$pair@$$CBV?$basic_string@DU?$char_traits@D@std@@V?$allocator@D@2@@std@@V?$vector@V?$basic_string@DU?$char_traits@D@std@@V?$allocator@D@2@@std@@V?$allocator@V?$basic_string@DU?$char_traits@D@std@@V?$allocator@D@2@@std@@@2@@2@@std@@@std@@@std@@QAEXPAU?$_Tree_node@U?$pair@$$CBV?$basic_string@DU?$char_traits@D@std@@V?$allocator@D@2@@std@@V?$vector@V?$basic_string@DU?$char_traits@D@std@@V?$allocator@D@2@@std@@V?$allocator@V?$basic_string@DU?$char_traits@D@std@@V?$allocator@D@2@@std@@@2@@2@@std@@PAX@2@@Z ; std::_Tree_val<std::_Tree_simple_types<std::pair<std::basic_string<char,std::char_traits<char>,std::allocator<char> > const ,std::vector<std::basic_string<char,std::char_traits<char>,std::allocator<char> >,std::allocator<std::basic_string<char,std::char_traits<char>,std::allocator<char> > > > > > >::_Rrotate
$LN17@Insert_nod:

; 700  :                     }
; 701  : 
; 702  :                     _Pnode->_Parent->_Color          = _Black; // propagate red up

  001c1	8b 45 fc	 mov	 eax, DWORD PTR __Pnode$3[ebp]
  001c4	8b 40 04	 mov	 eax, DWORD PTR [eax+4]
  001c7	c6 40 0c 01	 mov	 BYTE PTR [eax+12], 1

; 703  :                     _Pnode->_Parent->_Parent->_Color = _Red;

  001cb	8b 45 fc	 mov	 eax, DWORD PTR __Pnode$3[ebp]
  001ce	8b 40 04	 mov	 eax, DWORD PTR [eax+4]
  001d1	8b 40 04	 mov	 eax, DWORD PTR [eax+4]
  001d4	c6 40 0c 00	 mov	 BYTE PTR [eax+12], 0

; 704  :                     _Lrotate(_Pnode->_Parent->_Parent);

  001d8	8b 45 fc	 mov	 eax, DWORD PTR __Pnode$3[ebp]
  001db	8b 40 04	 mov	 eax, DWORD PTR [eax+4]
  001de	ff 70 04	 push	 DWORD PTR [eax+4]
  001e1	8b 4d f4	 mov	 ecx, DWORD PTR _this$[ebp]
  001e4	e8 00 00 00 00	 call	 ?_Lrotate@?$_Tree_val@U?$_Tree_simple_types@U?$pair@$$CBV?$basic_string@DU?$char_traits@D@std@@V?$allocator@D@2@@std@@V?$vector@V?$basic_string@DU?$char_traits@D@std@@V?$allocator@D@2@@std@@V?$allocator@V?$basic_string@DU?$char_traits@D@std@@V?$allocator@D@2@@std@@@2@@2@@std@@@std@@@std@@QAEXPAU?$_Tree_node@U?$pair@$$CBV?$basic_string@DU?$char_traits@D@std@@V?$allocator@D@2@@std@@V?$vector@V?$basic_string@DU?$char_traits@D@std@@V?$allocator@D@2@@std@@V?$allocator@V?$basic_string@DU?$char_traits@D@std@@V?$allocator@D@2@@std@@@2@@2@@std@@PAX@2@@Z ; std::_Tree_val<std::_Tree_simple_types<std::pair<std::basic_string<char,std::char_traits<char>,std::allocator<char> > const ,std::vector<std::basic_string<char,std::char_traits<char>,std::allocator<char> >,std::allocator<std::basic_string<char,std::char_traits<char>,std::allocator<char> > > > > > >::_Lrotate
$LN11@Insert_nod:

; 705  :                 }
; 706  :             }
; 707  :         }

  001e9	e9 af fe ff ff	 jmp	 $LN4@Insert_nod
$LN3@Insert_nod:

; 708  : 
; 709  :         _Head->_Parent->_Color = _Black; // root is always black

  001ee	8b 45 f8	 mov	 eax, DWORD PTR __Head$[ebp]
  001f1	8b 40 04	 mov	 eax, DWORD PTR [eax+4]
  001f4	c6 40 0c 01	 mov	 BYTE PTR [eax+12], 1

; 710  :         return _Newnode;

  001f8	8b 45 10	 mov	 eax, DWORD PTR __Newnode$[ebp]
$LN18@Insert_nod:

; 711  :     }

  001fb	c9		 leave
  001fc	c2 0c 00	 ret	 12			; 0000000cH
?_Insert_node@?$_Tree_val@U?$_Tree_simple_types@U?$pair@$$CBV?$basic_string@DU?$char_traits@D@std@@V?$allocator@D@2@@std@@V?$vector@V?$basic_string@DU?$char_traits@D@std@@V?$allocator@D@2@@std@@V?$allocator@V?$basic_string@DU?$char_traits@D@std@@V?$allocator@D@2@@std@@@2@@2@@std@@@std@@@std@@QAEPAU?$_Tree_node@U?$pair@$$CBV?$basic_string@DU?$char_traits@D@std@@V?$allocator@D@2@@std@@V?$vector@V?$basic_string@DU?$char_traits@D@std@@V?$allocator@D@2@@std@@V?$allocator@V?$basic_string@DU?$char_traits@D@std@@V?$allocator@D@2@@std@@@2@@2@@std@@PAX@2@U?$_Tree_id@PAU?$_Tree_node@U?$pair@$$CBV?$basic_string@DU?$char_traits@D@std@@V?$allocator@D@2@@std@@V?$vector@V?$basic_string@DU?$char_traits@D@std@@V?$allocator@D@2@@std@@V?$allocator@V?$basic_string@DU?$char_traits@D@std@@V?$allocator@D@2@@std@@@2@@2@@std@@PAX@std@@@2@QAU32@@Z ENDP ; std::_Tree_val<std::_Tree_simple_types<std::pair<std::basic_string<char,std::char_traits<char>,std::allocator<char> > const ,std::vector<std::basic_string<char,std::char_traits<char>,std::allocator<char> >,std::allocator<std::basic_string<char,std::char_traits<char>,std::allocator<char> > > > > > >::_Insert_node
_TEXT	ENDS
; Function compile flags: /Odspy
; File C:\Program Files (x86)\Microsoft Visual Studio\2019\Community\VC\Tools\MSVC\14.28.29333\include\xtree
;	COMDAT ?_Rrotate@?$_Tree_val@U?$_Tree_simple_types@U?$pair@$$CBV?$basic_string@DU?$char_traits@D@std@@V?$allocator@D@2@@std@@V?$vector@V?$basic_string@DU?$char_traits@D@std@@V?$allocator@D@2@@std@@V?$allocator@V?$basic_string@DU?$char_traits@D@std@@V?$allocator@D@2@@std@@@2@@2@@std@@@std@@@std@@QAEXPAU?$_Tree_node@U?$pair@$$CBV?$basic_string@DU?$char_traits@D@std@@V?$allocator@D@2@@std@@V?$vector@V?$basic_string@DU?$char_traits@D@std@@V?$allocator@D@2@@std@@V?$allocator@V?$basic_string@DU?$char_traits@D@std@@V?$allocator@D@2@@std@@@2@@2@@std@@PAX@2@@Z
_TEXT	SEGMENT
_this$ = -8						; size = 4
__Pnode$ = -4						; size = 4
__Wherenode$ = 8					; size = 4
?_Rrotate@?$_Tree_val@U?$_Tree_simple_types@U?$pair@$$CBV?$basic_string@DU?$char_traits@D@std@@V?$allocator@D@2@@std@@V?$vector@V?$basic_string@DU?$char_traits@D@std@@V?$allocator@D@2@@std@@V?$allocator@V?$basic_string@DU?$char_traits@D@std@@V?$allocator@D@2@@std@@@2@@2@@std@@@std@@@std@@QAEXPAU?$_Tree_node@U?$pair@$$CBV?$basic_string@DU?$char_traits@D@std@@V?$allocator@D@2@@std@@V?$vector@V?$basic_string@DU?$char_traits@D@std@@V?$allocator@D@2@@std@@V?$allocator@V?$basic_string@DU?$char_traits@D@std@@V?$allocator@D@2@@std@@@2@@2@@std@@PAX@2@@Z PROC ; std::_Tree_val<std::_Tree_simple_types<std::pair<std::basic_string<char,std::char_traits<char>,std::allocator<char> > const ,std::vector<std::basic_string<char,std::char_traits<char>,std::allocator<char> >,std::allocator<std::basic_string<char,std::char_traits<char>,std::allocator<char> > > > > > >::_Rrotate, COMDAT
; _this$ = ecx

; 480  :     void _Rrotate(_Nodeptr _Wherenode) noexcept { // promote left node to root of subtree

  00000	55		 push	 ebp
  00001	8b ec		 mov	 ebp, esp
  00003	51		 push	 ecx
  00004	51		 push	 ecx
  00005	89 4d f8	 mov	 DWORD PTR _this$[ebp], ecx

; 481  :         _Nodeptr _Pnode   = _Wherenode->_Left;

  00008	8b 45 08	 mov	 eax, DWORD PTR __Wherenode$[ebp]
  0000b	8b 00		 mov	 eax, DWORD PTR [eax]
  0000d	89 45 fc	 mov	 DWORD PTR __Pnode$[ebp], eax

; 482  :         _Wherenode->_Left = _Pnode->_Right;

  00010	8b 45 08	 mov	 eax, DWORD PTR __Wherenode$[ebp]
  00013	8b 4d fc	 mov	 ecx, DWORD PTR __Pnode$[ebp]
  00016	8b 49 08	 mov	 ecx, DWORD PTR [ecx+8]
  00019	89 08		 mov	 DWORD PTR [eax], ecx

; 483  : 
; 484  :         if (!_Pnode->_Right->_Isnil) {

  0001b	8b 45 fc	 mov	 eax, DWORD PTR __Pnode$[ebp]
  0001e	8b 40 08	 mov	 eax, DWORD PTR [eax+8]
  00021	0f be 40 0d	 movsx	 eax, BYTE PTR [eax+13]
  00025	85 c0		 test	 eax, eax
  00027	75 0c		 jne	 SHORT $LN2@Rrotate

; 485  :             _Pnode->_Right->_Parent = _Wherenode;

  00029	8b 45 fc	 mov	 eax, DWORD PTR __Pnode$[ebp]
  0002c	8b 40 08	 mov	 eax, DWORD PTR [eax+8]
  0002f	8b 4d 08	 mov	 ecx, DWORD PTR __Wherenode$[ebp]
  00032	89 48 04	 mov	 DWORD PTR [eax+4], ecx
$LN2@Rrotate:

; 486  :         }
; 487  : 
; 488  :         _Pnode->_Parent = _Wherenode->_Parent;

  00035	8b 45 fc	 mov	 eax, DWORD PTR __Pnode$[ebp]
  00038	8b 4d 08	 mov	 ecx, DWORD PTR __Wherenode$[ebp]
  0003b	8b 49 04	 mov	 ecx, DWORD PTR [ecx+4]
  0003e	89 48 04	 mov	 DWORD PTR [eax+4], ecx

; 489  : 
; 490  :         if (_Wherenode == _Myhead->_Parent) {

  00041	8b 45 f8	 mov	 eax, DWORD PTR _this$[ebp]
  00044	8b 00		 mov	 eax, DWORD PTR [eax]
  00046	8b 4d 08	 mov	 ecx, DWORD PTR __Wherenode$[ebp]
  00049	3b 48 04	 cmp	 ecx, DWORD PTR [eax+4]
  0004c	75 0d		 jne	 SHORT $LN3@Rrotate

; 491  :             _Myhead->_Parent = _Pnode;

  0004e	8b 45 f8	 mov	 eax, DWORD PTR _this$[ebp]
  00051	8b 00		 mov	 eax, DWORD PTR [eax]
  00053	8b 4d fc	 mov	 ecx, DWORD PTR __Pnode$[ebp]
  00056	89 48 04	 mov	 DWORD PTR [eax+4], ecx
  00059	eb 27		 jmp	 SHORT $LN4@Rrotate
$LN3@Rrotate:

; 492  :         } else if (_Wherenode == _Wherenode->_Parent->_Right) {

  0005b	8b 45 08	 mov	 eax, DWORD PTR __Wherenode$[ebp]
  0005e	8b 40 04	 mov	 eax, DWORD PTR [eax+4]
  00061	8b 4d 08	 mov	 ecx, DWORD PTR __Wherenode$[ebp]
  00064	3b 48 08	 cmp	 ecx, DWORD PTR [eax+8]
  00067	75 0e		 jne	 SHORT $LN5@Rrotate

; 493  :             _Wherenode->_Parent->_Right = _Pnode;

  00069	8b 45 08	 mov	 eax, DWORD PTR __Wherenode$[ebp]
  0006c	8b 40 04	 mov	 eax, DWORD PTR [eax+4]
  0006f	8b 4d fc	 mov	 ecx, DWORD PTR __Pnode$[ebp]
  00072	89 48 08	 mov	 DWORD PTR [eax+8], ecx

; 494  :         } else {

  00075	eb 0b		 jmp	 SHORT $LN4@Rrotate
$LN5@Rrotate:

; 495  :             _Wherenode->_Parent->_Left = _Pnode;

  00077	8b 45 08	 mov	 eax, DWORD PTR __Wherenode$[ebp]
  0007a	8b 40 04	 mov	 eax, DWORD PTR [eax+4]
  0007d	8b 4d fc	 mov	 ecx, DWORD PTR __Pnode$[ebp]
  00080	89 08		 mov	 DWORD PTR [eax], ecx
$LN4@Rrotate:

; 496  :         }
; 497  : 
; 498  :         _Pnode->_Right      = _Wherenode;

  00082	8b 45 fc	 mov	 eax, DWORD PTR __Pnode$[ebp]
  00085	8b 4d 08	 mov	 ecx, DWORD PTR __Wherenode$[ebp]
  00088	89 48 08	 mov	 DWORD PTR [eax+8], ecx

; 499  :         _Wherenode->_Parent = _Pnode;

  0008b	8b 45 08	 mov	 eax, DWORD PTR __Wherenode$[ebp]
  0008e	8b 4d fc	 mov	 ecx, DWORD PTR __Pnode$[ebp]
  00091	89 48 04	 mov	 DWORD PTR [eax+4], ecx

; 500  :     }

  00094	c9		 leave
  00095	c2 04 00	 ret	 4
?_Rrotate@?$_Tree_val@U?$_Tree_simple_types@U?$pair@$$CBV?$basic_string@DU?$char_traits@D@std@@V?$allocator@D@2@@std@@V?$vector@V?$basic_string@DU?$char_traits@D@std@@V?$allocator@D@2@@std@@V?$allocator@V?$basic_string@DU?$char_traits@D@std@@V?$allocator@D@2@@std@@@2@@2@@std@@@std@@@std@@QAEXPAU?$_Tree_node@U?$pair@$$CBV?$basic_string@DU?$char_traits@D@std@@V?$allocator@D@2@@std@@V?$vector@V?$basic_string@DU?$char_traits@D@std@@V?$allocator@D@2@@std@@V?$allocator@V?$basic_string@DU?$char_traits@D@std@@V?$allocator@D@2@@std@@@2@@2@@std@@PAX@2@@Z ENDP ; std::_Tree_val<std::_Tree_simple_types<std::pair<std::basic_string<char,std::char_traits<char>,std::allocator<char> > const ,std::vector<std::basic_string<char,std::char_traits<char>,std::allocator<char> >,std::allocator<std::basic_string<char,std::char_traits<char>,std::allocator<char> > > > > > >::_Rrotate
_TEXT	ENDS
; Function compile flags: /Odspy
; File C:\Program Files (x86)\Microsoft Visual Studio\2019\Community\VC\Tools\MSVC\14.28.29333\include\xtree
;	COMDAT ?_Lrotate@?$_Tree_val@U?$_Tree_simple_types@U?$pair@$$CBV?$basic_string@DU?$char_traits@D@std@@V?$allocator@D@2@@std@@V?$vector@V?$basic_string@DU?$char_traits@D@std@@V?$allocator@D@2@@std@@V?$allocator@V?$basic_string@DU?$char_traits@D@std@@V?$allocator@D@2@@std@@@2@@2@@std@@@std@@@std@@QAEXPAU?$_Tree_node@U?$pair@$$CBV?$basic_string@DU?$char_traits@D@std@@V?$allocator@D@2@@std@@V?$vector@V?$basic_string@DU?$char_traits@D@std@@V?$allocator@D@2@@std@@V?$allocator@V?$basic_string@DU?$char_traits@D@std@@V?$allocator@D@2@@std@@@2@@2@@std@@PAX@2@@Z
_TEXT	SEGMENT
_this$ = -8						; size = 4
__Pnode$ = -4						; size = 4
__Wherenode$ = 8					; size = 4
?_Lrotate@?$_Tree_val@U?$_Tree_simple_types@U?$pair@$$CBV?$basic_string@DU?$char_traits@D@std@@V?$allocator@D@2@@std@@V?$vector@V?$basic_string@DU?$char_traits@D@std@@V?$allocator@D@2@@std@@V?$allocator@V?$basic_string@DU?$char_traits@D@std@@V?$allocator@D@2@@std@@@2@@2@@std@@@std@@@std@@QAEXPAU?$_Tree_node@U?$pair@$$CBV?$basic_string@DU?$char_traits@D@std@@V?$allocator@D@2@@std@@V?$vector@V?$basic_string@DU?$char_traits@D@std@@V?$allocator@D@2@@std@@V?$allocator@V?$basic_string@DU?$char_traits@D@std@@V?$allocator@D@2@@std@@@2@@2@@std@@PAX@2@@Z PROC ; std::_Tree_val<std::_Tree_simple_types<std::pair<std::basic_string<char,std::char_traits<char>,std::allocator<char> > const ,std::vector<std::basic_string<char,std::char_traits<char>,std::allocator<char> >,std::allocator<std::basic_string<char,std::char_traits<char>,std::allocator<char> > > > > > >::_Lrotate, COMDAT
; _this$ = ecx

; 458  :     void _Lrotate(_Nodeptr _Wherenode) noexcept { // promote right node to root of subtree

  00000	55		 push	 ebp
  00001	8b ec		 mov	 ebp, esp
  00003	51		 push	 ecx
  00004	51		 push	 ecx
  00005	89 4d f8	 mov	 DWORD PTR _this$[ebp], ecx

; 459  :         _Nodeptr _Pnode    = _Wherenode->_Right;

  00008	8b 45 08	 mov	 eax, DWORD PTR __Wherenode$[ebp]
  0000b	8b 40 08	 mov	 eax, DWORD PTR [eax+8]
  0000e	89 45 fc	 mov	 DWORD PTR __Pnode$[ebp], eax

; 460  :         _Wherenode->_Right = _Pnode->_Left;

  00011	8b 45 08	 mov	 eax, DWORD PTR __Wherenode$[ebp]
  00014	8b 4d fc	 mov	 ecx, DWORD PTR __Pnode$[ebp]
  00017	8b 09		 mov	 ecx, DWORD PTR [ecx]
  00019	89 48 08	 mov	 DWORD PTR [eax+8], ecx

; 461  : 
; 462  :         if (!_Pnode->_Left->_Isnil) {

  0001c	8b 45 fc	 mov	 eax, DWORD PTR __Pnode$[ebp]
  0001f	8b 00		 mov	 eax, DWORD PTR [eax]
  00021	0f be 40 0d	 movsx	 eax, BYTE PTR [eax+13]
  00025	85 c0		 test	 eax, eax
  00027	75 0b		 jne	 SHORT $LN2@Lrotate

; 463  :             _Pnode->_Left->_Parent = _Wherenode;

  00029	8b 45 fc	 mov	 eax, DWORD PTR __Pnode$[ebp]
  0002c	8b 00		 mov	 eax, DWORD PTR [eax]
  0002e	8b 4d 08	 mov	 ecx, DWORD PTR __Wherenode$[ebp]
  00031	89 48 04	 mov	 DWORD PTR [eax+4], ecx
$LN2@Lrotate:

; 464  :         }
; 465  : 
; 466  :         _Pnode->_Parent = _Wherenode->_Parent;

  00034	8b 45 fc	 mov	 eax, DWORD PTR __Pnode$[ebp]
  00037	8b 4d 08	 mov	 ecx, DWORD PTR __Wherenode$[ebp]
  0003a	8b 49 04	 mov	 ecx, DWORD PTR [ecx+4]
  0003d	89 48 04	 mov	 DWORD PTR [eax+4], ecx

; 467  : 
; 468  :         if (_Wherenode == _Myhead->_Parent) {

  00040	8b 45 f8	 mov	 eax, DWORD PTR _this$[ebp]
  00043	8b 00		 mov	 eax, DWORD PTR [eax]
  00045	8b 4d 08	 mov	 ecx, DWORD PTR __Wherenode$[ebp]
  00048	3b 48 04	 cmp	 ecx, DWORD PTR [eax+4]
  0004b	75 0d		 jne	 SHORT $LN3@Lrotate

; 469  :             _Myhead->_Parent = _Pnode;

  0004d	8b 45 f8	 mov	 eax, DWORD PTR _this$[ebp]
  00050	8b 00		 mov	 eax, DWORD PTR [eax]
  00052	8b 4d fc	 mov	 ecx, DWORD PTR __Pnode$[ebp]
  00055	89 48 04	 mov	 DWORD PTR [eax+4], ecx
  00058	eb 26		 jmp	 SHORT $LN4@Lrotate
$LN3@Lrotate:

; 470  :         } else if (_Wherenode == _Wherenode->_Parent->_Left) {

  0005a	8b 45 08	 mov	 eax, DWORD PTR __Wherenode$[ebp]
  0005d	8b 40 04	 mov	 eax, DWORD PTR [eax+4]
  00060	8b 4d 08	 mov	 ecx, DWORD PTR __Wherenode$[ebp]
  00063	3b 08		 cmp	 ecx, DWORD PTR [eax]
  00065	75 0d		 jne	 SHORT $LN5@Lrotate

; 471  :             _Wherenode->_Parent->_Left = _Pnode;

  00067	8b 45 08	 mov	 eax, DWORD PTR __Wherenode$[ebp]
  0006a	8b 40 04	 mov	 eax, DWORD PTR [eax+4]
  0006d	8b 4d fc	 mov	 ecx, DWORD PTR __Pnode$[ebp]
  00070	89 08		 mov	 DWORD PTR [eax], ecx

; 472  :         } else {

  00072	eb 0c		 jmp	 SHORT $LN4@Lrotate
$LN5@Lrotate:

; 473  :             _Wherenode->_Parent->_Right = _Pnode;

  00074	8b 45 08	 mov	 eax, DWORD PTR __Wherenode$[ebp]
  00077	8b 40 04	 mov	 eax, DWORD PTR [eax+4]
  0007a	8b 4d fc	 mov	 ecx, DWORD PTR __Pnode$[ebp]
  0007d	89 48 08	 mov	 DWORD PTR [eax+8], ecx
$LN4@Lrotate:

; 474  :         }
; 475  : 
; 476  :         _Pnode->_Left       = _Wherenode;

  00080	8b 45 fc	 mov	 eax, DWORD PTR __Pnode$[ebp]
  00083	8b 4d 08	 mov	 ecx, DWORD PTR __Wherenode$[ebp]
  00086	89 08		 mov	 DWORD PTR [eax], ecx

; 477  :         _Wherenode->_Parent = _Pnode;

  00088	8b 45 08	 mov	 eax, DWORD PTR __Wherenode$[ebp]
  0008b	8b 4d fc	 mov	 ecx, DWORD PTR __Pnode$[ebp]
  0008e	89 48 04	 mov	 DWORD PTR [eax+4], ecx

; 478  :     }

  00091	c9		 leave
  00092	c2 04 00	 ret	 4
?_Lrotate@?$_Tree_val@U?$_Tree_simple_types@U?$pair@$$CBV?$basic_string@DU?$char_traits@D@std@@V?$allocator@D@2@@std@@V?$vector@V?$basic_string@DU?$char_traits@D@std@@V?$allocator@D@2@@std@@V?$allocator@V?$basic_string@DU?$char_traits@D@std@@V?$allocator@D@2@@std@@@2@@2@@std@@@std@@@std@@QAEXPAU?$_Tree_node@U?$pair@$$CBV?$basic_string@DU?$char_traits@D@std@@V?$allocator@D@2@@std@@V?$vector@V?$basic_string@DU?$char_traits@D@std@@V?$allocator@D@2@@std@@V?$allocator@V?$basic_string@DU?$char_traits@D@std@@V?$allocator@D@2@@std@@@2@@2@@std@@PAX@2@@Z ENDP ; std::_Tree_val<std::_Tree_simple_types<std::pair<std::basic_string<char,std::char_traits<char>,std::allocator<char> > const ,std::vector<std::basic_string<char,std::char_traits<char>,std::allocator<char> >,std::allocator<std::basic_string<char,std::char_traits<char>,std::allocator<char> > > > > > >::_Lrotate
_TEXT	ENDS
; Function compile flags: /Odspy
; File C:\Program Files (x86)\Microsoft Visual Studio\2019\Community\VC\Tools\MSVC\14.28.29333\include\xtree
; File C:\Program Files (x86)\Microsoft Visual Studio\2019\Community\VC\Tools\MSVC\14.28.29333\include\xstddef
; File C:\Program Files (x86)\Microsoft Visual Studio\2019\Community\VC\Tools\MSVC\14.28.29333\include\xtree
; File C:\Program Files (x86)\Microsoft Visual Studio\2019\Community\VC\Tools\MSVC\14.28.29333\include\xmemory
; File C:\Program Files (x86)\Microsoft Visual Studio\2019\Community\VC\Tools\MSVC\14.28.29333\include\xtree
;	COMDAT ?_Alloc_sentinel_and_proxy@?$_Tree@V?$_Tmap_traits@V?$basic_string@DU?$char_traits@D@std@@V?$allocator@D@2@@std@@V?$vector@V?$basic_string@DU?$char_traits@D@std@@V?$allocator@D@2@@std@@V?$allocator@V?$basic_string@DU?$char_traits@D@std@@V?$allocator@D@2@@std@@@2@@2@U?$less@V?$basic_string@DU?$char_traits@D@std@@V?$allocator@D@2@@std@@@2@V?$allocator@U?$pair@$$CBV?$basic_string@DU?$char_traits@D@std@@V?$allocator@D@2@@std@@V?$vector@V?$basic_string@DU?$char_traits@D@std@@V?$allocator@D@2@@std@@V?$allocator@V?$basic_string@DU?$char_traits@D@std@@V?$allocator@D@2@@std@@@2@@2@@std@@@2@$0A@@std@@@std@@IAEXXZ
_TEXT	SEGMENT
__Alproxy$ = -28					; size = 4
__Scary$ = -24						; size = 4
$T1 = -20						; size = 4
$T2 = -16						; size = 4
$T3 = -12						; size = 4
_this$ = -8						; size = 4
_$S12$ = -1						; size = 1
?_Alloc_sentinel_and_proxy@?$_Tree@V?$_Tmap_traits@V?$basic_string@DU?$char_traits@D@std@@V?$allocator@D@2@@std@@V?$vector@V?$basic_string@DU?$char_traits@D@std@@V?$allocator@D@2@@std@@V?$allocator@V?$basic_string@DU?$char_traits@D@std@@V?$allocator@D@2@@std@@@2@@2@U?$less@V?$basic_string@DU?$char_traits@D@std@@V?$allocator@D@2@@std@@@2@V?$allocator@U?$pair@$$CBV?$basic_string@DU?$char_traits@D@std@@V?$allocator@D@2@@std@@V?$vector@V?$basic_string@DU?$char_traits@D@std@@V?$allocator@D@2@@std@@V?$allocator@V?$basic_string@DU?$char_traits@D@std@@V?$allocator@D@2@@std@@@2@@2@@std@@@2@$0A@@std@@@std@@IAEXXZ PROC ; std::_Tree<std::_Tmap_traits<std::basic_string<char,std::char_traits<char>,std::allocator<char> >,std::vector<std::basic_string<char,std::char_traits<char>,std::allocator<char> >,std::allocator<std::basic_string<char,std::char_traits<char>,std::allocator<char> > > >,std::less<std::basic_string<char,std::char_traits<char>,std::allocator<char> > >,std::allocator<std::pair<std::basic_string<char,std::char_traits<char>,std::allocator<char> > const ,std::vector<std::basic_string<char,std::char_traits<char>,std::allocator<char> >,std::allocator<std::basic_string<char,std::char_traits<char>,std::allocator<char> > > > > >,0> >::_Alloc_sentinel_and_proxy, COMDAT
; _this$ = ecx

; 2017 :     void _Alloc_sentinel_and_proxy() {

  00000	55		 push	 ebp
  00001	8b ec		 mov	 ebp, esp
  00003	83 ec 1c	 sub	 esp, 28			; 0000001cH
  00006	89 4d f8	 mov	 DWORD PTR _this$[ebp], ecx

; 2047 :         return _STD addressof(_Mypair._Myval2._Myval2);

  00009	8b 45 f8	 mov	 eax, DWORD PTR _this$[ebp]
; File C:\Program Files (x86)\Microsoft Visual Studio\2019\Community\VC\Tools\MSVC\14.28.29333\include\xstddef

; 275  :     return __builtin_addressof(_Val);

  0000c	89 45 f4	 mov	 DWORD PTR $T3[ebp], eax
; File C:\Program Files (x86)\Microsoft Visual Studio\2019\Community\VC\Tools\MSVC\14.28.29333\include\xtree

; 2047 :         return _STD addressof(_Mypair._Myval2._Myval2);

  0000f	8b 45 f4	 mov	 eax, DWORD PTR $T3[ebp]
  00012	89 45 e8	 mov	 DWORD PTR __Scary$[ebp], eax

; 2018 :         const auto _Scary = _Get_scary();
; 2019 :         auto&& _Alproxy   = _GET_PROXY_ALLOCATOR(_Alnode, _Getal());

  00015	8d 45 ff	 lea	 eax, DWORD PTR _$S12$[ebp]
  00018	89 45 e4	 mov	 DWORD PTR __Alproxy$[ebp], eax

; 2039 :         return _Mypair._Myval2._Get_first();

  0001b	8b 45 f8	 mov	 eax, DWORD PTR _this$[ebp]
; File C:\Program Files (x86)\Microsoft Visual Studio\2019\Community\VC\Tools\MSVC\14.28.29333\include\xmemory

; 1347 :         return *this;

  0001e	89 45 f0	 mov	 DWORD PTR $T2[ebp], eax
; File C:\Program Files (x86)\Microsoft Visual Studio\2019\Community\VC\Tools\MSVC\14.28.29333\include\xtree

; 2039 :         return _Mypair._Myval2._Get_first();

  00021	8b 45 f0	 mov	 eax, DWORD PTR $T2[ebp]
  00024	89 45 ec	 mov	 DWORD PTR $T1[ebp], eax

; 2020 :         _Container_proxy_ptr<_Alnode> _Proxy(_Alproxy, *_Scary);
; 2021 :         _Scary->_Myhead = _Node::_Buyheadnode(_Getal());

  00027	ff 75 ec	 push	 DWORD PTR $T1[ebp]
  0002a	e8 00 00 00 00	 call	 ??$_Buyheadnode@V?$allocator@U?$_Tree_node@U?$pair@$$CBV?$basic_string@DU?$char_traits@D@std@@V?$allocator@D@2@@std@@V?$vector@V?$basic_string@DU?$char_traits@D@std@@V?$allocator@D@2@@std@@V?$allocator@V?$basic_string@DU?$char_traits@D@std@@V?$allocator@D@2@@std@@@2@@2@@std@@PAX@std@@@std@@@?$_Tree_node@U?$pair@$$CBV?$basic_string@DU?$char_traits@D@std@@V?$allocator@D@2@@std@@V?$vector@V?$basic_string@DU?$char_traits@D@std@@V?$allocator@D@2@@std@@V?$allocator@V?$basic_string@DU?$char_traits@D@std@@V?$allocator@D@2@@std@@@2@@2@@std@@PAX@std@@SAPAU01@AAV?$allocator@U?$_Tree_node@U?$pair@$$CBV?$basic_string@DU?$char_traits@D@std@@V?$allocator@D@2@@std@@V?$vector@V?$basic_string@DU?$char_traits@D@std@@V?$allocator@D@2@@std@@V?$allocator@V?$basic_string@DU?$char_traits@D@std@@V?$allocator@D@2@@std@@@2@@2@@std@@PAX@std@@@1@@Z ; std::_Tree_node<std::pair<std::basic_string<char,std::char_traits<char>,std::allocator<char> > const ,std::vector<std::basic_string<char,std::char_traits<char>,std::allocator<char> >,std::allocator<std::basic_string<char,std::char_traits<char>,std::allocator<char> > > > >,void *>::_Buyheadnode<std::allocator<std::_Tree_node<std::pair<std::basic_string<char,std::char_traits<char>,std::allocator<char> > const ,std::vector<std::basic_string<char,std::char_traits<char>,std::allocator<char> >,std::allocator<std::basic_string<char,std::char_traits<char>,std::allocator<char> > > > >,void *> > >
  0002f	59		 pop	 ecx
  00030	8b 4d e8	 mov	 ecx, DWORD PTR __Scary$[ebp]
  00033	89 01		 mov	 DWORD PTR [ecx], eax

; 2022 :         _Proxy._Release();
; 2023 :     }

  00035	c9		 leave
  00036	c3		 ret	 0
?_Alloc_sentinel_and_proxy@?$_Tree@V?$_Tmap_traits@V?$basic_string@DU?$char_traits@D@std@@V?$allocator@D@2@@std@@V?$vector@V?$basic_string@DU?$char_traits@D@std@@V?$allocator@D@2@@std@@V?$allocator@V?$basic_string@DU?$char_traits@D@std@@V?$allocator@D@2@@std@@@2@@2@U?$less@V?$basic_string@DU?$char_traits@D@std@@V?$allocator@D@2@@std@@@2@V?$allocator@U?$pair@$$CBV?$basic_string@DU?$char_traits@D@std@@V?$allocator@D@2@@std@@V?$vector@V?$basic_string@DU?$char_traits@D@std@@V?$allocator@D@2@@std@@V?$allocator@V?$basic_string@DU?$char_traits@D@std@@V?$allocator@D@2@@std@@@2@@2@@std@@@2@$0A@@std@@@std@@IAEXXZ ENDP ; std::_Tree<std::_Tmap_traits<std::basic_string<char,std::char_traits<char>,std::allocator<char> >,std::vector<std::basic_string<char,std::char_traits<char>,std::allocator<char> >,std::allocator<std::basic_string<char,std::char_traits<char>,std::allocator<char> > > >,std::less<std::basic_string<char,std::char_traits<char>,std::allocator<char> > >,std::allocator<std::pair<std::basic_string<char,std::char_traits<char>,std::allocator<char> > const ,std::vector<std::basic_string<char,std::char_traits<char>,std::allocator<char> >,std::allocator<std::basic_string<char,std::char_traits<char>,std::allocator<char> > > > > >,0> >::_Alloc_sentinel_and_proxy
_TEXT	ENDS
; Function compile flags: /Odspy
; File C:\Program Files (x86)\Microsoft Visual Studio\2019\Community\VC\Tools\MSVC\14.28.29333\include\xtree
; File C:\Program Files (x86)\Microsoft Visual Studio\2019\Community\VC\Tools\MSVC\14.28.29333\include\xstddef
; File C:\Program Files (x86)\Microsoft Visual Studio\2019\Community\VC\Tools\MSVC\14.28.29333\include\xtree
;	COMDAT ?_Check_grow_by_1@?$_Tree@V?$_Tmap_traits@V?$basic_string@DU?$char_traits@D@std@@V?$allocator@D@2@@std@@V?$vector@V?$basic_string@DU?$char_traits@D@std@@V?$allocator@D@2@@std@@V?$allocator@V?$basic_string@DU?$char_traits@D@std@@V?$allocator@D@2@@std@@@2@@2@U?$less@V?$basic_string@DU?$char_traits@D@std@@V?$allocator@D@2@@std@@@2@V?$allocator@U?$pair@$$CBV?$basic_string@DU?$char_traits@D@std@@V?$allocator@D@2@@std@@V?$vector@V?$basic_string@DU?$char_traits@D@std@@V?$allocator@D@2@@std@@V?$allocator@V?$basic_string@DU?$char_traits@D@std@@V?$allocator@D@2@@std@@@2@@2@@std@@@2@$0A@@std@@@std@@IAEXXZ
_TEXT	SEGMENT
$T1 = -12						; size = 4
$T2 = -8						; size = 4
_this$ = -4						; size = 4
?_Check_grow_by_1@?$_Tree@V?$_Tmap_traits@V?$basic_string@DU?$char_traits@D@std@@V?$allocator@D@2@@std@@V?$vector@V?$basic_string@DU?$char_traits@D@std@@V?$allocator@D@2@@std@@V?$allocator@V?$basic_string@DU?$char_traits@D@std@@V?$allocator@D@2@@std@@@2@@2@U?$less@V?$basic_string@DU?$char_traits@D@std@@V?$allocator@D@2@@std@@@2@V?$allocator@U?$pair@$$CBV?$basic_string@DU?$char_traits@D@std@@V?$allocator@D@2@@std@@V?$vector@V?$basic_string@DU?$char_traits@D@std@@V?$allocator@D@2@@std@@V?$allocator@V?$basic_string@DU?$char_traits@D@std@@V?$allocator@D@2@@std@@@2@@2@@std@@@2@$0A@@std@@@std@@IAEXXZ PROC ; std::_Tree<std::_Tmap_traits<std::basic_string<char,std::char_traits<char>,std::allocator<char> >,std::vector<std::basic_string<char,std::char_traits<char>,std::allocator<char> >,std::allocator<std::basic_string<char,std::char_traits<char>,std::allocator<char> > > >,std::less<std::basic_string<char,std::char_traits<char>,std::allocator<char> > >,std::allocator<std::pair<std::basic_string<char,std::char_traits<char>,std::allocator<char> > const ,std::vector<std::basic_string<char,std::char_traits<char>,std::allocator<char> >,std::allocator<std::basic_string<char,std::char_traits<char>,std::allocator<char> > > > > >,0> >::_Check_grow_by_1, COMDAT
; _this$ = ecx

; 1718 :     void _Check_grow_by_1() {

  00000	55		 push	 ebp
  00001	8b ec		 mov	 ebp, esp
  00003	83 ec 0c	 sub	 esp, 12			; 0000000cH
  00006	89 4d fc	 mov	 DWORD PTR _this$[ebp], ecx

; 2047 :         return _STD addressof(_Mypair._Myval2._Myval2);

  00009	8b 45 fc	 mov	 eax, DWORD PTR _this$[ebp]
; File C:\Program Files (x86)\Microsoft Visual Studio\2019\Community\VC\Tools\MSVC\14.28.29333\include\xstddef

; 275  :     return __builtin_addressof(_Val);

  0000c	89 45 f8	 mov	 DWORD PTR $T2[ebp], eax
; File C:\Program Files (x86)\Microsoft Visual Studio\2019\Community\VC\Tools\MSVC\14.28.29333\include\xtree

; 2047 :         return _STD addressof(_Mypair._Myval2._Myval2);

  0000f	8b 45 f8	 mov	 eax, DWORD PTR $T2[ebp]
  00012	89 45 f4	 mov	 DWORD PTR $T1[ebp], eax

; 1719 :         if (max_size() == _Get_scary()->_Mysize) {

  00015	8b 4d fc	 mov	 ecx, DWORD PTR _this$[ebp]
  00018	e8 00 00 00 00	 call	 ?max_size@?$_Tree@V?$_Tmap_traits@V?$basic_string@DU?$char_traits@D@std@@V?$allocator@D@2@@std@@V?$vector@V?$basic_string@DU?$char_traits@D@std@@V?$allocator@D@2@@std@@V?$allocator@V?$basic_string@DU?$char_traits@D@std@@V?$allocator@D@2@@std@@@2@@2@U?$less@V?$basic_string@DU?$char_traits@D@std@@V?$allocator@D@2@@std@@@2@V?$allocator@U?$pair@$$CBV?$basic_string@DU?$char_traits@D@std@@V?$allocator@D@2@@std@@V?$vector@V?$basic_string@DU?$char_traits@D@std@@V?$allocator@D@2@@std@@V?$allocator@V?$basic_string@DU?$char_traits@D@std@@V?$allocator@D@2@@std@@@2@@2@@std@@@2@$0A@@std@@@std@@QBEIXZ ; std::_Tree<std::_Tmap_traits<std::basic_string<char,std::char_traits<char>,std::allocator<char> >,std::vector<std::basic_string<char,std::char_traits<char>,std::allocator<char> >,std::allocator<std::basic_string<char,std::char_traits<char>,std::allocator<char> > > >,std::less<std::basic_string<char,std::char_traits<char>,std::allocator<char> > >,std::allocator<std::pair<std::basic_string<char,std::char_traits<char>,std::allocator<char> > const ,std::vector<std::basic_string<char,std::char_traits<char>,std::allocator<char> >,std::allocator<std::basic_string<char,std::char_traits<char>,std::allocator<char> > > > > >,0> >::max_size
  0001d	8b 4d f4	 mov	 ecx, DWORD PTR $T1[ebp]
  00020	3b 41 04	 cmp	 eax, DWORD PTR [ecx+4]
  00023	75 05		 jne	 SHORT $LN3@Check_grow

; 1720 :             _Throw_tree_length_error();

  00025	e8 00 00 00 00	 call	 ?_Throw_tree_length_error@std@@YAXXZ ; std::_Throw_tree_length_error
$LN3@Check_grow:

; 1721 :         }
; 1722 :     }

  0002a	c9		 leave
  0002b	c3		 ret	 0
?_Check_grow_by_1@?$_Tree@V?$_Tmap_traits@V?$basic_string@DU?$char_traits@D@std@@V?$allocator@D@2@@std@@V?$vector@V?$basic_string@DU?$char_traits@D@std@@V?$allocator@D@2@@std@@V?$allocator@V?$basic_string@DU?$char_traits@D@std@@V?$allocator@D@2@@std@@@2@@2@U?$less@V?$basic_string@DU?$char_traits@D@std@@V?$allocator@D@2@@std@@@2@V?$allocator@U?$pair@$$CBV?$basic_string@DU?$char_traits@D@std@@V?$allocator@D@2@@std@@V?$vector@V?$basic_string@DU?$char_traits@D@std@@V?$allocator@D@2@@std@@V?$allocator@V?$basic_string@DU?$char_traits@D@std@@V?$allocator@D@2@@std@@@2@@2@@std@@@2@$0A@@std@@@std@@IAEXXZ ENDP ; std::_Tree<std::_Tmap_traits<std::basic_string<char,std::char_traits<char>,std::allocator<char> >,std::vector<std::basic_string<char,std::char_traits<char>,std::allocator<char> >,std::allocator<std::basic_string<char,std::char_traits<char>,std::allocator<char> > > >,std::less<std::basic_string<char,std::char_traits<char>,std::allocator<char> > >,std::allocator<std::pair<std::basic_string<char,std::char_traits<char>,std::allocator<char> > const ,std::vector<std::basic_string<char,std::char_traits<char>,std::allocator<char> >,std::allocator<std::basic_string<char,std::char_traits<char>,std::allocator<char> > > > > >,0> >::_Check_grow_by_1
_TEXT	ENDS
; Function compile flags: /Odspy
; File C:\Program Files (x86)\Microsoft Visual Studio\2019\Community\VC\Tools\MSVC\14.28.29333\include\xtree
; File C:\Program Files (x86)\Microsoft Visual Studio\2019\Community\VC\Tools\MSVC\14.28.29333\include\xstddef
; File C:\Program Files (x86)\Microsoft Visual Studio\2019\Community\VC\Tools\MSVC\14.28.29333\include\xtree
;	COMDAT ?find@?$_Tree@V?$_Tmap_traits@V?$basic_string@DU?$char_traits@D@std@@V?$allocator@D@2@@std@@V?$vector@V?$basic_string@DU?$char_traits@D@std@@V?$allocator@D@2@@std@@V?$allocator@V?$basic_string@DU?$char_traits@D@std@@V?$allocator@D@2@@std@@@2@@2@U?$less@V?$basic_string@DU?$char_traits@D@std@@V?$allocator@D@2@@std@@@2@V?$allocator@U?$pair@$$CBV?$basic_string@DU?$char_traits@D@std@@V?$allocator@D@2@@std@@V?$vector@V?$basic_string@DU?$char_traits@D@std@@V?$allocator@D@2@@std@@V?$allocator@V?$basic_string@DU?$char_traits@D@std@@V?$allocator@D@2@@std@@@2@@2@@std@@@2@$0A@@std@@@std@@QAE?AV?$_Tree_iterator@V?$_Tree_val@U?$_Tree_simple_types@U?$pair@$$CBV?$basic_string@DU?$char_traits@D@std@@V?$allocator@D@2@@std@@V?$vector@V?$basic_string@DU?$char_traits@D@std@@V?$allocator@D@2@@std@@V?$allocator@V?$basic_string@DU?$char_traits@D@std@@V?$allocator@D@2@@std@@@2@@2@@std@@@std@@@std@@@2@ABV?$basic_string@DU?$char_traits@D@std@@V?$allocator@D@2@@2@@Z
_TEXT	SEGMENT
$T1 = -16						; size = 4
___param0$ = -12					; size = 4
$T2 = -8						; size = 4
_this$ = -4						; size = 4
___$ReturnUdt$ = 8					; size = 4
__Keyval$ = 12						; size = 4
?find@?$_Tree@V?$_Tmap_traits@V?$basic_string@DU?$char_traits@D@std@@V?$allocator@D@2@@std@@V?$vector@V?$basic_string@DU?$char_traits@D@std@@V?$allocator@D@2@@std@@V?$allocator@V?$basic_string@DU?$char_traits@D@std@@V?$allocator@D@2@@std@@@2@@2@U?$less@V?$basic_string@DU?$char_traits@D@std@@V?$allocator@D@2@@std@@@2@V?$allocator@U?$pair@$$CBV?$basic_string@DU?$char_traits@D@std@@V?$allocator@D@2@@std@@V?$vector@V?$basic_string@DU?$char_traits@D@std@@V?$allocator@D@2@@std@@V?$allocator@V?$basic_string@DU?$char_traits@D@std@@V?$allocator@D@2@@std@@@2@@2@@std@@@2@$0A@@std@@@std@@QAE?AV?$_Tree_iterator@V?$_Tree_val@U?$_Tree_simple_types@U?$pair@$$CBV?$basic_string@DU?$char_traits@D@std@@V?$allocator@D@2@@std@@V?$vector@V?$basic_string@DU?$char_traits@D@std@@V?$allocator@D@2@@std@@V?$allocator@V?$basic_string@DU?$char_traits@D@std@@V?$allocator@D@2@@std@@@2@@2@@std@@@std@@@std@@@2@ABV?$basic_string@DU?$char_traits@D@std@@V?$allocator@D@2@@2@@Z PROC ; std::_Tree<std::_Tmap_traits<std::basic_string<char,std::char_traits<char>,std::allocator<char> >,std::vector<std::basic_string<char,std::char_traits<char>,std::allocator<char> >,std::allocator<std::basic_string<char,std::char_traits<char>,std::allocator<char> > > >,std::less<std::basic_string<char,std::char_traits<char>,std::allocator<char> > >,std::allocator<std::pair<std::basic_string<char,std::char_traits<char>,std::allocator<char> > const ,std::vector<std::basic_string<char,std::char_traits<char>,std::allocator<char> >,std::allocator<std::basic_string<char,std::char_traits<char>,std::allocator<char> > > > > >,0> >::find, COMDAT
; _this$ = ecx

; 1467 :     _NODISCARD iterator find(const key_type& _Keyval) {

  00000	55		 push	 ebp
  00001	8b ec		 mov	 ebp, esp
  00003	83 ec 10	 sub	 esp, 16			; 00000010H
  00006	89 4d fc	 mov	 DWORD PTR _this$[ebp], ecx

; 2047 :         return _STD addressof(_Mypair._Myval2._Myval2);

  00009	8b 45 fc	 mov	 eax, DWORD PTR _this$[ebp]
; File C:\Program Files (x86)\Microsoft Visual Studio\2019\Community\VC\Tools\MSVC\14.28.29333\include\xstddef

; 275  :     return __builtin_addressof(_Val);

  0000c	89 45 f8	 mov	 DWORD PTR $T2[ebp], eax
; File C:\Program Files (x86)\Microsoft Visual Studio\2019\Community\VC\Tools\MSVC\14.28.29333\include\xtree

; 2047 :         return _STD addressof(_Mypair._Myval2._Myval2);

  0000f	8b 45 f8	 mov	 eax, DWORD PTR $T2[ebp]
  00012	89 45 f0	 mov	 DWORD PTR $T1[ebp], eax

; 1468 :         return iterator(_Find(_Keyval), _Get_scary());

  00015	ff 75 0c	 push	 DWORD PTR __Keyval$[ebp]
  00018	8b 4d fc	 mov	 ecx, DWORD PTR _this$[ebp]
  0001b	e8 00 00 00 00	 call	 ??$_Find@V?$basic_string@DU?$char_traits@D@std@@V?$allocator@D@2@@std@@@?$_Tree@V?$_Tmap_traits@V?$basic_string@DU?$char_traits@D@std@@V?$allocator@D@2@@std@@V?$vector@V?$basic_string@DU?$char_traits@D@std@@V?$allocator@D@2@@std@@V?$allocator@V?$basic_string@DU?$char_traits@D@std@@V?$allocator@D@2@@std@@@2@@2@U?$less@V?$basic_string@DU?$char_traits@D@std@@V?$allocator@D@2@@std@@@2@V?$allocator@U?$pair@$$CBV?$basic_string@DU?$char_traits@D@std@@V?$allocator@D@2@@std@@V?$vector@V?$basic_string@DU?$char_traits@D@std@@V?$allocator@D@2@@std@@V?$allocator@V?$basic_string@DU?$char_traits@D@std@@V?$allocator@D@2@@std@@@2@@2@@std@@@2@$0A@@std@@@std@@ABEPAU?$_Tree_node@U?$pair@$$CBV?$basic_string@DU?$char_traits@D@std@@V?$allocator@D@2@@std@@V?$vector@V?$basic_string@DU?$char_traits@D@std@@V?$allocator@D@2@@std@@V?$allocator@V?$basic_string@DU?$char_traits@D@std@@V?$allocator@D@2@@std@@@2@@2@@std@@PAX@1@ABV?$basic_string@DU?$char_traits@D@std@@V?$allocator@D@2@@1@@Z ; std::_Tree<std::_Tmap_traits<std::basic_string<char,std::char_traits<char>,std::allocator<char> >,std::vector<std::basic_string<char,std::char_traits<char>,std::allocator<char> >,std::allocator<std::basic_string<char,std::char_traits<char>,std::allocator<char> > > >,std::less<std::basic_string<char,std::char_traits<char>,std::allocator<char> > >,std::allocator<std::pair<std::basic_string<char,std::char_traits<char>,std::allocator<char> > const ,std::vector<std::basic_string<char,std::char_traits<char>,std::allocator<char> >,std::allocator<std::basic_string<char,std::char_traits<char>,std::allocator<char> > > > > >,0> >::_Find<std::basic_string<char,std::char_traits<char>,std::allocator<char> > >
  00020	89 45 f4	 mov	 DWORD PTR ___param0$[ebp], eax

; 39   :     _Tree_unchecked_const_iterator(_Nodeptr _Pnode, const _Mytree* _Plist) noexcept : _Ptr(_Pnode) {

  00023	8b 45 08	 mov	 eax, DWORD PTR ___$ReturnUdt$[ebp]
  00026	8b 4d f4	 mov	 ecx, DWORD PTR ___param0$[ebp]
  00029	89 08		 mov	 DWORD PTR [eax], ecx

; 1468 :         return iterator(_Find(_Keyval), _Get_scary());

  0002b	8b 45 08	 mov	 eax, DWORD PTR ___$ReturnUdt$[ebp]

; 1469 :     }

  0002e	c9		 leave
  0002f	c2 08 00	 ret	 8
?find@?$_Tree@V?$_Tmap_traits@V?$basic_string@DU?$char_traits@D@std@@V?$allocator@D@2@@std@@V?$vector@V?$basic_string@DU?$char_traits@D@std@@V?$allocator@D@2@@std@@V?$allocator@V?$basic_string@DU?$char_traits@D@std@@V?$allocator@D@2@@std@@@2@@2@U?$less@V?$basic_string@DU?$char_traits@D@std@@V?$allocator@D@2@@std@@@2@V?$allocator@U?$pair@$$CBV?$basic_string@DU?$char_traits@D@std@@V?$allocator@D@2@@std@@V?$vector@V?$basic_string@DU?$char_traits@D@std@@V?$allocator@D@2@@std@@V?$allocator@V?$basic_string@DU?$char_traits@D@std@@V?$allocator@D@2@@std@@@2@@2@@std@@@2@$0A@@std@@@std@@QAE?AV?$_Tree_iterator@V?$_Tree_val@U?$_Tree_simple_types@U?$pair@$$CBV?$basic_string@DU?$char_traits@D@std@@V?$allocator@D@2@@std@@V?$vector@V?$basic_string@DU?$char_traits@D@std@@V?$allocator@D@2@@std@@V?$allocator@V?$basic_string@DU?$char_traits@D@std@@V?$allocator@D@2@@std@@@2@@2@@std@@@std@@@std@@@2@ABV?$basic_string@DU?$char_traits@D@std@@V?$allocator@D@2@@2@@Z ENDP ; std::_Tree<std::_Tmap_traits<std::basic_string<char,std::char_traits<char>,std::allocator<char> >,std::vector<std::basic_string<char,std::char_traits<char>,std::allocator<char> >,std::allocator<std::basic_string<char,std::char_traits<char>,std::allocator<char> > > >,std::less<std::basic_string<char,std::char_traits<char>,std::allocator<char> > >,std::allocator<std::pair<std::basic_string<char,std::char_traits<char>,std::allocator<char> > const ,std::vector<std::basic_string<char,std::char_traits<char>,std::allocator<char> >,std::allocator<std::basic_string<char,std::char_traits<char>,std::allocator<char> > > > > >,0> >::find
_TEXT	ENDS
; Function compile flags: /Odspy
; File C:\Program Files (x86)\Microsoft Visual Studio\2019\Community\VC\Tools\MSVC\14.28.29333\include\xtree
; File C:\Program Files (x86)\Microsoft Visual Studio\2019\Community\VC\Tools\MSVC\14.28.29333\include\xmemory
; File C:\Program Files (x86)\Microsoft Visual Studio\2019\Community\VC\Tools\MSVC\14.28.29333\include\xtree
; File C:\Program Files (x86)\Microsoft Visual Studio\2019\Community\VC\Tools\MSVC\14.28.29333\include\xmemory
; File C:\Program Files (x86)\Microsoft Visual Studio\2019\Community\VC\Tools\MSVC\14.28.29333\include\limits
; File C:\Program Files (x86)\Microsoft Visual Studio\2019\Community\VC\Tools\MSVC\14.28.29333\include\xtree
; File C:\Program Files (x86)\Microsoft Visual Studio\2019\Community\VC\Tools\MSVC\14.28.29333\include\utility
; File C:\Program Files (x86)\Microsoft Visual Studio\2019\Community\VC\Tools\MSVC\14.28.29333\include\xtree
;	COMDAT ?max_size@?$_Tree@V?$_Tmap_traits@V?$basic_string@DU?$char_traits@D@std@@V?$allocator@D@2@@std@@V?$vector@V?$basic_string@DU?$char_traits@D@std@@V?$allocator@D@2@@std@@V?$allocator@V?$basic_string@DU?$char_traits@D@std@@V?$allocator@D@2@@std@@@2@@2@U?$less@V?$basic_string@DU?$char_traits@D@std@@V?$allocator@D@2@@std@@@2@V?$allocator@U?$pair@$$CBV?$basic_string@DU?$char_traits@D@std@@V?$allocator@D@2@@std@@V?$vector@V?$basic_string@DU?$char_traits@D@std@@V?$allocator@D@2@@std@@V?$allocator@V?$basic_string@DU?$char_traits@D@std@@V?$allocator@D@2@@std@@@2@@2@@std@@@2@$0A@@std@@@std@@QBEIXZ
_TEXT	SEGMENT
$T1 = -36						; size = 4
$T2 = -32						; size = 4
$T3 = -28						; size = 4
$T4 = -24						; size = 4
$T5 = -20						; size = 4
_this$ = -16						; size = 4
tv68 = -12						; size = 4
$T6 = -8						; size = 4
$T7 = -4						; size = 4
?max_size@?$_Tree@V?$_Tmap_traits@V?$basic_string@DU?$char_traits@D@std@@V?$allocator@D@2@@std@@V?$vector@V?$basic_string@DU?$char_traits@D@std@@V?$allocator@D@2@@std@@V?$allocator@V?$basic_string@DU?$char_traits@D@std@@V?$allocator@D@2@@std@@@2@@2@U?$less@V?$basic_string@DU?$char_traits@D@std@@V?$allocator@D@2@@std@@@2@V?$allocator@U?$pair@$$CBV?$basic_string@DU?$char_traits@D@std@@V?$allocator@D@2@@std@@V?$vector@V?$basic_string@DU?$char_traits@D@std@@V?$allocator@D@2@@std@@V?$allocator@V?$basic_string@DU?$char_traits@D@std@@V?$allocator@D@2@@std@@@2@@2@@std@@@2@$0A@@std@@@std@@QBEIXZ PROC ; std::_Tree<std::_Tmap_traits<std::basic_string<char,std::char_traits<char>,std::allocator<char> >,std::vector<std::basic_string<char,std::char_traits<char>,std::allocator<char> >,std::allocator<std::basic_string<char,std::char_traits<char>,std::allocator<char> > > >,std::less<std::basic_string<char,std::char_traits<char>,std::allocator<char> > >,std::allocator<std::pair<std::basic_string<char,std::char_traits<char>,std::allocator<char> > const ,std::vector<std::basic_string<char,std::char_traits<char>,std::allocator<char> >,std::allocator<std::basic_string<char,std::char_traits<char>,std::allocator<char> > > > > >,0> >::max_size, COMDAT
; _this$ = ecx

; 1310 :     _NODISCARD size_type max_size() const noexcept {

  00000	55		 push	 ebp
  00001	8b ec		 mov	 ebp, esp
  00003	83 ec 24	 sub	 esp, 36			; 00000024H
  00006	89 4d f0	 mov	 DWORD PTR _this$[ebp], ecx

; 2043 :         return _Mypair._Myval2._Get_first();

  00009	8b 45 f0	 mov	 eax, DWORD PTR _this$[ebp]
; File C:\Program Files (x86)\Microsoft Visual Studio\2019\Community\VC\Tools\MSVC\14.28.29333\include\xmemory

; 1351 :         return *this;

  0000c	89 45 ec	 mov	 DWORD PTR $T5[ebp], eax
; File C:\Program Files (x86)\Microsoft Visual Studio\2019\Community\VC\Tools\MSVC\14.28.29333\include\xtree

; 2043 :         return _Mypair._Myval2._Get_first();

  0000f	8b 45 ec	 mov	 eax, DWORD PTR $T5[ebp]
  00012	89 45 dc	 mov	 DWORD PTR $T1[ebp], eax
; File C:\Program Files (x86)\Microsoft Visual Studio\2019\Community\VC\Tools\MSVC\14.28.29333\include\xmemory

; 710  :         return static_cast<size_t>(-1) / sizeof(value_type);

  00015	c7 45 fc c4 4e
	ec 04		 mov	 DWORD PTR $T7[ebp], 82595524 ; 04ec4ec4H
; File C:\Program Files (x86)\Microsoft Visual Studio\2019\Community\VC\Tools\MSVC\14.28.29333\include\limits

; 557  :         return INT_MAX;

  0001c	c7 45 e8 ff ff
	ff 7f		 mov	 DWORD PTR $T4[ebp], 2147483647 ; 7fffffffH
; File C:\Program Files (x86)\Microsoft Visual Studio\2019\Community\VC\Tools\MSVC\14.28.29333\include\xtree

; 1311 :         return (_STD min)(

  00023	8b 45 e8	 mov	 eax, DWORD PTR $T4[ebp]
  00026	89 45 f8	 mov	 DWORD PTR $T6[ebp], eax
; File C:\Program Files (x86)\Microsoft Visual Studio\2019\Community\VC\Tools\MSVC\14.28.29333\include\utility

; 68   :     return _Right < _Left ? _Right : _Left;

  00029	8b 45 fc	 mov	 eax, DWORD PTR $T7[ebp]
  0002c	3b 45 f8	 cmp	 eax, DWORD PTR $T6[ebp]
  0002f	73 08		 jae	 SHORT $LN17@max_size
  00031	8d 45 fc	 lea	 eax, DWORD PTR $T7[ebp]
  00034	89 45 f4	 mov	 DWORD PTR tv68[ebp], eax
  00037	eb 06		 jmp	 SHORT $LN18@max_size
$LN17@max_size:
  00039	8d 45 f8	 lea	 eax, DWORD PTR $T6[ebp]
  0003c	89 45 f4	 mov	 DWORD PTR tv68[ebp], eax
$LN18@max_size:
  0003f	8b 45 f4	 mov	 eax, DWORD PTR tv68[ebp]
  00042	89 45 e4	 mov	 DWORD PTR $T3[ebp], eax
  00045	8b 45 e4	 mov	 eax, DWORD PTR $T3[ebp]
  00048	89 45 e0	 mov	 DWORD PTR $T2[ebp], eax
; File C:\Program Files (x86)\Microsoft Visual Studio\2019\Community\VC\Tools\MSVC\14.28.29333\include\xtree

; 1311 :         return (_STD min)(

  0004b	8b 45 e0	 mov	 eax, DWORD PTR $T2[ebp]
  0004e	8b 00		 mov	 eax, DWORD PTR [eax]

; 1312 :             static_cast<size_type>((numeric_limits<difference_type>::max)()), _Alnode_traits::max_size(_Getal()));
; 1313 :     }

  00050	c9		 leave
  00051	c3		 ret	 0
?max_size@?$_Tree@V?$_Tmap_traits@V?$basic_string@DU?$char_traits@D@std@@V?$allocator@D@2@@std@@V?$vector@V?$basic_string@DU?$char_traits@D@std@@V?$allocator@D@2@@std@@V?$allocator@V?$basic_string@DU?$char_traits@D@std@@V?$allocator@D@2@@std@@@2@@2@U?$less@V?$basic_string@DU?$char_traits@D@std@@V?$allocator@D@2@@std@@@2@V?$allocator@U?$pair@$$CBV?$basic_string@DU?$char_traits@D@std@@V?$allocator@D@2@@std@@V?$vector@V?$basic_string@DU?$char_traits@D@std@@V?$allocator@D@2@@std@@V?$allocator@V?$basic_string@DU?$char_traits@D@std@@V?$allocator@D@2@@std@@@2@@2@@std@@@2@$0A@@std@@@std@@QBEIXZ ENDP ; std::_Tree<std::_Tmap_traits<std::basic_string<char,std::char_traits<char>,std::allocator<char> >,std::vector<std::basic_string<char,std::char_traits<char>,std::allocator<char> >,std::allocator<std::basic_string<char,std::char_traits<char>,std::allocator<char> > > >,std::less<std::basic_string<char,std::char_traits<char>,std::allocator<char> > >,std::allocator<std::pair<std::basic_string<char,std::char_traits<char>,std::allocator<char> > const ,std::vector<std::basic_string<char,std::char_traits<char>,std::allocator<char> >,std::allocator<std::basic_string<char,std::char_traits<char>,std::allocator<char> > > > > >,0> >::max_size
_TEXT	ENDS
; Function compile flags: /Odspy
; File C:\Program Files (x86)\Microsoft Visual Studio\2019\Community\VC\Tools\MSVC\14.28.29333\include\xtree
; File C:\Program Files (x86)\Microsoft Visual Studio\2019\Community\VC\Tools\MSVC\14.28.29333\include\xstddef
; File C:\Program Files (x86)\Microsoft Visual Studio\2019\Community\VC\Tools\MSVC\14.28.29333\include\xtree
;	COMDAT ?end@?$_Tree@V?$_Tmap_traits@V?$basic_string@DU?$char_traits@D@std@@V?$allocator@D@2@@std@@V?$vector@V?$basic_string@DU?$char_traits@D@std@@V?$allocator@D@2@@std@@V?$allocator@V?$basic_string@DU?$char_traits@D@std@@V?$allocator@D@2@@std@@@2@@2@U?$less@V?$basic_string@DU?$char_traits@D@std@@V?$allocator@D@2@@std@@@2@V?$allocator@U?$pair@$$CBV?$basic_string@DU?$char_traits@D@std@@V?$allocator@D@2@@std@@V?$vector@V?$basic_string@DU?$char_traits@D@std@@V?$allocator@D@2@@std@@V?$allocator@V?$basic_string@DU?$char_traits@D@std@@V?$allocator@D@2@@std@@@2@@2@@std@@@2@$0A@@std@@@std@@QAE?AV?$_Tree_iterator@V?$_Tree_val@U?$_Tree_simple_types@U?$pair@$$CBV?$basic_string@DU?$char_traits@D@std@@V?$allocator@D@2@@std@@V?$vector@V?$basic_string@DU?$char_traits@D@std@@V?$allocator@D@2@@std@@V?$allocator@V?$basic_string@DU?$char_traits@D@std@@V?$allocator@D@2@@std@@@2@@2@@std@@@std@@@std@@@2@XZ
_TEXT	SEGMENT
___param0$ = -16					; size = 4
__Scary$ = -12						; size = 4
$T1 = -8						; size = 4
_this$ = -4						; size = 4
___$ReturnUdt$ = 8					; size = 4
?end@?$_Tree@V?$_Tmap_traits@V?$basic_string@DU?$char_traits@D@std@@V?$allocator@D@2@@std@@V?$vector@V?$basic_string@DU?$char_traits@D@std@@V?$allocator@D@2@@std@@V?$allocator@V?$basic_string@DU?$char_traits@D@std@@V?$allocator@D@2@@std@@@2@@2@U?$less@V?$basic_string@DU?$char_traits@D@std@@V?$allocator@D@2@@std@@@2@V?$allocator@U?$pair@$$CBV?$basic_string@DU?$char_traits@D@std@@V?$allocator@D@2@@std@@V?$vector@V?$basic_string@DU?$char_traits@D@std@@V?$allocator@D@2@@std@@V?$allocator@V?$basic_string@DU?$char_traits@D@std@@V?$allocator@D@2@@std@@@2@@2@@std@@@2@$0A@@std@@@std@@QAE?AV?$_Tree_iterator@V?$_Tree_val@U?$_Tree_simple_types@U?$pair@$$CBV?$basic_string@DU?$char_traits@D@std@@V?$allocator@D@2@@std@@V?$vector@V?$basic_string@DU?$char_traits@D@std@@V?$allocator@D@2@@std@@V?$allocator@V?$basic_string@DU?$char_traits@D@std@@V?$allocator@D@2@@std@@@2@@2@@std@@@std@@@std@@@2@XZ PROC ; std::_Tree<std::_Tmap_traits<std::basic_string<char,std::char_traits<char>,std::allocator<char> >,std::vector<std::basic_string<char,std::char_traits<char>,std::allocator<char> >,std::allocator<std::basic_string<char,std::char_traits<char>,std::allocator<char> > > >,std::less<std::basic_string<char,std::char_traits<char>,std::allocator<char> > >,std::allocator<std::pair<std::basic_string<char,std::char_traits<char>,std::allocator<char> > const ,std::vector<std::basic_string<char,std::char_traits<char>,std::allocator<char> >,std::allocator<std::basic_string<char,std::char_traits<char>,std::allocator<char> > > > > >,0> >::end, COMDAT
; _this$ = ecx

; 1248 :     _NODISCARD iterator end() noexcept {

  00000	55		 push	 ebp
  00001	8b ec		 mov	 ebp, esp
  00003	83 ec 10	 sub	 esp, 16			; 00000010H
  00006	89 4d fc	 mov	 DWORD PTR _this$[ebp], ecx

; 2047 :         return _STD addressof(_Mypair._Myval2._Myval2);

  00009	8b 45 fc	 mov	 eax, DWORD PTR _this$[ebp]
; File C:\Program Files (x86)\Microsoft Visual Studio\2019\Community\VC\Tools\MSVC\14.28.29333\include\xstddef

; 275  :     return __builtin_addressof(_Val);

  0000c	89 45 f8	 mov	 DWORD PTR $T1[ebp], eax
; File C:\Program Files (x86)\Microsoft Visual Studio\2019\Community\VC\Tools\MSVC\14.28.29333\include\xtree

; 2047 :         return _STD addressof(_Mypair._Myval2._Myval2);

  0000f	8b 45 f8	 mov	 eax, DWORD PTR $T1[ebp]
  00012	89 45 f4	 mov	 DWORD PTR __Scary$[ebp], eax

; 1249 :         const auto _Scary = _Get_scary();
; 1250 :         return iterator(_Scary->_Myhead, _Scary);

  00015	8b 45 f4	 mov	 eax, DWORD PTR __Scary$[ebp]
  00018	8b 00		 mov	 eax, DWORD PTR [eax]
  0001a	89 45 f0	 mov	 DWORD PTR ___param0$[ebp], eax

; 39   :     _Tree_unchecked_const_iterator(_Nodeptr _Pnode, const _Mytree* _Plist) noexcept : _Ptr(_Pnode) {

  0001d	8b 45 08	 mov	 eax, DWORD PTR ___$ReturnUdt$[ebp]
  00020	8b 4d f0	 mov	 ecx, DWORD PTR ___param0$[ebp]
  00023	89 08		 mov	 DWORD PTR [eax], ecx

; 1249 :         const auto _Scary = _Get_scary();
; 1250 :         return iterator(_Scary->_Myhead, _Scary);

  00025	8b 45 08	 mov	 eax, DWORD PTR ___$ReturnUdt$[ebp]

; 1251 :     }

  00028	c9		 leave
  00029	c2 04 00	 ret	 4
?end@?$_Tree@V?$_Tmap_traits@V?$basic_string@DU?$char_traits@D@std@@V?$allocator@D@2@@std@@V?$vector@V?$basic_string@DU?$char_traits@D@std@@V?$allocator@D@2@@std@@V?$allocator@V?$basic_string@DU?$char_traits@D@std@@V?$allocator@D@2@@std@@@2@@2@U?$less@V?$basic_string@DU?$char_traits@D@std@@V?$allocator@D@2@@std@@@2@V?$allocator@U?$pair@$$CBV?$basic_string@DU?$char_traits@D@std@@V?$allocator@D@2@@std@@V?$vector@V?$basic_string@DU?$char_traits@D@std@@V?$allocator@D@2@@std@@V?$allocator@V?$basic_string@DU?$char_traits@D@std@@V?$allocator@D@2@@std@@@2@@2@@std@@@2@$0A@@std@@@std@@QAE?AV?$_Tree_iterator@V?$_Tree_val@U?$_Tree_simple_types@U?$pair@$$CBV?$basic_string@DU?$char_traits@D@std@@V?$allocator@D@2@@std@@V?$vector@V?$basic_string@DU?$char_traits@D@std@@V?$allocator@D@2@@std@@V?$allocator@V?$basic_string@DU?$char_traits@D@std@@V?$allocator@D@2@@std@@@2@@2@@std@@@std@@@std@@@2@XZ ENDP ; std::_Tree<std::_Tmap_traits<std::basic_string<char,std::char_traits<char>,std::allocator<char> >,std::vector<std::basic_string<char,std::char_traits<char>,std::allocator<char> >,std::allocator<std::basic_string<char,std::char_traits<char>,std::allocator<char> > > >,std::less<std::basic_string<char,std::char_traits<char>,std::allocator<char> > >,std::allocator<std::pair<std::basic_string<char,std::char_traits<char>,std::allocator<char> > const ,std::vector<std::basic_string<char,std::char_traits<char>,std::allocator<char> >,std::allocator<std::basic_string<char,std::char_traits<char>,std::allocator<char> > > > > >,0> >::end
_TEXT	ENDS
; Function compile flags: /Odspy
; File C:\Program Files (x86)\Microsoft Visual Studio\2019\Community\VC\Tools\MSVC\14.28.29333\include\xtree
; File C:\Program Files (x86)\Microsoft Visual Studio\2019\Community\VC\Tools\MSVC\14.28.29333\include\xstddef
; File C:\Program Files (x86)\Microsoft Visual Studio\2019\Community\VC\Tools\MSVC\14.28.29333\include\xtree
; File C:\Program Files (x86)\Microsoft Visual Studio\2019\Community\VC\Tools\MSVC\14.28.29333\include\xmemory
; File C:\Program Files (x86)\Microsoft Visual Studio\2019\Community\VC\Tools\MSVC\14.28.29333\include\xtree
;	COMDAT ??1?$_Tree@V?$_Tmap_traits@V?$basic_string@DU?$char_traits@D@std@@V?$allocator@D@2@@std@@V?$vector@V?$basic_string@DU?$char_traits@D@std@@V?$allocator@D@2@@std@@V?$allocator@V?$basic_string@DU?$char_traits@D@std@@V?$allocator@D@2@@std@@@2@@2@U?$less@V?$basic_string@DU?$char_traits@D@std@@V?$allocator@D@2@@std@@@2@V?$allocator@U?$pair@$$CBV?$basic_string@DU?$char_traits@D@std@@V?$allocator@D@2@@std@@V?$vector@V?$basic_string@DU?$char_traits@D@std@@V?$allocator@D@2@@std@@V?$allocator@V?$basic_string@DU?$char_traits@D@std@@V?$allocator@D@2@@std@@@2@@2@@std@@@2@$0A@@std@@@std@@QAE@XZ
_TEXT	SEGMENT
$T1 = -20						; size = 4
$T2 = -16						; size = 4
$T3 = -12						; size = 4
_this$ = -8						; size = 4
__Scary$ = -4						; size = 4
??1?$_Tree@V?$_Tmap_traits@V?$basic_string@DU?$char_traits@D@std@@V?$allocator@D@2@@std@@V?$vector@V?$basic_string@DU?$char_traits@D@std@@V?$allocator@D@2@@std@@V?$allocator@V?$basic_string@DU?$char_traits@D@std@@V?$allocator@D@2@@std@@@2@@2@U?$less@V?$basic_string@DU?$char_traits@D@std@@V?$allocator@D@2@@std@@@2@V?$allocator@U?$pair@$$CBV?$basic_string@DU?$char_traits@D@std@@V?$allocator@D@2@@std@@V?$vector@V?$basic_string@DU?$char_traits@D@std@@V?$allocator@D@2@@std@@V?$allocator@V?$basic_string@DU?$char_traits@D@std@@V?$allocator@D@2@@std@@@2@@2@@std@@@2@$0A@@std@@@std@@QAE@XZ PROC ; std::_Tree<std::_Tmap_traits<std::basic_string<char,std::char_traits<char>,std::allocator<char> >,std::vector<std::basic_string<char,std::char_traits<char>,std::allocator<char> >,std::allocator<std::basic_string<char,std::char_traits<char>,std::allocator<char> > > >,std::less<std::basic_string<char,std::char_traits<char>,std::allocator<char> > >,std::allocator<std::pair<std::basic_string<char,std::char_traits<char>,std::allocator<char> > const ,std::vector<std::basic_string<char,std::char_traits<char>,std::allocator<char> >,std::allocator<std::basic_string<char,std::char_traits<char>,std::allocator<char> > > > > >,0> >::~_Tree<std::_Tmap_traits<std::basic_string<char,std::char_traits<char>,std::allocator<char> >,std::vector<std::basic_string<char,std::char_traits<char>,std::allocator<char> >,std::allocator<std::basic_string<char,std::char_traits<char>,std::allocator<char> > > >,std::less<std::basic_string<char,std::char_traits<char>,std::allocator<char> > >,std::allocator<std::pair<std::basic_string<char,std::char_traits<char>,std::allocator<char> > const ,std::vector<std::basic_string<char,std::char_traits<char>,std::allocator<char> >,std::allocator<std::basic_string<char,std::char_traits<char>,std::allocator<char> > > > > >,0> >, COMDAT
; _this$ = ecx

; 1189 :     ~_Tree() noexcept {

  00000	55		 push	 ebp
  00001	8b ec		 mov	 ebp, esp
  00003	83 ec 14	 sub	 esp, 20			; 00000014H
  00006	89 4d f8	 mov	 DWORD PTR _this$[ebp], ecx

; 2047 :         return _STD addressof(_Mypair._Myval2._Myval2);

  00009	8b 45 f8	 mov	 eax, DWORD PTR _this$[ebp]
; File C:\Program Files (x86)\Microsoft Visual Studio\2019\Community\VC\Tools\MSVC\14.28.29333\include\xstddef

; 275  :     return __builtin_addressof(_Val);

  0000c	89 45 f0	 mov	 DWORD PTR $T2[ebp], eax
; File C:\Program Files (x86)\Microsoft Visual Studio\2019\Community\VC\Tools\MSVC\14.28.29333\include\xtree

; 2047 :         return _STD addressof(_Mypair._Myval2._Myval2);

  0000f	8b 45 f0	 mov	 eax, DWORD PTR $T2[ebp]
  00012	89 45 fc	 mov	 DWORD PTR __Scary$[ebp], eax

; 2039 :         return _Mypair._Myval2._Get_first();

  00015	8b 45 f8	 mov	 eax, DWORD PTR _this$[ebp]
; File C:\Program Files (x86)\Microsoft Visual Studio\2019\Community\VC\Tools\MSVC\14.28.29333\include\xmemory

; 1347 :         return *this;

  00018	89 45 ec	 mov	 DWORD PTR $T1[ebp], eax
; File C:\Program Files (x86)\Microsoft Visual Studio\2019\Community\VC\Tools\MSVC\14.28.29333\include\xtree

; 2039 :         return _Mypair._Myval2._Get_first();

  0001b	8b 45 ec	 mov	 eax, DWORD PTR $T1[ebp]
  0001e	89 45 f4	 mov	 DWORD PTR $T3[ebp], eax

; 752  :         _Erase_tree(_Al, _Myhead->_Parent);

  00021	8b 45 fc	 mov	 eax, DWORD PTR __Scary$[ebp]
  00024	8b 00		 mov	 eax, DWORD PTR [eax]
  00026	ff 70 04	 push	 DWORD PTR [eax+4]
  00029	ff 75 f4	 push	 DWORD PTR $T3[ebp]
  0002c	8b 4d fc	 mov	 ecx, DWORD PTR __Scary$[ebp]
  0002f	e8 00 00 00 00	 call	 ??$_Erase_tree@V?$allocator@U?$_Tree_node@U?$pair@$$CBV?$basic_string@DU?$char_traits@D@std@@V?$allocator@D@2@@std@@V?$vector@V?$basic_string@DU?$char_traits@D@std@@V?$allocator@D@2@@std@@V?$allocator@V?$basic_string@DU?$char_traits@D@std@@V?$allocator@D@2@@std@@@2@@2@@std@@PAX@std@@@std@@@?$_Tree_val@U?$_Tree_simple_types@U?$pair@$$CBV?$basic_string@DU?$char_traits@D@std@@V?$allocator@D@2@@std@@V?$vector@V?$basic_string@DU?$char_traits@D@std@@V?$allocator@D@2@@std@@V?$allocator@V?$basic_string@DU?$char_traits@D@std@@V?$allocator@D@2@@std@@@2@@2@@std@@@std@@@std@@QAEXAAV?$allocator@U?$_Tree_node@U?$pair@$$CBV?$basic_string@DU?$char_traits@D@std@@V?$allocator@D@2@@std@@V?$vector@V?$basic_string@DU?$char_traits@D@std@@V?$allocator@D@2@@std@@V?$allocator@V?$basic_string@DU?$char_traits@D@std@@V?$allocator@D@2@@std@@@2@@2@@std@@PAX@std@@@1@PAU?$_Tree_node@U?$pair@$$CBV?$basic_string@DU?$char_traits@D@std@@V?$allocator@D@2@@std@@V?$vector@V?$basic_string@DU?$char_traits@D@std@@V?$allocator@D@2@@std@@V?$allocator@V?$basic_string@DU?$char_traits@D@std@@V?$allocator@D@2@@std@@@2@@2@@std@@PAX@1@@Z ; std::_Tree_val<std::_Tree_simple_types<std::pair<std::basic_string<char,std::char_traits<char>,std::allocator<char> > const ,std::vector<std::basic_string<char,std::char_traits<char>,std::allocator<char> >,std::allocator<std::basic_string<char,std::char_traits<char>,std::allocator<char> > > > > > >::_Erase_tree<std::allocator<std::_Tree_node<std::pair<std::basic_string<char,std::char_traits<char>,std::allocator<char> > const ,std::vector<std::basic_string<char,std::char_traits<char>,std::allocator<char> >,std::allocator<std::basic_string<char,std::char_traits<char>,std::allocator<char> > > > >,void *> > >

; 753  :         _Alnode::value_type::_Freenode0(_Al, _Myhead);

  00034	8b 45 fc	 mov	 eax, DWORD PTR __Scary$[ebp]
  00037	ff 30		 push	 DWORD PTR [eax]
  00039	ff 75 f4	 push	 DWORD PTR $T3[ebp]
  0003c	e8 00 00 00 00	 call	 ??$_Freenode0@V?$allocator@U?$_Tree_node@U?$pair@$$CBV?$basic_string@DU?$char_traits@D@std@@V?$allocator@D@2@@std@@V?$vector@V?$basic_string@DU?$char_traits@D@std@@V?$allocator@D@2@@std@@V?$allocator@V?$basic_string@DU?$char_traits@D@std@@V?$allocator@D@2@@std@@@2@@2@@std@@PAX@std@@@std@@@?$_Tree_node@U?$pair@$$CBV?$basic_string@DU?$char_traits@D@std@@V?$allocator@D@2@@std@@V?$vector@V?$basic_string@DU?$char_traits@D@std@@V?$allocator@D@2@@std@@V?$allocator@V?$basic_string@DU?$char_traits@D@std@@V?$allocator@D@2@@std@@@2@@2@@std@@PAX@std@@SAXAAV?$allocator@U?$_Tree_node@U?$pair@$$CBV?$basic_string@DU?$char_traits@D@std@@V?$allocator@D@2@@std@@V?$vector@V?$basic_string@DU?$char_traits@D@std@@V?$allocator@D@2@@std@@V?$allocator@V?$basic_string@DU?$char_traits@D@std@@V?$allocator@D@2@@std@@@2@@2@@std@@PAX@std@@@1@PAU01@@Z ; std::_Tree_node<std::pair<std::basic_string<char,std::char_traits<char>,std::allocator<char> > const ,std::vector<std::basic_string<char,std::char_traits<char>,std::allocator<char> >,std::allocator<std::basic_string<char,std::char_traits<char>,std::allocator<char> > > > >,void *>::_Freenode0<std::allocator<std::_Tree_node<std::pair<std::basic_string<char,std::char_traits<char>,std::allocator<char> > const ,std::vector<std::basic_string<char,std::char_traits<char>,std::allocator<char> >,std::allocator<std::basic_string<char,std::char_traits<char>,std::allocator<char> > > > >,void *> > >
  00041	59		 pop	 ecx
  00042	59		 pop	 ecx

; 1190 :         const auto _Scary = _Get_scary();
; 1191 :         _Scary->_Erase_head(_Getal());
; 1192 : #if _ITERATOR_DEBUG_LEVEL != 0 // TRANSITION, ABI
; 1193 :         auto&& _Alproxy = _GET_PROXY_ALLOCATOR(_Alnode, _Getal());
; 1194 :         _Delete_plain_internal(_Alproxy, _Scary->_Myproxy);
; 1195 : #endif // _ITERATOR_DEBUG_LEVEL != 0
; 1196 :     }

  00043	c9		 leave
  00044	c3		 ret	 0
??1?$_Tree@V?$_Tmap_traits@V?$basic_string@DU?$char_traits@D@std@@V?$allocator@D@2@@std@@V?$vector@V?$basic_string@DU?$char_traits@D@std@@V?$allocator@D@2@@std@@V?$allocator@V?$basic_string@DU?$char_traits@D@std@@V?$allocator@D@2@@std@@@2@@2@U?$less@V?$basic_string@DU?$char_traits@D@std@@V?$allocator@D@2@@std@@@2@V?$allocator@U?$pair@$$CBV?$basic_string@DU?$char_traits@D@std@@V?$allocator@D@2@@std@@V?$vector@V?$basic_string@DU?$char_traits@D@std@@V?$allocator@D@2@@std@@V?$allocator@V?$basic_string@DU?$char_traits@D@std@@V?$allocator@D@2@@std@@@2@@2@@std@@@2@$0A@@std@@@std@@QAE@XZ ENDP ; std::_Tree<std::_Tmap_traits<std::basic_string<char,std::char_traits<char>,std::allocator<char> >,std::vector<std::basic_string<char,std::char_traits<char>,std::allocator<char> >,std::allocator<std::basic_string<char,std::char_traits<char>,std::allocator<char> > > >,std::less<std::basic_string<char,std::char_traits<char>,std::allocator<char> > >,std::allocator<std::pair<std::basic_string<char,std::char_traits<char>,std::allocator<char> > const ,std::vector<std::basic_string<char,std::char_traits<char>,std::allocator<char> >,std::allocator<std::basic_string<char,std::char_traits<char>,std::allocator<char> > > > > >,0> >::~_Tree<std::_Tmap_traits<std::basic_string<char,std::char_traits<char>,std::allocator<char> >,std::vector<std::basic_string<char,std::char_traits<char>,std::allocator<char> >,std::allocator<std::basic_string<char,std::char_traits<char>,std::allocator<char> > > >,std::less<std::basic_string<char,std::char_traits<char>,std::allocator<char> > >,std::allocator<std::pair<std::basic_string<char,std::char_traits<char>,std::allocator<char> > const ,std::vector<std::basic_string<char,std::char_traits<char>,std::allocator<char> >,std::allocator<std::basic_string<char,std::char_traits<char>,std::allocator<char> > > > > >,0> >
_TEXT	ENDS
; Function compile flags: /Odspy
; File C:\Program Files (x86)\Microsoft Visual Studio\2019\Community\VC\Tools\MSVC\14.28.29333\include\xtree
; File C:\Program Files (x86)\Microsoft Visual Studio\2019\Community\VC\Tools\MSVC\14.28.29333\include\type_traits
; File C:\Program Files (x86)\Microsoft Visual Studio\2019\Community\VC\Tools\MSVC\14.28.29333\include\xmemory
; File C:\Program Files (x86)\Microsoft Visual Studio\2019\Community\VC\Tools\MSVC\14.28.29333\include\xtree
;	COMDAT ??0?$_Tree@V?$_Tmap_traits@V?$basic_string@DU?$char_traits@D@std@@V?$allocator@D@2@@std@@V?$vector@V?$basic_string@DU?$char_traits@D@std@@V?$allocator@D@2@@std@@V?$allocator@V?$basic_string@DU?$char_traits@D@std@@V?$allocator@D@2@@std@@@2@@2@U?$less@V?$basic_string@DU?$char_traits@D@std@@V?$allocator@D@2@@std@@@2@V?$allocator@U?$pair@$$CBV?$basic_string@DU?$char_traits@D@std@@V?$allocator@D@2@@std@@V?$vector@V?$basic_string@DU?$char_traits@D@std@@V?$allocator@D@2@@std@@V?$allocator@V?$basic_string@DU?$char_traits@D@std@@V?$allocator@D@2@@std@@@2@@2@@std@@@2@$0A@@std@@@std@@QAE@ABU?$less@V?$basic_string@DU?$char_traits@D@std@@V?$allocator@D@2@@std@@@1@@Z
_TEXT	SEGMENT
_this$ = -28						; size = 4
_this$ = -24						; size = 4
$T1 = -20						; size = 4
_this$2 = -16						; size = 4
_this$ = -12						; size = 4
___formal$ = -8						; size = 1
$T3 = -1						; size = 1
__Parg$ = 8						; size = 4
??0?$_Tree@V?$_Tmap_traits@V?$basic_string@DU?$char_traits@D@std@@V?$allocator@D@2@@std@@V?$vector@V?$basic_string@DU?$char_traits@D@std@@V?$allocator@D@2@@std@@V?$allocator@V?$basic_string@DU?$char_traits@D@std@@V?$allocator@D@2@@std@@@2@@2@U?$less@V?$basic_string@DU?$char_traits@D@std@@V?$allocator@D@2@@std@@@2@V?$allocator@U?$pair@$$CBV?$basic_string@DU?$char_traits@D@std@@V?$allocator@D@2@@std@@V?$vector@V?$basic_string@DU?$char_traits@D@std@@V?$allocator@D@2@@std@@V?$allocator@V?$basic_string@DU?$char_traits@D@std@@V?$allocator@D@2@@std@@@2@@2@@std@@@2@$0A@@std@@@std@@QAE@ABU?$less@V?$basic_string@DU?$char_traits@D@std@@V?$allocator@D@2@@std@@@1@@Z PROC ; std::_Tree<std::_Tmap_traits<std::basic_string<char,std::char_traits<char>,std::allocator<char> >,std::vector<std::basic_string<char,std::char_traits<char>,std::allocator<char> >,std::allocator<std::basic_string<char,std::char_traits<char>,std::allocator<char> > > >,std::less<std::basic_string<char,std::char_traits<char>,std::allocator<char> > >,std::allocator<std::pair<std::basic_string<char,std::char_traits<char>,std::allocator<char> > const ,std::vector<std::basic_string<char,std::char_traits<char>,std::allocator<char> >,std::allocator<std::basic_string<char,std::char_traits<char>,std::allocator<char> > > > > >,0> >::_Tree<std::_Tmap_traits<std::basic_string<char,std::char_traits<char>,std::allocator<char> >,std::vector<std::basic_string<char,std::char_traits<char>,std::allocator<char> >,std::allocator<std::basic_string<char,std::char_traits<char>,std::allocator<char> > > >,std::less<std::basic_string<char,std::char_traits<char>,std::allocator<char> > >,std::allocator<std::pair<std::basic_string<char,std::char_traits<char>,std::allocator<char> > const ,std::vector<std::basic_string<char,std::char_traits<char>,std::allocator<char> >,std::allocator<std::basic_string<char,std::char_traits<char>,std::allocator<char> > > > > >,0> >, COMDAT
; _this$ = ecx

; 885  :     _Tree(const key_compare& _Parg) : _Mypair(_One_then_variadic_args_t{}, _Parg, _Zero_then_variadic_args_t{}) {

  00000	55		 push	 ebp
  00001	8b ec		 mov	 ebp, esp
  00003	83 ec 1c	 sub	 esp, 28			; 0000001cH
  00006	89 4d f4	 mov	 DWORD PTR _this$[ebp], ecx
  00009	8b 45 f4	 mov	 eax, DWORD PTR _this$[ebp]
  0000c	89 45 e8	 mov	 DWORD PTR _this$[ebp], eax
; File C:\Program Files (x86)\Microsoft Visual Studio\2019\Community\VC\Tools\MSVC\14.28.29333\include\type_traits

; 1443 :     return static_cast<_Ty&&>(_Arg);

  0000f	8d 45 ff	 lea	 eax, DWORD PTR $T3[ebp]
  00012	89 45 ec	 mov	 DWORD PTR $T1[ebp], eax
; File C:\Program Files (x86)\Microsoft Visual Studio\2019\Community\VC\Tools\MSVC\14.28.29333\include\xmemory

; 1344 :         : _Ty1(_STD forward<_Other1>(_Val1)), _Myval2(_STD forward<_Other2>(_Val2)...) {}

  00015	8b 45 ec	 mov	 eax, DWORD PTR $T1[ebp]
  00018	8a 00		 mov	 al, BYTE PTR [eax]
  0001a	88 45 f8	 mov	 BYTE PTR ___formal$[ebp], al
  0001d	8b 45 e8	 mov	 eax, DWORD PTR _this$[ebp]
  00020	89 45 e4	 mov	 DWORD PTR _this$[ebp], eax

; 1339 :         : _Ty1(), _Myval2(_STD forward<_Other2>(_Val2)...) {}

  00023	8b 45 e4	 mov	 eax, DWORD PTR _this$[ebp]
  00026	89 45 f0	 mov	 DWORD PTR _this$2[ebp], eax
; File C:\Program Files (x86)\Microsoft Visual Studio\2019\Community\VC\Tools\MSVC\14.28.29333\include\xtree

; 435  :     _Tree_val() noexcept : _Myhead(), _Mysize(0) {}

  00029	8b 45 f0	 mov	 eax, DWORD PTR _this$2[ebp]
  0002c	83 20 00	 and	 DWORD PTR [eax], 0
  0002f	8b 45 f0	 mov	 eax, DWORD PTR _this$2[ebp]
  00032	83 60 04 00	 and	 DWORD PTR [eax+4], 0

; 886  :         _Alloc_sentinel_and_proxy();

  00036	8b 4d f4	 mov	 ecx, DWORD PTR _this$[ebp]
  00039	e8 00 00 00 00	 call	 ?_Alloc_sentinel_and_proxy@?$_Tree@V?$_Tmap_traits@V?$basic_string@DU?$char_traits@D@std@@V?$allocator@D@2@@std@@V?$vector@V?$basic_string@DU?$char_traits@D@std@@V?$allocator@D@2@@std@@V?$allocator@V?$basic_string@DU?$char_traits@D@std@@V?$allocator@D@2@@std@@@2@@2@U?$less@V?$basic_string@DU?$char_traits@D@std@@V?$allocator@D@2@@std@@@2@V?$allocator@U?$pair@$$CBV?$basic_string@DU?$char_traits@D@std@@V?$allocator@D@2@@std@@V?$vector@V?$basic_string@DU?$char_traits@D@std@@V?$allocator@D@2@@std@@V?$allocator@V?$basic_string@DU?$char_traits@D@std@@V?$allocator@D@2@@std@@@2@@2@@std@@@2@$0A@@std@@@std@@IAEXXZ ; std::_Tree<std::_Tmap_traits<std::basic_string<char,std::char_traits<char>,std::allocator<char> >,std::vector<std::basic_string<char,std::char_traits<char>,std::allocator<char> >,std::allocator<std::basic_string<char,std::char_traits<char>,std::allocator<char> > > >,std::less<std::basic_string<char,std::char_traits<char>,std::allocator<char> > >,std::allocator<std::pair<std::basic_string<char,std::char_traits<char>,std::allocator<char> > const ,std::vector<std::basic_string<char,std::char_traits<char>,std::allocator<char> >,std::allocator<std::basic_string<char,std::char_traits<char>,std::allocator<char> > > > > >,0> >::_Alloc_sentinel_and_proxy

; 887  :     }

  0003e	8b 45 f4	 mov	 eax, DWORD PTR _this$[ebp]
  00041	c9		 leave
  00042	c2 04 00	 ret	 4
??0?$_Tree@V?$_Tmap_traits@V?$basic_string@DU?$char_traits@D@std@@V?$allocator@D@2@@std@@V?$vector@V?$basic_string@DU?$char_traits@D@std@@V?$allocator@D@2@@std@@V?$allocator@V?$basic_string@DU?$char_traits@D@std@@V?$allocator@D@2@@std@@@2@@2@U?$less@V?$basic_string@DU?$char_traits@D@std@@V?$allocator@D@2@@std@@@2@V?$allocator@U?$pair@$$CBV?$basic_string@DU?$char_traits@D@std@@V?$allocator@D@2@@std@@V?$vector@V?$basic_string@DU?$char_traits@D@std@@V?$allocator@D@2@@std@@V?$allocator@V?$basic_string@DU?$char_traits@D@std@@V?$allocator@D@2@@std@@@2@@2@@std@@@2@$0A@@std@@@std@@QAE@ABU?$less@V?$basic_string@DU?$char_traits@D@std@@V?$allocator@D@2@@std@@@1@@Z ENDP ; std::_Tree<std::_Tmap_traits<std::basic_string<char,std::char_traits<char>,std::allocator<char> >,std::vector<std::basic_string<char,std::char_traits<char>,std::allocator<char> >,std::allocator<std::basic_string<char,std::char_traits<char>,std::allocator<char> > > >,std::less<std::basic_string<char,std::char_traits<char>,std::allocator<char> > >,std::allocator<std::pair<std::basic_string<char,std::char_traits<char>,std::allocator<char> > const ,std::vector<std::basic_string<char,std::char_traits<char>,std::allocator<char> >,std::allocator<std::basic_string<char,std::char_traits<char>,std::allocator<char> > > > > >,0> >::_Tree<std::_Tmap_traits<std::basic_string<char,std::char_traits<char>,std::allocator<char> >,std::vector<std::basic_string<char,std::char_traits<char>,std::allocator<char> >,std::allocator<std::basic_string<char,std::char_traits<char>,std::allocator<char> > > >,std::less<std::basic_string<char,std::char_traits<char>,std::allocator<char> > >,std::allocator<std::pair<std::basic_string<char,std::char_traits<char>,std::allocator<char> > const ,std::vector<std::basic_string<char,std::char_traits<char>,std::allocator<char> >,std::allocator<std::basic_string<char,std::char_traits<char>,std::allocator<char> > > > > >,0> >
_TEXT	ENDS
; Function compile flags: /Odspy
; File D:\Metin2 Server Files\mainline\SRC_2014\Metin2Client\GameLib\AreaTerrain.h
; File C:\Program Files (x86)\Microsoft Visual Studio\2019\Community\VC\Tools\MSVC\14.28.29333\include\xstddef
; File C:\Program Files (x86)\Microsoft Visual Studio\2019\Community\VC\Tools\MSVC\14.28.29333\include\xstring
; File D:\Metin2 Server Files\mainline\SRC_2014\Metin2Client\GameLib\AreaTerrain.h
; File C:\Program Files (x86)\Microsoft Visual Studio\2019\Community\VC\Tools\MSVC\14.28.29333\include\xstring
; File D:\Metin2 Server Files\mainline\SRC_2014\Metin2Client\GameLib\AreaTerrain.h
;	COMDAT ?SetName@CTerrain@@QAEXV?$basic_string@DU?$char_traits@D@std@@V?$allocator@D@2@@std@@@Z
_TEXT	SEGMENT
$T2 = -28						; size = 1
$T3 = -24						; size = 4
_this$ = -20						; size = 4
_this$ = -16						; size = 4
__$EHRec$ = -12						; size = 12
_c_strName$ = 8						; size = 24
?SetName@CTerrain@@QAEXV?$basic_string@DU?$char_traits@D@std@@V?$allocator@D@2@@std@@@Z PROC ; CTerrain::SetName, COMDAT
; _this$ = ecx

; 99   : 		void			SetName(const std::string c_strName) { m_strName = c_strName; }

  00000	55		 push	 ebp
  00001	8b ec		 mov	 ebp, esp
  00003	6a ff		 push	 -1
  00005	68 00 00 00 00	 push	 __ehhandler$?SetName@CTerrain@@QAEXV?$basic_string@DU?$char_traits@D@std@@V?$allocator@D@2@@std@@@Z
  0000a	64 a1 00 00 00
	00		 mov	 eax, DWORD PTR fs:0
  00010	50		 push	 eax
  00011	83 ec 10	 sub	 esp, 16			; 00000010H
  00014	a1 00 00 00 00	 mov	 eax, DWORD PTR ___security_cookie
  00019	33 c5		 xor	 eax, ebp
  0001b	50		 push	 eax
  0001c	8d 45 f4	 lea	 eax, DWORD PTR __$EHRec$[ebp]
  0001f	64 a3 00 00 00
	00		 mov	 DWORD PTR fs:0, eax
  00025	89 4d ec	 mov	 DWORD PTR _this$[ebp], ecx
  00028	83 65 fc 00	 and	 DWORD PTR __$EHRec$[ebp+8], 0
  0002c	8b 45 ec	 mov	 eax, DWORD PTR _this$[ebp]
  0002f	05 54 a5 06 00	 add	 eax, 435540		; 0006a554H
  00034	89 45 f0	 mov	 DWORD PTR _this$[ebp], eax
; File C:\Program Files (x86)\Microsoft Visual Studio\2019\Community\VC\Tools\MSVC\14.28.29333\include\xstddef

; 275  :     return __builtin_addressof(_Val);

  00037	8d 45 08	 lea	 eax, DWORD PTR _c_strName$[ebp]
  0003a	89 45 e8	 mov	 DWORD PTR $T3[ebp], eax
; File C:\Program Files (x86)\Microsoft Visual Studio\2019\Community\VC\Tools\MSVC\14.28.29333\include\xstring

; 2863 :         if (this != _STD addressof(_Right)) {

  0003d	8b 45 f0	 mov	 eax, DWORD PTR _this$[ebp]
  00040	3b 45 e8	 cmp	 eax, DWORD PTR $T3[ebp]
  00043	74 14		 je	 SHORT $LN4@SetName

; 2864 :             _Copy_assign(_Right, _Choose_pocca<_Alty>{});

  00045	33 c0		 xor	 eax, eax
  00047	88 45 e4	 mov	 BYTE PTR $T2[ebp], al
  0004a	ff 75 e4	 push	 DWORD PTR $T2[ebp]
  0004d	8d 45 08	 lea	 eax, DWORD PTR _c_strName$[ebp]
  00050	50		 push	 eax
  00051	8b 4d f0	 mov	 ecx, DWORD PTR _this$[ebp]
  00054	e8 00 00 00 00	 call	 ?_Copy_assign@?$basic_string@DU?$char_traits@D@std@@V?$allocator@D@2@@std@@AAEXABV12@U?$integral_constant@_N$0A@@2@@Z ; std::basic_string<char,std::char_traits<char>,std::allocator<char> >::_Copy_assign
$LN4@SetName:
; File D:\Metin2 Server Files\mainline\SRC_2014\Metin2Client\GameLib\AreaTerrain.h

; 99   : 		void			SetName(const std::string c_strName) { m_strName = c_strName; }

  00059	83 4d fc ff	 or	 DWORD PTR __$EHRec$[ebp+8], -1
; File C:\Program Files (x86)\Microsoft Visual Studio\2019\Community\VC\Tools\MSVC\14.28.29333\include\xstring

; 2801 :         _Tidy_deallocate();

  0005d	8d 4d 08	 lea	 ecx, DWORD PTR _c_strName$[ebp]
  00060	e8 00 00 00 00	 call	 ?_Tidy_deallocate@?$basic_string@DU?$char_traits@D@std@@V?$allocator@D@2@@std@@AAEXXZ ; std::basic_string<char,std::char_traits<char>,std::allocator<char> >::_Tidy_deallocate
; File D:\Metin2 Server Files\mainline\SRC_2014\Metin2Client\GameLib\AreaTerrain.h

; 99   : 		void			SetName(const std::string c_strName) { m_strName = c_strName; }

  00065	8b 4d f4	 mov	 ecx, DWORD PTR __$EHRec$[ebp]
  00068	64 89 0d 00 00
	00 00		 mov	 DWORD PTR fs:0, ecx
  0006f	59		 pop	 ecx
  00070	c9		 leave
  00071	c2 18 00	 ret	 24			; 00000018H
_TEXT	ENDS
;	COMDAT text$x
text$x	SEGMENT
__unwindfunclet$?SetName@CTerrain@@QAEXV?$basic_string@DU?$char_traits@D@std@@V?$allocator@D@2@@std@@@Z$0:
  00000	8d 4d 08	 lea	 ecx, DWORD PTR _c_strName$[ebp]
  00003	e9 00 00 00 00	 jmp	 ??1?$basic_string@DU?$char_traits@D@std@@V?$allocator@D@2@@std@@QAE@XZ ; std::basic_string<char,std::char_traits<char>,std::allocator<char> >::~basic_string<char,std::char_traits<char>,std::allocator<char> >
  00008	cc		 int	 3
  00009	cc		 int	 3
  0000a	cc		 int	 3
  0000b	cc		 int	 3
  0000c	cc		 int	 3
__ehhandler$?SetName@CTerrain@@QAEXV?$basic_string@DU?$char_traits@D@std@@V?$allocator@D@2@@std@@@Z:
  0000d	90		 npad	 1
  0000e	90		 npad	 1
  0000f	8b 54 24 08	 mov	 edx, DWORD PTR [esp+8]
  00013	8d 42 0c	 lea	 eax, DWORD PTR [edx+12]
  00016	8b 4a ec	 mov	 ecx, DWORD PTR [edx-20]
  00019	33 c8		 xor	 ecx, eax
  0001b	e8 00 00 00 00	 call	 @__security_check_cookie@4
  00020	b8 00 00 00 00	 mov	 eax, OFFSET __ehfuncinfo$?SetName@CTerrain@@QAEXV?$basic_string@DU?$char_traits@D@std@@V?$allocator@D@2@@std@@@Z
  00025	e9 00 00 00 00	 jmp	 ___CxxFrameHandler3
text$x	ENDS
?SetName@CTerrain@@QAEXV?$basic_string@DU?$char_traits@D@std@@V?$allocator@D@2@@std@@@Z ENDP ; CTerrain::SetName
; Function compile flags: /Odspy
;	COMDAT ??_GTEMP_CAreaLoaderThread@@UAEPAXI@Z
_TEXT	SEGMENT
_this$ = -4						; size = 4
___flags$ = 8						; size = 4
??_GTEMP_CAreaLoaderThread@@UAEPAXI@Z PROC		; TEMP_CAreaLoaderThread::`scalar deleting destructor', COMDAT
; _this$ = ecx
  00000	55		 push	 ebp
  00001	8b ec		 mov	 ebp, esp
  00003	51		 push	 ecx
  00004	89 4d fc	 mov	 DWORD PTR _this$[ebp], ecx
  00007	8b 4d fc	 mov	 ecx, DWORD PTR _this$[ebp]
  0000a	e8 00 00 00 00	 call	 ??1TEMP_CAreaLoaderThread@@UAE@XZ ; TEMP_CAreaLoaderThread::~TEMP_CAreaLoaderThread
  0000f	8b 45 08	 mov	 eax, DWORD PTR ___flags$[ebp]
  00012	83 e0 01	 and	 eax, 1
  00015	74 0f		 je	 SHORT $LN2@scalar
  00017	68 cc 00 00 00	 push	 204			; 000000ccH
  0001c	ff 75 fc	 push	 DWORD PTR _this$[ebp]
  0001f	e8 00 00 00 00	 call	 ??3@YAXPAXI@Z		; operator delete
  00024	59		 pop	 ecx
  00025	59		 pop	 ecx
$LN2@scalar:
  00026	8b 45 fc	 mov	 eax, DWORD PTR _this$[ebp]
  00029	c9		 leave
  0002a	c2 04 00	 ret	 4
??_GTEMP_CAreaLoaderThread@@UAEPAXI@Z ENDP		; TEMP_CAreaLoaderThread::`scalar deleting destructor'
_TEXT	ENDS
; Function compile flags: /Odspy
; File C:\Program Files (x86)\Microsoft Visual Studio\2019\Community\VC\Tools\MSVC\14.28.29333\include\deque
; File C:\Program Files (x86)\Microsoft Visual Studio\2019\Community\VC\Tools\MSVC\14.28.29333\include\xmemory
; File C:\Program Files (x86)\Microsoft Visual Studio\2019\Community\VC\Tools\MSVC\14.28.29333\include\deque
;	COMDAT ??0?$_Deque_val@U?$_Deque_simple_types@PAVCArea@@@std@@@std@@QAE@XZ
_TEXT	SEGMENT
_this$ = -4						; size = 4
??0?$_Deque_val@U?$_Deque_simple_types@PAVCArea@@@std@@@std@@QAE@XZ PROC ; std::_Deque_val<std::_Deque_simple_types<CArea *> >::_Deque_val<std::_Deque_simple_types<CArea *> >, COMDAT
; _this$ = ecx

; 544  :     _Deque_val() noexcept : _Map(), _Mapsize(0), _Myoff(0), _Mysize(0) {}

  00000	55		 push	 ebp
  00001	8b ec		 mov	 ebp, esp
  00003	51		 push	 ecx
  00004	89 4d fc	 mov	 DWORD PTR _this$[ebp], ecx
; File C:\Program Files (x86)\Microsoft Visual Studio\2019\Community\VC\Tools\MSVC\14.28.29333\include\xmemory

; 1097 :     _Container_base12() noexcept : _Myproxy(nullptr) {}

  00007	8b 45 fc	 mov	 eax, DWORD PTR _this$[ebp]
  0000a	83 20 00	 and	 DWORD PTR [eax], 0
; File C:\Program Files (x86)\Microsoft Visual Studio\2019\Community\VC\Tools\MSVC\14.28.29333\include\deque

; 544  :     _Deque_val() noexcept : _Map(), _Mapsize(0), _Myoff(0), _Mysize(0) {}

  0000d	8b 45 fc	 mov	 eax, DWORD PTR _this$[ebp]
  00010	83 60 04 00	 and	 DWORD PTR [eax+4], 0
  00014	8b 45 fc	 mov	 eax, DWORD PTR _this$[ebp]
  00017	83 60 08 00	 and	 DWORD PTR [eax+8], 0
  0001b	8b 45 fc	 mov	 eax, DWORD PTR _this$[ebp]
  0001e	83 60 0c 00	 and	 DWORD PTR [eax+12], 0
  00022	8b 45 fc	 mov	 eax, DWORD PTR _this$[ebp]
  00025	83 60 10 00	 and	 DWORD PTR [eax+16], 0
  00029	8b 45 fc	 mov	 eax, DWORD PTR _this$[ebp]
  0002c	c9		 leave
  0002d	c3		 ret	 0
??0?$_Deque_val@U?$_Deque_simple_types@PAVCArea@@@std@@@std@@QAE@XZ ENDP ; std::_Deque_val<std::_Deque_simple_types<CArea *> >::_Deque_val<std::_Deque_simple_types<CArea *> >
_TEXT	ENDS
; Function compile flags: /Odspy
; File C:\Program Files (x86)\Microsoft Visual Studio\2019\Community\VC\Tools\MSVC\14.28.29333\include\deque
; File C:\Program Files (x86)\Microsoft Visual Studio\2019\Community\VC\Tools\MSVC\14.28.29333\include\xmemory
; File C:\Program Files (x86)\Microsoft Visual Studio\2019\Community\VC\Tools\MSVC\14.28.29333\include\deque
; File C:\Program Files (x86)\Microsoft Visual Studio\2019\Community\VC\Tools\MSVC\14.28.29333\include\xmemory
; File C:\Program Files (x86)\Microsoft Visual Studio\2019\Community\VC\Tools\MSVC\14.28.29333\include\deque
; File C:\Program Files (x86)\Microsoft Visual Studio\2019\Community\VC\Tools\MSVC\14.28.29333\include\xmemory
; File C:\Program Files (x86)\Microsoft Visual Studio\2019\Community\VC\Tools\MSVC\14.28.29333\include\deque
; File C:\Program Files (x86)\Microsoft Visual Studio\2019\Community\VC\Tools\MSVC\14.28.29333\include\xmemory
; File C:\Program Files (x86)\Microsoft Visual Studio\2019\Community\VC\Tools\MSVC\14.28.29333\include\deque
;	COMDAT ?_Tidy@?$deque@PAVCArea@@V?$allocator@PAVCArea@@@std@@@std@@AAEXXZ
_TEXT	SEGMENT
$T1 = -128						; size = 4
$T2 = -124						; size = 4
$T3 = -120						; size = 4
$T4 = -116						; size = 4
$T5 = -112						; size = 4
$T6 = -108						; size = 4
$T7 = -104						; size = 4
__Ptr$ = -100						; size = 4
__Count$ = -96						; size = 4
$T8 = -92						; size = 4
$T9 = -88						; size = 4
$T10 = -84						; size = 4
$T11 = -80						; size = 4
$T12 = -76						; size = 4
$T13 = -72						; size = 4
$T14 = -68						; size = 4
$T15 = -64						; size = 4
__Ptr$ = -60						; size = 4
$T16 = -56						; size = 4
$T17 = -52						; size = 4
$T18 = -48						; size = 4
$T19 = -44						; size = 4
$T20 = -40						; size = 4
$T21 = -36						; size = 4
$T22 = -32						; size = 4
$T23 = -28						; size = 4
$T24 = -24						; size = 4
$T25 = -20						; size = 4
tv149 = -16						; size = 4
__Block$26 = -12					; size = 4
_this$ = -8						; size = 4
$T27 = -1						; size = 1
?_Tidy@?$deque@PAVCArea@@V?$allocator@PAVCArea@@@std@@@std@@AAEXXZ PROC ; std::deque<CArea *,std::allocator<CArea *> >::_Tidy, COMDAT
; _this$ = ecx

; 1469 :     void _Tidy() noexcept { // free all storage

  00000	55		 push	 ebp
  00001	8b ec		 mov	 ebp, esp
  00003	81 ec 80 00 00
	00		 sub	 esp, 128		; 00000080H
  00009	89 4d f8	 mov	 DWORD PTR _this$[ebp], ecx

; 1530 :         return _Mypair._Myval2;

  0000c	8b 45 f8	 mov	 eax, DWORD PTR _this$[ebp]
  0000f	89 45 88	 mov	 DWORD PTR $T3[ebp], eax

; 1522 :         return _Mypair._Get_first();

  00012	8b 45 f8	 mov	 eax, DWORD PTR _this$[ebp]
; File C:\Program Files (x86)\Microsoft Visual Studio\2019\Community\VC\Tools\MSVC\14.28.29333\include\xmemory

; 1347 :         return *this;

  00015	89 45 ec	 mov	 DWORD PTR $T25[ebp], eax
; File C:\Program Files (x86)\Microsoft Visual Studio\2019\Community\VC\Tools\MSVC\14.28.29333\include\deque

; 1522 :         return _Mypair._Get_first();

  00018	8b 45 ec	 mov	 eax, DWORD PTR $T25[ebp]
  0001b	89 45 84	 mov	 DWORD PTR $T2[ebp], eax
$LN2@Tidy:

; 1534 :         return _Mypair._Myval2;

  0001e	8b 45 f8	 mov	 eax, DWORD PTR _this$[ebp]
  00021	89 45 e8	 mov	 DWORD PTR $T24[ebp], eax

; 1566 :         return _Get_data()._Mysize;

  00024	8b 45 e8	 mov	 eax, DWORD PTR $T24[ebp]
  00027	83 c0 10	 add	 eax, 16			; 00000010H
  0002a	89 45 e4	 mov	 DWORD PTR $T23[ebp], eax

; 1010 :         return _Mysize() == 0;

  0002d	8b 45 e4	 mov	 eax, DWORD PTR $T23[ebp]
  00030	83 38 00	 cmp	 DWORD PTR [eax], 0
  00033	75 09		 jne	 SHORT $LN30@Tidy
  00035	c7 45 f0 01 00
	00 00		 mov	 DWORD PTR tv149[ebp], 1
  0003c	eb 04		 jmp	 SHORT $LN31@Tidy
$LN30@Tidy:
  0003e	83 65 f0 00	 and	 DWORD PTR tv149[ebp], 0
$LN31@Tidy:
  00042	8a 45 f0	 mov	 al, BYTE PTR tv149[ebp]
  00045	88 45 ff	 mov	 BYTE PTR $T27[ebp], al

; 1470 :         _Orphan_all();
; 1471 : 
; 1472 :         _Alpty _Almap(_Getal());
; 1473 :         while (!empty()) {

  00048	0f b6 45 ff	 movzx	 eax, BYTE PTR $T27[ebp]
  0004c	85 c0		 test	 eax, eax
  0004e	75 0a		 jne	 SHORT $LN3@Tidy

; 1474 :             pop_back();

  00050	8b 4d f8	 mov	 ecx, DWORD PTR _this$[ebp]
  00053	e8 00 00 00 00	 call	 ?pop_back@?$deque@PAVCArea@@V?$allocator@PAVCArea@@@std@@@std@@QAEXXZ ; std::deque<CArea *,std::allocator<CArea *> >::pop_back

; 1475 :         }

  00058	eb c4		 jmp	 SHORT $LN2@Tidy
$LN3@Tidy:

; 1530 :         return _Mypair._Myval2;

  0005a	8b 45 f8	 mov	 eax, DWORD PTR _this$[ebp]
  0005d	89 45 e0	 mov	 DWORD PTR $T22[ebp], eax

; 1546 :         return _Get_data()._Mapsize;

  00060	8b 45 e0	 mov	 eax, DWORD PTR $T22[ebp]
  00063	83 c0 08	 add	 eax, 8
  00066	89 45 dc	 mov	 DWORD PTR $T21[ebp], eax

; 1476 : 
; 1477 :         for (size_type _Block = _Mapsize(); 0 < _Block;) { // free storage for a block and destroy pointer

  00069	8b 45 dc	 mov	 eax, DWORD PTR $T21[ebp]
  0006c	8b 00		 mov	 eax, DWORD PTR [eax]
  0006e	89 45 f4	 mov	 DWORD PTR __Block$26[ebp], eax
$LN6@Tidy:
  00071	83 7d f4 00	 cmp	 DWORD PTR __Block$26[ebp], 0
  00075	0f 86 84 00 00
	00		 jbe	 $LN5@Tidy

; 1478 :             if (_Map()[--_Block]) { // free block and destroy its pointer

  0007b	8b 45 f4	 mov	 eax, DWORD PTR __Block$26[ebp]
  0007e	48		 dec	 eax
  0007f	89 45 f4	 mov	 DWORD PTR __Block$26[ebp], eax

; 1530 :         return _Mypair._Myval2;

  00082	8b 45 f8	 mov	 eax, DWORD PTR _this$[ebp]
  00085	89 45 d8	 mov	 DWORD PTR $T20[ebp], eax

; 1538 :         return _Get_data()._Map;

  00088	8b 45 d8	 mov	 eax, DWORD PTR $T20[ebp]
  0008b	83 c0 04	 add	 eax, 4
  0008e	89 45 d4	 mov	 DWORD PTR $T19[ebp], eax

; 1478 :             if (_Map()[--_Block]) { // free block and destroy its pointer

  00091	8b 45 d4	 mov	 eax, DWORD PTR $T19[ebp]
  00094	8b 00		 mov	 eax, DWORD PTR [eax]
  00096	8b 4d f4	 mov	 ecx, DWORD PTR __Block$26[ebp]
  00099	83 3c 88 00	 cmp	 DWORD PTR [eax+ecx*4], 0
  0009d	74 5b		 je	 SHORT $LN7@Tidy

; 1530 :         return _Mypair._Myval2;

  0009f	8b 45 f8	 mov	 eax, DWORD PTR _this$[ebp]
  000a2	89 45 d0	 mov	 DWORD PTR $T18[ebp], eax

; 1538 :         return _Get_data()._Map;

  000a5	8b 45 d0	 mov	 eax, DWORD PTR $T18[ebp]
  000a8	83 c0 04	 add	 eax, 4
  000ab	89 45 c8	 mov	 DWORD PTR $T16[ebp], eax

; 1522 :         return _Mypair._Get_first();

  000ae	8b 45 f8	 mov	 eax, DWORD PTR _this$[ebp]
; File C:\Program Files (x86)\Microsoft Visual Studio\2019\Community\VC\Tools\MSVC\14.28.29333\include\xmemory

; 1347 :         return *this;

  000b1	89 45 cc	 mov	 DWORD PTR $T17[ebp], eax
; File C:\Program Files (x86)\Microsoft Visual Studio\2019\Community\VC\Tools\MSVC\14.28.29333\include\deque

; 1522 :         return _Mypair._Get_first();

  000b4	8b 45 cc	 mov	 eax, DWORD PTR $T17[ebp]
  000b7	89 45 80	 mov	 DWORD PTR $T1[ebp], eax

; 1479 :                 _Getal().deallocate(_Map()[_Block], _DEQUESIZ);

  000ba	8b 45 c8	 mov	 eax, DWORD PTR $T16[ebp]
  000bd	8b 00		 mov	 eax, DWORD PTR [eax]
  000bf	8b 4d f4	 mov	 ecx, DWORD PTR __Block$26[ebp]
  000c2	8b 04 88	 mov	 eax, DWORD PTR [eax+ecx*4]
  000c5	89 45 c4	 mov	 DWORD PTR __Ptr$[ebp], eax
; File C:\Program Files (x86)\Microsoft Visual Studio\2019\Community\VC\Tools\MSVC\14.28.29333\include\xmemory

; 810  :         _Deallocate<_New_alignof<_Ty>>(_Ptr, sizeof(_Ty) * _Count);

  000c8	6a 04		 push	 4
  000ca	58		 pop	 eax
  000cb	c1 e0 02	 shl	 eax, 2
  000ce	50		 push	 eax
  000cf	ff 75 c4	 push	 DWORD PTR __Ptr$[ebp]
  000d2	e8 00 00 00 00	 call	 ??$_Deallocate@$07$0A@@std@@YAXPAXI@Z ; std::_Deallocate<8,0>
  000d7	59		 pop	 ecx
  000d8	59		 pop	 ecx
; File C:\Program Files (x86)\Microsoft Visual Studio\2019\Community\VC\Tools\MSVC\14.28.29333\include\deque

; 1530 :         return _Mypair._Myval2;

  000d9	8b 45 f8	 mov	 eax, DWORD PTR _this$[ebp]
  000dc	89 45 c0	 mov	 DWORD PTR $T15[ebp], eax

; 1538 :         return _Get_data()._Map;

  000df	8b 45 c0	 mov	 eax, DWORD PTR $T15[ebp]
  000e2	83 c0 04	 add	 eax, 4
  000e5	89 45 bc	 mov	 DWORD PTR $T14[ebp], eax

; 1480 :                 _Destroy_in_place(_Map()[_Block]);

  000e8	8b 45 bc	 mov	 eax, DWORD PTR $T14[ebp]
  000eb	8b 00		 mov	 eax, DWORD PTR [eax]
  000ed	8b 4d f4	 mov	 ecx, DWORD PTR __Block$26[ebp]
  000f0	8d 04 88	 lea	 eax, DWORD PTR [eax+ecx*4]
  000f3	50		 push	 eax
  000f4	e8 00 00 00 00	 call	 ??$_Destroy_in_place@PAPAVCArea@@@std@@YAXAAPAPAVCArea@@@Z ; std::_Destroy_in_place<CArea * *>
  000f9	59		 pop	 ecx
$LN7@Tidy:

; 1481 :             }
; 1482 :         }

  000fa	e9 72 ff ff ff	 jmp	 $LN6@Tidy
$LN5@Tidy:

; 1530 :         return _Mypair._Myval2;

  000ff	8b 45 f8	 mov	 eax, DWORD PTR _this$[ebp]
  00102	89 45 b8	 mov	 DWORD PTR $T13[ebp], eax

; 1538 :         return _Get_data()._Map;

  00105	8b 45 b8	 mov	 eax, DWORD PTR $T13[ebp]
  00108	83 c0 04	 add	 eax, 4
  0010b	89 45 b4	 mov	 DWORD PTR $T12[ebp], eax

; 1483 : 
; 1484 :         if (_Map() != _Mapptr()) {

  0010e	8b 45 b4	 mov	 eax, DWORD PTR $T12[ebp]
  00111	83 38 00	 cmp	 DWORD PTR [eax], 0
  00114	74 3f		 je	 SHORT $LN8@Tidy

; 1530 :         return _Mypair._Myval2;

  00116	8b 45 f8	 mov	 eax, DWORD PTR _this$[ebp]
  00119	89 45 b0	 mov	 DWORD PTR $T11[ebp], eax

; 1546 :         return _Get_data()._Mapsize;

  0011c	8b 45 b0	 mov	 eax, DWORD PTR $T11[ebp]
  0011f	83 c0 08	 add	 eax, 8
  00122	89 45 a8	 mov	 DWORD PTR $T9[ebp], eax

; 1530 :         return _Mypair._Myval2;

  00125	8b 45 f8	 mov	 eax, DWORD PTR _this$[ebp]
  00128	89 45 ac	 mov	 DWORD PTR $T10[ebp], eax

; 1538 :         return _Get_data()._Map;

  0012b	8b 45 ac	 mov	 eax, DWORD PTR $T10[ebp]
  0012e	83 c0 04	 add	 eax, 4
  00131	89 45 a4	 mov	 DWORD PTR $T8[ebp], eax

; 1485 :             _Almap.deallocate(_Map(), _Mapsize()); // free storage for map

  00134	8b 45 a8	 mov	 eax, DWORD PTR $T9[ebp]
  00137	8b 00		 mov	 eax, DWORD PTR [eax]
  00139	89 45 a0	 mov	 DWORD PTR __Count$[ebp], eax
  0013c	8b 45 a4	 mov	 eax, DWORD PTR $T8[ebp]
  0013f	8b 00		 mov	 eax, DWORD PTR [eax]
  00141	89 45 9c	 mov	 DWORD PTR __Ptr$[ebp], eax
; File C:\Program Files (x86)\Microsoft Visual Studio\2019\Community\VC\Tools\MSVC\14.28.29333\include\xmemory

; 810  :         _Deallocate<_New_alignof<_Ty>>(_Ptr, sizeof(_Ty) * _Count);

  00144	8b 45 a0	 mov	 eax, DWORD PTR __Count$[ebp]
  00147	c1 e0 02	 shl	 eax, 2
  0014a	50		 push	 eax
  0014b	ff 75 9c	 push	 DWORD PTR __Ptr$[ebp]
  0014e	e8 00 00 00 00	 call	 ??$_Deallocate@$07$0A@@std@@YAXPAXI@Z ; std::_Deallocate<8,0>
  00153	59		 pop	 ecx
  00154	59		 pop	 ecx
$LN8@Tidy:
; File C:\Program Files (x86)\Microsoft Visual Studio\2019\Community\VC\Tools\MSVC\14.28.29333\include\deque

; 1530 :         return _Mypair._Myval2;

  00155	8b 45 f8	 mov	 eax, DWORD PTR _this$[ebp]
  00158	89 45 98	 mov	 DWORD PTR $T7[ebp], eax

; 1546 :         return _Get_data()._Mapsize;

  0015b	8b 45 98	 mov	 eax, DWORD PTR $T7[ebp]
  0015e	83 c0 08	 add	 eax, 8
  00161	89 45 94	 mov	 DWORD PTR $T6[ebp], eax

; 1486 :         }
; 1487 : 
; 1488 :         _Mapsize() = 0;

  00164	8b 45 94	 mov	 eax, DWORD PTR $T6[ebp]
  00167	83 20 00	 and	 DWORD PTR [eax], 0

; 1530 :         return _Mypair._Myval2;

  0016a	8b 45 f8	 mov	 eax, DWORD PTR _this$[ebp]
  0016d	89 45 90	 mov	 DWORD PTR $T5[ebp], eax

; 1538 :         return _Get_data()._Map;

  00170	8b 45 90	 mov	 eax, DWORD PTR $T5[ebp]
  00173	83 c0 04	 add	 eax, 4
  00176	89 45 8c	 mov	 DWORD PTR $T4[ebp], eax

; 1489 :         _Map()     = _Mapptr();

  00179	8b 45 8c	 mov	 eax, DWORD PTR $T4[ebp]
  0017c	83 20 00	 and	 DWORD PTR [eax], 0

; 1490 :     }

  0017f	c9		 leave
  00180	c3		 ret	 0
?_Tidy@?$deque@PAVCArea@@V?$allocator@PAVCArea@@@std@@@std@@AAEXXZ ENDP ; std::deque<CArea *,std::allocator<CArea *> >::_Tidy
_TEXT	ENDS
; Function compile flags: /Odspy
; File C:\Program Files (x86)\Microsoft Visual Studio\2019\Community\VC\Tools\MSVC\14.28.29333\include\deque
; File C:\Program Files (x86)\Microsoft Visual Studio\2019\Community\VC\Tools\MSVC\14.28.29333\include\xmemory
; File C:\Program Files (x86)\Microsoft Visual Studio\2019\Community\VC\Tools\MSVC\14.28.29333\include\deque
; File C:\Program Files (x86)\Microsoft Visual Studio\2019\Community\VC\Tools\MSVC\14.28.29333\include\xmemory
; File C:\Program Files (x86)\Microsoft Visual Studio\2019\Community\VC\Tools\MSVC\14.28.29333\include\deque
; File C:\Program Files (x86)\Microsoft Visual Studio\2019\Community\VC\Tools\MSVC\14.28.29333\include\xmemory
; File C:\Program Files (x86)\Microsoft Visual Studio\2019\Community\VC\Tools\MSVC\14.28.29333\include\limits
; File C:\Program Files (x86)\Microsoft Visual Studio\2019\Community\VC\Tools\MSVC\14.28.29333\include\deque
; File C:\Program Files (x86)\Microsoft Visual Studio\2019\Community\VC\Tools\MSVC\14.28.29333\include\utility
; File C:\Program Files (x86)\Microsoft Visual Studio\2019\Community\VC\Tools\MSVC\14.28.29333\include\deque
; File C:\Program Files (x86)\Microsoft Visual Studio\2019\Community\VC\Tools\MSVC\14.28.29333\include\xmemory
; File C:\Program Files (x86)\Microsoft Visual Studio\2019\Community\VC\Tools\MSVC\14.28.29333\include\deque
; File C:\Program Files (x86)\Microsoft Visual Studio\2019\Community\VC\Tools\MSVC\14.28.29333\include\xmemory
; File C:\Program Files (x86)\Microsoft Visual Studio\2019\Community\VC\Tools\MSVC\14.28.29333\include\deque
;	COMDAT ?_Growmap@?$deque@PAVCArea@@V?$allocator@PAVCArea@@@std@@@std@@AAEXI@Z
_TEXT	SEGMENT
$T1 = -164						; size = 4
__Max_possible$2 = -160					; size = 4
$T3 = -156						; size = 4
$T4 = -152						; size = 4
$T5 = -148						; size = 4
$T6 = -144						; size = 4
$T7 = -140						; size = 4
__Ptr$ = -136						; size = 4
__Count$ = -132						; size = 4
$T8 = -128						; size = 4
$T9 = -124						; size = 4
$T10 = -120						; size = 4
$T11 = -116						; size = 4
$T12 = -112						; size = 4
$T13 = -108						; size = 4
$T14 = -104						; size = 4
$T15 = -100						; size = 4
$T16 = -96						; size = 4
$T17 = -92						; size = 4
$T18 = -88						; size = 4
$T19 = -84						; size = 4
$T20 = -80						; size = 4
$T21 = -76						; size = 4
$T22 = -72						; size = 4
$T23 = -68						; size = 4
$T24 = -64						; size = 4
$T25 = -60						; size = 4
$T26 = -56						; size = 4
$T27 = -52						; size = 4
$T28 = -48						; size = 4
$T29 = -44						; size = 4
$T30 = -40						; size = 4
$T31 = -36						; size = 4
$T32 = -32						; size = 4
$T33 = -28						; size = 4
$T34 = -24						; size = 4
$T35 = -20						; size = 4
$T36 = -16						; size = 4
$T37 = -12						; size = 4
$T38 = -8						; size = 4
$T39 = -4						; size = 4
$T40 = 0						; size = 4
$T41 = 4						; size = 4
$T42 = 8						; size = 4
$T43 = 12						; size = 4
$T44 = 16						; size = 4
$T45 = 20						; size = 4
$T46 = 24						; size = 4
$T47 = 28						; size = 4
$T48 = 32						; size = 4
$T49 = 36						; size = 4
$T50 = 40						; size = 4
$T51 = 44						; size = 4
$T52 = 48						; size = 4
$T53 = 52						; size = 4
$T54 = 56						; size = 4
$T55 = 60						; size = 4
$T56 = 64						; size = 4
__Count$ = 68						; size = 4
tv232 = 72						; size = 4
$T57 = 76						; size = 4
$T58 = 80						; size = 4
tv73 = 84						; size = 4
tv214 = 88						; size = 4
__Overflow_is_possible$59 = 95				; size = 1
__Newmap$ = 96						; size = 4
__Newsize$ = 100					; size = 4
__Myboff$ = 104						; size = 4
__Myptr$ = 108						; size = 4
_this$ = 112						; size = 4
__Count$ = 124						; size = 4
?_Growmap@?$deque@PAVCArea@@V?$allocator@PAVCArea@@@std@@@std@@AAEXI@Z PROC ; std::deque<CArea *,std::allocator<CArea *> >::_Growmap, COMDAT
; _this$ = ecx

; 1430 :     void _Growmap(size_type _Count) { // grow map by at least _Count pointers, _Mapsize() a power of 2

  00000	55		 push	 ebp
  00001	8d 6c 24 8c	 lea	 ebp, DWORD PTR [esp-116]
  00005	81 ec 18 01 00
	00		 sub	 esp, 280		; 00000118H
  0000b	89 4d 70	 mov	 DWORD PTR _this$[ebp], ecx

; 1522 :         return _Mypair._Get_first();

  0000e	8b 45 70	 mov	 eax, DWORD PTR _this$[ebp]
; File C:\Program Files (x86)\Microsoft Visual Studio\2019\Community\VC\Tools\MSVC\14.28.29333\include\xmemory

; 1347 :         return *this;

  00011	89 45 40	 mov	 DWORD PTR $T56[ebp], eax
; File C:\Program Files (x86)\Microsoft Visual Studio\2019\Community\VC\Tools\MSVC\14.28.29333\include\deque

; 1522 :         return _Mypair._Get_first();

  00014	8b 45 40	 mov	 eax, DWORD PTR $T56[ebp]
  00017	89 85 68 ff ff
	ff		 mov	 DWORD PTR $T4[ebp], eax

; 1530 :         return _Mypair._Myval2;

  0001d	8b 45 70	 mov	 eax, DWORD PTR _this$[ebp]
  00020	89 45 3c	 mov	 DWORD PTR $T55[ebp], eax

; 1546 :         return _Get_data()._Mapsize;

  00023	8b 45 3c	 mov	 eax, DWORD PTR $T55[ebp]
  00026	83 c0 08	 add	 eax, 8
  00029	89 45 38	 mov	 DWORD PTR $T54[ebp], eax

; 1431 :         static_assert(1 < _DEQUEMAPSIZ, "The _Xlen() test should always be performed.");
; 1432 : 
; 1433 :         _Alpty _Almap(_Getal());
; 1434 :         size_type _Newsize = 0 < _Mapsize() ? _Mapsize() : 1;

  0002c	8b 45 38	 mov	 eax, DWORD PTR $T54[ebp]
  0002f	83 38 00	 cmp	 DWORD PTR [eax], 0
  00032	76 19		 jbe	 SHORT $LN10@Growmap

; 1530 :         return _Mypair._Myval2;

  00034	8b 45 70	 mov	 eax, DWORD PTR _this$[ebp]
  00037	89 45 34	 mov	 DWORD PTR $T53[ebp], eax

; 1546 :         return _Get_data()._Mapsize;

  0003a	8b 45 34	 mov	 eax, DWORD PTR $T53[ebp]
  0003d	83 c0 08	 add	 eax, 8
  00040	89 45 30	 mov	 DWORD PTR $T52[ebp], eax

; 1431 :         static_assert(1 < _DEQUEMAPSIZ, "The _Xlen() test should always be performed.");
; 1432 : 
; 1433 :         _Alpty _Almap(_Getal());
; 1434 :         size_type _Newsize = 0 < _Mapsize() ? _Mapsize() : 1;

  00043	8b 45 30	 mov	 eax, DWORD PTR $T52[ebp]
  00046	8b 00		 mov	 eax, DWORD PTR [eax]
  00048	89 45 54	 mov	 DWORD PTR tv73[ebp], eax
  0004b	eb 07		 jmp	 SHORT $LN11@Growmap
$LN10@Growmap:
  0004d	c7 45 54 01 00
	00 00		 mov	 DWORD PTR tv73[ebp], 1
$LN11@Growmap:
  00054	8b 45 54	 mov	 eax, DWORD PTR tv73[ebp]
  00057	89 45 64	 mov	 DWORD PTR __Newsize$[ebp], eax
$LN2@Growmap:

; 1530 :         return _Mypair._Myval2;

  0005a	8b 45 70	 mov	 eax, DWORD PTR _this$[ebp]
  0005d	89 45 2c	 mov	 DWORD PTR $T51[ebp], eax

; 1546 :         return _Get_data()._Mapsize;

  00060	8b 45 2c	 mov	 eax, DWORD PTR $T51[ebp]
  00063	83 c0 08	 add	 eax, 8
  00066	89 45 28	 mov	 DWORD PTR $T50[ebp], eax

; 1435 :         while (_Newsize - _Mapsize() < _Count || _Newsize < _DEQUEMAPSIZ) {

  00069	8b 45 28	 mov	 eax, DWORD PTR $T50[ebp]
  0006c	8b 4d 64	 mov	 ecx, DWORD PTR __Newsize$[ebp]
  0006f	2b 08		 sub	 ecx, DWORD PTR [eax]
  00071	3b 4d 7c	 cmp	 ecx, DWORD PTR __Count$[ebp]
  00074	72 06		 jb	 SHORT $LN4@Growmap
  00076	83 7d 64 08	 cmp	 DWORD PTR __Newsize$[ebp], 8
  0007a	73 70		 jae	 SHORT $LN3@Growmap
$LN4@Growmap:

; 1526 :         return _Mypair._Get_first();

  0007c	8b 45 70	 mov	 eax, DWORD PTR _this$[ebp]
; File C:\Program Files (x86)\Microsoft Visual Studio\2019\Community\VC\Tools\MSVC\14.28.29333\include\xmemory

; 1351 :         return *this;

  0007f	89 45 24	 mov	 DWORD PTR $T49[ebp], eax
; File C:\Program Files (x86)\Microsoft Visual Studio\2019\Community\VC\Tools\MSVC\14.28.29333\include\deque

; 1526 :         return _Mypair._Get_first();

  00082	8b 45 24	 mov	 eax, DWORD PTR $T49[ebp]
  00085	89 85 64 ff ff
	ff		 mov	 DWORD PTR $T3[ebp], eax
; File C:\Program Files (x86)\Microsoft Visual Studio\2019\Community\VC\Tools\MSVC\14.28.29333\include\xmemory

; 710  :         return static_cast<size_t>(-1) / sizeof(value_type);

  0008b	c7 45 50 ff ff
	ff 3f		 mov	 DWORD PTR $T58[ebp], 1073741823 ; 3fffffffH
; File C:\Program Files (x86)\Microsoft Visual Studio\2019\Community\VC\Tools\MSVC\14.28.29333\include\limits

; 557  :         return INT_MAX;

  00092	c7 45 20 ff ff
	ff 7f		 mov	 DWORD PTR $T48[ebp], 2147483647 ; 7fffffffH
; File C:\Program Files (x86)\Microsoft Visual Studio\2019\Community\VC\Tools\MSVC\14.28.29333\include\deque

; 1005 :         return (_STD min)(

  00099	8b 45 20	 mov	 eax, DWORD PTR $T48[ebp]
  0009c	89 45 4c	 mov	 DWORD PTR $T57[ebp], eax
; File C:\Program Files (x86)\Microsoft Visual Studio\2019\Community\VC\Tools\MSVC\14.28.29333\include\utility

; 68   :     return _Right < _Left ? _Right : _Left;

  0009f	8b 45 50	 mov	 eax, DWORD PTR $T58[ebp]
  000a2	3b 45 4c	 cmp	 eax, DWORD PTR $T57[ebp]
  000a5	73 08		 jae	 SHORT $LN56@Growmap
  000a7	8d 45 50	 lea	 eax, DWORD PTR $T58[ebp]
  000aa	89 45 48	 mov	 DWORD PTR tv232[ebp], eax
  000ad	eb 06		 jmp	 SHORT $LN57@Growmap
$LN56@Growmap:
  000af	8d 45 4c	 lea	 eax, DWORD PTR $T57[ebp]
  000b2	89 45 48	 mov	 DWORD PTR tv232[ebp], eax
$LN57@Growmap:
  000b5	8b 45 48	 mov	 eax, DWORD PTR tv232[ebp]
  000b8	89 45 1c	 mov	 DWORD PTR $T47[ebp], eax
  000bb	8b 45 1c	 mov	 eax, DWORD PTR $T47[ebp]
  000be	89 45 18	 mov	 DWORD PTR $T46[ebp], eax
; File C:\Program Files (x86)\Microsoft Visual Studio\2019\Community\VC\Tools\MSVC\14.28.29333\include\deque

; 1005 :         return (_STD min)(

  000c1	8b 45 18	 mov	 eax, DWORD PTR $T46[ebp]
  000c4	8b 00		 mov	 eax, DWORD PTR [eax]
  000c6	89 45 14	 mov	 DWORD PTR $T45[ebp], eax

; 1436 :             // scale _Newsize to 2^N >= _Mapsize() + _Count
; 1437 :             if (max_size() / _DEQUESIZ - _Newsize < _Newsize) {

  000c9	8b 45 14	 mov	 eax, DWORD PTR $T45[ebp]
  000cc	c1 e8 02	 shr	 eax, 2
  000cf	2b 45 64	 sub	 eax, DWORD PTR __Newsize$[ebp]
  000d2	3b 45 64	 cmp	 eax, DWORD PTR __Newsize$[ebp]
  000d5	73 08		 jae	 SHORT $LN5@Growmap

; 1438 :                 _Xlen(); // result too long

  000d7	8b 4d 70	 mov	 ecx, DWORD PTR _this$[ebp]
  000da	e8 00 00 00 00	 call	 ?_Xlen@?$deque@PAVCArea@@V?$allocator@PAVCArea@@@std@@@std@@ABEXXZ ; std::deque<CArea *,std::allocator<CArea *> >::_Xlen
$LN5@Growmap:

; 1439 :             }
; 1440 : 
; 1441 :             _Newsize *= 2;

  000df	8b 45 64	 mov	 eax, DWORD PTR __Newsize$[ebp]
  000e2	d1 e0		 shl	 eax, 1
  000e4	89 45 64	 mov	 DWORD PTR __Newsize$[ebp], eax

; 1442 :         }

  000e7	e9 6e ff ff ff	 jmp	 $LN2@Growmap
$LN3@Growmap:

; 1530 :         return _Mypair._Myval2;

  000ec	8b 45 70	 mov	 eax, DWORD PTR _this$[ebp]
  000ef	89 45 10	 mov	 DWORD PTR $T44[ebp], eax

; 1546 :         return _Get_data()._Mapsize;

  000f2	8b 45 10	 mov	 eax, DWORD PTR $T44[ebp]
  000f5	83 c0 08	 add	 eax, 8
  000f8	89 45 0c	 mov	 DWORD PTR $T43[ebp], eax

; 1443 :         _Count = _Newsize - _Mapsize();

  000fb	8b 45 0c	 mov	 eax, DWORD PTR $T43[ebp]
  000fe	8b 4d 64	 mov	 ecx, DWORD PTR __Newsize$[ebp]
  00101	2b 08		 sub	 ecx, DWORD PTR [eax]
  00103	89 4d 7c	 mov	 DWORD PTR __Count$[ebp], ecx

; 1530 :         return _Mypair._Myval2;

  00106	8b 45 70	 mov	 eax, DWORD PTR _this$[ebp]
  00109	89 45 08	 mov	 DWORD PTR $T42[ebp], eax

; 1554 :         return _Get_data()._Myoff;

  0010c	8b 45 08	 mov	 eax, DWORD PTR $T42[ebp]
  0010f	83 c0 0c	 add	 eax, 12			; 0000000cH
  00112	89 45 04	 mov	 DWORD PTR $T41[ebp], eax

; 1444 : 
; 1445 :         size_type _Myboff = _Myoff() / _DEQUESIZ;

  00115	8b 45 04	 mov	 eax, DWORD PTR $T41[ebp]
  00118	8b 00		 mov	 eax, DWORD PTR [eax]
  0011a	c1 e8 02	 shr	 eax, 2
  0011d	89 45 68	 mov	 DWORD PTR __Myboff$[ebp], eax

; 1530 :         return _Mypair._Myval2;

  00120	8b 45 70	 mov	 eax, DWORD PTR _this$[ebp]
  00123	89 45 00	 mov	 DWORD PTR $T40[ebp], eax

; 1546 :         return _Get_data()._Mapsize;

  00126	8b 45 00	 mov	 eax, DWORD PTR $T40[ebp]
  00129	83 c0 08	 add	 eax, 8
  0012c	89 45 fc	 mov	 DWORD PTR $T39[ebp], eax

; 1446 :         _Mapptr _Newmap   = _Almap.allocate(_Mapsize() + _Count);

  0012f	8b 45 fc	 mov	 eax, DWORD PTR $T39[ebp]
  00132	8b 00		 mov	 eax, DWORD PTR [eax]
  00134	03 45 7c	 add	 eax, DWORD PTR __Count$[ebp]
  00137	89 45 44	 mov	 DWORD PTR __Count$[ebp], eax
; File C:\Program Files (x86)\Microsoft Visual Studio\2019\Community\VC\Tools\MSVC\14.28.29333\include\xmemory

; 56   :     constexpr bool _Overflow_is_possible = _Ty_size > 1;

  0013a	c6 45 5f 01	 mov	 BYTE PTR __Overflow_is_possible$59[ebp], 1

; 57   : 
; 58   :     if _CONSTEXPR_IF (_Overflow_is_possible) {
; 59   :         constexpr size_t _Max_possible = static_cast<size_t>(-1) / _Ty_size;

  0013e	c7 85 60 ff ff
	ff ff ff ff 3f	 mov	 DWORD PTR __Max_possible$2[ebp], 1073741823 ; 3fffffffH

; 60   :         if (_Count > _Max_possible) {

  00148	81 7d 44 ff ff
	ff 3f		 cmp	 DWORD PTR __Count$[ebp], 1073741823 ; 3fffffffH
  0014f	76 05		 jbe	 SHORT $LN80@Growmap

; 61   :             _Throw_bad_array_new_length(); // multiply overflow

  00151	e8 00 00 00 00	 call	 ?_Throw_bad_array_new_length@std@@YAXXZ ; std::_Throw_bad_array_new_length
$LN80@Growmap:

; 62   :         }
; 63   :     }
; 64   : 
; 65   :     return _Count * _Ty_size;

  00156	8b 45 44	 mov	 eax, DWORD PTR __Count$[ebp]
  00159	c1 e0 02	 shl	 eax, 2
  0015c	89 45 f8	 mov	 DWORD PTR $T38[ebp], eax

; 814  :         return static_cast<_Ty*>(_Allocate<_New_alignof<_Ty>>(_Get_size_of_n<sizeof(_Ty)>(_Count)));

  0015f	ff 75 f8	 push	 DWORD PTR $T38[ebp]
  00162	e8 00 00 00 00	 call	 ??$_Allocate@$07U_Default_allocate_traits@std@@$0A@@std@@YAPAXI@Z ; std::_Allocate<8,std::_Default_allocate_traits,0>
  00167	59		 pop	 ecx
  00168	89 45 60	 mov	 DWORD PTR __Newmap$[ebp], eax
; File C:\Program Files (x86)\Microsoft Visual Studio\2019\Community\VC\Tools\MSVC\14.28.29333\include\deque

; 1447 :         _Mapptr _Myptr    = _Newmap + _Myboff;

  0016b	8b 45 68	 mov	 eax, DWORD PTR __Myboff$[ebp]
  0016e	8b 4d 60	 mov	 ecx, DWORD PTR __Newmap$[ebp]
  00171	8d 04 81	 lea	 eax, DWORD PTR [ecx+eax*4]
  00174	89 45 6c	 mov	 DWORD PTR __Myptr$[ebp], eax

; 1530 :         return _Mypair._Myval2;

  00177	8b 45 70	 mov	 eax, DWORD PTR _this$[ebp]
  0017a	89 45 f4	 mov	 DWORD PTR $T37[ebp], eax

; 1538 :         return _Get_data()._Map;

  0017d	8b 45 f4	 mov	 eax, DWORD PTR $T37[ebp]
  00180	83 c0 04	 add	 eax, 4
  00183	89 45 e4	 mov	 DWORD PTR $T33[ebp], eax

; 1530 :         return _Mypair._Myval2;

  00186	8b 45 70	 mov	 eax, DWORD PTR _this$[ebp]
  00189	89 45 f0	 mov	 DWORD PTR $T36[ebp], eax

; 1546 :         return _Get_data()._Mapsize;

  0018c	8b 45 f0	 mov	 eax, DWORD PTR $T36[ebp]
  0018f	83 c0 08	 add	 eax, 8
  00192	89 45 e8	 mov	 DWORD PTR $T34[ebp], eax

; 1530 :         return _Mypair._Myval2;

  00195	8b 45 70	 mov	 eax, DWORD PTR _this$[ebp]
  00198	89 45 ec	 mov	 DWORD PTR $T35[ebp], eax

; 1538 :         return _Get_data()._Map;

  0019b	8b 45 ec	 mov	 eax, DWORD PTR $T35[ebp]
  0019e	83 c0 04	 add	 eax, 4
  001a1	89 45 e0	 mov	 DWORD PTR $T32[ebp], eax

; 1448 : 
; 1449 :         _Myptr = _STD uninitialized_copy(_Map() + _Myboff, _Map() + _Mapsize(), _Myptr); // copy initial to end

  001a4	ff 75 6c	 push	 DWORD PTR __Myptr$[ebp]
  001a7	8b 45 e8	 mov	 eax, DWORD PTR $T34[ebp]
  001aa	8b 00		 mov	 eax, DWORD PTR [eax]
  001ac	8b 4d e4	 mov	 ecx, DWORD PTR $T33[ebp]
  001af	8b 09		 mov	 ecx, DWORD PTR [ecx]
  001b1	8d 04 81	 lea	 eax, DWORD PTR [ecx+eax*4]
  001b4	50		 push	 eax
  001b5	8b 45 e0	 mov	 eax, DWORD PTR $T32[ebp]
  001b8	8b 00		 mov	 eax, DWORD PTR [eax]
  001ba	8b 4d 68	 mov	 ecx, DWORD PTR __Myboff$[ebp]
  001bd	8d 04 88	 lea	 eax, DWORD PTR [eax+ecx*4]
  001c0	50		 push	 eax
  001c1	e8 00 00 00 00	 call	 ??$uninitialized_copy@PAPAPAVCArea@@PAPAPAV1@@std@@YAPAPAPAVCArea@@QAPAPAV1@0PAPAPAV1@@Z ; std::uninitialized_copy<CArea * * *,CArea * * *>
  001c6	83 c4 0c	 add	 esp, 12			; 0000000cH
  001c9	89 45 6c	 mov	 DWORD PTR __Myptr$[ebp], eax

; 1450 :         if (_Myboff <= _Count) { // increment greater than offset of initial block

  001cc	8b 45 68	 mov	 eax, DWORD PTR __Myboff$[ebp]
  001cf	3b 45 7c	 cmp	 eax, DWORD PTR __Count$[ebp]
  001d2	77 60		 ja	 SHORT $LN6@Growmap

; 1530 :         return _Mypair._Myval2;

  001d4	8b 45 70	 mov	 eax, DWORD PTR _this$[ebp]
  001d7	89 45 dc	 mov	 DWORD PTR $T31[ebp], eax

; 1538 :         return _Get_data()._Map;

  001da	8b 45 dc	 mov	 eax, DWORD PTR $T31[ebp]
  001dd	83 c0 04	 add	 eax, 4
  001e0	89 45 d4	 mov	 DWORD PTR $T29[ebp], eax

; 1530 :         return _Mypair._Myval2;

  001e3	8b 45 70	 mov	 eax, DWORD PTR _this$[ebp]
  001e6	89 45 d8	 mov	 DWORD PTR $T30[ebp], eax

; 1538 :         return _Get_data()._Map;

  001e9	8b 45 d8	 mov	 eax, DWORD PTR $T30[ebp]
  001ec	83 c0 04	 add	 eax, 4
  001ef	89 45 d0	 mov	 DWORD PTR $T28[ebp], eax

; 1451 :             _Myptr = _STD uninitialized_copy(_Map(), _Map() + _Myboff, _Myptr); // copy rest of old

  001f2	ff 75 6c	 push	 DWORD PTR __Myptr$[ebp]
  001f5	8b 45 d4	 mov	 eax, DWORD PTR $T29[ebp]
  001f8	8b 00		 mov	 eax, DWORD PTR [eax]
  001fa	8b 4d 68	 mov	 ecx, DWORD PTR __Myboff$[ebp]
  001fd	8d 04 88	 lea	 eax, DWORD PTR [eax+ecx*4]
  00200	50		 push	 eax
  00201	8b 45 d0	 mov	 eax, DWORD PTR $T28[ebp]
  00204	ff 30		 push	 DWORD PTR [eax]
  00206	e8 00 00 00 00	 call	 ??$uninitialized_copy@PAPAPAVCArea@@PAPAPAV1@@std@@YAPAPAPAVCArea@@QAPAPAV1@0PAPAPAV1@@Z ; std::uninitialized_copy<CArea * * *,CArea * * *>
  0020b	83 c4 0c	 add	 esp, 12			; 0000000cH
  0020e	89 45 6c	 mov	 DWORD PTR __Myptr$[ebp], eax

; 1452 :             _Uninitialized_value_construct_n_unchecked1(_Myptr, _Count - _Myboff); // clear suffix of new

  00211	8b 45 7c	 mov	 eax, DWORD PTR __Count$[ebp]
  00214	2b 45 68	 sub	 eax, DWORD PTR __Myboff$[ebp]
  00217	50		 push	 eax
  00218	ff 75 6c	 push	 DWORD PTR __Myptr$[ebp]
  0021b	e8 00 00 00 00	 call	 ??$_Uninitialized_value_construct_n_unchecked1@PAPAPAVCArea@@I@std@@YAPAPAPAVCArea@@PAPAPAV1@I@Z ; std::_Uninitialized_value_construct_n_unchecked1<CArea * * *,unsigned int>
  00220	59		 pop	 ecx
  00221	59		 pop	 ecx

; 1453 :             _Uninitialized_value_construct_n_unchecked1(_Newmap, _Myboff); // clear prefix of new

  00222	ff 75 68	 push	 DWORD PTR __Myboff$[ebp]
  00225	ff 75 60	 push	 DWORD PTR __Newmap$[ebp]
  00228	e8 00 00 00 00	 call	 ??$_Uninitialized_value_construct_n_unchecked1@PAPAPAVCArea@@I@std@@YAPAPAPAVCArea@@PAPAPAV1@I@Z ; std::_Uninitialized_value_construct_n_unchecked1<CArea * * *,unsigned int>
  0022d	59		 pop	 ecx
  0022e	59		 pop	 ecx

; 1454 :         } else { // increment not greater than offset of initial block

  0022f	e9 8b 00 00 00	 jmp	 $LN7@Growmap
$LN6@Growmap:

; 1530 :         return _Mypair._Myval2;

  00234	8b 45 70	 mov	 eax, DWORD PTR _this$[ebp]
  00237	89 45 cc	 mov	 DWORD PTR $T27[ebp], eax

; 1538 :         return _Get_data()._Map;

  0023a	8b 45 cc	 mov	 eax, DWORD PTR $T27[ebp]
  0023d	83 c0 04	 add	 eax, 4
  00240	89 45 c4	 mov	 DWORD PTR $T25[ebp], eax

; 1530 :         return _Mypair._Myval2;

  00243	8b 45 70	 mov	 eax, DWORD PTR _this$[ebp]
  00246	89 45 c8	 mov	 DWORD PTR $T26[ebp], eax

; 1538 :         return _Get_data()._Map;

  00249	8b 45 c8	 mov	 eax, DWORD PTR $T26[ebp]
  0024c	83 c0 04	 add	 eax, 4
  0024f	89 45 c0	 mov	 DWORD PTR $T24[ebp], eax

; 1455 :             _STD uninitialized_copy(_Map(), _Map() + _Count, _Myptr); // copy more old

  00252	ff 75 6c	 push	 DWORD PTR __Myptr$[ebp]
  00255	8b 45 c4	 mov	 eax, DWORD PTR $T25[ebp]
  00258	8b 00		 mov	 eax, DWORD PTR [eax]
  0025a	8b 4d 7c	 mov	 ecx, DWORD PTR __Count$[ebp]
  0025d	8d 04 88	 lea	 eax, DWORD PTR [eax+ecx*4]
  00260	50		 push	 eax
  00261	8b 45 c0	 mov	 eax, DWORD PTR $T24[ebp]
  00264	ff 30		 push	 DWORD PTR [eax]
  00266	e8 00 00 00 00	 call	 ??$uninitialized_copy@PAPAPAVCArea@@PAPAPAV1@@std@@YAPAPAPAVCArea@@QAPAPAV1@0PAPAPAV1@@Z ; std::uninitialized_copy<CArea * * *,CArea * * *>
  0026b	83 c4 0c	 add	 esp, 12			; 0000000cH

; 1530 :         return _Mypair._Myval2;

  0026e	8b 45 70	 mov	 eax, DWORD PTR _this$[ebp]
  00271	89 45 bc	 mov	 DWORD PTR $T23[ebp], eax

; 1538 :         return _Get_data()._Map;

  00274	8b 45 bc	 mov	 eax, DWORD PTR $T23[ebp]
  00277	83 c0 04	 add	 eax, 4
  0027a	89 45 b4	 mov	 DWORD PTR $T21[ebp], eax

; 1530 :         return _Mypair._Myval2;

  0027d	8b 45 70	 mov	 eax, DWORD PTR _this$[ebp]
  00280	89 45 b8	 mov	 DWORD PTR $T22[ebp], eax

; 1538 :         return _Get_data()._Map;

  00283	8b 45 b8	 mov	 eax, DWORD PTR $T22[ebp]
  00286	83 c0 04	 add	 eax, 4
  00289	89 45 b0	 mov	 DWORD PTR $T20[ebp], eax

; 1456 :             _Myptr = _STD uninitialized_copy(_Map() + _Count, _Map() + _Myboff, _Newmap); // copy rest of old

  0028c	ff 75 60	 push	 DWORD PTR __Newmap$[ebp]
  0028f	8b 45 b4	 mov	 eax, DWORD PTR $T21[ebp]
  00292	8b 00		 mov	 eax, DWORD PTR [eax]
  00294	8b 4d 68	 mov	 ecx, DWORD PTR __Myboff$[ebp]
  00297	8d 04 88	 lea	 eax, DWORD PTR [eax+ecx*4]
  0029a	50		 push	 eax
  0029b	8b 45 b0	 mov	 eax, DWORD PTR $T20[ebp]
  0029e	8b 00		 mov	 eax, DWORD PTR [eax]
  002a0	8b 4d 7c	 mov	 ecx, DWORD PTR __Count$[ebp]
  002a3	8d 04 88	 lea	 eax, DWORD PTR [eax+ecx*4]
  002a6	50		 push	 eax
  002a7	e8 00 00 00 00	 call	 ??$uninitialized_copy@PAPAPAVCArea@@PAPAPAV1@@std@@YAPAPAPAVCArea@@QAPAPAV1@0PAPAPAV1@@Z ; std::uninitialized_copy<CArea * * *,CArea * * *>
  002ac	83 c4 0c	 add	 esp, 12			; 0000000cH
  002af	89 45 6c	 mov	 DWORD PTR __Myptr$[ebp], eax

; 1457 :             _Uninitialized_value_construct_n_unchecked1(_Myptr, _Count); // clear rest to initial block

  002b2	ff 75 7c	 push	 DWORD PTR __Count$[ebp]
  002b5	ff 75 6c	 push	 DWORD PTR __Myptr$[ebp]
  002b8	e8 00 00 00 00	 call	 ??$_Uninitialized_value_construct_n_unchecked1@PAPAPAVCArea@@I@std@@YAPAPAPAVCArea@@PAPAPAV1@I@Z ; std::_Uninitialized_value_construct_n_unchecked1<CArea * * *,unsigned int>
  002bd	59		 pop	 ecx
  002be	59		 pop	 ecx
$LN7@Growmap:

; 1530 :         return _Mypair._Myval2;

  002bf	8b 45 70	 mov	 eax, DWORD PTR _this$[ebp]
  002c2	89 45 ac	 mov	 DWORD PTR $T19[ebp], eax

; 1538 :         return _Get_data()._Map;

  002c5	8b 45 ac	 mov	 eax, DWORD PTR $T19[ebp]
  002c8	83 c0 04	 add	 eax, 4
  002cb	89 45 9c	 mov	 DWORD PTR $T15[ebp], eax

; 1530 :         return _Mypair._Myval2;

  002ce	8b 45 70	 mov	 eax, DWORD PTR _this$[ebp]
  002d1	89 45 a8	 mov	 DWORD PTR $T18[ebp], eax

; 1546 :         return _Get_data()._Mapsize;

  002d4	8b 45 a8	 mov	 eax, DWORD PTR $T18[ebp]
  002d7	83 c0 08	 add	 eax, 8
  002da	89 45 a0	 mov	 DWORD PTR $T16[ebp], eax

; 1530 :         return _Mypair._Myval2;

  002dd	8b 45 70	 mov	 eax, DWORD PTR _this$[ebp]
  002e0	89 45 a4	 mov	 DWORD PTR $T17[ebp], eax

; 1538 :         return _Get_data()._Map;

  002e3	8b 45 a4	 mov	 eax, DWORD PTR $T17[ebp]
  002e6	83 c0 04	 add	 eax, 4
  002e9	89 45 98	 mov	 DWORD PTR $T14[ebp], eax

; 1458 :         }
; 1459 : 
; 1460 :         _Destroy_range(_Map() + _Myboff, _Map() + _Mapsize());

  002ec	8b 45 a0	 mov	 eax, DWORD PTR $T16[ebp]
  002ef	8b 00		 mov	 eax, DWORD PTR [eax]
  002f1	8b 4d 9c	 mov	 ecx, DWORD PTR $T15[ebp]
  002f4	8b 09		 mov	 ecx, DWORD PTR [ecx]
  002f6	8d 04 81	 lea	 eax, DWORD PTR [ecx+eax*4]
  002f9	50		 push	 eax
  002fa	8b 45 98	 mov	 eax, DWORD PTR $T14[ebp]
  002fd	8b 00		 mov	 eax, DWORD PTR [eax]
  002ff	8b 4d 68	 mov	 ecx, DWORD PTR __Myboff$[ebp]
  00302	8d 04 88	 lea	 eax, DWORD PTR [eax+ecx*4]
  00305	50		 push	 eax
  00306	e8 00 00 00 00	 call	 ??$_Destroy_range@PAPAPAVCArea@@PAPAPAV1@@std@@YAXPAPAPAVCArea@@QAPAPAV1@@Z ; std::_Destroy_range<CArea * * *,CArea * * *>
  0030b	59		 pop	 ecx
  0030c	59		 pop	 ecx

; 1530 :         return _Mypair._Myval2;

  0030d	8b 45 70	 mov	 eax, DWORD PTR _this$[ebp]
  00310	89 45 94	 mov	 DWORD PTR $T13[ebp], eax

; 1538 :         return _Get_data()._Map;

  00313	8b 45 94	 mov	 eax, DWORD PTR $T13[ebp]
  00316	83 c0 04	 add	 eax, 4
  00319	89 45 90	 mov	 DWORD PTR $T12[ebp], eax

; 1461 :         if (_Map() != _Mapptr()) {

  0031c	8b 45 90	 mov	 eax, DWORD PTR $T12[ebp]
  0031f	83 38 00	 cmp	 DWORD PTR [eax], 0
  00322	74 4b		 je	 SHORT $LN8@Growmap

; 1530 :         return _Mypair._Myval2;

  00324	8b 45 70	 mov	 eax, DWORD PTR _this$[ebp]
  00327	89 45 8c	 mov	 DWORD PTR $T11[ebp], eax

; 1546 :         return _Get_data()._Mapsize;

  0032a	8b 45 8c	 mov	 eax, DWORD PTR $T11[ebp]
  0032d	83 c0 08	 add	 eax, 8
  00330	89 45 84	 mov	 DWORD PTR $T9[ebp], eax

; 1530 :         return _Mypair._Myval2;

  00333	8b 45 70	 mov	 eax, DWORD PTR _this$[ebp]
  00336	89 45 88	 mov	 DWORD PTR $T10[ebp], eax

; 1538 :         return _Get_data()._Map;

  00339	8b 45 88	 mov	 eax, DWORD PTR $T10[ebp]
  0033c	83 c0 04	 add	 eax, 4
  0033f	89 45 80	 mov	 DWORD PTR $T8[ebp], eax

; 1462 :             _Almap.deallocate(_Map(), _Mapsize()); // free storage for old

  00342	8b 45 84	 mov	 eax, DWORD PTR $T9[ebp]
  00345	8b 00		 mov	 eax, DWORD PTR [eax]
  00347	89 85 7c ff ff
	ff		 mov	 DWORD PTR __Count$[ebp], eax
  0034d	8b 45 80	 mov	 eax, DWORD PTR $T8[ebp]
  00350	8b 00		 mov	 eax, DWORD PTR [eax]
  00352	89 85 78 ff ff
	ff		 mov	 DWORD PTR __Ptr$[ebp], eax
; File C:\Program Files (x86)\Microsoft Visual Studio\2019\Community\VC\Tools\MSVC\14.28.29333\include\xmemory

; 810  :         _Deallocate<_New_alignof<_Ty>>(_Ptr, sizeof(_Ty) * _Count);

  00358	8b 85 7c ff ff
	ff		 mov	 eax, DWORD PTR __Count$[ebp]
  0035e	c1 e0 02	 shl	 eax, 2
  00361	50		 push	 eax
  00362	ff b5 78 ff ff
	ff		 push	 DWORD PTR __Ptr$[ebp]
  00368	e8 00 00 00 00	 call	 ??$_Deallocate@$07$0A@@std@@YAXPAXI@Z ; std::_Deallocate<8,0>
  0036d	59		 pop	 ecx
  0036e	59		 pop	 ecx
$LN8@Growmap:
; File C:\Program Files (x86)\Microsoft Visual Studio\2019\Community\VC\Tools\MSVC\14.28.29333\include\deque

; 1530 :         return _Mypair._Myval2;

  0036f	8b 45 70	 mov	 eax, DWORD PTR _this$[ebp]
  00372	89 85 74 ff ff
	ff		 mov	 DWORD PTR $T7[ebp], eax

; 1538 :         return _Get_data()._Map;

  00378	8b 85 74 ff ff
	ff		 mov	 eax, DWORD PTR $T7[ebp]
  0037e	83 c0 04	 add	 eax, 4
  00381	89 85 70 ff ff
	ff		 mov	 DWORD PTR $T6[ebp], eax

; 1463 :         }
; 1464 : 
; 1465 :         _Map() = _Newmap; // point at new

  00387	8b 85 70 ff ff
	ff		 mov	 eax, DWORD PTR $T6[ebp]
  0038d	8b 4d 60	 mov	 ecx, DWORD PTR __Newmap$[ebp]
  00390	89 08		 mov	 DWORD PTR [eax], ecx

; 1466 :         _Mapsize() += _Count;

  00392	8b 85 5c ff ff
	ff		 mov	 eax, DWORD PTR $T1[ebp]
  00398	89 45 58	 mov	 DWORD PTR tv214[ebp], eax

; 1530 :         return _Mypair._Myval2;

  0039b	8b 45 70	 mov	 eax, DWORD PTR _this$[ebp]
  0039e	89 85 6c ff ff
	ff		 mov	 DWORD PTR $T5[ebp], eax

; 1546 :         return _Get_data()._Mapsize;

  003a4	8b 85 6c ff ff
	ff		 mov	 eax, DWORD PTR $T5[ebp]
  003aa	83 c0 08	 add	 eax, 8
  003ad	89 45 58	 mov	 DWORD PTR tv214[ebp], eax

; 1466 :         _Mapsize() += _Count;

  003b0	8b 45 58	 mov	 eax, DWORD PTR tv214[ebp]
  003b3	8b 00		 mov	 eax, DWORD PTR [eax]
  003b5	03 45 7c	 add	 eax, DWORD PTR __Count$[ebp]
  003b8	8b 4d 58	 mov	 ecx, DWORD PTR tv214[ebp]
  003bb	89 01		 mov	 DWORD PTR [ecx], eax
$LN83@Growmap:

; 1467 :     }

  003bd	83 c5 74	 add	 ebp, 116		; 00000074H
  003c0	c9		 leave
  003c1	c2 04 00	 ret	 4
?_Growmap@?$deque@PAVCArea@@V?$allocator@PAVCArea@@@std@@@std@@AAEXI@Z ENDP ; std::deque<CArea *,std::allocator<CArea *> >::_Growmap
_TEXT	ENDS
; Function compile flags: /Odspy
; File C:\Program Files (x86)\Microsoft Visual Studio\2019\Community\VC\Tools\MSVC\14.28.29333\include\deque
;	COMDAT ?_Xlen@?$deque@PAVCArea@@V?$allocator@PAVCArea@@@std@@@std@@ABEXXZ
_TEXT	SEGMENT
_this$ = -4						; size = 4
?_Xlen@?$deque@PAVCArea@@V?$allocator@PAVCArea@@@std@@@std@@ABEXXZ PROC ; std::deque<CArea *,std::allocator<CArea *> >::_Xlen, COMDAT
; _this$ = ecx

; 1422 :     [[noreturn]] void _Xlen() const {

  00000	55		 push	 ebp
  00001	8b ec		 mov	 ebp, esp
  00003	51		 push	 ecx
  00004	89 4d fc	 mov	 DWORD PTR _this$[ebp], ecx

; 1423 :         _Xlength_error("deque<T> too long");

  00007	68 00 00 00 00	 push	 OFFSET ??_C@_0BC@KBDMBKEH@deque?$DMT?$DO?5too?5long@
  0000c	e8 00 00 00 00	 call	 ?_Xlength_error@std@@YAXPBD@Z ; std::_Xlength_error
$LN2@Xlen:

; 1424 :     }

  00011	c9		 leave
  00012	c3		 ret	 0
?_Xlen@?$deque@PAVCArea@@V?$allocator@PAVCArea@@@std@@@std@@ABEXXZ ENDP ; std::deque<CArea *,std::allocator<CArea *> >::_Xlen
_TEXT	ENDS
; Function compile flags: /Odspy
; File C:\Program Files (x86)\Microsoft Visual Studio\2019\Community\VC\Tools\MSVC\14.28.29333\include\deque
; File C:\Program Files (x86)\Microsoft Visual Studio\2019\Community\VC\Tools\MSVC\14.28.29333\include\xstddef
; File C:\Program Files (x86)\Microsoft Visual Studio\2019\Community\VC\Tools\MSVC\14.28.29333\include\deque
; File C:\Program Files (x86)\Microsoft Visual Studio\2019\Community\VC\Tools\MSVC\14.28.29333\include\xmemory
; File C:\Program Files (x86)\Microsoft Visual Studio\2019\Community\VC\Tools\MSVC\14.28.29333\include\deque
;	COMDAT ?pop_back@?$deque@PAVCArea@@V?$allocator@PAVCArea@@@std@@@std@@QAEXXZ
_TEXT	SEGMENT
$T1 = -80						; size = 4
$T2 = -76						; size = 4
$T3 = -72						; size = 4
$T4 = -68						; size = 4
$T5 = -64						; size = 4
$T6 = -60						; size = 4
$T7 = -56						; size = 4
__Ptr$ = -52						; size = 4
__Block$ = -48						; size = 4
$T8 = -44						; size = 4
$T9 = -40						; size = 4
$T10 = -36						; size = 4
$T11 = -32						; size = 4
$T12 = -28						; size = 4
$T13 = -24						; size = 4
$T14 = -20						; size = 4
$T15 = -16						; size = 4
__Newoff$ = -12						; size = 4
tv88 = -8						; size = 4
_this$ = -4						; size = 4
?pop_back@?$deque@PAVCArea@@V?$allocator@PAVCArea@@@std@@@std@@QAEXXZ PROC ; std::deque<CArea *,std::allocator<CArea *> >::pop_back, COMDAT
; _this$ = ecx

; 1126 :     void pop_back() noexcept /* strengthened */ {

  00000	55		 push	 ebp
  00001	8b ec		 mov	 ebp, esp
  00003	83 ec 50	 sub	 esp, 80			; 00000050H
  00006	89 4d fc	 mov	 DWORD PTR _this$[ebp], ecx

; 1530 :         return _Mypair._Myval2;

  00009	8b 45 fc	 mov	 eax, DWORD PTR _this$[ebp]
  0000c	89 45 f0	 mov	 DWORD PTR $T15[ebp], eax

; 1554 :         return _Get_data()._Myoff;

  0000f	8b 45 f0	 mov	 eax, DWORD PTR $T15[ebp]
  00012	83 c0 0c	 add	 eax, 12			; 0000000cH
  00015	89 45 e8	 mov	 DWORD PTR $T13[ebp], eax

; 1530 :         return _Mypair._Myval2;

  00018	8b 45 fc	 mov	 eax, DWORD PTR _this$[ebp]
  0001b	89 45 ec	 mov	 DWORD PTR $T14[ebp], eax

; 1562 :         return _Get_data()._Mysize;

  0001e	8b 45 ec	 mov	 eax, DWORD PTR $T14[ebp]
  00021	83 c0 10	 add	 eax, 16			; 00000010H
  00024	89 45 e4	 mov	 DWORD PTR $T12[ebp], eax

; 1127 : #if _ITERATOR_DEBUG_LEVEL == 2
; 1128 :         if (empty()) {
; 1129 :             _STL_REPORT_ERROR("deque empty before pop");
; 1130 :         } else { // something to erase, do it
; 1131 :             size_type _Newoff = _Myoff() + _Mysize() - 1;
; 1132 :             _Orphan_off(_Newoff);
; 1133 :             size_type _Block = _Getblock(_Newoff);
; 1134 :             _Alty_traits::destroy(_Getal(), _Unfancy(_Map()[_Block] + _Newoff % _DEQUESIZ));
; 1135 :             if (--_Mysize() == 0) {
; 1136 :                 _Myoff() = 0;
; 1137 :             }
; 1138 :         }
; 1139 : 
; 1140 : #else // _ITERATOR_DEBUG_LEVEL == 2
; 1141 :         size_type _Newoff = _Myoff() + _Mysize() - 1;

  00027	8b 45 e8	 mov	 eax, DWORD PTR $T13[ebp]
  0002a	8b 00		 mov	 eax, DWORD PTR [eax]
  0002c	8b 4d e4	 mov	 ecx, DWORD PTR $T12[ebp]
  0002f	8b 09		 mov	 ecx, DWORD PTR [ecx]
  00031	8d 44 08 ff	 lea	 eax, DWORD PTR [eax+ecx-1]
  00035	89 45 f4	 mov	 DWORD PTR __Newoff$[ebp], eax

; 1534 :         return _Mypair._Myval2;

  00038	8b 45 fc	 mov	 eax, DWORD PTR _this$[ebp]
  0003b	89 45 e0	 mov	 DWORD PTR $T11[ebp], eax

; 548  :         return (_Off / _DEQUESIZ) & (_Mapsize - 1);

  0003e	8b 45 f4	 mov	 eax, DWORD PTR __Newoff$[ebp]
  00041	c1 e8 02	 shr	 eax, 2
  00044	8b 4d e0	 mov	 ecx, DWORD PTR $T11[ebp]
  00047	8b 49 08	 mov	 ecx, DWORD PTR [ecx+8]
  0004a	49		 dec	 ecx
  0004b	23 c1		 and	 eax, ecx
  0004d	89 45 dc	 mov	 DWORD PTR $T10[ebp], eax

; 1514 :         return _Get_data()._Getblock(_Off);

  00050	8b 45 dc	 mov	 eax, DWORD PTR $T10[ebp]
  00053	89 45 d0	 mov	 DWORD PTR __Block$[ebp], eax

; 1530 :         return _Mypair._Myval2;

  00056	8b 45 fc	 mov	 eax, DWORD PTR _this$[ebp]
  00059	89 45 d8	 mov	 DWORD PTR $T9[ebp], eax

; 1538 :         return _Get_data()._Map;

  0005c	8b 45 d8	 mov	 eax, DWORD PTR $T9[ebp]
  0005f	83 c0 04	 add	 eax, 4
  00062	89 45 d4	 mov	 DWORD PTR $T8[ebp], eax

; 1142 :         size_type _Block  = _Getblock(_Newoff);
; 1143 :         _Alty_traits::destroy(_Getal(), _Unfancy(_Map()[_Block] + _Newoff % _DEQUESIZ));

  00065	8b 45 f4	 mov	 eax, DWORD PTR __Newoff$[ebp]
  00068	33 d2		 xor	 edx, edx
  0006a	6a 04		 push	 4
  0006c	59		 pop	 ecx
  0006d	f7 f1		 div	 ecx
  0006f	8b 45 d4	 mov	 eax, DWORD PTR $T8[ebp]
  00072	8b 00		 mov	 eax, DWORD PTR [eax]
  00074	8b 4d d0	 mov	 ecx, DWORD PTR __Block$[ebp]
  00077	8b 04 88	 mov	 eax, DWORD PTR [eax+ecx*4]
  0007a	8d 04 90	 lea	 eax, DWORD PTR [eax+edx*4]
  0007d	89 45 cc	 mov	 DWORD PTR __Ptr$[ebp], eax
; File C:\Program Files (x86)\Microsoft Visual Studio\2019\Community\VC\Tools\MSVC\14.28.29333\include\xstddef

; 289  :     return _Ptr;

  00080	8b 45 cc	 mov	 eax, DWORD PTR __Ptr$[ebp]
  00083	89 45 b8	 mov	 DWORD PTR $T3[ebp], eax
; File C:\Program Files (x86)\Microsoft Visual Studio\2019\Community\VC\Tools\MSVC\14.28.29333\include\deque

; 1522 :         return _Mypair._Get_first();

  00086	8b 45 fc	 mov	 eax, DWORD PTR _this$[ebp]
; File C:\Program Files (x86)\Microsoft Visual Studio\2019\Community\VC\Tools\MSVC\14.28.29333\include\xmemory

; 1347 :         return *this;

  00089	89 45 c8	 mov	 DWORD PTR $T7[ebp], eax
; File C:\Program Files (x86)\Microsoft Visual Studio\2019\Community\VC\Tools\MSVC\14.28.29333\include\deque

; 1522 :         return _Mypair._Get_first();

  0008c	8b 45 c8	 mov	 eax, DWORD PTR $T7[ebp]
  0008f	89 45 b4	 mov	 DWORD PTR $T2[ebp], eax

; 1144 :         if (--_Mysize() == 0) {

  00092	8b 45 b0	 mov	 eax, DWORD PTR $T1[ebp]
  00095	89 45 f8	 mov	 DWORD PTR tv88[ebp], eax

; 1530 :         return _Mypair._Myval2;

  00098	8b 45 fc	 mov	 eax, DWORD PTR _this$[ebp]
  0009b	89 45 c4	 mov	 DWORD PTR $T6[ebp], eax

; 1562 :         return _Get_data()._Mysize;

  0009e	8b 45 c4	 mov	 eax, DWORD PTR $T6[ebp]
  000a1	83 c0 10	 add	 eax, 16			; 00000010H
  000a4	89 45 f8	 mov	 DWORD PTR tv88[ebp], eax

; 1144 :         if (--_Mysize() == 0) {

  000a7	8b 45 f8	 mov	 eax, DWORD PTR tv88[ebp]
  000aa	8b 00		 mov	 eax, DWORD PTR [eax]
  000ac	48		 dec	 eax
  000ad	8b 4d f8	 mov	 ecx, DWORD PTR tv88[ebp]
  000b0	89 01		 mov	 DWORD PTR [ecx], eax
  000b2	8b 45 f8	 mov	 eax, DWORD PTR tv88[ebp]
  000b5	83 38 00	 cmp	 DWORD PTR [eax], 0
  000b8	75 15		 jne	 SHORT $LN3@pop_back

; 1530 :         return _Mypair._Myval2;

  000ba	8b 45 fc	 mov	 eax, DWORD PTR _this$[ebp]
  000bd	89 45 c0	 mov	 DWORD PTR $T5[ebp], eax

; 1554 :         return _Get_data()._Myoff;

  000c0	8b 45 c0	 mov	 eax, DWORD PTR $T5[ebp]
  000c3	83 c0 0c	 add	 eax, 12			; 0000000cH
  000c6	89 45 bc	 mov	 DWORD PTR $T4[ebp], eax

; 1145 :             _Myoff() = 0;

  000c9	8b 45 bc	 mov	 eax, DWORD PTR $T4[ebp]
  000cc	83 20 00	 and	 DWORD PTR [eax], 0
$LN3@pop_back:

; 1146 :         }
; 1147 : #endif // _ITERATOR_DEBUG_LEVEL == 2
; 1148 :     }

  000cf	c9		 leave
  000d0	c3		 ret	 0
?pop_back@?$deque@PAVCArea@@V?$allocator@PAVCArea@@@std@@@std@@QAEXXZ ENDP ; std::deque<CArea *,std::allocator<CArea *> >::pop_back
_TEXT	ENDS
; Function compile flags: /Odspy
; File C:\Program Files (x86)\Microsoft Visual Studio\2019\Community\VC\Tools\MSVC\14.28.29333\include\deque
; File C:\Program Files (x86)\Microsoft Visual Studio\2019\Community\VC\Tools\MSVC\14.28.29333\include\xstddef
; File C:\Program Files (x86)\Microsoft Visual Studio\2019\Community\VC\Tools\MSVC\14.28.29333\include\deque
; File C:\Program Files (x86)\Microsoft Visual Studio\2019\Community\VC\Tools\MSVC\14.28.29333\include\xmemory
; File C:\Program Files (x86)\Microsoft Visual Studio\2019\Community\VC\Tools\MSVC\14.28.29333\include\deque
;	COMDAT ?pop_front@?$deque@PAVCArea@@V?$allocator@PAVCArea@@@std@@@std@@QAEXXZ
_TEXT	SEGMENT
$T1 = -92						; size = 4
$T2 = -88						; size = 4
$T3 = -84						; size = 4
$T4 = -80						; size = 4
$T5 = -76						; size = 4
$T6 = -72						; size = 4
$T7 = -68						; size = 4
$T8 = -64						; size = 4
$T9 = -60						; size = 4
__Ptr$ = -56						; size = 4
__Block$ = -52						; size = 4
$T10 = -48						; size = 4
$T11 = -44						; size = 4
$T12 = -40						; size = 4
$T13 = -36						; size = 4
$T14 = -32						; size = 4
$T15 = -28						; size = 4
__Off$ = -24						; size = 4
$T16 = -20						; size = 4
$T17 = -16						; size = 4
tv93 = -12						; size = 4
tv86 = -8						; size = 4
_this$ = -4						; size = 4
?pop_front@?$deque@PAVCArea@@V?$allocator@PAVCArea@@@std@@@std@@QAEXXZ PROC ; std::deque<CArea *,std::allocator<CArea *> >::pop_front, COMDAT
; _this$ = ecx

; 1086 :     void pop_front() noexcept /* strengthened */ {

  00000	55		 push	 ebp
  00001	8b ec		 mov	 ebp, esp
  00003	83 ec 5c	 sub	 esp, 92			; 0000005cH
  00006	89 4d fc	 mov	 DWORD PTR _this$[ebp], ecx

; 1530 :         return _Mypair._Myval2;

  00009	8b 45 fc	 mov	 eax, DWORD PTR _this$[ebp]
  0000c	89 45 f0	 mov	 DWORD PTR $T17[ebp], eax

; 1554 :         return _Get_data()._Myoff;

  0000f	8b 45 f0	 mov	 eax, DWORD PTR $T17[ebp]
  00012	83 c0 0c	 add	 eax, 12			; 0000000cH
  00015	89 45 ec	 mov	 DWORD PTR $T16[ebp], eax

; 1087 : #if _ITERATOR_DEBUG_LEVEL == 2
; 1088 :         if (empty()) {
; 1089 :             _STL_REPORT_ERROR("deque empty before pop");
; 1090 :         } else { // something to erase, do it
; 1091 :             _Orphan_off(_Myoff());
; 1092 :             size_type _Block = _Getblock(_Myoff());
; 1093 :             _Alty_traits::destroy(_Getal(), _Unfancy(_Map()[_Block] + _Myoff() % _DEQUESIZ));
; 1094 :             if (--_Mysize() == 0) {
; 1095 :                 _Myoff() = 0;
; 1096 :             } else {
; 1097 :                 ++_Myoff();
; 1098 :             }
; 1099 :         }
; 1100 : 
; 1101 : #else // _ITERATOR_DEBUG_LEVEL == 2
; 1102 :         size_type _Block = _Getblock(_Myoff());

  00018	8b 45 ec	 mov	 eax, DWORD PTR $T16[ebp]
  0001b	8b 00		 mov	 eax, DWORD PTR [eax]
  0001d	89 45 e8	 mov	 DWORD PTR __Off$[ebp], eax

; 1534 :         return _Mypair._Myval2;

  00020	8b 45 fc	 mov	 eax, DWORD PTR _this$[ebp]
  00023	89 45 e4	 mov	 DWORD PTR $T15[ebp], eax

; 548  :         return (_Off / _DEQUESIZ) & (_Mapsize - 1);

  00026	8b 45 e8	 mov	 eax, DWORD PTR __Off$[ebp]
  00029	c1 e8 02	 shr	 eax, 2
  0002c	8b 4d e4	 mov	 ecx, DWORD PTR $T15[ebp]
  0002f	8b 49 08	 mov	 ecx, DWORD PTR [ecx+8]
  00032	49		 dec	 ecx
  00033	23 c1		 and	 eax, ecx
  00035	89 45 e0	 mov	 DWORD PTR $T14[ebp], eax

; 1514 :         return _Get_data()._Getblock(_Off);

  00038	8b 45 e0	 mov	 eax, DWORD PTR $T14[ebp]
  0003b	89 45 cc	 mov	 DWORD PTR __Block$[ebp], eax

; 1530 :         return _Mypair._Myval2;

  0003e	8b 45 fc	 mov	 eax, DWORD PTR _this$[ebp]
  00041	89 45 dc	 mov	 DWORD PTR $T13[ebp], eax

; 1538 :         return _Get_data()._Map;

  00044	8b 45 dc	 mov	 eax, DWORD PTR $T13[ebp]
  00047	83 c0 04	 add	 eax, 4
  0004a	89 45 d0	 mov	 DWORD PTR $T10[ebp], eax

; 1530 :         return _Mypair._Myval2;

  0004d	8b 45 fc	 mov	 eax, DWORD PTR _this$[ebp]
  00050	89 45 d8	 mov	 DWORD PTR $T12[ebp], eax

; 1554 :         return _Get_data()._Myoff;

  00053	8b 45 d8	 mov	 eax, DWORD PTR $T12[ebp]
  00056	83 c0 0c	 add	 eax, 12			; 0000000cH
  00059	89 45 d4	 mov	 DWORD PTR $T11[ebp], eax

; 1103 :         _Alty_traits::destroy(_Getal(), _Unfancy(_Map()[_Block] + _Myoff() % _DEQUESIZ));

  0005c	8b 45 d4	 mov	 eax, DWORD PTR $T11[ebp]
  0005f	8b 00		 mov	 eax, DWORD PTR [eax]
  00061	33 d2		 xor	 edx, edx
  00063	6a 04		 push	 4
  00065	59		 pop	 ecx
  00066	f7 f1		 div	 ecx
  00068	8b 45 d0	 mov	 eax, DWORD PTR $T10[ebp]
  0006b	8b 00		 mov	 eax, DWORD PTR [eax]
  0006d	8b 4d cc	 mov	 ecx, DWORD PTR __Block$[ebp]
  00070	8b 04 88	 mov	 eax, DWORD PTR [eax+ecx*4]
  00073	8d 04 90	 lea	 eax, DWORD PTR [eax+edx*4]
  00076	89 45 c8	 mov	 DWORD PTR __Ptr$[ebp], eax
; File C:\Program Files (x86)\Microsoft Visual Studio\2019\Community\VC\Tools\MSVC\14.28.29333\include\xstddef

; 289  :     return _Ptr;

  00079	8b 45 c8	 mov	 eax, DWORD PTR __Ptr$[ebp]
  0007c	89 45 b0	 mov	 DWORD PTR $T4[ebp], eax
; File C:\Program Files (x86)\Microsoft Visual Studio\2019\Community\VC\Tools\MSVC\14.28.29333\include\deque

; 1522 :         return _Mypair._Get_first();

  0007f	8b 45 fc	 mov	 eax, DWORD PTR _this$[ebp]
; File C:\Program Files (x86)\Microsoft Visual Studio\2019\Community\VC\Tools\MSVC\14.28.29333\include\xmemory

; 1347 :         return *this;

  00082	89 45 c4	 mov	 DWORD PTR $T9[ebp], eax
; File C:\Program Files (x86)\Microsoft Visual Studio\2019\Community\VC\Tools\MSVC\14.28.29333\include\deque

; 1522 :         return _Mypair._Get_first();

  00085	8b 45 c4	 mov	 eax, DWORD PTR $T9[ebp]
  00088	89 45 ac	 mov	 DWORD PTR $T3[ebp], eax

; 1104 :         if (--_Mysize() == 0) {

  0008b	8b 45 a8	 mov	 eax, DWORD PTR $T2[ebp]
  0008e	89 45 f8	 mov	 DWORD PTR tv86[ebp], eax

; 1530 :         return _Mypair._Myval2;

  00091	8b 45 fc	 mov	 eax, DWORD PTR _this$[ebp]
  00094	89 45 c0	 mov	 DWORD PTR $T8[ebp], eax

; 1562 :         return _Get_data()._Mysize;

  00097	8b 45 c0	 mov	 eax, DWORD PTR $T8[ebp]
  0009a	83 c0 10	 add	 eax, 16			; 00000010H
  0009d	89 45 f8	 mov	 DWORD PTR tv86[ebp], eax

; 1104 :         if (--_Mysize() == 0) {

  000a0	8b 45 f8	 mov	 eax, DWORD PTR tv86[ebp]
  000a3	8b 00		 mov	 eax, DWORD PTR [eax]
  000a5	48		 dec	 eax
  000a6	8b 4d f8	 mov	 ecx, DWORD PTR tv86[ebp]
  000a9	89 01		 mov	 DWORD PTR [ecx], eax
  000ab	8b 45 f8	 mov	 eax, DWORD PTR tv86[ebp]
  000ae	83 38 00	 cmp	 DWORD PTR [eax], 0
  000b1	75 17		 jne	 SHORT $LN2@pop_front

; 1530 :         return _Mypair._Myval2;

  000b3	8b 45 fc	 mov	 eax, DWORD PTR _this$[ebp]
  000b6	89 45 bc	 mov	 DWORD PTR $T7[ebp], eax

; 1554 :         return _Get_data()._Myoff;

  000b9	8b 45 bc	 mov	 eax, DWORD PTR $T7[ebp]
  000bc	83 c0 0c	 add	 eax, 12			; 0000000cH
  000bf	89 45 b8	 mov	 DWORD PTR $T6[ebp], eax

; 1105 :             _Myoff() = 0;

  000c2	8b 45 b8	 mov	 eax, DWORD PTR $T6[ebp]
  000c5	83 20 00	 and	 DWORD PTR [eax], 0

; 1106 :         } else {

  000c8	eb 20		 jmp	 SHORT $LN4@pop_front
$LN2@pop_front:

; 1107 :             ++_Myoff();

  000ca	8b 45 a4	 mov	 eax, DWORD PTR $T1[ebp]
  000cd	89 45 f4	 mov	 DWORD PTR tv93[ebp], eax

; 1530 :         return _Mypair._Myval2;

  000d0	8b 45 fc	 mov	 eax, DWORD PTR _this$[ebp]
  000d3	89 45 b4	 mov	 DWORD PTR $T5[ebp], eax

; 1554 :         return _Get_data()._Myoff;

  000d6	8b 45 b4	 mov	 eax, DWORD PTR $T5[ebp]
  000d9	83 c0 0c	 add	 eax, 12			; 0000000cH
  000dc	89 45 f4	 mov	 DWORD PTR tv93[ebp], eax

; 1107 :             ++_Myoff();

  000df	8b 45 f4	 mov	 eax, DWORD PTR tv93[ebp]
  000e2	8b 00		 mov	 eax, DWORD PTR [eax]
  000e4	40		 inc	 eax
  000e5	8b 4d f4	 mov	 ecx, DWORD PTR tv93[ebp]
  000e8	89 01		 mov	 DWORD PTR [ecx], eax
$LN4@pop_front:

; 1108 :         }
; 1109 : #endif // _ITERATOR_DEBUG_LEVEL == 2
; 1110 :     }

  000ea	c9		 leave
  000eb	c3		 ret	 0
?pop_front@?$deque@PAVCArea@@V?$allocator@PAVCArea@@@std@@@std@@QAEXXZ ENDP ; std::deque<CArea *,std::allocator<CArea *> >::pop_front
_TEXT	ENDS
; Function compile flags: /Odspy
; File C:\Program Files (x86)\Microsoft Visual Studio\2019\Community\VC\Tools\MSVC\14.28.29333\include\deque
; File C:\Program Files (x86)\Microsoft Visual Studio\2019\Community\VC\Tools\MSVC\14.28.29333\include\xstddef
; File C:\Program Files (x86)\Microsoft Visual Studio\2019\Community\VC\Tools\MSVC\14.28.29333\include\deque
;	COMDAT ?front@?$deque@PAVCArea@@V?$allocator@PAVCArea@@@std@@@std@@QAEAAPAVCArea@@XZ
_TEXT	SEGMENT
$T1 = -40						; size = 8
$T2 = -32						; size = 4
$T3 = -28						; size = 4
___param0$ = -24					; size = 4
$T4 = -20						; size = 4
$T5 = -16						; size = 4
$T6 = -12						; size = 4
$T7 = -8						; size = 4
_this$ = -4						; size = 4
?front@?$deque@PAVCArea@@V?$allocator@PAVCArea@@@std@@@std@@QAEAAPAVCArea@@XZ PROC ; std::deque<CArea *,std::allocator<CArea *> >::front, COMDAT
; _this$ = ecx

; 1047 :     _NODISCARD reference front() noexcept /* strengthened */ {

  00000	55		 push	 ebp
  00001	8b ec		 mov	 ebp, esp
  00003	83 ec 28	 sub	 esp, 40			; 00000028H
  00006	89 4d fc	 mov	 DWORD PTR _this$[ebp], ecx

; 1530 :         return _Mypair._Myval2;

  00009	8b 45 fc	 mov	 eax, DWORD PTR _this$[ebp]
  0000c	89 45 f8	 mov	 DWORD PTR $T7[ebp], eax
; File C:\Program Files (x86)\Microsoft Visual Studio\2019\Community\VC\Tools\MSVC\14.28.29333\include\xstddef

; 275  :     return __builtin_addressof(_Val);

  0000f	8b 45 f8	 mov	 eax, DWORD PTR $T7[ebp]
  00012	89 45 ec	 mov	 DWORD PTR $T4[ebp], eax
; File C:\Program Files (x86)\Microsoft Visual Studio\2019\Community\VC\Tools\MSVC\14.28.29333\include\deque

; 1530 :         return _Mypair._Myval2;

  00015	8b 45 fc	 mov	 eax, DWORD PTR _this$[ebp]
  00018	89 45 f4	 mov	 DWORD PTR $T6[ebp], eax

; 1554 :         return _Get_data()._Myoff;

  0001b	8b 45 f4	 mov	 eax, DWORD PTR $T6[ebp]
  0001e	83 c0 0c	 add	 eax, 12			; 0000000cH
  00021	89 45 f0	 mov	 DWORD PTR $T5[ebp], eax

; 914  :         return _Unchecked_iterator(_Myoff(), _STD addressof(_Get_data()));

  00024	8b 45 f0	 mov	 eax, DWORD PTR $T5[ebp]
  00027	8b 00		 mov	 eax, DWORD PTR [eax]
  00029	89 45 e8	 mov	 DWORD PTR ___param0$[ebp], eax

; 52   :         : _Mycont(static_cast<const _Mydeque*>(_Pdeque)), _Myoff(_Off) {}

  0002c	8b 45 ec	 mov	 eax, DWORD PTR $T4[ebp]
  0002f	89 45 d8	 mov	 DWORD PTR $T1[ebp], eax
  00032	8b 45 e8	 mov	 eax, DWORD PTR ___param0$[ebp]
  00035	89 45 dc	 mov	 DWORD PTR $T1[ebp+4], eax

; 914  :         return _Unchecked_iterator(_Myoff(), _STD addressof(_Get_data()));

  00038	8d 45 d8	 lea	 eax, DWORD PTR $T1[ebp]
  0003b	89 45 e4	 mov	 DWORD PTR $T3[ebp], eax

; 171  :         return const_cast<reference>(_Mybase::operator*());

  0003e	8b 4d e4	 mov	 ecx, DWORD PTR $T3[ebp]
  00041	e8 00 00 00 00	 call	 ??D?$_Deque_unchecked_const_iterator@V?$_Deque_val@U?$_Deque_simple_types@PAVCArea@@@std@@@std@@@std@@QBEABQAVCArea@@XZ ; std::_Deque_unchecked_const_iterator<std::_Deque_val<std::_Deque_simple_types<CArea *> > >::operator*
  00046	89 45 e0	 mov	 DWORD PTR $T2[ebp], eax

; 1048 : #if _CONTAINER_DEBUG_LEVEL > 0
; 1049 :         _STL_VERIFY(!empty(), "front() called on empty deque");
; 1050 : #endif // _CONTAINER_DEBUG_LEVEL > 0
; 1051 : 
; 1052 :         return *_Unchecked_begin();

  00049	8b 45 e0	 mov	 eax, DWORD PTR $T2[ebp]

; 1053 :     }

  0004c	c9		 leave
  0004d	c3		 ret	 0
?front@?$deque@PAVCArea@@V?$allocator@PAVCArea@@@std@@@std@@QAEAAPAVCArea@@XZ ENDP ; std::deque<CArea *,std::allocator<CArea *> >::front
_TEXT	ENDS
; Function compile flags: /Odspy
; File C:\Program Files (x86)\Microsoft Visual Studio\2019\Community\VC\Tools\MSVC\14.28.29333\include\deque
; File C:\Program Files (x86)\Microsoft Visual Studio\2019\Community\VC\Tools\MSVC\14.28.29333\include\xmemory
; File C:\Program Files (x86)\Microsoft Visual Studio\2019\Community\VC\Tools\MSVC\14.28.29333\include\deque
; File C:\Program Files (x86)\Microsoft Visual Studio\2019\Community\VC\Tools\MSVC\14.28.29333\include\utility
; File C:\Program Files (x86)\Microsoft Visual Studio\2019\Community\VC\Tools\MSVC\14.28.29333\include\deque
;	COMDAT ??1?$deque@PAVCArea@@V?$allocator@PAVCArea@@@std@@@std@@QAE@XZ
_TEXT	SEGMENT
$T1 = -32						; size = 4
$T2 = -28						; size = 4
__Old_val$3 = -24					; size = 4
$T4 = -20						; size = 4
$T5 = -16						; size = 4
$T6 = -12						; size = 4
_this$ = -8						; size = 4
__Proxy_allocator$ = -1					; size = 1
??1?$deque@PAVCArea@@V?$allocator@PAVCArea@@@std@@@std@@QAE@XZ PROC ; std::deque<CArea *,std::allocator<CArea *> >::~deque<CArea *,std::allocator<CArea *> >, COMDAT
; _this$ = ecx

; 869  :     ~deque() noexcept {

  00000	55		 push	 ebp
  00001	8b ec		 mov	 ebp, esp
  00003	83 ec 20	 sub	 esp, 32			; 00000020H
  00006	89 4d f8	 mov	 DWORD PTR _this$[ebp], ecx

; 870  :         _Tidy();

  00009	8b 4d f8	 mov	 ecx, DWORD PTR _this$[ebp]
  0000c	e8 00 00 00 00	 call	 ?_Tidy@?$deque@PAVCArea@@V?$allocator@PAVCArea@@@std@@@std@@AAEXXZ ; std::deque<CArea *,std::allocator<CArea *> >::_Tidy

; 1522 :         return _Mypair._Get_first();

  00011	8b 45 f8	 mov	 eax, DWORD PTR _this$[ebp]
; File C:\Program Files (x86)\Microsoft Visual Studio\2019\Community\VC\Tools\MSVC\14.28.29333\include\xmemory

; 1347 :         return *this;

  00014	89 45 f0	 mov	 DWORD PTR $T5[ebp], eax
; File C:\Program Files (x86)\Microsoft Visual Studio\2019\Community\VC\Tools\MSVC\14.28.29333\include\deque

; 1522 :         return _Mypair._Get_first();

  00017	8b 45 f0	 mov	 eax, DWORD PTR $T5[ebp]
  0001a	89 45 e0	 mov	 DWORD PTR $T1[ebp], eax

; 872  :         _Delete_plain_internal(_Proxy_allocator, _STD exchange(_Get_data()._Myproxy, nullptr));

  0001d	83 65 ec 00	 and	 DWORD PTR $T4[ebp], 0

; 1530 :         return _Mypair._Myval2;

  00021	8b 45 f8	 mov	 eax, DWORD PTR _this$[ebp]
  00024	89 45 f4	 mov	 DWORD PTR $T6[ebp], eax
; File C:\Program Files (x86)\Microsoft Visual Studio\2019\Community\VC\Tools\MSVC\14.28.29333\include\utility

; 598  :     _Ty _Old_val = static_cast<_Ty&&>(_Val);

  00027	8b 45 f4	 mov	 eax, DWORD PTR $T6[ebp]
  0002a	8b 00		 mov	 eax, DWORD PTR [eax]
  0002c	89 45 e8	 mov	 DWORD PTR __Old_val$3[ebp], eax

; 599  :     _Val         = static_cast<_Other&&>(_New_val);

  0002f	8b 45 f4	 mov	 eax, DWORD PTR $T6[ebp]
  00032	8b 4d ec	 mov	 ecx, DWORD PTR $T4[ebp]
  00035	89 08		 mov	 DWORD PTR [eax], ecx

; 600  :     return _Old_val;

  00037	8b 45 e8	 mov	 eax, DWORD PTR __Old_val$3[ebp]
  0003a	89 45 e4	 mov	 DWORD PTR $T2[ebp], eax
; File C:\Program Files (x86)\Microsoft Visual Studio\2019\Community\VC\Tools\MSVC\14.28.29333\include\deque

; 872  :         _Delete_plain_internal(_Proxy_allocator, _STD exchange(_Get_data()._Myproxy, nullptr));

  0003d	ff 75 e4	 push	 DWORD PTR $T2[ebp]
  00040	8d 45 ff	 lea	 eax, DWORD PTR __Proxy_allocator$[ebp]
  00043	50		 push	 eax
  00044	e8 00 00 00 00	 call	 ??$_Delete_plain_internal@V?$allocator@U_Container_proxy@std@@@std@@@std@@YAXAAV?$allocator@U_Container_proxy@std@@@0@QAU_Container_proxy@0@@Z ; std::_Delete_plain_internal<std::allocator<std::_Container_proxy> >
  00049	59		 pop	 ecx
  0004a	59		 pop	 ecx

; 873  :     }

  0004b	c9		 leave
  0004c	c3		 ret	 0
??1?$deque@PAVCArea@@V?$allocator@PAVCArea@@@std@@@std@@QAE@XZ ENDP ; std::deque<CArea *,std::allocator<CArea *> >::~deque<CArea *,std::allocator<CArea *> >
_TEXT	ENDS
; Function compile flags: /Odspy
; File C:\Program Files (x86)\Microsoft Visual Studio\2019\Community\VC\Tools\MSVC\14.28.29333\include\deque
; File C:\Program Files (x86)\Microsoft Visual Studio\2019\Community\VC\Tools\MSVC\14.28.29333\include\xmemory
; File C:\Program Files (x86)\Microsoft Visual Studio\2019\Community\VC\Tools\MSVC\14.28.29333\include\deque
; File C:\Program Files (x86)\Microsoft Visual Studio\2019\Community\VC\Tools\MSVC\14.28.29333\include\xmemory
; File C:\Program Files (x86)\Microsoft Visual Studio\2019\Community\VC\Tools\MSVC\14.28.29333\include\deque
;	COMDAT ??0?$deque@PAVCArea@@V?$allocator@PAVCArea@@@std@@@std@@QAE@XZ
_TEXT	SEGMENT
$T1 = -24						; size = 4
$T2 = -20						; size = 4
$T3 = -16						; size = 4
_this$ = -12						; size = 4
_this$ = -8						; size = 4
$T4 = -1						; size = 1
??0?$deque@PAVCArea@@V?$allocator@PAVCArea@@@std@@@std@@QAE@XZ PROC ; std::deque<CArea *,std::allocator<CArea *> >::deque<CArea *,std::allocator<CArea *> >, COMDAT
; _this$ = ecx

; 596  :     deque() : _Mypair(_Zero_then_variadic_args_t{}) {

  00000	55		 push	 ebp
  00001	8b ec		 mov	 ebp, esp
  00003	83 ec 18	 sub	 esp, 24			; 00000018H
  00006	89 4d f8	 mov	 DWORD PTR _this$[ebp], ecx
  00009	8b 45 f8	 mov	 eax, DWORD PTR _this$[ebp]
  0000c	89 45 f4	 mov	 DWORD PTR _this$[ebp], eax
; File C:\Program Files (x86)\Microsoft Visual Studio\2019\Community\VC\Tools\MSVC\14.28.29333\include\xmemory

; 1339 :         : _Ty1(), _Myval2(_STD forward<_Other2>(_Val2)...) {}

  0000f	8b 4d f4	 mov	 ecx, DWORD PTR _this$[ebp]
  00012	e8 00 00 00 00	 call	 ??0?$_Deque_val@U?$_Deque_simple_types@PAVCArea@@@std@@@std@@QAE@XZ ; std::_Deque_val<std::_Deque_simple_types<CArea *> >::_Deque_val<std::_Deque_simple_types<CArea *> >
; File C:\Program Files (x86)\Microsoft Visual Studio\2019\Community\VC\Tools\MSVC\14.28.29333\include\deque

; 1522 :         return _Mypair._Get_first();

  00017	8b 45 f8	 mov	 eax, DWORD PTR _this$[ebp]
; File C:\Program Files (x86)\Microsoft Visual Studio\2019\Community\VC\Tools\MSVC\14.28.29333\include\xmemory

; 1347 :         return *this;

  0001a	89 45 f0	 mov	 DWORD PTR $T3[ebp], eax
; File C:\Program Files (x86)\Microsoft Visual Studio\2019\Community\VC\Tools\MSVC\14.28.29333\include\deque

; 1522 :         return _Mypair._Get_first();

  0001d	8b 45 f0	 mov	 eax, DWORD PTR $T3[ebp]
  00020	89 45 e8	 mov	 DWORD PTR $T1[ebp], eax

; 1530 :         return _Mypair._Myval2;

  00023	8b 45 f8	 mov	 eax, DWORD PTR _this$[ebp]
  00026	89 45 ec	 mov	 DWORD PTR $T2[ebp], eax

; 597  :         _Get_data()._Alloc_proxy(static_cast<_Alproxy_ty>(_Getal()));

  00029	8d 45 ff	 lea	 eax, DWORD PTR $T4[ebp]
  0002c	50		 push	 eax
  0002d	8b 4d ec	 mov	 ecx, DWORD PTR $T2[ebp]
  00030	e8 00 00 00 00	 call	 ??$_Alloc_proxy@V?$allocator@U_Container_proxy@std@@@std@@@_Container_base12@std@@QAEX$$QAV?$allocator@U_Container_proxy@std@@@1@@Z ; std::_Container_base12::_Alloc_proxy<std::allocator<std::_Container_proxy> >

; 598  :     }

  00035	8b 45 f8	 mov	 eax, DWORD PTR _this$[ebp]
  00038	c9		 leave
  00039	c3		 ret	 0
??0?$deque@PAVCArea@@V?$allocator@PAVCArea@@@std@@@std@@QAE@XZ ENDP ; std::deque<CArea *,std::allocator<CArea *> >::deque<CArea *,std::allocator<CArea *> >
_TEXT	ENDS
; Function compile flags: /Odspy
; File C:\Program Files (x86)\Microsoft Visual Studio\2019\Community\VC\Tools\MSVC\14.28.29333\include\deque
; File C:\Program Files (x86)\Microsoft Visual Studio\2019\Community\VC\Tools\MSVC\14.28.29333\include\xmemory
; File C:\Program Files (x86)\Microsoft Visual Studio\2019\Community\VC\Tools\MSVC\14.28.29333\include\deque
;	COMDAT ??0?$_Deque_val@U?$_Deque_simple_types@PAVCTerrain@@@std@@@std@@QAE@XZ
_TEXT	SEGMENT
_this$ = -4						; size = 4
??0?$_Deque_val@U?$_Deque_simple_types@PAVCTerrain@@@std@@@std@@QAE@XZ PROC ; std::_Deque_val<std::_Deque_simple_types<CTerrain *> >::_Deque_val<std::_Deque_simple_types<CTerrain *> >, COMDAT
; _this$ = ecx

; 544  :     _Deque_val() noexcept : _Map(), _Mapsize(0), _Myoff(0), _Mysize(0) {}

  00000	55		 push	 ebp
  00001	8b ec		 mov	 ebp, esp
  00003	51		 push	 ecx
  00004	89 4d fc	 mov	 DWORD PTR _this$[ebp], ecx
; File C:\Program Files (x86)\Microsoft Visual Studio\2019\Community\VC\Tools\MSVC\14.28.29333\include\xmemory

; 1097 :     _Container_base12() noexcept : _Myproxy(nullptr) {}

  00007	8b 45 fc	 mov	 eax, DWORD PTR _this$[ebp]
  0000a	83 20 00	 and	 DWORD PTR [eax], 0
; File C:\Program Files (x86)\Microsoft Visual Studio\2019\Community\VC\Tools\MSVC\14.28.29333\include\deque

; 544  :     _Deque_val() noexcept : _Map(), _Mapsize(0), _Myoff(0), _Mysize(0) {}

  0000d	8b 45 fc	 mov	 eax, DWORD PTR _this$[ebp]
  00010	83 60 04 00	 and	 DWORD PTR [eax+4], 0
  00014	8b 45 fc	 mov	 eax, DWORD PTR _this$[ebp]
  00017	83 60 08 00	 and	 DWORD PTR [eax+8], 0
  0001b	8b 45 fc	 mov	 eax, DWORD PTR _this$[ebp]
  0001e	83 60 0c 00	 and	 DWORD PTR [eax+12], 0
  00022	8b 45 fc	 mov	 eax, DWORD PTR _this$[ebp]
  00025	83 60 10 00	 and	 DWORD PTR [eax+16], 0
  00029	8b 45 fc	 mov	 eax, DWORD PTR _this$[ebp]
  0002c	c9		 leave
  0002d	c3		 ret	 0
??0?$_Deque_val@U?$_Deque_simple_types@PAVCTerrain@@@std@@@std@@QAE@XZ ENDP ; std::_Deque_val<std::_Deque_simple_types<CTerrain *> >::_Deque_val<std::_Deque_simple_types<CTerrain *> >
_TEXT	ENDS
; Function compile flags: /Odspy
; File C:\Program Files (x86)\Microsoft Visual Studio\2019\Community\VC\Tools\MSVC\14.28.29333\include\deque
; File C:\Program Files (x86)\Microsoft Visual Studio\2019\Community\VC\Tools\MSVC\14.28.29333\include\xmemory
; File C:\Program Files (x86)\Microsoft Visual Studio\2019\Community\VC\Tools\MSVC\14.28.29333\include\deque
; File C:\Program Files (x86)\Microsoft Visual Studio\2019\Community\VC\Tools\MSVC\14.28.29333\include\xmemory
; File C:\Program Files (x86)\Microsoft Visual Studio\2019\Community\VC\Tools\MSVC\14.28.29333\include\deque
; File C:\Program Files (x86)\Microsoft Visual Studio\2019\Community\VC\Tools\MSVC\14.28.29333\include\xmemory
; File C:\Program Files (x86)\Microsoft Visual Studio\2019\Community\VC\Tools\MSVC\14.28.29333\include\deque
; File C:\Program Files (x86)\Microsoft Visual Studio\2019\Community\VC\Tools\MSVC\14.28.29333\include\xmemory
; File C:\Program Files (x86)\Microsoft Visual Studio\2019\Community\VC\Tools\MSVC\14.28.29333\include\deque
;	COMDAT ?_Tidy@?$deque@PAVCTerrain@@V?$allocator@PAVCTerrain@@@std@@@std@@AAEXXZ
_TEXT	SEGMENT
$T1 = -128						; size = 4
$T2 = -124						; size = 4
$T3 = -120						; size = 4
$T4 = -116						; size = 4
$T5 = -112						; size = 4
$T6 = -108						; size = 4
$T7 = -104						; size = 4
__Ptr$ = -100						; size = 4
__Count$ = -96						; size = 4
$T8 = -92						; size = 4
$T9 = -88						; size = 4
$T10 = -84						; size = 4
$T11 = -80						; size = 4
$T12 = -76						; size = 4
$T13 = -72						; size = 4
$T14 = -68						; size = 4
$T15 = -64						; size = 4
__Ptr$ = -60						; size = 4
$T16 = -56						; size = 4
$T17 = -52						; size = 4
$T18 = -48						; size = 4
$T19 = -44						; size = 4
$T20 = -40						; size = 4
$T21 = -36						; size = 4
$T22 = -32						; size = 4
$T23 = -28						; size = 4
$T24 = -24						; size = 4
$T25 = -20						; size = 4
tv149 = -16						; size = 4
__Block$26 = -12					; size = 4
_this$ = -8						; size = 4
$T27 = -1						; size = 1
?_Tidy@?$deque@PAVCTerrain@@V?$allocator@PAVCTerrain@@@std@@@std@@AAEXXZ PROC ; std::deque<CTerrain *,std::allocator<CTerrain *> >::_Tidy, COMDAT
; _this$ = ecx

; 1469 :     void _Tidy() noexcept { // free all storage

  00000	55		 push	 ebp
  00001	8b ec		 mov	 ebp, esp
  00003	81 ec 80 00 00
	00		 sub	 esp, 128		; 00000080H
  00009	89 4d f8	 mov	 DWORD PTR _this$[ebp], ecx

; 1530 :         return _Mypair._Myval2;

  0000c	8b 45 f8	 mov	 eax, DWORD PTR _this$[ebp]
  0000f	89 45 88	 mov	 DWORD PTR $T3[ebp], eax

; 1522 :         return _Mypair._Get_first();

  00012	8b 45 f8	 mov	 eax, DWORD PTR _this$[ebp]
; File C:\Program Files (x86)\Microsoft Visual Studio\2019\Community\VC\Tools\MSVC\14.28.29333\include\xmemory

; 1347 :         return *this;

  00015	89 45 ec	 mov	 DWORD PTR $T25[ebp], eax
; File C:\Program Files (x86)\Microsoft Visual Studio\2019\Community\VC\Tools\MSVC\14.28.29333\include\deque

; 1522 :         return _Mypair._Get_first();

  00018	8b 45 ec	 mov	 eax, DWORD PTR $T25[ebp]
  0001b	89 45 84	 mov	 DWORD PTR $T2[ebp], eax
$LN2@Tidy:

; 1534 :         return _Mypair._Myval2;

  0001e	8b 45 f8	 mov	 eax, DWORD PTR _this$[ebp]
  00021	89 45 e8	 mov	 DWORD PTR $T24[ebp], eax

; 1566 :         return _Get_data()._Mysize;

  00024	8b 45 e8	 mov	 eax, DWORD PTR $T24[ebp]
  00027	83 c0 10	 add	 eax, 16			; 00000010H
  0002a	89 45 e4	 mov	 DWORD PTR $T23[ebp], eax

; 1010 :         return _Mysize() == 0;

  0002d	8b 45 e4	 mov	 eax, DWORD PTR $T23[ebp]
  00030	83 38 00	 cmp	 DWORD PTR [eax], 0
  00033	75 09		 jne	 SHORT $LN30@Tidy
  00035	c7 45 f0 01 00
	00 00		 mov	 DWORD PTR tv149[ebp], 1
  0003c	eb 04		 jmp	 SHORT $LN31@Tidy
$LN30@Tidy:
  0003e	83 65 f0 00	 and	 DWORD PTR tv149[ebp], 0
$LN31@Tidy:
  00042	8a 45 f0	 mov	 al, BYTE PTR tv149[ebp]
  00045	88 45 ff	 mov	 BYTE PTR $T27[ebp], al

; 1470 :         _Orphan_all();
; 1471 : 
; 1472 :         _Alpty _Almap(_Getal());
; 1473 :         while (!empty()) {

  00048	0f b6 45 ff	 movzx	 eax, BYTE PTR $T27[ebp]
  0004c	85 c0		 test	 eax, eax
  0004e	75 0a		 jne	 SHORT $LN3@Tidy

; 1474 :             pop_back();

  00050	8b 4d f8	 mov	 ecx, DWORD PTR _this$[ebp]
  00053	e8 00 00 00 00	 call	 ?pop_back@?$deque@PAVCTerrain@@V?$allocator@PAVCTerrain@@@std@@@std@@QAEXXZ ; std::deque<CTerrain *,std::allocator<CTerrain *> >::pop_back

; 1475 :         }

  00058	eb c4		 jmp	 SHORT $LN2@Tidy
$LN3@Tidy:

; 1530 :         return _Mypair._Myval2;

  0005a	8b 45 f8	 mov	 eax, DWORD PTR _this$[ebp]
  0005d	89 45 e0	 mov	 DWORD PTR $T22[ebp], eax

; 1546 :         return _Get_data()._Mapsize;

  00060	8b 45 e0	 mov	 eax, DWORD PTR $T22[ebp]
  00063	83 c0 08	 add	 eax, 8
  00066	89 45 dc	 mov	 DWORD PTR $T21[ebp], eax

; 1476 : 
; 1477 :         for (size_type _Block = _Mapsize(); 0 < _Block;) { // free storage for a block and destroy pointer

  00069	8b 45 dc	 mov	 eax, DWORD PTR $T21[ebp]
  0006c	8b 00		 mov	 eax, DWORD PTR [eax]
  0006e	89 45 f4	 mov	 DWORD PTR __Block$26[ebp], eax
$LN6@Tidy:
  00071	83 7d f4 00	 cmp	 DWORD PTR __Block$26[ebp], 0
  00075	0f 86 84 00 00
	00		 jbe	 $LN5@Tidy

; 1478 :             if (_Map()[--_Block]) { // free block and destroy its pointer

  0007b	8b 45 f4	 mov	 eax, DWORD PTR __Block$26[ebp]
  0007e	48		 dec	 eax
  0007f	89 45 f4	 mov	 DWORD PTR __Block$26[ebp], eax

; 1530 :         return _Mypair._Myval2;

  00082	8b 45 f8	 mov	 eax, DWORD PTR _this$[ebp]
  00085	89 45 d8	 mov	 DWORD PTR $T20[ebp], eax

; 1538 :         return _Get_data()._Map;

  00088	8b 45 d8	 mov	 eax, DWORD PTR $T20[ebp]
  0008b	83 c0 04	 add	 eax, 4
  0008e	89 45 d4	 mov	 DWORD PTR $T19[ebp], eax

; 1478 :             if (_Map()[--_Block]) { // free block and destroy its pointer

  00091	8b 45 d4	 mov	 eax, DWORD PTR $T19[ebp]
  00094	8b 00		 mov	 eax, DWORD PTR [eax]
  00096	8b 4d f4	 mov	 ecx, DWORD PTR __Block$26[ebp]
  00099	83 3c 88 00	 cmp	 DWORD PTR [eax+ecx*4], 0
  0009d	74 5b		 je	 SHORT $LN7@Tidy

; 1530 :         return _Mypair._Myval2;

  0009f	8b 45 f8	 mov	 eax, DWORD PTR _this$[ebp]
  000a2	89 45 d0	 mov	 DWORD PTR $T18[ebp], eax

; 1538 :         return _Get_data()._Map;

  000a5	8b 45 d0	 mov	 eax, DWORD PTR $T18[ebp]
  000a8	83 c0 04	 add	 eax, 4
  000ab	89 45 c8	 mov	 DWORD PTR $T16[ebp], eax

; 1522 :         return _Mypair._Get_first();

  000ae	8b 45 f8	 mov	 eax, DWORD PTR _this$[ebp]
; File C:\Program Files (x86)\Microsoft Visual Studio\2019\Community\VC\Tools\MSVC\14.28.29333\include\xmemory

; 1347 :         return *this;

  000b1	89 45 cc	 mov	 DWORD PTR $T17[ebp], eax
; File C:\Program Files (x86)\Microsoft Visual Studio\2019\Community\VC\Tools\MSVC\14.28.29333\include\deque

; 1522 :         return _Mypair._Get_first();

  000b4	8b 45 cc	 mov	 eax, DWORD PTR $T17[ebp]
  000b7	89 45 80	 mov	 DWORD PTR $T1[ebp], eax

; 1479 :                 _Getal().deallocate(_Map()[_Block], _DEQUESIZ);

  000ba	8b 45 c8	 mov	 eax, DWORD PTR $T16[ebp]
  000bd	8b 00		 mov	 eax, DWORD PTR [eax]
  000bf	8b 4d f4	 mov	 ecx, DWORD PTR __Block$26[ebp]
  000c2	8b 04 88	 mov	 eax, DWORD PTR [eax+ecx*4]
  000c5	89 45 c4	 mov	 DWORD PTR __Ptr$[ebp], eax
; File C:\Program Files (x86)\Microsoft Visual Studio\2019\Community\VC\Tools\MSVC\14.28.29333\include\xmemory

; 810  :         _Deallocate<_New_alignof<_Ty>>(_Ptr, sizeof(_Ty) * _Count);

  000c8	6a 04		 push	 4
  000ca	58		 pop	 eax
  000cb	c1 e0 02	 shl	 eax, 2
  000ce	50		 push	 eax
  000cf	ff 75 c4	 push	 DWORD PTR __Ptr$[ebp]
  000d2	e8 00 00 00 00	 call	 ??$_Deallocate@$07$0A@@std@@YAXPAXI@Z ; std::_Deallocate<8,0>
  000d7	59		 pop	 ecx
  000d8	59		 pop	 ecx
; File C:\Program Files (x86)\Microsoft Visual Studio\2019\Community\VC\Tools\MSVC\14.28.29333\include\deque

; 1530 :         return _Mypair._Myval2;

  000d9	8b 45 f8	 mov	 eax, DWORD PTR _this$[ebp]
  000dc	89 45 c0	 mov	 DWORD PTR $T15[ebp], eax

; 1538 :         return _Get_data()._Map;

  000df	8b 45 c0	 mov	 eax, DWORD PTR $T15[ebp]
  000e2	83 c0 04	 add	 eax, 4
  000e5	89 45 bc	 mov	 DWORD PTR $T14[ebp], eax

; 1480 :                 _Destroy_in_place(_Map()[_Block]);

  000e8	8b 45 bc	 mov	 eax, DWORD PTR $T14[ebp]
  000eb	8b 00		 mov	 eax, DWORD PTR [eax]
  000ed	8b 4d f4	 mov	 ecx, DWORD PTR __Block$26[ebp]
  000f0	8d 04 88	 lea	 eax, DWORD PTR [eax+ecx*4]
  000f3	50		 push	 eax
  000f4	e8 00 00 00 00	 call	 ??$_Destroy_in_place@PAPAVCTerrain@@@std@@YAXAAPAPAVCTerrain@@@Z ; std::_Destroy_in_place<CTerrain * *>
  000f9	59		 pop	 ecx
$LN7@Tidy:

; 1481 :             }
; 1482 :         }

  000fa	e9 72 ff ff ff	 jmp	 $LN6@Tidy
$LN5@Tidy:

; 1530 :         return _Mypair._Myval2;

  000ff	8b 45 f8	 mov	 eax, DWORD PTR _this$[ebp]
  00102	89 45 b8	 mov	 DWORD PTR $T13[ebp], eax

; 1538 :         return _Get_data()._Map;

  00105	8b 45 b8	 mov	 eax, DWORD PTR $T13[ebp]
  00108	83 c0 04	 add	 eax, 4
  0010b	89 45 b4	 mov	 DWORD PTR $T12[ebp], eax

; 1483 : 
; 1484 :         if (_Map() != _Mapptr()) {

  0010e	8b 45 b4	 mov	 eax, DWORD PTR $T12[ebp]
  00111	83 38 00	 cmp	 DWORD PTR [eax], 0
  00114	74 3f		 je	 SHORT $LN8@Tidy

; 1530 :         return _Mypair._Myval2;

  00116	8b 45 f8	 mov	 eax, DWORD PTR _this$[ebp]
  00119	89 45 b0	 mov	 DWORD PTR $T11[ebp], eax

; 1546 :         return _Get_data()._Mapsize;

  0011c	8b 45 b0	 mov	 eax, DWORD PTR $T11[ebp]
  0011f	83 c0 08	 add	 eax, 8
  00122	89 45 a8	 mov	 DWORD PTR $T9[ebp], eax

; 1530 :         return _Mypair._Myval2;

  00125	8b 45 f8	 mov	 eax, DWORD PTR _this$[ebp]
  00128	89 45 ac	 mov	 DWORD PTR $T10[ebp], eax

; 1538 :         return _Get_data()._Map;

  0012b	8b 45 ac	 mov	 eax, DWORD PTR $T10[ebp]
  0012e	83 c0 04	 add	 eax, 4
  00131	89 45 a4	 mov	 DWORD PTR $T8[ebp], eax

; 1485 :             _Almap.deallocate(_Map(), _Mapsize()); // free storage for map

  00134	8b 45 a8	 mov	 eax, DWORD PTR $T9[ebp]
  00137	8b 00		 mov	 eax, DWORD PTR [eax]
  00139	89 45 a0	 mov	 DWORD PTR __Count$[ebp], eax
  0013c	8b 45 a4	 mov	 eax, DWORD PTR $T8[ebp]
  0013f	8b 00		 mov	 eax, DWORD PTR [eax]
  00141	89 45 9c	 mov	 DWORD PTR __Ptr$[ebp], eax
; File C:\Program Files (x86)\Microsoft Visual Studio\2019\Community\VC\Tools\MSVC\14.28.29333\include\xmemory

; 810  :         _Deallocate<_New_alignof<_Ty>>(_Ptr, sizeof(_Ty) * _Count);

  00144	8b 45 a0	 mov	 eax, DWORD PTR __Count$[ebp]
  00147	c1 e0 02	 shl	 eax, 2
  0014a	50		 push	 eax
  0014b	ff 75 9c	 push	 DWORD PTR __Ptr$[ebp]
  0014e	e8 00 00 00 00	 call	 ??$_Deallocate@$07$0A@@std@@YAXPAXI@Z ; std::_Deallocate<8,0>
  00153	59		 pop	 ecx
  00154	59		 pop	 ecx
$LN8@Tidy:
; File C:\Program Files (x86)\Microsoft Visual Studio\2019\Community\VC\Tools\MSVC\14.28.29333\include\deque

; 1530 :         return _Mypair._Myval2;

  00155	8b 45 f8	 mov	 eax, DWORD PTR _this$[ebp]
  00158	89 45 98	 mov	 DWORD PTR $T7[ebp], eax

; 1546 :         return _Get_data()._Mapsize;

  0015b	8b 45 98	 mov	 eax, DWORD PTR $T7[ebp]
  0015e	83 c0 08	 add	 eax, 8
  00161	89 45 94	 mov	 DWORD PTR $T6[ebp], eax

; 1486 :         }
; 1487 : 
; 1488 :         _Mapsize() = 0;

  00164	8b 45 94	 mov	 eax, DWORD PTR $T6[ebp]
  00167	83 20 00	 and	 DWORD PTR [eax], 0

; 1530 :         return _Mypair._Myval2;

  0016a	8b 45 f8	 mov	 eax, DWORD PTR _this$[ebp]
  0016d	89 45 90	 mov	 DWORD PTR $T5[ebp], eax

; 1538 :         return _Get_data()._Map;

  00170	8b 45 90	 mov	 eax, DWORD PTR $T5[ebp]
  00173	83 c0 04	 add	 eax, 4
  00176	89 45 8c	 mov	 DWORD PTR $T4[ebp], eax

; 1489 :         _Map()     = _Mapptr();

  00179	8b 45 8c	 mov	 eax, DWORD PTR $T4[ebp]
  0017c	83 20 00	 and	 DWORD PTR [eax], 0

; 1490 :     }

  0017f	c9		 leave
  00180	c3		 ret	 0
?_Tidy@?$deque@PAVCTerrain@@V?$allocator@PAVCTerrain@@@std@@@std@@AAEXXZ ENDP ; std::deque<CTerrain *,std::allocator<CTerrain *> >::_Tidy
_TEXT	ENDS
; Function compile flags: /Odspy
; File C:\Program Files (x86)\Microsoft Visual Studio\2019\Community\VC\Tools\MSVC\14.28.29333\include\deque
; File C:\Program Files (x86)\Microsoft Visual Studio\2019\Community\VC\Tools\MSVC\14.28.29333\include\xmemory
; File C:\Program Files (x86)\Microsoft Visual Studio\2019\Community\VC\Tools\MSVC\14.28.29333\include\deque
; File C:\Program Files (x86)\Microsoft Visual Studio\2019\Community\VC\Tools\MSVC\14.28.29333\include\xmemory
; File C:\Program Files (x86)\Microsoft Visual Studio\2019\Community\VC\Tools\MSVC\14.28.29333\include\deque
; File C:\Program Files (x86)\Microsoft Visual Studio\2019\Community\VC\Tools\MSVC\14.28.29333\include\xmemory
; File C:\Program Files (x86)\Microsoft Visual Studio\2019\Community\VC\Tools\MSVC\14.28.29333\include\limits
; File C:\Program Files (x86)\Microsoft Visual Studio\2019\Community\VC\Tools\MSVC\14.28.29333\include\deque
; File C:\Program Files (x86)\Microsoft Visual Studio\2019\Community\VC\Tools\MSVC\14.28.29333\include\utility
; File C:\Program Files (x86)\Microsoft Visual Studio\2019\Community\VC\Tools\MSVC\14.28.29333\include\deque
; File C:\Program Files (x86)\Microsoft Visual Studio\2019\Community\VC\Tools\MSVC\14.28.29333\include\xmemory
; File C:\Program Files (x86)\Microsoft Visual Studio\2019\Community\VC\Tools\MSVC\14.28.29333\include\deque
; File C:\Program Files (x86)\Microsoft Visual Studio\2019\Community\VC\Tools\MSVC\14.28.29333\include\xmemory
; File C:\Program Files (x86)\Microsoft Visual Studio\2019\Community\VC\Tools\MSVC\14.28.29333\include\deque
;	COMDAT ?_Growmap@?$deque@PAVCTerrain@@V?$allocator@PAVCTerrain@@@std@@@std@@AAEXI@Z
_TEXT	SEGMENT
$T1 = -164						; size = 4
__Max_possible$2 = -160					; size = 4
$T3 = -156						; size = 4
$T4 = -152						; size = 4
$T5 = -148						; size = 4
$T6 = -144						; size = 4
$T7 = -140						; size = 4
__Ptr$ = -136						; size = 4
__Count$ = -132						; size = 4
$T8 = -128						; size = 4
$T9 = -124						; size = 4
$T10 = -120						; size = 4
$T11 = -116						; size = 4
$T12 = -112						; size = 4
$T13 = -108						; size = 4
$T14 = -104						; size = 4
$T15 = -100						; size = 4
$T16 = -96						; size = 4
$T17 = -92						; size = 4
$T18 = -88						; size = 4
$T19 = -84						; size = 4
$T20 = -80						; size = 4
$T21 = -76						; size = 4
$T22 = -72						; size = 4
$T23 = -68						; size = 4
$T24 = -64						; size = 4
$T25 = -60						; size = 4
$T26 = -56						; size = 4
$T27 = -52						; size = 4
$T28 = -48						; size = 4
$T29 = -44						; size = 4
$T30 = -40						; size = 4
$T31 = -36						; size = 4
$T32 = -32						; size = 4
$T33 = -28						; size = 4
$T34 = -24						; size = 4
$T35 = -20						; size = 4
$T36 = -16						; size = 4
$T37 = -12						; size = 4
$T38 = -8						; size = 4
$T39 = -4						; size = 4
$T40 = 0						; size = 4
$T41 = 4						; size = 4
$T42 = 8						; size = 4
$T43 = 12						; size = 4
$T44 = 16						; size = 4
$T45 = 20						; size = 4
$T46 = 24						; size = 4
$T47 = 28						; size = 4
$T48 = 32						; size = 4
$T49 = 36						; size = 4
$T50 = 40						; size = 4
$T51 = 44						; size = 4
$T52 = 48						; size = 4
$T53 = 52						; size = 4
$T54 = 56						; size = 4
$T55 = 60						; size = 4
$T56 = 64						; size = 4
__Count$ = 68						; size = 4
tv232 = 72						; size = 4
$T57 = 76						; size = 4
$T58 = 80						; size = 4
tv73 = 84						; size = 4
tv214 = 88						; size = 4
__Overflow_is_possible$59 = 95				; size = 1
__Newmap$ = 96						; size = 4
__Newsize$ = 100					; size = 4
__Myboff$ = 104						; size = 4
__Myptr$ = 108						; size = 4
_this$ = 112						; size = 4
__Count$ = 124						; size = 4
?_Growmap@?$deque@PAVCTerrain@@V?$allocator@PAVCTerrain@@@std@@@std@@AAEXI@Z PROC ; std::deque<CTerrain *,std::allocator<CTerrain *> >::_Growmap, COMDAT
; _this$ = ecx

; 1430 :     void _Growmap(size_type _Count) { // grow map by at least _Count pointers, _Mapsize() a power of 2

  00000	55		 push	 ebp
  00001	8d 6c 24 8c	 lea	 ebp, DWORD PTR [esp-116]
  00005	81 ec 18 01 00
	00		 sub	 esp, 280		; 00000118H
  0000b	89 4d 70	 mov	 DWORD PTR _this$[ebp], ecx

; 1522 :         return _Mypair._Get_first();

  0000e	8b 45 70	 mov	 eax, DWORD PTR _this$[ebp]
; File C:\Program Files (x86)\Microsoft Visual Studio\2019\Community\VC\Tools\MSVC\14.28.29333\include\xmemory

; 1347 :         return *this;

  00011	89 45 40	 mov	 DWORD PTR $T56[ebp], eax
; File C:\Program Files (x86)\Microsoft Visual Studio\2019\Community\VC\Tools\MSVC\14.28.29333\include\deque

; 1522 :         return _Mypair._Get_first();

  00014	8b 45 40	 mov	 eax, DWORD PTR $T56[ebp]
  00017	89 85 68 ff ff
	ff		 mov	 DWORD PTR $T4[ebp], eax

; 1530 :         return _Mypair._Myval2;

  0001d	8b 45 70	 mov	 eax, DWORD PTR _this$[ebp]
  00020	89 45 3c	 mov	 DWORD PTR $T55[ebp], eax

; 1546 :         return _Get_data()._Mapsize;

  00023	8b 45 3c	 mov	 eax, DWORD PTR $T55[ebp]
  00026	83 c0 08	 add	 eax, 8
  00029	89 45 38	 mov	 DWORD PTR $T54[ebp], eax

; 1431 :         static_assert(1 < _DEQUEMAPSIZ, "The _Xlen() test should always be performed.");
; 1432 : 
; 1433 :         _Alpty _Almap(_Getal());
; 1434 :         size_type _Newsize = 0 < _Mapsize() ? _Mapsize() : 1;

  0002c	8b 45 38	 mov	 eax, DWORD PTR $T54[ebp]
  0002f	83 38 00	 cmp	 DWORD PTR [eax], 0
  00032	76 19		 jbe	 SHORT $LN10@Growmap

; 1530 :         return _Mypair._Myval2;

  00034	8b 45 70	 mov	 eax, DWORD PTR _this$[ebp]
  00037	89 45 34	 mov	 DWORD PTR $T53[ebp], eax

; 1546 :         return _Get_data()._Mapsize;

  0003a	8b 45 34	 mov	 eax, DWORD PTR $T53[ebp]
  0003d	83 c0 08	 add	 eax, 8
  00040	89 45 30	 mov	 DWORD PTR $T52[ebp], eax

; 1431 :         static_assert(1 < _DEQUEMAPSIZ, "The _Xlen() test should always be performed.");
; 1432 : 
; 1433 :         _Alpty _Almap(_Getal());
; 1434 :         size_type _Newsize = 0 < _Mapsize() ? _Mapsize() : 1;

  00043	8b 45 30	 mov	 eax, DWORD PTR $T52[ebp]
  00046	8b 00		 mov	 eax, DWORD PTR [eax]
  00048	89 45 54	 mov	 DWORD PTR tv73[ebp], eax
  0004b	eb 07		 jmp	 SHORT $LN11@Growmap
$LN10@Growmap:
  0004d	c7 45 54 01 00
	00 00		 mov	 DWORD PTR tv73[ebp], 1
$LN11@Growmap:
  00054	8b 45 54	 mov	 eax, DWORD PTR tv73[ebp]
  00057	89 45 64	 mov	 DWORD PTR __Newsize$[ebp], eax
$LN2@Growmap:

; 1530 :         return _Mypair._Myval2;

  0005a	8b 45 70	 mov	 eax, DWORD PTR _this$[ebp]
  0005d	89 45 2c	 mov	 DWORD PTR $T51[ebp], eax

; 1546 :         return _Get_data()._Mapsize;

  00060	8b 45 2c	 mov	 eax, DWORD PTR $T51[ebp]
  00063	83 c0 08	 add	 eax, 8
  00066	89 45 28	 mov	 DWORD PTR $T50[ebp], eax

; 1435 :         while (_Newsize - _Mapsize() < _Count || _Newsize < _DEQUEMAPSIZ) {

  00069	8b 45 28	 mov	 eax, DWORD PTR $T50[ebp]
  0006c	8b 4d 64	 mov	 ecx, DWORD PTR __Newsize$[ebp]
  0006f	2b 08		 sub	 ecx, DWORD PTR [eax]
  00071	3b 4d 7c	 cmp	 ecx, DWORD PTR __Count$[ebp]
  00074	72 06		 jb	 SHORT $LN4@Growmap
  00076	83 7d 64 08	 cmp	 DWORD PTR __Newsize$[ebp], 8
  0007a	73 70		 jae	 SHORT $LN3@Growmap
$LN4@Growmap:

; 1526 :         return _Mypair._Get_first();

  0007c	8b 45 70	 mov	 eax, DWORD PTR _this$[ebp]
; File C:\Program Files (x86)\Microsoft Visual Studio\2019\Community\VC\Tools\MSVC\14.28.29333\include\xmemory

; 1351 :         return *this;

  0007f	89 45 24	 mov	 DWORD PTR $T49[ebp], eax
; File C:\Program Files (x86)\Microsoft Visual Studio\2019\Community\VC\Tools\MSVC\14.28.29333\include\deque

; 1526 :         return _Mypair._Get_first();

  00082	8b 45 24	 mov	 eax, DWORD PTR $T49[ebp]
  00085	89 85 64 ff ff
	ff		 mov	 DWORD PTR $T3[ebp], eax
; File C:\Program Files (x86)\Microsoft Visual Studio\2019\Community\VC\Tools\MSVC\14.28.29333\include\xmemory

; 710  :         return static_cast<size_t>(-1) / sizeof(value_type);

  0008b	c7 45 50 ff ff
	ff 3f		 mov	 DWORD PTR $T58[ebp], 1073741823 ; 3fffffffH
; File C:\Program Files (x86)\Microsoft Visual Studio\2019\Community\VC\Tools\MSVC\14.28.29333\include\limits

; 557  :         return INT_MAX;

  00092	c7 45 20 ff ff
	ff 7f		 mov	 DWORD PTR $T48[ebp], 2147483647 ; 7fffffffH
; File C:\Program Files (x86)\Microsoft Visual Studio\2019\Community\VC\Tools\MSVC\14.28.29333\include\deque

; 1005 :         return (_STD min)(

  00099	8b 45 20	 mov	 eax, DWORD PTR $T48[ebp]
  0009c	89 45 4c	 mov	 DWORD PTR $T57[ebp], eax
; File C:\Program Files (x86)\Microsoft Visual Studio\2019\Community\VC\Tools\MSVC\14.28.29333\include\utility

; 68   :     return _Right < _Left ? _Right : _Left;

  0009f	8b 45 50	 mov	 eax, DWORD PTR $T58[ebp]
  000a2	3b 45 4c	 cmp	 eax, DWORD PTR $T57[ebp]
  000a5	73 08		 jae	 SHORT $LN56@Growmap
  000a7	8d 45 50	 lea	 eax, DWORD PTR $T58[ebp]
  000aa	89 45 48	 mov	 DWORD PTR tv232[ebp], eax
  000ad	eb 06		 jmp	 SHORT $LN57@Growmap
$LN56@Growmap:
  000af	8d 45 4c	 lea	 eax, DWORD PTR $T57[ebp]
  000b2	89 45 48	 mov	 DWORD PTR tv232[ebp], eax
$LN57@Growmap:
  000b5	8b 45 48	 mov	 eax, DWORD PTR tv232[ebp]
  000b8	89 45 1c	 mov	 DWORD PTR $T47[ebp], eax
  000bb	8b 45 1c	 mov	 eax, DWORD PTR $T47[ebp]
  000be	89 45 18	 mov	 DWORD PTR $T46[ebp], eax
; File C:\Program Files (x86)\Microsoft Visual Studio\2019\Community\VC\Tools\MSVC\14.28.29333\include\deque

; 1005 :         return (_STD min)(

  000c1	8b 45 18	 mov	 eax, DWORD PTR $T46[ebp]
  000c4	8b 00		 mov	 eax, DWORD PTR [eax]
  000c6	89 45 14	 mov	 DWORD PTR $T45[ebp], eax

; 1436 :             // scale _Newsize to 2^N >= _Mapsize() + _Count
; 1437 :             if (max_size() / _DEQUESIZ - _Newsize < _Newsize) {

  000c9	8b 45 14	 mov	 eax, DWORD PTR $T45[ebp]
  000cc	c1 e8 02	 shr	 eax, 2
  000cf	2b 45 64	 sub	 eax, DWORD PTR __Newsize$[ebp]
  000d2	3b 45 64	 cmp	 eax, DWORD PTR __Newsize$[ebp]
  000d5	73 08		 jae	 SHORT $LN5@Growmap

; 1438 :                 _Xlen(); // result too long

  000d7	8b 4d 70	 mov	 ecx, DWORD PTR _this$[ebp]
  000da	e8 00 00 00 00	 call	 ?_Xlen@?$deque@PAVCTerrain@@V?$allocator@PAVCTerrain@@@std@@@std@@ABEXXZ ; std::deque<CTerrain *,std::allocator<CTerrain *> >::_Xlen
$LN5@Growmap:

; 1439 :             }
; 1440 : 
; 1441 :             _Newsize *= 2;

  000df	8b 45 64	 mov	 eax, DWORD PTR __Newsize$[ebp]
  000e2	d1 e0		 shl	 eax, 1
  000e4	89 45 64	 mov	 DWORD PTR __Newsize$[ebp], eax

; 1442 :         }

  000e7	e9 6e ff ff ff	 jmp	 $LN2@Growmap
$LN3@Growmap:

; 1530 :         return _Mypair._Myval2;

  000ec	8b 45 70	 mov	 eax, DWORD PTR _this$[ebp]
  000ef	89 45 10	 mov	 DWORD PTR $T44[ebp], eax

; 1546 :         return _Get_data()._Mapsize;

  000f2	8b 45 10	 mov	 eax, DWORD PTR $T44[ebp]
  000f5	83 c0 08	 add	 eax, 8
  000f8	89 45 0c	 mov	 DWORD PTR $T43[ebp], eax

; 1443 :         _Count = _Newsize - _Mapsize();

  000fb	8b 45 0c	 mov	 eax, DWORD PTR $T43[ebp]
  000fe	8b 4d 64	 mov	 ecx, DWORD PTR __Newsize$[ebp]
  00101	2b 08		 sub	 ecx, DWORD PTR [eax]
  00103	89 4d 7c	 mov	 DWORD PTR __Count$[ebp], ecx

; 1530 :         return _Mypair._Myval2;

  00106	8b 45 70	 mov	 eax, DWORD PTR _this$[ebp]
  00109	89 45 08	 mov	 DWORD PTR $T42[ebp], eax

; 1554 :         return _Get_data()._Myoff;

  0010c	8b 45 08	 mov	 eax, DWORD PTR $T42[ebp]
  0010f	83 c0 0c	 add	 eax, 12			; 0000000cH
  00112	89 45 04	 mov	 DWORD PTR $T41[ebp], eax

; 1444 : 
; 1445 :         size_type _Myboff = _Myoff() / _DEQUESIZ;

  00115	8b 45 04	 mov	 eax, DWORD PTR $T41[ebp]
  00118	8b 00		 mov	 eax, DWORD PTR [eax]
  0011a	c1 e8 02	 shr	 eax, 2
  0011d	89 45 68	 mov	 DWORD PTR __Myboff$[ebp], eax

; 1530 :         return _Mypair._Myval2;

  00120	8b 45 70	 mov	 eax, DWORD PTR _this$[ebp]
  00123	89 45 00	 mov	 DWORD PTR $T40[ebp], eax

; 1546 :         return _Get_data()._Mapsize;

  00126	8b 45 00	 mov	 eax, DWORD PTR $T40[ebp]
  00129	83 c0 08	 add	 eax, 8
  0012c	89 45 fc	 mov	 DWORD PTR $T39[ebp], eax

; 1446 :         _Mapptr _Newmap   = _Almap.allocate(_Mapsize() + _Count);

  0012f	8b 45 fc	 mov	 eax, DWORD PTR $T39[ebp]
  00132	8b 00		 mov	 eax, DWORD PTR [eax]
  00134	03 45 7c	 add	 eax, DWORD PTR __Count$[ebp]
  00137	89 45 44	 mov	 DWORD PTR __Count$[ebp], eax
; File C:\Program Files (x86)\Microsoft Visual Studio\2019\Community\VC\Tools\MSVC\14.28.29333\include\xmemory

; 56   :     constexpr bool _Overflow_is_possible = _Ty_size > 1;

  0013a	c6 45 5f 01	 mov	 BYTE PTR __Overflow_is_possible$59[ebp], 1

; 57   : 
; 58   :     if _CONSTEXPR_IF (_Overflow_is_possible) {
; 59   :         constexpr size_t _Max_possible = static_cast<size_t>(-1) / _Ty_size;

  0013e	c7 85 60 ff ff
	ff ff ff ff 3f	 mov	 DWORD PTR __Max_possible$2[ebp], 1073741823 ; 3fffffffH

; 60   :         if (_Count > _Max_possible) {

  00148	81 7d 44 ff ff
	ff 3f		 cmp	 DWORD PTR __Count$[ebp], 1073741823 ; 3fffffffH
  0014f	76 05		 jbe	 SHORT $LN80@Growmap

; 61   :             _Throw_bad_array_new_length(); // multiply overflow

  00151	e8 00 00 00 00	 call	 ?_Throw_bad_array_new_length@std@@YAXXZ ; std::_Throw_bad_array_new_length
$LN80@Growmap:

; 62   :         }
; 63   :     }
; 64   : 
; 65   :     return _Count * _Ty_size;

  00156	8b 45 44	 mov	 eax, DWORD PTR __Count$[ebp]
  00159	c1 e0 02	 shl	 eax, 2
  0015c	89 45 f8	 mov	 DWORD PTR $T38[ebp], eax

; 814  :         return static_cast<_Ty*>(_Allocate<_New_alignof<_Ty>>(_Get_size_of_n<sizeof(_Ty)>(_Count)));

  0015f	ff 75 f8	 push	 DWORD PTR $T38[ebp]
  00162	e8 00 00 00 00	 call	 ??$_Allocate@$07U_Default_allocate_traits@std@@$0A@@std@@YAPAXI@Z ; std::_Allocate<8,std::_Default_allocate_traits,0>
  00167	59		 pop	 ecx
  00168	89 45 60	 mov	 DWORD PTR __Newmap$[ebp], eax
; File C:\Program Files (x86)\Microsoft Visual Studio\2019\Community\VC\Tools\MSVC\14.28.29333\include\deque

; 1447 :         _Mapptr _Myptr    = _Newmap + _Myboff;

  0016b	8b 45 68	 mov	 eax, DWORD PTR __Myboff$[ebp]
  0016e	8b 4d 60	 mov	 ecx, DWORD PTR __Newmap$[ebp]
  00171	8d 04 81	 lea	 eax, DWORD PTR [ecx+eax*4]
  00174	89 45 6c	 mov	 DWORD PTR __Myptr$[ebp], eax

; 1530 :         return _Mypair._Myval2;

  00177	8b 45 70	 mov	 eax, DWORD PTR _this$[ebp]
  0017a	89 45 f4	 mov	 DWORD PTR $T37[ebp], eax

; 1538 :         return _Get_data()._Map;

  0017d	8b 45 f4	 mov	 eax, DWORD PTR $T37[ebp]
  00180	83 c0 04	 add	 eax, 4
  00183	89 45 e4	 mov	 DWORD PTR $T33[ebp], eax

; 1530 :         return _Mypair._Myval2;

  00186	8b 45 70	 mov	 eax, DWORD PTR _this$[ebp]
  00189	89 45 f0	 mov	 DWORD PTR $T36[ebp], eax

; 1546 :         return _Get_data()._Mapsize;

  0018c	8b 45 f0	 mov	 eax, DWORD PTR $T36[ebp]
  0018f	83 c0 08	 add	 eax, 8
  00192	89 45 e8	 mov	 DWORD PTR $T34[ebp], eax

; 1530 :         return _Mypair._Myval2;

  00195	8b 45 70	 mov	 eax, DWORD PTR _this$[ebp]
  00198	89 45 ec	 mov	 DWORD PTR $T35[ebp], eax

; 1538 :         return _Get_data()._Map;

  0019b	8b 45 ec	 mov	 eax, DWORD PTR $T35[ebp]
  0019e	83 c0 04	 add	 eax, 4
  001a1	89 45 e0	 mov	 DWORD PTR $T32[ebp], eax

; 1448 : 
; 1449 :         _Myptr = _STD uninitialized_copy(_Map() + _Myboff, _Map() + _Mapsize(), _Myptr); // copy initial to end

  001a4	ff 75 6c	 push	 DWORD PTR __Myptr$[ebp]
  001a7	8b 45 e8	 mov	 eax, DWORD PTR $T34[ebp]
  001aa	8b 00		 mov	 eax, DWORD PTR [eax]
  001ac	8b 4d e4	 mov	 ecx, DWORD PTR $T33[ebp]
  001af	8b 09		 mov	 ecx, DWORD PTR [ecx]
  001b1	8d 04 81	 lea	 eax, DWORD PTR [ecx+eax*4]
  001b4	50		 push	 eax
  001b5	8b 45 e0	 mov	 eax, DWORD PTR $T32[ebp]
  001b8	8b 00		 mov	 eax, DWORD PTR [eax]
  001ba	8b 4d 68	 mov	 ecx, DWORD PTR __Myboff$[ebp]
  001bd	8d 04 88	 lea	 eax, DWORD PTR [eax+ecx*4]
  001c0	50		 push	 eax
  001c1	e8 00 00 00 00	 call	 ??$uninitialized_copy@PAPAPAVCTerrain@@PAPAPAV1@@std@@YAPAPAPAVCTerrain@@QAPAPAV1@0PAPAPAV1@@Z ; std::uninitialized_copy<CTerrain * * *,CTerrain * * *>
  001c6	83 c4 0c	 add	 esp, 12			; 0000000cH
  001c9	89 45 6c	 mov	 DWORD PTR __Myptr$[ebp], eax

; 1450 :         if (_Myboff <= _Count) { // increment greater than offset of initial block

  001cc	8b 45 68	 mov	 eax, DWORD PTR __Myboff$[ebp]
  001cf	3b 45 7c	 cmp	 eax, DWORD PTR __Count$[ebp]
  001d2	77 60		 ja	 SHORT $LN6@Growmap

; 1530 :         return _Mypair._Myval2;

  001d4	8b 45 70	 mov	 eax, DWORD PTR _this$[ebp]
  001d7	89 45 dc	 mov	 DWORD PTR $T31[ebp], eax

; 1538 :         return _Get_data()._Map;

  001da	8b 45 dc	 mov	 eax, DWORD PTR $T31[ebp]
  001dd	83 c0 04	 add	 eax, 4
  001e0	89 45 d4	 mov	 DWORD PTR $T29[ebp], eax

; 1530 :         return _Mypair._Myval2;

  001e3	8b 45 70	 mov	 eax, DWORD PTR _this$[ebp]
  001e6	89 45 d8	 mov	 DWORD PTR $T30[ebp], eax

; 1538 :         return _Get_data()._Map;

  001e9	8b 45 d8	 mov	 eax, DWORD PTR $T30[ebp]
  001ec	83 c0 04	 add	 eax, 4
  001ef	89 45 d0	 mov	 DWORD PTR $T28[ebp], eax

; 1451 :             _Myptr = _STD uninitialized_copy(_Map(), _Map() + _Myboff, _Myptr); // copy rest of old

  001f2	ff 75 6c	 push	 DWORD PTR __Myptr$[ebp]
  001f5	8b 45 d4	 mov	 eax, DWORD PTR $T29[ebp]
  001f8	8b 00		 mov	 eax, DWORD PTR [eax]
  001fa	8b 4d 68	 mov	 ecx, DWORD PTR __Myboff$[ebp]
  001fd	8d 04 88	 lea	 eax, DWORD PTR [eax+ecx*4]
  00200	50		 push	 eax
  00201	8b 45 d0	 mov	 eax, DWORD PTR $T28[ebp]
  00204	ff 30		 push	 DWORD PTR [eax]
  00206	e8 00 00 00 00	 call	 ??$uninitialized_copy@PAPAPAVCTerrain@@PAPAPAV1@@std@@YAPAPAPAVCTerrain@@QAPAPAV1@0PAPAPAV1@@Z ; std::uninitialized_copy<CTerrain * * *,CTerrain * * *>
  0020b	83 c4 0c	 add	 esp, 12			; 0000000cH
  0020e	89 45 6c	 mov	 DWORD PTR __Myptr$[ebp], eax

; 1452 :             _Uninitialized_value_construct_n_unchecked1(_Myptr, _Count - _Myboff); // clear suffix of new

  00211	8b 45 7c	 mov	 eax, DWORD PTR __Count$[ebp]
  00214	2b 45 68	 sub	 eax, DWORD PTR __Myboff$[ebp]
  00217	50		 push	 eax
  00218	ff 75 6c	 push	 DWORD PTR __Myptr$[ebp]
  0021b	e8 00 00 00 00	 call	 ??$_Uninitialized_value_construct_n_unchecked1@PAPAPAVCTerrain@@I@std@@YAPAPAPAVCTerrain@@PAPAPAV1@I@Z ; std::_Uninitialized_value_construct_n_unchecked1<CTerrain * * *,unsigned int>
  00220	59		 pop	 ecx
  00221	59		 pop	 ecx

; 1453 :             _Uninitialized_value_construct_n_unchecked1(_Newmap, _Myboff); // clear prefix of new

  00222	ff 75 68	 push	 DWORD PTR __Myboff$[ebp]
  00225	ff 75 60	 push	 DWORD PTR __Newmap$[ebp]
  00228	e8 00 00 00 00	 call	 ??$_Uninitialized_value_construct_n_unchecked1@PAPAPAVCTerrain@@I@std@@YAPAPAPAVCTerrain@@PAPAPAV1@I@Z ; std::_Uninitialized_value_construct_n_unchecked1<CTerrain * * *,unsigned int>
  0022d	59		 pop	 ecx
  0022e	59		 pop	 ecx

; 1454 :         } else { // increment not greater than offset of initial block

  0022f	e9 8b 00 00 00	 jmp	 $LN7@Growmap
$LN6@Growmap:

; 1530 :         return _Mypair._Myval2;

  00234	8b 45 70	 mov	 eax, DWORD PTR _this$[ebp]
  00237	89 45 cc	 mov	 DWORD PTR $T27[ebp], eax

; 1538 :         return _Get_data()._Map;

  0023a	8b 45 cc	 mov	 eax, DWORD PTR $T27[ebp]
  0023d	83 c0 04	 add	 eax, 4
  00240	89 45 c4	 mov	 DWORD PTR $T25[ebp], eax

; 1530 :         return _Mypair._Myval2;

  00243	8b 45 70	 mov	 eax, DWORD PTR _this$[ebp]
  00246	89 45 c8	 mov	 DWORD PTR $T26[ebp], eax

; 1538 :         return _Get_data()._Map;

  00249	8b 45 c8	 mov	 eax, DWORD PTR $T26[ebp]
  0024c	83 c0 04	 add	 eax, 4
  0024f	89 45 c0	 mov	 DWORD PTR $T24[ebp], eax

; 1455 :             _STD uninitialized_copy(_Map(), _Map() + _Count, _Myptr); // copy more old

  00252	ff 75 6c	 push	 DWORD PTR __Myptr$[ebp]
  00255	8b 45 c4	 mov	 eax, DWORD PTR $T25[ebp]
  00258	8b 00		 mov	 eax, DWORD PTR [eax]
  0025a	8b 4d 7c	 mov	 ecx, DWORD PTR __Count$[ebp]
  0025d	8d 04 88	 lea	 eax, DWORD PTR [eax+ecx*4]
  00260	50		 push	 eax
  00261	8b 45 c0	 mov	 eax, DWORD PTR $T24[ebp]
  00264	ff 30		 push	 DWORD PTR [eax]
  00266	e8 00 00 00 00	 call	 ??$uninitialized_copy@PAPAPAVCTerrain@@PAPAPAV1@@std@@YAPAPAPAVCTerrain@@QAPAPAV1@0PAPAPAV1@@Z ; std::uninitialized_copy<CTerrain * * *,CTerrain * * *>
  0026b	83 c4 0c	 add	 esp, 12			; 0000000cH

; 1530 :         return _Mypair._Myval2;

  0026e	8b 45 70	 mov	 eax, DWORD PTR _this$[ebp]
  00271	89 45 bc	 mov	 DWORD PTR $T23[ebp], eax

; 1538 :         return _Get_data()._Map;

  00274	8b 45 bc	 mov	 eax, DWORD PTR $T23[ebp]
  00277	83 c0 04	 add	 eax, 4
  0027a	89 45 b4	 mov	 DWORD PTR $T21[ebp], eax

; 1530 :         return _Mypair._Myval2;

  0027d	8b 45 70	 mov	 eax, DWORD PTR _this$[ebp]
  00280	89 45 b8	 mov	 DWORD PTR $T22[ebp], eax

; 1538 :         return _Get_data()._Map;

  00283	8b 45 b8	 mov	 eax, DWORD PTR $T22[ebp]
  00286	83 c0 04	 add	 eax, 4
  00289	89 45 b0	 mov	 DWORD PTR $T20[ebp], eax

; 1456 :             _Myptr = _STD uninitialized_copy(_Map() + _Count, _Map() + _Myboff, _Newmap); // copy rest of old

  0028c	ff 75 60	 push	 DWORD PTR __Newmap$[ebp]
  0028f	8b 45 b4	 mov	 eax, DWORD PTR $T21[ebp]
  00292	8b 00		 mov	 eax, DWORD PTR [eax]
  00294	8b 4d 68	 mov	 ecx, DWORD PTR __Myboff$[ebp]
  00297	8d 04 88	 lea	 eax, DWORD PTR [eax+ecx*4]
  0029a	50		 push	 eax
  0029b	8b 45 b0	 mov	 eax, DWORD PTR $T20[ebp]
  0029e	8b 00		 mov	 eax, DWORD PTR [eax]
  002a0	8b 4d 7c	 mov	 ecx, DWORD PTR __Count$[ebp]
  002a3	8d 04 88	 lea	 eax, DWORD PTR [eax+ecx*4]
  002a6	50		 push	 eax
  002a7	e8 00 00 00 00	 call	 ??$uninitialized_copy@PAPAPAVCTerrain@@PAPAPAV1@@std@@YAPAPAPAVCTerrain@@QAPAPAV1@0PAPAPAV1@@Z ; std::uninitialized_copy<CTerrain * * *,CTerrain * * *>
  002ac	83 c4 0c	 add	 esp, 12			; 0000000cH
  002af	89 45 6c	 mov	 DWORD PTR __Myptr$[ebp], eax

; 1457 :             _Uninitialized_value_construct_n_unchecked1(_Myptr, _Count); // clear rest to initial block

  002b2	ff 75 7c	 push	 DWORD PTR __Count$[ebp]
  002b5	ff 75 6c	 push	 DWORD PTR __Myptr$[ebp]
  002b8	e8 00 00 00 00	 call	 ??$_Uninitialized_value_construct_n_unchecked1@PAPAPAVCTerrain@@I@std@@YAPAPAPAVCTerrain@@PAPAPAV1@I@Z ; std::_Uninitialized_value_construct_n_unchecked1<CTerrain * * *,unsigned int>
  002bd	59		 pop	 ecx
  002be	59		 pop	 ecx
$LN7@Growmap:

; 1530 :         return _Mypair._Myval2;

  002bf	8b 45 70	 mov	 eax, DWORD PTR _this$[ebp]
  002c2	89 45 ac	 mov	 DWORD PTR $T19[ebp], eax

; 1538 :         return _Get_data()._Map;

  002c5	8b 45 ac	 mov	 eax, DWORD PTR $T19[ebp]
  002c8	83 c0 04	 add	 eax, 4
  002cb	89 45 9c	 mov	 DWORD PTR $T15[ebp], eax

; 1530 :         return _Mypair._Myval2;

  002ce	8b 45 70	 mov	 eax, DWORD PTR _this$[ebp]
  002d1	89 45 a8	 mov	 DWORD PTR $T18[ebp], eax

; 1546 :         return _Get_data()._Mapsize;

  002d4	8b 45 a8	 mov	 eax, DWORD PTR $T18[ebp]
  002d7	83 c0 08	 add	 eax, 8
  002da	89 45 a0	 mov	 DWORD PTR $T16[ebp], eax

; 1530 :         return _Mypair._Myval2;

  002dd	8b 45 70	 mov	 eax, DWORD PTR _this$[ebp]
  002e0	89 45 a4	 mov	 DWORD PTR $T17[ebp], eax

; 1538 :         return _Get_data()._Map;

  002e3	8b 45 a4	 mov	 eax, DWORD PTR $T17[ebp]
  002e6	83 c0 04	 add	 eax, 4
  002e9	89 45 98	 mov	 DWORD PTR $T14[ebp], eax

; 1458 :         }
; 1459 : 
; 1460 :         _Destroy_range(_Map() + _Myboff, _Map() + _Mapsize());

  002ec	8b 45 a0	 mov	 eax, DWORD PTR $T16[ebp]
  002ef	8b 00		 mov	 eax, DWORD PTR [eax]
  002f1	8b 4d 9c	 mov	 ecx, DWORD PTR $T15[ebp]
  002f4	8b 09		 mov	 ecx, DWORD PTR [ecx]
  002f6	8d 04 81	 lea	 eax, DWORD PTR [ecx+eax*4]
  002f9	50		 push	 eax
  002fa	8b 45 98	 mov	 eax, DWORD PTR $T14[ebp]
  002fd	8b 00		 mov	 eax, DWORD PTR [eax]
  002ff	8b 4d 68	 mov	 ecx, DWORD PTR __Myboff$[ebp]
  00302	8d 04 88	 lea	 eax, DWORD PTR [eax+ecx*4]
  00305	50		 push	 eax
  00306	e8 00 00 00 00	 call	 ??$_Destroy_range@PAPAPAVCTerrain@@PAPAPAV1@@std@@YAXPAPAPAVCTerrain@@QAPAPAV1@@Z ; std::_Destroy_range<CTerrain * * *,CTerrain * * *>
  0030b	59		 pop	 ecx
  0030c	59		 pop	 ecx

; 1530 :         return _Mypair._Myval2;

  0030d	8b 45 70	 mov	 eax, DWORD PTR _this$[ebp]
  00310	89 45 94	 mov	 DWORD PTR $T13[ebp], eax

; 1538 :         return _Get_data()._Map;

  00313	8b 45 94	 mov	 eax, DWORD PTR $T13[ebp]
  00316	83 c0 04	 add	 eax, 4
  00319	89 45 90	 mov	 DWORD PTR $T12[ebp], eax

; 1461 :         if (_Map() != _Mapptr()) {

  0031c	8b 45 90	 mov	 eax, DWORD PTR $T12[ebp]
  0031f	83 38 00	 cmp	 DWORD PTR [eax], 0
  00322	74 4b		 je	 SHORT $LN8@Growmap

; 1530 :         return _Mypair._Myval2;

  00324	8b 45 70	 mov	 eax, DWORD PTR _this$[ebp]
  00327	89 45 8c	 mov	 DWORD PTR $T11[ebp], eax

; 1546 :         return _Get_data()._Mapsize;

  0032a	8b 45 8c	 mov	 eax, DWORD PTR $T11[ebp]
  0032d	83 c0 08	 add	 eax, 8
  00330	89 45 84	 mov	 DWORD PTR $T9[ebp], eax

; 1530 :         return _Mypair._Myval2;

  00333	8b 45 70	 mov	 eax, DWORD PTR _this$[ebp]
  00336	89 45 88	 mov	 DWORD PTR $T10[ebp], eax

; 1538 :         return _Get_data()._Map;

  00339	8b 45 88	 mov	 eax, DWORD PTR $T10[ebp]
  0033c	83 c0 04	 add	 eax, 4
  0033f	89 45 80	 mov	 DWORD PTR $T8[ebp], eax

; 1462 :             _Almap.deallocate(_Map(), _Mapsize()); // free storage for old

  00342	8b 45 84	 mov	 eax, DWORD PTR $T9[ebp]
  00345	8b 00		 mov	 eax, DWORD PTR [eax]
  00347	89 85 7c ff ff
	ff		 mov	 DWORD PTR __Count$[ebp], eax
  0034d	8b 45 80	 mov	 eax, DWORD PTR $T8[ebp]
  00350	8b 00		 mov	 eax, DWORD PTR [eax]
  00352	89 85 78 ff ff
	ff		 mov	 DWORD PTR __Ptr$[ebp], eax
; File C:\Program Files (x86)\Microsoft Visual Studio\2019\Community\VC\Tools\MSVC\14.28.29333\include\xmemory

; 810  :         _Deallocate<_New_alignof<_Ty>>(_Ptr, sizeof(_Ty) * _Count);

  00358	8b 85 7c ff ff
	ff		 mov	 eax, DWORD PTR __Count$[ebp]
  0035e	c1 e0 02	 shl	 eax, 2
  00361	50		 push	 eax
  00362	ff b5 78 ff ff
	ff		 push	 DWORD PTR __Ptr$[ebp]
  00368	e8 00 00 00 00	 call	 ??$_Deallocate@$07$0A@@std@@YAXPAXI@Z ; std::_Deallocate<8,0>
  0036d	59		 pop	 ecx
  0036e	59		 pop	 ecx
$LN8@Growmap:
; File C:\Program Files (x86)\Microsoft Visual Studio\2019\Community\VC\Tools\MSVC\14.28.29333\include\deque

; 1530 :         return _Mypair._Myval2;

  0036f	8b 45 70	 mov	 eax, DWORD PTR _this$[ebp]
  00372	89 85 74 ff ff
	ff		 mov	 DWORD PTR $T7[ebp], eax

; 1538 :         return _Get_data()._Map;

  00378	8b 85 74 ff ff
	ff		 mov	 eax, DWORD PTR $T7[ebp]
  0037e	83 c0 04	 add	 eax, 4
  00381	89 85 70 ff ff
	ff		 mov	 DWORD PTR $T6[ebp], eax

; 1463 :         }
; 1464 : 
; 1465 :         _Map() = _Newmap; // point at new

  00387	8b 85 70 ff ff
	ff		 mov	 eax, DWORD PTR $T6[ebp]
  0038d	8b 4d 60	 mov	 ecx, DWORD PTR __Newmap$[ebp]
  00390	89 08		 mov	 DWORD PTR [eax], ecx

; 1466 :         _Mapsize() += _Count;

  00392	8b 85 5c ff ff
	ff		 mov	 eax, DWORD PTR $T1[ebp]
  00398	89 45 58	 mov	 DWORD PTR tv214[ebp], eax

; 1530 :         return _Mypair._Myval2;

  0039b	8b 45 70	 mov	 eax, DWORD PTR _this$[ebp]
  0039e	89 85 6c ff ff
	ff		 mov	 DWORD PTR $T5[ebp], eax

; 1546 :         return _Get_data()._Mapsize;

  003a4	8b 85 6c ff ff
	ff		 mov	 eax, DWORD PTR $T5[ebp]
  003aa	83 c0 08	 add	 eax, 8
  003ad	89 45 58	 mov	 DWORD PTR tv214[ebp], eax

; 1466 :         _Mapsize() += _Count;

  003b0	8b 45 58	 mov	 eax, DWORD PTR tv214[ebp]
  003b3	8b 00		 mov	 eax, DWORD PTR [eax]
  003b5	03 45 7c	 add	 eax, DWORD PTR __Count$[ebp]
  003b8	8b 4d 58	 mov	 ecx, DWORD PTR tv214[ebp]
  003bb	89 01		 mov	 DWORD PTR [ecx], eax
$LN83@Growmap:

; 1467 :     }

  003bd	83 c5 74	 add	 ebp, 116		; 00000074H
  003c0	c9		 leave
  003c1	c2 04 00	 ret	 4
?_Growmap@?$deque@PAVCTerrain@@V?$allocator@PAVCTerrain@@@std@@@std@@AAEXI@Z ENDP ; std::deque<CTerrain *,std::allocator<CTerrain *> >::_Growmap
_TEXT	ENDS
; Function compile flags: /Odspy
; File C:\Program Files (x86)\Microsoft Visual Studio\2019\Community\VC\Tools\MSVC\14.28.29333\include\deque
;	COMDAT ?_Xlen@?$deque@PAVCTerrain@@V?$allocator@PAVCTerrain@@@std@@@std@@ABEXXZ
_TEXT	SEGMENT
_this$ = -4						; size = 4
?_Xlen@?$deque@PAVCTerrain@@V?$allocator@PAVCTerrain@@@std@@@std@@ABEXXZ PROC ; std::deque<CTerrain *,std::allocator<CTerrain *> >::_Xlen, COMDAT
; _this$ = ecx

; 1422 :     [[noreturn]] void _Xlen() const {

  00000	55		 push	 ebp
  00001	8b ec		 mov	 ebp, esp
  00003	51		 push	 ecx
  00004	89 4d fc	 mov	 DWORD PTR _this$[ebp], ecx

; 1423 :         _Xlength_error("deque<T> too long");

  00007	68 00 00 00 00	 push	 OFFSET ??_C@_0BC@KBDMBKEH@deque?$DMT?$DO?5too?5long@
  0000c	e8 00 00 00 00	 call	 ?_Xlength_error@std@@YAXPBD@Z ; std::_Xlength_error
$LN2@Xlen:

; 1424 :     }

  00011	c9		 leave
  00012	c3		 ret	 0
?_Xlen@?$deque@PAVCTerrain@@V?$allocator@PAVCTerrain@@@std@@@std@@ABEXXZ ENDP ; std::deque<CTerrain *,std::allocator<CTerrain *> >::_Xlen
_TEXT	ENDS
; Function compile flags: /Odspy
; File C:\Program Files (x86)\Microsoft Visual Studio\2019\Community\VC\Tools\MSVC\14.28.29333\include\deque
; File C:\Program Files (x86)\Microsoft Visual Studio\2019\Community\VC\Tools\MSVC\14.28.29333\include\xstddef
; File C:\Program Files (x86)\Microsoft Visual Studio\2019\Community\VC\Tools\MSVC\14.28.29333\include\deque
; File C:\Program Files (x86)\Microsoft Visual Studio\2019\Community\VC\Tools\MSVC\14.28.29333\include\xmemory
; File C:\Program Files (x86)\Microsoft Visual Studio\2019\Community\VC\Tools\MSVC\14.28.29333\include\deque
;	COMDAT ?pop_back@?$deque@PAVCTerrain@@V?$allocator@PAVCTerrain@@@std@@@std@@QAEXXZ
_TEXT	SEGMENT
$T1 = -80						; size = 4
$T2 = -76						; size = 4
$T3 = -72						; size = 4
$T4 = -68						; size = 4
$T5 = -64						; size = 4
$T6 = -60						; size = 4
$T7 = -56						; size = 4
__Ptr$ = -52						; size = 4
__Block$ = -48						; size = 4
$T8 = -44						; size = 4
$T9 = -40						; size = 4
$T10 = -36						; size = 4
$T11 = -32						; size = 4
$T12 = -28						; size = 4
$T13 = -24						; size = 4
$T14 = -20						; size = 4
$T15 = -16						; size = 4
__Newoff$ = -12						; size = 4
tv88 = -8						; size = 4
_this$ = -4						; size = 4
?pop_back@?$deque@PAVCTerrain@@V?$allocator@PAVCTerrain@@@std@@@std@@QAEXXZ PROC ; std::deque<CTerrain *,std::allocator<CTerrain *> >::pop_back, COMDAT
; _this$ = ecx

; 1126 :     void pop_back() noexcept /* strengthened */ {

  00000	55		 push	 ebp
  00001	8b ec		 mov	 ebp, esp
  00003	83 ec 50	 sub	 esp, 80			; 00000050H
  00006	89 4d fc	 mov	 DWORD PTR _this$[ebp], ecx

; 1530 :         return _Mypair._Myval2;

  00009	8b 45 fc	 mov	 eax, DWORD PTR _this$[ebp]
  0000c	89 45 f0	 mov	 DWORD PTR $T15[ebp], eax

; 1554 :         return _Get_data()._Myoff;

  0000f	8b 45 f0	 mov	 eax, DWORD PTR $T15[ebp]
  00012	83 c0 0c	 add	 eax, 12			; 0000000cH
  00015	89 45 e8	 mov	 DWORD PTR $T13[ebp], eax

; 1530 :         return _Mypair._Myval2;

  00018	8b 45 fc	 mov	 eax, DWORD PTR _this$[ebp]
  0001b	89 45 ec	 mov	 DWORD PTR $T14[ebp], eax

; 1562 :         return _Get_data()._Mysize;

  0001e	8b 45 ec	 mov	 eax, DWORD PTR $T14[ebp]
  00021	83 c0 10	 add	 eax, 16			; 00000010H
  00024	89 45 e4	 mov	 DWORD PTR $T12[ebp], eax

; 1127 : #if _ITERATOR_DEBUG_LEVEL == 2
; 1128 :         if (empty()) {
; 1129 :             _STL_REPORT_ERROR("deque empty before pop");
; 1130 :         } else { // something to erase, do it
; 1131 :             size_type _Newoff = _Myoff() + _Mysize() - 1;
; 1132 :             _Orphan_off(_Newoff);
; 1133 :             size_type _Block = _Getblock(_Newoff);
; 1134 :             _Alty_traits::destroy(_Getal(), _Unfancy(_Map()[_Block] + _Newoff % _DEQUESIZ));
; 1135 :             if (--_Mysize() == 0) {
; 1136 :                 _Myoff() = 0;
; 1137 :             }
; 1138 :         }
; 1139 : 
; 1140 : #else // _ITERATOR_DEBUG_LEVEL == 2
; 1141 :         size_type _Newoff = _Myoff() + _Mysize() - 1;

  00027	8b 45 e8	 mov	 eax, DWORD PTR $T13[ebp]
  0002a	8b 00		 mov	 eax, DWORD PTR [eax]
  0002c	8b 4d e4	 mov	 ecx, DWORD PTR $T12[ebp]
  0002f	8b 09		 mov	 ecx, DWORD PTR [ecx]
  00031	8d 44 08 ff	 lea	 eax, DWORD PTR [eax+ecx-1]
  00035	89 45 f4	 mov	 DWORD PTR __Newoff$[ebp], eax

; 1534 :         return _Mypair._Myval2;

  00038	8b 45 fc	 mov	 eax, DWORD PTR _this$[ebp]
  0003b	89 45 e0	 mov	 DWORD PTR $T11[ebp], eax

; 548  :         return (_Off / _DEQUESIZ) & (_Mapsize - 1);

  0003e	8b 45 f4	 mov	 eax, DWORD PTR __Newoff$[ebp]
  00041	c1 e8 02	 shr	 eax, 2
  00044	8b 4d e0	 mov	 ecx, DWORD PTR $T11[ebp]
  00047	8b 49 08	 mov	 ecx, DWORD PTR [ecx+8]
  0004a	49		 dec	 ecx
  0004b	23 c1		 and	 eax, ecx
  0004d	89 45 dc	 mov	 DWORD PTR $T10[ebp], eax

; 1514 :         return _Get_data()._Getblock(_Off);

  00050	8b 45 dc	 mov	 eax, DWORD PTR $T10[ebp]
  00053	89 45 d0	 mov	 DWORD PTR __Block$[ebp], eax

; 1530 :         return _Mypair._Myval2;

  00056	8b 45 fc	 mov	 eax, DWORD PTR _this$[ebp]
  00059	89 45 d8	 mov	 DWORD PTR $T9[ebp], eax

; 1538 :         return _Get_data()._Map;

  0005c	8b 45 d8	 mov	 eax, DWORD PTR $T9[ebp]
  0005f	83 c0 04	 add	 eax, 4
  00062	89 45 d4	 mov	 DWORD PTR $T8[ebp], eax

; 1142 :         size_type _Block  = _Getblock(_Newoff);
; 1143 :         _Alty_traits::destroy(_Getal(), _Unfancy(_Map()[_Block] + _Newoff % _DEQUESIZ));

  00065	8b 45 f4	 mov	 eax, DWORD PTR __Newoff$[ebp]
  00068	33 d2		 xor	 edx, edx
  0006a	6a 04		 push	 4
  0006c	59		 pop	 ecx
  0006d	f7 f1		 div	 ecx
  0006f	8b 45 d4	 mov	 eax, DWORD PTR $T8[ebp]
  00072	8b 00		 mov	 eax, DWORD PTR [eax]
  00074	8b 4d d0	 mov	 ecx, DWORD PTR __Block$[ebp]
  00077	8b 04 88	 mov	 eax, DWORD PTR [eax+ecx*4]
  0007a	8d 04 90	 lea	 eax, DWORD PTR [eax+edx*4]
  0007d	89 45 cc	 mov	 DWORD PTR __Ptr$[ebp], eax
; File C:\Program Files (x86)\Microsoft Visual Studio\2019\Community\VC\Tools\MSVC\14.28.29333\include\xstddef

; 289  :     return _Ptr;

  00080	8b 45 cc	 mov	 eax, DWORD PTR __Ptr$[ebp]
  00083	89 45 b8	 mov	 DWORD PTR $T3[ebp], eax
; File C:\Program Files (x86)\Microsoft Visual Studio\2019\Community\VC\Tools\MSVC\14.28.29333\include\deque

; 1522 :         return _Mypair._Get_first();

  00086	8b 45 fc	 mov	 eax, DWORD PTR _this$[ebp]
; File C:\Program Files (x86)\Microsoft Visual Studio\2019\Community\VC\Tools\MSVC\14.28.29333\include\xmemory

; 1347 :         return *this;

  00089	89 45 c8	 mov	 DWORD PTR $T7[ebp], eax
; File C:\Program Files (x86)\Microsoft Visual Studio\2019\Community\VC\Tools\MSVC\14.28.29333\include\deque

; 1522 :         return _Mypair._Get_first();

  0008c	8b 45 c8	 mov	 eax, DWORD PTR $T7[ebp]
  0008f	89 45 b4	 mov	 DWORD PTR $T2[ebp], eax

; 1144 :         if (--_Mysize() == 0) {

  00092	8b 45 b0	 mov	 eax, DWORD PTR $T1[ebp]
  00095	89 45 f8	 mov	 DWORD PTR tv88[ebp], eax

; 1530 :         return _Mypair._Myval2;

  00098	8b 45 fc	 mov	 eax, DWORD PTR _this$[ebp]
  0009b	89 45 c4	 mov	 DWORD PTR $T6[ebp], eax

; 1562 :         return _Get_data()._Mysize;

  0009e	8b 45 c4	 mov	 eax, DWORD PTR $T6[ebp]
  000a1	83 c0 10	 add	 eax, 16			; 00000010H
  000a4	89 45 f8	 mov	 DWORD PTR tv88[ebp], eax

; 1144 :         if (--_Mysize() == 0) {

  000a7	8b 45 f8	 mov	 eax, DWORD PTR tv88[ebp]
  000aa	8b 00		 mov	 eax, DWORD PTR [eax]
  000ac	48		 dec	 eax
  000ad	8b 4d f8	 mov	 ecx, DWORD PTR tv88[ebp]
  000b0	89 01		 mov	 DWORD PTR [ecx], eax
  000b2	8b 45 f8	 mov	 eax, DWORD PTR tv88[ebp]
  000b5	83 38 00	 cmp	 DWORD PTR [eax], 0
  000b8	75 15		 jne	 SHORT $LN3@pop_back

; 1530 :         return _Mypair._Myval2;

  000ba	8b 45 fc	 mov	 eax, DWORD PTR _this$[ebp]
  000bd	89 45 c0	 mov	 DWORD PTR $T5[ebp], eax

; 1554 :         return _Get_data()._Myoff;

  000c0	8b 45 c0	 mov	 eax, DWORD PTR $T5[ebp]
  000c3	83 c0 0c	 add	 eax, 12			; 0000000cH
  000c6	89 45 bc	 mov	 DWORD PTR $T4[ebp], eax

; 1145 :             _Myoff() = 0;

  000c9	8b 45 bc	 mov	 eax, DWORD PTR $T4[ebp]
  000cc	83 20 00	 and	 DWORD PTR [eax], 0
$LN3@pop_back:

; 1146 :         }
; 1147 : #endif // _ITERATOR_DEBUG_LEVEL == 2
; 1148 :     }

  000cf	c9		 leave
  000d0	c3		 ret	 0
?pop_back@?$deque@PAVCTerrain@@V?$allocator@PAVCTerrain@@@std@@@std@@QAEXXZ ENDP ; std::deque<CTerrain *,std::allocator<CTerrain *> >::pop_back
_TEXT	ENDS
; Function compile flags: /Odspy
; File C:\Program Files (x86)\Microsoft Visual Studio\2019\Community\VC\Tools\MSVC\14.28.29333\include\deque
; File C:\Program Files (x86)\Microsoft Visual Studio\2019\Community\VC\Tools\MSVC\14.28.29333\include\xstddef
; File C:\Program Files (x86)\Microsoft Visual Studio\2019\Community\VC\Tools\MSVC\14.28.29333\include\deque
; File C:\Program Files (x86)\Microsoft Visual Studio\2019\Community\VC\Tools\MSVC\14.28.29333\include\xmemory
; File C:\Program Files (x86)\Microsoft Visual Studio\2019\Community\VC\Tools\MSVC\14.28.29333\include\deque
;	COMDAT ?pop_front@?$deque@PAVCTerrain@@V?$allocator@PAVCTerrain@@@std@@@std@@QAEXXZ
_TEXT	SEGMENT
$T1 = -92						; size = 4
$T2 = -88						; size = 4
$T3 = -84						; size = 4
$T4 = -80						; size = 4
$T5 = -76						; size = 4
$T6 = -72						; size = 4
$T7 = -68						; size = 4
$T8 = -64						; size = 4
$T9 = -60						; size = 4
__Ptr$ = -56						; size = 4
__Block$ = -52						; size = 4
$T10 = -48						; size = 4
$T11 = -44						; size = 4
$T12 = -40						; size = 4
$T13 = -36						; size = 4
$T14 = -32						; size = 4
$T15 = -28						; size = 4
__Off$ = -24						; size = 4
$T16 = -20						; size = 4
$T17 = -16						; size = 4
tv93 = -12						; size = 4
tv86 = -8						; size = 4
_this$ = -4						; size = 4
?pop_front@?$deque@PAVCTerrain@@V?$allocator@PAVCTerrain@@@std@@@std@@QAEXXZ PROC ; std::deque<CTerrain *,std::allocator<CTerrain *> >::pop_front, COMDAT
; _this$ = ecx

; 1086 :     void pop_front() noexcept /* strengthened */ {

  00000	55		 push	 ebp
  00001	8b ec		 mov	 ebp, esp
  00003	83 ec 5c	 sub	 esp, 92			; 0000005cH
  00006	89 4d fc	 mov	 DWORD PTR _this$[ebp], ecx

; 1530 :         return _Mypair._Myval2;

  00009	8b 45 fc	 mov	 eax, DWORD PTR _this$[ebp]
  0000c	89 45 f0	 mov	 DWORD PTR $T17[ebp], eax

; 1554 :         return _Get_data()._Myoff;

  0000f	8b 45 f0	 mov	 eax, DWORD PTR $T17[ebp]
  00012	83 c0 0c	 add	 eax, 12			; 0000000cH
  00015	89 45 ec	 mov	 DWORD PTR $T16[ebp], eax

; 1087 : #if _ITERATOR_DEBUG_LEVEL == 2
; 1088 :         if (empty()) {
; 1089 :             _STL_REPORT_ERROR("deque empty before pop");
; 1090 :         } else { // something to erase, do it
; 1091 :             _Orphan_off(_Myoff());
; 1092 :             size_type _Block = _Getblock(_Myoff());
; 1093 :             _Alty_traits::destroy(_Getal(), _Unfancy(_Map()[_Block] + _Myoff() % _DEQUESIZ));
; 1094 :             if (--_Mysize() == 0) {
; 1095 :                 _Myoff() = 0;
; 1096 :             } else {
; 1097 :                 ++_Myoff();
; 1098 :             }
; 1099 :         }
; 1100 : 
; 1101 : #else // _ITERATOR_DEBUG_LEVEL == 2
; 1102 :         size_type _Block = _Getblock(_Myoff());

  00018	8b 45 ec	 mov	 eax, DWORD PTR $T16[ebp]
  0001b	8b 00		 mov	 eax, DWORD PTR [eax]
  0001d	89 45 e8	 mov	 DWORD PTR __Off$[ebp], eax

; 1534 :         return _Mypair._Myval2;

  00020	8b 45 fc	 mov	 eax, DWORD PTR _this$[ebp]
  00023	89 45 e4	 mov	 DWORD PTR $T15[ebp], eax

; 548  :         return (_Off / _DEQUESIZ) & (_Mapsize - 1);

  00026	8b 45 e8	 mov	 eax, DWORD PTR __Off$[ebp]
  00029	c1 e8 02	 shr	 eax, 2
  0002c	8b 4d e4	 mov	 ecx, DWORD PTR $T15[ebp]
  0002f	8b 49 08	 mov	 ecx, DWORD PTR [ecx+8]
  00032	49		 dec	 ecx
  00033	23 c1		 and	 eax, ecx
  00035	89 45 e0	 mov	 DWORD PTR $T14[ebp], eax

; 1514 :         return _Get_data()._Getblock(_Off);

  00038	8b 45 e0	 mov	 eax, DWORD PTR $T14[ebp]
  0003b	89 45 cc	 mov	 DWORD PTR __Block$[ebp], eax

; 1530 :         return _Mypair._Myval2;

  0003e	8b 45 fc	 mov	 eax, DWORD PTR _this$[ebp]
  00041	89 45 dc	 mov	 DWORD PTR $T13[ebp], eax

; 1538 :         return _Get_data()._Map;

  00044	8b 45 dc	 mov	 eax, DWORD PTR $T13[ebp]
  00047	83 c0 04	 add	 eax, 4
  0004a	89 45 d0	 mov	 DWORD PTR $T10[ebp], eax

; 1530 :         return _Mypair._Myval2;

  0004d	8b 45 fc	 mov	 eax, DWORD PTR _this$[ebp]
  00050	89 45 d8	 mov	 DWORD PTR $T12[ebp], eax

; 1554 :         return _Get_data()._Myoff;

  00053	8b 45 d8	 mov	 eax, DWORD PTR $T12[ebp]
  00056	83 c0 0c	 add	 eax, 12			; 0000000cH
  00059	89 45 d4	 mov	 DWORD PTR $T11[ebp], eax

; 1103 :         _Alty_traits::destroy(_Getal(), _Unfancy(_Map()[_Block] + _Myoff() % _DEQUESIZ));

  0005c	8b 45 d4	 mov	 eax, DWORD PTR $T11[ebp]
  0005f	8b 00		 mov	 eax, DWORD PTR [eax]
  00061	33 d2		 xor	 edx, edx
  00063	6a 04		 push	 4
  00065	59		 pop	 ecx
  00066	f7 f1		 div	 ecx
  00068	8b 45 d0	 mov	 eax, DWORD PTR $T10[ebp]
  0006b	8b 00		 mov	 eax, DWORD PTR [eax]
  0006d	8b 4d cc	 mov	 ecx, DWORD PTR __Block$[ebp]
  00070	8b 04 88	 mov	 eax, DWORD PTR [eax+ecx*4]
  00073	8d 04 90	 lea	 eax, DWORD PTR [eax+edx*4]
  00076	89 45 c8	 mov	 DWORD PTR __Ptr$[ebp], eax
; File C:\Program Files (x86)\Microsoft Visual Studio\2019\Community\VC\Tools\MSVC\14.28.29333\include\xstddef

; 289  :     return _Ptr;

  00079	8b 45 c8	 mov	 eax, DWORD PTR __Ptr$[ebp]
  0007c	89 45 b0	 mov	 DWORD PTR $T4[ebp], eax
; File C:\Program Files (x86)\Microsoft Visual Studio\2019\Community\VC\Tools\MSVC\14.28.29333\include\deque

; 1522 :         return _Mypair._Get_first();

  0007f	8b 45 fc	 mov	 eax, DWORD PTR _this$[ebp]
; File C:\Program Files (x86)\Microsoft Visual Studio\2019\Community\VC\Tools\MSVC\14.28.29333\include\xmemory

; 1347 :         return *this;

  00082	89 45 c4	 mov	 DWORD PTR $T9[ebp], eax
; File C:\Program Files (x86)\Microsoft Visual Studio\2019\Community\VC\Tools\MSVC\14.28.29333\include\deque

; 1522 :         return _Mypair._Get_first();

  00085	8b 45 c4	 mov	 eax, DWORD PTR $T9[ebp]
  00088	89 45 ac	 mov	 DWORD PTR $T3[ebp], eax

; 1104 :         if (--_Mysize() == 0) {

  0008b	8b 45 a8	 mov	 eax, DWORD PTR $T2[ebp]
  0008e	89 45 f8	 mov	 DWORD PTR tv86[ebp], eax

; 1530 :         return _Mypair._Myval2;

  00091	8b 45 fc	 mov	 eax, DWORD PTR _this$[ebp]
  00094	89 45 c0	 mov	 DWORD PTR $T8[ebp], eax

; 1562 :         return _Get_data()._Mysize;

  00097	8b 45 c0	 mov	 eax, DWORD PTR $T8[ebp]
  0009a	83 c0 10	 add	 eax, 16			; 00000010H
  0009d	89 45 f8	 mov	 DWORD PTR tv86[ebp], eax

; 1104 :         if (--_Mysize() == 0) {

  000a0	8b 45 f8	 mov	 eax, DWORD PTR tv86[ebp]
  000a3	8b 00		 mov	 eax, DWORD PTR [eax]
  000a5	48		 dec	 eax
  000a6	8b 4d f8	 mov	 ecx, DWORD PTR tv86[ebp]
  000a9	89 01		 mov	 DWORD PTR [ecx], eax
  000ab	8b 45 f8	 mov	 eax, DWORD PTR tv86[ebp]
  000ae	83 38 00	 cmp	 DWORD PTR [eax], 0
  000b1	75 17		 jne	 SHORT $LN2@pop_front

; 1530 :         return _Mypair._Myval2;

  000b3	8b 45 fc	 mov	 eax, DWORD PTR _this$[ebp]
  000b6	89 45 bc	 mov	 DWORD PTR $T7[ebp], eax

; 1554 :         return _Get_data()._Myoff;

  000b9	8b 45 bc	 mov	 eax, DWORD PTR $T7[ebp]
  000bc	83 c0 0c	 add	 eax, 12			; 0000000cH
  000bf	89 45 b8	 mov	 DWORD PTR $T6[ebp], eax

; 1105 :             _Myoff() = 0;

  000c2	8b 45 b8	 mov	 eax, DWORD PTR $T6[ebp]
  000c5	83 20 00	 and	 DWORD PTR [eax], 0

; 1106 :         } else {

  000c8	eb 20		 jmp	 SHORT $LN4@pop_front
$LN2@pop_front:

; 1107 :             ++_Myoff();

  000ca	8b 45 a4	 mov	 eax, DWORD PTR $T1[ebp]
  000cd	89 45 f4	 mov	 DWORD PTR tv93[ebp], eax

; 1530 :         return _Mypair._Myval2;

  000d0	8b 45 fc	 mov	 eax, DWORD PTR _this$[ebp]
  000d3	89 45 b4	 mov	 DWORD PTR $T5[ebp], eax

; 1554 :         return _Get_data()._Myoff;

  000d6	8b 45 b4	 mov	 eax, DWORD PTR $T5[ebp]
  000d9	83 c0 0c	 add	 eax, 12			; 0000000cH
  000dc	89 45 f4	 mov	 DWORD PTR tv93[ebp], eax

; 1107 :             ++_Myoff();

  000df	8b 45 f4	 mov	 eax, DWORD PTR tv93[ebp]
  000e2	8b 00		 mov	 eax, DWORD PTR [eax]
  000e4	40		 inc	 eax
  000e5	8b 4d f4	 mov	 ecx, DWORD PTR tv93[ebp]
  000e8	89 01		 mov	 DWORD PTR [ecx], eax
$LN4@pop_front:

; 1108 :         }
; 1109 : #endif // _ITERATOR_DEBUG_LEVEL == 2
; 1110 :     }

  000ea	c9		 leave
  000eb	c3		 ret	 0
?pop_front@?$deque@PAVCTerrain@@V?$allocator@PAVCTerrain@@@std@@@std@@QAEXXZ ENDP ; std::deque<CTerrain *,std::allocator<CTerrain *> >::pop_front
_TEXT	ENDS
; Function compile flags: /Odspy
; File C:\Program Files (x86)\Microsoft Visual Studio\2019\Community\VC\Tools\MSVC\14.28.29333\include\deque
; File C:\Program Files (x86)\Microsoft Visual Studio\2019\Community\VC\Tools\MSVC\14.28.29333\include\xstddef
; File C:\Program Files (x86)\Microsoft Visual Studio\2019\Community\VC\Tools\MSVC\14.28.29333\include\deque
;	COMDAT ?front@?$deque@PAVCTerrain@@V?$allocator@PAVCTerrain@@@std@@@std@@QAEAAPAVCTerrain@@XZ
_TEXT	SEGMENT
$T1 = -40						; size = 8
$T2 = -32						; size = 4
$T3 = -28						; size = 4
___param0$ = -24					; size = 4
$T4 = -20						; size = 4
$T5 = -16						; size = 4
$T6 = -12						; size = 4
$T7 = -8						; size = 4
_this$ = -4						; size = 4
?front@?$deque@PAVCTerrain@@V?$allocator@PAVCTerrain@@@std@@@std@@QAEAAPAVCTerrain@@XZ PROC ; std::deque<CTerrain *,std::allocator<CTerrain *> >::front, COMDAT
; _this$ = ecx

; 1047 :     _NODISCARD reference front() noexcept /* strengthened */ {

  00000	55		 push	 ebp
  00001	8b ec		 mov	 ebp, esp
  00003	83 ec 28	 sub	 esp, 40			; 00000028H
  00006	89 4d fc	 mov	 DWORD PTR _this$[ebp], ecx

; 1530 :         return _Mypair._Myval2;

  00009	8b 45 fc	 mov	 eax, DWORD PTR _this$[ebp]
  0000c	89 45 f8	 mov	 DWORD PTR $T7[ebp], eax
; File C:\Program Files (x86)\Microsoft Visual Studio\2019\Community\VC\Tools\MSVC\14.28.29333\include\xstddef

; 275  :     return __builtin_addressof(_Val);

  0000f	8b 45 f8	 mov	 eax, DWORD PTR $T7[ebp]
  00012	89 45 ec	 mov	 DWORD PTR $T4[ebp], eax
; File C:\Program Files (x86)\Microsoft Visual Studio\2019\Community\VC\Tools\MSVC\14.28.29333\include\deque

; 1530 :         return _Mypair._Myval2;

  00015	8b 45 fc	 mov	 eax, DWORD PTR _this$[ebp]
  00018	89 45 f4	 mov	 DWORD PTR $T6[ebp], eax

; 1554 :         return _Get_data()._Myoff;

  0001b	8b 45 f4	 mov	 eax, DWORD PTR $T6[ebp]
  0001e	83 c0 0c	 add	 eax, 12			; 0000000cH
  00021	89 45 f0	 mov	 DWORD PTR $T5[ebp], eax

; 914  :         return _Unchecked_iterator(_Myoff(), _STD addressof(_Get_data()));

  00024	8b 45 f0	 mov	 eax, DWORD PTR $T5[ebp]
  00027	8b 00		 mov	 eax, DWORD PTR [eax]
  00029	89 45 e8	 mov	 DWORD PTR ___param0$[ebp], eax

; 52   :         : _Mycont(static_cast<const _Mydeque*>(_Pdeque)), _Myoff(_Off) {}

  0002c	8b 45 ec	 mov	 eax, DWORD PTR $T4[ebp]
  0002f	89 45 d8	 mov	 DWORD PTR $T1[ebp], eax
  00032	8b 45 e8	 mov	 eax, DWORD PTR ___param0$[ebp]
  00035	89 45 dc	 mov	 DWORD PTR $T1[ebp+4], eax

; 914  :         return _Unchecked_iterator(_Myoff(), _STD addressof(_Get_data()));

  00038	8d 45 d8	 lea	 eax, DWORD PTR $T1[ebp]
  0003b	89 45 e4	 mov	 DWORD PTR $T3[ebp], eax

; 171  :         return const_cast<reference>(_Mybase::operator*());

  0003e	8b 4d e4	 mov	 ecx, DWORD PTR $T3[ebp]
  00041	e8 00 00 00 00	 call	 ??D?$_Deque_unchecked_const_iterator@V?$_Deque_val@U?$_Deque_simple_types@PAVCTerrain@@@std@@@std@@@std@@QBEABQAVCTerrain@@XZ ; std::_Deque_unchecked_const_iterator<std::_Deque_val<std::_Deque_simple_types<CTerrain *> > >::operator*
  00046	89 45 e0	 mov	 DWORD PTR $T2[ebp], eax

; 1048 : #if _CONTAINER_DEBUG_LEVEL > 0
; 1049 :         _STL_VERIFY(!empty(), "front() called on empty deque");
; 1050 : #endif // _CONTAINER_DEBUG_LEVEL > 0
; 1051 : 
; 1052 :         return *_Unchecked_begin();

  00049	8b 45 e0	 mov	 eax, DWORD PTR $T2[ebp]

; 1053 :     }

  0004c	c9		 leave
  0004d	c3		 ret	 0
?front@?$deque@PAVCTerrain@@V?$allocator@PAVCTerrain@@@std@@@std@@QAEAAPAVCTerrain@@XZ ENDP ; std::deque<CTerrain *,std::allocator<CTerrain *> >::front
_TEXT	ENDS
; Function compile flags: /Odspy
; File C:\Program Files (x86)\Microsoft Visual Studio\2019\Community\VC\Tools\MSVC\14.28.29333\include\deque
; File C:\Program Files (x86)\Microsoft Visual Studio\2019\Community\VC\Tools\MSVC\14.28.29333\include\xstddef
; File C:\Program Files (x86)\Microsoft Visual Studio\2019\Community\VC\Tools\MSVC\14.28.29333\include\deque
;	COMDAT ?_Unchecked_begin@?$deque@PAVCTerrain@@V?$allocator@PAVCTerrain@@@std@@@std@@QAE?AV?$_Deque_unchecked_iterator@V?$_Deque_val@U?$_Deque_simple_types@PAVCTerrain@@@std@@@std@@@2@XZ
_TEXT	SEGMENT
___param0$ = -24					; size = 4
$T1 = -20						; size = 4
$T2 = -16						; size = 4
$T3 = -12						; size = 4
$T4 = -8						; size = 4
_this$ = -4						; size = 4
___$ReturnUdt$ = 8					; size = 4
?_Unchecked_begin@?$deque@PAVCTerrain@@V?$allocator@PAVCTerrain@@@std@@@std@@QAE?AV?$_Deque_unchecked_iterator@V?$_Deque_val@U?$_Deque_simple_types@PAVCTerrain@@@std@@@std@@@2@XZ PROC ; std::deque<CTerrain *,std::allocator<CTerrain *> >::_Unchecked_begin, COMDAT
; _this$ = ecx

; 913  :     _Unchecked_iterator _Unchecked_begin() noexcept {

  00000	55		 push	 ebp
  00001	8b ec		 mov	 ebp, esp
  00003	83 ec 18	 sub	 esp, 24			; 00000018H
  00006	89 4d fc	 mov	 DWORD PTR _this$[ebp], ecx

; 1530 :         return _Mypair._Myval2;

  00009	8b 45 fc	 mov	 eax, DWORD PTR _this$[ebp]
  0000c	89 45 f8	 mov	 DWORD PTR $T4[ebp], eax
; File C:\Program Files (x86)\Microsoft Visual Studio\2019\Community\VC\Tools\MSVC\14.28.29333\include\xstddef

; 275  :     return __builtin_addressof(_Val);

  0000f	8b 45 f8	 mov	 eax, DWORD PTR $T4[ebp]
  00012	89 45 ec	 mov	 DWORD PTR $T1[ebp], eax
; File C:\Program Files (x86)\Microsoft Visual Studio\2019\Community\VC\Tools\MSVC\14.28.29333\include\deque

; 1530 :         return _Mypair._Myval2;

  00015	8b 45 fc	 mov	 eax, DWORD PTR _this$[ebp]
  00018	89 45 f4	 mov	 DWORD PTR $T3[ebp], eax

; 1554 :         return _Get_data()._Myoff;

  0001b	8b 45 f4	 mov	 eax, DWORD PTR $T3[ebp]
  0001e	83 c0 0c	 add	 eax, 12			; 0000000cH
  00021	89 45 f0	 mov	 DWORD PTR $T2[ebp], eax

; 914  :         return _Unchecked_iterator(_Myoff(), _STD addressof(_Get_data()));

  00024	8b 45 f0	 mov	 eax, DWORD PTR $T2[ebp]
  00027	8b 00		 mov	 eax, DWORD PTR [eax]
  00029	89 45 e8	 mov	 DWORD PTR ___param0$[ebp], eax

; 52   :         : _Mycont(static_cast<const _Mydeque*>(_Pdeque)), _Myoff(_Off) {}

  0002c	8b 45 08	 mov	 eax, DWORD PTR ___$ReturnUdt$[ebp]
  0002f	8b 4d ec	 mov	 ecx, DWORD PTR $T1[ebp]
  00032	89 08		 mov	 DWORD PTR [eax], ecx
  00034	8b 45 08	 mov	 eax, DWORD PTR ___$ReturnUdt$[ebp]
  00037	8b 4d e8	 mov	 ecx, DWORD PTR ___param0$[ebp]
  0003a	89 48 04	 mov	 DWORD PTR [eax+4], ecx

; 914  :         return _Unchecked_iterator(_Myoff(), _STD addressof(_Get_data()));

  0003d	8b 45 08	 mov	 eax, DWORD PTR ___$ReturnUdt$[ebp]

; 915  :     }

  00040	c9		 leave
  00041	c2 04 00	 ret	 4
?_Unchecked_begin@?$deque@PAVCTerrain@@V?$allocator@PAVCTerrain@@@std@@@std@@QAE?AV?$_Deque_unchecked_iterator@V?$_Deque_val@U?$_Deque_simple_types@PAVCTerrain@@@std@@@std@@@2@XZ ENDP ; std::deque<CTerrain *,std::allocator<CTerrain *> >::_Unchecked_begin
_TEXT	ENDS
; Function compile flags: /Odspy
; File C:\Program Files (x86)\Microsoft Visual Studio\2019\Community\VC\Tools\MSVC\14.28.29333\include\deque
; File C:\Program Files (x86)\Microsoft Visual Studio\2019\Community\VC\Tools\MSVC\14.28.29333\include\xmemory
; File C:\Program Files (x86)\Microsoft Visual Studio\2019\Community\VC\Tools\MSVC\14.28.29333\include\deque
; File C:\Program Files (x86)\Microsoft Visual Studio\2019\Community\VC\Tools\MSVC\14.28.29333\include\utility
; File C:\Program Files (x86)\Microsoft Visual Studio\2019\Community\VC\Tools\MSVC\14.28.29333\include\deque
;	COMDAT ??1?$deque@PAVCTerrain@@V?$allocator@PAVCTerrain@@@std@@@std@@QAE@XZ
_TEXT	SEGMENT
$T1 = -32						; size = 4
$T2 = -28						; size = 4
__Old_val$3 = -24					; size = 4
$T4 = -20						; size = 4
$T5 = -16						; size = 4
$T6 = -12						; size = 4
_this$ = -8						; size = 4
__Proxy_allocator$ = -1					; size = 1
??1?$deque@PAVCTerrain@@V?$allocator@PAVCTerrain@@@std@@@std@@QAE@XZ PROC ; std::deque<CTerrain *,std::allocator<CTerrain *> >::~deque<CTerrain *,std::allocator<CTerrain *> >, COMDAT
; _this$ = ecx

; 869  :     ~deque() noexcept {

  00000	55		 push	 ebp
  00001	8b ec		 mov	 ebp, esp
  00003	83 ec 20	 sub	 esp, 32			; 00000020H
  00006	89 4d f8	 mov	 DWORD PTR _this$[ebp], ecx

; 870  :         _Tidy();

  00009	8b 4d f8	 mov	 ecx, DWORD PTR _this$[ebp]
  0000c	e8 00 00 00 00	 call	 ?_Tidy@?$deque@PAVCTerrain@@V?$allocator@PAVCTerrain@@@std@@@std@@AAEXXZ ; std::deque<CTerrain *,std::allocator<CTerrain *> >::_Tidy

; 1522 :         return _Mypair._Get_first();

  00011	8b 45 f8	 mov	 eax, DWORD PTR _this$[ebp]
; File C:\Program Files (x86)\Microsoft Visual Studio\2019\Community\VC\Tools\MSVC\14.28.29333\include\xmemory

; 1347 :         return *this;

  00014	89 45 f0	 mov	 DWORD PTR $T5[ebp], eax
; File C:\Program Files (x86)\Microsoft Visual Studio\2019\Community\VC\Tools\MSVC\14.28.29333\include\deque

; 1522 :         return _Mypair._Get_first();

  00017	8b 45 f0	 mov	 eax, DWORD PTR $T5[ebp]
  0001a	89 45 e0	 mov	 DWORD PTR $T1[ebp], eax

; 872  :         _Delete_plain_internal(_Proxy_allocator, _STD exchange(_Get_data()._Myproxy, nullptr));

  0001d	83 65 ec 00	 and	 DWORD PTR $T4[ebp], 0

; 1530 :         return _Mypair._Myval2;

  00021	8b 45 f8	 mov	 eax, DWORD PTR _this$[ebp]
  00024	89 45 f4	 mov	 DWORD PTR $T6[ebp], eax
; File C:\Program Files (x86)\Microsoft Visual Studio\2019\Community\VC\Tools\MSVC\14.28.29333\include\utility

; 598  :     _Ty _Old_val = static_cast<_Ty&&>(_Val);

  00027	8b 45 f4	 mov	 eax, DWORD PTR $T6[ebp]
  0002a	8b 00		 mov	 eax, DWORD PTR [eax]
  0002c	89 45 e8	 mov	 DWORD PTR __Old_val$3[ebp], eax

; 599  :     _Val         = static_cast<_Other&&>(_New_val);

  0002f	8b 45 f4	 mov	 eax, DWORD PTR $T6[ebp]
  00032	8b 4d ec	 mov	 ecx, DWORD PTR $T4[ebp]
  00035	89 08		 mov	 DWORD PTR [eax], ecx

; 600  :     return _Old_val;

  00037	8b 45 e8	 mov	 eax, DWORD PTR __Old_val$3[ebp]
  0003a	89 45 e4	 mov	 DWORD PTR $T2[ebp], eax
; File C:\Program Files (x86)\Microsoft Visual Studio\2019\Community\VC\Tools\MSVC\14.28.29333\include\deque

; 872  :         _Delete_plain_internal(_Proxy_allocator, _STD exchange(_Get_data()._Myproxy, nullptr));

  0003d	ff 75 e4	 push	 DWORD PTR $T2[ebp]
  00040	8d 45 ff	 lea	 eax, DWORD PTR __Proxy_allocator$[ebp]
  00043	50		 push	 eax
  00044	e8 00 00 00 00	 call	 ??$_Delete_plain_internal@V?$allocator@U_Container_proxy@std@@@std@@@std@@YAXAAV?$allocator@U_Container_proxy@std@@@0@QAU_Container_proxy@0@@Z ; std::_Delete_plain_internal<std::allocator<std::_Container_proxy> >
  00049	59		 pop	 ecx
  0004a	59		 pop	 ecx

; 873  :     }

  0004b	c9		 leave
  0004c	c3		 ret	 0
??1?$deque@PAVCTerrain@@V?$allocator@PAVCTerrain@@@std@@@std@@QAE@XZ ENDP ; std::deque<CTerrain *,std::allocator<CTerrain *> >::~deque<CTerrain *,std::allocator<CTerrain *> >
_TEXT	ENDS
; Function compile flags: /Odspy
; File C:\Program Files (x86)\Microsoft Visual Studio\2019\Community\VC\Tools\MSVC\14.28.29333\include\deque
; File C:\Program Files (x86)\Microsoft Visual Studio\2019\Community\VC\Tools\MSVC\14.28.29333\include\xmemory
; File C:\Program Files (x86)\Microsoft Visual Studio\2019\Community\VC\Tools\MSVC\14.28.29333\include\deque
; File C:\Program Files (x86)\Microsoft Visual Studio\2019\Community\VC\Tools\MSVC\14.28.29333\include\xmemory
; File C:\Program Files (x86)\Microsoft Visual Studio\2019\Community\VC\Tools\MSVC\14.28.29333\include\deque
;	COMDAT ??0?$deque@PAVCTerrain@@V?$allocator@PAVCTerrain@@@std@@@std@@QAE@XZ
_TEXT	SEGMENT
$T1 = -24						; size = 4
$T2 = -20						; size = 4
$T3 = -16						; size = 4
_this$ = -12						; size = 4
_this$ = -8						; size = 4
$T4 = -1						; size = 1
??0?$deque@PAVCTerrain@@V?$allocator@PAVCTerrain@@@std@@@std@@QAE@XZ PROC ; std::deque<CTerrain *,std::allocator<CTerrain *> >::deque<CTerrain *,std::allocator<CTerrain *> >, COMDAT
; _this$ = ecx

; 596  :     deque() : _Mypair(_Zero_then_variadic_args_t{}) {

  00000	55		 push	 ebp
  00001	8b ec		 mov	 ebp, esp
  00003	83 ec 18	 sub	 esp, 24			; 00000018H
  00006	89 4d f8	 mov	 DWORD PTR _this$[ebp], ecx
  00009	8b 45 f8	 mov	 eax, DWORD PTR _this$[ebp]
  0000c	89 45 f4	 mov	 DWORD PTR _this$[ebp], eax
; File C:\Program Files (x86)\Microsoft Visual Studio\2019\Community\VC\Tools\MSVC\14.28.29333\include\xmemory

; 1339 :         : _Ty1(), _Myval2(_STD forward<_Other2>(_Val2)...) {}

  0000f	8b 4d f4	 mov	 ecx, DWORD PTR _this$[ebp]
  00012	e8 00 00 00 00	 call	 ??0?$_Deque_val@U?$_Deque_simple_types@PAVCTerrain@@@std@@@std@@QAE@XZ ; std::_Deque_val<std::_Deque_simple_types<CTerrain *> >::_Deque_val<std::_Deque_simple_types<CTerrain *> >
; File C:\Program Files (x86)\Microsoft Visual Studio\2019\Community\VC\Tools\MSVC\14.28.29333\include\deque

; 1522 :         return _Mypair._Get_first();

  00017	8b 45 f8	 mov	 eax, DWORD PTR _this$[ebp]
; File C:\Program Files (x86)\Microsoft Visual Studio\2019\Community\VC\Tools\MSVC\14.28.29333\include\xmemory

; 1347 :         return *this;

  0001a	89 45 f0	 mov	 DWORD PTR $T3[ebp], eax
; File C:\Program Files (x86)\Microsoft Visual Studio\2019\Community\VC\Tools\MSVC\14.28.29333\include\deque

; 1522 :         return _Mypair._Get_first();

  0001d	8b 45 f0	 mov	 eax, DWORD PTR $T3[ebp]
  00020	89 45 e8	 mov	 DWORD PTR $T1[ebp], eax

; 1530 :         return _Mypair._Myval2;

  00023	8b 45 f8	 mov	 eax, DWORD PTR _this$[ebp]
  00026	89 45 ec	 mov	 DWORD PTR $T2[ebp], eax

; 597  :         _Get_data()._Alloc_proxy(static_cast<_Alproxy_ty>(_Getal()));

  00029	8d 45 ff	 lea	 eax, DWORD PTR $T4[ebp]
  0002c	50		 push	 eax
  0002d	8b 4d ec	 mov	 ecx, DWORD PTR $T2[ebp]
  00030	e8 00 00 00 00	 call	 ??$_Alloc_proxy@V?$allocator@U_Container_proxy@std@@@std@@@_Container_base12@std@@QAEX$$QAV?$allocator@U_Container_proxy@std@@@1@@Z ; std::_Container_base12::_Alloc_proxy<std::allocator<std::_Container_proxy> >

; 598  :     }

  00035	8b 45 f8	 mov	 eax, DWORD PTR _this$[ebp]
  00038	c9		 leave
  00039	c3		 ret	 0
??0?$deque@PAVCTerrain@@V?$allocator@PAVCTerrain@@@std@@@std@@QAE@XZ ENDP ; std::deque<CTerrain *,std::allocator<CTerrain *> >::deque<CTerrain *,std::allocator<CTerrain *> >
_TEXT	ENDS
; Function compile flags: /Odspy
; File D:\Metin2 Server Files\mainline\SRC_2014\Metin2Client\GameLib\AreaLoaderThread.cpp
; File C:\Program Files (x86)\Microsoft Visual Studio\2019\Community\VC\Tools\MSVC\14.28.29333\include\deque
; File D:\Metin2 Server Files\mainline\SRC_2014\Metin2Client\GameLib\AreaLoaderThread.cpp
; File C:\Program Files (x86)\Microsoft Visual Studio\2019\Community\VC\Tools\MSVC\14.28.29333\include\deque
; File D:\Metin2 Server Files\mainline\SRC_2014\Metin2Client\GameLib\AreaLoaderThread.cpp
; File D:\Metin2 Server Files\mainline\SRC_2014\Metin2Client\GameLib\Area.h
; File D:\Metin2 Server Files\mainline\SRC_2014\Metin2Client\GameLib\MapBase.h
; File D:\Metin2 Server Files\mainline\SRC_2014\Metin2Client\GameLib\AreaLoaderThread.cpp
; File C:\Program Files (x86)\Microsoft Visual Studio\2019\Community\VC\Tools\MSVC\14.28.29333\include\deque
; File D:\Metin2 Server Files\mainline\SRC_2014\Metin2Client\GameLib\AreaLoaderThread.cpp
;	COMDAT ?ProcessArea@TEMP_CAreaLoaderThread@@IAEXXZ
_TEXT	SEGMENT
$T1 = -140						; size = 4
_dwStartTime$ = -136					; size = 4
_c_rStrMapName$ = -132					; size = 4
_dwID$ = -128						; size = 4
$T2 = -124						; size = 4
$T3 = -120						; size = 4
$T4 = -116						; size = 4
$T5 = -112						; size = 4
$T6 = -108						; size = 4
$T7 = -104						; size = 4
_this$ = -100						; size = 4
tv157 = -96						; size = 4
_wAreaCoordY$ = -92					; size = 2
_wAreaCoordX$ = -88					; size = 2
_pArea$ = -84						; size = 4
$T8 = -77						; size = 1
_this$ = -76						; size = 4
_szAreaPathName$ = -72					; size = 65
__$ArrayPad$ = -4					; size = 4
?ProcessArea@TEMP_CAreaLoaderThread@@IAEXXZ PROC	; TEMP_CAreaLoaderThread::ProcessArea, COMDAT
; _this$ = ecx

; 210  : {

  00000	55		 push	 ebp
  00001	8b ec		 mov	 ebp, esp
  00003	81 ec 8c 00 00
	00		 sub	 esp, 140		; 0000008cH
  00009	a1 00 00 00 00	 mov	 eax, DWORD PTR ___security_cookie
  0000e	33 c5		 xor	 eax, ebp
  00010	89 45 fc	 mov	 DWORD PTR __$ArrayPad$[ebp], eax
  00013	89 4d b4	 mov	 DWORD PTR _this$[ebp], ecx

; 211  : 	m_AreaRequestMutex.Lock();

  00016	8b 4d b4	 mov	 ecx, DWORD PTR _this$[ebp]
  00019	83 c1 7c	 add	 ecx, 124		; 0000007cH
  0001c	e8 00 00 00 00	 call	 ?Lock@Mutex@@QAEXXZ	; Mutex::Lock
; File C:\Program Files (x86)\Microsoft Visual Studio\2019\Community\VC\Tools\MSVC\14.28.29333\include\deque

; 1534 :         return _Mypair._Myval2;

  00021	8b 45 b4	 mov	 eax, DWORD PTR _this$[ebp]
  00024	83 c0 68	 add	 eax, 104		; 00000068H
  00027	89 45 98	 mov	 DWORD PTR $T7[ebp], eax

; 1566 :         return _Get_data()._Mysize;

  0002a	8b 45 98	 mov	 eax, DWORD PTR $T7[ebp]
  0002d	83 c0 10	 add	 eax, 16			; 00000010H
  00030	89 45 94	 mov	 DWORD PTR $T6[ebp], eax

; 1010 :         return _Mysize() == 0;

  00033	8b 45 94	 mov	 eax, DWORD PTR $T6[ebp]
  00036	83 38 00	 cmp	 DWORD PTR [eax], 0
  00039	75 09		 jne	 SHORT $LN6@ProcessAre
  0003b	c7 45 a0 01 00
	00 00		 mov	 DWORD PTR tv157[ebp], 1
  00042	eb 04		 jmp	 SHORT $LN7@ProcessAre
$LN6@ProcessAre:
  00044	83 65 a0 00	 and	 DWORD PTR tv157[ebp], 0
$LN7@ProcessAre:
  00048	8a 45 a0	 mov	 al, BYTE PTR tv157[ebp]
  0004b	88 45 b3	 mov	 BYTE PTR $T8[ebp], al
; File D:\Metin2 Server Files\mainline\SRC_2014\Metin2Client\GameLib\AreaLoaderThread.cpp

; 213  : 	if (m_pAreaRequestDeque.empty())

  0004e	0f b6 45 b3	 movzx	 eax, BYTE PTR $T8[ebp]
  00052	85 c0		 test	 eax, eax
  00054	74 10		 je	 SHORT $LN2@ProcessAre

; 214  : 	{
; 215  : 		m_AreaRequestMutex.Unlock();

  00056	8b 4d b4	 mov	 ecx, DWORD PTR _this$[ebp]
  00059	83 c1 7c	 add	 ecx, 124		; 0000007cH
  0005c	e8 00 00 00 00	 call	 ?Unlock@Mutex@@QAEXXZ	; Mutex::Unlock

; 216  : 		return;

  00061	e9 23 01 00 00	 jmp	 $LN1@ProcessAre
$LN2@ProcessAre:

; 217  : 	}
; 218  : 
; 219  : 	CArea * pArea = m_pAreaRequestDeque.front();

  00066	8b 4d b4	 mov	 ecx, DWORD PTR _this$[ebp]
  00069	83 c1 68	 add	 ecx, 104		; 00000068H
  0006c	e8 00 00 00 00	 call	 ?front@?$deque@PAVCArea@@V?$allocator@PAVCArea@@@std@@@std@@QAEAAPAVCArea@@XZ ; std::deque<CArea *,std::allocator<CArea *> >::front
  00071	8b 00		 mov	 eax, DWORD PTR [eax]
  00073	89 45 ac	 mov	 DWORD PTR _pArea$[ebp], eax

; 220  : 	m_pAreaRequestDeque.pop_front();

  00076	8b 4d b4	 mov	 ecx, DWORD PTR _this$[ebp]
  00079	83 c1 68	 add	 ecx, 104		; 00000068H
  0007c	e8 00 00 00 00	 call	 ?pop_front@?$deque@PAVCArea@@V?$allocator@PAVCArea@@@std@@@std@@QAEXXZ ; std::deque<CArea *,std::allocator<CArea *> >::pop_front
; File C:\Program Files (x86)\Microsoft Visual Studio\2019\Community\VC\Tools\MSVC\14.28.29333\include\deque

; 1534 :         return _Mypair._Myval2;

  00081	8b 45 b4	 mov	 eax, DWORD PTR _this$[ebp]
  00084	83 c0 68	 add	 eax, 104		; 00000068H
  00087	89 45 90	 mov	 DWORD PTR $T5[ebp], eax

; 1566 :         return _Get_data()._Mysize;

  0008a	8b 45 90	 mov	 eax, DWORD PTR $T5[ebp]
  0008d	83 c0 10	 add	 eax, 16			; 00000010H
  00090	89 45 8c	 mov	 DWORD PTR $T4[ebp], eax

; 1001 :         return _Mysize();

  00093	8b 45 8c	 mov	 eax, DWORD PTR $T4[ebp]
  00096	8b 00		 mov	 eax, DWORD PTR [eax]
  00098	89 45 88	 mov	 DWORD PTR $T3[ebp], eax
; File D:\Metin2 Server Files\mainline\SRC_2014\Metin2Client\GameLib\AreaLoaderThread.cpp

; 222  : 	Tracef("TEMP_CAreaLoaderThread::ProcessArea() RequestDeque Size : %d\n", m_pAreaRequestDeque.size());

  0009b	ff 75 88	 push	 DWORD PTR $T3[ebp]
  0009e	68 00 00 00 00	 push	 OFFSET ??_C@_0DO@MFBBOCDC@TEMP_CAreaLoaderThread?3?3Process@
  000a3	e8 00 00 00 00	 call	 ?Tracef@@YAXPBDZZ	; Tracef
  000a8	59		 pop	 ecx
  000a9	59		 pop	 ecx

; 223  : 	m_AreaRequestMutex.Unlock();

  000aa	8b 4d b4	 mov	 ecx, DWORD PTR _this$[ebp]
  000ad	83 c1 7c	 add	 ecx, 124		; 0000007cH
  000b0	e8 00 00 00 00	 call	 ?Unlock@Mutex@@QAEXXZ	; Mutex::Unlock

; 224  : 
; 225  : 	DWORD dwStartTime = ELTimer_GetMSec();

  000b5	e8 00 00 00 00	 call	 ?ELTimer_GetMSec@@YAKXZ	; ELTimer_GetMSec
  000ba	89 85 78 ff ff
	ff		 mov	 DWORD PTR _dwStartTime$[ebp], eax

; 226  : 
; 227  : 	// Area Load
; 228  : 	WORD wAreaCoordX, wAreaCoordY;
; 229  : 	pArea->GetCoordinate(&wAreaCoordX, &wAreaCoordY);

  000c0	8d 45 a4	 lea	 eax, DWORD PTR _wAreaCoordY$[ebp]
  000c3	50		 push	 eax
  000c4	8d 45 a8	 lea	 eax, DWORD PTR _wAreaCoordX$[ebp]
  000c7	50		 push	 eax
  000c8	8b 4d ac	 mov	 ecx, DWORD PTR _pArea$[ebp]
  000cb	e8 00 00 00 00	 call	 ?GetCoordinate@CArea@@QAEXPAG0@Z ; CArea::GetCoordinate

; 230  : 	DWORD dwID = (DWORD) (wAreaCoordX) * 1000L + (DWORD) (wAreaCoordY);

  000d0	0f b7 45 a8	 movzx	 eax, WORD PTR _wAreaCoordX$[ebp]
  000d4	69 c0 e8 03 00
	00		 imul	 eax, eax, 1000
  000da	0f b7 4d a4	 movzx	 ecx, WORD PTR _wAreaCoordY$[ebp]
  000de	03 c1		 add	 eax, ecx
  000e0	89 45 80	 mov	 DWORD PTR _dwID$[ebp], eax
; File D:\Metin2 Server Files\mainline\SRC_2014\Metin2Client\GameLib\Area.h

; 240  : 		CMapOutdoor *	GetOwner() { return m_pOwnerOutdoorMap; }

  000e3	8b 45 ac	 mov	 eax, DWORD PTR _pArea$[ebp]
  000e6	8b 80 88 00 00
	00		 mov	 eax, DWORD PTR [eax+136]
  000ec	89 45 84	 mov	 DWORD PTR $T2[ebp], eax
; File D:\Metin2 Server Files\mainline\SRC_2014\Metin2Client\GameLib\MapBase.h

; 50   : 		const std::string & GetName() const { return m_strName; }

  000ef	8b 45 84	 mov	 eax, DWORD PTR $T2[ebp]
  000f2	83 c0 08	 add	 eax, 8
; File D:\Metin2 Server Files\mainline\SRC_2014\Metin2Client\GameLib\AreaLoaderThread.cpp

; 232  : 	const std::string & c_rStrMapName = pArea->GetOwner()->GetName();

  000f5	89 85 7c ff ff
	ff		 mov	 DWORD PTR _c_rStrMapName$[ebp], eax

; 233  : 
; 234  : 	char szAreaPathName[64+1];
; 235  : 	_snprintf(szAreaPathName, sizeof(szAreaPathName), "%s\\%06u\\", c_rStrMapName.c_str(), dwID);

  000fb	ff 75 80	 push	 DWORD PTR _dwID$[ebp]
  000fe	8b 8d 7c ff ff
	ff		 mov	 ecx, DWORD PTR _c_rStrMapName$[ebp]
  00104	e8 00 00 00 00	 call	 ?c_str@?$basic_string@DU?$char_traits@D@std@@V?$allocator@D@2@@std@@QBEPBDXZ ; std::basic_string<char,std::char_traits<char>,std::allocator<char> >::c_str
  00109	50		 push	 eax
  0010a	68 00 00 00 00	 push	 OFFSET ??_C@_08HAAOAKJA@?$CFs?2?$CF06u?2@
  0010f	6a 41		 push	 65			; 00000041H
  00111	8d 45 b8	 lea	 eax, DWORD PTR _szAreaPathName$[ebp]
  00114	50		 push	 eax
  00115	e8 00 00 00 00	 call	 __snprintf
  0011a	83 c4 14	 add	 esp, 20			; 00000014H

; 236  : 
; 237  : 	pArea->Load(szAreaPathName);

  0011d	8d 45 b8	 lea	 eax, DWORD PTR _szAreaPathName$[ebp]
  00120	50		 push	 eax
  00121	8b 4d ac	 mov	 ecx, DWORD PTR _pArea$[ebp]
  00124	e8 00 00 00 00	 call	 ?Load@CArea@@QAE_NPBD@Z	; CArea::Load

; 238  : 
; 239  : 	Tracef("TEMP_CAreaLoaderThread::ProcessArea LoadArea : %d ms elapsed\n", ELTimer_GetMSec() - dwStartTime);

  00129	e8 00 00 00 00	 call	 ?ELTimer_GetMSec@@YAKXZ	; ELTimer_GetMSec
  0012e	2b 85 78 ff ff
	ff		 sub	 eax, DWORD PTR _dwStartTime$[ebp]
  00134	50		 push	 eax
  00135	68 00 00 00 00	 push	 OFFSET ??_C@_0DO@IKNACHFC@TEMP_CAreaLoaderThread?3?3Process@
  0013a	e8 00 00 00 00	 call	 ?Tracef@@YAXPBDZZ	; Tracef
  0013f	59		 pop	 ecx
  00140	59		 pop	 ecx

; 240  : 
; 241  : 	m_AreaCompleteMutex.Lock();

  00141	8b 4d b4	 mov	 ecx, DWORD PTR _this$[ebp]
  00144	81 c1 a8 00 00
	00		 add	 ecx, 168		; 000000a8H
  0014a	e8 00 00 00 00	 call	 ?Lock@Mutex@@QAEXXZ	; Mutex::Lock

; 242  : 	m_pAreaCompleteDeque.push_back(pArea);

  0014f	8b 45 b4	 mov	 eax, DWORD PTR _this$[ebp]
  00152	05 94 00 00 00	 add	 eax, 148		; 00000094H
  00157	89 45 9c	 mov	 DWORD PTR _this$[ebp], eax
; File C:\Program Files (x86)\Microsoft Visual Studio\2019\Community\VC\Tools\MSVC\14.28.29333\include\deque

; 1530 :         return _Mypair._Myval2;

  0015a	8b 45 9c	 mov	 eax, DWORD PTR _this$[ebp]
  0015d	89 85 74 ff ff
	ff		 mov	 DWORD PTR $T1[ebp], eax

; 1123 :         _Emplace_back_internal(_Val);

  00163	8d 45 ac	 lea	 eax, DWORD PTR _pArea$[ebp]
  00166	50		 push	 eax
  00167	8b 4d 9c	 mov	 ecx, DWORD PTR _this$[ebp]
  0016a	e8 00 00 00 00	 call	 ??$_Emplace_back_internal@ABQAVCArea@@@?$deque@PAVCArea@@V?$allocator@PAVCArea@@@std@@@std@@AAEXABQAVCArea@@@Z ; std::deque<CArea *,std::allocator<CArea *> >::_Emplace_back_internal<CArea * const &>
; File D:\Metin2 Server Files\mainline\SRC_2014\Metin2Client\GameLib\AreaLoaderThread.cpp

; 243  : 	m_AreaCompleteMutex.Unlock();

  0016f	8b 4d b4	 mov	 ecx, DWORD PTR _this$[ebp]
  00172	81 c1 a8 00 00
	00		 add	 ecx, 168		; 000000a8H
  00178	e8 00 00 00 00	 call	 ?Unlock@Mutex@@QAEXXZ	; Mutex::Unlock

; 244  : 
; 245  : 	Sleep(g_iLoadingDelayTime);

  0017d	ff 35 00 00 00
	00		 push	 DWORD PTR ?g_iLoadingDelayTime@@3HA ; g_iLoadingDelayTime
  00183	ff 15 00 00 00
	00		 call	 DWORD PTR __imp__Sleep@4
$LN1@ProcessAre:

; 246  : }

  00189	8b 4d fc	 mov	 ecx, DWORD PTR __$ArrayPad$[ebp]
  0018c	33 cd		 xor	 ecx, ebp
  0018e	e8 00 00 00 00	 call	 @__security_check_cookie@4
  00193	c9		 leave
  00194	c3		 ret	 0
?ProcessArea@TEMP_CAreaLoaderThread@@IAEXXZ ENDP	; TEMP_CAreaLoaderThread::ProcessArea
_TEXT	ENDS
; Function compile flags: /Odspy
; File D:\Metin2 Server Files\mainline\SRC_2014\Metin2Client\GameLib\AreaLoaderThread.cpp
; File C:\Program Files (x86)\Microsoft Visual Studio\2019\Community\VC\Tools\MSVC\14.28.29333\include\deque
; File D:\Metin2 Server Files\mainline\SRC_2014\Metin2Client\GameLib\AreaLoaderThread.cpp
; File C:\Program Files (x86)\Microsoft Visual Studio\2019\Community\VC\Tools\MSVC\14.28.29333\include\deque
; File D:\Metin2 Server Files\mainline\SRC_2014\Metin2Client\GameLib\AreaLoaderThread.cpp
; File C:\Program Files (x86)\Microsoft Visual Studio\2019\Community\VC\Tools\MSVC\14.28.29333\include\deque
; File D:\Metin2 Server Files\mainline\SRC_2014\Metin2Client\GameLib\AreaLoaderThread.cpp
; File C:\Program Files (x86)\Microsoft Visual Studio\2019\Community\VC\Tools\MSVC\14.28.29333\include\deque
; File D:\Metin2 Server Files\mainline\SRC_2014\Metin2Client\GameLib\AreaLoaderThread.cpp
; File D:\Metin2 Server Files\mainline\SRC_2014\Metin2Client\GameLib\AreaTerrain.h
; File D:\Metin2 Server Files\mainline\SRC_2014\Metin2Client\GameLib\AreaLoaderThread.cpp
; File D:\Metin2 Server Files\mainline\SRC_2014\Metin2Client\GameLib\AreaTerrain.h
; File D:\Metin2 Server Files\mainline\SRC_2014\Metin2Client\GameLib\MapBase.h
; File D:\Metin2 Server Files\mainline\SRC_2014\Metin2Client\GameLib\AreaLoaderThread.cpp
; File C:\Program Files (x86)\Microsoft Visual Studio\2019\Community\VC\Tools\MSVC\14.28.29333\include\xtree
; File D:\Metin2 Server Files\mainline\SRC_2014\Metin2Client\GameLib\AreaLoaderThread.cpp
; File C:\Program Files (x86)\Microsoft Visual Studio\2019\Community\VC\Tools\MSVC\14.28.29333\include\xstring
; File D:\Metin2 Server Files\mainline\SRC_2014\Metin2Client\GameLib\AreaLoaderThread.cpp
; File C:\Program Files (x86)\Microsoft Visual Studio\2019\Community\VC\Tools\MSVC\14.28.29333\include\xtree
; File C:\Program Files (x86)\Microsoft Visual Studio\2019\Community\VC\Tools\MSVC\14.28.29333\include\xstddef
; File C:\Program Files (x86)\Microsoft Visual Studio\2019\Community\VC\Tools\MSVC\14.28.29333\include\xtree
; File D:\Metin2 Server Files\mainline\SRC_2014\Metin2Client\GameLib\AreaLoaderThread.cpp
; File C:\Program Files (x86)\Microsoft Visual Studio\2019\Community\VC\Tools\MSVC\14.28.29333\include\xtree
; File D:\Metin2 Server Files\mainline\SRC_2014\Metin2Client\GameLib\AreaLoaderThread.cpp
; File C:\Program Files (x86)\Microsoft Visual Studio\2019\Community\VC\Tools\MSVC\14.28.29333\include\xstring
; File D:\Metin2 Server Files\mainline\SRC_2014\Metin2Client\GameLib\AreaLoaderThread.cpp
; File C:\Program Files (x86)\Microsoft Visual Studio\2019\Community\VC\Tools\MSVC\14.28.29333\include\type_traits
; File C:\Program Files (x86)\Microsoft Visual Studio\2019\Community\VC\Tools\MSVC\14.28.29333\include\map
; File C:\Program Files (x86)\Microsoft Visual Studio\2019\Community\VC\Tools\MSVC\14.28.29333\include\vector
; File D:\Metin2 Server Files\mainline\SRC_2014\Metin2Client\GameLib\AreaLoaderThread.cpp
; File C:\Program Files (x86)\Microsoft Visual Studio\2019\Community\VC\Tools\MSVC\14.28.29333\include\xstring
; File D:\Metin2 Server Files\mainline\SRC_2014\Metin2Client\GameLib\AreaLoaderThread.cpp
; File C:\Program Files (x86)\Microsoft Visual Studio\2019\Community\VC\Tools\MSVC\14.28.29333\include\type_traits
; File C:\Program Files (x86)\Microsoft Visual Studio\2019\Community\VC\Tools\MSVC\14.28.29333\include\map
; File C:\Program Files (x86)\Microsoft Visual Studio\2019\Community\VC\Tools\MSVC\14.28.29333\include\vector
; File D:\Metin2 Server Files\mainline\SRC_2014\Metin2Client\GameLib\AreaLoaderThread.cpp
; File C:\Program Files (x86)\Microsoft Visual Studio\2019\Community\VC\Tools\MSVC\14.28.29333\include\xstring
; File D:\Metin2 Server Files\mainline\SRC_2014\Metin2Client\GameLib\AreaLoaderThread.cpp
; File D:\Metin2 Server Files\mainline\SRC_2014\Metin2Client\GameLib\AreaTerrain.h
; File D:\Metin2 Server Files\mainline\SRC_2014\Metin2Client\GameLib\AreaLoaderThread.cpp
; File C:\Program Files (x86)\Microsoft Visual Studio\2019\Community\VC\Tools\MSVC\14.28.29333\include\deque
; File D:\Metin2 Server Files\mainline\SRC_2014\Metin2Client\GameLib\AreaLoaderThread.cpp
;	COMDAT ?ProcessTerrain@TEMP_CAreaLoaderThread@@IAEXXZ
_TEXT	SEGMENT
$T2 = -216						; size = 8
$T3 = -208						; size = 8
$T4 = -200						; size = 8
$T5 = -192						; size = 4
$T6 = -188						; size = 4
$T7 = -184						; size = 4
$T8 = -180						; size = 4
$T9 = -176						; size = 4
$T10 = -172						; size = 4
$T11 = -168						; size = 4
$T12 = -164						; size = 4
_this$ = -160						; size = 4
__Right$ = -156						; size = 4
$T13 = -152						; size = 4
$T14 = -148						; size = 4
__Scary$15 = -144					; size = 4
___param0$ = -140					; size = 4
$T16 = -136						; size = 4
$T17 = -132						; size = 4
__Right$ = -128						; size = 4
__My_data$18 = -124					; size = 4
_dwStartTime$ = -120					; size = 4
_this$ = -116						; size = 4
_c_rstrAreaName$ = -112					; size = 4
_c_rstrType$ = -108					; size = 4
$T19 = -104						; size = 4
$T20 = -100						; size = 4
__My_data$21 = -96					; size = 4
$T22 = -92						; size = 4
$T23 = -88						; size = 4
$T24 = -84						; size = 4
$T25 = -80						; size = 4
_this$ = -76						; size = 4
$T26 = -72						; size = 4
$T27 = -68						; size = 4
_this$ = -64						; size = 4
tv603 = -60						; size = 4
tv485 = -56						; size = 4
tv361 = -52						; size = 4
_wCoordY$ = -48						; size = 2
_wCoordX$ = -44						; size = 2
_stTokenVectorMap$ = -40				; size = 8
$T28 = -31						; size = 1
$T29 = -30						; size = 1
$T30 = -29						; size = 1
_c_rStrMapName$ = -28					; size = 4
_dwID$ = -24						; size = 4
_this$ = -20						; size = 4
_pTerrain$ = -16					; size = 4
__$EHRec$ = -12						; size = 12
$T31 = 0						; size = 24
$T32 = 24						; size = 24
$T33 = 48						; size = 24
$T34 = 72						; size = 24
_filename$ = 96						; size = 256
_szRawHeightFieldname$ = 352				; size = 65
_szAttrMapName$ = 420					; size = 65
_szSplatName$ = 488					; size = 65
_szShadowTexName$ = 556					; size = 65
_szShadowMapName$ = 624					; size = 65
_szMiniMapTexName$ = 692				; size = 65
_szWaterMapName$ = 760					; size = 65
__$ArrayPad$ = 828					; size = 4
?ProcessTerrain@TEMP_CAreaLoaderThread@@IAEXXZ PROC	; TEMP_CAreaLoaderThread::ProcessTerrain, COMDAT
; _this$ = ecx

; 249  : {

  00000	55		 push	 ebp
  00001	8d ac 24 c0 fc
	ff ff		 lea	 ebp, DWORD PTR [esp-832]
  00008	81 ec 40 03 00
	00		 sub	 esp, 832		; 00000340H
  0000e	6a ff		 push	 -1
  00010	68 00 00 00 00	 push	 __ehhandler$?ProcessTerrain@TEMP_CAreaLoaderThread@@IAEXXZ
  00015	64 a1 00 00 00
	00		 mov	 eax, DWORD PTR fs:0
  0001b	50		 push	 eax
  0001c	81 ec cc 00 00
	00		 sub	 esp, 204		; 000000ccH
  00022	a1 00 00 00 00	 mov	 eax, DWORD PTR ___security_cookie
  00027	33 c5		 xor	 eax, ebp
  00029	89 85 3c 03 00
	00		 mov	 DWORD PTR __$ArrayPad$[ebp], eax
  0002f	56		 push	 esi
  00030	50		 push	 eax
  00031	8d 45 f4	 lea	 eax, DWORD PTR __$EHRec$[ebp]
  00034	64 a3 00 00 00
	00		 mov	 DWORD PTR fs:0, eax
  0003a	89 4d ec	 mov	 DWORD PTR _this$[ebp], ecx

; 250  : 	m_TerrainRequestMutex.Lock();

  0003d	8b 4d ec	 mov	 ecx, DWORD PTR _this$[ebp]
  00040	83 c1 24	 add	 ecx, 36			; 00000024H
  00043	e8 00 00 00 00	 call	 ?Lock@Mutex@@QAEXXZ	; Mutex::Lock
; File C:\Program Files (x86)\Microsoft Visual Studio\2019\Community\VC\Tools\MSVC\14.28.29333\include\deque

; 1534 :         return _Mypair._Myval2;

  00048	8b 45 ec	 mov	 eax, DWORD PTR _this$[ebp]
  0004b	83 c0 10	 add	 eax, 16			; 00000010H
  0004e	89 45 bc	 mov	 DWORD PTR $T27[ebp], eax

; 1566 :         return _Get_data()._Mysize;

  00051	8b 45 bc	 mov	 eax, DWORD PTR $T27[ebp]
  00054	83 c0 10	 add	 eax, 16			; 00000010H
  00057	89 45 b8	 mov	 DWORD PTR $T26[ebp], eax

; 1010 :         return _Mysize() == 0;

  0005a	8b 45 b8	 mov	 eax, DWORD PTR $T26[ebp]
  0005d	83 38 00	 cmp	 DWORD PTR [eax], 0
  00060	75 09		 jne	 SHORT $LN16@ProcessTer
  00062	c7 45 cc 01 00
	00 00		 mov	 DWORD PTR tv361[ebp], 1
  00069	eb 04		 jmp	 SHORT $LN17@ProcessTer
$LN16@ProcessTer:
  0006b	83 65 cc 00	 and	 DWORD PTR tv361[ebp], 0
$LN17@ProcessTer:
  0006f	8a 45 cc	 mov	 al, BYTE PTR tv361[ebp]
  00072	88 45 e1	 mov	 BYTE PTR $T28[ebp], al
; File D:\Metin2 Server Files\mainline\SRC_2014\Metin2Client\GameLib\AreaLoaderThread.cpp

; 252  : 	if (m_pTerrainRequestDeque.empty())

  00075	0f b6 45 e1	 movzx	 eax, BYTE PTR $T28[ebp]
  00079	85 c0		 test	 eax, eax
  0007b	74 10		 je	 SHORT $LN2@ProcessTer

; 253  : 	{
; 254  : 		m_TerrainRequestMutex.Unlock();

  0007d	8b 4d ec	 mov	 ecx, DWORD PTR _this$[ebp]
  00080	83 c1 24	 add	 ecx, 36			; 00000024H
  00083	e8 00 00 00 00	 call	 ?Unlock@Mutex@@QAEXXZ	; Mutex::Unlock

; 255  : 		return;

  00088	e9 8f 05 00 00	 jmp	 $LN1@ProcessTer
$LN2@ProcessTer:
; File C:\Program Files (x86)\Microsoft Visual Studio\2019\Community\VC\Tools\MSVC\14.28.29333\include\deque

; 1052 :         return *_Unchecked_begin();

  0008d	8d 85 28 ff ff
	ff		 lea	 eax, DWORD PTR $T2[ebp]
  00093	50		 push	 eax
; File D:\Metin2 Server Files\mainline\SRC_2014\Metin2Client\GameLib\AreaLoaderThread.cpp

; 258  : 	CTerrain * pTerrain = m_pTerrainRequestDeque.front();

  00094	8b 4d ec	 mov	 ecx, DWORD PTR _this$[ebp]
  00097	83 c1 10	 add	 ecx, 16			; 00000010H
; File C:\Program Files (x86)\Microsoft Visual Studio\2019\Community\VC\Tools\MSVC\14.28.29333\include\deque

; 1052 :         return *_Unchecked_begin();

  0009a	e8 00 00 00 00	 call	 ?_Unchecked_begin@?$deque@PAVCTerrain@@V?$allocator@PAVCTerrain@@@std@@@std@@QAE?AV?$_Deque_unchecked_iterator@V?$_Deque_val@U?$_Deque_simple_types@PAVCTerrain@@@std@@@std@@@2@XZ ; std::deque<CTerrain *,std::allocator<CTerrain *> >::_Unchecked_begin
  0009f	89 45 b4	 mov	 DWORD PTR _this$[ebp], eax

; 171  :         return const_cast<reference>(_Mybase::operator*());

  000a2	8b 4d b4	 mov	 ecx, DWORD PTR _this$[ebp]
  000a5	e8 00 00 00 00	 call	 ??D?$_Deque_unchecked_const_iterator@V?$_Deque_val@U?$_Deque_simple_types@PAVCTerrain@@@std@@@std@@@std@@QBEABQAVCTerrain@@XZ ; std::_Deque_unchecked_const_iterator<std::_Deque_val<std::_Deque_simple_types<CTerrain *> > >::operator*
  000aa	89 45 b0	 mov	 DWORD PTR $T25[ebp], eax

; 1052 :         return *_Unchecked_begin();

  000ad	8b 45 b0	 mov	 eax, DWORD PTR $T25[ebp]
  000b0	89 45 ac	 mov	 DWORD PTR $T24[ebp], eax
; File D:\Metin2 Server Files\mainline\SRC_2014\Metin2Client\GameLib\AreaLoaderThread.cpp

; 258  : 	CTerrain * pTerrain = m_pTerrainRequestDeque.front();

  000b3	8b 45 ac	 mov	 eax, DWORD PTR $T24[ebp]
  000b6	8b 00		 mov	 eax, DWORD PTR [eax]
  000b8	89 45 f0	 mov	 DWORD PTR _pTerrain$[ebp], eax

; 259  : 	m_pTerrainRequestDeque.pop_front();

  000bb	8b 4d ec	 mov	 ecx, DWORD PTR _this$[ebp]
  000be	83 c1 10	 add	 ecx, 16			; 00000010H
  000c1	e8 00 00 00 00	 call	 ?pop_front@?$deque@PAVCTerrain@@V?$allocator@PAVCTerrain@@@std@@@std@@QAEXXZ ; std::deque<CTerrain *,std::allocator<CTerrain *> >::pop_front
; File C:\Program Files (x86)\Microsoft Visual Studio\2019\Community\VC\Tools\MSVC\14.28.29333\include\deque

; 1534 :         return _Mypair._Myval2;

  000c6	8b 45 ec	 mov	 eax, DWORD PTR _this$[ebp]
  000c9	83 c0 10	 add	 eax, 16			; 00000010H
  000cc	89 45 a8	 mov	 DWORD PTR $T23[ebp], eax

; 1566 :         return _Get_data()._Mysize;

  000cf	8b 45 a8	 mov	 eax, DWORD PTR $T23[ebp]
  000d2	83 c0 10	 add	 eax, 16			; 00000010H
  000d5	89 85 54 ff ff
	ff		 mov	 DWORD PTR $T10[ebp], eax

; 1001 :         return _Mysize();

  000db	8b 85 54 ff ff
	ff		 mov	 eax, DWORD PTR $T10[ebp]
  000e1	8b 00		 mov	 eax, DWORD PTR [eax]
  000e3	89 85 58 ff ff
	ff		 mov	 DWORD PTR $T11[ebp], eax
; File D:\Metin2 Server Files\mainline\SRC_2014\Metin2Client\GameLib\AreaLoaderThread.cpp

; 261  : 	Tracef("TEMP_CAreaLoaderThread::ProcessTerrain() RequestDeque Size : %d\n", m_pTerrainRequestDeque.size());

  000e9	ff b5 58 ff ff
	ff		 push	 DWORD PTR $T11[ebp]
  000ef	68 00 00 00 00	 push	 OFFSET ??_C@_0EB@FFIMHONH@TEMP_CAreaLoaderThread?3?3Process@
  000f4	e8 00 00 00 00	 call	 ?Tracef@@YAXPBDZZ	; Tracef
  000f9	59		 pop	 ecx
  000fa	59		 pop	 ecx

; 262  : 	m_TerrainRequestMutex.Unlock();

  000fb	8b 4d ec	 mov	 ecx, DWORD PTR _this$[ebp]
  000fe	83 c1 24	 add	 ecx, 36			; 00000024H
  00101	e8 00 00 00 00	 call	 ?Unlock@Mutex@@QAEXXZ	; Mutex::Unlock

; 263  : 
; 264  : 	DWORD dwStartTime = ELTimer_GetMSec();

  00106	e8 00 00 00 00	 call	 ?ELTimer_GetMSec@@YAKXZ	; ELTimer_GetMSec
  0010b	89 45 88	 mov	 DWORD PTR _dwStartTime$[ebp], eax
; File D:\Metin2 Server Files\mainline\SRC_2014\Metin2Client\GameLib\AreaTerrain.h

; 92   : 			*usCoordX = m_wX;

  0010e	8b 45 f0	 mov	 eax, DWORD PTR _pTerrain$[ebp]
  00111	66 8b 80 6c a5
	06 00		 mov	 ax, WORD PTR [eax+435564]
  00118	66 89 45 d4	 mov	 WORD PTR _wCoordX$[ebp], ax

; 93   : 			*usCoordY = m_wY;

  0011c	8b 45 f0	 mov	 eax, DWORD PTR _pTerrain$[ebp]
  0011f	66 8b 80 6e a5
	06 00		 mov	 ax, WORD PTR [eax+435566]
  00126	66 89 45 d0	 mov	 WORD PTR _wCoordY$[ebp], ax
; File D:\Metin2 Server Files\mainline\SRC_2014\Metin2Client\GameLib\AreaLoaderThread.cpp

; 269  : 	DWORD dwID = (DWORD) (wCoordX) * 1000L + (DWORD) (wCoordY);

  0012a	0f b7 45 d4	 movzx	 eax, WORD PTR _wCoordX$[ebp]
  0012e	69 c0 e8 03 00
	00		 imul	 eax, eax, 1000
  00134	0f b7 4d d0	 movzx	 ecx, WORD PTR _wCoordY$[ebp]
  00138	03 c1		 add	 eax, ecx
  0013a	89 45 e8	 mov	 DWORD PTR _dwID$[ebp], eax
; File D:\Metin2 Server Files\mainline\SRC_2014\Metin2Client\GameLib\AreaTerrain.h

; 101  : 		CMapOutdoor *	GetOwner() { return m_pOwnerOutdoorMap; }

  0013d	8b 45 f0	 mov	 eax, DWORD PTR _pTerrain$[ebp]
  00140	8b 80 b8 a5 06
	00		 mov	 eax, DWORD PTR [eax+435640]
  00146	89 85 5c ff ff
	ff		 mov	 DWORD PTR $T12[ebp], eax
; File D:\Metin2 Server Files\mainline\SRC_2014\Metin2Client\GameLib\MapBase.h

; 50   : 		const std::string & GetName() const { return m_strName; }

  0014c	8b 85 5c ff ff
	ff		 mov	 eax, DWORD PTR $T12[ebp]
  00152	83 c0 08	 add	 eax, 8
; File D:\Metin2 Server Files\mainline\SRC_2014\Metin2Client\GameLib\AreaLoaderThread.cpp

; 271  : 	const std::string & c_rStrMapName = pTerrain->GetOwner()->GetName();

  00155	89 45 e4	 mov	 DWORD PTR _c_rStrMapName$[ebp], eax

; 272  : 	char filename[256];
; 273  : 	sprintf(filename, "%s\\%06u\\AreaProperty.txt", c_rStrMapName.c_str(), dwID);

  00158	ff 75 e8	 push	 DWORD PTR _dwID$[ebp]
  0015b	8b 4d e4	 mov	 ecx, DWORD PTR _c_rStrMapName$[ebp]
  0015e	e8 00 00 00 00	 call	 ?c_str@?$basic_string@DU?$char_traits@D@std@@V?$allocator@D@2@@std@@QBEPBDXZ ; std::basic_string<char,std::char_traits<char>,std::allocator<char> >::c_str
  00163	50		 push	 eax
  00164	68 00 00 00 00	 push	 OFFSET ??_C@_0BJ@PNPPDMHN@?$CFs?2?$CF06u?2AreaProperty?4txt@
  00169	8d 45 60	 lea	 eax, DWORD PTR _filename$[ebp]
  0016c	50		 push	 eax
  0016d	e8 00 00 00 00	 call	 _sprintf
  00172	83 c4 10	 add	 esp, 16			; 00000010H

; 274  : 	
; 275  : 	CTokenVectorMap stTokenVectorMap;

  00175	8d 4d d8	 lea	 ecx, DWORD PTR _stTokenVectorMap$[ebp]
  00178	e8 00 00 00 00	 call	 ??0?$map@V?$basic_string@DU?$char_traits@D@std@@V?$allocator@D@2@@std@@V?$vector@V?$basic_string@DU?$char_traits@D@std@@V?$allocator@D@2@@std@@V?$allocator@V?$basic_string@DU?$char_traits@D@std@@V?$allocator@D@2@@std@@@2@@2@U?$less@V?$basic_string@DU?$char_traits@D@std@@V?$allocator@D@2@@std@@@2@V?$allocator@U?$pair@$$CBV?$basic_string@DU?$char_traits@D@std@@V?$allocator@D@2@@std@@V?$vector@V?$basic_string@DU?$char_traits@D@std@@V?$allocator@D@2@@std@@V?$allocator@V?$basic_string@DU?$char_traits@D@std@@V?$allocator@D@2@@std@@@2@@2@@std@@@2@@std@@QAE@XZ ; std::map<std::basic_string<char,std::char_traits<char>,std::allocator<char> >,std::vector<std::basic_string<char,std::char_traits<char>,std::allocator<char> >,std::allocator<std::basic_string<char,std::char_traits<char>,std::allocator<char> > > >,std::less<std::basic_string<char,std::char_traits<char>,std::allocator<char> > >,std::allocator<std::pair<std::basic_string<char,std::char_traits<char>,std::allocator<char> > const ,std::vector<std::basic_string<char,std::char_traits<char>,std::allocator<char> >,std::allocator<std::basic_string<char,std::char_traits<char>,std::allocator<char> > > > > > >::map<std::basic_string<char,std::char_traits<char>,std::allocator<char> >,std::vector<std::basic_string<char,std::char_traits<char>,std::allocator<char> >,std::allocator<std::basic_string<char,std::char_traits<char>,std::allocator<char> > > >,std::less<std::basic_string<char,std::char_traits<char>,std::allocator<char> > >,std::allocator<std::pair<std::basic_string<char,std::char_traits<char>,std::allocator<char> > const ,std::vector<std::basic_string<char,std::char_traits<char>,std::allocator<char> >,std::allocator<std::basic_string<char,std::char_traits<char>,std::allocator<char> > > > > > >
  0017d	83 65 fc 00	 and	 DWORD PTR __$EHRec$[ebp+8], 0

; 276  : 	
; 277  : 	if (!LoadMultipleTextData(filename, stTokenVectorMap))

  00181	8d 45 d8	 lea	 eax, DWORD PTR _stTokenVectorMap$[ebp]
  00184	50		 push	 eax
  00185	8d 45 60	 lea	 eax, DWORD PTR _filename$[ebp]
  00188	50		 push	 eax
  00189	e8 00 00 00 00	 call	 ?LoadMultipleTextData@@YA_NPBDAAV?$map@V?$basic_string@DU?$char_traits@D@std@@V?$allocator@D@2@@std@@V?$vector@V?$basic_string@DU?$char_traits@D@std@@V?$allocator@D@2@@std@@V?$allocator@V?$basic_string@DU?$char_traits@D@std@@V?$allocator@D@2@@std@@@2@@2@U?$less@V?$basic_string@DU?$char_traits@D@std@@V?$allocator@D@2@@std@@@2@V?$allocator@U?$pair@$$CBV?$basic_string@DU?$char_traits@D@std@@V?$allocator@D@2@@std@@V?$vector@V?$basic_string@DU?$char_traits@D@std@@V?$allocator@D@2@@std@@V?$allocator@V?$basic_string@DU?$char_traits@D@std@@V?$allocator@D@2@@std@@@2@@2@@std@@@2@@std@@@Z ; LoadMultipleTextData
  0018e	59		 pop	 ecx
  0018f	59		 pop	 ecx
  00190	0f b6 c0	 movzx	 eax, al
  00193	85 c0		 test	 eax, eax
  00195	75 11		 jne	 SHORT $LN3@ProcessTer

; 278  : 		return;

  00197	83 4d fc ff	 or	 DWORD PTR __$EHRec$[ebp+8], -1
  0019b	8d 4d d8	 lea	 ecx, DWORD PTR _stTokenVectorMap$[ebp]
  0019e	e8 00 00 00 00	 call	 ??1?$_Tree@V?$_Tmap_traits@V?$basic_string@DU?$char_traits@D@std@@V?$allocator@D@2@@std@@V?$vector@V?$basic_string@DU?$char_traits@D@std@@V?$allocator@D@2@@std@@V?$allocator@V?$basic_string@DU?$char_traits@D@std@@V?$allocator@D@2@@std@@@2@@2@U?$less@V?$basic_string@DU?$char_traits@D@std@@V?$allocator@D@2@@std@@@2@V?$allocator@U?$pair@$$CBV?$basic_string@DU?$char_traits@D@std@@V?$allocator@D@2@@std@@V?$vector@V?$basic_string@DU?$char_traits@D@std@@V?$allocator@D@2@@std@@V?$allocator@V?$basic_string@DU?$char_traits@D@std@@V?$allocator@D@2@@std@@@2@@2@@std@@@2@$0A@@std@@@std@@QAE@XZ ; std::_Tree<std::_Tmap_traits<std::basic_string<char,std::char_traits<char>,std::allocator<char> >,std::vector<std::basic_string<char,std::char_traits<char>,std::allocator<char> >,std::allocator<std::basic_string<char,std::char_traits<char>,std::allocator<char> > > >,std::less<std::basic_string<char,std::char_traits<char>,std::allocator<char> > >,std::allocator<std::pair<std::basic_string<char,std::char_traits<char>,std::allocator<char> > const ,std::vector<std::basic_string<char,std::char_traits<char>,std::allocator<char> >,std::allocator<std::basic_string<char,std::char_traits<char>,std::allocator<char> > > > > >,0> >::~_Tree<std::_Tmap_traits<std::basic_string<char,std::char_traits<char>,std::allocator<char> >,std::vector<std::basic_string<char,std::char_traits<char>,std::allocator<char> >,std::allocator<std::basic_string<char,std::char_traits<char>,std::allocator<char> > > >,std::less<std::basic_string<char,std::char_traits<char>,std::allocator<char> > >,std::allocator<std::pair<std::basic_string<char,std::char_traits<char>,std::allocator<char> > const ,std::vector<std::basic_string<char,std::char_traits<char>,std::allocator<char> >,std::allocator<std::basic_string<char,std::char_traits<char>,std::allocator<char> > > > > >,0> >
  001a3	e9 74 04 00 00	 jmp	 $LN1@ProcessTer
$LN3@ProcessTer:

; 279  : 	
; 280  : 	Sleep(g_iLoadingDelayTime);

  001a8	ff 35 00 00 00
	00		 push	 DWORD PTR ?g_iLoadingDelayTime@@3HA ; g_iLoadingDelayTime
  001ae	ff 15 00 00 00
	00		 call	 DWORD PTR __imp__Sleep@4

; 282  : 	if (stTokenVectorMap.end() == stTokenVectorMap.find("scripttype"))

  001b4	68 00 00 00 00	 push	 OFFSET ??_C@_0L@PCFMFEAG@scripttype@
  001b9	8d 4d 30	 lea	 ecx, DWORD PTR $T33[ebp]
  001bc	e8 00 00 00 00	 call	 ??0?$basic_string@DU?$char_traits@D@std@@V?$allocator@D@2@@std@@QAE@QBD@Z ; std::basic_string<char,std::char_traits<char>,std::allocator<char> >::basic_string<char,std::char_traits<char>,std::allocator<char> >
  001c1	c6 45 fc 01	 mov	 BYTE PTR __$EHRec$[ebp+8], 1
  001c5	8d 45 30	 lea	 eax, DWORD PTR $T33[ebp]
  001c8	50		 push	 eax
  001c9	8d 85 40 ff ff
	ff		 lea	 eax, DWORD PTR $T5[ebp]
  001cf	50		 push	 eax
  001d0	8d 4d d8	 lea	 ecx, DWORD PTR _stTokenVectorMap$[ebp]
  001d3	e8 00 00 00 00	 call	 ?find@?$_Tree@V?$_Tmap_traits@V?$basic_string@DU?$char_traits@D@std@@V?$allocator@D@2@@std@@V?$vector@V?$basic_string@DU?$char_traits@D@std@@V?$allocator@D@2@@std@@V?$allocator@V?$basic_string@DU?$char_traits@D@std@@V?$allocator@D@2@@std@@@2@@2@U?$less@V?$basic_string@DU?$char_traits@D@std@@V?$allocator@D@2@@std@@@2@V?$allocator@U?$pair@$$CBV?$basic_string@DU?$char_traits@D@std@@V?$allocator@D@2@@std@@V?$vector@V?$basic_string@DU?$char_traits@D@std@@V?$allocator@D@2@@std@@V?$allocator@V?$basic_string@DU?$char_traits@D@std@@V?$allocator@D@2@@std@@@2@@2@@std@@@2@$0A@@std@@@std@@QAE?AV?$_Tree_iterator@V?$_Tree_val@U?$_Tree_simple_types@U?$pair@$$CBV?$basic_string@DU?$char_traits@D@std@@V?$allocator@D@2@@std@@V?$vector@V?$basic_string@DU?$char_traits@D@std@@V?$allocator@D@2@@std@@V?$allocator@V?$basic_string@DU?$char_traits@D@std@@V?$allocator@D@2@@std@@@2@@2@@std@@@std@@@std@@@2@ABV?$basic_string@DU?$char_traits@D@std@@V?$allocator@D@2@@2@@Z ; std::_Tree<std::_Tmap_traits<std::basic_string<char,std::char_traits<char>,std::allocator<char> >,std::vector<std::basic_string<char,std::char_traits<char>,std::allocator<char> >,std::allocator<std::basic_string<char,std::char_traits<char>,std::allocator<char> > > >,std::less<std::basic_string<char,std::char_traits<char>,std::allocator<char> > >,std::allocator<std::pair<std::basic_string<char,std::char_traits<char>,std::allocator<char> > const ,std::vector<std::basic_string<char,std::char_traits<char>,std::allocator<char> >,std::allocator<std::basic_string<char,std::char_traits<char>,std::allocator<char> > > > > >,0> >::find
  001d8	89 85 64 ff ff
	ff		 mov	 DWORD PTR __Right$[ebp], eax
  001de	8d 85 50 ff ff
	ff		 lea	 eax, DWORD PTR $T9[ebp]
  001e4	50		 push	 eax
  001e5	8d 4d d8	 lea	 ecx, DWORD PTR _stTokenVectorMap$[ebp]
  001e8	e8 00 00 00 00	 call	 ?end@?$_Tree@V?$_Tmap_traits@V?$basic_string@DU?$char_traits@D@std@@V?$allocator@D@2@@std@@V?$vector@V?$basic_string@DU?$char_traits@D@std@@V?$allocator@D@2@@std@@V?$allocator@V?$basic_string@DU?$char_traits@D@std@@V?$allocator@D@2@@std@@@2@@2@U?$less@V?$basic_string@DU?$char_traits@D@std@@V?$allocator@D@2@@std@@@2@V?$allocator@U?$pair@$$CBV?$basic_string@DU?$char_traits@D@std@@V?$allocator@D@2@@std@@V?$vector@V?$basic_string@DU?$char_traits@D@std@@V?$allocator@D@2@@std@@V?$allocator@V?$basic_string@DU?$char_traits@D@std@@V?$allocator@D@2@@std@@@2@@2@@std@@@2@$0A@@std@@@std@@QAE?AV?$_Tree_iterator@V?$_Tree_val@U?$_Tree_simple_types@U?$pair@$$CBV?$basic_string@DU?$char_traits@D@std@@V?$allocator@D@2@@std@@V?$vector@V?$basic_string@DU?$char_traits@D@std@@V?$allocator@D@2@@std@@V?$allocator@V?$basic_string@DU?$char_traits@D@std@@V?$allocator@D@2@@std@@@2@@2@@std@@@std@@@std@@@2@XZ ; std::_Tree<std::_Tmap_traits<std::basic_string<char,std::char_traits<char>,std::allocator<char> >,std::vector<std::basic_string<char,std::char_traits<char>,std::allocator<char> >,std::allocator<std::basic_string<char,std::char_traits<char>,std::allocator<char> > > >,std::less<std::basic_string<char,std::char_traits<char>,std::allocator<char> > >,std::allocator<std::pair<std::basic_string<char,std::char_traits<char>,std::allocator<char> > const ,std::vector<std::basic_string<char,std::char_traits<char>,std::allocator<char> >,std::allocator<std::basic_string<char,std::char_traits<char>,std::allocator<char> > > > > >,0> >::end
  001ed	89 85 60 ff ff
	ff		 mov	 DWORD PTR _this$[ebp], eax
; File C:\Program Files (x86)\Microsoft Visual Studio\2019\Community\VC\Tools\MSVC\14.28.29333\include\xtree

; 232  :         return this->_Ptr == _Right._Ptr;

  001f3	8b 85 60 ff ff
	ff		 mov	 eax, DWORD PTR _this$[ebp]
  001f9	8b 8d 64 ff ff
	ff		 mov	 ecx, DWORD PTR __Right$[ebp]
  001ff	8b 00		 mov	 eax, DWORD PTR [eax]
  00201	3b 01		 cmp	 eax, DWORD PTR [ecx]
  00203	75 09		 jne	 SHORT $LN193@ProcessTer
  00205	c7 45 c8 01 00
	00 00		 mov	 DWORD PTR tv485[ebp], 1
  0020c	eb 04		 jmp	 SHORT $LN194@ProcessTer
$LN193@ProcessTer:
  0020e	83 65 c8 00	 and	 DWORD PTR tv485[ebp], 0
$LN194@ProcessTer:
  00212	8a 45 c8	 mov	 al, BYTE PTR tv485[ebp]
  00215	88 45 e3	 mov	 BYTE PTR $T30[ebp], al
; File D:\Metin2 Server Files\mainline\SRC_2014\Metin2Client\GameLib\AreaLoaderThread.cpp

; 282  : 	if (stTokenVectorMap.end() == stTokenVectorMap.find("scripttype"))

  00218	c6 45 fc 00	 mov	 BYTE PTR __$EHRec$[ebp+8], 0
; File C:\Program Files (x86)\Microsoft Visual Studio\2019\Community\VC\Tools\MSVC\14.28.29333\include\xstring

; 2801 :         _Tidy_deallocate();

  0021c	8d 4d 30	 lea	 ecx, DWORD PTR $T33[ebp]
  0021f	e8 00 00 00 00	 call	 ?_Tidy_deallocate@?$basic_string@DU?$char_traits@D@std@@V?$allocator@D@2@@std@@AAEXXZ ; std::basic_string<char,std::char_traits<char>,std::allocator<char> >::_Tidy_deallocate
; File D:\Metin2 Server Files\mainline\SRC_2014\Metin2Client\GameLib\AreaLoaderThread.cpp

; 282  : 	if (stTokenVectorMap.end() == stTokenVectorMap.find("scripttype"))

  00224	0f b6 45 e3	 movzx	 eax, BYTE PTR $T30[ebp]
  00228	85 c0		 test	 eax, eax
  0022a	74 11		 je	 SHORT $LN4@ProcessTer

; 283  : 		return;

  0022c	83 4d fc ff	 or	 DWORD PTR __$EHRec$[ebp+8], -1
  00230	8d 4d d8	 lea	 ecx, DWORD PTR _stTokenVectorMap$[ebp]
  00233	e8 00 00 00 00	 call	 ??1?$_Tree@V?$_Tmap_traits@V?$basic_string@DU?$char_traits@D@std@@V?$allocator@D@2@@std@@V?$vector@V?$basic_string@DU?$char_traits@D@std@@V?$allocator@D@2@@std@@V?$allocator@V?$basic_string@DU?$char_traits@D@std@@V?$allocator@D@2@@std@@@2@@2@U?$less@V?$basic_string@DU?$char_traits@D@std@@V?$allocator@D@2@@std@@@2@V?$allocator@U?$pair@$$CBV?$basic_string@DU?$char_traits@D@std@@V?$allocator@D@2@@std@@V?$vector@V?$basic_string@DU?$char_traits@D@std@@V?$allocator@D@2@@std@@V?$allocator@V?$basic_string@DU?$char_traits@D@std@@V?$allocator@D@2@@std@@@2@@2@@std@@@2@$0A@@std@@@std@@QAE@XZ ; std::_Tree<std::_Tmap_traits<std::basic_string<char,std::char_traits<char>,std::allocator<char> >,std::vector<std::basic_string<char,std::char_traits<char>,std::allocator<char> >,std::allocator<std::basic_string<char,std::char_traits<char>,std::allocator<char> > > >,std::less<std::basic_string<char,std::char_traits<char>,std::allocator<char> > >,std::allocator<std::pair<std::basic_string<char,std::char_traits<char>,std::allocator<char> > const ,std::vector<std::basic_string<char,std::char_traits<char>,std::allocator<char> >,std::allocator<std::basic_string<char,std::char_traits<char>,std::allocator<char> > > > > >,0> >::~_Tree<std::_Tmap_traits<std::basic_string<char,std::char_traits<char>,std::allocator<char> >,std::vector<std::basic_string<char,std::char_traits<char>,std::allocator<char> >,std::allocator<std::basic_string<char,std::char_traits<char>,std::allocator<char> > > >,std::less<std::basic_string<char,std::char_traits<char>,std::allocator<char> > >,std::allocator<std::pair<std::basic_string<char,std::char_traits<char>,std::allocator<char> > const ,std::vector<std::basic_string<char,std::char_traits<char>,std::allocator<char> >,std::allocator<std::basic_string<char,std::char_traits<char>,std::allocator<char> > > > > >,0> >
  00238	e9 df 03 00 00	 jmp	 $LN1@ProcessTer
$LN4@ProcessTer:

; 285  : 	if (stTokenVectorMap.end() == stTokenVectorMap.find("areaname"))

  0023d	68 00 00 00 00	 push	 OFFSET ??_C@_08FLKAMJDN@areaname@
  00242	8d 4d 48	 lea	 ecx, DWORD PTR $T34[ebp]
  00245	e8 00 00 00 00	 call	 ??0?$basic_string@DU?$char_traits@D@std@@V?$allocator@D@2@@std@@QAE@QBD@Z ; std::basic_string<char,std::char_traits<char>,std::allocator<char> >::basic_string<char,std::char_traits<char>,std::allocator<char> >
  0024a	c6 45 fc 02	 mov	 BYTE PTR __$EHRec$[ebp+8], 2
; File C:\Program Files (x86)\Microsoft Visual Studio\2019\Community\VC\Tools\MSVC\14.28.29333\include\xtree

; 2047 :         return _STD addressof(_Mypair._Myval2._Myval2);

  0024e	8d 45 d8	 lea	 eax, DWORD PTR _stTokenVectorMap$[ebp]
; File C:\Program Files (x86)\Microsoft Visual Studio\2019\Community\VC\Tools\MSVC\14.28.29333\include\xstddef

; 275  :     return __builtin_addressof(_Val);

  00251	89 85 68 ff ff
	ff		 mov	 DWORD PTR $T13[ebp], eax
; File C:\Program Files (x86)\Microsoft Visual Studio\2019\Community\VC\Tools\MSVC\14.28.29333\include\xtree

; 2047 :         return _STD addressof(_Mypair._Myval2._Myval2);

  00257	8b 85 68 ff ff
	ff		 mov	 eax, DWORD PTR $T13[ebp]
  0025d	89 85 70 ff ff
	ff		 mov	 DWORD PTR __Scary$15[ebp], eax

; 1250 :         return iterator(_Scary->_Myhead, _Scary);

  00263	8b 85 70 ff ff
	ff		 mov	 eax, DWORD PTR __Scary$15[ebp]
  00269	8b 00		 mov	 eax, DWORD PTR [eax]
  0026b	89 85 74 ff ff
	ff		 mov	 DWORD PTR ___param0$[ebp], eax

; 39   :     _Tree_unchecked_const_iterator(_Nodeptr _Pnode, const _Mytree* _Plist) noexcept : _Ptr(_Pnode) {

  00271	8b 85 74 ff ff
	ff		 mov	 eax, DWORD PTR ___param0$[ebp]
  00277	89 85 78 ff ff
	ff		 mov	 DWORD PTR $T16[ebp], eax

; 1250 :         return iterator(_Scary->_Myhead, _Scary);

  0027d	8d 85 78 ff ff
	ff		 lea	 eax, DWORD PTR $T16[ebp]
  00283	89 85 7c ff ff
	ff		 mov	 DWORD PTR $T17[ebp], eax
; File D:\Metin2 Server Files\mainline\SRC_2014\Metin2Client\GameLib\AreaLoaderThread.cpp

; 285  : 	if (stTokenVectorMap.end() == stTokenVectorMap.find("areaname"))

  00289	8d 45 48	 lea	 eax, DWORD PTR $T34[ebp]
  0028c	50		 push	 eax
  0028d	8d 85 4c ff ff
	ff		 lea	 eax, DWORD PTR $T8[ebp]
  00293	50		 push	 eax
  00294	8d 4d d8	 lea	 ecx, DWORD PTR _stTokenVectorMap$[ebp]
  00297	e8 00 00 00 00	 call	 ?find@?$_Tree@V?$_Tmap_traits@V?$basic_string@DU?$char_traits@D@std@@V?$allocator@D@2@@std@@V?$vector@V?$basic_string@DU?$char_traits@D@std@@V?$allocator@D@2@@std@@V?$allocator@V?$basic_string@DU?$char_traits@D@std@@V?$allocator@D@2@@std@@@2@@2@U?$less@V?$basic_string@DU?$char_traits@D@std@@V?$allocator@D@2@@std@@@2@V?$allocator@U?$pair@$$CBV?$basic_string@DU?$char_traits@D@std@@V?$allocator@D@2@@std@@V?$vector@V?$basic_string@DU?$char_traits@D@std@@V?$allocator@D@2@@std@@V?$allocator@V?$basic_string@DU?$char_traits@D@std@@V?$allocator@D@2@@std@@@2@@2@@std@@@2@$0A@@std@@@std@@QAE?AV?$_Tree_iterator@V?$_Tree_val@U?$_Tree_simple_types@U?$pair@$$CBV?$basic_string@DU?$char_traits@D@std@@V?$allocator@D@2@@std@@V?$vector@V?$basic_string@DU?$char_traits@D@std@@V?$allocator@D@2@@std@@V?$allocator@V?$basic_string@DU?$char_traits@D@std@@V?$allocator@D@2@@std@@@2@@2@@std@@@std@@@std@@@2@ABV?$basic_string@DU?$char_traits@D@std@@V?$allocator@D@2@@2@@Z ; std::_Tree<std::_Tmap_traits<std::basic_string<char,std::char_traits<char>,std::allocator<char> >,std::vector<std::basic_string<char,std::char_traits<char>,std::allocator<char> >,std::allocator<std::basic_string<char,std::char_traits<char>,std::allocator<char> > > >,std::less<std::basic_string<char,std::char_traits<char>,std::allocator<char> > >,std::allocator<std::pair<std::basic_string<char,std::char_traits<char>,std::allocator<char> > const ,std::vector<std::basic_string<char,std::char_traits<char>,std::allocator<char> >,std::allocator<std::basic_string<char,std::char_traits<char>,std::allocator<char> > > > > >,0> >::find
  0029c	89 45 80	 mov	 DWORD PTR __Right$[ebp], eax
; File C:\Program Files (x86)\Microsoft Visual Studio\2019\Community\VC\Tools\MSVC\14.28.29333\include\xtree

; 232  :         return this->_Ptr == _Right._Ptr;

  0029f	8b 85 7c ff ff
	ff		 mov	 eax, DWORD PTR $T17[ebp]
  002a5	8b 4d 80	 mov	 ecx, DWORD PTR __Right$[ebp]
  002a8	8b 00		 mov	 eax, DWORD PTR [eax]
  002aa	3b 01		 cmp	 eax, DWORD PTR [ecx]
  002ac	75 09		 jne	 SHORT $LN309@ProcessTer
  002ae	c7 45 c4 01 00
	00 00		 mov	 DWORD PTR tv603[ebp], 1
  002b5	eb 04		 jmp	 SHORT $LN310@ProcessTer
$LN309@ProcessTer:
  002b7	83 65 c4 00	 and	 DWORD PTR tv603[ebp], 0
$LN310@ProcessTer:
  002bb	8a 45 c4	 mov	 al, BYTE PTR tv603[ebp]
  002be	88 45 e2	 mov	 BYTE PTR $T29[ebp], al
; File D:\Metin2 Server Files\mainline\SRC_2014\Metin2Client\GameLib\AreaLoaderThread.cpp

; 285  : 	if (stTokenVectorMap.end() == stTokenVectorMap.find("areaname"))

  002c1	c6 45 fc 00	 mov	 BYTE PTR __$EHRec$[ebp+8], 0
; File C:\Program Files (x86)\Microsoft Visual Studio\2019\Community\VC\Tools\MSVC\14.28.29333\include\xstring

; 2801 :         _Tidy_deallocate();

  002c5	8d 4d 48	 lea	 ecx, DWORD PTR $T34[ebp]
  002c8	e8 00 00 00 00	 call	 ?_Tidy_deallocate@?$basic_string@DU?$char_traits@D@std@@V?$allocator@D@2@@std@@AAEXXZ ; std::basic_string<char,std::char_traits<char>,std::allocator<char> >::_Tidy_deallocate
; File D:\Metin2 Server Files\mainline\SRC_2014\Metin2Client\GameLib\AreaLoaderThread.cpp

; 285  : 	if (stTokenVectorMap.end() == stTokenVectorMap.find("areaname"))

  002cd	0f b6 45 e2	 movzx	 eax, BYTE PTR $T29[ebp]
  002d1	85 c0		 test	 eax, eax
  002d3	74 11		 je	 SHORT $LN5@ProcessTer

; 286  : 		return;

  002d5	83 4d fc ff	 or	 DWORD PTR __$EHRec$[ebp+8], -1
  002d9	8d 4d d8	 lea	 ecx, DWORD PTR _stTokenVectorMap$[ebp]
  002dc	e8 00 00 00 00	 call	 ??1?$_Tree@V?$_Tmap_traits@V?$basic_string@DU?$char_traits@D@std@@V?$allocator@D@2@@std@@V?$vector@V?$basic_string@DU?$char_traits@D@std@@V?$allocator@D@2@@std@@V?$allocator@V?$basic_string@DU?$char_traits@D@std@@V?$allocator@D@2@@std@@@2@@2@U?$less@V?$basic_string@DU?$char_traits@D@std@@V?$allocator@D@2@@std@@@2@V?$allocator@U?$pair@$$CBV?$basic_string@DU?$char_traits@D@std@@V?$allocator@D@2@@std@@V?$vector@V?$basic_string@DU?$char_traits@D@std@@V?$allocator@D@2@@std@@V?$allocator@V?$basic_string@DU?$char_traits@D@std@@V?$allocator@D@2@@std@@@2@@2@@std@@@2@$0A@@std@@@std@@QAE@XZ ; std::_Tree<std::_Tmap_traits<std::basic_string<char,std::char_traits<char>,std::allocator<char> >,std::vector<std::basic_string<char,std::char_traits<char>,std::allocator<char> >,std::allocator<std::basic_string<char,std::char_traits<char>,std::allocator<char> > > >,std::less<std::basic_string<char,std::char_traits<char>,std::allocator<char> > >,std::allocator<std::pair<std::basic_string<char,std::char_traits<char>,std::allocator<char> > const ,std::vector<std::basic_string<char,std::char_traits<char>,std::allocator<char> >,std::allocator<std::basic_string<char,std::char_traits<char>,std::allocator<char> > > > > >,0> >::~_Tree<std::_Tmap_traits<std::basic_string<char,std::char_traits<char>,std::allocator<char> >,std::vector<std::basic_string<char,std::char_traits<char>,std::allocator<char> >,std::allocator<std::basic_string<char,std::char_traits<char>,std::allocator<char> > > >,std::less<std::basic_string<char,std::char_traits<char>,std::allocator<char> > >,std::allocator<std::pair<std::basic_string<char,std::char_traits<char>,std::allocator<char> > const ,std::vector<std::basic_string<char,std::char_traits<char>,std::allocator<char> >,std::allocator<std::basic_string<char,std::char_traits<char>,std::allocator<char> > > > > >,0> >
  002e1	e9 36 03 00 00	 jmp	 $LN1@ProcessTer
$LN5@ProcessTer:

; 288  : 	const std::string & c_rstrType = stTokenVectorMap["scripttype"][0];

  002e6	68 00 00 00 00	 push	 OFFSET ??_C@_0L@PCFMFEAG@scripttype@
  002eb	8d 4d 00	 lea	 ecx, DWORD PTR $T31[ebp]
  002ee	e8 00 00 00 00	 call	 ??0?$basic_string@DU?$char_traits@D@std@@V?$allocator@D@2@@std@@QAE@QBD@Z ; std::basic_string<char,std::char_traits<char>,std::allocator<char> >::basic_string<char,std::char_traits<char>,std::allocator<char> >
  002f3	c6 45 fc 03	 mov	 BYTE PTR __$EHRec$[ebp+8], 3
; File C:\Program Files (x86)\Microsoft Visual Studio\2019\Community\VC\Tools\MSVC\14.28.29333\include\type_traits

; 1455 :     return static_cast<remove_reference_t<_Ty>&&>(_Arg);

  002f7	8d 45 00	 lea	 eax, DWORD PTR $T31[ebp]
  002fa	89 85 6c ff ff
	ff		 mov	 DWORD PTR $T14[ebp], eax
; File C:\Program Files (x86)\Microsoft Visual Studio\2019\Community\VC\Tools\MSVC\14.28.29333\include\map

; 154  :         return _Try_emplace(_STD move(_Keyval)).first->_Myval.second;

  00300	ff b5 6c ff ff
	ff		 push	 DWORD PTR $T14[ebp]
  00306	8d 85 38 ff ff
	ff		 lea	 eax, DWORD PTR $T4[ebp]
  0030c	50		 push	 eax
  0030d	8d 4d d8	 lea	 ecx, DWORD PTR _stTokenVectorMap$[ebp]
  00310	e8 00 00 00 00	 call	 ??$_Try_emplace@V?$basic_string@DU?$char_traits@D@std@@V?$allocator@D@2@@std@@$$V@?$map@V?$basic_string@DU?$char_traits@D@std@@V?$allocator@D@2@@std@@V?$vector@V?$basic_string@DU?$char_traits@D@std@@V?$allocator@D@2@@std@@V?$allocator@V?$basic_string@DU?$char_traits@D@std@@V?$allocator@D@2@@std@@@2@@2@U?$less@V?$basic_string@DU?$char_traits@D@std@@V?$allocator@D@2@@std@@@2@V?$allocator@U?$pair@$$CBV?$basic_string@DU?$char_traits@D@std@@V?$allocator@D@2@@std@@V?$vector@V?$basic_string@DU?$char_traits@D@std@@V?$allocator@D@2@@std@@V?$allocator@V?$basic_string@DU?$char_traits@D@std@@V?$allocator@D@2@@std@@@2@@2@@std@@@2@@std@@AAE?AU?$pair@PAU?$_Tree_node@U?$pair@$$CBV?$basic_string@DU?$char_traits@D@std@@V?$allocator@D@2@@std@@V?$vector@V?$basic_string@DU?$char_traits@D@std@@V?$allocator@D@2@@std@@V?$allocator@V?$basic_string@DU?$char_traits@D@std@@V?$allocator@D@2@@std@@@2@@2@@std@@PAX@std@@_N@1@$$QAV?$basic_string@DU?$char_traits@D@std@@V?$allocator@D@2@@1@@Z ; std::map<std::basic_string<char,std::char_traits<char>,std::allocator<char> >,std::vector<std::basic_string<char,std::char_traits<char>,std::allocator<char> >,std::allocator<std::basic_string<char,std::char_traits<char>,std::allocator<char> > > >,std::less<std::basic_string<char,std::char_traits<char>,std::allocator<char> > >,std::allocator<std::pair<std::basic_string<char,std::char_traits<char>,std::allocator<char> > const ,std::vector<std::basic_string<char,std::char_traits<char>,std::allocator<char> >,std::allocator<std::basic_string<char,std::char_traits<char>,std::allocator<char> > > > > > >::_Try_emplace<std::basic_string<char,std::char_traits<char>,std::allocator<char> > >
  00315	8b 00		 mov	 eax, DWORD PTR [eax]
  00317	83 c0 28	 add	 eax, 40			; 00000028H
  0031a	89 45 a4	 mov	 DWORD PTR $T22[ebp], eax
; File C:\Program Files (x86)\Microsoft Visual Studio\2019\Community\VC\Tools\MSVC\14.28.29333\include\vector

; 1498 :         auto& _My_data = _Mypair._Myval2;

  0031d	8b 45 a4	 mov	 eax, DWORD PTR $T22[ebp]
  00320	89 45 a0	 mov	 DWORD PTR __My_data$21[ebp], eax

; 1499 : #if _CONTAINER_DEBUG_LEVEL > 0
; 1500 :         _STL_VERIFY(
; 1501 :             _Pos < static_cast<size_type>(_My_data._Mylast - _My_data._Myfirst), "vector subscript out of range");
; 1502 : #endif // _CONTAINER_DEBUG_LEVEL > 0
; 1503 : 
; 1504 :         return _My_data._Myfirst[_Pos];

  00323	33 c0		 xor	 eax, eax
  00325	6b c0 18	 imul	 eax, eax, 24
  00328	8b 4d a0	 mov	 ecx, DWORD PTR __My_data$21[ebp]
  0032b	03 01		 add	 eax, DWORD PTR [ecx]
  0032d	89 45 94	 mov	 DWORD PTR _c_rstrType$[ebp], eax
; File D:\Metin2 Server Files\mainline\SRC_2014\Metin2Client\GameLib\AreaLoaderThread.cpp

; 288  : 	const std::string & c_rstrType = stTokenVectorMap["scripttype"][0];

  00330	c6 45 fc 00	 mov	 BYTE PTR __$EHRec$[ebp+8], 0
; File C:\Program Files (x86)\Microsoft Visual Studio\2019\Community\VC\Tools\MSVC\14.28.29333\include\xstring

; 2801 :         _Tidy_deallocate();

  00334	8d 4d 00	 lea	 ecx, DWORD PTR $T31[ebp]
  00337	e8 00 00 00 00	 call	 ?_Tidy_deallocate@?$basic_string@DU?$char_traits@D@std@@V?$allocator@D@2@@std@@AAEXXZ ; std::basic_string<char,std::char_traits<char>,std::allocator<char> >::_Tidy_deallocate
; File D:\Metin2 Server Files\mainline\SRC_2014\Metin2Client\GameLib\AreaLoaderThread.cpp

; 289  : 	const std::string & c_rstrAreaName = stTokenVectorMap["areaname"][0];

  0033c	68 00 00 00 00	 push	 OFFSET ??_C@_08FLKAMJDN@areaname@
  00341	8d 4d 18	 lea	 ecx, DWORD PTR $T32[ebp]
  00344	e8 00 00 00 00	 call	 ??0?$basic_string@DU?$char_traits@D@std@@V?$allocator@D@2@@std@@QAE@QBD@Z ; std::basic_string<char,std::char_traits<char>,std::allocator<char> >::basic_string<char,std::char_traits<char>,std::allocator<char> >
  00349	c6 45 fc 04	 mov	 BYTE PTR __$EHRec$[ebp+8], 4
; File C:\Program Files (x86)\Microsoft Visual Studio\2019\Community\VC\Tools\MSVC\14.28.29333\include\type_traits

; 1455 :     return static_cast<remove_reference_t<_Ty>&&>(_Arg);

  0034d	8d 45 18	 lea	 eax, DWORD PTR $T32[ebp]
  00350	89 45 9c	 mov	 DWORD PTR $T20[ebp], eax
; File C:\Program Files (x86)\Microsoft Visual Studio\2019\Community\VC\Tools\MSVC\14.28.29333\include\map

; 154  :         return _Try_emplace(_STD move(_Keyval)).first->_Myval.second;

  00353	ff 75 9c	 push	 DWORD PTR $T20[ebp]
  00356	8d 85 30 ff ff
	ff		 lea	 eax, DWORD PTR $T3[ebp]
  0035c	50		 push	 eax
  0035d	8d 4d d8	 lea	 ecx, DWORD PTR _stTokenVectorMap$[ebp]
  00360	e8 00 00 00 00	 call	 ??$_Try_emplace@V?$basic_string@DU?$char_traits@D@std@@V?$allocator@D@2@@std@@$$V@?$map@V?$basic_string@DU?$char_traits@D@std@@V?$allocator@D@2@@std@@V?$vector@V?$basic_string@DU?$char_traits@D@std@@V?$allocator@D@2@@std@@V?$allocator@V?$basic_string@DU?$char_traits@D@std@@V?$allocator@D@2@@std@@@2@@2@U?$less@V?$basic_string@DU?$char_traits@D@std@@V?$allocator@D@2@@std@@@2@V?$allocator@U?$pair@$$CBV?$basic_string@DU?$char_traits@D@std@@V?$allocator@D@2@@std@@V?$vector@V?$basic_string@DU?$char_traits@D@std@@V?$allocator@D@2@@std@@V?$allocator@V?$basic_string@DU?$char_traits@D@std@@V?$allocator@D@2@@std@@@2@@2@@std@@@2@@std@@AAE?AU?$pair@PAU?$_Tree_node@U?$pair@$$CBV?$basic_string@DU?$char_traits@D@std@@V?$allocator@D@2@@std@@V?$vector@V?$basic_string@DU?$char_traits@D@std@@V?$allocator@D@2@@std@@V?$allocator@V?$basic_string@DU?$char_traits@D@std@@V?$allocator@D@2@@std@@@2@@2@@std@@PAX@std@@_N@1@$$QAV?$basic_string@DU?$char_traits@D@std@@V?$allocator@D@2@@1@@Z ; std::map<std::basic_string<char,std::char_traits<char>,std::allocator<char> >,std::vector<std::basic_string<char,std::char_traits<char>,std::allocator<char> >,std::allocator<std::basic_string<char,std::char_traits<char>,std::allocator<char> > > >,std::less<std::basic_string<char,std::char_traits<char>,std::allocator<char> > >,std::allocator<std::pair<std::basic_string<char,std::char_traits<char>,std::allocator<char> > const ,std::vector<std::basic_string<char,std::char_traits<char>,std::allocator<char> >,std::allocator<std::basic_string<char,std::char_traits<char>,std::allocator<char> > > > > > >::_Try_emplace<std::basic_string<char,std::char_traits<char>,std::allocator<char> > >
  00365	8b 00		 mov	 eax, DWORD PTR [eax]
  00367	83 c0 28	 add	 eax, 40			; 00000028H
  0036a	89 45 98	 mov	 DWORD PTR $T19[ebp], eax
; File C:\Program Files (x86)\Microsoft Visual Studio\2019\Community\VC\Tools\MSVC\14.28.29333\include\vector

; 1498 :         auto& _My_data = _Mypair._Myval2;

  0036d	8b 45 98	 mov	 eax, DWORD PTR $T19[ebp]
  00370	89 45 84	 mov	 DWORD PTR __My_data$18[ebp], eax

; 1499 : #if _CONTAINER_DEBUG_LEVEL > 0
; 1500 :         _STL_VERIFY(
; 1501 :             _Pos < static_cast<size_type>(_My_data._Mylast - _My_data._Myfirst), "vector subscript out of range");
; 1502 : #endif // _CONTAINER_DEBUG_LEVEL > 0
; 1503 : 
; 1504 :         return _My_data._Myfirst[_Pos];

  00373	33 c0		 xor	 eax, eax
  00375	6b c0 18	 imul	 eax, eax, 24
  00378	8b 4d 84	 mov	 ecx, DWORD PTR __My_data$18[ebp]
  0037b	03 01		 add	 eax, DWORD PTR [ecx]
  0037d	89 45 90	 mov	 DWORD PTR _c_rstrAreaName$[ebp], eax
; File D:\Metin2 Server Files\mainline\SRC_2014\Metin2Client\GameLib\AreaLoaderThread.cpp

; 289  : 	const std::string & c_rstrAreaName = stTokenVectorMap["areaname"][0];

  00380	c6 45 fc 00	 mov	 BYTE PTR __$EHRec$[ebp+8], 0
; File C:\Program Files (x86)\Microsoft Visual Studio\2019\Community\VC\Tools\MSVC\14.28.29333\include\xstring

; 2801 :         _Tidy_deallocate();

  00384	8d 4d 18	 lea	 ecx, DWORD PTR $T32[ebp]
  00387	e8 00 00 00 00	 call	 ?_Tidy_deallocate@?$basic_string@DU?$char_traits@D@std@@V?$allocator@D@2@@std@@AAEXXZ ; std::basic_string<char,std::char_traits<char>,std::allocator<char> >::_Tidy_deallocate
; File D:\Metin2 Server Files\mainline\SRC_2014\Metin2Client\GameLib\AreaLoaderThread.cpp

; 291  : 	if (c_rstrType != "AreaProperty")

  0038c	68 00 00 00 00	 push	 OFFSET ??_C@_0N@JAFNMPED@AreaProperty@
  00391	ff 75 94	 push	 DWORD PTR _c_rstrType$[ebp]
  00394	e8 00 00 00 00	 call	 ??$?9DU?$char_traits@D@std@@V?$allocator@D@1@@std@@YA_NABV?$basic_string@DU?$char_traits@D@std@@V?$allocator@D@2@@0@QBD@Z ; std::operator!=<char,std::char_traits<char>,std::allocator<char> >
  00399	59		 pop	 ecx
  0039a	59		 pop	 ecx
  0039b	0f b6 c0	 movzx	 eax, al
  0039e	85 c0		 test	 eax, eax
  003a0	74 11		 je	 SHORT $LN6@ProcessTer

; 292  : 		return;

  003a2	83 4d fc ff	 or	 DWORD PTR __$EHRec$[ebp+8], -1
  003a6	8d 4d d8	 lea	 ecx, DWORD PTR _stTokenVectorMap$[ebp]
  003a9	e8 00 00 00 00	 call	 ??1?$_Tree@V?$_Tmap_traits@V?$basic_string@DU?$char_traits@D@std@@V?$allocator@D@2@@std@@V?$vector@V?$basic_string@DU?$char_traits@D@std@@V?$allocator@D@2@@std@@V?$allocator@V?$basic_string@DU?$char_traits@D@std@@V?$allocator@D@2@@std@@@2@@2@U?$less@V?$basic_string@DU?$char_traits@D@std@@V?$allocator@D@2@@std@@@2@V?$allocator@U?$pair@$$CBV?$basic_string@DU?$char_traits@D@std@@V?$allocator@D@2@@std@@V?$vector@V?$basic_string@DU?$char_traits@D@std@@V?$allocator@D@2@@std@@V?$allocator@V?$basic_string@DU?$char_traits@D@std@@V?$allocator@D@2@@std@@@2@@2@@std@@@2@$0A@@std@@@std@@QAE@XZ ; std::_Tree<std::_Tmap_traits<std::basic_string<char,std::char_traits<char>,std::allocator<char> >,std::vector<std::basic_string<char,std::char_traits<char>,std::allocator<char> >,std::allocator<std::basic_string<char,std::char_traits<char>,std::allocator<char> > > >,std::less<std::basic_string<char,std::char_traits<char>,std::allocator<char> > >,std::allocator<std::pair<std::basic_string<char,std::char_traits<char>,std::allocator<char> > const ,std::vector<std::basic_string<char,std::char_traits<char>,std::allocator<char> >,std::allocator<std::basic_string<char,std::char_traits<char>,std::allocator<char> > > > > >,0> >::~_Tree<std::_Tmap_traits<std::basic_string<char,std::char_traits<char>,std::allocator<char> >,std::vector<std::basic_string<char,std::char_traits<char>,std::allocator<char> >,std::allocator<std::basic_string<char,std::char_traits<char>,std::allocator<char> > > >,std::less<std::basic_string<char,std::char_traits<char>,std::allocator<char> > >,std::allocator<std::pair<std::basic_string<char,std::char_traits<char>,std::allocator<char> > const ,std::vector<std::basic_string<char,std::char_traits<char>,std::allocator<char> >,std::allocator<std::basic_string<char,std::char_traits<char>,std::allocator<char> > > > > >,0> >
  003ae	e9 69 02 00 00	 jmp	 $LN1@ProcessTer
$LN6@ProcessTer:

; 293  : 	
; 294  : 	char szRawHeightFieldname[64+1];
; 295  : 	char szWaterMapName[64+1];
; 296  : 	char szAttrMapName[64+1];
; 297  : 	char szShadowTexName[64+1];
; 298  : 	char szShadowMapName[64+1];
; 299  : 	char szMiniMapTexName[64+1];
; 300  : 	char szSplatName[64+1];
; 301  : 	
; 302  : 	_snprintf(szRawHeightFieldname, sizeof(szRawHeightFieldname), "%s\\%06u\\height.raw", c_rStrMapName.c_str(), dwID);

  003b3	ff 75 e8	 push	 DWORD PTR _dwID$[ebp]
  003b6	8b 4d e4	 mov	 ecx, DWORD PTR _c_rStrMapName$[ebp]
  003b9	e8 00 00 00 00	 call	 ?c_str@?$basic_string@DU?$char_traits@D@std@@V?$allocator@D@2@@std@@QBEPBDXZ ; std::basic_string<char,std::char_traits<char>,std::allocator<char> >::c_str
  003be	50		 push	 eax
  003bf	68 00 00 00 00	 push	 OFFSET ??_C@_0BD@OEBGBMHL@?$CFs?2?$CF06u?2height?4raw@
  003c4	6a 41		 push	 65			; 00000041H
  003c6	8d 85 60 01 00
	00		 lea	 eax, DWORD PTR _szRawHeightFieldname$[ebp]
  003cc	50		 push	 eax
  003cd	e8 00 00 00 00	 call	 __snprintf
  003d2	83 c4 14	 add	 esp, 20			; 00000014H

; 303  : 	_snprintf(szSplatName, sizeof(szSplatName), "%s\\%06u\\tile.raw", c_rStrMapName.c_str(), dwID);

  003d5	ff 75 e8	 push	 DWORD PTR _dwID$[ebp]
  003d8	8b 4d e4	 mov	 ecx, DWORD PTR _c_rStrMapName$[ebp]
  003db	e8 00 00 00 00	 call	 ?c_str@?$basic_string@DU?$char_traits@D@std@@V?$allocator@D@2@@std@@QBEPBDXZ ; std::basic_string<char,std::char_traits<char>,std::allocator<char> >::c_str
  003e0	50		 push	 eax
  003e1	68 00 00 00 00	 push	 OFFSET ??_C@_0BB@KIEAEMGF@?$CFs?2?$CF06u?2tile?4raw@
  003e6	6a 41		 push	 65			; 00000041H
  003e8	8d 85 e8 01 00
	00		 lea	 eax, DWORD PTR _szSplatName$[ebp]
  003ee	50		 push	 eax
  003ef	e8 00 00 00 00	 call	 __snprintf
  003f4	83 c4 14	 add	 esp, 20			; 00000014H

; 304  : 	_snprintf(szAttrMapName, sizeof(szAttrMapName), "%s\\%06u\\attr.atr", c_rStrMapName.c_str(), dwID);

  003f7	ff 75 e8	 push	 DWORD PTR _dwID$[ebp]
  003fa	8b 4d e4	 mov	 ecx, DWORD PTR _c_rStrMapName$[ebp]
  003fd	e8 00 00 00 00	 call	 ?c_str@?$basic_string@DU?$char_traits@D@std@@V?$allocator@D@2@@std@@QBEPBDXZ ; std::basic_string<char,std::char_traits<char>,std::allocator<char> >::c_str
  00402	50		 push	 eax
  00403	68 00 00 00 00	 push	 OFFSET ??_C@_0BB@MGHNOCIE@?$CFs?2?$CF06u?2attr?4atr@
  00408	6a 41		 push	 65			; 00000041H
  0040a	8d 85 a4 01 00
	00		 lea	 eax, DWORD PTR _szAttrMapName$[ebp]
  00410	50		 push	 eax
  00411	e8 00 00 00 00	 call	 __snprintf
  00416	83 c4 14	 add	 esp, 20			; 00000014H

; 305  : 	_snprintf(szWaterMapName, sizeof(szWaterMapName), "%s\\%06u\\water.wtr", c_rStrMapName.c_str(), dwID);

  00419	ff 75 e8	 push	 DWORD PTR _dwID$[ebp]
  0041c	8b 4d e4	 mov	 ecx, DWORD PTR _c_rStrMapName$[ebp]
  0041f	e8 00 00 00 00	 call	 ?c_str@?$basic_string@DU?$char_traits@D@std@@V?$allocator@D@2@@std@@QBEPBDXZ ; std::basic_string<char,std::char_traits<char>,std::allocator<char> >::c_str
  00424	50		 push	 eax
  00425	68 00 00 00 00	 push	 OFFSET ??_C@_0BC@COFDKBDG@?$CFs?2?$CF06u?2water?4wtr@
  0042a	6a 41		 push	 65			; 00000041H
  0042c	8d 85 f8 02 00
	00		 lea	 eax, DWORD PTR _szWaterMapName$[ebp]
  00432	50		 push	 eax
  00433	e8 00 00 00 00	 call	 __snprintf
  00438	83 c4 14	 add	 esp, 20			; 00000014H

; 306  : 	_snprintf(szShadowTexName, sizeof(szShadowTexName), "%s\\%06u\\shadowmap.dds", c_rStrMapName.c_str(), dwID);

  0043b	ff 75 e8	 push	 DWORD PTR _dwID$[ebp]
  0043e	8b 4d e4	 mov	 ecx, DWORD PTR _c_rStrMapName$[ebp]
  00441	e8 00 00 00 00	 call	 ?c_str@?$basic_string@DU?$char_traits@D@std@@V?$allocator@D@2@@std@@QBEPBDXZ ; std::basic_string<char,std::char_traits<char>,std::allocator<char> >::c_str
  00446	50		 push	 eax
  00447	68 00 00 00 00	 push	 OFFSET ??_C@_0BG@JDDLCJKB@?$CFs?2?$CF06u?2shadowmap?4dds@
  0044c	6a 41		 push	 65			; 00000041H
  0044e	8d 85 2c 02 00
	00		 lea	 eax, DWORD PTR _szShadowTexName$[ebp]
  00454	50		 push	 eax
  00455	e8 00 00 00 00	 call	 __snprintf
  0045a	83 c4 14	 add	 esp, 20			; 00000014H

; 307  : 	_snprintf(szShadowMapName, sizeof(szShadowMapName), "%s\\%06u\\shadowmap.raw", c_rStrMapName.c_str(), dwID);

  0045d	ff 75 e8	 push	 DWORD PTR _dwID$[ebp]
  00460	8b 4d e4	 mov	 ecx, DWORD PTR _c_rStrMapName$[ebp]
  00463	e8 00 00 00 00	 call	 ?c_str@?$basic_string@DU?$char_traits@D@std@@V?$allocator@D@2@@std@@QBEPBDXZ ; std::basic_string<char,std::char_traits<char>,std::allocator<char> >::c_str
  00468	50		 push	 eax
  00469	68 00 00 00 00	 push	 OFFSET ??_C@_0BG@IEOOCGAN@?$CFs?2?$CF06u?2shadowmap?4raw@
  0046e	6a 41		 push	 65			; 00000041H
  00470	8d 85 70 02 00
	00		 lea	 eax, DWORD PTR _szShadowMapName$[ebp]
  00476	50		 push	 eax
  00477	e8 00 00 00 00	 call	 __snprintf
  0047c	83 c4 14	 add	 esp, 20			; 00000014H

; 308  : 	_snprintf(szMiniMapTexName,	sizeof(szMiniMapTexName), "%s\\%06u\\minimap.dds", c_rStrMapName.c_str(), dwID);

  0047f	ff 75 e8	 push	 DWORD PTR _dwID$[ebp]
  00482	8b 4d e4	 mov	 ecx, DWORD PTR _c_rStrMapName$[ebp]
  00485	e8 00 00 00 00	 call	 ?c_str@?$basic_string@DU?$char_traits@D@std@@V?$allocator@D@2@@std@@QBEPBDXZ ; std::basic_string<char,std::char_traits<char>,std::allocator<char> >::c_str
  0048a	50		 push	 eax
  0048b	68 00 00 00 00	 push	 OFFSET ??_C@_0BE@OEFJKKPK@?$CFs?2?$CF06u?2minimap?4dds@
  00490	6a 41		 push	 65			; 00000041H
  00492	8d 85 b4 02 00
	00		 lea	 eax, DWORD PTR _szMiniMapTexName$[ebp]
  00498	50		 push	 eax
  00499	e8 00 00 00 00	 call	 __snprintf
  0049e	83 c4 14	 add	 esp, 20			; 00000014H

; 309  : 	
; 310  : 	pTerrain->CopySettingFromGlobalSetting();

  004a1	8b 4d f0	 mov	 ecx, DWORD PTR _pTerrain$[ebp]
  004a4	e8 00 00 00 00	 call	 ?CopySettingFromGlobalSetting@CTerrain@@QAEXXZ ; CTerrain::CopySettingFromGlobalSetting

; 311  : 
; 312  : 	pTerrain->LoadWaterMap(szWaterMapName);

  004a9	8d 85 f8 02 00
	00		 lea	 eax, DWORD PTR _szWaterMapName$[ebp]
  004af	50		 push	 eax
  004b0	8b 4d f0	 mov	 ecx, DWORD PTR _pTerrain$[ebp]
  004b3	e8 00 00 00 00	 call	 ?LoadWaterMap@CTerrainImpl@@QAE_NPBD@Z ; CTerrainImpl::LoadWaterMap

; 313  : 	Sleep(g_iLoadingDelayTime);

  004b8	ff 35 00 00 00
	00		 push	 DWORD PTR ?g_iLoadingDelayTime@@3HA ; g_iLoadingDelayTime
  004be	ff 15 00 00 00
	00		 call	 DWORD PTR __imp__Sleep@4

; 314  : 	pTerrain->LoadHeightMap(szRawHeightFieldname);

  004c4	8d 85 60 01 00
	00		 lea	 eax, DWORD PTR _szRawHeightFieldname$[ebp]
  004ca	50		 push	 eax
  004cb	8b 4d f0	 mov	 ecx, DWORD PTR _pTerrain$[ebp]
  004ce	e8 00 00 00 00	 call	 ?LoadHeightMap@CTerrain@@QAE_NPBD@Z ; CTerrain::LoadHeightMap

; 315  : 	Sleep(g_iLoadingDelayTime);

  004d3	ff 35 00 00 00
	00		 push	 DWORD PTR ?g_iLoadingDelayTime@@3HA ; g_iLoadingDelayTime
  004d9	ff 15 00 00 00
	00		 call	 DWORD PTR __imp__Sleep@4

; 316  : 	pTerrain->LoadAttrMap(szAttrMapName);

  004df	8d 85 a4 01 00
	00		 lea	 eax, DWORD PTR _szAttrMapName$[ebp]
  004e5	50		 push	 eax
  004e6	8b 4d f0	 mov	 ecx, DWORD PTR _pTerrain$[ebp]
  004e9	e8 00 00 00 00	 call	 ?LoadAttrMap@CTerrain@@QAE_NPBD@Z ; CTerrain::LoadAttrMap

; 317  : 	Sleep(g_iLoadingDelayTime);

  004ee	ff 35 00 00 00
	00		 push	 DWORD PTR ?g_iLoadingDelayTime@@3HA ; g_iLoadingDelayTime
  004f4	ff 15 00 00 00
	00		 call	 DWORD PTR __imp__Sleep@4

; 318  : 	pTerrain->RAW_LoadTileMap(szSplatName, true);

  004fa	6a 01		 push	 1
  004fc	8d 85 e8 01 00
	00		 lea	 eax, DWORD PTR _szSplatName$[ebp]
  00502	50		 push	 eax
  00503	8b 4d f0	 mov	 ecx, DWORD PTR _pTerrain$[ebp]
  00506	e8 00 00 00 00	 call	 ?RAW_LoadTileMap@CTerrain@@QAE_NPBD_N@Z ; CTerrain::RAW_LoadTileMap

; 319  : 	Sleep(g_iLoadingDelayTime);

  0050b	ff 35 00 00 00
	00		 push	 DWORD PTR ?g_iLoadingDelayTime@@3HA ; g_iLoadingDelayTime
  00511	ff 15 00 00 00
	00		 call	 DWORD PTR __imp__Sleep@4

; 320  : 	pTerrain->LoadShadowTexture(szShadowTexName);

  00517	8d 85 2c 02 00
	00		 lea	 eax, DWORD PTR _szShadowTexName$[ebp]
  0051d	50		 push	 eax
  0051e	8b 4d f0	 mov	 ecx, DWORD PTR _pTerrain$[ebp]
  00521	e8 00 00 00 00	 call	 ?LoadShadowTexture@CTerrain@@QAEXPBD@Z ; CTerrain::LoadShadowTexture

; 321  : 	Sleep(g_iLoadingDelayTime);

  00526	ff 35 00 00 00
	00		 push	 DWORD PTR ?g_iLoadingDelayTime@@3HA ; g_iLoadingDelayTime
  0052c	ff 15 00 00 00
	00		 call	 DWORD PTR __imp__Sleep@4

; 322  : 	pTerrain->LoadShadowMap(szShadowMapName);

  00532	8d 85 70 02 00
	00		 lea	 eax, DWORD PTR _szShadowMapName$[ebp]
  00538	50		 push	 eax
  00539	8b 4d f0	 mov	 ecx, DWORD PTR _pTerrain$[ebp]
  0053c	e8 00 00 00 00	 call	 ?LoadShadowMap@CTerrain@@QAE_NPBD@Z ; CTerrain::LoadShadowMap

; 323  : 	Sleep(g_iLoadingDelayTime);

  00541	ff 35 00 00 00
	00		 push	 DWORD PTR ?g_iLoadingDelayTime@@3HA ; g_iLoadingDelayTime
  00547	ff 15 00 00 00
	00		 call	 DWORD PTR __imp__Sleep@4

; 324  : 	pTerrain->LoadMiniMapTexture(szMiniMapTexName);

  0054d	8d 85 b4 02 00
	00		 lea	 eax, DWORD PTR _szMiniMapTexName$[ebp]
  00553	50		 push	 eax
  00554	8b 4d f0	 mov	 ecx, DWORD PTR _pTerrain$[ebp]
  00557	e8 00 00 00 00	 call	 ?LoadMiniMapTexture@CTerrain@@QAEXPBD@Z ; CTerrain::LoadMiniMapTexture

; 325  : 	Sleep(g_iLoadingDelayTime);

  0055c	ff 35 00 00 00
	00		 push	 DWORD PTR ?g_iLoadingDelayTime@@3HA ; g_iLoadingDelayTime
  00562	ff 15 00 00 00
	00		 call	 DWORD PTR __imp__Sleep@4

; 326  : 	pTerrain->SetName(c_rstrAreaName.c_str());

  00568	83 ec 18	 sub	 esp, 24			; 00000018H
  0056b	8b f4		 mov	 esi, esp
  0056d	89 a5 48 ff ff
	ff		 mov	 DWORD PTR $T7[ebp], esp
  00573	8b 4d 90	 mov	 ecx, DWORD PTR _c_rstrAreaName$[ebp]
  00576	e8 00 00 00 00	 call	 ?c_str@?$basic_string@DU?$char_traits@D@std@@V?$allocator@D@2@@std@@QBEPBDXZ ; std::basic_string<char,std::char_traits<char>,std::allocator<char> >::c_str
  0057b	50		 push	 eax
  0057c	8b ce		 mov	 ecx, esi
  0057e	e8 00 00 00 00	 call	 ??0?$basic_string@DU?$char_traits@D@std@@V?$allocator@D@2@@std@@QAE@QBD@Z ; std::basic_string<char,std::char_traits<char>,std::allocator<char> >::basic_string<char,std::char_traits<char>,std::allocator<char> >
  00583	8b 4d f0	 mov	 ecx, DWORD PTR _pTerrain$[ebp]
  00586	e8 00 00 00 00	 call	 ?SetName@CTerrain@@QAEXV?$basic_string@DU?$char_traits@D@std@@V?$allocator@D@2@@std@@@Z ; CTerrain::SetName

; 327  : 	Sleep(g_iLoadingDelayTime);

  0058b	ff 35 00 00 00
	00		 push	 DWORD PTR ?g_iLoadingDelayTime@@3HA ; g_iLoadingDelayTime
  00591	ff 15 00 00 00
	00		 call	 DWORD PTR __imp__Sleep@4

; 328  : 	pTerrain->CalculateTerrainPatch();

  00597	8b 4d f0	 mov	 ecx, DWORD PTR _pTerrain$[ebp]
  0059a	e8 00 00 00 00	 call	 ?CalculateTerrainPatch@CTerrain@@QAEXXZ ; CTerrain::CalculateTerrainPatch

; 329  : 	Sleep(g_iLoadingDelayTime);

  0059f	ff 35 00 00 00
	00		 push	 DWORD PTR ?g_iLoadingDelayTime@@3HA ; g_iLoadingDelayTime
  005a5	ff 15 00 00 00
	00		 call	 DWORD PTR __imp__Sleep@4

; 330  : 
; 331  : 	pTerrain->SetReady();

  005ab	8b 45 f0	 mov	 eax, DWORD PTR _pTerrain$[ebp]
  005ae	89 45 8c	 mov	 DWORD PTR _this$[ebp], eax
; File D:\Metin2 Server Files\mainline\SRC_2014\Metin2Client\GameLib\AreaTerrain.h

; 48   : 		void			SetReady(bool bReady = true)	{ m_bReady = bReady; }

  005b1	8b 45 8c	 mov	 eax, DWORD PTR _this$[ebp]
  005b4	c6 80 70 a5 06
	00 01		 mov	 BYTE PTR [eax+435568], 1
; File D:\Metin2 Server Files\mainline\SRC_2014\Metin2Client\GameLib\AreaLoaderThread.cpp

; 333  : 	Tracef("TEMP_CAreaLoaderThread::ProcessTerrain LoadTerrain : %d ms elapsed\n", ELTimer_GetMSec() - dwStartTime);

  005bb	e8 00 00 00 00	 call	 ?ELTimer_GetMSec@@YAKXZ	; ELTimer_GetMSec
  005c0	2b 45 88	 sub	 eax, DWORD PTR _dwStartTime$[ebp]
  005c3	50		 push	 eax
  005c4	68 00 00 00 00	 push	 OFFSET ??_C@_0EE@GJPDLMNG@TEMP_CAreaLoaderThread?3?3Process@
  005c9	e8 00 00 00 00	 call	 ?Tracef@@YAXPBDZZ	; Tracef
  005ce	59		 pop	 ecx
  005cf	59		 pop	 ecx

; 334  : 
; 335  : 	m_TerrainCompleteMutex.Lock();

  005d0	8b 4d ec	 mov	 ecx, DWORD PTR _this$[ebp]
  005d3	83 c1 50	 add	 ecx, 80			; 00000050H
  005d6	e8 00 00 00 00	 call	 ?Lock@Mutex@@QAEXXZ	; Mutex::Lock

; 336  : 	m_pTerrainCompleteDeque.push_back(pTerrain);

  005db	8b 45 ec	 mov	 eax, DWORD PTR _this$[ebp]
  005de	83 c0 3c	 add	 eax, 60			; 0000003cH
  005e1	89 45 c0	 mov	 DWORD PTR _this$[ebp], eax
; File C:\Program Files (x86)\Microsoft Visual Studio\2019\Community\VC\Tools\MSVC\14.28.29333\include\deque

; 1530 :         return _Mypair._Myval2;

  005e4	8b 45 c0	 mov	 eax, DWORD PTR _this$[ebp]
  005e7	89 85 44 ff ff
	ff		 mov	 DWORD PTR $T6[ebp], eax

; 1123 :         _Emplace_back_internal(_Val);

  005ed	8d 45 f0	 lea	 eax, DWORD PTR _pTerrain$[ebp]
  005f0	50		 push	 eax
  005f1	8b 4d c0	 mov	 ecx, DWORD PTR _this$[ebp]
  005f4	e8 00 00 00 00	 call	 ??$_Emplace_back_internal@ABQAVCTerrain@@@?$deque@PAVCTerrain@@V?$allocator@PAVCTerrain@@@std@@@std@@AAEXABQAVCTerrain@@@Z ; std::deque<CTerrain *,std::allocator<CTerrain *> >::_Emplace_back_internal<CTerrain * const &>
; File D:\Metin2 Server Files\mainline\SRC_2014\Metin2Client\GameLib\AreaLoaderThread.cpp

; 337  : 	m_TerrainCompleteMutex.Unlock();

  005f9	8b 4d ec	 mov	 ecx, DWORD PTR _this$[ebp]
  005fc	83 c1 50	 add	 ecx, 80			; 00000050H
  005ff	e8 00 00 00 00	 call	 ?Unlock@Mutex@@QAEXXZ	; Mutex::Unlock

; 338  : 
; 339  : 	Sleep(g_iLoadingDelayTime);

  00604	ff 35 00 00 00
	00		 push	 DWORD PTR ?g_iLoadingDelayTime@@3HA ; g_iLoadingDelayTime
  0060a	ff 15 00 00 00
	00		 call	 DWORD PTR __imp__Sleep@4

; 340  : }

  00610	83 4d fc ff	 or	 DWORD PTR __$EHRec$[ebp+8], -1
  00614	8d 4d d8	 lea	 ecx, DWORD PTR _stTokenVectorMap$[ebp]
  00617	e8 00 00 00 00	 call	 ??1?$_Tree@V?$_Tmap_traits@V?$basic_string@DU?$char_traits@D@std@@V?$allocator@D@2@@std@@V?$vector@V?$basic_string@DU?$char_traits@D@std@@V?$allocator@D@2@@std@@V?$allocator@V?$basic_string@DU?$char_traits@D@std@@V?$allocator@D@2@@std@@@2@@2@U?$less@V?$basic_string@DU?$char_traits@D@std@@V?$allocator@D@2@@std@@@2@V?$allocator@U?$pair@$$CBV?$basic_string@DU?$char_traits@D@std@@V?$allocator@D@2@@std@@V?$vector@V?$basic_string@DU?$char_traits@D@std@@V?$allocator@D@2@@std@@V?$allocator@V?$basic_string@DU?$char_traits@D@std@@V?$allocator@D@2@@std@@@2@@2@@std@@@2@$0A@@std@@@std@@QAE@XZ ; std::_Tree<std::_Tmap_traits<std::basic_string<char,std::char_traits<char>,std::allocator<char> >,std::vector<std::basic_string<char,std::char_traits<char>,std::allocator<char> >,std::allocator<std::basic_string<char,std::char_traits<char>,std::allocator<char> > > >,std::less<std::basic_string<char,std::char_traits<char>,std::allocator<char> > >,std::allocator<std::pair<std::basic_string<char,std::char_traits<char>,std::allocator<char> > const ,std::vector<std::basic_string<char,std::char_traits<char>,std::allocator<char> >,std::allocator<std::basic_string<char,std::char_traits<char>,std::allocator<char> > > > > >,0> >::~_Tree<std::_Tmap_traits<std::basic_string<char,std::char_traits<char>,std::allocator<char> >,std::vector<std::basic_string<char,std::char_traits<char>,std::allocator<char> >,std::allocator<std::basic_string<char,std::char_traits<char>,std::allocator<char> > > >,std::less<std::basic_string<char,std::char_traits<char>,std::allocator<char> > >,std::allocator<std::pair<std::basic_string<char,std::char_traits<char>,std::allocator<char> > const ,std::vector<std::basic_string<char,std::char_traits<char>,std::allocator<char> >,std::allocator<std::basic_string<char,std::char_traits<char>,std::allocator<char> > > > > >,0> >
$LN1@ProcessTer:
  0061c	8b 4d f4	 mov	 ecx, DWORD PTR __$EHRec$[ebp]
  0061f	64 89 0d 00 00
	00 00		 mov	 DWORD PTR fs:0, ecx
  00626	59		 pop	 ecx
  00627	5e		 pop	 esi
  00628	8b 8d 3c 03 00
	00		 mov	 ecx, DWORD PTR __$ArrayPad$[ebp]
  0062e	33 cd		 xor	 ecx, ebp
  00630	e8 00 00 00 00	 call	 @__security_check_cookie@4
  00635	81 c5 40 03 00
	00		 add	 ebp, 832		; 00000340H
  0063b	c9		 leave
  0063c	c3		 ret	 0
_TEXT	ENDS
;	COMDAT text$x
text$x	SEGMENT
__unwindfunclet$?ProcessTerrain@TEMP_CAreaLoaderThread@@IAEXXZ$0:
  00000	8d 4d d8	 lea	 ecx, DWORD PTR _stTokenVectorMap$[ebp]
  00003	e9 00 00 00 00	 jmp	 ??1?$map@V?$basic_string@DU?$char_traits@D@std@@V?$allocator@D@2@@std@@V?$vector@V?$basic_string@DU?$char_traits@D@std@@V?$allocator@D@2@@std@@V?$allocator@V?$basic_string@DU?$char_traits@D@std@@V?$allocator@D@2@@std@@@2@@2@U?$less@V?$basic_string@DU?$char_traits@D@std@@V?$allocator@D@2@@std@@@2@V?$allocator@U?$pair@$$CBV?$basic_string@DU?$char_traits@D@std@@V?$allocator@D@2@@std@@V?$vector@V?$basic_string@DU?$char_traits@D@std@@V?$allocator@D@2@@std@@V?$allocator@V?$basic_string@DU?$char_traits@D@std@@V?$allocator@D@2@@std@@@2@@2@@std@@@2@@std@@QAE@XZ
__unwindfunclet$?ProcessTerrain@TEMP_CAreaLoaderThread@@IAEXXZ$1:
  00008	8d 4d 30	 lea	 ecx, DWORD PTR $T33[ebp]
  0000b	e9 00 00 00 00	 jmp	 ??1?$basic_string@DU?$char_traits@D@std@@V?$allocator@D@2@@std@@QAE@XZ ; std::basic_string<char,std::char_traits<char>,std::allocator<char> >::~basic_string<char,std::char_traits<char>,std::allocator<char> >
__unwindfunclet$?ProcessTerrain@TEMP_CAreaLoaderThread@@IAEXXZ$2:
  00010	8d 4d 48	 lea	 ecx, DWORD PTR $T34[ebp]
  00013	e9 00 00 00 00	 jmp	 ??1?$basic_string@DU?$char_traits@D@std@@V?$allocator@D@2@@std@@QAE@XZ ; std::basic_string<char,std::char_traits<char>,std::allocator<char> >::~basic_string<char,std::char_traits<char>,std::allocator<char> >
__unwindfunclet$?ProcessTerrain@TEMP_CAreaLoaderThread@@IAEXXZ$3:
  00018	8d 4d 00	 lea	 ecx, DWORD PTR $T31[ebp]
  0001b	e9 00 00 00 00	 jmp	 ??1?$basic_string@DU?$char_traits@D@std@@V?$allocator@D@2@@std@@QAE@XZ ; std::basic_string<char,std::char_traits<char>,std::allocator<char> >::~basic_string<char,std::char_traits<char>,std::allocator<char> >
__unwindfunclet$?ProcessTerrain@TEMP_CAreaLoaderThread@@IAEXXZ$4:
  00020	8d 4d 18	 lea	 ecx, DWORD PTR $T32[ebp]
  00023	e9 00 00 00 00	 jmp	 ??1?$basic_string@DU?$char_traits@D@std@@V?$allocator@D@2@@std@@QAE@XZ ; std::basic_string<char,std::char_traits<char>,std::allocator<char> >::~basic_string<char,std::char_traits<char>,std::allocator<char> >
  00028	cc		 int	 3
  00029	cc		 int	 3
  0002a	cc		 int	 3
  0002b	cc		 int	 3
  0002c	cc		 int	 3
__ehhandler$?ProcessTerrain@TEMP_CAreaLoaderThread@@IAEXXZ:
  0002d	90		 npad	 1
  0002e	90		 npad	 1
  0002f	8b 54 24 08	 mov	 edx, DWORD PTR [esp+8]
  00033	8d 42 0c	 lea	 eax, DWORD PTR [edx+12]
  00036	8b 8a 2c ff ff
	ff		 mov	 ecx, DWORD PTR [edx-212]
  0003c	33 c8		 xor	 ecx, eax
  0003e	e8 00 00 00 00	 call	 @__security_check_cookie@4
  00043	8b 8a 48 03 00
	00		 mov	 ecx, DWORD PTR [edx+840]
  00049	33 c8		 xor	 ecx, eax
  0004b	e8 00 00 00 00	 call	 @__security_check_cookie@4
  00050	b8 00 00 00 00	 mov	 eax, OFFSET __ehfuncinfo$?ProcessTerrain@TEMP_CAreaLoaderThread@@IAEXXZ
  00055	e9 00 00 00 00	 jmp	 ___CxxFrameHandler3
text$x	ENDS
?ProcessTerrain@TEMP_CAreaLoaderThread@@IAEXXZ ENDP	; TEMP_CAreaLoaderThread::ProcessTerrain
; Function compile flags: /Odspy
; File D:\Metin2 Server Files\mainline\SRC_2014\Metin2Client\GameLib\AreaLoaderThread.cpp
;	COMDAT ?Destroy@TEMP_CAreaLoaderThread@@IAEXXZ
_TEXT	SEGMENT
_this$ = -4						; size = 4
?Destroy@TEMP_CAreaLoaderThread@@IAEXXZ PROC		; TEMP_CAreaLoaderThread::Destroy, COMDAT
; _this$ = ecx

; 56   : {

  00000	55		 push	 ebp
  00001	8b ec		 mov	 ebp, esp
  00003	51		 push	 ecx
  00004	89 4d fc	 mov	 DWORD PTR _this$[ebp], ecx

; 57   : 	if (m_hSemaphore)

  00007	8b 45 fc	 mov	 eax, DWORD PTR _this$[ebp]
  0000a	83 b8 c0 00 00
	00 00		 cmp	 DWORD PTR [eax+192], 0
  00011	74 19		 je	 SHORT $LN1@Destroy

; 58   : 	{
; 59   : 		CloseHandle(m_hSemaphore);

  00013	8b 45 fc	 mov	 eax, DWORD PTR _this$[ebp]
  00016	ff b0 c0 00 00
	00		 push	 DWORD PTR [eax+192]
  0001c	ff 15 00 00 00
	00		 call	 DWORD PTR __imp__CloseHandle@4

; 60   : 		m_hSemaphore = NULL;

  00022	8b 45 fc	 mov	 eax, DWORD PTR _this$[ebp]
  00025	83 a0 c0 00 00
	00 00		 and	 DWORD PTR [eax+192], 0
$LN1@Destroy:

; 61   : 	}
; 62   : 
; 63   : /*
; 64   : 	while(!m_pTerrainRequestDeque.empty())
; 65   : 	{
; 66   : 		CTerrain * pTerrain = m_pTerrainRequestDeque.front();
; 67   : 		delete pTerrain;
; 68   : 		pTerrain = NULL;
; 69   : 		m_pTerrainRequestDeque.pop_front();
; 70   : 	}
; 71   : 
; 72   : 	while(!m_pTerrainCompleteDeque.empty())
; 73   : 	{
; 74   : 		CTerrain * pTerrain = m_pTerrainCompleteDeque.front();
; 75   : 		delete pTerrain;
; 76   : 		pTerrain = NULL;
; 77   : 		m_pTerrainCompleteDeque.pop_front();
; 78   : 	}
; 79   : */
; 80   : 
; 81   : 	/*stl_wipe(m_pTerrainRequestDeque);
; 82   : 	stl_wipe(m_pTerrainCompleteDeque);
; 83   : 	stl_wipe(m_pAreaRequestDeque);
; 84   : 	stl_wipe(m_pAreaCompleteDeque);*/
; 85   : }

  0002c	c9		 leave
  0002d	c3		 ret	 0
?Destroy@TEMP_CAreaLoaderThread@@IAEXXZ ENDP		; TEMP_CAreaLoaderThread::Destroy
_TEXT	ENDS
; Function compile flags: /Odspy
; File D:\Metin2 Server Files\mainline\SRC_2014\Metin2Client\GameLib\AreaLoaderThread.cpp
;	COMDAT ?Execute@TEMP_CAreaLoaderThread@@IAEIPAX@Z
_TEXT	SEGMENT
_dwWaitResult$1 = -16					; size = 4
tv74 = -12						; size = 4
_this$ = -8						; size = 4
_bProcessTerrain$ = -1					; size = 1
_pvArg$ = 8						; size = 4
?Execute@TEMP_CAreaLoaderThread@@IAEIPAX@Z PROC		; TEMP_CAreaLoaderThread::Execute, COMDAT
; _this$ = ecx

; 118  : {

  00000	55		 push	 ebp
  00001	8b ec		 mov	 ebp, esp
  00003	83 ec 10	 sub	 esp, 16			; 00000010H
  00006	89 4d f8	 mov	 DWORD PTR _this$[ebp], ecx

; 119  : 	bool bProcessTerrain = true;

  00009	c6 45 ff 01	 mov	 BYTE PTR _bProcessTerrain$[ebp], 1
$LN2@Execute:

; 120  : 	while (!m_bShutdowned)

  0000d	8b 45 f8	 mov	 eax, DWORD PTR _this$[ebp]
  00010	0f b6 80 c8 00
	00 00		 movzx	 eax, BYTE PTR [eax+200]
  00017	85 c0		 test	 eax, eax
  00019	75 64		 jne	 SHORT $LN3@Execute

; 121  : 	{
; 122  : 		DWORD dwWaitResult; 
; 123  : 
; 124  : 		dwWaitResult = WaitForSingleObject(m_hSemaphore, INFINITE);

  0001b	6a ff		 push	 -1
  0001d	8b 45 f8	 mov	 eax, DWORD PTR _this$[ebp]
  00020	ff b0 c0 00 00
	00		 push	 DWORD PTR [eax+192]
  00026	ff 15 00 00 00
	00		 call	 DWORD PTR __imp__WaitForSingleObject@8
  0002c	89 45 f0	 mov	 DWORD PTR _dwWaitResult$1[ebp], eax

; 125  : 
; 126  : 		if (m_bShutdowned)

  0002f	8b 45 f8	 mov	 eax, DWORD PTR _this$[ebp]
  00032	0f b6 80 c8 00
	00 00		 movzx	 eax, BYTE PTR [eax+200]
  00039	85 c0		 test	 eax, eax
  0003b	74 02		 je	 SHORT $LN6@Execute

; 127  : 			break;

  0003d	eb 40		 jmp	 SHORT $LN3@Execute
$LN6@Execute:

; 128  : 
; 129  : 		switch (dwWaitResult) 

  0003f	8b 45 f0	 mov	 eax, DWORD PTR _dwWaitResult$1[ebp]
  00042	89 45 f4	 mov	 DWORD PTR tv74[ebp], eax
  00045	83 7d f4 00	 cmp	 DWORD PTR tv74[ebp], 0
  00049	74 0b		 je	 SHORT $LN7@Execute
  0004b	81 7d f4 02 01
	00 00		 cmp	 DWORD PTR tv74[ebp], 258 ; 00000102H
  00052	74 1e		 je	 SHORT $LN10@Execute
  00054	eb 27		 jmp	 SHORT $LN4@Execute
$LN7@Execute:

; 130  : 		{ 
; 131  : 			case WAIT_OBJECT_0:
; 132  : 				if (bProcessTerrain)

  00056	0f b6 45 ff	 movzx	 eax, BYTE PTR _bProcessTerrain$[ebp]
  0005a	85 c0		 test	 eax, eax
  0005c	74 0a		 je	 SHORT $LN8@Execute

; 133  : 					ProcessTerrain();

  0005e	8b 4d f8	 mov	 ecx, DWORD PTR _this$[ebp]
  00061	e8 00 00 00 00	 call	 ?ProcessTerrain@TEMP_CAreaLoaderThread@@IAEXXZ ; TEMP_CAreaLoaderThread::ProcessTerrain
  00066	eb 08		 jmp	 SHORT $LN9@Execute
$LN8@Execute:

; 134  : 				else
; 135  : 					ProcessArea();

  00068	8b 4d f8	 mov	 ecx, DWORD PTR _this$[ebp]
  0006b	e8 00 00 00 00	 call	 ?ProcessArea@TEMP_CAreaLoaderThread@@IAEXXZ ; TEMP_CAreaLoaderThread::ProcessArea
$LN9@Execute:

; 136  : 				break;

  00070	eb 0b		 jmp	 SHORT $LN4@Execute
$LN10@Execute:

; 137  : 			case WAIT_TIMEOUT:
; 138  : 				TraceError("TEMP_CAreaLoaderThread::Execute: Timeout occured while time-out interval is INIFITE");

  00072	68 00 00 00 00	 push	 OFFSET ??_C@_0FE@BAIIJAJL@TEMP_CAreaLoaderThread?3?3Execute@
  00077	e8 00 00 00 00	 call	 ?TraceError@@YAXPBDZZ	; TraceError
  0007c	59		 pop	 ecx
$LN4@Execute:

; 139  : 				break;
; 140  : 		}
; 141  : 	}

  0007d	eb 8e		 jmp	 SHORT $LN2@Execute
$LN3@Execute:

; 142  : 
; 143  : 	Destroy();

  0007f	8b 4d f8	 mov	 ecx, DWORD PTR _this$[ebp]
  00082	e8 00 00 00 00	 call	 ?Destroy@TEMP_CAreaLoaderThread@@IAEXXZ ; TEMP_CAreaLoaderThread::Destroy

; 144  : 	return 1;

  00087	33 c0		 xor	 eax, eax
  00089	40		 inc	 eax

; 145  : }

  0008a	c9		 leave
  0008b	c2 04 00	 ret	 4
?Execute@TEMP_CAreaLoaderThread@@IAEIPAX@Z ENDP		; TEMP_CAreaLoaderThread::Execute
_TEXT	ENDS
; Function compile flags: /Odspy
; File D:\Metin2 Server Files\mainline\SRC_2014\Metin2Client\GameLib\AreaLoaderThread.cpp
;	COMDAT ?Setup@TEMP_CAreaLoaderThread@@IAEIXZ
_TEXT	SEGMENT
_this$ = -4						; size = 4
?Setup@TEMP_CAreaLoaderThread@@IAEIXZ PROC		; TEMP_CAreaLoaderThread::Setup, COMDAT
; _this$ = ecx

; 88   : {

  00000	55		 push	 ebp
  00001	8b ec		 mov	 ebp, esp
  00003	51		 push	 ecx
  00004	89 4d fc	 mov	 DWORD PTR _this$[ebp], ecx

; 89   : 	m_hSemaphore = CreateSemaphore(NULL,		// no security attributes

  00007	6a 00		 push	 0
  00009	68 ff ff 00 00	 push	 65535			; 0000ffffH
  0000e	6a 00		 push	 0
  00010	6a 00		 push	 0
  00012	ff 15 00 00 00
	00		 call	 DWORD PTR __imp__CreateSemaphoreA@16
  00018	8b 4d fc	 mov	 ecx, DWORD PTR _this$[ebp]
  0001b	89 81 c0 00 00
	00		 mov	 DWORD PTR [ecx+192], eax

; 90   : 								   0,			// initial count
; 91   : 								   65535,		// maximum count
; 92   : 								   NULL);		// unnamed semaphore
; 93   : 	if (!m_hSemaphore)

  00021	8b 45 fc	 mov	 eax, DWORD PTR _this$[ebp]
  00024	83 b8 c0 00 00
	00 00		 cmp	 DWORD PTR [eax+192], 0
  0002b	75 04		 jne	 SHORT $LN2@Setup

; 94   : 		return 0;

  0002d	33 c0		 xor	 eax, eax
  0002f	eb 03		 jmp	 SHORT $LN1@Setup
$LN2@Setup:

; 95   : 
; 96   : 	return 1;

  00031	33 c0		 xor	 eax, eax
  00033	40		 inc	 eax
$LN1@Setup:

; 97   : }

  00034	c9		 leave
  00035	c3		 ret	 0
?Setup@TEMP_CAreaLoaderThread@@IAEIXZ ENDP		; TEMP_CAreaLoaderThread::Setup
_TEXT	ENDS
; Function compile flags: /Odspy
; File D:\Metin2 Server Files\mainline\SRC_2014\Metin2Client\GameLib\AreaLoaderThread.cpp
;	COMDAT ?Run@TEMP_CAreaLoaderThread@@IAEIPAX@Z
_TEXT	SEGMENT
_this$ = -4						; size = 4
_arg$ = 8						; size = 4
?Run@TEMP_CAreaLoaderThread@@IAEIPAX@Z PROC		; TEMP_CAreaLoaderThread::Run, COMDAT
; _this$ = ecx

; 40   : {

  00000	55		 push	 ebp
  00001	8b ec		 mov	 ebp, esp
  00003	51		 push	 ecx
  00004	89 4d fc	 mov	 DWORD PTR _this$[ebp], ecx

; 41   : 	if (!Setup())

  00007	8b 4d fc	 mov	 ecx, DWORD PTR _this$[ebp]
  0000a	e8 00 00 00 00	 call	 ?Setup@TEMP_CAreaLoaderThread@@IAEIXZ ; TEMP_CAreaLoaderThread::Setup
  0000f	85 c0		 test	 eax, eax
  00011	75 04		 jne	 SHORT $LN2@Run

; 42   : 		return 0;

  00013	33 c0		 xor	 eax, eax
  00015	eb 0b		 jmp	 SHORT $LN1@Run
$LN2@Run:

; 43   : 
; 44   : 	return (Execute(arg));

  00017	ff 75 08	 push	 DWORD PTR _arg$[ebp]
  0001a	8b 4d fc	 mov	 ecx, DWORD PTR _this$[ebp]
  0001d	e8 00 00 00 00	 call	 ?Execute@TEMP_CAreaLoaderThread@@IAEIPAX@Z ; TEMP_CAreaLoaderThread::Execute
$LN1@Run:

; 45   : }

  00022	c9		 leave
  00023	c2 04 00	 ret	 4
?Run@TEMP_CAreaLoaderThread@@IAEIPAX@Z ENDP		; TEMP_CAreaLoaderThread::Run
_TEXT	ENDS
; Function compile flags: /Odspy
; File D:\Metin2 Server Files\mainline\SRC_2014\Metin2Client\GameLib\AreaLoaderThread.cpp
; File D:\Metin2 Server Files\mainline\SRC_2014\Metin2Client\GameLib\AreaLoaderThread.h
; File D:\Metin2 Server Files\mainline\SRC_2014\Metin2Client\GameLib\AreaLoaderThread.cpp
;	COMDAT ?EntryPoint@TEMP_CAreaLoaderThread@@KGIPAX@Z
_TEXT	SEGMENT
$T1 = -8						; size = 4
_pThread$ = -4						; size = 4
_pThis$ = 8						; size = 4
?EntryPoint@TEMP_CAreaLoaderThread@@KGIPAX@Z PROC	; TEMP_CAreaLoaderThread::EntryPoint, COMDAT

; 49   : {

  00000	55		 push	 ebp
  00001	8b ec		 mov	 ebp, esp
  00003	51		 push	 ecx
  00004	51		 push	 ecx

; 50   : 	TEMP_CAreaLoaderThread * pThread = (TEMP_CAreaLoaderThread *) pThis;

  00005	8b 45 08	 mov	 eax, DWORD PTR _pThis$[ebp]
  00008	89 45 fc	 mov	 DWORD PTR _pThread$[ebp], eax
; File D:\Metin2 Server Files\mainline\SRC_2014\Metin2Client\GameLib\AreaLoaderThread.h

; 38   : 	void *						Arg() const		{ return m_pArg; }

  0000b	8b 45 fc	 mov	 eax, DWORD PTR _pThread$[ebp]
  0000e	8b 40 08	 mov	 eax, DWORD PTR [eax+8]
  00011	89 45 f8	 mov	 DWORD PTR $T1[ebp], eax
; File D:\Metin2 Server Files\mainline\SRC_2014\Metin2Client\GameLib\AreaLoaderThread.cpp

; 51   : 	return pThread->Run(pThread->Arg());

  00014	ff 75 f8	 push	 DWORD PTR $T1[ebp]
  00017	8b 4d fc	 mov	 ecx, DWORD PTR _pThread$[ebp]
  0001a	e8 00 00 00 00	 call	 ?Run@TEMP_CAreaLoaderThread@@IAEIPAX@Z ; TEMP_CAreaLoaderThread::Run

; 52   : }

  0001f	c9		 leave
  00020	c2 04 00	 ret	 4
?EntryPoint@TEMP_CAreaLoaderThread@@KGIPAX@Z ENDP	; TEMP_CAreaLoaderThread::EntryPoint
_TEXT	ENDS
; Function compile flags: /Odspy
; File D:\Metin2 Server Files\mainline\SRC_2014\Metin2Client\GameLib\AreaLoaderThread.cpp
; File C:\Program Files (x86)\Microsoft Visual Studio\2019\Community\VC\Tools\MSVC\14.28.29333\include\deque
; File D:\Metin2 Server Files\mainline\SRC_2014\Metin2Client\GameLib\AreaLoaderThread.cpp
;	COMDAT ?Fetch@TEMP_CAreaLoaderThread@@QAE_NPAPAVCArea@@@Z
_TEXT	SEGMENT
$T1 = -20						; size = 4
$T2 = -16						; size = 4
tv83 = -12						; size = 4
_this$ = -8						; size = 4
$T3 = -1						; size = 1
_ppArea$ = 8						; size = 4
?Fetch@TEMP_CAreaLoaderThread@@QAE_NPAPAVCArea@@@Z PROC	; TEMP_CAreaLoaderThread::Fetch, COMDAT
; _this$ = ecx

; 193  : {

  00000	55		 push	 ebp
  00001	8b ec		 mov	 ebp, esp
  00003	83 ec 14	 sub	 esp, 20			; 00000014H
  00006	89 4d f8	 mov	 DWORD PTR _this$[ebp], ecx

; 194  : 	m_AreaCompleteMutex.Lock();

  00009	8b 4d f8	 mov	 ecx, DWORD PTR _this$[ebp]
  0000c	81 c1 a8 00 00
	00		 add	 ecx, 168		; 000000a8H
  00012	e8 00 00 00 00	 call	 ?Lock@Mutex@@QAEXXZ	; Mutex::Lock
; File C:\Program Files (x86)\Microsoft Visual Studio\2019\Community\VC\Tools\MSVC\14.28.29333\include\deque

; 1534 :         return _Mypair._Myval2;

  00017	8b 45 f8	 mov	 eax, DWORD PTR _this$[ebp]
  0001a	05 94 00 00 00	 add	 eax, 148		; 00000094H
  0001f	89 45 f0	 mov	 DWORD PTR $T2[ebp], eax

; 1566 :         return _Get_data()._Mysize;

  00022	8b 45 f0	 mov	 eax, DWORD PTR $T2[ebp]
  00025	83 c0 10	 add	 eax, 16			; 00000010H
  00028	89 45 ec	 mov	 DWORD PTR $T1[ebp], eax

; 1010 :         return _Mysize() == 0;

  0002b	8b 45 ec	 mov	 eax, DWORD PTR $T1[ebp]
  0002e	83 38 00	 cmp	 DWORD PTR [eax], 0
  00031	75 09		 jne	 SHORT $LN6@Fetch
  00033	c7 45 f4 01 00
	00 00		 mov	 DWORD PTR tv83[ebp], 1
  0003a	eb 04		 jmp	 SHORT $LN7@Fetch
$LN6@Fetch:
  0003c	83 65 f4 00	 and	 DWORD PTR tv83[ebp], 0
$LN7@Fetch:
  00040	8a 45 f4	 mov	 al, BYTE PTR tv83[ebp]
  00043	88 45 ff	 mov	 BYTE PTR $T3[ebp], al
; File D:\Metin2 Server Files\mainline\SRC_2014\Metin2Client\GameLib\AreaLoaderThread.cpp

; 196  : 	if (m_pAreaCompleteDeque.empty())

  00046	0f b6 45 ff	 movzx	 eax, BYTE PTR $T3[ebp]
  0004a	85 c0		 test	 eax, eax
  0004c	74 12		 je	 SHORT $LN2@Fetch

; 197  : 	{
; 198  : 		m_AreaCompleteMutex.Unlock();

  0004e	8b 4d f8	 mov	 ecx, DWORD PTR _this$[ebp]
  00051	81 c1 a8 00 00
	00		 add	 ecx, 168		; 000000a8H
  00057	e8 00 00 00 00	 call	 ?Unlock@Mutex@@QAEXXZ	; Mutex::Unlock

; 199  : 		return false;

  0005c	32 c0		 xor	 al, al
  0005e	eb 33		 jmp	 SHORT $LN1@Fetch
$LN2@Fetch:

; 200  : 	}
; 201  : 
; 202  : 	*ppArea = m_pAreaCompleteDeque.front();

  00060	8b 4d f8	 mov	 ecx, DWORD PTR _this$[ebp]
  00063	81 c1 94 00 00
	00		 add	 ecx, 148		; 00000094H
  00069	e8 00 00 00 00	 call	 ?front@?$deque@PAVCArea@@V?$allocator@PAVCArea@@@std@@@std@@QAEAAPAVCArea@@XZ ; std::deque<CArea *,std::allocator<CArea *> >::front
  0006e	8b 4d 08	 mov	 ecx, DWORD PTR _ppArea$[ebp]
  00071	8b 00		 mov	 eax, DWORD PTR [eax]
  00073	89 01		 mov	 DWORD PTR [ecx], eax

; 203  : 	m_pAreaCompleteDeque.pop_front();

  00075	8b 4d f8	 mov	 ecx, DWORD PTR _this$[ebp]
  00078	81 c1 94 00 00
	00		 add	 ecx, 148		; 00000094H
  0007e	e8 00 00 00 00	 call	 ?pop_front@?$deque@PAVCArea@@V?$allocator@PAVCArea@@@std@@@std@@QAEXXZ ; std::deque<CArea *,std::allocator<CArea *> >::pop_front

; 204  : 
; 205  : 	m_AreaCompleteMutex.Unlock();

  00083	8b 4d f8	 mov	 ecx, DWORD PTR _this$[ebp]
  00086	81 c1 a8 00 00
	00		 add	 ecx, 168		; 000000a8H
  0008c	e8 00 00 00 00	 call	 ?Unlock@Mutex@@QAEXXZ	; Mutex::Unlock

; 206  : 	return true;

  00091	b0 01		 mov	 al, 1
$LN1@Fetch:

; 207  : }

  00093	c9		 leave
  00094	c2 04 00	 ret	 4
?Fetch@TEMP_CAreaLoaderThread@@QAE_NPAPAVCArea@@@Z ENDP	; TEMP_CAreaLoaderThread::Fetch
_TEXT	ENDS
; Function compile flags: /Odspy
; File D:\Metin2 Server Files\mainline\SRC_2014\Metin2Client\GameLib\AreaLoaderThread.cpp
; File C:\Program Files (x86)\Microsoft Visual Studio\2019\Community\VC\Tools\MSVC\14.28.29333\include\deque
; File D:\Metin2 Server Files\mainline\SRC_2014\Metin2Client\GameLib\AreaLoaderThread.cpp
;	COMDAT ?Request@TEMP_CAreaLoaderThread@@QAEXPAVCArea@@@Z
_TEXT	SEGMENT
$T1 = -12						; size = 4
_this$ = -8						; size = 4
_this$ = -4						; size = 4
_pArea$ = 8						; size = 4
?Request@TEMP_CAreaLoaderThread@@QAEXPAVCArea@@@Z PROC	; TEMP_CAreaLoaderThread::Request, COMDAT
; _this$ = ecx

; 179  : {

  00000	55		 push	 ebp
  00001	8b ec		 mov	 ebp, esp
  00003	83 ec 0c	 sub	 esp, 12			; 0000000cH
  00006	89 4d fc	 mov	 DWORD PTR _this$[ebp], ecx

; 180  : 	m_AreaRequestMutex.Lock();

  00009	8b 4d fc	 mov	 ecx, DWORD PTR _this$[ebp]
  0000c	83 c1 7c	 add	 ecx, 124		; 0000007cH
  0000f	e8 00 00 00 00	 call	 ?Lock@Mutex@@QAEXXZ	; Mutex::Lock

; 181  : 	m_pAreaRequestDeque.push_back(pArea);

  00014	8b 45 fc	 mov	 eax, DWORD PTR _this$[ebp]
  00017	83 c0 68	 add	 eax, 104		; 00000068H
  0001a	89 45 f8	 mov	 DWORD PTR _this$[ebp], eax
; File C:\Program Files (x86)\Microsoft Visual Studio\2019\Community\VC\Tools\MSVC\14.28.29333\include\deque

; 1530 :         return _Mypair._Myval2;

  0001d	8b 45 f8	 mov	 eax, DWORD PTR _this$[ebp]
  00020	89 45 f4	 mov	 DWORD PTR $T1[ebp], eax

; 1123 :         _Emplace_back_internal(_Val);

  00023	8d 45 08	 lea	 eax, DWORD PTR _pArea$[ebp]
  00026	50		 push	 eax
  00027	8b 4d f8	 mov	 ecx, DWORD PTR _this$[ebp]
  0002a	e8 00 00 00 00	 call	 ??$_Emplace_back_internal@ABQAVCArea@@@?$deque@PAVCArea@@V?$allocator@PAVCArea@@@std@@@std@@AAEXABQAVCArea@@@Z ; std::deque<CArea *,std::allocator<CArea *> >::_Emplace_back_internal<CArea * const &>
; File D:\Metin2 Server Files\mainline\SRC_2014\Metin2Client\GameLib\AreaLoaderThread.cpp

; 182  : 	m_AreaRequestMutex.Unlock();

  0002f	8b 4d fc	 mov	 ecx, DWORD PTR _this$[ebp]
  00032	83 c1 7c	 add	 ecx, 124		; 0000007cH
  00035	e8 00 00 00 00	 call	 ?Unlock@Mutex@@QAEXXZ	; Mutex::Unlock

; 183  : 
; 184  : 	++m_iRestSemCount;

  0003a	8b 45 fc	 mov	 eax, DWORD PTR _this$[ebp]
  0003d	8b 80 c4 00 00
	00		 mov	 eax, DWORD PTR [eax+196]
  00043	40		 inc	 eax
  00044	8b 4d fc	 mov	 ecx, DWORD PTR _this$[ebp]
  00047	89 81 c4 00 00
	00		 mov	 DWORD PTR [ecx+196], eax

; 185  : 
; 186  : 	if (!ReleaseSemaphore(m_hSemaphore, m_iRestSemCount, NULL))

  0004d	6a 00		 push	 0
  0004f	8b 45 fc	 mov	 eax, DWORD PTR _this$[ebp]
  00052	ff b0 c4 00 00
	00		 push	 DWORD PTR [eax+196]
  00058	8b 45 fc	 mov	 eax, DWORD PTR _this$[ebp]
  0005b	ff b0 c0 00 00
	00		 push	 DWORD PTR [eax+192]
  00061	ff 15 00 00 00
	00		 call	 DWORD PTR __imp__ReleaseSemaphore@12
  00067	85 c0		 test	 eax, eax
  00069	75 0b		 jne	 SHORT $LN2@Request

; 187  : 		TraceError("TEMP_CAreaLoaderThread::Request: ReleaseSemaphore error");

  0006b	68 00 00 00 00	 push	 OFFSET ??_C@_0DI@ILGIOFFC@TEMP_CAreaLoaderThread?3?3Request@
  00070	e8 00 00 00 00	 call	 ?TraceError@@YAXPBDZZ	; TraceError
  00075	59		 pop	 ecx
$LN2@Request:

; 188  : 
; 189  : 	--m_iRestSemCount;

  00076	8b 45 fc	 mov	 eax, DWORD PTR _this$[ebp]
  00079	8b 80 c4 00 00
	00		 mov	 eax, DWORD PTR [eax+196]
  0007f	48		 dec	 eax
  00080	8b 4d fc	 mov	 ecx, DWORD PTR _this$[ebp]
  00083	89 81 c4 00 00
	00		 mov	 DWORD PTR [ecx+196], eax

; 190  : }

  00089	c9		 leave
  0008a	c2 04 00	 ret	 4
?Request@TEMP_CAreaLoaderThread@@QAEXPAVCArea@@@Z ENDP	; TEMP_CAreaLoaderThread::Request
_TEXT	ENDS
; Function compile flags: /Odspy
; File D:\Metin2 Server Files\mainline\SRC_2014\Metin2Client\GameLib\AreaLoaderThread.cpp
; File C:\Program Files (x86)\Microsoft Visual Studio\2019\Community\VC\Tools\MSVC\14.28.29333\include\deque
; File D:\Metin2 Server Files\mainline\SRC_2014\Metin2Client\GameLib\AreaLoaderThread.cpp
;	COMDAT ?Fetch@TEMP_CAreaLoaderThread@@QAE_NPAPAVCTerrain@@@Z
_TEXT	SEGMENT
$T1 = -20						; size = 4
$T2 = -16						; size = 4
tv83 = -12						; size = 4
_this$ = -8						; size = 4
$T3 = -1						; size = 1
_ppTerrain$ = 8						; size = 4
?Fetch@TEMP_CAreaLoaderThread@@QAE_NPAPAVCTerrain@@@Z PROC ; TEMP_CAreaLoaderThread::Fetch, COMDAT
; _this$ = ecx

; 162  : {

  00000	55		 push	 ebp
  00001	8b ec		 mov	 ebp, esp
  00003	83 ec 14	 sub	 esp, 20			; 00000014H
  00006	89 4d f8	 mov	 DWORD PTR _this$[ebp], ecx

; 163  : 	m_TerrainCompleteMutex.Lock();

  00009	8b 4d f8	 mov	 ecx, DWORD PTR _this$[ebp]
  0000c	83 c1 50	 add	 ecx, 80			; 00000050H
  0000f	e8 00 00 00 00	 call	 ?Lock@Mutex@@QAEXXZ	; Mutex::Lock
; File C:\Program Files (x86)\Microsoft Visual Studio\2019\Community\VC\Tools\MSVC\14.28.29333\include\deque

; 1534 :         return _Mypair._Myval2;

  00014	8b 45 f8	 mov	 eax, DWORD PTR _this$[ebp]
  00017	83 c0 3c	 add	 eax, 60			; 0000003cH
  0001a	89 45 f0	 mov	 DWORD PTR $T2[ebp], eax

; 1566 :         return _Get_data()._Mysize;

  0001d	8b 45 f0	 mov	 eax, DWORD PTR $T2[ebp]
  00020	83 c0 10	 add	 eax, 16			; 00000010H
  00023	89 45 ec	 mov	 DWORD PTR $T1[ebp], eax

; 1010 :         return _Mysize() == 0;

  00026	8b 45 ec	 mov	 eax, DWORD PTR $T1[ebp]
  00029	83 38 00	 cmp	 DWORD PTR [eax], 0
  0002c	75 09		 jne	 SHORT $LN6@Fetch
  0002e	c7 45 f4 01 00
	00 00		 mov	 DWORD PTR tv83[ebp], 1
  00035	eb 04		 jmp	 SHORT $LN7@Fetch
$LN6@Fetch:
  00037	83 65 f4 00	 and	 DWORD PTR tv83[ebp], 0
$LN7@Fetch:
  0003b	8a 45 f4	 mov	 al, BYTE PTR tv83[ebp]
  0003e	88 45 ff	 mov	 BYTE PTR $T3[ebp], al
; File D:\Metin2 Server Files\mainline\SRC_2014\Metin2Client\GameLib\AreaLoaderThread.cpp

; 165  : 	if (m_pTerrainCompleteDeque.empty())

  00041	0f b6 45 ff	 movzx	 eax, BYTE PTR $T3[ebp]
  00045	85 c0		 test	 eax, eax
  00047	74 0f		 je	 SHORT $LN2@Fetch

; 166  : 	{
; 167  : 		m_TerrainCompleteMutex.Unlock();

  00049	8b 4d f8	 mov	 ecx, DWORD PTR _this$[ebp]
  0004c	83 c1 50	 add	 ecx, 80			; 00000050H
  0004f	e8 00 00 00 00	 call	 ?Unlock@Mutex@@QAEXXZ	; Mutex::Unlock

; 168  : 		return false;

  00054	32 c0		 xor	 al, al
  00056	eb 2a		 jmp	 SHORT $LN1@Fetch
$LN2@Fetch:

; 169  : 	}
; 170  : 
; 171  : 	*ppTerrain = m_pTerrainCompleteDeque.front();

  00058	8b 4d f8	 mov	 ecx, DWORD PTR _this$[ebp]
  0005b	83 c1 3c	 add	 ecx, 60			; 0000003cH
  0005e	e8 00 00 00 00	 call	 ?front@?$deque@PAVCTerrain@@V?$allocator@PAVCTerrain@@@std@@@std@@QAEAAPAVCTerrain@@XZ ; std::deque<CTerrain *,std::allocator<CTerrain *> >::front
  00063	8b 4d 08	 mov	 ecx, DWORD PTR _ppTerrain$[ebp]
  00066	8b 00		 mov	 eax, DWORD PTR [eax]
  00068	89 01		 mov	 DWORD PTR [ecx], eax

; 172  : 	m_pTerrainCompleteDeque.pop_front();

  0006a	8b 4d f8	 mov	 ecx, DWORD PTR _this$[ebp]
  0006d	83 c1 3c	 add	 ecx, 60			; 0000003cH
  00070	e8 00 00 00 00	 call	 ?pop_front@?$deque@PAVCTerrain@@V?$allocator@PAVCTerrain@@@std@@@std@@QAEXXZ ; std::deque<CTerrain *,std::allocator<CTerrain *> >::pop_front

; 173  : 
; 174  : 	m_TerrainCompleteMutex.Unlock();

  00075	8b 4d f8	 mov	 ecx, DWORD PTR _this$[ebp]
  00078	83 c1 50	 add	 ecx, 80			; 00000050H
  0007b	e8 00 00 00 00	 call	 ?Unlock@Mutex@@QAEXXZ	; Mutex::Unlock

; 175  : 	return true;

  00080	b0 01		 mov	 al, 1
$LN1@Fetch:

; 176  : }

  00082	c9		 leave
  00083	c2 04 00	 ret	 4
?Fetch@TEMP_CAreaLoaderThread@@QAE_NPAPAVCTerrain@@@Z ENDP ; TEMP_CAreaLoaderThread::Fetch
_TEXT	ENDS
; Function compile flags: /Odspy
; File D:\Metin2 Server Files\mainline\SRC_2014\Metin2Client\GameLib\AreaLoaderThread.cpp
; File C:\Program Files (x86)\Microsoft Visual Studio\2019\Community\VC\Tools\MSVC\14.28.29333\include\deque
; File D:\Metin2 Server Files\mainline\SRC_2014\Metin2Client\GameLib\AreaLoaderThread.cpp
;	COMDAT ?Request@TEMP_CAreaLoaderThread@@QAEXPAVCTerrain@@@Z
_TEXT	SEGMENT
$T1 = -12						; size = 4
_this$ = -8						; size = 4
_this$ = -4						; size = 4
_pTerrain$ = 8						; size = 4
?Request@TEMP_CAreaLoaderThread@@QAEXPAVCTerrain@@@Z PROC ; TEMP_CAreaLoaderThread::Request, COMDAT
; _this$ = ecx

; 148  : {

  00000	55		 push	 ebp
  00001	8b ec		 mov	 ebp, esp
  00003	83 ec 0c	 sub	 esp, 12			; 0000000cH
  00006	89 4d fc	 mov	 DWORD PTR _this$[ebp], ecx

; 149  : 	m_TerrainRequestMutex.Lock();

  00009	8b 4d fc	 mov	 ecx, DWORD PTR _this$[ebp]
  0000c	83 c1 24	 add	 ecx, 36			; 00000024H
  0000f	e8 00 00 00 00	 call	 ?Lock@Mutex@@QAEXXZ	; Mutex::Lock

; 150  : 	m_pTerrainRequestDeque.push_back(pTerrain);

  00014	8b 45 fc	 mov	 eax, DWORD PTR _this$[ebp]
  00017	83 c0 10	 add	 eax, 16			; 00000010H
  0001a	89 45 f8	 mov	 DWORD PTR _this$[ebp], eax
; File C:\Program Files (x86)\Microsoft Visual Studio\2019\Community\VC\Tools\MSVC\14.28.29333\include\deque

; 1530 :         return _Mypair._Myval2;

  0001d	8b 45 f8	 mov	 eax, DWORD PTR _this$[ebp]
  00020	89 45 f4	 mov	 DWORD PTR $T1[ebp], eax

; 1123 :         _Emplace_back_internal(_Val);

  00023	8d 45 08	 lea	 eax, DWORD PTR _pTerrain$[ebp]
  00026	50		 push	 eax
  00027	8b 4d f8	 mov	 ecx, DWORD PTR _this$[ebp]
  0002a	e8 00 00 00 00	 call	 ??$_Emplace_back_internal@ABQAVCTerrain@@@?$deque@PAVCTerrain@@V?$allocator@PAVCTerrain@@@std@@@std@@AAEXABQAVCTerrain@@@Z ; std::deque<CTerrain *,std::allocator<CTerrain *> >::_Emplace_back_internal<CTerrain * const &>
; File D:\Metin2 Server Files\mainline\SRC_2014\Metin2Client\GameLib\AreaLoaderThread.cpp

; 151  : 	m_TerrainRequestMutex.Unlock();

  0002f	8b 4d fc	 mov	 ecx, DWORD PTR _this$[ebp]
  00032	83 c1 24	 add	 ecx, 36			; 00000024H
  00035	e8 00 00 00 00	 call	 ?Unlock@Mutex@@QAEXXZ	; Mutex::Unlock

; 152  : 
; 153  : 	++m_iRestSemCount;

  0003a	8b 45 fc	 mov	 eax, DWORD PTR _this$[ebp]
  0003d	8b 80 c4 00 00
	00		 mov	 eax, DWORD PTR [eax+196]
  00043	40		 inc	 eax
  00044	8b 4d fc	 mov	 ecx, DWORD PTR _this$[ebp]
  00047	89 81 c4 00 00
	00		 mov	 DWORD PTR [ecx+196], eax

; 154  : 
; 155  : 	if (!ReleaseSemaphore(m_hSemaphore, m_iRestSemCount, NULL))

  0004d	6a 00		 push	 0
  0004f	8b 45 fc	 mov	 eax, DWORD PTR _this$[ebp]
  00052	ff b0 c4 00 00
	00		 push	 DWORD PTR [eax+196]
  00058	8b 45 fc	 mov	 eax, DWORD PTR _this$[ebp]
  0005b	ff b0 c0 00 00
	00		 push	 DWORD PTR [eax+192]
  00061	ff 15 00 00 00
	00		 call	 DWORD PTR __imp__ReleaseSemaphore@12
  00067	85 c0		 test	 eax, eax
  00069	75 0b		 jne	 SHORT $LN2@Request

; 156  : 		TraceError("TEMP_CAreaLoaderThread::Request: ReleaseSemaphore error");

  0006b	68 00 00 00 00	 push	 OFFSET ??_C@_0DI@ILGIOFFC@TEMP_CAreaLoaderThread?3?3Request@
  00070	e8 00 00 00 00	 call	 ?TraceError@@YAXPBDZZ	; TraceError
  00075	59		 pop	 ecx
$LN2@Request:

; 157  : 
; 158  : 	--m_iRestSemCount;

  00076	8b 45 fc	 mov	 eax, DWORD PTR _this$[ebp]
  00079	8b 80 c4 00 00
	00		 mov	 eax, DWORD PTR [eax+196]
  0007f	48		 dec	 eax
  00080	8b 4d fc	 mov	 ecx, DWORD PTR _this$[ebp]
  00083	89 81 c4 00 00
	00		 mov	 DWORD PTR [ecx+196], eax

; 159  : }

  00089	c9		 leave
  0008a	c2 04 00	 ret	 4
?Request@TEMP_CAreaLoaderThread@@QAEXPAVCTerrain@@@Z ENDP ; TEMP_CAreaLoaderThread::Request
_TEXT	ENDS
; Function compile flags: /Odspy
; File D:\Metin2 Server Files\mainline\SRC_2014\Metin2Client\GameLib\AreaLoaderThread.cpp
;	COMDAT ?Shutdown@TEMP_CAreaLoaderThread@@QAEXXZ
_TEXT	SEGMENT
_bRet$ = -8						; size = 4
_this$ = -4						; size = 4
?Shutdown@TEMP_CAreaLoaderThread@@QAEXXZ PROC		; TEMP_CAreaLoaderThread::Shutdown, COMDAT
; _this$ = ecx

; 100  : {

  00000	55		 push	 ebp
  00001	8b ec		 mov	 ebp, esp
  00003	51		 push	 ecx
  00004	51		 push	 ecx
  00005	89 4d fc	 mov	 DWORD PTR _this$[ebp], ecx

; 101  : 	if (!m_hSemaphore)

  00008	8b 45 fc	 mov	 eax, DWORD PTR _this$[ebp]
  0000b	83 b8 c0 00 00
	00 00		 cmp	 DWORD PTR [eax+192], 0
  00012	75 02		 jne	 SHORT $LN5@Shutdown

; 102  : 		return;

  00014	eb 37		 jmp	 SHORT $LN1@Shutdown
$LN5@Shutdown:

; 103  : 
; 104  : 	BOOL bRet;
; 105  : 	
; 106  : 	m_bShutdowned = true;

  00016	8b 45 fc	 mov	 eax, DWORD PTR _this$[ebp]
  00019	c6 80 c8 00 00
	00 01		 mov	 BYTE PTR [eax+200], 1
$LN4@Shutdown:

; 107  : 
; 108  : 	do
; 109  : 	{
; 110  : 		bRet = ReleaseSemaphore(m_hSemaphore, 1, NULL);

  00020	6a 00		 push	 0
  00022	6a 01		 push	 1
  00024	8b 45 fc	 mov	 eax, DWORD PTR _this$[ebp]
  00027	ff b0 c0 00 00
	00		 push	 DWORD PTR [eax+192]
  0002d	ff 15 00 00 00
	00		 call	 DWORD PTR __imp__ReleaseSemaphore@12
  00033	89 45 f8	 mov	 DWORD PTR _bRet$[ebp], eax

; 111  : 	}
; 112  : 	while (!bRet);

  00036	83 7d f8 00	 cmp	 DWORD PTR _bRet$[ebp], 0
  0003a	74 e4		 je	 SHORT $LN4@Shutdown

; 113  : 
; 114  : 	WaitForSingleObject(m_hThread, 10000);	//    10 

  0003c	68 10 27 00 00	 push	 10000			; 00002710H
  00041	8b 45 fc	 mov	 eax, DWORD PTR _this$[ebp]
  00044	ff 70 04	 push	 DWORD PTR [eax+4]
  00047	ff 15 00 00 00
	00		 call	 DWORD PTR __imp__WaitForSingleObject@8
$LN1@Shutdown:

; 115  : }

  0004d	c9		 leave
  0004e	c3		 ret	 0
?Shutdown@TEMP_CAreaLoaderThread@@QAEXXZ ENDP		; TEMP_CAreaLoaderThread::Shutdown
_TEXT	ENDS
; Function compile flags: /Odspy
; File D:\Metin2 Server Files\mainline\SRC_2014\Metin2Client\GameLib\AreaLoaderThread.cpp
; File D:\Metin2 Server Files\mainline\SRC_2014\Metin2Client\GameLib\AreaLoaderThread.h
; File D:\Metin2 Server Files\mainline\SRC_2014\Metin2Client\GameLib\AreaLoaderThread.cpp
;	COMDAT ?Create@TEMP_CAreaLoaderThread@@QAE_NPAX@Z
_TEXT	SEGMENT
_this$ = -4						; size = 4
_arg$ = 8						; size = 4
?Create@TEMP_CAreaLoaderThread@@QAE_NPAX@Z PROC		; TEMP_CAreaLoaderThread::Create, COMDAT
; _this$ = ecx

; 28   : {

  00000	55		 push	 ebp
  00001	8b ec		 mov	 ebp, esp
  00003	51		 push	 ecx
  00004	89 4d fc	 mov	 DWORD PTR _this$[ebp], ecx
; File D:\Metin2 Server Files\mainline\SRC_2014\Metin2Client\GameLib\AreaLoaderThread.h

; 39   : 	void						Arg(void * arg) { m_pArg = arg; }

  00007	8b 45 fc	 mov	 eax, DWORD PTR _this$[ebp]
  0000a	8b 4d 08	 mov	 ecx, DWORD PTR _arg$[ebp]
  0000d	89 48 08	 mov	 DWORD PTR [eax+8], ecx
; File D:\Metin2 Server Files\mainline\SRC_2014\Metin2Client\GameLib\AreaLoaderThread.cpp

; 30   : 	m_hThread = (HANDLE) _beginthreadex(NULL, 0, EntryPoint, this, 0, &m_uThreadID);

  00010	8b 45 fc	 mov	 eax, DWORD PTR _this$[ebp]
  00013	83 c0 0c	 add	 eax, 12			; 0000000cH
  00016	50		 push	 eax
  00017	6a 00		 push	 0
  00019	ff 75 fc	 push	 DWORD PTR _this$[ebp]
  0001c	68 00 00 00 00	 push	 OFFSET ?EntryPoint@TEMP_CAreaLoaderThread@@KGIPAX@Z ; TEMP_CAreaLoaderThread::EntryPoint
  00021	6a 00		 push	 0
  00023	6a 00		 push	 0
  00025	e8 00 00 00 00	 call	 __beginthreadex
  0002a	83 c4 18	 add	 esp, 24			; 00000018H
  0002d	8b 4d fc	 mov	 ecx, DWORD PTR _this$[ebp]
  00030	89 41 04	 mov	 DWORD PTR [ecx+4], eax

; 31   : 
; 32   : 	if (!m_hThread)

  00033	8b 45 fc	 mov	 eax, DWORD PTR _this$[ebp]
  00036	83 78 04 00	 cmp	 DWORD PTR [eax+4], 0
  0003a	75 04		 jne	 SHORT $LN2@Create

; 33   : 		return false;

  0003c	32 c0		 xor	 al, al
  0003e	eb 10		 jmp	 SHORT $LN1@Create
$LN2@Create:

; 34   : 
; 35   : 	SetThreadPriority(m_hThread, THREAD_PRIORITY_NORMAL);

  00040	6a 00		 push	 0
  00042	8b 45 fc	 mov	 eax, DWORD PTR _this$[ebp]
  00045	ff 70 04	 push	 DWORD PTR [eax+4]
  00048	ff 15 00 00 00
	00		 call	 DWORD PTR __imp__SetThreadPriority@8

; 36   : 	return true;

  0004e	b0 01		 mov	 al, 1
$LN1@Create:

; 37   : }

  00050	c9		 leave
  00051	c2 04 00	 ret	 4
?Create@TEMP_CAreaLoaderThread@@QAE_NPAX@Z ENDP		; TEMP_CAreaLoaderThread::Create
_TEXT	ENDS
; Function compile flags: /Odspy
; File D:\Metin2 Server Files\mainline\SRC_2014\Metin2Client\GameLib\AreaLoaderThread.cpp
;	COMDAT ??1TEMP_CAreaLoaderThread@@UAE@XZ
_TEXT	SEGMENT
_this$ = -16						; size = 4
__$EHRec$ = -12						; size = 12
??1TEMP_CAreaLoaderThread@@UAE@XZ PROC			; TEMP_CAreaLoaderThread::~TEMP_CAreaLoaderThread, COMDAT
; _this$ = ecx

; 23   : {

  00000	55		 push	 ebp
  00001	8b ec		 mov	 ebp, esp
  00003	6a ff		 push	 -1
  00005	68 00 00 00 00	 push	 __ehhandler$??1TEMP_CAreaLoaderThread@@UAE@XZ
  0000a	64 a1 00 00 00
	00		 mov	 eax, DWORD PTR fs:0
  00010	50		 push	 eax
  00011	51		 push	 ecx
  00012	a1 00 00 00 00	 mov	 eax, DWORD PTR ___security_cookie
  00017	33 c5		 xor	 eax, ebp
  00019	50		 push	 eax
  0001a	8d 45 f4	 lea	 eax, DWORD PTR __$EHRec$[ebp]
  0001d	64 a3 00 00 00
	00		 mov	 DWORD PTR fs:0, eax
  00023	89 4d f0	 mov	 DWORD PTR _this$[ebp], ecx
  00026	8b 45 f0	 mov	 eax, DWORD PTR _this$[ebp]
  00029	c7 00 00 00 00
	00		 mov	 DWORD PTR [eax], OFFSET ??_7TEMP_CAreaLoaderThread@@6B@

; 24   : 	Destroy();

  0002f	8b 4d f0	 mov	 ecx, DWORD PTR _this$[ebp]
  00032	e8 00 00 00 00	 call	 ?Destroy@TEMP_CAreaLoaderThread@@IAEXXZ ; TEMP_CAreaLoaderThread::Destroy

; 25   : }

  00037	8b 4d f0	 mov	 ecx, DWORD PTR _this$[ebp]
  0003a	81 c1 a8 00 00
	00		 add	 ecx, 168		; 000000a8H
  00040	e8 00 00 00 00	 call	 ??1Mutex@@QAE@XZ	; Mutex::~Mutex
  00045	8b 4d f0	 mov	 ecx, DWORD PTR _this$[ebp]
  00048	81 c1 94 00 00
	00		 add	 ecx, 148		; 00000094H
  0004e	e8 00 00 00 00	 call	 ??1?$deque@PAVCArea@@V?$allocator@PAVCArea@@@std@@@std@@QAE@XZ ; std::deque<CArea *,std::allocator<CArea *> >::~deque<CArea *,std::allocator<CArea *> >
  00053	8b 4d f0	 mov	 ecx, DWORD PTR _this$[ebp]
  00056	83 c1 7c	 add	 ecx, 124		; 0000007cH
  00059	e8 00 00 00 00	 call	 ??1Mutex@@QAE@XZ	; Mutex::~Mutex
  0005e	8b 4d f0	 mov	 ecx, DWORD PTR _this$[ebp]
  00061	83 c1 68	 add	 ecx, 104		; 00000068H
  00064	e8 00 00 00 00	 call	 ??1?$deque@PAVCArea@@V?$allocator@PAVCArea@@@std@@@std@@QAE@XZ ; std::deque<CArea *,std::allocator<CArea *> >::~deque<CArea *,std::allocator<CArea *> >
  00069	8b 4d f0	 mov	 ecx, DWORD PTR _this$[ebp]
  0006c	83 c1 50	 add	 ecx, 80			; 00000050H
  0006f	e8 00 00 00 00	 call	 ??1Mutex@@QAE@XZ	; Mutex::~Mutex
  00074	8b 4d f0	 mov	 ecx, DWORD PTR _this$[ebp]
  00077	83 c1 3c	 add	 ecx, 60			; 0000003cH
  0007a	e8 00 00 00 00	 call	 ??1?$deque@PAVCTerrain@@V?$allocator@PAVCTerrain@@@std@@@std@@QAE@XZ ; std::deque<CTerrain *,std::allocator<CTerrain *> >::~deque<CTerrain *,std::allocator<CTerrain *> >
  0007f	8b 4d f0	 mov	 ecx, DWORD PTR _this$[ebp]
  00082	83 c1 24	 add	 ecx, 36			; 00000024H
  00085	e8 00 00 00 00	 call	 ??1Mutex@@QAE@XZ	; Mutex::~Mutex
  0008a	8b 4d f0	 mov	 ecx, DWORD PTR _this$[ebp]
  0008d	83 c1 10	 add	 ecx, 16			; 00000010H
  00090	e8 00 00 00 00	 call	 ??1?$deque@PAVCTerrain@@V?$allocator@PAVCTerrain@@@std@@@std@@QAE@XZ ; std::deque<CTerrain *,std::allocator<CTerrain *> >::~deque<CTerrain *,std::allocator<CTerrain *> >
  00095	8b 4d f4	 mov	 ecx, DWORD PTR __$EHRec$[ebp]
  00098	64 89 0d 00 00
	00 00		 mov	 DWORD PTR fs:0, ecx
  0009f	59		 pop	 ecx
  000a0	c9		 leave
  000a1	c3		 ret	 0
  000a2	cc		 int	 3
  000a3	cc		 int	 3
  000a4	cc		 int	 3
  000a5	cc		 int	 3
  000a6	cc		 int	 3
_TEXT	ENDS
;	COMDAT text$x
text$x	SEGMENT
__ehhandler$??1TEMP_CAreaLoaderThread@@UAE@XZ:
  00000	90		 npad	 1
  00001	90		 npad	 1
  00002	8b 54 24 08	 mov	 edx, DWORD PTR [esp+8]
  00006	8d 42 0c	 lea	 eax, DWORD PTR [edx+12]
  00009	8b 4a f8	 mov	 ecx, DWORD PTR [edx-8]
  0000c	33 c8		 xor	 ecx, eax
  0000e	e8 00 00 00 00	 call	 @__security_check_cookie@4
  00013	b8 00 00 00 00	 mov	 eax, OFFSET __ehfuncinfo$??1TEMP_CAreaLoaderThread@@UAE@XZ
  00018	e9 00 00 00 00	 jmp	 ___CxxFrameHandler3
text$x	ENDS
??1TEMP_CAreaLoaderThread@@UAE@XZ ENDP			; TEMP_CAreaLoaderThread::~TEMP_CAreaLoaderThread
; Function compile flags: /Odspy
; File D:\Metin2 Server Files\mainline\SRC_2014\Metin2Client\GameLib\AreaLoaderThread.cpp
;	COMDAT ??0TEMP_CAreaLoaderThread@@QAE@XZ
_TEXT	SEGMENT
_this$ = -16						; size = 4
__$EHRec$ = -12						; size = 12
??0TEMP_CAreaLoaderThread@@QAE@XZ PROC			; TEMP_CAreaLoaderThread::TEMP_CAreaLoaderThread, COMDAT
; _this$ = ecx

; 18   : {

  00000	55		 push	 ebp
  00001	8b ec		 mov	 ebp, esp
  00003	6a ff		 push	 -1
  00005	68 00 00 00 00	 push	 __ehhandler$??0TEMP_CAreaLoaderThread@@QAE@XZ
  0000a	64 a1 00 00 00
	00		 mov	 eax, DWORD PTR fs:0
  00010	50		 push	 eax
  00011	51		 push	 ecx
  00012	a1 00 00 00 00	 mov	 eax, DWORD PTR ___security_cookie
  00017	33 c5		 xor	 eax, ebp
  00019	50		 push	 eax
  0001a	8d 45 f4	 lea	 eax, DWORD PTR __$EHRec$[ebp]
  0001d	64 a3 00 00 00
	00		 mov	 DWORD PTR fs:0, eax
  00023	89 4d f0	 mov	 DWORD PTR _this$[ebp], ecx
  00026	8b 45 f0	 mov	 eax, DWORD PTR _this$[ebp]
  00029	c7 00 00 00 00
	00		 mov	 DWORD PTR [eax], OFFSET ??_7TEMP_CAreaLoaderThread@@6B@

; 17   : TEMP_CAreaLoaderThread::TEMP_CAreaLoaderThread() : m_bShutdowned(false), m_pArg(NULL), m_hThread(NULL), m_uThreadID(0)

  0002f	8b 45 f0	 mov	 eax, DWORD PTR _this$[ebp]
  00032	83 60 04 00	 and	 DWORD PTR [eax+4], 0
  00036	8b 45 f0	 mov	 eax, DWORD PTR _this$[ebp]
  00039	83 60 08 00	 and	 DWORD PTR [eax+8], 0
  0003d	8b 45 f0	 mov	 eax, DWORD PTR _this$[ebp]
  00040	83 60 0c 00	 and	 DWORD PTR [eax+12], 0

; 18   : {

  00044	8b 4d f0	 mov	 ecx, DWORD PTR _this$[ebp]
  00047	83 c1 10	 add	 ecx, 16			; 00000010H
  0004a	e8 00 00 00 00	 call	 ??0?$deque@PAVCTerrain@@V?$allocator@PAVCTerrain@@@std@@@std@@QAE@XZ ; std::deque<CTerrain *,std::allocator<CTerrain *> >::deque<CTerrain *,std::allocator<CTerrain *> >
  0004f	83 65 fc 00	 and	 DWORD PTR __$EHRec$[ebp+8], 0
  00053	8b 4d f0	 mov	 ecx, DWORD PTR _this$[ebp]
  00056	83 c1 24	 add	 ecx, 36			; 00000024H
  00059	e8 00 00 00 00	 call	 ??0Mutex@@QAE@XZ	; Mutex::Mutex
  0005e	c6 45 fc 01	 mov	 BYTE PTR __$EHRec$[ebp+8], 1
  00062	8b 4d f0	 mov	 ecx, DWORD PTR _this$[ebp]
  00065	83 c1 3c	 add	 ecx, 60			; 0000003cH
  00068	e8 00 00 00 00	 call	 ??0?$deque@PAVCTerrain@@V?$allocator@PAVCTerrain@@@std@@@std@@QAE@XZ ; std::deque<CTerrain *,std::allocator<CTerrain *> >::deque<CTerrain *,std::allocator<CTerrain *> >
  0006d	c6 45 fc 02	 mov	 BYTE PTR __$EHRec$[ebp+8], 2
  00071	8b 4d f0	 mov	 ecx, DWORD PTR _this$[ebp]
  00074	83 c1 50	 add	 ecx, 80			; 00000050H
  00077	e8 00 00 00 00	 call	 ??0Mutex@@QAE@XZ	; Mutex::Mutex
  0007c	c6 45 fc 03	 mov	 BYTE PTR __$EHRec$[ebp+8], 3
  00080	8b 4d f0	 mov	 ecx, DWORD PTR _this$[ebp]
  00083	83 c1 68	 add	 ecx, 104		; 00000068H
  00086	e8 00 00 00 00	 call	 ??0?$deque@PAVCArea@@V?$allocator@PAVCArea@@@std@@@std@@QAE@XZ ; std::deque<CArea *,std::allocator<CArea *> >::deque<CArea *,std::allocator<CArea *> >
  0008b	c6 45 fc 04	 mov	 BYTE PTR __$EHRec$[ebp+8], 4
  0008f	8b 4d f0	 mov	 ecx, DWORD PTR _this$[ebp]
  00092	83 c1 7c	 add	 ecx, 124		; 0000007cH
  00095	e8 00 00 00 00	 call	 ??0Mutex@@QAE@XZ	; Mutex::Mutex
  0009a	c6 45 fc 05	 mov	 BYTE PTR __$EHRec$[ebp+8], 5
  0009e	8b 4d f0	 mov	 ecx, DWORD PTR _this$[ebp]
  000a1	81 c1 94 00 00
	00		 add	 ecx, 148		; 00000094H
  000a7	e8 00 00 00 00	 call	 ??0?$deque@PAVCArea@@V?$allocator@PAVCArea@@@std@@@std@@QAE@XZ ; std::deque<CArea *,std::allocator<CArea *> >::deque<CArea *,std::allocator<CArea *> >
  000ac	c6 45 fc 06	 mov	 BYTE PTR __$EHRec$[ebp+8], 6
  000b0	8b 4d f0	 mov	 ecx, DWORD PTR _this$[ebp]
  000b3	81 c1 a8 00 00
	00		 add	 ecx, 168		; 000000a8H
  000b9	e8 00 00 00 00	 call	 ??0Mutex@@QAE@XZ	; Mutex::Mutex

; 17   : TEMP_CAreaLoaderThread::TEMP_CAreaLoaderThread() : m_bShutdowned(false), m_pArg(NULL), m_hThread(NULL), m_uThreadID(0)

  000be	8b 45 f0	 mov	 eax, DWORD PTR _this$[ebp]
  000c1	c6 80 c8 00 00
	00 00		 mov	 BYTE PTR [eax+200], 0

; 19   : 
; 20   : }

  000c8	83 4d fc ff	 or	 DWORD PTR __$EHRec$[ebp+8], -1
  000cc	8b 45 f0	 mov	 eax, DWORD PTR _this$[ebp]
  000cf	8b 4d f4	 mov	 ecx, DWORD PTR __$EHRec$[ebp]
  000d2	64 89 0d 00 00
	00 00		 mov	 DWORD PTR fs:0, ecx
  000d9	59		 pop	 ecx
  000da	c9		 leave
  000db	c3		 ret	 0
_TEXT	ENDS
;	COMDAT text$x
text$x	SEGMENT
__unwindfunclet$??0TEMP_CAreaLoaderThread@@QAE@XZ$0:
  00000	8b 4d f0	 mov	 ecx, DWORD PTR _this$[ebp]
  00003	83 c1 10	 add	 ecx, 16			; 00000010H
  00006	e9 00 00 00 00	 jmp	 ??1?$deque@PAVCTerrain@@V?$allocator@PAVCTerrain@@@std@@@std@@QAE@XZ ; std::deque<CTerrain *,std::allocator<CTerrain *> >::~deque<CTerrain *,std::allocator<CTerrain *> >
__unwindfunclet$??0TEMP_CAreaLoaderThread@@QAE@XZ$1:
  0000b	8b 4d f0	 mov	 ecx, DWORD PTR _this$[ebp]
  0000e	83 c1 24	 add	 ecx, 36			; 00000024H
  00011	e9 00 00 00 00	 jmp	 ??1Mutex@@QAE@XZ	; Mutex::~Mutex
__unwindfunclet$??0TEMP_CAreaLoaderThread@@QAE@XZ$2:
  00016	8b 4d f0	 mov	 ecx, DWORD PTR _this$[ebp]
  00019	83 c1 3c	 add	 ecx, 60			; 0000003cH
  0001c	e9 00 00 00 00	 jmp	 ??1?$deque@PAVCTerrain@@V?$allocator@PAVCTerrain@@@std@@@std@@QAE@XZ ; std::deque<CTerrain *,std::allocator<CTerrain *> >::~deque<CTerrain *,std::allocator<CTerrain *> >
__unwindfunclet$??0TEMP_CAreaLoaderThread@@QAE@XZ$3:
  00021	8b 4d f0	 mov	 ecx, DWORD PTR _this$[ebp]
  00024	83 c1 50	 add	 ecx, 80			; 00000050H
  00027	e9 00 00 00 00	 jmp	 ??1Mutex@@QAE@XZ	; Mutex::~Mutex
__unwindfunclet$??0TEMP_CAreaLoaderThread@@QAE@XZ$4:
  0002c	8b 4d f0	 mov	 ecx, DWORD PTR _this$[ebp]
  0002f	83 c1 68	 add	 ecx, 104		; 00000068H
  00032	e9 00 00 00 00	 jmp	 ??1?$deque@PAVCArea@@V?$allocator@PAVCArea@@@std@@@std@@QAE@XZ ; std::deque<CArea *,std::allocator<CArea *> >::~deque<CArea *,std::allocator<CArea *> >
__unwindfunclet$??0TEMP_CAreaLoaderThread@@QAE@XZ$5:
  00037	8b 4d f0	 mov	 ecx, DWORD PTR _this$[ebp]
  0003a	83 c1 7c	 add	 ecx, 124		; 0000007cH
  0003d	e9 00 00 00 00	 jmp	 ??1Mutex@@QAE@XZ	; Mutex::~Mutex
__unwindfunclet$??0TEMP_CAreaLoaderThread@@QAE@XZ$6:
  00042	8b 4d f0	 mov	 ecx, DWORD PTR _this$[ebp]
  00045	81 c1 94 00 00
	00		 add	 ecx, 148		; 00000094H
  0004b	e9 00 00 00 00	 jmp	 ??1?$deque@PAVCArea@@V?$allocator@PAVCArea@@@std@@@std@@QAE@XZ ; std::deque<CArea *,std::allocator<CArea *> >::~deque<CArea *,std::allocator<CArea *> >
  00050	cc		 int	 3
  00051	cc		 int	 3
  00052	cc		 int	 3
  00053	cc		 int	 3
  00054	cc		 int	 3
__ehhandler$??0TEMP_CAreaLoaderThread@@QAE@XZ:
  00055	90		 npad	 1
  00056	90		 npad	 1
  00057	8b 54 24 08	 mov	 edx, DWORD PTR [esp+8]
  0005b	8d 42 0c	 lea	 eax, DWORD PTR [edx+12]
  0005e	8b 4a f8	 mov	 ecx, DWORD PTR [edx-8]
  00061	33 c8		 xor	 ecx, eax
  00063	e8 00 00 00 00	 call	 @__security_check_cookie@4
  00068	b8 00 00 00 00	 mov	 eax, OFFSET __ehfuncinfo$??0TEMP_CAreaLoaderThread@@QAE@XZ
  0006d	e9 00 00 00 00	 jmp	 ___CxxFrameHandler3
text$x	ENDS
??0TEMP_CAreaLoaderThread@@QAE@XZ ENDP			; TEMP_CAreaLoaderThread::TEMP_CAreaLoaderThread
; Function compile flags: /Odspy
; File C:\Program Files (x86)\Microsoft Visual Studio\2019\Community\VC\Tools\MSVC\14.28.29333\include\xmemory
;	COMDAT ??$_Allocate_manually_vector_aligned@U_Default_allocate_traits@std@@@std@@YAPAXI@Z
_TEXT	SEGMENT
__Ptr$ = -12						; size = 4
__Block_size$ = -8					; size = 4
__Ptr_container$ = -4					; size = 4
__Bytes$ = 8						; size = 4
??$_Allocate_manually_vector_aligned@U_Default_allocate_traits@std@@@std@@YAPAXI@Z PROC ; std::_Allocate_manually_vector_aligned<std::_Default_allocate_traits>, COMDAT

; 113  : __declspec(allocator) void* _Allocate_manually_vector_aligned(const size_t _Bytes) {

  00000	55		 push	 ebp
  00001	8b ec		 mov	 ebp, esp
  00003	83 ec 0c	 sub	 esp, 12			; 0000000cH

; 114  :     // allocate _Bytes manually aligned to at least _Big_allocation_alignment
; 115  :     const size_t _Block_size = _Non_user_size + _Bytes;

  00006	8b 45 08	 mov	 eax, DWORD PTR __Bytes$[ebp]
  00009	83 c0 23	 add	 eax, 35			; 00000023H
  0000c	89 45 f8	 mov	 DWORD PTR __Block_size$[ebp], eax

; 116  :     if (_Block_size <= _Bytes) {

  0000f	8b 45 f8	 mov	 eax, DWORD PTR __Block_size$[ebp]
  00012	3b 45 08	 cmp	 eax, DWORD PTR __Bytes$[ebp]
  00015	77 05		 ja	 SHORT $LN12@Allocate_m

; 117  :         _Throw_bad_array_new_length(); // add overflow

  00017	e8 00 00 00 00	 call	 ?_Throw_bad_array_new_length@std@@YAXXZ ; std::_Throw_bad_array_new_length
$LN12@Allocate_m:

; 77   :         return ::operator new(_Bytes);

  0001c	ff 75 f8	 push	 DWORD PTR __Block_size$[ebp]
  0001f	e8 00 00 00 00	 call	 ??2@YAPAXI@Z		; operator new
  00024	59		 pop	 ecx

; 118  :     }
; 119  : 
; 120  :     const uintptr_t _Ptr_container = reinterpret_cast<uintptr_t>(_Traits::_Allocate(_Block_size));

  00025	89 45 fc	 mov	 DWORD PTR __Ptr_container$[ebp], eax
$LN4@Allocate_m:

; 121  :     _STL_VERIFY(_Ptr_container != 0, "invalid argument"); // validate even in release since we're doing p[-1]

  00028	83 7d fc 00	 cmp	 DWORD PTR __Ptr_container$[ebp], 0
  0002c	74 02		 je	 SHORT $LN7@Allocate_m
  0002e	eb 09		 jmp	 SHORT $LN2@Allocate_m
$LN7@Allocate_m:
  00030	e8 00 00 00 00	 call	 __invalid_parameter_noinfo_noreturn
  00035	33 c0		 xor	 eax, eax
  00037	75 f7		 jne	 SHORT $LN7@Allocate_m
$LN2@Allocate_m:
  00039	33 c0		 xor	 eax, eax
  0003b	75 eb		 jne	 SHORT $LN4@Allocate_m

; 122  :     void* const _Ptr = reinterpret_cast<void*>((_Ptr_container + _Non_user_size) & ~(_Big_allocation_alignment - 1));

  0003d	8b 45 fc	 mov	 eax, DWORD PTR __Ptr_container$[ebp]
  00040	83 c0 23	 add	 eax, 35			; 00000023H
  00043	83 e0 e0	 and	 eax, -32		; ffffffe0H
  00046	89 45 f4	 mov	 DWORD PTR __Ptr$[ebp], eax

; 123  :     static_cast<uintptr_t*>(_Ptr)[-1] = _Ptr_container;

  00049	6a 04		 push	 4
  0004b	58		 pop	 eax
  0004c	6b c0 ff	 imul	 eax, eax, -1
  0004f	8b 4d f4	 mov	 ecx, DWORD PTR __Ptr$[ebp]
  00052	8b 55 fc	 mov	 edx, DWORD PTR __Ptr_container$[ebp]
  00055	89 14 01	 mov	 DWORD PTR [ecx+eax], edx

; 124  : 
; 125  : #ifdef _DEBUG
; 126  :     static_cast<uintptr_t*>(_Ptr)[-2] = _Big_allocation_sentinel;
; 127  : #endif // _DEBUG
; 128  :     return _Ptr;

  00058	8b 45 f4	 mov	 eax, DWORD PTR __Ptr$[ebp]
$LN11@Allocate_m:

; 129  : }

  0005b	c9		 leave
  0005c	c3		 ret	 0
??$_Allocate_manually_vector_aligned@U_Default_allocate_traits@std@@@std@@YAPAXI@Z ENDP ; std::_Allocate_manually_vector_aligned<std::_Default_allocate_traits>
_TEXT	ENDS
; Function compile flags: /Odspy
; File C:\Program Files (x86)\Microsoft Visual Studio\2019\Community\VC\Tools\MSVC\14.28.29333\include\xmemory
;	COMDAT ??$_Allocate@$07U_Default_allocate_traits@std@@$0A@@std@@YAPAXI@Z
_TEXT	SEGMENT
__Bytes$ = 8						; size = 4
??$_Allocate@$07U_Default_allocate_traits@std@@$0A@@std@@YAPAXI@Z PROC ; std::_Allocate<8,std::_Default_allocate_traits,0>, COMDAT

; 197  : __declspec(allocator) void* _Allocate(const size_t _Bytes) {

  00000	55		 push	 ebp
  00001	8b ec		 mov	 ebp, esp

; 198  :     // allocate _Bytes when !_HAS_ALIGNED_NEW || _Align <= __STDCPP_DEFAULT_NEW_ALIGNMENT__
; 199  : #if defined(_M_IX86) || defined(_M_X64)
; 200  :     if (_Bytes >= _Big_allocation_threshold) { // boost the alignment of big allocations to help autovectorization

  00003	81 7d 08 00 10
	00 00		 cmp	 DWORD PTR __Bytes$[ebp], 4096 ; 00001000H
  0000a	72 0b		 jb	 SHORT $LN2@Allocate

; 201  :         return _Allocate_manually_vector_aligned<_Traits>(_Bytes);

  0000c	ff 75 08	 push	 DWORD PTR __Bytes$[ebp]
  0000f	e8 00 00 00 00	 call	 ??$_Allocate_manually_vector_aligned@U_Default_allocate_traits@std@@@std@@YAPAXI@Z ; std::_Allocate_manually_vector_aligned<std::_Default_allocate_traits>
  00014	59		 pop	 ecx
  00015	eb 13		 jmp	 SHORT $LN1@Allocate
$LN2@Allocate:

; 202  :     }
; 203  : #endif // defined(_M_IX86) || defined(_M_X64)
; 204  : 
; 205  :     if (_Bytes != 0) {

  00017	83 7d 08 00	 cmp	 DWORD PTR __Bytes$[ebp], 0
  0001b	74 0b		 je	 SHORT $LN3@Allocate

; 77   :         return ::operator new(_Bytes);

  0001d	ff 75 08	 push	 DWORD PTR __Bytes$[ebp]
  00020	e8 00 00 00 00	 call	 ??2@YAPAXI@Z		; operator new
  00025	59		 pop	 ecx

; 206  :         return _Traits::_Allocate(_Bytes);

  00026	eb 02		 jmp	 SHORT $LN1@Allocate
$LN3@Allocate:

; 207  :     }
; 208  : 
; 209  :     return nullptr;

  00028	33 c0		 xor	 eax, eax
$LN1@Allocate:

; 210  : }

  0002a	5d		 pop	 ebp
  0002b	c3		 ret	 0
??$_Allocate@$07U_Default_allocate_traits@std@@$0A@@std@@YAPAXI@Z ENDP ; std::_Allocate<8,std::_Default_allocate_traits,0>
_TEXT	ENDS
; Function compile flags: /Odspy
; File C:\Program Files (x86)\Microsoft Visual Studio\2019\Community\VC\Tools\MSVC\14.28.29333\include\xmemory
;	COMDAT ??$_Deallocate@$07$0A@@std@@YAXPAXI@Z
_TEXT	SEGMENT
__$EHRec$ = -12						; size = 12
__Ptr$ = 8						; size = 4
__Bytes$ = 12						; size = 4
??$_Deallocate@$07$0A@@std@@YAXPAXI@Z PROC		; std::_Deallocate<8,0>, COMDAT

; 213  : void _Deallocate(void* _Ptr, size_t _Bytes) noexcept {

  00000	55		 push	 ebp
  00001	8b ec		 mov	 ebp, esp
  00003	6a ff		 push	 -1
  00005	68 00 00 00 00	 push	 __ehhandler$??$_Deallocate@$07$0A@@std@@YAXPAXI@Z
  0000a	64 a1 00 00 00
	00		 mov	 eax, DWORD PTR fs:0
  00010	50		 push	 eax
  00011	a1 00 00 00 00	 mov	 eax, DWORD PTR ___security_cookie
  00016	33 c5		 xor	 eax, ebp
  00018	50		 push	 eax
  00019	8d 45 f4	 lea	 eax, DWORD PTR __$EHRec$[ebp]
  0001c	64 a3 00 00 00
	00		 mov	 DWORD PTR fs:0, eax

; 214  :     // deallocate storage allocated by _Allocate when !_HAS_ALIGNED_NEW || _Align <= __STDCPP_DEFAULT_NEW_ALIGNMENT__
; 215  : #if defined(_M_IX86) || defined(_M_X64)
; 216  :     if (_Bytes >= _Big_allocation_threshold) { // boost the alignment of big allocations to help autovectorization

  00022	81 7d 0c 00 10
	00 00		 cmp	 DWORD PTR __Bytes$[ebp], 4096 ; 00001000H
  00029	72 0f		 jb	 SHORT $LN2@Deallocate

; 217  :         _Adjust_manually_vector_aligned(_Ptr, _Bytes);

  0002b	8d 45 0c	 lea	 eax, DWORD PTR __Bytes$[ebp]
  0002e	50		 push	 eax
  0002f	8d 45 08	 lea	 eax, DWORD PTR __Ptr$[ebp]
  00032	50		 push	 eax
  00033	e8 00 00 00 00	 call	 ?_Adjust_manually_vector_aligned@std@@YAXAAPAXAAI@Z ; std::_Adjust_manually_vector_aligned
  00038	59		 pop	 ecx
  00039	59		 pop	 ecx
$LN2@Deallocate:

; 218  :     }
; 219  : #endif // defined(_M_IX86) || defined(_M_X64)
; 220  : 
; 221  :     ::operator delete(_Ptr, _Bytes);

  0003a	ff 75 0c	 push	 DWORD PTR __Bytes$[ebp]
  0003d	ff 75 08	 push	 DWORD PTR __Ptr$[ebp]
  00040	e8 00 00 00 00	 call	 ??3@YAXPAXI@Z		; operator delete
  00045	59		 pop	 ecx
  00046	59		 pop	 ecx

; 222  : }

  00047	8b 4d f4	 mov	 ecx, DWORD PTR __$EHRec$[ebp]
  0004a	64 89 0d 00 00
	00 00		 mov	 DWORD PTR fs:0, ecx
  00051	59		 pop	 ecx
  00052	c9		 leave
  00053	c3		 ret	 0
  00054	cc		 int	 3
  00055	cc		 int	 3
  00056	cc		 int	 3
  00057	cc		 int	 3
  00058	cc		 int	 3
_TEXT	ENDS
;	COMDAT text$x
text$x	SEGMENT
__ehhandler$??$_Deallocate@$07$0A@@std@@YAXPAXI@Z:
  00000	90		 npad	 1
  00001	90		 npad	 1
  00002	8b 54 24 08	 mov	 edx, DWORD PTR [esp+8]
  00006	8d 42 0c	 lea	 eax, DWORD PTR [edx+12]
  00009	8b 4a fc	 mov	 ecx, DWORD PTR [edx-4]
  0000c	33 c8		 xor	 ecx, eax
  0000e	e8 00 00 00 00	 call	 @__security_check_cookie@4
  00013	b8 00 00 00 00	 mov	 eax, OFFSET __ehfuncinfo$??$_Deallocate@$07$0A@@std@@YAXPAXI@Z
  00018	e9 00 00 00 00	 jmp	 ___CxxFrameHandler3
text$x	ENDS
??$_Deallocate@$07$0A@@std@@YAXPAXI@Z ENDP		; std::_Deallocate<8,0>
; Function compile flags: /Odspy
; File C:\Program Files (x86)\Microsoft Visual Studio\2019\Community\VC\Tools\MSVC\14.28.29333\include\xmemory
; File C:\Program Files (x86)\Microsoft Visual Studio\2019\Community\VC\Tools\MSVC\14.28.29333\include\xstddef
; File C:\Program Files (x86)\Microsoft Visual Studio\2019\Community\VC\Tools\MSVC\14.28.29333\include\vcruntime_new.h
; File C:\Program Files (x86)\Microsoft Visual Studio\2019\Community\VC\Tools\MSVC\14.28.29333\include\type_traits
; File C:\Program Files (x86)\Microsoft Visual Studio\2019\Community\VC\Tools\MSVC\14.28.29333\include\xmemory
;	COMDAT ??$_Construct_in_place@PADABQAD@std@@YAXAAPADABQAD@Z
_TEXT	SEGMENT
$T1 = -12						; size = 4
$T2 = -8						; size = 4
$T3 = -4						; size = 4
__Obj$ = 8						; size = 4
_<_Args_0>$ = 12					; size = 4
??$_Construct_in_place@PADABQAD@std@@YAXAAPADABQAD@Z PROC ; std::_Construct_in_place<char *,char * const &>, COMDAT

; 228  : void _Construct_in_place(_Ty& _Obj, _Types&&... _Args) noexcept(is_nothrow_constructible_v<_Ty, _Types...>) {

  00000	55		 push	 ebp
  00001	8b ec		 mov	 ebp, esp
  00003	83 ec 0c	 sub	 esp, 12			; 0000000cH
; File C:\Program Files (x86)\Microsoft Visual Studio\2019\Community\VC\Tools\MSVC\14.28.29333\include\xstddef

; 275  :     return __builtin_addressof(_Val);

  00006	8b 45 08	 mov	 eax, DWORD PTR __Obj$[ebp]
  00009	89 45 fc	 mov	 DWORD PTR $T3[ebp], eax
; File C:\Program Files (x86)\Microsoft Visual Studio\2019\Community\VC\Tools\MSVC\14.28.29333\include\vcruntime_new.h

; 169  :         return _Where;

  0000c	8b 45 fc	 mov	 eax, DWORD PTR $T3[ebp]
  0000f	89 45 f8	 mov	 DWORD PTR $T2[ebp], eax
; File C:\Program Files (x86)\Microsoft Visual Studio\2019\Community\VC\Tools\MSVC\14.28.29333\include\type_traits

; 1443 :     return static_cast<_Ty&&>(_Arg);

  00012	8b 45 0c	 mov	 eax, DWORD PTR _<_Args_0>$[ebp]
  00015	89 45 f4	 mov	 DWORD PTR $T1[ebp], eax
; File C:\Program Files (x86)\Microsoft Visual Studio\2019\Community\VC\Tools\MSVC\14.28.29333\include\xmemory

; 229  :     ::new (const_cast<void*>(static_cast<const volatile void*>(_STD addressof(_Obj))))

  00018	8b 45 f8	 mov	 eax, DWORD PTR $T2[ebp]
  0001b	8b 4d f4	 mov	 ecx, DWORD PTR $T1[ebp]
  0001e	8b 09		 mov	 ecx, DWORD PTR [ecx]
  00020	89 08		 mov	 DWORD PTR [eax], ecx

; 230  :         _Ty(_STD forward<_Types>(_Args)...);
; 231  : }

  00022	c9		 leave
  00023	c3		 ret	 0
??$_Construct_in_place@PADABQAD@std@@YAXAAPADABQAD@Z ENDP ; std::_Construct_in_place<char *,char * const &>
_TEXT	ENDS
; Function compile flags: /Odspy
; File C:\Program Files (x86)\Microsoft Visual Studio\2019\Community\VC\Tools\MSVC\14.28.29333\include\xstring
; File C:\Program Files (x86)\Microsoft Visual Studio\2019\Community\VC\Tools\MSVC\14.28.29333\include\xmemory
; File C:\Program Files (x86)\Microsoft Visual Studio\2019\Community\VC\Tools\MSVC\14.28.29333\include\xstring
; File C:\Program Files (x86)\Microsoft Visual Studio\2019\Community\VC\Tools\MSVC\14.28.29333\include\xmemory
; File C:\Program Files (x86)\Microsoft Visual Studio\2019\Community\VC\Tools\MSVC\14.28.29333\include\xstring
; File C:\Program Files (x86)\Microsoft Visual Studio\2019\Community\VC\Tools\MSVC\14.28.29333\include\xmemory
; File C:\Program Files (x86)\Microsoft Visual Studio\2019\Community\VC\Tools\MSVC\14.28.29333\include\xstring
; File C:\Program Files (x86)\Microsoft Visual Studio\2019\Community\VC\Tools\MSVC\14.28.29333\include\xstddef
; File C:\Program Files (x86)\Microsoft Visual Studio\2019\Community\VC\Tools\MSVC\14.28.29333\include\xstring
; File C:\Program Files (x86)\Microsoft Visual Studio\2019\Community\VC\Tools\MSVC\14.28.29333\include\xmemory
; File C:\Program Files (x86)\Microsoft Visual Studio\2019\Community\VC\Tools\MSVC\14.28.29333\include\xstring
;	COMDAT ??$_Reallocate_for@V<lambda_9366063389c5f42a00a5088cf24e69de>@@PBD@?$basic_string@DU?$char_traits@D@std@@V?$allocator@D@2@@std@@AAEAAV01@IV<lambda_9366063389c5f42a00a5088cf24e69de>@@PBD@Z
_TEXT	SEGMENT
__Al$ = -40						; size = 4
__Ptr$ = -36						; size = 4
__Ptr$ = -32						; size = 4
$T1 = -28						; size = 4
__Old_capacity$ = -24					; size = 4
$T2 = -20						; size = 4
__New_capacity$ = -16					; size = 4
__New_ptr$ = -12					; size = 4
_this$ = -8						; size = 4
__Overflow_is_possible$3 = -2				; size = 1
$T4 = -1						; size = 1
__New_size$ = 8						; size = 4
__Fn$ = 12						; size = 1
_<_Args_0>$ = 16					; size = 4
??$_Reallocate_for@V<lambda_9366063389c5f42a00a5088cf24e69de>@@PBD@?$basic_string@DU?$char_traits@D@std@@V?$allocator@D@2@@std@@AAEAAV01@IV<lambda_9366063389c5f42a00a5088cf24e69de>@@PBD@Z PROC ; std::basic_string<char,std::char_traits<char>,std::allocator<char> >::_Reallocate_for<<lambda_9366063389c5f42a00a5088cf24e69de>,char const *>, COMDAT
; _this$ = ecx

; 4302 :     basic_string& _Reallocate_for(const size_type _New_size, _Fty _Fn, _ArgTys... _Args) {

  00000	55		 push	 ebp
  00001	8b ec		 mov	 ebp, esp
  00003	83 ec 28	 sub	 esp, 40			; 00000028H
  00006	89 4d f8	 mov	 DWORD PTR _this$[ebp], ecx

; 4303 :         // reallocate to store exactly _New_size elements, new buffer prepared by
; 4304 :         // _Fn(_New_ptr, _New_size, _Args...)
; 4305 :         if (_New_size > max_size()) {

  00009	8b 4d f8	 mov	 ecx, DWORD PTR _this$[ebp]
  0000c	e8 00 00 00 00	 call	 ?max_size@?$basic_string@DU?$char_traits@D@std@@V?$allocator@D@2@@std@@QBEIXZ ; std::basic_string<char,std::char_traits<char>,std::allocator<char> >::max_size
  00011	39 45 08	 cmp	 DWORD PTR __New_size$[ebp], eax
  00014	76 05		 jbe	 SHORT $LN2@Reallocate

; 4306 :             _Xlen_string(); // result too long

  00016	e8 00 00 00 00	 call	 ?_Xlen_string@std@@YAXXZ ; std::_Xlen_string
$LN2@Reallocate:

; 4307 :         }
; 4308 : 
; 4309 :         const size_type _Old_capacity = _Mypair._Myval2._Myres;

  0001b	8b 45 f8	 mov	 eax, DWORD PTR _this$[ebp]
  0001e	8b 40 14	 mov	 eax, DWORD PTR [eax+20]
  00021	89 45 e8	 mov	 DWORD PTR __Old_capacity$[ebp], eax

; 4310 :         const size_type _New_capacity = _Calculate_growth(_New_size);

  00024	ff 75 08	 push	 DWORD PTR __New_size$[ebp]
  00027	8b 4d f8	 mov	 ecx, DWORD PTR _this$[ebp]
  0002a	e8 00 00 00 00	 call	 ?_Calculate_growth@?$basic_string@DU?$char_traits@D@std@@V?$allocator@D@2@@std@@ABEII@Z ; std::basic_string<char,std::char_traits<char>,std::allocator<char> >::_Calculate_growth
  0002f	89 45 f0	 mov	 DWORD PTR __New_capacity$[ebp], eax

; 4409 :         return _Mypair._Get_first();

  00032	8b 45 f8	 mov	 eax, DWORD PTR _this$[ebp]
; File C:\Program Files (x86)\Microsoft Visual Studio\2019\Community\VC\Tools\MSVC\14.28.29333\include\xmemory

; 1347 :         return *this;

  00035	89 45 e4	 mov	 DWORD PTR $T1[ebp], eax
; File C:\Program Files (x86)\Microsoft Visual Studio\2019\Community\VC\Tools\MSVC\14.28.29333\include\xstring

; 4409 :         return _Mypair._Get_first();

  00038	8b 45 e4	 mov	 eax, DWORD PTR $T1[ebp]
  0003b	89 45 d8	 mov	 DWORD PTR __Al$[ebp], eax
; File C:\Program Files (x86)\Microsoft Visual Studio\2019\Community\VC\Tools\MSVC\14.28.29333\include\xmemory

; 56   :     constexpr bool _Overflow_is_possible = _Ty_size > 1;

  0003e	c6 45 fe 00	 mov	 BYTE PTR __Overflow_is_possible$3[ebp], 0
; File C:\Program Files (x86)\Microsoft Visual Studio\2019\Community\VC\Tools\MSVC\14.28.29333\include\xstring

; 4312 :         const pointer _New_ptr        = _Al.allocate(_New_capacity + 1); // throws

  00042	8b 45 f0	 mov	 eax, DWORD PTR __New_capacity$[ebp]
  00045	40		 inc	 eax
; File C:\Program Files (x86)\Microsoft Visual Studio\2019\Community\VC\Tools\MSVC\14.28.29333\include\xmemory

; 814  :         return static_cast<_Ty*>(_Allocate<_New_alignof<_Ty>>(_Get_size_of_n<sizeof(_Ty)>(_Count)));

  00046	50		 push	 eax
  00047	e8 00 00 00 00	 call	 ??$_Allocate@$07U_Default_allocate_traits@std@@$0A@@std@@YAPAXI@Z ; std::_Allocate<8,std::_Default_allocate_traits,0>
  0004c	59		 pop	 ecx
; File C:\Program Files (x86)\Microsoft Visual Studio\2019\Community\VC\Tools\MSVC\14.28.29333\include\xstring

; 4312 :         const pointer _New_ptr        = _Al.allocate(_New_capacity + 1); // throws

  0004d	89 45 f4	 mov	 DWORD PTR __New_ptr$[ebp], eax

; 4313 :         _Mypair._Myval2._Orphan_all();
; 4314 :         _Mypair._Myval2._Mysize = _New_size;

  00050	8b 45 f8	 mov	 eax, DWORD PTR _this$[ebp]
  00053	8b 4d 08	 mov	 ecx, DWORD PTR __New_size$[ebp]
  00056	89 48 10	 mov	 DWORD PTR [eax+16], ecx

; 4315 :         _Mypair._Myval2._Myres  = _New_capacity;

  00059	8b 45 f8	 mov	 eax, DWORD PTR _this$[ebp]
  0005c	8b 4d f0	 mov	 ecx, DWORD PTR __New_capacity$[ebp]
  0005f	89 48 14	 mov	 DWORD PTR [eax+20], ecx

; 4316 :         _Fn(_Unfancy(_New_ptr), _New_size, _Args...);

  00062	8b 45 f4	 mov	 eax, DWORD PTR __New_ptr$[ebp]
  00065	89 45 e0	 mov	 DWORD PTR __Ptr$[ebp], eax
; File C:\Program Files (x86)\Microsoft Visual Studio\2019\Community\VC\Tools\MSVC\14.28.29333\include\xstddef

; 289  :     return _Ptr;

  00068	8b 45 e0	 mov	 eax, DWORD PTR __Ptr$[ebp]
  0006b	89 45 ec	 mov	 DWORD PTR $T2[ebp], eax
; File C:\Program Files (x86)\Microsoft Visual Studio\2019\Community\VC\Tools\MSVC\14.28.29333\include\xstring

; 62   :         _CSTD memcpy(_First1, _First2, _Count * sizeof(_Elem));

  0006e	ff 75 08	 push	 DWORD PTR __New_size$[ebp]
  00071	ff 75 10	 push	 DWORD PTR _<_Args_0>$[ebp]
  00074	ff 75 ec	 push	 DWORD PTR $T2[ebp]
  00077	e8 00 00 00 00	 call	 _memcpy
  0007c	83 c4 0c	 add	 esp, 12			; 0000000cH

; 3056 :                 _Traits::assign(_New_ptr[_Count], _Elem());

  0007f	c6 45 ff 00	 mov	 BYTE PTR $T4[ebp], 0

; 428  :         _Left = _Right;

  00083	8b 45 ec	 mov	 eax, DWORD PTR $T2[ebp]
  00086	03 45 08	 add	 eax, DWORD PTR __New_size$[ebp]
  00089	8a 4d ff	 mov	 cl, BYTE PTR $T4[ebp]
  0008c	88 08		 mov	 BYTE PTR [eax], cl

; 4317 :         if (_BUF_SIZE <= _Old_capacity) {

  0008e	83 7d e8 10	 cmp	 DWORD PTR __Old_capacity$[ebp], 16 ; 00000010H
  00092	72 21		 jb	 SHORT $LN3@Reallocate

; 4318 :             _Al.deallocate(_Mypair._Myval2._Bx._Ptr, _Old_capacity + 1);

  00094	8b 45 f8	 mov	 eax, DWORD PTR _this$[ebp]
  00097	8b 00		 mov	 eax, DWORD PTR [eax]
  00099	89 45 dc	 mov	 DWORD PTR __Ptr$[ebp], eax
  0009c	8b 45 e8	 mov	 eax, DWORD PTR __Old_capacity$[ebp]
  0009f	40		 inc	 eax
; File C:\Program Files (x86)\Microsoft Visual Studio\2019\Community\VC\Tools\MSVC\14.28.29333\include\xmemory

; 810  :         _Deallocate<_New_alignof<_Ty>>(_Ptr, sizeof(_Ty) * _Count);

  000a0	50		 push	 eax
  000a1	ff 75 dc	 push	 DWORD PTR __Ptr$[ebp]
  000a4	e8 00 00 00 00	 call	 ??$_Deallocate@$07$0A@@std@@YAXPAXI@Z ; std::_Deallocate<8,0>
  000a9	59		 pop	 ecx
  000aa	59		 pop	 ecx
; File C:\Program Files (x86)\Microsoft Visual Studio\2019\Community\VC\Tools\MSVC\14.28.29333\include\xstring

; 4319 :             _Mypair._Myval2._Bx._Ptr = _New_ptr;

  000ab	8b 45 f8	 mov	 eax, DWORD PTR _this$[ebp]
  000ae	8b 4d f4	 mov	 ecx, DWORD PTR __New_ptr$[ebp]
  000b1	89 08		 mov	 DWORD PTR [eax], ecx

; 4320 :         } else {

  000b3	eb 0e		 jmp	 SHORT $LN4@Reallocate
$LN3@Reallocate:

; 4321 :             _Construct_in_place(_Mypair._Myval2._Bx._Ptr, _New_ptr);

  000b5	8d 45 f4	 lea	 eax, DWORD PTR __New_ptr$[ebp]
  000b8	50		 push	 eax
  000b9	ff 75 f8	 push	 DWORD PTR _this$[ebp]
  000bc	e8 00 00 00 00	 call	 ??$_Construct_in_place@PADABQAD@std@@YAXAAPADABQAD@Z ; std::_Construct_in_place<char *,char * const &>
  000c1	59		 pop	 ecx
  000c2	59		 pop	 ecx
$LN4@Reallocate:

; 4322 :         }
; 4323 : 
; 4324 :         return *this;

  000c3	8b 45 f8	 mov	 eax, DWORD PTR _this$[ebp]
$LN5@Reallocate:

; 4325 :     }

  000c6	c9		 leave
  000c7	c2 0c 00	 ret	 12			; 0000000cH
??$_Reallocate_for@V<lambda_9366063389c5f42a00a5088cf24e69de>@@PBD@?$basic_string@DU?$char_traits@D@std@@V?$allocator@D@2@@std@@AAEAAV01@IV<lambda_9366063389c5f42a00a5088cf24e69de>@@PBD@Z ENDP ; std::basic_string<char,std::char_traits<char>,std::allocator<char> >::_Reallocate_for<<lambda_9366063389c5f42a00a5088cf24e69de>,char const *>
_TEXT	ENDS
; Function compile flags: /Odspy
; File C:\Program Files (x86)\Microsoft Visual Studio\2019\Community\VC\Tools\MSVC\14.28.29333\include\xmemory
;	COMDAT ??$_Destroy_in_place@PAD@std@@YAXAAPAD@Z
_TEXT	SEGMENT
__Obj$ = 8						; size = 4
??$_Destroy_in_place@PAD@std@@YAXAAPAD@Z PROC		; std::_Destroy_in_place<char *>, COMDAT

; 270  : /* _CONSTEXPR20_DYNALLOC */ void _Destroy_in_place(_Ty& _Obj) noexcept {

  00000	55		 push	 ebp
  00001	8b ec		 mov	 ebp, esp

; 271  : #if _HAS_IF_CONSTEXPR
; 272  :     if constexpr (is_array_v<_Ty>) {
; 273  :         _Destroy_range(_Obj, _Obj + extent_v<_Ty>);
; 274  :     } else
; 275  : #endif // _HAS_IF_CONSTEXPR
; 276  :     {
; 277  :         _Obj.~_Ty();
; 278  :     }
; 279  : }

  00003	5d		 pop	 ebp
  00004	c3		 ret	 0
??$_Destroy_in_place@PAD@std@@YAXAAPAD@Z ENDP		; std::_Destroy_in_place<char *>
_TEXT	ENDS
; Function compile flags: /Odspy
; File C:\Program Files (x86)\Microsoft Visual Studio\2019\Community\VC\Tools\MSVC\14.28.29333\include\vector
; File C:\Program Files (x86)\Microsoft Visual Studio\2019\Community\VC\Tools\MSVC\14.28.29333\include\xmemory
; File C:\Program Files (x86)\Microsoft Visual Studio\2019\Community\VC\Tools\MSVC\14.28.29333\include\vector
; File C:\Program Files (x86)\Microsoft Visual Studio\2019\Community\VC\Tools\MSVC\14.28.29333\include\xmemory
; File C:\Program Files (x86)\Microsoft Visual Studio\2019\Community\VC\Tools\MSVC\14.28.29333\include\vector
; File C:\Program Files (x86)\Microsoft Visual Studio\2019\Community\VC\Tools\MSVC\14.28.29333\include\xmemory
; File C:\Program Files (x86)\Microsoft Visual Studio\2019\Community\VC\Tools\MSVC\14.28.29333\include\vector
;	COMDAT ?_Tidy@?$vector@V?$basic_string@DU?$char_traits@D@std@@V?$allocator@D@2@@std@@V?$allocator@V?$basic_string@DU?$char_traits@D@std@@V?$allocator@D@2@@std@@@2@@std@@AAEXXZ
_TEXT	SEGMENT
$T1 = -52						; size = 4
__Ptr$ = -48						; size = 4
__Count$ = -44						; size = 4
$T2 = -40						; size = 4
__First$ = -36						; size = 4
__Last$ = -32						; size = 4
$T3 = -28						; size = 4
$T4 = -24						; size = 4
__Myend$ = -20						; size = 4
__Mylast$ = -16						; size = 4
_this$ = -12						; size = 4
__My_data$ = -8						; size = 4
__Myfirst$ = -4						; size = 4
?_Tidy@?$vector@V?$basic_string@DU?$char_traits@D@std@@V?$allocator@D@2@@std@@V?$allocator@V?$basic_string@DU?$char_traits@D@std@@V?$allocator@D@2@@std@@@2@@std@@AAEXXZ PROC ; std::vector<std::basic_string<char,std::char_traits<char>,std::allocator<char> >,std::allocator<std::basic_string<char,std::char_traits<char>,std::allocator<char> > > >::_Tidy, COMDAT
; _this$ = ecx

; 1686 :     void _Tidy() noexcept { // free all storage

  00000	55		 push	 ebp
  00001	8b ec		 mov	 ebp, esp
  00003	83 ec 34	 sub	 esp, 52			; 00000034H
  00006	89 4d f4	 mov	 DWORD PTR _this$[ebp], ecx

; 1687 :         auto& _My_data    = _Mypair._Myval2;

  00009	8b 45 f4	 mov	 eax, DWORD PTR _this$[ebp]
  0000c	89 45 f8	 mov	 DWORD PTR __My_data$[ebp], eax

; 1688 :         pointer& _Myfirst = _My_data._Myfirst;

  0000f	8b 45 f8	 mov	 eax, DWORD PTR __My_data$[ebp]
  00012	89 45 fc	 mov	 DWORD PTR __Myfirst$[ebp], eax

; 1689 :         pointer& _Mylast  = _My_data._Mylast;

  00015	8b 45 f8	 mov	 eax, DWORD PTR __My_data$[ebp]
  00018	83 c0 04	 add	 eax, 4
  0001b	89 45 f0	 mov	 DWORD PTR __Mylast$[ebp], eax

; 1690 :         pointer& _Myend   = _My_data._Myend;

  0001e	8b 45 f8	 mov	 eax, DWORD PTR __My_data$[ebp]
  00021	83 c0 08	 add	 eax, 8
  00024	89 45 ec	 mov	 DWORD PTR __Myend$[ebp], eax

; 1691 : 
; 1692 :         _My_data._Orphan_all();
; 1693 : 
; 1694 :         if (_Myfirst) { // destroy and deallocate old array

  00027	8b 45 fc	 mov	 eax, DWORD PTR __Myfirst$[ebp]
  0002a	83 38 00	 cmp	 DWORD PTR [eax], 0
  0002d	74 75		 je	 SHORT $LN3@Tidy

; 1695 :             _Destroy(_Myfirst, _Mylast);

  0002f	8b 45 f0	 mov	 eax, DWORD PTR __Mylast$[ebp]
  00032	8b 00		 mov	 eax, DWORD PTR [eax]
  00034	89 45 e0	 mov	 DWORD PTR __Last$[ebp], eax
  00037	8b 45 fc	 mov	 eax, DWORD PTR __Myfirst$[ebp]
  0003a	8b 00		 mov	 eax, DWORD PTR [eax]
  0003c	89 45 dc	 mov	 DWORD PTR __First$[ebp], eax

; 1733 :         return _Mypair._Get_first();

  0003f	8b 45 f4	 mov	 eax, DWORD PTR _this$[ebp]
; File C:\Program Files (x86)\Microsoft Visual Studio\2019\Community\VC\Tools\MSVC\14.28.29333\include\xmemory

; 1347 :         return *this;

  00042	89 45 e8	 mov	 DWORD PTR $T4[ebp], eax
; File C:\Program Files (x86)\Microsoft Visual Studio\2019\Community\VC\Tools\MSVC\14.28.29333\include\vector

; 1733 :         return _Mypair._Get_first();

  00045	8b 45 e8	 mov	 eax, DWORD PTR $T4[ebp]
  00048	89 45 e4	 mov	 DWORD PTR $T3[ebp], eax

; 1612 :         _Destroy_range(_First, _Last, _Getal());

  0004b	ff 75 e4	 push	 DWORD PTR $T3[ebp]
  0004e	ff 75 e0	 push	 DWORD PTR __Last$[ebp]
  00051	ff 75 dc	 push	 DWORD PTR __First$[ebp]
  00054	e8 00 00 00 00	 call	 ??$_Destroy_range@V?$allocator@V?$basic_string@DU?$char_traits@D@std@@V?$allocator@D@2@@std@@@std@@@std@@YAXPAV?$basic_string@DU?$char_traits@D@std@@V?$allocator@D@2@@0@QAV10@AAV?$allocator@V?$basic_string@DU?$char_traits@D@std@@V?$allocator@D@2@@std@@@0@@Z ; std::_Destroy_range<std::allocator<std::basic_string<char,std::char_traits<char>,std::allocator<char> > > >
  00059	83 c4 0c	 add	 esp, 12			; 0000000cH

; 1733 :         return _Mypair._Get_first();

  0005c	8b 45 f4	 mov	 eax, DWORD PTR _this$[ebp]
; File C:\Program Files (x86)\Microsoft Visual Studio\2019\Community\VC\Tools\MSVC\14.28.29333\include\xmemory

; 1347 :         return *this;

  0005f	89 45 d8	 mov	 DWORD PTR $T2[ebp], eax
; File C:\Program Files (x86)\Microsoft Visual Studio\2019\Community\VC\Tools\MSVC\14.28.29333\include\vector

; 1733 :         return _Mypair._Get_first();

  00062	8b 45 d8	 mov	 eax, DWORD PTR $T2[ebp]
  00065	89 45 cc	 mov	 DWORD PTR $T1[ebp], eax

; 1696 :             _Getal().deallocate(_Myfirst, static_cast<size_type>(_Myend - _Myfirst));

  00068	8b 45 ec	 mov	 eax, DWORD PTR __Myend$[ebp]
  0006b	8b 4d fc	 mov	 ecx, DWORD PTR __Myfirst$[ebp]
  0006e	8b 00		 mov	 eax, DWORD PTR [eax]
  00070	2b 01		 sub	 eax, DWORD PTR [ecx]
  00072	99		 cdq
  00073	6a 18		 push	 24			; 00000018H
  00075	59		 pop	 ecx
  00076	f7 f9		 idiv	 ecx
  00078	89 45 d4	 mov	 DWORD PTR __Count$[ebp], eax
  0007b	8b 45 fc	 mov	 eax, DWORD PTR __Myfirst$[ebp]
  0007e	8b 00		 mov	 eax, DWORD PTR [eax]
  00080	89 45 d0	 mov	 DWORD PTR __Ptr$[ebp], eax
; File C:\Program Files (x86)\Microsoft Visual Studio\2019\Community\VC\Tools\MSVC\14.28.29333\include\xmemory

; 810  :         _Deallocate<_New_alignof<_Ty>>(_Ptr, sizeof(_Ty) * _Count);

  00083	6b 45 d4 18	 imul	 eax, DWORD PTR __Count$[ebp], 24
  00087	50		 push	 eax
  00088	ff 75 d0	 push	 DWORD PTR __Ptr$[ebp]
  0008b	e8 00 00 00 00	 call	 ??$_Deallocate@$07$0A@@std@@YAXPAXI@Z ; std::_Deallocate<8,0>
  00090	59		 pop	 ecx
  00091	59		 pop	 ecx
; File C:\Program Files (x86)\Microsoft Visual Studio\2019\Community\VC\Tools\MSVC\14.28.29333\include\vector

; 1698 :             _Myfirst = pointer();

  00092	8b 45 fc	 mov	 eax, DWORD PTR __Myfirst$[ebp]
  00095	83 20 00	 and	 DWORD PTR [eax], 0

; 1699 :             _Mylast  = pointer();

  00098	8b 45 f0	 mov	 eax, DWORD PTR __Mylast$[ebp]
  0009b	83 20 00	 and	 DWORD PTR [eax], 0

; 1700 :             _Myend   = pointer();

  0009e	8b 45 ec	 mov	 eax, DWORD PTR __Myend$[ebp]
  000a1	83 20 00	 and	 DWORD PTR [eax], 0
$LN3@Tidy:

; 1701 :         }
; 1702 :     }

  000a4	c9		 leave
  000a5	c3		 ret	 0
?_Tidy@?$vector@V?$basic_string@DU?$char_traits@D@std@@V?$allocator@D@2@@std@@V?$allocator@V?$basic_string@DU?$char_traits@D@std@@V?$allocator@D@2@@std@@@2@@std@@AAEXXZ ENDP ; std::vector<std::basic_string<char,std::char_traits<char>,std::allocator<char> >,std::allocator<std::basic_string<char,std::char_traits<char>,std::allocator<char> > > >::_Tidy
_TEXT	ENDS
; Function compile flags: /Odspy
; File C:\Program Files (x86)\Microsoft Visual Studio\2019\Community\VC\Tools\MSVC\14.28.29333\include\xtree
;	COMDAT ?_Throw_tree_length_error@std@@YAXXZ
_TEXT	SEGMENT
?_Throw_tree_length_error@std@@YAXXZ PROC		; std::_Throw_tree_length_error, COMDAT

; 414  : [[noreturn]] inline void _Throw_tree_length_error() {

  00000	55		 push	 ebp
  00001	8b ec		 mov	 ebp, esp

; 415  :     _Xlength_error("map/set too long");

  00003	68 00 00 00 00	 push	 OFFSET ??_C@_0BB@GCADKGJO@map?1set?5too?5long@
  00008	e8 00 00 00 00	 call	 ?_Xlength_error@std@@YAXPBD@Z ; std::_Xlength_error
$LN2@Throw_tree:

; 416  : }

  0000d	5d		 pop	 ebp
  0000e	c3		 ret	 0
?_Throw_tree_length_error@std@@YAXXZ ENDP		; std::_Throw_tree_length_error
_TEXT	ENDS
; Function compile flags: /Odspy
;	COMDAT ??1?$_Compressed_pair@V?$allocator@D@std@@V?$_String_val@U?$_Simple_types@D@std@@@2@$00@std@@QAE@XZ
_TEXT	SEGMENT
_this$ = -4						; size = 4
??1?$_Compressed_pair@V?$allocator@D@std@@V?$_String_val@U?$_Simple_types@D@std@@@2@$00@std@@QAE@XZ PROC ; std::_Compressed_pair<std::allocator<char>,std::_String_val<std::_Simple_types<char> >,1>::~_Compressed_pair<std::allocator<char>,std::_String_val<std::_Simple_types<char> >,1>, COMDAT
; _this$ = ecx
  00000	55		 push	 ebp
  00001	8b ec		 mov	 ebp, esp
  00003	51		 push	 ecx
  00004	89 4d fc	 mov	 DWORD PTR _this$[ebp], ecx
  00007	c9		 leave
  00008	c3		 ret	 0
??1?$_Compressed_pair@V?$allocator@D@std@@V?$_String_val@U?$_Simple_types@D@std@@@2@$00@std@@QAE@XZ ENDP ; std::_Compressed_pair<std::allocator<char>,std::_String_val<std::_Simple_types<char> >,1>::~_Compressed_pair<std::allocator<char>,std::_String_val<std::_Simple_types<char> >,1>
_TEXT	ENDS
; Function compile flags: /Odspy
; File C:\Program Files (x86)\Microsoft Visual Studio\2019\Community\VC\Tools\MSVC\14.28.29333\include\xstring
; File C:\Program Files (x86)\Microsoft Visual Studio\2019\Community\VC\Tools\MSVC\14.28.29333\include\xmemory
; File C:\Program Files (x86)\Microsoft Visual Studio\2019\Community\VC\Tools\MSVC\14.28.29333\include\xstring
; File C:\Program Files (x86)\Microsoft Visual Studio\2019\Community\VC\Tools\MSVC\14.28.29333\include\xmemory
; File C:\Program Files (x86)\Microsoft Visual Studio\2019\Community\VC\Tools\MSVC\14.28.29333\include\xstring
;	COMDAT ?_Tidy_deallocate@?$basic_string@DU?$char_traits@D@std@@V?$allocator@D@2@@std@@AAEXXZ
_TEXT	SEGMENT
__Al$1 = -28						; size = 4
__Ptr$2 = -24						; size = 4
__Count$ = -20						; size = 4
$T3 = -16						; size = 4
tv68 = -12						; size = 4
_this$ = -8						; size = 4
$T4 = -2						; size = 1
$T5 = -1						; size = 1
?_Tidy_deallocate@?$basic_string@DU?$char_traits@D@std@@V?$allocator@D@2@@std@@AAEXXZ PROC ; std::basic_string<char,std::char_traits<char>,std::allocator<char> >::_Tidy_deallocate, COMDAT
; _this$ = ecx

; 4383 :     void _Tidy_deallocate() noexcept { // initialize buffer, deallocating any storage

  00000	55		 push	 ebp
  00001	8b ec		 mov	 ebp, esp
  00003	83 ec 1c	 sub	 esp, 28			; 0000001cH
  00006	89 4d f8	 mov	 DWORD PTR _this$[ebp], ecx

; 2227 :         return _BUF_SIZE <= _Myres;

  00009	8b 45 f8	 mov	 eax, DWORD PTR _this$[ebp]
  0000c	83 78 14 10	 cmp	 DWORD PTR [eax+20], 16	; 00000010H
  00010	72 09		 jb	 SHORT $LN9@Tidy_deall
  00012	c7 45 f4 01 00
	00 00		 mov	 DWORD PTR tv68[ebp], 1
  00019	eb 04		 jmp	 SHORT $LN10@Tidy_deall
$LN9@Tidy_deall:
  0001b	83 65 f4 00	 and	 DWORD PTR tv68[ebp], 0
$LN10@Tidy_deall:
  0001f	8a 45 f4	 mov	 al, BYTE PTR tv68[ebp]
  00022	88 45 ff	 mov	 BYTE PTR $T5[ebp], al

; 4384 :         _Mypair._Myval2._Orphan_all();
; 4385 :         if (_Mypair._Myval2._Large_string_engaged()) {

  00025	0f b6 45 ff	 movzx	 eax, BYTE PTR $T5[ebp]
  00029	85 c0		 test	 eax, eax
  0002b	74 34		 je	 SHORT $LN2@Tidy_deall

; 4386 :             const pointer _Ptr = _Mypair._Myval2._Bx._Ptr;

  0002d	8b 45 f8	 mov	 eax, DWORD PTR _this$[ebp]
  00030	8b 00		 mov	 eax, DWORD PTR [eax]
  00032	89 45 e8	 mov	 DWORD PTR __Ptr$2[ebp], eax

; 4409 :         return _Mypair._Get_first();

  00035	8b 45 f8	 mov	 eax, DWORD PTR _this$[ebp]
; File C:\Program Files (x86)\Microsoft Visual Studio\2019\Community\VC\Tools\MSVC\14.28.29333\include\xmemory

; 1347 :         return *this;

  00038	89 45 f0	 mov	 DWORD PTR $T3[ebp], eax
; File C:\Program Files (x86)\Microsoft Visual Studio\2019\Community\VC\Tools\MSVC\14.28.29333\include\xstring

; 4409 :         return _Mypair._Get_first();

  0003b	8b 45 f0	 mov	 eax, DWORD PTR $T3[ebp]
  0003e	89 45 e4	 mov	 DWORD PTR __Al$1[ebp], eax

; 4387 :             auto& _Al          = _Getal();
; 4388 :             _Destroy_in_place(_Mypair._Myval2._Bx._Ptr);

  00041	ff 75 f8	 push	 DWORD PTR _this$[ebp]
  00044	e8 00 00 00 00	 call	 ??$_Destroy_in_place@PAD@std@@YAXAAPAD@Z ; std::_Destroy_in_place<char *>
  00049	59		 pop	 ecx

; 4389 :             _Al.deallocate(_Ptr, _Mypair._Myval2._Myres + 1);

  0004a	8b 45 f8	 mov	 eax, DWORD PTR _this$[ebp]
  0004d	8b 40 14	 mov	 eax, DWORD PTR [eax+20]
  00050	40		 inc	 eax
  00051	89 45 ec	 mov	 DWORD PTR __Count$[ebp], eax
; File C:\Program Files (x86)\Microsoft Visual Studio\2019\Community\VC\Tools\MSVC\14.28.29333\include\xmemory

; 810  :         _Deallocate<_New_alignof<_Ty>>(_Ptr, sizeof(_Ty) * _Count);

  00054	ff 75 ec	 push	 DWORD PTR __Count$[ebp]
  00057	ff 75 e8	 push	 DWORD PTR __Ptr$2[ebp]
  0005a	e8 00 00 00 00	 call	 ??$_Deallocate@$07$0A@@std@@YAXPAXI@Z ; std::_Deallocate<8,0>
  0005f	59		 pop	 ecx
  00060	59		 pop	 ecx
$LN2@Tidy_deall:
; File C:\Program Files (x86)\Microsoft Visual Studio\2019\Community\VC\Tools\MSVC\14.28.29333\include\xstring

; 4392 :         _Mypair._Myval2._Mysize = 0;

  00061	8b 45 f8	 mov	 eax, DWORD PTR _this$[ebp]
  00064	83 60 10 00	 and	 DWORD PTR [eax+16], 0

; 4393 :         _Mypair._Myval2._Myres  = _BUF_SIZE - 1;

  00068	8b 45 f8	 mov	 eax, DWORD PTR _this$[ebp]
  0006b	c7 40 14 0f 00
	00 00		 mov	 DWORD PTR [eax+20], 15	; 0000000fH

; 4394 :         // the _Traits::assign is last so the codegen doesn't think the char write can alias this
; 4395 :         _Traits::assign(_Mypair._Myval2._Bx._Buf[0], _Elem());

  00072	c6 45 fe 00	 mov	 BYTE PTR $T4[ebp], 0
  00076	33 c0		 xor	 eax, eax
  00078	40		 inc	 eax
  00079	6b c0 00	 imul	 eax, eax, 0

; 428  :         _Left = _Right;

  0007c	8b 4d f8	 mov	 ecx, DWORD PTR _this$[ebp]
  0007f	8a 55 fe	 mov	 dl, BYTE PTR $T4[ebp]
  00082	88 14 01	 mov	 BYTE PTR [ecx+eax], dl

; 4396 :     }

  00085	c9		 leave
  00086	c3		 ret	 0
?_Tidy_deallocate@?$basic_string@DU?$char_traits@D@std@@V?$allocator@D@2@@std@@AAEXXZ ENDP ; std::basic_string<char,std::char_traits<char>,std::allocator<char> >::_Tidy_deallocate
_TEXT	ENDS
; Function compile flags: /Odspy
; File C:\Program Files (x86)\Microsoft Visual Studio\2019\Community\VC\Tools\MSVC\14.28.29333\include\xstring
;	COMDAT ?_Tidy_init@?$basic_string@DU?$char_traits@D@std@@V?$allocator@D@2@@std@@AAEXXZ
_TEXT	SEGMENT
_this$ = -8						; size = 4
$T1 = -1						; size = 1
?_Tidy_init@?$basic_string@DU?$char_traits@D@std@@V?$allocator@D@2@@std@@AAEXXZ PROC ; std::basic_string<char,std::char_traits<char>,std::allocator<char> >::_Tidy_init, COMDAT
; _this$ = ecx

; 4376 :     void _Tidy_init() noexcept { // initialize basic_string data members

  00000	55		 push	 ebp
  00001	8b ec		 mov	 ebp, esp
  00003	51		 push	 ecx
  00004	51		 push	 ecx
  00005	89 4d f8	 mov	 DWORD PTR _this$[ebp], ecx

; 4377 :         _Mypair._Myval2._Mysize = 0;

  00008	8b 45 f8	 mov	 eax, DWORD PTR _this$[ebp]
  0000b	83 60 10 00	 and	 DWORD PTR [eax+16], 0

; 4378 :         _Mypair._Myval2._Myres  = _BUF_SIZE - 1;

  0000f	8b 45 f8	 mov	 eax, DWORD PTR _this$[ebp]
  00012	c7 40 14 0f 00
	00 00		 mov	 DWORD PTR [eax+20], 15	; 0000000fH

; 4379 :         // the _Traits::assign is last so the codegen doesn't think the char write can alias this
; 4380 :         _Traits::assign(_Mypair._Myval2._Bx._Buf[0], _Elem());

  00019	c6 45 ff 00	 mov	 BYTE PTR $T1[ebp], 0
  0001d	33 c0		 xor	 eax, eax
  0001f	40		 inc	 eax
  00020	6b c0 00	 imul	 eax, eax, 0

; 428  :         _Left = _Right;

  00023	8b 4d f8	 mov	 ecx, DWORD PTR _this$[ebp]
  00026	8a 55 ff	 mov	 dl, BYTE PTR $T1[ebp]
  00029	88 14 01	 mov	 BYTE PTR [ecx+eax], dl

; 4381 :     }

  0002c	c9		 leave
  0002d	c3		 ret	 0
?_Tidy_init@?$basic_string@DU?$char_traits@D@std@@V?$allocator@D@2@@std@@AAEXXZ ENDP ; std::basic_string<char,std::char_traits<char>,std::allocator<char> >::_Tidy_init
_TEXT	ENDS
; Function compile flags: /Odspy
; File C:\Program Files (x86)\Microsoft Visual Studio\2019\Community\VC\Tools\MSVC\14.28.29333\include\xstring
; File C:\Program Files (x86)\Microsoft Visual Studio\2019\Community\VC\Tools\MSVC\14.28.29333\include\utility
; File C:\Program Files (x86)\Microsoft Visual Studio\2019\Community\VC\Tools\MSVC\14.28.29333\include\xstring
;	COMDAT ?_Calculate_growth@?$basic_string@DU?$char_traits@D@std@@V?$allocator@D@2@@std@@ABEII@Z
_TEXT	SEGMENT
$T1 = -36						; size = 4
$T2 = -32						; size = 4
tv93 = -28						; size = 4
$T3 = -24						; size = 4
_this$ = -20						; size = 4
$T4 = -16						; size = 4
__Masked$5 = -12					; size = 4
__Old$ = -8						; size = 4
__Max$ = -4						; size = 4
__Requested$ = 8					; size = 4
?_Calculate_growth@?$basic_string@DU?$char_traits@D@std@@V?$allocator@D@2@@std@@ABEII@Z PROC ; std::basic_string<char,std::char_traits<char>,std::allocator<char> >::_Calculate_growth, COMDAT
; _this$ = ecx

; 4297 :     _NODISCARD size_type _Calculate_growth(const size_type _Requested) const noexcept {

  00000	55		 push	 ebp
  00001	8b ec		 mov	 ebp, esp
  00003	83 ec 24	 sub	 esp, 36			; 00000024H
  00006	89 4d ec	 mov	 DWORD PTR _this$[ebp], ecx

; 4298 :         return _Calculate_growth(_Requested, _Mypair._Myval2._Myres, max_size());

  00009	8b 4d ec	 mov	 ecx, DWORD PTR _this$[ebp]
  0000c	e8 00 00 00 00	 call	 ?max_size@?$basic_string@DU?$char_traits@D@std@@V?$allocator@D@2@@std@@QBEIXZ ; std::basic_string<char,std::char_traits<char>,std::allocator<char> >::max_size
  00011	89 45 fc	 mov	 DWORD PTR __Max$[ebp], eax
  00014	8b 45 ec	 mov	 eax, DWORD PTR _this$[ebp]
  00017	8b 40 14	 mov	 eax, DWORD PTR [eax+20]
  0001a	89 45 f8	 mov	 DWORD PTR __Old$[ebp], eax

; 4285 :         const size_type _Masked = _Requested | _ALLOC_MASK;

  0001d	8b 45 08	 mov	 eax, DWORD PTR __Requested$[ebp]
  00020	83 c8 0f	 or	 eax, 15			; 0000000fH
  00023	89 45 f4	 mov	 DWORD PTR __Masked$5[ebp], eax

; 4286 :         if (_Masked > _Max) { // the mask overflows, settle for max_size()

  00026	8b 45 f4	 mov	 eax, DWORD PTR __Masked$5[ebp]
  00029	3b 45 fc	 cmp	 eax, DWORD PTR __Max$[ebp]
  0002c	76 08		 jbe	 SHORT $LN29@Calculate_

; 4287 :             return _Max;

  0002e	8b 45 fc	 mov	 eax, DWORD PTR __Max$[ebp]
  00031	89 45 f0	 mov	 DWORD PTR $T4[ebp], eax
  00034	eb 4c		 jmp	 SHORT $LN31@Calculate_
$LN29@Calculate_:

; 4288 :         }
; 4289 : 
; 4290 :         if (_Old > _Max - _Old / 2) { // similarly, geometric overflows

  00036	8b 45 f8	 mov	 eax, DWORD PTR __Old$[ebp]
  00039	d1 e8		 shr	 eax, 1
  0003b	8b 4d fc	 mov	 ecx, DWORD PTR __Max$[ebp]
  0003e	2b c8		 sub	 ecx, eax
  00040	39 4d f8	 cmp	 DWORD PTR __Old$[ebp], ecx
  00043	76 08		 jbe	 SHORT $LN30@Calculate_

; 4291 :             return _Max;

  00045	8b 45 fc	 mov	 eax, DWORD PTR __Max$[ebp]
  00048	89 45 f0	 mov	 DWORD PTR $T4[ebp], eax
  0004b	eb 35		 jmp	 SHORT $LN31@Calculate_
$LN30@Calculate_:

; 4294 :         return (_STD max)(_Masked, _Old + _Old / 2);

  0004d	8b 45 f8	 mov	 eax, DWORD PTR __Old$[ebp]
  00050	d1 e8		 shr	 eax, 1
  00052	03 45 f8	 add	 eax, DWORD PTR __Old$[ebp]
  00055	89 45 e8	 mov	 DWORD PTR $T3[ebp], eax
; File C:\Program Files (x86)\Microsoft Visual Studio\2019\Community\VC\Tools\MSVC\14.28.29333\include\utility

; 44   :     return _Left < _Right ? _Right : _Left;

  00058	8b 45 f4	 mov	 eax, DWORD PTR __Masked$5[ebp]
  0005b	3b 45 e8	 cmp	 eax, DWORD PTR $T3[ebp]
  0005e	73 08		 jae	 SHORT $LN35@Calculate_
  00060	8d 45 e8	 lea	 eax, DWORD PTR $T3[ebp]
  00063	89 45 e4	 mov	 DWORD PTR tv93[ebp], eax
  00066	eb 06		 jmp	 SHORT $LN36@Calculate_
$LN35@Calculate_:
  00068	8d 45 f4	 lea	 eax, DWORD PTR __Masked$5[ebp]
  0006b	89 45 e4	 mov	 DWORD PTR tv93[ebp], eax
$LN36@Calculate_:
  0006e	8b 45 e4	 mov	 eax, DWORD PTR tv93[ebp]
  00071	89 45 e0	 mov	 DWORD PTR $T2[ebp], eax
  00074	8b 45 e0	 mov	 eax, DWORD PTR $T2[ebp]
  00077	89 45 dc	 mov	 DWORD PTR $T1[ebp], eax
; File C:\Program Files (x86)\Microsoft Visual Studio\2019\Community\VC\Tools\MSVC\14.28.29333\include\xstring

; 4294 :         return (_STD max)(_Masked, _Old + _Old / 2);

  0007a	8b 45 dc	 mov	 eax, DWORD PTR $T1[ebp]
  0007d	8b 00		 mov	 eax, DWORD PTR [eax]
  0007f	89 45 f0	 mov	 DWORD PTR $T4[ebp], eax
$LN31@Calculate_:

; 4298 :         return _Calculate_growth(_Requested, _Mypair._Myval2._Myres, max_size());

  00082	8b 45 f0	 mov	 eax, DWORD PTR $T4[ebp]

; 4299 :     }

  00085	c9		 leave
  00086	c2 04 00	 ret	 4
?_Calculate_growth@?$basic_string@DU?$char_traits@D@std@@V?$allocator@D@2@@std@@ABEII@Z ENDP ; std::basic_string<char,std::char_traits<char>,std::allocator<char> >::_Calculate_growth
_TEXT	ENDS
; Function compile flags: /Odspy
; File C:\Program Files (x86)\Microsoft Visual Studio\2019\Community\VC\Tools\MSVC\14.28.29333\include\xstring
; File C:\Program Files (x86)\Microsoft Visual Studio\2019\Community\VC\Tools\MSVC\14.28.29333\include\xstddef
; File C:\Program Files (x86)\Microsoft Visual Studio\2019\Community\VC\Tools\MSVC\14.28.29333\include\xstring
; File C:\Program Files (x86)\Microsoft Visual Studio\2019\Community\VC\Tools\MSVC\14.28.29333\include\xstddef
; File C:\Program Files (x86)\Microsoft Visual Studio\2019\Community\VC\Tools\MSVC\14.28.29333\include\xstring
; File C:\Program Files (x86)\Microsoft Visual Studio\2019\Community\VC\Tools\MSVC\14.28.29333\include\utility
; File C:\Program Files (x86)\Microsoft Visual Studio\2019\Community\VC\Tools\MSVC\14.28.29333\include\xstring
;	COMDAT ?compare@?$basic_string@DU?$char_traits@D@std@@V?$allocator@D@2@@std@@QBEHABV12@@Z
_TEXT	SEGMENT
$T1 = -80						; size = 4
$T2 = -76						; size = 4
__Count$ = -72						; size = 4
$T3 = -68						; size = 4
$T4 = -64						; size = 4
__Ptr$ = -60						; size = 4
__Ptr$ = -56						; size = 4
__Ans$5 = -52						; size = 4
tv146 = -48						; size = 4
_this$ = -44						; size = 4
__Result$6 = -40					; size = 4
tv137 = -36						; size = 4
__Result$7 = -32					; size = 4
tv95 = -28						; size = 4
_this$ = -24						; size = 4
_this$ = -20						; size = 4
$T8 = -16						; size = 4
__Right_size$ = -12					; size = 4
__Left_size$ = -8					; size = 4
$T9 = -2						; size = 1
$T10 = -1						; size = 1
__Right$ = 8						; size = 4
?compare@?$basic_string@DU?$char_traits@D@std@@V?$allocator@D@2@@std@@QBEHABV12@@Z PROC ; std::basic_string<char,std::char_traits<char>,std::allocator<char> >::compare, COMDAT
; _this$ = ecx

; 4212 :     _NODISCARD int compare(const basic_string& _Right) const noexcept { // compare [0, size()) with _Right

  00000	55		 push	 ebp
  00001	8b ec		 mov	 ebp, esp
  00003	83 ec 50	 sub	 esp, 80			; 00000050H
  00006	89 4d d4	 mov	 DWORD PTR _this$[ebp], ecx

; 4213 :         return _Traits_compare<_Traits>(_Mypair._Myval2._Myptr(), _Mypair._Myval2._Mysize,

  00009	8b 45 08	 mov	 eax, DWORD PTR __Right$[ebp]
  0000c	89 45 ec	 mov	 DWORD PTR _this$[ebp], eax

; 2218 :         const value_type* _Result = _Bx._Buf;

  0000f	8b 45 ec	 mov	 eax, DWORD PTR _this$[ebp]
  00012	89 45 e0	 mov	 DWORD PTR __Result$7[ebp], eax

; 2227 :         return _BUF_SIZE <= _Myres;

  00015	8b 45 ec	 mov	 eax, DWORD PTR _this$[ebp]
  00018	83 78 14 10	 cmp	 DWORD PTR [eax+20], 16	; 00000010H
  0001c	72 09		 jb	 SHORT $LN9@compare
  0001e	c7 45 e4 01 00
	00 00		 mov	 DWORD PTR tv95[ebp], 1
  00025	eb 04		 jmp	 SHORT $LN10@compare
$LN9@compare:
  00027	83 65 e4 00	 and	 DWORD PTR tv95[ebp], 0
$LN10@compare:
  0002b	8a 45 e4	 mov	 al, BYTE PTR tv95[ebp]
  0002e	88 45 ff	 mov	 BYTE PTR $T10[ebp], al

; 2219 :         if (_Large_string_engaged()) {

  00031	0f b6 45 ff	 movzx	 eax, BYTE PTR $T10[ebp]
  00035	85 c0		 test	 eax, eax
  00037	74 0e		 je	 SHORT $LN4@compare

; 2220 :             _Result = _Unfancy(_Bx._Ptr);

  00039	8b 45 ec	 mov	 eax, DWORD PTR _this$[ebp]
  0003c	8b 00		 mov	 eax, DWORD PTR [eax]
  0003e	89 45 c8	 mov	 DWORD PTR __Ptr$[ebp], eax
; File C:\Program Files (x86)\Microsoft Visual Studio\2019\Community\VC\Tools\MSVC\14.28.29333\include\xstddef

; 289  :     return _Ptr;

  00041	8b 45 c8	 mov	 eax, DWORD PTR __Ptr$[ebp]
  00044	89 45 e0	 mov	 DWORD PTR __Result$7[ebp], eax
$LN4@compare:
; File C:\Program Files (x86)\Microsoft Visual Studio\2019\Community\VC\Tools\MSVC\14.28.29333\include\xstring

; 2223 :         return _Result;

  00047	8b 45 e0	 mov	 eax, DWORD PTR __Result$7[ebp]
  0004a	89 45 b4	 mov	 DWORD PTR $T2[ebp], eax

; 4213 :         return _Traits_compare<_Traits>(_Mypair._Myval2._Myptr(), _Mypair._Myval2._Mysize,

  0004d	8b 45 d4	 mov	 eax, DWORD PTR _this$[ebp]
  00050	89 45 e8	 mov	 DWORD PTR _this$[ebp], eax

; 2218 :         const value_type* _Result = _Bx._Buf;

  00053	8b 45 e8	 mov	 eax, DWORD PTR _this$[ebp]
  00056	89 45 d8	 mov	 DWORD PTR __Result$6[ebp], eax

; 2227 :         return _BUF_SIZE <= _Myres;

  00059	8b 45 e8	 mov	 eax, DWORD PTR _this$[ebp]
  0005c	83 78 14 10	 cmp	 DWORD PTR [eax+20], 16	; 00000010H
  00060	72 09		 jb	 SHORT $LN21@compare
  00062	c7 45 dc 01 00
	00 00		 mov	 DWORD PTR tv137[ebp], 1
  00069	eb 04		 jmp	 SHORT $LN22@compare
$LN21@compare:
  0006b	83 65 dc 00	 and	 DWORD PTR tv137[ebp], 0
$LN22@compare:
  0006f	8a 45 dc	 mov	 al, BYTE PTR tv137[ebp]
  00072	88 45 fe	 mov	 BYTE PTR $T9[ebp], al

; 2219 :         if (_Large_string_engaged()) {

  00075	0f b6 45 fe	 movzx	 eax, BYTE PTR $T9[ebp]
  00079	85 c0		 test	 eax, eax
  0007b	74 0e		 je	 SHORT $LN16@compare

; 2220 :             _Result = _Unfancy(_Bx._Ptr);

  0007d	8b 45 e8	 mov	 eax, DWORD PTR _this$[ebp]
  00080	8b 00		 mov	 eax, DWORD PTR [eax]
  00082	89 45 c4	 mov	 DWORD PTR __Ptr$[ebp], eax
; File C:\Program Files (x86)\Microsoft Visual Studio\2019\Community\VC\Tools\MSVC\14.28.29333\include\xstddef

; 289  :     return _Ptr;

  00085	8b 45 c4	 mov	 eax, DWORD PTR __Ptr$[ebp]
  00088	89 45 d8	 mov	 DWORD PTR __Result$6[ebp], eax
$LN16@compare:
; File C:\Program Files (x86)\Microsoft Visual Studio\2019\Community\VC\Tools\MSVC\14.28.29333\include\xstring

; 2223 :         return _Result;

  0008b	8b 45 d8	 mov	 eax, DWORD PTR __Result$6[ebp]
  0008e	89 45 b0	 mov	 DWORD PTR $T1[ebp], eax

; 4213 :         return _Traits_compare<_Traits>(_Mypair._Myval2._Myptr(), _Mypair._Myval2._Mysize,

  00091	8b 45 08	 mov	 eax, DWORD PTR __Right$[ebp]
  00094	8b 40 10	 mov	 eax, DWORD PTR [eax+16]
  00097	89 45 f4	 mov	 DWORD PTR __Right_size$[ebp], eax
  0009a	8b 45 d4	 mov	 eax, DWORD PTR _this$[ebp]
  0009d	8b 40 10	 mov	 eax, DWORD PTR [eax+16]
  000a0	89 45 f8	 mov	 DWORD PTR __Left_size$[ebp], eax
; File C:\Program Files (x86)\Microsoft Visual Studio\2019\Community\VC\Tools\MSVC\14.28.29333\include\utility

; 68   :     return _Right < _Left ? _Right : _Left;

  000a3	8b 45 f4	 mov	 eax, DWORD PTR __Right_size$[ebp]
  000a6	3b 45 f8	 cmp	 eax, DWORD PTR __Left_size$[ebp]
  000a9	73 08		 jae	 SHORT $LN35@compare
  000ab	8d 45 f4	 lea	 eax, DWORD PTR __Right_size$[ebp]
  000ae	89 45 d0	 mov	 DWORD PTR tv146[ebp], eax
  000b1	eb 06		 jmp	 SHORT $LN36@compare
$LN35@compare:
  000b3	8d 45 f8	 lea	 eax, DWORD PTR __Left_size$[ebp]
  000b6	89 45 d0	 mov	 DWORD PTR tv146[ebp], eax
$LN36@compare:
  000b9	8b 45 d0	 mov	 eax, DWORD PTR tv146[ebp]
  000bc	89 45 c0	 mov	 DWORD PTR $T4[ebp], eax
  000bf	8b 45 c0	 mov	 eax, DWORD PTR $T4[ebp]
  000c2	89 45 bc	 mov	 DWORD PTR $T3[ebp], eax
; File C:\Program Files (x86)\Microsoft Visual Studio\2019\Community\VC\Tools\MSVC\14.28.29333\include\xstring

; 568  :     const int _Ans = _Traits::compare(_Left, _Right, (_STD min)(_Left_size, _Right_size));

  000c5	8b 45 bc	 mov	 eax, DWORD PTR $T3[ebp]
  000c8	8b 00		 mov	 eax, DWORD PTR [eax]
  000ca	89 45 b8	 mov	 DWORD PTR __Count$[ebp], eax

; 369  :         return _CSTD memcmp(_First1, _First2, _Count);

  000cd	ff 75 b8	 push	 DWORD PTR __Count$[ebp]
  000d0	ff 75 b4	 push	 DWORD PTR $T2[ebp]
  000d3	ff 75 b0	 push	 DWORD PTR $T1[ebp]
  000d6	e8 00 00 00 00	 call	 _memcmp
  000db	83 c4 0c	 add	 esp, 12			; 0000000cH
  000de	89 45 cc	 mov	 DWORD PTR __Ans$5[ebp], eax

; 570  :     if (_Ans != 0) {

  000e1	83 7d cc 00	 cmp	 DWORD PTR __Ans$5[ebp], 0
  000e5	74 08		 je	 SHORT $LN28@compare

; 571  :         return _Ans;

  000e7	8b 45 cc	 mov	 eax, DWORD PTR __Ans$5[ebp]
  000ea	89 45 f0	 mov	 DWORD PTR $T8[ebp], eax
  000ed	eb 23		 jmp	 SHORT $LN31@compare
$LN28@compare:

; 572  :     }
; 573  : 
; 574  :     if (_Left_size < _Right_size) {

  000ef	8b 45 f8	 mov	 eax, DWORD PTR __Left_size$[ebp]
  000f2	3b 45 f4	 cmp	 eax, DWORD PTR __Right_size$[ebp]
  000f5	73 06		 jae	 SHORT $LN29@compare

; 575  :         return -1;

  000f7	83 4d f0 ff	 or	 DWORD PTR $T8[ebp], -1
  000fb	eb 15		 jmp	 SHORT $LN31@compare
$LN29@compare:

; 576  :     }
; 577  : 
; 578  :     if (_Left_size > _Right_size) {

  000fd	8b 45 f8	 mov	 eax, DWORD PTR __Left_size$[ebp]
  00100	3b 45 f4	 cmp	 eax, DWORD PTR __Right_size$[ebp]
  00103	76 09		 jbe	 SHORT $LN30@compare

; 579  :         return 1;

  00105	c7 45 f0 01 00
	00 00		 mov	 DWORD PTR $T8[ebp], 1
  0010c	eb 04		 jmp	 SHORT $LN31@compare
$LN30@compare:

; 580  :     }
; 581  : 
; 582  :     return 0;

  0010e	83 65 f0 00	 and	 DWORD PTR $T8[ebp], 0
$LN31@compare:

; 4213 :         return _Traits_compare<_Traits>(_Mypair._Myval2._Myptr(), _Mypair._Myval2._Mysize,

  00112	8b 45 f0	 mov	 eax, DWORD PTR $T8[ebp]

; 4214 :             _Right._Mypair._Myval2._Myptr(), _Right._Mypair._Myval2._Mysize);
; 4215 :     }

  00115	c9		 leave
  00116	c2 04 00	 ret	 4
?compare@?$basic_string@DU?$char_traits@D@std@@V?$allocator@D@2@@std@@QBEHABV12@@Z ENDP ; std::basic_string<char,std::char_traits<char>,std::allocator<char> >::compare
_TEXT	ENDS
; Function compile flags: /Odspy
; File C:\Program Files (x86)\Microsoft Visual Studio\2019\Community\VC\Tools\MSVC\14.28.29333\include\xstring
; File C:\Program Files (x86)\Microsoft Visual Studio\2019\Community\VC\Tools\MSVC\14.28.29333\include\xstddef
; File C:\Program Files (x86)\Microsoft Visual Studio\2019\Community\VC\Tools\MSVC\14.28.29333\include\xstring
;	COMDAT ?_Equal@?$basic_string@DU?$char_traits@D@std@@V?$allocator@D@2@@std@@QBE_NQBD@Z
_TEXT	SEGMENT
$T1 = -44						; size = 4
$T2 = -40						; size = 4
$T3 = -36						; size = 4
__Ptr$ = -32						; size = 4
tv95 = -28						; size = 4
__Left_size$ = -24					; size = 4
_this$ = -20						; size = 4
__Result$4 = -16					; size = 4
tv91 = -12						; size = 4
_this$ = -8						; size = 4
$T5 = -2						; size = 1
$T6 = -1						; size = 1
__Ptr$ = 8						; size = 4
?_Equal@?$basic_string@DU?$char_traits@D@std@@V?$allocator@D@2@@std@@QBE_NQBD@Z PROC ; std::basic_string<char,std::char_traits<char>,std::allocator<char> >::_Equal, COMDAT
; _this$ = ecx

; 4179 :     bool _Equal(_In_z_ const _Elem* const _Ptr) const noexcept { // compare [0, size()) with _Ptr for equality

  00000	55		 push	 ebp
  00001	8b ec		 mov	 ebp, esp
  00003	83 ec 2c	 sub	 esp, 44			; 0000002cH
  00006	89 4d ec	 mov	 DWORD PTR _this$[ebp], ecx

; 389  :         return _CSTD strlen(reinterpret_cast<const char*>(_First));

  00009	ff 75 08	 push	 DWORD PTR __Ptr$[ebp]
  0000c	e8 00 00 00 00	 call	 _strlen
  00011	59		 pop	 ecx
  00012	89 45 dc	 mov	 DWORD PTR $T3[ebp], eax

; 4180 :         return _Traits_equal<_Traits>(_Mypair._Myval2._Myptr(), _Mypair._Myval2._Mysize, _Ptr, _Traits::length(_Ptr));

  00015	8b 45 ec	 mov	 eax, DWORD PTR _this$[ebp]
  00018	89 45 f8	 mov	 DWORD PTR _this$[ebp], eax

; 2218 :         const value_type* _Result = _Bx._Buf;

  0001b	8b 45 f8	 mov	 eax, DWORD PTR _this$[ebp]
  0001e	89 45 f0	 mov	 DWORD PTR __Result$4[ebp], eax

; 2227 :         return _BUF_SIZE <= _Myres;

  00021	8b 45 f8	 mov	 eax, DWORD PTR _this$[ebp]
  00024	83 78 14 10	 cmp	 DWORD PTR [eax+20], 16	; 00000010H
  00028	72 09		 jb	 SHORT $LN12@Equal
  0002a	c7 45 f4 01 00
	00 00		 mov	 DWORD PTR tv91[ebp], 1
  00031	eb 04		 jmp	 SHORT $LN13@Equal
$LN12@Equal:
  00033	83 65 f4 00	 and	 DWORD PTR tv91[ebp], 0
$LN13@Equal:
  00037	8a 45 f4	 mov	 al, BYTE PTR tv91[ebp]
  0003a	88 45 ff	 mov	 BYTE PTR $T6[ebp], al

; 2219 :         if (_Large_string_engaged()) {

  0003d	0f b6 45 ff	 movzx	 eax, BYTE PTR $T6[ebp]
  00041	85 c0		 test	 eax, eax
  00043	74 0e		 je	 SHORT $LN7@Equal

; 2220 :             _Result = _Unfancy(_Bx._Ptr);

  00045	8b 45 f8	 mov	 eax, DWORD PTR _this$[ebp]
  00048	8b 00		 mov	 eax, DWORD PTR [eax]
  0004a	89 45 e0	 mov	 DWORD PTR __Ptr$[ebp], eax
; File C:\Program Files (x86)\Microsoft Visual Studio\2019\Community\VC\Tools\MSVC\14.28.29333\include\xstddef

; 289  :     return _Ptr;

  0004d	8b 45 e0	 mov	 eax, DWORD PTR __Ptr$[ebp]
  00050	89 45 f0	 mov	 DWORD PTR __Result$4[ebp], eax
$LN7@Equal:
; File C:\Program Files (x86)\Microsoft Visual Studio\2019\Community\VC\Tools\MSVC\14.28.29333\include\xstring

; 2223 :         return _Result;

  00053	8b 45 f0	 mov	 eax, DWORD PTR __Result$4[ebp]
  00056	89 45 d8	 mov	 DWORD PTR $T2[ebp], eax

; 4180 :         return _Traits_equal<_Traits>(_Mypair._Myval2._Myptr(), _Mypair._Myval2._Mysize, _Ptr, _Traits::length(_Ptr));

  00059	8b 45 ec	 mov	 eax, DWORD PTR _this$[ebp]
  0005c	8b 40 10	 mov	 eax, DWORD PTR [eax+16]
  0005f	89 45 e8	 mov	 DWORD PTR __Left_size$[ebp], eax

; 561  :     return _Left_size == _Right_size && _Traits::compare(_Left, _Right, _Left_size) == 0;

  00062	8b 45 e8	 mov	 eax, DWORD PTR __Left_size$[ebp]
  00065	3b 45 dc	 cmp	 eax, DWORD PTR $T3[ebp]
  00068	75 23		 jne	 SHORT $LN20@Equal

; 369  :         return _CSTD memcmp(_First1, _First2, _Count);

  0006a	ff 75 e8	 push	 DWORD PTR __Left_size$[ebp]
  0006d	ff 75 08	 push	 DWORD PTR __Ptr$[ebp]
  00070	ff 75 d8	 push	 DWORD PTR $T2[ebp]
  00073	e8 00 00 00 00	 call	 _memcmp
  00078	83 c4 0c	 add	 esp, 12			; 0000000cH
  0007b	89 45 d4	 mov	 DWORD PTR $T1[ebp], eax

; 561  :     return _Left_size == _Right_size && _Traits::compare(_Left, _Right, _Left_size) == 0;

  0007e	83 7d d4 00	 cmp	 DWORD PTR $T1[ebp], 0
  00082	75 09		 jne	 SHORT $LN20@Equal
  00084	c7 45 e4 01 00
	00 00		 mov	 DWORD PTR tv95[ebp], 1
  0008b	eb 04		 jmp	 SHORT $LN21@Equal
$LN20@Equal:
  0008d	83 65 e4 00	 and	 DWORD PTR tv95[ebp], 0
$LN21@Equal:
  00091	8a 45 e4	 mov	 al, BYTE PTR tv95[ebp]
  00094	88 45 fe	 mov	 BYTE PTR $T5[ebp], al

; 4180 :         return _Traits_equal<_Traits>(_Mypair._Myval2._Myptr(), _Mypair._Myval2._Mysize, _Ptr, _Traits::length(_Ptr));

  00097	8a 45 fe	 mov	 al, BYTE PTR $T5[ebp]

; 4181 :     }

  0009a	c9		 leave
  0009b	c2 04 00	 ret	 4
?_Equal@?$basic_string@DU?$char_traits@D@std@@V?$allocator@D@2@@std@@QBE_NQBD@Z ENDP ; std::basic_string<char,std::char_traits<char>,std::allocator<char> >::_Equal
_TEXT	ENDS
; Function compile flags: /Odspy
; File C:\Program Files (x86)\Microsoft Visual Studio\2019\Community\VC\Tools\MSVC\14.28.29333\include\xstring
; File C:\Program Files (x86)\Microsoft Visual Studio\2019\Community\VC\Tools\MSVC\14.28.29333\include\xmemory
; File C:\Program Files (x86)\Microsoft Visual Studio\2019\Community\VC\Tools\MSVC\14.28.29333\include\xstring
; File C:\Program Files (x86)\Microsoft Visual Studio\2019\Community\VC\Tools\MSVC\14.28.29333\include\xmemory
; File C:\Program Files (x86)\Microsoft Visual Studio\2019\Community\VC\Tools\MSVC\14.28.29333\include\xstring
; File C:\Program Files (x86)\Microsoft Visual Studio\2019\Community\VC\Tools\MSVC\14.28.29333\include\utility
; File C:\Program Files (x86)\Microsoft Visual Studio\2019\Community\VC\Tools\MSVC\14.28.29333\include\xstring
; File C:\Program Files (x86)\Microsoft Visual Studio\2019\Community\VC\Tools\MSVC\14.28.29333\include\limits
; File C:\Program Files (x86)\Microsoft Visual Studio\2019\Community\VC\Tools\MSVC\14.28.29333\include\xstring
; File C:\Program Files (x86)\Microsoft Visual Studio\2019\Community\VC\Tools\MSVC\14.28.29333\include\utility
; File C:\Program Files (x86)\Microsoft Visual Studio\2019\Community\VC\Tools\MSVC\14.28.29333\include\xstring
;	COMDAT ?max_size@?$basic_string@DU?$char_traits@D@std@@V?$allocator@D@2@@std@@QBEIXZ
_TEXT	SEGMENT
$T1 = -60						; size = 4
$T2 = -56						; size = 4
$T3 = -52						; size = 4
$T4 = -48						; size = 4
__Storage_max$ = -44					; size = 4
$T5 = -40						; size = 4
$T6 = -36						; size = 4
$T7 = -32						; size = 4
_this$ = -28						; size = 4
tv70 = -24						; size = 4
$T8 = -20						; size = 4
$T9 = -16						; size = 4
tv67 = -12						; size = 4
__Alloc_max$ = -8					; size = 4
$T10 = -4						; size = 4
?max_size@?$basic_string@DU?$char_traits@D@std@@V?$allocator@D@2@@std@@QBEIXZ PROC ; std::basic_string<char,std::char_traits<char>,std::allocator<char> >::max_size, COMDAT
; _this$ = ecx

; 3773 :     _NODISCARD size_type max_size() const noexcept {

  00000	55		 push	 ebp
  00001	8b ec		 mov	 ebp, esp
  00003	83 ec 3c	 sub	 esp, 60			; 0000003cH
  00006	89 4d e4	 mov	 DWORD PTR _this$[ebp], ecx

; 4413 :         return _Mypair._Get_first();

  00009	8b 45 e4	 mov	 eax, DWORD PTR _this$[ebp]
; File C:\Program Files (x86)\Microsoft Visual Studio\2019\Community\VC\Tools\MSVC\14.28.29333\include\xmemory

; 1351 :         return *this;

  0000c	89 45 e0	 mov	 DWORD PTR $T7[ebp], eax
; File C:\Program Files (x86)\Microsoft Visual Studio\2019\Community\VC\Tools\MSVC\14.28.29333\include\xstring

; 4413 :         return _Mypair._Get_first();

  0000f	8b 45 e0	 mov	 eax, DWORD PTR $T7[ebp]
  00012	89 45 c4	 mov	 DWORD PTR $T1[ebp], eax
; File C:\Program Files (x86)\Microsoft Visual Studio\2019\Community\VC\Tools\MSVC\14.28.29333\include\xmemory

; 710  :         return static_cast<size_t>(-1) / sizeof(value_type);

  00015	83 4d f8 ff	 or	 DWORD PTR __Alloc_max$[ebp], -1
; File C:\Program Files (x86)\Microsoft Visual Studio\2019\Community\VC\Tools\MSVC\14.28.29333\include\xstring

; 3775 :         const size_type _Storage_max = // can always store small string

  00019	c7 45 fc 10 00
	00 00		 mov	 DWORD PTR $T10[ebp], 16	; 00000010H
; File C:\Program Files (x86)\Microsoft Visual Studio\2019\Community\VC\Tools\MSVC\14.28.29333\include\utility

; 44   :     return _Left < _Right ? _Right : _Left;

  00020	8b 45 f8	 mov	 eax, DWORD PTR __Alloc_max$[ebp]
  00023	3b 45 fc	 cmp	 eax, DWORD PTR $T10[ebp]
  00026	73 08		 jae	 SHORT $LN14@max_size
  00028	8d 45 fc	 lea	 eax, DWORD PTR $T10[ebp]
  0002b	89 45 f4	 mov	 DWORD PTR tv67[ebp], eax
  0002e	eb 06		 jmp	 SHORT $LN15@max_size
$LN14@max_size:
  00030	8d 45 f8	 lea	 eax, DWORD PTR __Alloc_max$[ebp]
  00033	89 45 f4	 mov	 DWORD PTR tv67[ebp], eax
$LN15@max_size:
  00036	8b 45 f4	 mov	 eax, DWORD PTR tv67[ebp]
  00039	89 45 dc	 mov	 DWORD PTR $T6[ebp], eax
  0003c	8b 45 dc	 mov	 eax, DWORD PTR $T6[ebp]
  0003f	89 45 d8	 mov	 DWORD PTR $T5[ebp], eax
; File C:\Program Files (x86)\Microsoft Visual Studio\2019\Community\VC\Tools\MSVC\14.28.29333\include\xstring

; 3775 :         const size_type _Storage_max = // can always store small string

  00042	8b 45 d8	 mov	 eax, DWORD PTR $T5[ebp]
  00045	8b 00		 mov	 eax, DWORD PTR [eax]
  00047	89 45 d4	 mov	 DWORD PTR __Storage_max$[ebp], eax

; 3777 :         return (_STD min)(static_cast<size_type>((numeric_limits<difference_type>::max)()),

  0004a	8b 45 d4	 mov	 eax, DWORD PTR __Storage_max$[ebp]
  0004d	48		 dec	 eax
  0004e	89 45 f0	 mov	 DWORD PTR $T9[ebp], eax
; File C:\Program Files (x86)\Microsoft Visual Studio\2019\Community\VC\Tools\MSVC\14.28.29333\include\limits

; 557  :         return INT_MAX;

  00051	c7 45 d0 ff ff
	ff 7f		 mov	 DWORD PTR $T4[ebp], 2147483647 ; 7fffffffH
; File C:\Program Files (x86)\Microsoft Visual Studio\2019\Community\VC\Tools\MSVC\14.28.29333\include\xstring

; 3777 :         return (_STD min)(static_cast<size_type>((numeric_limits<difference_type>::max)()),

  00058	8b 45 d0	 mov	 eax, DWORD PTR $T4[ebp]
  0005b	89 45 ec	 mov	 DWORD PTR $T8[ebp], eax
; File C:\Program Files (x86)\Microsoft Visual Studio\2019\Community\VC\Tools\MSVC\14.28.29333\include\utility

; 68   :     return _Right < _Left ? _Right : _Left;

  0005e	8b 45 f0	 mov	 eax, DWORD PTR $T9[ebp]
  00061	3b 45 ec	 cmp	 eax, DWORD PTR $T8[ebp]
  00064	73 08		 jae	 SHORT $LN22@max_size
  00066	8d 45 f0	 lea	 eax, DWORD PTR $T9[ebp]
  00069	89 45 e8	 mov	 DWORD PTR tv70[ebp], eax
  0006c	eb 06		 jmp	 SHORT $LN23@max_size
$LN22@max_size:
  0006e	8d 45 ec	 lea	 eax, DWORD PTR $T8[ebp]
  00071	89 45 e8	 mov	 DWORD PTR tv70[ebp], eax
$LN23@max_size:
  00074	8b 45 e8	 mov	 eax, DWORD PTR tv70[ebp]
  00077	89 45 cc	 mov	 DWORD PTR $T3[ebp], eax
  0007a	8b 45 cc	 mov	 eax, DWORD PTR $T3[ebp]
  0007d	89 45 c8	 mov	 DWORD PTR $T2[ebp], eax
; File C:\Program Files (x86)\Microsoft Visual Studio\2019\Community\VC\Tools\MSVC\14.28.29333\include\xstring

; 3777 :         return (_STD min)(static_cast<size_type>((numeric_limits<difference_type>::max)()),

  00080	8b 45 c8	 mov	 eax, DWORD PTR $T2[ebp]
  00083	8b 00		 mov	 eax, DWORD PTR [eax]

; 3778 :             _Storage_max - 1 // -1 is for null terminator and/or npos
; 3779 :         );
; 3780 :     }

  00085	c9		 leave
  00086	c3		 ret	 0
?max_size@?$basic_string@DU?$char_traits@D@std@@V?$allocator@D@2@@std@@QBEIXZ ENDP ; std::basic_string<char,std::char_traits<char>,std::allocator<char> >::max_size
_TEXT	ENDS
; Function compile flags: /Odspy
; File C:\Program Files (x86)\Microsoft Visual Studio\2019\Community\VC\Tools\MSVC\14.28.29333\include\xstring
; File C:\Program Files (x86)\Microsoft Visual Studio\2019\Community\VC\Tools\MSVC\14.28.29333\include\xstddef
; File C:\Program Files (x86)\Microsoft Visual Studio\2019\Community\VC\Tools\MSVC\14.28.29333\include\xstring
;	COMDAT ?c_str@?$basic_string@DU?$char_traits@D@std@@V?$allocator@D@2@@std@@QBEPBDXZ
_TEXT	SEGMENT
$T1 = -28						; size = 4
__Ptr$ = -24						; size = 4
_this$ = -20						; size = 4
__Result$2 = -16					; size = 4
tv80 = -12						; size = 4
_this$ = -8						; size = 4
$T3 = -1						; size = 1
?c_str@?$basic_string@DU?$char_traits@D@std@@V?$allocator@D@2@@std@@QBEPBDXZ PROC ; std::basic_string<char,std::char_traits<char>,std::allocator<char> >::c_str, COMDAT
; _this$ = ecx

; 3751 :     _NODISCARD _Ret_z_ const _Elem* c_str() const noexcept {

  00000	55		 push	 ebp
  00001	8b ec		 mov	 ebp, esp
  00003	83 ec 1c	 sub	 esp, 28			; 0000001cH
  00006	89 4d ec	 mov	 DWORD PTR _this$[ebp], ecx

; 3752 :         return _Mypair._Myval2._Myptr();

  00009	8b 45 ec	 mov	 eax, DWORD PTR _this$[ebp]
  0000c	89 45 f8	 mov	 DWORD PTR _this$[ebp], eax

; 2218 :         const value_type* _Result = _Bx._Buf;

  0000f	8b 45 f8	 mov	 eax, DWORD PTR _this$[ebp]
  00012	89 45 f0	 mov	 DWORD PTR __Result$2[ebp], eax

; 2227 :         return _BUF_SIZE <= _Myres;

  00015	8b 45 f8	 mov	 eax, DWORD PTR _this$[ebp]
  00018	83 78 14 10	 cmp	 DWORD PTR [eax+20], 16	; 00000010H
  0001c	72 09		 jb	 SHORT $LN9@c_str
  0001e	c7 45 f4 01 00
	00 00		 mov	 DWORD PTR tv80[ebp], 1
  00025	eb 04		 jmp	 SHORT $LN10@c_str
$LN9@c_str:
  00027	83 65 f4 00	 and	 DWORD PTR tv80[ebp], 0
$LN10@c_str:
  0002b	8a 45 f4	 mov	 al, BYTE PTR tv80[ebp]
  0002e	88 45 ff	 mov	 BYTE PTR $T3[ebp], al

; 2219 :         if (_Large_string_engaged()) {

  00031	0f b6 45 ff	 movzx	 eax, BYTE PTR $T3[ebp]
  00035	85 c0		 test	 eax, eax
  00037	74 0e		 je	 SHORT $LN4@c_str

; 2220 :             _Result = _Unfancy(_Bx._Ptr);

  00039	8b 45 f8	 mov	 eax, DWORD PTR _this$[ebp]
  0003c	8b 00		 mov	 eax, DWORD PTR [eax]
  0003e	89 45 e8	 mov	 DWORD PTR __Ptr$[ebp], eax
; File C:\Program Files (x86)\Microsoft Visual Studio\2019\Community\VC\Tools\MSVC\14.28.29333\include\xstddef

; 289  :     return _Ptr;

  00041	8b 45 e8	 mov	 eax, DWORD PTR __Ptr$[ebp]
  00044	89 45 f0	 mov	 DWORD PTR __Result$2[ebp], eax
$LN4@c_str:
; File C:\Program Files (x86)\Microsoft Visual Studio\2019\Community\VC\Tools\MSVC\14.28.29333\include\xstring

; 2223 :         return _Result;

  00047	8b 45 f0	 mov	 eax, DWORD PTR __Result$2[ebp]
  0004a	89 45 e4	 mov	 DWORD PTR $T1[ebp], eax

; 3752 :         return _Mypair._Myval2._Myptr();

  0004d	8b 45 e4	 mov	 eax, DWORD PTR $T1[ebp]

; 3753 :     }

  00050	c9		 leave
  00051	c3		 ret	 0
?c_str@?$basic_string@DU?$char_traits@D@std@@V?$allocator@D@2@@std@@QBEPBDXZ ENDP ; std::basic_string<char,std::char_traits<char>,std::allocator<char> >::c_str
_TEXT	ENDS
; Function compile flags: /Odspy
; File C:\Program Files (x86)\Microsoft Visual Studio\2019\Community\VC\Tools\MSVC\14.28.29333\include\xstring
;	COMDAT ?assign@?$basic_string@DU?$char_traits@D@std@@V?$allocator@D@2@@std@@QAEAAV12@QBDI@Z
_TEXT	SEGMENT
$T1 = -16						; size = 1
__Old_ptr$2 = -12					; size = 4
_this$ = -8						; size = 4
$T3 = -1						; size = 1
__Ptr$ = 8						; size = 4
__Count$ = 12						; size = 4
?assign@?$basic_string@DU?$char_traits@D@std@@V?$allocator@D@2@@std@@QAEAAV12@QBDI@Z PROC ; std::basic_string<char,std::char_traits<char>,std::allocator<char> >::assign, COMDAT
; _this$ = ecx

; 3042 :     basic_string& assign(_In_reads_(_Count) const _Elem* const _Ptr, _CRT_GUARDOVERFLOW const size_type _Count) {

  00000	55		 push	 ebp
  00001	8b ec		 mov	 ebp, esp
  00003	83 ec 10	 sub	 esp, 16			; 00000010H
  00006	89 4d f8	 mov	 DWORD PTR _this$[ebp], ecx

; 3043 :         // assign [_Ptr, _Ptr + _Count)
; 3044 :         if (_Count <= _Mypair._Myval2._Myres) {

  00009	8b 45 f8	 mov	 eax, DWORD PTR _this$[ebp]
  0000c	8b 4d 0c	 mov	 ecx, DWORD PTR __Count$[ebp]
  0000f	3b 48 14	 cmp	 ecx, DWORD PTR [eax+20]
  00012	77 39		 ja	 SHORT $LN2@assign

; 3045 :             _Elem* const _Old_ptr   = _Mypair._Myval2._Myptr();

  00014	8b 4d f8	 mov	 ecx, DWORD PTR _this$[ebp]
  00017	e8 00 00 00 00	 call	 ?_Myptr@?$_String_val@U?$_Simple_types@D@std@@@std@@QAEPADXZ ; std::_String_val<std::_Simple_types<char> >::_Myptr
  0001c	89 45 f4	 mov	 DWORD PTR __Old_ptr$2[ebp], eax

; 3046 :             _Mypair._Myval2._Mysize = _Count;

  0001f	8b 45 f8	 mov	 eax, DWORD PTR _this$[ebp]
  00022	8b 4d 0c	 mov	 ecx, DWORD PTR __Count$[ebp]
  00025	89 48 10	 mov	 DWORD PTR [eax+16], ecx

; 119  :         _CSTD memmove(_First1, _First2, _Count * sizeof(_Elem));

  00028	ff 75 0c	 push	 DWORD PTR __Count$[ebp]
  0002b	ff 75 08	 push	 DWORD PTR __Ptr$[ebp]
  0002e	ff 75 f4	 push	 DWORD PTR __Old_ptr$2[ebp]
  00031	e8 00 00 00 00	 call	 _memmove
  00036	83 c4 0c	 add	 esp, 12			; 0000000cH

; 3047 :             _Traits::move(_Old_ptr, _Ptr, _Count);
; 3048 :             _Traits::assign(_Old_ptr[_Count], _Elem());

  00039	c6 45 ff 00	 mov	 BYTE PTR $T3[ebp], 0

; 428  :         _Left = _Right;

  0003d	8b 45 f4	 mov	 eax, DWORD PTR __Old_ptr$2[ebp]
  00040	03 45 0c	 add	 eax, DWORD PTR __Count$[ebp]
  00043	8a 4d ff	 mov	 cl, BYTE PTR $T3[ebp]
  00046	88 08		 mov	 BYTE PTR [eax], cl

; 3049 :             return *this;

  00048	8b 45 f8	 mov	 eax, DWORD PTR _this$[ebp]
  0004b	eb 16		 jmp	 SHORT $LN1@assign
$LN2@assign:

; 3050 :         }
; 3051 : 
; 3052 :         return _Reallocate_for(

  0004d	33 c0		 xor	 eax, eax
  0004f	88 45 f0	 mov	 BYTE PTR $T1[ebp], al
  00052	ff 75 08	 push	 DWORD PTR __Ptr$[ebp]
  00055	ff 75 f0	 push	 DWORD PTR $T1[ebp]
  00058	ff 75 0c	 push	 DWORD PTR __Count$[ebp]
  0005b	8b 4d f8	 mov	 ecx, DWORD PTR _this$[ebp]
  0005e	e8 00 00 00 00	 call	 ??$_Reallocate_for@V<lambda_9366063389c5f42a00a5088cf24e69de>@@PBD@?$basic_string@DU?$char_traits@D@std@@V?$allocator@D@2@@std@@AAEAAV01@IV<lambda_9366063389c5f42a00a5088cf24e69de>@@PBD@Z ; std::basic_string<char,std::char_traits<char>,std::allocator<char> >::_Reallocate_for<<lambda_9366063389c5f42a00a5088cf24e69de>,char const *>
$LN1@assign:

; 3053 :             _Count,
; 3054 :             [](_Elem* const _New_ptr, const size_type _Count, const _Elem* const _Ptr) {
; 3055 :                 _Traits::copy(_New_ptr, _Ptr, _Count);
; 3056 :                 _Traits::assign(_New_ptr[_Count], _Elem());
; 3057 :             },
; 3058 :             _Ptr);
; 3059 :     }

  00063	c9		 leave
  00064	c2 08 00	 ret	 8
?assign@?$basic_string@DU?$char_traits@D@std@@V?$allocator@D@2@@std@@QAEAAV12@QBDI@Z ENDP ; std::basic_string<char,std::char_traits<char>,std::allocator<char> >::assign
_TEXT	ENDS
; Function compile flags: /Odspy
; File C:\Program Files (x86)\Microsoft Visual Studio\2019\Community\VC\Tools\MSVC\14.28.29333\include\xstring
; File C:\Program Files (x86)\Microsoft Visual Studio\2019\Community\VC\Tools\MSVC\14.28.29333\include\xmemory
; File C:\Program Files (x86)\Microsoft Visual Studio\2019\Community\VC\Tools\MSVC\14.28.29333\include\xstring
; File C:\Program Files (x86)\Microsoft Visual Studio\2019\Community\VC\Tools\MSVC\14.28.29333\include\xmemory
; File C:\Program Files (x86)\Microsoft Visual Studio\2019\Community\VC\Tools\MSVC\14.28.29333\include\xstring
; File C:\Program Files (x86)\Microsoft Visual Studio\2019\Community\VC\Tools\MSVC\14.28.29333\include\xstddef
; File C:\Program Files (x86)\Microsoft Visual Studio\2019\Community\VC\Tools\MSVC\14.28.29333\include\xstring
;	COMDAT ?_Copy_assign@?$basic_string@DU?$char_traits@D@std@@V?$allocator@D@2@@std@@AAEXABV12@U?$integral_constant@_N$0A@@2@@Z
_TEXT	SEGMENT
$T1 = -44						; size = 4
__Ptr$ = -40						; size = 4
$T2 = -36						; size = 4
$T3 = -32						; size = 4
$T4 = -28						; size = 4
$T5 = -24						; size = 4
_this$ = -20						; size = 4
__Result$6 = -16					; size = 4
tv134 = -12						; size = 4
_this$ = -8						; size = 4
$T7 = -1						; size = 1
__Right$ = 8						; size = 4
___formal$ = 12						; size = 1
?_Copy_assign@?$basic_string@DU?$char_traits@D@std@@V?$allocator@D@2@@std@@AAEXABV12@U?$integral_constant@_N$0A@@2@@Z PROC ; std::basic_string<char,std::char_traits<char>,std::allocator<char> >::_Copy_assign, COMDAT
; _this$ = ecx

; 2826 :     void _Copy_assign(const basic_string& _Right, false_type) {

  00000	55		 push	 ebp
  00001	8b ec		 mov	 ebp, esp
  00003	83 ec 2c	 sub	 esp, 44			; 0000002cH
  00006	89 4d ec	 mov	 DWORD PTR _this$[ebp], ecx

; 4413 :         return _Mypair._Get_first();

  00009	8b 45 08	 mov	 eax, DWORD PTR __Right$[ebp]
; File C:\Program Files (x86)\Microsoft Visual Studio\2019\Community\VC\Tools\MSVC\14.28.29333\include\xmemory

; 1351 :         return *this;

  0000c	89 45 e8	 mov	 DWORD PTR $T5[ebp], eax
; File C:\Program Files (x86)\Microsoft Visual Studio\2019\Community\VC\Tools\MSVC\14.28.29333\include\xstring

; 4413 :         return _Mypair._Get_first();

  0000f	8b 45 e8	 mov	 eax, DWORD PTR $T5[ebp]
  00012	89 45 e0	 mov	 DWORD PTR $T3[ebp], eax

; 4409 :         return _Mypair._Get_first();

  00015	8b 45 ec	 mov	 eax, DWORD PTR _this$[ebp]
; File C:\Program Files (x86)\Microsoft Visual Studio\2019\Community\VC\Tools\MSVC\14.28.29333\include\xmemory

; 1347 :         return *this;

  00018	89 45 e4	 mov	 DWORD PTR $T4[ebp], eax
; File C:\Program Files (x86)\Microsoft Visual Studio\2019\Community\VC\Tools\MSVC\14.28.29333\include\xstring

; 4409 :         return _Mypair._Get_first();

  0001b	8b 45 e4	 mov	 eax, DWORD PTR $T4[ebp]
  0001e	89 45 dc	 mov	 DWORD PTR $T2[ebp], eax

; 2827 :         _Pocca(_Getal(), _Right._Getal());

  00021	ff 75 e0	 push	 DWORD PTR $T3[ebp]
  00024	ff 75 dc	 push	 DWORD PTR $T2[ebp]
  00027	e8 00 00 00 00	 call	 ??$_Pocca@V?$allocator@D@std@@@std@@YAXAAV?$allocator@D@0@ABV10@@Z ; std::_Pocca<std::allocator<char> >
  0002c	59		 pop	 ecx
  0002d	59		 pop	 ecx

; 2828 :         assign(_Right._Mypair._Myval2._Myptr(), _Right._Mypair._Myval2._Mysize);

  0002e	8b 45 08	 mov	 eax, DWORD PTR __Right$[ebp]
  00031	89 45 f8	 mov	 DWORD PTR _this$[ebp], eax

; 2218 :         const value_type* _Result = _Bx._Buf;

  00034	8b 45 f8	 mov	 eax, DWORD PTR _this$[ebp]
  00037	89 45 f0	 mov	 DWORD PTR __Result$6[ebp], eax

; 2227 :         return _BUF_SIZE <= _Myres;

  0003a	8b 45 f8	 mov	 eax, DWORD PTR _this$[ebp]
  0003d	83 78 14 10	 cmp	 DWORD PTR [eax+20], 16	; 00000010H
  00041	72 09		 jb	 SHORT $LN21@Copy_assig
  00043	c7 45 f4 01 00
	00 00		 mov	 DWORD PTR tv134[ebp], 1
  0004a	eb 04		 jmp	 SHORT $LN22@Copy_assig
$LN21@Copy_assig:
  0004c	83 65 f4 00	 and	 DWORD PTR tv134[ebp], 0
$LN22@Copy_assig:
  00050	8a 45 f4	 mov	 al, BYTE PTR tv134[ebp]
  00053	88 45 ff	 mov	 BYTE PTR $T7[ebp], al

; 2219 :         if (_Large_string_engaged()) {

  00056	0f b6 45 ff	 movzx	 eax, BYTE PTR $T7[ebp]
  0005a	85 c0		 test	 eax, eax
  0005c	74 0e		 je	 SHORT $LN16@Copy_assig

; 2220 :             _Result = _Unfancy(_Bx._Ptr);

  0005e	8b 45 f8	 mov	 eax, DWORD PTR _this$[ebp]
  00061	8b 00		 mov	 eax, DWORD PTR [eax]
  00063	89 45 d8	 mov	 DWORD PTR __Ptr$[ebp], eax
; File C:\Program Files (x86)\Microsoft Visual Studio\2019\Community\VC\Tools\MSVC\14.28.29333\include\xstddef

; 289  :     return _Ptr;

  00066	8b 45 d8	 mov	 eax, DWORD PTR __Ptr$[ebp]
  00069	89 45 f0	 mov	 DWORD PTR __Result$6[ebp], eax
$LN16@Copy_assig:
; File C:\Program Files (x86)\Microsoft Visual Studio\2019\Community\VC\Tools\MSVC\14.28.29333\include\xstring

; 2223 :         return _Result;

  0006c	8b 45 f0	 mov	 eax, DWORD PTR __Result$6[ebp]
  0006f	89 45 d4	 mov	 DWORD PTR $T1[ebp], eax

; 2828 :         assign(_Right._Mypair._Myval2._Myptr(), _Right._Mypair._Myval2._Mysize);

  00072	8b 45 08	 mov	 eax, DWORD PTR __Right$[ebp]
  00075	ff 70 10	 push	 DWORD PTR [eax+16]
  00078	ff 75 d4	 push	 DWORD PTR $T1[ebp]
  0007b	8b 4d ec	 mov	 ecx, DWORD PTR _this$[ebp]
  0007e	e8 00 00 00 00	 call	 ?assign@?$basic_string@DU?$char_traits@D@std@@V?$allocator@D@2@@std@@QAEAAV12@QBDI@Z ; std::basic_string<char,std::char_traits<char>,std::allocator<char> >::assign

; 2829 :     }

  00083	c9		 leave
  00084	c2 08 00	 ret	 8
?_Copy_assign@?$basic_string@DU?$char_traits@D@std@@V?$allocator@D@2@@std@@AAEXABV12@U?$integral_constant@_N$0A@@2@@Z ENDP ; std::basic_string<char,std::char_traits<char>,std::allocator<char> >::_Copy_assign
_TEXT	ENDS
; Function compile flags: /Odspy
; File C:\Program Files (x86)\Microsoft Visual Studio\2019\Community\VC\Tools\MSVC\14.28.29333\include\xstring
;	COMDAT ??1?$basic_string@DU?$char_traits@D@std@@V?$allocator@D@2@@std@@QAE@XZ
_TEXT	SEGMENT
_this$ = -4						; size = 4
??1?$basic_string@DU?$char_traits@D@std@@V?$allocator@D@2@@std@@QAE@XZ PROC ; std::basic_string<char,std::char_traits<char>,std::allocator<char> >::~basic_string<char,std::char_traits<char>,std::allocator<char> >, COMDAT
; _this$ = ecx

; 2800 :     ~basic_string() noexcept {

  00000	55		 push	 ebp
  00001	8b ec		 mov	 ebp, esp
  00003	51		 push	 ecx
  00004	89 4d fc	 mov	 DWORD PTR _this$[ebp], ecx

; 2801 :         _Tidy_deallocate();

  00007	8b 4d fc	 mov	 ecx, DWORD PTR _this$[ebp]
  0000a	e8 00 00 00 00	 call	 ?_Tidy_deallocate@?$basic_string@DU?$char_traits@D@std@@V?$allocator@D@2@@std@@AAEXXZ ; std::basic_string<char,std::char_traits<char>,std::allocator<char> >::_Tidy_deallocate

; 2802 : #if _ITERATOR_DEBUG_LEVEL != 0
; 2803 :         auto&& _Alproxy          = _GET_PROXY_ALLOCATOR(_Alty, _Getal());
; 2804 :         const auto _To_delete    = _Mypair._Myval2._Myproxy;
; 2805 :         _Mypair._Myval2._Myproxy = nullptr;
; 2806 :         _Delete_plain_internal(_Alproxy, _To_delete);
; 2807 : #endif // _ITERATOR_DEBUG_LEVEL != 0
; 2808 :     }

  0000f	c9		 leave
  00010	c3		 ret	 0
??1?$basic_string@DU?$char_traits@D@std@@V?$allocator@D@2@@std@@QAE@XZ ENDP ; std::basic_string<char,std::char_traits<char>,std::allocator<char> >::~basic_string<char,std::char_traits<char>,std::allocator<char> >
_TEXT	ENDS
; Function compile flags: /Odspy
; File C:\Program Files (x86)\Microsoft Visual Studio\2019\Community\VC\Tools\MSVC\14.28.29333\include\xstring
; File C:\Program Files (x86)\Microsoft Visual Studio\2019\Community\VC\Tools\MSVC\14.28.29333\include\xmemory
; File C:\Program Files (x86)\Microsoft Visual Studio\2019\Community\VC\Tools\MSVC\14.28.29333\include\xstring
; File C:\Program Files (x86)\Microsoft Visual Studio\2019\Community\VC\Tools\MSVC\14.28.29333\include\type_traits
; File C:\Program Files (x86)\Microsoft Visual Studio\2019\Community\VC\Tools\MSVC\14.28.29333\include\xstring
; File C:\Program Files (x86)\Microsoft Visual Studio\2019\Community\VC\Tools\MSVC\14.28.29333\include\xmemory
; File C:\Program Files (x86)\Microsoft Visual Studio\2019\Community\VC\Tools\MSVC\14.28.29333\include\xstring
; File C:\Program Files (x86)\Microsoft Visual Studio\2019\Community\VC\Tools\MSVC\14.28.29333\include\xstddef
; File C:\Program Files (x86)\Microsoft Visual Studio\2019\Community\VC\Tools\MSVC\14.28.29333\include\xstring
; File C:\Program Files (x86)\Microsoft Visual Studio\2019\Community\VC\Tools\MSVC\14.28.29333\include\xstddef
; File C:\Program Files (x86)\Microsoft Visual Studio\2019\Community\VC\Tools\MSVC\14.28.29333\include\xstring
;	COMDAT ??0?$basic_string@DU?$char_traits@D@std@@V?$allocator@D@2@@std@@QAE@$$QAV01@@Z
_TEXT	SEGMENT
$T1 = -40						; size = 4
__My_data_mem$2 = -36					; size = 4
__Right_data_mem$3 = -32				; size = 4
_this$ = -28						; size = 4
$T4 = -24						; size = 4
$T5 = -20						; size = 4
_this$ = -16						; size = 4
_this$ = -12						; size = 4
___formal$ = -8						; size = 1
$T6 = -1						; size = 1
__Right$ = 8						; size = 4
??0?$basic_string@DU?$char_traits@D@std@@V?$allocator@D@2@@std@@QAE@$$QAV01@@Z PROC ; std::basic_string<char,std::char_traits<char>,std::allocator<char> >::basic_string<char,std::char_traits<char>,std::allocator<char> >, COMDAT
; _this$ = ecx

; 2496 :     basic_string(basic_string&& _Right) noexcept : _Mypair(_One_then_variadic_args_t{}, _STD move(_Right._Getal())) {

  00000	55		 push	 ebp
  00001	8b ec		 mov	 ebp, esp
  00003	83 ec 28	 sub	 esp, 40			; 00000028H
  00006	89 4d f4	 mov	 DWORD PTR _this$[ebp], ecx

; 4409 :         return _Mypair._Get_first();

  00009	8b 45 08	 mov	 eax, DWORD PTR __Right$[ebp]
; File C:\Program Files (x86)\Microsoft Visual Studio\2019\Community\VC\Tools\MSVC\14.28.29333\include\xmemory

; 1347 :         return *this;

  0000c	89 45 ec	 mov	 DWORD PTR $T5[ebp], eax
; File C:\Program Files (x86)\Microsoft Visual Studio\2019\Community\VC\Tools\MSVC\14.28.29333\include\xstring

; 4409 :         return _Mypair._Get_first();

  0000f	8b 45 ec	 mov	 eax, DWORD PTR $T5[ebp]
  00012	89 45 e8	 mov	 DWORD PTR $T4[ebp], eax
; File C:\Program Files (x86)\Microsoft Visual Studio\2019\Community\VC\Tools\MSVC\14.28.29333\include\type_traits

; 1455 :     return static_cast<remove_reference_t<_Ty>&&>(_Arg);

  00015	8b 45 e8	 mov	 eax, DWORD PTR $T4[ebp]
  00018	89 45 d8	 mov	 DWORD PTR $T1[ebp], eax
; File C:\Program Files (x86)\Microsoft Visual Studio\2019\Community\VC\Tools\MSVC\14.28.29333\include\xstring

; 2496 :     basic_string(basic_string&& _Right) noexcept : _Mypair(_One_then_variadic_args_t{}, _STD move(_Right._Getal())) {

  0001b	8b 45 f4	 mov	 eax, DWORD PTR _this$[ebp]
  0001e	89 45 e4	 mov	 DWORD PTR _this$[ebp], eax
; File C:\Program Files (x86)\Microsoft Visual Studio\2019\Community\VC\Tools\MSVC\14.28.29333\include\xmemory

; 1344 :         : _Ty1(_STD forward<_Other1>(_Val1)), _Myval2(_STD forward<_Other2>(_Val2)...) {}

  00021	8b 45 e4	 mov	 eax, DWORD PTR _this$[ebp]
  00024	89 45 f0	 mov	 DWORD PTR _this$[ebp], eax
; File C:\Program Files (x86)\Microsoft Visual Studio\2019\Community\VC\Tools\MSVC\14.28.29333\include\xstring

; 2198 :     _String_val() noexcept : _Bx(), _Mysize(0), _Myres(0) {}

  00027	8b 45 f0	 mov	 eax, DWORD PTR _this$[ebp]
  0002a	83 60 10 00	 and	 DWORD PTR [eax+16], 0
  0002e	8b 45 f0	 mov	 eax, DWORD PTR _this$[ebp]
  00031	83 60 14 00	 and	 DWORD PTR [eax+20], 0

; 2497 :         _Mypair._Myval2._Alloc_proxy(_GET_PROXY_ALLOCATOR(_Alty, _Getal()));
; 2498 :         _Take_contents(_Right, bool_constant<_Can_memcpy_val>{});

  00035	33 c0		 xor	 eax, eax
  00037	88 45 ff	 mov	 BYTE PTR $T6[ebp], al
  0003a	8a 45 ff	 mov	 al, BYTE PTR $T6[ebp]
  0003d	88 45 f8	 mov	 BYTE PTR ___formal$[ebp], al

; 2680 :         const auto _My_data_mem =

  00040	8b 45 f4	 mov	 eax, DWORD PTR _this$[ebp]
; File C:\Program Files (x86)\Microsoft Visual Studio\2019\Community\VC\Tools\MSVC\14.28.29333\include\xstddef

; 275  :     return __builtin_addressof(_Val);

  00043	89 45 dc	 mov	 DWORD PTR __My_data_mem$2[ebp], eax
; File C:\Program Files (x86)\Microsoft Visual Studio\2019\Community\VC\Tools\MSVC\14.28.29333\include\xstring

; 2682 :         const auto _Right_data_mem =

  00046	8b 45 08	 mov	 eax, DWORD PTR __Right$[ebp]
; File C:\Program Files (x86)\Microsoft Visual Studio\2019\Community\VC\Tools\MSVC\14.28.29333\include\xstddef

; 275  :     return __builtin_addressof(_Val);

  00049	89 45 e0	 mov	 DWORD PTR __Right_data_mem$3[ebp], eax
; File C:\Program Files (x86)\Microsoft Visual Studio\2019\Community\VC\Tools\MSVC\14.28.29333\include\xstring

; 2684 :         _CSTD memcpy(_My_data_mem, _Right_data_mem, _Memcpy_val_size);

  0004c	6a 18		 push	 24			; 00000018H
  0004e	ff 75 e0	 push	 DWORD PTR __Right_data_mem$3[ebp]
  00051	ff 75 dc	 push	 DWORD PTR __My_data_mem$2[ebp]
  00054	e8 00 00 00 00	 call	 _memcpy
  00059	83 c4 0c	 add	 esp, 12			; 0000000cH

; 2703 :         _Right._Tidy_init();

  0005c	8b 4d 08	 mov	 ecx, DWORD PTR __Right$[ebp]
  0005f	e8 00 00 00 00	 call	 ?_Tidy_init@?$basic_string@DU?$char_traits@D@std@@V?$allocator@D@2@@std@@AAEXXZ ; std::basic_string<char,std::char_traits<char>,std::allocator<char> >::_Tidy_init

; 2499 :     }

  00064	8b 45 f4	 mov	 eax, DWORD PTR _this$[ebp]
  00067	c9		 leave
  00068	c2 04 00	 ret	 4
??0?$basic_string@DU?$char_traits@D@std@@V?$allocator@D@2@@std@@QAE@$$QAV01@@Z ENDP ; std::basic_string<char,std::char_traits<char>,std::allocator<char> >::basic_string<char,std::char_traits<char>,std::allocator<char> >
_TEXT	ENDS
; Function compile flags: /Odspy
; File C:\Program Files (x86)\Microsoft Visual Studio\2019\Community\VC\Tools\MSVC\14.28.29333\include\xstring
; File C:\Program Files (x86)\Microsoft Visual Studio\2019\Community\VC\Tools\MSVC\14.28.29333\include\xmemory
; File C:\Program Files (x86)\Microsoft Visual Studio\2019\Community\VC\Tools\MSVC\14.28.29333\include\xstring
; File C:\Program Files (x86)\Microsoft Visual Studio\2019\Community\VC\Tools\MSVC\14.28.29333\include\xmemory
; File C:\Program Files (x86)\Microsoft Visual Studio\2019\Community\VC\Tools\MSVC\14.28.29333\include\xstring
;	COMDAT ??0?$basic_string@DU?$char_traits@D@std@@V?$allocator@D@2@@std@@QAE@QBD@Z
_TEXT	SEGMENT
__Alproxy$ = -40					; size = 4
$T2 = -36						; size = 4
$T3 = -32						; size = 4
_this$ = -28						; size = 4
_this$ = -24						; size = 4
_this$ = -20						; size = 4
_$S6$ = -13						; size = 1
__$EHRec$ = -12						; size = 12
__Ptr$ = 8						; size = 4
??0?$basic_string@DU?$char_traits@D@std@@V?$allocator@D@2@@std@@QAE@QBD@Z PROC ; std::basic_string<char,std::char_traits<char>,std::allocator<char> >::basic_string<char,std::char_traits<char>,std::allocator<char> >, COMDAT
; _this$ = ecx

; 2413 :     basic_string(_In_z_ const _Elem* const _Ptr) : _Mypair(_Zero_then_variadic_args_t{}) {

  00000	55		 push	 ebp
  00001	8b ec		 mov	 ebp, esp
  00003	6a ff		 push	 -1
  00005	68 00 00 00 00	 push	 __ehhandler$??0?$basic_string@DU?$char_traits@D@std@@V?$allocator@D@2@@std@@QAE@QBD@Z
  0000a	64 a1 00 00 00
	00		 mov	 eax, DWORD PTR fs:0
  00010	50		 push	 eax
  00011	83 ec 1c	 sub	 esp, 28			; 0000001cH
  00014	a1 00 00 00 00	 mov	 eax, DWORD PTR ___security_cookie
  00019	33 c5		 xor	 eax, ebp
  0001b	50		 push	 eax
  0001c	8d 45 f4	 lea	 eax, DWORD PTR __$EHRec$[ebp]
  0001f	64 a3 00 00 00
	00		 mov	 DWORD PTR fs:0, eax
  00025	89 4d ec	 mov	 DWORD PTR _this$[ebp], ecx
  00028	8b 45 ec	 mov	 eax, DWORD PTR _this$[ebp]
  0002b	89 45 e4	 mov	 DWORD PTR _this$[ebp], eax
; File C:\Program Files (x86)\Microsoft Visual Studio\2019\Community\VC\Tools\MSVC\14.28.29333\include\xmemory

; 1339 :         : _Ty1(), _Myval2(_STD forward<_Other2>(_Val2)...) {}

  0002e	8b 45 e4	 mov	 eax, DWORD PTR _this$[ebp]
  00031	89 45 e8	 mov	 DWORD PTR _this$[ebp], eax
; File C:\Program Files (x86)\Microsoft Visual Studio\2019\Community\VC\Tools\MSVC\14.28.29333\include\xstring

; 2198 :     _String_val() noexcept : _Bx(), _Mysize(0), _Myres(0) {}

  00034	8b 45 e8	 mov	 eax, DWORD PTR _this$[ebp]
  00037	83 60 10 00	 and	 DWORD PTR [eax+16], 0
  0003b	8b 45 e8	 mov	 eax, DWORD PTR _this$[ebp]
  0003e	83 60 14 00	 and	 DWORD PTR [eax+20], 0

; 2413 :     basic_string(_In_z_ const _Elem* const _Ptr) : _Mypair(_Zero_then_variadic_args_t{}) {

  00042	83 65 fc 00	 and	 DWORD PTR __$EHRec$[ebp+8], 0

; 2414 :         auto&& _Alproxy = _GET_PROXY_ALLOCATOR(_Alty, _Getal());

  00046	8d 45 f3	 lea	 eax, DWORD PTR _$S6$[ebp]
  00049	89 45 d8	 mov	 DWORD PTR __Alproxy$[ebp], eax

; 2415 :         _Container_proxy_ptr<_Alty> _Proxy(_Alproxy, _Mypair._Myval2);
; 2416 :         _Tidy_init();

  0004c	8b 4d ec	 mov	 ecx, DWORD PTR _this$[ebp]
  0004f	e8 00 00 00 00	 call	 ?_Tidy_init@?$basic_string@DU?$char_traits@D@std@@V?$allocator@D@2@@std@@AAEXXZ ; std::basic_string<char,std::char_traits<char>,std::allocator<char> >::_Tidy_init

; 389  :         return _CSTD strlen(reinterpret_cast<const char*>(_First));

  00054	ff 75 08	 push	 DWORD PTR __Ptr$[ebp]
  00057	e8 00 00 00 00	 call	 _strlen
  0005c	59		 pop	 ecx
  0005d	89 45 e0	 mov	 DWORD PTR $T3[ebp], eax
; File C:\Program Files (x86)\Microsoft Visual Studio\2019\Community\VC\Tools\MSVC\14.28.29333\include\xmemory

; 997  :     return _Len;

  00060	8b 45 e0	 mov	 eax, DWORD PTR $T3[ebp]
  00063	89 45 dc	 mov	 DWORD PTR $T2[ebp], eax
; File C:\Program Files (x86)\Microsoft Visual Studio\2019\Community\VC\Tools\MSVC\14.28.29333\include\xstring

; 3062 :         return assign(_Ptr, _Convert_size<size_type>(_Traits::length(_Ptr)));

  00066	ff 75 dc	 push	 DWORD PTR $T2[ebp]
  00069	ff 75 08	 push	 DWORD PTR __Ptr$[ebp]
  0006c	8b 4d ec	 mov	 ecx, DWORD PTR _this$[ebp]
  0006f	e8 00 00 00 00	 call	 ?assign@?$basic_string@DU?$char_traits@D@std@@V?$allocator@D@2@@std@@QAEAAV12@QBDI@Z ; std::basic_string<char,std::char_traits<char>,std::allocator<char> >::assign

; 2417 :         assign(_Ptr);
; 2418 :         _Proxy._Release();
; 2419 :     }

  00074	83 4d fc ff	 or	 DWORD PTR __$EHRec$[ebp+8], -1
  00078	8b 45 ec	 mov	 eax, DWORD PTR _this$[ebp]
  0007b	8b 4d f4	 mov	 ecx, DWORD PTR __$EHRec$[ebp]
  0007e	64 89 0d 00 00
	00 00		 mov	 DWORD PTR fs:0, ecx
  00085	59		 pop	 ecx
  00086	c9		 leave
  00087	c2 04 00	 ret	 4
_TEXT	ENDS
;	COMDAT text$x
text$x	SEGMENT
__unwindfunclet$??0?$basic_string@DU?$char_traits@D@std@@V?$allocator@D@2@@std@@QAE@QBD@Z$0:
  00000	8b 4d ec	 mov	 ecx, DWORD PTR _this$[ebp]
  00003	e9 00 00 00 00	 jmp	 ??1?$_Compressed_pair@V?$allocator@D@std@@V?$_String_val@U?$_Simple_types@D@std@@@2@$00@std@@QAE@XZ
  00008	cc		 int	 3
  00009	cc		 int	 3
  0000a	cc		 int	 3
  0000b	cc		 int	 3
  0000c	cc		 int	 3
__ehhandler$??0?$basic_string@DU?$char_traits@D@std@@V?$allocator@D@2@@std@@QAE@QBD@Z:
  0000d	90		 npad	 1
  0000e	90		 npad	 1
  0000f	8b 54 24 08	 mov	 edx, DWORD PTR [esp+8]
  00013	8d 42 0c	 lea	 eax, DWORD PTR [edx+12]
  00016	8b 4a e0	 mov	 ecx, DWORD PTR [edx-32]
  00019	33 c8		 xor	 ecx, eax
  0001b	e8 00 00 00 00	 call	 @__security_check_cookie@4
  00020	b8 00 00 00 00	 mov	 eax, OFFSET __ehfuncinfo$??0?$basic_string@DU?$char_traits@D@std@@V?$allocator@D@2@@std@@QAE@QBD@Z
  00025	e9 00 00 00 00	 jmp	 ___CxxFrameHandler3
text$x	ENDS
??0?$basic_string@DU?$char_traits@D@std@@V?$allocator@D@2@@std@@QAE@QBD@Z ENDP ; std::basic_string<char,std::char_traits<char>,std::allocator<char> >::basic_string<char,std::char_traits<char>,std::allocator<char> >
; Function compile flags: /Odspy
; File C:\Program Files (x86)\Microsoft Visual Studio\2019\Community\VC\Tools\MSVC\14.28.29333\include\xstring
; File C:\Program Files (x86)\Microsoft Visual Studio\2019\Community\VC\Tools\MSVC\14.28.29333\include\xstddef
; File C:\Program Files (x86)\Microsoft Visual Studio\2019\Community\VC\Tools\MSVC\14.28.29333\include\xstring
;	COMDAT ?_Myptr@?$_String_val@U?$_Simple_types@D@std@@@std@@QAEPADXZ
_TEXT	SEGMENT
__Ptr$ = -20						; size = 4
__Result$ = -16						; size = 4
tv76 = -12						; size = 4
_this$ = -8						; size = 4
$T1 = -1						; size = 1
?_Myptr@?$_String_val@U?$_Simple_types@D@std@@@std@@QAEPADXZ PROC ; std::_String_val<std::_Simple_types<char> >::_Myptr, COMDAT
; _this$ = ecx

; 2208 :     value_type* _Myptr() noexcept {

  00000	55		 push	 ebp
  00001	8b ec		 mov	 ebp, esp
  00003	83 ec 14	 sub	 esp, 20			; 00000014H
  00006	89 4d f8	 mov	 DWORD PTR _this$[ebp], ecx

; 2209 :         value_type* _Result = _Bx._Buf;

  00009	8b 45 f8	 mov	 eax, DWORD PTR _this$[ebp]
  0000c	89 45 f0	 mov	 DWORD PTR __Result$[ebp], eax

; 2227 :         return _BUF_SIZE <= _Myres;

  0000f	8b 45 f8	 mov	 eax, DWORD PTR _this$[ebp]
  00012	83 78 14 10	 cmp	 DWORD PTR [eax+20], 16	; 00000010H
  00016	72 09		 jb	 SHORT $LN6@Myptr
  00018	c7 45 f4 01 00
	00 00		 mov	 DWORD PTR tv76[ebp], 1
  0001f	eb 04		 jmp	 SHORT $LN7@Myptr
$LN6@Myptr:
  00021	83 65 f4 00	 and	 DWORD PTR tv76[ebp], 0
$LN7@Myptr:
  00025	8a 45 f4	 mov	 al, BYTE PTR tv76[ebp]
  00028	88 45 ff	 mov	 BYTE PTR $T1[ebp], al

; 2210 :         if (_Large_string_engaged()) {

  0002b	0f b6 45 ff	 movzx	 eax, BYTE PTR $T1[ebp]
  0002f	85 c0		 test	 eax, eax
  00031	74 0e		 je	 SHORT $LN2@Myptr

; 2211 :             _Result = _Unfancy(_Bx._Ptr);

  00033	8b 45 f8	 mov	 eax, DWORD PTR _this$[ebp]
  00036	8b 00		 mov	 eax, DWORD PTR [eax]
  00038	89 45 ec	 mov	 DWORD PTR __Ptr$[ebp], eax
; File C:\Program Files (x86)\Microsoft Visual Studio\2019\Community\VC\Tools\MSVC\14.28.29333\include\xstddef

; 289  :     return _Ptr;

  0003b	8b 45 ec	 mov	 eax, DWORD PTR __Ptr$[ebp]
  0003e	89 45 f0	 mov	 DWORD PTR __Result$[ebp], eax
$LN2@Myptr:
; File C:\Program Files (x86)\Microsoft Visual Studio\2019\Community\VC\Tools\MSVC\14.28.29333\include\xstring

; 2214 :         return _Result;

  00041	8b 45 f0	 mov	 eax, DWORD PTR __Result$[ebp]

; 2215 :     }

  00044	c9		 leave
  00045	c3		 ret	 0
?_Myptr@?$_String_val@U?$_Simple_types@D@std@@@std@@QAEPADXZ ENDP ; std::_String_val<std::_Simple_types<char> >::_Myptr
_TEXT	ENDS
; Function compile flags: /Odspy
; File C:\Program Files (x86)\Microsoft Visual Studio\2019\Community\VC\Tools\MSVC\14.28.29333\include\xstring
;	COMDAT ?_Xlen_string@std@@YAXXZ
_TEXT	SEGMENT
?_Xlen_string@std@@YAXXZ PROC				; std::_Xlen_string, COMDAT

; 2274 : [[noreturn]] inline void _Xlen_string() {

  00000	55		 push	 ebp
  00001	8b ec		 mov	 ebp, esp

; 2275 :     _Xlength_error("string too long");

  00003	68 00 00 00 00	 push	 OFFSET ??_C@_0BA@JFNIOLAK@string?5too?5long@
  00008	e8 00 00 00 00	 call	 ?_Xlength_error@std@@YAXPBD@Z ; std::_Xlength_error
$LN2@Xlen_strin:

; 2276 : }

  0000d	5d		 pop	 ebp
  0000e	c3		 ret	 0
?_Xlen_string@std@@YAXXZ ENDP				; std::_Xlen_string
_TEXT	ENDS
; Function compile flags: /Odspy
; File C:\Program Files (x86)\Microsoft Visual Studio\2019\Community\VC\Tools\MSVC\14.28.29333\include\xmemory
;	COMDAT ?_Adjust_manually_vector_aligned@std@@YAXAAPAXAAI@Z
_TEXT	SEGMENT
__Min_back_shift$ = -16					; size = 4
__Ptr_user$ = -12					; size = 4
__Ptr_container$ = -8					; size = 4
__Back_shift$ = -4					; size = 4
__Ptr$ = 8						; size = 4
__Bytes$ = 12						; size = 4
?_Adjust_manually_vector_aligned@std@@YAXAAPAXAAI@Z PROC ; std::_Adjust_manually_vector_aligned, COMDAT

; 132  : inline void _Adjust_manually_vector_aligned(void*& _Ptr, size_t& _Bytes) {

  00000	55		 push	 ebp
  00001	8b ec		 mov	 ebp, esp
  00003	83 ec 10	 sub	 esp, 16			; 00000010H

; 133  :     // adjust parameters from _Allocate_manually_vector_aligned to pass to operator delete
; 134  :     _Bytes += _Non_user_size;

  00006	8b 45 0c	 mov	 eax, DWORD PTR __Bytes$[ebp]
  00009	8b 00		 mov	 eax, DWORD PTR [eax]
  0000b	83 c0 23	 add	 eax, 35			; 00000023H
  0000e	8b 4d 0c	 mov	 ecx, DWORD PTR __Bytes$[ebp]
  00011	89 01		 mov	 DWORD PTR [ecx], eax

; 135  : 
; 136  :     const uintptr_t* const _Ptr_user = reinterpret_cast<uintptr_t*>(_Ptr);

  00013	8b 45 08	 mov	 eax, DWORD PTR __Ptr$[ebp]
  00016	8b 00		 mov	 eax, DWORD PTR [eax]
  00018	89 45 f4	 mov	 DWORD PTR __Ptr_user$[ebp], eax

; 137  :     const uintptr_t _Ptr_container   = _Ptr_user[-1];

  0001b	6a 04		 push	 4
  0001d	58		 pop	 eax
  0001e	6b c0 ff	 imul	 eax, eax, -1
  00021	8b 4d f4	 mov	 ecx, DWORD PTR __Ptr_user$[ebp]
  00024	8b 04 01	 mov	 eax, DWORD PTR [ecx+eax]
  00027	89 45 f8	 mov	 DWORD PTR __Ptr_container$[ebp], eax

; 138  : 
; 139  :     // If the following asserts, it likely means that we are performing
; 140  :     // an aligned delete on memory coming from an unaligned allocation.
; 141  :     _STL_ASSERT(_Ptr_user[-2] == _Big_allocation_sentinel, "invalid argument");
; 142  : 
; 143  :     // Extra paranoia on aligned allocation/deallocation; ensure _Ptr_container is
; 144  :     // in range [_Min_back_shift, _Non_user_size]
; 145  : #ifdef _DEBUG
; 146  :     constexpr uintptr_t _Min_back_shift = 2 * sizeof(void*);
; 147  : #else // ^^^ _DEBUG ^^^ // vvv !_DEBUG vvv
; 148  :     constexpr uintptr_t _Min_back_shift = sizeof(void*);

  0002a	c7 45 f0 04 00
	00 00		 mov	 DWORD PTR __Min_back_shift$[ebp], 4

; 149  : #endif // _DEBUG
; 150  :     const uintptr_t _Back_shift = reinterpret_cast<uintptr_t>(_Ptr) - _Ptr_container;

  00031	8b 45 08	 mov	 eax, DWORD PTR __Ptr$[ebp]
  00034	8b 00		 mov	 eax, DWORD PTR [eax]
  00036	2b 45 f8	 sub	 eax, DWORD PTR __Ptr_container$[ebp]
  00039	89 45 fc	 mov	 DWORD PTR __Back_shift$[ebp], eax
$LN4@Adjust_man:

; 151  :     _STL_VERIFY(_Back_shift >= _Min_back_shift && _Back_shift <= _Non_user_size, "invalid argument");

  0003c	83 7d fc 04	 cmp	 DWORD PTR __Back_shift$[ebp], 4
  00040	72 08		 jb	 SHORT $LN7@Adjust_man
  00042	83 7d fc 23	 cmp	 DWORD PTR __Back_shift$[ebp], 35 ; 00000023H
  00046	77 02		 ja	 SHORT $LN7@Adjust_man
  00048	eb 09		 jmp	 SHORT $LN2@Adjust_man
$LN7@Adjust_man:
  0004a	e8 00 00 00 00	 call	 __invalid_parameter_noinfo_noreturn
  0004f	33 c0		 xor	 eax, eax
  00051	75 f7		 jne	 SHORT $LN7@Adjust_man
$LN2@Adjust_man:
  00053	33 c0		 xor	 eax, eax
  00055	75 e5		 jne	 SHORT $LN4@Adjust_man

; 152  :     _Ptr = reinterpret_cast<void*>(_Ptr_container);

  00057	8b 45 08	 mov	 eax, DWORD PTR __Ptr$[ebp]
  0005a	8b 4d f8	 mov	 ecx, DWORD PTR __Ptr_container$[ebp]
  0005d	89 08		 mov	 DWORD PTR [eax], ecx
$LN10@Adjust_man:

; 153  : }

  0005f	c9		 leave
  00060	c3		 ret	 0
?_Adjust_manually_vector_aligned@std@@YAXAAPAXAAI@Z ENDP ; std::_Adjust_manually_vector_aligned
_TEXT	ENDS
; Function compile flags: /Odspy
; File C:\Program Files (x86)\Microsoft Visual Studio\2019\Community\VC\Tools\MSVC\14.28.29333\include\exception
;	COMDAT ?_Throw_bad_array_new_length@std@@YAXXZ
_TEXT	SEGMENT
$T1 = -12						; size = 12
?_Throw_bad_array_new_length@std@@YAXXZ PROC		; std::_Throw_bad_array_new_length, COMDAT

; 320  : [[noreturn]] inline void _Throw_bad_array_new_length() {

  00000	55		 push	 ebp
  00001	8b ec		 mov	 ebp, esp
  00003	83 ec 0c	 sub	 esp, 12			; 0000000cH

; 321  :     _THROW(bad_array_new_length{});

  00006	8d 4d f4	 lea	 ecx, DWORD PTR $T1[ebp]
  00009	e8 00 00 00 00	 call	 ??0bad_array_new_length@std@@QAE@XZ ; std::bad_array_new_length::bad_array_new_length
  0000e	68 00 00 00 00	 push	 OFFSET __TI3?AVbad_array_new_length@std@@
  00013	8d 45 f4	 lea	 eax, DWORD PTR $T1[ebp]
  00016	50		 push	 eax
  00017	e8 00 00 00 00	 call	 __CxxThrowException@8
$LN2@Throw_bad_:

; 322  : }

  0001c	c9		 leave
  0001d	c3		 ret	 0
?_Throw_bad_array_new_length@std@@YAXXZ ENDP		; std::_Throw_bad_array_new_length
_TEXT	ENDS
; Function compile flags: /Odspy
; File C:\Program Files (x86)\Microsoft Visual Studio\2019\Community\VC\Tools\MSVC\14.28.29333\include\vcruntime_exception.h
;	COMDAT ??_Gbad_array_new_length@std@@UAEPAXI@Z
_TEXT	SEGMENT
_this$ = -4						; size = 4
___flags$ = 8						; size = 4
??_Gbad_array_new_length@std@@UAEPAXI@Z PROC		; std::bad_array_new_length::`scalar deleting destructor', COMDAT
; _this$ = ecx
  00000	55		 push	 ebp
  00001	8b ec		 mov	 ebp, esp
  00003	51		 push	 ecx
  00004	89 4d fc	 mov	 DWORD PTR _this$[ebp], ecx

; 89   :     {

  00007	8b 45 fc	 mov	 eax, DWORD PTR _this$[ebp]
  0000a	c7 00 00 00 00
	00		 mov	 DWORD PTR [eax], OFFSET ??_7exception@std@@6B@

; 90   :         __std_exception_destroy(&_Data);

  00010	8b 45 fc	 mov	 eax, DWORD PTR _this$[ebp]
  00013	83 c0 04	 add	 eax, 4
  00016	50		 push	 eax
  00017	e8 00 00 00 00	 call	 ___std_exception_destroy
  0001c	59		 pop	 ecx
  0001d	8b 45 08	 mov	 eax, DWORD PTR ___flags$[ebp]
  00020	83 e0 01	 and	 eax, 1
  00023	74 0c		 je	 SHORT $LN2@scalar
  00025	6a 0c		 push	 12			; 0000000cH
  00027	ff 75 fc	 push	 DWORD PTR _this$[ebp]
  0002a	e8 00 00 00 00	 call	 ??3@YAXPAXI@Z		; operator delete
  0002f	59		 pop	 ecx
  00030	59		 pop	 ecx
$LN2@scalar:
  00031	8b 45 fc	 mov	 eax, DWORD PTR _this$[ebp]
  00034	c9		 leave
  00035	c2 04 00	 ret	 4
??_Gbad_array_new_length@std@@UAEPAXI@Z ENDP		; std::bad_array_new_length::`scalar deleting destructor'
_TEXT	ENDS
; Function compile flags: /Odspy
;	COMDAT ??0bad_array_new_length@std@@QAE@ABV01@@Z
_TEXT	SEGMENT
_this$ = -4						; size = 4
___that$ = 8						; size = 4
??0bad_array_new_length@std@@QAE@ABV01@@Z PROC		; std::bad_array_new_length::bad_array_new_length, COMDAT
; _this$ = ecx
  00000	55		 push	 ebp
  00001	8b ec		 mov	 ebp, esp
  00003	51		 push	 ecx
  00004	89 4d fc	 mov	 DWORD PTR _this$[ebp], ecx
  00007	ff 75 08	 push	 DWORD PTR ___that$[ebp]
  0000a	8b 4d fc	 mov	 ecx, DWORD PTR _this$[ebp]
  0000d	e8 00 00 00 00	 call	 ??0exception@std@@QAE@ABV01@@Z ; std::exception::exception
  00012	8b 45 fc	 mov	 eax, DWORD PTR _this$[ebp]
  00015	c7 00 00 00 00
	00		 mov	 DWORD PTR [eax], OFFSET ??_7bad_alloc@std@@6B@
  0001b	8b 45 fc	 mov	 eax, DWORD PTR _this$[ebp]
  0001e	c7 00 00 00 00
	00		 mov	 DWORD PTR [eax], OFFSET ??_7bad_array_new_length@std@@6B@
  00024	8b 45 fc	 mov	 eax, DWORD PTR _this$[ebp]
  00027	c9		 leave
  00028	c2 04 00	 ret	 4
??0bad_array_new_length@std@@QAE@ABV01@@Z ENDP		; std::bad_array_new_length::bad_array_new_length
_TEXT	ENDS
; Function compile flags: /Odspy
; File C:\Program Files (x86)\Microsoft Visual Studio\2019\Community\VC\Tools\MSVC\14.28.29333\include\vcruntime_exception.h
;	COMDAT ??1bad_array_new_length@std@@UAE@XZ
_TEXT	SEGMENT
_this$ = -4						; size = 4
??1bad_array_new_length@std@@UAE@XZ PROC		; std::bad_array_new_length::~bad_array_new_length, COMDAT
; _this$ = ecx
  00000	55		 push	 ebp
  00001	8b ec		 mov	 ebp, esp
  00003	51		 push	 ecx
  00004	89 4d fc	 mov	 DWORD PTR _this$[ebp], ecx

; 89   :     {

  00007	8b 45 fc	 mov	 eax, DWORD PTR _this$[ebp]
  0000a	c7 00 00 00 00
	00		 mov	 DWORD PTR [eax], OFFSET ??_7exception@std@@6B@

; 90   :         __std_exception_destroy(&_Data);

  00010	8b 45 fc	 mov	 eax, DWORD PTR _this$[ebp]
  00013	83 c0 04	 add	 eax, 4
  00016	50		 push	 eax
  00017	e8 00 00 00 00	 call	 ___std_exception_destroy
  0001c	59		 pop	 ecx
  0001d	c9		 leave
  0001e	c3		 ret	 0
??1bad_array_new_length@std@@UAE@XZ ENDP		; std::bad_array_new_length::~bad_array_new_length
_TEXT	ENDS
; Function compile flags: /Odspy
; File C:\Program Files (x86)\Microsoft Visual Studio\2019\Community\VC\Tools\MSVC\14.28.29333\include\vcruntime_exception.h
;	COMDAT ??0bad_array_new_length@std@@QAE@XZ
_TEXT	SEGMENT
_this$ = -4						; size = 4
??0bad_array_new_length@std@@QAE@XZ PROC		; std::bad_array_new_length::bad_array_new_length, COMDAT
; _this$ = ecx

; 141  :     {

  00000	55		 push	 ebp
  00001	8b ec		 mov	 ebp, esp
  00003	51		 push	 ecx
  00004	89 4d fc	 mov	 DWORD PTR _this$[ebp], ecx

; 66   :     {

  00007	8b 45 fc	 mov	 eax, DWORD PTR _this$[ebp]
  0000a	c7 00 00 00 00
	00		 mov	 DWORD PTR [eax], OFFSET ??_7exception@std@@6B@

; 65   :         : _Data()

  00010	33 c0		 xor	 eax, eax
  00012	8b 4d fc	 mov	 ecx, DWORD PTR _this$[ebp]
  00015	83 c1 04	 add	 ecx, 4
  00018	89 01		 mov	 DWORD PTR [ecx], eax
  0001a	89 41 04	 mov	 DWORD PTR [ecx+4], eax

; 67   :         _Data._What = _Message;

  0001d	8b 45 fc	 mov	 eax, DWORD PTR _this$[ebp]
  00020	c7 40 04 00 00
	00 00		 mov	 DWORD PTR [eax+4], OFFSET ??_C@_0BF@KINCDENJ@bad?5array?5new?5length@

; 130  :     {

  00027	8b 45 fc	 mov	 eax, DWORD PTR _this$[ebp]
  0002a	c7 00 00 00 00
	00		 mov	 DWORD PTR [eax], OFFSET ??_7bad_alloc@std@@6B@

; 141  :     {

  00030	8b 45 fc	 mov	 eax, DWORD PTR _this$[ebp]
  00033	c7 00 00 00 00
	00		 mov	 DWORD PTR [eax], OFFSET ??_7bad_array_new_length@std@@6B@

; 142  :     }

  00039	8b 45 fc	 mov	 eax, DWORD PTR _this$[ebp]
  0003c	c9		 leave
  0003d	c3		 ret	 0
??0bad_array_new_length@std@@QAE@XZ ENDP		; std::bad_array_new_length::bad_array_new_length
_TEXT	ENDS
; Function compile flags: /Odspy
; File C:\Program Files (x86)\Microsoft Visual Studio\2019\Community\VC\Tools\MSVC\14.28.29333\include\vcruntime_exception.h
;	COMDAT ??_Gbad_alloc@std@@UAEPAXI@Z
_TEXT	SEGMENT
_this$ = -4						; size = 4
___flags$ = 8						; size = 4
??_Gbad_alloc@std@@UAEPAXI@Z PROC			; std::bad_alloc::`scalar deleting destructor', COMDAT
; _this$ = ecx
  00000	55		 push	 ebp
  00001	8b ec		 mov	 ebp, esp
  00003	51		 push	 ecx
  00004	89 4d fc	 mov	 DWORD PTR _this$[ebp], ecx

; 89   :     {

  00007	8b 45 fc	 mov	 eax, DWORD PTR _this$[ebp]
  0000a	c7 00 00 00 00
	00		 mov	 DWORD PTR [eax], OFFSET ??_7exception@std@@6B@

; 90   :         __std_exception_destroy(&_Data);

  00010	8b 45 fc	 mov	 eax, DWORD PTR _this$[ebp]
  00013	83 c0 04	 add	 eax, 4
  00016	50		 push	 eax
  00017	e8 00 00 00 00	 call	 ___std_exception_destroy
  0001c	59		 pop	 ecx
  0001d	8b 45 08	 mov	 eax, DWORD PTR ___flags$[ebp]
  00020	83 e0 01	 and	 eax, 1
  00023	74 0c		 je	 SHORT $LN2@scalar
  00025	6a 0c		 push	 12			; 0000000cH
  00027	ff 75 fc	 push	 DWORD PTR _this$[ebp]
  0002a	e8 00 00 00 00	 call	 ??3@YAXPAXI@Z		; operator delete
  0002f	59		 pop	 ecx
  00030	59		 pop	 ecx
$LN2@scalar:
  00031	8b 45 fc	 mov	 eax, DWORD PTR _this$[ebp]
  00034	c9		 leave
  00035	c2 04 00	 ret	 4
??_Gbad_alloc@std@@UAEPAXI@Z ENDP			; std::bad_alloc::`scalar deleting destructor'
_TEXT	ENDS
; Function compile flags: /Odspy
;	COMDAT ??0bad_alloc@std@@QAE@ABV01@@Z
_TEXT	SEGMENT
_this$ = -4						; size = 4
___that$ = 8						; size = 4
??0bad_alloc@std@@QAE@ABV01@@Z PROC			; std::bad_alloc::bad_alloc, COMDAT
; _this$ = ecx
  00000	55		 push	 ebp
  00001	8b ec		 mov	 ebp, esp
  00003	51		 push	 ecx
  00004	89 4d fc	 mov	 DWORD PTR _this$[ebp], ecx
  00007	ff 75 08	 push	 DWORD PTR ___that$[ebp]
  0000a	8b 4d fc	 mov	 ecx, DWORD PTR _this$[ebp]
  0000d	e8 00 00 00 00	 call	 ??0exception@std@@QAE@ABV01@@Z ; std::exception::exception
  00012	8b 45 fc	 mov	 eax, DWORD PTR _this$[ebp]
  00015	c7 00 00 00 00
	00		 mov	 DWORD PTR [eax], OFFSET ??_7bad_alloc@std@@6B@
  0001b	8b 45 fc	 mov	 eax, DWORD PTR _this$[ebp]
  0001e	c9		 leave
  0001f	c2 04 00	 ret	 4
??0bad_alloc@std@@QAE@ABV01@@Z ENDP			; std::bad_alloc::bad_alloc
_TEXT	ENDS
; Function compile flags: /Odspy
; File C:\Program Files (x86)\Microsoft Visual Studio\2019\Community\VC\Tools\MSVC\14.28.29333\include\vcruntime_exception.h
;	COMDAT ??_Gexception@std@@UAEPAXI@Z
_TEXT	SEGMENT
_this$ = -4						; size = 4
___flags$ = 8						; size = 4
??_Gexception@std@@UAEPAXI@Z PROC			; std::exception::`scalar deleting destructor', COMDAT
; _this$ = ecx
  00000	55		 push	 ebp
  00001	8b ec		 mov	 ebp, esp
  00003	51		 push	 ecx
  00004	89 4d fc	 mov	 DWORD PTR _this$[ebp], ecx

; 89   :     {

  00007	8b 45 fc	 mov	 eax, DWORD PTR _this$[ebp]
  0000a	c7 00 00 00 00
	00		 mov	 DWORD PTR [eax], OFFSET ??_7exception@std@@6B@

; 90   :         __std_exception_destroy(&_Data);

  00010	8b 45 fc	 mov	 eax, DWORD PTR _this$[ebp]
  00013	83 c0 04	 add	 eax, 4
  00016	50		 push	 eax
  00017	e8 00 00 00 00	 call	 ___std_exception_destroy
  0001c	59		 pop	 ecx
  0001d	8b 45 08	 mov	 eax, DWORD PTR ___flags$[ebp]
  00020	83 e0 01	 and	 eax, 1
  00023	74 0c		 je	 SHORT $LN2@scalar
  00025	6a 0c		 push	 12			; 0000000cH
  00027	ff 75 fc	 push	 DWORD PTR _this$[ebp]
  0002a	e8 00 00 00 00	 call	 ??3@YAXPAXI@Z		; operator delete
  0002f	59		 pop	 ecx
  00030	59		 pop	 ecx
$LN2@scalar:
  00031	8b 45 fc	 mov	 eax, DWORD PTR _this$[ebp]
  00034	c9		 leave
  00035	c2 04 00	 ret	 4
??_Gexception@std@@UAEPAXI@Z ENDP			; std::exception::`scalar deleting destructor'
_TEXT	ENDS
; Function compile flags: /Odspy
; File C:\Program Files (x86)\Microsoft Visual Studio\2019\Community\VC\Tools\MSVC\14.28.29333\include\vcruntime_exception.h
;	COMDAT ?what@exception@std@@UBEPBDXZ
_TEXT	SEGMENT
tv69 = -8						; size = 4
_this$ = -4						; size = 4
?what@exception@std@@UBEPBDXZ PROC			; std::exception::what, COMDAT
; _this$ = ecx

; 94   :     {

  00000	55		 push	 ebp
  00001	8b ec		 mov	 ebp, esp
  00003	51		 push	 ecx
  00004	51		 push	 ecx
  00005	89 4d fc	 mov	 DWORD PTR _this$[ebp], ecx

; 95   :         return _Data._What ? _Data._What : "Unknown exception";

  00008	8b 45 fc	 mov	 eax, DWORD PTR _this$[ebp]
  0000b	83 78 04 00	 cmp	 DWORD PTR [eax+4], 0
  0000f	74 0b		 je	 SHORT $LN3@what
  00011	8b 45 fc	 mov	 eax, DWORD PTR _this$[ebp]
  00014	8b 40 04	 mov	 eax, DWORD PTR [eax+4]
  00017	89 45 f8	 mov	 DWORD PTR tv69[ebp], eax
  0001a	eb 07		 jmp	 SHORT $LN4@what
$LN3@what:
  0001c	c7 45 f8 00 00
	00 00		 mov	 DWORD PTR tv69[ebp], OFFSET ??_C@_0BC@EOODALEL@Unknown?5exception@
$LN4@what:
  00023	8b 45 f8	 mov	 eax, DWORD PTR tv69[ebp]

; 96   :     }

  00026	c9		 leave
  00027	c3		 ret	 0
?what@exception@std@@UBEPBDXZ ENDP			; std::exception::what
_TEXT	ENDS
; Function compile flags: /Odspy
; File C:\Program Files (x86)\Microsoft Visual Studio\2019\Community\VC\Tools\MSVC\14.28.29333\include\vcruntime_exception.h
;	COMDAT ??0exception@std@@QAE@ABV01@@Z
_TEXT	SEGMENT
_this$ = -4						; size = 4
__Other$ = 8						; size = 4
??0exception@std@@QAE@ABV01@@Z PROC			; std::exception::exception, COMDAT
; _this$ = ecx

; 72   :     {

  00000	55		 push	 ebp
  00001	8b ec		 mov	 ebp, esp
  00003	51		 push	 ecx
  00004	89 4d fc	 mov	 DWORD PTR _this$[ebp], ecx
  00007	8b 45 fc	 mov	 eax, DWORD PTR _this$[ebp]
  0000a	c7 00 00 00 00
	00		 mov	 DWORD PTR [eax], OFFSET ??_7exception@std@@6B@

; 71   :         : _Data()

  00010	33 c0		 xor	 eax, eax
  00012	8b 4d fc	 mov	 ecx, DWORD PTR _this$[ebp]
  00015	83 c1 04	 add	 ecx, 4
  00018	89 01		 mov	 DWORD PTR [ecx], eax
  0001a	89 41 04	 mov	 DWORD PTR [ecx+4], eax

; 73   :         __std_exception_copy(&_Other._Data, &_Data);

  0001d	8b 45 fc	 mov	 eax, DWORD PTR _this$[ebp]
  00020	83 c0 04	 add	 eax, 4
  00023	50		 push	 eax
  00024	8b 45 08	 mov	 eax, DWORD PTR __Other$[ebp]
  00027	83 c0 04	 add	 eax, 4
  0002a	50		 push	 eax
  0002b	e8 00 00 00 00	 call	 ___std_exception_copy
  00030	59		 pop	 ecx
  00031	59		 pop	 ecx

; 74   :     }

  00032	8b 45 fc	 mov	 eax, DWORD PTR _this$[ebp]
  00035	c9		 leave
  00036	c2 04 00	 ret	 4
??0exception@std@@QAE@ABV01@@Z ENDP			; std::exception::exception
_TEXT	ENDS
; Function compile flags: /Odspy
; File C:\Program Files (x86)\Windows Kits\10\Include\10.0.18362.0\ucrt\stdio.h
;	COMDAT __snprintf
_TEXT	SEGMENT
__Result$ = -20						; size = 4
__Format$ = -16						; size = 4
__ArgList$ = -12					; size = 4
tv86 = -8						; size = 4
__Result$1 = -4						; size = 4
__Buffer$ = 8						; size = 4
__BufferCount$ = 12					; size = 4
__Format$ = 16						; size = 4
__snprintf PROC						; COMDAT

; 1969 :     {

  00000	55		 push	 ebp
  00001	8b ec		 mov	 ebp, esp
  00003	83 ec 14	 sub	 esp, 20			; 00000014H

; 1970 :         int _Result;
; 1971 :         va_list _ArgList;
; 1972 :         __crt_va_start(_ArgList, _Format);

  00006	8d 45 14	 lea	 eax, DWORD PTR __Format$[ebp+4]
  00009	89 45 f4	 mov	 DWORD PTR __ArgList$[ebp], eax

; 1973 :     #pragma warning(suppress:28719)    // 28719
; 1974 :         _Result = _vsnprintf(_Buffer, _BufferCount, _Format, _ArgList);

  0000c	8b 45 10	 mov	 eax, DWORD PTR __Format$[ebp]
  0000f	89 45 f0	 mov	 DWORD PTR __Format$[ebp], eax

; 1390 :         int const _Result = __stdio_common_vsprintf(

  00012	ff 75 f4	 push	 DWORD PTR __ArgList$[ebp]
  00015	6a 00		 push	 0
  00017	ff 75 f0	 push	 DWORD PTR __Format$[ebp]
  0001a	ff 75 0c	 push	 DWORD PTR __BufferCount$[ebp]
  0001d	ff 75 08	 push	 DWORD PTR __Buffer$[ebp]
  00020	e8 00 00 00 00	 call	 ___local_stdio_printf_options
  00025	8b 08		 mov	 ecx, DWORD PTR [eax]
  00027	83 c9 01	 or	 ecx, 1
  0002a	8b 40 04	 mov	 eax, DWORD PTR [eax+4]
  0002d	50		 push	 eax
  0002e	51		 push	 ecx
  0002f	e8 00 00 00 00	 call	 ___stdio_common_vsprintf
  00034	83 c4 1c	 add	 esp, 28			; 0000001cH
  00037	89 45 fc	 mov	 DWORD PTR __Result$1[ebp], eax

; 1391 :             _CRT_INTERNAL_LOCAL_PRINTF_OPTIONS | _CRT_INTERNAL_PRINTF_LEGACY_VSPRINTF_NULL_TERMINATION,
; 1392 :             _Buffer, _BufferCount, _Format, _Locale, _ArgList);
; 1393 : 
; 1394 :         return _Result < 0 ? -1 : _Result;

  0003a	83 7d fc 00	 cmp	 DWORD PTR __Result$1[ebp], 0
  0003e	7d 06		 jge	 SHORT $LN7@snprintf
  00040	83 4d f8 ff	 or	 DWORD PTR tv86[ebp], -1
  00044	eb 06		 jmp	 SHORT $LN3@snprintf
$LN7@snprintf:
  00046	8b 45 fc	 mov	 eax, DWORD PTR __Result$1[ebp]
  00049	89 45 f8	 mov	 DWORD PTR tv86[ebp], eax
$LN3@snprintf:

; 1973 :     #pragma warning(suppress:28719)    // 28719
; 1974 :         _Result = _vsnprintf(_Buffer, _BufferCount, _Format, _ArgList);

  0004c	8b 45 f8	 mov	 eax, DWORD PTR tv86[ebp]
  0004f	89 45 ec	 mov	 DWORD PTR __Result$[ebp], eax

; 1975 :         __crt_va_end(_ArgList);

  00052	83 65 f4 00	 and	 DWORD PTR __ArgList$[ebp], 0

; 1976 :         return _Result;

  00056	8b 45 ec	 mov	 eax, DWORD PTR __Result$[ebp]

; 1977 :     }

  00059	c9		 leave
  0005a	c3		 ret	 0
__snprintf ENDP
_TEXT	ENDS
; Function compile flags: /Odspy
; File C:\Program Files (x86)\Windows Kits\10\Include\10.0.18362.0\ucrt\stdio.h
;	COMDAT _sprintf
_TEXT	SEGMENT
__Result$ = -20						; size = 4
__Format$ = -16						; size = 4
__ArgList$ = -12					; size = 4
tv86 = -8						; size = 4
__Result$1 = -4						; size = 4
__Buffer$ = 8						; size = 4
__Format$ = 12						; size = 4
_sprintf PROC						; COMDAT

; 1781 :     {

  00000	55		 push	 ebp
  00001	8b ec		 mov	 ebp, esp
  00003	83 ec 14	 sub	 esp, 20			; 00000014H

; 1782 :         int _Result;
; 1783 :         va_list _ArgList;
; 1784 :         __crt_va_start(_ArgList, _Format);

  00006	8d 45 10	 lea	 eax, DWORD PTR __Format$[ebp+4]
  00009	89 45 f4	 mov	 DWORD PTR __ArgList$[ebp], eax

; 1785 : 
; 1786 :         #pragma warning(push)
; 1787 :         #pragma warning(disable: 4996) // Deprecation
; 1788 :         _Result = _vsprintf_l(_Buffer, _Format, NULL, _ArgList);

  0000c	8b 45 0c	 mov	 eax, DWORD PTR __Format$[ebp]
  0000f	89 45 f0	 mov	 DWORD PTR __Format$[ebp], eax

; 1390 :         int const _Result = __stdio_common_vsprintf(

  00012	ff 75 f4	 push	 DWORD PTR __ArgList$[ebp]
  00015	6a 00		 push	 0
  00017	ff 75 f0	 push	 DWORD PTR __Format$[ebp]
  0001a	6a ff		 push	 -1
  0001c	ff 75 08	 push	 DWORD PTR __Buffer$[ebp]
  0001f	e8 00 00 00 00	 call	 ___local_stdio_printf_options
  00024	8b 08		 mov	 ecx, DWORD PTR [eax]
  00026	83 c9 01	 or	 ecx, 1
  00029	8b 40 04	 mov	 eax, DWORD PTR [eax+4]
  0002c	50		 push	 eax
  0002d	51		 push	 ecx
  0002e	e8 00 00 00 00	 call	 ___stdio_common_vsprintf
  00033	83 c4 1c	 add	 esp, 28			; 0000001cH
  00036	89 45 fc	 mov	 DWORD PTR __Result$1[ebp], eax

; 1391 :             _CRT_INTERNAL_LOCAL_PRINTF_OPTIONS | _CRT_INTERNAL_PRINTF_LEGACY_VSPRINTF_NULL_TERMINATION,
; 1392 :             _Buffer, _BufferCount, _Format, _Locale, _ArgList);
; 1393 : 
; 1394 :         return _Result < 0 ? -1 : _Result;

  00039	83 7d fc 00	 cmp	 DWORD PTR __Result$1[ebp], 0
  0003d	7d 06		 jge	 SHORT $LN7@sprintf
  0003f	83 4d f8 ff	 or	 DWORD PTR tv86[ebp], -1
  00043	eb 06		 jmp	 SHORT $LN3@sprintf
$LN7@sprintf:
  00045	8b 45 fc	 mov	 eax, DWORD PTR __Result$1[ebp]
  00048	89 45 f8	 mov	 DWORD PTR tv86[ebp], eax
$LN3@sprintf:

; 1785 : 
; 1786 :         #pragma warning(push)
; 1787 :         #pragma warning(disable: 4996) // Deprecation
; 1788 :         _Result = _vsprintf_l(_Buffer, _Format, NULL, _ArgList);

  0004b	8b 45 f8	 mov	 eax, DWORD PTR tv86[ebp]
  0004e	89 45 ec	 mov	 DWORD PTR __Result$[ebp], eax

; 1789 :         #pragma warning(pop)
; 1790 : 
; 1791 :         __crt_va_end(_ArgList);

  00051	83 65 f4 00	 and	 DWORD PTR __ArgList$[ebp], 0

; 1792 :         return _Result;

  00055	8b 45 ec	 mov	 eax, DWORD PTR __Result$[ebp]

; 1793 :     }

  00058	c9		 leave
  00059	c3		 ret	 0
_sprintf ENDP
_TEXT	ENDS
; Function compile flags: /Odspy
; File C:\Program Files (x86)\Windows Kits\10\Include\10.0.18362.0\ucrt\corecrt_stdio_config.h
;	COMDAT ___local_stdio_printf_options
_TEXT	SEGMENT
___local_stdio_printf_options PROC			; COMDAT

; 86   :     {

  00000	55		 push	 ebp
  00001	8b ec		 mov	 ebp, esp

; 87   :         static unsigned __int64 _OptionsStorage;
; 88   :         return &_OptionsStorage;

  00003	b8 00 00 00 00	 mov	 eax, OFFSET ?_OptionsStorage@?1??__local_stdio_printf_options@@9@4_KA ; `__local_stdio_printf_options'::`2'::_OptionsStorage

; 89   :     }

  00008	5d		 pop	 ebp
  00009	c3		 ret	 0
___local_stdio_printf_options ENDP
_TEXT	ENDS
END
