; Listing generated by Microsoft (R) Optimizing Compiler Version 19.28.29335.0 

	TITLE	D:\Metin2 Server Files\mainline\SRC_2014\Metin2Client\GameLib\FlyingInstance.cpp
	.686P
	.XMM
	include listing.inc
	.model	flat

INCLUDELIB LIBCMT
INCLUDELIB OLDNAMES

PUBLIC	??_H@YGXPAXIIP6EPAX0@Z@Z			; `vector constructor iterator'
PUBLIC	?__empty_global_delete@@YAXPAX@Z		; __empty_global_delete
PUBLIC	?__empty_global_delete@@YAXPAXI@Z		; __empty_global_delete
PUBLIC	??0exception@std@@QAE@ABV01@@Z			; std::exception::exception
PUBLIC	?what@exception@std@@UBEPBDXZ			; std::exception::what
PUBLIC	??_Gexception@std@@UAEPAXI@Z			; std::exception::`scalar deleting destructor'
PUBLIC	??0bad_alloc@std@@QAE@ABV01@@Z			; std::bad_alloc::bad_alloc
PUBLIC	??_Gbad_alloc@std@@UAEPAXI@Z			; std::bad_alloc::`scalar deleting destructor'
PUBLIC	??0bad_array_new_length@std@@QAE@XZ		; std::bad_array_new_length::bad_array_new_length
PUBLIC	??1bad_array_new_length@std@@UAE@XZ		; std::bad_array_new_length::~bad_array_new_length
PUBLIC	??0bad_array_new_length@std@@QAE@ABV01@@Z	; std::bad_array_new_length::bad_array_new_length
PUBLIC	??_Gbad_array_new_length@std@@UAEPAXI@Z		; std::bad_array_new_length::`scalar deleting destructor'
PUBLIC	?_Throw_bad_array_new_length@std@@YAXXZ		; std::_Throw_bad_array_new_length
PUBLIC	?_Adjust_manually_vector_aligned@std@@YAXAAPAXAAI@Z ; std::_Adjust_manually_vector_aligned
PUBLIC	?c_str@?$basic_string@DU?$char_traits@D@std@@V?$allocator@D@2@@std@@QBEPBDXZ ; std::basic_string<char,std::char_traits<char>,std::allocator<char> >::c_str
PUBLIC	?_Throw_tree_length_error@std@@YAXXZ		; std::_Throw_tree_length_error
PUBLIC	??$_Deallocate@$07$0A@@std@@YAXPAXI@Z		; std::_Deallocate<8,0>
PUBLIC	??$_Allocate@$07U_Default_allocate_traits@std@@$0A@@std@@YAPAXI@Z ; std::_Allocate<8,std::_Default_allocate_traits,0>
PUBLIC	??$_Allocate_manually_vector_aligned@U_Default_allocate_traits@std@@@std@@YAPAXI@Z ; std::_Allocate_manually_vector_aligned<std::_Default_allocate_traits>
PUBLIC	?SafeRotationNormalizedArc@@YA?AUD3DXQUATERNION@@ABUD3DXVECTOR3@@0@Z ; SafeRotationNormalizedArc
PUBLIC	?square_distance_between_linesegment_and_point@@YAMABUD3DXVECTOR3@@00@Z ; square_distance_between_linesegment_and_point
PUBLIC	?Vec3TransformQuaternionSafe@@YAPAUD3DXVECTOR3@@PAU1@PBU1@PBUD3DXQUATERNION@@@Z ; Vec3TransformQuaternionSafe
PUBLIC	?Vec3TransformQuaternion@@YAPAUD3DXVECTOR3@@PAU1@PBU1@PBUD3DXQUATERNION@@@Z ; Vec3TransformQuaternion
PUBLIC	?VisibilityCallback@SpherePackCallback@@UAEXABVFrustum@@PAVSpherePack@@W4ViewState@@@Z ; SpherePackCallback::VisibilityCallback
PUBLIC	?RayTraceCallback@SpherePackCallback@@UAEXABVVector3d@@0M0PAVSpherePack@@@Z ; SpherePackCallback::RayTraceCallback
PUBLIC	?RangeTestCallback@SpherePackCallback@@UAEXABVVector3d@@MPAVSpherePack@@W4ViewState@@@Z ; SpherePackCallback::RangeTestCallback
PUBLIC	?PointTest2dCallback@SpherePackCallback@@UAEXABVVector3d@@PAVSpherePack@@W4ViewState@@@Z ; SpherePackCallback::PointTest2dCallback
PUBLIC	??_GSpherePackCallback@@UAEPAXI@Z		; SpherePackCallback::`scalar deleting destructor'
PUBLIC	?Clear@CFlyingInstance@@QAEXXZ			; CFlyingInstance::Clear
PUBLIC	?SetDataPointer@CFlyingInstance@@QAEXPAVCFlyingData@@ABUD3DXVECTOR3@@@Z ; CFlyingInstance::SetDataPointer
PUBLIC	?SetFlyTarget@CFlyingInstance@@QAEXABVCFlyTarget@@@Z ; CFlyingInstance::SetFlyTarget
PUBLIC	??0CFlyingInstance@@QAE@XZ			; CFlyingInstance::CFlyingInstance
PUBLIC	??1CFlyingInstance@@UAE@XZ			; CFlyingInstance::~CFlyingInstance
PUBLIC	?Destroy@CFlyingInstance@@QAEXXZ		; CFlyingInstance::Destroy
PUBLIC	?Create@CFlyingInstance@@QAEXPAVCFlyingData@@ABUD3DXVECTOR3@@ABVCFlyTarget@@_N@Z ; CFlyingInstance::Create
PUBLIC	?Update@CFlyingInstance@@QAE_NXZ		; CFlyingInstance::Update
PUBLIC	?Render@CFlyingInstance@@QAEXXZ			; CFlyingInstance::Render
PUBLIC	?AdjustDirectionForHoming@CFlyingInstance@@QAEXABUD3DXVECTOR3@@@Z ; CFlyingInstance::AdjustDirectionForHoming
PUBLIC	?BuildAttachInstance@CFlyingInstance@@QAEXXZ	; CFlyingInstance::BuildAttachInstance
PUBLIC	?UpdateAttachInstance@CFlyingInstance@@QAEXXZ	; CFlyingInstance::UpdateAttachInstance
PUBLIC	?RenderAttachInstance@CFlyingInstance@@QAEXXZ	; CFlyingInstance::RenderAttachInstance
PUBLIC	?ClearAttachInstance@CFlyingInstance@@QAEXXZ	; CFlyingInstance::ClearAttachInstance
PUBLIC	?__Explode@CFlyingInstance@@QAEX_N@Z		; CFlyingInstance::__Explode
PUBLIC	?__Bomb@CFlyingInstance@@QAEXXZ			; CFlyingInstance::__Bomb
PUBLIC	?__Initialize@CFlyingInstance@@IAEXXZ		; CFlyingInstance::__Initialize
PUBLIC	?__SetDataPointer@CFlyingInstance@@IAEXPAVCFlyingData@@ABUD3DXVECTOR3@@@Z ; CFlyingInstance::__SetDataPointer
PUBLIC	?__SetTargetDirection@CFlyingInstance@@IAEXABVCFlyTarget@@@Z ; CFlyingInstance::__SetTargetDirection
PUBLIC	?__SetTargetNormalizedDirection@CFlyingInstance@@IAEXABUD3DXVECTOR3@@@Z ; CFlyingInstance::__SetTargetNormalizedDirection
PUBLIC	?deallocate@?$allocator@UTAttachEffectInstance@CFlyingInstance@@@std@@QAEXQAUTAttachEffectInstance@CFlyingInstance@@I@Z ; std::allocator<CFlyingInstance::TAttachEffectInstance>::deallocate
PUBLIC	??1?$vector@UTAttachEffectInstance@CFlyingInstance@@V?$allocator@UTAttachEffectInstance@CFlyingInstance@@@std@@@std@@QAE@XZ ; std::vector<CFlyingInstance::TAttachEffectInstance,std::allocator<CFlyingInstance::TAttachEffectInstance> >::~vector<CFlyingInstance::TAttachEffectInstance,std::allocator<CFlyingInstance::TAttachEffectInstance> >
PUBLIC	?clear@?$vector@UTAttachEffectInstance@CFlyingInstance@@V?$allocator@UTAttachEffectInstance@CFlyingInstance@@@std@@@std@@QAEXXZ ; std::vector<CFlyingInstance::TAttachEffectInstance,std::allocator<CFlyingInstance::TAttachEffectInstance> >::clear
PUBLIC	?_Destroy@?$vector@UTAttachEffectInstance@CFlyingInstance@@V?$allocator@UTAttachEffectInstance@CFlyingInstance@@@std@@@std@@AAEXPAUTAttachEffectInstance@CFlyingInstance@@0@Z ; std::vector<CFlyingInstance::TAttachEffectInstance,std::allocator<CFlyingInstance::TAttachEffectInstance> >::_Destroy
PUBLIC	?_Calculate_growth@?$vector@UTAttachEffectInstance@CFlyingInstance@@V?$allocator@UTAttachEffectInstance@CFlyingInstance@@@std@@@std@@ABEII@Z ; std::vector<CFlyingInstance::TAttachEffectInstance,std::allocator<CFlyingInstance::TAttachEffectInstance> >::_Calculate_growth
PUBLIC	?_Change_array@?$vector@UTAttachEffectInstance@CFlyingInstance@@V?$allocator@UTAttachEffectInstance@CFlyingInstance@@@std@@@std@@AAEXQAUTAttachEffectInstance@CFlyingInstance@@II@Z ; std::vector<CFlyingInstance::TAttachEffectInstance,std::allocator<CFlyingInstance::TAttachEffectInstance> >::_Change_array
PUBLIC	?_Tidy@?$vector@UTAttachEffectInstance@CFlyingInstance@@V?$allocator@UTAttachEffectInstance@CFlyingInstance@@@std@@@std@@AAEXXZ ; std::vector<CFlyingInstance::TAttachEffectInstance,std::allocator<CFlyingInstance::TAttachEffectInstance> >::_Tidy
PUBLIC	?_Xlength@?$vector@UTAttachEffectInstance@CFlyingInstance@@V?$allocator@UTAttachEffectInstance@CFlyingInstance@@@std@@@std@@CAXXZ ; std::vector<CFlyingInstance::TAttachEffectInstance,std::allocator<CFlyingInstance::TAttachEffectInstance> >::_Xlength
PUBLIC	??0?$_Tree@V?$_Tset_traits@PAVIActorInstance@@U?$less@PAVIActorInstance@@@std@@V?$allocator@PAVIActorInstance@@@3@$0A@@std@@@std@@QAE@ABU?$less@PAVIActorInstance@@@1@@Z ; std::_Tree<std::_Tset_traits<IActorInstance *,std::less<IActorInstance *>,std::allocator<IActorInstance *>,0> >::_Tree<std::_Tset_traits<IActorInstance *,std::less<IActorInstance *>,std::allocator<IActorInstance *>,0> >
PUBLIC	??1?$_Tree@V?$_Tset_traits@PAVIActorInstance@@U?$less@PAVIActorInstance@@@std@@V?$allocator@PAVIActorInstance@@@3@$0A@@std@@@std@@QAE@XZ ; std::_Tree<std::_Tset_traits<IActorInstance *,std::less<IActorInstance *>,std::allocator<IActorInstance *>,0> >::~_Tree<std::_Tset_traits<IActorInstance *,std::less<IActorInstance *>,std::allocator<IActorInstance *>,0> >
PUBLIC	?max_size@?$_Tree@V?$_Tset_traits@PAVIActorInstance@@U?$less@PAVIActorInstance@@@std@@V?$allocator@PAVIActorInstance@@@3@$0A@@std@@@std@@QBEIXZ ; std::_Tree<std::_Tset_traits<IActorInstance *,std::less<IActorInstance *>,std::allocator<IActorInstance *>,0> >::max_size
PUBLIC	?clear@?$_Tree@V?$_Tset_traits@PAVIActorInstance@@U?$less@PAVIActorInstance@@@std@@V?$allocator@PAVIActorInstance@@@3@$0A@@std@@@std@@QAEXXZ ; std::_Tree<std::_Tset_traits<IActorInstance *,std::less<IActorInstance *>,std::allocator<IActorInstance *>,0> >::clear
PUBLIC	?_Check_grow_by_1@?$_Tree@V?$_Tset_traits@PAVIActorInstance@@U?$less@PAVIActorInstance@@@std@@V?$allocator@PAVIActorInstance@@@3@$0A@@std@@@std@@IAEXXZ ; std::_Tree<std::_Tset_traits<IActorInstance *,std::less<IActorInstance *>,std::allocator<IActorInstance *>,0> >::_Check_grow_by_1
PUBLIC	?_Alloc_sentinel_and_proxy@?$_Tree@V?$_Tset_traits@PAVIActorInstance@@U?$less@PAVIActorInstance@@@std@@V?$allocator@PAVIActorInstance@@@3@$0A@@std@@@std@@IAEXXZ ; std::_Tree<std::_Tset_traits<IActorInstance *,std::less<IActorInstance *>,std::allocator<IActorInstance *>,0> >::_Alloc_sentinel_and_proxy
PUBLIC	?_Lrotate@?$_Tree_val@U?$_Tree_simple_types@PAVIActorInstance@@@std@@@std@@QAEXPAU?$_Tree_node@PAVIActorInstance@@PAX@2@@Z ; std::_Tree_val<std::_Tree_simple_types<IActorInstance *> >::_Lrotate
PUBLIC	?_Rrotate@?$_Tree_val@U?$_Tree_simple_types@PAVIActorInstance@@@std@@@std@@QAEXPAU?$_Tree_node@PAVIActorInstance@@PAX@2@@Z ; std::_Tree_val<std::_Tree_simple_types<IActorInstance *> >::_Rrotate
PUBLIC	?_Insert_node@?$_Tree_val@U?$_Tree_simple_types@PAVIActorInstance@@@std@@@std@@QAEPAU?$_Tree_node@PAVIActorInstance@@PAX@2@U?$_Tree_id@PAU?$_Tree_node@PAVIActorInstance@@PAX@std@@@2@QAU32@@Z ; std::_Tree_val<std::_Tree_simple_types<IActorInstance *> >::_Insert_node
PUBLIC	??1?$set@PAVIActorInstance@@U?$less@PAVIActorInstance@@@std@@V?$allocator@PAVIActorInstance@@@3@@std@@QAE@XZ ; std::set<IActorInstance *,std::less<IActorInstance *>,std::allocator<IActorInstance *> >::~set<IActorInstance *,std::less<IActorInstance *>,std::allocator<IActorInstance *> >
PUBLIC	??_GCFlyingInstance@@UAEPAXI@Z			; CFlyingInstance::`scalar deleting destructor'
PUBLIC	??0?$CDynamicPool@VCFlyingInstance@@@@QAE@XZ	; CDynamicPool<CFlyingInstance>::CDynamicPool<CFlyingInstance>
PUBLIC	??1?$CDynamicPool@VCFlyingInstance@@@@UAE@XZ	; CDynamicPool<CFlyingInstance>::~CDynamicPool<CFlyingInstance>
PUBLIC	?_Tidy@?$vector@PAVCFlyingInstance@@V?$allocator@PAVCFlyingInstance@@@std@@@std@@AAEXXZ ; std::vector<CFlyingInstance *,std::allocator<CFlyingInstance *> >::_Tidy
PUBLIC	??_G?$CDynamicPool@VCFlyingInstance@@@@UAEPAXI@Z ; CDynamicPool<CFlyingInstance>::`scalar deleting destructor'
PUBLIC	??RFCheckBackgroundDuringFlying@@QAEXPAVCGraphicObjectInstance@@@Z ; FCheckBackgroundDuringFlying::operator()
PUBLIC	??RFCheckAnotherMonsterDuringFlying@@QAEXPAVCGraphicObjectInstance@@@Z ; FCheckAnotherMonsterDuringFlying::operator()
PUBLIC	??$ForInRange@UFCheckAnotherMonsterDuringFlying@@@CCullingManager@@QAEXABVVector3d@@MPAUFCheckAnotherMonsterDuringFlying@@@Z ; CCullingManager::ForInRange<FCheckAnotherMonsterDuringFlying>
PUBLIC	??$insert@$0A@$0A@@?$_Tree@V?$_Tset_traits@PAVIActorInstance@@U?$less@PAVIActorInstance@@@std@@V?$allocator@PAVIActorInstance@@@3@$0A@@std@@@std@@QAE?AU?$pair@V?$_Tree_const_iterator@V?$_Tree_val@U?$_Tree_simple_types@PAVIActorInstance@@@std@@@std@@@std@@_N@1@ABQAVIActorInstance@@@Z ; std::_Tree<std::_Tset_traits<IActorInstance *,std::less<IActorInstance *>,std::allocator<IActorInstance *>,0> >::insert<0,0>
PUBLIC	??$ForInRange@UFCheckBackgroundDuringFlying@@@CCullingManager@@QAEXABVVector3d@@MPAUFCheckBackgroundDuringFlying@@@Z ; CCullingManager::ForInRange<FCheckBackgroundDuringFlying>
PUBLIC	??$_Const_cast@$$CBUTAttachEffectInstance@CFlyingInstance@@@std@@YAPAUTAttachEffectInstance@CFlyingInstance@@PBU12@@Z ; std::_Const_cast<CFlyingInstance::TAttachEffectInstance const >
PUBLIC	??$_Find@PAVIActorInstance@@@?$_Tree@V?$_Tset_traits@PAVIActorInstance@@U?$less@PAVIActorInstance@@@std@@V?$allocator@PAVIActorInstance@@@3@$0A@@std@@@std@@ABEPAU?$_Tree_node@PAVIActorInstance@@PAX@1@ABQAVIActorInstance@@@Z ; std::_Tree<std::_Tset_traits<IActorInstance *,std::less<IActorInstance *>,std::allocator<IActorInstance *>,0> >::_Find<IActorInstance *>
PUBLIC	??$_Erase_tree@V?$allocator@U?$_Tree_node@PAVIActorInstance@@PAX@std@@@std@@@?$_Tree_val@U?$_Tree_simple_types@PAVIActorInstance@@@std@@@std@@QAEXAAV?$allocator@U?$_Tree_node@PAVIActorInstance@@PAX@std@@@1@PAU?$_Tree_node@PAVIActorInstance@@PAX@1@@Z ; std::_Tree_val<std::_Tree_simple_types<IActorInstance *> >::_Erase_tree<std::allocator<std::_Tree_node<IActorInstance *,void *> > >
PUBLIC	??$emplace_back@ABUTAttachEffectInstance@CFlyingInstance@@@?$vector@UTAttachEffectInstance@CFlyingInstance@@V?$allocator@UTAttachEffectInstance@CFlyingInstance@@@std@@@std@@QAEXABUTAttachEffectInstance@CFlyingInstance@@@Z ; std::vector<CFlyingInstance::TAttachEffectInstance,std::allocator<CFlyingInstance::TAttachEffectInstance> >::emplace_back<CFlyingInstance::TAttachEffectInstance const &>
PUBLIC	??$_Emplace_reallocate@ABUTAttachEffectInstance@CFlyingInstance@@@?$vector@UTAttachEffectInstance@CFlyingInstance@@V?$allocator@UTAttachEffectInstance@CFlyingInstance@@@std@@@std@@QAEPAUTAttachEffectInstance@CFlyingInstance@@QAU23@ABU23@@Z ; std::vector<CFlyingInstance::TAttachEffectInstance,std::allocator<CFlyingInstance::TAttachEffectInstance> >::_Emplace_reallocate<CFlyingInstance::TAttachEffectInstance const &>
PUBLIC	??0?$CDynamicPoolEx@VCRotationDecorator@NEffectUpdateDecorator@@@@QAE@XZ ; CDynamicPoolEx<NEffectUpdateDecorator::CRotationDecorator>::CDynamicPoolEx<NEffectUpdateDecorator::CRotationDecorator>
PUBLIC	??1?$CDynamicPoolEx@VCRotationDecorator@NEffectUpdateDecorator@@@@UAE@XZ ; CDynamicPoolEx<NEffectUpdateDecorator::CRotationDecorator>::~CDynamicPoolEx<NEffectUpdateDecorator::CRotationDecorator>
PUBLIC	?Destroy@?$CDynamicPoolEx@VCRotationDecorator@NEffectUpdateDecorator@@@@QAEXXZ ; CDynamicPoolEx<NEffectUpdateDecorator::CRotationDecorator>::Destroy
PUBLIC	?Delete@?$CDynamicPoolEx@VCRotationDecorator@NEffectUpdateDecorator@@@@KAXPAVCRotationDecorator@NEffectUpdateDecorator@@@Z ; CDynamicPoolEx<NEffectUpdateDecorator::CRotationDecorator>::Delete
PUBLIC	?clear@?$vector@PAVCRotationDecorator@NEffectUpdateDecorator@@V?$allocator@PAVCRotationDecorator@NEffectUpdateDecorator@@@std@@@std@@QAEXXZ ; std::vector<NEffectUpdateDecorator::CRotationDecorator *,std::allocator<NEffectUpdateDecorator::CRotationDecorator *> >::clear
PUBLIC	?_Tidy@?$vector@PAVCRotationDecorator@NEffectUpdateDecorator@@V?$allocator@PAVCRotationDecorator@NEffectUpdateDecorator@@@std@@@std@@AAEXXZ ; std::vector<NEffectUpdateDecorator::CRotationDecorator *,std::allocator<NEffectUpdateDecorator::CRotationDecorator *> >::_Tidy
PUBLIC	??_G?$CDynamicPoolEx@VCRotationDecorator@NEffectUpdateDecorator@@@@UAEPAXI@Z ; CDynamicPoolEx<NEffectUpdateDecorator::CRotationDecorator>::`scalar deleting destructor'
PUBLIC	??0?$CDynamicPoolEx@VCGravityDecorator@NEffectUpdateDecorator@@@@QAE@XZ ; CDynamicPoolEx<NEffectUpdateDecorator::CGravityDecorator>::CDynamicPoolEx<NEffectUpdateDecorator::CGravityDecorator>
PUBLIC	??1?$CDynamicPoolEx@VCGravityDecorator@NEffectUpdateDecorator@@@@UAE@XZ ; CDynamicPoolEx<NEffectUpdateDecorator::CGravityDecorator>::~CDynamicPoolEx<NEffectUpdateDecorator::CGravityDecorator>
PUBLIC	?Destroy@?$CDynamicPoolEx@VCGravityDecorator@NEffectUpdateDecorator@@@@QAEXXZ ; CDynamicPoolEx<NEffectUpdateDecorator::CGravityDecorator>::Destroy
PUBLIC	?Delete@?$CDynamicPoolEx@VCGravityDecorator@NEffectUpdateDecorator@@@@KAXPAVCGravityDecorator@NEffectUpdateDecorator@@@Z ; CDynamicPoolEx<NEffectUpdateDecorator::CGravityDecorator>::Delete
PUBLIC	?clear@?$vector@PAVCGravityDecorator@NEffectUpdateDecorator@@V?$allocator@PAVCGravityDecorator@NEffectUpdateDecorator@@@std@@@std@@QAEXXZ ; std::vector<NEffectUpdateDecorator::CGravityDecorator *,std::allocator<NEffectUpdateDecorator::CGravityDecorator *> >::clear
PUBLIC	?_Tidy@?$vector@PAVCGravityDecorator@NEffectUpdateDecorator@@V?$allocator@PAVCGravityDecorator@NEffectUpdateDecorator@@@std@@@std@@AAEXXZ ; std::vector<NEffectUpdateDecorator::CGravityDecorator *,std::allocator<NEffectUpdateDecorator::CGravityDecorator *> >::_Tidy
PUBLIC	??_G?$CDynamicPoolEx@VCGravityDecorator@NEffectUpdateDecorator@@@@UAEPAXI@Z ; CDynamicPoolEx<NEffectUpdateDecorator::CGravityDecorator>::`scalar deleting destructor'
PUBLIC	??0?$CDynamicPoolEx@VCAirResistanceDecorator@NEffectUpdateDecorator@@@@QAE@XZ ; CDynamicPoolEx<NEffectUpdateDecorator::CAirResistanceDecorator>::CDynamicPoolEx<NEffectUpdateDecorator::CAirResistanceDecorator>
PUBLIC	??1?$CDynamicPoolEx@VCAirResistanceDecorator@NEffectUpdateDecorator@@@@UAE@XZ ; CDynamicPoolEx<NEffectUpdateDecorator::CAirResistanceDecorator>::~CDynamicPoolEx<NEffectUpdateDecorator::CAirResistanceDecorator>
PUBLIC	?Destroy@?$CDynamicPoolEx@VCAirResistanceDecorator@NEffectUpdateDecorator@@@@QAEXXZ ; CDynamicPoolEx<NEffectUpdateDecorator::CAirResistanceDecorator>::Destroy
PUBLIC	?Delete@?$CDynamicPoolEx@VCAirResistanceDecorator@NEffectUpdateDecorator@@@@KAXPAVCAirResistanceDecorator@NEffectUpdateDecorator@@@Z ; CDynamicPoolEx<NEffectUpdateDecorator::CAirResistanceDecorator>::Delete
PUBLIC	?clear@?$vector@PAVCAirResistanceDecorator@NEffectUpdateDecorator@@V?$allocator@PAVCAirResistanceDecorator@NEffectUpdateDecorator@@@std@@@std@@QAEXXZ ; std::vector<NEffectUpdateDecorator::CAirResistanceDecorator *,std::allocator<NEffectUpdateDecorator::CAirResistanceDecorator *> >::clear
PUBLIC	?_Tidy@?$vector@PAVCAirResistanceDecorator@NEffectUpdateDecorator@@V?$allocator@PAVCAirResistanceDecorator@NEffectUpdateDecorator@@@std@@@std@@AAEXXZ ; std::vector<NEffectUpdateDecorator::CAirResistanceDecorator *,std::allocator<NEffectUpdateDecorator::CAirResistanceDecorator *> >::_Tidy
PUBLIC	??_G?$CDynamicPoolEx@VCAirResistanceDecorator@NEffectUpdateDecorator@@@@UAEPAXI@Z ; CDynamicPoolEx<NEffectUpdateDecorator::CAirResistanceDecorator>::`scalar deleting destructor'
PUBLIC	??0?$CDynamicPoolEx@VCTextureAnimationRandomDecorator@NEffectUpdateDecorator@@@@QAE@XZ ; CDynamicPoolEx<NEffectUpdateDecorator::CTextureAnimationRandomDecorator>::CDynamicPoolEx<NEffectUpdateDecorator::CTextureAnimationRandomDecorator>
PUBLIC	??1?$CDynamicPoolEx@VCTextureAnimationRandomDecorator@NEffectUpdateDecorator@@@@UAE@XZ ; CDynamicPoolEx<NEffectUpdateDecorator::CTextureAnimationRandomDecorator>::~CDynamicPoolEx<NEffectUpdateDecorator::CTextureAnimationRandomDecorator>
PUBLIC	?Destroy@?$CDynamicPoolEx@VCTextureAnimationRandomDecorator@NEffectUpdateDecorator@@@@QAEXXZ ; CDynamicPoolEx<NEffectUpdateDecorator::CTextureAnimationRandomDecorator>::Destroy
PUBLIC	?Delete@?$CDynamicPoolEx@VCTextureAnimationRandomDecorator@NEffectUpdateDecorator@@@@KAXPAVCTextureAnimationRandomDecorator@NEffectUpdateDecorator@@@Z ; CDynamicPoolEx<NEffectUpdateDecorator::CTextureAnimationRandomDecorator>::Delete
PUBLIC	?clear@?$vector@PAVCTextureAnimationRandomDecorator@NEffectUpdateDecorator@@V?$allocator@PAVCTextureAnimationRandomDecorator@NEffectUpdateDecorator@@@std@@@std@@QAEXXZ ; std::vector<NEffectUpdateDecorator::CTextureAnimationRandomDecorator *,std::allocator<NEffectUpdateDecorator::CTextureAnimationRandomDecorator *> >::clear
PUBLIC	?_Tidy@?$vector@PAVCTextureAnimationRandomDecorator@NEffectUpdateDecorator@@V?$allocator@PAVCTextureAnimationRandomDecorator@NEffectUpdateDecorator@@@std@@@std@@AAEXXZ ; std::vector<NEffectUpdateDecorator::CTextureAnimationRandomDecorator *,std::allocator<NEffectUpdateDecorator::CTextureAnimationRandomDecorator *> >::_Tidy
PUBLIC	??_G?$CDynamicPoolEx@VCTextureAnimationRandomDecorator@NEffectUpdateDecorator@@@@UAEPAXI@Z ; CDynamicPoolEx<NEffectUpdateDecorator::CTextureAnimationRandomDecorator>::`scalar deleting destructor'
PUBLIC	??0?$CDynamicPoolEx@VCTextureAnimationCCWDecorator@NEffectUpdateDecorator@@@@QAE@XZ ; CDynamicPoolEx<NEffectUpdateDecorator::CTextureAnimationCCWDecorator>::CDynamicPoolEx<NEffectUpdateDecorator::CTextureAnimationCCWDecorator>
PUBLIC	??1?$CDynamicPoolEx@VCTextureAnimationCCWDecorator@NEffectUpdateDecorator@@@@UAE@XZ ; CDynamicPoolEx<NEffectUpdateDecorator::CTextureAnimationCCWDecorator>::~CDynamicPoolEx<NEffectUpdateDecorator::CTextureAnimationCCWDecorator>
PUBLIC	?Destroy@?$CDynamicPoolEx@VCTextureAnimationCCWDecorator@NEffectUpdateDecorator@@@@QAEXXZ ; CDynamicPoolEx<NEffectUpdateDecorator::CTextureAnimationCCWDecorator>::Destroy
PUBLIC	?Delete@?$CDynamicPoolEx@VCTextureAnimationCCWDecorator@NEffectUpdateDecorator@@@@KAXPAVCTextureAnimationCCWDecorator@NEffectUpdateDecorator@@@Z ; CDynamicPoolEx<NEffectUpdateDecorator::CTextureAnimationCCWDecorator>::Delete
PUBLIC	?clear@?$vector@PAVCTextureAnimationCCWDecorator@NEffectUpdateDecorator@@V?$allocator@PAVCTextureAnimationCCWDecorator@NEffectUpdateDecorator@@@std@@@std@@QAEXXZ ; std::vector<NEffectUpdateDecorator::CTextureAnimationCCWDecorator *,std::allocator<NEffectUpdateDecorator::CTextureAnimationCCWDecorator *> >::clear
PUBLIC	?_Tidy@?$vector@PAVCTextureAnimationCCWDecorator@NEffectUpdateDecorator@@V?$allocator@PAVCTextureAnimationCCWDecorator@NEffectUpdateDecorator@@@std@@@std@@AAEXXZ ; std::vector<NEffectUpdateDecorator::CTextureAnimationCCWDecorator *,std::allocator<NEffectUpdateDecorator::CTextureAnimationCCWDecorator *> >::_Tidy
PUBLIC	??_G?$CDynamicPoolEx@VCTextureAnimationCCWDecorator@NEffectUpdateDecorator@@@@UAEPAXI@Z ; CDynamicPoolEx<NEffectUpdateDecorator::CTextureAnimationCCWDecorator>::`scalar deleting destructor'
PUBLIC	??0?$CDynamicPoolEx@VCTextureAnimationCWDecorator@NEffectUpdateDecorator@@@@QAE@XZ ; CDynamicPoolEx<NEffectUpdateDecorator::CTextureAnimationCWDecorator>::CDynamicPoolEx<NEffectUpdateDecorator::CTextureAnimationCWDecorator>
PUBLIC	??1?$CDynamicPoolEx@VCTextureAnimationCWDecorator@NEffectUpdateDecorator@@@@UAE@XZ ; CDynamicPoolEx<NEffectUpdateDecorator::CTextureAnimationCWDecorator>::~CDynamicPoolEx<NEffectUpdateDecorator::CTextureAnimationCWDecorator>
PUBLIC	?Destroy@?$CDynamicPoolEx@VCTextureAnimationCWDecorator@NEffectUpdateDecorator@@@@QAEXXZ ; CDynamicPoolEx<NEffectUpdateDecorator::CTextureAnimationCWDecorator>::Destroy
PUBLIC	?Delete@?$CDynamicPoolEx@VCTextureAnimationCWDecorator@NEffectUpdateDecorator@@@@KAXPAVCTextureAnimationCWDecorator@NEffectUpdateDecorator@@@Z ; CDynamicPoolEx<NEffectUpdateDecorator::CTextureAnimationCWDecorator>::Delete
PUBLIC	?clear@?$vector@PAVCTextureAnimationCWDecorator@NEffectUpdateDecorator@@V?$allocator@PAVCTextureAnimationCWDecorator@NEffectUpdateDecorator@@@std@@@std@@QAEXXZ ; std::vector<NEffectUpdateDecorator::CTextureAnimationCWDecorator *,std::allocator<NEffectUpdateDecorator::CTextureAnimationCWDecorator *> >::clear
PUBLIC	?_Tidy@?$vector@PAVCTextureAnimationCWDecorator@NEffectUpdateDecorator@@V?$allocator@PAVCTextureAnimationCWDecorator@NEffectUpdateDecorator@@@std@@@std@@AAEXXZ ; std::vector<NEffectUpdateDecorator::CTextureAnimationCWDecorator *,std::allocator<NEffectUpdateDecorator::CTextureAnimationCWDecorator *> >::_Tidy
PUBLIC	??_G?$CDynamicPoolEx@VCTextureAnimationCWDecorator@NEffectUpdateDecorator@@@@UAEPAXI@Z ; CDynamicPoolEx<NEffectUpdateDecorator::CTextureAnimationCWDecorator>::`scalar deleting destructor'
PUBLIC	??0?$CDynamicPoolEx@VCNullDecorator@NEffectUpdateDecorator@@@@QAE@XZ ; CDynamicPoolEx<NEffectUpdateDecorator::CNullDecorator>::CDynamicPoolEx<NEffectUpdateDecorator::CNullDecorator>
PUBLIC	??1?$CDynamicPoolEx@VCNullDecorator@NEffectUpdateDecorator@@@@UAE@XZ ; CDynamicPoolEx<NEffectUpdateDecorator::CNullDecorator>::~CDynamicPoolEx<NEffectUpdateDecorator::CNullDecorator>
PUBLIC	?Destroy@?$CDynamicPoolEx@VCNullDecorator@NEffectUpdateDecorator@@@@QAEXXZ ; CDynamicPoolEx<NEffectUpdateDecorator::CNullDecorator>::Destroy
PUBLIC	?Delete@?$CDynamicPoolEx@VCNullDecorator@NEffectUpdateDecorator@@@@KAXPAVCNullDecorator@NEffectUpdateDecorator@@@Z ; CDynamicPoolEx<NEffectUpdateDecorator::CNullDecorator>::Delete
PUBLIC	?clear@?$vector@PAVCNullDecorator@NEffectUpdateDecorator@@V?$allocator@PAVCNullDecorator@NEffectUpdateDecorator@@@std@@@std@@QAEXXZ ; std::vector<NEffectUpdateDecorator::CNullDecorator *,std::allocator<NEffectUpdateDecorator::CNullDecorator *> >::clear
PUBLIC	?_Tidy@?$vector@PAVCNullDecorator@NEffectUpdateDecorator@@V?$allocator@PAVCNullDecorator@NEffectUpdateDecorator@@@std@@@std@@AAEXXZ ; std::vector<NEffectUpdateDecorator::CNullDecorator *,std::allocator<NEffectUpdateDecorator::CNullDecorator *> >::_Tidy
PUBLIC	??_G?$CDynamicPoolEx@VCNullDecorator@NEffectUpdateDecorator@@@@UAEPAXI@Z ; CDynamicPoolEx<NEffectUpdateDecorator::CNullDecorator>::`scalar deleting destructor'
PUBLIC	??0?$CDynamicPoolEx@VCHeaderDecorator@NEffectUpdateDecorator@@@@QAE@XZ ; CDynamicPoolEx<NEffectUpdateDecorator::CHeaderDecorator>::CDynamicPoolEx<NEffectUpdateDecorator::CHeaderDecorator>
PUBLIC	??1?$CDynamicPoolEx@VCHeaderDecorator@NEffectUpdateDecorator@@@@UAE@XZ ; CDynamicPoolEx<NEffectUpdateDecorator::CHeaderDecorator>::~CDynamicPoolEx<NEffectUpdateDecorator::CHeaderDecorator>
PUBLIC	?Destroy@?$CDynamicPoolEx@VCHeaderDecorator@NEffectUpdateDecorator@@@@QAEXXZ ; CDynamicPoolEx<NEffectUpdateDecorator::CHeaderDecorator>::Destroy
PUBLIC	?Delete@?$CDynamicPoolEx@VCHeaderDecorator@NEffectUpdateDecorator@@@@KAXPAVCHeaderDecorator@NEffectUpdateDecorator@@@Z ; CDynamicPoolEx<NEffectUpdateDecorator::CHeaderDecorator>::Delete
PUBLIC	?clear@?$vector@PAVCHeaderDecorator@NEffectUpdateDecorator@@V?$allocator@PAVCHeaderDecorator@NEffectUpdateDecorator@@@std@@@std@@QAEXXZ ; std::vector<NEffectUpdateDecorator::CHeaderDecorator *,std::allocator<NEffectUpdateDecorator::CHeaderDecorator *> >::clear
PUBLIC	?_Tidy@?$vector@PAVCHeaderDecorator@NEffectUpdateDecorator@@V?$allocator@PAVCHeaderDecorator@NEffectUpdateDecorator@@@std@@@std@@AAEXXZ ; std::vector<NEffectUpdateDecorator::CHeaderDecorator *,std::allocator<NEffectUpdateDecorator::CHeaderDecorator *> >::_Tidy
PUBLIC	??_G?$CDynamicPoolEx@VCHeaderDecorator@NEffectUpdateDecorator@@@@UAEPAXI@Z ; CDynamicPoolEx<NEffectUpdateDecorator::CHeaderDecorator>::`scalar deleting destructor'
PUBLIC	??$_Destroy_range@V?$allocator@UTAttachEffectInstance@CFlyingInstance@@@std@@@std@@YAXPAUTAttachEffectInstance@CFlyingInstance@@QAU12@AAV?$allocator@UTAttachEffectInstance@CFlyingInstance@@@0@@Z ; std::_Destroy_range<std::allocator<CFlyingInstance::TAttachEffectInstance> >
PUBLIC	??$for_each@V?$_Vector_iterator@V?$_Vector_val@U?$_Simple_types@PAVCHeaderDecorator@NEffectUpdateDecorator@@@std@@@std@@@std@@P6AXPAVCHeaderDecorator@NEffectUpdateDecorator@@@Z@std@@YAP6AXPAVCHeaderDecorator@NEffectUpdateDecorator@@@ZV?$_Vector_iterator@V?$_Vector_val@U?$_Simple_types@PAVCHeaderDecorator@NEffectUpdateDecorator@@@std@@@std@@@0@1P6AX0@Z@Z ; std::for_each<std::_Vector_iterator<std::_Vector_val<std::_Simple_types<NEffectUpdateDecorator::CHeaderDecorator *> > >,void (__cdecl*)(NEffectUpdateDecorator::CHeaderDecorator *)>
PUBLIC	??$for_each@V?$_Vector_iterator@V?$_Vector_val@U?$_Simple_types@PAVCNullDecorator@NEffectUpdateDecorator@@@std@@@std@@@std@@P6AXPAVCNullDecorator@NEffectUpdateDecorator@@@Z@std@@YAP6AXPAVCNullDecorator@NEffectUpdateDecorator@@@ZV?$_Vector_iterator@V?$_Vector_val@U?$_Simple_types@PAVCNullDecorator@NEffectUpdateDecorator@@@std@@@std@@@0@1P6AX0@Z@Z ; std::for_each<std::_Vector_iterator<std::_Vector_val<std::_Simple_types<NEffectUpdateDecorator::CNullDecorator *> > >,void (__cdecl*)(NEffectUpdateDecorator::CNullDecorator *)>
PUBLIC	??$for_each@V?$_Vector_iterator@V?$_Vector_val@U?$_Simple_types@PAVCTextureAnimationCWDecorator@NEffectUpdateDecorator@@@std@@@std@@@std@@P6AXPAVCTextureAnimationCWDecorator@NEffectUpdateDecorator@@@Z@std@@YAP6AXPAVCTextureAnimationCWDecorator@NEffectUpdateDecorator@@@ZV?$_Vector_iterator@V?$_Vector_val@U?$_Simple_types@PAVCTextureAnimationCWDecorator@NEffectUpdateDecorator@@@std@@@std@@@0@1P6AX0@Z@Z ; std::for_each<std::_Vector_iterator<std::_Vector_val<std::_Simple_types<NEffectUpdateDecorator::CTextureAnimationCWDecorator *> > >,void (__cdecl*)(NEffectUpdateDecorator::CTextureAnimationCWDecorator *)>
PUBLIC	??$for_each@V?$_Vector_iterator@V?$_Vector_val@U?$_Simple_types@PAVCTextureAnimationCCWDecorator@NEffectUpdateDecorator@@@std@@@std@@@std@@P6AXPAVCTextureAnimationCCWDecorator@NEffectUpdateDecorator@@@Z@std@@YAP6AXPAVCTextureAnimationCCWDecorator@NEffectUpdateDecorator@@@ZV?$_Vector_iterator@V?$_Vector_val@U?$_Simple_types@PAVCTextureAnimationCCWDecorator@NEffectUpdateDecorator@@@std@@@std@@@0@1P6AX0@Z@Z ; std::for_each<std::_Vector_iterator<std::_Vector_val<std::_Simple_types<NEffectUpdateDecorator::CTextureAnimationCCWDecorator *> > >,void (__cdecl*)(NEffectUpdateDecorator::CTextureAnimationCCWDecorator *)>
PUBLIC	??$for_each@V?$_Vector_iterator@V?$_Vector_val@U?$_Simple_types@PAVCTextureAnimationRandomDecorator@NEffectUpdateDecorator@@@std@@@std@@@std@@P6AXPAVCTextureAnimationRandomDecorator@NEffectUpdateDecorator@@@Z@std@@YAP6AXPAVCTextureAnimationRandomDecorator@NEffectUpdateDecorator@@@ZV?$_Vector_iterator@V?$_Vector_val@U?$_Simple_types@PAVCTextureAnimationRandomDecorator@NEffectUpdateDecorator@@@std@@@std@@@0@1P6AX0@Z@Z ; std::for_each<std::_Vector_iterator<std::_Vector_val<std::_Simple_types<NEffectUpdateDecorator::CTextureAnimationRandomDecorator *> > >,void (__cdecl*)(NEffectUpdateDecorator::CTextureAnimationRandomDecorator *)>
PUBLIC	??$for_each@V?$_Vector_iterator@V?$_Vector_val@U?$_Simple_types@PAVCAirResistanceDecorator@NEffectUpdateDecorator@@@std@@@std@@@std@@P6AXPAVCAirResistanceDecorator@NEffectUpdateDecorator@@@Z@std@@YAP6AXPAVCAirResistanceDecorator@NEffectUpdateDecorator@@@ZV?$_Vector_iterator@V?$_Vector_val@U?$_Simple_types@PAVCAirResistanceDecorator@NEffectUpdateDecorator@@@std@@@std@@@0@1P6AX0@Z@Z ; std::for_each<std::_Vector_iterator<std::_Vector_val<std::_Simple_types<NEffectUpdateDecorator::CAirResistanceDecorator *> > >,void (__cdecl*)(NEffectUpdateDecorator::CAirResistanceDecorator *)>
PUBLIC	??$for_each@V?$_Vector_iterator@V?$_Vector_val@U?$_Simple_types@PAVCGravityDecorator@NEffectUpdateDecorator@@@std@@@std@@@std@@P6AXPAVCGravityDecorator@NEffectUpdateDecorator@@@Z@std@@YAP6AXPAVCGravityDecorator@NEffectUpdateDecorator@@@ZV?$_Vector_iterator@V?$_Vector_val@U?$_Simple_types@PAVCGravityDecorator@NEffectUpdateDecorator@@@std@@@std@@@0@1P6AX0@Z@Z ; std::for_each<std::_Vector_iterator<std::_Vector_val<std::_Simple_types<NEffectUpdateDecorator::CGravityDecorator *> > >,void (__cdecl*)(NEffectUpdateDecorator::CGravityDecorator *)>
PUBLIC	??$for_each@V?$_Vector_iterator@V?$_Vector_val@U?$_Simple_types@PAVCRotationDecorator@NEffectUpdateDecorator@@@std@@@std@@@std@@P6AXPAVCRotationDecorator@NEffectUpdateDecorator@@@Z@std@@YAP6AXPAVCRotationDecorator@NEffectUpdateDecorator@@@ZV?$_Vector_iterator@V?$_Vector_val@U?$_Simple_types@PAVCRotationDecorator@NEffectUpdateDecorator@@@std@@@std@@@0@1P6AX0@Z@Z ; std::for_each<std::_Vector_iterator<std::_Vector_val<std::_Simple_types<NEffectUpdateDecorator::CRotationDecorator *> > >,void (__cdecl*)(NEffectUpdateDecorator::CRotationDecorator *)>
PUBLIC	??$_Destroy_range@V?$allocator@PAVCFlyingInstance@@@std@@@std@@YAXPAPAVCFlyingInstance@@QAPAV1@AAV?$allocator@PAVCFlyingInstance@@@0@@Z ; std::_Destroy_range<std::allocator<CFlyingInstance *> >
PUBLIC	??$_Buyheadnode@V?$allocator@U?$_Tree_node@PAVIActorInstance@@PAX@std@@@std@@@?$_Tree_node@PAVIActorInstance@@PAX@std@@SAPAU01@AAV?$allocator@U?$_Tree_node@PAVIActorInstance@@PAX@std@@@1@@Z ; std::_Tree_node<IActorInstance *,void *>::_Buyheadnode<std::allocator<std::_Tree_node<IActorInstance *,void *> > >
PUBLIC	??$_Destroy_range@V?$allocator@PAVCHeaderDecorator@NEffectUpdateDecorator@@@std@@@std@@YAXPAPAVCHeaderDecorator@NEffectUpdateDecorator@@QAPAV12@AAV?$allocator@PAVCHeaderDecorator@NEffectUpdateDecorator@@@0@@Z ; std::_Destroy_range<std::allocator<NEffectUpdateDecorator::CHeaderDecorator *> >
PUBLIC	??$_Destroy_range@V?$allocator@PAVCNullDecorator@NEffectUpdateDecorator@@@std@@@std@@YAXPAPAVCNullDecorator@NEffectUpdateDecorator@@QAPAV12@AAV?$allocator@PAVCNullDecorator@NEffectUpdateDecorator@@@0@@Z ; std::_Destroy_range<std::allocator<NEffectUpdateDecorator::CNullDecorator *> >
PUBLIC	??$_Destroy_range@V?$allocator@PAVCTextureAnimationCWDecorator@NEffectUpdateDecorator@@@std@@@std@@YAXPAPAVCTextureAnimationCWDecorator@NEffectUpdateDecorator@@QAPAV12@AAV?$allocator@PAVCTextureAnimationCWDecorator@NEffectUpdateDecorator@@@0@@Z ; std::_Destroy_range<std::allocator<NEffectUpdateDecorator::CTextureAnimationCWDecorator *> >
PUBLIC	??$_Destroy_range@V?$allocator@PAVCTextureAnimationCCWDecorator@NEffectUpdateDecorator@@@std@@@std@@YAXPAPAVCTextureAnimationCCWDecorator@NEffectUpdateDecorator@@QAPAV12@AAV?$allocator@PAVCTextureAnimationCCWDecorator@NEffectUpdateDecorator@@@0@@Z ; std::_Destroy_range<std::allocator<NEffectUpdateDecorator::CTextureAnimationCCWDecorator *> >
PUBLIC	??$_Destroy_range@V?$allocator@PAVCTextureAnimationRandomDecorator@NEffectUpdateDecorator@@@std@@@std@@YAXPAPAVCTextureAnimationRandomDecorator@NEffectUpdateDecorator@@QAPAV12@AAV?$allocator@PAVCTextureAnimationRandomDecorator@NEffectUpdateDecorator@@@0@@Z ; std::_Destroy_range<std::allocator<NEffectUpdateDecorator::CTextureAnimationRandomDecorator *> >
PUBLIC	??$_Destroy_range@V?$allocator@PAVCAirResistanceDecorator@NEffectUpdateDecorator@@@std@@@std@@YAXPAPAVCAirResistanceDecorator@NEffectUpdateDecorator@@QAPAV12@AAV?$allocator@PAVCAirResistanceDecorator@NEffectUpdateDecorator@@@0@@Z ; std::_Destroy_range<std::allocator<NEffectUpdateDecorator::CAirResistanceDecorator *> >
PUBLIC	??$_Destroy_range@V?$allocator@PAVCGravityDecorator@NEffectUpdateDecorator@@@std@@@std@@YAXPAPAVCGravityDecorator@NEffectUpdateDecorator@@QAPAV12@AAV?$allocator@PAVCGravityDecorator@NEffectUpdateDecorator@@@0@@Z ; std::_Destroy_range<std::allocator<NEffectUpdateDecorator::CGravityDecorator *> >
PUBLIC	??$_Destroy_range@V?$allocator@PAVCRotationDecorator@NEffectUpdateDecorator@@@std@@@std@@YAXPAPAVCRotationDecorator@NEffectUpdateDecorator@@QAPAV12@AAV?$allocator@PAVCRotationDecorator@NEffectUpdateDecorator@@@0@@Z ; std::_Destroy_range<std::allocator<NEffectUpdateDecorator::CRotationDecorator *> >
PUBLIC	??1?$RangeTester@UFCheckAnotherMonsterDuringFlying@@@@UAE@XZ ; RangeTester<FCheckAnotherMonsterDuringFlying>::~RangeTester<FCheckAnotherMonsterDuringFlying>
PUBLIC	?RayTraceCallback@?$RangeTester@UFCheckAnotherMonsterDuringFlying@@@@UAEXABVVector3d@@0M0PAVSpherePack@@@Z ; RangeTester<FCheckAnotherMonsterDuringFlying>::RayTraceCallback
PUBLIC	?VisibilityCallback@?$RangeTester@UFCheckAnotherMonsterDuringFlying@@@@UAEXABVFrustum@@PAVSpherePack@@W4ViewState@@@Z ; RangeTester<FCheckAnotherMonsterDuringFlying>::VisibilityCallback
PUBLIC	?RangeTestCallback@?$RangeTester@UFCheckAnotherMonsterDuringFlying@@@@UAEXABVVector3d@@MPAVSpherePack@@W4ViewState@@@Z ; RangeTester<FCheckAnotherMonsterDuringFlying>::RangeTestCallback
PUBLIC	?PointTest2dCallback@?$RangeTester@UFCheckAnotherMonsterDuringFlying@@@@UAEXABVVector3d@@PAVSpherePack@@W4ViewState@@@Z ; RangeTester<FCheckAnotherMonsterDuringFlying>::PointTest2dCallback
PUBLIC	??_G?$RangeTester@UFCheckAnotherMonsterDuringFlying@@@@UAEPAXI@Z ; RangeTester<FCheckAnotherMonsterDuringFlying>::`scalar deleting destructor'
PUBLIC	??$_Emplace@ABQAVIActorInstance@@@?$_Tree@V?$_Tset_traits@PAVIActorInstance@@U?$less@PAVIActorInstance@@@std@@V?$allocator@PAVIActorInstance@@@3@$0A@@std@@@std@@IAE?AU?$pair@PAU?$_Tree_node@PAVIActorInstance@@PAX@std@@_N@1@ABQAVIActorInstance@@@Z ; std::_Tree<std::_Tset_traits<IActorInstance *,std::less<IActorInstance *>,std::allocator<IActorInstance *>,0> >::_Emplace<IActorInstance * const &>
PUBLIC	??1?$RangeTester@UFCheckBackgroundDuringFlying@@@@UAE@XZ ; RangeTester<FCheckBackgroundDuringFlying>::~RangeTester<FCheckBackgroundDuringFlying>
PUBLIC	?RayTraceCallback@?$RangeTester@UFCheckBackgroundDuringFlying@@@@UAEXABVVector3d@@0M0PAVSpherePack@@@Z ; RangeTester<FCheckBackgroundDuringFlying>::RayTraceCallback
PUBLIC	?VisibilityCallback@?$RangeTester@UFCheckBackgroundDuringFlying@@@@UAEXABVFrustum@@PAVSpherePack@@W4ViewState@@@Z ; RangeTester<FCheckBackgroundDuringFlying>::VisibilityCallback
PUBLIC	?RangeTestCallback@?$RangeTester@UFCheckBackgroundDuringFlying@@@@UAEXABVVector3d@@MPAVSpherePack@@W4ViewState@@@Z ; RangeTester<FCheckBackgroundDuringFlying>::RangeTestCallback
PUBLIC	?PointTest2dCallback@?$RangeTester@UFCheckBackgroundDuringFlying@@@@UAEXABVVector3d@@PAVSpherePack@@W4ViewState@@@Z ; RangeTester<FCheckBackgroundDuringFlying>::PointTest2dCallback
PUBLIC	??_G?$RangeTester@UFCheckBackgroundDuringFlying@@@@UAEPAXI@Z ; RangeTester<FCheckBackgroundDuringFlying>::`scalar deleting destructor'
PUBLIC	??$_Find_lower_bound@PAVIActorInstance@@@?$_Tree@V?$_Tset_traits@PAVIActorInstance@@U?$less@PAVIActorInstance@@@std@@V?$allocator@PAVIActorInstance@@@3@$0A@@std@@@std@@IBE?AU?$_Tree_find_result@PAU?$_Tree_node@PAVIActorInstance@@PAX@std@@@1@ABQAVIActorInstance@@@Z ; std::_Tree<std::_Tset_traits<IActorInstance *,std::less<IActorInstance *>,std::allocator<IActorInstance *>,0> >::_Find_lower_bound<IActorInstance *>
PUBLIC	??$_Freenode0@V?$allocator@U?$_Tree_node@PAVIActorInstance@@PAX@std@@@std@@@?$_Tree_node@PAVIActorInstance@@PAX@std@@SAXAAV?$allocator@U?$_Tree_node@PAVIActorInstance@@PAX@std@@@1@PAU01@@Z ; std::_Tree_node<IActorInstance *,void *>::_Freenode0<std::allocator<std::_Tree_node<IActorInstance *,void *> > >
PUBLIC	??$_Construct_in_place@PAU?$_Tree_node@PAVIActorInstance@@PAX@std@@ABQAU12@@std@@YAXAAPAU?$_Tree_node@PAVIActorInstance@@PAX@0@ABQAU10@@Z ; std::_Construct_in_place<std::_Tree_node<IActorInstance *,void *> *,std::_Tree_node<IActorInstance *,void *> * const &>
PUBLIC	??$_Uninitialized_move@PAUTAttachEffectInstance@CFlyingInstance@@V?$allocator@UTAttachEffectInstance@CFlyingInstance@@@std@@@std@@YAPAUTAttachEffectInstance@CFlyingInstance@@QAU12@0PAU12@AAV?$allocator@UTAttachEffectInstance@CFlyingInstance@@@0@@Z ; std::_Uninitialized_move<CFlyingInstance::TAttachEffectInstance *,std::allocator<CFlyingInstance::TAttachEffectInstance> >
PUBLIC	?_Allocate@?$_Alloc_construct_ptr@V?$allocator@U?$_Tree_node@PAVIActorInstance@@PAX@std@@@std@@@std@@QAEXXZ ; std::_Alloc_construct_ptr<std::allocator<std::_Tree_node<IActorInstance *,void *> > >::_Allocate
PUBLIC	??1?$_Alloc_construct_ptr@V?$allocator@U?$_Tree_node@PAVIActorInstance@@PAX@std@@@std@@@std@@QAE@XZ ; std::_Alloc_construct_ptr<std::allocator<std::_Tree_node<IActorInstance *,void *> > >::~_Alloc_construct_ptr<std::allocator<std::_Tree_node<IActorInstance *,void *> > >
PUBLIC	??1?$_Tree_temp_node@V?$allocator@U?$_Tree_node@PAVIActorInstance@@PAX@std@@@std@@@std@@QAE@XZ ; std::_Tree_temp_node<std::allocator<std::_Tree_node<IActorInstance *,void *> > >::~_Tree_temp_node<std::allocator<std::_Tree_node<IActorInstance *,void *> > >
PUBLIC	??$?0ABQAVIActorInstance@@@?$_Tree_temp_node@V?$allocator@U?$_Tree_node@PAVIActorInstance@@PAX@std@@@std@@@std@@QAE@AAV?$allocator@U?$_Tree_node@PAVIActorInstance@@PAX@std@@@1@PAU?$_Tree_node@PAVIActorInstance@@PAX@1@ABQAVIActorInstance@@@Z ; std::_Tree_temp_node<std::allocator<std::_Tree_node<IActorInstance *,void *> > >::_Tree_temp_node<std::allocator<std::_Tree_node<IActorInstance *,void *> > ><IActorInstance * const &>
PUBLIC	??$_Destroy_in_place@PAU?$_Tree_node@PAVIActorInstance@@PAX@std@@@std@@YAXAAPAU?$_Tree_node@PAVIActorInstance@@PAX@0@@Z ; std::_Destroy_in_place<std::_Tree_node<IActorInstance *,void *> *>
PUBLIC	??$_Copy_memmove@PAUTAttachEffectInstance@CFlyingInstance@@PAU12@@std@@YAPAUTAttachEffectInstance@CFlyingInstance@@PAU12@00@Z ; std::_Copy_memmove<CFlyingInstance::TAttachEffectInstance *,CFlyingInstance::TAttachEffectInstance *>
PUBLIC	??$_Construct_in_place@PAU?$_Tree_node@PAVIActorInstance@@PAX@std@@AAPAU12@@std@@YAXAAPAU?$_Tree_node@PAVIActorInstance@@PAX@0@0@Z ; std::_Construct_in_place<std::_Tree_node<IActorInstance *,void *> *,std::_Tree_node<IActorInstance *,void *> * &>
PUBLIC	??_7exception@std@@6B@				; std::exception::`vftable'
PUBLIC	??_C@_0BC@EOODALEL@Unknown?5exception@		; `string'
PUBLIC	??_7bad_alloc@std@@6B@				; std::bad_alloc::`vftable'
PUBLIC	??_7bad_array_new_length@std@@6B@		; std::bad_array_new_length::`vftable'
PUBLIC	??_C@_0BF@KINCDENJ@bad?5array?5new?5length@	; `string'
PUBLIC	__TI3?AVbad_array_new_length@std@@
PUBLIC	__CTA3?AVbad_array_new_length@std@@
PUBLIC	??_R0?AVbad_array_new_length@std@@@8		; std::bad_array_new_length `RTTI Type Descriptor'
PUBLIC	__CT??_R0?AVbad_array_new_length@std@@@8??0bad_array_new_length@std@@QAE@ABV01@@Z12
PUBLIC	??_R0?AVbad_alloc@std@@@8			; std::bad_alloc `RTTI Type Descriptor'
PUBLIC	__CT??_R0?AVbad_alloc@std@@@8??0bad_alloc@std@@QAE@ABV01@@Z12
PUBLIC	??_R0?AVexception@std@@@8			; std::exception `RTTI Type Descriptor'
PUBLIC	__CT??_R0?AVexception@std@@@8??0exception@std@@QAE@ABV01@@Z12
PUBLIC	??_C@_0BB@GCADKGJO@map?1set?5too?5long@		; `string'
PUBLIC	?ms_singleton@?$CSingleton@VCTimer@@@@0PAVCTimer@@A ; CSingleton<CTimer>::ms_singleton
PUBLIC	??_R4exception@std@@6B@				; std::exception::`RTTI Complete Object Locator'
PUBLIC	??_R3exception@std@@8				; std::exception::`RTTI Class Hierarchy Descriptor'
PUBLIC	??_R2exception@std@@8				; std::exception::`RTTI Base Class Array'
PUBLIC	??_R1A@?0A@EA@exception@std@@8			; std::exception::`RTTI Base Class Descriptor at (0,-1,0,64)'
PUBLIC	??_R4bad_alloc@std@@6B@				; std::bad_alloc::`RTTI Complete Object Locator'
PUBLIC	??_R3bad_alloc@std@@8				; std::bad_alloc::`RTTI Class Hierarchy Descriptor'
PUBLIC	??_R2bad_alloc@std@@8				; std::bad_alloc::`RTTI Base Class Array'
PUBLIC	??_R1A@?0A@EA@bad_alloc@std@@8			; std::bad_alloc::`RTTI Base Class Descriptor at (0,-1,0,64)'
PUBLIC	??_R4bad_array_new_length@std@@6B@		; std::bad_array_new_length::`RTTI Complete Object Locator'
PUBLIC	??_R3bad_array_new_length@std@@8		; std::bad_array_new_length::`RTTI Class Hierarchy Descriptor'
PUBLIC	??_R2bad_array_new_length@std@@8		; std::bad_array_new_length::`RTTI Base Class Array'
PUBLIC	??_R1A@?0A@EA@bad_array_new_length@std@@8	; std::bad_array_new_length::`RTTI Base Class Descriptor at (0,-1,0,64)'
PUBLIC	??_7SpherePackCallback@@6B@			; SpherePackCallback::`vftable'
PUBLIC	?ms_singleton@?$CSingleton@VCCullingManager@@@@0PAVCCullingManager@@A ; CSingleton<CCullingManager>::ms_singleton
PUBLIC	?ms_kPool@?$CPooledObject@VCHeaderDecorator@NEffectUpdateDecorator@@@@1V?$CDynamicPoolEx@VCHeaderDecorator@NEffectUpdateDecorator@@@@A ; CPooledObject<NEffectUpdateDecorator::CHeaderDecorator>::ms_kPool
PUBLIC	?ms_kPool@?$CPooledObject@VCNullDecorator@NEffectUpdateDecorator@@@@1V?$CDynamicPoolEx@VCNullDecorator@NEffectUpdateDecorator@@@@A ; CPooledObject<NEffectUpdateDecorator::CNullDecorator>::ms_kPool
PUBLIC	?ms_kPool@?$CPooledObject@VCTextureAnimationCWDecorator@NEffectUpdateDecorator@@@@1V?$CDynamicPoolEx@VCTextureAnimationCWDecorator@NEffectUpdateDecorator@@@@A ; CPooledObject<NEffectUpdateDecorator::CTextureAnimationCWDecorator>::ms_kPool
PUBLIC	?ms_kPool@?$CPooledObject@VCTextureAnimationCCWDecorator@NEffectUpdateDecorator@@@@1V?$CDynamicPoolEx@VCTextureAnimationCCWDecorator@NEffectUpdateDecorator@@@@A ; CPooledObject<NEffectUpdateDecorator::CTextureAnimationCCWDecorator>::ms_kPool
PUBLIC	?ms_kPool@?$CPooledObject@VCTextureAnimationRandomDecorator@NEffectUpdateDecorator@@@@1V?$CDynamicPoolEx@VCTextureAnimationRandomDecorator@NEffectUpdateDecorator@@@@A ; CPooledObject<NEffectUpdateDecorator::CTextureAnimationRandomDecorator>::ms_kPool
PUBLIC	?ms_kPool@?$CPooledObject@VCAirResistanceDecorator@NEffectUpdateDecorator@@@@1V?$CDynamicPoolEx@VCAirResistanceDecorator@NEffectUpdateDecorator@@@@A ; CPooledObject<NEffectUpdateDecorator::CAirResistanceDecorator>::ms_kPool
PUBLIC	?ms_kPool@?$CPooledObject@VCGravityDecorator@NEffectUpdateDecorator@@@@1V?$CDynamicPoolEx@VCGravityDecorator@NEffectUpdateDecorator@@@@A ; CPooledObject<NEffectUpdateDecorator::CGravityDecorator>::ms_kPool
PUBLIC	?ms_kPool@?$CPooledObject@VCRotationDecorator@NEffectUpdateDecorator@@@@1V?$CDynamicPoolEx@VCRotationDecorator@NEffectUpdateDecorator@@@@A ; CPooledObject<NEffectUpdateDecorator::CRotationDecorator>::ms_kPool
PUBLIC	?ms_singleton@?$CSingleton@VCEffectManager@@@@0PAVCEffectManager@@A ; CSingleton<CEffectManager>::ms_singleton
PUBLIC	?ms_kPool@CFlyingInstance@@2V?$CDynamicPool@VCFlyingInstance@@@@A ; CFlyingInstance::ms_kPool
PUBLIC	??_7CFlyingInstance@@6B@			; CFlyingInstance::`vftable'
PUBLIC	??_7?$CDynamicPool@VCFlyingInstance@@@@6B@	; CDynamicPool<CFlyingInstance>::`vftable'
PUBLIC	?ms_singleton@?$CSingleton@VCFlyingManager@@@@0PAVCFlyingManager@@A ; CSingleton<CFlyingManager>::ms_singleton
PUBLIC	??_7?$CDynamicPoolEx@VCRotationDecorator@NEffectUpdateDecorator@@@@6B@ ; CDynamicPoolEx<NEffectUpdateDecorator::CRotationDecorator>::`vftable'
PUBLIC	??_7?$CDynamicPoolEx@VCGravityDecorator@NEffectUpdateDecorator@@@@6B@ ; CDynamicPoolEx<NEffectUpdateDecorator::CGravityDecorator>::`vftable'
PUBLIC	??_7?$CDynamicPoolEx@VCAirResistanceDecorator@NEffectUpdateDecorator@@@@6B@ ; CDynamicPoolEx<NEffectUpdateDecorator::CAirResistanceDecorator>::`vftable'
PUBLIC	??_7?$CDynamicPoolEx@VCTextureAnimationRandomDecorator@NEffectUpdateDecorator@@@@6B@ ; CDynamicPoolEx<NEffectUpdateDecorator::CTextureAnimationRandomDecorator>::`vftable'
PUBLIC	??_7?$CDynamicPoolEx@VCTextureAnimationCCWDecorator@NEffectUpdateDecorator@@@@6B@ ; CDynamicPoolEx<NEffectUpdateDecorator::CTextureAnimationCCWDecorator>::`vftable'
PUBLIC	??_7?$CDynamicPoolEx@VCTextureAnimationCWDecorator@NEffectUpdateDecorator@@@@6B@ ; CDynamicPoolEx<NEffectUpdateDecorator::CTextureAnimationCWDecorator>::`vftable'
PUBLIC	??_7?$CDynamicPoolEx@VCNullDecorator@NEffectUpdateDecorator@@@@6B@ ; CDynamicPoolEx<NEffectUpdateDecorator::CNullDecorator>::`vftable'
PUBLIC	??_7?$CDynamicPoolEx@VCHeaderDecorator@NEffectUpdateDecorator@@@@6B@ ; CDynamicPoolEx<NEffectUpdateDecorator::CHeaderDecorator>::`vftable'
PUBLIC	??_7?$RangeTester@UFCheckAnotherMonsterDuringFlying@@@@6B@ ; RangeTester<FCheckAnotherMonsterDuringFlying>::`vftable'
PUBLIC	??_7?$RangeTester@UFCheckBackgroundDuringFlying@@@@6B@ ; RangeTester<FCheckBackgroundDuringFlying>::`vftable'
PUBLIC	??_C@_0BA@FOIKENOD@vector?5too?5long@		; `string'
PUBLIC	??_R4SpherePackCallback@@6B@			; SpherePackCallback::`RTTI Complete Object Locator'
PUBLIC	??_R0?AVSpherePackCallback@@@8			; SpherePackCallback `RTTI Type Descriptor'
PUBLIC	??_R3SpherePackCallback@@8			; SpherePackCallback::`RTTI Class Hierarchy Descriptor'
PUBLIC	??_R2SpherePackCallback@@8			; SpherePackCallback::`RTTI Base Class Array'
PUBLIC	??_R1A@?0A@EA@SpherePackCallback@@8		; SpherePackCallback::`RTTI Base Class Descriptor at (0,-1,0,64)'
PUBLIC	??_R4?$CDynamicPoolEx@VCHeaderDecorator@NEffectUpdateDecorator@@@@6B@ ; CDynamicPoolEx<NEffectUpdateDecorator::CHeaderDecorator>::`RTTI Complete Object Locator'
PUBLIC	??_R0?AV?$CDynamicPoolEx@VCHeaderDecorator@NEffectUpdateDecorator@@@@@8 ; CDynamicPoolEx<NEffectUpdateDecorator::CHeaderDecorator> `RTTI Type Descriptor'
PUBLIC	??_R3?$CDynamicPoolEx@VCHeaderDecorator@NEffectUpdateDecorator@@@@8 ; CDynamicPoolEx<NEffectUpdateDecorator::CHeaderDecorator>::`RTTI Class Hierarchy Descriptor'
PUBLIC	??_R2?$CDynamicPoolEx@VCHeaderDecorator@NEffectUpdateDecorator@@@@8 ; CDynamicPoolEx<NEffectUpdateDecorator::CHeaderDecorator>::`RTTI Base Class Array'
PUBLIC	??_R1A@?0A@EA@?$CDynamicPoolEx@VCHeaderDecorator@NEffectUpdateDecorator@@@@8 ; CDynamicPoolEx<NEffectUpdateDecorator::CHeaderDecorator>::`RTTI Base Class Descriptor at (0,-1,0,64)'
PUBLIC	??_R4?$CDynamicPoolEx@VCNullDecorator@NEffectUpdateDecorator@@@@6B@ ; CDynamicPoolEx<NEffectUpdateDecorator::CNullDecorator>::`RTTI Complete Object Locator'
PUBLIC	??_R0?AV?$CDynamicPoolEx@VCNullDecorator@NEffectUpdateDecorator@@@@@8 ; CDynamicPoolEx<NEffectUpdateDecorator::CNullDecorator> `RTTI Type Descriptor'
PUBLIC	??_R3?$CDynamicPoolEx@VCNullDecorator@NEffectUpdateDecorator@@@@8 ; CDynamicPoolEx<NEffectUpdateDecorator::CNullDecorator>::`RTTI Class Hierarchy Descriptor'
PUBLIC	??_R2?$CDynamicPoolEx@VCNullDecorator@NEffectUpdateDecorator@@@@8 ; CDynamicPoolEx<NEffectUpdateDecorator::CNullDecorator>::`RTTI Base Class Array'
PUBLIC	??_R1A@?0A@EA@?$CDynamicPoolEx@VCNullDecorator@NEffectUpdateDecorator@@@@8 ; CDynamicPoolEx<NEffectUpdateDecorator::CNullDecorator>::`RTTI Base Class Descriptor at (0,-1,0,64)'
PUBLIC	??_R4?$CDynamicPoolEx@VCTextureAnimationCWDecorator@NEffectUpdateDecorator@@@@6B@ ; CDynamicPoolEx<NEffectUpdateDecorator::CTextureAnimationCWDecorator>::`RTTI Complete Object Locator'
PUBLIC	??_R0?AV?$CDynamicPoolEx@VCTextureAnimationCWDecorator@NEffectUpdateDecorator@@@@@8 ; CDynamicPoolEx<NEffectUpdateDecorator::CTextureAnimationCWDecorator> `RTTI Type Descriptor'
PUBLIC	??_R3?$CDynamicPoolEx@VCTextureAnimationCWDecorator@NEffectUpdateDecorator@@@@8 ; CDynamicPoolEx<NEffectUpdateDecorator::CTextureAnimationCWDecorator>::`RTTI Class Hierarchy Descriptor'
PUBLIC	??_R2?$CDynamicPoolEx@VCTextureAnimationCWDecorator@NEffectUpdateDecorator@@@@8 ; CDynamicPoolEx<NEffectUpdateDecorator::CTextureAnimationCWDecorator>::`RTTI Base Class Array'
PUBLIC	??_R1A@?0A@EA@?$CDynamicPoolEx@VCTextureAnimationCWDecorator@NEffectUpdateDecorator@@@@8 ; CDynamicPoolEx<NEffectUpdateDecorator::CTextureAnimationCWDecorator>::`RTTI Base Class Descriptor at (0,-1,0,64)'
PUBLIC	??_R4?$CDynamicPoolEx@VCTextureAnimationCCWDecorator@NEffectUpdateDecorator@@@@6B@ ; CDynamicPoolEx<NEffectUpdateDecorator::CTextureAnimationCCWDecorator>::`RTTI Complete Object Locator'
PUBLIC	??_R0?AV?$CDynamicPoolEx@VCTextureAnimationCCWDecorator@NEffectUpdateDecorator@@@@@8 ; CDynamicPoolEx<NEffectUpdateDecorator::CTextureAnimationCCWDecorator> `RTTI Type Descriptor'
PUBLIC	??_R3?$CDynamicPoolEx@VCTextureAnimationCCWDecorator@NEffectUpdateDecorator@@@@8 ; CDynamicPoolEx<NEffectUpdateDecorator::CTextureAnimationCCWDecorator>::`RTTI Class Hierarchy Descriptor'
PUBLIC	??_R2?$CDynamicPoolEx@VCTextureAnimationCCWDecorator@NEffectUpdateDecorator@@@@8 ; CDynamicPoolEx<NEffectUpdateDecorator::CTextureAnimationCCWDecorator>::`RTTI Base Class Array'
PUBLIC	??_R1A@?0A@EA@?$CDynamicPoolEx@VCTextureAnimationCCWDecorator@NEffectUpdateDecorator@@@@8 ; CDynamicPoolEx<NEffectUpdateDecorator::CTextureAnimationCCWDecorator>::`RTTI Base Class Descriptor at (0,-1,0,64)'
PUBLIC	??_R4?$CDynamicPoolEx@VCTextureAnimationRandomDecorator@NEffectUpdateDecorator@@@@6B@ ; CDynamicPoolEx<NEffectUpdateDecorator::CTextureAnimationRandomDecorator>::`RTTI Complete Object Locator'
PUBLIC	??_R0?AV?$CDynamicPoolEx@VCTextureAnimationRandomDecorator@NEffectUpdateDecorator@@@@@8 ; CDynamicPoolEx<NEffectUpdateDecorator::CTextureAnimationRandomDecorator> `RTTI Type Descriptor'
PUBLIC	??_R3?$CDynamicPoolEx@VCTextureAnimationRandomDecorator@NEffectUpdateDecorator@@@@8 ; CDynamicPoolEx<NEffectUpdateDecorator::CTextureAnimationRandomDecorator>::`RTTI Class Hierarchy Descriptor'
PUBLIC	??_R2?$CDynamicPoolEx@VCTextureAnimationRandomDecorator@NEffectUpdateDecorator@@@@8 ; CDynamicPoolEx<NEffectUpdateDecorator::CTextureAnimationRandomDecorator>::`RTTI Base Class Array'
PUBLIC	??_R1A@?0A@EA@?$CDynamicPoolEx@VCTextureAnimationRandomDecorator@NEffectUpdateDecorator@@@@8 ; CDynamicPoolEx<NEffectUpdateDecorator::CTextureAnimationRandomDecorator>::`RTTI Base Class Descriptor at (0,-1,0,64)'
PUBLIC	??_R4?$CDynamicPoolEx@VCAirResistanceDecorator@NEffectUpdateDecorator@@@@6B@ ; CDynamicPoolEx<NEffectUpdateDecorator::CAirResistanceDecorator>::`RTTI Complete Object Locator'
PUBLIC	??_R0?AV?$CDynamicPoolEx@VCAirResistanceDecorator@NEffectUpdateDecorator@@@@@8 ; CDynamicPoolEx<NEffectUpdateDecorator::CAirResistanceDecorator> `RTTI Type Descriptor'
PUBLIC	??_R3?$CDynamicPoolEx@VCAirResistanceDecorator@NEffectUpdateDecorator@@@@8 ; CDynamicPoolEx<NEffectUpdateDecorator::CAirResistanceDecorator>::`RTTI Class Hierarchy Descriptor'
PUBLIC	??_R2?$CDynamicPoolEx@VCAirResistanceDecorator@NEffectUpdateDecorator@@@@8 ; CDynamicPoolEx<NEffectUpdateDecorator::CAirResistanceDecorator>::`RTTI Base Class Array'
PUBLIC	??_R1A@?0A@EA@?$CDynamicPoolEx@VCAirResistanceDecorator@NEffectUpdateDecorator@@@@8 ; CDynamicPoolEx<NEffectUpdateDecorator::CAirResistanceDecorator>::`RTTI Base Class Descriptor at (0,-1,0,64)'
PUBLIC	??_R4?$CDynamicPoolEx@VCGravityDecorator@NEffectUpdateDecorator@@@@6B@ ; CDynamicPoolEx<NEffectUpdateDecorator::CGravityDecorator>::`RTTI Complete Object Locator'
PUBLIC	??_R0?AV?$CDynamicPoolEx@VCGravityDecorator@NEffectUpdateDecorator@@@@@8 ; CDynamicPoolEx<NEffectUpdateDecorator::CGravityDecorator> `RTTI Type Descriptor'
PUBLIC	??_R3?$CDynamicPoolEx@VCGravityDecorator@NEffectUpdateDecorator@@@@8 ; CDynamicPoolEx<NEffectUpdateDecorator::CGravityDecorator>::`RTTI Class Hierarchy Descriptor'
PUBLIC	??_R2?$CDynamicPoolEx@VCGravityDecorator@NEffectUpdateDecorator@@@@8 ; CDynamicPoolEx<NEffectUpdateDecorator::CGravityDecorator>::`RTTI Base Class Array'
PUBLIC	??_R1A@?0A@EA@?$CDynamicPoolEx@VCGravityDecorator@NEffectUpdateDecorator@@@@8 ; CDynamicPoolEx<NEffectUpdateDecorator::CGravityDecorator>::`RTTI Base Class Descriptor at (0,-1,0,64)'
PUBLIC	??_R4?$CDynamicPoolEx@VCRotationDecorator@NEffectUpdateDecorator@@@@6B@ ; CDynamicPoolEx<NEffectUpdateDecorator::CRotationDecorator>::`RTTI Complete Object Locator'
PUBLIC	??_R0?AV?$CDynamicPoolEx@VCRotationDecorator@NEffectUpdateDecorator@@@@@8 ; CDynamicPoolEx<NEffectUpdateDecorator::CRotationDecorator> `RTTI Type Descriptor'
PUBLIC	??_R3?$CDynamicPoolEx@VCRotationDecorator@NEffectUpdateDecorator@@@@8 ; CDynamicPoolEx<NEffectUpdateDecorator::CRotationDecorator>::`RTTI Class Hierarchy Descriptor'
PUBLIC	??_R2?$CDynamicPoolEx@VCRotationDecorator@NEffectUpdateDecorator@@@@8 ; CDynamicPoolEx<NEffectUpdateDecorator::CRotationDecorator>::`RTTI Base Class Array'
PUBLIC	??_R1A@?0A@EA@?$CDynamicPoolEx@VCRotationDecorator@NEffectUpdateDecorator@@@@8 ; CDynamicPoolEx<NEffectUpdateDecorator::CRotationDecorator>::`RTTI Base Class Descriptor at (0,-1,0,64)'
PUBLIC	??_R4CFlyingInstance@@6B@			; CFlyingInstance::`RTTI Complete Object Locator'
PUBLIC	??_R0?AVCFlyingInstance@@@8			; CFlyingInstance `RTTI Type Descriptor'
PUBLIC	??_R3CFlyingInstance@@8				; CFlyingInstance::`RTTI Class Hierarchy Descriptor'
PUBLIC	??_R2CFlyingInstance@@8				; CFlyingInstance::`RTTI Base Class Array'
PUBLIC	??_R1A@?0A@EA@CFlyingInstance@@8		; CFlyingInstance::`RTTI Base Class Descriptor at (0,-1,0,64)'
PUBLIC	??_R4?$CDynamicPool@VCFlyingInstance@@@@6B@	; CDynamicPool<CFlyingInstance>::`RTTI Complete Object Locator'
PUBLIC	??_R0?AV?$CDynamicPool@VCFlyingInstance@@@@@8	; CDynamicPool<CFlyingInstance> `RTTI Type Descriptor'
PUBLIC	??_R3?$CDynamicPool@VCFlyingInstance@@@@8	; CDynamicPool<CFlyingInstance>::`RTTI Class Hierarchy Descriptor'
PUBLIC	??_R2?$CDynamicPool@VCFlyingInstance@@@@8	; CDynamicPool<CFlyingInstance>::`RTTI Base Class Array'
PUBLIC	??_R1A@?0A@EA@?$CDynamicPool@VCFlyingInstance@@@@8 ; CDynamicPool<CFlyingInstance>::`RTTI Base Class Descriptor at (0,-1,0,64)'
PUBLIC	??_R4?$RangeTester@UFCheckAnotherMonsterDuringFlying@@@@6B@ ; RangeTester<FCheckAnotherMonsterDuringFlying>::`RTTI Complete Object Locator'
PUBLIC	??_R0?AU?$RangeTester@UFCheckAnotherMonsterDuringFlying@@@@@8 ; RangeTester<FCheckAnotherMonsterDuringFlying> `RTTI Type Descriptor'
PUBLIC	??_R3?$RangeTester@UFCheckAnotherMonsterDuringFlying@@@@8 ; RangeTester<FCheckAnotherMonsterDuringFlying>::`RTTI Class Hierarchy Descriptor'
PUBLIC	??_R2?$RangeTester@UFCheckAnotherMonsterDuringFlying@@@@8 ; RangeTester<FCheckAnotherMonsterDuringFlying>::`RTTI Base Class Array'
PUBLIC	??_R1A@?0A@EA@?$RangeTester@UFCheckAnotherMonsterDuringFlying@@@@8 ; RangeTester<FCheckAnotherMonsterDuringFlying>::`RTTI Base Class Descriptor at (0,-1,0,64)'
PUBLIC	??_R4?$RangeTester@UFCheckBackgroundDuringFlying@@@@6B@ ; RangeTester<FCheckBackgroundDuringFlying>::`RTTI Complete Object Locator'
PUBLIC	??_R0?AU?$RangeTester@UFCheckBackgroundDuringFlying@@@@@8 ; RangeTester<FCheckBackgroundDuringFlying> `RTTI Type Descriptor'
PUBLIC	??_R3?$RangeTester@UFCheckBackgroundDuringFlying@@@@8 ; RangeTester<FCheckBackgroundDuringFlying>::`RTTI Class Hierarchy Descriptor'
PUBLIC	??_R2?$RangeTester@UFCheckBackgroundDuringFlying@@@@8 ; RangeTester<FCheckBackgroundDuringFlying>::`RTTI Base Class Array'
PUBLIC	??_R1A@?0A@EA@?$RangeTester@UFCheckBackgroundDuringFlying@@@@8 ; RangeTester<FCheckBackgroundDuringFlying>::`RTTI Base Class Descriptor at (0,-1,0,64)'
PUBLIC	__real@3a83126f
PUBLIC	__real@3c8efa35
PUBLIC	__real@3f000000
PUBLIC	__real@3f7ff972
PUBLIC	__real@3f800000
PUBLIC	__real@3f860a90
PUBLIC	__real@40000000
PUBLIC	__real@40490fdb
PUBLIC	__real@40c90fdb
PUBLIC	__real@41200000
PUBLIC	__real@42480000
PUBLIC	__real@42b40000
PUBLIC	__real@43340000
PUBLIC	__real@bf7ff972
PUBLIC	__real@bf800000
PUBLIC	__real@bf860a90
PUBLIC	__real@c0000000
PUBLIC	__xmm@80000000800000008000000080000000
EXTRN	??2@YAPAXI@Z:PROC				; operator new
EXTRN	??3@YAXPAX@Z:PROC				; operator delete
EXTRN	??3@YAXPAXI@Z:PROC				; operator delete
EXTRN	_atexit:PROC
EXTRN	__invalid_parameter_noinfo_noreturn:PROC
EXTRN	_memmove:PROC
EXTRN	_cos:PROC
EXTRN	_exp:PROC
EXTRN	_sin:PROC
EXTRN	_sqrt:PROC
EXTRN	___std_exception_copy:PROC
EXTRN	___std_exception_destroy:PROC
EXTRN	??_Eexception@std@@UAEPAXI@Z:PROC		; std::exception::`vector deleting destructor'
EXTRN	??_Ebad_alloc@std@@UAEPAXI@Z:PROC		; std::bad_alloc::`vector deleting destructor'
EXTRN	??_Ebad_array_new_length@std@@UAEPAXI@Z:PROC	; std::bad_array_new_length::`vector deleting destructor'
EXTRN	?_Xlength_error@std@@YAXPBD@Z:PROC		; std::_Xlength_error
EXTRN	?GetCaseCRC32@@YAKPBDI@Z:PROC			; GetCaseCRC32
EXTRN	?frandom@@YAMMM@Z:PROC				; frandom
EXTRN	_D3DXVec3Normalize@8:PROC
EXTRN	_D3DXMatrixRotationQuaternion@8:PROC
EXTRN	_D3DXQuaternionRotationAxis@12:PROC
EXTRN	_D3DXQuaternionRotationYawPitchRoll@16:PROC
EXTRN	_D3DXQuaternionMultiply@12:PROC
EXTRN	?GetCurrentSecond@CTimer@@QAEMXZ:PROC		; CTimer::GetCurrentSecond
EXTRN	?GetElapsedSecond@CTimer@@QAEMXZ:PROC		; CTimer::GetElapsedSecond
EXTRN	??_ESpherePackCallback@@UAEPAXI@Z:PROC		; SpherePackCallback::`vector deleting destructor'
EXTRN	?RangeTest@SpherePackFactory@@QAEXABVVector3d@@MPAVSpherePackCallback@@@Z:PROC ; SpherePackFactory::RangeTest
EXTRN	?CollisionDynamicSphere@CGraphicObjectInstance@@QBE_NABUCDynamicSphereInstance@@@Z:PROC ; CGraphicObjectInstance::CollisionDynamicSphere
EXTRN	?CreateEffectInstance@CEffectManager@@QAEXKK@Z:PROC ; CEffectManager::CreateEffectInstance
EXTRN	?SelectEffectInstance@CEffectManager@@QAEHK@Z:PROC ; CEffectManager::SelectEffectInstance
EXTRN	?DestroyEffectInstance@CEffectManager@@QAE_NK@Z:PROC ; CEffectManager::DestroyEffectInstance
EXTRN	?SetEffectInstanceGlobalMatrix@CEffectManager@@QAEXABUD3DXMATRIX@@@Z:PROC ; CEffectManager::SetEffectInstanceGlobalMatrix
EXTRN	?GetEmptyIndex@CEffectManager@@QAEHXZ:PROC	; CEffectManager::GetEmptyIndex
EXTRN	?GetTerrainHeight@CMapManager@@QAEMMM@Z:PROC	; CMapManager::GetTerrainHeight
EXTRN	?GetAttachDataReference@CFlyingData@@QAEAAUTFlyingAttachData@1@H@Z:PROC ; CFlyingData::GetAttachDataReference
EXTRN	?Create@CFlyTrace@@QAEXABUTFlyingAttachData@CFlyingData@@@Z:PROC ; CFlyTrace::Create
EXTRN	?UpdateNewPosition@CFlyTrace@@QAEXABUD3DXVECTOR3@@@Z:PROC ; CFlyTrace::UpdateNewPosition
EXTRN	?Render@CFlyTrace@@QAEXXZ:PROC			; CFlyTrace::Render
EXTRN	?New@CFlyTrace@@SAPAV1@XZ:PROC			; CFlyTrace::New
EXTRN	?Delete@CFlyTrace@@SAXPAV1@@Z:PROC		; CFlyTrace::Delete
EXTRN	??0CFlyTarget@@QAE@XZ:PROC			; CFlyTarget::CFlyTarget
EXTRN	??1CFlyTarget@@UAE@XZ:PROC			; CFlyTarget::~CFlyTarget
EXTRN	?Clear@CFlyTarget@@QAEXXZ:PROC			; CFlyTarget::Clear
EXTRN	?IsObject@CFlyTarget@@QAE_NXZ:PROC		; CFlyTarget::IsObject
EXTRN	?IsPosition@CFlyTarget@@QAE_NXZ:PROC		; CFlyTarget::IsPosition
EXTRN	?GetFlyTargetPosition@CFlyTarget@@QBEABUD3DXVECTOR3@@XZ:PROC ; CFlyTarget::GetFlyTargetPosition
EXTRN	?GetFlyTarget@CFlyTarget@@QAEPAVIFlyTargetableObject@@XZ:PROC ; CFlyTarget::GetFlyTarget
EXTRN	??4CFlyTarget@@QAEAAV0@ABV0@@Z:PROC		; CFlyTarget::operator=
EXTRN	??_ECFlyingInstance@@UAEPAXI@Z:PROC		; CFlyingInstance::`vector deleting destructor'
EXTRN	??_E?$CDynamicPool@VCFlyingInstance@@@@UAEPAXI@Z:PROC ; CDynamicPool<CFlyingInstance>::`vector deleting destructor'
EXTRN	??_E?$CDynamicPoolEx@VCRotationDecorator@NEffectUpdateDecorator@@@@UAEPAXI@Z:PROC ; CDynamicPoolEx<NEffectUpdateDecorator::CRotationDecorator>::`vector deleting destructor'
EXTRN	??_E?$CDynamicPoolEx@VCGravityDecorator@NEffectUpdateDecorator@@@@UAEPAXI@Z:PROC ; CDynamicPoolEx<NEffectUpdateDecorator::CGravityDecorator>::`vector deleting destructor'
EXTRN	??_E?$CDynamicPoolEx@VCAirResistanceDecorator@NEffectUpdateDecorator@@@@UAEPAXI@Z:PROC ; CDynamicPoolEx<NEffectUpdateDecorator::CAirResistanceDecorator>::`vector deleting destructor'
EXTRN	??_E?$CDynamicPoolEx@VCTextureAnimationRandomDecorator@NEffectUpdateDecorator@@@@UAEPAXI@Z:PROC ; CDynamicPoolEx<NEffectUpdateDecorator::CTextureAnimationRandomDecorator>::`vector deleting destructor'
EXTRN	??_E?$CDynamicPoolEx@VCTextureAnimationCCWDecorator@NEffectUpdateDecorator@@@@UAEPAXI@Z:PROC ; CDynamicPoolEx<NEffectUpdateDecorator::CTextureAnimationCCWDecorator>::`vector deleting destructor'
EXTRN	??_E?$CDynamicPoolEx@VCTextureAnimationCWDecorator@NEffectUpdateDecorator@@@@UAEPAXI@Z:PROC ; CDynamicPoolEx<NEffectUpdateDecorator::CTextureAnimationCWDecorator>::`vector deleting destructor'
EXTRN	??_E?$CDynamicPoolEx@VCNullDecorator@NEffectUpdateDecorator@@@@UAEPAXI@Z:PROC ; CDynamicPoolEx<NEffectUpdateDecorator::CNullDecorator>::`vector deleting destructor'
EXTRN	??_E?$CDynamicPoolEx@VCHeaderDecorator@NEffectUpdateDecorator@@@@UAEPAXI@Z:PROC ; CDynamicPoolEx<NEffectUpdateDecorator::CHeaderDecorator>::`vector deleting destructor'
EXTRN	??_E?$RangeTester@UFCheckAnotherMonsterDuringFlying@@@@UAEPAXI@Z:PROC ; RangeTester<FCheckAnotherMonsterDuringFlying>::`vector deleting destructor'
EXTRN	??_E?$RangeTester@UFCheckBackgroundDuringFlying@@@@UAEPAXI@Z:PROC ; RangeTester<FCheckBackgroundDuringFlying>::`vector deleting destructor'
EXTRN	@__security_check_cookie@4:PROC
EXTRN	__CxxThrowException@8:PROC
EXTRN	___CxxFrameHandler3:PROC
EXTRN	??_7type_info@@6B@:QWORD			; type_info::`vftable'
EXTRN	___security_cookie:DWORD
EXTRN	__fltused:DWORD
;	COMDAT ?ms_singleton@?$CSingleton@VCTimer@@@@0PAVCTimer@@A
_BSS	SEGMENT
?ms_singleton@?$CSingleton@VCTimer@@@@0PAVCTimer@@A DD 01H DUP (?) ; CSingleton<CTimer>::ms_singleton
_BSS	ENDS
;	COMDAT ?ms_singleton@?$CSingleton@VCCullingManager@@@@0PAVCCullingManager@@A
_BSS	SEGMENT
?ms_singleton@?$CSingleton@VCCullingManager@@@@0PAVCCullingManager@@A DD 01H DUP (?) ; CSingleton<CCullingManager>::ms_singleton
_BSS	ENDS
;	COMDAT ?ms_kPool@?$CPooledObject@VCHeaderDecorator@NEffectUpdateDecorator@@@@1V?$CDynamicPoolEx@VCHeaderDecorator@NEffectUpdateDecorator@@@@A
_BSS	SEGMENT
?ms_kPool@?$CPooledObject@VCHeaderDecorator@NEffectUpdateDecorator@@@@1V?$CDynamicPoolEx@VCHeaderDecorator@NEffectUpdateDecorator@@@@A DB 024H DUP (?) ; CPooledObject<NEffectUpdateDecorator::CHeaderDecorator>::ms_kPool
_BSS	ENDS
;	COMDAT ?ms_kPool@?$CPooledObject@VCNullDecorator@NEffectUpdateDecorator@@@@1V?$CDynamicPoolEx@VCNullDecorator@NEffectUpdateDecorator@@@@A
_BSS	SEGMENT
?ms_kPool@?$CPooledObject@VCNullDecorator@NEffectUpdateDecorator@@@@1V?$CDynamicPoolEx@VCNullDecorator@NEffectUpdateDecorator@@@@A DB 024H DUP (?) ; CPooledObject<NEffectUpdateDecorator::CNullDecorator>::ms_kPool
_BSS	ENDS
;	COMDAT ?ms_kPool@?$CPooledObject@VCTextureAnimationCWDecorator@NEffectUpdateDecorator@@@@1V?$CDynamicPoolEx@VCTextureAnimationCWDecorator@NEffectUpdateDecorator@@@@A
_BSS	SEGMENT
?ms_kPool@?$CPooledObject@VCTextureAnimationCWDecorator@NEffectUpdateDecorator@@@@1V?$CDynamicPoolEx@VCTextureAnimationCWDecorator@NEffectUpdateDecorator@@@@A DB 024H DUP (?) ; CPooledObject<NEffectUpdateDecorator::CTextureAnimationCWDecorator>::ms_kPool
_BSS	ENDS
;	COMDAT ?ms_kPool@?$CPooledObject@VCTextureAnimationCCWDecorator@NEffectUpdateDecorator@@@@1V?$CDynamicPoolEx@VCTextureAnimationCCWDecorator@NEffectUpdateDecorator@@@@A
_BSS	SEGMENT
?ms_kPool@?$CPooledObject@VCTextureAnimationCCWDecorator@NEffectUpdateDecorator@@@@1V?$CDynamicPoolEx@VCTextureAnimationCCWDecorator@NEffectUpdateDecorator@@@@A DB 024H DUP (?) ; CPooledObject<NEffectUpdateDecorator::CTextureAnimationCCWDecorator>::ms_kPool
_BSS	ENDS
;	COMDAT ?ms_kPool@?$CPooledObject@VCTextureAnimationRandomDecorator@NEffectUpdateDecorator@@@@1V?$CDynamicPoolEx@VCTextureAnimationRandomDecorator@NEffectUpdateDecorator@@@@A
_BSS	SEGMENT
?ms_kPool@?$CPooledObject@VCTextureAnimationRandomDecorator@NEffectUpdateDecorator@@@@1V?$CDynamicPoolEx@VCTextureAnimationRandomDecorator@NEffectUpdateDecorator@@@@A DB 024H DUP (?) ; CPooledObject<NEffectUpdateDecorator::CTextureAnimationRandomDecorator>::ms_kPool
_BSS	ENDS
;	COMDAT ?ms_kPool@?$CPooledObject@VCAirResistanceDecorator@NEffectUpdateDecorator@@@@1V?$CDynamicPoolEx@VCAirResistanceDecorator@NEffectUpdateDecorator@@@@A
_BSS	SEGMENT
?ms_kPool@?$CPooledObject@VCAirResistanceDecorator@NEffectUpdateDecorator@@@@1V?$CDynamicPoolEx@VCAirResistanceDecorator@NEffectUpdateDecorator@@@@A DB 024H DUP (?) ; CPooledObject<NEffectUpdateDecorator::CAirResistanceDecorator>::ms_kPool
_BSS	ENDS
;	COMDAT ?ms_kPool@?$CPooledObject@VCGravityDecorator@NEffectUpdateDecorator@@@@1V?$CDynamicPoolEx@VCGravityDecorator@NEffectUpdateDecorator@@@@A
_BSS	SEGMENT
?ms_kPool@?$CPooledObject@VCGravityDecorator@NEffectUpdateDecorator@@@@1V?$CDynamicPoolEx@VCGravityDecorator@NEffectUpdateDecorator@@@@A DB 024H DUP (?) ; CPooledObject<NEffectUpdateDecorator::CGravityDecorator>::ms_kPool
_BSS	ENDS
;	COMDAT ?ms_kPool@?$CPooledObject@VCRotationDecorator@NEffectUpdateDecorator@@@@1V?$CDynamicPoolEx@VCRotationDecorator@NEffectUpdateDecorator@@@@A
_BSS	SEGMENT
?ms_kPool@?$CPooledObject@VCRotationDecorator@NEffectUpdateDecorator@@@@1V?$CDynamicPoolEx@VCRotationDecorator@NEffectUpdateDecorator@@@@A DB 024H DUP (?) ; CPooledObject<NEffectUpdateDecorator::CRotationDecorator>::ms_kPool
_BSS	ENDS
;	COMDAT ?ms_singleton@?$CSingleton@VCEffectManager@@@@0PAVCEffectManager@@A
_BSS	SEGMENT
?ms_singleton@?$CSingleton@VCEffectManager@@@@0PAVCEffectManager@@A DD 01H DUP (?) ; CSingleton<CEffectManager>::ms_singleton
_BSS	ENDS
_BSS	SEGMENT
?ms_kPool@CFlyingInstance@@2V?$CDynamicPool@VCFlyingInstance@@@@A DB 024H DUP (?) ; CFlyingInstance::ms_kPool
_BSS	ENDS
;	COMDAT ?ms_singleton@?$CSingleton@VCFlyingManager@@@@0PAVCFlyingManager@@A
_BSS	SEGMENT
?ms_singleton@?$CSingleton@VCFlyingManager@@@@0PAVCFlyingManager@@A DD 01H DUP (?) ; CSingleton<CFlyingManager>::ms_singleton
_BSS	ENDS
CRT$XCU	SEGMENT
??ms_kPool$initializer$@CFlyingInstance@@2P6AXXZA@@3P6AXXZA DD FLAT:??__E?ms_kPool@CFlyingInstance@@2V?$CDynamicPool@VCFlyingInstance@@@@A@@YAXXZ ; ??ms_kPool$initializer$@CFlyingInstance@@2P6AXXZA@@3P6AXXZA
CRT$XCU	ENDS
;	COMDAT __xmm@80000000800000008000000080000000
CONST	SEGMENT
__xmm@80000000800000008000000080000000 DB 00H, 00H, 00H, 080H, 00H, 00H, 00H
	DB	080H, 00H, 00H, 00H, 080H, 00H, 00H, 00H, 080H
CONST	ENDS
;	COMDAT __real@c0000000
CONST	SEGMENT
__real@c0000000 DD 0c0000000r			; -2
CONST	ENDS
;	COMDAT __real@bf860a90
CONST	SEGMENT
__real@bf860a90 DD 0bf860a90r			; -1.0472
CONST	ENDS
;	COMDAT __real@bf800000
CONST	SEGMENT
__real@bf800000 DD 0bf800000r			; -1
CONST	ENDS
;	COMDAT __real@bf7ff972
CONST	SEGMENT
__real@bf7ff972 DD 0bf7ff972r			; -0.9999
CONST	ENDS
;	COMDAT __real@43340000
CONST	SEGMENT
__real@43340000 DD 043340000r			; 180
CONST	ENDS
;	COMDAT __real@42b40000
CONST	SEGMENT
__real@42b40000 DD 042b40000r			; 90
CONST	ENDS
;	COMDAT __real@42480000
CONST	SEGMENT
__real@42480000 DD 042480000r			; 50
CONST	ENDS
;	COMDAT __real@41200000
CONST	SEGMENT
__real@41200000 DD 041200000r			; 10
CONST	ENDS
;	COMDAT __real@40c90fdb
CONST	SEGMENT
__real@40c90fdb DD 040c90fdbr			; 6.28319
CONST	ENDS
;	COMDAT __real@40490fdb
CONST	SEGMENT
__real@40490fdb DD 040490fdbr			; 3.14159
CONST	ENDS
;	COMDAT __real@40000000
CONST	SEGMENT
__real@40000000 DD 040000000r			; 2
CONST	ENDS
;	COMDAT __real@3f860a90
CONST	SEGMENT
__real@3f860a90 DD 03f860a90r			; 1.0472
CONST	ENDS
;	COMDAT __real@3f800000
CONST	SEGMENT
__real@3f800000 DD 03f800000r			; 1
CONST	ENDS
;	COMDAT __real@3f7ff972
CONST	SEGMENT
__real@3f7ff972 DD 03f7ff972r			; 0.9999
CONST	ENDS
;	COMDAT __real@3f000000
CONST	SEGMENT
__real@3f000000 DD 03f000000r			; 0.5
CONST	ENDS
;	COMDAT __real@3c8efa35
CONST	SEGMENT
__real@3c8efa35 DD 03c8efa35r			; 0.0174533
CONST	ENDS
;	COMDAT __real@3a83126f
CONST	SEGMENT
__real@3a83126f DD 03a83126fr			; 0.001
CONST	ENDS
;	COMDAT ??_R1A@?0A@EA@?$RangeTester@UFCheckBackgroundDuringFlying@@@@8
rdata$r	SEGMENT
??_R1A@?0A@EA@?$RangeTester@UFCheckBackgroundDuringFlying@@@@8 DD FLAT:??_R0?AU?$RangeTester@UFCheckBackgroundDuringFlying@@@@@8 ; RangeTester<FCheckBackgroundDuringFlying>::`RTTI Base Class Descriptor at (0,-1,0,64)'
	DD	01H
	DD	00H
	DD	0ffffffffH
	DD	00H
	DD	040H
	DD	FLAT:??_R3?$RangeTester@UFCheckBackgroundDuringFlying@@@@8
rdata$r	ENDS
;	COMDAT ??_R2?$RangeTester@UFCheckBackgroundDuringFlying@@@@8
rdata$r	SEGMENT
??_R2?$RangeTester@UFCheckBackgroundDuringFlying@@@@8 DD FLAT:??_R1A@?0A@EA@?$RangeTester@UFCheckBackgroundDuringFlying@@@@8 ; RangeTester<FCheckBackgroundDuringFlying>::`RTTI Base Class Array'
	DD	FLAT:??_R1A@?0A@EA@SpherePackCallback@@8
rdata$r	ENDS
;	COMDAT ??_R3?$RangeTester@UFCheckBackgroundDuringFlying@@@@8
rdata$r	SEGMENT
??_R3?$RangeTester@UFCheckBackgroundDuringFlying@@@@8 DD 00H ; RangeTester<FCheckBackgroundDuringFlying>::`RTTI Class Hierarchy Descriptor'
	DD	00H
	DD	02H
	DD	FLAT:??_R2?$RangeTester@UFCheckBackgroundDuringFlying@@@@8
rdata$r	ENDS
;	COMDAT ??_R0?AU?$RangeTester@UFCheckBackgroundDuringFlying@@@@@8
data$rs	SEGMENT
??_R0?AU?$RangeTester@UFCheckBackgroundDuringFlying@@@@@8 DD FLAT:??_7type_info@@6B@ ; RangeTester<FCheckBackgroundDuringFlying> `RTTI Type Descriptor'
	DD	00H
	DB	'.?AU?$RangeTester@UFCheckBackgroundDuringFlying@@@@', 00H
data$rs	ENDS
;	COMDAT ??_R4?$RangeTester@UFCheckBackgroundDuringFlying@@@@6B@
rdata$r	SEGMENT
??_R4?$RangeTester@UFCheckBackgroundDuringFlying@@@@6B@ DD 00H ; RangeTester<FCheckBackgroundDuringFlying>::`RTTI Complete Object Locator'
	DD	00H
	DD	00H
	DD	FLAT:??_R0?AU?$RangeTester@UFCheckBackgroundDuringFlying@@@@@8
	DD	FLAT:??_R3?$RangeTester@UFCheckBackgroundDuringFlying@@@@8
rdata$r	ENDS
;	COMDAT ??_R1A@?0A@EA@?$RangeTester@UFCheckAnotherMonsterDuringFlying@@@@8
rdata$r	SEGMENT
??_R1A@?0A@EA@?$RangeTester@UFCheckAnotherMonsterDuringFlying@@@@8 DD FLAT:??_R0?AU?$RangeTester@UFCheckAnotherMonsterDuringFlying@@@@@8 ; RangeTester<FCheckAnotherMonsterDuringFlying>::`RTTI Base Class Descriptor at (0,-1,0,64)'
	DD	01H
	DD	00H
	DD	0ffffffffH
	DD	00H
	DD	040H
	DD	FLAT:??_R3?$RangeTester@UFCheckAnotherMonsterDuringFlying@@@@8
rdata$r	ENDS
;	COMDAT ??_R2?$RangeTester@UFCheckAnotherMonsterDuringFlying@@@@8
rdata$r	SEGMENT
??_R2?$RangeTester@UFCheckAnotherMonsterDuringFlying@@@@8 DD FLAT:??_R1A@?0A@EA@?$RangeTester@UFCheckAnotherMonsterDuringFlying@@@@8 ; RangeTester<FCheckAnotherMonsterDuringFlying>::`RTTI Base Class Array'
	DD	FLAT:??_R1A@?0A@EA@SpherePackCallback@@8
rdata$r	ENDS
;	COMDAT ??_R3?$RangeTester@UFCheckAnotherMonsterDuringFlying@@@@8
rdata$r	SEGMENT
??_R3?$RangeTester@UFCheckAnotherMonsterDuringFlying@@@@8 DD 00H ; RangeTester<FCheckAnotherMonsterDuringFlying>::`RTTI Class Hierarchy Descriptor'
	DD	00H
	DD	02H
	DD	FLAT:??_R2?$RangeTester@UFCheckAnotherMonsterDuringFlying@@@@8
rdata$r	ENDS
;	COMDAT ??_R0?AU?$RangeTester@UFCheckAnotherMonsterDuringFlying@@@@@8
data$rs	SEGMENT
??_R0?AU?$RangeTester@UFCheckAnotherMonsterDuringFlying@@@@@8 DD FLAT:??_7type_info@@6B@ ; RangeTester<FCheckAnotherMonsterDuringFlying> `RTTI Type Descriptor'
	DD	00H
	DB	'.?AU?$RangeTester@UFCheckAnotherMonsterDuringFlying@@@@', 00H
data$rs	ENDS
;	COMDAT ??_R4?$RangeTester@UFCheckAnotherMonsterDuringFlying@@@@6B@
rdata$r	SEGMENT
??_R4?$RangeTester@UFCheckAnotherMonsterDuringFlying@@@@6B@ DD 00H ; RangeTester<FCheckAnotherMonsterDuringFlying>::`RTTI Complete Object Locator'
	DD	00H
	DD	00H
	DD	FLAT:??_R0?AU?$RangeTester@UFCheckAnotherMonsterDuringFlying@@@@@8
	DD	FLAT:??_R3?$RangeTester@UFCheckAnotherMonsterDuringFlying@@@@8
rdata$r	ENDS
;	COMDAT ??_R1A@?0A@EA@?$CDynamicPool@VCFlyingInstance@@@@8
rdata$r	SEGMENT
??_R1A@?0A@EA@?$CDynamicPool@VCFlyingInstance@@@@8 DD FLAT:??_R0?AV?$CDynamicPool@VCFlyingInstance@@@@@8 ; CDynamicPool<CFlyingInstance>::`RTTI Base Class Descriptor at (0,-1,0,64)'
	DD	00H
	DD	00H
	DD	0ffffffffH
	DD	00H
	DD	040H
	DD	FLAT:??_R3?$CDynamicPool@VCFlyingInstance@@@@8
rdata$r	ENDS
;	COMDAT ??_R2?$CDynamicPool@VCFlyingInstance@@@@8
rdata$r	SEGMENT
??_R2?$CDynamicPool@VCFlyingInstance@@@@8 DD FLAT:??_R1A@?0A@EA@?$CDynamicPool@VCFlyingInstance@@@@8 ; CDynamicPool<CFlyingInstance>::`RTTI Base Class Array'
rdata$r	ENDS
;	COMDAT ??_R3?$CDynamicPool@VCFlyingInstance@@@@8
rdata$r	SEGMENT
??_R3?$CDynamicPool@VCFlyingInstance@@@@8 DD 00H	; CDynamicPool<CFlyingInstance>::`RTTI Class Hierarchy Descriptor'
	DD	00H
	DD	01H
	DD	FLAT:??_R2?$CDynamicPool@VCFlyingInstance@@@@8
rdata$r	ENDS
;	COMDAT ??_R0?AV?$CDynamicPool@VCFlyingInstance@@@@@8
data$rs	SEGMENT
??_R0?AV?$CDynamicPool@VCFlyingInstance@@@@@8 DD FLAT:??_7type_info@@6B@ ; CDynamicPool<CFlyingInstance> `RTTI Type Descriptor'
	DD	00H
	DB	'.?AV?$CDynamicPool@VCFlyingInstance@@@@', 00H
data$rs	ENDS
;	COMDAT ??_R4?$CDynamicPool@VCFlyingInstance@@@@6B@
rdata$r	SEGMENT
??_R4?$CDynamicPool@VCFlyingInstance@@@@6B@ DD 00H	; CDynamicPool<CFlyingInstance>::`RTTI Complete Object Locator'
	DD	00H
	DD	00H
	DD	FLAT:??_R0?AV?$CDynamicPool@VCFlyingInstance@@@@@8
	DD	FLAT:??_R3?$CDynamicPool@VCFlyingInstance@@@@8
rdata$r	ENDS
;	COMDAT ??_R1A@?0A@EA@CFlyingInstance@@8
rdata$r	SEGMENT
??_R1A@?0A@EA@CFlyingInstance@@8 DD FLAT:??_R0?AVCFlyingInstance@@@8 ; CFlyingInstance::`RTTI Base Class Descriptor at (0,-1,0,64)'
	DD	00H
	DD	00H
	DD	0ffffffffH
	DD	00H
	DD	040H
	DD	FLAT:??_R3CFlyingInstance@@8
rdata$r	ENDS
;	COMDAT ??_R2CFlyingInstance@@8
rdata$r	SEGMENT
??_R2CFlyingInstance@@8 DD FLAT:??_R1A@?0A@EA@CFlyingInstance@@8 ; CFlyingInstance::`RTTI Base Class Array'
rdata$r	ENDS
;	COMDAT ??_R3CFlyingInstance@@8
rdata$r	SEGMENT
??_R3CFlyingInstance@@8 DD 00H				; CFlyingInstance::`RTTI Class Hierarchy Descriptor'
	DD	00H
	DD	01H
	DD	FLAT:??_R2CFlyingInstance@@8
rdata$r	ENDS
;	COMDAT ??_R0?AVCFlyingInstance@@@8
data$rs	SEGMENT
??_R0?AVCFlyingInstance@@@8 DD FLAT:??_7type_info@@6B@	; CFlyingInstance `RTTI Type Descriptor'
	DD	00H
	DB	'.?AVCFlyingInstance@@', 00H
data$rs	ENDS
;	COMDAT ??_R4CFlyingInstance@@6B@
rdata$r	SEGMENT
??_R4CFlyingInstance@@6B@ DD 00H			; CFlyingInstance::`RTTI Complete Object Locator'
	DD	00H
	DD	00H
	DD	FLAT:??_R0?AVCFlyingInstance@@@8
	DD	FLAT:??_R3CFlyingInstance@@8
rdata$r	ENDS
;	COMDAT ??_R1A@?0A@EA@?$CDynamicPoolEx@VCRotationDecorator@NEffectUpdateDecorator@@@@8
rdata$r	SEGMENT
??_R1A@?0A@EA@?$CDynamicPoolEx@VCRotationDecorator@NEffectUpdateDecorator@@@@8 DD FLAT:??_R0?AV?$CDynamicPoolEx@VCRotationDecorator@NEffectUpdateDecorator@@@@@8 ; CDynamicPoolEx<NEffectUpdateDecorator::CRotationDecorator>::`RTTI Base Class Descriptor at (0,-1,0,64)'
	DD	00H
	DD	00H
	DD	0ffffffffH
	DD	00H
	DD	040H
	DD	FLAT:??_R3?$CDynamicPoolEx@VCRotationDecorator@NEffectUpdateDecorator@@@@8
rdata$r	ENDS
;	COMDAT ??_R2?$CDynamicPoolEx@VCRotationDecorator@NEffectUpdateDecorator@@@@8
rdata$r	SEGMENT
??_R2?$CDynamicPoolEx@VCRotationDecorator@NEffectUpdateDecorator@@@@8 DD FLAT:??_R1A@?0A@EA@?$CDynamicPoolEx@VCRotationDecorator@NEffectUpdateDecorator@@@@8 ; CDynamicPoolEx<NEffectUpdateDecorator::CRotationDecorator>::`RTTI Base Class Array'
rdata$r	ENDS
;	COMDAT ??_R3?$CDynamicPoolEx@VCRotationDecorator@NEffectUpdateDecorator@@@@8
rdata$r	SEGMENT
??_R3?$CDynamicPoolEx@VCRotationDecorator@NEffectUpdateDecorator@@@@8 DD 00H ; CDynamicPoolEx<NEffectUpdateDecorator::CRotationDecorator>::`RTTI Class Hierarchy Descriptor'
	DD	00H
	DD	01H
	DD	FLAT:??_R2?$CDynamicPoolEx@VCRotationDecorator@NEffectUpdateDecorator@@@@8
rdata$r	ENDS
;	COMDAT ??_R0?AV?$CDynamicPoolEx@VCRotationDecorator@NEffectUpdateDecorator@@@@@8
data$rs	SEGMENT
??_R0?AV?$CDynamicPoolEx@VCRotationDecorator@NEffectUpdateDecorator@@@@@8 DD FLAT:??_7type_info@@6B@ ; CDynamicPoolEx<NEffectUpdateDecorator::CRotationDecorator> `RTTI Type Descriptor'
	DD	00H
	DB	'.?AV?$CDynamicPoolEx@VCRotationDecorator@NEffectUpdateDe'
	DB	'corator@@@@', 00H
data$rs	ENDS
;	COMDAT ??_R4?$CDynamicPoolEx@VCRotationDecorator@NEffectUpdateDecorator@@@@6B@
rdata$r	SEGMENT
??_R4?$CDynamicPoolEx@VCRotationDecorator@NEffectUpdateDecorator@@@@6B@ DD 00H ; CDynamicPoolEx<NEffectUpdateDecorator::CRotationDecorator>::`RTTI Complete Object Locator'
	DD	00H
	DD	00H
	DD	FLAT:??_R0?AV?$CDynamicPoolEx@VCRotationDecorator@NEffectUpdateDecorator@@@@@8
	DD	FLAT:??_R3?$CDynamicPoolEx@VCRotationDecorator@NEffectUpdateDecorator@@@@8
rdata$r	ENDS
;	COMDAT ??_R1A@?0A@EA@?$CDynamicPoolEx@VCGravityDecorator@NEffectUpdateDecorator@@@@8
rdata$r	SEGMENT
??_R1A@?0A@EA@?$CDynamicPoolEx@VCGravityDecorator@NEffectUpdateDecorator@@@@8 DD FLAT:??_R0?AV?$CDynamicPoolEx@VCGravityDecorator@NEffectUpdateDecorator@@@@@8 ; CDynamicPoolEx<NEffectUpdateDecorator::CGravityDecorator>::`RTTI Base Class Descriptor at (0,-1,0,64)'
	DD	00H
	DD	00H
	DD	0ffffffffH
	DD	00H
	DD	040H
	DD	FLAT:??_R3?$CDynamicPoolEx@VCGravityDecorator@NEffectUpdateDecorator@@@@8
rdata$r	ENDS
;	COMDAT ??_R2?$CDynamicPoolEx@VCGravityDecorator@NEffectUpdateDecorator@@@@8
rdata$r	SEGMENT
??_R2?$CDynamicPoolEx@VCGravityDecorator@NEffectUpdateDecorator@@@@8 DD FLAT:??_R1A@?0A@EA@?$CDynamicPoolEx@VCGravityDecorator@NEffectUpdateDecorator@@@@8 ; CDynamicPoolEx<NEffectUpdateDecorator::CGravityDecorator>::`RTTI Base Class Array'
rdata$r	ENDS
;	COMDAT ??_R3?$CDynamicPoolEx@VCGravityDecorator@NEffectUpdateDecorator@@@@8
rdata$r	SEGMENT
??_R3?$CDynamicPoolEx@VCGravityDecorator@NEffectUpdateDecorator@@@@8 DD 00H ; CDynamicPoolEx<NEffectUpdateDecorator::CGravityDecorator>::`RTTI Class Hierarchy Descriptor'
	DD	00H
	DD	01H
	DD	FLAT:??_R2?$CDynamicPoolEx@VCGravityDecorator@NEffectUpdateDecorator@@@@8
rdata$r	ENDS
;	COMDAT ??_R0?AV?$CDynamicPoolEx@VCGravityDecorator@NEffectUpdateDecorator@@@@@8
data$rs	SEGMENT
??_R0?AV?$CDynamicPoolEx@VCGravityDecorator@NEffectUpdateDecorator@@@@@8 DD FLAT:??_7type_info@@6B@ ; CDynamicPoolEx<NEffectUpdateDecorator::CGravityDecorator> `RTTI Type Descriptor'
	DD	00H
	DB	'.?AV?$CDynamicPoolEx@VCGravityDecorator@NEffectUpdateDec'
	DB	'orator@@@@', 00H
data$rs	ENDS
;	COMDAT ??_R4?$CDynamicPoolEx@VCGravityDecorator@NEffectUpdateDecorator@@@@6B@
rdata$r	SEGMENT
??_R4?$CDynamicPoolEx@VCGravityDecorator@NEffectUpdateDecorator@@@@6B@ DD 00H ; CDynamicPoolEx<NEffectUpdateDecorator::CGravityDecorator>::`RTTI Complete Object Locator'
	DD	00H
	DD	00H
	DD	FLAT:??_R0?AV?$CDynamicPoolEx@VCGravityDecorator@NEffectUpdateDecorator@@@@@8
	DD	FLAT:??_R3?$CDynamicPoolEx@VCGravityDecorator@NEffectUpdateDecorator@@@@8
rdata$r	ENDS
;	COMDAT ??_R1A@?0A@EA@?$CDynamicPoolEx@VCAirResistanceDecorator@NEffectUpdateDecorator@@@@8
rdata$r	SEGMENT
??_R1A@?0A@EA@?$CDynamicPoolEx@VCAirResistanceDecorator@NEffectUpdateDecorator@@@@8 DD FLAT:??_R0?AV?$CDynamicPoolEx@VCAirResistanceDecorator@NEffectUpdateDecorator@@@@@8 ; CDynamicPoolEx<NEffectUpdateDecorator::CAirResistanceDecorator>::`RTTI Base Class Descriptor at (0,-1,0,64)'
	DD	00H
	DD	00H
	DD	0ffffffffH
	DD	00H
	DD	040H
	DD	FLAT:??_R3?$CDynamicPoolEx@VCAirResistanceDecorator@NEffectUpdateDecorator@@@@8
rdata$r	ENDS
;	COMDAT ??_R2?$CDynamicPoolEx@VCAirResistanceDecorator@NEffectUpdateDecorator@@@@8
rdata$r	SEGMENT
??_R2?$CDynamicPoolEx@VCAirResistanceDecorator@NEffectUpdateDecorator@@@@8 DD FLAT:??_R1A@?0A@EA@?$CDynamicPoolEx@VCAirResistanceDecorator@NEffectUpdateDecorator@@@@8 ; CDynamicPoolEx<NEffectUpdateDecorator::CAirResistanceDecorator>::`RTTI Base Class Array'
rdata$r	ENDS
;	COMDAT ??_R3?$CDynamicPoolEx@VCAirResistanceDecorator@NEffectUpdateDecorator@@@@8
rdata$r	SEGMENT
??_R3?$CDynamicPoolEx@VCAirResistanceDecorator@NEffectUpdateDecorator@@@@8 DD 00H ; CDynamicPoolEx<NEffectUpdateDecorator::CAirResistanceDecorator>::`RTTI Class Hierarchy Descriptor'
	DD	00H
	DD	01H
	DD	FLAT:??_R2?$CDynamicPoolEx@VCAirResistanceDecorator@NEffectUpdateDecorator@@@@8
rdata$r	ENDS
;	COMDAT ??_R0?AV?$CDynamicPoolEx@VCAirResistanceDecorator@NEffectUpdateDecorator@@@@@8
data$rs	SEGMENT
??_R0?AV?$CDynamicPoolEx@VCAirResistanceDecorator@NEffectUpdateDecorator@@@@@8 DD FLAT:??_7type_info@@6B@ ; CDynamicPoolEx<NEffectUpdateDecorator::CAirResistanceDecorator> `RTTI Type Descriptor'
	DD	00H
	DB	'.?AV?$CDynamicPoolEx@VCAirResistanceDecorator@NEffectUpd'
	DB	'ateDecorator@@@@', 00H
data$rs	ENDS
;	COMDAT ??_R4?$CDynamicPoolEx@VCAirResistanceDecorator@NEffectUpdateDecorator@@@@6B@
rdata$r	SEGMENT
??_R4?$CDynamicPoolEx@VCAirResistanceDecorator@NEffectUpdateDecorator@@@@6B@ DD 00H ; CDynamicPoolEx<NEffectUpdateDecorator::CAirResistanceDecorator>::`RTTI Complete Object Locator'
	DD	00H
	DD	00H
	DD	FLAT:??_R0?AV?$CDynamicPoolEx@VCAirResistanceDecorator@NEffectUpdateDecorator@@@@@8
	DD	FLAT:??_R3?$CDynamicPoolEx@VCAirResistanceDecorator@NEffectUpdateDecorator@@@@8
rdata$r	ENDS
;	COMDAT ??_R1A@?0A@EA@?$CDynamicPoolEx@VCTextureAnimationRandomDecorator@NEffectUpdateDecorator@@@@8
rdata$r	SEGMENT
??_R1A@?0A@EA@?$CDynamicPoolEx@VCTextureAnimationRandomDecorator@NEffectUpdateDecorator@@@@8 DD FLAT:??_R0?AV?$CDynamicPoolEx@VCTextureAnimationRandomDecorator@NEffectUpdateDecorator@@@@@8 ; CDynamicPoolEx<NEffectUpdateDecorator::CTextureAnimationRandomDecorator>::`RTTI Base Class Descriptor at (0,-1,0,64)'
	DD	00H
	DD	00H
	DD	0ffffffffH
	DD	00H
	DD	040H
	DD	FLAT:??_R3?$CDynamicPoolEx@VCTextureAnimationRandomDecorator@NEffectUpdateDecorator@@@@8
rdata$r	ENDS
;	COMDAT ??_R2?$CDynamicPoolEx@VCTextureAnimationRandomDecorator@NEffectUpdateDecorator@@@@8
rdata$r	SEGMENT
??_R2?$CDynamicPoolEx@VCTextureAnimationRandomDecorator@NEffectUpdateDecorator@@@@8 DD FLAT:??_R1A@?0A@EA@?$CDynamicPoolEx@VCTextureAnimationRandomDecorator@NEffectUpdateDecorator@@@@8 ; CDynamicPoolEx<NEffectUpdateDecorator::CTextureAnimationRandomDecorator>::`RTTI Base Class Array'
rdata$r	ENDS
;	COMDAT ??_R3?$CDynamicPoolEx@VCTextureAnimationRandomDecorator@NEffectUpdateDecorator@@@@8
rdata$r	SEGMENT
??_R3?$CDynamicPoolEx@VCTextureAnimationRandomDecorator@NEffectUpdateDecorator@@@@8 DD 00H ; CDynamicPoolEx<NEffectUpdateDecorator::CTextureAnimationRandomDecorator>::`RTTI Class Hierarchy Descriptor'
	DD	00H
	DD	01H
	DD	FLAT:??_R2?$CDynamicPoolEx@VCTextureAnimationRandomDecorator@NEffectUpdateDecorator@@@@8
rdata$r	ENDS
;	COMDAT ??_R0?AV?$CDynamicPoolEx@VCTextureAnimationRandomDecorator@NEffectUpdateDecorator@@@@@8
data$rs	SEGMENT
??_R0?AV?$CDynamicPoolEx@VCTextureAnimationRandomDecorator@NEffectUpdateDecorator@@@@@8 DD FLAT:??_7type_info@@6B@ ; CDynamicPoolEx<NEffectUpdateDecorator::CTextureAnimationRandomDecorator> `RTTI Type Descriptor'
	DD	00H
	DB	'.?AV?$CDynamicPoolEx@VCTextureAnimationRandomDecorator@N'
	DB	'EffectUpdateDecorator@@@@', 00H
data$rs	ENDS
;	COMDAT ??_R4?$CDynamicPoolEx@VCTextureAnimationRandomDecorator@NEffectUpdateDecorator@@@@6B@
rdata$r	SEGMENT
??_R4?$CDynamicPoolEx@VCTextureAnimationRandomDecorator@NEffectUpdateDecorator@@@@6B@ DD 00H ; CDynamicPoolEx<NEffectUpdateDecorator::CTextureAnimationRandomDecorator>::`RTTI Complete Object Locator'
	DD	00H
	DD	00H
	DD	FLAT:??_R0?AV?$CDynamicPoolEx@VCTextureAnimationRandomDecorator@NEffectUpdateDecorator@@@@@8
	DD	FLAT:??_R3?$CDynamicPoolEx@VCTextureAnimationRandomDecorator@NEffectUpdateDecorator@@@@8
rdata$r	ENDS
;	COMDAT ??_R1A@?0A@EA@?$CDynamicPoolEx@VCTextureAnimationCCWDecorator@NEffectUpdateDecorator@@@@8
rdata$r	SEGMENT
??_R1A@?0A@EA@?$CDynamicPoolEx@VCTextureAnimationCCWDecorator@NEffectUpdateDecorator@@@@8 DD FLAT:??_R0?AV?$CDynamicPoolEx@VCTextureAnimationCCWDecorator@NEffectUpdateDecorator@@@@@8 ; CDynamicPoolEx<NEffectUpdateDecorator::CTextureAnimationCCWDecorator>::`RTTI Base Class Descriptor at (0,-1,0,64)'
	DD	00H
	DD	00H
	DD	0ffffffffH
	DD	00H
	DD	040H
	DD	FLAT:??_R3?$CDynamicPoolEx@VCTextureAnimationCCWDecorator@NEffectUpdateDecorator@@@@8
rdata$r	ENDS
;	COMDAT ??_R2?$CDynamicPoolEx@VCTextureAnimationCCWDecorator@NEffectUpdateDecorator@@@@8
rdata$r	SEGMENT
??_R2?$CDynamicPoolEx@VCTextureAnimationCCWDecorator@NEffectUpdateDecorator@@@@8 DD FLAT:??_R1A@?0A@EA@?$CDynamicPoolEx@VCTextureAnimationCCWDecorator@NEffectUpdateDecorator@@@@8 ; CDynamicPoolEx<NEffectUpdateDecorator::CTextureAnimationCCWDecorator>::`RTTI Base Class Array'
rdata$r	ENDS
;	COMDAT ??_R3?$CDynamicPoolEx@VCTextureAnimationCCWDecorator@NEffectUpdateDecorator@@@@8
rdata$r	SEGMENT
??_R3?$CDynamicPoolEx@VCTextureAnimationCCWDecorator@NEffectUpdateDecorator@@@@8 DD 00H ; CDynamicPoolEx<NEffectUpdateDecorator::CTextureAnimationCCWDecorator>::`RTTI Class Hierarchy Descriptor'
	DD	00H
	DD	01H
	DD	FLAT:??_R2?$CDynamicPoolEx@VCTextureAnimationCCWDecorator@NEffectUpdateDecorator@@@@8
rdata$r	ENDS
;	COMDAT ??_R0?AV?$CDynamicPoolEx@VCTextureAnimationCCWDecorator@NEffectUpdateDecorator@@@@@8
data$rs	SEGMENT
??_R0?AV?$CDynamicPoolEx@VCTextureAnimationCCWDecorator@NEffectUpdateDecorator@@@@@8 DD FLAT:??_7type_info@@6B@ ; CDynamicPoolEx<NEffectUpdateDecorator::CTextureAnimationCCWDecorator> `RTTI Type Descriptor'
	DD	00H
	DB	'.?AV?$CDynamicPoolEx@VCTextureAnimationCCWDecorator@NEff'
	DB	'ectUpdateDecorator@@@@', 00H
data$rs	ENDS
;	COMDAT ??_R4?$CDynamicPoolEx@VCTextureAnimationCCWDecorator@NEffectUpdateDecorator@@@@6B@
rdata$r	SEGMENT
??_R4?$CDynamicPoolEx@VCTextureAnimationCCWDecorator@NEffectUpdateDecorator@@@@6B@ DD 00H ; CDynamicPoolEx<NEffectUpdateDecorator::CTextureAnimationCCWDecorator>::`RTTI Complete Object Locator'
	DD	00H
	DD	00H
	DD	FLAT:??_R0?AV?$CDynamicPoolEx@VCTextureAnimationCCWDecorator@NEffectUpdateDecorator@@@@@8
	DD	FLAT:??_R3?$CDynamicPoolEx@VCTextureAnimationCCWDecorator@NEffectUpdateDecorator@@@@8
rdata$r	ENDS
;	COMDAT ??_R1A@?0A@EA@?$CDynamicPoolEx@VCTextureAnimationCWDecorator@NEffectUpdateDecorator@@@@8
rdata$r	SEGMENT
??_R1A@?0A@EA@?$CDynamicPoolEx@VCTextureAnimationCWDecorator@NEffectUpdateDecorator@@@@8 DD FLAT:??_R0?AV?$CDynamicPoolEx@VCTextureAnimationCWDecorator@NEffectUpdateDecorator@@@@@8 ; CDynamicPoolEx<NEffectUpdateDecorator::CTextureAnimationCWDecorator>::`RTTI Base Class Descriptor at (0,-1,0,64)'
	DD	00H
	DD	00H
	DD	0ffffffffH
	DD	00H
	DD	040H
	DD	FLAT:??_R3?$CDynamicPoolEx@VCTextureAnimationCWDecorator@NEffectUpdateDecorator@@@@8
rdata$r	ENDS
;	COMDAT ??_R2?$CDynamicPoolEx@VCTextureAnimationCWDecorator@NEffectUpdateDecorator@@@@8
rdata$r	SEGMENT
??_R2?$CDynamicPoolEx@VCTextureAnimationCWDecorator@NEffectUpdateDecorator@@@@8 DD FLAT:??_R1A@?0A@EA@?$CDynamicPoolEx@VCTextureAnimationCWDecorator@NEffectUpdateDecorator@@@@8 ; CDynamicPoolEx<NEffectUpdateDecorator::CTextureAnimationCWDecorator>::`RTTI Base Class Array'
rdata$r	ENDS
;	COMDAT ??_R3?$CDynamicPoolEx@VCTextureAnimationCWDecorator@NEffectUpdateDecorator@@@@8
rdata$r	SEGMENT
??_R3?$CDynamicPoolEx@VCTextureAnimationCWDecorator@NEffectUpdateDecorator@@@@8 DD 00H ; CDynamicPoolEx<NEffectUpdateDecorator::CTextureAnimationCWDecorator>::`RTTI Class Hierarchy Descriptor'
	DD	00H
	DD	01H
	DD	FLAT:??_R2?$CDynamicPoolEx@VCTextureAnimationCWDecorator@NEffectUpdateDecorator@@@@8
rdata$r	ENDS
;	COMDAT ??_R0?AV?$CDynamicPoolEx@VCTextureAnimationCWDecorator@NEffectUpdateDecorator@@@@@8
data$rs	SEGMENT
??_R0?AV?$CDynamicPoolEx@VCTextureAnimationCWDecorator@NEffectUpdateDecorator@@@@@8 DD FLAT:??_7type_info@@6B@ ; CDynamicPoolEx<NEffectUpdateDecorator::CTextureAnimationCWDecorator> `RTTI Type Descriptor'
	DD	00H
	DB	'.?AV?$CDynamicPoolEx@VCTextureAnimationCWDecorator@NEffe'
	DB	'ctUpdateDecorator@@@@', 00H
data$rs	ENDS
;	COMDAT ??_R4?$CDynamicPoolEx@VCTextureAnimationCWDecorator@NEffectUpdateDecorator@@@@6B@
rdata$r	SEGMENT
??_R4?$CDynamicPoolEx@VCTextureAnimationCWDecorator@NEffectUpdateDecorator@@@@6B@ DD 00H ; CDynamicPoolEx<NEffectUpdateDecorator::CTextureAnimationCWDecorator>::`RTTI Complete Object Locator'
	DD	00H
	DD	00H
	DD	FLAT:??_R0?AV?$CDynamicPoolEx@VCTextureAnimationCWDecorator@NEffectUpdateDecorator@@@@@8
	DD	FLAT:??_R3?$CDynamicPoolEx@VCTextureAnimationCWDecorator@NEffectUpdateDecorator@@@@8
rdata$r	ENDS
;	COMDAT ??_R1A@?0A@EA@?$CDynamicPoolEx@VCNullDecorator@NEffectUpdateDecorator@@@@8
rdata$r	SEGMENT
??_R1A@?0A@EA@?$CDynamicPoolEx@VCNullDecorator@NEffectUpdateDecorator@@@@8 DD FLAT:??_R0?AV?$CDynamicPoolEx@VCNullDecorator@NEffectUpdateDecorator@@@@@8 ; CDynamicPoolEx<NEffectUpdateDecorator::CNullDecorator>::`RTTI Base Class Descriptor at (0,-1,0,64)'
	DD	00H
	DD	00H
	DD	0ffffffffH
	DD	00H
	DD	040H
	DD	FLAT:??_R3?$CDynamicPoolEx@VCNullDecorator@NEffectUpdateDecorator@@@@8
rdata$r	ENDS
;	COMDAT ??_R2?$CDynamicPoolEx@VCNullDecorator@NEffectUpdateDecorator@@@@8
rdata$r	SEGMENT
??_R2?$CDynamicPoolEx@VCNullDecorator@NEffectUpdateDecorator@@@@8 DD FLAT:??_R1A@?0A@EA@?$CDynamicPoolEx@VCNullDecorator@NEffectUpdateDecorator@@@@8 ; CDynamicPoolEx<NEffectUpdateDecorator::CNullDecorator>::`RTTI Base Class Array'
rdata$r	ENDS
;	COMDAT ??_R3?$CDynamicPoolEx@VCNullDecorator@NEffectUpdateDecorator@@@@8
rdata$r	SEGMENT
??_R3?$CDynamicPoolEx@VCNullDecorator@NEffectUpdateDecorator@@@@8 DD 00H ; CDynamicPoolEx<NEffectUpdateDecorator::CNullDecorator>::`RTTI Class Hierarchy Descriptor'
	DD	00H
	DD	01H
	DD	FLAT:??_R2?$CDynamicPoolEx@VCNullDecorator@NEffectUpdateDecorator@@@@8
rdata$r	ENDS
;	COMDAT ??_R0?AV?$CDynamicPoolEx@VCNullDecorator@NEffectUpdateDecorator@@@@@8
data$rs	SEGMENT
??_R0?AV?$CDynamicPoolEx@VCNullDecorator@NEffectUpdateDecorator@@@@@8 DD FLAT:??_7type_info@@6B@ ; CDynamicPoolEx<NEffectUpdateDecorator::CNullDecorator> `RTTI Type Descriptor'
	DD	00H
	DB	'.?AV?$CDynamicPoolEx@VCNullDecorator@NEffectUpdateDecora'
	DB	'tor@@@@', 00H
data$rs	ENDS
;	COMDAT ??_R4?$CDynamicPoolEx@VCNullDecorator@NEffectUpdateDecorator@@@@6B@
rdata$r	SEGMENT
??_R4?$CDynamicPoolEx@VCNullDecorator@NEffectUpdateDecorator@@@@6B@ DD 00H ; CDynamicPoolEx<NEffectUpdateDecorator::CNullDecorator>::`RTTI Complete Object Locator'
	DD	00H
	DD	00H
	DD	FLAT:??_R0?AV?$CDynamicPoolEx@VCNullDecorator@NEffectUpdateDecorator@@@@@8
	DD	FLAT:??_R3?$CDynamicPoolEx@VCNullDecorator@NEffectUpdateDecorator@@@@8
rdata$r	ENDS
;	COMDAT ??_R1A@?0A@EA@?$CDynamicPoolEx@VCHeaderDecorator@NEffectUpdateDecorator@@@@8
rdata$r	SEGMENT
??_R1A@?0A@EA@?$CDynamicPoolEx@VCHeaderDecorator@NEffectUpdateDecorator@@@@8 DD FLAT:??_R0?AV?$CDynamicPoolEx@VCHeaderDecorator@NEffectUpdateDecorator@@@@@8 ; CDynamicPoolEx<NEffectUpdateDecorator::CHeaderDecorator>::`RTTI Base Class Descriptor at (0,-1,0,64)'
	DD	00H
	DD	00H
	DD	0ffffffffH
	DD	00H
	DD	040H
	DD	FLAT:??_R3?$CDynamicPoolEx@VCHeaderDecorator@NEffectUpdateDecorator@@@@8
rdata$r	ENDS
;	COMDAT ??_R2?$CDynamicPoolEx@VCHeaderDecorator@NEffectUpdateDecorator@@@@8
rdata$r	SEGMENT
??_R2?$CDynamicPoolEx@VCHeaderDecorator@NEffectUpdateDecorator@@@@8 DD FLAT:??_R1A@?0A@EA@?$CDynamicPoolEx@VCHeaderDecorator@NEffectUpdateDecorator@@@@8 ; CDynamicPoolEx<NEffectUpdateDecorator::CHeaderDecorator>::`RTTI Base Class Array'
rdata$r	ENDS
;	COMDAT ??_R3?$CDynamicPoolEx@VCHeaderDecorator@NEffectUpdateDecorator@@@@8
rdata$r	SEGMENT
??_R3?$CDynamicPoolEx@VCHeaderDecorator@NEffectUpdateDecorator@@@@8 DD 00H ; CDynamicPoolEx<NEffectUpdateDecorator::CHeaderDecorator>::`RTTI Class Hierarchy Descriptor'
	DD	00H
	DD	01H
	DD	FLAT:??_R2?$CDynamicPoolEx@VCHeaderDecorator@NEffectUpdateDecorator@@@@8
rdata$r	ENDS
;	COMDAT ??_R0?AV?$CDynamicPoolEx@VCHeaderDecorator@NEffectUpdateDecorator@@@@@8
data$rs	SEGMENT
??_R0?AV?$CDynamicPoolEx@VCHeaderDecorator@NEffectUpdateDecorator@@@@@8 DD FLAT:??_7type_info@@6B@ ; CDynamicPoolEx<NEffectUpdateDecorator::CHeaderDecorator> `RTTI Type Descriptor'
	DD	00H
	DB	'.?AV?$CDynamicPoolEx@VCHeaderDecorator@NEffectUpdateDeco'
	DB	'rator@@@@', 00H
data$rs	ENDS
;	COMDAT ??_R4?$CDynamicPoolEx@VCHeaderDecorator@NEffectUpdateDecorator@@@@6B@
rdata$r	SEGMENT
??_R4?$CDynamicPoolEx@VCHeaderDecorator@NEffectUpdateDecorator@@@@6B@ DD 00H ; CDynamicPoolEx<NEffectUpdateDecorator::CHeaderDecorator>::`RTTI Complete Object Locator'
	DD	00H
	DD	00H
	DD	FLAT:??_R0?AV?$CDynamicPoolEx@VCHeaderDecorator@NEffectUpdateDecorator@@@@@8
	DD	FLAT:??_R3?$CDynamicPoolEx@VCHeaderDecorator@NEffectUpdateDecorator@@@@8
rdata$r	ENDS
;	COMDAT ??_R1A@?0A@EA@SpherePackCallback@@8
rdata$r	SEGMENT
??_R1A@?0A@EA@SpherePackCallback@@8 DD FLAT:??_R0?AVSpherePackCallback@@@8 ; SpherePackCallback::`RTTI Base Class Descriptor at (0,-1,0,64)'
	DD	00H
	DD	00H
	DD	0ffffffffH
	DD	00H
	DD	040H
	DD	FLAT:??_R3SpherePackCallback@@8
rdata$r	ENDS
;	COMDAT ??_R2SpherePackCallback@@8
rdata$r	SEGMENT
??_R2SpherePackCallback@@8 DD FLAT:??_R1A@?0A@EA@SpherePackCallback@@8 ; SpherePackCallback::`RTTI Base Class Array'
rdata$r	ENDS
;	COMDAT ??_R3SpherePackCallback@@8
rdata$r	SEGMENT
??_R3SpherePackCallback@@8 DD 00H			; SpherePackCallback::`RTTI Class Hierarchy Descriptor'
	DD	00H
	DD	01H
	DD	FLAT:??_R2SpherePackCallback@@8
rdata$r	ENDS
;	COMDAT ??_R0?AVSpherePackCallback@@@8
data$rs	SEGMENT
??_R0?AVSpherePackCallback@@@8 DD FLAT:??_7type_info@@6B@ ; SpherePackCallback `RTTI Type Descriptor'
	DD	00H
	DB	'.?AVSpherePackCallback@@', 00H
data$rs	ENDS
;	COMDAT ??_R4SpherePackCallback@@6B@
rdata$r	SEGMENT
??_R4SpherePackCallback@@6B@ DD 00H			; SpherePackCallback::`RTTI Complete Object Locator'
	DD	00H
	DD	00H
	DD	FLAT:??_R0?AVSpherePackCallback@@@8
	DD	FLAT:??_R3SpherePackCallback@@8
rdata$r	ENDS
;	COMDAT ??_C@_0BA@FOIKENOD@vector?5too?5long@
CONST	SEGMENT
??_C@_0BA@FOIKENOD@vector?5too?5long@ DB 'vector too long', 00H ; `string'
CONST	ENDS
;	COMDAT ??_7?$RangeTester@UFCheckBackgroundDuringFlying@@@@6B@
CONST	SEGMENT
??_7?$RangeTester@UFCheckBackgroundDuringFlying@@@@6B@ DD FLAT:??_R4?$RangeTester@UFCheckBackgroundDuringFlying@@@@6B@ ; RangeTester<FCheckBackgroundDuringFlying>::`vftable'
	DD	FLAT:??_E?$RangeTester@UFCheckBackgroundDuringFlying@@@@UAEPAXI@Z
	DD	FLAT:?VisibilityCallback@?$RangeTester@UFCheckBackgroundDuringFlying@@@@UAEXABVFrustum@@PAVSpherePack@@W4ViewState@@@Z
	DD	FLAT:?RayTraceCallback@?$RangeTester@UFCheckBackgroundDuringFlying@@@@UAEXABVVector3d@@0M0PAVSpherePack@@@Z
	DD	FLAT:?RangeTestCallback@?$RangeTester@UFCheckBackgroundDuringFlying@@@@UAEXABVVector3d@@MPAVSpherePack@@W4ViewState@@@Z
	DD	FLAT:?PointTest2dCallback@?$RangeTester@UFCheckBackgroundDuringFlying@@@@UAEXABVVector3d@@PAVSpherePack@@W4ViewState@@@Z
CONST	ENDS
;	COMDAT ??_7?$RangeTester@UFCheckAnotherMonsterDuringFlying@@@@6B@
CONST	SEGMENT
??_7?$RangeTester@UFCheckAnotherMonsterDuringFlying@@@@6B@ DD FLAT:??_R4?$RangeTester@UFCheckAnotherMonsterDuringFlying@@@@6B@ ; RangeTester<FCheckAnotherMonsterDuringFlying>::`vftable'
	DD	FLAT:??_E?$RangeTester@UFCheckAnotherMonsterDuringFlying@@@@UAEPAXI@Z
	DD	FLAT:?VisibilityCallback@?$RangeTester@UFCheckAnotherMonsterDuringFlying@@@@UAEXABVFrustum@@PAVSpherePack@@W4ViewState@@@Z
	DD	FLAT:?RayTraceCallback@?$RangeTester@UFCheckAnotherMonsterDuringFlying@@@@UAEXABVVector3d@@0M0PAVSpherePack@@@Z
	DD	FLAT:?RangeTestCallback@?$RangeTester@UFCheckAnotherMonsterDuringFlying@@@@UAEXABVVector3d@@MPAVSpherePack@@W4ViewState@@@Z
	DD	FLAT:?PointTest2dCallback@?$RangeTester@UFCheckAnotherMonsterDuringFlying@@@@UAEXABVVector3d@@PAVSpherePack@@W4ViewState@@@Z
CONST	ENDS
;	COMDAT ??_7?$CDynamicPoolEx@VCHeaderDecorator@NEffectUpdateDecorator@@@@6B@
CONST	SEGMENT
??_7?$CDynamicPoolEx@VCHeaderDecorator@NEffectUpdateDecorator@@@@6B@ DD FLAT:??_R4?$CDynamicPoolEx@VCHeaderDecorator@NEffectUpdateDecorator@@@@6B@ ; CDynamicPoolEx<NEffectUpdateDecorator::CHeaderDecorator>::`vftable'
	DD	FLAT:??_E?$CDynamicPoolEx@VCHeaderDecorator@NEffectUpdateDecorator@@@@UAEPAXI@Z
CONST	ENDS
;	COMDAT ??_7?$CDynamicPoolEx@VCNullDecorator@NEffectUpdateDecorator@@@@6B@
CONST	SEGMENT
??_7?$CDynamicPoolEx@VCNullDecorator@NEffectUpdateDecorator@@@@6B@ DD FLAT:??_R4?$CDynamicPoolEx@VCNullDecorator@NEffectUpdateDecorator@@@@6B@ ; CDynamicPoolEx<NEffectUpdateDecorator::CNullDecorator>::`vftable'
	DD	FLAT:??_E?$CDynamicPoolEx@VCNullDecorator@NEffectUpdateDecorator@@@@UAEPAXI@Z
CONST	ENDS
;	COMDAT ??_7?$CDynamicPoolEx@VCTextureAnimationCWDecorator@NEffectUpdateDecorator@@@@6B@
CONST	SEGMENT
??_7?$CDynamicPoolEx@VCTextureAnimationCWDecorator@NEffectUpdateDecorator@@@@6B@ DD FLAT:??_R4?$CDynamicPoolEx@VCTextureAnimationCWDecorator@NEffectUpdateDecorator@@@@6B@ ; CDynamicPoolEx<NEffectUpdateDecorator::CTextureAnimationCWDecorator>::`vftable'
	DD	FLAT:??_E?$CDynamicPoolEx@VCTextureAnimationCWDecorator@NEffectUpdateDecorator@@@@UAEPAXI@Z
CONST	ENDS
;	COMDAT ??_7?$CDynamicPoolEx@VCTextureAnimationCCWDecorator@NEffectUpdateDecorator@@@@6B@
CONST	SEGMENT
??_7?$CDynamicPoolEx@VCTextureAnimationCCWDecorator@NEffectUpdateDecorator@@@@6B@ DD FLAT:??_R4?$CDynamicPoolEx@VCTextureAnimationCCWDecorator@NEffectUpdateDecorator@@@@6B@ ; CDynamicPoolEx<NEffectUpdateDecorator::CTextureAnimationCCWDecorator>::`vftable'
	DD	FLAT:??_E?$CDynamicPoolEx@VCTextureAnimationCCWDecorator@NEffectUpdateDecorator@@@@UAEPAXI@Z
CONST	ENDS
;	COMDAT ??_7?$CDynamicPoolEx@VCTextureAnimationRandomDecorator@NEffectUpdateDecorator@@@@6B@
CONST	SEGMENT
??_7?$CDynamicPoolEx@VCTextureAnimationRandomDecorator@NEffectUpdateDecorator@@@@6B@ DD FLAT:??_R4?$CDynamicPoolEx@VCTextureAnimationRandomDecorator@NEffectUpdateDecorator@@@@6B@ ; CDynamicPoolEx<NEffectUpdateDecorator::CTextureAnimationRandomDecorator>::`vftable'
	DD	FLAT:??_E?$CDynamicPoolEx@VCTextureAnimationRandomDecorator@NEffectUpdateDecorator@@@@UAEPAXI@Z
CONST	ENDS
;	COMDAT ??_7?$CDynamicPoolEx@VCAirResistanceDecorator@NEffectUpdateDecorator@@@@6B@
CONST	SEGMENT
??_7?$CDynamicPoolEx@VCAirResistanceDecorator@NEffectUpdateDecorator@@@@6B@ DD FLAT:??_R4?$CDynamicPoolEx@VCAirResistanceDecorator@NEffectUpdateDecorator@@@@6B@ ; CDynamicPoolEx<NEffectUpdateDecorator::CAirResistanceDecorator>::`vftable'
	DD	FLAT:??_E?$CDynamicPoolEx@VCAirResistanceDecorator@NEffectUpdateDecorator@@@@UAEPAXI@Z
CONST	ENDS
;	COMDAT ??_7?$CDynamicPoolEx@VCGravityDecorator@NEffectUpdateDecorator@@@@6B@
CONST	SEGMENT
??_7?$CDynamicPoolEx@VCGravityDecorator@NEffectUpdateDecorator@@@@6B@ DD FLAT:??_R4?$CDynamicPoolEx@VCGravityDecorator@NEffectUpdateDecorator@@@@6B@ ; CDynamicPoolEx<NEffectUpdateDecorator::CGravityDecorator>::`vftable'
	DD	FLAT:??_E?$CDynamicPoolEx@VCGravityDecorator@NEffectUpdateDecorator@@@@UAEPAXI@Z
CONST	ENDS
;	COMDAT ??_7?$CDynamicPoolEx@VCRotationDecorator@NEffectUpdateDecorator@@@@6B@
CONST	SEGMENT
??_7?$CDynamicPoolEx@VCRotationDecorator@NEffectUpdateDecorator@@@@6B@ DD FLAT:??_R4?$CDynamicPoolEx@VCRotationDecorator@NEffectUpdateDecorator@@@@6B@ ; CDynamicPoolEx<NEffectUpdateDecorator::CRotationDecorator>::`vftable'
	DD	FLAT:??_E?$CDynamicPoolEx@VCRotationDecorator@NEffectUpdateDecorator@@@@UAEPAXI@Z
CONST	ENDS
;	COMDAT ??_7?$CDynamicPool@VCFlyingInstance@@@@6B@
CONST	SEGMENT
??_7?$CDynamicPool@VCFlyingInstance@@@@6B@ DD FLAT:??_R4?$CDynamicPool@VCFlyingInstance@@@@6B@ ; CDynamicPool<CFlyingInstance>::`vftable'
	DD	FLAT:??_E?$CDynamicPool@VCFlyingInstance@@@@UAEPAXI@Z
CONST	ENDS
;	COMDAT ??_7CFlyingInstance@@6B@
CONST	SEGMENT
??_7CFlyingInstance@@6B@ DD FLAT:??_R4CFlyingInstance@@6B@ ; CFlyingInstance::`vftable'
	DD	FLAT:??_ECFlyingInstance@@UAEPAXI@Z
CONST	ENDS
;	COMDAT ??_7SpherePackCallback@@6B@
CONST	SEGMENT
??_7SpherePackCallback@@6B@ DD FLAT:??_R4SpherePackCallback@@6B@ ; SpherePackCallback::`vftable'
	DD	FLAT:??_ESpherePackCallback@@UAEPAXI@Z
	DD	FLAT:?VisibilityCallback@SpherePackCallback@@UAEXABVFrustum@@PAVSpherePack@@W4ViewState@@@Z
	DD	FLAT:?RayTraceCallback@SpherePackCallback@@UAEXABVVector3d@@0M0PAVSpherePack@@@Z
	DD	FLAT:?RangeTestCallback@SpherePackCallback@@UAEXABVVector3d@@MPAVSpherePack@@W4ViewState@@@Z
	DD	FLAT:?PointTest2dCallback@SpherePackCallback@@UAEXABVVector3d@@PAVSpherePack@@W4ViewState@@@Z
CONST	ENDS
;	COMDAT ??_R1A@?0A@EA@bad_array_new_length@std@@8
rdata$r	SEGMENT
??_R1A@?0A@EA@bad_array_new_length@std@@8 DD FLAT:??_R0?AVbad_array_new_length@std@@@8 ; std::bad_array_new_length::`RTTI Base Class Descriptor at (0,-1,0,64)'
	DD	02H
	DD	00H
	DD	0ffffffffH
	DD	00H
	DD	040H
	DD	FLAT:??_R3bad_array_new_length@std@@8
rdata$r	ENDS
;	COMDAT ??_R2bad_array_new_length@std@@8
rdata$r	SEGMENT
??_R2bad_array_new_length@std@@8 DD FLAT:??_R1A@?0A@EA@bad_array_new_length@std@@8 ; std::bad_array_new_length::`RTTI Base Class Array'
	DD	FLAT:??_R1A@?0A@EA@bad_alloc@std@@8
	DD	FLAT:??_R1A@?0A@EA@exception@std@@8
rdata$r	ENDS
;	COMDAT ??_R3bad_array_new_length@std@@8
rdata$r	SEGMENT
??_R3bad_array_new_length@std@@8 DD 00H			; std::bad_array_new_length::`RTTI Class Hierarchy Descriptor'
	DD	00H
	DD	03H
	DD	FLAT:??_R2bad_array_new_length@std@@8
rdata$r	ENDS
;	COMDAT ??_R4bad_array_new_length@std@@6B@
rdata$r	SEGMENT
??_R4bad_array_new_length@std@@6B@ DD 00H		; std::bad_array_new_length::`RTTI Complete Object Locator'
	DD	00H
	DD	00H
	DD	FLAT:??_R0?AVbad_array_new_length@std@@@8
	DD	FLAT:??_R3bad_array_new_length@std@@8
rdata$r	ENDS
;	COMDAT ??_R1A@?0A@EA@bad_alloc@std@@8
rdata$r	SEGMENT
??_R1A@?0A@EA@bad_alloc@std@@8 DD FLAT:??_R0?AVbad_alloc@std@@@8 ; std::bad_alloc::`RTTI Base Class Descriptor at (0,-1,0,64)'
	DD	01H
	DD	00H
	DD	0ffffffffH
	DD	00H
	DD	040H
	DD	FLAT:??_R3bad_alloc@std@@8
rdata$r	ENDS
;	COMDAT ??_R2bad_alloc@std@@8
rdata$r	SEGMENT
??_R2bad_alloc@std@@8 DD FLAT:??_R1A@?0A@EA@bad_alloc@std@@8 ; std::bad_alloc::`RTTI Base Class Array'
	DD	FLAT:??_R1A@?0A@EA@exception@std@@8
rdata$r	ENDS
;	COMDAT ??_R3bad_alloc@std@@8
rdata$r	SEGMENT
??_R3bad_alloc@std@@8 DD 00H				; std::bad_alloc::`RTTI Class Hierarchy Descriptor'
	DD	00H
	DD	02H
	DD	FLAT:??_R2bad_alloc@std@@8
rdata$r	ENDS
;	COMDAT ??_R4bad_alloc@std@@6B@
rdata$r	SEGMENT
??_R4bad_alloc@std@@6B@ DD 00H				; std::bad_alloc::`RTTI Complete Object Locator'
	DD	00H
	DD	00H
	DD	FLAT:??_R0?AVbad_alloc@std@@@8
	DD	FLAT:??_R3bad_alloc@std@@8
rdata$r	ENDS
;	COMDAT ??_R1A@?0A@EA@exception@std@@8
rdata$r	SEGMENT
??_R1A@?0A@EA@exception@std@@8 DD FLAT:??_R0?AVexception@std@@@8 ; std::exception::`RTTI Base Class Descriptor at (0,-1,0,64)'
	DD	00H
	DD	00H
	DD	0ffffffffH
	DD	00H
	DD	040H
	DD	FLAT:??_R3exception@std@@8
rdata$r	ENDS
;	COMDAT ??_R2exception@std@@8
rdata$r	SEGMENT
??_R2exception@std@@8 DD FLAT:??_R1A@?0A@EA@exception@std@@8 ; std::exception::`RTTI Base Class Array'
rdata$r	ENDS
;	COMDAT ??_R3exception@std@@8
rdata$r	SEGMENT
??_R3exception@std@@8 DD 00H				; std::exception::`RTTI Class Hierarchy Descriptor'
	DD	00H
	DD	01H
	DD	FLAT:??_R2exception@std@@8
rdata$r	ENDS
;	COMDAT ??_R4exception@std@@6B@
rdata$r	SEGMENT
??_R4exception@std@@6B@ DD 00H				; std::exception::`RTTI Complete Object Locator'
	DD	00H
	DD	00H
	DD	FLAT:??_R0?AVexception@std@@@8
	DD	FLAT:??_R3exception@std@@8
rdata$r	ENDS
;	COMDAT ??_C@_0BB@GCADKGJO@map?1set?5too?5long@
CONST	SEGMENT
??_C@_0BB@GCADKGJO@map?1set?5too?5long@ DB 'map/set too long', 00H ; `string'
CONST	ENDS
;	COMDAT __CT??_R0?AVexception@std@@@8??0exception@std@@QAE@ABV01@@Z12
xdata$x	SEGMENT
__CT??_R0?AVexception@std@@@8??0exception@std@@QAE@ABV01@@Z12 DD 00H
	DD	FLAT:??_R0?AVexception@std@@@8
	DD	00H
	DD	0ffffffffH
	ORG $+4
	DD	0cH
	DD	FLAT:??0exception@std@@QAE@ABV01@@Z
xdata$x	ENDS
;	COMDAT ??_R0?AVexception@std@@@8
data$r	SEGMENT
??_R0?AVexception@std@@@8 DD FLAT:??_7type_info@@6B@	; std::exception `RTTI Type Descriptor'
	DD	00H
	DB	'.?AVexception@std@@', 00H
data$r	ENDS
;	COMDAT __CT??_R0?AVbad_alloc@std@@@8??0bad_alloc@std@@QAE@ABV01@@Z12
xdata$x	SEGMENT
__CT??_R0?AVbad_alloc@std@@@8??0bad_alloc@std@@QAE@ABV01@@Z12 DD 010H
	DD	FLAT:??_R0?AVbad_alloc@std@@@8
	DD	00H
	DD	0ffffffffH
	ORG $+4
	DD	0cH
	DD	FLAT:??0bad_alloc@std@@QAE@ABV01@@Z
xdata$x	ENDS
;	COMDAT ??_R0?AVbad_alloc@std@@@8
data$r	SEGMENT
??_R0?AVbad_alloc@std@@@8 DD FLAT:??_7type_info@@6B@	; std::bad_alloc `RTTI Type Descriptor'
	DD	00H
	DB	'.?AVbad_alloc@std@@', 00H
data$r	ENDS
;	COMDAT __CT??_R0?AVbad_array_new_length@std@@@8??0bad_array_new_length@std@@QAE@ABV01@@Z12
xdata$x	SEGMENT
__CT??_R0?AVbad_array_new_length@std@@@8??0bad_array_new_length@std@@QAE@ABV01@@Z12 DD 00H
	DD	FLAT:??_R0?AVbad_array_new_length@std@@@8
	DD	00H
	DD	0ffffffffH
	ORG $+4
	DD	0cH
	DD	FLAT:??0bad_array_new_length@std@@QAE@ABV01@@Z
xdata$x	ENDS
;	COMDAT ??_R0?AVbad_array_new_length@std@@@8
data$r	SEGMENT
??_R0?AVbad_array_new_length@std@@@8 DD FLAT:??_7type_info@@6B@ ; std::bad_array_new_length `RTTI Type Descriptor'
	DD	00H
	DB	'.?AVbad_array_new_length@std@@', 00H
data$r	ENDS
;	COMDAT __CTA3?AVbad_array_new_length@std@@
xdata$x	SEGMENT
__CTA3?AVbad_array_new_length@std@@ DD 03H
	DD	FLAT:__CT??_R0?AVbad_array_new_length@std@@@8??0bad_array_new_length@std@@QAE@ABV01@@Z12
	DD	FLAT:__CT??_R0?AVbad_alloc@std@@@8??0bad_alloc@std@@QAE@ABV01@@Z12
	DD	FLAT:__CT??_R0?AVexception@std@@@8??0exception@std@@QAE@ABV01@@Z12
xdata$x	ENDS
;	COMDAT __TI3?AVbad_array_new_length@std@@
xdata$x	SEGMENT
__TI3?AVbad_array_new_length@std@@ DD 00H
	DD	FLAT:??1bad_array_new_length@std@@UAE@XZ
	DD	00H
	DD	FLAT:__CTA3?AVbad_array_new_length@std@@
xdata$x	ENDS
;	COMDAT ??_C@_0BF@KINCDENJ@bad?5array?5new?5length@
CONST	SEGMENT
??_C@_0BF@KINCDENJ@bad?5array?5new?5length@ DB 'bad array new length', 00H ; `string'
CONST	ENDS
;	COMDAT ??_7bad_array_new_length@std@@6B@
CONST	SEGMENT
??_7bad_array_new_length@std@@6B@ DD FLAT:??_R4bad_array_new_length@std@@6B@ ; std::bad_array_new_length::`vftable'
	DD	FLAT:??_Ebad_array_new_length@std@@UAEPAXI@Z
	DD	FLAT:?what@exception@std@@UBEPBDXZ
CONST	ENDS
;	COMDAT ??_7bad_alloc@std@@6B@
CONST	SEGMENT
??_7bad_alloc@std@@6B@ DD FLAT:??_R4bad_alloc@std@@6B@	; std::bad_alloc::`vftable'
	DD	FLAT:??_Ebad_alloc@std@@UAEPAXI@Z
	DD	FLAT:?what@exception@std@@UBEPBDXZ
CONST	ENDS
;	COMDAT ??_C@_0BC@EOODALEL@Unknown?5exception@
CONST	SEGMENT
??_C@_0BC@EOODALEL@Unknown?5exception@ DB 'Unknown exception', 00H ; `string'
CONST	ENDS
;	COMDAT ??_7exception@std@@6B@
CONST	SEGMENT
??_7exception@std@@6B@ DD FLAT:??_R4exception@std@@6B@	; std::exception::`vftable'
	DD	FLAT:??_Eexception@std@@UAEPAXI@Z
	DD	FLAT:?what@exception@std@@UBEPBDXZ
CONST	ENDS
;	COMDAT xdata$x
xdata$x	SEGMENT
__unwindtable$??$?0ABQAVIActorInstance@@@?$_Tree_temp_node@V?$allocator@U?$_Tree_node@PAVIActorInstance@@PAX@std@@@std@@@std@@QAE@AAV?$allocator@U?$_Tree_node@PAVIActorInstance@@PAX@std@@@1@PAU?$_Tree_node@PAVIActorInstance@@PAX@1@ABQAVIActorInstance@@@Z DD 0ffffffffH
	DD	FLAT:__unwindfunclet$??$?0ABQAVIActorInstance@@@?$_Tree_temp_node@V?$allocator@U?$_Tree_node@PAVIActorInstance@@PAX@std@@@std@@@std@@QAE@AAV?$allocator@U?$_Tree_node@PAVIActorInstance@@PAX@std@@@1@PAU?$_Tree_node@PAVIActorInstance@@PAX@1@ABQAVIActorInstance@@@Z$1
__ehfuncinfo$??$?0ABQAVIActorInstance@@@?$_Tree_temp_node@V?$allocator@U?$_Tree_node@PAVIActorInstance@@PAX@std@@@std@@@std@@QAE@AAV?$allocator@U?$_Tree_node@PAVIActorInstance@@PAX@std@@@1@PAU?$_Tree_node@PAVIActorInstance@@PAX@1@ABQAVIActorInstance@@@Z DD 019930522H
	DD	01H
	DD	FLAT:__unwindtable$??$?0ABQAVIActorInstance@@@?$_Tree_temp_node@V?$allocator@U?$_Tree_node@PAVIActorInstance@@PAX@std@@@std@@@std@@QAE@AAV?$allocator@U?$_Tree_node@PAVIActorInstance@@PAX@std@@@1@PAU?$_Tree_node@PAVIActorInstance@@PAX@1@ABQAVIActorInstance@@@Z
	DD	2 DUP(00H)
	DD	2 DUP(00H)
	DD	00H
	DD	01H
xdata$x	ENDS
;	COMDAT xdata$x
xdata$x	SEGMENT
__ehfuncinfo$??1?$CDynamicPoolEx@VCHeaderDecorator@NEffectUpdateDecorator@@@@UAE@XZ DD 019930522H
	DD	00H
	DD	00H
	DD	2 DUP(00H)
	DD	2 DUP(00H)
	DD	00H
	DD	05H
xdata$x	ENDS
;	COMDAT xdata$x
xdata$x	SEGMENT
__ehfuncinfo$??1?$CDynamicPoolEx@VCNullDecorator@NEffectUpdateDecorator@@@@UAE@XZ DD 019930522H
	DD	00H
	DD	00H
	DD	2 DUP(00H)
	DD	2 DUP(00H)
	DD	00H
	DD	05H
xdata$x	ENDS
;	COMDAT xdata$x
xdata$x	SEGMENT
__ehfuncinfo$??1?$CDynamicPoolEx@VCTextureAnimationCWDecorator@NEffectUpdateDecorator@@@@UAE@XZ DD 019930522H
	DD	00H
	DD	00H
	DD	2 DUP(00H)
	DD	2 DUP(00H)
	DD	00H
	DD	05H
xdata$x	ENDS
;	COMDAT xdata$x
xdata$x	SEGMENT
__ehfuncinfo$??1?$CDynamicPoolEx@VCTextureAnimationCCWDecorator@NEffectUpdateDecorator@@@@UAE@XZ DD 019930522H
	DD	00H
	DD	00H
	DD	2 DUP(00H)
	DD	2 DUP(00H)
	DD	00H
	DD	05H
xdata$x	ENDS
;	COMDAT xdata$x
xdata$x	SEGMENT
__ehfuncinfo$??1?$CDynamicPoolEx@VCTextureAnimationRandomDecorator@NEffectUpdateDecorator@@@@UAE@XZ DD 019930522H
	DD	00H
	DD	00H
	DD	2 DUP(00H)
	DD	2 DUP(00H)
	DD	00H
	DD	05H
xdata$x	ENDS
;	COMDAT xdata$x
xdata$x	SEGMENT
__ehfuncinfo$??1?$CDynamicPoolEx@VCAirResistanceDecorator@NEffectUpdateDecorator@@@@UAE@XZ DD 019930522H
	DD	00H
	DD	00H
	DD	2 DUP(00H)
	DD	2 DUP(00H)
	DD	00H
	DD	05H
xdata$x	ENDS
;	COMDAT xdata$x
xdata$x	SEGMENT
__ehfuncinfo$??1?$CDynamicPoolEx@VCGravityDecorator@NEffectUpdateDecorator@@@@UAE@XZ DD 019930522H
	DD	00H
	DD	00H
	DD	2 DUP(00H)
	DD	2 DUP(00H)
	DD	00H
	DD	05H
xdata$x	ENDS
;	COMDAT xdata$x
xdata$x	SEGMENT
__ehfuncinfo$??1?$CDynamicPoolEx@VCRotationDecorator@NEffectUpdateDecorator@@@@UAE@XZ DD 019930522H
	DD	00H
	DD	00H
	DD	2 DUP(00H)
	DD	2 DUP(00H)
	DD	00H
	DD	05H
xdata$x	ENDS
;	COMDAT xdata$x
xdata$x	SEGMENT
__catchsym$??$_Emplace_reallocate@ABUTAttachEffectInstance@CFlyingInstance@@@?$vector@UTAttachEffectInstance@CFlyingInstance@@V?$allocator@UTAttachEffectInstance@CFlyingInstance@@@std@@@std@@QAEPAUTAttachEffectInstance@CFlyingInstance@@QAU23@ABU23@@Z$32 DD 040H
	DD	00H
	DD	00H
	DD	FLAT:__catch$??$_Emplace_reallocate@ABUTAttachEffectInstance@CFlyingInstance@@@?$vector@UTAttachEffectInstance@CFlyingInstance@@V?$allocator@UTAttachEffectInstance@CFlyingInstance@@@std@@@std@@QAEPAUTAttachEffectInstance@CFlyingInstance@@QAU23@ABU23@@Z$0
__unwindtable$??$_Emplace_reallocate@ABUTAttachEffectInstance@CFlyingInstance@@@?$vector@UTAttachEffectInstance@CFlyingInstance@@V?$allocator@UTAttachEffectInstance@CFlyingInstance@@@std@@@std@@QAEPAUTAttachEffectInstance@CFlyingInstance@@QAU23@ABU23@@Z DD 0ffffffffH
	DD	00H
	DD	0ffffffffH
	DD	00H
__tryblocktable$??$_Emplace_reallocate@ABUTAttachEffectInstance@CFlyingInstance@@@?$vector@UTAttachEffectInstance@CFlyingInstance@@V?$allocator@UTAttachEffectInstance@CFlyingInstance@@@std@@@std@@QAEPAUTAttachEffectInstance@CFlyingInstance@@QAU23@ABU23@@Z DD 00H
	DD	00H
	DD	01H
	DD	01H
	DD	FLAT:__catchsym$??$_Emplace_reallocate@ABUTAttachEffectInstance@CFlyingInstance@@@?$vector@UTAttachEffectInstance@CFlyingInstance@@V?$allocator@UTAttachEffectInstance@CFlyingInstance@@@std@@@std@@QAEPAUTAttachEffectInstance@CFlyingInstance@@QAU23@ABU23@@Z$32
__ehfuncinfo$??$_Emplace_reallocate@ABUTAttachEffectInstance@CFlyingInstance@@@?$vector@UTAttachEffectInstance@CFlyingInstance@@V?$allocator@UTAttachEffectInstance@CFlyingInstance@@@std@@@std@@QAEPAUTAttachEffectInstance@CFlyingInstance@@QAU23@ABU23@@Z DD 019930522H
	DD	02H
	DD	FLAT:__unwindtable$??$_Emplace_reallocate@ABUTAttachEffectInstance@CFlyingInstance@@@?$vector@UTAttachEffectInstance@CFlyingInstance@@V?$allocator@UTAttachEffectInstance@CFlyingInstance@@@std@@@std@@QAEPAUTAttachEffectInstance@CFlyingInstance@@QAU23@ABU23@@Z
	DD	01H
	DD	FLAT:__tryblocktable$??$_Emplace_reallocate@ABUTAttachEffectInstance@CFlyingInstance@@@?$vector@UTAttachEffectInstance@CFlyingInstance@@V?$allocator@UTAttachEffectInstance@CFlyingInstance@@@std@@@std@@QAEPAUTAttachEffectInstance@CFlyingInstance@@QAU23@ABU23@@Z
	DD	2 DUP(00H)
	DD	00H
	DD	01H
xdata$x	ENDS
;	COMDAT xdata$x
xdata$x	SEGMENT
__unwindtable$??$ForInRange@UFCheckBackgroundDuringFlying@@@CCullingManager@@QAEXABVVector3d@@MPAUFCheckBackgroundDuringFlying@@@Z DD 0ffffffffH
	DD	FLAT:__unwindfunclet$??$ForInRange@UFCheckBackgroundDuringFlying@@@CCullingManager@@QAEXABVVector3d@@MPAUFCheckBackgroundDuringFlying@@@Z$0
__ehfuncinfo$??$ForInRange@UFCheckBackgroundDuringFlying@@@CCullingManager@@QAEXABVVector3d@@MPAUFCheckBackgroundDuringFlying@@@Z DD 019930522H
	DD	01H
	DD	FLAT:__unwindtable$??$ForInRange@UFCheckBackgroundDuringFlying@@@CCullingManager@@QAEXABVVector3d@@MPAUFCheckBackgroundDuringFlying@@@Z
	DD	2 DUP(00H)
	DD	2 DUP(00H)
	DD	00H
	DD	01H
xdata$x	ENDS
;	COMDAT xdata$x
xdata$x	SEGMENT
__unwindtable$??$ForInRange@UFCheckAnotherMonsterDuringFlying@@@CCullingManager@@QAEXABVVector3d@@MPAUFCheckAnotherMonsterDuringFlying@@@Z DD 0ffffffffH
	DD	FLAT:__unwindfunclet$??$ForInRange@UFCheckAnotherMonsterDuringFlying@@@CCullingManager@@QAEXABVVector3d@@MPAUFCheckAnotherMonsterDuringFlying@@@Z$0
__ehfuncinfo$??$ForInRange@UFCheckAnotherMonsterDuringFlying@@@CCullingManager@@QAEXABVVector3d@@MPAUFCheckAnotherMonsterDuringFlying@@@Z DD 019930522H
	DD	01H
	DD	FLAT:__unwindtable$??$ForInRange@UFCheckAnotherMonsterDuringFlying@@@CCullingManager@@QAEXABVVector3d@@MPAUFCheckAnotherMonsterDuringFlying@@@Z
	DD	2 DUP(00H)
	DD	2 DUP(00H)
	DD	00H
	DD	01H
xdata$x	ENDS
;	COMDAT xdata$x
xdata$x	SEGMENT
__ehfuncinfo$??1CFlyingInstance@@UAE@XZ DD 019930522H
	DD	00H
	DD	00H
	DD	2 DUP(00H)
	DD	2 DUP(00H)
	DD	00H
	DD	05H
xdata$x	ENDS
;	COMDAT xdata$x
xdata$x	SEGMENT
__unwindtable$??0CFlyingInstance@@QAE@XZ DD 0ffffffffH
	DD	FLAT:__unwindfunclet$??0CFlyingInstance@@QAE@XZ$0
	DD	00H
	DD	FLAT:__unwindfunclet$??0CFlyingInstance@@QAE@XZ$1
	DD	01H
	DD	FLAT:__unwindfunclet$??0CFlyingInstance@@QAE@XZ$2
__ehfuncinfo$??0CFlyingInstance@@QAE@XZ DD 019930522H
	DD	03H
	DD	FLAT:__unwindtable$??0CFlyingInstance@@QAE@XZ
	DD	2 DUP(00H)
	DD	2 DUP(00H)
	DD	00H
	DD	01H
xdata$x	ENDS
;	COMDAT xdata$x
xdata$x	SEGMENT
__ehfuncinfo$??$_Deallocate@$07$0A@@std@@YAXPAXI@Z DD 019930522H
	DD	00H
	DD	00H
	DD	2 DUP(00H)
	DD	2 DUP(00H)
	DD	00H
	DD	05H
xdata$x	ENDS
;	COMDAT CRT$XCU
CRT$XCU	SEGMENT
??ms_kPool$initializer$@?$CPooledObject@VCHeaderDecorator@NEffectUpdateDecorator@@@@1P6AXXZA@@3P6AXXZA DD FLAT:??__E?ms_kPool@?$CPooledObject@VCHeaderDecorator@NEffectUpdateDecorator@@@@1V?$CDynamicPoolEx@VCHeaderDecorator@NEffectUpdateDecorator@@@@A@@YAXXZ ; ??ms_kPool$initializer$@?$CPooledObject@VCHeaderDecorator@NEffectUpdateDecorator@@@@1P6AXXZA@@3P6AXXZA
CRT$XCU	ENDS
;	COMDAT CRT$XCU
CRT$XCU	SEGMENT
??ms_kPool$initializer$@?$CPooledObject@VCNullDecorator@NEffectUpdateDecorator@@@@1P6AXXZA@@3P6AXXZA DD FLAT:??__E?ms_kPool@?$CPooledObject@VCNullDecorator@NEffectUpdateDecorator@@@@1V?$CDynamicPoolEx@VCNullDecorator@NEffectUpdateDecorator@@@@A@@YAXXZ ; ??ms_kPool$initializer$@?$CPooledObject@VCNullDecorator@NEffectUpdateDecorator@@@@1P6AXXZA@@3P6AXXZA
CRT$XCU	ENDS
;	COMDAT CRT$XCU
CRT$XCU	SEGMENT
??ms_kPool$initializer$@?$CPooledObject@VCTextureAnimationCWDecorator@NEffectUpdateDecorator@@@@1P6AXXZA@@3P6AXXZA DD FLAT:??__E?ms_kPool@?$CPooledObject@VCTextureAnimationCWDecorator@NEffectUpdateDecorator@@@@1V?$CDynamicPoolEx@VCTextureAnimationCWDecorator@NEffectUpdateDecorator@@@@A@@YAXXZ ; ??ms_kPool$initializer$@?$CPooledObject@VCTextureAnimationCWDecorator@NEffectUpdateDecorator@@@@1P6AXXZA@@3P6AXXZA
CRT$XCU	ENDS
;	COMDAT CRT$XCU
CRT$XCU	SEGMENT
??ms_kPool$initializer$@?$CPooledObject@VCTextureAnimationCCWDecorator@NEffectUpdateDecorator@@@@1P6AXXZA@@3P6AXXZA DD FLAT:??__E?ms_kPool@?$CPooledObject@VCTextureAnimationCCWDecorator@NEffectUpdateDecorator@@@@1V?$CDynamicPoolEx@VCTextureAnimationCCWDecorator@NEffectUpdateDecorator@@@@A@@YAXXZ ; ??ms_kPool$initializer$@?$CPooledObject@VCTextureAnimationCCWDecorator@NEffectUpdateDecorator@@@@1P6AXXZA@@3P6AXXZA
CRT$XCU	ENDS
;	COMDAT CRT$XCU
CRT$XCU	SEGMENT
??ms_kPool$initializer$@?$CPooledObject@VCTextureAnimationRandomDecorator@NEffectUpdateDecorator@@@@1P6AXXZA@@3P6AXXZA DD FLAT:??__E?ms_kPool@?$CPooledObject@VCTextureAnimationRandomDecorator@NEffectUpdateDecorator@@@@1V?$CDynamicPoolEx@VCTextureAnimationRandomDecorator@NEffectUpdateDecorator@@@@A@@YAXXZ ; ??ms_kPool$initializer$@?$CPooledObject@VCTextureAnimationRandomDecorator@NEffectUpdateDecorator@@@@1P6AXXZA@@3P6AXXZA
CRT$XCU	ENDS
;	COMDAT CRT$XCU
CRT$XCU	SEGMENT
??ms_kPool$initializer$@?$CPooledObject@VCAirResistanceDecorator@NEffectUpdateDecorator@@@@1P6AXXZA@@3P6AXXZA DD FLAT:??__E?ms_kPool@?$CPooledObject@VCAirResistanceDecorator@NEffectUpdateDecorator@@@@1V?$CDynamicPoolEx@VCAirResistanceDecorator@NEffectUpdateDecorator@@@@A@@YAXXZ ; ??ms_kPool$initializer$@?$CPooledObject@VCAirResistanceDecorator@NEffectUpdateDecorator@@@@1P6AXXZA@@3P6AXXZA
CRT$XCU	ENDS
;	COMDAT CRT$XCU
CRT$XCU	SEGMENT
??ms_kPool$initializer$@?$CPooledObject@VCGravityDecorator@NEffectUpdateDecorator@@@@1P6AXXZA@@3P6AXXZA DD FLAT:??__E?ms_kPool@?$CPooledObject@VCGravityDecorator@NEffectUpdateDecorator@@@@1V?$CDynamicPoolEx@VCGravityDecorator@NEffectUpdateDecorator@@@@A@@YAXXZ ; ??ms_kPool$initializer$@?$CPooledObject@VCGravityDecorator@NEffectUpdateDecorator@@@@1P6AXXZA@@3P6AXXZA
CRT$XCU	ENDS
;	COMDAT CRT$XCU
CRT$XCU	SEGMENT
??ms_kPool$initializer$@?$CPooledObject@VCRotationDecorator@NEffectUpdateDecorator@@@@1P6AXXZA@@3P6AXXZA DD FLAT:??__E?ms_kPool@?$CPooledObject@VCRotationDecorator@NEffectUpdateDecorator@@@@1V?$CDynamicPoolEx@VCRotationDecorator@NEffectUpdateDecorator@@@@A@@YAXXZ ; ??ms_kPool$initializer$@?$CPooledObject@VCRotationDecorator@NEffectUpdateDecorator@@@@1P6AXXZA@@3P6AXXZA
CRT$XCU	ENDS
; Function compile flags: /Odspy
; File C:\Program Files (x86)\Microsoft Visual Studio\2019\Community\VC\Tools\MSVC\14.28.29333\include\xmemory
; File C:\Program Files (x86)\Microsoft Visual Studio\2019\Community\VC\Tools\MSVC\14.28.29333\include\xstddef
; File C:\Program Files (x86)\Microsoft Visual Studio\2019\Community\VC\Tools\MSVC\14.28.29333\include\vcruntime_new.h
; File C:\Program Files (x86)\Microsoft Visual Studio\2019\Community\VC\Tools\MSVC\14.28.29333\include\type_traits
; File C:\Program Files (x86)\Microsoft Visual Studio\2019\Community\VC\Tools\MSVC\14.28.29333\include\xmemory
;	COMDAT ??$_Construct_in_place@PAU?$_Tree_node@PAVIActorInstance@@PAX@std@@AAPAU12@@std@@YAXAAPAU?$_Tree_node@PAVIActorInstance@@PAX@0@0@Z
_TEXT	SEGMENT
$T1 = -12						; size = 4
$T2 = -8						; size = 4
$T3 = -4						; size = 4
__Obj$ = 8						; size = 4
_<_Args_0>$ = 12					; size = 4
??$_Construct_in_place@PAU?$_Tree_node@PAVIActorInstance@@PAX@std@@AAPAU12@@std@@YAXAAPAU?$_Tree_node@PAVIActorInstance@@PAX@0@0@Z PROC ; std::_Construct_in_place<std::_Tree_node<IActorInstance *,void *> *,std::_Tree_node<IActorInstance *,void *> * &>, COMDAT

; 228  : void _Construct_in_place(_Ty& _Obj, _Types&&... _Args) noexcept(is_nothrow_constructible_v<_Ty, _Types...>) {

  00000	55		 push	 ebp
  00001	8b ec		 mov	 ebp, esp
  00003	83 ec 0c	 sub	 esp, 12			; 0000000cH
; File C:\Program Files (x86)\Microsoft Visual Studio\2019\Community\VC\Tools\MSVC\14.28.29333\include\xstddef

; 275  :     return __builtin_addressof(_Val);

  00006	8b 45 08	 mov	 eax, DWORD PTR __Obj$[ebp]
  00009	89 45 fc	 mov	 DWORD PTR $T3[ebp], eax
; File C:\Program Files (x86)\Microsoft Visual Studio\2019\Community\VC\Tools\MSVC\14.28.29333\include\vcruntime_new.h

; 169  :         return _Where;

  0000c	8b 45 fc	 mov	 eax, DWORD PTR $T3[ebp]
  0000f	89 45 f8	 mov	 DWORD PTR $T2[ebp], eax
; File C:\Program Files (x86)\Microsoft Visual Studio\2019\Community\VC\Tools\MSVC\14.28.29333\include\type_traits

; 1443 :     return static_cast<_Ty&&>(_Arg);

  00012	8b 45 0c	 mov	 eax, DWORD PTR _<_Args_0>$[ebp]
  00015	89 45 f4	 mov	 DWORD PTR $T1[ebp], eax
; File C:\Program Files (x86)\Microsoft Visual Studio\2019\Community\VC\Tools\MSVC\14.28.29333\include\xmemory

; 229  :     ::new (const_cast<void*>(static_cast<const volatile void*>(_STD addressof(_Obj))))

  00018	8b 45 f8	 mov	 eax, DWORD PTR $T2[ebp]
  0001b	8b 4d f4	 mov	 ecx, DWORD PTR $T1[ebp]
  0001e	8b 09		 mov	 ecx, DWORD PTR [ecx]
  00020	89 08		 mov	 DWORD PTR [eax], ecx

; 230  :         _Ty(_STD forward<_Types>(_Args)...);
; 231  : }

  00022	c9		 leave
  00023	c3		 ret	 0
??$_Construct_in_place@PAU?$_Tree_node@PAVIActorInstance@@PAX@std@@AAPAU12@@std@@YAXAAPAU?$_Tree_node@PAVIActorInstance@@PAX@0@0@Z ENDP ; std::_Construct_in_place<std::_Tree_node<IActorInstance *,void *> *,std::_Tree_node<IActorInstance *,void *> * &>
_TEXT	ENDS
; Function compile flags: /Odspy
; File C:\Program Files (x86)\Microsoft Visual Studio\2019\Community\VC\Tools\MSVC\14.28.29333\include\xutility
;	COMDAT ??$_Copy_memmove@PAUTAttachEffectInstance@CFlyingInstance@@PAU12@@std@@YAPAUTAttachEffectInstance@CFlyingInstance@@PAU12@00@Z
_TEXT	SEGMENT
__Last_ch$ = -16					; size = 4
__Count$ = -12						; size = 4
__Dest_ch$ = -8						; size = 4
__First_ch$ = -4					; size = 4
__First$ = 8						; size = 4
__Last$ = 12						; size = 4
__Dest$ = 16						; size = 4
??$_Copy_memmove@PAUTAttachEffectInstance@CFlyingInstance@@PAU12@@std@@YAPAUTAttachEffectInstance@CFlyingInstance@@PAU12@00@Z PROC ; std::_Copy_memmove<CFlyingInstance::TAttachEffectInstance *,CFlyingInstance::TAttachEffectInstance *>, COMDAT

; 4360 : _OutIt _Copy_memmove(_InIt _First, _InIt _Last, _OutIt _Dest) {

  00000	55		 push	 ebp
  00001	8b ec		 mov	 ebp, esp
  00003	83 ec 10	 sub	 esp, 16			; 00000010H

; 4361 :     const char* const _First_ch = const_cast<const char*>(reinterpret_cast<const volatile char*>(_First));

  00006	8b 45 08	 mov	 eax, DWORD PTR __First$[ebp]
  00009	89 45 fc	 mov	 DWORD PTR __First_ch$[ebp], eax

; 4362 :     const char* const _Last_ch  = const_cast<const char*>(reinterpret_cast<const volatile char*>(_Last));

  0000c	8b 45 0c	 mov	 eax, DWORD PTR __Last$[ebp]
  0000f	89 45 f0	 mov	 DWORD PTR __Last_ch$[ebp], eax

; 4363 :     char* const _Dest_ch        = const_cast<char*>(reinterpret_cast<volatile char*>(_Dest));

  00012	8b 45 10	 mov	 eax, DWORD PTR __Dest$[ebp]
  00015	89 45 f8	 mov	 DWORD PTR __Dest_ch$[ebp], eax

; 4364 :     const auto _Count           = static_cast<size_t>(_Last_ch - _First_ch);

  00018	8b 45 f0	 mov	 eax, DWORD PTR __Last_ch$[ebp]
  0001b	2b 45 fc	 sub	 eax, DWORD PTR __First_ch$[ebp]
  0001e	89 45 f4	 mov	 DWORD PTR __Count$[ebp], eax

; 4365 :     _CSTD memmove(_Dest_ch, _First_ch, _Count);

  00021	ff 75 f4	 push	 DWORD PTR __Count$[ebp]
  00024	ff 75 fc	 push	 DWORD PTR __First_ch$[ebp]
  00027	ff 75 f8	 push	 DWORD PTR __Dest_ch$[ebp]
  0002a	e8 00 00 00 00	 call	 _memmove
  0002f	83 c4 0c	 add	 esp, 12			; 0000000cH

; 4366 :     return reinterpret_cast<_OutIt>(_Dest_ch + _Count);

  00032	8b 45 f8	 mov	 eax, DWORD PTR __Dest_ch$[ebp]
  00035	03 45 f4	 add	 eax, DWORD PTR __Count$[ebp]

; 4367 : }

  00038	c9		 leave
  00039	c3		 ret	 0
??$_Copy_memmove@PAUTAttachEffectInstance@CFlyingInstance@@PAU12@@std@@YAPAUTAttachEffectInstance@CFlyingInstance@@PAU12@00@Z ENDP ; std::_Copy_memmove<CFlyingInstance::TAttachEffectInstance *,CFlyingInstance::TAttachEffectInstance *>
_TEXT	ENDS
; Function compile flags: /Odspy
; File C:\Program Files (x86)\Microsoft Visual Studio\2019\Community\VC\Tools\MSVC\14.28.29333\include\xmemory
;	COMDAT ??$_Destroy_in_place@PAU?$_Tree_node@PAVIActorInstance@@PAX@std@@@std@@YAXAAPAU?$_Tree_node@PAVIActorInstance@@PAX@0@@Z
_TEXT	SEGMENT
__Obj$ = 8						; size = 4
??$_Destroy_in_place@PAU?$_Tree_node@PAVIActorInstance@@PAX@std@@@std@@YAXAAPAU?$_Tree_node@PAVIActorInstance@@PAX@0@@Z PROC ; std::_Destroy_in_place<std::_Tree_node<IActorInstance *,void *> *>, COMDAT

; 270  : /* _CONSTEXPR20_DYNALLOC */ void _Destroy_in_place(_Ty& _Obj) noexcept {

  00000	55		 push	 ebp
  00001	8b ec		 mov	 ebp, esp

; 271  : #if _HAS_IF_CONSTEXPR
; 272  :     if constexpr (is_array_v<_Ty>) {
; 273  :         _Destroy_range(_Obj, _Obj + extent_v<_Ty>);
; 274  :     } else
; 275  : #endif // _HAS_IF_CONSTEXPR
; 276  :     {
; 277  :         _Obj.~_Ty();
; 278  :     }
; 279  : }

  00003	5d		 pop	 ebp
  00004	c3		 ret	 0
??$_Destroy_in_place@PAU?$_Tree_node@PAVIActorInstance@@PAX@std@@@std@@YAXAAPAU?$_Tree_node@PAVIActorInstance@@PAX@0@@Z ENDP ; std::_Destroy_in_place<std::_Tree_node<IActorInstance *,void *> *>
_TEXT	ENDS
; Function compile flags: /Odspy
; File C:\Program Files (x86)\Microsoft Visual Studio\2019\Community\VC\Tools\MSVC\14.28.29333\include\xtree
; File C:\Program Files (x86)\Microsoft Visual Studio\2019\Community\VC\Tools\MSVC\14.28.29333\include\xmemory
; File C:\Program Files (x86)\Microsoft Visual Studio\2019\Community\VC\Tools\MSVC\14.28.29333\include\xtree
; File C:\Program Files (x86)\Microsoft Visual Studio\2019\Community\VC\Tools\MSVC\14.28.29333\include\type_traits
; File C:\Program Files (x86)\Microsoft Visual Studio\2019\Community\VC\Tools\MSVC\14.28.29333\include\xtree
; File C:\Program Files (x86)\Microsoft Visual Studio\2019\Community\VC\Tools\MSVC\14.28.29333\include\xstddef
; File C:\Program Files (x86)\Microsoft Visual Studio\2019\Community\VC\Tools\MSVC\14.28.29333\include\xtree
; File C:\Program Files (x86)\Microsoft Visual Studio\2019\Community\VC\Tools\MSVC\14.28.29333\include\vcruntime_new.h
; File C:\Program Files (x86)\Microsoft Visual Studio\2019\Community\VC\Tools\MSVC\14.28.29333\include\type_traits
; File C:\Program Files (x86)\Microsoft Visual Studio\2019\Community\VC\Tools\MSVC\14.28.29333\include\xmemory
; File C:\Program Files (x86)\Microsoft Visual Studio\2019\Community\VC\Tools\MSVC\14.28.29333\include\xtree
;	COMDAT ??$?0ABQAVIActorInstance@@@?$_Tree_temp_node@V?$allocator@U?$_Tree_node@PAVIActorInstance@@PAX@std@@@std@@@std@@QAE@AAV?$allocator@U?$_Tree_node@PAVIActorInstance@@PAX@std@@@1@PAU?$_Tree_node@PAVIActorInstance@@PAX@1@ABQAVIActorInstance@@@Z
_TEXT	SEGMENT
___formal$ = -40					; size = 4
$T2 = -36						; size = 4
$T3 = -32						; size = 4
$T4 = -28						; size = 4
$T5 = -24						; size = 4
__Val$ = -20						; size = 4
_this$ = -16						; size = 4
__$EHRec$ = -12						; size = 12
__Al_$ = 8						; size = 4
__Myhead$ = 12						; size = 4
_<_Vals_0>$ = 16					; size = 4
??$?0ABQAVIActorInstance@@@?$_Tree_temp_node@V?$allocator@U?$_Tree_node@PAVIActorInstance@@PAX@std@@@std@@@std@@QAE@AAV?$allocator@U?$_Tree_node@PAVIActorInstance@@PAX@std@@@1@PAU?$_Tree_node@PAVIActorInstance@@PAX@1@ABQAVIActorInstance@@@Z PROC ; std::_Tree_temp_node<std::allocator<std::_Tree_node<IActorInstance *,void *> > >::_Tree_temp_node<std::allocator<std::_Tree_node<IActorInstance *,void *> > ><IActorInstance * const &>, COMDAT
; _this$ = ecx

; 805  :         : _Tree_temp_node_alloc<_Alnode>(_Al_) {

  00000	55		 push	 ebp
  00001	8b ec		 mov	 ebp, esp
  00003	6a ff		 push	 -1
  00005	68 00 00 00 00	 push	 __ehhandler$??$?0ABQAVIActorInstance@@@?$_Tree_temp_node@V?$allocator@U?$_Tree_node@PAVIActorInstance@@PAX@std@@@std@@@std@@QAE@AAV?$allocator@U?$_Tree_node@PAVIActorInstance@@PAX@std@@@1@PAU?$_Tree_node@PAVIActorInstance@@PAX@1@ABQAVIActorInstance@@@Z
  0000a	64 a1 00 00 00
	00		 mov	 eax, DWORD PTR fs:0
  00010	50		 push	 eax
  00011	83 ec 1c	 sub	 esp, 28			; 0000001cH
  00014	a1 00 00 00 00	 mov	 eax, DWORD PTR ___security_cookie
  00019	33 c5		 xor	 eax, ebp
  0001b	50		 push	 eax
  0001c	8d 45 f4	 lea	 eax, DWORD PTR __$EHRec$[ebp]
  0001f	64 a3 00 00 00
	00		 mov	 DWORD PTR fs:0, eax
  00025	89 4d f0	 mov	 DWORD PTR _this$[ebp], ecx
; File C:\Program Files (x86)\Microsoft Visual Studio\2019\Community\VC\Tools\MSVC\14.28.29333\include\xmemory

; 1045 :     explicit _Alloc_construct_ptr(_Alloc& _Al_) : _Al(_Al_), _Ptr(nullptr) {}

  00028	8b 45 f0	 mov	 eax, DWORD PTR _this$[ebp]
  0002b	8b 4d 08	 mov	 ecx, DWORD PTR __Al_$[ebp]
  0002e	89 08		 mov	 DWORD PTR [eax], ecx
  00030	8b 45 f0	 mov	 eax, DWORD PTR _this$[ebp]
  00033	83 60 04 00	 and	 DWORD PTR [eax+4], 0
; File C:\Program Files (x86)\Microsoft Visual Studio\2019\Community\VC\Tools\MSVC\14.28.29333\include\xtree

; 784  :     explicit _Tree_temp_node_alloc(_Alnode& _Al_) : _Alloc_construct_ptr<_Alnode>(_Al_) {

  00037	83 65 fc 00	 and	 DWORD PTR __$EHRec$[ebp+8], 0

; 785  :         _Alloc_construct_ptr<_Alnode>::_Allocate();

  0003b	8b 4d f0	 mov	 ecx, DWORD PTR _this$[ebp]
  0003e	e8 00 00 00 00	 call	 ?_Allocate@?$_Alloc_construct_ptr@V?$allocator@U?$_Tree_node@PAVIActorInstance@@PAX@std@@@std@@@std@@QAEXXZ ; std::_Alloc_construct_ptr<std::allocator<std::_Tree_node<IActorInstance *,void *> > >::_Allocate

; 786  :     }

  00043	83 4d fc ff	 or	 DWORD PTR __$EHRec$[ebp+8], -1
; File C:\Program Files (x86)\Microsoft Visual Studio\2019\Community\VC\Tools\MSVC\14.28.29333\include\type_traits

; 1443 :     return static_cast<_Ty&&>(_Arg);

  00047	8b 45 10	 mov	 eax, DWORD PTR _<_Vals_0>$[ebp]
  0004a	89 45 e4	 mov	 DWORD PTR $T4[ebp], eax
; File C:\Program Files (x86)\Microsoft Visual Studio\2019\Community\VC\Tools\MSVC\14.28.29333\include\xtree

; 806  :         _Alnode_traits::construct(this->_Al, _STD addressof(this->_Ptr->_Myval), _STD forward<_Valtys>(_Vals)...);

  0004d	8b 45 f0	 mov	 eax, DWORD PTR _this$[ebp]
  00050	8b 40 04	 mov	 eax, DWORD PTR [eax+4]
  00053	83 c0 10	 add	 eax, 16			; 00000010H
  00056	89 45 ec	 mov	 DWORD PTR __Val$[ebp], eax
; File C:\Program Files (x86)\Microsoft Visual Studio\2019\Community\VC\Tools\MSVC\14.28.29333\include\xstddef

; 275  :     return __builtin_addressof(_Val);

  00059	8b 45 ec	 mov	 eax, DWORD PTR __Val$[ebp]
  0005c	89 45 e8	 mov	 DWORD PTR $T5[ebp], eax
; File C:\Program Files (x86)\Microsoft Visual Studio\2019\Community\VC\Tools\MSVC\14.28.29333\include\xtree

; 806  :         _Alnode_traits::construct(this->_Al, _STD addressof(this->_Ptr->_Myval), _STD forward<_Valtys>(_Vals)...);

  0005f	8b 45 f0	 mov	 eax, DWORD PTR _this$[ebp]
  00062	8b 00		 mov	 eax, DWORD PTR [eax]
  00064	89 45 d8	 mov	 DWORD PTR ___formal$[ebp], eax
; File C:\Program Files (x86)\Microsoft Visual Studio\2019\Community\VC\Tools\MSVC\14.28.29333\include\vcruntime_new.h

; 169  :         return _Where;

  00067	8b 45 e8	 mov	 eax, DWORD PTR $T5[ebp]
  0006a	89 45 e0	 mov	 DWORD PTR $T3[ebp], eax
; File C:\Program Files (x86)\Microsoft Visual Studio\2019\Community\VC\Tools\MSVC\14.28.29333\include\type_traits

; 1443 :     return static_cast<_Ty&&>(_Arg);

  0006d	8b 45 e4	 mov	 eax, DWORD PTR $T4[ebp]
  00070	89 45 dc	 mov	 DWORD PTR $T2[ebp], eax
; File C:\Program Files (x86)\Microsoft Visual Studio\2019\Community\VC\Tools\MSVC\14.28.29333\include\xmemory

; 701  :         ::new (const_cast<void*>(static_cast<const volatile void*>(_Ptr))) _Objty(_STD forward<_Types>(_Args)...);

  00073	8b 45 e0	 mov	 eax, DWORD PTR $T3[ebp]
  00076	8b 4d dc	 mov	 ecx, DWORD PTR $T2[ebp]
  00079	8b 09		 mov	 ecx, DWORD PTR [ecx]
  0007b	89 08		 mov	 DWORD PTR [eax], ecx
; File C:\Program Files (x86)\Microsoft Visual Studio\2019\Community\VC\Tools\MSVC\14.28.29333\include\xtree

; 807  :         _Construct_in_place(this->_Ptr->_Left, _Myhead);

  0007d	8d 45 0c	 lea	 eax, DWORD PTR __Myhead$[ebp]
  00080	50		 push	 eax
  00081	8b 45 f0	 mov	 eax, DWORD PTR _this$[ebp]
  00084	ff 70 04	 push	 DWORD PTR [eax+4]
  00087	e8 00 00 00 00	 call	 ??$_Construct_in_place@PAU?$_Tree_node@PAVIActorInstance@@PAX@std@@AAPAU12@@std@@YAXAAPAU?$_Tree_node@PAVIActorInstance@@PAX@0@0@Z ; std::_Construct_in_place<std::_Tree_node<IActorInstance *,void *> *,std::_Tree_node<IActorInstance *,void *> * &>
  0008c	59		 pop	 ecx
  0008d	59		 pop	 ecx

; 808  :         _Construct_in_place(this->_Ptr->_Parent, _Myhead);

  0008e	8d 45 0c	 lea	 eax, DWORD PTR __Myhead$[ebp]
  00091	50		 push	 eax
  00092	8b 45 f0	 mov	 eax, DWORD PTR _this$[ebp]
  00095	8b 40 04	 mov	 eax, DWORD PTR [eax+4]
  00098	83 c0 04	 add	 eax, 4
  0009b	50		 push	 eax
  0009c	e8 00 00 00 00	 call	 ??$_Construct_in_place@PAU?$_Tree_node@PAVIActorInstance@@PAX@std@@AAPAU12@@std@@YAXAAPAU?$_Tree_node@PAVIActorInstance@@PAX@0@0@Z ; std::_Construct_in_place<std::_Tree_node<IActorInstance *,void *> *,std::_Tree_node<IActorInstance *,void *> * &>
  000a1	59		 pop	 ecx
  000a2	59		 pop	 ecx

; 809  :         _Construct_in_place(this->_Ptr->_Right, _Myhead);

  000a3	8d 45 0c	 lea	 eax, DWORD PTR __Myhead$[ebp]
  000a6	50		 push	 eax
  000a7	8b 45 f0	 mov	 eax, DWORD PTR _this$[ebp]
  000aa	8b 40 04	 mov	 eax, DWORD PTR [eax+4]
  000ad	83 c0 08	 add	 eax, 8
  000b0	50		 push	 eax
  000b1	e8 00 00 00 00	 call	 ??$_Construct_in_place@PAU?$_Tree_node@PAVIActorInstance@@PAX@std@@AAPAU12@@std@@YAXAAPAU?$_Tree_node@PAVIActorInstance@@PAX@0@0@Z ; std::_Construct_in_place<std::_Tree_node<IActorInstance *,void *> *,std::_Tree_node<IActorInstance *,void *> * &>
  000b6	59		 pop	 ecx
  000b7	59		 pop	 ecx

; 810  :         this->_Ptr->_Color = _Red;

  000b8	8b 45 f0	 mov	 eax, DWORD PTR _this$[ebp]
  000bb	8b 40 04	 mov	 eax, DWORD PTR [eax+4]
  000be	c6 40 0c 00	 mov	 BYTE PTR [eax+12], 0

; 811  :         this->_Ptr->_Isnil = false;

  000c2	8b 45 f0	 mov	 eax, DWORD PTR _this$[ebp]
  000c5	8b 40 04	 mov	 eax, DWORD PTR [eax+4]
  000c8	c6 40 0d 00	 mov	 BYTE PTR [eax+13], 0

; 812  :     }

  000cc	8b 45 f0	 mov	 eax, DWORD PTR _this$[ebp]
  000cf	8b 4d f4	 mov	 ecx, DWORD PTR __$EHRec$[ebp]
  000d2	64 89 0d 00 00
	00 00		 mov	 DWORD PTR fs:0, ecx
  000d9	59		 pop	 ecx
  000da	c9		 leave
  000db	c2 0c 00	 ret	 12			; 0000000cH
_TEXT	ENDS
;	COMDAT text$x
text$x	SEGMENT
__unwindfunclet$??$?0ABQAVIActorInstance@@@?$_Tree_temp_node@V?$allocator@U?$_Tree_node@PAVIActorInstance@@PAX@std@@@std@@@std@@QAE@AAV?$allocator@U?$_Tree_node@PAVIActorInstance@@PAX@std@@@1@PAU?$_Tree_node@PAVIActorInstance@@PAX@1@ABQAVIActorInstance@@@Z$1:
  00000	8b 4d f0	 mov	 ecx, DWORD PTR _this$[ebp]
  00003	e9 00 00 00 00	 jmp	 ??1?$_Alloc_construct_ptr@V?$allocator@U?$_Tree_node@PAVIActorInstance@@PAX@std@@@std@@@std@@QAE@XZ ; std::_Alloc_construct_ptr<std::allocator<std::_Tree_node<IActorInstance *,void *> > >::~_Alloc_construct_ptr<std::allocator<std::_Tree_node<IActorInstance *,void *> > >
  00008	cc		 int	 3
  00009	cc		 int	 3
  0000a	cc		 int	 3
  0000b	cc		 int	 3
  0000c	cc		 int	 3
__ehhandler$??$?0ABQAVIActorInstance@@@?$_Tree_temp_node@V?$allocator@U?$_Tree_node@PAVIActorInstance@@PAX@std@@@std@@@std@@QAE@AAV?$allocator@U?$_Tree_node@PAVIActorInstance@@PAX@std@@@1@PAU?$_Tree_node@PAVIActorInstance@@PAX@1@ABQAVIActorInstance@@@Z:
  0000d	90		 npad	 1
  0000e	90		 npad	 1
  0000f	8b 54 24 08	 mov	 edx, DWORD PTR [esp+8]
  00013	8d 42 0c	 lea	 eax, DWORD PTR [edx+12]
  00016	8b 4a e0	 mov	 ecx, DWORD PTR [edx-32]
  00019	33 c8		 xor	 ecx, eax
  0001b	e8 00 00 00 00	 call	 @__security_check_cookie@4
  00020	b8 00 00 00 00	 mov	 eax, OFFSET __ehfuncinfo$??$?0ABQAVIActorInstance@@@?$_Tree_temp_node@V?$allocator@U?$_Tree_node@PAVIActorInstance@@PAX@std@@@std@@@std@@QAE@AAV?$allocator@U?$_Tree_node@PAVIActorInstance@@PAX@std@@@1@PAU?$_Tree_node@PAVIActorInstance@@PAX@1@ABQAVIActorInstance@@@Z
  00025	e9 00 00 00 00	 jmp	 ___CxxFrameHandler3
text$x	ENDS
??$?0ABQAVIActorInstance@@@?$_Tree_temp_node@V?$allocator@U?$_Tree_node@PAVIActorInstance@@PAX@std@@@std@@@std@@QAE@AAV?$allocator@U?$_Tree_node@PAVIActorInstance@@PAX@std@@@1@PAU?$_Tree_node@PAVIActorInstance@@PAX@1@ABQAVIActorInstance@@@Z ENDP ; std::_Tree_temp_node<std::allocator<std::_Tree_node<IActorInstance *,void *> > >::_Tree_temp_node<std::allocator<std::_Tree_node<IActorInstance *,void *> > ><IActorInstance * const &>
; Function compile flags: /Odspy
; File C:\Program Files (x86)\Microsoft Visual Studio\2019\Community\VC\Tools\MSVC\14.28.29333\include\xtree
; File C:\Program Files (x86)\Microsoft Visual Studio\2019\Community\VC\Tools\MSVC\14.28.29333\include\xstddef
; File C:\Program Files (x86)\Microsoft Visual Studio\2019\Community\VC\Tools\MSVC\14.28.29333\include\xtree
;	COMDAT ??1?$_Tree_temp_node@V?$allocator@U?$_Tree_node@PAVIActorInstance@@PAX@std@@@std@@@std@@QAE@XZ
_TEXT	SEGMENT
$T1 = -12						; size = 4
__Val$ = -8						; size = 4
_this$ = -4						; size = 4
??1?$_Tree_temp_node@V?$allocator@U?$_Tree_node@PAVIActorInstance@@PAX@std@@@std@@@std@@QAE@XZ PROC ; std::_Tree_temp_node<std::allocator<std::_Tree_node<IActorInstance *,void *> > >::~_Tree_temp_node<std::allocator<std::_Tree_node<IActorInstance *,void *> > >, COMDAT
; _this$ = ecx

; 817  :     ~_Tree_temp_node() {

  00000	55		 push	 ebp
  00001	8b ec		 mov	 ebp, esp
  00003	83 ec 0c	 sub	 esp, 12			; 0000000cH
  00006	89 4d fc	 mov	 DWORD PTR _this$[ebp], ecx

; 818  :         if (this->_Ptr) {

  00009	8b 45 fc	 mov	 eax, DWORD PTR _this$[ebp]
  0000c	83 78 04 00	 cmp	 DWORD PTR [eax+4], 0
  00010	74 3e		 je	 SHORT $LN9@Tree_temp_

; 819  :             _Destroy_in_place(this->_Ptr->_Left);

  00012	8b 45 fc	 mov	 eax, DWORD PTR _this$[ebp]
  00015	ff 70 04	 push	 DWORD PTR [eax+4]
  00018	e8 00 00 00 00	 call	 ??$_Destroy_in_place@PAU?$_Tree_node@PAVIActorInstance@@PAX@std@@@std@@YAXAAPAU?$_Tree_node@PAVIActorInstance@@PAX@0@@Z ; std::_Destroy_in_place<std::_Tree_node<IActorInstance *,void *> *>
  0001d	59		 pop	 ecx

; 820  :             _Destroy_in_place(this->_Ptr->_Parent);

  0001e	8b 45 fc	 mov	 eax, DWORD PTR _this$[ebp]
  00021	8b 40 04	 mov	 eax, DWORD PTR [eax+4]
  00024	83 c0 04	 add	 eax, 4
  00027	50		 push	 eax
  00028	e8 00 00 00 00	 call	 ??$_Destroy_in_place@PAU?$_Tree_node@PAVIActorInstance@@PAX@std@@@std@@YAXAAPAU?$_Tree_node@PAVIActorInstance@@PAX@0@@Z ; std::_Destroy_in_place<std::_Tree_node<IActorInstance *,void *> *>
  0002d	59		 pop	 ecx

; 821  :             _Destroy_in_place(this->_Ptr->_Right);

  0002e	8b 45 fc	 mov	 eax, DWORD PTR _this$[ebp]
  00031	8b 40 04	 mov	 eax, DWORD PTR [eax+4]
  00034	83 c0 08	 add	 eax, 8
  00037	50		 push	 eax
  00038	e8 00 00 00 00	 call	 ??$_Destroy_in_place@PAU?$_Tree_node@PAVIActorInstance@@PAX@std@@@std@@YAXAAPAU?$_Tree_node@PAVIActorInstance@@PAX@0@@Z ; std::_Destroy_in_place<std::_Tree_node<IActorInstance *,void *> *>
  0003d	59		 pop	 ecx

; 822  :             _Alnode_traits::destroy(this->_Al, _STD addressof(this->_Ptr->_Myval));

  0003e	8b 45 fc	 mov	 eax, DWORD PTR _this$[ebp]
  00041	8b 40 04	 mov	 eax, DWORD PTR [eax+4]
  00044	83 c0 10	 add	 eax, 16			; 00000010H
  00047	89 45 f8	 mov	 DWORD PTR __Val$[ebp], eax
; File C:\Program Files (x86)\Microsoft Visual Studio\2019\Community\VC\Tools\MSVC\14.28.29333\include\xstddef

; 275  :     return __builtin_addressof(_Val);

  0004a	8b 45 f8	 mov	 eax, DWORD PTR __Val$[ebp]
  0004d	89 45 f4	 mov	 DWORD PTR $T1[ebp], eax
$LN9@Tree_temp_:
  00050	8b 4d fc	 mov	 ecx, DWORD PTR _this$[ebp]
  00053	e8 00 00 00 00	 call	 ??1?$_Alloc_construct_ptr@V?$allocator@U?$_Tree_node@PAVIActorInstance@@PAX@std@@@std@@@std@@QAE@XZ ; std::_Alloc_construct_ptr<std::allocator<std::_Tree_node<IActorInstance *,void *> > >::~_Alloc_construct_ptr<std::allocator<std::_Tree_node<IActorInstance *,void *> > >
; File C:\Program Files (x86)\Microsoft Visual Studio\2019\Community\VC\Tools\MSVC\14.28.29333\include\xtree

; 824  :     }

  00058	c9		 leave
  00059	c3		 ret	 0
??1?$_Tree_temp_node@V?$allocator@U?$_Tree_node@PAVIActorInstance@@PAX@std@@@std@@@std@@QAE@XZ ENDP ; std::_Tree_temp_node<std::allocator<std::_Tree_node<IActorInstance *,void *> > >::~_Tree_temp_node<std::allocator<std::_Tree_node<IActorInstance *,void *> > >
_TEXT	ENDS
; Function compile flags: /Odspy
; File C:\Program Files (x86)\Microsoft Visual Studio\2019\Community\VC\Tools\MSVC\14.28.29333\include\xmemory
;	COMDAT ??1?$_Alloc_construct_ptr@V?$allocator@U?$_Tree_node@PAVIActorInstance@@PAX@std@@@std@@@std@@QAE@XZ
_TEXT	SEGMENT
_this$ = -12						; size = 4
__Ptr$ = -8						; size = 4
_this$ = -4						; size = 4
??1?$_Alloc_construct_ptr@V?$allocator@U?$_Tree_node@PAVIActorInstance@@PAX@std@@@std@@@std@@QAE@XZ PROC ; std::_Alloc_construct_ptr<std::allocator<std::_Tree_node<IActorInstance *,void *> > >::~_Alloc_construct_ptr<std::allocator<std::_Tree_node<IActorInstance *,void *> > >, COMDAT
; _this$ = ecx

; 1056 :     ~_Alloc_construct_ptr() { // if this instance is engaged, deallocate storage

  00000	55		 push	 ebp
  00001	8b ec		 mov	 ebp, esp
  00003	83 ec 0c	 sub	 esp, 12			; 0000000cH
  00006	89 4d fc	 mov	 DWORD PTR _this$[ebp], ecx

; 1057 :         if (_Ptr) {

  00009	8b 45 fc	 mov	 eax, DWORD PTR _this$[ebp]
  0000c	83 78 04 00	 cmp	 DWORD PTR [eax+4], 0
  00010	74 22		 je	 SHORT $LN3@Alloc_cons

; 1058 :             _Al.deallocate(_Ptr, 1);

  00012	8b 45 fc	 mov	 eax, DWORD PTR _this$[ebp]
  00015	8b 40 04	 mov	 eax, DWORD PTR [eax+4]
  00018	89 45 f8	 mov	 DWORD PTR __Ptr$[ebp], eax
  0001b	8b 45 fc	 mov	 eax, DWORD PTR _this$[ebp]
  0001e	8b 00		 mov	 eax, DWORD PTR [eax]
  00020	89 45 f4	 mov	 DWORD PTR _this$[ebp], eax

; 810  :         _Deallocate<_New_alignof<_Ty>>(_Ptr, sizeof(_Ty) * _Count);

  00023	33 c0		 xor	 eax, eax
  00025	40		 inc	 eax
  00026	6b c0 14	 imul	 eax, eax, 20
  00029	50		 push	 eax
  0002a	ff 75 f8	 push	 DWORD PTR __Ptr$[ebp]
  0002d	e8 00 00 00 00	 call	 ??$_Deallocate@$07$0A@@std@@YAXPAXI@Z ; std::_Deallocate<8,0>
  00032	59		 pop	 ecx
  00033	59		 pop	 ecx
$LN3@Alloc_cons:

; 1059 :         }
; 1060 :     }

  00034	c9		 leave
  00035	c3		 ret	 0
??1?$_Alloc_construct_ptr@V?$allocator@U?$_Tree_node@PAVIActorInstance@@PAX@std@@@std@@@std@@QAE@XZ ENDP ; std::_Alloc_construct_ptr<std::allocator<std::_Tree_node<IActorInstance *,void *> > >::~_Alloc_construct_ptr<std::allocator<std::_Tree_node<IActorInstance *,void *> > >
_TEXT	ENDS
; Function compile flags: /Odspy
; File C:\Program Files (x86)\Microsoft Visual Studio\2019\Community\VC\Tools\MSVC\14.28.29333\include\xmemory
;	COMDAT ?_Allocate@?$_Alloc_construct_ptr@V?$allocator@U?$_Tree_node@PAVIActorInstance@@PAX@std@@@std@@@std@@QAEXXZ
_TEXT	SEGMENT
__Max_possible$1 = -24					; size = 4
_this$ = -20						; size = 4
$T2 = -16						; size = 4
$T3 = -12						; size = 4
_this$ = -8						; size = 4
__Overflow_is_possible$4 = -1				; size = 1
?_Allocate@?$_Alloc_construct_ptr@V?$allocator@U?$_Tree_node@PAVIActorInstance@@PAX@std@@@std@@@std@@QAEXXZ PROC ; std::_Alloc_construct_ptr<std::allocator<std::_Tree_node<IActorInstance *,void *> > >::_Allocate, COMDAT
; _this$ = ecx

; 1051 :     void _Allocate() { // disengage *this, then allocate a new memory block

  00000	55		 push	 ebp
  00001	8b ec		 mov	 ebp, esp
  00003	83 ec 18	 sub	 esp, 24			; 00000018H
  00006	89 4d f8	 mov	 DWORD PTR _this$[ebp], ecx

; 1052 :         _Ptr = nullptr; // if allocate throws, prevents double-free

  00009	8b 45 f8	 mov	 eax, DWORD PTR _this$[ebp]
  0000c	83 60 04 00	 and	 DWORD PTR [eax+4], 0

; 1053 :         _Ptr = _Al.allocate(1);

  00010	8b 45 f8	 mov	 eax, DWORD PTR _this$[ebp]
  00013	8b 00		 mov	 eax, DWORD PTR [eax]
  00015	89 45 ec	 mov	 DWORD PTR _this$[ebp], eax

; 56   :     constexpr bool _Overflow_is_possible = _Ty_size > 1;

  00018	c6 45 ff 01	 mov	 BYTE PTR __Overflow_is_possible$4[ebp], 1

; 57   : 
; 58   :     if _CONSTEXPR_IF (_Overflow_is_possible) {
; 59   :         constexpr size_t _Max_possible = static_cast<size_t>(-1) / _Ty_size;

  0001c	c7 45 e8 cc cc
	cc 0c		 mov	 DWORD PTR __Max_possible$1[ebp], 214748364 ; 0cccccccH

; 60   :         if (_Count > _Max_possible) {

  00023	33 c0		 xor	 eax, eax
  00025	40		 inc	 eax
  00026	3d cc cc cc 0c	 cmp	 eax, 214748364		; 0cccccccH
  0002b	76 05		 jbe	 SHORT $LN6@Allocate

; 61   :             _Throw_bad_array_new_length(); // multiply overflow

  0002d	e8 00 00 00 00	 call	 ?_Throw_bad_array_new_length@std@@YAXXZ ; std::_Throw_bad_array_new_length
$LN6@Allocate:

; 62   :         }
; 63   :     }
; 64   : 
; 65   :     return _Count * _Ty_size;

  00032	33 c0		 xor	 eax, eax
  00034	40		 inc	 eax
  00035	6b c0 14	 imul	 eax, eax, 20
  00038	89 45 f4	 mov	 DWORD PTR $T3[ebp], eax

; 814  :         return static_cast<_Ty*>(_Allocate<_New_alignof<_Ty>>(_Get_size_of_n<sizeof(_Ty)>(_Count)));

  0003b	ff 75 f4	 push	 DWORD PTR $T3[ebp]
  0003e	e8 00 00 00 00	 call	 ??$_Allocate@$07U_Default_allocate_traits@std@@$0A@@std@@YAPAXI@Z ; std::_Allocate<8,std::_Default_allocate_traits,0>
  00043	59		 pop	 ecx
  00044	89 45 f0	 mov	 DWORD PTR $T2[ebp], eax

; 1053 :         _Ptr = _Al.allocate(1);

  00047	8b 45 f8	 mov	 eax, DWORD PTR _this$[ebp]
  0004a	8b 4d f0	 mov	 ecx, DWORD PTR $T2[ebp]
  0004d	89 48 04	 mov	 DWORD PTR [eax+4], ecx
$LN9@Allocate:

; 1054 :     }

  00050	c9		 leave
  00051	c3		 ret	 0
?_Allocate@?$_Alloc_construct_ptr@V?$allocator@U?$_Tree_node@PAVIActorInstance@@PAX@std@@@std@@@std@@QAEXXZ ENDP ; std::_Alloc_construct_ptr<std::allocator<std::_Tree_node<IActorInstance *,void *> > >::_Allocate
_TEXT	ENDS
; Function compile flags: /Odspy
; File C:\Program Files (x86)\Microsoft Visual Studio\2019\Community\VC\Tools\MSVC\14.28.29333\include\xmemory
; File C:\Program Files (x86)\Microsoft Visual Studio\2019\Community\VC\Tools\MSVC\14.28.29333\include\xstddef
; File C:\Program Files (x86)\Microsoft Visual Studio\2019\Community\VC\Tools\MSVC\14.28.29333\include\xmemory
;	COMDAT ??$_Uninitialized_move@PAUTAttachEffectInstance@CFlyingInstance@@V?$allocator@UTAttachEffectInstance@CFlyingInstance@@@std@@@std@@YAPAUTAttachEffectInstance@CFlyingInstance@@QAU12@0PAU12@AAV?$allocator@UTAttachEffectInstance@CFlyingInstance@@@0@@Z
_TEXT	SEGMENT
$T1 = -12						; size = 4
__UFirst$ = -8						; size = 4
__ULast$ = -4						; size = 4
__First$ = 8						; size = 4
__Last$ = 12						; size = 4
__Dest$ = 16						; size = 4
__Al$ = 20						; size = 4
??$_Uninitialized_move@PAUTAttachEffectInstance@CFlyingInstance@@V?$allocator@UTAttachEffectInstance@CFlyingInstance@@@std@@@std@@YAPAUTAttachEffectInstance@CFlyingInstance@@QAU12@0PAU12@AAV?$allocator@UTAttachEffectInstance@CFlyingInstance@@@0@@Z PROC ; std::_Uninitialized_move<CFlyingInstance::TAttachEffectInstance *,std::allocator<CFlyingInstance::TAttachEffectInstance> >, COMDAT

; 1685 :     const _InIt _First, const _InIt _Last, _Alloc_ptr_t<_Alloc> _Dest, _Alloc& _Al) {

  00000	55		 push	 ebp
  00001	8b ec		 mov	 ebp, esp
  00003	83 ec 0c	 sub	 esp, 12			; 0000000cH

; 1686 :     // move [_First, _Last) to raw _Dest, using _Al
; 1687 :     // note: only called internally from elsewhere in the STL
; 1688 :     using _Ptrval     = typename _Alloc::value_type*;
; 1689 :     auto _UFirst      = _Get_unwrapped(_First);

  00006	8b 45 08	 mov	 eax, DWORD PTR __First$[ebp]
  00009	89 45 f8	 mov	 DWORD PTR __UFirst$[ebp], eax

; 1690 :     const auto _ULast = _Get_unwrapped(_Last);

  0000c	8b 45 0c	 mov	 eax, DWORD PTR __Last$[ebp]
  0000f	89 45 fc	 mov	 DWORD PTR __ULast$[ebp], eax
; File C:\Program Files (x86)\Microsoft Visual Studio\2019\Community\VC\Tools\MSVC\14.28.29333\include\xstddef

; 289  :     return _Ptr;

  00012	8b 45 10	 mov	 eax, DWORD PTR __Dest$[ebp]
  00015	89 45 f4	 mov	 DWORD PTR $T1[ebp], eax
; File C:\Program Files (x86)\Microsoft Visual Studio\2019\Community\VC\Tools\MSVC\14.28.29333\include\xmemory

; 1693 :         _Copy_memmove(_UFirst, _ULast, _Unfancy(_Dest));

  00018	ff 75 f4	 push	 DWORD PTR $T1[ebp]
  0001b	ff 75 fc	 push	 DWORD PTR __ULast$[ebp]
  0001e	ff 75 f8	 push	 DWORD PTR __UFirst$[ebp]
  00021	e8 00 00 00 00	 call	 ??$_Copy_memmove@PAUTAttachEffectInstance@CFlyingInstance@@PAU12@@std@@YAPAUTAttachEffectInstance@CFlyingInstance@@PAU12@00@Z ; std::_Copy_memmove<CFlyingInstance::TAttachEffectInstance *,CFlyingInstance::TAttachEffectInstance *>
  00026	83 c4 0c	 add	 esp, 12			; 0000000cH

; 1694 :         return _Dest + (_ULast - _UFirst);

  00029	8b 45 fc	 mov	 eax, DWORD PTR __ULast$[ebp]
  0002c	2b 45 f8	 sub	 eax, DWORD PTR __UFirst$[ebp]
  0002f	99		 cdq
  00030	6a 0c		 push	 12			; 0000000cH
  00032	59		 pop	 ecx
  00033	f7 f9		 idiv	 ecx
  00035	6b c0 0c	 imul	 eax, eax, 12
  00038	03 45 10	 add	 eax, DWORD PTR __Dest$[ebp]

; 1695 :     } else {
; 1696 :         _Uninitialized_backout_al<_Alloc> _Backout{_Dest, _Al};
; 1697 :         for (; _UFirst != _ULast; ++_UFirst) {
; 1698 :             _Backout._Emplace_back(_STD move(*_UFirst));
; 1699 :         }
; 1700 : 
; 1701 :         return _Backout._Release();
; 1702 :     }
; 1703 : }

  0003b	c9		 leave
  0003c	c3		 ret	 0
??$_Uninitialized_move@PAUTAttachEffectInstance@CFlyingInstance@@V?$allocator@UTAttachEffectInstance@CFlyingInstance@@@std@@@std@@YAPAUTAttachEffectInstance@CFlyingInstance@@QAU12@0PAU12@AAV?$allocator@UTAttachEffectInstance@CFlyingInstance@@@0@@Z ENDP ; std::_Uninitialized_move<CFlyingInstance::TAttachEffectInstance *,std::allocator<CFlyingInstance::TAttachEffectInstance> >
_TEXT	ENDS
; Function compile flags: /Odspy
; File C:\Program Files (x86)\Microsoft Visual Studio\2019\Community\VC\Tools\MSVC\14.28.29333\include\xmemory
; File C:\Program Files (x86)\Microsoft Visual Studio\2019\Community\VC\Tools\MSVC\14.28.29333\include\xstddef
; File C:\Program Files (x86)\Microsoft Visual Studio\2019\Community\VC\Tools\MSVC\14.28.29333\include\vcruntime_new.h
; File C:\Program Files (x86)\Microsoft Visual Studio\2019\Community\VC\Tools\MSVC\14.28.29333\include\type_traits
; File C:\Program Files (x86)\Microsoft Visual Studio\2019\Community\VC\Tools\MSVC\14.28.29333\include\xmemory
;	COMDAT ??$_Construct_in_place@PAU?$_Tree_node@PAVIActorInstance@@PAX@std@@ABQAU12@@std@@YAXAAPAU?$_Tree_node@PAVIActorInstance@@PAX@0@ABQAU10@@Z
_TEXT	SEGMENT
$T1 = -12						; size = 4
$T2 = -8						; size = 4
$T3 = -4						; size = 4
__Obj$ = 8						; size = 4
_<_Args_0>$ = 12					; size = 4
??$_Construct_in_place@PAU?$_Tree_node@PAVIActorInstance@@PAX@std@@ABQAU12@@std@@YAXAAPAU?$_Tree_node@PAVIActorInstance@@PAX@0@ABQAU10@@Z PROC ; std::_Construct_in_place<std::_Tree_node<IActorInstance *,void *> *,std::_Tree_node<IActorInstance *,void *> * const &>, COMDAT

; 228  : void _Construct_in_place(_Ty& _Obj, _Types&&... _Args) noexcept(is_nothrow_constructible_v<_Ty, _Types...>) {

  00000	55		 push	 ebp
  00001	8b ec		 mov	 ebp, esp
  00003	83 ec 0c	 sub	 esp, 12			; 0000000cH
; File C:\Program Files (x86)\Microsoft Visual Studio\2019\Community\VC\Tools\MSVC\14.28.29333\include\xstddef

; 275  :     return __builtin_addressof(_Val);

  00006	8b 45 08	 mov	 eax, DWORD PTR __Obj$[ebp]
  00009	89 45 fc	 mov	 DWORD PTR $T3[ebp], eax
; File C:\Program Files (x86)\Microsoft Visual Studio\2019\Community\VC\Tools\MSVC\14.28.29333\include\vcruntime_new.h

; 169  :         return _Where;

  0000c	8b 45 fc	 mov	 eax, DWORD PTR $T3[ebp]
  0000f	89 45 f8	 mov	 DWORD PTR $T2[ebp], eax
; File C:\Program Files (x86)\Microsoft Visual Studio\2019\Community\VC\Tools\MSVC\14.28.29333\include\type_traits

; 1443 :     return static_cast<_Ty&&>(_Arg);

  00012	8b 45 0c	 mov	 eax, DWORD PTR _<_Args_0>$[ebp]
  00015	89 45 f4	 mov	 DWORD PTR $T1[ebp], eax
; File C:\Program Files (x86)\Microsoft Visual Studio\2019\Community\VC\Tools\MSVC\14.28.29333\include\xmemory

; 229  :     ::new (const_cast<void*>(static_cast<const volatile void*>(_STD addressof(_Obj))))

  00018	8b 45 f8	 mov	 eax, DWORD PTR $T2[ebp]
  0001b	8b 4d f4	 mov	 ecx, DWORD PTR $T1[ebp]
  0001e	8b 09		 mov	 ecx, DWORD PTR [ecx]
  00020	89 08		 mov	 DWORD PTR [eax], ecx

; 230  :         _Ty(_STD forward<_Types>(_Args)...);
; 231  : }

  00022	c9		 leave
  00023	c3		 ret	 0
??$_Construct_in_place@PAU?$_Tree_node@PAVIActorInstance@@PAX@std@@ABQAU12@@std@@YAXAAPAU?$_Tree_node@PAVIActorInstance@@PAX@0@ABQAU10@@Z ENDP ; std::_Construct_in_place<std::_Tree_node<IActorInstance *,void *> *,std::_Tree_node<IActorInstance *,void *> * const &>
_TEXT	ENDS
; Function compile flags: /Odspy
; File C:\Program Files (x86)\Microsoft Visual Studio\2019\Community\VC\Tools\MSVC\14.28.29333\include\xtree
; File C:\Program Files (x86)\Microsoft Visual Studio\2019\Community\VC\Tools\MSVC\14.28.29333\include\xmemory
; File C:\Program Files (x86)\Microsoft Visual Studio\2019\Community\VC\Tools\MSVC\14.28.29333\include\xtree
;	COMDAT ??$_Freenode0@V?$allocator@U?$_Tree_node@PAVIActorInstance@@PAX@std@@@std@@@?$_Tree_node@PAVIActorInstance@@PAX@std@@SAXAAV?$allocator@U?$_Tree_node@PAVIActorInstance@@PAX@std@@@1@PAU01@@Z
_TEXT	SEGMENT
__Al$ = 8						; size = 4
__Ptr$ = 12						; size = 4
??$_Freenode0@V?$allocator@U?$_Tree_node@PAVIActorInstance@@PAX@std@@@std@@@?$_Tree_node@PAVIActorInstance@@PAX@std@@SAXAAV?$allocator@U?$_Tree_node@PAVIActorInstance@@PAX@std@@@1@PAU01@@Z PROC ; std::_Tree_node<IActorInstance *,void *>::_Freenode0<std::allocator<std::_Tree_node<IActorInstance *,void *> > >, COMDAT

; 368  :     static void _Freenode0(_Alloc& _Al, _Nodeptr _Ptr) noexcept {

  00000	55		 push	 ebp
  00001	8b ec		 mov	 ebp, esp

; 369  :         static_assert(is_same_v<typename _Alloc::value_type, _Tree_node>, "Bad _Freenode0 call");
; 370  :         _Destroy_in_place(_Ptr->_Left);

  00003	ff 75 0c	 push	 DWORD PTR __Ptr$[ebp]
  00006	e8 00 00 00 00	 call	 ??$_Destroy_in_place@PAU?$_Tree_node@PAVIActorInstance@@PAX@std@@@std@@YAXAAPAU?$_Tree_node@PAVIActorInstance@@PAX@0@@Z ; std::_Destroy_in_place<std::_Tree_node<IActorInstance *,void *> *>
  0000b	59		 pop	 ecx

; 371  :         _Destroy_in_place(_Ptr->_Parent);

  0000c	8b 45 0c	 mov	 eax, DWORD PTR __Ptr$[ebp]
  0000f	83 c0 04	 add	 eax, 4
  00012	50		 push	 eax
  00013	e8 00 00 00 00	 call	 ??$_Destroy_in_place@PAU?$_Tree_node@PAVIActorInstance@@PAX@std@@@std@@YAXAAPAU?$_Tree_node@PAVIActorInstance@@PAX@0@@Z ; std::_Destroy_in_place<std::_Tree_node<IActorInstance *,void *> *>
  00018	59		 pop	 ecx

; 372  :         _Destroy_in_place(_Ptr->_Right);

  00019	8b 45 0c	 mov	 eax, DWORD PTR __Ptr$[ebp]
  0001c	83 c0 08	 add	 eax, 8
  0001f	50		 push	 eax
  00020	e8 00 00 00 00	 call	 ??$_Destroy_in_place@PAU?$_Tree_node@PAVIActorInstance@@PAX@std@@@std@@YAXAAPAU?$_Tree_node@PAVIActorInstance@@PAX@0@@Z ; std::_Destroy_in_place<std::_Tree_node<IActorInstance *,void *> *>
  00025	59		 pop	 ecx
; File C:\Program Files (x86)\Microsoft Visual Studio\2019\Community\VC\Tools\MSVC\14.28.29333\include\xmemory

; 696  :         _Deallocate<_New_alignof<value_type>>(_Ptr, sizeof(value_type) * _Count);

  00026	33 c0		 xor	 eax, eax
  00028	40		 inc	 eax
  00029	6b c0 14	 imul	 eax, eax, 20
  0002c	50		 push	 eax
  0002d	ff 75 0c	 push	 DWORD PTR __Ptr$[ebp]
  00030	e8 00 00 00 00	 call	 ??$_Deallocate@$07$0A@@std@@YAXPAXI@Z ; std::_Deallocate<8,0>
  00035	59		 pop	 ecx
  00036	59		 pop	 ecx
; File C:\Program Files (x86)\Microsoft Visual Studio\2019\Community\VC\Tools\MSVC\14.28.29333\include\xtree

; 374  :     }

  00037	5d		 pop	 ebp
  00038	c3		 ret	 0
??$_Freenode0@V?$allocator@U?$_Tree_node@PAVIActorInstance@@PAX@std@@@std@@@?$_Tree_node@PAVIActorInstance@@PAX@std@@SAXAAV?$allocator@U?$_Tree_node@PAVIActorInstance@@PAX@std@@@1@PAU01@@Z ENDP ; std::_Tree_node<IActorInstance *,void *>::_Freenode0<std::allocator<std::_Tree_node<IActorInstance *,void *> > >
_TEXT	ENDS
; Function compile flags: /Odspy
; File C:\Program Files (x86)\Microsoft Visual Studio\2019\Community\VC\Tools\MSVC\14.28.29333\include\xtree
; File C:\Program Files (x86)\Microsoft Visual Studio\2019\Community\VC\Tools\MSVC\14.28.29333\include\xstddef
; File C:\Program Files (x86)\Microsoft Visual Studio\2019\Community\VC\Tools\MSVC\14.28.29333\include\xtree
; File C:\Program Files (x86)\Microsoft Visual Studio\2019\Community\VC\Tools\MSVC\14.28.29333\include\xmemory
; File C:\Program Files (x86)\Microsoft Visual Studio\2019\Community\VC\Tools\MSVC\14.28.29333\include\xtree
; File C:\Program Files (x86)\Microsoft Visual Studio\2019\Community\VC\Tools\MSVC\14.28.29333\include\xstddef
; File C:\Program Files (x86)\Microsoft Visual Studio\2019\Community\VC\Tools\MSVC\14.28.29333\include\xtree
;	COMDAT ??$_Find_lower_bound@PAVIActorInstance@@@?$_Tree@V?$_Tset_traits@PAVIActorInstance@@U?$less@PAVIActorInstance@@@std@@V?$allocator@PAVIActorInstance@@@3@$0A@@std@@@std@@IBE?AU?$_Tree_find_result@PAU?$_Tree_node@PAVIActorInstance@@PAX@std@@@1@ABQAVIActorInstance@@@Z
_TEXT	SEGMENT
__Result$ = -40						; size = 12
$T1 = -28						; size = 4
$T2 = -24						; size = 4
$T3 = -20						; size = 4
tv65 = -16						; size = 4
_this$ = -12						; size = 4
__Scary$ = -8						; size = 4
__Trynode$ = -4						; size = 4
___$ReturnUdt$ = 8					; size = 4
__Keyval$ = 12						; size = 4
??$_Find_lower_bound@PAVIActorInstance@@@?$_Tree@V?$_Tset_traits@PAVIActorInstance@@U?$less@PAVIActorInstance@@@std@@V?$allocator@PAVIActorInstance@@@3@$0A@@std@@@std@@IBE?AU?$_Tree_find_result@PAU?$_Tree_node@PAVIActorInstance@@PAX@std@@@1@ABQAVIActorInstance@@@Z PROC ; std::_Tree<std::_Tset_traits<IActorInstance *,std::less<IActorInstance *>,std::allocator<IActorInstance *>,0> >::_Find_lower_bound<IActorInstance *>, COMDAT
; _this$ = ecx

; 1699 :     _Tree_find_result<_Nodeptr> _Find_lower_bound(const _Keyty& _Keyval) const {

  00000	55		 push	 ebp
  00001	8b ec		 mov	 ebp, esp
  00003	83 ec 28	 sub	 esp, 40			; 00000028H
  00006	56		 push	 esi
  00007	57		 push	 edi
  00008	89 4d f4	 mov	 DWORD PTR _this$[ebp], ecx

; 2051 :         return _STD addressof(_Mypair._Myval2._Myval2);

  0000b	8b 45 f4	 mov	 eax, DWORD PTR _this$[ebp]
; File C:\Program Files (x86)\Microsoft Visual Studio\2019\Community\VC\Tools\MSVC\14.28.29333\include\xstddef

; 275  :     return __builtin_addressof(_Val);

  0000e	89 45 ec	 mov	 DWORD PTR $T3[ebp], eax
; File C:\Program Files (x86)\Microsoft Visual Studio\2019\Community\VC\Tools\MSVC\14.28.29333\include\xtree

; 2051 :         return _STD addressof(_Mypair._Myval2._Myval2);

  00011	8b 45 ec	 mov	 eax, DWORD PTR $T3[ebp]
  00014	89 45 f8	 mov	 DWORD PTR __Scary$[ebp], eax

; 1700 :         const auto _Scary = _Get_scary();
; 1701 :         _Tree_find_result<_Nodeptr> _Result{{_Scary->_Myhead->_Parent, _Tree_child::_Right}, _Scary->_Myhead};

  00017	8b 45 f8	 mov	 eax, DWORD PTR __Scary$[ebp]
  0001a	8b 00		 mov	 eax, DWORD PTR [eax]
  0001c	8b 40 04	 mov	 eax, DWORD PTR [eax+4]
  0001f	89 45 d8	 mov	 DWORD PTR __Result$[ebp], eax
  00022	83 65 dc 00	 and	 DWORD PTR __Result$[ebp+4], 0
  00026	8b 45 f8	 mov	 eax, DWORD PTR __Scary$[ebp]
  00029	8b 00		 mov	 eax, DWORD PTR [eax]
  0002b	89 45 e0	 mov	 DWORD PTR __Result$[ebp+8], eax

; 1702 :         _Nodeptr _Trynode = _Result._Location._Parent;

  0002e	8b 45 d8	 mov	 eax, DWORD PTR __Result$[ebp]
  00031	89 45 fc	 mov	 DWORD PTR __Trynode$[ebp], eax
$LN2@Find_lower:

; 1703 :         while (!_Trynode->_Isnil) {

  00034	8b 45 fc	 mov	 eax, DWORD PTR __Trynode$[ebp]
  00037	0f be 40 0d	 movsx	 eax, BYTE PTR [eax+13]
  0003b	85 c0		 test	 eax, eax
  0003d	75 5a		 jne	 SHORT $LN3@Find_lower

; 1704 :             _Result._Location._Parent = _Trynode;

  0003f	8b 45 fc	 mov	 eax, DWORD PTR __Trynode$[ebp]
  00042	89 45 d8	 mov	 DWORD PTR __Result$[ebp], eax

; 2035 :         return _Mypair._Get_first();

  00045	8b 45 f4	 mov	 eax, DWORD PTR _this$[ebp]
; File C:\Program Files (x86)\Microsoft Visual Studio\2019\Community\VC\Tools\MSVC\14.28.29333\include\xmemory

; 1351 :         return *this;

  00048	89 45 e8	 mov	 DWORD PTR $T2[ebp], eax
; File C:\Program Files (x86)\Microsoft Visual Studio\2019\Community\VC\Tools\MSVC\14.28.29333\include\xtree

; 2035 :         return _Mypair._Get_first();

  0004b	8b 45 e8	 mov	 eax, DWORD PTR $T2[ebp]
  0004e	89 45 e4	 mov	 DWORD PTR $T1[ebp], eax
; File C:\Program Files (x86)\Microsoft Visual Studio\2019\Community\VC\Tools\MSVC\14.28.29333\include\xstddef

; 127  :         return _Left < _Right;

  00051	8b 45 fc	 mov	 eax, DWORD PTR __Trynode$[ebp]
  00054	8b 4d 0c	 mov	 ecx, DWORD PTR __Keyval$[ebp]
  00057	8b 40 10	 mov	 eax, DWORD PTR [eax+16]
  0005a	3b 01		 cmp	 eax, DWORD PTR [ecx]
  0005c	73 09		 jae	 SHORT $LN23@Find_lower
  0005e	c7 45 f0 01 00
	00 00		 mov	 DWORD PTR tv65[ebp], 1
  00065	eb 04		 jmp	 SHORT $LN21@Find_lower
$LN23@Find_lower:
  00067	83 65 f0 00	 and	 DWORD PTR tv65[ebp], 0
$LN21@Find_lower:
; File C:\Program Files (x86)\Microsoft Visual Studio\2019\Community\VC\Tools\MSVC\14.28.29333\include\xtree

; 1705 :             if (_DEBUG_LT_PRED(_Getcomp(), _Traits::_Kfn(_Trynode->_Myval), _Keyval)) {

  0006b	0f b6 45 f0	 movzx	 eax, BYTE PTR tv65[ebp]
  0006f	85 c0		 test	 eax, eax
  00071	74 0f		 je	 SHORT $LN4@Find_lower

; 1706 :                 _Result._Location._Child = _Tree_child::_Right;

  00073	83 65 dc 00	 and	 DWORD PTR __Result$[ebp+4], 0

; 1707 :                 _Trynode                 = _Trynode->_Right;

  00077	8b 45 fc	 mov	 eax, DWORD PTR __Trynode$[ebp]
  0007a	8b 40 08	 mov	 eax, DWORD PTR [eax+8]
  0007d	89 45 fc	 mov	 DWORD PTR __Trynode$[ebp], eax

; 1708 :             } else {

  00080	eb 15		 jmp	 SHORT $LN5@Find_lower
$LN4@Find_lower:

; 1709 :                 _Result._Location._Child = _Tree_child::_Left;

  00082	c7 45 dc 01 00
	00 00		 mov	 DWORD PTR __Result$[ebp+4], 1

; 1710 :                 _Result._Bound           = _Trynode;

  00089	8b 45 fc	 mov	 eax, DWORD PTR __Trynode$[ebp]
  0008c	89 45 e0	 mov	 DWORD PTR __Result$[ebp+8], eax

; 1711 :                 _Trynode                 = _Trynode->_Left;

  0008f	8b 45 fc	 mov	 eax, DWORD PTR __Trynode$[ebp]
  00092	8b 00		 mov	 eax, DWORD PTR [eax]
  00094	89 45 fc	 mov	 DWORD PTR __Trynode$[ebp], eax
$LN5@Find_lower:

; 1712 :             }
; 1713 :         }

  00097	eb 9b		 jmp	 SHORT $LN2@Find_lower
$LN3@Find_lower:

; 1714 : 
; 1715 :         return _Result;

  00099	8d 75 d8	 lea	 esi, DWORD PTR __Result$[ebp]
  0009c	8b 7d 08	 mov	 edi, DWORD PTR ___$ReturnUdt$[ebp]
  0009f	a5		 movsd
  000a0	a5		 movsd
  000a1	a5		 movsd
  000a2	8b 45 08	 mov	 eax, DWORD PTR ___$ReturnUdt$[ebp]

; 1716 :     }

  000a5	5f		 pop	 edi
  000a6	5e		 pop	 esi
  000a7	c9		 leave
  000a8	c2 08 00	 ret	 8
??$_Find_lower_bound@PAVIActorInstance@@@?$_Tree@V?$_Tset_traits@PAVIActorInstance@@U?$less@PAVIActorInstance@@@std@@V?$allocator@PAVIActorInstance@@@3@$0A@@std@@@std@@IBE?AU?$_Tree_find_result@PAU?$_Tree_node@PAVIActorInstance@@PAX@std@@@1@ABQAVIActorInstance@@@Z ENDP ; std::_Tree<std::_Tset_traits<IActorInstance *,std::less<IActorInstance *>,std::allocator<IActorInstance *>,0> >::_Find_lower_bound<IActorInstance *>
_TEXT	ENDS
; Function compile flags: /Odspy
; File D:\Metin2 Server Files\mainline\SRC_2014\Metin2Client\eterlib\CullingManager.h
; File D:\Metin2 Server Files\mainline\SRC_2014\Metin2Client\SphereLib\spherepack.h
;	COMDAT ??_G?$RangeTester@UFCheckBackgroundDuringFlying@@@@UAEPAXI@Z
_TEXT	SEGMENT
_this$ = -4						; size = 4
___flags$ = 8						; size = 4
??_G?$RangeTester@UFCheckBackgroundDuringFlying@@@@UAEPAXI@Z PROC ; RangeTester<FCheckBackgroundDuringFlying>::`scalar deleting destructor', COMDAT
; _this$ = ecx
  00000	55		 push	 ebp
  00001	8b ec		 mov	 ebp, esp
  00003	51		 push	 ecx
  00004	89 4d fc	 mov	 DWORD PTR _this$[ebp], ecx
; File D:\Metin2 Server Files\mainline\SRC_2014\Metin2Client\eterlib\CullingManager.h

; 19   : 	{}

  00007	8b 45 fc	 mov	 eax, DWORD PTR _this$[ebp]
  0000a	c7 00 00 00 00
	00		 mov	 DWORD PTR [eax], OFFSET ??_7?$RangeTester@UFCheckBackgroundDuringFlying@@@@6B@
; File D:\Metin2 Server Files\mainline\SRC_2014\Metin2Client\SphereLib\spherepack.h

; 56   : 	virtual ~SpherePackCallback() {}

  00010	8b 45 fc	 mov	 eax, DWORD PTR _this$[ebp]
  00013	c7 00 00 00 00
	00		 mov	 DWORD PTR [eax], OFFSET ??_7SpherePackCallback@@6B@
  00019	8b 45 08	 mov	 eax, DWORD PTR ___flags$[ebp]
  0001c	83 e0 01	 and	 eax, 1
  0001f	74 0c		 je	 SHORT $LN2@scalar
  00021	6a 0c		 push	 12			; 0000000cH
  00023	ff 75 fc	 push	 DWORD PTR _this$[ebp]
  00026	e8 00 00 00 00	 call	 ??3@YAXPAXI@Z		; operator delete
  0002b	59		 pop	 ecx
  0002c	59		 pop	 ecx
$LN2@scalar:
  0002d	8b 45 fc	 mov	 eax, DWORD PTR _this$[ebp]
  00030	c9		 leave
  00031	c2 04 00	 ret	 4
??_G?$RangeTester@UFCheckBackgroundDuringFlying@@@@UAEPAXI@Z ENDP ; RangeTester<FCheckBackgroundDuringFlying>::`scalar deleting destructor'
_TEXT	ENDS
; Function compile flags: /Odspy
; File D:\Metin2 Server Files\mainline\SRC_2014\Metin2Client\eterlib\CullingManager.h
; File D:\Metin2 Server Files\mainline\SRC_2014\Metin2Client\SphereLib\spherepack.h
; File D:\Metin2 Server Files\mainline\SRC_2014\Metin2Client\eterlib\CullingManager.h
;	COMDAT ?PointTest2dCallback@?$RangeTester@UFCheckBackgroundDuringFlying@@@@UAEXABVVector3d@@PAVSpherePack@@W4ViewState@@@Z
_TEXT	SEGMENT
_this$ = -8						; size = 4
$T1 = -4						; size = 4
_p$ = 8							; size = 4
_sphere$ = 12						; size = 4
_state$ = 16						; size = 4
?PointTest2dCallback@?$RangeTester@UFCheckBackgroundDuringFlying@@@@UAEXABVVector3d@@PAVSpherePack@@W4ViewState@@@Z PROC ; RangeTester<FCheckBackgroundDuringFlying>::PointTest2dCallback, COMDAT
; _this$ = ecx

; 50   : 	{

  00000	55		 push	 ebp
  00001	8b ec		 mov	 ebp, esp
  00003	51		 push	 ecx
  00004	51		 push	 ecx
  00005	89 4d f8	 mov	 DWORD PTR _this$[ebp], ecx

; 51   : #ifdef SPHERELIB_STRICT
; 52   : 		if (sphere->IS_SPHERE)
; 53   : 			puts("RangeTester::PointTest2dCallback");	
; 54   : #endif
; 55   : 		if (state!=VS_OUTSIDE)

  00008	83 7d 10 02	 cmp	 DWORD PTR _state$[ebp], 2
  0000c	74 17		 je	 SHORT $LN1@PointTest2
; File D:\Metin2 Server Files\mainline\SRC_2014\Metin2Client\SphereLib\spherepack.h

; 209  : 	void * GetUserData(void) const { return mUserData; };

  0000e	8b 45 0c	 mov	 eax, DWORD PTR _sphere$[ebp]
  00011	8b 40 44	 mov	 eax, DWORD PTR [eax+68]
  00014	89 45 fc	 mov	 DWORD PTR $T1[ebp], eax
; File D:\Metin2 Server Files\mainline\SRC_2014\Metin2Client\eterlib\CullingManager.h

; 60   : 			(*f)((CGraphicObjectInstance *)sphere->GetUserData());

  00017	ff 75 fc	 push	 DWORD PTR $T1[ebp]
  0001a	8b 45 f8	 mov	 eax, DWORD PTR _this$[ebp]
  0001d	8b 48 04	 mov	 ecx, DWORD PTR [eax+4]
  00020	e8 00 00 00 00	 call	 ??RFCheckBackgroundDuringFlying@@QAEXPAVCGraphicObjectInstance@@@Z ; FCheckBackgroundDuringFlying::operator()
$LN1@PointTest2:

; 61   : 		}
; 62   : 	}

  00025	c9		 leave
  00026	c2 0c 00	 ret	 12			; 0000000cH
?PointTest2dCallback@?$RangeTester@UFCheckBackgroundDuringFlying@@@@UAEXABVVector3d@@PAVSpherePack@@W4ViewState@@@Z ENDP ; RangeTester<FCheckBackgroundDuringFlying>::PointTest2dCallback
_TEXT	ENDS
; Function compile flags: /Odspy
; File D:\Metin2 Server Files\mainline\SRC_2014\Metin2Client\eterlib\CullingManager.h
; File D:\Metin2 Server Files\mainline\SRC_2014\Metin2Client\SphereLib\spherepack.h
; File D:\Metin2 Server Files\mainline\SRC_2014\Metin2Client\eterlib\CullingManager.h
;	COMDAT ?RangeTestCallback@?$RangeTester@UFCheckBackgroundDuringFlying@@@@UAEXABVVector3d@@MPAVSpherePack@@W4ViewState@@@Z
_TEXT	SEGMENT
_this$ = -8						; size = 4
$T1 = -4						; size = 4
_p$ = 8							; size = 4
_distance$ = 12						; size = 4
_sphere$ = 16						; size = 4
_state$ = 20						; size = 4
?RangeTestCallback@?$RangeTester@UFCheckBackgroundDuringFlying@@@@UAEXABVVector3d@@MPAVSpherePack@@W4ViewState@@@Z PROC ; RangeTester<FCheckBackgroundDuringFlying>::RangeTestCallback, COMDAT
; _this$ = ecx

; 40   : 	{

  00000	55		 push	 ebp
  00001	8b ec		 mov	 ebp, esp
  00003	51		 push	 ecx
  00004	51		 push	 ecx
  00005	89 4d f8	 mov	 DWORD PTR _this$[ebp], ecx

; 41   : #ifdef SPHERELIB_STRICT
; 42   : 		if (sphere->IS_SPHERE)
; 43   : 			puts("RangeTester::RangeTestCallback");
; 44   : #endif	
; 45   : 		if (state!=VS_OUTSIDE)

  00008	83 7d 14 02	 cmp	 DWORD PTR _state$[ebp], 2
  0000c	74 17		 je	 SHORT $LN1@RangeTestC
; File D:\Metin2 Server Files\mainline\SRC_2014\Metin2Client\SphereLib\spherepack.h

; 209  : 	void * GetUserData(void) const { return mUserData; };

  0000e	8b 45 10	 mov	 eax, DWORD PTR _sphere$[ebp]
  00011	8b 40 44	 mov	 eax, DWORD PTR [eax+68]
  00014	89 45 fc	 mov	 DWORD PTR $T1[ebp], eax
; File D:\Metin2 Server Files\mainline\SRC_2014\Metin2Client\eterlib\CullingManager.h

; 46   : 			(*f)((CGraphicObjectInstance *)sphere->GetUserData());

  00017	ff 75 fc	 push	 DWORD PTR $T1[ebp]
  0001a	8b 45 f8	 mov	 eax, DWORD PTR _this$[ebp]
  0001d	8b 48 04	 mov	 ecx, DWORD PTR [eax+4]
  00020	e8 00 00 00 00	 call	 ??RFCheckBackgroundDuringFlying@@QAEXPAVCGraphicObjectInstance@@@Z ; FCheckBackgroundDuringFlying::operator()
$LN1@RangeTestC:

; 47   : 	}

  00025	c9		 leave
  00026	c2 10 00	 ret	 16			; 00000010H
?RangeTestCallback@?$RangeTester@UFCheckBackgroundDuringFlying@@@@UAEXABVVector3d@@MPAVSpherePack@@W4ViewState@@@Z ENDP ; RangeTester<FCheckBackgroundDuringFlying>::RangeTestCallback
_TEXT	ENDS
; Function compile flags: /Odspy
; File D:\Metin2 Server Files\mainline\SRC_2014\Metin2Client\eterlib\CullingManager.h
;	COMDAT ?VisibilityCallback@?$RangeTester@UFCheckBackgroundDuringFlying@@@@UAEXABVFrustum@@PAVSpherePack@@W4ViewState@@@Z
_TEXT	SEGMENT
_this$ = -4						; size = 4
_f$ = 8							; size = 4
_sphere$ = 12						; size = 4
_state$ = 16						; size = 4
?VisibilityCallback@?$RangeTester@UFCheckBackgroundDuringFlying@@@@UAEXABVFrustum@@PAVSpherePack@@W4ViewState@@@Z PROC ; RangeTester<FCheckBackgroundDuringFlying>::VisibilityCallback, COMDAT
; _this$ = ecx

; 37   : 	virtual void VisibilityCallback(const Frustum &f,SpherePack *sphere,ViewState state){};

  00000	55		 push	 ebp
  00001	8b ec		 mov	 ebp, esp
  00003	51		 push	 ecx
  00004	89 4d fc	 mov	 DWORD PTR _this$[ebp], ecx
  00007	c9		 leave
  00008	c2 0c 00	 ret	 12			; 0000000cH
?VisibilityCallback@?$RangeTester@UFCheckBackgroundDuringFlying@@@@UAEXABVFrustum@@PAVSpherePack@@W4ViewState@@@Z ENDP ; RangeTester<FCheckBackgroundDuringFlying>::VisibilityCallback
_TEXT	ENDS
; Function compile flags: /Odspy
; File D:\Metin2 Server Files\mainline\SRC_2014\Metin2Client\eterlib\CullingManager.h
; File D:\Metin2 Server Files\mainline\SRC_2014\Metin2Client\SphereLib\spherepack.h
; File D:\Metin2 Server Files\mainline\SRC_2014\Metin2Client\eterlib\CullingManager.h
;	COMDAT ?RayTraceCallback@?$RangeTester@UFCheckBackgroundDuringFlying@@@@UAEXABVVector3d@@0M0PAVSpherePack@@@Z
_TEXT	SEGMENT
$T1 = -8						; size = 4
_this$ = -4						; size = 4
_p1$ = 8						; size = 4
_dir$ = 12						; size = 4
_distance$ = 16						; size = 4
_sect$ = 20						; size = 4
_sphere$ = 24						; size = 4
?RayTraceCallback@?$RangeTester@UFCheckBackgroundDuringFlying@@@@UAEXABVVector3d@@0M0PAVSpherePack@@@Z PROC ; RangeTester<FCheckBackgroundDuringFlying>::RayTraceCallback, COMDAT
; _this$ = ecx

; 27   : 	{

  00000	55		 push	 ebp
  00001	8b ec		 mov	 ebp, esp
  00003	51		 push	 ecx
  00004	51		 push	 ecx
  00005	89 4d fc	 mov	 DWORD PTR _this$[ebp], ecx

; 28   : #ifdef SPHERELIB_STRICT
; 29   : 		if (sphere->IS_SPHERE)
; 30   : 			puts("RangeTester::RayTraceCallback");
; 31   : #endif	
; 32   : 		if (dist<=0.0f || dist>=distance)

  00008	8b 45 fc	 mov	 eax, DWORD PTR _this$[ebp]
  0000b	0f 57 c0	 xorps	 xmm0, xmm0
  0000e	0f 2f 40 08	 comiss	 xmm0, DWORD PTR [eax+8]
  00012	73 0e		 jae	 SHORT $LN3@RayTraceCa
  00014	8b 45 fc	 mov	 eax, DWORD PTR _this$[ebp]
  00017	f3 0f 10 40 08	 movss	 xmm0, DWORD PTR [eax+8]
  0001c	0f 2f 45 10	 comiss	 xmm0, DWORD PTR _distance$[ebp]
  00020	72 17		 jb	 SHORT $LN2@RayTraceCa
$LN3@RayTraceCa:
; File D:\Metin2 Server Files\mainline\SRC_2014\Metin2Client\SphereLib\spherepack.h

; 209  : 	void * GetUserData(void) const { return mUserData; };

  00022	8b 45 18	 mov	 eax, DWORD PTR _sphere$[ebp]
  00025	8b 40 44	 mov	 eax, DWORD PTR [eax+68]
  00028	89 45 f8	 mov	 DWORD PTR $T1[ebp], eax
; File D:\Metin2 Server Files\mainline\SRC_2014\Metin2Client\eterlib\CullingManager.h

; 33   : 			(*f)((CGraphicObjectInstance *)sphere->GetUserData());

  0002b	ff 75 f8	 push	 DWORD PTR $T1[ebp]
  0002e	8b 45 fc	 mov	 eax, DWORD PTR _this$[ebp]
  00031	8b 48 04	 mov	 ecx, DWORD PTR [eax+4]
  00034	e8 00 00 00 00	 call	 ??RFCheckBackgroundDuringFlying@@QAEXPAVCGraphicObjectInstance@@@Z ; FCheckBackgroundDuringFlying::operator()
$LN2@RayTraceCa:

; 34   : 	};

  00039	c9		 leave
  0003a	c2 14 00	 ret	 20			; 00000014H
?RayTraceCallback@?$RangeTester@UFCheckBackgroundDuringFlying@@@@UAEXABVVector3d@@0M0PAVSpherePack@@@Z ENDP ; RangeTester<FCheckBackgroundDuringFlying>::RayTraceCallback
_TEXT	ENDS
; Function compile flags: /Odspy
; File D:\Metin2 Server Files\mainline\SRC_2014\Metin2Client\eterlib\CullingManager.h
; File D:\Metin2 Server Files\mainline\SRC_2014\Metin2Client\SphereLib\spherepack.h
; File D:\Metin2 Server Files\mainline\SRC_2014\Metin2Client\eterlib\CullingManager.h
;	COMDAT ??1?$RangeTester@UFCheckBackgroundDuringFlying@@@@UAE@XZ
_TEXT	SEGMENT
_this$ = -4						; size = 4
??1?$RangeTester@UFCheckBackgroundDuringFlying@@@@UAE@XZ PROC ; RangeTester<FCheckBackgroundDuringFlying>::~RangeTester<FCheckBackgroundDuringFlying>, COMDAT
; _this$ = ecx

; 19   : 	{}

  00000	55		 push	 ebp
  00001	8b ec		 mov	 ebp, esp
  00003	51		 push	 ecx
  00004	89 4d fc	 mov	 DWORD PTR _this$[ebp], ecx
  00007	8b 45 fc	 mov	 eax, DWORD PTR _this$[ebp]
  0000a	c7 00 00 00 00
	00		 mov	 DWORD PTR [eax], OFFSET ??_7?$RangeTester@UFCheckBackgroundDuringFlying@@@@6B@
; File D:\Metin2 Server Files\mainline\SRC_2014\Metin2Client\SphereLib\spherepack.h

; 56   : 	virtual ~SpherePackCallback() {}

  00010	8b 45 fc	 mov	 eax, DWORD PTR _this$[ebp]
  00013	c7 00 00 00 00
	00		 mov	 DWORD PTR [eax], OFFSET ??_7SpherePackCallback@@6B@
; File D:\Metin2 Server Files\mainline\SRC_2014\Metin2Client\eterlib\CullingManager.h

; 19   : 	{}

  00019	c9		 leave
  0001a	c3		 ret	 0
??1?$RangeTester@UFCheckBackgroundDuringFlying@@@@UAE@XZ ENDP ; RangeTester<FCheckBackgroundDuringFlying>::~RangeTester<FCheckBackgroundDuringFlying>
_TEXT	ENDS
; Function compile flags: /Odspy
; File C:\Program Files (x86)\Microsoft Visual Studio\2019\Community\VC\Tools\MSVC\14.28.29333\include\xtree
; File C:\Program Files (x86)\Microsoft Visual Studio\2019\Community\VC\Tools\MSVC\14.28.29333\include\xstddef
; File C:\Program Files (x86)\Microsoft Visual Studio\2019\Community\VC\Tools\MSVC\14.28.29333\include\xtree
; File C:\Program Files (x86)\Microsoft Visual Studio\2019\Community\VC\Tools\MSVC\14.28.29333\include\xmemory
; File C:\Program Files (x86)\Microsoft Visual Studio\2019\Community\VC\Tools\MSVC\14.28.29333\include\xtree
; File C:\Program Files (x86)\Microsoft Visual Studio\2019\Community\VC\Tools\MSVC\14.28.29333\include\xmemory
; File C:\Program Files (x86)\Microsoft Visual Studio\2019\Community\VC\Tools\MSVC\14.28.29333\include\xtree
; File C:\Program Files (x86)\Microsoft Visual Studio\2019\Community\VC\Tools\MSVC\14.28.29333\include\xstddef
; File C:\Program Files (x86)\Microsoft Visual Studio\2019\Community\VC\Tools\MSVC\14.28.29333\include\xtree
; File C:\Program Files (x86)\Microsoft Visual Studio\2019\Community\VC\Tools\MSVC\14.28.29333\include\type_traits
; File C:\Program Files (x86)\Microsoft Visual Studio\2019\Community\VC\Tools\MSVC\14.28.29333\include\utility
; File C:\Program Files (x86)\Microsoft Visual Studio\2019\Community\VC\Tools\MSVC\14.28.29333\include\type_traits
; File C:\Program Files (x86)\Microsoft Visual Studio\2019\Community\VC\Tools\MSVC\14.28.29333\include\utility
; File C:\Program Files (x86)\Microsoft Visual Studio\2019\Community\VC\Tools\MSVC\14.28.29333\include\xtree
; File C:\Program Files (x86)\Microsoft Visual Studio\2019\Community\VC\Tools\MSVC\14.28.29333\include\type_traits
; File C:\Program Files (x86)\Microsoft Visual Studio\2019\Community\VC\Tools\MSVC\14.28.29333\include\xtree
; File C:\Program Files (x86)\Microsoft Visual Studio\2019\Community\VC\Tools\MSVC\14.28.29333\include\xmemory
; File C:\Program Files (x86)\Microsoft Visual Studio\2019\Community\VC\Tools\MSVC\14.28.29333\include\xtree
; File C:\Program Files (x86)\Microsoft Visual Studio\2019\Community\VC\Tools\MSVC\14.28.29333\include\xmemory
; File C:\Program Files (x86)\Microsoft Visual Studio\2019\Community\VC\Tools\MSVC\14.28.29333\include\utility
; File C:\Program Files (x86)\Microsoft Visual Studio\2019\Community\VC\Tools\MSVC\14.28.29333\include\xmemory
; File C:\Program Files (x86)\Microsoft Visual Studio\2019\Community\VC\Tools\MSVC\14.28.29333\include\xtree
; File C:\Program Files (x86)\Microsoft Visual Studio\2019\Community\VC\Tools\MSVC\14.28.29333\include\type_traits
; File C:\Program Files (x86)\Microsoft Visual Studio\2019\Community\VC\Tools\MSVC\14.28.29333\include\utility
; File C:\Program Files (x86)\Microsoft Visual Studio\2019\Community\VC\Tools\MSVC\14.28.29333\include\type_traits
; File C:\Program Files (x86)\Microsoft Visual Studio\2019\Community\VC\Tools\MSVC\14.28.29333\include\utility
; File C:\Program Files (x86)\Microsoft Visual Studio\2019\Community\VC\Tools\MSVC\14.28.29333\include\xtree
;	COMDAT ??$_Emplace@ABQAVIActorInstance@@@?$_Tree@V?$_Tset_traits@PAVIActorInstance@@U?$less@PAVIActorInstance@@@std@@V?$allocator@PAVIActorInstance@@@3@$0A@@std@@@std@@IAE?AU?$pair@PAU?$_Tree_node@PAVIActorInstance@@PAX@std@@_N@1@ABQAVIActorInstance@@@Z
_TEXT	SEGMENT
$T1 = -128						; size = 12
$T2 = -116						; size = 8
$T3 = -108						; size = 4
__Loc$ = -104						; size = 12
$T4 = -92						; size = 4
$T5 = -88						; size = 4
$T6 = -84						; size = 4
__Inserted$ = -80					; size = 4
$T7 = -76						; size = 4
__Old_val$8 = -72					; size = 4
$T9 = -68						; size = 4
$T10 = -64						; size = 4
$T11 = -60						; size = 4
$T12 = -56						; size = 4
$T13 = -52						; size = 4
$T14 = -48						; size = 4
$T15 = -44						; size = 4
$T16 = -40						; size = 4
$T17 = -36						; size = 4
__Scary$ = -32						; size = 4
__Val$ = -28						; size = 4
tv65 = -24						; size = 4
tv165 = -20						; size = 4
__Bound$ = -16						; size = 4
__Keyval$18 = -12					; size = 4
_this$ = -8						; size = 4
$T19 = -2						; size = 1
$T20 = -1						; size = 1
___$ReturnUdt$ = 8					; size = 4
_<_Vals_0>$ = 12					; size = 4
??$_Emplace@ABQAVIActorInstance@@@?$_Tree@V?$_Tset_traits@PAVIActorInstance@@U?$less@PAVIActorInstance@@@std@@V?$allocator@PAVIActorInstance@@@3@$0A@@std@@@std@@IAE?AU?$pair@PAU?$_Tree_node@PAVIActorInstance@@PAX@std@@_N@1@ABQAVIActorInstance@@@Z PROC ; std::_Tree<std::_Tset_traits<IActorInstance *,std::less<IActorInstance *>,std::allocator<IActorInstance *>,0> >::_Emplace<IActorInstance * const &>, COMDAT
; _this$ = ecx

; 1002 :     pair<_Nodeptr, bool> _Emplace(_Valtys&&... _Vals) {

  00000	55		 push	 ebp
  00001	8b ec		 mov	 ebp, esp
  00003	81 ec 80 00 00
	00		 sub	 esp, 128		; 00000080H
  00009	56		 push	 esi
  0000a	57		 push	 edi
  0000b	89 4d f8	 mov	 DWORD PTR _this$[ebp], ecx

; 2047 :         return _STD addressof(_Mypair._Myval2._Myval2);

  0000e	8b 45 f8	 mov	 eax, DWORD PTR _this$[ebp]
; File C:\Program Files (x86)\Microsoft Visual Studio\2019\Community\VC\Tools\MSVC\14.28.29333\include\xstddef

; 275  :     return __builtin_addressof(_Val);

  00011	89 45 dc	 mov	 DWORD PTR $T17[ebp], eax
; File C:\Program Files (x86)\Microsoft Visual Studio\2019\Community\VC\Tools\MSVC\14.28.29333\include\xtree

; 2047 :         return _STD addressof(_Mypair._Myval2._Myval2);

  00014	8b 45 dc	 mov	 eax, DWORD PTR $T17[ebp]
  00017	89 45 e0	 mov	 DWORD PTR __Scary$[ebp], eax
; File C:\Program Files (x86)\Microsoft Visual Studio\2019\Community\VC\Tools\MSVC\14.28.29333\include\xmemory

; 1974 :         return _Val;

  0001a	8b 45 0c	 mov	 eax, DWORD PTR _<_Vals_0>$[ebp]
  0001d	89 45 f4	 mov	 DWORD PTR __Keyval$18[ebp], eax
; File C:\Program Files (x86)\Microsoft Visual Studio\2019\Community\VC\Tools\MSVC\14.28.29333\include\xtree

; 1009 :             _Loc                = _Find_lower_bound(_Keyval);

  00020	ff 75 f4	 push	 DWORD PTR __Keyval$18[ebp]
  00023	8d 45 80	 lea	 eax, DWORD PTR $T1[ebp]
  00026	50		 push	 eax
  00027	8b 4d f8	 mov	 ecx, DWORD PTR _this$[ebp]
  0002a	e8 00 00 00 00	 call	 ??$_Find_lower_bound@PAVIActorInstance@@@?$_Tree@V?$_Tset_traits@PAVIActorInstance@@U?$less@PAVIActorInstance@@@std@@V?$allocator@PAVIActorInstance@@@3@$0A@@std@@@std@@IBE?AU?$_Tree_find_result@PAU?$_Tree_node@PAVIActorInstance@@PAX@std@@@1@ABQAVIActorInstance@@@Z ; std::_Tree<std::_Tset_traits<IActorInstance *,std::less<IActorInstance *>,std::allocator<IActorInstance *>,0> >::_Find_lower_bound<IActorInstance *>
  0002f	8b f0		 mov	 esi, eax
  00031	8d 7d 98	 lea	 edi, DWORD PTR __Loc$[ebp]
  00034	a5		 movsd
  00035	a5		 movsd
  00036	a5		 movsd

; 1010 :             if (_Lower_bound_duplicate(_Loc._Bound, _Keyval)) {

  00037	8b 45 a0	 mov	 eax, DWORD PTR __Loc$[ebp+8]
  0003a	89 45 f0	 mov	 DWORD PTR __Bound$[ebp], eax

; 1695 :         return !_Bound->_Isnil && !_DEBUG_LT_PRED(_Getcomp(), _Keyval, _Traits::_Kfn(_Bound->_Myval));

  0003d	8b 45 f0	 mov	 eax, DWORD PTR __Bound$[ebp]
  00040	0f be 40 0d	 movsx	 eax, BYTE PTR [eax+13]
  00044	85 c0		 test	 eax, eax
  00046	75 37		 jne	 SHORT $LN40@Emplace

; 2035 :         return _Mypair._Get_first();

  00048	8b 45 f8	 mov	 eax, DWORD PTR _this$[ebp]
; File C:\Program Files (x86)\Microsoft Visual Studio\2019\Community\VC\Tools\MSVC\14.28.29333\include\xmemory

; 1351 :         return *this;

  0004b	89 45 d8	 mov	 DWORD PTR $T16[ebp], eax
; File C:\Program Files (x86)\Microsoft Visual Studio\2019\Community\VC\Tools\MSVC\14.28.29333\include\xtree

; 2035 :         return _Mypair._Get_first();

  0004e	8b 45 d8	 mov	 eax, DWORD PTR $T16[ebp]
  00051	89 45 94	 mov	 DWORD PTR $T3[ebp], eax
; File C:\Program Files (x86)\Microsoft Visual Studio\2019\Community\VC\Tools\MSVC\14.28.29333\include\xstddef

; 127  :         return _Left < _Right;

  00054	8b 45 f4	 mov	 eax, DWORD PTR __Keyval$18[ebp]
  00057	8b 4d f0	 mov	 ecx, DWORD PTR __Bound$[ebp]
  0005a	8b 00		 mov	 eax, DWORD PTR [eax]
  0005c	3b 41 10	 cmp	 eax, DWORD PTR [ecx+16]
  0005f	73 09		 jae	 SHORT $LN52@Emplace
  00061	c7 45 ec 01 00
	00 00		 mov	 DWORD PTR tv165[ebp], 1
  00068	eb 04		 jmp	 SHORT $LN50@Emplace
$LN52@Emplace:
  0006a	83 65 ec 00	 and	 DWORD PTR tv165[ebp], 0
$LN50@Emplace:
; File C:\Program Files (x86)\Microsoft Visual Studio\2019\Community\VC\Tools\MSVC\14.28.29333\include\xtree

; 1695 :         return !_Bound->_Isnil && !_DEBUG_LT_PRED(_Getcomp(), _Keyval, _Traits::_Kfn(_Bound->_Myval));

  0006e	0f b6 45 ec	 movzx	 eax, BYTE PTR tv165[ebp]
  00072	85 c0		 test	 eax, eax
  00074	75 09		 jne	 SHORT $LN40@Emplace
  00076	c7 45 e8 01 00
	00 00		 mov	 DWORD PTR tv65[ebp], 1
  0007d	eb 04		 jmp	 SHORT $LN38@Emplace
$LN40@Emplace:
  0007f	83 65 e8 00	 and	 DWORD PTR tv65[ebp], 0
$LN38@Emplace:

; 1010 :             if (_Lower_bound_duplicate(_Loc._Bound, _Keyval)) {

  00083	0f b6 45 e8	 movzx	 eax, BYTE PTR tv65[ebp]
  00087	85 c0		 test	 eax, eax
  00089	74 2d		 je	 SHORT $LN2@Emplace

; 1011 :                 return {_Loc._Bound, false};

  0008b	c6 45 ff 00	 mov	 BYTE PTR $T20[ebp], 0
; File C:\Program Files (x86)\Microsoft Visual Studio\2019\Community\VC\Tools\MSVC\14.28.29333\include\type_traits

; 1443 :     return static_cast<_Ty&&>(_Arg);

  0008f	8d 45 a0	 lea	 eax, DWORD PTR __Loc$[ebp+8]
  00092	89 45 d4	 mov	 DWORD PTR $T15[ebp], eax
; File C:\Program Files (x86)\Microsoft Visual Studio\2019\Community\VC\Tools\MSVC\14.28.29333\include\utility

; 190  :         : first(_STD forward<_Other1>(_Val1)), second(_STD forward<_Other2>(_Val2)) {}

  00095	8b 45 08	 mov	 eax, DWORD PTR ___$ReturnUdt$[ebp]
  00098	8b 4d d4	 mov	 ecx, DWORD PTR $T15[ebp]
  0009b	8b 09		 mov	 ecx, DWORD PTR [ecx]
  0009d	89 08		 mov	 DWORD PTR [eax], ecx
; File C:\Program Files (x86)\Microsoft Visual Studio\2019\Community\VC\Tools\MSVC\14.28.29333\include\type_traits

; 1443 :     return static_cast<_Ty&&>(_Arg);

  0009f	8d 45 ff	 lea	 eax, DWORD PTR $T20[ebp]
  000a2	89 45 d0	 mov	 DWORD PTR $T14[ebp], eax
; File C:\Program Files (x86)\Microsoft Visual Studio\2019\Community\VC\Tools\MSVC\14.28.29333\include\utility

; 190  :         : first(_STD forward<_Other1>(_Val1)), second(_STD forward<_Other2>(_Val2)) {}

  000a5	8b 45 08	 mov	 eax, DWORD PTR ___$ReturnUdt$[ebp]
  000a8	8b 4d d0	 mov	 ecx, DWORD PTR $T14[ebp]
  000ab	8a 09		 mov	 cl, BYTE PTR [ecx]
  000ad	88 48 04	 mov	 BYTE PTR [eax+4], cl
; File C:\Program Files (x86)\Microsoft Visual Studio\2019\Community\VC\Tools\MSVC\14.28.29333\include\xtree

; 1011 :                 return {_Loc._Bound, false};

  000b0	8b 45 08	 mov	 eax, DWORD PTR ___$ReturnUdt$[ebp]
  000b3	e9 9d 00 00 00	 jmp	 $LN1@Emplace
$LN2@Emplace:

; 1012 :             }
; 1013 : 
; 1014 :             _Check_grow_by_1();

  000b8	8b 4d f8	 mov	 ecx, DWORD PTR _this$[ebp]
  000bb	e8 00 00 00 00	 call	 ?_Check_grow_by_1@?$_Tree@V?$_Tset_traits@PAVIActorInstance@@U?$less@PAVIActorInstance@@@std@@V?$allocator@PAVIActorInstance@@@3@$0A@@std@@@std@@IAEXXZ ; std::_Tree<std::_Tset_traits<IActorInstance *,std::less<IActorInstance *>,std::allocator<IActorInstance *>,0> >::_Check_grow_by_1
; File C:\Program Files (x86)\Microsoft Visual Studio\2019\Community\VC\Tools\MSVC\14.28.29333\include\type_traits

; 1443 :     return static_cast<_Ty&&>(_Arg);

  000c0	8b 45 0c	 mov	 eax, DWORD PTR _<_Vals_0>$[ebp]
  000c3	89 45 c8	 mov	 DWORD PTR $T12[ebp], eax
; File C:\Program Files (x86)\Microsoft Visual Studio\2019\Community\VC\Tools\MSVC\14.28.29333\include\xtree

; 2039 :         return _Mypair._Myval2._Get_first();

  000c6	8b 45 f8	 mov	 eax, DWORD PTR _this$[ebp]
; File C:\Program Files (x86)\Microsoft Visual Studio\2019\Community\VC\Tools\MSVC\14.28.29333\include\xmemory

; 1347 :         return *this;

  000c9	89 45 cc	 mov	 DWORD PTR $T13[ebp], eax
; File C:\Program Files (x86)\Microsoft Visual Studio\2019\Community\VC\Tools\MSVC\14.28.29333\include\xtree

; 2039 :         return _Mypair._Myval2._Get_first();

  000cc	8b 45 cc	 mov	 eax, DWORD PTR $T13[ebp]
  000cf	89 45 c4	 mov	 DWORD PTR $T11[ebp], eax

; 1015 :             _Inserted = _Tree_temp_node<_Alnode>(_Getal(), _Scary->_Myhead, _STD forward<_Valtys>(_Vals)...)._Release();

  000d2	ff 75 c8	 push	 DWORD PTR $T12[ebp]
  000d5	8b 45 e0	 mov	 eax, DWORD PTR __Scary$[ebp]
  000d8	ff 30		 push	 DWORD PTR [eax]
  000da	ff 75 c4	 push	 DWORD PTR $T11[ebp]
  000dd	8d 4d 8c	 lea	 ecx, DWORD PTR $T2[ebp]
  000e0	e8 00 00 00 00	 call	 ??$?0ABQAVIActorInstance@@@?$_Tree_temp_node@V?$allocator@U?$_Tree_node@PAVIActorInstance@@PAX@std@@@std@@@std@@QAE@AAV?$allocator@U?$_Tree_node@PAVIActorInstance@@PAX@std@@@1@PAU?$_Tree_node@PAVIActorInstance@@PAX@1@ABQAVIActorInstance@@@Z ; std::_Tree_temp_node<std::allocator<std::_Tree_node<IActorInstance *,void *> > >::_Tree_temp_node<std::allocator<std::_Tree_node<IActorInstance *,void *> > ><IActorInstance * const &>
  000e5	89 45 c0	 mov	 DWORD PTR $T10[ebp], eax
; File C:\Program Files (x86)\Microsoft Visual Studio\2019\Community\VC\Tools\MSVC\14.28.29333\include\xmemory

; 1048 :         return _STD exchange(_Ptr, nullptr);

  000e8	83 65 bc 00	 and	 DWORD PTR $T9[ebp], 0
  000ec	8b 45 c0	 mov	 eax, DWORD PTR $T10[ebp]
  000ef	83 c0 04	 add	 eax, 4
  000f2	89 45 e4	 mov	 DWORD PTR __Val$[ebp], eax
; File C:\Program Files (x86)\Microsoft Visual Studio\2019\Community\VC\Tools\MSVC\14.28.29333\include\utility

; 598  :     _Ty _Old_val = static_cast<_Ty&&>(_Val);

  000f5	8b 45 e4	 mov	 eax, DWORD PTR __Val$[ebp]
  000f8	8b 00		 mov	 eax, DWORD PTR [eax]
  000fa	89 45 b8	 mov	 DWORD PTR __Old_val$8[ebp], eax

; 599  :     _Val         = static_cast<_Other&&>(_New_val);

  000fd	8b 45 e4	 mov	 eax, DWORD PTR __Val$[ebp]
  00100	8b 4d bc	 mov	 ecx, DWORD PTR $T9[ebp]
  00103	89 08		 mov	 DWORD PTR [eax], ecx

; 600  :     return _Old_val;

  00105	8b 45 b8	 mov	 eax, DWORD PTR __Old_val$8[ebp]
  00108	89 45 b4	 mov	 DWORD PTR $T7[ebp], eax
; File C:\Program Files (x86)\Microsoft Visual Studio\2019\Community\VC\Tools\MSVC\14.28.29333\include\xmemory

; 1048 :         return _STD exchange(_Ptr, nullptr);

  0010b	8b 45 b4	 mov	 eax, DWORD PTR $T7[ebp]
  0010e	89 45 b0	 mov	 DWORD PTR __Inserted$[ebp], eax
; File C:\Program Files (x86)\Microsoft Visual Studio\2019\Community\VC\Tools\MSVC\14.28.29333\include\xtree

; 1015 :             _Inserted = _Tree_temp_node<_Alnode>(_Getal(), _Scary->_Myhead, _STD forward<_Valtys>(_Vals)...)._Release();

  00111	8d 4d 8c	 lea	 ecx, DWORD PTR $T2[ebp]
  00114	e8 00 00 00 00	 call	 ??1?$_Tree_temp_node@V?$allocator@U?$_Tree_node@PAVIActorInstance@@PAX@std@@@std@@@std@@QAE@XZ ; std::_Tree_temp_node<std::allocator<std::_Tree_node<IActorInstance *,void *> > >::~_Tree_temp_node<std::allocator<std::_Tree_node<IActorInstance *,void *> > >

; 1034 :         return {_Scary->_Insert_node(_Loc._Location, _Inserted), true};

  00119	ff 75 b0	 push	 DWORD PTR __Inserted$[ebp]
  0011c	ff 75 9c	 push	 DWORD PTR __Loc$[ebp+4]
  0011f	ff 75 98	 push	 DWORD PTR __Loc$[ebp]
  00122	8b 4d e0	 mov	 ecx, DWORD PTR __Scary$[ebp]
  00125	e8 00 00 00 00	 call	 ?_Insert_node@?$_Tree_val@U?$_Tree_simple_types@PAVIActorInstance@@@std@@@std@@QAEPAU?$_Tree_node@PAVIActorInstance@@PAX@2@U?$_Tree_id@PAU?$_Tree_node@PAVIActorInstance@@PAX@std@@@2@QAU32@@Z ; std::_Tree_val<std::_Tree_simple_types<IActorInstance *> >::_Insert_node
  0012a	89 45 ac	 mov	 DWORD PTR $T6[ebp], eax
  0012d	c6 45 fe 01	 mov	 BYTE PTR $T19[ebp], 1
; File C:\Program Files (x86)\Microsoft Visual Studio\2019\Community\VC\Tools\MSVC\14.28.29333\include\type_traits

; 1443 :     return static_cast<_Ty&&>(_Arg);

  00131	8d 45 ac	 lea	 eax, DWORD PTR $T6[ebp]
  00134	89 45 a8	 mov	 DWORD PTR $T5[ebp], eax
; File C:\Program Files (x86)\Microsoft Visual Studio\2019\Community\VC\Tools\MSVC\14.28.29333\include\utility

; 190  :         : first(_STD forward<_Other1>(_Val1)), second(_STD forward<_Other2>(_Val2)) {}

  00137	8b 45 08	 mov	 eax, DWORD PTR ___$ReturnUdt$[ebp]
  0013a	8b 4d a8	 mov	 ecx, DWORD PTR $T5[ebp]
  0013d	8b 09		 mov	 ecx, DWORD PTR [ecx]
  0013f	89 08		 mov	 DWORD PTR [eax], ecx
; File C:\Program Files (x86)\Microsoft Visual Studio\2019\Community\VC\Tools\MSVC\14.28.29333\include\type_traits

; 1443 :     return static_cast<_Ty&&>(_Arg);

  00141	8d 45 fe	 lea	 eax, DWORD PTR $T19[ebp]
  00144	89 45 a4	 mov	 DWORD PTR $T4[ebp], eax
; File C:\Program Files (x86)\Microsoft Visual Studio\2019\Community\VC\Tools\MSVC\14.28.29333\include\utility

; 190  :         : first(_STD forward<_Other1>(_Val1)), second(_STD forward<_Other2>(_Val2)) {}

  00147	8b 45 08	 mov	 eax, DWORD PTR ___$ReturnUdt$[ebp]
  0014a	8b 4d a4	 mov	 ecx, DWORD PTR $T4[ebp]
  0014d	8a 09		 mov	 cl, BYTE PTR [ecx]
  0014f	88 48 04	 mov	 BYTE PTR [eax+4], cl
; File C:\Program Files (x86)\Microsoft Visual Studio\2019\Community\VC\Tools\MSVC\14.28.29333\include\xtree

; 1034 :         return {_Scary->_Insert_node(_Loc._Location, _Inserted), true};

  00152	8b 45 08	 mov	 eax, DWORD PTR ___$ReturnUdt$[ebp]
$LN1@Emplace:

; 1035 :     }

  00155	5f		 pop	 edi
  00156	5e		 pop	 esi
  00157	c9		 leave
  00158	c2 08 00	 ret	 8
??$_Emplace@ABQAVIActorInstance@@@?$_Tree@V?$_Tset_traits@PAVIActorInstance@@U?$less@PAVIActorInstance@@@std@@V?$allocator@PAVIActorInstance@@@3@$0A@@std@@@std@@IAE?AU?$pair@PAU?$_Tree_node@PAVIActorInstance@@PAX@std@@_N@1@ABQAVIActorInstance@@@Z ENDP ; std::_Tree<std::_Tset_traits<IActorInstance *,std::less<IActorInstance *>,std::allocator<IActorInstance *>,0> >::_Emplace<IActorInstance * const &>
_TEXT	ENDS
; Function compile flags: /Odspy
; File D:\Metin2 Server Files\mainline\SRC_2014\Metin2Client\eterlib\CullingManager.h
; File D:\Metin2 Server Files\mainline\SRC_2014\Metin2Client\SphereLib\spherepack.h
;	COMDAT ??_G?$RangeTester@UFCheckAnotherMonsterDuringFlying@@@@UAEPAXI@Z
_TEXT	SEGMENT
_this$ = -4						; size = 4
___flags$ = 8						; size = 4
??_G?$RangeTester@UFCheckAnotherMonsterDuringFlying@@@@UAEPAXI@Z PROC ; RangeTester<FCheckAnotherMonsterDuringFlying>::`scalar deleting destructor', COMDAT
; _this$ = ecx
  00000	55		 push	 ebp
  00001	8b ec		 mov	 ebp, esp
  00003	51		 push	 ecx
  00004	89 4d fc	 mov	 DWORD PTR _this$[ebp], ecx
; File D:\Metin2 Server Files\mainline\SRC_2014\Metin2Client\eterlib\CullingManager.h

; 19   : 	{}

  00007	8b 45 fc	 mov	 eax, DWORD PTR _this$[ebp]
  0000a	c7 00 00 00 00
	00		 mov	 DWORD PTR [eax], OFFSET ??_7?$RangeTester@UFCheckAnotherMonsterDuringFlying@@@@6B@
; File D:\Metin2 Server Files\mainline\SRC_2014\Metin2Client\SphereLib\spherepack.h

; 56   : 	virtual ~SpherePackCallback() {}

  00010	8b 45 fc	 mov	 eax, DWORD PTR _this$[ebp]
  00013	c7 00 00 00 00
	00		 mov	 DWORD PTR [eax], OFFSET ??_7SpherePackCallback@@6B@
  00019	8b 45 08	 mov	 eax, DWORD PTR ___flags$[ebp]
  0001c	83 e0 01	 and	 eax, 1
  0001f	74 0c		 je	 SHORT $LN2@scalar
  00021	6a 0c		 push	 12			; 0000000cH
  00023	ff 75 fc	 push	 DWORD PTR _this$[ebp]
  00026	e8 00 00 00 00	 call	 ??3@YAXPAXI@Z		; operator delete
  0002b	59		 pop	 ecx
  0002c	59		 pop	 ecx
$LN2@scalar:
  0002d	8b 45 fc	 mov	 eax, DWORD PTR _this$[ebp]
  00030	c9		 leave
  00031	c2 04 00	 ret	 4
??_G?$RangeTester@UFCheckAnotherMonsterDuringFlying@@@@UAEPAXI@Z ENDP ; RangeTester<FCheckAnotherMonsterDuringFlying>::`scalar deleting destructor'
_TEXT	ENDS
; Function compile flags: /Odspy
; File D:\Metin2 Server Files\mainline\SRC_2014\Metin2Client\eterlib\CullingManager.h
; File D:\Metin2 Server Files\mainline\SRC_2014\Metin2Client\SphereLib\spherepack.h
; File D:\Metin2 Server Files\mainline\SRC_2014\Metin2Client\eterlib\CullingManager.h
;	COMDAT ?PointTest2dCallback@?$RangeTester@UFCheckAnotherMonsterDuringFlying@@@@UAEXABVVector3d@@PAVSpherePack@@W4ViewState@@@Z
_TEXT	SEGMENT
_this$ = -8						; size = 4
$T1 = -4						; size = 4
_p$ = 8							; size = 4
_sphere$ = 12						; size = 4
_state$ = 16						; size = 4
?PointTest2dCallback@?$RangeTester@UFCheckAnotherMonsterDuringFlying@@@@UAEXABVVector3d@@PAVSpherePack@@W4ViewState@@@Z PROC ; RangeTester<FCheckAnotherMonsterDuringFlying>::PointTest2dCallback, COMDAT
; _this$ = ecx

; 50   : 	{

  00000	55		 push	 ebp
  00001	8b ec		 mov	 ebp, esp
  00003	51		 push	 ecx
  00004	51		 push	 ecx
  00005	89 4d f8	 mov	 DWORD PTR _this$[ebp], ecx

; 51   : #ifdef SPHERELIB_STRICT
; 52   : 		if (sphere->IS_SPHERE)
; 53   : 			puts("RangeTester::PointTest2dCallback");	
; 54   : #endif
; 55   : 		if (state!=VS_OUTSIDE)

  00008	83 7d 10 02	 cmp	 DWORD PTR _state$[ebp], 2
  0000c	74 17		 je	 SHORT $LN1@PointTest2
; File D:\Metin2 Server Files\mainline\SRC_2014\Metin2Client\SphereLib\spherepack.h

; 209  : 	void * GetUserData(void) const { return mUserData; };

  0000e	8b 45 0c	 mov	 eax, DWORD PTR _sphere$[ebp]
  00011	8b 40 44	 mov	 eax, DWORD PTR [eax+68]
  00014	89 45 fc	 mov	 DWORD PTR $T1[ebp], eax
; File D:\Metin2 Server Files\mainline\SRC_2014\Metin2Client\eterlib\CullingManager.h

; 60   : 			(*f)((CGraphicObjectInstance *)sphere->GetUserData());

  00017	ff 75 fc	 push	 DWORD PTR $T1[ebp]
  0001a	8b 45 f8	 mov	 eax, DWORD PTR _this$[ebp]
  0001d	8b 48 04	 mov	 ecx, DWORD PTR [eax+4]
  00020	e8 00 00 00 00	 call	 ??RFCheckAnotherMonsterDuringFlying@@QAEXPAVCGraphicObjectInstance@@@Z ; FCheckAnotherMonsterDuringFlying::operator()
$LN1@PointTest2:

; 61   : 		}
; 62   : 	}

  00025	c9		 leave
  00026	c2 0c 00	 ret	 12			; 0000000cH
?PointTest2dCallback@?$RangeTester@UFCheckAnotherMonsterDuringFlying@@@@UAEXABVVector3d@@PAVSpherePack@@W4ViewState@@@Z ENDP ; RangeTester<FCheckAnotherMonsterDuringFlying>::PointTest2dCallback
_TEXT	ENDS
; Function compile flags: /Odspy
; File D:\Metin2 Server Files\mainline\SRC_2014\Metin2Client\eterlib\CullingManager.h
; File D:\Metin2 Server Files\mainline\SRC_2014\Metin2Client\SphereLib\spherepack.h
; File D:\Metin2 Server Files\mainline\SRC_2014\Metin2Client\eterlib\CullingManager.h
;	COMDAT ?RangeTestCallback@?$RangeTester@UFCheckAnotherMonsterDuringFlying@@@@UAEXABVVector3d@@MPAVSpherePack@@W4ViewState@@@Z
_TEXT	SEGMENT
_this$ = -8						; size = 4
$T1 = -4						; size = 4
_p$ = 8							; size = 4
_distance$ = 12						; size = 4
_sphere$ = 16						; size = 4
_state$ = 20						; size = 4
?RangeTestCallback@?$RangeTester@UFCheckAnotherMonsterDuringFlying@@@@UAEXABVVector3d@@MPAVSpherePack@@W4ViewState@@@Z PROC ; RangeTester<FCheckAnotherMonsterDuringFlying>::RangeTestCallback, COMDAT
; _this$ = ecx

; 40   : 	{

  00000	55		 push	 ebp
  00001	8b ec		 mov	 ebp, esp
  00003	51		 push	 ecx
  00004	51		 push	 ecx
  00005	89 4d f8	 mov	 DWORD PTR _this$[ebp], ecx

; 41   : #ifdef SPHERELIB_STRICT
; 42   : 		if (sphere->IS_SPHERE)
; 43   : 			puts("RangeTester::RangeTestCallback");
; 44   : #endif	
; 45   : 		if (state!=VS_OUTSIDE)

  00008	83 7d 14 02	 cmp	 DWORD PTR _state$[ebp], 2
  0000c	74 17		 je	 SHORT $LN1@RangeTestC
; File D:\Metin2 Server Files\mainline\SRC_2014\Metin2Client\SphereLib\spherepack.h

; 209  : 	void * GetUserData(void) const { return mUserData; };

  0000e	8b 45 10	 mov	 eax, DWORD PTR _sphere$[ebp]
  00011	8b 40 44	 mov	 eax, DWORD PTR [eax+68]
  00014	89 45 fc	 mov	 DWORD PTR $T1[ebp], eax
; File D:\Metin2 Server Files\mainline\SRC_2014\Metin2Client\eterlib\CullingManager.h

; 46   : 			(*f)((CGraphicObjectInstance *)sphere->GetUserData());

  00017	ff 75 fc	 push	 DWORD PTR $T1[ebp]
  0001a	8b 45 f8	 mov	 eax, DWORD PTR _this$[ebp]
  0001d	8b 48 04	 mov	 ecx, DWORD PTR [eax+4]
  00020	e8 00 00 00 00	 call	 ??RFCheckAnotherMonsterDuringFlying@@QAEXPAVCGraphicObjectInstance@@@Z ; FCheckAnotherMonsterDuringFlying::operator()
$LN1@RangeTestC:

; 47   : 	}

  00025	c9		 leave
  00026	c2 10 00	 ret	 16			; 00000010H
?RangeTestCallback@?$RangeTester@UFCheckAnotherMonsterDuringFlying@@@@UAEXABVVector3d@@MPAVSpherePack@@W4ViewState@@@Z ENDP ; RangeTester<FCheckAnotherMonsterDuringFlying>::RangeTestCallback
_TEXT	ENDS
; Function compile flags: /Odspy
; File D:\Metin2 Server Files\mainline\SRC_2014\Metin2Client\eterlib\CullingManager.h
;	COMDAT ?VisibilityCallback@?$RangeTester@UFCheckAnotherMonsterDuringFlying@@@@UAEXABVFrustum@@PAVSpherePack@@W4ViewState@@@Z
_TEXT	SEGMENT
_this$ = -4						; size = 4
_f$ = 8							; size = 4
_sphere$ = 12						; size = 4
_state$ = 16						; size = 4
?VisibilityCallback@?$RangeTester@UFCheckAnotherMonsterDuringFlying@@@@UAEXABVFrustum@@PAVSpherePack@@W4ViewState@@@Z PROC ; RangeTester<FCheckAnotherMonsterDuringFlying>::VisibilityCallback, COMDAT
; _this$ = ecx

; 37   : 	virtual void VisibilityCallback(const Frustum &f,SpherePack *sphere,ViewState state){};

  00000	55		 push	 ebp
  00001	8b ec		 mov	 ebp, esp
  00003	51		 push	 ecx
  00004	89 4d fc	 mov	 DWORD PTR _this$[ebp], ecx
  00007	c9		 leave
  00008	c2 0c 00	 ret	 12			; 0000000cH
?VisibilityCallback@?$RangeTester@UFCheckAnotherMonsterDuringFlying@@@@UAEXABVFrustum@@PAVSpherePack@@W4ViewState@@@Z ENDP ; RangeTester<FCheckAnotherMonsterDuringFlying>::VisibilityCallback
_TEXT	ENDS
; Function compile flags: /Odspy
; File D:\Metin2 Server Files\mainline\SRC_2014\Metin2Client\eterlib\CullingManager.h
; File D:\Metin2 Server Files\mainline\SRC_2014\Metin2Client\SphereLib\spherepack.h
; File D:\Metin2 Server Files\mainline\SRC_2014\Metin2Client\eterlib\CullingManager.h
;	COMDAT ?RayTraceCallback@?$RangeTester@UFCheckAnotherMonsterDuringFlying@@@@UAEXABVVector3d@@0M0PAVSpherePack@@@Z
_TEXT	SEGMENT
$T1 = -8						; size = 4
_this$ = -4						; size = 4
_p1$ = 8						; size = 4
_dir$ = 12						; size = 4
_distance$ = 16						; size = 4
_sect$ = 20						; size = 4
_sphere$ = 24						; size = 4
?RayTraceCallback@?$RangeTester@UFCheckAnotherMonsterDuringFlying@@@@UAEXABVVector3d@@0M0PAVSpherePack@@@Z PROC ; RangeTester<FCheckAnotherMonsterDuringFlying>::RayTraceCallback, COMDAT
; _this$ = ecx

; 27   : 	{

  00000	55		 push	 ebp
  00001	8b ec		 mov	 ebp, esp
  00003	51		 push	 ecx
  00004	51		 push	 ecx
  00005	89 4d fc	 mov	 DWORD PTR _this$[ebp], ecx

; 28   : #ifdef SPHERELIB_STRICT
; 29   : 		if (sphere->IS_SPHERE)
; 30   : 			puts("RangeTester::RayTraceCallback");
; 31   : #endif	
; 32   : 		if (dist<=0.0f || dist>=distance)

  00008	8b 45 fc	 mov	 eax, DWORD PTR _this$[ebp]
  0000b	0f 57 c0	 xorps	 xmm0, xmm0
  0000e	0f 2f 40 08	 comiss	 xmm0, DWORD PTR [eax+8]
  00012	73 0e		 jae	 SHORT $LN3@RayTraceCa
  00014	8b 45 fc	 mov	 eax, DWORD PTR _this$[ebp]
  00017	f3 0f 10 40 08	 movss	 xmm0, DWORD PTR [eax+8]
  0001c	0f 2f 45 10	 comiss	 xmm0, DWORD PTR _distance$[ebp]
  00020	72 17		 jb	 SHORT $LN2@RayTraceCa
$LN3@RayTraceCa:
; File D:\Metin2 Server Files\mainline\SRC_2014\Metin2Client\SphereLib\spherepack.h

; 209  : 	void * GetUserData(void) const { return mUserData; };

  00022	8b 45 18	 mov	 eax, DWORD PTR _sphere$[ebp]
  00025	8b 40 44	 mov	 eax, DWORD PTR [eax+68]
  00028	89 45 f8	 mov	 DWORD PTR $T1[ebp], eax
; File D:\Metin2 Server Files\mainline\SRC_2014\Metin2Client\eterlib\CullingManager.h

; 33   : 			(*f)((CGraphicObjectInstance *)sphere->GetUserData());

  0002b	ff 75 f8	 push	 DWORD PTR $T1[ebp]
  0002e	8b 45 fc	 mov	 eax, DWORD PTR _this$[ebp]
  00031	8b 48 04	 mov	 ecx, DWORD PTR [eax+4]
  00034	e8 00 00 00 00	 call	 ??RFCheckAnotherMonsterDuringFlying@@QAEXPAVCGraphicObjectInstance@@@Z ; FCheckAnotherMonsterDuringFlying::operator()
$LN2@RayTraceCa:

; 34   : 	};

  00039	c9		 leave
  0003a	c2 14 00	 ret	 20			; 00000014H
?RayTraceCallback@?$RangeTester@UFCheckAnotherMonsterDuringFlying@@@@UAEXABVVector3d@@0M0PAVSpherePack@@@Z ENDP ; RangeTester<FCheckAnotherMonsterDuringFlying>::RayTraceCallback
_TEXT	ENDS
; Function compile flags: /Odspy
; File D:\Metin2 Server Files\mainline\SRC_2014\Metin2Client\eterlib\CullingManager.h
; File D:\Metin2 Server Files\mainline\SRC_2014\Metin2Client\SphereLib\spherepack.h
; File D:\Metin2 Server Files\mainline\SRC_2014\Metin2Client\eterlib\CullingManager.h
;	COMDAT ??1?$RangeTester@UFCheckAnotherMonsterDuringFlying@@@@UAE@XZ
_TEXT	SEGMENT
_this$ = -4						; size = 4
??1?$RangeTester@UFCheckAnotherMonsterDuringFlying@@@@UAE@XZ PROC ; RangeTester<FCheckAnotherMonsterDuringFlying>::~RangeTester<FCheckAnotherMonsterDuringFlying>, COMDAT
; _this$ = ecx

; 19   : 	{}

  00000	55		 push	 ebp
  00001	8b ec		 mov	 ebp, esp
  00003	51		 push	 ecx
  00004	89 4d fc	 mov	 DWORD PTR _this$[ebp], ecx
  00007	8b 45 fc	 mov	 eax, DWORD PTR _this$[ebp]
  0000a	c7 00 00 00 00
	00		 mov	 DWORD PTR [eax], OFFSET ??_7?$RangeTester@UFCheckAnotherMonsterDuringFlying@@@@6B@
; File D:\Metin2 Server Files\mainline\SRC_2014\Metin2Client\SphereLib\spherepack.h

; 56   : 	virtual ~SpherePackCallback() {}

  00010	8b 45 fc	 mov	 eax, DWORD PTR _this$[ebp]
  00013	c7 00 00 00 00
	00		 mov	 DWORD PTR [eax], OFFSET ??_7SpherePackCallback@@6B@
; File D:\Metin2 Server Files\mainline\SRC_2014\Metin2Client\eterlib\CullingManager.h

; 19   : 	{}

  00019	c9		 leave
  0001a	c3		 ret	 0
??1?$RangeTester@UFCheckAnotherMonsterDuringFlying@@@@UAE@XZ ENDP ; RangeTester<FCheckAnotherMonsterDuringFlying>::~RangeTester<FCheckAnotherMonsterDuringFlying>
_TEXT	ENDS
; Function compile flags: /Odspy
;	COMDAT ??__F?ms_kPool@?$CPooledObject@VCRotationDecorator@NEffectUpdateDecorator@@@@1V?$CDynamicPoolEx@VCRotationDecorator@NEffectUpdateDecorator@@@@A@@YAXXZ
text$yd	SEGMENT
??__F?ms_kPool@?$CPooledObject@VCRotationDecorator@NEffectUpdateDecorator@@@@1V?$CDynamicPoolEx@VCRotationDecorator@NEffectUpdateDecorator@@@@A@@YAXXZ PROC ; `dynamic atexit destructor for 'CPooledObject<NEffectUpdateDecorator::CRotationDecorator>::ms_kPool'', COMDAT
  00000	55		 push	 ebp
  00001	8b ec		 mov	 ebp, esp
  00003	b9 00 00 00 00	 mov	 ecx, OFFSET ?ms_kPool@?$CPooledObject@VCRotationDecorator@NEffectUpdateDecorator@@@@1V?$CDynamicPoolEx@VCRotationDecorator@NEffectUpdateDecorator@@@@A ; CPooledObject<NEffectUpdateDecorator::CRotationDecorator>::ms_kPool
  00008	e8 00 00 00 00	 call	 ??1?$CDynamicPoolEx@VCRotationDecorator@NEffectUpdateDecorator@@@@UAE@XZ ; CDynamicPoolEx<NEffectUpdateDecorator::CRotationDecorator>::~CDynamicPoolEx<NEffectUpdateDecorator::CRotationDecorator>
  0000d	5d		 pop	 ebp
  0000e	c3		 ret	 0
??__F?ms_kPool@?$CPooledObject@VCRotationDecorator@NEffectUpdateDecorator@@@@1V?$CDynamicPoolEx@VCRotationDecorator@NEffectUpdateDecorator@@@@A@@YAXXZ ENDP ; `dynamic atexit destructor for 'CPooledObject<NEffectUpdateDecorator::CRotationDecorator>::ms_kPool''
text$yd	ENDS
; Function compile flags: /Odspy
; File D:\Metin2 Server Files\mainline\SRC_2014\Metin2Client\eterLib\Pool.h
;	COMDAT ??__E?ms_kPool@?$CPooledObject@VCRotationDecorator@NEffectUpdateDecorator@@@@1V?$CDynamicPoolEx@VCRotationDecorator@NEffectUpdateDecorator@@@@A@@YAXXZ
text$di	SEGMENT
??__E?ms_kPool@?$CPooledObject@VCRotationDecorator@NEffectUpdateDecorator@@@@1V?$CDynamicPoolEx@VCRotationDecorator@NEffectUpdateDecorator@@@@A@@YAXXZ PROC ; `dynamic initializer for 'CPooledObject<NEffectUpdateDecorator::CRotationDecorator>::ms_kPool'', COMDAT

; 272  : template <class T> CDynamicPoolEx<T> CPooledObject<T>::ms_kPool;

  00000	55		 push	 ebp
  00001	8b ec		 mov	 ebp, esp
  00003	b9 00 00 00 00	 mov	 ecx, OFFSET ?ms_kPool@?$CPooledObject@VCRotationDecorator@NEffectUpdateDecorator@@@@1V?$CDynamicPoolEx@VCRotationDecorator@NEffectUpdateDecorator@@@@A ; CPooledObject<NEffectUpdateDecorator::CRotationDecorator>::ms_kPool
  00008	e8 00 00 00 00	 call	 ??0?$CDynamicPoolEx@VCRotationDecorator@NEffectUpdateDecorator@@@@QAE@XZ ; CDynamicPoolEx<NEffectUpdateDecorator::CRotationDecorator>::CDynamicPoolEx<NEffectUpdateDecorator::CRotationDecorator>
  0000d	68 00 00 00 00	 push	 OFFSET ??__F?ms_kPool@?$CPooledObject@VCRotationDecorator@NEffectUpdateDecorator@@@@1V?$CDynamicPoolEx@VCRotationDecorator@NEffectUpdateDecorator@@@@A@@YAXXZ ; `dynamic atexit destructor for 'CPooledObject<NEffectUpdateDecorator::CRotationDecorator>::ms_kPool''
  00012	e8 00 00 00 00	 call	 _atexit
  00017	59		 pop	 ecx
  00018	5d		 pop	 ebp
  00019	c3		 ret	 0
??__E?ms_kPool@?$CPooledObject@VCRotationDecorator@NEffectUpdateDecorator@@@@1V?$CDynamicPoolEx@VCRotationDecorator@NEffectUpdateDecorator@@@@A@@YAXXZ ENDP ; `dynamic initializer for 'CPooledObject<NEffectUpdateDecorator::CRotationDecorator>::ms_kPool''
text$di	ENDS
; Function compile flags: /Odspy
;	COMDAT ??__F?ms_kPool@?$CPooledObject@VCGravityDecorator@NEffectUpdateDecorator@@@@1V?$CDynamicPoolEx@VCGravityDecorator@NEffectUpdateDecorator@@@@A@@YAXXZ
text$yd	SEGMENT
??__F?ms_kPool@?$CPooledObject@VCGravityDecorator@NEffectUpdateDecorator@@@@1V?$CDynamicPoolEx@VCGravityDecorator@NEffectUpdateDecorator@@@@A@@YAXXZ PROC ; `dynamic atexit destructor for 'CPooledObject<NEffectUpdateDecorator::CGravityDecorator>::ms_kPool'', COMDAT
  00000	55		 push	 ebp
  00001	8b ec		 mov	 ebp, esp
  00003	b9 00 00 00 00	 mov	 ecx, OFFSET ?ms_kPool@?$CPooledObject@VCGravityDecorator@NEffectUpdateDecorator@@@@1V?$CDynamicPoolEx@VCGravityDecorator@NEffectUpdateDecorator@@@@A ; CPooledObject<NEffectUpdateDecorator::CGravityDecorator>::ms_kPool
  00008	e8 00 00 00 00	 call	 ??1?$CDynamicPoolEx@VCGravityDecorator@NEffectUpdateDecorator@@@@UAE@XZ ; CDynamicPoolEx<NEffectUpdateDecorator::CGravityDecorator>::~CDynamicPoolEx<NEffectUpdateDecorator::CGravityDecorator>
  0000d	5d		 pop	 ebp
  0000e	c3		 ret	 0
??__F?ms_kPool@?$CPooledObject@VCGravityDecorator@NEffectUpdateDecorator@@@@1V?$CDynamicPoolEx@VCGravityDecorator@NEffectUpdateDecorator@@@@A@@YAXXZ ENDP ; `dynamic atexit destructor for 'CPooledObject<NEffectUpdateDecorator::CGravityDecorator>::ms_kPool''
text$yd	ENDS
; Function compile flags: /Odspy
; File D:\Metin2 Server Files\mainline\SRC_2014\Metin2Client\eterLib\Pool.h
;	COMDAT ??__E?ms_kPool@?$CPooledObject@VCGravityDecorator@NEffectUpdateDecorator@@@@1V?$CDynamicPoolEx@VCGravityDecorator@NEffectUpdateDecorator@@@@A@@YAXXZ
text$di	SEGMENT
??__E?ms_kPool@?$CPooledObject@VCGravityDecorator@NEffectUpdateDecorator@@@@1V?$CDynamicPoolEx@VCGravityDecorator@NEffectUpdateDecorator@@@@A@@YAXXZ PROC ; `dynamic initializer for 'CPooledObject<NEffectUpdateDecorator::CGravityDecorator>::ms_kPool'', COMDAT

; 272  : template <class T> CDynamicPoolEx<T> CPooledObject<T>::ms_kPool;

  00000	55		 push	 ebp
  00001	8b ec		 mov	 ebp, esp
  00003	b9 00 00 00 00	 mov	 ecx, OFFSET ?ms_kPool@?$CPooledObject@VCGravityDecorator@NEffectUpdateDecorator@@@@1V?$CDynamicPoolEx@VCGravityDecorator@NEffectUpdateDecorator@@@@A ; CPooledObject<NEffectUpdateDecorator::CGravityDecorator>::ms_kPool
  00008	e8 00 00 00 00	 call	 ??0?$CDynamicPoolEx@VCGravityDecorator@NEffectUpdateDecorator@@@@QAE@XZ ; CDynamicPoolEx<NEffectUpdateDecorator::CGravityDecorator>::CDynamicPoolEx<NEffectUpdateDecorator::CGravityDecorator>
  0000d	68 00 00 00 00	 push	 OFFSET ??__F?ms_kPool@?$CPooledObject@VCGravityDecorator@NEffectUpdateDecorator@@@@1V?$CDynamicPoolEx@VCGravityDecorator@NEffectUpdateDecorator@@@@A@@YAXXZ ; `dynamic atexit destructor for 'CPooledObject<NEffectUpdateDecorator::CGravityDecorator>::ms_kPool''
  00012	e8 00 00 00 00	 call	 _atexit
  00017	59		 pop	 ecx
  00018	5d		 pop	 ebp
  00019	c3		 ret	 0
??__E?ms_kPool@?$CPooledObject@VCGravityDecorator@NEffectUpdateDecorator@@@@1V?$CDynamicPoolEx@VCGravityDecorator@NEffectUpdateDecorator@@@@A@@YAXXZ ENDP ; `dynamic initializer for 'CPooledObject<NEffectUpdateDecorator::CGravityDecorator>::ms_kPool''
text$di	ENDS
; Function compile flags: /Odspy
;	COMDAT ??__F?ms_kPool@?$CPooledObject@VCAirResistanceDecorator@NEffectUpdateDecorator@@@@1V?$CDynamicPoolEx@VCAirResistanceDecorator@NEffectUpdateDecorator@@@@A@@YAXXZ
text$yd	SEGMENT
??__F?ms_kPool@?$CPooledObject@VCAirResistanceDecorator@NEffectUpdateDecorator@@@@1V?$CDynamicPoolEx@VCAirResistanceDecorator@NEffectUpdateDecorator@@@@A@@YAXXZ PROC ; `dynamic atexit destructor for 'CPooledObject<NEffectUpdateDecorator::CAirResistanceDecorator>::ms_kPool'', COMDAT
  00000	55		 push	 ebp
  00001	8b ec		 mov	 ebp, esp
  00003	b9 00 00 00 00	 mov	 ecx, OFFSET ?ms_kPool@?$CPooledObject@VCAirResistanceDecorator@NEffectUpdateDecorator@@@@1V?$CDynamicPoolEx@VCAirResistanceDecorator@NEffectUpdateDecorator@@@@A ; CPooledObject<NEffectUpdateDecorator::CAirResistanceDecorator>::ms_kPool
  00008	e8 00 00 00 00	 call	 ??1?$CDynamicPoolEx@VCAirResistanceDecorator@NEffectUpdateDecorator@@@@UAE@XZ ; CDynamicPoolEx<NEffectUpdateDecorator::CAirResistanceDecorator>::~CDynamicPoolEx<NEffectUpdateDecorator::CAirResistanceDecorator>
  0000d	5d		 pop	 ebp
  0000e	c3		 ret	 0
??__F?ms_kPool@?$CPooledObject@VCAirResistanceDecorator@NEffectUpdateDecorator@@@@1V?$CDynamicPoolEx@VCAirResistanceDecorator@NEffectUpdateDecorator@@@@A@@YAXXZ ENDP ; `dynamic atexit destructor for 'CPooledObject<NEffectUpdateDecorator::CAirResistanceDecorator>::ms_kPool''
text$yd	ENDS
; Function compile flags: /Odspy
; File D:\Metin2 Server Files\mainline\SRC_2014\Metin2Client\eterLib\Pool.h
;	COMDAT ??__E?ms_kPool@?$CPooledObject@VCAirResistanceDecorator@NEffectUpdateDecorator@@@@1V?$CDynamicPoolEx@VCAirResistanceDecorator@NEffectUpdateDecorator@@@@A@@YAXXZ
text$di	SEGMENT
??__E?ms_kPool@?$CPooledObject@VCAirResistanceDecorator@NEffectUpdateDecorator@@@@1V?$CDynamicPoolEx@VCAirResistanceDecorator@NEffectUpdateDecorator@@@@A@@YAXXZ PROC ; `dynamic initializer for 'CPooledObject<NEffectUpdateDecorator::CAirResistanceDecorator>::ms_kPool'', COMDAT

; 272  : template <class T> CDynamicPoolEx<T> CPooledObject<T>::ms_kPool;

  00000	55		 push	 ebp
  00001	8b ec		 mov	 ebp, esp
  00003	b9 00 00 00 00	 mov	 ecx, OFFSET ?ms_kPool@?$CPooledObject@VCAirResistanceDecorator@NEffectUpdateDecorator@@@@1V?$CDynamicPoolEx@VCAirResistanceDecorator@NEffectUpdateDecorator@@@@A ; CPooledObject<NEffectUpdateDecorator::CAirResistanceDecorator>::ms_kPool
  00008	e8 00 00 00 00	 call	 ??0?$CDynamicPoolEx@VCAirResistanceDecorator@NEffectUpdateDecorator@@@@QAE@XZ ; CDynamicPoolEx<NEffectUpdateDecorator::CAirResistanceDecorator>::CDynamicPoolEx<NEffectUpdateDecorator::CAirResistanceDecorator>
  0000d	68 00 00 00 00	 push	 OFFSET ??__F?ms_kPool@?$CPooledObject@VCAirResistanceDecorator@NEffectUpdateDecorator@@@@1V?$CDynamicPoolEx@VCAirResistanceDecorator@NEffectUpdateDecorator@@@@A@@YAXXZ ; `dynamic atexit destructor for 'CPooledObject<NEffectUpdateDecorator::CAirResistanceDecorator>::ms_kPool''
  00012	e8 00 00 00 00	 call	 _atexit
  00017	59		 pop	 ecx
  00018	5d		 pop	 ebp
  00019	c3		 ret	 0
??__E?ms_kPool@?$CPooledObject@VCAirResistanceDecorator@NEffectUpdateDecorator@@@@1V?$CDynamicPoolEx@VCAirResistanceDecorator@NEffectUpdateDecorator@@@@A@@YAXXZ ENDP ; `dynamic initializer for 'CPooledObject<NEffectUpdateDecorator::CAirResistanceDecorator>::ms_kPool''
text$di	ENDS
; Function compile flags: /Odspy
;	COMDAT ??__F?ms_kPool@?$CPooledObject@VCTextureAnimationRandomDecorator@NEffectUpdateDecorator@@@@1V?$CDynamicPoolEx@VCTextureAnimationRandomDecorator@NEffectUpdateDecorator@@@@A@@YAXXZ
text$yd	SEGMENT
??__F?ms_kPool@?$CPooledObject@VCTextureAnimationRandomDecorator@NEffectUpdateDecorator@@@@1V?$CDynamicPoolEx@VCTextureAnimationRandomDecorator@NEffectUpdateDecorator@@@@A@@YAXXZ PROC ; `dynamic atexit destructor for 'CPooledObject<NEffectUpdateDecorator::CTextureAnimationRandomDecorator>::ms_kPool'', COMDAT
  00000	55		 push	 ebp
  00001	8b ec		 mov	 ebp, esp
  00003	b9 00 00 00 00	 mov	 ecx, OFFSET ?ms_kPool@?$CPooledObject@VCTextureAnimationRandomDecorator@NEffectUpdateDecorator@@@@1V?$CDynamicPoolEx@VCTextureAnimationRandomDecorator@NEffectUpdateDecorator@@@@A ; CPooledObject<NEffectUpdateDecorator::CTextureAnimationRandomDecorator>::ms_kPool
  00008	e8 00 00 00 00	 call	 ??1?$CDynamicPoolEx@VCTextureAnimationRandomDecorator@NEffectUpdateDecorator@@@@UAE@XZ ; CDynamicPoolEx<NEffectUpdateDecorator::CTextureAnimationRandomDecorator>::~CDynamicPoolEx<NEffectUpdateDecorator::CTextureAnimationRandomDecorator>
  0000d	5d		 pop	 ebp
  0000e	c3		 ret	 0
??__F?ms_kPool@?$CPooledObject@VCTextureAnimationRandomDecorator@NEffectUpdateDecorator@@@@1V?$CDynamicPoolEx@VCTextureAnimationRandomDecorator@NEffectUpdateDecorator@@@@A@@YAXXZ ENDP ; `dynamic atexit destructor for 'CPooledObject<NEffectUpdateDecorator::CTextureAnimationRandomDecorator>::ms_kPool''
text$yd	ENDS
; Function compile flags: /Odspy
; File D:\Metin2 Server Files\mainline\SRC_2014\Metin2Client\eterLib\Pool.h
;	COMDAT ??__E?ms_kPool@?$CPooledObject@VCTextureAnimationRandomDecorator@NEffectUpdateDecorator@@@@1V?$CDynamicPoolEx@VCTextureAnimationRandomDecorator@NEffectUpdateDecorator@@@@A@@YAXXZ
text$di	SEGMENT
??__E?ms_kPool@?$CPooledObject@VCTextureAnimationRandomDecorator@NEffectUpdateDecorator@@@@1V?$CDynamicPoolEx@VCTextureAnimationRandomDecorator@NEffectUpdateDecorator@@@@A@@YAXXZ PROC ; `dynamic initializer for 'CPooledObject<NEffectUpdateDecorator::CTextureAnimationRandomDecorator>::ms_kPool'', COMDAT

; 272  : template <class T> CDynamicPoolEx<T> CPooledObject<T>::ms_kPool;

  00000	55		 push	 ebp
  00001	8b ec		 mov	 ebp, esp
  00003	b9 00 00 00 00	 mov	 ecx, OFFSET ?ms_kPool@?$CPooledObject@VCTextureAnimationRandomDecorator@NEffectUpdateDecorator@@@@1V?$CDynamicPoolEx@VCTextureAnimationRandomDecorator@NEffectUpdateDecorator@@@@A ; CPooledObject<NEffectUpdateDecorator::CTextureAnimationRandomDecorator>::ms_kPool
  00008	e8 00 00 00 00	 call	 ??0?$CDynamicPoolEx@VCTextureAnimationRandomDecorator@NEffectUpdateDecorator@@@@QAE@XZ ; CDynamicPoolEx<NEffectUpdateDecorator::CTextureAnimationRandomDecorator>::CDynamicPoolEx<NEffectUpdateDecorator::CTextureAnimationRandomDecorator>
  0000d	68 00 00 00 00	 push	 OFFSET ??__F?ms_kPool@?$CPooledObject@VCTextureAnimationRandomDecorator@NEffectUpdateDecorator@@@@1V?$CDynamicPoolEx@VCTextureAnimationRandomDecorator@NEffectUpdateDecorator@@@@A@@YAXXZ ; `dynamic atexit destructor for 'CPooledObject<NEffectUpdateDecorator::CTextureAnimationRandomDecorator>::ms_kPool''
  00012	e8 00 00 00 00	 call	 _atexit
  00017	59		 pop	 ecx
  00018	5d		 pop	 ebp
  00019	c3		 ret	 0
??__E?ms_kPool@?$CPooledObject@VCTextureAnimationRandomDecorator@NEffectUpdateDecorator@@@@1V?$CDynamicPoolEx@VCTextureAnimationRandomDecorator@NEffectUpdateDecorator@@@@A@@YAXXZ ENDP ; `dynamic initializer for 'CPooledObject<NEffectUpdateDecorator::CTextureAnimationRandomDecorator>::ms_kPool''
text$di	ENDS
; Function compile flags: /Odspy
;	COMDAT ??__F?ms_kPool@?$CPooledObject@VCTextureAnimationCCWDecorator@NEffectUpdateDecorator@@@@1V?$CDynamicPoolEx@VCTextureAnimationCCWDecorator@NEffectUpdateDecorator@@@@A@@YAXXZ
text$yd	SEGMENT
??__F?ms_kPool@?$CPooledObject@VCTextureAnimationCCWDecorator@NEffectUpdateDecorator@@@@1V?$CDynamicPoolEx@VCTextureAnimationCCWDecorator@NEffectUpdateDecorator@@@@A@@YAXXZ PROC ; `dynamic atexit destructor for 'CPooledObject<NEffectUpdateDecorator::CTextureAnimationCCWDecorator>::ms_kPool'', COMDAT
  00000	55		 push	 ebp
  00001	8b ec		 mov	 ebp, esp
  00003	b9 00 00 00 00	 mov	 ecx, OFFSET ?ms_kPool@?$CPooledObject@VCTextureAnimationCCWDecorator@NEffectUpdateDecorator@@@@1V?$CDynamicPoolEx@VCTextureAnimationCCWDecorator@NEffectUpdateDecorator@@@@A ; CPooledObject<NEffectUpdateDecorator::CTextureAnimationCCWDecorator>::ms_kPool
  00008	e8 00 00 00 00	 call	 ??1?$CDynamicPoolEx@VCTextureAnimationCCWDecorator@NEffectUpdateDecorator@@@@UAE@XZ ; CDynamicPoolEx<NEffectUpdateDecorator::CTextureAnimationCCWDecorator>::~CDynamicPoolEx<NEffectUpdateDecorator::CTextureAnimationCCWDecorator>
  0000d	5d		 pop	 ebp
  0000e	c3		 ret	 0
??__F?ms_kPool@?$CPooledObject@VCTextureAnimationCCWDecorator@NEffectUpdateDecorator@@@@1V?$CDynamicPoolEx@VCTextureAnimationCCWDecorator@NEffectUpdateDecorator@@@@A@@YAXXZ ENDP ; `dynamic atexit destructor for 'CPooledObject<NEffectUpdateDecorator::CTextureAnimationCCWDecorator>::ms_kPool''
text$yd	ENDS
; Function compile flags: /Odspy
; File D:\Metin2 Server Files\mainline\SRC_2014\Metin2Client\eterLib\Pool.h
;	COMDAT ??__E?ms_kPool@?$CPooledObject@VCTextureAnimationCCWDecorator@NEffectUpdateDecorator@@@@1V?$CDynamicPoolEx@VCTextureAnimationCCWDecorator@NEffectUpdateDecorator@@@@A@@YAXXZ
text$di	SEGMENT
??__E?ms_kPool@?$CPooledObject@VCTextureAnimationCCWDecorator@NEffectUpdateDecorator@@@@1V?$CDynamicPoolEx@VCTextureAnimationCCWDecorator@NEffectUpdateDecorator@@@@A@@YAXXZ PROC ; `dynamic initializer for 'CPooledObject<NEffectUpdateDecorator::CTextureAnimationCCWDecorator>::ms_kPool'', COMDAT

; 272  : template <class T> CDynamicPoolEx<T> CPooledObject<T>::ms_kPool;

  00000	55		 push	 ebp
  00001	8b ec		 mov	 ebp, esp
  00003	b9 00 00 00 00	 mov	 ecx, OFFSET ?ms_kPool@?$CPooledObject@VCTextureAnimationCCWDecorator@NEffectUpdateDecorator@@@@1V?$CDynamicPoolEx@VCTextureAnimationCCWDecorator@NEffectUpdateDecorator@@@@A ; CPooledObject<NEffectUpdateDecorator::CTextureAnimationCCWDecorator>::ms_kPool
  00008	e8 00 00 00 00	 call	 ??0?$CDynamicPoolEx@VCTextureAnimationCCWDecorator@NEffectUpdateDecorator@@@@QAE@XZ ; CDynamicPoolEx<NEffectUpdateDecorator::CTextureAnimationCCWDecorator>::CDynamicPoolEx<NEffectUpdateDecorator::CTextureAnimationCCWDecorator>
  0000d	68 00 00 00 00	 push	 OFFSET ??__F?ms_kPool@?$CPooledObject@VCTextureAnimationCCWDecorator@NEffectUpdateDecorator@@@@1V?$CDynamicPoolEx@VCTextureAnimationCCWDecorator@NEffectUpdateDecorator@@@@A@@YAXXZ ; `dynamic atexit destructor for 'CPooledObject<NEffectUpdateDecorator::CTextureAnimationCCWDecorator>::ms_kPool''
  00012	e8 00 00 00 00	 call	 _atexit
  00017	59		 pop	 ecx
  00018	5d		 pop	 ebp
  00019	c3		 ret	 0
??__E?ms_kPool@?$CPooledObject@VCTextureAnimationCCWDecorator@NEffectUpdateDecorator@@@@1V?$CDynamicPoolEx@VCTextureAnimationCCWDecorator@NEffectUpdateDecorator@@@@A@@YAXXZ ENDP ; `dynamic initializer for 'CPooledObject<NEffectUpdateDecorator::CTextureAnimationCCWDecorator>::ms_kPool''
text$di	ENDS
; Function compile flags: /Odspy
;	COMDAT ??__F?ms_kPool@?$CPooledObject@VCTextureAnimationCWDecorator@NEffectUpdateDecorator@@@@1V?$CDynamicPoolEx@VCTextureAnimationCWDecorator@NEffectUpdateDecorator@@@@A@@YAXXZ
text$yd	SEGMENT
??__F?ms_kPool@?$CPooledObject@VCTextureAnimationCWDecorator@NEffectUpdateDecorator@@@@1V?$CDynamicPoolEx@VCTextureAnimationCWDecorator@NEffectUpdateDecorator@@@@A@@YAXXZ PROC ; `dynamic atexit destructor for 'CPooledObject<NEffectUpdateDecorator::CTextureAnimationCWDecorator>::ms_kPool'', COMDAT
  00000	55		 push	 ebp
  00001	8b ec		 mov	 ebp, esp
  00003	b9 00 00 00 00	 mov	 ecx, OFFSET ?ms_kPool@?$CPooledObject@VCTextureAnimationCWDecorator@NEffectUpdateDecorator@@@@1V?$CDynamicPoolEx@VCTextureAnimationCWDecorator@NEffectUpdateDecorator@@@@A ; CPooledObject<NEffectUpdateDecorator::CTextureAnimationCWDecorator>::ms_kPool
  00008	e8 00 00 00 00	 call	 ??1?$CDynamicPoolEx@VCTextureAnimationCWDecorator@NEffectUpdateDecorator@@@@UAE@XZ ; CDynamicPoolEx<NEffectUpdateDecorator::CTextureAnimationCWDecorator>::~CDynamicPoolEx<NEffectUpdateDecorator::CTextureAnimationCWDecorator>
  0000d	5d		 pop	 ebp
  0000e	c3		 ret	 0
??__F?ms_kPool@?$CPooledObject@VCTextureAnimationCWDecorator@NEffectUpdateDecorator@@@@1V?$CDynamicPoolEx@VCTextureAnimationCWDecorator@NEffectUpdateDecorator@@@@A@@YAXXZ ENDP ; `dynamic atexit destructor for 'CPooledObject<NEffectUpdateDecorator::CTextureAnimationCWDecorator>::ms_kPool''
text$yd	ENDS
; Function compile flags: /Odspy
; File D:\Metin2 Server Files\mainline\SRC_2014\Metin2Client\eterLib\Pool.h
;	COMDAT ??__E?ms_kPool@?$CPooledObject@VCTextureAnimationCWDecorator@NEffectUpdateDecorator@@@@1V?$CDynamicPoolEx@VCTextureAnimationCWDecorator@NEffectUpdateDecorator@@@@A@@YAXXZ
text$di	SEGMENT
??__E?ms_kPool@?$CPooledObject@VCTextureAnimationCWDecorator@NEffectUpdateDecorator@@@@1V?$CDynamicPoolEx@VCTextureAnimationCWDecorator@NEffectUpdateDecorator@@@@A@@YAXXZ PROC ; `dynamic initializer for 'CPooledObject<NEffectUpdateDecorator::CTextureAnimationCWDecorator>::ms_kPool'', COMDAT

; 272  : template <class T> CDynamicPoolEx<T> CPooledObject<T>::ms_kPool;

  00000	55		 push	 ebp
  00001	8b ec		 mov	 ebp, esp
  00003	b9 00 00 00 00	 mov	 ecx, OFFSET ?ms_kPool@?$CPooledObject@VCTextureAnimationCWDecorator@NEffectUpdateDecorator@@@@1V?$CDynamicPoolEx@VCTextureAnimationCWDecorator@NEffectUpdateDecorator@@@@A ; CPooledObject<NEffectUpdateDecorator::CTextureAnimationCWDecorator>::ms_kPool
  00008	e8 00 00 00 00	 call	 ??0?$CDynamicPoolEx@VCTextureAnimationCWDecorator@NEffectUpdateDecorator@@@@QAE@XZ ; CDynamicPoolEx<NEffectUpdateDecorator::CTextureAnimationCWDecorator>::CDynamicPoolEx<NEffectUpdateDecorator::CTextureAnimationCWDecorator>
  0000d	68 00 00 00 00	 push	 OFFSET ??__F?ms_kPool@?$CPooledObject@VCTextureAnimationCWDecorator@NEffectUpdateDecorator@@@@1V?$CDynamicPoolEx@VCTextureAnimationCWDecorator@NEffectUpdateDecorator@@@@A@@YAXXZ ; `dynamic atexit destructor for 'CPooledObject<NEffectUpdateDecorator::CTextureAnimationCWDecorator>::ms_kPool''
  00012	e8 00 00 00 00	 call	 _atexit
  00017	59		 pop	 ecx
  00018	5d		 pop	 ebp
  00019	c3		 ret	 0
??__E?ms_kPool@?$CPooledObject@VCTextureAnimationCWDecorator@NEffectUpdateDecorator@@@@1V?$CDynamicPoolEx@VCTextureAnimationCWDecorator@NEffectUpdateDecorator@@@@A@@YAXXZ ENDP ; `dynamic initializer for 'CPooledObject<NEffectUpdateDecorator::CTextureAnimationCWDecorator>::ms_kPool''
text$di	ENDS
; Function compile flags: /Odspy
;	COMDAT ??__F?ms_kPool@?$CPooledObject@VCNullDecorator@NEffectUpdateDecorator@@@@1V?$CDynamicPoolEx@VCNullDecorator@NEffectUpdateDecorator@@@@A@@YAXXZ
text$yd	SEGMENT
??__F?ms_kPool@?$CPooledObject@VCNullDecorator@NEffectUpdateDecorator@@@@1V?$CDynamicPoolEx@VCNullDecorator@NEffectUpdateDecorator@@@@A@@YAXXZ PROC ; `dynamic atexit destructor for 'CPooledObject<NEffectUpdateDecorator::CNullDecorator>::ms_kPool'', COMDAT
  00000	55		 push	 ebp
  00001	8b ec		 mov	 ebp, esp
  00003	b9 00 00 00 00	 mov	 ecx, OFFSET ?ms_kPool@?$CPooledObject@VCNullDecorator@NEffectUpdateDecorator@@@@1V?$CDynamicPoolEx@VCNullDecorator@NEffectUpdateDecorator@@@@A ; CPooledObject<NEffectUpdateDecorator::CNullDecorator>::ms_kPool
  00008	e8 00 00 00 00	 call	 ??1?$CDynamicPoolEx@VCNullDecorator@NEffectUpdateDecorator@@@@UAE@XZ ; CDynamicPoolEx<NEffectUpdateDecorator::CNullDecorator>::~CDynamicPoolEx<NEffectUpdateDecorator::CNullDecorator>
  0000d	5d		 pop	 ebp
  0000e	c3		 ret	 0
??__F?ms_kPool@?$CPooledObject@VCNullDecorator@NEffectUpdateDecorator@@@@1V?$CDynamicPoolEx@VCNullDecorator@NEffectUpdateDecorator@@@@A@@YAXXZ ENDP ; `dynamic atexit destructor for 'CPooledObject<NEffectUpdateDecorator::CNullDecorator>::ms_kPool''
text$yd	ENDS
; Function compile flags: /Odspy
; File D:\Metin2 Server Files\mainline\SRC_2014\Metin2Client\eterLib\Pool.h
;	COMDAT ??__E?ms_kPool@?$CPooledObject@VCNullDecorator@NEffectUpdateDecorator@@@@1V?$CDynamicPoolEx@VCNullDecorator@NEffectUpdateDecorator@@@@A@@YAXXZ
text$di	SEGMENT
??__E?ms_kPool@?$CPooledObject@VCNullDecorator@NEffectUpdateDecorator@@@@1V?$CDynamicPoolEx@VCNullDecorator@NEffectUpdateDecorator@@@@A@@YAXXZ PROC ; `dynamic initializer for 'CPooledObject<NEffectUpdateDecorator::CNullDecorator>::ms_kPool'', COMDAT

; 272  : template <class T> CDynamicPoolEx<T> CPooledObject<T>::ms_kPool;

  00000	55		 push	 ebp
  00001	8b ec		 mov	 ebp, esp
  00003	b9 00 00 00 00	 mov	 ecx, OFFSET ?ms_kPool@?$CPooledObject@VCNullDecorator@NEffectUpdateDecorator@@@@1V?$CDynamicPoolEx@VCNullDecorator@NEffectUpdateDecorator@@@@A ; CPooledObject<NEffectUpdateDecorator::CNullDecorator>::ms_kPool
  00008	e8 00 00 00 00	 call	 ??0?$CDynamicPoolEx@VCNullDecorator@NEffectUpdateDecorator@@@@QAE@XZ ; CDynamicPoolEx<NEffectUpdateDecorator::CNullDecorator>::CDynamicPoolEx<NEffectUpdateDecorator::CNullDecorator>
  0000d	68 00 00 00 00	 push	 OFFSET ??__F?ms_kPool@?$CPooledObject@VCNullDecorator@NEffectUpdateDecorator@@@@1V?$CDynamicPoolEx@VCNullDecorator@NEffectUpdateDecorator@@@@A@@YAXXZ ; `dynamic atexit destructor for 'CPooledObject<NEffectUpdateDecorator::CNullDecorator>::ms_kPool''
  00012	e8 00 00 00 00	 call	 _atexit
  00017	59		 pop	 ecx
  00018	5d		 pop	 ebp
  00019	c3		 ret	 0
??__E?ms_kPool@?$CPooledObject@VCNullDecorator@NEffectUpdateDecorator@@@@1V?$CDynamicPoolEx@VCNullDecorator@NEffectUpdateDecorator@@@@A@@YAXXZ ENDP ; `dynamic initializer for 'CPooledObject<NEffectUpdateDecorator::CNullDecorator>::ms_kPool''
text$di	ENDS
; Function compile flags: /Odspy
;	COMDAT ??__F?ms_kPool@?$CPooledObject@VCHeaderDecorator@NEffectUpdateDecorator@@@@1V?$CDynamicPoolEx@VCHeaderDecorator@NEffectUpdateDecorator@@@@A@@YAXXZ
text$yd	SEGMENT
??__F?ms_kPool@?$CPooledObject@VCHeaderDecorator@NEffectUpdateDecorator@@@@1V?$CDynamicPoolEx@VCHeaderDecorator@NEffectUpdateDecorator@@@@A@@YAXXZ PROC ; `dynamic atexit destructor for 'CPooledObject<NEffectUpdateDecorator::CHeaderDecorator>::ms_kPool'', COMDAT
  00000	55		 push	 ebp
  00001	8b ec		 mov	 ebp, esp
  00003	b9 00 00 00 00	 mov	 ecx, OFFSET ?ms_kPool@?$CPooledObject@VCHeaderDecorator@NEffectUpdateDecorator@@@@1V?$CDynamicPoolEx@VCHeaderDecorator@NEffectUpdateDecorator@@@@A ; CPooledObject<NEffectUpdateDecorator::CHeaderDecorator>::ms_kPool
  00008	e8 00 00 00 00	 call	 ??1?$CDynamicPoolEx@VCHeaderDecorator@NEffectUpdateDecorator@@@@UAE@XZ ; CDynamicPoolEx<NEffectUpdateDecorator::CHeaderDecorator>::~CDynamicPoolEx<NEffectUpdateDecorator::CHeaderDecorator>
  0000d	5d		 pop	 ebp
  0000e	c3		 ret	 0
??__F?ms_kPool@?$CPooledObject@VCHeaderDecorator@NEffectUpdateDecorator@@@@1V?$CDynamicPoolEx@VCHeaderDecorator@NEffectUpdateDecorator@@@@A@@YAXXZ ENDP ; `dynamic atexit destructor for 'CPooledObject<NEffectUpdateDecorator::CHeaderDecorator>::ms_kPool''
text$yd	ENDS
; Function compile flags: /Odspy
; File D:\Metin2 Server Files\mainline\SRC_2014\Metin2Client\eterLib\Pool.h
;	COMDAT ??__E?ms_kPool@?$CPooledObject@VCHeaderDecorator@NEffectUpdateDecorator@@@@1V?$CDynamicPoolEx@VCHeaderDecorator@NEffectUpdateDecorator@@@@A@@YAXXZ
text$di	SEGMENT
??__E?ms_kPool@?$CPooledObject@VCHeaderDecorator@NEffectUpdateDecorator@@@@1V?$CDynamicPoolEx@VCHeaderDecorator@NEffectUpdateDecorator@@@@A@@YAXXZ PROC ; `dynamic initializer for 'CPooledObject<NEffectUpdateDecorator::CHeaderDecorator>::ms_kPool'', COMDAT

; 272  : template <class T> CDynamicPoolEx<T> CPooledObject<T>::ms_kPool;

  00000	55		 push	 ebp
  00001	8b ec		 mov	 ebp, esp
  00003	b9 00 00 00 00	 mov	 ecx, OFFSET ?ms_kPool@?$CPooledObject@VCHeaderDecorator@NEffectUpdateDecorator@@@@1V?$CDynamicPoolEx@VCHeaderDecorator@NEffectUpdateDecorator@@@@A ; CPooledObject<NEffectUpdateDecorator::CHeaderDecorator>::ms_kPool
  00008	e8 00 00 00 00	 call	 ??0?$CDynamicPoolEx@VCHeaderDecorator@NEffectUpdateDecorator@@@@QAE@XZ ; CDynamicPoolEx<NEffectUpdateDecorator::CHeaderDecorator>::CDynamicPoolEx<NEffectUpdateDecorator::CHeaderDecorator>
  0000d	68 00 00 00 00	 push	 OFFSET ??__F?ms_kPool@?$CPooledObject@VCHeaderDecorator@NEffectUpdateDecorator@@@@1V?$CDynamicPoolEx@VCHeaderDecorator@NEffectUpdateDecorator@@@@A@@YAXXZ ; `dynamic atexit destructor for 'CPooledObject<NEffectUpdateDecorator::CHeaderDecorator>::ms_kPool''
  00012	e8 00 00 00 00	 call	 _atexit
  00017	59		 pop	 ecx
  00018	5d		 pop	 ebp
  00019	c3		 ret	 0
??__E?ms_kPool@?$CPooledObject@VCHeaderDecorator@NEffectUpdateDecorator@@@@1V?$CDynamicPoolEx@VCHeaderDecorator@NEffectUpdateDecorator@@@@A@@YAXXZ ENDP ; `dynamic initializer for 'CPooledObject<NEffectUpdateDecorator::CHeaderDecorator>::ms_kPool''
text$di	ENDS
; Function compile flags: /Odspy
; File C:\Program Files (x86)\Microsoft Visual Studio\2019\Community\VC\Tools\MSVC\14.28.29333\include\xmemory
;	COMDAT ??$_Destroy_range@V?$allocator@PAVCRotationDecorator@NEffectUpdateDecorator@@@std@@@std@@YAXPAPAVCRotationDecorator@NEffectUpdateDecorator@@QAPAV12@AAV?$allocator@PAVCRotationDecorator@NEffectUpdateDecorator@@@0@@Z
_TEXT	SEGMENT
__First$ = 8						; size = 4
__Last$ = 12						; size = 4
__Al$ = 16						; size = 4
??$_Destroy_range@V?$allocator@PAVCRotationDecorator@NEffectUpdateDecorator@@@std@@@std@@YAXPAPAVCRotationDecorator@NEffectUpdateDecorator@@QAPAV12@AAV?$allocator@PAVCRotationDecorator@NEffectUpdateDecorator@@@0@@Z PROC ; std::_Destroy_range<std::allocator<NEffectUpdateDecorator::CRotationDecorator *> >, COMDAT

; 962  :     _Alloc_ptr_t<_Alloc> _First, const _Alloc_ptr_t<_Alloc> _Last, _Alloc& _Al) noexcept {

  00000	55		 push	 ebp
  00001	8b ec		 mov	 ebp, esp

; 963  :     // note that this is an optimization for debug mode codegen; in release mode the BE removes all of this
; 964  :     using _Ty = typename _Alloc::value_type;
; 965  :     if _CONSTEXPR_IF (!conjunction_v<is_trivially_destructible<_Ty>, _Uses_default_destroy<_Alloc, _Ty*>>) {
; 966  :         for (; _First != _Last; ++_First) {
; 967  :             allocator_traits<_Alloc>::destroy(_Al, _Unfancy(_First));
; 968  :         }
; 969  :     }
; 970  : }

  00003	5d		 pop	 ebp
  00004	c3		 ret	 0
??$_Destroy_range@V?$allocator@PAVCRotationDecorator@NEffectUpdateDecorator@@@std@@@std@@YAXPAPAVCRotationDecorator@NEffectUpdateDecorator@@QAPAV12@AAV?$allocator@PAVCRotationDecorator@NEffectUpdateDecorator@@@0@@Z ENDP ; std::_Destroy_range<std::allocator<NEffectUpdateDecorator::CRotationDecorator *> >
_TEXT	ENDS
; Function compile flags: /Odspy
; File C:\Program Files (x86)\Microsoft Visual Studio\2019\Community\VC\Tools\MSVC\14.28.29333\include\xmemory
;	COMDAT ??$_Destroy_range@V?$allocator@PAVCGravityDecorator@NEffectUpdateDecorator@@@std@@@std@@YAXPAPAVCGravityDecorator@NEffectUpdateDecorator@@QAPAV12@AAV?$allocator@PAVCGravityDecorator@NEffectUpdateDecorator@@@0@@Z
_TEXT	SEGMENT
__First$ = 8						; size = 4
__Last$ = 12						; size = 4
__Al$ = 16						; size = 4
??$_Destroy_range@V?$allocator@PAVCGravityDecorator@NEffectUpdateDecorator@@@std@@@std@@YAXPAPAVCGravityDecorator@NEffectUpdateDecorator@@QAPAV12@AAV?$allocator@PAVCGravityDecorator@NEffectUpdateDecorator@@@0@@Z PROC ; std::_Destroy_range<std::allocator<NEffectUpdateDecorator::CGravityDecorator *> >, COMDAT

; 962  :     _Alloc_ptr_t<_Alloc> _First, const _Alloc_ptr_t<_Alloc> _Last, _Alloc& _Al) noexcept {

  00000	55		 push	 ebp
  00001	8b ec		 mov	 ebp, esp

; 963  :     // note that this is an optimization for debug mode codegen; in release mode the BE removes all of this
; 964  :     using _Ty = typename _Alloc::value_type;
; 965  :     if _CONSTEXPR_IF (!conjunction_v<is_trivially_destructible<_Ty>, _Uses_default_destroy<_Alloc, _Ty*>>) {
; 966  :         for (; _First != _Last; ++_First) {
; 967  :             allocator_traits<_Alloc>::destroy(_Al, _Unfancy(_First));
; 968  :         }
; 969  :     }
; 970  : }

  00003	5d		 pop	 ebp
  00004	c3		 ret	 0
??$_Destroy_range@V?$allocator@PAVCGravityDecorator@NEffectUpdateDecorator@@@std@@@std@@YAXPAPAVCGravityDecorator@NEffectUpdateDecorator@@QAPAV12@AAV?$allocator@PAVCGravityDecorator@NEffectUpdateDecorator@@@0@@Z ENDP ; std::_Destroy_range<std::allocator<NEffectUpdateDecorator::CGravityDecorator *> >
_TEXT	ENDS
; Function compile flags: /Odspy
; File C:\Program Files (x86)\Microsoft Visual Studio\2019\Community\VC\Tools\MSVC\14.28.29333\include\xmemory
;	COMDAT ??$_Destroy_range@V?$allocator@PAVCAirResistanceDecorator@NEffectUpdateDecorator@@@std@@@std@@YAXPAPAVCAirResistanceDecorator@NEffectUpdateDecorator@@QAPAV12@AAV?$allocator@PAVCAirResistanceDecorator@NEffectUpdateDecorator@@@0@@Z
_TEXT	SEGMENT
__First$ = 8						; size = 4
__Last$ = 12						; size = 4
__Al$ = 16						; size = 4
??$_Destroy_range@V?$allocator@PAVCAirResistanceDecorator@NEffectUpdateDecorator@@@std@@@std@@YAXPAPAVCAirResistanceDecorator@NEffectUpdateDecorator@@QAPAV12@AAV?$allocator@PAVCAirResistanceDecorator@NEffectUpdateDecorator@@@0@@Z PROC ; std::_Destroy_range<std::allocator<NEffectUpdateDecorator::CAirResistanceDecorator *> >, COMDAT

; 962  :     _Alloc_ptr_t<_Alloc> _First, const _Alloc_ptr_t<_Alloc> _Last, _Alloc& _Al) noexcept {

  00000	55		 push	 ebp
  00001	8b ec		 mov	 ebp, esp

; 963  :     // note that this is an optimization for debug mode codegen; in release mode the BE removes all of this
; 964  :     using _Ty = typename _Alloc::value_type;
; 965  :     if _CONSTEXPR_IF (!conjunction_v<is_trivially_destructible<_Ty>, _Uses_default_destroy<_Alloc, _Ty*>>) {
; 966  :         for (; _First != _Last; ++_First) {
; 967  :             allocator_traits<_Alloc>::destroy(_Al, _Unfancy(_First));
; 968  :         }
; 969  :     }
; 970  : }

  00003	5d		 pop	 ebp
  00004	c3		 ret	 0
??$_Destroy_range@V?$allocator@PAVCAirResistanceDecorator@NEffectUpdateDecorator@@@std@@@std@@YAXPAPAVCAirResistanceDecorator@NEffectUpdateDecorator@@QAPAV12@AAV?$allocator@PAVCAirResistanceDecorator@NEffectUpdateDecorator@@@0@@Z ENDP ; std::_Destroy_range<std::allocator<NEffectUpdateDecorator::CAirResistanceDecorator *> >
_TEXT	ENDS
; Function compile flags: /Odspy
; File C:\Program Files (x86)\Microsoft Visual Studio\2019\Community\VC\Tools\MSVC\14.28.29333\include\xmemory
;	COMDAT ??$_Destroy_range@V?$allocator@PAVCTextureAnimationRandomDecorator@NEffectUpdateDecorator@@@std@@@std@@YAXPAPAVCTextureAnimationRandomDecorator@NEffectUpdateDecorator@@QAPAV12@AAV?$allocator@PAVCTextureAnimationRandomDecorator@NEffectUpdateDecorator@@@0@@Z
_TEXT	SEGMENT
__First$ = 8						; size = 4
__Last$ = 12						; size = 4
__Al$ = 16						; size = 4
??$_Destroy_range@V?$allocator@PAVCTextureAnimationRandomDecorator@NEffectUpdateDecorator@@@std@@@std@@YAXPAPAVCTextureAnimationRandomDecorator@NEffectUpdateDecorator@@QAPAV12@AAV?$allocator@PAVCTextureAnimationRandomDecorator@NEffectUpdateDecorator@@@0@@Z PROC ; std::_Destroy_range<std::allocator<NEffectUpdateDecorator::CTextureAnimationRandomDecorator *> >, COMDAT

; 962  :     _Alloc_ptr_t<_Alloc> _First, const _Alloc_ptr_t<_Alloc> _Last, _Alloc& _Al) noexcept {

  00000	55		 push	 ebp
  00001	8b ec		 mov	 ebp, esp

; 963  :     // note that this is an optimization for debug mode codegen; in release mode the BE removes all of this
; 964  :     using _Ty = typename _Alloc::value_type;
; 965  :     if _CONSTEXPR_IF (!conjunction_v<is_trivially_destructible<_Ty>, _Uses_default_destroy<_Alloc, _Ty*>>) {
; 966  :         for (; _First != _Last; ++_First) {
; 967  :             allocator_traits<_Alloc>::destroy(_Al, _Unfancy(_First));
; 968  :         }
; 969  :     }
; 970  : }

  00003	5d		 pop	 ebp
  00004	c3		 ret	 0
??$_Destroy_range@V?$allocator@PAVCTextureAnimationRandomDecorator@NEffectUpdateDecorator@@@std@@@std@@YAXPAPAVCTextureAnimationRandomDecorator@NEffectUpdateDecorator@@QAPAV12@AAV?$allocator@PAVCTextureAnimationRandomDecorator@NEffectUpdateDecorator@@@0@@Z ENDP ; std::_Destroy_range<std::allocator<NEffectUpdateDecorator::CTextureAnimationRandomDecorator *> >
_TEXT	ENDS
; Function compile flags: /Odspy
; File C:\Program Files (x86)\Microsoft Visual Studio\2019\Community\VC\Tools\MSVC\14.28.29333\include\xmemory
;	COMDAT ??$_Destroy_range@V?$allocator@PAVCTextureAnimationCCWDecorator@NEffectUpdateDecorator@@@std@@@std@@YAXPAPAVCTextureAnimationCCWDecorator@NEffectUpdateDecorator@@QAPAV12@AAV?$allocator@PAVCTextureAnimationCCWDecorator@NEffectUpdateDecorator@@@0@@Z
_TEXT	SEGMENT
__First$ = 8						; size = 4
__Last$ = 12						; size = 4
__Al$ = 16						; size = 4
??$_Destroy_range@V?$allocator@PAVCTextureAnimationCCWDecorator@NEffectUpdateDecorator@@@std@@@std@@YAXPAPAVCTextureAnimationCCWDecorator@NEffectUpdateDecorator@@QAPAV12@AAV?$allocator@PAVCTextureAnimationCCWDecorator@NEffectUpdateDecorator@@@0@@Z PROC ; std::_Destroy_range<std::allocator<NEffectUpdateDecorator::CTextureAnimationCCWDecorator *> >, COMDAT

; 962  :     _Alloc_ptr_t<_Alloc> _First, const _Alloc_ptr_t<_Alloc> _Last, _Alloc& _Al) noexcept {

  00000	55		 push	 ebp
  00001	8b ec		 mov	 ebp, esp

; 963  :     // note that this is an optimization for debug mode codegen; in release mode the BE removes all of this
; 964  :     using _Ty = typename _Alloc::value_type;
; 965  :     if _CONSTEXPR_IF (!conjunction_v<is_trivially_destructible<_Ty>, _Uses_default_destroy<_Alloc, _Ty*>>) {
; 966  :         for (; _First != _Last; ++_First) {
; 967  :             allocator_traits<_Alloc>::destroy(_Al, _Unfancy(_First));
; 968  :         }
; 969  :     }
; 970  : }

  00003	5d		 pop	 ebp
  00004	c3		 ret	 0
??$_Destroy_range@V?$allocator@PAVCTextureAnimationCCWDecorator@NEffectUpdateDecorator@@@std@@@std@@YAXPAPAVCTextureAnimationCCWDecorator@NEffectUpdateDecorator@@QAPAV12@AAV?$allocator@PAVCTextureAnimationCCWDecorator@NEffectUpdateDecorator@@@0@@Z ENDP ; std::_Destroy_range<std::allocator<NEffectUpdateDecorator::CTextureAnimationCCWDecorator *> >
_TEXT	ENDS
; Function compile flags: /Odspy
; File C:\Program Files (x86)\Microsoft Visual Studio\2019\Community\VC\Tools\MSVC\14.28.29333\include\xmemory
;	COMDAT ??$_Destroy_range@V?$allocator@PAVCTextureAnimationCWDecorator@NEffectUpdateDecorator@@@std@@@std@@YAXPAPAVCTextureAnimationCWDecorator@NEffectUpdateDecorator@@QAPAV12@AAV?$allocator@PAVCTextureAnimationCWDecorator@NEffectUpdateDecorator@@@0@@Z
_TEXT	SEGMENT
__First$ = 8						; size = 4
__Last$ = 12						; size = 4
__Al$ = 16						; size = 4
??$_Destroy_range@V?$allocator@PAVCTextureAnimationCWDecorator@NEffectUpdateDecorator@@@std@@@std@@YAXPAPAVCTextureAnimationCWDecorator@NEffectUpdateDecorator@@QAPAV12@AAV?$allocator@PAVCTextureAnimationCWDecorator@NEffectUpdateDecorator@@@0@@Z PROC ; std::_Destroy_range<std::allocator<NEffectUpdateDecorator::CTextureAnimationCWDecorator *> >, COMDAT

; 962  :     _Alloc_ptr_t<_Alloc> _First, const _Alloc_ptr_t<_Alloc> _Last, _Alloc& _Al) noexcept {

  00000	55		 push	 ebp
  00001	8b ec		 mov	 ebp, esp

; 963  :     // note that this is an optimization for debug mode codegen; in release mode the BE removes all of this
; 964  :     using _Ty = typename _Alloc::value_type;
; 965  :     if _CONSTEXPR_IF (!conjunction_v<is_trivially_destructible<_Ty>, _Uses_default_destroy<_Alloc, _Ty*>>) {
; 966  :         for (; _First != _Last; ++_First) {
; 967  :             allocator_traits<_Alloc>::destroy(_Al, _Unfancy(_First));
; 968  :         }
; 969  :     }
; 970  : }

  00003	5d		 pop	 ebp
  00004	c3		 ret	 0
??$_Destroy_range@V?$allocator@PAVCTextureAnimationCWDecorator@NEffectUpdateDecorator@@@std@@@std@@YAXPAPAVCTextureAnimationCWDecorator@NEffectUpdateDecorator@@QAPAV12@AAV?$allocator@PAVCTextureAnimationCWDecorator@NEffectUpdateDecorator@@@0@@Z ENDP ; std::_Destroy_range<std::allocator<NEffectUpdateDecorator::CTextureAnimationCWDecorator *> >
_TEXT	ENDS
; Function compile flags: /Odspy
; File C:\Program Files (x86)\Microsoft Visual Studio\2019\Community\VC\Tools\MSVC\14.28.29333\include\xmemory
;	COMDAT ??$_Destroy_range@V?$allocator@PAVCNullDecorator@NEffectUpdateDecorator@@@std@@@std@@YAXPAPAVCNullDecorator@NEffectUpdateDecorator@@QAPAV12@AAV?$allocator@PAVCNullDecorator@NEffectUpdateDecorator@@@0@@Z
_TEXT	SEGMENT
__First$ = 8						; size = 4
__Last$ = 12						; size = 4
__Al$ = 16						; size = 4
??$_Destroy_range@V?$allocator@PAVCNullDecorator@NEffectUpdateDecorator@@@std@@@std@@YAXPAPAVCNullDecorator@NEffectUpdateDecorator@@QAPAV12@AAV?$allocator@PAVCNullDecorator@NEffectUpdateDecorator@@@0@@Z PROC ; std::_Destroy_range<std::allocator<NEffectUpdateDecorator::CNullDecorator *> >, COMDAT

; 962  :     _Alloc_ptr_t<_Alloc> _First, const _Alloc_ptr_t<_Alloc> _Last, _Alloc& _Al) noexcept {

  00000	55		 push	 ebp
  00001	8b ec		 mov	 ebp, esp

; 963  :     // note that this is an optimization for debug mode codegen; in release mode the BE removes all of this
; 964  :     using _Ty = typename _Alloc::value_type;
; 965  :     if _CONSTEXPR_IF (!conjunction_v<is_trivially_destructible<_Ty>, _Uses_default_destroy<_Alloc, _Ty*>>) {
; 966  :         for (; _First != _Last; ++_First) {
; 967  :             allocator_traits<_Alloc>::destroy(_Al, _Unfancy(_First));
; 968  :         }
; 969  :     }
; 970  : }

  00003	5d		 pop	 ebp
  00004	c3		 ret	 0
??$_Destroy_range@V?$allocator@PAVCNullDecorator@NEffectUpdateDecorator@@@std@@@std@@YAXPAPAVCNullDecorator@NEffectUpdateDecorator@@QAPAV12@AAV?$allocator@PAVCNullDecorator@NEffectUpdateDecorator@@@0@@Z ENDP ; std::_Destroy_range<std::allocator<NEffectUpdateDecorator::CNullDecorator *> >
_TEXT	ENDS
; Function compile flags: /Odspy
; File C:\Program Files (x86)\Microsoft Visual Studio\2019\Community\VC\Tools\MSVC\14.28.29333\include\xmemory
;	COMDAT ??$_Destroy_range@V?$allocator@PAVCHeaderDecorator@NEffectUpdateDecorator@@@std@@@std@@YAXPAPAVCHeaderDecorator@NEffectUpdateDecorator@@QAPAV12@AAV?$allocator@PAVCHeaderDecorator@NEffectUpdateDecorator@@@0@@Z
_TEXT	SEGMENT
__First$ = 8						; size = 4
__Last$ = 12						; size = 4
__Al$ = 16						; size = 4
??$_Destroy_range@V?$allocator@PAVCHeaderDecorator@NEffectUpdateDecorator@@@std@@@std@@YAXPAPAVCHeaderDecorator@NEffectUpdateDecorator@@QAPAV12@AAV?$allocator@PAVCHeaderDecorator@NEffectUpdateDecorator@@@0@@Z PROC ; std::_Destroy_range<std::allocator<NEffectUpdateDecorator::CHeaderDecorator *> >, COMDAT

; 962  :     _Alloc_ptr_t<_Alloc> _First, const _Alloc_ptr_t<_Alloc> _Last, _Alloc& _Al) noexcept {

  00000	55		 push	 ebp
  00001	8b ec		 mov	 ebp, esp

; 963  :     // note that this is an optimization for debug mode codegen; in release mode the BE removes all of this
; 964  :     using _Ty = typename _Alloc::value_type;
; 965  :     if _CONSTEXPR_IF (!conjunction_v<is_trivially_destructible<_Ty>, _Uses_default_destroy<_Alloc, _Ty*>>) {
; 966  :         for (; _First != _Last; ++_First) {
; 967  :             allocator_traits<_Alloc>::destroy(_Al, _Unfancy(_First));
; 968  :         }
; 969  :     }
; 970  : }

  00003	5d		 pop	 ebp
  00004	c3		 ret	 0
??$_Destroy_range@V?$allocator@PAVCHeaderDecorator@NEffectUpdateDecorator@@@std@@@std@@YAXPAPAVCHeaderDecorator@NEffectUpdateDecorator@@QAPAV12@AAV?$allocator@PAVCHeaderDecorator@NEffectUpdateDecorator@@@0@@Z ENDP ; std::_Destroy_range<std::allocator<NEffectUpdateDecorator::CHeaderDecorator *> >
_TEXT	ENDS
; Function compile flags: /Odspy
; File C:\Program Files (x86)\Microsoft Visual Studio\2019\Community\VC\Tools\MSVC\14.28.29333\include\xtree
; File C:\Program Files (x86)\Microsoft Visual Studio\2019\Community\VC\Tools\MSVC\14.28.29333\include\xmemory
; File C:\Program Files (x86)\Microsoft Visual Studio\2019\Community\VC\Tools\MSVC\14.28.29333\include\xtree
;	COMDAT ??$_Buyheadnode@V?$allocator@U?$_Tree_node@PAVIActorInstance@@PAX@std@@@std@@@?$_Tree_node@PAVIActorInstance@@PAX@std@@SAPAU01@AAV?$allocator@U?$_Tree_node@PAVIActorInstance@@PAX@std@@@1@@Z
_TEXT	SEGMENT
__Max_possible$1 = -20					; size = 4
$T2 = -16						; size = 4
$T3 = -12						; size = 4
__Pnode$ = -8						; size = 4
__Overflow_is_possible$4 = -1				; size = 1
__Al$ = 8						; size = 4
??$_Buyheadnode@V?$allocator@U?$_Tree_node@PAVIActorInstance@@PAX@std@@@std@@@?$_Tree_node@PAVIActorInstance@@PAX@std@@SAPAU01@AAV?$allocator@U?$_Tree_node@PAVIActorInstance@@PAX@std@@@1@@Z PROC ; std::_Tree_node<IActorInstance *,void *>::_Buyheadnode<std::allocator<std::_Tree_node<IActorInstance *,void *> > >, COMDAT

; 341  :     static _Nodeptr _Buyheadnode(_Alloc& _Al) {

  00000	55		 push	 ebp
  00001	8b ec		 mov	 ebp, esp
  00003	83 ec 14	 sub	 esp, 20			; 00000014H
; File C:\Program Files (x86)\Microsoft Visual Studio\2019\Community\VC\Tools\MSVC\14.28.29333\include\xmemory

; 56   :     constexpr bool _Overflow_is_possible = _Ty_size > 1;

  00006	c6 45 ff 01	 mov	 BYTE PTR __Overflow_is_possible$4[ebp], 1

; 57   : 
; 58   :     if _CONSTEXPR_IF (_Overflow_is_possible) {
; 59   :         constexpr size_t _Max_possible = static_cast<size_t>(-1) / _Ty_size;

  0000a	c7 45 ec cc cc
	cc 0c		 mov	 DWORD PTR __Max_possible$1[ebp], 214748364 ; 0cccccccH

; 60   :         if (_Count > _Max_possible) {

  00011	33 c0		 xor	 eax, eax
  00013	40		 inc	 eax
  00014	3d cc cc cc 0c	 cmp	 eax, 214748364		; 0cccccccH
  00019	76 05		 jbe	 SHORT $LN6@Buyheadnod

; 61   :             _Throw_bad_array_new_length(); // multiply overflow

  0001b	e8 00 00 00 00	 call	 ?_Throw_bad_array_new_length@std@@YAXXZ ; std::_Throw_bad_array_new_length
$LN6@Buyheadnod:

; 62   :         }
; 63   :     }
; 64   : 
; 65   :     return _Count * _Ty_size;

  00020	33 c0		 xor	 eax, eax
  00022	40		 inc	 eax
  00023	6b c0 14	 imul	 eax, eax, 20
  00026	89 45 f4	 mov	 DWORD PTR $T3[ebp], eax

; 814  :         return static_cast<_Ty*>(_Allocate<_New_alignof<_Ty>>(_Get_size_of_n<sizeof(_Ty)>(_Count)));

  00029	ff 75 f4	 push	 DWORD PTR $T3[ebp]
  0002c	e8 00 00 00 00	 call	 ??$_Allocate@$07U_Default_allocate_traits@std@@$0A@@std@@YAPAXI@Z ; std::_Allocate<8,std::_Default_allocate_traits,0>
  00031	59		 pop	 ecx
  00032	89 45 f0	 mov	 DWORD PTR $T2[ebp], eax
; File C:\Program Files (x86)\Microsoft Visual Studio\2019\Community\VC\Tools\MSVC\14.28.29333\include\xtree

; 343  :         const auto _Pnode = _Al.allocate(1);

  00035	8b 45 f0	 mov	 eax, DWORD PTR $T2[ebp]
  00038	89 45 f8	 mov	 DWORD PTR __Pnode$[ebp], eax

; 344  :         _Construct_in_place(_Pnode->_Left, _Pnode);

  0003b	8d 45 f8	 lea	 eax, DWORD PTR __Pnode$[ebp]
  0003e	50		 push	 eax
  0003f	ff 75 f8	 push	 DWORD PTR __Pnode$[ebp]
  00042	e8 00 00 00 00	 call	 ??$_Construct_in_place@PAU?$_Tree_node@PAVIActorInstance@@PAX@std@@ABQAU12@@std@@YAXAAPAU?$_Tree_node@PAVIActorInstance@@PAX@0@ABQAU10@@Z ; std::_Construct_in_place<std::_Tree_node<IActorInstance *,void *> *,std::_Tree_node<IActorInstance *,void *> * const &>
  00047	59		 pop	 ecx
  00048	59		 pop	 ecx

; 345  :         _Construct_in_place(_Pnode->_Parent, _Pnode);

  00049	8d 45 f8	 lea	 eax, DWORD PTR __Pnode$[ebp]
  0004c	50		 push	 eax
  0004d	8b 45 f8	 mov	 eax, DWORD PTR __Pnode$[ebp]
  00050	83 c0 04	 add	 eax, 4
  00053	50		 push	 eax
  00054	e8 00 00 00 00	 call	 ??$_Construct_in_place@PAU?$_Tree_node@PAVIActorInstance@@PAX@std@@ABQAU12@@std@@YAXAAPAU?$_Tree_node@PAVIActorInstance@@PAX@0@ABQAU10@@Z ; std::_Construct_in_place<std::_Tree_node<IActorInstance *,void *> *,std::_Tree_node<IActorInstance *,void *> * const &>
  00059	59		 pop	 ecx
  0005a	59		 pop	 ecx

; 346  :         _Construct_in_place(_Pnode->_Right, _Pnode);

  0005b	8d 45 f8	 lea	 eax, DWORD PTR __Pnode$[ebp]
  0005e	50		 push	 eax
  0005f	8b 45 f8	 mov	 eax, DWORD PTR __Pnode$[ebp]
  00062	83 c0 08	 add	 eax, 8
  00065	50		 push	 eax
  00066	e8 00 00 00 00	 call	 ??$_Construct_in_place@PAU?$_Tree_node@PAVIActorInstance@@PAX@std@@ABQAU12@@std@@YAXAAPAU?$_Tree_node@PAVIActorInstance@@PAX@0@ABQAU10@@Z ; std::_Construct_in_place<std::_Tree_node<IActorInstance *,void *> *,std::_Tree_node<IActorInstance *,void *> * const &>
  0006b	59		 pop	 ecx
  0006c	59		 pop	 ecx

; 347  :         _Pnode->_Color = _Black;

  0006d	8b 45 f8	 mov	 eax, DWORD PTR __Pnode$[ebp]
  00070	c6 40 0c 01	 mov	 BYTE PTR [eax+12], 1

; 348  :         _Pnode->_Isnil = true;

  00074	8b 45 f8	 mov	 eax, DWORD PTR __Pnode$[ebp]
  00077	c6 40 0d 01	 mov	 BYTE PTR [eax+13], 1

; 349  :         return _Pnode;

  0007b	8b 45 f8	 mov	 eax, DWORD PTR __Pnode$[ebp]
$LN9@Buyheadnod:

; 350  :     }

  0007e	c9		 leave
  0007f	c3		 ret	 0
??$_Buyheadnode@V?$allocator@U?$_Tree_node@PAVIActorInstance@@PAX@std@@@std@@@?$_Tree_node@PAVIActorInstance@@PAX@std@@SAPAU01@AAV?$allocator@U?$_Tree_node@PAVIActorInstance@@PAX@std@@@1@@Z ENDP ; std::_Tree_node<IActorInstance *,void *>::_Buyheadnode<std::allocator<std::_Tree_node<IActorInstance *,void *> > >
_TEXT	ENDS
; Function compile flags: /Odspy
; File C:\Program Files (x86)\Microsoft Visual Studio\2019\Community\VC\Tools\MSVC\14.28.29333\include\xmemory
;	COMDAT ??$_Destroy_range@V?$allocator@PAVCFlyingInstance@@@std@@@std@@YAXPAPAVCFlyingInstance@@QAPAV1@AAV?$allocator@PAVCFlyingInstance@@@0@@Z
_TEXT	SEGMENT
__First$ = 8						; size = 4
__Last$ = 12						; size = 4
__Al$ = 16						; size = 4
??$_Destroy_range@V?$allocator@PAVCFlyingInstance@@@std@@@std@@YAXPAPAVCFlyingInstance@@QAPAV1@AAV?$allocator@PAVCFlyingInstance@@@0@@Z PROC ; std::_Destroy_range<std::allocator<CFlyingInstance *> >, COMDAT

; 962  :     _Alloc_ptr_t<_Alloc> _First, const _Alloc_ptr_t<_Alloc> _Last, _Alloc& _Al) noexcept {

  00000	55		 push	 ebp
  00001	8b ec		 mov	 ebp, esp

; 963  :     // note that this is an optimization for debug mode codegen; in release mode the BE removes all of this
; 964  :     using _Ty = typename _Alloc::value_type;
; 965  :     if _CONSTEXPR_IF (!conjunction_v<is_trivially_destructible<_Ty>, _Uses_default_destroy<_Alloc, _Ty*>>) {
; 966  :         for (; _First != _Last; ++_First) {
; 967  :             allocator_traits<_Alloc>::destroy(_Al, _Unfancy(_First));
; 968  :         }
; 969  :     }
; 970  : }

  00003	5d		 pop	 ebp
  00004	c3		 ret	 0
??$_Destroy_range@V?$allocator@PAVCFlyingInstance@@@std@@@std@@YAXPAPAVCFlyingInstance@@QAPAV1@AAV?$allocator@PAVCFlyingInstance@@@0@@Z ENDP ; std::_Destroy_range<std::allocator<CFlyingInstance *> >
_TEXT	ENDS
; Function compile flags: /Odspy
; File C:\Program Files (x86)\Microsoft Visual Studio\2019\Community\VC\Tools\MSVC\14.28.29333\include\algorithm
; File C:\Program Files (x86)\Microsoft Visual Studio\2019\Community\VC\Tools\MSVC\14.28.29333\include\vector
; File C:\Program Files (x86)\Microsoft Visual Studio\2019\Community\VC\Tools\MSVC\14.28.29333\include\xstddef
; File C:\Program Files (x86)\Microsoft Visual Studio\2019\Community\VC\Tools\MSVC\14.28.29333\include\vector
; File C:\Program Files (x86)\Microsoft Visual Studio\2019\Community\VC\Tools\MSVC\14.28.29333\include\algorithm
; File C:\Program Files (x86)\Microsoft Visual Studio\2019\Community\VC\Tools\MSVC\14.28.29333\include\vector
; File C:\Program Files (x86)\Microsoft Visual Studio\2019\Community\VC\Tools\MSVC\14.28.29333\include\xstddef
; File C:\Program Files (x86)\Microsoft Visual Studio\2019\Community\VC\Tools\MSVC\14.28.29333\include\vector
; File C:\Program Files (x86)\Microsoft Visual Studio\2019\Community\VC\Tools\MSVC\14.28.29333\include\algorithm
;	COMDAT ??$for_each@V?$_Vector_iterator@V?$_Vector_val@U?$_Simple_types@PAVCRotationDecorator@NEffectUpdateDecorator@@@std@@@std@@@std@@P6AXPAVCRotationDecorator@NEffectUpdateDecorator@@@Z@std@@YAP6AXPAVCRotationDecorator@NEffectUpdateDecorator@@@ZV?$_Vector_iterator@V?$_Vector_val@U?$_Simple_types@PAVCRotationDecorator@NEffectUpdateDecorator@@@std@@@std@@@0@1P6AX0@Z@Z
_TEXT	SEGMENT
__ULast$ = -32						; size = 4
$T1 = -28						; size = 4
$T2 = -24						; size = 4
__Ptr$3 = -20						; size = 4
$T4 = -16						; size = 4
$T5 = -12						; size = 4
__Ptr$6 = -8						; size = 4
__UFirst$ = -4						; size = 4
__First$ = 8						; size = 4
__Last$ = 12						; size = 4
__Func$ = 16						; size = 4
??$for_each@V?$_Vector_iterator@V?$_Vector_val@U?$_Simple_types@PAVCRotationDecorator@NEffectUpdateDecorator@@@std@@@std@@@std@@P6AXPAVCRotationDecorator@NEffectUpdateDecorator@@@Z@std@@YAP6AXPAVCRotationDecorator@NEffectUpdateDecorator@@@ZV?$_Vector_iterator@V?$_Vector_val@U?$_Simple_types@PAVCRotationDecorator@NEffectUpdateDecorator@@@std@@@std@@@0@1P6AX0@Z@Z PROC ; std::for_each<std::_Vector_iterator<std::_Vector_val<std::_Simple_types<NEffectUpdateDecorator::CRotationDecorator *> > >,void (__cdecl*)(NEffectUpdateDecorator::CRotationDecorator *)>, COMDAT

; 303  : _CONSTEXPR20 _Fn for_each(_InIt _First, _InIt _Last, _Fn _Func) { // perform function for each element [_First, _Last)

  00000	55		 push	 ebp
  00001	8b ec		 mov	 ebp, esp
  00003	83 ec 20	 sub	 esp, 32			; 00000020H
; File C:\Program Files (x86)\Microsoft Visual Studio\2019\Community\VC\Tools\MSVC\14.28.29333\include\vector

; 310  :         return _Unfancy(this->_Ptr);

  00006	8b 45 08	 mov	 eax, DWORD PTR __First$[ebp]
  00009	89 45 f8	 mov	 DWORD PTR __Ptr$6[ebp], eax
; File C:\Program Files (x86)\Microsoft Visual Studio\2019\Community\VC\Tools\MSVC\14.28.29333\include\xstddef

; 289  :     return _Ptr;

  0000c	8b 45 f8	 mov	 eax, DWORD PTR __Ptr$6[ebp]
  0000f	89 45 f4	 mov	 DWORD PTR $T5[ebp], eax
; File C:\Program Files (x86)\Microsoft Visual Studio\2019\Community\VC\Tools\MSVC\14.28.29333\include\vector

; 310  :         return _Unfancy(this->_Ptr);

  00012	8b 45 f4	 mov	 eax, DWORD PTR $T5[ebp]
  00015	89 45 f0	 mov	 DWORD PTR $T4[ebp], eax
; File C:\Program Files (x86)\Microsoft Visual Studio\2019\Community\VC\Tools\MSVC\14.28.29333\include\algorithm

; 305  :     auto _UFirst      = _Get_unwrapped(_First);

  00018	8b 45 f0	 mov	 eax, DWORD PTR $T4[ebp]
  0001b	89 45 fc	 mov	 DWORD PTR __UFirst$[ebp], eax
; File C:\Program Files (x86)\Microsoft Visual Studio\2019\Community\VC\Tools\MSVC\14.28.29333\include\vector

; 310  :         return _Unfancy(this->_Ptr);

  0001e	8b 45 0c	 mov	 eax, DWORD PTR __Last$[ebp]
  00021	89 45 ec	 mov	 DWORD PTR __Ptr$3[ebp], eax
; File C:\Program Files (x86)\Microsoft Visual Studio\2019\Community\VC\Tools\MSVC\14.28.29333\include\xstddef

; 289  :     return _Ptr;

  00024	8b 45 ec	 mov	 eax, DWORD PTR __Ptr$3[ebp]
  00027	89 45 e8	 mov	 DWORD PTR $T2[ebp], eax
; File C:\Program Files (x86)\Microsoft Visual Studio\2019\Community\VC\Tools\MSVC\14.28.29333\include\vector

; 310  :         return _Unfancy(this->_Ptr);

  0002a	8b 45 e8	 mov	 eax, DWORD PTR $T2[ebp]
  0002d	89 45 e4	 mov	 DWORD PTR $T1[ebp], eax
; File C:\Program Files (x86)\Microsoft Visual Studio\2019\Community\VC\Tools\MSVC\14.28.29333\include\algorithm

; 306  :     const auto _ULast = _Get_unwrapped(_Last);

  00030	8b 45 e4	 mov	 eax, DWORD PTR $T1[ebp]
  00033	89 45 e0	 mov	 DWORD PTR __ULast$[ebp], eax

; 307  :     for (; _UFirst != _ULast; ++_UFirst) {

  00036	eb 09		 jmp	 SHORT $LN4@for_each
$LN2@for_each:
  00038	8b 45 fc	 mov	 eax, DWORD PTR __UFirst$[ebp]
  0003b	83 c0 04	 add	 eax, 4
  0003e	89 45 fc	 mov	 DWORD PTR __UFirst$[ebp], eax
$LN4@for_each:
  00041	8b 45 fc	 mov	 eax, DWORD PTR __UFirst$[ebp]
  00044	3b 45 e0	 cmp	 eax, DWORD PTR __ULast$[ebp]
  00047	74 0b		 je	 SHORT $LN3@for_each

; 308  :         _Func(*_UFirst);

  00049	8b 45 fc	 mov	 eax, DWORD PTR __UFirst$[ebp]
  0004c	ff 30		 push	 DWORD PTR [eax]
  0004e	ff 55 10	 call	 DWORD PTR __Func$[ebp]
  00051	59		 pop	 ecx

; 309  :     }

  00052	eb e4		 jmp	 SHORT $LN2@for_each
$LN3@for_each:

; 310  : 
; 311  :     return _Func;

  00054	8b 45 10	 mov	 eax, DWORD PTR __Func$[ebp]

; 312  : }

  00057	c9		 leave
  00058	c3		 ret	 0
??$for_each@V?$_Vector_iterator@V?$_Vector_val@U?$_Simple_types@PAVCRotationDecorator@NEffectUpdateDecorator@@@std@@@std@@@std@@P6AXPAVCRotationDecorator@NEffectUpdateDecorator@@@Z@std@@YAP6AXPAVCRotationDecorator@NEffectUpdateDecorator@@@ZV?$_Vector_iterator@V?$_Vector_val@U?$_Simple_types@PAVCRotationDecorator@NEffectUpdateDecorator@@@std@@@std@@@0@1P6AX0@Z@Z ENDP ; std::for_each<std::_Vector_iterator<std::_Vector_val<std::_Simple_types<NEffectUpdateDecorator::CRotationDecorator *> > >,void (__cdecl*)(NEffectUpdateDecorator::CRotationDecorator *)>
_TEXT	ENDS
; Function compile flags: /Odspy
; File C:\Program Files (x86)\Microsoft Visual Studio\2019\Community\VC\Tools\MSVC\14.28.29333\include\algorithm
; File C:\Program Files (x86)\Microsoft Visual Studio\2019\Community\VC\Tools\MSVC\14.28.29333\include\vector
; File C:\Program Files (x86)\Microsoft Visual Studio\2019\Community\VC\Tools\MSVC\14.28.29333\include\xstddef
; File C:\Program Files (x86)\Microsoft Visual Studio\2019\Community\VC\Tools\MSVC\14.28.29333\include\vector
; File C:\Program Files (x86)\Microsoft Visual Studio\2019\Community\VC\Tools\MSVC\14.28.29333\include\algorithm
; File C:\Program Files (x86)\Microsoft Visual Studio\2019\Community\VC\Tools\MSVC\14.28.29333\include\vector
; File C:\Program Files (x86)\Microsoft Visual Studio\2019\Community\VC\Tools\MSVC\14.28.29333\include\xstddef
; File C:\Program Files (x86)\Microsoft Visual Studio\2019\Community\VC\Tools\MSVC\14.28.29333\include\vector
; File C:\Program Files (x86)\Microsoft Visual Studio\2019\Community\VC\Tools\MSVC\14.28.29333\include\algorithm
;	COMDAT ??$for_each@V?$_Vector_iterator@V?$_Vector_val@U?$_Simple_types@PAVCGravityDecorator@NEffectUpdateDecorator@@@std@@@std@@@std@@P6AXPAVCGravityDecorator@NEffectUpdateDecorator@@@Z@std@@YAP6AXPAVCGravityDecorator@NEffectUpdateDecorator@@@ZV?$_Vector_iterator@V?$_Vector_val@U?$_Simple_types@PAVCGravityDecorator@NEffectUpdateDecorator@@@std@@@std@@@0@1P6AX0@Z@Z
_TEXT	SEGMENT
__ULast$ = -32						; size = 4
$T1 = -28						; size = 4
$T2 = -24						; size = 4
__Ptr$3 = -20						; size = 4
$T4 = -16						; size = 4
$T5 = -12						; size = 4
__Ptr$6 = -8						; size = 4
__UFirst$ = -4						; size = 4
__First$ = 8						; size = 4
__Last$ = 12						; size = 4
__Func$ = 16						; size = 4
??$for_each@V?$_Vector_iterator@V?$_Vector_val@U?$_Simple_types@PAVCGravityDecorator@NEffectUpdateDecorator@@@std@@@std@@@std@@P6AXPAVCGravityDecorator@NEffectUpdateDecorator@@@Z@std@@YAP6AXPAVCGravityDecorator@NEffectUpdateDecorator@@@ZV?$_Vector_iterator@V?$_Vector_val@U?$_Simple_types@PAVCGravityDecorator@NEffectUpdateDecorator@@@std@@@std@@@0@1P6AX0@Z@Z PROC ; std::for_each<std::_Vector_iterator<std::_Vector_val<std::_Simple_types<NEffectUpdateDecorator::CGravityDecorator *> > >,void (__cdecl*)(NEffectUpdateDecorator::CGravityDecorator *)>, COMDAT

; 303  : _CONSTEXPR20 _Fn for_each(_InIt _First, _InIt _Last, _Fn _Func) { // perform function for each element [_First, _Last)

  00000	55		 push	 ebp
  00001	8b ec		 mov	 ebp, esp
  00003	83 ec 20	 sub	 esp, 32			; 00000020H
; File C:\Program Files (x86)\Microsoft Visual Studio\2019\Community\VC\Tools\MSVC\14.28.29333\include\vector

; 310  :         return _Unfancy(this->_Ptr);

  00006	8b 45 08	 mov	 eax, DWORD PTR __First$[ebp]
  00009	89 45 f8	 mov	 DWORD PTR __Ptr$6[ebp], eax
; File C:\Program Files (x86)\Microsoft Visual Studio\2019\Community\VC\Tools\MSVC\14.28.29333\include\xstddef

; 289  :     return _Ptr;

  0000c	8b 45 f8	 mov	 eax, DWORD PTR __Ptr$6[ebp]
  0000f	89 45 f4	 mov	 DWORD PTR $T5[ebp], eax
; File C:\Program Files (x86)\Microsoft Visual Studio\2019\Community\VC\Tools\MSVC\14.28.29333\include\vector

; 310  :         return _Unfancy(this->_Ptr);

  00012	8b 45 f4	 mov	 eax, DWORD PTR $T5[ebp]
  00015	89 45 f0	 mov	 DWORD PTR $T4[ebp], eax
; File C:\Program Files (x86)\Microsoft Visual Studio\2019\Community\VC\Tools\MSVC\14.28.29333\include\algorithm

; 305  :     auto _UFirst      = _Get_unwrapped(_First);

  00018	8b 45 f0	 mov	 eax, DWORD PTR $T4[ebp]
  0001b	89 45 fc	 mov	 DWORD PTR __UFirst$[ebp], eax
; File C:\Program Files (x86)\Microsoft Visual Studio\2019\Community\VC\Tools\MSVC\14.28.29333\include\vector

; 310  :         return _Unfancy(this->_Ptr);

  0001e	8b 45 0c	 mov	 eax, DWORD PTR __Last$[ebp]
  00021	89 45 ec	 mov	 DWORD PTR __Ptr$3[ebp], eax
; File C:\Program Files (x86)\Microsoft Visual Studio\2019\Community\VC\Tools\MSVC\14.28.29333\include\xstddef

; 289  :     return _Ptr;

  00024	8b 45 ec	 mov	 eax, DWORD PTR __Ptr$3[ebp]
  00027	89 45 e8	 mov	 DWORD PTR $T2[ebp], eax
; File C:\Program Files (x86)\Microsoft Visual Studio\2019\Community\VC\Tools\MSVC\14.28.29333\include\vector

; 310  :         return _Unfancy(this->_Ptr);

  0002a	8b 45 e8	 mov	 eax, DWORD PTR $T2[ebp]
  0002d	89 45 e4	 mov	 DWORD PTR $T1[ebp], eax
; File C:\Program Files (x86)\Microsoft Visual Studio\2019\Community\VC\Tools\MSVC\14.28.29333\include\algorithm

; 306  :     const auto _ULast = _Get_unwrapped(_Last);

  00030	8b 45 e4	 mov	 eax, DWORD PTR $T1[ebp]
  00033	89 45 e0	 mov	 DWORD PTR __ULast$[ebp], eax

; 307  :     for (; _UFirst != _ULast; ++_UFirst) {

  00036	eb 09		 jmp	 SHORT $LN4@for_each
$LN2@for_each:
  00038	8b 45 fc	 mov	 eax, DWORD PTR __UFirst$[ebp]
  0003b	83 c0 04	 add	 eax, 4
  0003e	89 45 fc	 mov	 DWORD PTR __UFirst$[ebp], eax
$LN4@for_each:
  00041	8b 45 fc	 mov	 eax, DWORD PTR __UFirst$[ebp]
  00044	3b 45 e0	 cmp	 eax, DWORD PTR __ULast$[ebp]
  00047	74 0b		 je	 SHORT $LN3@for_each

; 308  :         _Func(*_UFirst);

  00049	8b 45 fc	 mov	 eax, DWORD PTR __UFirst$[ebp]
  0004c	ff 30		 push	 DWORD PTR [eax]
  0004e	ff 55 10	 call	 DWORD PTR __Func$[ebp]
  00051	59		 pop	 ecx

; 309  :     }

  00052	eb e4		 jmp	 SHORT $LN2@for_each
$LN3@for_each:

; 310  : 
; 311  :     return _Func;

  00054	8b 45 10	 mov	 eax, DWORD PTR __Func$[ebp]

; 312  : }

  00057	c9		 leave
  00058	c3		 ret	 0
??$for_each@V?$_Vector_iterator@V?$_Vector_val@U?$_Simple_types@PAVCGravityDecorator@NEffectUpdateDecorator@@@std@@@std@@@std@@P6AXPAVCGravityDecorator@NEffectUpdateDecorator@@@Z@std@@YAP6AXPAVCGravityDecorator@NEffectUpdateDecorator@@@ZV?$_Vector_iterator@V?$_Vector_val@U?$_Simple_types@PAVCGravityDecorator@NEffectUpdateDecorator@@@std@@@std@@@0@1P6AX0@Z@Z ENDP ; std::for_each<std::_Vector_iterator<std::_Vector_val<std::_Simple_types<NEffectUpdateDecorator::CGravityDecorator *> > >,void (__cdecl*)(NEffectUpdateDecorator::CGravityDecorator *)>
_TEXT	ENDS
; Function compile flags: /Odspy
; File C:\Program Files (x86)\Microsoft Visual Studio\2019\Community\VC\Tools\MSVC\14.28.29333\include\algorithm
; File C:\Program Files (x86)\Microsoft Visual Studio\2019\Community\VC\Tools\MSVC\14.28.29333\include\vector
; File C:\Program Files (x86)\Microsoft Visual Studio\2019\Community\VC\Tools\MSVC\14.28.29333\include\xstddef
; File C:\Program Files (x86)\Microsoft Visual Studio\2019\Community\VC\Tools\MSVC\14.28.29333\include\vector
; File C:\Program Files (x86)\Microsoft Visual Studio\2019\Community\VC\Tools\MSVC\14.28.29333\include\algorithm
; File C:\Program Files (x86)\Microsoft Visual Studio\2019\Community\VC\Tools\MSVC\14.28.29333\include\vector
; File C:\Program Files (x86)\Microsoft Visual Studio\2019\Community\VC\Tools\MSVC\14.28.29333\include\xstddef
; File C:\Program Files (x86)\Microsoft Visual Studio\2019\Community\VC\Tools\MSVC\14.28.29333\include\vector
; File C:\Program Files (x86)\Microsoft Visual Studio\2019\Community\VC\Tools\MSVC\14.28.29333\include\algorithm
;	COMDAT ??$for_each@V?$_Vector_iterator@V?$_Vector_val@U?$_Simple_types@PAVCAirResistanceDecorator@NEffectUpdateDecorator@@@std@@@std@@@std@@P6AXPAVCAirResistanceDecorator@NEffectUpdateDecorator@@@Z@std@@YAP6AXPAVCAirResistanceDecorator@NEffectUpdateDecorator@@@ZV?$_Vector_iterator@V?$_Vector_val@U?$_Simple_types@PAVCAirResistanceDecorator@NEffectUpdateDecorator@@@std@@@std@@@0@1P6AX0@Z@Z
_TEXT	SEGMENT
__ULast$ = -32						; size = 4
$T1 = -28						; size = 4
$T2 = -24						; size = 4
__Ptr$3 = -20						; size = 4
$T4 = -16						; size = 4
$T5 = -12						; size = 4
__Ptr$6 = -8						; size = 4
__UFirst$ = -4						; size = 4
__First$ = 8						; size = 4
__Last$ = 12						; size = 4
__Func$ = 16						; size = 4
??$for_each@V?$_Vector_iterator@V?$_Vector_val@U?$_Simple_types@PAVCAirResistanceDecorator@NEffectUpdateDecorator@@@std@@@std@@@std@@P6AXPAVCAirResistanceDecorator@NEffectUpdateDecorator@@@Z@std@@YAP6AXPAVCAirResistanceDecorator@NEffectUpdateDecorator@@@ZV?$_Vector_iterator@V?$_Vector_val@U?$_Simple_types@PAVCAirResistanceDecorator@NEffectUpdateDecorator@@@std@@@std@@@0@1P6AX0@Z@Z PROC ; std::for_each<std::_Vector_iterator<std::_Vector_val<std::_Simple_types<NEffectUpdateDecorator::CAirResistanceDecorator *> > >,void (__cdecl*)(NEffectUpdateDecorator::CAirResistanceDecorator *)>, COMDAT

; 303  : _CONSTEXPR20 _Fn for_each(_InIt _First, _InIt _Last, _Fn _Func) { // perform function for each element [_First, _Last)

  00000	55		 push	 ebp
  00001	8b ec		 mov	 ebp, esp
  00003	83 ec 20	 sub	 esp, 32			; 00000020H
; File C:\Program Files (x86)\Microsoft Visual Studio\2019\Community\VC\Tools\MSVC\14.28.29333\include\vector

; 310  :         return _Unfancy(this->_Ptr);

  00006	8b 45 08	 mov	 eax, DWORD PTR __First$[ebp]
  00009	89 45 f8	 mov	 DWORD PTR __Ptr$6[ebp], eax
; File C:\Program Files (x86)\Microsoft Visual Studio\2019\Community\VC\Tools\MSVC\14.28.29333\include\xstddef

; 289  :     return _Ptr;

  0000c	8b 45 f8	 mov	 eax, DWORD PTR __Ptr$6[ebp]
  0000f	89 45 f4	 mov	 DWORD PTR $T5[ebp], eax
; File C:\Program Files (x86)\Microsoft Visual Studio\2019\Community\VC\Tools\MSVC\14.28.29333\include\vector

; 310  :         return _Unfancy(this->_Ptr);

  00012	8b 45 f4	 mov	 eax, DWORD PTR $T5[ebp]
  00015	89 45 f0	 mov	 DWORD PTR $T4[ebp], eax
; File C:\Program Files (x86)\Microsoft Visual Studio\2019\Community\VC\Tools\MSVC\14.28.29333\include\algorithm

; 305  :     auto _UFirst      = _Get_unwrapped(_First);

  00018	8b 45 f0	 mov	 eax, DWORD PTR $T4[ebp]
  0001b	89 45 fc	 mov	 DWORD PTR __UFirst$[ebp], eax
; File C:\Program Files (x86)\Microsoft Visual Studio\2019\Community\VC\Tools\MSVC\14.28.29333\include\vector

; 310  :         return _Unfancy(this->_Ptr);

  0001e	8b 45 0c	 mov	 eax, DWORD PTR __Last$[ebp]
  00021	89 45 ec	 mov	 DWORD PTR __Ptr$3[ebp], eax
; File C:\Program Files (x86)\Microsoft Visual Studio\2019\Community\VC\Tools\MSVC\14.28.29333\include\xstddef

; 289  :     return _Ptr;

  00024	8b 45 ec	 mov	 eax, DWORD PTR __Ptr$3[ebp]
  00027	89 45 e8	 mov	 DWORD PTR $T2[ebp], eax
; File C:\Program Files (x86)\Microsoft Visual Studio\2019\Community\VC\Tools\MSVC\14.28.29333\include\vector

; 310  :         return _Unfancy(this->_Ptr);

  0002a	8b 45 e8	 mov	 eax, DWORD PTR $T2[ebp]
  0002d	89 45 e4	 mov	 DWORD PTR $T1[ebp], eax
; File C:\Program Files (x86)\Microsoft Visual Studio\2019\Community\VC\Tools\MSVC\14.28.29333\include\algorithm

; 306  :     const auto _ULast = _Get_unwrapped(_Last);

  00030	8b 45 e4	 mov	 eax, DWORD PTR $T1[ebp]
  00033	89 45 e0	 mov	 DWORD PTR __ULast$[ebp], eax

; 307  :     for (; _UFirst != _ULast; ++_UFirst) {

  00036	eb 09		 jmp	 SHORT $LN4@for_each
$LN2@for_each:
  00038	8b 45 fc	 mov	 eax, DWORD PTR __UFirst$[ebp]
  0003b	83 c0 04	 add	 eax, 4
  0003e	89 45 fc	 mov	 DWORD PTR __UFirst$[ebp], eax
$LN4@for_each:
  00041	8b 45 fc	 mov	 eax, DWORD PTR __UFirst$[ebp]
  00044	3b 45 e0	 cmp	 eax, DWORD PTR __ULast$[ebp]
  00047	74 0b		 je	 SHORT $LN3@for_each

; 308  :         _Func(*_UFirst);

  00049	8b 45 fc	 mov	 eax, DWORD PTR __UFirst$[ebp]
  0004c	ff 30		 push	 DWORD PTR [eax]
  0004e	ff 55 10	 call	 DWORD PTR __Func$[ebp]
  00051	59		 pop	 ecx

; 309  :     }

  00052	eb e4		 jmp	 SHORT $LN2@for_each
$LN3@for_each:

; 310  : 
; 311  :     return _Func;

  00054	8b 45 10	 mov	 eax, DWORD PTR __Func$[ebp]

; 312  : }

  00057	c9		 leave
  00058	c3		 ret	 0
??$for_each@V?$_Vector_iterator@V?$_Vector_val@U?$_Simple_types@PAVCAirResistanceDecorator@NEffectUpdateDecorator@@@std@@@std@@@std@@P6AXPAVCAirResistanceDecorator@NEffectUpdateDecorator@@@Z@std@@YAP6AXPAVCAirResistanceDecorator@NEffectUpdateDecorator@@@ZV?$_Vector_iterator@V?$_Vector_val@U?$_Simple_types@PAVCAirResistanceDecorator@NEffectUpdateDecorator@@@std@@@std@@@0@1P6AX0@Z@Z ENDP ; std::for_each<std::_Vector_iterator<std::_Vector_val<std::_Simple_types<NEffectUpdateDecorator::CAirResistanceDecorator *> > >,void (__cdecl*)(NEffectUpdateDecorator::CAirResistanceDecorator *)>
_TEXT	ENDS
; Function compile flags: /Odspy
; File C:\Program Files (x86)\Microsoft Visual Studio\2019\Community\VC\Tools\MSVC\14.28.29333\include\algorithm
; File C:\Program Files (x86)\Microsoft Visual Studio\2019\Community\VC\Tools\MSVC\14.28.29333\include\vector
; File C:\Program Files (x86)\Microsoft Visual Studio\2019\Community\VC\Tools\MSVC\14.28.29333\include\xstddef
; File C:\Program Files (x86)\Microsoft Visual Studio\2019\Community\VC\Tools\MSVC\14.28.29333\include\vector
; File C:\Program Files (x86)\Microsoft Visual Studio\2019\Community\VC\Tools\MSVC\14.28.29333\include\algorithm
; File C:\Program Files (x86)\Microsoft Visual Studio\2019\Community\VC\Tools\MSVC\14.28.29333\include\vector
; File C:\Program Files (x86)\Microsoft Visual Studio\2019\Community\VC\Tools\MSVC\14.28.29333\include\xstddef
; File C:\Program Files (x86)\Microsoft Visual Studio\2019\Community\VC\Tools\MSVC\14.28.29333\include\vector
; File C:\Program Files (x86)\Microsoft Visual Studio\2019\Community\VC\Tools\MSVC\14.28.29333\include\algorithm
;	COMDAT ??$for_each@V?$_Vector_iterator@V?$_Vector_val@U?$_Simple_types@PAVCTextureAnimationRandomDecorator@NEffectUpdateDecorator@@@std@@@std@@@std@@P6AXPAVCTextureAnimationRandomDecorator@NEffectUpdateDecorator@@@Z@std@@YAP6AXPAVCTextureAnimationRandomDecorator@NEffectUpdateDecorator@@@ZV?$_Vector_iterator@V?$_Vector_val@U?$_Simple_types@PAVCTextureAnimationRandomDecorator@NEffectUpdateDecorator@@@std@@@std@@@0@1P6AX0@Z@Z
_TEXT	SEGMENT
__ULast$ = -32						; size = 4
$T1 = -28						; size = 4
$T2 = -24						; size = 4
__Ptr$3 = -20						; size = 4
$T4 = -16						; size = 4
$T5 = -12						; size = 4
__Ptr$6 = -8						; size = 4
__UFirst$ = -4						; size = 4
__First$ = 8						; size = 4
__Last$ = 12						; size = 4
__Func$ = 16						; size = 4
??$for_each@V?$_Vector_iterator@V?$_Vector_val@U?$_Simple_types@PAVCTextureAnimationRandomDecorator@NEffectUpdateDecorator@@@std@@@std@@@std@@P6AXPAVCTextureAnimationRandomDecorator@NEffectUpdateDecorator@@@Z@std@@YAP6AXPAVCTextureAnimationRandomDecorator@NEffectUpdateDecorator@@@ZV?$_Vector_iterator@V?$_Vector_val@U?$_Simple_types@PAVCTextureAnimationRandomDecorator@NEffectUpdateDecorator@@@std@@@std@@@0@1P6AX0@Z@Z PROC ; std::for_each<std::_Vector_iterator<std::_Vector_val<std::_Simple_types<NEffectUpdateDecorator::CTextureAnimationRandomDecorator *> > >,void (__cdecl*)(NEffectUpdateDecorator::CTextureAnimationRandomDecorator *)>, COMDAT

; 303  : _CONSTEXPR20 _Fn for_each(_InIt _First, _InIt _Last, _Fn _Func) { // perform function for each element [_First, _Last)

  00000	55		 push	 ebp
  00001	8b ec		 mov	 ebp, esp
  00003	83 ec 20	 sub	 esp, 32			; 00000020H
; File C:\Program Files (x86)\Microsoft Visual Studio\2019\Community\VC\Tools\MSVC\14.28.29333\include\vector

; 310  :         return _Unfancy(this->_Ptr);

  00006	8b 45 08	 mov	 eax, DWORD PTR __First$[ebp]
  00009	89 45 f8	 mov	 DWORD PTR __Ptr$6[ebp], eax
; File C:\Program Files (x86)\Microsoft Visual Studio\2019\Community\VC\Tools\MSVC\14.28.29333\include\xstddef

; 289  :     return _Ptr;

  0000c	8b 45 f8	 mov	 eax, DWORD PTR __Ptr$6[ebp]
  0000f	89 45 f4	 mov	 DWORD PTR $T5[ebp], eax
; File C:\Program Files (x86)\Microsoft Visual Studio\2019\Community\VC\Tools\MSVC\14.28.29333\include\vector

; 310  :         return _Unfancy(this->_Ptr);

  00012	8b 45 f4	 mov	 eax, DWORD PTR $T5[ebp]
  00015	89 45 f0	 mov	 DWORD PTR $T4[ebp], eax
; File C:\Program Files (x86)\Microsoft Visual Studio\2019\Community\VC\Tools\MSVC\14.28.29333\include\algorithm

; 305  :     auto _UFirst      = _Get_unwrapped(_First);

  00018	8b 45 f0	 mov	 eax, DWORD PTR $T4[ebp]
  0001b	89 45 fc	 mov	 DWORD PTR __UFirst$[ebp], eax
; File C:\Program Files (x86)\Microsoft Visual Studio\2019\Community\VC\Tools\MSVC\14.28.29333\include\vector

; 310  :         return _Unfancy(this->_Ptr);

  0001e	8b 45 0c	 mov	 eax, DWORD PTR __Last$[ebp]
  00021	89 45 ec	 mov	 DWORD PTR __Ptr$3[ebp], eax
; File C:\Program Files (x86)\Microsoft Visual Studio\2019\Community\VC\Tools\MSVC\14.28.29333\include\xstddef

; 289  :     return _Ptr;

  00024	8b 45 ec	 mov	 eax, DWORD PTR __Ptr$3[ebp]
  00027	89 45 e8	 mov	 DWORD PTR $T2[ebp], eax
; File C:\Program Files (x86)\Microsoft Visual Studio\2019\Community\VC\Tools\MSVC\14.28.29333\include\vector

; 310  :         return _Unfancy(this->_Ptr);

  0002a	8b 45 e8	 mov	 eax, DWORD PTR $T2[ebp]
  0002d	89 45 e4	 mov	 DWORD PTR $T1[ebp], eax
; File C:\Program Files (x86)\Microsoft Visual Studio\2019\Community\VC\Tools\MSVC\14.28.29333\include\algorithm

; 306  :     const auto _ULast = _Get_unwrapped(_Last);

  00030	8b 45 e4	 mov	 eax, DWORD PTR $T1[ebp]
  00033	89 45 e0	 mov	 DWORD PTR __ULast$[ebp], eax

; 307  :     for (; _UFirst != _ULast; ++_UFirst) {

  00036	eb 09		 jmp	 SHORT $LN4@for_each
$LN2@for_each:
  00038	8b 45 fc	 mov	 eax, DWORD PTR __UFirst$[ebp]
  0003b	83 c0 04	 add	 eax, 4
  0003e	89 45 fc	 mov	 DWORD PTR __UFirst$[ebp], eax
$LN4@for_each:
  00041	8b 45 fc	 mov	 eax, DWORD PTR __UFirst$[ebp]
  00044	3b 45 e0	 cmp	 eax, DWORD PTR __ULast$[ebp]
  00047	74 0b		 je	 SHORT $LN3@for_each

; 308  :         _Func(*_UFirst);

  00049	8b 45 fc	 mov	 eax, DWORD PTR __UFirst$[ebp]
  0004c	ff 30		 push	 DWORD PTR [eax]
  0004e	ff 55 10	 call	 DWORD PTR __Func$[ebp]
  00051	59		 pop	 ecx

; 309  :     }

  00052	eb e4		 jmp	 SHORT $LN2@for_each
$LN3@for_each:

; 310  : 
; 311  :     return _Func;

  00054	8b 45 10	 mov	 eax, DWORD PTR __Func$[ebp]

; 312  : }

  00057	c9		 leave
  00058	c3		 ret	 0
??$for_each@V?$_Vector_iterator@V?$_Vector_val@U?$_Simple_types@PAVCTextureAnimationRandomDecorator@NEffectUpdateDecorator@@@std@@@std@@@std@@P6AXPAVCTextureAnimationRandomDecorator@NEffectUpdateDecorator@@@Z@std@@YAP6AXPAVCTextureAnimationRandomDecorator@NEffectUpdateDecorator@@@ZV?$_Vector_iterator@V?$_Vector_val@U?$_Simple_types@PAVCTextureAnimationRandomDecorator@NEffectUpdateDecorator@@@std@@@std@@@0@1P6AX0@Z@Z ENDP ; std::for_each<std::_Vector_iterator<std::_Vector_val<std::_Simple_types<NEffectUpdateDecorator::CTextureAnimationRandomDecorator *> > >,void (__cdecl*)(NEffectUpdateDecorator::CTextureAnimationRandomDecorator *)>
_TEXT	ENDS
; Function compile flags: /Odspy
; File C:\Program Files (x86)\Microsoft Visual Studio\2019\Community\VC\Tools\MSVC\14.28.29333\include\algorithm
; File C:\Program Files (x86)\Microsoft Visual Studio\2019\Community\VC\Tools\MSVC\14.28.29333\include\vector
; File C:\Program Files (x86)\Microsoft Visual Studio\2019\Community\VC\Tools\MSVC\14.28.29333\include\xstddef
; File C:\Program Files (x86)\Microsoft Visual Studio\2019\Community\VC\Tools\MSVC\14.28.29333\include\vector
; File C:\Program Files (x86)\Microsoft Visual Studio\2019\Community\VC\Tools\MSVC\14.28.29333\include\algorithm
; File C:\Program Files (x86)\Microsoft Visual Studio\2019\Community\VC\Tools\MSVC\14.28.29333\include\vector
; File C:\Program Files (x86)\Microsoft Visual Studio\2019\Community\VC\Tools\MSVC\14.28.29333\include\xstddef
; File C:\Program Files (x86)\Microsoft Visual Studio\2019\Community\VC\Tools\MSVC\14.28.29333\include\vector
; File C:\Program Files (x86)\Microsoft Visual Studio\2019\Community\VC\Tools\MSVC\14.28.29333\include\algorithm
;	COMDAT ??$for_each@V?$_Vector_iterator@V?$_Vector_val@U?$_Simple_types@PAVCTextureAnimationCCWDecorator@NEffectUpdateDecorator@@@std@@@std@@@std@@P6AXPAVCTextureAnimationCCWDecorator@NEffectUpdateDecorator@@@Z@std@@YAP6AXPAVCTextureAnimationCCWDecorator@NEffectUpdateDecorator@@@ZV?$_Vector_iterator@V?$_Vector_val@U?$_Simple_types@PAVCTextureAnimationCCWDecorator@NEffectUpdateDecorator@@@std@@@std@@@0@1P6AX0@Z@Z
_TEXT	SEGMENT
__ULast$ = -32						; size = 4
$T1 = -28						; size = 4
$T2 = -24						; size = 4
__Ptr$3 = -20						; size = 4
$T4 = -16						; size = 4
$T5 = -12						; size = 4
__Ptr$6 = -8						; size = 4
__UFirst$ = -4						; size = 4
__First$ = 8						; size = 4
__Last$ = 12						; size = 4
__Func$ = 16						; size = 4
??$for_each@V?$_Vector_iterator@V?$_Vector_val@U?$_Simple_types@PAVCTextureAnimationCCWDecorator@NEffectUpdateDecorator@@@std@@@std@@@std@@P6AXPAVCTextureAnimationCCWDecorator@NEffectUpdateDecorator@@@Z@std@@YAP6AXPAVCTextureAnimationCCWDecorator@NEffectUpdateDecorator@@@ZV?$_Vector_iterator@V?$_Vector_val@U?$_Simple_types@PAVCTextureAnimationCCWDecorator@NEffectUpdateDecorator@@@std@@@std@@@0@1P6AX0@Z@Z PROC ; std::for_each<std::_Vector_iterator<std::_Vector_val<std::_Simple_types<NEffectUpdateDecorator::CTextureAnimationCCWDecorator *> > >,void (__cdecl*)(NEffectUpdateDecorator::CTextureAnimationCCWDecorator *)>, COMDAT

; 303  : _CONSTEXPR20 _Fn for_each(_InIt _First, _InIt _Last, _Fn _Func) { // perform function for each element [_First, _Last)

  00000	55		 push	 ebp
  00001	8b ec		 mov	 ebp, esp
  00003	83 ec 20	 sub	 esp, 32			; 00000020H
; File C:\Program Files (x86)\Microsoft Visual Studio\2019\Community\VC\Tools\MSVC\14.28.29333\include\vector

; 310  :         return _Unfancy(this->_Ptr);

  00006	8b 45 08	 mov	 eax, DWORD PTR __First$[ebp]
  00009	89 45 f8	 mov	 DWORD PTR __Ptr$6[ebp], eax
; File C:\Program Files (x86)\Microsoft Visual Studio\2019\Community\VC\Tools\MSVC\14.28.29333\include\xstddef

; 289  :     return _Ptr;

  0000c	8b 45 f8	 mov	 eax, DWORD PTR __Ptr$6[ebp]
  0000f	89 45 f4	 mov	 DWORD PTR $T5[ebp], eax
; File C:\Program Files (x86)\Microsoft Visual Studio\2019\Community\VC\Tools\MSVC\14.28.29333\include\vector

; 310  :         return _Unfancy(this->_Ptr);

  00012	8b 45 f4	 mov	 eax, DWORD PTR $T5[ebp]
  00015	89 45 f0	 mov	 DWORD PTR $T4[ebp], eax
; File C:\Program Files (x86)\Microsoft Visual Studio\2019\Community\VC\Tools\MSVC\14.28.29333\include\algorithm

; 305  :     auto _UFirst      = _Get_unwrapped(_First);

  00018	8b 45 f0	 mov	 eax, DWORD PTR $T4[ebp]
  0001b	89 45 fc	 mov	 DWORD PTR __UFirst$[ebp], eax
; File C:\Program Files (x86)\Microsoft Visual Studio\2019\Community\VC\Tools\MSVC\14.28.29333\include\vector

; 310  :         return _Unfancy(this->_Ptr);

  0001e	8b 45 0c	 mov	 eax, DWORD PTR __Last$[ebp]
  00021	89 45 ec	 mov	 DWORD PTR __Ptr$3[ebp], eax
; File C:\Program Files (x86)\Microsoft Visual Studio\2019\Community\VC\Tools\MSVC\14.28.29333\include\xstddef

; 289  :     return _Ptr;

  00024	8b 45 ec	 mov	 eax, DWORD PTR __Ptr$3[ebp]
  00027	89 45 e8	 mov	 DWORD PTR $T2[ebp], eax
; File C:\Program Files (x86)\Microsoft Visual Studio\2019\Community\VC\Tools\MSVC\14.28.29333\include\vector

; 310  :         return _Unfancy(this->_Ptr);

  0002a	8b 45 e8	 mov	 eax, DWORD PTR $T2[ebp]
  0002d	89 45 e4	 mov	 DWORD PTR $T1[ebp], eax
; File C:\Program Files (x86)\Microsoft Visual Studio\2019\Community\VC\Tools\MSVC\14.28.29333\include\algorithm

; 306  :     const auto _ULast = _Get_unwrapped(_Last);

  00030	8b 45 e4	 mov	 eax, DWORD PTR $T1[ebp]
  00033	89 45 e0	 mov	 DWORD PTR __ULast$[ebp], eax

; 307  :     for (; _UFirst != _ULast; ++_UFirst) {

  00036	eb 09		 jmp	 SHORT $LN4@for_each
$LN2@for_each:
  00038	8b 45 fc	 mov	 eax, DWORD PTR __UFirst$[ebp]
  0003b	83 c0 04	 add	 eax, 4
  0003e	89 45 fc	 mov	 DWORD PTR __UFirst$[ebp], eax
$LN4@for_each:
  00041	8b 45 fc	 mov	 eax, DWORD PTR __UFirst$[ebp]
  00044	3b 45 e0	 cmp	 eax, DWORD PTR __ULast$[ebp]
  00047	74 0b		 je	 SHORT $LN3@for_each

; 308  :         _Func(*_UFirst);

  00049	8b 45 fc	 mov	 eax, DWORD PTR __UFirst$[ebp]
  0004c	ff 30		 push	 DWORD PTR [eax]
  0004e	ff 55 10	 call	 DWORD PTR __Func$[ebp]
  00051	59		 pop	 ecx

; 309  :     }

  00052	eb e4		 jmp	 SHORT $LN2@for_each
$LN3@for_each:

; 310  : 
; 311  :     return _Func;

  00054	8b 45 10	 mov	 eax, DWORD PTR __Func$[ebp]

; 312  : }

  00057	c9		 leave
  00058	c3		 ret	 0
??$for_each@V?$_Vector_iterator@V?$_Vector_val@U?$_Simple_types@PAVCTextureAnimationCCWDecorator@NEffectUpdateDecorator@@@std@@@std@@@std@@P6AXPAVCTextureAnimationCCWDecorator@NEffectUpdateDecorator@@@Z@std@@YAP6AXPAVCTextureAnimationCCWDecorator@NEffectUpdateDecorator@@@ZV?$_Vector_iterator@V?$_Vector_val@U?$_Simple_types@PAVCTextureAnimationCCWDecorator@NEffectUpdateDecorator@@@std@@@std@@@0@1P6AX0@Z@Z ENDP ; std::for_each<std::_Vector_iterator<std::_Vector_val<std::_Simple_types<NEffectUpdateDecorator::CTextureAnimationCCWDecorator *> > >,void (__cdecl*)(NEffectUpdateDecorator::CTextureAnimationCCWDecorator *)>
_TEXT	ENDS
; Function compile flags: /Odspy
; File C:\Program Files (x86)\Microsoft Visual Studio\2019\Community\VC\Tools\MSVC\14.28.29333\include\algorithm
; File C:\Program Files (x86)\Microsoft Visual Studio\2019\Community\VC\Tools\MSVC\14.28.29333\include\vector
; File C:\Program Files (x86)\Microsoft Visual Studio\2019\Community\VC\Tools\MSVC\14.28.29333\include\xstddef
; File C:\Program Files (x86)\Microsoft Visual Studio\2019\Community\VC\Tools\MSVC\14.28.29333\include\vector
; File C:\Program Files (x86)\Microsoft Visual Studio\2019\Community\VC\Tools\MSVC\14.28.29333\include\algorithm
; File C:\Program Files (x86)\Microsoft Visual Studio\2019\Community\VC\Tools\MSVC\14.28.29333\include\vector
; File C:\Program Files (x86)\Microsoft Visual Studio\2019\Community\VC\Tools\MSVC\14.28.29333\include\xstddef
; File C:\Program Files (x86)\Microsoft Visual Studio\2019\Community\VC\Tools\MSVC\14.28.29333\include\vector
; File C:\Program Files (x86)\Microsoft Visual Studio\2019\Community\VC\Tools\MSVC\14.28.29333\include\algorithm
;	COMDAT ??$for_each@V?$_Vector_iterator@V?$_Vector_val@U?$_Simple_types@PAVCTextureAnimationCWDecorator@NEffectUpdateDecorator@@@std@@@std@@@std@@P6AXPAVCTextureAnimationCWDecorator@NEffectUpdateDecorator@@@Z@std@@YAP6AXPAVCTextureAnimationCWDecorator@NEffectUpdateDecorator@@@ZV?$_Vector_iterator@V?$_Vector_val@U?$_Simple_types@PAVCTextureAnimationCWDecorator@NEffectUpdateDecorator@@@std@@@std@@@0@1P6AX0@Z@Z
_TEXT	SEGMENT
__ULast$ = -32						; size = 4
$T1 = -28						; size = 4
$T2 = -24						; size = 4
__Ptr$3 = -20						; size = 4
$T4 = -16						; size = 4
$T5 = -12						; size = 4
__Ptr$6 = -8						; size = 4
__UFirst$ = -4						; size = 4
__First$ = 8						; size = 4
__Last$ = 12						; size = 4
__Func$ = 16						; size = 4
??$for_each@V?$_Vector_iterator@V?$_Vector_val@U?$_Simple_types@PAVCTextureAnimationCWDecorator@NEffectUpdateDecorator@@@std@@@std@@@std@@P6AXPAVCTextureAnimationCWDecorator@NEffectUpdateDecorator@@@Z@std@@YAP6AXPAVCTextureAnimationCWDecorator@NEffectUpdateDecorator@@@ZV?$_Vector_iterator@V?$_Vector_val@U?$_Simple_types@PAVCTextureAnimationCWDecorator@NEffectUpdateDecorator@@@std@@@std@@@0@1P6AX0@Z@Z PROC ; std::for_each<std::_Vector_iterator<std::_Vector_val<std::_Simple_types<NEffectUpdateDecorator::CTextureAnimationCWDecorator *> > >,void (__cdecl*)(NEffectUpdateDecorator::CTextureAnimationCWDecorator *)>, COMDAT

; 303  : _CONSTEXPR20 _Fn for_each(_InIt _First, _InIt _Last, _Fn _Func) { // perform function for each element [_First, _Last)

  00000	55		 push	 ebp
  00001	8b ec		 mov	 ebp, esp
  00003	83 ec 20	 sub	 esp, 32			; 00000020H
; File C:\Program Files (x86)\Microsoft Visual Studio\2019\Community\VC\Tools\MSVC\14.28.29333\include\vector

; 310  :         return _Unfancy(this->_Ptr);

  00006	8b 45 08	 mov	 eax, DWORD PTR __First$[ebp]
  00009	89 45 f8	 mov	 DWORD PTR __Ptr$6[ebp], eax
; File C:\Program Files (x86)\Microsoft Visual Studio\2019\Community\VC\Tools\MSVC\14.28.29333\include\xstddef

; 289  :     return _Ptr;

  0000c	8b 45 f8	 mov	 eax, DWORD PTR __Ptr$6[ebp]
  0000f	89 45 f4	 mov	 DWORD PTR $T5[ebp], eax
; File C:\Program Files (x86)\Microsoft Visual Studio\2019\Community\VC\Tools\MSVC\14.28.29333\include\vector

; 310  :         return _Unfancy(this->_Ptr);

  00012	8b 45 f4	 mov	 eax, DWORD PTR $T5[ebp]
  00015	89 45 f0	 mov	 DWORD PTR $T4[ebp], eax
; File C:\Program Files (x86)\Microsoft Visual Studio\2019\Community\VC\Tools\MSVC\14.28.29333\include\algorithm

; 305  :     auto _UFirst      = _Get_unwrapped(_First);

  00018	8b 45 f0	 mov	 eax, DWORD PTR $T4[ebp]
  0001b	89 45 fc	 mov	 DWORD PTR __UFirst$[ebp], eax
; File C:\Program Files (x86)\Microsoft Visual Studio\2019\Community\VC\Tools\MSVC\14.28.29333\include\vector

; 310  :         return _Unfancy(this->_Ptr);

  0001e	8b 45 0c	 mov	 eax, DWORD PTR __Last$[ebp]
  00021	89 45 ec	 mov	 DWORD PTR __Ptr$3[ebp], eax
; File C:\Program Files (x86)\Microsoft Visual Studio\2019\Community\VC\Tools\MSVC\14.28.29333\include\xstddef

; 289  :     return _Ptr;

  00024	8b 45 ec	 mov	 eax, DWORD PTR __Ptr$3[ebp]
  00027	89 45 e8	 mov	 DWORD PTR $T2[ebp], eax
; File C:\Program Files (x86)\Microsoft Visual Studio\2019\Community\VC\Tools\MSVC\14.28.29333\include\vector

; 310  :         return _Unfancy(this->_Ptr);

  0002a	8b 45 e8	 mov	 eax, DWORD PTR $T2[ebp]
  0002d	89 45 e4	 mov	 DWORD PTR $T1[ebp], eax
; File C:\Program Files (x86)\Microsoft Visual Studio\2019\Community\VC\Tools\MSVC\14.28.29333\include\algorithm

; 306  :     const auto _ULast = _Get_unwrapped(_Last);

  00030	8b 45 e4	 mov	 eax, DWORD PTR $T1[ebp]
  00033	89 45 e0	 mov	 DWORD PTR __ULast$[ebp], eax

; 307  :     for (; _UFirst != _ULast; ++_UFirst) {

  00036	eb 09		 jmp	 SHORT $LN4@for_each
$LN2@for_each:
  00038	8b 45 fc	 mov	 eax, DWORD PTR __UFirst$[ebp]
  0003b	83 c0 04	 add	 eax, 4
  0003e	89 45 fc	 mov	 DWORD PTR __UFirst$[ebp], eax
$LN4@for_each:
  00041	8b 45 fc	 mov	 eax, DWORD PTR __UFirst$[ebp]
  00044	3b 45 e0	 cmp	 eax, DWORD PTR __ULast$[ebp]
  00047	74 0b		 je	 SHORT $LN3@for_each

; 308  :         _Func(*_UFirst);

  00049	8b 45 fc	 mov	 eax, DWORD PTR __UFirst$[ebp]
  0004c	ff 30		 push	 DWORD PTR [eax]
  0004e	ff 55 10	 call	 DWORD PTR __Func$[ebp]
  00051	59		 pop	 ecx

; 309  :     }

  00052	eb e4		 jmp	 SHORT $LN2@for_each
$LN3@for_each:

; 310  : 
; 311  :     return _Func;

  00054	8b 45 10	 mov	 eax, DWORD PTR __Func$[ebp]

; 312  : }

  00057	c9		 leave
  00058	c3		 ret	 0
??$for_each@V?$_Vector_iterator@V?$_Vector_val@U?$_Simple_types@PAVCTextureAnimationCWDecorator@NEffectUpdateDecorator@@@std@@@std@@@std@@P6AXPAVCTextureAnimationCWDecorator@NEffectUpdateDecorator@@@Z@std@@YAP6AXPAVCTextureAnimationCWDecorator@NEffectUpdateDecorator@@@ZV?$_Vector_iterator@V?$_Vector_val@U?$_Simple_types@PAVCTextureAnimationCWDecorator@NEffectUpdateDecorator@@@std@@@std@@@0@1P6AX0@Z@Z ENDP ; std::for_each<std::_Vector_iterator<std::_Vector_val<std::_Simple_types<NEffectUpdateDecorator::CTextureAnimationCWDecorator *> > >,void (__cdecl*)(NEffectUpdateDecorator::CTextureAnimationCWDecorator *)>
_TEXT	ENDS
; Function compile flags: /Odspy
; File C:\Program Files (x86)\Microsoft Visual Studio\2019\Community\VC\Tools\MSVC\14.28.29333\include\algorithm
; File C:\Program Files (x86)\Microsoft Visual Studio\2019\Community\VC\Tools\MSVC\14.28.29333\include\vector
; File C:\Program Files (x86)\Microsoft Visual Studio\2019\Community\VC\Tools\MSVC\14.28.29333\include\xstddef
; File C:\Program Files (x86)\Microsoft Visual Studio\2019\Community\VC\Tools\MSVC\14.28.29333\include\vector
; File C:\Program Files (x86)\Microsoft Visual Studio\2019\Community\VC\Tools\MSVC\14.28.29333\include\algorithm
; File C:\Program Files (x86)\Microsoft Visual Studio\2019\Community\VC\Tools\MSVC\14.28.29333\include\vector
; File C:\Program Files (x86)\Microsoft Visual Studio\2019\Community\VC\Tools\MSVC\14.28.29333\include\xstddef
; File C:\Program Files (x86)\Microsoft Visual Studio\2019\Community\VC\Tools\MSVC\14.28.29333\include\vector
; File C:\Program Files (x86)\Microsoft Visual Studio\2019\Community\VC\Tools\MSVC\14.28.29333\include\algorithm
;	COMDAT ??$for_each@V?$_Vector_iterator@V?$_Vector_val@U?$_Simple_types@PAVCNullDecorator@NEffectUpdateDecorator@@@std@@@std@@@std@@P6AXPAVCNullDecorator@NEffectUpdateDecorator@@@Z@std@@YAP6AXPAVCNullDecorator@NEffectUpdateDecorator@@@ZV?$_Vector_iterator@V?$_Vector_val@U?$_Simple_types@PAVCNullDecorator@NEffectUpdateDecorator@@@std@@@std@@@0@1P6AX0@Z@Z
_TEXT	SEGMENT
__ULast$ = -32						; size = 4
$T1 = -28						; size = 4
$T2 = -24						; size = 4
__Ptr$3 = -20						; size = 4
$T4 = -16						; size = 4
$T5 = -12						; size = 4
__Ptr$6 = -8						; size = 4
__UFirst$ = -4						; size = 4
__First$ = 8						; size = 4
__Last$ = 12						; size = 4
__Func$ = 16						; size = 4
??$for_each@V?$_Vector_iterator@V?$_Vector_val@U?$_Simple_types@PAVCNullDecorator@NEffectUpdateDecorator@@@std@@@std@@@std@@P6AXPAVCNullDecorator@NEffectUpdateDecorator@@@Z@std@@YAP6AXPAVCNullDecorator@NEffectUpdateDecorator@@@ZV?$_Vector_iterator@V?$_Vector_val@U?$_Simple_types@PAVCNullDecorator@NEffectUpdateDecorator@@@std@@@std@@@0@1P6AX0@Z@Z PROC ; std::for_each<std::_Vector_iterator<std::_Vector_val<std::_Simple_types<NEffectUpdateDecorator::CNullDecorator *> > >,void (__cdecl*)(NEffectUpdateDecorator::CNullDecorator *)>, COMDAT

; 303  : _CONSTEXPR20 _Fn for_each(_InIt _First, _InIt _Last, _Fn _Func) { // perform function for each element [_First, _Last)

  00000	55		 push	 ebp
  00001	8b ec		 mov	 ebp, esp
  00003	83 ec 20	 sub	 esp, 32			; 00000020H
; File C:\Program Files (x86)\Microsoft Visual Studio\2019\Community\VC\Tools\MSVC\14.28.29333\include\vector

; 310  :         return _Unfancy(this->_Ptr);

  00006	8b 45 08	 mov	 eax, DWORD PTR __First$[ebp]
  00009	89 45 f8	 mov	 DWORD PTR __Ptr$6[ebp], eax
; File C:\Program Files (x86)\Microsoft Visual Studio\2019\Community\VC\Tools\MSVC\14.28.29333\include\xstddef

; 289  :     return _Ptr;

  0000c	8b 45 f8	 mov	 eax, DWORD PTR __Ptr$6[ebp]
  0000f	89 45 f4	 mov	 DWORD PTR $T5[ebp], eax
; File C:\Program Files (x86)\Microsoft Visual Studio\2019\Community\VC\Tools\MSVC\14.28.29333\include\vector

; 310  :         return _Unfancy(this->_Ptr);

  00012	8b 45 f4	 mov	 eax, DWORD PTR $T5[ebp]
  00015	89 45 f0	 mov	 DWORD PTR $T4[ebp], eax
; File C:\Program Files (x86)\Microsoft Visual Studio\2019\Community\VC\Tools\MSVC\14.28.29333\include\algorithm

; 305  :     auto _UFirst      = _Get_unwrapped(_First);

  00018	8b 45 f0	 mov	 eax, DWORD PTR $T4[ebp]
  0001b	89 45 fc	 mov	 DWORD PTR __UFirst$[ebp], eax
; File C:\Program Files (x86)\Microsoft Visual Studio\2019\Community\VC\Tools\MSVC\14.28.29333\include\vector

; 310  :         return _Unfancy(this->_Ptr);

  0001e	8b 45 0c	 mov	 eax, DWORD PTR __Last$[ebp]
  00021	89 45 ec	 mov	 DWORD PTR __Ptr$3[ebp], eax
; File C:\Program Files (x86)\Microsoft Visual Studio\2019\Community\VC\Tools\MSVC\14.28.29333\include\xstddef

; 289  :     return _Ptr;

  00024	8b 45 ec	 mov	 eax, DWORD PTR __Ptr$3[ebp]
  00027	89 45 e8	 mov	 DWORD PTR $T2[ebp], eax
; File C:\Program Files (x86)\Microsoft Visual Studio\2019\Community\VC\Tools\MSVC\14.28.29333\include\vector

; 310  :         return _Unfancy(this->_Ptr);

  0002a	8b 45 e8	 mov	 eax, DWORD PTR $T2[ebp]
  0002d	89 45 e4	 mov	 DWORD PTR $T1[ebp], eax
; File C:\Program Files (x86)\Microsoft Visual Studio\2019\Community\VC\Tools\MSVC\14.28.29333\include\algorithm

; 306  :     const auto _ULast = _Get_unwrapped(_Last);

  00030	8b 45 e4	 mov	 eax, DWORD PTR $T1[ebp]
  00033	89 45 e0	 mov	 DWORD PTR __ULast$[ebp], eax

; 307  :     for (; _UFirst != _ULast; ++_UFirst) {

  00036	eb 09		 jmp	 SHORT $LN4@for_each
$LN2@for_each:
  00038	8b 45 fc	 mov	 eax, DWORD PTR __UFirst$[ebp]
  0003b	83 c0 04	 add	 eax, 4
  0003e	89 45 fc	 mov	 DWORD PTR __UFirst$[ebp], eax
$LN4@for_each:
  00041	8b 45 fc	 mov	 eax, DWORD PTR __UFirst$[ebp]
  00044	3b 45 e0	 cmp	 eax, DWORD PTR __ULast$[ebp]
  00047	74 0b		 je	 SHORT $LN3@for_each

; 308  :         _Func(*_UFirst);

  00049	8b 45 fc	 mov	 eax, DWORD PTR __UFirst$[ebp]
  0004c	ff 30		 push	 DWORD PTR [eax]
  0004e	ff 55 10	 call	 DWORD PTR __Func$[ebp]
  00051	59		 pop	 ecx

; 309  :     }

  00052	eb e4		 jmp	 SHORT $LN2@for_each
$LN3@for_each:

; 310  : 
; 311  :     return _Func;

  00054	8b 45 10	 mov	 eax, DWORD PTR __Func$[ebp]

; 312  : }

  00057	c9		 leave
  00058	c3		 ret	 0
??$for_each@V?$_Vector_iterator@V?$_Vector_val@U?$_Simple_types@PAVCNullDecorator@NEffectUpdateDecorator@@@std@@@std@@@std@@P6AXPAVCNullDecorator@NEffectUpdateDecorator@@@Z@std@@YAP6AXPAVCNullDecorator@NEffectUpdateDecorator@@@ZV?$_Vector_iterator@V?$_Vector_val@U?$_Simple_types@PAVCNullDecorator@NEffectUpdateDecorator@@@std@@@std@@@0@1P6AX0@Z@Z ENDP ; std::for_each<std::_Vector_iterator<std::_Vector_val<std::_Simple_types<NEffectUpdateDecorator::CNullDecorator *> > >,void (__cdecl*)(NEffectUpdateDecorator::CNullDecorator *)>
_TEXT	ENDS
; Function compile flags: /Odspy
; File C:\Program Files (x86)\Microsoft Visual Studio\2019\Community\VC\Tools\MSVC\14.28.29333\include\algorithm
; File C:\Program Files (x86)\Microsoft Visual Studio\2019\Community\VC\Tools\MSVC\14.28.29333\include\vector
; File C:\Program Files (x86)\Microsoft Visual Studio\2019\Community\VC\Tools\MSVC\14.28.29333\include\xstddef
; File C:\Program Files (x86)\Microsoft Visual Studio\2019\Community\VC\Tools\MSVC\14.28.29333\include\vector
; File C:\Program Files (x86)\Microsoft Visual Studio\2019\Community\VC\Tools\MSVC\14.28.29333\include\algorithm
; File C:\Program Files (x86)\Microsoft Visual Studio\2019\Community\VC\Tools\MSVC\14.28.29333\include\vector
; File C:\Program Files (x86)\Microsoft Visual Studio\2019\Community\VC\Tools\MSVC\14.28.29333\include\xstddef
; File C:\Program Files (x86)\Microsoft Visual Studio\2019\Community\VC\Tools\MSVC\14.28.29333\include\vector
; File C:\Program Files (x86)\Microsoft Visual Studio\2019\Community\VC\Tools\MSVC\14.28.29333\include\algorithm
;	COMDAT ??$for_each@V?$_Vector_iterator@V?$_Vector_val@U?$_Simple_types@PAVCHeaderDecorator@NEffectUpdateDecorator@@@std@@@std@@@std@@P6AXPAVCHeaderDecorator@NEffectUpdateDecorator@@@Z@std@@YAP6AXPAVCHeaderDecorator@NEffectUpdateDecorator@@@ZV?$_Vector_iterator@V?$_Vector_val@U?$_Simple_types@PAVCHeaderDecorator@NEffectUpdateDecorator@@@std@@@std@@@0@1P6AX0@Z@Z
_TEXT	SEGMENT
__ULast$ = -32						; size = 4
$T1 = -28						; size = 4
$T2 = -24						; size = 4
__Ptr$3 = -20						; size = 4
$T4 = -16						; size = 4
$T5 = -12						; size = 4
__Ptr$6 = -8						; size = 4
__UFirst$ = -4						; size = 4
__First$ = 8						; size = 4
__Last$ = 12						; size = 4
__Func$ = 16						; size = 4
??$for_each@V?$_Vector_iterator@V?$_Vector_val@U?$_Simple_types@PAVCHeaderDecorator@NEffectUpdateDecorator@@@std@@@std@@@std@@P6AXPAVCHeaderDecorator@NEffectUpdateDecorator@@@Z@std@@YAP6AXPAVCHeaderDecorator@NEffectUpdateDecorator@@@ZV?$_Vector_iterator@V?$_Vector_val@U?$_Simple_types@PAVCHeaderDecorator@NEffectUpdateDecorator@@@std@@@std@@@0@1P6AX0@Z@Z PROC ; std::for_each<std::_Vector_iterator<std::_Vector_val<std::_Simple_types<NEffectUpdateDecorator::CHeaderDecorator *> > >,void (__cdecl*)(NEffectUpdateDecorator::CHeaderDecorator *)>, COMDAT

; 303  : _CONSTEXPR20 _Fn for_each(_InIt _First, _InIt _Last, _Fn _Func) { // perform function for each element [_First, _Last)

  00000	55		 push	 ebp
  00001	8b ec		 mov	 ebp, esp
  00003	83 ec 20	 sub	 esp, 32			; 00000020H
; File C:\Program Files (x86)\Microsoft Visual Studio\2019\Community\VC\Tools\MSVC\14.28.29333\include\vector

; 310  :         return _Unfancy(this->_Ptr);

  00006	8b 45 08	 mov	 eax, DWORD PTR __First$[ebp]
  00009	89 45 f8	 mov	 DWORD PTR __Ptr$6[ebp], eax
; File C:\Program Files (x86)\Microsoft Visual Studio\2019\Community\VC\Tools\MSVC\14.28.29333\include\xstddef

; 289  :     return _Ptr;

  0000c	8b 45 f8	 mov	 eax, DWORD PTR __Ptr$6[ebp]
  0000f	89 45 f4	 mov	 DWORD PTR $T5[ebp], eax
; File C:\Program Files (x86)\Microsoft Visual Studio\2019\Community\VC\Tools\MSVC\14.28.29333\include\vector

; 310  :         return _Unfancy(this->_Ptr);

  00012	8b 45 f4	 mov	 eax, DWORD PTR $T5[ebp]
  00015	89 45 f0	 mov	 DWORD PTR $T4[ebp], eax
; File C:\Program Files (x86)\Microsoft Visual Studio\2019\Community\VC\Tools\MSVC\14.28.29333\include\algorithm

; 305  :     auto _UFirst      = _Get_unwrapped(_First);

  00018	8b 45 f0	 mov	 eax, DWORD PTR $T4[ebp]
  0001b	89 45 fc	 mov	 DWORD PTR __UFirst$[ebp], eax
; File C:\Program Files (x86)\Microsoft Visual Studio\2019\Community\VC\Tools\MSVC\14.28.29333\include\vector

; 310  :         return _Unfancy(this->_Ptr);

  0001e	8b 45 0c	 mov	 eax, DWORD PTR __Last$[ebp]
  00021	89 45 ec	 mov	 DWORD PTR __Ptr$3[ebp], eax
; File C:\Program Files (x86)\Microsoft Visual Studio\2019\Community\VC\Tools\MSVC\14.28.29333\include\xstddef

; 289  :     return _Ptr;

  00024	8b 45 ec	 mov	 eax, DWORD PTR __Ptr$3[ebp]
  00027	89 45 e8	 mov	 DWORD PTR $T2[ebp], eax
; File C:\Program Files (x86)\Microsoft Visual Studio\2019\Community\VC\Tools\MSVC\14.28.29333\include\vector

; 310  :         return _Unfancy(this->_Ptr);

  0002a	8b 45 e8	 mov	 eax, DWORD PTR $T2[ebp]
  0002d	89 45 e4	 mov	 DWORD PTR $T1[ebp], eax
; File C:\Program Files (x86)\Microsoft Visual Studio\2019\Community\VC\Tools\MSVC\14.28.29333\include\algorithm

; 306  :     const auto _ULast = _Get_unwrapped(_Last);

  00030	8b 45 e4	 mov	 eax, DWORD PTR $T1[ebp]
  00033	89 45 e0	 mov	 DWORD PTR __ULast$[ebp], eax

; 307  :     for (; _UFirst != _ULast; ++_UFirst) {

  00036	eb 09		 jmp	 SHORT $LN4@for_each
$LN2@for_each:
  00038	8b 45 fc	 mov	 eax, DWORD PTR __UFirst$[ebp]
  0003b	83 c0 04	 add	 eax, 4
  0003e	89 45 fc	 mov	 DWORD PTR __UFirst$[ebp], eax
$LN4@for_each:
  00041	8b 45 fc	 mov	 eax, DWORD PTR __UFirst$[ebp]
  00044	3b 45 e0	 cmp	 eax, DWORD PTR __ULast$[ebp]
  00047	74 0b		 je	 SHORT $LN3@for_each

; 308  :         _Func(*_UFirst);

  00049	8b 45 fc	 mov	 eax, DWORD PTR __UFirst$[ebp]
  0004c	ff 30		 push	 DWORD PTR [eax]
  0004e	ff 55 10	 call	 DWORD PTR __Func$[ebp]
  00051	59		 pop	 ecx

; 309  :     }

  00052	eb e4		 jmp	 SHORT $LN2@for_each
$LN3@for_each:

; 310  : 
; 311  :     return _Func;

  00054	8b 45 10	 mov	 eax, DWORD PTR __Func$[ebp]

; 312  : }

  00057	c9		 leave
  00058	c3		 ret	 0
??$for_each@V?$_Vector_iterator@V?$_Vector_val@U?$_Simple_types@PAVCHeaderDecorator@NEffectUpdateDecorator@@@std@@@std@@@std@@P6AXPAVCHeaderDecorator@NEffectUpdateDecorator@@@Z@std@@YAP6AXPAVCHeaderDecorator@NEffectUpdateDecorator@@@ZV?$_Vector_iterator@V?$_Vector_val@U?$_Simple_types@PAVCHeaderDecorator@NEffectUpdateDecorator@@@std@@@std@@@0@1P6AX0@Z@Z ENDP ; std::for_each<std::_Vector_iterator<std::_Vector_val<std::_Simple_types<NEffectUpdateDecorator::CHeaderDecorator *> > >,void (__cdecl*)(NEffectUpdateDecorator::CHeaderDecorator *)>
_TEXT	ENDS
; Function compile flags: /Odspy
; File C:\Program Files (x86)\Microsoft Visual Studio\2019\Community\VC\Tools\MSVC\14.28.29333\include\xmemory
;	COMDAT ??$_Destroy_range@V?$allocator@UTAttachEffectInstance@CFlyingInstance@@@std@@@std@@YAXPAUTAttachEffectInstance@CFlyingInstance@@QAU12@AAV?$allocator@UTAttachEffectInstance@CFlyingInstance@@@0@@Z
_TEXT	SEGMENT
__First$ = 8						; size = 4
__Last$ = 12						; size = 4
__Al$ = 16						; size = 4
??$_Destroy_range@V?$allocator@UTAttachEffectInstance@CFlyingInstance@@@std@@@std@@YAXPAUTAttachEffectInstance@CFlyingInstance@@QAU12@AAV?$allocator@UTAttachEffectInstance@CFlyingInstance@@@0@@Z PROC ; std::_Destroy_range<std::allocator<CFlyingInstance::TAttachEffectInstance> >, COMDAT

; 962  :     _Alloc_ptr_t<_Alloc> _First, const _Alloc_ptr_t<_Alloc> _Last, _Alloc& _Al) noexcept {

  00000	55		 push	 ebp
  00001	8b ec		 mov	 ebp, esp

; 963  :     // note that this is an optimization for debug mode codegen; in release mode the BE removes all of this
; 964  :     using _Ty = typename _Alloc::value_type;
; 965  :     if _CONSTEXPR_IF (!conjunction_v<is_trivially_destructible<_Ty>, _Uses_default_destroy<_Alloc, _Ty*>>) {
; 966  :         for (; _First != _Last; ++_First) {
; 967  :             allocator_traits<_Alloc>::destroy(_Al, _Unfancy(_First));
; 968  :         }
; 969  :     }
; 970  : }

  00003	5d		 pop	 ebp
  00004	c3		 ret	 0
??$_Destroy_range@V?$allocator@UTAttachEffectInstance@CFlyingInstance@@@std@@@std@@YAXPAUTAttachEffectInstance@CFlyingInstance@@QAU12@AAV?$allocator@UTAttachEffectInstance@CFlyingInstance@@@0@@Z ENDP ; std::_Destroy_range<std::allocator<CFlyingInstance::TAttachEffectInstance> >
_TEXT	ENDS
; Function compile flags: /Odspy
;	COMDAT ??_G?$CDynamicPoolEx@VCHeaderDecorator@NEffectUpdateDecorator@@@@UAEPAXI@Z
_TEXT	SEGMENT
_this$ = -4						; size = 4
___flags$ = 8						; size = 4
??_G?$CDynamicPoolEx@VCHeaderDecorator@NEffectUpdateDecorator@@@@UAEPAXI@Z PROC ; CDynamicPoolEx<NEffectUpdateDecorator::CHeaderDecorator>::`scalar deleting destructor', COMDAT
; _this$ = ecx
  00000	55		 push	 ebp
  00001	8b ec		 mov	 ebp, esp
  00003	51		 push	 ecx
  00004	89 4d fc	 mov	 DWORD PTR _this$[ebp], ecx
  00007	8b 4d fc	 mov	 ecx, DWORD PTR _this$[ebp]
  0000a	e8 00 00 00 00	 call	 ??1?$CDynamicPoolEx@VCHeaderDecorator@NEffectUpdateDecorator@@@@UAE@XZ ; CDynamicPoolEx<NEffectUpdateDecorator::CHeaderDecorator>::~CDynamicPoolEx<NEffectUpdateDecorator::CHeaderDecorator>
  0000f	8b 45 08	 mov	 eax, DWORD PTR ___flags$[ebp]
  00012	83 e0 01	 and	 eax, 1
  00015	74 0c		 je	 SHORT $LN2@scalar
  00017	6a 24		 push	 36			; 00000024H
  00019	ff 75 fc	 push	 DWORD PTR _this$[ebp]
  0001c	e8 00 00 00 00	 call	 ??3@YAXPAXI@Z		; operator delete
  00021	59		 pop	 ecx
  00022	59		 pop	 ecx
$LN2@scalar:
  00023	8b 45 fc	 mov	 eax, DWORD PTR _this$[ebp]
  00026	c9		 leave
  00027	c2 04 00	 ret	 4
??_G?$CDynamicPoolEx@VCHeaderDecorator@NEffectUpdateDecorator@@@@UAEPAXI@Z ENDP ; CDynamicPoolEx<NEffectUpdateDecorator::CHeaderDecorator>::`scalar deleting destructor'
_TEXT	ENDS
; Function compile flags: /Odspy
; File C:\Program Files (x86)\Microsoft Visual Studio\2019\Community\VC\Tools\MSVC\14.28.29333\include\vector
; File C:\Program Files (x86)\Microsoft Visual Studio\2019\Community\VC\Tools\MSVC\14.28.29333\include\xmemory
; File C:\Program Files (x86)\Microsoft Visual Studio\2019\Community\VC\Tools\MSVC\14.28.29333\include\vector
; File C:\Program Files (x86)\Microsoft Visual Studio\2019\Community\VC\Tools\MSVC\14.28.29333\include\xmemory
; File C:\Program Files (x86)\Microsoft Visual Studio\2019\Community\VC\Tools\MSVC\14.28.29333\include\vector
; File C:\Program Files (x86)\Microsoft Visual Studio\2019\Community\VC\Tools\MSVC\14.28.29333\include\xmemory
; File C:\Program Files (x86)\Microsoft Visual Studio\2019\Community\VC\Tools\MSVC\14.28.29333\include\vector
;	COMDAT ?_Tidy@?$vector@PAVCHeaderDecorator@NEffectUpdateDecorator@@V?$allocator@PAVCHeaderDecorator@NEffectUpdateDecorator@@@std@@@std@@AAEXXZ
_TEXT	SEGMENT
$T1 = -52						; size = 4
__Ptr$ = -48						; size = 4
__Count$ = -44						; size = 4
$T2 = -40						; size = 4
__First$ = -36						; size = 4
__Last$ = -32						; size = 4
$T3 = -28						; size = 4
$T4 = -24						; size = 4
__Myend$ = -20						; size = 4
__Mylast$ = -16						; size = 4
_this$ = -12						; size = 4
__My_data$ = -8						; size = 4
__Myfirst$ = -4						; size = 4
?_Tidy@?$vector@PAVCHeaderDecorator@NEffectUpdateDecorator@@V?$allocator@PAVCHeaderDecorator@NEffectUpdateDecorator@@@std@@@std@@AAEXXZ PROC ; std::vector<NEffectUpdateDecorator::CHeaderDecorator *,std::allocator<NEffectUpdateDecorator::CHeaderDecorator *> >::_Tidy, COMDAT
; _this$ = ecx

; 1686 :     void _Tidy() noexcept { // free all storage

  00000	55		 push	 ebp
  00001	8b ec		 mov	 ebp, esp
  00003	83 ec 34	 sub	 esp, 52			; 00000034H
  00006	89 4d f4	 mov	 DWORD PTR _this$[ebp], ecx

; 1687 :         auto& _My_data    = _Mypair._Myval2;

  00009	8b 45 f4	 mov	 eax, DWORD PTR _this$[ebp]
  0000c	89 45 f8	 mov	 DWORD PTR __My_data$[ebp], eax

; 1688 :         pointer& _Myfirst = _My_data._Myfirst;

  0000f	8b 45 f8	 mov	 eax, DWORD PTR __My_data$[ebp]
  00012	89 45 fc	 mov	 DWORD PTR __Myfirst$[ebp], eax

; 1689 :         pointer& _Mylast  = _My_data._Mylast;

  00015	8b 45 f8	 mov	 eax, DWORD PTR __My_data$[ebp]
  00018	83 c0 04	 add	 eax, 4
  0001b	89 45 f0	 mov	 DWORD PTR __Mylast$[ebp], eax

; 1690 :         pointer& _Myend   = _My_data._Myend;

  0001e	8b 45 f8	 mov	 eax, DWORD PTR __My_data$[ebp]
  00021	83 c0 08	 add	 eax, 8
  00024	89 45 ec	 mov	 DWORD PTR __Myend$[ebp], eax

; 1691 : 
; 1692 :         _My_data._Orphan_all();
; 1693 : 
; 1694 :         if (_Myfirst) { // destroy and deallocate old array

  00027	8b 45 fc	 mov	 eax, DWORD PTR __Myfirst$[ebp]
  0002a	83 38 00	 cmp	 DWORD PTR [eax], 0
  0002d	74 74		 je	 SHORT $LN3@Tidy

; 1695 :             _Destroy(_Myfirst, _Mylast);

  0002f	8b 45 f0	 mov	 eax, DWORD PTR __Mylast$[ebp]
  00032	8b 00		 mov	 eax, DWORD PTR [eax]
  00034	89 45 e0	 mov	 DWORD PTR __Last$[ebp], eax
  00037	8b 45 fc	 mov	 eax, DWORD PTR __Myfirst$[ebp]
  0003a	8b 00		 mov	 eax, DWORD PTR [eax]
  0003c	89 45 dc	 mov	 DWORD PTR __First$[ebp], eax

; 1733 :         return _Mypair._Get_first();

  0003f	8b 45 f4	 mov	 eax, DWORD PTR _this$[ebp]
; File C:\Program Files (x86)\Microsoft Visual Studio\2019\Community\VC\Tools\MSVC\14.28.29333\include\xmemory

; 1347 :         return *this;

  00042	89 45 e8	 mov	 DWORD PTR $T4[ebp], eax
; File C:\Program Files (x86)\Microsoft Visual Studio\2019\Community\VC\Tools\MSVC\14.28.29333\include\vector

; 1733 :         return _Mypair._Get_first();

  00045	8b 45 e8	 mov	 eax, DWORD PTR $T4[ebp]
  00048	89 45 e4	 mov	 DWORD PTR $T3[ebp], eax

; 1612 :         _Destroy_range(_First, _Last, _Getal());

  0004b	ff 75 e4	 push	 DWORD PTR $T3[ebp]
  0004e	ff 75 e0	 push	 DWORD PTR __Last$[ebp]
  00051	ff 75 dc	 push	 DWORD PTR __First$[ebp]
  00054	e8 00 00 00 00	 call	 ??$_Destroy_range@V?$allocator@PAVCHeaderDecorator@NEffectUpdateDecorator@@@std@@@std@@YAXPAPAVCHeaderDecorator@NEffectUpdateDecorator@@QAPAV12@AAV?$allocator@PAVCHeaderDecorator@NEffectUpdateDecorator@@@0@@Z ; std::_Destroy_range<std::allocator<NEffectUpdateDecorator::CHeaderDecorator *> >
  00059	83 c4 0c	 add	 esp, 12			; 0000000cH

; 1733 :         return _Mypair._Get_first();

  0005c	8b 45 f4	 mov	 eax, DWORD PTR _this$[ebp]
; File C:\Program Files (x86)\Microsoft Visual Studio\2019\Community\VC\Tools\MSVC\14.28.29333\include\xmemory

; 1347 :         return *this;

  0005f	89 45 d8	 mov	 DWORD PTR $T2[ebp], eax
; File C:\Program Files (x86)\Microsoft Visual Studio\2019\Community\VC\Tools\MSVC\14.28.29333\include\vector

; 1733 :         return _Mypair._Get_first();

  00062	8b 45 d8	 mov	 eax, DWORD PTR $T2[ebp]
  00065	89 45 cc	 mov	 DWORD PTR $T1[ebp], eax

; 1696 :             _Getal().deallocate(_Myfirst, static_cast<size_type>(_Myend - _Myfirst));

  00068	8b 45 ec	 mov	 eax, DWORD PTR __Myend$[ebp]
  0006b	8b 4d fc	 mov	 ecx, DWORD PTR __Myfirst$[ebp]
  0006e	8b 00		 mov	 eax, DWORD PTR [eax]
  00070	2b 01		 sub	 eax, DWORD PTR [ecx]
  00072	c1 f8 02	 sar	 eax, 2
  00075	89 45 d4	 mov	 DWORD PTR __Count$[ebp], eax
  00078	8b 45 fc	 mov	 eax, DWORD PTR __Myfirst$[ebp]
  0007b	8b 00		 mov	 eax, DWORD PTR [eax]
  0007d	89 45 d0	 mov	 DWORD PTR __Ptr$[ebp], eax
; File C:\Program Files (x86)\Microsoft Visual Studio\2019\Community\VC\Tools\MSVC\14.28.29333\include\xmemory

; 810  :         _Deallocate<_New_alignof<_Ty>>(_Ptr, sizeof(_Ty) * _Count);

  00080	8b 45 d4	 mov	 eax, DWORD PTR __Count$[ebp]
  00083	c1 e0 02	 shl	 eax, 2
  00086	50		 push	 eax
  00087	ff 75 d0	 push	 DWORD PTR __Ptr$[ebp]
  0008a	e8 00 00 00 00	 call	 ??$_Deallocate@$07$0A@@std@@YAXPAXI@Z ; std::_Deallocate<8,0>
  0008f	59		 pop	 ecx
  00090	59		 pop	 ecx
; File C:\Program Files (x86)\Microsoft Visual Studio\2019\Community\VC\Tools\MSVC\14.28.29333\include\vector

; 1698 :             _Myfirst = pointer();

  00091	8b 45 fc	 mov	 eax, DWORD PTR __Myfirst$[ebp]
  00094	83 20 00	 and	 DWORD PTR [eax], 0

; 1699 :             _Mylast  = pointer();

  00097	8b 45 f0	 mov	 eax, DWORD PTR __Mylast$[ebp]
  0009a	83 20 00	 and	 DWORD PTR [eax], 0

; 1700 :             _Myend   = pointer();

  0009d	8b 45 ec	 mov	 eax, DWORD PTR __Myend$[ebp]
  000a0	83 20 00	 and	 DWORD PTR [eax], 0
$LN3@Tidy:

; 1701 :         }
; 1702 :     }

  000a3	c9		 leave
  000a4	c3		 ret	 0
?_Tidy@?$vector@PAVCHeaderDecorator@NEffectUpdateDecorator@@V?$allocator@PAVCHeaderDecorator@NEffectUpdateDecorator@@@std@@@std@@AAEXXZ ENDP ; std::vector<NEffectUpdateDecorator::CHeaderDecorator *,std::allocator<NEffectUpdateDecorator::CHeaderDecorator *> >::_Tidy
_TEXT	ENDS
; Function compile flags: /Odspy
; File C:\Program Files (x86)\Microsoft Visual Studio\2019\Community\VC\Tools\MSVC\14.28.29333\include\vector
; File C:\Program Files (x86)\Microsoft Visual Studio\2019\Community\VC\Tools\MSVC\14.28.29333\include\xmemory
; File C:\Program Files (x86)\Microsoft Visual Studio\2019\Community\VC\Tools\MSVC\14.28.29333\include\vector
;	COMDAT ?clear@?$vector@PAVCHeaderDecorator@NEffectUpdateDecorator@@V?$allocator@PAVCHeaderDecorator@NEffectUpdateDecorator@@@std@@@std@@QAEXXZ
_TEXT	SEGMENT
__First$ = -32						; size = 4
__Last$ = -28						; size = 4
$T1 = -24						; size = 4
$T2 = -20						; size = 4
__Myfirst$ = -16					; size = 4
__Mylast$ = -12						; size = 4
_this$ = -8						; size = 4
__My_data$ = -4						; size = 4
?clear@?$vector@PAVCHeaderDecorator@NEffectUpdateDecorator@@V?$allocator@PAVCHeaderDecorator@NEffectUpdateDecorator@@@std@@@std@@QAEXXZ PROC ; std::vector<NEffectUpdateDecorator::CHeaderDecorator *,std::allocator<NEffectUpdateDecorator::CHeaderDecorator *> >::clear, COMDAT
; _this$ = ecx

; 1383 :     void clear() noexcept { // erase all

  00000	55		 push	 ebp
  00001	8b ec		 mov	 ebp, esp
  00003	83 ec 20	 sub	 esp, 32			; 00000020H
  00006	89 4d f8	 mov	 DWORD PTR _this$[ebp], ecx

; 1384 :         auto& _My_data    = _Mypair._Myval2;

  00009	8b 45 f8	 mov	 eax, DWORD PTR _this$[ebp]
  0000c	89 45 fc	 mov	 DWORD PTR __My_data$[ebp], eax

; 1385 :         pointer& _Myfirst = _My_data._Myfirst;

  0000f	8b 45 fc	 mov	 eax, DWORD PTR __My_data$[ebp]
  00012	89 45 f0	 mov	 DWORD PTR __Myfirst$[ebp], eax

; 1386 :         pointer& _Mylast  = _My_data._Mylast;

  00015	8b 45 fc	 mov	 eax, DWORD PTR __My_data$[ebp]
  00018	83 c0 04	 add	 eax, 4
  0001b	89 45 f4	 mov	 DWORD PTR __Mylast$[ebp], eax

; 1387 : 
; 1388 :         _My_data._Orphan_all();
; 1389 :         _Destroy(_Myfirst, _Mylast);

  0001e	8b 45 f4	 mov	 eax, DWORD PTR __Mylast$[ebp]
  00021	8b 00		 mov	 eax, DWORD PTR [eax]
  00023	89 45 e4	 mov	 DWORD PTR __Last$[ebp], eax
  00026	8b 45 f0	 mov	 eax, DWORD PTR __Myfirst$[ebp]
  00029	8b 00		 mov	 eax, DWORD PTR [eax]
  0002b	89 45 e0	 mov	 DWORD PTR __First$[ebp], eax

; 1733 :         return _Mypair._Get_first();

  0002e	8b 45 f8	 mov	 eax, DWORD PTR _this$[ebp]
; File C:\Program Files (x86)\Microsoft Visual Studio\2019\Community\VC\Tools\MSVC\14.28.29333\include\xmemory

; 1347 :         return *this;

  00031	89 45 ec	 mov	 DWORD PTR $T2[ebp], eax
; File C:\Program Files (x86)\Microsoft Visual Studio\2019\Community\VC\Tools\MSVC\14.28.29333\include\vector

; 1733 :         return _Mypair._Get_first();

  00034	8b 45 ec	 mov	 eax, DWORD PTR $T2[ebp]
  00037	89 45 e8	 mov	 DWORD PTR $T1[ebp], eax

; 1612 :         _Destroy_range(_First, _Last, _Getal());

  0003a	ff 75 e8	 push	 DWORD PTR $T1[ebp]
  0003d	ff 75 e4	 push	 DWORD PTR __Last$[ebp]
  00040	ff 75 e0	 push	 DWORD PTR __First$[ebp]
  00043	e8 00 00 00 00	 call	 ??$_Destroy_range@V?$allocator@PAVCHeaderDecorator@NEffectUpdateDecorator@@@std@@@std@@YAXPAPAVCHeaderDecorator@NEffectUpdateDecorator@@QAPAV12@AAV?$allocator@PAVCHeaderDecorator@NEffectUpdateDecorator@@@0@@Z ; std::_Destroy_range<std::allocator<NEffectUpdateDecorator::CHeaderDecorator *> >
  00048	83 c4 0c	 add	 esp, 12			; 0000000cH

; 1390 :         _Mylast = _Myfirst;

  0004b	8b 45 f4	 mov	 eax, DWORD PTR __Mylast$[ebp]
  0004e	8b 4d f0	 mov	 ecx, DWORD PTR __Myfirst$[ebp]
  00051	8b 09		 mov	 ecx, DWORD PTR [ecx]
  00053	89 08		 mov	 DWORD PTR [eax], ecx

; 1391 :     }

  00055	c9		 leave
  00056	c3		 ret	 0
?clear@?$vector@PAVCHeaderDecorator@NEffectUpdateDecorator@@V?$allocator@PAVCHeaderDecorator@NEffectUpdateDecorator@@@std@@@std@@QAEXXZ ENDP ; std::vector<NEffectUpdateDecorator::CHeaderDecorator *,std::allocator<NEffectUpdateDecorator::CHeaderDecorator *> >::clear
_TEXT	ENDS
; Function compile flags: /Odspy
; File D:\Metin2 Server Files\mainline\SRC_2014\Metin2Client\eterLib\Pool.h
;	COMDAT ?Delete@?$CDynamicPoolEx@VCHeaderDecorator@NEffectUpdateDecorator@@@@KAXPAVCHeaderDecorator@NEffectUpdateDecorator@@@Z
_TEXT	SEGMENT
_pkData$ = 8						; size = 4
?Delete@?$CDynamicPoolEx@VCHeaderDecorator@NEffectUpdateDecorator@@@@KAXPAVCHeaderDecorator@NEffectUpdateDecorator@@@Z PROC ; CDynamicPoolEx<NEffectUpdateDecorator::CHeaderDecorator>::Delete, COMDAT

; 223  : 		{

  00000	55		 push	 ebp
  00001	8b ec		 mov	 ebp, esp

; 224  : 			::operator delete(pkData);

  00003	ff 75 08	 push	 DWORD PTR _pkData$[ebp]
  00006	e8 00 00 00 00	 call	 ??3@YAXPAX@Z		; operator delete
  0000b	59		 pop	 ecx

; 225  : 		}

  0000c	5d		 pop	 ebp
  0000d	c3		 ret	 0
?Delete@?$CDynamicPoolEx@VCHeaderDecorator@NEffectUpdateDecorator@@@@KAXPAVCHeaderDecorator@NEffectUpdateDecorator@@@Z ENDP ; CDynamicPoolEx<NEffectUpdateDecorator::CHeaderDecorator>::Delete
_TEXT	ENDS
; Function compile flags: /Odspy
; File D:\Metin2 Server Files\mainline\SRC_2014\Metin2Client\eterLib\Pool.h
; File C:\Program Files (x86)\Microsoft Visual Studio\2019\Community\VC\Tools\MSVC\14.28.29333\include\vector
; File C:\Program Files (x86)\Microsoft Visual Studio\2019\Community\VC\Tools\MSVC\14.28.29333\include\xstddef
; File C:\Program Files (x86)\Microsoft Visual Studio\2019\Community\VC\Tools\MSVC\14.28.29333\include\vector
; File C:\Program Files (x86)\Microsoft Visual Studio\2019\Community\VC\Tools\MSVC\14.28.29333\include\xstddef
; File C:\Program Files (x86)\Microsoft Visual Studio\2019\Community\VC\Tools\MSVC\14.28.29333\include\vector
; File D:\Metin2 Server Files\mainline\SRC_2014\Metin2Client\eterLib\Pool.h
;	COMDAT ?Destroy@?$CDynamicPoolEx@VCHeaderDecorator@NEffectUpdateDecorator@@@@QAEXXZ
_TEXT	SEGMENT
$T1 = -44						; size = 4
$T2 = -40						; size = 4
$T3 = -36						; size = 4
$T4 = -32						; size = 4
$T5 = -28						; size = 4
___param0$ = -24					; size = 4
$T6 = -20						; size = 4
___param0$ = -16					; size = 4
__My_data$7 = -12					; size = 4
__My_data$8 = -8					; size = 4
_this$ = -4						; size = 4
?Destroy@?$CDynamicPoolEx@VCHeaderDecorator@NEffectUpdateDecorator@@@@QAEXXZ PROC ; CDynamicPoolEx<NEffectUpdateDecorator::CHeaderDecorator>::Destroy, COMDAT
; _this$ = ecx

; 150  : 		{

  00000	55		 push	 ebp
  00001	8b ec		 mov	 ebp, esp
  00003	83 ec 2c	 sub	 esp, 44			; 0000002cH
  00006	89 4d fc	 mov	 DWORD PTR _this$[ebp], ecx
; File C:\Program Files (x86)\Microsoft Visual Studio\2019\Community\VC\Tools\MSVC\14.28.29333\include\vector

; 1420 :         auto& _My_data = _Mypair._Myval2;

  00009	8b 45 fc	 mov	 eax, DWORD PTR _this$[ebp]
  0000c	83 c0 04	 add	 eax, 4
  0000f	89 45 f8	 mov	 DWORD PTR __My_data$8[ebp], eax
; File C:\Program Files (x86)\Microsoft Visual Studio\2019\Community\VC\Tools\MSVC\14.28.29333\include\xstddef

; 275  :     return __builtin_addressof(_Val);

  00012	8b 45 f8	 mov	 eax, DWORD PTR __My_data$8[ebp]
  00015	89 45 d8	 mov	 DWORD PTR $T2[ebp], eax
; File C:\Program Files (x86)\Microsoft Visual Studio\2019\Community\VC\Tools\MSVC\14.28.29333\include\vector

; 1421 :         return iterator(_My_data._Mylast, _STD addressof(_My_data));

  00018	8b 45 f8	 mov	 eax, DWORD PTR __My_data$8[ebp]
  0001b	8b 40 04	 mov	 eax, DWORD PTR [eax+4]
  0001e	89 45 f0	 mov	 DWORD PTR ___param0$[ebp], eax

; 42   :     _Vector_const_iterator(_Tptr _Parg, const _Container_base* _Pvector) noexcept : _Ptr(_Parg) {

  00021	8b 45 f0	 mov	 eax, DWORD PTR ___param0$[ebp]
  00024	89 45 ec	 mov	 DWORD PTR $T6[ebp], eax

; 1421 :         return iterator(_My_data._Mylast, _STD addressof(_My_data));

  00027	8d 45 ec	 lea	 eax, DWORD PTR $T6[ebp]
  0002a	89 45 e0	 mov	 DWORD PTR $T4[ebp], eax

; 1410 :         auto& _My_data = _Mypair._Myval2;

  0002d	8b 45 fc	 mov	 eax, DWORD PTR _this$[ebp]
  00030	83 c0 04	 add	 eax, 4
  00033	89 45 f4	 mov	 DWORD PTR __My_data$7[ebp], eax
; File C:\Program Files (x86)\Microsoft Visual Studio\2019\Community\VC\Tools\MSVC\14.28.29333\include\xstddef

; 275  :     return __builtin_addressof(_Val);

  00036	8b 45 f4	 mov	 eax, DWORD PTR __My_data$7[ebp]
  00039	89 45 d4	 mov	 DWORD PTR $T1[ebp], eax
; File C:\Program Files (x86)\Microsoft Visual Studio\2019\Community\VC\Tools\MSVC\14.28.29333\include\vector

; 1411 :         return iterator(_My_data._Myfirst, _STD addressof(_My_data));

  0003c	8b 45 f4	 mov	 eax, DWORD PTR __My_data$7[ebp]
  0003f	8b 00		 mov	 eax, DWORD PTR [eax]
  00041	89 45 e8	 mov	 DWORD PTR ___param0$[ebp], eax

; 42   :     _Vector_const_iterator(_Tptr _Parg, const _Container_base* _Pvector) noexcept : _Ptr(_Parg) {

  00044	8b 45 e8	 mov	 eax, DWORD PTR ___param0$[ebp]
  00047	89 45 e4	 mov	 DWORD PTR $T5[ebp], eax

; 1411 :         return iterator(_My_data._Myfirst, _STD addressof(_My_data));

  0004a	8d 45 e4	 lea	 eax, DWORD PTR $T5[ebp]
  0004d	89 45 dc	 mov	 DWORD PTR $T3[ebp], eax
; File D:\Metin2 Server Files\mainline\SRC_2014\Metin2Client\eterLib\Pool.h

; 160  : 			std::for_each(m_kVct_pkData.begin(), m_kVct_pkData.end(), Delete);

  00050	68 00 00 00 00	 push	 OFFSET ?Delete@?$CDynamicPoolEx@VCHeaderDecorator@NEffectUpdateDecorator@@@@KAXPAVCHeaderDecorator@NEffectUpdateDecorator@@@Z ; CDynamicPoolEx<NEffectUpdateDecorator::CHeaderDecorator>::Delete
  00055	8b 45 e0	 mov	 eax, DWORD PTR $T4[ebp]
  00058	ff 30		 push	 DWORD PTR [eax]
  0005a	8b 45 dc	 mov	 eax, DWORD PTR $T3[ebp]
  0005d	ff 30		 push	 DWORD PTR [eax]
  0005f	e8 00 00 00 00	 call	 ??$for_each@V?$_Vector_iterator@V?$_Vector_val@U?$_Simple_types@PAVCHeaderDecorator@NEffectUpdateDecorator@@@std@@@std@@@std@@P6AXPAVCHeaderDecorator@NEffectUpdateDecorator@@@Z@std@@YAP6AXPAVCHeaderDecorator@NEffectUpdateDecorator@@@ZV?$_Vector_iterator@V?$_Vector_val@U?$_Simple_types@PAVCHeaderDecorator@NEffectUpdateDecorator@@@std@@@std@@@0@1P6AX0@Z@Z ; std::for_each<std::_Vector_iterator<std::_Vector_val<std::_Simple_types<NEffectUpdateDecorator::CHeaderDecorator *> > >,void (__cdecl*)(NEffectUpdateDecorator::CHeaderDecorator *)>
  00064	83 c4 0c	 add	 esp, 12			; 0000000cH

; 161  : 			m_kVct_pkData.clear();

  00067	8b 4d fc	 mov	 ecx, DWORD PTR _this$[ebp]
  0006a	83 c1 04	 add	 ecx, 4
  0006d	e8 00 00 00 00	 call	 ?clear@?$vector@PAVCHeaderDecorator@NEffectUpdateDecorator@@V?$allocator@PAVCHeaderDecorator@NEffectUpdateDecorator@@@std@@@std@@QAEXXZ ; std::vector<NEffectUpdateDecorator::CHeaderDecorator *,std::allocator<NEffectUpdateDecorator::CHeaderDecorator *> >::clear

; 162  : 			m_kVct_pkFree.clear();

  00072	8b 4d fc	 mov	 ecx, DWORD PTR _this$[ebp]
  00075	83 c1 10	 add	 ecx, 16			; 00000010H
  00078	e8 00 00 00 00	 call	 ?clear@?$vector@PAVCHeaderDecorator@NEffectUpdateDecorator@@V?$allocator@PAVCHeaderDecorator@NEffectUpdateDecorator@@@std@@@std@@QAEXXZ ; std::vector<NEffectUpdateDecorator::CHeaderDecorator *,std::allocator<NEffectUpdateDecorator::CHeaderDecorator *> >::clear

; 163  : 		}

  0007d	c9		 leave
  0007e	c3		 ret	 0
?Destroy@?$CDynamicPoolEx@VCHeaderDecorator@NEffectUpdateDecorator@@@@QAEXXZ ENDP ; CDynamicPoolEx<NEffectUpdateDecorator::CHeaderDecorator>::Destroy
_TEXT	ENDS
; Function compile flags: /Odspy
; File D:\Metin2 Server Files\mainline\SRC_2014\Metin2Client\eterLib\Pool.h
; File C:\Program Files (x86)\Microsoft Visual Studio\2019\Community\VC\Tools\MSVC\14.28.29333\include\vector
; File D:\Metin2 Server Files\mainline\SRC_2014\Metin2Client\eterLib\Pool.h
; File C:\Program Files (x86)\Microsoft Visual Studio\2019\Community\VC\Tools\MSVC\14.28.29333\include\vector
; File D:\Metin2 Server Files\mainline\SRC_2014\Metin2Client\eterLib\Pool.h
;	COMDAT ??1?$CDynamicPoolEx@VCHeaderDecorator@NEffectUpdateDecorator@@@@UAE@XZ
_TEXT	SEGMENT
_this$ = -16						; size = 4
__$EHRec$ = -12						; size = 12
??1?$CDynamicPoolEx@VCHeaderDecorator@NEffectUpdateDecorator@@@@UAE@XZ PROC ; CDynamicPoolEx<NEffectUpdateDecorator::CHeaderDecorator>::~CDynamicPoolEx<NEffectUpdateDecorator::CHeaderDecorator>, COMDAT
; _this$ = ecx

; 132  : 		{

  00000	55		 push	 ebp
  00001	8b ec		 mov	 ebp, esp
  00003	6a ff		 push	 -1
  00005	68 00 00 00 00	 push	 __ehhandler$??1?$CDynamicPoolEx@VCHeaderDecorator@NEffectUpdateDecorator@@@@UAE@XZ
  0000a	64 a1 00 00 00
	00		 mov	 eax, DWORD PTR fs:0
  00010	50		 push	 eax
  00011	51		 push	 ecx
  00012	a1 00 00 00 00	 mov	 eax, DWORD PTR ___security_cookie
  00017	33 c5		 xor	 eax, ebp
  00019	50		 push	 eax
  0001a	8d 45 f4	 lea	 eax, DWORD PTR __$EHRec$[ebp]
  0001d	64 a3 00 00 00
	00		 mov	 DWORD PTR fs:0, eax
  00023	89 4d f0	 mov	 DWORD PTR _this$[ebp], ecx
  00026	8b 45 f0	 mov	 eax, DWORD PTR _this$[ebp]
  00029	c7 00 00 00 00
	00		 mov	 DWORD PTR [eax], OFFSET ??_7?$CDynamicPoolEx@VCHeaderDecorator@NEffectUpdateDecorator@@@@6B@

; 133  : 			assert(m_kVct_pkFree.size()==m_kVct_pkData.size());
; 134  : 			Destroy();

  0002f	8b 4d f0	 mov	 ecx, DWORD PTR _this$[ebp]
  00032	e8 00 00 00 00	 call	 ?Destroy@?$CDynamicPoolEx@VCHeaderDecorator@NEffectUpdateDecorator@@@@QAEXXZ ; CDynamicPoolEx<NEffectUpdateDecorator::CHeaderDecorator>::Destroy

; 142  : 		}

  00037	8b 4d f0	 mov	 ecx, DWORD PTR _this$[ebp]
  0003a	83 c1 10	 add	 ecx, 16			; 00000010H
; File C:\Program Files (x86)\Microsoft Visual Studio\2019\Community\VC\Tools\MSVC\14.28.29333\include\vector

; 673  :         _Tidy();

  0003d	e8 00 00 00 00	 call	 ?_Tidy@?$vector@PAVCHeaderDecorator@NEffectUpdateDecorator@@V?$allocator@PAVCHeaderDecorator@NEffectUpdateDecorator@@@std@@@std@@AAEXXZ ; std::vector<NEffectUpdateDecorator::CHeaderDecorator *,std::allocator<NEffectUpdateDecorator::CHeaderDecorator *> >::_Tidy
; File D:\Metin2 Server Files\mainline\SRC_2014\Metin2Client\eterLib\Pool.h

; 142  : 		}

  00042	8b 4d f0	 mov	 ecx, DWORD PTR _this$[ebp]
  00045	83 c1 04	 add	 ecx, 4
; File C:\Program Files (x86)\Microsoft Visual Studio\2019\Community\VC\Tools\MSVC\14.28.29333\include\vector

; 673  :         _Tidy();

  00048	e8 00 00 00 00	 call	 ?_Tidy@?$vector@PAVCHeaderDecorator@NEffectUpdateDecorator@@V?$allocator@PAVCHeaderDecorator@NEffectUpdateDecorator@@@std@@@std@@AAEXXZ ; std::vector<NEffectUpdateDecorator::CHeaderDecorator *,std::allocator<NEffectUpdateDecorator::CHeaderDecorator *> >::_Tidy
; File D:\Metin2 Server Files\mainline\SRC_2014\Metin2Client\eterLib\Pool.h

; 142  : 		}

  0004d	8b 4d f4	 mov	 ecx, DWORD PTR __$EHRec$[ebp]
  00050	64 89 0d 00 00
	00 00		 mov	 DWORD PTR fs:0, ecx
  00057	59		 pop	 ecx
  00058	c9		 leave
  00059	c3		 ret	 0
  0005a	cc		 int	 3
  0005b	cc		 int	 3
  0005c	cc		 int	 3
  0005d	cc		 int	 3
  0005e	cc		 int	 3
_TEXT	ENDS
;	COMDAT text$x
text$x	SEGMENT
__ehhandler$??1?$CDynamicPoolEx@VCHeaderDecorator@NEffectUpdateDecorator@@@@UAE@XZ:
  00000	90		 npad	 1
  00001	90		 npad	 1
  00002	8b 54 24 08	 mov	 edx, DWORD PTR [esp+8]
  00006	8d 42 0c	 lea	 eax, DWORD PTR [edx+12]
  00009	8b 4a f8	 mov	 ecx, DWORD PTR [edx-8]
  0000c	33 c8		 xor	 ecx, eax
  0000e	e8 00 00 00 00	 call	 @__security_check_cookie@4
  00013	b8 00 00 00 00	 mov	 eax, OFFSET __ehfuncinfo$??1?$CDynamicPoolEx@VCHeaderDecorator@NEffectUpdateDecorator@@@@UAE@XZ
  00018	e9 00 00 00 00	 jmp	 ___CxxFrameHandler3
text$x	ENDS
??1?$CDynamicPoolEx@VCHeaderDecorator@NEffectUpdateDecorator@@@@UAE@XZ ENDP ; CDynamicPoolEx<NEffectUpdateDecorator::CHeaderDecorator>::~CDynamicPoolEx<NEffectUpdateDecorator::CHeaderDecorator>
; Function compile flags: /Odspy
; File D:\Metin2 Server Files\mainline\SRC_2014\Metin2Client\eterLib\Pool.h
; File C:\Program Files (x86)\Microsoft Visual Studio\2019\Community\VC\Tools\MSVC\14.28.29333\include\vector
; File C:\Program Files (x86)\Microsoft Visual Studio\2019\Community\VC\Tools\MSVC\14.28.29333\include\xmemory
; File C:\Program Files (x86)\Microsoft Visual Studio\2019\Community\VC\Tools\MSVC\14.28.29333\include\vector
; File D:\Metin2 Server Files\mainline\SRC_2014\Metin2Client\eterLib\Pool.h
; File C:\Program Files (x86)\Microsoft Visual Studio\2019\Community\VC\Tools\MSVC\14.28.29333\include\vector
; File C:\Program Files (x86)\Microsoft Visual Studio\2019\Community\VC\Tools\MSVC\14.28.29333\include\xmemory
; File C:\Program Files (x86)\Microsoft Visual Studio\2019\Community\VC\Tools\MSVC\14.28.29333\include\vector
; File D:\Metin2 Server Files\mainline\SRC_2014\Metin2Client\eterLib\Pool.h
;	COMDAT ??0?$CDynamicPoolEx@VCHeaderDecorator@NEffectUpdateDecorator@@@@QAE@XZ
_TEXT	SEGMENT
_this$ = -28						; size = 4
_this$ = -24						; size = 4
_this$ = -20						; size = 4
_this$ = -16						; size = 4
_this$1 = -12						; size = 4
_this$2 = -8						; size = 4
_this$ = -4						; size = 4
??0?$CDynamicPoolEx@VCHeaderDecorator@NEffectUpdateDecorator@@@@QAE@XZ PROC ; CDynamicPoolEx<NEffectUpdateDecorator::CHeaderDecorator>::CDynamicPoolEx<NEffectUpdateDecorator::CHeaderDecorator>, COMDAT
; _this$ = ecx

; 126  : 		CDynamicPoolEx()

  00000	55		 push	 ebp
  00001	8b ec		 mov	 ebp, esp
  00003	83 ec 1c	 sub	 esp, 28			; 0000001cH
  00006	89 4d fc	 mov	 DWORD PTR _this$[ebp], ecx

; 127  : 		{

  00009	8b 45 fc	 mov	 eax, DWORD PTR _this$[ebp]
  0000c	c7 00 00 00 00
	00		 mov	 DWORD PTR [eax], OFFSET ??_7?$CDynamicPoolEx@VCHeaderDecorator@NEffectUpdateDecorator@@@@6B@
  00012	8b 45 fc	 mov	 eax, DWORD PTR _this$[ebp]
  00015	83 c0 04	 add	 eax, 4
  00018	89 45 f0	 mov	 DWORD PTR _this$[ebp], eax
; File C:\Program Files (x86)\Microsoft Visual Studio\2019\Community\VC\Tools\MSVC\14.28.29333\include\vector

; 445  :     vector() noexcept(is_nothrow_default_constructible_v<_Alty>) : _Mypair(_Zero_then_variadic_args_t{}) {

  0001b	8b 45 f0	 mov	 eax, DWORD PTR _this$[ebp]
  0001e	89 45 ec	 mov	 DWORD PTR _this$[ebp], eax
; File C:\Program Files (x86)\Microsoft Visual Studio\2019\Community\VC\Tools\MSVC\14.28.29333\include\xmemory

; 1339 :         : _Ty1(), _Myval2(_STD forward<_Other2>(_Val2)...) {}

  00021	8b 45 ec	 mov	 eax, DWORD PTR _this$[ebp]
  00024	89 45 f8	 mov	 DWORD PTR _this$2[ebp], eax
; File C:\Program Files (x86)\Microsoft Visual Studio\2019\Community\VC\Tools\MSVC\14.28.29333\include\vector

; 375  :     _Vector_val() noexcept : _Myfirst(), _Mylast(), _Myend() {}

  00027	8b 45 f8	 mov	 eax, DWORD PTR _this$2[ebp]
  0002a	83 20 00	 and	 DWORD PTR [eax], 0
  0002d	8b 45 f8	 mov	 eax, DWORD PTR _this$2[ebp]
  00030	83 60 04 00	 and	 DWORD PTR [eax+4], 0
  00034	8b 45 f8	 mov	 eax, DWORD PTR _this$2[ebp]
  00037	83 60 08 00	 and	 DWORD PTR [eax+8], 0
; File D:\Metin2 Server Files\mainline\SRC_2014\Metin2Client\eterLib\Pool.h

; 127  : 		{

  0003b	8b 45 fc	 mov	 eax, DWORD PTR _this$[ebp]
  0003e	83 c0 10	 add	 eax, 16			; 00000010H
  00041	89 45 e8	 mov	 DWORD PTR _this$[ebp], eax
; File C:\Program Files (x86)\Microsoft Visual Studio\2019\Community\VC\Tools\MSVC\14.28.29333\include\vector

; 445  :     vector() noexcept(is_nothrow_default_constructible_v<_Alty>) : _Mypair(_Zero_then_variadic_args_t{}) {

  00044	8b 45 e8	 mov	 eax, DWORD PTR _this$[ebp]
  00047	89 45 e4	 mov	 DWORD PTR _this$[ebp], eax
; File C:\Program Files (x86)\Microsoft Visual Studio\2019\Community\VC\Tools\MSVC\14.28.29333\include\xmemory

; 1339 :         : _Ty1(), _Myval2(_STD forward<_Other2>(_Val2)...) {}

  0004a	8b 45 e4	 mov	 eax, DWORD PTR _this$[ebp]
  0004d	89 45 f4	 mov	 DWORD PTR _this$1[ebp], eax
; File C:\Program Files (x86)\Microsoft Visual Studio\2019\Community\VC\Tools\MSVC\14.28.29333\include\vector

; 375  :     _Vector_val() noexcept : _Myfirst(), _Mylast(), _Myend() {}

  00050	8b 45 f4	 mov	 eax, DWORD PTR _this$1[ebp]
  00053	83 20 00	 and	 DWORD PTR [eax], 0
  00056	8b 45 f4	 mov	 eax, DWORD PTR _this$1[ebp]
  00059	83 60 04 00	 and	 DWORD PTR [eax+4], 0
  0005d	8b 45 f4	 mov	 eax, DWORD PTR _this$1[ebp]
  00060	83 60 08 00	 and	 DWORD PTR [eax+8], 0
; File D:\Metin2 Server Files\mainline\SRC_2014\Metin2Client\eterLib\Pool.h

; 128  : 			m_uInitCapacity=0;

  00064	8b 45 fc	 mov	 eax, DWORD PTR _this$[ebp]
  00067	83 60 1c 00	 and	 DWORD PTR [eax+28], 0

; 129  : 			m_uUsedCapacity=0;

  0006b	8b 45 fc	 mov	 eax, DWORD PTR _this$[ebp]
  0006e	83 60 20 00	 and	 DWORD PTR [eax+32], 0

; 130  : 		}

  00072	8b 45 fc	 mov	 eax, DWORD PTR _this$[ebp]
  00075	c9		 leave
  00076	c3		 ret	 0
??0?$CDynamicPoolEx@VCHeaderDecorator@NEffectUpdateDecorator@@@@QAE@XZ ENDP ; CDynamicPoolEx<NEffectUpdateDecorator::CHeaderDecorator>::CDynamicPoolEx<NEffectUpdateDecorator::CHeaderDecorator>
_TEXT	ENDS
; Function compile flags: /Odspy
;	COMDAT ??_G?$CDynamicPoolEx@VCNullDecorator@NEffectUpdateDecorator@@@@UAEPAXI@Z
_TEXT	SEGMENT
_this$ = -4						; size = 4
___flags$ = 8						; size = 4
??_G?$CDynamicPoolEx@VCNullDecorator@NEffectUpdateDecorator@@@@UAEPAXI@Z PROC ; CDynamicPoolEx<NEffectUpdateDecorator::CNullDecorator>::`scalar deleting destructor', COMDAT
; _this$ = ecx
  00000	55		 push	 ebp
  00001	8b ec		 mov	 ebp, esp
  00003	51		 push	 ecx
  00004	89 4d fc	 mov	 DWORD PTR _this$[ebp], ecx
  00007	8b 4d fc	 mov	 ecx, DWORD PTR _this$[ebp]
  0000a	e8 00 00 00 00	 call	 ??1?$CDynamicPoolEx@VCNullDecorator@NEffectUpdateDecorator@@@@UAE@XZ ; CDynamicPoolEx<NEffectUpdateDecorator::CNullDecorator>::~CDynamicPoolEx<NEffectUpdateDecorator::CNullDecorator>
  0000f	8b 45 08	 mov	 eax, DWORD PTR ___flags$[ebp]
  00012	83 e0 01	 and	 eax, 1
  00015	74 0c		 je	 SHORT $LN2@scalar
  00017	6a 24		 push	 36			; 00000024H
  00019	ff 75 fc	 push	 DWORD PTR _this$[ebp]
  0001c	e8 00 00 00 00	 call	 ??3@YAXPAXI@Z		; operator delete
  00021	59		 pop	 ecx
  00022	59		 pop	 ecx
$LN2@scalar:
  00023	8b 45 fc	 mov	 eax, DWORD PTR _this$[ebp]
  00026	c9		 leave
  00027	c2 04 00	 ret	 4
??_G?$CDynamicPoolEx@VCNullDecorator@NEffectUpdateDecorator@@@@UAEPAXI@Z ENDP ; CDynamicPoolEx<NEffectUpdateDecorator::CNullDecorator>::`scalar deleting destructor'
_TEXT	ENDS
; Function compile flags: /Odspy
; File C:\Program Files (x86)\Microsoft Visual Studio\2019\Community\VC\Tools\MSVC\14.28.29333\include\vector
; File C:\Program Files (x86)\Microsoft Visual Studio\2019\Community\VC\Tools\MSVC\14.28.29333\include\xmemory
; File C:\Program Files (x86)\Microsoft Visual Studio\2019\Community\VC\Tools\MSVC\14.28.29333\include\vector
; File C:\Program Files (x86)\Microsoft Visual Studio\2019\Community\VC\Tools\MSVC\14.28.29333\include\xmemory
; File C:\Program Files (x86)\Microsoft Visual Studio\2019\Community\VC\Tools\MSVC\14.28.29333\include\vector
; File C:\Program Files (x86)\Microsoft Visual Studio\2019\Community\VC\Tools\MSVC\14.28.29333\include\xmemory
; File C:\Program Files (x86)\Microsoft Visual Studio\2019\Community\VC\Tools\MSVC\14.28.29333\include\vector
;	COMDAT ?_Tidy@?$vector@PAVCNullDecorator@NEffectUpdateDecorator@@V?$allocator@PAVCNullDecorator@NEffectUpdateDecorator@@@std@@@std@@AAEXXZ
_TEXT	SEGMENT
$T1 = -52						; size = 4
__Ptr$ = -48						; size = 4
__Count$ = -44						; size = 4
$T2 = -40						; size = 4
__First$ = -36						; size = 4
__Last$ = -32						; size = 4
$T3 = -28						; size = 4
$T4 = -24						; size = 4
__Myend$ = -20						; size = 4
__Mylast$ = -16						; size = 4
_this$ = -12						; size = 4
__My_data$ = -8						; size = 4
__Myfirst$ = -4						; size = 4
?_Tidy@?$vector@PAVCNullDecorator@NEffectUpdateDecorator@@V?$allocator@PAVCNullDecorator@NEffectUpdateDecorator@@@std@@@std@@AAEXXZ PROC ; std::vector<NEffectUpdateDecorator::CNullDecorator *,std::allocator<NEffectUpdateDecorator::CNullDecorator *> >::_Tidy, COMDAT
; _this$ = ecx

; 1686 :     void _Tidy() noexcept { // free all storage

  00000	55		 push	 ebp
  00001	8b ec		 mov	 ebp, esp
  00003	83 ec 34	 sub	 esp, 52			; 00000034H
  00006	89 4d f4	 mov	 DWORD PTR _this$[ebp], ecx

; 1687 :         auto& _My_data    = _Mypair._Myval2;

  00009	8b 45 f4	 mov	 eax, DWORD PTR _this$[ebp]
  0000c	89 45 f8	 mov	 DWORD PTR __My_data$[ebp], eax

; 1688 :         pointer& _Myfirst = _My_data._Myfirst;

  0000f	8b 45 f8	 mov	 eax, DWORD PTR __My_data$[ebp]
  00012	89 45 fc	 mov	 DWORD PTR __Myfirst$[ebp], eax

; 1689 :         pointer& _Mylast  = _My_data._Mylast;

  00015	8b 45 f8	 mov	 eax, DWORD PTR __My_data$[ebp]
  00018	83 c0 04	 add	 eax, 4
  0001b	89 45 f0	 mov	 DWORD PTR __Mylast$[ebp], eax

; 1690 :         pointer& _Myend   = _My_data._Myend;

  0001e	8b 45 f8	 mov	 eax, DWORD PTR __My_data$[ebp]
  00021	83 c0 08	 add	 eax, 8
  00024	89 45 ec	 mov	 DWORD PTR __Myend$[ebp], eax

; 1691 : 
; 1692 :         _My_data._Orphan_all();
; 1693 : 
; 1694 :         if (_Myfirst) { // destroy and deallocate old array

  00027	8b 45 fc	 mov	 eax, DWORD PTR __Myfirst$[ebp]
  0002a	83 38 00	 cmp	 DWORD PTR [eax], 0
  0002d	74 74		 je	 SHORT $LN3@Tidy

; 1695 :             _Destroy(_Myfirst, _Mylast);

  0002f	8b 45 f0	 mov	 eax, DWORD PTR __Mylast$[ebp]
  00032	8b 00		 mov	 eax, DWORD PTR [eax]
  00034	89 45 e0	 mov	 DWORD PTR __Last$[ebp], eax
  00037	8b 45 fc	 mov	 eax, DWORD PTR __Myfirst$[ebp]
  0003a	8b 00		 mov	 eax, DWORD PTR [eax]
  0003c	89 45 dc	 mov	 DWORD PTR __First$[ebp], eax

; 1733 :         return _Mypair._Get_first();

  0003f	8b 45 f4	 mov	 eax, DWORD PTR _this$[ebp]
; File C:\Program Files (x86)\Microsoft Visual Studio\2019\Community\VC\Tools\MSVC\14.28.29333\include\xmemory

; 1347 :         return *this;

  00042	89 45 e8	 mov	 DWORD PTR $T4[ebp], eax
; File C:\Program Files (x86)\Microsoft Visual Studio\2019\Community\VC\Tools\MSVC\14.28.29333\include\vector

; 1733 :         return _Mypair._Get_first();

  00045	8b 45 e8	 mov	 eax, DWORD PTR $T4[ebp]
  00048	89 45 e4	 mov	 DWORD PTR $T3[ebp], eax

; 1612 :         _Destroy_range(_First, _Last, _Getal());

  0004b	ff 75 e4	 push	 DWORD PTR $T3[ebp]
  0004e	ff 75 e0	 push	 DWORD PTR __Last$[ebp]
  00051	ff 75 dc	 push	 DWORD PTR __First$[ebp]
  00054	e8 00 00 00 00	 call	 ??$_Destroy_range@V?$allocator@PAVCNullDecorator@NEffectUpdateDecorator@@@std@@@std@@YAXPAPAVCNullDecorator@NEffectUpdateDecorator@@QAPAV12@AAV?$allocator@PAVCNullDecorator@NEffectUpdateDecorator@@@0@@Z ; std::_Destroy_range<std::allocator<NEffectUpdateDecorator::CNullDecorator *> >
  00059	83 c4 0c	 add	 esp, 12			; 0000000cH

; 1733 :         return _Mypair._Get_first();

  0005c	8b 45 f4	 mov	 eax, DWORD PTR _this$[ebp]
; File C:\Program Files (x86)\Microsoft Visual Studio\2019\Community\VC\Tools\MSVC\14.28.29333\include\xmemory

; 1347 :         return *this;

  0005f	89 45 d8	 mov	 DWORD PTR $T2[ebp], eax
; File C:\Program Files (x86)\Microsoft Visual Studio\2019\Community\VC\Tools\MSVC\14.28.29333\include\vector

; 1733 :         return _Mypair._Get_first();

  00062	8b 45 d8	 mov	 eax, DWORD PTR $T2[ebp]
  00065	89 45 cc	 mov	 DWORD PTR $T1[ebp], eax

; 1696 :             _Getal().deallocate(_Myfirst, static_cast<size_type>(_Myend - _Myfirst));

  00068	8b 45 ec	 mov	 eax, DWORD PTR __Myend$[ebp]
  0006b	8b 4d fc	 mov	 ecx, DWORD PTR __Myfirst$[ebp]
  0006e	8b 00		 mov	 eax, DWORD PTR [eax]
  00070	2b 01		 sub	 eax, DWORD PTR [ecx]
  00072	c1 f8 02	 sar	 eax, 2
  00075	89 45 d4	 mov	 DWORD PTR __Count$[ebp], eax
  00078	8b 45 fc	 mov	 eax, DWORD PTR __Myfirst$[ebp]
  0007b	8b 00		 mov	 eax, DWORD PTR [eax]
  0007d	89 45 d0	 mov	 DWORD PTR __Ptr$[ebp], eax
; File C:\Program Files (x86)\Microsoft Visual Studio\2019\Community\VC\Tools\MSVC\14.28.29333\include\xmemory

; 810  :         _Deallocate<_New_alignof<_Ty>>(_Ptr, sizeof(_Ty) * _Count);

  00080	8b 45 d4	 mov	 eax, DWORD PTR __Count$[ebp]
  00083	c1 e0 02	 shl	 eax, 2
  00086	50		 push	 eax
  00087	ff 75 d0	 push	 DWORD PTR __Ptr$[ebp]
  0008a	e8 00 00 00 00	 call	 ??$_Deallocate@$07$0A@@std@@YAXPAXI@Z ; std::_Deallocate<8,0>
  0008f	59		 pop	 ecx
  00090	59		 pop	 ecx
; File C:\Program Files (x86)\Microsoft Visual Studio\2019\Community\VC\Tools\MSVC\14.28.29333\include\vector

; 1698 :             _Myfirst = pointer();

  00091	8b 45 fc	 mov	 eax, DWORD PTR __Myfirst$[ebp]
  00094	83 20 00	 and	 DWORD PTR [eax], 0

; 1699 :             _Mylast  = pointer();

  00097	8b 45 f0	 mov	 eax, DWORD PTR __Mylast$[ebp]
  0009a	83 20 00	 and	 DWORD PTR [eax], 0

; 1700 :             _Myend   = pointer();

  0009d	8b 45 ec	 mov	 eax, DWORD PTR __Myend$[ebp]
  000a0	83 20 00	 and	 DWORD PTR [eax], 0
$LN3@Tidy:

; 1701 :         }
; 1702 :     }

  000a3	c9		 leave
  000a4	c3		 ret	 0
?_Tidy@?$vector@PAVCNullDecorator@NEffectUpdateDecorator@@V?$allocator@PAVCNullDecorator@NEffectUpdateDecorator@@@std@@@std@@AAEXXZ ENDP ; std::vector<NEffectUpdateDecorator::CNullDecorator *,std::allocator<NEffectUpdateDecorator::CNullDecorator *> >::_Tidy
_TEXT	ENDS
; Function compile flags: /Odspy
; File C:\Program Files (x86)\Microsoft Visual Studio\2019\Community\VC\Tools\MSVC\14.28.29333\include\vector
; File C:\Program Files (x86)\Microsoft Visual Studio\2019\Community\VC\Tools\MSVC\14.28.29333\include\xmemory
; File C:\Program Files (x86)\Microsoft Visual Studio\2019\Community\VC\Tools\MSVC\14.28.29333\include\vector
;	COMDAT ?clear@?$vector@PAVCNullDecorator@NEffectUpdateDecorator@@V?$allocator@PAVCNullDecorator@NEffectUpdateDecorator@@@std@@@std@@QAEXXZ
_TEXT	SEGMENT
__First$ = -32						; size = 4
__Last$ = -28						; size = 4
$T1 = -24						; size = 4
$T2 = -20						; size = 4
__Myfirst$ = -16					; size = 4
__Mylast$ = -12						; size = 4
_this$ = -8						; size = 4
__My_data$ = -4						; size = 4
?clear@?$vector@PAVCNullDecorator@NEffectUpdateDecorator@@V?$allocator@PAVCNullDecorator@NEffectUpdateDecorator@@@std@@@std@@QAEXXZ PROC ; std::vector<NEffectUpdateDecorator::CNullDecorator *,std::allocator<NEffectUpdateDecorator::CNullDecorator *> >::clear, COMDAT
; _this$ = ecx

; 1383 :     void clear() noexcept { // erase all

  00000	55		 push	 ebp
  00001	8b ec		 mov	 ebp, esp
  00003	83 ec 20	 sub	 esp, 32			; 00000020H
  00006	89 4d f8	 mov	 DWORD PTR _this$[ebp], ecx

; 1384 :         auto& _My_data    = _Mypair._Myval2;

  00009	8b 45 f8	 mov	 eax, DWORD PTR _this$[ebp]
  0000c	89 45 fc	 mov	 DWORD PTR __My_data$[ebp], eax

; 1385 :         pointer& _Myfirst = _My_data._Myfirst;

  0000f	8b 45 fc	 mov	 eax, DWORD PTR __My_data$[ebp]
  00012	89 45 f0	 mov	 DWORD PTR __Myfirst$[ebp], eax

; 1386 :         pointer& _Mylast  = _My_data._Mylast;

  00015	8b 45 fc	 mov	 eax, DWORD PTR __My_data$[ebp]
  00018	83 c0 04	 add	 eax, 4
  0001b	89 45 f4	 mov	 DWORD PTR __Mylast$[ebp], eax

; 1387 : 
; 1388 :         _My_data._Orphan_all();
; 1389 :         _Destroy(_Myfirst, _Mylast);

  0001e	8b 45 f4	 mov	 eax, DWORD PTR __Mylast$[ebp]
  00021	8b 00		 mov	 eax, DWORD PTR [eax]
  00023	89 45 e4	 mov	 DWORD PTR __Last$[ebp], eax
  00026	8b 45 f0	 mov	 eax, DWORD PTR __Myfirst$[ebp]
  00029	8b 00		 mov	 eax, DWORD PTR [eax]
  0002b	89 45 e0	 mov	 DWORD PTR __First$[ebp], eax

; 1733 :         return _Mypair._Get_first();

  0002e	8b 45 f8	 mov	 eax, DWORD PTR _this$[ebp]
; File C:\Program Files (x86)\Microsoft Visual Studio\2019\Community\VC\Tools\MSVC\14.28.29333\include\xmemory

; 1347 :         return *this;

  00031	89 45 ec	 mov	 DWORD PTR $T2[ebp], eax
; File C:\Program Files (x86)\Microsoft Visual Studio\2019\Community\VC\Tools\MSVC\14.28.29333\include\vector

; 1733 :         return _Mypair._Get_first();

  00034	8b 45 ec	 mov	 eax, DWORD PTR $T2[ebp]
  00037	89 45 e8	 mov	 DWORD PTR $T1[ebp], eax

; 1612 :         _Destroy_range(_First, _Last, _Getal());

  0003a	ff 75 e8	 push	 DWORD PTR $T1[ebp]
  0003d	ff 75 e4	 push	 DWORD PTR __Last$[ebp]
  00040	ff 75 e0	 push	 DWORD PTR __First$[ebp]
  00043	e8 00 00 00 00	 call	 ??$_Destroy_range@V?$allocator@PAVCNullDecorator@NEffectUpdateDecorator@@@std@@@std@@YAXPAPAVCNullDecorator@NEffectUpdateDecorator@@QAPAV12@AAV?$allocator@PAVCNullDecorator@NEffectUpdateDecorator@@@0@@Z ; std::_Destroy_range<std::allocator<NEffectUpdateDecorator::CNullDecorator *> >
  00048	83 c4 0c	 add	 esp, 12			; 0000000cH

; 1390 :         _Mylast = _Myfirst;

  0004b	8b 45 f4	 mov	 eax, DWORD PTR __Mylast$[ebp]
  0004e	8b 4d f0	 mov	 ecx, DWORD PTR __Myfirst$[ebp]
  00051	8b 09		 mov	 ecx, DWORD PTR [ecx]
  00053	89 08		 mov	 DWORD PTR [eax], ecx

; 1391 :     }

  00055	c9		 leave
  00056	c3		 ret	 0
?clear@?$vector@PAVCNullDecorator@NEffectUpdateDecorator@@V?$allocator@PAVCNullDecorator@NEffectUpdateDecorator@@@std@@@std@@QAEXXZ ENDP ; std::vector<NEffectUpdateDecorator::CNullDecorator *,std::allocator<NEffectUpdateDecorator::CNullDecorator *> >::clear
_TEXT	ENDS
; Function compile flags: /Odspy
; File D:\Metin2 Server Files\mainline\SRC_2014\Metin2Client\eterLib\Pool.h
;	COMDAT ?Delete@?$CDynamicPoolEx@VCNullDecorator@NEffectUpdateDecorator@@@@KAXPAVCNullDecorator@NEffectUpdateDecorator@@@Z
_TEXT	SEGMENT
_pkData$ = 8						; size = 4
?Delete@?$CDynamicPoolEx@VCNullDecorator@NEffectUpdateDecorator@@@@KAXPAVCNullDecorator@NEffectUpdateDecorator@@@Z PROC ; CDynamicPoolEx<NEffectUpdateDecorator::CNullDecorator>::Delete, COMDAT

; 223  : 		{

  00000	55		 push	 ebp
  00001	8b ec		 mov	 ebp, esp

; 224  : 			::operator delete(pkData);

  00003	ff 75 08	 push	 DWORD PTR _pkData$[ebp]
  00006	e8 00 00 00 00	 call	 ??3@YAXPAX@Z		; operator delete
  0000b	59		 pop	 ecx

; 225  : 		}

  0000c	5d		 pop	 ebp
  0000d	c3		 ret	 0
?Delete@?$CDynamicPoolEx@VCNullDecorator@NEffectUpdateDecorator@@@@KAXPAVCNullDecorator@NEffectUpdateDecorator@@@Z ENDP ; CDynamicPoolEx<NEffectUpdateDecorator::CNullDecorator>::Delete
_TEXT	ENDS
; Function compile flags: /Odspy
; File D:\Metin2 Server Files\mainline\SRC_2014\Metin2Client\eterLib\Pool.h
; File C:\Program Files (x86)\Microsoft Visual Studio\2019\Community\VC\Tools\MSVC\14.28.29333\include\vector
; File C:\Program Files (x86)\Microsoft Visual Studio\2019\Community\VC\Tools\MSVC\14.28.29333\include\xstddef
; File C:\Program Files (x86)\Microsoft Visual Studio\2019\Community\VC\Tools\MSVC\14.28.29333\include\vector
; File C:\Program Files (x86)\Microsoft Visual Studio\2019\Community\VC\Tools\MSVC\14.28.29333\include\xstddef
; File C:\Program Files (x86)\Microsoft Visual Studio\2019\Community\VC\Tools\MSVC\14.28.29333\include\vector
; File D:\Metin2 Server Files\mainline\SRC_2014\Metin2Client\eterLib\Pool.h
;	COMDAT ?Destroy@?$CDynamicPoolEx@VCNullDecorator@NEffectUpdateDecorator@@@@QAEXXZ
_TEXT	SEGMENT
$T1 = -44						; size = 4
$T2 = -40						; size = 4
$T3 = -36						; size = 4
$T4 = -32						; size = 4
$T5 = -28						; size = 4
___param0$ = -24					; size = 4
$T6 = -20						; size = 4
___param0$ = -16					; size = 4
__My_data$7 = -12					; size = 4
__My_data$8 = -8					; size = 4
_this$ = -4						; size = 4
?Destroy@?$CDynamicPoolEx@VCNullDecorator@NEffectUpdateDecorator@@@@QAEXXZ PROC ; CDynamicPoolEx<NEffectUpdateDecorator::CNullDecorator>::Destroy, COMDAT
; _this$ = ecx

; 150  : 		{

  00000	55		 push	 ebp
  00001	8b ec		 mov	 ebp, esp
  00003	83 ec 2c	 sub	 esp, 44			; 0000002cH
  00006	89 4d fc	 mov	 DWORD PTR _this$[ebp], ecx
; File C:\Program Files (x86)\Microsoft Visual Studio\2019\Community\VC\Tools\MSVC\14.28.29333\include\vector

; 1420 :         auto& _My_data = _Mypair._Myval2;

  00009	8b 45 fc	 mov	 eax, DWORD PTR _this$[ebp]
  0000c	83 c0 04	 add	 eax, 4
  0000f	89 45 f8	 mov	 DWORD PTR __My_data$8[ebp], eax
; File C:\Program Files (x86)\Microsoft Visual Studio\2019\Community\VC\Tools\MSVC\14.28.29333\include\xstddef

; 275  :     return __builtin_addressof(_Val);

  00012	8b 45 f8	 mov	 eax, DWORD PTR __My_data$8[ebp]
  00015	89 45 d8	 mov	 DWORD PTR $T2[ebp], eax
; File C:\Program Files (x86)\Microsoft Visual Studio\2019\Community\VC\Tools\MSVC\14.28.29333\include\vector

; 1421 :         return iterator(_My_data._Mylast, _STD addressof(_My_data));

  00018	8b 45 f8	 mov	 eax, DWORD PTR __My_data$8[ebp]
  0001b	8b 40 04	 mov	 eax, DWORD PTR [eax+4]
  0001e	89 45 f0	 mov	 DWORD PTR ___param0$[ebp], eax

; 42   :     _Vector_const_iterator(_Tptr _Parg, const _Container_base* _Pvector) noexcept : _Ptr(_Parg) {

  00021	8b 45 f0	 mov	 eax, DWORD PTR ___param0$[ebp]
  00024	89 45 ec	 mov	 DWORD PTR $T6[ebp], eax

; 1421 :         return iterator(_My_data._Mylast, _STD addressof(_My_data));

  00027	8d 45 ec	 lea	 eax, DWORD PTR $T6[ebp]
  0002a	89 45 e0	 mov	 DWORD PTR $T4[ebp], eax

; 1410 :         auto& _My_data = _Mypair._Myval2;

  0002d	8b 45 fc	 mov	 eax, DWORD PTR _this$[ebp]
  00030	83 c0 04	 add	 eax, 4
  00033	89 45 f4	 mov	 DWORD PTR __My_data$7[ebp], eax
; File C:\Program Files (x86)\Microsoft Visual Studio\2019\Community\VC\Tools\MSVC\14.28.29333\include\xstddef

; 275  :     return __builtin_addressof(_Val);

  00036	8b 45 f4	 mov	 eax, DWORD PTR __My_data$7[ebp]
  00039	89 45 d4	 mov	 DWORD PTR $T1[ebp], eax
; File C:\Program Files (x86)\Microsoft Visual Studio\2019\Community\VC\Tools\MSVC\14.28.29333\include\vector

; 1411 :         return iterator(_My_data._Myfirst, _STD addressof(_My_data));

  0003c	8b 45 f4	 mov	 eax, DWORD PTR __My_data$7[ebp]
  0003f	8b 00		 mov	 eax, DWORD PTR [eax]
  00041	89 45 e8	 mov	 DWORD PTR ___param0$[ebp], eax

; 42   :     _Vector_const_iterator(_Tptr _Parg, const _Container_base* _Pvector) noexcept : _Ptr(_Parg) {

  00044	8b 45 e8	 mov	 eax, DWORD PTR ___param0$[ebp]
  00047	89 45 e4	 mov	 DWORD PTR $T5[ebp], eax

; 1411 :         return iterator(_My_data._Myfirst, _STD addressof(_My_data));

  0004a	8d 45 e4	 lea	 eax, DWORD PTR $T5[ebp]
  0004d	89 45 dc	 mov	 DWORD PTR $T3[ebp], eax
; File D:\Metin2 Server Files\mainline\SRC_2014\Metin2Client\eterLib\Pool.h

; 160  : 			std::for_each(m_kVct_pkData.begin(), m_kVct_pkData.end(), Delete);

  00050	68 00 00 00 00	 push	 OFFSET ?Delete@?$CDynamicPoolEx@VCNullDecorator@NEffectUpdateDecorator@@@@KAXPAVCNullDecorator@NEffectUpdateDecorator@@@Z ; CDynamicPoolEx<NEffectUpdateDecorator::CNullDecorator>::Delete
  00055	8b 45 e0	 mov	 eax, DWORD PTR $T4[ebp]
  00058	ff 30		 push	 DWORD PTR [eax]
  0005a	8b 45 dc	 mov	 eax, DWORD PTR $T3[ebp]
  0005d	ff 30		 push	 DWORD PTR [eax]
  0005f	e8 00 00 00 00	 call	 ??$for_each@V?$_Vector_iterator@V?$_Vector_val@U?$_Simple_types@PAVCNullDecorator@NEffectUpdateDecorator@@@std@@@std@@@std@@P6AXPAVCNullDecorator@NEffectUpdateDecorator@@@Z@std@@YAP6AXPAVCNullDecorator@NEffectUpdateDecorator@@@ZV?$_Vector_iterator@V?$_Vector_val@U?$_Simple_types@PAVCNullDecorator@NEffectUpdateDecorator@@@std@@@std@@@0@1P6AX0@Z@Z ; std::for_each<std::_Vector_iterator<std::_Vector_val<std::_Simple_types<NEffectUpdateDecorator::CNullDecorator *> > >,void (__cdecl*)(NEffectUpdateDecorator::CNullDecorator *)>
  00064	83 c4 0c	 add	 esp, 12			; 0000000cH

; 161  : 			m_kVct_pkData.clear();

  00067	8b 4d fc	 mov	 ecx, DWORD PTR _this$[ebp]
  0006a	83 c1 04	 add	 ecx, 4
  0006d	e8 00 00 00 00	 call	 ?clear@?$vector@PAVCNullDecorator@NEffectUpdateDecorator@@V?$allocator@PAVCNullDecorator@NEffectUpdateDecorator@@@std@@@std@@QAEXXZ ; std::vector<NEffectUpdateDecorator::CNullDecorator *,std::allocator<NEffectUpdateDecorator::CNullDecorator *> >::clear

; 162  : 			m_kVct_pkFree.clear();

  00072	8b 4d fc	 mov	 ecx, DWORD PTR _this$[ebp]
  00075	83 c1 10	 add	 ecx, 16			; 00000010H
  00078	e8 00 00 00 00	 call	 ?clear@?$vector@PAVCNullDecorator@NEffectUpdateDecorator@@V?$allocator@PAVCNullDecorator@NEffectUpdateDecorator@@@std@@@std@@QAEXXZ ; std::vector<NEffectUpdateDecorator::CNullDecorator *,std::allocator<NEffectUpdateDecorator::CNullDecorator *> >::clear

; 163  : 		}

  0007d	c9		 leave
  0007e	c3		 ret	 0
?Destroy@?$CDynamicPoolEx@VCNullDecorator@NEffectUpdateDecorator@@@@QAEXXZ ENDP ; CDynamicPoolEx<NEffectUpdateDecorator::CNullDecorator>::Destroy
_TEXT	ENDS
; Function compile flags: /Odspy
; File D:\Metin2 Server Files\mainline\SRC_2014\Metin2Client\eterLib\Pool.h
; File C:\Program Files (x86)\Microsoft Visual Studio\2019\Community\VC\Tools\MSVC\14.28.29333\include\vector
; File D:\Metin2 Server Files\mainline\SRC_2014\Metin2Client\eterLib\Pool.h
; File C:\Program Files (x86)\Microsoft Visual Studio\2019\Community\VC\Tools\MSVC\14.28.29333\include\vector
; File D:\Metin2 Server Files\mainline\SRC_2014\Metin2Client\eterLib\Pool.h
;	COMDAT ??1?$CDynamicPoolEx@VCNullDecorator@NEffectUpdateDecorator@@@@UAE@XZ
_TEXT	SEGMENT
_this$ = -16						; size = 4
__$EHRec$ = -12						; size = 12
??1?$CDynamicPoolEx@VCNullDecorator@NEffectUpdateDecorator@@@@UAE@XZ PROC ; CDynamicPoolEx<NEffectUpdateDecorator::CNullDecorator>::~CDynamicPoolEx<NEffectUpdateDecorator::CNullDecorator>, COMDAT
; _this$ = ecx

; 132  : 		{

  00000	55		 push	 ebp
  00001	8b ec		 mov	 ebp, esp
  00003	6a ff		 push	 -1
  00005	68 00 00 00 00	 push	 __ehhandler$??1?$CDynamicPoolEx@VCNullDecorator@NEffectUpdateDecorator@@@@UAE@XZ
  0000a	64 a1 00 00 00
	00		 mov	 eax, DWORD PTR fs:0
  00010	50		 push	 eax
  00011	51		 push	 ecx
  00012	a1 00 00 00 00	 mov	 eax, DWORD PTR ___security_cookie
  00017	33 c5		 xor	 eax, ebp
  00019	50		 push	 eax
  0001a	8d 45 f4	 lea	 eax, DWORD PTR __$EHRec$[ebp]
  0001d	64 a3 00 00 00
	00		 mov	 DWORD PTR fs:0, eax
  00023	89 4d f0	 mov	 DWORD PTR _this$[ebp], ecx
  00026	8b 45 f0	 mov	 eax, DWORD PTR _this$[ebp]
  00029	c7 00 00 00 00
	00		 mov	 DWORD PTR [eax], OFFSET ??_7?$CDynamicPoolEx@VCNullDecorator@NEffectUpdateDecorator@@@@6B@

; 133  : 			assert(m_kVct_pkFree.size()==m_kVct_pkData.size());
; 134  : 			Destroy();

  0002f	8b 4d f0	 mov	 ecx, DWORD PTR _this$[ebp]
  00032	e8 00 00 00 00	 call	 ?Destroy@?$CDynamicPoolEx@VCNullDecorator@NEffectUpdateDecorator@@@@QAEXXZ ; CDynamicPoolEx<NEffectUpdateDecorator::CNullDecorator>::Destroy

; 142  : 		}

  00037	8b 4d f0	 mov	 ecx, DWORD PTR _this$[ebp]
  0003a	83 c1 10	 add	 ecx, 16			; 00000010H
; File C:\Program Files (x86)\Microsoft Visual Studio\2019\Community\VC\Tools\MSVC\14.28.29333\include\vector

; 673  :         _Tidy();

  0003d	e8 00 00 00 00	 call	 ?_Tidy@?$vector@PAVCNullDecorator@NEffectUpdateDecorator@@V?$allocator@PAVCNullDecorator@NEffectUpdateDecorator@@@std@@@std@@AAEXXZ ; std::vector<NEffectUpdateDecorator::CNullDecorator *,std::allocator<NEffectUpdateDecorator::CNullDecorator *> >::_Tidy
; File D:\Metin2 Server Files\mainline\SRC_2014\Metin2Client\eterLib\Pool.h

; 142  : 		}

  00042	8b 4d f0	 mov	 ecx, DWORD PTR _this$[ebp]
  00045	83 c1 04	 add	 ecx, 4
; File C:\Program Files (x86)\Microsoft Visual Studio\2019\Community\VC\Tools\MSVC\14.28.29333\include\vector

; 673  :         _Tidy();

  00048	e8 00 00 00 00	 call	 ?_Tidy@?$vector@PAVCNullDecorator@NEffectUpdateDecorator@@V?$allocator@PAVCNullDecorator@NEffectUpdateDecorator@@@std@@@std@@AAEXXZ ; std::vector<NEffectUpdateDecorator::CNullDecorator *,std::allocator<NEffectUpdateDecorator::CNullDecorator *> >::_Tidy
; File D:\Metin2 Server Files\mainline\SRC_2014\Metin2Client\eterLib\Pool.h

; 142  : 		}

  0004d	8b 4d f4	 mov	 ecx, DWORD PTR __$EHRec$[ebp]
  00050	64 89 0d 00 00
	00 00		 mov	 DWORD PTR fs:0, ecx
  00057	59		 pop	 ecx
  00058	c9		 leave
  00059	c3		 ret	 0
  0005a	cc		 int	 3
  0005b	cc		 int	 3
  0005c	cc		 int	 3
  0005d	cc		 int	 3
  0005e	cc		 int	 3
_TEXT	ENDS
;	COMDAT text$x
text$x	SEGMENT
__ehhandler$??1?$CDynamicPoolEx@VCNullDecorator@NEffectUpdateDecorator@@@@UAE@XZ:
  00000	90		 npad	 1
  00001	90		 npad	 1
  00002	8b 54 24 08	 mov	 edx, DWORD PTR [esp+8]
  00006	8d 42 0c	 lea	 eax, DWORD PTR [edx+12]
  00009	8b 4a f8	 mov	 ecx, DWORD PTR [edx-8]
  0000c	33 c8		 xor	 ecx, eax
  0000e	e8 00 00 00 00	 call	 @__security_check_cookie@4
  00013	b8 00 00 00 00	 mov	 eax, OFFSET __ehfuncinfo$??1?$CDynamicPoolEx@VCNullDecorator@NEffectUpdateDecorator@@@@UAE@XZ
  00018	e9 00 00 00 00	 jmp	 ___CxxFrameHandler3
text$x	ENDS
??1?$CDynamicPoolEx@VCNullDecorator@NEffectUpdateDecorator@@@@UAE@XZ ENDP ; CDynamicPoolEx<NEffectUpdateDecorator::CNullDecorator>::~CDynamicPoolEx<NEffectUpdateDecorator::CNullDecorator>
; Function compile flags: /Odspy
; File D:\Metin2 Server Files\mainline\SRC_2014\Metin2Client\eterLib\Pool.h
; File C:\Program Files (x86)\Microsoft Visual Studio\2019\Community\VC\Tools\MSVC\14.28.29333\include\vector
; File C:\Program Files (x86)\Microsoft Visual Studio\2019\Community\VC\Tools\MSVC\14.28.29333\include\xmemory
; File C:\Program Files (x86)\Microsoft Visual Studio\2019\Community\VC\Tools\MSVC\14.28.29333\include\vector
; File D:\Metin2 Server Files\mainline\SRC_2014\Metin2Client\eterLib\Pool.h
; File C:\Program Files (x86)\Microsoft Visual Studio\2019\Community\VC\Tools\MSVC\14.28.29333\include\vector
; File C:\Program Files (x86)\Microsoft Visual Studio\2019\Community\VC\Tools\MSVC\14.28.29333\include\xmemory
; File C:\Program Files (x86)\Microsoft Visual Studio\2019\Community\VC\Tools\MSVC\14.28.29333\include\vector
; File D:\Metin2 Server Files\mainline\SRC_2014\Metin2Client\eterLib\Pool.h
;	COMDAT ??0?$CDynamicPoolEx@VCNullDecorator@NEffectUpdateDecorator@@@@QAE@XZ
_TEXT	SEGMENT
_this$ = -28						; size = 4
_this$ = -24						; size = 4
_this$ = -20						; size = 4
_this$ = -16						; size = 4
_this$1 = -12						; size = 4
_this$2 = -8						; size = 4
_this$ = -4						; size = 4
??0?$CDynamicPoolEx@VCNullDecorator@NEffectUpdateDecorator@@@@QAE@XZ PROC ; CDynamicPoolEx<NEffectUpdateDecorator::CNullDecorator>::CDynamicPoolEx<NEffectUpdateDecorator::CNullDecorator>, COMDAT
; _this$ = ecx

; 126  : 		CDynamicPoolEx()

  00000	55		 push	 ebp
  00001	8b ec		 mov	 ebp, esp
  00003	83 ec 1c	 sub	 esp, 28			; 0000001cH
  00006	89 4d fc	 mov	 DWORD PTR _this$[ebp], ecx

; 127  : 		{

  00009	8b 45 fc	 mov	 eax, DWORD PTR _this$[ebp]
  0000c	c7 00 00 00 00
	00		 mov	 DWORD PTR [eax], OFFSET ??_7?$CDynamicPoolEx@VCNullDecorator@NEffectUpdateDecorator@@@@6B@
  00012	8b 45 fc	 mov	 eax, DWORD PTR _this$[ebp]
  00015	83 c0 04	 add	 eax, 4
  00018	89 45 f0	 mov	 DWORD PTR _this$[ebp], eax
; File C:\Program Files (x86)\Microsoft Visual Studio\2019\Community\VC\Tools\MSVC\14.28.29333\include\vector

; 445  :     vector() noexcept(is_nothrow_default_constructible_v<_Alty>) : _Mypair(_Zero_then_variadic_args_t{}) {

  0001b	8b 45 f0	 mov	 eax, DWORD PTR _this$[ebp]
  0001e	89 45 ec	 mov	 DWORD PTR _this$[ebp], eax
; File C:\Program Files (x86)\Microsoft Visual Studio\2019\Community\VC\Tools\MSVC\14.28.29333\include\xmemory

; 1339 :         : _Ty1(), _Myval2(_STD forward<_Other2>(_Val2)...) {}

  00021	8b 45 ec	 mov	 eax, DWORD PTR _this$[ebp]
  00024	89 45 f8	 mov	 DWORD PTR _this$2[ebp], eax
; File C:\Program Files (x86)\Microsoft Visual Studio\2019\Community\VC\Tools\MSVC\14.28.29333\include\vector

; 375  :     _Vector_val() noexcept : _Myfirst(), _Mylast(), _Myend() {}

  00027	8b 45 f8	 mov	 eax, DWORD PTR _this$2[ebp]
  0002a	83 20 00	 and	 DWORD PTR [eax], 0
  0002d	8b 45 f8	 mov	 eax, DWORD PTR _this$2[ebp]
  00030	83 60 04 00	 and	 DWORD PTR [eax+4], 0
  00034	8b 45 f8	 mov	 eax, DWORD PTR _this$2[ebp]
  00037	83 60 08 00	 and	 DWORD PTR [eax+8], 0
; File D:\Metin2 Server Files\mainline\SRC_2014\Metin2Client\eterLib\Pool.h

; 127  : 		{

  0003b	8b 45 fc	 mov	 eax, DWORD PTR _this$[ebp]
  0003e	83 c0 10	 add	 eax, 16			; 00000010H
  00041	89 45 e8	 mov	 DWORD PTR _this$[ebp], eax
; File C:\Program Files (x86)\Microsoft Visual Studio\2019\Community\VC\Tools\MSVC\14.28.29333\include\vector

; 445  :     vector() noexcept(is_nothrow_default_constructible_v<_Alty>) : _Mypair(_Zero_then_variadic_args_t{}) {

  00044	8b 45 e8	 mov	 eax, DWORD PTR _this$[ebp]
  00047	89 45 e4	 mov	 DWORD PTR _this$[ebp], eax
; File C:\Program Files (x86)\Microsoft Visual Studio\2019\Community\VC\Tools\MSVC\14.28.29333\include\xmemory

; 1339 :         : _Ty1(), _Myval2(_STD forward<_Other2>(_Val2)...) {}

  0004a	8b 45 e4	 mov	 eax, DWORD PTR _this$[ebp]
  0004d	89 45 f4	 mov	 DWORD PTR _this$1[ebp], eax
; File C:\Program Files (x86)\Microsoft Visual Studio\2019\Community\VC\Tools\MSVC\14.28.29333\include\vector

; 375  :     _Vector_val() noexcept : _Myfirst(), _Mylast(), _Myend() {}

  00050	8b 45 f4	 mov	 eax, DWORD PTR _this$1[ebp]
  00053	83 20 00	 and	 DWORD PTR [eax], 0
  00056	8b 45 f4	 mov	 eax, DWORD PTR _this$1[ebp]
  00059	83 60 04 00	 and	 DWORD PTR [eax+4], 0
  0005d	8b 45 f4	 mov	 eax, DWORD PTR _this$1[ebp]
  00060	83 60 08 00	 and	 DWORD PTR [eax+8], 0
; File D:\Metin2 Server Files\mainline\SRC_2014\Metin2Client\eterLib\Pool.h

; 128  : 			m_uInitCapacity=0;

  00064	8b 45 fc	 mov	 eax, DWORD PTR _this$[ebp]
  00067	83 60 1c 00	 and	 DWORD PTR [eax+28], 0

; 129  : 			m_uUsedCapacity=0;

  0006b	8b 45 fc	 mov	 eax, DWORD PTR _this$[ebp]
  0006e	83 60 20 00	 and	 DWORD PTR [eax+32], 0

; 130  : 		}

  00072	8b 45 fc	 mov	 eax, DWORD PTR _this$[ebp]
  00075	c9		 leave
  00076	c3		 ret	 0
??0?$CDynamicPoolEx@VCNullDecorator@NEffectUpdateDecorator@@@@QAE@XZ ENDP ; CDynamicPoolEx<NEffectUpdateDecorator::CNullDecorator>::CDynamicPoolEx<NEffectUpdateDecorator::CNullDecorator>
_TEXT	ENDS
; Function compile flags: /Odspy
;	COMDAT ??_G?$CDynamicPoolEx@VCTextureAnimationCWDecorator@NEffectUpdateDecorator@@@@UAEPAXI@Z
_TEXT	SEGMENT
_this$ = -4						; size = 4
___flags$ = 8						; size = 4
??_G?$CDynamicPoolEx@VCTextureAnimationCWDecorator@NEffectUpdateDecorator@@@@UAEPAXI@Z PROC ; CDynamicPoolEx<NEffectUpdateDecorator::CTextureAnimationCWDecorator>::`scalar deleting destructor', COMDAT
; _this$ = ecx
  00000	55		 push	 ebp
  00001	8b ec		 mov	 ebp, esp
  00003	51		 push	 ecx
  00004	89 4d fc	 mov	 DWORD PTR _this$[ebp], ecx
  00007	8b 4d fc	 mov	 ecx, DWORD PTR _this$[ebp]
  0000a	e8 00 00 00 00	 call	 ??1?$CDynamicPoolEx@VCTextureAnimationCWDecorator@NEffectUpdateDecorator@@@@UAE@XZ ; CDynamicPoolEx<NEffectUpdateDecorator::CTextureAnimationCWDecorator>::~CDynamicPoolEx<NEffectUpdateDecorator::CTextureAnimationCWDecorator>
  0000f	8b 45 08	 mov	 eax, DWORD PTR ___flags$[ebp]
  00012	83 e0 01	 and	 eax, 1
  00015	74 0c		 je	 SHORT $LN2@scalar
  00017	6a 24		 push	 36			; 00000024H
  00019	ff 75 fc	 push	 DWORD PTR _this$[ebp]
  0001c	e8 00 00 00 00	 call	 ??3@YAXPAXI@Z		; operator delete
  00021	59		 pop	 ecx
  00022	59		 pop	 ecx
$LN2@scalar:
  00023	8b 45 fc	 mov	 eax, DWORD PTR _this$[ebp]
  00026	c9		 leave
  00027	c2 04 00	 ret	 4
??_G?$CDynamicPoolEx@VCTextureAnimationCWDecorator@NEffectUpdateDecorator@@@@UAEPAXI@Z ENDP ; CDynamicPoolEx<NEffectUpdateDecorator::CTextureAnimationCWDecorator>::`scalar deleting destructor'
_TEXT	ENDS
; Function compile flags: /Odspy
; File C:\Program Files (x86)\Microsoft Visual Studio\2019\Community\VC\Tools\MSVC\14.28.29333\include\vector
; File C:\Program Files (x86)\Microsoft Visual Studio\2019\Community\VC\Tools\MSVC\14.28.29333\include\xmemory
; File C:\Program Files (x86)\Microsoft Visual Studio\2019\Community\VC\Tools\MSVC\14.28.29333\include\vector
; File C:\Program Files (x86)\Microsoft Visual Studio\2019\Community\VC\Tools\MSVC\14.28.29333\include\xmemory
; File C:\Program Files (x86)\Microsoft Visual Studio\2019\Community\VC\Tools\MSVC\14.28.29333\include\vector
; File C:\Program Files (x86)\Microsoft Visual Studio\2019\Community\VC\Tools\MSVC\14.28.29333\include\xmemory
; File C:\Program Files (x86)\Microsoft Visual Studio\2019\Community\VC\Tools\MSVC\14.28.29333\include\vector
;	COMDAT ?_Tidy@?$vector@PAVCTextureAnimationCWDecorator@NEffectUpdateDecorator@@V?$allocator@PAVCTextureAnimationCWDecorator@NEffectUpdateDecorator@@@std@@@std@@AAEXXZ
_TEXT	SEGMENT
$T1 = -52						; size = 4
__Ptr$ = -48						; size = 4
__Count$ = -44						; size = 4
$T2 = -40						; size = 4
__First$ = -36						; size = 4
__Last$ = -32						; size = 4
$T3 = -28						; size = 4
$T4 = -24						; size = 4
__Myend$ = -20						; size = 4
__Mylast$ = -16						; size = 4
_this$ = -12						; size = 4
__My_data$ = -8						; size = 4
__Myfirst$ = -4						; size = 4
?_Tidy@?$vector@PAVCTextureAnimationCWDecorator@NEffectUpdateDecorator@@V?$allocator@PAVCTextureAnimationCWDecorator@NEffectUpdateDecorator@@@std@@@std@@AAEXXZ PROC ; std::vector<NEffectUpdateDecorator::CTextureAnimationCWDecorator *,std::allocator<NEffectUpdateDecorator::CTextureAnimationCWDecorator *> >::_Tidy, COMDAT
; _this$ = ecx

; 1686 :     void _Tidy() noexcept { // free all storage

  00000	55		 push	 ebp
  00001	8b ec		 mov	 ebp, esp
  00003	83 ec 34	 sub	 esp, 52			; 00000034H
  00006	89 4d f4	 mov	 DWORD PTR _this$[ebp], ecx

; 1687 :         auto& _My_data    = _Mypair._Myval2;

  00009	8b 45 f4	 mov	 eax, DWORD PTR _this$[ebp]
  0000c	89 45 f8	 mov	 DWORD PTR __My_data$[ebp], eax

; 1688 :         pointer& _Myfirst = _My_data._Myfirst;

  0000f	8b 45 f8	 mov	 eax, DWORD PTR __My_data$[ebp]
  00012	89 45 fc	 mov	 DWORD PTR __Myfirst$[ebp], eax

; 1689 :         pointer& _Mylast  = _My_data._Mylast;

  00015	8b 45 f8	 mov	 eax, DWORD PTR __My_data$[ebp]
  00018	83 c0 04	 add	 eax, 4
  0001b	89 45 f0	 mov	 DWORD PTR __Mylast$[ebp], eax

; 1690 :         pointer& _Myend   = _My_data._Myend;

  0001e	8b 45 f8	 mov	 eax, DWORD PTR __My_data$[ebp]
  00021	83 c0 08	 add	 eax, 8
  00024	89 45 ec	 mov	 DWORD PTR __Myend$[ebp], eax

; 1691 : 
; 1692 :         _My_data._Orphan_all();
; 1693 : 
; 1694 :         if (_Myfirst) { // destroy and deallocate old array

  00027	8b 45 fc	 mov	 eax, DWORD PTR __Myfirst$[ebp]
  0002a	83 38 00	 cmp	 DWORD PTR [eax], 0
  0002d	74 74		 je	 SHORT $LN3@Tidy

; 1695 :             _Destroy(_Myfirst, _Mylast);

  0002f	8b 45 f0	 mov	 eax, DWORD PTR __Mylast$[ebp]
  00032	8b 00		 mov	 eax, DWORD PTR [eax]
  00034	89 45 e0	 mov	 DWORD PTR __Last$[ebp], eax
  00037	8b 45 fc	 mov	 eax, DWORD PTR __Myfirst$[ebp]
  0003a	8b 00		 mov	 eax, DWORD PTR [eax]
  0003c	89 45 dc	 mov	 DWORD PTR __First$[ebp], eax

; 1733 :         return _Mypair._Get_first();

  0003f	8b 45 f4	 mov	 eax, DWORD PTR _this$[ebp]
; File C:\Program Files (x86)\Microsoft Visual Studio\2019\Community\VC\Tools\MSVC\14.28.29333\include\xmemory

; 1347 :         return *this;

  00042	89 45 e8	 mov	 DWORD PTR $T4[ebp], eax
; File C:\Program Files (x86)\Microsoft Visual Studio\2019\Community\VC\Tools\MSVC\14.28.29333\include\vector

; 1733 :         return _Mypair._Get_first();

  00045	8b 45 e8	 mov	 eax, DWORD PTR $T4[ebp]
  00048	89 45 e4	 mov	 DWORD PTR $T3[ebp], eax

; 1612 :         _Destroy_range(_First, _Last, _Getal());

  0004b	ff 75 e4	 push	 DWORD PTR $T3[ebp]
  0004e	ff 75 e0	 push	 DWORD PTR __Last$[ebp]
  00051	ff 75 dc	 push	 DWORD PTR __First$[ebp]
  00054	e8 00 00 00 00	 call	 ??$_Destroy_range@V?$allocator@PAVCTextureAnimationCWDecorator@NEffectUpdateDecorator@@@std@@@std@@YAXPAPAVCTextureAnimationCWDecorator@NEffectUpdateDecorator@@QAPAV12@AAV?$allocator@PAVCTextureAnimationCWDecorator@NEffectUpdateDecorator@@@0@@Z ; std::_Destroy_range<std::allocator<NEffectUpdateDecorator::CTextureAnimationCWDecorator *> >
  00059	83 c4 0c	 add	 esp, 12			; 0000000cH

; 1733 :         return _Mypair._Get_first();

  0005c	8b 45 f4	 mov	 eax, DWORD PTR _this$[ebp]
; File C:\Program Files (x86)\Microsoft Visual Studio\2019\Community\VC\Tools\MSVC\14.28.29333\include\xmemory

; 1347 :         return *this;

  0005f	89 45 d8	 mov	 DWORD PTR $T2[ebp], eax
; File C:\Program Files (x86)\Microsoft Visual Studio\2019\Community\VC\Tools\MSVC\14.28.29333\include\vector

; 1733 :         return _Mypair._Get_first();

  00062	8b 45 d8	 mov	 eax, DWORD PTR $T2[ebp]
  00065	89 45 cc	 mov	 DWORD PTR $T1[ebp], eax

; 1696 :             _Getal().deallocate(_Myfirst, static_cast<size_type>(_Myend - _Myfirst));

  00068	8b 45 ec	 mov	 eax, DWORD PTR __Myend$[ebp]
  0006b	8b 4d fc	 mov	 ecx, DWORD PTR __Myfirst$[ebp]
  0006e	8b 00		 mov	 eax, DWORD PTR [eax]
  00070	2b 01		 sub	 eax, DWORD PTR [ecx]
  00072	c1 f8 02	 sar	 eax, 2
  00075	89 45 d4	 mov	 DWORD PTR __Count$[ebp], eax
  00078	8b 45 fc	 mov	 eax, DWORD PTR __Myfirst$[ebp]
  0007b	8b 00		 mov	 eax, DWORD PTR [eax]
  0007d	89 45 d0	 mov	 DWORD PTR __Ptr$[ebp], eax
; File C:\Program Files (x86)\Microsoft Visual Studio\2019\Community\VC\Tools\MSVC\14.28.29333\include\xmemory

; 810  :         _Deallocate<_New_alignof<_Ty>>(_Ptr, sizeof(_Ty) * _Count);

  00080	8b 45 d4	 mov	 eax, DWORD PTR __Count$[ebp]
  00083	c1 e0 02	 shl	 eax, 2
  00086	50		 push	 eax
  00087	ff 75 d0	 push	 DWORD PTR __Ptr$[ebp]
  0008a	e8 00 00 00 00	 call	 ??$_Deallocate@$07$0A@@std@@YAXPAXI@Z ; std::_Deallocate<8,0>
  0008f	59		 pop	 ecx
  00090	59		 pop	 ecx
; File C:\Program Files (x86)\Microsoft Visual Studio\2019\Community\VC\Tools\MSVC\14.28.29333\include\vector

; 1698 :             _Myfirst = pointer();

  00091	8b 45 fc	 mov	 eax, DWORD PTR __Myfirst$[ebp]
  00094	83 20 00	 and	 DWORD PTR [eax], 0

; 1699 :             _Mylast  = pointer();

  00097	8b 45 f0	 mov	 eax, DWORD PTR __Mylast$[ebp]
  0009a	83 20 00	 and	 DWORD PTR [eax], 0

; 1700 :             _Myend   = pointer();

  0009d	8b 45 ec	 mov	 eax, DWORD PTR __Myend$[ebp]
  000a0	83 20 00	 and	 DWORD PTR [eax], 0
$LN3@Tidy:

; 1701 :         }
; 1702 :     }

  000a3	c9		 leave
  000a4	c3		 ret	 0
?_Tidy@?$vector@PAVCTextureAnimationCWDecorator@NEffectUpdateDecorator@@V?$allocator@PAVCTextureAnimationCWDecorator@NEffectUpdateDecorator@@@std@@@std@@AAEXXZ ENDP ; std::vector<NEffectUpdateDecorator::CTextureAnimationCWDecorator *,std::allocator<NEffectUpdateDecorator::CTextureAnimationCWDecorator *> >::_Tidy
_TEXT	ENDS
; Function compile flags: /Odspy
; File C:\Program Files (x86)\Microsoft Visual Studio\2019\Community\VC\Tools\MSVC\14.28.29333\include\vector
; File C:\Program Files (x86)\Microsoft Visual Studio\2019\Community\VC\Tools\MSVC\14.28.29333\include\xmemory
; File C:\Program Files (x86)\Microsoft Visual Studio\2019\Community\VC\Tools\MSVC\14.28.29333\include\vector
;	COMDAT ?clear@?$vector@PAVCTextureAnimationCWDecorator@NEffectUpdateDecorator@@V?$allocator@PAVCTextureAnimationCWDecorator@NEffectUpdateDecorator@@@std@@@std@@QAEXXZ
_TEXT	SEGMENT
__First$ = -32						; size = 4
__Last$ = -28						; size = 4
$T1 = -24						; size = 4
$T2 = -20						; size = 4
__Myfirst$ = -16					; size = 4
__Mylast$ = -12						; size = 4
_this$ = -8						; size = 4
__My_data$ = -4						; size = 4
?clear@?$vector@PAVCTextureAnimationCWDecorator@NEffectUpdateDecorator@@V?$allocator@PAVCTextureAnimationCWDecorator@NEffectUpdateDecorator@@@std@@@std@@QAEXXZ PROC ; std::vector<NEffectUpdateDecorator::CTextureAnimationCWDecorator *,std::allocator<NEffectUpdateDecorator::CTextureAnimationCWDecorator *> >::clear, COMDAT
; _this$ = ecx

; 1383 :     void clear() noexcept { // erase all

  00000	55		 push	 ebp
  00001	8b ec		 mov	 ebp, esp
  00003	83 ec 20	 sub	 esp, 32			; 00000020H
  00006	89 4d f8	 mov	 DWORD PTR _this$[ebp], ecx

; 1384 :         auto& _My_data    = _Mypair._Myval2;

  00009	8b 45 f8	 mov	 eax, DWORD PTR _this$[ebp]
  0000c	89 45 fc	 mov	 DWORD PTR __My_data$[ebp], eax

; 1385 :         pointer& _Myfirst = _My_data._Myfirst;

  0000f	8b 45 fc	 mov	 eax, DWORD PTR __My_data$[ebp]
  00012	89 45 f0	 mov	 DWORD PTR __Myfirst$[ebp], eax

; 1386 :         pointer& _Mylast  = _My_data._Mylast;

  00015	8b 45 fc	 mov	 eax, DWORD PTR __My_data$[ebp]
  00018	83 c0 04	 add	 eax, 4
  0001b	89 45 f4	 mov	 DWORD PTR __Mylast$[ebp], eax

; 1387 : 
; 1388 :         _My_data._Orphan_all();
; 1389 :         _Destroy(_Myfirst, _Mylast);

  0001e	8b 45 f4	 mov	 eax, DWORD PTR __Mylast$[ebp]
  00021	8b 00		 mov	 eax, DWORD PTR [eax]
  00023	89 45 e4	 mov	 DWORD PTR __Last$[ebp], eax
  00026	8b 45 f0	 mov	 eax, DWORD PTR __Myfirst$[ebp]
  00029	8b 00		 mov	 eax, DWORD PTR [eax]
  0002b	89 45 e0	 mov	 DWORD PTR __First$[ebp], eax

; 1733 :         return _Mypair._Get_first();

  0002e	8b 45 f8	 mov	 eax, DWORD PTR _this$[ebp]
; File C:\Program Files (x86)\Microsoft Visual Studio\2019\Community\VC\Tools\MSVC\14.28.29333\include\xmemory

; 1347 :         return *this;

  00031	89 45 ec	 mov	 DWORD PTR $T2[ebp], eax
; File C:\Program Files (x86)\Microsoft Visual Studio\2019\Community\VC\Tools\MSVC\14.28.29333\include\vector

; 1733 :         return _Mypair._Get_first();

  00034	8b 45 ec	 mov	 eax, DWORD PTR $T2[ebp]
  00037	89 45 e8	 mov	 DWORD PTR $T1[ebp], eax

; 1612 :         _Destroy_range(_First, _Last, _Getal());

  0003a	ff 75 e8	 push	 DWORD PTR $T1[ebp]
  0003d	ff 75 e4	 push	 DWORD PTR __Last$[ebp]
  00040	ff 75 e0	 push	 DWORD PTR __First$[ebp]
  00043	e8 00 00 00 00	 call	 ??$_Destroy_range@V?$allocator@PAVCTextureAnimationCWDecorator@NEffectUpdateDecorator@@@std@@@std@@YAXPAPAVCTextureAnimationCWDecorator@NEffectUpdateDecorator@@QAPAV12@AAV?$allocator@PAVCTextureAnimationCWDecorator@NEffectUpdateDecorator@@@0@@Z ; std::_Destroy_range<std::allocator<NEffectUpdateDecorator::CTextureAnimationCWDecorator *> >
  00048	83 c4 0c	 add	 esp, 12			; 0000000cH

; 1390 :         _Mylast = _Myfirst;

  0004b	8b 45 f4	 mov	 eax, DWORD PTR __Mylast$[ebp]
  0004e	8b 4d f0	 mov	 ecx, DWORD PTR __Myfirst$[ebp]
  00051	8b 09		 mov	 ecx, DWORD PTR [ecx]
  00053	89 08		 mov	 DWORD PTR [eax], ecx

; 1391 :     }

  00055	c9		 leave
  00056	c3		 ret	 0
?clear@?$vector@PAVCTextureAnimationCWDecorator@NEffectUpdateDecorator@@V?$allocator@PAVCTextureAnimationCWDecorator@NEffectUpdateDecorator@@@std@@@std@@QAEXXZ ENDP ; std::vector<NEffectUpdateDecorator::CTextureAnimationCWDecorator *,std::allocator<NEffectUpdateDecorator::CTextureAnimationCWDecorator *> >::clear
_TEXT	ENDS
; Function compile flags: /Odspy
; File D:\Metin2 Server Files\mainline\SRC_2014\Metin2Client\eterLib\Pool.h
;	COMDAT ?Delete@?$CDynamicPoolEx@VCTextureAnimationCWDecorator@NEffectUpdateDecorator@@@@KAXPAVCTextureAnimationCWDecorator@NEffectUpdateDecorator@@@Z
_TEXT	SEGMENT
_pkData$ = 8						; size = 4
?Delete@?$CDynamicPoolEx@VCTextureAnimationCWDecorator@NEffectUpdateDecorator@@@@KAXPAVCTextureAnimationCWDecorator@NEffectUpdateDecorator@@@Z PROC ; CDynamicPoolEx<NEffectUpdateDecorator::CTextureAnimationCWDecorator>::Delete, COMDAT

; 223  : 		{

  00000	55		 push	 ebp
  00001	8b ec		 mov	 ebp, esp

; 224  : 			::operator delete(pkData);

  00003	ff 75 08	 push	 DWORD PTR _pkData$[ebp]
  00006	e8 00 00 00 00	 call	 ??3@YAXPAX@Z		; operator delete
  0000b	59		 pop	 ecx

; 225  : 		}

  0000c	5d		 pop	 ebp
  0000d	c3		 ret	 0
?Delete@?$CDynamicPoolEx@VCTextureAnimationCWDecorator@NEffectUpdateDecorator@@@@KAXPAVCTextureAnimationCWDecorator@NEffectUpdateDecorator@@@Z ENDP ; CDynamicPoolEx<NEffectUpdateDecorator::CTextureAnimationCWDecorator>::Delete
_TEXT	ENDS
; Function compile flags: /Odspy
; File D:\Metin2 Server Files\mainline\SRC_2014\Metin2Client\eterLib\Pool.h
; File C:\Program Files (x86)\Microsoft Visual Studio\2019\Community\VC\Tools\MSVC\14.28.29333\include\vector
; File C:\Program Files (x86)\Microsoft Visual Studio\2019\Community\VC\Tools\MSVC\14.28.29333\include\xstddef
; File C:\Program Files (x86)\Microsoft Visual Studio\2019\Community\VC\Tools\MSVC\14.28.29333\include\vector
; File C:\Program Files (x86)\Microsoft Visual Studio\2019\Community\VC\Tools\MSVC\14.28.29333\include\xstddef
; File C:\Program Files (x86)\Microsoft Visual Studio\2019\Community\VC\Tools\MSVC\14.28.29333\include\vector
; File D:\Metin2 Server Files\mainline\SRC_2014\Metin2Client\eterLib\Pool.h
;	COMDAT ?Destroy@?$CDynamicPoolEx@VCTextureAnimationCWDecorator@NEffectUpdateDecorator@@@@QAEXXZ
_TEXT	SEGMENT
$T1 = -44						; size = 4
$T2 = -40						; size = 4
$T3 = -36						; size = 4
$T4 = -32						; size = 4
$T5 = -28						; size = 4
___param0$ = -24					; size = 4
$T6 = -20						; size = 4
___param0$ = -16					; size = 4
__My_data$7 = -12					; size = 4
__My_data$8 = -8					; size = 4
_this$ = -4						; size = 4
?Destroy@?$CDynamicPoolEx@VCTextureAnimationCWDecorator@NEffectUpdateDecorator@@@@QAEXXZ PROC ; CDynamicPoolEx<NEffectUpdateDecorator::CTextureAnimationCWDecorator>::Destroy, COMDAT
; _this$ = ecx

; 150  : 		{

  00000	55		 push	 ebp
  00001	8b ec		 mov	 ebp, esp
  00003	83 ec 2c	 sub	 esp, 44			; 0000002cH
  00006	89 4d fc	 mov	 DWORD PTR _this$[ebp], ecx
; File C:\Program Files (x86)\Microsoft Visual Studio\2019\Community\VC\Tools\MSVC\14.28.29333\include\vector

; 1420 :         auto& _My_data = _Mypair._Myval2;

  00009	8b 45 fc	 mov	 eax, DWORD PTR _this$[ebp]
  0000c	83 c0 04	 add	 eax, 4
  0000f	89 45 f8	 mov	 DWORD PTR __My_data$8[ebp], eax
; File C:\Program Files (x86)\Microsoft Visual Studio\2019\Community\VC\Tools\MSVC\14.28.29333\include\xstddef

; 275  :     return __builtin_addressof(_Val);

  00012	8b 45 f8	 mov	 eax, DWORD PTR __My_data$8[ebp]
  00015	89 45 d8	 mov	 DWORD PTR $T2[ebp], eax
; File C:\Program Files (x86)\Microsoft Visual Studio\2019\Community\VC\Tools\MSVC\14.28.29333\include\vector

; 1421 :         return iterator(_My_data._Mylast, _STD addressof(_My_data));

  00018	8b 45 f8	 mov	 eax, DWORD PTR __My_data$8[ebp]
  0001b	8b 40 04	 mov	 eax, DWORD PTR [eax+4]
  0001e	89 45 f0	 mov	 DWORD PTR ___param0$[ebp], eax

; 42   :     _Vector_const_iterator(_Tptr _Parg, const _Container_base* _Pvector) noexcept : _Ptr(_Parg) {

  00021	8b 45 f0	 mov	 eax, DWORD PTR ___param0$[ebp]
  00024	89 45 ec	 mov	 DWORD PTR $T6[ebp], eax

; 1421 :         return iterator(_My_data._Mylast, _STD addressof(_My_data));

  00027	8d 45 ec	 lea	 eax, DWORD PTR $T6[ebp]
  0002a	89 45 e0	 mov	 DWORD PTR $T4[ebp], eax

; 1410 :         auto& _My_data = _Mypair._Myval2;

  0002d	8b 45 fc	 mov	 eax, DWORD PTR _this$[ebp]
  00030	83 c0 04	 add	 eax, 4
  00033	89 45 f4	 mov	 DWORD PTR __My_data$7[ebp], eax
; File C:\Program Files (x86)\Microsoft Visual Studio\2019\Community\VC\Tools\MSVC\14.28.29333\include\xstddef

; 275  :     return __builtin_addressof(_Val);

  00036	8b 45 f4	 mov	 eax, DWORD PTR __My_data$7[ebp]
  00039	89 45 d4	 mov	 DWORD PTR $T1[ebp], eax
; File C:\Program Files (x86)\Microsoft Visual Studio\2019\Community\VC\Tools\MSVC\14.28.29333\include\vector

; 1411 :         return iterator(_My_data._Myfirst, _STD addressof(_My_data));

  0003c	8b 45 f4	 mov	 eax, DWORD PTR __My_data$7[ebp]
  0003f	8b 00		 mov	 eax, DWORD PTR [eax]
  00041	89 45 e8	 mov	 DWORD PTR ___param0$[ebp], eax

; 42   :     _Vector_const_iterator(_Tptr _Parg, const _Container_base* _Pvector) noexcept : _Ptr(_Parg) {

  00044	8b 45 e8	 mov	 eax, DWORD PTR ___param0$[ebp]
  00047	89 45 e4	 mov	 DWORD PTR $T5[ebp], eax

; 1411 :         return iterator(_My_data._Myfirst, _STD addressof(_My_data));

  0004a	8d 45 e4	 lea	 eax, DWORD PTR $T5[ebp]
  0004d	89 45 dc	 mov	 DWORD PTR $T3[ebp], eax
; File D:\Metin2 Server Files\mainline\SRC_2014\Metin2Client\eterLib\Pool.h

; 160  : 			std::for_each(m_kVct_pkData.begin(), m_kVct_pkData.end(), Delete);

  00050	68 00 00 00 00	 push	 OFFSET ?Delete@?$CDynamicPoolEx@VCTextureAnimationCWDecorator@NEffectUpdateDecorator@@@@KAXPAVCTextureAnimationCWDecorator@NEffectUpdateDecorator@@@Z ; CDynamicPoolEx<NEffectUpdateDecorator::CTextureAnimationCWDecorator>::Delete
  00055	8b 45 e0	 mov	 eax, DWORD PTR $T4[ebp]
  00058	ff 30		 push	 DWORD PTR [eax]
  0005a	8b 45 dc	 mov	 eax, DWORD PTR $T3[ebp]
  0005d	ff 30		 push	 DWORD PTR [eax]
  0005f	e8 00 00 00 00	 call	 ??$for_each@V?$_Vector_iterator@V?$_Vector_val@U?$_Simple_types@PAVCTextureAnimationCWDecorator@NEffectUpdateDecorator@@@std@@@std@@@std@@P6AXPAVCTextureAnimationCWDecorator@NEffectUpdateDecorator@@@Z@std@@YAP6AXPAVCTextureAnimationCWDecorator@NEffectUpdateDecorator@@@ZV?$_Vector_iterator@V?$_Vector_val@U?$_Simple_types@PAVCTextureAnimationCWDecorator@NEffectUpdateDecorator@@@std@@@std@@@0@1P6AX0@Z@Z ; std::for_each<std::_Vector_iterator<std::_Vector_val<std::_Simple_types<NEffectUpdateDecorator::CTextureAnimationCWDecorator *> > >,void (__cdecl*)(NEffectUpdateDecorator::CTextureAnimationCWDecorator *)>
  00064	83 c4 0c	 add	 esp, 12			; 0000000cH

; 161  : 			m_kVct_pkData.clear();

  00067	8b 4d fc	 mov	 ecx, DWORD PTR _this$[ebp]
  0006a	83 c1 04	 add	 ecx, 4
  0006d	e8 00 00 00 00	 call	 ?clear@?$vector@PAVCTextureAnimationCWDecorator@NEffectUpdateDecorator@@V?$allocator@PAVCTextureAnimationCWDecorator@NEffectUpdateDecorator@@@std@@@std@@QAEXXZ ; std::vector<NEffectUpdateDecorator::CTextureAnimationCWDecorator *,std::allocator<NEffectUpdateDecorator::CTextureAnimationCWDecorator *> >::clear

; 162  : 			m_kVct_pkFree.clear();

  00072	8b 4d fc	 mov	 ecx, DWORD PTR _this$[ebp]
  00075	83 c1 10	 add	 ecx, 16			; 00000010H
  00078	e8 00 00 00 00	 call	 ?clear@?$vector@PAVCTextureAnimationCWDecorator@NEffectUpdateDecorator@@V?$allocator@PAVCTextureAnimationCWDecorator@NEffectUpdateDecorator@@@std@@@std@@QAEXXZ ; std::vector<NEffectUpdateDecorator::CTextureAnimationCWDecorator *,std::allocator<NEffectUpdateDecorator::CTextureAnimationCWDecorator *> >::clear

; 163  : 		}

  0007d	c9		 leave
  0007e	c3		 ret	 0
?Destroy@?$CDynamicPoolEx@VCTextureAnimationCWDecorator@NEffectUpdateDecorator@@@@QAEXXZ ENDP ; CDynamicPoolEx<NEffectUpdateDecorator::CTextureAnimationCWDecorator>::Destroy
_TEXT	ENDS
; Function compile flags: /Odspy
; File D:\Metin2 Server Files\mainline\SRC_2014\Metin2Client\eterLib\Pool.h
; File C:\Program Files (x86)\Microsoft Visual Studio\2019\Community\VC\Tools\MSVC\14.28.29333\include\vector
; File D:\Metin2 Server Files\mainline\SRC_2014\Metin2Client\eterLib\Pool.h
; File C:\Program Files (x86)\Microsoft Visual Studio\2019\Community\VC\Tools\MSVC\14.28.29333\include\vector
; File D:\Metin2 Server Files\mainline\SRC_2014\Metin2Client\eterLib\Pool.h
;	COMDAT ??1?$CDynamicPoolEx@VCTextureAnimationCWDecorator@NEffectUpdateDecorator@@@@UAE@XZ
_TEXT	SEGMENT
_this$ = -16						; size = 4
__$EHRec$ = -12						; size = 12
??1?$CDynamicPoolEx@VCTextureAnimationCWDecorator@NEffectUpdateDecorator@@@@UAE@XZ PROC ; CDynamicPoolEx<NEffectUpdateDecorator::CTextureAnimationCWDecorator>::~CDynamicPoolEx<NEffectUpdateDecorator::CTextureAnimationCWDecorator>, COMDAT
; _this$ = ecx

; 132  : 		{

  00000	55		 push	 ebp
  00001	8b ec		 mov	 ebp, esp
  00003	6a ff		 push	 -1
  00005	68 00 00 00 00	 push	 __ehhandler$??1?$CDynamicPoolEx@VCTextureAnimationCWDecorator@NEffectUpdateDecorator@@@@UAE@XZ
  0000a	64 a1 00 00 00
	00		 mov	 eax, DWORD PTR fs:0
  00010	50		 push	 eax
  00011	51		 push	 ecx
  00012	a1 00 00 00 00	 mov	 eax, DWORD PTR ___security_cookie
  00017	33 c5		 xor	 eax, ebp
  00019	50		 push	 eax
  0001a	8d 45 f4	 lea	 eax, DWORD PTR __$EHRec$[ebp]
  0001d	64 a3 00 00 00
	00		 mov	 DWORD PTR fs:0, eax
  00023	89 4d f0	 mov	 DWORD PTR _this$[ebp], ecx
  00026	8b 45 f0	 mov	 eax, DWORD PTR _this$[ebp]
  00029	c7 00 00 00 00
	00		 mov	 DWORD PTR [eax], OFFSET ??_7?$CDynamicPoolEx@VCTextureAnimationCWDecorator@NEffectUpdateDecorator@@@@6B@

; 133  : 			assert(m_kVct_pkFree.size()==m_kVct_pkData.size());
; 134  : 			Destroy();

  0002f	8b 4d f0	 mov	 ecx, DWORD PTR _this$[ebp]
  00032	e8 00 00 00 00	 call	 ?Destroy@?$CDynamicPoolEx@VCTextureAnimationCWDecorator@NEffectUpdateDecorator@@@@QAEXXZ ; CDynamicPoolEx<NEffectUpdateDecorator::CTextureAnimationCWDecorator>::Destroy

; 142  : 		}

  00037	8b 4d f0	 mov	 ecx, DWORD PTR _this$[ebp]
  0003a	83 c1 10	 add	 ecx, 16			; 00000010H
; File C:\Program Files (x86)\Microsoft Visual Studio\2019\Community\VC\Tools\MSVC\14.28.29333\include\vector

; 673  :         _Tidy();

  0003d	e8 00 00 00 00	 call	 ?_Tidy@?$vector@PAVCTextureAnimationCWDecorator@NEffectUpdateDecorator@@V?$allocator@PAVCTextureAnimationCWDecorator@NEffectUpdateDecorator@@@std@@@std@@AAEXXZ ; std::vector<NEffectUpdateDecorator::CTextureAnimationCWDecorator *,std::allocator<NEffectUpdateDecorator::CTextureAnimationCWDecorator *> >::_Tidy
; File D:\Metin2 Server Files\mainline\SRC_2014\Metin2Client\eterLib\Pool.h

; 142  : 		}

  00042	8b 4d f0	 mov	 ecx, DWORD PTR _this$[ebp]
  00045	83 c1 04	 add	 ecx, 4
; File C:\Program Files (x86)\Microsoft Visual Studio\2019\Community\VC\Tools\MSVC\14.28.29333\include\vector

; 673  :         _Tidy();

  00048	e8 00 00 00 00	 call	 ?_Tidy@?$vector@PAVCTextureAnimationCWDecorator@NEffectUpdateDecorator@@V?$allocator@PAVCTextureAnimationCWDecorator@NEffectUpdateDecorator@@@std@@@std@@AAEXXZ ; std::vector<NEffectUpdateDecorator::CTextureAnimationCWDecorator *,std::allocator<NEffectUpdateDecorator::CTextureAnimationCWDecorator *> >::_Tidy
; File D:\Metin2 Server Files\mainline\SRC_2014\Metin2Client\eterLib\Pool.h

; 142  : 		}

  0004d	8b 4d f4	 mov	 ecx, DWORD PTR __$EHRec$[ebp]
  00050	64 89 0d 00 00
	00 00		 mov	 DWORD PTR fs:0, ecx
  00057	59		 pop	 ecx
  00058	c9		 leave
  00059	c3		 ret	 0
  0005a	cc		 int	 3
  0005b	cc		 int	 3
  0005c	cc		 int	 3
  0005d	cc		 int	 3
  0005e	cc		 int	 3
_TEXT	ENDS
;	COMDAT text$x
text$x	SEGMENT
__ehhandler$??1?$CDynamicPoolEx@VCTextureAnimationCWDecorator@NEffectUpdateDecorator@@@@UAE@XZ:
  00000	90		 npad	 1
  00001	90		 npad	 1
  00002	8b 54 24 08	 mov	 edx, DWORD PTR [esp+8]
  00006	8d 42 0c	 lea	 eax, DWORD PTR [edx+12]
  00009	8b 4a f8	 mov	 ecx, DWORD PTR [edx-8]
  0000c	33 c8		 xor	 ecx, eax
  0000e	e8 00 00 00 00	 call	 @__security_check_cookie@4
  00013	b8 00 00 00 00	 mov	 eax, OFFSET __ehfuncinfo$??1?$CDynamicPoolEx@VCTextureAnimationCWDecorator@NEffectUpdateDecorator@@@@UAE@XZ
  00018	e9 00 00 00 00	 jmp	 ___CxxFrameHandler3
text$x	ENDS
??1?$CDynamicPoolEx@VCTextureAnimationCWDecorator@NEffectUpdateDecorator@@@@UAE@XZ ENDP ; CDynamicPoolEx<NEffectUpdateDecorator::CTextureAnimationCWDecorator>::~CDynamicPoolEx<NEffectUpdateDecorator::CTextureAnimationCWDecorator>
; Function compile flags: /Odspy
; File D:\Metin2 Server Files\mainline\SRC_2014\Metin2Client\eterLib\Pool.h
; File C:\Program Files (x86)\Microsoft Visual Studio\2019\Community\VC\Tools\MSVC\14.28.29333\include\vector
; File C:\Program Files (x86)\Microsoft Visual Studio\2019\Community\VC\Tools\MSVC\14.28.29333\include\xmemory
; File C:\Program Files (x86)\Microsoft Visual Studio\2019\Community\VC\Tools\MSVC\14.28.29333\include\vector
; File D:\Metin2 Server Files\mainline\SRC_2014\Metin2Client\eterLib\Pool.h
; File C:\Program Files (x86)\Microsoft Visual Studio\2019\Community\VC\Tools\MSVC\14.28.29333\include\vector
; File C:\Program Files (x86)\Microsoft Visual Studio\2019\Community\VC\Tools\MSVC\14.28.29333\include\xmemory
; File C:\Program Files (x86)\Microsoft Visual Studio\2019\Community\VC\Tools\MSVC\14.28.29333\include\vector
; File D:\Metin2 Server Files\mainline\SRC_2014\Metin2Client\eterLib\Pool.h
;	COMDAT ??0?$CDynamicPoolEx@VCTextureAnimationCWDecorator@NEffectUpdateDecorator@@@@QAE@XZ
_TEXT	SEGMENT
_this$ = -28						; size = 4
_this$ = -24						; size = 4
_this$ = -20						; size = 4
_this$ = -16						; size = 4
_this$1 = -12						; size = 4
_this$2 = -8						; size = 4
_this$ = -4						; size = 4
??0?$CDynamicPoolEx@VCTextureAnimationCWDecorator@NEffectUpdateDecorator@@@@QAE@XZ PROC ; CDynamicPoolEx<NEffectUpdateDecorator::CTextureAnimationCWDecorator>::CDynamicPoolEx<NEffectUpdateDecorator::CTextureAnimationCWDecorator>, COMDAT
; _this$ = ecx

; 126  : 		CDynamicPoolEx()

  00000	55		 push	 ebp
  00001	8b ec		 mov	 ebp, esp
  00003	83 ec 1c	 sub	 esp, 28			; 0000001cH
  00006	89 4d fc	 mov	 DWORD PTR _this$[ebp], ecx

; 127  : 		{

  00009	8b 45 fc	 mov	 eax, DWORD PTR _this$[ebp]
  0000c	c7 00 00 00 00
	00		 mov	 DWORD PTR [eax], OFFSET ??_7?$CDynamicPoolEx@VCTextureAnimationCWDecorator@NEffectUpdateDecorator@@@@6B@
  00012	8b 45 fc	 mov	 eax, DWORD PTR _this$[ebp]
  00015	83 c0 04	 add	 eax, 4
  00018	89 45 f0	 mov	 DWORD PTR _this$[ebp], eax
; File C:\Program Files (x86)\Microsoft Visual Studio\2019\Community\VC\Tools\MSVC\14.28.29333\include\vector

; 445  :     vector() noexcept(is_nothrow_default_constructible_v<_Alty>) : _Mypair(_Zero_then_variadic_args_t{}) {

  0001b	8b 45 f0	 mov	 eax, DWORD PTR _this$[ebp]
  0001e	89 45 ec	 mov	 DWORD PTR _this$[ebp], eax
; File C:\Program Files (x86)\Microsoft Visual Studio\2019\Community\VC\Tools\MSVC\14.28.29333\include\xmemory

; 1339 :         : _Ty1(), _Myval2(_STD forward<_Other2>(_Val2)...) {}

  00021	8b 45 ec	 mov	 eax, DWORD PTR _this$[ebp]
  00024	89 45 f8	 mov	 DWORD PTR _this$2[ebp], eax
; File C:\Program Files (x86)\Microsoft Visual Studio\2019\Community\VC\Tools\MSVC\14.28.29333\include\vector

; 375  :     _Vector_val() noexcept : _Myfirst(), _Mylast(), _Myend() {}

  00027	8b 45 f8	 mov	 eax, DWORD PTR _this$2[ebp]
  0002a	83 20 00	 and	 DWORD PTR [eax], 0
  0002d	8b 45 f8	 mov	 eax, DWORD PTR _this$2[ebp]
  00030	83 60 04 00	 and	 DWORD PTR [eax+4], 0
  00034	8b 45 f8	 mov	 eax, DWORD PTR _this$2[ebp]
  00037	83 60 08 00	 and	 DWORD PTR [eax+8], 0
; File D:\Metin2 Server Files\mainline\SRC_2014\Metin2Client\eterLib\Pool.h

; 127  : 		{

  0003b	8b 45 fc	 mov	 eax, DWORD PTR _this$[ebp]
  0003e	83 c0 10	 add	 eax, 16			; 00000010H
  00041	89 45 e8	 mov	 DWORD PTR _this$[ebp], eax
; File C:\Program Files (x86)\Microsoft Visual Studio\2019\Community\VC\Tools\MSVC\14.28.29333\include\vector

; 445  :     vector() noexcept(is_nothrow_default_constructible_v<_Alty>) : _Mypair(_Zero_then_variadic_args_t{}) {

  00044	8b 45 e8	 mov	 eax, DWORD PTR _this$[ebp]
  00047	89 45 e4	 mov	 DWORD PTR _this$[ebp], eax
; File C:\Program Files (x86)\Microsoft Visual Studio\2019\Community\VC\Tools\MSVC\14.28.29333\include\xmemory

; 1339 :         : _Ty1(), _Myval2(_STD forward<_Other2>(_Val2)...) {}

  0004a	8b 45 e4	 mov	 eax, DWORD PTR _this$[ebp]
  0004d	89 45 f4	 mov	 DWORD PTR _this$1[ebp], eax
; File C:\Program Files (x86)\Microsoft Visual Studio\2019\Community\VC\Tools\MSVC\14.28.29333\include\vector

; 375  :     _Vector_val() noexcept : _Myfirst(), _Mylast(), _Myend() {}

  00050	8b 45 f4	 mov	 eax, DWORD PTR _this$1[ebp]
  00053	83 20 00	 and	 DWORD PTR [eax], 0
  00056	8b 45 f4	 mov	 eax, DWORD PTR _this$1[ebp]
  00059	83 60 04 00	 and	 DWORD PTR [eax+4], 0
  0005d	8b 45 f4	 mov	 eax, DWORD PTR _this$1[ebp]
  00060	83 60 08 00	 and	 DWORD PTR [eax+8], 0
; File D:\Metin2 Server Files\mainline\SRC_2014\Metin2Client\eterLib\Pool.h

; 128  : 			m_uInitCapacity=0;

  00064	8b 45 fc	 mov	 eax, DWORD PTR _this$[ebp]
  00067	83 60 1c 00	 and	 DWORD PTR [eax+28], 0

; 129  : 			m_uUsedCapacity=0;

  0006b	8b 45 fc	 mov	 eax, DWORD PTR _this$[ebp]
  0006e	83 60 20 00	 and	 DWORD PTR [eax+32], 0

; 130  : 		}

  00072	8b 45 fc	 mov	 eax, DWORD PTR _this$[ebp]
  00075	c9		 leave
  00076	c3		 ret	 0
??0?$CDynamicPoolEx@VCTextureAnimationCWDecorator@NEffectUpdateDecorator@@@@QAE@XZ ENDP ; CDynamicPoolEx<NEffectUpdateDecorator::CTextureAnimationCWDecorator>::CDynamicPoolEx<NEffectUpdateDecorator::CTextureAnimationCWDecorator>
_TEXT	ENDS
; Function compile flags: /Odspy
;	COMDAT ??_G?$CDynamicPoolEx@VCTextureAnimationCCWDecorator@NEffectUpdateDecorator@@@@UAEPAXI@Z
_TEXT	SEGMENT
_this$ = -4						; size = 4
___flags$ = 8						; size = 4
??_G?$CDynamicPoolEx@VCTextureAnimationCCWDecorator@NEffectUpdateDecorator@@@@UAEPAXI@Z PROC ; CDynamicPoolEx<NEffectUpdateDecorator::CTextureAnimationCCWDecorator>::`scalar deleting destructor', COMDAT
; _this$ = ecx
  00000	55		 push	 ebp
  00001	8b ec		 mov	 ebp, esp
  00003	51		 push	 ecx
  00004	89 4d fc	 mov	 DWORD PTR _this$[ebp], ecx
  00007	8b 4d fc	 mov	 ecx, DWORD PTR _this$[ebp]
  0000a	e8 00 00 00 00	 call	 ??1?$CDynamicPoolEx@VCTextureAnimationCCWDecorator@NEffectUpdateDecorator@@@@UAE@XZ ; CDynamicPoolEx<NEffectUpdateDecorator::CTextureAnimationCCWDecorator>::~CDynamicPoolEx<NEffectUpdateDecorator::CTextureAnimationCCWDecorator>
  0000f	8b 45 08	 mov	 eax, DWORD PTR ___flags$[ebp]
  00012	83 e0 01	 and	 eax, 1
  00015	74 0c		 je	 SHORT $LN2@scalar
  00017	6a 24		 push	 36			; 00000024H
  00019	ff 75 fc	 push	 DWORD PTR _this$[ebp]
  0001c	e8 00 00 00 00	 call	 ??3@YAXPAXI@Z		; operator delete
  00021	59		 pop	 ecx
  00022	59		 pop	 ecx
$LN2@scalar:
  00023	8b 45 fc	 mov	 eax, DWORD PTR _this$[ebp]
  00026	c9		 leave
  00027	c2 04 00	 ret	 4
??_G?$CDynamicPoolEx@VCTextureAnimationCCWDecorator@NEffectUpdateDecorator@@@@UAEPAXI@Z ENDP ; CDynamicPoolEx<NEffectUpdateDecorator::CTextureAnimationCCWDecorator>::`scalar deleting destructor'
_TEXT	ENDS
; Function compile flags: /Odspy
; File C:\Program Files (x86)\Microsoft Visual Studio\2019\Community\VC\Tools\MSVC\14.28.29333\include\vector
; File C:\Program Files (x86)\Microsoft Visual Studio\2019\Community\VC\Tools\MSVC\14.28.29333\include\xmemory
; File C:\Program Files (x86)\Microsoft Visual Studio\2019\Community\VC\Tools\MSVC\14.28.29333\include\vector
; File C:\Program Files (x86)\Microsoft Visual Studio\2019\Community\VC\Tools\MSVC\14.28.29333\include\xmemory
; File C:\Program Files (x86)\Microsoft Visual Studio\2019\Community\VC\Tools\MSVC\14.28.29333\include\vector
; File C:\Program Files (x86)\Microsoft Visual Studio\2019\Community\VC\Tools\MSVC\14.28.29333\include\xmemory
; File C:\Program Files (x86)\Microsoft Visual Studio\2019\Community\VC\Tools\MSVC\14.28.29333\include\vector
;	COMDAT ?_Tidy@?$vector@PAVCTextureAnimationCCWDecorator@NEffectUpdateDecorator@@V?$allocator@PAVCTextureAnimationCCWDecorator@NEffectUpdateDecorator@@@std@@@std@@AAEXXZ
_TEXT	SEGMENT
$T1 = -52						; size = 4
__Ptr$ = -48						; size = 4
__Count$ = -44						; size = 4
$T2 = -40						; size = 4
__First$ = -36						; size = 4
__Last$ = -32						; size = 4
$T3 = -28						; size = 4
$T4 = -24						; size = 4
__Myend$ = -20						; size = 4
__Mylast$ = -16						; size = 4
_this$ = -12						; size = 4
__My_data$ = -8						; size = 4
__Myfirst$ = -4						; size = 4
?_Tidy@?$vector@PAVCTextureAnimationCCWDecorator@NEffectUpdateDecorator@@V?$allocator@PAVCTextureAnimationCCWDecorator@NEffectUpdateDecorator@@@std@@@std@@AAEXXZ PROC ; std::vector<NEffectUpdateDecorator::CTextureAnimationCCWDecorator *,std::allocator<NEffectUpdateDecorator::CTextureAnimationCCWDecorator *> >::_Tidy, COMDAT
; _this$ = ecx

; 1686 :     void _Tidy() noexcept { // free all storage

  00000	55		 push	 ebp
  00001	8b ec		 mov	 ebp, esp
  00003	83 ec 34	 sub	 esp, 52			; 00000034H
  00006	89 4d f4	 mov	 DWORD PTR _this$[ebp], ecx

; 1687 :         auto& _My_data    = _Mypair._Myval2;

  00009	8b 45 f4	 mov	 eax, DWORD PTR _this$[ebp]
  0000c	89 45 f8	 mov	 DWORD PTR __My_data$[ebp], eax

; 1688 :         pointer& _Myfirst = _My_data._Myfirst;

  0000f	8b 45 f8	 mov	 eax, DWORD PTR __My_data$[ebp]
  00012	89 45 fc	 mov	 DWORD PTR __Myfirst$[ebp], eax

; 1689 :         pointer& _Mylast  = _My_data._Mylast;

  00015	8b 45 f8	 mov	 eax, DWORD PTR __My_data$[ebp]
  00018	83 c0 04	 add	 eax, 4
  0001b	89 45 f0	 mov	 DWORD PTR __Mylast$[ebp], eax

; 1690 :         pointer& _Myend   = _My_data._Myend;

  0001e	8b 45 f8	 mov	 eax, DWORD PTR __My_data$[ebp]
  00021	83 c0 08	 add	 eax, 8
  00024	89 45 ec	 mov	 DWORD PTR __Myend$[ebp], eax

; 1691 : 
; 1692 :         _My_data._Orphan_all();
; 1693 : 
; 1694 :         if (_Myfirst) { // destroy and deallocate old array

  00027	8b 45 fc	 mov	 eax, DWORD PTR __Myfirst$[ebp]
  0002a	83 38 00	 cmp	 DWORD PTR [eax], 0
  0002d	74 74		 je	 SHORT $LN3@Tidy

; 1695 :             _Destroy(_Myfirst, _Mylast);

  0002f	8b 45 f0	 mov	 eax, DWORD PTR __Mylast$[ebp]
  00032	8b 00		 mov	 eax, DWORD PTR [eax]
  00034	89 45 e0	 mov	 DWORD PTR __Last$[ebp], eax
  00037	8b 45 fc	 mov	 eax, DWORD PTR __Myfirst$[ebp]
  0003a	8b 00		 mov	 eax, DWORD PTR [eax]
  0003c	89 45 dc	 mov	 DWORD PTR __First$[ebp], eax

; 1733 :         return _Mypair._Get_first();

  0003f	8b 45 f4	 mov	 eax, DWORD PTR _this$[ebp]
; File C:\Program Files (x86)\Microsoft Visual Studio\2019\Community\VC\Tools\MSVC\14.28.29333\include\xmemory

; 1347 :         return *this;

  00042	89 45 e8	 mov	 DWORD PTR $T4[ebp], eax
; File C:\Program Files (x86)\Microsoft Visual Studio\2019\Community\VC\Tools\MSVC\14.28.29333\include\vector

; 1733 :         return _Mypair._Get_first();

  00045	8b 45 e8	 mov	 eax, DWORD PTR $T4[ebp]
  00048	89 45 e4	 mov	 DWORD PTR $T3[ebp], eax

; 1612 :         _Destroy_range(_First, _Last, _Getal());

  0004b	ff 75 e4	 push	 DWORD PTR $T3[ebp]
  0004e	ff 75 e0	 push	 DWORD PTR __Last$[ebp]
  00051	ff 75 dc	 push	 DWORD PTR __First$[ebp]
  00054	e8 00 00 00 00	 call	 ??$_Destroy_range@V?$allocator@PAVCTextureAnimationCCWDecorator@NEffectUpdateDecorator@@@std@@@std@@YAXPAPAVCTextureAnimationCCWDecorator@NEffectUpdateDecorator@@QAPAV12@AAV?$allocator@PAVCTextureAnimationCCWDecorator@NEffectUpdateDecorator@@@0@@Z ; std::_Destroy_range<std::allocator<NEffectUpdateDecorator::CTextureAnimationCCWDecorator *> >
  00059	83 c4 0c	 add	 esp, 12			; 0000000cH

; 1733 :         return _Mypair._Get_first();

  0005c	8b 45 f4	 mov	 eax, DWORD PTR _this$[ebp]
; File C:\Program Files (x86)\Microsoft Visual Studio\2019\Community\VC\Tools\MSVC\14.28.29333\include\xmemory

; 1347 :         return *this;

  0005f	89 45 d8	 mov	 DWORD PTR $T2[ebp], eax
; File C:\Program Files (x86)\Microsoft Visual Studio\2019\Community\VC\Tools\MSVC\14.28.29333\include\vector

; 1733 :         return _Mypair._Get_first();

  00062	8b 45 d8	 mov	 eax, DWORD PTR $T2[ebp]
  00065	89 45 cc	 mov	 DWORD PTR $T1[ebp], eax

; 1696 :             _Getal().deallocate(_Myfirst, static_cast<size_type>(_Myend - _Myfirst));

  00068	8b 45 ec	 mov	 eax, DWORD PTR __Myend$[ebp]
  0006b	8b 4d fc	 mov	 ecx, DWORD PTR __Myfirst$[ebp]
  0006e	8b 00		 mov	 eax, DWORD PTR [eax]
  00070	2b 01		 sub	 eax, DWORD PTR [ecx]
  00072	c1 f8 02	 sar	 eax, 2
  00075	89 45 d4	 mov	 DWORD PTR __Count$[ebp], eax
  00078	8b 45 fc	 mov	 eax, DWORD PTR __Myfirst$[ebp]
  0007b	8b 00		 mov	 eax, DWORD PTR [eax]
  0007d	89 45 d0	 mov	 DWORD PTR __Ptr$[ebp], eax
; File C:\Program Files (x86)\Microsoft Visual Studio\2019\Community\VC\Tools\MSVC\14.28.29333\include\xmemory

; 810  :         _Deallocate<_New_alignof<_Ty>>(_Ptr, sizeof(_Ty) * _Count);

  00080	8b 45 d4	 mov	 eax, DWORD PTR __Count$[ebp]
  00083	c1 e0 02	 shl	 eax, 2
  00086	50		 push	 eax
  00087	ff 75 d0	 push	 DWORD PTR __Ptr$[ebp]
  0008a	e8 00 00 00 00	 call	 ??$_Deallocate@$07$0A@@std@@YAXPAXI@Z ; std::_Deallocate<8,0>
  0008f	59		 pop	 ecx
  00090	59		 pop	 ecx
; File C:\Program Files (x86)\Microsoft Visual Studio\2019\Community\VC\Tools\MSVC\14.28.29333\include\vector

; 1698 :             _Myfirst = pointer();

  00091	8b 45 fc	 mov	 eax, DWORD PTR __Myfirst$[ebp]
  00094	83 20 00	 and	 DWORD PTR [eax], 0

; 1699 :             _Mylast  = pointer();

  00097	8b 45 f0	 mov	 eax, DWORD PTR __Mylast$[ebp]
  0009a	83 20 00	 and	 DWORD PTR [eax], 0

; 1700 :             _Myend   = pointer();

  0009d	8b 45 ec	 mov	 eax, DWORD PTR __Myend$[ebp]
  000a0	83 20 00	 and	 DWORD PTR [eax], 0
$LN3@Tidy:

; 1701 :         }
; 1702 :     }

  000a3	c9		 leave
  000a4	c3		 ret	 0
?_Tidy@?$vector@PAVCTextureAnimationCCWDecorator@NEffectUpdateDecorator@@V?$allocator@PAVCTextureAnimationCCWDecorator@NEffectUpdateDecorator@@@std@@@std@@AAEXXZ ENDP ; std::vector<NEffectUpdateDecorator::CTextureAnimationCCWDecorator *,std::allocator<NEffectUpdateDecorator::CTextureAnimationCCWDecorator *> >::_Tidy
_TEXT	ENDS
; Function compile flags: /Odspy
; File C:\Program Files (x86)\Microsoft Visual Studio\2019\Community\VC\Tools\MSVC\14.28.29333\include\vector
; File C:\Program Files (x86)\Microsoft Visual Studio\2019\Community\VC\Tools\MSVC\14.28.29333\include\xmemory
; File C:\Program Files (x86)\Microsoft Visual Studio\2019\Community\VC\Tools\MSVC\14.28.29333\include\vector
;	COMDAT ?clear@?$vector@PAVCTextureAnimationCCWDecorator@NEffectUpdateDecorator@@V?$allocator@PAVCTextureAnimationCCWDecorator@NEffectUpdateDecorator@@@std@@@std@@QAEXXZ
_TEXT	SEGMENT
__First$ = -32						; size = 4
__Last$ = -28						; size = 4
$T1 = -24						; size = 4
$T2 = -20						; size = 4
__Myfirst$ = -16					; size = 4
__Mylast$ = -12						; size = 4
_this$ = -8						; size = 4
__My_data$ = -4						; size = 4
?clear@?$vector@PAVCTextureAnimationCCWDecorator@NEffectUpdateDecorator@@V?$allocator@PAVCTextureAnimationCCWDecorator@NEffectUpdateDecorator@@@std@@@std@@QAEXXZ PROC ; std::vector<NEffectUpdateDecorator::CTextureAnimationCCWDecorator *,std::allocator<NEffectUpdateDecorator::CTextureAnimationCCWDecorator *> >::clear, COMDAT
; _this$ = ecx

; 1383 :     void clear() noexcept { // erase all

  00000	55		 push	 ebp
  00001	8b ec		 mov	 ebp, esp
  00003	83 ec 20	 sub	 esp, 32			; 00000020H
  00006	89 4d f8	 mov	 DWORD PTR _this$[ebp], ecx

; 1384 :         auto& _My_data    = _Mypair._Myval2;

  00009	8b 45 f8	 mov	 eax, DWORD PTR _this$[ebp]
  0000c	89 45 fc	 mov	 DWORD PTR __My_data$[ebp], eax

; 1385 :         pointer& _Myfirst = _My_data._Myfirst;

  0000f	8b 45 fc	 mov	 eax, DWORD PTR __My_data$[ebp]
  00012	89 45 f0	 mov	 DWORD PTR __Myfirst$[ebp], eax

; 1386 :         pointer& _Mylast  = _My_data._Mylast;

  00015	8b 45 fc	 mov	 eax, DWORD PTR __My_data$[ebp]
  00018	83 c0 04	 add	 eax, 4
  0001b	89 45 f4	 mov	 DWORD PTR __Mylast$[ebp], eax

; 1387 : 
; 1388 :         _My_data._Orphan_all();
; 1389 :         _Destroy(_Myfirst, _Mylast);

  0001e	8b 45 f4	 mov	 eax, DWORD PTR __Mylast$[ebp]
  00021	8b 00		 mov	 eax, DWORD PTR [eax]
  00023	89 45 e4	 mov	 DWORD PTR __Last$[ebp], eax
  00026	8b 45 f0	 mov	 eax, DWORD PTR __Myfirst$[ebp]
  00029	8b 00		 mov	 eax, DWORD PTR [eax]
  0002b	89 45 e0	 mov	 DWORD PTR __First$[ebp], eax

; 1733 :         return _Mypair._Get_first();

  0002e	8b 45 f8	 mov	 eax, DWORD PTR _this$[ebp]
; File C:\Program Files (x86)\Microsoft Visual Studio\2019\Community\VC\Tools\MSVC\14.28.29333\include\xmemory

; 1347 :         return *this;

  00031	89 45 ec	 mov	 DWORD PTR $T2[ebp], eax
; File C:\Program Files (x86)\Microsoft Visual Studio\2019\Community\VC\Tools\MSVC\14.28.29333\include\vector

; 1733 :         return _Mypair._Get_first();

  00034	8b 45 ec	 mov	 eax, DWORD PTR $T2[ebp]
  00037	89 45 e8	 mov	 DWORD PTR $T1[ebp], eax

; 1612 :         _Destroy_range(_First, _Last, _Getal());

  0003a	ff 75 e8	 push	 DWORD PTR $T1[ebp]
  0003d	ff 75 e4	 push	 DWORD PTR __Last$[ebp]
  00040	ff 75 e0	 push	 DWORD PTR __First$[ebp]
  00043	e8 00 00 00 00	 call	 ??$_Destroy_range@V?$allocator@PAVCTextureAnimationCCWDecorator@NEffectUpdateDecorator@@@std@@@std@@YAXPAPAVCTextureAnimationCCWDecorator@NEffectUpdateDecorator@@QAPAV12@AAV?$allocator@PAVCTextureAnimationCCWDecorator@NEffectUpdateDecorator@@@0@@Z ; std::_Destroy_range<std::allocator<NEffectUpdateDecorator::CTextureAnimationCCWDecorator *> >
  00048	83 c4 0c	 add	 esp, 12			; 0000000cH

; 1390 :         _Mylast = _Myfirst;

  0004b	8b 45 f4	 mov	 eax, DWORD PTR __Mylast$[ebp]
  0004e	8b 4d f0	 mov	 ecx, DWORD PTR __Myfirst$[ebp]
  00051	8b 09		 mov	 ecx, DWORD PTR [ecx]
  00053	89 08		 mov	 DWORD PTR [eax], ecx

; 1391 :     }

  00055	c9		 leave
  00056	c3		 ret	 0
?clear@?$vector@PAVCTextureAnimationCCWDecorator@NEffectUpdateDecorator@@V?$allocator@PAVCTextureAnimationCCWDecorator@NEffectUpdateDecorator@@@std@@@std@@QAEXXZ ENDP ; std::vector<NEffectUpdateDecorator::CTextureAnimationCCWDecorator *,std::allocator<NEffectUpdateDecorator::CTextureAnimationCCWDecorator *> >::clear
_TEXT	ENDS
; Function compile flags: /Odspy
; File D:\Metin2 Server Files\mainline\SRC_2014\Metin2Client\eterLib\Pool.h
;	COMDAT ?Delete@?$CDynamicPoolEx@VCTextureAnimationCCWDecorator@NEffectUpdateDecorator@@@@KAXPAVCTextureAnimationCCWDecorator@NEffectUpdateDecorator@@@Z
_TEXT	SEGMENT
_pkData$ = 8						; size = 4
?Delete@?$CDynamicPoolEx@VCTextureAnimationCCWDecorator@NEffectUpdateDecorator@@@@KAXPAVCTextureAnimationCCWDecorator@NEffectUpdateDecorator@@@Z PROC ; CDynamicPoolEx<NEffectUpdateDecorator::CTextureAnimationCCWDecorator>::Delete, COMDAT

; 223  : 		{

  00000	55		 push	 ebp
  00001	8b ec		 mov	 ebp, esp

; 224  : 			::operator delete(pkData);

  00003	ff 75 08	 push	 DWORD PTR _pkData$[ebp]
  00006	e8 00 00 00 00	 call	 ??3@YAXPAX@Z		; operator delete
  0000b	59		 pop	 ecx

; 225  : 		}

  0000c	5d		 pop	 ebp
  0000d	c3		 ret	 0
?Delete@?$CDynamicPoolEx@VCTextureAnimationCCWDecorator@NEffectUpdateDecorator@@@@KAXPAVCTextureAnimationCCWDecorator@NEffectUpdateDecorator@@@Z ENDP ; CDynamicPoolEx<NEffectUpdateDecorator::CTextureAnimationCCWDecorator>::Delete
_TEXT	ENDS
; Function compile flags: /Odspy
; File D:\Metin2 Server Files\mainline\SRC_2014\Metin2Client\eterLib\Pool.h
; File C:\Program Files (x86)\Microsoft Visual Studio\2019\Community\VC\Tools\MSVC\14.28.29333\include\vector
; File C:\Program Files (x86)\Microsoft Visual Studio\2019\Community\VC\Tools\MSVC\14.28.29333\include\xstddef
; File C:\Program Files (x86)\Microsoft Visual Studio\2019\Community\VC\Tools\MSVC\14.28.29333\include\vector
; File C:\Program Files (x86)\Microsoft Visual Studio\2019\Community\VC\Tools\MSVC\14.28.29333\include\xstddef
; File C:\Program Files (x86)\Microsoft Visual Studio\2019\Community\VC\Tools\MSVC\14.28.29333\include\vector
; File D:\Metin2 Server Files\mainline\SRC_2014\Metin2Client\eterLib\Pool.h
;	COMDAT ?Destroy@?$CDynamicPoolEx@VCTextureAnimationCCWDecorator@NEffectUpdateDecorator@@@@QAEXXZ
_TEXT	SEGMENT
$T1 = -44						; size = 4
$T2 = -40						; size = 4
$T3 = -36						; size = 4
$T4 = -32						; size = 4
$T5 = -28						; size = 4
___param0$ = -24					; size = 4
$T6 = -20						; size = 4
___param0$ = -16					; size = 4
__My_data$7 = -12					; size = 4
__My_data$8 = -8					; size = 4
_this$ = -4						; size = 4
?Destroy@?$CDynamicPoolEx@VCTextureAnimationCCWDecorator@NEffectUpdateDecorator@@@@QAEXXZ PROC ; CDynamicPoolEx<NEffectUpdateDecorator::CTextureAnimationCCWDecorator>::Destroy, COMDAT
; _this$ = ecx

; 150  : 		{

  00000	55		 push	 ebp
  00001	8b ec		 mov	 ebp, esp
  00003	83 ec 2c	 sub	 esp, 44			; 0000002cH
  00006	89 4d fc	 mov	 DWORD PTR _this$[ebp], ecx
; File C:\Program Files (x86)\Microsoft Visual Studio\2019\Community\VC\Tools\MSVC\14.28.29333\include\vector

; 1420 :         auto& _My_data = _Mypair._Myval2;

  00009	8b 45 fc	 mov	 eax, DWORD PTR _this$[ebp]
  0000c	83 c0 04	 add	 eax, 4
  0000f	89 45 f8	 mov	 DWORD PTR __My_data$8[ebp], eax
; File C:\Program Files (x86)\Microsoft Visual Studio\2019\Community\VC\Tools\MSVC\14.28.29333\include\xstddef

; 275  :     return __builtin_addressof(_Val);

  00012	8b 45 f8	 mov	 eax, DWORD PTR __My_data$8[ebp]
  00015	89 45 d8	 mov	 DWORD PTR $T2[ebp], eax
; File C:\Program Files (x86)\Microsoft Visual Studio\2019\Community\VC\Tools\MSVC\14.28.29333\include\vector

; 1421 :         return iterator(_My_data._Mylast, _STD addressof(_My_data));

  00018	8b 45 f8	 mov	 eax, DWORD PTR __My_data$8[ebp]
  0001b	8b 40 04	 mov	 eax, DWORD PTR [eax+4]
  0001e	89 45 f0	 mov	 DWORD PTR ___param0$[ebp], eax

; 42   :     _Vector_const_iterator(_Tptr _Parg, const _Container_base* _Pvector) noexcept : _Ptr(_Parg) {

  00021	8b 45 f0	 mov	 eax, DWORD PTR ___param0$[ebp]
  00024	89 45 ec	 mov	 DWORD PTR $T6[ebp], eax

; 1421 :         return iterator(_My_data._Mylast, _STD addressof(_My_data));

  00027	8d 45 ec	 lea	 eax, DWORD PTR $T6[ebp]
  0002a	89 45 e0	 mov	 DWORD PTR $T4[ebp], eax

; 1410 :         auto& _My_data = _Mypair._Myval2;

  0002d	8b 45 fc	 mov	 eax, DWORD PTR _this$[ebp]
  00030	83 c0 04	 add	 eax, 4
  00033	89 45 f4	 mov	 DWORD PTR __My_data$7[ebp], eax
; File C:\Program Files (x86)\Microsoft Visual Studio\2019\Community\VC\Tools\MSVC\14.28.29333\include\xstddef

; 275  :     return __builtin_addressof(_Val);

  00036	8b 45 f4	 mov	 eax, DWORD PTR __My_data$7[ebp]
  00039	89 45 d4	 mov	 DWORD PTR $T1[ebp], eax
; File C:\Program Files (x86)\Microsoft Visual Studio\2019\Community\VC\Tools\MSVC\14.28.29333\include\vector

; 1411 :         return iterator(_My_data._Myfirst, _STD addressof(_My_data));

  0003c	8b 45 f4	 mov	 eax, DWORD PTR __My_data$7[ebp]
  0003f	8b 00		 mov	 eax, DWORD PTR [eax]
  00041	89 45 e8	 mov	 DWORD PTR ___param0$[ebp], eax

; 42   :     _Vector_const_iterator(_Tptr _Parg, const _Container_base* _Pvector) noexcept : _Ptr(_Parg) {

  00044	8b 45 e8	 mov	 eax, DWORD PTR ___param0$[ebp]
  00047	89 45 e4	 mov	 DWORD PTR $T5[ebp], eax

; 1411 :         return iterator(_My_data._Myfirst, _STD addressof(_My_data));

  0004a	8d 45 e4	 lea	 eax, DWORD PTR $T5[ebp]
  0004d	89 45 dc	 mov	 DWORD PTR $T3[ebp], eax
; File D:\Metin2 Server Files\mainline\SRC_2014\Metin2Client\eterLib\Pool.h

; 160  : 			std::for_each(m_kVct_pkData.begin(), m_kVct_pkData.end(), Delete);

  00050	68 00 00 00 00	 push	 OFFSET ?Delete@?$CDynamicPoolEx@VCTextureAnimationCCWDecorator@NEffectUpdateDecorator@@@@KAXPAVCTextureAnimationCCWDecorator@NEffectUpdateDecorator@@@Z ; CDynamicPoolEx<NEffectUpdateDecorator::CTextureAnimationCCWDecorator>::Delete
  00055	8b 45 e0	 mov	 eax, DWORD PTR $T4[ebp]
  00058	ff 30		 push	 DWORD PTR [eax]
  0005a	8b 45 dc	 mov	 eax, DWORD PTR $T3[ebp]
  0005d	ff 30		 push	 DWORD PTR [eax]
  0005f	e8 00 00 00 00	 call	 ??$for_each@V?$_Vector_iterator@V?$_Vector_val@U?$_Simple_types@PAVCTextureAnimationCCWDecorator@NEffectUpdateDecorator@@@std@@@std@@@std@@P6AXPAVCTextureAnimationCCWDecorator@NEffectUpdateDecorator@@@Z@std@@YAP6AXPAVCTextureAnimationCCWDecorator@NEffectUpdateDecorator@@@ZV?$_Vector_iterator@V?$_Vector_val@U?$_Simple_types@PAVCTextureAnimationCCWDecorator@NEffectUpdateDecorator@@@std@@@std@@@0@1P6AX0@Z@Z ; std::for_each<std::_Vector_iterator<std::_Vector_val<std::_Simple_types<NEffectUpdateDecorator::CTextureAnimationCCWDecorator *> > >,void (__cdecl*)(NEffectUpdateDecorator::CTextureAnimationCCWDecorator *)>
  00064	83 c4 0c	 add	 esp, 12			; 0000000cH

; 161  : 			m_kVct_pkData.clear();

  00067	8b 4d fc	 mov	 ecx, DWORD PTR _this$[ebp]
  0006a	83 c1 04	 add	 ecx, 4
  0006d	e8 00 00 00 00	 call	 ?clear@?$vector@PAVCTextureAnimationCCWDecorator@NEffectUpdateDecorator@@V?$allocator@PAVCTextureAnimationCCWDecorator@NEffectUpdateDecorator@@@std@@@std@@QAEXXZ ; std::vector<NEffectUpdateDecorator::CTextureAnimationCCWDecorator *,std::allocator<NEffectUpdateDecorator::CTextureAnimationCCWDecorator *> >::clear

; 162  : 			m_kVct_pkFree.clear();

  00072	8b 4d fc	 mov	 ecx, DWORD PTR _this$[ebp]
  00075	83 c1 10	 add	 ecx, 16			; 00000010H
  00078	e8 00 00 00 00	 call	 ?clear@?$vector@PAVCTextureAnimationCCWDecorator@NEffectUpdateDecorator@@V?$allocator@PAVCTextureAnimationCCWDecorator@NEffectUpdateDecorator@@@std@@@std@@QAEXXZ ; std::vector<NEffectUpdateDecorator::CTextureAnimationCCWDecorator *,std::allocator<NEffectUpdateDecorator::CTextureAnimationCCWDecorator *> >::clear

; 163  : 		}

  0007d	c9		 leave
  0007e	c3		 ret	 0
?Destroy@?$CDynamicPoolEx@VCTextureAnimationCCWDecorator@NEffectUpdateDecorator@@@@QAEXXZ ENDP ; CDynamicPoolEx<NEffectUpdateDecorator::CTextureAnimationCCWDecorator>::Destroy
_TEXT	ENDS
; Function compile flags: /Odspy
; File D:\Metin2 Server Files\mainline\SRC_2014\Metin2Client\eterLib\Pool.h
; File C:\Program Files (x86)\Microsoft Visual Studio\2019\Community\VC\Tools\MSVC\14.28.29333\include\vector
; File D:\Metin2 Server Files\mainline\SRC_2014\Metin2Client\eterLib\Pool.h
; File C:\Program Files (x86)\Microsoft Visual Studio\2019\Community\VC\Tools\MSVC\14.28.29333\include\vector
; File D:\Metin2 Server Files\mainline\SRC_2014\Metin2Client\eterLib\Pool.h
;	COMDAT ??1?$CDynamicPoolEx@VCTextureAnimationCCWDecorator@NEffectUpdateDecorator@@@@UAE@XZ
_TEXT	SEGMENT
_this$ = -16						; size = 4
__$EHRec$ = -12						; size = 12
??1?$CDynamicPoolEx@VCTextureAnimationCCWDecorator@NEffectUpdateDecorator@@@@UAE@XZ PROC ; CDynamicPoolEx<NEffectUpdateDecorator::CTextureAnimationCCWDecorator>::~CDynamicPoolEx<NEffectUpdateDecorator::CTextureAnimationCCWDecorator>, COMDAT
; _this$ = ecx

; 132  : 		{

  00000	55		 push	 ebp
  00001	8b ec		 mov	 ebp, esp
  00003	6a ff		 push	 -1
  00005	68 00 00 00 00	 push	 __ehhandler$??1?$CDynamicPoolEx@VCTextureAnimationCCWDecorator@NEffectUpdateDecorator@@@@UAE@XZ
  0000a	64 a1 00 00 00
	00		 mov	 eax, DWORD PTR fs:0
  00010	50		 push	 eax
  00011	51		 push	 ecx
  00012	a1 00 00 00 00	 mov	 eax, DWORD PTR ___security_cookie
  00017	33 c5		 xor	 eax, ebp
  00019	50		 push	 eax
  0001a	8d 45 f4	 lea	 eax, DWORD PTR __$EHRec$[ebp]
  0001d	64 a3 00 00 00
	00		 mov	 DWORD PTR fs:0, eax
  00023	89 4d f0	 mov	 DWORD PTR _this$[ebp], ecx
  00026	8b 45 f0	 mov	 eax, DWORD PTR _this$[ebp]
  00029	c7 00 00 00 00
	00		 mov	 DWORD PTR [eax], OFFSET ??_7?$CDynamicPoolEx@VCTextureAnimationCCWDecorator@NEffectUpdateDecorator@@@@6B@

; 133  : 			assert(m_kVct_pkFree.size()==m_kVct_pkData.size());
; 134  : 			Destroy();

  0002f	8b 4d f0	 mov	 ecx, DWORD PTR _this$[ebp]
  00032	e8 00 00 00 00	 call	 ?Destroy@?$CDynamicPoolEx@VCTextureAnimationCCWDecorator@NEffectUpdateDecorator@@@@QAEXXZ ; CDynamicPoolEx<NEffectUpdateDecorator::CTextureAnimationCCWDecorator>::Destroy

; 142  : 		}

  00037	8b 4d f0	 mov	 ecx, DWORD PTR _this$[ebp]
  0003a	83 c1 10	 add	 ecx, 16			; 00000010H
; File C:\Program Files (x86)\Microsoft Visual Studio\2019\Community\VC\Tools\MSVC\14.28.29333\include\vector

; 673  :         _Tidy();

  0003d	e8 00 00 00 00	 call	 ?_Tidy@?$vector@PAVCTextureAnimationCCWDecorator@NEffectUpdateDecorator@@V?$allocator@PAVCTextureAnimationCCWDecorator@NEffectUpdateDecorator@@@std@@@std@@AAEXXZ ; std::vector<NEffectUpdateDecorator::CTextureAnimationCCWDecorator *,std::allocator<NEffectUpdateDecorator::CTextureAnimationCCWDecorator *> >::_Tidy
; File D:\Metin2 Server Files\mainline\SRC_2014\Metin2Client\eterLib\Pool.h

; 142  : 		}

  00042	8b 4d f0	 mov	 ecx, DWORD PTR _this$[ebp]
  00045	83 c1 04	 add	 ecx, 4
; File C:\Program Files (x86)\Microsoft Visual Studio\2019\Community\VC\Tools\MSVC\14.28.29333\include\vector

; 673  :         _Tidy();

  00048	e8 00 00 00 00	 call	 ?_Tidy@?$vector@PAVCTextureAnimationCCWDecorator@NEffectUpdateDecorator@@V?$allocator@PAVCTextureAnimationCCWDecorator@NEffectUpdateDecorator@@@std@@@std@@AAEXXZ ; std::vector<NEffectUpdateDecorator::CTextureAnimationCCWDecorator *,std::allocator<NEffectUpdateDecorator::CTextureAnimationCCWDecorator *> >::_Tidy
; File D:\Metin2 Server Files\mainline\SRC_2014\Metin2Client\eterLib\Pool.h

; 142  : 		}

  0004d	8b 4d f4	 mov	 ecx, DWORD PTR __$EHRec$[ebp]
  00050	64 89 0d 00 00
	00 00		 mov	 DWORD PTR fs:0, ecx
  00057	59		 pop	 ecx
  00058	c9		 leave
  00059	c3		 ret	 0
  0005a	cc		 int	 3
  0005b	cc		 int	 3
  0005c	cc		 int	 3
  0005d	cc		 int	 3
  0005e	cc		 int	 3
_TEXT	ENDS
;	COMDAT text$x
text$x	SEGMENT
__ehhandler$??1?$CDynamicPoolEx@VCTextureAnimationCCWDecorator@NEffectUpdateDecorator@@@@UAE@XZ:
  00000	90		 npad	 1
  00001	90		 npad	 1
  00002	8b 54 24 08	 mov	 edx, DWORD PTR [esp+8]
  00006	8d 42 0c	 lea	 eax, DWORD PTR [edx+12]
  00009	8b 4a f8	 mov	 ecx, DWORD PTR [edx-8]
  0000c	33 c8		 xor	 ecx, eax
  0000e	e8 00 00 00 00	 call	 @__security_check_cookie@4
  00013	b8 00 00 00 00	 mov	 eax, OFFSET __ehfuncinfo$??1?$CDynamicPoolEx@VCTextureAnimationCCWDecorator@NEffectUpdateDecorator@@@@UAE@XZ
  00018	e9 00 00 00 00	 jmp	 ___CxxFrameHandler3
text$x	ENDS
??1?$CDynamicPoolEx@VCTextureAnimationCCWDecorator@NEffectUpdateDecorator@@@@UAE@XZ ENDP ; CDynamicPoolEx<NEffectUpdateDecorator::CTextureAnimationCCWDecorator>::~CDynamicPoolEx<NEffectUpdateDecorator::CTextureAnimationCCWDecorator>
; Function compile flags: /Odspy
; File D:\Metin2 Server Files\mainline\SRC_2014\Metin2Client\eterLib\Pool.h
; File C:\Program Files (x86)\Microsoft Visual Studio\2019\Community\VC\Tools\MSVC\14.28.29333\include\vector
; File C:\Program Files (x86)\Microsoft Visual Studio\2019\Community\VC\Tools\MSVC\14.28.29333\include\xmemory
; File C:\Program Files (x86)\Microsoft Visual Studio\2019\Community\VC\Tools\MSVC\14.28.29333\include\vector
; File D:\Metin2 Server Files\mainline\SRC_2014\Metin2Client\eterLib\Pool.h
; File C:\Program Files (x86)\Microsoft Visual Studio\2019\Community\VC\Tools\MSVC\14.28.29333\include\vector
; File C:\Program Files (x86)\Microsoft Visual Studio\2019\Community\VC\Tools\MSVC\14.28.29333\include\xmemory
; File C:\Program Files (x86)\Microsoft Visual Studio\2019\Community\VC\Tools\MSVC\14.28.29333\include\vector
; File D:\Metin2 Server Files\mainline\SRC_2014\Metin2Client\eterLib\Pool.h
;	COMDAT ??0?$CDynamicPoolEx@VCTextureAnimationCCWDecorator@NEffectUpdateDecorator@@@@QAE@XZ
_TEXT	SEGMENT
_this$ = -28						; size = 4
_this$ = -24						; size = 4
_this$ = -20						; size = 4
_this$ = -16						; size = 4
_this$1 = -12						; size = 4
_this$2 = -8						; size = 4
_this$ = -4						; size = 4
??0?$CDynamicPoolEx@VCTextureAnimationCCWDecorator@NEffectUpdateDecorator@@@@QAE@XZ PROC ; CDynamicPoolEx<NEffectUpdateDecorator::CTextureAnimationCCWDecorator>::CDynamicPoolEx<NEffectUpdateDecorator::CTextureAnimationCCWDecorator>, COMDAT
; _this$ = ecx

; 126  : 		CDynamicPoolEx()

  00000	55		 push	 ebp
  00001	8b ec		 mov	 ebp, esp
  00003	83 ec 1c	 sub	 esp, 28			; 0000001cH
  00006	89 4d fc	 mov	 DWORD PTR _this$[ebp], ecx

; 127  : 		{

  00009	8b 45 fc	 mov	 eax, DWORD PTR _this$[ebp]
  0000c	c7 00 00 00 00
	00		 mov	 DWORD PTR [eax], OFFSET ??_7?$CDynamicPoolEx@VCTextureAnimationCCWDecorator@NEffectUpdateDecorator@@@@6B@
  00012	8b 45 fc	 mov	 eax, DWORD PTR _this$[ebp]
  00015	83 c0 04	 add	 eax, 4
  00018	89 45 f0	 mov	 DWORD PTR _this$[ebp], eax
; File C:\Program Files (x86)\Microsoft Visual Studio\2019\Community\VC\Tools\MSVC\14.28.29333\include\vector

; 445  :     vector() noexcept(is_nothrow_default_constructible_v<_Alty>) : _Mypair(_Zero_then_variadic_args_t{}) {

  0001b	8b 45 f0	 mov	 eax, DWORD PTR _this$[ebp]
  0001e	89 45 ec	 mov	 DWORD PTR _this$[ebp], eax
; File C:\Program Files (x86)\Microsoft Visual Studio\2019\Community\VC\Tools\MSVC\14.28.29333\include\xmemory

; 1339 :         : _Ty1(), _Myval2(_STD forward<_Other2>(_Val2)...) {}

  00021	8b 45 ec	 mov	 eax, DWORD PTR _this$[ebp]
  00024	89 45 f8	 mov	 DWORD PTR _this$2[ebp], eax
; File C:\Program Files (x86)\Microsoft Visual Studio\2019\Community\VC\Tools\MSVC\14.28.29333\include\vector

; 375  :     _Vector_val() noexcept : _Myfirst(), _Mylast(), _Myend() {}

  00027	8b 45 f8	 mov	 eax, DWORD PTR _this$2[ebp]
  0002a	83 20 00	 and	 DWORD PTR [eax], 0
  0002d	8b 45 f8	 mov	 eax, DWORD PTR _this$2[ebp]
  00030	83 60 04 00	 and	 DWORD PTR [eax+4], 0
  00034	8b 45 f8	 mov	 eax, DWORD PTR _this$2[ebp]
  00037	83 60 08 00	 and	 DWORD PTR [eax+8], 0
; File D:\Metin2 Server Files\mainline\SRC_2014\Metin2Client\eterLib\Pool.h

; 127  : 		{

  0003b	8b 45 fc	 mov	 eax, DWORD PTR _this$[ebp]
  0003e	83 c0 10	 add	 eax, 16			; 00000010H
  00041	89 45 e8	 mov	 DWORD PTR _this$[ebp], eax
; File C:\Program Files (x86)\Microsoft Visual Studio\2019\Community\VC\Tools\MSVC\14.28.29333\include\vector

; 445  :     vector() noexcept(is_nothrow_default_constructible_v<_Alty>) : _Mypair(_Zero_then_variadic_args_t{}) {

  00044	8b 45 e8	 mov	 eax, DWORD PTR _this$[ebp]
  00047	89 45 e4	 mov	 DWORD PTR _this$[ebp], eax
; File C:\Program Files (x86)\Microsoft Visual Studio\2019\Community\VC\Tools\MSVC\14.28.29333\include\xmemory

; 1339 :         : _Ty1(), _Myval2(_STD forward<_Other2>(_Val2)...) {}

  0004a	8b 45 e4	 mov	 eax, DWORD PTR _this$[ebp]
  0004d	89 45 f4	 mov	 DWORD PTR _this$1[ebp], eax
; File C:\Program Files (x86)\Microsoft Visual Studio\2019\Community\VC\Tools\MSVC\14.28.29333\include\vector

; 375  :     _Vector_val() noexcept : _Myfirst(), _Mylast(), _Myend() {}

  00050	8b 45 f4	 mov	 eax, DWORD PTR _this$1[ebp]
  00053	83 20 00	 and	 DWORD PTR [eax], 0
  00056	8b 45 f4	 mov	 eax, DWORD PTR _this$1[ebp]
  00059	83 60 04 00	 and	 DWORD PTR [eax+4], 0
  0005d	8b 45 f4	 mov	 eax, DWORD PTR _this$1[ebp]
  00060	83 60 08 00	 and	 DWORD PTR [eax+8], 0
; File D:\Metin2 Server Files\mainline\SRC_2014\Metin2Client\eterLib\Pool.h

; 128  : 			m_uInitCapacity=0;

  00064	8b 45 fc	 mov	 eax, DWORD PTR _this$[ebp]
  00067	83 60 1c 00	 and	 DWORD PTR [eax+28], 0

; 129  : 			m_uUsedCapacity=0;

  0006b	8b 45 fc	 mov	 eax, DWORD PTR _this$[ebp]
  0006e	83 60 20 00	 and	 DWORD PTR [eax+32], 0

; 130  : 		}

  00072	8b 45 fc	 mov	 eax, DWORD PTR _this$[ebp]
  00075	c9		 leave
  00076	c3		 ret	 0
??0?$CDynamicPoolEx@VCTextureAnimationCCWDecorator@NEffectUpdateDecorator@@@@QAE@XZ ENDP ; CDynamicPoolEx<NEffectUpdateDecorator::CTextureAnimationCCWDecorator>::CDynamicPoolEx<NEffectUpdateDecorator::CTextureAnimationCCWDecorator>
_TEXT	ENDS
; Function compile flags: /Odspy
;	COMDAT ??_G?$CDynamicPoolEx@VCTextureAnimationRandomDecorator@NEffectUpdateDecorator@@@@UAEPAXI@Z
_TEXT	SEGMENT
_this$ = -4						; size = 4
___flags$ = 8						; size = 4
??_G?$CDynamicPoolEx@VCTextureAnimationRandomDecorator@NEffectUpdateDecorator@@@@UAEPAXI@Z PROC ; CDynamicPoolEx<NEffectUpdateDecorator::CTextureAnimationRandomDecorator>::`scalar deleting destructor', COMDAT
; _this$ = ecx
  00000	55		 push	 ebp
  00001	8b ec		 mov	 ebp, esp
  00003	51		 push	 ecx
  00004	89 4d fc	 mov	 DWORD PTR _this$[ebp], ecx
  00007	8b 4d fc	 mov	 ecx, DWORD PTR _this$[ebp]
  0000a	e8 00 00 00 00	 call	 ??1?$CDynamicPoolEx@VCTextureAnimationRandomDecorator@NEffectUpdateDecorator@@@@UAE@XZ ; CDynamicPoolEx<NEffectUpdateDecorator::CTextureAnimationRandomDecorator>::~CDynamicPoolEx<NEffectUpdateDecorator::CTextureAnimationRandomDecorator>
  0000f	8b 45 08	 mov	 eax, DWORD PTR ___flags$[ebp]
  00012	83 e0 01	 and	 eax, 1
  00015	74 0c		 je	 SHORT $LN2@scalar
  00017	6a 24		 push	 36			; 00000024H
  00019	ff 75 fc	 push	 DWORD PTR _this$[ebp]
  0001c	e8 00 00 00 00	 call	 ??3@YAXPAXI@Z		; operator delete
  00021	59		 pop	 ecx
  00022	59		 pop	 ecx
$LN2@scalar:
  00023	8b 45 fc	 mov	 eax, DWORD PTR _this$[ebp]
  00026	c9		 leave
  00027	c2 04 00	 ret	 4
??_G?$CDynamicPoolEx@VCTextureAnimationRandomDecorator@NEffectUpdateDecorator@@@@UAEPAXI@Z ENDP ; CDynamicPoolEx<NEffectUpdateDecorator::CTextureAnimationRandomDecorator>::`scalar deleting destructor'
_TEXT	ENDS
; Function compile flags: /Odspy
; File C:\Program Files (x86)\Microsoft Visual Studio\2019\Community\VC\Tools\MSVC\14.28.29333\include\vector
; File C:\Program Files (x86)\Microsoft Visual Studio\2019\Community\VC\Tools\MSVC\14.28.29333\include\xmemory
; File C:\Program Files (x86)\Microsoft Visual Studio\2019\Community\VC\Tools\MSVC\14.28.29333\include\vector
; File C:\Program Files (x86)\Microsoft Visual Studio\2019\Community\VC\Tools\MSVC\14.28.29333\include\xmemory
; File C:\Program Files (x86)\Microsoft Visual Studio\2019\Community\VC\Tools\MSVC\14.28.29333\include\vector
; File C:\Program Files (x86)\Microsoft Visual Studio\2019\Community\VC\Tools\MSVC\14.28.29333\include\xmemory
; File C:\Program Files (x86)\Microsoft Visual Studio\2019\Community\VC\Tools\MSVC\14.28.29333\include\vector
;	COMDAT ?_Tidy@?$vector@PAVCTextureAnimationRandomDecorator@NEffectUpdateDecorator@@V?$allocator@PAVCTextureAnimationRandomDecorator@NEffectUpdateDecorator@@@std@@@std@@AAEXXZ
_TEXT	SEGMENT
$T1 = -52						; size = 4
__Ptr$ = -48						; size = 4
__Count$ = -44						; size = 4
$T2 = -40						; size = 4
__First$ = -36						; size = 4
__Last$ = -32						; size = 4
$T3 = -28						; size = 4
$T4 = -24						; size = 4
__Myend$ = -20						; size = 4
__Mylast$ = -16						; size = 4
_this$ = -12						; size = 4
__My_data$ = -8						; size = 4
__Myfirst$ = -4						; size = 4
?_Tidy@?$vector@PAVCTextureAnimationRandomDecorator@NEffectUpdateDecorator@@V?$allocator@PAVCTextureAnimationRandomDecorator@NEffectUpdateDecorator@@@std@@@std@@AAEXXZ PROC ; std::vector<NEffectUpdateDecorator::CTextureAnimationRandomDecorator *,std::allocator<NEffectUpdateDecorator::CTextureAnimationRandomDecorator *> >::_Tidy, COMDAT
; _this$ = ecx

; 1686 :     void _Tidy() noexcept { // free all storage

  00000	55		 push	 ebp
  00001	8b ec		 mov	 ebp, esp
  00003	83 ec 34	 sub	 esp, 52			; 00000034H
  00006	89 4d f4	 mov	 DWORD PTR _this$[ebp], ecx

; 1687 :         auto& _My_data    = _Mypair._Myval2;

  00009	8b 45 f4	 mov	 eax, DWORD PTR _this$[ebp]
  0000c	89 45 f8	 mov	 DWORD PTR __My_data$[ebp], eax

; 1688 :         pointer& _Myfirst = _My_data._Myfirst;

  0000f	8b 45 f8	 mov	 eax, DWORD PTR __My_data$[ebp]
  00012	89 45 fc	 mov	 DWORD PTR __Myfirst$[ebp], eax

; 1689 :         pointer& _Mylast  = _My_data._Mylast;

  00015	8b 45 f8	 mov	 eax, DWORD PTR __My_data$[ebp]
  00018	83 c0 04	 add	 eax, 4
  0001b	89 45 f0	 mov	 DWORD PTR __Mylast$[ebp], eax

; 1690 :         pointer& _Myend   = _My_data._Myend;

  0001e	8b 45 f8	 mov	 eax, DWORD PTR __My_data$[ebp]
  00021	83 c0 08	 add	 eax, 8
  00024	89 45 ec	 mov	 DWORD PTR __Myend$[ebp], eax

; 1691 : 
; 1692 :         _My_data._Orphan_all();
; 1693 : 
; 1694 :         if (_Myfirst) { // destroy and deallocate old array

  00027	8b 45 fc	 mov	 eax, DWORD PTR __Myfirst$[ebp]
  0002a	83 38 00	 cmp	 DWORD PTR [eax], 0
  0002d	74 74		 je	 SHORT $LN3@Tidy

; 1695 :             _Destroy(_Myfirst, _Mylast);

  0002f	8b 45 f0	 mov	 eax, DWORD PTR __Mylast$[ebp]
  00032	8b 00		 mov	 eax, DWORD PTR [eax]
  00034	89 45 e0	 mov	 DWORD PTR __Last$[ebp], eax
  00037	8b 45 fc	 mov	 eax, DWORD PTR __Myfirst$[ebp]
  0003a	8b 00		 mov	 eax, DWORD PTR [eax]
  0003c	89 45 dc	 mov	 DWORD PTR __First$[ebp], eax

; 1733 :         return _Mypair._Get_first();

  0003f	8b 45 f4	 mov	 eax, DWORD PTR _this$[ebp]
; File C:\Program Files (x86)\Microsoft Visual Studio\2019\Community\VC\Tools\MSVC\14.28.29333\include\xmemory

; 1347 :         return *this;

  00042	89 45 e8	 mov	 DWORD PTR $T4[ebp], eax
; File C:\Program Files (x86)\Microsoft Visual Studio\2019\Community\VC\Tools\MSVC\14.28.29333\include\vector

; 1733 :         return _Mypair._Get_first();

  00045	8b 45 e8	 mov	 eax, DWORD PTR $T4[ebp]
  00048	89 45 e4	 mov	 DWORD PTR $T3[ebp], eax

; 1612 :         _Destroy_range(_First, _Last, _Getal());

  0004b	ff 75 e4	 push	 DWORD PTR $T3[ebp]
  0004e	ff 75 e0	 push	 DWORD PTR __Last$[ebp]
  00051	ff 75 dc	 push	 DWORD PTR __First$[ebp]
  00054	e8 00 00 00 00	 call	 ??$_Destroy_range@V?$allocator@PAVCTextureAnimationRandomDecorator@NEffectUpdateDecorator@@@std@@@std@@YAXPAPAVCTextureAnimationRandomDecorator@NEffectUpdateDecorator@@QAPAV12@AAV?$allocator@PAVCTextureAnimationRandomDecorator@NEffectUpdateDecorator@@@0@@Z ; std::_Destroy_range<std::allocator<NEffectUpdateDecorator::CTextureAnimationRandomDecorator *> >
  00059	83 c4 0c	 add	 esp, 12			; 0000000cH

; 1733 :         return _Mypair._Get_first();

  0005c	8b 45 f4	 mov	 eax, DWORD PTR _this$[ebp]
; File C:\Program Files (x86)\Microsoft Visual Studio\2019\Community\VC\Tools\MSVC\14.28.29333\include\xmemory

; 1347 :         return *this;

  0005f	89 45 d8	 mov	 DWORD PTR $T2[ebp], eax
; File C:\Program Files (x86)\Microsoft Visual Studio\2019\Community\VC\Tools\MSVC\14.28.29333\include\vector

; 1733 :         return _Mypair._Get_first();

  00062	8b 45 d8	 mov	 eax, DWORD PTR $T2[ebp]
  00065	89 45 cc	 mov	 DWORD PTR $T1[ebp], eax

; 1696 :             _Getal().deallocate(_Myfirst, static_cast<size_type>(_Myend - _Myfirst));

  00068	8b 45 ec	 mov	 eax, DWORD PTR __Myend$[ebp]
  0006b	8b 4d fc	 mov	 ecx, DWORD PTR __Myfirst$[ebp]
  0006e	8b 00		 mov	 eax, DWORD PTR [eax]
  00070	2b 01		 sub	 eax, DWORD PTR [ecx]
  00072	c1 f8 02	 sar	 eax, 2
  00075	89 45 d4	 mov	 DWORD PTR __Count$[ebp], eax
  00078	8b 45 fc	 mov	 eax, DWORD PTR __Myfirst$[ebp]
  0007b	8b 00		 mov	 eax, DWORD PTR [eax]
  0007d	89 45 d0	 mov	 DWORD PTR __Ptr$[ebp], eax
; File C:\Program Files (x86)\Microsoft Visual Studio\2019\Community\VC\Tools\MSVC\14.28.29333\include\xmemory

; 810  :         _Deallocate<_New_alignof<_Ty>>(_Ptr, sizeof(_Ty) * _Count);

  00080	8b 45 d4	 mov	 eax, DWORD PTR __Count$[ebp]
  00083	c1 e0 02	 shl	 eax, 2
  00086	50		 push	 eax
  00087	ff 75 d0	 push	 DWORD PTR __Ptr$[ebp]
  0008a	e8 00 00 00 00	 call	 ??$_Deallocate@$07$0A@@std@@YAXPAXI@Z ; std::_Deallocate<8,0>
  0008f	59		 pop	 ecx
  00090	59		 pop	 ecx
; File C:\Program Files (x86)\Microsoft Visual Studio\2019\Community\VC\Tools\MSVC\14.28.29333\include\vector

; 1698 :             _Myfirst = pointer();

  00091	8b 45 fc	 mov	 eax, DWORD PTR __Myfirst$[ebp]
  00094	83 20 00	 and	 DWORD PTR [eax], 0

; 1699 :             _Mylast  = pointer();

  00097	8b 45 f0	 mov	 eax, DWORD PTR __Mylast$[ebp]
  0009a	83 20 00	 and	 DWORD PTR [eax], 0

; 1700 :             _Myend   = pointer();

  0009d	8b 45 ec	 mov	 eax, DWORD PTR __Myend$[ebp]
  000a0	83 20 00	 and	 DWORD PTR [eax], 0
$LN3@Tidy:

; 1701 :         }
; 1702 :     }

  000a3	c9		 leave
  000a4	c3		 ret	 0
?_Tidy@?$vector@PAVCTextureAnimationRandomDecorator@NEffectUpdateDecorator@@V?$allocator@PAVCTextureAnimationRandomDecorator@NEffectUpdateDecorator@@@std@@@std@@AAEXXZ ENDP ; std::vector<NEffectUpdateDecorator::CTextureAnimationRandomDecorator *,std::allocator<NEffectUpdateDecorator::CTextureAnimationRandomDecorator *> >::_Tidy
_TEXT	ENDS
; Function compile flags: /Odspy
; File C:\Program Files (x86)\Microsoft Visual Studio\2019\Community\VC\Tools\MSVC\14.28.29333\include\vector
; File C:\Program Files (x86)\Microsoft Visual Studio\2019\Community\VC\Tools\MSVC\14.28.29333\include\xmemory
; File C:\Program Files (x86)\Microsoft Visual Studio\2019\Community\VC\Tools\MSVC\14.28.29333\include\vector
;	COMDAT ?clear@?$vector@PAVCTextureAnimationRandomDecorator@NEffectUpdateDecorator@@V?$allocator@PAVCTextureAnimationRandomDecorator@NEffectUpdateDecorator@@@std@@@std@@QAEXXZ
_TEXT	SEGMENT
__First$ = -32						; size = 4
__Last$ = -28						; size = 4
$T1 = -24						; size = 4
$T2 = -20						; size = 4
__Myfirst$ = -16					; size = 4
__Mylast$ = -12						; size = 4
_this$ = -8						; size = 4
__My_data$ = -4						; size = 4
?clear@?$vector@PAVCTextureAnimationRandomDecorator@NEffectUpdateDecorator@@V?$allocator@PAVCTextureAnimationRandomDecorator@NEffectUpdateDecorator@@@std@@@std@@QAEXXZ PROC ; std::vector<NEffectUpdateDecorator::CTextureAnimationRandomDecorator *,std::allocator<NEffectUpdateDecorator::CTextureAnimationRandomDecorator *> >::clear, COMDAT
; _this$ = ecx

; 1383 :     void clear() noexcept { // erase all

  00000	55		 push	 ebp
  00001	8b ec		 mov	 ebp, esp
  00003	83 ec 20	 sub	 esp, 32			; 00000020H
  00006	89 4d f8	 mov	 DWORD PTR _this$[ebp], ecx

; 1384 :         auto& _My_data    = _Mypair._Myval2;

  00009	8b 45 f8	 mov	 eax, DWORD PTR _this$[ebp]
  0000c	89 45 fc	 mov	 DWORD PTR __My_data$[ebp], eax

; 1385 :         pointer& _Myfirst = _My_data._Myfirst;

  0000f	8b 45 fc	 mov	 eax, DWORD PTR __My_data$[ebp]
  00012	89 45 f0	 mov	 DWORD PTR __Myfirst$[ebp], eax

; 1386 :         pointer& _Mylast  = _My_data._Mylast;

  00015	8b 45 fc	 mov	 eax, DWORD PTR __My_data$[ebp]
  00018	83 c0 04	 add	 eax, 4
  0001b	89 45 f4	 mov	 DWORD PTR __Mylast$[ebp], eax

; 1387 : 
; 1388 :         _My_data._Orphan_all();
; 1389 :         _Destroy(_Myfirst, _Mylast);

  0001e	8b 45 f4	 mov	 eax, DWORD PTR __Mylast$[ebp]
  00021	8b 00		 mov	 eax, DWORD PTR [eax]
  00023	89 45 e4	 mov	 DWORD PTR __Last$[ebp], eax
  00026	8b 45 f0	 mov	 eax, DWORD PTR __Myfirst$[ebp]
  00029	8b 00		 mov	 eax, DWORD PTR [eax]
  0002b	89 45 e0	 mov	 DWORD PTR __First$[ebp], eax

; 1733 :         return _Mypair._Get_first();

  0002e	8b 45 f8	 mov	 eax, DWORD PTR _this$[ebp]
; File C:\Program Files (x86)\Microsoft Visual Studio\2019\Community\VC\Tools\MSVC\14.28.29333\include\xmemory

; 1347 :         return *this;

  00031	89 45 ec	 mov	 DWORD PTR $T2[ebp], eax
; File C:\Program Files (x86)\Microsoft Visual Studio\2019\Community\VC\Tools\MSVC\14.28.29333\include\vector

; 1733 :         return _Mypair._Get_first();

  00034	8b 45 ec	 mov	 eax, DWORD PTR $T2[ebp]
  00037	89 45 e8	 mov	 DWORD PTR $T1[ebp], eax

; 1612 :         _Destroy_range(_First, _Last, _Getal());

  0003a	ff 75 e8	 push	 DWORD PTR $T1[ebp]
  0003d	ff 75 e4	 push	 DWORD PTR __Last$[ebp]
  00040	ff 75 e0	 push	 DWORD PTR __First$[ebp]
  00043	e8 00 00 00 00	 call	 ??$_Destroy_range@V?$allocator@PAVCTextureAnimationRandomDecorator@NEffectUpdateDecorator@@@std@@@std@@YAXPAPAVCTextureAnimationRandomDecorator@NEffectUpdateDecorator@@QAPAV12@AAV?$allocator@PAVCTextureAnimationRandomDecorator@NEffectUpdateDecorator@@@0@@Z ; std::_Destroy_range<std::allocator<NEffectUpdateDecorator::CTextureAnimationRandomDecorator *> >
  00048	83 c4 0c	 add	 esp, 12			; 0000000cH

; 1390 :         _Mylast = _Myfirst;

  0004b	8b 45 f4	 mov	 eax, DWORD PTR __Mylast$[ebp]
  0004e	8b 4d f0	 mov	 ecx, DWORD PTR __Myfirst$[ebp]
  00051	8b 09		 mov	 ecx, DWORD PTR [ecx]
  00053	89 08		 mov	 DWORD PTR [eax], ecx

; 1391 :     }

  00055	c9		 leave
  00056	c3		 ret	 0
?clear@?$vector@PAVCTextureAnimationRandomDecorator@NEffectUpdateDecorator@@V?$allocator@PAVCTextureAnimationRandomDecorator@NEffectUpdateDecorator@@@std@@@std@@QAEXXZ ENDP ; std::vector<NEffectUpdateDecorator::CTextureAnimationRandomDecorator *,std::allocator<NEffectUpdateDecorator::CTextureAnimationRandomDecorator *> >::clear
_TEXT	ENDS
; Function compile flags: /Odspy
; File D:\Metin2 Server Files\mainline\SRC_2014\Metin2Client\eterLib\Pool.h
;	COMDAT ?Delete@?$CDynamicPoolEx@VCTextureAnimationRandomDecorator@NEffectUpdateDecorator@@@@KAXPAVCTextureAnimationRandomDecorator@NEffectUpdateDecorator@@@Z
_TEXT	SEGMENT
_pkData$ = 8						; size = 4
?Delete@?$CDynamicPoolEx@VCTextureAnimationRandomDecorator@NEffectUpdateDecorator@@@@KAXPAVCTextureAnimationRandomDecorator@NEffectUpdateDecorator@@@Z PROC ; CDynamicPoolEx<NEffectUpdateDecorator::CTextureAnimationRandomDecorator>::Delete, COMDAT

; 223  : 		{

  00000	55		 push	 ebp
  00001	8b ec		 mov	 ebp, esp

; 224  : 			::operator delete(pkData);

  00003	ff 75 08	 push	 DWORD PTR _pkData$[ebp]
  00006	e8 00 00 00 00	 call	 ??3@YAXPAX@Z		; operator delete
  0000b	59		 pop	 ecx

; 225  : 		}

  0000c	5d		 pop	 ebp
  0000d	c3		 ret	 0
?Delete@?$CDynamicPoolEx@VCTextureAnimationRandomDecorator@NEffectUpdateDecorator@@@@KAXPAVCTextureAnimationRandomDecorator@NEffectUpdateDecorator@@@Z ENDP ; CDynamicPoolEx<NEffectUpdateDecorator::CTextureAnimationRandomDecorator>::Delete
_TEXT	ENDS
; Function compile flags: /Odspy
; File D:\Metin2 Server Files\mainline\SRC_2014\Metin2Client\eterLib\Pool.h
; File C:\Program Files (x86)\Microsoft Visual Studio\2019\Community\VC\Tools\MSVC\14.28.29333\include\vector
; File C:\Program Files (x86)\Microsoft Visual Studio\2019\Community\VC\Tools\MSVC\14.28.29333\include\xstddef
; File C:\Program Files (x86)\Microsoft Visual Studio\2019\Community\VC\Tools\MSVC\14.28.29333\include\vector
; File C:\Program Files (x86)\Microsoft Visual Studio\2019\Community\VC\Tools\MSVC\14.28.29333\include\xstddef
; File C:\Program Files (x86)\Microsoft Visual Studio\2019\Community\VC\Tools\MSVC\14.28.29333\include\vector
; File D:\Metin2 Server Files\mainline\SRC_2014\Metin2Client\eterLib\Pool.h
;	COMDAT ?Destroy@?$CDynamicPoolEx@VCTextureAnimationRandomDecorator@NEffectUpdateDecorator@@@@QAEXXZ
_TEXT	SEGMENT
$T1 = -44						; size = 4
$T2 = -40						; size = 4
$T3 = -36						; size = 4
$T4 = -32						; size = 4
$T5 = -28						; size = 4
___param0$ = -24					; size = 4
$T6 = -20						; size = 4
___param0$ = -16					; size = 4
__My_data$7 = -12					; size = 4
__My_data$8 = -8					; size = 4
_this$ = -4						; size = 4
?Destroy@?$CDynamicPoolEx@VCTextureAnimationRandomDecorator@NEffectUpdateDecorator@@@@QAEXXZ PROC ; CDynamicPoolEx<NEffectUpdateDecorator::CTextureAnimationRandomDecorator>::Destroy, COMDAT
; _this$ = ecx

; 150  : 		{

  00000	55		 push	 ebp
  00001	8b ec		 mov	 ebp, esp
  00003	83 ec 2c	 sub	 esp, 44			; 0000002cH
  00006	89 4d fc	 mov	 DWORD PTR _this$[ebp], ecx
; File C:\Program Files (x86)\Microsoft Visual Studio\2019\Community\VC\Tools\MSVC\14.28.29333\include\vector

; 1420 :         auto& _My_data = _Mypair._Myval2;

  00009	8b 45 fc	 mov	 eax, DWORD PTR _this$[ebp]
  0000c	83 c0 04	 add	 eax, 4
  0000f	89 45 f8	 mov	 DWORD PTR __My_data$8[ebp], eax
; File C:\Program Files (x86)\Microsoft Visual Studio\2019\Community\VC\Tools\MSVC\14.28.29333\include\xstddef

; 275  :     return __builtin_addressof(_Val);

  00012	8b 45 f8	 mov	 eax, DWORD PTR __My_data$8[ebp]
  00015	89 45 d8	 mov	 DWORD PTR $T2[ebp], eax
; File C:\Program Files (x86)\Microsoft Visual Studio\2019\Community\VC\Tools\MSVC\14.28.29333\include\vector

; 1421 :         return iterator(_My_data._Mylast, _STD addressof(_My_data));

  00018	8b 45 f8	 mov	 eax, DWORD PTR __My_data$8[ebp]
  0001b	8b 40 04	 mov	 eax, DWORD PTR [eax+4]
  0001e	89 45 f0	 mov	 DWORD PTR ___param0$[ebp], eax

; 42   :     _Vector_const_iterator(_Tptr _Parg, const _Container_base* _Pvector) noexcept : _Ptr(_Parg) {

  00021	8b 45 f0	 mov	 eax, DWORD PTR ___param0$[ebp]
  00024	89 45 ec	 mov	 DWORD PTR $T6[ebp], eax

; 1421 :         return iterator(_My_data._Mylast, _STD addressof(_My_data));

  00027	8d 45 ec	 lea	 eax, DWORD PTR $T6[ebp]
  0002a	89 45 e0	 mov	 DWORD PTR $T4[ebp], eax

; 1410 :         auto& _My_data = _Mypair._Myval2;

  0002d	8b 45 fc	 mov	 eax, DWORD PTR _this$[ebp]
  00030	83 c0 04	 add	 eax, 4
  00033	89 45 f4	 mov	 DWORD PTR __My_data$7[ebp], eax
; File C:\Program Files (x86)\Microsoft Visual Studio\2019\Community\VC\Tools\MSVC\14.28.29333\include\xstddef

; 275  :     return __builtin_addressof(_Val);

  00036	8b 45 f4	 mov	 eax, DWORD PTR __My_data$7[ebp]
  00039	89 45 d4	 mov	 DWORD PTR $T1[ebp], eax
; File C:\Program Files (x86)\Microsoft Visual Studio\2019\Community\VC\Tools\MSVC\14.28.29333\include\vector

; 1411 :         return iterator(_My_data._Myfirst, _STD addressof(_My_data));

  0003c	8b 45 f4	 mov	 eax, DWORD PTR __My_data$7[ebp]
  0003f	8b 00		 mov	 eax, DWORD PTR [eax]
  00041	89 45 e8	 mov	 DWORD PTR ___param0$[ebp], eax

; 42   :     _Vector_const_iterator(_Tptr _Parg, const _Container_base* _Pvector) noexcept : _Ptr(_Parg) {

  00044	8b 45 e8	 mov	 eax, DWORD PTR ___param0$[ebp]
  00047	89 45 e4	 mov	 DWORD PTR $T5[ebp], eax

; 1411 :         return iterator(_My_data._Myfirst, _STD addressof(_My_data));

  0004a	8d 45 e4	 lea	 eax, DWORD PTR $T5[ebp]
  0004d	89 45 dc	 mov	 DWORD PTR $T3[ebp], eax
; File D:\Metin2 Server Files\mainline\SRC_2014\Metin2Client\eterLib\Pool.h

; 160  : 			std::for_each(m_kVct_pkData.begin(), m_kVct_pkData.end(), Delete);

  00050	68 00 00 00 00	 push	 OFFSET ?Delete@?$CDynamicPoolEx@VCTextureAnimationRandomDecorator@NEffectUpdateDecorator@@@@KAXPAVCTextureAnimationRandomDecorator@NEffectUpdateDecorator@@@Z ; CDynamicPoolEx<NEffectUpdateDecorator::CTextureAnimationRandomDecorator>::Delete
  00055	8b 45 e0	 mov	 eax, DWORD PTR $T4[ebp]
  00058	ff 30		 push	 DWORD PTR [eax]
  0005a	8b 45 dc	 mov	 eax, DWORD PTR $T3[ebp]
  0005d	ff 30		 push	 DWORD PTR [eax]
  0005f	e8 00 00 00 00	 call	 ??$for_each@V?$_Vector_iterator@V?$_Vector_val@U?$_Simple_types@PAVCTextureAnimationRandomDecorator@NEffectUpdateDecorator@@@std@@@std@@@std@@P6AXPAVCTextureAnimationRandomDecorator@NEffectUpdateDecorator@@@Z@std@@YAP6AXPAVCTextureAnimationRandomDecorator@NEffectUpdateDecorator@@@ZV?$_Vector_iterator@V?$_Vector_val@U?$_Simple_types@PAVCTextureAnimationRandomDecorator@NEffectUpdateDecorator@@@std@@@std@@@0@1P6AX0@Z@Z ; std::for_each<std::_Vector_iterator<std::_Vector_val<std::_Simple_types<NEffectUpdateDecorator::CTextureAnimationRandomDecorator *> > >,void (__cdecl*)(NEffectUpdateDecorator::CTextureAnimationRandomDecorator *)>
  00064	83 c4 0c	 add	 esp, 12			; 0000000cH

; 161  : 			m_kVct_pkData.clear();

  00067	8b 4d fc	 mov	 ecx, DWORD PTR _this$[ebp]
  0006a	83 c1 04	 add	 ecx, 4
  0006d	e8 00 00 00 00	 call	 ?clear@?$vector@PAVCTextureAnimationRandomDecorator@NEffectUpdateDecorator@@V?$allocator@PAVCTextureAnimationRandomDecorator@NEffectUpdateDecorator@@@std@@@std@@QAEXXZ ; std::vector<NEffectUpdateDecorator::CTextureAnimationRandomDecorator *,std::allocator<NEffectUpdateDecorator::CTextureAnimationRandomDecorator *> >::clear

; 162  : 			m_kVct_pkFree.clear();

  00072	8b 4d fc	 mov	 ecx, DWORD PTR _this$[ebp]
  00075	83 c1 10	 add	 ecx, 16			; 00000010H
  00078	e8 00 00 00 00	 call	 ?clear@?$vector@PAVCTextureAnimationRandomDecorator@NEffectUpdateDecorator@@V?$allocator@PAVCTextureAnimationRandomDecorator@NEffectUpdateDecorator@@@std@@@std@@QAEXXZ ; std::vector<NEffectUpdateDecorator::CTextureAnimationRandomDecorator *,std::allocator<NEffectUpdateDecorator::CTextureAnimationRandomDecorator *> >::clear

; 163  : 		}

  0007d	c9		 leave
  0007e	c3		 ret	 0
?Destroy@?$CDynamicPoolEx@VCTextureAnimationRandomDecorator@NEffectUpdateDecorator@@@@QAEXXZ ENDP ; CDynamicPoolEx<NEffectUpdateDecorator::CTextureAnimationRandomDecorator>::Destroy
_TEXT	ENDS
; Function compile flags: /Odspy
; File D:\Metin2 Server Files\mainline\SRC_2014\Metin2Client\eterLib\Pool.h
; File C:\Program Files (x86)\Microsoft Visual Studio\2019\Community\VC\Tools\MSVC\14.28.29333\include\vector
; File D:\Metin2 Server Files\mainline\SRC_2014\Metin2Client\eterLib\Pool.h
; File C:\Program Files (x86)\Microsoft Visual Studio\2019\Community\VC\Tools\MSVC\14.28.29333\include\vector
; File D:\Metin2 Server Files\mainline\SRC_2014\Metin2Client\eterLib\Pool.h
;	COMDAT ??1?$CDynamicPoolEx@VCTextureAnimationRandomDecorator@NEffectUpdateDecorator@@@@UAE@XZ
_TEXT	SEGMENT
_this$ = -16						; size = 4
__$EHRec$ = -12						; size = 12
??1?$CDynamicPoolEx@VCTextureAnimationRandomDecorator@NEffectUpdateDecorator@@@@UAE@XZ PROC ; CDynamicPoolEx<NEffectUpdateDecorator::CTextureAnimationRandomDecorator>::~CDynamicPoolEx<NEffectUpdateDecorator::CTextureAnimationRandomDecorator>, COMDAT
; _this$ = ecx

; 132  : 		{

  00000	55		 push	 ebp
  00001	8b ec		 mov	 ebp, esp
  00003	6a ff		 push	 -1
  00005	68 00 00 00 00	 push	 __ehhandler$??1?$CDynamicPoolEx@VCTextureAnimationRandomDecorator@NEffectUpdateDecorator@@@@UAE@XZ
  0000a	64 a1 00 00 00
	00		 mov	 eax, DWORD PTR fs:0
  00010	50		 push	 eax
  00011	51		 push	 ecx
  00012	a1 00 00 00 00	 mov	 eax, DWORD PTR ___security_cookie
  00017	33 c5		 xor	 eax, ebp
  00019	50		 push	 eax
  0001a	8d 45 f4	 lea	 eax, DWORD PTR __$EHRec$[ebp]
  0001d	64 a3 00 00 00
	00		 mov	 DWORD PTR fs:0, eax
  00023	89 4d f0	 mov	 DWORD PTR _this$[ebp], ecx
  00026	8b 45 f0	 mov	 eax, DWORD PTR _this$[ebp]
  00029	c7 00 00 00 00
	00		 mov	 DWORD PTR [eax], OFFSET ??_7?$CDynamicPoolEx@VCTextureAnimationRandomDecorator@NEffectUpdateDecorator@@@@6B@

; 133  : 			assert(m_kVct_pkFree.size()==m_kVct_pkData.size());
; 134  : 			Destroy();

  0002f	8b 4d f0	 mov	 ecx, DWORD PTR _this$[ebp]
  00032	e8 00 00 00 00	 call	 ?Destroy@?$CDynamicPoolEx@VCTextureAnimationRandomDecorator@NEffectUpdateDecorator@@@@QAEXXZ ; CDynamicPoolEx<NEffectUpdateDecorator::CTextureAnimationRandomDecorator>::Destroy

; 142  : 		}

  00037	8b 4d f0	 mov	 ecx, DWORD PTR _this$[ebp]
  0003a	83 c1 10	 add	 ecx, 16			; 00000010H
; File C:\Program Files (x86)\Microsoft Visual Studio\2019\Community\VC\Tools\MSVC\14.28.29333\include\vector

; 673  :         _Tidy();

  0003d	e8 00 00 00 00	 call	 ?_Tidy@?$vector@PAVCTextureAnimationRandomDecorator@NEffectUpdateDecorator@@V?$allocator@PAVCTextureAnimationRandomDecorator@NEffectUpdateDecorator@@@std@@@std@@AAEXXZ ; std::vector<NEffectUpdateDecorator::CTextureAnimationRandomDecorator *,std::allocator<NEffectUpdateDecorator::CTextureAnimationRandomDecorator *> >::_Tidy
; File D:\Metin2 Server Files\mainline\SRC_2014\Metin2Client\eterLib\Pool.h

; 142  : 		}

  00042	8b 4d f0	 mov	 ecx, DWORD PTR _this$[ebp]
  00045	83 c1 04	 add	 ecx, 4
; File C:\Program Files (x86)\Microsoft Visual Studio\2019\Community\VC\Tools\MSVC\14.28.29333\include\vector

; 673  :         _Tidy();

  00048	e8 00 00 00 00	 call	 ?_Tidy@?$vector@PAVCTextureAnimationRandomDecorator@NEffectUpdateDecorator@@V?$allocator@PAVCTextureAnimationRandomDecorator@NEffectUpdateDecorator@@@std@@@std@@AAEXXZ ; std::vector<NEffectUpdateDecorator::CTextureAnimationRandomDecorator *,std::allocator<NEffectUpdateDecorator::CTextureAnimationRandomDecorator *> >::_Tidy
; File D:\Metin2 Server Files\mainline\SRC_2014\Metin2Client\eterLib\Pool.h

; 142  : 		}

  0004d	8b 4d f4	 mov	 ecx, DWORD PTR __$EHRec$[ebp]
  00050	64 89 0d 00 00
	00 00		 mov	 DWORD PTR fs:0, ecx
  00057	59		 pop	 ecx
  00058	c9		 leave
  00059	c3		 ret	 0
  0005a	cc		 int	 3
  0005b	cc		 int	 3
  0005c	cc		 int	 3
  0005d	cc		 int	 3
  0005e	cc		 int	 3
_TEXT	ENDS
;	COMDAT text$x
text$x	SEGMENT
__ehhandler$??1?$CDynamicPoolEx@VCTextureAnimationRandomDecorator@NEffectUpdateDecorator@@@@UAE@XZ:
  00000	90		 npad	 1
  00001	90		 npad	 1
  00002	8b 54 24 08	 mov	 edx, DWORD PTR [esp+8]
  00006	8d 42 0c	 lea	 eax, DWORD PTR [edx+12]
  00009	8b 4a f8	 mov	 ecx, DWORD PTR [edx-8]
  0000c	33 c8		 xor	 ecx, eax
  0000e	e8 00 00 00 00	 call	 @__security_check_cookie@4
  00013	b8 00 00 00 00	 mov	 eax, OFFSET __ehfuncinfo$??1?$CDynamicPoolEx@VCTextureAnimationRandomDecorator@NEffectUpdateDecorator@@@@UAE@XZ
  00018	e9 00 00 00 00	 jmp	 ___CxxFrameHandler3
text$x	ENDS
??1?$CDynamicPoolEx@VCTextureAnimationRandomDecorator@NEffectUpdateDecorator@@@@UAE@XZ ENDP ; CDynamicPoolEx<NEffectUpdateDecorator::CTextureAnimationRandomDecorator>::~CDynamicPoolEx<NEffectUpdateDecorator::CTextureAnimationRandomDecorator>
; Function compile flags: /Odspy
; File D:\Metin2 Server Files\mainline\SRC_2014\Metin2Client\eterLib\Pool.h
; File C:\Program Files (x86)\Microsoft Visual Studio\2019\Community\VC\Tools\MSVC\14.28.29333\include\vector
; File C:\Program Files (x86)\Microsoft Visual Studio\2019\Community\VC\Tools\MSVC\14.28.29333\include\xmemory
; File C:\Program Files (x86)\Microsoft Visual Studio\2019\Community\VC\Tools\MSVC\14.28.29333\include\vector
; File D:\Metin2 Server Files\mainline\SRC_2014\Metin2Client\eterLib\Pool.h
; File C:\Program Files (x86)\Microsoft Visual Studio\2019\Community\VC\Tools\MSVC\14.28.29333\include\vector
; File C:\Program Files (x86)\Microsoft Visual Studio\2019\Community\VC\Tools\MSVC\14.28.29333\include\xmemory
; File C:\Program Files (x86)\Microsoft Visual Studio\2019\Community\VC\Tools\MSVC\14.28.29333\include\vector
; File D:\Metin2 Server Files\mainline\SRC_2014\Metin2Client\eterLib\Pool.h
;	COMDAT ??0?$CDynamicPoolEx@VCTextureAnimationRandomDecorator@NEffectUpdateDecorator@@@@QAE@XZ
_TEXT	SEGMENT
_this$ = -28						; size = 4
_this$ = -24						; size = 4
_this$ = -20						; size = 4
_this$ = -16						; size = 4
_this$1 = -12						; size = 4
_this$2 = -8						; size = 4
_this$ = -4						; size = 4
??0?$CDynamicPoolEx@VCTextureAnimationRandomDecorator@NEffectUpdateDecorator@@@@QAE@XZ PROC ; CDynamicPoolEx<NEffectUpdateDecorator::CTextureAnimationRandomDecorator>::CDynamicPoolEx<NEffectUpdateDecorator::CTextureAnimationRandomDecorator>, COMDAT
; _this$ = ecx

; 126  : 		CDynamicPoolEx()

  00000	55		 push	 ebp
  00001	8b ec		 mov	 ebp, esp
  00003	83 ec 1c	 sub	 esp, 28			; 0000001cH
  00006	89 4d fc	 mov	 DWORD PTR _this$[ebp], ecx

; 127  : 		{

  00009	8b 45 fc	 mov	 eax, DWORD PTR _this$[ebp]
  0000c	c7 00 00 00 00
	00		 mov	 DWORD PTR [eax], OFFSET ??_7?$CDynamicPoolEx@VCTextureAnimationRandomDecorator@NEffectUpdateDecorator@@@@6B@
  00012	8b 45 fc	 mov	 eax, DWORD PTR _this$[ebp]
  00015	83 c0 04	 add	 eax, 4
  00018	89 45 f0	 mov	 DWORD PTR _this$[ebp], eax
; File C:\Program Files (x86)\Microsoft Visual Studio\2019\Community\VC\Tools\MSVC\14.28.29333\include\vector

; 445  :     vector() noexcept(is_nothrow_default_constructible_v<_Alty>) : _Mypair(_Zero_then_variadic_args_t{}) {

  0001b	8b 45 f0	 mov	 eax, DWORD PTR _this$[ebp]
  0001e	89 45 ec	 mov	 DWORD PTR _this$[ebp], eax
; File C:\Program Files (x86)\Microsoft Visual Studio\2019\Community\VC\Tools\MSVC\14.28.29333\include\xmemory

; 1339 :         : _Ty1(), _Myval2(_STD forward<_Other2>(_Val2)...) {}

  00021	8b 45 ec	 mov	 eax, DWORD PTR _this$[ebp]
  00024	89 45 f8	 mov	 DWORD PTR _this$2[ebp], eax
; File C:\Program Files (x86)\Microsoft Visual Studio\2019\Community\VC\Tools\MSVC\14.28.29333\include\vector

; 375  :     _Vector_val() noexcept : _Myfirst(), _Mylast(), _Myend() {}

  00027	8b 45 f8	 mov	 eax, DWORD PTR _this$2[ebp]
  0002a	83 20 00	 and	 DWORD PTR [eax], 0
  0002d	8b 45 f8	 mov	 eax, DWORD PTR _this$2[ebp]
  00030	83 60 04 00	 and	 DWORD PTR [eax+4], 0
  00034	8b 45 f8	 mov	 eax, DWORD PTR _this$2[ebp]
  00037	83 60 08 00	 and	 DWORD PTR [eax+8], 0
; File D:\Metin2 Server Files\mainline\SRC_2014\Metin2Client\eterLib\Pool.h

; 127  : 		{

  0003b	8b 45 fc	 mov	 eax, DWORD PTR _this$[ebp]
  0003e	83 c0 10	 add	 eax, 16			; 00000010H
  00041	89 45 e8	 mov	 DWORD PTR _this$[ebp], eax
; File C:\Program Files (x86)\Microsoft Visual Studio\2019\Community\VC\Tools\MSVC\14.28.29333\include\vector

; 445  :     vector() noexcept(is_nothrow_default_constructible_v<_Alty>) : _Mypair(_Zero_then_variadic_args_t{}) {

  00044	8b 45 e8	 mov	 eax, DWORD PTR _this$[ebp]
  00047	89 45 e4	 mov	 DWORD PTR _this$[ebp], eax
; File C:\Program Files (x86)\Microsoft Visual Studio\2019\Community\VC\Tools\MSVC\14.28.29333\include\xmemory

; 1339 :         : _Ty1(), _Myval2(_STD forward<_Other2>(_Val2)...) {}

  0004a	8b 45 e4	 mov	 eax, DWORD PTR _this$[ebp]
  0004d	89 45 f4	 mov	 DWORD PTR _this$1[ebp], eax
; File C:\Program Files (x86)\Microsoft Visual Studio\2019\Community\VC\Tools\MSVC\14.28.29333\include\vector

; 375  :     _Vector_val() noexcept : _Myfirst(), _Mylast(), _Myend() {}

  00050	8b 45 f4	 mov	 eax, DWORD PTR _this$1[ebp]
  00053	83 20 00	 and	 DWORD PTR [eax], 0
  00056	8b 45 f4	 mov	 eax, DWORD PTR _this$1[ebp]
  00059	83 60 04 00	 and	 DWORD PTR [eax+4], 0
  0005d	8b 45 f4	 mov	 eax, DWORD PTR _this$1[ebp]
  00060	83 60 08 00	 and	 DWORD PTR [eax+8], 0
; File D:\Metin2 Server Files\mainline\SRC_2014\Metin2Client\eterLib\Pool.h

; 128  : 			m_uInitCapacity=0;

  00064	8b 45 fc	 mov	 eax, DWORD PTR _this$[ebp]
  00067	83 60 1c 00	 and	 DWORD PTR [eax+28], 0

; 129  : 			m_uUsedCapacity=0;

  0006b	8b 45 fc	 mov	 eax, DWORD PTR _this$[ebp]
  0006e	83 60 20 00	 and	 DWORD PTR [eax+32], 0

; 130  : 		}

  00072	8b 45 fc	 mov	 eax, DWORD PTR _this$[ebp]
  00075	c9		 leave
  00076	c3		 ret	 0
??0?$CDynamicPoolEx@VCTextureAnimationRandomDecorator@NEffectUpdateDecorator@@@@QAE@XZ ENDP ; CDynamicPoolEx<NEffectUpdateDecorator::CTextureAnimationRandomDecorator>::CDynamicPoolEx<NEffectUpdateDecorator::CTextureAnimationRandomDecorator>
_TEXT	ENDS
; Function compile flags: /Odspy
;	COMDAT ??_G?$CDynamicPoolEx@VCAirResistanceDecorator@NEffectUpdateDecorator@@@@UAEPAXI@Z
_TEXT	SEGMENT
_this$ = -4						; size = 4
___flags$ = 8						; size = 4
??_G?$CDynamicPoolEx@VCAirResistanceDecorator@NEffectUpdateDecorator@@@@UAEPAXI@Z PROC ; CDynamicPoolEx<NEffectUpdateDecorator::CAirResistanceDecorator>::`scalar deleting destructor', COMDAT
; _this$ = ecx
  00000	55		 push	 ebp
  00001	8b ec		 mov	 ebp, esp
  00003	51		 push	 ecx
  00004	89 4d fc	 mov	 DWORD PTR _this$[ebp], ecx
  00007	8b 4d fc	 mov	 ecx, DWORD PTR _this$[ebp]
  0000a	e8 00 00 00 00	 call	 ??1?$CDynamicPoolEx@VCAirResistanceDecorator@NEffectUpdateDecorator@@@@UAE@XZ ; CDynamicPoolEx<NEffectUpdateDecorator::CAirResistanceDecorator>::~CDynamicPoolEx<NEffectUpdateDecorator::CAirResistanceDecorator>
  0000f	8b 45 08	 mov	 eax, DWORD PTR ___flags$[ebp]
  00012	83 e0 01	 and	 eax, 1
  00015	74 0c		 je	 SHORT $LN2@scalar
  00017	6a 24		 push	 36			; 00000024H
  00019	ff 75 fc	 push	 DWORD PTR _this$[ebp]
  0001c	e8 00 00 00 00	 call	 ??3@YAXPAXI@Z		; operator delete
  00021	59		 pop	 ecx
  00022	59		 pop	 ecx
$LN2@scalar:
  00023	8b 45 fc	 mov	 eax, DWORD PTR _this$[ebp]
  00026	c9		 leave
  00027	c2 04 00	 ret	 4
??_G?$CDynamicPoolEx@VCAirResistanceDecorator@NEffectUpdateDecorator@@@@UAEPAXI@Z ENDP ; CDynamicPoolEx<NEffectUpdateDecorator::CAirResistanceDecorator>::`scalar deleting destructor'
_TEXT	ENDS
; Function compile flags: /Odspy
; File C:\Program Files (x86)\Microsoft Visual Studio\2019\Community\VC\Tools\MSVC\14.28.29333\include\vector
; File C:\Program Files (x86)\Microsoft Visual Studio\2019\Community\VC\Tools\MSVC\14.28.29333\include\xmemory
; File C:\Program Files (x86)\Microsoft Visual Studio\2019\Community\VC\Tools\MSVC\14.28.29333\include\vector
; File C:\Program Files (x86)\Microsoft Visual Studio\2019\Community\VC\Tools\MSVC\14.28.29333\include\xmemory
; File C:\Program Files (x86)\Microsoft Visual Studio\2019\Community\VC\Tools\MSVC\14.28.29333\include\vector
; File C:\Program Files (x86)\Microsoft Visual Studio\2019\Community\VC\Tools\MSVC\14.28.29333\include\xmemory
; File C:\Program Files (x86)\Microsoft Visual Studio\2019\Community\VC\Tools\MSVC\14.28.29333\include\vector
;	COMDAT ?_Tidy@?$vector@PAVCAirResistanceDecorator@NEffectUpdateDecorator@@V?$allocator@PAVCAirResistanceDecorator@NEffectUpdateDecorator@@@std@@@std@@AAEXXZ
_TEXT	SEGMENT
$T1 = -52						; size = 4
__Ptr$ = -48						; size = 4
__Count$ = -44						; size = 4
$T2 = -40						; size = 4
__First$ = -36						; size = 4
__Last$ = -32						; size = 4
$T3 = -28						; size = 4
$T4 = -24						; size = 4
__Myend$ = -20						; size = 4
__Mylast$ = -16						; size = 4
_this$ = -12						; size = 4
__My_data$ = -8						; size = 4
__Myfirst$ = -4						; size = 4
?_Tidy@?$vector@PAVCAirResistanceDecorator@NEffectUpdateDecorator@@V?$allocator@PAVCAirResistanceDecorator@NEffectUpdateDecorator@@@std@@@std@@AAEXXZ PROC ; std::vector<NEffectUpdateDecorator::CAirResistanceDecorator *,std::allocator<NEffectUpdateDecorator::CAirResistanceDecorator *> >::_Tidy, COMDAT
; _this$ = ecx

; 1686 :     void _Tidy() noexcept { // free all storage

  00000	55		 push	 ebp
  00001	8b ec		 mov	 ebp, esp
  00003	83 ec 34	 sub	 esp, 52			; 00000034H
  00006	89 4d f4	 mov	 DWORD PTR _this$[ebp], ecx

; 1687 :         auto& _My_data    = _Mypair._Myval2;

  00009	8b 45 f4	 mov	 eax, DWORD PTR _this$[ebp]
  0000c	89 45 f8	 mov	 DWORD PTR __My_data$[ebp], eax

; 1688 :         pointer& _Myfirst = _My_data._Myfirst;

  0000f	8b 45 f8	 mov	 eax, DWORD PTR __My_data$[ebp]
  00012	89 45 fc	 mov	 DWORD PTR __Myfirst$[ebp], eax

; 1689 :         pointer& _Mylast  = _My_data._Mylast;

  00015	8b 45 f8	 mov	 eax, DWORD PTR __My_data$[ebp]
  00018	83 c0 04	 add	 eax, 4
  0001b	89 45 f0	 mov	 DWORD PTR __Mylast$[ebp], eax

; 1690 :         pointer& _Myend   = _My_data._Myend;

  0001e	8b 45 f8	 mov	 eax, DWORD PTR __My_data$[ebp]
  00021	83 c0 08	 add	 eax, 8
  00024	89 45 ec	 mov	 DWORD PTR __Myend$[ebp], eax

; 1691 : 
; 1692 :         _My_data._Orphan_all();
; 1693 : 
; 1694 :         if (_Myfirst) { // destroy and deallocate old array

  00027	8b 45 fc	 mov	 eax, DWORD PTR __Myfirst$[ebp]
  0002a	83 38 00	 cmp	 DWORD PTR [eax], 0
  0002d	74 74		 je	 SHORT $LN3@Tidy

; 1695 :             _Destroy(_Myfirst, _Mylast);

  0002f	8b 45 f0	 mov	 eax, DWORD PTR __Mylast$[ebp]
  00032	8b 00		 mov	 eax, DWORD PTR [eax]
  00034	89 45 e0	 mov	 DWORD PTR __Last$[ebp], eax
  00037	8b 45 fc	 mov	 eax, DWORD PTR __Myfirst$[ebp]
  0003a	8b 00		 mov	 eax, DWORD PTR [eax]
  0003c	89 45 dc	 mov	 DWORD PTR __First$[ebp], eax

; 1733 :         return _Mypair._Get_first();

  0003f	8b 45 f4	 mov	 eax, DWORD PTR _this$[ebp]
; File C:\Program Files (x86)\Microsoft Visual Studio\2019\Community\VC\Tools\MSVC\14.28.29333\include\xmemory

; 1347 :         return *this;

  00042	89 45 e8	 mov	 DWORD PTR $T4[ebp], eax
; File C:\Program Files (x86)\Microsoft Visual Studio\2019\Community\VC\Tools\MSVC\14.28.29333\include\vector

; 1733 :         return _Mypair._Get_first();

  00045	8b 45 e8	 mov	 eax, DWORD PTR $T4[ebp]
  00048	89 45 e4	 mov	 DWORD PTR $T3[ebp], eax

; 1612 :         _Destroy_range(_First, _Last, _Getal());

  0004b	ff 75 e4	 push	 DWORD PTR $T3[ebp]
  0004e	ff 75 e0	 push	 DWORD PTR __Last$[ebp]
  00051	ff 75 dc	 push	 DWORD PTR __First$[ebp]
  00054	e8 00 00 00 00	 call	 ??$_Destroy_range@V?$allocator@PAVCAirResistanceDecorator@NEffectUpdateDecorator@@@std@@@std@@YAXPAPAVCAirResistanceDecorator@NEffectUpdateDecorator@@QAPAV12@AAV?$allocator@PAVCAirResistanceDecorator@NEffectUpdateDecorator@@@0@@Z ; std::_Destroy_range<std::allocator<NEffectUpdateDecorator::CAirResistanceDecorator *> >
  00059	83 c4 0c	 add	 esp, 12			; 0000000cH

; 1733 :         return _Mypair._Get_first();

  0005c	8b 45 f4	 mov	 eax, DWORD PTR _this$[ebp]
; File C:\Program Files (x86)\Microsoft Visual Studio\2019\Community\VC\Tools\MSVC\14.28.29333\include\xmemory

; 1347 :         return *this;

  0005f	89 45 d8	 mov	 DWORD PTR $T2[ebp], eax
; File C:\Program Files (x86)\Microsoft Visual Studio\2019\Community\VC\Tools\MSVC\14.28.29333\include\vector

; 1733 :         return _Mypair._Get_first();

  00062	8b 45 d8	 mov	 eax, DWORD PTR $T2[ebp]
  00065	89 45 cc	 mov	 DWORD PTR $T1[ebp], eax

; 1696 :             _Getal().deallocate(_Myfirst, static_cast<size_type>(_Myend - _Myfirst));

  00068	8b 45 ec	 mov	 eax, DWORD PTR __Myend$[ebp]
  0006b	8b 4d fc	 mov	 ecx, DWORD PTR __Myfirst$[ebp]
  0006e	8b 00		 mov	 eax, DWORD PTR [eax]
  00070	2b 01		 sub	 eax, DWORD PTR [ecx]
  00072	c1 f8 02	 sar	 eax, 2
  00075	89 45 d4	 mov	 DWORD PTR __Count$[ebp], eax
  00078	8b 45 fc	 mov	 eax, DWORD PTR __Myfirst$[ebp]
  0007b	8b 00		 mov	 eax, DWORD PTR [eax]
  0007d	89 45 d0	 mov	 DWORD PTR __Ptr$[ebp], eax
; File C:\Program Files (x86)\Microsoft Visual Studio\2019\Community\VC\Tools\MSVC\14.28.29333\include\xmemory

; 810  :         _Deallocate<_New_alignof<_Ty>>(_Ptr, sizeof(_Ty) * _Count);

  00080	8b 45 d4	 mov	 eax, DWORD PTR __Count$[ebp]
  00083	c1 e0 02	 shl	 eax, 2
  00086	50		 push	 eax
  00087	ff 75 d0	 push	 DWORD PTR __Ptr$[ebp]
  0008a	e8 00 00 00 00	 call	 ??$_Deallocate@$07$0A@@std@@YAXPAXI@Z ; std::_Deallocate<8,0>
  0008f	59		 pop	 ecx
  00090	59		 pop	 ecx
; File C:\Program Files (x86)\Microsoft Visual Studio\2019\Community\VC\Tools\MSVC\14.28.29333\include\vector

; 1698 :             _Myfirst = pointer();

  00091	8b 45 fc	 mov	 eax, DWORD PTR __Myfirst$[ebp]
  00094	83 20 00	 and	 DWORD PTR [eax], 0

; 1699 :             _Mylast  = pointer();

  00097	8b 45 f0	 mov	 eax, DWORD PTR __Mylast$[ebp]
  0009a	83 20 00	 and	 DWORD PTR [eax], 0

; 1700 :             _Myend   = pointer();

  0009d	8b 45 ec	 mov	 eax, DWORD PTR __Myend$[ebp]
  000a0	83 20 00	 and	 DWORD PTR [eax], 0
$LN3@Tidy:

; 1701 :         }
; 1702 :     }

  000a3	c9		 leave
  000a4	c3		 ret	 0
?_Tidy@?$vector@PAVCAirResistanceDecorator@NEffectUpdateDecorator@@V?$allocator@PAVCAirResistanceDecorator@NEffectUpdateDecorator@@@std@@@std@@AAEXXZ ENDP ; std::vector<NEffectUpdateDecorator::CAirResistanceDecorator *,std::allocator<NEffectUpdateDecorator::CAirResistanceDecorator *> >::_Tidy
_TEXT	ENDS
; Function compile flags: /Odspy
; File C:\Program Files (x86)\Microsoft Visual Studio\2019\Community\VC\Tools\MSVC\14.28.29333\include\vector
; File C:\Program Files (x86)\Microsoft Visual Studio\2019\Community\VC\Tools\MSVC\14.28.29333\include\xmemory
; File C:\Program Files (x86)\Microsoft Visual Studio\2019\Community\VC\Tools\MSVC\14.28.29333\include\vector
;	COMDAT ?clear@?$vector@PAVCAirResistanceDecorator@NEffectUpdateDecorator@@V?$allocator@PAVCAirResistanceDecorator@NEffectUpdateDecorator@@@std@@@std@@QAEXXZ
_TEXT	SEGMENT
__First$ = -32						; size = 4
__Last$ = -28						; size = 4
$T1 = -24						; size = 4
$T2 = -20						; size = 4
__Myfirst$ = -16					; size = 4
__Mylast$ = -12						; size = 4
_this$ = -8						; size = 4
__My_data$ = -4						; size = 4
?clear@?$vector@PAVCAirResistanceDecorator@NEffectUpdateDecorator@@V?$allocator@PAVCAirResistanceDecorator@NEffectUpdateDecorator@@@std@@@std@@QAEXXZ PROC ; std::vector<NEffectUpdateDecorator::CAirResistanceDecorator *,std::allocator<NEffectUpdateDecorator::CAirResistanceDecorator *> >::clear, COMDAT
; _this$ = ecx

; 1383 :     void clear() noexcept { // erase all

  00000	55		 push	 ebp
  00001	8b ec		 mov	 ebp, esp
  00003	83 ec 20	 sub	 esp, 32			; 00000020H
  00006	89 4d f8	 mov	 DWORD PTR _this$[ebp], ecx

; 1384 :         auto& _My_data    = _Mypair._Myval2;

  00009	8b 45 f8	 mov	 eax, DWORD PTR _this$[ebp]
  0000c	89 45 fc	 mov	 DWORD PTR __My_data$[ebp], eax

; 1385 :         pointer& _Myfirst = _My_data._Myfirst;

  0000f	8b 45 fc	 mov	 eax, DWORD PTR __My_data$[ebp]
  00012	89 45 f0	 mov	 DWORD PTR __Myfirst$[ebp], eax

; 1386 :         pointer& _Mylast  = _My_data._Mylast;

  00015	8b 45 fc	 mov	 eax, DWORD PTR __My_data$[ebp]
  00018	83 c0 04	 add	 eax, 4
  0001b	89 45 f4	 mov	 DWORD PTR __Mylast$[ebp], eax

; 1387 : 
; 1388 :         _My_data._Orphan_all();
; 1389 :         _Destroy(_Myfirst, _Mylast);

  0001e	8b 45 f4	 mov	 eax, DWORD PTR __Mylast$[ebp]
  00021	8b 00		 mov	 eax, DWORD PTR [eax]
  00023	89 45 e4	 mov	 DWORD PTR __Last$[ebp], eax
  00026	8b 45 f0	 mov	 eax, DWORD PTR __Myfirst$[ebp]
  00029	8b 00		 mov	 eax, DWORD PTR [eax]
  0002b	89 45 e0	 mov	 DWORD PTR __First$[ebp], eax

; 1733 :         return _Mypair._Get_first();

  0002e	8b 45 f8	 mov	 eax, DWORD PTR _this$[ebp]
; File C:\Program Files (x86)\Microsoft Visual Studio\2019\Community\VC\Tools\MSVC\14.28.29333\include\xmemory

; 1347 :         return *this;

  00031	89 45 ec	 mov	 DWORD PTR $T2[ebp], eax
; File C:\Program Files (x86)\Microsoft Visual Studio\2019\Community\VC\Tools\MSVC\14.28.29333\include\vector

; 1733 :         return _Mypair._Get_first();

  00034	8b 45 ec	 mov	 eax, DWORD PTR $T2[ebp]
  00037	89 45 e8	 mov	 DWORD PTR $T1[ebp], eax

; 1612 :         _Destroy_range(_First, _Last, _Getal());

  0003a	ff 75 e8	 push	 DWORD PTR $T1[ebp]
  0003d	ff 75 e4	 push	 DWORD PTR __Last$[ebp]
  00040	ff 75 e0	 push	 DWORD PTR __First$[ebp]
  00043	e8 00 00 00 00	 call	 ??$_Destroy_range@V?$allocator@PAVCAirResistanceDecorator@NEffectUpdateDecorator@@@std@@@std@@YAXPAPAVCAirResistanceDecorator@NEffectUpdateDecorator@@QAPAV12@AAV?$allocator@PAVCAirResistanceDecorator@NEffectUpdateDecorator@@@0@@Z ; std::_Destroy_range<std::allocator<NEffectUpdateDecorator::CAirResistanceDecorator *> >
  00048	83 c4 0c	 add	 esp, 12			; 0000000cH

; 1390 :         _Mylast = _Myfirst;

  0004b	8b 45 f4	 mov	 eax, DWORD PTR __Mylast$[ebp]
  0004e	8b 4d f0	 mov	 ecx, DWORD PTR __Myfirst$[ebp]
  00051	8b 09		 mov	 ecx, DWORD PTR [ecx]
  00053	89 08		 mov	 DWORD PTR [eax], ecx

; 1391 :     }

  00055	c9		 leave
  00056	c3		 ret	 0
?clear@?$vector@PAVCAirResistanceDecorator@NEffectUpdateDecorator@@V?$allocator@PAVCAirResistanceDecorator@NEffectUpdateDecorator@@@std@@@std@@QAEXXZ ENDP ; std::vector<NEffectUpdateDecorator::CAirResistanceDecorator *,std::allocator<NEffectUpdateDecorator::CAirResistanceDecorator *> >::clear
_TEXT	ENDS
; Function compile flags: /Odspy
; File D:\Metin2 Server Files\mainline\SRC_2014\Metin2Client\eterLib\Pool.h
;	COMDAT ?Delete@?$CDynamicPoolEx@VCAirResistanceDecorator@NEffectUpdateDecorator@@@@KAXPAVCAirResistanceDecorator@NEffectUpdateDecorator@@@Z
_TEXT	SEGMENT
_pkData$ = 8						; size = 4
?Delete@?$CDynamicPoolEx@VCAirResistanceDecorator@NEffectUpdateDecorator@@@@KAXPAVCAirResistanceDecorator@NEffectUpdateDecorator@@@Z PROC ; CDynamicPoolEx<NEffectUpdateDecorator::CAirResistanceDecorator>::Delete, COMDAT

; 223  : 		{

  00000	55		 push	 ebp
  00001	8b ec		 mov	 ebp, esp

; 224  : 			::operator delete(pkData);

  00003	ff 75 08	 push	 DWORD PTR _pkData$[ebp]
  00006	e8 00 00 00 00	 call	 ??3@YAXPAX@Z		; operator delete
  0000b	59		 pop	 ecx

; 225  : 		}

  0000c	5d		 pop	 ebp
  0000d	c3		 ret	 0
?Delete@?$CDynamicPoolEx@VCAirResistanceDecorator@NEffectUpdateDecorator@@@@KAXPAVCAirResistanceDecorator@NEffectUpdateDecorator@@@Z ENDP ; CDynamicPoolEx<NEffectUpdateDecorator::CAirResistanceDecorator>::Delete
_TEXT	ENDS
; Function compile flags: /Odspy
; File D:\Metin2 Server Files\mainline\SRC_2014\Metin2Client\eterLib\Pool.h
; File C:\Program Files (x86)\Microsoft Visual Studio\2019\Community\VC\Tools\MSVC\14.28.29333\include\vector
; File C:\Program Files (x86)\Microsoft Visual Studio\2019\Community\VC\Tools\MSVC\14.28.29333\include\xstddef
; File C:\Program Files (x86)\Microsoft Visual Studio\2019\Community\VC\Tools\MSVC\14.28.29333\include\vector
; File C:\Program Files (x86)\Microsoft Visual Studio\2019\Community\VC\Tools\MSVC\14.28.29333\include\xstddef
; File C:\Program Files (x86)\Microsoft Visual Studio\2019\Community\VC\Tools\MSVC\14.28.29333\include\vector
; File D:\Metin2 Server Files\mainline\SRC_2014\Metin2Client\eterLib\Pool.h
;	COMDAT ?Destroy@?$CDynamicPoolEx@VCAirResistanceDecorator@NEffectUpdateDecorator@@@@QAEXXZ
_TEXT	SEGMENT
$T1 = -44						; size = 4
$T2 = -40						; size = 4
$T3 = -36						; size = 4
$T4 = -32						; size = 4
$T5 = -28						; size = 4
___param0$ = -24					; size = 4
$T6 = -20						; size = 4
___param0$ = -16					; size = 4
__My_data$7 = -12					; size = 4
__My_data$8 = -8					; size = 4
_this$ = -4						; size = 4
?Destroy@?$CDynamicPoolEx@VCAirResistanceDecorator@NEffectUpdateDecorator@@@@QAEXXZ PROC ; CDynamicPoolEx<NEffectUpdateDecorator::CAirResistanceDecorator>::Destroy, COMDAT
; _this$ = ecx

; 150  : 		{

  00000	55		 push	 ebp
  00001	8b ec		 mov	 ebp, esp
  00003	83 ec 2c	 sub	 esp, 44			; 0000002cH
  00006	89 4d fc	 mov	 DWORD PTR _this$[ebp], ecx
; File C:\Program Files (x86)\Microsoft Visual Studio\2019\Community\VC\Tools\MSVC\14.28.29333\include\vector

; 1420 :         auto& _My_data = _Mypair._Myval2;

  00009	8b 45 fc	 mov	 eax, DWORD PTR _this$[ebp]
  0000c	83 c0 04	 add	 eax, 4
  0000f	89 45 f8	 mov	 DWORD PTR __My_data$8[ebp], eax
; File C:\Program Files (x86)\Microsoft Visual Studio\2019\Community\VC\Tools\MSVC\14.28.29333\include\xstddef

; 275  :     return __builtin_addressof(_Val);

  00012	8b 45 f8	 mov	 eax, DWORD PTR __My_data$8[ebp]
  00015	89 45 d8	 mov	 DWORD PTR $T2[ebp], eax
; File C:\Program Files (x86)\Microsoft Visual Studio\2019\Community\VC\Tools\MSVC\14.28.29333\include\vector

; 1421 :         return iterator(_My_data._Mylast, _STD addressof(_My_data));

  00018	8b 45 f8	 mov	 eax, DWORD PTR __My_data$8[ebp]
  0001b	8b 40 04	 mov	 eax, DWORD PTR [eax+4]
  0001e	89 45 f0	 mov	 DWORD PTR ___param0$[ebp], eax

; 42   :     _Vector_const_iterator(_Tptr _Parg, const _Container_base* _Pvector) noexcept : _Ptr(_Parg) {

  00021	8b 45 f0	 mov	 eax, DWORD PTR ___param0$[ebp]
  00024	89 45 ec	 mov	 DWORD PTR $T6[ebp], eax

; 1421 :         return iterator(_My_data._Mylast, _STD addressof(_My_data));

  00027	8d 45 ec	 lea	 eax, DWORD PTR $T6[ebp]
  0002a	89 45 e0	 mov	 DWORD PTR $T4[ebp], eax

; 1410 :         auto& _My_data = _Mypair._Myval2;

  0002d	8b 45 fc	 mov	 eax, DWORD PTR _this$[ebp]
  00030	83 c0 04	 add	 eax, 4
  00033	89 45 f4	 mov	 DWORD PTR __My_data$7[ebp], eax
; File C:\Program Files (x86)\Microsoft Visual Studio\2019\Community\VC\Tools\MSVC\14.28.29333\include\xstddef

; 275  :     return __builtin_addressof(_Val);

  00036	8b 45 f4	 mov	 eax, DWORD PTR __My_data$7[ebp]
  00039	89 45 d4	 mov	 DWORD PTR $T1[ebp], eax
; File C:\Program Files (x86)\Microsoft Visual Studio\2019\Community\VC\Tools\MSVC\14.28.29333\include\vector

; 1411 :         return iterator(_My_data._Myfirst, _STD addressof(_My_data));

  0003c	8b 45 f4	 mov	 eax, DWORD PTR __My_data$7[ebp]
  0003f	8b 00		 mov	 eax, DWORD PTR [eax]
  00041	89 45 e8	 mov	 DWORD PTR ___param0$[ebp], eax

; 42   :     _Vector_const_iterator(_Tptr _Parg, const _Container_base* _Pvector) noexcept : _Ptr(_Parg) {

  00044	8b 45 e8	 mov	 eax, DWORD PTR ___param0$[ebp]
  00047	89 45 e4	 mov	 DWORD PTR $T5[ebp], eax

; 1411 :         return iterator(_My_data._Myfirst, _STD addressof(_My_data));

  0004a	8d 45 e4	 lea	 eax, DWORD PTR $T5[ebp]
  0004d	89 45 dc	 mov	 DWORD PTR $T3[ebp], eax
; File D:\Metin2 Server Files\mainline\SRC_2014\Metin2Client\eterLib\Pool.h

; 160  : 			std::for_each(m_kVct_pkData.begin(), m_kVct_pkData.end(), Delete);

  00050	68 00 00 00 00	 push	 OFFSET ?Delete@?$CDynamicPoolEx@VCAirResistanceDecorator@NEffectUpdateDecorator@@@@KAXPAVCAirResistanceDecorator@NEffectUpdateDecorator@@@Z ; CDynamicPoolEx<NEffectUpdateDecorator::CAirResistanceDecorator>::Delete
  00055	8b 45 e0	 mov	 eax, DWORD PTR $T4[ebp]
  00058	ff 30		 push	 DWORD PTR [eax]
  0005a	8b 45 dc	 mov	 eax, DWORD PTR $T3[ebp]
  0005d	ff 30		 push	 DWORD PTR [eax]
  0005f	e8 00 00 00 00	 call	 ??$for_each@V?$_Vector_iterator@V?$_Vector_val@U?$_Simple_types@PAVCAirResistanceDecorator@NEffectUpdateDecorator@@@std@@@std@@@std@@P6AXPAVCAirResistanceDecorator@NEffectUpdateDecorator@@@Z@std@@YAP6AXPAVCAirResistanceDecorator@NEffectUpdateDecorator@@@ZV?$_Vector_iterator@V?$_Vector_val@U?$_Simple_types@PAVCAirResistanceDecorator@NEffectUpdateDecorator@@@std@@@std@@@0@1P6AX0@Z@Z ; std::for_each<std::_Vector_iterator<std::_Vector_val<std::_Simple_types<NEffectUpdateDecorator::CAirResistanceDecorator *> > >,void (__cdecl*)(NEffectUpdateDecorator::CAirResistanceDecorator *)>
  00064	83 c4 0c	 add	 esp, 12			; 0000000cH

; 161  : 			m_kVct_pkData.clear();

  00067	8b 4d fc	 mov	 ecx, DWORD PTR _this$[ebp]
  0006a	83 c1 04	 add	 ecx, 4
  0006d	e8 00 00 00 00	 call	 ?clear@?$vector@PAVCAirResistanceDecorator@NEffectUpdateDecorator@@V?$allocator@PAVCAirResistanceDecorator@NEffectUpdateDecorator@@@std@@@std@@QAEXXZ ; std::vector<NEffectUpdateDecorator::CAirResistanceDecorator *,std::allocator<NEffectUpdateDecorator::CAirResistanceDecorator *> >::clear

; 162  : 			m_kVct_pkFree.clear();

  00072	8b 4d fc	 mov	 ecx, DWORD PTR _this$[ebp]
  00075	83 c1 10	 add	 ecx, 16			; 00000010H
  00078	e8 00 00 00 00	 call	 ?clear@?$vector@PAVCAirResistanceDecorator@NEffectUpdateDecorator@@V?$allocator@PAVCAirResistanceDecorator@NEffectUpdateDecorator@@@std@@@std@@QAEXXZ ; std::vector<NEffectUpdateDecorator::CAirResistanceDecorator *,std::allocator<NEffectUpdateDecorator::CAirResistanceDecorator *> >::clear

; 163  : 		}

  0007d	c9		 leave
  0007e	c3		 ret	 0
?Destroy@?$CDynamicPoolEx@VCAirResistanceDecorator@NEffectUpdateDecorator@@@@QAEXXZ ENDP ; CDynamicPoolEx<NEffectUpdateDecorator::CAirResistanceDecorator>::Destroy
_TEXT	ENDS
; Function compile flags: /Odspy
; File D:\Metin2 Server Files\mainline\SRC_2014\Metin2Client\eterLib\Pool.h
; File C:\Program Files (x86)\Microsoft Visual Studio\2019\Community\VC\Tools\MSVC\14.28.29333\include\vector
; File D:\Metin2 Server Files\mainline\SRC_2014\Metin2Client\eterLib\Pool.h
; File C:\Program Files (x86)\Microsoft Visual Studio\2019\Community\VC\Tools\MSVC\14.28.29333\include\vector
; File D:\Metin2 Server Files\mainline\SRC_2014\Metin2Client\eterLib\Pool.h
;	COMDAT ??1?$CDynamicPoolEx@VCAirResistanceDecorator@NEffectUpdateDecorator@@@@UAE@XZ
_TEXT	SEGMENT
_this$ = -16						; size = 4
__$EHRec$ = -12						; size = 12
??1?$CDynamicPoolEx@VCAirResistanceDecorator@NEffectUpdateDecorator@@@@UAE@XZ PROC ; CDynamicPoolEx<NEffectUpdateDecorator::CAirResistanceDecorator>::~CDynamicPoolEx<NEffectUpdateDecorator::CAirResistanceDecorator>, COMDAT
; _this$ = ecx

; 132  : 		{

  00000	55		 push	 ebp
  00001	8b ec		 mov	 ebp, esp
  00003	6a ff		 push	 -1
  00005	68 00 00 00 00	 push	 __ehhandler$??1?$CDynamicPoolEx@VCAirResistanceDecorator@NEffectUpdateDecorator@@@@UAE@XZ
  0000a	64 a1 00 00 00
	00		 mov	 eax, DWORD PTR fs:0
  00010	50		 push	 eax
  00011	51		 push	 ecx
  00012	a1 00 00 00 00	 mov	 eax, DWORD PTR ___security_cookie
  00017	33 c5		 xor	 eax, ebp
  00019	50		 push	 eax
  0001a	8d 45 f4	 lea	 eax, DWORD PTR __$EHRec$[ebp]
  0001d	64 a3 00 00 00
	00		 mov	 DWORD PTR fs:0, eax
  00023	89 4d f0	 mov	 DWORD PTR _this$[ebp], ecx
  00026	8b 45 f0	 mov	 eax, DWORD PTR _this$[ebp]
  00029	c7 00 00 00 00
	00		 mov	 DWORD PTR [eax], OFFSET ??_7?$CDynamicPoolEx@VCAirResistanceDecorator@NEffectUpdateDecorator@@@@6B@

; 133  : 			assert(m_kVct_pkFree.size()==m_kVct_pkData.size());
; 134  : 			Destroy();

  0002f	8b 4d f0	 mov	 ecx, DWORD PTR _this$[ebp]
  00032	e8 00 00 00 00	 call	 ?Destroy@?$CDynamicPoolEx@VCAirResistanceDecorator@NEffectUpdateDecorator@@@@QAEXXZ ; CDynamicPoolEx<NEffectUpdateDecorator::CAirResistanceDecorator>::Destroy

; 142  : 		}

  00037	8b 4d f0	 mov	 ecx, DWORD PTR _this$[ebp]
  0003a	83 c1 10	 add	 ecx, 16			; 00000010H
; File C:\Program Files (x86)\Microsoft Visual Studio\2019\Community\VC\Tools\MSVC\14.28.29333\include\vector

; 673  :         _Tidy();

  0003d	e8 00 00 00 00	 call	 ?_Tidy@?$vector@PAVCAirResistanceDecorator@NEffectUpdateDecorator@@V?$allocator@PAVCAirResistanceDecorator@NEffectUpdateDecorator@@@std@@@std@@AAEXXZ ; std::vector<NEffectUpdateDecorator::CAirResistanceDecorator *,std::allocator<NEffectUpdateDecorator::CAirResistanceDecorator *> >::_Tidy
; File D:\Metin2 Server Files\mainline\SRC_2014\Metin2Client\eterLib\Pool.h

; 142  : 		}

  00042	8b 4d f0	 mov	 ecx, DWORD PTR _this$[ebp]
  00045	83 c1 04	 add	 ecx, 4
; File C:\Program Files (x86)\Microsoft Visual Studio\2019\Community\VC\Tools\MSVC\14.28.29333\include\vector

; 673  :         _Tidy();

  00048	e8 00 00 00 00	 call	 ?_Tidy@?$vector@PAVCAirResistanceDecorator@NEffectUpdateDecorator@@V?$allocator@PAVCAirResistanceDecorator@NEffectUpdateDecorator@@@std@@@std@@AAEXXZ ; std::vector<NEffectUpdateDecorator::CAirResistanceDecorator *,std::allocator<NEffectUpdateDecorator::CAirResistanceDecorator *> >::_Tidy
; File D:\Metin2 Server Files\mainline\SRC_2014\Metin2Client\eterLib\Pool.h

; 142  : 		}

  0004d	8b 4d f4	 mov	 ecx, DWORD PTR __$EHRec$[ebp]
  00050	64 89 0d 00 00
	00 00		 mov	 DWORD PTR fs:0, ecx
  00057	59		 pop	 ecx
  00058	c9		 leave
  00059	c3		 ret	 0
  0005a	cc		 int	 3
  0005b	cc		 int	 3
  0005c	cc		 int	 3
  0005d	cc		 int	 3
  0005e	cc		 int	 3
_TEXT	ENDS
;	COMDAT text$x
text$x	SEGMENT
__ehhandler$??1?$CDynamicPoolEx@VCAirResistanceDecorator@NEffectUpdateDecorator@@@@UAE@XZ:
  00000	90		 npad	 1
  00001	90		 npad	 1
  00002	8b 54 24 08	 mov	 edx, DWORD PTR [esp+8]
  00006	8d 42 0c	 lea	 eax, DWORD PTR [edx+12]
  00009	8b 4a f8	 mov	 ecx, DWORD PTR [edx-8]
  0000c	33 c8		 xor	 ecx, eax
  0000e	e8 00 00 00 00	 call	 @__security_check_cookie@4
  00013	b8 00 00 00 00	 mov	 eax, OFFSET __ehfuncinfo$??1?$CDynamicPoolEx@VCAirResistanceDecorator@NEffectUpdateDecorator@@@@UAE@XZ
  00018	e9 00 00 00 00	 jmp	 ___CxxFrameHandler3
text$x	ENDS
??1?$CDynamicPoolEx@VCAirResistanceDecorator@NEffectUpdateDecorator@@@@UAE@XZ ENDP ; CDynamicPoolEx<NEffectUpdateDecorator::CAirResistanceDecorator>::~CDynamicPoolEx<NEffectUpdateDecorator::CAirResistanceDecorator>
; Function compile flags: /Odspy
; File D:\Metin2 Server Files\mainline\SRC_2014\Metin2Client\eterLib\Pool.h
; File C:\Program Files (x86)\Microsoft Visual Studio\2019\Community\VC\Tools\MSVC\14.28.29333\include\vector
; File C:\Program Files (x86)\Microsoft Visual Studio\2019\Community\VC\Tools\MSVC\14.28.29333\include\xmemory
; File C:\Program Files (x86)\Microsoft Visual Studio\2019\Community\VC\Tools\MSVC\14.28.29333\include\vector
; File D:\Metin2 Server Files\mainline\SRC_2014\Metin2Client\eterLib\Pool.h
; File C:\Program Files (x86)\Microsoft Visual Studio\2019\Community\VC\Tools\MSVC\14.28.29333\include\vector
; File C:\Program Files (x86)\Microsoft Visual Studio\2019\Community\VC\Tools\MSVC\14.28.29333\include\xmemory
; File C:\Program Files (x86)\Microsoft Visual Studio\2019\Community\VC\Tools\MSVC\14.28.29333\include\vector
; File D:\Metin2 Server Files\mainline\SRC_2014\Metin2Client\eterLib\Pool.h
;	COMDAT ??0?$CDynamicPoolEx@VCAirResistanceDecorator@NEffectUpdateDecorator@@@@QAE@XZ
_TEXT	SEGMENT
_this$ = -28						; size = 4
_this$ = -24						; size = 4
_this$ = -20						; size = 4
_this$ = -16						; size = 4
_this$1 = -12						; size = 4
_this$2 = -8						; size = 4
_this$ = -4						; size = 4
??0?$CDynamicPoolEx@VCAirResistanceDecorator@NEffectUpdateDecorator@@@@QAE@XZ PROC ; CDynamicPoolEx<NEffectUpdateDecorator::CAirResistanceDecorator>::CDynamicPoolEx<NEffectUpdateDecorator::CAirResistanceDecorator>, COMDAT
; _this$ = ecx

; 126  : 		CDynamicPoolEx()

  00000	55		 push	 ebp
  00001	8b ec		 mov	 ebp, esp
  00003	83 ec 1c	 sub	 esp, 28			; 0000001cH
  00006	89 4d fc	 mov	 DWORD PTR _this$[ebp], ecx

; 127  : 		{

  00009	8b 45 fc	 mov	 eax, DWORD PTR _this$[ebp]
  0000c	c7 00 00 00 00
	00		 mov	 DWORD PTR [eax], OFFSET ??_7?$CDynamicPoolEx@VCAirResistanceDecorator@NEffectUpdateDecorator@@@@6B@
  00012	8b 45 fc	 mov	 eax, DWORD PTR _this$[ebp]
  00015	83 c0 04	 add	 eax, 4
  00018	89 45 f0	 mov	 DWORD PTR _this$[ebp], eax
; File C:\Program Files (x86)\Microsoft Visual Studio\2019\Community\VC\Tools\MSVC\14.28.29333\include\vector

; 445  :     vector() noexcept(is_nothrow_default_constructible_v<_Alty>) : _Mypair(_Zero_then_variadic_args_t{}) {

  0001b	8b 45 f0	 mov	 eax, DWORD PTR _this$[ebp]
  0001e	89 45 ec	 mov	 DWORD PTR _this$[ebp], eax
; File C:\Program Files (x86)\Microsoft Visual Studio\2019\Community\VC\Tools\MSVC\14.28.29333\include\xmemory

; 1339 :         : _Ty1(), _Myval2(_STD forward<_Other2>(_Val2)...) {}

  00021	8b 45 ec	 mov	 eax, DWORD PTR _this$[ebp]
  00024	89 45 f8	 mov	 DWORD PTR _this$2[ebp], eax
; File C:\Program Files (x86)\Microsoft Visual Studio\2019\Community\VC\Tools\MSVC\14.28.29333\include\vector

; 375  :     _Vector_val() noexcept : _Myfirst(), _Mylast(), _Myend() {}

  00027	8b 45 f8	 mov	 eax, DWORD PTR _this$2[ebp]
  0002a	83 20 00	 and	 DWORD PTR [eax], 0
  0002d	8b 45 f8	 mov	 eax, DWORD PTR _this$2[ebp]
  00030	83 60 04 00	 and	 DWORD PTR [eax+4], 0
  00034	8b 45 f8	 mov	 eax, DWORD PTR _this$2[ebp]
  00037	83 60 08 00	 and	 DWORD PTR [eax+8], 0
; File D:\Metin2 Server Files\mainline\SRC_2014\Metin2Client\eterLib\Pool.h

; 127  : 		{

  0003b	8b 45 fc	 mov	 eax, DWORD PTR _this$[ebp]
  0003e	83 c0 10	 add	 eax, 16			; 00000010H
  00041	89 45 e8	 mov	 DWORD PTR _this$[ebp], eax
; File C:\Program Files (x86)\Microsoft Visual Studio\2019\Community\VC\Tools\MSVC\14.28.29333\include\vector

; 445  :     vector() noexcept(is_nothrow_default_constructible_v<_Alty>) : _Mypair(_Zero_then_variadic_args_t{}) {

  00044	8b 45 e8	 mov	 eax, DWORD PTR _this$[ebp]
  00047	89 45 e4	 mov	 DWORD PTR _this$[ebp], eax
; File C:\Program Files (x86)\Microsoft Visual Studio\2019\Community\VC\Tools\MSVC\14.28.29333\include\xmemory

; 1339 :         : _Ty1(), _Myval2(_STD forward<_Other2>(_Val2)...) {}

  0004a	8b 45 e4	 mov	 eax, DWORD PTR _this$[ebp]
  0004d	89 45 f4	 mov	 DWORD PTR _this$1[ebp], eax
; File C:\Program Files (x86)\Microsoft Visual Studio\2019\Community\VC\Tools\MSVC\14.28.29333\include\vector

; 375  :     _Vector_val() noexcept : _Myfirst(), _Mylast(), _Myend() {}

  00050	8b 45 f4	 mov	 eax, DWORD PTR _this$1[ebp]
  00053	83 20 00	 and	 DWORD PTR [eax], 0
  00056	8b 45 f4	 mov	 eax, DWORD PTR _this$1[ebp]
  00059	83 60 04 00	 and	 DWORD PTR [eax+4], 0
  0005d	8b 45 f4	 mov	 eax, DWORD PTR _this$1[ebp]
  00060	83 60 08 00	 and	 DWORD PTR [eax+8], 0
; File D:\Metin2 Server Files\mainline\SRC_2014\Metin2Client\eterLib\Pool.h

; 128  : 			m_uInitCapacity=0;

  00064	8b 45 fc	 mov	 eax, DWORD PTR _this$[ebp]
  00067	83 60 1c 00	 and	 DWORD PTR [eax+28], 0

; 129  : 			m_uUsedCapacity=0;

  0006b	8b 45 fc	 mov	 eax, DWORD PTR _this$[ebp]
  0006e	83 60 20 00	 and	 DWORD PTR [eax+32], 0

; 130  : 		}

  00072	8b 45 fc	 mov	 eax, DWORD PTR _this$[ebp]
  00075	c9		 leave
  00076	c3		 ret	 0
??0?$CDynamicPoolEx@VCAirResistanceDecorator@NEffectUpdateDecorator@@@@QAE@XZ ENDP ; CDynamicPoolEx<NEffectUpdateDecorator::CAirResistanceDecorator>::CDynamicPoolEx<NEffectUpdateDecorator::CAirResistanceDecorator>
_TEXT	ENDS
; Function compile flags: /Odspy
;	COMDAT ??_G?$CDynamicPoolEx@VCGravityDecorator@NEffectUpdateDecorator@@@@UAEPAXI@Z
_TEXT	SEGMENT
_this$ = -4						; size = 4
___flags$ = 8						; size = 4
??_G?$CDynamicPoolEx@VCGravityDecorator@NEffectUpdateDecorator@@@@UAEPAXI@Z PROC ; CDynamicPoolEx<NEffectUpdateDecorator::CGravityDecorator>::`scalar deleting destructor', COMDAT
; _this$ = ecx
  00000	55		 push	 ebp
  00001	8b ec		 mov	 ebp, esp
  00003	51		 push	 ecx
  00004	89 4d fc	 mov	 DWORD PTR _this$[ebp], ecx
  00007	8b 4d fc	 mov	 ecx, DWORD PTR _this$[ebp]
  0000a	e8 00 00 00 00	 call	 ??1?$CDynamicPoolEx@VCGravityDecorator@NEffectUpdateDecorator@@@@UAE@XZ ; CDynamicPoolEx<NEffectUpdateDecorator::CGravityDecorator>::~CDynamicPoolEx<NEffectUpdateDecorator::CGravityDecorator>
  0000f	8b 45 08	 mov	 eax, DWORD PTR ___flags$[ebp]
  00012	83 e0 01	 and	 eax, 1
  00015	74 0c		 je	 SHORT $LN2@scalar
  00017	6a 24		 push	 36			; 00000024H
  00019	ff 75 fc	 push	 DWORD PTR _this$[ebp]
  0001c	e8 00 00 00 00	 call	 ??3@YAXPAXI@Z		; operator delete
  00021	59		 pop	 ecx
  00022	59		 pop	 ecx
$LN2@scalar:
  00023	8b 45 fc	 mov	 eax, DWORD PTR _this$[ebp]
  00026	c9		 leave
  00027	c2 04 00	 ret	 4
??_G?$CDynamicPoolEx@VCGravityDecorator@NEffectUpdateDecorator@@@@UAEPAXI@Z ENDP ; CDynamicPoolEx<NEffectUpdateDecorator::CGravityDecorator>::`scalar deleting destructor'
_TEXT	ENDS
; Function compile flags: /Odspy
; File C:\Program Files (x86)\Microsoft Visual Studio\2019\Community\VC\Tools\MSVC\14.28.29333\include\vector
; File C:\Program Files (x86)\Microsoft Visual Studio\2019\Community\VC\Tools\MSVC\14.28.29333\include\xmemory
; File C:\Program Files (x86)\Microsoft Visual Studio\2019\Community\VC\Tools\MSVC\14.28.29333\include\vector
; File C:\Program Files (x86)\Microsoft Visual Studio\2019\Community\VC\Tools\MSVC\14.28.29333\include\xmemory
; File C:\Program Files (x86)\Microsoft Visual Studio\2019\Community\VC\Tools\MSVC\14.28.29333\include\vector
; File C:\Program Files (x86)\Microsoft Visual Studio\2019\Community\VC\Tools\MSVC\14.28.29333\include\xmemory
; File C:\Program Files (x86)\Microsoft Visual Studio\2019\Community\VC\Tools\MSVC\14.28.29333\include\vector
;	COMDAT ?_Tidy@?$vector@PAVCGravityDecorator@NEffectUpdateDecorator@@V?$allocator@PAVCGravityDecorator@NEffectUpdateDecorator@@@std@@@std@@AAEXXZ
_TEXT	SEGMENT
$T1 = -52						; size = 4
__Ptr$ = -48						; size = 4
__Count$ = -44						; size = 4
$T2 = -40						; size = 4
__First$ = -36						; size = 4
__Last$ = -32						; size = 4
$T3 = -28						; size = 4
$T4 = -24						; size = 4
__Myend$ = -20						; size = 4
__Mylast$ = -16						; size = 4
_this$ = -12						; size = 4
__My_data$ = -8						; size = 4
__Myfirst$ = -4						; size = 4
?_Tidy@?$vector@PAVCGravityDecorator@NEffectUpdateDecorator@@V?$allocator@PAVCGravityDecorator@NEffectUpdateDecorator@@@std@@@std@@AAEXXZ PROC ; std::vector<NEffectUpdateDecorator::CGravityDecorator *,std::allocator<NEffectUpdateDecorator::CGravityDecorator *> >::_Tidy, COMDAT
; _this$ = ecx

; 1686 :     void _Tidy() noexcept { // free all storage

  00000	55		 push	 ebp
  00001	8b ec		 mov	 ebp, esp
  00003	83 ec 34	 sub	 esp, 52			; 00000034H
  00006	89 4d f4	 mov	 DWORD PTR _this$[ebp], ecx

; 1687 :         auto& _My_data    = _Mypair._Myval2;

  00009	8b 45 f4	 mov	 eax, DWORD PTR _this$[ebp]
  0000c	89 45 f8	 mov	 DWORD PTR __My_data$[ebp], eax

; 1688 :         pointer& _Myfirst = _My_data._Myfirst;

  0000f	8b 45 f8	 mov	 eax, DWORD PTR __My_data$[ebp]
  00012	89 45 fc	 mov	 DWORD PTR __Myfirst$[ebp], eax

; 1689 :         pointer& _Mylast  = _My_data._Mylast;

  00015	8b 45 f8	 mov	 eax, DWORD PTR __My_data$[ebp]
  00018	83 c0 04	 add	 eax, 4
  0001b	89 45 f0	 mov	 DWORD PTR __Mylast$[ebp], eax

; 1690 :         pointer& _Myend   = _My_data._Myend;

  0001e	8b 45 f8	 mov	 eax, DWORD PTR __My_data$[ebp]
  00021	83 c0 08	 add	 eax, 8
  00024	89 45 ec	 mov	 DWORD PTR __Myend$[ebp], eax

; 1691 : 
; 1692 :         _My_data._Orphan_all();
; 1693 : 
; 1694 :         if (_Myfirst) { // destroy and deallocate old array

  00027	8b 45 fc	 mov	 eax, DWORD PTR __Myfirst$[ebp]
  0002a	83 38 00	 cmp	 DWORD PTR [eax], 0
  0002d	74 74		 je	 SHORT $LN3@Tidy

; 1695 :             _Destroy(_Myfirst, _Mylast);

  0002f	8b 45 f0	 mov	 eax, DWORD PTR __Mylast$[ebp]
  00032	8b 00		 mov	 eax, DWORD PTR [eax]
  00034	89 45 e0	 mov	 DWORD PTR __Last$[ebp], eax
  00037	8b 45 fc	 mov	 eax, DWORD PTR __Myfirst$[ebp]
  0003a	8b 00		 mov	 eax, DWORD PTR [eax]
  0003c	89 45 dc	 mov	 DWORD PTR __First$[ebp], eax

; 1733 :         return _Mypair._Get_first();

  0003f	8b 45 f4	 mov	 eax, DWORD PTR _this$[ebp]
; File C:\Program Files (x86)\Microsoft Visual Studio\2019\Community\VC\Tools\MSVC\14.28.29333\include\xmemory

; 1347 :         return *this;

  00042	89 45 e8	 mov	 DWORD PTR $T4[ebp], eax
; File C:\Program Files (x86)\Microsoft Visual Studio\2019\Community\VC\Tools\MSVC\14.28.29333\include\vector

; 1733 :         return _Mypair._Get_first();

  00045	8b 45 e8	 mov	 eax, DWORD PTR $T4[ebp]
  00048	89 45 e4	 mov	 DWORD PTR $T3[ebp], eax

; 1612 :         _Destroy_range(_First, _Last, _Getal());

  0004b	ff 75 e4	 push	 DWORD PTR $T3[ebp]
  0004e	ff 75 e0	 push	 DWORD PTR __Last$[ebp]
  00051	ff 75 dc	 push	 DWORD PTR __First$[ebp]
  00054	e8 00 00 00 00	 call	 ??$_Destroy_range@V?$allocator@PAVCGravityDecorator@NEffectUpdateDecorator@@@std@@@std@@YAXPAPAVCGravityDecorator@NEffectUpdateDecorator@@QAPAV12@AAV?$allocator@PAVCGravityDecorator@NEffectUpdateDecorator@@@0@@Z ; std::_Destroy_range<std::allocator<NEffectUpdateDecorator::CGravityDecorator *> >
  00059	83 c4 0c	 add	 esp, 12			; 0000000cH

; 1733 :         return _Mypair._Get_first();

  0005c	8b 45 f4	 mov	 eax, DWORD PTR _this$[ebp]
; File C:\Program Files (x86)\Microsoft Visual Studio\2019\Community\VC\Tools\MSVC\14.28.29333\include\xmemory

; 1347 :         return *this;

  0005f	89 45 d8	 mov	 DWORD PTR $T2[ebp], eax
; File C:\Program Files (x86)\Microsoft Visual Studio\2019\Community\VC\Tools\MSVC\14.28.29333\include\vector

; 1733 :         return _Mypair._Get_first();

  00062	8b 45 d8	 mov	 eax, DWORD PTR $T2[ebp]
  00065	89 45 cc	 mov	 DWORD PTR $T1[ebp], eax

; 1696 :             _Getal().deallocate(_Myfirst, static_cast<size_type>(_Myend - _Myfirst));

  00068	8b 45 ec	 mov	 eax, DWORD PTR __Myend$[ebp]
  0006b	8b 4d fc	 mov	 ecx, DWORD PTR __Myfirst$[ebp]
  0006e	8b 00		 mov	 eax, DWORD PTR [eax]
  00070	2b 01		 sub	 eax, DWORD PTR [ecx]
  00072	c1 f8 02	 sar	 eax, 2
  00075	89 45 d4	 mov	 DWORD PTR __Count$[ebp], eax
  00078	8b 45 fc	 mov	 eax, DWORD PTR __Myfirst$[ebp]
  0007b	8b 00		 mov	 eax, DWORD PTR [eax]
  0007d	89 45 d0	 mov	 DWORD PTR __Ptr$[ebp], eax
; File C:\Program Files (x86)\Microsoft Visual Studio\2019\Community\VC\Tools\MSVC\14.28.29333\include\xmemory

; 810  :         _Deallocate<_New_alignof<_Ty>>(_Ptr, sizeof(_Ty) * _Count);

  00080	8b 45 d4	 mov	 eax, DWORD PTR __Count$[ebp]
  00083	c1 e0 02	 shl	 eax, 2
  00086	50		 push	 eax
  00087	ff 75 d0	 push	 DWORD PTR __Ptr$[ebp]
  0008a	e8 00 00 00 00	 call	 ??$_Deallocate@$07$0A@@std@@YAXPAXI@Z ; std::_Deallocate<8,0>
  0008f	59		 pop	 ecx
  00090	59		 pop	 ecx
; File C:\Program Files (x86)\Microsoft Visual Studio\2019\Community\VC\Tools\MSVC\14.28.29333\include\vector

; 1698 :             _Myfirst = pointer();

  00091	8b 45 fc	 mov	 eax, DWORD PTR __Myfirst$[ebp]
  00094	83 20 00	 and	 DWORD PTR [eax], 0

; 1699 :             _Mylast  = pointer();

  00097	8b 45 f0	 mov	 eax, DWORD PTR __Mylast$[ebp]
  0009a	83 20 00	 and	 DWORD PTR [eax], 0

; 1700 :             _Myend   = pointer();

  0009d	8b 45 ec	 mov	 eax, DWORD PTR __Myend$[ebp]
  000a0	83 20 00	 and	 DWORD PTR [eax], 0
$LN3@Tidy:

; 1701 :         }
; 1702 :     }

  000a3	c9		 leave
  000a4	c3		 ret	 0
?_Tidy@?$vector@PAVCGravityDecorator@NEffectUpdateDecorator@@V?$allocator@PAVCGravityDecorator@NEffectUpdateDecorator@@@std@@@std@@AAEXXZ ENDP ; std::vector<NEffectUpdateDecorator::CGravityDecorator *,std::allocator<NEffectUpdateDecorator::CGravityDecorator *> >::_Tidy
_TEXT	ENDS
; Function compile flags: /Odspy
; File C:\Program Files (x86)\Microsoft Visual Studio\2019\Community\VC\Tools\MSVC\14.28.29333\include\vector
; File C:\Program Files (x86)\Microsoft Visual Studio\2019\Community\VC\Tools\MSVC\14.28.29333\include\xmemory
; File C:\Program Files (x86)\Microsoft Visual Studio\2019\Community\VC\Tools\MSVC\14.28.29333\include\vector
;	COMDAT ?clear@?$vector@PAVCGravityDecorator@NEffectUpdateDecorator@@V?$allocator@PAVCGravityDecorator@NEffectUpdateDecorator@@@std@@@std@@QAEXXZ
_TEXT	SEGMENT
__First$ = -32						; size = 4
__Last$ = -28						; size = 4
$T1 = -24						; size = 4
$T2 = -20						; size = 4
__Myfirst$ = -16					; size = 4
__Mylast$ = -12						; size = 4
_this$ = -8						; size = 4
__My_data$ = -4						; size = 4
?clear@?$vector@PAVCGravityDecorator@NEffectUpdateDecorator@@V?$allocator@PAVCGravityDecorator@NEffectUpdateDecorator@@@std@@@std@@QAEXXZ PROC ; std::vector<NEffectUpdateDecorator::CGravityDecorator *,std::allocator<NEffectUpdateDecorator::CGravityDecorator *> >::clear, COMDAT
; _this$ = ecx

; 1383 :     void clear() noexcept { // erase all

  00000	55		 push	 ebp
  00001	8b ec		 mov	 ebp, esp
  00003	83 ec 20	 sub	 esp, 32			; 00000020H
  00006	89 4d f8	 mov	 DWORD PTR _this$[ebp], ecx

; 1384 :         auto& _My_data    = _Mypair._Myval2;

  00009	8b 45 f8	 mov	 eax, DWORD PTR _this$[ebp]
  0000c	89 45 fc	 mov	 DWORD PTR __My_data$[ebp], eax

; 1385 :         pointer& _Myfirst = _My_data._Myfirst;

  0000f	8b 45 fc	 mov	 eax, DWORD PTR __My_data$[ebp]
  00012	89 45 f0	 mov	 DWORD PTR __Myfirst$[ebp], eax

; 1386 :         pointer& _Mylast  = _My_data._Mylast;

  00015	8b 45 fc	 mov	 eax, DWORD PTR __My_data$[ebp]
  00018	83 c0 04	 add	 eax, 4
  0001b	89 45 f4	 mov	 DWORD PTR __Mylast$[ebp], eax

; 1387 : 
; 1388 :         _My_data._Orphan_all();
; 1389 :         _Destroy(_Myfirst, _Mylast);

  0001e	8b 45 f4	 mov	 eax, DWORD PTR __Mylast$[ebp]
  00021	8b 00		 mov	 eax, DWORD PTR [eax]
  00023	89 45 e4	 mov	 DWORD PTR __Last$[ebp], eax
  00026	8b 45 f0	 mov	 eax, DWORD PTR __Myfirst$[ebp]
  00029	8b 00		 mov	 eax, DWORD PTR [eax]
  0002b	89 45 e0	 mov	 DWORD PTR __First$[ebp], eax

; 1733 :         return _Mypair._Get_first();

  0002e	8b 45 f8	 mov	 eax, DWORD PTR _this$[ebp]
; File C:\Program Files (x86)\Microsoft Visual Studio\2019\Community\VC\Tools\MSVC\14.28.29333\include\xmemory

; 1347 :         return *this;

  00031	89 45 ec	 mov	 DWORD PTR $T2[ebp], eax
; File C:\Program Files (x86)\Microsoft Visual Studio\2019\Community\VC\Tools\MSVC\14.28.29333\include\vector

; 1733 :         return _Mypair._Get_first();

  00034	8b 45 ec	 mov	 eax, DWORD PTR $T2[ebp]
  00037	89 45 e8	 mov	 DWORD PTR $T1[ebp], eax

; 1612 :         _Destroy_range(_First, _Last, _Getal());

  0003a	ff 75 e8	 push	 DWORD PTR $T1[ebp]
  0003d	ff 75 e4	 push	 DWORD PTR __Last$[ebp]
  00040	ff 75 e0	 push	 DWORD PTR __First$[ebp]
  00043	e8 00 00 00 00	 call	 ??$_Destroy_range@V?$allocator@PAVCGravityDecorator@NEffectUpdateDecorator@@@std@@@std@@YAXPAPAVCGravityDecorator@NEffectUpdateDecorator@@QAPAV12@AAV?$allocator@PAVCGravityDecorator@NEffectUpdateDecorator@@@0@@Z ; std::_Destroy_range<std::allocator<NEffectUpdateDecorator::CGravityDecorator *> >
  00048	83 c4 0c	 add	 esp, 12			; 0000000cH

; 1390 :         _Mylast = _Myfirst;

  0004b	8b 45 f4	 mov	 eax, DWORD PTR __Mylast$[ebp]
  0004e	8b 4d f0	 mov	 ecx, DWORD PTR __Myfirst$[ebp]
  00051	8b 09		 mov	 ecx, DWORD PTR [ecx]
  00053	89 08		 mov	 DWORD PTR [eax], ecx

; 1391 :     }

  00055	c9		 leave
  00056	c3		 ret	 0
?clear@?$vector@PAVCGravityDecorator@NEffectUpdateDecorator@@V?$allocator@PAVCGravityDecorator@NEffectUpdateDecorator@@@std@@@std@@QAEXXZ ENDP ; std::vector<NEffectUpdateDecorator::CGravityDecorator *,std::allocator<NEffectUpdateDecorator::CGravityDecorator *> >::clear
_TEXT	ENDS
; Function compile flags: /Odspy
; File D:\Metin2 Server Files\mainline\SRC_2014\Metin2Client\eterLib\Pool.h
;	COMDAT ?Delete@?$CDynamicPoolEx@VCGravityDecorator@NEffectUpdateDecorator@@@@KAXPAVCGravityDecorator@NEffectUpdateDecorator@@@Z
_TEXT	SEGMENT
_pkData$ = 8						; size = 4
?Delete@?$CDynamicPoolEx@VCGravityDecorator@NEffectUpdateDecorator@@@@KAXPAVCGravityDecorator@NEffectUpdateDecorator@@@Z PROC ; CDynamicPoolEx<NEffectUpdateDecorator::CGravityDecorator>::Delete, COMDAT

; 223  : 		{

  00000	55		 push	 ebp
  00001	8b ec		 mov	 ebp, esp

; 224  : 			::operator delete(pkData);

  00003	ff 75 08	 push	 DWORD PTR _pkData$[ebp]
  00006	e8 00 00 00 00	 call	 ??3@YAXPAX@Z		; operator delete
  0000b	59		 pop	 ecx

; 225  : 		}

  0000c	5d		 pop	 ebp
  0000d	c3		 ret	 0
?Delete@?$CDynamicPoolEx@VCGravityDecorator@NEffectUpdateDecorator@@@@KAXPAVCGravityDecorator@NEffectUpdateDecorator@@@Z ENDP ; CDynamicPoolEx<NEffectUpdateDecorator::CGravityDecorator>::Delete
_TEXT	ENDS
; Function compile flags: /Odspy
; File D:\Metin2 Server Files\mainline\SRC_2014\Metin2Client\eterLib\Pool.h
; File C:\Program Files (x86)\Microsoft Visual Studio\2019\Community\VC\Tools\MSVC\14.28.29333\include\vector
; File C:\Program Files (x86)\Microsoft Visual Studio\2019\Community\VC\Tools\MSVC\14.28.29333\include\xstddef
; File C:\Program Files (x86)\Microsoft Visual Studio\2019\Community\VC\Tools\MSVC\14.28.29333\include\vector
; File C:\Program Files (x86)\Microsoft Visual Studio\2019\Community\VC\Tools\MSVC\14.28.29333\include\xstddef
; File C:\Program Files (x86)\Microsoft Visual Studio\2019\Community\VC\Tools\MSVC\14.28.29333\include\vector
; File D:\Metin2 Server Files\mainline\SRC_2014\Metin2Client\eterLib\Pool.h
;	COMDAT ?Destroy@?$CDynamicPoolEx@VCGravityDecorator@NEffectUpdateDecorator@@@@QAEXXZ
_TEXT	SEGMENT
$T1 = -44						; size = 4
$T2 = -40						; size = 4
$T3 = -36						; size = 4
$T4 = -32						; size = 4
$T5 = -28						; size = 4
___param0$ = -24					; size = 4
$T6 = -20						; size = 4
___param0$ = -16					; size = 4
__My_data$7 = -12					; size = 4
__My_data$8 = -8					; size = 4
_this$ = -4						; size = 4
?Destroy@?$CDynamicPoolEx@VCGravityDecorator@NEffectUpdateDecorator@@@@QAEXXZ PROC ; CDynamicPoolEx<NEffectUpdateDecorator::CGravityDecorator>::Destroy, COMDAT
; _this$ = ecx

; 150  : 		{

  00000	55		 push	 ebp
  00001	8b ec		 mov	 ebp, esp
  00003	83 ec 2c	 sub	 esp, 44			; 0000002cH
  00006	89 4d fc	 mov	 DWORD PTR _this$[ebp], ecx
; File C:\Program Files (x86)\Microsoft Visual Studio\2019\Community\VC\Tools\MSVC\14.28.29333\include\vector

; 1420 :         auto& _My_data = _Mypair._Myval2;

  00009	8b 45 fc	 mov	 eax, DWORD PTR _this$[ebp]
  0000c	83 c0 04	 add	 eax, 4
  0000f	89 45 f8	 mov	 DWORD PTR __My_data$8[ebp], eax
; File C:\Program Files (x86)\Microsoft Visual Studio\2019\Community\VC\Tools\MSVC\14.28.29333\include\xstddef

; 275  :     return __builtin_addressof(_Val);

  00012	8b 45 f8	 mov	 eax, DWORD PTR __My_data$8[ebp]
  00015	89 45 d8	 mov	 DWORD PTR $T2[ebp], eax
; File C:\Program Files (x86)\Microsoft Visual Studio\2019\Community\VC\Tools\MSVC\14.28.29333\include\vector

; 1421 :         return iterator(_My_data._Mylast, _STD addressof(_My_data));

  00018	8b 45 f8	 mov	 eax, DWORD PTR __My_data$8[ebp]
  0001b	8b 40 04	 mov	 eax, DWORD PTR [eax+4]
  0001e	89 45 f0	 mov	 DWORD PTR ___param0$[ebp], eax

; 42   :     _Vector_const_iterator(_Tptr _Parg, const _Container_base* _Pvector) noexcept : _Ptr(_Parg) {

  00021	8b 45 f0	 mov	 eax, DWORD PTR ___param0$[ebp]
  00024	89 45 ec	 mov	 DWORD PTR $T6[ebp], eax

; 1421 :         return iterator(_My_data._Mylast, _STD addressof(_My_data));

  00027	8d 45 ec	 lea	 eax, DWORD PTR $T6[ebp]
  0002a	89 45 e0	 mov	 DWORD PTR $T4[ebp], eax

; 1410 :         auto& _My_data = _Mypair._Myval2;

  0002d	8b 45 fc	 mov	 eax, DWORD PTR _this$[ebp]
  00030	83 c0 04	 add	 eax, 4
  00033	89 45 f4	 mov	 DWORD PTR __My_data$7[ebp], eax
; File C:\Program Files (x86)\Microsoft Visual Studio\2019\Community\VC\Tools\MSVC\14.28.29333\include\xstddef

; 275  :     return __builtin_addressof(_Val);

  00036	8b 45 f4	 mov	 eax, DWORD PTR __My_data$7[ebp]
  00039	89 45 d4	 mov	 DWORD PTR $T1[ebp], eax
; File C:\Program Files (x86)\Microsoft Visual Studio\2019\Community\VC\Tools\MSVC\14.28.29333\include\vector

; 1411 :         return iterator(_My_data._Myfirst, _STD addressof(_My_data));

  0003c	8b 45 f4	 mov	 eax, DWORD PTR __My_data$7[ebp]
  0003f	8b 00		 mov	 eax, DWORD PTR [eax]
  00041	89 45 e8	 mov	 DWORD PTR ___param0$[ebp], eax

; 42   :     _Vector_const_iterator(_Tptr _Parg, const _Container_base* _Pvector) noexcept : _Ptr(_Parg) {

  00044	8b 45 e8	 mov	 eax, DWORD PTR ___param0$[ebp]
  00047	89 45 e4	 mov	 DWORD PTR $T5[ebp], eax

; 1411 :         return iterator(_My_data._Myfirst, _STD addressof(_My_data));

  0004a	8d 45 e4	 lea	 eax, DWORD PTR $T5[ebp]
  0004d	89 45 dc	 mov	 DWORD PTR $T3[ebp], eax
; File D:\Metin2 Server Files\mainline\SRC_2014\Metin2Client\eterLib\Pool.h

; 160  : 			std::for_each(m_kVct_pkData.begin(), m_kVct_pkData.end(), Delete);

  00050	68 00 00 00 00	 push	 OFFSET ?Delete@?$CDynamicPoolEx@VCGravityDecorator@NEffectUpdateDecorator@@@@KAXPAVCGravityDecorator@NEffectUpdateDecorator@@@Z ; CDynamicPoolEx<NEffectUpdateDecorator::CGravityDecorator>::Delete
  00055	8b 45 e0	 mov	 eax, DWORD PTR $T4[ebp]
  00058	ff 30		 push	 DWORD PTR [eax]
  0005a	8b 45 dc	 mov	 eax, DWORD PTR $T3[ebp]
  0005d	ff 30		 push	 DWORD PTR [eax]
  0005f	e8 00 00 00 00	 call	 ??$for_each@V?$_Vector_iterator@V?$_Vector_val@U?$_Simple_types@PAVCGravityDecorator@NEffectUpdateDecorator@@@std@@@std@@@std@@P6AXPAVCGravityDecorator@NEffectUpdateDecorator@@@Z@std@@YAP6AXPAVCGravityDecorator@NEffectUpdateDecorator@@@ZV?$_Vector_iterator@V?$_Vector_val@U?$_Simple_types@PAVCGravityDecorator@NEffectUpdateDecorator@@@std@@@std@@@0@1P6AX0@Z@Z ; std::for_each<std::_Vector_iterator<std::_Vector_val<std::_Simple_types<NEffectUpdateDecorator::CGravityDecorator *> > >,void (__cdecl*)(NEffectUpdateDecorator::CGravityDecorator *)>
  00064	83 c4 0c	 add	 esp, 12			; 0000000cH

; 161  : 			m_kVct_pkData.clear();

  00067	8b 4d fc	 mov	 ecx, DWORD PTR _this$[ebp]
  0006a	83 c1 04	 add	 ecx, 4
  0006d	e8 00 00 00 00	 call	 ?clear@?$vector@PAVCGravityDecorator@NEffectUpdateDecorator@@V?$allocator@PAVCGravityDecorator@NEffectUpdateDecorator@@@std@@@std@@QAEXXZ ; std::vector<NEffectUpdateDecorator::CGravityDecorator *,std::allocator<NEffectUpdateDecorator::CGravityDecorator *> >::clear

; 162  : 			m_kVct_pkFree.clear();

  00072	8b 4d fc	 mov	 ecx, DWORD PTR _this$[ebp]
  00075	83 c1 10	 add	 ecx, 16			; 00000010H
  00078	e8 00 00 00 00	 call	 ?clear@?$vector@PAVCGravityDecorator@NEffectUpdateDecorator@@V?$allocator@PAVCGravityDecorator@NEffectUpdateDecorator@@@std@@@std@@QAEXXZ ; std::vector<NEffectUpdateDecorator::CGravityDecorator *,std::allocator<NEffectUpdateDecorator::CGravityDecorator *> >::clear

; 163  : 		}

  0007d	c9		 leave
  0007e	c3		 ret	 0
?Destroy@?$CDynamicPoolEx@VCGravityDecorator@NEffectUpdateDecorator@@@@QAEXXZ ENDP ; CDynamicPoolEx<NEffectUpdateDecorator::CGravityDecorator>::Destroy
_TEXT	ENDS
; Function compile flags: /Odspy
; File D:\Metin2 Server Files\mainline\SRC_2014\Metin2Client\eterLib\Pool.h
; File C:\Program Files (x86)\Microsoft Visual Studio\2019\Community\VC\Tools\MSVC\14.28.29333\include\vector
; File D:\Metin2 Server Files\mainline\SRC_2014\Metin2Client\eterLib\Pool.h
; File C:\Program Files (x86)\Microsoft Visual Studio\2019\Community\VC\Tools\MSVC\14.28.29333\include\vector
; File D:\Metin2 Server Files\mainline\SRC_2014\Metin2Client\eterLib\Pool.h
;	COMDAT ??1?$CDynamicPoolEx@VCGravityDecorator@NEffectUpdateDecorator@@@@UAE@XZ
_TEXT	SEGMENT
_this$ = -16						; size = 4
__$EHRec$ = -12						; size = 12
??1?$CDynamicPoolEx@VCGravityDecorator@NEffectUpdateDecorator@@@@UAE@XZ PROC ; CDynamicPoolEx<NEffectUpdateDecorator::CGravityDecorator>::~CDynamicPoolEx<NEffectUpdateDecorator::CGravityDecorator>, COMDAT
; _this$ = ecx

; 132  : 		{

  00000	55		 push	 ebp
  00001	8b ec		 mov	 ebp, esp
  00003	6a ff		 push	 -1
  00005	68 00 00 00 00	 push	 __ehhandler$??1?$CDynamicPoolEx@VCGravityDecorator@NEffectUpdateDecorator@@@@UAE@XZ
  0000a	64 a1 00 00 00
	00		 mov	 eax, DWORD PTR fs:0
  00010	50		 push	 eax
  00011	51		 push	 ecx
  00012	a1 00 00 00 00	 mov	 eax, DWORD PTR ___security_cookie
  00017	33 c5		 xor	 eax, ebp
  00019	50		 push	 eax
  0001a	8d 45 f4	 lea	 eax, DWORD PTR __$EHRec$[ebp]
  0001d	64 a3 00 00 00
	00		 mov	 DWORD PTR fs:0, eax
  00023	89 4d f0	 mov	 DWORD PTR _this$[ebp], ecx
  00026	8b 45 f0	 mov	 eax, DWORD PTR _this$[ebp]
  00029	c7 00 00 00 00
	00		 mov	 DWORD PTR [eax], OFFSET ??_7?$CDynamicPoolEx@VCGravityDecorator@NEffectUpdateDecorator@@@@6B@

; 133  : 			assert(m_kVct_pkFree.size()==m_kVct_pkData.size());
; 134  : 			Destroy();

  0002f	8b 4d f0	 mov	 ecx, DWORD PTR _this$[ebp]
  00032	e8 00 00 00 00	 call	 ?Destroy@?$CDynamicPoolEx@VCGravityDecorator@NEffectUpdateDecorator@@@@QAEXXZ ; CDynamicPoolEx<NEffectUpdateDecorator::CGravityDecorator>::Destroy

; 142  : 		}

  00037	8b 4d f0	 mov	 ecx, DWORD PTR _this$[ebp]
  0003a	83 c1 10	 add	 ecx, 16			; 00000010H
; File C:\Program Files (x86)\Microsoft Visual Studio\2019\Community\VC\Tools\MSVC\14.28.29333\include\vector

; 673  :         _Tidy();

  0003d	e8 00 00 00 00	 call	 ?_Tidy@?$vector@PAVCGravityDecorator@NEffectUpdateDecorator@@V?$allocator@PAVCGravityDecorator@NEffectUpdateDecorator@@@std@@@std@@AAEXXZ ; std::vector<NEffectUpdateDecorator::CGravityDecorator *,std::allocator<NEffectUpdateDecorator::CGravityDecorator *> >::_Tidy
; File D:\Metin2 Server Files\mainline\SRC_2014\Metin2Client\eterLib\Pool.h

; 142  : 		}

  00042	8b 4d f0	 mov	 ecx, DWORD PTR _this$[ebp]
  00045	83 c1 04	 add	 ecx, 4
; File C:\Program Files (x86)\Microsoft Visual Studio\2019\Community\VC\Tools\MSVC\14.28.29333\include\vector

; 673  :         _Tidy();

  00048	e8 00 00 00 00	 call	 ?_Tidy@?$vector@PAVCGravityDecorator@NEffectUpdateDecorator@@V?$allocator@PAVCGravityDecorator@NEffectUpdateDecorator@@@std@@@std@@AAEXXZ ; std::vector<NEffectUpdateDecorator::CGravityDecorator *,std::allocator<NEffectUpdateDecorator::CGravityDecorator *> >::_Tidy
; File D:\Metin2 Server Files\mainline\SRC_2014\Metin2Client\eterLib\Pool.h

; 142  : 		}

  0004d	8b 4d f4	 mov	 ecx, DWORD PTR __$EHRec$[ebp]
  00050	64 89 0d 00 00
	00 00		 mov	 DWORD PTR fs:0, ecx
  00057	59		 pop	 ecx
  00058	c9		 leave
  00059	c3		 ret	 0
  0005a	cc		 int	 3
  0005b	cc		 int	 3
  0005c	cc		 int	 3
  0005d	cc		 int	 3
  0005e	cc		 int	 3
_TEXT	ENDS
;	COMDAT text$x
text$x	SEGMENT
__ehhandler$??1?$CDynamicPoolEx@VCGravityDecorator@NEffectUpdateDecorator@@@@UAE@XZ:
  00000	90		 npad	 1
  00001	90		 npad	 1
  00002	8b 54 24 08	 mov	 edx, DWORD PTR [esp+8]
  00006	8d 42 0c	 lea	 eax, DWORD PTR [edx+12]
  00009	8b 4a f8	 mov	 ecx, DWORD PTR [edx-8]
  0000c	33 c8		 xor	 ecx, eax
  0000e	e8 00 00 00 00	 call	 @__security_check_cookie@4
  00013	b8 00 00 00 00	 mov	 eax, OFFSET __ehfuncinfo$??1?$CDynamicPoolEx@VCGravityDecorator@NEffectUpdateDecorator@@@@UAE@XZ
  00018	e9 00 00 00 00	 jmp	 ___CxxFrameHandler3
text$x	ENDS
??1?$CDynamicPoolEx@VCGravityDecorator@NEffectUpdateDecorator@@@@UAE@XZ ENDP ; CDynamicPoolEx<NEffectUpdateDecorator::CGravityDecorator>::~CDynamicPoolEx<NEffectUpdateDecorator::CGravityDecorator>
; Function compile flags: /Odspy
; File D:\Metin2 Server Files\mainline\SRC_2014\Metin2Client\eterLib\Pool.h
; File C:\Program Files (x86)\Microsoft Visual Studio\2019\Community\VC\Tools\MSVC\14.28.29333\include\vector
; File C:\Program Files (x86)\Microsoft Visual Studio\2019\Community\VC\Tools\MSVC\14.28.29333\include\xmemory
; File C:\Program Files (x86)\Microsoft Visual Studio\2019\Community\VC\Tools\MSVC\14.28.29333\include\vector
; File D:\Metin2 Server Files\mainline\SRC_2014\Metin2Client\eterLib\Pool.h
; File C:\Program Files (x86)\Microsoft Visual Studio\2019\Community\VC\Tools\MSVC\14.28.29333\include\vector
; File C:\Program Files (x86)\Microsoft Visual Studio\2019\Community\VC\Tools\MSVC\14.28.29333\include\xmemory
; File C:\Program Files (x86)\Microsoft Visual Studio\2019\Community\VC\Tools\MSVC\14.28.29333\include\vector
; File D:\Metin2 Server Files\mainline\SRC_2014\Metin2Client\eterLib\Pool.h
;	COMDAT ??0?$CDynamicPoolEx@VCGravityDecorator@NEffectUpdateDecorator@@@@QAE@XZ
_TEXT	SEGMENT
_this$ = -28						; size = 4
_this$ = -24						; size = 4
_this$ = -20						; size = 4
_this$ = -16						; size = 4
_this$1 = -12						; size = 4
_this$2 = -8						; size = 4
_this$ = -4						; size = 4
??0?$CDynamicPoolEx@VCGravityDecorator@NEffectUpdateDecorator@@@@QAE@XZ PROC ; CDynamicPoolEx<NEffectUpdateDecorator::CGravityDecorator>::CDynamicPoolEx<NEffectUpdateDecorator::CGravityDecorator>, COMDAT
; _this$ = ecx

; 126  : 		CDynamicPoolEx()

  00000	55		 push	 ebp
  00001	8b ec		 mov	 ebp, esp
  00003	83 ec 1c	 sub	 esp, 28			; 0000001cH
  00006	89 4d fc	 mov	 DWORD PTR _this$[ebp], ecx

; 127  : 		{

  00009	8b 45 fc	 mov	 eax, DWORD PTR _this$[ebp]
  0000c	c7 00 00 00 00
	00		 mov	 DWORD PTR [eax], OFFSET ??_7?$CDynamicPoolEx@VCGravityDecorator@NEffectUpdateDecorator@@@@6B@
  00012	8b 45 fc	 mov	 eax, DWORD PTR _this$[ebp]
  00015	83 c0 04	 add	 eax, 4
  00018	89 45 f0	 mov	 DWORD PTR _this$[ebp], eax
; File C:\Program Files (x86)\Microsoft Visual Studio\2019\Community\VC\Tools\MSVC\14.28.29333\include\vector

; 445  :     vector() noexcept(is_nothrow_default_constructible_v<_Alty>) : _Mypair(_Zero_then_variadic_args_t{}) {

  0001b	8b 45 f0	 mov	 eax, DWORD PTR _this$[ebp]
  0001e	89 45 ec	 mov	 DWORD PTR _this$[ebp], eax
; File C:\Program Files (x86)\Microsoft Visual Studio\2019\Community\VC\Tools\MSVC\14.28.29333\include\xmemory

; 1339 :         : _Ty1(), _Myval2(_STD forward<_Other2>(_Val2)...) {}

  00021	8b 45 ec	 mov	 eax, DWORD PTR _this$[ebp]
  00024	89 45 f8	 mov	 DWORD PTR _this$2[ebp], eax
; File C:\Program Files (x86)\Microsoft Visual Studio\2019\Community\VC\Tools\MSVC\14.28.29333\include\vector

; 375  :     _Vector_val() noexcept : _Myfirst(), _Mylast(), _Myend() {}

  00027	8b 45 f8	 mov	 eax, DWORD PTR _this$2[ebp]
  0002a	83 20 00	 and	 DWORD PTR [eax], 0
  0002d	8b 45 f8	 mov	 eax, DWORD PTR _this$2[ebp]
  00030	83 60 04 00	 and	 DWORD PTR [eax+4], 0
  00034	8b 45 f8	 mov	 eax, DWORD PTR _this$2[ebp]
  00037	83 60 08 00	 and	 DWORD PTR [eax+8], 0
; File D:\Metin2 Server Files\mainline\SRC_2014\Metin2Client\eterLib\Pool.h

; 127  : 		{

  0003b	8b 45 fc	 mov	 eax, DWORD PTR _this$[ebp]
  0003e	83 c0 10	 add	 eax, 16			; 00000010H
  00041	89 45 e8	 mov	 DWORD PTR _this$[ebp], eax
; File C:\Program Files (x86)\Microsoft Visual Studio\2019\Community\VC\Tools\MSVC\14.28.29333\include\vector

; 445  :     vector() noexcept(is_nothrow_default_constructible_v<_Alty>) : _Mypair(_Zero_then_variadic_args_t{}) {

  00044	8b 45 e8	 mov	 eax, DWORD PTR _this$[ebp]
  00047	89 45 e4	 mov	 DWORD PTR _this$[ebp], eax
; File C:\Program Files (x86)\Microsoft Visual Studio\2019\Community\VC\Tools\MSVC\14.28.29333\include\xmemory

; 1339 :         : _Ty1(), _Myval2(_STD forward<_Other2>(_Val2)...) {}

  0004a	8b 45 e4	 mov	 eax, DWORD PTR _this$[ebp]
  0004d	89 45 f4	 mov	 DWORD PTR _this$1[ebp], eax
; File C:\Program Files (x86)\Microsoft Visual Studio\2019\Community\VC\Tools\MSVC\14.28.29333\include\vector

; 375  :     _Vector_val() noexcept : _Myfirst(), _Mylast(), _Myend() {}

  00050	8b 45 f4	 mov	 eax, DWORD PTR _this$1[ebp]
  00053	83 20 00	 and	 DWORD PTR [eax], 0
  00056	8b 45 f4	 mov	 eax, DWORD PTR _this$1[ebp]
  00059	83 60 04 00	 and	 DWORD PTR [eax+4], 0
  0005d	8b 45 f4	 mov	 eax, DWORD PTR _this$1[ebp]
  00060	83 60 08 00	 and	 DWORD PTR [eax+8], 0
; File D:\Metin2 Server Files\mainline\SRC_2014\Metin2Client\eterLib\Pool.h

; 128  : 			m_uInitCapacity=0;

  00064	8b 45 fc	 mov	 eax, DWORD PTR _this$[ebp]
  00067	83 60 1c 00	 and	 DWORD PTR [eax+28], 0

; 129  : 			m_uUsedCapacity=0;

  0006b	8b 45 fc	 mov	 eax, DWORD PTR _this$[ebp]
  0006e	83 60 20 00	 and	 DWORD PTR [eax+32], 0

; 130  : 		}

  00072	8b 45 fc	 mov	 eax, DWORD PTR _this$[ebp]
  00075	c9		 leave
  00076	c3		 ret	 0
??0?$CDynamicPoolEx@VCGravityDecorator@NEffectUpdateDecorator@@@@QAE@XZ ENDP ; CDynamicPoolEx<NEffectUpdateDecorator::CGravityDecorator>::CDynamicPoolEx<NEffectUpdateDecorator::CGravityDecorator>
_TEXT	ENDS
; Function compile flags: /Odspy
;	COMDAT ??_G?$CDynamicPoolEx@VCRotationDecorator@NEffectUpdateDecorator@@@@UAEPAXI@Z
_TEXT	SEGMENT
_this$ = -4						; size = 4
___flags$ = 8						; size = 4
??_G?$CDynamicPoolEx@VCRotationDecorator@NEffectUpdateDecorator@@@@UAEPAXI@Z PROC ; CDynamicPoolEx<NEffectUpdateDecorator::CRotationDecorator>::`scalar deleting destructor', COMDAT
; _this$ = ecx
  00000	55		 push	 ebp
  00001	8b ec		 mov	 ebp, esp
  00003	51		 push	 ecx
  00004	89 4d fc	 mov	 DWORD PTR _this$[ebp], ecx
  00007	8b 4d fc	 mov	 ecx, DWORD PTR _this$[ebp]
  0000a	e8 00 00 00 00	 call	 ??1?$CDynamicPoolEx@VCRotationDecorator@NEffectUpdateDecorator@@@@UAE@XZ ; CDynamicPoolEx<NEffectUpdateDecorator::CRotationDecorator>::~CDynamicPoolEx<NEffectUpdateDecorator::CRotationDecorator>
  0000f	8b 45 08	 mov	 eax, DWORD PTR ___flags$[ebp]
  00012	83 e0 01	 and	 eax, 1
  00015	74 0c		 je	 SHORT $LN2@scalar
  00017	6a 24		 push	 36			; 00000024H
  00019	ff 75 fc	 push	 DWORD PTR _this$[ebp]
  0001c	e8 00 00 00 00	 call	 ??3@YAXPAXI@Z		; operator delete
  00021	59		 pop	 ecx
  00022	59		 pop	 ecx
$LN2@scalar:
  00023	8b 45 fc	 mov	 eax, DWORD PTR _this$[ebp]
  00026	c9		 leave
  00027	c2 04 00	 ret	 4
??_G?$CDynamicPoolEx@VCRotationDecorator@NEffectUpdateDecorator@@@@UAEPAXI@Z ENDP ; CDynamicPoolEx<NEffectUpdateDecorator::CRotationDecorator>::`scalar deleting destructor'
_TEXT	ENDS
; Function compile flags: /Odspy
; File C:\Program Files (x86)\Microsoft Visual Studio\2019\Community\VC\Tools\MSVC\14.28.29333\include\vector
; File C:\Program Files (x86)\Microsoft Visual Studio\2019\Community\VC\Tools\MSVC\14.28.29333\include\xmemory
; File C:\Program Files (x86)\Microsoft Visual Studio\2019\Community\VC\Tools\MSVC\14.28.29333\include\vector
; File C:\Program Files (x86)\Microsoft Visual Studio\2019\Community\VC\Tools\MSVC\14.28.29333\include\xmemory
; File C:\Program Files (x86)\Microsoft Visual Studio\2019\Community\VC\Tools\MSVC\14.28.29333\include\vector
; File C:\Program Files (x86)\Microsoft Visual Studio\2019\Community\VC\Tools\MSVC\14.28.29333\include\xmemory
; File C:\Program Files (x86)\Microsoft Visual Studio\2019\Community\VC\Tools\MSVC\14.28.29333\include\vector
;	COMDAT ?_Tidy@?$vector@PAVCRotationDecorator@NEffectUpdateDecorator@@V?$allocator@PAVCRotationDecorator@NEffectUpdateDecorator@@@std@@@std@@AAEXXZ
_TEXT	SEGMENT
$T1 = -52						; size = 4
__Ptr$ = -48						; size = 4
__Count$ = -44						; size = 4
$T2 = -40						; size = 4
__First$ = -36						; size = 4
__Last$ = -32						; size = 4
$T3 = -28						; size = 4
$T4 = -24						; size = 4
__Myend$ = -20						; size = 4
__Mylast$ = -16						; size = 4
_this$ = -12						; size = 4
__My_data$ = -8						; size = 4
__Myfirst$ = -4						; size = 4
?_Tidy@?$vector@PAVCRotationDecorator@NEffectUpdateDecorator@@V?$allocator@PAVCRotationDecorator@NEffectUpdateDecorator@@@std@@@std@@AAEXXZ PROC ; std::vector<NEffectUpdateDecorator::CRotationDecorator *,std::allocator<NEffectUpdateDecorator::CRotationDecorator *> >::_Tidy, COMDAT
; _this$ = ecx

; 1686 :     void _Tidy() noexcept { // free all storage

  00000	55		 push	 ebp
  00001	8b ec		 mov	 ebp, esp
  00003	83 ec 34	 sub	 esp, 52			; 00000034H
  00006	89 4d f4	 mov	 DWORD PTR _this$[ebp], ecx

; 1687 :         auto& _My_data    = _Mypair._Myval2;

  00009	8b 45 f4	 mov	 eax, DWORD PTR _this$[ebp]
  0000c	89 45 f8	 mov	 DWORD PTR __My_data$[ebp], eax

; 1688 :         pointer& _Myfirst = _My_data._Myfirst;

  0000f	8b 45 f8	 mov	 eax, DWORD PTR __My_data$[ebp]
  00012	89 45 fc	 mov	 DWORD PTR __Myfirst$[ebp], eax

; 1689 :         pointer& _Mylast  = _My_data._Mylast;

  00015	8b 45 f8	 mov	 eax, DWORD PTR __My_data$[ebp]
  00018	83 c0 04	 add	 eax, 4
  0001b	89 45 f0	 mov	 DWORD PTR __Mylast$[ebp], eax

; 1690 :         pointer& _Myend   = _My_data._Myend;

  0001e	8b 45 f8	 mov	 eax, DWORD PTR __My_data$[ebp]
  00021	83 c0 08	 add	 eax, 8
  00024	89 45 ec	 mov	 DWORD PTR __Myend$[ebp], eax

; 1691 : 
; 1692 :         _My_data._Orphan_all();
; 1693 : 
; 1694 :         if (_Myfirst) { // destroy and deallocate old array

  00027	8b 45 fc	 mov	 eax, DWORD PTR __Myfirst$[ebp]
  0002a	83 38 00	 cmp	 DWORD PTR [eax], 0
  0002d	74 74		 je	 SHORT $LN3@Tidy

; 1695 :             _Destroy(_Myfirst, _Mylast);

  0002f	8b 45 f0	 mov	 eax, DWORD PTR __Mylast$[ebp]
  00032	8b 00		 mov	 eax, DWORD PTR [eax]
  00034	89 45 e0	 mov	 DWORD PTR __Last$[ebp], eax
  00037	8b 45 fc	 mov	 eax, DWORD PTR __Myfirst$[ebp]
  0003a	8b 00		 mov	 eax, DWORD PTR [eax]
  0003c	89 45 dc	 mov	 DWORD PTR __First$[ebp], eax

; 1733 :         return _Mypair._Get_first();

  0003f	8b 45 f4	 mov	 eax, DWORD PTR _this$[ebp]
; File C:\Program Files (x86)\Microsoft Visual Studio\2019\Community\VC\Tools\MSVC\14.28.29333\include\xmemory

; 1347 :         return *this;

  00042	89 45 e8	 mov	 DWORD PTR $T4[ebp], eax
; File C:\Program Files (x86)\Microsoft Visual Studio\2019\Community\VC\Tools\MSVC\14.28.29333\include\vector

; 1733 :         return _Mypair._Get_first();

  00045	8b 45 e8	 mov	 eax, DWORD PTR $T4[ebp]
  00048	89 45 e4	 mov	 DWORD PTR $T3[ebp], eax

; 1612 :         _Destroy_range(_First, _Last, _Getal());

  0004b	ff 75 e4	 push	 DWORD PTR $T3[ebp]
  0004e	ff 75 e0	 push	 DWORD PTR __Last$[ebp]
  00051	ff 75 dc	 push	 DWORD PTR __First$[ebp]
  00054	e8 00 00 00 00	 call	 ??$_Destroy_range@V?$allocator@PAVCRotationDecorator@NEffectUpdateDecorator@@@std@@@std@@YAXPAPAVCRotationDecorator@NEffectUpdateDecorator@@QAPAV12@AAV?$allocator@PAVCRotationDecorator@NEffectUpdateDecorator@@@0@@Z ; std::_Destroy_range<std::allocator<NEffectUpdateDecorator::CRotationDecorator *> >
  00059	83 c4 0c	 add	 esp, 12			; 0000000cH

; 1733 :         return _Mypair._Get_first();

  0005c	8b 45 f4	 mov	 eax, DWORD PTR _this$[ebp]
; File C:\Program Files (x86)\Microsoft Visual Studio\2019\Community\VC\Tools\MSVC\14.28.29333\include\xmemory

; 1347 :         return *this;

  0005f	89 45 d8	 mov	 DWORD PTR $T2[ebp], eax
; File C:\Program Files (x86)\Microsoft Visual Studio\2019\Community\VC\Tools\MSVC\14.28.29333\include\vector

; 1733 :         return _Mypair._Get_first();

  00062	8b 45 d8	 mov	 eax, DWORD PTR $T2[ebp]
  00065	89 45 cc	 mov	 DWORD PTR $T1[ebp], eax

; 1696 :             _Getal().deallocate(_Myfirst, static_cast<size_type>(_Myend - _Myfirst));

  00068	8b 45 ec	 mov	 eax, DWORD PTR __Myend$[ebp]
  0006b	8b 4d fc	 mov	 ecx, DWORD PTR __Myfirst$[ebp]
  0006e	8b 00		 mov	 eax, DWORD PTR [eax]
  00070	2b 01		 sub	 eax, DWORD PTR [ecx]
  00072	c1 f8 02	 sar	 eax, 2
  00075	89 45 d4	 mov	 DWORD PTR __Count$[ebp], eax
  00078	8b 45 fc	 mov	 eax, DWORD PTR __Myfirst$[ebp]
  0007b	8b 00		 mov	 eax, DWORD PTR [eax]
  0007d	89 45 d0	 mov	 DWORD PTR __Ptr$[ebp], eax
; File C:\Program Files (x86)\Microsoft Visual Studio\2019\Community\VC\Tools\MSVC\14.28.29333\include\xmemory

; 810  :         _Deallocate<_New_alignof<_Ty>>(_Ptr, sizeof(_Ty) * _Count);

  00080	8b 45 d4	 mov	 eax, DWORD PTR __Count$[ebp]
  00083	c1 e0 02	 shl	 eax, 2
  00086	50		 push	 eax
  00087	ff 75 d0	 push	 DWORD PTR __Ptr$[ebp]
  0008a	e8 00 00 00 00	 call	 ??$_Deallocate@$07$0A@@std@@YAXPAXI@Z ; std::_Deallocate<8,0>
  0008f	59		 pop	 ecx
  00090	59		 pop	 ecx
; File C:\Program Files (x86)\Microsoft Visual Studio\2019\Community\VC\Tools\MSVC\14.28.29333\include\vector

; 1698 :             _Myfirst = pointer();

  00091	8b 45 fc	 mov	 eax, DWORD PTR __Myfirst$[ebp]
  00094	83 20 00	 and	 DWORD PTR [eax], 0

; 1699 :             _Mylast  = pointer();

  00097	8b 45 f0	 mov	 eax, DWORD PTR __Mylast$[ebp]
  0009a	83 20 00	 and	 DWORD PTR [eax], 0

; 1700 :             _Myend   = pointer();

  0009d	8b 45 ec	 mov	 eax, DWORD PTR __Myend$[ebp]
  000a0	83 20 00	 and	 DWORD PTR [eax], 0
$LN3@Tidy:

; 1701 :         }
; 1702 :     }

  000a3	c9		 leave
  000a4	c3		 ret	 0
?_Tidy@?$vector@PAVCRotationDecorator@NEffectUpdateDecorator@@V?$allocator@PAVCRotationDecorator@NEffectUpdateDecorator@@@std@@@std@@AAEXXZ ENDP ; std::vector<NEffectUpdateDecorator::CRotationDecorator *,std::allocator<NEffectUpdateDecorator::CRotationDecorator *> >::_Tidy
_TEXT	ENDS
; Function compile flags: /Odspy
; File C:\Program Files (x86)\Microsoft Visual Studio\2019\Community\VC\Tools\MSVC\14.28.29333\include\vector
; File C:\Program Files (x86)\Microsoft Visual Studio\2019\Community\VC\Tools\MSVC\14.28.29333\include\xmemory
; File C:\Program Files (x86)\Microsoft Visual Studio\2019\Community\VC\Tools\MSVC\14.28.29333\include\vector
;	COMDAT ?clear@?$vector@PAVCRotationDecorator@NEffectUpdateDecorator@@V?$allocator@PAVCRotationDecorator@NEffectUpdateDecorator@@@std@@@std@@QAEXXZ
_TEXT	SEGMENT
__First$ = -32						; size = 4
__Last$ = -28						; size = 4
$T1 = -24						; size = 4
$T2 = -20						; size = 4
__Myfirst$ = -16					; size = 4
__Mylast$ = -12						; size = 4
_this$ = -8						; size = 4
__My_data$ = -4						; size = 4
?clear@?$vector@PAVCRotationDecorator@NEffectUpdateDecorator@@V?$allocator@PAVCRotationDecorator@NEffectUpdateDecorator@@@std@@@std@@QAEXXZ PROC ; std::vector<NEffectUpdateDecorator::CRotationDecorator *,std::allocator<NEffectUpdateDecorator::CRotationDecorator *> >::clear, COMDAT
; _this$ = ecx

; 1383 :     void clear() noexcept { // erase all

  00000	55		 push	 ebp
  00001	8b ec		 mov	 ebp, esp
  00003	83 ec 20	 sub	 esp, 32			; 00000020H
  00006	89 4d f8	 mov	 DWORD PTR _this$[ebp], ecx

; 1384 :         auto& _My_data    = _Mypair._Myval2;

  00009	8b 45 f8	 mov	 eax, DWORD PTR _this$[ebp]
  0000c	89 45 fc	 mov	 DWORD PTR __My_data$[ebp], eax

; 1385 :         pointer& _Myfirst = _My_data._Myfirst;

  0000f	8b 45 fc	 mov	 eax, DWORD PTR __My_data$[ebp]
  00012	89 45 f0	 mov	 DWORD PTR __Myfirst$[ebp], eax

; 1386 :         pointer& _Mylast  = _My_data._Mylast;

  00015	8b 45 fc	 mov	 eax, DWORD PTR __My_data$[ebp]
  00018	83 c0 04	 add	 eax, 4
  0001b	89 45 f4	 mov	 DWORD PTR __Mylast$[ebp], eax

; 1387 : 
; 1388 :         _My_data._Orphan_all();
; 1389 :         _Destroy(_Myfirst, _Mylast);

  0001e	8b 45 f4	 mov	 eax, DWORD PTR __Mylast$[ebp]
  00021	8b 00		 mov	 eax, DWORD PTR [eax]
  00023	89 45 e4	 mov	 DWORD PTR __Last$[ebp], eax
  00026	8b 45 f0	 mov	 eax, DWORD PTR __Myfirst$[ebp]
  00029	8b 00		 mov	 eax, DWORD PTR [eax]
  0002b	89 45 e0	 mov	 DWORD PTR __First$[ebp], eax

; 1733 :         return _Mypair._Get_first();

  0002e	8b 45 f8	 mov	 eax, DWORD PTR _this$[ebp]
; File C:\Program Files (x86)\Microsoft Visual Studio\2019\Community\VC\Tools\MSVC\14.28.29333\include\xmemory

; 1347 :         return *this;

  00031	89 45 ec	 mov	 DWORD PTR $T2[ebp], eax
; File C:\Program Files (x86)\Microsoft Visual Studio\2019\Community\VC\Tools\MSVC\14.28.29333\include\vector

; 1733 :         return _Mypair._Get_first();

  00034	8b 45 ec	 mov	 eax, DWORD PTR $T2[ebp]
  00037	89 45 e8	 mov	 DWORD PTR $T1[ebp], eax

; 1612 :         _Destroy_range(_First, _Last, _Getal());

  0003a	ff 75 e8	 push	 DWORD PTR $T1[ebp]
  0003d	ff 75 e4	 push	 DWORD PTR __Last$[ebp]
  00040	ff 75 e0	 push	 DWORD PTR __First$[ebp]
  00043	e8 00 00 00 00	 call	 ??$_Destroy_range@V?$allocator@PAVCRotationDecorator@NEffectUpdateDecorator@@@std@@@std@@YAXPAPAVCRotationDecorator@NEffectUpdateDecorator@@QAPAV12@AAV?$allocator@PAVCRotationDecorator@NEffectUpdateDecorator@@@0@@Z ; std::_Destroy_range<std::allocator<NEffectUpdateDecorator::CRotationDecorator *> >
  00048	83 c4 0c	 add	 esp, 12			; 0000000cH

; 1390 :         _Mylast = _Myfirst;

  0004b	8b 45 f4	 mov	 eax, DWORD PTR __Mylast$[ebp]
  0004e	8b 4d f0	 mov	 ecx, DWORD PTR __Myfirst$[ebp]
  00051	8b 09		 mov	 ecx, DWORD PTR [ecx]
  00053	89 08		 mov	 DWORD PTR [eax], ecx

; 1391 :     }

  00055	c9		 leave
  00056	c3		 ret	 0
?clear@?$vector@PAVCRotationDecorator@NEffectUpdateDecorator@@V?$allocator@PAVCRotationDecorator@NEffectUpdateDecorator@@@std@@@std@@QAEXXZ ENDP ; std::vector<NEffectUpdateDecorator::CRotationDecorator *,std::allocator<NEffectUpdateDecorator::CRotationDecorator *> >::clear
_TEXT	ENDS
; Function compile flags: /Odspy
; File D:\Metin2 Server Files\mainline\SRC_2014\Metin2Client\eterLib\Pool.h
;	COMDAT ?Delete@?$CDynamicPoolEx@VCRotationDecorator@NEffectUpdateDecorator@@@@KAXPAVCRotationDecorator@NEffectUpdateDecorator@@@Z
_TEXT	SEGMENT
_pkData$ = 8						; size = 4
?Delete@?$CDynamicPoolEx@VCRotationDecorator@NEffectUpdateDecorator@@@@KAXPAVCRotationDecorator@NEffectUpdateDecorator@@@Z PROC ; CDynamicPoolEx<NEffectUpdateDecorator::CRotationDecorator>::Delete, COMDAT

; 223  : 		{

  00000	55		 push	 ebp
  00001	8b ec		 mov	 ebp, esp

; 224  : 			::operator delete(pkData);

  00003	ff 75 08	 push	 DWORD PTR _pkData$[ebp]
  00006	e8 00 00 00 00	 call	 ??3@YAXPAX@Z		; operator delete
  0000b	59		 pop	 ecx

; 225  : 		}

  0000c	5d		 pop	 ebp
  0000d	c3		 ret	 0
?Delete@?$CDynamicPoolEx@VCRotationDecorator@NEffectUpdateDecorator@@@@KAXPAVCRotationDecorator@NEffectUpdateDecorator@@@Z ENDP ; CDynamicPoolEx<NEffectUpdateDecorator::CRotationDecorator>::Delete
_TEXT	ENDS
; Function compile flags: /Odspy
; File D:\Metin2 Server Files\mainline\SRC_2014\Metin2Client\eterLib\Pool.h
; File C:\Program Files (x86)\Microsoft Visual Studio\2019\Community\VC\Tools\MSVC\14.28.29333\include\vector
; File C:\Program Files (x86)\Microsoft Visual Studio\2019\Community\VC\Tools\MSVC\14.28.29333\include\xstddef
; File C:\Program Files (x86)\Microsoft Visual Studio\2019\Community\VC\Tools\MSVC\14.28.29333\include\vector
; File C:\Program Files (x86)\Microsoft Visual Studio\2019\Community\VC\Tools\MSVC\14.28.29333\include\xstddef
; File C:\Program Files (x86)\Microsoft Visual Studio\2019\Community\VC\Tools\MSVC\14.28.29333\include\vector
; File D:\Metin2 Server Files\mainline\SRC_2014\Metin2Client\eterLib\Pool.h
;	COMDAT ?Destroy@?$CDynamicPoolEx@VCRotationDecorator@NEffectUpdateDecorator@@@@QAEXXZ
_TEXT	SEGMENT
$T1 = -44						; size = 4
$T2 = -40						; size = 4
$T3 = -36						; size = 4
$T4 = -32						; size = 4
$T5 = -28						; size = 4
___param0$ = -24					; size = 4
$T6 = -20						; size = 4
___param0$ = -16					; size = 4
__My_data$7 = -12					; size = 4
__My_data$8 = -8					; size = 4
_this$ = -4						; size = 4
?Destroy@?$CDynamicPoolEx@VCRotationDecorator@NEffectUpdateDecorator@@@@QAEXXZ PROC ; CDynamicPoolEx<NEffectUpdateDecorator::CRotationDecorator>::Destroy, COMDAT
; _this$ = ecx

; 150  : 		{

  00000	55		 push	 ebp
  00001	8b ec		 mov	 ebp, esp
  00003	83 ec 2c	 sub	 esp, 44			; 0000002cH
  00006	89 4d fc	 mov	 DWORD PTR _this$[ebp], ecx
; File C:\Program Files (x86)\Microsoft Visual Studio\2019\Community\VC\Tools\MSVC\14.28.29333\include\vector

; 1420 :         auto& _My_data = _Mypair._Myval2;

  00009	8b 45 fc	 mov	 eax, DWORD PTR _this$[ebp]
  0000c	83 c0 04	 add	 eax, 4
  0000f	89 45 f8	 mov	 DWORD PTR __My_data$8[ebp], eax
; File C:\Program Files (x86)\Microsoft Visual Studio\2019\Community\VC\Tools\MSVC\14.28.29333\include\xstddef

; 275  :     return __builtin_addressof(_Val);

  00012	8b 45 f8	 mov	 eax, DWORD PTR __My_data$8[ebp]
  00015	89 45 d8	 mov	 DWORD PTR $T2[ebp], eax
; File C:\Program Files (x86)\Microsoft Visual Studio\2019\Community\VC\Tools\MSVC\14.28.29333\include\vector

; 1421 :         return iterator(_My_data._Mylast, _STD addressof(_My_data));

  00018	8b 45 f8	 mov	 eax, DWORD PTR __My_data$8[ebp]
  0001b	8b 40 04	 mov	 eax, DWORD PTR [eax+4]
  0001e	89 45 f0	 mov	 DWORD PTR ___param0$[ebp], eax

; 42   :     _Vector_const_iterator(_Tptr _Parg, const _Container_base* _Pvector) noexcept : _Ptr(_Parg) {

  00021	8b 45 f0	 mov	 eax, DWORD PTR ___param0$[ebp]
  00024	89 45 ec	 mov	 DWORD PTR $T6[ebp], eax

; 1421 :         return iterator(_My_data._Mylast, _STD addressof(_My_data));

  00027	8d 45 ec	 lea	 eax, DWORD PTR $T6[ebp]
  0002a	89 45 e0	 mov	 DWORD PTR $T4[ebp], eax

; 1410 :         auto& _My_data = _Mypair._Myval2;

  0002d	8b 45 fc	 mov	 eax, DWORD PTR _this$[ebp]
  00030	83 c0 04	 add	 eax, 4
  00033	89 45 f4	 mov	 DWORD PTR __My_data$7[ebp], eax
; File C:\Program Files (x86)\Microsoft Visual Studio\2019\Community\VC\Tools\MSVC\14.28.29333\include\xstddef

; 275  :     return __builtin_addressof(_Val);

  00036	8b 45 f4	 mov	 eax, DWORD PTR __My_data$7[ebp]
  00039	89 45 d4	 mov	 DWORD PTR $T1[ebp], eax
; File C:\Program Files (x86)\Microsoft Visual Studio\2019\Community\VC\Tools\MSVC\14.28.29333\include\vector

; 1411 :         return iterator(_My_data._Myfirst, _STD addressof(_My_data));

  0003c	8b 45 f4	 mov	 eax, DWORD PTR __My_data$7[ebp]
  0003f	8b 00		 mov	 eax, DWORD PTR [eax]
  00041	89 45 e8	 mov	 DWORD PTR ___param0$[ebp], eax

; 42   :     _Vector_const_iterator(_Tptr _Parg, const _Container_base* _Pvector) noexcept : _Ptr(_Parg) {

  00044	8b 45 e8	 mov	 eax, DWORD PTR ___param0$[ebp]
  00047	89 45 e4	 mov	 DWORD PTR $T5[ebp], eax

; 1411 :         return iterator(_My_data._Myfirst, _STD addressof(_My_data));

  0004a	8d 45 e4	 lea	 eax, DWORD PTR $T5[ebp]
  0004d	89 45 dc	 mov	 DWORD PTR $T3[ebp], eax
; File D:\Metin2 Server Files\mainline\SRC_2014\Metin2Client\eterLib\Pool.h

; 160  : 			std::for_each(m_kVct_pkData.begin(), m_kVct_pkData.end(), Delete);

  00050	68 00 00 00 00	 push	 OFFSET ?Delete@?$CDynamicPoolEx@VCRotationDecorator@NEffectUpdateDecorator@@@@KAXPAVCRotationDecorator@NEffectUpdateDecorator@@@Z ; CDynamicPoolEx<NEffectUpdateDecorator::CRotationDecorator>::Delete
  00055	8b 45 e0	 mov	 eax, DWORD PTR $T4[ebp]
  00058	ff 30		 push	 DWORD PTR [eax]
  0005a	8b 45 dc	 mov	 eax, DWORD PTR $T3[ebp]
  0005d	ff 30		 push	 DWORD PTR [eax]
  0005f	e8 00 00 00 00	 call	 ??$for_each@V?$_Vector_iterator@V?$_Vector_val@U?$_Simple_types@PAVCRotationDecorator@NEffectUpdateDecorator@@@std@@@std@@@std@@P6AXPAVCRotationDecorator@NEffectUpdateDecorator@@@Z@std@@YAP6AXPAVCRotationDecorator@NEffectUpdateDecorator@@@ZV?$_Vector_iterator@V?$_Vector_val@U?$_Simple_types@PAVCRotationDecorator@NEffectUpdateDecorator@@@std@@@std@@@0@1P6AX0@Z@Z ; std::for_each<std::_Vector_iterator<std::_Vector_val<std::_Simple_types<NEffectUpdateDecorator::CRotationDecorator *> > >,void (__cdecl*)(NEffectUpdateDecorator::CRotationDecorator *)>
  00064	83 c4 0c	 add	 esp, 12			; 0000000cH

; 161  : 			m_kVct_pkData.clear();

  00067	8b 4d fc	 mov	 ecx, DWORD PTR _this$[ebp]
  0006a	83 c1 04	 add	 ecx, 4
  0006d	e8 00 00 00 00	 call	 ?clear@?$vector@PAVCRotationDecorator@NEffectUpdateDecorator@@V?$allocator@PAVCRotationDecorator@NEffectUpdateDecorator@@@std@@@std@@QAEXXZ ; std::vector<NEffectUpdateDecorator::CRotationDecorator *,std::allocator<NEffectUpdateDecorator::CRotationDecorator *> >::clear

; 162  : 			m_kVct_pkFree.clear();

  00072	8b 4d fc	 mov	 ecx, DWORD PTR _this$[ebp]
  00075	83 c1 10	 add	 ecx, 16			; 00000010H
  00078	e8 00 00 00 00	 call	 ?clear@?$vector@PAVCRotationDecorator@NEffectUpdateDecorator@@V?$allocator@PAVCRotationDecorator@NEffectUpdateDecorator@@@std@@@std@@QAEXXZ ; std::vector<NEffectUpdateDecorator::CRotationDecorator *,std::allocator<NEffectUpdateDecorator::CRotationDecorator *> >::clear

; 163  : 		}

  0007d	c9		 leave
  0007e	c3		 ret	 0
?Destroy@?$CDynamicPoolEx@VCRotationDecorator@NEffectUpdateDecorator@@@@QAEXXZ ENDP ; CDynamicPoolEx<NEffectUpdateDecorator::CRotationDecorator>::Destroy
_TEXT	ENDS
; Function compile flags: /Odspy
; File D:\Metin2 Server Files\mainline\SRC_2014\Metin2Client\eterLib\Pool.h
; File C:\Program Files (x86)\Microsoft Visual Studio\2019\Community\VC\Tools\MSVC\14.28.29333\include\vector
; File D:\Metin2 Server Files\mainline\SRC_2014\Metin2Client\eterLib\Pool.h
; File C:\Program Files (x86)\Microsoft Visual Studio\2019\Community\VC\Tools\MSVC\14.28.29333\include\vector
; File D:\Metin2 Server Files\mainline\SRC_2014\Metin2Client\eterLib\Pool.h
;	COMDAT ??1?$CDynamicPoolEx@VCRotationDecorator@NEffectUpdateDecorator@@@@UAE@XZ
_TEXT	SEGMENT
_this$ = -16						; size = 4
__$EHRec$ = -12						; size = 12
??1?$CDynamicPoolEx@VCRotationDecorator@NEffectUpdateDecorator@@@@UAE@XZ PROC ; CDynamicPoolEx<NEffectUpdateDecorator::CRotationDecorator>::~CDynamicPoolEx<NEffectUpdateDecorator::CRotationDecorator>, COMDAT
; _this$ = ecx

; 132  : 		{

  00000	55		 push	 ebp
  00001	8b ec		 mov	 ebp, esp
  00003	6a ff		 push	 -1
  00005	68 00 00 00 00	 push	 __ehhandler$??1?$CDynamicPoolEx@VCRotationDecorator@NEffectUpdateDecorator@@@@UAE@XZ
  0000a	64 a1 00 00 00
	00		 mov	 eax, DWORD PTR fs:0
  00010	50		 push	 eax
  00011	51		 push	 ecx
  00012	a1 00 00 00 00	 mov	 eax, DWORD PTR ___security_cookie
  00017	33 c5		 xor	 eax, ebp
  00019	50		 push	 eax
  0001a	8d 45 f4	 lea	 eax, DWORD PTR __$EHRec$[ebp]
  0001d	64 a3 00 00 00
	00		 mov	 DWORD PTR fs:0, eax
  00023	89 4d f0	 mov	 DWORD PTR _this$[ebp], ecx
  00026	8b 45 f0	 mov	 eax, DWORD PTR _this$[ebp]
  00029	c7 00 00 00 00
	00		 mov	 DWORD PTR [eax], OFFSET ??_7?$CDynamicPoolEx@VCRotationDecorator@NEffectUpdateDecorator@@@@6B@

; 133  : 			assert(m_kVct_pkFree.size()==m_kVct_pkData.size());
; 134  : 			Destroy();

  0002f	8b 4d f0	 mov	 ecx, DWORD PTR _this$[ebp]
  00032	e8 00 00 00 00	 call	 ?Destroy@?$CDynamicPoolEx@VCRotationDecorator@NEffectUpdateDecorator@@@@QAEXXZ ; CDynamicPoolEx<NEffectUpdateDecorator::CRotationDecorator>::Destroy

; 142  : 		}

  00037	8b 4d f0	 mov	 ecx, DWORD PTR _this$[ebp]
  0003a	83 c1 10	 add	 ecx, 16			; 00000010H
; File C:\Program Files (x86)\Microsoft Visual Studio\2019\Community\VC\Tools\MSVC\14.28.29333\include\vector

; 673  :         _Tidy();

  0003d	e8 00 00 00 00	 call	 ?_Tidy@?$vector@PAVCRotationDecorator@NEffectUpdateDecorator@@V?$allocator@PAVCRotationDecorator@NEffectUpdateDecorator@@@std@@@std@@AAEXXZ ; std::vector<NEffectUpdateDecorator::CRotationDecorator *,std::allocator<NEffectUpdateDecorator::CRotationDecorator *> >::_Tidy
; File D:\Metin2 Server Files\mainline\SRC_2014\Metin2Client\eterLib\Pool.h

; 142  : 		}

  00042	8b 4d f0	 mov	 ecx, DWORD PTR _this$[ebp]
  00045	83 c1 04	 add	 ecx, 4
; File C:\Program Files (x86)\Microsoft Visual Studio\2019\Community\VC\Tools\MSVC\14.28.29333\include\vector

; 673  :         _Tidy();

  00048	e8 00 00 00 00	 call	 ?_Tidy@?$vector@PAVCRotationDecorator@NEffectUpdateDecorator@@V?$allocator@PAVCRotationDecorator@NEffectUpdateDecorator@@@std@@@std@@AAEXXZ ; std::vector<NEffectUpdateDecorator::CRotationDecorator *,std::allocator<NEffectUpdateDecorator::CRotationDecorator *> >::_Tidy
; File D:\Metin2 Server Files\mainline\SRC_2014\Metin2Client\eterLib\Pool.h

; 142  : 		}

  0004d	8b 4d f4	 mov	 ecx, DWORD PTR __$EHRec$[ebp]
  00050	64 89 0d 00 00
	00 00		 mov	 DWORD PTR fs:0, ecx
  00057	59		 pop	 ecx
  00058	c9		 leave
  00059	c3		 ret	 0
  0005a	cc		 int	 3
  0005b	cc		 int	 3
  0005c	cc		 int	 3
  0005d	cc		 int	 3
  0005e	cc		 int	 3
_TEXT	ENDS
;	COMDAT text$x
text$x	SEGMENT
__ehhandler$??1?$CDynamicPoolEx@VCRotationDecorator@NEffectUpdateDecorator@@@@UAE@XZ:
  00000	90		 npad	 1
  00001	90		 npad	 1
  00002	8b 54 24 08	 mov	 edx, DWORD PTR [esp+8]
  00006	8d 42 0c	 lea	 eax, DWORD PTR [edx+12]
  00009	8b 4a f8	 mov	 ecx, DWORD PTR [edx-8]
  0000c	33 c8		 xor	 ecx, eax
  0000e	e8 00 00 00 00	 call	 @__security_check_cookie@4
  00013	b8 00 00 00 00	 mov	 eax, OFFSET __ehfuncinfo$??1?$CDynamicPoolEx@VCRotationDecorator@NEffectUpdateDecorator@@@@UAE@XZ
  00018	e9 00 00 00 00	 jmp	 ___CxxFrameHandler3
text$x	ENDS
??1?$CDynamicPoolEx@VCRotationDecorator@NEffectUpdateDecorator@@@@UAE@XZ ENDP ; CDynamicPoolEx<NEffectUpdateDecorator::CRotationDecorator>::~CDynamicPoolEx<NEffectUpdateDecorator::CRotationDecorator>
; Function compile flags: /Odspy
; File D:\Metin2 Server Files\mainline\SRC_2014\Metin2Client\eterLib\Pool.h
; File C:\Program Files (x86)\Microsoft Visual Studio\2019\Community\VC\Tools\MSVC\14.28.29333\include\vector
; File C:\Program Files (x86)\Microsoft Visual Studio\2019\Community\VC\Tools\MSVC\14.28.29333\include\xmemory
; File C:\Program Files (x86)\Microsoft Visual Studio\2019\Community\VC\Tools\MSVC\14.28.29333\include\vector
; File D:\Metin2 Server Files\mainline\SRC_2014\Metin2Client\eterLib\Pool.h
; File C:\Program Files (x86)\Microsoft Visual Studio\2019\Community\VC\Tools\MSVC\14.28.29333\include\vector
; File C:\Program Files (x86)\Microsoft Visual Studio\2019\Community\VC\Tools\MSVC\14.28.29333\include\xmemory
; File C:\Program Files (x86)\Microsoft Visual Studio\2019\Community\VC\Tools\MSVC\14.28.29333\include\vector
; File D:\Metin2 Server Files\mainline\SRC_2014\Metin2Client\eterLib\Pool.h
;	COMDAT ??0?$CDynamicPoolEx@VCRotationDecorator@NEffectUpdateDecorator@@@@QAE@XZ
_TEXT	SEGMENT
_this$ = -28						; size = 4
_this$ = -24						; size = 4
_this$ = -20						; size = 4
_this$ = -16						; size = 4
_this$1 = -12						; size = 4
_this$2 = -8						; size = 4
_this$ = -4						; size = 4
??0?$CDynamicPoolEx@VCRotationDecorator@NEffectUpdateDecorator@@@@QAE@XZ PROC ; CDynamicPoolEx<NEffectUpdateDecorator::CRotationDecorator>::CDynamicPoolEx<NEffectUpdateDecorator::CRotationDecorator>, COMDAT
; _this$ = ecx

; 126  : 		CDynamicPoolEx()

  00000	55		 push	 ebp
  00001	8b ec		 mov	 ebp, esp
  00003	83 ec 1c	 sub	 esp, 28			; 0000001cH
  00006	89 4d fc	 mov	 DWORD PTR _this$[ebp], ecx

; 127  : 		{

  00009	8b 45 fc	 mov	 eax, DWORD PTR _this$[ebp]
  0000c	c7 00 00 00 00
	00		 mov	 DWORD PTR [eax], OFFSET ??_7?$CDynamicPoolEx@VCRotationDecorator@NEffectUpdateDecorator@@@@6B@
  00012	8b 45 fc	 mov	 eax, DWORD PTR _this$[ebp]
  00015	83 c0 04	 add	 eax, 4
  00018	89 45 f0	 mov	 DWORD PTR _this$[ebp], eax
; File C:\Program Files (x86)\Microsoft Visual Studio\2019\Community\VC\Tools\MSVC\14.28.29333\include\vector

; 445  :     vector() noexcept(is_nothrow_default_constructible_v<_Alty>) : _Mypair(_Zero_then_variadic_args_t{}) {

  0001b	8b 45 f0	 mov	 eax, DWORD PTR _this$[ebp]
  0001e	89 45 ec	 mov	 DWORD PTR _this$[ebp], eax
; File C:\Program Files (x86)\Microsoft Visual Studio\2019\Community\VC\Tools\MSVC\14.28.29333\include\xmemory

; 1339 :         : _Ty1(), _Myval2(_STD forward<_Other2>(_Val2)...) {}

  00021	8b 45 ec	 mov	 eax, DWORD PTR _this$[ebp]
  00024	89 45 f8	 mov	 DWORD PTR _this$2[ebp], eax
; File C:\Program Files (x86)\Microsoft Visual Studio\2019\Community\VC\Tools\MSVC\14.28.29333\include\vector

; 375  :     _Vector_val() noexcept : _Myfirst(), _Mylast(), _Myend() {}

  00027	8b 45 f8	 mov	 eax, DWORD PTR _this$2[ebp]
  0002a	83 20 00	 and	 DWORD PTR [eax], 0
  0002d	8b 45 f8	 mov	 eax, DWORD PTR _this$2[ebp]
  00030	83 60 04 00	 and	 DWORD PTR [eax+4], 0
  00034	8b 45 f8	 mov	 eax, DWORD PTR _this$2[ebp]
  00037	83 60 08 00	 and	 DWORD PTR [eax+8], 0
; File D:\Metin2 Server Files\mainline\SRC_2014\Metin2Client\eterLib\Pool.h

; 127  : 		{

  0003b	8b 45 fc	 mov	 eax, DWORD PTR _this$[ebp]
  0003e	83 c0 10	 add	 eax, 16			; 00000010H
  00041	89 45 e8	 mov	 DWORD PTR _this$[ebp], eax
; File C:\Program Files (x86)\Microsoft Visual Studio\2019\Community\VC\Tools\MSVC\14.28.29333\include\vector

; 445  :     vector() noexcept(is_nothrow_default_constructible_v<_Alty>) : _Mypair(_Zero_then_variadic_args_t{}) {

  00044	8b 45 e8	 mov	 eax, DWORD PTR _this$[ebp]
  00047	89 45 e4	 mov	 DWORD PTR _this$[ebp], eax
; File C:\Program Files (x86)\Microsoft Visual Studio\2019\Community\VC\Tools\MSVC\14.28.29333\include\xmemory

; 1339 :         : _Ty1(), _Myval2(_STD forward<_Other2>(_Val2)...) {}

  0004a	8b 45 e4	 mov	 eax, DWORD PTR _this$[ebp]
  0004d	89 45 f4	 mov	 DWORD PTR _this$1[ebp], eax
; File C:\Program Files (x86)\Microsoft Visual Studio\2019\Community\VC\Tools\MSVC\14.28.29333\include\vector

; 375  :     _Vector_val() noexcept : _Myfirst(), _Mylast(), _Myend() {}

  00050	8b 45 f4	 mov	 eax, DWORD PTR _this$1[ebp]
  00053	83 20 00	 and	 DWORD PTR [eax], 0
  00056	8b 45 f4	 mov	 eax, DWORD PTR _this$1[ebp]
  00059	83 60 04 00	 and	 DWORD PTR [eax+4], 0
  0005d	8b 45 f4	 mov	 eax, DWORD PTR _this$1[ebp]
  00060	83 60 08 00	 and	 DWORD PTR [eax+8], 0
; File D:\Metin2 Server Files\mainline\SRC_2014\Metin2Client\eterLib\Pool.h

; 128  : 			m_uInitCapacity=0;

  00064	8b 45 fc	 mov	 eax, DWORD PTR _this$[ebp]
  00067	83 60 1c 00	 and	 DWORD PTR [eax+28], 0

; 129  : 			m_uUsedCapacity=0;

  0006b	8b 45 fc	 mov	 eax, DWORD PTR _this$[ebp]
  0006e	83 60 20 00	 and	 DWORD PTR [eax+32], 0

; 130  : 		}

  00072	8b 45 fc	 mov	 eax, DWORD PTR _this$[ebp]
  00075	c9		 leave
  00076	c3		 ret	 0
??0?$CDynamicPoolEx@VCRotationDecorator@NEffectUpdateDecorator@@@@QAE@XZ ENDP ; CDynamicPoolEx<NEffectUpdateDecorator::CRotationDecorator>::CDynamicPoolEx<NEffectUpdateDecorator::CRotationDecorator>
_TEXT	ENDS
; Function compile flags: /Odspy
; File C:\Program Files (x86)\Microsoft Visual Studio\2019\Community\VC\Tools\MSVC\14.28.29333\include\vector
; File C:\Program Files (x86)\Microsoft Visual Studio\2019\Community\VC\Tools\MSVC\14.28.29333\include\xmemory
; File C:\Program Files (x86)\Microsoft Visual Studio\2019\Community\VC\Tools\MSVC\14.28.29333\include\vector
; File C:\Program Files (x86)\Microsoft Visual Studio\2019\Community\VC\Tools\MSVC\14.28.29333\include\xmemory
; File C:\Program Files (x86)\Microsoft Visual Studio\2019\Community\VC\Tools\MSVC\14.28.29333\include\vector
; File C:\Program Files (x86)\Microsoft Visual Studio\2019\Community\VC\Tools\MSVC\14.28.29333\include\xmemory
; File C:\Program Files (x86)\Microsoft Visual Studio\2019\Community\VC\Tools\MSVC\14.28.29333\include\limits
; File C:\Program Files (x86)\Microsoft Visual Studio\2019\Community\VC\Tools\MSVC\14.28.29333\include\vector
; File C:\Program Files (x86)\Microsoft Visual Studio\2019\Community\VC\Tools\MSVC\14.28.29333\include\utility
; File C:\Program Files (x86)\Microsoft Visual Studio\2019\Community\VC\Tools\MSVC\14.28.29333\include\vector
; File C:\Program Files (x86)\Microsoft Visual Studio\2019\Community\VC\Tools\MSVC\14.28.29333\include\xmemory
; File C:\Program Files (x86)\Microsoft Visual Studio\2019\Community\VC\Tools\MSVC\14.28.29333\include\vector
; File C:\Program Files (x86)\Microsoft Visual Studio\2019\Community\VC\Tools\MSVC\14.28.29333\include\type_traits
; File C:\Program Files (x86)\Microsoft Visual Studio\2019\Community\VC\Tools\MSVC\14.28.29333\include\vector
; File C:\Program Files (x86)\Microsoft Visual Studio\2019\Community\VC\Tools\MSVC\14.28.29333\include\xstddef
; File C:\Program Files (x86)\Microsoft Visual Studio\2019\Community\VC\Tools\MSVC\14.28.29333\include\vcruntime_new.h
; File C:\Program Files (x86)\Microsoft Visual Studio\2019\Community\VC\Tools\MSVC\14.28.29333\include\type_traits
; File C:\Program Files (x86)\Microsoft Visual Studio\2019\Community\VC\Tools\MSVC\14.28.29333\include\xmemory
; File C:\Program Files (x86)\Microsoft Visual Studio\2019\Community\VC\Tools\MSVC\14.28.29333\include\vector
; File C:\Program Files (x86)\Microsoft Visual Studio\2019\Community\VC\Tools\MSVC\14.28.29333\include\xmemory
; File C:\Program Files (x86)\Microsoft Visual Studio\2019\Community\VC\Tools\MSVC\14.28.29333\include\vector
; File C:\Program Files (x86)\Microsoft Visual Studio\2019\Community\VC\Tools\MSVC\14.28.29333\include\xmemory
; File C:\Program Files (x86)\Microsoft Visual Studio\2019\Community\VC\Tools\MSVC\14.28.29333\include\vector
; File C:\Program Files (x86)\Microsoft Visual Studio\2019\Community\VC\Tools\MSVC\14.28.29333\include\xmemory
; File C:\Program Files (x86)\Microsoft Visual Studio\2019\Community\VC\Tools\MSVC\14.28.29333\include\vector
;	COMDAT ??$_Emplace_reallocate@ABUTAttachEffectInstance@CFlyingInstance@@@?$vector@UTAttachEffectInstance@CFlyingInstance@@V?$allocator@UTAttachEffectInstance@CFlyingInstance@@@std@@@std@@QAEPAUTAttachEffectInstance@CFlyingInstance@@QAU23@ABU23@@Z
_TEXT	SEGMENT
__Max_possible$2 = -68					; size = 4
$T3 = -64						; size = 4
__Al$ = -60						; size = 4
__Last$ = -56						; size = 4
$T4 = -52						; size = 4
$T5 = -48						; size = 4
__First$ = -44						; size = 4
$T6 = -40						; size = 4
$T7 = -36						; size = 4
__First$ = -32						; size = 4
__Last$ = -28						; size = 4
$T8 = -24						; size = 4
$T9 = -20						; size = 4
__$EHRec$ = -16						; size = 16
$T10 = 0						; size = 4
$T11 = 4						; size = 4
$T12 = 8						; size = 4
$T13 = 12						; size = 4
$T14 = 16						; size = 4
$T15 = 20						; size = 4
$T16 = 24						; size = 4
$T17 = 28						; size = 4
$T18 = 32						; size = 4
$T19 = 36						; size = 4
$T20 = 40						; size = 4
__Newsize$ = 44						; size = 4
__Constructed_last$ = 48				; size = 4
__Oldsize$ = 52						; size = 4
tv172 = 56						; size = 4
$T21 = 60						; size = 4
$T22 = 64						; size = 4
__My_data$ = 68						; size = 4
__Constructed_first$ = 72				; size = 4
___formal$ = 76						; size = 1
__Overflow_is_possible$23 = 83				; size = 1
__Newcapacity$ = 84					; size = 4
__Mylast$ = 88						; size = 4
__Myfirst$ = 92						; size = 4
__Whereoff$ = 96					; size = 4
$T24 = 103						; size = 1
_this$ = 104						; size = 4
__Newvec$ = 108						; size = 4
__Whereptr$ = 120					; size = 4
_<_Val_0>$ = 124					; size = 4
??$_Emplace_reallocate@ABUTAttachEffectInstance@CFlyingInstance@@@?$vector@UTAttachEffectInstance@CFlyingInstance@@V?$allocator@UTAttachEffectInstance@CFlyingInstance@@@std@@@std@@QAEPAUTAttachEffectInstance@CFlyingInstance@@QAU23@ABU23@@Z PROC ; std::vector<CFlyingInstance::TAttachEffectInstance,std::allocator<CFlyingInstance::TAttachEffectInstance> >::_Emplace_reallocate<CFlyingInstance::TAttachEffectInstance const &>, COMDAT
; _this$ = ecx

; 725  :     pointer _Emplace_reallocate(const pointer _Whereptr, _Valty&&... _Val) {

  00000	55		 push	 ebp
  00001	8d 6c 24 90	 lea	 ebp, DWORD PTR [esp-112]
  00005	83 ec 70	 sub	 esp, 112		; 00000070H
  00008	6a ff		 push	 -1
  0000a	68 00 00 00 00	 push	 __ehhandler$??$_Emplace_reallocate@ABUTAttachEffectInstance@CFlyingInstance@@@?$vector@UTAttachEffectInstance@CFlyingInstance@@V?$allocator@UTAttachEffectInstance@CFlyingInstance@@@std@@@std@@QAEPAUTAttachEffectInstance@CFlyingInstance@@QAU23@ABU23@@Z
  0000f	64 a1 00 00 00
	00		 mov	 eax, DWORD PTR fs:0
  00015	50		 push	 eax
  00016	51		 push	 ecx
  00017	83 ec 34	 sub	 esp, 52			; 00000034H
  0001a	53		 push	 ebx
  0001b	56		 push	 esi
  0001c	57		 push	 edi
  0001d	a1 00 00 00 00	 mov	 eax, DWORD PTR ___security_cookie
  00022	33 c5		 xor	 eax, ebp
  00024	50		 push	 eax
  00025	8d 45 f4	 lea	 eax, DWORD PTR __$EHRec$[ebp+4]
  00028	64 a3 00 00 00
	00		 mov	 DWORD PTR fs:0, eax
  0002e	89 65 f0	 mov	 DWORD PTR __$EHRec$[ebp], esp
  00031	89 4d 68	 mov	 DWORD PTR _this$[ebp], ecx

; 1733 :         return _Mypair._Get_first();

  00034	8b 45 68	 mov	 eax, DWORD PTR _this$[ebp]
; File C:\Program Files (x86)\Microsoft Visual Studio\2019\Community\VC\Tools\MSVC\14.28.29333\include\xmemory

; 1347 :         return *this;

  00037	89 45 28	 mov	 DWORD PTR $T20[ebp], eax
; File C:\Program Files (x86)\Microsoft Visual Studio\2019\Community\VC\Tools\MSVC\14.28.29333\include\vector

; 1733 :         return _Mypair._Get_first();

  0003a	8b 45 28	 mov	 eax, DWORD PTR $T20[ebp]
  0003d	89 45 c4	 mov	 DWORD PTR __Al$[ebp], eax

; 726  :         // reallocate and insert by perfectly forwarding _Val at _Whereptr
; 727  :         _Alty& _Al        = _Getal();
; 728  :         auto& _My_data    = _Mypair._Myval2;

  00040	8b 45 68	 mov	 eax, DWORD PTR _this$[ebp]
  00043	89 45 44	 mov	 DWORD PTR __My_data$[ebp], eax

; 729  :         pointer& _Myfirst = _My_data._Myfirst;

  00046	8b 45 44	 mov	 eax, DWORD PTR __My_data$[ebp]
  00049	89 45 5c	 mov	 DWORD PTR __Myfirst$[ebp], eax

; 730  :         pointer& _Mylast  = _My_data._Mylast;

  0004c	8b 45 44	 mov	 eax, DWORD PTR __My_data$[ebp]
  0004f	83 c0 04	 add	 eax, 4
  00052	89 45 58	 mov	 DWORD PTR __Mylast$[ebp], eax

; 731  : 
; 732  :         _STL_INTERNAL_CHECK(_Mylast == _My_data._Myend); // check that we have no unused capacity
; 733  : 
; 734  :         const auto _Whereoff = static_cast<size_type>(_Whereptr - _Myfirst);

  00055	8b 45 5c	 mov	 eax, DWORD PTR __Myfirst$[ebp]
  00058	8b 4d 78	 mov	 ecx, DWORD PTR __Whereptr$[ebp]
  0005b	2b 08		 sub	 ecx, DWORD PTR [eax]
  0005d	8b c1		 mov	 eax, ecx
  0005f	99		 cdq
  00060	6a 0c		 push	 12			; 0000000cH
  00062	59		 pop	 ecx
  00063	f7 f9		 idiv	 ecx
  00065	89 45 60	 mov	 DWORD PTR __Whereoff$[ebp], eax

; 735  :         const auto _Oldsize  = static_cast<size_type>(_Mylast - _Myfirst);

  00068	8b 45 58	 mov	 eax, DWORD PTR __Mylast$[ebp]
  0006b	8b 4d 5c	 mov	 ecx, DWORD PTR __Myfirst$[ebp]
  0006e	8b 00		 mov	 eax, DWORD PTR [eax]
  00070	2b 01		 sub	 eax, DWORD PTR [ecx]
  00072	99		 cdq
  00073	6a 0c		 push	 12			; 0000000cH
  00075	59		 pop	 ecx
  00076	f7 f9		 idiv	 ecx
  00078	89 45 34	 mov	 DWORD PTR __Oldsize$[ebp], eax

; 1737 :         return _Mypair._Get_first();

  0007b	8b 45 68	 mov	 eax, DWORD PTR _this$[ebp]
; File C:\Program Files (x86)\Microsoft Visual Studio\2019\Community\VC\Tools\MSVC\14.28.29333\include\xmemory

; 1351 :         return *this;

  0007e	89 45 24	 mov	 DWORD PTR $T19[ebp], eax
; File C:\Program Files (x86)\Microsoft Visual Studio\2019\Community\VC\Tools\MSVC\14.28.29333\include\vector

; 1737 :         return _Mypair._Get_first();

  00081	8b 45 24	 mov	 eax, DWORD PTR $T19[ebp]
  00084	89 45 c0	 mov	 DWORD PTR $T3[ebp], eax
; File C:\Program Files (x86)\Microsoft Visual Studio\2019\Community\VC\Tools\MSVC\14.28.29333\include\xmemory

; 710  :         return static_cast<size_t>(-1) / sizeof(value_type);

  00087	c7 45 40 55 55
	55 15		 mov	 DWORD PTR $T22[ebp], 357913941 ; 15555555H
; File C:\Program Files (x86)\Microsoft Visual Studio\2019\Community\VC\Tools\MSVC\14.28.29333\include\limits

; 557  :         return INT_MAX;

  0008e	c7 45 20 ff ff
	ff 7f		 mov	 DWORD PTR $T18[ebp], 2147483647 ; 7fffffffH
; File C:\Program Files (x86)\Microsoft Visual Studio\2019\Community\VC\Tools\MSVC\14.28.29333\include\vector

; 1488 :         return (_STD min)(

  00095	8b 45 20	 mov	 eax, DWORD PTR $T18[ebp]
  00098	89 45 3c	 mov	 DWORD PTR $T21[ebp], eax
; File C:\Program Files (x86)\Microsoft Visual Studio\2019\Community\VC\Tools\MSVC\14.28.29333\include\utility

; 68   :     return _Right < _Left ? _Right : _Left;

  0009b	8b 45 40	 mov	 eax, DWORD PTR $T22[ebp]
  0009e	3b 45 3c	 cmp	 eax, DWORD PTR $T21[ebp]
  000a1	73 08		 jae	 SHORT $LN34@Emplace_re
  000a3	8d 45 40	 lea	 eax, DWORD PTR $T22[ebp]
  000a6	89 45 38	 mov	 DWORD PTR tv172[ebp], eax
  000a9	eb 06		 jmp	 SHORT $LN35@Emplace_re
$LN34@Emplace_re:
  000ab	8d 45 3c	 lea	 eax, DWORD PTR $T21[ebp]
  000ae	89 45 38	 mov	 DWORD PTR tv172[ebp], eax
$LN35@Emplace_re:
  000b1	8b 45 38	 mov	 eax, DWORD PTR tv172[ebp]
  000b4	89 45 1c	 mov	 DWORD PTR $T17[ebp], eax
  000b7	8b 45 1c	 mov	 eax, DWORD PTR $T17[ebp]
  000ba	89 45 18	 mov	 DWORD PTR $T16[ebp], eax
; File C:\Program Files (x86)\Microsoft Visual Studio\2019\Community\VC\Tools\MSVC\14.28.29333\include\vector

; 1488 :         return (_STD min)(

  000bd	8b 45 18	 mov	 eax, DWORD PTR $T16[ebp]
  000c0	8b 00		 mov	 eax, DWORD PTR [eax]
  000c2	89 45 14	 mov	 DWORD PTR $T15[ebp], eax

; 736  : 
; 737  :         if (_Oldsize == max_size()) {

  000c5	8b 45 34	 mov	 eax, DWORD PTR __Oldsize$[ebp]
  000c8	3b 45 14	 cmp	 eax, DWORD PTR $T15[ebp]
  000cb	75 05		 jne	 SHORT $LN2@Emplace_re

; 738  :             _Xlength();

  000cd	e8 00 00 00 00	 call	 ?_Xlength@?$vector@UTAttachEffectInstance@CFlyingInstance@@V?$allocator@UTAttachEffectInstance@CFlyingInstance@@@std@@@std@@CAXXZ ; std::vector<CFlyingInstance::TAttachEffectInstance,std::allocator<CFlyingInstance::TAttachEffectInstance> >::_Xlength
$LN2@Emplace_re:

; 739  :         }
; 740  : 
; 741  :         const size_type _Newsize     = _Oldsize + 1;

  000d2	8b 45 34	 mov	 eax, DWORD PTR __Oldsize$[ebp]
  000d5	40		 inc	 eax
  000d6	89 45 2c	 mov	 DWORD PTR __Newsize$[ebp], eax

; 742  :         const size_type _Newcapacity = _Calculate_growth(_Newsize);

  000d9	ff 75 2c	 push	 DWORD PTR __Newsize$[ebp]
  000dc	8b 4d 68	 mov	 ecx, DWORD PTR _this$[ebp]
  000df	e8 00 00 00 00	 call	 ?_Calculate_growth@?$vector@UTAttachEffectInstance@CFlyingInstance@@V?$allocator@UTAttachEffectInstance@CFlyingInstance@@@std@@@std@@ABEII@Z ; std::vector<CFlyingInstance::TAttachEffectInstance,std::allocator<CFlyingInstance::TAttachEffectInstance> >::_Calculate_growth
  000e4	89 45 54	 mov	 DWORD PTR __Newcapacity$[ebp], eax
; File C:\Program Files (x86)\Microsoft Visual Studio\2019\Community\VC\Tools\MSVC\14.28.29333\include\xmemory

; 56   :     constexpr bool _Overflow_is_possible = _Ty_size > 1;

  000e7	c6 45 53 01	 mov	 BYTE PTR __Overflow_is_possible$23[ebp], 1

; 57   : 
; 58   :     if _CONSTEXPR_IF (_Overflow_is_possible) {
; 59   :         constexpr size_t _Max_possible = static_cast<size_t>(-1) / _Ty_size;

  000eb	c7 45 bc 55 55
	55 15		 mov	 DWORD PTR __Max_possible$2[ebp], 357913941 ; 15555555H

; 60   :         if (_Count > _Max_possible) {

  000f2	81 7d 54 55 55
	55 15		 cmp	 DWORD PTR __Newcapacity$[ebp], 357913941 ; 15555555H
  000f9	76 05		 jbe	 SHORT $LN67@Emplace_re

; 61   :             _Throw_bad_array_new_length(); // multiply overflow

  000fb	e8 00 00 00 00	 call	 ?_Throw_bad_array_new_length@std@@YAXXZ ; std::_Throw_bad_array_new_length
$LN67@Emplace_re:

; 62   :         }
; 63   :     }
; 64   : 
; 65   :     return _Count * _Ty_size;

  00100	6b 45 54 0c	 imul	 eax, DWORD PTR __Newcapacity$[ebp], 12
  00104	89 45 10	 mov	 DWORD PTR $T14[ebp], eax

; 814  :         return static_cast<_Ty*>(_Allocate<_New_alignof<_Ty>>(_Get_size_of_n<sizeof(_Ty)>(_Count)));

  00107	ff 75 10	 push	 DWORD PTR $T14[ebp]
  0010a	e8 00 00 00 00	 call	 ??$_Allocate@$07U_Default_allocate_traits@std@@$0A@@std@@YAPAXI@Z ; std::_Allocate<8,std::_Default_allocate_traits,0>
  0010f	59		 pop	 ecx
  00110	89 45 6c	 mov	 DWORD PTR __Newvec$[ebp], eax
; File C:\Program Files (x86)\Microsoft Visual Studio\2019\Community\VC\Tools\MSVC\14.28.29333\include\vector

; 745  :         const pointer _Constructed_last = _Newvec + _Whereoff + 1;

  00113	6b 45 60 0c	 imul	 eax, DWORD PTR __Whereoff$[ebp], 12
  00117	8b 4d 6c	 mov	 ecx, DWORD PTR __Newvec$[ebp]
  0011a	8d 44 01 0c	 lea	 eax, DWORD PTR [ecx+eax+12]
  0011e	89 45 30	 mov	 DWORD PTR __Constructed_last$[ebp], eax

; 746  :         pointer _Constructed_first      = _Constructed_last;

  00121	8b 45 30	 mov	 eax, DWORD PTR __Constructed_last$[ebp]
  00124	89 45 48	 mov	 DWORD PTR __Constructed_first$[ebp], eax

; 747  : 
; 748  :         _TRY_BEGIN

  00127	83 65 fc 00	 and	 DWORD PTR __$EHRec$[ebp+12], 0
; File C:\Program Files (x86)\Microsoft Visual Studio\2019\Community\VC\Tools\MSVC\14.28.29333\include\type_traits

; 1443 :     return static_cast<_Ty&&>(_Arg);

  0012b	8b 45 7c	 mov	 eax, DWORD PTR _<_Val_0>$[ebp]
  0012e	89 45 08	 mov	 DWORD PTR $T12[ebp], eax
; File C:\Program Files (x86)\Microsoft Visual Studio\2019\Community\VC\Tools\MSVC\14.28.29333\include\vector

; 749  :         _Alty_traits::construct(_Al, _Unfancy(_Newvec + _Whereoff), _STD forward<_Valty>(_Val)...);

  00131	6b 45 60 0c	 imul	 eax, DWORD PTR __Whereoff$[ebp], 12
  00135	03 45 6c	 add	 eax, DWORD PTR __Newvec$[ebp]
; File C:\Program Files (x86)\Microsoft Visual Studio\2019\Community\VC\Tools\MSVC\14.28.29333\include\xstddef

; 289  :     return _Ptr;

  00138	89 45 0c	 mov	 DWORD PTR $T13[ebp], eax
; File C:\Program Files (x86)\Microsoft Visual Studio\2019\Community\VC\Tools\MSVC\14.28.29333\include\vcruntime_new.h

; 169  :         return _Where;

  0013b	8b 45 0c	 mov	 eax, DWORD PTR $T13[ebp]
  0013e	89 45 00	 mov	 DWORD PTR $T10[ebp], eax
; File C:\Program Files (x86)\Microsoft Visual Studio\2019\Community\VC\Tools\MSVC\14.28.29333\include\type_traits

; 1443 :     return static_cast<_Ty&&>(_Arg);

  00141	8b 45 08	 mov	 eax, DWORD PTR $T12[ebp]
  00144	89 45 04	 mov	 DWORD PTR $T11[ebp], eax
; File C:\Program Files (x86)\Microsoft Visual Studio\2019\Community\VC\Tools\MSVC\14.28.29333\include\xmemory

; 701  :         ::new (const_cast<void*>(static_cast<const volatile void*>(_Ptr))) _Objty(_STD forward<_Types>(_Args)...);

  00147	8b 75 04	 mov	 esi, DWORD PTR $T11[ebp]
  0014a	8b 7d 00	 mov	 edi, DWORD PTR $T10[ebp]
  0014d	a5		 movsd
  0014e	a5		 movsd
  0014f	a5		 movsd
; File C:\Program Files (x86)\Microsoft Visual Studio\2019\Community\VC\Tools\MSVC\14.28.29333\include\vector

; 750  :         _Constructed_first = _Newvec + _Whereoff;

  00150	6b 45 60 0c	 imul	 eax, DWORD PTR __Whereoff$[ebp], 12
  00154	03 45 6c	 add	 eax, DWORD PTR __Newvec$[ebp]
  00157	89 45 48	 mov	 DWORD PTR __Constructed_first$[ebp], eax

; 751  : 
; 752  :         if (_Whereptr == _Mylast) { // at back, provide strong guarantee

  0015a	8b 45 58	 mov	 eax, DWORD PTR __Mylast$[ebp]
  0015d	8b 4d 78	 mov	 ecx, DWORD PTR __Whereptr$[ebp]
  00160	3b 08		 cmp	 ecx, DWORD PTR [eax]
  00162	75 3d		 jne	 SHORT $LN4@Emplace_re

; 753  :             _Umove_if_noexcept(_Myfirst, _Mylast, _Newvec);

  00164	8b 45 58	 mov	 eax, DWORD PTR __Mylast$[ebp]
  00167	8b 00		 mov	 eax, DWORD PTR [eax]
  00169	89 45 e4	 mov	 DWORD PTR __Last$[ebp], eax
  0016c	8b 45 5c	 mov	 eax, DWORD PTR __Myfirst$[ebp]
  0016f	8b 00		 mov	 eax, DWORD PTR [eax]
  00171	89 45 e0	 mov	 DWORD PTR __First$[ebp], eax

; 1607 :         _Umove_if_noexcept1(_First, _Last, _Dest,

  00174	33 c0		 xor	 eax, eax
  00176	88 45 67	 mov	 BYTE PTR $T24[ebp], al
  00179	8a 45 67	 mov	 al, BYTE PTR $T24[ebp]
  0017c	88 45 4c	 mov	 BYTE PTR ___formal$[ebp], al

; 1733 :         return _Mypair._Get_first();

  0017f	8b 45 68	 mov	 eax, DWORD PTR _this$[ebp]
; File C:\Program Files (x86)\Microsoft Visual Studio\2019\Community\VC\Tools\MSVC\14.28.29333\include\xmemory

; 1347 :         return *this;

  00182	89 45 ec	 mov	 DWORD PTR $T9[ebp], eax
; File C:\Program Files (x86)\Microsoft Visual Studio\2019\Community\VC\Tools\MSVC\14.28.29333\include\vector

; 1733 :         return _Mypair._Get_first();

  00185	8b 45 ec	 mov	 eax, DWORD PTR $T9[ebp]
  00188	89 45 e8	 mov	 DWORD PTR $T8[ebp], eax

; 1597 :         _Uninitialized_move(_First, _Last, _Dest, _Getal());

  0018b	ff 75 e8	 push	 DWORD PTR $T8[ebp]
  0018e	ff 75 6c	 push	 DWORD PTR __Newvec$[ebp]
  00191	ff 75 e4	 push	 DWORD PTR __Last$[ebp]
  00194	ff 75 e0	 push	 DWORD PTR __First$[ebp]
  00197	e8 00 00 00 00	 call	 ??$_Uninitialized_move@PAUTAttachEffectInstance@CFlyingInstance@@V?$allocator@UTAttachEffectInstance@CFlyingInstance@@@std@@@std@@YAPAUTAttachEffectInstance@CFlyingInstance@@QAU12@0PAU12@AAV?$allocator@UTAttachEffectInstance@CFlyingInstance@@@0@@Z ; std::_Uninitialized_move<CFlyingInstance::TAttachEffectInstance *,std::allocator<CFlyingInstance::TAttachEffectInstance> >
  0019c	83 c4 10	 add	 esp, 16			; 00000010H

; 754  :         } else { // provide basic guarantee

  0019f	eb 5f		 jmp	 SHORT $LN5@Emplace_re
$LN4@Emplace_re:

; 755  :             _Umove(_Myfirst, _Whereptr, _Newvec);

  001a1	8b 45 5c	 mov	 eax, DWORD PTR __Myfirst$[ebp]
  001a4	8b 00		 mov	 eax, DWORD PTR [eax]
  001a6	89 45 d4	 mov	 DWORD PTR __First$[ebp], eax

; 1733 :         return _Mypair._Get_first();

  001a9	8b 45 68	 mov	 eax, DWORD PTR _this$[ebp]
; File C:\Program Files (x86)\Microsoft Visual Studio\2019\Community\VC\Tools\MSVC\14.28.29333\include\xmemory

; 1347 :         return *this;

  001ac	89 45 dc	 mov	 DWORD PTR $T7[ebp], eax
; File C:\Program Files (x86)\Microsoft Visual Studio\2019\Community\VC\Tools\MSVC\14.28.29333\include\vector

; 1733 :         return _Mypair._Get_first();

  001af	8b 45 dc	 mov	 eax, DWORD PTR $T7[ebp]
  001b2	89 45 d8	 mov	 DWORD PTR $T6[ebp], eax

; 1592 :         return _Uninitialized_move(_First, _Last, _Dest, _Getal());

  001b5	ff 75 d8	 push	 DWORD PTR $T6[ebp]
  001b8	ff 75 6c	 push	 DWORD PTR __Newvec$[ebp]
  001bb	ff 75 78	 push	 DWORD PTR __Whereptr$[ebp]
  001be	ff 75 d4	 push	 DWORD PTR __First$[ebp]
  001c1	e8 00 00 00 00	 call	 ??$_Uninitialized_move@PAUTAttachEffectInstance@CFlyingInstance@@V?$allocator@UTAttachEffectInstance@CFlyingInstance@@@std@@@std@@YAPAUTAttachEffectInstance@CFlyingInstance@@QAU12@0PAU12@AAV?$allocator@UTAttachEffectInstance@CFlyingInstance@@@0@@Z ; std::_Uninitialized_move<CFlyingInstance::TAttachEffectInstance *,std::allocator<CFlyingInstance::TAttachEffectInstance> >
  001c6	83 c4 10	 add	 esp, 16			; 00000010H

; 756  :             _Constructed_first = _Newvec;

  001c9	8b 45 6c	 mov	 eax, DWORD PTR __Newvec$[ebp]
  001cc	89 45 48	 mov	 DWORD PTR __Constructed_first$[ebp], eax

; 757  :             _Umove(_Whereptr, _Mylast, _Newvec + _Whereoff + 1);

  001cf	8b 45 58	 mov	 eax, DWORD PTR __Mylast$[ebp]
  001d2	8b 00		 mov	 eax, DWORD PTR [eax]
  001d4	89 45 c8	 mov	 DWORD PTR __Last$[ebp], eax

; 1733 :         return _Mypair._Get_first();

  001d7	8b 45 68	 mov	 eax, DWORD PTR _this$[ebp]
; File C:\Program Files (x86)\Microsoft Visual Studio\2019\Community\VC\Tools\MSVC\14.28.29333\include\xmemory

; 1347 :         return *this;

  001da	89 45 d0	 mov	 DWORD PTR $T5[ebp], eax
; File C:\Program Files (x86)\Microsoft Visual Studio\2019\Community\VC\Tools\MSVC\14.28.29333\include\vector

; 1733 :         return _Mypair._Get_first();

  001dd	8b 45 d0	 mov	 eax, DWORD PTR $T5[ebp]
  001e0	89 45 cc	 mov	 DWORD PTR $T4[ebp], eax

; 1592 :         return _Uninitialized_move(_First, _Last, _Dest, _Getal());

  001e3	ff 75 cc	 push	 DWORD PTR $T4[ebp]

; 757  :             _Umove(_Whereptr, _Mylast, _Newvec + _Whereoff + 1);

  001e6	6b 45 60 0c	 imul	 eax, DWORD PTR __Whereoff$[ebp], 12
  001ea	8b 4d 6c	 mov	 ecx, DWORD PTR __Newvec$[ebp]
  001ed	8d 44 01 0c	 lea	 eax, DWORD PTR [ecx+eax+12]

; 1592 :         return _Uninitialized_move(_First, _Last, _Dest, _Getal());

  001f1	50		 push	 eax
  001f2	ff 75 c8	 push	 DWORD PTR __Last$[ebp]
  001f5	ff 75 78	 push	 DWORD PTR __Whereptr$[ebp]
  001f8	e8 00 00 00 00	 call	 ??$_Uninitialized_move@PAUTAttachEffectInstance@CFlyingInstance@@V?$allocator@UTAttachEffectInstance@CFlyingInstance@@@std@@@std@@YAPAUTAttachEffectInstance@CFlyingInstance@@QAU12@0PAU12@AAV?$allocator@UTAttachEffectInstance@CFlyingInstance@@@0@@Z ; std::_Uninitialized_move<CFlyingInstance::TAttachEffectInstance *,std::allocator<CFlyingInstance::TAttachEffectInstance> >
  001fd	83 c4 10	 add	 esp, 16			; 00000010H
$LN5@Emplace_re:

; 757  :             _Umove(_Whereptr, _Mylast, _Newvec + _Whereoff + 1);

  00200	eb 2b		 jmp	 SHORT $LN7@Emplace_re
__catch$??$_Emplace_reallocate@ABUTAttachEffectInstance@CFlyingInstance@@@?$vector@UTAttachEffectInstance@CFlyingInstance@@V?$allocator@UTAttachEffectInstance@CFlyingInstance@@@std@@@std@@QAEPAUTAttachEffectInstance@CFlyingInstance@@QAU23@ABU23@@Z$0:

; 758  :         }
; 759  :         _CATCH_ALL
; 760  :         _Destroy(_Constructed_first, _Constructed_last);

  00202	ff 75 30	 push	 DWORD PTR __Constructed_last$[ebp]
  00205	ff 75 48	 push	 DWORD PTR __Constructed_first$[ebp]
  00208	8b 4d 68	 mov	 ecx, DWORD PTR _this$[ebp]
  0020b	e8 00 00 00 00	 call	 ?_Destroy@?$vector@UTAttachEffectInstance@CFlyingInstance@@V?$allocator@UTAttachEffectInstance@CFlyingInstance@@@std@@@std@@AAEXPAUTAttachEffectInstance@CFlyingInstance@@0@Z ; std::vector<CFlyingInstance::TAttachEffectInstance,std::allocator<CFlyingInstance::TAttachEffectInstance> >::_Destroy

; 761  :         _Al.deallocate(_Newvec, _Newcapacity);

  00210	ff 75 54	 push	 DWORD PTR __Newcapacity$[ebp]
  00213	ff 75 6c	 push	 DWORD PTR __Newvec$[ebp]
  00216	8b 4d c4	 mov	 ecx, DWORD PTR __Al$[ebp]
  00219	e8 00 00 00 00	 call	 ?deallocate@?$allocator@UTAttachEffectInstance@CFlyingInstance@@@std@@QAEXQAUTAttachEffectInstance@CFlyingInstance@@I@Z ; std::allocator<CFlyingInstance::TAttachEffectInstance>::deallocate

; 762  :         _RERAISE;

  0021e	6a 00		 push	 0
  00220	6a 00		 push	 0
  00222	e8 00 00 00 00	 call	 __CxxThrowException@8

; 763  :         _CATCH_END

  00227	b8 00 00 00 00	 mov	 eax, $LN10@Emplace_re
  0022c	c3		 ret	 0
$LN7@Emplace_re:
  0022d	83 4d fc ff	 or	 DWORD PTR __$EHRec$[ebp+12], -1
  00231	eb 04		 jmp	 SHORT __tryend$??$_Emplace_reallocate@ABUTAttachEffectInstance@CFlyingInstance@@@?$vector@UTAttachEffectInstance@CFlyingInstance@@V?$allocator@UTAttachEffectInstance@CFlyingInstance@@@std@@@std@@QAEPAUTAttachEffectInstance@CFlyingInstance@@QAU23@ABU23@@Z$1
$LN10@Emplace_re:
; File C:\Program Files (x86)\Microsoft Visual Studio\2019\Community\VC\Tools\MSVC\14.28.29333\include\xmemory
  00233	83 4d fc ff	 or	 DWORD PTR __$EHRec$[ebp+12], -1
__tryend$??$_Emplace_reallocate@ABUTAttachEffectInstance@CFlyingInstance@@@?$vector@UTAttachEffectInstance@CFlyingInstance@@V?$allocator@UTAttachEffectInstance@CFlyingInstance@@@std@@@std@@QAEPAUTAttachEffectInstance@CFlyingInstance@@QAU23@ABU23@@Z$1:
; File C:\Program Files (x86)\Microsoft Visual Studio\2019\Community\VC\Tools\MSVC\14.28.29333\include\vector

; 764  : 
; 765  :         _Change_array(_Newvec, _Newsize, _Newcapacity);

  00237	ff 75 54	 push	 DWORD PTR __Newcapacity$[ebp]
  0023a	ff 75 2c	 push	 DWORD PTR __Newsize$[ebp]
  0023d	ff 75 6c	 push	 DWORD PTR __Newvec$[ebp]
  00240	8b 4d 68	 mov	 ecx, DWORD PTR _this$[ebp]
  00243	e8 00 00 00 00	 call	 ?_Change_array@?$vector@UTAttachEffectInstance@CFlyingInstance@@V?$allocator@UTAttachEffectInstance@CFlyingInstance@@@std@@@std@@AAEXQAUTAttachEffectInstance@CFlyingInstance@@II@Z ; std::vector<CFlyingInstance::TAttachEffectInstance,std::allocator<CFlyingInstance::TAttachEffectInstance> >::_Change_array

; 766  :         return _Newvec + _Whereoff;

  00248	6b 45 60 0c	 imul	 eax, DWORD PTR __Whereoff$[ebp], 12
  0024c	03 45 6c	 add	 eax, DWORD PTR __Newvec$[ebp]
$LN70@Emplace_re:

; 767  :     }

  0024f	8b 4d f4	 mov	 ecx, DWORD PTR __$EHRec$[ebp+4]
  00252	64 89 0d 00 00
	00 00		 mov	 DWORD PTR fs:0, ecx
  00259	59		 pop	 ecx
  0025a	5f		 pop	 edi
  0025b	5e		 pop	 esi
  0025c	5b		 pop	 ebx
  0025d	83 c5 70	 add	 ebp, 112		; 00000070H
  00260	c9		 leave
  00261	c2 08 00	 ret	 8
  00264	cc		 int	 3
  00265	cc		 int	 3
  00266	cc		 int	 3
  00267	cc		 int	 3
  00268	cc		 int	 3
_TEXT	ENDS
;	COMDAT text$x
text$x	SEGMENT
__ehhandler$??$_Emplace_reallocate@ABUTAttachEffectInstance@CFlyingInstance@@@?$vector@UTAttachEffectInstance@CFlyingInstance@@V?$allocator@UTAttachEffectInstance@CFlyingInstance@@@std@@@std@@QAEPAUTAttachEffectInstance@CFlyingInstance@@QAU23@ABU23@@Z:
  00000	90		 npad	 1
  00001	90		 npad	 1
  00002	8b 54 24 08	 mov	 edx, DWORD PTR [esp+8]
  00006	8d 42 0c	 lea	 eax, DWORD PTR [edx+12]
  00009	8b 4a b8	 mov	 ecx, DWORD PTR [edx-72]
  0000c	33 c8		 xor	 ecx, eax
  0000e	e8 00 00 00 00	 call	 @__security_check_cookie@4
  00013	b8 00 00 00 00	 mov	 eax, OFFSET __ehfuncinfo$??$_Emplace_reallocate@ABUTAttachEffectInstance@CFlyingInstance@@@?$vector@UTAttachEffectInstance@CFlyingInstance@@V?$allocator@UTAttachEffectInstance@CFlyingInstance@@@std@@@std@@QAEPAUTAttachEffectInstance@CFlyingInstance@@QAU23@ABU23@@Z
  00018	e9 00 00 00 00	 jmp	 ___CxxFrameHandler3
text$x	ENDS
??$_Emplace_reallocate@ABUTAttachEffectInstance@CFlyingInstance@@@?$vector@UTAttachEffectInstance@CFlyingInstance@@V?$allocator@UTAttachEffectInstance@CFlyingInstance@@@std@@@std@@QAEPAUTAttachEffectInstance@CFlyingInstance@@QAU23@ABU23@@Z ENDP ; std::vector<CFlyingInstance::TAttachEffectInstance,std::allocator<CFlyingInstance::TAttachEffectInstance> >::_Emplace_reallocate<CFlyingInstance::TAttachEffectInstance const &>
; Function compile flags: /Odspy
; File C:\Program Files (x86)\Microsoft Visual Studio\2019\Community\VC\Tools\MSVC\14.28.29333\include\vector
; File C:\Program Files (x86)\Microsoft Visual Studio\2019\Community\VC\Tools\MSVC\14.28.29333\include\type_traits
; File C:\Program Files (x86)\Microsoft Visual Studio\2019\Community\VC\Tools\MSVC\14.28.29333\include\vector
; File C:\Program Files (x86)\Microsoft Visual Studio\2019\Community\VC\Tools\MSVC\14.28.29333\include\type_traits
; File C:\Program Files (x86)\Microsoft Visual Studio\2019\Community\VC\Tools\MSVC\14.28.29333\include\vector
; File C:\Program Files (x86)\Microsoft Visual Studio\2019\Community\VC\Tools\MSVC\14.28.29333\include\xstddef
; File C:\Program Files (x86)\Microsoft Visual Studio\2019\Community\VC\Tools\MSVC\14.28.29333\include\vector
; File C:\Program Files (x86)\Microsoft Visual Studio\2019\Community\VC\Tools\MSVC\14.28.29333\include\xmemory
; File C:\Program Files (x86)\Microsoft Visual Studio\2019\Community\VC\Tools\MSVC\14.28.29333\include\vector
; File C:\Program Files (x86)\Microsoft Visual Studio\2019\Community\VC\Tools\MSVC\14.28.29333\include\vcruntime_new.h
; File C:\Program Files (x86)\Microsoft Visual Studio\2019\Community\VC\Tools\MSVC\14.28.29333\include\type_traits
; File C:\Program Files (x86)\Microsoft Visual Studio\2019\Community\VC\Tools\MSVC\14.28.29333\include\xmemory
; File C:\Program Files (x86)\Microsoft Visual Studio\2019\Community\VC\Tools\MSVC\14.28.29333\include\vector
; File C:\Program Files (x86)\Microsoft Visual Studio\2019\Community\VC\Tools\MSVC\14.28.29333\include\type_traits
; File C:\Program Files (x86)\Microsoft Visual Studio\2019\Community\VC\Tools\MSVC\14.28.29333\include\vector
;	COMDAT ??$emplace_back@ABUTAttachEffectInstance@CFlyingInstance@@@?$vector@UTAttachEffectInstance@CFlyingInstance@@V?$allocator@UTAttachEffectInstance@CFlyingInstance@@@std@@@std@@QAEXABUTAttachEffectInstance@CFlyingInstance@@@Z
_TEXT	SEGMENT
__Result$ = -64						; size = 4
__Result$1 = -60					; size = 4
$T2 = -56						; size = 4
$T3 = -52						; size = 4
$T4 = -48						; size = 4
$T5 = -44						; size = 4
$T6 = -40						; size = 4
$T7 = -36						; size = 4
$T8 = -32						; size = 4
__Ptr$ = -28						; size = 4
$T9 = -24						; size = 4
__My_data$10 = -20					; size = 4
__Mylast$ = -16						; size = 4
__My_data$ = -12					; size = 4
_this$ = -8						; size = 4
__Mylast$11 = -4					; size = 4
_<_Val_0>$ = 8						; size = 4
??$emplace_back@ABUTAttachEffectInstance@CFlyingInstance@@@?$vector@UTAttachEffectInstance@CFlyingInstance@@V?$allocator@UTAttachEffectInstance@CFlyingInstance@@@std@@@std@@QAEXABUTAttachEffectInstance@CFlyingInstance@@@Z PROC ; std::vector<CFlyingInstance::TAttachEffectInstance,std::allocator<CFlyingInstance::TAttachEffectInstance> >::emplace_back<CFlyingInstance::TAttachEffectInstance const &>, COMDAT
; _this$ = ecx

; 700  :     decltype(auto) emplace_back(_Valty&&... _Val) {

  00000	55		 push	 ebp
  00001	8b ec		 mov	 ebp, esp
  00003	83 ec 40	 sub	 esp, 64			; 00000040H
  00006	56		 push	 esi
  00007	57		 push	 edi
  00008	89 4d f8	 mov	 DWORD PTR _this$[ebp], ecx

; 701  :         // insert by perfectly forwarding into element at end, provide strong guarantee
; 702  :         auto& _My_data   = _Mypair._Myval2;

  0000b	8b 45 f8	 mov	 eax, DWORD PTR _this$[ebp]
  0000e	89 45 f4	 mov	 DWORD PTR __My_data$[ebp], eax

; 703  :         pointer& _Mylast = _My_data._Mylast;

  00011	8b 45 f4	 mov	 eax, DWORD PTR __My_data$[ebp]
  00014	83 c0 04	 add	 eax, 4
  00017	89 45 f0	 mov	 DWORD PTR __Mylast$[ebp], eax

; 704  :         if (_Mylast != _My_data._Myend) {

  0001a	8b 45 f0	 mov	 eax, DWORD PTR __Mylast$[ebp]
  0001d	8b 4d f4	 mov	 ecx, DWORD PTR __My_data$[ebp]
  00020	8b 00		 mov	 eax, DWORD PTR [eax]
  00022	3b 41 08	 cmp	 eax, DWORD PTR [ecx+8]
  00025	74 61		 je	 SHORT $LN2@emplace_ba
; File C:\Program Files (x86)\Microsoft Visual Studio\2019\Community\VC\Tools\MSVC\14.28.29333\include\type_traits

; 1443 :     return static_cast<_Ty&&>(_Arg);

  00027	8b 45 08	 mov	 eax, DWORD PTR _<_Val_0>$[ebp]
  0002a	89 45 e8	 mov	 DWORD PTR $T9[ebp], eax
; File C:\Program Files (x86)\Microsoft Visual Studio\2019\Community\VC\Tools\MSVC\14.28.29333\include\vector

; 684  :         auto& _My_data   = _Mypair._Myval2;

  0002d	8b 45 f8	 mov	 eax, DWORD PTR _this$[ebp]
  00030	89 45 ec	 mov	 DWORD PTR __My_data$10[ebp], eax

; 685  :         pointer& _Mylast = _My_data._Mylast;

  00033	8b 45 ec	 mov	 eax, DWORD PTR __My_data$10[ebp]
  00036	83 c0 04	 add	 eax, 4
  00039	89 45 fc	 mov	 DWORD PTR __Mylast$11[ebp], eax
; File C:\Program Files (x86)\Microsoft Visual Studio\2019\Community\VC\Tools\MSVC\14.28.29333\include\type_traits

; 1443 :     return static_cast<_Ty&&>(_Arg);

  0003c	8b 45 e8	 mov	 eax, DWORD PTR $T9[ebp]
  0003f	89 45 d8	 mov	 DWORD PTR $T6[ebp], eax
; File C:\Program Files (x86)\Microsoft Visual Studio\2019\Community\VC\Tools\MSVC\14.28.29333\include\vector

; 687  :         _Alty_traits::construct(_Getal(), _Unfancy(_Mylast), _STD forward<_Valty>(_Val)...);

  00042	8b 45 fc	 mov	 eax, DWORD PTR __Mylast$11[ebp]
  00045	8b 00		 mov	 eax, DWORD PTR [eax]
  00047	89 45 e4	 mov	 DWORD PTR __Ptr$[ebp], eax
; File C:\Program Files (x86)\Microsoft Visual Studio\2019\Community\VC\Tools\MSVC\14.28.29333\include\xstddef

; 289  :     return _Ptr;

  0004a	8b 45 e4	 mov	 eax, DWORD PTR __Ptr$[ebp]
  0004d	89 45 dc	 mov	 DWORD PTR $T7[ebp], eax
; File C:\Program Files (x86)\Microsoft Visual Studio\2019\Community\VC\Tools\MSVC\14.28.29333\include\vector

; 1733 :         return _Mypair._Get_first();

  00050	8b 45 f8	 mov	 eax, DWORD PTR _this$[ebp]
; File C:\Program Files (x86)\Microsoft Visual Studio\2019\Community\VC\Tools\MSVC\14.28.29333\include\xmemory

; 1347 :         return *this;

  00053	89 45 e0	 mov	 DWORD PTR $T8[ebp], eax
; File C:\Program Files (x86)\Microsoft Visual Studio\2019\Community\VC\Tools\MSVC\14.28.29333\include\vector

; 1733 :         return _Mypair._Get_first();

  00056	8b 45 e0	 mov	 eax, DWORD PTR $T8[ebp]
  00059	89 45 c8	 mov	 DWORD PTR $T2[ebp], eax
; File C:\Program Files (x86)\Microsoft Visual Studio\2019\Community\VC\Tools\MSVC\14.28.29333\include\vcruntime_new.h

; 169  :         return _Where;

  0005c	8b 45 dc	 mov	 eax, DWORD PTR $T7[ebp]
  0005f	89 45 d0	 mov	 DWORD PTR $T4[ebp], eax
; File C:\Program Files (x86)\Microsoft Visual Studio\2019\Community\VC\Tools\MSVC\14.28.29333\include\type_traits

; 1443 :     return static_cast<_Ty&&>(_Arg);

  00062	8b 45 d8	 mov	 eax, DWORD PTR $T6[ebp]
  00065	89 45 d4	 mov	 DWORD PTR $T5[ebp], eax
; File C:\Program Files (x86)\Microsoft Visual Studio\2019\Community\VC\Tools\MSVC\14.28.29333\include\xmemory

; 701  :         ::new (const_cast<void*>(static_cast<const volatile void*>(_Ptr))) _Objty(_STD forward<_Types>(_Args)...);

  00068	8b 75 d4	 mov	 esi, DWORD PTR $T5[ebp]
  0006b	8b 7d d0	 mov	 edi, DWORD PTR $T4[ebp]
  0006e	a5		 movsd
  0006f	a5		 movsd
  00070	a5		 movsd
; File C:\Program Files (x86)\Microsoft Visual Studio\2019\Community\VC\Tools\MSVC\14.28.29333\include\vector

; 689  :         _Ty& _Result = *_Mylast;

  00071	8b 45 fc	 mov	 eax, DWORD PTR __Mylast$11[ebp]
  00074	8b 00		 mov	 eax, DWORD PTR [eax]
  00076	89 45 c4	 mov	 DWORD PTR __Result$1[ebp], eax

; 690  :         ++_Mylast;

  00079	8b 45 fc	 mov	 eax, DWORD PTR __Mylast$11[ebp]
  0007c	8b 00		 mov	 eax, DWORD PTR [eax]
  0007e	83 c0 0c	 add	 eax, 12			; 0000000cH
  00081	8b 4d fc	 mov	 ecx, DWORD PTR __Mylast$11[ebp]
  00084	89 01		 mov	 DWORD PTR [ecx], eax

; 705  :             return _Emplace_back_with_unused_capacity(_STD forward<_Valty>(_Val)...);

  00086	eb 19		 jmp	 SHORT $LN1@emplace_ba
$LN2@emplace_ba:
; File C:\Program Files (x86)\Microsoft Visual Studio\2019\Community\VC\Tools\MSVC\14.28.29333\include\type_traits

; 1443 :     return static_cast<_Ty&&>(_Arg);

  00088	8b 45 08	 mov	 eax, DWORD PTR _<_Val_0>$[ebp]
  0008b	89 45 cc	 mov	 DWORD PTR $T3[ebp], eax
; File C:\Program Files (x86)\Microsoft Visual Studio\2019\Community\VC\Tools\MSVC\14.28.29333\include\vector

; 708  :         _Ty& _Result = *_Emplace_reallocate(_Mylast, _STD forward<_Valty>(_Val)...);

  0008e	ff 75 cc	 push	 DWORD PTR $T3[ebp]
  00091	8b 45 f0	 mov	 eax, DWORD PTR __Mylast$[ebp]
  00094	ff 30		 push	 DWORD PTR [eax]
  00096	8b 4d f8	 mov	 ecx, DWORD PTR _this$[ebp]
  00099	e8 00 00 00 00	 call	 ??$_Emplace_reallocate@ABUTAttachEffectInstance@CFlyingInstance@@@?$vector@UTAttachEffectInstance@CFlyingInstance@@V?$allocator@UTAttachEffectInstance@CFlyingInstance@@@std@@@std@@QAEPAUTAttachEffectInstance@CFlyingInstance@@QAU23@ABU23@@Z ; std::vector<CFlyingInstance::TAttachEffectInstance,std::allocator<CFlyingInstance::TAttachEffectInstance> >::_Emplace_reallocate<CFlyingInstance::TAttachEffectInstance const &>
  0009e	89 45 c0	 mov	 DWORD PTR __Result$[ebp], eax
$LN1@emplace_ba:

; 709  : #if _HAS_CXX17
; 710  :         return _Result;
; 711  : #else // ^^^ _HAS_CXX17 ^^^ // vvv !_HAS_CXX17 vvv
; 712  :         (void) _Result;
; 713  : #endif // _HAS_CXX17
; 714  :     }

  000a1	5f		 pop	 edi
  000a2	5e		 pop	 esi
  000a3	c9		 leave
  000a4	c2 04 00	 ret	 4
??$emplace_back@ABUTAttachEffectInstance@CFlyingInstance@@@?$vector@UTAttachEffectInstance@CFlyingInstance@@V?$allocator@UTAttachEffectInstance@CFlyingInstance@@@std@@@std@@QAEXABUTAttachEffectInstance@CFlyingInstance@@@Z ENDP ; std::vector<CFlyingInstance::TAttachEffectInstance,std::allocator<CFlyingInstance::TAttachEffectInstance> >::emplace_back<CFlyingInstance::TAttachEffectInstance const &>
_TEXT	ENDS
; Function compile flags: /Odspy
; File C:\Program Files (x86)\Microsoft Visual Studio\2019\Community\VC\Tools\MSVC\14.28.29333\include\xtree
; File C:\Program Files (x86)\Microsoft Visual Studio\2019\Community\VC\Tools\MSVC\14.28.29333\include\utility
; File C:\Program Files (x86)\Microsoft Visual Studio\2019\Community\VC\Tools\MSVC\14.28.29333\include\xtree
; File C:\Program Files (x86)\Microsoft Visual Studio\2019\Community\VC\Tools\MSVC\14.28.29333\include\xstddef
; File C:\Program Files (x86)\Microsoft Visual Studio\2019\Community\VC\Tools\MSVC\14.28.29333\include\xtree
;	COMDAT ??$_Erase_tree@V?$allocator@U?$_Tree_node@PAVIActorInstance@@PAX@std@@@std@@@?$_Tree_val@U?$_Tree_simple_types@PAVIActorInstance@@@std@@@std@@QAEXAAV?$allocator@U?$_Tree_node@PAVIActorInstance@@PAX@std@@@1@PAU?$_Tree_node@PAVIActorInstance@@PAX@1@@Z
_TEXT	SEGMENT
$T1 = -20						; size = 4
__Old_val$2 = -16					; size = 4
__New_val$ = -12					; size = 4
_this$ = -8						; size = 4
$T3 = -4						; size = 4
__Al$ = 8						; size = 4
__Rootnode$ = 12					; size = 4
??$_Erase_tree@V?$allocator@U?$_Tree_node@PAVIActorInstance@@PAX@std@@@std@@@?$_Tree_val@U?$_Tree_simple_types@PAVIActorInstance@@@std@@@std@@QAEXAAV?$allocator@U?$_Tree_node@PAVIActorInstance@@PAX@std@@@1@PAU?$_Tree_node@PAVIActorInstance@@PAX@1@@Z PROC ; std::_Tree_val<std::_Tree_simple_types<IActorInstance *> >::_Erase_tree<std::allocator<std::_Tree_node<IActorInstance *,void *> > >, COMDAT
; _this$ = ecx

; 742  :     void _Erase_tree(_Alnode& _Al, _Nodeptr _Rootnode) noexcept {

  00000	55		 push	 ebp
  00001	8b ec		 mov	 ebp, esp
  00003	83 ec 14	 sub	 esp, 20			; 00000014H
  00006	89 4d f8	 mov	 DWORD PTR _this$[ebp], ecx
$LN2@Erase_tree:

; 743  :         while (!_Rootnode->_Isnil) { // free subtrees, then node

  00009	8b 45 0c	 mov	 eax, DWORD PTR __Rootnode$[ebp]
  0000c	0f be 40 0d	 movsx	 eax, BYTE PTR [eax+13]
  00010	85 c0		 test	 eax, eax
  00012	75 43		 jne	 SHORT $LN4@Erase_tree

; 744  :             _Erase_tree(_Al, _Rootnode->_Right);

  00014	8b 45 0c	 mov	 eax, DWORD PTR __Rootnode$[ebp]
  00017	ff 70 08	 push	 DWORD PTR [eax+8]
  0001a	ff 75 08	 push	 DWORD PTR __Al$[ebp]
  0001d	8b 4d f8	 mov	 ecx, DWORD PTR _this$[ebp]
  00020	e8 00 00 00 00	 call	 ??$_Erase_tree@V?$allocator@U?$_Tree_node@PAVIActorInstance@@PAX@std@@@std@@@?$_Tree_val@U?$_Tree_simple_types@PAVIActorInstance@@@std@@@std@@QAEXAAV?$allocator@U?$_Tree_node@PAVIActorInstance@@PAX@std@@@1@PAU?$_Tree_node@PAVIActorInstance@@PAX@1@@Z ; std::_Tree_val<std::_Tree_simple_types<IActorInstance *> >::_Erase_tree<std::allocator<std::_Tree_node<IActorInstance *,void *> > >

; 745  :             _Alnode::value_type::_Freenode(_Al, _STD exchange(_Rootnode, _Rootnode->_Left));

  00025	8b 45 0c	 mov	 eax, DWORD PTR __Rootnode$[ebp]
  00028	89 45 f4	 mov	 DWORD PTR __New_val$[ebp], eax
; File C:\Program Files (x86)\Microsoft Visual Studio\2019\Community\VC\Tools\MSVC\14.28.29333\include\utility

; 598  :     _Ty _Old_val = static_cast<_Ty&&>(_Val);

  0002b	8b 45 0c	 mov	 eax, DWORD PTR __Rootnode$[ebp]
  0002e	89 45 f0	 mov	 DWORD PTR __Old_val$2[ebp], eax

; 599  :     _Val         = static_cast<_Other&&>(_New_val);

  00031	8b 45 f4	 mov	 eax, DWORD PTR __New_val$[ebp]
  00034	8b 00		 mov	 eax, DWORD PTR [eax]
  00036	89 45 0c	 mov	 DWORD PTR __Rootnode$[ebp], eax

; 600  :     return _Old_val;

  00039	8b 45 f0	 mov	 eax, DWORD PTR __Old_val$2[ebp]
  0003c	89 45 fc	 mov	 DWORD PTR $T3[ebp], eax
; File C:\Program Files (x86)\Microsoft Visual Studio\2019\Community\VC\Tools\MSVC\14.28.29333\include\xtree

; 379  :         allocator_traits<_Alloc>::destroy(_Al, _STD addressof(_Ptr->_Myval));

  0003f	8b 45 fc	 mov	 eax, DWORD PTR $T3[ebp]
  00042	83 c0 10	 add	 eax, 16			; 00000010H
; File C:\Program Files (x86)\Microsoft Visual Studio\2019\Community\VC\Tools\MSVC\14.28.29333\include\xstddef

; 275  :     return __builtin_addressof(_Val);

  00045	89 45 ec	 mov	 DWORD PTR $T1[ebp], eax
; File C:\Program Files (x86)\Microsoft Visual Studio\2019\Community\VC\Tools\MSVC\14.28.29333\include\xtree

; 380  :         _Freenode0(_Al, _Ptr);

  00048	ff 75 fc	 push	 DWORD PTR $T3[ebp]
  0004b	ff 75 08	 push	 DWORD PTR __Al$[ebp]
  0004e	e8 00 00 00 00	 call	 ??$_Freenode0@V?$allocator@U?$_Tree_node@PAVIActorInstance@@PAX@std@@@std@@@?$_Tree_node@PAVIActorInstance@@PAX@std@@SAXAAV?$allocator@U?$_Tree_node@PAVIActorInstance@@PAX@std@@@1@PAU01@@Z ; std::_Tree_node<IActorInstance *,void *>::_Freenode0<std::allocator<std::_Tree_node<IActorInstance *,void *> > >
  00053	59		 pop	 ecx
  00054	59		 pop	 ecx

; 746  :         }

  00055	eb b2		 jmp	 SHORT $LN2@Erase_tree
$LN4@Erase_tree:

; 747  :     }

  00057	c9		 leave
  00058	c2 08 00	 ret	 8
??$_Erase_tree@V?$allocator@U?$_Tree_node@PAVIActorInstance@@PAX@std@@@std@@@?$_Tree_val@U?$_Tree_simple_types@PAVIActorInstance@@@std@@@std@@QAEXAAV?$allocator@U?$_Tree_node@PAVIActorInstance@@PAX@std@@@1@PAU?$_Tree_node@PAVIActorInstance@@PAX@1@@Z ENDP ; std::_Tree_val<std::_Tree_simple_types<IActorInstance *> >::_Erase_tree<std::allocator<std::_Tree_node<IActorInstance *,void *> > >
_TEXT	ENDS
; Function compile flags: /Odspy
; File C:\Program Files (x86)\Microsoft Visual Studio\2019\Community\VC\Tools\MSVC\14.28.29333\include\xtree
; File C:\Program Files (x86)\Microsoft Visual Studio\2019\Community\VC\Tools\MSVC\14.28.29333\include\xmemory
; File C:\Program Files (x86)\Microsoft Visual Studio\2019\Community\VC\Tools\MSVC\14.28.29333\include\xtree
; File C:\Program Files (x86)\Microsoft Visual Studio\2019\Community\VC\Tools\MSVC\14.28.29333\include\xstddef
; File C:\Program Files (x86)\Microsoft Visual Studio\2019\Community\VC\Tools\MSVC\14.28.29333\include\xtree
; File C:\Program Files (x86)\Microsoft Visual Studio\2019\Community\VC\Tools\MSVC\14.28.29333\include\xstddef
; File C:\Program Files (x86)\Microsoft Visual Studio\2019\Community\VC\Tools\MSVC\14.28.29333\include\xtree
;	COMDAT ??$_Find@PAVIActorInstance@@@?$_Tree@V?$_Tset_traits@PAVIActorInstance@@U?$less@PAVIActorInstance@@@std@@V?$allocator@PAVIActorInstance@@@3@$0A@@std@@@std@@ABEPAU?$_Tree_node@PAVIActorInstance@@PAX@1@ABQAVIActorInstance@@@Z
_TEXT	SEGMENT
__Loc$ = -44						; size = 12
$T1 = -32						; size = 4
$T2 = -28						; size = 4
$T3 = -24						; size = 4
$T4 = -20						; size = 4
tv78 = -16						; size = 4
tv131 = -12						; size = 4
__Bound$ = -8						; size = 4
_this$ = -4						; size = 4
__Keyval$ = 8						; size = 4
??$_Find@PAVIActorInstance@@@?$_Tree@V?$_Tset_traits@PAVIActorInstance@@U?$less@PAVIActorInstance@@@std@@V?$allocator@PAVIActorInstance@@@3@$0A@@std@@@std@@ABEPAU?$_Tree_node@PAVIActorInstance@@PAX@1@ABQAVIActorInstance@@@Z PROC ; std::_Tree<std::_Tset_traits<IActorInstance *,std::less<IActorInstance *>,std::allocator<IActorInstance *>,0> >::_Find<IActorInstance *>, COMDAT
; _this$ = ecx

; 1457 :     _NODISCARD _Nodeptr _Find(const _Other& _Keyval) const {

  00000	55		 push	 ebp
  00001	8b ec		 mov	 ebp, esp
  00003	83 ec 2c	 sub	 esp, 44			; 0000002cH
  00006	89 4d fc	 mov	 DWORD PTR _this$[ebp], ecx

; 1458 :         const _Tree_find_result<_Nodeptr> _Loc = _Find_lower_bound(_Keyval);

  00009	ff 75 08	 push	 DWORD PTR __Keyval$[ebp]
  0000c	8d 45 d4	 lea	 eax, DWORD PTR __Loc$[ebp]
  0000f	50		 push	 eax
  00010	8b 4d fc	 mov	 ecx, DWORD PTR _this$[ebp]
  00013	e8 00 00 00 00	 call	 ??$_Find_lower_bound@PAVIActorInstance@@@?$_Tree@V?$_Tset_traits@PAVIActorInstance@@U?$less@PAVIActorInstance@@@std@@V?$allocator@PAVIActorInstance@@@3@$0A@@std@@@std@@IBE?AU?$_Tree_find_result@PAU?$_Tree_node@PAVIActorInstance@@PAX@std@@@1@ABQAVIActorInstance@@@Z ; std::_Tree<std::_Tset_traits<IActorInstance *,std::less<IActorInstance *>,std::allocator<IActorInstance *>,0> >::_Find_lower_bound<IActorInstance *>

; 1459 :         if (_Lower_bound_duplicate(_Loc._Bound, _Keyval)) {

  00018	8b 45 dc	 mov	 eax, DWORD PTR __Loc$[ebp+8]
  0001b	89 45 f8	 mov	 DWORD PTR __Bound$[ebp], eax

; 1695 :         return !_Bound->_Isnil && !_DEBUG_LT_PRED(_Getcomp(), _Keyval, _Traits::_Kfn(_Bound->_Myval));

  0001e	8b 45 f8	 mov	 eax, DWORD PTR __Bound$[ebp]
  00021	0f be 40 0d	 movsx	 eax, BYTE PTR [eax+13]
  00025	85 c0		 test	 eax, eax
  00027	75 37		 jne	 SHORT $LN30@Find

; 2035 :         return _Mypair._Get_first();

  00029	8b 45 fc	 mov	 eax, DWORD PTR _this$[ebp]
; File C:\Program Files (x86)\Microsoft Visual Studio\2019\Community\VC\Tools\MSVC\14.28.29333\include\xmemory

; 1351 :         return *this;

  0002c	89 45 ec	 mov	 DWORD PTR $T4[ebp], eax
; File C:\Program Files (x86)\Microsoft Visual Studio\2019\Community\VC\Tools\MSVC\14.28.29333\include\xtree

; 2035 :         return _Mypair._Get_first();

  0002f	8b 45 ec	 mov	 eax, DWORD PTR $T4[ebp]
  00032	89 45 e0	 mov	 DWORD PTR $T1[ebp], eax
; File C:\Program Files (x86)\Microsoft Visual Studio\2019\Community\VC\Tools\MSVC\14.28.29333\include\xstddef

; 127  :         return _Left < _Right;

  00035	8b 45 08	 mov	 eax, DWORD PTR __Keyval$[ebp]
  00038	8b 4d f8	 mov	 ecx, DWORD PTR __Bound$[ebp]
  0003b	8b 00		 mov	 eax, DWORD PTR [eax]
  0003d	3b 41 10	 cmp	 eax, DWORD PTR [ecx+16]
  00040	73 09		 jae	 SHORT $LN42@Find
  00042	c7 45 f4 01 00
	00 00		 mov	 DWORD PTR tv131[ebp], 1
  00049	eb 04		 jmp	 SHORT $LN40@Find
$LN42@Find:
  0004b	83 65 f4 00	 and	 DWORD PTR tv131[ebp], 0
$LN40@Find:
; File C:\Program Files (x86)\Microsoft Visual Studio\2019\Community\VC\Tools\MSVC\14.28.29333\include\xtree

; 1695 :         return !_Bound->_Isnil && !_DEBUG_LT_PRED(_Getcomp(), _Keyval, _Traits::_Kfn(_Bound->_Myval));

  0004f	0f b6 45 f4	 movzx	 eax, BYTE PTR tv131[ebp]
  00053	85 c0		 test	 eax, eax
  00055	75 09		 jne	 SHORT $LN30@Find
  00057	c7 45 f0 01 00
	00 00		 mov	 DWORD PTR tv78[ebp], 1
  0005e	eb 04		 jmp	 SHORT $LN28@Find
$LN30@Find:
  00060	83 65 f0 00	 and	 DWORD PTR tv78[ebp], 0
$LN28@Find:

; 1459 :         if (_Lower_bound_duplicate(_Loc._Bound, _Keyval)) {

  00064	0f b6 45 f0	 movzx	 eax, BYTE PTR tv78[ebp]
  00068	85 c0		 test	 eax, eax
  0006a	74 05		 je	 SHORT $LN2@Find

; 1460 :             return _Loc._Bound;

  0006c	8b 45 dc	 mov	 eax, DWORD PTR __Loc$[ebp+8]
  0006f	eb 11		 jmp	 SHORT $LN1@Find
$LN2@Find:

; 2051 :         return _STD addressof(_Mypair._Myval2._Myval2);

  00071	8b 45 fc	 mov	 eax, DWORD PTR _this$[ebp]
; File C:\Program Files (x86)\Microsoft Visual Studio\2019\Community\VC\Tools\MSVC\14.28.29333\include\xstddef

; 275  :     return __builtin_addressof(_Val);

  00074	89 45 e8	 mov	 DWORD PTR $T3[ebp], eax
; File C:\Program Files (x86)\Microsoft Visual Studio\2019\Community\VC\Tools\MSVC\14.28.29333\include\xtree

; 2051 :         return _STD addressof(_Mypair._Myval2._Myval2);

  00077	8b 45 e8	 mov	 eax, DWORD PTR $T3[ebp]
  0007a	89 45 e4	 mov	 DWORD PTR $T2[ebp], eax

; 1461 :         }
; 1462 : 
; 1463 :         return _Get_scary()->_Myhead;

  0007d	8b 45 e4	 mov	 eax, DWORD PTR $T2[ebp]
  00080	8b 00		 mov	 eax, DWORD PTR [eax]
$LN1@Find:

; 1464 :     }

  00082	c9		 leave
  00083	c2 04 00	 ret	 4
??$_Find@PAVIActorInstance@@@?$_Tree@V?$_Tset_traits@PAVIActorInstance@@U?$less@PAVIActorInstance@@@std@@V?$allocator@PAVIActorInstance@@@3@$0A@@std@@@std@@ABEPAU?$_Tree_node@PAVIActorInstance@@PAX@1@ABQAVIActorInstance@@@Z ENDP ; std::_Tree<std::_Tset_traits<IActorInstance *,std::less<IActorInstance *>,std::allocator<IActorInstance *>,0> >::_Find<IActorInstance *>
_TEXT	ENDS
; Function compile flags: /Odspy
; File C:\Program Files (x86)\Microsoft Visual Studio\2019\Community\VC\Tools\MSVC\14.28.29333\include\xmemory
;	COMDAT ??$_Const_cast@$$CBUTAttachEffectInstance@CFlyingInstance@@@std@@YAPAUTAttachEffectInstance@CFlyingInstance@@PBU12@@Z
_TEXT	SEGMENT
__Ptr$ = 8						; size = 4
??$_Const_cast@$$CBUTAttachEffectInstance@CFlyingInstance@@@std@@YAPAUTAttachEffectInstance@CFlyingInstance@@PBU12@@Z PROC ; std::_Const_cast<CFlyingInstance::TAttachEffectInstance const >, COMDAT

; 292  : auto _Const_cast(_Ty* _Ptr) noexcept {

  00000	55		 push	 ebp
  00001	8b ec		 mov	 ebp, esp

; 293  :     return const_cast<remove_const_t<_Ty>*>(_Ptr);

  00003	8b 45 08	 mov	 eax, DWORD PTR __Ptr$[ebp]

; 294  : }

  00006	5d		 pop	 ebp
  00007	c3		 ret	 0
??$_Const_cast@$$CBUTAttachEffectInstance@CFlyingInstance@@@std@@YAPAUTAttachEffectInstance@CFlyingInstance@@PBU12@@Z ENDP ; std::_Const_cast<CFlyingInstance::TAttachEffectInstance const >
_TEXT	ENDS
; Function compile flags: /Odspy
; File D:\Metin2 Server Files\mainline\SRC_2014\Metin2Client\eterlib\CullingManager.h
; File D:\Metin2 Server Files\mainline\SRC_2014\Metin2Client\SphereLib\spherepack.h
; File D:\Metin2 Server Files\mainline\SRC_2014\Metin2Client\eterlib\CullingManager.h
; File D:\Metin2 Server Files\mainline\SRC_2014\Metin2Client\SphereLib\spherepack.h
; File D:\Metin2 Server Files\mainline\SRC_2014\Metin2Client\eterlib\CullingManager.h
;	COMDAT ??$ForInRange@UFCheckBackgroundDuringFlying@@@CCullingManager@@QAEXABVVector3d@@MPAUFCheckBackgroundDuringFlying@@@Z
_TEXT	SEGMENT
_r$ = -28						; size = 12
_this$ = -16						; size = 4
__$EHRec$ = -12						; size = 12
_p$ = 8							; size = 4
_radius$ = 12						; size = 4
_pFunc$ = 16						; size = 4
??$ForInRange@UFCheckBackgroundDuringFlying@@@CCullingManager@@QAEXABVVector3d@@MPAUFCheckBackgroundDuringFlying@@@Z PROC ; CCullingManager::ForInRange<FCheckBackgroundDuringFlying>, COMDAT
; _this$ = ecx

; 112  : 	{

  00000	55		 push	 ebp
  00001	8b ec		 mov	 ebp, esp
  00003	6a ff		 push	 -1
  00005	68 00 00 00 00	 push	 __ehhandler$??$ForInRange@UFCheckBackgroundDuringFlying@@@CCullingManager@@QAEXABVVector3d@@MPAUFCheckBackgroundDuringFlying@@@Z
  0000a	64 a1 00 00 00
	00		 mov	 eax, DWORD PTR fs:0
  00010	50		 push	 eax
  00011	83 ec 10	 sub	 esp, 16			; 00000010H
  00014	a1 00 00 00 00	 mov	 eax, DWORD PTR ___security_cookie
  00019	33 c5		 xor	 eax, ebp
  0001b	50		 push	 eax
  0001c	8d 45 f4	 lea	 eax, DWORD PTR __$EHRec$[ebp]
  0001f	64 a3 00 00 00
	00		 mov	 DWORD PTR fs:0, eax
  00025	89 4d f0	 mov	 DWORD PTR _this$[ebp], ecx
; File D:\Metin2 Server Files\mainline\SRC_2014\Metin2Client\SphereLib\spherepack.h

; 55   : 	SpherePackCallback() {}

  00028	c7 45 e4 00 00
	00 00		 mov	 DWORD PTR _r$[ebp], OFFSET ??_7SpherePackCallback@@6B@
; File D:\Metin2 Server Files\mainline\SRC_2014\Metin2Client\eterlib\CullingManager.h

; 16   : 	{}

  0002f	c7 45 e4 00 00
	00 00		 mov	 DWORD PTR _r$[ebp], OFFSET ??_7?$RangeTester@UFCheckBackgroundDuringFlying@@@@6B@

; 15   : 		: f(fn), dist(distance)

  00036	8b 45 10	 mov	 eax, DWORD PTR _pFunc$[ebp]
  00039	89 45 e8	 mov	 DWORD PTR _r$[ebp+4], eax
  0003c	f3 0f 10 05 00
	00 00 00	 movss	 xmm0, DWORD PTR __real@bf800000
  00044	f3 0f 11 45 ec	 movss	 DWORD PTR _r$[ebp+8], xmm0

; 113  : 		RangeTester<T> r(pFunc);

  00049	83 65 fc 00	 and	 DWORD PTR __$EHRec$[ebp+8], 0

; 114  : 		m_Factory->RangeTest(p, radius, &r/*this*/);	

  0004d	8d 45 e4	 lea	 eax, DWORD PTR _r$[ebp]
  00050	50		 push	 eax
  00051	51		 push	 ecx
  00052	f3 0f 10 45 0c	 movss	 xmm0, DWORD PTR _radius$[ebp]
  00057	f3 0f 11 04 24	 movss	 DWORD PTR [esp], xmm0
  0005c	ff 75 08	 push	 DWORD PTR _p$[ebp]
  0005f	8b 45 f0	 mov	 eax, DWORD PTR _this$[ebp]
  00062	8b 48 1c	 mov	 ecx, DWORD PTR [eax+28]
  00065	e8 00 00 00 00	 call	 ?RangeTest@SpherePackFactory@@QAEXABVVector3d@@MPAVSpherePackCallback@@@Z ; SpherePackFactory::RangeTest

; 115  : 	}

  0006a	83 4d fc ff	 or	 DWORD PTR __$EHRec$[ebp+8], -1

; 19   : 	{}

  0006e	c7 45 e4 00 00
	00 00		 mov	 DWORD PTR _r$[ebp], OFFSET ??_7?$RangeTester@UFCheckBackgroundDuringFlying@@@@6B@
; File D:\Metin2 Server Files\mainline\SRC_2014\Metin2Client\SphereLib\spherepack.h

; 56   : 	virtual ~SpherePackCallback() {}

  00075	c7 45 e4 00 00
	00 00		 mov	 DWORD PTR _r$[ebp], OFFSET ??_7SpherePackCallback@@6B@
; File D:\Metin2 Server Files\mainline\SRC_2014\Metin2Client\eterlib\CullingManager.h

; 115  : 	}

  0007c	8b 4d f4	 mov	 ecx, DWORD PTR __$EHRec$[ebp]
  0007f	64 89 0d 00 00
	00 00		 mov	 DWORD PTR fs:0, ecx
  00086	59		 pop	 ecx
  00087	c9		 leave
  00088	c2 0c 00	 ret	 12			; 0000000cH
_TEXT	ENDS
;	COMDAT text$x
text$x	SEGMENT
__unwindfunclet$??$ForInRange@UFCheckBackgroundDuringFlying@@@CCullingManager@@QAEXABVVector3d@@MPAUFCheckBackgroundDuringFlying@@@Z$0:
  00000	8d 4d e4	 lea	 ecx, DWORD PTR _r$[ebp]
  00003	e9 00 00 00 00	 jmp	 ??1?$RangeTester@UFCheckBackgroundDuringFlying@@@@UAE@XZ ; RangeTester<FCheckBackgroundDuringFlying>::~RangeTester<FCheckBackgroundDuringFlying>
  00008	cc		 int	 3
  00009	cc		 int	 3
  0000a	cc		 int	 3
  0000b	cc		 int	 3
  0000c	cc		 int	 3
__ehhandler$??$ForInRange@UFCheckBackgroundDuringFlying@@@CCullingManager@@QAEXABVVector3d@@MPAUFCheckBackgroundDuringFlying@@@Z:
  0000d	90		 npad	 1
  0000e	90		 npad	 1
  0000f	8b 54 24 08	 mov	 edx, DWORD PTR [esp+8]
  00013	8d 42 0c	 lea	 eax, DWORD PTR [edx+12]
  00016	8b 4a ec	 mov	 ecx, DWORD PTR [edx-20]
  00019	33 c8		 xor	 ecx, eax
  0001b	e8 00 00 00 00	 call	 @__security_check_cookie@4
  00020	b8 00 00 00 00	 mov	 eax, OFFSET __ehfuncinfo$??$ForInRange@UFCheckBackgroundDuringFlying@@@CCullingManager@@QAEXABVVector3d@@MPAUFCheckBackgroundDuringFlying@@@Z
  00025	e9 00 00 00 00	 jmp	 ___CxxFrameHandler3
text$x	ENDS
??$ForInRange@UFCheckBackgroundDuringFlying@@@CCullingManager@@QAEXABVVector3d@@MPAUFCheckBackgroundDuringFlying@@@Z ENDP ; CCullingManager::ForInRange<FCheckBackgroundDuringFlying>
; Function compile flags: /Odspy
; File C:\Program Files (x86)\Microsoft Visual Studio\2019\Community\VC\Tools\MSVC\14.28.29333\include\xtree
; File C:\Program Files (x86)\Microsoft Visual Studio\2019\Community\VC\Tools\MSVC\14.28.29333\include\xstddef
; File C:\Program Files (x86)\Microsoft Visual Studio\2019\Community\VC\Tools\MSVC\14.28.29333\include\xtree
; File C:\Program Files (x86)\Microsoft Visual Studio\2019\Community\VC\Tools\MSVC\14.28.29333\include\type_traits
; File C:\Program Files (x86)\Microsoft Visual Studio\2019\Community\VC\Tools\MSVC\14.28.29333\include\utility
; File C:\Program Files (x86)\Microsoft Visual Studio\2019\Community\VC\Tools\MSVC\14.28.29333\include\type_traits
; File C:\Program Files (x86)\Microsoft Visual Studio\2019\Community\VC\Tools\MSVC\14.28.29333\include\utility
; File C:\Program Files (x86)\Microsoft Visual Studio\2019\Community\VC\Tools\MSVC\14.28.29333\include\xtree
;	COMDAT ??$insert@$0A@$0A@@?$_Tree@V?$_Tset_traits@PAVIActorInstance@@U?$less@PAVIActorInstance@@@std@@V?$allocator@PAVIActorInstance@@@3@$0A@@std@@@std@@QAE?AU?$pair@V?$_Tree_const_iterator@V?$_Tree_val@U?$_Tree_simple_types@PAVIActorInstance@@@std@@@std@@@std@@_N@1@ABQAVIActorInstance@@@Z
_TEXT	SEGMENT
__Result$ = -36						; size = 8
$T1 = -28						; size = 4
$T2 = -24						; size = 4
$T3 = -20						; size = 4
$T4 = -16						; size = 4
___param0$ = -12					; size = 4
$T5 = -8						; size = 4
_this$ = -4						; size = 4
___$ReturnUdt$ = 8					; size = 4
__Val$ = 12						; size = 4
??$insert@$0A@$0A@@?$_Tree@V?$_Tset_traits@PAVIActorInstance@@U?$less@PAVIActorInstance@@@std@@V?$allocator@PAVIActorInstance@@@3@$0A@@std@@@std@@QAE?AU?$pair@V?$_Tree_const_iterator@V?$_Tree_val@U?$_Tree_simple_types@PAVIActorInstance@@@std@@@std@@@std@@_N@1@ABQAVIActorInstance@@@Z PROC ; std::_Tree<std::_Tset_traits<IActorInstance *,std::less<IActorInstance *>,std::allocator<IActorInstance *>,0> >::insert<0,0>, COMDAT
; _this$ = ecx

; 1332 :     pair<iterator, bool> insert(const value_type& _Val) {

  00000	55		 push	 ebp
  00001	8b ec		 mov	 ebp, esp
  00003	83 ec 24	 sub	 esp, 36			; 00000024H
  00006	89 4d fc	 mov	 DWORD PTR _this$[ebp], ecx

; 1333 :         const auto _Result = _Emplace(_Val);

  00009	ff 75 0c	 push	 DWORD PTR __Val$[ebp]
  0000c	8d 45 dc	 lea	 eax, DWORD PTR __Result$[ebp]
  0000f	50		 push	 eax
  00010	8b 4d fc	 mov	 ecx, DWORD PTR _this$[ebp]
  00013	e8 00 00 00 00	 call	 ??$_Emplace@ABQAVIActorInstance@@@?$_Tree@V?$_Tset_traits@PAVIActorInstance@@U?$less@PAVIActorInstance@@@std@@V?$allocator@PAVIActorInstance@@@3@$0A@@std@@@std@@IAE?AU?$pair@PAU?$_Tree_node@PAVIActorInstance@@PAX@std@@_N@1@ABQAVIActorInstance@@@Z ; std::_Tree<std::_Tset_traits<IActorInstance *,std::less<IActorInstance *>,std::allocator<IActorInstance *>,0> >::_Emplace<IActorInstance * const &>

; 2047 :         return _STD addressof(_Mypair._Myval2._Myval2);

  00018	8b 45 fc	 mov	 eax, DWORD PTR _this$[ebp]
; File C:\Program Files (x86)\Microsoft Visual Studio\2019\Community\VC\Tools\MSVC\14.28.29333\include\xstddef

; 275  :     return __builtin_addressof(_Val);

  0001b	89 45 f8	 mov	 DWORD PTR $T5[ebp], eax
; File C:\Program Files (x86)\Microsoft Visual Studio\2019\Community\VC\Tools\MSVC\14.28.29333\include\xtree

; 2047 :         return _STD addressof(_Mypair._Myval2._Myval2);

  0001e	8b 45 f8	 mov	 eax, DWORD PTR $T5[ebp]
  00021	89 45 e4	 mov	 DWORD PTR $T1[ebp], eax

; 1334 :         return {iterator(_Result.first, _Get_scary()), _Result.second};

  00024	8b 45 dc	 mov	 eax, DWORD PTR __Result$[ebp]
  00027	89 45 f4	 mov	 DWORD PTR ___param0$[ebp], eax

; 39   :     _Tree_unchecked_const_iterator(_Nodeptr _Pnode, const _Mytree* _Plist) noexcept : _Ptr(_Pnode) {

  0002a	8b 45 f4	 mov	 eax, DWORD PTR ___param0$[ebp]
  0002d	89 45 f0	 mov	 DWORD PTR $T4[ebp], eax
; File C:\Program Files (x86)\Microsoft Visual Studio\2019\Community\VC\Tools\MSVC\14.28.29333\include\type_traits

; 1443 :     return static_cast<_Ty&&>(_Arg);

  00030	8d 45 f0	 lea	 eax, DWORD PTR $T4[ebp]
  00033	89 45 ec	 mov	 DWORD PTR $T3[ebp], eax
; File C:\Program Files (x86)\Microsoft Visual Studio\2019\Community\VC\Tools\MSVC\14.28.29333\include\utility

; 190  :         : first(_STD forward<_Other1>(_Val1)), second(_STD forward<_Other2>(_Val2)) {}

  00036	8b 45 ec	 mov	 eax, DWORD PTR $T3[ebp]
  00039	8b 00		 mov	 eax, DWORD PTR [eax]
  0003b	8b 4d 08	 mov	 ecx, DWORD PTR ___$ReturnUdt$[ebp]
  0003e	89 01		 mov	 DWORD PTR [ecx], eax
; File C:\Program Files (x86)\Microsoft Visual Studio\2019\Community\VC\Tools\MSVC\14.28.29333\include\type_traits

; 1443 :     return static_cast<_Ty&&>(_Arg);

  00040	8d 45 e0	 lea	 eax, DWORD PTR __Result$[ebp+4]
  00043	89 45 e8	 mov	 DWORD PTR $T2[ebp], eax
; File C:\Program Files (x86)\Microsoft Visual Studio\2019\Community\VC\Tools\MSVC\14.28.29333\include\utility

; 190  :         : first(_STD forward<_Other1>(_Val1)), second(_STD forward<_Other2>(_Val2)) {}

  00046	8b 45 08	 mov	 eax, DWORD PTR ___$ReturnUdt$[ebp]
  00049	8b 4d e8	 mov	 ecx, DWORD PTR $T2[ebp]
  0004c	8a 09		 mov	 cl, BYTE PTR [ecx]
  0004e	88 48 04	 mov	 BYTE PTR [eax+4], cl
; File C:\Program Files (x86)\Microsoft Visual Studio\2019\Community\VC\Tools\MSVC\14.28.29333\include\xtree

; 1334 :         return {iterator(_Result.first, _Get_scary()), _Result.second};

  00051	8b 45 08	 mov	 eax, DWORD PTR ___$ReturnUdt$[ebp]

; 1335 :     }

  00054	c9		 leave
  00055	c2 08 00	 ret	 8
??$insert@$0A@$0A@@?$_Tree@V?$_Tset_traits@PAVIActorInstance@@U?$less@PAVIActorInstance@@@std@@V?$allocator@PAVIActorInstance@@@3@$0A@@std@@@std@@QAE?AU?$pair@V?$_Tree_const_iterator@V?$_Tree_val@U?$_Tree_simple_types@PAVIActorInstance@@@std@@@std@@@std@@_N@1@ABQAVIActorInstance@@@Z ENDP ; std::_Tree<std::_Tset_traits<IActorInstance *,std::less<IActorInstance *>,std::allocator<IActorInstance *>,0> >::insert<0,0>
_TEXT	ENDS
; Function compile flags: /Odspy
; File D:\Metin2 Server Files\mainline\SRC_2014\Metin2Client\eterlib\CullingManager.h
; File D:\Metin2 Server Files\mainline\SRC_2014\Metin2Client\SphereLib\spherepack.h
; File D:\Metin2 Server Files\mainline\SRC_2014\Metin2Client\eterlib\CullingManager.h
; File D:\Metin2 Server Files\mainline\SRC_2014\Metin2Client\SphereLib\spherepack.h
; File D:\Metin2 Server Files\mainline\SRC_2014\Metin2Client\eterlib\CullingManager.h
;	COMDAT ??$ForInRange@UFCheckAnotherMonsterDuringFlying@@@CCullingManager@@QAEXABVVector3d@@MPAUFCheckAnotherMonsterDuringFlying@@@Z
_TEXT	SEGMENT
_r$ = -28						; size = 12
_this$ = -16						; size = 4
__$EHRec$ = -12						; size = 12
_p$ = 8							; size = 4
_radius$ = 12						; size = 4
_pFunc$ = 16						; size = 4
??$ForInRange@UFCheckAnotherMonsterDuringFlying@@@CCullingManager@@QAEXABVVector3d@@MPAUFCheckAnotherMonsterDuringFlying@@@Z PROC ; CCullingManager::ForInRange<FCheckAnotherMonsterDuringFlying>, COMDAT
; _this$ = ecx

; 112  : 	{

  00000	55		 push	 ebp
  00001	8b ec		 mov	 ebp, esp
  00003	6a ff		 push	 -1
  00005	68 00 00 00 00	 push	 __ehhandler$??$ForInRange@UFCheckAnotherMonsterDuringFlying@@@CCullingManager@@QAEXABVVector3d@@MPAUFCheckAnotherMonsterDuringFlying@@@Z
  0000a	64 a1 00 00 00
	00		 mov	 eax, DWORD PTR fs:0
  00010	50		 push	 eax
  00011	83 ec 10	 sub	 esp, 16			; 00000010H
  00014	a1 00 00 00 00	 mov	 eax, DWORD PTR ___security_cookie
  00019	33 c5		 xor	 eax, ebp
  0001b	50		 push	 eax
  0001c	8d 45 f4	 lea	 eax, DWORD PTR __$EHRec$[ebp]
  0001f	64 a3 00 00 00
	00		 mov	 DWORD PTR fs:0, eax
  00025	89 4d f0	 mov	 DWORD PTR _this$[ebp], ecx
; File D:\Metin2 Server Files\mainline\SRC_2014\Metin2Client\SphereLib\spherepack.h

; 55   : 	SpherePackCallback() {}

  00028	c7 45 e4 00 00
	00 00		 mov	 DWORD PTR _r$[ebp], OFFSET ??_7SpherePackCallback@@6B@
; File D:\Metin2 Server Files\mainline\SRC_2014\Metin2Client\eterlib\CullingManager.h

; 16   : 	{}

  0002f	c7 45 e4 00 00
	00 00		 mov	 DWORD PTR _r$[ebp], OFFSET ??_7?$RangeTester@UFCheckAnotherMonsterDuringFlying@@@@6B@

; 15   : 		: f(fn), dist(distance)

  00036	8b 45 10	 mov	 eax, DWORD PTR _pFunc$[ebp]
  00039	89 45 e8	 mov	 DWORD PTR _r$[ebp+4], eax
  0003c	f3 0f 10 05 00
	00 00 00	 movss	 xmm0, DWORD PTR __real@bf800000
  00044	f3 0f 11 45 ec	 movss	 DWORD PTR _r$[ebp+8], xmm0

; 113  : 		RangeTester<T> r(pFunc);

  00049	83 65 fc 00	 and	 DWORD PTR __$EHRec$[ebp+8], 0

; 114  : 		m_Factory->RangeTest(p, radius, &r/*this*/);	

  0004d	8d 45 e4	 lea	 eax, DWORD PTR _r$[ebp]
  00050	50		 push	 eax
  00051	51		 push	 ecx
  00052	f3 0f 10 45 0c	 movss	 xmm0, DWORD PTR _radius$[ebp]
  00057	f3 0f 11 04 24	 movss	 DWORD PTR [esp], xmm0
  0005c	ff 75 08	 push	 DWORD PTR _p$[ebp]
  0005f	8b 45 f0	 mov	 eax, DWORD PTR _this$[ebp]
  00062	8b 48 1c	 mov	 ecx, DWORD PTR [eax+28]
  00065	e8 00 00 00 00	 call	 ?RangeTest@SpherePackFactory@@QAEXABVVector3d@@MPAVSpherePackCallback@@@Z ; SpherePackFactory::RangeTest

; 115  : 	}

  0006a	83 4d fc ff	 or	 DWORD PTR __$EHRec$[ebp+8], -1

; 19   : 	{}

  0006e	c7 45 e4 00 00
	00 00		 mov	 DWORD PTR _r$[ebp], OFFSET ??_7?$RangeTester@UFCheckAnotherMonsterDuringFlying@@@@6B@
; File D:\Metin2 Server Files\mainline\SRC_2014\Metin2Client\SphereLib\spherepack.h

; 56   : 	virtual ~SpherePackCallback() {}

  00075	c7 45 e4 00 00
	00 00		 mov	 DWORD PTR _r$[ebp], OFFSET ??_7SpherePackCallback@@6B@
; File D:\Metin2 Server Files\mainline\SRC_2014\Metin2Client\eterlib\CullingManager.h

; 115  : 	}

  0007c	8b 4d f4	 mov	 ecx, DWORD PTR __$EHRec$[ebp]
  0007f	64 89 0d 00 00
	00 00		 mov	 DWORD PTR fs:0, ecx
  00086	59		 pop	 ecx
  00087	c9		 leave
  00088	c2 0c 00	 ret	 12			; 0000000cH
_TEXT	ENDS
;	COMDAT text$x
text$x	SEGMENT
__unwindfunclet$??$ForInRange@UFCheckAnotherMonsterDuringFlying@@@CCullingManager@@QAEXABVVector3d@@MPAUFCheckAnotherMonsterDuringFlying@@@Z$0:
  00000	8d 4d e4	 lea	 ecx, DWORD PTR _r$[ebp]
  00003	e9 00 00 00 00	 jmp	 ??1?$RangeTester@UFCheckAnotherMonsterDuringFlying@@@@UAE@XZ ; RangeTester<FCheckAnotherMonsterDuringFlying>::~RangeTester<FCheckAnotherMonsterDuringFlying>
  00008	cc		 int	 3
  00009	cc		 int	 3
  0000a	cc		 int	 3
  0000b	cc		 int	 3
  0000c	cc		 int	 3
__ehhandler$??$ForInRange@UFCheckAnotherMonsterDuringFlying@@@CCullingManager@@QAEXABVVector3d@@MPAUFCheckAnotherMonsterDuringFlying@@@Z:
  0000d	90		 npad	 1
  0000e	90		 npad	 1
  0000f	8b 54 24 08	 mov	 edx, DWORD PTR [esp+8]
  00013	8d 42 0c	 lea	 eax, DWORD PTR [edx+12]
  00016	8b 4a ec	 mov	 ecx, DWORD PTR [edx-20]
  00019	33 c8		 xor	 ecx, eax
  0001b	e8 00 00 00 00	 call	 @__security_check_cookie@4
  00020	b8 00 00 00 00	 mov	 eax, OFFSET __ehfuncinfo$??$ForInRange@UFCheckAnotherMonsterDuringFlying@@@CCullingManager@@QAEXABVVector3d@@MPAUFCheckAnotherMonsterDuringFlying@@@Z
  00025	e9 00 00 00 00	 jmp	 ___CxxFrameHandler3
text$x	ENDS
??$ForInRange@UFCheckAnotherMonsterDuringFlying@@@CCullingManager@@QAEXABVVector3d@@MPAUFCheckAnotherMonsterDuringFlying@@@Z ENDP ; CCullingManager::ForInRange<FCheckAnotherMonsterDuringFlying>
; Function compile flags: /Odspy
; File D:\Metin2 Server Files\mainline\SRC_2014\Metin2Client\GameLib\FlyingInstance.cpp
;	COMDAT ??RFCheckAnotherMonsterDuringFlying@@QAEXPAVCGraphicObjectInstance@@@Z
_TEXT	SEGMENT
_pa$1 = -8						; size = 4
_this$ = -4						; size = 4
_p$ = 8							; size = 4
??RFCheckAnotherMonsterDuringFlying@@QAEXPAVCGraphicObjectInstance@@@Z PROC ; FCheckAnotherMonsterDuringFlying::operator(), COMDAT
; _this$ = ecx

; 322  : 	{

  00000	55		 push	 ebp
  00001	8b ec		 mov	 ebp, esp
  00003	51		 push	 ecx
  00004	51		 push	 ecx
  00005	89 4d fc	 mov	 DWORD PTR _this$[ebp], ecx

; 323  : 		if (!p)

  00008	83 7d 08 00	 cmp	 DWORD PTR _p$[ebp], 0
  0000c	75 02		 jne	 SHORT $LN2@operator

; 324  : 			return;

  0000e	eb 4a		 jmp	 SHORT $LN1@operator
$LN2@operator:

; 325  : 
; 326  : 		if (!pInst && p->GetType() == ACTOR_OBJECT)

  00010	8b 45 fc	 mov	 eax, DWORD PTR _this$[ebp]
  00013	83 78 1c 00	 cmp	 DWORD PTR [eax+28], 0
  00017	75 41		 jne	 SHORT $LN1@operator
  00019	8b 45 08	 mov	 eax, DWORD PTR _p$[ebp]
  0001c	8b 00		 mov	 eax, DWORD PTR [eax]
  0001e	8b 4d 08	 mov	 ecx, DWORD PTR _p$[ebp]
  00021	ff 50 04	 call	 DWORD PTR [eax+4]
  00024	3d 24 6c a7 29	 cmp	 eax, 698838052		; 29a76c24H
  00029	75 2f		 jne	 SHORT $LN1@operator

; 327  : 		{
; 328  : 			IActorInstance * pa = (IActorInstance*) p;

  0002b	8b 45 08	 mov	 eax, DWORD PTR _p$[ebp]
  0002e	89 45 f8	 mov	 DWORD PTR _pa$1[ebp], eax

; 329  : 			if (pa != pOwner && pa->TestCollisionWithDynamicSphere(s))

  00031	8b 45 fc	 mov	 eax, DWORD PTR _this$[ebp]
  00034	8b 4d f8	 mov	 ecx, DWORD PTR _pa$1[ebp]
  00037	3b 48 20	 cmp	 ecx, DWORD PTR [eax+32]
  0003a	74 1e		 je	 SHORT $LN1@operator
  0003c	ff 75 fc	 push	 DWORD PTR _this$[ebp]
  0003f	8b 45 f8	 mov	 eax, DWORD PTR _pa$1[ebp]
  00042	8b 00		 mov	 eax, DWORD PTR [eax]
  00044	8b 4d f8	 mov	 ecx, DWORD PTR _pa$1[ebp]
  00047	ff 50 44	 call	 DWORD PTR [eax+68]
  0004a	0f b6 c0	 movzx	 eax, al
  0004d	85 c0		 test	 eax, eax
  0004f	74 09		 je	 SHORT $LN1@operator

; 330  : 			{
; 331  : 				pInst = p; 

  00051	8b 45 fc	 mov	 eax, DWORD PTR _this$[ebp]
  00054	8b 4d 08	 mov	 ecx, DWORD PTR _p$[ebp]
  00057	89 48 1c	 mov	 DWORD PTR [eax+28], ecx
$LN1@operator:

; 332  : 			}
; 333  : 		}
; 334  : 	}

  0005a	c9		 leave
  0005b	c2 04 00	 ret	 4
??RFCheckAnotherMonsterDuringFlying@@QAEXPAVCGraphicObjectInstance@@@Z ENDP ; FCheckAnotherMonsterDuringFlying::operator()
_TEXT	ENDS
; Function compile flags: /Odspy
; File D:\Metin2 Server Files\mainline\SRC_2014\Metin2Client\GameLib\FlyingInstance.cpp
;	COMDAT ??RFCheckBackgroundDuringFlying@@QAEXPAVCGraphicObjectInstance@@@Z
_TEXT	SEGMENT
_this$ = -4						; size = 4
_p$ = 8							; size = 4
??RFCheckBackgroundDuringFlying@@QAEXPAVCGraphicObjectInstance@@@Z PROC ; FCheckBackgroundDuringFlying::operator(), COMDAT
; _this$ = ecx

; 291  : 	{

  00000	55		 push	 ebp
  00001	8b ec		 mov	 ebp, esp
  00003	51		 push	 ecx
  00004	89 4d fc	 mov	 DWORD PTR _this$[ebp], ecx

; 292  : 		if (!p)

  00007	83 7d 08 00	 cmp	 DWORD PTR _p$[ebp], 0
  0000b	75 02		 jne	 SHORT $LN2@operator

; 293  : 			return;

  0000d	eb 36		 jmp	 SHORT $LN1@operator
$LN2@operator:

; 294  : 
; 295  : 		if (!bHit && p->GetType() != ACTOR_OBJECT)

  0000f	8b 45 fc	 mov	 eax, DWORD PTR _this$[ebp]
  00012	0f b6 40 1c	 movzx	 eax, BYTE PTR [eax+28]
  00016	85 c0		 test	 eax, eax
  00018	75 2b		 jne	 SHORT $LN1@operator
  0001a	8b 45 08	 mov	 eax, DWORD PTR _p$[ebp]
  0001d	8b 00		 mov	 eax, DWORD PTR [eax]
  0001f	8b 4d 08	 mov	 ecx, DWORD PTR _p$[ebp]
  00022	ff 50 04	 call	 DWORD PTR [eax+4]
  00025	3d 24 6c a7 29	 cmp	 eax, 698838052		; 29a76c24H
  0002a	74 19		 je	 SHORT $LN1@operator

; 296  : 		{
; 297  : 			if (p->CollisionDynamicSphere(s))

  0002c	ff 75 fc	 push	 DWORD PTR _this$[ebp]
  0002f	8b 4d 08	 mov	 ecx, DWORD PTR _p$[ebp]
  00032	e8 00 00 00 00	 call	 ?CollisionDynamicSphere@CGraphicObjectInstance@@QBE_NABUCDynamicSphereInstance@@@Z ; CGraphicObjectInstance::CollisionDynamicSphere
  00037	0f b6 c0	 movzx	 eax, al
  0003a	85 c0		 test	 eax, eax
  0003c	74 07		 je	 SHORT $LN1@operator

; 298  : 			{
; 299  : 				bHit = true; 

  0003e	8b 45 fc	 mov	 eax, DWORD PTR _this$[ebp]
  00041	c6 40 1c 01	 mov	 BYTE PTR [eax+28], 1
$LN1@operator:

; 300  : 			}
; 301  : 		}
; 302  : 	}

  00045	c9		 leave
  00046	c2 04 00	 ret	 4
??RFCheckBackgroundDuringFlying@@QAEXPAVCGraphicObjectInstance@@@Z ENDP ; FCheckBackgroundDuringFlying::operator()
_TEXT	ENDS
; Function compile flags: /Odspy
;	COMDAT ??__F?ms_kPool@CFlyingInstance@@2V?$CDynamicPool@VCFlyingInstance@@@@A@@YAXXZ
text$yd	SEGMENT
??__F?ms_kPool@CFlyingInstance@@2V?$CDynamicPool@VCFlyingInstance@@@@A@@YAXXZ PROC ; `dynamic atexit destructor for 'CFlyingInstance::ms_kPool'', COMDAT
  00000	55		 push	 ebp
  00001	8b ec		 mov	 ebp, esp
  00003	b9 00 00 00 00	 mov	 ecx, OFFSET ?ms_kPool@CFlyingInstance@@2V?$CDynamicPool@VCFlyingInstance@@@@A ; CFlyingInstance::ms_kPool
  00008	e8 00 00 00 00	 call	 ??1?$CDynamicPool@VCFlyingInstance@@@@UAE@XZ ; CDynamicPool<CFlyingInstance>::~CDynamicPool<CFlyingInstance>
  0000d	5d		 pop	 ebp
  0000e	c3		 ret	 0
??__F?ms_kPool@CFlyingInstance@@2V?$CDynamicPool@VCFlyingInstance@@@@A@@YAXXZ ENDP ; `dynamic atexit destructor for 'CFlyingInstance::ms_kPool''
text$yd	ENDS
; Function compile flags: /Odspy
; File D:\Metin2 Server Files\mainline\SRC_2014\Metin2Client\GameLib\FlyingInstance.cpp
;	COMDAT ??__E?ms_kPool@CFlyingInstance@@2V?$CDynamicPool@VCFlyingInstance@@@@A@@YAXXZ
text$di	SEGMENT
??__E?ms_kPool@CFlyingInstance@@2V?$CDynamicPool@VCFlyingInstance@@@@A@@YAXXZ PROC ; `dynamic initializer for 'CFlyingInstance::ms_kPool'', COMDAT

; 14   : CDynamicPool<CFlyingInstance> CFlyingInstance::ms_kPool;

  00000	55		 push	 ebp
  00001	8b ec		 mov	 ebp, esp
  00003	b9 00 00 00 00	 mov	 ecx, OFFSET ?ms_kPool@CFlyingInstance@@2V?$CDynamicPool@VCFlyingInstance@@@@A ; CFlyingInstance::ms_kPool
  00008	e8 00 00 00 00	 call	 ??0?$CDynamicPool@VCFlyingInstance@@@@QAE@XZ ; CDynamicPool<CFlyingInstance>::CDynamicPool<CFlyingInstance>
  0000d	68 00 00 00 00	 push	 OFFSET ??__F?ms_kPool@CFlyingInstance@@2V?$CDynamicPool@VCFlyingInstance@@@@A@@YAXXZ ; `dynamic atexit destructor for 'CFlyingInstance::ms_kPool''
  00012	e8 00 00 00 00	 call	 _atexit
  00017	59		 pop	 ecx
  00018	5d		 pop	 ebp
  00019	c3		 ret	 0
??__E?ms_kPool@CFlyingInstance@@2V?$CDynamicPool@VCFlyingInstance@@@@A@@YAXXZ ENDP ; `dynamic initializer for 'CFlyingInstance::ms_kPool''
text$di	ENDS
; Function compile flags: /Odspy
;	COMDAT ??_G?$CDynamicPool@VCFlyingInstance@@@@UAEPAXI@Z
_TEXT	SEGMENT
_this$ = -4						; size = 4
___flags$ = 8						; size = 4
??_G?$CDynamicPool@VCFlyingInstance@@@@UAEPAXI@Z PROC	; CDynamicPool<CFlyingInstance>::`scalar deleting destructor', COMDAT
; _this$ = ecx
  00000	55		 push	 ebp
  00001	8b ec		 mov	 ebp, esp
  00003	51		 push	 ecx
  00004	89 4d fc	 mov	 DWORD PTR _this$[ebp], ecx
  00007	8b 4d fc	 mov	 ecx, DWORD PTR _this$[ebp]
  0000a	e8 00 00 00 00	 call	 ??1?$CDynamicPool@VCFlyingInstance@@@@UAE@XZ ; CDynamicPool<CFlyingInstance>::~CDynamicPool<CFlyingInstance>
  0000f	8b 45 08	 mov	 eax, DWORD PTR ___flags$[ebp]
  00012	83 e0 01	 and	 eax, 1
  00015	74 0c		 je	 SHORT $LN2@scalar
  00017	6a 24		 push	 36			; 00000024H
  00019	ff 75 fc	 push	 DWORD PTR _this$[ebp]
  0001c	e8 00 00 00 00	 call	 ??3@YAXPAXI@Z		; operator delete
  00021	59		 pop	 ecx
  00022	59		 pop	 ecx
$LN2@scalar:
  00023	8b 45 fc	 mov	 eax, DWORD PTR _this$[ebp]
  00026	c9		 leave
  00027	c2 04 00	 ret	 4
??_G?$CDynamicPool@VCFlyingInstance@@@@UAEPAXI@Z ENDP	; CDynamicPool<CFlyingInstance>::`scalar deleting destructor'
_TEXT	ENDS
; Function compile flags: /Odspy
; File C:\Program Files (x86)\Microsoft Visual Studio\2019\Community\VC\Tools\MSVC\14.28.29333\include\vector
; File C:\Program Files (x86)\Microsoft Visual Studio\2019\Community\VC\Tools\MSVC\14.28.29333\include\xmemory
; File C:\Program Files (x86)\Microsoft Visual Studio\2019\Community\VC\Tools\MSVC\14.28.29333\include\vector
; File C:\Program Files (x86)\Microsoft Visual Studio\2019\Community\VC\Tools\MSVC\14.28.29333\include\xmemory
; File C:\Program Files (x86)\Microsoft Visual Studio\2019\Community\VC\Tools\MSVC\14.28.29333\include\vector
; File C:\Program Files (x86)\Microsoft Visual Studio\2019\Community\VC\Tools\MSVC\14.28.29333\include\xmemory
; File C:\Program Files (x86)\Microsoft Visual Studio\2019\Community\VC\Tools\MSVC\14.28.29333\include\vector
;	COMDAT ?_Tidy@?$vector@PAVCFlyingInstance@@V?$allocator@PAVCFlyingInstance@@@std@@@std@@AAEXXZ
_TEXT	SEGMENT
$T1 = -52						; size = 4
__Ptr$ = -48						; size = 4
__Count$ = -44						; size = 4
$T2 = -40						; size = 4
__First$ = -36						; size = 4
__Last$ = -32						; size = 4
$T3 = -28						; size = 4
$T4 = -24						; size = 4
__Myend$ = -20						; size = 4
__Mylast$ = -16						; size = 4
_this$ = -12						; size = 4
__My_data$ = -8						; size = 4
__Myfirst$ = -4						; size = 4
?_Tidy@?$vector@PAVCFlyingInstance@@V?$allocator@PAVCFlyingInstance@@@std@@@std@@AAEXXZ PROC ; std::vector<CFlyingInstance *,std::allocator<CFlyingInstance *> >::_Tidy, COMDAT
; _this$ = ecx

; 1686 :     void _Tidy() noexcept { // free all storage

  00000	55		 push	 ebp
  00001	8b ec		 mov	 ebp, esp
  00003	83 ec 34	 sub	 esp, 52			; 00000034H
  00006	89 4d f4	 mov	 DWORD PTR _this$[ebp], ecx

; 1687 :         auto& _My_data    = _Mypair._Myval2;

  00009	8b 45 f4	 mov	 eax, DWORD PTR _this$[ebp]
  0000c	89 45 f8	 mov	 DWORD PTR __My_data$[ebp], eax

; 1688 :         pointer& _Myfirst = _My_data._Myfirst;

  0000f	8b 45 f8	 mov	 eax, DWORD PTR __My_data$[ebp]
  00012	89 45 fc	 mov	 DWORD PTR __Myfirst$[ebp], eax

; 1689 :         pointer& _Mylast  = _My_data._Mylast;

  00015	8b 45 f8	 mov	 eax, DWORD PTR __My_data$[ebp]
  00018	83 c0 04	 add	 eax, 4
  0001b	89 45 f0	 mov	 DWORD PTR __Mylast$[ebp], eax

; 1690 :         pointer& _Myend   = _My_data._Myend;

  0001e	8b 45 f8	 mov	 eax, DWORD PTR __My_data$[ebp]
  00021	83 c0 08	 add	 eax, 8
  00024	89 45 ec	 mov	 DWORD PTR __Myend$[ebp], eax

; 1691 : 
; 1692 :         _My_data._Orphan_all();
; 1693 : 
; 1694 :         if (_Myfirst) { // destroy and deallocate old array

  00027	8b 45 fc	 mov	 eax, DWORD PTR __Myfirst$[ebp]
  0002a	83 38 00	 cmp	 DWORD PTR [eax], 0
  0002d	74 74		 je	 SHORT $LN3@Tidy

; 1695 :             _Destroy(_Myfirst, _Mylast);

  0002f	8b 45 f0	 mov	 eax, DWORD PTR __Mylast$[ebp]
  00032	8b 00		 mov	 eax, DWORD PTR [eax]
  00034	89 45 e0	 mov	 DWORD PTR __Last$[ebp], eax
  00037	8b 45 fc	 mov	 eax, DWORD PTR __Myfirst$[ebp]
  0003a	8b 00		 mov	 eax, DWORD PTR [eax]
  0003c	89 45 dc	 mov	 DWORD PTR __First$[ebp], eax

; 1733 :         return _Mypair._Get_first();

  0003f	8b 45 f4	 mov	 eax, DWORD PTR _this$[ebp]
; File C:\Program Files (x86)\Microsoft Visual Studio\2019\Community\VC\Tools\MSVC\14.28.29333\include\xmemory

; 1347 :         return *this;

  00042	89 45 e8	 mov	 DWORD PTR $T4[ebp], eax
; File C:\Program Files (x86)\Microsoft Visual Studio\2019\Community\VC\Tools\MSVC\14.28.29333\include\vector

; 1733 :         return _Mypair._Get_first();

  00045	8b 45 e8	 mov	 eax, DWORD PTR $T4[ebp]
  00048	89 45 e4	 mov	 DWORD PTR $T3[ebp], eax

; 1612 :         _Destroy_range(_First, _Last, _Getal());

  0004b	ff 75 e4	 push	 DWORD PTR $T3[ebp]
  0004e	ff 75 e0	 push	 DWORD PTR __Last$[ebp]
  00051	ff 75 dc	 push	 DWORD PTR __First$[ebp]
  00054	e8 00 00 00 00	 call	 ??$_Destroy_range@V?$allocator@PAVCFlyingInstance@@@std@@@std@@YAXPAPAVCFlyingInstance@@QAPAV1@AAV?$allocator@PAVCFlyingInstance@@@0@@Z ; std::_Destroy_range<std::allocator<CFlyingInstance *> >
  00059	83 c4 0c	 add	 esp, 12			; 0000000cH

; 1733 :         return _Mypair._Get_first();

  0005c	8b 45 f4	 mov	 eax, DWORD PTR _this$[ebp]
; File C:\Program Files (x86)\Microsoft Visual Studio\2019\Community\VC\Tools\MSVC\14.28.29333\include\xmemory

; 1347 :         return *this;

  0005f	89 45 d8	 mov	 DWORD PTR $T2[ebp], eax
; File C:\Program Files (x86)\Microsoft Visual Studio\2019\Community\VC\Tools\MSVC\14.28.29333\include\vector

; 1733 :         return _Mypair._Get_first();

  00062	8b 45 d8	 mov	 eax, DWORD PTR $T2[ebp]
  00065	89 45 cc	 mov	 DWORD PTR $T1[ebp], eax

; 1696 :             _Getal().deallocate(_Myfirst, static_cast<size_type>(_Myend - _Myfirst));

  00068	8b 45 ec	 mov	 eax, DWORD PTR __Myend$[ebp]
  0006b	8b 4d fc	 mov	 ecx, DWORD PTR __Myfirst$[ebp]
  0006e	8b 00		 mov	 eax, DWORD PTR [eax]
  00070	2b 01		 sub	 eax, DWORD PTR [ecx]
  00072	c1 f8 02	 sar	 eax, 2
  00075	89 45 d4	 mov	 DWORD PTR __Count$[ebp], eax
  00078	8b 45 fc	 mov	 eax, DWORD PTR __Myfirst$[ebp]
  0007b	8b 00		 mov	 eax, DWORD PTR [eax]
  0007d	89 45 d0	 mov	 DWORD PTR __Ptr$[ebp], eax
; File C:\Program Files (x86)\Microsoft Visual Studio\2019\Community\VC\Tools\MSVC\14.28.29333\include\xmemory

; 810  :         _Deallocate<_New_alignof<_Ty>>(_Ptr, sizeof(_Ty) * _Count);

  00080	8b 45 d4	 mov	 eax, DWORD PTR __Count$[ebp]
  00083	c1 e0 02	 shl	 eax, 2
  00086	50		 push	 eax
  00087	ff 75 d0	 push	 DWORD PTR __Ptr$[ebp]
  0008a	e8 00 00 00 00	 call	 ??$_Deallocate@$07$0A@@std@@YAXPAXI@Z ; std::_Deallocate<8,0>
  0008f	59		 pop	 ecx
  00090	59		 pop	 ecx
; File C:\Program Files (x86)\Microsoft Visual Studio\2019\Community\VC\Tools\MSVC\14.28.29333\include\vector

; 1698 :             _Myfirst = pointer();

  00091	8b 45 fc	 mov	 eax, DWORD PTR __Myfirst$[ebp]
  00094	83 20 00	 and	 DWORD PTR [eax], 0

; 1699 :             _Mylast  = pointer();

  00097	8b 45 f0	 mov	 eax, DWORD PTR __Mylast$[ebp]
  0009a	83 20 00	 and	 DWORD PTR [eax], 0

; 1700 :             _Myend   = pointer();

  0009d	8b 45 ec	 mov	 eax, DWORD PTR __Myend$[ebp]
  000a0	83 20 00	 and	 DWORD PTR [eax], 0
$LN3@Tidy:

; 1701 :         }
; 1702 :     }

  000a3	c9		 leave
  000a4	c3		 ret	 0
?_Tidy@?$vector@PAVCFlyingInstance@@V?$allocator@PAVCFlyingInstance@@@std@@@std@@AAEXXZ ENDP ; std::vector<CFlyingInstance *,std::allocator<CFlyingInstance *> >::_Tidy
_TEXT	ENDS
; Function compile flags: /Odspy
; File D:\Metin2 Server Files\mainline\SRC_2014\Metin2Client\eterLib\Pool.h
; File C:\Program Files (x86)\Microsoft Visual Studio\2019\Community\VC\Tools\MSVC\14.28.29333\include\vector
; File D:\Metin2 Server Files\mainline\SRC_2014\Metin2Client\eterLib\Pool.h
; File C:\Program Files (x86)\Microsoft Visual Studio\2019\Community\VC\Tools\MSVC\14.28.29333\include\vector
; File D:\Metin2 Server Files\mainline\SRC_2014\Metin2Client\eterLib\Pool.h
;	COMDAT ??1?$CDynamicPool@VCFlyingInstance@@@@UAE@XZ
_TEXT	SEGMENT
_this$ = -4						; size = 4
??1?$CDynamicPool@VCFlyingInstance@@@@UAE@XZ PROC	; CDynamicPool<CFlyingInstance>::~CDynamicPool<CFlyingInstance>, COMDAT
; _this$ = ecx

; 18   : 		{

  00000	55		 push	 ebp
  00001	8b ec		 mov	 ebp, esp
  00003	51		 push	 ecx
  00004	89 4d fc	 mov	 DWORD PTR _this$[ebp], ecx
  00007	8b 45 fc	 mov	 eax, DWORD PTR _this$[ebp]
  0000a	c7 00 00 00 00
	00		 mov	 DWORD PTR [eax], OFFSET ??_7?$CDynamicPool@VCFlyingInstance@@@@6B@

; 26   : 		}

  00010	8b 4d fc	 mov	 ecx, DWORD PTR _this$[ebp]
  00013	83 c1 10	 add	 ecx, 16			; 00000010H
; File C:\Program Files (x86)\Microsoft Visual Studio\2019\Community\VC\Tools\MSVC\14.28.29333\include\vector

; 673  :         _Tidy();

  00016	e8 00 00 00 00	 call	 ?_Tidy@?$vector@PAVCFlyingInstance@@V?$allocator@PAVCFlyingInstance@@@std@@@std@@AAEXXZ ; std::vector<CFlyingInstance *,std::allocator<CFlyingInstance *> >::_Tidy
; File D:\Metin2 Server Files\mainline\SRC_2014\Metin2Client\eterLib\Pool.h

; 26   : 		}

  0001b	8b 4d fc	 mov	 ecx, DWORD PTR _this$[ebp]
  0001e	83 c1 04	 add	 ecx, 4
; File C:\Program Files (x86)\Microsoft Visual Studio\2019\Community\VC\Tools\MSVC\14.28.29333\include\vector

; 673  :         _Tidy();

  00021	e8 00 00 00 00	 call	 ?_Tidy@?$vector@PAVCFlyingInstance@@V?$allocator@PAVCFlyingInstance@@@std@@@std@@AAEXXZ ; std::vector<CFlyingInstance *,std::allocator<CFlyingInstance *> >::_Tidy
; File D:\Metin2 Server Files\mainline\SRC_2014\Metin2Client\eterLib\Pool.h

; 26   : 		}

  00026	c9		 leave
  00027	c3		 ret	 0
??1?$CDynamicPool@VCFlyingInstance@@@@UAE@XZ ENDP	; CDynamicPool<CFlyingInstance>::~CDynamicPool<CFlyingInstance>
_TEXT	ENDS
; Function compile flags: /Odspy
; File D:\Metin2 Server Files\mainline\SRC_2014\Metin2Client\eterLib\Pool.h
; File C:\Program Files (x86)\Microsoft Visual Studio\2019\Community\VC\Tools\MSVC\14.28.29333\include\vector
; File C:\Program Files (x86)\Microsoft Visual Studio\2019\Community\VC\Tools\MSVC\14.28.29333\include\xmemory
; File C:\Program Files (x86)\Microsoft Visual Studio\2019\Community\VC\Tools\MSVC\14.28.29333\include\vector
; File D:\Metin2 Server Files\mainline\SRC_2014\Metin2Client\eterLib\Pool.h
; File C:\Program Files (x86)\Microsoft Visual Studio\2019\Community\VC\Tools\MSVC\14.28.29333\include\vector
; File C:\Program Files (x86)\Microsoft Visual Studio\2019\Community\VC\Tools\MSVC\14.28.29333\include\xmemory
; File C:\Program Files (x86)\Microsoft Visual Studio\2019\Community\VC\Tools\MSVC\14.28.29333\include\vector
; File D:\Metin2 Server Files\mainline\SRC_2014\Metin2Client\eterLib\Pool.h
;	COMDAT ??0?$CDynamicPool@VCFlyingInstance@@@@QAE@XZ
_TEXT	SEGMENT
_this$ = -28						; size = 4
_this$ = -24						; size = 4
_this$ = -20						; size = 4
_this$ = -16						; size = 4
_this$1 = -12						; size = 4
_this$2 = -8						; size = 4
_this$ = -4						; size = 4
??0?$CDynamicPool@VCFlyingInstance@@@@QAE@XZ PROC	; CDynamicPool<CFlyingInstance>::CDynamicPool<CFlyingInstance>, COMDAT
; _this$ = ecx

; 11   : 		CDynamicPool()

  00000	55		 push	 ebp
  00001	8b ec		 mov	 ebp, esp
  00003	83 ec 1c	 sub	 esp, 28			; 0000001cH
  00006	89 4d fc	 mov	 DWORD PTR _this$[ebp], ecx

; 12   : 		{

  00009	8b 45 fc	 mov	 eax, DWORD PTR _this$[ebp]
  0000c	c7 00 00 00 00
	00		 mov	 DWORD PTR [eax], OFFSET ??_7?$CDynamicPool@VCFlyingInstance@@@@6B@
  00012	8b 45 fc	 mov	 eax, DWORD PTR _this$[ebp]
  00015	83 c0 04	 add	 eax, 4
  00018	89 45 f0	 mov	 DWORD PTR _this$[ebp], eax
; File C:\Program Files (x86)\Microsoft Visual Studio\2019\Community\VC\Tools\MSVC\14.28.29333\include\vector

; 445  :     vector() noexcept(is_nothrow_default_constructible_v<_Alty>) : _Mypair(_Zero_then_variadic_args_t{}) {

  0001b	8b 45 f0	 mov	 eax, DWORD PTR _this$[ebp]
  0001e	89 45 ec	 mov	 DWORD PTR _this$[ebp], eax
; File C:\Program Files (x86)\Microsoft Visual Studio\2019\Community\VC\Tools\MSVC\14.28.29333\include\xmemory

; 1339 :         : _Ty1(), _Myval2(_STD forward<_Other2>(_Val2)...) {}

  00021	8b 45 ec	 mov	 eax, DWORD PTR _this$[ebp]
  00024	89 45 f8	 mov	 DWORD PTR _this$2[ebp], eax
; File C:\Program Files (x86)\Microsoft Visual Studio\2019\Community\VC\Tools\MSVC\14.28.29333\include\vector

; 375  :     _Vector_val() noexcept : _Myfirst(), _Mylast(), _Myend() {}

  00027	8b 45 f8	 mov	 eax, DWORD PTR _this$2[ebp]
  0002a	83 20 00	 and	 DWORD PTR [eax], 0
  0002d	8b 45 f8	 mov	 eax, DWORD PTR _this$2[ebp]
  00030	83 60 04 00	 and	 DWORD PTR [eax+4], 0
  00034	8b 45 f8	 mov	 eax, DWORD PTR _this$2[ebp]
  00037	83 60 08 00	 and	 DWORD PTR [eax+8], 0
; File D:\Metin2 Server Files\mainline\SRC_2014\Metin2Client\eterLib\Pool.h

; 12   : 		{

  0003b	8b 45 fc	 mov	 eax, DWORD PTR _this$[ebp]
  0003e	83 c0 10	 add	 eax, 16			; 00000010H
  00041	89 45 e8	 mov	 DWORD PTR _this$[ebp], eax
; File C:\Program Files (x86)\Microsoft Visual Studio\2019\Community\VC\Tools\MSVC\14.28.29333\include\vector

; 445  :     vector() noexcept(is_nothrow_default_constructible_v<_Alty>) : _Mypair(_Zero_then_variadic_args_t{}) {

  00044	8b 45 e8	 mov	 eax, DWORD PTR _this$[ebp]
  00047	89 45 e4	 mov	 DWORD PTR _this$[ebp], eax
; File C:\Program Files (x86)\Microsoft Visual Studio\2019\Community\VC\Tools\MSVC\14.28.29333\include\xmemory

; 1339 :         : _Ty1(), _Myval2(_STD forward<_Other2>(_Val2)...) {}

  0004a	8b 45 e4	 mov	 eax, DWORD PTR _this$[ebp]
  0004d	89 45 f4	 mov	 DWORD PTR _this$1[ebp], eax
; File C:\Program Files (x86)\Microsoft Visual Studio\2019\Community\VC\Tools\MSVC\14.28.29333\include\vector

; 375  :     _Vector_val() noexcept : _Myfirst(), _Mylast(), _Myend() {}

  00050	8b 45 f4	 mov	 eax, DWORD PTR _this$1[ebp]
  00053	83 20 00	 and	 DWORD PTR [eax], 0
  00056	8b 45 f4	 mov	 eax, DWORD PTR _this$1[ebp]
  00059	83 60 04 00	 and	 DWORD PTR [eax+4], 0
  0005d	8b 45 f4	 mov	 eax, DWORD PTR _this$1[ebp]
  00060	83 60 08 00	 and	 DWORD PTR [eax+8], 0
; File D:\Metin2 Server Files\mainline\SRC_2014\Metin2Client\eterLib\Pool.h

; 14   : 			m_uInitCapacity=0;

  00064	8b 45 fc	 mov	 eax, DWORD PTR _this$[ebp]
  00067	83 60 1c 00	 and	 DWORD PTR [eax+28], 0

; 15   : 			m_uUsedCapacity=0;

  0006b	8b 45 fc	 mov	 eax, DWORD PTR _this$[ebp]
  0006e	83 60 20 00	 and	 DWORD PTR [eax+32], 0

; 16   : 		}

  00072	8b 45 fc	 mov	 eax, DWORD PTR _this$[ebp]
  00075	c9		 leave
  00076	c3		 ret	 0
??0?$CDynamicPool@VCFlyingInstance@@@@QAE@XZ ENDP	; CDynamicPool<CFlyingInstance>::CDynamicPool<CFlyingInstance>
_TEXT	ENDS
; Function compile flags: /Odspy
;	COMDAT ??_GCFlyingInstance@@UAEPAXI@Z
_TEXT	SEGMENT
_this$ = -4						; size = 4
___flags$ = 8						; size = 4
??_GCFlyingInstance@@UAEPAXI@Z PROC			; CFlyingInstance::`scalar deleting destructor', COMDAT
; _this$ = ecx
  00000	55		 push	 ebp
  00001	8b ec		 mov	 ebp, esp
  00003	51		 push	 ecx
  00004	89 4d fc	 mov	 DWORD PTR _this$[ebp], ecx
  00007	8b 4d fc	 mov	 ecx, DWORD PTR _this$[ebp]
  0000a	e8 00 00 00 00	 call	 ??1CFlyingInstance@@UAE@XZ ; CFlyingInstance::~CFlyingInstance
  0000f	8b 45 08	 mov	 eax, DWORD PTR ___flags$[ebp]
  00012	83 e0 01	 and	 eax, 1
  00015	74 0f		 je	 SHORT $LN2@scalar
  00017	68 a8 00 00 00	 push	 168			; 000000a8H
  0001c	ff 75 fc	 push	 DWORD PTR _this$[ebp]
  0001f	e8 00 00 00 00	 call	 ??3@YAXPAXI@Z		; operator delete
  00024	59		 pop	 ecx
  00025	59		 pop	 ecx
$LN2@scalar:
  00026	8b 45 fc	 mov	 eax, DWORD PTR _this$[ebp]
  00029	c9		 leave
  0002a	c2 04 00	 ret	 4
??_GCFlyingInstance@@UAEPAXI@Z ENDP			; CFlyingInstance::`scalar deleting destructor'
_TEXT	ENDS
; Function compile flags: /Odspy
;	COMDAT ??1?$set@PAVIActorInstance@@U?$less@PAVIActorInstance@@@std@@V?$allocator@PAVIActorInstance@@@3@@std@@QAE@XZ
_TEXT	SEGMENT
_this$ = -4						; size = 4
??1?$set@PAVIActorInstance@@U?$less@PAVIActorInstance@@@std@@V?$allocator@PAVIActorInstance@@@3@@std@@QAE@XZ PROC ; std::set<IActorInstance *,std::less<IActorInstance *>,std::allocator<IActorInstance *> >::~set<IActorInstance *,std::less<IActorInstance *>,std::allocator<IActorInstance *> >, COMDAT
; _this$ = ecx
  00000	55		 push	 ebp
  00001	8b ec		 mov	 ebp, esp
  00003	51		 push	 ecx
  00004	89 4d fc	 mov	 DWORD PTR _this$[ebp], ecx
  00007	8b 4d fc	 mov	 ecx, DWORD PTR _this$[ebp]
  0000a	e8 00 00 00 00	 call	 ??1?$_Tree@V?$_Tset_traits@PAVIActorInstance@@U?$less@PAVIActorInstance@@@std@@V?$allocator@PAVIActorInstance@@@3@$0A@@std@@@std@@QAE@XZ ; std::_Tree<std::_Tset_traits<IActorInstance *,std::less<IActorInstance *>,std::allocator<IActorInstance *>,0> >::~_Tree<std::_Tset_traits<IActorInstance *,std::less<IActorInstance *>,std::allocator<IActorInstance *>,0> >
  0000f	c9		 leave
  00010	c3		 ret	 0
??1?$set@PAVIActorInstance@@U?$less@PAVIActorInstance@@@std@@V?$allocator@PAVIActorInstance@@@3@@std@@QAE@XZ ENDP ; std::set<IActorInstance *,std::less<IActorInstance *>,std::allocator<IActorInstance *> >::~set<IActorInstance *,std::less<IActorInstance *>,std::allocator<IActorInstance *> >
_TEXT	ENDS
; Function compile flags: /Odspy
; File C:\Program Files (x86)\Microsoft Visual Studio\2019\Community\VC\Tools\MSVC\14.28.29333\include\xtree
;	COMDAT ?_Insert_node@?$_Tree_val@U?$_Tree_simple_types@PAVIActorInstance@@@std@@@std@@QAEPAU?$_Tree_node@PAVIActorInstance@@PAX@2@U?$_Tree_id@PAU?$_Tree_node@PAVIActorInstance@@PAX@std@@@2@QAU32@@Z
_TEXT	SEGMENT
__Parent_sibling$1 = -20				; size = 4
__Parent_sibling$2 = -16				; size = 4
_this$ = -12						; size = 4
__Head$ = -8						; size = 4
__Pnode$3 = -4						; size = 4
__Loc$ = 8						; size = 8
__Newnode$ = 16						; size = 4
?_Insert_node@?$_Tree_val@U?$_Tree_simple_types@PAVIActorInstance@@@std@@@std@@QAEPAU?$_Tree_node@PAVIActorInstance@@PAX@2@U?$_Tree_id@PAU?$_Tree_node@PAVIActorInstance@@PAX@std@@@2@QAU32@@Z PROC ; std::_Tree_val<std::_Tree_simple_types<IActorInstance *> >::_Insert_node, COMDAT
; _this$ = ecx

; 644  :     _Nodeptr _Insert_node(const _Tree_id<_Nodeptr> _Loc, const _Nodeptr _Newnode) noexcept {

  00000	55		 push	 ebp
  00001	8b ec		 mov	 ebp, esp
  00003	83 ec 14	 sub	 esp, 20			; 00000014H
  00006	89 4d f4	 mov	 DWORD PTR _this$[ebp], ecx

; 645  :         ++_Mysize;

  00009	8b 45 f4	 mov	 eax, DWORD PTR _this$[ebp]
  0000c	8b 40 04	 mov	 eax, DWORD PTR [eax+4]
  0000f	40		 inc	 eax
  00010	8b 4d f4	 mov	 ecx, DWORD PTR _this$[ebp]
  00013	89 41 04	 mov	 DWORD PTR [ecx+4], eax

; 646  :         const auto _Head  = _Myhead;

  00016	8b 45 f4	 mov	 eax, DWORD PTR _this$[ebp]
  00019	8b 00		 mov	 eax, DWORD PTR [eax]
  0001b	89 45 f8	 mov	 DWORD PTR __Head$[ebp], eax

; 647  :         _Newnode->_Parent = _Loc._Parent;

  0001e	8b 45 10	 mov	 eax, DWORD PTR __Newnode$[ebp]
  00021	8b 4d 08	 mov	 ecx, DWORD PTR __Loc$[ebp]
  00024	89 48 04	 mov	 DWORD PTR [eax+4], ecx

; 648  :         if (_Loc._Parent == _Head) { // first node in tree, just set head values

  00027	8b 45 08	 mov	 eax, DWORD PTR __Loc$[ebp]
  0002a	3b 45 f8	 cmp	 eax, DWORD PTR __Head$[ebp]
  0002d	75 29		 jne	 SHORT $LN5@Insert_nod

; 649  :             _Head->_Left     = _Newnode;

  0002f	8b 45 f8	 mov	 eax, DWORD PTR __Head$[ebp]
  00032	8b 4d 10	 mov	 ecx, DWORD PTR __Newnode$[ebp]
  00035	89 08		 mov	 DWORD PTR [eax], ecx

; 650  :             _Head->_Parent   = _Newnode;

  00037	8b 45 f8	 mov	 eax, DWORD PTR __Head$[ebp]
  0003a	8b 4d 10	 mov	 ecx, DWORD PTR __Newnode$[ebp]
  0003d	89 48 04	 mov	 DWORD PTR [eax+4], ecx

; 651  :             _Head->_Right    = _Newnode;

  00040	8b 45 f8	 mov	 eax, DWORD PTR __Head$[ebp]
  00043	8b 4d 10	 mov	 ecx, DWORD PTR __Newnode$[ebp]
  00046	89 48 08	 mov	 DWORD PTR [eax+8], ecx

; 652  :             _Newnode->_Color = _Black; // the root is black

  00049	8b 45 10	 mov	 eax, DWORD PTR __Newnode$[ebp]
  0004c	c6 40 0c 01	 mov	 BYTE PTR [eax+12], 1

; 653  :             return _Newnode;

  00050	8b 45 10	 mov	 eax, DWORD PTR __Newnode$[ebp]
  00053	e9 a3 01 00 00	 jmp	 $LN18@Insert_nod
$LN5@Insert_nod:

; 654  :         }
; 655  : 
; 656  :         _STL_INTERNAL_CHECK(_Loc._Child != _Tree_child::_Unused);
; 657  :         if (_Loc._Child == _Tree_child::_Right) { // add to right of _Loc._Parent

  00058	83 7d 0c 00	 cmp	 DWORD PTR __Loc$[ebp+4], 0
  0005c	75 1f		 jne	 SHORT $LN6@Insert_nod

; 658  :             _STL_INTERNAL_CHECK(_Loc._Parent->_Right->_Isnil);
; 659  :             _Loc._Parent->_Right = _Newnode;

  0005e	8b 45 08	 mov	 eax, DWORD PTR __Loc$[ebp]
  00061	8b 4d 10	 mov	 ecx, DWORD PTR __Newnode$[ebp]
  00064	89 48 08	 mov	 DWORD PTR [eax+8], ecx

; 660  :             if (_Loc._Parent == _Head->_Right) { // remember rightmost node

  00067	8b 45 f8	 mov	 eax, DWORD PTR __Head$[ebp]
  0006a	8b 4d 08	 mov	 ecx, DWORD PTR __Loc$[ebp]
  0006d	3b 48 08	 cmp	 ecx, DWORD PTR [eax+8]
  00070	75 09		 jne	 SHORT $LN8@Insert_nod

; 661  :                 _Head->_Right = _Newnode;

  00072	8b 45 f8	 mov	 eax, DWORD PTR __Head$[ebp]
  00075	8b 4d 10	 mov	 ecx, DWORD PTR __Newnode$[ebp]
  00078	89 48 08	 mov	 DWORD PTR [eax+8], ecx
$LN8@Insert_nod:

; 662  :             }
; 663  :         } else { // add to left of _Loc._Parent

  0007b	eb 1a		 jmp	 SHORT $LN7@Insert_nod
$LN6@Insert_nod:

; 664  :             _STL_INTERNAL_CHECK(_Loc._Parent->_Left->_Isnil);
; 665  :             _Loc._Parent->_Left = _Newnode;

  0007d	8b 45 08	 mov	 eax, DWORD PTR __Loc$[ebp]
  00080	8b 4d 10	 mov	 ecx, DWORD PTR __Newnode$[ebp]
  00083	89 08		 mov	 DWORD PTR [eax], ecx

; 666  :             if (_Loc._Parent == _Head->_Left) { // remember leftmost node

  00085	8b 45 f8	 mov	 eax, DWORD PTR __Head$[ebp]
  00088	8b 4d 08	 mov	 ecx, DWORD PTR __Loc$[ebp]
  0008b	3b 08		 cmp	 ecx, DWORD PTR [eax]
  0008d	75 08		 jne	 SHORT $LN7@Insert_nod

; 667  :                 _Head->_Left = _Newnode;

  0008f	8b 45 f8	 mov	 eax, DWORD PTR __Head$[ebp]
  00092	8b 4d 10	 mov	 ecx, DWORD PTR __Newnode$[ebp]
  00095	89 08		 mov	 DWORD PTR [eax], ecx
$LN7@Insert_nod:

; 668  :             }
; 669  :         }
; 670  : 
; 671  :         for (_Nodeptr _Pnode = _Newnode; _Pnode->_Parent->_Color == _Red;) {

  00097	8b 45 10	 mov	 eax, DWORD PTR __Newnode$[ebp]
  0009a	89 45 fc	 mov	 DWORD PTR __Pnode$3[ebp], eax
$LN4@Insert_nod:
  0009d	8b 45 fc	 mov	 eax, DWORD PTR __Pnode$3[ebp]
  000a0	8b 40 04	 mov	 eax, DWORD PTR [eax+4]
  000a3	0f be 40 0c	 movsx	 eax, BYTE PTR [eax+12]
  000a7	85 c0		 test	 eax, eax
  000a9	0f 85 3f 01 00
	00		 jne	 $LN3@Insert_nod

; 672  :             if (_Pnode->_Parent == _Pnode->_Parent->_Parent->_Left) { // fixup red-red in left subtree

  000af	8b 45 fc	 mov	 eax, DWORD PTR __Pnode$3[ebp]
  000b2	8b 40 04	 mov	 eax, DWORD PTR [eax+4]
  000b5	8b 40 04	 mov	 eax, DWORD PTR [eax+4]
  000b8	8b 4d fc	 mov	 ecx, DWORD PTR __Pnode$3[ebp]
  000bb	8b 49 04	 mov	 ecx, DWORD PTR [ecx+4]
  000be	3b 08		 cmp	 ecx, DWORD PTR [eax]
  000c0	0f 85 95 00 00
	00		 jne	 $LN10@Insert_nod

; 673  :                 const auto _Parent_sibling = _Pnode->_Parent->_Parent->_Right;

  000c6	8b 45 fc	 mov	 eax, DWORD PTR __Pnode$3[ebp]
  000c9	8b 40 04	 mov	 eax, DWORD PTR [eax+4]
  000cc	8b 40 04	 mov	 eax, DWORD PTR [eax+4]
  000cf	8b 40 08	 mov	 eax, DWORD PTR [eax+8]
  000d2	89 45 f0	 mov	 DWORD PTR __Parent_sibling$2[ebp], eax

; 674  :                 if (_Parent_sibling->_Color == _Red) { // parent's sibling has two red children, blacken both

  000d5	8b 45 f0	 mov	 eax, DWORD PTR __Parent_sibling$2[ebp]
  000d8	0f be 40 0c	 movsx	 eax, BYTE PTR [eax+12]
  000dc	85 c0		 test	 eax, eax
  000de	75 2c		 jne	 SHORT $LN12@Insert_nod

; 675  :                     _Pnode->_Parent->_Color          = _Black;

  000e0	8b 45 fc	 mov	 eax, DWORD PTR __Pnode$3[ebp]
  000e3	8b 40 04	 mov	 eax, DWORD PTR [eax+4]
  000e6	c6 40 0c 01	 mov	 BYTE PTR [eax+12], 1

; 676  :                     _Parent_sibling->_Color          = _Black;

  000ea	8b 45 f0	 mov	 eax, DWORD PTR __Parent_sibling$2[ebp]
  000ed	c6 40 0c 01	 mov	 BYTE PTR [eax+12], 1

; 677  :                     _Pnode->_Parent->_Parent->_Color = _Red;

  000f1	8b 45 fc	 mov	 eax, DWORD PTR __Pnode$3[ebp]
  000f4	8b 40 04	 mov	 eax, DWORD PTR [eax+4]
  000f7	8b 40 04	 mov	 eax, DWORD PTR [eax+4]
  000fa	c6 40 0c 00	 mov	 BYTE PTR [eax+12], 0

; 678  :                     _Pnode                           = _Pnode->_Parent->_Parent;

  000fe	8b 45 fc	 mov	 eax, DWORD PTR __Pnode$3[ebp]
  00101	8b 40 04	 mov	 eax, DWORD PTR [eax+4]
  00104	8b 40 04	 mov	 eax, DWORD PTR [eax+4]
  00107	89 45 fc	 mov	 DWORD PTR __Pnode$3[ebp], eax

; 679  :                 } else { // parent's sibling has red and black children

  0010a	eb 4a		 jmp	 SHORT $LN13@Insert_nod
$LN12@Insert_nod:

; 680  :                     if (_Pnode == _Pnode->_Parent->_Right) { // rotate right child to left

  0010c	8b 45 fc	 mov	 eax, DWORD PTR __Pnode$3[ebp]
  0010f	8b 40 04	 mov	 eax, DWORD PTR [eax+4]
  00112	8b 4d fc	 mov	 ecx, DWORD PTR __Pnode$3[ebp]
  00115	3b 48 08	 cmp	 ecx, DWORD PTR [eax+8]
  00118	75 14		 jne	 SHORT $LN14@Insert_nod

; 681  :                         _Pnode = _Pnode->_Parent;

  0011a	8b 45 fc	 mov	 eax, DWORD PTR __Pnode$3[ebp]
  0011d	8b 40 04	 mov	 eax, DWORD PTR [eax+4]
  00120	89 45 fc	 mov	 DWORD PTR __Pnode$3[ebp], eax

; 682  :                         _Lrotate(_Pnode);

  00123	ff 75 fc	 push	 DWORD PTR __Pnode$3[ebp]
  00126	8b 4d f4	 mov	 ecx, DWORD PTR _this$[ebp]
  00129	e8 00 00 00 00	 call	 ?_Lrotate@?$_Tree_val@U?$_Tree_simple_types@PAVIActorInstance@@@std@@@std@@QAEXPAU?$_Tree_node@PAVIActorInstance@@PAX@2@@Z ; std::_Tree_val<std::_Tree_simple_types<IActorInstance *> >::_Lrotate
$LN14@Insert_nod:

; 683  :                     }
; 684  : 
; 685  :                     _Pnode->_Parent->_Color          = _Black; // propagate red up

  0012e	8b 45 fc	 mov	 eax, DWORD PTR __Pnode$3[ebp]
  00131	8b 40 04	 mov	 eax, DWORD PTR [eax+4]
  00134	c6 40 0c 01	 mov	 BYTE PTR [eax+12], 1

; 686  :                     _Pnode->_Parent->_Parent->_Color = _Red;

  00138	8b 45 fc	 mov	 eax, DWORD PTR __Pnode$3[ebp]
  0013b	8b 40 04	 mov	 eax, DWORD PTR [eax+4]
  0013e	8b 40 04	 mov	 eax, DWORD PTR [eax+4]
  00141	c6 40 0c 00	 mov	 BYTE PTR [eax+12], 0

; 687  :                     _Rrotate(_Pnode->_Parent->_Parent);

  00145	8b 45 fc	 mov	 eax, DWORD PTR __Pnode$3[ebp]
  00148	8b 40 04	 mov	 eax, DWORD PTR [eax+4]
  0014b	ff 70 04	 push	 DWORD PTR [eax+4]
  0014e	8b 4d f4	 mov	 ecx, DWORD PTR _this$[ebp]
  00151	e8 00 00 00 00	 call	 ?_Rrotate@?$_Tree_val@U?$_Tree_simple_types@PAVIActorInstance@@@std@@@std@@QAEXPAU?$_Tree_node@PAVIActorInstance@@PAX@2@@Z ; std::_Tree_val<std::_Tree_simple_types<IActorInstance *> >::_Rrotate
$LN13@Insert_nod:

; 688  :                 }
; 689  :             } else { // fixup red-red in right subtree

  00156	e9 8e 00 00 00	 jmp	 $LN11@Insert_nod
$LN10@Insert_nod:

; 690  :                 const auto _Parent_sibling = _Pnode->_Parent->_Parent->_Left;

  0015b	8b 45 fc	 mov	 eax, DWORD PTR __Pnode$3[ebp]
  0015e	8b 40 04	 mov	 eax, DWORD PTR [eax+4]
  00161	8b 40 04	 mov	 eax, DWORD PTR [eax+4]
  00164	8b 00		 mov	 eax, DWORD PTR [eax]
  00166	89 45 ec	 mov	 DWORD PTR __Parent_sibling$1[ebp], eax

; 691  :                 if (_Parent_sibling->_Color == _Red) { // parent's sibling has two red children, blacken both

  00169	8b 45 ec	 mov	 eax, DWORD PTR __Parent_sibling$1[ebp]
  0016c	0f be 40 0c	 movsx	 eax, BYTE PTR [eax+12]
  00170	85 c0		 test	 eax, eax
  00172	75 2c		 jne	 SHORT $LN15@Insert_nod

; 692  :                     _Pnode->_Parent->_Color          = _Black;

  00174	8b 45 fc	 mov	 eax, DWORD PTR __Pnode$3[ebp]
  00177	8b 40 04	 mov	 eax, DWORD PTR [eax+4]
  0017a	c6 40 0c 01	 mov	 BYTE PTR [eax+12], 1

; 693  :                     _Parent_sibling->_Color          = _Black;

  0017e	8b 45 ec	 mov	 eax, DWORD PTR __Parent_sibling$1[ebp]
  00181	c6 40 0c 01	 mov	 BYTE PTR [eax+12], 1

; 694  :                     _Pnode->_Parent->_Parent->_Color = _Red;

  00185	8b 45 fc	 mov	 eax, DWORD PTR __Pnode$3[ebp]
  00188	8b 40 04	 mov	 eax, DWORD PTR [eax+4]
  0018b	8b 40 04	 mov	 eax, DWORD PTR [eax+4]
  0018e	c6 40 0c 00	 mov	 BYTE PTR [eax+12], 0

; 695  :                     _Pnode                           = _Pnode->_Parent->_Parent;

  00192	8b 45 fc	 mov	 eax, DWORD PTR __Pnode$3[ebp]
  00195	8b 40 04	 mov	 eax, DWORD PTR [eax+4]
  00198	8b 40 04	 mov	 eax, DWORD PTR [eax+4]
  0019b	89 45 fc	 mov	 DWORD PTR __Pnode$3[ebp], eax

; 696  :                 } else { // parent's sibling has red and black children

  0019e	eb 49		 jmp	 SHORT $LN11@Insert_nod
$LN15@Insert_nod:

; 697  :                     if (_Pnode == _Pnode->_Parent->_Left) { // rotate left child to right

  001a0	8b 45 fc	 mov	 eax, DWORD PTR __Pnode$3[ebp]
  001a3	8b 40 04	 mov	 eax, DWORD PTR [eax+4]
  001a6	8b 4d fc	 mov	 ecx, DWORD PTR __Pnode$3[ebp]
  001a9	3b 08		 cmp	 ecx, DWORD PTR [eax]
  001ab	75 14		 jne	 SHORT $LN17@Insert_nod

; 698  :                         _Pnode = _Pnode->_Parent;

  001ad	8b 45 fc	 mov	 eax, DWORD PTR __Pnode$3[ebp]
  001b0	8b 40 04	 mov	 eax, DWORD PTR [eax+4]
  001b3	89 45 fc	 mov	 DWORD PTR __Pnode$3[ebp], eax

; 699  :                         _Rrotate(_Pnode);

  001b6	ff 75 fc	 push	 DWORD PTR __Pnode$3[ebp]
  001b9	8b 4d f4	 mov	 ecx, DWORD PTR _this$[ebp]
  001bc	e8 00 00 00 00	 call	 ?_Rrotate@?$_Tree_val@U?$_Tree_simple_types@PAVIActorInstance@@@std@@@std@@QAEXPAU?$_Tree_node@PAVIActorInstance@@PAX@2@@Z ; std::_Tree_val<std::_Tree_simple_types<IActorInstance *> >::_Rrotate
$LN17@Insert_nod:

; 700  :                     }
; 701  : 
; 702  :                     _Pnode->_Parent->_Color          = _Black; // propagate red up

  001c1	8b 45 fc	 mov	 eax, DWORD PTR __Pnode$3[ebp]
  001c4	8b 40 04	 mov	 eax, DWORD PTR [eax+4]
  001c7	c6 40 0c 01	 mov	 BYTE PTR [eax+12], 1

; 703  :                     _Pnode->_Parent->_Parent->_Color = _Red;

  001cb	8b 45 fc	 mov	 eax, DWORD PTR __Pnode$3[ebp]
  001ce	8b 40 04	 mov	 eax, DWORD PTR [eax+4]
  001d1	8b 40 04	 mov	 eax, DWORD PTR [eax+4]
  001d4	c6 40 0c 00	 mov	 BYTE PTR [eax+12], 0

; 704  :                     _Lrotate(_Pnode->_Parent->_Parent);

  001d8	8b 45 fc	 mov	 eax, DWORD PTR __Pnode$3[ebp]
  001db	8b 40 04	 mov	 eax, DWORD PTR [eax+4]
  001de	ff 70 04	 push	 DWORD PTR [eax+4]
  001e1	8b 4d f4	 mov	 ecx, DWORD PTR _this$[ebp]
  001e4	e8 00 00 00 00	 call	 ?_Lrotate@?$_Tree_val@U?$_Tree_simple_types@PAVIActorInstance@@@std@@@std@@QAEXPAU?$_Tree_node@PAVIActorInstance@@PAX@2@@Z ; std::_Tree_val<std::_Tree_simple_types<IActorInstance *> >::_Lrotate
$LN11@Insert_nod:

; 705  :                 }
; 706  :             }
; 707  :         }

  001e9	e9 af fe ff ff	 jmp	 $LN4@Insert_nod
$LN3@Insert_nod:

; 708  : 
; 709  :         _Head->_Parent->_Color = _Black; // root is always black

  001ee	8b 45 f8	 mov	 eax, DWORD PTR __Head$[ebp]
  001f1	8b 40 04	 mov	 eax, DWORD PTR [eax+4]
  001f4	c6 40 0c 01	 mov	 BYTE PTR [eax+12], 1

; 710  :         return _Newnode;

  001f8	8b 45 10	 mov	 eax, DWORD PTR __Newnode$[ebp]
$LN18@Insert_nod:

; 711  :     }

  001fb	c9		 leave
  001fc	c2 0c 00	 ret	 12			; 0000000cH
?_Insert_node@?$_Tree_val@U?$_Tree_simple_types@PAVIActorInstance@@@std@@@std@@QAEPAU?$_Tree_node@PAVIActorInstance@@PAX@2@U?$_Tree_id@PAU?$_Tree_node@PAVIActorInstance@@PAX@std@@@2@QAU32@@Z ENDP ; std::_Tree_val<std::_Tree_simple_types<IActorInstance *> >::_Insert_node
_TEXT	ENDS
; Function compile flags: /Odspy
; File C:\Program Files (x86)\Microsoft Visual Studio\2019\Community\VC\Tools\MSVC\14.28.29333\include\xtree
;	COMDAT ?_Rrotate@?$_Tree_val@U?$_Tree_simple_types@PAVIActorInstance@@@std@@@std@@QAEXPAU?$_Tree_node@PAVIActorInstance@@PAX@2@@Z
_TEXT	SEGMENT
_this$ = -8						; size = 4
__Pnode$ = -4						; size = 4
__Wherenode$ = 8					; size = 4
?_Rrotate@?$_Tree_val@U?$_Tree_simple_types@PAVIActorInstance@@@std@@@std@@QAEXPAU?$_Tree_node@PAVIActorInstance@@PAX@2@@Z PROC ; std::_Tree_val<std::_Tree_simple_types<IActorInstance *> >::_Rrotate, COMDAT
; _this$ = ecx

; 480  :     void _Rrotate(_Nodeptr _Wherenode) noexcept { // promote left node to root of subtree

  00000	55		 push	 ebp
  00001	8b ec		 mov	 ebp, esp
  00003	51		 push	 ecx
  00004	51		 push	 ecx
  00005	89 4d f8	 mov	 DWORD PTR _this$[ebp], ecx

; 481  :         _Nodeptr _Pnode   = _Wherenode->_Left;

  00008	8b 45 08	 mov	 eax, DWORD PTR __Wherenode$[ebp]
  0000b	8b 00		 mov	 eax, DWORD PTR [eax]
  0000d	89 45 fc	 mov	 DWORD PTR __Pnode$[ebp], eax

; 482  :         _Wherenode->_Left = _Pnode->_Right;

  00010	8b 45 08	 mov	 eax, DWORD PTR __Wherenode$[ebp]
  00013	8b 4d fc	 mov	 ecx, DWORD PTR __Pnode$[ebp]
  00016	8b 49 08	 mov	 ecx, DWORD PTR [ecx+8]
  00019	89 08		 mov	 DWORD PTR [eax], ecx

; 483  : 
; 484  :         if (!_Pnode->_Right->_Isnil) {

  0001b	8b 45 fc	 mov	 eax, DWORD PTR __Pnode$[ebp]
  0001e	8b 40 08	 mov	 eax, DWORD PTR [eax+8]
  00021	0f be 40 0d	 movsx	 eax, BYTE PTR [eax+13]
  00025	85 c0		 test	 eax, eax
  00027	75 0c		 jne	 SHORT $LN2@Rrotate

; 485  :             _Pnode->_Right->_Parent = _Wherenode;

  00029	8b 45 fc	 mov	 eax, DWORD PTR __Pnode$[ebp]
  0002c	8b 40 08	 mov	 eax, DWORD PTR [eax+8]
  0002f	8b 4d 08	 mov	 ecx, DWORD PTR __Wherenode$[ebp]
  00032	89 48 04	 mov	 DWORD PTR [eax+4], ecx
$LN2@Rrotate:

; 486  :         }
; 487  : 
; 488  :         _Pnode->_Parent = _Wherenode->_Parent;

  00035	8b 45 fc	 mov	 eax, DWORD PTR __Pnode$[ebp]
  00038	8b 4d 08	 mov	 ecx, DWORD PTR __Wherenode$[ebp]
  0003b	8b 49 04	 mov	 ecx, DWORD PTR [ecx+4]
  0003e	89 48 04	 mov	 DWORD PTR [eax+4], ecx

; 489  : 
; 490  :         if (_Wherenode == _Myhead->_Parent) {

  00041	8b 45 f8	 mov	 eax, DWORD PTR _this$[ebp]
  00044	8b 00		 mov	 eax, DWORD PTR [eax]
  00046	8b 4d 08	 mov	 ecx, DWORD PTR __Wherenode$[ebp]
  00049	3b 48 04	 cmp	 ecx, DWORD PTR [eax+4]
  0004c	75 0d		 jne	 SHORT $LN3@Rrotate

; 491  :             _Myhead->_Parent = _Pnode;

  0004e	8b 45 f8	 mov	 eax, DWORD PTR _this$[ebp]
  00051	8b 00		 mov	 eax, DWORD PTR [eax]
  00053	8b 4d fc	 mov	 ecx, DWORD PTR __Pnode$[ebp]
  00056	89 48 04	 mov	 DWORD PTR [eax+4], ecx
  00059	eb 27		 jmp	 SHORT $LN4@Rrotate
$LN3@Rrotate:

; 492  :         } else if (_Wherenode == _Wherenode->_Parent->_Right) {

  0005b	8b 45 08	 mov	 eax, DWORD PTR __Wherenode$[ebp]
  0005e	8b 40 04	 mov	 eax, DWORD PTR [eax+4]
  00061	8b 4d 08	 mov	 ecx, DWORD PTR __Wherenode$[ebp]
  00064	3b 48 08	 cmp	 ecx, DWORD PTR [eax+8]
  00067	75 0e		 jne	 SHORT $LN5@Rrotate

; 493  :             _Wherenode->_Parent->_Right = _Pnode;

  00069	8b 45 08	 mov	 eax, DWORD PTR __Wherenode$[ebp]
  0006c	8b 40 04	 mov	 eax, DWORD PTR [eax+4]
  0006f	8b 4d fc	 mov	 ecx, DWORD PTR __Pnode$[ebp]
  00072	89 48 08	 mov	 DWORD PTR [eax+8], ecx

; 494  :         } else {

  00075	eb 0b		 jmp	 SHORT $LN4@Rrotate
$LN5@Rrotate:

; 495  :             _Wherenode->_Parent->_Left = _Pnode;

  00077	8b 45 08	 mov	 eax, DWORD PTR __Wherenode$[ebp]
  0007a	8b 40 04	 mov	 eax, DWORD PTR [eax+4]
  0007d	8b 4d fc	 mov	 ecx, DWORD PTR __Pnode$[ebp]
  00080	89 08		 mov	 DWORD PTR [eax], ecx
$LN4@Rrotate:

; 496  :         }
; 497  : 
; 498  :         _Pnode->_Right      = _Wherenode;

  00082	8b 45 fc	 mov	 eax, DWORD PTR __Pnode$[ebp]
  00085	8b 4d 08	 mov	 ecx, DWORD PTR __Wherenode$[ebp]
  00088	89 48 08	 mov	 DWORD PTR [eax+8], ecx

; 499  :         _Wherenode->_Parent = _Pnode;

  0008b	8b 45 08	 mov	 eax, DWORD PTR __Wherenode$[ebp]
  0008e	8b 4d fc	 mov	 ecx, DWORD PTR __Pnode$[ebp]
  00091	89 48 04	 mov	 DWORD PTR [eax+4], ecx

; 500  :     }

  00094	c9		 leave
  00095	c2 04 00	 ret	 4
?_Rrotate@?$_Tree_val@U?$_Tree_simple_types@PAVIActorInstance@@@std@@@std@@QAEXPAU?$_Tree_node@PAVIActorInstance@@PAX@2@@Z ENDP ; std::_Tree_val<std::_Tree_simple_types<IActorInstance *> >::_Rrotate
_TEXT	ENDS
; Function compile flags: /Odspy
; File C:\Program Files (x86)\Microsoft Visual Studio\2019\Community\VC\Tools\MSVC\14.28.29333\include\xtree
;	COMDAT ?_Lrotate@?$_Tree_val@U?$_Tree_simple_types@PAVIActorInstance@@@std@@@std@@QAEXPAU?$_Tree_node@PAVIActorInstance@@PAX@2@@Z
_TEXT	SEGMENT
_this$ = -8						; size = 4
__Pnode$ = -4						; size = 4
__Wherenode$ = 8					; size = 4
?_Lrotate@?$_Tree_val@U?$_Tree_simple_types@PAVIActorInstance@@@std@@@std@@QAEXPAU?$_Tree_node@PAVIActorInstance@@PAX@2@@Z PROC ; std::_Tree_val<std::_Tree_simple_types<IActorInstance *> >::_Lrotate, COMDAT
; _this$ = ecx

; 458  :     void _Lrotate(_Nodeptr _Wherenode) noexcept { // promote right node to root of subtree

  00000	55		 push	 ebp
  00001	8b ec		 mov	 ebp, esp
  00003	51		 push	 ecx
  00004	51		 push	 ecx
  00005	89 4d f8	 mov	 DWORD PTR _this$[ebp], ecx

; 459  :         _Nodeptr _Pnode    = _Wherenode->_Right;

  00008	8b 45 08	 mov	 eax, DWORD PTR __Wherenode$[ebp]
  0000b	8b 40 08	 mov	 eax, DWORD PTR [eax+8]
  0000e	89 45 fc	 mov	 DWORD PTR __Pnode$[ebp], eax

; 460  :         _Wherenode->_Right = _Pnode->_Left;

  00011	8b 45 08	 mov	 eax, DWORD PTR __Wherenode$[ebp]
  00014	8b 4d fc	 mov	 ecx, DWORD PTR __Pnode$[ebp]
  00017	8b 09		 mov	 ecx, DWORD PTR [ecx]
  00019	89 48 08	 mov	 DWORD PTR [eax+8], ecx

; 461  : 
; 462  :         if (!_Pnode->_Left->_Isnil) {

  0001c	8b 45 fc	 mov	 eax, DWORD PTR __Pnode$[ebp]
  0001f	8b 00		 mov	 eax, DWORD PTR [eax]
  00021	0f be 40 0d	 movsx	 eax, BYTE PTR [eax+13]
  00025	85 c0		 test	 eax, eax
  00027	75 0b		 jne	 SHORT $LN2@Lrotate

; 463  :             _Pnode->_Left->_Parent = _Wherenode;

  00029	8b 45 fc	 mov	 eax, DWORD PTR __Pnode$[ebp]
  0002c	8b 00		 mov	 eax, DWORD PTR [eax]
  0002e	8b 4d 08	 mov	 ecx, DWORD PTR __Wherenode$[ebp]
  00031	89 48 04	 mov	 DWORD PTR [eax+4], ecx
$LN2@Lrotate:

; 464  :         }
; 465  : 
; 466  :         _Pnode->_Parent = _Wherenode->_Parent;

  00034	8b 45 fc	 mov	 eax, DWORD PTR __Pnode$[ebp]
  00037	8b 4d 08	 mov	 ecx, DWORD PTR __Wherenode$[ebp]
  0003a	8b 49 04	 mov	 ecx, DWORD PTR [ecx+4]
  0003d	89 48 04	 mov	 DWORD PTR [eax+4], ecx

; 467  : 
; 468  :         if (_Wherenode == _Myhead->_Parent) {

  00040	8b 45 f8	 mov	 eax, DWORD PTR _this$[ebp]
  00043	8b 00		 mov	 eax, DWORD PTR [eax]
  00045	8b 4d 08	 mov	 ecx, DWORD PTR __Wherenode$[ebp]
  00048	3b 48 04	 cmp	 ecx, DWORD PTR [eax+4]
  0004b	75 0d		 jne	 SHORT $LN3@Lrotate

; 469  :             _Myhead->_Parent = _Pnode;

  0004d	8b 45 f8	 mov	 eax, DWORD PTR _this$[ebp]
  00050	8b 00		 mov	 eax, DWORD PTR [eax]
  00052	8b 4d fc	 mov	 ecx, DWORD PTR __Pnode$[ebp]
  00055	89 48 04	 mov	 DWORD PTR [eax+4], ecx
  00058	eb 26		 jmp	 SHORT $LN4@Lrotate
$LN3@Lrotate:

; 470  :         } else if (_Wherenode == _Wherenode->_Parent->_Left) {

  0005a	8b 45 08	 mov	 eax, DWORD PTR __Wherenode$[ebp]
  0005d	8b 40 04	 mov	 eax, DWORD PTR [eax+4]
  00060	8b 4d 08	 mov	 ecx, DWORD PTR __Wherenode$[ebp]
  00063	3b 08		 cmp	 ecx, DWORD PTR [eax]
  00065	75 0d		 jne	 SHORT $LN5@Lrotate

; 471  :             _Wherenode->_Parent->_Left = _Pnode;

  00067	8b 45 08	 mov	 eax, DWORD PTR __Wherenode$[ebp]
  0006a	8b 40 04	 mov	 eax, DWORD PTR [eax+4]
  0006d	8b 4d fc	 mov	 ecx, DWORD PTR __Pnode$[ebp]
  00070	89 08		 mov	 DWORD PTR [eax], ecx

; 472  :         } else {

  00072	eb 0c		 jmp	 SHORT $LN4@Lrotate
$LN5@Lrotate:

; 473  :             _Wherenode->_Parent->_Right = _Pnode;

  00074	8b 45 08	 mov	 eax, DWORD PTR __Wherenode$[ebp]
  00077	8b 40 04	 mov	 eax, DWORD PTR [eax+4]
  0007a	8b 4d fc	 mov	 ecx, DWORD PTR __Pnode$[ebp]
  0007d	89 48 08	 mov	 DWORD PTR [eax+8], ecx
$LN4@Lrotate:

; 474  :         }
; 475  : 
; 476  :         _Pnode->_Left       = _Wherenode;

  00080	8b 45 fc	 mov	 eax, DWORD PTR __Pnode$[ebp]
  00083	8b 4d 08	 mov	 ecx, DWORD PTR __Wherenode$[ebp]
  00086	89 08		 mov	 DWORD PTR [eax], ecx

; 477  :         _Wherenode->_Parent = _Pnode;

  00088	8b 45 08	 mov	 eax, DWORD PTR __Wherenode$[ebp]
  0008b	8b 4d fc	 mov	 ecx, DWORD PTR __Pnode$[ebp]
  0008e	89 48 04	 mov	 DWORD PTR [eax+4], ecx

; 478  :     }

  00091	c9		 leave
  00092	c2 04 00	 ret	 4
?_Lrotate@?$_Tree_val@U?$_Tree_simple_types@PAVIActorInstance@@@std@@@std@@QAEXPAU?$_Tree_node@PAVIActorInstance@@PAX@2@@Z ENDP ; std::_Tree_val<std::_Tree_simple_types<IActorInstance *> >::_Lrotate
_TEXT	ENDS
; Function compile flags: /Odspy
; File C:\Program Files (x86)\Microsoft Visual Studio\2019\Community\VC\Tools\MSVC\14.28.29333\include\xtree
; File C:\Program Files (x86)\Microsoft Visual Studio\2019\Community\VC\Tools\MSVC\14.28.29333\include\xstddef
; File C:\Program Files (x86)\Microsoft Visual Studio\2019\Community\VC\Tools\MSVC\14.28.29333\include\xtree
; File C:\Program Files (x86)\Microsoft Visual Studio\2019\Community\VC\Tools\MSVC\14.28.29333\include\xmemory
; File C:\Program Files (x86)\Microsoft Visual Studio\2019\Community\VC\Tools\MSVC\14.28.29333\include\xtree
;	COMDAT ?_Alloc_sentinel_and_proxy@?$_Tree@V?$_Tset_traits@PAVIActorInstance@@U?$less@PAVIActorInstance@@@std@@V?$allocator@PAVIActorInstance@@@3@$0A@@std@@@std@@IAEXXZ
_TEXT	SEGMENT
__Alproxy$ = -28					; size = 4
__Scary$ = -24						; size = 4
$T1 = -20						; size = 4
$T2 = -16						; size = 4
$T3 = -12						; size = 4
_this$ = -8						; size = 4
_$S12$ = -1						; size = 1
?_Alloc_sentinel_and_proxy@?$_Tree@V?$_Tset_traits@PAVIActorInstance@@U?$less@PAVIActorInstance@@@std@@V?$allocator@PAVIActorInstance@@@3@$0A@@std@@@std@@IAEXXZ PROC ; std::_Tree<std::_Tset_traits<IActorInstance *,std::less<IActorInstance *>,std::allocator<IActorInstance *>,0> >::_Alloc_sentinel_and_proxy, COMDAT
; _this$ = ecx

; 2017 :     void _Alloc_sentinel_and_proxy() {

  00000	55		 push	 ebp
  00001	8b ec		 mov	 ebp, esp
  00003	83 ec 1c	 sub	 esp, 28			; 0000001cH
  00006	89 4d f8	 mov	 DWORD PTR _this$[ebp], ecx

; 2047 :         return _STD addressof(_Mypair._Myval2._Myval2);

  00009	8b 45 f8	 mov	 eax, DWORD PTR _this$[ebp]
; File C:\Program Files (x86)\Microsoft Visual Studio\2019\Community\VC\Tools\MSVC\14.28.29333\include\xstddef

; 275  :     return __builtin_addressof(_Val);

  0000c	89 45 f4	 mov	 DWORD PTR $T3[ebp], eax
; File C:\Program Files (x86)\Microsoft Visual Studio\2019\Community\VC\Tools\MSVC\14.28.29333\include\xtree

; 2047 :         return _STD addressof(_Mypair._Myval2._Myval2);

  0000f	8b 45 f4	 mov	 eax, DWORD PTR $T3[ebp]
  00012	89 45 e8	 mov	 DWORD PTR __Scary$[ebp], eax

; 2018 :         const auto _Scary = _Get_scary();
; 2019 :         auto&& _Alproxy   = _GET_PROXY_ALLOCATOR(_Alnode, _Getal());

  00015	8d 45 ff	 lea	 eax, DWORD PTR _$S12$[ebp]
  00018	89 45 e4	 mov	 DWORD PTR __Alproxy$[ebp], eax

; 2039 :         return _Mypair._Myval2._Get_first();

  0001b	8b 45 f8	 mov	 eax, DWORD PTR _this$[ebp]
; File C:\Program Files (x86)\Microsoft Visual Studio\2019\Community\VC\Tools\MSVC\14.28.29333\include\xmemory

; 1347 :         return *this;

  0001e	89 45 f0	 mov	 DWORD PTR $T2[ebp], eax
; File C:\Program Files (x86)\Microsoft Visual Studio\2019\Community\VC\Tools\MSVC\14.28.29333\include\xtree

; 2039 :         return _Mypair._Myval2._Get_first();

  00021	8b 45 f0	 mov	 eax, DWORD PTR $T2[ebp]
  00024	89 45 ec	 mov	 DWORD PTR $T1[ebp], eax

; 2020 :         _Container_proxy_ptr<_Alnode> _Proxy(_Alproxy, *_Scary);
; 2021 :         _Scary->_Myhead = _Node::_Buyheadnode(_Getal());

  00027	ff 75 ec	 push	 DWORD PTR $T1[ebp]
  0002a	e8 00 00 00 00	 call	 ??$_Buyheadnode@V?$allocator@U?$_Tree_node@PAVIActorInstance@@PAX@std@@@std@@@?$_Tree_node@PAVIActorInstance@@PAX@std@@SAPAU01@AAV?$allocator@U?$_Tree_node@PAVIActorInstance@@PAX@std@@@1@@Z ; std::_Tree_node<IActorInstance *,void *>::_Buyheadnode<std::allocator<std::_Tree_node<IActorInstance *,void *> > >
  0002f	59		 pop	 ecx
  00030	8b 4d e8	 mov	 ecx, DWORD PTR __Scary$[ebp]
  00033	89 01		 mov	 DWORD PTR [ecx], eax

; 2022 :         _Proxy._Release();
; 2023 :     }

  00035	c9		 leave
  00036	c3		 ret	 0
?_Alloc_sentinel_and_proxy@?$_Tree@V?$_Tset_traits@PAVIActorInstance@@U?$less@PAVIActorInstance@@@std@@V?$allocator@PAVIActorInstance@@@3@$0A@@std@@@std@@IAEXXZ ENDP ; std::_Tree<std::_Tset_traits<IActorInstance *,std::less<IActorInstance *>,std::allocator<IActorInstance *>,0> >::_Alloc_sentinel_and_proxy
_TEXT	ENDS
; Function compile flags: /Odspy
; File C:\Program Files (x86)\Microsoft Visual Studio\2019\Community\VC\Tools\MSVC\14.28.29333\include\xtree
; File C:\Program Files (x86)\Microsoft Visual Studio\2019\Community\VC\Tools\MSVC\14.28.29333\include\xstddef
; File C:\Program Files (x86)\Microsoft Visual Studio\2019\Community\VC\Tools\MSVC\14.28.29333\include\xtree
;	COMDAT ?_Check_grow_by_1@?$_Tree@V?$_Tset_traits@PAVIActorInstance@@U?$less@PAVIActorInstance@@@std@@V?$allocator@PAVIActorInstance@@@3@$0A@@std@@@std@@IAEXXZ
_TEXT	SEGMENT
$T1 = -12						; size = 4
$T2 = -8						; size = 4
_this$ = -4						; size = 4
?_Check_grow_by_1@?$_Tree@V?$_Tset_traits@PAVIActorInstance@@U?$less@PAVIActorInstance@@@std@@V?$allocator@PAVIActorInstance@@@3@$0A@@std@@@std@@IAEXXZ PROC ; std::_Tree<std::_Tset_traits<IActorInstance *,std::less<IActorInstance *>,std::allocator<IActorInstance *>,0> >::_Check_grow_by_1, COMDAT
; _this$ = ecx

; 1718 :     void _Check_grow_by_1() {

  00000	55		 push	 ebp
  00001	8b ec		 mov	 ebp, esp
  00003	83 ec 0c	 sub	 esp, 12			; 0000000cH
  00006	89 4d fc	 mov	 DWORD PTR _this$[ebp], ecx

; 2047 :         return _STD addressof(_Mypair._Myval2._Myval2);

  00009	8b 45 fc	 mov	 eax, DWORD PTR _this$[ebp]
; File C:\Program Files (x86)\Microsoft Visual Studio\2019\Community\VC\Tools\MSVC\14.28.29333\include\xstddef

; 275  :     return __builtin_addressof(_Val);

  0000c	89 45 f8	 mov	 DWORD PTR $T2[ebp], eax
; File C:\Program Files (x86)\Microsoft Visual Studio\2019\Community\VC\Tools\MSVC\14.28.29333\include\xtree

; 2047 :         return _STD addressof(_Mypair._Myval2._Myval2);

  0000f	8b 45 f8	 mov	 eax, DWORD PTR $T2[ebp]
  00012	89 45 f4	 mov	 DWORD PTR $T1[ebp], eax

; 1719 :         if (max_size() == _Get_scary()->_Mysize) {

  00015	8b 4d fc	 mov	 ecx, DWORD PTR _this$[ebp]
  00018	e8 00 00 00 00	 call	 ?max_size@?$_Tree@V?$_Tset_traits@PAVIActorInstance@@U?$less@PAVIActorInstance@@@std@@V?$allocator@PAVIActorInstance@@@3@$0A@@std@@@std@@QBEIXZ ; std::_Tree<std::_Tset_traits<IActorInstance *,std::less<IActorInstance *>,std::allocator<IActorInstance *>,0> >::max_size
  0001d	8b 4d f4	 mov	 ecx, DWORD PTR $T1[ebp]
  00020	3b 41 04	 cmp	 eax, DWORD PTR [ecx+4]
  00023	75 05		 jne	 SHORT $LN3@Check_grow

; 1720 :             _Throw_tree_length_error();

  00025	e8 00 00 00 00	 call	 ?_Throw_tree_length_error@std@@YAXXZ ; std::_Throw_tree_length_error
$LN3@Check_grow:

; 1721 :         }
; 1722 :     }

  0002a	c9		 leave
  0002b	c3		 ret	 0
?_Check_grow_by_1@?$_Tree@V?$_Tset_traits@PAVIActorInstance@@U?$less@PAVIActorInstance@@@std@@V?$allocator@PAVIActorInstance@@@3@$0A@@std@@@std@@IAEXXZ ENDP ; std::_Tree<std::_Tset_traits<IActorInstance *,std::less<IActorInstance *>,std::allocator<IActorInstance *>,0> >::_Check_grow_by_1
_TEXT	ENDS
; Function compile flags: /Odspy
; File C:\Program Files (x86)\Microsoft Visual Studio\2019\Community\VC\Tools\MSVC\14.28.29333\include\xtree
; File C:\Program Files (x86)\Microsoft Visual Studio\2019\Community\VC\Tools\MSVC\14.28.29333\include\xstddef
; File C:\Program Files (x86)\Microsoft Visual Studio\2019\Community\VC\Tools\MSVC\14.28.29333\include\xtree
; File C:\Program Files (x86)\Microsoft Visual Studio\2019\Community\VC\Tools\MSVC\14.28.29333\include\xmemory
; File C:\Program Files (x86)\Microsoft Visual Studio\2019\Community\VC\Tools\MSVC\14.28.29333\include\xtree
;	COMDAT ?clear@?$_Tree@V?$_Tset_traits@PAVIActorInstance@@U?$less@PAVIActorInstance@@@std@@V?$allocator@PAVIActorInstance@@@3@$0A@@std@@@std@@QAEXXZ
_TEXT	SEGMENT
$T1 = -24						; size = 4
$T2 = -20						; size = 4
$T3 = -16						; size = 4
_this$ = -12						; size = 4
__Scary$ = -8						; size = 4
__Head$ = -4						; size = 4
?clear@?$_Tree@V?$_Tset_traits@PAVIActorInstance@@U?$less@PAVIActorInstance@@@std@@V?$allocator@PAVIActorInstance@@@3@$0A@@std@@@std@@QAEXXZ PROC ; std::_Tree<std::_Tset_traits<IActorInstance *,std::less<IActorInstance *>,std::allocator<IActorInstance *>,0> >::clear, COMDAT
; _this$ = ecx

; 1444 :     void clear() noexcept {

  00000	55		 push	 ebp
  00001	8b ec		 mov	 ebp, esp
  00003	83 ec 18	 sub	 esp, 24			; 00000018H
  00006	89 4d f4	 mov	 DWORD PTR _this$[ebp], ecx

; 2047 :         return _STD addressof(_Mypair._Myval2._Myval2);

  00009	8b 45 f4	 mov	 eax, DWORD PTR _this$[ebp]
; File C:\Program Files (x86)\Microsoft Visual Studio\2019\Community\VC\Tools\MSVC\14.28.29333\include\xstddef

; 275  :     return __builtin_addressof(_Val);

  0000c	89 45 f0	 mov	 DWORD PTR $T3[ebp], eax
; File C:\Program Files (x86)\Microsoft Visual Studio\2019\Community\VC\Tools\MSVC\14.28.29333\include\xtree

; 2047 :         return _STD addressof(_Mypair._Myval2._Myval2);

  0000f	8b 45 f0	 mov	 eax, DWORD PTR $T3[ebp]
  00012	89 45 f8	 mov	 DWORD PTR __Scary$[ebp], eax

; 1445 :         const auto _Scary = _Get_scary();
; 1446 :         _Scary->_Orphan_ptr(nullptr);
; 1447 :         auto _Head = _Scary->_Myhead;

  00015	8b 45 f8	 mov	 eax, DWORD PTR __Scary$[ebp]
  00018	8b 00		 mov	 eax, DWORD PTR [eax]
  0001a	89 45 fc	 mov	 DWORD PTR __Head$[ebp], eax

; 2039 :         return _Mypair._Myval2._Get_first();

  0001d	8b 45 f4	 mov	 eax, DWORD PTR _this$[ebp]
; File C:\Program Files (x86)\Microsoft Visual Studio\2019\Community\VC\Tools\MSVC\14.28.29333\include\xmemory

; 1347 :         return *this;

  00020	89 45 ec	 mov	 DWORD PTR $T2[ebp], eax
; File C:\Program Files (x86)\Microsoft Visual Studio\2019\Community\VC\Tools\MSVC\14.28.29333\include\xtree

; 2039 :         return _Mypair._Myval2._Get_first();

  00023	8b 45 ec	 mov	 eax, DWORD PTR $T2[ebp]
  00026	89 45 e8	 mov	 DWORD PTR $T1[ebp], eax

; 1448 :         _Scary->_Erase_tree(_Getal(), _Head->_Parent);

  00029	8b 45 fc	 mov	 eax, DWORD PTR __Head$[ebp]
  0002c	ff 70 04	 push	 DWORD PTR [eax+4]
  0002f	ff 75 e8	 push	 DWORD PTR $T1[ebp]
  00032	8b 4d f8	 mov	 ecx, DWORD PTR __Scary$[ebp]
  00035	e8 00 00 00 00	 call	 ??$_Erase_tree@V?$allocator@U?$_Tree_node@PAVIActorInstance@@PAX@std@@@std@@@?$_Tree_val@U?$_Tree_simple_types@PAVIActorInstance@@@std@@@std@@QAEXAAV?$allocator@U?$_Tree_node@PAVIActorInstance@@PAX@std@@@1@PAU?$_Tree_node@PAVIActorInstance@@PAX@1@@Z ; std::_Tree_val<std::_Tree_simple_types<IActorInstance *> >::_Erase_tree<std::allocator<std::_Tree_node<IActorInstance *,void *> > >

; 1449 :         _Head->_Parent  = _Head;

  0003a	8b 45 fc	 mov	 eax, DWORD PTR __Head$[ebp]
  0003d	8b 4d fc	 mov	 ecx, DWORD PTR __Head$[ebp]
  00040	89 48 04	 mov	 DWORD PTR [eax+4], ecx

; 1450 :         _Head->_Left    = _Head;

  00043	8b 45 fc	 mov	 eax, DWORD PTR __Head$[ebp]
  00046	8b 4d fc	 mov	 ecx, DWORD PTR __Head$[ebp]
  00049	89 08		 mov	 DWORD PTR [eax], ecx

; 1451 :         _Head->_Right   = _Head;

  0004b	8b 45 fc	 mov	 eax, DWORD PTR __Head$[ebp]
  0004e	8b 4d fc	 mov	 ecx, DWORD PTR __Head$[ebp]
  00051	89 48 08	 mov	 DWORD PTR [eax+8], ecx

; 1452 :         _Scary->_Mysize = 0;

  00054	8b 45 f8	 mov	 eax, DWORD PTR __Scary$[ebp]
  00057	83 60 04 00	 and	 DWORD PTR [eax+4], 0

; 1453 :     }

  0005b	c9		 leave
  0005c	c3		 ret	 0
?clear@?$_Tree@V?$_Tset_traits@PAVIActorInstance@@U?$less@PAVIActorInstance@@@std@@V?$allocator@PAVIActorInstance@@@3@$0A@@std@@@std@@QAEXXZ ENDP ; std::_Tree<std::_Tset_traits<IActorInstance *,std::less<IActorInstance *>,std::allocator<IActorInstance *>,0> >::clear
_TEXT	ENDS
; Function compile flags: /Odspy
; File C:\Program Files (x86)\Microsoft Visual Studio\2019\Community\VC\Tools\MSVC\14.28.29333\include\xtree
; File C:\Program Files (x86)\Microsoft Visual Studio\2019\Community\VC\Tools\MSVC\14.28.29333\include\xmemory
; File C:\Program Files (x86)\Microsoft Visual Studio\2019\Community\VC\Tools\MSVC\14.28.29333\include\xtree
; File C:\Program Files (x86)\Microsoft Visual Studio\2019\Community\VC\Tools\MSVC\14.28.29333\include\xmemory
; File C:\Program Files (x86)\Microsoft Visual Studio\2019\Community\VC\Tools\MSVC\14.28.29333\include\limits
; File C:\Program Files (x86)\Microsoft Visual Studio\2019\Community\VC\Tools\MSVC\14.28.29333\include\xtree
; File C:\Program Files (x86)\Microsoft Visual Studio\2019\Community\VC\Tools\MSVC\14.28.29333\include\utility
; File C:\Program Files (x86)\Microsoft Visual Studio\2019\Community\VC\Tools\MSVC\14.28.29333\include\xtree
;	COMDAT ?max_size@?$_Tree@V?$_Tset_traits@PAVIActorInstance@@U?$less@PAVIActorInstance@@@std@@V?$allocator@PAVIActorInstance@@@3@$0A@@std@@@std@@QBEIXZ
_TEXT	SEGMENT
$T1 = -36						; size = 4
$T2 = -32						; size = 4
$T3 = -28						; size = 4
$T4 = -24						; size = 4
$T5 = -20						; size = 4
_this$ = -16						; size = 4
tv68 = -12						; size = 4
$T6 = -8						; size = 4
$T7 = -4						; size = 4
?max_size@?$_Tree@V?$_Tset_traits@PAVIActorInstance@@U?$less@PAVIActorInstance@@@std@@V?$allocator@PAVIActorInstance@@@3@$0A@@std@@@std@@QBEIXZ PROC ; std::_Tree<std::_Tset_traits<IActorInstance *,std::less<IActorInstance *>,std::allocator<IActorInstance *>,0> >::max_size, COMDAT
; _this$ = ecx

; 1310 :     _NODISCARD size_type max_size() const noexcept {

  00000	55		 push	 ebp
  00001	8b ec		 mov	 ebp, esp
  00003	83 ec 24	 sub	 esp, 36			; 00000024H
  00006	89 4d f0	 mov	 DWORD PTR _this$[ebp], ecx

; 2043 :         return _Mypair._Myval2._Get_first();

  00009	8b 45 f0	 mov	 eax, DWORD PTR _this$[ebp]
; File C:\Program Files (x86)\Microsoft Visual Studio\2019\Community\VC\Tools\MSVC\14.28.29333\include\xmemory

; 1351 :         return *this;

  0000c	89 45 ec	 mov	 DWORD PTR $T5[ebp], eax
; File C:\Program Files (x86)\Microsoft Visual Studio\2019\Community\VC\Tools\MSVC\14.28.29333\include\xtree

; 2043 :         return _Mypair._Myval2._Get_first();

  0000f	8b 45 ec	 mov	 eax, DWORD PTR $T5[ebp]
  00012	89 45 dc	 mov	 DWORD PTR $T1[ebp], eax
; File C:\Program Files (x86)\Microsoft Visual Studio\2019\Community\VC\Tools\MSVC\14.28.29333\include\xmemory

; 710  :         return static_cast<size_t>(-1) / sizeof(value_type);

  00015	c7 45 fc cc cc
	cc 0c		 mov	 DWORD PTR $T7[ebp], 214748364 ; 0cccccccH
; File C:\Program Files (x86)\Microsoft Visual Studio\2019\Community\VC\Tools\MSVC\14.28.29333\include\limits

; 557  :         return INT_MAX;

  0001c	c7 45 e8 ff ff
	ff 7f		 mov	 DWORD PTR $T4[ebp], 2147483647 ; 7fffffffH
; File C:\Program Files (x86)\Microsoft Visual Studio\2019\Community\VC\Tools\MSVC\14.28.29333\include\xtree

; 1311 :         return (_STD min)(

  00023	8b 45 e8	 mov	 eax, DWORD PTR $T4[ebp]
  00026	89 45 f8	 mov	 DWORD PTR $T6[ebp], eax
; File C:\Program Files (x86)\Microsoft Visual Studio\2019\Community\VC\Tools\MSVC\14.28.29333\include\utility

; 68   :     return _Right < _Left ? _Right : _Left;

  00029	8b 45 fc	 mov	 eax, DWORD PTR $T7[ebp]
  0002c	3b 45 f8	 cmp	 eax, DWORD PTR $T6[ebp]
  0002f	73 08		 jae	 SHORT $LN17@max_size
  00031	8d 45 fc	 lea	 eax, DWORD PTR $T7[ebp]
  00034	89 45 f4	 mov	 DWORD PTR tv68[ebp], eax
  00037	eb 06		 jmp	 SHORT $LN18@max_size
$LN17@max_size:
  00039	8d 45 f8	 lea	 eax, DWORD PTR $T6[ebp]
  0003c	89 45 f4	 mov	 DWORD PTR tv68[ebp], eax
$LN18@max_size:
  0003f	8b 45 f4	 mov	 eax, DWORD PTR tv68[ebp]
  00042	89 45 e4	 mov	 DWORD PTR $T3[ebp], eax
  00045	8b 45 e4	 mov	 eax, DWORD PTR $T3[ebp]
  00048	89 45 e0	 mov	 DWORD PTR $T2[ebp], eax
; File C:\Program Files (x86)\Microsoft Visual Studio\2019\Community\VC\Tools\MSVC\14.28.29333\include\xtree

; 1311 :         return (_STD min)(

  0004b	8b 45 e0	 mov	 eax, DWORD PTR $T2[ebp]
  0004e	8b 00		 mov	 eax, DWORD PTR [eax]

; 1312 :             static_cast<size_type>((numeric_limits<difference_type>::max)()), _Alnode_traits::max_size(_Getal()));
; 1313 :     }

  00050	c9		 leave
  00051	c3		 ret	 0
?max_size@?$_Tree@V?$_Tset_traits@PAVIActorInstance@@U?$less@PAVIActorInstance@@@std@@V?$allocator@PAVIActorInstance@@@3@$0A@@std@@@std@@QBEIXZ ENDP ; std::_Tree<std::_Tset_traits<IActorInstance *,std::less<IActorInstance *>,std::allocator<IActorInstance *>,0> >::max_size
_TEXT	ENDS
; Function compile flags: /Odspy
; File C:\Program Files (x86)\Microsoft Visual Studio\2019\Community\VC\Tools\MSVC\14.28.29333\include\xtree
; File C:\Program Files (x86)\Microsoft Visual Studio\2019\Community\VC\Tools\MSVC\14.28.29333\include\xstddef
; File C:\Program Files (x86)\Microsoft Visual Studio\2019\Community\VC\Tools\MSVC\14.28.29333\include\xtree
; File C:\Program Files (x86)\Microsoft Visual Studio\2019\Community\VC\Tools\MSVC\14.28.29333\include\xmemory
; File C:\Program Files (x86)\Microsoft Visual Studio\2019\Community\VC\Tools\MSVC\14.28.29333\include\xtree
;	COMDAT ??1?$_Tree@V?$_Tset_traits@PAVIActorInstance@@U?$less@PAVIActorInstance@@@std@@V?$allocator@PAVIActorInstance@@@3@$0A@@std@@@std@@QAE@XZ
_TEXT	SEGMENT
$T1 = -20						; size = 4
$T2 = -16						; size = 4
$T3 = -12						; size = 4
_this$ = -8						; size = 4
__Scary$ = -4						; size = 4
??1?$_Tree@V?$_Tset_traits@PAVIActorInstance@@U?$less@PAVIActorInstance@@@std@@V?$allocator@PAVIActorInstance@@@3@$0A@@std@@@std@@QAE@XZ PROC ; std::_Tree<std::_Tset_traits<IActorInstance *,std::less<IActorInstance *>,std::allocator<IActorInstance *>,0> >::~_Tree<std::_Tset_traits<IActorInstance *,std::less<IActorInstance *>,std::allocator<IActorInstance *>,0> >, COMDAT
; _this$ = ecx

; 1189 :     ~_Tree() noexcept {

  00000	55		 push	 ebp
  00001	8b ec		 mov	 ebp, esp
  00003	83 ec 14	 sub	 esp, 20			; 00000014H
  00006	89 4d f8	 mov	 DWORD PTR _this$[ebp], ecx

; 2047 :         return _STD addressof(_Mypair._Myval2._Myval2);

  00009	8b 45 f8	 mov	 eax, DWORD PTR _this$[ebp]
; File C:\Program Files (x86)\Microsoft Visual Studio\2019\Community\VC\Tools\MSVC\14.28.29333\include\xstddef

; 275  :     return __builtin_addressof(_Val);

  0000c	89 45 f0	 mov	 DWORD PTR $T2[ebp], eax
; File C:\Program Files (x86)\Microsoft Visual Studio\2019\Community\VC\Tools\MSVC\14.28.29333\include\xtree

; 2047 :         return _STD addressof(_Mypair._Myval2._Myval2);

  0000f	8b 45 f0	 mov	 eax, DWORD PTR $T2[ebp]
  00012	89 45 fc	 mov	 DWORD PTR __Scary$[ebp], eax

; 2039 :         return _Mypair._Myval2._Get_first();

  00015	8b 45 f8	 mov	 eax, DWORD PTR _this$[ebp]
; File C:\Program Files (x86)\Microsoft Visual Studio\2019\Community\VC\Tools\MSVC\14.28.29333\include\xmemory

; 1347 :         return *this;

  00018	89 45 ec	 mov	 DWORD PTR $T1[ebp], eax
; File C:\Program Files (x86)\Microsoft Visual Studio\2019\Community\VC\Tools\MSVC\14.28.29333\include\xtree

; 2039 :         return _Mypair._Myval2._Get_first();

  0001b	8b 45 ec	 mov	 eax, DWORD PTR $T1[ebp]
  0001e	89 45 f4	 mov	 DWORD PTR $T3[ebp], eax

; 752  :         _Erase_tree(_Al, _Myhead->_Parent);

  00021	8b 45 fc	 mov	 eax, DWORD PTR __Scary$[ebp]
  00024	8b 00		 mov	 eax, DWORD PTR [eax]
  00026	ff 70 04	 push	 DWORD PTR [eax+4]
  00029	ff 75 f4	 push	 DWORD PTR $T3[ebp]
  0002c	8b 4d fc	 mov	 ecx, DWORD PTR __Scary$[ebp]
  0002f	e8 00 00 00 00	 call	 ??$_Erase_tree@V?$allocator@U?$_Tree_node@PAVIActorInstance@@PAX@std@@@std@@@?$_Tree_val@U?$_Tree_simple_types@PAVIActorInstance@@@std@@@std@@QAEXAAV?$allocator@U?$_Tree_node@PAVIActorInstance@@PAX@std@@@1@PAU?$_Tree_node@PAVIActorInstance@@PAX@1@@Z ; std::_Tree_val<std::_Tree_simple_types<IActorInstance *> >::_Erase_tree<std::allocator<std::_Tree_node<IActorInstance *,void *> > >

; 753  :         _Alnode::value_type::_Freenode0(_Al, _Myhead);

  00034	8b 45 fc	 mov	 eax, DWORD PTR __Scary$[ebp]
  00037	ff 30		 push	 DWORD PTR [eax]
  00039	ff 75 f4	 push	 DWORD PTR $T3[ebp]
  0003c	e8 00 00 00 00	 call	 ??$_Freenode0@V?$allocator@U?$_Tree_node@PAVIActorInstance@@PAX@std@@@std@@@?$_Tree_node@PAVIActorInstance@@PAX@std@@SAXAAV?$allocator@U?$_Tree_node@PAVIActorInstance@@PAX@std@@@1@PAU01@@Z ; std::_Tree_node<IActorInstance *,void *>::_Freenode0<std::allocator<std::_Tree_node<IActorInstance *,void *> > >
  00041	59		 pop	 ecx
  00042	59		 pop	 ecx

; 1190 :         const auto _Scary = _Get_scary();
; 1191 :         _Scary->_Erase_head(_Getal());
; 1192 : #if _ITERATOR_DEBUG_LEVEL != 0 // TRANSITION, ABI
; 1193 :         auto&& _Alproxy = _GET_PROXY_ALLOCATOR(_Alnode, _Getal());
; 1194 :         _Delete_plain_internal(_Alproxy, _Scary->_Myproxy);
; 1195 : #endif // _ITERATOR_DEBUG_LEVEL != 0
; 1196 :     }

  00043	c9		 leave
  00044	c3		 ret	 0
??1?$_Tree@V?$_Tset_traits@PAVIActorInstance@@U?$less@PAVIActorInstance@@@std@@V?$allocator@PAVIActorInstance@@@3@$0A@@std@@@std@@QAE@XZ ENDP ; std::_Tree<std::_Tset_traits<IActorInstance *,std::less<IActorInstance *>,std::allocator<IActorInstance *>,0> >::~_Tree<std::_Tset_traits<IActorInstance *,std::less<IActorInstance *>,std::allocator<IActorInstance *>,0> >
_TEXT	ENDS
; Function compile flags: /Odspy
; File C:\Program Files (x86)\Microsoft Visual Studio\2019\Community\VC\Tools\MSVC\14.28.29333\include\xtree
; File C:\Program Files (x86)\Microsoft Visual Studio\2019\Community\VC\Tools\MSVC\14.28.29333\include\type_traits
; File C:\Program Files (x86)\Microsoft Visual Studio\2019\Community\VC\Tools\MSVC\14.28.29333\include\xmemory
; File C:\Program Files (x86)\Microsoft Visual Studio\2019\Community\VC\Tools\MSVC\14.28.29333\include\xtree
;	COMDAT ??0?$_Tree@V?$_Tset_traits@PAVIActorInstance@@U?$less@PAVIActorInstance@@@std@@V?$allocator@PAVIActorInstance@@@3@$0A@@std@@@std@@QAE@ABU?$less@PAVIActorInstance@@@1@@Z
_TEXT	SEGMENT
_this$ = -28						; size = 4
_this$ = -24						; size = 4
$T1 = -20						; size = 4
_this$2 = -16						; size = 4
_this$ = -12						; size = 4
___formal$ = -8						; size = 1
$T3 = -1						; size = 1
__Parg$ = 8						; size = 4
??0?$_Tree@V?$_Tset_traits@PAVIActorInstance@@U?$less@PAVIActorInstance@@@std@@V?$allocator@PAVIActorInstance@@@3@$0A@@std@@@std@@QAE@ABU?$less@PAVIActorInstance@@@1@@Z PROC ; std::_Tree<std::_Tset_traits<IActorInstance *,std::less<IActorInstance *>,std::allocator<IActorInstance *>,0> >::_Tree<std::_Tset_traits<IActorInstance *,std::less<IActorInstance *>,std::allocator<IActorInstance *>,0> >, COMDAT
; _this$ = ecx

; 885  :     _Tree(const key_compare& _Parg) : _Mypair(_One_then_variadic_args_t{}, _Parg, _Zero_then_variadic_args_t{}) {

  00000	55		 push	 ebp
  00001	8b ec		 mov	 ebp, esp
  00003	83 ec 1c	 sub	 esp, 28			; 0000001cH
  00006	89 4d f4	 mov	 DWORD PTR _this$[ebp], ecx
  00009	8b 45 f4	 mov	 eax, DWORD PTR _this$[ebp]
  0000c	89 45 e8	 mov	 DWORD PTR _this$[ebp], eax
; File C:\Program Files (x86)\Microsoft Visual Studio\2019\Community\VC\Tools\MSVC\14.28.29333\include\type_traits

; 1443 :     return static_cast<_Ty&&>(_Arg);

  0000f	8d 45 ff	 lea	 eax, DWORD PTR $T3[ebp]
  00012	89 45 ec	 mov	 DWORD PTR $T1[ebp], eax
; File C:\Program Files (x86)\Microsoft Visual Studio\2019\Community\VC\Tools\MSVC\14.28.29333\include\xmemory

; 1344 :         : _Ty1(_STD forward<_Other1>(_Val1)), _Myval2(_STD forward<_Other2>(_Val2)...) {}

  00015	8b 45 ec	 mov	 eax, DWORD PTR $T1[ebp]
  00018	8a 00		 mov	 al, BYTE PTR [eax]
  0001a	88 45 f8	 mov	 BYTE PTR ___formal$[ebp], al
  0001d	8b 45 e8	 mov	 eax, DWORD PTR _this$[ebp]
  00020	89 45 e4	 mov	 DWORD PTR _this$[ebp], eax

; 1339 :         : _Ty1(), _Myval2(_STD forward<_Other2>(_Val2)...) {}

  00023	8b 45 e4	 mov	 eax, DWORD PTR _this$[ebp]
  00026	89 45 f0	 mov	 DWORD PTR _this$2[ebp], eax
; File C:\Program Files (x86)\Microsoft Visual Studio\2019\Community\VC\Tools\MSVC\14.28.29333\include\xtree

; 435  :     _Tree_val() noexcept : _Myhead(), _Mysize(0) {}

  00029	8b 45 f0	 mov	 eax, DWORD PTR _this$2[ebp]
  0002c	83 20 00	 and	 DWORD PTR [eax], 0
  0002f	8b 45 f0	 mov	 eax, DWORD PTR _this$2[ebp]
  00032	83 60 04 00	 and	 DWORD PTR [eax+4], 0

; 886  :         _Alloc_sentinel_and_proxy();

  00036	8b 4d f4	 mov	 ecx, DWORD PTR _this$[ebp]
  00039	e8 00 00 00 00	 call	 ?_Alloc_sentinel_and_proxy@?$_Tree@V?$_Tset_traits@PAVIActorInstance@@U?$less@PAVIActorInstance@@@std@@V?$allocator@PAVIActorInstance@@@3@$0A@@std@@@std@@IAEXXZ ; std::_Tree<std::_Tset_traits<IActorInstance *,std::less<IActorInstance *>,std::allocator<IActorInstance *>,0> >::_Alloc_sentinel_and_proxy

; 887  :     }

  0003e	8b 45 f4	 mov	 eax, DWORD PTR _this$[ebp]
  00041	c9		 leave
  00042	c2 04 00	 ret	 4
??0?$_Tree@V?$_Tset_traits@PAVIActorInstance@@U?$less@PAVIActorInstance@@@std@@V?$allocator@PAVIActorInstance@@@3@$0A@@std@@@std@@QAE@ABU?$less@PAVIActorInstance@@@1@@Z ENDP ; std::_Tree<std::_Tset_traits<IActorInstance *,std::less<IActorInstance *>,std::allocator<IActorInstance *>,0> >::_Tree<std::_Tset_traits<IActorInstance *,std::less<IActorInstance *>,std::allocator<IActorInstance *>,0> >
_TEXT	ENDS
; Function compile flags: /Odspy
; File C:\Program Files (x86)\Microsoft Visual Studio\2019\Community\VC\Tools\MSVC\14.28.29333\include\vector
;	COMDAT ?_Xlength@?$vector@UTAttachEffectInstance@CFlyingInstance@@V?$allocator@UTAttachEffectInstance@CFlyingInstance@@@std@@@std@@CAXXZ
_TEXT	SEGMENT
?_Xlength@?$vector@UTAttachEffectInstance@CFlyingInstance@@V?$allocator@UTAttachEffectInstance@CFlyingInstance@@@std@@@std@@CAXXZ PROC ; std::vector<CFlyingInstance::TAttachEffectInstance,std::allocator<CFlyingInstance::TAttachEffectInstance> >::_Xlength, COMDAT

; 1704 :     [[noreturn]] static void _Xlength() {

  00000	55		 push	 ebp
  00001	8b ec		 mov	 ebp, esp

; 1705 :         _Xlength_error("vector too long");

  00003	68 00 00 00 00	 push	 OFFSET ??_C@_0BA@FOIKENOD@vector?5too?5long@
  00008	e8 00 00 00 00	 call	 ?_Xlength_error@std@@YAXPBD@Z ; std::_Xlength_error
$LN2@Xlength:

; 1706 :     }

  0000d	5d		 pop	 ebp
  0000e	c3		 ret	 0
?_Xlength@?$vector@UTAttachEffectInstance@CFlyingInstance@@V?$allocator@UTAttachEffectInstance@CFlyingInstance@@@std@@@std@@CAXXZ ENDP ; std::vector<CFlyingInstance::TAttachEffectInstance,std::allocator<CFlyingInstance::TAttachEffectInstance> >::_Xlength
_TEXT	ENDS
; Function compile flags: /Odspy
; File C:\Program Files (x86)\Microsoft Visual Studio\2019\Community\VC\Tools\MSVC\14.28.29333\include\vector
; File C:\Program Files (x86)\Microsoft Visual Studio\2019\Community\VC\Tools\MSVC\14.28.29333\include\xmemory
; File C:\Program Files (x86)\Microsoft Visual Studio\2019\Community\VC\Tools\MSVC\14.28.29333\include\vector
; File C:\Program Files (x86)\Microsoft Visual Studio\2019\Community\VC\Tools\MSVC\14.28.29333\include\xmemory
; File C:\Program Files (x86)\Microsoft Visual Studio\2019\Community\VC\Tools\MSVC\14.28.29333\include\vector
; File C:\Program Files (x86)\Microsoft Visual Studio\2019\Community\VC\Tools\MSVC\14.28.29333\include\xmemory
; File C:\Program Files (x86)\Microsoft Visual Studio\2019\Community\VC\Tools\MSVC\14.28.29333\include\vector
;	COMDAT ?_Tidy@?$vector@UTAttachEffectInstance@CFlyingInstance@@V?$allocator@UTAttachEffectInstance@CFlyingInstance@@@std@@@std@@AAEXXZ
_TEXT	SEGMENT
$T1 = -52						; size = 4
__Ptr$ = -48						; size = 4
__Count$ = -44						; size = 4
$T2 = -40						; size = 4
__First$ = -36						; size = 4
__Last$ = -32						; size = 4
$T3 = -28						; size = 4
$T4 = -24						; size = 4
__Myend$ = -20						; size = 4
__Mylast$ = -16						; size = 4
_this$ = -12						; size = 4
__My_data$ = -8						; size = 4
__Myfirst$ = -4						; size = 4
?_Tidy@?$vector@UTAttachEffectInstance@CFlyingInstance@@V?$allocator@UTAttachEffectInstance@CFlyingInstance@@@std@@@std@@AAEXXZ PROC ; std::vector<CFlyingInstance::TAttachEffectInstance,std::allocator<CFlyingInstance::TAttachEffectInstance> >::_Tidy, COMDAT
; _this$ = ecx

; 1686 :     void _Tidy() noexcept { // free all storage

  00000	55		 push	 ebp
  00001	8b ec		 mov	 ebp, esp
  00003	83 ec 34	 sub	 esp, 52			; 00000034H
  00006	89 4d f4	 mov	 DWORD PTR _this$[ebp], ecx

; 1687 :         auto& _My_data    = _Mypair._Myval2;

  00009	8b 45 f4	 mov	 eax, DWORD PTR _this$[ebp]
  0000c	89 45 f8	 mov	 DWORD PTR __My_data$[ebp], eax

; 1688 :         pointer& _Myfirst = _My_data._Myfirst;

  0000f	8b 45 f8	 mov	 eax, DWORD PTR __My_data$[ebp]
  00012	89 45 fc	 mov	 DWORD PTR __Myfirst$[ebp], eax

; 1689 :         pointer& _Mylast  = _My_data._Mylast;

  00015	8b 45 f8	 mov	 eax, DWORD PTR __My_data$[ebp]
  00018	83 c0 04	 add	 eax, 4
  0001b	89 45 f0	 mov	 DWORD PTR __Mylast$[ebp], eax

; 1690 :         pointer& _Myend   = _My_data._Myend;

  0001e	8b 45 f8	 mov	 eax, DWORD PTR __My_data$[ebp]
  00021	83 c0 08	 add	 eax, 8
  00024	89 45 ec	 mov	 DWORD PTR __Myend$[ebp], eax

; 1691 : 
; 1692 :         _My_data._Orphan_all();
; 1693 : 
; 1694 :         if (_Myfirst) { // destroy and deallocate old array

  00027	8b 45 fc	 mov	 eax, DWORD PTR __Myfirst$[ebp]
  0002a	83 38 00	 cmp	 DWORD PTR [eax], 0
  0002d	74 75		 je	 SHORT $LN3@Tidy

; 1695 :             _Destroy(_Myfirst, _Mylast);

  0002f	8b 45 f0	 mov	 eax, DWORD PTR __Mylast$[ebp]
  00032	8b 00		 mov	 eax, DWORD PTR [eax]
  00034	89 45 e0	 mov	 DWORD PTR __Last$[ebp], eax
  00037	8b 45 fc	 mov	 eax, DWORD PTR __Myfirst$[ebp]
  0003a	8b 00		 mov	 eax, DWORD PTR [eax]
  0003c	89 45 dc	 mov	 DWORD PTR __First$[ebp], eax

; 1733 :         return _Mypair._Get_first();

  0003f	8b 45 f4	 mov	 eax, DWORD PTR _this$[ebp]
; File C:\Program Files (x86)\Microsoft Visual Studio\2019\Community\VC\Tools\MSVC\14.28.29333\include\xmemory

; 1347 :         return *this;

  00042	89 45 e8	 mov	 DWORD PTR $T4[ebp], eax
; File C:\Program Files (x86)\Microsoft Visual Studio\2019\Community\VC\Tools\MSVC\14.28.29333\include\vector

; 1733 :         return _Mypair._Get_first();

  00045	8b 45 e8	 mov	 eax, DWORD PTR $T4[ebp]
  00048	89 45 e4	 mov	 DWORD PTR $T3[ebp], eax

; 1612 :         _Destroy_range(_First, _Last, _Getal());

  0004b	ff 75 e4	 push	 DWORD PTR $T3[ebp]
  0004e	ff 75 e0	 push	 DWORD PTR __Last$[ebp]
  00051	ff 75 dc	 push	 DWORD PTR __First$[ebp]
  00054	e8 00 00 00 00	 call	 ??$_Destroy_range@V?$allocator@UTAttachEffectInstance@CFlyingInstance@@@std@@@std@@YAXPAUTAttachEffectInstance@CFlyingInstance@@QAU12@AAV?$allocator@UTAttachEffectInstance@CFlyingInstance@@@0@@Z ; std::_Destroy_range<std::allocator<CFlyingInstance::TAttachEffectInstance> >
  00059	83 c4 0c	 add	 esp, 12			; 0000000cH

; 1733 :         return _Mypair._Get_first();

  0005c	8b 45 f4	 mov	 eax, DWORD PTR _this$[ebp]
; File C:\Program Files (x86)\Microsoft Visual Studio\2019\Community\VC\Tools\MSVC\14.28.29333\include\xmemory

; 1347 :         return *this;

  0005f	89 45 d8	 mov	 DWORD PTR $T2[ebp], eax
; File C:\Program Files (x86)\Microsoft Visual Studio\2019\Community\VC\Tools\MSVC\14.28.29333\include\vector

; 1733 :         return _Mypair._Get_first();

  00062	8b 45 d8	 mov	 eax, DWORD PTR $T2[ebp]
  00065	89 45 cc	 mov	 DWORD PTR $T1[ebp], eax

; 1696 :             _Getal().deallocate(_Myfirst, static_cast<size_type>(_Myend - _Myfirst));

  00068	8b 45 ec	 mov	 eax, DWORD PTR __Myend$[ebp]
  0006b	8b 4d fc	 mov	 ecx, DWORD PTR __Myfirst$[ebp]
  0006e	8b 00		 mov	 eax, DWORD PTR [eax]
  00070	2b 01		 sub	 eax, DWORD PTR [ecx]
  00072	99		 cdq
  00073	6a 0c		 push	 12			; 0000000cH
  00075	59		 pop	 ecx
  00076	f7 f9		 idiv	 ecx
  00078	89 45 d4	 mov	 DWORD PTR __Count$[ebp], eax
  0007b	8b 45 fc	 mov	 eax, DWORD PTR __Myfirst$[ebp]
  0007e	8b 00		 mov	 eax, DWORD PTR [eax]
  00080	89 45 d0	 mov	 DWORD PTR __Ptr$[ebp], eax
; File C:\Program Files (x86)\Microsoft Visual Studio\2019\Community\VC\Tools\MSVC\14.28.29333\include\xmemory

; 810  :         _Deallocate<_New_alignof<_Ty>>(_Ptr, sizeof(_Ty) * _Count);

  00083	6b 45 d4 0c	 imul	 eax, DWORD PTR __Count$[ebp], 12
  00087	50		 push	 eax
  00088	ff 75 d0	 push	 DWORD PTR __Ptr$[ebp]
  0008b	e8 00 00 00 00	 call	 ??$_Deallocate@$07$0A@@std@@YAXPAXI@Z ; std::_Deallocate<8,0>
  00090	59		 pop	 ecx
  00091	59		 pop	 ecx
; File C:\Program Files (x86)\Microsoft Visual Studio\2019\Community\VC\Tools\MSVC\14.28.29333\include\vector

; 1698 :             _Myfirst = pointer();

  00092	8b 45 fc	 mov	 eax, DWORD PTR __Myfirst$[ebp]
  00095	83 20 00	 and	 DWORD PTR [eax], 0

; 1699 :             _Mylast  = pointer();

  00098	8b 45 f0	 mov	 eax, DWORD PTR __Mylast$[ebp]
  0009b	83 20 00	 and	 DWORD PTR [eax], 0

; 1700 :             _Myend   = pointer();

  0009e	8b 45 ec	 mov	 eax, DWORD PTR __Myend$[ebp]
  000a1	83 20 00	 and	 DWORD PTR [eax], 0
$LN3@Tidy:

; 1701 :         }
; 1702 :     }

  000a4	c9		 leave
  000a5	c3		 ret	 0
?_Tidy@?$vector@UTAttachEffectInstance@CFlyingInstance@@V?$allocator@UTAttachEffectInstance@CFlyingInstance@@@std@@@std@@AAEXXZ ENDP ; std::vector<CFlyingInstance::TAttachEffectInstance,std::allocator<CFlyingInstance::TAttachEffectInstance> >::_Tidy
_TEXT	ENDS
; Function compile flags: /Odspy
; File C:\Program Files (x86)\Microsoft Visual Studio\2019\Community\VC\Tools\MSVC\14.28.29333\include\vector
; File C:\Program Files (x86)\Microsoft Visual Studio\2019\Community\VC\Tools\MSVC\14.28.29333\include\xmemory
; File C:\Program Files (x86)\Microsoft Visual Studio\2019\Community\VC\Tools\MSVC\14.28.29333\include\vector
; File C:\Program Files (x86)\Microsoft Visual Studio\2019\Community\VC\Tools\MSVC\14.28.29333\include\xmemory
; File C:\Program Files (x86)\Microsoft Visual Studio\2019\Community\VC\Tools\MSVC\14.28.29333\include\vector
; File C:\Program Files (x86)\Microsoft Visual Studio\2019\Community\VC\Tools\MSVC\14.28.29333\include\xmemory
; File C:\Program Files (x86)\Microsoft Visual Studio\2019\Community\VC\Tools\MSVC\14.28.29333\include\vector
;	COMDAT ?_Change_array@?$vector@UTAttachEffectInstance@CFlyingInstance@@V?$allocator@UTAttachEffectInstance@CFlyingInstance@@@std@@@std@@AAEXQAUTAttachEffectInstance@CFlyingInstance@@II@Z
_TEXT	SEGMENT
$T1 = -52						; size = 4
__Ptr$ = -48						; size = 4
__Count$ = -44						; size = 4
$T2 = -40						; size = 4
__First$ = -36						; size = 4
__Last$ = -32						; size = 4
$T3 = -28						; size = 4
$T4 = -24						; size = 4
__Myend$ = -20						; size = 4
__Mylast$ = -16						; size = 4
_this$ = -12						; size = 4
__My_data$ = -8						; size = 4
__Myfirst$ = -4						; size = 4
__Newvec$ = 8						; size = 4
__Newsize$ = 12						; size = 4
__Newcapacity$ = 16					; size = 4
?_Change_array@?$vector@UTAttachEffectInstance@CFlyingInstance@@V?$allocator@UTAttachEffectInstance@CFlyingInstance@@@std@@@std@@AAEXQAUTAttachEffectInstance@CFlyingInstance@@II@Z PROC ; std::vector<CFlyingInstance::TAttachEffectInstance,std::allocator<CFlyingInstance::TAttachEffectInstance> >::_Change_array, COMDAT
; _this$ = ecx

; 1667 :     void _Change_array(const pointer _Newvec, const size_type _Newsize, const size_type _Newcapacity) {

  00000	55		 push	 ebp
  00001	8b ec		 mov	 ebp, esp
  00003	83 ec 34	 sub	 esp, 52			; 00000034H
  00006	89 4d f4	 mov	 DWORD PTR _this$[ebp], ecx

; 1668 :         // orphan all iterators, discard old array, acquire new array
; 1669 :         auto& _My_data    = _Mypair._Myval2;

  00009	8b 45 f4	 mov	 eax, DWORD PTR _this$[ebp]
  0000c	89 45 f8	 mov	 DWORD PTR __My_data$[ebp], eax

; 1670 :         pointer& _Myfirst = _My_data._Myfirst;

  0000f	8b 45 f8	 mov	 eax, DWORD PTR __My_data$[ebp]
  00012	89 45 fc	 mov	 DWORD PTR __Myfirst$[ebp], eax

; 1671 :         pointer& _Mylast  = _My_data._Mylast;

  00015	8b 45 f8	 mov	 eax, DWORD PTR __My_data$[ebp]
  00018	83 c0 04	 add	 eax, 4
  0001b	89 45 f0	 mov	 DWORD PTR __Mylast$[ebp], eax

; 1672 :         pointer& _Myend   = _My_data._Myend;

  0001e	8b 45 f8	 mov	 eax, DWORD PTR __My_data$[ebp]
  00021	83 c0 08	 add	 eax, 8
  00024	89 45 ec	 mov	 DWORD PTR __Myend$[ebp], eax

; 1673 : 
; 1674 :         _My_data._Orphan_all();
; 1675 : 
; 1676 :         if (_Myfirst) { // destroy and deallocate old array

  00027	8b 45 fc	 mov	 eax, DWORD PTR __Myfirst$[ebp]
  0002a	83 38 00	 cmp	 DWORD PTR [eax], 0
  0002d	74 63		 je	 SHORT $LN2@Change_arr

; 1677 :             _Destroy(_Myfirst, _Mylast);

  0002f	8b 45 f0	 mov	 eax, DWORD PTR __Mylast$[ebp]
  00032	8b 00		 mov	 eax, DWORD PTR [eax]
  00034	89 45 e0	 mov	 DWORD PTR __Last$[ebp], eax
  00037	8b 45 fc	 mov	 eax, DWORD PTR __Myfirst$[ebp]
  0003a	8b 00		 mov	 eax, DWORD PTR [eax]
  0003c	89 45 dc	 mov	 DWORD PTR __First$[ebp], eax

; 1733 :         return _Mypair._Get_first();

  0003f	8b 45 f4	 mov	 eax, DWORD PTR _this$[ebp]
; File C:\Program Files (x86)\Microsoft Visual Studio\2019\Community\VC\Tools\MSVC\14.28.29333\include\xmemory

; 1347 :         return *this;

  00042	89 45 e8	 mov	 DWORD PTR $T4[ebp], eax
; File C:\Program Files (x86)\Microsoft Visual Studio\2019\Community\VC\Tools\MSVC\14.28.29333\include\vector

; 1733 :         return _Mypair._Get_first();

  00045	8b 45 e8	 mov	 eax, DWORD PTR $T4[ebp]
  00048	89 45 e4	 mov	 DWORD PTR $T3[ebp], eax

; 1612 :         _Destroy_range(_First, _Last, _Getal());

  0004b	ff 75 e4	 push	 DWORD PTR $T3[ebp]
  0004e	ff 75 e0	 push	 DWORD PTR __Last$[ebp]
  00051	ff 75 dc	 push	 DWORD PTR __First$[ebp]
  00054	e8 00 00 00 00	 call	 ??$_Destroy_range@V?$allocator@UTAttachEffectInstance@CFlyingInstance@@@std@@@std@@YAXPAUTAttachEffectInstance@CFlyingInstance@@QAU12@AAV?$allocator@UTAttachEffectInstance@CFlyingInstance@@@0@@Z ; std::_Destroy_range<std::allocator<CFlyingInstance::TAttachEffectInstance> >
  00059	83 c4 0c	 add	 esp, 12			; 0000000cH

; 1733 :         return _Mypair._Get_first();

  0005c	8b 45 f4	 mov	 eax, DWORD PTR _this$[ebp]
; File C:\Program Files (x86)\Microsoft Visual Studio\2019\Community\VC\Tools\MSVC\14.28.29333\include\xmemory

; 1347 :         return *this;

  0005f	89 45 d8	 mov	 DWORD PTR $T2[ebp], eax
; File C:\Program Files (x86)\Microsoft Visual Studio\2019\Community\VC\Tools\MSVC\14.28.29333\include\vector

; 1733 :         return _Mypair._Get_first();

  00062	8b 45 d8	 mov	 eax, DWORD PTR $T2[ebp]
  00065	89 45 cc	 mov	 DWORD PTR $T1[ebp], eax

; 1678 :             _Getal().deallocate(_Myfirst, static_cast<size_type>(_Myend - _Myfirst));

  00068	8b 45 ec	 mov	 eax, DWORD PTR __Myend$[ebp]
  0006b	8b 4d fc	 mov	 ecx, DWORD PTR __Myfirst$[ebp]
  0006e	8b 00		 mov	 eax, DWORD PTR [eax]
  00070	2b 01		 sub	 eax, DWORD PTR [ecx]
  00072	99		 cdq
  00073	6a 0c		 push	 12			; 0000000cH
  00075	59		 pop	 ecx
  00076	f7 f9		 idiv	 ecx
  00078	89 45 d4	 mov	 DWORD PTR __Count$[ebp], eax
  0007b	8b 45 fc	 mov	 eax, DWORD PTR __Myfirst$[ebp]
  0007e	8b 00		 mov	 eax, DWORD PTR [eax]
  00080	89 45 d0	 mov	 DWORD PTR __Ptr$[ebp], eax
; File C:\Program Files (x86)\Microsoft Visual Studio\2019\Community\VC\Tools\MSVC\14.28.29333\include\xmemory

; 810  :         _Deallocate<_New_alignof<_Ty>>(_Ptr, sizeof(_Ty) * _Count);

  00083	6b 45 d4 0c	 imul	 eax, DWORD PTR __Count$[ebp], 12
  00087	50		 push	 eax
  00088	ff 75 d0	 push	 DWORD PTR __Ptr$[ebp]
  0008b	e8 00 00 00 00	 call	 ??$_Deallocate@$07$0A@@std@@YAXPAXI@Z ; std::_Deallocate<8,0>
  00090	59		 pop	 ecx
  00091	59		 pop	 ecx
$LN2@Change_arr:
; File C:\Program Files (x86)\Microsoft Visual Studio\2019\Community\VC\Tools\MSVC\14.28.29333\include\vector

; 1681 :         _Myfirst = _Newvec;

  00092	8b 45 fc	 mov	 eax, DWORD PTR __Myfirst$[ebp]
  00095	8b 4d 08	 mov	 ecx, DWORD PTR __Newvec$[ebp]
  00098	89 08		 mov	 DWORD PTR [eax], ecx

; 1682 :         _Mylast  = _Newvec + _Newsize;

  0009a	6b 45 0c 0c	 imul	 eax, DWORD PTR __Newsize$[ebp], 12
  0009e	03 45 08	 add	 eax, DWORD PTR __Newvec$[ebp]
  000a1	8b 4d f0	 mov	 ecx, DWORD PTR __Mylast$[ebp]
  000a4	89 01		 mov	 DWORD PTR [ecx], eax

; 1683 :         _Myend   = _Newvec + _Newcapacity;

  000a6	6b 45 10 0c	 imul	 eax, DWORD PTR __Newcapacity$[ebp], 12
  000aa	03 45 08	 add	 eax, DWORD PTR __Newvec$[ebp]
  000ad	8b 4d ec	 mov	 ecx, DWORD PTR __Myend$[ebp]
  000b0	89 01		 mov	 DWORD PTR [ecx], eax

; 1684 :     }

  000b2	c9		 leave
  000b3	c2 0c 00	 ret	 12			; 0000000cH
?_Change_array@?$vector@UTAttachEffectInstance@CFlyingInstance@@V?$allocator@UTAttachEffectInstance@CFlyingInstance@@@std@@@std@@AAEXQAUTAttachEffectInstance@CFlyingInstance@@II@Z ENDP ; std::vector<CFlyingInstance::TAttachEffectInstance,std::allocator<CFlyingInstance::TAttachEffectInstance> >::_Change_array
_TEXT	ENDS
; Function compile flags: /Odspy
; File C:\Program Files (x86)\Microsoft Visual Studio\2019\Community\VC\Tools\MSVC\14.28.29333\include\vector
; File C:\Program Files (x86)\Microsoft Visual Studio\2019\Community\VC\Tools\MSVC\14.28.29333\include\xmemory
; File C:\Program Files (x86)\Microsoft Visual Studio\2019\Community\VC\Tools\MSVC\14.28.29333\include\vector
; File C:\Program Files (x86)\Microsoft Visual Studio\2019\Community\VC\Tools\MSVC\14.28.29333\include\xmemory
; File C:\Program Files (x86)\Microsoft Visual Studio\2019\Community\VC\Tools\MSVC\14.28.29333\include\limits
; File C:\Program Files (x86)\Microsoft Visual Studio\2019\Community\VC\Tools\MSVC\14.28.29333\include\vector
; File C:\Program Files (x86)\Microsoft Visual Studio\2019\Community\VC\Tools\MSVC\14.28.29333\include\utility
; File C:\Program Files (x86)\Microsoft Visual Studio\2019\Community\VC\Tools\MSVC\14.28.29333\include\vector
;	COMDAT ?_Calculate_growth@?$vector@UTAttachEffectInstance@CFlyingInstance@@V?$allocator@UTAttachEffectInstance@CFlyingInstance@@@std@@@std@@ABEII@Z
_TEXT	SEGMENT
$T1 = -52						; size = 4
$T2 = -48						; size = 4
$T3 = -44						; size = 4
$T4 = -40						; size = 4
$T5 = -36						; size = 4
__Geometric$ = -32					; size = 4
__Max$ = -28						; size = 4
tv82 = -24						; size = 4
$T6 = -20						; size = 4
$T7 = -16						; size = 4
_this$ = -12						; size = 4
__My_data$8 = -8					; size = 4
__Oldcapacity$ = -4					; size = 4
__Newsize$ = 8						; size = 4
?_Calculate_growth@?$vector@UTAttachEffectInstance@CFlyingInstance@@V?$allocator@UTAttachEffectInstance@CFlyingInstance@@@std@@@std@@ABEII@Z PROC ; std::vector<CFlyingInstance::TAttachEffectInstance,std::allocator<CFlyingInstance::TAttachEffectInstance> >::_Calculate_growth, COMDAT
; _this$ = ecx

; 1615 :     size_type _Calculate_growth(const size_type _Newsize) const {

  00000	55		 push	 ebp
  00001	8b ec		 mov	 ebp, esp
  00003	83 ec 34	 sub	 esp, 52			; 00000034H
  00006	89 4d f4	 mov	 DWORD PTR _this$[ebp], ecx

; 1493 :         auto& _My_data = _Mypair._Myval2;

  00009	8b 45 f4	 mov	 eax, DWORD PTR _this$[ebp]
  0000c	89 45 f8	 mov	 DWORD PTR __My_data$8[ebp], eax

; 1494 :         return static_cast<size_type>(_My_data._Myend - _My_data._Myfirst);

  0000f	8b 45 f8	 mov	 eax, DWORD PTR __My_data$8[ebp]
  00012	8b 4d f8	 mov	 ecx, DWORD PTR __My_data$8[ebp]
  00015	8b 40 08	 mov	 eax, DWORD PTR [eax+8]
  00018	2b 01		 sub	 eax, DWORD PTR [ecx]
  0001a	99		 cdq
  0001b	6a 0c		 push	 12			; 0000000cH
  0001d	59		 pop	 ecx
  0001e	f7 f9		 idiv	 ecx
  00020	89 45 fc	 mov	 DWORD PTR __Oldcapacity$[ebp], eax

; 1737 :         return _Mypair._Get_first();

  00023	8b 45 f4	 mov	 eax, DWORD PTR _this$[ebp]
; File C:\Program Files (x86)\Microsoft Visual Studio\2019\Community\VC\Tools\MSVC\14.28.29333\include\xmemory

; 1351 :         return *this;

  00026	89 45 dc	 mov	 DWORD PTR $T5[ebp], eax
; File C:\Program Files (x86)\Microsoft Visual Studio\2019\Community\VC\Tools\MSVC\14.28.29333\include\vector

; 1737 :         return _Mypair._Get_first();

  00029	8b 45 dc	 mov	 eax, DWORD PTR $T5[ebp]
  0002c	89 45 cc	 mov	 DWORD PTR $T1[ebp], eax
; File C:\Program Files (x86)\Microsoft Visual Studio\2019\Community\VC\Tools\MSVC\14.28.29333\include\xmemory

; 710  :         return static_cast<size_t>(-1) / sizeof(value_type);

  0002f	c7 45 f0 55 55
	55 15		 mov	 DWORD PTR $T7[ebp], 357913941 ; 15555555H
; File C:\Program Files (x86)\Microsoft Visual Studio\2019\Community\VC\Tools\MSVC\14.28.29333\include\limits

; 557  :         return INT_MAX;

  00036	c7 45 d8 ff ff
	ff 7f		 mov	 DWORD PTR $T4[ebp], 2147483647 ; 7fffffffH
; File C:\Program Files (x86)\Microsoft Visual Studio\2019\Community\VC\Tools\MSVC\14.28.29333\include\vector

; 1488 :         return (_STD min)(

  0003d	8b 45 d8	 mov	 eax, DWORD PTR $T4[ebp]
  00040	89 45 ec	 mov	 DWORD PTR $T6[ebp], eax
; File C:\Program Files (x86)\Microsoft Visual Studio\2019\Community\VC\Tools\MSVC\14.28.29333\include\utility

; 68   :     return _Right < _Left ? _Right : _Left;

  00043	8b 45 f0	 mov	 eax, DWORD PTR $T7[ebp]
  00046	3b 45 ec	 cmp	 eax, DWORD PTR $T6[ebp]
  00049	73 08		 jae	 SHORT $LN25@Calculate_
  0004b	8d 45 f0	 lea	 eax, DWORD PTR $T7[ebp]
  0004e	89 45 e8	 mov	 DWORD PTR tv82[ebp], eax
  00051	eb 06		 jmp	 SHORT $LN26@Calculate_
$LN25@Calculate_:
  00053	8d 45 ec	 lea	 eax, DWORD PTR $T6[ebp]
  00056	89 45 e8	 mov	 DWORD PTR tv82[ebp], eax
$LN26@Calculate_:
  00059	8b 45 e8	 mov	 eax, DWORD PTR tv82[ebp]
  0005c	89 45 d4	 mov	 DWORD PTR $T3[ebp], eax
  0005f	8b 45 d4	 mov	 eax, DWORD PTR $T3[ebp]
  00062	89 45 d0	 mov	 DWORD PTR $T2[ebp], eax
; File C:\Program Files (x86)\Microsoft Visual Studio\2019\Community\VC\Tools\MSVC\14.28.29333\include\vector

; 1488 :         return (_STD min)(

  00065	8b 45 d0	 mov	 eax, DWORD PTR $T2[ebp]
  00068	8b 00		 mov	 eax, DWORD PTR [eax]
  0006a	89 45 e4	 mov	 DWORD PTR __Max$[ebp], eax

; 1616 :         // given _Oldcapacity and _Newsize, calculate geometric growth
; 1617 :         const size_type _Oldcapacity = capacity();
; 1618 :         const auto _Max              = max_size();
; 1619 : 
; 1620 :         if (_Oldcapacity > _Max - _Oldcapacity / 2) {

  0006d	8b 45 fc	 mov	 eax, DWORD PTR __Oldcapacity$[ebp]
  00070	d1 e8		 shr	 eax, 1
  00072	8b 4d e4	 mov	 ecx, DWORD PTR __Max$[ebp]
  00075	2b c8		 sub	 ecx, eax
  00077	39 4d fc	 cmp	 DWORD PTR __Oldcapacity$[ebp], ecx
  0007a	76 05		 jbe	 SHORT $LN2@Calculate_

; 1621 :             return _Max; // geometric growth would overflow

  0007c	8b 45 e4	 mov	 eax, DWORD PTR __Max$[ebp]
  0007f	eb 1b		 jmp	 SHORT $LN1@Calculate_
$LN2@Calculate_:

; 1622 :         }
; 1623 : 
; 1624 :         const size_type _Geometric = _Oldcapacity + _Oldcapacity / 2;

  00081	8b 45 fc	 mov	 eax, DWORD PTR __Oldcapacity$[ebp]
  00084	d1 e8		 shr	 eax, 1
  00086	03 45 fc	 add	 eax, DWORD PTR __Oldcapacity$[ebp]
  00089	89 45 e0	 mov	 DWORD PTR __Geometric$[ebp], eax

; 1625 : 
; 1626 :         if (_Geometric < _Newsize) {

  0008c	8b 45 e0	 mov	 eax, DWORD PTR __Geometric$[ebp]
  0008f	3b 45 08	 cmp	 eax, DWORD PTR __Newsize$[ebp]
  00092	73 05		 jae	 SHORT $LN3@Calculate_

; 1627 :             return _Newsize; // geometric growth would be insufficient

  00094	8b 45 08	 mov	 eax, DWORD PTR __Newsize$[ebp]
  00097	eb 03		 jmp	 SHORT $LN1@Calculate_
$LN3@Calculate_:

; 1628 :         }
; 1629 : 
; 1630 :         return _Geometric; // geometric growth is sufficient

  00099	8b 45 e0	 mov	 eax, DWORD PTR __Geometric$[ebp]
$LN1@Calculate_:

; 1631 :     }

  0009c	c9		 leave
  0009d	c2 04 00	 ret	 4
?_Calculate_growth@?$vector@UTAttachEffectInstance@CFlyingInstance@@V?$allocator@UTAttachEffectInstance@CFlyingInstance@@@std@@@std@@ABEII@Z ENDP ; std::vector<CFlyingInstance::TAttachEffectInstance,std::allocator<CFlyingInstance::TAttachEffectInstance> >::_Calculate_growth
_TEXT	ENDS
; Function compile flags: /Odspy
; File C:\Program Files (x86)\Microsoft Visual Studio\2019\Community\VC\Tools\MSVC\14.28.29333\include\vector
; File C:\Program Files (x86)\Microsoft Visual Studio\2019\Community\VC\Tools\MSVC\14.28.29333\include\xmemory
; File C:\Program Files (x86)\Microsoft Visual Studio\2019\Community\VC\Tools\MSVC\14.28.29333\include\vector
;	COMDAT ?_Destroy@?$vector@UTAttachEffectInstance@CFlyingInstance@@V?$allocator@UTAttachEffectInstance@CFlyingInstance@@@std@@@std@@AAEXPAUTAttachEffectInstance@CFlyingInstance@@0@Z
_TEXT	SEGMENT
$T1 = -12						; size = 4
$T2 = -8						; size = 4
_this$ = -4						; size = 4
__First$ = 8						; size = 4
__Last$ = 12						; size = 4
?_Destroy@?$vector@UTAttachEffectInstance@CFlyingInstance@@V?$allocator@UTAttachEffectInstance@CFlyingInstance@@@std@@@std@@AAEXPAUTAttachEffectInstance@CFlyingInstance@@0@Z PROC ; std::vector<CFlyingInstance::TAttachEffectInstance,std::allocator<CFlyingInstance::TAttachEffectInstance> >::_Destroy, COMDAT
; _this$ = ecx

; 1611 :     void _Destroy(pointer _First, pointer _Last) { // destroy [_First, _Last) using allocator

  00000	55		 push	 ebp
  00001	8b ec		 mov	 ebp, esp
  00003	83 ec 0c	 sub	 esp, 12			; 0000000cH
  00006	89 4d fc	 mov	 DWORD PTR _this$[ebp], ecx

; 1733 :         return _Mypair._Get_first();

  00009	8b 45 fc	 mov	 eax, DWORD PTR _this$[ebp]
; File C:\Program Files (x86)\Microsoft Visual Studio\2019\Community\VC\Tools\MSVC\14.28.29333\include\xmemory

; 1347 :         return *this;

  0000c	89 45 f8	 mov	 DWORD PTR $T2[ebp], eax
; File C:\Program Files (x86)\Microsoft Visual Studio\2019\Community\VC\Tools\MSVC\14.28.29333\include\vector

; 1733 :         return _Mypair._Get_first();

  0000f	8b 45 f8	 mov	 eax, DWORD PTR $T2[ebp]
  00012	89 45 f4	 mov	 DWORD PTR $T1[ebp], eax

; 1612 :         _Destroy_range(_First, _Last, _Getal());

  00015	ff 75 f4	 push	 DWORD PTR $T1[ebp]
  00018	ff 75 0c	 push	 DWORD PTR __Last$[ebp]
  0001b	ff 75 08	 push	 DWORD PTR __First$[ebp]
  0001e	e8 00 00 00 00	 call	 ??$_Destroy_range@V?$allocator@UTAttachEffectInstance@CFlyingInstance@@@std@@@std@@YAXPAUTAttachEffectInstance@CFlyingInstance@@QAU12@AAV?$allocator@UTAttachEffectInstance@CFlyingInstance@@@0@@Z ; std::_Destroy_range<std::allocator<CFlyingInstance::TAttachEffectInstance> >
  00023	83 c4 0c	 add	 esp, 12			; 0000000cH

; 1613 :     }

  00026	c9		 leave
  00027	c2 08 00	 ret	 8
?_Destroy@?$vector@UTAttachEffectInstance@CFlyingInstance@@V?$allocator@UTAttachEffectInstance@CFlyingInstance@@@std@@@std@@AAEXPAUTAttachEffectInstance@CFlyingInstance@@0@Z ENDP ; std::vector<CFlyingInstance::TAttachEffectInstance,std::allocator<CFlyingInstance::TAttachEffectInstance> >::_Destroy
_TEXT	ENDS
; Function compile flags: /Odspy
; File C:\Program Files (x86)\Microsoft Visual Studio\2019\Community\VC\Tools\MSVC\14.28.29333\include\vector
; File C:\Program Files (x86)\Microsoft Visual Studio\2019\Community\VC\Tools\MSVC\14.28.29333\include\xmemory
; File C:\Program Files (x86)\Microsoft Visual Studio\2019\Community\VC\Tools\MSVC\14.28.29333\include\vector
;	COMDAT ?clear@?$vector@UTAttachEffectInstance@CFlyingInstance@@V?$allocator@UTAttachEffectInstance@CFlyingInstance@@@std@@@std@@QAEXXZ
_TEXT	SEGMENT
__First$ = -32						; size = 4
__Last$ = -28						; size = 4
$T1 = -24						; size = 4
$T2 = -20						; size = 4
__Myfirst$ = -16					; size = 4
__Mylast$ = -12						; size = 4
_this$ = -8						; size = 4
__My_data$ = -4						; size = 4
?clear@?$vector@UTAttachEffectInstance@CFlyingInstance@@V?$allocator@UTAttachEffectInstance@CFlyingInstance@@@std@@@std@@QAEXXZ PROC ; std::vector<CFlyingInstance::TAttachEffectInstance,std::allocator<CFlyingInstance::TAttachEffectInstance> >::clear, COMDAT
; _this$ = ecx

; 1383 :     void clear() noexcept { // erase all

  00000	55		 push	 ebp
  00001	8b ec		 mov	 ebp, esp
  00003	83 ec 20	 sub	 esp, 32			; 00000020H
  00006	89 4d f8	 mov	 DWORD PTR _this$[ebp], ecx

; 1384 :         auto& _My_data    = _Mypair._Myval2;

  00009	8b 45 f8	 mov	 eax, DWORD PTR _this$[ebp]
  0000c	89 45 fc	 mov	 DWORD PTR __My_data$[ebp], eax

; 1385 :         pointer& _Myfirst = _My_data._Myfirst;

  0000f	8b 45 fc	 mov	 eax, DWORD PTR __My_data$[ebp]
  00012	89 45 f0	 mov	 DWORD PTR __Myfirst$[ebp], eax

; 1386 :         pointer& _Mylast  = _My_data._Mylast;

  00015	8b 45 fc	 mov	 eax, DWORD PTR __My_data$[ebp]
  00018	83 c0 04	 add	 eax, 4
  0001b	89 45 f4	 mov	 DWORD PTR __Mylast$[ebp], eax

; 1387 : 
; 1388 :         _My_data._Orphan_all();
; 1389 :         _Destroy(_Myfirst, _Mylast);

  0001e	8b 45 f4	 mov	 eax, DWORD PTR __Mylast$[ebp]
  00021	8b 00		 mov	 eax, DWORD PTR [eax]
  00023	89 45 e4	 mov	 DWORD PTR __Last$[ebp], eax
  00026	8b 45 f0	 mov	 eax, DWORD PTR __Myfirst$[ebp]
  00029	8b 00		 mov	 eax, DWORD PTR [eax]
  0002b	89 45 e0	 mov	 DWORD PTR __First$[ebp], eax

; 1733 :         return _Mypair._Get_first();

  0002e	8b 45 f8	 mov	 eax, DWORD PTR _this$[ebp]
; File C:\Program Files (x86)\Microsoft Visual Studio\2019\Community\VC\Tools\MSVC\14.28.29333\include\xmemory

; 1347 :         return *this;

  00031	89 45 ec	 mov	 DWORD PTR $T2[ebp], eax
; File C:\Program Files (x86)\Microsoft Visual Studio\2019\Community\VC\Tools\MSVC\14.28.29333\include\vector

; 1733 :         return _Mypair._Get_first();

  00034	8b 45 ec	 mov	 eax, DWORD PTR $T2[ebp]
  00037	89 45 e8	 mov	 DWORD PTR $T1[ebp], eax

; 1612 :         _Destroy_range(_First, _Last, _Getal());

  0003a	ff 75 e8	 push	 DWORD PTR $T1[ebp]
  0003d	ff 75 e4	 push	 DWORD PTR __Last$[ebp]
  00040	ff 75 e0	 push	 DWORD PTR __First$[ebp]
  00043	e8 00 00 00 00	 call	 ??$_Destroy_range@V?$allocator@UTAttachEffectInstance@CFlyingInstance@@@std@@@std@@YAXPAUTAttachEffectInstance@CFlyingInstance@@QAU12@AAV?$allocator@UTAttachEffectInstance@CFlyingInstance@@@0@@Z ; std::_Destroy_range<std::allocator<CFlyingInstance::TAttachEffectInstance> >
  00048	83 c4 0c	 add	 esp, 12			; 0000000cH

; 1390 :         _Mylast = _Myfirst;

  0004b	8b 45 f4	 mov	 eax, DWORD PTR __Mylast$[ebp]
  0004e	8b 4d f0	 mov	 ecx, DWORD PTR __Myfirst$[ebp]
  00051	8b 09		 mov	 ecx, DWORD PTR [ecx]
  00053	89 08		 mov	 DWORD PTR [eax], ecx

; 1391 :     }

  00055	c9		 leave
  00056	c3		 ret	 0
?clear@?$vector@UTAttachEffectInstance@CFlyingInstance@@V?$allocator@UTAttachEffectInstance@CFlyingInstance@@@std@@@std@@QAEXXZ ENDP ; std::vector<CFlyingInstance::TAttachEffectInstance,std::allocator<CFlyingInstance::TAttachEffectInstance> >::clear
_TEXT	ENDS
; Function compile flags: /Odspy
; File C:\Program Files (x86)\Microsoft Visual Studio\2019\Community\VC\Tools\MSVC\14.28.29333\include\vector
;	COMDAT ??1?$vector@UTAttachEffectInstance@CFlyingInstance@@V?$allocator@UTAttachEffectInstance@CFlyingInstance@@@std@@@std@@QAE@XZ
_TEXT	SEGMENT
_this$ = -4						; size = 4
??1?$vector@UTAttachEffectInstance@CFlyingInstance@@V?$allocator@UTAttachEffectInstance@CFlyingInstance@@@std@@@std@@QAE@XZ PROC ; std::vector<CFlyingInstance::TAttachEffectInstance,std::allocator<CFlyingInstance::TAttachEffectInstance> >::~vector<CFlyingInstance::TAttachEffectInstance,std::allocator<CFlyingInstance::TAttachEffectInstance> >, COMDAT
; _this$ = ecx

; 672  :     ~vector() noexcept {

  00000	55		 push	 ebp
  00001	8b ec		 mov	 ebp, esp
  00003	51		 push	 ecx
  00004	89 4d fc	 mov	 DWORD PTR _this$[ebp], ecx

; 673  :         _Tidy();

  00007	8b 4d fc	 mov	 ecx, DWORD PTR _this$[ebp]
  0000a	e8 00 00 00 00	 call	 ?_Tidy@?$vector@UTAttachEffectInstance@CFlyingInstance@@V?$allocator@UTAttachEffectInstance@CFlyingInstance@@@std@@@std@@AAEXXZ ; std::vector<CFlyingInstance::TAttachEffectInstance,std::allocator<CFlyingInstance::TAttachEffectInstance> >::_Tidy

; 674  : #if _ITERATOR_DEBUG_LEVEL != 0
; 675  :         auto&& _Alproxy = _GET_PROXY_ALLOCATOR(_Alty, _Getal());
; 676  :         _Delete_plain_internal(_Alproxy, _STD exchange(_Mypair._Myval2._Myproxy, nullptr));
; 677  : #endif // _ITERATOR_DEBUG_LEVEL != 0
; 678  :     }

  0000f	c9		 leave
  00010	c3		 ret	 0
??1?$vector@UTAttachEffectInstance@CFlyingInstance@@V?$allocator@UTAttachEffectInstance@CFlyingInstance@@@std@@@std@@QAE@XZ ENDP ; std::vector<CFlyingInstance::TAttachEffectInstance,std::allocator<CFlyingInstance::TAttachEffectInstance> >::~vector<CFlyingInstance::TAttachEffectInstance,std::allocator<CFlyingInstance::TAttachEffectInstance> >
_TEXT	ENDS
; Function compile flags: /Odspy
; File C:\Program Files (x86)\Microsoft Visual Studio\2019\Community\VC\Tools\MSVC\14.28.29333\include\xmemory
;	COMDAT ?deallocate@?$allocator@UTAttachEffectInstance@CFlyingInstance@@@std@@QAEXQAUTAttachEffectInstance@CFlyingInstance@@I@Z
_TEXT	SEGMENT
_this$ = -4						; size = 4
__Ptr$ = 8						; size = 4
__Count$ = 12						; size = 4
?deallocate@?$allocator@UTAttachEffectInstance@CFlyingInstance@@@std@@QAEXQAUTAttachEffectInstance@CFlyingInstance@@I@Z PROC ; std::allocator<CFlyingInstance::TAttachEffectInstance>::deallocate, COMDAT
; _this$ = ecx

; 808  :     void deallocate(_Ty* const _Ptr, const size_t _Count) {

  00000	55		 push	 ebp
  00001	8b ec		 mov	 ebp, esp
  00003	51		 push	 ecx
  00004	89 4d fc	 mov	 DWORD PTR _this$[ebp], ecx

; 809  :         // no overflow check on the following multiply; we assume _Allocate did that check
; 810  :         _Deallocate<_New_alignof<_Ty>>(_Ptr, sizeof(_Ty) * _Count);

  00007	6b 45 0c 0c	 imul	 eax, DWORD PTR __Count$[ebp], 12
  0000b	50		 push	 eax
  0000c	ff 75 08	 push	 DWORD PTR __Ptr$[ebp]
  0000f	e8 00 00 00 00	 call	 ??$_Deallocate@$07$0A@@std@@YAXPAXI@Z ; std::_Deallocate<8,0>
  00014	59		 pop	 ecx
  00015	59		 pop	 ecx

; 811  :     }

  00016	c9		 leave
  00017	c2 08 00	 ret	 8
?deallocate@?$allocator@UTAttachEffectInstance@CFlyingInstance@@@std@@QAEXQAUTAttachEffectInstance@CFlyingInstance@@I@Z ENDP ; std::allocator<CFlyingInstance::TAttachEffectInstance>::deallocate
_TEXT	ENDS
; Function compile flags: /Odspy
; File D:\Metin2 Server Files\mainline\SRC_2014\Metin2Client\GameLib\FlyingInstance.cpp
; File D:\Metin2 Server Files\mainline\SRC_2014\M2Data\include\d3dx8math.inl
; File D:\Metin2 Server Files\mainline\SRC_2014\Metin2Client\GameLib\FlyingInstance.cpp
;	COMDAT ?__SetTargetNormalizedDirection@CFlyingInstance@@IAEXABUD3DXVECTOR3@@@Z
_TEXT	SEGMENT
_q$ = -36						; size = 16
_this$ = -20						; size = 4
$T1 = -16						; size = 12
__$ArrayPad$ = -4					; size = 4
_v3NomalizedDirection$ = 8				; size = 4
?__SetTargetNormalizedDirection@CFlyingInstance@@IAEXABUD3DXVECTOR3@@@Z PROC ; CFlyingInstance::__SetTargetNormalizedDirection, COMDAT
; _this$ = ecx

; 127  : {

  00000	55		 push	 ebp
  00001	8b ec		 mov	 ebp, esp
  00003	83 ec 24	 sub	 esp, 36			; 00000024H
  00006	a1 00 00 00 00	 mov	 eax, DWORD PTR ___security_cookie
  0000b	33 c5		 xor	 eax, ebp
  0000d	89 45 fc	 mov	 DWORD PTR __$ArrayPad$[ebp], eax
  00010	89 4d ec	 mov	 DWORD PTR _this$[ebp], ecx
; File D:\Metin2 Server Files\mainline\SRC_2014\M2Data\include\d3dx8math.inl

; 180  :     x = fx;

  00013	0f 57 c0	 xorps	 xmm0, xmm0
  00016	f3 0f 11 45 f0	 movss	 DWORD PTR $T1[ebp], xmm0

; 181  :     y = fy;

  0001b	f3 0f 10 05 00
	00 00 00	 movss	 xmm0, DWORD PTR __real@bf800000
  00023	f3 0f 11 45 f4	 movss	 DWORD PTR $T1[ebp+4], xmm0

; 182  :     z = fz;

  00028	0f 57 c0	 xorps	 xmm0, xmm0
  0002b	f3 0f 11 45 f8	 movss	 DWORD PTR $T1[ebp+8], xmm0
; File D:\Metin2 Server Files\mainline\SRC_2014\Metin2Client\GameLib\FlyingInstance.cpp

; 128  : 	D3DXQUATERNION q = SafeRotationNormalizedArc(D3DXVECTOR3(0.0f,-1.0f,0.0f),v3NomalizedDirection);

  00030	ff 75 08	 push	 DWORD PTR _v3NomalizedDirection$[ebp]
  00033	8d 45 f0	 lea	 eax, DWORD PTR $T1[ebp]
  00036	50		 push	 eax
  00037	8d 45 dc	 lea	 eax, DWORD PTR _q$[ebp]
  0003a	50		 push	 eax
  0003b	e8 00 00 00 00	 call	 ?SafeRotationNormalizedArc@@YA?AUD3DXQUATERNION@@ABUD3DXVECTOR3@@0@Z ; SafeRotationNormalizedArc
  00040	83 c4 0c	 add	 esp, 12			; 0000000cH

; 129  : 	D3DXQuaternionMultiply(&m_qRot,&m_qRot,&q);

  00043	8d 45 dc	 lea	 eax, DWORD PTR _q$[ebp]
  00046	50		 push	 eax
  00047	8b 45 ec	 mov	 eax, DWORD PTR _this$[ebp]
  0004a	83 c0 0c	 add	 eax, 12			; 0000000cH
  0004d	50		 push	 eax
  0004e	8b 45 ec	 mov	 eax, DWORD PTR _this$[ebp]
  00051	83 c0 0c	 add	 eax, 12			; 0000000cH
  00054	50		 push	 eax
  00055	e8 00 00 00 00	 call	 _D3DXQuaternionMultiply@12

; 130  : 	Vec3TransformQuaternion(&m_v3Velocity,&m_v3LocalVelocity,&m_qRot);

  0005a	8b 45 ec	 mov	 eax, DWORD PTR _this$[ebp]
  0005d	83 c0 0c	 add	 eax, 12			; 0000000cH
  00060	50		 push	 eax
  00061	8b 45 ec	 mov	 eax, DWORD PTR _this$[ebp]
  00064	83 c0 44	 add	 eax, 68			; 00000044H
  00067	50		 push	 eax
  00068	8b 45 ec	 mov	 eax, DWORD PTR _this$[ebp]
  0006b	83 c0 38	 add	 eax, 56			; 00000038H
  0006e	50		 push	 eax
  0006f	e8 00 00 00 00	 call	 ?Vec3TransformQuaternion@@YAPAUD3DXVECTOR3@@PAU1@PBU1@PBUD3DXQUATERNION@@@Z ; Vec3TransformQuaternion
  00074	83 c4 0c	 add	 esp, 12			; 0000000cH

; 131  : 	Vec3TransformQuaternion(&m_v3Accel, &m_pData->m_v3Accel, &m_qRot);

  00077	8b 45 ec	 mov	 eax, DWORD PTR _this$[ebp]
  0007a	83 c0 0c	 add	 eax, 12			; 0000000cH
  0007d	50		 push	 eax
  0007e	8b 45 ec	 mov	 eax, DWORD PTR _this$[ebp]
  00081	8b 40 08	 mov	 eax, DWORD PTR [eax+8]
  00084	83 c0 78	 add	 eax, 120		; 00000078H
  00087	50		 push	 eax
  00088	8b 45 ec	 mov	 eax, DWORD PTR _this$[ebp]
  0008b	83 c0 50	 add	 eax, 80			; 00000050H
  0008e	50		 push	 eax
  0008f	e8 00 00 00 00	 call	 ?Vec3TransformQuaternion@@YAPAUD3DXVECTOR3@@PAU1@PBU1@PBUD3DXQUATERNION@@@Z ; Vec3TransformQuaternion
  00094	83 c4 0c	 add	 esp, 12			; 0000000cH

; 132  : }

  00097	8b 4d fc	 mov	 ecx, DWORD PTR __$ArrayPad$[ebp]
  0009a	33 cd		 xor	 ecx, ebp
  0009c	e8 00 00 00 00	 call	 @__security_check_cookie@4
  000a1	c9		 leave
  000a2	c2 04 00	 ret	 4
?__SetTargetNormalizedDirection@CFlyingInstance@@IAEXABUD3DXVECTOR3@@@Z ENDP ; CFlyingInstance::__SetTargetNormalizedDirection
_TEXT	ENDS
; Function compile flags: /Odspy
; File D:\Metin2 Server Files\mainline\SRC_2014\Metin2Client\GameLib\FlyingInstance.cpp
; File D:\Metin2 Server Files\mainline\SRC_2014\M2Data\include\d3dx8math.inl
; File D:\Metin2 Server Files\mainline\SRC_2014\Metin2Client\GameLib\FlyingInstance.cpp
;	COMDAT ?__SetTargetDirection@CFlyingInstance@@IAEXABVCFlyTarget@@@Z
_TEXT	SEGMENT
_fz$ = -48						; size = 4
_fy$ = -44						; size = 4
_fx$ = -40						; size = 4
_this$ = -36						; size = 4
_v$ = -32						; size = 4
_v3TargetDir$ = -28					; size = 12
_v3TargetPos$ = -16					; size = 12
__$ArrayPad$ = -4					; size = 4
_c_rkTarget$ = 8					; size = 4
?__SetTargetDirection@CFlyingInstance@@IAEXABVCFlyTarget@@@Z PROC ; CFlyingInstance::__SetTargetDirection, COMDAT
; _this$ = ecx

; 111  : {

  00000	55		 push	 ebp
  00001	8b ec		 mov	 ebp, esp
  00003	83 ec 30	 sub	 esp, 48			; 00000030H
  00006	a1 00 00 00 00	 mov	 eax, DWORD PTR ___security_cookie
  0000b	33 c5		 xor	 eax, ebp
  0000d	89 45 fc	 mov	 DWORD PTR __$ArrayPad$[ebp], eax
  00010	56		 push	 esi
  00011	57		 push	 edi
  00012	89 4d dc	 mov	 DWORD PTR _this$[ebp], ecx

; 112  : 	D3DXVECTOR3 v3TargetPos=c_rkTarget.GetFlyTargetPosition();

  00015	8b 4d 08	 mov	 ecx, DWORD PTR _c_rkTarget$[ebp]
  00018	e8 00 00 00 00	 call	 ?GetFlyTargetPosition@CFlyTarget@@QBEABUD3DXVECTOR3@@XZ ; CFlyTarget::GetFlyTargetPosition
  0001d	8b f0		 mov	 esi, eax
  0001f	8d 7d f0	 lea	 edi, DWORD PTR _v3TargetPos$[ebp]
  00022	a5		 movsd
  00023	a5		 movsd
  00024	a5		 movsd

; 113  : 
; 114  : 	//  
; 115  : 	if (m_pData->m_bMaintainParallel)

  00025	8b 45 dc	 mov	 eax, DWORD PTR _this$[ebp]
  00028	8b 40 08	 mov	 eax, DWORD PTR [eax+8]
  0002b	0f b6 40 1d	 movzx	 eax, BYTE PTR [eax+29]
  0002f	85 c0		 test	 eax, eax
  00031	74 12		 je	 SHORT $LN2@SetTargetD

; 116  : 	{
; 117  : 		v3TargetPos.z += 50.0f;

  00033	f3 0f 10 45 f8	 movss	 xmm0, DWORD PTR _v3TargetPos$[ebp+8]
  00038	f3 0f 58 05 00
	00 00 00	 addss	 xmm0, DWORD PTR __real@42480000
  00040	f3 0f 11 45 f8	 movss	 DWORD PTR _v3TargetPos$[ebp+8], xmm0
$LN2@SetTargetD:

; 118  : 	}
; 119  : 
; 120  : 	D3DXVECTOR3 v3TargetDir=v3TargetPos-m_v3Position;

  00045	8b 45 dc	 mov	 eax, DWORD PTR _this$[ebp]
  00048	83 c0 2c	 add	 eax, 44			; 0000002cH
  0004b	89 45 e0	 mov	 DWORD PTR _v$[ebp], eax
; File D:\Metin2 Server Files\mainline\SRC_2014\M2Data\include\d3dx8math.inl

; 263  :     return D3DXVECTOR3(x - v.x, y - v.y, z - v.z);

  0004e	8b 45 e0	 mov	 eax, DWORD PTR _v$[ebp]
  00051	f3 0f 10 45 f0	 movss	 xmm0, DWORD PTR _v3TargetPos$[ebp]
  00056	f3 0f 5c 00	 subss	 xmm0, DWORD PTR [eax]
  0005a	f3 0f 11 45 d8	 movss	 DWORD PTR _fx$[ebp], xmm0
  0005f	8b 45 e0	 mov	 eax, DWORD PTR _v$[ebp]
  00062	f3 0f 10 45 f4	 movss	 xmm0, DWORD PTR _v3TargetPos$[ebp+4]
  00067	f3 0f 5c 40 04	 subss	 xmm0, DWORD PTR [eax+4]
  0006c	f3 0f 11 45 d4	 movss	 DWORD PTR _fy$[ebp], xmm0
  00071	8b 45 e0	 mov	 eax, DWORD PTR _v$[ebp]
  00074	f3 0f 10 45 f8	 movss	 xmm0, DWORD PTR _v3TargetPos$[ebp+8]
  00079	f3 0f 5c 40 08	 subss	 xmm0, DWORD PTR [eax+8]
  0007e	f3 0f 11 45 d0	 movss	 DWORD PTR _fz$[ebp], xmm0

; 180  :     x = fx;

  00083	f3 0f 10 45 d8	 movss	 xmm0, DWORD PTR _fx$[ebp]
  00088	f3 0f 11 45 e4	 movss	 DWORD PTR _v3TargetDir$[ebp], xmm0

; 181  :     y = fy;

  0008d	f3 0f 10 45 d4	 movss	 xmm0, DWORD PTR _fy$[ebp]
  00092	f3 0f 11 45 e8	 movss	 DWORD PTR _v3TargetDir$[ebp+4], xmm0

; 182  :     z = fz;

  00097	f3 0f 10 45 d0	 movss	 xmm0, DWORD PTR _fz$[ebp]
  0009c	f3 0f 11 45 ec	 movss	 DWORD PTR _v3TargetDir$[ebp+8], xmm0
; File D:\Metin2 Server Files\mainline\SRC_2014\Metin2Client\GameLib\FlyingInstance.cpp

; 122  : 	D3DXVec3Normalize(&v3TargetDir, &v3TargetDir);

  000a1	8d 45 e4	 lea	 eax, DWORD PTR _v3TargetDir$[ebp]
  000a4	50		 push	 eax
  000a5	8d 45 e4	 lea	 eax, DWORD PTR _v3TargetDir$[ebp]
  000a8	50		 push	 eax
  000a9	e8 00 00 00 00	 call	 _D3DXVec3Normalize@8

; 123  : 	__SetTargetNormalizedDirection(v3TargetDir);

  000ae	8d 45 e4	 lea	 eax, DWORD PTR _v3TargetDir$[ebp]
  000b1	50		 push	 eax
  000b2	8b 4d dc	 mov	 ecx, DWORD PTR _this$[ebp]
  000b5	e8 00 00 00 00	 call	 ?__SetTargetNormalizedDirection@CFlyingInstance@@IAEXABUD3DXVECTOR3@@@Z ; CFlyingInstance::__SetTargetNormalizedDirection

; 124  : }

  000ba	5f		 pop	 edi
  000bb	5e		 pop	 esi
  000bc	8b 4d fc	 mov	 ecx, DWORD PTR __$ArrayPad$[ebp]
  000bf	33 cd		 xor	 ecx, ebp
  000c1	e8 00 00 00 00	 call	 @__security_check_cookie@4
  000c6	c9		 leave
  000c7	c2 04 00	 ret	 4
?__SetTargetDirection@CFlyingInstance@@IAEXABVCFlyTarget@@@Z ENDP ; CFlyingInstance::__SetTargetDirection
_TEXT	ENDS
; Function compile flags: /Odspy
; File D:\Metin2 Server Files\mainline\SRC_2014\Metin2Client\GameLib\FlyingInstance.cpp
; File D:\Metin2 Server Files\mainline\SRC_2014\M2Data\include\d3dx8math.inl
; File D:\Metin2 Server Files\mainline\SRC_2014\Metin2Client\GameLib\FlyingInstance.cpp
; File D:\Metin2 Server Files\mainline\SRC_2014\Metin2Client\eterBase\Singleton.h
; File D:\Metin2 Server Files\mainline\SRC_2014\Metin2Client\GameLib\FlyingInstance.cpp
; File D:\Metin2 Server Files\mainline\SRC_2014\M2Data\include\d3dx8math.inl
; File D:\Metin2 Server Files\mainline\SRC_2014\Metin2Client\GameLib\FlyingInstance.cpp
; File D:\Metin2 Server Files\mainline\SRC_2014\M2Data\include\d3dx8math.inl
; File D:\Metin2 Server Files\mainline\SRC_2014\Metin2Client\GameLib\FlyingInstance.cpp
; File D:\Metin2 Server Files\mainline\SRC_2014\M2Data\include\d3dx8math.inl
; File D:\Metin2 Server Files\mainline\SRC_2014\Metin2Client\GameLib\FlyingInstance.cpp
; File D:\Metin2 Server Files\mainline\SRC_2014\M2Data\include\d3dx8math.inl
; File D:\Metin2 Server Files\mainline\SRC_2014\Metin2Client\GameLib\FlyingInstance.cpp
;	COMDAT ?__SetDataPointer@CFlyingInstance@@IAEXPAVCFlyingData@@ABUD3DXVECTOR3@@@Z
_TEXT	SEGMENT
_q2$1 = -128						; size = 16
_q1$2 = -112						; size = 16
$T3 = -96						; size = 16
$T4 = -80						; size = 16
_fy$ = -64						; size = 4
tv325 = -60						; size = 4
tv401 = -56						; size = 4
tv317 = -52						; size = 4
$T5 = -48						; size = 4
_this$ = -44						; size = 4
$T6 = -40						; size = 12
$T7 = -28						; size = 12
$T8 = -16						; size = 12
__$ArrayPad$ = -4					; size = 4
_pData$ = 8						; size = 4
_v3StartPosition$ = 12					; size = 4
?__SetDataPointer@CFlyingInstance@@IAEXPAVCFlyingData@@ABUD3DXVECTOR3@@@Z PROC ; CFlyingInstance::__SetDataPointer, COMDAT
; _this$ = ecx

; 570  : {

  00000	55		 push	 ebp
  00001	8b ec		 mov	 ebp, esp
  00003	81 ec 80 00 00
	00		 sub	 esp, 128		; 00000080H
  00009	a1 00 00 00 00	 mov	 eax, DWORD PTR ___security_cookie
  0000e	33 c5		 xor	 eax, ebp
  00010	89 45 fc	 mov	 DWORD PTR __$ArrayPad$[ebp], eax
  00013	56		 push	 esi
  00014	57		 push	 edi
  00015	89 4d d4	 mov	 DWORD PTR _this$[ebp], ecx

; 571  : 	m_pData = pData;

  00018	8b 45 d4	 mov	 eax, DWORD PTR _this$[ebp]
  0001b	8b 4d 08	 mov	 ecx, DWORD PTR _pData$[ebp]
  0001e	89 48 08	 mov	 DWORD PTR [eax+8], ecx
; File D:\Metin2 Server Files\mainline\SRC_2014\M2Data\include\d3dx8math.inl

; 667  :     x = fx;

  00021	0f 57 c0	 xorps	 xmm0, xmm0
  00024	f3 0f 11 45 b0	 movss	 DWORD PTR $T4[ebp], xmm0

; 668  :     y = fy;

  00029	0f 57 c0	 xorps	 xmm0, xmm0
  0002c	f3 0f 11 45 b4	 movss	 DWORD PTR $T4[ebp+4], xmm0

; 669  :     z = fz;

  00031	0f 57 c0	 xorps	 xmm0, xmm0
  00034	f3 0f 11 45 b8	 movss	 DWORD PTR $T4[ebp+8], xmm0

; 670  :     w = fw;

  00039	f3 0f 10 05 00
	00 00 00	 movss	 xmm0, DWORD PTR __real@3f800000
  00041	f3 0f 11 45 bc	 movss	 DWORD PTR $T4[ebp+12], xmm0
; File D:\Metin2 Server Files\mainline\SRC_2014\Metin2Client\GameLib\FlyingInstance.cpp

; 572  : 	m_qRot = D3DXQUATERNION(0.0f,0.0f,0.0f,1.0f), 

  00046	8b 7d d4	 mov	 edi, DWORD PTR _this$[ebp]
  00049	83 c7 0c	 add	 edi, 12			; 0000000cH
  0004c	8d 75 b0	 lea	 esi, DWORD PTR $T4[ebp]
  0004f	a5		 movsd
  00050	a5		 movsd
  00051	a5		 movsd
  00052	a5		 movsd
  00053	8b 7d d4	 mov	 edi, DWORD PTR _this$[ebp]
  00056	83 c7 2c	 add	 edi, 44			; 0000002cH
  00059	8b 75 0c	 mov	 esi, DWORD PTR _v3StartPosition$[ebp]
  0005c	a5		 movsd
  0005d	a5		 movsd
  0005e	a5		 movsd

; 573  : 	m_v3Position = (v3StartPosition);
; 574  : 	m_bAlive = (true);

  0005f	8b 45 d4	 mov	 eax, DWORD PTR _this$[ebp]
  00062	c6 40 20 01	 mov	 BYTE PTR [eax+32], 1
; File D:\Metin2 Server Files\mainline\SRC_2014\Metin2Client\eterBase\Singleton.h

; 27   : 		return (*ms_singleton);

  00066	a1 00 00 00 00	 mov	 eax, DWORD PTR ?ms_singleton@?$CSingleton@VCTimer@@@@0PAVCTimer@@A ; CSingleton<CTimer>::ms_singleton
  0006b	89 45 d0	 mov	 DWORD PTR $T5[ebp], eax
; File D:\Metin2 Server Files\mainline\SRC_2014\Metin2Client\GameLib\FlyingInstance.cpp

; 576  : 	m_fStartTime = CTimer::Instance().GetCurrentSecond();

  0006e	8b 4d d0	 mov	 ecx, DWORD PTR $T5[ebp]
  00071	e8 00 00 00 00	 call	 ?GetCurrentSecond@CTimer@@QAEMXZ ; CTimer::GetCurrentSecond
  00076	8b 45 d4	 mov	 eax, DWORD PTR _this$[ebp]
  00079	d9 58 1c	 fstp	 DWORD PTR [eax+28]

; 577  : 
; 578  : 	D3DXQuaternionRotationYawPitchRoll(&m_qRot,D3DXToRadian(pData->m_fRollAngle-90.0f),0.0f,D3DXToRadian(pData->m_fConeAngle));

  0007c	8b 45 08	 mov	 eax, DWORD PTR _pData$[ebp]
  0007f	f3 0f 10 40 24	 movss	 xmm0, DWORD PTR [eax+36]
  00084	f3 0f 59 05 00
	00 00 00	 mulss	 xmm0, DWORD PTR __real@3c8efa35
  0008c	51		 push	 ecx
  0008d	f3 0f 11 04 24	 movss	 DWORD PTR [esp], xmm0
  00092	51		 push	 ecx
  00093	0f 57 c0	 xorps	 xmm0, xmm0
  00096	f3 0f 11 04 24	 movss	 DWORD PTR [esp], xmm0
  0009b	8b 45 08	 mov	 eax, DWORD PTR _pData$[ebp]
  0009e	f3 0f 10 40 28	 movss	 xmm0, DWORD PTR [eax+40]
  000a3	f3 0f 5c 05 00
	00 00 00	 subss	 xmm0, DWORD PTR __real@42b40000
  000ab	f3 0f 59 05 00
	00 00 00	 mulss	 xmm0, DWORD PTR __real@3c8efa35
  000b3	51		 push	 ecx
  000b4	f3 0f 11 04 24	 movss	 DWORD PTR [esp], xmm0
  000b9	8b 45 d4	 mov	 eax, DWORD PTR _this$[ebp]
  000bc	83 c0 0c	 add	 eax, 12			; 0000000cH
  000bf	50		 push	 eax
  000c0	e8 00 00 00 00	 call	 _D3DXQuaternionRotationYawPitchRoll@16

; 579  : 	if (pData->m_bSpreading)

  000c5	8b 45 08	 mov	 eax, DWORD PTR _pData$[ebp]
  000c8	0f b6 40 1c	 movzx	 eax, BYTE PTR [eax+28]
  000cc	85 c0		 test	 eax, eax
  000ce	0f 84 0c 01 00
	00		 je	 $LN2@SetDataPoi
; File D:\Metin2 Server Files\mainline\SRC_2014\M2Data\include\d3dx8math.inl

; 180  :     x = fx;

  000d4	0f 57 c0	 xorps	 xmm0, xmm0
  000d7	f3 0f 11 45 f0	 movss	 DWORD PTR $T8[ebp], xmm0

; 181  :     y = fy;

  000dc	0f 57 c0	 xorps	 xmm0, xmm0
  000df	f3 0f 11 45 f4	 movss	 DWORD PTR $T8[ebp+4], xmm0

; 182  :     z = fz;

  000e4	f3 0f 10 05 00
	00 00 00	 movss	 xmm0, DWORD PTR __real@3f800000
  000ec	f3 0f 11 45 f8	 movss	 DWORD PTR $T8[ebp+8], xmm0
; File D:\Metin2 Server Files\mainline\SRC_2014\Metin2Client\GameLib\FlyingInstance.cpp

; 582  : 		D3DXQuaternionRotationAxis(&q2, &D3DXVECTOR3(0.0f,0.0f,1.0f),(frandom(-3.141592f/3,+3.141592f/3)+frandom(-3.141592f/3,+3.141592f/3))/2);

  000f1	51		 push	 ecx
  000f2	f3 0f 10 05 00
	00 00 00	 movss	 xmm0, DWORD PTR __real@3f860a90
  000fa	f3 0f 11 04 24	 movss	 DWORD PTR [esp], xmm0
  000ff	51		 push	 ecx
  00100	f3 0f 10 05 00
	00 00 00	 movss	 xmm0, DWORD PTR __real@bf860a90
  00108	f3 0f 11 04 24	 movss	 DWORD PTR [esp], xmm0
  0010d	e8 00 00 00 00	 call	 ?frandom@@YAMMM@Z	; frandom
  00112	59		 pop	 ecx
  00113	59		 pop	 ecx
  00114	d9 5d cc	 fstp	 DWORD PTR tv317[ebp]
  00117	f3 0f 10 45 cc	 movss	 xmm0, DWORD PTR tv317[ebp]
  0011c	51		 push	 ecx
  0011d	f3 0f 10 0d 00
	00 00 00	 movss	 xmm1, DWORD PTR __real@3f860a90
  00125	f3 0f 11 0c 24	 movss	 DWORD PTR [esp], xmm1
  0012a	51		 push	 ecx
  0012b	f3 0f 10 0d 00
	00 00 00	 movss	 xmm1, DWORD PTR __real@bf860a90
  00133	f3 0f 11 0c 24	 movss	 DWORD PTR [esp], xmm1
  00138	f3 0f 11 45 c8	 movss	 DWORD PTR tv401[ebp], xmm0
  0013d	e8 00 00 00 00	 call	 ?frandom@@YAMMM@Z	; frandom
  00142	59		 pop	 ecx
  00143	59		 pop	 ecx
  00144	d9 5d c4	 fstp	 DWORD PTR tv325[ebp]
  00147	f3 0f 10 45 c8	 movss	 xmm0, DWORD PTR tv401[ebp]
  0014c	f3 0f 58 45 c4	 addss	 xmm0, DWORD PTR tv325[ebp]
  00151	f3 0f 5e 05 00
	00 00 00	 divss	 xmm0, DWORD PTR __real@40000000
  00159	51		 push	 ecx
  0015a	f3 0f 11 04 24	 movss	 DWORD PTR [esp], xmm0
  0015f	8d 45 f0	 lea	 eax, DWORD PTR $T8[ebp]
  00162	50		 push	 eax
  00163	8d 45 80	 lea	 eax, DWORD PTR _q2$1[ebp]
  00166	50		 push	 eax
  00167	e8 00 00 00 00	 call	 _D3DXQuaternionRotationAxis@12
; File D:\Metin2 Server Files\mainline\SRC_2014\M2Data\include\d3dx8math.inl

; 180  :     x = fx;

  0016c	0f 57 c0	 xorps	 xmm0, xmm0
  0016f	f3 0f 11 45 e4	 movss	 DWORD PTR $T7[ebp], xmm0

; 181  :     y = fy;

  00174	f3 0f 10 05 00
	00 00 00	 movss	 xmm0, DWORD PTR __real@bf800000
  0017c	f3 0f 11 45 e8	 movss	 DWORD PTR $T7[ebp+4], xmm0

; 182  :     z = fz;

  00181	0f 57 c0	 xorps	 xmm0, xmm0
  00184	f3 0f 11 45 ec	 movss	 DWORD PTR $T7[ebp+8], xmm0
; File D:\Metin2 Server Files\mainline\SRC_2014\Metin2Client\GameLib\FlyingInstance.cpp

; 583  : 		D3DXQuaternionRotationAxis(&q1, &D3DXVECTOR3(0.0f,-1.0f,0.0f), frandom(0,2*3.1415926535897931f));

  00189	51		 push	 ecx
  0018a	f3 0f 10 05 00
	00 00 00	 movss	 xmm0, DWORD PTR __real@40c90fdb
  00192	f3 0f 11 04 24	 movss	 DWORD PTR [esp], xmm0
  00197	51		 push	 ecx
  00198	0f 57 c0	 xorps	 xmm0, xmm0
  0019b	f3 0f 11 04 24	 movss	 DWORD PTR [esp], xmm0
  001a0	e8 00 00 00 00	 call	 ?frandom@@YAMMM@Z	; frandom
  001a5	59		 pop	 ecx
  001a6	59		 pop	 ecx
  001a7	51		 push	 ecx
  001a8	d9 1c 24	 fstp	 DWORD PTR [esp]
  001ab	8d 45 e4	 lea	 eax, DWORD PTR $T7[ebp]
  001ae	50		 push	 eax
  001af	8d 45 90	 lea	 eax, DWORD PTR _q1$2[ebp]
  001b2	50		 push	 eax
  001b3	e8 00 00 00 00	 call	 _D3DXQuaternionRotationAxis@12

; 584  : 		D3DXQuaternionMultiply(&q1,&q2,&q1);

  001b8	8d 45 90	 lea	 eax, DWORD PTR _q1$2[ebp]
  001bb	50		 push	 eax
  001bc	8d 45 80	 lea	 eax, DWORD PTR _q2$1[ebp]
  001bf	50		 push	 eax
  001c0	8d 45 90	 lea	 eax, DWORD PTR _q1$2[ebp]
  001c3	50		 push	 eax
  001c4	e8 00 00 00 00	 call	 _D3DXQuaternionMultiply@12

; 585  : 		D3DXQuaternionMultiply(&m_qRot,&q1,&m_qRot);

  001c9	8b 45 d4	 mov	 eax, DWORD PTR _this$[ebp]
  001cc	83 c0 0c	 add	 eax, 12			; 0000000cH
  001cf	50		 push	 eax
  001d0	8d 45 90	 lea	 eax, DWORD PTR _q1$2[ebp]
  001d3	50		 push	 eax
  001d4	8b 45 d4	 mov	 eax, DWORD PTR _this$[ebp]
  001d7	83 c0 0c	 add	 eax, 12			; 0000000cH
  001da	50		 push	 eax
  001db	e8 00 00 00 00	 call	 _D3DXQuaternionMultiply@12
$LN2@SetDataPoi:

; 587  : 	m_v3Velocity = m_v3LocalVelocity = D3DXVECTOR3(0.0f,-pData->m_fInitVel,0.0f);

  001e0	8b 45 08	 mov	 eax, DWORD PTR _pData$[ebp]
  001e3	f3 0f 10 40 20	 movss	 xmm0, DWORD PTR [eax+32]
  001e8	0f 57 05 00 00
	00 00		 xorps	 xmm0, DWORD PTR __xmm@80000000800000008000000080000000
  001ef	f3 0f 11 45 c0	 movss	 DWORD PTR _fy$[ebp], xmm0
; File D:\Metin2 Server Files\mainline\SRC_2014\M2Data\include\d3dx8math.inl

; 180  :     x = fx;

  001f4	0f 57 c0	 xorps	 xmm0, xmm0
  001f7	f3 0f 11 45 d8	 movss	 DWORD PTR $T6[ebp], xmm0

; 181  :     y = fy;

  001fc	f3 0f 10 45 c0	 movss	 xmm0, DWORD PTR _fy$[ebp]
  00201	f3 0f 11 45 dc	 movss	 DWORD PTR $T6[ebp+4], xmm0

; 182  :     z = fz;

  00206	0f 57 c0	 xorps	 xmm0, xmm0
  00209	f3 0f 11 45 e0	 movss	 DWORD PTR $T6[ebp+8], xmm0
; File D:\Metin2 Server Files\mainline\SRC_2014\Metin2Client\GameLib\FlyingInstance.cpp

; 587  : 	m_v3Velocity = m_v3LocalVelocity = D3DXVECTOR3(0.0f,-pData->m_fInitVel,0.0f);

  0020e	8b 7d d4	 mov	 edi, DWORD PTR _this$[ebp]
  00211	83 c7 44	 add	 edi, 68			; 00000044H
  00214	8d 75 d8	 lea	 esi, DWORD PTR $T6[ebp]
  00217	a5		 movsd
  00218	a5		 movsd
  00219	a5		 movsd
  0021a	8b 75 d4	 mov	 esi, DWORD PTR _this$[ebp]
  0021d	83 c6 44	 add	 esi, 68			; 00000044H
  00220	8b 7d d4	 mov	 edi, DWORD PTR _this$[ebp]
  00223	83 c7 38	 add	 edi, 56			; 00000038H
  00226	a5		 movsd
  00227	a5		 movsd
  00228	a5		 movsd

; 588  : 	m_v3Accel = pData->m_v3Accel;

  00229	8b 75 08	 mov	 esi, DWORD PTR _pData$[ebp]
  0022c	83 c6 78	 add	 esi, 120		; 00000078H
  0022f	8b 7d d4	 mov	 edi, DWORD PTR _this$[ebp]
  00232	83 c7 50	 add	 edi, 80			; 00000050H
  00235	a5		 movsd
  00236	a5		 movsd
  00237	a5		 movsd

; 589  : 	m_fRemainRange = pData->m_fRange;

  00238	8b 45 d4	 mov	 eax, DWORD PTR _this$[ebp]
  0023b	8b 4d 08	 mov	 ecx, DWORD PTR _pData$[ebp]
  0023e	8b 49 74	 mov	 ecx, DWORD PTR [ecx+116]
  00241	89 48 5c	 mov	 DWORD PTR [eax+92], ecx
; File D:\Metin2 Server Files\mainline\SRC_2014\M2Data\include\d3dx8math.inl

; 667  :     x = fx;

  00244	0f 57 c0	 xorps	 xmm0, xmm0
  00247	f3 0f 11 45 a0	 movss	 DWORD PTR $T3[ebp], xmm0

; 668  :     y = fy;

  0024c	0f 57 c0	 xorps	 xmm0, xmm0
  0024f	f3 0f 11 45 a4	 movss	 DWORD PTR $T3[ebp+4], xmm0

; 669  :     z = fz;

  00254	0f 57 c0	 xorps	 xmm0, xmm0
  00257	f3 0f 11 45 a8	 movss	 DWORD PTR $T3[ebp+8], xmm0

; 670  :     w = fw;

  0025c	f3 0f 10 05 00
	00 00 00	 movss	 xmm0, DWORD PTR __real@3f800000
  00264	f3 0f 11 45 ac	 movss	 DWORD PTR $T3[ebp+12], xmm0
; File D:\Metin2 Server Files\mainline\SRC_2014\Metin2Client\GameLib\FlyingInstance.cpp

; 590  : 	m_qAttachRotation = D3DXQUATERNION(0.0f,0.0f,0.0f,1.0f);

  00269	8b 7d d4	 mov	 edi, DWORD PTR _this$[ebp]
  0026c	83 c7 78	 add	 edi, 120		; 00000078H
  0026f	8d 75 a0	 lea	 esi, DWORD PTR $T3[ebp]
  00272	a5		 movsd
  00273	a5		 movsd
  00274	a5		 movsd
  00275	a5		 movsd

; 591  : 
; 592  : 	BuildAttachInstance();

  00276	8b 4d d4	 mov	 ecx, DWORD PTR _this$[ebp]
  00279	e8 00 00 00 00	 call	 ?BuildAttachInstance@CFlyingInstance@@QAEXXZ ; CFlyingInstance::BuildAttachInstance

; 593  : 	UpdateAttachInstance();

  0027e	8b 4d d4	 mov	 ecx, DWORD PTR _this$[ebp]
  00281	e8 00 00 00 00	 call	 ?UpdateAttachInstance@CFlyingInstance@@QAEXXZ ; CFlyingInstance::UpdateAttachInstance

; 594  : 
; 595  : 	m_iPierceCount = pData->m_iPierceCount;

  00286	8b 45 d4	 mov	 eax, DWORD PTR _this$[ebp]
  00289	8b 4d 08	 mov	 ecx, DWORD PTR _pData$[ebp]
  0028c	8b 49 6c	 mov	 ecx, DWORD PTR [ecx+108]
  0028f	89 48 24	 mov	 DWORD PTR [eax+36], ecx

; 596  : }

  00292	5f		 pop	 edi
  00293	5e		 pop	 esi
  00294	8b 4d fc	 mov	 ecx, DWORD PTR __$ArrayPad$[ebp]
  00297	33 cd		 xor	 ecx, ebp
  00299	e8 00 00 00 00	 call	 @__security_check_cookie@4
  0029e	c9		 leave
  0029f	c2 08 00	 ret	 8
?__SetDataPointer@CFlyingInstance@@IAEXPAVCFlyingData@@ABUD3DXVECTOR3@@@Z ENDP ; CFlyingInstance::__SetDataPointer
_TEXT	ENDS
; Function compile flags: /Odspy
; File D:\Metin2 Server Files\mainline\SRC_2014\Metin2Client\GameLib\FlyingInstance.cpp
; File D:\Metin2 Server Files\mainline\SRC_2014\M2Data\include\d3dx8math.inl
; File D:\Metin2 Server Files\mainline\SRC_2014\Metin2Client\GameLib\FlyingInstance.cpp
; File D:\Metin2 Server Files\mainline\SRC_2014\M2Data\include\d3dx8math.inl
; File D:\Metin2 Server Files\mainline\SRC_2014\Metin2Client\GameLib\FlyingInstance.cpp
;	COMDAT ?__Initialize@CFlyingInstance@@IAEXXZ
_TEXT	SEGMENT
$T1 = -36						; size = 16
_this$ = -20						; size = 4
$T2 = -16						; size = 12
__$ArrayPad$ = -4					; size = 4
?__Initialize@CFlyingInstance@@IAEXXZ PROC		; CFlyingInstance::__Initialize, COMDAT
; _this$ = ecx

; 27   : {

  00000	55		 push	 ebp
  00001	8b ec		 mov	 ebp, esp
  00003	83 ec 24	 sub	 esp, 36			; 00000024H
  00006	a1 00 00 00 00	 mov	 eax, DWORD PTR ___security_cookie
  0000b	33 c5		 xor	 eax, ebp
  0000d	89 45 fc	 mov	 DWORD PTR __$ArrayPad$[ebp], eax
  00010	56		 push	 esi
  00011	57		 push	 edi
  00012	89 4d ec	 mov	 DWORD PTR _this$[ebp], ecx
; File D:\Metin2 Server Files\mainline\SRC_2014\M2Data\include\d3dx8math.inl

; 667  :     x = fx;

  00015	0f 57 c0	 xorps	 xmm0, xmm0
  00018	f3 0f 11 45 dc	 movss	 DWORD PTR $T1[ebp], xmm0

; 668  :     y = fy;

  0001d	0f 57 c0	 xorps	 xmm0, xmm0
  00020	f3 0f 11 45 e0	 movss	 DWORD PTR $T1[ebp+4], xmm0

; 669  :     z = fz;

  00025	0f 57 c0	 xorps	 xmm0, xmm0
  00028	f3 0f 11 45 e4	 movss	 DWORD PTR $T1[ebp+8], xmm0

; 670  :     w = fw;

  0002d	0f 57 c0	 xorps	 xmm0, xmm0
  00030	f3 0f 11 45 e8	 movss	 DWORD PTR $T1[ebp+12], xmm0
; File D:\Metin2 Server Files\mainline\SRC_2014\Metin2Client\GameLib\FlyingInstance.cpp

; 28   : 	m_qAttachRotation=m_qRot=D3DXQUATERNION(0.0f, 0.0f, 0.0f, 0.0f);

  00035	8b 7d ec	 mov	 edi, DWORD PTR _this$[ebp]
  00038	83 c7 0c	 add	 edi, 12			; 0000000cH
  0003b	8d 75 dc	 lea	 esi, DWORD PTR $T1[ebp]
  0003e	a5		 movsd
  0003f	a5		 movsd
  00040	a5		 movsd
  00041	a5		 movsd
  00042	8b 75 ec	 mov	 esi, DWORD PTR _this$[ebp]
  00045	83 c6 0c	 add	 esi, 12			; 0000000cH
  00048	8b 7d ec	 mov	 edi, DWORD PTR _this$[ebp]
  0004b	83 c7 78	 add	 edi, 120		; 00000078H
  0004e	a5		 movsd
  0004f	a5		 movsd
  00050	a5		 movsd
  00051	a5		 movsd
; File D:\Metin2 Server Files\mainline\SRC_2014\M2Data\include\d3dx8math.inl

; 180  :     x = fx;

  00052	0f 57 c0	 xorps	 xmm0, xmm0
  00055	f3 0f 11 45 f0	 movss	 DWORD PTR $T2[ebp], xmm0

; 181  :     y = fy;

  0005a	0f 57 c0	 xorps	 xmm0, xmm0
  0005d	f3 0f 11 45 f4	 movss	 DWORD PTR $T2[ebp+4], xmm0

; 182  :     z = fz;

  00062	0f 57 c0	 xorps	 xmm0, xmm0
  00065	f3 0f 11 45 f8	 movss	 DWORD PTR $T2[ebp+8], xmm0
; File D:\Metin2 Server Files\mainline\SRC_2014\Metin2Client\GameLib\FlyingInstance.cpp

; 29   : 	m_v3Accel=m_v3LocalVelocity=m_v3Velocity=m_v3Position=D3DXVECTOR3(0.0f, 0.0f, 0.0f);

  0006a	8b 7d ec	 mov	 edi, DWORD PTR _this$[ebp]
  0006d	83 c7 2c	 add	 edi, 44			; 0000002cH
  00070	8d 75 f0	 lea	 esi, DWORD PTR $T2[ebp]
  00073	a5		 movsd
  00074	a5		 movsd
  00075	a5		 movsd
  00076	8b 75 ec	 mov	 esi, DWORD PTR _this$[ebp]
  00079	83 c6 2c	 add	 esi, 44			; 0000002cH
  0007c	8b 7d ec	 mov	 edi, DWORD PTR _this$[ebp]
  0007f	83 c7 38	 add	 edi, 56			; 00000038H
  00082	a5		 movsd
  00083	a5		 movsd
  00084	a5		 movsd
  00085	8b 75 ec	 mov	 esi, DWORD PTR _this$[ebp]
  00088	83 c6 38	 add	 esi, 56			; 00000038H
  0008b	8b 7d ec	 mov	 edi, DWORD PTR _this$[ebp]
  0008e	83 c7 44	 add	 edi, 68			; 00000044H
  00091	a5		 movsd
  00092	a5		 movsd
  00093	a5		 movsd
  00094	8b 75 ec	 mov	 esi, DWORD PTR _this$[ebp]
  00097	83 c6 44	 add	 esi, 68			; 00000044H
  0009a	8b 7d ec	 mov	 edi, DWORD PTR _this$[ebp]
  0009d	83 c7 50	 add	 edi, 80			; 00000050H
  000a0	a5		 movsd
  000a1	a5		 movsd
  000a2	a5		 movsd

; 30   : 	
; 31   : 	m_pHandler=NULL;

  000a3	8b 45 ec	 mov	 eax, DWORD PTR _this$[ebp]
  000a6	83 a0 94 00 00
	00 00		 and	 DWORD PTR [eax+148], 0

; 32   : 	m_pData=NULL;

  000ad	8b 45 ec	 mov	 eax, DWORD PTR _this$[ebp]
  000b0	83 60 08 00	 and	 DWORD PTR [eax+8], 0

; 33   : 	m_pOwner=NULL;

  000b4	8b 45 ec	 mov	 eax, DWORD PTR _this$[ebp]
  000b7	83 a0 98 00 00
	00 00		 and	 DWORD PTR [eax+152], 0

; 34   : 
; 35   : 	m_bAlive=false;

  000be	8b 45 ec	 mov	 eax, DWORD PTR _this$[ebp]
  000c1	c6 40 20 00	 mov	 BYTE PTR [eax+32], 0

; 36   : 	m_canAttack=false;

  000c5	8b 45 ec	 mov	 eax, DWORD PTR _this$[ebp]
  000c8	c6 40 21 00	 mov	 BYTE PTR [eax+33], 0

; 37   : 
; 38   : 	m_dwSkillIndex = 0;

  000cc	8b 45 ec	 mov	 eax, DWORD PTR _this$[ebp]
  000cf	83 60 28 00	 and	 DWORD PTR [eax+40], 0

; 39   : 
; 40   : 	m_iPierceCount=0;

  000d3	8b 45 ec	 mov	 eax, DWORD PTR _this$[ebp]
  000d6	83 60 24 00	 and	 DWORD PTR [eax+36], 0

; 41   : 	
; 42   : 	m_fStartTime=0.0f;

  000da	8b 45 ec	 mov	 eax, DWORD PTR _this$[ebp]
  000dd	0f 57 c0	 xorps	 xmm0, xmm0
  000e0	f3 0f 11 40 1c	 movss	 DWORD PTR [eax+28], xmm0

; 43   : 	m_fRemainRange=0.0f;

  000e5	8b 45 ec	 mov	 eax, DWORD PTR _this$[ebp]
  000e8	0f 57 c0	 xorps	 xmm0, xmm0
  000eb	f3 0f 11 40 5c	 movss	 DWORD PTR [eax+92], xmm0

; 44   : 
; 45   : 	m_bTargetHitted = FALSE;

  000f0	8b 45 ec	 mov	 eax, DWORD PTR _this$[ebp]
  000f3	83 a0 9c 00 00
	00 00		 and	 DWORD PTR [eax+156], 0

; 46   : 	m_HittedObjectSet.clear();

  000fa	8b 4d ec	 mov	 ecx, DWORD PTR _this$[ebp]
  000fd	81 c1 a0 00 00
	00		 add	 ecx, 160		; 000000a0H
  00103	e8 00 00 00 00	 call	 ?clear@?$_Tree@V?$_Tset_traits@PAVIActorInstance@@U?$less@PAVIActorInstance@@@std@@V?$allocator@PAVIActorInstance@@@3@$0A@@std@@@std@@QAEXXZ ; std::_Tree<std::_Tset_traits<IActorInstance *,std::less<IActorInstance *>,std::allocator<IActorInstance *>,0> >::clear

; 47   : }

  00108	5f		 pop	 edi
  00109	5e		 pop	 esi
  0010a	8b 4d fc	 mov	 ecx, DWORD PTR __$ArrayPad$[ebp]
  0010d	33 cd		 xor	 ecx, ebp
  0010f	e8 00 00 00 00	 call	 @__security_check_cookie@4
  00114	c9		 leave
  00115	c3		 ret	 0
?__Initialize@CFlyingInstance@@IAEXXZ ENDP		; CFlyingInstance::__Initialize
_TEXT	ENDS
; Function compile flags: /Odspy
; File D:\Metin2 Server Files\mainline\SRC_2014\Metin2Client\GameLib\FlyingInstance.cpp
; File D:\Metin2 Server Files\mainline\SRC_2014\M2Data\include\d3dx8math.inl
; File D:\Metin2 Server Files\mainline\SRC_2014\Metin2Client\GameLib\FlyingInstance.cpp
;	COMDAT ?__Bomb@CFlyingInstance@@QAEXXZ
_TEXT	SEGMENT
_dwEmptyIndex$ = -80					; size = 4
_rkEftMgr$ = -76					; size = 4
_this$ = -72						; size = 4
_m$ = -68						; size = 64
__$ArrayPad$ = -4					; size = 4
?__Bomb@CFlyingInstance@@QAEXXZ PROC			; CFlyingInstance::__Bomb, COMDAT
; _this$ = ecx

; 529  : {

  00000	55		 push	 ebp
  00001	8b ec		 mov	 ebp, esp
  00003	83 ec 50	 sub	 esp, 80			; 00000050H
  00006	a1 00 00 00 00	 mov	 eax, DWORD PTR ___security_cookie
  0000b	33 c5		 xor	 eax, ebp
  0000d	89 45 fc	 mov	 DWORD PTR __$ArrayPad$[ebp], eax
  00010	89 4d b8	 mov	 DWORD PTR _this$[ebp], ecx

; 530  : 	CEffectManager & rkEftMgr = CEffectManager::Instance();

  00013	a1 00 00 00 00	 mov	 eax, DWORD PTR ?ms_singleton@?$CSingleton@VCEffectManager@@@@0PAVCEffectManager@@A ; CSingleton<CEffectManager>::ms_singleton
  00018	89 45 b4	 mov	 DWORD PTR _rkEftMgr$[ebp], eax

; 531  : 	if (!m_pData->m_dwBombEffectID)

  0001b	8b 45 b8	 mov	 eax, DWORD PTR _this$[ebp]
  0001e	8b 40 08	 mov	 eax, DWORD PTR [eax+8]
  00021	83 78 58 00	 cmp	 DWORD PTR [eax+88], 0
  00025	75 05		 jne	 SHORT $LN2@Bomb

; 532  : 		return;

  00027	e9 e9 01 00 00	 jmp	 $LN1@Bomb
$LN2@Bomb:

; 533  : 
; 534  : 	DWORD dwEmptyIndex = rkEftMgr.GetEmptyIndex();

  0002c	8b 4d b4	 mov	 ecx, DWORD PTR _rkEftMgr$[ebp]
  0002f	e8 00 00 00 00	 call	 ?GetEmptyIndex@CEffectManager@@QAEHXZ ; CEffectManager::GetEmptyIndex
  00034	89 45 b0	 mov	 DWORD PTR _dwEmptyIndex$[ebp], eax

; 535  : 	rkEftMgr.CreateEffectInstance(dwEmptyIndex,m_pData->m_dwBombEffectID);

  00037	8b 45 b8	 mov	 eax, DWORD PTR _this$[ebp]
  0003a	8b 40 08	 mov	 eax, DWORD PTR [eax+8]
  0003d	ff 70 58	 push	 DWORD PTR [eax+88]
  00040	ff 75 b0	 push	 DWORD PTR _dwEmptyIndex$[ebp]
  00043	8b 4d b4	 mov	 ecx, DWORD PTR _rkEftMgr$[ebp]
  00046	e8 00 00 00 00	 call	 ?CreateEffectInstance@CEffectManager@@QAEXKK@Z ; CEffectManager::CreateEffectInstance
; File D:\Metin2 Server Files\mainline\SRC_2014\M2Data\include\d3dx8math.inl

; 1516 :     pOut->m[0][1] = pOut->m[0][2] = pOut->m[0][3] =

  0004b	6a 10		 push	 16			; 00000010H
  0004d	58		 pop	 eax
  0004e	6b c0 03	 imul	 eax, eax, 3
  00051	8d 44 05 bc	 lea	 eax, DWORD PTR _m$[ebp+eax]
  00055	6a 04		 push	 4
  00057	59		 pop	 ecx
  00058	d1 e1		 shl	 ecx, 1
  0005a	0f 57 c0	 xorps	 xmm0, xmm0
  0005d	f3 0f 11 04 08	 movss	 DWORD PTR [eax+ecx], xmm0
  00062	6a 10		 push	 16			; 00000010H
  00064	58		 pop	 eax
  00065	6b c0 03	 imul	 eax, eax, 3
  00068	8d 44 05 bc	 lea	 eax, DWORD PTR _m$[ebp+eax]
  0006c	6a 04		 push	 4
  0006e	59		 pop	 ecx
  0006f	c1 e1 00	 shl	 ecx, 0
  00072	0f 57 c0	 xorps	 xmm0, xmm0
  00075	f3 0f 11 04 08	 movss	 DWORD PTR [eax+ecx], xmm0
  0007a	6a 10		 push	 16			; 00000010H
  0007c	58		 pop	 eax
  0007d	6b c0 03	 imul	 eax, eax, 3
  00080	8d 44 05 bc	 lea	 eax, DWORD PTR _m$[ebp+eax]
  00084	6a 04		 push	 4
  00086	59		 pop	 ecx
  00087	6b c9 00	 imul	 ecx, ecx, 0
  0008a	0f 57 c0	 xorps	 xmm0, xmm0
  0008d	f3 0f 11 04 08	 movss	 DWORD PTR [eax+ecx], xmm0
  00092	6a 10		 push	 16			; 00000010H
  00094	58		 pop	 eax
  00095	d1 e0		 shl	 eax, 1
  00097	8d 44 05 bc	 lea	 eax, DWORD PTR _m$[ebp+eax]
  0009b	6a 04		 push	 4
  0009d	59		 pop	 ecx
  0009e	6b c9 03	 imul	 ecx, ecx, 3
  000a1	0f 57 c0	 xorps	 xmm0, xmm0
  000a4	f3 0f 11 04 08	 movss	 DWORD PTR [eax+ecx], xmm0
  000a9	6a 10		 push	 16			; 00000010H
  000ab	58		 pop	 eax
  000ac	d1 e0		 shl	 eax, 1
  000ae	8d 44 05 bc	 lea	 eax, DWORD PTR _m$[ebp+eax]
  000b2	6a 04		 push	 4
  000b4	59		 pop	 ecx
  000b5	c1 e1 00	 shl	 ecx, 0
  000b8	0f 57 c0	 xorps	 xmm0, xmm0
  000bb	f3 0f 11 04 08	 movss	 DWORD PTR [eax+ecx], xmm0
  000c0	6a 10		 push	 16			; 00000010H
  000c2	58		 pop	 eax
  000c3	d1 e0		 shl	 eax, 1
  000c5	8d 44 05 bc	 lea	 eax, DWORD PTR _m$[ebp+eax]
  000c9	6a 04		 push	 4
  000cb	59		 pop	 ecx
  000cc	6b c9 00	 imul	 ecx, ecx, 0
  000cf	0f 57 c0	 xorps	 xmm0, xmm0
  000d2	f3 0f 11 04 08	 movss	 DWORD PTR [eax+ecx], xmm0
  000d7	6a 10		 push	 16			; 00000010H
  000d9	58		 pop	 eax
  000da	c1 e0 00	 shl	 eax, 0
  000dd	8d 44 05 bc	 lea	 eax, DWORD PTR _m$[ebp+eax]
  000e1	6a 04		 push	 4
  000e3	59		 pop	 ecx
  000e4	6b c9 03	 imul	 ecx, ecx, 3
  000e7	0f 57 c0	 xorps	 xmm0, xmm0
  000ea	f3 0f 11 04 08	 movss	 DWORD PTR [eax+ecx], xmm0
  000ef	6a 10		 push	 16			; 00000010H
  000f1	58		 pop	 eax
  000f2	c1 e0 00	 shl	 eax, 0
  000f5	8d 44 05 bc	 lea	 eax, DWORD PTR _m$[ebp+eax]
  000f9	6a 04		 push	 4
  000fb	59		 pop	 ecx
  000fc	d1 e1		 shl	 ecx, 1
  000fe	0f 57 c0	 xorps	 xmm0, xmm0
  00101	f3 0f 11 04 08	 movss	 DWORD PTR [eax+ecx], xmm0
  00106	6a 10		 push	 16			; 00000010H
  00108	58		 pop	 eax
  00109	c1 e0 00	 shl	 eax, 0
  0010c	8d 44 05 bc	 lea	 eax, DWORD PTR _m$[ebp+eax]
  00110	6a 04		 push	 4
  00112	59		 pop	 ecx
  00113	6b c9 00	 imul	 ecx, ecx, 0
  00116	0f 57 c0	 xorps	 xmm0, xmm0
  00119	f3 0f 11 04 08	 movss	 DWORD PTR [eax+ecx], xmm0
  0011e	6a 10		 push	 16			; 00000010H
  00120	58		 pop	 eax
  00121	6b c0 00	 imul	 eax, eax, 0
  00124	8d 44 05 bc	 lea	 eax, DWORD PTR _m$[ebp+eax]
  00128	6a 04		 push	 4
  0012a	59		 pop	 ecx
  0012b	6b c9 03	 imul	 ecx, ecx, 3
  0012e	0f 57 c0	 xorps	 xmm0, xmm0
  00131	f3 0f 11 04 08	 movss	 DWORD PTR [eax+ecx], xmm0
  00136	6a 10		 push	 16			; 00000010H
  00138	58		 pop	 eax
  00139	6b c0 00	 imul	 eax, eax, 0
  0013c	8d 44 05 bc	 lea	 eax, DWORD PTR _m$[ebp+eax]
  00140	6a 04		 push	 4
  00142	59		 pop	 ecx
  00143	d1 e1		 shl	 ecx, 1
  00145	0f 57 c0	 xorps	 xmm0, xmm0
  00148	f3 0f 11 04 08	 movss	 DWORD PTR [eax+ecx], xmm0
  0014d	6a 10		 push	 16			; 00000010H
  0014f	58		 pop	 eax
  00150	6b c0 00	 imul	 eax, eax, 0
  00153	8d 44 05 bc	 lea	 eax, DWORD PTR _m$[ebp+eax]
  00157	6a 04		 push	 4
  00159	59		 pop	 ecx
  0015a	c1 e1 00	 shl	 ecx, 0
  0015d	0f 57 c0	 xorps	 xmm0, xmm0
  00160	f3 0f 11 04 08	 movss	 DWORD PTR [eax+ecx], xmm0

; 1517 :     pOut->m[1][0] = pOut->m[1][2] = pOut->m[1][3] =
; 1518 :     pOut->m[2][0] = pOut->m[2][1] = pOut->m[2][3] =
; 1519 :     pOut->m[3][0] = pOut->m[3][1] = pOut->m[3][2] = 0.0f;
; 1520 : 
; 1521 :     pOut->m[0][0] = pOut->m[1][1] = pOut->m[2][2] = pOut->m[3][3] = 1.0f;

  00165	6a 10		 push	 16			; 00000010H
  00167	58		 pop	 eax
  00168	6b c0 03	 imul	 eax, eax, 3
  0016b	8d 44 05 bc	 lea	 eax, DWORD PTR _m$[ebp+eax]
  0016f	6a 04		 push	 4
  00171	59		 pop	 ecx
  00172	6b c9 03	 imul	 ecx, ecx, 3
  00175	f3 0f 10 05 00
	00 00 00	 movss	 xmm0, DWORD PTR __real@3f800000
  0017d	f3 0f 11 04 08	 movss	 DWORD PTR [eax+ecx], xmm0
  00182	6a 10		 push	 16			; 00000010H
  00184	58		 pop	 eax
  00185	d1 e0		 shl	 eax, 1
  00187	8d 44 05 bc	 lea	 eax, DWORD PTR _m$[ebp+eax]
  0018b	6a 04		 push	 4
  0018d	59		 pop	 ecx
  0018e	d1 e1		 shl	 ecx, 1
  00190	f3 0f 10 05 00
	00 00 00	 movss	 xmm0, DWORD PTR __real@3f800000
  00198	f3 0f 11 04 08	 movss	 DWORD PTR [eax+ecx], xmm0
  0019d	6a 10		 push	 16			; 00000010H
  0019f	58		 pop	 eax
  001a0	c1 e0 00	 shl	 eax, 0
  001a3	8d 44 05 bc	 lea	 eax, DWORD PTR _m$[ebp+eax]
  001a7	6a 04		 push	 4
  001a9	59		 pop	 ecx
  001aa	c1 e1 00	 shl	 ecx, 0
  001ad	f3 0f 10 05 00
	00 00 00	 movss	 xmm0, DWORD PTR __real@3f800000
  001b5	f3 0f 11 04 08	 movss	 DWORD PTR [eax+ecx], xmm0
  001ba	6a 10		 push	 16			; 00000010H
  001bc	58		 pop	 eax
  001bd	6b c0 00	 imul	 eax, eax, 0
  001c0	8d 44 05 bc	 lea	 eax, DWORD PTR _m$[ebp+eax]
  001c4	6a 04		 push	 4
  001c6	59		 pop	 ecx
  001c7	6b c9 00	 imul	 ecx, ecx, 0
  001ca	f3 0f 10 05 00
	00 00 00	 movss	 xmm0, DWORD PTR __real@3f800000
  001d2	f3 0f 11 04 08	 movss	 DWORD PTR [eax+ecx], xmm0
; File D:\Metin2 Server Files\mainline\SRC_2014\Metin2Client\GameLib\FlyingInstance.cpp

; 540  : 	m._41 = m_v3Position.x;

  001d7	8b 45 b8	 mov	 eax, DWORD PTR _this$[ebp]
  001da	f3 0f 10 40 2c	 movss	 xmm0, DWORD PTR [eax+44]
  001df	f3 0f 11 45 ec	 movss	 DWORD PTR _m$[ebp+48], xmm0

; 541  : 	m._42 = m_v3Position.y;

  001e4	8b 45 b8	 mov	 eax, DWORD PTR _this$[ebp]
  001e7	f3 0f 10 40 30	 movss	 xmm0, DWORD PTR [eax+48]
  001ec	f3 0f 11 45 f0	 movss	 DWORD PTR _m$[ebp+52], xmm0

; 542  : 	m._43 = m_v3Position.z;

  001f1	8b 45 b8	 mov	 eax, DWORD PTR _this$[ebp]
  001f4	f3 0f 10 40 34	 movss	 xmm0, DWORD PTR [eax+52]
  001f9	f3 0f 11 45 f4	 movss	 DWORD PTR _m$[ebp+56], xmm0

; 543  : 	rkEftMgr.SelectEffectInstance(dwEmptyIndex);

  001fe	ff 75 b0	 push	 DWORD PTR _dwEmptyIndex$[ebp]
  00201	8b 4d b4	 mov	 ecx, DWORD PTR _rkEftMgr$[ebp]
  00204	e8 00 00 00 00	 call	 ?SelectEffectInstance@CEffectManager@@QAEHK@Z ; CEffectManager::SelectEffectInstance

; 544  : 	rkEftMgr.SetEffectInstanceGlobalMatrix(m);

  00209	8d 45 bc	 lea	 eax, DWORD PTR _m$[ebp]
  0020c	50		 push	 eax
  0020d	8b 4d b4	 mov	 ecx, DWORD PTR _rkEftMgr$[ebp]
  00210	e8 00 00 00 00	 call	 ?SetEffectInstanceGlobalMatrix@CEffectManager@@QAEXABUD3DXMATRIX@@@Z ; CEffectManager::SetEffectInstanceGlobalMatrix
$LN1@Bomb:

; 545  : }

  00215	8b 4d fc	 mov	 ecx, DWORD PTR __$ArrayPad$[ebp]
  00218	33 cd		 xor	 ecx, ebp
  0021a	e8 00 00 00 00	 call	 @__security_check_cookie@4
  0021f	c9		 leave
  00220	c3		 ret	 0
?__Bomb@CFlyingInstance@@QAEXXZ ENDP			; CFlyingInstance::__Bomb
_TEXT	ENDS
; Function compile flags: /Odspy
; File D:\Metin2 Server Files\mainline\SRC_2014\Metin2Client\GameLib\FlyingInstance.cpp
;	COMDAT ?__Explode@CFlyingInstance@@QAEX_N@Z
_TEXT	SEGMENT
_this$ = -4						; size = 4
_bBomb$ = 8						; size = 1
?__Explode@CFlyingInstance@@QAEX_N@Z PROC		; CFlyingInstance::__Explode, COMDAT
; _this$ = ecx

; 518  : {

  00000	55		 push	 ebp
  00001	8b ec		 mov	 ebp, esp
  00003	51		 push	 ecx
  00004	89 4d fc	 mov	 DWORD PTR _this$[ebp], ecx

; 519  : 	if (!m_bAlive)

  00007	8b 45 fc	 mov	 eax, DWORD PTR _this$[ebp]
  0000a	0f b6 40 20	 movzx	 eax, BYTE PTR [eax+32]
  0000e	85 c0		 test	 eax, eax
  00010	75 02		 jne	 SHORT $LN2@Explode

; 520  : 		return;

  00012	eb 17		 jmp	 SHORT $LN1@Explode
$LN2@Explode:

; 521  : 
; 522  : 	m_bAlive = false;

  00014	8b 45 fc	 mov	 eax, DWORD PTR _this$[ebp]
  00017	c6 40 20 00	 mov	 BYTE PTR [eax+32], 0

; 523  : 
; 524  : 	if (bBomb)

  0001b	0f b6 45 08	 movzx	 eax, BYTE PTR _bBomb$[ebp]
  0001f	85 c0		 test	 eax, eax
  00021	74 08		 je	 SHORT $LN1@Explode

; 525  : 		__Bomb();

  00023	8b 4d fc	 mov	 ecx, DWORD PTR _this$[ebp]
  00026	e8 00 00 00 00	 call	 ?__Bomb@CFlyingInstance@@QAEXXZ ; CFlyingInstance::__Bomb
$LN1@Explode:

; 526  : }

  0002b	c9		 leave
  0002c	c2 04 00	 ret	 4
?__Explode@CFlyingInstance@@QAEX_N@Z ENDP		; CFlyingInstance::__Explode
_TEXT	ENDS
; Function compile flags: /Odspy
; File D:\Metin2 Server Files\mainline\SRC_2014\Metin2Client\GameLib\FlyingInstance.cpp
; File C:\Program Files (x86)\Microsoft Visual Studio\2019\Community\VC\Tools\MSVC\14.28.29333\include\vector
; File C:\Program Files (x86)\Microsoft Visual Studio\2019\Community\VC\Tools\MSVC\14.28.29333\include\xstddef
; File C:\Program Files (x86)\Microsoft Visual Studio\2019\Community\VC\Tools\MSVC\14.28.29333\include\vector
; File D:\Metin2 Server Files\mainline\SRC_2014\Metin2Client\GameLib\FlyingInstance.cpp
; File C:\Program Files (x86)\Microsoft Visual Studio\2019\Community\VC\Tools\MSVC\14.28.29333\include\vector
; File C:\Program Files (x86)\Microsoft Visual Studio\2019\Community\VC\Tools\MSVC\14.28.29333\include\xstddef
; File C:\Program Files (x86)\Microsoft Visual Studio\2019\Community\VC\Tools\MSVC\14.28.29333\include\vector
; File D:\Metin2 Server Files\mainline\SRC_2014\Metin2Client\GameLib\FlyingInstance.cpp
; File C:\Program Files (x86)\Microsoft Visual Studio\2019\Community\VC\Tools\MSVC\14.28.29333\include\vector
; File D:\Metin2 Server Files\mainline\SRC_2014\Metin2Client\GameLib\FlyingInstance.cpp
; File C:\Program Files (x86)\Microsoft Visual Studio\2019\Community\VC\Tools\MSVC\14.28.29333\include\vector
; File D:\Metin2 Server Files\mainline\SRC_2014\Metin2Client\GameLib\FlyingInstance.cpp
; File C:\Program Files (x86)\Microsoft Visual Studio\2019\Community\VC\Tools\MSVC\14.28.29333\include\vector
; File D:\Metin2 Server Files\mainline\SRC_2014\Metin2Client\GameLib\FlyingInstance.cpp
; File C:\Program Files (x86)\Microsoft Visual Studio\2019\Community\VC\Tools\MSVC\14.28.29333\include\vector
; File D:\Metin2 Server Files\mainline\SRC_2014\Metin2Client\GameLib\FlyingInstance.cpp
; File C:\Program Files (x86)\Microsoft Visual Studio\2019\Community\VC\Tools\MSVC\14.28.29333\include\vector
; File D:\Metin2 Server Files\mainline\SRC_2014\Metin2Client\GameLib\FlyingInstance.cpp
; File C:\Program Files (x86)\Microsoft Visual Studio\2019\Community\VC\Tools\MSVC\14.28.29333\include\vector
; File D:\Metin2 Server Files\mainline\SRC_2014\Metin2Client\GameLib\FlyingInstance.cpp
;	COMDAT ?ClearAttachInstance@CFlyingInstance@@QAEXXZ
_TEXT	SEGMENT
$T1 = -112						; size = 4
$T2 = -108						; size = 4
$T3 = -104						; size = 4
$T4 = -100						; size = 4
$T5 = -96						; size = 4
$T6 = -92						; size = 4
$T7 = -88						; size = 4
$T8 = -84						; size = 4
$T9 = -80						; size = 4
$T10 = -76						; size = 4
$T11 = -72						; size = 4
$T12 = -68						; size = 4
_rkEftMgr$ = -64					; size = 4
$T13 = -60						; size = 4
$T14 = -56						; size = 4
$T15 = -52						; size = 4
$T16 = -48						; size = 4
___param0$ = -44					; size = 4
$T17 = -40						; size = 4
$T18 = -36						; size = 4
___param0$ = -32					; size = 4
tv195 = -28						; size = 4
tv209 = -24						; size = 4
__My_data$19 = -20					; size = 4
__My_data$20 = -16					; size = 4
_this$ = -12						; size = 4
_i$ = -8						; size = 4
$T21 = -2						; size = 1
$T22 = -1						; size = 1
?ClearAttachInstance@CFlyingInstance@@QAEXXZ PROC	; CFlyingInstance::ClearAttachInstance, COMDAT
; _this$ = ecx

; 499  : {

  00000	55		 push	 ebp
  00001	8b ec		 mov	 ebp, esp
  00003	83 ec 70	 sub	 esp, 112		; 00000070H
  00006	89 4d f4	 mov	 DWORD PTR _this$[ebp], ecx

; 500  : 	CEffectManager & rkEftMgr = CEffectManager::Instance();

  00009	a1 00 00 00 00	 mov	 eax, DWORD PTR ?ms_singleton@?$CSingleton@VCEffectManager@@@@0PAVCEffectManager@@A ; CSingleton<CEffectManager>::ms_singleton
  0000e	89 45 c0	 mov	 DWORD PTR _rkEftMgr$[ebp], eax
; File C:\Program Files (x86)\Microsoft Visual Studio\2019\Community\VC\Tools\MSVC\14.28.29333\include\vector

; 40   :     _Vector_const_iterator() noexcept : _Ptr() {}

  00011	83 65 f8 00	 and	 DWORD PTR _i$[ebp], 0

; 1410 :         auto& _My_data = _Mypair._Myval2;

  00015	8b 45 f4	 mov	 eax, DWORD PTR _this$[ebp]
  00018	05 88 00 00 00	 add	 eax, 136		; 00000088H
  0001d	89 45 f0	 mov	 DWORD PTR __My_data$20[ebp], eax
; File C:\Program Files (x86)\Microsoft Visual Studio\2019\Community\VC\Tools\MSVC\14.28.29333\include\xstddef

; 275  :     return __builtin_addressof(_Val);

  00020	8b 45 f0	 mov	 eax, DWORD PTR __My_data$20[ebp]
  00023	89 45 94	 mov	 DWORD PTR $T2[ebp], eax
; File C:\Program Files (x86)\Microsoft Visual Studio\2019\Community\VC\Tools\MSVC\14.28.29333\include\vector

; 1411 :         return iterator(_My_data._Myfirst, _STD addressof(_My_data));

  00026	8b 45 f0	 mov	 eax, DWORD PTR __My_data$20[ebp]
  00029	8b 00		 mov	 eax, DWORD PTR [eax]
  0002b	89 45 e0	 mov	 DWORD PTR ___param0$[ebp], eax

; 42   :     _Vector_const_iterator(_Tptr _Parg, const _Container_base* _Pvector) noexcept : _Ptr(_Parg) {

  0002e	8b 45 e0	 mov	 eax, DWORD PTR ___param0$[ebp]
  00031	89 45 dc	 mov	 DWORD PTR $T18[ebp], eax

; 1411 :         return iterator(_My_data._Myfirst, _STD addressof(_My_data));

  00034	8d 45 dc	 lea	 eax, DWORD PTR $T18[ebp]
  00037	89 45 d8	 mov	 DWORD PTR $T17[ebp], eax
; File D:\Metin2 Server Files\mainline\SRC_2014\Metin2Client\GameLib\FlyingInstance.cpp

; 503  : 	for(i = m_vecAttachEffectInstance.begin();i!=m_vecAttachEffectInstance.end();++i)

  0003a	8b 45 d8	 mov	 eax, DWORD PTR $T17[ebp]
  0003d	8b 00		 mov	 eax, DWORD PTR [eax]
  0003f	89 45 f8	 mov	 DWORD PTR _i$[ebp], eax
  00042	eb 09		 jmp	 SHORT $LN4@ClearAttac
$LN2@ClearAttac:
; File C:\Program Files (x86)\Microsoft Visual Studio\2019\Community\VC\Tools\MSVC\14.28.29333\include\vector

; 75   :         ++_Ptr;

  00044	8b 45 f8	 mov	 eax, DWORD PTR _i$[ebp]
  00047	83 c0 0c	 add	 eax, 12			; 0000000cH
  0004a	89 45 f8	 mov	 DWORD PTR _i$[ebp], eax
$LN4@ClearAttac:

; 1420 :         auto& _My_data = _Mypair._Myval2;

  0004d	8b 45 f4	 mov	 eax, DWORD PTR _this$[ebp]
  00050	05 88 00 00 00	 add	 eax, 136		; 00000088H
  00055	89 45 ec	 mov	 DWORD PTR __My_data$19[ebp], eax
; File C:\Program Files (x86)\Microsoft Visual Studio\2019\Community\VC\Tools\MSVC\14.28.29333\include\xstddef

; 275  :     return __builtin_addressof(_Val);

  00058	8b 45 ec	 mov	 eax, DWORD PTR __My_data$19[ebp]
  0005b	89 45 90	 mov	 DWORD PTR $T1[ebp], eax
; File C:\Program Files (x86)\Microsoft Visual Studio\2019\Community\VC\Tools\MSVC\14.28.29333\include\vector

; 1421 :         return iterator(_My_data._Mylast, _STD addressof(_My_data));

  0005e	8b 45 ec	 mov	 eax, DWORD PTR __My_data$19[ebp]
  00061	8b 40 04	 mov	 eax, DWORD PTR [eax+4]
  00064	89 45 d4	 mov	 DWORD PTR ___param0$[ebp], eax

; 42   :     _Vector_const_iterator(_Tptr _Parg, const _Container_base* _Pvector) noexcept : _Ptr(_Parg) {

  00067	8b 45 d4	 mov	 eax, DWORD PTR ___param0$[ebp]
  0006a	89 45 d0	 mov	 DWORD PTR $T16[ebp], eax

; 1421 :         return iterator(_My_data._Mylast, _STD addressof(_My_data));

  0006d	8d 45 d0	 lea	 eax, DWORD PTR $T16[ebp]
  00070	89 45 cc	 mov	 DWORD PTR $T15[ebp], eax

; 149  :         return _Ptr == _Right._Ptr;

  00073	8b 45 cc	 mov	 eax, DWORD PTR $T15[ebp]
  00076	8b 4d f8	 mov	 ecx, DWORD PTR _i$[ebp]
  00079	3b 08		 cmp	 ecx, DWORD PTR [eax]
  0007b	75 09		 jne	 SHORT $LN58@ClearAttac
  0007d	c7 45 e8 01 00
	00 00		 mov	 DWORD PTR tv209[ebp], 1
  00084	eb 04		 jmp	 SHORT $LN59@ClearAttac
$LN58@ClearAttac:
  00086	83 65 e8 00	 and	 DWORD PTR tv209[ebp], 0
$LN59@ClearAttac:
  0008a	8a 45 e8	 mov	 al, BYTE PTR tv209[ebp]
  0008d	88 45 ff	 mov	 BYTE PTR $T22[ebp], al

; 153  :         return !(*this == _Right);

  00090	0f b6 45 ff	 movzx	 eax, BYTE PTR $T22[ebp]
  00094	85 c0		 test	 eax, eax
  00096	75 09		 jne	 SHORT $LN53@ClearAttac
  00098	c7 45 e4 01 00
	00 00		 mov	 DWORD PTR tv195[ebp], 1
  0009f	eb 04		 jmp	 SHORT $LN54@ClearAttac
$LN53@ClearAttac:
  000a1	83 65 e4 00	 and	 DWORD PTR tv195[ebp], 0
$LN54@ClearAttac:
  000a5	8a 45 e4	 mov	 al, BYTE PTR tv195[ebp]
  000a8	88 45 fe	 mov	 BYTE PTR $T21[ebp], al
; File D:\Metin2 Server Files\mainline\SRC_2014\Metin2Client\GameLib\FlyingInstance.cpp

; 503  : 	for(i = m_vecAttachEffectInstance.begin();i!=m_vecAttachEffectInstance.end();++i)

  000ab	0f b6 45 fe	 movzx	 eax, BYTE PTR $T21[ebp]
  000af	85 c0		 test	 eax, eax
  000b1	0f 84 a8 00 00
	00		 je	 $LN3@ClearAttac
; File C:\Program Files (x86)\Microsoft Visual Studio\2019\Community\VC\Tools\MSVC\14.28.29333\include\vector

; 65   :         return _Ptr;

  000b7	8b 45 f8	 mov	 eax, DWORD PTR _i$[ebp]
  000ba	89 45 c8	 mov	 DWORD PTR $T14[ebp], eax

; 256  :         return _Const_cast(_Mybase::operator->());

  000bd	ff 75 c8	 push	 DWORD PTR $T14[ebp]
  000c0	e8 00 00 00 00	 call	 ??$_Const_cast@$$CBUTAttachEffectInstance@CFlyingInstance@@@std@@YAPAUTAttachEffectInstance@CFlyingInstance@@PBU12@@Z ; std::_Const_cast<CFlyingInstance::TAttachEffectInstance const >
  000c5	59		 pop	 ecx
  000c6	89 45 c4	 mov	 DWORD PTR $T13[ebp], eax
; File D:\Metin2 Server Files\mainline\SRC_2014\Metin2Client\GameLib\FlyingInstance.cpp

; 505  : 		rkEftMgr.DestroyEffectInstance(i->dwEffectInstanceIndex);

  000c9	8b 45 c4	 mov	 eax, DWORD PTR $T13[ebp]
  000cc	ff 70 04	 push	 DWORD PTR [eax+4]
  000cf	8b 4d c0	 mov	 ecx, DWORD PTR _rkEftMgr$[ebp]
  000d2	e8 00 00 00 00	 call	 ?DestroyEffectInstance@CEffectManager@@QAE_NK@Z ; CEffectManager::DestroyEffectInstance
; File C:\Program Files (x86)\Microsoft Visual Studio\2019\Community\VC\Tools\MSVC\14.28.29333\include\vector

; 65   :         return _Ptr;

  000d7	8b 45 f8	 mov	 eax, DWORD PTR _i$[ebp]
  000da	89 45 bc	 mov	 DWORD PTR $T12[ebp], eax

; 256  :         return _Const_cast(_Mybase::operator->());

  000dd	ff 75 bc	 push	 DWORD PTR $T12[ebp]
  000e0	e8 00 00 00 00	 call	 ??$_Const_cast@$$CBUTAttachEffectInstance@CFlyingInstance@@@std@@YAPAUTAttachEffectInstance@CFlyingInstance@@PBU12@@Z ; std::_Const_cast<CFlyingInstance::TAttachEffectInstance const >
  000e5	59		 pop	 ecx
  000e6	89 45 b8	 mov	 DWORD PTR $T11[ebp], eax
; File D:\Metin2 Server Files\mainline\SRC_2014\Metin2Client\GameLib\FlyingInstance.cpp

; 507  : 		if (i->pFlyTrace)

  000e9	8b 45 b8	 mov	 eax, DWORD PTR $T11[ebp]
  000ec	83 78 08 00	 cmp	 DWORD PTR [eax+8], 0
  000f0	74 1e		 je	 SHORT $LN5@ClearAttac
; File C:\Program Files (x86)\Microsoft Visual Studio\2019\Community\VC\Tools\MSVC\14.28.29333\include\vector

; 65   :         return _Ptr;

  000f2	8b 45 f8	 mov	 eax, DWORD PTR _i$[ebp]
  000f5	89 45 b4	 mov	 DWORD PTR $T10[ebp], eax

; 256  :         return _Const_cast(_Mybase::operator->());

  000f8	ff 75 b4	 push	 DWORD PTR $T10[ebp]
  000fb	e8 00 00 00 00	 call	 ??$_Const_cast@$$CBUTAttachEffectInstance@CFlyingInstance@@@std@@YAPAUTAttachEffectInstance@CFlyingInstance@@PBU12@@Z ; std::_Const_cast<CFlyingInstance::TAttachEffectInstance const >
  00100	59		 pop	 ecx
  00101	89 45 b0	 mov	 DWORD PTR $T9[ebp], eax
; File D:\Metin2 Server Files\mainline\SRC_2014\Metin2Client\GameLib\FlyingInstance.cpp

; 508  : 			CFlyTrace::Delete(i->pFlyTrace);

  00104	8b 45 b0	 mov	 eax, DWORD PTR $T9[ebp]
  00107	ff 70 08	 push	 DWORD PTR [eax+8]
  0010a	e8 00 00 00 00	 call	 ?Delete@CFlyTrace@@SAXPAV1@@Z ; CFlyTrace::Delete
  0010f	59		 pop	 ecx
$LN5@ClearAttac:
; File C:\Program Files (x86)\Microsoft Visual Studio\2019\Community\VC\Tools\MSVC\14.28.29333\include\vector

; 65   :         return _Ptr;

  00110	8b 45 f8	 mov	 eax, DWORD PTR _i$[ebp]
  00113	89 45 ac	 mov	 DWORD PTR $T8[ebp], eax

; 256  :         return _Const_cast(_Mybase::operator->());

  00116	ff 75 ac	 push	 DWORD PTR $T8[ebp]
  00119	e8 00 00 00 00	 call	 ??$_Const_cast@$$CBUTAttachEffectInstance@CFlyingInstance@@@std@@YAPAUTAttachEffectInstance@CFlyingInstance@@PBU12@@Z ; std::_Const_cast<CFlyingInstance::TAttachEffectInstance const >
  0011e	59		 pop	 ecx
  0011f	89 45 a8	 mov	 DWORD PTR $T7[ebp], eax
; File D:\Metin2 Server Files\mainline\SRC_2014\Metin2Client\GameLib\FlyingInstance.cpp

; 510  : 		i->iAttachIndex=0;

  00122	8b 45 a8	 mov	 eax, DWORD PTR $T7[ebp]
  00125	83 20 00	 and	 DWORD PTR [eax], 0
; File C:\Program Files (x86)\Microsoft Visual Studio\2019\Community\VC\Tools\MSVC\14.28.29333\include\vector

; 65   :         return _Ptr;

  00128	8b 45 f8	 mov	 eax, DWORD PTR _i$[ebp]
  0012b	89 45 a4	 mov	 DWORD PTR $T6[ebp], eax

; 256  :         return _Const_cast(_Mybase::operator->());

  0012e	ff 75 a4	 push	 DWORD PTR $T6[ebp]
  00131	e8 00 00 00 00	 call	 ??$_Const_cast@$$CBUTAttachEffectInstance@CFlyingInstance@@@std@@YAPAUTAttachEffectInstance@CFlyingInstance@@PBU12@@Z ; std::_Const_cast<CFlyingInstance::TAttachEffectInstance const >
  00136	59		 pop	 ecx
  00137	89 45 a0	 mov	 DWORD PTR $T5[ebp], eax
; File D:\Metin2 Server Files\mainline\SRC_2014\Metin2Client\GameLib\FlyingInstance.cpp

; 511  : 		i->dwEffectInstanceIndex=0;

  0013a	8b 45 a0	 mov	 eax, DWORD PTR $T5[ebp]
  0013d	83 60 04 00	 and	 DWORD PTR [eax+4], 0
; File C:\Program Files (x86)\Microsoft Visual Studio\2019\Community\VC\Tools\MSVC\14.28.29333\include\vector

; 65   :         return _Ptr;

  00141	8b 45 f8	 mov	 eax, DWORD PTR _i$[ebp]
  00144	89 45 9c	 mov	 DWORD PTR $T4[ebp], eax

; 256  :         return _Const_cast(_Mybase::operator->());

  00147	ff 75 9c	 push	 DWORD PTR $T4[ebp]
  0014a	e8 00 00 00 00	 call	 ??$_Const_cast@$$CBUTAttachEffectInstance@CFlyingInstance@@@std@@YAPAUTAttachEffectInstance@CFlyingInstance@@PBU12@@Z ; std::_Const_cast<CFlyingInstance::TAttachEffectInstance const >
  0014f	59		 pop	 ecx
  00150	89 45 98	 mov	 DWORD PTR $T3[ebp], eax
; File D:\Metin2 Server Files\mainline\SRC_2014\Metin2Client\GameLib\FlyingInstance.cpp

; 512  : 		i->pFlyTrace=NULL;

  00153	8b 45 98	 mov	 eax, DWORD PTR $T3[ebp]
  00156	83 60 08 00	 and	 DWORD PTR [eax+8], 0

; 513  : 	}

  0015a	e9 e5 fe ff ff	 jmp	 $LN2@ClearAttac
$LN3@ClearAttac:

; 514  : 	m_vecAttachEffectInstance.clear();

  0015f	8b 4d f4	 mov	 ecx, DWORD PTR _this$[ebp]
  00162	81 c1 88 00 00
	00		 add	 ecx, 136		; 00000088H
  00168	e8 00 00 00 00	 call	 ?clear@?$vector@UTAttachEffectInstance@CFlyingInstance@@V?$allocator@UTAttachEffectInstance@CFlyingInstance@@@std@@@std@@QAEXXZ ; std::vector<CFlyingInstance::TAttachEffectInstance,std::allocator<CFlyingInstance::TAttachEffectInstance> >::clear

; 515  : }

  0016d	c9		 leave
  0016e	c3		 ret	 0
?ClearAttachInstance@CFlyingInstance@@QAEXXZ ENDP	; CFlyingInstance::ClearAttachInstance
_TEXT	ENDS
; Function compile flags: /Odspy
; File D:\Metin2 Server Files\mainline\SRC_2014\Metin2Client\GameLib\FlyingInstance.cpp
; File C:\Program Files (x86)\Microsoft Visual Studio\2019\Community\VC\Tools\MSVC\14.28.29333\include\vector
; File C:\Program Files (x86)\Microsoft Visual Studio\2019\Community\VC\Tools\MSVC\14.28.29333\include\xstddef
; File C:\Program Files (x86)\Microsoft Visual Studio\2019\Community\VC\Tools\MSVC\14.28.29333\include\vector
; File D:\Metin2 Server Files\mainline\SRC_2014\Metin2Client\GameLib\FlyingInstance.cpp
; File C:\Program Files (x86)\Microsoft Visual Studio\2019\Community\VC\Tools\MSVC\14.28.29333\include\vector
; File C:\Program Files (x86)\Microsoft Visual Studio\2019\Community\VC\Tools\MSVC\14.28.29333\include\xstddef
; File C:\Program Files (x86)\Microsoft Visual Studio\2019\Community\VC\Tools\MSVC\14.28.29333\include\vector
; File D:\Metin2 Server Files\mainline\SRC_2014\Metin2Client\GameLib\FlyingInstance.cpp
; File C:\Program Files (x86)\Microsoft Visual Studio\2019\Community\VC\Tools\MSVC\14.28.29333\include\vector
; File D:\Metin2 Server Files\mainline\SRC_2014\Metin2Client\GameLib\FlyingInstance.cpp
; File C:\Program Files (x86)\Microsoft Visual Studio\2019\Community\VC\Tools\MSVC\14.28.29333\include\vector
; File D:\Metin2 Server Files\mainline\SRC_2014\Metin2Client\GameLib\FlyingInstance.cpp
;	COMDAT ?RenderAttachInstance@CFlyingInstance@@QAEXXZ
_TEXT	SEGMENT
$T1 = -76						; size = 4
$T2 = -72						; size = 4
$T3 = -68						; size = 4
$T4 = -64						; size = 4
$T5 = -60						; size = 4
$T6 = -56						; size = 4
$T7 = -52						; size = 4
$T8 = -48						; size = 4
___param0$ = -44					; size = 4
$T9 = -40						; size = 4
$T10 = -36						; size = 4
___param0$ = -32					; size = 4
tv178 = -28						; size = 4
tv192 = -24						; size = 4
__My_data$11 = -20					; size = 4
_this$ = -16						; size = 4
__My_data$12 = -12					; size = 4
_it$ = -8						; size = 4
$T13 = -2						; size = 1
$T14 = -1						; size = 1
?RenderAttachInstance@CFlyingInstance@@QAEXXZ PROC	; CFlyingInstance::RenderAttachInstance, COMDAT
; _this$ = ecx

; 555  : {

  00000	55		 push	 ebp
  00001	8b ec		 mov	 ebp, esp
  00003	83 ec 4c	 sub	 esp, 76			; 0000004cH
  00006	89 4d f0	 mov	 DWORD PTR _this$[ebp], ecx
; File C:\Program Files (x86)\Microsoft Visual Studio\2019\Community\VC\Tools\MSVC\14.28.29333\include\vector

; 40   :     _Vector_const_iterator() noexcept : _Ptr() {}

  00009	83 65 f8 00	 and	 DWORD PTR _it$[ebp], 0

; 1410 :         auto& _My_data = _Mypair._Myval2;

  0000d	8b 45 f0	 mov	 eax, DWORD PTR _this$[ebp]
  00010	05 88 00 00 00	 add	 eax, 136		; 00000088H
  00015	89 45 f4	 mov	 DWORD PTR __My_data$12[ebp], eax
; File C:\Program Files (x86)\Microsoft Visual Studio\2019\Community\VC\Tools\MSVC\14.28.29333\include\xstddef

; 275  :     return __builtin_addressof(_Val);

  00018	8b 45 f4	 mov	 eax, DWORD PTR __My_data$12[ebp]
  0001b	89 45 b8	 mov	 DWORD PTR $T2[ebp], eax
; File C:\Program Files (x86)\Microsoft Visual Studio\2019\Community\VC\Tools\MSVC\14.28.29333\include\vector

; 1411 :         return iterator(_My_data._Myfirst, _STD addressof(_My_data));

  0001e	8b 45 f4	 mov	 eax, DWORD PTR __My_data$12[ebp]
  00021	8b 00		 mov	 eax, DWORD PTR [eax]
  00023	89 45 e0	 mov	 DWORD PTR ___param0$[ebp], eax

; 42   :     _Vector_const_iterator(_Tptr _Parg, const _Container_base* _Pvector) noexcept : _Ptr(_Parg) {

  00026	8b 45 e0	 mov	 eax, DWORD PTR ___param0$[ebp]
  00029	89 45 dc	 mov	 DWORD PTR $T10[ebp], eax

; 1411 :         return iterator(_My_data._Myfirst, _STD addressof(_My_data));

  0002c	8d 45 dc	 lea	 eax, DWORD PTR $T10[ebp]
  0002f	89 45 d8	 mov	 DWORD PTR $T9[ebp], eax
; File D:\Metin2 Server Files\mainline\SRC_2014\Metin2Client\GameLib\FlyingInstance.cpp

; 557  : 	for(it = m_vecAttachEffectInstance.begin();it!=m_vecAttachEffectInstance.end();++it)

  00032	8b 45 d8	 mov	 eax, DWORD PTR $T9[ebp]
  00035	8b 00		 mov	 eax, DWORD PTR [eax]
  00037	89 45 f8	 mov	 DWORD PTR _it$[ebp], eax
  0003a	eb 09		 jmp	 SHORT $LN4@RenderAtta
$LN2@RenderAtta:
; File C:\Program Files (x86)\Microsoft Visual Studio\2019\Community\VC\Tools\MSVC\14.28.29333\include\vector

; 75   :         ++_Ptr;

  0003c	8b 45 f8	 mov	 eax, DWORD PTR _it$[ebp]
  0003f	83 c0 0c	 add	 eax, 12			; 0000000cH
  00042	89 45 f8	 mov	 DWORD PTR _it$[ebp], eax
$LN4@RenderAtta:

; 1420 :         auto& _My_data = _Mypair._Myval2;

  00045	8b 45 f0	 mov	 eax, DWORD PTR _this$[ebp]
  00048	05 88 00 00 00	 add	 eax, 136		; 00000088H
  0004d	89 45 ec	 mov	 DWORD PTR __My_data$11[ebp], eax
; File C:\Program Files (x86)\Microsoft Visual Studio\2019\Community\VC\Tools\MSVC\14.28.29333\include\xstddef

; 275  :     return __builtin_addressof(_Val);

  00050	8b 45 ec	 mov	 eax, DWORD PTR __My_data$11[ebp]
  00053	89 45 b4	 mov	 DWORD PTR $T1[ebp], eax
; File C:\Program Files (x86)\Microsoft Visual Studio\2019\Community\VC\Tools\MSVC\14.28.29333\include\vector

; 1421 :         return iterator(_My_data._Mylast, _STD addressof(_My_data));

  00056	8b 45 ec	 mov	 eax, DWORD PTR __My_data$11[ebp]
  00059	8b 40 04	 mov	 eax, DWORD PTR [eax+4]
  0005c	89 45 d4	 mov	 DWORD PTR ___param0$[ebp], eax

; 42   :     _Vector_const_iterator(_Tptr _Parg, const _Container_base* _Pvector) noexcept : _Ptr(_Parg) {

  0005f	8b 45 d4	 mov	 eax, DWORD PTR ___param0$[ebp]
  00062	89 45 d0	 mov	 DWORD PTR $T8[ebp], eax

; 1421 :         return iterator(_My_data._Mylast, _STD addressof(_My_data));

  00065	8d 45 d0	 lea	 eax, DWORD PTR $T8[ebp]
  00068	89 45 cc	 mov	 DWORD PTR $T7[ebp], eax

; 149  :         return _Ptr == _Right._Ptr;

  0006b	8b 45 cc	 mov	 eax, DWORD PTR $T7[ebp]
  0006e	8b 4d f8	 mov	 ecx, DWORD PTR _it$[ebp]
  00071	3b 08		 cmp	 ecx, DWORD PTR [eax]
  00073	75 09		 jne	 SHORT $LN56@RenderAtta
  00075	c7 45 e8 01 00
	00 00		 mov	 DWORD PTR tv192[ebp], 1
  0007c	eb 04		 jmp	 SHORT $LN57@RenderAtta
$LN56@RenderAtta:
  0007e	83 65 e8 00	 and	 DWORD PTR tv192[ebp], 0
$LN57@RenderAtta:
  00082	8a 45 e8	 mov	 al, BYTE PTR tv192[ebp]
  00085	88 45 ff	 mov	 BYTE PTR $T14[ebp], al

; 153  :         return !(*this == _Right);

  00088	0f b6 45 ff	 movzx	 eax, BYTE PTR $T14[ebp]
  0008c	85 c0		 test	 eax, eax
  0008e	75 09		 jne	 SHORT $LN51@RenderAtta
  00090	c7 45 e4 01 00
	00 00		 mov	 DWORD PTR tv178[ebp], 1
  00097	eb 04		 jmp	 SHORT $LN52@RenderAtta
$LN51@RenderAtta:
  00099	83 65 e4 00	 and	 DWORD PTR tv178[ebp], 0
$LN52@RenderAtta:
  0009d	8a 45 e4	 mov	 al, BYTE PTR tv178[ebp]
  000a0	88 45 fe	 mov	 BYTE PTR $T13[ebp], al
; File D:\Metin2 Server Files\mainline\SRC_2014\Metin2Client\GameLib\FlyingInstance.cpp

; 557  : 	for(it = m_vecAttachEffectInstance.begin();it!=m_vecAttachEffectInstance.end();++it)

  000a3	0f b6 45 fe	 movzx	 eax, BYTE PTR $T13[ebp]
  000a7	85 c0		 test	 eax, eax
  000a9	74 3d		 je	 SHORT $LN1@RenderAtta
; File C:\Program Files (x86)\Microsoft Visual Studio\2019\Community\VC\Tools\MSVC\14.28.29333\include\vector

; 65   :         return _Ptr;

  000ab	8b 45 f8	 mov	 eax, DWORD PTR _it$[ebp]
  000ae	89 45 c8	 mov	 DWORD PTR $T6[ebp], eax

; 256  :         return _Const_cast(_Mybase::operator->());

  000b1	ff 75 c8	 push	 DWORD PTR $T6[ebp]
  000b4	e8 00 00 00 00	 call	 ??$_Const_cast@$$CBUTAttachEffectInstance@CFlyingInstance@@@std@@YAPAUTAttachEffectInstance@CFlyingInstance@@PBU12@@Z ; std::_Const_cast<CFlyingInstance::TAttachEffectInstance const >
  000b9	59		 pop	 ecx
  000ba	89 45 c4	 mov	 DWORD PTR $T5[ebp], eax
; File D:\Metin2 Server Files\mainline\SRC_2014\Metin2Client\GameLib\FlyingInstance.cpp

; 559  : 		if (it->pFlyTrace)

  000bd	8b 45 c4	 mov	 eax, DWORD PTR $T5[ebp]
  000c0	83 78 08 00	 cmp	 DWORD PTR [eax+8], 0
  000c4	74 1d		 je	 SHORT $LN5@RenderAtta
; File C:\Program Files (x86)\Microsoft Visual Studio\2019\Community\VC\Tools\MSVC\14.28.29333\include\vector

; 65   :         return _Ptr;

  000c6	8b 45 f8	 mov	 eax, DWORD PTR _it$[ebp]
  000c9	89 45 c0	 mov	 DWORD PTR $T4[ebp], eax

; 256  :         return _Const_cast(_Mybase::operator->());

  000cc	ff 75 c0	 push	 DWORD PTR $T4[ebp]
  000cf	e8 00 00 00 00	 call	 ??$_Const_cast@$$CBUTAttachEffectInstance@CFlyingInstance@@@std@@YAPAUTAttachEffectInstance@CFlyingInstance@@PBU12@@Z ; std::_Const_cast<CFlyingInstance::TAttachEffectInstance const >
  000d4	59		 pop	 ecx
  000d5	89 45 bc	 mov	 DWORD PTR $T3[ebp], eax
; File D:\Metin2 Server Files\mainline\SRC_2014\Metin2Client\GameLib\FlyingInstance.cpp

; 560  : 			it->pFlyTrace->Render();

  000d8	8b 45 bc	 mov	 eax, DWORD PTR $T3[ebp]
  000db	8b 48 08	 mov	 ecx, DWORD PTR [eax+8]
  000de	e8 00 00 00 00	 call	 ?Render@CFlyTrace@@QAEXXZ ; CFlyTrace::Render
$LN5@RenderAtta:

; 561  : 	}

  000e3	e9 54 ff ff ff	 jmp	 $LN2@RenderAtta
$LN1@RenderAtta:

; 562  : }

  000e8	c9		 leave
  000e9	c3		 ret	 0
?RenderAttachInstance@CFlyingInstance@@QAEXXZ ENDP	; CFlyingInstance::RenderAttachInstance
_TEXT	ENDS
; Function compile flags: /Odspy
; File D:\Metin2 Server Files\mainline\SRC_2014\Metin2Client\GameLib\FlyingInstance.cpp
; File D:\Metin2 Server Files\mainline\SRC_2014\Metin2Client\eterBase\Singleton.h
; File D:\Metin2 Server Files\mainline\SRC_2014\Metin2Client\GameLib\FlyingInstance.cpp
; File C:\Program Files (x86)\Microsoft Visual Studio\2019\Community\VC\Tools\MSVC\14.28.29333\include\vector
; File C:\Program Files (x86)\Microsoft Visual Studio\2019\Community\VC\Tools\MSVC\14.28.29333\include\xstddef
; File C:\Program Files (x86)\Microsoft Visual Studio\2019\Community\VC\Tools\MSVC\14.28.29333\include\vector
; File D:\Metin2 Server Files\mainline\SRC_2014\Metin2Client\GameLib\FlyingInstance.cpp
; File C:\Program Files (x86)\Microsoft Visual Studio\2019\Community\VC\Tools\MSVC\14.28.29333\include\vector
; File C:\Program Files (x86)\Microsoft Visual Studio\2019\Community\VC\Tools\MSVC\14.28.29333\include\xstddef
; File C:\Program Files (x86)\Microsoft Visual Studio\2019\Community\VC\Tools\MSVC\14.28.29333\include\vector
; File D:\Metin2 Server Files\mainline\SRC_2014\Metin2Client\GameLib\FlyingInstance.cpp
; File C:\Program Files (x86)\Microsoft Visual Studio\2019\Community\VC\Tools\MSVC\14.28.29333\include\vector
; File D:\Metin2 Server Files\mainline\SRC_2014\Metin2Client\GameLib\FlyingInstance.cpp
; File C:\Program Files (x86)\Microsoft Visual Studio\2019\Community\VC\Tools\MSVC\14.28.29333\include\vector
; File D:\Metin2 Server Files\mainline\SRC_2014\Metin2Client\GameLib\FlyingInstance.cpp
; File C:\Program Files (x86)\Windows Kits\10\Include\10.0.18362.0\ucrt\corecrt_math.h
; File D:\Metin2 Server Files\mainline\SRC_2014\Metin2Client\GameLib\FlyingInstance.cpp
; File C:\Program Files (x86)\Windows Kits\10\Include\10.0.18362.0\ucrt\corecrt_math.h
; File D:\Metin2 Server Files\mainline\SRC_2014\Metin2Client\GameLib\FlyingInstance.cpp
; File D:\Metin2 Server Files\mainline\SRC_2014\M2Data\include\d3dx8math.inl
; File D:\Metin2 Server Files\mainline\SRC_2014\Metin2Client\GameLib\FlyingInstance.cpp
; File D:\Metin2 Server Files\mainline\SRC_2014\M2Data\include\d3dx8math.inl
; File D:\Metin2 Server Files\mainline\SRC_2014\Metin2Client\GameLib\FlyingInstance.cpp
; File D:\Metin2 Server Files\mainline\SRC_2014\Metin2Client\eterBase\Singleton.h
; File D:\Metin2 Server Files\mainline\SRC_2014\Metin2Client\GameLib\FlyingInstance.cpp
; File C:\Program Files (x86)\Windows Kits\10\Include\10.0.18362.0\ucrt\corecrt_math.h
; File D:\Metin2 Server Files\mainline\SRC_2014\Metin2Client\GameLib\FlyingInstance.cpp
; File C:\Program Files (x86)\Windows Kits\10\Include\10.0.18362.0\ucrt\corecrt_math.h
; File D:\Metin2 Server Files\mainline\SRC_2014\Metin2Client\GameLib\FlyingInstance.cpp
; File D:\Metin2 Server Files\mainline\SRC_2014\M2Data\include\d3dx8math.inl
; File D:\Metin2 Server Files\mainline\SRC_2014\Metin2Client\GameLib\FlyingInstance.cpp
; File D:\Metin2 Server Files\mainline\SRC_2014\M2Data\include\d3dx8math.inl
; File D:\Metin2 Server Files\mainline\SRC_2014\Metin2Client\GameLib\FlyingInstance.cpp
; File D:\Metin2 Server Files\mainline\SRC_2014\Metin2Client\eterBase\Singleton.h
; File D:\Metin2 Server Files\mainline\SRC_2014\Metin2Client\GameLib\FlyingInstance.cpp
; File C:\Program Files (x86)\Windows Kits\10\Include\10.0.18362.0\ucrt\corecrt_math.h
; File D:\Metin2 Server Files\mainline\SRC_2014\Metin2Client\GameLib\FlyingInstance.cpp
; File C:\Program Files (x86)\Windows Kits\10\Include\10.0.18362.0\ucrt\corecrt_math.h
; File C:\Program Files (x86)\Microsoft Visual Studio\2019\Community\VC\Tools\MSVC\14.28.29333\include\cmath
; File D:\Metin2 Server Files\mainline\SRC_2014\Metin2Client\GameLib\FlyingInstance.cpp
; File C:\Program Files (x86)\Windows Kits\10\Include\10.0.18362.0\ucrt\corecrt_math.h
; File D:\Metin2 Server Files\mainline\SRC_2014\Metin2Client\GameLib\FlyingInstance.cpp
; File C:\Program Files (x86)\Windows Kits\10\Include\10.0.18362.0\ucrt\corecrt_math.h
; File C:\Program Files (x86)\Microsoft Visual Studio\2019\Community\VC\Tools\MSVC\14.28.29333\include\cmath
; File D:\Metin2 Server Files\mainline\SRC_2014\Metin2Client\GameLib\FlyingInstance.cpp
; File D:\Metin2 Server Files\mainline\SRC_2014\M2Data\include\d3dx8math.inl
; File D:\Metin2 Server Files\mainline\SRC_2014\Metin2Client\GameLib\FlyingInstance.cpp
; File D:\Metin2 Server Files\mainline\SRC_2014\M2Data\include\d3dx8math.inl
; File D:\Metin2 Server Files\mainline\SRC_2014\Metin2Client\GameLib\FlyingInstance.cpp
; File C:\Program Files (x86)\Microsoft Visual Studio\2019\Community\VC\Tools\MSVC\14.28.29333\include\vector
; File D:\Metin2 Server Files\mainline\SRC_2014\Metin2Client\GameLib\FlyingInstance.cpp
; File D:\Metin2 Server Files\mainline\SRC_2014\M2Data\include\d3dx8math.inl
; File C:\Program Files (x86)\Microsoft Visual Studio\2019\Community\VC\Tools\MSVC\14.28.29333\include\vector
; File D:\Metin2 Server Files\mainline\SRC_2014\Metin2Client\GameLib\FlyingInstance.cpp
;	COMDAT ?UpdateAttachInstance@CFlyingInstance@@QAEXXZ
_TEXT	SEGMENT
$T1 = -412						; size = 4
$T2 = -408						; size = 4
$T3 = -404						; size = 4
tv1631 = -400						; size = 4
tv1869 = -396						; size = 4
$T4 = -392						; size = 4
tv1342 = -388						; size = 4
tv1867 = -384						; size = 4
$T5 = -380						; size = 4
$T6 = -376						; size = 4
_fz$ = -372						; size = 4
_fy$ = -368						; size = 4
_fx$ = -364						; size = 4
$T7 = -360						; size = 4
$T8 = -356						; size = 4
_fz$ = -352						; size = 4
_fx$ = -348						; size = 4
$T9 = -344						; size = 4
$T10 = -340						; size = 4
$T11 = -336						; size = 4
$T12 = -332						; size = 4
__X$ = -328						; size = 4
__X$ = -324						; size = 4
_dt$13 = -320						; size = 4
tv1803 = -316						; size = 4
$T14 = -312						; size = 4
_fz$ = -308						; size = 4
_fx$ = -304						; size = 4
$T15 = -300						; size = 4
$T16 = -296						; size = 4
$T17 = -292						; size = 4
$T18 = -288						; size = 4
__X$ = -284						; size = 4
__X$ = -280						; size = 4
tv1754 = -276						; size = 4
$T19 = -272						; size = 4
_fz$ = -268						; size = 4
_fx$ = -264						; size = 4
$T20 = -260						; size = 4
$T21 = -256						; size = 4
__X$ = -252						; size = 4
__X$ = -248						; size = 4
$T22 = -244						; size = 4
$T23 = -240						; size = 4
$T24 = -236						; size = 4
$T25 = -232						; size = 4
$T26 = -228						; size = 4
$T27 = -224						; size = 4
___param0$ = -220					; size = 4
$T28 = -216						; size = 4
$T29 = -212						; size = 4
___param0$ = -208					; size = 4
tv1669 = -204						; size = 4
tv1871 = -200						; size = 4
$T30 = -196						; size = 4
_q$ = -192						; size = 16
_rem$ = -176						; size = 4
_angle$31 = -172					; size = 4
tv545 = -168						; size = 4
tv559 = -164						; size = 4
__My_data$32 = -160					; size = 4
__My_data$33 = -156					; size = 4
_v$ = -152						; size = 4
_v$ = -148						; size = 4
_v$ = -144						; size = 4
_angle$34 = -140					; size = 4
tv186 = -136						; size = 4
$T35 = -130						; size = 1
$T36 = -129						; size = 1
_it$ = -128						; size = 4
_rfad$37 = -124						; size = 4
_this$ = -120						; size = 4
_m$38 = -116						; size = 64
$T39 = -52						; size = 12
_p$40 = -40						; size = 12
_p$41 = -28						; size = 12
_p$42 = -16						; size = 12
__$ArrayPad$ = -4					; size = 4
?UpdateAttachInstance@CFlyingInstance@@QAEXXZ PROC	; CFlyingInstance::UpdateAttachInstance, COMDAT
; _this$ = ecx

; 192  : {

  00000	55		 push	 ebp
  00001	8b ec		 mov	 ebp, esp
  00003	81 ec 9c 01 00
	00		 sub	 esp, 412		; 0000019cH
  00009	a1 00 00 00 00	 mov	 eax, DWORD PTR ___security_cookie
  0000e	33 c5		 xor	 eax, ebp
  00010	89 45 fc	 mov	 DWORD PTR __$ArrayPad$[ebp], eax
  00013	89 4d 88	 mov	 DWORD PTR _this$[ebp], ecx
; File D:\Metin2 Server Files\mainline\SRC_2014\Metin2Client\eterBase\Singleton.h

; 27   : 		return (*ms_singleton);

  00016	a1 00 00 00 00	 mov	 eax, DWORD PTR ?ms_singleton@?$CSingleton@VCTimer@@@@0PAVCTimer@@A ; CSingleton<CTimer>::ms_singleton
  0001b	89 85 ac fe ff
	ff		 mov	 DWORD PTR $T10[ebp], eax
  00021	a1 00 00 00 00	 mov	 eax, DWORD PTR ?ms_singleton@?$CSingleton@VCTimer@@@@0PAVCTimer@@A ; CSingleton<CTimer>::ms_singleton
  00026	89 85 78 fe ff
	ff		 mov	 DWORD PTR $T4[ebp], eax
  0002c	a1 00 00 00 00	 mov	 eax, DWORD PTR ?ms_singleton@?$CSingleton@VCTimer@@@@0PAVCTimer@@A ; CSingleton<CTimer>::ms_singleton
  00031	89 85 3c ff ff
	ff		 mov	 DWORD PTR $T30[ebp], eax
; File D:\Metin2 Server Files\mainline\SRC_2014\Metin2Client\GameLib\FlyingInstance.cpp

; 195  : 	D3DXQuaternionRotationYawPitchRoll(&q,

  00037	8b 45 88	 mov	 eax, DWORD PTR _this$[ebp]
  0003a	8b 40 08	 mov	 eax, DWORD PTR [eax+8]
  0003d	f3 0f 10 40 34	 movss	 xmm0, DWORD PTR [eax+52]
  00042	f3 0f 59 05 00
	00 00 00	 mulss	 xmm0, DWORD PTR __real@3c8efa35
  0004a	8b 8d ac fe ff
	ff		 mov	 ecx, DWORD PTR $T10[ebp]
  00050	f3 0f 11 85 80
	fe ff ff	 movss	 DWORD PTR tv1867[ebp], xmm0
  00058	e8 00 00 00 00	 call	 ?GetElapsedSecond@CTimer@@QAEMXZ ; CTimer::GetElapsedSecond
  0005d	d9 9d 7c fe ff
	ff		 fstp	 DWORD PTR tv1342[ebp]
  00063	f3 0f 10 85 80
	fe ff ff	 movss	 xmm0, DWORD PTR tv1867[ebp]
  0006b	f3 0f 59 85 7c
	fe ff ff	 mulss	 xmm0, DWORD PTR tv1342[ebp]
  00073	51		 push	 ecx
  00074	f3 0f 11 04 24	 movss	 DWORD PTR [esp], xmm0
  00079	8b 45 88	 mov	 eax, DWORD PTR _this$[ebp]
  0007c	8b 40 08	 mov	 eax, DWORD PTR [eax+8]
  0007f	f3 0f 10 40 2c	 movss	 xmm0, DWORD PTR [eax+44]
  00084	f3 0f 59 05 00
	00 00 00	 mulss	 xmm0, DWORD PTR __real@3c8efa35
  0008c	8b 8d 78 fe ff
	ff		 mov	 ecx, DWORD PTR $T4[ebp]
  00092	f3 0f 11 85 74
	fe ff ff	 movss	 DWORD PTR tv1869[ebp], xmm0
  0009a	e8 00 00 00 00	 call	 ?GetElapsedSecond@CTimer@@QAEMXZ ; CTimer::GetElapsedSecond
  0009f	d9 9d 70 fe ff
	ff		 fstp	 DWORD PTR tv1631[ebp]
  000a5	f3 0f 10 85 74
	fe ff ff	 movss	 xmm0, DWORD PTR tv1869[ebp]
  000ad	f3 0f 59 85 70
	fe ff ff	 mulss	 xmm0, DWORD PTR tv1631[ebp]
  000b5	51		 push	 ecx
  000b6	f3 0f 11 04 24	 movss	 DWORD PTR [esp], xmm0
  000bb	8b 45 88	 mov	 eax, DWORD PTR _this$[ebp]
  000be	8b 40 08	 mov	 eax, DWORD PTR [eax+8]
  000c1	f3 0f 10 40 30	 movss	 xmm0, DWORD PTR [eax+48]
  000c6	f3 0f 59 05 00
	00 00 00	 mulss	 xmm0, DWORD PTR __real@3c8efa35
  000ce	8b 8d 3c ff ff
	ff		 mov	 ecx, DWORD PTR $T30[ebp]
  000d4	f3 0f 11 85 38
	ff ff ff	 movss	 DWORD PTR tv1871[ebp], xmm0
  000dc	e8 00 00 00 00	 call	 ?GetElapsedSecond@CTimer@@QAEMXZ ; CTimer::GetElapsedSecond
  000e1	d9 9d 34 ff ff
	ff		 fstp	 DWORD PTR tv1669[ebp]
  000e7	f3 0f 10 85 38
	ff ff ff	 movss	 xmm0, DWORD PTR tv1871[ebp]
  000ef	f3 0f 59 85 34
	ff ff ff	 mulss	 xmm0, DWORD PTR tv1669[ebp]
  000f7	51		 push	 ecx
  000f8	f3 0f 11 04 24	 movss	 DWORD PTR [esp], xmm0
  000fd	8d 85 40 ff ff
	ff		 lea	 eax, DWORD PTR _q$[ebp]
  00103	50		 push	 eax
  00104	e8 00 00 00 00	 call	 _D3DXQuaternionRotationYawPitchRoll@16

; 196  : 		D3DXToRadian(m_pData->m_v3AngVel.y)*CTimer::Instance().GetElapsedSecond(),
; 197  : 		D3DXToRadian(m_pData->m_v3AngVel.x)*CTimer::Instance().GetElapsedSecond(),
; 198  : 		D3DXToRadian(m_pData->m_v3AngVel.z)*CTimer::Instance().GetElapsedSecond());
; 199  : 
; 200  : 	D3DXQuaternionMultiply(&m_qAttachRotation, &m_qAttachRotation, &q);

  00109	8d 85 40 ff ff
	ff		 lea	 eax, DWORD PTR _q$[ebp]
  0010f	50		 push	 eax
  00110	8b 45 88	 mov	 eax, DWORD PTR _this$[ebp]
  00113	83 c0 78	 add	 eax, 120		; 00000078H
  00116	50		 push	 eax
  00117	8b 45 88	 mov	 eax, DWORD PTR _this$[ebp]
  0011a	83 c0 78	 add	 eax, 120		; 00000078H
  0011d	50		 push	 eax
  0011e	e8 00 00 00 00	 call	 _D3DXQuaternionMultiply@12

; 201  : 	D3DXQuaternionMultiply(&q, &m_qAttachRotation, &m_qRot);

  00123	8b 45 88	 mov	 eax, DWORD PTR _this$[ebp]
  00126	83 c0 0c	 add	 eax, 12			; 0000000cH
  00129	50		 push	 eax
  0012a	8b 45 88	 mov	 eax, DWORD PTR _this$[ebp]
  0012d	83 c0 78	 add	 eax, 120		; 00000078H
  00130	50		 push	 eax
  00131	8d 85 40 ff ff
	ff		 lea	 eax, DWORD PTR _q$[ebp]
  00137	50		 push	 eax
  00138	e8 00 00 00 00	 call	 _D3DXQuaternionMultiply@12

; 202  : 
; 203  : 	CEffectManager & rem = CEffectManager::Instance();

  0013d	a1 00 00 00 00	 mov	 eax, DWORD PTR ?ms_singleton@?$CSingleton@VCEffectManager@@@@0PAVCEffectManager@@A ; CSingleton<CEffectManager>::ms_singleton
  00142	89 85 50 ff ff
	ff		 mov	 DWORD PTR _rem$[ebp], eax
; File C:\Program Files (x86)\Microsoft Visual Studio\2019\Community\VC\Tools\MSVC\14.28.29333\include\vector

; 40   :     _Vector_const_iterator() noexcept : _Ptr() {}

  00148	83 65 80 00	 and	 DWORD PTR _it$[ebp], 0

; 1410 :         auto& _My_data = _Mypair._Myval2;

  0014c	8b 45 88	 mov	 eax, DWORD PTR _this$[ebp]
  0014f	05 88 00 00 00	 add	 eax, 136		; 00000088H
  00154	89 85 64 ff ff
	ff		 mov	 DWORD PTR __My_data$33[ebp], eax
; File C:\Program Files (x86)\Microsoft Visual Studio\2019\Community\VC\Tools\MSVC\14.28.29333\include\xstddef

; 275  :     return __builtin_addressof(_Val);

  0015a	8b 85 64 ff ff
	ff		 mov	 eax, DWORD PTR __My_data$33[ebp]
  00160	89 85 68 fe ff
	ff		 mov	 DWORD PTR $T2[ebp], eax
; File C:\Program Files (x86)\Microsoft Visual Studio\2019\Community\VC\Tools\MSVC\14.28.29333\include\vector

; 1411 :         return iterator(_My_data._Myfirst, _STD addressof(_My_data));

  00166	8b 85 64 ff ff
	ff		 mov	 eax, DWORD PTR __My_data$33[ebp]
  0016c	8b 00		 mov	 eax, DWORD PTR [eax]
  0016e	89 85 30 ff ff
	ff		 mov	 DWORD PTR ___param0$[ebp], eax

; 42   :     _Vector_const_iterator(_Tptr _Parg, const _Container_base* _Pvector) noexcept : _Ptr(_Parg) {

  00174	8b 85 30 ff ff
	ff		 mov	 eax, DWORD PTR ___param0$[ebp]
  0017a	89 85 2c ff ff
	ff		 mov	 DWORD PTR $T29[ebp], eax

; 1411 :         return iterator(_My_data._Myfirst, _STD addressof(_My_data));

  00180	8d 85 2c ff ff
	ff		 lea	 eax, DWORD PTR $T29[ebp]
  00186	89 85 28 ff ff
	ff		 mov	 DWORD PTR $T28[ebp], eax
; File D:\Metin2 Server Files\mainline\SRC_2014\Metin2Client\GameLib\FlyingInstance.cpp

; 205  : 	for(it = m_vecAttachEffectInstance.begin();it!=m_vecAttachEffectInstance.end();++it)

  0018c	8b 85 28 ff ff
	ff		 mov	 eax, DWORD PTR $T28[ebp]
  00192	8b 00		 mov	 eax, DWORD PTR [eax]
  00194	89 45 80	 mov	 DWORD PTR _it$[ebp], eax
  00197	eb 09		 jmp	 SHORT $LN44@UpdateAtta
$LN2@UpdateAtta:
; File C:\Program Files (x86)\Microsoft Visual Studio\2019\Community\VC\Tools\MSVC\14.28.29333\include\vector

; 75   :         ++_Ptr;

  00199	8b 45 80	 mov	 eax, DWORD PTR _it$[ebp]
  0019c	83 c0 0c	 add	 eax, 12			; 0000000cH
  0019f	89 45 80	 mov	 DWORD PTR _it$[ebp], eax
$LN44@UpdateAtta:

; 1420 :         auto& _My_data = _Mypair._Myval2;

  001a2	8b 45 88	 mov	 eax, DWORD PTR _this$[ebp]
  001a5	05 88 00 00 00	 add	 eax, 136		; 00000088H
  001aa	89 85 60 ff ff
	ff		 mov	 DWORD PTR __My_data$32[ebp], eax
; File C:\Program Files (x86)\Microsoft Visual Studio\2019\Community\VC\Tools\MSVC\14.28.29333\include\xstddef

; 275  :     return __builtin_addressof(_Val);

  001b0	8b 85 60 ff ff
	ff		 mov	 eax, DWORD PTR __My_data$32[ebp]
  001b6	89 85 64 fe ff
	ff		 mov	 DWORD PTR $T1[ebp], eax
; File C:\Program Files (x86)\Microsoft Visual Studio\2019\Community\VC\Tools\MSVC\14.28.29333\include\vector

; 1421 :         return iterator(_My_data._Mylast, _STD addressof(_My_data));

  001bc	8b 85 60 ff ff
	ff		 mov	 eax, DWORD PTR __My_data$32[ebp]
  001c2	8b 40 04	 mov	 eax, DWORD PTR [eax+4]
  001c5	89 85 24 ff ff
	ff		 mov	 DWORD PTR ___param0$[ebp], eax

; 42   :     _Vector_const_iterator(_Tptr _Parg, const _Container_base* _Pvector) noexcept : _Ptr(_Parg) {

  001cb	8b 85 24 ff ff
	ff		 mov	 eax, DWORD PTR ___param0$[ebp]
  001d1	89 85 20 ff ff
	ff		 mov	 DWORD PTR $T27[ebp], eax

; 1421 :         return iterator(_My_data._Mylast, _STD addressof(_My_data));

  001d7	8d 85 20 ff ff
	ff		 lea	 eax, DWORD PTR $T27[ebp]
  001dd	89 85 1c ff ff
	ff		 mov	 DWORD PTR $T26[ebp], eax

; 149  :         return _Ptr == _Right._Ptr;

  001e3	8b 85 1c ff ff
	ff		 mov	 eax, DWORD PTR $T26[ebp]
  001e9	8b 4d 80	 mov	 ecx, DWORD PTR _it$[ebp]
  001ec	3b 08		 cmp	 ecx, DWORD PTR [eax]
  001ee	75 0c		 jne	 SHORT $LN72@UpdateAtta
  001f0	c7 85 5c ff ff
	ff 01 00 00 00	 mov	 DWORD PTR tv559[ebp], 1
  001fa	eb 07		 jmp	 SHORT $LN73@UpdateAtta
$LN72@UpdateAtta:
  001fc	83 a5 5c ff ff
	ff 00		 and	 DWORD PTR tv559[ebp], 0
$LN73@UpdateAtta:
  00203	8a 85 5c ff ff
	ff		 mov	 al, BYTE PTR tv559[ebp]
  00209	88 85 7f ff ff
	ff		 mov	 BYTE PTR $T36[ebp], al

; 153  :         return !(*this == _Right);

  0020f	0f b6 85 7f ff
	ff ff		 movzx	 eax, BYTE PTR $T36[ebp]
  00216	85 c0		 test	 eax, eax
  00218	75 0c		 jne	 SHORT $LN67@UpdateAtta
  0021a	c7 85 58 ff ff
	ff 01 00 00 00	 mov	 DWORD PTR tv545[ebp], 1
  00224	eb 07		 jmp	 SHORT $LN68@UpdateAtta
$LN67@UpdateAtta:
  00226	83 a5 58 ff ff
	ff 00		 and	 DWORD PTR tv545[ebp], 0
$LN68@UpdateAtta:
  0022d	8a 85 58 ff ff
	ff		 mov	 al, BYTE PTR tv545[ebp]
  00233	88 85 7e ff ff
	ff		 mov	 BYTE PTR $T35[ebp], al
; File D:\Metin2 Server Files\mainline\SRC_2014\Metin2Client\GameLib\FlyingInstance.cpp

; 205  : 	for(it = m_vecAttachEffectInstance.begin();it!=m_vecAttachEffectInstance.end();++it)

  00239	0f b6 85 7e ff
	ff ff		 movzx	 eax, BYTE PTR $T35[ebp]
  00240	85 c0		 test	 eax, eax
  00242	0f 84 ec 06 00
	00		 je	 $LN3@UpdateAtta
; File C:\Program Files (x86)\Microsoft Visual Studio\2019\Community\VC\Tools\MSVC\14.28.29333\include\vector

; 65   :         return _Ptr;

  00248	8b 45 80	 mov	 eax, DWORD PTR _it$[ebp]
  0024b	89 85 18 ff ff
	ff		 mov	 DWORD PTR $T25[ebp], eax

; 256  :         return _Const_cast(_Mybase::operator->());

  00251	ff b5 18 ff ff
	ff		 push	 DWORD PTR $T25[ebp]
  00257	e8 00 00 00 00	 call	 ??$_Const_cast@$$CBUTAttachEffectInstance@CFlyingInstance@@@std@@YAPAUTAttachEffectInstance@CFlyingInstance@@PBU12@@Z ; std::_Const_cast<CFlyingInstance::TAttachEffectInstance const >
  0025c	59		 pop	 ecx
  0025d	89 85 14 ff ff
	ff		 mov	 DWORD PTR $T24[ebp], eax
; File D:\Metin2 Server Files\mainline\SRC_2014\Metin2Client\GameLib\FlyingInstance.cpp

; 207  : 		CFlyingData::TFlyingAttachData & rfad = m_pData->GetAttachDataReference(it->iAttachIndex);

  00263	8b 85 14 ff ff
	ff		 mov	 eax, DWORD PTR $T24[ebp]
  00269	ff 30		 push	 DWORD PTR [eax]
  0026b	8b 45 88	 mov	 eax, DWORD PTR _this$[ebp]
  0026e	8b 48 08	 mov	 ecx, DWORD PTR [eax+8]
  00271	e8 00 00 00 00	 call	 ?GetAttachDataReference@CFlyingData@@QAEAAUTFlyingAttachData@1@H@Z ; CFlyingData::GetAttachDataReference
  00276	89 45 84	 mov	 DWORD PTR _rfad$37[ebp], eax
; File C:\Program Files (x86)\Microsoft Visual Studio\2019\Community\VC\Tools\MSVC\14.28.29333\include\vector

; 65   :         return _Ptr;

  00279	8b 45 80	 mov	 eax, DWORD PTR _it$[ebp]
  0027c	89 85 10 ff ff
	ff		 mov	 DWORD PTR $T23[ebp], eax

; 256  :         return _Const_cast(_Mybase::operator->());

  00282	ff b5 10 ff ff
	ff		 push	 DWORD PTR $T23[ebp]
  00288	e8 00 00 00 00	 call	 ??$_Const_cast@$$CBUTAttachEffectInstance@CFlyingInstance@@@std@@YAPAUTAttachEffectInstance@CFlyingInstance@@PBU12@@Z ; std::_Const_cast<CFlyingInstance::TAttachEffectInstance const >
  0028d	59		 pop	 ecx
  0028e	89 85 0c ff ff
	ff		 mov	 DWORD PTR $T22[ebp], eax
; File D:\Metin2 Server Files\mainline\SRC_2014\Metin2Client\GameLib\FlyingInstance.cpp

; 209  : 		rem.SelectEffectInstance(it->dwEffectInstanceIndex);

  00294	8b 85 0c ff ff
	ff		 mov	 eax, DWORD PTR $T22[ebp]
  0029a	ff 70 04	 push	 DWORD PTR [eax+4]
  0029d	8b 8d 50 ff ff
	ff		 mov	 ecx, DWORD PTR _rem$[ebp]
  002a3	e8 00 00 00 00	 call	 ?SelectEffectInstance@CEffectManager@@QAEHK@Z ; CEffectManager::SelectEffectInstance

; 210  : 		D3DXMATRIX m;
; 211  : 		switch(rfad.iFlyType)

  002a8	8b 45 84	 mov	 eax, DWORD PTR _rfad$37[ebp]
  002ab	8b 40 04	 mov	 eax, DWORD PTR [eax+4]
  002ae	89 85 78 ff ff
	ff		 mov	 DWORD PTR tv186[ebp], eax
  002b4	83 bd 78 ff ff
	ff 01		 cmp	 DWORD PTR tv186[ebp], 1
  002bb	74 28		 je	 SHORT $LN7@UpdateAtta
  002bd	83 bd 78 ff ff
	ff 02		 cmp	 DWORD PTR tv186[ebp], 2
  002c4	74 5b		 je	 SHORT $LN8@UpdateAtta
  002c6	83 bd 78 ff ff
	ff 03		 cmp	 DWORD PTR tv186[ebp], 3
  002cd	0f 84 aa 01 00
	00		 je	 $LN9@UpdateAtta
  002d3	83 bd 78 ff ff
	ff 04		 cmp	 DWORD PTR tv186[ebp], 4
  002da	0f 84 8d 03 00
	00		 je	 $LN10@UpdateAtta
  002e0	e9 99 05 00 00	 jmp	 $LN5@UpdateAtta
$LN7@UpdateAtta:

; 212  : 		{
; 213  : 			case CFlyingData::FLY_ATTACH_TYPE_LINE:
; 214  : 				D3DXMatrixRotationQuaternion(&m,&m_qRot);

  002e5	8b 45 88	 mov	 eax, DWORD PTR _this$[ebp]
  002e8	83 c0 0c	 add	 eax, 12			; 0000000cH
  002eb	50		 push	 eax
  002ec	8d 45 8c	 lea	 eax, DWORD PTR _m$38[ebp]
  002ef	50		 push	 eax
  002f0	e8 00 00 00 00	 call	 _D3DXMatrixRotationQuaternion@8

; 215  : 				//D3DXMatrixRotationQuaternion(&m,&q);
; 216  : 				m._41=m_v3Position.x;

  002f5	8b 45 88	 mov	 eax, DWORD PTR _this$[ebp]
  002f8	f3 0f 10 40 2c	 movss	 xmm0, DWORD PTR [eax+44]
  002fd	f3 0f 11 45 bc	 movss	 DWORD PTR _m$38[ebp+48], xmm0

; 217  : 				m._42=m_v3Position.y;

  00302	8b 45 88	 mov	 eax, DWORD PTR _this$[ebp]
  00305	f3 0f 10 40 30	 movss	 xmm0, DWORD PTR [eax+48]
  0030a	f3 0f 11 45 c0	 movss	 DWORD PTR _m$38[ebp+52], xmm0

; 218  : 				m._43=m_v3Position.z;

  0030f	8b 45 88	 mov	 eax, DWORD PTR _this$[ebp]
  00312	f3 0f 10 40 34	 movss	 xmm0, DWORD PTR [eax+52]
  00317	f3 0f 11 45 c4	 movss	 DWORD PTR _m$38[ebp+56], xmm0

; 219  : 				break;

  0031c	e9 5d 05 00 00	 jmp	 $LN5@UpdateAtta
$LN8@UpdateAtta:

; 222  : 					D3DXVECTOR3 p(

  00321	8b 45 84	 mov	 eax, DWORD PTR _rfad$37[ebp]
  00324	f3 0f 10 40 34	 movss	 xmm0, DWORD PTR [eax+52]
  00329	f3 0f 59 05 00
	00 00 00	 mulss	 xmm0, DWORD PTR __real@3c8efa35
  00331	f3 0f 11 85 08
	ff ff ff	 movss	 DWORD PTR __X$[ebp], xmm0
; File C:\Program Files (x86)\Windows Kits\10\Include\10.0.18362.0\ucrt\corecrt_math.h

; 649  :             return (float)cos(_X);

  00339	f3 0f 5a 85 08
	ff ff ff	 cvtss2sd xmm0, DWORD PTR __X$[ebp]
  00341	51		 push	 ecx
  00342	51		 push	 ecx
  00343	f2 0f 11 04 24	 movsd	 QWORD PTR [esp], xmm0
  00348	e8 00 00 00 00	 call	 _cos
  0034d	59		 pop	 ecx
  0034e	59		 pop	 ecx
  0034f	d9 9d fc fe ff
	ff		 fstp	 DWORD PTR $T20[ebp]
; File D:\Metin2 Server Files\mainline\SRC_2014\Metin2Client\GameLib\FlyingInstance.cpp

; 222  : 					D3DXVECTOR3 p(

  00355	8b 45 84	 mov	 eax, DWORD PTR _rfad$37[ebp]
  00358	f3 0f 10 40 34	 movss	 xmm0, DWORD PTR [eax+52]
  0035d	f3 0f 59 05 00
	00 00 00	 mulss	 xmm0, DWORD PTR __real@3c8efa35
  00365	f3 0f 11 85 04
	ff ff ff	 movss	 DWORD PTR __X$[ebp], xmm0
; File C:\Program Files (x86)\Windows Kits\10\Include\10.0.18362.0\ucrt\corecrt_math.h

; 750  :             return (float)sin(_X);

  0036d	f3 0f 5a 85 04
	ff ff ff	 cvtss2sd xmm0, DWORD PTR __X$[ebp]
  00375	51		 push	 ecx
  00376	51		 push	 ecx
  00377	f2 0f 11 04 24	 movsd	 QWORD PTR [esp], xmm0
  0037c	e8 00 00 00 00	 call	 _sin
  00381	59		 pop	 ecx
  00382	59		 pop	 ecx
  00383	d9 9d 00 ff ff
	ff		 fstp	 DWORD PTR $T21[ebp]
; File D:\Metin2 Server Files\mainline\SRC_2014\Metin2Client\GameLib\FlyingInstance.cpp

; 222  : 					D3DXVECTOR3 p(

  00389	f3 0f 10 85 00
	ff ff ff	 movss	 xmm0, DWORD PTR $T21[ebp]
  00391	0f 57 05 00 00
	00 00		 xorps	 xmm0, DWORD PTR __xmm@80000000800000008000000080000000
  00398	8b 45 84	 mov	 eax, DWORD PTR _rfad$37[ebp]
  0039b	f3 0f 59 40 38	 mulss	 xmm0, DWORD PTR [eax+56]
  003a0	f3 0f 11 85 f8
	fe ff ff	 movss	 DWORD PTR _fx$[ebp], xmm0
  003a8	f3 0f 10 85 fc
	fe ff ff	 movss	 xmm0, DWORD PTR $T20[ebp]
  003b0	0f 57 05 00 00
	00 00		 xorps	 xmm0, DWORD PTR __xmm@80000000800000008000000080000000
  003b7	8b 45 84	 mov	 eax, DWORD PTR _rfad$37[ebp]
  003ba	f3 0f 59 40 38	 mulss	 xmm0, DWORD PTR [eax+56]
  003bf	f3 0f 11 85 f4
	fe ff ff	 movss	 DWORD PTR _fz$[ebp], xmm0
; File D:\Metin2 Server Files\mainline\SRC_2014\M2Data\include\d3dx8math.inl

; 180  :     x = fx;

  003c7	f3 0f 10 85 f8
	fe ff ff	 movss	 xmm0, DWORD PTR _fx$[ebp]
  003cf	f3 0f 11 45 f0	 movss	 DWORD PTR _p$42[ebp], xmm0

; 181  :     y = fy;

  003d4	0f 57 c0	 xorps	 xmm0, xmm0
  003d7	f3 0f 11 45 f4	 movss	 DWORD PTR _p$42[ebp+4], xmm0

; 182  :     z = fz;

  003dc	f3 0f 10 85 f4
	fe ff ff	 movss	 xmm0, DWORD PTR _fz$[ebp]
  003e4	f3 0f 11 45 f8	 movss	 DWORD PTR _p$42[ebp+8], xmm0
; File D:\Metin2 Server Files\mainline\SRC_2014\Metin2Client\GameLib\FlyingInstance.cpp

; 227  : 					Vec3TransformQuaternionSafe(&p,&p,&q);

  003e9	8d 85 40 ff ff
	ff		 lea	 eax, DWORD PTR _q$[ebp]
  003ef	50		 push	 eax
  003f0	8d 45 f0	 lea	 eax, DWORD PTR _p$42[ebp]
  003f3	50		 push	 eax
  003f4	8d 45 f0	 lea	 eax, DWORD PTR _p$42[ebp]
  003f7	50		 push	 eax
  003f8	e8 00 00 00 00	 call	 ?Vec3TransformQuaternionSafe@@YAPAUD3DXVECTOR3@@PAU1@PBU1@PBUD3DXQUATERNION@@@Z ; Vec3TransformQuaternionSafe
  003fd	83 c4 0c	 add	 esp, 12			; 0000000cH

; 228  : 					p+=m_v3Position;

  00400	8b 45 88	 mov	 eax, DWORD PTR _this$[ebp]
  00403	83 c0 2c	 add	 eax, 44			; 0000002cH
  00406	89 85 70 ff ff
	ff		 mov	 DWORD PTR _v$[ebp], eax
; File D:\Metin2 Server Files\mainline\SRC_2014\M2Data\include\d3dx8math.inl

; 204  :     x += v.x;

  0040c	8b 85 70 ff ff
	ff		 mov	 eax, DWORD PTR _v$[ebp]
  00412	f3 0f 10 45 f0	 movss	 xmm0, DWORD PTR _p$42[ebp]
  00417	f3 0f 58 00	 addss	 xmm0, DWORD PTR [eax]
  0041b	f3 0f 11 45 f0	 movss	 DWORD PTR _p$42[ebp], xmm0

; 205  :     y += v.y;

  00420	8b 85 70 ff ff
	ff		 mov	 eax, DWORD PTR _v$[ebp]
  00426	f3 0f 10 45 f4	 movss	 xmm0, DWORD PTR _p$42[ebp+4]
  0042b	f3 0f 58 40 04	 addss	 xmm0, DWORD PTR [eax+4]
  00430	f3 0f 11 45 f4	 movss	 DWORD PTR _p$42[ebp+4], xmm0

; 206  :     z += v.z;

  00435	8b 85 70 ff ff
	ff		 mov	 eax, DWORD PTR _v$[ebp]
  0043b	f3 0f 10 45 f8	 movss	 xmm0, DWORD PTR _p$42[ebp+8]
  00440	f3 0f 58 40 08	 addss	 xmm0, DWORD PTR [eax+8]
  00445	f3 0f 11 45 f8	 movss	 DWORD PTR _p$42[ebp+8], xmm0
; File D:\Metin2 Server Files\mainline\SRC_2014\Metin2Client\GameLib\FlyingInstance.cpp

; 230  : 					D3DXMatrixRotationQuaternion(&m,&q);

  0044a	8d 85 40 ff ff
	ff		 lea	 eax, DWORD PTR _q$[ebp]
  00450	50		 push	 eax
  00451	8d 45 8c	 lea	 eax, DWORD PTR _m$38[ebp]
  00454	50		 push	 eax
  00455	e8 00 00 00 00	 call	 _D3DXMatrixRotationQuaternion@8

; 231  : 					m._41=p.x;

  0045a	f3 0f 10 45 f0	 movss	 xmm0, DWORD PTR _p$42[ebp]
  0045f	f3 0f 11 45 bc	 movss	 DWORD PTR _m$38[ebp+48], xmm0

; 232  : 					m._42=p.y;

  00464	f3 0f 10 45 f4	 movss	 xmm0, DWORD PTR _p$42[ebp+4]
  00469	f3 0f 11 45 c0	 movss	 DWORD PTR _m$38[ebp+52], xmm0

; 233  : 					m._43=p.z;

  0046e	f3 0f 10 45 f8	 movss	 xmm0, DWORD PTR _p$42[ebp+8]
  00473	f3 0f 11 45 c4	 movss	 DWORD PTR _m$38[ebp+56], xmm0

; 234  : 				}
; 235  : 				break;

  00478	e9 01 04 00 00	 jmp	 $LN5@UpdateAtta
$LN9@UpdateAtta:
; File D:\Metin2 Server Files\mainline\SRC_2014\Metin2Client\eterBase\Singleton.h

; 27   : 		return (*ms_singleton);

  0047d	a1 00 00 00 00	 mov	 eax, DWORD PTR ?ms_singleton@?$CSingleton@VCTimer@@@@0PAVCTimer@@A ; CSingleton<CTimer>::ms_singleton
  00482	89 85 f0 fe ff
	ff		 mov	 DWORD PTR $T19[ebp], eax
; File D:\Metin2 Server Files\mainline\SRC_2014\Metin2Client\GameLib\FlyingInstance.cpp

; 239  : 					float angle = (CTimer::Instance().GetCurrentSecond() - m_fStartTime)*2*3.1415926535897931f/rfad.fPeriod;

  00488	8b 8d f0 fe ff
	ff		 mov	 ecx, DWORD PTR $T19[ebp]
  0048e	e8 00 00 00 00	 call	 ?GetCurrentSecond@CTimer@@QAEMXZ ; CTimer::GetCurrentSecond
  00493	d9 9d ec fe ff
	ff		 fstp	 DWORD PTR tv1754[ebp]
  00499	f3 0f 10 85 ec
	fe ff ff	 movss	 xmm0, DWORD PTR tv1754[ebp]
  004a1	8b 45 88	 mov	 eax, DWORD PTR _this$[ebp]
  004a4	f3 0f 5c 40 1c	 subss	 xmm0, DWORD PTR [eax+28]
  004a9	f3 0f 59 05 00
	00 00 00	 mulss	 xmm0, DWORD PTR __real@40000000
  004b1	f3 0f 59 05 00
	00 00 00	 mulss	 xmm0, DWORD PTR __real@40490fdb
  004b9	8b 45 84	 mov	 eax, DWORD PTR _rfad$37[ebp]
  004bc	f3 0f 5e 40 3c	 divss	 xmm0, DWORD PTR [eax+60]
  004c1	f3 0f 11 85 54
	ff ff ff	 movss	 DWORD PTR _angle$31[ebp], xmm0

; 240  : 					D3DXVECTOR3 p(

  004c9	8b 45 84	 mov	 eax, DWORD PTR _rfad$37[ebp]
  004cc	f3 0f 10 40 34	 movss	 xmm0, DWORD PTR [eax+52]
  004d1	f3 0f 59 05 00
	00 00 00	 mulss	 xmm0, DWORD PTR __real@3c8efa35
  004d9	f3 0f 11 85 e8
	fe ff ff	 movss	 DWORD PTR __X$[ebp], xmm0
; File C:\Program Files (x86)\Windows Kits\10\Include\10.0.18362.0\ucrt\corecrt_math.h

; 649  :             return (float)cos(_X);

  004e1	f3 0f 5a 85 e8
	fe ff ff	 cvtss2sd xmm0, DWORD PTR __X$[ebp]
  004e9	51		 push	 ecx
  004ea	51		 push	 ecx
  004eb	f2 0f 11 04 24	 movsd	 QWORD PTR [esp], xmm0
  004f0	e8 00 00 00 00	 call	 _cos
  004f5	59		 pop	 ecx
  004f6	59		 pop	 ecx
  004f7	d9 9d d8 fe ff
	ff		 fstp	 DWORD PTR $T16[ebp]

; 750  :             return (float)sin(_X);

  004fd	f3 0f 5a 85 54
	ff ff ff	 cvtss2sd xmm0, DWORD PTR _angle$31[ebp]
  00505	51		 push	 ecx
  00506	51		 push	 ecx
  00507	f2 0f 11 04 24	 movsd	 QWORD PTR [esp], xmm0
  0050c	e8 00 00 00 00	 call	 _sin
  00511	59		 pop	 ecx
  00512	59		 pop	 ecx
  00513	d9 9d d4 fe ff
	ff		 fstp	 DWORD PTR $T15[ebp]
; File D:\Metin2 Server Files\mainline\SRC_2014\Metin2Client\GameLib\FlyingInstance.cpp

; 240  : 					D3DXVECTOR3 p(

  00519	8b 45 84	 mov	 eax, DWORD PTR _rfad$37[ebp]
  0051c	f3 0f 10 40 34	 movss	 xmm0, DWORD PTR [eax+52]
  00521	f3 0f 59 05 00
	00 00 00	 mulss	 xmm0, DWORD PTR __real@3c8efa35
  00529	f3 0f 11 85 e4
	fe ff ff	 movss	 DWORD PTR __X$[ebp], xmm0
; File C:\Program Files (x86)\Windows Kits\10\Include\10.0.18362.0\ucrt\corecrt_math.h

; 750  :             return (float)sin(_X);

  00531	f3 0f 5a 85 e4
	fe ff ff	 cvtss2sd xmm0, DWORD PTR __X$[ebp]
  00539	51		 push	 ecx
  0053a	51		 push	 ecx
  0053b	f2 0f 11 04 24	 movsd	 QWORD PTR [esp], xmm0
  00540	e8 00 00 00 00	 call	 _sin
  00545	59		 pop	 ecx
  00546	59		 pop	 ecx
  00547	d9 9d e0 fe ff
	ff		 fstp	 DWORD PTR $T18[ebp]
  0054d	f3 0f 5a 85 54
	ff ff ff	 cvtss2sd xmm0, DWORD PTR _angle$31[ebp]
  00555	51		 push	 ecx
  00556	51		 push	 ecx
  00557	f2 0f 11 04 24	 movsd	 QWORD PTR [esp], xmm0
  0055c	e8 00 00 00 00	 call	 _sin
  00561	59		 pop	 ecx
  00562	59		 pop	 ecx
  00563	d9 9d dc fe ff
	ff		 fstp	 DWORD PTR $T17[ebp]
; File D:\Metin2 Server Files\mainline\SRC_2014\Metin2Client\GameLib\FlyingInstance.cpp

; 240  : 					D3DXVECTOR3 p(

  00569	f3 0f 10 85 e0
	fe ff ff	 movss	 xmm0, DWORD PTR $T18[ebp]
  00571	0f 57 05 00 00
	00 00		 xorps	 xmm0, DWORD PTR __xmm@80000000800000008000000080000000
  00578	8b 45 84	 mov	 eax, DWORD PTR _rfad$37[ebp]
  0057b	f3 0f 59 40 40	 mulss	 xmm0, DWORD PTR [eax+64]
  00580	f3 0f 59 85 dc
	fe ff ff	 mulss	 xmm0, DWORD PTR $T17[ebp]
  00588	f3 0f 11 85 d0
	fe ff ff	 movss	 DWORD PTR _fx$[ebp], xmm0
  00590	f3 0f 10 85 d8
	fe ff ff	 movss	 xmm0, DWORD PTR $T16[ebp]
  00598	0f 57 05 00 00
	00 00		 xorps	 xmm0, DWORD PTR __xmm@80000000800000008000000080000000
  0059f	8b 45 84	 mov	 eax, DWORD PTR _rfad$37[ebp]
  005a2	f3 0f 59 40 40	 mulss	 xmm0, DWORD PTR [eax+64]
  005a7	f3 0f 59 85 d4
	fe ff ff	 mulss	 xmm0, DWORD PTR $T15[ebp]
  005af	f3 0f 11 85 cc
	fe ff ff	 movss	 DWORD PTR _fz$[ebp], xmm0
; File D:\Metin2 Server Files\mainline\SRC_2014\M2Data\include\d3dx8math.inl

; 180  :     x = fx;

  005b7	f3 0f 10 85 d0
	fe ff ff	 movss	 xmm0, DWORD PTR _fx$[ebp]
  005bf	f3 0f 11 45 e4	 movss	 DWORD PTR _p$41[ebp], xmm0

; 181  :     y = fy;

  005c4	0f 57 c0	 xorps	 xmm0, xmm0
  005c7	f3 0f 11 45 e8	 movss	 DWORD PTR _p$41[ebp+4], xmm0

; 182  :     z = fz;

  005cc	f3 0f 10 85 cc
	fe ff ff	 movss	 xmm0, DWORD PTR _fz$[ebp]
  005d4	f3 0f 11 45 ec	 movss	 DWORD PTR _p$41[ebp+8], xmm0
; File D:\Metin2 Server Files\mainline\SRC_2014\Metin2Client\GameLib\FlyingInstance.cpp

; 244  : 					Vec3TransformQuaternionSafe(&p,&p,&q);

  005d9	8d 85 40 ff ff
	ff		 lea	 eax, DWORD PTR _q$[ebp]
  005df	50		 push	 eax
  005e0	8d 45 e4	 lea	 eax, DWORD PTR _p$41[ebp]
  005e3	50		 push	 eax
  005e4	8d 45 e4	 lea	 eax, DWORD PTR _p$41[ebp]
  005e7	50		 push	 eax
  005e8	e8 00 00 00 00	 call	 ?Vec3TransformQuaternionSafe@@YAPAUD3DXVECTOR3@@PAU1@PBU1@PBUD3DXQUATERNION@@@Z ; Vec3TransformQuaternionSafe
  005ed	83 c4 0c	 add	 esp, 12			; 0000000cH

; 245  : 					//Vec3TransformQuaternionSafe(&p,&p,&m_qRot);
; 246  : 					p+=m_v3Position;

  005f0	8b 45 88	 mov	 eax, DWORD PTR _this$[ebp]
  005f3	83 c0 2c	 add	 eax, 44			; 0000002cH
  005f6	89 85 6c ff ff
	ff		 mov	 DWORD PTR _v$[ebp], eax
; File D:\Metin2 Server Files\mainline\SRC_2014\M2Data\include\d3dx8math.inl

; 204  :     x += v.x;

  005fc	8b 85 6c ff ff
	ff		 mov	 eax, DWORD PTR _v$[ebp]
  00602	f3 0f 10 45 e4	 movss	 xmm0, DWORD PTR _p$41[ebp]
  00607	f3 0f 58 00	 addss	 xmm0, DWORD PTR [eax]
  0060b	f3 0f 11 45 e4	 movss	 DWORD PTR _p$41[ebp], xmm0

; 205  :     y += v.y;

  00610	8b 85 6c ff ff
	ff		 mov	 eax, DWORD PTR _v$[ebp]
  00616	f3 0f 10 45 e8	 movss	 xmm0, DWORD PTR _p$41[ebp+4]
  0061b	f3 0f 58 40 04	 addss	 xmm0, DWORD PTR [eax+4]
  00620	f3 0f 11 45 e8	 movss	 DWORD PTR _p$41[ebp+4], xmm0

; 206  :     z += v.z;

  00625	8b 85 6c ff ff
	ff		 mov	 eax, DWORD PTR _v$[ebp]
  0062b	f3 0f 10 45 ec	 movss	 xmm0, DWORD PTR _p$41[ebp+8]
  00630	f3 0f 58 40 08	 addss	 xmm0, DWORD PTR [eax+8]
  00635	f3 0f 11 45 ec	 movss	 DWORD PTR _p$41[ebp+8], xmm0
; File D:\Metin2 Server Files\mainline\SRC_2014\Metin2Client\GameLib\FlyingInstance.cpp

; 247  : 					D3DXMatrixRotationQuaternion(&m,&q);

  0063a	8d 85 40 ff ff
	ff		 lea	 eax, DWORD PTR _q$[ebp]
  00640	50		 push	 eax
  00641	8d 45 8c	 lea	 eax, DWORD PTR _m$38[ebp]
  00644	50		 push	 eax
  00645	e8 00 00 00 00	 call	 _D3DXMatrixRotationQuaternion@8

; 248  : 					//D3DXMatrixRotationQuaternion(&m,&m_qRot);
; 249  : 					m._41=p.x;

  0064a	f3 0f 10 45 e4	 movss	 xmm0, DWORD PTR _p$41[ebp]
  0064f	f3 0f 11 45 bc	 movss	 DWORD PTR _m$38[ebp+48], xmm0

; 250  : 					m._42=p.y;

  00654	f3 0f 10 45 e8	 movss	 xmm0, DWORD PTR _p$41[ebp+4]
  00659	f3 0f 11 45 c0	 movss	 DWORD PTR _m$38[ebp+52], xmm0

; 251  : 					m._43=p.z;

  0065e	f3 0f 10 45 ec	 movss	 xmm0, DWORD PTR _p$41[ebp+8]
  00663	f3 0f 11 45 c4	 movss	 DWORD PTR _m$38[ebp+56], xmm0

; 252  : 					//assert(!"NOT IMPLEMENTED");
; 253  : 				}
; 254  : 				break;

  00668	e9 11 02 00 00	 jmp	 $LN5@UpdateAtta
$LN10@UpdateAtta:
; File D:\Metin2 Server Files\mainline\SRC_2014\Metin2Client\eterBase\Singleton.h

; 27   : 		return (*ms_singleton);

  0066d	a1 00 00 00 00	 mov	 eax, DWORD PTR ?ms_singleton@?$CSingleton@VCTimer@@@@0PAVCTimer@@A ; CSingleton<CTimer>::ms_singleton
  00672	89 85 c8 fe ff
	ff		 mov	 DWORD PTR $T14[ebp], eax
; File D:\Metin2 Server Files\mainline\SRC_2014\Metin2Client\GameLib\FlyingInstance.cpp

; 257  : 					float dt = CTimer::Instance().GetCurrentSecond() - m_fStartTime;

  00678	8b 8d c8 fe ff
	ff		 mov	 ecx, DWORD PTR $T14[ebp]
  0067e	e8 00 00 00 00	 call	 ?GetCurrentSecond@CTimer@@QAEMXZ ; CTimer::GetCurrentSecond
  00683	d9 9d c4 fe ff
	ff		 fstp	 DWORD PTR tv1803[ebp]
  00689	f3 0f 10 85 c4
	fe ff ff	 movss	 xmm0, DWORD PTR tv1803[ebp]
  00691	8b 45 88	 mov	 eax, DWORD PTR _this$[ebp]
  00694	f3 0f 5c 40 1c	 subss	 xmm0, DWORD PTR [eax+28]
  00699	f3 0f 11 85 c0
	fe ff ff	 movss	 DWORD PTR _dt$13[ebp], xmm0

; 258  : 					float angle = dt/rfad.fPeriod;

  006a1	8b 45 84	 mov	 eax, DWORD PTR _rfad$37[ebp]
  006a4	f3 0f 10 85 c0
	fe ff ff	 movss	 xmm0, DWORD PTR _dt$13[ebp]
  006ac	f3 0f 5e 40 3c	 divss	 xmm0, DWORD PTR [eax+60]
  006b1	f3 0f 11 85 74
	ff ff ff	 movss	 DWORD PTR _angle$34[ebp], xmm0

; 259  : 					D3DXVECTOR3 p(

  006b9	8b 45 84	 mov	 eax, DWORD PTR _rfad$37[ebp]
  006bc	f3 0f 10 40 34	 movss	 xmm0, DWORD PTR [eax+52]
  006c1	f3 0f 59 05 00
	00 00 00	 mulss	 xmm0, DWORD PTR __real@3c8efa35
  006c9	f3 0f 11 85 bc
	fe ff ff	 movss	 DWORD PTR __X$[ebp], xmm0
; File C:\Program Files (x86)\Windows Kits\10\Include\10.0.18362.0\ucrt\corecrt_math.h

; 649  :             return (float)cos(_X);

  006d1	f3 0f 5a 85 bc
	fe ff ff	 cvtss2sd xmm0, DWORD PTR __X$[ebp]
  006d9	51		 push	 ecx
  006da	51		 push	 ecx
  006db	f2 0f 11 04 24	 movsd	 QWORD PTR [esp], xmm0
  006e0	e8 00 00 00 00	 call	 _cos
  006e5	59		 pop	 ecx
  006e6	59		 pop	 ecx
  006e7	d9 9d 88 fe ff
	ff		 fstp	 DWORD PTR $T6[ebp]
; File D:\Metin2 Server Files\mainline\SRC_2014\Metin2Client\GameLib\FlyingInstance.cpp

; 259  : 					D3DXVECTOR3 p(

  006ed	f3 0f 10 85 74
	ff ff ff	 movss	 xmm0, DWORD PTR _angle$34[ebp]
  006f5	0f 57 05 00 00
	00 00		 xorps	 xmm0, DWORD PTR __xmm@80000000800000008000000080000000
; File C:\Program Files (x86)\Windows Kits\10\Include\10.0.18362.0\ucrt\corecrt_math.h

; 659  :             return (float)exp(_X);

  006fc	f3 0f 5a c0	 cvtss2sd xmm0, xmm0
  00700	51		 push	 ecx
  00701	51		 push	 ecx
  00702	f2 0f 11 04 24	 movsd	 QWORD PTR [esp], xmm0
  00707	e8 00 00 00 00	 call	 _exp
  0070c	59		 pop	 ecx
  0070d	59		 pop	 ecx
; File C:\Program Files (x86)\Microsoft Visual Studio\2019\Community\VC\Tools\MSVC\14.28.29333\include\cmath

; 83   :     return _CSTD expf(_Xx);

  0070e	d9 9d a8 fe ff
	ff		 fstp	 DWORD PTR $T9[ebp]
; File D:\Metin2 Server Files\mainline\SRC_2014\Metin2Client\GameLib\FlyingInstance.cpp

; 259  : 					D3DXVECTOR3 p(

  00714	8b 45 84	 mov	 eax, DWORD PTR _rfad$37[ebp]
  00717	f3 0f 10 40 34	 movss	 xmm0, DWORD PTR [eax+52]
  0071c	f3 0f 59 05 00
	00 00 00	 mulss	 xmm0, DWORD PTR __real@3c8efa35
  00724	f3 0f 11 85 b8
	fe ff ff	 movss	 DWORD PTR __X$[ebp], xmm0
; File C:\Program Files (x86)\Windows Kits\10\Include\10.0.18362.0\ucrt\corecrt_math.h

; 750  :             return (float)sin(_X);

  0072c	f3 0f 5a 85 b8
	fe ff ff	 cvtss2sd xmm0, DWORD PTR __X$[ebp]
  00734	51		 push	 ecx
  00735	51		 push	 ecx
  00736	f2 0f 11 04 24	 movsd	 QWORD PTR [esp], xmm0
  0073b	e8 00 00 00 00	 call	 _sin
  00740	59		 pop	 ecx
  00741	59		 pop	 ecx
  00742	d9 9d b4 fe ff
	ff		 fstp	 DWORD PTR $T12[ebp]
; File D:\Metin2 Server Files\mainline\SRC_2014\Metin2Client\GameLib\FlyingInstance.cpp

; 259  : 					D3DXVECTOR3 p(

  00748	f3 0f 10 85 74
	ff ff ff	 movss	 xmm0, DWORD PTR _angle$34[ebp]
  00750	0f 57 05 00 00
	00 00		 xorps	 xmm0, DWORD PTR __xmm@80000000800000008000000080000000
; File C:\Program Files (x86)\Windows Kits\10\Include\10.0.18362.0\ucrt\corecrt_math.h

; 659  :             return (float)exp(_X);

  00757	f3 0f 5a c0	 cvtss2sd xmm0, xmm0
  0075b	51		 push	 ecx
  0075c	51		 push	 ecx
  0075d	f2 0f 11 04 24	 movsd	 QWORD PTR [esp], xmm0
  00762	e8 00 00 00 00	 call	 _exp
  00767	59		 pop	 ecx
  00768	59		 pop	 ecx
; File C:\Program Files (x86)\Microsoft Visual Studio\2019\Community\VC\Tools\MSVC\14.28.29333\include\cmath

; 83   :     return _CSTD expf(_Xx);

  00769	d9 9d b0 fe ff
	ff		 fstp	 DWORD PTR $T11[ebp]
; File D:\Metin2 Server Files\mainline\SRC_2014\Metin2Client\GameLib\FlyingInstance.cpp

; 259  : 					D3DXVECTOR3 p(

  0076f	f3 0f 10 85 b4
	fe ff ff	 movss	 xmm0, DWORD PTR $T12[ebp]
  00777	0f 57 05 00 00
	00 00		 xorps	 xmm0, DWORD PTR __xmm@80000000800000008000000080000000
  0077e	8b 45 84	 mov	 eax, DWORD PTR _rfad$37[ebp]
  00781	f3 0f 59 40 40	 mulss	 xmm0, DWORD PTR [eax+64]
  00786	f3 0f 59 85 b0
	fe ff ff	 mulss	 xmm0, DWORD PTR $T11[ebp]
  0078e	f3 0f 59 85 74
	ff ff ff	 mulss	 xmm0, DWORD PTR _angle$34[ebp]
  00796	f3 0f 11 85 a4
	fe ff ff	 movss	 DWORD PTR _fx$[ebp], xmm0
  0079e	f3 0f 10 85 88
	fe ff ff	 movss	 xmm0, DWORD PTR $T6[ebp]
  007a6	0f 57 05 00 00
	00 00		 xorps	 xmm0, DWORD PTR __xmm@80000000800000008000000080000000
  007ad	8b 45 84	 mov	 eax, DWORD PTR _rfad$37[ebp]
  007b0	f3 0f 59 40 40	 mulss	 xmm0, DWORD PTR [eax+64]
  007b5	f3 0f 59 85 a8
	fe ff ff	 mulss	 xmm0, DWORD PTR $T9[ebp]
  007bd	f3 0f 59 85 74
	ff ff ff	 mulss	 xmm0, DWORD PTR _angle$34[ebp]
  007c5	f3 0f 11 85 a0
	fe ff ff	 movss	 DWORD PTR _fz$[ebp], xmm0
; File D:\Metin2 Server Files\mainline\SRC_2014\M2Data\include\d3dx8math.inl

; 180  :     x = fx;

  007cd	f3 0f 10 85 a4
	fe ff ff	 movss	 xmm0, DWORD PTR _fx$[ebp]
  007d5	f3 0f 11 45 d8	 movss	 DWORD PTR _p$40[ebp], xmm0

; 181  :     y = fy;

  007da	0f 57 c0	 xorps	 xmm0, xmm0
  007dd	f3 0f 11 45 dc	 movss	 DWORD PTR _p$40[ebp+4], xmm0

; 182  :     z = fz;

  007e2	f3 0f 10 85 a0
	fe ff ff	 movss	 xmm0, DWORD PTR _fz$[ebp]
  007ea	f3 0f 11 45 e0	 movss	 DWORD PTR _p$40[ebp+8], xmm0
; File D:\Metin2 Server Files\mainline\SRC_2014\Metin2Client\GameLib\FlyingInstance.cpp

; 264  : 					Vec3TransformQuaternionSafe(&p,&p,&q);

  007ef	8d 85 40 ff ff
	ff		 lea	 eax, DWORD PTR _q$[ebp]
  007f5	50		 push	 eax
  007f6	8d 45 d8	 lea	 eax, DWORD PTR _p$40[ebp]
  007f9	50		 push	 eax
  007fa	8d 45 d8	 lea	 eax, DWORD PTR _p$40[ebp]
  007fd	50		 push	 eax
  007fe	e8 00 00 00 00	 call	 ?Vec3TransformQuaternionSafe@@YAPAUD3DXVECTOR3@@PAU1@PBU1@PBUD3DXQUATERNION@@@Z ; Vec3TransformQuaternionSafe
  00803	83 c4 0c	 add	 esp, 12			; 0000000cH

; 265  : 					p+=m_v3Position;

  00806	8b 45 88	 mov	 eax, DWORD PTR _this$[ebp]
  00809	83 c0 2c	 add	 eax, 44			; 0000002cH
  0080c	89 85 68 ff ff
	ff		 mov	 DWORD PTR _v$[ebp], eax
; File D:\Metin2 Server Files\mainline\SRC_2014\M2Data\include\d3dx8math.inl

; 204  :     x += v.x;

  00812	8b 85 68 ff ff
	ff		 mov	 eax, DWORD PTR _v$[ebp]
  00818	f3 0f 10 45 d8	 movss	 xmm0, DWORD PTR _p$40[ebp]
  0081d	f3 0f 58 00	 addss	 xmm0, DWORD PTR [eax]
  00821	f3 0f 11 45 d8	 movss	 DWORD PTR _p$40[ebp], xmm0

; 205  :     y += v.y;

  00826	8b 85 68 ff ff
	ff		 mov	 eax, DWORD PTR _v$[ebp]
  0082c	f3 0f 10 45 dc	 movss	 xmm0, DWORD PTR _p$40[ebp+4]
  00831	f3 0f 58 40 04	 addss	 xmm0, DWORD PTR [eax+4]
  00836	f3 0f 11 45 dc	 movss	 DWORD PTR _p$40[ebp+4], xmm0

; 206  :     z += v.z;

  0083b	8b 85 68 ff ff
	ff		 mov	 eax, DWORD PTR _v$[ebp]
  00841	f3 0f 10 45 e0	 movss	 xmm0, DWORD PTR _p$40[ebp+8]
  00846	f3 0f 58 40 08	 addss	 xmm0, DWORD PTR [eax+8]
  0084b	f3 0f 11 45 e0	 movss	 DWORD PTR _p$40[ebp+8], xmm0
; File D:\Metin2 Server Files\mainline\SRC_2014\Metin2Client\GameLib\FlyingInstance.cpp

; 266  : 					D3DXMatrixRotationQuaternion(&m,&q);

  00850	8d 85 40 ff ff
	ff		 lea	 eax, DWORD PTR _q$[ebp]
  00856	50		 push	 eax
  00857	8d 45 8c	 lea	 eax, DWORD PTR _m$38[ebp]
  0085a	50		 push	 eax
  0085b	e8 00 00 00 00	 call	 _D3DXMatrixRotationQuaternion@8

; 267  : 					//D3DXMatrixRotationQuaternion(&m,&m_qRot);
; 268  : 					m._41=p.x;

  00860	f3 0f 10 45 d8	 movss	 xmm0, DWORD PTR _p$40[ebp]
  00865	f3 0f 11 45 bc	 movss	 DWORD PTR _m$38[ebp+48], xmm0

; 269  : 					m._42=p.y;

  0086a	f3 0f 10 45 dc	 movss	 xmm0, DWORD PTR _p$40[ebp+4]
  0086f	f3 0f 11 45 c0	 movss	 DWORD PTR _m$38[ebp+52], xmm0

; 270  : 					m._43=p.z;

  00874	f3 0f 10 45 e0	 movss	 xmm0, DWORD PTR _p$40[ebp+8]
  00879	f3 0f 11 45 c4	 movss	 DWORD PTR _m$38[ebp+56], xmm0
$LN5@UpdateAtta:

; 271  : 					//assert(!"NOT IMPLEMENTED");
; 272  : 				}
; 273  : 				break;
; 274  : 		}
; 275  : 		rem.SetEffectInstanceGlobalMatrix(m);

  0087e	8d 45 8c	 lea	 eax, DWORD PTR _m$38[ebp]
  00881	50		 push	 eax
  00882	8b 8d 50 ff ff
	ff		 mov	 ecx, DWORD PTR _rem$[ebp]
  00888	e8 00 00 00 00	 call	 ?SetEffectInstanceGlobalMatrix@CEffectManager@@QAEXABUD3DXMATRIX@@@Z ; CEffectManager::SetEffectInstanceGlobalMatrix
; File C:\Program Files (x86)\Microsoft Visual Studio\2019\Community\VC\Tools\MSVC\14.28.29333\include\vector

; 65   :         return _Ptr;

  0088d	8b 45 80	 mov	 eax, DWORD PTR _it$[ebp]
  00890	89 85 9c fe ff
	ff		 mov	 DWORD PTR $T8[ebp], eax

; 256  :         return _Const_cast(_Mybase::operator->());

  00896	ff b5 9c fe ff
	ff		 push	 DWORD PTR $T8[ebp]
  0089c	e8 00 00 00 00	 call	 ??$_Const_cast@$$CBUTAttachEffectInstance@CFlyingInstance@@@std@@YAPAUTAttachEffectInstance@CFlyingInstance@@PBU12@@Z ; std::_Const_cast<CFlyingInstance::TAttachEffectInstance const >
  008a1	59		 pop	 ecx
  008a2	89 85 98 fe ff
	ff		 mov	 DWORD PTR $T7[ebp], eax
; File D:\Metin2 Server Files\mainline\SRC_2014\Metin2Client\GameLib\FlyingInstance.cpp

; 276  : 		if (it->pFlyTrace)

  008a8	8b 85 98 fe ff
	ff		 mov	 eax, DWORD PTR $T7[ebp]
  008ae	83 78 08 00	 cmp	 DWORD PTR [eax+8], 0
  008b2	74 7b		 je	 SHORT $LN11@UpdateAtta

; 277  : 			it->pFlyTrace->UpdateNewPosition(D3DXVECTOR3(m._41,m._42,m._43));

  008b4	f3 0f 10 45 bc	 movss	 xmm0, DWORD PTR _m$38[ebp+48]
  008b9	f3 0f 11 85 94
	fe ff ff	 movss	 DWORD PTR _fx$[ebp], xmm0
  008c1	f3 0f 10 45 c0	 movss	 xmm0, DWORD PTR _m$38[ebp+52]
  008c6	f3 0f 11 85 90
	fe ff ff	 movss	 DWORD PTR _fy$[ebp], xmm0
  008ce	f3 0f 10 45 c4	 movss	 xmm0, DWORD PTR _m$38[ebp+56]
  008d3	f3 0f 11 85 8c
	fe ff ff	 movss	 DWORD PTR _fz$[ebp], xmm0
; File D:\Metin2 Server Files\mainline\SRC_2014\M2Data\include\d3dx8math.inl

; 180  :     x = fx;

  008db	f3 0f 10 85 94
	fe ff ff	 movss	 xmm0, DWORD PTR _fx$[ebp]
  008e3	f3 0f 11 45 cc	 movss	 DWORD PTR $T39[ebp], xmm0

; 181  :     y = fy;

  008e8	f3 0f 10 85 90
	fe ff ff	 movss	 xmm0, DWORD PTR _fy$[ebp]
  008f0	f3 0f 11 45 d0	 movss	 DWORD PTR $T39[ebp+4], xmm0

; 182  :     z = fz;

  008f5	f3 0f 10 85 8c
	fe ff ff	 movss	 xmm0, DWORD PTR _fz$[ebp]
  008fd	f3 0f 11 45 d4	 movss	 DWORD PTR $T39[ebp+8], xmm0
; File C:\Program Files (x86)\Microsoft Visual Studio\2019\Community\VC\Tools\MSVC\14.28.29333\include\vector

; 65   :         return _Ptr;

  00902	8b 45 80	 mov	 eax, DWORD PTR _it$[ebp]
  00905	89 85 6c fe ff
	ff		 mov	 DWORD PTR $T3[ebp], eax

; 256  :         return _Const_cast(_Mybase::operator->());

  0090b	ff b5 6c fe ff
	ff		 push	 DWORD PTR $T3[ebp]
  00911	e8 00 00 00 00	 call	 ??$_Const_cast@$$CBUTAttachEffectInstance@CFlyingInstance@@@std@@YAPAUTAttachEffectInstance@CFlyingInstance@@PBU12@@Z ; std::_Const_cast<CFlyingInstance::TAttachEffectInstance const >
  00916	59		 pop	 ecx
  00917	89 85 84 fe ff
	ff		 mov	 DWORD PTR $T5[ebp], eax
; File D:\Metin2 Server Files\mainline\SRC_2014\Metin2Client\GameLib\FlyingInstance.cpp

; 277  : 			it->pFlyTrace->UpdateNewPosition(D3DXVECTOR3(m._41,m._42,m._43));

  0091d	8d 45 cc	 lea	 eax, DWORD PTR $T39[ebp]
  00920	50		 push	 eax
  00921	8b 85 84 fe ff
	ff		 mov	 eax, DWORD PTR $T5[ebp]
  00927	8b 48 08	 mov	 ecx, DWORD PTR [eax+8]
  0092a	e8 00 00 00 00	 call	 ?UpdateNewPosition@CFlyTrace@@QAEXABUD3DXVECTOR3@@@Z ; CFlyTrace::UpdateNewPosition
$LN11@UpdateAtta:

; 278  : 	}

  0092f	e9 65 f8 ff ff	 jmp	 $LN2@UpdateAtta
$LN3@UpdateAtta:

; 279  : }

  00934	8b 4d fc	 mov	 ecx, DWORD PTR __$ArrayPad$[ebp]
  00937	33 cd		 xor	 ecx, ebp
  00939	e8 00 00 00 00	 call	 @__security_check_cookie@4
  0093e	c9		 leave
  0093f	c3		 ret	 0
?UpdateAttachInstance@CFlyingInstance@@QAEXXZ ENDP	; CFlyingInstance::UpdateAttachInstance
_TEXT	ENDS
; Function compile flags: /Odspy
; File D:\Metin2 Server Files\mainline\SRC_2014\Metin2Client\GameLib\FlyingInstance.cpp
; File C:\Program Files (x86)\Microsoft Visual Studio\2019\Community\VC\Tools\MSVC\14.28.29333\include\vector
; File D:\Metin2 Server Files\mainline\SRC_2014\Metin2Client\GameLib\FlyingInstance.cpp
; File C:\Program Files (x86)\Microsoft Visual Studio\2019\Community\VC\Tools\MSVC\14.28.29333\include\xstring
; File D:\Metin2 Server Files\mainline\SRC_2014\Metin2Client\GameLib\FlyingInstance.cpp
; File C:\Program Files (x86)\Microsoft Visual Studio\2019\Community\VC\Tools\MSVC\14.28.29333\include\vector
; File D:\Metin2 Server Files\mainline\SRC_2014\Metin2Client\GameLib\FlyingInstance.cpp
; File C:\Program Files (x86)\Microsoft Visual Studio\2019\Community\VC\Tools\MSVC\14.28.29333\include\vector
; File D:\Metin2 Server Files\mainline\SRC_2014\Metin2Client\GameLib\FlyingInstance.cpp
;	COMDAT ?BuildAttachInstance@CFlyingInstance@@QAEXXZ
_TEXT	SEGMENT
_aei$1 = -52						; size = 12
_dwCRC$2 = -40						; size = 4
$T3 = -36						; size = 4
tv74 = -32						; size = 4
$T4 = -28						; size = 4
_this$ = -24						; size = 4
_rem$5 = -20						; size = 4
__My_data$6 = -16					; size = 4
_this$ = -12						; size = 4
_rfad$7 = -8						; size = 4
_i$8 = -4						; size = 4
?BuildAttachInstance@CFlyingInstance@@QAEXXZ PROC	; CFlyingInstance::BuildAttachInstance, COMDAT
; _this$ = ecx

; 65   : {

  00000	55		 push	 ebp
  00001	8b ec		 mov	 ebp, esp
  00003	83 ec 34	 sub	 esp, 52			; 00000034H
  00006	89 4d f4	 mov	 DWORD PTR _this$[ebp], ecx

; 66   : 	for(int i=0;i<m_pData->GetAttachDataCount();i++)

  00009	83 65 fc 00	 and	 DWORD PTR _i$8[ebp], 0
  0000d	eb 07		 jmp	 SHORT $LN4@BuildAttac
$LN2@BuildAttac:
  0000f	8b 45 fc	 mov	 eax, DWORD PTR _i$8[ebp]
  00012	40		 inc	 eax
  00013	89 45 fc	 mov	 DWORD PTR _i$8[ebp], eax
$LN4@BuildAttac:
  00016	8b 45 f4	 mov	 eax, DWORD PTR _this$[ebp]
  00019	8b 40 08	 mov	 eax, DWORD PTR [eax+8]
  0001c	89 45 e8	 mov	 DWORD PTR _this$[ebp], eax
; File C:\Program Files (x86)\Microsoft Visual Studio\2019\Community\VC\Tools\MSVC\14.28.29333\include\vector

; 1483 :         auto& _My_data = _Mypair._Myval2;

  0001f	8b 45 e8	 mov	 eax, DWORD PTR _this$[ebp]
  00022	05 84 00 00 00	 add	 eax, 132		; 00000084H
  00027	89 45 f0	 mov	 DWORD PTR __My_data$6[ebp], eax

; 1484 :         return static_cast<size_type>(_My_data._Mylast - _My_data._Myfirst);

  0002a	8b 45 f0	 mov	 eax, DWORD PTR __My_data$6[ebp]
  0002d	8b 4d f0	 mov	 ecx, DWORD PTR __My_data$6[ebp]
  00030	8b 40 04	 mov	 eax, DWORD PTR [eax+4]
  00033	2b 01		 sub	 eax, DWORD PTR [ecx]
  00035	99		 cdq
  00036	6a 44		 push	 68			; 00000044H
  00038	59		 pop	 ecx
  00039	f7 f9		 idiv	 ecx
  0003b	89 45 e4	 mov	 DWORD PTR $T4[ebp], eax
; File D:\Metin2 Server Files\mainline\SRC_2014\Metin2Client\GameLib\FlyingInstance.cpp

; 66   : 	for(int i=0;i<m_pData->GetAttachDataCount();i++)

  0003e	8b 45 fc	 mov	 eax, DWORD PTR _i$8[ebp]
  00041	3b 45 e4	 cmp	 eax, DWORD PTR $T4[ebp]
  00044	0f 8d a5 00 00
	00		 jge	 $LN1@BuildAttac

; 67   : 	{
; 68   : 		CFlyingData::TFlyingAttachData & rfad = m_pData->GetAttachDataReference(i);

  0004a	ff 75 fc	 push	 DWORD PTR _i$8[ebp]
  0004d	8b 45 f4	 mov	 eax, DWORD PTR _this$[ebp]
  00050	8b 48 08	 mov	 ecx, DWORD PTR [eax+8]
  00053	e8 00 00 00 00	 call	 ?GetAttachDataReference@CFlyingData@@QAEAAUTFlyingAttachData@1@H@Z ; CFlyingData::GetAttachDataReference
  00058	89 45 f8	 mov	 DWORD PTR _rfad$7[ebp], eax

; 69   : 
; 70   : 		switch(rfad.iType)

  0005b	8b 45 f8	 mov	 eax, DWORD PTR _rfad$7[ebp]
  0005e	8b 00		 mov	 eax, DWORD PTR [eax]
  00060	89 45 e0	 mov	 DWORD PTR tv74[ebp], eax
  00063	83 7d e0 01	 cmp	 DWORD PTR tv74[ebp], 1
  00067	74 04		 je	 SHORT $LN16@BuildAttac
  00069	eb 7f		 jmp	 SHORT $LN5@BuildAttac

; 71   : 		{
; 72   : 			case CFlyingData::FLY_ATTACH_OBJECT:
; 73   : 				// NOT Implemented
; 74   : 				assert(!"FlyingInstance.cpp:BuildAttachInstance Not implemented FLY_ATTACH_OBJECT");
; 75   : 				break;

  0006b	eb 7d		 jmp	 SHORT $LN5@BuildAttac
$LN16@BuildAttac:

; 76   : 			case CFlyingData::FLY_ATTACH_EFFECT:
; 77   : 				{
; 78   : 					CEffectManager & rem = CEffectManager::Instance();

  0006d	a1 00 00 00 00	 mov	 eax, DWORD PTR ?ms_singleton@?$CSingleton@VCEffectManager@@@@0PAVCEffectManager@@A ; CSingleton<CEffectManager>::ms_singleton
  00072	89 45 ec	 mov	 DWORD PTR _rem$5[ebp], eax
; File C:\Program Files (x86)\Microsoft Visual Studio\2019\Community\VC\Tools\MSVC\14.28.29333\include\xstring

; 3770 :         return _Mypair._Myval2._Mysize;

  00075	8b 45 f8	 mov	 eax, DWORD PTR _rfad$7[ebp]
  00078	8b 40 18	 mov	 eax, DWORD PTR [eax+24]
  0007b	89 45 dc	 mov	 DWORD PTR $T3[ebp], eax
; File D:\Metin2 Server Files\mainline\SRC_2014\Metin2Client\GameLib\FlyingInstance.cpp

; 81   : 					DWORD dwCRC = GetCaseCRC32(rfad.strFilename.c_str(),rfad.strFilename.size());

  0007e	ff 75 dc	 push	 DWORD PTR $T3[ebp]
  00081	8b 4d f8	 mov	 ecx, DWORD PTR _rfad$7[ebp]
  00084	83 c1 08	 add	 ecx, 8
  00087	e8 00 00 00 00	 call	 ?c_str@?$basic_string@DU?$char_traits@D@std@@V?$allocator@D@2@@std@@QBEPBDXZ ; std::basic_string<char,std::char_traits<char>,std::allocator<char> >::c_str
  0008c	50		 push	 eax
  0008d	e8 00 00 00 00	 call	 ?GetCaseCRC32@@YAKPBDI@Z ; GetCaseCRC32
  00092	59		 pop	 ecx
  00093	59		 pop	 ecx
  00094	89 45 d8	 mov	 DWORD PTR _dwCRC$2[ebp], eax

; 82   : 
; 83   : 					aei.iAttachIndex = i;

  00097	8b 45 fc	 mov	 eax, DWORD PTR _i$8[ebp]
  0009a	89 45 cc	 mov	 DWORD PTR _aei$1[ebp], eax

; 84   : 					aei.dwEffectInstanceIndex = rem.GetEmptyIndex();

  0009d	8b 4d ec	 mov	 ecx, DWORD PTR _rem$5[ebp]
  000a0	e8 00 00 00 00	 call	 ?GetEmptyIndex@CEffectManager@@QAEHXZ ; CEffectManager::GetEmptyIndex
  000a5	89 45 d0	 mov	 DWORD PTR _aei$1[ebp+4], eax

; 85   : 
; 86   : 					aei.pFlyTrace = NULL;

  000a8	83 65 d4 00	 and	 DWORD PTR _aei$1[ebp+8], 0

; 87   : 					if (rfad.bHasTail)

  000ac	8b 45 f8	 mov	 eax, DWORD PTR _rfad$7[ebp]
  000af	0f b6 40 20	 movzx	 eax, BYTE PTR [eax+32]
  000b3	85 c0		 test	 eax, eax
  000b5	74 13		 je	 SHORT $LN9@BuildAttac

; 88   : 					{
; 89   : 						aei.pFlyTrace = CFlyTrace::New();

  000b7	e8 00 00 00 00	 call	 ?New@CFlyTrace@@SAPAV1@XZ ; CFlyTrace::New
  000bc	89 45 d4	 mov	 DWORD PTR _aei$1[ebp+8], eax

; 90   : 						aei.pFlyTrace->Create(rfad);

  000bf	ff 75 f8	 push	 DWORD PTR _rfad$7[ebp]
  000c2	8b 4d d4	 mov	 ecx, DWORD PTR _aei$1[ebp+8]
  000c5	e8 00 00 00 00	 call	 ?Create@CFlyTrace@@QAEXABUTFlyingAttachData@CFlyingData@@@Z ; CFlyTrace::Create
$LN9@BuildAttac:

; 91   : 					}
; 92   : 					rem.CreateEffectInstance(aei.dwEffectInstanceIndex,dwCRC);

  000ca	ff 75 d8	 push	 DWORD PTR _dwCRC$2[ebp]
  000cd	ff 75 d0	 push	 DWORD PTR _aei$1[ebp+4]
  000d0	8b 4d ec	 mov	 ecx, DWORD PTR _rem$5[ebp]
  000d3	e8 00 00 00 00	 call	 ?CreateEffectInstance@CEffectManager@@QAEXKK@Z ; CEffectManager::CreateEffectInstance
; File C:\Program Files (x86)\Microsoft Visual Studio\2019\Community\VC\Tools\MSVC\14.28.29333\include\vector

; 717  :         emplace_back(_Val);

  000d8	8d 45 cc	 lea	 eax, DWORD PTR _aei$1[ebp]
  000db	50		 push	 eax
; File D:\Metin2 Server Files\mainline\SRC_2014\Metin2Client\GameLib\FlyingInstance.cpp

; 94   : 					m_vecAttachEffectInstance.push_back(aei);

  000dc	8b 4d f4	 mov	 ecx, DWORD PTR _this$[ebp]
  000df	81 c1 88 00 00
	00		 add	 ecx, 136		; 00000088H
; File C:\Program Files (x86)\Microsoft Visual Studio\2019\Community\VC\Tools\MSVC\14.28.29333\include\vector

; 717  :         emplace_back(_Val);

  000e5	e8 00 00 00 00	 call	 ??$emplace_back@ABUTAttachEffectInstance@CFlyingInstance@@@?$vector@UTAttachEffectInstance@CFlyingInstance@@V?$allocator@UTAttachEffectInstance@CFlyingInstance@@@std@@@std@@QAEXABUTAttachEffectInstance@CFlyingInstance@@@Z ; std::vector<CFlyingInstance::TAttachEffectInstance,std::allocator<CFlyingInstance::TAttachEffectInstance> >::emplace_back<CFlyingInstance::TAttachEffectInstance const &>
$LN5@BuildAttac:
; File D:\Metin2 Server Files\mainline\SRC_2014\Metin2Client\GameLib\FlyingInstance.cpp

; 98   : 	}

  000ea	e9 20 ff ff ff	 jmp	 $LN2@BuildAttac
$LN1@BuildAttac:

; 99   : }

  000ef	c9		 leave
  000f0	c3		 ret	 0
?BuildAttachInstance@CFlyingInstance@@QAEXXZ ENDP	; CFlyingInstance::BuildAttachInstance
_TEXT	ENDS
; Function compile flags: /Odspy
; File D:\Metin2 Server Files\mainline\SRC_2014\Metin2Client\GameLib\FlyingInstance.cpp
; File D:\Metin2 Server Files\mainline\SRC_2014\M2Data\include\d3dx8math.inl
; File D:\Metin2 Server Files\mainline\SRC_2014\Metin2Client\GameLib\FlyingInstance.cpp
; File D:\Metin2 Server Files\mainline\SRC_2014\M2Data\include\d3dx8math.inl
; File D:\Metin2 Server Files\mainline\SRC_2014\Metin2Client\GameLib\FlyingInstance.cpp
; File C:\Program Files (x86)\Windows Kits\10\Include\10.0.18362.0\ucrt\corecrt_math.h
; File D:\Metin2 Server Files\mainline\SRC_2014\Metin2Client\GameLib\FlyingInstance.cpp
; File C:\Program Files (x86)\Windows Kits\10\Include\10.0.18362.0\ucrt\corecrt_math.h
; File D:\Metin2 Server Files\mainline\SRC_2014\Metin2Client\GameLib\FlyingInstance.cpp
; File C:\Program Files (x86)\Windows Kits\10\Include\10.0.18362.0\ucrt\corecrt_math.h
; File D:\Metin2 Server Files\mainline\SRC_2014\Metin2Client\GameLib\FlyingInstance.cpp
;	COMDAT ?AdjustDirectionForHoming@CFlyingInstance@@QAEXABUD3DXVECTOR3@@@Z
_TEXT	SEGMENT
tv1184 = -108						; size = 4
tv1189 = -104						; size = 4
__X$ = -100						; size = 4
__X$ = -96						; size = 4
__X$ = -92						; size = 4
_fz$ = -88						; size = 4
_fy$ = -84						; size = 4
_fx$ = -80						; size = 4
_s$ = -76						; size = 4
_c$ = -72						; size = 4
_factor$1 = -68						; size = 4
_v$ = -64						; size = 4
_q$ = -60						; size = 16
_this$ = -44						; size = 4
_vVel$ = -40						; size = 12
$T2 = -28						; size = 12
_vTargetDir$ = -16					; size = 12
__$ArrayPad$ = -4					; size = 4
_v3TargetPosition$ = 8					; size = 4
?AdjustDirectionForHoming@CFlyingInstance@@QAEXABUD3DXVECTOR3@@@Z PROC ; CFlyingInstance::AdjustDirectionForHoming, COMDAT
; _this$ = ecx

; 145  : {

  00000	55		 push	 ebp
  00001	8b ec		 mov	 ebp, esp
  00003	83 ec 6c	 sub	 esp, 108		; 0000006cH
  00006	a1 00 00 00 00	 mov	 eax, DWORD PTR ___security_cookie
  0000b	33 c5		 xor	 eax, ebp
  0000d	89 45 fc	 mov	 DWORD PTR __$ArrayPad$[ebp], eax
  00010	56		 push	 esi
  00011	57		 push	 edi
  00012	89 4d d4	 mov	 DWORD PTR _this$[ebp], ecx

; 146  : 	D3DXVECTOR3 vTargetDir(v3TargetPosition);

  00015	8b 75 08	 mov	 esi, DWORD PTR _v3TargetPosition$[ebp]
  00018	8d 7d f0	 lea	 edi, DWORD PTR _vTargetDir$[ebp]
  0001b	a5		 movsd
  0001c	a5		 movsd
  0001d	a5		 movsd

; 147  : 	vTargetDir -= m_v3Position;

  0001e	8b 45 d4	 mov	 eax, DWORD PTR _this$[ebp]
  00021	83 c0 2c	 add	 eax, 44			; 0000002cH
  00024	89 45 c0	 mov	 DWORD PTR _v$[ebp], eax
; File D:\Metin2 Server Files\mainline\SRC_2014\M2Data\include\d3dx8math.inl

; 213  :     x -= v.x;

  00027	8b 45 c0	 mov	 eax, DWORD PTR _v$[ebp]
  0002a	f3 0f 10 45 f0	 movss	 xmm0, DWORD PTR _vTargetDir$[ebp]
  0002f	f3 0f 5c 00	 subss	 xmm0, DWORD PTR [eax]
  00033	f3 0f 11 45 f0	 movss	 DWORD PTR _vTargetDir$[ebp], xmm0

; 214  :     y -= v.y;

  00038	8b 45 c0	 mov	 eax, DWORD PTR _v$[ebp]
  0003b	f3 0f 10 45 f4	 movss	 xmm0, DWORD PTR _vTargetDir$[ebp+4]
  00040	f3 0f 5c 40 04	 subss	 xmm0, DWORD PTR [eax+4]
  00045	f3 0f 11 45 f4	 movss	 DWORD PTR _vTargetDir$[ebp+4], xmm0

; 215  :     z -= v.z;

  0004a	8b 45 c0	 mov	 eax, DWORD PTR _v$[ebp]
  0004d	f3 0f 10 45 f8	 movss	 xmm0, DWORD PTR _vTargetDir$[ebp+8]
  00052	f3 0f 5c 40 08	 subss	 xmm0, DWORD PTR [eax+8]
  00057	f3 0f 11 45 f8	 movss	 DWORD PTR _vTargetDir$[ebp+8], xmm0
; File D:\Metin2 Server Files\mainline\SRC_2014\Metin2Client\GameLib\FlyingInstance.cpp

; 148  : 	D3DXVec3Normalize(&vTargetDir,&vTargetDir);

  0005c	8d 45 f0	 lea	 eax, DWORD PTR _vTargetDir$[ebp]
  0005f	50		 push	 eax
  00060	8d 45 f0	 lea	 eax, DWORD PTR _vTargetDir$[ebp]
  00063	50		 push	 eax
  00064	e8 00 00 00 00	 call	 _D3DXVec3Normalize@8

; 149  : 	D3DXVECTOR3 vVel;
; 150  : 	D3DXVec3Normalize(&vVel, &m_v3Velocity);

  00069	8b 45 d4	 mov	 eax, DWORD PTR _this$[ebp]
  0006c	83 c0 38	 add	 eax, 56			; 00000038H
  0006f	50		 push	 eax
  00070	8d 45 d8	 lea	 eax, DWORD PTR _vVel$[ebp]
  00073	50		 push	 eax
  00074	e8 00 00 00 00	 call	 _D3DXVec3Normalize@8
; File D:\Metin2 Server Files\mainline\SRC_2014\M2Data\include\d3dx8math.inl

; 263  :     return D3DXVECTOR3(x - v.x, y - v.y, z - v.z);

  00079	f3 0f 10 45 d8	 movss	 xmm0, DWORD PTR _vVel$[ebp]
  0007e	f3 0f 5c 45 f0	 subss	 xmm0, DWORD PTR _vTargetDir$[ebp]
  00083	f3 0f 11 45 b0	 movss	 DWORD PTR _fx$[ebp], xmm0
  00088	f3 0f 10 45 dc	 movss	 xmm0, DWORD PTR _vVel$[ebp+4]
  0008d	f3 0f 5c 45 f4	 subss	 xmm0, DWORD PTR _vTargetDir$[ebp+4]
  00092	f3 0f 11 45 ac	 movss	 DWORD PTR _fy$[ebp], xmm0
  00097	f3 0f 10 45 e0	 movss	 xmm0, DWORD PTR _vVel$[ebp+8]
  0009c	f3 0f 5c 45 f8	 subss	 xmm0, DWORD PTR _vTargetDir$[ebp+8]
  000a1	f3 0f 11 45 a8	 movss	 DWORD PTR _fz$[ebp], xmm0

; 180  :     x = fx;

  000a6	f3 0f 10 45 b0	 movss	 xmm0, DWORD PTR _fx$[ebp]
  000ab	f3 0f 11 45 e4	 movss	 DWORD PTR $T2[ebp], xmm0

; 181  :     y = fy;

  000b0	f3 0f 10 45 ac	 movss	 xmm0, DWORD PTR _fy$[ebp]
  000b5	f3 0f 11 45 e8	 movss	 DWORD PTR $T2[ebp+4], xmm0

; 182  :     z = fz;

  000ba	f3 0f 10 45 a8	 movss	 xmm0, DWORD PTR _fz$[ebp]
  000bf	f3 0f 11 45 ec	 movss	 DWORD PTR $T2[ebp+8], xmm0

; 1253 :     return pV->x * pV->x + pV->y * pV->y + pV->z * pV->z;

  000c4	f3 0f 10 45 ec	 movss	 xmm0, DWORD PTR $T2[ebp+8]
  000c9	f3 0f 59 45 ec	 mulss	 xmm0, DWORD PTR $T2[ebp+8]
  000ce	f3 0f 10 4d e8	 movss	 xmm1, DWORD PTR $T2[ebp+4]
  000d3	f3 0f 59 4d e8	 mulss	 xmm1, DWORD PTR $T2[ebp+4]
  000d8	f3 0f 10 55 e4	 movss	 xmm2, DWORD PTR $T2[ebp]
  000dd	f3 0f 59 55 e4	 mulss	 xmm2, DWORD PTR $T2[ebp]
  000e2	f3 0f 58 d1	 addss	 xmm2, xmm1
  000e6	f3 0f 58 d0	 addss	 xmm2, xmm0
; File D:\Metin2 Server Files\mainline\SRC_2014\Metin2Client\GameLib\FlyingInstance.cpp

; 152  : 	if (D3DXVec3LengthSq(&(vVel - vTargetDir)) < 0.001f)

  000ea	f3 0f 10 05 00
	00 00 00	 movss	 xmm0, DWORD PTR __real@3a83126f
  000f2	0f 2f c2	 comiss	 xmm0, xmm2
  000f5	76 05		 jbe	 SHORT $LN2@AdjustDire

; 153  : 		return;

  000f7	e9 f0 01 00 00	 jmp	 $LN1@AdjustDire
$LN2@AdjustDire:

; 154  : 	
; 155  : 	D3DXQUATERNION q = SafeRotationNormalizedArc(vVel,vTargetDir);

  000fc	8d 45 f0	 lea	 eax, DWORD PTR _vTargetDir$[ebp]
  000ff	50		 push	 eax
  00100	8d 45 d8	 lea	 eax, DWORD PTR _vVel$[ebp]
  00103	50		 push	 eax
  00104	8d 45 c4	 lea	 eax, DWORD PTR _q$[ebp]
  00107	50		 push	 eax
  00108	e8 00 00 00 00	 call	 ?SafeRotationNormalizedArc@@YA?AUD3DXQUATERNION@@ABUD3DXVECTOR3@@0@Z ; SafeRotationNormalizedArc
  0010d	83 c4 0c	 add	 esp, 12			; 0000000cH

; 156  : 
; 157  : 	if (m_pData->m_fHomingMaxAngle > 180)

  00110	8b 45 d4	 mov	 eax, DWORD PTR _this$[ebp]
  00113	8b 40 08	 mov	 eax, DWORD PTR [eax+8]
  00116	f3 0f 10 40 60	 movss	 xmm0, DWORD PTR [eax+96]
  0011b	0f 2f 05 00 00
	00 00		 comiss	 xmm0, DWORD PTR __real@43340000
  00122	76 50		 jbe	 SHORT $LN3@AdjustDire

; 158  : 	{
; 159  : 		Vec3TransformQuaternionSafe(&m_v3Velocity, &m_v3Velocity, &q);

  00124	8d 45 c4	 lea	 eax, DWORD PTR _q$[ebp]
  00127	50		 push	 eax
  00128	8b 45 d4	 mov	 eax, DWORD PTR _this$[ebp]
  0012b	83 c0 38	 add	 eax, 56			; 00000038H
  0012e	50		 push	 eax
  0012f	8b 45 d4	 mov	 eax, DWORD PTR _this$[ebp]
  00132	83 c0 38	 add	 eax, 56			; 00000038H
  00135	50		 push	 eax
  00136	e8 00 00 00 00	 call	 ?Vec3TransformQuaternionSafe@@YAPAUD3DXVECTOR3@@PAU1@PBU1@PBUD3DXQUATERNION@@@Z ; Vec3TransformQuaternionSafe
  0013b	83 c4 0c	 add	 esp, 12			; 0000000cH

; 160  : 		Vec3TransformQuaternionSafe(&m_v3Accel, &m_v3Accel, &q);

  0013e	8d 45 c4	 lea	 eax, DWORD PTR _q$[ebp]
  00141	50		 push	 eax
  00142	8b 45 d4	 mov	 eax, DWORD PTR _this$[ebp]
  00145	83 c0 50	 add	 eax, 80			; 00000050H
  00148	50		 push	 eax
  00149	8b 45 d4	 mov	 eax, DWORD PTR _this$[ebp]
  0014c	83 c0 50	 add	 eax, 80			; 00000050H
  0014f	50		 push	 eax
  00150	e8 00 00 00 00	 call	 ?Vec3TransformQuaternionSafe@@YAPAUD3DXVECTOR3@@PAU1@PBU1@PBUD3DXQUATERNION@@@Z ; Vec3TransformQuaternionSafe
  00155	83 c4 0c	 add	 esp, 12			; 0000000cH

; 161  : 		D3DXQuaternionMultiply(&m_qRot, &q, &m_qRot);

  00158	8b 45 d4	 mov	 eax, DWORD PTR _this$[ebp]
  0015b	83 c0 0c	 add	 eax, 12			; 0000000cH
  0015e	50		 push	 eax
  0015f	8d 45 c4	 lea	 eax, DWORD PTR _q$[ebp]
  00162	50		 push	 eax
  00163	8b 45 d4	 mov	 eax, DWORD PTR _this$[ebp]
  00166	83 c0 0c	 add	 eax, 12			; 0000000cH
  00169	50		 push	 eax
  0016a	e8 00 00 00 00	 call	 _D3DXQuaternionMultiply@12

; 162  : 		return;

  0016f	e9 78 01 00 00	 jmp	 $LN1@AdjustDire
$LN3@AdjustDire:

; 165  : 	float c = cosf(D3DXToRadian(m_pData->m_fHomingMaxAngle));

  00174	8b 45 d4	 mov	 eax, DWORD PTR _this$[ebp]
  00177	8b 40 08	 mov	 eax, DWORD PTR [eax+8]
  0017a	f3 0f 10 40 60	 movss	 xmm0, DWORD PTR [eax+96]
  0017f	f3 0f 59 05 00
	00 00 00	 mulss	 xmm0, DWORD PTR __real@3c8efa35
  00187	f3 0f 11 45 a4	 movss	 DWORD PTR __X$[ebp], xmm0
; File C:\Program Files (x86)\Windows Kits\10\Include\10.0.18362.0\ucrt\corecrt_math.h

; 649  :             return (float)cos(_X);

  0018c	f3 0f 5a 45 a4	 cvtss2sd xmm0, DWORD PTR __X$[ebp]
  00191	51		 push	 ecx
  00192	51		 push	 ecx
  00193	f2 0f 11 04 24	 movsd	 QWORD PTR [esp], xmm0
  00198	e8 00 00 00 00	 call	 _cos
  0019d	59		 pop	 ecx
  0019e	59		 pop	 ecx
; File D:\Metin2 Server Files\mainline\SRC_2014\Metin2Client\GameLib\FlyingInstance.cpp

; 165  : 	float c = cosf(D3DXToRadian(m_pData->m_fHomingMaxAngle));

  0019f	d9 5d b8	 fstp	 DWORD PTR _c$[ebp]

; 166  : 	float s = sinf(D3DXToRadian(m_pData->m_fHomingMaxAngle));

  001a2	8b 45 d4	 mov	 eax, DWORD PTR _this$[ebp]
  001a5	8b 40 08	 mov	 eax, DWORD PTR [eax+8]
  001a8	f3 0f 10 40 60	 movss	 xmm0, DWORD PTR [eax+96]
  001ad	f3 0f 59 05 00
	00 00 00	 mulss	 xmm0, DWORD PTR __real@3c8efa35
  001b5	f3 0f 11 45 a0	 movss	 DWORD PTR __X$[ebp], xmm0
; File C:\Program Files (x86)\Windows Kits\10\Include\10.0.18362.0\ucrt\corecrt_math.h

; 750  :             return (float)sin(_X);

  001ba	f3 0f 5a 45 a0	 cvtss2sd xmm0, DWORD PTR __X$[ebp]
  001bf	51		 push	 ecx
  001c0	51		 push	 ecx
  001c1	f2 0f 11 04 24	 movsd	 QWORD PTR [esp], xmm0
  001c6	e8 00 00 00 00	 call	 _sin
  001cb	59		 pop	 ecx
  001cc	59		 pop	 ecx
; File D:\Metin2 Server Files\mainline\SRC_2014\Metin2Client\GameLib\FlyingInstance.cpp

; 166  : 	float s = sinf(D3DXToRadian(m_pData->m_fHomingMaxAngle));

  001cd	d9 5d b4	 fstp	 DWORD PTR _s$[ebp]

; 167  : 
; 168  : 	if (q.w <= -1.0f + 0.0001f)

  001d0	f3 0f 10 05 00
	00 00 00	 movss	 xmm0, DWORD PTR __real@bf7ff972
  001d8	0f 2f 45 d0	 comiss	 xmm0, DWORD PTR _q$[ebp+12]
  001dc	72 29		 jb	 SHORT $LN4@AdjustDire

; 169  : 	{
; 170  : 		q.x = 0;

  001de	0f 57 c0	 xorps	 xmm0, xmm0
  001e1	f3 0f 11 45 c4	 movss	 DWORD PTR _q$[ebp], xmm0

; 171  : 		q.y = 0;

  001e6	0f 57 c0	 xorps	 xmm0, xmm0
  001e9	f3 0f 11 45 c8	 movss	 DWORD PTR _q$[ebp+4], xmm0

; 172  : 		q.z = s;

  001ee	f3 0f 10 45 b4	 movss	 xmm0, DWORD PTR _s$[ebp]
  001f3	f3 0f 11 45 cc	 movss	 DWORD PTR _q$[ebp+8], xmm0

; 173  : 		q.w = c;

  001f8	f3 0f 10 45 b8	 movss	 xmm0, DWORD PTR _c$[ebp]
  001fd	f3 0f 11 45 d0	 movss	 DWORD PTR _q$[ebp+12], xmm0

; 174  : 	}

  00202	e9 9a 00 00 00	 jmp	 $LN6@AdjustDire
$LN4@AdjustDire:

; 175  : 	else if (q.w <= c && q.w <= 1.0f - 0.0001f)

  00207	f3 0f 10 45 b8	 movss	 xmm0, DWORD PTR _c$[ebp]
  0020c	0f 2f 45 d0	 comiss	 xmm0, DWORD PTR _q$[ebp+12]
  00210	0f 82 8b 00 00
	00		 jb	 $LN6@AdjustDire
  00216	f3 0f 10 05 00
	00 00 00	 movss	 xmm0, DWORD PTR __real@3f7ff972
  0021e	0f 2f 45 d0	 comiss	 xmm0, DWORD PTR _q$[ebp+12]
  00222	72 7d		 jb	 SHORT $LN6@AdjustDire

; 177  : 		float factor = s / sqrtf(1.0f - q.w * q.w);

  00224	f3 0f 10 45 d0	 movss	 xmm0, DWORD PTR _q$[ebp+12]
  00229	f3 0f 59 45 d0	 mulss	 xmm0, DWORD PTR _q$[ebp+12]
  0022e	f3 0f 10 0d 00
	00 00 00	 movss	 xmm1, DWORD PTR __real@3f800000
  00236	f3 0f 5c c8	 subss	 xmm1, xmm0
  0023a	f3 0f 11 4d 9c	 movss	 DWORD PTR __X$[ebp], xmm1
; File C:\Program Files (x86)\Windows Kits\10\Include\10.0.18362.0\ucrt\corecrt_math.h

; 760  :             return (float)sqrt(_X);

  0023f	f3 0f 5a 45 9c	 cvtss2sd xmm0, DWORD PTR __X$[ebp]
  00244	51		 push	 ecx
  00245	51		 push	 ecx
  00246	f2 0f 11 04 24	 movsd	 QWORD PTR [esp], xmm0
  0024b	e8 00 00 00 00	 call	 _sqrt
  00250	59		 pop	 ecx
  00251	59		 pop	 ecx
  00252	d9 5d 98	 fstp	 DWORD PTR tv1189[ebp]
  00255	d9 45 98	 fld	 DWORD PTR tv1189[ebp]
  00258	d9 5d 94	 fstp	 DWORD PTR tv1184[ebp]
; File D:\Metin2 Server Files\mainline\SRC_2014\Metin2Client\GameLib\FlyingInstance.cpp

; 177  : 		float factor = s / sqrtf(1.0f - q.w * q.w);

  0025b	f3 0f 10 45 b4	 movss	 xmm0, DWORD PTR _s$[ebp]
  00260	f3 0f 5e 45 94	 divss	 xmm0, DWORD PTR tv1184[ebp]
  00265	f3 0f 11 45 bc	 movss	 DWORD PTR _factor$1[ebp], xmm0

; 178  : 		q.x *= factor;

  0026a	f3 0f 10 45 c4	 movss	 xmm0, DWORD PTR _q$[ebp]
  0026f	f3 0f 59 45 bc	 mulss	 xmm0, DWORD PTR _factor$1[ebp]
  00274	f3 0f 11 45 c4	 movss	 DWORD PTR _q$[ebp], xmm0

; 179  : 		q.y *= factor;

  00279	f3 0f 10 45 c8	 movss	 xmm0, DWORD PTR _q$[ebp+4]
  0027e	f3 0f 59 45 bc	 mulss	 xmm0, DWORD PTR _factor$1[ebp]
  00283	f3 0f 11 45 c8	 movss	 DWORD PTR _q$[ebp+4], xmm0

; 180  : 		q.z *= factor;

  00288	f3 0f 10 45 cc	 movss	 xmm0, DWORD PTR _q$[ebp+8]
  0028d	f3 0f 59 45 bc	 mulss	 xmm0, DWORD PTR _factor$1[ebp]
  00292	f3 0f 11 45 cc	 movss	 DWORD PTR _q$[ebp+8], xmm0

; 181  : 		q.w = c;

  00297	f3 0f 10 45 b8	 movss	 xmm0, DWORD PTR _c$[ebp]
  0029c	f3 0f 11 45 d0	 movss	 DWORD PTR _q$[ebp+12], xmm0
$LN6@AdjustDire:

; 182  : 	}
; 183  : 	/*else
; 184  : 	{
; 185  : 	}*/
; 186  : 	Vec3TransformQuaternionSafe(&m_v3Velocity, &m_v3Velocity, &q);

  002a1	8d 45 c4	 lea	 eax, DWORD PTR _q$[ebp]
  002a4	50		 push	 eax
  002a5	8b 45 d4	 mov	 eax, DWORD PTR _this$[ebp]
  002a8	83 c0 38	 add	 eax, 56			; 00000038H
  002ab	50		 push	 eax
  002ac	8b 45 d4	 mov	 eax, DWORD PTR _this$[ebp]
  002af	83 c0 38	 add	 eax, 56			; 00000038H
  002b2	50		 push	 eax
  002b3	e8 00 00 00 00	 call	 ?Vec3TransformQuaternionSafe@@YAPAUD3DXVECTOR3@@PAU1@PBU1@PBUD3DXQUATERNION@@@Z ; Vec3TransformQuaternionSafe
  002b8	83 c4 0c	 add	 esp, 12			; 0000000cH

; 187  : 	Vec3TransformQuaternionSafe(&m_v3Accel, &m_v3Accel, &q);

  002bb	8d 45 c4	 lea	 eax, DWORD PTR _q$[ebp]
  002be	50		 push	 eax
  002bf	8b 45 d4	 mov	 eax, DWORD PTR _this$[ebp]
  002c2	83 c0 50	 add	 eax, 80			; 00000050H
  002c5	50		 push	 eax
  002c6	8b 45 d4	 mov	 eax, DWORD PTR _this$[ebp]
  002c9	83 c0 50	 add	 eax, 80			; 00000050H
  002cc	50		 push	 eax
  002cd	e8 00 00 00 00	 call	 ?Vec3TransformQuaternionSafe@@YAPAUD3DXVECTOR3@@PAU1@PBU1@PBUD3DXQUATERNION@@@Z ; Vec3TransformQuaternionSafe
  002d2	83 c4 0c	 add	 esp, 12			; 0000000cH

; 188  : 	D3DXQuaternionMultiply(&m_qRot, &m_qRot, &q);

  002d5	8d 45 c4	 lea	 eax, DWORD PTR _q$[ebp]
  002d8	50		 push	 eax
  002d9	8b 45 d4	 mov	 eax, DWORD PTR _this$[ebp]
  002dc	83 c0 0c	 add	 eax, 12			; 0000000cH
  002df	50		 push	 eax
  002e0	8b 45 d4	 mov	 eax, DWORD PTR _this$[ebp]
  002e3	83 c0 0c	 add	 eax, 12			; 0000000cH
  002e6	50		 push	 eax
  002e7	e8 00 00 00 00	 call	 _D3DXQuaternionMultiply@12
$LN1@AdjustDire:

; 189  : }

  002ec	5f		 pop	 edi
  002ed	5e		 pop	 esi
  002ee	8b 4d fc	 mov	 ecx, DWORD PTR __$ArrayPad$[ebp]
  002f1	33 cd		 xor	 ecx, ebp
  002f3	e8 00 00 00 00	 call	 @__security_check_cookie@4
  002f8	c9		 leave
  002f9	c2 04 00	 ret	 4
?AdjustDirectionForHoming@CFlyingInstance@@QAEXABUD3DXVECTOR3@@@Z ENDP ; CFlyingInstance::AdjustDirectionForHoming
_TEXT	ENDS
; Function compile flags: /Odspy
; File D:\Metin2 Server Files\mainline\SRC_2014\Metin2Client\GameLib\FlyingInstance.cpp
;	COMDAT ?Render@CFlyingInstance@@QAEXXZ
_TEXT	SEGMENT
_this$ = -4						; size = 4
?Render@CFlyingInstance@@QAEXXZ PROC			; CFlyingInstance::Render, COMDAT
; _this$ = ecx

; 548  : {

  00000	55		 push	 ebp
  00001	8b ec		 mov	 ebp, esp
  00003	51		 push	 ecx
  00004	89 4d fc	 mov	 DWORD PTR _this$[ebp], ecx

; 549  : 	if (!m_bAlive)

  00007	8b 45 fc	 mov	 eax, DWORD PTR _this$[ebp]
  0000a	0f b6 40 20	 movzx	 eax, BYTE PTR [eax+32]
  0000e	85 c0		 test	 eax, eax
  00010	75 02		 jne	 SHORT $LN2@Render

; 550  : 		return;

  00012	eb 08		 jmp	 SHORT $LN1@Render
$LN2@Render:

; 551  : 	RenderAttachInstance();

  00014	8b 4d fc	 mov	 ecx, DWORD PTR _this$[ebp]
  00017	e8 00 00 00 00	 call	 ?RenderAttachInstance@CFlyingInstance@@QAEXXZ ; CFlyingInstance::RenderAttachInstance
$LN1@Render:

; 552  : }

  0001c	c9		 leave
  0001d	c3		 ret	 0
?Render@CFlyingInstance@@QAEXXZ ENDP			; CFlyingInstance::Render
_TEXT	ENDS
; Function compile flags: /Odspy
; File D:\Metin2 Server Files\mainline\SRC_2014\Metin2Client\GameLib\FlyingInstance.cpp
; File D:\Metin2 Server Files\mainline\SRC_2014\Metin2Client\eterBase\Singleton.h
; File D:\Metin2 Server Files\mainline\SRC_2014\Metin2Client\GameLib\FlyingInstance.cpp
; File D:\Metin2 Server Files\mainline\SRC_2014\Metin2Client\eterBase\Singleton.h
; File D:\Metin2 Server Files\mainline\SRC_2014\Metin2Client\GameLib\FlyingInstance.cpp
; File D:\Metin2 Server Files\mainline\SRC_2014\M2Data\include\d3dx8math.inl
; File D:\Metin2 Server Files\mainline\SRC_2014\Metin2Client\GameLib\FlyingInstance.cpp
; File D:\Metin2 Server Files\mainline\SRC_2014\M2Data\include\d3dx8math.inl
; File D:\Metin2 Server Files\mainline\SRC_2014\Metin2Client\eterBase\Singleton.h
; File D:\Metin2 Server Files\mainline\SRC_2014\Metin2Client\GameLib\FlyingInstance.cpp
; File D:\Metin2 Server Files\mainline\SRC_2014\Metin2Client\eterBase\Singleton.h
; File D:\Metin2 Server Files\mainline\SRC_2014\Metin2Client\GameLib\FlyingInstance.cpp
; File D:\Metin2 Server Files\mainline\SRC_2014\M2Data\include\d3dx8math.inl
; File C:\Program Files (x86)\Windows Kits\10\Include\10.0.18362.0\ucrt\corecrt_math.h
; File D:\Metin2 Server Files\mainline\SRC_2014\Metin2Client\GameLib\FlyingInstance.cpp
; File D:\Metin2 Server Files\mainline\SRC_2014\M2Data\include\d3dx8math.inl
; File D:\Metin2 Server Files\mainline\SRC_2014\Metin2Client\GameLib\FlyingInstance.cpp
; File D:\Metin2 Server Files\mainline\SRC_2014\Metin2Client\SphereLib\vector.h
; File D:\Metin2 Server Files\mainline\SRC_2014\Metin2Client\GameLib\FlyingInstance.cpp
; File D:\Metin2 Server Files\mainline\SRC_2014\Metin2Client\SphereLib\vector.h
; File D:\Metin2 Server Files\mainline\SRC_2014\Metin2Client\GameLib\FlyingInstance.cpp
; File C:\Program Files (x86)\Microsoft Visual Studio\2019\Community\VC\Tools\MSVC\14.28.29333\include\xtree
; File C:\Program Files (x86)\Microsoft Visual Studio\2019\Community\VC\Tools\MSVC\14.28.29333\include\xstddef
; File C:\Program Files (x86)\Microsoft Visual Studio\2019\Community\VC\Tools\MSVC\14.28.29333\include\xtree
; File C:\Program Files (x86)\Microsoft Visual Studio\2019\Community\VC\Tools\MSVC\14.28.29333\include\xstddef
; File C:\Program Files (x86)\Microsoft Visual Studio\2019\Community\VC\Tools\MSVC\14.28.29333\include\xtree
; File D:\Metin2 Server Files\mainline\SRC_2014\Metin2Client\GameLib\FlyingInstance.cpp
; File D:\Metin2 Server Files\mainline\SRC_2014\Metin2Client\eterBase\Singleton.h
; File D:\Metin2 Server Files\mainline\SRC_2014\Metin2Client\GameLib\FlyingObjectManager.h
; File D:\Metin2 Server Files\mainline\SRC_2014\Metin2Client\GameLib\FlyingInstance.cpp
; File D:\Metin2 Server Files\mainline\SRC_2014\Metin2Client\eterBase\Singleton.h
; File D:\Metin2 Server Files\mainline\SRC_2014\Metin2Client\GameLib\FlyingObjectManager.h
; File D:\Metin2 Server Files\mainline\SRC_2014\Metin2Client\GameLib\FlyingInstance.cpp
;	COMDAT ?Update@CFlyingInstance@@QAE_NXZ
_TEXT	SEGMENT
$T1 = -360						; size = 8
$T2 = -352						; size = 4
_fz$ = -348						; size = 4
_fy$ = -344						; size = 4
_fx$ = -340						; size = 4
$T3 = -336						; size = 4
tv1193 = -332						; size = 4
tv912 = -328						; size = 4
$T4 = -324						; size = 4
_fGroundHeight$5 = -320					; size = 4
$T6 = -316						; size = 4
$T7 = -312						; size = 4
$T8 = -308						; size = 4
$T9 = -304						; size = 4
$T10 = -300						; size = 4
$T11 = -296						; size = 4
$T12 = -292						; size = 4
___param0$ = -288					; size = 4
__Scary$13 = -284					; size = 4
$T14 = -280						; size = 4
___param0$ = -276					; size = 4
$T15 = -272						; size = 4
$T16 = -268						; size = 4
_pOwner$ = -264						; size = 4
_c$ = -260						; size = 4
_b$ = -256						; size = 4
_a$ = -252						; size = 4
_c$ = -248						; size = 4
_b$ = -244						; size = 4
_a$ = -240						; size = 4
tv1072 = -236						; size = 4
tv1045 = -232						; size = 4
__X$ = -228						; size = 4
_fz$ = -224						; size = 4
_fy$ = -220						; size = 4
_fx$ = -216						; size = 4
$T17 = -212						; size = 4
tv985 = -208						; size = 4
$T18 = -204						; size = 4
_rkCullingMgr$ = -200					; size = 4
_fCollisionSphereRadius$ = -196				; size = 4
tv816 = -192						; size = 4
_this$ = -188						; size = 4
tv298 = -184						; size = 4
tv165 = -180						; size = 4
_pVictim$19 = -176					; size = 4
__fMoveDistance$ = -172					; size = 4
_f$ = -168						; size = 4
_this$ = -164						; size = 4
_f$ = -160						; size = 4
_this$ = -156						; size = 4
_pHittedInstance$20 = -152				; size = 4
_this$ = -148						; size = 4
_this$ = -144						; size = 4
$T21 = -138						; size = 1
$T22 = -137						; size = 1
_this$ = -136						; size = 4
_kCheckBackgroundDuringFlying$23 = -132			; size = 32
_kCheckAnotherMonsterDuringFlying$24 = -100		; size = 36
_vecDir$ = -64						; size = 12
_vecStart$ = -52					; size = 12
$T25 = -40						; size = 12
_v3LastPosition$ = -28					; size = 12
_v3Movement$ = -16					; size = 12
__$ArrayPad$ = -4					; size = 4
?Update@CFlyingInstance@@QAE_NXZ PROC			; CFlyingInstance::Update, COMDAT
; _this$ = ecx

; 347  : {

  00000	55		 push	 ebp
  00001	8b ec		 mov	 ebp, esp
  00003	81 ec 68 01 00
	00		 sub	 esp, 360		; 00000168H
  00009	a1 00 00 00 00	 mov	 eax, DWORD PTR ___security_cookie
  0000e	33 c5		 xor	 eax, ebp
  00010	89 45 fc	 mov	 DWORD PTR __$ArrayPad$[ebp], eax
  00013	56		 push	 esi
  00014	57		 push	 edi
  00015	89 8d 78 ff ff
	ff		 mov	 DWORD PTR _this$[ebp], ecx

; 348  : 	if (!m_bAlive)

  0001b	8b 85 78 ff ff
	ff		 mov	 eax, DWORD PTR _this$[ebp]
  00021	0f b6 40 20	 movzx	 eax, BYTE PTR [eax+32]
  00025	85 c0		 test	 eax, eax
  00027	75 07		 jne	 SHORT $LN2@Update

; 349  : 		return false;

  00029	32 c0		 xor	 al, al
  0002b	e9 31 0a 00 00	 jmp	 $LN1@Update
$LN2@Update:

; 351  : 	if (m_pData->m_bIsHoming &&

  00030	8b 85 78 ff ff
	ff		 mov	 eax, DWORD PTR _this$[ebp]
  00036	8b 40 08	 mov	 eax, DWORD PTR [eax+8]
  00039	0f b6 40 5c	 movzx	 eax, BYTE PTR [eax+92]
  0003d	85 c0		 test	 eax, eax
  0003f	0f 84 81 00 00
	00		 je	 $LN4@Update
; File D:\Metin2 Server Files\mainline\SRC_2014\Metin2Client\eterBase\Singleton.h

; 27   : 		return (*ms_singleton);

  00045	a1 00 00 00 00	 mov	 eax, DWORD PTR ?ms_singleton@?$CSingleton@VCTimer@@@@0PAVCTimer@@A ; CSingleton<CTimer>::ms_singleton
  0004a	89 85 dc fe ff
	ff		 mov	 DWORD PTR $T12[ebp], eax
; File D:\Metin2 Server Files\mainline\SRC_2014\Metin2Client\GameLib\FlyingInstance.cpp

; 351  : 	if (m_pData->m_bIsHoming &&

  00050	8b 85 78 ff ff
	ff		 mov	 eax, DWORD PTR _this$[ebp]
  00056	8b 40 08	 mov	 eax, DWORD PTR [eax+8]
  00059	8b 8d 78 ff ff
	ff		 mov	 ecx, DWORD PTR _this$[ebp]
  0005f	f3 0f 10 40 64	 movss	 xmm0, DWORD PTR [eax+100]
  00064	f3 0f 58 41 1c	 addss	 xmm0, DWORD PTR [ecx+28]
  00069	8b 8d dc fe ff
	ff		 mov	 ecx, DWORD PTR $T12[ebp]
  0006f	f3 0f 11 85 b4
	fe ff ff	 movss	 DWORD PTR tv1193[ebp], xmm0
  00077	e8 00 00 00 00	 call	 ?GetCurrentSecond@CTimer@@QAEMXZ ; CTimer::GetCurrentSecond
  0007c	d9 9d b8 fe ff
	ff		 fstp	 DWORD PTR tv912[ebp]
  00082	f3 0f 10 85 b8
	fe ff ff	 movss	 xmm0, DWORD PTR tv912[ebp]
  0008a	f3 0f 10 8d b4
	fe ff ff	 movss	 xmm1, DWORD PTR tv1193[ebp]
  00092	0f 2f c1	 comiss	 xmm0, xmm1
  00095	76 2f		 jbe	 SHORT $LN4@Update

; 352  : 		m_pData->m_fHomingStartTime + m_fStartTime < CTimer::Instance().GetCurrentSecond())
; 353  : 	{
; 354  : 		if (m_FlyTarget.IsObject())

  00097	8b 8d 78 ff ff
	ff		 mov	 ecx, DWORD PTR _this$[ebp]
  0009d	83 c1 60	 add	 ecx, 96			; 00000060H
  000a0	e8 00 00 00 00	 call	 ?IsObject@CFlyTarget@@QAE_NXZ ; CFlyTarget::IsObject
  000a5	0f b6 c0	 movzx	 eax, al
  000a8	85 c0		 test	 eax, eax
  000aa	74 1a		 je	 SHORT $LN4@Update

; 355  : 			AdjustDirectionForHoming(m_FlyTarget.GetFlyTargetPosition());

  000ac	8b 8d 78 ff ff
	ff		 mov	 ecx, DWORD PTR _this$[ebp]
  000b2	83 c1 60	 add	 ecx, 96			; 00000060H
  000b5	e8 00 00 00 00	 call	 ?GetFlyTargetPosition@CFlyTarget@@QBEABUD3DXVECTOR3@@XZ ; CFlyTarget::GetFlyTargetPosition
  000ba	50		 push	 eax
  000bb	8b 8d 78 ff ff
	ff		 mov	 ecx, DWORD PTR _this$[ebp]
  000c1	e8 00 00 00 00	 call	 ?AdjustDirectionForHoming@CFlyingInstance@@QAEXABUD3DXVECTOR3@@@Z ; CFlyingInstance::AdjustDirectionForHoming
$LN4@Update:

; 356  : 	}
; 357  : 
; 358  : 	D3DXVECTOR3 v3LastPosition = m_v3Position;

  000c6	8b b5 78 ff ff
	ff		 mov	 esi, DWORD PTR _this$[ebp]
  000cc	83 c6 2c	 add	 esi, 44			; 0000002cH
  000cf	8d 7d e4	 lea	 edi, DWORD PTR _v3LastPosition$[ebp]
  000d2	a5		 movsd
  000d3	a5		 movsd
  000d4	a5		 movsd
; File D:\Metin2 Server Files\mainline\SRC_2014\Metin2Client\eterBase\Singleton.h

; 27   : 		return (*ms_singleton);

  000d5	a1 00 00 00 00	 mov	 eax, DWORD PTR ?ms_singleton@?$CSingleton@VCTimer@@@@0PAVCTimer@@A ; CSingleton<CTimer>::ms_singleton
  000da	89 85 b0 fe ff
	ff		 mov	 DWORD PTR $T3[ebp], eax
; File D:\Metin2 Server Files\mainline\SRC_2014\Metin2Client\GameLib\FlyingInstance.cpp

; 360  : 	m_v3Velocity += m_v3Accel*CTimer::Instance().GetElapsedSecond();

  000e0	8b 8d b0 fe ff
	ff		 mov	 ecx, DWORD PTR $T3[ebp]
  000e6	e8 00 00 00 00	 call	 ?GetElapsedSecond@CTimer@@QAEMXZ ; CTimer::GetElapsedSecond
  000eb	d9 9d 60 ff ff
	ff		 fstp	 DWORD PTR _f$[ebp]
  000f1	8b 85 78 ff ff
	ff		 mov	 eax, DWORD PTR _this$[ebp]
  000f7	83 c0 50	 add	 eax, 80			; 00000050H
  000fa	89 85 64 ff ff
	ff		 mov	 DWORD PTR _this$[ebp], eax
; File D:\Metin2 Server Files\mainline\SRC_2014\M2Data\include\d3dx8math.inl

; 269  :     return D3DXVECTOR3(x * f, y * f, z * f);

  00100	8b 85 64 ff ff
	ff		 mov	 eax, DWORD PTR _this$[ebp]
  00106	f3 0f 10 00	 movss	 xmm0, DWORD PTR [eax]
  0010a	f3 0f 59 85 60
	ff ff ff	 mulss	 xmm0, DWORD PTR _f$[ebp]
  00112	f3 0f 11 85 ac
	fe ff ff	 movss	 DWORD PTR _fx$[ebp], xmm0
  0011a	8b 85 64 ff ff
	ff		 mov	 eax, DWORD PTR _this$[ebp]
  00120	f3 0f 10 40 04	 movss	 xmm0, DWORD PTR [eax+4]
  00125	f3 0f 59 85 60
	ff ff ff	 mulss	 xmm0, DWORD PTR _f$[ebp]
  0012d	f3 0f 11 85 a8
	fe ff ff	 movss	 DWORD PTR _fy$[ebp], xmm0
  00135	8b 85 64 ff ff
	ff		 mov	 eax, DWORD PTR _this$[ebp]
  0013b	f3 0f 10 40 08	 movss	 xmm0, DWORD PTR [eax+8]
  00140	f3 0f 59 85 60
	ff ff ff	 mulss	 xmm0, DWORD PTR _f$[ebp]
  00148	f3 0f 11 85 a4
	fe ff ff	 movss	 DWORD PTR _fz$[ebp], xmm0

; 180  :     x = fx;

  00150	f3 0f 10 85 ac
	fe ff ff	 movss	 xmm0, DWORD PTR _fx$[ebp]
  00158	f3 0f 11 45 d8	 movss	 DWORD PTR $T25[ebp], xmm0

; 181  :     y = fy;

  0015d	f3 0f 10 85 a8
	fe ff ff	 movss	 xmm0, DWORD PTR _fy$[ebp]
  00165	f3 0f 11 45 dc	 movss	 DWORD PTR $T25[ebp+4], xmm0

; 182  :     z = fz;

  0016a	f3 0f 10 85 a4
	fe ff ff	 movss	 xmm0, DWORD PTR _fz$[ebp]
  00172	f3 0f 11 45 e0	 movss	 DWORD PTR $T25[ebp+8], xmm0
; File D:\Metin2 Server Files\mainline\SRC_2014\Metin2Client\GameLib\FlyingInstance.cpp

; 360  : 	m_v3Velocity += m_v3Accel*CTimer::Instance().GetElapsedSecond();

  00177	8b 85 78 ff ff
	ff		 mov	 eax, DWORD PTR _this$[ebp]
  0017d	83 c0 38	 add	 eax, 56			; 00000038H
  00180	89 85 70 ff ff
	ff		 mov	 DWORD PTR _this$[ebp], eax
; File D:\Metin2 Server Files\mainline\SRC_2014\M2Data\include\d3dx8math.inl

; 204  :     x += v.x;

  00186	8b 85 70 ff ff
	ff		 mov	 eax, DWORD PTR _this$[ebp]
  0018c	f3 0f 10 00	 movss	 xmm0, DWORD PTR [eax]
  00190	f3 0f 58 45 d8	 addss	 xmm0, DWORD PTR $T25[ebp]
  00195	8b 85 70 ff ff
	ff		 mov	 eax, DWORD PTR _this$[ebp]
  0019b	f3 0f 11 00	 movss	 DWORD PTR [eax], xmm0

; 205  :     y += v.y;

  0019f	8b 85 70 ff ff
	ff		 mov	 eax, DWORD PTR _this$[ebp]
  001a5	f3 0f 10 40 04	 movss	 xmm0, DWORD PTR [eax+4]
  001aa	f3 0f 58 45 dc	 addss	 xmm0, DWORD PTR $T25[ebp+4]
  001af	8b 85 70 ff ff
	ff		 mov	 eax, DWORD PTR _this$[ebp]
  001b5	f3 0f 11 40 04	 movss	 DWORD PTR [eax+4], xmm0

; 206  :     z += v.z;

  001ba	8b 85 70 ff ff
	ff		 mov	 eax, DWORD PTR _this$[ebp]
  001c0	f3 0f 10 40 08	 movss	 xmm0, DWORD PTR [eax+8]
  001c5	f3 0f 58 45 e0	 addss	 xmm0, DWORD PTR $T25[ebp+8]
  001ca	8b 85 70 ff ff
	ff		 mov	 eax, DWORD PTR _this$[ebp]
  001d0	f3 0f 11 40 08	 movss	 DWORD PTR [eax+8], xmm0
; File D:\Metin2 Server Files\mainline\SRC_2014\Metin2Client\eterBase\Singleton.h

; 27   : 		return (*ms_singleton);

  001d5	a1 00 00 00 00	 mov	 eax, DWORD PTR ?ms_singleton@?$CSingleton@VCTimer@@@@0PAVCTimer@@A ; CSingleton<CTimer>::ms_singleton
  001da	89 85 34 ff ff
	ff		 mov	 DWORD PTR $T18[ebp], eax
; File D:\Metin2 Server Files\mainline\SRC_2014\Metin2Client\GameLib\FlyingInstance.cpp

; 361  : 	m_v3Velocity.z+=m_pData->m_fGravity * CTimer::Instance().GetElapsedSecond();

  001e0	8b 85 78 ff ff
	ff		 mov	 eax, DWORD PTR _this$[ebp]
  001e6	8b 70 08	 mov	 esi, DWORD PTR [eax+8]
  001e9	8b 8d 34 ff ff
	ff		 mov	 ecx, DWORD PTR $T18[ebp]
  001ef	e8 00 00 00 00	 call	 ?GetElapsedSecond@CTimer@@QAEMXZ ; CTimer::GetElapsedSecond
  001f4	d9 9d 30 ff ff
	ff		 fstp	 DWORD PTR tv985[ebp]
  001fa	f3 0f 10 85 30
	ff ff ff	 movss	 xmm0, DWORD PTR tv985[ebp]
  00202	f3 0f 59 46 38	 mulss	 xmm0, DWORD PTR [esi+56]
  00207	8b 85 78 ff ff
	ff		 mov	 eax, DWORD PTR _this$[ebp]
  0020d	f3 0f 58 40 40	 addss	 xmm0, DWORD PTR [eax+64]
  00212	8b 85 78 ff ff
	ff		 mov	 eax, DWORD PTR _this$[ebp]
  00218	f3 0f 11 40 40	 movss	 DWORD PTR [eax+64], xmm0
; File D:\Metin2 Server Files\mainline\SRC_2014\Metin2Client\eterBase\Singleton.h

; 27   : 		return (*ms_singleton);

  0021d	a1 00 00 00 00	 mov	 eax, DWORD PTR ?ms_singleton@?$CSingleton@VCTimer@@@@0PAVCTimer@@A ; CSingleton<CTimer>::ms_singleton
  00222	89 85 2c ff ff
	ff		 mov	 DWORD PTR $T17[ebp], eax
; File D:\Metin2 Server Files\mainline\SRC_2014\Metin2Client\GameLib\FlyingInstance.cpp

; 362  : 	D3DXVECTOR3 v3Movement = m_v3Velocity * CTimer::Instance().GetElapsedSecond();

  00228	8b 8d 2c ff ff
	ff		 mov	 ecx, DWORD PTR $T17[ebp]
  0022e	e8 00 00 00 00	 call	 ?GetElapsedSecond@CTimer@@QAEMXZ ; CTimer::GetElapsedSecond
  00233	d9 9d 58 ff ff
	ff		 fstp	 DWORD PTR _f$[ebp]
  00239	8b 85 78 ff ff
	ff		 mov	 eax, DWORD PTR _this$[ebp]
  0023f	83 c0 38	 add	 eax, 56			; 00000038H
  00242	89 85 5c ff ff
	ff		 mov	 DWORD PTR _this$[ebp], eax
; File D:\Metin2 Server Files\mainline\SRC_2014\M2Data\include\d3dx8math.inl

; 269  :     return D3DXVECTOR3(x * f, y * f, z * f);

  00248	8b 85 5c ff ff
	ff		 mov	 eax, DWORD PTR _this$[ebp]
  0024e	f3 0f 10 00	 movss	 xmm0, DWORD PTR [eax]
  00252	f3 0f 59 85 58
	ff ff ff	 mulss	 xmm0, DWORD PTR _f$[ebp]
  0025a	f3 0f 11 85 28
	ff ff ff	 movss	 DWORD PTR _fx$[ebp], xmm0
  00262	8b 85 5c ff ff
	ff		 mov	 eax, DWORD PTR _this$[ebp]
  00268	f3 0f 10 40 04	 movss	 xmm0, DWORD PTR [eax+4]
  0026d	f3 0f 59 85 58
	ff ff ff	 mulss	 xmm0, DWORD PTR _f$[ebp]
  00275	f3 0f 11 85 24
	ff ff ff	 movss	 DWORD PTR _fy$[ebp], xmm0
  0027d	8b 85 5c ff ff
	ff		 mov	 eax, DWORD PTR _this$[ebp]
  00283	f3 0f 10 40 08	 movss	 xmm0, DWORD PTR [eax+8]
  00288	f3 0f 59 85 58
	ff ff ff	 mulss	 xmm0, DWORD PTR _f$[ebp]
  00290	f3 0f 11 85 20
	ff ff ff	 movss	 DWORD PTR _fz$[ebp], xmm0

; 180  :     x = fx;

  00298	f3 0f 10 85 28
	ff ff ff	 movss	 xmm0, DWORD PTR _fx$[ebp]
  002a0	f3 0f 11 45 f0	 movss	 DWORD PTR _v3Movement$[ebp], xmm0

; 181  :     y = fy;

  002a5	f3 0f 10 85 24
	ff ff ff	 movss	 xmm0, DWORD PTR _fy$[ebp]
  002ad	f3 0f 11 45 f4	 movss	 DWORD PTR _v3Movement$[ebp+4], xmm0

; 182  :     z = fz;

  002b2	f3 0f 10 85 20
	ff ff ff	 movss	 xmm0, DWORD PTR _fz$[ebp]
  002ba	f3 0f 11 45 f8	 movss	 DWORD PTR _v3Movement$[ebp+8], xmm0

; 1239 :     return sqrtf(pV->x * pV->x + pV->y * pV->y + pV->z * pV->z);

  002bf	f3 0f 10 45 f8	 movss	 xmm0, DWORD PTR _v3Movement$[ebp+8]
  002c4	f3 0f 59 45 f8	 mulss	 xmm0, DWORD PTR _v3Movement$[ebp+8]
  002c9	f3 0f 10 4d f4	 movss	 xmm1, DWORD PTR _v3Movement$[ebp+4]
  002ce	f3 0f 59 4d f4	 mulss	 xmm1, DWORD PTR _v3Movement$[ebp+4]
  002d3	f3 0f 10 55 f0	 movss	 xmm2, DWORD PTR _v3Movement$[ebp]
  002d8	f3 0f 59 55 f0	 mulss	 xmm2, DWORD PTR _v3Movement$[ebp]
  002dd	f3 0f 58 d1	 addss	 xmm2, xmm1
  002e1	f3 0f 58 d0	 addss	 xmm2, xmm0
  002e5	f3 0f 11 95 1c
	ff ff ff	 movss	 DWORD PTR __X$[ebp], xmm2
; File C:\Program Files (x86)\Windows Kits\10\Include\10.0.18362.0\ucrt\corecrt_math.h

; 760  :             return (float)sqrt(_X);

  002ed	f3 0f 5a 85 1c
	ff ff ff	 cvtss2sd xmm0, DWORD PTR __X$[ebp]
  002f5	51		 push	 ecx
  002f6	51		 push	 ecx
  002f7	f2 0f 11 04 24	 movsd	 QWORD PTR [esp], xmm0
  002fc	e8 00 00 00 00	 call	 _sqrt
  00301	59		 pop	 ecx
  00302	59		 pop	 ecx
; File D:\Metin2 Server Files\mainline\SRC_2014\Metin2Client\GameLib\FlyingInstance.cpp

; 363  : 	float _fMoveDistance = D3DXVec3Length(&v3Movement);

  00303	d9 9d 54 ff ff
	ff		 fstp	 DWORD PTR __fMoveDistance$[ebp]

; 364  : 	float fCollisionSphereRadius = max(_fMoveDistance*2, m_pData->m_fCollisionSphereRadius);

  00309	f3 0f 10 85 54
	ff ff ff	 movss	 xmm0, DWORD PTR __fMoveDistance$[ebp]
  00311	f3 0f 59 05 00
	00 00 00	 mulss	 xmm0, DWORD PTR __real@40000000
  00319	8b 85 78 ff ff
	ff		 mov	 eax, DWORD PTR _this$[ebp]
  0031f	8b 40 08	 mov	 eax, DWORD PTR [eax+8]
  00322	0f 2f 40 70	 comiss	 xmm0, DWORD PTR [eax+112]
  00326	76 1a		 jbe	 SHORT $LN31@Update
  00328	f3 0f 10 85 54
	ff ff ff	 movss	 xmm0, DWORD PTR __fMoveDistance$[ebp]
  00330	f3 0f 59 05 00
	00 00 00	 mulss	 xmm0, DWORD PTR __real@40000000
  00338	f3 0f 11 85 4c
	ff ff ff	 movss	 DWORD PTR tv165[ebp], xmm0
  00340	eb 16		 jmp	 SHORT $LN32@Update
$LN31@Update:
  00342	8b 85 78 ff ff
	ff		 mov	 eax, DWORD PTR _this$[ebp]
  00348	8b 40 08	 mov	 eax, DWORD PTR [eax+8]
  0034b	f3 0f 10 40 70	 movss	 xmm0, DWORD PTR [eax+112]
  00350	f3 0f 11 85 4c
	ff ff ff	 movss	 DWORD PTR tv165[ebp], xmm0
$LN32@Update:
  00358	f3 0f 10 85 4c
	ff ff ff	 movss	 xmm0, DWORD PTR tv165[ebp]
  00360	f3 0f 11 85 3c
	ff ff ff	 movss	 DWORD PTR _fCollisionSphereRadius$[ebp], xmm0

; 365  : 	m_fRemainRange -= _fMoveDistance;

  00368	8b 85 78 ff ff
	ff		 mov	 eax, DWORD PTR _this$[ebp]
  0036e	f3 0f 10 40 5c	 movss	 xmm0, DWORD PTR [eax+92]
  00373	f3 0f 5c 85 54
	ff ff ff	 subss	 xmm0, DWORD PTR __fMoveDistance$[ebp]
  0037b	8b 85 78 ff ff
	ff		 mov	 eax, DWORD PTR _this$[ebp]
  00381	f3 0f 11 40 5c	 movss	 DWORD PTR [eax+92], xmm0

; 366  : 	m_v3Position += v3Movement;

  00386	8b 85 78 ff ff
	ff		 mov	 eax, DWORD PTR _this$[ebp]
  0038c	83 c0 2c	 add	 eax, 44			; 0000002cH
  0038f	89 85 6c ff ff
	ff		 mov	 DWORD PTR _this$[ebp], eax
; File D:\Metin2 Server Files\mainline\SRC_2014\M2Data\include\d3dx8math.inl

; 204  :     x += v.x;

  00395	8b 85 6c ff ff
	ff		 mov	 eax, DWORD PTR _this$[ebp]
  0039b	f3 0f 10 00	 movss	 xmm0, DWORD PTR [eax]
  0039f	f3 0f 58 45 f0	 addss	 xmm0, DWORD PTR _v3Movement$[ebp]
  003a4	8b 85 6c ff ff
	ff		 mov	 eax, DWORD PTR _this$[ebp]
  003aa	f3 0f 11 00	 movss	 DWORD PTR [eax], xmm0

; 205  :     y += v.y;

  003ae	8b 85 6c ff ff
	ff		 mov	 eax, DWORD PTR _this$[ebp]
  003b4	f3 0f 10 40 04	 movss	 xmm0, DWORD PTR [eax+4]
  003b9	f3 0f 58 45 f4	 addss	 xmm0, DWORD PTR _v3Movement$[ebp+4]
  003be	8b 85 6c ff ff
	ff		 mov	 eax, DWORD PTR _this$[ebp]
  003c4	f3 0f 11 40 04	 movss	 DWORD PTR [eax+4], xmm0

; 206  :     z += v.z;

  003c9	8b 85 6c ff ff
	ff		 mov	 eax, DWORD PTR _this$[ebp]
  003cf	f3 0f 10 40 08	 movss	 xmm0, DWORD PTR [eax+8]
  003d4	f3 0f 58 45 f8	 addss	 xmm0, DWORD PTR _v3Movement$[ebp+8]
  003d9	8b 85 6c ff ff
	ff		 mov	 eax, DWORD PTR _this$[ebp]
  003df	f3 0f 11 40 08	 movss	 DWORD PTR [eax+8], xmm0
; File D:\Metin2 Server Files\mainline\SRC_2014\Metin2Client\GameLib\FlyingInstance.cpp

; 368  : 	UpdateAttachInstance();

  003e4	8b 8d 78 ff ff
	ff		 mov	 ecx, DWORD PTR _this$[ebp]
  003ea	e8 00 00 00 00	 call	 ?UpdateAttachInstance@CFlyingInstance@@QAEXXZ ; CFlyingInstance::UpdateAttachInstance

; 369  : 
; 370  : 	if (m_fRemainRange<0)

  003ef	8b 85 78 ff ff
	ff		 mov	 eax, DWORD PTR _this$[ebp]
  003f5	0f 57 c0	 xorps	 xmm0, xmm0
  003f8	0f 2f 40 5c	 comiss	 xmm0, DWORD PTR [eax+92]
  003fc	76 40		 jbe	 SHORT $LN5@Update

; 371  : 	{
; 372  : 		if (m_pHandler)

  003fe	8b 85 78 ff ff
	ff		 mov	 eax, DWORD PTR _this$[ebp]
  00404	83 b8 94 00 00
	00 00		 cmp	 DWORD PTR [eax+148], 0
  0040b	74 1d		 je	 SHORT $LN6@Update

; 373  : 			m_pHandler->OnExplodingOutOfRange();

  0040d	8b 85 78 ff ff
	ff		 mov	 eax, DWORD PTR _this$[ebp]
  00413	8b 80 94 00 00
	00		 mov	 eax, DWORD PTR [eax+148]
  00419	8b 8d 78 ff ff
	ff		 mov	 ecx, DWORD PTR _this$[ebp]
  0041f	8b 00		 mov	 eax, DWORD PTR [eax]
  00421	8b 89 94 00 00
	00		 mov	 ecx, DWORD PTR [ecx+148]
  00427	ff 50 14	 call	 DWORD PTR [eax+20]
$LN6@Update:

; 374  : 
; 375  : 		__Explode(false);

  0042a	6a 00		 push	 0
  0042c	8b 8d 78 ff ff
	ff		 mov	 ecx, DWORD PTR _this$[ebp]
  00432	e8 00 00 00 00	 call	 ?__Explode@CFlyingInstance@@QAEX_N@Z ; CFlyingInstance::__Explode

; 376  : 		return false;

  00437	32 c0		 xor	 al, al
  00439	e9 23 06 00 00	 jmp	 $LN1@Update
$LN5@Update:

; 377  : 	}
; 378  : 
; 379  : 	if (m_FlyTarget.IsObject())

  0043e	8b 8d 78 ff ff
	ff		 mov	 ecx, DWORD PTR _this$[ebp]
  00444	83 c1 60	 add	 ecx, 96			; 00000060H
  00447	e8 00 00 00 00	 call	 ?IsObject@CFlyTarget@@QAE_NXZ ; CFlyTarget::IsObject
  0044c	0f b6 c0	 movzx	 eax, al
  0044f	85 c0		 test	 eax, eax
  00451	0f 84 31 01 00
	00		 je	 $LN7@Update

; 380  : 	{
; 381  : 		if (!m_bTargetHitted)

  00457	8b 85 78 ff ff
	ff		 mov	 eax, DWORD PTR _this$[ebp]
  0045d	83 b8 9c 00 00
	00 00		 cmp	 DWORD PTR [eax+156], 0
  00464	0f 85 1c 01 00
	00		 jne	 $LN10@Update

; 382  : 		{
; 383  : 			if (square_distance_between_linesegment_and_point(m_v3Position,v3LastPosition,m_FlyTarget.GetFlyTargetPosition())<m_pData->m_fBombRange*m_pData->m_fBombRange)

  0046a	8b 8d 78 ff ff
	ff		 mov	 ecx, DWORD PTR _this$[ebp]
  00470	83 c1 60	 add	 ecx, 96			; 00000060H
  00473	e8 00 00 00 00	 call	 ?GetFlyTargetPosition@CFlyTarget@@QBEABUD3DXVECTOR3@@XZ ; CFlyTarget::GetFlyTargetPosition
  00478	50		 push	 eax
  00479	8d 45 e4	 lea	 eax, DWORD PTR _v3LastPosition$[ebp]
  0047c	50		 push	 eax
  0047d	8b 85 78 ff ff
	ff		 mov	 eax, DWORD PTR _this$[ebp]
  00483	83 c0 2c	 add	 eax, 44			; 0000002cH
  00486	50		 push	 eax
  00487	e8 00 00 00 00	 call	 ?square_distance_between_linesegment_and_point@@YAMABUD3DXVECTOR3@@00@Z ; square_distance_between_linesegment_and_point
  0048c	83 c4 0c	 add	 esp, 12			; 0000000cH
  0048f	d9 9d 18 ff ff
	ff		 fstp	 DWORD PTR tv1045[ebp]
  00495	8b 85 78 ff ff
	ff		 mov	 eax, DWORD PTR _this$[ebp]
  0049b	8b 40 08	 mov	 eax, DWORD PTR [eax+8]
  0049e	8b 8d 78 ff ff
	ff		 mov	 ecx, DWORD PTR _this$[ebp]
  004a4	8b 49 08	 mov	 ecx, DWORD PTR [ecx+8]
  004a7	f3 0f 10 40 3c	 movss	 xmm0, DWORD PTR [eax+60]
  004ac	f3 0f 59 41 3c	 mulss	 xmm0, DWORD PTR [ecx+60]
  004b1	0f 2f 85 18 ff
	ff ff		 comiss	 xmm0, DWORD PTR tv1045[ebp]
  004b8	0f 86 c8 00 00
	00		 jbe	 $LN10@Update

; 384  : 			{
; 385  : 				m_bTargetHitted = TRUE;

  004be	8b 85 78 ff ff
	ff		 mov	 eax, DWORD PTR _this$[ebp]
  004c4	c7 80 9c 00 00
	00 01 00 00 00	 mov	 DWORD PTR [eax+156], 1

; 386  : 
; 387  : 				if (m_canAttack)

  004ce	8b 85 78 ff ff
	ff		 mov	 eax, DWORD PTR _this$[ebp]
  004d4	0f b6 40 21	 movzx	 eax, BYTE PTR [eax+33]
  004d8	85 c0		 test	 eax, eax
  004da	74 2e		 je	 SHORT $LN12@Update

; 388  : 				{
; 389  : 					IFlyTargetableObject* pVictim=m_FlyTarget.GetFlyTarget();

  004dc	8b 8d 78 ff ff
	ff		 mov	 ecx, DWORD PTR _this$[ebp]
  004e2	83 c1 60	 add	 ecx, 96			; 00000060H
  004e5	e8 00 00 00 00	 call	 ?GetFlyTarget@CFlyTarget@@QAEPAVIFlyTargetableObject@@XZ ; CFlyTarget::GetFlyTarget
  004ea	89 85 50 ff ff
	ff		 mov	 DWORD PTR _pVictim$19[ebp], eax

; 390  : 					if (pVictim)

  004f0	83 bd 50 ff ff
	ff 00		 cmp	 DWORD PTR _pVictim$19[ebp], 0
  004f7	74 11		 je	 SHORT $LN12@Update

; 391  : 					{
; 392  : 						pVictim->OnShootDamage();

  004f9	8b 85 50 ff ff
	ff		 mov	 eax, DWORD PTR _pVictim$19[ebp]
  004ff	8b 00		 mov	 eax, DWORD PTR [eax]
  00501	8b 8d 50 ff ff
	ff		 mov	 ecx, DWORD PTR _pVictim$19[ebp]
  00507	ff 50 08	 call	 DWORD PTR [eax+8]
$LN12@Update:

; 393  : 					}
; 394  : 				}
; 395  : 
; 396  : 				if (m_pHandler)

  0050a	8b 85 78 ff ff
	ff		 mov	 eax, DWORD PTR _this$[ebp]
  00510	83 b8 94 00 00
	00 00		 cmp	 DWORD PTR [eax+148], 0
  00517	74 26		 je	 SHORT $LN13@Update

; 397  : 				{
; 398  : 					m_pHandler->OnExplodingAtTarget(m_dwSkillIndex);

  00519	8b 85 78 ff ff
	ff		 mov	 eax, DWORD PTR _this$[ebp]
  0051f	ff 70 28	 push	 DWORD PTR [eax+40]
  00522	8b 85 78 ff ff
	ff		 mov	 eax, DWORD PTR _this$[ebp]
  00528	8b 80 94 00 00
	00		 mov	 eax, DWORD PTR [eax+148]
  0052e	8b 8d 78 ff ff
	ff		 mov	 ecx, DWORD PTR _this$[ebp]
  00534	8b 00		 mov	 eax, DWORD PTR [eax]
  00536	8b 89 94 00 00
	00		 mov	 ecx, DWORD PTR [ecx+148]
  0053c	ff 50 20	 call	 DWORD PTR [eax+32]
$LN13@Update:

; 399  : 				}
; 400  : 
; 401  : 				if (m_iPierceCount)

  0053f	8b 85 78 ff ff
	ff		 mov	 eax, DWORD PTR _this$[ebp]
  00545	83 78 24 00	 cmp	 DWORD PTR [eax+36], 0
  00549	74 20		 je	 SHORT $LN14@Update

; 402  : 				{
; 403  : 					m_iPierceCount--;

  0054b	8b 85 78 ff ff
	ff		 mov	 eax, DWORD PTR _this$[ebp]
  00551	8b 40 24	 mov	 eax, DWORD PTR [eax+36]
  00554	48		 dec	 eax
  00555	8b 8d 78 ff ff
	ff		 mov	 ecx, DWORD PTR _this$[ebp]
  0055b	89 41 24	 mov	 DWORD PTR [ecx+36], eax

; 404  : 					__Bomb();

  0055e	8b 8d 78 ff ff
	ff		 mov	 ecx, DWORD PTR _this$[ebp]
  00564	e8 00 00 00 00	 call	 ?__Bomb@CFlyingInstance@@QAEXXZ ; CFlyingInstance::__Bomb

; 405  : 				}

  00569	eb 14		 jmp	 SHORT $LN15@Update
$LN14@Update:

; 406  : 				else
; 407  : 				{
; 408  : 					__Explode();

  0056b	6a 01		 push	 1
  0056d	8b 8d 78 ff ff
	ff		 mov	 ecx, DWORD PTR _this$[ebp]
  00573	e8 00 00 00 00	 call	 ?__Explode@CFlyingInstance@@QAEX_N@Z ; CFlyingInstance::__Explode

; 409  : 					return false;

  00578	32 c0		 xor	 al, al
  0057a	e9 e2 04 00 00	 jmp	 $LN1@Update
$LN15@Update:

; 410  : 				}
; 411  : 
; 412  : 				return true;

  0057f	b0 01		 mov	 al, 1
  00581	e9 db 04 00 00	 jmp	 $LN1@Update
$LN10@Update:

; 413  : 			}
; 414  : 		}
; 415  : 	}

  00586	eb 79		 jmp	 SHORT $LN17@Update
$LN7@Update:

; 416  : 	else if (m_FlyTarget.IsPosition())

  00588	8b 8d 78 ff ff
	ff		 mov	 ecx, DWORD PTR _this$[ebp]
  0058e	83 c1 60	 add	 ecx, 96			; 00000060H
  00591	e8 00 00 00 00	 call	 ?IsPosition@CFlyTarget@@QAE_NXZ ; CFlyTarget::IsPosition
  00596	0f b6 c0	 movzx	 eax, al
  00599	85 c0		 test	 eax, eax
  0059b	74 64		 je	 SHORT $LN17@Update

; 417  : 	{
; 418  : 		if (square_distance_between_linesegment_and_point(m_v3Position,v3LastPosition,m_FlyTarget.GetFlyTargetPosition())<m_pData->m_fBombRange*m_pData->m_fBombRange)

  0059d	8b 8d 78 ff ff
	ff		 mov	 ecx, DWORD PTR _this$[ebp]
  005a3	83 c1 60	 add	 ecx, 96			; 00000060H
  005a6	e8 00 00 00 00	 call	 ?GetFlyTargetPosition@CFlyTarget@@QBEABUD3DXVECTOR3@@XZ ; CFlyTarget::GetFlyTargetPosition
  005ab	50		 push	 eax
  005ac	8d 45 e4	 lea	 eax, DWORD PTR _v3LastPosition$[ebp]
  005af	50		 push	 eax
  005b0	8b 85 78 ff ff
	ff		 mov	 eax, DWORD PTR _this$[ebp]
  005b6	83 c0 2c	 add	 eax, 44			; 0000002cH
  005b9	50		 push	 eax
  005ba	e8 00 00 00 00	 call	 ?square_distance_between_linesegment_and_point@@YAMABUD3DXVECTOR3@@00@Z ; square_distance_between_linesegment_and_point
  005bf	83 c4 0c	 add	 esp, 12			; 0000000cH
  005c2	d9 9d 14 ff ff
	ff		 fstp	 DWORD PTR tv1072[ebp]
  005c8	8b 85 78 ff ff
	ff		 mov	 eax, DWORD PTR _this$[ebp]
  005ce	8b 40 08	 mov	 eax, DWORD PTR [eax+8]
  005d1	8b 8d 78 ff ff
	ff		 mov	 ecx, DWORD PTR _this$[ebp]
  005d7	8b 49 08	 mov	 ecx, DWORD PTR [ecx+8]
  005da	f3 0f 10 40 3c	 movss	 xmm0, DWORD PTR [eax+60]
  005df	f3 0f 59 41 3c	 mulss	 xmm0, DWORD PTR [ecx+60]
  005e4	0f 2f 85 14 ff
	ff ff		 comiss	 xmm0, DWORD PTR tv1072[ebp]
  005eb	76 14		 jbe	 SHORT $LN17@Update

; 419  : 		{
; 420  : 			__Explode();

  005ed	6a 01		 push	 1
  005ef	8b 8d 78 ff ff
	ff		 mov	 ecx, DWORD PTR _this$[ebp]
  005f5	e8 00 00 00 00	 call	 ?__Explode@CFlyingInstance@@QAEX_N@Z ; CFlyingInstance::__Explode

; 421  : 			return false;

  005fa	32 c0		 xor	 al, al
  005fc	e9 60 04 00 00	 jmp	 $LN1@Update
$LN17@Update:

; 422  : 		}
; 423  : 	}
; 424  : 
; 425  : 	Vector3d vecStart, vecDir;
; 426  : 	vecStart.Set(v3LastPosition.x,v3LastPosition.y,v3LastPosition.z);

  00601	f3 0f 10 45 e4	 movss	 xmm0, DWORD PTR _v3LastPosition$[ebp]
  00606	f3 0f 11 85 10
	ff ff ff	 movss	 DWORD PTR _a$[ebp], xmm0
  0060e	f3 0f 10 45 e8	 movss	 xmm0, DWORD PTR _v3LastPosition$[ebp+4]
  00613	f3 0f 11 85 0c
	ff ff ff	 movss	 DWORD PTR _b$[ebp], xmm0
  0061b	f3 0f 10 45 ec	 movss	 xmm0, DWORD PTR _v3LastPosition$[ebp+8]
  00620	f3 0f 11 85 08
	ff ff ff	 movss	 DWORD PTR _c$[ebp], xmm0
; File D:\Metin2 Server Files\mainline\SRC_2014\Metin2Client\SphereLib\vector.h

; 107  : 		x = a;

  00628	f3 0f 10 85 10
	ff ff ff	 movss	 xmm0, DWORD PTR _a$[ebp]
  00630	f3 0f 11 45 cc	 movss	 DWORD PTR _vecStart$[ebp], xmm0

; 108  : 		y = b;

  00635	f3 0f 10 85 0c
	ff ff ff	 movss	 xmm0, DWORD PTR _b$[ebp]
  0063d	f3 0f 11 45 d0	 movss	 DWORD PTR _vecStart$[ebp+4], xmm0

; 109  : 		z = c;

  00642	f3 0f 10 85 08
	ff ff ff	 movss	 xmm0, DWORD PTR _c$[ebp]
  0064a	f3 0f 11 45 d4	 movss	 DWORD PTR _vecStart$[ebp+8], xmm0
; File D:\Metin2 Server Files\mainline\SRC_2014\Metin2Client\GameLib\FlyingInstance.cpp

; 427  : 	vecDir.Set(v3Movement.x,v3Movement.y,v3Movement.z);

  0064f	f3 0f 10 45 f0	 movss	 xmm0, DWORD PTR _v3Movement$[ebp]
  00654	f3 0f 11 85 04
	ff ff ff	 movss	 DWORD PTR _a$[ebp], xmm0
  0065c	f3 0f 10 45 f4	 movss	 xmm0, DWORD PTR _v3Movement$[ebp+4]
  00661	f3 0f 11 85 00
	ff ff ff	 movss	 DWORD PTR _b$[ebp], xmm0
  00669	f3 0f 10 45 f8	 movss	 xmm0, DWORD PTR _v3Movement$[ebp+8]
  0066e	f3 0f 11 85 fc
	fe ff ff	 movss	 DWORD PTR _c$[ebp], xmm0
; File D:\Metin2 Server Files\mainline\SRC_2014\Metin2Client\SphereLib\vector.h

; 107  : 		x = a;

  00676	f3 0f 10 85 04
	ff ff ff	 movss	 xmm0, DWORD PTR _a$[ebp]
  0067e	f3 0f 11 45 c0	 movss	 DWORD PTR _vecDir$[ebp], xmm0

; 108  : 		y = b;

  00683	f3 0f 10 85 00
	ff ff ff	 movss	 xmm0, DWORD PTR _b$[ebp]
  0068b	f3 0f 11 45 c4	 movss	 DWORD PTR _vecDir$[ebp+4], xmm0

; 109  : 		z = c;

  00690	f3 0f 10 85 fc
	fe ff ff	 movss	 xmm0, DWORD PTR _c$[ebp]
  00698	f3 0f 11 45 c8	 movss	 DWORD PTR _vecDir$[ebp+8], xmm0
; File D:\Metin2 Server Files\mainline\SRC_2014\Metin2Client\GameLib\FlyingInstance.cpp

; 429  : 	CCullingManager & rkCullingMgr = CCullingManager::Instance();

  0069d	a1 00 00 00 00	 mov	 eax, DWORD PTR ?ms_singleton@?$CSingleton@VCCullingManager@@@@0PAVCCullingManager@@A ; CSingleton<CCullingManager>::ms_singleton
  006a2	89 85 38 ff ff
	ff		 mov	 DWORD PTR _rkCullingMgr$[ebp], eax

; 430  : 
; 431  : 	if (m_pData->m_bHitOnAnotherMonster)

  006a8	8b 85 78 ff ff
	ff		 mov	 eax, DWORD PTR _this$[ebp]
  006ae	8b 40 08	 mov	 eax, DWORD PTR [eax+8]
  006b1	0f b6 40 69	 movzx	 eax, BYTE PTR [eax+105]
  006b5	85 c0		 test	 eax, eax
  006b7	0f 84 1d 02 00
	00		 je	 $LN20@Update

; 432  : 	{
; 433  : 		FCheckAnotherMonsterDuringFlying kCheckAnotherMonsterDuringFlying(m_pOwner, v3LastPosition,m_v3Position);

  006bd	8b 85 78 ff ff
	ff		 mov	 eax, DWORD PTR _this$[ebp]
  006c3	8b 80 98 00 00
	00		 mov	 eax, DWORD PTR [eax+152]
  006c9	89 85 f8 fe ff
	ff		 mov	 DWORD PTR _pOwner$[ebp], eax

; 314  : 		: pOwner(pOwner)

  006cf	8b 85 f8 fe ff
	ff		 mov	 eax, DWORD PTR _pOwner$[ebp]
  006d5	89 45 bc	 mov	 DWORD PTR _kCheckAnotherMonsterDuringFlying$24[ebp+32], eax

; 315  : 	{
; 316  : 		s.fRadius = 10.0f;

  006d8	f3 0f 10 05 00
	00 00 00	 movss	 xmm0, DWORD PTR __real@41200000
  006e0	f3 0f 11 45 b4	 movss	 DWORD PTR _kCheckAnotherMonsterDuringFlying$24[ebp+24], xmm0

; 317  : 		s.v3LastPosition = v1;

  006e5	8d 7d a8	 lea	 edi, DWORD PTR _kCheckAnotherMonsterDuringFlying$24[ebp+12]
  006e8	8d 75 e4	 lea	 esi, DWORD PTR _v3LastPosition$[ebp]
  006eb	a5		 movsd
  006ec	a5		 movsd
  006ed	a5		 movsd

; 432  : 	{
; 433  : 		FCheckAnotherMonsterDuringFlying kCheckAnotherMonsterDuringFlying(m_pOwner, v3LastPosition,m_v3Position);

  006ee	8b b5 78 ff ff
	ff		 mov	 esi, DWORD PTR _this$[ebp]
  006f4	83 c6 2c	 add	 esi, 44			; 0000002cH

; 318  : 		s.v3Position = v2;

  006f7	8d 7d 9c	 lea	 edi, DWORD PTR _kCheckAnotherMonsterDuringFlying$24[ebp]
  006fa	a5		 movsd
  006fb	a5		 movsd
  006fc	a5		 movsd

; 319  : 		pInst = 0;

  006fd	83 65 b8 00	 and	 DWORD PTR _kCheckAnotherMonsterDuringFlying$24[ebp+28], 0

; 434  : 		rkCullingMgr.ForInRange(vecStart,fCollisionSphereRadius, &kCheckAnotherMonsterDuringFlying);

  00701	8d 45 9c	 lea	 eax, DWORD PTR _kCheckAnotherMonsterDuringFlying$24[ebp]
  00704	50		 push	 eax
  00705	51		 push	 ecx
  00706	f3 0f 10 85 3c
	ff ff ff	 movss	 xmm0, DWORD PTR _fCollisionSphereRadius$[ebp]
  0070e	f3 0f 11 04 24	 movss	 DWORD PTR [esp], xmm0
  00713	8d 45 cc	 lea	 eax, DWORD PTR _vecStart$[ebp]
  00716	50		 push	 eax
  00717	8b 8d 38 ff ff
	ff		 mov	 ecx, DWORD PTR _rkCullingMgr$[ebp]
  0071d	e8 00 00 00 00	 call	 ??$ForInRange@UFCheckAnotherMonsterDuringFlying@@@CCullingManager@@QAEXABVVector3d@@MPAUFCheckAnotherMonsterDuringFlying@@@Z ; CCullingManager::ForInRange<FCheckAnotherMonsterDuringFlying>

; 337  : 		return pInst!=0;

  00722	83 7d b8 00	 cmp	 DWORD PTR _kCheckAnotherMonsterDuringFlying$24[ebp+28], 0
  00726	74 0c		 je	 SHORT $LN89@Update
  00728	c7 85 48 ff ff
	ff 01 00 00 00	 mov	 DWORD PTR tv298[ebp], 1
  00732	eb 07		 jmp	 SHORT $LN90@Update
$LN89@Update:
  00734	83 a5 48 ff ff
	ff 00		 and	 DWORD PTR tv298[ebp], 0
$LN90@Update:

; 435  : 		if (kCheckAnotherMonsterDuringFlying.IsHitted())

  0073b	0f b6 85 48 ff
	ff ff		 movzx	 eax, BYTE PTR tv298[ebp]
  00742	85 c0		 test	 eax, eax
  00744	0f 84 90 01 00
	00		 je	 $LN20@Update

; 341  : 		return pInst;

  0074a	8b 45 b8	 mov	 eax, DWORD PTR _kCheckAnotherMonsterDuringFlying$24[ebp+28]
  0074d	89 85 f4 fe ff
	ff		 mov	 DWORD PTR $T16[ebp], eax

; 436  : 		{
; 437  : 			IActorInstance * pHittedInstance = (IActorInstance*)kCheckAnotherMonsterDuringFlying.GetHittedObject();

  00753	8b 85 f4 fe ff
	ff		 mov	 eax, DWORD PTR $T16[ebp]
  00759	89 85 68 ff ff
	ff		 mov	 DWORD PTR _pHittedInstance$20[ebp], eax

; 438  : 			if (m_HittedObjectSet.end() == m_HittedObjectSet.find(pHittedInstance))

  0075f	8b 85 78 ff ff
	ff		 mov	 eax, DWORD PTR _this$[ebp]
  00765	05 a0 00 00 00	 add	 eax, 160		; 000000a0H
  0076a	89 85 44 ff ff
	ff		 mov	 DWORD PTR _this$[ebp], eax
; File C:\Program Files (x86)\Microsoft Visual Studio\2019\Community\VC\Tools\MSVC\14.28.29333\include\xtree

; 2047 :         return _STD addressof(_Mypair._Myval2._Myval2);

  00770	8b 85 44 ff ff
	ff		 mov	 eax, DWORD PTR _this$[ebp]
; File C:\Program Files (x86)\Microsoft Visual Studio\2019\Community\VC\Tools\MSVC\14.28.29333\include\xstddef

; 275  :     return __builtin_addressof(_Val);

  00776	89 85 f0 fe ff
	ff		 mov	 DWORD PTR $T15[ebp], eax
; File C:\Program Files (x86)\Microsoft Visual Studio\2019\Community\VC\Tools\MSVC\14.28.29333\include\xtree

; 2047 :         return _STD addressof(_Mypair._Myval2._Myval2);

  0077c	8b 85 f0 fe ff
	ff		 mov	 eax, DWORD PTR $T15[ebp]
  00782	89 85 a0 fe ff
	ff		 mov	 DWORD PTR $T2[ebp], eax

; 1468 :         return iterator(_Find(_Keyval), _Get_scary());

  00788	8d 85 68 ff ff
	ff		 lea	 eax, DWORD PTR _pHittedInstance$20[ebp]
  0078e	50		 push	 eax
  0078f	8b 8d 44 ff ff
	ff		 mov	 ecx, DWORD PTR _this$[ebp]
  00795	e8 00 00 00 00	 call	 ??$_Find@PAVIActorInstance@@@?$_Tree@V?$_Tset_traits@PAVIActorInstance@@U?$less@PAVIActorInstance@@@std@@V?$allocator@PAVIActorInstance@@@3@$0A@@std@@@std@@ABEPAU?$_Tree_node@PAVIActorInstance@@PAX@1@ABQAVIActorInstance@@@Z ; std::_Tree<std::_Tset_traits<IActorInstance *,std::less<IActorInstance *>,std::allocator<IActorInstance *>,0> >::_Find<IActorInstance *>
  0079a	89 85 ec fe ff
	ff		 mov	 DWORD PTR ___param0$[ebp], eax

; 39   :     _Tree_unchecked_const_iterator(_Nodeptr _Pnode, const _Mytree* _Plist) noexcept : _Ptr(_Pnode) {

  007a0	8b 85 ec fe ff
	ff		 mov	 eax, DWORD PTR ___param0$[ebp]
  007a6	89 85 d4 fe ff
	ff		 mov	 DWORD PTR $T10[ebp], eax

; 2047 :         return _STD addressof(_Mypair._Myval2._Myval2);

  007ac	8b 85 78 ff ff
	ff		 mov	 eax, DWORD PTR _this$[ebp]
  007b2	05 a0 00 00 00	 add	 eax, 160		; 000000a0H
; File C:\Program Files (x86)\Microsoft Visual Studio\2019\Community\VC\Tools\MSVC\14.28.29333\include\xstddef

; 275  :     return __builtin_addressof(_Val);

  007b7	89 85 e8 fe ff
	ff		 mov	 DWORD PTR $T14[ebp], eax
; File C:\Program Files (x86)\Microsoft Visual Studio\2019\Community\VC\Tools\MSVC\14.28.29333\include\xtree

; 2047 :         return _STD addressof(_Mypair._Myval2._Myval2);

  007bd	8b 85 e8 fe ff
	ff		 mov	 eax, DWORD PTR $T14[ebp]
  007c3	89 85 e4 fe ff
	ff		 mov	 DWORD PTR __Scary$13[ebp], eax

; 1250 :         return iterator(_Scary->_Myhead, _Scary);

  007c9	8b 85 e4 fe ff
	ff		 mov	 eax, DWORD PTR __Scary$13[ebp]
  007cf	8b 00		 mov	 eax, DWORD PTR [eax]
  007d1	89 85 e0 fe ff
	ff		 mov	 DWORD PTR ___param0$[ebp], eax

; 39   :     _Tree_unchecked_const_iterator(_Nodeptr _Pnode, const _Mytree* _Plist) noexcept : _Ptr(_Pnode) {

  007d7	8b 85 e0 fe ff
	ff		 mov	 eax, DWORD PTR ___param0$[ebp]
  007dd	89 85 bc fe ff
	ff		 mov	 DWORD PTR $T4[ebp], eax

; 1250 :         return iterator(_Scary->_Myhead, _Scary);

  007e3	8d 85 bc fe ff
	ff		 lea	 eax, DWORD PTR $T4[ebp]
  007e9	89 85 d8 fe ff
	ff		 mov	 DWORD PTR $T11[ebp], eax

; 232  :         return this->_Ptr == _Right._Ptr;

  007ef	8b 85 d8 fe ff
	ff		 mov	 eax, DWORD PTR $T11[ebp]
  007f5	8b 00		 mov	 eax, DWORD PTR [eax]
  007f7	3b 85 d4 fe ff
	ff		 cmp	 eax, DWORD PTR $T10[ebp]
  007fd	75 0c		 jne	 SHORT $LN155@Update
  007ff	c7 85 40 ff ff
	ff 01 00 00 00	 mov	 DWORD PTR tv816[ebp], 1
  00809	eb 07		 jmp	 SHORT $LN156@Update
$LN155@Update:
  0080b	83 a5 40 ff ff
	ff 00		 and	 DWORD PTR tv816[ebp], 0
$LN156@Update:
  00812	8a 85 40 ff ff
	ff		 mov	 al, BYTE PTR tv816[ebp]
  00818	88 85 77 ff ff
	ff		 mov	 BYTE PTR $T22[ebp], al
; File D:\Metin2 Server Files\mainline\SRC_2014\Metin2Client\GameLib\FlyingInstance.cpp

; 438  : 			if (m_HittedObjectSet.end() == m_HittedObjectSet.find(pHittedInstance))

  0081e	0f b6 85 77 ff
	ff ff		 movzx	 eax, BYTE PTR $T22[ebp]
  00825	85 c0		 test	 eax, eax
  00827	0f 84 ad 00 00
	00		 je	 $LN20@Update

; 439  : 			{
; 440  : 				m_HittedObjectSet.insert(pHittedInstance);

  0082d	8d 85 68 ff ff
	ff		 lea	 eax, DWORD PTR _pHittedInstance$20[ebp]
  00833	50		 push	 eax
  00834	8d 85 98 fe ff
	ff		 lea	 eax, DWORD PTR $T1[ebp]
  0083a	50		 push	 eax
  0083b	8b 8d 78 ff ff
	ff		 mov	 ecx, DWORD PTR _this$[ebp]
  00841	81 c1 a0 00 00
	00		 add	 ecx, 160		; 000000a0H
  00847	e8 00 00 00 00	 call	 ??$insert@$0A@$0A@@?$_Tree@V?$_Tset_traits@PAVIActorInstance@@U?$less@PAVIActorInstance@@@std@@V?$allocator@PAVIActorInstance@@@3@$0A@@std@@@std@@QAE?AU?$pair@V?$_Tree_const_iterator@V?$_Tree_val@U?$_Tree_simple_types@PAVIActorInstance@@@std@@@std@@@std@@_N@1@ABQAVIActorInstance@@@Z ; std::_Tree<std::_Tset_traits<IActorInstance *,std::less<IActorInstance *>,std::allocator<IActorInstance *>,0> >::insert<0,0>

; 441  : 
; 442  : 				if (m_pHandler)

  0084c	8b 85 78 ff ff
	ff		 mov	 eax, DWORD PTR _this$[ebp]
  00852	83 b8 94 00 00
	00 00		 cmp	 DWORD PTR [eax+148], 0
  00859	74 38		 je	 SHORT $LN21@Update

; 443  : 				{
; 444  : 					m_pHandler->OnExplodingAtAnotherTarget(m_dwSkillIndex, pHittedInstance->GetVirtualID());

  0085b	8b 85 68 ff ff
	ff		 mov	 eax, DWORD PTR _pHittedInstance$20[ebp]
  00861	8b 00		 mov	 eax, DWORD PTR [eax]
  00863	8b 8d 68 ff ff
	ff		 mov	 ecx, DWORD PTR _pHittedInstance$20[ebp]
  00869	ff 50 48	 call	 DWORD PTR [eax+72]
  0086c	50		 push	 eax
  0086d	8b 85 78 ff ff
	ff		 mov	 eax, DWORD PTR _this$[ebp]
  00873	ff 70 28	 push	 DWORD PTR [eax+40]
  00876	8b 85 78 ff ff
	ff		 mov	 eax, DWORD PTR _this$[ebp]
  0087c	8b 80 94 00 00
	00		 mov	 eax, DWORD PTR [eax+148]
  00882	8b 8d 78 ff ff
	ff		 mov	 ecx, DWORD PTR _this$[ebp]
  00888	8b 00		 mov	 eax, DWORD PTR [eax]
  0088a	8b 89 94 00 00
	00		 mov	 ecx, DWORD PTR [ecx+148]
  00890	ff 50 1c	 call	 DWORD PTR [eax+28]
$LN21@Update:

; 445  : 				}
; 446  : 
; 447  : 				if (m_iPierceCount)

  00893	8b 85 78 ff ff
	ff		 mov	 eax, DWORD PTR _this$[ebp]
  00899	83 78 24 00	 cmp	 DWORD PTR [eax+36], 0
  0089d	74 20		 je	 SHORT $LN22@Update

; 448  : 				{
; 449  : 					m_iPierceCount--;

  0089f	8b 85 78 ff ff
	ff		 mov	 eax, DWORD PTR _this$[ebp]
  008a5	8b 40 24	 mov	 eax, DWORD PTR [eax+36]
  008a8	48		 dec	 eax
  008a9	8b 8d 78 ff ff
	ff		 mov	 ecx, DWORD PTR _this$[ebp]
  008af	89 41 24	 mov	 DWORD PTR [ecx+36], eax

; 450  : 					__Bomb();

  008b2	8b 8d 78 ff ff
	ff		 mov	 ecx, DWORD PTR _this$[ebp]
  008b8	e8 00 00 00 00	 call	 ?__Bomb@CFlyingInstance@@QAEXXZ ; CFlyingInstance::__Bomb

; 451  : 				}

  008bd	eb 14		 jmp	 SHORT $LN23@Update
$LN22@Update:

; 452  : 				else
; 453  : 				{
; 454  : 					__Explode();

  008bf	6a 01		 push	 1
  008c1	8b 8d 78 ff ff
	ff		 mov	 ecx, DWORD PTR _this$[ebp]
  008c7	e8 00 00 00 00	 call	 ?__Explode@CFlyingInstance@@QAEX_N@Z ; CFlyingInstance::__Explode

; 455  : 					return false;

  008cc	32 c0		 xor	 al, al
  008ce	e9 8e 01 00 00	 jmp	 $LN1@Update
$LN23@Update:

; 456  : 				}
; 457  : 
; 458  : 				return true;

  008d3	b0 01		 mov	 al, 1
  008d5	e9 87 01 00 00	 jmp	 $LN1@Update
$LN20@Update:

; 459  : 			}
; 460  : 		}
; 461  : 	}
; 462  : 
; 463  : 	if (m_pData->m_bHitOnBackground)

  008da	8b 85 78 ff ff
	ff		 mov	 eax, DWORD PTR _this$[ebp]
  008e0	8b 40 08	 mov	 eax, DWORD PTR [eax+8]
  008e3	0f b6 40 68	 movzx	 eax, BYTE PTR [eax+104]
  008e7	85 c0		 test	 eax, eax
  008e9	0f 84 70 01 00
	00		 je	 $LN28@Update
; File D:\Metin2 Server Files\mainline\SRC_2014\Metin2Client\eterBase\Singleton.h

; 27   : 		return (*ms_singleton);

  008ef	a1 00 00 00 00	 mov	 eax, DWORD PTR ?ms_singleton@?$CSingleton@VCFlyingManager@@@@0PAVCFlyingManager@@A ; CSingleton<CFlyingManager>::ms_singleton
  008f4	89 85 d0 fe ff
	ff		 mov	 DWORD PTR $T9[ebp], eax
; File D:\Metin2 Server Files\mainline\SRC_2014\Metin2Client\GameLib\FlyingObjectManager.h

; 39   : 	CMapManager * GetMapManagerPtr() { return m_pMapManager; }

  008fa	8b 85 d0 fe ff
	ff		 mov	 eax, DWORD PTR $T9[ebp]
  00900	8b 40 1c	 mov	 eax, DWORD PTR [eax+28]
  00903	89 85 cc fe ff
	ff		 mov	 DWORD PTR $T8[ebp], eax
; File D:\Metin2 Server Files\mainline\SRC_2014\Metin2Client\GameLib\FlyingInstance.cpp

; 467  : 		if (CFlyingManager::Instance().GetMapManagerPtr())

  00909	83 bd cc fe ff
	ff 00		 cmp	 DWORD PTR $T8[ebp], 0
  00910	0f 84 a8 00 00
	00		 je	 $LN26@Update
; File D:\Metin2 Server Files\mainline\SRC_2014\Metin2Client\eterBase\Singleton.h

; 27   : 		return (*ms_singleton);

  00916	a1 00 00 00 00	 mov	 eax, DWORD PTR ?ms_singleton@?$CSingleton@VCFlyingManager@@@@0PAVCFlyingManager@@A ; CSingleton<CFlyingManager>::ms_singleton
  0091b	89 85 c8 fe ff
	ff		 mov	 DWORD PTR $T7[ebp], eax
; File D:\Metin2 Server Files\mainline\SRC_2014\Metin2Client\GameLib\FlyingObjectManager.h

; 39   : 	CMapManager * GetMapManagerPtr() { return m_pMapManager; }

  00921	8b 85 c8 fe ff
	ff		 mov	 eax, DWORD PTR $T7[ebp]
  00927	8b 40 1c	 mov	 eax, DWORD PTR [eax+28]
  0092a	89 85 c4 fe ff
	ff		 mov	 DWORD PTR $T6[ebp], eax
; File D:\Metin2 Server Files\mainline\SRC_2014\Metin2Client\GameLib\FlyingInstance.cpp

; 469  : 			float fGroundHeight = CFlyingManager::Instance().GetMapManagerPtr()->GetTerrainHeight(m_v3Position.x,-m_v3Position.y);

  00930	8b 85 78 ff ff
	ff		 mov	 eax, DWORD PTR _this$[ebp]
  00936	f3 0f 10 40 30	 movss	 xmm0, DWORD PTR [eax+48]
  0093b	0f 57 05 00 00
	00 00		 xorps	 xmm0, DWORD PTR __xmm@80000000800000008000000080000000
  00942	51		 push	 ecx
  00943	f3 0f 11 04 24	 movss	 DWORD PTR [esp], xmm0
  00948	8b 85 78 ff ff
	ff		 mov	 eax, DWORD PTR _this$[ebp]
  0094e	51		 push	 ecx
  0094f	f3 0f 10 40 2c	 movss	 xmm0, DWORD PTR [eax+44]
  00954	f3 0f 11 04 24	 movss	 DWORD PTR [esp], xmm0
  00959	8b 8d c4 fe ff
	ff		 mov	 ecx, DWORD PTR $T6[ebp]
  0095f	e8 00 00 00 00	 call	 ?GetTerrainHeight@CMapManager@@QAEMMM@Z ; CMapManager::GetTerrainHeight
  00964	d9 9d c0 fe ff
	ff		 fstp	 DWORD PTR _fGroundHeight$5[ebp]

; 470  : 			if (fGroundHeight>m_v3Position.z)

  0096a	8b 85 78 ff ff
	ff		 mov	 eax, DWORD PTR _this$[ebp]
  00970	f3 0f 10 85 c0
	fe ff ff	 movss	 xmm0, DWORD PTR _fGroundHeight$5[ebp]
  00978	0f 2f 40 34	 comiss	 xmm0, DWORD PTR [eax+52]
  0097c	76 40		 jbe	 SHORT $LN26@Update

; 471  : 			{
; 472  : 				if (m_pHandler)

  0097e	8b 85 78 ff ff
	ff		 mov	 eax, DWORD PTR _this$[ebp]
  00984	83 b8 94 00 00
	00 00		 cmp	 DWORD PTR [eax+148], 0
  0098b	74 1d		 je	 SHORT $LN27@Update

; 473  : 					m_pHandler->OnExplodingAtBackground();

  0098d	8b 85 78 ff ff
	ff		 mov	 eax, DWORD PTR _this$[ebp]
  00993	8b 80 94 00 00
	00		 mov	 eax, DWORD PTR [eax+148]
  00999	8b 8d 78 ff ff
	ff		 mov	 ecx, DWORD PTR _this$[ebp]
  0099f	8b 00		 mov	 eax, DWORD PTR [eax]
  009a1	8b 89 94 00 00
	00		 mov	 ecx, DWORD PTR [ecx+148]
  009a7	ff 50 18	 call	 DWORD PTR [eax+24]
$LN27@Update:

; 474  : 
; 475  : 				__Explode();

  009aa	6a 01		 push	 1
  009ac	8b 8d 78 ff ff
	ff		 mov	 ecx, DWORD PTR _this$[ebp]
  009b2	e8 00 00 00 00	 call	 ?__Explode@CFlyingInstance@@QAEX_N@Z ; CFlyingInstance::__Explode

; 476  : 				return false;

  009b7	32 c0		 xor	 al, al
  009b9	e9 a3 00 00 00	 jmp	 $LN1@Update
$LN26@Update:

; 285  : 		s.fRadius = 1.0f;

  009be	f3 0f 10 05 00
	00 00 00	 movss	 xmm0, DWORD PTR __real@3f800000
  009c6	f3 0f 11 45 94	 movss	 DWORD PTR _kCheckBackgroundDuringFlying$23[ebp+24], xmm0

; 286  : 		s.v3LastPosition = v1;

  009cb	8d 7d 88	 lea	 edi, DWORD PTR _kCheckBackgroundDuringFlying$23[ebp+12]
  009ce	8d 75 e4	 lea	 esi, DWORD PTR _v3LastPosition$[ebp]
  009d1	a5		 movsd
  009d2	a5		 movsd
  009d3	a5		 movsd

; 477  : 			}
; 478  : 		}
; 479  : 
; 480  : 		// + 
; 481  : 
; 482  : 		FCheckBackgroundDuringFlying kCheckBackgroundDuringFlying(v3LastPosition,m_v3Position);

  009d4	8b b5 78 ff ff
	ff		 mov	 esi, DWORD PTR _this$[ebp]
  009da	83 c6 2c	 add	 esi, 44			; 0000002cH

; 287  : 		s.v3Position = v2;

  009dd	8d bd 7c ff ff
	ff		 lea	 edi, DWORD PTR _kCheckBackgroundDuringFlying$23[ebp]
  009e3	a5		 movsd
  009e4	a5		 movsd
  009e5	a5		 movsd

; 288  : 		bHit = false;

  009e6	c6 45 98 00	 mov	 BYTE PTR _kCheckBackgroundDuringFlying$23[ebp+28], 0

; 483  : 		rkCullingMgr.ForInRange(vecStart,fCollisionSphereRadius, &kCheckBackgroundDuringFlying);

  009ea	8d 85 7c ff ff
	ff		 lea	 eax, DWORD PTR _kCheckBackgroundDuringFlying$23[ebp]
  009f0	50		 push	 eax
  009f1	51		 push	 ecx
  009f2	f3 0f 10 85 3c
	ff ff ff	 movss	 xmm0, DWORD PTR _fCollisionSphereRadius$[ebp]
  009fa	f3 0f 11 04 24	 movss	 DWORD PTR [esp], xmm0
  009ff	8d 45 cc	 lea	 eax, DWORD PTR _vecStart$[ebp]
  00a02	50		 push	 eax
  00a03	8b 8d 38 ff ff
	ff		 mov	 ecx, DWORD PTR _rkCullingMgr$[ebp]
  00a09	e8 00 00 00 00	 call	 ??$ForInRange@UFCheckBackgroundDuringFlying@@@CCullingManager@@QAEXABVVector3d@@MPAUFCheckBackgroundDuringFlying@@@Z ; CCullingManager::ForInRange<FCheckBackgroundDuringFlying>

; 305  : 		return bHit;

  00a0e	8a 45 98	 mov	 al, BYTE PTR _kCheckBackgroundDuringFlying$23[ebp+28]
  00a11	88 85 76 ff ff
	ff		 mov	 BYTE PTR $T21[ebp], al

; 484  : 		
; 485  : 		if (kCheckBackgroundDuringFlying.IsHitted())

  00a17	0f b6 85 76 ff
	ff ff		 movzx	 eax, BYTE PTR $T21[ebp]
  00a1e	85 c0		 test	 eax, eax
  00a20	74 3d		 je	 SHORT $LN28@Update

; 486  : 		{
; 487  : 			if (m_pHandler)

  00a22	8b 85 78 ff ff
	ff		 mov	 eax, DWORD PTR _this$[ebp]
  00a28	83 b8 94 00 00
	00 00		 cmp	 DWORD PTR [eax+148], 0
  00a2f	74 1d		 je	 SHORT $LN29@Update

; 488  : 				m_pHandler->OnExplodingAtBackground();

  00a31	8b 85 78 ff ff
	ff		 mov	 eax, DWORD PTR _this$[ebp]
  00a37	8b 80 94 00 00
	00		 mov	 eax, DWORD PTR [eax+148]
  00a3d	8b 8d 78 ff ff
	ff		 mov	 ecx, DWORD PTR _this$[ebp]
  00a43	8b 00		 mov	 eax, DWORD PTR [eax]
  00a45	8b 89 94 00 00
	00		 mov	 ecx, DWORD PTR [ecx+148]
  00a4b	ff 50 18	 call	 DWORD PTR [eax+24]
$LN29@Update:

; 489  : 
; 490  : 			__Explode();

  00a4e	6a 01		 push	 1
  00a50	8b 8d 78 ff ff
	ff		 mov	 ecx, DWORD PTR _this$[ebp]
  00a56	e8 00 00 00 00	 call	 ?__Explode@CFlyingInstance@@QAEX_N@Z ; CFlyingInstance::__Explode

; 491  : 			return false;

  00a5b	32 c0		 xor	 al, al
  00a5d	eb 02		 jmp	 SHORT $LN1@Update
$LN28@Update:

; 492  : 		}
; 493  : 	}	
; 494  : 
; 495  : 	return true;

  00a5f	b0 01		 mov	 al, 1
$LN1@Update:

; 496  : }

  00a61	5f		 pop	 edi
  00a62	5e		 pop	 esi
  00a63	8b 4d fc	 mov	 ecx, DWORD PTR __$ArrayPad$[ebp]
  00a66	33 cd		 xor	 ecx, ebp
  00a68	e8 00 00 00 00	 call	 @__security_check_cookie@4
  00a6d	c9		 leave
  00a6e	c3		 ret	 0
?Update@CFlyingInstance@@QAE_NXZ ENDP			; CFlyingInstance::Update
_TEXT	ENDS
; Function compile flags: /Odspy
; File D:\Metin2 Server Files\mainline\SRC_2014\Metin2Client\GameLib\FlyingInstance.cpp
;	COMDAT ?Create@CFlyingInstance@@QAEXPAVCFlyingData@@ABUD3DXVECTOR3@@ABVCFlyTarget@@_N@Z
_TEXT	SEGMENT
_this$ = -4						; size = 4
_pData$ = 8						; size = 4
_c_rv3StartPos$ = 12					; size = 4
_c_rkTarget$ = 16					; size = 4
_canAttack$ = 20					; size = 1
?Create@CFlyingInstance@@QAEXPAVCFlyingData@@ABUD3DXVECTOR3@@ABVCFlyTarget@@_N@Z PROC ; CFlyingInstance::Create, COMDAT
; _this$ = ecx

; 102  : {

  00000	55		 push	 ebp
  00001	8b ec		 mov	 ebp, esp
  00003	51		 push	 ecx
  00004	89 4d fc	 mov	 DWORD PTR _this$[ebp], ecx

; 103  : 	m_FlyTarget = c_rkTarget;

  00007	ff 75 10	 push	 DWORD PTR _c_rkTarget$[ebp]
  0000a	8b 4d fc	 mov	 ecx, DWORD PTR _this$[ebp]
  0000d	83 c1 60	 add	 ecx, 96			; 00000060H
  00010	e8 00 00 00 00	 call	 ??4CFlyTarget@@QAEAAV0@ABV0@@Z ; CFlyTarget::operator=

; 104  : 	m_canAttack = canAttack;

  00015	8b 45 fc	 mov	 eax, DWORD PTR _this$[ebp]
  00018	8a 4d 14	 mov	 cl, BYTE PTR _canAttack$[ebp]
  0001b	88 48 21	 mov	 BYTE PTR [eax+33], cl

; 105  : 
; 106  : 	__SetDataPointer(pData, c_rv3StartPos);

  0001e	ff 75 0c	 push	 DWORD PTR _c_rv3StartPos$[ebp]
  00021	ff 75 08	 push	 DWORD PTR _pData$[ebp]
  00024	8b 4d fc	 mov	 ecx, DWORD PTR _this$[ebp]
  00027	e8 00 00 00 00	 call	 ?__SetDataPointer@CFlyingInstance@@IAEXPAVCFlyingData@@ABUD3DXVECTOR3@@@Z ; CFlyingInstance::__SetDataPointer

; 107  : 	__SetTargetDirection(m_FlyTarget);

  0002c	8b 45 fc	 mov	 eax, DWORD PTR _this$[ebp]
  0002f	83 c0 60	 add	 eax, 96			; 00000060H
  00032	50		 push	 eax
  00033	8b 4d fc	 mov	 ecx, DWORD PTR _this$[ebp]
  00036	e8 00 00 00 00	 call	 ?__SetTargetDirection@CFlyingInstance@@IAEXABVCFlyTarget@@@Z ; CFlyingInstance::__SetTargetDirection

; 108  : }

  0003b	c9		 leave
  0003c	c2 10 00	 ret	 16			; 00000010H
?Create@CFlyingInstance@@QAEXPAVCFlyingData@@ABUD3DXVECTOR3@@ABVCFlyTarget@@_N@Z ENDP ; CFlyingInstance::Create
_TEXT	ENDS
; Function compile flags: /Odspy
; File D:\Metin2 Server Files\mainline\SRC_2014\Metin2Client\GameLib\FlyingInstance.cpp
;	COMDAT ?Destroy@CFlyingInstance@@QAEXXZ
_TEXT	SEGMENT
_this$ = -4						; size = 4
?Destroy@CFlyingInstance@@QAEXXZ PROC			; CFlyingInstance::Destroy, COMDAT
; _this$ = ecx

; 55   : {

  00000	55		 push	 ebp
  00001	8b ec		 mov	 ebp, esp
  00003	51		 push	 ecx
  00004	89 4d fc	 mov	 DWORD PTR _this$[ebp], ecx

; 56   : 	m_FlyTarget.Clear();

  00007	8b 4d fc	 mov	 ecx, DWORD PTR _this$[ebp]
  0000a	83 c1 60	 add	 ecx, 96			; 00000060H
  0000d	e8 00 00 00 00	 call	 ?Clear@CFlyTarget@@QAEXXZ ; CFlyTarget::Clear

; 57   : 
; 58   : 	ClearAttachInstance();

  00012	8b 4d fc	 mov	 ecx, DWORD PTR _this$[ebp]
  00015	e8 00 00 00 00	 call	 ?ClearAttachInstance@CFlyingInstance@@QAEXXZ ; CFlyingInstance::ClearAttachInstance

; 59   : 
; 60   : 	__Initialize();

  0001a	8b 4d fc	 mov	 ecx, DWORD PTR _this$[ebp]
  0001d	e8 00 00 00 00	 call	 ?__Initialize@CFlyingInstance@@IAEXXZ ; CFlyingInstance::__Initialize

; 61   : }

  00022	c9		 leave
  00023	c3		 ret	 0
?Destroy@CFlyingInstance@@QAEXXZ ENDP			; CFlyingInstance::Destroy
_TEXT	ENDS
; Function compile flags: /Odspy
; File D:\Metin2 Server Files\mainline\SRC_2014\Metin2Client\GameLib\FlyingInstance.cpp
; File C:\Program Files (x86)\Microsoft Visual Studio\2019\Community\VC\Tools\MSVC\14.28.29333\include\vector
; File D:\Metin2 Server Files\mainline\SRC_2014\Metin2Client\GameLib\FlyingInstance.cpp
;	COMDAT ??1CFlyingInstance@@UAE@XZ
_TEXT	SEGMENT
_this$ = -16						; size = 4
__$EHRec$ = -12						; size = 12
??1CFlyingInstance@@UAE@XZ PROC				; CFlyingInstance::~CFlyingInstance, COMDAT
; _this$ = ecx

; 22   : {

  00000	55		 push	 ebp
  00001	8b ec		 mov	 ebp, esp
  00003	6a ff		 push	 -1
  00005	68 00 00 00 00	 push	 __ehhandler$??1CFlyingInstance@@UAE@XZ
  0000a	64 a1 00 00 00
	00		 mov	 eax, DWORD PTR fs:0
  00010	50		 push	 eax
  00011	51		 push	 ecx
  00012	a1 00 00 00 00	 mov	 eax, DWORD PTR ___security_cookie
  00017	33 c5		 xor	 eax, ebp
  00019	50		 push	 eax
  0001a	8d 45 f4	 lea	 eax, DWORD PTR __$EHRec$[ebp]
  0001d	64 a3 00 00 00
	00		 mov	 DWORD PTR fs:0, eax
  00023	89 4d f0	 mov	 DWORD PTR _this$[ebp], ecx
  00026	8b 45 f0	 mov	 eax, DWORD PTR _this$[ebp]
  00029	c7 00 00 00 00
	00		 mov	 DWORD PTR [eax], OFFSET ??_7CFlyingInstance@@6B@

; 23   : 	Destroy();

  0002f	8b 4d f0	 mov	 ecx, DWORD PTR _this$[ebp]
  00032	e8 00 00 00 00	 call	 ?Destroy@CFlyingInstance@@QAEXXZ ; CFlyingInstance::Destroy

; 24   : }

  00037	8b 4d f0	 mov	 ecx, DWORD PTR _this$[ebp]
  0003a	81 c1 a0 00 00
	00		 add	 ecx, 160		; 000000a0H
  00040	e8 00 00 00 00	 call	 ??1?$_Tree@V?$_Tset_traits@PAVIActorInstance@@U?$less@PAVIActorInstance@@@std@@V?$allocator@PAVIActorInstance@@@3@$0A@@std@@@std@@QAE@XZ ; std::_Tree<std::_Tset_traits<IActorInstance *,std::less<IActorInstance *>,std::allocator<IActorInstance *>,0> >::~_Tree<std::_Tset_traits<IActorInstance *,std::less<IActorInstance *>,std::allocator<IActorInstance *>,0> >
  00045	8b 4d f0	 mov	 ecx, DWORD PTR _this$[ebp]
  00048	81 c1 88 00 00
	00		 add	 ecx, 136		; 00000088H
; File C:\Program Files (x86)\Microsoft Visual Studio\2019\Community\VC\Tools\MSVC\14.28.29333\include\vector

; 673  :         _Tidy();

  0004e	e8 00 00 00 00	 call	 ?_Tidy@?$vector@UTAttachEffectInstance@CFlyingInstance@@V?$allocator@UTAttachEffectInstance@CFlyingInstance@@@std@@@std@@AAEXXZ ; std::vector<CFlyingInstance::TAttachEffectInstance,std::allocator<CFlyingInstance::TAttachEffectInstance> >::_Tidy
; File D:\Metin2 Server Files\mainline\SRC_2014\Metin2Client\GameLib\FlyingInstance.cpp

; 24   : }

  00053	8b 4d f0	 mov	 ecx, DWORD PTR _this$[ebp]
  00056	83 c1 60	 add	 ecx, 96			; 00000060H
  00059	e8 00 00 00 00	 call	 ??1CFlyTarget@@UAE@XZ	; CFlyTarget::~CFlyTarget
  0005e	8b 4d f4	 mov	 ecx, DWORD PTR __$EHRec$[ebp]
  00061	64 89 0d 00 00
	00 00		 mov	 DWORD PTR fs:0, ecx
  00068	59		 pop	 ecx
  00069	c9		 leave
  0006a	c3		 ret	 0
  0006b	cc		 int	 3
  0006c	cc		 int	 3
  0006d	cc		 int	 3
  0006e	cc		 int	 3
  0006f	cc		 int	 3
_TEXT	ENDS
;	COMDAT text$x
text$x	SEGMENT
__ehhandler$??1CFlyingInstance@@UAE@XZ:
  00000	90		 npad	 1
  00001	90		 npad	 1
  00002	8b 54 24 08	 mov	 edx, DWORD PTR [esp+8]
  00006	8d 42 0c	 lea	 eax, DWORD PTR [edx+12]
  00009	8b 4a f8	 mov	 ecx, DWORD PTR [edx-8]
  0000c	33 c8		 xor	 ecx, eax
  0000e	e8 00 00 00 00	 call	 @__security_check_cookie@4
  00013	b8 00 00 00 00	 mov	 eax, OFFSET __ehfuncinfo$??1CFlyingInstance@@UAE@XZ
  00018	e9 00 00 00 00	 jmp	 ___CxxFrameHandler3
text$x	ENDS
??1CFlyingInstance@@UAE@XZ ENDP				; CFlyingInstance::~CFlyingInstance
; Function compile flags: /Odspy
; File D:\Metin2 Server Files\mainline\SRC_2014\Metin2Client\GameLib\FlyingInstance.cpp
; File C:\Program Files (x86)\Microsoft Visual Studio\2019\Community\VC\Tools\MSVC\14.28.29333\include\vector
; File C:\Program Files (x86)\Microsoft Visual Studio\2019\Community\VC\Tools\MSVC\14.28.29333\include\xmemory
; File C:\Program Files (x86)\Microsoft Visual Studio\2019\Community\VC\Tools\MSVC\14.28.29333\include\vector
; File D:\Metin2 Server Files\mainline\SRC_2014\Metin2Client\GameLib\FlyingInstance.cpp
; File C:\Program Files (x86)\Microsoft Visual Studio\2019\Community\VC\Tools\MSVC\14.28.29333\include\set
; File D:\Metin2 Server Files\mainline\SRC_2014\Metin2Client\GameLib\FlyingInstance.cpp
;	COMDAT ??0CFlyingInstance@@QAE@XZ
_TEXT	SEGMENT
_this$ = -36						; size = 4
_this$ = -32						; size = 4
_this$ = -28						; size = 4
_this$2 = -24						; size = 4
_this$ = -20						; size = 4
$T3 = -13						; size = 1
__$EHRec$ = -12						; size = 12
??0CFlyingInstance@@QAE@XZ PROC				; CFlyingInstance::CFlyingInstance, COMDAT
; _this$ = ecx

; 17   : {

  00000	55		 push	 ebp
  00001	8b ec		 mov	 ebp, esp
  00003	6a ff		 push	 -1
  00005	68 00 00 00 00	 push	 __ehhandler$??0CFlyingInstance@@QAE@XZ
  0000a	64 a1 00 00 00
	00		 mov	 eax, DWORD PTR fs:0
  00010	50		 push	 eax
  00011	83 ec 18	 sub	 esp, 24			; 00000018H
  00014	a1 00 00 00 00	 mov	 eax, DWORD PTR ___security_cookie
  00019	33 c5		 xor	 eax, ebp
  0001b	50		 push	 eax
  0001c	8d 45 f4	 lea	 eax, DWORD PTR __$EHRec$[ebp]
  0001f	64 a3 00 00 00
	00		 mov	 DWORD PTR fs:0, eax
  00025	89 4d ec	 mov	 DWORD PTR _this$[ebp], ecx
  00028	8b 45 ec	 mov	 eax, DWORD PTR _this$[ebp]
  0002b	c7 00 00 00 00
	00		 mov	 DWORD PTR [eax], OFFSET ??_7CFlyingInstance@@6B@
  00031	8b 4d ec	 mov	 ecx, DWORD PTR _this$[ebp]
  00034	83 c1 60	 add	 ecx, 96			; 00000060H
  00037	e8 00 00 00 00	 call	 ??0CFlyTarget@@QAE@XZ	; CFlyTarget::CFlyTarget
  0003c	83 65 fc 00	 and	 DWORD PTR __$EHRec$[ebp+8], 0
  00040	8b 45 ec	 mov	 eax, DWORD PTR _this$[ebp]
  00043	05 88 00 00 00	 add	 eax, 136		; 00000088H
  00048	89 45 e4	 mov	 DWORD PTR _this$[ebp], eax
; File C:\Program Files (x86)\Microsoft Visual Studio\2019\Community\VC\Tools\MSVC\14.28.29333\include\vector

; 445  :     vector() noexcept(is_nothrow_default_constructible_v<_Alty>) : _Mypair(_Zero_then_variadic_args_t{}) {

  0004b	8b 45 e4	 mov	 eax, DWORD PTR _this$[ebp]
  0004e	89 45 e0	 mov	 DWORD PTR _this$[ebp], eax
; File C:\Program Files (x86)\Microsoft Visual Studio\2019\Community\VC\Tools\MSVC\14.28.29333\include\xmemory

; 1339 :         : _Ty1(), _Myval2(_STD forward<_Other2>(_Val2)...) {}

  00051	8b 45 e0	 mov	 eax, DWORD PTR _this$[ebp]
  00054	89 45 e8	 mov	 DWORD PTR _this$2[ebp], eax
; File C:\Program Files (x86)\Microsoft Visual Studio\2019\Community\VC\Tools\MSVC\14.28.29333\include\vector

; 375  :     _Vector_val() noexcept : _Myfirst(), _Mylast(), _Myend() {}

  00057	8b 45 e8	 mov	 eax, DWORD PTR _this$2[ebp]
  0005a	83 20 00	 and	 DWORD PTR [eax], 0
  0005d	8b 45 e8	 mov	 eax, DWORD PTR _this$2[ebp]
  00060	83 60 04 00	 and	 DWORD PTR [eax+4], 0
  00064	8b 45 e8	 mov	 eax, DWORD PTR _this$2[ebp]
  00067	83 60 08 00	 and	 DWORD PTR [eax+8], 0
; File D:\Metin2 Server Files\mainline\SRC_2014\Metin2Client\GameLib\FlyingInstance.cpp

; 17   : {

  0006b	c6 45 fc 01	 mov	 BYTE PTR __$EHRec$[ebp+8], 1
  0006f	8b 45 ec	 mov	 eax, DWORD PTR _this$[ebp]
  00072	05 a0 00 00 00	 add	 eax, 160		; 000000a0H
  00077	89 45 dc	 mov	 DWORD PTR _this$[ebp], eax
; File C:\Program Files (x86)\Microsoft Visual Studio\2019\Community\VC\Tools\MSVC\14.28.29333\include\set

; 84   :     set() : _Mybase(key_compare()) {}

  0007a	8d 45 f3	 lea	 eax, DWORD PTR $T3[ebp]
  0007d	50		 push	 eax
  0007e	8b 4d dc	 mov	 ecx, DWORD PTR _this$[ebp]
  00081	e8 00 00 00 00	 call	 ??0?$_Tree@V?$_Tset_traits@PAVIActorInstance@@U?$less@PAVIActorInstance@@@std@@V?$allocator@PAVIActorInstance@@@3@$0A@@std@@@std@@QAE@ABU?$less@PAVIActorInstance@@@1@@Z ; std::_Tree<std::_Tset_traits<IActorInstance *,std::less<IActorInstance *>,std::allocator<IActorInstance *>,0> >::_Tree<std::_Tset_traits<IActorInstance *,std::less<IActorInstance *>,std::allocator<IActorInstance *>,0> >
; File D:\Metin2 Server Files\mainline\SRC_2014\Metin2Client\GameLib\FlyingInstance.cpp

; 17   : {

  00086	c6 45 fc 02	 mov	 BYTE PTR __$EHRec$[ebp+8], 2

; 18   : 	__Initialize();

  0008a	8b 4d ec	 mov	 ecx, DWORD PTR _this$[ebp]
  0008d	e8 00 00 00 00	 call	 ?__Initialize@CFlyingInstance@@IAEXXZ ; CFlyingInstance::__Initialize

; 19   : }

  00092	83 4d fc ff	 or	 DWORD PTR __$EHRec$[ebp+8], -1
  00096	8b 45 ec	 mov	 eax, DWORD PTR _this$[ebp]
  00099	8b 4d f4	 mov	 ecx, DWORD PTR __$EHRec$[ebp]
  0009c	64 89 0d 00 00
	00 00		 mov	 DWORD PTR fs:0, ecx
  000a3	59		 pop	 ecx
  000a4	c9		 leave
  000a5	c3		 ret	 0
_TEXT	ENDS
;	COMDAT text$x
text$x	SEGMENT
__unwindfunclet$??0CFlyingInstance@@QAE@XZ$0:
  00000	8b 4d ec	 mov	 ecx, DWORD PTR _this$[ebp]
  00003	83 c1 60	 add	 ecx, 96			; 00000060H
  00006	e9 00 00 00 00	 jmp	 ??1CFlyTarget@@UAE@XZ	; CFlyTarget::~CFlyTarget
__unwindfunclet$??0CFlyingInstance@@QAE@XZ$1:
  0000b	8b 4d ec	 mov	 ecx, DWORD PTR _this$[ebp]
  0000e	81 c1 88 00 00
	00		 add	 ecx, 136		; 00000088H
  00014	e9 00 00 00 00	 jmp	 ??1?$vector@UTAttachEffectInstance@CFlyingInstance@@V?$allocator@UTAttachEffectInstance@CFlyingInstance@@@std@@@std@@QAE@XZ ; std::vector<CFlyingInstance::TAttachEffectInstance,std::allocator<CFlyingInstance::TAttachEffectInstance> >::~vector<CFlyingInstance::TAttachEffectInstance,std::allocator<CFlyingInstance::TAttachEffectInstance> >
__unwindfunclet$??0CFlyingInstance@@QAE@XZ$2:
  00019	8b 4d ec	 mov	 ecx, DWORD PTR _this$[ebp]
  0001c	81 c1 a0 00 00
	00		 add	 ecx, 160		; 000000a0H
  00022	e9 00 00 00 00	 jmp	 ??1?$set@PAVIActorInstance@@U?$less@PAVIActorInstance@@@std@@V?$allocator@PAVIActorInstance@@@3@@std@@QAE@XZ
  00027	cc		 int	 3
  00028	cc		 int	 3
  00029	cc		 int	 3
  0002a	cc		 int	 3
  0002b	cc		 int	 3
__ehhandler$??0CFlyingInstance@@QAE@XZ:
  0002c	90		 npad	 1
  0002d	90		 npad	 1
  0002e	8b 54 24 08	 mov	 edx, DWORD PTR [esp+8]
  00032	8d 42 0c	 lea	 eax, DWORD PTR [edx+12]
  00035	8b 4a e4	 mov	 ecx, DWORD PTR [edx-28]
  00038	33 c8		 xor	 ecx, eax
  0003a	e8 00 00 00 00	 call	 @__security_check_cookie@4
  0003f	b8 00 00 00 00	 mov	 eax, OFFSET __ehfuncinfo$??0CFlyingInstance@@QAE@XZ
  00044	e9 00 00 00 00	 jmp	 ___CxxFrameHandler3
text$x	ENDS
??0CFlyingInstance@@QAE@XZ ENDP				; CFlyingInstance::CFlyingInstance
; Function compile flags: /Odspy
; File D:\Metin2 Server Files\mainline\SRC_2014\Metin2Client\GameLib\FlyingInstance.cpp
;	COMDAT ?SetFlyTarget@CFlyingInstance@@QAEXABVCFlyTarget@@@Z
_TEXT	SEGMENT
_this$ = -4						; size = 4
_cr_Target$ = 8						; size = 4
?SetFlyTarget@CFlyingInstance@@QAEXABVCFlyTarget@@@Z PROC ; CFlyingInstance::SetFlyTarget, COMDAT
; _this$ = ecx

; 136  : {

  00000	55		 push	 ebp
  00001	8b ec		 mov	 ebp, esp
  00003	51		 push	 ecx
  00004	89 4d fc	 mov	 DWORD PTR _this$[ebp], ecx

; 137  : 	//m_pFlyTarget = pTarget;
; 138  : 	m_FlyTarget = cr_Target;

  00007	ff 75 08	 push	 DWORD PTR _cr_Target$[ebp]
  0000a	8b 4d fc	 mov	 ecx, DWORD PTR _this$[ebp]
  0000d	83 c1 60	 add	 ecx, 96			; 00000060H
  00010	e8 00 00 00 00	 call	 ??4CFlyTarget@@QAEAAV0@ABV0@@Z ; CFlyTarget::operator=

; 139  : 	//SetStartTargetPosition(m_FlyTarget.GetFlyTargetPosition());
; 140  : 
; 141  : 	__SetTargetDirection(m_FlyTarget);

  00015	8b 45 fc	 mov	 eax, DWORD PTR _this$[ebp]
  00018	83 c0 60	 add	 eax, 96			; 00000060H
  0001b	50		 push	 eax
  0001c	8b 4d fc	 mov	 ecx, DWORD PTR _this$[ebp]
  0001f	e8 00 00 00 00	 call	 ?__SetTargetDirection@CFlyingInstance@@IAEXABVCFlyTarget@@@Z ; CFlyingInstance::__SetTargetDirection

; 142  : }

  00024	c9		 leave
  00025	c2 04 00	 ret	 4
?SetFlyTarget@CFlyingInstance@@QAEXABVCFlyTarget@@@Z ENDP ; CFlyingInstance::SetFlyTarget
_TEXT	ENDS
; Function compile flags: /Odspy
; File D:\Metin2 Server Files\mainline\SRC_2014\Metin2Client\GameLib\FlyingInstance.cpp
;	COMDAT ?SetDataPointer@CFlyingInstance@@QAEXPAVCFlyingData@@ABUD3DXVECTOR3@@@Z
_TEXT	SEGMENT
_this$ = -4						; size = 4
_pData$ = 8						; size = 4
_v3StartPosition$ = 12					; size = 4
?SetDataPointer@CFlyingInstance@@QAEXPAVCFlyingData@@ABUD3DXVECTOR3@@@Z PROC ; CFlyingInstance::SetDataPointer, COMDAT
; _this$ = ecx

; 565  : {

  00000	55		 push	 ebp
  00001	8b ec		 mov	 ebp, esp
  00003	51		 push	 ecx
  00004	89 4d fc	 mov	 DWORD PTR _this$[ebp], ecx

; 566  : 	__SetDataPointer(pData, v3StartPosition);

  00007	ff 75 0c	 push	 DWORD PTR _v3StartPosition$[ebp]
  0000a	ff 75 08	 push	 DWORD PTR _pData$[ebp]
  0000d	8b 4d fc	 mov	 ecx, DWORD PTR _this$[ebp]
  00010	e8 00 00 00 00	 call	 ?__SetDataPointer@CFlyingInstance@@IAEXPAVCFlyingData@@ABUD3DXVECTOR3@@@Z ; CFlyingInstance::__SetDataPointer

; 567  : }

  00015	c9		 leave
  00016	c2 08 00	 ret	 8
?SetDataPointer@CFlyingInstance@@QAEXPAVCFlyingData@@ABUD3DXVECTOR3@@@Z ENDP ; CFlyingInstance::SetDataPointer
_TEXT	ENDS
; Function compile flags: /Odspy
; File D:\Metin2 Server Files\mainline\SRC_2014\Metin2Client\GameLib\FlyingInstance.cpp
;	COMDAT ?Clear@CFlyingInstance@@QAEXXZ
_TEXT	SEGMENT
_this$ = -4						; size = 4
?Clear@CFlyingInstance@@QAEXXZ PROC			; CFlyingInstance::Clear, COMDAT
; _this$ = ecx

; 50   : {

  00000	55		 push	 ebp
  00001	8b ec		 mov	 ebp, esp
  00003	51		 push	 ecx
  00004	89 4d fc	 mov	 DWORD PTR _this$[ebp], ecx

; 51   : 	Destroy();

  00007	8b 4d fc	 mov	 ecx, DWORD PTR _this$[ebp]
  0000a	e8 00 00 00 00	 call	 ?Destroy@CFlyingInstance@@QAEXXZ ; CFlyingInstance::Destroy

; 52   : }

  0000f	c9		 leave
  00010	c3		 ret	 0
?Clear@CFlyingInstance@@QAEXXZ ENDP			; CFlyingInstance::Clear
_TEXT	ENDS
; Function compile flags: /Odspy
; File D:\Metin2 Server Files\mainline\SRC_2014\Metin2Client\SphereLib\spherepack.h
;	COMDAT ??_GSpherePackCallback@@UAEPAXI@Z
_TEXT	SEGMENT
_this$ = -4						; size = 4
___flags$ = 8						; size = 4
??_GSpherePackCallback@@UAEPAXI@Z PROC			; SpherePackCallback::`scalar deleting destructor', COMDAT
; _this$ = ecx
  00000	55		 push	 ebp
  00001	8b ec		 mov	 ebp, esp
  00003	51		 push	 ecx
  00004	89 4d fc	 mov	 DWORD PTR _this$[ebp], ecx

; 56   : 	virtual ~SpherePackCallback() {}

  00007	8b 45 fc	 mov	 eax, DWORD PTR _this$[ebp]
  0000a	c7 00 00 00 00
	00		 mov	 DWORD PTR [eax], OFFSET ??_7SpherePackCallback@@6B@
  00010	8b 45 08	 mov	 eax, DWORD PTR ___flags$[ebp]
  00013	83 e0 01	 and	 eax, 1
  00016	74 0c		 je	 SHORT $LN2@scalar
  00018	6a 04		 push	 4
  0001a	ff 75 fc	 push	 DWORD PTR _this$[ebp]
  0001d	e8 00 00 00 00	 call	 ??3@YAXPAXI@Z		; operator delete
  00022	59		 pop	 ecx
  00023	59		 pop	 ecx
$LN2@scalar:
  00024	8b 45 fc	 mov	 eax, DWORD PTR _this$[ebp]
  00027	c9		 leave
  00028	c2 04 00	 ret	 4
??_GSpherePackCallback@@UAEPAXI@Z ENDP			; SpherePackCallback::`scalar deleting destructor'
_TEXT	ENDS
; Function compile flags: /Odspy
; File D:\Metin2 Server Files\mainline\SRC_2014\Metin2Client\SphereLib\spherepack.h
;	COMDAT ?PointTest2dCallback@SpherePackCallback@@UAEXABVVector3d@@PAVSpherePack@@W4ViewState@@@Z
_TEXT	SEGMENT
_this$ = -4						; size = 4
_searchpos$ = 8						; size = 4
_sphere$ = 12						; size = 4
_state$ = 16						; size = 4
?PointTest2dCallback@SpherePackCallback@@UAEXABVVector3d@@PAVSpherePack@@W4ViewState@@@Z PROC ; SpherePackCallback::PointTest2dCallback, COMDAT
; _this$ = ecx

; 79   : 	{};

  00000	55		 push	 ebp
  00001	8b ec		 mov	 ebp, esp
  00003	51		 push	 ecx
  00004	89 4d fc	 mov	 DWORD PTR _this$[ebp], ecx
  00007	c9		 leave
  00008	c2 0c 00	 ret	 12			; 0000000cH
?PointTest2dCallback@SpherePackCallback@@UAEXABVVector3d@@PAVSpherePack@@W4ViewState@@@Z ENDP ; SpherePackCallback::PointTest2dCallback
_TEXT	ENDS
; Function compile flags: /Odspy
; File D:\Metin2 Server Files\mainline\SRC_2014\Metin2Client\SphereLib\spherepack.h
;	COMDAT ?RangeTestCallback@SpherePackCallback@@UAEXABVVector3d@@MPAVSpherePack@@W4ViewState@@@Z
_TEXT	SEGMENT
_this$ = -4						; size = 4
_searchpos$ = 8						; size = 4
_distance$ = 12						; size = 4
_sphere$ = 16						; size = 4
_state$ = 20						; size = 4
?RangeTestCallback@SpherePackCallback@@UAEXABVVector3d@@MPAVSpherePack@@W4ViewState@@@Z PROC ; SpherePackCallback::RangeTestCallback, COMDAT
; _this$ = ecx

; 74   : 	{};

  00000	55		 push	 ebp
  00001	8b ec		 mov	 ebp, esp
  00003	51		 push	 ecx
  00004	89 4d fc	 mov	 DWORD PTR _this$[ebp], ecx
  00007	c9		 leave
  00008	c2 10 00	 ret	 16			; 00000010H
?RangeTestCallback@SpherePackCallback@@UAEXABVVector3d@@MPAVSpherePack@@W4ViewState@@@Z ENDP ; SpherePackCallback::RangeTestCallback
_TEXT	ENDS
; Function compile flags: /Odspy
; File D:\Metin2 Server Files\mainline\SRC_2014\Metin2Client\SphereLib\spherepack.h
;	COMDAT ?RayTraceCallback@SpherePackCallback@@UAEXABVVector3d@@0M0PAVSpherePack@@@Z
_TEXT	SEGMENT
_this$ = -4						; size = 4
_p1$ = 8						; size = 4
_dir$ = 12						; size = 4
_distance$ = 16						; size = 4
_sect$ = 20						; size = 4
_sphere$ = 24						; size = 4
?RayTraceCallback@SpherePackCallback@@UAEXABVVector3d@@0M0PAVSpherePack@@@Z PROC ; SpherePackCallback::RayTraceCallback, COMDAT
; _this$ = ecx

; 68   : 	{};

  00000	55		 push	 ebp
  00001	8b ec		 mov	 ebp, esp
  00003	51		 push	 ecx
  00004	89 4d fc	 mov	 DWORD PTR _this$[ebp], ecx
  00007	c9		 leave
  00008	c2 14 00	 ret	 20			; 00000014H
?RayTraceCallback@SpherePackCallback@@UAEXABVVector3d@@0M0PAVSpherePack@@@Z ENDP ; SpherePackCallback::RayTraceCallback
_TEXT	ENDS
; Function compile flags: /Odspy
; File D:\Metin2 Server Files\mainline\SRC_2014\Metin2Client\SphereLib\spherepack.h
;	COMDAT ?VisibilityCallback@SpherePackCallback@@UAEXABVFrustum@@PAVSpherePack@@W4ViewState@@@Z
_TEXT	SEGMENT
_this$ = -4						; size = 4
_f$ = 8							; size = 4
_sphere$ = 12						; size = 4
_state$ = 16						; size = 4
?VisibilityCallback@SpherePackCallback@@UAEXABVFrustum@@PAVSpherePack@@W4ViewState@@@Z PROC ; SpherePackCallback::VisibilityCallback, COMDAT
; _this$ = ecx

; 61   : 	{};

  00000	55		 push	 ebp
  00001	8b ec		 mov	 ebp, esp
  00003	51		 push	 ecx
  00004	89 4d fc	 mov	 DWORD PTR _this$[ebp], ecx
  00007	c9		 leave
  00008	c2 0c 00	 ret	 12			; 0000000cH
?VisibilityCallback@SpherePackCallback@@UAEXABVFrustum@@PAVSpherePack@@W4ViewState@@@Z ENDP ; SpherePackCallback::VisibilityCallback
_TEXT	ENDS
; Function compile flags: /Odspy
; File D:\Metin2 Server Files\mainline\SRC_2014\Metin2Client\eterLib\GrpMath.h
; File D:\Metin2 Server Files\mainline\SRC_2014\M2Data\include\d3dx8math.inl
; File D:\Metin2 Server Files\mainline\SRC_2014\Metin2Client\eterLib\GrpMath.h
; File D:\Metin2 Server Files\mainline\SRC_2014\M2Data\include\d3dx8math.inl
; File D:\Metin2 Server Files\mainline\SRC_2014\Metin2Client\eterLib\GrpMath.h
; File D:\Metin2 Server Files\mainline\SRC_2014\M2Data\include\d3dx8math.inl
; File D:\Metin2 Server Files\mainline\SRC_2014\Metin2Client\eterLib\GrpMath.h
; File D:\Metin2 Server Files\mainline\SRC_2014\M2Data\include\d3dx8math.inl
; File D:\Metin2 Server Files\mainline\SRC_2014\Metin2Client\eterLib\GrpMath.h
;	COMDAT ?Vec3TransformQuaternion@@YAPAUD3DXVECTOR3@@PAU1@PBU1@PBUD3DXQUATERNION@@@Z
_TEXT	SEGMENT
_fz$ = -84						; size = 4
_fy$ = -80						; size = 4
_fx$ = -76						; size = 4
$T1 = -72						; size = 4
_fz$ = -68						; size = 4
_fy$ = -64						; size = 4
_fx$ = -60						; size = 4
$T2 = -56						; size = 4
_f$ = -52						; size = 4
_f$ = -48						; size = 4
_f$ = -44						; size = 4
_v$3 = -40						; size = 12
$T4 = -28						; size = 12
$T5 = -16						; size = 12
__$ArrayPad$ = -4					; size = 4
_pvout$ = 8						; size = 4
_pv$ = 12						; size = 4
_pq$ = 16						; size = 4
?Vec3TransformQuaternion@@YAPAUD3DXVECTOR3@@PAU1@PBU1@PBUD3DXQUATERNION@@@Z PROC ; Vec3TransformQuaternion, COMDAT

; 111  : {

  00000	55		 push	 ebp
  00001	8b ec		 mov	 ebp, esp
  00003	83 ec 54	 sub	 esp, 84			; 00000054H
  00006	a1 00 00 00 00	 mov	 eax, DWORD PTR ___security_cookie
  0000b	33 c5		 xor	 eax, ebp
  0000d	89 45 fc	 mov	 DWORD PTR __$ArrayPad$[ebp], eax
  00010	56		 push	 esi
  00011	57		 push	 edi
; File D:\Metin2 Server Files\mainline\SRC_2014\M2Data\include\d3dx8math.inl

; 1277 :     v.x = pV1->y * pV2->z - pV1->z * pV2->y;

  00012	8b 45 0c	 mov	 eax, DWORD PTR _pv$[ebp]
  00015	8b 4d 10	 mov	 ecx, DWORD PTR _pq$[ebp]
  00018	f3 0f 10 40 04	 movss	 xmm0, DWORD PTR [eax+4]
  0001d	f3 0f 59 41 08	 mulss	 xmm0, DWORD PTR [ecx+8]
  00022	8b 45 0c	 mov	 eax, DWORD PTR _pv$[ebp]
  00025	8b 4d 10	 mov	 ecx, DWORD PTR _pq$[ebp]
  00028	f3 0f 10 48 08	 movss	 xmm1, DWORD PTR [eax+8]
  0002d	f3 0f 59 49 04	 mulss	 xmm1, DWORD PTR [ecx+4]
  00032	f3 0f 5c c1	 subss	 xmm0, xmm1
  00036	f3 0f 11 45 d8	 movss	 DWORD PTR _v$3[ebp], xmm0

; 1278 :     v.y = pV1->z * pV2->x - pV1->x * pV2->z;

  0003b	8b 45 0c	 mov	 eax, DWORD PTR _pv$[ebp]
  0003e	8b 4d 10	 mov	 ecx, DWORD PTR _pq$[ebp]
  00041	f3 0f 10 40 08	 movss	 xmm0, DWORD PTR [eax+8]
  00046	f3 0f 59 01	 mulss	 xmm0, DWORD PTR [ecx]
  0004a	8b 45 0c	 mov	 eax, DWORD PTR _pv$[ebp]
  0004d	8b 4d 10	 mov	 ecx, DWORD PTR _pq$[ebp]
  00050	f3 0f 10 08	 movss	 xmm1, DWORD PTR [eax]
  00054	f3 0f 59 49 08	 mulss	 xmm1, DWORD PTR [ecx+8]
  00059	f3 0f 5c c1	 subss	 xmm0, xmm1
  0005d	f3 0f 11 45 dc	 movss	 DWORD PTR _v$3[ebp+4], xmm0

; 1279 :     v.z = pV1->x * pV2->y - pV1->y * pV2->x;

  00062	8b 45 0c	 mov	 eax, DWORD PTR _pv$[ebp]
  00065	8b 4d 10	 mov	 ecx, DWORD PTR _pq$[ebp]
  00068	f3 0f 10 00	 movss	 xmm0, DWORD PTR [eax]
  0006c	f3 0f 59 41 04	 mulss	 xmm0, DWORD PTR [ecx+4]
  00071	8b 45 0c	 mov	 eax, DWORD PTR _pv$[ebp]
  00074	8b 4d 10	 mov	 ecx, DWORD PTR _pq$[ebp]
  00077	f3 0f 10 48 04	 movss	 xmm1, DWORD PTR [eax+4]
  0007c	f3 0f 59 09	 mulss	 xmm1, DWORD PTR [ecx]
  00080	f3 0f 5c c1	 subss	 xmm0, xmm1
  00084	f3 0f 11 45 e0	 movss	 DWORD PTR _v$3[ebp+8], xmm0

; 1280 : 
; 1281 :     *pOut = v;

  00089	8d 75 d8	 lea	 esi, DWORD PTR _v$3[ebp]
  0008c	8b 7d 08	 mov	 edi, DWORD PTR _pvout$[ebp]
  0008f	a5		 movsd
  00090	a5		 movsd
  00091	a5		 movsd
; File D:\Metin2 Server Files\mainline\SRC_2014\Metin2Client\eterLib\GrpMath.h

; 113  : 	*pvout *= -2*pq->w;

  00092	8b 45 10	 mov	 eax, DWORD PTR _pq$[ebp]
  00095	f3 0f 10 05 00
	00 00 00	 movss	 xmm0, DWORD PTR __real@c0000000
  0009d	f3 0f 59 40 0c	 mulss	 xmm0, DWORD PTR [eax+12]
  000a2	f3 0f 11 45 d4	 movss	 DWORD PTR _f$[ebp], xmm0
; File D:\Metin2 Server Files\mainline\SRC_2014\M2Data\include\d3dx8math.inl

; 222  :     x *= f;

  000a7	8b 45 08	 mov	 eax, DWORD PTR _pvout$[ebp]
  000aa	f3 0f 10 00	 movss	 xmm0, DWORD PTR [eax]
  000ae	f3 0f 59 45 d4	 mulss	 xmm0, DWORD PTR _f$[ebp]
  000b3	8b 45 08	 mov	 eax, DWORD PTR _pvout$[ebp]
  000b6	f3 0f 11 00	 movss	 DWORD PTR [eax], xmm0

; 223  :     y *= f;

  000ba	8b 45 08	 mov	 eax, DWORD PTR _pvout$[ebp]
  000bd	f3 0f 10 40 04	 movss	 xmm0, DWORD PTR [eax+4]
  000c2	f3 0f 59 45 d4	 mulss	 xmm0, DWORD PTR _f$[ebp]
  000c7	8b 45 08	 mov	 eax, DWORD PTR _pvout$[ebp]
  000ca	f3 0f 11 40 04	 movss	 DWORD PTR [eax+4], xmm0

; 224  :     z *= f;

  000cf	8b 45 08	 mov	 eax, DWORD PTR _pvout$[ebp]
  000d2	f3 0f 10 40 08	 movss	 xmm0, DWORD PTR [eax+8]
  000d7	f3 0f 59 45 d4	 mulss	 xmm0, DWORD PTR _f$[ebp]
  000dc	8b 45 08	 mov	 eax, DWORD PTR _pvout$[ebp]
  000df	f3 0f 11 40 08	 movss	 DWORD PTR [eax+8], xmm0

; 1253 :     return pV->x * pV->x + pV->y * pV->y + pV->z * pV->z;

  000e4	8b 45 10	 mov	 eax, DWORD PTR _pq$[ebp]
  000e7	8b 4d 10	 mov	 ecx, DWORD PTR _pq$[ebp]
  000ea	f3 0f 10 00	 movss	 xmm0, DWORD PTR [eax]
  000ee	f3 0f 59 01	 mulss	 xmm0, DWORD PTR [ecx]
  000f2	8b 45 10	 mov	 eax, DWORD PTR _pq$[ebp]
  000f5	8b 4d 10	 mov	 ecx, DWORD PTR _pq$[ebp]
  000f8	f3 0f 10 48 04	 movss	 xmm1, DWORD PTR [eax+4]
  000fd	f3 0f 59 49 04	 mulss	 xmm1, DWORD PTR [ecx+4]
  00102	f3 0f 58 c1	 addss	 xmm0, xmm1
  00106	8b 45 10	 mov	 eax, DWORD PTR _pq$[ebp]
  00109	8b 4d 10	 mov	 ecx, DWORD PTR _pq$[ebp]
  0010c	f3 0f 10 48 08	 movss	 xmm1, DWORD PTR [eax+8]
  00111	f3 0f 59 49 08	 mulss	 xmm1, DWORD PTR [ecx+8]
  00116	f3 0f 58 c1	 addss	 xmm0, xmm1
  0011a	f3 0f 11 45 c8	 movss	 DWORD PTR $T2[ebp], xmm0
; File D:\Metin2 Server Files\mainline\SRC_2014\Metin2Client\eterLib\GrpMath.h

; 114  : 	*pvout += (pq->w*pq->w - D3DXVec3LengthSq((D3DXVECTOR3*)pq))*(*pv);

  0011f	8b 45 10	 mov	 eax, DWORD PTR _pq$[ebp]
  00122	8b 4d 10	 mov	 ecx, DWORD PTR _pq$[ebp]
  00125	f3 0f 10 40 0c	 movss	 xmm0, DWORD PTR [eax+12]
  0012a	f3 0f 59 41 0c	 mulss	 xmm0, DWORD PTR [ecx+12]
  0012f	f3 0f 5c 45 c8	 subss	 xmm0, DWORD PTR $T2[ebp]
  00134	f3 0f 11 45 d0	 movss	 DWORD PTR _f$[ebp], xmm0
; File D:\Metin2 Server Files\mainline\SRC_2014\M2Data\include\d3dx8math.inl

; 283  :     return D3DXVECTOR3(f * v.x, f * v.y, f * v.z);

  00139	8b 45 0c	 mov	 eax, DWORD PTR _pv$[ebp]
  0013c	f3 0f 10 45 d0	 movss	 xmm0, DWORD PTR _f$[ebp]
  00141	f3 0f 59 00	 mulss	 xmm0, DWORD PTR [eax]
  00145	f3 0f 11 45 c4	 movss	 DWORD PTR _fx$[ebp], xmm0
  0014a	8b 45 0c	 mov	 eax, DWORD PTR _pv$[ebp]
  0014d	f3 0f 10 45 d0	 movss	 xmm0, DWORD PTR _f$[ebp]
  00152	f3 0f 59 40 04	 mulss	 xmm0, DWORD PTR [eax+4]
  00157	f3 0f 11 45 c0	 movss	 DWORD PTR _fy$[ebp], xmm0
  0015c	8b 45 0c	 mov	 eax, DWORD PTR _pv$[ebp]
  0015f	f3 0f 10 45 d0	 movss	 xmm0, DWORD PTR _f$[ebp]
  00164	f3 0f 59 40 08	 mulss	 xmm0, DWORD PTR [eax+8]
  00169	f3 0f 11 45 bc	 movss	 DWORD PTR _fz$[ebp], xmm0

; 180  :     x = fx;

  0016e	f3 0f 10 45 c4	 movss	 xmm0, DWORD PTR _fx$[ebp]
  00173	f3 0f 11 45 f0	 movss	 DWORD PTR $T5[ebp], xmm0

; 181  :     y = fy;

  00178	f3 0f 10 45 c0	 movss	 xmm0, DWORD PTR _fy$[ebp]
  0017d	f3 0f 11 45 f4	 movss	 DWORD PTR $T5[ebp+4], xmm0

; 182  :     z = fz;

  00182	f3 0f 10 45 bc	 movss	 xmm0, DWORD PTR _fz$[ebp]
  00187	f3 0f 11 45 f8	 movss	 DWORD PTR $T5[ebp+8], xmm0

; 204  :     x += v.x;

  0018c	8b 45 08	 mov	 eax, DWORD PTR _pvout$[ebp]
  0018f	f3 0f 10 00	 movss	 xmm0, DWORD PTR [eax]
  00193	f3 0f 58 45 f0	 addss	 xmm0, DWORD PTR $T5[ebp]
  00198	8b 45 08	 mov	 eax, DWORD PTR _pvout$[ebp]
  0019b	f3 0f 11 00	 movss	 DWORD PTR [eax], xmm0

; 205  :     y += v.y;

  0019f	8b 45 08	 mov	 eax, DWORD PTR _pvout$[ebp]
  001a2	f3 0f 10 40 04	 movss	 xmm0, DWORD PTR [eax+4]
  001a7	f3 0f 58 45 f4	 addss	 xmm0, DWORD PTR $T5[ebp+4]
  001ac	8b 45 08	 mov	 eax, DWORD PTR _pvout$[ebp]
  001af	f3 0f 11 40 04	 movss	 DWORD PTR [eax+4], xmm0

; 206  :     z += v.z;

  001b4	8b 45 08	 mov	 eax, DWORD PTR _pvout$[ebp]
  001b7	f3 0f 10 40 08	 movss	 xmm0, DWORD PTR [eax+8]
  001bc	f3 0f 58 45 f8	 addss	 xmm0, DWORD PTR $T5[ebp+8]
  001c1	8b 45 08	 mov	 eax, DWORD PTR _pvout$[ebp]
  001c4	f3 0f 11 40 08	 movss	 DWORD PTR [eax+8], xmm0

; 1264 :     return pV1->x * pV2->x + pV1->y * pV2->y + pV1->z * pV2->z;

  001c9	8b 45 10	 mov	 eax, DWORD PTR _pq$[ebp]
  001cc	8b 4d 0c	 mov	 ecx, DWORD PTR _pv$[ebp]
  001cf	f3 0f 10 00	 movss	 xmm0, DWORD PTR [eax]
  001d3	f3 0f 59 01	 mulss	 xmm0, DWORD PTR [ecx]
  001d7	8b 45 10	 mov	 eax, DWORD PTR _pq$[ebp]
  001da	8b 4d 0c	 mov	 ecx, DWORD PTR _pv$[ebp]
  001dd	f3 0f 10 48 04	 movss	 xmm1, DWORD PTR [eax+4]
  001e2	f3 0f 59 49 04	 mulss	 xmm1, DWORD PTR [ecx+4]
  001e7	f3 0f 58 c1	 addss	 xmm0, xmm1
  001eb	8b 45 10	 mov	 eax, DWORD PTR _pq$[ebp]
  001ee	8b 4d 0c	 mov	 ecx, DWORD PTR _pv$[ebp]
  001f1	f3 0f 10 48 08	 movss	 xmm1, DWORD PTR [eax+8]
  001f6	f3 0f 59 49 08	 mulss	 xmm1, DWORD PTR [ecx+8]
  001fb	f3 0f 58 c1	 addss	 xmm0, xmm1
  001ff	f3 0f 11 45 b8	 movss	 DWORD PTR $T1[ebp], xmm0
; File D:\Metin2 Server Files\mainline\SRC_2014\Metin2Client\eterLib\GrpMath.h

; 115  : 	*pvout += 2*D3DXVec3Dot((D3DXVECTOR3*)pq,pv)*(*(D3DXVECTOR3*)pq);

  00204	f3 0f 10 05 00
	00 00 00	 movss	 xmm0, DWORD PTR __real@40000000
  0020c	f3 0f 59 45 b8	 mulss	 xmm0, DWORD PTR $T1[ebp]
  00211	f3 0f 11 45 cc	 movss	 DWORD PTR _f$[ebp], xmm0
; File D:\Metin2 Server Files\mainline\SRC_2014\M2Data\include\d3dx8math.inl

; 283  :     return D3DXVECTOR3(f * v.x, f * v.y, f * v.z);

  00216	8b 45 10	 mov	 eax, DWORD PTR _pq$[ebp]
  00219	f3 0f 10 45 cc	 movss	 xmm0, DWORD PTR _f$[ebp]
  0021e	f3 0f 59 00	 mulss	 xmm0, DWORD PTR [eax]
  00222	f3 0f 11 45 b4	 movss	 DWORD PTR _fx$[ebp], xmm0
  00227	8b 45 10	 mov	 eax, DWORD PTR _pq$[ebp]
  0022a	f3 0f 10 45 cc	 movss	 xmm0, DWORD PTR _f$[ebp]
  0022f	f3 0f 59 40 04	 mulss	 xmm0, DWORD PTR [eax+4]
  00234	f3 0f 11 45 b0	 movss	 DWORD PTR _fy$[ebp], xmm0
  00239	8b 45 10	 mov	 eax, DWORD PTR _pq$[ebp]
  0023c	f3 0f 10 45 cc	 movss	 xmm0, DWORD PTR _f$[ebp]
  00241	f3 0f 59 40 08	 mulss	 xmm0, DWORD PTR [eax+8]
  00246	f3 0f 11 45 ac	 movss	 DWORD PTR _fz$[ebp], xmm0

; 180  :     x = fx;

  0024b	f3 0f 10 45 b4	 movss	 xmm0, DWORD PTR _fx$[ebp]
  00250	f3 0f 11 45 e4	 movss	 DWORD PTR $T4[ebp], xmm0

; 181  :     y = fy;

  00255	f3 0f 10 45 b0	 movss	 xmm0, DWORD PTR _fy$[ebp]
  0025a	f3 0f 11 45 e8	 movss	 DWORD PTR $T4[ebp+4], xmm0

; 182  :     z = fz;

  0025f	f3 0f 10 45 ac	 movss	 xmm0, DWORD PTR _fz$[ebp]
  00264	f3 0f 11 45 ec	 movss	 DWORD PTR $T4[ebp+8], xmm0

; 204  :     x += v.x;

  00269	8b 45 08	 mov	 eax, DWORD PTR _pvout$[ebp]
  0026c	f3 0f 10 00	 movss	 xmm0, DWORD PTR [eax]
  00270	f3 0f 58 45 e4	 addss	 xmm0, DWORD PTR $T4[ebp]
  00275	8b 45 08	 mov	 eax, DWORD PTR _pvout$[ebp]
  00278	f3 0f 11 00	 movss	 DWORD PTR [eax], xmm0

; 205  :     y += v.y;

  0027c	8b 45 08	 mov	 eax, DWORD PTR _pvout$[ebp]
  0027f	f3 0f 10 40 04	 movss	 xmm0, DWORD PTR [eax+4]
  00284	f3 0f 58 45 e8	 addss	 xmm0, DWORD PTR $T4[ebp+4]
  00289	8b 45 08	 mov	 eax, DWORD PTR _pvout$[ebp]
  0028c	f3 0f 11 40 04	 movss	 DWORD PTR [eax+4], xmm0

; 206  :     z += v.z;

  00291	8b 45 08	 mov	 eax, DWORD PTR _pvout$[ebp]
  00294	f3 0f 10 40 08	 movss	 xmm0, DWORD PTR [eax+8]
  00299	f3 0f 58 45 ec	 addss	 xmm0, DWORD PTR $T4[ebp+8]
  0029e	8b 45 08	 mov	 eax, DWORD PTR _pvout$[ebp]
  002a1	f3 0f 11 40 08	 movss	 DWORD PTR [eax+8], xmm0
; File D:\Metin2 Server Files\mainline\SRC_2014\Metin2Client\eterLib\GrpMath.h

; 117  : 	return pvout;

  002a6	8b 45 08	 mov	 eax, DWORD PTR _pvout$[ebp]

; 118  : }

  002a9	5f		 pop	 edi
  002aa	5e		 pop	 esi
  002ab	8b 4d fc	 mov	 ecx, DWORD PTR __$ArrayPad$[ebp]
  002ae	33 cd		 xor	 ecx, ebp
  002b0	e8 00 00 00 00	 call	 @__security_check_cookie@4
  002b5	c9		 leave
  002b6	c3		 ret	 0
?Vec3TransformQuaternion@@YAPAUD3DXVECTOR3@@PAU1@PBU1@PBUD3DXQUATERNION@@@Z ENDP ; Vec3TransformQuaternion
_TEXT	ENDS
; Function compile flags: /Odspy
; File D:\Metin2 Server Files\mainline\SRC_2014\Metin2Client\eterLib\GrpMath.h
; File D:\Metin2 Server Files\mainline\SRC_2014\M2Data\include\d3dx8math.inl
; File D:\Metin2 Server Files\mainline\SRC_2014\Metin2Client\eterLib\GrpMath.h
; File D:\Metin2 Server Files\mainline\SRC_2014\M2Data\include\d3dx8math.inl
; File D:\Metin2 Server Files\mainline\SRC_2014\Metin2Client\eterLib\GrpMath.h
; File D:\Metin2 Server Files\mainline\SRC_2014\M2Data\include\d3dx8math.inl
; File D:\Metin2 Server Files\mainline\SRC_2014\Metin2Client\eterLib\GrpMath.h
; File D:\Metin2 Server Files\mainline\SRC_2014\M2Data\include\d3dx8math.inl
; File D:\Metin2 Server Files\mainline\SRC_2014\Metin2Client\eterLib\GrpMath.h
;	COMDAT ?Vec3TransformQuaternionSafe@@YAPAUD3DXVECTOR3@@PAU1@PBU1@PBUD3DXQUATERNION@@@Z
_TEXT	SEGMENT
_fz$ = -96						; size = 4
_fy$ = -92						; size = 4
_fx$ = -88						; size = 4
$T1 = -84						; size = 4
_fz$ = -80						; size = 4
_fy$ = -76						; size = 4
_fx$ = -72						; size = 4
$T2 = -68						; size = 4
_f$ = -64						; size = 4
_f$ = -60						; size = 4
_f$ = -56						; size = 4
_v$3 = -52						; size = 12
$T4 = -40						; size = 12
$T5 = -28						; size = 12
_v$ = -16						; size = 12
__$ArrayPad$ = -4					; size = 4
_pvout$ = 8						; size = 4
_pv$ = 12						; size = 4
_pq$ = 16						; size = 4
?Vec3TransformQuaternionSafe@@YAPAUD3DXVECTOR3@@PAU1@PBU1@PBUD3DXQUATERNION@@@Z PROC ; Vec3TransformQuaternionSafe, COMDAT

; 100  : {

  00000	55		 push	 ebp
  00001	8b ec		 mov	 ebp, esp
  00003	83 ec 60	 sub	 esp, 96			; 00000060H
  00006	a1 00 00 00 00	 mov	 eax, DWORD PTR ___security_cookie
  0000b	33 c5		 xor	 eax, ebp
  0000d	89 45 fc	 mov	 DWORD PTR __$ArrayPad$[ebp], eax
  00010	56		 push	 esi
  00011	57		 push	 edi
; File D:\Metin2 Server Files\mainline\SRC_2014\M2Data\include\d3dx8math.inl

; 1277 :     v.x = pV1->y * pV2->z - pV1->z * pV2->y;

  00012	8b 45 0c	 mov	 eax, DWORD PTR _pv$[ebp]
  00015	8b 4d 10	 mov	 ecx, DWORD PTR _pq$[ebp]
  00018	f3 0f 10 40 04	 movss	 xmm0, DWORD PTR [eax+4]
  0001d	f3 0f 59 41 08	 mulss	 xmm0, DWORD PTR [ecx+8]
  00022	8b 45 0c	 mov	 eax, DWORD PTR _pv$[ebp]
  00025	8b 4d 10	 mov	 ecx, DWORD PTR _pq$[ebp]
  00028	f3 0f 10 48 08	 movss	 xmm1, DWORD PTR [eax+8]
  0002d	f3 0f 59 49 04	 mulss	 xmm1, DWORD PTR [ecx+4]
  00032	f3 0f 5c c1	 subss	 xmm0, xmm1
  00036	f3 0f 11 45 cc	 movss	 DWORD PTR _v$3[ebp], xmm0

; 1278 :     v.y = pV1->z * pV2->x - pV1->x * pV2->z;

  0003b	8b 45 0c	 mov	 eax, DWORD PTR _pv$[ebp]
  0003e	8b 4d 10	 mov	 ecx, DWORD PTR _pq$[ebp]
  00041	f3 0f 10 40 08	 movss	 xmm0, DWORD PTR [eax+8]
  00046	f3 0f 59 01	 mulss	 xmm0, DWORD PTR [ecx]
  0004a	8b 45 0c	 mov	 eax, DWORD PTR _pv$[ebp]
  0004d	8b 4d 10	 mov	 ecx, DWORD PTR _pq$[ebp]
  00050	f3 0f 10 08	 movss	 xmm1, DWORD PTR [eax]
  00054	f3 0f 59 49 08	 mulss	 xmm1, DWORD PTR [ecx+8]
  00059	f3 0f 5c c1	 subss	 xmm0, xmm1
  0005d	f3 0f 11 45 d0	 movss	 DWORD PTR _v$3[ebp+4], xmm0

; 1279 :     v.z = pV1->x * pV2->y - pV1->y * pV2->x;

  00062	8b 45 0c	 mov	 eax, DWORD PTR _pv$[ebp]
  00065	8b 4d 10	 mov	 ecx, DWORD PTR _pq$[ebp]
  00068	f3 0f 10 00	 movss	 xmm0, DWORD PTR [eax]
  0006c	f3 0f 59 41 04	 mulss	 xmm0, DWORD PTR [ecx+4]
  00071	8b 45 0c	 mov	 eax, DWORD PTR _pv$[ebp]
  00074	8b 4d 10	 mov	 ecx, DWORD PTR _pq$[ebp]
  00077	f3 0f 10 48 04	 movss	 xmm1, DWORD PTR [eax+4]
  0007c	f3 0f 59 09	 mulss	 xmm1, DWORD PTR [ecx]
  00080	f3 0f 5c c1	 subss	 xmm0, xmm1
  00084	f3 0f 11 45 d4	 movss	 DWORD PTR _v$3[ebp+8], xmm0

; 1280 : 
; 1281 :     *pOut = v;

  00089	8d 75 cc	 lea	 esi, DWORD PTR _v$3[ebp]
  0008c	8d 7d f0	 lea	 edi, DWORD PTR _v$[ebp]
  0008f	a5		 movsd
  00090	a5		 movsd
  00091	a5		 movsd
; File D:\Metin2 Server Files\mainline\SRC_2014\Metin2Client\eterLib\GrpMath.h

; 103  : 	v *= -2*pq->w;

  00092	8b 45 10	 mov	 eax, DWORD PTR _pq$[ebp]
  00095	f3 0f 10 05 00
	00 00 00	 movss	 xmm0, DWORD PTR __real@c0000000
  0009d	f3 0f 59 40 0c	 mulss	 xmm0, DWORD PTR [eax+12]
  000a2	f3 0f 11 45 c8	 movss	 DWORD PTR _f$[ebp], xmm0
; File D:\Metin2 Server Files\mainline\SRC_2014\M2Data\include\d3dx8math.inl

; 222  :     x *= f;

  000a7	f3 0f 10 45 f0	 movss	 xmm0, DWORD PTR _v$[ebp]
  000ac	f3 0f 59 45 c8	 mulss	 xmm0, DWORD PTR _f$[ebp]
  000b1	f3 0f 11 45 f0	 movss	 DWORD PTR _v$[ebp], xmm0

; 223  :     y *= f;

  000b6	f3 0f 10 45 f4	 movss	 xmm0, DWORD PTR _v$[ebp+4]
  000bb	f3 0f 59 45 c8	 mulss	 xmm0, DWORD PTR _f$[ebp]
  000c0	f3 0f 11 45 f4	 movss	 DWORD PTR _v$[ebp+4], xmm0

; 224  :     z *= f;

  000c5	f3 0f 10 45 f8	 movss	 xmm0, DWORD PTR _v$[ebp+8]
  000ca	f3 0f 59 45 c8	 mulss	 xmm0, DWORD PTR _f$[ebp]
  000cf	f3 0f 11 45 f8	 movss	 DWORD PTR _v$[ebp+8], xmm0

; 1253 :     return pV->x * pV->x + pV->y * pV->y + pV->z * pV->z;

  000d4	8b 45 10	 mov	 eax, DWORD PTR _pq$[ebp]
  000d7	8b 4d 10	 mov	 ecx, DWORD PTR _pq$[ebp]
  000da	f3 0f 10 00	 movss	 xmm0, DWORD PTR [eax]
  000de	f3 0f 59 01	 mulss	 xmm0, DWORD PTR [ecx]
  000e2	8b 45 10	 mov	 eax, DWORD PTR _pq$[ebp]
  000e5	8b 4d 10	 mov	 ecx, DWORD PTR _pq$[ebp]
  000e8	f3 0f 10 48 04	 movss	 xmm1, DWORD PTR [eax+4]
  000ed	f3 0f 59 49 04	 mulss	 xmm1, DWORD PTR [ecx+4]
  000f2	f3 0f 58 c1	 addss	 xmm0, xmm1
  000f6	8b 45 10	 mov	 eax, DWORD PTR _pq$[ebp]
  000f9	8b 4d 10	 mov	 ecx, DWORD PTR _pq$[ebp]
  000fc	f3 0f 10 48 08	 movss	 xmm1, DWORD PTR [eax+8]
  00101	f3 0f 59 49 08	 mulss	 xmm1, DWORD PTR [ecx+8]
  00106	f3 0f 58 c1	 addss	 xmm0, xmm1
  0010a	f3 0f 11 45 bc	 movss	 DWORD PTR $T2[ebp], xmm0
; File D:\Metin2 Server Files\mainline\SRC_2014\Metin2Client\eterLib\GrpMath.h

; 104  : 	v += (pq->w*pq->w - D3DXVec3LengthSq((D3DXVECTOR3*)pq))*(*pv);

  0010f	8b 45 10	 mov	 eax, DWORD PTR _pq$[ebp]
  00112	8b 4d 10	 mov	 ecx, DWORD PTR _pq$[ebp]
  00115	f3 0f 10 40 0c	 movss	 xmm0, DWORD PTR [eax+12]
  0011a	f3 0f 59 41 0c	 mulss	 xmm0, DWORD PTR [ecx+12]
  0011f	f3 0f 5c 45 bc	 subss	 xmm0, DWORD PTR $T2[ebp]
  00124	f3 0f 11 45 c4	 movss	 DWORD PTR _f$[ebp], xmm0
; File D:\Metin2 Server Files\mainline\SRC_2014\M2Data\include\d3dx8math.inl

; 283  :     return D3DXVECTOR3(f * v.x, f * v.y, f * v.z);

  00129	8b 45 0c	 mov	 eax, DWORD PTR _pv$[ebp]
  0012c	f3 0f 10 45 c4	 movss	 xmm0, DWORD PTR _f$[ebp]
  00131	f3 0f 59 00	 mulss	 xmm0, DWORD PTR [eax]
  00135	f3 0f 11 45 b8	 movss	 DWORD PTR _fx$[ebp], xmm0
  0013a	8b 45 0c	 mov	 eax, DWORD PTR _pv$[ebp]
  0013d	f3 0f 10 45 c4	 movss	 xmm0, DWORD PTR _f$[ebp]
  00142	f3 0f 59 40 04	 mulss	 xmm0, DWORD PTR [eax+4]
  00147	f3 0f 11 45 b4	 movss	 DWORD PTR _fy$[ebp], xmm0
  0014c	8b 45 0c	 mov	 eax, DWORD PTR _pv$[ebp]
  0014f	f3 0f 10 45 c4	 movss	 xmm0, DWORD PTR _f$[ebp]
  00154	f3 0f 59 40 08	 mulss	 xmm0, DWORD PTR [eax+8]
  00159	f3 0f 11 45 b0	 movss	 DWORD PTR _fz$[ebp], xmm0

; 180  :     x = fx;

  0015e	f3 0f 10 45 b8	 movss	 xmm0, DWORD PTR _fx$[ebp]
  00163	f3 0f 11 45 e4	 movss	 DWORD PTR $T5[ebp], xmm0

; 181  :     y = fy;

  00168	f3 0f 10 45 b4	 movss	 xmm0, DWORD PTR _fy$[ebp]
  0016d	f3 0f 11 45 e8	 movss	 DWORD PTR $T5[ebp+4], xmm0

; 182  :     z = fz;

  00172	f3 0f 10 45 b0	 movss	 xmm0, DWORD PTR _fz$[ebp]
  00177	f3 0f 11 45 ec	 movss	 DWORD PTR $T5[ebp+8], xmm0

; 204  :     x += v.x;

  0017c	f3 0f 10 45 f0	 movss	 xmm0, DWORD PTR _v$[ebp]
  00181	f3 0f 58 45 e4	 addss	 xmm0, DWORD PTR $T5[ebp]
  00186	f3 0f 11 45 f0	 movss	 DWORD PTR _v$[ebp], xmm0

; 205  :     y += v.y;

  0018b	f3 0f 10 45 f4	 movss	 xmm0, DWORD PTR _v$[ebp+4]
  00190	f3 0f 58 45 e8	 addss	 xmm0, DWORD PTR $T5[ebp+4]
  00195	f3 0f 11 45 f4	 movss	 DWORD PTR _v$[ebp+4], xmm0

; 206  :     z += v.z;

  0019a	f3 0f 10 45 f8	 movss	 xmm0, DWORD PTR _v$[ebp+8]
  0019f	f3 0f 58 45 ec	 addss	 xmm0, DWORD PTR $T5[ebp+8]
  001a4	f3 0f 11 45 f8	 movss	 DWORD PTR _v$[ebp+8], xmm0

; 1264 :     return pV1->x * pV2->x + pV1->y * pV2->y + pV1->z * pV2->z;

  001a9	8b 45 10	 mov	 eax, DWORD PTR _pq$[ebp]
  001ac	8b 4d 0c	 mov	 ecx, DWORD PTR _pv$[ebp]
  001af	f3 0f 10 00	 movss	 xmm0, DWORD PTR [eax]
  001b3	f3 0f 59 01	 mulss	 xmm0, DWORD PTR [ecx]
  001b7	8b 45 10	 mov	 eax, DWORD PTR _pq$[ebp]
  001ba	8b 4d 0c	 mov	 ecx, DWORD PTR _pv$[ebp]
  001bd	f3 0f 10 48 04	 movss	 xmm1, DWORD PTR [eax+4]
  001c2	f3 0f 59 49 04	 mulss	 xmm1, DWORD PTR [ecx+4]
  001c7	f3 0f 58 c1	 addss	 xmm0, xmm1
  001cb	8b 45 10	 mov	 eax, DWORD PTR _pq$[ebp]
  001ce	8b 4d 0c	 mov	 ecx, DWORD PTR _pv$[ebp]
  001d1	f3 0f 10 48 08	 movss	 xmm1, DWORD PTR [eax+8]
  001d6	f3 0f 59 49 08	 mulss	 xmm1, DWORD PTR [ecx+8]
  001db	f3 0f 58 c1	 addss	 xmm0, xmm1
  001df	f3 0f 11 45 ac	 movss	 DWORD PTR $T1[ebp], xmm0
; File D:\Metin2 Server Files\mainline\SRC_2014\Metin2Client\eterLib\GrpMath.h

; 105  : 	v += 2*D3DXVec3Dot((D3DXVECTOR3*)pq,pv)*(*(D3DXVECTOR3*)pq);

  001e4	f3 0f 10 05 00
	00 00 00	 movss	 xmm0, DWORD PTR __real@40000000
  001ec	f3 0f 59 45 ac	 mulss	 xmm0, DWORD PTR $T1[ebp]
  001f1	f3 0f 11 45 c0	 movss	 DWORD PTR _f$[ebp], xmm0
; File D:\Metin2 Server Files\mainline\SRC_2014\M2Data\include\d3dx8math.inl

; 283  :     return D3DXVECTOR3(f * v.x, f * v.y, f * v.z);

  001f6	8b 45 10	 mov	 eax, DWORD PTR _pq$[ebp]
  001f9	f3 0f 10 45 c0	 movss	 xmm0, DWORD PTR _f$[ebp]
  001fe	f3 0f 59 00	 mulss	 xmm0, DWORD PTR [eax]
  00202	f3 0f 11 45 a8	 movss	 DWORD PTR _fx$[ebp], xmm0
  00207	8b 45 10	 mov	 eax, DWORD PTR _pq$[ebp]
  0020a	f3 0f 10 45 c0	 movss	 xmm0, DWORD PTR _f$[ebp]
  0020f	f3 0f 59 40 04	 mulss	 xmm0, DWORD PTR [eax+4]
  00214	f3 0f 11 45 a4	 movss	 DWORD PTR _fy$[ebp], xmm0
  00219	8b 45 10	 mov	 eax, DWORD PTR _pq$[ebp]
  0021c	f3 0f 10 45 c0	 movss	 xmm0, DWORD PTR _f$[ebp]
  00221	f3 0f 59 40 08	 mulss	 xmm0, DWORD PTR [eax+8]
  00226	f3 0f 11 45 a0	 movss	 DWORD PTR _fz$[ebp], xmm0

; 180  :     x = fx;

  0022b	f3 0f 10 45 a8	 movss	 xmm0, DWORD PTR _fx$[ebp]
  00230	f3 0f 11 45 d8	 movss	 DWORD PTR $T4[ebp], xmm0

; 181  :     y = fy;

  00235	f3 0f 10 45 a4	 movss	 xmm0, DWORD PTR _fy$[ebp]
  0023a	f3 0f 11 45 dc	 movss	 DWORD PTR $T4[ebp+4], xmm0

; 182  :     z = fz;

  0023f	f3 0f 10 45 a0	 movss	 xmm0, DWORD PTR _fz$[ebp]
  00244	f3 0f 11 45 e0	 movss	 DWORD PTR $T4[ebp+8], xmm0

; 204  :     x += v.x;

  00249	f3 0f 10 45 f0	 movss	 xmm0, DWORD PTR _v$[ebp]
  0024e	f3 0f 58 45 d8	 addss	 xmm0, DWORD PTR $T4[ebp]
  00253	f3 0f 11 45 f0	 movss	 DWORD PTR _v$[ebp], xmm0

; 205  :     y += v.y;

  00258	f3 0f 10 45 f4	 movss	 xmm0, DWORD PTR _v$[ebp+4]
  0025d	f3 0f 58 45 dc	 addss	 xmm0, DWORD PTR $T4[ebp+4]
  00262	f3 0f 11 45 f4	 movss	 DWORD PTR _v$[ebp+4], xmm0

; 206  :     z += v.z;

  00267	f3 0f 10 45 f8	 movss	 xmm0, DWORD PTR _v$[ebp+8]
  0026c	f3 0f 58 45 e0	 addss	 xmm0, DWORD PTR $T4[ebp+8]
  00271	f3 0f 11 45 f8	 movss	 DWORD PTR _v$[ebp+8], xmm0
; File D:\Metin2 Server Files\mainline\SRC_2014\Metin2Client\eterLib\GrpMath.h

; 106  : 	*pvout = v;

  00276	8d 75 f0	 lea	 esi, DWORD PTR _v$[ebp]
  00279	8b 7d 08	 mov	 edi, DWORD PTR _pvout$[ebp]
  0027c	a5		 movsd
  0027d	a5		 movsd
  0027e	a5		 movsd

; 107  : 	return pvout;

  0027f	8b 45 08	 mov	 eax, DWORD PTR _pvout$[ebp]

; 108  : }

  00282	5f		 pop	 edi
  00283	5e		 pop	 esi
  00284	8b 4d fc	 mov	 ecx, DWORD PTR __$ArrayPad$[ebp]
  00287	33 cd		 xor	 ecx, ebp
  00289	e8 00 00 00 00	 call	 @__security_check_cookie@4
  0028e	c9		 leave
  0028f	c3		 ret	 0
?Vec3TransformQuaternionSafe@@YAPAUD3DXVECTOR3@@PAU1@PBU1@PBUD3DXQUATERNION@@@Z ENDP ; Vec3TransformQuaternionSafe
_TEXT	ENDS
; Function compile flags: /Odspy
; File D:\Metin2 Server Files\mainline\SRC_2014\Metin2Client\eterLib\GrpMath.h
; File D:\Metin2 Server Files\mainline\SRC_2014\M2Data\include\d3dx8math.inl
; File D:\Metin2 Server Files\mainline\SRC_2014\Metin2Client\eterLib\GrpMath.h
; File D:\Metin2 Server Files\mainline\SRC_2014\M2Data\include\d3dx8math.inl
; File D:\Metin2 Server Files\mainline\SRC_2014\Metin2Client\eterLib\GrpMath.h
; File D:\Metin2 Server Files\mainline\SRC_2014\M2Data\include\d3dx8math.inl
; File D:\Metin2 Server Files\mainline\SRC_2014\Metin2Client\eterLib\GrpMath.h
; File D:\Metin2 Server Files\mainline\SRC_2014\M2Data\include\d3dx8math.inl
; File D:\Metin2 Server Files\mainline\SRC_2014\Metin2Client\eterLib\GrpMath.h
; File D:\Metin2 Server Files\mainline\SRC_2014\M2Data\include\d3dx8math.inl
; File D:\Metin2 Server Files\mainline\SRC_2014\Metin2Client\eterLib\GrpMath.h
;	COMDAT ?square_distance_between_linesegment_and_point@@YAMABUD3DXVECTOR3@@00@Z
_TEXT	SEGMENT
_fz$ = -108						; size = 4
_fy$ = -104						; size = 4
_fz$ = -100						; size = 4
_fx$ = -96						; size = 4
_fy$ = -92						; size = 4
_fz$ = -88						; size = 4
tv900 = -84						; size = 4
_fx$ = -80						; size = 4
_fy$ = -76						; size = 4
tv962 = -72						; size = 4
_fz$ = -68						; size = 4
_fy$ = -64						; size = 4
_fx$ = -60						; size = 4
_fz$ = -56						; size = 4
_fy$ = -52						; size = 4
_fx$ = -48						; size = 4
tv919 = -44						; size = 4
_fx$ = -40						; size = 4
_fz$ = -36						; size = 4
_fy$ = -32						; size = 4
_fx$ = -28						; size = 4
_fz$ = -24						; size = 4
_fy$ = -20						; size = 4
_fx$ = -16						; size = 4
_d$ = -12						; size = 4
_l$ = -8						; size = 4
_v$1 = -4						; size = 12
$T2 = 8							; size = 12
$T3 = 20						; size = 12
_c$4 = 32						; size = 12
$T5 = 44						; size = 12
$T6 = 56						; size = 12
$T7 = 68						; size = 12
$T8 = 80						; size = 12
$T9 = 92						; size = 12
__$ArrayPad$ = 104					; size = 4
_p1$ = 116						; size = 4
_p2$ = 120						; size = 4
_x$ = 124						; size = 4
?square_distance_between_linesegment_and_point@@YAMABUD3DXVECTOR3@@00@Z PROC ; square_distance_between_linesegment_and_point, COMDAT

; 81   : {

  00000	55		 push	 ebp
  00001	8d 6c 24 94	 lea	 ebp, DWORD PTR [esp-108]
  00005	81 ec d8 00 00
	00		 sub	 esp, 216		; 000000d8H
  0000b	a1 00 00 00 00	 mov	 eax, DWORD PTR ___security_cookie
  00010	33 c5		 xor	 eax, ebp
  00012	89 45 68	 mov	 DWORD PTR __$ArrayPad$[ebp], eax
  00015	56		 push	 esi
  00016	57		 push	 edi
; File D:\Metin2 Server Files\mainline\SRC_2014\M2Data\include\d3dx8math.inl

; 263  :     return D3DXVECTOR3(x - v.x, y - v.y, z - v.z);

  00017	8b 45 78	 mov	 eax, DWORD PTR _p2$[ebp]
  0001a	8b 4d 74	 mov	 ecx, DWORD PTR _p1$[ebp]
  0001d	f3 0f 10 00	 movss	 xmm0, DWORD PTR [eax]
  00021	f3 0f 5c 01	 subss	 xmm0, DWORD PTR [ecx]
  00025	f3 0f 11 45 f0	 movss	 DWORD PTR _fx$[ebp], xmm0
  0002a	8b 45 78	 mov	 eax, DWORD PTR _p2$[ebp]
  0002d	8b 4d 74	 mov	 ecx, DWORD PTR _p1$[ebp]
  00030	f3 0f 10 40 04	 movss	 xmm0, DWORD PTR [eax+4]
  00035	f3 0f 5c 41 04	 subss	 xmm0, DWORD PTR [ecx+4]
  0003a	f3 0f 11 45 ec	 movss	 DWORD PTR _fy$[ebp], xmm0
  0003f	8b 45 78	 mov	 eax, DWORD PTR _p2$[ebp]
  00042	8b 4d 74	 mov	 ecx, DWORD PTR _p1$[ebp]
  00045	f3 0f 10 40 08	 movss	 xmm0, DWORD PTR [eax+8]
  0004a	f3 0f 5c 41 08	 subss	 xmm0, DWORD PTR [ecx+8]
  0004f	f3 0f 11 45 e8	 movss	 DWORD PTR _fz$[ebp], xmm0

; 180  :     x = fx;

  00054	f3 0f 10 45 f0	 movss	 xmm0, DWORD PTR _fx$[ebp]
  00059	f3 0f 11 45 2c	 movss	 DWORD PTR $T5[ebp], xmm0

; 181  :     y = fy;

  0005e	f3 0f 10 45 ec	 movss	 xmm0, DWORD PTR _fy$[ebp]
  00063	f3 0f 11 45 30	 movss	 DWORD PTR $T5[ebp+4], xmm0

; 182  :     z = fz;

  00068	f3 0f 10 45 e8	 movss	 xmm0, DWORD PTR _fz$[ebp]
  0006d	f3 0f 11 45 34	 movss	 DWORD PTR $T5[ebp+8], xmm0

; 1253 :     return pV->x * pV->x + pV->y * pV->y + pV->z * pV->z;

  00072	f3 0f 10 45 34	 movss	 xmm0, DWORD PTR $T5[ebp+8]
  00077	f3 0f 59 45 34	 mulss	 xmm0, DWORD PTR $T5[ebp+8]
  0007c	f3 0f 10 4d 30	 movss	 xmm1, DWORD PTR $T5[ebp+4]
  00081	f3 0f 59 4d 30	 mulss	 xmm1, DWORD PTR $T5[ebp+4]
  00086	f3 0f 10 55 2c	 movss	 xmm2, DWORD PTR $T5[ebp]
  0008b	f3 0f 59 55 2c	 mulss	 xmm2, DWORD PTR $T5[ebp]
  00090	f3 0f 58 d1	 addss	 xmm2, xmm1
  00094	f3 0f 58 d0	 addss	 xmm2, xmm0
; File D:\Metin2 Server Files\mainline\SRC_2014\Metin2Client\eterLib\GrpMath.h

; 82   : 	float l = D3DXVec3LengthSq(&(p2-p1));

  00098	f3 0f 11 55 f8	 movss	 DWORD PTR _l$[ebp], xmm2
; File D:\Metin2 Server Files\mainline\SRC_2014\M2Data\include\d3dx8math.inl

; 263  :     return D3DXVECTOR3(x - v.x, y - v.y, z - v.z);

  0009d	8b 45 78	 mov	 eax, DWORD PTR _p2$[ebp]
  000a0	8b 4d 74	 mov	 ecx, DWORD PTR _p1$[ebp]
  000a3	f3 0f 10 00	 movss	 xmm0, DWORD PTR [eax]
  000a7	f3 0f 5c 01	 subss	 xmm0, DWORD PTR [ecx]
  000ab	f3 0f 11 45 e4	 movss	 DWORD PTR _fx$[ebp], xmm0
  000b0	8b 45 78	 mov	 eax, DWORD PTR _p2$[ebp]
  000b3	8b 4d 74	 mov	 ecx, DWORD PTR _p1$[ebp]
  000b6	f3 0f 10 40 04	 movss	 xmm0, DWORD PTR [eax+4]
  000bb	f3 0f 5c 41 04	 subss	 xmm0, DWORD PTR [ecx+4]
  000c0	f3 0f 11 45 e0	 movss	 DWORD PTR _fy$[ebp], xmm0
  000c5	8b 45 78	 mov	 eax, DWORD PTR _p2$[ebp]
  000c8	8b 4d 74	 mov	 ecx, DWORD PTR _p1$[ebp]
  000cb	f3 0f 10 40 08	 movss	 xmm0, DWORD PTR [eax+8]
  000d0	f3 0f 5c 41 08	 subss	 xmm0, DWORD PTR [ecx+8]
  000d5	f3 0f 11 45 dc	 movss	 DWORD PTR _fz$[ebp], xmm0

; 180  :     x = fx;

  000da	f3 0f 10 45 e4	 movss	 xmm0, DWORD PTR _fx$[ebp]
  000df	f3 0f 11 45 14	 movss	 DWORD PTR $T3[ebp], xmm0

; 181  :     y = fy;

  000e4	f3 0f 10 45 e0	 movss	 xmm0, DWORD PTR _fy$[ebp]
  000e9	f3 0f 11 45 18	 movss	 DWORD PTR $T3[ebp+4], xmm0

; 182  :     z = fz;

  000ee	f3 0f 10 45 dc	 movss	 xmm0, DWORD PTR _fz$[ebp]
  000f3	f3 0f 11 45 1c	 movss	 DWORD PTR $T3[ebp+8], xmm0

; 263  :     return D3DXVECTOR3(x - v.x, y - v.y, z - v.z);

  000f8	8b 45 7c	 mov	 eax, DWORD PTR _x$[ebp]
  000fb	8b 4d 74	 mov	 ecx, DWORD PTR _p1$[ebp]
  000fe	f3 0f 10 00	 movss	 xmm0, DWORD PTR [eax]
  00102	f3 0f 5c 01	 subss	 xmm0, DWORD PTR [ecx]
  00106	f3 0f 11 45 d8	 movss	 DWORD PTR _fx$[ebp], xmm0
  0010b	8b 45 7c	 mov	 eax, DWORD PTR _x$[ebp]
  0010e	8b 4d 74	 mov	 ecx, DWORD PTR _p1$[ebp]
  00111	f3 0f 10 40 04	 movss	 xmm0, DWORD PTR [eax+4]
  00116	f3 0f 5c 41 04	 subss	 xmm0, DWORD PTR [ecx+4]
  0011b	f3 0f 11 45 98	 movss	 DWORD PTR _fy$[ebp], xmm0
  00120	8b 45 7c	 mov	 eax, DWORD PTR _x$[ebp]
  00123	8b 4d 74	 mov	 ecx, DWORD PTR _p1$[ebp]
  00126	f3 0f 10 40 08	 movss	 xmm0, DWORD PTR [eax+8]
  0012b	f3 0f 5c 41 08	 subss	 xmm0, DWORD PTR [ecx+8]
  00130	f3 0f 11 45 9c	 movss	 DWORD PTR _fz$[ebp], xmm0

; 180  :     x = fx;

  00135	f3 0f 10 45 d8	 movss	 xmm0, DWORD PTR _fx$[ebp]
  0013a	f3 0f 11 45 08	 movss	 DWORD PTR $T2[ebp], xmm0

; 181  :     y = fy;

  0013f	f3 0f 10 45 98	 movss	 xmm0, DWORD PTR _fy$[ebp]
  00144	f3 0f 11 45 0c	 movss	 DWORD PTR $T2[ebp+4], xmm0

; 182  :     z = fz;

  00149	f3 0f 10 45 9c	 movss	 xmm0, DWORD PTR _fz$[ebp]
  0014e	f3 0f 11 45 10	 movss	 DWORD PTR $T2[ebp+8], xmm0

; 1264 :     return pV1->x * pV2->x + pV1->y * pV2->y + pV1->z * pV2->z;

  00153	f3 0f 10 45 10	 movss	 xmm0, DWORD PTR $T2[ebp+8]
  00158	f3 0f 59 45 1c	 mulss	 xmm0, DWORD PTR $T3[ebp+8]
  0015d	f3 0f 10 4d 0c	 movss	 xmm1, DWORD PTR $T2[ebp+4]
  00162	f3 0f 59 4d 18	 mulss	 xmm1, DWORD PTR $T3[ebp+4]
  00167	f3 0f 10 55 08	 movss	 xmm2, DWORD PTR $T2[ebp]
  0016c	f3 0f 59 55 14	 mulss	 xmm2, DWORD PTR $T3[ebp]
  00171	f3 0f 58 d1	 addss	 xmm2, xmm1
  00175	f3 0f 58 d0	 addss	 xmm2, xmm0
; File D:\Metin2 Server Files\mainline\SRC_2014\Metin2Client\eterLib\GrpMath.h

; 83   : 	float d = D3DXVec3Dot(&(x-p1),&(p2-p1));

  00179	f3 0f 11 55 f4	 movss	 DWORD PTR _d$[ebp], xmm2

; 84   : 	if (d<=0.0f)

  0017e	0f 57 c0	 xorps	 xmm0, xmm0
  00181	0f 2f 45 f4	 comiss	 xmm0, DWORD PTR _d$[ebp]
  00185	0f 82 93 00 00
	00		 jb	 $LN2@square_dis
; File D:\Metin2 Server Files\mainline\SRC_2014\M2Data\include\d3dx8math.inl

; 263  :     return D3DXVECTOR3(x - v.x, y - v.y, z - v.z);

  0018b	8b 45 7c	 mov	 eax, DWORD PTR _x$[ebp]
  0018e	8b 4d 74	 mov	 ecx, DWORD PTR _p1$[ebp]
  00191	f3 0f 10 00	 movss	 xmm0, DWORD PTR [eax]
  00195	f3 0f 5c 01	 subss	 xmm0, DWORD PTR [ecx]
  00199	f3 0f 11 45 a0	 movss	 DWORD PTR _fx$[ebp], xmm0
  0019e	8b 45 7c	 mov	 eax, DWORD PTR _x$[ebp]
  001a1	8b 4d 74	 mov	 ecx, DWORD PTR _p1$[ebp]
  001a4	f3 0f 10 40 04	 movss	 xmm0, DWORD PTR [eax+4]
  001a9	f3 0f 5c 41 04	 subss	 xmm0, DWORD PTR [ecx+4]
  001ae	f3 0f 11 45 a4	 movss	 DWORD PTR _fy$[ebp], xmm0
  001b3	8b 45 7c	 mov	 eax, DWORD PTR _x$[ebp]
  001b6	8b 4d 74	 mov	 ecx, DWORD PTR _p1$[ebp]
  001b9	f3 0f 10 40 08	 movss	 xmm0, DWORD PTR [eax+8]
  001be	f3 0f 5c 41 08	 subss	 xmm0, DWORD PTR [ecx+8]
  001c3	f3 0f 11 45 a8	 movss	 DWORD PTR _fz$[ebp], xmm0

; 180  :     x = fx;

  001c8	f3 0f 10 45 a0	 movss	 xmm0, DWORD PTR _fx$[ebp]
  001cd	f3 0f 11 45 38	 movss	 DWORD PTR $T6[ebp], xmm0

; 181  :     y = fy;

  001d2	f3 0f 10 45 a4	 movss	 xmm0, DWORD PTR _fy$[ebp]
  001d7	f3 0f 11 45 3c	 movss	 DWORD PTR $T6[ebp+4], xmm0

; 182  :     z = fz;

  001dc	f3 0f 10 45 a8	 movss	 xmm0, DWORD PTR _fz$[ebp]
  001e1	f3 0f 11 45 40	 movss	 DWORD PTR $T6[ebp+8], xmm0

; 1253 :     return pV->x * pV->x + pV->y * pV->y + pV->z * pV->z;

  001e6	f3 0f 10 45 40	 movss	 xmm0, DWORD PTR $T6[ebp+8]
  001eb	f3 0f 59 45 40	 mulss	 xmm0, DWORD PTR $T6[ebp+8]
  001f0	f3 0f 10 4d 3c	 movss	 xmm1, DWORD PTR $T6[ebp+4]
  001f5	f3 0f 59 4d 3c	 mulss	 xmm1, DWORD PTR $T6[ebp+4]
  001fa	f3 0f 10 55 38	 movss	 xmm2, DWORD PTR $T6[ebp]
  001ff	f3 0f 59 55 38	 mulss	 xmm2, DWORD PTR $T6[ebp]
  00204	f3 0f 58 d1	 addss	 xmm2, xmm1
  00208	f3 0f 58 d0	 addss	 xmm2, xmm0
; File D:\Metin2 Server Files\mainline\SRC_2014\Metin2Client\eterLib\GrpMath.h

; 86   : 		return D3DXVec3LengthSq(&(x-p1));

  0020c	f3 0f 11 55 ac	 movss	 DWORD PTR tv900[ebp], xmm2
  00211	d9 45 ac	 fld	 DWORD PTR tv900[ebp]
  00214	e9 f0 01 00 00	 jmp	 $LN5@square_dis

; 87   : 	}

  00219	e9 eb 01 00 00	 jmp	 $LN5@square_dis
$LN2@square_dis:

; 88   : 	else if (d>=l)

  0021e	f3 0f 10 45 f4	 movss	 xmm0, DWORD PTR _d$[ebp]
  00223	0f 2f 45 f8	 comiss	 xmm0, DWORD PTR _l$[ebp]
  00227	0f 82 93 00 00
	00		 jb	 $LN4@square_dis
; File D:\Metin2 Server Files\mainline\SRC_2014\M2Data\include\d3dx8math.inl

; 263  :     return D3DXVECTOR3(x - v.x, y - v.y, z - v.z);

  0022d	8b 45 7c	 mov	 eax, DWORD PTR _x$[ebp]
  00230	8b 4d 78	 mov	 ecx, DWORD PTR _p2$[ebp]
  00233	f3 0f 10 00	 movss	 xmm0, DWORD PTR [eax]
  00237	f3 0f 5c 01	 subss	 xmm0, DWORD PTR [ecx]
  0023b	f3 0f 11 45 b0	 movss	 DWORD PTR _fx$[ebp], xmm0
  00240	8b 45 7c	 mov	 eax, DWORD PTR _x$[ebp]
  00243	8b 4d 78	 mov	 ecx, DWORD PTR _p2$[ebp]
  00246	f3 0f 10 40 04	 movss	 xmm0, DWORD PTR [eax+4]
  0024b	f3 0f 5c 41 04	 subss	 xmm0, DWORD PTR [ecx+4]
  00250	f3 0f 11 45 b4	 movss	 DWORD PTR _fy$[ebp], xmm0
  00255	8b 45 7c	 mov	 eax, DWORD PTR _x$[ebp]
  00258	8b 4d 78	 mov	 ecx, DWORD PTR _p2$[ebp]
  0025b	f3 0f 10 40 08	 movss	 xmm0, DWORD PTR [eax+8]
  00260	f3 0f 5c 41 08	 subss	 xmm0, DWORD PTR [ecx+8]
  00265	f3 0f 11 45 94	 movss	 DWORD PTR _fz$[ebp], xmm0

; 180  :     x = fx;

  0026a	f3 0f 10 45 b0	 movss	 xmm0, DWORD PTR _fx$[ebp]
  0026f	f3 0f 11 45 44	 movss	 DWORD PTR $T7[ebp], xmm0

; 181  :     y = fy;

  00274	f3 0f 10 45 b4	 movss	 xmm0, DWORD PTR _fy$[ebp]
  00279	f3 0f 11 45 48	 movss	 DWORD PTR $T7[ebp+4], xmm0

; 182  :     z = fz;

  0027e	f3 0f 10 45 94	 movss	 xmm0, DWORD PTR _fz$[ebp]
  00283	f3 0f 11 45 4c	 movss	 DWORD PTR $T7[ebp+8], xmm0

; 1253 :     return pV->x * pV->x + pV->y * pV->y + pV->z * pV->z;

  00288	f3 0f 10 45 4c	 movss	 xmm0, DWORD PTR $T7[ebp+8]
  0028d	f3 0f 59 45 4c	 mulss	 xmm0, DWORD PTR $T7[ebp+8]
  00292	f3 0f 10 4d 48	 movss	 xmm1, DWORD PTR $T7[ebp+4]
  00297	f3 0f 59 4d 48	 mulss	 xmm1, DWORD PTR $T7[ebp+4]
  0029c	f3 0f 10 55 44	 movss	 xmm2, DWORD PTR $T7[ebp]
  002a1	f3 0f 59 55 44	 mulss	 xmm2, DWORD PTR $T7[ebp]
  002a6	f3 0f 58 d1	 addss	 xmm2, xmm1
  002aa	f3 0f 58 d0	 addss	 xmm2, xmm0
; File D:\Metin2 Server Files\mainline\SRC_2014\Metin2Client\eterLib\GrpMath.h

; 90   : 		return D3DXVec3LengthSq(&(x-p2));

  002ae	f3 0f 11 55 d4	 movss	 DWORD PTR tv919[ebp], xmm2
  002b3	d9 45 d4	 fld	 DWORD PTR tv919[ebp]
  002b6	e9 4e 01 00 00	 jmp	 $LN5@square_dis

; 91   : 	}

  002bb	e9 49 01 00 00	 jmp	 $LN5@square_dis
$LN4@square_dis:
; File D:\Metin2 Server Files\mainline\SRC_2014\M2Data\include\d3dx8math.inl

; 263  :     return D3DXVECTOR3(x - v.x, y - v.y, z - v.z);

  002c0	8b 45 78	 mov	 eax, DWORD PTR _p2$[ebp]
  002c3	8b 4d 74	 mov	 ecx, DWORD PTR _p1$[ebp]
  002c6	f3 0f 10 00	 movss	 xmm0, DWORD PTR [eax]
  002ca	f3 0f 5c 01	 subss	 xmm0, DWORD PTR [ecx]
  002ce	f3 0f 11 45 d0	 movss	 DWORD PTR _fx$[ebp], xmm0
  002d3	8b 45 78	 mov	 eax, DWORD PTR _p2$[ebp]
  002d6	8b 4d 74	 mov	 ecx, DWORD PTR _p1$[ebp]
  002d9	f3 0f 10 40 04	 movss	 xmm0, DWORD PTR [eax+4]
  002de	f3 0f 5c 41 04	 subss	 xmm0, DWORD PTR [ecx+4]
  002e3	f3 0f 11 45 cc	 movss	 DWORD PTR _fy$[ebp], xmm0
  002e8	8b 45 78	 mov	 eax, DWORD PTR _p2$[ebp]
  002eb	8b 4d 74	 mov	 ecx, DWORD PTR _p1$[ebp]
  002ee	f3 0f 10 40 08	 movss	 xmm0, DWORD PTR [eax+8]
  002f3	f3 0f 5c 41 08	 subss	 xmm0, DWORD PTR [ecx+8]
  002f8	f3 0f 11 45 c8	 movss	 DWORD PTR _fz$[ebp], xmm0

; 180  :     x = fx;

  002fd	f3 0f 10 45 d0	 movss	 xmm0, DWORD PTR _fx$[ebp]
  00302	f3 0f 11 45 5c	 movss	 DWORD PTR $T9[ebp], xmm0

; 181  :     y = fy;

  00307	f3 0f 10 45 cc	 movss	 xmm0, DWORD PTR _fy$[ebp]
  0030c	f3 0f 11 45 60	 movss	 DWORD PTR $T9[ebp+4], xmm0

; 182  :     z = fz;

  00311	f3 0f 10 45 c8	 movss	 xmm0, DWORD PTR _fz$[ebp]
  00316	f3 0f 11 45 64	 movss	 DWORD PTR $T9[ebp+8], xmm0

; 263  :     return D3DXVECTOR3(x - v.x, y - v.y, z - v.z);

  0031b	8b 45 7c	 mov	 eax, DWORD PTR _x$[ebp]
  0031e	8b 4d 74	 mov	 ecx, DWORD PTR _p1$[ebp]
  00321	f3 0f 10 00	 movss	 xmm0, DWORD PTR [eax]
  00325	f3 0f 5c 01	 subss	 xmm0, DWORD PTR [ecx]
  00329	f3 0f 11 45 c4	 movss	 DWORD PTR _fx$[ebp], xmm0
  0032e	8b 45 7c	 mov	 eax, DWORD PTR _x$[ebp]
  00331	8b 4d 74	 mov	 ecx, DWORD PTR _p1$[ebp]
  00334	f3 0f 10 40 04	 movss	 xmm0, DWORD PTR [eax+4]
  00339	f3 0f 5c 41 04	 subss	 xmm0, DWORD PTR [ecx+4]
  0033e	f3 0f 11 45 c0	 movss	 DWORD PTR _fy$[ebp], xmm0
  00343	8b 45 7c	 mov	 eax, DWORD PTR _x$[ebp]
  00346	8b 4d 74	 mov	 ecx, DWORD PTR _p1$[ebp]
  00349	f3 0f 10 40 08	 movss	 xmm0, DWORD PTR [eax+8]
  0034e	f3 0f 5c 41 08	 subss	 xmm0, DWORD PTR [ecx+8]
  00353	f3 0f 11 45 bc	 movss	 DWORD PTR _fz$[ebp], xmm0

; 180  :     x = fx;

  00358	f3 0f 10 45 c4	 movss	 xmm0, DWORD PTR _fx$[ebp]
  0035d	f3 0f 11 45 50	 movss	 DWORD PTR $T8[ebp], xmm0

; 181  :     y = fy;

  00362	f3 0f 10 45 c0	 movss	 xmm0, DWORD PTR _fy$[ebp]
  00367	f3 0f 11 45 54	 movss	 DWORD PTR $T8[ebp+4], xmm0

; 182  :     z = fz;

  0036c	f3 0f 10 45 bc	 movss	 xmm0, DWORD PTR _fz$[ebp]
  00371	f3 0f 11 45 58	 movss	 DWORD PTR $T8[ebp+8], xmm0

; 1277 :     v.x = pV1->y * pV2->z - pV1->z * pV2->y;

  00376	f3 0f 10 45 54	 movss	 xmm0, DWORD PTR $T8[ebp+4]
  0037b	f3 0f 59 45 64	 mulss	 xmm0, DWORD PTR $T9[ebp+8]
  00380	f3 0f 10 4d 58	 movss	 xmm1, DWORD PTR $T8[ebp+8]
  00385	f3 0f 59 4d 60	 mulss	 xmm1, DWORD PTR $T9[ebp+4]
  0038a	f3 0f 5c c1	 subss	 xmm0, xmm1
  0038e	f3 0f 11 45 fc	 movss	 DWORD PTR _v$1[ebp], xmm0

; 1278 :     v.y = pV1->z * pV2->x - pV1->x * pV2->z;

  00393	f3 0f 10 45 58	 movss	 xmm0, DWORD PTR $T8[ebp+8]
  00398	f3 0f 59 45 5c	 mulss	 xmm0, DWORD PTR $T9[ebp]
  0039d	f3 0f 10 4d 50	 movss	 xmm1, DWORD PTR $T8[ebp]
  003a2	f3 0f 59 4d 64	 mulss	 xmm1, DWORD PTR $T9[ebp+8]
  003a7	f3 0f 5c c1	 subss	 xmm0, xmm1
  003ab	f3 0f 11 45 00	 movss	 DWORD PTR _v$1[ebp+4], xmm0

; 1279 :     v.z = pV1->x * pV2->y - pV1->y * pV2->x;

  003b0	f3 0f 10 45 50	 movss	 xmm0, DWORD PTR $T8[ebp]
  003b5	f3 0f 59 45 60	 mulss	 xmm0, DWORD PTR $T9[ebp+4]
  003ba	f3 0f 10 4d 54	 movss	 xmm1, DWORD PTR $T8[ebp+4]
  003bf	f3 0f 59 4d 5c	 mulss	 xmm1, DWORD PTR $T9[ebp]
  003c4	f3 0f 5c c1	 subss	 xmm0, xmm1
  003c8	f3 0f 11 45 04	 movss	 DWORD PTR _v$1[ebp+8], xmm0

; 1280 : 
; 1281 :     *pOut = v;

  003cd	8d 75 fc	 lea	 esi, DWORD PTR _v$1[ebp]
  003d0	8d 7d 20	 lea	 edi, DWORD PTR _c$4[ebp]
  003d3	a5		 movsd
  003d4	a5		 movsd
  003d5	a5		 movsd

; 1253 :     return pV->x * pV->x + pV->y * pV->y + pV->z * pV->z;

  003d6	f3 0f 10 45 28	 movss	 xmm0, DWORD PTR _c$4[ebp+8]
  003db	f3 0f 59 45 28	 mulss	 xmm0, DWORD PTR _c$4[ebp+8]
  003e0	f3 0f 10 4d 24	 movss	 xmm1, DWORD PTR _c$4[ebp+4]
  003e5	f3 0f 59 4d 24	 mulss	 xmm1, DWORD PTR _c$4[ebp+4]
  003ea	f3 0f 10 55 20	 movss	 xmm2, DWORD PTR _c$4[ebp]
  003ef	f3 0f 59 55 20	 mulss	 xmm2, DWORD PTR _c$4[ebp]
  003f4	f3 0f 58 d1	 addss	 xmm2, xmm1
  003f8	f3 0f 58 d0	 addss	 xmm2, xmm0
; File D:\Metin2 Server Files\mainline\SRC_2014\Metin2Client\eterLib\GrpMath.h

; 95   : 		return D3DXVec3LengthSq(D3DXVec3Cross(&c,&(x-p1),&(p2-p1)))/l;

  003fc	f3 0f 5e 55 f8	 divss	 xmm2, DWORD PTR _l$[ebp]
  00401	f3 0f 11 55 b8	 movss	 DWORD PTR tv962[ebp], xmm2
  00406	d9 45 b8	 fld	 DWORD PTR tv962[ebp]
$LN5@square_dis:

; 96   : 	}
; 97   : }

  00409	5f		 pop	 edi
  0040a	5e		 pop	 esi
  0040b	8b 4d 68	 mov	 ecx, DWORD PTR __$ArrayPad$[ebp]
  0040e	33 cd		 xor	 ecx, ebp
  00410	e8 00 00 00 00	 call	 @__security_check_cookie@4
  00415	83 c5 6c	 add	 ebp, 108		; 0000006cH
  00418	c9		 leave
  00419	c3		 ret	 0
?square_distance_between_linesegment_and_point@@YAMABUD3DXVECTOR3@@00@Z ENDP ; square_distance_between_linesegment_and_point
_TEXT	ENDS
; Function compile flags: /Odspy
; File D:\Metin2 Server Files\mainline\SRC_2014\Metin2Client\eterLib\GrpMath.h
; File D:\Metin2 Server Files\mainline\SRC_2014\M2Data\include\d3dx8math.inl
; File D:\Metin2 Server Files\mainline\SRC_2014\Metin2Client\eterLib\GrpMath.h
; File D:\Metin2 Server Files\mainline\SRC_2014\M2Data\include\d3dx8math.inl
; File D:\Metin2 Server Files\mainline\SRC_2014\Metin2Client\eterLib\GrpMath.h
; File D:\Metin2 Server Files\mainline\SRC_2014\M2Data\include\d3dx8math.inl
; File D:\Metin2 Server Files\mainline\SRC_2014\Metin2Client\eterLib\GrpMath.h
; File D:\Metin2 Server Files\mainline\SRC_2014\M2Data\include\d3dx8math.inl
; File D:\Metin2 Server Files\mainline\SRC_2014\Metin2Client\eterLib\GrpMath.h
; File D:\Metin2 Server Files\mainline\SRC_2014\M2Data\include\d3dx8math.inl
; File D:\Metin2 Server Files\mainline\SRC_2014\Metin2Client\eterLib\GrpMath.h
; File C:\Program Files (x86)\Windows Kits\10\Include\10.0.18362.0\ucrt\corecrt_math.h
; File D:\Metin2 Server Files\mainline\SRC_2014\Metin2Client\eterLib\GrpMath.h
; File D:\Metin2 Server Files\mainline\SRC_2014\M2Data\include\d3dx8math.inl
; File D:\Metin2 Server Files\mainline\SRC_2014\Metin2Client\eterLib\GrpMath.h
; File D:\Metin2 Server Files\mainline\SRC_2014\M2Data\include\d3dx8math.inl
; File D:\Metin2 Server Files\mainline\SRC_2014\Metin2Client\eterLib\GrpMath.h
;	COMDAT ?SafeRotationNormalizedArc@@YA?AUD3DXQUATERNION@@ABUD3DXVECTOR3@@0@Z
_TEXT	SEGMENT
_fz$ = -80						; size = 4
_fy$ = -76						; size = 4
_fx$ = -72						; size = 4
_d$ = -68						; size = 4
_fz$ = -64						; size = 4
_fy$ = -60						; size = 4
_fx$ = -56						; size = 4
tv251 = -52						; size = 4
tv185 = -48						; size = 4
_s$ = -44						; size = 4
_c$ = -40						; size = 12
_v$1 = -28						; size = 12
$T2 = -16						; size = 12
__$ArrayPad$ = -4					; size = 4
___$ReturnUdt$ = 8					; size = 4
_vFrom$ = 12						; size = 4
_vTo$ = 16						; size = 4
?SafeRotationNormalizedArc@@YA?AUD3DXQUATERNION@@ABUD3DXVECTOR3@@0@Z PROC ; SafeRotationNormalizedArc, COMDAT

; 48   : {

  00000	55		 push	 ebp
  00001	8b ec		 mov	 ebp, esp
  00003	83 ec 50	 sub	 esp, 80			; 00000050H
  00006	a1 00 00 00 00	 mov	 eax, DWORD PTR ___security_cookie
  0000b	33 c5		 xor	 eax, ebp
  0000d	89 45 fc	 mov	 DWORD PTR __$ArrayPad$[ebp], eax
  00010	56		 push	 esi
  00011	57		 push	 edi
; File D:\Metin2 Server Files\mainline\SRC_2014\M2Data\include\d3dx8math.inl

; 290  :     return x == v.x && y == v.y && z == v.z;

  00012	8b 45 0c	 mov	 eax, DWORD PTR _vFrom$[ebp]
  00015	8b 4d 10	 mov	 ecx, DWORD PTR _vTo$[ebp]
  00018	f3 0f 10 00	 movss	 xmm0, DWORD PTR [eax]
  0001c	0f 2e 01	 ucomiss xmm0, DWORD PTR [ecx]
  0001f	9f		 lahf
  00020	f6 c4 44	 test	 ah, 68			; 00000044H
  00023	7a 33		 jp	 SHORT $LN7@SafeRotati
  00025	8b 45 0c	 mov	 eax, DWORD PTR _vFrom$[ebp]
  00028	8b 4d 10	 mov	 ecx, DWORD PTR _vTo$[ebp]
  0002b	f3 0f 10 40 04	 movss	 xmm0, DWORD PTR [eax+4]
  00030	0f 2e 41 04	 ucomiss xmm0, DWORD PTR [ecx+4]
  00034	9f		 lahf
  00035	f6 c4 44	 test	 ah, 68			; 00000044H
  00038	7a 1e		 jp	 SHORT $LN7@SafeRotati
  0003a	8b 45 0c	 mov	 eax, DWORD PTR _vFrom$[ebp]
  0003d	8b 4d 10	 mov	 ecx, DWORD PTR _vTo$[ebp]
  00040	f3 0f 10 40 08	 movss	 xmm0, DWORD PTR [eax+8]
  00045	0f 2e 41 08	 ucomiss xmm0, DWORD PTR [ecx+8]
  00049	9f		 lahf
  0004a	f6 c4 44	 test	 ah, 68			; 00000044H
  0004d	7a 09		 jp	 SHORT $LN7@SafeRotati
  0004f	c7 45 d0 01 00
	00 00		 mov	 DWORD PTR tv185[ebp], 1
  00056	eb 04		 jmp	 SHORT $LN8@SafeRotati
$LN7@SafeRotati:
  00058	83 65 d0 00	 and	 DWORD PTR tv185[ebp], 0
$LN8@SafeRotati:
; File D:\Metin2 Server Files\mainline\SRC_2014\Metin2Client\eterLib\GrpMath.h

; 49   : 	if (vFrom == vTo)

  0005c	83 7d d0 00	 cmp	 DWORD PTR tv185[ebp], 0
  00060	74 38		 je	 SHORT $LN2@SafeRotati
; File D:\Metin2 Server Files\mainline\SRC_2014\M2Data\include\d3dx8math.inl

; 667  :     x = fx;

  00062	8b 45 08	 mov	 eax, DWORD PTR ___$ReturnUdt$[ebp]
  00065	0f 57 c0	 xorps	 xmm0, xmm0
  00068	f3 0f 11 00	 movss	 DWORD PTR [eax], xmm0

; 668  :     y = fy;

  0006c	8b 45 08	 mov	 eax, DWORD PTR ___$ReturnUdt$[ebp]
  0006f	0f 57 c0	 xorps	 xmm0, xmm0
  00072	f3 0f 11 40 04	 movss	 DWORD PTR [eax+4], xmm0

; 669  :     z = fz;

  00077	8b 45 08	 mov	 eax, DWORD PTR ___$ReturnUdt$[ebp]
  0007a	0f 57 c0	 xorps	 xmm0, xmm0
  0007d	f3 0f 11 40 08	 movss	 DWORD PTR [eax+8], xmm0

; 670  :     w = fw;

  00082	8b 45 08	 mov	 eax, DWORD PTR ___$ReturnUdt$[ebp]
  00085	f3 0f 10 05 00
	00 00 00	 movss	 xmm0, DWORD PTR __real@3f800000
  0008d	f3 0f 11 40 0c	 movss	 DWORD PTR [eax+12], xmm0
; File D:\Metin2 Server Files\mainline\SRC_2014\Metin2Client\eterLib\GrpMath.h

; 50   : 		return D3DXQUATERNION(0.0f,0.0f,0.0f,1.0f);

  00092	8b 45 08	 mov	 eax, DWORD PTR ___$ReturnUdt$[ebp]
  00095	e9 29 02 00 00	 jmp	 $LN1@SafeRotati
$LN2@SafeRotati:
; File D:\Metin2 Server Files\mainline\SRC_2014\M2Data\include\d3dx8math.inl

; 249  :     return D3DXVECTOR3(-x, -y, -z);

  0009a	8b 45 10	 mov	 eax, DWORD PTR _vTo$[ebp]
  0009d	f3 0f 10 00	 movss	 xmm0, DWORD PTR [eax]
  000a1	0f 57 05 00 00
	00 00		 xorps	 xmm0, DWORD PTR __xmm@80000000800000008000000080000000
  000a8	f3 0f 11 45 c8	 movss	 DWORD PTR _fx$[ebp], xmm0
  000ad	8b 45 10	 mov	 eax, DWORD PTR _vTo$[ebp]
  000b0	f3 0f 10 40 04	 movss	 xmm0, DWORD PTR [eax+4]
  000b5	0f 57 05 00 00
	00 00		 xorps	 xmm0, DWORD PTR __xmm@80000000800000008000000080000000
  000bc	f3 0f 11 45 c4	 movss	 DWORD PTR _fy$[ebp], xmm0
  000c1	8b 45 10	 mov	 eax, DWORD PTR _vTo$[ebp]
  000c4	f3 0f 10 40 08	 movss	 xmm0, DWORD PTR [eax+8]
  000c9	0f 57 05 00 00
	00 00		 xorps	 xmm0, DWORD PTR __xmm@80000000800000008000000080000000
  000d0	f3 0f 11 45 c0	 movss	 DWORD PTR _fz$[ebp], xmm0

; 180  :     x = fx;

  000d5	f3 0f 10 45 c8	 movss	 xmm0, DWORD PTR _fx$[ebp]
  000da	f3 0f 11 45 f0	 movss	 DWORD PTR $T2[ebp], xmm0

; 181  :     y = fy;

  000df	f3 0f 10 45 c4	 movss	 xmm0, DWORD PTR _fy$[ebp]
  000e4	f3 0f 11 45 f4	 movss	 DWORD PTR $T2[ebp+4], xmm0

; 182  :     z = fz;

  000e9	f3 0f 10 45 c0	 movss	 xmm0, DWORD PTR _fz$[ebp]
  000ee	f3 0f 11 45 f8	 movss	 DWORD PTR $T2[ebp+8], xmm0

; 290  :     return x == v.x && y == v.y && z == v.z;

  000f3	8b 45 0c	 mov	 eax, DWORD PTR _vFrom$[ebp]
  000f6	f3 0f 10 00	 movss	 xmm0, DWORD PTR [eax]
  000fa	0f 2e 45 f0	 ucomiss xmm0, DWORD PTR $T2[ebp]
  000fe	9f		 lahf
  000ff	f6 c4 44	 test	 ah, 68			; 00000044H
  00102	7a 2d		 jp	 SHORT $LN17@SafeRotati
  00104	8b 45 0c	 mov	 eax, DWORD PTR _vFrom$[ebp]
  00107	f3 0f 10 40 04	 movss	 xmm0, DWORD PTR [eax+4]
  0010c	0f 2e 45 f4	 ucomiss xmm0, DWORD PTR $T2[ebp+4]
  00110	9f		 lahf
  00111	f6 c4 44	 test	 ah, 68			; 00000044H
  00114	7a 1b		 jp	 SHORT $LN17@SafeRotati
  00116	8b 45 0c	 mov	 eax, DWORD PTR _vFrom$[ebp]
  00119	f3 0f 10 40 08	 movss	 xmm0, DWORD PTR [eax+8]
  0011e	0f 2e 45 f8	 ucomiss xmm0, DWORD PTR $T2[ebp+8]
  00122	9f		 lahf
  00123	f6 c4 44	 test	 ah, 68			; 00000044H
  00126	7a 09		 jp	 SHORT $LN17@SafeRotati
  00128	c7 45 cc 01 00
	00 00		 mov	 DWORD PTR tv251[ebp], 1
  0012f	eb 04		 jmp	 SHORT $LN18@SafeRotati
$LN17@SafeRotati:
  00131	83 65 cc 00	 and	 DWORD PTR tv251[ebp], 0
$LN18@SafeRotati:
; File D:\Metin2 Server Files\mainline\SRC_2014\Metin2Client\eterLib\GrpMath.h

; 51   : 	if (vFrom == -vTo)

  00135	83 7d cc 00	 cmp	 DWORD PTR tv251[ebp], 0
  00139	74 38		 je	 SHORT $LN3@SafeRotati
; File D:\Metin2 Server Files\mainline\SRC_2014\M2Data\include\d3dx8math.inl

; 667  :     x = fx;

  0013b	8b 45 08	 mov	 eax, DWORD PTR ___$ReturnUdt$[ebp]
  0013e	0f 57 c0	 xorps	 xmm0, xmm0
  00141	f3 0f 11 00	 movss	 DWORD PTR [eax], xmm0

; 668  :     y = fy;

  00145	8b 45 08	 mov	 eax, DWORD PTR ___$ReturnUdt$[ebp]
  00148	0f 57 c0	 xorps	 xmm0, xmm0
  0014b	f3 0f 11 40 04	 movss	 DWORD PTR [eax+4], xmm0

; 669  :     z = fz;

  00150	8b 45 08	 mov	 eax, DWORD PTR ___$ReturnUdt$[ebp]
  00153	f3 0f 10 05 00
	00 00 00	 movss	 xmm0, DWORD PTR __real@3f800000
  0015b	f3 0f 11 40 08	 movss	 DWORD PTR [eax+8], xmm0

; 670  :     w = fw;

  00160	8b 45 08	 mov	 eax, DWORD PTR ___$ReturnUdt$[ebp]
  00163	0f 57 c0	 xorps	 xmm0, xmm0
  00166	f3 0f 11 40 0c	 movss	 DWORD PTR [eax+12], xmm0
; File D:\Metin2 Server Files\mainline\SRC_2014\Metin2Client\eterLib\GrpMath.h

; 52   : 		return D3DXQUATERNION(0.0f,0.0f,1.0f,0.0f);

  0016b	8b 45 08	 mov	 eax, DWORD PTR ___$ReturnUdt$[ebp]
  0016e	e9 50 01 00 00	 jmp	 $LN1@SafeRotati
$LN3@SafeRotati:
; File D:\Metin2 Server Files\mainline\SRC_2014\M2Data\include\d3dx8math.inl

; 1277 :     v.x = pV1->y * pV2->z - pV1->z * pV2->y;

  00173	8b 45 0c	 mov	 eax, DWORD PTR _vFrom$[ebp]
  00176	8b 4d 10	 mov	 ecx, DWORD PTR _vTo$[ebp]
  00179	f3 0f 10 40 04	 movss	 xmm0, DWORD PTR [eax+4]
  0017e	f3 0f 59 41 08	 mulss	 xmm0, DWORD PTR [ecx+8]
  00183	8b 45 0c	 mov	 eax, DWORD PTR _vFrom$[ebp]
  00186	8b 4d 10	 mov	 ecx, DWORD PTR _vTo$[ebp]
  00189	f3 0f 10 48 08	 movss	 xmm1, DWORD PTR [eax+8]
  0018e	f3 0f 59 49 04	 mulss	 xmm1, DWORD PTR [ecx+4]
  00193	f3 0f 5c c1	 subss	 xmm0, xmm1
  00197	f3 0f 11 45 e4	 movss	 DWORD PTR _v$1[ebp], xmm0

; 1278 :     v.y = pV1->z * pV2->x - pV1->x * pV2->z;

  0019c	8b 45 0c	 mov	 eax, DWORD PTR _vFrom$[ebp]
  0019f	8b 4d 10	 mov	 ecx, DWORD PTR _vTo$[ebp]
  001a2	f3 0f 10 40 08	 movss	 xmm0, DWORD PTR [eax+8]
  001a7	f3 0f 59 01	 mulss	 xmm0, DWORD PTR [ecx]
  001ab	8b 45 0c	 mov	 eax, DWORD PTR _vFrom$[ebp]
  001ae	8b 4d 10	 mov	 ecx, DWORD PTR _vTo$[ebp]
  001b1	f3 0f 10 08	 movss	 xmm1, DWORD PTR [eax]
  001b5	f3 0f 59 49 08	 mulss	 xmm1, DWORD PTR [ecx+8]
  001ba	f3 0f 5c c1	 subss	 xmm0, xmm1
  001be	f3 0f 11 45 e8	 movss	 DWORD PTR _v$1[ebp+4], xmm0

; 1279 :     v.z = pV1->x * pV2->y - pV1->y * pV2->x;

  001c3	8b 45 0c	 mov	 eax, DWORD PTR _vFrom$[ebp]
  001c6	8b 4d 10	 mov	 ecx, DWORD PTR _vTo$[ebp]
  001c9	f3 0f 10 00	 movss	 xmm0, DWORD PTR [eax]
  001cd	f3 0f 59 41 04	 mulss	 xmm0, DWORD PTR [ecx+4]
  001d2	8b 45 0c	 mov	 eax, DWORD PTR _vFrom$[ebp]
  001d5	8b 4d 10	 mov	 ecx, DWORD PTR _vTo$[ebp]
  001d8	f3 0f 10 48 04	 movss	 xmm1, DWORD PTR [eax+4]
  001dd	f3 0f 59 09	 mulss	 xmm1, DWORD PTR [ecx]
  001e1	f3 0f 5c c1	 subss	 xmm0, xmm1
  001e5	f3 0f 11 45 ec	 movss	 DWORD PTR _v$1[ebp+8], xmm0

; 1280 : 
; 1281 :     *pOut = v;

  001ea	8d 75 e4	 lea	 esi, DWORD PTR _v$1[ebp]
  001ed	8d 7d d8	 lea	 edi, DWORD PTR _c$[ebp]
  001f0	a5		 movsd
  001f1	a5		 movsd
  001f2	a5		 movsd

; 1264 :     return pV1->x * pV2->x + pV1->y * pV2->y + pV1->z * pV2->z;

  001f3	8b 45 0c	 mov	 eax, DWORD PTR _vFrom$[ebp]
  001f6	8b 4d 10	 mov	 ecx, DWORD PTR _vTo$[ebp]
  001f9	f3 0f 10 40 08	 movss	 xmm0, DWORD PTR [eax+8]
  001fe	f3 0f 59 41 08	 mulss	 xmm0, DWORD PTR [ecx+8]
  00203	8b 45 0c	 mov	 eax, DWORD PTR _vFrom$[ebp]
  00206	8b 4d 10	 mov	 ecx, DWORD PTR _vTo$[ebp]
  00209	f3 0f 10 48 04	 movss	 xmm1, DWORD PTR [eax+4]
  0020e	f3 0f 59 49 04	 mulss	 xmm1, DWORD PTR [ecx+4]
  00213	8b 45 0c	 mov	 eax, DWORD PTR _vFrom$[ebp]
  00216	8b 4d 10	 mov	 ecx, DWORD PTR _vTo$[ebp]
  00219	f3 0f 10 10	 movss	 xmm2, DWORD PTR [eax]
  0021d	f3 0f 59 11	 mulss	 xmm2, DWORD PTR [ecx]
  00221	f3 0f 58 d1	 addss	 xmm2, xmm1
  00225	f3 0f 58 d0	 addss	 xmm2, xmm0
; File D:\Metin2 Server Files\mainline\SRC_2014\Metin2Client\eterLib\GrpMath.h

; 55   : 	float d = D3DXVec3Dot(&vFrom, &vTo);

  00229	f3 0f 11 55 bc	 movss	 DWORD PTR _d$[ebp], xmm2

; 56   : 	float s = sqrtf((1+d)*2);

  0022e	f3 0f 10 05 00
	00 00 00	 movss	 xmm0, DWORD PTR __real@3f800000
  00236	f3 0f 58 45 bc	 addss	 xmm0, DWORD PTR _d$[ebp]
  0023b	f3 0f 59 05 00
	00 00 00	 mulss	 xmm0, DWORD PTR __real@40000000
; File C:\Program Files (x86)\Windows Kits\10\Include\10.0.18362.0\ucrt\corecrt_math.h

; 760  :             return (float)sqrt(_X);

  00243	f3 0f 5a c0	 cvtss2sd xmm0, xmm0
  00247	51		 push	 ecx
  00248	51		 push	 ecx
  00249	f2 0f 11 04 24	 movsd	 QWORD PTR [esp], xmm0
  0024e	e8 00 00 00 00	 call	 _sqrt
  00253	59		 pop	 ecx
  00254	59		 pop	 ecx
; File D:\Metin2 Server Files\mainline\SRC_2014\Metin2Client\eterLib\GrpMath.h

; 56   : 	float s = sqrtf((1+d)*2);

  00255	d9 5d d4	 fstp	 DWORD PTR _s$[ebp]

; 58   : 	return D3DXQUATERNION(c.x/s,c.y/s,c.z/s,s*0.5f);

  00258	f3 0f 10 45 d8	 movss	 xmm0, DWORD PTR _c$[ebp]
  0025d	f3 0f 5e 45 d4	 divss	 xmm0, DWORD PTR _s$[ebp]
  00262	f3 0f 11 45 b8	 movss	 DWORD PTR _fx$[ebp], xmm0
  00267	f3 0f 10 45 dc	 movss	 xmm0, DWORD PTR _c$[ebp+4]
  0026c	f3 0f 5e 45 d4	 divss	 xmm0, DWORD PTR _s$[ebp]
  00271	f3 0f 11 45 b4	 movss	 DWORD PTR _fy$[ebp], xmm0
  00276	f3 0f 10 45 e0	 movss	 xmm0, DWORD PTR _c$[ebp+8]
  0027b	f3 0f 5e 45 d4	 divss	 xmm0, DWORD PTR _s$[ebp]
  00280	f3 0f 11 45 b0	 movss	 DWORD PTR _fz$[ebp], xmm0
; File D:\Metin2 Server Files\mainline\SRC_2014\M2Data\include\d3dx8math.inl

; 667  :     x = fx;

  00285	8b 45 08	 mov	 eax, DWORD PTR ___$ReturnUdt$[ebp]
  00288	f3 0f 10 45 b8	 movss	 xmm0, DWORD PTR _fx$[ebp]
  0028d	f3 0f 11 00	 movss	 DWORD PTR [eax], xmm0

; 668  :     y = fy;

  00291	8b 45 08	 mov	 eax, DWORD PTR ___$ReturnUdt$[ebp]
  00294	f3 0f 10 45 b4	 movss	 xmm0, DWORD PTR _fy$[ebp]
  00299	f3 0f 11 40 04	 movss	 DWORD PTR [eax+4], xmm0

; 669  :     z = fz;

  0029e	8b 45 08	 mov	 eax, DWORD PTR ___$ReturnUdt$[ebp]
  002a1	f3 0f 10 45 b0	 movss	 xmm0, DWORD PTR _fz$[ebp]
  002a6	f3 0f 11 40 08	 movss	 DWORD PTR [eax+8], xmm0
; File D:\Metin2 Server Files\mainline\SRC_2014\Metin2Client\eterLib\GrpMath.h

; 58   : 	return D3DXQUATERNION(c.x/s,c.y/s,c.z/s,s*0.5f);

  002ab	f3 0f 10 45 d4	 movss	 xmm0, DWORD PTR _s$[ebp]
  002b0	f3 0f 59 05 00
	00 00 00	 mulss	 xmm0, DWORD PTR __real@3f000000
; File D:\Metin2 Server Files\mainline\SRC_2014\M2Data\include\d3dx8math.inl

; 670  :     w = fw;

  002b8	8b 45 08	 mov	 eax, DWORD PTR ___$ReturnUdt$[ebp]
  002bb	f3 0f 11 40 0c	 movss	 DWORD PTR [eax+12], xmm0
; File D:\Metin2 Server Files\mainline\SRC_2014\Metin2Client\eterLib\GrpMath.h

; 58   : 	return D3DXQUATERNION(c.x/s,c.y/s,c.z/s,s*0.5f);

  002c0	8b 45 08	 mov	 eax, DWORD PTR ___$ReturnUdt$[ebp]
$LN1@SafeRotati:

; 59   : }

  002c3	5f		 pop	 edi
  002c4	5e		 pop	 esi
  002c5	8b 4d fc	 mov	 ecx, DWORD PTR __$ArrayPad$[ebp]
  002c8	33 cd		 xor	 ecx, ebp
  002ca	e8 00 00 00 00	 call	 @__security_check_cookie@4
  002cf	c9		 leave
  002d0	c3		 ret	 0
?SafeRotationNormalizedArc@@YA?AUD3DXQUATERNION@@ABUD3DXVECTOR3@@0@Z ENDP ; SafeRotationNormalizedArc
_TEXT	ENDS
; Function compile flags: /Odspy
; File C:\Program Files (x86)\Microsoft Visual Studio\2019\Community\VC\Tools\MSVC\14.28.29333\include\xmemory
;	COMDAT ??$_Allocate_manually_vector_aligned@U_Default_allocate_traits@std@@@std@@YAPAXI@Z
_TEXT	SEGMENT
__Ptr$ = -12						; size = 4
__Block_size$ = -8					; size = 4
__Ptr_container$ = -4					; size = 4
__Bytes$ = 8						; size = 4
??$_Allocate_manually_vector_aligned@U_Default_allocate_traits@std@@@std@@YAPAXI@Z PROC ; std::_Allocate_manually_vector_aligned<std::_Default_allocate_traits>, COMDAT

; 113  : __declspec(allocator) void* _Allocate_manually_vector_aligned(const size_t _Bytes) {

  00000	55		 push	 ebp
  00001	8b ec		 mov	 ebp, esp
  00003	83 ec 0c	 sub	 esp, 12			; 0000000cH

; 114  :     // allocate _Bytes manually aligned to at least _Big_allocation_alignment
; 115  :     const size_t _Block_size = _Non_user_size + _Bytes;

  00006	8b 45 08	 mov	 eax, DWORD PTR __Bytes$[ebp]
  00009	83 c0 23	 add	 eax, 35			; 00000023H
  0000c	89 45 f8	 mov	 DWORD PTR __Block_size$[ebp], eax

; 116  :     if (_Block_size <= _Bytes) {

  0000f	8b 45 f8	 mov	 eax, DWORD PTR __Block_size$[ebp]
  00012	3b 45 08	 cmp	 eax, DWORD PTR __Bytes$[ebp]
  00015	77 05		 ja	 SHORT $LN12@Allocate_m

; 117  :         _Throw_bad_array_new_length(); // add overflow

  00017	e8 00 00 00 00	 call	 ?_Throw_bad_array_new_length@std@@YAXXZ ; std::_Throw_bad_array_new_length
$LN12@Allocate_m:

; 77   :         return ::operator new(_Bytes);

  0001c	ff 75 f8	 push	 DWORD PTR __Block_size$[ebp]
  0001f	e8 00 00 00 00	 call	 ??2@YAPAXI@Z		; operator new
  00024	59		 pop	 ecx

; 118  :     }
; 119  : 
; 120  :     const uintptr_t _Ptr_container = reinterpret_cast<uintptr_t>(_Traits::_Allocate(_Block_size));

  00025	89 45 fc	 mov	 DWORD PTR __Ptr_container$[ebp], eax
$LN4@Allocate_m:

; 121  :     _STL_VERIFY(_Ptr_container != 0, "invalid argument"); // validate even in release since we're doing p[-1]

  00028	83 7d fc 00	 cmp	 DWORD PTR __Ptr_container$[ebp], 0
  0002c	74 02		 je	 SHORT $LN7@Allocate_m
  0002e	eb 09		 jmp	 SHORT $LN2@Allocate_m
$LN7@Allocate_m:
  00030	e8 00 00 00 00	 call	 __invalid_parameter_noinfo_noreturn
  00035	33 c0		 xor	 eax, eax
  00037	75 f7		 jne	 SHORT $LN7@Allocate_m
$LN2@Allocate_m:
  00039	33 c0		 xor	 eax, eax
  0003b	75 eb		 jne	 SHORT $LN4@Allocate_m

; 122  :     void* const _Ptr = reinterpret_cast<void*>((_Ptr_container + _Non_user_size) & ~(_Big_allocation_alignment - 1));

  0003d	8b 45 fc	 mov	 eax, DWORD PTR __Ptr_container$[ebp]
  00040	83 c0 23	 add	 eax, 35			; 00000023H
  00043	83 e0 e0	 and	 eax, -32		; ffffffe0H
  00046	89 45 f4	 mov	 DWORD PTR __Ptr$[ebp], eax

; 123  :     static_cast<uintptr_t*>(_Ptr)[-1] = _Ptr_container;

  00049	6a 04		 push	 4
  0004b	58		 pop	 eax
  0004c	6b c0 ff	 imul	 eax, eax, -1
  0004f	8b 4d f4	 mov	 ecx, DWORD PTR __Ptr$[ebp]
  00052	8b 55 fc	 mov	 edx, DWORD PTR __Ptr_container$[ebp]
  00055	89 14 01	 mov	 DWORD PTR [ecx+eax], edx

; 124  : 
; 125  : #ifdef _DEBUG
; 126  :     static_cast<uintptr_t*>(_Ptr)[-2] = _Big_allocation_sentinel;
; 127  : #endif // _DEBUG
; 128  :     return _Ptr;

  00058	8b 45 f4	 mov	 eax, DWORD PTR __Ptr$[ebp]
$LN11@Allocate_m:

; 129  : }

  0005b	c9		 leave
  0005c	c3		 ret	 0
??$_Allocate_manually_vector_aligned@U_Default_allocate_traits@std@@@std@@YAPAXI@Z ENDP ; std::_Allocate_manually_vector_aligned<std::_Default_allocate_traits>
_TEXT	ENDS
; Function compile flags: /Odspy
; File C:\Program Files (x86)\Microsoft Visual Studio\2019\Community\VC\Tools\MSVC\14.28.29333\include\xmemory
;	COMDAT ??$_Allocate@$07U_Default_allocate_traits@std@@$0A@@std@@YAPAXI@Z
_TEXT	SEGMENT
__Bytes$ = 8						; size = 4
??$_Allocate@$07U_Default_allocate_traits@std@@$0A@@std@@YAPAXI@Z PROC ; std::_Allocate<8,std::_Default_allocate_traits,0>, COMDAT

; 197  : __declspec(allocator) void* _Allocate(const size_t _Bytes) {

  00000	55		 push	 ebp
  00001	8b ec		 mov	 ebp, esp

; 198  :     // allocate _Bytes when !_HAS_ALIGNED_NEW || _Align <= __STDCPP_DEFAULT_NEW_ALIGNMENT__
; 199  : #if defined(_M_IX86) || defined(_M_X64)
; 200  :     if (_Bytes >= _Big_allocation_threshold) { // boost the alignment of big allocations to help autovectorization

  00003	81 7d 08 00 10
	00 00		 cmp	 DWORD PTR __Bytes$[ebp], 4096 ; 00001000H
  0000a	72 0b		 jb	 SHORT $LN2@Allocate

; 201  :         return _Allocate_manually_vector_aligned<_Traits>(_Bytes);

  0000c	ff 75 08	 push	 DWORD PTR __Bytes$[ebp]
  0000f	e8 00 00 00 00	 call	 ??$_Allocate_manually_vector_aligned@U_Default_allocate_traits@std@@@std@@YAPAXI@Z ; std::_Allocate_manually_vector_aligned<std::_Default_allocate_traits>
  00014	59		 pop	 ecx
  00015	eb 13		 jmp	 SHORT $LN1@Allocate
$LN2@Allocate:

; 202  :     }
; 203  : #endif // defined(_M_IX86) || defined(_M_X64)
; 204  : 
; 205  :     if (_Bytes != 0) {

  00017	83 7d 08 00	 cmp	 DWORD PTR __Bytes$[ebp], 0
  0001b	74 0b		 je	 SHORT $LN3@Allocate

; 77   :         return ::operator new(_Bytes);

  0001d	ff 75 08	 push	 DWORD PTR __Bytes$[ebp]
  00020	e8 00 00 00 00	 call	 ??2@YAPAXI@Z		; operator new
  00025	59		 pop	 ecx

; 206  :         return _Traits::_Allocate(_Bytes);

  00026	eb 02		 jmp	 SHORT $LN1@Allocate
$LN3@Allocate:

; 207  :     }
; 208  : 
; 209  :     return nullptr;

  00028	33 c0		 xor	 eax, eax
$LN1@Allocate:

; 210  : }

  0002a	5d		 pop	 ebp
  0002b	c3		 ret	 0
??$_Allocate@$07U_Default_allocate_traits@std@@$0A@@std@@YAPAXI@Z ENDP ; std::_Allocate<8,std::_Default_allocate_traits,0>
_TEXT	ENDS
; Function compile flags: /Odspy
; File C:\Program Files (x86)\Microsoft Visual Studio\2019\Community\VC\Tools\MSVC\14.28.29333\include\xmemory
;	COMDAT ??$_Deallocate@$07$0A@@std@@YAXPAXI@Z
_TEXT	SEGMENT
__$EHRec$ = -12						; size = 12
__Ptr$ = 8						; size = 4
__Bytes$ = 12						; size = 4
??$_Deallocate@$07$0A@@std@@YAXPAXI@Z PROC		; std::_Deallocate<8,0>, COMDAT

; 213  : void _Deallocate(void* _Ptr, size_t _Bytes) noexcept {

  00000	55		 push	 ebp
  00001	8b ec		 mov	 ebp, esp
  00003	6a ff		 push	 -1
  00005	68 00 00 00 00	 push	 __ehhandler$??$_Deallocate@$07$0A@@std@@YAXPAXI@Z
  0000a	64 a1 00 00 00
	00		 mov	 eax, DWORD PTR fs:0
  00010	50		 push	 eax
  00011	a1 00 00 00 00	 mov	 eax, DWORD PTR ___security_cookie
  00016	33 c5		 xor	 eax, ebp
  00018	50		 push	 eax
  00019	8d 45 f4	 lea	 eax, DWORD PTR __$EHRec$[ebp]
  0001c	64 a3 00 00 00
	00		 mov	 DWORD PTR fs:0, eax

; 214  :     // deallocate storage allocated by _Allocate when !_HAS_ALIGNED_NEW || _Align <= __STDCPP_DEFAULT_NEW_ALIGNMENT__
; 215  : #if defined(_M_IX86) || defined(_M_X64)
; 216  :     if (_Bytes >= _Big_allocation_threshold) { // boost the alignment of big allocations to help autovectorization

  00022	81 7d 0c 00 10
	00 00		 cmp	 DWORD PTR __Bytes$[ebp], 4096 ; 00001000H
  00029	72 0f		 jb	 SHORT $LN2@Deallocate

; 217  :         _Adjust_manually_vector_aligned(_Ptr, _Bytes);

  0002b	8d 45 0c	 lea	 eax, DWORD PTR __Bytes$[ebp]
  0002e	50		 push	 eax
  0002f	8d 45 08	 lea	 eax, DWORD PTR __Ptr$[ebp]
  00032	50		 push	 eax
  00033	e8 00 00 00 00	 call	 ?_Adjust_manually_vector_aligned@std@@YAXAAPAXAAI@Z ; std::_Adjust_manually_vector_aligned
  00038	59		 pop	 ecx
  00039	59		 pop	 ecx
$LN2@Deallocate:

; 218  :     }
; 219  : #endif // defined(_M_IX86) || defined(_M_X64)
; 220  : 
; 221  :     ::operator delete(_Ptr, _Bytes);

  0003a	ff 75 0c	 push	 DWORD PTR __Bytes$[ebp]
  0003d	ff 75 08	 push	 DWORD PTR __Ptr$[ebp]
  00040	e8 00 00 00 00	 call	 ??3@YAXPAXI@Z		; operator delete
  00045	59		 pop	 ecx
  00046	59		 pop	 ecx

; 222  : }

  00047	8b 4d f4	 mov	 ecx, DWORD PTR __$EHRec$[ebp]
  0004a	64 89 0d 00 00
	00 00		 mov	 DWORD PTR fs:0, ecx
  00051	59		 pop	 ecx
  00052	c9		 leave
  00053	c3		 ret	 0
  00054	cc		 int	 3
  00055	cc		 int	 3
  00056	cc		 int	 3
  00057	cc		 int	 3
  00058	cc		 int	 3
_TEXT	ENDS
;	COMDAT text$x
text$x	SEGMENT
__ehhandler$??$_Deallocate@$07$0A@@std@@YAXPAXI@Z:
  00000	90		 npad	 1
  00001	90		 npad	 1
  00002	8b 54 24 08	 mov	 edx, DWORD PTR [esp+8]
  00006	8d 42 0c	 lea	 eax, DWORD PTR [edx+12]
  00009	8b 4a fc	 mov	 ecx, DWORD PTR [edx-4]
  0000c	33 c8		 xor	 ecx, eax
  0000e	e8 00 00 00 00	 call	 @__security_check_cookie@4
  00013	b8 00 00 00 00	 mov	 eax, OFFSET __ehfuncinfo$??$_Deallocate@$07$0A@@std@@YAXPAXI@Z
  00018	e9 00 00 00 00	 jmp	 ___CxxFrameHandler3
text$x	ENDS
??$_Deallocate@$07$0A@@std@@YAXPAXI@Z ENDP		; std::_Deallocate<8,0>
; Function compile flags: /Odspy
; File C:\Program Files (x86)\Microsoft Visual Studio\2019\Community\VC\Tools\MSVC\14.28.29333\include\xtree
;	COMDAT ?_Throw_tree_length_error@std@@YAXXZ
_TEXT	SEGMENT
?_Throw_tree_length_error@std@@YAXXZ PROC		; std::_Throw_tree_length_error, COMDAT

; 414  : [[noreturn]] inline void _Throw_tree_length_error() {

  00000	55		 push	 ebp
  00001	8b ec		 mov	 ebp, esp

; 415  :     _Xlength_error("map/set too long");

  00003	68 00 00 00 00	 push	 OFFSET ??_C@_0BB@GCADKGJO@map?1set?5too?5long@
  00008	e8 00 00 00 00	 call	 ?_Xlength_error@std@@YAXPBD@Z ; std::_Xlength_error
$LN2@Throw_tree:

; 416  : }

  0000d	5d		 pop	 ebp
  0000e	c3		 ret	 0
?_Throw_tree_length_error@std@@YAXXZ ENDP		; std::_Throw_tree_length_error
_TEXT	ENDS
; Function compile flags: /Odspy
; File C:\Program Files (x86)\Microsoft Visual Studio\2019\Community\VC\Tools\MSVC\14.28.29333\include\xstring
; File C:\Program Files (x86)\Microsoft Visual Studio\2019\Community\VC\Tools\MSVC\14.28.29333\include\xstddef
; File C:\Program Files (x86)\Microsoft Visual Studio\2019\Community\VC\Tools\MSVC\14.28.29333\include\xstring
;	COMDAT ?c_str@?$basic_string@DU?$char_traits@D@std@@V?$allocator@D@2@@std@@QBEPBDXZ
_TEXT	SEGMENT
$T1 = -28						; size = 4
__Ptr$ = -24						; size = 4
_this$ = -20						; size = 4
__Result$2 = -16					; size = 4
tv80 = -12						; size = 4
_this$ = -8						; size = 4
$T3 = -1						; size = 1
?c_str@?$basic_string@DU?$char_traits@D@std@@V?$allocator@D@2@@std@@QBEPBDXZ PROC ; std::basic_string<char,std::char_traits<char>,std::allocator<char> >::c_str, COMDAT
; _this$ = ecx

; 3751 :     _NODISCARD _Ret_z_ const _Elem* c_str() const noexcept {

  00000	55		 push	 ebp
  00001	8b ec		 mov	 ebp, esp
  00003	83 ec 1c	 sub	 esp, 28			; 0000001cH
  00006	89 4d ec	 mov	 DWORD PTR _this$[ebp], ecx

; 3752 :         return _Mypair._Myval2._Myptr();

  00009	8b 45 ec	 mov	 eax, DWORD PTR _this$[ebp]
  0000c	89 45 f8	 mov	 DWORD PTR _this$[ebp], eax

; 2218 :         const value_type* _Result = _Bx._Buf;

  0000f	8b 45 f8	 mov	 eax, DWORD PTR _this$[ebp]
  00012	89 45 f0	 mov	 DWORD PTR __Result$2[ebp], eax

; 2227 :         return _BUF_SIZE <= _Myres;

  00015	8b 45 f8	 mov	 eax, DWORD PTR _this$[ebp]
  00018	83 78 14 10	 cmp	 DWORD PTR [eax+20], 16	; 00000010H
  0001c	72 09		 jb	 SHORT $LN9@c_str
  0001e	c7 45 f4 01 00
	00 00		 mov	 DWORD PTR tv80[ebp], 1
  00025	eb 04		 jmp	 SHORT $LN10@c_str
$LN9@c_str:
  00027	83 65 f4 00	 and	 DWORD PTR tv80[ebp], 0
$LN10@c_str:
  0002b	8a 45 f4	 mov	 al, BYTE PTR tv80[ebp]
  0002e	88 45 ff	 mov	 BYTE PTR $T3[ebp], al

; 2219 :         if (_Large_string_engaged()) {

  00031	0f b6 45 ff	 movzx	 eax, BYTE PTR $T3[ebp]
  00035	85 c0		 test	 eax, eax
  00037	74 0e		 je	 SHORT $LN4@c_str

; 2220 :             _Result = _Unfancy(_Bx._Ptr);

  00039	8b 45 f8	 mov	 eax, DWORD PTR _this$[ebp]
  0003c	8b 00		 mov	 eax, DWORD PTR [eax]
  0003e	89 45 e8	 mov	 DWORD PTR __Ptr$[ebp], eax
; File C:\Program Files (x86)\Microsoft Visual Studio\2019\Community\VC\Tools\MSVC\14.28.29333\include\xstddef

; 289  :     return _Ptr;

  00041	8b 45 e8	 mov	 eax, DWORD PTR __Ptr$[ebp]
  00044	89 45 f0	 mov	 DWORD PTR __Result$2[ebp], eax
$LN4@c_str:
; File C:\Program Files (x86)\Microsoft Visual Studio\2019\Community\VC\Tools\MSVC\14.28.29333\include\xstring

; 2223 :         return _Result;

  00047	8b 45 f0	 mov	 eax, DWORD PTR __Result$2[ebp]
  0004a	89 45 e4	 mov	 DWORD PTR $T1[ebp], eax

; 3752 :         return _Mypair._Myval2._Myptr();

  0004d	8b 45 e4	 mov	 eax, DWORD PTR $T1[ebp]

; 3753 :     }

  00050	c9		 leave
  00051	c3		 ret	 0
?c_str@?$basic_string@DU?$char_traits@D@std@@V?$allocator@D@2@@std@@QBEPBDXZ ENDP ; std::basic_string<char,std::char_traits<char>,std::allocator<char> >::c_str
_TEXT	ENDS
; Function compile flags: /Odspy
; File C:\Program Files (x86)\Microsoft Visual Studio\2019\Community\VC\Tools\MSVC\14.28.29333\include\xmemory
;	COMDAT ?_Adjust_manually_vector_aligned@std@@YAXAAPAXAAI@Z
_TEXT	SEGMENT
__Min_back_shift$ = -16					; size = 4
__Ptr_user$ = -12					; size = 4
__Ptr_container$ = -8					; size = 4
__Back_shift$ = -4					; size = 4
__Ptr$ = 8						; size = 4
__Bytes$ = 12						; size = 4
?_Adjust_manually_vector_aligned@std@@YAXAAPAXAAI@Z PROC ; std::_Adjust_manually_vector_aligned, COMDAT

; 132  : inline void _Adjust_manually_vector_aligned(void*& _Ptr, size_t& _Bytes) {

  00000	55		 push	 ebp
  00001	8b ec		 mov	 ebp, esp
  00003	83 ec 10	 sub	 esp, 16			; 00000010H

; 133  :     // adjust parameters from _Allocate_manually_vector_aligned to pass to operator delete
; 134  :     _Bytes += _Non_user_size;

  00006	8b 45 0c	 mov	 eax, DWORD PTR __Bytes$[ebp]
  00009	8b 00		 mov	 eax, DWORD PTR [eax]
  0000b	83 c0 23	 add	 eax, 35			; 00000023H
  0000e	8b 4d 0c	 mov	 ecx, DWORD PTR __Bytes$[ebp]
  00011	89 01		 mov	 DWORD PTR [ecx], eax

; 135  : 
; 136  :     const uintptr_t* const _Ptr_user = reinterpret_cast<uintptr_t*>(_Ptr);

  00013	8b 45 08	 mov	 eax, DWORD PTR __Ptr$[ebp]
  00016	8b 00		 mov	 eax, DWORD PTR [eax]
  00018	89 45 f4	 mov	 DWORD PTR __Ptr_user$[ebp], eax

; 137  :     const uintptr_t _Ptr_container   = _Ptr_user[-1];

  0001b	6a 04		 push	 4
  0001d	58		 pop	 eax
  0001e	6b c0 ff	 imul	 eax, eax, -1
  00021	8b 4d f4	 mov	 ecx, DWORD PTR __Ptr_user$[ebp]
  00024	8b 04 01	 mov	 eax, DWORD PTR [ecx+eax]
  00027	89 45 f8	 mov	 DWORD PTR __Ptr_container$[ebp], eax

; 138  : 
; 139  :     // If the following asserts, it likely means that we are performing
; 140  :     // an aligned delete on memory coming from an unaligned allocation.
; 141  :     _STL_ASSERT(_Ptr_user[-2] == _Big_allocation_sentinel, "invalid argument");
; 142  : 
; 143  :     // Extra paranoia on aligned allocation/deallocation; ensure _Ptr_container is
; 144  :     // in range [_Min_back_shift, _Non_user_size]
; 145  : #ifdef _DEBUG
; 146  :     constexpr uintptr_t _Min_back_shift = 2 * sizeof(void*);
; 147  : #else // ^^^ _DEBUG ^^^ // vvv !_DEBUG vvv
; 148  :     constexpr uintptr_t _Min_back_shift = sizeof(void*);

  0002a	c7 45 f0 04 00
	00 00		 mov	 DWORD PTR __Min_back_shift$[ebp], 4

; 149  : #endif // _DEBUG
; 150  :     const uintptr_t _Back_shift = reinterpret_cast<uintptr_t>(_Ptr) - _Ptr_container;

  00031	8b 45 08	 mov	 eax, DWORD PTR __Ptr$[ebp]
  00034	8b 00		 mov	 eax, DWORD PTR [eax]
  00036	2b 45 f8	 sub	 eax, DWORD PTR __Ptr_container$[ebp]
  00039	89 45 fc	 mov	 DWORD PTR __Back_shift$[ebp], eax
$LN4@Adjust_man:

; 151  :     _STL_VERIFY(_Back_shift >= _Min_back_shift && _Back_shift <= _Non_user_size, "invalid argument");

  0003c	83 7d fc 04	 cmp	 DWORD PTR __Back_shift$[ebp], 4
  00040	72 08		 jb	 SHORT $LN7@Adjust_man
  00042	83 7d fc 23	 cmp	 DWORD PTR __Back_shift$[ebp], 35 ; 00000023H
  00046	77 02		 ja	 SHORT $LN7@Adjust_man
  00048	eb 09		 jmp	 SHORT $LN2@Adjust_man
$LN7@Adjust_man:
  0004a	e8 00 00 00 00	 call	 __invalid_parameter_noinfo_noreturn
  0004f	33 c0		 xor	 eax, eax
  00051	75 f7		 jne	 SHORT $LN7@Adjust_man
$LN2@Adjust_man:
  00053	33 c0		 xor	 eax, eax
  00055	75 e5		 jne	 SHORT $LN4@Adjust_man

; 152  :     _Ptr = reinterpret_cast<void*>(_Ptr_container);

  00057	8b 45 08	 mov	 eax, DWORD PTR __Ptr$[ebp]
  0005a	8b 4d f8	 mov	 ecx, DWORD PTR __Ptr_container$[ebp]
  0005d	89 08		 mov	 DWORD PTR [eax], ecx
$LN10@Adjust_man:

; 153  : }

  0005f	c9		 leave
  00060	c3		 ret	 0
?_Adjust_manually_vector_aligned@std@@YAXAAPAXAAI@Z ENDP ; std::_Adjust_manually_vector_aligned
_TEXT	ENDS
; Function compile flags: /Odspy
; File C:\Program Files (x86)\Microsoft Visual Studio\2019\Community\VC\Tools\MSVC\14.28.29333\include\exception
;	COMDAT ?_Throw_bad_array_new_length@std@@YAXXZ
_TEXT	SEGMENT
$T1 = -12						; size = 12
?_Throw_bad_array_new_length@std@@YAXXZ PROC		; std::_Throw_bad_array_new_length, COMDAT

; 320  : [[noreturn]] inline void _Throw_bad_array_new_length() {

  00000	55		 push	 ebp
  00001	8b ec		 mov	 ebp, esp
  00003	83 ec 0c	 sub	 esp, 12			; 0000000cH

; 321  :     _THROW(bad_array_new_length{});

  00006	8d 4d f4	 lea	 ecx, DWORD PTR $T1[ebp]
  00009	e8 00 00 00 00	 call	 ??0bad_array_new_length@std@@QAE@XZ ; std::bad_array_new_length::bad_array_new_length
  0000e	68 00 00 00 00	 push	 OFFSET __TI3?AVbad_array_new_length@std@@
  00013	8d 45 f4	 lea	 eax, DWORD PTR $T1[ebp]
  00016	50		 push	 eax
  00017	e8 00 00 00 00	 call	 __CxxThrowException@8
$LN2@Throw_bad_:

; 322  : }

  0001c	c9		 leave
  0001d	c3		 ret	 0
?_Throw_bad_array_new_length@std@@YAXXZ ENDP		; std::_Throw_bad_array_new_length
_TEXT	ENDS
; Function compile flags: /Odspy
; File C:\Program Files (x86)\Microsoft Visual Studio\2019\Community\VC\Tools\MSVC\14.28.29333\include\vcruntime_exception.h
;	COMDAT ??_Gbad_array_new_length@std@@UAEPAXI@Z
_TEXT	SEGMENT
_this$ = -4						; size = 4
___flags$ = 8						; size = 4
??_Gbad_array_new_length@std@@UAEPAXI@Z PROC		; std::bad_array_new_length::`scalar deleting destructor', COMDAT
; _this$ = ecx
  00000	55		 push	 ebp
  00001	8b ec		 mov	 ebp, esp
  00003	51		 push	 ecx
  00004	89 4d fc	 mov	 DWORD PTR _this$[ebp], ecx

; 89   :     {

  00007	8b 45 fc	 mov	 eax, DWORD PTR _this$[ebp]
  0000a	c7 00 00 00 00
	00		 mov	 DWORD PTR [eax], OFFSET ??_7exception@std@@6B@

; 90   :         __std_exception_destroy(&_Data);

  00010	8b 45 fc	 mov	 eax, DWORD PTR _this$[ebp]
  00013	83 c0 04	 add	 eax, 4
  00016	50		 push	 eax
  00017	e8 00 00 00 00	 call	 ___std_exception_destroy
  0001c	59		 pop	 ecx
  0001d	8b 45 08	 mov	 eax, DWORD PTR ___flags$[ebp]
  00020	83 e0 01	 and	 eax, 1
  00023	74 0c		 je	 SHORT $LN2@scalar
  00025	6a 0c		 push	 12			; 0000000cH
  00027	ff 75 fc	 push	 DWORD PTR _this$[ebp]
  0002a	e8 00 00 00 00	 call	 ??3@YAXPAXI@Z		; operator delete
  0002f	59		 pop	 ecx
  00030	59		 pop	 ecx
$LN2@scalar:
  00031	8b 45 fc	 mov	 eax, DWORD PTR _this$[ebp]
  00034	c9		 leave
  00035	c2 04 00	 ret	 4
??_Gbad_array_new_length@std@@UAEPAXI@Z ENDP		; std::bad_array_new_length::`scalar deleting destructor'
_TEXT	ENDS
; Function compile flags: /Odspy
;	COMDAT ??0bad_array_new_length@std@@QAE@ABV01@@Z
_TEXT	SEGMENT
_this$ = -4						; size = 4
___that$ = 8						; size = 4
??0bad_array_new_length@std@@QAE@ABV01@@Z PROC		; std::bad_array_new_length::bad_array_new_length, COMDAT
; _this$ = ecx
  00000	55		 push	 ebp
  00001	8b ec		 mov	 ebp, esp
  00003	51		 push	 ecx
  00004	89 4d fc	 mov	 DWORD PTR _this$[ebp], ecx
  00007	ff 75 08	 push	 DWORD PTR ___that$[ebp]
  0000a	8b 4d fc	 mov	 ecx, DWORD PTR _this$[ebp]
  0000d	e8 00 00 00 00	 call	 ??0exception@std@@QAE@ABV01@@Z ; std::exception::exception
  00012	8b 45 fc	 mov	 eax, DWORD PTR _this$[ebp]
  00015	c7 00 00 00 00
	00		 mov	 DWORD PTR [eax], OFFSET ??_7bad_alloc@std@@6B@
  0001b	8b 45 fc	 mov	 eax, DWORD PTR _this$[ebp]
  0001e	c7 00 00 00 00
	00		 mov	 DWORD PTR [eax], OFFSET ??_7bad_array_new_length@std@@6B@
  00024	8b 45 fc	 mov	 eax, DWORD PTR _this$[ebp]
  00027	c9		 leave
  00028	c2 04 00	 ret	 4
??0bad_array_new_length@std@@QAE@ABV01@@Z ENDP		; std::bad_array_new_length::bad_array_new_length
_TEXT	ENDS
; Function compile flags: /Odspy
; File C:\Program Files (x86)\Microsoft Visual Studio\2019\Community\VC\Tools\MSVC\14.28.29333\include\vcruntime_exception.h
;	COMDAT ??1bad_array_new_length@std@@UAE@XZ
_TEXT	SEGMENT
_this$ = -4						; size = 4
??1bad_array_new_length@std@@UAE@XZ PROC		; std::bad_array_new_length::~bad_array_new_length, COMDAT
; _this$ = ecx
  00000	55		 push	 ebp
  00001	8b ec		 mov	 ebp, esp
  00003	51		 push	 ecx
  00004	89 4d fc	 mov	 DWORD PTR _this$[ebp], ecx

; 89   :     {

  00007	8b 45 fc	 mov	 eax, DWORD PTR _this$[ebp]
  0000a	c7 00 00 00 00
	00		 mov	 DWORD PTR [eax], OFFSET ??_7exception@std@@6B@

; 90   :         __std_exception_destroy(&_Data);

  00010	8b 45 fc	 mov	 eax, DWORD PTR _this$[ebp]
  00013	83 c0 04	 add	 eax, 4
  00016	50		 push	 eax
  00017	e8 00 00 00 00	 call	 ___std_exception_destroy
  0001c	59		 pop	 ecx
  0001d	c9		 leave
  0001e	c3		 ret	 0
??1bad_array_new_length@std@@UAE@XZ ENDP		; std::bad_array_new_length::~bad_array_new_length
_TEXT	ENDS
; Function compile flags: /Odspy
; File C:\Program Files (x86)\Microsoft Visual Studio\2019\Community\VC\Tools\MSVC\14.28.29333\include\vcruntime_exception.h
;	COMDAT ??0bad_array_new_length@std@@QAE@XZ
_TEXT	SEGMENT
_this$ = -4						; size = 4
??0bad_array_new_length@std@@QAE@XZ PROC		; std::bad_array_new_length::bad_array_new_length, COMDAT
; _this$ = ecx

; 141  :     {

  00000	55		 push	 ebp
  00001	8b ec		 mov	 ebp, esp
  00003	51		 push	 ecx
  00004	89 4d fc	 mov	 DWORD PTR _this$[ebp], ecx

; 66   :     {

  00007	8b 45 fc	 mov	 eax, DWORD PTR _this$[ebp]
  0000a	c7 00 00 00 00
	00		 mov	 DWORD PTR [eax], OFFSET ??_7exception@std@@6B@

; 65   :         : _Data()

  00010	33 c0		 xor	 eax, eax
  00012	8b 4d fc	 mov	 ecx, DWORD PTR _this$[ebp]
  00015	83 c1 04	 add	 ecx, 4
  00018	89 01		 mov	 DWORD PTR [ecx], eax
  0001a	89 41 04	 mov	 DWORD PTR [ecx+4], eax

; 67   :         _Data._What = _Message;

  0001d	8b 45 fc	 mov	 eax, DWORD PTR _this$[ebp]
  00020	c7 40 04 00 00
	00 00		 mov	 DWORD PTR [eax+4], OFFSET ??_C@_0BF@KINCDENJ@bad?5array?5new?5length@

; 130  :     {

  00027	8b 45 fc	 mov	 eax, DWORD PTR _this$[ebp]
  0002a	c7 00 00 00 00
	00		 mov	 DWORD PTR [eax], OFFSET ??_7bad_alloc@std@@6B@

; 141  :     {

  00030	8b 45 fc	 mov	 eax, DWORD PTR _this$[ebp]
  00033	c7 00 00 00 00
	00		 mov	 DWORD PTR [eax], OFFSET ??_7bad_array_new_length@std@@6B@

; 142  :     }

  00039	8b 45 fc	 mov	 eax, DWORD PTR _this$[ebp]
  0003c	c9		 leave
  0003d	c3		 ret	 0
??0bad_array_new_length@std@@QAE@XZ ENDP		; std::bad_array_new_length::bad_array_new_length
_TEXT	ENDS
; Function compile flags: /Odspy
; File C:\Program Files (x86)\Microsoft Visual Studio\2019\Community\VC\Tools\MSVC\14.28.29333\include\vcruntime_exception.h
;	COMDAT ??_Gbad_alloc@std@@UAEPAXI@Z
_TEXT	SEGMENT
_this$ = -4						; size = 4
___flags$ = 8						; size = 4
??_Gbad_alloc@std@@UAEPAXI@Z PROC			; std::bad_alloc::`scalar deleting destructor', COMDAT
; _this$ = ecx
  00000	55		 push	 ebp
  00001	8b ec		 mov	 ebp, esp
  00003	51		 push	 ecx
  00004	89 4d fc	 mov	 DWORD PTR _this$[ebp], ecx

; 89   :     {

  00007	8b 45 fc	 mov	 eax, DWORD PTR _this$[ebp]
  0000a	c7 00 00 00 00
	00		 mov	 DWORD PTR [eax], OFFSET ??_7exception@std@@6B@

; 90   :         __std_exception_destroy(&_Data);

  00010	8b 45 fc	 mov	 eax, DWORD PTR _this$[ebp]
  00013	83 c0 04	 add	 eax, 4
  00016	50		 push	 eax
  00017	e8 00 00 00 00	 call	 ___std_exception_destroy
  0001c	59		 pop	 ecx
  0001d	8b 45 08	 mov	 eax, DWORD PTR ___flags$[ebp]
  00020	83 e0 01	 and	 eax, 1
  00023	74 0c		 je	 SHORT $LN2@scalar
  00025	6a 0c		 push	 12			; 0000000cH
  00027	ff 75 fc	 push	 DWORD PTR _this$[ebp]
  0002a	e8 00 00 00 00	 call	 ??3@YAXPAXI@Z		; operator delete
  0002f	59		 pop	 ecx
  00030	59		 pop	 ecx
$LN2@scalar:
  00031	8b 45 fc	 mov	 eax, DWORD PTR _this$[ebp]
  00034	c9		 leave
  00035	c2 04 00	 ret	 4
??_Gbad_alloc@std@@UAEPAXI@Z ENDP			; std::bad_alloc::`scalar deleting destructor'
_TEXT	ENDS
; Function compile flags: /Odspy
;	COMDAT ??0bad_alloc@std@@QAE@ABV01@@Z
_TEXT	SEGMENT
_this$ = -4						; size = 4
___that$ = 8						; size = 4
??0bad_alloc@std@@QAE@ABV01@@Z PROC			; std::bad_alloc::bad_alloc, COMDAT
; _this$ = ecx
  00000	55		 push	 ebp
  00001	8b ec		 mov	 ebp, esp
  00003	51		 push	 ecx
  00004	89 4d fc	 mov	 DWORD PTR _this$[ebp], ecx
  00007	ff 75 08	 push	 DWORD PTR ___that$[ebp]
  0000a	8b 4d fc	 mov	 ecx, DWORD PTR _this$[ebp]
  0000d	e8 00 00 00 00	 call	 ??0exception@std@@QAE@ABV01@@Z ; std::exception::exception
  00012	8b 45 fc	 mov	 eax, DWORD PTR _this$[ebp]
  00015	c7 00 00 00 00
	00		 mov	 DWORD PTR [eax], OFFSET ??_7bad_alloc@std@@6B@
  0001b	8b 45 fc	 mov	 eax, DWORD PTR _this$[ebp]
  0001e	c9		 leave
  0001f	c2 04 00	 ret	 4
??0bad_alloc@std@@QAE@ABV01@@Z ENDP			; std::bad_alloc::bad_alloc
_TEXT	ENDS
; Function compile flags: /Odspy
; File C:\Program Files (x86)\Microsoft Visual Studio\2019\Community\VC\Tools\MSVC\14.28.29333\include\vcruntime_exception.h
;	COMDAT ??_Gexception@std@@UAEPAXI@Z
_TEXT	SEGMENT
_this$ = -4						; size = 4
___flags$ = 8						; size = 4
??_Gexception@std@@UAEPAXI@Z PROC			; std::exception::`scalar deleting destructor', COMDAT
; _this$ = ecx
  00000	55		 push	 ebp
  00001	8b ec		 mov	 ebp, esp
  00003	51		 push	 ecx
  00004	89 4d fc	 mov	 DWORD PTR _this$[ebp], ecx

; 89   :     {

  00007	8b 45 fc	 mov	 eax, DWORD PTR _this$[ebp]
  0000a	c7 00 00 00 00
	00		 mov	 DWORD PTR [eax], OFFSET ??_7exception@std@@6B@

; 90   :         __std_exception_destroy(&_Data);

  00010	8b 45 fc	 mov	 eax, DWORD PTR _this$[ebp]
  00013	83 c0 04	 add	 eax, 4
  00016	50		 push	 eax
  00017	e8 00 00 00 00	 call	 ___std_exception_destroy
  0001c	59		 pop	 ecx
  0001d	8b 45 08	 mov	 eax, DWORD PTR ___flags$[ebp]
  00020	83 e0 01	 and	 eax, 1
  00023	74 0c		 je	 SHORT $LN2@scalar
  00025	6a 0c		 push	 12			; 0000000cH
  00027	ff 75 fc	 push	 DWORD PTR _this$[ebp]
  0002a	e8 00 00 00 00	 call	 ??3@YAXPAXI@Z		; operator delete
  0002f	59		 pop	 ecx
  00030	59		 pop	 ecx
$LN2@scalar:
  00031	8b 45 fc	 mov	 eax, DWORD PTR _this$[ebp]
  00034	c9		 leave
  00035	c2 04 00	 ret	 4
??_Gexception@std@@UAEPAXI@Z ENDP			; std::exception::`scalar deleting destructor'
_TEXT	ENDS
; Function compile flags: /Odspy
; File C:\Program Files (x86)\Microsoft Visual Studio\2019\Community\VC\Tools\MSVC\14.28.29333\include\vcruntime_exception.h
;	COMDAT ?what@exception@std@@UBEPBDXZ
_TEXT	SEGMENT
tv69 = -8						; size = 4
_this$ = -4						; size = 4
?what@exception@std@@UBEPBDXZ PROC			; std::exception::what, COMDAT
; _this$ = ecx

; 94   :     {

  00000	55		 push	 ebp
  00001	8b ec		 mov	 ebp, esp
  00003	51		 push	 ecx
  00004	51		 push	 ecx
  00005	89 4d fc	 mov	 DWORD PTR _this$[ebp], ecx

; 95   :         return _Data._What ? _Data._What : "Unknown exception";

  00008	8b 45 fc	 mov	 eax, DWORD PTR _this$[ebp]
  0000b	83 78 04 00	 cmp	 DWORD PTR [eax+4], 0
  0000f	74 0b		 je	 SHORT $LN3@what
  00011	8b 45 fc	 mov	 eax, DWORD PTR _this$[ebp]
  00014	8b 40 04	 mov	 eax, DWORD PTR [eax+4]
  00017	89 45 f8	 mov	 DWORD PTR tv69[ebp], eax
  0001a	eb 07		 jmp	 SHORT $LN4@what
$LN3@what:
  0001c	c7 45 f8 00 00
	00 00		 mov	 DWORD PTR tv69[ebp], OFFSET ??_C@_0BC@EOODALEL@Unknown?5exception@
$LN4@what:
  00023	8b 45 f8	 mov	 eax, DWORD PTR tv69[ebp]

; 96   :     }

  00026	c9		 leave
  00027	c3		 ret	 0
?what@exception@std@@UBEPBDXZ ENDP			; std::exception::what
_TEXT	ENDS
; Function compile flags: /Odspy
; File C:\Program Files (x86)\Microsoft Visual Studio\2019\Community\VC\Tools\MSVC\14.28.29333\include\vcruntime_exception.h
;	COMDAT ??0exception@std@@QAE@ABV01@@Z
_TEXT	SEGMENT
_this$ = -4						; size = 4
__Other$ = 8						; size = 4
??0exception@std@@QAE@ABV01@@Z PROC			; std::exception::exception, COMDAT
; _this$ = ecx

; 72   :     {

  00000	55		 push	 ebp
  00001	8b ec		 mov	 ebp, esp
  00003	51		 push	 ecx
  00004	89 4d fc	 mov	 DWORD PTR _this$[ebp], ecx
  00007	8b 45 fc	 mov	 eax, DWORD PTR _this$[ebp]
  0000a	c7 00 00 00 00
	00		 mov	 DWORD PTR [eax], OFFSET ??_7exception@std@@6B@

; 71   :         : _Data()

  00010	33 c0		 xor	 eax, eax
  00012	8b 4d fc	 mov	 ecx, DWORD PTR _this$[ebp]
  00015	83 c1 04	 add	 ecx, 4
  00018	89 01		 mov	 DWORD PTR [ecx], eax
  0001a	89 41 04	 mov	 DWORD PTR [ecx+4], eax

; 73   :         __std_exception_copy(&_Other._Data, &_Data);

  0001d	8b 45 fc	 mov	 eax, DWORD PTR _this$[ebp]
  00020	83 c0 04	 add	 eax, 4
  00023	50		 push	 eax
  00024	8b 45 08	 mov	 eax, DWORD PTR __Other$[ebp]
  00027	83 c0 04	 add	 eax, 4
  0002a	50		 push	 eax
  0002b	e8 00 00 00 00	 call	 ___std_exception_copy
  00030	59		 pop	 ecx
  00031	59		 pop	 ecx

; 74   :     }

  00032	8b 45 fc	 mov	 eax, DWORD PTR _this$[ebp]
  00035	c9		 leave
  00036	c2 04 00	 ret	 4
??0exception@std@@QAE@ABV01@@Z ENDP			; std::exception::exception
_TEXT	ENDS
; Function compile flags: /Odspy
; File D:\Metin2 Server Files\mainline\SRC_2014\Metin2Client\GameLib\FlyingInstance.cpp
;	COMDAT ?__empty_global_delete@@YAXPAXI@Z
_TEXT	SEGMENT
___formal$ = 8						; size = 4
___formal$ = 12						; size = 4
?__empty_global_delete@@YAXPAXI@Z PROC			; __empty_global_delete, COMDAT

  00000	55		 push	 ebp
  00001	8b ec		 mov	 ebp, esp
  00003	5d		 pop	 ebp
  00004	c3		 ret	 0
?__empty_global_delete@@YAXPAXI@Z ENDP			; __empty_global_delete
_TEXT	ENDS
; Function compile flags: /Odspy
; File D:\Metin2 Server Files\mainline\SRC_2014\Metin2Client\GameLib\FlyingInstance.cpp
;	COMDAT ?__empty_global_delete@@YAXPAX@Z
_TEXT	SEGMENT
___formal$ = 8						; size = 4
?__empty_global_delete@@YAXPAX@Z PROC			; __empty_global_delete, COMDAT

  00000	55		 push	 ebp
  00001	8b ec		 mov	 ebp, esp
  00003	5d		 pop	 ebp
  00004	c3		 ret	 0
?__empty_global_delete@@YAXPAX@Z ENDP			; __empty_global_delete
_TEXT	ENDS
; Function compile flags: /Odspy
;	COMDAT ??_H@YGXPAXIIP6EPAX0@Z@Z
_TEXT	SEGMENT
tv66 = -4						; size = 4
___t$ = 8						; size = 4
___s$ = 12						; size = 4
___n$ = 16						; size = 4
___f$ = 20						; size = 4
??_H@YGXPAXIIP6EPAX0@Z@Z PROC				; `vector constructor iterator', COMDAT
  00000	55		 push	 ebp
  00001	8b ec		 mov	 ebp, esp
  00003	51		 push	 ecx
$LN2@vector:
  00004	8b 45 10	 mov	 eax, DWORD PTR ___n$[ebp]
  00007	89 45 fc	 mov	 DWORD PTR tv66[ebp], eax
  0000a	8b 45 10	 mov	 eax, DWORD PTR ___n$[ebp]
  0000d	48		 dec	 eax
  0000e	89 45 10	 mov	 DWORD PTR ___n$[ebp], eax
  00011	83 7d fc 00	 cmp	 DWORD PTR tv66[ebp], 0
  00015	76 11		 jbe	 SHORT $LN1@vector
  00017	8b 4d 08	 mov	 ecx, DWORD PTR ___t$[ebp]
  0001a	ff 55 14	 call	 DWORD PTR ___f$[ebp]
  0001d	8b 45 08	 mov	 eax, DWORD PTR ___t$[ebp]
  00020	03 45 0c	 add	 eax, DWORD PTR ___s$[ebp]
  00023	89 45 08	 mov	 DWORD PTR ___t$[ebp], eax
  00026	eb dc		 jmp	 SHORT $LN2@vector
$LN1@vector:
  00028	c9		 leave
  00029	c2 10 00	 ret	 16			; 00000010H
??_H@YGXPAXIIP6EPAX0@Z@Z ENDP				; `vector constructor iterator'
_TEXT	ENDS
END
