; Listing generated by Microsoft (R) Optimizing Compiler Version 19.28.29335.0 

	TITLE	D:\Metin2 Server Files\mainline\SRC_2014\Metin2Client\GameLib\GameUtil.cpp
	.686P
	.XMM
	include listing.inc
	.model	flat

INCLUDELIB LIBCMT
INCLUDELIB OLDNAMES

PUBLIC	?DetectCollisionDynamicSphereVSDynamicSphere@@YA_NABUCDynamicSphereInstance@@0@Z ; DetectCollisionDynamicSphereVSDynamicSphere
PUBLIC	?DetectCollisionDynamicZCylinderVSDynamicZCylinder@@YA_NABUCDynamicSphereInstance@@0@Z ; DetectCollisionDynamicZCylinderVSDynamicZCylinder
PUBLIC	?GetDegreeFromPosition@@YAMMM@Z			; GetDegreeFromPosition
PUBLIC	?GetDegreeFromPosition2@@YAMMMMM@Z		; GetDegreeFromPosition2
PUBLIC	?GetInterpolatedRotation@@YAMMMM@Z		; GetInterpolatedRotation
PUBLIC	?IsCWRotation@@YA_NMM@Z				; IsCWRotation
PUBLIC	?IsCCWRotation@@YA_NMM@Z			; IsCCWRotation
PUBLIC	?IsCWAcuteAngle@@YA_NMM@Z			; IsCWAcuteAngle
PUBLIC	?IsCCWAcuteAngle@@YA_NMM@Z			; IsCCWAcuteAngle
PUBLIC	?GetDegreeDifference@@YAMMM@Z			; GetDegreeDifference
PUBLIC	?GetRotatingDirection@@YAHMM@Z			; GetRotatingDirection
PUBLIC	?CameraRotationToCharacterRotation@@YAMM@Z	; CameraRotationToCharacterRotation
PUBLIC	?CharacterRotationToCameraRotation@@YAMM@Z	; CharacterRotationToCameraRotation
PUBLIC	__real@42652ee0
PUBLIC	__real@43340000
PUBLIC	__real@43b40000
PUBLIC	__real@44070000
PUBLIC	__real@bf800000
EXTRN	_abs:PROC
EXTRN	_acos:PROC
EXTRN	_fmod:PROC
EXTRN	_floor:PROC
EXTRN	_D3DXVec3Normalize@8:PROC
EXTRN	?GetLinearInterpolation@@YAMMMM@Z:PROC		; GetLinearInterpolation
EXTRN	?IntersectLineSegments@@YAXABUD3DXVECTOR3@@000AAU1@1@Z:PROC ; IntersectLineSegments
EXTRN	@__security_check_cookie@4:PROC
EXTRN	___security_cookie:DWORD
EXTRN	__fltused:DWORD
;	COMDAT __real@bf800000
CONST	SEGMENT
__real@bf800000 DD 0bf800000r			; -1
CONST	ENDS
;	COMDAT __real@44070000
CONST	SEGMENT
__real@44070000 DD 044070000r			; 540
CONST	ENDS
;	COMDAT __real@43b40000
CONST	SEGMENT
__real@43b40000 DD 043b40000r			; 360
CONST	ENDS
;	COMDAT __real@43340000
CONST	SEGMENT
__real@43340000 DD 043340000r			; 180
CONST	ENDS
;	COMDAT __real@42652ee0
CONST	SEGMENT
__real@42652ee0 DD 042652ee0r			; 57.2958
CONST	ENDS
; Function compile flags: /Odspy
; File D:\Metin2 Server Files\mainline\SRC_2014\Metin2Client\GameLib\GameUtil.cpp
; File C:\Program Files (x86)\Windows Kits\10\Include\10.0.18362.0\ucrt\corecrt_math.h
; File D:\Metin2 Server Files\mainline\SRC_2014\Metin2Client\GameLib\GameUtil.cpp
; File C:\Program Files (x86)\Windows Kits\10\Include\10.0.18362.0\ucrt\corecrt_math.h
; File C:\Program Files (x86)\Microsoft Visual Studio\2019\Community\VC\Tools\MSVC\14.28.29333\include\cmath
; File D:\Metin2 Server Files\mainline\SRC_2014\Metin2Client\GameLib\GameUtil.cpp
;	COMDAT ?CharacterRotationToCameraRotation@@YAMM@Z
_TEXT	SEGMENT
$T1 = -4						; size = 4
_fCharacterRotation$ = 8				; size = 4
?CharacterRotationToCameraRotation@@YAMM@Z PROC		; CharacterRotationToCameraRotation, COMDAT

; 399  : {

  00000	55		 push	 ebp
  00001	8b ec		 mov	 ebp, esp
  00003	51		 push	 ecx
; File C:\Program Files (x86)\Windows Kits\10\Include\10.0.18362.0\ucrt\corecrt_math.h

; 691  :             return (float)fmod(_X, _Y);

  00004	f3 0f 5a 05 00
	00 00 00	 cvtss2sd xmm0, DWORD PTR __real@43b40000
  0000c	51		 push	 ecx
  0000d	51		 push	 ecx
  0000e	f2 0f 11 04 24	 movsd	 QWORD PTR [esp], xmm0
; File D:\Metin2 Server Files\mainline\SRC_2014\Metin2Client\GameLib\GameUtil.cpp

; 400  : 	return fmod((540.0f - fCharacterRotation), 360.0f);

  00013	f3 0f 10 05 00
	00 00 00	 movss	 xmm0, DWORD PTR __real@44070000
  0001b	f3 0f 5c 45 08	 subss	 xmm0, DWORD PTR _fCharacterRotation$[ebp]
; File C:\Program Files (x86)\Windows Kits\10\Include\10.0.18362.0\ucrt\corecrt_math.h

; 691  :             return (float)fmod(_X, _Y);

  00020	f3 0f 5a c0	 cvtss2sd xmm0, xmm0
  00024	51		 push	 ecx
  00025	51		 push	 ecx
  00026	f2 0f 11 04 24	 movsd	 QWORD PTR [esp], xmm0
  0002b	e8 00 00 00 00	 call	 _fmod
  00030	83 c4 10	 add	 esp, 16			; 00000010H
; File C:\Program Files (x86)\Microsoft Visual Studio\2019\Community\VC\Tools\MSVC\14.28.29333\include\cmath

; 119  :     return _CSTD fmodf(_Xx, _Yx);

  00033	d9 5d fc	 fstp	 DWORD PTR $T1[ebp]
; File D:\Metin2 Server Files\mainline\SRC_2014\Metin2Client\GameLib\GameUtil.cpp

; 400  : 	return fmod((540.0f - fCharacterRotation), 360.0f);

  00036	d9 45 fc	 fld	 DWORD PTR $T1[ebp]

; 401  : }

  00039	c9		 leave
  0003a	c3		 ret	 0
?CharacterRotationToCameraRotation@@YAMM@Z ENDP		; CharacterRotationToCameraRotation
_TEXT	ENDS
; Function compile flags: /Odspy
; File D:\Metin2 Server Files\mainline\SRC_2014\Metin2Client\GameLib\GameUtil.cpp
; File C:\Program Files (x86)\Windows Kits\10\Include\10.0.18362.0\ucrt\corecrt_math.h
; File D:\Metin2 Server Files\mainline\SRC_2014\Metin2Client\GameLib\GameUtil.cpp
; File C:\Program Files (x86)\Windows Kits\10\Include\10.0.18362.0\ucrt\corecrt_math.h
; File C:\Program Files (x86)\Microsoft Visual Studio\2019\Community\VC\Tools\MSVC\14.28.29333\include\cmath
; File D:\Metin2 Server Files\mainline\SRC_2014\Metin2Client\GameLib\GameUtil.cpp
;	COMDAT ?CameraRotationToCharacterRotation@@YAMM@Z
_TEXT	SEGMENT
$T1 = -4						; size = 4
_fCameraRotation$ = 8					; size = 4
?CameraRotationToCharacterRotation@@YAMM@Z PROC		; CameraRotationToCharacterRotation, COMDAT

; 394  : {

  00000	55		 push	 ebp
  00001	8b ec		 mov	 ebp, esp
  00003	51		 push	 ecx
; File C:\Program Files (x86)\Windows Kits\10\Include\10.0.18362.0\ucrt\corecrt_math.h

; 691  :             return (float)fmod(_X, _Y);

  00004	f3 0f 5a 05 00
	00 00 00	 cvtss2sd xmm0, DWORD PTR __real@43b40000
  0000c	51		 push	 ecx
  0000d	51		 push	 ecx
  0000e	f2 0f 11 04 24	 movsd	 QWORD PTR [esp], xmm0
; File D:\Metin2 Server Files\mainline\SRC_2014\Metin2Client\GameLib\GameUtil.cpp

; 395  : 	return fmod((540.0f - fCameraRotation), 360.0f);

  00013	f3 0f 10 05 00
	00 00 00	 movss	 xmm0, DWORD PTR __real@44070000
  0001b	f3 0f 5c 45 08	 subss	 xmm0, DWORD PTR _fCameraRotation$[ebp]
; File C:\Program Files (x86)\Windows Kits\10\Include\10.0.18362.0\ucrt\corecrt_math.h

; 691  :             return (float)fmod(_X, _Y);

  00020	f3 0f 5a c0	 cvtss2sd xmm0, xmm0
  00024	51		 push	 ecx
  00025	51		 push	 ecx
  00026	f2 0f 11 04 24	 movsd	 QWORD PTR [esp], xmm0
  0002b	e8 00 00 00 00	 call	 _fmod
  00030	83 c4 10	 add	 esp, 16			; 00000010H
; File C:\Program Files (x86)\Microsoft Visual Studio\2019\Community\VC\Tools\MSVC\14.28.29333\include\cmath

; 119  :     return _CSTD fmodf(_Xx, _Yx);

  00033	d9 5d fc	 fstp	 DWORD PTR $T1[ebp]
; File D:\Metin2 Server Files\mainline\SRC_2014\Metin2Client\GameLib\GameUtil.cpp

; 395  : 	return fmod((540.0f - fCameraRotation), 360.0f);

  00036	d9 45 fc	 fld	 DWORD PTR $T1[ebp]

; 396  : }

  00039	c9		 leave
  0003a	c3		 ret	 0
?CameraRotationToCharacterRotation@@YAMM@Z ENDP		; CameraRotationToCharacterRotation
_TEXT	ENDS
; Function compile flags: /Odspy
; File D:\Metin2 Server Files\mainline\SRC_2014\Metin2Client\GameLib\GameUtil.cpp
;	COMDAT ?GetRotatingDirection@@YAHMM@Z
_TEXT	SEGMENT
_fSource$ = 8						; size = 4
_fTarget$ = 12						; size = 4
?GetRotatingDirection@@YAHMM@Z PROC			; GetRotatingDirection, COMDAT

; 365  : {

  00000	55		 push	 ebp
  00001	8b ec		 mov	 ebp, esp

; 366  : 	if (fSource < 180.0f)

  00003	f3 0f 10 05 00
	00 00 00	 movss	 xmm0, DWORD PTR __real@43340000
  0000b	0f 2f 45 08	 comiss	 xmm0, DWORD PTR _fSource$[ebp]
  0000f	76 3d		 jbe	 SHORT $LN2@GetRotatin

; 367  : 	{
; 368  : 		if (fTarget < fSource)

  00011	f3 0f 10 45 08	 movss	 xmm0, DWORD PTR _fSource$[ebp]
  00016	0f 2f 45 0c	 comiss	 xmm0, DWORD PTR _fTarget$[ebp]
  0001a	76 07		 jbe	 SHORT $LN4@GetRotatin

; 369  : 			return DEGREE_DIRECTION_RIGHT;

  0001c	33 c0		 xor	 eax, eax
  0001e	40		 inc	 eax
  0001f	eb 66		 jmp	 SHORT $LN3@GetRotatin
  00021	eb 24		 jmp	 SHORT $LN6@GetRotatin
$LN4@GetRotatin:

; 370  : 
; 371  : 		else if((360.0f - fTarget) + fSource < 180.0f)

  00023	f3 0f 10 05 00
	00 00 00	 movss	 xmm0, DWORD PTR __real@43b40000
  0002b	f3 0f 5c 45 0c	 subss	 xmm0, DWORD PTR _fTarget$[ebp]
  00030	f3 0f 58 45 08	 addss	 xmm0, DWORD PTR _fSource$[ebp]
  00035	f3 0f 10 0d 00
	00 00 00	 movss	 xmm1, DWORD PTR __real@43340000
  0003d	0f 2f c8	 comiss	 xmm1, xmm0
  00040	76 05		 jbe	 SHORT $LN6@GetRotatin

; 372  : 			return DEGREE_DIRECTION_RIGHT;

  00042	33 c0		 xor	 eax, eax
  00044	40		 inc	 eax
  00045	eb 40		 jmp	 SHORT $LN3@GetRotatin
$LN6@GetRotatin:

; 373  : 
; 374  : 		return DEGREE_DIRECTION_LEFT;

  00047	6a 02		 push	 2
  00049	58		 pop	 eax
  0004a	eb 3b		 jmp	 SHORT $LN3@GetRotatin

; 375  : 	}

  0004c	eb 39		 jmp	 SHORT $LN3@GetRotatin
$LN2@GetRotatin:

; 376  : 	else
; 377  : 	{
; 378  : 		if (fTarget > fSource)

  0004e	f3 0f 10 45 0c	 movss	 xmm0, DWORD PTR _fTarget$[ebp]
  00053	0f 2f 45 08	 comiss	 xmm0, DWORD PTR _fSource$[ebp]
  00057	76 07		 jbe	 SHORT $LN7@GetRotatin

; 379  : 		{
; 380  : 			return DEGREE_DIRECTION_LEFT;

  00059	6a 02		 push	 2
  0005b	58		 pop	 eax
  0005c	eb 29		 jmp	 SHORT $LN3@GetRotatin

; 381  : 		}

  0005e	eb 24		 jmp	 SHORT $LN9@GetRotatin
$LN7@GetRotatin:

; 382  : 		else if ((360.0f - fSource) + fTarget < 180.0f)

  00060	f3 0f 10 05 00
	00 00 00	 movss	 xmm0, DWORD PTR __real@43b40000
  00068	f3 0f 5c 45 08	 subss	 xmm0, DWORD PTR _fSource$[ebp]
  0006d	f3 0f 58 45 0c	 addss	 xmm0, DWORD PTR _fTarget$[ebp]
  00072	f3 0f 10 0d 00
	00 00 00	 movss	 xmm1, DWORD PTR __real@43340000
  0007a	0f 2f c8	 comiss	 xmm1, xmm0
  0007d	76 05		 jbe	 SHORT $LN9@GetRotatin

; 383  : 		{
; 384  : 			return DEGREE_DIRECTION_LEFT;

  0007f	6a 02		 push	 2
  00081	58		 pop	 eax
  00082	eb 03		 jmp	 SHORT $LN3@GetRotatin
$LN9@GetRotatin:

; 385  : 		}
; 386  : 
; 387  : 		return DEGREE_DIRECTION_RIGHT;

  00084	33 c0		 xor	 eax, eax
  00086	40		 inc	 eax
$LN3@GetRotatin:

; 388  : 	}
; 389  : }

  00087	5d		 pop	 ebp
  00088	c3		 ret	 0
?GetRotatingDirection@@YAHMM@Z ENDP			; GetRotatingDirection
_TEXT	ENDS
; Function compile flags: /Odspy
; File D:\Metin2 Server Files\mainline\SRC_2014\Metin2Client\GameLib\GameUtil.cpp
;	COMDAT ?GetDegreeDifference@@YAMMM@Z
_TEXT	SEGMENT
tv147 = -24						; size = 4
tv143 = -20						; size = 4
tv137 = -16						; size = 4
tv132 = -12						; size = 4
tv128 = -8						; size = 4
tv90 = -4						; size = 4
_fSource$ = 8						; size = 4
_fTarget$ = 12						; size = 4
?GetDegreeDifference@@YAMMM@Z PROC			; GetDegreeDifference, COMDAT

; 340  : {

  00000	55		 push	 ebp
  00001	8b ec		 mov	 ebp, esp
  00003	83 ec 18	 sub	 esp, 24			; 00000018H

; 341  : 	if (fSource < 180.0f)

  00006	f3 0f 10 05 00
	00 00 00	 movss	 xmm0, DWORD PTR __real@43340000
  0000e	0f 2f 45 08	 comiss	 xmm0, DWORD PTR _fSource$[ebp]
  00012	76 6d		 jbe	 SHORT $LN2@GetDegreeD

; 342  : 	{
; 343  : 		if (fTarget < fSource)

  00014	f3 0f 10 45 08	 movss	 xmm0, DWORD PTR _fSource$[ebp]
  00019	0f 2f 45 0c	 comiss	 xmm0, DWORD PTR _fTarget$[ebp]
  0001d	76 19		 jbe	 SHORT $LN4@GetDegreeD

; 344  : 			return fSource - fTarget;

  0001f	f3 0f 10 45 08	 movss	 xmm0, DWORD PTR _fSource$[ebp]
  00024	f3 0f 5c 45 0c	 subss	 xmm0, DWORD PTR _fTarget$[ebp]
  00029	f3 0f 11 45 fc	 movss	 DWORD PTR tv90[ebp], xmm0
  0002e	d9 45 fc	 fld	 DWORD PTR tv90[ebp]
  00031	e9 b1 00 00 00	 jmp	 $LN3@GetDegreeD
  00036	eb 33		 jmp	 SHORT $LN6@GetDegreeD
$LN4@GetDegreeD:

; 345  : 
; 346  : 		else if(fTarget - fSource > 180.0f)

  00038	f3 0f 10 45 0c	 movss	 xmm0, DWORD PTR _fTarget$[ebp]
  0003d	f3 0f 5c 45 08	 subss	 xmm0, DWORD PTR _fSource$[ebp]
  00042	0f 2f 05 00 00
	00 00		 comiss	 xmm0, DWORD PTR __real@43340000
  00049	76 20		 jbe	 SHORT $LN6@GetDegreeD

; 347  : 			return (360.0f - (fTarget - fSource));

  0004b	f3 0f 10 45 0c	 movss	 xmm0, DWORD PTR _fTarget$[ebp]
  00050	f3 0f 5c 45 08	 subss	 xmm0, DWORD PTR _fSource$[ebp]
  00055	f3 0f 10 0d 00
	00 00 00	 movss	 xmm1, DWORD PTR __real@43b40000
  0005d	f3 0f 5c c8	 subss	 xmm1, xmm0
  00061	f3 0f 11 4d f8	 movss	 DWORD PTR tv128[ebp], xmm1
  00066	d9 45 f8	 fld	 DWORD PTR tv128[ebp]
  00069	eb 7c		 jmp	 SHORT $LN3@GetDegreeD
$LN6@GetDegreeD:

; 348  : 
; 349  : 		return fTarget - fSource;

  0006b	f3 0f 10 45 0c	 movss	 xmm0, DWORD PTR _fTarget$[ebp]
  00070	f3 0f 5c 45 08	 subss	 xmm0, DWORD PTR _fSource$[ebp]
  00075	f3 0f 11 45 f4	 movss	 DWORD PTR tv132[ebp], xmm0
  0007a	d9 45 f4	 fld	 DWORD PTR tv132[ebp]
  0007d	eb 68		 jmp	 SHORT $LN3@GetDegreeD

; 350  : 	}

  0007f	eb 66		 jmp	 SHORT $LN3@GetDegreeD
$LN2@GetDegreeD:

; 351  : 	else
; 352  : 	{
; 353  : 		if (fTarget > fSource)

  00081	f3 0f 10 45 0c	 movss	 xmm0, DWORD PTR _fTarget$[ebp]
  00086	0f 2f 45 08	 comiss	 xmm0, DWORD PTR _fSource$[ebp]
  0008a	76 16		 jbe	 SHORT $LN7@GetDegreeD

; 354  : 			return fTarget - fSource;

  0008c	f3 0f 10 45 0c	 movss	 xmm0, DWORD PTR _fTarget$[ebp]
  00091	f3 0f 5c 45 08	 subss	 xmm0, DWORD PTR _fSource$[ebp]
  00096	f3 0f 11 45 f0	 movss	 DWORD PTR tv137[ebp], xmm0
  0009b	d9 45 f0	 fld	 DWORD PTR tv137[ebp]
  0009e	eb 47		 jmp	 SHORT $LN3@GetDegreeD
  000a0	eb 33		 jmp	 SHORT $LN9@GetDegreeD
$LN7@GetDegreeD:

; 355  : 
; 356  : 		else if (fSource - fTarget > 180.0f)

  000a2	f3 0f 10 45 08	 movss	 xmm0, DWORD PTR _fSource$[ebp]
  000a7	f3 0f 5c 45 0c	 subss	 xmm0, DWORD PTR _fTarget$[ebp]
  000ac	0f 2f 05 00 00
	00 00		 comiss	 xmm0, DWORD PTR __real@43340000
  000b3	76 20		 jbe	 SHORT $LN9@GetDegreeD

; 357  : 		{
; 358  : 			return (360.0f - (fSource - fTarget));

  000b5	f3 0f 10 45 08	 movss	 xmm0, DWORD PTR _fSource$[ebp]
  000ba	f3 0f 5c 45 0c	 subss	 xmm0, DWORD PTR _fTarget$[ebp]
  000bf	f3 0f 10 0d 00
	00 00 00	 movss	 xmm1, DWORD PTR __real@43b40000
  000c7	f3 0f 5c c8	 subss	 xmm1, xmm0
  000cb	f3 0f 11 4d ec	 movss	 DWORD PTR tv143[ebp], xmm1
  000d0	d9 45 ec	 fld	 DWORD PTR tv143[ebp]
  000d3	eb 12		 jmp	 SHORT $LN3@GetDegreeD
$LN9@GetDegreeD:

; 359  : 		}
; 360  : 
; 361  : 		return fSource - fTarget;

  000d5	f3 0f 10 45 08	 movss	 xmm0, DWORD PTR _fSource$[ebp]
  000da	f3 0f 5c 45 0c	 subss	 xmm0, DWORD PTR _fTarget$[ebp]
  000df	f3 0f 11 45 e8	 movss	 DWORD PTR tv147[ebp], xmm0
  000e4	d9 45 e8	 fld	 DWORD PTR tv147[ebp]
$LN3@GetDegreeD:

; 362  : 	}
; 363  : }

  000e7	c9		 leave
  000e8	c3		 ret	 0
?GetDegreeDifference@@YAMMM@Z ENDP			; GetDegreeDifference
_TEXT	ENDS
; Function compile flags: /Odspy
; File D:\Metin2 Server Files\mainline\SRC_2014\Metin2Client\GameLib\GameUtil.cpp
;	COMDAT ?IsCCWAcuteAngle@@YA_NMM@Z
_TEXT	SEGMENT
_fValue$ = -8						; size = 4
tv73 = -1						; size = 1
_begin$ = 8						; size = 4
_end$ = 12						; size = 4
?IsCCWAcuteAngle@@YA_NMM@Z PROC				; IsCCWAcuteAngle, COMDAT

; 282  : {

  00000	55		 push	 ebp
  00001	8b ec		 mov	 ebp, esp
  00003	51		 push	 ecx
  00004	51		 push	 ecx

; 283  : 	// abs(360 - dest + src) 	// 시계 방향
; 284  : 	// dest - src				// 시계 반대 방향
; 285  : 	int fValue = abs((int) (360.0f - end + begin));

  00005	f3 0f 10 05 00
	00 00 00	 movss	 xmm0, DWORD PTR __real@43b40000
  0000d	f3 0f 5c 45 0c	 subss	 xmm0, DWORD PTR _end$[ebp]
  00012	f3 0f 58 45 08	 addss	 xmm0, DWORD PTR _begin$[ebp]
  00017	f3 0f 2c c0	 cvttss2si eax, xmm0
  0001b	50		 push	 eax
  0001c	e8 00 00 00 00	 call	 _abs
  00021	59		 pop	 ecx
  00022	89 45 f8	 mov	 DWORD PTR _fValue$[ebp], eax

; 286  : 	return fValue >= (end - begin) ? true : false;

  00025	f3 0f 2a 45 f8	 cvtsi2ss xmm0, DWORD PTR _fValue$[ebp]
  0002a	f3 0f 10 4d 0c	 movss	 xmm1, DWORD PTR _end$[ebp]
  0002f	f3 0f 5c 4d 08	 subss	 xmm1, DWORD PTR _begin$[ebp]
  00034	0f 2f c1	 comiss	 xmm0, xmm1
  00037	72 06		 jb	 SHORT $LN3@IsCCWAcute
  00039	c6 45 ff 01	 mov	 BYTE PTR tv73[ebp], 1
  0003d	eb 04		 jmp	 SHORT $LN4@IsCCWAcute
$LN3@IsCCWAcute:
  0003f	c6 45 ff 00	 mov	 BYTE PTR tv73[ebp], 0
$LN4@IsCCWAcute:
  00043	8a 45 ff	 mov	 al, BYTE PTR tv73[ebp]

; 287  : }

  00046	c9		 leave
  00047	c3		 ret	 0
?IsCCWAcuteAngle@@YA_NMM@Z ENDP				; IsCCWAcuteAngle
_TEXT	ENDS
; Function compile flags: /Odspy
; File D:\Metin2 Server Files\mainline\SRC_2014\Metin2Client\GameLib\GameUtil.cpp
;	COMDAT ?IsCWAcuteAngle@@YA_NMM@Z
_TEXT	SEGMENT
tv68 = -4						; size = 4
_begin$ = 8						; size = 4
_end$ = 12						; size = 4
?IsCWAcuteAngle@@YA_NMM@Z PROC				; IsCWAcuteAngle, COMDAT

; 275  : {

  00000	55		 push	 ebp
  00001	8b ec		 mov	 ebp, esp
  00003	51		 push	 ecx

; 276  : 	// 360 - src + dest		// 시계 반대 방향
; 277  : 	// src - dest			// 시계 방향
; 278  : 	return ((360.0f - begin + end) > (begin - end));

  00004	f3 0f 10 05 00
	00 00 00	 movss	 xmm0, DWORD PTR __real@43b40000
  0000c	f3 0f 5c 45 08	 subss	 xmm0, DWORD PTR _begin$[ebp]
  00011	f3 0f 58 45 0c	 addss	 xmm0, DWORD PTR _end$[ebp]
  00016	f3 0f 10 4d 08	 movss	 xmm1, DWORD PTR _begin$[ebp]
  0001b	f3 0f 5c 4d 0c	 subss	 xmm1, DWORD PTR _end$[ebp]
  00020	0f 2f c1	 comiss	 xmm0, xmm1
  00023	76 09		 jbe	 SHORT $LN3@IsCWAcuteA
  00025	c7 45 fc 01 00
	00 00		 mov	 DWORD PTR tv68[ebp], 1
  0002c	eb 04		 jmp	 SHORT $LN4@IsCWAcuteA
$LN3@IsCWAcuteA:
  0002e	83 65 fc 00	 and	 DWORD PTR tv68[ebp], 0
$LN4@IsCWAcuteA:
  00032	8a 45 fc	 mov	 al, BYTE PTR tv68[ebp]

; 279  : }

  00035	c9		 leave
  00036	c3		 ret	 0
?IsCWAcuteAngle@@YA_NMM@Z ENDP				; IsCWAcuteAngle
_TEXT	ENDS
; Function compile flags: /Odspy
; File D:\Metin2 Server Files\mainline\SRC_2014\Metin2Client\GameLib\GameUtil.cpp
;	COMDAT ?IsCCWRotation@@YA_NMM@Z
_TEXT	SEGMENT
tv66 = -4						; size = 4
_begin$ = 8						; size = 4
_end$ = 12						; size = 4
?IsCCWRotation@@YA_NMM@Z PROC				; IsCCWRotation, COMDAT

; 295  : {

  00000	55		 push	 ebp
  00001	8b ec		 mov	 ebp, esp
  00003	51		 push	 ecx

; 296  : 	//     180
; 297  : 	// 270      90
; 298  : 	//      0
; 299  : 	//
; 300  : 	// 시계 반대
; 301  : 	return (begin - end < 0);

  00004	f3 0f 10 45 08	 movss	 xmm0, DWORD PTR _begin$[ebp]
  00009	f3 0f 5c 45 0c	 subss	 xmm0, DWORD PTR _end$[ebp]
  0000e	0f 57 c9	 xorps	 xmm1, xmm1
  00011	0f 2f c8	 comiss	 xmm1, xmm0
  00014	76 09		 jbe	 SHORT $LN3@IsCCWRotat
  00016	c7 45 fc 01 00
	00 00		 mov	 DWORD PTR tv66[ebp], 1
  0001d	eb 04		 jmp	 SHORT $LN4@IsCCWRotat
$LN3@IsCCWRotat:
  0001f	83 65 fc 00	 and	 DWORD PTR tv66[ebp], 0
$LN4@IsCCWRotat:
  00023	8a 45 fc	 mov	 al, BYTE PTR tv66[ebp]

; 302  : }

  00026	c9		 leave
  00027	c3		 ret	 0
?IsCCWRotation@@YA_NMM@Z ENDP				; IsCCWRotation
_TEXT	ENDS
; Function compile flags: /Odspy
; File D:\Metin2 Server Files\mainline\SRC_2014\Metin2Client\GameLib\GameUtil.cpp
;	COMDAT ?IsCWRotation@@YA_NMM@Z
_TEXT	SEGMENT
tv69 = -4						; size = 4
_begin$ = 8						; size = 4
_end$ = 12						; size = 4
?IsCWRotation@@YA_NMM@Z PROC				; IsCWRotation, COMDAT

; 290  : {

  00000	55		 push	 ebp
  00001	8b ec		 mov	 ebp, esp
  00003	51		 push	 ecx

; 291  : 	return !IsCCWRotation(begin, end);

  00004	51		 push	 ecx
  00005	f3 0f 10 45 0c	 movss	 xmm0, DWORD PTR _end$[ebp]
  0000a	f3 0f 11 04 24	 movss	 DWORD PTR [esp], xmm0
  0000f	51		 push	 ecx
  00010	f3 0f 10 45 08	 movss	 xmm0, DWORD PTR _begin$[ebp]
  00015	f3 0f 11 04 24	 movss	 DWORD PTR [esp], xmm0
  0001a	e8 00 00 00 00	 call	 ?IsCCWRotation@@YA_NMM@Z ; IsCCWRotation
  0001f	59		 pop	 ecx
  00020	59		 pop	 ecx
  00021	0f b6 c0	 movzx	 eax, al
  00024	85 c0		 test	 eax, eax
  00026	75 09		 jne	 SHORT $LN3@IsCWRotati
  00028	c7 45 fc 01 00
	00 00		 mov	 DWORD PTR tv69[ebp], 1
  0002f	eb 04		 jmp	 SHORT $LN4@IsCWRotati
$LN3@IsCWRotati:
  00031	83 65 fc 00	 and	 DWORD PTR tv69[ebp], 0
$LN4@IsCWRotati:
  00035	8a 45 fc	 mov	 al, BYTE PTR tv69[ebp]

; 292  : }

  00038	c9		 leave
  00039	c3		 ret	 0
?IsCWRotation@@YA_NMM@Z ENDP				; IsCWRotation
_TEXT	ENDS
; Function compile flags: /Odspy
; File D:\Metin2 Server Files\mainline\SRC_2014\Metin2Client\GameLib\GameUtil.cpp
;	COMDAT ?GetInterpolatedRotation@@YAMMMM@Z
_TEXT	SEGMENT
tv163 = -8						; size = 4
tv160 = -4						; size = 4
_begin$ = 8						; size = 4
_end$ = 12						; size = 4
_curRate$ = 16						; size = 4
?GetInterpolatedRotation@@YAMMMM@Z PROC			; GetInterpolatedRotation, COMDAT

; 305  : {

  00000	55		 push	 ebp
  00001	8b ec		 mov	 ebp, esp
  00003	51		 push	 ecx
  00004	51		 push	 ecx

; 306  : 	if (IsCCWRotation(begin, end))

  00005	51		 push	 ecx
  00006	f3 0f 10 45 0c	 movss	 xmm0, DWORD PTR _end$[ebp]
  0000b	f3 0f 11 04 24	 movss	 DWORD PTR [esp], xmm0
  00010	51		 push	 ecx
  00011	f3 0f 10 45 08	 movss	 xmm0, DWORD PTR _begin$[ebp]
  00016	f3 0f 11 04 24	 movss	 DWORD PTR [esp], xmm0
  0001b	e8 00 00 00 00	 call	 ?IsCCWRotation@@YA_NMM@Z ; IsCCWRotation
  00020	59		 pop	 ecx
  00021	59		 pop	 ecx
  00022	0f b6 c0	 movzx	 eax, al
  00025	85 c0		 test	 eax, eax
  00027	0f 84 a0 00 00
	00		 je	 $LN2@GetInterpo

; 307  : 	{
; 308  : 		if (IsCCWAcuteAngle(begin, end))

  0002d	51		 push	 ecx
  0002e	f3 0f 10 45 0c	 movss	 xmm0, DWORD PTR _end$[ebp]
  00033	f3 0f 11 04 24	 movss	 DWORD PTR [esp], xmm0
  00038	51		 push	 ecx
  00039	f3 0f 10 45 08	 movss	 xmm0, DWORD PTR _begin$[ebp]
  0003e	f3 0f 11 04 24	 movss	 DWORD PTR [esp], xmm0
  00043	e8 00 00 00 00	 call	 ?IsCCWAcuteAngle@@YA_NMM@Z ; IsCCWAcuteAngle
  00048	59		 pop	 ecx
  00049	59		 pop	 ecx
  0004a	0f b6 c0	 movzx	 eax, al
  0004d	85 c0		 test	 eax, eax
  0004f	74 2e		 je	 SHORT $LN3@GetInterpo

; 309  : 			return GetLinearInterpolation(begin, end, curRate);

  00051	51		 push	 ecx
  00052	f3 0f 10 45 10	 movss	 xmm0, DWORD PTR _curRate$[ebp]
  00057	f3 0f 11 04 24	 movss	 DWORD PTR [esp], xmm0
  0005c	51		 push	 ecx
  0005d	f3 0f 10 45 0c	 movss	 xmm0, DWORD PTR _end$[ebp]
  00062	f3 0f 11 04 24	 movss	 DWORD PTR [esp], xmm0
  00067	51		 push	 ecx
  00068	f3 0f 10 45 08	 movss	 xmm0, DWORD PTR _begin$[ebp]
  0006d	f3 0f 11 04 24	 movss	 DWORD PTR [esp], xmm0
  00072	e8 00 00 00 00	 call	 ?GetLinearInterpolation@@YAMMMM@Z ; GetLinearInterpolation
  00077	83 c4 0c	 add	 esp, 12			; 0000000cH
  0007a	e9 ce 00 00 00	 jmp	 $LN1@GetInterpo
$LN3@GetInterpo:

; 310  : 
; 311  : 		return (360.0f + GetLinearInterpolation(begin, end - 360.0f, curRate));

  0007f	51		 push	 ecx
  00080	f3 0f 10 45 10	 movss	 xmm0, DWORD PTR _curRate$[ebp]
  00085	f3 0f 11 04 24	 movss	 DWORD PTR [esp], xmm0
  0008a	f3 0f 10 45 0c	 movss	 xmm0, DWORD PTR _end$[ebp]
  0008f	f3 0f 5c 05 00
	00 00 00	 subss	 xmm0, DWORD PTR __real@43b40000
  00097	51		 push	 ecx
  00098	f3 0f 11 04 24	 movss	 DWORD PTR [esp], xmm0
  0009d	51		 push	 ecx
  0009e	f3 0f 10 45 08	 movss	 xmm0, DWORD PTR _begin$[ebp]
  000a3	f3 0f 11 04 24	 movss	 DWORD PTR [esp], xmm0
  000a8	e8 00 00 00 00	 call	 ?GetLinearInterpolation@@YAMMMM@Z ; GetLinearInterpolation
  000ad	83 c4 0c	 add	 esp, 12			; 0000000cH
  000b0	d9 5d fc	 fstp	 DWORD PTR tv160[ebp]
  000b3	f3 0f 10 45 fc	 movss	 xmm0, DWORD PTR tv160[ebp]
  000b8	f3 0f 58 05 00
	00 00 00	 addss	 xmm0, DWORD PTR __real@43b40000
  000c0	f3 0f 11 45 f8	 movss	 DWORD PTR tv163[ebp], xmm0
  000c5	d9 45 f8	 fld	 DWORD PTR tv163[ebp]
  000c8	e9 80 00 00 00	 jmp	 $LN1@GetInterpo
$LN2@GetInterpo:

; 312  : 	}
; 313  : 
; 314  : 	if (IsCWAcuteAngle(begin, end))

  000cd	51		 push	 ecx
  000ce	f3 0f 10 45 0c	 movss	 xmm0, DWORD PTR _end$[ebp]
  000d3	f3 0f 11 04 24	 movss	 DWORD PTR [esp], xmm0
  000d8	51		 push	 ecx
  000d9	f3 0f 10 45 08	 movss	 xmm0, DWORD PTR _begin$[ebp]
  000de	f3 0f 11 04 24	 movss	 DWORD PTR [esp], xmm0
  000e3	e8 00 00 00 00	 call	 ?IsCWAcuteAngle@@YA_NMM@Z ; IsCWAcuteAngle
  000e8	59		 pop	 ecx
  000e9	59		 pop	 ecx
  000ea	0f b6 c0	 movzx	 eax, al
  000ed	85 c0		 test	 eax, eax
  000ef	74 2b		 je	 SHORT $LN4@GetInterpo

; 315  : 		return GetLinearInterpolation(begin, end, curRate);

  000f1	51		 push	 ecx
  000f2	f3 0f 10 45 10	 movss	 xmm0, DWORD PTR _curRate$[ebp]
  000f7	f3 0f 11 04 24	 movss	 DWORD PTR [esp], xmm0
  000fc	51		 push	 ecx
  000fd	f3 0f 10 45 0c	 movss	 xmm0, DWORD PTR _end$[ebp]
  00102	f3 0f 11 04 24	 movss	 DWORD PTR [esp], xmm0
  00107	51		 push	 ecx
  00108	f3 0f 10 45 08	 movss	 xmm0, DWORD PTR _begin$[ebp]
  0010d	f3 0f 11 04 24	 movss	 DWORD PTR [esp], xmm0
  00112	e8 00 00 00 00	 call	 ?GetLinearInterpolation@@YAMMMM@Z ; GetLinearInterpolation
  00117	83 c4 0c	 add	 esp, 12			; 0000000cH
  0011a	eb 31		 jmp	 SHORT $LN1@GetInterpo
$LN4@GetInterpo:

; 316  : 
; 317  : 	return GetLinearInterpolation(begin, end + 360.0f, curRate);								

  0011c	51		 push	 ecx
  0011d	f3 0f 10 45 10	 movss	 xmm0, DWORD PTR _curRate$[ebp]
  00122	f3 0f 11 04 24	 movss	 DWORD PTR [esp], xmm0
  00127	f3 0f 10 45 0c	 movss	 xmm0, DWORD PTR _end$[ebp]
  0012c	f3 0f 58 05 00
	00 00 00	 addss	 xmm0, DWORD PTR __real@43b40000
  00134	51		 push	 ecx
  00135	f3 0f 11 04 24	 movss	 DWORD PTR [esp], xmm0
  0013a	51		 push	 ecx
  0013b	f3 0f 10 45 08	 movss	 xmm0, DWORD PTR _begin$[ebp]
  00140	f3 0f 11 04 24	 movss	 DWORD PTR [esp], xmm0
  00145	e8 00 00 00 00	 call	 ?GetLinearInterpolation@@YAMMMM@Z ; GetLinearInterpolation
  0014a	83 c4 0c	 add	 esp, 12			; 0000000cH
$LN1@GetInterpo:

; 318  : }

  0014d	c9		 leave
  0014e	c3		 ret	 0
?GetInterpolatedRotation@@YAMMMM@Z ENDP			; GetInterpolatedRotation
_TEXT	ENDS
; Function compile flags: /Odspy
; File D:\Metin2 Server Files\mainline\SRC_2014\Metin2Client\GameLib\GameUtil.cpp
;	COMDAT ?GetDegreeFromPosition2@@YAMMMMM@Z
_TEXT	SEGMENT
_sx$ = 8						; size = 4
_sy$ = 12						; size = 4
_ex$ = 16						; size = 4
_ey$ = 20						; size = 4
?GetDegreeFromPosition2@@YAMMMMM@Z PROC			; GetDegreeFromPosition2, COMDAT

; 335  : {

  00000	55		 push	 ebp
  00001	8b ec		 mov	 ebp, esp

; 336  : 	return GetDegreeFromPosition(ex - sx, ey - sy);

  00003	f3 0f 10 45 14	 movss	 xmm0, DWORD PTR _ey$[ebp]
  00008	f3 0f 5c 45 0c	 subss	 xmm0, DWORD PTR _sy$[ebp]
  0000d	51		 push	 ecx
  0000e	f3 0f 11 04 24	 movss	 DWORD PTR [esp], xmm0
  00013	f3 0f 10 45 10	 movss	 xmm0, DWORD PTR _ex$[ebp]
  00018	f3 0f 5c 45 08	 subss	 xmm0, DWORD PTR _sx$[ebp]
  0001d	51		 push	 ecx
  0001e	f3 0f 11 04 24	 movss	 DWORD PTR [esp], xmm0
  00023	e8 00 00 00 00	 call	 ?GetDegreeFromPosition@@YAMMM@Z ; GetDegreeFromPosition
  00028	59		 pop	 ecx
  00029	59		 pop	 ecx

; 337  : }

  0002a	5d		 pop	 ebp
  0002b	c3		 ret	 0
?GetDegreeFromPosition2@@YAMMMMM@Z ENDP			; GetDegreeFromPosition2
_TEXT	ENDS
; Function compile flags: /Odspy
; File D:\Metin2 Server Files\mainline\SRC_2014\Metin2Client\GameLib\GameUtil.cpp
; File C:\Program Files (x86)\Windows Kits\10\Include\10.0.18362.0\ucrt\corecrt_math.h
; File C:\Program Files (x86)\Microsoft Visual Studio\2019\Community\VC\Tools\MSVC\14.28.29333\include\cmath
; File C:\Program Files (x86)\Windows Kits\10\Include\10.0.18362.0\ucrt\corecrt_math.h
; File C:\Program Files (x86)\Microsoft Visual Studio\2019\Community\VC\Tools\MSVC\14.28.29333\include\cmath
; File D:\Metin2 Server Files\mainline\SRC_2014\M2Data\include\d3dx8math.inl
; File D:\Metin2 Server Files\mainline\SRC_2014\Metin2Client\GameLib\GameUtil.cpp
; File D:\Metin2 Server Files\mainline\SRC_2014\M2Data\include\d3dx8math.inl
; File C:\Program Files (x86)\Windows Kits\10\Include\10.0.18362.0\ucrt\corecrt_math.h
; File D:\Metin2 Server Files\mainline\SRC_2014\Metin2Client\GameLib\GameUtil.cpp
;	COMDAT ?GetDegreeFromPosition@@YAMMM@Z
_TEXT	SEGMENT
tv221 = -52						; size = 4
tv220 = -48						; size = 4
$T1 = -44						; size = 4
$T2 = -40						; size = 4
$T3 = -36						; size = 4
_ret$ = -32						; size = 4
_vtStan$ = -28						; size = 12
_vtDir$ = -16						; size = 12
__$ArrayPad$ = -4					; size = 4
_x$ = 8							; size = 4
_y$ = 12						; size = 4
?GetDegreeFromPosition@@YAMMM@Z PROC			; GetDegreeFromPosition, COMDAT

; 321  : {

  00000	55		 push	 ebp
  00001	8b ec		 mov	 ebp, esp
  00003	83 ec 34	 sub	 esp, 52			; 00000034H
  00006	a1 00 00 00 00	 mov	 eax, DWORD PTR ___security_cookie
  0000b	33 c5		 xor	 eax, ebp
  0000d	89 45 fc	 mov	 DWORD PTR __$ArrayPad$[ebp], eax
; File C:\Program Files (x86)\Windows Kits\10\Include\10.0.18362.0\ucrt\corecrt_math.h

; 686  :             return (float)floor(_X);

  00010	f3 0f 5a 45 0c	 cvtss2sd xmm0, DWORD PTR _y$[ebp]
  00015	51		 push	 ecx
  00016	51		 push	 ecx
  00017	f2 0f 11 04 24	 movsd	 QWORD PTR [esp], xmm0
  0001c	e8 00 00 00 00	 call	 _floor
  00021	59		 pop	 ecx
  00022	59		 pop	 ecx
; File C:\Program Files (x86)\Microsoft Visual Studio\2019\Community\VC\Tools\MSVC\14.28.29333\include\cmath

; 103  :     return _CSTD floorf(_Xx);

  00023	d9 5d d8	 fstp	 DWORD PTR $T2[ebp]
; File C:\Program Files (x86)\Windows Kits\10\Include\10.0.18362.0\ucrt\corecrt_math.h

; 686  :             return (float)floor(_X);

  00026	f3 0f 5a 45 08	 cvtss2sd xmm0, DWORD PTR _x$[ebp]
  0002b	51		 push	 ecx
  0002c	51		 push	 ecx
  0002d	f2 0f 11 04 24	 movsd	 QWORD PTR [esp], xmm0
  00032	e8 00 00 00 00	 call	 _floor
  00037	59		 pop	 ecx
  00038	59		 pop	 ecx
; File C:\Program Files (x86)\Microsoft Visual Studio\2019\Community\VC\Tools\MSVC\14.28.29333\include\cmath

; 103  :     return _CSTD floorf(_Xx);

  00039	d9 5d dc	 fstp	 DWORD PTR $T3[ebp]
; File D:\Metin2 Server Files\mainline\SRC_2014\M2Data\include\d3dx8math.inl

; 180  :     x = fx;

  0003c	f3 0f 10 45 dc	 movss	 xmm0, DWORD PTR $T3[ebp]
  00041	f3 0f 11 45 f0	 movss	 DWORD PTR _vtDir$[ebp], xmm0

; 181  :     y = fy;

  00046	f3 0f 10 45 d8	 movss	 xmm0, DWORD PTR $T2[ebp]
  0004b	f3 0f 11 45 f4	 movss	 DWORD PTR _vtDir$[ebp+4], xmm0

; 182  :     z = fz;

  00050	0f 57 c0	 xorps	 xmm0, xmm0
  00053	f3 0f 11 45 f8	 movss	 DWORD PTR _vtDir$[ebp+8], xmm0
; File D:\Metin2 Server Files\mainline\SRC_2014\Metin2Client\GameLib\GameUtil.cpp

; 323  : 	D3DXVec3Normalize(&vtDir, &vtDir);

  00058	8d 45 f0	 lea	 eax, DWORD PTR _vtDir$[ebp]
  0005b	50		 push	 eax
  0005c	8d 45 f0	 lea	 eax, DWORD PTR _vtDir$[ebp]
  0005f	50		 push	 eax
  00060	e8 00 00 00 00	 call	 _D3DXVec3Normalize@8
; File D:\Metin2 Server Files\mainline\SRC_2014\M2Data\include\d3dx8math.inl

; 180  :     x = fx;

  00065	0f 57 c0	 xorps	 xmm0, xmm0
  00068	f3 0f 11 45 e4	 movss	 DWORD PTR _vtStan$[ebp], xmm0

; 181  :     y = fy;

  0006d	f3 0f 10 05 00
	00 00 00	 movss	 xmm0, DWORD PTR __real@bf800000
  00075	f3 0f 11 45 e8	 movss	 DWORD PTR _vtStan$[ebp+4], xmm0

; 182  :     z = fz;

  0007a	0f 57 c0	 xorps	 xmm0, xmm0
  0007d	f3 0f 11 45 ec	 movss	 DWORD PTR _vtStan$[ebp+8], xmm0

; 1264 :     return pV1->x * pV2->x + pV1->y * pV2->y + pV1->z * pV2->z;

  00082	f3 0f 10 45 f0	 movss	 xmm0, DWORD PTR _vtDir$[ebp]
  00087	f3 0f 59 45 e4	 mulss	 xmm0, DWORD PTR _vtStan$[ebp]
  0008c	f3 0f 10 4d f4	 movss	 xmm1, DWORD PTR _vtDir$[ebp+4]
  00091	f3 0f 59 4d e8	 mulss	 xmm1, DWORD PTR _vtStan$[ebp+4]
  00096	f3 0f 58 c1	 addss	 xmm0, xmm1
  0009a	f3 0f 10 4d f8	 movss	 xmm1, DWORD PTR _vtDir$[ebp+8]
  0009f	f3 0f 59 4d ec	 mulss	 xmm1, DWORD PTR _vtStan$[ebp+8]
  000a4	f3 0f 58 c1	 addss	 xmm0, xmm1
  000a8	f3 0f 11 45 d4	 movss	 DWORD PTR $T1[ebp], xmm0
; File C:\Program Files (x86)\Windows Kits\10\Include\10.0.18362.0\ucrt\corecrt_math.h

; 624  :             return (float)acos(_X);

  000ad	f3 0f 5a 45 d4	 cvtss2sd xmm0, DWORD PTR $T1[ebp]
  000b2	51		 push	 ecx
  000b3	51		 push	 ecx
  000b4	f2 0f 11 04 24	 movsd	 QWORD PTR [esp], xmm0
  000b9	e8 00 00 00 00	 call	 _acos
  000be	59		 pop	 ecx
  000bf	59		 pop	 ecx
  000c0	d9 5d d0	 fstp	 DWORD PTR tv220[ebp]
  000c3	d9 45 d0	 fld	 DWORD PTR tv220[ebp]
  000c6	d9 5d cc	 fstp	 DWORD PTR tv221[ebp]
  000c9	f3 0f 10 45 cc	 movss	 xmm0, DWORD PTR tv221[ebp]
; File D:\Metin2 Server Files\mainline\SRC_2014\Metin2Client\GameLib\GameUtil.cpp

; 326  : 	float ret = D3DXToDegree(acosf(D3DXVec3Dot(&vtDir, &vtStan)));

  000ce	f3 0f 59 05 00
	00 00 00	 mulss	 xmm0, DWORD PTR __real@42652ee0
  000d6	f3 0f 11 45 e0	 movss	 DWORD PTR _ret$[ebp], xmm0

; 327  : 
; 328  : 	if (vtDir.x < 0.0f)

  000db	0f 57 c0	 xorps	 xmm0, xmm0
  000de	0f 2f 45 f0	 comiss	 xmm0, DWORD PTR _vtDir$[ebp]
  000e2	76 12		 jbe	 SHORT $LN2@GetDegreeF

; 329  : 		ret = 360.0f - ret;

  000e4	f3 0f 10 05 00
	00 00 00	 movss	 xmm0, DWORD PTR __real@43b40000
  000ec	f3 0f 5c 45 e0	 subss	 xmm0, DWORD PTR _ret$[ebp]
  000f1	f3 0f 11 45 e0	 movss	 DWORD PTR _ret$[ebp], xmm0
$LN2@GetDegreeF:

; 330  : 
; 331  : 	return ret;

  000f6	d9 45 e0	 fld	 DWORD PTR _ret$[ebp]

; 332  : }

  000f9	8b 4d fc	 mov	 ecx, DWORD PTR __$ArrayPad$[ebp]
  000fc	33 cd		 xor	 ecx, ebp
  000fe	e8 00 00 00 00	 call	 @__security_check_cookie@4
  00103	c9		 leave
  00104	c3		 ret	 0
?GetDegreeFromPosition@@YAMMM@Z ENDP			; GetDegreeFromPosition
_TEXT	ENDS
; Function compile flags: /Odspy
; File D:\Metin2 Server Files\mainline\SRC_2014\Metin2Client\GameLib\GameUtil.cpp
; File C:\Program Files (x86)\Microsoft Visual Studio\2019\Community\VC\Tools\MSVC\14.28.29333\include\type_traits
; File C:\Program Files (x86)\Microsoft Visual Studio\2019\Community\VC\Tools\MSVC\14.28.29333\include\utility
; File C:\Program Files (x86)\Microsoft Visual Studio\2019\Community\VC\Tools\MSVC\14.28.29333\include\type_traits
; File C:\Program Files (x86)\Microsoft Visual Studio\2019\Community\VC\Tools\MSVC\14.28.29333\include\utility
; File C:\Program Files (x86)\Microsoft Visual Studio\2019\Community\VC\Tools\MSVC\14.28.29333\include\type_traits
; File C:\Program Files (x86)\Microsoft Visual Studio\2019\Community\VC\Tools\MSVC\14.28.29333\include\utility
; File D:\Metin2 Server Files\mainline\SRC_2014\Metin2Client\GameLib\GameUtil.cpp
; File C:\Program Files (x86)\Microsoft Visual Studio\2019\Community\VC\Tools\MSVC\14.28.29333\include\type_traits
; File C:\Program Files (x86)\Microsoft Visual Studio\2019\Community\VC\Tools\MSVC\14.28.29333\include\utility
; File C:\Program Files (x86)\Microsoft Visual Studio\2019\Community\VC\Tools\MSVC\14.28.29333\include\type_traits
; File C:\Program Files (x86)\Microsoft Visual Studio\2019\Community\VC\Tools\MSVC\14.28.29333\include\utility
; File C:\Program Files (x86)\Microsoft Visual Studio\2019\Community\VC\Tools\MSVC\14.28.29333\include\type_traits
; File C:\Program Files (x86)\Microsoft Visual Studio\2019\Community\VC\Tools\MSVC\14.28.29333\include\utility
; File D:\Metin2 Server Files\mainline\SRC_2014\Metin2Client\GameLib\GameUtil.cpp
; File C:\Program Files (x86)\Microsoft Visual Studio\2019\Community\VC\Tools\MSVC\14.28.29333\include\type_traits
; File C:\Program Files (x86)\Microsoft Visual Studio\2019\Community\VC\Tools\MSVC\14.28.29333\include\utility
; File C:\Program Files (x86)\Microsoft Visual Studio\2019\Community\VC\Tools\MSVC\14.28.29333\include\type_traits
; File C:\Program Files (x86)\Microsoft Visual Studio\2019\Community\VC\Tools\MSVC\14.28.29333\include\utility
; File C:\Program Files (x86)\Microsoft Visual Studio\2019\Community\VC\Tools\MSVC\14.28.29333\include\type_traits
; File C:\Program Files (x86)\Microsoft Visual Studio\2019\Community\VC\Tools\MSVC\14.28.29333\include\utility
; File D:\Metin2 Server Files\mainline\SRC_2014\Metin2Client\GameLib\GameUtil.cpp
; File C:\Program Files (x86)\Microsoft Visual Studio\2019\Community\VC\Tools\MSVC\14.28.29333\include\type_traits
; File C:\Program Files (x86)\Microsoft Visual Studio\2019\Community\VC\Tools\MSVC\14.28.29333\include\utility
; File C:\Program Files (x86)\Microsoft Visual Studio\2019\Community\VC\Tools\MSVC\14.28.29333\include\type_traits
; File C:\Program Files (x86)\Microsoft Visual Studio\2019\Community\VC\Tools\MSVC\14.28.29333\include\utility
; File C:\Program Files (x86)\Microsoft Visual Studio\2019\Community\VC\Tools\MSVC\14.28.29333\include\type_traits
; File C:\Program Files (x86)\Microsoft Visual Studio\2019\Community\VC\Tools\MSVC\14.28.29333\include\utility
; File D:\Metin2 Server Files\mainline\SRC_2014\Metin2Client\GameLib\GameUtil.cpp
; File C:\Program Files (x86)\Microsoft Visual Studio\2019\Community\VC\Tools\MSVC\14.28.29333\include\type_traits
; File C:\Program Files (x86)\Microsoft Visual Studio\2019\Community\VC\Tools\MSVC\14.28.29333\include\utility
; File C:\Program Files (x86)\Microsoft Visual Studio\2019\Community\VC\Tools\MSVC\14.28.29333\include\type_traits
; File C:\Program Files (x86)\Microsoft Visual Studio\2019\Community\VC\Tools\MSVC\14.28.29333\include\utility
; File C:\Program Files (x86)\Microsoft Visual Studio\2019\Community\VC\Tools\MSVC\14.28.29333\include\type_traits
; File C:\Program Files (x86)\Microsoft Visual Studio\2019\Community\VC\Tools\MSVC\14.28.29333\include\utility
; File D:\Metin2 Server Files\mainline\SRC_2014\Metin2Client\GameLib\GameUtil.cpp
; File C:\Program Files (x86)\Microsoft Visual Studio\2019\Community\VC\Tools\MSVC\14.28.29333\include\type_traits
; File C:\Program Files (x86)\Microsoft Visual Studio\2019\Community\VC\Tools\MSVC\14.28.29333\include\utility
; File C:\Program Files (x86)\Microsoft Visual Studio\2019\Community\VC\Tools\MSVC\14.28.29333\include\type_traits
; File C:\Program Files (x86)\Microsoft Visual Studio\2019\Community\VC\Tools\MSVC\14.28.29333\include\utility
; File C:\Program Files (x86)\Microsoft Visual Studio\2019\Community\VC\Tools\MSVC\14.28.29333\include\type_traits
; File C:\Program Files (x86)\Microsoft Visual Studio\2019\Community\VC\Tools\MSVC\14.28.29333\include\utility
; File D:\Metin2 Server Files\mainline\SRC_2014\Metin2Client\GameLib\GameUtil.cpp
; File D:\Metin2 Server Files\mainline\SRC_2014\M2Data\include\d3dx8math.inl
; File D:\Metin2 Server Files\mainline\SRC_2014\Metin2Client\GameLib\GameUtil.cpp
;	COMDAT ?DetectCollisionDynamicZCylinderVSDynamicZCylinder@@YA_NABUCDynamicSphereInstance@@0@Z
_TEXT	SEGMENT
_fz$ = -184						; size = 4
$T1 = -180						; size = 4
__Tmp$2 = -176						; size = 4
$T3 = -172						; size = 4
$T4 = -168						; size = 4
$T5 = -164						; size = 4
$T6 = -160						; size = 4
__Tmp$7 = -156						; size = 4
$T8 = -152						; size = 4
_rsq$ = -148						; size = 4
$T9 = -144						; size = 4
_fy$ = -140						; size = 4
_fx$ = -136						; size = 4
$T10 = -132						; size = 4
__Tmp$11 = -128						; size = 4
$T12 = -124						; size = 4
$T13 = -120						; size = 4
$T14 = -116						; size = 4
__Tmp$15 = -112						; size = 4
$T16 = -108						; size = 4
$T17 = -104						; size = 4
$T18 = -100						; size = 4
__Tmp$19 = -96						; size = 4
$T20 = -92						; size = 4
$T21 = -88						; size = 4
__Tmp$22 = -84						; size = 4
$T23 = -80						; size = 4
$T24 = -76						; size = 4
__Left$ = -72						; size = 4
tv451 = -68						; size = 4
__Right$ = -64						; size = 4
__Left$ = -60						; size = 4
__Right$ = -56						; size = 4
__Right$ = -52						; size = 4
__Left$ = -48						; size = 4
__Right$ = -44						; size = 4
__Left$ = -40						; size = 4
_r$ = -36						; size = 4
_vB$ = -32						; size = 12
_vA$ = -20						; size = 12
_c_rCylinder2$ = -8					; size = 28
_c_rCylinder1$ = 20					; size = 28
$T25 = 48						; size = 12
_mi2$ = 60						; size = 12
_mi1$ = 72						; size = 12
_mi4$ = 84						; size = 12
_mi3$ = 96						; size = 12
__$ArrayPad$ = 108					; size = 4
_c_rSphere1$ = 120					; size = 4
_c_rSphere2$ = 124					; size = 4
?DetectCollisionDynamicZCylinderVSDynamicZCylinder@@YA_NABUCDynamicSphereInstance@@0@Z PROC ; DetectCollisionDynamicZCylinderVSDynamicZCylinder, COMDAT

; 7    : {

  00000	55		 push	 ebp
  00001	8d 6c 24 90	 lea	 ebp, DWORD PTR [esp-112]
  00005	81 ec 28 01 00
	00		 sub	 esp, 296		; 00000128H
  0000b	a1 00 00 00 00	 mov	 eax, DWORD PTR ___security_cookie
  00010	33 c5		 xor	 eax, ebp
  00012	89 45 6c	 mov	 DWORD PTR __$ArrayPad$[ebp], eax
  00015	56		 push	 esi
  00016	57		 push	 edi

; 8    : 	CDynamicSphereInstance c_rCylinder1=c_rSphere1;

  00017	6a 07		 push	 7
  00019	59		 pop	 ecx
  0001a	8b 75 78	 mov	 esi, DWORD PTR _c_rSphere1$[ebp]
  0001d	8d 7d 14	 lea	 edi, DWORD PTR _c_rCylinder1$[ebp]
  00020	f3 a5		 rep movsd

; 9    : 	CDynamicSphereInstance c_rCylinder2=c_rSphere2;

  00022	6a 07		 push	 7
  00024	59		 pop	 ecx
  00025	8b 75 7c	 mov	 esi, DWORD PTR _c_rSphere2$[ebp]
  00028	8d 7d f8	 lea	 edi, DWORD PTR _c_rCylinder2$[ebp]
  0002b	f3 a5		 rep movsd

; 10   : 
; 11   : 	c_rCylinder1.v3Position.z=0;

  0002d	0f 57 c0	 xorps	 xmm0, xmm0
  00030	f3 0f 11 45 1c	 movss	 DWORD PTR _c_rCylinder1$[ebp+8], xmm0

; 12   : 	c_rCylinder1.v3LastPosition.z=0;

  00035	0f 57 c0	 xorps	 xmm0, xmm0
  00038	f3 0f 11 45 28	 movss	 DWORD PTR _c_rCylinder1$[ebp+20], xmm0

; 13   : 
; 14   : 	c_rCylinder2.v3Position.z=0;

  0003d	0f 57 c0	 xorps	 xmm0, xmm0
  00040	f3 0f 11 45 00	 movss	 DWORD PTR _c_rCylinder2$[ebp+8], xmm0

; 15   : 	c_rCylinder2.v3LastPosition.z=0;

  00045	0f 57 c0	 xorps	 xmm0, xmm0
  00048	f3 0f 11 45 0c	 movss	 DWORD PTR _c_rCylinder2$[ebp+20], xmm0

; 16   : 
; 17   : 	float r = c_rCylinder1.fRadius+c_rCylinder2.fRadius;

  0004d	f3 0f 10 45 2c	 movss	 xmm0, DWORD PTR _c_rCylinder1$[ebp+24]
  00052	f3 0f 58 45 10	 addss	 xmm0, DWORD PTR _c_rCylinder2$[ebp+24]
  00057	f3 0f 11 45 dc	 movss	 DWORD PTR _r$[ebp], xmm0

; 18   : 	float rsq = r*r;

  0005c	f3 0f 10 45 dc	 movss	 xmm0, DWORD PTR _r$[ebp]
  00061	f3 0f 59 45 dc	 mulss	 xmm0, DWORD PTR _r$[ebp]
  00066	f3 0f 11 85 6c
	ff ff ff	 movss	 DWORD PTR _rsq$[ebp], xmm0

; 19   : 
; 20   : 	// AABB check
; 21   : 	D3DXVECTOR3 mi1=c_rCylinder1.v3LastPosition, mi2 = c_rCylinder1.v3Position;

  0006e	8d 75 20	 lea	 esi, DWORD PTR _c_rCylinder1$[ebp+12]
  00071	8d 7d 48	 lea	 edi, DWORD PTR _mi1$[ebp]
  00074	a5		 movsd
  00075	a5		 movsd
  00076	a5		 movsd
  00077	8d 75 14	 lea	 esi, DWORD PTR _c_rCylinder1$[ebp]
  0007a	8d 7d 3c	 lea	 edi, DWORD PTR _mi2$[ebp]
  0007d	a5		 movsd
  0007e	a5		 movsd
  0007f	a5		 movsd

; 22   : 	D3DXVECTOR3 mi3=c_rCylinder2.v3LastPosition, mi4 = c_rCylinder2.v3Position;

  00080	8d 75 04	 lea	 esi, DWORD PTR _c_rCylinder2$[ebp+12]
  00083	8d 7d 60	 lea	 edi, DWORD PTR _mi3$[ebp]
  00086	a5		 movsd
  00087	a5		 movsd
  00088	a5		 movsd
  00089	8d 75 f8	 lea	 esi, DWORD PTR _c_rCylinder2$[ebp]
  0008c	8d 7d 54	 lea	 edi, DWORD PTR _mi4$[ebp]
  0008f	a5		 movsd
  00090	a5		 movsd
  00091	a5		 movsd

; 23   : 	if (mi1.x>mi2.x) std::swap(mi1.x,mi2.x);

  00092	f3 0f 10 45 48	 movss	 xmm0, DWORD PTR _mi1$[ebp]
  00097	0f 2f 45 3c	 comiss	 xmm0, DWORD PTR _mi2$[ebp]
  0009b	76 36		 jbe	 SHORT $LN17@DetectColl
; File C:\Program Files (x86)\Microsoft Visual Studio\2019\Community\VC\Tools\MSVC\14.28.29333\include\type_traits

; 1455 :     return static_cast<remove_reference_t<_Ty>&&>(_Arg);

  0009d	8d 45 48	 lea	 eax, DWORD PTR _mi1$[ebp]
  000a0	89 45 b4	 mov	 DWORD PTR $T24[ebp], eax
; File C:\Program Files (x86)\Microsoft Visual Studio\2019\Community\VC\Tools\MSVC\14.28.29333\include\utility

; 104  :     _Ty _Tmp = _STD move(_Left);

  000a3	8b 45 b4	 mov	 eax, DWORD PTR $T24[ebp]
  000a6	f3 0f 10 00	 movss	 xmm0, DWORD PTR [eax]
  000aa	f3 0f 11 45 ac	 movss	 DWORD PTR __Tmp$22[ebp], xmm0
; File C:\Program Files (x86)\Microsoft Visual Studio\2019\Community\VC\Tools\MSVC\14.28.29333\include\type_traits

; 1455 :     return static_cast<remove_reference_t<_Ty>&&>(_Arg);

  000af	8d 45 3c	 lea	 eax, DWORD PTR _mi2$[ebp]
  000b2	89 45 b0	 mov	 DWORD PTR $T23[ebp], eax
; File C:\Program Files (x86)\Microsoft Visual Studio\2019\Community\VC\Tools\MSVC\14.28.29333\include\utility

; 105  :     _Left    = _STD move(_Right);

  000b5	8b 45 b0	 mov	 eax, DWORD PTR $T23[ebp]
  000b8	f3 0f 10 00	 movss	 xmm0, DWORD PTR [eax]
  000bc	f3 0f 11 45 48	 movss	 DWORD PTR _mi1$[ebp], xmm0
; File C:\Program Files (x86)\Microsoft Visual Studio\2019\Community\VC\Tools\MSVC\14.28.29333\include\type_traits

; 1455 :     return static_cast<remove_reference_t<_Ty>&&>(_Arg);

  000c1	8d 45 ac	 lea	 eax, DWORD PTR __Tmp$22[ebp]
  000c4	89 45 a8	 mov	 DWORD PTR $T21[ebp], eax
; File C:\Program Files (x86)\Microsoft Visual Studio\2019\Community\VC\Tools\MSVC\14.28.29333\include\utility

; 106  :     _Right   = _STD move(_Tmp);

  000c7	8b 45 a8	 mov	 eax, DWORD PTR $T21[ebp]
  000ca	f3 0f 10 00	 movss	 xmm0, DWORD PTR [eax]
  000ce	f3 0f 11 45 3c	 movss	 DWORD PTR _mi2$[ebp], xmm0
$LN17@DetectColl:
; File D:\Metin2 Server Files\mainline\SRC_2014\Metin2Client\GameLib\GameUtil.cpp

; 24   : 	if (mi1.y>mi2.y) std::swap(mi1.y,mi2.y);

  000d3	f3 0f 10 45 4c	 movss	 xmm0, DWORD PTR _mi1$[ebp+4]
  000d8	0f 2f 45 40	 comiss	 xmm0, DWORD PTR _mi2$[ebp+4]
  000dc	76 50		 jbe	 SHORT $LN29@DetectColl
  000de	8d 45 40	 lea	 eax, DWORD PTR _mi2$[ebp+4]
  000e1	89 45 d4	 mov	 DWORD PTR __Right$[ebp], eax
  000e4	8d 45 4c	 lea	 eax, DWORD PTR _mi1$[ebp+4]
  000e7	89 45 d8	 mov	 DWORD PTR __Left$[ebp], eax
; File C:\Program Files (x86)\Microsoft Visual Studio\2019\Community\VC\Tools\MSVC\14.28.29333\include\type_traits

; 1455 :     return static_cast<remove_reference_t<_Ty>&&>(_Arg);

  000ea	8b 45 d8	 mov	 eax, DWORD PTR __Left$[ebp]
  000ed	89 45 a4	 mov	 DWORD PTR $T20[ebp], eax
; File C:\Program Files (x86)\Microsoft Visual Studio\2019\Community\VC\Tools\MSVC\14.28.29333\include\utility

; 104  :     _Ty _Tmp = _STD move(_Left);

  000f0	8b 45 a4	 mov	 eax, DWORD PTR $T20[ebp]
  000f3	f3 0f 10 00	 movss	 xmm0, DWORD PTR [eax]
  000f7	f3 0f 11 85 50
	ff ff ff	 movss	 DWORD PTR __Tmp$2[ebp], xmm0
; File C:\Program Files (x86)\Microsoft Visual Studio\2019\Community\VC\Tools\MSVC\14.28.29333\include\type_traits

; 1455 :     return static_cast<remove_reference_t<_Ty>&&>(_Arg);

  000ff	8b 45 d4	 mov	 eax, DWORD PTR __Right$[ebp]
  00102	89 85 4c ff ff
	ff		 mov	 DWORD PTR $T1[ebp], eax
; File C:\Program Files (x86)\Microsoft Visual Studio\2019\Community\VC\Tools\MSVC\14.28.29333\include\utility

; 105  :     _Left    = _STD move(_Right);

  00108	8b 45 d8	 mov	 eax, DWORD PTR __Left$[ebp]
  0010b	8b 8d 4c ff ff
	ff		 mov	 ecx, DWORD PTR $T1[ebp]
  00111	8b 09		 mov	 ecx, DWORD PTR [ecx]
  00113	89 08		 mov	 DWORD PTR [eax], ecx
; File C:\Program Files (x86)\Microsoft Visual Studio\2019\Community\VC\Tools\MSVC\14.28.29333\include\type_traits

; 1455 :     return static_cast<remove_reference_t<_Ty>&&>(_Arg);

  00115	8d 85 50 ff ff
	ff		 lea	 eax, DWORD PTR __Tmp$2[ebp]
  0011b	89 85 54 ff ff
	ff		 mov	 DWORD PTR $T3[ebp], eax
; File C:\Program Files (x86)\Microsoft Visual Studio\2019\Community\VC\Tools\MSVC\14.28.29333\include\utility

; 106  :     _Right   = _STD move(_Tmp);

  00121	8b 45 d4	 mov	 eax, DWORD PTR __Right$[ebp]
  00124	8b 8d 54 ff ff
	ff		 mov	 ecx, DWORD PTR $T3[ebp]
  0012a	8b 09		 mov	 ecx, DWORD PTR [ecx]
  0012c	89 08		 mov	 DWORD PTR [eax], ecx
$LN29@DetectColl:
; File D:\Metin2 Server Files\mainline\SRC_2014\Metin2Client\GameLib\GameUtil.cpp

; 25   : 	if (mi1.z>mi2.z) std::swap(mi1.z,mi2.z);

  0012e	f3 0f 10 45 50	 movss	 xmm0, DWORD PTR _mi1$[ebp+8]
  00133	0f 2f 45 44	 comiss	 xmm0, DWORD PTR _mi2$[ebp+8]
  00137	76 56		 jbe	 SHORT $LN41@DetectColl
  00139	8d 45 44	 lea	 eax, DWORD PTR _mi2$[ebp+8]
  0013c	89 45 cc	 mov	 DWORD PTR __Right$[ebp], eax
  0013f	8d 45 50	 lea	 eax, DWORD PTR _mi1$[ebp+8]
  00142	89 45 d0	 mov	 DWORD PTR __Left$[ebp], eax
; File C:\Program Files (x86)\Microsoft Visual Studio\2019\Community\VC\Tools\MSVC\14.28.29333\include\type_traits

; 1455 :     return static_cast<remove_reference_t<_Ty>&&>(_Arg);

  00145	8b 45 d0	 mov	 eax, DWORD PTR __Left$[ebp]
  00148	89 85 58 ff ff
	ff		 mov	 DWORD PTR $T4[ebp], eax
; File C:\Program Files (x86)\Microsoft Visual Studio\2019\Community\VC\Tools\MSVC\14.28.29333\include\utility

; 104  :     _Ty _Tmp = _STD move(_Left);

  0014e	8b 85 58 ff ff
	ff		 mov	 eax, DWORD PTR $T4[ebp]
  00154	f3 0f 10 00	 movss	 xmm0, DWORD PTR [eax]
  00158	f3 0f 11 85 64
	ff ff ff	 movss	 DWORD PTR __Tmp$7[ebp], xmm0
; File C:\Program Files (x86)\Microsoft Visual Studio\2019\Community\VC\Tools\MSVC\14.28.29333\include\type_traits

; 1455 :     return static_cast<remove_reference_t<_Ty>&&>(_Arg);

  00160	8b 45 cc	 mov	 eax, DWORD PTR __Right$[ebp]
  00163	89 85 60 ff ff
	ff		 mov	 DWORD PTR $T6[ebp], eax
; File C:\Program Files (x86)\Microsoft Visual Studio\2019\Community\VC\Tools\MSVC\14.28.29333\include\utility

; 105  :     _Left    = _STD move(_Right);

  00169	8b 45 d0	 mov	 eax, DWORD PTR __Left$[ebp]
  0016c	8b 8d 60 ff ff
	ff		 mov	 ecx, DWORD PTR $T6[ebp]
  00172	8b 09		 mov	 ecx, DWORD PTR [ecx]
  00174	89 08		 mov	 DWORD PTR [eax], ecx
; File C:\Program Files (x86)\Microsoft Visual Studio\2019\Community\VC\Tools\MSVC\14.28.29333\include\type_traits

; 1455 :     return static_cast<remove_reference_t<_Ty>&&>(_Arg);

  00176	8d 85 64 ff ff
	ff		 lea	 eax, DWORD PTR __Tmp$7[ebp]
  0017c	89 85 68 ff ff
	ff		 mov	 DWORD PTR $T8[ebp], eax
; File C:\Program Files (x86)\Microsoft Visual Studio\2019\Community\VC\Tools\MSVC\14.28.29333\include\utility

; 106  :     _Right   = _STD move(_Tmp);

  00182	8b 45 cc	 mov	 eax, DWORD PTR __Right$[ebp]
  00185	8b 8d 68 ff ff
	ff		 mov	 ecx, DWORD PTR $T8[ebp]
  0018b	8b 09		 mov	 ecx, DWORD PTR [ecx]
  0018d	89 08		 mov	 DWORD PTR [eax], ecx
$LN41@DetectColl:
; File D:\Metin2 Server Files\mainline\SRC_2014\Metin2Client\GameLib\GameUtil.cpp

; 26   : 	if (mi3.x>mi4.x) std::swap(mi3.x,mi4.x);

  0018f	f3 0f 10 45 60	 movss	 xmm0, DWORD PTR _mi3$[ebp]
  00194	0f 2f 45 54	 comiss	 xmm0, DWORD PTR _mi4$[ebp]
  00198	76 42		 jbe	 SHORT $LN53@DetectColl
; File C:\Program Files (x86)\Microsoft Visual Studio\2019\Community\VC\Tools\MSVC\14.28.29333\include\type_traits

; 1455 :     return static_cast<remove_reference_t<_Ty>&&>(_Arg);

  0019a	8d 45 60	 lea	 eax, DWORD PTR _mi3$[ebp]
  0019d	89 85 70 ff ff
	ff		 mov	 DWORD PTR $T9[ebp], eax
; File C:\Program Files (x86)\Microsoft Visual Studio\2019\Community\VC\Tools\MSVC\14.28.29333\include\utility

; 104  :     _Ty _Tmp = _STD move(_Left);

  001a3	8b 85 70 ff ff
	ff		 mov	 eax, DWORD PTR $T9[ebp]
  001a9	f3 0f 10 00	 movss	 xmm0, DWORD PTR [eax]
  001ad	f3 0f 11 45 a0	 movss	 DWORD PTR __Tmp$19[ebp], xmm0
; File C:\Program Files (x86)\Microsoft Visual Studio\2019\Community\VC\Tools\MSVC\14.28.29333\include\type_traits

; 1455 :     return static_cast<remove_reference_t<_Ty>&&>(_Arg);

  001b2	8d 45 54	 lea	 eax, DWORD PTR _mi4$[ebp]
  001b5	89 85 5c ff ff
	ff		 mov	 DWORD PTR $T5[ebp], eax
; File C:\Program Files (x86)\Microsoft Visual Studio\2019\Community\VC\Tools\MSVC\14.28.29333\include\utility

; 105  :     _Left    = _STD move(_Right);

  001bb	8b 85 5c ff ff
	ff		 mov	 eax, DWORD PTR $T5[ebp]
  001c1	f3 0f 10 00	 movss	 xmm0, DWORD PTR [eax]
  001c5	f3 0f 11 45 60	 movss	 DWORD PTR _mi3$[ebp], xmm0
; File C:\Program Files (x86)\Microsoft Visual Studio\2019\Community\VC\Tools\MSVC\14.28.29333\include\type_traits

; 1455 :     return static_cast<remove_reference_t<_Ty>&&>(_Arg);

  001ca	8d 45 a0	 lea	 eax, DWORD PTR __Tmp$19[ebp]
  001cd	89 45 9c	 mov	 DWORD PTR $T18[ebp], eax
; File C:\Program Files (x86)\Microsoft Visual Studio\2019\Community\VC\Tools\MSVC\14.28.29333\include\utility

; 106  :     _Right   = _STD move(_Tmp);

  001d0	8b 45 9c	 mov	 eax, DWORD PTR $T18[ebp]
  001d3	f3 0f 10 00	 movss	 xmm0, DWORD PTR [eax]
  001d7	f3 0f 11 45 54	 movss	 DWORD PTR _mi4$[ebp], xmm0
$LN53@DetectColl:
; File D:\Metin2 Server Files\mainline\SRC_2014\Metin2Client\GameLib\GameUtil.cpp

; 27   : 	if (mi3.y>mi4.y) std::swap(mi3.y,mi4.y);

  001dc	f3 0f 10 45 64	 movss	 xmm0, DWORD PTR _mi3$[ebp+4]
  001e1	0f 2f 45 58	 comiss	 xmm0, DWORD PTR _mi4$[ebp+4]
  001e5	76 3e		 jbe	 SHORT $LN65@DetectColl
  001e7	8d 45 58	 lea	 eax, DWORD PTR _mi4$[ebp+4]
  001ea	89 45 c8	 mov	 DWORD PTR __Right$[ebp], eax
  001ed	8d 45 64	 lea	 eax, DWORD PTR _mi3$[ebp+4]
  001f0	89 45 b8	 mov	 DWORD PTR __Left$[ebp], eax
; File C:\Program Files (x86)\Microsoft Visual Studio\2019\Community\VC\Tools\MSVC\14.28.29333\include\type_traits

; 1455 :     return static_cast<remove_reference_t<_Ty>&&>(_Arg);

  001f3	8b 45 b8	 mov	 eax, DWORD PTR __Left$[ebp]
  001f6	89 45 98	 mov	 DWORD PTR $T17[ebp], eax
; File C:\Program Files (x86)\Microsoft Visual Studio\2019\Community\VC\Tools\MSVC\14.28.29333\include\utility

; 104  :     _Ty _Tmp = _STD move(_Left);

  001f9	8b 45 98	 mov	 eax, DWORD PTR $T17[ebp]
  001fc	f3 0f 10 00	 movss	 xmm0, DWORD PTR [eax]
  00200	f3 0f 11 45 90	 movss	 DWORD PTR __Tmp$15[ebp], xmm0
; File C:\Program Files (x86)\Microsoft Visual Studio\2019\Community\VC\Tools\MSVC\14.28.29333\include\type_traits

; 1455 :     return static_cast<remove_reference_t<_Ty>&&>(_Arg);

  00205	8b 45 c8	 mov	 eax, DWORD PTR __Right$[ebp]
  00208	89 45 94	 mov	 DWORD PTR $T16[ebp], eax
; File C:\Program Files (x86)\Microsoft Visual Studio\2019\Community\VC\Tools\MSVC\14.28.29333\include\utility

; 105  :     _Left    = _STD move(_Right);

  0020b	8b 45 b8	 mov	 eax, DWORD PTR __Left$[ebp]
  0020e	8b 4d 94	 mov	 ecx, DWORD PTR $T16[ebp]
  00211	8b 09		 mov	 ecx, DWORD PTR [ecx]
  00213	89 08		 mov	 DWORD PTR [eax], ecx
; File C:\Program Files (x86)\Microsoft Visual Studio\2019\Community\VC\Tools\MSVC\14.28.29333\include\type_traits

; 1455 :     return static_cast<remove_reference_t<_Ty>&&>(_Arg);

  00215	8d 45 90	 lea	 eax, DWORD PTR __Tmp$15[ebp]
  00218	89 45 8c	 mov	 DWORD PTR $T14[ebp], eax
; File C:\Program Files (x86)\Microsoft Visual Studio\2019\Community\VC\Tools\MSVC\14.28.29333\include\utility

; 106  :     _Right   = _STD move(_Tmp);

  0021b	8b 45 c8	 mov	 eax, DWORD PTR __Right$[ebp]
  0021e	8b 4d 8c	 mov	 ecx, DWORD PTR $T14[ebp]
  00221	8b 09		 mov	 ecx, DWORD PTR [ecx]
  00223	89 08		 mov	 DWORD PTR [eax], ecx
$LN65@DetectColl:
; File D:\Metin2 Server Files\mainline\SRC_2014\Metin2Client\GameLib\GameUtil.cpp

; 28   : 	if (mi3.z>mi4.z) std::swap(mi3.z,mi4.z);

  00225	f3 0f 10 45 68	 movss	 xmm0, DWORD PTR _mi3$[ebp+8]
  0022a	0f 2f 45 5c	 comiss	 xmm0, DWORD PTR _mi4$[ebp+8]
  0022e	76 44		 jbe	 SHORT $LN77@DetectColl
  00230	8d 45 5c	 lea	 eax, DWORD PTR _mi4$[ebp+8]
  00233	89 45 c0	 mov	 DWORD PTR __Right$[ebp], eax
  00236	8d 45 68	 lea	 eax, DWORD PTR _mi3$[ebp+8]
  00239	89 45 c4	 mov	 DWORD PTR __Left$[ebp], eax
; File C:\Program Files (x86)\Microsoft Visual Studio\2019\Community\VC\Tools\MSVC\14.28.29333\include\type_traits

; 1455 :     return static_cast<remove_reference_t<_Ty>&&>(_Arg);

  0023c	8b 45 c4	 mov	 eax, DWORD PTR __Left$[ebp]
  0023f	89 45 88	 mov	 DWORD PTR $T13[ebp], eax
; File C:\Program Files (x86)\Microsoft Visual Studio\2019\Community\VC\Tools\MSVC\14.28.29333\include\utility

; 104  :     _Ty _Tmp = _STD move(_Left);

  00242	8b 45 88	 mov	 eax, DWORD PTR $T13[ebp]
  00245	f3 0f 10 00	 movss	 xmm0, DWORD PTR [eax]
  00249	f3 0f 11 45 80	 movss	 DWORD PTR __Tmp$11[ebp], xmm0
; File C:\Program Files (x86)\Microsoft Visual Studio\2019\Community\VC\Tools\MSVC\14.28.29333\include\type_traits

; 1455 :     return static_cast<remove_reference_t<_Ty>&&>(_Arg);

  0024e	8b 45 c0	 mov	 eax, DWORD PTR __Right$[ebp]
  00251	89 45 84	 mov	 DWORD PTR $T12[ebp], eax
; File C:\Program Files (x86)\Microsoft Visual Studio\2019\Community\VC\Tools\MSVC\14.28.29333\include\utility

; 105  :     _Left    = _STD move(_Right);

  00254	8b 45 c4	 mov	 eax, DWORD PTR __Left$[ebp]
  00257	8b 4d 84	 mov	 ecx, DWORD PTR $T12[ebp]
  0025a	8b 09		 mov	 ecx, DWORD PTR [ecx]
  0025c	89 08		 mov	 DWORD PTR [eax], ecx
; File C:\Program Files (x86)\Microsoft Visual Studio\2019\Community\VC\Tools\MSVC\14.28.29333\include\type_traits

; 1455 :     return static_cast<remove_reference_t<_Ty>&&>(_Arg);

  0025e	8d 45 80	 lea	 eax, DWORD PTR __Tmp$11[ebp]
  00261	89 85 7c ff ff
	ff		 mov	 DWORD PTR $T10[ebp], eax
; File C:\Program Files (x86)\Microsoft Visual Studio\2019\Community\VC\Tools\MSVC\14.28.29333\include\utility

; 106  :     _Right   = _STD move(_Tmp);

  00267	8b 45 c0	 mov	 eax, DWORD PTR __Right$[ebp]
  0026a	8b 8d 7c ff ff
	ff		 mov	 ecx, DWORD PTR $T10[ebp]
  00270	8b 09		 mov	 ecx, DWORD PTR [ecx]
  00272	89 08		 mov	 DWORD PTR [eax], ecx
$LN77@DetectColl:
; File D:\Metin2 Server Files\mainline\SRC_2014\Metin2Client\GameLib\GameUtil.cpp

; 29   : 	mi1.x -= c_rCylinder1.fRadius; mi1.y -= c_rCylinder1.fRadius; mi1.z -= c_rCylinder1.fRadius;

  00274	f3 0f 10 45 48	 movss	 xmm0, DWORD PTR _mi1$[ebp]
  00279	f3 0f 5c 45 2c	 subss	 xmm0, DWORD PTR _c_rCylinder1$[ebp+24]
  0027e	f3 0f 11 45 48	 movss	 DWORD PTR _mi1$[ebp], xmm0
  00283	f3 0f 10 45 4c	 movss	 xmm0, DWORD PTR _mi1$[ebp+4]
  00288	f3 0f 5c 45 2c	 subss	 xmm0, DWORD PTR _c_rCylinder1$[ebp+24]
  0028d	f3 0f 11 45 4c	 movss	 DWORD PTR _mi1$[ebp+4], xmm0
  00292	f3 0f 10 45 50	 movss	 xmm0, DWORD PTR _mi1$[ebp+8]
  00297	f3 0f 5c 45 2c	 subss	 xmm0, DWORD PTR _c_rCylinder1$[ebp+24]
  0029c	f3 0f 11 45 50	 movss	 DWORD PTR _mi1$[ebp+8], xmm0

; 30   : 	mi2.x += c_rCylinder1.fRadius; mi2.y += c_rCylinder1.fRadius; mi2.z += c_rCylinder1.fRadius;

  002a1	f3 0f 10 45 3c	 movss	 xmm0, DWORD PTR _mi2$[ebp]
  002a6	f3 0f 58 45 2c	 addss	 xmm0, DWORD PTR _c_rCylinder1$[ebp+24]
  002ab	f3 0f 11 45 3c	 movss	 DWORD PTR _mi2$[ebp], xmm0
  002b0	f3 0f 10 45 40	 movss	 xmm0, DWORD PTR _mi2$[ebp+4]
  002b5	f3 0f 58 45 2c	 addss	 xmm0, DWORD PTR _c_rCylinder1$[ebp+24]
  002ba	f3 0f 11 45 40	 movss	 DWORD PTR _mi2$[ebp+4], xmm0
  002bf	f3 0f 10 45 44	 movss	 xmm0, DWORD PTR _mi2$[ebp+8]
  002c4	f3 0f 58 45 2c	 addss	 xmm0, DWORD PTR _c_rCylinder1$[ebp+24]
  002c9	f3 0f 11 45 44	 movss	 DWORD PTR _mi2$[ebp+8], xmm0

; 31   : 	mi3.x -= c_rCylinder2.fRadius; mi3.y -= c_rCylinder2.fRadius; mi3.z -= c_rCylinder2.fRadius;

  002ce	f3 0f 10 45 60	 movss	 xmm0, DWORD PTR _mi3$[ebp]
  002d3	f3 0f 5c 45 10	 subss	 xmm0, DWORD PTR _c_rCylinder2$[ebp+24]
  002d8	f3 0f 11 45 60	 movss	 DWORD PTR _mi3$[ebp], xmm0
  002dd	f3 0f 10 45 64	 movss	 xmm0, DWORD PTR _mi3$[ebp+4]
  002e2	f3 0f 5c 45 10	 subss	 xmm0, DWORD PTR _c_rCylinder2$[ebp+24]
  002e7	f3 0f 11 45 64	 movss	 DWORD PTR _mi3$[ebp+4], xmm0
  002ec	f3 0f 10 45 68	 movss	 xmm0, DWORD PTR _mi3$[ebp+8]
  002f1	f3 0f 5c 45 10	 subss	 xmm0, DWORD PTR _c_rCylinder2$[ebp+24]
  002f6	f3 0f 11 45 68	 movss	 DWORD PTR _mi3$[ebp+8], xmm0

; 32   : 	mi4.x += c_rCylinder2.fRadius; mi4.y += c_rCylinder2.fRadius; mi4.z += c_rCylinder2.fRadius;

  002fb	f3 0f 10 45 54	 movss	 xmm0, DWORD PTR _mi4$[ebp]
  00300	f3 0f 58 45 10	 addss	 xmm0, DWORD PTR _c_rCylinder2$[ebp+24]
  00305	f3 0f 11 45 54	 movss	 DWORD PTR _mi4$[ebp], xmm0
  0030a	f3 0f 10 45 58	 movss	 xmm0, DWORD PTR _mi4$[ebp+4]
  0030f	f3 0f 58 45 10	 addss	 xmm0, DWORD PTR _c_rCylinder2$[ebp+24]
  00314	f3 0f 11 45 58	 movss	 DWORD PTR _mi4$[ebp+4], xmm0
  00319	f3 0f 10 45 5c	 movss	 xmm0, DWORD PTR _mi4$[ebp+8]
  0031e	f3 0f 58 45 10	 addss	 xmm0, DWORD PTR _c_rCylinder2$[ebp+24]
  00323	f3 0f 11 45 5c	 movss	 DWORD PTR _mi4$[ebp+8], xmm0

; 33   : 	if (mi4.x<mi1.x || mi2.x<mi3.x) return false;

  00328	f3 0f 10 45 48	 movss	 xmm0, DWORD PTR _mi1$[ebp]
  0032d	0f 2f 45 54	 comiss	 xmm0, DWORD PTR _mi4$[ebp]
  00331	77 0b		 ja	 SHORT $LN9@DetectColl
  00333	f3 0f 10 45 60	 movss	 xmm0, DWORD PTR _mi3$[ebp]
  00338	0f 2f 45 3c	 comiss	 xmm0, DWORD PTR _mi2$[ebp]
  0033c	76 07		 jbe	 SHORT $LN8@DetectColl
$LN9@DetectColl:
  0033e	32 c0		 xor	 al, al
  00340	e9 fa 00 00 00	 jmp	 $LN1@DetectColl
$LN8@DetectColl:

; 34   : 	if (mi4.y<mi1.y || mi2.y<mi3.y) return false;

  00345	f3 0f 10 45 4c	 movss	 xmm0, DWORD PTR _mi1$[ebp+4]
  0034a	0f 2f 45 58	 comiss	 xmm0, DWORD PTR _mi4$[ebp+4]
  0034e	77 0b		 ja	 SHORT $LN11@DetectColl
  00350	f3 0f 10 45 64	 movss	 xmm0, DWORD PTR _mi3$[ebp+4]
  00355	0f 2f 45 40	 comiss	 xmm0, DWORD PTR _mi2$[ebp+4]
  00359	76 07		 jbe	 SHORT $LN10@DetectColl
$LN11@DetectColl:
  0035b	32 c0		 xor	 al, al
  0035d	e9 dd 00 00 00	 jmp	 $LN1@DetectColl
$LN10@DetectColl:

; 35   : 	if (mi4.z<mi1.z || mi2.z<mi3.z) return false;

  00362	f3 0f 10 45 50	 movss	 xmm0, DWORD PTR _mi1$[ebp+8]
  00367	0f 2f 45 5c	 comiss	 xmm0, DWORD PTR _mi4$[ebp+8]
  0036b	77 0b		 ja	 SHORT $LN13@DetectColl
  0036d	f3 0f 10 45 68	 movss	 xmm0, DWORD PTR _mi3$[ebp+8]
  00372	0f 2f 45 44	 comiss	 xmm0, DWORD PTR _mi2$[ebp+8]
  00376	76 07		 jbe	 SHORT $LN12@DetectColl
$LN13@DetectColl:
  00378	32 c0		 xor	 al, al
  0037a	e9 c0 00 00 00	 jmp	 $LN1@DetectColl
$LN12@DetectColl:

; 36   : 	
; 37   : 	D3DXVECTOR3 vA, vB;
; 38   : 	IntersectLineSegments(c_rCylinder1.v3LastPosition, c_rCylinder1.v3Position,

  0037f	8d 45 e0	 lea	 eax, DWORD PTR _vB$[ebp]
  00382	50		 push	 eax
  00383	8d 45 ec	 lea	 eax, DWORD PTR _vA$[ebp]
  00386	50		 push	 eax
  00387	8d 45 f8	 lea	 eax, DWORD PTR _c_rCylinder2$[ebp]
  0038a	50		 push	 eax
  0038b	8d 45 04	 lea	 eax, DWORD PTR _c_rCylinder2$[ebp+12]
  0038e	50		 push	 eax
  0038f	8d 45 14	 lea	 eax, DWORD PTR _c_rCylinder1$[ebp]
  00392	50		 push	 eax
  00393	8d 45 20	 lea	 eax, DWORD PTR _c_rCylinder1$[ebp+12]
  00396	50		 push	 eax
  00397	e8 00 00 00 00	 call	 ?IntersectLineSegments@@YAXABUD3DXVECTOR3@@000AAU1@1@Z ; IntersectLineSegments
  0039c	83 c4 18	 add	 esp, 24			; 00000018H
; File D:\Metin2 Server Files\mainline\SRC_2014\M2Data\include\d3dx8math.inl

; 263  :     return D3DXVECTOR3(x - v.x, y - v.y, z - v.z);

  0039f	f3 0f 10 45 ec	 movss	 xmm0, DWORD PTR _vA$[ebp]
  003a4	f3 0f 5c 45 e0	 subss	 xmm0, DWORD PTR _vB$[ebp]
  003a9	f3 0f 11 85 78
	ff ff ff	 movss	 DWORD PTR _fx$[ebp], xmm0
  003b1	f3 0f 10 45 f0	 movss	 xmm0, DWORD PTR _vA$[ebp+4]
  003b6	f3 0f 5c 45 e4	 subss	 xmm0, DWORD PTR _vB$[ebp+4]
  003bb	f3 0f 11 85 74
	ff ff ff	 movss	 DWORD PTR _fy$[ebp], xmm0
  003c3	f3 0f 10 45 f4	 movss	 xmm0, DWORD PTR _vA$[ebp+8]
  003c8	f3 0f 5c 45 e8	 subss	 xmm0, DWORD PTR _vB$[ebp+8]
  003cd	f3 0f 11 85 48
	ff ff ff	 movss	 DWORD PTR _fz$[ebp], xmm0

; 180  :     x = fx;

  003d5	f3 0f 10 85 78
	ff ff ff	 movss	 xmm0, DWORD PTR _fx$[ebp]
  003dd	f3 0f 11 45 30	 movss	 DWORD PTR $T25[ebp], xmm0

; 181  :     y = fy;

  003e2	f3 0f 10 85 74
	ff ff ff	 movss	 xmm0, DWORD PTR _fy$[ebp]
  003ea	f3 0f 11 45 34	 movss	 DWORD PTR $T25[ebp+4], xmm0

; 182  :     z = fz;

  003ef	f3 0f 10 85 48
	ff ff ff	 movss	 xmm0, DWORD PTR _fz$[ebp]
  003f7	f3 0f 11 45 38	 movss	 DWORD PTR $T25[ebp+8], xmm0

; 1253 :     return pV->x * pV->x + pV->y * pV->y + pV->z * pV->z;

  003fc	f3 0f 10 45 38	 movss	 xmm0, DWORD PTR $T25[ebp+8]
  00401	f3 0f 59 45 38	 mulss	 xmm0, DWORD PTR $T25[ebp+8]
  00406	f3 0f 10 4d 34	 movss	 xmm1, DWORD PTR $T25[ebp+4]
  0040b	f3 0f 59 4d 34	 mulss	 xmm1, DWORD PTR $T25[ebp+4]
  00410	f3 0f 10 55 30	 movss	 xmm2, DWORD PTR $T25[ebp]
  00415	f3 0f 59 55 30	 mulss	 xmm2, DWORD PTR $T25[ebp]
  0041a	f3 0f 58 d1	 addss	 xmm2, xmm1
  0041e	f3 0f 58 d0	 addss	 xmm2, xmm0
; File D:\Metin2 Server Files\mainline\SRC_2014\Metin2Client\GameLib\GameUtil.cpp

; 41   : 	return (D3DXVec3LengthSq(&(vA-vB))<=rsq);

  00422	f3 0f 10 85 6c
	ff ff ff	 movss	 xmm0, DWORD PTR _rsq$[ebp]
  0042a	0f 2f c2	 comiss	 xmm0, xmm2
  0042d	72 09		 jb	 SHORT $LN15@DetectColl
  0042f	c7 45 bc 01 00
	00 00		 mov	 DWORD PTR tv451[ebp], 1
  00436	eb 04		 jmp	 SHORT $LN16@DetectColl
$LN15@DetectColl:
  00438	83 65 bc 00	 and	 DWORD PTR tv451[ebp], 0
$LN16@DetectColl:
  0043c	8a 45 bc	 mov	 al, BYTE PTR tv451[ebp]
$LN1@DetectColl:

; 42   : }

  0043f	5f		 pop	 edi
  00440	5e		 pop	 esi
  00441	8b 4d 6c	 mov	 ecx, DWORD PTR __$ArrayPad$[ebp]
  00444	33 cd		 xor	 ecx, ebp
  00446	e8 00 00 00 00	 call	 @__security_check_cookie@4
  0044b	83 c5 70	 add	 ebp, 112		; 00000070H
  0044e	c9		 leave
  0044f	c3		 ret	 0
?DetectCollisionDynamicZCylinderVSDynamicZCylinder@@YA_NABUCDynamicSphereInstance@@0@Z ENDP ; DetectCollisionDynamicZCylinderVSDynamicZCylinder
_TEXT	ENDS
; Function compile flags: /Odspy
; File D:\Metin2 Server Files\mainline\SRC_2014\Metin2Client\GameLib\GameUtil.cpp
; File C:\Program Files (x86)\Microsoft Visual Studio\2019\Community\VC\Tools\MSVC\14.28.29333\include\type_traits
; File C:\Program Files (x86)\Microsoft Visual Studio\2019\Community\VC\Tools\MSVC\14.28.29333\include\utility
; File C:\Program Files (x86)\Microsoft Visual Studio\2019\Community\VC\Tools\MSVC\14.28.29333\include\type_traits
; File C:\Program Files (x86)\Microsoft Visual Studio\2019\Community\VC\Tools\MSVC\14.28.29333\include\utility
; File C:\Program Files (x86)\Microsoft Visual Studio\2019\Community\VC\Tools\MSVC\14.28.29333\include\type_traits
; File C:\Program Files (x86)\Microsoft Visual Studio\2019\Community\VC\Tools\MSVC\14.28.29333\include\utility
; File D:\Metin2 Server Files\mainline\SRC_2014\Metin2Client\GameLib\GameUtil.cpp
; File C:\Program Files (x86)\Microsoft Visual Studio\2019\Community\VC\Tools\MSVC\14.28.29333\include\type_traits
; File C:\Program Files (x86)\Microsoft Visual Studio\2019\Community\VC\Tools\MSVC\14.28.29333\include\utility
; File C:\Program Files (x86)\Microsoft Visual Studio\2019\Community\VC\Tools\MSVC\14.28.29333\include\type_traits
; File C:\Program Files (x86)\Microsoft Visual Studio\2019\Community\VC\Tools\MSVC\14.28.29333\include\utility
; File C:\Program Files (x86)\Microsoft Visual Studio\2019\Community\VC\Tools\MSVC\14.28.29333\include\type_traits
; File C:\Program Files (x86)\Microsoft Visual Studio\2019\Community\VC\Tools\MSVC\14.28.29333\include\utility
; File D:\Metin2 Server Files\mainline\SRC_2014\Metin2Client\GameLib\GameUtil.cpp
; File C:\Program Files (x86)\Microsoft Visual Studio\2019\Community\VC\Tools\MSVC\14.28.29333\include\type_traits
; File C:\Program Files (x86)\Microsoft Visual Studio\2019\Community\VC\Tools\MSVC\14.28.29333\include\utility
; File C:\Program Files (x86)\Microsoft Visual Studio\2019\Community\VC\Tools\MSVC\14.28.29333\include\type_traits
; File C:\Program Files (x86)\Microsoft Visual Studio\2019\Community\VC\Tools\MSVC\14.28.29333\include\utility
; File C:\Program Files (x86)\Microsoft Visual Studio\2019\Community\VC\Tools\MSVC\14.28.29333\include\type_traits
; File C:\Program Files (x86)\Microsoft Visual Studio\2019\Community\VC\Tools\MSVC\14.28.29333\include\utility
; File D:\Metin2 Server Files\mainline\SRC_2014\Metin2Client\GameLib\GameUtil.cpp
; File C:\Program Files (x86)\Microsoft Visual Studio\2019\Community\VC\Tools\MSVC\14.28.29333\include\type_traits
; File C:\Program Files (x86)\Microsoft Visual Studio\2019\Community\VC\Tools\MSVC\14.28.29333\include\utility
; File C:\Program Files (x86)\Microsoft Visual Studio\2019\Community\VC\Tools\MSVC\14.28.29333\include\type_traits
; File C:\Program Files (x86)\Microsoft Visual Studio\2019\Community\VC\Tools\MSVC\14.28.29333\include\utility
; File C:\Program Files (x86)\Microsoft Visual Studio\2019\Community\VC\Tools\MSVC\14.28.29333\include\type_traits
; File C:\Program Files (x86)\Microsoft Visual Studio\2019\Community\VC\Tools\MSVC\14.28.29333\include\utility
; File D:\Metin2 Server Files\mainline\SRC_2014\Metin2Client\GameLib\GameUtil.cpp
; File C:\Program Files (x86)\Microsoft Visual Studio\2019\Community\VC\Tools\MSVC\14.28.29333\include\type_traits
; File C:\Program Files (x86)\Microsoft Visual Studio\2019\Community\VC\Tools\MSVC\14.28.29333\include\utility
; File C:\Program Files (x86)\Microsoft Visual Studio\2019\Community\VC\Tools\MSVC\14.28.29333\include\type_traits
; File C:\Program Files (x86)\Microsoft Visual Studio\2019\Community\VC\Tools\MSVC\14.28.29333\include\utility
; File C:\Program Files (x86)\Microsoft Visual Studio\2019\Community\VC\Tools\MSVC\14.28.29333\include\type_traits
; File C:\Program Files (x86)\Microsoft Visual Studio\2019\Community\VC\Tools\MSVC\14.28.29333\include\utility
; File D:\Metin2 Server Files\mainline\SRC_2014\Metin2Client\GameLib\GameUtil.cpp
; File C:\Program Files (x86)\Microsoft Visual Studio\2019\Community\VC\Tools\MSVC\14.28.29333\include\type_traits
; File C:\Program Files (x86)\Microsoft Visual Studio\2019\Community\VC\Tools\MSVC\14.28.29333\include\utility
; File C:\Program Files (x86)\Microsoft Visual Studio\2019\Community\VC\Tools\MSVC\14.28.29333\include\type_traits
; File C:\Program Files (x86)\Microsoft Visual Studio\2019\Community\VC\Tools\MSVC\14.28.29333\include\utility
; File C:\Program Files (x86)\Microsoft Visual Studio\2019\Community\VC\Tools\MSVC\14.28.29333\include\type_traits
; File C:\Program Files (x86)\Microsoft Visual Studio\2019\Community\VC\Tools\MSVC\14.28.29333\include\utility
; File D:\Metin2 Server Files\mainline\SRC_2014\Metin2Client\GameLib\GameUtil.cpp
; File D:\Metin2 Server Files\mainline\SRC_2014\M2Data\include\d3dx8math.inl
; File D:\Metin2 Server Files\mainline\SRC_2014\Metin2Client\GameLib\GameUtil.cpp
;	COMDAT ?DetectCollisionDynamicSphereVSDynamicSphere@@YA_NABUCDynamicSphereInstance@@0@Z
_TEXT	SEGMENT
_fx$ = -128						; size = 4
__Tmp$1 = -124						; size = 4
$T2 = -120						; size = 4
$T3 = -116						; size = 4
$T4 = -112						; size = 4
$T5 = -108						; size = 4
__Tmp$6 = -104						; size = 4
_rsq$ = -100						; size = 4
_fz$ = -96						; size = 4
_fy$ = -92						; size = 4
$T7 = -88						; size = 4
$T8 = -84						; size = 4
__Tmp$9 = -80						; size = 4
$T10 = -76						; size = 4
$T11 = -72						; size = 4
$T12 = -68						; size = 4
__Tmp$13 = -64						; size = 4
$T14 = -60						; size = 4
$T15 = -56						; size = 4
$T16 = -52						; size = 4
__Tmp$17 = -48						; size = 4
$T18 = -44						; size = 4
$T19 = -40						; size = 4
$T20 = -36						; size = 4
$T21 = -32						; size = 4
__Tmp$22 = -28						; size = 4
$T23 = -24						; size = 4
$T24 = -20						; size = 4
__Left$ = -16						; size = 4
tv423 = -12						; size = 4
__Right$ = -8						; size = 4
__Left$ = -4						; size = 4
__Right$ = 0						; size = 4
__Right$ = 4						; size = 4
__Left$ = 8						; size = 4
__Right$ = 12						; size = 4
__Left$ = 16						; size = 4
_r$ = 20						; size = 4
_vB$ = 24						; size = 12
_vA$ = 36						; size = 12
$T25 = 48						; size = 12
_mi2$ = 60						; size = 12
_mi4$ = 72						; size = 12
_mi1$ = 84						; size = 12
_mi3$ = 96						; size = 12
__$ArrayPad$ = 108					; size = 4
_c_rSphere1$ = 120					; size = 4
_c_rSphere2$ = 124					; size = 4
?DetectCollisionDynamicSphereVSDynamicSphere@@YA_NABUCDynamicSphereInstance@@0@Z PROC ; DetectCollisionDynamicSphereVSDynamicSphere, COMDAT

; 45   : {

  00000	55		 push	 ebp
  00001	8d 6c 24 90	 lea	 ebp, DWORD PTR [esp-112]
  00005	81 ec f0 00 00
	00		 sub	 esp, 240		; 000000f0H
  0000b	a1 00 00 00 00	 mov	 eax, DWORD PTR ___security_cookie
  00010	33 c5		 xor	 eax, ebp
  00012	89 45 6c	 mov	 DWORD PTR __$ArrayPad$[ebp], eax
  00015	56		 push	 esi
  00016	57		 push	 edi

; 46   : 	float r = c_rSphere1.fRadius+c_rSphere2.fRadius;

  00017	8b 45 78	 mov	 eax, DWORD PTR _c_rSphere1$[ebp]
  0001a	8b 4d 7c	 mov	 ecx, DWORD PTR _c_rSphere2$[ebp]
  0001d	f3 0f 10 40 18	 movss	 xmm0, DWORD PTR [eax+24]
  00022	f3 0f 58 41 18	 addss	 xmm0, DWORD PTR [ecx+24]
  00027	f3 0f 11 45 14	 movss	 DWORD PTR _r$[ebp], xmm0

; 47   : 	float rsq = r*r;

  0002c	f3 0f 10 45 14	 movss	 xmm0, DWORD PTR _r$[ebp]
  00031	f3 0f 59 45 14	 mulss	 xmm0, DWORD PTR _r$[ebp]
  00036	f3 0f 11 45 9c	 movss	 DWORD PTR _rsq$[ebp], xmm0

; 48   : 
; 49   : 	/*if (D3DXVec3LengthSq(&(c_rSphere1.v3Position		-c_rSphere2.v3Position		))<=rsq) return true;
; 50   : 	if (D3DXVec3LengthSq(&(c_rSphere1.v3Position		-c_rSphere2.v3LastPosition	))<=rsq) return true;
; 51   : 	if (D3DXVec3LengthSq(&(c_rSphere1.v3LastPosition	-c_rSphere2.v3Position		))<=rsq) return true;
; 52   : 	if (D3DXVec3LengthSq(&(c_rSphere1.v3LastPosition	-c_rSphere2.v3LastPosition	))<=rsq) return true;*/
; 53   : 
; 54   : 	/*
; 55   : 	if (square_distance_between_linesegment_and_point(
; 56   : 		c_rSphere1.v3Position,
; 57   : 		c_rSphere1.v3LastPosition,
; 58   : 		c_rSphere2.v3Position
; 59   : 		)<=rsq) return true;
; 60   : 	if (square_distance_between_linesegment_and_point(
; 61   : 		c_rSphere1.v3Position,
; 62   : 		c_rSphere1.v3LastPosition,
; 63   : 		c_rSphere2.v3LastPosition
; 64   : 		)<=rsq) return true;
; 65   : 	if (square_distance_between_linesegment_and_point(
; 66   : 		c_rSphere2.v3Position,
; 67   : 		c_rSphere2.v3LastPosition,
; 68   : 		c_rSphere1.v3Position
; 69   : 		)<=rsq) return true;
; 70   : 	if (square_distance_between_linesegment_and_point(
; 71   : 		c_rSphere2.v3Position,
; 72   : 		c_rSphere2.v3LastPosition,
; 73   : 		c_rSphere1.v3LastPosition
; 74   : 		)<=rsq) return true;
; 75   : 
; 76   : 	D3DXVECTOR3 da=c_rSphere1.v3Position-c_rSphere1.v3LastPosition;
; 77   : 	D3DXVECTOR3 db=c_rSphere2.v3Position-c_rSphere2.v3LastPosition;
; 78   : 	D3DXVECTOR3 n;
; 79   : 	float la = D3DXVec3Length(&da);
; 80   : 	float lb = D3DXVec3Length(&db);
; 81   : 	if (la==0||lb==0)
; 82   : 	{
; 83   : 		D3DXVECTOR3 vA, vB;
; 84   : 		IntersectLineSegments(
; 85   : 			c_rSphere1.v3LastPosition.x,c_rSphere1.v3LastPosition.y,c_rSphere1.v3LastPosition.z,
; 86   : 			c_rSphere1.v3Position.x,	c_rSphere1.v3Position.y,	c_rSphere1.v3Position.z,
; 87   : 			c_rSphere2.v3LastPosition.x,c_rSphere2.v3LastPosition.y,c_rSphere2.v3LastPosition.z,
; 88   : 			c_rSphere2.v3Position.x,	c_rSphere2.v3Position.y,	c_rSphere2.v3Position.z,
; 89   : 			false, 1.e-5f, vA.x, vA.y, vA.z, vB.x, vB.y, vB.z);
; 90   : 		return (D3DXVec3LengthSq(&(vA-vB))<=r*r);
; 91   : 	}
; 92   : 	D3DXVECTOR3 p=c_rSphere2.v3Position - c_rSphere1.v3LastPosition;
; 93   : 	D3DXVec3Cross(&n, &da, &db);
; 94   : 	float from_plane = D3DXVec3Dot(&n,&p)/la/lb;
; 95   : 	if (from_plane>r || from_plane<-r)
; 96   : 		return false;
; 97   : 	p-=(from_plane/la/lb)*n;
; 98   : 	float ta = D3DXVec3Dot(&p,&da)/la/la;
; 99   : 	float tb = D3DXVec3Dot(&p,&db)/lb/lb;
; 100  : 
; 101  : 	// FIXME 구 체크가 아니다
; 102  : 
; 103  : 	if (ta<0)
; 104  : 		return false;
; 105  : 	if (tb<0)
; 106  : 		return false;
; 107  : 	if (ta>1)
; 108  : 		return false;
; 109  : 	if (tb>1)
; 110  : 		return false;
; 111  : 	return true;
; 112  : 
; 113  :   */
; 114  : 	//*/
; 115  : 	// using gpg line-collision
; 116  : 
; 117  : 	// AABB check
; 118  : 
; 119  : 	D3DXVECTOR3 mi1=c_rSphere1.v3LastPosition, mi2 = c_rSphere1.v3Position;

  0003b	8b 75 78	 mov	 esi, DWORD PTR _c_rSphere1$[ebp]
  0003e	83 c6 0c	 add	 esi, 12			; 0000000cH
  00041	8d 7d 54	 lea	 edi, DWORD PTR _mi1$[ebp]
  00044	a5		 movsd
  00045	a5		 movsd
  00046	a5		 movsd
  00047	8b 75 78	 mov	 esi, DWORD PTR _c_rSphere1$[ebp]
  0004a	8d 7d 3c	 lea	 edi, DWORD PTR _mi2$[ebp]
  0004d	a5		 movsd
  0004e	a5		 movsd
  0004f	a5		 movsd

; 120  : 	D3DXVECTOR3 mi3=c_rSphere2.v3LastPosition, mi4 = c_rSphere2.v3Position;

  00050	8b 75 7c	 mov	 esi, DWORD PTR _c_rSphere2$[ebp]
  00053	83 c6 0c	 add	 esi, 12			; 0000000cH
  00056	8d 7d 60	 lea	 edi, DWORD PTR _mi3$[ebp]
  00059	a5		 movsd
  0005a	a5		 movsd
  0005b	a5		 movsd
  0005c	8b 75 7c	 mov	 esi, DWORD PTR _c_rSphere2$[ebp]
  0005f	8d 7d 48	 lea	 edi, DWORD PTR _mi4$[ebp]
  00062	a5		 movsd
  00063	a5		 movsd
  00064	a5		 movsd

; 121  : 	if (mi1.x>mi2.x) std::swap(mi1.x,mi2.x);

  00065	f3 0f 10 45 54	 movss	 xmm0, DWORD PTR _mi1$[ebp]
  0006a	0f 2f 45 3c	 comiss	 xmm0, DWORD PTR _mi2$[ebp]
  0006e	76 36		 jbe	 SHORT $LN17@DetectColl
; File C:\Program Files (x86)\Microsoft Visual Studio\2019\Community\VC\Tools\MSVC\14.28.29333\include\type_traits

; 1455 :     return static_cast<remove_reference_t<_Ty>&&>(_Arg);

  00070	8d 45 54	 lea	 eax, DWORD PTR _mi1$[ebp]
  00073	89 45 ec	 mov	 DWORD PTR $T24[ebp], eax
; File C:\Program Files (x86)\Microsoft Visual Studio\2019\Community\VC\Tools\MSVC\14.28.29333\include\utility

; 104  :     _Ty _Tmp = _STD move(_Left);

  00076	8b 45 ec	 mov	 eax, DWORD PTR $T24[ebp]
  00079	f3 0f 10 00	 movss	 xmm0, DWORD PTR [eax]
  0007d	f3 0f 11 45 e4	 movss	 DWORD PTR __Tmp$22[ebp], xmm0
; File C:\Program Files (x86)\Microsoft Visual Studio\2019\Community\VC\Tools\MSVC\14.28.29333\include\type_traits

; 1455 :     return static_cast<remove_reference_t<_Ty>&&>(_Arg);

  00082	8d 45 3c	 lea	 eax, DWORD PTR _mi2$[ebp]
  00085	89 45 e8	 mov	 DWORD PTR $T23[ebp], eax
; File C:\Program Files (x86)\Microsoft Visual Studio\2019\Community\VC\Tools\MSVC\14.28.29333\include\utility

; 105  :     _Left    = _STD move(_Right);

  00088	8b 45 e8	 mov	 eax, DWORD PTR $T23[ebp]
  0008b	f3 0f 10 00	 movss	 xmm0, DWORD PTR [eax]
  0008f	f3 0f 11 45 54	 movss	 DWORD PTR _mi1$[ebp], xmm0
; File C:\Program Files (x86)\Microsoft Visual Studio\2019\Community\VC\Tools\MSVC\14.28.29333\include\type_traits

; 1455 :     return static_cast<remove_reference_t<_Ty>&&>(_Arg);

  00094	8d 45 e4	 lea	 eax, DWORD PTR __Tmp$22[ebp]
  00097	89 45 e0	 mov	 DWORD PTR $T21[ebp], eax
; File C:\Program Files (x86)\Microsoft Visual Studio\2019\Community\VC\Tools\MSVC\14.28.29333\include\utility

; 106  :     _Right   = _STD move(_Tmp);

  0009a	8b 45 e0	 mov	 eax, DWORD PTR $T21[ebp]
  0009d	f3 0f 10 00	 movss	 xmm0, DWORD PTR [eax]
  000a1	f3 0f 11 45 3c	 movss	 DWORD PTR _mi2$[ebp], xmm0
$LN17@DetectColl:
; File D:\Metin2 Server Files\mainline\SRC_2014\Metin2Client\GameLib\GameUtil.cpp

; 122  : 	if (mi1.y>mi2.y) std::swap(mi1.y,mi2.y);

  000a6	f3 0f 10 45 58	 movss	 xmm0, DWORD PTR _mi1$[ebp+4]
  000ab	0f 2f 45 40	 comiss	 xmm0, DWORD PTR _mi2$[ebp+4]
  000af	76 3e		 jbe	 SHORT $LN29@DetectColl
  000b1	8d 45 40	 lea	 eax, DWORD PTR _mi2$[ebp+4]
  000b4	89 45 0c	 mov	 DWORD PTR __Right$[ebp], eax
  000b7	8d 45 58	 lea	 eax, DWORD PTR _mi1$[ebp+4]
  000ba	89 45 10	 mov	 DWORD PTR __Left$[ebp], eax
; File C:\Program Files (x86)\Microsoft Visual Studio\2019\Community\VC\Tools\MSVC\14.28.29333\include\type_traits

; 1455 :     return static_cast<remove_reference_t<_Ty>&&>(_Arg);

  000bd	8b 45 10	 mov	 eax, DWORD PTR __Left$[ebp]
  000c0	89 45 dc	 mov	 DWORD PTR $T20[ebp], eax
; File C:\Program Files (x86)\Microsoft Visual Studio\2019\Community\VC\Tools\MSVC\14.28.29333\include\utility

; 104  :     _Ty _Tmp = _STD move(_Left);

  000c3	8b 45 dc	 mov	 eax, DWORD PTR $T20[ebp]
  000c6	f3 0f 10 00	 movss	 xmm0, DWORD PTR [eax]
  000ca	f3 0f 11 45 84	 movss	 DWORD PTR __Tmp$1[ebp], xmm0
; File C:\Program Files (x86)\Microsoft Visual Studio\2019\Community\VC\Tools\MSVC\14.28.29333\include\type_traits

; 1455 :     return static_cast<remove_reference_t<_Ty>&&>(_Arg);

  000cf	8b 45 0c	 mov	 eax, DWORD PTR __Right$[ebp]
  000d2	89 45 d8	 mov	 DWORD PTR $T19[ebp], eax
; File C:\Program Files (x86)\Microsoft Visual Studio\2019\Community\VC\Tools\MSVC\14.28.29333\include\utility

; 105  :     _Left    = _STD move(_Right);

  000d5	8b 45 10	 mov	 eax, DWORD PTR __Left$[ebp]
  000d8	8b 4d d8	 mov	 ecx, DWORD PTR $T19[ebp]
  000db	8b 09		 mov	 ecx, DWORD PTR [ecx]
  000dd	89 08		 mov	 DWORD PTR [eax], ecx
; File C:\Program Files (x86)\Microsoft Visual Studio\2019\Community\VC\Tools\MSVC\14.28.29333\include\type_traits

; 1455 :     return static_cast<remove_reference_t<_Ty>&&>(_Arg);

  000df	8d 45 84	 lea	 eax, DWORD PTR __Tmp$1[ebp]
  000e2	89 45 88	 mov	 DWORD PTR $T2[ebp], eax
; File C:\Program Files (x86)\Microsoft Visual Studio\2019\Community\VC\Tools\MSVC\14.28.29333\include\utility

; 106  :     _Right   = _STD move(_Tmp);

  000e5	8b 45 0c	 mov	 eax, DWORD PTR __Right$[ebp]
  000e8	8b 4d 88	 mov	 ecx, DWORD PTR $T2[ebp]
  000eb	8b 09		 mov	 ecx, DWORD PTR [ecx]
  000ed	89 08		 mov	 DWORD PTR [eax], ecx
$LN29@DetectColl:
; File D:\Metin2 Server Files\mainline\SRC_2014\Metin2Client\GameLib\GameUtil.cpp

; 123  : 	if (mi1.z>mi2.z) std::swap(mi1.z,mi2.z);

  000ef	f3 0f 10 45 5c	 movss	 xmm0, DWORD PTR _mi1$[ebp+8]
  000f4	0f 2f 45 44	 comiss	 xmm0, DWORD PTR _mi2$[ebp+8]
  000f8	76 3e		 jbe	 SHORT $LN41@DetectColl
  000fa	8d 45 44	 lea	 eax, DWORD PTR _mi2$[ebp+8]
  000fd	89 45 04	 mov	 DWORD PTR __Right$[ebp], eax
  00100	8d 45 5c	 lea	 eax, DWORD PTR _mi1$[ebp+8]
  00103	89 45 08	 mov	 DWORD PTR __Left$[ebp], eax
; File C:\Program Files (x86)\Microsoft Visual Studio\2019\Community\VC\Tools\MSVC\14.28.29333\include\type_traits

; 1455 :     return static_cast<remove_reference_t<_Ty>&&>(_Arg);

  00106	8b 45 08	 mov	 eax, DWORD PTR __Left$[ebp]
  00109	89 45 8c	 mov	 DWORD PTR $T3[ebp], eax
; File C:\Program Files (x86)\Microsoft Visual Studio\2019\Community\VC\Tools\MSVC\14.28.29333\include\utility

; 104  :     _Ty _Tmp = _STD move(_Left);

  0010c	8b 45 8c	 mov	 eax, DWORD PTR $T3[ebp]
  0010f	f3 0f 10 00	 movss	 xmm0, DWORD PTR [eax]
  00113	f3 0f 11 45 98	 movss	 DWORD PTR __Tmp$6[ebp], xmm0
; File C:\Program Files (x86)\Microsoft Visual Studio\2019\Community\VC\Tools\MSVC\14.28.29333\include\type_traits

; 1455 :     return static_cast<remove_reference_t<_Ty>&&>(_Arg);

  00118	8b 45 04	 mov	 eax, DWORD PTR __Right$[ebp]
  0011b	89 45 90	 mov	 DWORD PTR $T4[ebp], eax
; File C:\Program Files (x86)\Microsoft Visual Studio\2019\Community\VC\Tools\MSVC\14.28.29333\include\utility

; 105  :     _Left    = _STD move(_Right);

  0011e	8b 45 08	 mov	 eax, DWORD PTR __Left$[ebp]
  00121	8b 4d 90	 mov	 ecx, DWORD PTR $T4[ebp]
  00124	8b 09		 mov	 ecx, DWORD PTR [ecx]
  00126	89 08		 mov	 DWORD PTR [eax], ecx
; File C:\Program Files (x86)\Microsoft Visual Studio\2019\Community\VC\Tools\MSVC\14.28.29333\include\type_traits

; 1455 :     return static_cast<remove_reference_t<_Ty>&&>(_Arg);

  00128	8d 45 98	 lea	 eax, DWORD PTR __Tmp$6[ebp]
  0012b	89 45 a8	 mov	 DWORD PTR $T7[ebp], eax
; File C:\Program Files (x86)\Microsoft Visual Studio\2019\Community\VC\Tools\MSVC\14.28.29333\include\utility

; 106  :     _Right   = _STD move(_Tmp);

  0012e	8b 45 04	 mov	 eax, DWORD PTR __Right$[ebp]
  00131	8b 4d a8	 mov	 ecx, DWORD PTR $T7[ebp]
  00134	8b 09		 mov	 ecx, DWORD PTR [ecx]
  00136	89 08		 mov	 DWORD PTR [eax], ecx
$LN41@DetectColl:
; File D:\Metin2 Server Files\mainline\SRC_2014\Metin2Client\GameLib\GameUtil.cpp

; 124  : 	if (mi3.x>mi4.x) std::swap(mi3.x,mi4.x);

  00138	f3 0f 10 45 60	 movss	 xmm0, DWORD PTR _mi3$[ebp]
  0013d	0f 2f 45 48	 comiss	 xmm0, DWORD PTR _mi4$[ebp]
  00141	76 36		 jbe	 SHORT $LN53@DetectColl
; File C:\Program Files (x86)\Microsoft Visual Studio\2019\Community\VC\Tools\MSVC\14.28.29333\include\type_traits

; 1455 :     return static_cast<remove_reference_t<_Ty>&&>(_Arg);

  00143	8d 45 60	 lea	 eax, DWORD PTR _mi3$[ebp]
  00146	89 45 94	 mov	 DWORD PTR $T5[ebp], eax
; File C:\Program Files (x86)\Microsoft Visual Studio\2019\Community\VC\Tools\MSVC\14.28.29333\include\utility

; 104  :     _Ty _Tmp = _STD move(_Left);

  00149	8b 45 94	 mov	 eax, DWORD PTR $T5[ebp]
  0014c	f3 0f 10 00	 movss	 xmm0, DWORD PTR [eax]
  00150	f3 0f 11 45 d0	 movss	 DWORD PTR __Tmp$17[ebp], xmm0
; File C:\Program Files (x86)\Microsoft Visual Studio\2019\Community\VC\Tools\MSVC\14.28.29333\include\type_traits

; 1455 :     return static_cast<remove_reference_t<_Ty>&&>(_Arg);

  00155	8d 45 48	 lea	 eax, DWORD PTR _mi4$[ebp]
  00158	89 45 d4	 mov	 DWORD PTR $T18[ebp], eax
; File C:\Program Files (x86)\Microsoft Visual Studio\2019\Community\VC\Tools\MSVC\14.28.29333\include\utility

; 105  :     _Left    = _STD move(_Right);

  0015b	8b 45 d4	 mov	 eax, DWORD PTR $T18[ebp]
  0015e	f3 0f 10 00	 movss	 xmm0, DWORD PTR [eax]
  00162	f3 0f 11 45 60	 movss	 DWORD PTR _mi3$[ebp], xmm0
; File C:\Program Files (x86)\Microsoft Visual Studio\2019\Community\VC\Tools\MSVC\14.28.29333\include\type_traits

; 1455 :     return static_cast<remove_reference_t<_Ty>&&>(_Arg);

  00167	8d 45 d0	 lea	 eax, DWORD PTR __Tmp$17[ebp]
  0016a	89 45 cc	 mov	 DWORD PTR $T16[ebp], eax
; File C:\Program Files (x86)\Microsoft Visual Studio\2019\Community\VC\Tools\MSVC\14.28.29333\include\utility

; 106  :     _Right   = _STD move(_Tmp);

  0016d	8b 45 cc	 mov	 eax, DWORD PTR $T16[ebp]
  00170	f3 0f 10 00	 movss	 xmm0, DWORD PTR [eax]
  00174	f3 0f 11 45 48	 movss	 DWORD PTR _mi4$[ebp], xmm0
$LN53@DetectColl:
; File D:\Metin2 Server Files\mainline\SRC_2014\Metin2Client\GameLib\GameUtil.cpp

; 125  : 	if (mi3.y>mi4.y) std::swap(mi3.y,mi4.y);

  00179	f3 0f 10 45 64	 movss	 xmm0, DWORD PTR _mi3$[ebp+4]
  0017e	0f 2f 45 4c	 comiss	 xmm0, DWORD PTR _mi4$[ebp+4]
  00182	76 3e		 jbe	 SHORT $LN65@DetectColl
  00184	8d 45 4c	 lea	 eax, DWORD PTR _mi4$[ebp+4]
  00187	89 45 00	 mov	 DWORD PTR __Right$[ebp], eax
  0018a	8d 45 64	 lea	 eax, DWORD PTR _mi3$[ebp+4]
  0018d	89 45 f0	 mov	 DWORD PTR __Left$[ebp], eax
; File C:\Program Files (x86)\Microsoft Visual Studio\2019\Community\VC\Tools\MSVC\14.28.29333\include\type_traits

; 1455 :     return static_cast<remove_reference_t<_Ty>&&>(_Arg);

  00190	8b 45 f0	 mov	 eax, DWORD PTR __Left$[ebp]
  00193	89 45 c8	 mov	 DWORD PTR $T15[ebp], eax
; File C:\Program Files (x86)\Microsoft Visual Studio\2019\Community\VC\Tools\MSVC\14.28.29333\include\utility

; 104  :     _Ty _Tmp = _STD move(_Left);

  00196	8b 45 c8	 mov	 eax, DWORD PTR $T15[ebp]
  00199	f3 0f 10 00	 movss	 xmm0, DWORD PTR [eax]
  0019d	f3 0f 11 45 c0	 movss	 DWORD PTR __Tmp$13[ebp], xmm0
; File C:\Program Files (x86)\Microsoft Visual Studio\2019\Community\VC\Tools\MSVC\14.28.29333\include\type_traits

; 1455 :     return static_cast<remove_reference_t<_Ty>&&>(_Arg);

  001a2	8b 45 00	 mov	 eax, DWORD PTR __Right$[ebp]
  001a5	89 45 c4	 mov	 DWORD PTR $T14[ebp], eax
; File C:\Program Files (x86)\Microsoft Visual Studio\2019\Community\VC\Tools\MSVC\14.28.29333\include\utility

; 105  :     _Left    = _STD move(_Right);

  001a8	8b 45 f0	 mov	 eax, DWORD PTR __Left$[ebp]
  001ab	8b 4d c4	 mov	 ecx, DWORD PTR $T14[ebp]
  001ae	8b 09		 mov	 ecx, DWORD PTR [ecx]
  001b0	89 08		 mov	 DWORD PTR [eax], ecx
; File C:\Program Files (x86)\Microsoft Visual Studio\2019\Community\VC\Tools\MSVC\14.28.29333\include\type_traits

; 1455 :     return static_cast<remove_reference_t<_Ty>&&>(_Arg);

  001b2	8d 45 c0	 lea	 eax, DWORD PTR __Tmp$13[ebp]
  001b5	89 45 bc	 mov	 DWORD PTR $T12[ebp], eax
; File C:\Program Files (x86)\Microsoft Visual Studio\2019\Community\VC\Tools\MSVC\14.28.29333\include\utility

; 106  :     _Right   = _STD move(_Tmp);

  001b8	8b 45 00	 mov	 eax, DWORD PTR __Right$[ebp]
  001bb	8b 4d bc	 mov	 ecx, DWORD PTR $T12[ebp]
  001be	8b 09		 mov	 ecx, DWORD PTR [ecx]
  001c0	89 08		 mov	 DWORD PTR [eax], ecx
$LN65@DetectColl:
; File D:\Metin2 Server Files\mainline\SRC_2014\Metin2Client\GameLib\GameUtil.cpp

; 126  : 	if (mi3.z>mi4.z) std::swap(mi3.z,mi4.z);

  001c2	f3 0f 10 45 68	 movss	 xmm0, DWORD PTR _mi3$[ebp+8]
  001c7	0f 2f 45 50	 comiss	 xmm0, DWORD PTR _mi4$[ebp+8]
  001cb	76 3e		 jbe	 SHORT $LN77@DetectColl
  001cd	8d 45 50	 lea	 eax, DWORD PTR _mi4$[ebp+8]
  001d0	89 45 f8	 mov	 DWORD PTR __Right$[ebp], eax
  001d3	8d 45 68	 lea	 eax, DWORD PTR _mi3$[ebp+8]
  001d6	89 45 fc	 mov	 DWORD PTR __Left$[ebp], eax
; File C:\Program Files (x86)\Microsoft Visual Studio\2019\Community\VC\Tools\MSVC\14.28.29333\include\type_traits

; 1455 :     return static_cast<remove_reference_t<_Ty>&&>(_Arg);

  001d9	8b 45 fc	 mov	 eax, DWORD PTR __Left$[ebp]
  001dc	89 45 b8	 mov	 DWORD PTR $T11[ebp], eax
; File C:\Program Files (x86)\Microsoft Visual Studio\2019\Community\VC\Tools\MSVC\14.28.29333\include\utility

; 104  :     _Ty _Tmp = _STD move(_Left);

  001df	8b 45 b8	 mov	 eax, DWORD PTR $T11[ebp]
  001e2	f3 0f 10 00	 movss	 xmm0, DWORD PTR [eax]
  001e6	f3 0f 11 45 b0	 movss	 DWORD PTR __Tmp$9[ebp], xmm0
; File C:\Program Files (x86)\Microsoft Visual Studio\2019\Community\VC\Tools\MSVC\14.28.29333\include\type_traits

; 1455 :     return static_cast<remove_reference_t<_Ty>&&>(_Arg);

  001eb	8b 45 f8	 mov	 eax, DWORD PTR __Right$[ebp]
  001ee	89 45 b4	 mov	 DWORD PTR $T10[ebp], eax
; File C:\Program Files (x86)\Microsoft Visual Studio\2019\Community\VC\Tools\MSVC\14.28.29333\include\utility

; 105  :     _Left    = _STD move(_Right);

  001f1	8b 45 fc	 mov	 eax, DWORD PTR __Left$[ebp]
  001f4	8b 4d b4	 mov	 ecx, DWORD PTR $T10[ebp]
  001f7	8b 09		 mov	 ecx, DWORD PTR [ecx]
  001f9	89 08		 mov	 DWORD PTR [eax], ecx
; File C:\Program Files (x86)\Microsoft Visual Studio\2019\Community\VC\Tools\MSVC\14.28.29333\include\type_traits

; 1455 :     return static_cast<remove_reference_t<_Ty>&&>(_Arg);

  001fb	8d 45 b0	 lea	 eax, DWORD PTR __Tmp$9[ebp]
  001fe	89 45 ac	 mov	 DWORD PTR $T8[ebp], eax
; File C:\Program Files (x86)\Microsoft Visual Studio\2019\Community\VC\Tools\MSVC\14.28.29333\include\utility

; 106  :     _Right   = _STD move(_Tmp);

  00201	8b 45 f8	 mov	 eax, DWORD PTR __Right$[ebp]
  00204	8b 4d ac	 mov	 ecx, DWORD PTR $T8[ebp]
  00207	8b 09		 mov	 ecx, DWORD PTR [ecx]
  00209	89 08		 mov	 DWORD PTR [eax], ecx
$LN77@DetectColl:
; File D:\Metin2 Server Files\mainline\SRC_2014\Metin2Client\GameLib\GameUtil.cpp

; 127  : 	mi1.x -= c_rSphere1.fRadius; mi1.y -= c_rSphere1.fRadius; mi1.z -= c_rSphere1.fRadius;

  0020b	8b 45 78	 mov	 eax, DWORD PTR _c_rSphere1$[ebp]
  0020e	f3 0f 10 45 54	 movss	 xmm0, DWORD PTR _mi1$[ebp]
  00213	f3 0f 5c 40 18	 subss	 xmm0, DWORD PTR [eax+24]
  00218	f3 0f 11 45 54	 movss	 DWORD PTR _mi1$[ebp], xmm0
  0021d	8b 45 78	 mov	 eax, DWORD PTR _c_rSphere1$[ebp]
  00220	f3 0f 10 45 58	 movss	 xmm0, DWORD PTR _mi1$[ebp+4]
  00225	f3 0f 5c 40 18	 subss	 xmm0, DWORD PTR [eax+24]
  0022a	f3 0f 11 45 58	 movss	 DWORD PTR _mi1$[ebp+4], xmm0
  0022f	8b 45 78	 mov	 eax, DWORD PTR _c_rSphere1$[ebp]
  00232	f3 0f 10 45 5c	 movss	 xmm0, DWORD PTR _mi1$[ebp+8]
  00237	f3 0f 5c 40 18	 subss	 xmm0, DWORD PTR [eax+24]
  0023c	f3 0f 11 45 5c	 movss	 DWORD PTR _mi1$[ebp+8], xmm0

; 128  : 	mi2.x += c_rSphere1.fRadius; mi2.y += c_rSphere1.fRadius; mi2.z += c_rSphere1.fRadius;

  00241	8b 45 78	 mov	 eax, DWORD PTR _c_rSphere1$[ebp]
  00244	f3 0f 10 45 3c	 movss	 xmm0, DWORD PTR _mi2$[ebp]
  00249	f3 0f 58 40 18	 addss	 xmm0, DWORD PTR [eax+24]
  0024e	f3 0f 11 45 3c	 movss	 DWORD PTR _mi2$[ebp], xmm0
  00253	8b 45 78	 mov	 eax, DWORD PTR _c_rSphere1$[ebp]
  00256	f3 0f 10 45 40	 movss	 xmm0, DWORD PTR _mi2$[ebp+4]
  0025b	f3 0f 58 40 18	 addss	 xmm0, DWORD PTR [eax+24]
  00260	f3 0f 11 45 40	 movss	 DWORD PTR _mi2$[ebp+4], xmm0
  00265	8b 45 78	 mov	 eax, DWORD PTR _c_rSphere1$[ebp]
  00268	f3 0f 10 45 44	 movss	 xmm0, DWORD PTR _mi2$[ebp+8]
  0026d	f3 0f 58 40 18	 addss	 xmm0, DWORD PTR [eax+24]
  00272	f3 0f 11 45 44	 movss	 DWORD PTR _mi2$[ebp+8], xmm0

; 129  : 	mi3.x -= c_rSphere2.fRadius; mi3.y -= c_rSphere2.fRadius; mi3.z -= c_rSphere2.fRadius;

  00277	8b 45 7c	 mov	 eax, DWORD PTR _c_rSphere2$[ebp]
  0027a	f3 0f 10 45 60	 movss	 xmm0, DWORD PTR _mi3$[ebp]
  0027f	f3 0f 5c 40 18	 subss	 xmm0, DWORD PTR [eax+24]
  00284	f3 0f 11 45 60	 movss	 DWORD PTR _mi3$[ebp], xmm0
  00289	8b 45 7c	 mov	 eax, DWORD PTR _c_rSphere2$[ebp]
  0028c	f3 0f 10 45 64	 movss	 xmm0, DWORD PTR _mi3$[ebp+4]
  00291	f3 0f 5c 40 18	 subss	 xmm0, DWORD PTR [eax+24]
  00296	f3 0f 11 45 64	 movss	 DWORD PTR _mi3$[ebp+4], xmm0
  0029b	8b 45 7c	 mov	 eax, DWORD PTR _c_rSphere2$[ebp]
  0029e	f3 0f 10 45 68	 movss	 xmm0, DWORD PTR _mi3$[ebp+8]
  002a3	f3 0f 5c 40 18	 subss	 xmm0, DWORD PTR [eax+24]
  002a8	f3 0f 11 45 68	 movss	 DWORD PTR _mi3$[ebp+8], xmm0

; 130  : 	mi4.x += c_rSphere2.fRadius; mi4.y += c_rSphere2.fRadius; mi4.z += c_rSphere2.fRadius;

  002ad	8b 45 7c	 mov	 eax, DWORD PTR _c_rSphere2$[ebp]
  002b0	f3 0f 10 45 48	 movss	 xmm0, DWORD PTR _mi4$[ebp]
  002b5	f3 0f 58 40 18	 addss	 xmm0, DWORD PTR [eax+24]
  002ba	f3 0f 11 45 48	 movss	 DWORD PTR _mi4$[ebp], xmm0
  002bf	8b 45 7c	 mov	 eax, DWORD PTR _c_rSphere2$[ebp]
  002c2	f3 0f 10 45 4c	 movss	 xmm0, DWORD PTR _mi4$[ebp+4]
  002c7	f3 0f 58 40 18	 addss	 xmm0, DWORD PTR [eax+24]
  002cc	f3 0f 11 45 4c	 movss	 DWORD PTR _mi4$[ebp+4], xmm0
  002d1	8b 45 7c	 mov	 eax, DWORD PTR _c_rSphere2$[ebp]
  002d4	f3 0f 10 45 50	 movss	 xmm0, DWORD PTR _mi4$[ebp+8]
  002d9	f3 0f 58 40 18	 addss	 xmm0, DWORD PTR [eax+24]
  002de	f3 0f 11 45 50	 movss	 DWORD PTR _mi4$[ebp+8], xmm0

; 131  : 	if (mi4.x<mi1.x || mi2.x<mi3.x) return false;

  002e3	f3 0f 10 45 54	 movss	 xmm0, DWORD PTR _mi1$[ebp]
  002e8	0f 2f 45 48	 comiss	 xmm0, DWORD PTR _mi4$[ebp]
  002ec	77 0b		 ja	 SHORT $LN9@DetectColl
  002ee	f3 0f 10 45 60	 movss	 xmm0, DWORD PTR _mi3$[ebp]
  002f3	0f 2f 45 3c	 comiss	 xmm0, DWORD PTR _mi2$[ebp]
  002f7	76 07		 jbe	 SHORT $LN8@DetectColl
$LN9@DetectColl:
  002f9	32 c0		 xor	 al, al
  002fb	e9 e9 00 00 00	 jmp	 $LN1@DetectColl
$LN8@DetectColl:

; 132  : 	if (mi4.y<mi1.y || mi2.y<mi3.y) return false;

  00300	f3 0f 10 45 58	 movss	 xmm0, DWORD PTR _mi1$[ebp+4]
  00305	0f 2f 45 4c	 comiss	 xmm0, DWORD PTR _mi4$[ebp+4]
  00309	77 0b		 ja	 SHORT $LN11@DetectColl
  0030b	f3 0f 10 45 64	 movss	 xmm0, DWORD PTR _mi3$[ebp+4]
  00310	0f 2f 45 40	 comiss	 xmm0, DWORD PTR _mi2$[ebp+4]
  00314	76 07		 jbe	 SHORT $LN10@DetectColl
$LN11@DetectColl:
  00316	32 c0		 xor	 al, al
  00318	e9 cc 00 00 00	 jmp	 $LN1@DetectColl
$LN10@DetectColl:

; 133  : 	if (mi4.z<mi1.z || mi2.z<mi3.z) return false;

  0031d	f3 0f 10 45 5c	 movss	 xmm0, DWORD PTR _mi1$[ebp+8]
  00322	0f 2f 45 50	 comiss	 xmm0, DWORD PTR _mi4$[ebp+8]
  00326	77 0b		 ja	 SHORT $LN13@DetectColl
  00328	f3 0f 10 45 68	 movss	 xmm0, DWORD PTR _mi3$[ebp+8]
  0032d	0f 2f 45 44	 comiss	 xmm0, DWORD PTR _mi2$[ebp+8]
  00331	76 07		 jbe	 SHORT $LN12@DetectColl
$LN13@DetectColl:
  00333	32 c0		 xor	 al, al
  00335	e9 af 00 00 00	 jmp	 $LN1@DetectColl
$LN12@DetectColl:

; 134  : 	
; 135  : 	D3DXVECTOR3 vA, vB;/*
; 136  : 	IntersectLineSegments(
; 137  : 		c_rSphere1.v3LastPosition.x,c_rSphere1.v3LastPosition.y,c_rSphere1.v3LastPosition.z,
; 138  : 		c_rSphere1.v3Position.x,	c_rSphere1.v3Position.y,	c_rSphere1.v3Position.z,
; 139  : 		c_rSphere2.v3LastPosition.x,c_rSphere2.v3LastPosition.y,c_rSphere2.v3LastPosition.z,
; 140  : 		c_rSphere2.v3Position.x,	c_rSphere2.v3Position.y,	c_rSphere2.v3Position.z,
; 141  : 		false, 1.e-1f, vA.x, vA.y, vA.z, vB.x, vB.y, vB.z);*/
; 142  : 	IntersectLineSegments(c_rSphere1.v3LastPosition, c_rSphere1.v3Position,

  0033a	8d 45 18	 lea	 eax, DWORD PTR _vB$[ebp]
  0033d	50		 push	 eax
  0033e	8d 45 24	 lea	 eax, DWORD PTR _vA$[ebp]
  00341	50		 push	 eax
  00342	ff 75 7c	 push	 DWORD PTR _c_rSphere2$[ebp]
  00345	8b 45 7c	 mov	 eax, DWORD PTR _c_rSphere2$[ebp]
  00348	83 c0 0c	 add	 eax, 12			; 0000000cH
  0034b	50		 push	 eax
  0034c	ff 75 78	 push	 DWORD PTR _c_rSphere1$[ebp]
  0034f	8b 45 78	 mov	 eax, DWORD PTR _c_rSphere1$[ebp]
  00352	83 c0 0c	 add	 eax, 12			; 0000000cH
  00355	50		 push	 eax
  00356	e8 00 00 00 00	 call	 ?IntersectLineSegments@@YAXABUD3DXVECTOR3@@000AAU1@1@Z ; IntersectLineSegments
  0035b	83 c4 18	 add	 esp, 24			; 00000018H
; File D:\Metin2 Server Files\mainline\SRC_2014\M2Data\include\d3dx8math.inl

; 263  :     return D3DXVECTOR3(x - v.x, y - v.y, z - v.z);

  0035e	f3 0f 10 45 24	 movss	 xmm0, DWORD PTR _vA$[ebp]
  00363	f3 0f 5c 45 18	 subss	 xmm0, DWORD PTR _vB$[ebp]
  00368	f3 0f 11 45 80	 movss	 DWORD PTR _fx$[ebp], xmm0
  0036d	f3 0f 10 45 28	 movss	 xmm0, DWORD PTR _vA$[ebp+4]
  00372	f3 0f 5c 45 1c	 subss	 xmm0, DWORD PTR _vB$[ebp+4]
  00377	f3 0f 11 45 a4	 movss	 DWORD PTR _fy$[ebp], xmm0
  0037c	f3 0f 10 45 2c	 movss	 xmm0, DWORD PTR _vA$[ebp+8]
  00381	f3 0f 5c 45 20	 subss	 xmm0, DWORD PTR _vB$[ebp+8]
  00386	f3 0f 11 45 a0	 movss	 DWORD PTR _fz$[ebp], xmm0

; 180  :     x = fx;

  0038b	f3 0f 10 45 80	 movss	 xmm0, DWORD PTR _fx$[ebp]
  00390	f3 0f 11 45 30	 movss	 DWORD PTR $T25[ebp], xmm0

; 181  :     y = fy;

  00395	f3 0f 10 45 a4	 movss	 xmm0, DWORD PTR _fy$[ebp]
  0039a	f3 0f 11 45 34	 movss	 DWORD PTR $T25[ebp+4], xmm0

; 182  :     z = fz;

  0039f	f3 0f 10 45 a0	 movss	 xmm0, DWORD PTR _fz$[ebp]
  003a4	f3 0f 11 45 38	 movss	 DWORD PTR $T25[ebp+8], xmm0

; 1253 :     return pV->x * pV->x + pV->y * pV->y + pV->z * pV->z;

  003a9	f3 0f 10 45 38	 movss	 xmm0, DWORD PTR $T25[ebp+8]
  003ae	f3 0f 59 45 38	 mulss	 xmm0, DWORD PTR $T25[ebp+8]
  003b3	f3 0f 10 4d 34	 movss	 xmm1, DWORD PTR $T25[ebp+4]
  003b8	f3 0f 59 4d 34	 mulss	 xmm1, DWORD PTR $T25[ebp+4]
  003bd	f3 0f 10 55 30	 movss	 xmm2, DWORD PTR $T25[ebp]
  003c2	f3 0f 59 55 30	 mulss	 xmm2, DWORD PTR $T25[ebp]
  003c7	f3 0f 58 d1	 addss	 xmm2, xmm1
  003cb	f3 0f 58 d0	 addss	 xmm2, xmm0
; File D:\Metin2 Server Files\mainline\SRC_2014\Metin2Client\GameLib\GameUtil.cpp

; 145  : 	return (D3DXVec3LengthSq(&(vA-vB))<=rsq);

  003cf	f3 0f 10 45 9c	 movss	 xmm0, DWORD PTR _rsq$[ebp]
  003d4	0f 2f c2	 comiss	 xmm0, xmm2
  003d7	72 09		 jb	 SHORT $LN15@DetectColl
  003d9	c7 45 f4 01 00
	00 00		 mov	 DWORD PTR tv423[ebp], 1
  003e0	eb 04		 jmp	 SHORT $LN16@DetectColl
$LN15@DetectColl:
  003e2	83 65 f4 00	 and	 DWORD PTR tv423[ebp], 0
$LN16@DetectColl:
  003e6	8a 45 f4	 mov	 al, BYTE PTR tv423[ebp]
$LN1@DetectColl:

; 146  : 	//*/
; 147  : 
; 148  : 	/*
; 149  : 	// NOTE : AABB 체크 할 것
; 150  : 	///////////////////////////////////////////////////////////////////////////////////////////////
; 151  : 	D3DXVECTOR3 v3Distance = c_rSphere1.v3Position - c_rSphere2.v3Position;
; 152  : 	float fDistance = D3DXVec3Length(&v3Distance);
; 153  : 	float fRadiusSummary = c_rSphere1.fRadius + c_rSphere2.fRadius;
; 154  : 
; 155  : 	if (fDistance < fRadiusSummary)
; 156  : 		return true;
; 157  : 
; 158  : 	///////////////////////////////////////////////////////////////////////////////////////////////
; 159  : 	D3DXVECTOR3 v3LastDistance = c_rSphere1.v3LastPosition - c_rSphere2.v3LastPosition; // A
; 160  : 	D3DXVECTOR3 v3Advance = c_rSphere1.v3Advance - c_rSphere2.v3Advance;                // B
; 161  : 
; 162  : 	float fdotAdvanceAdvance = D3DXVec3Dot(&v3Advance, &v3Advance);
; 163  : 	if (0.0f == fdotAdvanceAdvance)
; 164  : 		return false;
; 165  : 
; 166  : 	float fdotDistanceAdvance = D3DXVec3Dot(&v3LastDistance, &v3Advance);
; 167  : 	float fdotDistanceDistance = D3DXVec3Dot(&v3LastDistance, &v3LastDistance);
; 168  : 	float Value1 = fdotDistanceAdvance - fdotAdvanceAdvance * (fdotDistanceDistance - (fRadiusSummary * fRadiusSummary));
; 169  : 	if (Value1 < 0.0f)
; 170  : 		return false;
; 171  : 
; 172  : 	float Value2 = (-fdotDistanceAdvance - sqrtf(Value1)) / fdotAdvanceAdvance;
; 173  : 	if (Value2 < 0.0f)
; 174  : 		return false;
; 175  : 	if (Value2 >= 1.0f)
; 176  : 		return false;
; 177  : 
; 178  : 	return true;*/
; 179  : }

  003e9	5f		 pop	 edi
  003ea	5e		 pop	 esi
  003eb	8b 4d 6c	 mov	 ecx, DWORD PTR __$ArrayPad$[ebp]
  003ee	33 cd		 xor	 ecx, ebp
  003f0	e8 00 00 00 00	 call	 @__security_check_cookie@4
  003f5	83 c5 70	 add	 ebp, 112		; 00000070H
  003f8	c9		 leave
  003f9	c3		 ret	 0
?DetectCollisionDynamicSphereVSDynamicSphere@@YA_NABUCDynamicSphereInstance@@0@Z ENDP ; DetectCollisionDynamicSphereVSDynamicSphere
_TEXT	ENDS
END
