; Listing generated by Microsoft (R) Optimizing Compiler Version 19.28.29335.0 

	TITLE	D:\Metin2 Server Files\mainline\SRC_2014\Metin2Client\GameLib\ItemData.cpp
	.686P
	.XMM
	include listing.inc
	.model	flat

INCLUDELIB LIBCMT
INCLUDELIB OLDNAMES

PUBLIC	??0exception@std@@QAE@ABV01@@Z			; std::exception::exception
PUBLIC	?what@exception@std@@UBEPBDXZ			; std::exception::what
PUBLIC	??_Gexception@std@@UAEPAXI@Z			; std::exception::`scalar deleting destructor'
PUBLIC	??0bad_alloc@std@@QAE@ABV01@@Z			; std::bad_alloc::bad_alloc
PUBLIC	??_Gbad_alloc@std@@UAEPAXI@Z			; std::bad_alloc::`scalar deleting destructor'
PUBLIC	??0bad_array_new_length@std@@QAE@XZ		; std::bad_array_new_length::bad_array_new_length
PUBLIC	??1bad_array_new_length@std@@UAE@XZ		; std::bad_array_new_length::~bad_array_new_length
PUBLIC	??0bad_array_new_length@std@@QAE@ABV01@@Z	; std::bad_array_new_length::bad_array_new_length
PUBLIC	??_Gbad_array_new_length@std@@UAEPAXI@Z		; std::bad_array_new_length::`scalar deleting destructor'
PUBLIC	?_Throw_bad_array_new_length@std@@YAXXZ		; std::_Throw_bad_array_new_length
PUBLIC	?_Adjust_manually_vector_aligned@std@@YAXAAPAXAAI@Z ; std::_Adjust_manually_vector_aligned
PUBLIC	?_Xlen_string@std@@YAXXZ			; std::_Xlen_string
PUBLIC	??0?$_String_val@U?$_Simple_types@D@std@@@std@@QAE@XZ ; std::_String_val<std::_Simple_types<char> >::_String_val<std::_Simple_types<char> >
PUBLIC	?_Myptr@?$_String_val@U?$_Simple_types@D@std@@@std@@QAEPADXZ ; std::_String_val<std::_Simple_types<char> >::_Myptr
PUBLIC	?_Myptr@?$_String_val@U?$_Simple_types@D@std@@@std@@QBEPBDXZ ; std::_String_val<std::_Simple_types<char> >::_Myptr
PUBLIC	??1?$basic_string@DU?$char_traits@D@std@@V?$allocator@D@2@@std@@QAE@XZ ; std::basic_string<char,std::char_traits<char>,std::allocator<char> >::~basic_string<char,std::char_traits<char>,std::allocator<char> >
PUBLIC	?_Copy_assign@?$basic_string@DU?$char_traits@D@std@@V?$allocator@D@2@@std@@AAEXABV12@U?$integral_constant@_N$0A@@2@@Z ; std::basic_string<char,std::char_traits<char>,std::allocator<char> >::_Copy_assign
PUBLIC	?assign@?$basic_string@DU?$char_traits@D@std@@V?$allocator@D@2@@std@@QAEAAV12@QBDI@Z ; std::basic_string<char,std::char_traits<char>,std::allocator<char> >::assign
PUBLIC	?c_str@?$basic_string@DU?$char_traits@D@std@@V?$allocator@D@2@@std@@QBEPBDXZ ; std::basic_string<char,std::char_traits<char>,std::allocator<char> >::c_str
PUBLIC	?max_size@?$basic_string@DU?$char_traits@D@std@@V?$allocator@D@2@@std@@QBEIXZ ; std::basic_string<char,std::char_traits<char>,std::allocator<char> >::max_size
PUBLIC	?_Calculate_growth@?$basic_string@DU?$char_traits@D@std@@V?$allocator@D@2@@std@@ABEII@Z ; std::basic_string<char,std::char_traits<char>,std::allocator<char> >::_Calculate_growth
PUBLIC	?_Tidy_init@?$basic_string@DU?$char_traits@D@std@@V?$allocator@D@2@@std@@AAEXXZ ; std::basic_string<char,std::char_traits<char>,std::allocator<char> >::_Tidy_init
PUBLIC	?_Tidy_deallocate@?$basic_string@DU?$char_traits@D@std@@V?$allocator@D@2@@std@@AAEXXZ ; std::basic_string<char,std::char_traits<char>,std::allocator<char> >::_Tidy_deallocate
PUBLIC	??1?$vector@V?$basic_string@DU?$char_traits@D@std@@V?$allocator@D@2@@std@@V?$allocator@V?$basic_string@DU?$char_traits@D@std@@V?$allocator@D@2@@std@@@2@@std@@QAE@XZ ; std::vector<std::basic_string<char,std::char_traits<char>,std::allocator<char> >,std::allocator<std::basic_string<char,std::char_traits<char>,std::allocator<char> > > >::~vector<std::basic_string<char,std::char_traits<char>,std::allocator<char> >,std::allocator<std::basic_string<char,std::char_traits<char>,std::allocator<char> > > >
PUBLIC	?clear@?$vector@V?$basic_string@DU?$char_traits@D@std@@V?$allocator@D@2@@std@@V?$allocator@V?$basic_string@DU?$char_traits@D@std@@V?$allocator@D@2@@std@@@2@@std@@QAEXXZ ; std::vector<std::basic_string<char,std::char_traits<char>,std::allocator<char> >,std::allocator<std::basic_string<char,std::char_traits<char>,std::allocator<char> > > >::clear
PUBLIC	?_Tidy@?$vector@V?$basic_string@DU?$char_traits@D@std@@V?$allocator@D@2@@std@@V?$allocator@V?$basic_string@DU?$char_traits@D@std@@V?$allocator@D@2@@std@@@2@@std@@AAEXXZ ; std::vector<std::basic_string<char,std::char_traits<char>,std::allocator<char> >,std::allocator<std::basic_string<char,std::char_traits<char>,std::allocator<char> > > >::_Tidy
PUBLIC	??0?$_Vector_val@U?$_Simple_types@V?$basic_string@DU?$char_traits@D@std@@V?$allocator@D@2@@std@@@std@@@std@@QAE@XZ ; std::_Vector_val<std::_Simple_types<std::basic_string<char,std::char_traits<char>,std::allocator<char> > > >::_Vector_val<std::_Simple_types<std::basic_string<char,std::char_traits<char>,std::allocator<char> > > >
PUBLIC	??$_Destroy_in_place@PAD@std@@YAXAAPAD@Z	; std::_Destroy_in_place<char *>
PUBLIC	??$_Reallocate_for@V<lambda_9366063389c5f42a00a5088cf24e69de>@@PBD@?$basic_string@DU?$char_traits@D@std@@V?$allocator@D@2@@std@@AAEAAV01@IV<lambda_9366063389c5f42a00a5088cf24e69de>@@PBD@Z ; std::basic_string<char,std::char_traits<char>,std::allocator<char> >::_Reallocate_for<<lambda_9366063389c5f42a00a5088cf24e69de>,char const *>
PUBLIC	??$_Construct_in_place@PADABQAD@std@@YAXAAPADABQAD@Z ; std::_Construct_in_place<char *,char * const &>
PUBLIC	??$_Deallocate@$07$0A@@std@@YAXPAXI@Z		; std::_Deallocate<8,0>
PUBLIC	??$_Allocate@$07U_Default_allocate_traits@std@@$0A@@std@@YAPAXI@Z ; std::_Allocate<8,std::_Default_allocate_traits,0>
PUBLIC	??$_Allocate_manually_vector_aligned@U_Default_allocate_traits@std@@@std@@YAPAXI@Z ; std::_Allocate_manually_vector_aligned<std::_Default_allocate_traits>
PUBLIC	??0CItemData@@QAE@XZ				; CItemData::CItemData
PUBLIC	??1CItemData@@UAE@XZ				; CItemData::~CItemData
PUBLIC	?Clear@CItemData@@QAEXXZ			; CItemData::Clear
PUBLIC	?SetSummary@CItemData@@QAEXABV?$basic_string@DU?$char_traits@D@std@@V?$allocator@D@2@@std@@@Z ; CItemData::SetSummary
PUBLIC	?SetDescription@CItemData@@QAEXABV?$basic_string@DU?$char_traits@D@std@@V?$allocator@D@2@@std@@@Z ; CItemData::SetDescription
PUBLIC	?GetModelThing@CItemData@@QAEPAVCGraphicThing@@XZ ; CItemData::GetModelThing
PUBLIC	?GetSubModelThing@CItemData@@QAEPAVCGraphicThing@@XZ ; CItemData::GetSubModelThing
PUBLIC	?GetDropModelThing@CItemData@@QAEPAVCGraphicThing@@XZ ; CItemData::GetDropModelThing
PUBLIC	?GetIconImage@CItemData@@QAEPAVCGraphicSubImage@@XZ ; CItemData::GetIconImage
PUBLIC	?GetLODModelThingCount@CItemData@@QAEKXZ	; CItemData::GetLODModelThingCount
PUBLIC	?GetLODModelThingPointer@CItemData@@QAEHKPAPAVCGraphicThing@@@Z ; CItemData::GetLODModelThingPointer
PUBLIC	?GetAttachingDataCount@CItemData@@QAEKXZ	; CItemData::GetAttachingDataCount
PUBLIC	?GetCollisionDataPointer@CItemData@@QAEHKPAPBUSAttachingData@NRaceData@@@Z ; CItemData::GetCollisionDataPointer
PUBLIC	?GetAttachingDataPointer@CItemData@@QAEHKPAPBUSAttachingData@NRaceData@@@Z ; CItemData::GetAttachingDataPointer
PUBLIC	?GetTable@CItemData@@QBEPBUSItemTable@1@XZ	; CItemData::GetTable
PUBLIC	?GetIndex@CItemData@@QBEKXZ			; CItemData::GetIndex
PUBLIC	?GetName@CItemData@@QBEPBDXZ			; CItemData::GetName
PUBLIC	?GetDescription@CItemData@@QBEPBDXZ		; CItemData::GetDescription
PUBLIC	?GetSummary@CItemData@@QBEPBDXZ			; CItemData::GetSummary
PUBLIC	?GetType@CItemData@@QBEEXZ			; CItemData::GetType
PUBLIC	?GetSubType@CItemData@@QBEEXZ			; CItemData::GetSubType
PUBLIC	?GetRefine@CItemData@@QBEIXZ			; CItemData::GetRefine
PUBLIC	?GetUseTypeString@CItemData@@QBEPBDXZ		; CItemData::GetUseTypeString
PUBLIC	?GetWeaponType@CItemData@@QBEKXZ		; CItemData::GetWeaponType
PUBLIC	?GetSize@CItemData@@QBEEXZ			; CItemData::GetSize
PUBLIC	?IsAntiFlag@CItemData@@QBEHK@Z			; CItemData::IsAntiFlag
PUBLIC	?IsFlag@CItemData@@QBEHK@Z			; CItemData::IsFlag
PUBLIC	?IsWearableFlag@CItemData@@QBEHK@Z		; CItemData::IsWearableFlag
PUBLIC	?HasNextGrade@CItemData@@QBEHXZ			; CItemData::HasNextGrade
PUBLIC	?GetWearFlags@CItemData@@QBEKXZ			; CItemData::GetWearFlags
PUBLIC	?GetIBuyItemPrice@CItemData@@QBEKXZ		; CItemData::GetIBuyItemPrice
PUBLIC	?GetISellItemPrice@CItemData@@QBEKXZ		; CItemData::GetISellItemPrice
PUBLIC	?GetLimit@CItemData@@QBEHEPAUSItemLimit@1@@Z	; CItemData::GetLimit
PUBLIC	?GetApply@CItemData@@QBEHEPAUSItemApply@1@@Z	; CItemData::GetApply
PUBLIC	?GetValue@CItemData@@QBEJE@Z			; CItemData::GetValue
PUBLIC	?GetSocket@CItemData@@QBEJE@Z			; CItemData::GetSocket
PUBLIC	?SetSocket@CItemData@@QAEJEK@Z			; CItemData::SetSocket
PUBLIC	?GetSocketCount@CItemData@@QBEHXZ		; CItemData::GetSocketCount
PUBLIC	?GetIconNumber@CItemData@@QBEKXZ		; CItemData::GetIconNumber
PUBLIC	?GetSpecularPoweru@CItemData@@QBEIXZ		; CItemData::GetSpecularPoweru
PUBLIC	?GetSpecularPowerf@CItemData@@QBEMXZ		; CItemData::GetSpecularPowerf
PUBLIC	?IsEquipment@CItemData@@QBEHXZ			; CItemData::IsEquipment
PUBLIC	?SetDefaultItemData@CItemData@@QAEXPBD0@Z	; CItemData::SetDefaultItemData
PUBLIC	?SetItemTableData@CItemData@@QAEXPAUSItemTable@1@@Z ; CItemData::SetItemTableData
PUBLIC	?__LoadFiles@CItemData@@IAEXXZ			; CItemData::__LoadFiles
PUBLIC	?__SetIconImage@CItemData@@IAEXPBD@Z		; CItemData::__SetIconImage
PUBLIC	?deallocate@?$allocator@PAVCGraphicThing@@@std@@QAEXQAPAVCGraphicThing@@I@Z ; std::allocator<CGraphicThing *>::deallocate
PUBLIC	??1?$vector@PAVCGraphicThing@@V?$allocator@PAVCGraphicThing@@@std@@@std@@QAE@XZ ; std::vector<CGraphicThing *,std::allocator<CGraphicThing *> >::~vector<CGraphicThing *,std::allocator<CGraphicThing *> >
PUBLIC	?clear@?$vector@PAVCGraphicThing@@V?$allocator@PAVCGraphicThing@@@std@@@std@@QAEXXZ ; std::vector<CGraphicThing *,std::allocator<CGraphicThing *> >::clear
PUBLIC	?_Destroy@?$vector@PAVCGraphicThing@@V?$allocator@PAVCGraphicThing@@@std@@@std@@AAEXPAPAVCGraphicThing@@0@Z ; std::vector<CGraphicThing *,std::allocator<CGraphicThing *> >::_Destroy
PUBLIC	?_Calculate_growth@?$vector@PAVCGraphicThing@@V?$allocator@PAVCGraphicThing@@@std@@@std@@ABEII@Z ; std::vector<CGraphicThing *,std::allocator<CGraphicThing *> >::_Calculate_growth
PUBLIC	?_Change_array@?$vector@PAVCGraphicThing@@V?$allocator@PAVCGraphicThing@@@std@@@std@@AAEXQAPAVCGraphicThing@@II@Z ; std::vector<CGraphicThing *,std::allocator<CGraphicThing *> >::_Change_array
PUBLIC	?_Tidy@?$vector@PAVCGraphicThing@@V?$allocator@PAVCGraphicThing@@@std@@@std@@AAEXXZ ; std::vector<CGraphicThing *,std::allocator<CGraphicThing *> >::_Tidy
PUBLIC	?_Xlength@?$vector@PAVCGraphicThing@@V?$allocator@PAVCGraphicThing@@@std@@@std@@CAXXZ ; std::vector<CGraphicThing *,std::allocator<CGraphicThing *> >::_Xlength
PUBLIC	?_Getal@?$vector@PAVCGraphicThing@@V?$allocator@PAVCGraphicThing@@@std@@@std@@AAEAAV?$allocator@PAVCGraphicThing@@@2@XZ ; std::vector<CGraphicThing *,std::allocator<CGraphicThing *> >::_Getal
PUBLIC	??0?$_Vector_val@U?$_Simple_types@PAVCGraphicThing@@@std@@@std@@QAE@XZ ; std::_Vector_val<std::_Simple_types<CGraphicThing *> >::_Vector_val<std::_Simple_types<CGraphicThing *> >
PUBLIC	??1?$vector@USAttachingData@NRaceData@@V?$allocator@USAttachingData@NRaceData@@@std@@@std@@QAE@XZ ; std::vector<NRaceData::SAttachingData,std::allocator<NRaceData::SAttachingData> >::~vector<NRaceData::SAttachingData,std::allocator<NRaceData::SAttachingData> >
PUBLIC	?_Tidy@?$vector@USAttachingData@NRaceData@@V?$allocator@USAttachingData@NRaceData@@@std@@@std@@AAEXXZ ; std::vector<NRaceData::SAttachingData,std::allocator<NRaceData::SAttachingData> >::_Tidy
PUBLIC	?DestroySystem@CItemData@@SAXXZ			; CItemData::DestroySystem
PUBLIC	?New@CItemData@@SAPAV1@XZ			; CItemData::New
PUBLIC	?Delete@CItemData@@SAXPAV1@@Z			; CItemData::Delete
PUBLIC	??_GCItemData@@UAEPAXI@Z			; CItemData::`scalar deleting destructor'
PUBLIC	??0?$CDynamicPool@VCItemData@@@@QAE@XZ		; CDynamicPool<CItemData>::CDynamicPool<CItemData>
PUBLIC	??1?$CDynamicPool@VCItemData@@@@UAE@XZ		; CDynamicPool<CItemData>::~CDynamicPool<CItemData>
PUBLIC	?Destroy@?$CDynamicPool@VCItemData@@@@QAEXXZ	; CDynamicPool<CItemData>::Destroy
PUBLIC	?Alloc@?$CDynamicPool@VCItemData@@@@QAEPAVCItemData@@XZ ; CDynamicPool<CItemData>::Alloc
PUBLIC	?Delete@?$CDynamicPool@VCItemData@@@@KAXPAVCItemData@@@Z ; CDynamicPool<CItemData>::Delete
PUBLIC	?deallocate@?$allocator@PAVCItemData@@@std@@QAEXQAPAVCItemData@@I@Z ; std::allocator<CItemData *>::deallocate
PUBLIC	?clear@?$vector@PAVCItemData@@V?$allocator@PAVCItemData@@@std@@@std@@QAEXXZ ; std::vector<CItemData *,std::allocator<CItemData *> >::clear
PUBLIC	?_Destroy@?$vector@PAVCItemData@@V?$allocator@PAVCItemData@@@std@@@std@@AAEXPAPAVCItemData@@0@Z ; std::vector<CItemData *,std::allocator<CItemData *> >::_Destroy
PUBLIC	?_Calculate_growth@?$vector@PAVCItemData@@V?$allocator@PAVCItemData@@@std@@@std@@ABEII@Z ; std::vector<CItemData *,std::allocator<CItemData *> >::_Calculate_growth
PUBLIC	?_Change_array@?$vector@PAVCItemData@@V?$allocator@PAVCItemData@@@std@@@std@@AAEXQAPAVCItemData@@II@Z ; std::vector<CItemData *,std::allocator<CItemData *> >::_Change_array
PUBLIC	?_Tidy@?$vector@PAVCItemData@@V?$allocator@PAVCItemData@@@std@@@std@@AAEXXZ ; std::vector<CItemData *,std::allocator<CItemData *> >::_Tidy
PUBLIC	?_Xlength@?$vector@PAVCItemData@@V?$allocator@PAVCItemData@@@std@@@std@@CAXXZ ; std::vector<CItemData *,std::allocator<CItemData *> >::_Xlength
PUBLIC	??_G?$CDynamicPool@VCItemData@@@@UAEPAXI@Z	; CDynamicPool<CItemData>::`scalar deleting destructor'
PUBLIC	??$for_each@V?$_Vector_iterator@V?$_Vector_val@U?$_Simple_types@PAVCItemData@@@std@@@std@@@std@@P6AXPAVCItemData@@@Z@std@@YAP6AXPAVCItemData@@@ZV?$_Vector_iterator@V?$_Vector_val@U?$_Simple_types@PAVCItemData@@@std@@@std@@@0@1P6AX0@Z@Z ; std::for_each<std::_Vector_iterator<std::_Vector_val<std::_Simple_types<CItemData *> > >,void (__cdecl*)(CItemData *)>
PUBLIC	??$_Resize@U_Value_init_tag@std@@@?$vector@PAVCGraphicThing@@V?$allocator@PAVCGraphicThing@@@std@@@std@@AAEXIABU_Value_init_tag@1@@Z ; std::vector<CGraphicThing *,std::allocator<CGraphicThing *> >::_Resize<std::_Value_init_tag>
PUBLIC	??$emplace_back@ABQAVCItemData@@@?$vector@PAVCItemData@@V?$allocator@PAVCItemData@@@std@@@std@@QAEXABQAVCItemData@@@Z ; std::vector<CItemData *,std::allocator<CItemData *> >::emplace_back<CItemData * const &>
PUBLIC	??$_Emplace_back_with_unused_capacity@ABQAVCItemData@@@?$vector@PAVCItemData@@V?$allocator@PAVCItemData@@@std@@@std@@AAEXABQAVCItemData@@@Z ; std::vector<CItemData *,std::allocator<CItemData *> >::_Emplace_back_with_unused_capacity<CItemData * const &>
PUBLIC	??$_Emplace_reallocate@ABQAVCItemData@@@?$vector@PAVCItemData@@V?$allocator@PAVCItemData@@@std@@@std@@QAEPAPAVCItemData@@QAPAV2@ABQAV2@@Z ; std::vector<CItemData *,std::allocator<CItemData *> >::_Emplace_reallocate<CItemData * const &>
PUBLIC	??$_Destroy_range@V?$allocator@PAVCGraphicThing@@@std@@@std@@YAXPAPAVCGraphicThing@@QAPAV1@AAV?$allocator@PAVCGraphicThing@@@0@@Z ; std::_Destroy_range<std::allocator<CGraphicThing *> >
PUBLIC	??$_Destroy_range@V?$allocator@V?$basic_string@DU?$char_traits@D@std@@V?$allocator@D@2@@std@@@std@@@std@@YAXPAV?$basic_string@DU?$char_traits@D@std@@V?$allocator@D@2@@0@QAV10@AAV?$allocator@V?$basic_string@DU?$char_traits@D@std@@V?$allocator@D@2@@std@@@0@@Z ; std::_Destroy_range<std::allocator<std::basic_string<char,std::char_traits<char>,std::allocator<char> > > >
PUBLIC	??$_Pocca@V?$allocator@D@std@@@std@@YAXAAV?$allocator@D@0@ABV10@@Z ; std::_Pocca<std::allocator<char> >
PUBLIC	??$_Destroy_range@V?$allocator@PAVCItemData@@@std@@@std@@YAXPAPAVCItemData@@QAPAV1@AAV?$allocator@PAVCItemData@@@0@@Z ; std::_Destroy_range<std::allocator<CItemData *> >
PUBLIC	??$_Destroy_range@V?$allocator@USAttachingData@NRaceData@@@std@@@std@@YAXPAUSAttachingData@NRaceData@@QAU12@AAV?$allocator@USAttachingData@NRaceData@@@0@@Z ; std::_Destroy_range<std::allocator<NRaceData::SAttachingData> >
PUBLIC	??$_Resize_reallocate@U_Value_init_tag@std@@@?$vector@PAVCGraphicThing@@V?$allocator@PAVCGraphicThing@@@std@@@std@@AAEXIABU_Value_init_tag@1@@Z ; std::vector<CGraphicThing *,std::allocator<CGraphicThing *> >::_Resize_reallocate<std::_Value_init_tag>
PUBLIC	??$_Uninitialized_move@PAPAVCItemData@@V?$allocator@PAVCItemData@@@std@@@std@@YAPAPAVCItemData@@QAPAV1@0PAPAV1@AAV?$allocator@PAVCItemData@@@0@@Z ; std::_Uninitialized_move<CItemData * *,std::allocator<CItemData *> >
PUBLIC	??$_Uninitialized_value_construct_n@V?$allocator@PAVCGraphicThing@@@std@@@std@@YAPAPAVCGraphicThing@@PAPAV1@IAAV?$allocator@PAVCGraphicThing@@@0@@Z ; std::_Uninitialized_value_construct_n<std::allocator<CGraphicThing *> >
PUBLIC	??$_Copy_memmove@PAPAVCItemData@@PAPAV1@@std@@YAPAPAVCItemData@@PAPAV1@00@Z ; std::_Copy_memmove<CItemData * *,CItemData * *>
PUBLIC	??$_Zero_range@PAPAVCGraphicThing@@@std@@YAPAPAVCGraphicThing@@QAPAV1@0@Z ; std::_Zero_range<CGraphicThing * *>
PUBLIC	??$_Uninitialized_move@PAPAVCGraphicThing@@V?$allocator@PAVCGraphicThing@@@std@@@std@@YAPAPAVCGraphicThing@@QAPAV1@0PAPAV1@AAV?$allocator@PAVCGraphicThing@@@0@@Z ; std::_Uninitialized_move<CGraphicThing * *,std::allocator<CGraphicThing *> >
PUBLIC	??$_Copy_memmove@PAPAVCGraphicThing@@PAPAV1@@std@@YAPAPAVCGraphicThing@@PAPAV1@00@Z ; std::_Copy_memmove<CGraphicThing * *,CGraphicThing * *>
PUBLIC	??_7exception@std@@6B@				; std::exception::`vftable'
PUBLIC	??_C@_0BC@EOODALEL@Unknown?5exception@		; `string'
PUBLIC	??_7bad_alloc@std@@6B@				; std::bad_alloc::`vftable'
PUBLIC	??_7bad_array_new_length@std@@6B@		; std::bad_array_new_length::`vftable'
PUBLIC	??_C@_0BF@KINCDENJ@bad?5array?5new?5length@	; `string'
PUBLIC	__TI3?AVbad_array_new_length@std@@
PUBLIC	__CTA3?AVbad_array_new_length@std@@
PUBLIC	??_R0?AVbad_array_new_length@std@@@8		; std::bad_array_new_length `RTTI Type Descriptor'
PUBLIC	__CT??_R0?AVbad_array_new_length@std@@@8??0bad_array_new_length@std@@QAE@ABV01@@Z12
PUBLIC	??_R0?AVbad_alloc@std@@@8			; std::bad_alloc `RTTI Type Descriptor'
PUBLIC	__CT??_R0?AVbad_alloc@std@@@8??0bad_alloc@std@@QAE@ABV01@@Z12
PUBLIC	??_R0?AVexception@std@@@8			; std::exception `RTTI Type Descriptor'
PUBLIC	__CT??_R0?AVexception@std@@@8??0exception@std@@QAE@ABV01@@Z12
PUBLIC	??_C@_0BA@JFNIOLAK@string?5too?5long@		; `string'
PUBLIC	??_C@_00CNPNBAHC@@				; `string'
PUBLIC	??_R4exception@std@@6B@				; std::exception::`RTTI Complete Object Locator'
PUBLIC	??_R3exception@std@@8				; std::exception::`RTTI Class Hierarchy Descriptor'
PUBLIC	??_R2exception@std@@8				; std::exception::`RTTI Base Class Array'
PUBLIC	??_R1A@?0A@EA@exception@std@@8			; std::exception::`RTTI Base Class Descriptor at (0,-1,0,64)'
PUBLIC	??_R4bad_alloc@std@@6B@				; std::bad_alloc::`RTTI Complete Object Locator'
PUBLIC	??_R3bad_alloc@std@@8				; std::bad_alloc::`RTTI Class Hierarchy Descriptor'
PUBLIC	??_R2bad_alloc@std@@8				; std::bad_alloc::`RTTI Base Class Array'
PUBLIC	??_R1A@?0A@EA@bad_alloc@std@@8			; std::bad_alloc::`RTTI Base Class Descriptor at (0,-1,0,64)'
PUBLIC	??_R4bad_array_new_length@std@@6B@		; std::bad_array_new_length::`RTTI Complete Object Locator'
PUBLIC	??_R3bad_array_new_length@std@@8		; std::bad_array_new_length::`RTTI Class Hierarchy Descriptor'
PUBLIC	??_R2bad_array_new_length@std@@8		; std::bad_array_new_length::`RTTI Base Class Array'
PUBLIC	??_R1A@?0A@EA@bad_array_new_length@std@@8	; std::bad_array_new_length::`RTTI Base Class Descriptor at (0,-1,0,64)'
PUBLIC	?ms_singleton@?$CSingleton@VCResourceManager@@@@0PAVCResourceManager@@A ; CSingleton<CResourceManager>::ms_singleton
PUBLIC	?ms_kPool@CItemData@@2V?$CDynamicPool@VCItemData@@@@A ; CItemData::ms_kPool
PUBLIC	??_7CItemData@@6B@				; CItemData::`vftable'
PUBLIC	??_7?$CDynamicPool@VCItemData@@@@6B@		; CDynamicPool<CItemData>::`vftable'
PUBLIC	??_C@_0CD@GGDHOLJD@d?3?1ymir?5work?1item?1etc?1item_bag?4@ ; `string'
PUBLIC	??_C@_0CN@HDHIHCHA@?$CFs?5?F?D?$MA?O?$MA?L?5?$LO?x?$LN?$MA?$LE?O?$LE?Y?4CItemData?3?3_@ ; `string'
PUBLIC	??_C@_0N@OHMMNDLH@NOT_USE_TYPE@			; `string'
PUBLIC	??_C@_0L@JIILHJGL@USE_TUNING@			; `string'
PUBLIC	??_C@_0P@MKAMDACK@USE_DETACHMENT@		; `string'
PUBLIC	??_C@_0BB@IPDHFONJ@USE_CLEAN_SOCKET@		; `string'
PUBLIC	??_C@_0BF@OFJOINJA@USE_CHANGE_ATTRIBUTE@	; `string'
PUBLIC	??_C@_0BC@CNMGHFMD@USE_ADD_ATTRIBUTE@		; `string'
PUBLIC	??_C@_0BD@OPDAABAO@USE_ADD_ATTRIBUTE2@		; `string'
PUBLIC	??_C@_0BJ@NMHGAPML@USE_ADD_ACCESSORY_SOCKET@	; `string'
PUBLIC	??_C@_0BO@CNHACOAA@USE_PUT_INTO_ACCESSORY_SOCKET@ ; `string'
PUBLIC	??_C@_0BJ@FLCFGEDJ@USE_PUT_INTO_BELT_SOCKET@	; `string'
PUBLIC	??_C@_0BJ@MMJPLFIL@USE_PUT_INTO_RING_SOCKET@	; `string'
PUBLIC	??_C@_0BB@HEDGKPKE@USE_UNKNOWN_TYPE@		; `string'
PUBLIC	??_C@_0BA@FOIKENOD@vector?5too?5long@		; `string'
PUBLIC	??_R4CItemData@@6B@				; CItemData::`RTTI Complete Object Locator'
PUBLIC	??_R0?AVCItemData@@@8				; CItemData `RTTI Type Descriptor'
PUBLIC	??_R3CItemData@@8				; CItemData::`RTTI Class Hierarchy Descriptor'
PUBLIC	??_R2CItemData@@8				; CItemData::`RTTI Base Class Array'
PUBLIC	??_R1A@?0A@EA@CItemData@@8			; CItemData::`RTTI Base Class Descriptor at (0,-1,0,64)'
PUBLIC	??_R4?$CDynamicPool@VCItemData@@@@6B@		; CDynamicPool<CItemData>::`RTTI Complete Object Locator'
PUBLIC	??_R0?AV?$CDynamicPool@VCItemData@@@@@8		; CDynamicPool<CItemData> `RTTI Type Descriptor'
PUBLIC	??_R3?$CDynamicPool@VCItemData@@@@8		; CDynamicPool<CItemData>::`RTTI Class Hierarchy Descriptor'
PUBLIC	??_R2?$CDynamicPool@VCItemData@@@@8		; CDynamicPool<CItemData>::`RTTI Base Class Array'
PUBLIC	??_R1A@?0A@EA@?$CDynamicPool@VCItemData@@@@8	; CDynamicPool<CItemData>::`RTTI Base Class Descriptor at (0,-1,0,64)'
PUBLIC	__real@42c80000
PUBLIC	__xmm@41f00000000000000000000000000000
EXTRN	??2@YAPAXI@Z:PROC				; operator new
EXTRN	??3@YAXPAXI@Z:PROC				; operator delete
EXTRN	_atexit:PROC
EXTRN	__invalid_parameter_noinfo_noreturn:PROC
EXTRN	_memcpy:PROC
EXTRN	_memmove:PROC
EXTRN	_memset:PROC
EXTRN	_strlen:PROC
EXTRN	___std_exception_copy:PROC
EXTRN	___std_exception_destroy:PROC
EXTRN	??_Eexception@std@@UAEPAXI@Z:PROC		; std::exception::`vector deleting destructor'
EXTRN	??_Ebad_alloc@std@@UAEPAXI@Z:PROC		; std::bad_alloc::`vector deleting destructor'
EXTRN	??_Ebad_array_new_length@std@@UAEPAXI@Z:PROC	; std::bad_array_new_length::`vector deleting destructor'
EXTRN	?_Xlength_error@std@@YAXPBD@Z:PROC		; std::_Xlength_error
EXTRN	?TraceError@@YAXPBDZZ:PROC			; TraceError
EXTRN	?GetResourcePointer@CResourceManager@@QAEPAVCResource@@PBD@Z:PROC ; CResourceManager::GetResourcePointer
EXTRN	?IsFileExist@CResourceManager@@QAE_NPBD@Z:PROC	; CResourceManager::IsFileExist
EXTRN	??_ECItemData@@UAEPAXI@Z:PROC			; CItemData::`vector deleting destructor'
EXTRN	??_E?$CDynamicPool@VCItemData@@@@UAEPAXI@Z:PROC	; CDynamicPool<CItemData>::`vector deleting destructor'
EXTRN	@__security_check_cookie@4:PROC
EXTRN	__CxxThrowException@8:PROC
EXTRN	___CxxFrameHandler3:PROC
EXTRN	??_7type_info@@6B@:QWORD			; type_info::`vftable'
EXTRN	___security_cookie:DWORD
EXTRN	__fltused:DWORD
;	COMDAT ?ms_singleton@?$CSingleton@VCResourceManager@@@@0PAVCResourceManager@@A
_BSS	SEGMENT
?ms_singleton@?$CSingleton@VCResourceManager@@@@0PAVCResourceManager@@A DD 01H DUP (?) ; CSingleton<CResourceManager>::ms_singleton
_BSS	ENDS
_BSS	SEGMENT
?ms_kPool@CItemData@@2V?$CDynamicPool@VCItemData@@@@A DB 024H DUP (?) ; CItemData::ms_kPool
_BSS	ENDS
CRT$XCU	SEGMENT
??ms_kPool$initializer$@CItemData@@2P6AXXZA@@3P6AXXZA DD FLAT:??__E?ms_kPool@CItemData@@2V?$CDynamicPool@VCItemData@@@@A@@YAXXZ ; ??ms_kPool$initializer$@CItemData@@2P6AXXZA@@3P6AXXZA
CRT$XCU	ENDS
;	COMDAT __xmm@41f00000000000000000000000000000
CONST	SEGMENT
__xmm@41f00000000000000000000000000000 DB 00H, 00H, 00H, 00H, 00H, 00H, 00H
	DB	00H, 00H, 00H, 00H, 00H, 00H, 00H, 0f0H, 'A'
CONST	ENDS
;	COMDAT __real@42c80000
CONST	SEGMENT
__real@42c80000 DD 042c80000r			; 100
CONST	ENDS
;	COMDAT ??_R1A@?0A@EA@?$CDynamicPool@VCItemData@@@@8
rdata$r	SEGMENT
??_R1A@?0A@EA@?$CDynamicPool@VCItemData@@@@8 DD FLAT:??_R0?AV?$CDynamicPool@VCItemData@@@@@8 ; CDynamicPool<CItemData>::`RTTI Base Class Descriptor at (0,-1,0,64)'
	DD	00H
	DD	00H
	DD	0ffffffffH
	DD	00H
	DD	040H
	DD	FLAT:??_R3?$CDynamicPool@VCItemData@@@@8
rdata$r	ENDS
;	COMDAT ??_R2?$CDynamicPool@VCItemData@@@@8
rdata$r	SEGMENT
??_R2?$CDynamicPool@VCItemData@@@@8 DD FLAT:??_R1A@?0A@EA@?$CDynamicPool@VCItemData@@@@8 ; CDynamicPool<CItemData>::`RTTI Base Class Array'
rdata$r	ENDS
;	COMDAT ??_R3?$CDynamicPool@VCItemData@@@@8
rdata$r	SEGMENT
??_R3?$CDynamicPool@VCItemData@@@@8 DD 00H		; CDynamicPool<CItemData>::`RTTI Class Hierarchy Descriptor'
	DD	00H
	DD	01H
	DD	FLAT:??_R2?$CDynamicPool@VCItemData@@@@8
rdata$r	ENDS
;	COMDAT ??_R0?AV?$CDynamicPool@VCItemData@@@@@8
data$rs	SEGMENT
??_R0?AV?$CDynamicPool@VCItemData@@@@@8 DD FLAT:??_7type_info@@6B@ ; CDynamicPool<CItemData> `RTTI Type Descriptor'
	DD	00H
	DB	'.?AV?$CDynamicPool@VCItemData@@@@', 00H
data$rs	ENDS
;	COMDAT ??_R4?$CDynamicPool@VCItemData@@@@6B@
rdata$r	SEGMENT
??_R4?$CDynamicPool@VCItemData@@@@6B@ DD 00H		; CDynamicPool<CItemData>::`RTTI Complete Object Locator'
	DD	00H
	DD	00H
	DD	FLAT:??_R0?AV?$CDynamicPool@VCItemData@@@@@8
	DD	FLAT:??_R3?$CDynamicPool@VCItemData@@@@8
rdata$r	ENDS
;	COMDAT ??_R1A@?0A@EA@CItemData@@8
rdata$r	SEGMENT
??_R1A@?0A@EA@CItemData@@8 DD FLAT:??_R0?AVCItemData@@@8 ; CItemData::`RTTI Base Class Descriptor at (0,-1,0,64)'
	DD	00H
	DD	00H
	DD	0ffffffffH
	DD	00H
	DD	040H
	DD	FLAT:??_R3CItemData@@8
rdata$r	ENDS
;	COMDAT ??_R2CItemData@@8
rdata$r	SEGMENT
??_R2CItemData@@8 DD FLAT:??_R1A@?0A@EA@CItemData@@8	; CItemData::`RTTI Base Class Array'
rdata$r	ENDS
;	COMDAT ??_R3CItemData@@8
rdata$r	SEGMENT
??_R3CItemData@@8 DD 00H				; CItemData::`RTTI Class Hierarchy Descriptor'
	DD	00H
	DD	01H
	DD	FLAT:??_R2CItemData@@8
rdata$r	ENDS
;	COMDAT ??_R0?AVCItemData@@@8
data$rs	SEGMENT
??_R0?AVCItemData@@@8 DD FLAT:??_7type_info@@6B@	; CItemData `RTTI Type Descriptor'
	DD	00H
	DB	'.?AVCItemData@@', 00H
data$rs	ENDS
;	COMDAT ??_R4CItemData@@6B@
rdata$r	SEGMENT
??_R4CItemData@@6B@ DD 00H				; CItemData::`RTTI Complete Object Locator'
	DD	00H
	DD	00H
	DD	FLAT:??_R0?AVCItemData@@@8
	DD	FLAT:??_R3CItemData@@8
rdata$r	ENDS
;	COMDAT ??_C@_0BA@FOIKENOD@vector?5too?5long@
CONST	SEGMENT
??_C@_0BA@FOIKENOD@vector?5too?5long@ DB 'vector too long', 00H ; `string'
CONST	ENDS
;	COMDAT ??_C@_0BB@HEDGKPKE@USE_UNKNOWN_TYPE@
CONST	SEGMENT
??_C@_0BB@HEDGKPKE@USE_UNKNOWN_TYPE@ DB 'USE_UNKNOWN_TYPE', 00H ; `string'
CONST	ENDS
;	COMDAT ??_C@_0BJ@MMJPLFIL@USE_PUT_INTO_RING_SOCKET@
CONST	SEGMENT
??_C@_0BJ@MMJPLFIL@USE_PUT_INTO_RING_SOCKET@ DB 'USE_PUT_INTO_RING_SOCKET'
	DB	00H						; `string'
CONST	ENDS
;	COMDAT ??_C@_0BJ@FLCFGEDJ@USE_PUT_INTO_BELT_SOCKET@
CONST	SEGMENT
??_C@_0BJ@FLCFGEDJ@USE_PUT_INTO_BELT_SOCKET@ DB 'USE_PUT_INTO_BELT_SOCKET'
	DB	00H						; `string'
CONST	ENDS
;	COMDAT ??_C@_0BO@CNHACOAA@USE_PUT_INTO_ACCESSORY_SOCKET@
CONST	SEGMENT
??_C@_0BO@CNHACOAA@USE_PUT_INTO_ACCESSORY_SOCKET@ DB 'USE_PUT_INTO_ACCESS'
	DB	'ORY_SOCKET', 00H				; `string'
CONST	ENDS
;	COMDAT ??_C@_0BJ@NMHGAPML@USE_ADD_ACCESSORY_SOCKET@
CONST	SEGMENT
??_C@_0BJ@NMHGAPML@USE_ADD_ACCESSORY_SOCKET@ DB 'USE_ADD_ACCESSORY_SOCKET'
	DB	00H						; `string'
CONST	ENDS
;	COMDAT ??_C@_0BD@OPDAABAO@USE_ADD_ATTRIBUTE2@
CONST	SEGMENT
??_C@_0BD@OPDAABAO@USE_ADD_ATTRIBUTE2@ DB 'USE_ADD_ATTRIBUTE2', 00H ; `string'
CONST	ENDS
;	COMDAT ??_C@_0BC@CNMGHFMD@USE_ADD_ATTRIBUTE@
CONST	SEGMENT
??_C@_0BC@CNMGHFMD@USE_ADD_ATTRIBUTE@ DB 'USE_ADD_ATTRIBUTE', 00H ; `string'
CONST	ENDS
;	COMDAT ??_C@_0BF@OFJOINJA@USE_CHANGE_ATTRIBUTE@
CONST	SEGMENT
??_C@_0BF@OFJOINJA@USE_CHANGE_ATTRIBUTE@ DB 'USE_CHANGE_ATTRIBUTE', 00H ; `string'
CONST	ENDS
;	COMDAT ??_C@_0BB@IPDHFONJ@USE_CLEAN_SOCKET@
CONST	SEGMENT
??_C@_0BB@IPDHFONJ@USE_CLEAN_SOCKET@ DB 'USE_CLEAN_SOCKET', 00H ; `string'
CONST	ENDS
;	COMDAT ??_C@_0P@MKAMDACK@USE_DETACHMENT@
CONST	SEGMENT
??_C@_0P@MKAMDACK@USE_DETACHMENT@ DB 'USE_DETACHMENT', 00H ; `string'
CONST	ENDS
;	COMDAT ??_C@_0L@JIILHJGL@USE_TUNING@
CONST	SEGMENT
??_C@_0L@JIILHJGL@USE_TUNING@ DB 'USE_TUNING', 00H	; `string'
CONST	ENDS
;	COMDAT ??_C@_0N@OHMMNDLH@NOT_USE_TYPE@
CONST	SEGMENT
??_C@_0N@OHMMNDLH@NOT_USE_TYPE@ DB 'NOT_USE_TYPE', 00H	; `string'
CONST	ENDS
;	COMDAT ??_C@_0CN@HDHIHCHA@?$CFs?5?F?D?$MA?O?$MA?L?5?$LO?x?$LN?$MA?$LE?O?$LE?Y?4CItemData?3?3_@
CONST	SEGMENT
??_C@_0CN@HDHIHCHA@?$CFs?5?F?D?$MA?O?$MA?L?5?$LO?x?$LN?$MA?$LE?O?$LE?Y?4CItemData?3?3_@ DB '%'
	DB	's ', 0c6H, 0c4H, 0c0H, 0cfH, 0c0H, 0ccH, ' ', 0beH, 0f8H, 0bdH
	DB	0c0H, 0b4H, 0cfH, 0b4H, 0d9H, '.CItemData::__SetIconImage', 00H ; `string'
CONST	ENDS
;	COMDAT ??_C@_0CD@GGDHOLJD@d?3?1ymir?5work?1item?1etc?1item_bag?4@
CONST	SEGMENT
??_C@_0CD@GGDHOLJD@d?3?1ymir?5work?1item?1etc?1item_bag?4@ DB 'd:/ymir wo'
	DB	'rk/item/etc/item_bag.gr2', 00H		; `string'
CONST	ENDS
;	COMDAT ??_7?$CDynamicPool@VCItemData@@@@6B@
CONST	SEGMENT
??_7?$CDynamicPool@VCItemData@@@@6B@ DD FLAT:??_R4?$CDynamicPool@VCItemData@@@@6B@ ; CDynamicPool<CItemData>::`vftable'
	DD	FLAT:??_E?$CDynamicPool@VCItemData@@@@UAEPAXI@Z
CONST	ENDS
;	COMDAT ??_7CItemData@@6B@
CONST	SEGMENT
??_7CItemData@@6B@ DD FLAT:??_R4CItemData@@6B@		; CItemData::`vftable'
	DD	FLAT:??_ECItemData@@UAEPAXI@Z
CONST	ENDS
;	COMDAT ??_R1A@?0A@EA@bad_array_new_length@std@@8
rdata$r	SEGMENT
??_R1A@?0A@EA@bad_array_new_length@std@@8 DD FLAT:??_R0?AVbad_array_new_length@std@@@8 ; std::bad_array_new_length::`RTTI Base Class Descriptor at (0,-1,0,64)'
	DD	02H
	DD	00H
	DD	0ffffffffH
	DD	00H
	DD	040H
	DD	FLAT:??_R3bad_array_new_length@std@@8
rdata$r	ENDS
;	COMDAT ??_R2bad_array_new_length@std@@8
rdata$r	SEGMENT
??_R2bad_array_new_length@std@@8 DD FLAT:??_R1A@?0A@EA@bad_array_new_length@std@@8 ; std::bad_array_new_length::`RTTI Base Class Array'
	DD	FLAT:??_R1A@?0A@EA@bad_alloc@std@@8
	DD	FLAT:??_R1A@?0A@EA@exception@std@@8
rdata$r	ENDS
;	COMDAT ??_R3bad_array_new_length@std@@8
rdata$r	SEGMENT
??_R3bad_array_new_length@std@@8 DD 00H			; std::bad_array_new_length::`RTTI Class Hierarchy Descriptor'
	DD	00H
	DD	03H
	DD	FLAT:??_R2bad_array_new_length@std@@8
rdata$r	ENDS
;	COMDAT ??_R4bad_array_new_length@std@@6B@
rdata$r	SEGMENT
??_R4bad_array_new_length@std@@6B@ DD 00H		; std::bad_array_new_length::`RTTI Complete Object Locator'
	DD	00H
	DD	00H
	DD	FLAT:??_R0?AVbad_array_new_length@std@@@8
	DD	FLAT:??_R3bad_array_new_length@std@@8
rdata$r	ENDS
;	COMDAT ??_R1A@?0A@EA@bad_alloc@std@@8
rdata$r	SEGMENT
??_R1A@?0A@EA@bad_alloc@std@@8 DD FLAT:??_R0?AVbad_alloc@std@@@8 ; std::bad_alloc::`RTTI Base Class Descriptor at (0,-1,0,64)'
	DD	01H
	DD	00H
	DD	0ffffffffH
	DD	00H
	DD	040H
	DD	FLAT:??_R3bad_alloc@std@@8
rdata$r	ENDS
;	COMDAT ??_R2bad_alloc@std@@8
rdata$r	SEGMENT
??_R2bad_alloc@std@@8 DD FLAT:??_R1A@?0A@EA@bad_alloc@std@@8 ; std::bad_alloc::`RTTI Base Class Array'
	DD	FLAT:??_R1A@?0A@EA@exception@std@@8
rdata$r	ENDS
;	COMDAT ??_R3bad_alloc@std@@8
rdata$r	SEGMENT
??_R3bad_alloc@std@@8 DD 00H				; std::bad_alloc::`RTTI Class Hierarchy Descriptor'
	DD	00H
	DD	02H
	DD	FLAT:??_R2bad_alloc@std@@8
rdata$r	ENDS
;	COMDAT ??_R4bad_alloc@std@@6B@
rdata$r	SEGMENT
??_R4bad_alloc@std@@6B@ DD 00H				; std::bad_alloc::`RTTI Complete Object Locator'
	DD	00H
	DD	00H
	DD	FLAT:??_R0?AVbad_alloc@std@@@8
	DD	FLAT:??_R3bad_alloc@std@@8
rdata$r	ENDS
;	COMDAT ??_R1A@?0A@EA@exception@std@@8
rdata$r	SEGMENT
??_R1A@?0A@EA@exception@std@@8 DD FLAT:??_R0?AVexception@std@@@8 ; std::exception::`RTTI Base Class Descriptor at (0,-1,0,64)'
	DD	00H
	DD	00H
	DD	0ffffffffH
	DD	00H
	DD	040H
	DD	FLAT:??_R3exception@std@@8
rdata$r	ENDS
;	COMDAT ??_R2exception@std@@8
rdata$r	SEGMENT
??_R2exception@std@@8 DD FLAT:??_R1A@?0A@EA@exception@std@@8 ; std::exception::`RTTI Base Class Array'
rdata$r	ENDS
;	COMDAT ??_R3exception@std@@8
rdata$r	SEGMENT
??_R3exception@std@@8 DD 00H				; std::exception::`RTTI Class Hierarchy Descriptor'
	DD	00H
	DD	01H
	DD	FLAT:??_R2exception@std@@8
rdata$r	ENDS
;	COMDAT ??_R4exception@std@@6B@
rdata$r	SEGMENT
??_R4exception@std@@6B@ DD 00H				; std::exception::`RTTI Complete Object Locator'
	DD	00H
	DD	00H
	DD	FLAT:??_R0?AVexception@std@@@8
	DD	FLAT:??_R3exception@std@@8
rdata$r	ENDS
;	COMDAT ??_C@_00CNPNBAHC@@
CONST	SEGMENT
??_C@_00CNPNBAHC@@ DB 00H				; `string'
CONST	ENDS
;	COMDAT ??_C@_0BA@JFNIOLAK@string?5too?5long@
CONST	SEGMENT
??_C@_0BA@JFNIOLAK@string?5too?5long@ DB 'string too long', 00H ; `string'
CONST	ENDS
;	COMDAT __CT??_R0?AVexception@std@@@8??0exception@std@@QAE@ABV01@@Z12
xdata$x	SEGMENT
__CT??_R0?AVexception@std@@@8??0exception@std@@QAE@ABV01@@Z12 DD 00H
	DD	FLAT:??_R0?AVexception@std@@@8
	DD	00H
	DD	0ffffffffH
	ORG $+4
	DD	0cH
	DD	FLAT:??0exception@std@@QAE@ABV01@@Z
xdata$x	ENDS
;	COMDAT ??_R0?AVexception@std@@@8
data$r	SEGMENT
??_R0?AVexception@std@@@8 DD FLAT:??_7type_info@@6B@	; std::exception `RTTI Type Descriptor'
	DD	00H
	DB	'.?AVexception@std@@', 00H
data$r	ENDS
;	COMDAT __CT??_R0?AVbad_alloc@std@@@8??0bad_alloc@std@@QAE@ABV01@@Z12
xdata$x	SEGMENT
__CT??_R0?AVbad_alloc@std@@@8??0bad_alloc@std@@QAE@ABV01@@Z12 DD 010H
	DD	FLAT:??_R0?AVbad_alloc@std@@@8
	DD	00H
	DD	0ffffffffH
	ORG $+4
	DD	0cH
	DD	FLAT:??0bad_alloc@std@@QAE@ABV01@@Z
xdata$x	ENDS
;	COMDAT ??_R0?AVbad_alloc@std@@@8
data$r	SEGMENT
??_R0?AVbad_alloc@std@@@8 DD FLAT:??_7type_info@@6B@	; std::bad_alloc `RTTI Type Descriptor'
	DD	00H
	DB	'.?AVbad_alloc@std@@', 00H
data$r	ENDS
;	COMDAT __CT??_R0?AVbad_array_new_length@std@@@8??0bad_array_new_length@std@@QAE@ABV01@@Z12
xdata$x	SEGMENT
__CT??_R0?AVbad_array_new_length@std@@@8??0bad_array_new_length@std@@QAE@ABV01@@Z12 DD 00H
	DD	FLAT:??_R0?AVbad_array_new_length@std@@@8
	DD	00H
	DD	0ffffffffH
	ORG $+4
	DD	0cH
	DD	FLAT:??0bad_array_new_length@std@@QAE@ABV01@@Z
xdata$x	ENDS
;	COMDAT ??_R0?AVbad_array_new_length@std@@@8
data$r	SEGMENT
??_R0?AVbad_array_new_length@std@@@8 DD FLAT:??_7type_info@@6B@ ; std::bad_array_new_length `RTTI Type Descriptor'
	DD	00H
	DB	'.?AVbad_array_new_length@std@@', 00H
data$r	ENDS
;	COMDAT __CTA3?AVbad_array_new_length@std@@
xdata$x	SEGMENT
__CTA3?AVbad_array_new_length@std@@ DD 03H
	DD	FLAT:__CT??_R0?AVbad_array_new_length@std@@@8??0bad_array_new_length@std@@QAE@ABV01@@Z12
	DD	FLAT:__CT??_R0?AVbad_alloc@std@@@8??0bad_alloc@std@@QAE@ABV01@@Z12
	DD	FLAT:__CT??_R0?AVexception@std@@@8??0exception@std@@QAE@ABV01@@Z12
xdata$x	ENDS
;	COMDAT __TI3?AVbad_array_new_length@std@@
xdata$x	SEGMENT
__TI3?AVbad_array_new_length@std@@ DD 00H
	DD	FLAT:??1bad_array_new_length@std@@UAE@XZ
	DD	00H
	DD	FLAT:__CTA3?AVbad_array_new_length@std@@
xdata$x	ENDS
;	COMDAT ??_C@_0BF@KINCDENJ@bad?5array?5new?5length@
CONST	SEGMENT
??_C@_0BF@KINCDENJ@bad?5array?5new?5length@ DB 'bad array new length', 00H ; `string'
CONST	ENDS
;	COMDAT ??_7bad_array_new_length@std@@6B@
CONST	SEGMENT
??_7bad_array_new_length@std@@6B@ DD FLAT:??_R4bad_array_new_length@std@@6B@ ; std::bad_array_new_length::`vftable'
	DD	FLAT:??_Ebad_array_new_length@std@@UAEPAXI@Z
	DD	FLAT:?what@exception@std@@UBEPBDXZ
CONST	ENDS
;	COMDAT ??_7bad_alloc@std@@6B@
CONST	SEGMENT
??_7bad_alloc@std@@6B@ DD FLAT:??_R4bad_alloc@std@@6B@	; std::bad_alloc::`vftable'
	DD	FLAT:??_Ebad_alloc@std@@UAEPAXI@Z
	DD	FLAT:?what@exception@std@@UBEPBDXZ
CONST	ENDS
;	COMDAT ??_C@_0BC@EOODALEL@Unknown?5exception@
CONST	SEGMENT
??_C@_0BC@EOODALEL@Unknown?5exception@ DB 'Unknown exception', 00H ; `string'
CONST	ENDS
;	COMDAT ??_7exception@std@@6B@
CONST	SEGMENT
??_7exception@std@@6B@ DD FLAT:??_R4exception@std@@6B@	; std::exception::`vftable'
	DD	FLAT:??_Eexception@std@@UAEPAXI@Z
	DD	FLAT:?what@exception@std@@UBEPBDXZ
CONST	ENDS
;	COMDAT xdata$x
xdata$x	SEGMENT
__catchsym$??$_Resize_reallocate@U_Value_init_tag@std@@@?$vector@PAVCGraphicThing@@V?$allocator@PAVCGraphicThing@@@std@@@std@@AAEXIABU_Value_init_tag@1@@Z$26 DD 040H
	DD	00H
	DD	00H
	DD	FLAT:__catch$??$_Resize_reallocate@U_Value_init_tag@std@@@?$vector@PAVCGraphicThing@@V?$allocator@PAVCGraphicThing@@@std@@@std@@AAEXIABU_Value_init_tag@1@@Z$0
__unwindtable$??$_Resize_reallocate@U_Value_init_tag@std@@@?$vector@PAVCGraphicThing@@V?$allocator@PAVCGraphicThing@@@std@@@std@@AAEXIABU_Value_init_tag@1@@Z DD 0ffffffffH
	DD	00H
	DD	0ffffffffH
	DD	00H
__tryblocktable$??$_Resize_reallocate@U_Value_init_tag@std@@@?$vector@PAVCGraphicThing@@V?$allocator@PAVCGraphicThing@@@std@@@std@@AAEXIABU_Value_init_tag@1@@Z DD 00H
	DD	00H
	DD	01H
	DD	01H
	DD	FLAT:__catchsym$??$_Resize_reallocate@U_Value_init_tag@std@@@?$vector@PAVCGraphicThing@@V?$allocator@PAVCGraphicThing@@@std@@@std@@AAEXIABU_Value_init_tag@1@@Z$26
__ehfuncinfo$??$_Resize_reallocate@U_Value_init_tag@std@@@?$vector@PAVCGraphicThing@@V?$allocator@PAVCGraphicThing@@@std@@@std@@AAEXIABU_Value_init_tag@1@@Z DD 019930522H
	DD	02H
	DD	FLAT:__unwindtable$??$_Resize_reallocate@U_Value_init_tag@std@@@?$vector@PAVCGraphicThing@@V?$allocator@PAVCGraphicThing@@@std@@@std@@AAEXIABU_Value_init_tag@1@@Z
	DD	01H
	DD	FLAT:__tryblocktable$??$_Resize_reallocate@U_Value_init_tag@std@@@?$vector@PAVCGraphicThing@@V?$allocator@PAVCGraphicThing@@@std@@@std@@AAEXIABU_Value_init_tag@1@@Z
	DD	2 DUP(00H)
	DD	00H
	DD	01H
xdata$x	ENDS
;	COMDAT xdata$x
xdata$x	SEGMENT
__catchsym$??$_Emplace_reallocate@ABQAVCItemData@@@?$vector@PAVCItemData@@V?$allocator@PAVCItemData@@@std@@@std@@QAEPAPAVCItemData@@QAPAV2@ABQAV2@@Z$32 DD 040H
	DD	00H
	DD	00H
	DD	FLAT:__catch$??$_Emplace_reallocate@ABQAVCItemData@@@?$vector@PAVCItemData@@V?$allocator@PAVCItemData@@@std@@@std@@QAEPAPAVCItemData@@QAPAV2@ABQAV2@@Z$0
__unwindtable$??$_Emplace_reallocate@ABQAVCItemData@@@?$vector@PAVCItemData@@V?$allocator@PAVCItemData@@@std@@@std@@QAEPAPAVCItemData@@QAPAV2@ABQAV2@@Z DD 0ffffffffH
	DD	00H
	DD	0ffffffffH
	DD	00H
__tryblocktable$??$_Emplace_reallocate@ABQAVCItemData@@@?$vector@PAVCItemData@@V?$allocator@PAVCItemData@@@std@@@std@@QAEPAPAVCItemData@@QAPAV2@ABQAV2@@Z DD 00H
	DD	00H
	DD	01H
	DD	01H
	DD	FLAT:__catchsym$??$_Emplace_reallocate@ABQAVCItemData@@@?$vector@PAVCItemData@@V?$allocator@PAVCItemData@@@std@@@std@@QAEPAPAVCItemData@@QAPAV2@ABQAV2@@Z$32
__ehfuncinfo$??$_Emplace_reallocate@ABQAVCItemData@@@?$vector@PAVCItemData@@V?$allocator@PAVCItemData@@@std@@@std@@QAEPAPAVCItemData@@QAPAV2@ABQAV2@@Z DD 019930522H
	DD	02H
	DD	FLAT:__unwindtable$??$_Emplace_reallocate@ABQAVCItemData@@@?$vector@PAVCItemData@@V?$allocator@PAVCItemData@@@std@@@std@@QAEPAPAVCItemData@@QAPAV2@ABQAV2@@Z
	DD	01H
	DD	FLAT:__tryblocktable$??$_Emplace_reallocate@ABQAVCItemData@@@?$vector@PAVCItemData@@V?$allocator@PAVCItemData@@@std@@@std@@QAEPAPAVCItemData@@QAPAV2@ABQAV2@@Z
	DD	2 DUP(00H)
	DD	00H
	DD	01H
xdata$x	ENDS
;	COMDAT xdata$x
xdata$x	SEGMENT
__unwindtable$?Alloc@?$CDynamicPool@VCItemData@@@@QAEPAVCItemData@@XZ DD 0ffffffffH
	DD	FLAT:__unwindfunclet$?Alloc@?$CDynamicPool@VCItemData@@@@QAEPAVCItemData@@XZ$0
__ehfuncinfo$?Alloc@?$CDynamicPool@VCItemData@@@@QAEPAVCItemData@@XZ DD 019930522H
	DD	01H
	DD	FLAT:__unwindtable$?Alloc@?$CDynamicPool@VCItemData@@@@QAEPAVCItemData@@XZ
	DD	2 DUP(00H)
	DD	2 DUP(00H)
	DD	00H
	DD	01H
xdata$x	ENDS
;	COMDAT xdata$x
xdata$x	SEGMENT
__ehfuncinfo$??0CItemData@@QAE@XZ DD 019930522H
	DD	09H
	DD	FLAT:__unwindtable$??0CItemData@@QAE@XZ
	DD	2 DUP(00H)
	DD	2 DUP(00H)
	DD	00H
	DD	01H
__unwindtable$??0CItemData@@QAE@XZ DD 0ffffffffH
	DD	FLAT:__unwindfunclet$??0CItemData@@QAE@XZ$0
	DD	00H
	DD	FLAT:__unwindfunclet$??0CItemData@@QAE@XZ$1
	DD	01H
	DD	FLAT:__unwindfunclet$??0CItemData@@QAE@XZ$2
	DD	02H
	DD	FLAT:__unwindfunclet$??0CItemData@@QAE@XZ$3
	DD	03H
	DD	FLAT:__unwindfunclet$??0CItemData@@QAE@XZ$4
	DD	04H
	DD	FLAT:__unwindfunclet$??0CItemData@@QAE@XZ$5
	DD	05H
	DD	FLAT:__unwindfunclet$??0CItemData@@QAE@XZ$6
	DD	06H
	DD	FLAT:__unwindfunclet$??0CItemData@@QAE@XZ$7
	DD	07H
	DD	FLAT:__unwindfunclet$??0CItemData@@QAE@XZ$8
xdata$x	ENDS
;	COMDAT xdata$x
xdata$x	SEGMENT
__ehfuncinfo$??$_Deallocate@$07$0A@@std@@YAXPAXI@Z DD 019930522H
	DD	00H
	DD	00H
	DD	2 DUP(00H)
	DD	2 DUP(00H)
	DD	00H
	DD	05H
xdata$x	ENDS
; Function compile flags: /Odspy
; File C:\Program Files (x86)\Microsoft Visual Studio\2019\Community\VC\Tools\MSVC\14.28.29333\include\xutility
;	COMDAT ??$_Copy_memmove@PAPAVCGraphicThing@@PAPAV1@@std@@YAPAPAVCGraphicThing@@PAPAV1@00@Z
_TEXT	SEGMENT
__Last_ch$ = -16					; size = 4
__Count$ = -12						; size = 4
__Dest_ch$ = -8						; size = 4
__First_ch$ = -4					; size = 4
__First$ = 8						; size = 4
__Last$ = 12						; size = 4
__Dest$ = 16						; size = 4
??$_Copy_memmove@PAPAVCGraphicThing@@PAPAV1@@std@@YAPAPAVCGraphicThing@@PAPAV1@00@Z PROC ; std::_Copy_memmove<CGraphicThing * *,CGraphicThing * *>, COMDAT

; 4360 : _OutIt _Copy_memmove(_InIt _First, _InIt _Last, _OutIt _Dest) {

  00000	55		 push	 ebp
  00001	8b ec		 mov	 ebp, esp
  00003	83 ec 10	 sub	 esp, 16			; 00000010H

; 4361 :     const char* const _First_ch = const_cast<const char*>(reinterpret_cast<const volatile char*>(_First));

  00006	8b 45 08	 mov	 eax, DWORD PTR __First$[ebp]
  00009	89 45 fc	 mov	 DWORD PTR __First_ch$[ebp], eax

; 4362 :     const char* const _Last_ch  = const_cast<const char*>(reinterpret_cast<const volatile char*>(_Last));

  0000c	8b 45 0c	 mov	 eax, DWORD PTR __Last$[ebp]
  0000f	89 45 f0	 mov	 DWORD PTR __Last_ch$[ebp], eax

; 4363 :     char* const _Dest_ch        = const_cast<char*>(reinterpret_cast<volatile char*>(_Dest));

  00012	8b 45 10	 mov	 eax, DWORD PTR __Dest$[ebp]
  00015	89 45 f8	 mov	 DWORD PTR __Dest_ch$[ebp], eax

; 4364 :     const auto _Count           = static_cast<size_t>(_Last_ch - _First_ch);

  00018	8b 45 f0	 mov	 eax, DWORD PTR __Last_ch$[ebp]
  0001b	2b 45 fc	 sub	 eax, DWORD PTR __First_ch$[ebp]
  0001e	89 45 f4	 mov	 DWORD PTR __Count$[ebp], eax

; 4365 :     _CSTD memmove(_Dest_ch, _First_ch, _Count);

  00021	ff 75 f4	 push	 DWORD PTR __Count$[ebp]
  00024	ff 75 fc	 push	 DWORD PTR __First_ch$[ebp]
  00027	ff 75 f8	 push	 DWORD PTR __Dest_ch$[ebp]
  0002a	e8 00 00 00 00	 call	 _memmove
  0002f	83 c4 0c	 add	 esp, 12			; 0000000cH

; 4366 :     return reinterpret_cast<_OutIt>(_Dest_ch + _Count);

  00032	8b 45 f8	 mov	 eax, DWORD PTR __Dest_ch$[ebp]
  00035	03 45 f4	 add	 eax, DWORD PTR __Count$[ebp]

; 4367 : }

  00038	c9		 leave
  00039	c3		 ret	 0
??$_Copy_memmove@PAPAVCGraphicThing@@PAPAV1@@std@@YAPAPAVCGraphicThing@@PAPAV1@00@Z ENDP ; std::_Copy_memmove<CGraphicThing * *,CGraphicThing * *>
_TEXT	ENDS
; Function compile flags: /Odspy
; File C:\Program Files (x86)\Microsoft Visual Studio\2019\Community\VC\Tools\MSVC\14.28.29333\include\xmemory
; File C:\Program Files (x86)\Microsoft Visual Studio\2019\Community\VC\Tools\MSVC\14.28.29333\include\xstddef
; File C:\Program Files (x86)\Microsoft Visual Studio\2019\Community\VC\Tools\MSVC\14.28.29333\include\xmemory
;	COMDAT ??$_Uninitialized_move@PAPAVCGraphicThing@@V?$allocator@PAVCGraphicThing@@@std@@@std@@YAPAPAVCGraphicThing@@QAPAV1@0PAPAV1@AAV?$allocator@PAVCGraphicThing@@@0@@Z
_TEXT	SEGMENT
$T1 = -12						; size = 4
__UFirst$ = -8						; size = 4
__ULast$ = -4						; size = 4
__First$ = 8						; size = 4
__Last$ = 12						; size = 4
__Dest$ = 16						; size = 4
__Al$ = 20						; size = 4
??$_Uninitialized_move@PAPAVCGraphicThing@@V?$allocator@PAVCGraphicThing@@@std@@@std@@YAPAPAVCGraphicThing@@QAPAV1@0PAPAV1@AAV?$allocator@PAVCGraphicThing@@@0@@Z PROC ; std::_Uninitialized_move<CGraphicThing * *,std::allocator<CGraphicThing *> >, COMDAT

; 1685 :     const _InIt _First, const _InIt _Last, _Alloc_ptr_t<_Alloc> _Dest, _Alloc& _Al) {

  00000	55		 push	 ebp
  00001	8b ec		 mov	 ebp, esp
  00003	83 ec 0c	 sub	 esp, 12			; 0000000cH

; 1686 :     // move [_First, _Last) to raw _Dest, using _Al
; 1687 :     // note: only called internally from elsewhere in the STL
; 1688 :     using _Ptrval     = typename _Alloc::value_type*;
; 1689 :     auto _UFirst      = _Get_unwrapped(_First);

  00006	8b 45 08	 mov	 eax, DWORD PTR __First$[ebp]
  00009	89 45 f8	 mov	 DWORD PTR __UFirst$[ebp], eax

; 1690 :     const auto _ULast = _Get_unwrapped(_Last);

  0000c	8b 45 0c	 mov	 eax, DWORD PTR __Last$[ebp]
  0000f	89 45 fc	 mov	 DWORD PTR __ULast$[ebp], eax
; File C:\Program Files (x86)\Microsoft Visual Studio\2019\Community\VC\Tools\MSVC\14.28.29333\include\xstddef

; 289  :     return _Ptr;

  00012	8b 45 10	 mov	 eax, DWORD PTR __Dest$[ebp]
  00015	89 45 f4	 mov	 DWORD PTR $T1[ebp], eax
; File C:\Program Files (x86)\Microsoft Visual Studio\2019\Community\VC\Tools\MSVC\14.28.29333\include\xmemory

; 1693 :         _Copy_memmove(_UFirst, _ULast, _Unfancy(_Dest));

  00018	ff 75 f4	 push	 DWORD PTR $T1[ebp]
  0001b	ff 75 fc	 push	 DWORD PTR __ULast$[ebp]
  0001e	ff 75 f8	 push	 DWORD PTR __UFirst$[ebp]
  00021	e8 00 00 00 00	 call	 ??$_Copy_memmove@PAPAVCGraphicThing@@PAPAV1@@std@@YAPAPAVCGraphicThing@@PAPAV1@00@Z ; std::_Copy_memmove<CGraphicThing * *,CGraphicThing * *>
  00026	83 c4 0c	 add	 esp, 12			; 0000000cH

; 1694 :         return _Dest + (_ULast - _UFirst);

  00029	8b 45 fc	 mov	 eax, DWORD PTR __ULast$[ebp]
  0002c	2b 45 f8	 sub	 eax, DWORD PTR __UFirst$[ebp]
  0002f	c1 f8 02	 sar	 eax, 2
  00032	8b 4d 10	 mov	 ecx, DWORD PTR __Dest$[ebp]
  00035	8d 04 81	 lea	 eax, DWORD PTR [ecx+eax*4]

; 1695 :     } else {
; 1696 :         _Uninitialized_backout_al<_Alloc> _Backout{_Dest, _Al};
; 1697 :         for (; _UFirst != _ULast; ++_UFirst) {
; 1698 :             _Backout._Emplace_back(_STD move(*_UFirst));
; 1699 :         }
; 1700 : 
; 1701 :         return _Backout._Release();
; 1702 :     }
; 1703 : }

  00038	c9		 leave
  00039	c3		 ret	 0
??$_Uninitialized_move@PAPAVCGraphicThing@@V?$allocator@PAVCGraphicThing@@@std@@@std@@YAPAPAVCGraphicThing@@QAPAV1@0PAPAV1@AAV?$allocator@PAVCGraphicThing@@@0@@Z ENDP ; std::_Uninitialized_move<CGraphicThing * *,std::allocator<CGraphicThing *> >
_TEXT	ENDS
; Function compile flags: /Odspy
; File C:\Program Files (x86)\Microsoft Visual Studio\2019\Community\VC\Tools\MSVC\14.28.29333\include\xmemory
;	COMDAT ??$_Zero_range@PAPAVCGraphicThing@@@std@@YAPAPAVCGraphicThing@@QAPAV1@0@Z
_TEXT	SEGMENT
__Last_ch$ = -8						; size = 4
__First_ch$ = -4					; size = 4
__First$ = 8						; size = 4
__Last$ = 12						; size = 4
??$_Zero_range@PAPAVCGraphicThing@@@std@@YAPAPAVCGraphicThing@@QAPAV1@0@Z PROC ; std::_Zero_range<CGraphicThing * *>, COMDAT

; 1852 : _Ptr _Zero_range(const _Ptr _First, const _Ptr _Last) { // fill [_First, _Last) with zeroes

  00000	55		 push	 ebp
  00001	8b ec		 mov	 ebp, esp
  00003	51		 push	 ecx
  00004	51		 push	 ecx

; 1853 :     char* const _First_ch = reinterpret_cast<char*>(_First);

  00005	8b 45 08	 mov	 eax, DWORD PTR __First$[ebp]
  00008	89 45 fc	 mov	 DWORD PTR __First_ch$[ebp], eax

; 1854 :     char* const _Last_ch  = reinterpret_cast<char*>(_Last);

  0000b	8b 45 0c	 mov	 eax, DWORD PTR __Last$[ebp]
  0000e	89 45 f8	 mov	 DWORD PTR __Last_ch$[ebp], eax

; 1855 :     _CSTD memset(_First_ch, 0, static_cast<size_t>(_Last_ch - _First_ch));

  00011	8b 45 f8	 mov	 eax, DWORD PTR __Last_ch$[ebp]
  00014	2b 45 fc	 sub	 eax, DWORD PTR __First_ch$[ebp]
  00017	50		 push	 eax
  00018	6a 00		 push	 0
  0001a	ff 75 fc	 push	 DWORD PTR __First_ch$[ebp]
  0001d	e8 00 00 00 00	 call	 _memset
  00022	83 c4 0c	 add	 esp, 12			; 0000000cH

; 1856 :     return _Last;

  00025	8b 45 0c	 mov	 eax, DWORD PTR __Last$[ebp]

; 1857 : }

  00028	c9		 leave
  00029	c3		 ret	 0
??$_Zero_range@PAPAVCGraphicThing@@@std@@YAPAPAVCGraphicThing@@QAPAV1@0@Z ENDP ; std::_Zero_range<CGraphicThing * *>
_TEXT	ENDS
; Function compile flags: /Odspy
; File C:\Program Files (x86)\Microsoft Visual Studio\2019\Community\VC\Tools\MSVC\14.28.29333\include\xutility
;	COMDAT ??$_Copy_memmove@PAPAVCItemData@@PAPAV1@@std@@YAPAPAVCItemData@@PAPAV1@00@Z
_TEXT	SEGMENT
__Last_ch$ = -16					; size = 4
__Count$ = -12						; size = 4
__Dest_ch$ = -8						; size = 4
__First_ch$ = -4					; size = 4
__First$ = 8						; size = 4
__Last$ = 12						; size = 4
__Dest$ = 16						; size = 4
??$_Copy_memmove@PAPAVCItemData@@PAPAV1@@std@@YAPAPAVCItemData@@PAPAV1@00@Z PROC ; std::_Copy_memmove<CItemData * *,CItemData * *>, COMDAT

; 4360 : _OutIt _Copy_memmove(_InIt _First, _InIt _Last, _OutIt _Dest) {

  00000	55		 push	 ebp
  00001	8b ec		 mov	 ebp, esp
  00003	83 ec 10	 sub	 esp, 16			; 00000010H

; 4361 :     const char* const _First_ch = const_cast<const char*>(reinterpret_cast<const volatile char*>(_First));

  00006	8b 45 08	 mov	 eax, DWORD PTR __First$[ebp]
  00009	89 45 fc	 mov	 DWORD PTR __First_ch$[ebp], eax

; 4362 :     const char* const _Last_ch  = const_cast<const char*>(reinterpret_cast<const volatile char*>(_Last));

  0000c	8b 45 0c	 mov	 eax, DWORD PTR __Last$[ebp]
  0000f	89 45 f0	 mov	 DWORD PTR __Last_ch$[ebp], eax

; 4363 :     char* const _Dest_ch        = const_cast<char*>(reinterpret_cast<volatile char*>(_Dest));

  00012	8b 45 10	 mov	 eax, DWORD PTR __Dest$[ebp]
  00015	89 45 f8	 mov	 DWORD PTR __Dest_ch$[ebp], eax

; 4364 :     const auto _Count           = static_cast<size_t>(_Last_ch - _First_ch);

  00018	8b 45 f0	 mov	 eax, DWORD PTR __Last_ch$[ebp]
  0001b	2b 45 fc	 sub	 eax, DWORD PTR __First_ch$[ebp]
  0001e	89 45 f4	 mov	 DWORD PTR __Count$[ebp], eax

; 4365 :     _CSTD memmove(_Dest_ch, _First_ch, _Count);

  00021	ff 75 f4	 push	 DWORD PTR __Count$[ebp]
  00024	ff 75 fc	 push	 DWORD PTR __First_ch$[ebp]
  00027	ff 75 f8	 push	 DWORD PTR __Dest_ch$[ebp]
  0002a	e8 00 00 00 00	 call	 _memmove
  0002f	83 c4 0c	 add	 esp, 12			; 0000000cH

; 4366 :     return reinterpret_cast<_OutIt>(_Dest_ch + _Count);

  00032	8b 45 f8	 mov	 eax, DWORD PTR __Dest_ch$[ebp]
  00035	03 45 f4	 add	 eax, DWORD PTR __Count$[ebp]

; 4367 : }

  00038	c9		 leave
  00039	c3		 ret	 0
??$_Copy_memmove@PAPAVCItemData@@PAPAV1@@std@@YAPAPAVCItemData@@PAPAV1@00@Z ENDP ; std::_Copy_memmove<CItemData * *,CItemData * *>
_TEXT	ENDS
; Function compile flags: /Odspy
; File C:\Program Files (x86)\Microsoft Visual Studio\2019\Community\VC\Tools\MSVC\14.28.29333\include\xmemory
; File C:\Program Files (x86)\Microsoft Visual Studio\2019\Community\VC\Tools\MSVC\14.28.29333\include\xstddef
; File C:\Program Files (x86)\Microsoft Visual Studio\2019\Community\VC\Tools\MSVC\14.28.29333\include\xmemory
;	COMDAT ??$_Uninitialized_value_construct_n@V?$allocator@PAVCGraphicThing@@@std@@@std@@YAPAPAVCGraphicThing@@PAPAV1@IAAV?$allocator@PAVCGraphicThing@@@0@@Z
_TEXT	SEGMENT
__PFirst$1 = -4						; size = 4
__First$ = 8						; size = 4
__Count$ = 12						; size = 4
__Al$ = 16						; size = 4
??$_Uninitialized_value_construct_n@V?$allocator@PAVCGraphicThing@@@std@@@std@@YAPAPAVCGraphicThing@@PAPAV1@IAAV?$allocator@PAVCGraphicThing@@@0@@Z PROC ; std::_Uninitialized_value_construct_n<std::allocator<CGraphicThing *> >, COMDAT

; 1862 :     _Alloc_ptr_t<_Alloc> _First, _Alloc_size_t<_Alloc> _Count, _Alloc& _Al) {

  00000	55		 push	 ebp
  00001	8b ec		 mov	 ebp, esp
  00003	51		 push	 ecx
; File C:\Program Files (x86)\Microsoft Visual Studio\2019\Community\VC\Tools\MSVC\14.28.29333\include\xstddef

; 289  :     return _Ptr;

  00004	8b 45 08	 mov	 eax, DWORD PTR __First$[ebp]
  00007	89 45 fc	 mov	 DWORD PTR __PFirst$1[ebp], eax
; File C:\Program Files (x86)\Microsoft Visual Studio\2019\Community\VC\Tools\MSVC\14.28.29333\include\xmemory

; 1867 :         _Zero_range(_PFirst, _PFirst + _Count);

  0000a	8b 45 0c	 mov	 eax, DWORD PTR __Count$[ebp]
  0000d	8b 4d fc	 mov	 ecx, DWORD PTR __PFirst$1[ebp]
  00010	8d 04 81	 lea	 eax, DWORD PTR [ecx+eax*4]
  00013	50		 push	 eax
  00014	ff 75 fc	 push	 DWORD PTR __PFirst$1[ebp]
  00017	e8 00 00 00 00	 call	 ??$_Zero_range@PAPAVCGraphicThing@@@std@@YAPAPAVCGraphicThing@@QAPAV1@0@Z ; std::_Zero_range<CGraphicThing * *>
  0001c	59		 pop	 ecx
  0001d	59		 pop	 ecx

; 1868 :         return _First + _Count;

  0001e	8b 45 0c	 mov	 eax, DWORD PTR __Count$[ebp]
  00021	8b 4d 08	 mov	 ecx, DWORD PTR __First$[ebp]
  00024	8d 04 81	 lea	 eax, DWORD PTR [ecx+eax*4]

; 1869 :     } else {
; 1870 :         _Uninitialized_backout_al<_Alloc> _Backout{_First, _Al};
; 1871 :         for (; 0 < _Count; --_Count) {
; 1872 :             _Backout._Emplace_back();
; 1873 :         }
; 1874 : 
; 1875 :         return _Backout._Release();
; 1876 :     }
; 1877 : }

  00027	c9		 leave
  00028	c3		 ret	 0
??$_Uninitialized_value_construct_n@V?$allocator@PAVCGraphicThing@@@std@@@std@@YAPAPAVCGraphicThing@@PAPAV1@IAAV?$allocator@PAVCGraphicThing@@@0@@Z ENDP ; std::_Uninitialized_value_construct_n<std::allocator<CGraphicThing *> >
_TEXT	ENDS
; Function compile flags: /Odspy
; File C:\Program Files (x86)\Microsoft Visual Studio\2019\Community\VC\Tools\MSVC\14.28.29333\include\xmemory
; File C:\Program Files (x86)\Microsoft Visual Studio\2019\Community\VC\Tools\MSVC\14.28.29333\include\xstddef
; File C:\Program Files (x86)\Microsoft Visual Studio\2019\Community\VC\Tools\MSVC\14.28.29333\include\xmemory
;	COMDAT ??$_Uninitialized_move@PAPAVCItemData@@V?$allocator@PAVCItemData@@@std@@@std@@YAPAPAVCItemData@@QAPAV1@0PAPAV1@AAV?$allocator@PAVCItemData@@@0@@Z
_TEXT	SEGMENT
$T1 = -12						; size = 4
__UFirst$ = -8						; size = 4
__ULast$ = -4						; size = 4
__First$ = 8						; size = 4
__Last$ = 12						; size = 4
__Dest$ = 16						; size = 4
__Al$ = 20						; size = 4
??$_Uninitialized_move@PAPAVCItemData@@V?$allocator@PAVCItemData@@@std@@@std@@YAPAPAVCItemData@@QAPAV1@0PAPAV1@AAV?$allocator@PAVCItemData@@@0@@Z PROC ; std::_Uninitialized_move<CItemData * *,std::allocator<CItemData *> >, COMDAT

; 1685 :     const _InIt _First, const _InIt _Last, _Alloc_ptr_t<_Alloc> _Dest, _Alloc& _Al) {

  00000	55		 push	 ebp
  00001	8b ec		 mov	 ebp, esp
  00003	83 ec 0c	 sub	 esp, 12			; 0000000cH

; 1686 :     // move [_First, _Last) to raw _Dest, using _Al
; 1687 :     // note: only called internally from elsewhere in the STL
; 1688 :     using _Ptrval     = typename _Alloc::value_type*;
; 1689 :     auto _UFirst      = _Get_unwrapped(_First);

  00006	8b 45 08	 mov	 eax, DWORD PTR __First$[ebp]
  00009	89 45 f8	 mov	 DWORD PTR __UFirst$[ebp], eax

; 1690 :     const auto _ULast = _Get_unwrapped(_Last);

  0000c	8b 45 0c	 mov	 eax, DWORD PTR __Last$[ebp]
  0000f	89 45 fc	 mov	 DWORD PTR __ULast$[ebp], eax
; File C:\Program Files (x86)\Microsoft Visual Studio\2019\Community\VC\Tools\MSVC\14.28.29333\include\xstddef

; 289  :     return _Ptr;

  00012	8b 45 10	 mov	 eax, DWORD PTR __Dest$[ebp]
  00015	89 45 f4	 mov	 DWORD PTR $T1[ebp], eax
; File C:\Program Files (x86)\Microsoft Visual Studio\2019\Community\VC\Tools\MSVC\14.28.29333\include\xmemory

; 1693 :         _Copy_memmove(_UFirst, _ULast, _Unfancy(_Dest));

  00018	ff 75 f4	 push	 DWORD PTR $T1[ebp]
  0001b	ff 75 fc	 push	 DWORD PTR __ULast$[ebp]
  0001e	ff 75 f8	 push	 DWORD PTR __UFirst$[ebp]
  00021	e8 00 00 00 00	 call	 ??$_Copy_memmove@PAPAVCItemData@@PAPAV1@@std@@YAPAPAVCItemData@@PAPAV1@00@Z ; std::_Copy_memmove<CItemData * *,CItemData * *>
  00026	83 c4 0c	 add	 esp, 12			; 0000000cH

; 1694 :         return _Dest + (_ULast - _UFirst);

  00029	8b 45 fc	 mov	 eax, DWORD PTR __ULast$[ebp]
  0002c	2b 45 f8	 sub	 eax, DWORD PTR __UFirst$[ebp]
  0002f	c1 f8 02	 sar	 eax, 2
  00032	8b 4d 10	 mov	 ecx, DWORD PTR __Dest$[ebp]
  00035	8d 04 81	 lea	 eax, DWORD PTR [ecx+eax*4]

; 1695 :     } else {
; 1696 :         _Uninitialized_backout_al<_Alloc> _Backout{_Dest, _Al};
; 1697 :         for (; _UFirst != _ULast; ++_UFirst) {
; 1698 :             _Backout._Emplace_back(_STD move(*_UFirst));
; 1699 :         }
; 1700 : 
; 1701 :         return _Backout._Release();
; 1702 :     }
; 1703 : }

  00038	c9		 leave
  00039	c3		 ret	 0
??$_Uninitialized_move@PAPAVCItemData@@V?$allocator@PAVCItemData@@@std@@@std@@YAPAPAVCItemData@@QAPAV1@0PAPAV1@AAV?$allocator@PAVCItemData@@@0@@Z ENDP ; std::_Uninitialized_move<CItemData * *,std::allocator<CItemData *> >
_TEXT	ENDS
; Function compile flags: /Odspy
; File C:\Program Files (x86)\Microsoft Visual Studio\2019\Community\VC\Tools\MSVC\14.28.29333\include\vector
; File C:\Program Files (x86)\Microsoft Visual Studio\2019\Community\VC\Tools\MSVC\14.28.29333\include\xmemory
; File C:\Program Files (x86)\Microsoft Visual Studio\2019\Community\VC\Tools\MSVC\14.28.29333\include\vector
; File C:\Program Files (x86)\Microsoft Visual Studio\2019\Community\VC\Tools\MSVC\14.28.29333\include\xmemory
; File C:\Program Files (x86)\Microsoft Visual Studio\2019\Community\VC\Tools\MSVC\14.28.29333\include\limits
; File C:\Program Files (x86)\Microsoft Visual Studio\2019\Community\VC\Tools\MSVC\14.28.29333\include\vector
; File C:\Program Files (x86)\Microsoft Visual Studio\2019\Community\VC\Tools\MSVC\14.28.29333\include\utility
; File C:\Program Files (x86)\Microsoft Visual Studio\2019\Community\VC\Tools\MSVC\14.28.29333\include\vector
; File C:\Program Files (x86)\Microsoft Visual Studio\2019\Community\VC\Tools\MSVC\14.28.29333\include\xmemory
; File C:\Program Files (x86)\Microsoft Visual Studio\2019\Community\VC\Tools\MSVC\14.28.29333\include\vector
; File C:\Program Files (x86)\Microsoft Visual Studio\2019\Community\VC\Tools\MSVC\14.28.29333\include\xmemory
; File C:\Program Files (x86)\Microsoft Visual Studio\2019\Community\VC\Tools\MSVC\14.28.29333\include\vector
; File C:\Program Files (x86)\Microsoft Visual Studio\2019\Community\VC\Tools\MSVC\14.28.29333\include\xmemory
; File C:\Program Files (x86)\Microsoft Visual Studio\2019\Community\VC\Tools\MSVC\14.28.29333\include\vector
; File C:\Program Files (x86)\Microsoft Visual Studio\2019\Community\VC\Tools\MSVC\14.28.29333\include\xmemory
; File C:\Program Files (x86)\Microsoft Visual Studio\2019\Community\VC\Tools\MSVC\14.28.29333\include\vector
;	COMDAT ??$_Resize_reallocate@U_Value_init_tag@std@@@?$vector@PAVCGraphicThing@@V?$allocator@PAVCGraphicThing@@@std@@@std@@AAEXIABU_Value_init_tag@1@@Z
_TEXT	SEGMENT
__Max_possible$2 = -148					; size = 4
$T3 = -144						; size = 4
$T4 = -140						; size = 4
__First$ = -136						; size = 4
__Last$ = -132						; size = 4
$T5 = -128						; size = 4
$T6 = -124						; size = 4
tv244 = -120						; size = 4
$T7 = -116						; size = 4
$T8 = -112						; size = 4
$T9 = -108						; size = 4
$T10 = -104						; size = 4
$T11 = -100						; size = 4
$T12 = -96						; size = 4
$T13 = -92						; size = 4
$T14 = -88						; size = 4
$T15 = -84						; size = 4
__Appended_last$ = -80					; size = 4
__Myfirst$ = -76					; size = 4
__Mylast$ = -72						; size = 4
__Oldsize$ = -68					; size = 4
__My_data$ = -64					; size = 4
tv147 = -60						; size = 4
$T16 = -56						; size = 4
$T17 = -52						; size = 4
__Appended_first$ = -48					; size = 4
___formal$ = -44					; size = 1
___formal$ = -40					; size = 1
__Overflow_is_possible$18 = -33				; size = 1
__Newvec$ = -32						; size = 4
__Newcapacity$ = -28					; size = 4
$T19 = -21						; size = 1
_this$ = -20						; size = 4
__$EHRec$ = -16						; size = 16
__Newsize$ = 8						; size = 4
__Val$ = 12						; size = 4
??$_Resize_reallocate@U_Value_init_tag@std@@@?$vector@PAVCGraphicThing@@V?$allocator@PAVCGraphicThing@@@std@@@std@@AAEXIABU_Value_init_tag@1@@Z PROC ; std::vector<CGraphicThing *,std::allocator<CGraphicThing *> >::_Resize_reallocate<std::_Value_init_tag>, COMDAT
; _this$ = ecx

; 1182 :     void _Resize_reallocate(const size_type _Newsize, const _Ty2& _Val) {

  00000	55		 push	 ebp
  00001	8b ec		 mov	 ebp, esp
  00003	6a ff		 push	 -1
  00005	68 00 00 00 00	 push	 __ehhandler$??$_Resize_reallocate@U_Value_init_tag@std@@@?$vector@PAVCGraphicThing@@V?$allocator@PAVCGraphicThing@@@std@@@std@@AAEXIABU_Value_init_tag@1@@Z
  0000a	64 a1 00 00 00
	00		 mov	 eax, DWORD PTR fs:0
  00010	50		 push	 eax
  00011	51		 push	 ecx
  00012	81 ec 84 00 00
	00		 sub	 esp, 132		; 00000084H
  00018	53		 push	 ebx
  00019	56		 push	 esi
  0001a	57		 push	 edi
  0001b	a1 00 00 00 00	 mov	 eax, DWORD PTR ___security_cookie
  00020	33 c5		 xor	 eax, ebp
  00022	50		 push	 eax
  00023	8d 45 f4	 lea	 eax, DWORD PTR __$EHRec$[ebp+4]
  00026	64 a3 00 00 00
	00		 mov	 DWORD PTR fs:0, eax
  0002c	89 65 f0	 mov	 DWORD PTR __$EHRec$[ebp], esp
  0002f	89 4d ec	 mov	 DWORD PTR _this$[ebp], ecx

; 1737 :         return _Mypair._Get_first();

  00032	8b 45 ec	 mov	 eax, DWORD PTR _this$[ebp]
; File C:\Program Files (x86)\Microsoft Visual Studio\2019\Community\VC\Tools\MSVC\14.28.29333\include\xmemory

; 1351 :         return *this;

  00035	89 45 ac	 mov	 DWORD PTR $T15[ebp], eax
; File C:\Program Files (x86)\Microsoft Visual Studio\2019\Community\VC\Tools\MSVC\14.28.29333\include\vector

; 1737 :         return _Mypair._Get_first();

  00038	8b 45 ac	 mov	 eax, DWORD PTR $T15[ebp]
  0003b	89 85 74 ff ff
	ff		 mov	 DWORD PTR $T4[ebp], eax
; File C:\Program Files (x86)\Microsoft Visual Studio\2019\Community\VC\Tools\MSVC\14.28.29333\include\xmemory

; 710  :         return static_cast<size_t>(-1) / sizeof(value_type);

  00041	c7 45 cc ff ff
	ff 3f		 mov	 DWORD PTR $T17[ebp], 1073741823 ; 3fffffffH
; File C:\Program Files (x86)\Microsoft Visual Studio\2019\Community\VC\Tools\MSVC\14.28.29333\include\limits

; 557  :         return INT_MAX;

  00048	c7 45 a8 ff ff
	ff 7f		 mov	 DWORD PTR $T14[ebp], 2147483647 ; 7fffffffH
; File C:\Program Files (x86)\Microsoft Visual Studio\2019\Community\VC\Tools\MSVC\14.28.29333\include\vector

; 1488 :         return (_STD min)(

  0004f	8b 45 a8	 mov	 eax, DWORD PTR $T14[ebp]
  00052	89 45 c8	 mov	 DWORD PTR $T16[ebp], eax
; File C:\Program Files (x86)\Microsoft Visual Studio\2019\Community\VC\Tools\MSVC\14.28.29333\include\utility

; 68   :     return _Right < _Left ? _Right : _Left;

  00055	8b 45 cc	 mov	 eax, DWORD PTR $T17[ebp]
  00058	3b 45 c8	 cmp	 eax, DWORD PTR $T16[ebp]
  0005b	73 08		 jae	 SHORT $LN26@Resize_rea
  0005d	8d 45 cc	 lea	 eax, DWORD PTR $T17[ebp]
  00060	89 45 c4	 mov	 DWORD PTR tv147[ebp], eax
  00063	eb 06		 jmp	 SHORT $LN27@Resize_rea
$LN26@Resize_rea:
  00065	8d 45 c8	 lea	 eax, DWORD PTR $T16[ebp]
  00068	89 45 c4	 mov	 DWORD PTR tv147[ebp], eax
$LN27@Resize_rea:
  0006b	8b 45 c4	 mov	 eax, DWORD PTR tv147[ebp]
  0006e	89 45 a4	 mov	 DWORD PTR $T13[ebp], eax
  00071	8b 45 a4	 mov	 eax, DWORD PTR $T13[ebp]
  00074	89 45 a0	 mov	 DWORD PTR $T12[ebp], eax
; File C:\Program Files (x86)\Microsoft Visual Studio\2019\Community\VC\Tools\MSVC\14.28.29333\include\vector

; 1488 :         return (_STD min)(

  00077	8b 45 a0	 mov	 eax, DWORD PTR $T12[ebp]
  0007a	8b 00		 mov	 eax, DWORD PTR [eax]
  0007c	89 45 9c	 mov	 DWORD PTR $T11[ebp], eax

; 1183 :         if (_Newsize > max_size()) {

  0007f	8b 45 08	 mov	 eax, DWORD PTR __Newsize$[ebp]
  00082	3b 45 9c	 cmp	 eax, DWORD PTR $T11[ebp]
  00085	76 05		 jbe	 SHORT $LN2@Resize_rea

; 1184 :             _Xlength();

  00087	e8 00 00 00 00	 call	 ?_Xlength@?$vector@PAVCGraphicThing@@V?$allocator@PAVCGraphicThing@@@std@@@std@@CAXXZ ; std::vector<CGraphicThing *,std::allocator<CGraphicThing *> >::_Xlength
$LN2@Resize_rea:

; 1185 :         }
; 1186 : 
; 1187 :         auto& _My_data    = _Mypair._Myval2;

  0008c	8b 45 ec	 mov	 eax, DWORD PTR _this$[ebp]
  0008f	89 45 c0	 mov	 DWORD PTR __My_data$[ebp], eax

; 1188 :         pointer& _Myfirst = _My_data._Myfirst;

  00092	8b 45 c0	 mov	 eax, DWORD PTR __My_data$[ebp]
  00095	89 45 b4	 mov	 DWORD PTR __Myfirst$[ebp], eax

; 1189 :         pointer& _Mylast  = _My_data._Mylast;

  00098	8b 45 c0	 mov	 eax, DWORD PTR __My_data$[ebp]
  0009b	83 c0 04	 add	 eax, 4
  0009e	89 45 b8	 mov	 DWORD PTR __Mylast$[ebp], eax

; 1190 : 
; 1191 :         const auto _Oldsize          = static_cast<size_type>(_Mylast - _Myfirst);

  000a1	8b 45 b8	 mov	 eax, DWORD PTR __Mylast$[ebp]
  000a4	8b 4d b4	 mov	 ecx, DWORD PTR __Myfirst$[ebp]
  000a7	8b 00		 mov	 eax, DWORD PTR [eax]
  000a9	2b 01		 sub	 eax, DWORD PTR [ecx]
  000ab	c1 f8 02	 sar	 eax, 2
  000ae	89 45 bc	 mov	 DWORD PTR __Oldsize$[ebp], eax

; 1192 :         const size_type _Newcapacity = _Calculate_growth(_Newsize);

  000b1	ff 75 08	 push	 DWORD PTR __Newsize$[ebp]
  000b4	8b 4d ec	 mov	 ecx, DWORD PTR _this$[ebp]
  000b7	e8 00 00 00 00	 call	 ?_Calculate_growth@?$vector@PAVCGraphicThing@@V?$allocator@PAVCGraphicThing@@@std@@@std@@ABEII@Z ; std::vector<CGraphicThing *,std::allocator<CGraphicThing *> >::_Calculate_growth
  000bc	89 45 e4	 mov	 DWORD PTR __Newcapacity$[ebp], eax

; 1733 :         return _Mypair._Get_first();

  000bf	8b 45 ec	 mov	 eax, DWORD PTR _this$[ebp]
; File C:\Program Files (x86)\Microsoft Visual Studio\2019\Community\VC\Tools\MSVC\14.28.29333\include\xmemory

; 1347 :         return *this;

  000c2	89 45 98	 mov	 DWORD PTR $T10[ebp], eax
; File C:\Program Files (x86)\Microsoft Visual Studio\2019\Community\VC\Tools\MSVC\14.28.29333\include\vector

; 1733 :         return _Mypair._Get_first();

  000c5	8b 45 98	 mov	 eax, DWORD PTR $T10[ebp]
  000c8	89 85 70 ff ff
	ff		 mov	 DWORD PTR $T3[ebp], eax
; File C:\Program Files (x86)\Microsoft Visual Studio\2019\Community\VC\Tools\MSVC\14.28.29333\include\xmemory

; 56   :     constexpr bool _Overflow_is_possible = _Ty_size > 1;

  000ce	c6 45 df 01	 mov	 BYTE PTR __Overflow_is_possible$18[ebp], 1

; 57   : 
; 58   :     if _CONSTEXPR_IF (_Overflow_is_possible) {
; 59   :         constexpr size_t _Max_possible = static_cast<size_t>(-1) / _Ty_size;

  000d2	c7 85 6c ff ff
	ff ff ff ff 3f	 mov	 DWORD PTR __Max_possible$2[ebp], 1073741823 ; 3fffffffH

; 60   :         if (_Count > _Max_possible) {

  000dc	81 7d e4 ff ff
	ff 3f		 cmp	 DWORD PTR __Newcapacity$[ebp], 1073741823 ; 3fffffffH
  000e3	76 05		 jbe	 SHORT $LN65@Resize_rea

; 61   :             _Throw_bad_array_new_length(); // multiply overflow

  000e5	e8 00 00 00 00	 call	 ?_Throw_bad_array_new_length@std@@YAXXZ ; std::_Throw_bad_array_new_length
$LN65@Resize_rea:

; 62   :         }
; 63   :     }
; 64   : 
; 65   :     return _Count * _Ty_size;

  000ea	8b 45 e4	 mov	 eax, DWORD PTR __Newcapacity$[ebp]
  000ed	c1 e0 02	 shl	 eax, 2
  000f0	89 45 94	 mov	 DWORD PTR $T9[ebp], eax

; 814  :         return static_cast<_Ty*>(_Allocate<_New_alignof<_Ty>>(_Get_size_of_n<sizeof(_Ty)>(_Count)));

  000f3	ff 75 94	 push	 DWORD PTR $T9[ebp]
  000f6	e8 00 00 00 00	 call	 ??$_Allocate@$07U_Default_allocate_traits@std@@$0A@@std@@YAPAXI@Z ; std::_Allocate<8,std::_Default_allocate_traits,0>
  000fb	59		 pop	 ecx
  000fc	89 45 e0	 mov	 DWORD PTR __Newvec$[ebp], eax
; File C:\Program Files (x86)\Microsoft Visual Studio\2019\Community\VC\Tools\MSVC\14.28.29333\include\vector

; 1195 :         const pointer _Appended_first = _Newvec + _Oldsize;

  000ff	8b 45 bc	 mov	 eax, DWORD PTR __Oldsize$[ebp]
  00102	8b 4d e0	 mov	 ecx, DWORD PTR __Newvec$[ebp]
  00105	8d 04 81	 lea	 eax, DWORD PTR [ecx+eax*4]
  00108	89 45 d0	 mov	 DWORD PTR __Appended_first$[ebp], eax

; 1196 :         pointer _Appended_last        = _Appended_first;

  0010b	8b 45 d0	 mov	 eax, DWORD PTR __Appended_first$[ebp]
  0010e	89 45 b0	 mov	 DWORD PTR __Appended_last$[ebp], eax

; 1197 : 
; 1198 :         _TRY_BEGIN

  00111	83 65 fc 00	 and	 DWORD PTR __$EHRec$[ebp+12], 0

; 1199 :         _Appended_last = _Ufill(_Appended_first, _Newsize - _Oldsize, _Val);

  00115	8b 45 0c	 mov	 eax, DWORD PTR __Val$[ebp]
  00118	8a 00		 mov	 al, BYTE PTR [eax]
  0011a	88 45 d8	 mov	 BYTE PTR ___formal$[ebp], al

; 1733 :         return _Mypair._Get_first();

  0011d	8b 45 ec	 mov	 eax, DWORD PTR _this$[ebp]
; File C:\Program Files (x86)\Microsoft Visual Studio\2019\Community\VC\Tools\MSVC\14.28.29333\include\xmemory

; 1347 :         return *this;

  00120	89 45 90	 mov	 DWORD PTR $T8[ebp], eax
; File C:\Program Files (x86)\Microsoft Visual Studio\2019\Community\VC\Tools\MSVC\14.28.29333\include\vector

; 1733 :         return _Mypair._Get_first();

  00123	8b 45 90	 mov	 eax, DWORD PTR $T8[ebp]
  00126	89 45 8c	 mov	 DWORD PTR $T7[ebp], eax

; 1583 :         return _Uninitialized_value_construct_n(_Dest, _Count, _Getal());

  00129	ff 75 8c	 push	 DWORD PTR $T7[ebp]

; 1199 :         _Appended_last = _Ufill(_Appended_first, _Newsize - _Oldsize, _Val);

  0012c	8b 45 08	 mov	 eax, DWORD PTR __Newsize$[ebp]
  0012f	2b 45 bc	 sub	 eax, DWORD PTR __Oldsize$[ebp]

; 1583 :         return _Uninitialized_value_construct_n(_Dest, _Count, _Getal());

  00132	50		 push	 eax
  00133	ff 75 d0	 push	 DWORD PTR __Appended_first$[ebp]
  00136	e8 00 00 00 00	 call	 ??$_Uninitialized_value_construct_n@V?$allocator@PAVCGraphicThing@@@std@@@std@@YAPAPAVCGraphicThing@@PAPAV1@IAAV?$allocator@PAVCGraphicThing@@@0@@Z ; std::_Uninitialized_value_construct_n<std::allocator<CGraphicThing *> >
  0013b	83 c4 0c	 add	 esp, 12			; 0000000cH
  0013e	89 45 88	 mov	 DWORD PTR tv244[ebp], eax

; 1199 :         _Appended_last = _Ufill(_Appended_first, _Newsize - _Oldsize, _Val);

  00141	8b 45 88	 mov	 eax, DWORD PTR tv244[ebp]
  00144	89 45 b0	 mov	 DWORD PTR __Appended_last$[ebp], eax

; 1200 :         _Umove_if_noexcept(_Myfirst, _Mylast, _Newvec);

  00147	8b 45 b8	 mov	 eax, DWORD PTR __Mylast$[ebp]
  0014a	8b 00		 mov	 eax, DWORD PTR [eax]
  0014c	89 85 7c ff ff
	ff		 mov	 DWORD PTR __Last$[ebp], eax
  00152	8b 45 b4	 mov	 eax, DWORD PTR __Myfirst$[ebp]
  00155	8b 00		 mov	 eax, DWORD PTR [eax]
  00157	89 85 78 ff ff
	ff		 mov	 DWORD PTR __First$[ebp], eax

; 1607 :         _Umove_if_noexcept1(_First, _Last, _Dest,

  0015d	33 c0		 xor	 eax, eax
  0015f	88 45 eb	 mov	 BYTE PTR $T19[ebp], al
  00162	8a 45 eb	 mov	 al, BYTE PTR $T19[ebp]
  00165	88 45 d4	 mov	 BYTE PTR ___formal$[ebp], al

; 1733 :         return _Mypair._Get_first();

  00168	8b 45 ec	 mov	 eax, DWORD PTR _this$[ebp]
; File C:\Program Files (x86)\Microsoft Visual Studio\2019\Community\VC\Tools\MSVC\14.28.29333\include\xmemory

; 1347 :         return *this;

  0016b	89 45 84	 mov	 DWORD PTR $T6[ebp], eax
; File C:\Program Files (x86)\Microsoft Visual Studio\2019\Community\VC\Tools\MSVC\14.28.29333\include\vector

; 1733 :         return _Mypair._Get_first();

  0016e	8b 45 84	 mov	 eax, DWORD PTR $T6[ebp]
  00171	89 45 80	 mov	 DWORD PTR $T5[ebp], eax

; 1597 :         _Uninitialized_move(_First, _Last, _Dest, _Getal());

  00174	ff 75 80	 push	 DWORD PTR $T5[ebp]
  00177	ff 75 e0	 push	 DWORD PTR __Newvec$[ebp]
  0017a	ff b5 7c ff ff
	ff		 push	 DWORD PTR __Last$[ebp]
  00180	ff b5 78 ff ff
	ff		 push	 DWORD PTR __First$[ebp]
  00186	e8 00 00 00 00	 call	 ??$_Uninitialized_move@PAPAVCGraphicThing@@V?$allocator@PAVCGraphicThing@@@std@@@std@@YAPAPAVCGraphicThing@@QAPAV1@0PAPAV1@AAV?$allocator@PAVCGraphicThing@@@0@@Z ; std::_Uninitialized_move<CGraphicThing * *,std::allocator<CGraphicThing *> >
  0018b	83 c4 10	 add	 esp, 16			; 00000010H

; 1200 :         _Umove_if_noexcept(_Myfirst, _Mylast, _Newvec);

  0018e	eb 32		 jmp	 SHORT $LN5@Resize_rea
__catch$??$_Resize_reallocate@U_Value_init_tag@std@@@?$vector@PAVCGraphicThing@@V?$allocator@PAVCGraphicThing@@@std@@@std@@AAEXIABU_Value_init_tag@1@@Z$0:

; 1201 :         _CATCH_ALL
; 1202 :         _Destroy(_Appended_first, _Appended_last);

  00190	ff 75 b0	 push	 DWORD PTR __Appended_last$[ebp]
  00193	ff 75 d0	 push	 DWORD PTR __Appended_first$[ebp]
  00196	8b 4d ec	 mov	 ecx, DWORD PTR _this$[ebp]
  00199	e8 00 00 00 00	 call	 ?_Destroy@?$vector@PAVCGraphicThing@@V?$allocator@PAVCGraphicThing@@@std@@@std@@AAEXPAPAVCGraphicThing@@0@Z ; std::vector<CGraphicThing *,std::allocator<CGraphicThing *> >::_Destroy

; 1203 :         _Getal().deallocate(_Newvec, _Newcapacity);

  0019e	ff 75 e4	 push	 DWORD PTR __Newcapacity$[ebp]
  001a1	ff 75 e0	 push	 DWORD PTR __Newvec$[ebp]
  001a4	8b 4d ec	 mov	 ecx, DWORD PTR _this$[ebp]
  001a7	e8 00 00 00 00	 call	 ?_Getal@?$vector@PAVCGraphicThing@@V?$allocator@PAVCGraphicThing@@@std@@@std@@AAEAAV?$allocator@PAVCGraphicThing@@@2@XZ ; std::vector<CGraphicThing *,std::allocator<CGraphicThing *> >::_Getal
  001ac	8b c8		 mov	 ecx, eax
  001ae	e8 00 00 00 00	 call	 ?deallocate@?$allocator@PAVCGraphicThing@@@std@@QAEXQAPAVCGraphicThing@@I@Z ; std::allocator<CGraphicThing *>::deallocate

; 1204 :         _RERAISE;

  001b3	6a 00		 push	 0
  001b5	6a 00		 push	 0
  001b7	e8 00 00 00 00	 call	 __CxxThrowException@8

; 1205 :         _CATCH_END

  001bc	b8 00 00 00 00	 mov	 eax, $LN8@Resize_rea
  001c1	c3		 ret	 0
$LN5@Resize_rea:
  001c2	83 4d fc ff	 or	 DWORD PTR __$EHRec$[ebp+12], -1
  001c6	eb 04		 jmp	 SHORT __tryend$??$_Resize_reallocate@U_Value_init_tag@std@@@?$vector@PAVCGraphicThing@@V?$allocator@PAVCGraphicThing@@@std@@@std@@AAEXIABU_Value_init_tag@1@@Z$1
$LN8@Resize_rea:
; File C:\Program Files (x86)\Microsoft Visual Studio\2019\Community\VC\Tools\MSVC\14.28.29333\include\xmemory
  001c8	83 4d fc ff	 or	 DWORD PTR __$EHRec$[ebp+12], -1
__tryend$??$_Resize_reallocate@U_Value_init_tag@std@@@?$vector@PAVCGraphicThing@@V?$allocator@PAVCGraphicThing@@@std@@@std@@AAEXIABU_Value_init_tag@1@@Z$1:
; File C:\Program Files (x86)\Microsoft Visual Studio\2019\Community\VC\Tools\MSVC\14.28.29333\include\vector

; 1206 : 
; 1207 :         _Change_array(_Newvec, _Newsize, _Newcapacity);

  001cc	ff 75 e4	 push	 DWORD PTR __Newcapacity$[ebp]
  001cf	ff 75 08	 push	 DWORD PTR __Newsize$[ebp]
  001d2	ff 75 e0	 push	 DWORD PTR __Newvec$[ebp]
  001d5	8b 4d ec	 mov	 ecx, DWORD PTR _this$[ebp]
  001d8	e8 00 00 00 00	 call	 ?_Change_array@?$vector@PAVCGraphicThing@@V?$allocator@PAVCGraphicThing@@@std@@@std@@AAEXQAPAVCGraphicThing@@II@Z ; std::vector<CGraphicThing *,std::allocator<CGraphicThing *> >::_Change_array
$LN68@Resize_rea:

; 1208 :     }

  001dd	8b 4d f4	 mov	 ecx, DWORD PTR __$EHRec$[ebp+4]
  001e0	64 89 0d 00 00
	00 00		 mov	 DWORD PTR fs:0, ecx
  001e7	59		 pop	 ecx
  001e8	5f		 pop	 edi
  001e9	5e		 pop	 esi
  001ea	5b		 pop	 ebx
  001eb	c9		 leave
  001ec	c2 08 00	 ret	 8
  001ef	cc		 int	 3
  001f0	cc		 int	 3
  001f1	cc		 int	 3
  001f2	cc		 int	 3
  001f3	cc		 int	 3
_TEXT	ENDS
;	COMDAT text$x
text$x	SEGMENT
__ehhandler$??$_Resize_reallocate@U_Value_init_tag@std@@@?$vector@PAVCGraphicThing@@V?$allocator@PAVCGraphicThing@@@std@@@std@@AAEXIABU_Value_init_tag@1@@Z:
  00000	90		 npad	 1
  00001	90		 npad	 1
  00002	8b 54 24 08	 mov	 edx, DWORD PTR [esp+8]
  00006	8d 42 0c	 lea	 eax, DWORD PTR [edx+12]
  00009	8b 8a 68 ff ff
	ff		 mov	 ecx, DWORD PTR [edx-152]
  0000f	33 c8		 xor	 ecx, eax
  00011	e8 00 00 00 00	 call	 @__security_check_cookie@4
  00016	b8 00 00 00 00	 mov	 eax, OFFSET __ehfuncinfo$??$_Resize_reallocate@U_Value_init_tag@std@@@?$vector@PAVCGraphicThing@@V?$allocator@PAVCGraphicThing@@@std@@@std@@AAEXIABU_Value_init_tag@1@@Z
  0001b	e9 00 00 00 00	 jmp	 ___CxxFrameHandler3
text$x	ENDS
??$_Resize_reallocate@U_Value_init_tag@std@@@?$vector@PAVCGraphicThing@@V?$allocator@PAVCGraphicThing@@@std@@@std@@AAEXIABU_Value_init_tag@1@@Z ENDP ; std::vector<CGraphicThing *,std::allocator<CGraphicThing *> >::_Resize_reallocate<std::_Value_init_tag>
; Function compile flags: /Odspy
; File C:\Program Files (x86)\Microsoft Visual Studio\2019\Community\VC\Tools\MSVC\14.28.29333\include\xmemory
; File C:\Program Files (x86)\Microsoft Visual Studio\2019\Community\VC\Tools\MSVC\14.28.29333\include\xstddef
; File C:\Program Files (x86)\Microsoft Visual Studio\2019\Community\VC\Tools\MSVC\14.28.29333\include\xstring
; File C:\Program Files (x86)\Microsoft Visual Studio\2019\Community\VC\Tools\MSVC\14.28.29333\include\xmemory
;	COMDAT ??$_Destroy_range@V?$allocator@USAttachingData@NRaceData@@@std@@@std@@YAXPAUSAttachingData@NRaceData@@QAU12@AAV?$allocator@USAttachingData@NRaceData@@@0@@Z
_TEXT	SEGMENT
$T1 = -4						; size = 4
__First$ = 8						; size = 4
__Last$ = 12						; size = 4
__Al$ = 16						; size = 4
??$_Destroy_range@V?$allocator@USAttachingData@NRaceData@@@std@@@std@@YAXPAUSAttachingData@NRaceData@@QAU12@AAV?$allocator@USAttachingData@NRaceData@@@0@@Z PROC ; std::_Destroy_range<std::allocator<NRaceData::SAttachingData> >, COMDAT

; 962  :     _Alloc_ptr_t<_Alloc> _First, const _Alloc_ptr_t<_Alloc> _Last, _Alloc& _Al) noexcept {

  00000	55		 push	 ebp
  00001	8b ec		 mov	 ebp, esp
  00003	51		 push	 ecx

; 963  :     // note that this is an optimization for debug mode codegen; in release mode the BE removes all of this
; 964  :     using _Ty = typename _Alloc::value_type;
; 965  :     if _CONSTEXPR_IF (!conjunction_v<is_trivially_destructible<_Ty>, _Uses_default_destroy<_Alloc, _Ty*>>) {
; 966  :         for (; _First != _Last; ++_First) {

  00004	eb 09		 jmp	 SHORT $LN4@Destroy_ra
$LN2@Destroy_ra:
  00006	8b 45 08	 mov	 eax, DWORD PTR __First$[ebp]
  00009	83 c0 30	 add	 eax, 48			; 00000030H
  0000c	89 45 08	 mov	 DWORD PTR __First$[ebp], eax
$LN4@Destroy_ra:
  0000f	8b 45 08	 mov	 eax, DWORD PTR __First$[ebp]
  00012	3b 45 0c	 cmp	 eax, DWORD PTR __Last$[ebp]
  00015	74 26		 je	 SHORT $LN5@Destroy_ra
; File C:\Program Files (x86)\Microsoft Visual Studio\2019\Community\VC\Tools\MSVC\14.28.29333\include\xstddef

; 289  :     return _Ptr;

  00017	8b 45 08	 mov	 eax, DWORD PTR __First$[ebp]
  0001a	89 45 fc	 mov	 DWORD PTR $T1[ebp], eax
  0001d	8b 4d fc	 mov	 ecx, DWORD PTR $T1[ebp]
  00020	83 c1 0c	 add	 ecx, 12			; 0000000cH
; File C:\Program Files (x86)\Microsoft Visual Studio\2019\Community\VC\Tools\MSVC\14.28.29333\include\xstring

; 2801 :         _Tidy_deallocate();

  00023	e8 00 00 00 00	 call	 ?_Tidy_deallocate@?$basic_string@DU?$char_traits@D@std@@V?$allocator@D@2@@std@@AAEXXZ ; std::basic_string<char,std::char_traits<char>,std::allocator<char> >::_Tidy_deallocate
  00028	33 c0		 xor	 eax, eax
  0002a	83 e0 01	 and	 eax, 1
  0002d	74 0c		 je	 SHORT $LN9@Destroy_ra
  0002f	6a 30		 push	 48			; 00000030H
  00031	ff 75 fc	 push	 DWORD PTR $T1[ebp]
  00034	e8 00 00 00 00	 call	 ??3@YAXPAXI@Z		; operator delete
  00039	59		 pop	 ecx
  0003a	59		 pop	 ecx
$LN9@Destroy_ra:
; File C:\Program Files (x86)\Microsoft Visual Studio\2019\Community\VC\Tools\MSVC\14.28.29333\include\xmemory

; 968  :         }

  0003b	eb c9		 jmp	 SHORT $LN2@Destroy_ra
$LN5@Destroy_ra:

; 969  :     }
; 970  : }

  0003d	c9		 leave
  0003e	c3		 ret	 0
??$_Destroy_range@V?$allocator@USAttachingData@NRaceData@@@std@@@std@@YAXPAUSAttachingData@NRaceData@@QAU12@AAV?$allocator@USAttachingData@NRaceData@@@0@@Z ENDP ; std::_Destroy_range<std::allocator<NRaceData::SAttachingData> >
_TEXT	ENDS
; Function compile flags: /Odspy
; File C:\Program Files (x86)\Microsoft Visual Studio\2019\Community\VC\Tools\MSVC\14.28.29333\include\xmemory
;	COMDAT ??$_Destroy_range@V?$allocator@PAVCItemData@@@std@@@std@@YAXPAPAVCItemData@@QAPAV1@AAV?$allocator@PAVCItemData@@@0@@Z
_TEXT	SEGMENT
__First$ = 8						; size = 4
__Last$ = 12						; size = 4
__Al$ = 16						; size = 4
??$_Destroy_range@V?$allocator@PAVCItemData@@@std@@@std@@YAXPAPAVCItemData@@QAPAV1@AAV?$allocator@PAVCItemData@@@0@@Z PROC ; std::_Destroy_range<std::allocator<CItemData *> >, COMDAT

; 962  :     _Alloc_ptr_t<_Alloc> _First, const _Alloc_ptr_t<_Alloc> _Last, _Alloc& _Al) noexcept {

  00000	55		 push	 ebp
  00001	8b ec		 mov	 ebp, esp

; 963  :     // note that this is an optimization for debug mode codegen; in release mode the BE removes all of this
; 964  :     using _Ty = typename _Alloc::value_type;
; 965  :     if _CONSTEXPR_IF (!conjunction_v<is_trivially_destructible<_Ty>, _Uses_default_destroy<_Alloc, _Ty*>>) {
; 966  :         for (; _First != _Last; ++_First) {
; 967  :             allocator_traits<_Alloc>::destroy(_Al, _Unfancy(_First));
; 968  :         }
; 969  :     }
; 970  : }

  00003	5d		 pop	 ebp
  00004	c3		 ret	 0
??$_Destroy_range@V?$allocator@PAVCItemData@@@std@@@std@@YAXPAPAVCItemData@@QAPAV1@AAV?$allocator@PAVCItemData@@@0@@Z ENDP ; std::_Destroy_range<std::allocator<CItemData *> >
_TEXT	ENDS
; Function compile flags: /Odspy
; File C:\Program Files (x86)\Microsoft Visual Studio\2019\Community\VC\Tools\MSVC\14.28.29333\include\xmemory
;	COMDAT ??$_Pocca@V?$allocator@D@std@@@std@@YAXAAV?$allocator@D@0@ABV10@@Z
_TEXT	SEGMENT
__Left$ = 8						; size = 4
__Right$ = 12						; size = 4
??$_Pocca@V?$allocator@D@std@@@std@@YAXAAV?$allocator@D@0@ABV10@@Z PROC ; std::_Pocca<std::allocator<char> >, COMDAT

; 885  : void _Pocca(_Alloc& _Left, const _Alloc& _Right) noexcept {

  00000	55		 push	 ebp
  00001	8b ec		 mov	 ebp, esp

; 886  :     if constexpr (allocator_traits<_Alloc>::propagate_on_container_copy_assignment::value) {
; 887  :         _Left = _Right;
; 888  :     }
; 889  : }

  00003	5d		 pop	 ebp
  00004	c3		 ret	 0
??$_Pocca@V?$allocator@D@std@@@std@@YAXAAV?$allocator@D@0@ABV10@@Z ENDP ; std::_Pocca<std::allocator<char> >
_TEXT	ENDS
; Function compile flags: /Odspy
; File C:\Program Files (x86)\Microsoft Visual Studio\2019\Community\VC\Tools\MSVC\14.28.29333\include\xmemory
; File C:\Program Files (x86)\Microsoft Visual Studio\2019\Community\VC\Tools\MSVC\14.28.29333\include\xstddef
; File C:\Program Files (x86)\Microsoft Visual Studio\2019\Community\VC\Tools\MSVC\14.28.29333\include\xstring
; File C:\Program Files (x86)\Microsoft Visual Studio\2019\Community\VC\Tools\MSVC\14.28.29333\include\xmemory
;	COMDAT ??$_Destroy_range@V?$allocator@V?$basic_string@DU?$char_traits@D@std@@V?$allocator@D@2@@std@@@std@@@std@@YAXPAV?$basic_string@DU?$char_traits@D@std@@V?$allocator@D@2@@0@QAV10@AAV?$allocator@V?$basic_string@DU?$char_traits@D@std@@V?$allocator@D@2@@std@@@0@@Z
_TEXT	SEGMENT
$T1 = -4						; size = 4
__First$ = 8						; size = 4
__Last$ = 12						; size = 4
__Al$ = 16						; size = 4
??$_Destroy_range@V?$allocator@V?$basic_string@DU?$char_traits@D@std@@V?$allocator@D@2@@std@@@std@@@std@@YAXPAV?$basic_string@DU?$char_traits@D@std@@V?$allocator@D@2@@0@QAV10@AAV?$allocator@V?$basic_string@DU?$char_traits@D@std@@V?$allocator@D@2@@std@@@0@@Z PROC ; std::_Destroy_range<std::allocator<std::basic_string<char,std::char_traits<char>,std::allocator<char> > > >, COMDAT

; 962  :     _Alloc_ptr_t<_Alloc> _First, const _Alloc_ptr_t<_Alloc> _Last, _Alloc& _Al) noexcept {

  00000	55		 push	 ebp
  00001	8b ec		 mov	 ebp, esp
  00003	51		 push	 ecx

; 963  :     // note that this is an optimization for debug mode codegen; in release mode the BE removes all of this
; 964  :     using _Ty = typename _Alloc::value_type;
; 965  :     if _CONSTEXPR_IF (!conjunction_v<is_trivially_destructible<_Ty>, _Uses_default_destroy<_Alloc, _Ty*>>) {
; 966  :         for (; _First != _Last; ++_First) {

  00004	eb 09		 jmp	 SHORT $LN4@Destroy_ra
$LN2@Destroy_ra:
  00006	8b 45 08	 mov	 eax, DWORD PTR __First$[ebp]
  00009	83 c0 18	 add	 eax, 24			; 00000018H
  0000c	89 45 08	 mov	 DWORD PTR __First$[ebp], eax
$LN4@Destroy_ra:
  0000f	8b 45 08	 mov	 eax, DWORD PTR __First$[ebp]
  00012	3b 45 0c	 cmp	 eax, DWORD PTR __Last$[ebp]
  00015	74 23		 je	 SHORT $LN5@Destroy_ra
; File C:\Program Files (x86)\Microsoft Visual Studio\2019\Community\VC\Tools\MSVC\14.28.29333\include\xstddef

; 289  :     return _Ptr;

  00017	8b 45 08	 mov	 eax, DWORD PTR __First$[ebp]
  0001a	89 45 fc	 mov	 DWORD PTR $T1[ebp], eax
; File C:\Program Files (x86)\Microsoft Visual Studio\2019\Community\VC\Tools\MSVC\14.28.29333\include\xstring

; 2801 :         _Tidy_deallocate();

  0001d	8b 4d fc	 mov	 ecx, DWORD PTR $T1[ebp]
  00020	e8 00 00 00 00	 call	 ?_Tidy_deallocate@?$basic_string@DU?$char_traits@D@std@@V?$allocator@D@2@@std@@AAEXXZ ; std::basic_string<char,std::char_traits<char>,std::allocator<char> >::_Tidy_deallocate
  00025	33 c0		 xor	 eax, eax
  00027	83 e0 01	 and	 eax, 1
  0002a	74 0c		 je	 SHORT $LN9@Destroy_ra
  0002c	6a 18		 push	 24			; 00000018H
  0002e	ff 75 fc	 push	 DWORD PTR $T1[ebp]
  00031	e8 00 00 00 00	 call	 ??3@YAXPAXI@Z		; operator delete
  00036	59		 pop	 ecx
  00037	59		 pop	 ecx
$LN9@Destroy_ra:
; File C:\Program Files (x86)\Microsoft Visual Studio\2019\Community\VC\Tools\MSVC\14.28.29333\include\xmemory

; 968  :         }

  00038	eb cc		 jmp	 SHORT $LN2@Destroy_ra
$LN5@Destroy_ra:

; 969  :     }
; 970  : }

  0003a	c9		 leave
  0003b	c3		 ret	 0
??$_Destroy_range@V?$allocator@V?$basic_string@DU?$char_traits@D@std@@V?$allocator@D@2@@std@@@std@@@std@@YAXPAV?$basic_string@DU?$char_traits@D@std@@V?$allocator@D@2@@0@QAV10@AAV?$allocator@V?$basic_string@DU?$char_traits@D@std@@V?$allocator@D@2@@std@@@0@@Z ENDP ; std::_Destroy_range<std::allocator<std::basic_string<char,std::char_traits<char>,std::allocator<char> > > >
_TEXT	ENDS
; Function compile flags: /Odspy
; File C:\Program Files (x86)\Microsoft Visual Studio\2019\Community\VC\Tools\MSVC\14.28.29333\include\xmemory
;	COMDAT ??$_Destroy_range@V?$allocator@PAVCGraphicThing@@@std@@@std@@YAXPAPAVCGraphicThing@@QAPAV1@AAV?$allocator@PAVCGraphicThing@@@0@@Z
_TEXT	SEGMENT
__First$ = 8						; size = 4
__Last$ = 12						; size = 4
__Al$ = 16						; size = 4
??$_Destroy_range@V?$allocator@PAVCGraphicThing@@@std@@@std@@YAXPAPAVCGraphicThing@@QAPAV1@AAV?$allocator@PAVCGraphicThing@@@0@@Z PROC ; std::_Destroy_range<std::allocator<CGraphicThing *> >, COMDAT

; 962  :     _Alloc_ptr_t<_Alloc> _First, const _Alloc_ptr_t<_Alloc> _Last, _Alloc& _Al) noexcept {

  00000	55		 push	 ebp
  00001	8b ec		 mov	 ebp, esp

; 963  :     // note that this is an optimization for debug mode codegen; in release mode the BE removes all of this
; 964  :     using _Ty = typename _Alloc::value_type;
; 965  :     if _CONSTEXPR_IF (!conjunction_v<is_trivially_destructible<_Ty>, _Uses_default_destroy<_Alloc, _Ty*>>) {
; 966  :         for (; _First != _Last; ++_First) {
; 967  :             allocator_traits<_Alloc>::destroy(_Al, _Unfancy(_First));
; 968  :         }
; 969  :     }
; 970  : }

  00003	5d		 pop	 ebp
  00004	c3		 ret	 0
??$_Destroy_range@V?$allocator@PAVCGraphicThing@@@std@@@std@@YAXPAPAVCGraphicThing@@QAPAV1@AAV?$allocator@PAVCGraphicThing@@@0@@Z ENDP ; std::_Destroy_range<std::allocator<CGraphicThing *> >
_TEXT	ENDS
; Function compile flags: /Odspy
; File C:\Program Files (x86)\Microsoft Visual Studio\2019\Community\VC\Tools\MSVC\14.28.29333\include\vector
; File C:\Program Files (x86)\Microsoft Visual Studio\2019\Community\VC\Tools\MSVC\14.28.29333\include\xmemory
; File C:\Program Files (x86)\Microsoft Visual Studio\2019\Community\VC\Tools\MSVC\14.28.29333\include\vector
; File C:\Program Files (x86)\Microsoft Visual Studio\2019\Community\VC\Tools\MSVC\14.28.29333\include\xmemory
; File C:\Program Files (x86)\Microsoft Visual Studio\2019\Community\VC\Tools\MSVC\14.28.29333\include\vector
; File C:\Program Files (x86)\Microsoft Visual Studio\2019\Community\VC\Tools\MSVC\14.28.29333\include\xmemory
; File C:\Program Files (x86)\Microsoft Visual Studio\2019\Community\VC\Tools\MSVC\14.28.29333\include\limits
; File C:\Program Files (x86)\Microsoft Visual Studio\2019\Community\VC\Tools\MSVC\14.28.29333\include\vector
; File C:\Program Files (x86)\Microsoft Visual Studio\2019\Community\VC\Tools\MSVC\14.28.29333\include\utility
; File C:\Program Files (x86)\Microsoft Visual Studio\2019\Community\VC\Tools\MSVC\14.28.29333\include\vector
; File C:\Program Files (x86)\Microsoft Visual Studio\2019\Community\VC\Tools\MSVC\14.28.29333\include\xmemory
; File C:\Program Files (x86)\Microsoft Visual Studio\2019\Community\VC\Tools\MSVC\14.28.29333\include\vector
; File C:\Program Files (x86)\Microsoft Visual Studio\2019\Community\VC\Tools\MSVC\14.28.29333\include\type_traits
; File C:\Program Files (x86)\Microsoft Visual Studio\2019\Community\VC\Tools\MSVC\14.28.29333\include\vector
; File C:\Program Files (x86)\Microsoft Visual Studio\2019\Community\VC\Tools\MSVC\14.28.29333\include\xstddef
; File C:\Program Files (x86)\Microsoft Visual Studio\2019\Community\VC\Tools\MSVC\14.28.29333\include\vcruntime_new.h
; File C:\Program Files (x86)\Microsoft Visual Studio\2019\Community\VC\Tools\MSVC\14.28.29333\include\type_traits
; File C:\Program Files (x86)\Microsoft Visual Studio\2019\Community\VC\Tools\MSVC\14.28.29333\include\xmemory
; File C:\Program Files (x86)\Microsoft Visual Studio\2019\Community\VC\Tools\MSVC\14.28.29333\include\vector
; File C:\Program Files (x86)\Microsoft Visual Studio\2019\Community\VC\Tools\MSVC\14.28.29333\include\xmemory
; File C:\Program Files (x86)\Microsoft Visual Studio\2019\Community\VC\Tools\MSVC\14.28.29333\include\vector
; File C:\Program Files (x86)\Microsoft Visual Studio\2019\Community\VC\Tools\MSVC\14.28.29333\include\xmemory
; File C:\Program Files (x86)\Microsoft Visual Studio\2019\Community\VC\Tools\MSVC\14.28.29333\include\vector
; File C:\Program Files (x86)\Microsoft Visual Studio\2019\Community\VC\Tools\MSVC\14.28.29333\include\xmemory
; File C:\Program Files (x86)\Microsoft Visual Studio\2019\Community\VC\Tools\MSVC\14.28.29333\include\vector
;	COMDAT ??$_Emplace_reallocate@ABQAVCItemData@@@?$vector@PAVCItemData@@V?$allocator@PAVCItemData@@@std@@@std@@QAEPAPAVCItemData@@QAPAV2@ABQAV2@@Z
_TEXT	SEGMENT
__Max_possible$2 = -68					; size = 4
$T3 = -64						; size = 4
__Al$ = -60						; size = 4
__Last$ = -56						; size = 4
$T4 = -52						; size = 4
$T5 = -48						; size = 4
__First$ = -44						; size = 4
$T6 = -40						; size = 4
$T7 = -36						; size = 4
__First$ = -32						; size = 4
__Last$ = -28						; size = 4
$T8 = -24						; size = 4
$T9 = -20						; size = 4
__$EHRec$ = -16						; size = 16
$T10 = 0						; size = 4
$T11 = 4						; size = 4
$T12 = 8						; size = 4
$T13 = 12						; size = 4
$T14 = 16						; size = 4
$T15 = 20						; size = 4
$T16 = 24						; size = 4
$T17 = 28						; size = 4
$T18 = 32						; size = 4
$T19 = 36						; size = 4
$T20 = 40						; size = 4
__Newsize$ = 44						; size = 4
__Constructed_last$ = 48				; size = 4
__Oldsize$ = 52						; size = 4
tv172 = 56						; size = 4
$T21 = 60						; size = 4
$T22 = 64						; size = 4
__My_data$ = 68						; size = 4
__Constructed_first$ = 72				; size = 4
___formal$ = 76						; size = 1
__Overflow_is_possible$23 = 83				; size = 1
__Newcapacity$ = 84					; size = 4
__Mylast$ = 88						; size = 4
__Myfirst$ = 92						; size = 4
__Whereoff$ = 96					; size = 4
$T24 = 103						; size = 1
_this$ = 104						; size = 4
__Newvec$ = 108						; size = 4
__Whereptr$ = 120					; size = 4
_<_Val_0>$ = 124					; size = 4
??$_Emplace_reallocate@ABQAVCItemData@@@?$vector@PAVCItemData@@V?$allocator@PAVCItemData@@@std@@@std@@QAEPAPAVCItemData@@QAPAV2@ABQAV2@@Z PROC ; std::vector<CItemData *,std::allocator<CItemData *> >::_Emplace_reallocate<CItemData * const &>, COMDAT
; _this$ = ecx

; 725  :     pointer _Emplace_reallocate(const pointer _Whereptr, _Valty&&... _Val) {

  00000	55		 push	 ebp
  00001	8d 6c 24 90	 lea	 ebp, DWORD PTR [esp-112]
  00005	83 ec 70	 sub	 esp, 112		; 00000070H
  00008	6a ff		 push	 -1
  0000a	68 00 00 00 00	 push	 __ehhandler$??$_Emplace_reallocate@ABQAVCItemData@@@?$vector@PAVCItemData@@V?$allocator@PAVCItemData@@@std@@@std@@QAEPAPAVCItemData@@QAPAV2@ABQAV2@@Z
  0000f	64 a1 00 00 00
	00		 mov	 eax, DWORD PTR fs:0
  00015	50		 push	 eax
  00016	51		 push	 ecx
  00017	83 ec 34	 sub	 esp, 52			; 00000034H
  0001a	53		 push	 ebx
  0001b	56		 push	 esi
  0001c	57		 push	 edi
  0001d	a1 00 00 00 00	 mov	 eax, DWORD PTR ___security_cookie
  00022	33 c5		 xor	 eax, ebp
  00024	50		 push	 eax
  00025	8d 45 f4	 lea	 eax, DWORD PTR __$EHRec$[ebp+4]
  00028	64 a3 00 00 00
	00		 mov	 DWORD PTR fs:0, eax
  0002e	89 65 f0	 mov	 DWORD PTR __$EHRec$[ebp], esp
  00031	89 4d 68	 mov	 DWORD PTR _this$[ebp], ecx

; 1733 :         return _Mypair._Get_first();

  00034	8b 45 68	 mov	 eax, DWORD PTR _this$[ebp]
; File C:\Program Files (x86)\Microsoft Visual Studio\2019\Community\VC\Tools\MSVC\14.28.29333\include\xmemory

; 1347 :         return *this;

  00037	89 45 28	 mov	 DWORD PTR $T20[ebp], eax
; File C:\Program Files (x86)\Microsoft Visual Studio\2019\Community\VC\Tools\MSVC\14.28.29333\include\vector

; 1733 :         return _Mypair._Get_first();

  0003a	8b 45 28	 mov	 eax, DWORD PTR $T20[ebp]
  0003d	89 45 c4	 mov	 DWORD PTR __Al$[ebp], eax

; 726  :         // reallocate and insert by perfectly forwarding _Val at _Whereptr
; 727  :         _Alty& _Al        = _Getal();
; 728  :         auto& _My_data    = _Mypair._Myval2;

  00040	8b 45 68	 mov	 eax, DWORD PTR _this$[ebp]
  00043	89 45 44	 mov	 DWORD PTR __My_data$[ebp], eax

; 729  :         pointer& _Myfirst = _My_data._Myfirst;

  00046	8b 45 44	 mov	 eax, DWORD PTR __My_data$[ebp]
  00049	89 45 5c	 mov	 DWORD PTR __Myfirst$[ebp], eax

; 730  :         pointer& _Mylast  = _My_data._Mylast;

  0004c	8b 45 44	 mov	 eax, DWORD PTR __My_data$[ebp]
  0004f	83 c0 04	 add	 eax, 4
  00052	89 45 58	 mov	 DWORD PTR __Mylast$[ebp], eax

; 731  : 
; 732  :         _STL_INTERNAL_CHECK(_Mylast == _My_data._Myend); // check that we have no unused capacity
; 733  : 
; 734  :         const auto _Whereoff = static_cast<size_type>(_Whereptr - _Myfirst);

  00055	8b 45 5c	 mov	 eax, DWORD PTR __Myfirst$[ebp]
  00058	8b 4d 78	 mov	 ecx, DWORD PTR __Whereptr$[ebp]
  0005b	2b 08		 sub	 ecx, DWORD PTR [eax]
  0005d	c1 f9 02	 sar	 ecx, 2
  00060	89 4d 60	 mov	 DWORD PTR __Whereoff$[ebp], ecx

; 735  :         const auto _Oldsize  = static_cast<size_type>(_Mylast - _Myfirst);

  00063	8b 45 58	 mov	 eax, DWORD PTR __Mylast$[ebp]
  00066	8b 4d 5c	 mov	 ecx, DWORD PTR __Myfirst$[ebp]
  00069	8b 00		 mov	 eax, DWORD PTR [eax]
  0006b	2b 01		 sub	 eax, DWORD PTR [ecx]
  0006d	c1 f8 02	 sar	 eax, 2
  00070	89 45 34	 mov	 DWORD PTR __Oldsize$[ebp], eax

; 1737 :         return _Mypair._Get_first();

  00073	8b 45 68	 mov	 eax, DWORD PTR _this$[ebp]
; File C:\Program Files (x86)\Microsoft Visual Studio\2019\Community\VC\Tools\MSVC\14.28.29333\include\xmemory

; 1351 :         return *this;

  00076	89 45 24	 mov	 DWORD PTR $T19[ebp], eax
; File C:\Program Files (x86)\Microsoft Visual Studio\2019\Community\VC\Tools\MSVC\14.28.29333\include\vector

; 1737 :         return _Mypair._Get_first();

  00079	8b 45 24	 mov	 eax, DWORD PTR $T19[ebp]
  0007c	89 45 c0	 mov	 DWORD PTR $T3[ebp], eax
; File C:\Program Files (x86)\Microsoft Visual Studio\2019\Community\VC\Tools\MSVC\14.28.29333\include\xmemory

; 710  :         return static_cast<size_t>(-1) / sizeof(value_type);

  0007f	c7 45 40 ff ff
	ff 3f		 mov	 DWORD PTR $T22[ebp], 1073741823 ; 3fffffffH
; File C:\Program Files (x86)\Microsoft Visual Studio\2019\Community\VC\Tools\MSVC\14.28.29333\include\limits

; 557  :         return INT_MAX;

  00086	c7 45 20 ff ff
	ff 7f		 mov	 DWORD PTR $T18[ebp], 2147483647 ; 7fffffffH
; File C:\Program Files (x86)\Microsoft Visual Studio\2019\Community\VC\Tools\MSVC\14.28.29333\include\vector

; 1488 :         return (_STD min)(

  0008d	8b 45 20	 mov	 eax, DWORD PTR $T18[ebp]
  00090	89 45 3c	 mov	 DWORD PTR $T21[ebp], eax
; File C:\Program Files (x86)\Microsoft Visual Studio\2019\Community\VC\Tools\MSVC\14.28.29333\include\utility

; 68   :     return _Right < _Left ? _Right : _Left;

  00093	8b 45 40	 mov	 eax, DWORD PTR $T22[ebp]
  00096	3b 45 3c	 cmp	 eax, DWORD PTR $T21[ebp]
  00099	73 08		 jae	 SHORT $LN34@Emplace_re
  0009b	8d 45 40	 lea	 eax, DWORD PTR $T22[ebp]
  0009e	89 45 38	 mov	 DWORD PTR tv172[ebp], eax
  000a1	eb 06		 jmp	 SHORT $LN35@Emplace_re
$LN34@Emplace_re:
  000a3	8d 45 3c	 lea	 eax, DWORD PTR $T21[ebp]
  000a6	89 45 38	 mov	 DWORD PTR tv172[ebp], eax
$LN35@Emplace_re:
  000a9	8b 45 38	 mov	 eax, DWORD PTR tv172[ebp]
  000ac	89 45 1c	 mov	 DWORD PTR $T17[ebp], eax
  000af	8b 45 1c	 mov	 eax, DWORD PTR $T17[ebp]
  000b2	89 45 18	 mov	 DWORD PTR $T16[ebp], eax
; File C:\Program Files (x86)\Microsoft Visual Studio\2019\Community\VC\Tools\MSVC\14.28.29333\include\vector

; 1488 :         return (_STD min)(

  000b5	8b 45 18	 mov	 eax, DWORD PTR $T16[ebp]
  000b8	8b 00		 mov	 eax, DWORD PTR [eax]
  000ba	89 45 14	 mov	 DWORD PTR $T15[ebp], eax

; 736  : 
; 737  :         if (_Oldsize == max_size()) {

  000bd	8b 45 34	 mov	 eax, DWORD PTR __Oldsize$[ebp]
  000c0	3b 45 14	 cmp	 eax, DWORD PTR $T15[ebp]
  000c3	75 05		 jne	 SHORT $LN2@Emplace_re

; 738  :             _Xlength();

  000c5	e8 00 00 00 00	 call	 ?_Xlength@?$vector@PAVCItemData@@V?$allocator@PAVCItemData@@@std@@@std@@CAXXZ ; std::vector<CItemData *,std::allocator<CItemData *> >::_Xlength
$LN2@Emplace_re:

; 739  :         }
; 740  : 
; 741  :         const size_type _Newsize     = _Oldsize + 1;

  000ca	8b 45 34	 mov	 eax, DWORD PTR __Oldsize$[ebp]
  000cd	40		 inc	 eax
  000ce	89 45 2c	 mov	 DWORD PTR __Newsize$[ebp], eax

; 742  :         const size_type _Newcapacity = _Calculate_growth(_Newsize);

  000d1	ff 75 2c	 push	 DWORD PTR __Newsize$[ebp]
  000d4	8b 4d 68	 mov	 ecx, DWORD PTR _this$[ebp]
  000d7	e8 00 00 00 00	 call	 ?_Calculate_growth@?$vector@PAVCItemData@@V?$allocator@PAVCItemData@@@std@@@std@@ABEII@Z ; std::vector<CItemData *,std::allocator<CItemData *> >::_Calculate_growth
  000dc	89 45 54	 mov	 DWORD PTR __Newcapacity$[ebp], eax
; File C:\Program Files (x86)\Microsoft Visual Studio\2019\Community\VC\Tools\MSVC\14.28.29333\include\xmemory

; 56   :     constexpr bool _Overflow_is_possible = _Ty_size > 1;

  000df	c6 45 53 01	 mov	 BYTE PTR __Overflow_is_possible$23[ebp], 1

; 57   : 
; 58   :     if _CONSTEXPR_IF (_Overflow_is_possible) {
; 59   :         constexpr size_t _Max_possible = static_cast<size_t>(-1) / _Ty_size;

  000e3	c7 45 bc ff ff
	ff 3f		 mov	 DWORD PTR __Max_possible$2[ebp], 1073741823 ; 3fffffffH

; 60   :         if (_Count > _Max_possible) {

  000ea	81 7d 54 ff ff
	ff 3f		 cmp	 DWORD PTR __Newcapacity$[ebp], 1073741823 ; 3fffffffH
  000f1	76 05		 jbe	 SHORT $LN67@Emplace_re

; 61   :             _Throw_bad_array_new_length(); // multiply overflow

  000f3	e8 00 00 00 00	 call	 ?_Throw_bad_array_new_length@std@@YAXXZ ; std::_Throw_bad_array_new_length
$LN67@Emplace_re:

; 62   :         }
; 63   :     }
; 64   : 
; 65   :     return _Count * _Ty_size;

  000f8	8b 45 54	 mov	 eax, DWORD PTR __Newcapacity$[ebp]
  000fb	c1 e0 02	 shl	 eax, 2
  000fe	89 45 10	 mov	 DWORD PTR $T14[ebp], eax

; 814  :         return static_cast<_Ty*>(_Allocate<_New_alignof<_Ty>>(_Get_size_of_n<sizeof(_Ty)>(_Count)));

  00101	ff 75 10	 push	 DWORD PTR $T14[ebp]
  00104	e8 00 00 00 00	 call	 ??$_Allocate@$07U_Default_allocate_traits@std@@$0A@@std@@YAPAXI@Z ; std::_Allocate<8,std::_Default_allocate_traits,0>
  00109	59		 pop	 ecx
  0010a	89 45 6c	 mov	 DWORD PTR __Newvec$[ebp], eax
; File C:\Program Files (x86)\Microsoft Visual Studio\2019\Community\VC\Tools\MSVC\14.28.29333\include\vector

; 745  :         const pointer _Constructed_last = _Newvec + _Whereoff + 1;

  0010d	8b 45 60	 mov	 eax, DWORD PTR __Whereoff$[ebp]
  00110	8b 4d 6c	 mov	 ecx, DWORD PTR __Newvec$[ebp]
  00113	8d 44 81 04	 lea	 eax, DWORD PTR [ecx+eax*4+4]
  00117	89 45 30	 mov	 DWORD PTR __Constructed_last$[ebp], eax

; 746  :         pointer _Constructed_first      = _Constructed_last;

  0011a	8b 45 30	 mov	 eax, DWORD PTR __Constructed_last$[ebp]
  0011d	89 45 48	 mov	 DWORD PTR __Constructed_first$[ebp], eax

; 747  : 
; 748  :         _TRY_BEGIN

  00120	83 65 fc 00	 and	 DWORD PTR __$EHRec$[ebp+12], 0
; File C:\Program Files (x86)\Microsoft Visual Studio\2019\Community\VC\Tools\MSVC\14.28.29333\include\type_traits

; 1443 :     return static_cast<_Ty&&>(_Arg);

  00124	8b 45 7c	 mov	 eax, DWORD PTR _<_Val_0>$[ebp]
  00127	89 45 08	 mov	 DWORD PTR $T12[ebp], eax
; File C:\Program Files (x86)\Microsoft Visual Studio\2019\Community\VC\Tools\MSVC\14.28.29333\include\vector

; 749  :         _Alty_traits::construct(_Al, _Unfancy(_Newvec + _Whereoff), _STD forward<_Valty>(_Val)...);

  0012a	8b 45 60	 mov	 eax, DWORD PTR __Whereoff$[ebp]
  0012d	8b 4d 6c	 mov	 ecx, DWORD PTR __Newvec$[ebp]
  00130	8d 04 81	 lea	 eax, DWORD PTR [ecx+eax*4]
; File C:\Program Files (x86)\Microsoft Visual Studio\2019\Community\VC\Tools\MSVC\14.28.29333\include\xstddef

; 289  :     return _Ptr;

  00133	89 45 0c	 mov	 DWORD PTR $T13[ebp], eax
; File C:\Program Files (x86)\Microsoft Visual Studio\2019\Community\VC\Tools\MSVC\14.28.29333\include\vcruntime_new.h

; 169  :         return _Where;

  00136	8b 45 0c	 mov	 eax, DWORD PTR $T13[ebp]
  00139	89 45 04	 mov	 DWORD PTR $T11[ebp], eax
; File C:\Program Files (x86)\Microsoft Visual Studio\2019\Community\VC\Tools\MSVC\14.28.29333\include\type_traits

; 1443 :     return static_cast<_Ty&&>(_Arg);

  0013c	8b 45 08	 mov	 eax, DWORD PTR $T12[ebp]
  0013f	89 45 00	 mov	 DWORD PTR $T10[ebp], eax
; File C:\Program Files (x86)\Microsoft Visual Studio\2019\Community\VC\Tools\MSVC\14.28.29333\include\xmemory

; 701  :         ::new (const_cast<void*>(static_cast<const volatile void*>(_Ptr))) _Objty(_STD forward<_Types>(_Args)...);

  00142	8b 45 04	 mov	 eax, DWORD PTR $T11[ebp]
  00145	8b 4d 00	 mov	 ecx, DWORD PTR $T10[ebp]
  00148	8b 09		 mov	 ecx, DWORD PTR [ecx]
  0014a	89 08		 mov	 DWORD PTR [eax], ecx
; File C:\Program Files (x86)\Microsoft Visual Studio\2019\Community\VC\Tools\MSVC\14.28.29333\include\vector

; 750  :         _Constructed_first = _Newvec + _Whereoff;

  0014c	8b 45 60	 mov	 eax, DWORD PTR __Whereoff$[ebp]
  0014f	8b 4d 6c	 mov	 ecx, DWORD PTR __Newvec$[ebp]
  00152	8d 04 81	 lea	 eax, DWORD PTR [ecx+eax*4]
  00155	89 45 48	 mov	 DWORD PTR __Constructed_first$[ebp], eax

; 751  : 
; 752  :         if (_Whereptr == _Mylast) { // at back, provide strong guarantee

  00158	8b 45 58	 mov	 eax, DWORD PTR __Mylast$[ebp]
  0015b	8b 4d 78	 mov	 ecx, DWORD PTR __Whereptr$[ebp]
  0015e	3b 08		 cmp	 ecx, DWORD PTR [eax]
  00160	75 3d		 jne	 SHORT $LN4@Emplace_re

; 753  :             _Umove_if_noexcept(_Myfirst, _Mylast, _Newvec);

  00162	8b 45 58	 mov	 eax, DWORD PTR __Mylast$[ebp]
  00165	8b 00		 mov	 eax, DWORD PTR [eax]
  00167	89 45 e4	 mov	 DWORD PTR __Last$[ebp], eax
  0016a	8b 45 5c	 mov	 eax, DWORD PTR __Myfirst$[ebp]
  0016d	8b 00		 mov	 eax, DWORD PTR [eax]
  0016f	89 45 e0	 mov	 DWORD PTR __First$[ebp], eax

; 1607 :         _Umove_if_noexcept1(_First, _Last, _Dest,

  00172	33 c0		 xor	 eax, eax
  00174	88 45 67	 mov	 BYTE PTR $T24[ebp], al
  00177	8a 45 67	 mov	 al, BYTE PTR $T24[ebp]
  0017a	88 45 4c	 mov	 BYTE PTR ___formal$[ebp], al

; 1733 :         return _Mypair._Get_first();

  0017d	8b 45 68	 mov	 eax, DWORD PTR _this$[ebp]
; File C:\Program Files (x86)\Microsoft Visual Studio\2019\Community\VC\Tools\MSVC\14.28.29333\include\xmemory

; 1347 :         return *this;

  00180	89 45 ec	 mov	 DWORD PTR $T9[ebp], eax
; File C:\Program Files (x86)\Microsoft Visual Studio\2019\Community\VC\Tools\MSVC\14.28.29333\include\vector

; 1733 :         return _Mypair._Get_first();

  00183	8b 45 ec	 mov	 eax, DWORD PTR $T9[ebp]
  00186	89 45 e8	 mov	 DWORD PTR $T8[ebp], eax

; 1597 :         _Uninitialized_move(_First, _Last, _Dest, _Getal());

  00189	ff 75 e8	 push	 DWORD PTR $T8[ebp]
  0018c	ff 75 6c	 push	 DWORD PTR __Newvec$[ebp]
  0018f	ff 75 e4	 push	 DWORD PTR __Last$[ebp]
  00192	ff 75 e0	 push	 DWORD PTR __First$[ebp]
  00195	e8 00 00 00 00	 call	 ??$_Uninitialized_move@PAPAVCItemData@@V?$allocator@PAVCItemData@@@std@@@std@@YAPAPAVCItemData@@QAPAV1@0PAPAV1@AAV?$allocator@PAVCItemData@@@0@@Z ; std::_Uninitialized_move<CItemData * *,std::allocator<CItemData *> >
  0019a	83 c4 10	 add	 esp, 16			; 00000010H

; 754  :         } else { // provide basic guarantee

  0019d	eb 5e		 jmp	 SHORT $LN5@Emplace_re
$LN4@Emplace_re:

; 755  :             _Umove(_Myfirst, _Whereptr, _Newvec);

  0019f	8b 45 5c	 mov	 eax, DWORD PTR __Myfirst$[ebp]
  001a2	8b 00		 mov	 eax, DWORD PTR [eax]
  001a4	89 45 d4	 mov	 DWORD PTR __First$[ebp], eax

; 1733 :         return _Mypair._Get_first();

  001a7	8b 45 68	 mov	 eax, DWORD PTR _this$[ebp]
; File C:\Program Files (x86)\Microsoft Visual Studio\2019\Community\VC\Tools\MSVC\14.28.29333\include\xmemory

; 1347 :         return *this;

  001aa	89 45 dc	 mov	 DWORD PTR $T7[ebp], eax
; File C:\Program Files (x86)\Microsoft Visual Studio\2019\Community\VC\Tools\MSVC\14.28.29333\include\vector

; 1733 :         return _Mypair._Get_first();

  001ad	8b 45 dc	 mov	 eax, DWORD PTR $T7[ebp]
  001b0	89 45 d8	 mov	 DWORD PTR $T6[ebp], eax

; 1592 :         return _Uninitialized_move(_First, _Last, _Dest, _Getal());

  001b3	ff 75 d8	 push	 DWORD PTR $T6[ebp]
  001b6	ff 75 6c	 push	 DWORD PTR __Newvec$[ebp]
  001b9	ff 75 78	 push	 DWORD PTR __Whereptr$[ebp]
  001bc	ff 75 d4	 push	 DWORD PTR __First$[ebp]
  001bf	e8 00 00 00 00	 call	 ??$_Uninitialized_move@PAPAVCItemData@@V?$allocator@PAVCItemData@@@std@@@std@@YAPAPAVCItemData@@QAPAV1@0PAPAV1@AAV?$allocator@PAVCItemData@@@0@@Z ; std::_Uninitialized_move<CItemData * *,std::allocator<CItemData *> >
  001c4	83 c4 10	 add	 esp, 16			; 00000010H

; 756  :             _Constructed_first = _Newvec;

  001c7	8b 45 6c	 mov	 eax, DWORD PTR __Newvec$[ebp]
  001ca	89 45 48	 mov	 DWORD PTR __Constructed_first$[ebp], eax

; 757  :             _Umove(_Whereptr, _Mylast, _Newvec + _Whereoff + 1);

  001cd	8b 45 58	 mov	 eax, DWORD PTR __Mylast$[ebp]
  001d0	8b 00		 mov	 eax, DWORD PTR [eax]
  001d2	89 45 c8	 mov	 DWORD PTR __Last$[ebp], eax

; 1733 :         return _Mypair._Get_first();

  001d5	8b 45 68	 mov	 eax, DWORD PTR _this$[ebp]
; File C:\Program Files (x86)\Microsoft Visual Studio\2019\Community\VC\Tools\MSVC\14.28.29333\include\xmemory

; 1347 :         return *this;

  001d8	89 45 d0	 mov	 DWORD PTR $T5[ebp], eax
; File C:\Program Files (x86)\Microsoft Visual Studio\2019\Community\VC\Tools\MSVC\14.28.29333\include\vector

; 1733 :         return _Mypair._Get_first();

  001db	8b 45 d0	 mov	 eax, DWORD PTR $T5[ebp]
  001de	89 45 cc	 mov	 DWORD PTR $T4[ebp], eax

; 1592 :         return _Uninitialized_move(_First, _Last, _Dest, _Getal());

  001e1	ff 75 cc	 push	 DWORD PTR $T4[ebp]

; 757  :             _Umove(_Whereptr, _Mylast, _Newvec + _Whereoff + 1);

  001e4	8b 45 60	 mov	 eax, DWORD PTR __Whereoff$[ebp]
  001e7	8b 4d 6c	 mov	 ecx, DWORD PTR __Newvec$[ebp]
  001ea	8d 44 81 04	 lea	 eax, DWORD PTR [ecx+eax*4+4]

; 1592 :         return _Uninitialized_move(_First, _Last, _Dest, _Getal());

  001ee	50		 push	 eax
  001ef	ff 75 c8	 push	 DWORD PTR __Last$[ebp]
  001f2	ff 75 78	 push	 DWORD PTR __Whereptr$[ebp]
  001f5	e8 00 00 00 00	 call	 ??$_Uninitialized_move@PAPAVCItemData@@V?$allocator@PAVCItemData@@@std@@@std@@YAPAPAVCItemData@@QAPAV1@0PAPAV1@AAV?$allocator@PAVCItemData@@@0@@Z ; std::_Uninitialized_move<CItemData * *,std::allocator<CItemData *> >
  001fa	83 c4 10	 add	 esp, 16			; 00000010H
$LN5@Emplace_re:

; 757  :             _Umove(_Whereptr, _Mylast, _Newvec + _Whereoff + 1);

  001fd	eb 2b		 jmp	 SHORT $LN7@Emplace_re
__catch$??$_Emplace_reallocate@ABQAVCItemData@@@?$vector@PAVCItemData@@V?$allocator@PAVCItemData@@@std@@@std@@QAEPAPAVCItemData@@QAPAV2@ABQAV2@@Z$0:

; 758  :         }
; 759  :         _CATCH_ALL
; 760  :         _Destroy(_Constructed_first, _Constructed_last);

  001ff	ff 75 30	 push	 DWORD PTR __Constructed_last$[ebp]
  00202	ff 75 48	 push	 DWORD PTR __Constructed_first$[ebp]
  00205	8b 4d 68	 mov	 ecx, DWORD PTR _this$[ebp]
  00208	e8 00 00 00 00	 call	 ?_Destroy@?$vector@PAVCItemData@@V?$allocator@PAVCItemData@@@std@@@std@@AAEXPAPAVCItemData@@0@Z ; std::vector<CItemData *,std::allocator<CItemData *> >::_Destroy

; 761  :         _Al.deallocate(_Newvec, _Newcapacity);

  0020d	ff 75 54	 push	 DWORD PTR __Newcapacity$[ebp]
  00210	ff 75 6c	 push	 DWORD PTR __Newvec$[ebp]
  00213	8b 4d c4	 mov	 ecx, DWORD PTR __Al$[ebp]
  00216	e8 00 00 00 00	 call	 ?deallocate@?$allocator@PAVCItemData@@@std@@QAEXQAPAVCItemData@@I@Z ; std::allocator<CItemData *>::deallocate

; 762  :         _RERAISE;

  0021b	6a 00		 push	 0
  0021d	6a 00		 push	 0
  0021f	e8 00 00 00 00	 call	 __CxxThrowException@8

; 763  :         _CATCH_END

  00224	b8 00 00 00 00	 mov	 eax, $LN10@Emplace_re
  00229	c3		 ret	 0
$LN7@Emplace_re:
  0022a	83 4d fc ff	 or	 DWORD PTR __$EHRec$[ebp+12], -1
  0022e	eb 04		 jmp	 SHORT __tryend$??$_Emplace_reallocate@ABQAVCItemData@@@?$vector@PAVCItemData@@V?$allocator@PAVCItemData@@@std@@@std@@QAEPAPAVCItemData@@QAPAV2@ABQAV2@@Z$1
$LN10@Emplace_re:
; File C:\Program Files (x86)\Microsoft Visual Studio\2019\Community\VC\Tools\MSVC\14.28.29333\include\xmemory
  00230	83 4d fc ff	 or	 DWORD PTR __$EHRec$[ebp+12], -1
__tryend$??$_Emplace_reallocate@ABQAVCItemData@@@?$vector@PAVCItemData@@V?$allocator@PAVCItemData@@@std@@@std@@QAEPAPAVCItemData@@QAPAV2@ABQAV2@@Z$1:
; File C:\Program Files (x86)\Microsoft Visual Studio\2019\Community\VC\Tools\MSVC\14.28.29333\include\vector

; 764  : 
; 765  :         _Change_array(_Newvec, _Newsize, _Newcapacity);

  00234	ff 75 54	 push	 DWORD PTR __Newcapacity$[ebp]
  00237	ff 75 2c	 push	 DWORD PTR __Newsize$[ebp]
  0023a	ff 75 6c	 push	 DWORD PTR __Newvec$[ebp]
  0023d	8b 4d 68	 mov	 ecx, DWORD PTR _this$[ebp]
  00240	e8 00 00 00 00	 call	 ?_Change_array@?$vector@PAVCItemData@@V?$allocator@PAVCItemData@@@std@@@std@@AAEXQAPAVCItemData@@II@Z ; std::vector<CItemData *,std::allocator<CItemData *> >::_Change_array

; 766  :         return _Newvec + _Whereoff;

  00245	8b 45 60	 mov	 eax, DWORD PTR __Whereoff$[ebp]
  00248	8b 4d 6c	 mov	 ecx, DWORD PTR __Newvec$[ebp]
  0024b	8d 04 81	 lea	 eax, DWORD PTR [ecx+eax*4]
$LN70@Emplace_re:

; 767  :     }

  0024e	8b 4d f4	 mov	 ecx, DWORD PTR __$EHRec$[ebp+4]
  00251	64 89 0d 00 00
	00 00		 mov	 DWORD PTR fs:0, ecx
  00258	59		 pop	 ecx
  00259	5f		 pop	 edi
  0025a	5e		 pop	 esi
  0025b	5b		 pop	 ebx
  0025c	83 c5 70	 add	 ebp, 112		; 00000070H
  0025f	c9		 leave
  00260	c2 08 00	 ret	 8
  00263	cc		 int	 3
  00264	cc		 int	 3
  00265	cc		 int	 3
  00266	cc		 int	 3
  00267	cc		 int	 3
_TEXT	ENDS
;	COMDAT text$x
text$x	SEGMENT
__ehhandler$??$_Emplace_reallocate@ABQAVCItemData@@@?$vector@PAVCItemData@@V?$allocator@PAVCItemData@@@std@@@std@@QAEPAPAVCItemData@@QAPAV2@ABQAV2@@Z:
  00000	90		 npad	 1
  00001	90		 npad	 1
  00002	8b 54 24 08	 mov	 edx, DWORD PTR [esp+8]
  00006	8d 42 0c	 lea	 eax, DWORD PTR [edx+12]
  00009	8b 4a b8	 mov	 ecx, DWORD PTR [edx-72]
  0000c	33 c8		 xor	 ecx, eax
  0000e	e8 00 00 00 00	 call	 @__security_check_cookie@4
  00013	b8 00 00 00 00	 mov	 eax, OFFSET __ehfuncinfo$??$_Emplace_reallocate@ABQAVCItemData@@@?$vector@PAVCItemData@@V?$allocator@PAVCItemData@@@std@@@std@@QAEPAPAVCItemData@@QAPAV2@ABQAV2@@Z
  00018	e9 00 00 00 00	 jmp	 ___CxxFrameHandler3
text$x	ENDS
??$_Emplace_reallocate@ABQAVCItemData@@@?$vector@PAVCItemData@@V?$allocator@PAVCItemData@@@std@@@std@@QAEPAPAVCItemData@@QAPAV2@ABQAV2@@Z ENDP ; std::vector<CItemData *,std::allocator<CItemData *> >::_Emplace_reallocate<CItemData * const &>
; Function compile flags: /Odspy
; File C:\Program Files (x86)\Microsoft Visual Studio\2019\Community\VC\Tools\MSVC\14.28.29333\include\vector
; File C:\Program Files (x86)\Microsoft Visual Studio\2019\Community\VC\Tools\MSVC\14.28.29333\include\type_traits
; File C:\Program Files (x86)\Microsoft Visual Studio\2019\Community\VC\Tools\MSVC\14.28.29333\include\vector
; File C:\Program Files (x86)\Microsoft Visual Studio\2019\Community\VC\Tools\MSVC\14.28.29333\include\xstddef
; File C:\Program Files (x86)\Microsoft Visual Studio\2019\Community\VC\Tools\MSVC\14.28.29333\include\vector
; File C:\Program Files (x86)\Microsoft Visual Studio\2019\Community\VC\Tools\MSVC\14.28.29333\include\xmemory
; File C:\Program Files (x86)\Microsoft Visual Studio\2019\Community\VC\Tools\MSVC\14.28.29333\include\vector
; File C:\Program Files (x86)\Microsoft Visual Studio\2019\Community\VC\Tools\MSVC\14.28.29333\include\vcruntime_new.h
; File C:\Program Files (x86)\Microsoft Visual Studio\2019\Community\VC\Tools\MSVC\14.28.29333\include\type_traits
; File C:\Program Files (x86)\Microsoft Visual Studio\2019\Community\VC\Tools\MSVC\14.28.29333\include\xmemory
; File C:\Program Files (x86)\Microsoft Visual Studio\2019\Community\VC\Tools\MSVC\14.28.29333\include\vector
;	COMDAT ??$_Emplace_back_with_unused_capacity@ABQAVCItemData@@@?$vector@PAVCItemData@@V?$allocator@PAVCItemData@@@std@@@std@@AAEXABQAVCItemData@@@Z
_TEXT	SEGMENT
__Result$ = -44						; size = 4
$T1 = -40						; size = 4
$T2 = -36						; size = 4
$T3 = -32						; size = 4
$T4 = -28						; size = 4
$T5 = -24						; size = 4
$T6 = -20						; size = 4
__Ptr$ = -16						; size = 4
__My_data$ = -12					; size = 4
_this$ = -8						; size = 4
__Mylast$ = -4						; size = 4
_<_Val_0>$ = 8						; size = 4
??$_Emplace_back_with_unused_capacity@ABQAVCItemData@@@?$vector@PAVCItemData@@V?$allocator@PAVCItemData@@@std@@@std@@AAEXABQAVCItemData@@@Z PROC ; std::vector<CItemData *,std::allocator<CItemData *> >::_Emplace_back_with_unused_capacity<CItemData * const &>, COMDAT
; _this$ = ecx

; 682  :     decltype(auto) _Emplace_back_with_unused_capacity(_Valty&&... _Val) {

  00000	55		 push	 ebp
  00001	8b ec		 mov	 ebp, esp
  00003	83 ec 2c	 sub	 esp, 44			; 0000002cH
  00006	89 4d f8	 mov	 DWORD PTR _this$[ebp], ecx

; 683  :         // insert by perfectly forwarding into element at end, provide strong guarantee
; 684  :         auto& _My_data   = _Mypair._Myval2;

  00009	8b 45 f8	 mov	 eax, DWORD PTR _this$[ebp]
  0000c	89 45 f4	 mov	 DWORD PTR __My_data$[ebp], eax

; 685  :         pointer& _Mylast = _My_data._Mylast;

  0000f	8b 45 f4	 mov	 eax, DWORD PTR __My_data$[ebp]
  00012	83 c0 04	 add	 eax, 4
  00015	89 45 fc	 mov	 DWORD PTR __Mylast$[ebp], eax
; File C:\Program Files (x86)\Microsoft Visual Studio\2019\Community\VC\Tools\MSVC\14.28.29333\include\type_traits

; 1443 :     return static_cast<_Ty&&>(_Arg);

  00018	8b 45 08	 mov	 eax, DWORD PTR _<_Val_0>$[ebp]
  0001b	89 45 e4	 mov	 DWORD PTR $T4[ebp], eax
; File C:\Program Files (x86)\Microsoft Visual Studio\2019\Community\VC\Tools\MSVC\14.28.29333\include\vector

; 687  :         _Alty_traits::construct(_Getal(), _Unfancy(_Mylast), _STD forward<_Valty>(_Val)...);

  0001e	8b 45 fc	 mov	 eax, DWORD PTR __Mylast$[ebp]
  00021	8b 00		 mov	 eax, DWORD PTR [eax]
  00023	89 45 f0	 mov	 DWORD PTR __Ptr$[ebp], eax
; File C:\Program Files (x86)\Microsoft Visual Studio\2019\Community\VC\Tools\MSVC\14.28.29333\include\xstddef

; 289  :     return _Ptr;

  00026	8b 45 f0	 mov	 eax, DWORD PTR __Ptr$[ebp]
  00029	89 45 e8	 mov	 DWORD PTR $T5[ebp], eax
; File C:\Program Files (x86)\Microsoft Visual Studio\2019\Community\VC\Tools\MSVC\14.28.29333\include\vector

; 1733 :         return _Mypair._Get_first();

  0002c	8b 45 f8	 mov	 eax, DWORD PTR _this$[ebp]
; File C:\Program Files (x86)\Microsoft Visual Studio\2019\Community\VC\Tools\MSVC\14.28.29333\include\xmemory

; 1347 :         return *this;

  0002f	89 45 ec	 mov	 DWORD PTR $T6[ebp], eax
; File C:\Program Files (x86)\Microsoft Visual Studio\2019\Community\VC\Tools\MSVC\14.28.29333\include\vector

; 1733 :         return _Mypair._Get_first();

  00032	8b 45 ec	 mov	 eax, DWORD PTR $T6[ebp]
  00035	89 45 d8	 mov	 DWORD PTR $T1[ebp], eax
; File C:\Program Files (x86)\Microsoft Visual Studio\2019\Community\VC\Tools\MSVC\14.28.29333\include\vcruntime_new.h

; 169  :         return _Where;

  00038	8b 45 e8	 mov	 eax, DWORD PTR $T5[ebp]
  0003b	89 45 e0	 mov	 DWORD PTR $T3[ebp], eax
; File C:\Program Files (x86)\Microsoft Visual Studio\2019\Community\VC\Tools\MSVC\14.28.29333\include\type_traits

; 1443 :     return static_cast<_Ty&&>(_Arg);

  0003e	8b 45 e4	 mov	 eax, DWORD PTR $T4[ebp]
  00041	89 45 dc	 mov	 DWORD PTR $T2[ebp], eax
; File C:\Program Files (x86)\Microsoft Visual Studio\2019\Community\VC\Tools\MSVC\14.28.29333\include\xmemory

; 701  :         ::new (const_cast<void*>(static_cast<const volatile void*>(_Ptr))) _Objty(_STD forward<_Types>(_Args)...);

  00044	8b 45 e0	 mov	 eax, DWORD PTR $T3[ebp]
  00047	8b 4d dc	 mov	 ecx, DWORD PTR $T2[ebp]
  0004a	8b 09		 mov	 ecx, DWORD PTR [ecx]
  0004c	89 08		 mov	 DWORD PTR [eax], ecx
; File C:\Program Files (x86)\Microsoft Visual Studio\2019\Community\VC\Tools\MSVC\14.28.29333\include\vector

; 689  :         _Ty& _Result = *_Mylast;

  0004e	8b 45 fc	 mov	 eax, DWORD PTR __Mylast$[ebp]
  00051	8b 00		 mov	 eax, DWORD PTR [eax]
  00053	89 45 d4	 mov	 DWORD PTR __Result$[ebp], eax

; 690  :         ++_Mylast;

  00056	8b 45 fc	 mov	 eax, DWORD PTR __Mylast$[ebp]
  00059	8b 00		 mov	 eax, DWORD PTR [eax]
  0005b	83 c0 04	 add	 eax, 4
  0005e	8b 4d fc	 mov	 ecx, DWORD PTR __Mylast$[ebp]
  00061	89 01		 mov	 DWORD PTR [ecx], eax

; 691  : #if _HAS_CXX17
; 692  :         return _Result;
; 693  : #else // ^^^ _HAS_CXX17 ^^^ // vvv !_HAS_CXX17 vvv
; 694  :         (void) _Result;
; 695  : #endif // _HAS_CXX17
; 696  :     }

  00063	c9		 leave
  00064	c2 04 00	 ret	 4
??$_Emplace_back_with_unused_capacity@ABQAVCItemData@@@?$vector@PAVCItemData@@V?$allocator@PAVCItemData@@@std@@@std@@AAEXABQAVCItemData@@@Z ENDP ; std::vector<CItemData *,std::allocator<CItemData *> >::_Emplace_back_with_unused_capacity<CItemData * const &>
_TEXT	ENDS
; Function compile flags: /Odspy
; File C:\Program Files (x86)\Microsoft Visual Studio\2019\Community\VC\Tools\MSVC\14.28.29333\include\vector
; File C:\Program Files (x86)\Microsoft Visual Studio\2019\Community\VC\Tools\MSVC\14.28.29333\include\type_traits
; File C:\Program Files (x86)\Microsoft Visual Studio\2019\Community\VC\Tools\MSVC\14.28.29333\include\vector
; File C:\Program Files (x86)\Microsoft Visual Studio\2019\Community\VC\Tools\MSVC\14.28.29333\include\type_traits
; File C:\Program Files (x86)\Microsoft Visual Studio\2019\Community\VC\Tools\MSVC\14.28.29333\include\vector
;	COMDAT ??$emplace_back@ABQAVCItemData@@@?$vector@PAVCItemData@@V?$allocator@PAVCItemData@@@std@@@std@@QAEXABQAVCItemData@@@Z
_TEXT	SEGMENT
__Result$ = -24						; size = 4
$T1 = -20						; size = 4
$T2 = -16						; size = 4
__Mylast$ = -12						; size = 4
__My_data$ = -8						; size = 4
_this$ = -4						; size = 4
_<_Val_0>$ = 8						; size = 4
??$emplace_back@ABQAVCItemData@@@?$vector@PAVCItemData@@V?$allocator@PAVCItemData@@@std@@@std@@QAEXABQAVCItemData@@@Z PROC ; std::vector<CItemData *,std::allocator<CItemData *> >::emplace_back<CItemData * const &>, COMDAT
; _this$ = ecx

; 700  :     decltype(auto) emplace_back(_Valty&&... _Val) {

  00000	55		 push	 ebp
  00001	8b ec		 mov	 ebp, esp
  00003	83 ec 18	 sub	 esp, 24			; 00000018H
  00006	89 4d fc	 mov	 DWORD PTR _this$[ebp], ecx

; 701  :         // insert by perfectly forwarding into element at end, provide strong guarantee
; 702  :         auto& _My_data   = _Mypair._Myval2;

  00009	8b 45 fc	 mov	 eax, DWORD PTR _this$[ebp]
  0000c	89 45 f8	 mov	 DWORD PTR __My_data$[ebp], eax

; 703  :         pointer& _Mylast = _My_data._Mylast;

  0000f	8b 45 f8	 mov	 eax, DWORD PTR __My_data$[ebp]
  00012	83 c0 04	 add	 eax, 4
  00015	89 45 f4	 mov	 DWORD PTR __Mylast$[ebp], eax

; 704  :         if (_Mylast != _My_data._Myend) {

  00018	8b 45 f4	 mov	 eax, DWORD PTR __Mylast$[ebp]
  0001b	8b 4d f8	 mov	 ecx, DWORD PTR __My_data$[ebp]
  0001e	8b 00		 mov	 eax, DWORD PTR [eax]
  00020	3b 41 08	 cmp	 eax, DWORD PTR [ecx+8]
  00023	74 13		 je	 SHORT $LN2@emplace_ba
; File C:\Program Files (x86)\Microsoft Visual Studio\2019\Community\VC\Tools\MSVC\14.28.29333\include\type_traits

; 1443 :     return static_cast<_Ty&&>(_Arg);

  00025	8b 45 08	 mov	 eax, DWORD PTR _<_Val_0>$[ebp]
  00028	89 45 f0	 mov	 DWORD PTR $T2[ebp], eax
; File C:\Program Files (x86)\Microsoft Visual Studio\2019\Community\VC\Tools\MSVC\14.28.29333\include\vector

; 705  :             return _Emplace_back_with_unused_capacity(_STD forward<_Valty>(_Val)...);

  0002b	ff 75 f0	 push	 DWORD PTR $T2[ebp]
  0002e	8b 4d fc	 mov	 ecx, DWORD PTR _this$[ebp]
  00031	e8 00 00 00 00	 call	 ??$_Emplace_back_with_unused_capacity@ABQAVCItemData@@@?$vector@PAVCItemData@@V?$allocator@PAVCItemData@@@std@@@std@@AAEXABQAVCItemData@@@Z ; std::vector<CItemData *,std::allocator<CItemData *> >::_Emplace_back_with_unused_capacity<CItemData * const &>
  00036	eb 19		 jmp	 SHORT $LN1@emplace_ba
$LN2@emplace_ba:
; File C:\Program Files (x86)\Microsoft Visual Studio\2019\Community\VC\Tools\MSVC\14.28.29333\include\type_traits

; 1443 :     return static_cast<_Ty&&>(_Arg);

  00038	8b 45 08	 mov	 eax, DWORD PTR _<_Val_0>$[ebp]
  0003b	89 45 ec	 mov	 DWORD PTR $T1[ebp], eax
; File C:\Program Files (x86)\Microsoft Visual Studio\2019\Community\VC\Tools\MSVC\14.28.29333\include\vector

; 708  :         _Ty& _Result = *_Emplace_reallocate(_Mylast, _STD forward<_Valty>(_Val)...);

  0003e	ff 75 ec	 push	 DWORD PTR $T1[ebp]
  00041	8b 45 f4	 mov	 eax, DWORD PTR __Mylast$[ebp]
  00044	ff 30		 push	 DWORD PTR [eax]
  00046	8b 4d fc	 mov	 ecx, DWORD PTR _this$[ebp]
  00049	e8 00 00 00 00	 call	 ??$_Emplace_reallocate@ABQAVCItemData@@@?$vector@PAVCItemData@@V?$allocator@PAVCItemData@@@std@@@std@@QAEPAPAVCItemData@@QAPAV2@ABQAV2@@Z ; std::vector<CItemData *,std::allocator<CItemData *> >::_Emplace_reallocate<CItemData * const &>
  0004e	89 45 e8	 mov	 DWORD PTR __Result$[ebp], eax
$LN1@emplace_ba:

; 709  : #if _HAS_CXX17
; 710  :         return _Result;
; 711  : #else // ^^^ _HAS_CXX17 ^^^ // vvv !_HAS_CXX17 vvv
; 712  :         (void) _Result;
; 713  : #endif // _HAS_CXX17
; 714  :     }

  00051	c9		 leave
  00052	c2 04 00	 ret	 4
??$emplace_back@ABQAVCItemData@@@?$vector@PAVCItemData@@V?$allocator@PAVCItemData@@@std@@@std@@QAEXABQAVCItemData@@@Z ENDP ; std::vector<CItemData *,std::allocator<CItemData *> >::emplace_back<CItemData * const &>
_TEXT	ENDS
; Function compile flags: /Odspy
; File C:\Program Files (x86)\Microsoft Visual Studio\2019\Community\VC\Tools\MSVC\14.28.29333\include\vector
; File C:\Program Files (x86)\Microsoft Visual Studio\2019\Community\VC\Tools\MSVC\14.28.29333\include\xmemory
; File C:\Program Files (x86)\Microsoft Visual Studio\2019\Community\VC\Tools\MSVC\14.28.29333\include\vector
; File C:\Program Files (x86)\Microsoft Visual Studio\2019\Community\VC\Tools\MSVC\14.28.29333\include\xmemory
; File C:\Program Files (x86)\Microsoft Visual Studio\2019\Community\VC\Tools\MSVC\14.28.29333\include\vector
;	COMDAT ??$_Resize@U_Value_init_tag@std@@@?$vector@PAVCGraphicThing@@V?$allocator@PAVCGraphicThing@@@std@@@std@@AAEXIABU_Value_init_tag@1@@Z
_TEXT	SEGMENT
__Oldlast$1 = -56					; size = 4
$T2 = -52						; size = 4
$T3 = -48						; size = 4
__Oldcapacity$4 = -44					; size = 4
__Last$ = -40						; size = 4
$T5 = -36						; size = 4
$T6 = -32						; size = 4
__Newlast$7 = -28					; size = 4
__Oldsize$ = -24					; size = 4
__Myfirst$ = -20					; size = 4
__My_data$ = -16					; size = 4
_this$ = -12						; size = 4
__Mylast$ = -8						; size = 4
___formal$ = -4						; size = 1
__Newsize$ = 8						; size = 4
__Val$ = 12						; size = 4
??$_Resize@U_Value_init_tag@std@@@?$vector@PAVCGraphicThing@@V?$allocator@PAVCGraphicThing@@@std@@@std@@AAEXIABU_Value_init_tag@1@@Z PROC ; std::vector<CGraphicThing *,std::allocator<CGraphicThing *> >::_Resize<std::_Value_init_tag>, COMDAT
; _this$ = ecx

; 1211 :     void _Resize(const size_type _Newsize, const _Ty2& _Val) { // trim or append elements, provide strong guarantee

  00000	55		 push	 ebp
  00001	8b ec		 mov	 ebp, esp
  00003	83 ec 38	 sub	 esp, 56			; 00000038H
  00006	89 4d f4	 mov	 DWORD PTR _this$[ebp], ecx

; 1212 :         auto& _My_data      = _Mypair._Myval2;

  00009	8b 45 f4	 mov	 eax, DWORD PTR _this$[ebp]
  0000c	89 45 f0	 mov	 DWORD PTR __My_data$[ebp], eax

; 1213 :         pointer& _Myfirst   = _My_data._Myfirst;

  0000f	8b 45 f0	 mov	 eax, DWORD PTR __My_data$[ebp]
  00012	89 45 ec	 mov	 DWORD PTR __Myfirst$[ebp], eax

; 1214 :         pointer& _Mylast    = _My_data._Mylast;

  00015	8b 45 f0	 mov	 eax, DWORD PTR __My_data$[ebp]
  00018	83 c0 04	 add	 eax, 4
  0001b	89 45 f8	 mov	 DWORD PTR __Mylast$[ebp], eax

; 1215 :         const auto _Oldsize = static_cast<size_type>(_Mylast - _Myfirst);

  0001e	8b 45 f8	 mov	 eax, DWORD PTR __Mylast$[ebp]
  00021	8b 4d ec	 mov	 ecx, DWORD PTR __Myfirst$[ebp]
  00024	8b 00		 mov	 eax, DWORD PTR [eax]
  00026	2b 01		 sub	 eax, DWORD PTR [ecx]
  00028	c1 f8 02	 sar	 eax, 2
  0002b	89 45 e8	 mov	 DWORD PTR __Oldsize$[ebp], eax

; 1216 :         if (_Newsize < _Oldsize) { // trim

  0002e	8b 45 08	 mov	 eax, DWORD PTR __Newsize$[ebp]
  00031	3b 45 e8	 cmp	 eax, DWORD PTR __Oldsize$[ebp]
  00034	73 3d		 jae	 SHORT $LN2@Resize

; 1217 :             const pointer _Newlast = _Myfirst + _Newsize;

  00036	8b 45 ec	 mov	 eax, DWORD PTR __Myfirst$[ebp]
  00039	8b 00		 mov	 eax, DWORD PTR [eax]
  0003b	8b 4d 08	 mov	 ecx, DWORD PTR __Newsize$[ebp]
  0003e	8d 04 88	 lea	 eax, DWORD PTR [eax+ecx*4]
  00041	89 45 e4	 mov	 DWORD PTR __Newlast$7[ebp], eax

; 1218 :             _Orphan_range(_Newlast, _Mylast);
; 1219 :             _Destroy(_Newlast, _Mylast);

  00044	8b 45 f8	 mov	 eax, DWORD PTR __Mylast$[ebp]
  00047	8b 00		 mov	 eax, DWORD PTR [eax]
  00049	89 45 d8	 mov	 DWORD PTR __Last$[ebp], eax

; 1733 :         return _Mypair._Get_first();

  0004c	8b 45 f4	 mov	 eax, DWORD PTR _this$[ebp]
; File C:\Program Files (x86)\Microsoft Visual Studio\2019\Community\VC\Tools\MSVC\14.28.29333\include\xmemory

; 1347 :         return *this;

  0004f	89 45 e0	 mov	 DWORD PTR $T6[ebp], eax
; File C:\Program Files (x86)\Microsoft Visual Studio\2019\Community\VC\Tools\MSVC\14.28.29333\include\vector

; 1733 :         return _Mypair._Get_first();

  00052	8b 45 e0	 mov	 eax, DWORD PTR $T6[ebp]
  00055	89 45 dc	 mov	 DWORD PTR $T5[ebp], eax

; 1612 :         _Destroy_range(_First, _Last, _Getal());

  00058	ff 75 dc	 push	 DWORD PTR $T5[ebp]
  0005b	ff 75 d8	 push	 DWORD PTR __Last$[ebp]
  0005e	ff 75 e4	 push	 DWORD PTR __Newlast$7[ebp]
  00061	e8 00 00 00 00	 call	 ??$_Destroy_range@V?$allocator@PAVCGraphicThing@@@std@@@std@@YAXPAPAVCGraphicThing@@QAPAV1@AAV?$allocator@PAVCGraphicThing@@@0@@Z ; std::_Destroy_range<std::allocator<CGraphicThing *> >
  00066	83 c4 0c	 add	 esp, 12			; 0000000cH

; 1220 :             _Mylast = _Newlast;

  00069	8b 45 f8	 mov	 eax, DWORD PTR __Mylast$[ebp]
  0006c	8b 4d e4	 mov	 ecx, DWORD PTR __Newlast$7[ebp]
  0006f	89 08		 mov	 DWORD PTR [eax], ecx

; 1221 :             return;

  00071	eb 67		 jmp	 SHORT $LN1@Resize
$LN2@Resize:

; 1222 :         }
; 1223 : 
; 1224 :         if (_Newsize > _Oldsize) { // append

  00073	8b 45 08	 mov	 eax, DWORD PTR __Newsize$[ebp]
  00076	3b 45 e8	 cmp	 eax, DWORD PTR __Oldsize$[ebp]
  00079	76 5f		 jbe	 SHORT $LN1@Resize

; 1225 :             const auto _Oldcapacity = static_cast<size_type>(_My_data._Myend - _Myfirst);

  0007b	8b 45 f0	 mov	 eax, DWORD PTR __My_data$[ebp]
  0007e	8b 4d ec	 mov	 ecx, DWORD PTR __Myfirst$[ebp]
  00081	8b 40 08	 mov	 eax, DWORD PTR [eax+8]
  00084	2b 01		 sub	 eax, DWORD PTR [ecx]
  00086	c1 f8 02	 sar	 eax, 2
  00089	89 45 d4	 mov	 DWORD PTR __Oldcapacity$4[ebp], eax

; 1226 :             if (_Newsize > _Oldcapacity) { // reallocate

  0008c	8b 45 08	 mov	 eax, DWORD PTR __Newsize$[ebp]
  0008f	3b 45 d4	 cmp	 eax, DWORD PTR __Oldcapacity$4[ebp]
  00092	76 10		 jbe	 SHORT $LN4@Resize

; 1227 :                 _Resize_reallocate(_Newsize, _Val);

  00094	ff 75 0c	 push	 DWORD PTR __Val$[ebp]
  00097	ff 75 08	 push	 DWORD PTR __Newsize$[ebp]
  0009a	8b 4d f4	 mov	 ecx, DWORD PTR _this$[ebp]
  0009d	e8 00 00 00 00	 call	 ??$_Resize_reallocate@U_Value_init_tag@std@@@?$vector@PAVCGraphicThing@@V?$allocator@PAVCGraphicThing@@@std@@@std@@AAEXIABU_Value_init_tag@1@@Z ; std::vector<CGraphicThing *,std::allocator<CGraphicThing *> >::_Resize_reallocate<std::_Value_init_tag>

; 1228 :                 return;

  000a2	eb 36		 jmp	 SHORT $LN1@Resize
$LN4@Resize:

; 1229 :             }
; 1230 : 
; 1231 :             const pointer _Oldlast = _Mylast;

  000a4	8b 45 f8	 mov	 eax, DWORD PTR __Mylast$[ebp]
  000a7	8b 00		 mov	 eax, DWORD PTR [eax]
  000a9	89 45 c8	 mov	 DWORD PTR __Oldlast$1[ebp], eax

; 1232 :             _Mylast                = _Ufill(_Oldlast, _Newsize - _Oldsize, _Val);

  000ac	8b 45 0c	 mov	 eax, DWORD PTR __Val$[ebp]
  000af	8a 00		 mov	 al, BYTE PTR [eax]
  000b1	88 45 fc	 mov	 BYTE PTR ___formal$[ebp], al

; 1733 :         return _Mypair._Get_first();

  000b4	8b 45 f4	 mov	 eax, DWORD PTR _this$[ebp]
; File C:\Program Files (x86)\Microsoft Visual Studio\2019\Community\VC\Tools\MSVC\14.28.29333\include\xmemory

; 1347 :         return *this;

  000b7	89 45 d0	 mov	 DWORD PTR $T3[ebp], eax
; File C:\Program Files (x86)\Microsoft Visual Studio\2019\Community\VC\Tools\MSVC\14.28.29333\include\vector

; 1733 :         return _Mypair._Get_first();

  000ba	8b 45 d0	 mov	 eax, DWORD PTR $T3[ebp]
  000bd	89 45 cc	 mov	 DWORD PTR $T2[ebp], eax

; 1583 :         return _Uninitialized_value_construct_n(_Dest, _Count, _Getal());

  000c0	ff 75 cc	 push	 DWORD PTR $T2[ebp]

; 1232 :             _Mylast                = _Ufill(_Oldlast, _Newsize - _Oldsize, _Val);

  000c3	8b 45 08	 mov	 eax, DWORD PTR __Newsize$[ebp]
  000c6	2b 45 e8	 sub	 eax, DWORD PTR __Oldsize$[ebp]

; 1583 :         return _Uninitialized_value_construct_n(_Dest, _Count, _Getal());

  000c9	50		 push	 eax
  000ca	ff 75 c8	 push	 DWORD PTR __Oldlast$1[ebp]
  000cd	e8 00 00 00 00	 call	 ??$_Uninitialized_value_construct_n@V?$allocator@PAVCGraphicThing@@@std@@@std@@YAPAPAVCGraphicThing@@PAPAV1@IAAV?$allocator@PAVCGraphicThing@@@0@@Z ; std::_Uninitialized_value_construct_n<std::allocator<CGraphicThing *> >
  000d2	83 c4 0c	 add	 esp, 12			; 0000000cH

; 1232 :             _Mylast                = _Ufill(_Oldlast, _Newsize - _Oldsize, _Val);

  000d5	8b 4d f8	 mov	 ecx, DWORD PTR __Mylast$[ebp]
  000d8	89 01		 mov	 DWORD PTR [ecx], eax
$LN1@Resize:

; 1233 :             _Orphan_range(_Oldlast, _Oldlast);
; 1234 :         }
; 1235 : 
; 1236 :         // if _Newsize == _Oldsize, do nothing; avoid invalidating iterators
; 1237 :     }

  000da	c9		 leave
  000db	c2 08 00	 ret	 8
??$_Resize@U_Value_init_tag@std@@@?$vector@PAVCGraphicThing@@V?$allocator@PAVCGraphicThing@@@std@@@std@@AAEXIABU_Value_init_tag@1@@Z ENDP ; std::vector<CGraphicThing *,std::allocator<CGraphicThing *> >::_Resize<std::_Value_init_tag>
_TEXT	ENDS
; Function compile flags: /Odspy
; File C:\Program Files (x86)\Microsoft Visual Studio\2019\Community\VC\Tools\MSVC\14.28.29333\include\algorithm
; File C:\Program Files (x86)\Microsoft Visual Studio\2019\Community\VC\Tools\MSVC\14.28.29333\include\vector
; File C:\Program Files (x86)\Microsoft Visual Studio\2019\Community\VC\Tools\MSVC\14.28.29333\include\xstddef
; File C:\Program Files (x86)\Microsoft Visual Studio\2019\Community\VC\Tools\MSVC\14.28.29333\include\vector
; File C:\Program Files (x86)\Microsoft Visual Studio\2019\Community\VC\Tools\MSVC\14.28.29333\include\algorithm
; File C:\Program Files (x86)\Microsoft Visual Studio\2019\Community\VC\Tools\MSVC\14.28.29333\include\vector
; File C:\Program Files (x86)\Microsoft Visual Studio\2019\Community\VC\Tools\MSVC\14.28.29333\include\xstddef
; File C:\Program Files (x86)\Microsoft Visual Studio\2019\Community\VC\Tools\MSVC\14.28.29333\include\vector
; File C:\Program Files (x86)\Microsoft Visual Studio\2019\Community\VC\Tools\MSVC\14.28.29333\include\algorithm
;	COMDAT ??$for_each@V?$_Vector_iterator@V?$_Vector_val@U?$_Simple_types@PAVCItemData@@@std@@@std@@@std@@P6AXPAVCItemData@@@Z@std@@YAP6AXPAVCItemData@@@ZV?$_Vector_iterator@V?$_Vector_val@U?$_Simple_types@PAVCItemData@@@std@@@std@@@0@1P6AX0@Z@Z
_TEXT	SEGMENT
__ULast$ = -32						; size = 4
$T1 = -28						; size = 4
$T2 = -24						; size = 4
__Ptr$3 = -20						; size = 4
$T4 = -16						; size = 4
$T5 = -12						; size = 4
__Ptr$6 = -8						; size = 4
__UFirst$ = -4						; size = 4
__First$ = 8						; size = 4
__Last$ = 12						; size = 4
__Func$ = 16						; size = 4
??$for_each@V?$_Vector_iterator@V?$_Vector_val@U?$_Simple_types@PAVCItemData@@@std@@@std@@@std@@P6AXPAVCItemData@@@Z@std@@YAP6AXPAVCItemData@@@ZV?$_Vector_iterator@V?$_Vector_val@U?$_Simple_types@PAVCItemData@@@std@@@std@@@0@1P6AX0@Z@Z PROC ; std::for_each<std::_Vector_iterator<std::_Vector_val<std::_Simple_types<CItemData *> > >,void (__cdecl*)(CItemData *)>, COMDAT

; 303  : _CONSTEXPR20 _Fn for_each(_InIt _First, _InIt _Last, _Fn _Func) { // perform function for each element [_First, _Last)

  00000	55		 push	 ebp
  00001	8b ec		 mov	 ebp, esp
  00003	83 ec 20	 sub	 esp, 32			; 00000020H
; File C:\Program Files (x86)\Microsoft Visual Studio\2019\Community\VC\Tools\MSVC\14.28.29333\include\vector

; 310  :         return _Unfancy(this->_Ptr);

  00006	8b 45 08	 mov	 eax, DWORD PTR __First$[ebp]
  00009	89 45 f8	 mov	 DWORD PTR __Ptr$6[ebp], eax
; File C:\Program Files (x86)\Microsoft Visual Studio\2019\Community\VC\Tools\MSVC\14.28.29333\include\xstddef

; 289  :     return _Ptr;

  0000c	8b 45 f8	 mov	 eax, DWORD PTR __Ptr$6[ebp]
  0000f	89 45 f4	 mov	 DWORD PTR $T5[ebp], eax
; File C:\Program Files (x86)\Microsoft Visual Studio\2019\Community\VC\Tools\MSVC\14.28.29333\include\vector

; 310  :         return _Unfancy(this->_Ptr);

  00012	8b 45 f4	 mov	 eax, DWORD PTR $T5[ebp]
  00015	89 45 f0	 mov	 DWORD PTR $T4[ebp], eax
; File C:\Program Files (x86)\Microsoft Visual Studio\2019\Community\VC\Tools\MSVC\14.28.29333\include\algorithm

; 305  :     auto _UFirst      = _Get_unwrapped(_First);

  00018	8b 45 f0	 mov	 eax, DWORD PTR $T4[ebp]
  0001b	89 45 fc	 mov	 DWORD PTR __UFirst$[ebp], eax
; File C:\Program Files (x86)\Microsoft Visual Studio\2019\Community\VC\Tools\MSVC\14.28.29333\include\vector

; 310  :         return _Unfancy(this->_Ptr);

  0001e	8b 45 0c	 mov	 eax, DWORD PTR __Last$[ebp]
  00021	89 45 ec	 mov	 DWORD PTR __Ptr$3[ebp], eax
; File C:\Program Files (x86)\Microsoft Visual Studio\2019\Community\VC\Tools\MSVC\14.28.29333\include\xstddef

; 289  :     return _Ptr;

  00024	8b 45 ec	 mov	 eax, DWORD PTR __Ptr$3[ebp]
  00027	89 45 e8	 mov	 DWORD PTR $T2[ebp], eax
; File C:\Program Files (x86)\Microsoft Visual Studio\2019\Community\VC\Tools\MSVC\14.28.29333\include\vector

; 310  :         return _Unfancy(this->_Ptr);

  0002a	8b 45 e8	 mov	 eax, DWORD PTR $T2[ebp]
  0002d	89 45 e4	 mov	 DWORD PTR $T1[ebp], eax
; File C:\Program Files (x86)\Microsoft Visual Studio\2019\Community\VC\Tools\MSVC\14.28.29333\include\algorithm

; 306  :     const auto _ULast = _Get_unwrapped(_Last);

  00030	8b 45 e4	 mov	 eax, DWORD PTR $T1[ebp]
  00033	89 45 e0	 mov	 DWORD PTR __ULast$[ebp], eax

; 307  :     for (; _UFirst != _ULast; ++_UFirst) {

  00036	eb 09		 jmp	 SHORT $LN4@for_each
$LN2@for_each:
  00038	8b 45 fc	 mov	 eax, DWORD PTR __UFirst$[ebp]
  0003b	83 c0 04	 add	 eax, 4
  0003e	89 45 fc	 mov	 DWORD PTR __UFirst$[ebp], eax
$LN4@for_each:
  00041	8b 45 fc	 mov	 eax, DWORD PTR __UFirst$[ebp]
  00044	3b 45 e0	 cmp	 eax, DWORD PTR __ULast$[ebp]
  00047	74 0b		 je	 SHORT $LN3@for_each

; 308  :         _Func(*_UFirst);

  00049	8b 45 fc	 mov	 eax, DWORD PTR __UFirst$[ebp]
  0004c	ff 30		 push	 DWORD PTR [eax]
  0004e	ff 55 10	 call	 DWORD PTR __Func$[ebp]
  00051	59		 pop	 ecx

; 309  :     }

  00052	eb e4		 jmp	 SHORT $LN2@for_each
$LN3@for_each:

; 310  : 
; 311  :     return _Func;

  00054	8b 45 10	 mov	 eax, DWORD PTR __Func$[ebp]

; 312  : }

  00057	c9		 leave
  00058	c3		 ret	 0
??$for_each@V?$_Vector_iterator@V?$_Vector_val@U?$_Simple_types@PAVCItemData@@@std@@@std@@@std@@P6AXPAVCItemData@@@Z@std@@YAP6AXPAVCItemData@@@ZV?$_Vector_iterator@V?$_Vector_val@U?$_Simple_types@PAVCItemData@@@std@@@std@@@0@1P6AX0@Z@Z ENDP ; std::for_each<std::_Vector_iterator<std::_Vector_val<std::_Simple_types<CItemData *> > >,void (__cdecl*)(CItemData *)>
_TEXT	ENDS
; Function compile flags: /Odspy
;	COMDAT ??__F?ms_kPool@CItemData@@2V?$CDynamicPool@VCItemData@@@@A@@YAXXZ
text$yd	SEGMENT
??__F?ms_kPool@CItemData@@2V?$CDynamicPool@VCItemData@@@@A@@YAXXZ PROC ; `dynamic atexit destructor for 'CItemData::ms_kPool'', COMDAT
  00000	55		 push	 ebp
  00001	8b ec		 mov	 ebp, esp
  00003	b9 00 00 00 00	 mov	 ecx, OFFSET ?ms_kPool@CItemData@@2V?$CDynamicPool@VCItemData@@@@A ; CItemData::ms_kPool
  00008	e8 00 00 00 00	 call	 ??1?$CDynamicPool@VCItemData@@@@UAE@XZ ; CDynamicPool<CItemData>::~CDynamicPool<CItemData>
  0000d	5d		 pop	 ebp
  0000e	c3		 ret	 0
??__F?ms_kPool@CItemData@@2V?$CDynamicPool@VCItemData@@@@A@@YAXXZ ENDP ; `dynamic atexit destructor for 'CItemData::ms_kPool''
text$yd	ENDS
; Function compile flags: /Odspy
; File D:\Metin2 Server Files\mainline\SRC_2014\Metin2Client\GameLib\ItemData.cpp
;	COMDAT ??__E?ms_kPool@CItemData@@2V?$CDynamicPool@VCItemData@@@@A@@YAXXZ
text$di	SEGMENT
??__E?ms_kPool@CItemData@@2V?$CDynamicPool@VCItemData@@@@A@@YAXXZ PROC ; `dynamic initializer for 'CItemData::ms_kPool'', COMDAT

; 6    : CDynamicPool<CItemData>		CItemData::ms_kPool;

  00000	55		 push	 ebp
  00001	8b ec		 mov	 ebp, esp
  00003	b9 00 00 00 00	 mov	 ecx, OFFSET ?ms_kPool@CItemData@@2V?$CDynamicPool@VCItemData@@@@A ; CItemData::ms_kPool
  00008	e8 00 00 00 00	 call	 ??0?$CDynamicPool@VCItemData@@@@QAE@XZ ; CDynamicPool<CItemData>::CDynamicPool<CItemData>
  0000d	68 00 00 00 00	 push	 OFFSET ??__F?ms_kPool@CItemData@@2V?$CDynamicPool@VCItemData@@@@A@@YAXXZ ; `dynamic atexit destructor for 'CItemData::ms_kPool''
  00012	e8 00 00 00 00	 call	 _atexit
  00017	59		 pop	 ecx
  00018	5d		 pop	 ebp
  00019	c3		 ret	 0
??__E?ms_kPool@CItemData@@2V?$CDynamicPool@VCItemData@@@@A@@YAXXZ ENDP ; `dynamic initializer for 'CItemData::ms_kPool''
text$di	ENDS
; Function compile flags: /Odspy
;	COMDAT ??_G?$CDynamicPool@VCItemData@@@@UAEPAXI@Z
_TEXT	SEGMENT
_this$ = -4						; size = 4
___flags$ = 8						; size = 4
??_G?$CDynamicPool@VCItemData@@@@UAEPAXI@Z PROC		; CDynamicPool<CItemData>::`scalar deleting destructor', COMDAT
; _this$ = ecx
  00000	55		 push	 ebp
  00001	8b ec		 mov	 ebp, esp
  00003	51		 push	 ecx
  00004	89 4d fc	 mov	 DWORD PTR _this$[ebp], ecx
  00007	8b 4d fc	 mov	 ecx, DWORD PTR _this$[ebp]
  0000a	e8 00 00 00 00	 call	 ??1?$CDynamicPool@VCItemData@@@@UAE@XZ ; CDynamicPool<CItemData>::~CDynamicPool<CItemData>
  0000f	8b 45 08	 mov	 eax, DWORD PTR ___flags$[ebp]
  00012	83 e0 01	 and	 eax, 1
  00015	74 0c		 je	 SHORT $LN2@scalar
  00017	6a 24		 push	 36			; 00000024H
  00019	ff 75 fc	 push	 DWORD PTR _this$[ebp]
  0001c	e8 00 00 00 00	 call	 ??3@YAXPAXI@Z		; operator delete
  00021	59		 pop	 ecx
  00022	59		 pop	 ecx
$LN2@scalar:
  00023	8b 45 fc	 mov	 eax, DWORD PTR _this$[ebp]
  00026	c9		 leave
  00027	c2 04 00	 ret	 4
??_G?$CDynamicPool@VCItemData@@@@UAEPAXI@Z ENDP		; CDynamicPool<CItemData>::`scalar deleting destructor'
_TEXT	ENDS
; Function compile flags: /Odspy
; File C:\Program Files (x86)\Microsoft Visual Studio\2019\Community\VC\Tools\MSVC\14.28.29333\include\vector
;	COMDAT ?_Xlength@?$vector@PAVCItemData@@V?$allocator@PAVCItemData@@@std@@@std@@CAXXZ
_TEXT	SEGMENT
?_Xlength@?$vector@PAVCItemData@@V?$allocator@PAVCItemData@@@std@@@std@@CAXXZ PROC ; std::vector<CItemData *,std::allocator<CItemData *> >::_Xlength, COMDAT

; 1704 :     [[noreturn]] static void _Xlength() {

  00000	55		 push	 ebp
  00001	8b ec		 mov	 ebp, esp

; 1705 :         _Xlength_error("vector too long");

  00003	68 00 00 00 00	 push	 OFFSET ??_C@_0BA@FOIKENOD@vector?5too?5long@
  00008	e8 00 00 00 00	 call	 ?_Xlength_error@std@@YAXPBD@Z ; std::_Xlength_error
$LN2@Xlength:

; 1706 :     }

  0000d	5d		 pop	 ebp
  0000e	c3		 ret	 0
?_Xlength@?$vector@PAVCItemData@@V?$allocator@PAVCItemData@@@std@@@std@@CAXXZ ENDP ; std::vector<CItemData *,std::allocator<CItemData *> >::_Xlength
_TEXT	ENDS
; Function compile flags: /Odspy
; File C:\Program Files (x86)\Microsoft Visual Studio\2019\Community\VC\Tools\MSVC\14.28.29333\include\vector
; File C:\Program Files (x86)\Microsoft Visual Studio\2019\Community\VC\Tools\MSVC\14.28.29333\include\xmemory
; File C:\Program Files (x86)\Microsoft Visual Studio\2019\Community\VC\Tools\MSVC\14.28.29333\include\vector
; File C:\Program Files (x86)\Microsoft Visual Studio\2019\Community\VC\Tools\MSVC\14.28.29333\include\xmemory
; File C:\Program Files (x86)\Microsoft Visual Studio\2019\Community\VC\Tools\MSVC\14.28.29333\include\vector
; File C:\Program Files (x86)\Microsoft Visual Studio\2019\Community\VC\Tools\MSVC\14.28.29333\include\xmemory
; File C:\Program Files (x86)\Microsoft Visual Studio\2019\Community\VC\Tools\MSVC\14.28.29333\include\vector
;	COMDAT ?_Tidy@?$vector@PAVCItemData@@V?$allocator@PAVCItemData@@@std@@@std@@AAEXXZ
_TEXT	SEGMENT
$T1 = -52						; size = 4
__Ptr$ = -48						; size = 4
__Count$ = -44						; size = 4
$T2 = -40						; size = 4
__First$ = -36						; size = 4
__Last$ = -32						; size = 4
$T3 = -28						; size = 4
$T4 = -24						; size = 4
__Myend$ = -20						; size = 4
__Mylast$ = -16						; size = 4
_this$ = -12						; size = 4
__My_data$ = -8						; size = 4
__Myfirst$ = -4						; size = 4
?_Tidy@?$vector@PAVCItemData@@V?$allocator@PAVCItemData@@@std@@@std@@AAEXXZ PROC ; std::vector<CItemData *,std::allocator<CItemData *> >::_Tidy, COMDAT
; _this$ = ecx

; 1686 :     void _Tidy() noexcept { // free all storage

  00000	55		 push	 ebp
  00001	8b ec		 mov	 ebp, esp
  00003	83 ec 34	 sub	 esp, 52			; 00000034H
  00006	89 4d f4	 mov	 DWORD PTR _this$[ebp], ecx

; 1687 :         auto& _My_data    = _Mypair._Myval2;

  00009	8b 45 f4	 mov	 eax, DWORD PTR _this$[ebp]
  0000c	89 45 f8	 mov	 DWORD PTR __My_data$[ebp], eax

; 1688 :         pointer& _Myfirst = _My_data._Myfirst;

  0000f	8b 45 f8	 mov	 eax, DWORD PTR __My_data$[ebp]
  00012	89 45 fc	 mov	 DWORD PTR __Myfirst$[ebp], eax

; 1689 :         pointer& _Mylast  = _My_data._Mylast;

  00015	8b 45 f8	 mov	 eax, DWORD PTR __My_data$[ebp]
  00018	83 c0 04	 add	 eax, 4
  0001b	89 45 f0	 mov	 DWORD PTR __Mylast$[ebp], eax

; 1690 :         pointer& _Myend   = _My_data._Myend;

  0001e	8b 45 f8	 mov	 eax, DWORD PTR __My_data$[ebp]
  00021	83 c0 08	 add	 eax, 8
  00024	89 45 ec	 mov	 DWORD PTR __Myend$[ebp], eax

; 1691 : 
; 1692 :         _My_data._Orphan_all();
; 1693 : 
; 1694 :         if (_Myfirst) { // destroy and deallocate old array

  00027	8b 45 fc	 mov	 eax, DWORD PTR __Myfirst$[ebp]
  0002a	83 38 00	 cmp	 DWORD PTR [eax], 0
  0002d	74 74		 je	 SHORT $LN3@Tidy

; 1695 :             _Destroy(_Myfirst, _Mylast);

  0002f	8b 45 f0	 mov	 eax, DWORD PTR __Mylast$[ebp]
  00032	8b 00		 mov	 eax, DWORD PTR [eax]
  00034	89 45 e0	 mov	 DWORD PTR __Last$[ebp], eax
  00037	8b 45 fc	 mov	 eax, DWORD PTR __Myfirst$[ebp]
  0003a	8b 00		 mov	 eax, DWORD PTR [eax]
  0003c	89 45 dc	 mov	 DWORD PTR __First$[ebp], eax

; 1733 :         return _Mypair._Get_first();

  0003f	8b 45 f4	 mov	 eax, DWORD PTR _this$[ebp]
; File C:\Program Files (x86)\Microsoft Visual Studio\2019\Community\VC\Tools\MSVC\14.28.29333\include\xmemory

; 1347 :         return *this;

  00042	89 45 e8	 mov	 DWORD PTR $T4[ebp], eax
; File C:\Program Files (x86)\Microsoft Visual Studio\2019\Community\VC\Tools\MSVC\14.28.29333\include\vector

; 1733 :         return _Mypair._Get_first();

  00045	8b 45 e8	 mov	 eax, DWORD PTR $T4[ebp]
  00048	89 45 e4	 mov	 DWORD PTR $T3[ebp], eax

; 1612 :         _Destroy_range(_First, _Last, _Getal());

  0004b	ff 75 e4	 push	 DWORD PTR $T3[ebp]
  0004e	ff 75 e0	 push	 DWORD PTR __Last$[ebp]
  00051	ff 75 dc	 push	 DWORD PTR __First$[ebp]
  00054	e8 00 00 00 00	 call	 ??$_Destroy_range@V?$allocator@PAVCItemData@@@std@@@std@@YAXPAPAVCItemData@@QAPAV1@AAV?$allocator@PAVCItemData@@@0@@Z ; std::_Destroy_range<std::allocator<CItemData *> >
  00059	83 c4 0c	 add	 esp, 12			; 0000000cH

; 1733 :         return _Mypair._Get_first();

  0005c	8b 45 f4	 mov	 eax, DWORD PTR _this$[ebp]
; File C:\Program Files (x86)\Microsoft Visual Studio\2019\Community\VC\Tools\MSVC\14.28.29333\include\xmemory

; 1347 :         return *this;

  0005f	89 45 d8	 mov	 DWORD PTR $T2[ebp], eax
; File C:\Program Files (x86)\Microsoft Visual Studio\2019\Community\VC\Tools\MSVC\14.28.29333\include\vector

; 1733 :         return _Mypair._Get_first();

  00062	8b 45 d8	 mov	 eax, DWORD PTR $T2[ebp]
  00065	89 45 cc	 mov	 DWORD PTR $T1[ebp], eax

; 1696 :             _Getal().deallocate(_Myfirst, static_cast<size_type>(_Myend - _Myfirst));

  00068	8b 45 ec	 mov	 eax, DWORD PTR __Myend$[ebp]
  0006b	8b 4d fc	 mov	 ecx, DWORD PTR __Myfirst$[ebp]
  0006e	8b 00		 mov	 eax, DWORD PTR [eax]
  00070	2b 01		 sub	 eax, DWORD PTR [ecx]
  00072	c1 f8 02	 sar	 eax, 2
  00075	89 45 d4	 mov	 DWORD PTR __Count$[ebp], eax
  00078	8b 45 fc	 mov	 eax, DWORD PTR __Myfirst$[ebp]
  0007b	8b 00		 mov	 eax, DWORD PTR [eax]
  0007d	89 45 d0	 mov	 DWORD PTR __Ptr$[ebp], eax
; File C:\Program Files (x86)\Microsoft Visual Studio\2019\Community\VC\Tools\MSVC\14.28.29333\include\xmemory

; 810  :         _Deallocate<_New_alignof<_Ty>>(_Ptr, sizeof(_Ty) * _Count);

  00080	8b 45 d4	 mov	 eax, DWORD PTR __Count$[ebp]
  00083	c1 e0 02	 shl	 eax, 2
  00086	50		 push	 eax
  00087	ff 75 d0	 push	 DWORD PTR __Ptr$[ebp]
  0008a	e8 00 00 00 00	 call	 ??$_Deallocate@$07$0A@@std@@YAXPAXI@Z ; std::_Deallocate<8,0>
  0008f	59		 pop	 ecx
  00090	59		 pop	 ecx
; File C:\Program Files (x86)\Microsoft Visual Studio\2019\Community\VC\Tools\MSVC\14.28.29333\include\vector

; 1698 :             _Myfirst = pointer();

  00091	8b 45 fc	 mov	 eax, DWORD PTR __Myfirst$[ebp]
  00094	83 20 00	 and	 DWORD PTR [eax], 0

; 1699 :             _Mylast  = pointer();

  00097	8b 45 f0	 mov	 eax, DWORD PTR __Mylast$[ebp]
  0009a	83 20 00	 and	 DWORD PTR [eax], 0

; 1700 :             _Myend   = pointer();

  0009d	8b 45 ec	 mov	 eax, DWORD PTR __Myend$[ebp]
  000a0	83 20 00	 and	 DWORD PTR [eax], 0
$LN3@Tidy:

; 1701 :         }
; 1702 :     }

  000a3	c9		 leave
  000a4	c3		 ret	 0
?_Tidy@?$vector@PAVCItemData@@V?$allocator@PAVCItemData@@@std@@@std@@AAEXXZ ENDP ; std::vector<CItemData *,std::allocator<CItemData *> >::_Tidy
_TEXT	ENDS
; Function compile flags: /Odspy
; File C:\Program Files (x86)\Microsoft Visual Studio\2019\Community\VC\Tools\MSVC\14.28.29333\include\vector
; File C:\Program Files (x86)\Microsoft Visual Studio\2019\Community\VC\Tools\MSVC\14.28.29333\include\xmemory
; File C:\Program Files (x86)\Microsoft Visual Studio\2019\Community\VC\Tools\MSVC\14.28.29333\include\vector
; File C:\Program Files (x86)\Microsoft Visual Studio\2019\Community\VC\Tools\MSVC\14.28.29333\include\xmemory
; File C:\Program Files (x86)\Microsoft Visual Studio\2019\Community\VC\Tools\MSVC\14.28.29333\include\vector
; File C:\Program Files (x86)\Microsoft Visual Studio\2019\Community\VC\Tools\MSVC\14.28.29333\include\xmemory
; File C:\Program Files (x86)\Microsoft Visual Studio\2019\Community\VC\Tools\MSVC\14.28.29333\include\vector
;	COMDAT ?_Change_array@?$vector@PAVCItemData@@V?$allocator@PAVCItemData@@@std@@@std@@AAEXQAPAVCItemData@@II@Z
_TEXT	SEGMENT
$T1 = -52						; size = 4
__Ptr$ = -48						; size = 4
__Count$ = -44						; size = 4
$T2 = -40						; size = 4
__First$ = -36						; size = 4
__Last$ = -32						; size = 4
$T3 = -28						; size = 4
$T4 = -24						; size = 4
__Myend$ = -20						; size = 4
__Mylast$ = -16						; size = 4
_this$ = -12						; size = 4
__My_data$ = -8						; size = 4
__Myfirst$ = -4						; size = 4
__Newvec$ = 8						; size = 4
__Newsize$ = 12						; size = 4
__Newcapacity$ = 16					; size = 4
?_Change_array@?$vector@PAVCItemData@@V?$allocator@PAVCItemData@@@std@@@std@@AAEXQAPAVCItemData@@II@Z PROC ; std::vector<CItemData *,std::allocator<CItemData *> >::_Change_array, COMDAT
; _this$ = ecx

; 1667 :     void _Change_array(const pointer _Newvec, const size_type _Newsize, const size_type _Newcapacity) {

  00000	55		 push	 ebp
  00001	8b ec		 mov	 ebp, esp
  00003	83 ec 34	 sub	 esp, 52			; 00000034H
  00006	89 4d f4	 mov	 DWORD PTR _this$[ebp], ecx

; 1668 :         // orphan all iterators, discard old array, acquire new array
; 1669 :         auto& _My_data    = _Mypair._Myval2;

  00009	8b 45 f4	 mov	 eax, DWORD PTR _this$[ebp]
  0000c	89 45 f8	 mov	 DWORD PTR __My_data$[ebp], eax

; 1670 :         pointer& _Myfirst = _My_data._Myfirst;

  0000f	8b 45 f8	 mov	 eax, DWORD PTR __My_data$[ebp]
  00012	89 45 fc	 mov	 DWORD PTR __Myfirst$[ebp], eax

; 1671 :         pointer& _Mylast  = _My_data._Mylast;

  00015	8b 45 f8	 mov	 eax, DWORD PTR __My_data$[ebp]
  00018	83 c0 04	 add	 eax, 4
  0001b	89 45 f0	 mov	 DWORD PTR __Mylast$[ebp], eax

; 1672 :         pointer& _Myend   = _My_data._Myend;

  0001e	8b 45 f8	 mov	 eax, DWORD PTR __My_data$[ebp]
  00021	83 c0 08	 add	 eax, 8
  00024	89 45 ec	 mov	 DWORD PTR __Myend$[ebp], eax

; 1673 : 
; 1674 :         _My_data._Orphan_all();
; 1675 : 
; 1676 :         if (_Myfirst) { // destroy and deallocate old array

  00027	8b 45 fc	 mov	 eax, DWORD PTR __Myfirst$[ebp]
  0002a	83 38 00	 cmp	 DWORD PTR [eax], 0
  0002d	74 62		 je	 SHORT $LN2@Change_arr

; 1677 :             _Destroy(_Myfirst, _Mylast);

  0002f	8b 45 f0	 mov	 eax, DWORD PTR __Mylast$[ebp]
  00032	8b 00		 mov	 eax, DWORD PTR [eax]
  00034	89 45 e0	 mov	 DWORD PTR __Last$[ebp], eax
  00037	8b 45 fc	 mov	 eax, DWORD PTR __Myfirst$[ebp]
  0003a	8b 00		 mov	 eax, DWORD PTR [eax]
  0003c	89 45 dc	 mov	 DWORD PTR __First$[ebp], eax

; 1733 :         return _Mypair._Get_first();

  0003f	8b 45 f4	 mov	 eax, DWORD PTR _this$[ebp]
; File C:\Program Files (x86)\Microsoft Visual Studio\2019\Community\VC\Tools\MSVC\14.28.29333\include\xmemory

; 1347 :         return *this;

  00042	89 45 e8	 mov	 DWORD PTR $T4[ebp], eax
; File C:\Program Files (x86)\Microsoft Visual Studio\2019\Community\VC\Tools\MSVC\14.28.29333\include\vector

; 1733 :         return _Mypair._Get_first();

  00045	8b 45 e8	 mov	 eax, DWORD PTR $T4[ebp]
  00048	89 45 e4	 mov	 DWORD PTR $T3[ebp], eax

; 1612 :         _Destroy_range(_First, _Last, _Getal());

  0004b	ff 75 e4	 push	 DWORD PTR $T3[ebp]
  0004e	ff 75 e0	 push	 DWORD PTR __Last$[ebp]
  00051	ff 75 dc	 push	 DWORD PTR __First$[ebp]
  00054	e8 00 00 00 00	 call	 ??$_Destroy_range@V?$allocator@PAVCItemData@@@std@@@std@@YAXPAPAVCItemData@@QAPAV1@AAV?$allocator@PAVCItemData@@@0@@Z ; std::_Destroy_range<std::allocator<CItemData *> >
  00059	83 c4 0c	 add	 esp, 12			; 0000000cH

; 1733 :         return _Mypair._Get_first();

  0005c	8b 45 f4	 mov	 eax, DWORD PTR _this$[ebp]
; File C:\Program Files (x86)\Microsoft Visual Studio\2019\Community\VC\Tools\MSVC\14.28.29333\include\xmemory

; 1347 :         return *this;

  0005f	89 45 d8	 mov	 DWORD PTR $T2[ebp], eax
; File C:\Program Files (x86)\Microsoft Visual Studio\2019\Community\VC\Tools\MSVC\14.28.29333\include\vector

; 1733 :         return _Mypair._Get_first();

  00062	8b 45 d8	 mov	 eax, DWORD PTR $T2[ebp]
  00065	89 45 cc	 mov	 DWORD PTR $T1[ebp], eax

; 1678 :             _Getal().deallocate(_Myfirst, static_cast<size_type>(_Myend - _Myfirst));

  00068	8b 45 ec	 mov	 eax, DWORD PTR __Myend$[ebp]
  0006b	8b 4d fc	 mov	 ecx, DWORD PTR __Myfirst$[ebp]
  0006e	8b 00		 mov	 eax, DWORD PTR [eax]
  00070	2b 01		 sub	 eax, DWORD PTR [ecx]
  00072	c1 f8 02	 sar	 eax, 2
  00075	89 45 d4	 mov	 DWORD PTR __Count$[ebp], eax
  00078	8b 45 fc	 mov	 eax, DWORD PTR __Myfirst$[ebp]
  0007b	8b 00		 mov	 eax, DWORD PTR [eax]
  0007d	89 45 d0	 mov	 DWORD PTR __Ptr$[ebp], eax
; File C:\Program Files (x86)\Microsoft Visual Studio\2019\Community\VC\Tools\MSVC\14.28.29333\include\xmemory

; 810  :         _Deallocate<_New_alignof<_Ty>>(_Ptr, sizeof(_Ty) * _Count);

  00080	8b 45 d4	 mov	 eax, DWORD PTR __Count$[ebp]
  00083	c1 e0 02	 shl	 eax, 2
  00086	50		 push	 eax
  00087	ff 75 d0	 push	 DWORD PTR __Ptr$[ebp]
  0008a	e8 00 00 00 00	 call	 ??$_Deallocate@$07$0A@@std@@YAXPAXI@Z ; std::_Deallocate<8,0>
  0008f	59		 pop	 ecx
  00090	59		 pop	 ecx
$LN2@Change_arr:
; File C:\Program Files (x86)\Microsoft Visual Studio\2019\Community\VC\Tools\MSVC\14.28.29333\include\vector

; 1681 :         _Myfirst = _Newvec;

  00091	8b 45 fc	 mov	 eax, DWORD PTR __Myfirst$[ebp]
  00094	8b 4d 08	 mov	 ecx, DWORD PTR __Newvec$[ebp]
  00097	89 08		 mov	 DWORD PTR [eax], ecx

; 1682 :         _Mylast  = _Newvec + _Newsize;

  00099	8b 45 0c	 mov	 eax, DWORD PTR __Newsize$[ebp]
  0009c	8b 4d 08	 mov	 ecx, DWORD PTR __Newvec$[ebp]
  0009f	8d 04 81	 lea	 eax, DWORD PTR [ecx+eax*4]
  000a2	8b 4d f0	 mov	 ecx, DWORD PTR __Mylast$[ebp]
  000a5	89 01		 mov	 DWORD PTR [ecx], eax

; 1683 :         _Myend   = _Newvec + _Newcapacity;

  000a7	8b 45 10	 mov	 eax, DWORD PTR __Newcapacity$[ebp]
  000aa	8b 4d 08	 mov	 ecx, DWORD PTR __Newvec$[ebp]
  000ad	8d 04 81	 lea	 eax, DWORD PTR [ecx+eax*4]
  000b0	8b 4d ec	 mov	 ecx, DWORD PTR __Myend$[ebp]
  000b3	89 01		 mov	 DWORD PTR [ecx], eax

; 1684 :     }

  000b5	c9		 leave
  000b6	c2 0c 00	 ret	 12			; 0000000cH
?_Change_array@?$vector@PAVCItemData@@V?$allocator@PAVCItemData@@@std@@@std@@AAEXQAPAVCItemData@@II@Z ENDP ; std::vector<CItemData *,std::allocator<CItemData *> >::_Change_array
_TEXT	ENDS
; Function compile flags: /Odspy
; File C:\Program Files (x86)\Microsoft Visual Studio\2019\Community\VC\Tools\MSVC\14.28.29333\include\vector
; File C:\Program Files (x86)\Microsoft Visual Studio\2019\Community\VC\Tools\MSVC\14.28.29333\include\xmemory
; File C:\Program Files (x86)\Microsoft Visual Studio\2019\Community\VC\Tools\MSVC\14.28.29333\include\vector
; File C:\Program Files (x86)\Microsoft Visual Studio\2019\Community\VC\Tools\MSVC\14.28.29333\include\xmemory
; File C:\Program Files (x86)\Microsoft Visual Studio\2019\Community\VC\Tools\MSVC\14.28.29333\include\limits
; File C:\Program Files (x86)\Microsoft Visual Studio\2019\Community\VC\Tools\MSVC\14.28.29333\include\vector
; File C:\Program Files (x86)\Microsoft Visual Studio\2019\Community\VC\Tools\MSVC\14.28.29333\include\utility
; File C:\Program Files (x86)\Microsoft Visual Studio\2019\Community\VC\Tools\MSVC\14.28.29333\include\vector
;	COMDAT ?_Calculate_growth@?$vector@PAVCItemData@@V?$allocator@PAVCItemData@@@std@@@std@@ABEII@Z
_TEXT	SEGMENT
$T1 = -52						; size = 4
$T2 = -48						; size = 4
$T3 = -44						; size = 4
$T4 = -40						; size = 4
$T5 = -36						; size = 4
__Geometric$ = -32					; size = 4
__Max$ = -28						; size = 4
tv82 = -24						; size = 4
$T6 = -20						; size = 4
$T7 = -16						; size = 4
_this$ = -12						; size = 4
__My_data$8 = -8					; size = 4
__Oldcapacity$ = -4					; size = 4
__Newsize$ = 8						; size = 4
?_Calculate_growth@?$vector@PAVCItemData@@V?$allocator@PAVCItemData@@@std@@@std@@ABEII@Z PROC ; std::vector<CItemData *,std::allocator<CItemData *> >::_Calculate_growth, COMDAT
; _this$ = ecx

; 1615 :     size_type _Calculate_growth(const size_type _Newsize) const {

  00000	55		 push	 ebp
  00001	8b ec		 mov	 ebp, esp
  00003	83 ec 34	 sub	 esp, 52			; 00000034H
  00006	89 4d f4	 mov	 DWORD PTR _this$[ebp], ecx

; 1493 :         auto& _My_data = _Mypair._Myval2;

  00009	8b 45 f4	 mov	 eax, DWORD PTR _this$[ebp]
  0000c	89 45 f8	 mov	 DWORD PTR __My_data$8[ebp], eax

; 1494 :         return static_cast<size_type>(_My_data._Myend - _My_data._Myfirst);

  0000f	8b 45 f8	 mov	 eax, DWORD PTR __My_data$8[ebp]
  00012	8b 4d f8	 mov	 ecx, DWORD PTR __My_data$8[ebp]
  00015	8b 40 08	 mov	 eax, DWORD PTR [eax+8]
  00018	2b 01		 sub	 eax, DWORD PTR [ecx]
  0001a	c1 f8 02	 sar	 eax, 2
  0001d	89 45 fc	 mov	 DWORD PTR __Oldcapacity$[ebp], eax

; 1737 :         return _Mypair._Get_first();

  00020	8b 45 f4	 mov	 eax, DWORD PTR _this$[ebp]
; File C:\Program Files (x86)\Microsoft Visual Studio\2019\Community\VC\Tools\MSVC\14.28.29333\include\xmemory

; 1351 :         return *this;

  00023	89 45 dc	 mov	 DWORD PTR $T5[ebp], eax
; File C:\Program Files (x86)\Microsoft Visual Studio\2019\Community\VC\Tools\MSVC\14.28.29333\include\vector

; 1737 :         return _Mypair._Get_first();

  00026	8b 45 dc	 mov	 eax, DWORD PTR $T5[ebp]
  00029	89 45 cc	 mov	 DWORD PTR $T1[ebp], eax
; File C:\Program Files (x86)\Microsoft Visual Studio\2019\Community\VC\Tools\MSVC\14.28.29333\include\xmemory

; 710  :         return static_cast<size_t>(-1) / sizeof(value_type);

  0002c	c7 45 f0 ff ff
	ff 3f		 mov	 DWORD PTR $T7[ebp], 1073741823 ; 3fffffffH
; File C:\Program Files (x86)\Microsoft Visual Studio\2019\Community\VC\Tools\MSVC\14.28.29333\include\limits

; 557  :         return INT_MAX;

  00033	c7 45 d8 ff ff
	ff 7f		 mov	 DWORD PTR $T4[ebp], 2147483647 ; 7fffffffH
; File C:\Program Files (x86)\Microsoft Visual Studio\2019\Community\VC\Tools\MSVC\14.28.29333\include\vector

; 1488 :         return (_STD min)(

  0003a	8b 45 d8	 mov	 eax, DWORD PTR $T4[ebp]
  0003d	89 45 ec	 mov	 DWORD PTR $T6[ebp], eax
; File C:\Program Files (x86)\Microsoft Visual Studio\2019\Community\VC\Tools\MSVC\14.28.29333\include\utility

; 68   :     return _Right < _Left ? _Right : _Left;

  00040	8b 45 f0	 mov	 eax, DWORD PTR $T7[ebp]
  00043	3b 45 ec	 cmp	 eax, DWORD PTR $T6[ebp]
  00046	73 08		 jae	 SHORT $LN25@Calculate_
  00048	8d 45 f0	 lea	 eax, DWORD PTR $T7[ebp]
  0004b	89 45 e8	 mov	 DWORD PTR tv82[ebp], eax
  0004e	eb 06		 jmp	 SHORT $LN26@Calculate_
$LN25@Calculate_:
  00050	8d 45 ec	 lea	 eax, DWORD PTR $T6[ebp]
  00053	89 45 e8	 mov	 DWORD PTR tv82[ebp], eax
$LN26@Calculate_:
  00056	8b 45 e8	 mov	 eax, DWORD PTR tv82[ebp]
  00059	89 45 d4	 mov	 DWORD PTR $T3[ebp], eax
  0005c	8b 45 d4	 mov	 eax, DWORD PTR $T3[ebp]
  0005f	89 45 d0	 mov	 DWORD PTR $T2[ebp], eax
; File C:\Program Files (x86)\Microsoft Visual Studio\2019\Community\VC\Tools\MSVC\14.28.29333\include\vector

; 1488 :         return (_STD min)(

  00062	8b 45 d0	 mov	 eax, DWORD PTR $T2[ebp]
  00065	8b 00		 mov	 eax, DWORD PTR [eax]
  00067	89 45 e4	 mov	 DWORD PTR __Max$[ebp], eax

; 1616 :         // given _Oldcapacity and _Newsize, calculate geometric growth
; 1617 :         const size_type _Oldcapacity = capacity();
; 1618 :         const auto _Max              = max_size();
; 1619 : 
; 1620 :         if (_Oldcapacity > _Max - _Oldcapacity / 2) {

  0006a	8b 45 fc	 mov	 eax, DWORD PTR __Oldcapacity$[ebp]
  0006d	d1 e8		 shr	 eax, 1
  0006f	8b 4d e4	 mov	 ecx, DWORD PTR __Max$[ebp]
  00072	2b c8		 sub	 ecx, eax
  00074	39 4d fc	 cmp	 DWORD PTR __Oldcapacity$[ebp], ecx
  00077	76 05		 jbe	 SHORT $LN2@Calculate_

; 1621 :             return _Max; // geometric growth would overflow

  00079	8b 45 e4	 mov	 eax, DWORD PTR __Max$[ebp]
  0007c	eb 1b		 jmp	 SHORT $LN1@Calculate_
$LN2@Calculate_:

; 1622 :         }
; 1623 : 
; 1624 :         const size_type _Geometric = _Oldcapacity + _Oldcapacity / 2;

  0007e	8b 45 fc	 mov	 eax, DWORD PTR __Oldcapacity$[ebp]
  00081	d1 e8		 shr	 eax, 1
  00083	03 45 fc	 add	 eax, DWORD PTR __Oldcapacity$[ebp]
  00086	89 45 e0	 mov	 DWORD PTR __Geometric$[ebp], eax

; 1625 : 
; 1626 :         if (_Geometric < _Newsize) {

  00089	8b 45 e0	 mov	 eax, DWORD PTR __Geometric$[ebp]
  0008c	3b 45 08	 cmp	 eax, DWORD PTR __Newsize$[ebp]
  0008f	73 05		 jae	 SHORT $LN3@Calculate_

; 1627 :             return _Newsize; // geometric growth would be insufficient

  00091	8b 45 08	 mov	 eax, DWORD PTR __Newsize$[ebp]
  00094	eb 03		 jmp	 SHORT $LN1@Calculate_
$LN3@Calculate_:

; 1628 :         }
; 1629 : 
; 1630 :         return _Geometric; // geometric growth is sufficient

  00096	8b 45 e0	 mov	 eax, DWORD PTR __Geometric$[ebp]
$LN1@Calculate_:

; 1631 :     }

  00099	c9		 leave
  0009a	c2 04 00	 ret	 4
?_Calculate_growth@?$vector@PAVCItemData@@V?$allocator@PAVCItemData@@@std@@@std@@ABEII@Z ENDP ; std::vector<CItemData *,std::allocator<CItemData *> >::_Calculate_growth
_TEXT	ENDS
; Function compile flags: /Odspy
; File C:\Program Files (x86)\Microsoft Visual Studio\2019\Community\VC\Tools\MSVC\14.28.29333\include\vector
; File C:\Program Files (x86)\Microsoft Visual Studio\2019\Community\VC\Tools\MSVC\14.28.29333\include\xmemory
; File C:\Program Files (x86)\Microsoft Visual Studio\2019\Community\VC\Tools\MSVC\14.28.29333\include\vector
;	COMDAT ?_Destroy@?$vector@PAVCItemData@@V?$allocator@PAVCItemData@@@std@@@std@@AAEXPAPAVCItemData@@0@Z
_TEXT	SEGMENT
$T1 = -12						; size = 4
$T2 = -8						; size = 4
_this$ = -4						; size = 4
__First$ = 8						; size = 4
__Last$ = 12						; size = 4
?_Destroy@?$vector@PAVCItemData@@V?$allocator@PAVCItemData@@@std@@@std@@AAEXPAPAVCItemData@@0@Z PROC ; std::vector<CItemData *,std::allocator<CItemData *> >::_Destroy, COMDAT
; _this$ = ecx

; 1611 :     void _Destroy(pointer _First, pointer _Last) { // destroy [_First, _Last) using allocator

  00000	55		 push	 ebp
  00001	8b ec		 mov	 ebp, esp
  00003	83 ec 0c	 sub	 esp, 12			; 0000000cH
  00006	89 4d fc	 mov	 DWORD PTR _this$[ebp], ecx

; 1733 :         return _Mypair._Get_first();

  00009	8b 45 fc	 mov	 eax, DWORD PTR _this$[ebp]
; File C:\Program Files (x86)\Microsoft Visual Studio\2019\Community\VC\Tools\MSVC\14.28.29333\include\xmemory

; 1347 :         return *this;

  0000c	89 45 f8	 mov	 DWORD PTR $T2[ebp], eax
; File C:\Program Files (x86)\Microsoft Visual Studio\2019\Community\VC\Tools\MSVC\14.28.29333\include\vector

; 1733 :         return _Mypair._Get_first();

  0000f	8b 45 f8	 mov	 eax, DWORD PTR $T2[ebp]
  00012	89 45 f4	 mov	 DWORD PTR $T1[ebp], eax

; 1612 :         _Destroy_range(_First, _Last, _Getal());

  00015	ff 75 f4	 push	 DWORD PTR $T1[ebp]
  00018	ff 75 0c	 push	 DWORD PTR __Last$[ebp]
  0001b	ff 75 08	 push	 DWORD PTR __First$[ebp]
  0001e	e8 00 00 00 00	 call	 ??$_Destroy_range@V?$allocator@PAVCItemData@@@std@@@std@@YAXPAPAVCItemData@@QAPAV1@AAV?$allocator@PAVCItemData@@@0@@Z ; std::_Destroy_range<std::allocator<CItemData *> >
  00023	83 c4 0c	 add	 esp, 12			; 0000000cH

; 1613 :     }

  00026	c9		 leave
  00027	c2 08 00	 ret	 8
?_Destroy@?$vector@PAVCItemData@@V?$allocator@PAVCItemData@@@std@@@std@@AAEXPAPAVCItemData@@0@Z ENDP ; std::vector<CItemData *,std::allocator<CItemData *> >::_Destroy
_TEXT	ENDS
; Function compile flags: /Odspy
; File C:\Program Files (x86)\Microsoft Visual Studio\2019\Community\VC\Tools\MSVC\14.28.29333\include\vector
; File C:\Program Files (x86)\Microsoft Visual Studio\2019\Community\VC\Tools\MSVC\14.28.29333\include\xmemory
; File C:\Program Files (x86)\Microsoft Visual Studio\2019\Community\VC\Tools\MSVC\14.28.29333\include\vector
;	COMDAT ?clear@?$vector@PAVCItemData@@V?$allocator@PAVCItemData@@@std@@@std@@QAEXXZ
_TEXT	SEGMENT
__First$ = -32						; size = 4
__Last$ = -28						; size = 4
$T1 = -24						; size = 4
$T2 = -20						; size = 4
__Myfirst$ = -16					; size = 4
__Mylast$ = -12						; size = 4
_this$ = -8						; size = 4
__My_data$ = -4						; size = 4
?clear@?$vector@PAVCItemData@@V?$allocator@PAVCItemData@@@std@@@std@@QAEXXZ PROC ; std::vector<CItemData *,std::allocator<CItemData *> >::clear, COMDAT
; _this$ = ecx

; 1383 :     void clear() noexcept { // erase all

  00000	55		 push	 ebp
  00001	8b ec		 mov	 ebp, esp
  00003	83 ec 20	 sub	 esp, 32			; 00000020H
  00006	89 4d f8	 mov	 DWORD PTR _this$[ebp], ecx

; 1384 :         auto& _My_data    = _Mypair._Myval2;

  00009	8b 45 f8	 mov	 eax, DWORD PTR _this$[ebp]
  0000c	89 45 fc	 mov	 DWORD PTR __My_data$[ebp], eax

; 1385 :         pointer& _Myfirst = _My_data._Myfirst;

  0000f	8b 45 fc	 mov	 eax, DWORD PTR __My_data$[ebp]
  00012	89 45 f0	 mov	 DWORD PTR __Myfirst$[ebp], eax

; 1386 :         pointer& _Mylast  = _My_data._Mylast;

  00015	8b 45 fc	 mov	 eax, DWORD PTR __My_data$[ebp]
  00018	83 c0 04	 add	 eax, 4
  0001b	89 45 f4	 mov	 DWORD PTR __Mylast$[ebp], eax

; 1387 : 
; 1388 :         _My_data._Orphan_all();
; 1389 :         _Destroy(_Myfirst, _Mylast);

  0001e	8b 45 f4	 mov	 eax, DWORD PTR __Mylast$[ebp]
  00021	8b 00		 mov	 eax, DWORD PTR [eax]
  00023	89 45 e4	 mov	 DWORD PTR __Last$[ebp], eax
  00026	8b 45 f0	 mov	 eax, DWORD PTR __Myfirst$[ebp]
  00029	8b 00		 mov	 eax, DWORD PTR [eax]
  0002b	89 45 e0	 mov	 DWORD PTR __First$[ebp], eax

; 1733 :         return _Mypair._Get_first();

  0002e	8b 45 f8	 mov	 eax, DWORD PTR _this$[ebp]
; File C:\Program Files (x86)\Microsoft Visual Studio\2019\Community\VC\Tools\MSVC\14.28.29333\include\xmemory

; 1347 :         return *this;

  00031	89 45 ec	 mov	 DWORD PTR $T2[ebp], eax
; File C:\Program Files (x86)\Microsoft Visual Studio\2019\Community\VC\Tools\MSVC\14.28.29333\include\vector

; 1733 :         return _Mypair._Get_first();

  00034	8b 45 ec	 mov	 eax, DWORD PTR $T2[ebp]
  00037	89 45 e8	 mov	 DWORD PTR $T1[ebp], eax

; 1612 :         _Destroy_range(_First, _Last, _Getal());

  0003a	ff 75 e8	 push	 DWORD PTR $T1[ebp]
  0003d	ff 75 e4	 push	 DWORD PTR __Last$[ebp]
  00040	ff 75 e0	 push	 DWORD PTR __First$[ebp]
  00043	e8 00 00 00 00	 call	 ??$_Destroy_range@V?$allocator@PAVCItemData@@@std@@@std@@YAXPAPAVCItemData@@QAPAV1@AAV?$allocator@PAVCItemData@@@0@@Z ; std::_Destroy_range<std::allocator<CItemData *> >
  00048	83 c4 0c	 add	 esp, 12			; 0000000cH

; 1390 :         _Mylast = _Myfirst;

  0004b	8b 45 f4	 mov	 eax, DWORD PTR __Mylast$[ebp]
  0004e	8b 4d f0	 mov	 ecx, DWORD PTR __Myfirst$[ebp]
  00051	8b 09		 mov	 ecx, DWORD PTR [ecx]
  00053	89 08		 mov	 DWORD PTR [eax], ecx

; 1391 :     }

  00055	c9		 leave
  00056	c3		 ret	 0
?clear@?$vector@PAVCItemData@@V?$allocator@PAVCItemData@@@std@@@std@@QAEXXZ ENDP ; std::vector<CItemData *,std::allocator<CItemData *> >::clear
_TEXT	ENDS
; Function compile flags: /Odspy
; File C:\Program Files (x86)\Microsoft Visual Studio\2019\Community\VC\Tools\MSVC\14.28.29333\include\xmemory
;	COMDAT ?deallocate@?$allocator@PAVCItemData@@@std@@QAEXQAPAVCItemData@@I@Z
_TEXT	SEGMENT
_this$ = -4						; size = 4
__Ptr$ = 8						; size = 4
__Count$ = 12						; size = 4
?deallocate@?$allocator@PAVCItemData@@@std@@QAEXQAPAVCItemData@@I@Z PROC ; std::allocator<CItemData *>::deallocate, COMDAT
; _this$ = ecx

; 808  :     void deallocate(_Ty* const _Ptr, const size_t _Count) {

  00000	55		 push	 ebp
  00001	8b ec		 mov	 ebp, esp
  00003	51		 push	 ecx
  00004	89 4d fc	 mov	 DWORD PTR _this$[ebp], ecx

; 809  :         // no overflow check on the following multiply; we assume _Allocate did that check
; 810  :         _Deallocate<_New_alignof<_Ty>>(_Ptr, sizeof(_Ty) * _Count);

  00007	8b 45 0c	 mov	 eax, DWORD PTR __Count$[ebp]
  0000a	c1 e0 02	 shl	 eax, 2
  0000d	50		 push	 eax
  0000e	ff 75 08	 push	 DWORD PTR __Ptr$[ebp]
  00011	e8 00 00 00 00	 call	 ??$_Deallocate@$07$0A@@std@@YAXPAXI@Z ; std::_Deallocate<8,0>
  00016	59		 pop	 ecx
  00017	59		 pop	 ecx

; 811  :     }

  00018	c9		 leave
  00019	c2 08 00	 ret	 8
?deallocate@?$allocator@PAVCItemData@@@std@@QAEXQAPAVCItemData@@I@Z ENDP ; std::allocator<CItemData *>::deallocate
_TEXT	ENDS
; Function compile flags: /Odspy
; File D:\Metin2 Server Files\mainline\SRC_2014\Metin2Client\eterLib\Pool.h
;	COMDAT ?Delete@?$CDynamicPool@VCItemData@@@@KAXPAVCItemData@@@Z
_TEXT	SEGMENT
tv70 = -8						; size = 4
$T1 = -4						; size = 4
_pkData$ = 8						; size = 4
?Delete@?$CDynamicPool@VCItemData@@@@KAXPAVCItemData@@@Z PROC ; CDynamicPool<CItemData>::Delete, COMDAT

; 109  : 		{

  00000	55		 push	 ebp
  00001	8b ec		 mov	 ebp, esp
  00003	51		 push	 ecx
  00004	51		 push	 ecx

; 110  : 			delete pkData;

  00005	8b 45 08	 mov	 eax, DWORD PTR _pkData$[ebp]
  00008	89 45 fc	 mov	 DWORD PTR $T1[ebp], eax
  0000b	83 7d fc 00	 cmp	 DWORD PTR $T1[ebp], 0
  0000f	74 11		 je	 SHORT $LN3@Delete
  00011	6a 01		 push	 1
  00013	8b 45 fc	 mov	 eax, DWORD PTR $T1[ebp]
  00016	8b 00		 mov	 eax, DWORD PTR [eax]
  00018	8b 4d fc	 mov	 ecx, DWORD PTR $T1[ebp]
  0001b	ff 10		 call	 DWORD PTR [eax]
  0001d	89 45 f8	 mov	 DWORD PTR tv70[ebp], eax
  00020	eb 04		 jmp	 SHORT $LN1@Delete
$LN3@Delete:
  00022	83 65 f8 00	 and	 DWORD PTR tv70[ebp], 0
$LN1@Delete:

; 111  : 		}

  00026	c9		 leave
  00027	c3		 ret	 0
?Delete@?$CDynamicPool@VCItemData@@@@KAXPAVCItemData@@@Z ENDP ; CDynamicPool<CItemData>::Delete
_TEXT	ENDS
; Function compile flags: /Odspy
; File D:\Metin2 Server Files\mainline\SRC_2014\Metin2Client\eterLib\Pool.h
; File C:\Program Files (x86)\Microsoft Visual Studio\2019\Community\VC\Tools\MSVC\14.28.29333\include\vector
; File D:\Metin2 Server Files\mainline\SRC_2014\Metin2Client\eterLib\Pool.h
; File C:\Program Files (x86)\Microsoft Visual Studio\2019\Community\VC\Tools\MSVC\14.28.29333\include\vector
; File D:\Metin2 Server Files\mainline\SRC_2014\Metin2Client\eterLib\Pool.h
; File C:\Program Files (x86)\Microsoft Visual Studio\2019\Community\VC\Tools\MSVC\14.28.29333\include\vector
; File D:\Metin2 Server Files\mainline\SRC_2014\Metin2Client\eterLib\Pool.h
; File C:\Program Files (x86)\Microsoft Visual Studio\2019\Community\VC\Tools\MSVC\14.28.29333\include\vector
; File D:\Metin2 Server Files\mainline\SRC_2014\Metin2Client\eterLib\Pool.h
; File C:\Program Files (x86)\Microsoft Visual Studio\2019\Community\VC\Tools\MSVC\14.28.29333\include\vector
; File C:\Program Files (x86)\Microsoft Visual Studio\2019\Community\VC\Tools\MSVC\14.28.29333\include\xstddef
; File C:\Program Files (x86)\Microsoft Visual Studio\2019\Community\VC\Tools\MSVC\14.28.29333\include\vector
; File C:\Program Files (x86)\Microsoft Visual Studio\2019\Community\VC\Tools\MSVC\14.28.29333\include\xmemory
; File C:\Program Files (x86)\Microsoft Visual Studio\2019\Community\VC\Tools\MSVC\14.28.29333\include\vector
; File D:\Metin2 Server Files\mainline\SRC_2014\Metin2Client\eterLib\Pool.h
;	COMDAT ?Alloc@?$CDynamicPool@VCItemData@@@@QAEPAVCItemData@@XZ
_TEXT	SEGMENT
$T2 = -84						; size = 4
$T3 = -80						; size = 4
_pkFreeData$ = -76					; size = 4
$T4 = -72						; size = 4
__Ptr$ = -68						; size = 4
__My_data$5 = -64					; size = 4
$T6 = -60						; size = 4
__My_data$7 = -56					; size = 4
$T8 = -52						; size = 4
_this$ = -48						; size = 4
_pkNewData$9 = -44					; size = 4
tv80 = -40						; size = 4
$T10 = -36						; size = 4
tv130 = -32						; size = 4
__My_data$11 = -28					; size = 4
__Mylast$12 = -24					; size = 4
_this$ = -20						; size = 4
$T13 = -13						; size = 1
__$EHRec$ = -12						; size = 12
?Alloc@?$CDynamicPool@VCItemData@@@@QAEPAVCItemData@@XZ PROC ; CDynamicPool<CItemData>::Alloc, COMDAT
; _this$ = ecx

; 62   : 		{

  00000	55		 push	 ebp
  00001	8b ec		 mov	 ebp, esp
  00003	6a ff		 push	 -1
  00005	68 00 00 00 00	 push	 __ehhandler$?Alloc@?$CDynamicPool@VCItemData@@@@QAEPAVCItemData@@XZ
  0000a	64 a1 00 00 00
	00		 mov	 eax, DWORD PTR fs:0
  00010	50		 push	 eax
  00011	83 ec 48	 sub	 esp, 72			; 00000048H
  00014	a1 00 00 00 00	 mov	 eax, DWORD PTR ___security_cookie
  00019	33 c5		 xor	 eax, ebp
  0001b	50		 push	 eax
  0001c	8d 45 f4	 lea	 eax, DWORD PTR __$EHRec$[ebp]
  0001f	64 a3 00 00 00
	00		 mov	 DWORD PTR fs:0, eax
  00025	89 4d ec	 mov	 DWORD PTR _this$[ebp], ecx
; File C:\Program Files (x86)\Microsoft Visual Studio\2019\Community\VC\Tools\MSVC\14.28.29333\include\vector

; 1478 :         auto& _My_data = _Mypair._Myval2;

  00028	8b 45 ec	 mov	 eax, DWORD PTR _this$[ebp]
  0002b	83 c0 10	 add	 eax, 16			; 00000010H
  0002e	89 45 e4	 mov	 DWORD PTR __My_data$11[ebp], eax

; 1479 :         return _My_data._Myfirst == _My_data._Mylast;

  00031	8b 45 e4	 mov	 eax, DWORD PTR __My_data$11[ebp]
  00034	8b 4d e4	 mov	 ecx, DWORD PTR __My_data$11[ebp]
  00037	8b 00		 mov	 eax, DWORD PTR [eax]
  00039	3b 41 04	 cmp	 eax, DWORD PTR [ecx+4]
  0003c	75 09		 jne	 SHORT $LN9@Alloc
  0003e	c7 45 e0 01 00
	00 00		 mov	 DWORD PTR tv130[ebp], 1
  00045	eb 04		 jmp	 SHORT $LN10@Alloc
$LN9@Alloc:
  00047	83 65 e0 00	 and	 DWORD PTR tv130[ebp], 0
$LN10@Alloc:
  0004b	8a 45 e0	 mov	 al, BYTE PTR tv130[ebp]
  0004e	88 45 f3	 mov	 BYTE PTR $T13[ebp], al
; File D:\Metin2 Server Files\mainline\SRC_2014\Metin2Client\eterLib\Pool.h

; 63   : 			if (m_kVct_pkFree.empty())

  00051	0f b6 45 f3	 movzx	 eax, BYTE PTR $T13[ebp]
  00055	85 c0		 test	 eax, eax
  00057	74 5a		 je	 SHORT $LN2@Alloc

; 64   : 			{
; 65   : 				T* pkNewData=new T;

  00059	68 68 01 00 00	 push	 360			; 00000168H
  0005e	e8 00 00 00 00	 call	 ??2@YAPAXI@Z		; operator new
  00063	59		 pop	 ecx
  00064	89 45 dc	 mov	 DWORD PTR $T10[ebp], eax
  00067	83 65 fc 00	 and	 DWORD PTR __$EHRec$[ebp+8], 0
  0006b	83 7d dc 00	 cmp	 DWORD PTR $T10[ebp], 0
  0006f	74 0d		 je	 SHORT $LN4@Alloc
  00071	8b 4d dc	 mov	 ecx, DWORD PTR $T10[ebp]
  00074	e8 00 00 00 00	 call	 ??0CItemData@@QAE@XZ	; CItemData::CItemData
  00079	89 45 d8	 mov	 DWORD PTR tv80[ebp], eax
  0007c	eb 04		 jmp	 SHORT $LN5@Alloc
$LN4@Alloc:
  0007e	83 65 d8 00	 and	 DWORD PTR tv80[ebp], 0
$LN5@Alloc:
  00082	8b 45 d8	 mov	 eax, DWORD PTR tv80[ebp]
  00085	89 45 cc	 mov	 DWORD PTR $T8[ebp], eax
  00088	83 4d fc ff	 or	 DWORD PTR __$EHRec$[ebp+8], -1
  0008c	8b 45 cc	 mov	 eax, DWORD PTR $T8[ebp]
  0008f	89 45 d4	 mov	 DWORD PTR _pkNewData$9[ebp], eax
; File C:\Program Files (x86)\Microsoft Visual Studio\2019\Community\VC\Tools\MSVC\14.28.29333\include\vector

; 717  :         emplace_back(_Val);

  00092	8d 45 d4	 lea	 eax, DWORD PTR _pkNewData$9[ebp]
  00095	50		 push	 eax
; File D:\Metin2 Server Files\mainline\SRC_2014\Metin2Client\eterLib\Pool.h

; 66   : 				m_kVct_pkData.push_back(pkNewData);

  00096	8b 4d ec	 mov	 ecx, DWORD PTR _this$[ebp]
  00099	83 c1 04	 add	 ecx, 4
; File C:\Program Files (x86)\Microsoft Visual Studio\2019\Community\VC\Tools\MSVC\14.28.29333\include\vector

; 717  :         emplace_back(_Val);

  0009c	e8 00 00 00 00	 call	 ??$emplace_back@ABQAVCItemData@@@?$vector@PAVCItemData@@V?$allocator@PAVCItemData@@@std@@@std@@QAEXABQAVCItemData@@@Z ; std::vector<CItemData *,std::allocator<CItemData *> >::emplace_back<CItemData * const &>
; File D:\Metin2 Server Files\mainline\SRC_2014\Metin2Client\eterLib\Pool.h

; 67   : 				++m_uUsedCapacity;

  000a1	8b 45 ec	 mov	 eax, DWORD PTR _this$[ebp]
  000a4	8b 40 20	 mov	 eax, DWORD PTR [eax+32]
  000a7	40		 inc	 eax
  000a8	8b 4d ec	 mov	 ecx, DWORD PTR _this$[ebp]
  000ab	89 41 20	 mov	 DWORD PTR [ecx+32], eax

; 68   : 				return pkNewData;

  000ae	8b 45 d4	 mov	 eax, DWORD PTR _pkNewData$9[ebp]
  000b1	eb 65		 jmp	 SHORT $LN1@Alloc
$LN2@Alloc:
; File C:\Program Files (x86)\Microsoft Visual Studio\2019\Community\VC\Tools\MSVC\14.28.29333\include\vector

; 1554 :         auto& _My_data = _Mypair._Myval2;

  000b3	8b 45 ec	 mov	 eax, DWORD PTR _this$[ebp]
  000b6	83 c0 10	 add	 eax, 16			; 00000010H
  000b9	89 45 c8	 mov	 DWORD PTR __My_data$7[ebp], eax

; 1555 : #if _CONTAINER_DEBUG_LEVEL > 0
; 1556 :         _STL_VERIFY(_My_data._Myfirst != _My_data._Mylast, "back() called on empty vector");
; 1557 : #endif // _CONTAINER_DEBUG_LEVEL > 0
; 1558 : 
; 1559 :         return _My_data._Mylast[-1];

  000bc	6a 04		 push	 4
  000be	58		 pop	 eax
  000bf	6b c0 ff	 imul	 eax, eax, -1
  000c2	8b 4d c8	 mov	 ecx, DWORD PTR __My_data$7[ebp]
  000c5	03 41 04	 add	 eax, DWORD PTR [ecx+4]
  000c8	89 45 c4	 mov	 DWORD PTR $T6[ebp], eax
; File D:\Metin2 Server Files\mainline\SRC_2014\Metin2Client\eterLib\Pool.h

; 71   : 			T* pkFreeData=m_kVct_pkFree.back();

  000cb	8b 45 c4	 mov	 eax, DWORD PTR $T6[ebp]
  000ce	8b 00		 mov	 eax, DWORD PTR [eax]
  000d0	89 45 b4	 mov	 DWORD PTR _pkFreeData$[ebp], eax

; 72   : 			m_kVct_pkFree.pop_back();

  000d3	8b 45 ec	 mov	 eax, DWORD PTR _this$[ebp]
  000d6	83 c0 10	 add	 eax, 16			; 00000010H
  000d9	89 45 d0	 mov	 DWORD PTR _this$[ebp], eax
; File C:\Program Files (x86)\Microsoft Visual Studio\2019\Community\VC\Tools\MSVC\14.28.29333\include\vector

; 1329 :         auto& _My_data   = _Mypair._Myval2;

  000dc	8b 45 d0	 mov	 eax, DWORD PTR _this$[ebp]
  000df	89 45 c0	 mov	 DWORD PTR __My_data$5[ebp], eax

; 1330 :         pointer& _Mylast = _My_data._Mylast;

  000e2	8b 45 c0	 mov	 eax, DWORD PTR __My_data$5[ebp]
  000e5	83 c0 04	 add	 eax, 4
  000e8	89 45 e8	 mov	 DWORD PTR __Mylast$12[ebp], eax

; 1331 : 
; 1332 : #if _ITERATOR_DEBUG_LEVEL == 2
; 1333 :         _STL_VERIFY(_My_data._Myfirst != _Mylast, "vector empty before pop");
; 1334 :         _Orphan_range(_Mylast - 1, _Mylast);
; 1335 : #endif // _ITERATOR_DEBUG_LEVEL == 2
; 1336 : 
; 1337 :         _Alty_traits::destroy(_Getal(), _Unfancy(_Mylast - 1));

  000eb	8b 45 e8	 mov	 eax, DWORD PTR __Mylast$12[ebp]
  000ee	8b 00		 mov	 eax, DWORD PTR [eax]
  000f0	83 e8 04	 sub	 eax, 4
  000f3	89 45 bc	 mov	 DWORD PTR __Ptr$[ebp], eax
; File C:\Program Files (x86)\Microsoft Visual Studio\2019\Community\VC\Tools\MSVC\14.28.29333\include\xstddef

; 289  :     return _Ptr;

  000f6	8b 45 bc	 mov	 eax, DWORD PTR __Ptr$[ebp]
  000f9	89 45 b0	 mov	 DWORD PTR $T3[ebp], eax
; File C:\Program Files (x86)\Microsoft Visual Studio\2019\Community\VC\Tools\MSVC\14.28.29333\include\vector

; 1733 :         return _Mypair._Get_first();

  000fc	8b 45 d0	 mov	 eax, DWORD PTR _this$[ebp]
; File C:\Program Files (x86)\Microsoft Visual Studio\2019\Community\VC\Tools\MSVC\14.28.29333\include\xmemory

; 1347 :         return *this;

  000ff	89 45 b8	 mov	 DWORD PTR $T4[ebp], eax
; File C:\Program Files (x86)\Microsoft Visual Studio\2019\Community\VC\Tools\MSVC\14.28.29333\include\vector

; 1733 :         return _Mypair._Get_first();

  00102	8b 45 b8	 mov	 eax, DWORD PTR $T4[ebp]
  00105	89 45 ac	 mov	 DWORD PTR $T2[ebp], eax

; 1338 :         --_Mylast;

  00108	8b 45 e8	 mov	 eax, DWORD PTR __Mylast$12[ebp]
  0010b	8b 00		 mov	 eax, DWORD PTR [eax]
  0010d	83 e8 04	 sub	 eax, 4
  00110	8b 4d e8	 mov	 ecx, DWORD PTR __Mylast$12[ebp]
  00113	89 01		 mov	 DWORD PTR [ecx], eax
; File D:\Metin2 Server Files\mainline\SRC_2014\Metin2Client\eterLib\Pool.h

; 73   : 			return pkFreeData;

  00115	8b 45 b4	 mov	 eax, DWORD PTR _pkFreeData$[ebp]
$LN1@Alloc:

; 74   : 		}

  00118	8b 4d f4	 mov	 ecx, DWORD PTR __$EHRec$[ebp]
  0011b	64 89 0d 00 00
	00 00		 mov	 DWORD PTR fs:0, ecx
  00122	59		 pop	 ecx
  00123	c9		 leave
  00124	c3		 ret	 0
_TEXT	ENDS
;	COMDAT text$x
text$x	SEGMENT
__unwindfunclet$?Alloc@?$CDynamicPool@VCItemData@@@@QAEPAVCItemData@@XZ$0:
  00000	68 68 01 00 00	 push	 360			; 00000168H
  00005	ff 75 dc	 push	 DWORD PTR $T10[ebp]
  00008	e8 00 00 00 00	 call	 ??3@YAXPAXI@Z		; operator delete
  0000d	59		 pop	 ecx
  0000e	59		 pop	 ecx
  0000f	c3		 ret	 0
  00010	cc		 int	 3
  00011	cc		 int	 3
  00012	cc		 int	 3
  00013	cc		 int	 3
  00014	cc		 int	 3
__ehhandler$?Alloc@?$CDynamicPool@VCItemData@@@@QAEPAVCItemData@@XZ:
  00015	90		 npad	 1
  00016	90		 npad	 1
  00017	8b 54 24 08	 mov	 edx, DWORD PTR [esp+8]
  0001b	8d 42 0c	 lea	 eax, DWORD PTR [edx+12]
  0001e	8b 4a b4	 mov	 ecx, DWORD PTR [edx-76]
  00021	33 c8		 xor	 ecx, eax
  00023	e8 00 00 00 00	 call	 @__security_check_cookie@4
  00028	b8 00 00 00 00	 mov	 eax, OFFSET __ehfuncinfo$?Alloc@?$CDynamicPool@VCItemData@@@@QAEPAVCItemData@@XZ
  0002d	e9 00 00 00 00	 jmp	 ___CxxFrameHandler3
text$x	ENDS
?Alloc@?$CDynamicPool@VCItemData@@@@QAEPAVCItemData@@XZ ENDP ; CDynamicPool<CItemData>::Alloc
; Function compile flags: /Odspy
; File D:\Metin2 Server Files\mainline\SRC_2014\Metin2Client\eterLib\Pool.h
; File C:\Program Files (x86)\Microsoft Visual Studio\2019\Community\VC\Tools\MSVC\14.28.29333\include\vector
; File C:\Program Files (x86)\Microsoft Visual Studio\2019\Community\VC\Tools\MSVC\14.28.29333\include\xstddef
; File C:\Program Files (x86)\Microsoft Visual Studio\2019\Community\VC\Tools\MSVC\14.28.29333\include\vector
; File C:\Program Files (x86)\Microsoft Visual Studio\2019\Community\VC\Tools\MSVC\14.28.29333\include\xstddef
; File C:\Program Files (x86)\Microsoft Visual Studio\2019\Community\VC\Tools\MSVC\14.28.29333\include\vector
; File D:\Metin2 Server Files\mainline\SRC_2014\Metin2Client\eterLib\Pool.h
;	COMDAT ?Destroy@?$CDynamicPool@VCItemData@@@@QAEXXZ
_TEXT	SEGMENT
$T1 = -44						; size = 4
$T2 = -40						; size = 4
$T3 = -36						; size = 4
$T4 = -32						; size = 4
$T5 = -28						; size = 4
___param0$ = -24					; size = 4
$T6 = -20						; size = 4
___param0$ = -16					; size = 4
__My_data$7 = -12					; size = 4
__My_data$8 = -8					; size = 4
_this$ = -4						; size = 4
?Destroy@?$CDynamicPool@VCItemData@@@@QAEXXZ PROC	; CDynamicPool<CItemData>::Destroy, COMDAT
; _this$ = ecx

; 38   : 		{

  00000	55		 push	 ebp
  00001	8b ec		 mov	 ebp, esp
  00003	83 ec 2c	 sub	 esp, 44			; 0000002cH
  00006	89 4d fc	 mov	 DWORD PTR _this$[ebp], ecx
; File C:\Program Files (x86)\Microsoft Visual Studio\2019\Community\VC\Tools\MSVC\14.28.29333\include\vector

; 1420 :         auto& _My_data = _Mypair._Myval2;

  00009	8b 45 fc	 mov	 eax, DWORD PTR _this$[ebp]
  0000c	83 c0 04	 add	 eax, 4
  0000f	89 45 f8	 mov	 DWORD PTR __My_data$8[ebp], eax
; File C:\Program Files (x86)\Microsoft Visual Studio\2019\Community\VC\Tools\MSVC\14.28.29333\include\xstddef

; 275  :     return __builtin_addressof(_Val);

  00012	8b 45 f8	 mov	 eax, DWORD PTR __My_data$8[ebp]
  00015	89 45 d8	 mov	 DWORD PTR $T2[ebp], eax
; File C:\Program Files (x86)\Microsoft Visual Studio\2019\Community\VC\Tools\MSVC\14.28.29333\include\vector

; 1421 :         return iterator(_My_data._Mylast, _STD addressof(_My_data));

  00018	8b 45 f8	 mov	 eax, DWORD PTR __My_data$8[ebp]
  0001b	8b 40 04	 mov	 eax, DWORD PTR [eax+4]
  0001e	89 45 f0	 mov	 DWORD PTR ___param0$[ebp], eax

; 42   :     _Vector_const_iterator(_Tptr _Parg, const _Container_base* _Pvector) noexcept : _Ptr(_Parg) {

  00021	8b 45 f0	 mov	 eax, DWORD PTR ___param0$[ebp]
  00024	89 45 ec	 mov	 DWORD PTR $T6[ebp], eax

; 1421 :         return iterator(_My_data._Mylast, _STD addressof(_My_data));

  00027	8d 45 ec	 lea	 eax, DWORD PTR $T6[ebp]
  0002a	89 45 e0	 mov	 DWORD PTR $T4[ebp], eax

; 1410 :         auto& _My_data = _Mypair._Myval2;

  0002d	8b 45 fc	 mov	 eax, DWORD PTR _this$[ebp]
  00030	83 c0 04	 add	 eax, 4
  00033	89 45 f4	 mov	 DWORD PTR __My_data$7[ebp], eax
; File C:\Program Files (x86)\Microsoft Visual Studio\2019\Community\VC\Tools\MSVC\14.28.29333\include\xstddef

; 275  :     return __builtin_addressof(_Val);

  00036	8b 45 f4	 mov	 eax, DWORD PTR __My_data$7[ebp]
  00039	89 45 d4	 mov	 DWORD PTR $T1[ebp], eax
; File C:\Program Files (x86)\Microsoft Visual Studio\2019\Community\VC\Tools\MSVC\14.28.29333\include\vector

; 1411 :         return iterator(_My_data._Myfirst, _STD addressof(_My_data));

  0003c	8b 45 f4	 mov	 eax, DWORD PTR __My_data$7[ebp]
  0003f	8b 00		 mov	 eax, DWORD PTR [eax]
  00041	89 45 e8	 mov	 DWORD PTR ___param0$[ebp], eax

; 42   :     _Vector_const_iterator(_Tptr _Parg, const _Container_base* _Pvector) noexcept : _Ptr(_Parg) {

  00044	8b 45 e8	 mov	 eax, DWORD PTR ___param0$[ebp]
  00047	89 45 e4	 mov	 DWORD PTR $T5[ebp], eax

; 1411 :         return iterator(_My_data._Myfirst, _STD addressof(_My_data));

  0004a	8d 45 e4	 lea	 eax, DWORD PTR $T5[ebp]
  0004d	89 45 dc	 mov	 DWORD PTR $T3[ebp], eax
; File D:\Metin2 Server Files\mainline\SRC_2014\Metin2Client\eterLib\Pool.h

; 50   : 			std::for_each(m_kVct_pkData.begin(), m_kVct_pkData.end(), Delete);

  00050	68 00 00 00 00	 push	 OFFSET ?Delete@?$CDynamicPool@VCItemData@@@@KAXPAVCItemData@@@Z ; CDynamicPool<CItemData>::Delete
  00055	8b 45 e0	 mov	 eax, DWORD PTR $T4[ebp]
  00058	ff 30		 push	 DWORD PTR [eax]
  0005a	8b 45 dc	 mov	 eax, DWORD PTR $T3[ebp]
  0005d	ff 30		 push	 DWORD PTR [eax]
  0005f	e8 00 00 00 00	 call	 ??$for_each@V?$_Vector_iterator@V?$_Vector_val@U?$_Simple_types@PAVCItemData@@@std@@@std@@@std@@P6AXPAVCItemData@@@Z@std@@YAP6AXPAVCItemData@@@ZV?$_Vector_iterator@V?$_Vector_val@U?$_Simple_types@PAVCItemData@@@std@@@std@@@0@1P6AX0@Z@Z ; std::for_each<std::_Vector_iterator<std::_Vector_val<std::_Simple_types<CItemData *> > >,void (__cdecl*)(CItemData *)>
  00064	83 c4 0c	 add	 esp, 12			; 0000000cH

; 51   : 			m_kVct_pkData.clear();

  00067	8b 4d fc	 mov	 ecx, DWORD PTR _this$[ebp]
  0006a	83 c1 04	 add	 ecx, 4
  0006d	e8 00 00 00 00	 call	 ?clear@?$vector@PAVCItemData@@V?$allocator@PAVCItemData@@@std@@@std@@QAEXXZ ; std::vector<CItemData *,std::allocator<CItemData *> >::clear

; 52   : 			m_kVct_pkFree.clear();

  00072	8b 4d fc	 mov	 ecx, DWORD PTR _this$[ebp]
  00075	83 c1 10	 add	 ecx, 16			; 00000010H
  00078	e8 00 00 00 00	 call	 ?clear@?$vector@PAVCItemData@@V?$allocator@PAVCItemData@@@std@@@std@@QAEXXZ ; std::vector<CItemData *,std::allocator<CItemData *> >::clear

; 53   : 		}

  0007d	c9		 leave
  0007e	c3		 ret	 0
?Destroy@?$CDynamicPool@VCItemData@@@@QAEXXZ ENDP	; CDynamicPool<CItemData>::Destroy
_TEXT	ENDS
; Function compile flags: /Odspy
; File D:\Metin2 Server Files\mainline\SRC_2014\Metin2Client\eterLib\Pool.h
; File C:\Program Files (x86)\Microsoft Visual Studio\2019\Community\VC\Tools\MSVC\14.28.29333\include\vector
; File D:\Metin2 Server Files\mainline\SRC_2014\Metin2Client\eterLib\Pool.h
; File C:\Program Files (x86)\Microsoft Visual Studio\2019\Community\VC\Tools\MSVC\14.28.29333\include\vector
; File D:\Metin2 Server Files\mainline\SRC_2014\Metin2Client\eterLib\Pool.h
;	COMDAT ??1?$CDynamicPool@VCItemData@@@@UAE@XZ
_TEXT	SEGMENT
_this$ = -4						; size = 4
??1?$CDynamicPool@VCItemData@@@@UAE@XZ PROC		; CDynamicPool<CItemData>::~CDynamicPool<CItemData>, COMDAT
; _this$ = ecx

; 18   : 		{

  00000	55		 push	 ebp
  00001	8b ec		 mov	 ebp, esp
  00003	51		 push	 ecx
  00004	89 4d fc	 mov	 DWORD PTR _this$[ebp], ecx
  00007	8b 45 fc	 mov	 eax, DWORD PTR _this$[ebp]
  0000a	c7 00 00 00 00
	00		 mov	 DWORD PTR [eax], OFFSET ??_7?$CDynamicPool@VCItemData@@@@6B@

; 26   : 		}

  00010	8b 4d fc	 mov	 ecx, DWORD PTR _this$[ebp]
  00013	83 c1 10	 add	 ecx, 16			; 00000010H
; File C:\Program Files (x86)\Microsoft Visual Studio\2019\Community\VC\Tools\MSVC\14.28.29333\include\vector

; 673  :         _Tidy();

  00016	e8 00 00 00 00	 call	 ?_Tidy@?$vector@PAVCItemData@@V?$allocator@PAVCItemData@@@std@@@std@@AAEXXZ ; std::vector<CItemData *,std::allocator<CItemData *> >::_Tidy
; File D:\Metin2 Server Files\mainline\SRC_2014\Metin2Client\eterLib\Pool.h

; 26   : 		}

  0001b	8b 4d fc	 mov	 ecx, DWORD PTR _this$[ebp]
  0001e	83 c1 04	 add	 ecx, 4
; File C:\Program Files (x86)\Microsoft Visual Studio\2019\Community\VC\Tools\MSVC\14.28.29333\include\vector

; 673  :         _Tidy();

  00021	e8 00 00 00 00	 call	 ?_Tidy@?$vector@PAVCItemData@@V?$allocator@PAVCItemData@@@std@@@std@@AAEXXZ ; std::vector<CItemData *,std::allocator<CItemData *> >::_Tidy
; File D:\Metin2 Server Files\mainline\SRC_2014\Metin2Client\eterLib\Pool.h

; 26   : 		}

  00026	c9		 leave
  00027	c3		 ret	 0
??1?$CDynamicPool@VCItemData@@@@UAE@XZ ENDP		; CDynamicPool<CItemData>::~CDynamicPool<CItemData>
_TEXT	ENDS
; Function compile flags: /Odspy
; File D:\Metin2 Server Files\mainline\SRC_2014\Metin2Client\eterLib\Pool.h
; File C:\Program Files (x86)\Microsoft Visual Studio\2019\Community\VC\Tools\MSVC\14.28.29333\include\vector
; File C:\Program Files (x86)\Microsoft Visual Studio\2019\Community\VC\Tools\MSVC\14.28.29333\include\xmemory
; File C:\Program Files (x86)\Microsoft Visual Studio\2019\Community\VC\Tools\MSVC\14.28.29333\include\vector
; File D:\Metin2 Server Files\mainline\SRC_2014\Metin2Client\eterLib\Pool.h
; File C:\Program Files (x86)\Microsoft Visual Studio\2019\Community\VC\Tools\MSVC\14.28.29333\include\vector
; File C:\Program Files (x86)\Microsoft Visual Studio\2019\Community\VC\Tools\MSVC\14.28.29333\include\xmemory
; File C:\Program Files (x86)\Microsoft Visual Studio\2019\Community\VC\Tools\MSVC\14.28.29333\include\vector
; File D:\Metin2 Server Files\mainline\SRC_2014\Metin2Client\eterLib\Pool.h
;	COMDAT ??0?$CDynamicPool@VCItemData@@@@QAE@XZ
_TEXT	SEGMENT
_this$ = -28						; size = 4
_this$ = -24						; size = 4
_this$ = -20						; size = 4
_this$ = -16						; size = 4
_this$1 = -12						; size = 4
_this$2 = -8						; size = 4
_this$ = -4						; size = 4
??0?$CDynamicPool@VCItemData@@@@QAE@XZ PROC		; CDynamicPool<CItemData>::CDynamicPool<CItemData>, COMDAT
; _this$ = ecx

; 11   : 		CDynamicPool()

  00000	55		 push	 ebp
  00001	8b ec		 mov	 ebp, esp
  00003	83 ec 1c	 sub	 esp, 28			; 0000001cH
  00006	89 4d fc	 mov	 DWORD PTR _this$[ebp], ecx

; 12   : 		{

  00009	8b 45 fc	 mov	 eax, DWORD PTR _this$[ebp]
  0000c	c7 00 00 00 00
	00		 mov	 DWORD PTR [eax], OFFSET ??_7?$CDynamicPool@VCItemData@@@@6B@
  00012	8b 45 fc	 mov	 eax, DWORD PTR _this$[ebp]
  00015	83 c0 04	 add	 eax, 4
  00018	89 45 f0	 mov	 DWORD PTR _this$[ebp], eax
; File C:\Program Files (x86)\Microsoft Visual Studio\2019\Community\VC\Tools\MSVC\14.28.29333\include\vector

; 445  :     vector() noexcept(is_nothrow_default_constructible_v<_Alty>) : _Mypair(_Zero_then_variadic_args_t{}) {

  0001b	8b 45 f0	 mov	 eax, DWORD PTR _this$[ebp]
  0001e	89 45 ec	 mov	 DWORD PTR _this$[ebp], eax
; File C:\Program Files (x86)\Microsoft Visual Studio\2019\Community\VC\Tools\MSVC\14.28.29333\include\xmemory

; 1339 :         : _Ty1(), _Myval2(_STD forward<_Other2>(_Val2)...) {}

  00021	8b 45 ec	 mov	 eax, DWORD PTR _this$[ebp]
  00024	89 45 f8	 mov	 DWORD PTR _this$2[ebp], eax
; File C:\Program Files (x86)\Microsoft Visual Studio\2019\Community\VC\Tools\MSVC\14.28.29333\include\vector

; 375  :     _Vector_val() noexcept : _Myfirst(), _Mylast(), _Myend() {}

  00027	8b 45 f8	 mov	 eax, DWORD PTR _this$2[ebp]
  0002a	83 20 00	 and	 DWORD PTR [eax], 0
  0002d	8b 45 f8	 mov	 eax, DWORD PTR _this$2[ebp]
  00030	83 60 04 00	 and	 DWORD PTR [eax+4], 0
  00034	8b 45 f8	 mov	 eax, DWORD PTR _this$2[ebp]
  00037	83 60 08 00	 and	 DWORD PTR [eax+8], 0
; File D:\Metin2 Server Files\mainline\SRC_2014\Metin2Client\eterLib\Pool.h

; 12   : 		{

  0003b	8b 45 fc	 mov	 eax, DWORD PTR _this$[ebp]
  0003e	83 c0 10	 add	 eax, 16			; 00000010H
  00041	89 45 e8	 mov	 DWORD PTR _this$[ebp], eax
; File C:\Program Files (x86)\Microsoft Visual Studio\2019\Community\VC\Tools\MSVC\14.28.29333\include\vector

; 445  :     vector() noexcept(is_nothrow_default_constructible_v<_Alty>) : _Mypair(_Zero_then_variadic_args_t{}) {

  00044	8b 45 e8	 mov	 eax, DWORD PTR _this$[ebp]
  00047	89 45 e4	 mov	 DWORD PTR _this$[ebp], eax
; File C:\Program Files (x86)\Microsoft Visual Studio\2019\Community\VC\Tools\MSVC\14.28.29333\include\xmemory

; 1339 :         : _Ty1(), _Myval2(_STD forward<_Other2>(_Val2)...) {}

  0004a	8b 45 e4	 mov	 eax, DWORD PTR _this$[ebp]
  0004d	89 45 f4	 mov	 DWORD PTR _this$1[ebp], eax
; File C:\Program Files (x86)\Microsoft Visual Studio\2019\Community\VC\Tools\MSVC\14.28.29333\include\vector

; 375  :     _Vector_val() noexcept : _Myfirst(), _Mylast(), _Myend() {}

  00050	8b 45 f4	 mov	 eax, DWORD PTR _this$1[ebp]
  00053	83 20 00	 and	 DWORD PTR [eax], 0
  00056	8b 45 f4	 mov	 eax, DWORD PTR _this$1[ebp]
  00059	83 60 04 00	 and	 DWORD PTR [eax+4], 0
  0005d	8b 45 f4	 mov	 eax, DWORD PTR _this$1[ebp]
  00060	83 60 08 00	 and	 DWORD PTR [eax+8], 0
; File D:\Metin2 Server Files\mainline\SRC_2014\Metin2Client\eterLib\Pool.h

; 14   : 			m_uInitCapacity=0;

  00064	8b 45 fc	 mov	 eax, DWORD PTR _this$[ebp]
  00067	83 60 1c 00	 and	 DWORD PTR [eax+28], 0

; 15   : 			m_uUsedCapacity=0;

  0006b	8b 45 fc	 mov	 eax, DWORD PTR _this$[ebp]
  0006e	83 60 20 00	 and	 DWORD PTR [eax+32], 0

; 16   : 		}

  00072	8b 45 fc	 mov	 eax, DWORD PTR _this$[ebp]
  00075	c9		 leave
  00076	c3		 ret	 0
??0?$CDynamicPool@VCItemData@@@@QAE@XZ ENDP		; CDynamicPool<CItemData>::CDynamicPool<CItemData>
_TEXT	ENDS
; Function compile flags: /Odspy
;	COMDAT ??_GCItemData@@UAEPAXI@Z
_TEXT	SEGMENT
_this$ = -4						; size = 4
___flags$ = 8						; size = 4
??_GCItemData@@UAEPAXI@Z PROC				; CItemData::`scalar deleting destructor', COMDAT
; _this$ = ecx
  00000	55		 push	 ebp
  00001	8b ec		 mov	 ebp, esp
  00003	51		 push	 ecx
  00004	89 4d fc	 mov	 DWORD PTR _this$[ebp], ecx
  00007	8b 4d fc	 mov	 ecx, DWORD PTR _this$[ebp]
  0000a	e8 00 00 00 00	 call	 ??1CItemData@@UAE@XZ	; CItemData::~CItemData
  0000f	8b 45 08	 mov	 eax, DWORD PTR ___flags$[ebp]
  00012	83 e0 01	 and	 eax, 1
  00015	74 0f		 je	 SHORT $LN2@scalar
  00017	68 68 01 00 00	 push	 360			; 00000168H
  0001c	ff 75 fc	 push	 DWORD PTR _this$[ebp]
  0001f	e8 00 00 00 00	 call	 ??3@YAXPAXI@Z		; operator delete
  00024	59		 pop	 ecx
  00025	59		 pop	 ecx
$LN2@scalar:
  00026	8b 45 fc	 mov	 eax, DWORD PTR _this$[ebp]
  00029	c9		 leave
  0002a	c2 04 00	 ret	 4
??_GCItemData@@UAEPAXI@Z ENDP				; CItemData::`scalar deleting destructor'
_TEXT	ENDS
; Function compile flags: /Odspy
; File D:\Metin2 Server Files\mainline\SRC_2014\Metin2Client\GameLib\ItemData.cpp
; File C:\Program Files (x86)\Microsoft Visual Studio\2019\Community\VC\Tools\MSVC\14.28.29333\include\vector
; File D:\Metin2 Server Files\mainline\SRC_2014\Metin2Client\GameLib\ItemData.cpp
;	COMDAT ?Delete@CItemData@@SAXPAV1@@Z
_TEXT	SEGMENT
_pkData$ = -4						; size = 4
_pkItemData$ = 8					; size = 4
?Delete@CItemData@@SAXPAV1@@Z PROC			; CItemData::Delete, COMDAT

; 16   : {

  00000	55		 push	 ebp
  00001	8b ec		 mov	 ebp, esp
  00003	51		 push	 ecx

; 17   : 	pkItemData->Clear();

  00004	8b 4d 08	 mov	 ecx, DWORD PTR _pkItemData$[ebp]
  00007	e8 00 00 00 00	 call	 ?Clear@CItemData@@QAEXXZ ; CItemData::Clear

; 18   : 	ms_kPool.Free(pkItemData);

  0000c	8b 45 08	 mov	 eax, DWORD PTR _pkItemData$[ebp]
  0000f	89 45 fc	 mov	 DWORD PTR _pkData$[ebp], eax
; File C:\Program Files (x86)\Microsoft Visual Studio\2019\Community\VC\Tools\MSVC\14.28.29333\include\vector

; 717  :         emplace_back(_Val);

  00012	8d 45 fc	 lea	 eax, DWORD PTR _pkData$[ebp]
  00015	50		 push	 eax
  00016	b9 10 00 00 00	 mov	 ecx, OFFSET ?ms_kPool@CItemData@@2V?$CDynamicPool@VCItemData@@@@A+16
  0001b	e8 00 00 00 00	 call	 ??$emplace_back@ABQAVCItemData@@@?$vector@PAVCItemData@@V?$allocator@PAVCItemData@@@std@@@std@@QAEXABQAVCItemData@@@Z ; std::vector<CItemData *,std::allocator<CItemData *> >::emplace_back<CItemData * const &>
; File D:\Metin2 Server Files\mainline\SRC_2014\Metin2Client\GameLib\ItemData.cpp

; 19   : }

  00020	c9		 leave
  00021	c3		 ret	 0
?Delete@CItemData@@SAXPAV1@@Z ENDP			; CItemData::Delete
_TEXT	ENDS
; Function compile flags: /Odspy
; File D:\Metin2 Server Files\mainline\SRC_2014\Metin2Client\GameLib\ItemData.cpp
;	COMDAT ?New@CItemData@@SAPAV1@XZ
_TEXT	SEGMENT
?New@CItemData@@SAPAV1@XZ PROC				; CItemData::New, COMDAT

; 11   : {

  00000	55		 push	 ebp
  00001	8b ec		 mov	 ebp, esp

; 12   : 	return ms_kPool.Alloc();

  00003	b9 00 00 00 00	 mov	 ecx, OFFSET ?ms_kPool@CItemData@@2V?$CDynamicPool@VCItemData@@@@A ; CItemData::ms_kPool
  00008	e8 00 00 00 00	 call	 ?Alloc@?$CDynamicPool@VCItemData@@@@QAEPAVCItemData@@XZ ; CDynamicPool<CItemData>::Alloc

; 13   : }

  0000d	5d		 pop	 ebp
  0000e	c3		 ret	 0
?New@CItemData@@SAPAV1@XZ ENDP				; CItemData::New
_TEXT	ENDS
; Function compile flags: /Odspy
; File D:\Metin2 Server Files\mainline\SRC_2014\Metin2Client\GameLib\ItemData.cpp
;	COMDAT ?DestroySystem@CItemData@@SAXXZ
_TEXT	SEGMENT
?DestroySystem@CItemData@@SAXXZ PROC			; CItemData::DestroySystem, COMDAT

; 22   : {

  00000	55		 push	 ebp
  00001	8b ec		 mov	 ebp, esp

; 23   : 	ms_kPool.Destroy();	

  00003	b9 00 00 00 00	 mov	 ecx, OFFSET ?ms_kPool@CItemData@@2V?$CDynamicPool@VCItemData@@@@A ; CItemData::ms_kPool
  00008	e8 00 00 00 00	 call	 ?Destroy@?$CDynamicPool@VCItemData@@@@QAEXXZ ; CDynamicPool<CItemData>::Destroy

; 24   : }

  0000d	5d		 pop	 ebp
  0000e	c3		 ret	 0
?DestroySystem@CItemData@@SAXXZ ENDP			; CItemData::DestroySystem
_TEXT	ENDS
; Function compile flags: /Odspy
; File C:\Program Files (x86)\Microsoft Visual Studio\2019\Community\VC\Tools\MSVC\14.28.29333\include\vector
; File C:\Program Files (x86)\Microsoft Visual Studio\2019\Community\VC\Tools\MSVC\14.28.29333\include\xmemory
; File C:\Program Files (x86)\Microsoft Visual Studio\2019\Community\VC\Tools\MSVC\14.28.29333\include\vector
; File C:\Program Files (x86)\Microsoft Visual Studio\2019\Community\VC\Tools\MSVC\14.28.29333\include\xmemory
; File C:\Program Files (x86)\Microsoft Visual Studio\2019\Community\VC\Tools\MSVC\14.28.29333\include\vector
; File C:\Program Files (x86)\Microsoft Visual Studio\2019\Community\VC\Tools\MSVC\14.28.29333\include\xmemory
; File C:\Program Files (x86)\Microsoft Visual Studio\2019\Community\VC\Tools\MSVC\14.28.29333\include\vector
;	COMDAT ?_Tidy@?$vector@USAttachingData@NRaceData@@V?$allocator@USAttachingData@NRaceData@@@std@@@std@@AAEXXZ
_TEXT	SEGMENT
$T1 = -52						; size = 4
__Ptr$ = -48						; size = 4
__Count$ = -44						; size = 4
$T2 = -40						; size = 4
__First$ = -36						; size = 4
__Last$ = -32						; size = 4
$T3 = -28						; size = 4
$T4 = -24						; size = 4
__Myend$ = -20						; size = 4
__Mylast$ = -16						; size = 4
_this$ = -12						; size = 4
__My_data$ = -8						; size = 4
__Myfirst$ = -4						; size = 4
?_Tidy@?$vector@USAttachingData@NRaceData@@V?$allocator@USAttachingData@NRaceData@@@std@@@std@@AAEXXZ PROC ; std::vector<NRaceData::SAttachingData,std::allocator<NRaceData::SAttachingData> >::_Tidy, COMDAT
; _this$ = ecx

; 1686 :     void _Tidy() noexcept { // free all storage

  00000	55		 push	 ebp
  00001	8b ec		 mov	 ebp, esp
  00003	83 ec 34	 sub	 esp, 52			; 00000034H
  00006	89 4d f4	 mov	 DWORD PTR _this$[ebp], ecx

; 1687 :         auto& _My_data    = _Mypair._Myval2;

  00009	8b 45 f4	 mov	 eax, DWORD PTR _this$[ebp]
  0000c	89 45 f8	 mov	 DWORD PTR __My_data$[ebp], eax

; 1688 :         pointer& _Myfirst = _My_data._Myfirst;

  0000f	8b 45 f8	 mov	 eax, DWORD PTR __My_data$[ebp]
  00012	89 45 fc	 mov	 DWORD PTR __Myfirst$[ebp], eax

; 1689 :         pointer& _Mylast  = _My_data._Mylast;

  00015	8b 45 f8	 mov	 eax, DWORD PTR __My_data$[ebp]
  00018	83 c0 04	 add	 eax, 4
  0001b	89 45 f0	 mov	 DWORD PTR __Mylast$[ebp], eax

; 1690 :         pointer& _Myend   = _My_data._Myend;

  0001e	8b 45 f8	 mov	 eax, DWORD PTR __My_data$[ebp]
  00021	83 c0 08	 add	 eax, 8
  00024	89 45 ec	 mov	 DWORD PTR __Myend$[ebp], eax

; 1691 : 
; 1692 :         _My_data._Orphan_all();
; 1693 : 
; 1694 :         if (_Myfirst) { // destroy and deallocate old array

  00027	8b 45 fc	 mov	 eax, DWORD PTR __Myfirst$[ebp]
  0002a	83 38 00	 cmp	 DWORD PTR [eax], 0
  0002d	74 75		 je	 SHORT $LN3@Tidy

; 1695 :             _Destroy(_Myfirst, _Mylast);

  0002f	8b 45 f0	 mov	 eax, DWORD PTR __Mylast$[ebp]
  00032	8b 00		 mov	 eax, DWORD PTR [eax]
  00034	89 45 e0	 mov	 DWORD PTR __Last$[ebp], eax
  00037	8b 45 fc	 mov	 eax, DWORD PTR __Myfirst$[ebp]
  0003a	8b 00		 mov	 eax, DWORD PTR [eax]
  0003c	89 45 dc	 mov	 DWORD PTR __First$[ebp], eax

; 1733 :         return _Mypair._Get_first();

  0003f	8b 45 f4	 mov	 eax, DWORD PTR _this$[ebp]
; File C:\Program Files (x86)\Microsoft Visual Studio\2019\Community\VC\Tools\MSVC\14.28.29333\include\xmemory

; 1347 :         return *this;

  00042	89 45 e8	 mov	 DWORD PTR $T4[ebp], eax
; File C:\Program Files (x86)\Microsoft Visual Studio\2019\Community\VC\Tools\MSVC\14.28.29333\include\vector

; 1733 :         return _Mypair._Get_first();

  00045	8b 45 e8	 mov	 eax, DWORD PTR $T4[ebp]
  00048	89 45 e4	 mov	 DWORD PTR $T3[ebp], eax

; 1612 :         _Destroy_range(_First, _Last, _Getal());

  0004b	ff 75 e4	 push	 DWORD PTR $T3[ebp]
  0004e	ff 75 e0	 push	 DWORD PTR __Last$[ebp]
  00051	ff 75 dc	 push	 DWORD PTR __First$[ebp]
  00054	e8 00 00 00 00	 call	 ??$_Destroy_range@V?$allocator@USAttachingData@NRaceData@@@std@@@std@@YAXPAUSAttachingData@NRaceData@@QAU12@AAV?$allocator@USAttachingData@NRaceData@@@0@@Z ; std::_Destroy_range<std::allocator<NRaceData::SAttachingData> >
  00059	83 c4 0c	 add	 esp, 12			; 0000000cH

; 1733 :         return _Mypair._Get_first();

  0005c	8b 45 f4	 mov	 eax, DWORD PTR _this$[ebp]
; File C:\Program Files (x86)\Microsoft Visual Studio\2019\Community\VC\Tools\MSVC\14.28.29333\include\xmemory

; 1347 :         return *this;

  0005f	89 45 d8	 mov	 DWORD PTR $T2[ebp], eax
; File C:\Program Files (x86)\Microsoft Visual Studio\2019\Community\VC\Tools\MSVC\14.28.29333\include\vector

; 1733 :         return _Mypair._Get_first();

  00062	8b 45 d8	 mov	 eax, DWORD PTR $T2[ebp]
  00065	89 45 cc	 mov	 DWORD PTR $T1[ebp], eax

; 1696 :             _Getal().deallocate(_Myfirst, static_cast<size_type>(_Myend - _Myfirst));

  00068	8b 45 ec	 mov	 eax, DWORD PTR __Myend$[ebp]
  0006b	8b 4d fc	 mov	 ecx, DWORD PTR __Myfirst$[ebp]
  0006e	8b 00		 mov	 eax, DWORD PTR [eax]
  00070	2b 01		 sub	 eax, DWORD PTR [ecx]
  00072	99		 cdq
  00073	6a 30		 push	 48			; 00000030H
  00075	59		 pop	 ecx
  00076	f7 f9		 idiv	 ecx
  00078	89 45 d4	 mov	 DWORD PTR __Count$[ebp], eax
  0007b	8b 45 fc	 mov	 eax, DWORD PTR __Myfirst$[ebp]
  0007e	8b 00		 mov	 eax, DWORD PTR [eax]
  00080	89 45 d0	 mov	 DWORD PTR __Ptr$[ebp], eax
; File C:\Program Files (x86)\Microsoft Visual Studio\2019\Community\VC\Tools\MSVC\14.28.29333\include\xmemory

; 810  :         _Deallocate<_New_alignof<_Ty>>(_Ptr, sizeof(_Ty) * _Count);

  00083	6b 45 d4 30	 imul	 eax, DWORD PTR __Count$[ebp], 48
  00087	50		 push	 eax
  00088	ff 75 d0	 push	 DWORD PTR __Ptr$[ebp]
  0008b	e8 00 00 00 00	 call	 ??$_Deallocate@$07$0A@@std@@YAXPAXI@Z ; std::_Deallocate<8,0>
  00090	59		 pop	 ecx
  00091	59		 pop	 ecx
; File C:\Program Files (x86)\Microsoft Visual Studio\2019\Community\VC\Tools\MSVC\14.28.29333\include\vector

; 1698 :             _Myfirst = pointer();

  00092	8b 45 fc	 mov	 eax, DWORD PTR __Myfirst$[ebp]
  00095	83 20 00	 and	 DWORD PTR [eax], 0

; 1699 :             _Mylast  = pointer();

  00098	8b 45 f0	 mov	 eax, DWORD PTR __Mylast$[ebp]
  0009b	83 20 00	 and	 DWORD PTR [eax], 0

; 1700 :             _Myend   = pointer();

  0009e	8b 45 ec	 mov	 eax, DWORD PTR __Myend$[ebp]
  000a1	83 20 00	 and	 DWORD PTR [eax], 0
$LN3@Tidy:

; 1701 :         }
; 1702 :     }

  000a4	c9		 leave
  000a5	c3		 ret	 0
?_Tidy@?$vector@USAttachingData@NRaceData@@V?$allocator@USAttachingData@NRaceData@@@std@@@std@@AAEXXZ ENDP ; std::vector<NRaceData::SAttachingData,std::allocator<NRaceData::SAttachingData> >::_Tidy
_TEXT	ENDS
; Function compile flags: /Odspy
; File C:\Program Files (x86)\Microsoft Visual Studio\2019\Community\VC\Tools\MSVC\14.28.29333\include\vector
;	COMDAT ??1?$vector@USAttachingData@NRaceData@@V?$allocator@USAttachingData@NRaceData@@@std@@@std@@QAE@XZ
_TEXT	SEGMENT
_this$ = -4						; size = 4
??1?$vector@USAttachingData@NRaceData@@V?$allocator@USAttachingData@NRaceData@@@std@@@std@@QAE@XZ PROC ; std::vector<NRaceData::SAttachingData,std::allocator<NRaceData::SAttachingData> >::~vector<NRaceData::SAttachingData,std::allocator<NRaceData::SAttachingData> >, COMDAT
; _this$ = ecx

; 672  :     ~vector() noexcept {

  00000	55		 push	 ebp
  00001	8b ec		 mov	 ebp, esp
  00003	51		 push	 ecx
  00004	89 4d fc	 mov	 DWORD PTR _this$[ebp], ecx

; 673  :         _Tidy();

  00007	8b 4d fc	 mov	 ecx, DWORD PTR _this$[ebp]
  0000a	e8 00 00 00 00	 call	 ?_Tidy@?$vector@USAttachingData@NRaceData@@V?$allocator@USAttachingData@NRaceData@@@std@@@std@@AAEXXZ ; std::vector<NRaceData::SAttachingData,std::allocator<NRaceData::SAttachingData> >::_Tidy

; 674  : #if _ITERATOR_DEBUG_LEVEL != 0
; 675  :         auto&& _Alproxy = _GET_PROXY_ALLOCATOR(_Alty, _Getal());
; 676  :         _Delete_plain_internal(_Alproxy, _STD exchange(_Mypair._Myval2._Myproxy, nullptr));
; 677  : #endif // _ITERATOR_DEBUG_LEVEL != 0
; 678  :     }

  0000f	c9		 leave
  00010	c3		 ret	 0
??1?$vector@USAttachingData@NRaceData@@V?$allocator@USAttachingData@NRaceData@@@std@@@std@@QAE@XZ ENDP ; std::vector<NRaceData::SAttachingData,std::allocator<NRaceData::SAttachingData> >::~vector<NRaceData::SAttachingData,std::allocator<NRaceData::SAttachingData> >
_TEXT	ENDS
; Function compile flags: /Odspy
; File C:\Program Files (x86)\Microsoft Visual Studio\2019\Community\VC\Tools\MSVC\14.28.29333\include\vector
;	COMDAT ??0?$_Vector_val@U?$_Simple_types@PAVCGraphicThing@@@std@@@std@@QAE@XZ
_TEXT	SEGMENT
_this$ = -4						; size = 4
??0?$_Vector_val@U?$_Simple_types@PAVCGraphicThing@@@std@@@std@@QAE@XZ PROC ; std::_Vector_val<std::_Simple_types<CGraphicThing *> >::_Vector_val<std::_Simple_types<CGraphicThing *> >, COMDAT
; _this$ = ecx

; 375  :     _Vector_val() noexcept : _Myfirst(), _Mylast(), _Myend() {}

  00000	55		 push	 ebp
  00001	8b ec		 mov	 ebp, esp
  00003	51		 push	 ecx
  00004	89 4d fc	 mov	 DWORD PTR _this$[ebp], ecx
  00007	8b 45 fc	 mov	 eax, DWORD PTR _this$[ebp]
  0000a	83 20 00	 and	 DWORD PTR [eax], 0
  0000d	8b 45 fc	 mov	 eax, DWORD PTR _this$[ebp]
  00010	83 60 04 00	 and	 DWORD PTR [eax+4], 0
  00014	8b 45 fc	 mov	 eax, DWORD PTR _this$[ebp]
  00017	83 60 08 00	 and	 DWORD PTR [eax+8], 0
  0001b	8b 45 fc	 mov	 eax, DWORD PTR _this$[ebp]
  0001e	c9		 leave
  0001f	c3		 ret	 0
??0?$_Vector_val@U?$_Simple_types@PAVCGraphicThing@@@std@@@std@@QAE@XZ ENDP ; std::_Vector_val<std::_Simple_types<CGraphicThing *> >::_Vector_val<std::_Simple_types<CGraphicThing *> >
_TEXT	ENDS
; Function compile flags: /Odspy
; File C:\Program Files (x86)\Microsoft Visual Studio\2019\Community\VC\Tools\MSVC\14.28.29333\include\vector
; File C:\Program Files (x86)\Microsoft Visual Studio\2019\Community\VC\Tools\MSVC\14.28.29333\include\xmemory
; File C:\Program Files (x86)\Microsoft Visual Studio\2019\Community\VC\Tools\MSVC\14.28.29333\include\vector
;	COMDAT ?_Getal@?$vector@PAVCGraphicThing@@V?$allocator@PAVCGraphicThing@@@std@@@std@@AAEAAV?$allocator@PAVCGraphicThing@@@2@XZ
_TEXT	SEGMENT
$T1 = -8						; size = 4
_this$ = -4						; size = 4
?_Getal@?$vector@PAVCGraphicThing@@V?$allocator@PAVCGraphicThing@@@std@@@std@@AAEAAV?$allocator@PAVCGraphicThing@@@2@XZ PROC ; std::vector<CGraphicThing *,std::allocator<CGraphicThing *> >::_Getal, COMDAT
; _this$ = ecx

; 1732 :     _Alty& _Getal() noexcept {

  00000	55		 push	 ebp
  00001	8b ec		 mov	 ebp, esp
  00003	51		 push	 ecx
  00004	51		 push	 ecx
  00005	89 4d fc	 mov	 DWORD PTR _this$[ebp], ecx

; 1733 :         return _Mypair._Get_first();

  00008	8b 45 fc	 mov	 eax, DWORD PTR _this$[ebp]
; File C:\Program Files (x86)\Microsoft Visual Studio\2019\Community\VC\Tools\MSVC\14.28.29333\include\xmemory

; 1347 :         return *this;

  0000b	89 45 f8	 mov	 DWORD PTR $T1[ebp], eax
; File C:\Program Files (x86)\Microsoft Visual Studio\2019\Community\VC\Tools\MSVC\14.28.29333\include\vector

; 1733 :         return _Mypair._Get_first();

  0000e	8b 45 f8	 mov	 eax, DWORD PTR $T1[ebp]

; 1734 :     }

  00011	c9		 leave
  00012	c3		 ret	 0
?_Getal@?$vector@PAVCGraphicThing@@V?$allocator@PAVCGraphicThing@@@std@@@std@@AAEAAV?$allocator@PAVCGraphicThing@@@2@XZ ENDP ; std::vector<CGraphicThing *,std::allocator<CGraphicThing *> >::_Getal
_TEXT	ENDS
; Function compile flags: /Odspy
; File C:\Program Files (x86)\Microsoft Visual Studio\2019\Community\VC\Tools\MSVC\14.28.29333\include\vector
;	COMDAT ?_Xlength@?$vector@PAVCGraphicThing@@V?$allocator@PAVCGraphicThing@@@std@@@std@@CAXXZ
_TEXT	SEGMENT
?_Xlength@?$vector@PAVCGraphicThing@@V?$allocator@PAVCGraphicThing@@@std@@@std@@CAXXZ PROC ; std::vector<CGraphicThing *,std::allocator<CGraphicThing *> >::_Xlength, COMDAT

; 1704 :     [[noreturn]] static void _Xlength() {

  00000	55		 push	 ebp
  00001	8b ec		 mov	 ebp, esp

; 1705 :         _Xlength_error("vector too long");

  00003	68 00 00 00 00	 push	 OFFSET ??_C@_0BA@FOIKENOD@vector?5too?5long@
  00008	e8 00 00 00 00	 call	 ?_Xlength_error@std@@YAXPBD@Z ; std::_Xlength_error
$LN2@Xlength:

; 1706 :     }

  0000d	5d		 pop	 ebp
  0000e	c3		 ret	 0
?_Xlength@?$vector@PAVCGraphicThing@@V?$allocator@PAVCGraphicThing@@@std@@@std@@CAXXZ ENDP ; std::vector<CGraphicThing *,std::allocator<CGraphicThing *> >::_Xlength
_TEXT	ENDS
; Function compile flags: /Odspy
; File C:\Program Files (x86)\Microsoft Visual Studio\2019\Community\VC\Tools\MSVC\14.28.29333\include\vector
; File C:\Program Files (x86)\Microsoft Visual Studio\2019\Community\VC\Tools\MSVC\14.28.29333\include\xmemory
; File C:\Program Files (x86)\Microsoft Visual Studio\2019\Community\VC\Tools\MSVC\14.28.29333\include\vector
; File C:\Program Files (x86)\Microsoft Visual Studio\2019\Community\VC\Tools\MSVC\14.28.29333\include\xmemory
; File C:\Program Files (x86)\Microsoft Visual Studio\2019\Community\VC\Tools\MSVC\14.28.29333\include\vector
; File C:\Program Files (x86)\Microsoft Visual Studio\2019\Community\VC\Tools\MSVC\14.28.29333\include\xmemory
; File C:\Program Files (x86)\Microsoft Visual Studio\2019\Community\VC\Tools\MSVC\14.28.29333\include\vector
;	COMDAT ?_Tidy@?$vector@PAVCGraphicThing@@V?$allocator@PAVCGraphicThing@@@std@@@std@@AAEXXZ
_TEXT	SEGMENT
$T1 = -52						; size = 4
__Ptr$ = -48						; size = 4
__Count$ = -44						; size = 4
$T2 = -40						; size = 4
__First$ = -36						; size = 4
__Last$ = -32						; size = 4
$T3 = -28						; size = 4
$T4 = -24						; size = 4
__Myend$ = -20						; size = 4
__Mylast$ = -16						; size = 4
_this$ = -12						; size = 4
__My_data$ = -8						; size = 4
__Myfirst$ = -4						; size = 4
?_Tidy@?$vector@PAVCGraphicThing@@V?$allocator@PAVCGraphicThing@@@std@@@std@@AAEXXZ PROC ; std::vector<CGraphicThing *,std::allocator<CGraphicThing *> >::_Tidy, COMDAT
; _this$ = ecx

; 1686 :     void _Tidy() noexcept { // free all storage

  00000	55		 push	 ebp
  00001	8b ec		 mov	 ebp, esp
  00003	83 ec 34	 sub	 esp, 52			; 00000034H
  00006	89 4d f4	 mov	 DWORD PTR _this$[ebp], ecx

; 1687 :         auto& _My_data    = _Mypair._Myval2;

  00009	8b 45 f4	 mov	 eax, DWORD PTR _this$[ebp]
  0000c	89 45 f8	 mov	 DWORD PTR __My_data$[ebp], eax

; 1688 :         pointer& _Myfirst = _My_data._Myfirst;

  0000f	8b 45 f8	 mov	 eax, DWORD PTR __My_data$[ebp]
  00012	89 45 fc	 mov	 DWORD PTR __Myfirst$[ebp], eax

; 1689 :         pointer& _Mylast  = _My_data._Mylast;

  00015	8b 45 f8	 mov	 eax, DWORD PTR __My_data$[ebp]
  00018	83 c0 04	 add	 eax, 4
  0001b	89 45 f0	 mov	 DWORD PTR __Mylast$[ebp], eax

; 1690 :         pointer& _Myend   = _My_data._Myend;

  0001e	8b 45 f8	 mov	 eax, DWORD PTR __My_data$[ebp]
  00021	83 c0 08	 add	 eax, 8
  00024	89 45 ec	 mov	 DWORD PTR __Myend$[ebp], eax

; 1691 : 
; 1692 :         _My_data._Orphan_all();
; 1693 : 
; 1694 :         if (_Myfirst) { // destroy and deallocate old array

  00027	8b 45 fc	 mov	 eax, DWORD PTR __Myfirst$[ebp]
  0002a	83 38 00	 cmp	 DWORD PTR [eax], 0
  0002d	74 74		 je	 SHORT $LN3@Tidy

; 1695 :             _Destroy(_Myfirst, _Mylast);

  0002f	8b 45 f0	 mov	 eax, DWORD PTR __Mylast$[ebp]
  00032	8b 00		 mov	 eax, DWORD PTR [eax]
  00034	89 45 e0	 mov	 DWORD PTR __Last$[ebp], eax
  00037	8b 45 fc	 mov	 eax, DWORD PTR __Myfirst$[ebp]
  0003a	8b 00		 mov	 eax, DWORD PTR [eax]
  0003c	89 45 dc	 mov	 DWORD PTR __First$[ebp], eax

; 1733 :         return _Mypair._Get_first();

  0003f	8b 45 f4	 mov	 eax, DWORD PTR _this$[ebp]
; File C:\Program Files (x86)\Microsoft Visual Studio\2019\Community\VC\Tools\MSVC\14.28.29333\include\xmemory

; 1347 :         return *this;

  00042	89 45 e8	 mov	 DWORD PTR $T4[ebp], eax
; File C:\Program Files (x86)\Microsoft Visual Studio\2019\Community\VC\Tools\MSVC\14.28.29333\include\vector

; 1733 :         return _Mypair._Get_first();

  00045	8b 45 e8	 mov	 eax, DWORD PTR $T4[ebp]
  00048	89 45 e4	 mov	 DWORD PTR $T3[ebp], eax

; 1612 :         _Destroy_range(_First, _Last, _Getal());

  0004b	ff 75 e4	 push	 DWORD PTR $T3[ebp]
  0004e	ff 75 e0	 push	 DWORD PTR __Last$[ebp]
  00051	ff 75 dc	 push	 DWORD PTR __First$[ebp]
  00054	e8 00 00 00 00	 call	 ??$_Destroy_range@V?$allocator@PAVCGraphicThing@@@std@@@std@@YAXPAPAVCGraphicThing@@QAPAV1@AAV?$allocator@PAVCGraphicThing@@@0@@Z ; std::_Destroy_range<std::allocator<CGraphicThing *> >
  00059	83 c4 0c	 add	 esp, 12			; 0000000cH

; 1733 :         return _Mypair._Get_first();

  0005c	8b 45 f4	 mov	 eax, DWORD PTR _this$[ebp]
; File C:\Program Files (x86)\Microsoft Visual Studio\2019\Community\VC\Tools\MSVC\14.28.29333\include\xmemory

; 1347 :         return *this;

  0005f	89 45 d8	 mov	 DWORD PTR $T2[ebp], eax
; File C:\Program Files (x86)\Microsoft Visual Studio\2019\Community\VC\Tools\MSVC\14.28.29333\include\vector

; 1733 :         return _Mypair._Get_first();

  00062	8b 45 d8	 mov	 eax, DWORD PTR $T2[ebp]
  00065	89 45 cc	 mov	 DWORD PTR $T1[ebp], eax

; 1696 :             _Getal().deallocate(_Myfirst, static_cast<size_type>(_Myend - _Myfirst));

  00068	8b 45 ec	 mov	 eax, DWORD PTR __Myend$[ebp]
  0006b	8b 4d fc	 mov	 ecx, DWORD PTR __Myfirst$[ebp]
  0006e	8b 00		 mov	 eax, DWORD PTR [eax]
  00070	2b 01		 sub	 eax, DWORD PTR [ecx]
  00072	c1 f8 02	 sar	 eax, 2
  00075	89 45 d4	 mov	 DWORD PTR __Count$[ebp], eax
  00078	8b 45 fc	 mov	 eax, DWORD PTR __Myfirst$[ebp]
  0007b	8b 00		 mov	 eax, DWORD PTR [eax]
  0007d	89 45 d0	 mov	 DWORD PTR __Ptr$[ebp], eax
; File C:\Program Files (x86)\Microsoft Visual Studio\2019\Community\VC\Tools\MSVC\14.28.29333\include\xmemory

; 810  :         _Deallocate<_New_alignof<_Ty>>(_Ptr, sizeof(_Ty) * _Count);

  00080	8b 45 d4	 mov	 eax, DWORD PTR __Count$[ebp]
  00083	c1 e0 02	 shl	 eax, 2
  00086	50		 push	 eax
  00087	ff 75 d0	 push	 DWORD PTR __Ptr$[ebp]
  0008a	e8 00 00 00 00	 call	 ??$_Deallocate@$07$0A@@std@@YAXPAXI@Z ; std::_Deallocate<8,0>
  0008f	59		 pop	 ecx
  00090	59		 pop	 ecx
; File C:\Program Files (x86)\Microsoft Visual Studio\2019\Community\VC\Tools\MSVC\14.28.29333\include\vector

; 1698 :             _Myfirst = pointer();

  00091	8b 45 fc	 mov	 eax, DWORD PTR __Myfirst$[ebp]
  00094	83 20 00	 and	 DWORD PTR [eax], 0

; 1699 :             _Mylast  = pointer();

  00097	8b 45 f0	 mov	 eax, DWORD PTR __Mylast$[ebp]
  0009a	83 20 00	 and	 DWORD PTR [eax], 0

; 1700 :             _Myend   = pointer();

  0009d	8b 45 ec	 mov	 eax, DWORD PTR __Myend$[ebp]
  000a0	83 20 00	 and	 DWORD PTR [eax], 0
$LN3@Tidy:

; 1701 :         }
; 1702 :     }

  000a3	c9		 leave
  000a4	c3		 ret	 0
?_Tidy@?$vector@PAVCGraphicThing@@V?$allocator@PAVCGraphicThing@@@std@@@std@@AAEXXZ ENDP ; std::vector<CGraphicThing *,std::allocator<CGraphicThing *> >::_Tidy
_TEXT	ENDS
; Function compile flags: /Odspy
; File C:\Program Files (x86)\Microsoft Visual Studio\2019\Community\VC\Tools\MSVC\14.28.29333\include\vector
; File C:\Program Files (x86)\Microsoft Visual Studio\2019\Community\VC\Tools\MSVC\14.28.29333\include\xmemory
; File C:\Program Files (x86)\Microsoft Visual Studio\2019\Community\VC\Tools\MSVC\14.28.29333\include\vector
; File C:\Program Files (x86)\Microsoft Visual Studio\2019\Community\VC\Tools\MSVC\14.28.29333\include\xmemory
; File C:\Program Files (x86)\Microsoft Visual Studio\2019\Community\VC\Tools\MSVC\14.28.29333\include\vector
; File C:\Program Files (x86)\Microsoft Visual Studio\2019\Community\VC\Tools\MSVC\14.28.29333\include\xmemory
; File C:\Program Files (x86)\Microsoft Visual Studio\2019\Community\VC\Tools\MSVC\14.28.29333\include\vector
;	COMDAT ?_Change_array@?$vector@PAVCGraphicThing@@V?$allocator@PAVCGraphicThing@@@std@@@std@@AAEXQAPAVCGraphicThing@@II@Z
_TEXT	SEGMENT
$T1 = -52						; size = 4
__Ptr$ = -48						; size = 4
__Count$ = -44						; size = 4
$T2 = -40						; size = 4
__First$ = -36						; size = 4
__Last$ = -32						; size = 4
$T3 = -28						; size = 4
$T4 = -24						; size = 4
__Myend$ = -20						; size = 4
__Mylast$ = -16						; size = 4
_this$ = -12						; size = 4
__My_data$ = -8						; size = 4
__Myfirst$ = -4						; size = 4
__Newvec$ = 8						; size = 4
__Newsize$ = 12						; size = 4
__Newcapacity$ = 16					; size = 4
?_Change_array@?$vector@PAVCGraphicThing@@V?$allocator@PAVCGraphicThing@@@std@@@std@@AAEXQAPAVCGraphicThing@@II@Z PROC ; std::vector<CGraphicThing *,std::allocator<CGraphicThing *> >::_Change_array, COMDAT
; _this$ = ecx

; 1667 :     void _Change_array(const pointer _Newvec, const size_type _Newsize, const size_type _Newcapacity) {

  00000	55		 push	 ebp
  00001	8b ec		 mov	 ebp, esp
  00003	83 ec 34	 sub	 esp, 52			; 00000034H
  00006	89 4d f4	 mov	 DWORD PTR _this$[ebp], ecx

; 1668 :         // orphan all iterators, discard old array, acquire new array
; 1669 :         auto& _My_data    = _Mypair._Myval2;

  00009	8b 45 f4	 mov	 eax, DWORD PTR _this$[ebp]
  0000c	89 45 f8	 mov	 DWORD PTR __My_data$[ebp], eax

; 1670 :         pointer& _Myfirst = _My_data._Myfirst;

  0000f	8b 45 f8	 mov	 eax, DWORD PTR __My_data$[ebp]
  00012	89 45 fc	 mov	 DWORD PTR __Myfirst$[ebp], eax

; 1671 :         pointer& _Mylast  = _My_data._Mylast;

  00015	8b 45 f8	 mov	 eax, DWORD PTR __My_data$[ebp]
  00018	83 c0 04	 add	 eax, 4
  0001b	89 45 f0	 mov	 DWORD PTR __Mylast$[ebp], eax

; 1672 :         pointer& _Myend   = _My_data._Myend;

  0001e	8b 45 f8	 mov	 eax, DWORD PTR __My_data$[ebp]
  00021	83 c0 08	 add	 eax, 8
  00024	89 45 ec	 mov	 DWORD PTR __Myend$[ebp], eax

; 1673 : 
; 1674 :         _My_data._Orphan_all();
; 1675 : 
; 1676 :         if (_Myfirst) { // destroy and deallocate old array

  00027	8b 45 fc	 mov	 eax, DWORD PTR __Myfirst$[ebp]
  0002a	83 38 00	 cmp	 DWORD PTR [eax], 0
  0002d	74 62		 je	 SHORT $LN2@Change_arr

; 1677 :             _Destroy(_Myfirst, _Mylast);

  0002f	8b 45 f0	 mov	 eax, DWORD PTR __Mylast$[ebp]
  00032	8b 00		 mov	 eax, DWORD PTR [eax]
  00034	89 45 e0	 mov	 DWORD PTR __Last$[ebp], eax
  00037	8b 45 fc	 mov	 eax, DWORD PTR __Myfirst$[ebp]
  0003a	8b 00		 mov	 eax, DWORD PTR [eax]
  0003c	89 45 dc	 mov	 DWORD PTR __First$[ebp], eax

; 1733 :         return _Mypair._Get_first();

  0003f	8b 45 f4	 mov	 eax, DWORD PTR _this$[ebp]
; File C:\Program Files (x86)\Microsoft Visual Studio\2019\Community\VC\Tools\MSVC\14.28.29333\include\xmemory

; 1347 :         return *this;

  00042	89 45 e8	 mov	 DWORD PTR $T4[ebp], eax
; File C:\Program Files (x86)\Microsoft Visual Studio\2019\Community\VC\Tools\MSVC\14.28.29333\include\vector

; 1733 :         return _Mypair._Get_first();

  00045	8b 45 e8	 mov	 eax, DWORD PTR $T4[ebp]
  00048	89 45 e4	 mov	 DWORD PTR $T3[ebp], eax

; 1612 :         _Destroy_range(_First, _Last, _Getal());

  0004b	ff 75 e4	 push	 DWORD PTR $T3[ebp]
  0004e	ff 75 e0	 push	 DWORD PTR __Last$[ebp]
  00051	ff 75 dc	 push	 DWORD PTR __First$[ebp]
  00054	e8 00 00 00 00	 call	 ??$_Destroy_range@V?$allocator@PAVCGraphicThing@@@std@@@std@@YAXPAPAVCGraphicThing@@QAPAV1@AAV?$allocator@PAVCGraphicThing@@@0@@Z ; std::_Destroy_range<std::allocator<CGraphicThing *> >
  00059	83 c4 0c	 add	 esp, 12			; 0000000cH

; 1733 :         return _Mypair._Get_first();

  0005c	8b 45 f4	 mov	 eax, DWORD PTR _this$[ebp]
; File C:\Program Files (x86)\Microsoft Visual Studio\2019\Community\VC\Tools\MSVC\14.28.29333\include\xmemory

; 1347 :         return *this;

  0005f	89 45 d8	 mov	 DWORD PTR $T2[ebp], eax
; File C:\Program Files (x86)\Microsoft Visual Studio\2019\Community\VC\Tools\MSVC\14.28.29333\include\vector

; 1733 :         return _Mypair._Get_first();

  00062	8b 45 d8	 mov	 eax, DWORD PTR $T2[ebp]
  00065	89 45 cc	 mov	 DWORD PTR $T1[ebp], eax

; 1678 :             _Getal().deallocate(_Myfirst, static_cast<size_type>(_Myend - _Myfirst));

  00068	8b 45 ec	 mov	 eax, DWORD PTR __Myend$[ebp]
  0006b	8b 4d fc	 mov	 ecx, DWORD PTR __Myfirst$[ebp]
  0006e	8b 00		 mov	 eax, DWORD PTR [eax]
  00070	2b 01		 sub	 eax, DWORD PTR [ecx]
  00072	c1 f8 02	 sar	 eax, 2
  00075	89 45 d4	 mov	 DWORD PTR __Count$[ebp], eax
  00078	8b 45 fc	 mov	 eax, DWORD PTR __Myfirst$[ebp]
  0007b	8b 00		 mov	 eax, DWORD PTR [eax]
  0007d	89 45 d0	 mov	 DWORD PTR __Ptr$[ebp], eax
; File C:\Program Files (x86)\Microsoft Visual Studio\2019\Community\VC\Tools\MSVC\14.28.29333\include\xmemory

; 810  :         _Deallocate<_New_alignof<_Ty>>(_Ptr, sizeof(_Ty) * _Count);

  00080	8b 45 d4	 mov	 eax, DWORD PTR __Count$[ebp]
  00083	c1 e0 02	 shl	 eax, 2
  00086	50		 push	 eax
  00087	ff 75 d0	 push	 DWORD PTR __Ptr$[ebp]
  0008a	e8 00 00 00 00	 call	 ??$_Deallocate@$07$0A@@std@@YAXPAXI@Z ; std::_Deallocate<8,0>
  0008f	59		 pop	 ecx
  00090	59		 pop	 ecx
$LN2@Change_arr:
; File C:\Program Files (x86)\Microsoft Visual Studio\2019\Community\VC\Tools\MSVC\14.28.29333\include\vector

; 1681 :         _Myfirst = _Newvec;

  00091	8b 45 fc	 mov	 eax, DWORD PTR __Myfirst$[ebp]
  00094	8b 4d 08	 mov	 ecx, DWORD PTR __Newvec$[ebp]
  00097	89 08		 mov	 DWORD PTR [eax], ecx

; 1682 :         _Mylast  = _Newvec + _Newsize;

  00099	8b 45 0c	 mov	 eax, DWORD PTR __Newsize$[ebp]
  0009c	8b 4d 08	 mov	 ecx, DWORD PTR __Newvec$[ebp]
  0009f	8d 04 81	 lea	 eax, DWORD PTR [ecx+eax*4]
  000a2	8b 4d f0	 mov	 ecx, DWORD PTR __Mylast$[ebp]
  000a5	89 01		 mov	 DWORD PTR [ecx], eax

; 1683 :         _Myend   = _Newvec + _Newcapacity;

  000a7	8b 45 10	 mov	 eax, DWORD PTR __Newcapacity$[ebp]
  000aa	8b 4d 08	 mov	 ecx, DWORD PTR __Newvec$[ebp]
  000ad	8d 04 81	 lea	 eax, DWORD PTR [ecx+eax*4]
  000b0	8b 4d ec	 mov	 ecx, DWORD PTR __Myend$[ebp]
  000b3	89 01		 mov	 DWORD PTR [ecx], eax

; 1684 :     }

  000b5	c9		 leave
  000b6	c2 0c 00	 ret	 12			; 0000000cH
?_Change_array@?$vector@PAVCGraphicThing@@V?$allocator@PAVCGraphicThing@@@std@@@std@@AAEXQAPAVCGraphicThing@@II@Z ENDP ; std::vector<CGraphicThing *,std::allocator<CGraphicThing *> >::_Change_array
_TEXT	ENDS
; Function compile flags: /Odspy
; File C:\Program Files (x86)\Microsoft Visual Studio\2019\Community\VC\Tools\MSVC\14.28.29333\include\vector
; File C:\Program Files (x86)\Microsoft Visual Studio\2019\Community\VC\Tools\MSVC\14.28.29333\include\xmemory
; File C:\Program Files (x86)\Microsoft Visual Studio\2019\Community\VC\Tools\MSVC\14.28.29333\include\vector
; File C:\Program Files (x86)\Microsoft Visual Studio\2019\Community\VC\Tools\MSVC\14.28.29333\include\xmemory
; File C:\Program Files (x86)\Microsoft Visual Studio\2019\Community\VC\Tools\MSVC\14.28.29333\include\limits
; File C:\Program Files (x86)\Microsoft Visual Studio\2019\Community\VC\Tools\MSVC\14.28.29333\include\vector
; File C:\Program Files (x86)\Microsoft Visual Studio\2019\Community\VC\Tools\MSVC\14.28.29333\include\utility
; File C:\Program Files (x86)\Microsoft Visual Studio\2019\Community\VC\Tools\MSVC\14.28.29333\include\vector
;	COMDAT ?_Calculate_growth@?$vector@PAVCGraphicThing@@V?$allocator@PAVCGraphicThing@@@std@@@std@@ABEII@Z
_TEXT	SEGMENT
$T1 = -52						; size = 4
$T2 = -48						; size = 4
$T3 = -44						; size = 4
$T4 = -40						; size = 4
$T5 = -36						; size = 4
__Geometric$ = -32					; size = 4
__Max$ = -28						; size = 4
tv82 = -24						; size = 4
$T6 = -20						; size = 4
$T7 = -16						; size = 4
_this$ = -12						; size = 4
__My_data$8 = -8					; size = 4
__Oldcapacity$ = -4					; size = 4
__Newsize$ = 8						; size = 4
?_Calculate_growth@?$vector@PAVCGraphicThing@@V?$allocator@PAVCGraphicThing@@@std@@@std@@ABEII@Z PROC ; std::vector<CGraphicThing *,std::allocator<CGraphicThing *> >::_Calculate_growth, COMDAT
; _this$ = ecx

; 1615 :     size_type _Calculate_growth(const size_type _Newsize) const {

  00000	55		 push	 ebp
  00001	8b ec		 mov	 ebp, esp
  00003	83 ec 34	 sub	 esp, 52			; 00000034H
  00006	89 4d f4	 mov	 DWORD PTR _this$[ebp], ecx

; 1493 :         auto& _My_data = _Mypair._Myval2;

  00009	8b 45 f4	 mov	 eax, DWORD PTR _this$[ebp]
  0000c	89 45 f8	 mov	 DWORD PTR __My_data$8[ebp], eax

; 1494 :         return static_cast<size_type>(_My_data._Myend - _My_data._Myfirst);

  0000f	8b 45 f8	 mov	 eax, DWORD PTR __My_data$8[ebp]
  00012	8b 4d f8	 mov	 ecx, DWORD PTR __My_data$8[ebp]
  00015	8b 40 08	 mov	 eax, DWORD PTR [eax+8]
  00018	2b 01		 sub	 eax, DWORD PTR [ecx]
  0001a	c1 f8 02	 sar	 eax, 2
  0001d	89 45 fc	 mov	 DWORD PTR __Oldcapacity$[ebp], eax

; 1737 :         return _Mypair._Get_first();

  00020	8b 45 f4	 mov	 eax, DWORD PTR _this$[ebp]
; File C:\Program Files (x86)\Microsoft Visual Studio\2019\Community\VC\Tools\MSVC\14.28.29333\include\xmemory

; 1351 :         return *this;

  00023	89 45 dc	 mov	 DWORD PTR $T5[ebp], eax
; File C:\Program Files (x86)\Microsoft Visual Studio\2019\Community\VC\Tools\MSVC\14.28.29333\include\vector

; 1737 :         return _Mypair._Get_first();

  00026	8b 45 dc	 mov	 eax, DWORD PTR $T5[ebp]
  00029	89 45 cc	 mov	 DWORD PTR $T1[ebp], eax
; File C:\Program Files (x86)\Microsoft Visual Studio\2019\Community\VC\Tools\MSVC\14.28.29333\include\xmemory

; 710  :         return static_cast<size_t>(-1) / sizeof(value_type);

  0002c	c7 45 f0 ff ff
	ff 3f		 mov	 DWORD PTR $T7[ebp], 1073741823 ; 3fffffffH
; File C:\Program Files (x86)\Microsoft Visual Studio\2019\Community\VC\Tools\MSVC\14.28.29333\include\limits

; 557  :         return INT_MAX;

  00033	c7 45 d8 ff ff
	ff 7f		 mov	 DWORD PTR $T4[ebp], 2147483647 ; 7fffffffH
; File C:\Program Files (x86)\Microsoft Visual Studio\2019\Community\VC\Tools\MSVC\14.28.29333\include\vector

; 1488 :         return (_STD min)(

  0003a	8b 45 d8	 mov	 eax, DWORD PTR $T4[ebp]
  0003d	89 45 ec	 mov	 DWORD PTR $T6[ebp], eax
; File C:\Program Files (x86)\Microsoft Visual Studio\2019\Community\VC\Tools\MSVC\14.28.29333\include\utility

; 68   :     return _Right < _Left ? _Right : _Left;

  00040	8b 45 f0	 mov	 eax, DWORD PTR $T7[ebp]
  00043	3b 45 ec	 cmp	 eax, DWORD PTR $T6[ebp]
  00046	73 08		 jae	 SHORT $LN25@Calculate_
  00048	8d 45 f0	 lea	 eax, DWORD PTR $T7[ebp]
  0004b	89 45 e8	 mov	 DWORD PTR tv82[ebp], eax
  0004e	eb 06		 jmp	 SHORT $LN26@Calculate_
$LN25@Calculate_:
  00050	8d 45 ec	 lea	 eax, DWORD PTR $T6[ebp]
  00053	89 45 e8	 mov	 DWORD PTR tv82[ebp], eax
$LN26@Calculate_:
  00056	8b 45 e8	 mov	 eax, DWORD PTR tv82[ebp]
  00059	89 45 d4	 mov	 DWORD PTR $T3[ebp], eax
  0005c	8b 45 d4	 mov	 eax, DWORD PTR $T3[ebp]
  0005f	89 45 d0	 mov	 DWORD PTR $T2[ebp], eax
; File C:\Program Files (x86)\Microsoft Visual Studio\2019\Community\VC\Tools\MSVC\14.28.29333\include\vector

; 1488 :         return (_STD min)(

  00062	8b 45 d0	 mov	 eax, DWORD PTR $T2[ebp]
  00065	8b 00		 mov	 eax, DWORD PTR [eax]
  00067	89 45 e4	 mov	 DWORD PTR __Max$[ebp], eax

; 1616 :         // given _Oldcapacity and _Newsize, calculate geometric growth
; 1617 :         const size_type _Oldcapacity = capacity();
; 1618 :         const auto _Max              = max_size();
; 1619 : 
; 1620 :         if (_Oldcapacity > _Max - _Oldcapacity / 2) {

  0006a	8b 45 fc	 mov	 eax, DWORD PTR __Oldcapacity$[ebp]
  0006d	d1 e8		 shr	 eax, 1
  0006f	8b 4d e4	 mov	 ecx, DWORD PTR __Max$[ebp]
  00072	2b c8		 sub	 ecx, eax
  00074	39 4d fc	 cmp	 DWORD PTR __Oldcapacity$[ebp], ecx
  00077	76 05		 jbe	 SHORT $LN2@Calculate_

; 1621 :             return _Max; // geometric growth would overflow

  00079	8b 45 e4	 mov	 eax, DWORD PTR __Max$[ebp]
  0007c	eb 1b		 jmp	 SHORT $LN1@Calculate_
$LN2@Calculate_:

; 1622 :         }
; 1623 : 
; 1624 :         const size_type _Geometric = _Oldcapacity + _Oldcapacity / 2;

  0007e	8b 45 fc	 mov	 eax, DWORD PTR __Oldcapacity$[ebp]
  00081	d1 e8		 shr	 eax, 1
  00083	03 45 fc	 add	 eax, DWORD PTR __Oldcapacity$[ebp]
  00086	89 45 e0	 mov	 DWORD PTR __Geometric$[ebp], eax

; 1625 : 
; 1626 :         if (_Geometric < _Newsize) {

  00089	8b 45 e0	 mov	 eax, DWORD PTR __Geometric$[ebp]
  0008c	3b 45 08	 cmp	 eax, DWORD PTR __Newsize$[ebp]
  0008f	73 05		 jae	 SHORT $LN3@Calculate_

; 1627 :             return _Newsize; // geometric growth would be insufficient

  00091	8b 45 08	 mov	 eax, DWORD PTR __Newsize$[ebp]
  00094	eb 03		 jmp	 SHORT $LN1@Calculate_
$LN3@Calculate_:

; 1628 :         }
; 1629 : 
; 1630 :         return _Geometric; // geometric growth is sufficient

  00096	8b 45 e0	 mov	 eax, DWORD PTR __Geometric$[ebp]
$LN1@Calculate_:

; 1631 :     }

  00099	c9		 leave
  0009a	c2 04 00	 ret	 4
?_Calculate_growth@?$vector@PAVCGraphicThing@@V?$allocator@PAVCGraphicThing@@@std@@@std@@ABEII@Z ENDP ; std::vector<CGraphicThing *,std::allocator<CGraphicThing *> >::_Calculate_growth
_TEXT	ENDS
; Function compile flags: /Odspy
; File C:\Program Files (x86)\Microsoft Visual Studio\2019\Community\VC\Tools\MSVC\14.28.29333\include\vector
; File C:\Program Files (x86)\Microsoft Visual Studio\2019\Community\VC\Tools\MSVC\14.28.29333\include\xmemory
; File C:\Program Files (x86)\Microsoft Visual Studio\2019\Community\VC\Tools\MSVC\14.28.29333\include\vector
;	COMDAT ?_Destroy@?$vector@PAVCGraphicThing@@V?$allocator@PAVCGraphicThing@@@std@@@std@@AAEXPAPAVCGraphicThing@@0@Z
_TEXT	SEGMENT
$T1 = -12						; size = 4
$T2 = -8						; size = 4
_this$ = -4						; size = 4
__First$ = 8						; size = 4
__Last$ = 12						; size = 4
?_Destroy@?$vector@PAVCGraphicThing@@V?$allocator@PAVCGraphicThing@@@std@@@std@@AAEXPAPAVCGraphicThing@@0@Z PROC ; std::vector<CGraphicThing *,std::allocator<CGraphicThing *> >::_Destroy, COMDAT
; _this$ = ecx

; 1611 :     void _Destroy(pointer _First, pointer _Last) { // destroy [_First, _Last) using allocator

  00000	55		 push	 ebp
  00001	8b ec		 mov	 ebp, esp
  00003	83 ec 0c	 sub	 esp, 12			; 0000000cH
  00006	89 4d fc	 mov	 DWORD PTR _this$[ebp], ecx

; 1733 :         return _Mypair._Get_first();

  00009	8b 45 fc	 mov	 eax, DWORD PTR _this$[ebp]
; File C:\Program Files (x86)\Microsoft Visual Studio\2019\Community\VC\Tools\MSVC\14.28.29333\include\xmemory

; 1347 :         return *this;

  0000c	89 45 f8	 mov	 DWORD PTR $T2[ebp], eax
; File C:\Program Files (x86)\Microsoft Visual Studio\2019\Community\VC\Tools\MSVC\14.28.29333\include\vector

; 1733 :         return _Mypair._Get_first();

  0000f	8b 45 f8	 mov	 eax, DWORD PTR $T2[ebp]
  00012	89 45 f4	 mov	 DWORD PTR $T1[ebp], eax

; 1612 :         _Destroy_range(_First, _Last, _Getal());

  00015	ff 75 f4	 push	 DWORD PTR $T1[ebp]
  00018	ff 75 0c	 push	 DWORD PTR __Last$[ebp]
  0001b	ff 75 08	 push	 DWORD PTR __First$[ebp]
  0001e	e8 00 00 00 00	 call	 ??$_Destroy_range@V?$allocator@PAVCGraphicThing@@@std@@@std@@YAXPAPAVCGraphicThing@@QAPAV1@AAV?$allocator@PAVCGraphicThing@@@0@@Z ; std::_Destroy_range<std::allocator<CGraphicThing *> >
  00023	83 c4 0c	 add	 esp, 12			; 0000000cH

; 1613 :     }

  00026	c9		 leave
  00027	c2 08 00	 ret	 8
?_Destroy@?$vector@PAVCGraphicThing@@V?$allocator@PAVCGraphicThing@@@std@@@std@@AAEXPAPAVCGraphicThing@@0@Z ENDP ; std::vector<CGraphicThing *,std::allocator<CGraphicThing *> >::_Destroy
_TEXT	ENDS
; Function compile flags: /Odspy
; File C:\Program Files (x86)\Microsoft Visual Studio\2019\Community\VC\Tools\MSVC\14.28.29333\include\vector
; File C:\Program Files (x86)\Microsoft Visual Studio\2019\Community\VC\Tools\MSVC\14.28.29333\include\xmemory
; File C:\Program Files (x86)\Microsoft Visual Studio\2019\Community\VC\Tools\MSVC\14.28.29333\include\vector
;	COMDAT ?clear@?$vector@PAVCGraphicThing@@V?$allocator@PAVCGraphicThing@@@std@@@std@@QAEXXZ
_TEXT	SEGMENT
__First$ = -32						; size = 4
__Last$ = -28						; size = 4
$T1 = -24						; size = 4
$T2 = -20						; size = 4
__Myfirst$ = -16					; size = 4
__Mylast$ = -12						; size = 4
_this$ = -8						; size = 4
__My_data$ = -4						; size = 4
?clear@?$vector@PAVCGraphicThing@@V?$allocator@PAVCGraphicThing@@@std@@@std@@QAEXXZ PROC ; std::vector<CGraphicThing *,std::allocator<CGraphicThing *> >::clear, COMDAT
; _this$ = ecx

; 1383 :     void clear() noexcept { // erase all

  00000	55		 push	 ebp
  00001	8b ec		 mov	 ebp, esp
  00003	83 ec 20	 sub	 esp, 32			; 00000020H
  00006	89 4d f8	 mov	 DWORD PTR _this$[ebp], ecx

; 1384 :         auto& _My_data    = _Mypair._Myval2;

  00009	8b 45 f8	 mov	 eax, DWORD PTR _this$[ebp]
  0000c	89 45 fc	 mov	 DWORD PTR __My_data$[ebp], eax

; 1385 :         pointer& _Myfirst = _My_data._Myfirst;

  0000f	8b 45 fc	 mov	 eax, DWORD PTR __My_data$[ebp]
  00012	89 45 f0	 mov	 DWORD PTR __Myfirst$[ebp], eax

; 1386 :         pointer& _Mylast  = _My_data._Mylast;

  00015	8b 45 fc	 mov	 eax, DWORD PTR __My_data$[ebp]
  00018	83 c0 04	 add	 eax, 4
  0001b	89 45 f4	 mov	 DWORD PTR __Mylast$[ebp], eax

; 1387 : 
; 1388 :         _My_data._Orphan_all();
; 1389 :         _Destroy(_Myfirst, _Mylast);

  0001e	8b 45 f4	 mov	 eax, DWORD PTR __Mylast$[ebp]
  00021	8b 00		 mov	 eax, DWORD PTR [eax]
  00023	89 45 e4	 mov	 DWORD PTR __Last$[ebp], eax
  00026	8b 45 f0	 mov	 eax, DWORD PTR __Myfirst$[ebp]
  00029	8b 00		 mov	 eax, DWORD PTR [eax]
  0002b	89 45 e0	 mov	 DWORD PTR __First$[ebp], eax

; 1733 :         return _Mypair._Get_first();

  0002e	8b 45 f8	 mov	 eax, DWORD PTR _this$[ebp]
; File C:\Program Files (x86)\Microsoft Visual Studio\2019\Community\VC\Tools\MSVC\14.28.29333\include\xmemory

; 1347 :         return *this;

  00031	89 45 ec	 mov	 DWORD PTR $T2[ebp], eax
; File C:\Program Files (x86)\Microsoft Visual Studio\2019\Community\VC\Tools\MSVC\14.28.29333\include\vector

; 1733 :         return _Mypair._Get_first();

  00034	8b 45 ec	 mov	 eax, DWORD PTR $T2[ebp]
  00037	89 45 e8	 mov	 DWORD PTR $T1[ebp], eax

; 1612 :         _Destroy_range(_First, _Last, _Getal());

  0003a	ff 75 e8	 push	 DWORD PTR $T1[ebp]
  0003d	ff 75 e4	 push	 DWORD PTR __Last$[ebp]
  00040	ff 75 e0	 push	 DWORD PTR __First$[ebp]
  00043	e8 00 00 00 00	 call	 ??$_Destroy_range@V?$allocator@PAVCGraphicThing@@@std@@@std@@YAXPAPAVCGraphicThing@@QAPAV1@AAV?$allocator@PAVCGraphicThing@@@0@@Z ; std::_Destroy_range<std::allocator<CGraphicThing *> >
  00048	83 c4 0c	 add	 esp, 12			; 0000000cH

; 1390 :         _Mylast = _Myfirst;

  0004b	8b 45 f4	 mov	 eax, DWORD PTR __Mylast$[ebp]
  0004e	8b 4d f0	 mov	 ecx, DWORD PTR __Myfirst$[ebp]
  00051	8b 09		 mov	 ecx, DWORD PTR [ecx]
  00053	89 08		 mov	 DWORD PTR [eax], ecx

; 1391 :     }

  00055	c9		 leave
  00056	c3		 ret	 0
?clear@?$vector@PAVCGraphicThing@@V?$allocator@PAVCGraphicThing@@@std@@@std@@QAEXXZ ENDP ; std::vector<CGraphicThing *,std::allocator<CGraphicThing *> >::clear
_TEXT	ENDS
; Function compile flags: /Odspy
; File C:\Program Files (x86)\Microsoft Visual Studio\2019\Community\VC\Tools\MSVC\14.28.29333\include\vector
;	COMDAT ??1?$vector@PAVCGraphicThing@@V?$allocator@PAVCGraphicThing@@@std@@@std@@QAE@XZ
_TEXT	SEGMENT
_this$ = -4						; size = 4
??1?$vector@PAVCGraphicThing@@V?$allocator@PAVCGraphicThing@@@std@@@std@@QAE@XZ PROC ; std::vector<CGraphicThing *,std::allocator<CGraphicThing *> >::~vector<CGraphicThing *,std::allocator<CGraphicThing *> >, COMDAT
; _this$ = ecx

; 672  :     ~vector() noexcept {

  00000	55		 push	 ebp
  00001	8b ec		 mov	 ebp, esp
  00003	51		 push	 ecx
  00004	89 4d fc	 mov	 DWORD PTR _this$[ebp], ecx

; 673  :         _Tidy();

  00007	8b 4d fc	 mov	 ecx, DWORD PTR _this$[ebp]
  0000a	e8 00 00 00 00	 call	 ?_Tidy@?$vector@PAVCGraphicThing@@V?$allocator@PAVCGraphicThing@@@std@@@std@@AAEXXZ ; std::vector<CGraphicThing *,std::allocator<CGraphicThing *> >::_Tidy

; 674  : #if _ITERATOR_DEBUG_LEVEL != 0
; 675  :         auto&& _Alproxy = _GET_PROXY_ALLOCATOR(_Alty, _Getal());
; 676  :         _Delete_plain_internal(_Alproxy, _STD exchange(_Mypair._Myval2._Myproxy, nullptr));
; 677  : #endif // _ITERATOR_DEBUG_LEVEL != 0
; 678  :     }

  0000f	c9		 leave
  00010	c3		 ret	 0
??1?$vector@PAVCGraphicThing@@V?$allocator@PAVCGraphicThing@@@std@@@std@@QAE@XZ ENDP ; std::vector<CGraphicThing *,std::allocator<CGraphicThing *> >::~vector<CGraphicThing *,std::allocator<CGraphicThing *> >
_TEXT	ENDS
; Function compile flags: /Odspy
; File C:\Program Files (x86)\Microsoft Visual Studio\2019\Community\VC\Tools\MSVC\14.28.29333\include\xmemory
;	COMDAT ?deallocate@?$allocator@PAVCGraphicThing@@@std@@QAEXQAPAVCGraphicThing@@I@Z
_TEXT	SEGMENT
_this$ = -4						; size = 4
__Ptr$ = 8						; size = 4
__Count$ = 12						; size = 4
?deallocate@?$allocator@PAVCGraphicThing@@@std@@QAEXQAPAVCGraphicThing@@I@Z PROC ; std::allocator<CGraphicThing *>::deallocate, COMDAT
; _this$ = ecx

; 808  :     void deallocate(_Ty* const _Ptr, const size_t _Count) {

  00000	55		 push	 ebp
  00001	8b ec		 mov	 ebp, esp
  00003	51		 push	 ecx
  00004	89 4d fc	 mov	 DWORD PTR _this$[ebp], ecx

; 809  :         // no overflow check on the following multiply; we assume _Allocate did that check
; 810  :         _Deallocate<_New_alignof<_Ty>>(_Ptr, sizeof(_Ty) * _Count);

  00007	8b 45 0c	 mov	 eax, DWORD PTR __Count$[ebp]
  0000a	c1 e0 02	 shl	 eax, 2
  0000d	50		 push	 eax
  0000e	ff 75 08	 push	 DWORD PTR __Ptr$[ebp]
  00011	e8 00 00 00 00	 call	 ??$_Deallocate@$07$0A@@std@@YAXPAXI@Z ; std::_Deallocate<8,0>
  00016	59		 pop	 ecx
  00017	59		 pop	 ecx

; 811  :     }

  00018	c9		 leave
  00019	c2 08 00	 ret	 8
?deallocate@?$allocator@PAVCGraphicThing@@@std@@QAEXQAPAVCGraphicThing@@I@Z ENDP ; std::allocator<CGraphicThing *>::deallocate
_TEXT	ENDS
; Function compile flags: /Odspy
; File D:\Metin2 Server Files\mainline\SRC_2014\Metin2Client\GameLib\ItemData.cpp
; File D:\Metin2 Server Files\mainline\SRC_2014\Metin2Client\eterBase\Singleton.h
; File D:\Metin2 Server Files\mainline\SRC_2014\Metin2Client\GameLib\ItemData.cpp
; File D:\Metin2 Server Files\mainline\SRC_2014\Metin2Client\eterBase\Singleton.h
; File D:\Metin2 Server Files\mainline\SRC_2014\Metin2Client\GameLib\ItemData.cpp
;	COMDAT ?__SetIconImage@CItemData@@IAEXPBD@Z
_TEXT	SEGMENT
$T1 = -12						; size = 4
$T2 = -8						; size = 4
_this$ = -4						; size = 4
_c_szFileName$ = 8					; size = 4
?__SetIconImage@CItemData@@IAEXPBD@Z PROC		; CItemData::__SetIconImage, COMDAT
; _this$ = ecx

; 203  : {

  00000	55		 push	 ebp
  00001	8b ec		 mov	 ebp, esp
  00003	83 ec 0c	 sub	 esp, 12			; 0000000cH
  00006	89 4d fc	 mov	 DWORD PTR _this$[ebp], ecx
; File D:\Metin2 Server Files\mainline\SRC_2014\Metin2Client\eterBase\Singleton.h

; 27   : 		return (*ms_singleton);

  00009	a1 00 00 00 00	 mov	 eax, DWORD PTR ?ms_singleton@?$CSingleton@VCResourceManager@@@@0PAVCResourceManager@@A ; CSingleton<CResourceManager>::ms_singleton
  0000e	89 45 f8	 mov	 DWORD PTR $T2[ebp], eax
; File D:\Metin2 Server Files\mainline\SRC_2014\Metin2Client\GameLib\ItemData.cpp

; 204  : 	if (!CResourceManager::Instance().IsFileExist(c_szFileName))

  00011	ff 75 08	 push	 DWORD PTR _c_szFileName$[ebp]
  00014	8b 4d f8	 mov	 ecx, DWORD PTR $T2[ebp]
  00017	e8 00 00 00 00	 call	 ?IsFileExist@CResourceManager@@QAE_NPBD@Z ; CResourceManager::IsFileExist
  0001c	0f b6 c0	 movzx	 eax, al
  0001f	85 c0		 test	 eax, eax
  00021	75 1b		 jne	 SHORT $LN2@SetIconIma

; 205  : 	{
; 206  : 		TraceError("%s  .CItemData::__SetIconImage",c_szFileName);

  00023	ff 75 08	 push	 DWORD PTR _c_szFileName$[ebp]
  00026	68 00 00 00 00	 push	 OFFSET ??_C@_0CN@HDHIHCHA@?$CFs?5?F?D?$MA?O?$MA?L?5?$LO?x?$LN?$MA?$LE?O?$LE?Y?4CItemData?3?3_@
  0002b	e8 00 00 00 00	 call	 ?TraceError@@YAXPBDZZ	; TraceError
  00030	59		 pop	 ecx
  00031	59		 pop	 ecx

; 207  : 		m_pIconImage = NULL;

  00032	8b 45 fc	 mov	 eax, DWORD PTR _this$[ebp]
  00035	83 a0 ac 00 00
	00 00		 and	 DWORD PTR [eax+172], 0

; 208  : 	}

  0003c	eb 28		 jmp	 SHORT $LN1@SetIconIma
$LN2@SetIconIma:

; 209  : 	else if (m_pIconImage == NULL) 

  0003e	8b 45 fc	 mov	 eax, DWORD PTR _this$[ebp]
  00041	83 b8 ac 00 00
	00 00		 cmp	 DWORD PTR [eax+172], 0
  00048	75 1c		 jne	 SHORT $LN1@SetIconIma
; File D:\Metin2 Server Files\mainline\SRC_2014\Metin2Client\eterBase\Singleton.h

; 27   : 		return (*ms_singleton);

  0004a	a1 00 00 00 00	 mov	 eax, DWORD PTR ?ms_singleton@?$CSingleton@VCResourceManager@@@@0PAVCResourceManager@@A ; CSingleton<CResourceManager>::ms_singleton
  0004f	89 45 f4	 mov	 DWORD PTR $T1[ebp], eax
; File D:\Metin2 Server Files\mainline\SRC_2014\Metin2Client\GameLib\ItemData.cpp

; 210  : 		m_pIconImage = (CGraphicSubImage *)CResourceManager::Instance().GetResourcePointer(c_szFileName);

  00052	ff 75 08	 push	 DWORD PTR _c_szFileName$[ebp]
  00055	8b 4d f4	 mov	 ecx, DWORD PTR $T1[ebp]
  00058	e8 00 00 00 00	 call	 ?GetResourcePointer@CResourceManager@@QAEPAVCResource@@PBD@Z ; CResourceManager::GetResourcePointer
  0005d	8b 4d fc	 mov	 ecx, DWORD PTR _this$[ebp]
  00060	89 81 ac 00 00
	00		 mov	 DWORD PTR [ecx+172], eax
$LN1@SetIconIma:

; 211  : }

  00066	c9		 leave
  00067	c2 04 00	 ret	 4
?__SetIconImage@CItemData@@IAEXPBD@Z ENDP		; CItemData::__SetIconImage
_TEXT	ENDS
; Function compile flags: /Odspy
; File D:\Metin2 Server Files\mainline\SRC_2014\Metin2Client\GameLib\ItemData.cpp
; File C:\Program Files (x86)\Microsoft Visual Studio\2019\Community\VC\Tools\MSVC\14.28.29333\include\xstring
; File D:\Metin2 Server Files\mainline\SRC_2014\Metin2Client\GameLib\ItemData.cpp
; File D:\Metin2 Server Files\mainline\SRC_2014\Metin2Client\eterBase\Singleton.h
; File D:\Metin2 Server Files\mainline\SRC_2014\Metin2Client\GameLib\ItemData.cpp
; File C:\Program Files (x86)\Microsoft Visual Studio\2019\Community\VC\Tools\MSVC\14.28.29333\include\xstring
; File D:\Metin2 Server Files\mainline\SRC_2014\Metin2Client\GameLib\ItemData.cpp
; File D:\Metin2 Server Files\mainline\SRC_2014\Metin2Client\eterBase\Singleton.h
; File D:\Metin2 Server Files\mainline\SRC_2014\Metin2Client\GameLib\ItemData.cpp
; File C:\Program Files (x86)\Microsoft Visual Studio\2019\Community\VC\Tools\MSVC\14.28.29333\include\xstring
; File D:\Metin2 Server Files\mainline\SRC_2014\Metin2Client\GameLib\ItemData.cpp
; File D:\Metin2 Server Files\mainline\SRC_2014\Metin2Client\eterBase\Singleton.h
; File D:\Metin2 Server Files\mainline\SRC_2014\Metin2Client\GameLib\ItemData.cpp
; File C:\Program Files (x86)\Microsoft Visual Studio\2019\Community\VC\Tools\MSVC\14.28.29333\include\vector
; File D:\Metin2 Server Files\mainline\SRC_2014\Metin2Client\GameLib\ItemData.cpp
; File C:\Program Files (x86)\Microsoft Visual Studio\2019\Community\VC\Tools\MSVC\14.28.29333\include\vector
; File D:\Metin2 Server Files\mainline\SRC_2014\Metin2Client\GameLib\ItemData.cpp
; File C:\Program Files (x86)\Microsoft Visual Studio\2019\Community\VC\Tools\MSVC\14.28.29333\include\vector
; File D:\Metin2 Server Files\mainline\SRC_2014\Metin2Client\GameLib\ItemData.cpp
; File C:\Program Files (x86)\Microsoft Visual Studio\2019\Community\VC\Tools\MSVC\14.28.29333\include\vector
; File D:\Metin2 Server Files\mainline\SRC_2014\Metin2Client\GameLib\ItemData.cpp
; File C:\Program Files (x86)\Microsoft Visual Studio\2019\Community\VC\Tools\MSVC\14.28.29333\include\vector
; File D:\Metin2 Server Files\mainline\SRC_2014\Metin2Client\eterBase\Singleton.h
; File C:\Program Files (x86)\Microsoft Visual Studio\2019\Community\VC\Tools\MSVC\14.28.29333\include\vector
; File D:\Metin2 Server Files\mainline\SRC_2014\Metin2Client\GameLib\ItemData.cpp
;	COMDAT ?__LoadFiles@CItemData@@IAEXXZ
_TEXT	SEGMENT
$T1 = -96						; size = 4
$T2 = -92						; size = 4
_c_rstrLODModelFileName$3 = -88				; size = 4
__My_data$4 = -84					; size = 4
__My_data$5 = -80					; size = 4
$T6 = -76						; size = 4
$T7 = -72						; size = 4
$T8 = -68						; size = 4
$T9 = -64						; size = 4
$T10 = -60						; size = 4
$T11 = -56						; size = 4
$T12 = -52						; size = 4
$T13 = -48						; size = 4
__My_data$14 = -44					; size = 4
__My_data$15 = -40					; size = 4
tv221 = -36						; size = 4
__My_data$16 = -32					; size = 4
tv202 = -28						; size = 4
tv197 = -24						; size = 4
tv186 = -20						; size = 4
_i$17 = -16						; size = 4
_this$ = -12						; size = 4
$T18 = -5						; size = 1
$T19 = -4						; size = 1
$T20 = -3						; size = 1
$T21 = -2						; size = 1
$T22 = -1						; size = 1
?__LoadFiles@CItemData@@IAEXXZ PROC			; CItemData::__LoadFiles, COMDAT
; _this$ = ecx

; 177  : {

  00000	55		 push	 ebp
  00001	8b ec		 mov	 ebp, esp
  00003	83 ec 60	 sub	 esp, 96			; 00000060H
  00006	89 4d f4	 mov	 DWORD PTR _this$[ebp], ecx
; File C:\Program Files (x86)\Microsoft Visual Studio\2019\Community\VC\Tools\MSVC\14.28.29333\include\xstring

; 3770 :         return _Mypair._Myval2._Mysize;

  00009	8b 45 f4	 mov	 eax, DWORD PTR _this$[ebp]
  0000c	8b 40 14	 mov	 eax, DWORD PTR [eax+20]
  0000f	89 45 d0	 mov	 DWORD PTR $T13[ebp], eax

; 3848 :         return size() == 0;

  00012	83 7d d0 00	 cmp	 DWORD PTR $T13[ebp], 0
  00016	75 09		 jne	 SHORT $LN12@LoadFiles
  00018	c7 45 ec 01 00
	00 00		 mov	 DWORD PTR tv186[ebp], 1
  0001f	eb 04		 jmp	 SHORT $LN13@LoadFiles
$LN12@LoadFiles:
  00021	83 65 ec 00	 and	 DWORD PTR tv186[ebp], 0
$LN13@LoadFiles:
  00025	8a 45 ec	 mov	 al, BYTE PTR tv186[ebp]
  00028	88 45 ff	 mov	 BYTE PTR $T22[ebp], al
; File D:\Metin2 Server Files\mainline\SRC_2014\Metin2Client\GameLib\ItemData.cpp

; 179  : 	if (!m_strModelFileName.empty())

  0002b	0f b6 45 ff	 movzx	 eax, BYTE PTR $T22[ebp]
  0002f	85 c0		 test	 eax, eax
  00031	75 25		 jne	 SHORT $LN5@LoadFiles
; File D:\Metin2 Server Files\mainline\SRC_2014\Metin2Client\eterBase\Singleton.h

; 27   : 		return (*ms_singleton);

  00033	a1 00 00 00 00	 mov	 eax, DWORD PTR ?ms_singleton@?$CSingleton@VCResourceManager@@@@0PAVCResourceManager@@A ; CSingleton<CResourceManager>::ms_singleton
  00038	89 45 cc	 mov	 DWORD PTR $T12[ebp], eax
; File D:\Metin2 Server Files\mainline\SRC_2014\Metin2Client\GameLib\ItemData.cpp

; 180  : 		m_pModelThing = (CGraphicThing *)CResourceManager::Instance().GetResourcePointer(m_strModelFileName.c_str());

  0003b	8b 4d f4	 mov	 ecx, DWORD PTR _this$[ebp]
  0003e	83 c1 04	 add	 ecx, 4
  00041	e8 00 00 00 00	 call	 ?c_str@?$basic_string@DU?$char_traits@D@std@@V?$allocator@D@2@@std@@QBEPBDXZ ; std::basic_string<char,std::char_traits<char>,std::allocator<char> >::c_str
  00046	50		 push	 eax
  00047	8b 4d cc	 mov	 ecx, DWORD PTR $T12[ebp]
  0004a	e8 00 00 00 00	 call	 ?GetResourcePointer@CResourceManager@@QAEPAVCResource@@PBD@Z ; CResourceManager::GetResourcePointer
  0004f	8b 4d f4	 mov	 ecx, DWORD PTR _this$[ebp]
  00052	89 81 a0 00 00
	00		 mov	 DWORD PTR [ecx+160], eax
$LN5@LoadFiles:
; File C:\Program Files (x86)\Microsoft Visual Studio\2019\Community\VC\Tools\MSVC\14.28.29333\include\xstring

; 3770 :         return _Mypair._Myval2._Mysize;

  00058	8b 45 f4	 mov	 eax, DWORD PTR _this$[ebp]
  0005b	8b 40 2c	 mov	 eax, DWORD PTR [eax+44]
  0005e	89 45 c8	 mov	 DWORD PTR $T11[ebp], eax

; 3848 :         return size() == 0;

  00061	83 7d c8 00	 cmp	 DWORD PTR $T11[ebp], 0
  00065	75 09		 jne	 SHORT $LN37@LoadFiles
  00067	c7 45 e8 01 00
	00 00		 mov	 DWORD PTR tv197[ebp], 1
  0006e	eb 04		 jmp	 SHORT $LN38@LoadFiles
$LN37@LoadFiles:
  00070	83 65 e8 00	 and	 DWORD PTR tv197[ebp], 0
$LN38@LoadFiles:
  00074	8a 45 e8	 mov	 al, BYTE PTR tv197[ebp]
  00077	88 45 fe	 mov	 BYTE PTR $T21[ebp], al
; File D:\Metin2 Server Files\mainline\SRC_2014\Metin2Client\GameLib\ItemData.cpp

; 182  : 	if (!m_strSubModelFileName.empty())

  0007a	0f b6 45 fe	 movzx	 eax, BYTE PTR $T21[ebp]
  0007e	85 c0		 test	 eax, eax
  00080	75 25		 jne	 SHORT $LN6@LoadFiles
; File D:\Metin2 Server Files\mainline\SRC_2014\Metin2Client\eterBase\Singleton.h

; 27   : 		return (*ms_singleton);

  00082	a1 00 00 00 00	 mov	 eax, DWORD PTR ?ms_singleton@?$CSingleton@VCResourceManager@@@@0PAVCResourceManager@@A ; CSingleton<CResourceManager>::ms_singleton
  00087	89 45 c4	 mov	 DWORD PTR $T10[ebp], eax
; File D:\Metin2 Server Files\mainline\SRC_2014\Metin2Client\GameLib\ItemData.cpp

; 183  : 		m_pSubModelThing = (CGraphicThing *)CResourceManager::Instance().GetResourcePointer(m_strSubModelFileName.c_str());

  0008a	8b 4d f4	 mov	 ecx, DWORD PTR _this$[ebp]
  0008d	83 c1 1c	 add	 ecx, 28			; 0000001cH
  00090	e8 00 00 00 00	 call	 ?c_str@?$basic_string@DU?$char_traits@D@std@@V?$allocator@D@2@@std@@QBEPBDXZ ; std::basic_string<char,std::char_traits<char>,std::allocator<char> >::c_str
  00095	50		 push	 eax
  00096	8b 4d c4	 mov	 ecx, DWORD PTR $T10[ebp]
  00099	e8 00 00 00 00	 call	 ?GetResourcePointer@CResourceManager@@QAEPAVCResource@@PBD@Z ; CResourceManager::GetResourcePointer
  0009e	8b 4d f4	 mov	 ecx, DWORD PTR _this$[ebp]
  000a1	89 81 a4 00 00
	00		 mov	 DWORD PTR [ecx+164], eax
$LN6@LoadFiles:
; File C:\Program Files (x86)\Microsoft Visual Studio\2019\Community\VC\Tools\MSVC\14.28.29333\include\xstring

; 3770 :         return _Mypair._Myval2._Mysize;

  000a7	8b 45 f4	 mov	 eax, DWORD PTR _this$[ebp]
  000aa	8b 40 44	 mov	 eax, DWORD PTR [eax+68]
  000ad	89 45 c0	 mov	 DWORD PTR $T9[ebp], eax

; 3848 :         return size() == 0;

  000b0	83 7d c0 00	 cmp	 DWORD PTR $T9[ebp], 0
  000b4	75 09		 jne	 SHORT $LN62@LoadFiles
  000b6	c7 45 e4 01 00
	00 00		 mov	 DWORD PTR tv202[ebp], 1
  000bd	eb 04		 jmp	 SHORT $LN63@LoadFiles
$LN62@LoadFiles:
  000bf	83 65 e4 00	 and	 DWORD PTR tv202[ebp], 0
$LN63@LoadFiles:
  000c3	8a 45 e4	 mov	 al, BYTE PTR tv202[ebp]
  000c6	88 45 fd	 mov	 BYTE PTR $T20[ebp], al
; File D:\Metin2 Server Files\mainline\SRC_2014\Metin2Client\GameLib\ItemData.cpp

; 185  : 	if (!m_strDropModelFileName.empty())

  000c9	0f b6 45 fd	 movzx	 eax, BYTE PTR $T20[ebp]
  000cd	85 c0		 test	 eax, eax
  000cf	75 25		 jne	 SHORT $LN7@LoadFiles
; File D:\Metin2 Server Files\mainline\SRC_2014\Metin2Client\eterBase\Singleton.h

; 27   : 		return (*ms_singleton);

  000d1	a1 00 00 00 00	 mov	 eax, DWORD PTR ?ms_singleton@?$CSingleton@VCResourceManager@@@@0PAVCResourceManager@@A ; CSingleton<CResourceManager>::ms_singleton
  000d6	89 45 bc	 mov	 DWORD PTR $T8[ebp], eax
; File D:\Metin2 Server Files\mainline\SRC_2014\Metin2Client\GameLib\ItemData.cpp

; 186  : 		m_pDropModelThing = (CGraphicThing *)CResourceManager::Instance().GetResourcePointer(m_strDropModelFileName.c_str());

  000d9	8b 4d f4	 mov	 ecx, DWORD PTR _this$[ebp]
  000dc	83 c1 34	 add	 ecx, 52			; 00000034H
  000df	e8 00 00 00 00	 call	 ?c_str@?$basic_string@DU?$char_traits@D@std@@V?$allocator@D@2@@std@@QBEPBDXZ ; std::basic_string<char,std::char_traits<char>,std::allocator<char> >::c_str
  000e4	50		 push	 eax
  000e5	8b 4d bc	 mov	 ecx, DWORD PTR $T8[ebp]
  000e8	e8 00 00 00 00	 call	 ?GetResourcePointer@CResourceManager@@QAEPAVCResource@@PBD@Z ; CResourceManager::GetResourcePointer
  000ed	8b 4d f4	 mov	 ecx, DWORD PTR _this$[ebp]
  000f0	89 81 a8 00 00
	00		 mov	 DWORD PTR [ecx+168], eax
$LN7@LoadFiles:
; File C:\Program Files (x86)\Microsoft Visual Studio\2019\Community\VC\Tools\MSVC\14.28.29333\include\vector

; 1478 :         auto& _My_data = _Mypair._Myval2;

  000f6	8b 45 f4	 mov	 eax, DWORD PTR _this$[ebp]
  000f9	05 94 00 00 00	 add	 eax, 148		; 00000094H
  000fe	89 45 e0	 mov	 DWORD PTR __My_data$16[ebp], eax

; 1479 :         return _My_data._Myfirst == _My_data._Mylast;

  00101	8b 45 e0	 mov	 eax, DWORD PTR __My_data$16[ebp]
  00104	8b 4d e0	 mov	 ecx, DWORD PTR __My_data$16[ebp]
  00107	8b 00		 mov	 eax, DWORD PTR [eax]
  00109	3b 41 04	 cmp	 eax, DWORD PTR [ecx+4]
  0010c	75 09		 jne	 SHORT $LN87@LoadFiles
  0010e	c7 45 dc 01 00
	00 00		 mov	 DWORD PTR tv221[ebp], 1
  00115	eb 04		 jmp	 SHORT $LN88@LoadFiles
$LN87@LoadFiles:
  00117	83 65 dc 00	 and	 DWORD PTR tv221[ebp], 0
$LN88@LoadFiles:
  0011b	8a 45 dc	 mov	 al, BYTE PTR tv221[ebp]
  0011e	88 45 fc	 mov	 BYTE PTR $T19[ebp], al
; File D:\Metin2 Server Files\mainline\SRC_2014\Metin2Client\GameLib\ItemData.cpp

; 189  : 	if (!m_strLODModelFileNameVector.empty())

  00121	0f b6 45 fc	 movzx	 eax, BYTE PTR $T19[ebp]
  00125	85 c0		 test	 eax, eax
  00127	0f 85 c6 00 00
	00		 jne	 $LN1@LoadFiles

; 190  : 	{
; 191  : 		m_pLODModelThingVector.clear();

  0012d	8b 4d f4	 mov	 ecx, DWORD PTR _this$[ebp]
  00130	81 c1 b0 00 00
	00		 add	 ecx, 176		; 000000b0H
  00136	e8 00 00 00 00	 call	 ?clear@?$vector@PAVCGraphicThing@@V?$allocator@PAVCGraphicThing@@@std@@@std@@QAEXXZ ; std::vector<CGraphicThing *,std::allocator<CGraphicThing *> >::clear
; File C:\Program Files (x86)\Microsoft Visual Studio\2019\Community\VC\Tools\MSVC\14.28.29333\include\vector

; 1483 :         auto& _My_data = _Mypair._Myval2;

  0013b	8b 45 f4	 mov	 eax, DWORD PTR _this$[ebp]
  0013e	05 94 00 00 00	 add	 eax, 148		; 00000094H
  00143	89 45 d8	 mov	 DWORD PTR __My_data$15[ebp], eax

; 1484 :         return static_cast<size_type>(_My_data._Mylast - _My_data._Myfirst);

  00146	8b 45 d8	 mov	 eax, DWORD PTR __My_data$15[ebp]
  00149	8b 4d d8	 mov	 ecx, DWORD PTR __My_data$15[ebp]
  0014c	8b 40 04	 mov	 eax, DWORD PTR [eax+4]
  0014f	2b 01		 sub	 eax, DWORD PTR [ecx]
  00151	99		 cdq
  00152	6a 18		 push	 24			; 00000018H
  00154	59		 pop	 ecx
  00155	f7 f9		 idiv	 ecx
  00157	89 45 b8	 mov	 DWORD PTR $T7[ebp], eax

; 1242 :         _Resize(_Newsize, _Value_init_tag{});

  0015a	8d 45 fb	 lea	 eax, DWORD PTR $T18[ebp]
  0015d	50		 push	 eax
  0015e	ff 75 b8	 push	 DWORD PTR $T7[ebp]
; File D:\Metin2 Server Files\mainline\SRC_2014\Metin2Client\GameLib\ItemData.cpp

; 192  : 		m_pLODModelThingVector.resize(m_strLODModelFileNameVector.size());

  00161	8b 4d f4	 mov	 ecx, DWORD PTR _this$[ebp]
  00164	81 c1 b0 00 00
	00		 add	 ecx, 176		; 000000b0H
; File C:\Program Files (x86)\Microsoft Visual Studio\2019\Community\VC\Tools\MSVC\14.28.29333\include\vector

; 1242 :         _Resize(_Newsize, _Value_init_tag{});

  0016a	e8 00 00 00 00	 call	 ??$_Resize@U_Value_init_tag@std@@@?$vector@PAVCGraphicThing@@V?$allocator@PAVCGraphicThing@@@std@@@std@@AAEXIABU_Value_init_tag@1@@Z ; std::vector<CGraphicThing *,std::allocator<CGraphicThing *> >::_Resize<std::_Value_init_tag>
; File D:\Metin2 Server Files\mainline\SRC_2014\Metin2Client\GameLib\ItemData.cpp

; 194  : 		for (DWORD i = 0; i < m_strLODModelFileNameVector.size(); ++i)

  0016f	83 65 f0 00	 and	 DWORD PTR _i$17[ebp], 0
  00173	eb 07		 jmp	 SHORT $LN4@LoadFiles
$LN2@LoadFiles:
  00175	8b 45 f0	 mov	 eax, DWORD PTR _i$17[ebp]
  00178	40		 inc	 eax
  00179	89 45 f0	 mov	 DWORD PTR _i$17[ebp], eax
$LN4@LoadFiles:
; File C:\Program Files (x86)\Microsoft Visual Studio\2019\Community\VC\Tools\MSVC\14.28.29333\include\vector

; 1483 :         auto& _My_data = _Mypair._Myval2;

  0017c	8b 45 f4	 mov	 eax, DWORD PTR _this$[ebp]
  0017f	05 94 00 00 00	 add	 eax, 148		; 00000094H
  00184	89 45 d4	 mov	 DWORD PTR __My_data$14[ebp], eax

; 1484 :         return static_cast<size_type>(_My_data._Mylast - _My_data._Myfirst);

  00187	8b 45 d4	 mov	 eax, DWORD PTR __My_data$14[ebp]
  0018a	8b 4d d4	 mov	 ecx, DWORD PTR __My_data$14[ebp]
  0018d	8b 40 04	 mov	 eax, DWORD PTR [eax+4]
  00190	2b 01		 sub	 eax, DWORD PTR [ecx]
  00192	99		 cdq
  00193	6a 18		 push	 24			; 00000018H
  00195	59		 pop	 ecx
  00196	f7 f9		 idiv	 ecx
  00198	89 45 b4	 mov	 DWORD PTR $T6[ebp], eax
; File D:\Metin2 Server Files\mainline\SRC_2014\Metin2Client\GameLib\ItemData.cpp

; 194  : 		for (DWORD i = 0; i < m_strLODModelFileNameVector.size(); ++i)

  0019b	8b 45 f0	 mov	 eax, DWORD PTR _i$17[ebp]
  0019e	3b 45 b4	 cmp	 eax, DWORD PTR $T6[ebp]
  001a1	73 50		 jae	 SHORT $LN1@LoadFiles
; File C:\Program Files (x86)\Microsoft Visual Studio\2019\Community\VC\Tools\MSVC\14.28.29333\include\vector

; 1498 :         auto& _My_data = _Mypair._Myval2;

  001a3	8b 45 f4	 mov	 eax, DWORD PTR _this$[ebp]
  001a6	05 94 00 00 00	 add	 eax, 148		; 00000094H
  001ab	89 45 b0	 mov	 DWORD PTR __My_data$5[ebp], eax

; 1499 : #if _CONTAINER_DEBUG_LEVEL > 0
; 1500 :         _STL_VERIFY(
; 1501 :             _Pos < static_cast<size_type>(_My_data._Mylast - _My_data._Myfirst), "vector subscript out of range");
; 1502 : #endif // _CONTAINER_DEBUG_LEVEL > 0
; 1503 : 
; 1504 :         return _My_data._Myfirst[_Pos];

  001ae	6b 45 f0 18	 imul	 eax, DWORD PTR _i$17[ebp], 24
  001b2	8b 4d b0	 mov	 ecx, DWORD PTR __My_data$5[ebp]
  001b5	03 01		 add	 eax, DWORD PTR [ecx]
  001b7	89 45 a8	 mov	 DWORD PTR _c_rstrLODModelFileName$3[ebp], eax
; File D:\Metin2 Server Files\mainline\SRC_2014\Metin2Client\eterBase\Singleton.h

; 27   : 		return (*ms_singleton);

  001ba	a1 00 00 00 00	 mov	 eax, DWORD PTR ?ms_singleton@?$CSingleton@VCResourceManager@@@@0PAVCResourceManager@@A ; CSingleton<CResourceManager>::ms_singleton
  001bf	89 45 a4	 mov	 DWORD PTR $T2[ebp], eax
; File C:\Program Files (x86)\Microsoft Visual Studio\2019\Community\VC\Tools\MSVC\14.28.29333\include\vector

; 1498 :         auto& _My_data = _Mypair._Myval2;

  001c2	8b 45 f4	 mov	 eax, DWORD PTR _this$[ebp]
  001c5	05 b0 00 00 00	 add	 eax, 176		; 000000b0H
  001ca	89 45 ac	 mov	 DWORD PTR __My_data$4[ebp], eax

; 1499 : #if _CONTAINER_DEBUG_LEVEL > 0
; 1500 :         _STL_VERIFY(
; 1501 :             _Pos < static_cast<size_type>(_My_data._Mylast - _My_data._Myfirst), "vector subscript out of range");
; 1502 : #endif // _CONTAINER_DEBUG_LEVEL > 0
; 1503 : 
; 1504 :         return _My_data._Myfirst[_Pos];

  001cd	8b 45 ac	 mov	 eax, DWORD PTR __My_data$4[ebp]
  001d0	8b 00		 mov	 eax, DWORD PTR [eax]
  001d2	8b 4d f0	 mov	 ecx, DWORD PTR _i$17[ebp]
  001d5	8d 04 88	 lea	 eax, DWORD PTR [eax+ecx*4]
  001d8	89 45 a0	 mov	 DWORD PTR $T1[ebp], eax
; File D:\Metin2 Server Files\mainline\SRC_2014\Metin2Client\GameLib\ItemData.cpp

; 197  : 			m_pLODModelThingVector[i] = (CGraphicThing *)CResourceManager::Instance().GetResourcePointer(c_rstrLODModelFileName.c_str());

  001db	8b 4d a8	 mov	 ecx, DWORD PTR _c_rstrLODModelFileName$3[ebp]
  001de	e8 00 00 00 00	 call	 ?c_str@?$basic_string@DU?$char_traits@D@std@@V?$allocator@D@2@@std@@QBEPBDXZ ; std::basic_string<char,std::char_traits<char>,std::allocator<char> >::c_str
  001e3	50		 push	 eax
  001e4	8b 4d a4	 mov	 ecx, DWORD PTR $T2[ebp]
  001e7	e8 00 00 00 00	 call	 ?GetResourcePointer@CResourceManager@@QAEPAVCResource@@PBD@Z ; CResourceManager::GetResourcePointer
  001ec	8b 4d a0	 mov	 ecx, DWORD PTR $T1[ebp]
  001ef	89 01		 mov	 DWORD PTR [ecx], eax

; 198  : 		}

  001f1	eb 82		 jmp	 SHORT $LN2@LoadFiles
$LN1@LoadFiles:

; 199  : 	}
; 200  : }

  001f3	c9		 leave
  001f4	c3		 ret	 0
?__LoadFiles@CItemData@@IAEXXZ ENDP			; CItemData::__LoadFiles
_TEXT	ENDS
; Function compile flags: /Odspy
; File D:\Metin2 Server Files\mainline\SRC_2014\Metin2Client\GameLib\ItemData.cpp
;	COMDAT ?SetItemTableData@CItemData@@QAEXPAUSItemTable@1@@Z
_TEXT	SEGMENT
_this$ = -4						; size = 4
_pItemTable$ = 8					; size = 4
?SetItemTableData@CItemData@@QAEXPAUSItemTable@1@@Z PROC ; CItemData::SetItemTableData, COMDAT
; _this$ = ecx

; 214  : {

  00000	55		 push	 ebp
  00001	8b ec		 mov	 ebp, esp
  00003	51		 push	 ecx
  00004	89 4d fc	 mov	 DWORD PTR _this$[ebp], ecx

; 215  : 	memcpy(&m_ItemTable, pItemTable, sizeof(TItemTable));

  00007	68 9c 00 00 00	 push	 156			; 0000009cH
  0000c	ff 75 08	 push	 DWORD PTR _pItemTable$[ebp]
  0000f	8b 45 fc	 mov	 eax, DWORD PTR _this$[ebp]
  00012	05 cc 00 00 00	 add	 eax, 204		; 000000ccH
  00017	50		 push	 eax
  00018	e8 00 00 00 00	 call	 _memcpy
  0001d	83 c4 0c	 add	 esp, 12			; 0000000cH

; 216  : }

  00020	c9		 leave
  00021	c2 04 00	 ret	 4
?SetItemTableData@CItemData@@QAEXPAUSItemTable@1@@Z ENDP ; CItemData::SetItemTableData
_TEXT	ENDS
; Function compile flags: /Odspy
; File D:\Metin2 Server Files\mainline\SRC_2014\Metin2Client\GameLib\ItemData.cpp
; File C:\Program Files (x86)\Microsoft Visual Studio\2019\Community\VC\Tools\MSVC\14.28.29333\include\xstring
; File C:\Program Files (x86)\Microsoft Visual Studio\2019\Community\VC\Tools\MSVC\14.28.29333\include\xmemory
; File C:\Program Files (x86)\Microsoft Visual Studio\2019\Community\VC\Tools\MSVC\14.28.29333\include\xstring
; File D:\Metin2 Server Files\mainline\SRC_2014\Metin2Client\GameLib\ItemData.cpp
; File C:\Program Files (x86)\Microsoft Visual Studio\2019\Community\VC\Tools\MSVC\14.28.29333\include\xstring
; File C:\Program Files (x86)\Microsoft Visual Studio\2019\Community\VC\Tools\MSVC\14.28.29333\include\xmemory
; File C:\Program Files (x86)\Microsoft Visual Studio\2019\Community\VC\Tools\MSVC\14.28.29333\include\xstring
; File D:\Metin2 Server Files\mainline\SRC_2014\Metin2Client\GameLib\ItemData.cpp
; File C:\Program Files (x86)\Microsoft Visual Studio\2019\Community\VC\Tools\MSVC\14.28.29333\include\xstring
; File D:\Metin2 Server Files\mainline\SRC_2014\Metin2Client\GameLib\ItemData.cpp
; File C:\Program Files (x86)\Microsoft Visual Studio\2019\Community\VC\Tools\MSVC\14.28.29333\include\xstring
; File C:\Program Files (x86)\Microsoft Visual Studio\2019\Community\VC\Tools\MSVC\14.28.29333\include\xmemory
; File C:\Program Files (x86)\Microsoft Visual Studio\2019\Community\VC\Tools\MSVC\14.28.29333\include\xstring
; File D:\Metin2 Server Files\mainline\SRC_2014\Metin2Client\GameLib\ItemData.cpp
; File C:\Program Files (x86)\Microsoft Visual Studio\2019\Community\VC\Tools\MSVC\14.28.29333\include\xstring
; File C:\Program Files (x86)\Microsoft Visual Studio\2019\Community\VC\Tools\MSVC\14.28.29333\include\xmemory
; File C:\Program Files (x86)\Microsoft Visual Studio\2019\Community\VC\Tools\MSVC\14.28.29333\include\xstring
; File D:\Metin2 Server Files\mainline\SRC_2014\Metin2Client\GameLib\ItemData.cpp
; File C:\Program Files (x86)\Microsoft Visual Studio\2019\Community\VC\Tools\MSVC\14.28.29333\include\xstring
; File C:\Program Files (x86)\Microsoft Visual Studio\2019\Community\VC\Tools\MSVC\14.28.29333\include\xmemory
; File C:\Program Files (x86)\Microsoft Visual Studio\2019\Community\VC\Tools\MSVC\14.28.29333\include\xstring
; File D:\Metin2 Server Files\mainline\SRC_2014\Metin2Client\GameLib\ItemData.cpp
; File C:\Program Files (x86)\Microsoft Visual Studio\2019\Community\VC\Tools\MSVC\14.28.29333\include\xstring
; File C:\Program Files (x86)\Microsoft Visual Studio\2019\Community\VC\Tools\MSVC\14.28.29333\include\xmemory
; File C:\Program Files (x86)\Microsoft Visual Studio\2019\Community\VC\Tools\MSVC\14.28.29333\include\xstring
; File D:\Metin2 Server Files\mainline\SRC_2014\Metin2Client\GameLib\ItemData.cpp
; File C:\Program Files (x86)\Microsoft Visual Studio\2019\Community\VC\Tools\MSVC\14.28.29333\include\xstring
; File C:\Program Files (x86)\Microsoft Visual Studio\2019\Community\VC\Tools\MSVC\14.28.29333\include\xmemory
; File C:\Program Files (x86)\Microsoft Visual Studio\2019\Community\VC\Tools\MSVC\14.28.29333\include\xstring
; File D:\Metin2 Server Files\mainline\SRC_2014\Metin2Client\GameLib\ItemData.cpp
; File C:\Program Files (x86)\Microsoft Visual Studio\2019\Community\VC\Tools\MSVC\14.28.29333\include\xstring
; File C:\Program Files (x86)\Microsoft Visual Studio\2019\Community\VC\Tools\MSVC\14.28.29333\include\xmemory
; File C:\Program Files (x86)\Microsoft Visual Studio\2019\Community\VC\Tools\MSVC\14.28.29333\include\xstring
; File D:\Metin2 Server Files\mainline\SRC_2014\Metin2Client\GameLib\ItemData.cpp
; File C:\Program Files (x86)\Microsoft Visual Studio\2019\Community\VC\Tools\MSVC\14.28.29333\include\xstring
; File D:\Metin2 Server Files\mainline\SRC_2014\Metin2Client\GameLib\ItemData.cpp
;	COMDAT ?SetDefaultItemData@CItemData@@QAEXPBD0@Z
_TEXT	SEGMENT
$T1 = -68						; size = 4
$T2 = -64						; size = 4
$T3 = -60						; size = 4
$T4 = -56						; size = 4
$T5 = -52						; size = 4
$T6 = -48						; size = 4
$T7 = -44						; size = 4
$T8 = -40						; size = 4
$T9 = -36						; size = 4
$T10 = -32						; size = 4
$T11 = -28						; size = 4
$T12 = -24						; size = 4
$T13 = -20						; size = 4
$T14 = -16						; size = 4
$T15 = -12						; size = 4
$T16 = -8						; size = 4
_this$ = -4						; size = 4
_c_szIconFileName$ = 8					; size = 4
_c_szModelFileName$ = 12				; size = 4
?SetDefaultItemData@CItemData@@QAEXPBD0@Z PROC		; CItemData::SetDefaultItemData, COMDAT
; _this$ = ecx

; 155  : {

  00000	55		 push	 ebp
  00001	8b ec		 mov	 ebp, esp
  00003	83 ec 44	 sub	 esp, 68			; 00000044H
  00006	89 4d fc	 mov	 DWORD PTR _this$[ebp], ecx

; 156  : 	if(c_szModelFileName)

  00009	83 7d 0c 00	 cmp	 DWORD PTR _c_szModelFileName$[ebp], 0
  0000d	74 48		 je	 SHORT $LN2@SetDefault
; File C:\Program Files (x86)\Microsoft Visual Studio\2019\Community\VC\Tools\MSVC\14.28.29333\include\xstring

; 389  :         return _CSTD strlen(reinterpret_cast<const char*>(_First));

  0000f	ff 75 0c	 push	 DWORD PTR _c_szModelFileName$[ebp]
  00012	e8 00 00 00 00	 call	 _strlen
  00017	59		 pop	 ecx
  00018	89 45 f8	 mov	 DWORD PTR $T16[ebp], eax
; File C:\Program Files (x86)\Microsoft Visual Studio\2019\Community\VC\Tools\MSVC\14.28.29333\include\xmemory

; 997  :     return _Len;

  0001b	8b 45 f8	 mov	 eax, DWORD PTR $T16[ebp]
  0001e	89 45 f4	 mov	 DWORD PTR $T15[ebp], eax
; File C:\Program Files (x86)\Microsoft Visual Studio\2019\Community\VC\Tools\MSVC\14.28.29333\include\xstring

; 3062 :         return assign(_Ptr, _Convert_size<size_type>(_Traits::length(_Ptr)));

  00021	ff 75 f4	 push	 DWORD PTR $T15[ebp]
  00024	ff 75 0c	 push	 DWORD PTR _c_szModelFileName$[ebp]
; File D:\Metin2 Server Files\mainline\SRC_2014\Metin2Client\GameLib\ItemData.cpp

; 158  : 		m_strModelFileName = c_szModelFileName;

  00027	8b 4d fc	 mov	 ecx, DWORD PTR _this$[ebp]
  0002a	83 c1 04	 add	 ecx, 4
; File C:\Program Files (x86)\Microsoft Visual Studio\2019\Community\VC\Tools\MSVC\14.28.29333\include\xstring

; 3062 :         return assign(_Ptr, _Convert_size<size_type>(_Traits::length(_Ptr)));

  0002d	e8 00 00 00 00	 call	 ?assign@?$basic_string@DU?$char_traits@D@std@@V?$allocator@D@2@@std@@QAEAAV12@QBDI@Z ; std::basic_string<char,std::char_traits<char>,std::allocator<char> >::assign

; 389  :         return _CSTD strlen(reinterpret_cast<const char*>(_First));

  00032	ff 75 0c	 push	 DWORD PTR _c_szModelFileName$[ebp]
  00035	e8 00 00 00 00	 call	 _strlen
  0003a	59		 pop	 ecx
  0003b	89 45 f0	 mov	 DWORD PTR $T14[ebp], eax
; File C:\Program Files (x86)\Microsoft Visual Studio\2019\Community\VC\Tools\MSVC\14.28.29333\include\xmemory

; 997  :     return _Len;

  0003e	8b 45 f0	 mov	 eax, DWORD PTR $T14[ebp]
  00041	89 45 ec	 mov	 DWORD PTR $T13[ebp], eax
; File C:\Program Files (x86)\Microsoft Visual Studio\2019\Community\VC\Tools\MSVC\14.28.29333\include\xstring

; 3062 :         return assign(_Ptr, _Convert_size<size_type>(_Traits::length(_Ptr)));

  00044	ff 75 ec	 push	 DWORD PTR $T13[ebp]
  00047	ff 75 0c	 push	 DWORD PTR _c_szModelFileName$[ebp]
; File D:\Metin2 Server Files\mainline\SRC_2014\Metin2Client\GameLib\ItemData.cpp

; 159  : 		m_strDropModelFileName = c_szModelFileName;

  0004a	8b 4d fc	 mov	 ecx, DWORD PTR _this$[ebp]
  0004d	83 c1 34	 add	 ecx, 52			; 00000034H
; File C:\Program Files (x86)\Microsoft Visual Studio\2019\Community\VC\Tools\MSVC\14.28.29333\include\xstring

; 3062 :         return assign(_Ptr, _Convert_size<size_type>(_Traits::length(_Ptr)));

  00050	e8 00 00 00 00	 call	 ?assign@?$basic_string@DU?$char_traits@D@std@@V?$allocator@D@2@@std@@QAEAAV12@QBDI@Z ; std::basic_string<char,std::char_traits<char>,std::allocator<char> >::assign
; File D:\Metin2 Server Files\mainline\SRC_2014\Metin2Client\GameLib\ItemData.cpp

; 160  : 	}

  00055	eb 4e		 jmp	 SHORT $LN3@SetDefault
$LN2@SetDefault:
; File C:\Program Files (x86)\Microsoft Visual Studio\2019\Community\VC\Tools\MSVC\14.28.29333\include\xstring

; 389  :         return _CSTD strlen(reinterpret_cast<const char*>(_First));

  00057	68 00 00 00 00	 push	 OFFSET ??_C@_00CNPNBAHC@@
  0005c	e8 00 00 00 00	 call	 _strlen
  00061	59		 pop	 ecx
  00062	89 45 e8	 mov	 DWORD PTR $T12[ebp], eax
; File C:\Program Files (x86)\Microsoft Visual Studio\2019\Community\VC\Tools\MSVC\14.28.29333\include\xmemory

; 997  :     return _Len;

  00065	8b 45 e8	 mov	 eax, DWORD PTR $T12[ebp]
  00068	89 45 e4	 mov	 DWORD PTR $T11[ebp], eax
; File C:\Program Files (x86)\Microsoft Visual Studio\2019\Community\VC\Tools\MSVC\14.28.29333\include\xstring

; 3062 :         return assign(_Ptr, _Convert_size<size_type>(_Traits::length(_Ptr)));

  0006b	ff 75 e4	 push	 DWORD PTR $T11[ebp]
  0006e	68 00 00 00 00	 push	 OFFSET ??_C@_00CNPNBAHC@@
; File D:\Metin2 Server Files\mainline\SRC_2014\Metin2Client\GameLib\ItemData.cpp

; 163  : 		m_strModelFileName = "";

  00073	8b 4d fc	 mov	 ecx, DWORD PTR _this$[ebp]
  00076	83 c1 04	 add	 ecx, 4
; File C:\Program Files (x86)\Microsoft Visual Studio\2019\Community\VC\Tools\MSVC\14.28.29333\include\xstring

; 3062 :         return assign(_Ptr, _Convert_size<size_type>(_Traits::length(_Ptr)));

  00079	e8 00 00 00 00	 call	 ?assign@?$basic_string@DU?$char_traits@D@std@@V?$allocator@D@2@@std@@QAEAAV12@QBDI@Z ; std::basic_string<char,std::char_traits<char>,std::allocator<char> >::assign

; 389  :         return _CSTD strlen(reinterpret_cast<const char*>(_First));

  0007e	68 00 00 00 00	 push	 OFFSET ??_C@_0CD@GGDHOLJD@d?3?1ymir?5work?1item?1etc?1item_bag?4@
  00083	e8 00 00 00 00	 call	 _strlen
  00088	59		 pop	 ecx
  00089	89 45 e0	 mov	 DWORD PTR $T10[ebp], eax
; File C:\Program Files (x86)\Microsoft Visual Studio\2019\Community\VC\Tools\MSVC\14.28.29333\include\xmemory

; 997  :     return _Len;

  0008c	8b 45 e0	 mov	 eax, DWORD PTR $T10[ebp]
  0008f	89 45 dc	 mov	 DWORD PTR $T9[ebp], eax
; File C:\Program Files (x86)\Microsoft Visual Studio\2019\Community\VC\Tools\MSVC\14.28.29333\include\xstring

; 3062 :         return assign(_Ptr, _Convert_size<size_type>(_Traits::length(_Ptr)));

  00092	ff 75 dc	 push	 DWORD PTR $T9[ebp]
  00095	68 00 00 00 00	 push	 OFFSET ??_C@_0CD@GGDHOLJD@d?3?1ymir?5work?1item?1etc?1item_bag?4@
; File D:\Metin2 Server Files\mainline\SRC_2014\Metin2Client\GameLib\ItemData.cpp

; 164  : 		m_strDropModelFileName = "d:/ymir work/item/etc/item_bag.gr2";

  0009a	8b 4d fc	 mov	 ecx, DWORD PTR _this$[ebp]
  0009d	83 c1 34	 add	 ecx, 52			; 00000034H
; File C:\Program Files (x86)\Microsoft Visual Studio\2019\Community\VC\Tools\MSVC\14.28.29333\include\xstring

; 3062 :         return assign(_Ptr, _Convert_size<size_type>(_Traits::length(_Ptr)));

  000a0	e8 00 00 00 00	 call	 ?assign@?$basic_string@DU?$char_traits@D@std@@V?$allocator@D@2@@std@@QAEAAV12@QBDI@Z ; std::basic_string<char,std::char_traits<char>,std::allocator<char> >::assign
$LN3@SetDefault:

; 389  :         return _CSTD strlen(reinterpret_cast<const char*>(_First));

  000a5	ff 75 08	 push	 DWORD PTR _c_szIconFileName$[ebp]
  000a8	e8 00 00 00 00	 call	 _strlen
  000ad	59		 pop	 ecx
  000ae	89 45 d8	 mov	 DWORD PTR $T8[ebp], eax
; File C:\Program Files (x86)\Microsoft Visual Studio\2019\Community\VC\Tools\MSVC\14.28.29333\include\xmemory

; 997  :     return _Len;

  000b1	8b 45 d8	 mov	 eax, DWORD PTR $T8[ebp]
  000b4	89 45 d4	 mov	 DWORD PTR $T7[ebp], eax
; File C:\Program Files (x86)\Microsoft Visual Studio\2019\Community\VC\Tools\MSVC\14.28.29333\include\xstring

; 3062 :         return assign(_Ptr, _Convert_size<size_type>(_Traits::length(_Ptr)));

  000b7	ff 75 d4	 push	 DWORD PTR $T7[ebp]
  000ba	ff 75 08	 push	 DWORD PTR _c_szIconFileName$[ebp]
; File D:\Metin2 Server Files\mainline\SRC_2014\Metin2Client\GameLib\ItemData.cpp

; 166  : 	m_strIconFileName = c_szIconFileName;

  000bd	8b 4d fc	 mov	 ecx, DWORD PTR _this$[ebp]
  000c0	83 c1 4c	 add	 ecx, 76			; 0000004cH
; File C:\Program Files (x86)\Microsoft Visual Studio\2019\Community\VC\Tools\MSVC\14.28.29333\include\xstring

; 3062 :         return assign(_Ptr, _Convert_size<size_type>(_Traits::length(_Ptr)));

  000c3	e8 00 00 00 00	 call	 ?assign@?$basic_string@DU?$char_traits@D@std@@V?$allocator@D@2@@std@@QAEAAV12@QBDI@Z ; std::basic_string<char,std::char_traits<char>,std::allocator<char> >::assign

; 389  :         return _CSTD strlen(reinterpret_cast<const char*>(_First));

  000c8	68 00 00 00 00	 push	 OFFSET ??_C@_00CNPNBAHC@@
  000cd	e8 00 00 00 00	 call	 _strlen
  000d2	59		 pop	 ecx
  000d3	89 45 d0	 mov	 DWORD PTR $T6[ebp], eax
; File C:\Program Files (x86)\Microsoft Visual Studio\2019\Community\VC\Tools\MSVC\14.28.29333\include\xmemory

; 997  :     return _Len;

  000d6	8b 45 d0	 mov	 eax, DWORD PTR $T6[ebp]
  000d9	89 45 cc	 mov	 DWORD PTR $T5[ebp], eax
; File C:\Program Files (x86)\Microsoft Visual Studio\2019\Community\VC\Tools\MSVC\14.28.29333\include\xstring

; 3062 :         return assign(_Ptr, _Convert_size<size_type>(_Traits::length(_Ptr)));

  000dc	ff 75 cc	 push	 DWORD PTR $T5[ebp]
  000df	68 00 00 00 00	 push	 OFFSET ??_C@_00CNPNBAHC@@
; File D:\Metin2 Server Files\mainline\SRC_2014\Metin2Client\GameLib\ItemData.cpp

; 168  : 	m_strSubModelFileName = "";

  000e4	8b 4d fc	 mov	 ecx, DWORD PTR _this$[ebp]
  000e7	83 c1 1c	 add	 ecx, 28			; 0000001cH
; File C:\Program Files (x86)\Microsoft Visual Studio\2019\Community\VC\Tools\MSVC\14.28.29333\include\xstring

; 3062 :         return assign(_Ptr, _Convert_size<size_type>(_Traits::length(_Ptr)));

  000ea	e8 00 00 00 00	 call	 ?assign@?$basic_string@DU?$char_traits@D@std@@V?$allocator@D@2@@std@@QAEAAV12@QBDI@Z ; std::basic_string<char,std::char_traits<char>,std::allocator<char> >::assign

; 389  :         return _CSTD strlen(reinterpret_cast<const char*>(_First));

  000ef	68 00 00 00 00	 push	 OFFSET ??_C@_00CNPNBAHC@@
  000f4	e8 00 00 00 00	 call	 _strlen
  000f9	59		 pop	 ecx
  000fa	89 45 c8	 mov	 DWORD PTR $T4[ebp], eax
; File C:\Program Files (x86)\Microsoft Visual Studio\2019\Community\VC\Tools\MSVC\14.28.29333\include\xmemory

; 997  :     return _Len;

  000fd	8b 45 c8	 mov	 eax, DWORD PTR $T4[ebp]
  00100	89 45 c4	 mov	 DWORD PTR $T3[ebp], eax
; File C:\Program Files (x86)\Microsoft Visual Studio\2019\Community\VC\Tools\MSVC\14.28.29333\include\xstring

; 3062 :         return assign(_Ptr, _Convert_size<size_type>(_Traits::length(_Ptr)));

  00103	ff 75 c4	 push	 DWORD PTR $T3[ebp]
  00106	68 00 00 00 00	 push	 OFFSET ??_C@_00CNPNBAHC@@
; File D:\Metin2 Server Files\mainline\SRC_2014\Metin2Client\GameLib\ItemData.cpp

; 169  : 	m_strDescription = "";

  0010b	8b 4d fc	 mov	 ecx, DWORD PTR _this$[ebp]
  0010e	83 c1 64	 add	 ecx, 100		; 00000064H
; File C:\Program Files (x86)\Microsoft Visual Studio\2019\Community\VC\Tools\MSVC\14.28.29333\include\xstring

; 3062 :         return assign(_Ptr, _Convert_size<size_type>(_Traits::length(_Ptr)));

  00111	e8 00 00 00 00	 call	 ?assign@?$basic_string@DU?$char_traits@D@std@@V?$allocator@D@2@@std@@QAEAAV12@QBDI@Z ; std::basic_string<char,std::char_traits<char>,std::allocator<char> >::assign

; 389  :         return _CSTD strlen(reinterpret_cast<const char*>(_First));

  00116	68 00 00 00 00	 push	 OFFSET ??_C@_00CNPNBAHC@@
  0011b	e8 00 00 00 00	 call	 _strlen
  00120	59		 pop	 ecx
  00121	89 45 c0	 mov	 DWORD PTR $T2[ebp], eax
; File C:\Program Files (x86)\Microsoft Visual Studio\2019\Community\VC\Tools\MSVC\14.28.29333\include\xmemory

; 997  :     return _Len;

  00124	8b 45 c0	 mov	 eax, DWORD PTR $T2[ebp]
  00127	89 45 bc	 mov	 DWORD PTR $T1[ebp], eax
; File C:\Program Files (x86)\Microsoft Visual Studio\2019\Community\VC\Tools\MSVC\14.28.29333\include\xstring

; 3062 :         return assign(_Ptr, _Convert_size<size_type>(_Traits::length(_Ptr)));

  0012a	ff 75 bc	 push	 DWORD PTR $T1[ebp]
  0012d	68 00 00 00 00	 push	 OFFSET ??_C@_00CNPNBAHC@@
; File D:\Metin2 Server Files\mainline\SRC_2014\Metin2Client\GameLib\ItemData.cpp

; 170  : 	m_strSummary = "";

  00132	8b 4d fc	 mov	 ecx, DWORD PTR _this$[ebp]
  00135	83 c1 7c	 add	 ecx, 124		; 0000007cH
; File C:\Program Files (x86)\Microsoft Visual Studio\2019\Community\VC\Tools\MSVC\14.28.29333\include\xstring

; 3062 :         return assign(_Ptr, _Convert_size<size_type>(_Traits::length(_Ptr)));

  00138	e8 00 00 00 00	 call	 ?assign@?$basic_string@DU?$char_traits@D@std@@V?$allocator@D@2@@std@@QAEAAV12@QBDI@Z ; std::basic_string<char,std::char_traits<char>,std::allocator<char> >::assign
; File D:\Metin2 Server Files\mainline\SRC_2014\Metin2Client\GameLib\ItemData.cpp

; 171  : 	memset(m_ItemTable.alSockets, 0, sizeof(m_ItemTable.alSockets));

  0013d	6a 0c		 push	 12			; 0000000cH
  0013f	6a 00		 push	 0
  00141	8b 45 fc	 mov	 eax, DWORD PTR _this$[ebp]
  00144	05 53 01 00 00	 add	 eax, 339		; 00000153H
  00149	50		 push	 eax
  0014a	e8 00 00 00 00	 call	 _memset
  0014f	83 c4 0c	 add	 esp, 12			; 0000000cH

; 172  : 
; 173  : 	__LoadFiles();

  00152	8b 4d fc	 mov	 ecx, DWORD PTR _this$[ebp]
  00155	e8 00 00 00 00	 call	 ?__LoadFiles@CItemData@@IAEXXZ ; CItemData::__LoadFiles

; 174  : }

  0015a	c9		 leave
  0015b	c2 08 00	 ret	 8
?SetDefaultItemData@CItemData@@QAEXPBD0@Z ENDP		; CItemData::SetDefaultItemData
_TEXT	ENDS
; Function compile flags: /Odspy
; File D:\Metin2 Server Files\mainline\SRC_2014\Metin2Client\GameLib\ItemData.cpp
;	COMDAT ?IsEquipment@CItemData@@QBEHXZ
_TEXT	SEGMENT
_this$ = -8						; size = 4
tv67 = -4						; size = 4
?IsEquipment@CItemData@@QBEHXZ PROC			; CItemData::IsEquipment, COMDAT
; _this$ = ecx

; 427  : {

  00000	55		 push	 ebp
  00001	8b ec		 mov	 ebp, esp
  00003	51		 push	 ecx
  00004	51		 push	 ecx
  00005	89 4d f8	 mov	 DWORD PTR _this$[ebp], ecx

; 428  : 	switch (GetType())

  00008	8b 4d f8	 mov	 ecx, DWORD PTR _this$[ebp]
  0000b	e8 00 00 00 00	 call	 ?GetType@CItemData@@QBEEXZ ; CItemData::GetType
  00010	88 45 fc	 mov	 BYTE PTR tv67[ebp], al
  00013	80 7d fc 00	 cmp	 BYTE PTR tv67[ebp], 0
  00017	76 0d		 jbe	 SHORT $LN2@IsEquipmen
  00019	80 7d fc 02	 cmp	 BYTE PTR tv67[ebp], 2
  0001d	76 02		 jbe	 SHORT $LN4@IsEquipmen
  0001f	eb 05		 jmp	 SHORT $LN2@IsEquipmen
$LN4@IsEquipmen:

; 429  : 	{
; 430  : 		case ITEM_TYPE_WEAPON:
; 431  : 		case ITEM_TYPE_ARMOR:
; 432  : 			return TRUE;

  00021	33 c0		 xor	 eax, eax
  00023	40		 inc	 eax
  00024	eb 02		 jmp	 SHORT $LN1@IsEquipmen
$LN2@IsEquipmen:

; 433  : 			break;
; 434  : 	}
; 435  : 
; 436  : 	return FALSE;

  00026	33 c0		 xor	 eax, eax
$LN1@IsEquipmen:

; 437  : }

  00028	c9		 leave
  00029	c3		 ret	 0
?IsEquipment@CItemData@@QBEHXZ ENDP			; CItemData::IsEquipment
_TEXT	ENDS
; Function compile flags: /Odspy
; File D:\Metin2 Server Files\mainline\SRC_2014\Metin2Client\GameLib\ItemData.cpp
;	COMDAT ?GetSpecularPowerf@CItemData@@QBEMXZ
_TEXT	SEGMENT
tv74 = -24						; size = 8
tv79 = -16						; size = 4
_uSpecularPower$ = -12					; size = 4
_this$ = -8						; size = 4
tv70 = -4						; size = 4
?GetSpecularPowerf@CItemData@@QBEMXZ PROC		; CItemData::GetSpecularPowerf, COMDAT
; _this$ = ecx

; 414  : {

  00000	55		 push	 ebp
  00001	8b ec		 mov	 ebp, esp
  00003	83 ec 18	 sub	 esp, 24			; 00000018H
  00006	89 4d f8	 mov	 DWORD PTR _this$[ebp], ecx

; 415  : 	UINT uSpecularPower=GetSpecularPoweru();

  00009	8b 4d f8	 mov	 ecx, DWORD PTR _this$[ebp]
  0000c	e8 00 00 00 00	 call	 ?GetSpecularPoweru@CItemData@@QBEIXZ ; CItemData::GetSpecularPoweru
  00011	89 45 f4	 mov	 DWORD PTR _uSpecularPower$[ebp], eax

; 416  : 
; 417  : 	return float(uSpecularPower) / 100.0f;	

  00014	8b 45 f4	 mov	 eax, DWORD PTR _uSpecularPower$[ebp]
  00017	89 45 fc	 mov	 DWORD PTR tv70[ebp], eax
  0001a	f2 0f 2a 45 fc	 cvtsi2sd xmm0, DWORD PTR tv70[ebp]
  0001f	8b 45 fc	 mov	 eax, DWORD PTR tv70[ebp]
  00022	c1 e8 1f	 shr	 eax, 31			; 0000001fH
  00025	f2 0f 58 04 c5
	00 00 00 00	 addsd	 xmm0, QWORD PTR __xmm@41f00000000000000000000000000000[eax*8]
  0002e	f2 0f 11 45 e8	 movsd	 QWORD PTR tv74[ebp], xmm0
  00033	f2 0f 5a 45 e8	 cvtsd2ss xmm0, QWORD PTR tv74[ebp]
  00038	f3 0f 5e 05 00
	00 00 00	 divss	 xmm0, DWORD PTR __real@42c80000
  00040	f3 0f 11 45 f0	 movss	 DWORD PTR tv79[ebp], xmm0
  00045	d9 45 f0	 fld	 DWORD PTR tv79[ebp]

; 418  : }

  00048	c9		 leave
  00049	c3		 ret	 0
?GetSpecularPowerf@CItemData@@QBEMXZ ENDP		; CItemData::GetSpecularPowerf
_TEXT	ENDS
; Function compile flags: /Odspy
; File D:\Metin2 Server Files\mainline\SRC_2014\Metin2Client\GameLib\ItemData.cpp
;	COMDAT ?GetSpecularPoweru@CItemData@@QBEIXZ
_TEXT	SEGMENT
_this$ = -4						; size = 4
?GetSpecularPoweru@CItemData@@QBEIXZ PROC		; CItemData::GetSpecularPoweru, COMDAT
; _this$ = ecx

; 409  : {

  00000	55		 push	 ebp
  00001	8b ec		 mov	 ebp, esp
  00003	51		 push	 ecx
  00004	89 4d fc	 mov	 DWORD PTR _this$[ebp], ecx

; 410  : 	return m_ItemTable.bSpecular;

  00007	8b 45 fc	 mov	 eax, DWORD PTR _this$[ebp]
  0000a	0f b6 80 66 01
	00 00		 movzx	 eax, BYTE PTR [eax+358]

; 411  : }

  00011	c9		 leave
  00012	c3		 ret	 0
?GetSpecularPoweru@CItemData@@QBEIXZ ENDP		; CItemData::GetSpecularPoweru
_TEXT	ENDS
; Function compile flags: /Odspy
; File D:\Metin2 Server Files\mainline\SRC_2014\Metin2Client\GameLib\ItemData.cpp
;	COMDAT ?GetIconNumber@CItemData@@QBEKXZ
_TEXT	SEGMENT
_this$ = -4						; size = 4
?GetIconNumber@CItemData@@QBEKXZ PROC			; CItemData::GetIconNumber, COMDAT
; _this$ = ecx

; 402  : {

  00000	55		 push	 ebp
  00001	8b ec		 mov	 ebp, esp
  00003	51		 push	 ecx
  00004	89 4d fc	 mov	 DWORD PTR _this$[ebp], ecx

; 403  : 	return m_ItemTable.dwVnum;

  00007	8b 45 fc	 mov	 eax, DWORD PTR _this$[ebp]
  0000a	8b 80 cc 00 00
	00		 mov	 eax, DWORD PTR [eax+204]

; 404  : //!@#
; 405  : //	return m_ItemTable.dwIconNumber;
; 406  : }

  00010	c9		 leave
  00011	c3		 ret	 0
?GetIconNumber@CItemData@@QBEKXZ ENDP			; CItemData::GetIconNumber
_TEXT	ENDS
; Function compile flags: /Odspy
; File D:\Metin2 Server Files\mainline\SRC_2014\Metin2Client\GameLib\ItemData.cpp
;	COMDAT ?GetSocketCount@CItemData@@QBEHXZ
_TEXT	SEGMENT
_this$ = -4						; size = 4
?GetSocketCount@CItemData@@QBEHXZ PROC			; CItemData::GetSocketCount, COMDAT
; _this$ = ecx

; 397  : {

  00000	55		 push	 ebp
  00001	8b ec		 mov	 ebp, esp
  00003	51		 push	 ecx
  00004	89 4d fc	 mov	 DWORD PTR _this$[ebp], ecx

; 398  : 	return m_ItemTable.bGainSocketPct;

  00007	8b 45 fc	 mov	 eax, DWORD PTR _this$[ebp]
  0000a	0f b6 80 67 01
	00 00		 movzx	 eax, BYTE PTR [eax+359]

; 399  : }

  00011	c9		 leave
  00012	c3		 ret	 0
?GetSocketCount@CItemData@@QBEHXZ ENDP			; CItemData::GetSocketCount
_TEXT	ENDS
; Function compile flags: /Odspy
; File D:\Metin2 Server Files\mainline\SRC_2014\Metin2Client\GameLib\ItemData.cpp
;	COMDAT ?SetSocket@CItemData@@QAEJEK@Z
_TEXT	SEGMENT
_this$ = -4						; size = 4
_byIndex$ = 8						; size = 1
_value$ = 12						; size = 4
?SetSocket@CItemData@@QAEJEK@Z PROC			; CItemData::SetSocket, COMDAT
; _this$ = ecx

; 371  : {

  00000	55		 push	 ebp
  00001	8b ec		 mov	 ebp, esp
  00003	51		 push	 ecx
  00004	89 4d fc	 mov	 DWORD PTR _this$[ebp], ecx

; 372  : 	if (byIndex >= ITEM_SOCKET_MAX_NUM)

  00007	0f b6 45 08	 movzx	 eax, BYTE PTR _byIndex$[ebp]
  0000b	83 f8 03	 cmp	 eax, 3
  0000e	7c 05		 jl	 SHORT $LN2@SetSocket

; 373  : 	{
; 374  : 		assert(byIndex < ITEM_SOCKET_MAX_NUM);
; 375  : 		return -1;

  00010	83 c8 ff	 or	 eax, -1
  00013	eb 14		 jmp	 SHORT $LN1@SetSocket
$LN2@SetSocket:

; 376  : 	}
; 377  : 
; 378  : 	return m_ItemTable.alSockets[byIndex] = value;

  00015	0f b6 45 08	 movzx	 eax, BYTE PTR _byIndex$[ebp]
  00019	8b 4d fc	 mov	 ecx, DWORD PTR _this$[ebp]
  0001c	8b 55 0c	 mov	 edx, DWORD PTR _value$[ebp]
  0001f	89 94 81 53 01
	00 00		 mov	 DWORD PTR [ecx+eax*4+339], edx
  00026	8b 45 0c	 mov	 eax, DWORD PTR _value$[ebp]
$LN1@SetSocket:

; 379  : }

  00029	c9		 leave
  0002a	c2 08 00	 ret	 8
?SetSocket@CItemData@@QAEJEK@Z ENDP			; CItemData::SetSocket
_TEXT	ENDS
; Function compile flags: /Odspy
; File D:\Metin2 Server Files\mainline\SRC_2014\Metin2Client\GameLib\ItemData.cpp
;	COMDAT ?GetSocket@CItemData@@QBEJE@Z
_TEXT	SEGMENT
_this$ = -4						; size = 4
_byIndex$ = 8						; size = 1
?GetSocket@CItemData@@QBEJE@Z PROC			; CItemData::GetSocket, COMDAT
; _this$ = ecx

; 382  : {

  00000	55		 push	 ebp
  00001	8b ec		 mov	 ebp, esp
  00003	51		 push	 ecx
  00004	89 4d fc	 mov	 DWORD PTR _this$[ebp], ecx

; 383  : 	if (byIndex >= ITEM_SOCKET_MAX_NUM)

  00007	0f b6 45 08	 movzx	 eax, BYTE PTR _byIndex$[ebp]
  0000b	83 f8 03	 cmp	 eax, 3
  0000e	7c 05		 jl	 SHORT $LN2@GetSocket

; 384  : 	{
; 385  : 		assert(byIndex < ITEM_SOCKET_MAX_NUM);
; 386  : 		return -1;

  00010	83 c8 ff	 or	 eax, -1
  00013	eb 0e		 jmp	 SHORT $LN1@GetSocket
$LN2@GetSocket:

; 387  : 	}
; 388  : 
; 389  : 	return m_ItemTable.alSockets[byIndex];

  00015	0f b6 45 08	 movzx	 eax, BYTE PTR _byIndex$[ebp]
  00019	8b 4d fc	 mov	 ecx, DWORD PTR _this$[ebp]
  0001c	8b 84 81 53 01
	00 00		 mov	 eax, DWORD PTR [ecx+eax*4+339]
$LN1@GetSocket:

; 390  : }

  00023	c9		 leave
  00024	c2 04 00	 ret	 4
?GetSocket@CItemData@@QBEJE@Z ENDP			; CItemData::GetSocket
_TEXT	ENDS
; Function compile flags: /Odspy
; File D:\Metin2 Server Files\mainline\SRC_2014\Metin2Client\GameLib\ItemData.cpp
;	COMDAT ?GetValue@CItemData@@QBEJE@Z
_TEXT	SEGMENT
_this$ = -4						; size = 4
_byIndex$ = 8						; size = 1
?GetValue@CItemData@@QBEJE@Z PROC			; CItemData::GetValue, COMDAT
; _this$ = ecx

; 360  : {

  00000	55		 push	 ebp
  00001	8b ec		 mov	 ebp, esp
  00003	51		 push	 ecx
  00004	89 4d fc	 mov	 DWORD PTR _this$[ebp], ecx

; 361  : 	if (byIndex >= ITEM_VALUES_MAX_NUM)

  00007	0f b6 45 08	 movzx	 eax, BYTE PTR _byIndex$[ebp]
  0000b	83 f8 06	 cmp	 eax, 6
  0000e	7c 04		 jl	 SHORT $LN2@GetValue

; 362  : 	{
; 363  : 		assert(byIndex < ITEM_VALUES_MAX_NUM);
; 364  : 		return 0;

  00010	33 c0		 xor	 eax, eax
  00012	eb 0e		 jmp	 SHORT $LN1@GetValue
$LN2@GetValue:

; 365  : 	}
; 366  : 
; 367  : 	return m_ItemTable.alValues[byIndex];

  00014	0f b6 45 08	 movzx	 eax, BYTE PTR _byIndex$[ebp]
  00018	8b 4d fc	 mov	 ecx, DWORD PTR _this$[ebp]
  0001b	8b 84 81 3b 01
	00 00		 mov	 eax, DWORD PTR [ecx+eax*4+315]
$LN1@GetValue:

; 368  : }

  00022	c9		 leave
  00023	c2 04 00	 ret	 4
?GetValue@CItemData@@QBEJE@Z ENDP			; CItemData::GetValue
_TEXT	ENDS
; Function compile flags: /Odspy
; File D:\Metin2 Server Files\mainline\SRC_2014\Metin2Client\GameLib\ItemData.cpp
;	COMDAT ?GetApply@CItemData@@QBEHEPAUSItemApply@1@@Z
_TEXT	SEGMENT
_this$ = -4						; size = 4
_byIndex$ = 8						; size = 1
_pItemApply$ = 12					; size = 4
?GetApply@CItemData@@QBEHEPAUSItemApply@1@@Z PROC	; CItemData::GetApply, COMDAT
; _this$ = ecx

; 348  : {

  00000	55		 push	 ebp
  00001	8b ec		 mov	 ebp, esp
  00003	51		 push	 ecx
  00004	89 4d fc	 mov	 DWORD PTR _this$[ebp], ecx

; 349  : 	if (byIndex >= ITEM_APPLY_MAX_NUM)

  00007	0f b6 45 08	 movzx	 eax, BYTE PTR _byIndex$[ebp]
  0000b	83 f8 03	 cmp	 eax, 3
  0000e	7c 04		 jl	 SHORT $LN2@GetApply

; 350  : 	{
; 351  : 		assert(byIndex < ITEM_APPLY_MAX_NUM);
; 352  : 		return FALSE;

  00010	33 c0		 xor	 eax, eax
  00012	eb 21		 jmp	 SHORT $LN1@GetApply
$LN2@GetApply:

; 353  : 	}
; 354  : 
; 355  : 	*pItemApply = m_ItemTable.aApplies[byIndex];

  00014	0f b6 45 08	 movzx	 eax, BYTE PTR _byIndex$[ebp]
  00018	6b c0 05	 imul	 eax, eax, 5
  0001b	8b 4d fc	 mov	 ecx, DWORD PTR _this$[ebp]
  0001e	8d 84 01 2c 01
	00 00		 lea	 eax, DWORD PTR [ecx+eax+300]
  00025	8b 4d 0c	 mov	 ecx, DWORD PTR _pItemApply$[ebp]
  00028	8b 10		 mov	 edx, DWORD PTR [eax]
  0002a	89 11		 mov	 DWORD PTR [ecx], edx
  0002c	8a 40 04	 mov	 al, BYTE PTR [eax+4]
  0002f	88 41 04	 mov	 BYTE PTR [ecx+4], al

; 356  : 	return TRUE;

  00032	33 c0		 xor	 eax, eax
  00034	40		 inc	 eax
$LN1@GetApply:

; 357  : }

  00035	c9		 leave
  00036	c2 08 00	 ret	 8
?GetApply@CItemData@@QBEHEPAUSItemApply@1@@Z ENDP	; CItemData::GetApply
_TEXT	ENDS
; Function compile flags: /Odspy
; File D:\Metin2 Server Files\mainline\SRC_2014\Metin2Client\GameLib\ItemData.cpp
;	COMDAT ?GetLimit@CItemData@@QBEHEPAUSItemLimit@1@@Z
_TEXT	SEGMENT
_this$ = -4						; size = 4
_byIndex$ = 8						; size = 1
_pItemLimit$ = 12					; size = 4
?GetLimit@CItemData@@QBEHEPAUSItemLimit@1@@Z PROC	; CItemData::GetLimit, COMDAT
; _this$ = ecx

; 335  : {

  00000	55		 push	 ebp
  00001	8b ec		 mov	 ebp, esp
  00003	51		 push	 ecx
  00004	89 4d fc	 mov	 DWORD PTR _this$[ebp], ecx

; 336  : 	if (byIndex >= ITEM_LIMIT_MAX_NUM)

  00007	0f b6 45 08	 movzx	 eax, BYTE PTR _byIndex$[ebp]
  0000b	83 f8 02	 cmp	 eax, 2
  0000e	7c 04		 jl	 SHORT $LN2@GetLimit

; 337  : 	{
; 338  : 		assert(byIndex < ITEM_LIMIT_MAX_NUM);
; 339  : 		return FALSE;

  00010	33 c0		 xor	 eax, eax
  00012	eb 21		 jmp	 SHORT $LN1@GetLimit
$LN2@GetLimit:

; 340  : 	}
; 341  : 
; 342  : 	*pItemLimit = m_ItemTable.aLimits[byIndex];

  00014	0f b6 45 08	 movzx	 eax, BYTE PTR _byIndex$[ebp]
  00018	6b c0 05	 imul	 eax, eax, 5
  0001b	8b 4d fc	 mov	 ecx, DWORD PTR _this$[ebp]
  0001e	8d 84 01 22 01
	00 00		 lea	 eax, DWORD PTR [ecx+eax+290]
  00025	8b 4d 0c	 mov	 ecx, DWORD PTR _pItemLimit$[ebp]
  00028	8b 10		 mov	 edx, DWORD PTR [eax]
  0002a	89 11		 mov	 DWORD PTR [ecx], edx
  0002c	8a 40 04	 mov	 al, BYTE PTR [eax+4]
  0002f	88 41 04	 mov	 BYTE PTR [ecx+4], al

; 343  : 
; 344  : 	return TRUE;

  00032	33 c0		 xor	 eax, eax
  00034	40		 inc	 eax
$LN1@GetLimit:

; 345  : }

  00035	c9		 leave
  00036	c2 08 00	 ret	 8
?GetLimit@CItemData@@QBEHEPAUSItemLimit@1@@Z ENDP	; CItemData::GetLimit
_TEXT	ENDS
; Function compile flags: /Odspy
; File D:\Metin2 Server Files\mainline\SRC_2014\Metin2Client\GameLib\ItemData.cpp
;	COMDAT ?GetISellItemPrice@CItemData@@QBEKXZ
_TEXT	SEGMENT
_this$ = -4						; size = 4
?GetISellItemPrice@CItemData@@QBEKXZ PROC		; CItemData::GetISellItemPrice, COMDAT
; _this$ = ecx

; 329  : {

  00000	55		 push	 ebp
  00001	8b ec		 mov	 ebp, esp
  00003	51		 push	 ecx
  00004	89 4d fc	 mov	 DWORD PTR _this$[ebp], ecx

; 330  : 	return m_ItemTable.dwISellItemPrice;

  00007	8b 45 fc	 mov	 eax, DWORD PTR _this$[ebp]
  0000a	8b 80 1e 01 00
	00		 mov	 eax, DWORD PTR [eax+286]

; 331  : }

  00010	c9		 leave
  00011	c3		 ret	 0
?GetISellItemPrice@CItemData@@QBEKXZ ENDP		; CItemData::GetISellItemPrice
_TEXT	ENDS
; Function compile flags: /Odspy
; File D:\Metin2 Server Files\mainline\SRC_2014\Metin2Client\GameLib\ItemData.cpp
;	COMDAT ?GetIBuyItemPrice@CItemData@@QBEKXZ
_TEXT	SEGMENT
_this$ = -4						; size = 4
?GetIBuyItemPrice@CItemData@@QBEKXZ PROC		; CItemData::GetIBuyItemPrice, COMDAT
; _this$ = ecx

; 324  : {

  00000	55		 push	 ebp
  00001	8b ec		 mov	 ebp, esp
  00003	51		 push	 ecx
  00004	89 4d fc	 mov	 DWORD PTR _this$[ebp], ecx

; 325  : 	return m_ItemTable.dwIBuyItemPrice;

  00007	8b 45 fc	 mov	 eax, DWORD PTR _this$[ebp]
  0000a	8b 80 1a 01 00
	00		 mov	 eax, DWORD PTR [eax+282]

; 326  : }

  00010	c9		 leave
  00011	c3		 ret	 0
?GetIBuyItemPrice@CItemData@@QBEKXZ ENDP		; CItemData::GetIBuyItemPrice
_TEXT	ENDS
; Function compile flags: /Odspy
; File D:\Metin2 Server Files\mainline\SRC_2014\Metin2Client\GameLib\ItemData.cpp
;	COMDAT ?GetWearFlags@CItemData@@QBEKXZ
_TEXT	SEGMENT
_this$ = -4						; size = 4
?GetWearFlags@CItemData@@QBEKXZ PROC			; CItemData::GetWearFlags, COMDAT
; _this$ = ecx

; 319  : {

  00000	55		 push	 ebp
  00001	8b ec		 mov	 ebp, esp
  00003	51		 push	 ecx
  00004	89 4d fc	 mov	 DWORD PTR _this$[ebp], ecx

; 320  : 	return m_ItemTable.dwWearFlags;

  00007	8b 45 fc	 mov	 eax, DWORD PTR _this$[ebp]
  0000a	8b 80 12 01 00
	00		 mov	 eax, DWORD PTR [eax+274]

; 321  : }

  00010	c9		 leave
  00011	c3		 ret	 0
?GetWearFlags@CItemData@@QBEKXZ ENDP			; CItemData::GetWearFlags
_TEXT	ENDS
; Function compile flags: /Odspy
; File D:\Metin2 Server Files\mainline\SRC_2014\Metin2Client\GameLib\ItemData.cpp
;	COMDAT ?HasNextGrade@CItemData@@QBEHXZ
_TEXT	SEGMENT
_this$ = -8						; size = 4
tv67 = -4						; size = 4
?HasNextGrade@CItemData@@QBEHXZ PROC			; CItemData::HasNextGrade, COMDAT
; _this$ = ecx

; 314  : {

  00000	55		 push	 ebp
  00001	8b ec		 mov	 ebp, esp
  00003	51		 push	 ecx
  00004	51		 push	 ecx
  00005	89 4d f8	 mov	 DWORD PTR _this$[ebp], ecx

; 315  : 	return 0 != m_ItemTable.dwRefinedVnum;

  00008	8b 45 f8	 mov	 eax, DWORD PTR _this$[ebp]
  0000b	83 b8 5f 01 00
	00 00		 cmp	 DWORD PTR [eax+351], 0
  00012	74 09		 je	 SHORT $LN3@HasNextGra
  00014	c7 45 fc 01 00
	00 00		 mov	 DWORD PTR tv67[ebp], 1
  0001b	eb 04		 jmp	 SHORT $LN4@HasNextGra
$LN3@HasNextGra:
  0001d	83 65 fc 00	 and	 DWORD PTR tv67[ebp], 0
$LN4@HasNextGra:
  00021	8b 45 fc	 mov	 eax, DWORD PTR tv67[ebp]

; 316  : }

  00024	c9		 leave
  00025	c3		 ret	 0
?HasNextGrade@CItemData@@QBEHXZ ENDP			; CItemData::HasNextGrade
_TEXT	ENDS
; Function compile flags: /Odspy
; File D:\Metin2 Server Files\mainline\SRC_2014\Metin2Client\GameLib\ItemData.cpp
;	COMDAT ?IsWearableFlag@CItemData@@QBEHK@Z
_TEXT	SEGMENT
_this$ = -8						; size = 4
tv68 = -4						; size = 4
_dwFlag$ = 8						; size = 4
?IsWearableFlag@CItemData@@QBEHK@Z PROC			; CItemData::IsWearableFlag, COMDAT
; _this$ = ecx

; 309  : {

  00000	55		 push	 ebp
  00001	8b ec		 mov	 ebp, esp
  00003	51		 push	 ecx
  00004	51		 push	 ecx
  00005	89 4d f8	 mov	 DWORD PTR _this$[ebp], ecx

; 310  : 	return (dwFlag & m_ItemTable.dwWearFlags) != 0;

  00008	8b 45 f8	 mov	 eax, DWORD PTR _this$[ebp]
  0000b	8b 4d 08	 mov	 ecx, DWORD PTR _dwFlag$[ebp]
  0000e	23 88 12 01 00
	00		 and	 ecx, DWORD PTR [eax+274]
  00014	74 09		 je	 SHORT $LN3@IsWearable
  00016	c7 45 fc 01 00
	00 00		 mov	 DWORD PTR tv68[ebp], 1
  0001d	eb 04		 jmp	 SHORT $LN4@IsWearable
$LN3@IsWearable:
  0001f	83 65 fc 00	 and	 DWORD PTR tv68[ebp], 0
$LN4@IsWearable:
  00023	8b 45 fc	 mov	 eax, DWORD PTR tv68[ebp]

; 311  : }

  00026	c9		 leave
  00027	c2 04 00	 ret	 4
?IsWearableFlag@CItemData@@QBEHK@Z ENDP			; CItemData::IsWearableFlag
_TEXT	ENDS
; Function compile flags: /Odspy
; File D:\Metin2 Server Files\mainline\SRC_2014\Metin2Client\GameLib\ItemData.cpp
;	COMDAT ?IsFlag@CItemData@@QBEHK@Z
_TEXT	SEGMENT
_this$ = -8						; size = 4
tv68 = -4						; size = 4
_dwFlag$ = 8						; size = 4
?IsFlag@CItemData@@QBEHK@Z PROC				; CItemData::IsFlag, COMDAT
; _this$ = ecx

; 304  : {

  00000	55		 push	 ebp
  00001	8b ec		 mov	 ebp, esp
  00003	51		 push	 ecx
  00004	51		 push	 ecx
  00005	89 4d f8	 mov	 DWORD PTR _this$[ebp], ecx

; 305  : 	return (dwFlag & m_ItemTable.dwFlags) != 0;

  00008	8b 45 f8	 mov	 eax, DWORD PTR _this$[ebp]
  0000b	8b 4d 08	 mov	 ecx, DWORD PTR _dwFlag$[ebp]
  0000e	23 88 0e 01 00
	00		 and	 ecx, DWORD PTR [eax+270]
  00014	74 09		 je	 SHORT $LN3@IsFlag
  00016	c7 45 fc 01 00
	00 00		 mov	 DWORD PTR tv68[ebp], 1
  0001d	eb 04		 jmp	 SHORT $LN4@IsFlag
$LN3@IsFlag:
  0001f	83 65 fc 00	 and	 DWORD PTR tv68[ebp], 0
$LN4@IsFlag:
  00023	8b 45 fc	 mov	 eax, DWORD PTR tv68[ebp]

; 306  : }

  00026	c9		 leave
  00027	c2 04 00	 ret	 4
?IsFlag@CItemData@@QBEHK@Z ENDP				; CItemData::IsFlag
_TEXT	ENDS
; Function compile flags: /Odspy
; File D:\Metin2 Server Files\mainline\SRC_2014\Metin2Client\GameLib\ItemData.cpp
;	COMDAT ?IsAntiFlag@CItemData@@QBEHK@Z
_TEXT	SEGMENT
_this$ = -8						; size = 4
tv68 = -4						; size = 4
_dwFlag$ = 8						; size = 4
?IsAntiFlag@CItemData@@QBEHK@Z PROC			; CItemData::IsAntiFlag, COMDAT
; _this$ = ecx

; 299  : {

  00000	55		 push	 ebp
  00001	8b ec		 mov	 ebp, esp
  00003	51		 push	 ecx
  00004	51		 push	 ecx
  00005	89 4d f8	 mov	 DWORD PTR _this$[ebp], ecx

; 300  : 	return (dwFlag & m_ItemTable.dwAntiFlags) != 0;

  00008	8b 45 f8	 mov	 eax, DWORD PTR _this$[ebp]
  0000b	8b 4d 08	 mov	 ecx, DWORD PTR _dwFlag$[ebp]
  0000e	23 88 0a 01 00
	00		 and	 ecx, DWORD PTR [eax+266]
  00014	74 09		 je	 SHORT $LN3@IsAntiFlag
  00016	c7 45 fc 01 00
	00 00		 mov	 DWORD PTR tv68[ebp], 1
  0001d	eb 04		 jmp	 SHORT $LN4@IsAntiFlag
$LN3@IsAntiFlag:
  0001f	83 65 fc 00	 and	 DWORD PTR tv68[ebp], 0
$LN4@IsAntiFlag:
  00023	8b 45 fc	 mov	 eax, DWORD PTR tv68[ebp]

; 301  : }

  00026	c9		 leave
  00027	c2 04 00	 ret	 4
?IsAntiFlag@CItemData@@QBEHK@Z ENDP			; CItemData::IsAntiFlag
_TEXT	ENDS
; Function compile flags: /Odspy
; File D:\Metin2 Server Files\mainline\SRC_2014\Metin2Client\GameLib\ItemData.cpp
;	COMDAT ?GetSize@CItemData@@QBEEXZ
_TEXT	SEGMENT
_this$ = -4						; size = 4
?GetSize@CItemData@@QBEEXZ PROC				; CItemData::GetSize, COMDAT
; _this$ = ecx

; 294  : {

  00000	55		 push	 ebp
  00001	8b ec		 mov	 ebp, esp
  00003	51		 push	 ecx
  00004	89 4d fc	 mov	 DWORD PTR _this$[ebp], ecx

; 295  : 	return m_ItemTable.bSize;

  00007	8b 45 fc	 mov	 eax, DWORD PTR _this$[ebp]
  0000a	8a 80 09 01 00
	00		 mov	 al, BYTE PTR [eax+265]

; 296  : }

  00010	c9		 leave
  00011	c3		 ret	 0
?GetSize@CItemData@@QBEEXZ ENDP				; CItemData::GetSize
_TEXT	ENDS
; Function compile flags: /Odspy
; File D:\Metin2 Server Files\mainline\SRC_2014\Metin2Client\GameLib\ItemData.cpp
;	COMDAT ?GetWeaponType@CItemData@@QBEKXZ
_TEXT	SEGMENT
_this$ = -4						; size = 4
?GetWeaponType@CItemData@@QBEKXZ PROC			; CItemData::GetWeaponType, COMDAT
; _this$ = ecx

; 289  : {

  00000	55		 push	 ebp
  00001	8b ec		 mov	 ebp, esp
  00003	51		 push	 ecx
  00004	89 4d fc	 mov	 DWORD PTR _this$[ebp], ecx

; 290  : 	return m_ItemTable.bSubType;

  00007	8b 45 fc	 mov	 eax, DWORD PTR _this$[ebp]
  0000a	0f b6 80 07 01
	00 00		 movzx	 eax, BYTE PTR [eax+263]

; 291  : }

  00011	c9		 leave
  00012	c3		 ret	 0
?GetWeaponType@CItemData@@QBEKXZ ENDP			; CItemData::GetWeaponType
_TEXT	ENDS
; Function compile flags: /Odspy
; File D:\Metin2 Server Files\mainline\SRC_2014\Metin2Client\GameLib\ItemData.cpp
;	COMDAT ?GetUseTypeString@CItemData@@QBEPBDXZ
_TEXT	SEGMENT
_this$ = -8						; size = 4
tv71 = -4						; size = 4
?GetUseTypeString@CItemData@@QBEPBDXZ PROC		; CItemData::GetUseTypeString, COMDAT
; _this$ = ecx

; 257  : {

  00000	55		 push	 ebp
  00001	8b ec		 mov	 ebp, esp
  00003	51		 push	 ecx
  00004	51		 push	 ecx
  00005	89 4d f8	 mov	 DWORD PTR _this$[ebp], ecx

; 258  : 	if (GetType() != CItemData::ITEM_TYPE_USE)

  00008	8b 4d f8	 mov	 ecx, DWORD PTR _this$[ebp]
  0000b	e8 00 00 00 00	 call	 ?GetType@CItemData@@QBEEXZ ; CItemData::GetType
  00010	0f b6 c0	 movzx	 eax, al
  00013	83 f8 03	 cmp	 eax, 3
  00016	74 0a		 je	 SHORT $LN4@GetUseType

; 259  : 		return "NOT_USE_TYPE";

  00018	b8 00 00 00 00	 mov	 eax, OFFSET ??_C@_0N@OHMMNDLH@NOT_USE_TYPE@
  0001d	e9 9f 00 00 00	 jmp	 $LN1@GetUseType
$LN4@GetUseType:

; 260  : 
; 261  : 	switch (GetSubType())

  00022	8b 4d f8	 mov	 ecx, DWORD PTR _this$[ebp]
  00025	e8 00 00 00 00	 call	 ?GetSubType@CItemData@@QBEEXZ ; CItemData::GetSubType
  0002a	0f b6 c0	 movzx	 eax, al
  0002d	89 45 fc	 mov	 DWORD PTR tv71[ebp], eax
  00030	83 7d fc 14	 cmp	 DWORD PTR tv71[ebp], 20	; 00000014H
  00034	7f 26		 jg	 SHORT $LN16@GetUseType
  00036	83 7d fc 14	 cmp	 DWORD PTR tv71[ebp], 20	; 00000014H
  0003a	74 64		 je	 SHORT $LN11@GetUseType
  0003c	83 7d fc 02	 cmp	 DWORD PTR tv71[ebp], 2
  00040	74 34		 je	 SHORT $LN5@GetUseType
  00042	83 7d fc 0e	 cmp	 DWORD PTR tv71[ebp], 14	; 0000000eH
  00046	74 35		 je	 SHORT $LN6@GetUseType
  00048	83 7d fc 11	 cmp	 DWORD PTR tv71[ebp], 17	; 00000011H
  0004c	74 36		 je	 SHORT $LN7@GetUseType
  0004e	83 7d fc 12	 cmp	 DWORD PTR tv71[ebp], 18	; 00000012H
  00052	74 37		 je	 SHORT $LN8@GetUseType
  00054	83 7d fc 13	 cmp	 DWORD PTR tv71[ebp], 19	; 00000013H
  00058	74 38		 je	 SHORT $LN9@GetUseType
  0005a	eb 60		 jmp	 SHORT $LN2@GetUseType
$LN16@GetUseType:
  0005c	83 7d fc 15	 cmp	 DWORD PTR tv71[ebp], 21	; 00000015H
  00060	74 45		 je	 SHORT $LN12@GetUseType
  00062	83 7d fc 16	 cmp	 DWORD PTR tv71[ebp], 22	; 00000016H
  00066	74 31		 je	 SHORT $LN10@GetUseType
  00068	83 7d fc 1d	 cmp	 DWORD PTR tv71[ebp], 29	; 0000001dH
  0006c	74 40		 je	 SHORT $LN13@GetUseType
  0006e	83 7d fc 1e	 cmp	 DWORD PTR tv71[ebp], 30	; 0000001eH
  00072	74 41		 je	 SHORT $LN14@GetUseType
  00074	eb 46		 jmp	 SHORT $LN2@GetUseType
$LN5@GetUseType:

; 262  : 	{
; 263  : 		case USE_TUNING:
; 264  : 			return DEF_STR(USE_TUNING);				

  00076	b8 00 00 00 00	 mov	 eax, OFFSET ??_C@_0L@JIILHJGL@USE_TUNING@
  0007b	eb 44		 jmp	 SHORT $LN1@GetUseType
$LN6@GetUseType:

; 265  : 		case USE_DETACHMENT:
; 266  : 			return DEF_STR(USE_DETACHMENT);							

  0007d	b8 00 00 00 00	 mov	 eax, OFFSET ??_C@_0P@MKAMDACK@USE_DETACHMENT@
  00082	eb 3d		 jmp	 SHORT $LN1@GetUseType
$LN7@GetUseType:

; 267  : 		case USE_CLEAN_SOCKET:
; 268  : 			return DEF_STR(USE_CLEAN_SOCKET);

  00084	b8 00 00 00 00	 mov	 eax, OFFSET ??_C@_0BB@IPDHFONJ@USE_CLEAN_SOCKET@
  00089	eb 36		 jmp	 SHORT $LN1@GetUseType
$LN8@GetUseType:

; 269  : 		case USE_CHANGE_ATTRIBUTE:
; 270  : 			return DEF_STR(USE_CHANGE_ATTRIBUTE);

  0008b	b8 00 00 00 00	 mov	 eax, OFFSET ??_C@_0BF@OFJOINJA@USE_CHANGE_ATTRIBUTE@
  00090	eb 2f		 jmp	 SHORT $LN1@GetUseType
$LN9@GetUseType:

; 271  : 		case USE_ADD_ATTRIBUTE:
; 272  : 			return DEF_STR(USE_ADD_ATTRIBUTE);		

  00092	b8 00 00 00 00	 mov	 eax, OFFSET ??_C@_0BC@CNMGHFMD@USE_ADD_ATTRIBUTE@
  00097	eb 28		 jmp	 SHORT $LN1@GetUseType
$LN10@GetUseType:

; 273  : 		case USE_ADD_ATTRIBUTE2:
; 274  : 			return DEF_STR(USE_ADD_ATTRIBUTE2);		

  00099	b8 00 00 00 00	 mov	 eax, OFFSET ??_C@_0BD@OPDAABAO@USE_ADD_ATTRIBUTE2@
  0009e	eb 21		 jmp	 SHORT $LN1@GetUseType
$LN11@GetUseType:

; 275  : 		case USE_ADD_ACCESSORY_SOCKET:
; 276  : 			return DEF_STR(USE_ADD_ACCESSORY_SOCKET);		

  000a0	b8 00 00 00 00	 mov	 eax, OFFSET ??_C@_0BJ@NMHGAPML@USE_ADD_ACCESSORY_SOCKET@
  000a5	eb 1a		 jmp	 SHORT $LN1@GetUseType
$LN12@GetUseType:

; 277  : 		case USE_PUT_INTO_ACCESSORY_SOCKET:
; 278  : 			return DEF_STR(USE_PUT_INTO_ACCESSORY_SOCKET);

  000a7	b8 00 00 00 00	 mov	 eax, OFFSET ??_C@_0BO@CNHACOAA@USE_PUT_INTO_ACCESSORY_SOCKET@
  000ac	eb 13		 jmp	 SHORT $LN1@GetUseType
$LN13@GetUseType:

; 279  : 		case USE_PUT_INTO_BELT_SOCKET:
; 280  : 			return DEF_STR(USE_PUT_INTO_BELT_SOCKET);

  000ae	b8 00 00 00 00	 mov	 eax, OFFSET ??_C@_0BJ@FLCFGEDJ@USE_PUT_INTO_BELT_SOCKET@
  000b3	eb 0c		 jmp	 SHORT $LN1@GetUseType
$LN14@GetUseType:

; 281  : 		case USE_PUT_INTO_RING_SOCKET:
; 282  : 			return DEF_STR(USE_PUT_INTO_RING_SOCKET);

  000b5	b8 00 00 00 00	 mov	 eax, OFFSET ??_C@_0BJ@MMJPLFIL@USE_PUT_INTO_RING_SOCKET@
  000ba	eb 05		 jmp	 SHORT $LN1@GetUseType
$LN2@GetUseType:

; 283  : 	}
; 284  : 	return "USE_UNKNOWN_TYPE";

  000bc	b8 00 00 00 00	 mov	 eax, OFFSET ??_C@_0BB@HEDGKPKE@USE_UNKNOWN_TYPE@
$LN1@GetUseType:

; 285  : }

  000c1	c9		 leave
  000c2	c3		 ret	 0
?GetUseTypeString@CItemData@@QBEPBDXZ ENDP		; CItemData::GetUseTypeString
_TEXT	ENDS
; Function compile flags: /Odspy
; File D:\Metin2 Server Files\mainline\SRC_2014\Metin2Client\GameLib\ItemData.cpp
;	COMDAT ?GetRefine@CItemData@@QBEIXZ
_TEXT	SEGMENT
_this$ = -4						; size = 4
?GetRefine@CItemData@@QBEIXZ PROC			; CItemData::GetRefine, COMDAT
; _this$ = ecx

; 422  : {

  00000	55		 push	 ebp
  00001	8b ec		 mov	 ebp, esp
  00003	51		 push	 ecx
  00004	89 4d fc	 mov	 DWORD PTR _this$[ebp], ecx

; 423  : 	return GetIndex()%10;

  00007	8b 4d fc	 mov	 ecx, DWORD PTR _this$[ebp]
  0000a	e8 00 00 00 00	 call	 ?GetIndex@CItemData@@QBEKXZ ; CItemData::GetIndex
  0000f	33 d2		 xor	 edx, edx
  00011	6a 0a		 push	 10			; 0000000aH
  00013	59		 pop	 ecx
  00014	f7 f1		 div	 ecx
  00016	8b c2		 mov	 eax, edx

; 424  : }

  00018	c9		 leave
  00019	c3		 ret	 0
?GetRefine@CItemData@@QBEIXZ ENDP			; CItemData::GetRefine
_TEXT	ENDS
; Function compile flags: /Odspy
; File D:\Metin2 Server Files\mainline\SRC_2014\Metin2Client\GameLib\ItemData.cpp
;	COMDAT ?GetSubType@CItemData@@QBEEXZ
_TEXT	SEGMENT
_this$ = -4						; size = 4
?GetSubType@CItemData@@QBEEXZ PROC			; CItemData::GetSubType, COMDAT
; _this$ = ecx

; 250  : {

  00000	55		 push	 ebp
  00001	8b ec		 mov	 ebp, esp
  00003	51		 push	 ecx
  00004	89 4d fc	 mov	 DWORD PTR _this$[ebp], ecx

; 251  : 	return m_ItemTable.bSubType;

  00007	8b 45 fc	 mov	 eax, DWORD PTR _this$[ebp]
  0000a	8a 80 07 01 00
	00		 mov	 al, BYTE PTR [eax+263]

; 252  : }

  00010	c9		 leave
  00011	c3		 ret	 0
?GetSubType@CItemData@@QBEEXZ ENDP			; CItemData::GetSubType
_TEXT	ENDS
; Function compile flags: /Odspy
; File D:\Metin2 Server Files\mainline\SRC_2014\Metin2Client\GameLib\ItemData.cpp
;	COMDAT ?GetType@CItemData@@QBEEXZ
_TEXT	SEGMENT
_this$ = -4						; size = 4
?GetType@CItemData@@QBEEXZ PROC				; CItemData::GetType, COMDAT
; _this$ = ecx

; 245  : {

  00000	55		 push	 ebp
  00001	8b ec		 mov	 ebp, esp
  00003	51		 push	 ecx
  00004	89 4d fc	 mov	 DWORD PTR _this$[ebp], ecx

; 246  : 	return m_ItemTable.bType;

  00007	8b 45 fc	 mov	 eax, DWORD PTR _this$[ebp]
  0000a	8a 80 06 01 00
	00		 mov	 al, BYTE PTR [eax+262]

; 247  : }

  00010	c9		 leave
  00011	c3		 ret	 0
?GetType@CItemData@@QBEEXZ ENDP				; CItemData::GetType
_TEXT	ENDS
; Function compile flags: /Odspy
; File D:\Metin2 Server Files\mainline\SRC_2014\Metin2Client\GameLib\ItemData.cpp
; File C:\Program Files (x86)\Microsoft Visual Studio\2019\Community\VC\Tools\MSVC\14.28.29333\include\xstring
; File D:\Metin2 Server Files\mainline\SRC_2014\Metin2Client\GameLib\ItemData.cpp
;	COMDAT ?GetSummary@CItemData@@QBEPBDXZ
_TEXT	SEGMENT
$T1 = -8						; size = 4
_this$ = -4						; size = 4
?GetSummary@CItemData@@QBEPBDXZ PROC			; CItemData::GetSummary, COMDAT
; _this$ = ecx

; 239  : {

  00000	55		 push	 ebp
  00001	8b ec		 mov	 ebp, esp
  00003	51		 push	 ecx
  00004	51		 push	 ecx
  00005	89 4d fc	 mov	 DWORD PTR _this$[ebp], ecx
; File C:\Program Files (x86)\Microsoft Visual Studio\2019\Community\VC\Tools\MSVC\14.28.29333\include\xstring

; 3752 :         return _Mypair._Myval2._Myptr();

  00008	8b 4d fc	 mov	 ecx, DWORD PTR _this$[ebp]
  0000b	83 c1 7c	 add	 ecx, 124		; 0000007cH
  0000e	e8 00 00 00 00	 call	 ?_Myptr@?$_String_val@U?$_Simple_types@D@std@@@std@@QBEPBDXZ ; std::_String_val<std::_Simple_types<char> >::_Myptr
  00013	89 45 f8	 mov	 DWORD PTR $T1[ebp], eax
; File D:\Metin2 Server Files\mainline\SRC_2014\Metin2Client\GameLib\ItemData.cpp

; 240  : 	return m_strSummary.c_str();

  00016	8b 45 f8	 mov	 eax, DWORD PTR $T1[ebp]

; 241  : }

  00019	c9		 leave
  0001a	c3		 ret	 0
?GetSummary@CItemData@@QBEPBDXZ ENDP			; CItemData::GetSummary
_TEXT	ENDS
; Function compile flags: /Odspy
; File D:\Metin2 Server Files\mainline\SRC_2014\Metin2Client\GameLib\ItemData.cpp
; File C:\Program Files (x86)\Microsoft Visual Studio\2019\Community\VC\Tools\MSVC\14.28.29333\include\xstring
; File D:\Metin2 Server Files\mainline\SRC_2014\Metin2Client\GameLib\ItemData.cpp
;	COMDAT ?GetDescription@CItemData@@QBEPBDXZ
_TEXT	SEGMENT
$T1 = -8						; size = 4
_this$ = -4						; size = 4
?GetDescription@CItemData@@QBEPBDXZ PROC		; CItemData::GetDescription, COMDAT
; _this$ = ecx

; 234  : {

  00000	55		 push	 ebp
  00001	8b ec		 mov	 ebp, esp
  00003	51		 push	 ecx
  00004	51		 push	 ecx
  00005	89 4d fc	 mov	 DWORD PTR _this$[ebp], ecx
; File C:\Program Files (x86)\Microsoft Visual Studio\2019\Community\VC\Tools\MSVC\14.28.29333\include\xstring

; 3752 :         return _Mypair._Myval2._Myptr();

  00008	8b 4d fc	 mov	 ecx, DWORD PTR _this$[ebp]
  0000b	83 c1 64	 add	 ecx, 100		; 00000064H
  0000e	e8 00 00 00 00	 call	 ?_Myptr@?$_String_val@U?$_Simple_types@D@std@@@std@@QBEPBDXZ ; std::_String_val<std::_Simple_types<char> >::_Myptr
  00013	89 45 f8	 mov	 DWORD PTR $T1[ebp], eax
; File D:\Metin2 Server Files\mainline\SRC_2014\Metin2Client\GameLib\ItemData.cpp

; 235  : 	return m_strDescription.c_str();

  00016	8b 45 f8	 mov	 eax, DWORD PTR $T1[ebp]

; 236  : }

  00019	c9		 leave
  0001a	c3		 ret	 0
?GetDescription@CItemData@@QBEPBDXZ ENDP		; CItemData::GetDescription
_TEXT	ENDS
; Function compile flags: /Odspy
; File D:\Metin2 Server Files\mainline\SRC_2014\Metin2Client\GameLib\ItemData.cpp
;	COMDAT ?GetName@CItemData@@QBEPBDXZ
_TEXT	SEGMENT
_this$ = -4						; size = 4
?GetName@CItemData@@QBEPBDXZ PROC			; CItemData::GetName, COMDAT
; _this$ = ecx

; 229  : {

  00000	55		 push	 ebp
  00001	8b ec		 mov	 ebp, esp
  00003	51		 push	 ecx
  00004	89 4d fc	 mov	 DWORD PTR _this$[ebp], ecx

; 230  : 	return m_ItemTable.szLocaleName;

  00007	8b 45 fc	 mov	 eax, DWORD PTR _this$[ebp]
  0000a	05 ed 00 00 00	 add	 eax, 237		; 000000edH

; 231  : }

  0000f	c9		 leave
  00010	c3		 ret	 0
?GetName@CItemData@@QBEPBDXZ ENDP			; CItemData::GetName
_TEXT	ENDS
; Function compile flags: /Odspy
; File D:\Metin2 Server Files\mainline\SRC_2014\Metin2Client\GameLib\ItemData.cpp
;	COMDAT ?GetIndex@CItemData@@QBEKXZ
_TEXT	SEGMENT
_this$ = -4						; size = 4
?GetIndex@CItemData@@QBEKXZ PROC			; CItemData::GetIndex, COMDAT
; _this$ = ecx

; 224  : {

  00000	55		 push	 ebp
  00001	8b ec		 mov	 ebp, esp
  00003	51		 push	 ecx
  00004	89 4d fc	 mov	 DWORD PTR _this$[ebp], ecx

; 225  : 	return m_ItemTable.dwVnum;

  00007	8b 45 fc	 mov	 eax, DWORD PTR _this$[ebp]
  0000a	8b 80 cc 00 00
	00		 mov	 eax, DWORD PTR [eax+204]

; 226  : }

  00010	c9		 leave
  00011	c3		 ret	 0
?GetIndex@CItemData@@QBEKXZ ENDP			; CItemData::GetIndex
_TEXT	ENDS
; Function compile flags: /Odspy
; File D:\Metin2 Server Files\mainline\SRC_2014\Metin2Client\GameLib\ItemData.cpp
;	COMDAT ?GetTable@CItemData@@QBEPBUSItemTable@1@XZ
_TEXT	SEGMENT
_this$ = -4						; size = 4
?GetTable@CItemData@@QBEPBUSItemTable@1@XZ PROC		; CItemData::GetTable, COMDAT
; _this$ = ecx

; 219  : {

  00000	55		 push	 ebp
  00001	8b ec		 mov	 ebp, esp
  00003	51		 push	 ecx
  00004	89 4d fc	 mov	 DWORD PTR _this$[ebp], ecx

; 220  : 	return &m_ItemTable;

  00007	8b 45 fc	 mov	 eax, DWORD PTR _this$[ebp]
  0000a	05 cc 00 00 00	 add	 eax, 204		; 000000ccH

; 221  : }

  0000f	c9		 leave
  00010	c3		 ret	 0
?GetTable@CItemData@@QBEPBUSItemTable@1@XZ ENDP		; CItemData::GetTable
_TEXT	ENDS
; Function compile flags: /Odspy
; File D:\Metin2 Server Files\mainline\SRC_2014\Metin2Client\GameLib\ItemData.cpp
; File C:\Program Files (x86)\Microsoft Visual Studio\2019\Community\VC\Tools\MSVC\14.28.29333\include\vector
; File D:\Metin2 Server Files\mainline\SRC_2014\Metin2Client\GameLib\ItemData.cpp
;	COMDAT ?GetAttachingDataPointer@CItemData@@QAEHKPAPBUSAttachingData@NRaceData@@@Z
_TEXT	SEGMENT
$T1 = -12						; size = 4
__My_data$2 = -8					; size = 4
_this$ = -4						; size = 4
_dwIndex$ = 8						; size = 4
_c_ppAttachingData$ = 12				; size = 4
?GetAttachingDataPointer@CItemData@@QAEHKPAPBUSAttachingData@NRaceData@@@Z PROC ; CItemData::GetAttachingDataPointer, COMDAT
; _this$ = ecx

; 84   : {

  00000	55		 push	 ebp
  00001	8b ec		 mov	 ebp, esp
  00003	83 ec 0c	 sub	 esp, 12			; 0000000cH
  00006	89 4d fc	 mov	 DWORD PTR _this$[ebp], ecx

; 85   : 	if (dwIndex >= GetAttachingDataCount())

  00009	8b 4d fc	 mov	 ecx, DWORD PTR _this$[ebp]
  0000c	e8 00 00 00 00	 call	 ?GetAttachingDataCount@CItemData@@QAEKXZ ; CItemData::GetAttachingDataCount
  00011	39 45 08	 cmp	 DWORD PTR _dwIndex$[ebp], eax
  00014	72 04		 jb	 SHORT $LN2@GetAttachi

; 86   : 		return FALSE;

  00016	33 c0		 xor	 eax, eax
  00018	eb 22		 jmp	 SHORT $LN1@GetAttachi
$LN2@GetAttachi:
; File C:\Program Files (x86)\Microsoft Visual Studio\2019\Community\VC\Tools\MSVC\14.28.29333\include\vector

; 1498 :         auto& _My_data = _Mypair._Myval2;

  0001a	8b 45 fc	 mov	 eax, DWORD PTR _this$[ebp]
  0001d	05 bc 00 00 00	 add	 eax, 188		; 000000bcH
  00022	89 45 f8	 mov	 DWORD PTR __My_data$2[ebp], eax

; 1499 : #if _CONTAINER_DEBUG_LEVEL > 0
; 1500 :         _STL_VERIFY(
; 1501 :             _Pos < static_cast<size_type>(_My_data._Mylast - _My_data._Myfirst), "vector subscript out of range");
; 1502 : #endif // _CONTAINER_DEBUG_LEVEL > 0
; 1503 : 
; 1504 :         return _My_data._Myfirst[_Pos];

  00025	6b 45 08 30	 imul	 eax, DWORD PTR _dwIndex$[ebp], 48
  00029	8b 4d f8	 mov	 ecx, DWORD PTR __My_data$2[ebp]
  0002c	03 01		 add	 eax, DWORD PTR [ecx]
  0002e	89 45 f4	 mov	 DWORD PTR $T1[ebp], eax
; File D:\Metin2 Server Files\mainline\SRC_2014\Metin2Client\GameLib\ItemData.cpp

; 88   : 	*c_ppAttachingData = &m_AttachingDataVector[dwIndex];

  00031	8b 45 0c	 mov	 eax, DWORD PTR _c_ppAttachingData$[ebp]
  00034	8b 4d f4	 mov	 ecx, DWORD PTR $T1[ebp]
  00037	89 08		 mov	 DWORD PTR [eax], ecx

; 89   : 	return TRUE;

  00039	33 c0		 xor	 eax, eax
  0003b	40		 inc	 eax
$LN1@GetAttachi:

; 90   : }

  0003c	c9		 leave
  0003d	c2 08 00	 ret	 8
?GetAttachingDataPointer@CItemData@@QAEHKPAPBUSAttachingData@NRaceData@@@Z ENDP ; CItemData::GetAttachingDataPointer
_TEXT	ENDS
; Function compile flags: /Odspy
; File D:\Metin2 Server Files\mainline\SRC_2014\Metin2Client\GameLib\ItemData.cpp
; File C:\Program Files (x86)\Microsoft Visual Studio\2019\Community\VC\Tools\MSVC\14.28.29333\include\vector
; File D:\Metin2 Server Files\mainline\SRC_2014\Metin2Client\GameLib\ItemData.cpp
; File C:\Program Files (x86)\Microsoft Visual Studio\2019\Community\VC\Tools\MSVC\14.28.29333\include\vector
; File D:\Metin2 Server Files\mainline\SRC_2014\Metin2Client\GameLib\ItemData.cpp
;	COMDAT ?GetCollisionDataPointer@CItemData@@QAEHKPAPBUSAttachingData@NRaceData@@@Z
_TEXT	SEGMENT
$T1 = -20						; size = 4
__My_data$2 = -16					; size = 4
$T3 = -12						; size = 4
__My_data$4 = -8					; size = 4
_this$ = -4						; size = 4
_dwIndex$ = 8						; size = 4
_c_ppAttachingData$ = 12				; size = 4
?GetCollisionDataPointer@CItemData@@QAEHKPAPBUSAttachingData@NRaceData@@@Z PROC ; CItemData::GetCollisionDataPointer, COMDAT
; _this$ = ecx

; 72   : {

  00000	55		 push	 ebp
  00001	8b ec		 mov	 ebp, esp
  00003	83 ec 14	 sub	 esp, 20			; 00000014H
  00006	89 4d fc	 mov	 DWORD PTR _this$[ebp], ecx

; 73   : 	if (dwIndex >= GetAttachingDataCount())

  00009	8b 4d fc	 mov	 ecx, DWORD PTR _this$[ebp]
  0000c	e8 00 00 00 00	 call	 ?GetAttachingDataCount@CItemData@@QAEKXZ ; CItemData::GetAttachingDataCount
  00011	39 45 08	 cmp	 DWORD PTR _dwIndex$[ebp], eax
  00014	72 04		 jb	 SHORT $LN2@GetCollisi

; 74   : 		return FALSE;

  00016	33 c0		 xor	 eax, eax
  00018	eb 45		 jmp	 SHORT $LN1@GetCollisi
$LN2@GetCollisi:
; File C:\Program Files (x86)\Microsoft Visual Studio\2019\Community\VC\Tools\MSVC\14.28.29333\include\vector

; 1498 :         auto& _My_data = _Mypair._Myval2;

  0001a	8b 45 fc	 mov	 eax, DWORD PTR _this$[ebp]
  0001d	05 bc 00 00 00	 add	 eax, 188		; 000000bcH
  00022	89 45 f8	 mov	 DWORD PTR __My_data$4[ebp], eax

; 1499 : #if _CONTAINER_DEBUG_LEVEL > 0
; 1500 :         _STL_VERIFY(
; 1501 :             _Pos < static_cast<size_type>(_My_data._Mylast - _My_data._Myfirst), "vector subscript out of range");
; 1502 : #endif // _CONTAINER_DEBUG_LEVEL > 0
; 1503 : 
; 1504 :         return _My_data._Myfirst[_Pos];

  00025	6b 45 08 30	 imul	 eax, DWORD PTR _dwIndex$[ebp], 48
  00029	8b 4d f8	 mov	 ecx, DWORD PTR __My_data$4[ebp]
  0002c	03 01		 add	 eax, DWORD PTR [ecx]
  0002e	89 45 f4	 mov	 DWORD PTR $T3[ebp], eax
; File D:\Metin2 Server Files\mainline\SRC_2014\Metin2Client\GameLib\ItemData.cpp

; 76   : 	if (NRaceData::ATTACHING_DATA_TYPE_COLLISION_DATA != m_AttachingDataVector[dwIndex].dwType)

  00031	8b 45 f4	 mov	 eax, DWORD PTR $T3[ebp]
  00034	83 38 01	 cmp	 DWORD PTR [eax], 1
  00037	74 04		 je	 SHORT $LN3@GetCollisi

; 77   : 		return FALSE;

  00039	33 c0		 xor	 eax, eax
  0003b	eb 22		 jmp	 SHORT $LN1@GetCollisi
$LN3@GetCollisi:
; File C:\Program Files (x86)\Microsoft Visual Studio\2019\Community\VC\Tools\MSVC\14.28.29333\include\vector

; 1498 :         auto& _My_data = _Mypair._Myval2;

  0003d	8b 45 fc	 mov	 eax, DWORD PTR _this$[ebp]
  00040	05 bc 00 00 00	 add	 eax, 188		; 000000bcH
  00045	89 45 f0	 mov	 DWORD PTR __My_data$2[ebp], eax

; 1499 : #if _CONTAINER_DEBUG_LEVEL > 0
; 1500 :         _STL_VERIFY(
; 1501 :             _Pos < static_cast<size_type>(_My_data._Mylast - _My_data._Myfirst), "vector subscript out of range");
; 1502 : #endif // _CONTAINER_DEBUG_LEVEL > 0
; 1503 : 
; 1504 :         return _My_data._Myfirst[_Pos];

  00048	6b 45 08 30	 imul	 eax, DWORD PTR _dwIndex$[ebp], 48
  0004c	8b 4d f0	 mov	 ecx, DWORD PTR __My_data$2[ebp]
  0004f	03 01		 add	 eax, DWORD PTR [ecx]
  00051	89 45 ec	 mov	 DWORD PTR $T1[ebp], eax
; File D:\Metin2 Server Files\mainline\SRC_2014\Metin2Client\GameLib\ItemData.cpp

; 79   : 	*c_ppAttachingData = &m_AttachingDataVector[dwIndex];

  00054	8b 45 0c	 mov	 eax, DWORD PTR _c_ppAttachingData$[ebp]
  00057	8b 4d ec	 mov	 ecx, DWORD PTR $T1[ebp]
  0005a	89 08		 mov	 DWORD PTR [eax], ecx

; 80   : 	return TRUE;

  0005c	33 c0		 xor	 eax, eax
  0005e	40		 inc	 eax
$LN1@GetCollisi:

; 81   : }

  0005f	c9		 leave
  00060	c2 08 00	 ret	 8
?GetCollisionDataPointer@CItemData@@QAEHKPAPBUSAttachingData@NRaceData@@@Z ENDP ; CItemData::GetCollisionDataPointer
_TEXT	ENDS
; Function compile flags: /Odspy
; File D:\Metin2 Server Files\mainline\SRC_2014\Metin2Client\GameLib\ItemData.cpp
; File C:\Program Files (x86)\Microsoft Visual Studio\2019\Community\VC\Tools\MSVC\14.28.29333\include\vector
; File D:\Metin2 Server Files\mainline\SRC_2014\Metin2Client\GameLib\ItemData.cpp
;	COMDAT ?GetAttachingDataCount@CItemData@@QAEKXZ
_TEXT	SEGMENT
$T1 = -12						; size = 4
_this$ = -8						; size = 4
__My_data$2 = -4					; size = 4
?GetAttachingDataCount@CItemData@@QAEKXZ PROC		; CItemData::GetAttachingDataCount, COMDAT
; _this$ = ecx

; 67   : {

  00000	55		 push	 ebp
  00001	8b ec		 mov	 ebp, esp
  00003	83 ec 0c	 sub	 esp, 12			; 0000000cH
  00006	89 4d f8	 mov	 DWORD PTR _this$[ebp], ecx
; File C:\Program Files (x86)\Microsoft Visual Studio\2019\Community\VC\Tools\MSVC\14.28.29333\include\vector

; 1483 :         auto& _My_data = _Mypair._Myval2;

  00009	8b 45 f8	 mov	 eax, DWORD PTR _this$[ebp]
  0000c	05 bc 00 00 00	 add	 eax, 188		; 000000bcH
  00011	89 45 fc	 mov	 DWORD PTR __My_data$2[ebp], eax

; 1484 :         return static_cast<size_type>(_My_data._Mylast - _My_data._Myfirst);

  00014	8b 45 fc	 mov	 eax, DWORD PTR __My_data$2[ebp]
  00017	8b 4d fc	 mov	 ecx, DWORD PTR __My_data$2[ebp]
  0001a	8b 40 04	 mov	 eax, DWORD PTR [eax+4]
  0001d	2b 01		 sub	 eax, DWORD PTR [ecx]
  0001f	99		 cdq
  00020	6a 30		 push	 48			; 00000030H
  00022	59		 pop	 ecx
  00023	f7 f9		 idiv	 ecx
  00025	89 45 f4	 mov	 DWORD PTR $T1[ebp], eax
; File D:\Metin2 Server Files\mainline\SRC_2014\Metin2Client\GameLib\ItemData.cpp

; 68   : 	return m_AttachingDataVector.size();

  00028	8b 45 f4	 mov	 eax, DWORD PTR $T1[ebp]

; 69   : }

  0002b	c9		 leave
  0002c	c3		 ret	 0
?GetAttachingDataCount@CItemData@@QAEKXZ ENDP		; CItemData::GetAttachingDataCount
_TEXT	ENDS
; Function compile flags: /Odspy
; File D:\Metin2 Server Files\mainline\SRC_2014\Metin2Client\GameLib\ItemData.cpp
; File C:\Program Files (x86)\Microsoft Visual Studio\2019\Community\VC\Tools\MSVC\14.28.29333\include\vector
; File D:\Metin2 Server Files\mainline\SRC_2014\Metin2Client\GameLib\ItemData.cpp
; File C:\Program Files (x86)\Microsoft Visual Studio\2019\Community\VC\Tools\MSVC\14.28.29333\include\vector
; File D:\Metin2 Server Files\mainline\SRC_2014\Metin2Client\GameLib\ItemData.cpp
;	COMDAT ?GetLODModelThingPointer@CItemData@@QAEHKPAPAVCGraphicThing@@@Z
_TEXT	SEGMENT
$T1 = -20						; size = 4
__My_data$2 = -16					; size = 4
$T3 = -12						; size = 4
_this$ = -8						; size = 4
__My_data$4 = -4					; size = 4
_dwIndex$ = 8						; size = 4
_ppModelThing$ = 12					; size = 4
?GetLODModelThingPointer@CItemData@@QAEHKPAPAVCGraphicThing@@@Z PROC ; CItemData::GetLODModelThingPointer, COMDAT
; _this$ = ecx

; 57   : {

  00000	55		 push	 ebp
  00001	8b ec		 mov	 ebp, esp
  00003	83 ec 14	 sub	 esp, 20			; 00000014H
  00006	89 4d f8	 mov	 DWORD PTR _this$[ebp], ecx
; File C:\Program Files (x86)\Microsoft Visual Studio\2019\Community\VC\Tools\MSVC\14.28.29333\include\vector

; 1483 :         auto& _My_data = _Mypair._Myval2;

  00009	8b 45 f8	 mov	 eax, DWORD PTR _this$[ebp]
  0000c	05 b0 00 00 00	 add	 eax, 176		; 000000b0H
  00011	89 45 fc	 mov	 DWORD PTR __My_data$4[ebp], eax

; 1484 :         return static_cast<size_type>(_My_data._Mylast - _My_data._Myfirst);

  00014	8b 45 fc	 mov	 eax, DWORD PTR __My_data$4[ebp]
  00017	8b 4d fc	 mov	 ecx, DWORD PTR __My_data$4[ebp]
  0001a	8b 40 04	 mov	 eax, DWORD PTR [eax+4]
  0001d	2b 01		 sub	 eax, DWORD PTR [ecx]
  0001f	c1 f8 02	 sar	 eax, 2
  00022	89 45 f4	 mov	 DWORD PTR $T3[ebp], eax
; File D:\Metin2 Server Files\mainline\SRC_2014\Metin2Client\GameLib\ItemData.cpp

; 58   : 	if (dwIndex >= m_pLODModelThingVector.size())

  00025	8b 45 08	 mov	 eax, DWORD PTR _dwIndex$[ebp]
  00028	3b 45 f4	 cmp	 eax, DWORD PTR $T3[ebp]
  0002b	72 04		 jb	 SHORT $LN2@GetLODMode

; 59   : 		return FALSE;

  0002d	33 c0		 xor	 eax, eax
  0002f	eb 26		 jmp	 SHORT $LN1@GetLODMode
$LN2@GetLODMode:
; File C:\Program Files (x86)\Microsoft Visual Studio\2019\Community\VC\Tools\MSVC\14.28.29333\include\vector

; 1498 :         auto& _My_data = _Mypair._Myval2;

  00031	8b 45 f8	 mov	 eax, DWORD PTR _this$[ebp]
  00034	05 b0 00 00 00	 add	 eax, 176		; 000000b0H
  00039	89 45 f0	 mov	 DWORD PTR __My_data$2[ebp], eax

; 1499 : #if _CONTAINER_DEBUG_LEVEL > 0
; 1500 :         _STL_VERIFY(
; 1501 :             _Pos < static_cast<size_type>(_My_data._Mylast - _My_data._Myfirst), "vector subscript out of range");
; 1502 : #endif // _CONTAINER_DEBUG_LEVEL > 0
; 1503 : 
; 1504 :         return _My_data._Myfirst[_Pos];

  0003c	8b 45 f0	 mov	 eax, DWORD PTR __My_data$2[ebp]
  0003f	8b 00		 mov	 eax, DWORD PTR [eax]
  00041	8b 4d 08	 mov	 ecx, DWORD PTR _dwIndex$[ebp]
  00044	8d 04 88	 lea	 eax, DWORD PTR [eax+ecx*4]
  00047	89 45 ec	 mov	 DWORD PTR $T1[ebp], eax
; File D:\Metin2 Server Files\mainline\SRC_2014\Metin2Client\GameLib\ItemData.cpp

; 61   : 	*ppModelThing = m_pLODModelThingVector[dwIndex];

  0004a	8b 45 0c	 mov	 eax, DWORD PTR _ppModelThing$[ebp]
  0004d	8b 4d ec	 mov	 ecx, DWORD PTR $T1[ebp]
  00050	8b 09		 mov	 ecx, DWORD PTR [ecx]
  00052	89 08		 mov	 DWORD PTR [eax], ecx

; 62   : 
; 63   : 	return TRUE;

  00054	33 c0		 xor	 eax, eax
  00056	40		 inc	 eax
$LN1@GetLODMode:

; 64   : }

  00057	c9		 leave
  00058	c2 08 00	 ret	 8
?GetLODModelThingPointer@CItemData@@QAEHKPAPAVCGraphicThing@@@Z ENDP ; CItemData::GetLODModelThingPointer
_TEXT	ENDS
; Function compile flags: /Odspy
; File D:\Metin2 Server Files\mainline\SRC_2014\Metin2Client\GameLib\ItemData.cpp
; File C:\Program Files (x86)\Microsoft Visual Studio\2019\Community\VC\Tools\MSVC\14.28.29333\include\vector
; File D:\Metin2 Server Files\mainline\SRC_2014\Metin2Client\GameLib\ItemData.cpp
;	COMDAT ?GetLODModelThingCount@CItemData@@QAEKXZ
_TEXT	SEGMENT
$T1 = -12						; size = 4
_this$ = -8						; size = 4
__My_data$2 = -4					; size = 4
?GetLODModelThingCount@CItemData@@QAEKXZ PROC		; CItemData::GetLODModelThingCount, COMDAT
; _this$ = ecx

; 52   : {

  00000	55		 push	 ebp
  00001	8b ec		 mov	 ebp, esp
  00003	83 ec 0c	 sub	 esp, 12			; 0000000cH
  00006	89 4d f8	 mov	 DWORD PTR _this$[ebp], ecx
; File C:\Program Files (x86)\Microsoft Visual Studio\2019\Community\VC\Tools\MSVC\14.28.29333\include\vector

; 1483 :         auto& _My_data = _Mypair._Myval2;

  00009	8b 45 f8	 mov	 eax, DWORD PTR _this$[ebp]
  0000c	05 b0 00 00 00	 add	 eax, 176		; 000000b0H
  00011	89 45 fc	 mov	 DWORD PTR __My_data$2[ebp], eax

; 1484 :         return static_cast<size_type>(_My_data._Mylast - _My_data._Myfirst);

  00014	8b 45 fc	 mov	 eax, DWORD PTR __My_data$2[ebp]
  00017	8b 4d fc	 mov	 ecx, DWORD PTR __My_data$2[ebp]
  0001a	8b 40 04	 mov	 eax, DWORD PTR [eax+4]
  0001d	2b 01		 sub	 eax, DWORD PTR [ecx]
  0001f	c1 f8 02	 sar	 eax, 2
  00022	89 45 f4	 mov	 DWORD PTR $T1[ebp], eax
; File D:\Metin2 Server Files\mainline\SRC_2014\Metin2Client\GameLib\ItemData.cpp

; 53   : 	return m_pLODModelThingVector.size();

  00025	8b 45 f4	 mov	 eax, DWORD PTR $T1[ebp]

; 54   : }

  00028	c9		 leave
  00029	c3		 ret	 0
?GetLODModelThingCount@CItemData@@QAEKXZ ENDP		; CItemData::GetLODModelThingCount
_TEXT	ENDS
; Function compile flags: /Odspy
; File D:\Metin2 Server Files\mainline\SRC_2014\Metin2Client\GameLib\ItemData.cpp
; File C:\Program Files (x86)\Microsoft Visual Studio\2019\Community\VC\Tools\MSVC\14.28.29333\include\xstring
; File D:\Metin2 Server Files\mainline\SRC_2014\Metin2Client\GameLib\ItemData.cpp
;	COMDAT ?GetIconImage@CItemData@@QAEPAVCGraphicSubImage@@XZ
_TEXT	SEGMENT
$T1 = -16						; size = 4
tv80 = -12						; size = 4
_this$ = -8						; size = 4
$T2 = -1						; size = 1
?GetIconImage@CItemData@@QAEPAVCGraphicSubImage@@XZ PROC ; CItemData::GetIconImage, COMDAT
; _this$ = ecx

; 45   : {

  00000	55		 push	 ebp
  00001	8b ec		 mov	 ebp, esp
  00003	83 ec 10	 sub	 esp, 16			; 00000010H
  00006	89 4d f8	 mov	 DWORD PTR _this$[ebp], ecx

; 46   : 	if(m_pIconImage == NULL && m_strIconFileName.empty() == false)

  00009	8b 45 f8	 mov	 eax, DWORD PTR _this$[ebp]
  0000c	83 b8 ac 00 00
	00 00		 cmp	 DWORD PTR [eax+172], 0
  00013	75 3e		 jne	 SHORT $LN2@GetIconIma
; File C:\Program Files (x86)\Microsoft Visual Studio\2019\Community\VC\Tools\MSVC\14.28.29333\include\xstring

; 3770 :         return _Mypair._Myval2._Mysize;

  00015	8b 45 f8	 mov	 eax, DWORD PTR _this$[ebp]
  00018	8b 40 5c	 mov	 eax, DWORD PTR [eax+92]
  0001b	89 45 f0	 mov	 DWORD PTR $T1[ebp], eax

; 3848 :         return size() == 0;

  0001e	83 7d f0 00	 cmp	 DWORD PTR $T1[ebp], 0
  00022	75 09		 jne	 SHORT $LN6@GetIconIma
  00024	c7 45 f4 01 00
	00 00		 mov	 DWORD PTR tv80[ebp], 1
  0002b	eb 04		 jmp	 SHORT $LN7@GetIconIma
$LN6@GetIconIma:
  0002d	83 65 f4 00	 and	 DWORD PTR tv80[ebp], 0
$LN7@GetIconIma:
  00031	8a 45 f4	 mov	 al, BYTE PTR tv80[ebp]
  00034	88 45 ff	 mov	 BYTE PTR $T2[ebp], al
; File D:\Metin2 Server Files\mainline\SRC_2014\Metin2Client\GameLib\ItemData.cpp

; 46   : 	if(m_pIconImage == NULL && m_strIconFileName.empty() == false)

  00037	0f b6 45 ff	 movzx	 eax, BYTE PTR $T2[ebp]
  0003b	85 c0		 test	 eax, eax
  0003d	75 14		 jne	 SHORT $LN2@GetIconIma

; 47   : 		__SetIconImage(m_strIconFileName.c_str());

  0003f	8b 4d f8	 mov	 ecx, DWORD PTR _this$[ebp]
  00042	83 c1 4c	 add	 ecx, 76			; 0000004cH
  00045	e8 00 00 00 00	 call	 ?c_str@?$basic_string@DU?$char_traits@D@std@@V?$allocator@D@2@@std@@QBEPBDXZ ; std::basic_string<char,std::char_traits<char>,std::allocator<char> >::c_str
  0004a	50		 push	 eax
  0004b	8b 4d f8	 mov	 ecx, DWORD PTR _this$[ebp]
  0004e	e8 00 00 00 00	 call	 ?__SetIconImage@CItemData@@IAEXPBD@Z ; CItemData::__SetIconImage
$LN2@GetIconIma:

; 48   : 	return m_pIconImage;

  00053	8b 45 f8	 mov	 eax, DWORD PTR _this$[ebp]
  00056	8b 80 ac 00 00
	00		 mov	 eax, DWORD PTR [eax+172]

; 49   : }

  0005c	c9		 leave
  0005d	c3		 ret	 0
?GetIconImage@CItemData@@QAEPAVCGraphicSubImage@@XZ ENDP ; CItemData::GetIconImage
_TEXT	ENDS
; Function compile flags: /Odspy
; File D:\Metin2 Server Files\mainline\SRC_2014\Metin2Client\GameLib\ItemData.cpp
;	COMDAT ?GetDropModelThing@CItemData@@QAEPAVCGraphicThing@@XZ
_TEXT	SEGMENT
_this$ = -4						; size = 4
?GetDropModelThing@CItemData@@QAEPAVCGraphicThing@@XZ PROC ; CItemData::GetDropModelThing, COMDAT
; _this$ = ecx

; 40   : {

  00000	55		 push	 ebp
  00001	8b ec		 mov	 ebp, esp
  00003	51		 push	 ecx
  00004	89 4d fc	 mov	 DWORD PTR _this$[ebp], ecx

; 41   : 	return m_pDropModelThing;

  00007	8b 45 fc	 mov	 eax, DWORD PTR _this$[ebp]
  0000a	8b 80 a8 00 00
	00		 mov	 eax, DWORD PTR [eax+168]

; 42   : }

  00010	c9		 leave
  00011	c3		 ret	 0
?GetDropModelThing@CItemData@@QAEPAVCGraphicThing@@XZ ENDP ; CItemData::GetDropModelThing
_TEXT	ENDS
; Function compile flags: /Odspy
; File D:\Metin2 Server Files\mainline\SRC_2014\Metin2Client\GameLib\ItemData.cpp
;	COMDAT ?GetSubModelThing@CItemData@@QAEPAVCGraphicThing@@XZ
_TEXT	SEGMENT
_this$ = -4						; size = 4
?GetSubModelThing@CItemData@@QAEPAVCGraphicThing@@XZ PROC ; CItemData::GetSubModelThing, COMDAT
; _this$ = ecx

; 32   : {

  00000	55		 push	 ebp
  00001	8b ec		 mov	 ebp, esp
  00003	51		 push	 ecx
  00004	89 4d fc	 mov	 DWORD PTR _this$[ebp], ecx

; 33   : 	if (m_pSubModelThing)

  00007	8b 45 fc	 mov	 eax, DWORD PTR _this$[ebp]
  0000a	83 b8 a4 00 00
	00 00		 cmp	 DWORD PTR [eax+164], 0
  00011	74 0d		 je	 SHORT $LN2@GetSubMode

; 34   : 		return m_pSubModelThing;

  00013	8b 45 fc	 mov	 eax, DWORD PTR _this$[ebp]
  00016	8b 80 a4 00 00
	00		 mov	 eax, DWORD PTR [eax+164]
  0001c	eb 0b		 jmp	 SHORT $LN1@GetSubMode
  0001e	eb 09		 jmp	 SHORT $LN1@GetSubMode
$LN2@GetSubMode:

; 35   : 	else
; 36   : 		return m_pModelThing;

  00020	8b 45 fc	 mov	 eax, DWORD PTR _this$[ebp]
  00023	8b 80 a0 00 00
	00		 mov	 eax, DWORD PTR [eax+160]
$LN1@GetSubMode:

; 37   : }

  00029	c9		 leave
  0002a	c3		 ret	 0
?GetSubModelThing@CItemData@@QAEPAVCGraphicThing@@XZ ENDP ; CItemData::GetSubModelThing
_TEXT	ENDS
; Function compile flags: /Odspy
; File D:\Metin2 Server Files\mainline\SRC_2014\Metin2Client\GameLib\ItemData.cpp
;	COMDAT ?GetModelThing@CItemData@@QAEPAVCGraphicThing@@XZ
_TEXT	SEGMENT
_this$ = -4						; size = 4
?GetModelThing@CItemData@@QAEPAVCGraphicThing@@XZ PROC	; CItemData::GetModelThing, COMDAT
; _this$ = ecx

; 27   : {

  00000	55		 push	 ebp
  00001	8b ec		 mov	 ebp, esp
  00003	51		 push	 ecx
  00004	89 4d fc	 mov	 DWORD PTR _this$[ebp], ecx

; 28   : 	return m_pModelThing;

  00007	8b 45 fc	 mov	 eax, DWORD PTR _this$[ebp]
  0000a	8b 80 a0 00 00
	00		 mov	 eax, DWORD PTR [eax+160]

; 29   : }

  00010	c9		 leave
  00011	c3		 ret	 0
?GetModelThing@CItemData@@QAEPAVCGraphicThing@@XZ ENDP	; CItemData::GetModelThing
_TEXT	ENDS
; Function compile flags: /Odspy
; File D:\Metin2 Server Files\mainline\SRC_2014\Metin2Client\GameLib\ItemData.cpp
; File C:\Program Files (x86)\Microsoft Visual Studio\2019\Community\VC\Tools\MSVC\14.28.29333\include\xstddef
; File C:\Program Files (x86)\Microsoft Visual Studio\2019\Community\VC\Tools\MSVC\14.28.29333\include\xstring
; File D:\Metin2 Server Files\mainline\SRC_2014\Metin2Client\GameLib\ItemData.cpp
;	COMDAT ?SetDescription@CItemData@@QAEXABV?$basic_string@DU?$char_traits@D@std@@V?$allocator@D@2@@std@@@Z
_TEXT	SEGMENT
$T1 = -16						; size = 1
$T2 = -12						; size = 4
_this$ = -8						; size = 4
_this$ = -4						; size = 4
_c_rstDesc$ = 8						; size = 4
?SetDescription@CItemData@@QAEXABV?$basic_string@DU?$char_traits@D@std@@V?$allocator@D@2@@std@@@Z PROC ; CItemData::SetDescription, COMDAT
; _this$ = ecx

; 98   : {

  00000	55		 push	 ebp
  00001	8b ec		 mov	 ebp, esp
  00003	83 ec 10	 sub	 esp, 16			; 00000010H
  00006	89 4d f8	 mov	 DWORD PTR _this$[ebp], ecx

; 99   : 	m_strDescription=c_rstDesc;

  00009	8b 45 f8	 mov	 eax, DWORD PTR _this$[ebp]
  0000c	83 c0 64	 add	 eax, 100		; 00000064H
  0000f	89 45 fc	 mov	 DWORD PTR _this$[ebp], eax
; File C:\Program Files (x86)\Microsoft Visual Studio\2019\Community\VC\Tools\MSVC\14.28.29333\include\xstddef

; 275  :     return __builtin_addressof(_Val);

  00012	8b 45 08	 mov	 eax, DWORD PTR _c_rstDesc$[ebp]
  00015	89 45 f4	 mov	 DWORD PTR $T2[ebp], eax
; File C:\Program Files (x86)\Microsoft Visual Studio\2019\Community\VC\Tools\MSVC\14.28.29333\include\xstring

; 2863 :         if (this != _STD addressof(_Right)) {

  00018	8b 45 fc	 mov	 eax, DWORD PTR _this$[ebp]
  0001b	3b 45 f4	 cmp	 eax, DWORD PTR $T2[ebp]
  0001e	74 13		 je	 SHORT $LN1@SetDescrip

; 2864 :             _Copy_assign(_Right, _Choose_pocca<_Alty>{});

  00020	33 c0		 xor	 eax, eax
  00022	88 45 f0	 mov	 BYTE PTR $T1[ebp], al
  00025	ff 75 f0	 push	 DWORD PTR $T1[ebp]
  00028	ff 75 08	 push	 DWORD PTR _c_rstDesc$[ebp]
  0002b	8b 4d fc	 mov	 ecx, DWORD PTR _this$[ebp]
  0002e	e8 00 00 00 00	 call	 ?_Copy_assign@?$basic_string@DU?$char_traits@D@std@@V?$allocator@D@2@@std@@AAEXABV12@U?$integral_constant@_N$0A@@2@@Z ; std::basic_string<char,std::char_traits<char>,std::allocator<char> >::_Copy_assign
$LN1@SetDescrip:
; File D:\Metin2 Server Files\mainline\SRC_2014\Metin2Client\GameLib\ItemData.cpp

; 100  : }

  00033	c9		 leave
  00034	c2 04 00	 ret	 4
?SetDescription@CItemData@@QAEXABV?$basic_string@DU?$char_traits@D@std@@V?$allocator@D@2@@std@@@Z ENDP ; CItemData::SetDescription
_TEXT	ENDS
; Function compile flags: /Odspy
; File D:\Metin2 Server Files\mainline\SRC_2014\Metin2Client\GameLib\ItemData.cpp
; File C:\Program Files (x86)\Microsoft Visual Studio\2019\Community\VC\Tools\MSVC\14.28.29333\include\xstddef
; File C:\Program Files (x86)\Microsoft Visual Studio\2019\Community\VC\Tools\MSVC\14.28.29333\include\xstring
; File D:\Metin2 Server Files\mainline\SRC_2014\Metin2Client\GameLib\ItemData.cpp
;	COMDAT ?SetSummary@CItemData@@QAEXABV?$basic_string@DU?$char_traits@D@std@@V?$allocator@D@2@@std@@@Z
_TEXT	SEGMENT
$T1 = -16						; size = 1
$T2 = -12						; size = 4
_this$ = -8						; size = 4
_this$ = -4						; size = 4
_c_rstSumm$ = 8						; size = 4
?SetSummary@CItemData@@QAEXABV?$basic_string@DU?$char_traits@D@std@@V?$allocator@D@2@@std@@@Z PROC ; CItemData::SetSummary, COMDAT
; _this$ = ecx

; 93   : {

  00000	55		 push	 ebp
  00001	8b ec		 mov	 ebp, esp
  00003	83 ec 10	 sub	 esp, 16			; 00000010H
  00006	89 4d f8	 mov	 DWORD PTR _this$[ebp], ecx

; 94   : 	m_strSummary=c_rstSumm;

  00009	8b 45 f8	 mov	 eax, DWORD PTR _this$[ebp]
  0000c	83 c0 7c	 add	 eax, 124		; 0000007cH
  0000f	89 45 fc	 mov	 DWORD PTR _this$[ebp], eax
; File C:\Program Files (x86)\Microsoft Visual Studio\2019\Community\VC\Tools\MSVC\14.28.29333\include\xstddef

; 275  :     return __builtin_addressof(_Val);

  00012	8b 45 08	 mov	 eax, DWORD PTR _c_rstSumm$[ebp]
  00015	89 45 f4	 mov	 DWORD PTR $T2[ebp], eax
; File C:\Program Files (x86)\Microsoft Visual Studio\2019\Community\VC\Tools\MSVC\14.28.29333\include\xstring

; 2863 :         if (this != _STD addressof(_Right)) {

  00018	8b 45 fc	 mov	 eax, DWORD PTR _this$[ebp]
  0001b	3b 45 f4	 cmp	 eax, DWORD PTR $T2[ebp]
  0001e	74 13		 je	 SHORT $LN1@SetSummary

; 2864 :             _Copy_assign(_Right, _Choose_pocca<_Alty>{});

  00020	33 c0		 xor	 eax, eax
  00022	88 45 f0	 mov	 BYTE PTR $T1[ebp], al
  00025	ff 75 f0	 push	 DWORD PTR $T1[ebp]
  00028	ff 75 08	 push	 DWORD PTR _c_rstSumm$[ebp]
  0002b	8b 4d fc	 mov	 ecx, DWORD PTR _this$[ebp]
  0002e	e8 00 00 00 00	 call	 ?_Copy_assign@?$basic_string@DU?$char_traits@D@std@@V?$allocator@D@2@@std@@AAEXABV12@U?$integral_constant@_N$0A@@2@@Z ; std::basic_string<char,std::char_traits<char>,std::allocator<char> >::_Copy_assign
$LN1@SetSummary:
; File D:\Metin2 Server Files\mainline\SRC_2014\Metin2Client\GameLib\ItemData.cpp

; 95   : }

  00033	c9		 leave
  00034	c2 04 00	 ret	 4
?SetSummary@CItemData@@QAEXABV?$basic_string@DU?$char_traits@D@std@@V?$allocator@D@2@@std@@@Z ENDP ; CItemData::SetSummary
_TEXT	ENDS
; Function compile flags: /Odspy
; File D:\Metin2 Server Files\mainline\SRC_2014\Metin2Client\GameLib\ItemData.cpp
; File C:\Program Files (x86)\Microsoft Visual Studio\2019\Community\VC\Tools\MSVC\14.28.29333\include\xstring
; File C:\Program Files (x86)\Microsoft Visual Studio\2019\Community\VC\Tools\MSVC\14.28.29333\include\xmemory
; File C:\Program Files (x86)\Microsoft Visual Studio\2019\Community\VC\Tools\MSVC\14.28.29333\include\xstring
; File D:\Metin2 Server Files\mainline\SRC_2014\Metin2Client\GameLib\ItemData.cpp
; File C:\Program Files (x86)\Microsoft Visual Studio\2019\Community\VC\Tools\MSVC\14.28.29333\include\xstring
; File C:\Program Files (x86)\Microsoft Visual Studio\2019\Community\VC\Tools\MSVC\14.28.29333\include\xmemory
; File C:\Program Files (x86)\Microsoft Visual Studio\2019\Community\VC\Tools\MSVC\14.28.29333\include\xstring
; File D:\Metin2 Server Files\mainline\SRC_2014\Metin2Client\GameLib\ItemData.cpp
; File C:\Program Files (x86)\Microsoft Visual Studio\2019\Community\VC\Tools\MSVC\14.28.29333\include\xstring
; File C:\Program Files (x86)\Microsoft Visual Studio\2019\Community\VC\Tools\MSVC\14.28.29333\include\xmemory
; File C:\Program Files (x86)\Microsoft Visual Studio\2019\Community\VC\Tools\MSVC\14.28.29333\include\xstring
; File D:\Metin2 Server Files\mainline\SRC_2014\Metin2Client\GameLib\ItemData.cpp
; File C:\Program Files (x86)\Microsoft Visual Studio\2019\Community\VC\Tools\MSVC\14.28.29333\include\xstring
; File C:\Program Files (x86)\Microsoft Visual Studio\2019\Community\VC\Tools\MSVC\14.28.29333\include\xmemory
; File C:\Program Files (x86)\Microsoft Visual Studio\2019\Community\VC\Tools\MSVC\14.28.29333\include\xstring
; File D:\Metin2 Server Files\mainline\SRC_2014\Metin2Client\GameLib\ItemData.cpp
; File C:\Program Files (x86)\Microsoft Visual Studio\2019\Community\VC\Tools\MSVC\14.28.29333\include\xstring
; File C:\Program Files (x86)\Microsoft Visual Studio\2019\Community\VC\Tools\MSVC\14.28.29333\include\xmemory
; File C:\Program Files (x86)\Microsoft Visual Studio\2019\Community\VC\Tools\MSVC\14.28.29333\include\xstring
; File D:\Metin2 Server Files\mainline\SRC_2014\Metin2Client\GameLib\ItemData.cpp
; File C:\Program Files (x86)\Microsoft Visual Studio\2019\Community\VC\Tools\MSVC\14.28.29333\include\xstring
; File D:\Metin2 Server Files\mainline\SRC_2014\Metin2Client\GameLib\ItemData.cpp
;	COMDAT ?Clear@CItemData@@QAEXXZ
_TEXT	SEGMENT
$T1 = -44						; size = 4
$T2 = -40						; size = 4
$T3 = -36						; size = 4
$T4 = -32						; size = 4
$T5 = -28						; size = 4
$T6 = -24						; size = 4
$T7 = -20						; size = 4
$T8 = -16						; size = 4
$T9 = -12						; size = 4
$T10 = -8						; size = 4
_this$ = -4						; size = 4
?Clear@CItemData@@QAEXXZ PROC				; CItemData::Clear, COMDAT
; _this$ = ecx

; 440  : {

  00000	55		 push	 ebp
  00001	8b ec		 mov	 ebp, esp
  00003	83 ec 2c	 sub	 esp, 44			; 0000002cH
  00006	89 4d fc	 mov	 DWORD PTR _this$[ebp], ecx
; File C:\Program Files (x86)\Microsoft Visual Studio\2019\Community\VC\Tools\MSVC\14.28.29333\include\xstring

; 389  :         return _CSTD strlen(reinterpret_cast<const char*>(_First));

  00009	68 00 00 00 00	 push	 OFFSET ??_C@_00CNPNBAHC@@
  0000e	e8 00 00 00 00	 call	 _strlen
  00013	59		 pop	 ecx
  00014	89 45 f8	 mov	 DWORD PTR $T10[ebp], eax
; File C:\Program Files (x86)\Microsoft Visual Studio\2019\Community\VC\Tools\MSVC\14.28.29333\include\xmemory

; 997  :     return _Len;

  00017	8b 45 f8	 mov	 eax, DWORD PTR $T10[ebp]
  0001a	89 45 f4	 mov	 DWORD PTR $T9[ebp], eax
; File C:\Program Files (x86)\Microsoft Visual Studio\2019\Community\VC\Tools\MSVC\14.28.29333\include\xstring

; 3062 :         return assign(_Ptr, _Convert_size<size_type>(_Traits::length(_Ptr)));

  0001d	ff 75 f4	 push	 DWORD PTR $T9[ebp]
  00020	68 00 00 00 00	 push	 OFFSET ??_C@_00CNPNBAHC@@
; File D:\Metin2 Server Files\mainline\SRC_2014\Metin2Client\GameLib\ItemData.cpp

; 441  : 	m_strSummary = "";

  00025	8b 4d fc	 mov	 ecx, DWORD PTR _this$[ebp]
  00028	83 c1 7c	 add	 ecx, 124		; 0000007cH
; File C:\Program Files (x86)\Microsoft Visual Studio\2019\Community\VC\Tools\MSVC\14.28.29333\include\xstring

; 3062 :         return assign(_Ptr, _Convert_size<size_type>(_Traits::length(_Ptr)));

  0002b	e8 00 00 00 00	 call	 ?assign@?$basic_string@DU?$char_traits@D@std@@V?$allocator@D@2@@std@@QAEAAV12@QBDI@Z ; std::basic_string<char,std::char_traits<char>,std::allocator<char> >::assign

; 389  :         return _CSTD strlen(reinterpret_cast<const char*>(_First));

  00030	68 00 00 00 00	 push	 OFFSET ??_C@_00CNPNBAHC@@
  00035	e8 00 00 00 00	 call	 _strlen
  0003a	59		 pop	 ecx
  0003b	89 45 f0	 mov	 DWORD PTR $T8[ebp], eax
; File C:\Program Files (x86)\Microsoft Visual Studio\2019\Community\VC\Tools\MSVC\14.28.29333\include\xmemory

; 997  :     return _Len;

  0003e	8b 45 f0	 mov	 eax, DWORD PTR $T8[ebp]
  00041	89 45 ec	 mov	 DWORD PTR $T7[ebp], eax
; File C:\Program Files (x86)\Microsoft Visual Studio\2019\Community\VC\Tools\MSVC\14.28.29333\include\xstring

; 3062 :         return assign(_Ptr, _Convert_size<size_type>(_Traits::length(_Ptr)));

  00044	ff 75 ec	 push	 DWORD PTR $T7[ebp]
  00047	68 00 00 00 00	 push	 OFFSET ??_C@_00CNPNBAHC@@
; File D:\Metin2 Server Files\mainline\SRC_2014\Metin2Client\GameLib\ItemData.cpp

; 442  : 	m_strModelFileName = "";

  0004c	8b 4d fc	 mov	 ecx, DWORD PTR _this$[ebp]
  0004f	83 c1 04	 add	 ecx, 4
; File C:\Program Files (x86)\Microsoft Visual Studio\2019\Community\VC\Tools\MSVC\14.28.29333\include\xstring

; 3062 :         return assign(_Ptr, _Convert_size<size_type>(_Traits::length(_Ptr)));

  00052	e8 00 00 00 00	 call	 ?assign@?$basic_string@DU?$char_traits@D@std@@V?$allocator@D@2@@std@@QAEAAV12@QBDI@Z ; std::basic_string<char,std::char_traits<char>,std::allocator<char> >::assign

; 389  :         return _CSTD strlen(reinterpret_cast<const char*>(_First));

  00057	68 00 00 00 00	 push	 OFFSET ??_C@_00CNPNBAHC@@
  0005c	e8 00 00 00 00	 call	 _strlen
  00061	59		 pop	 ecx
  00062	89 45 e8	 mov	 DWORD PTR $T6[ebp], eax
; File C:\Program Files (x86)\Microsoft Visual Studio\2019\Community\VC\Tools\MSVC\14.28.29333\include\xmemory

; 997  :     return _Len;

  00065	8b 45 e8	 mov	 eax, DWORD PTR $T6[ebp]
  00068	89 45 e4	 mov	 DWORD PTR $T5[ebp], eax
; File C:\Program Files (x86)\Microsoft Visual Studio\2019\Community\VC\Tools\MSVC\14.28.29333\include\xstring

; 3062 :         return assign(_Ptr, _Convert_size<size_type>(_Traits::length(_Ptr)));

  0006b	ff 75 e4	 push	 DWORD PTR $T5[ebp]
  0006e	68 00 00 00 00	 push	 OFFSET ??_C@_00CNPNBAHC@@
; File D:\Metin2 Server Files\mainline\SRC_2014\Metin2Client\GameLib\ItemData.cpp

; 443  : 	m_strSubModelFileName = "";

  00073	8b 4d fc	 mov	 ecx, DWORD PTR _this$[ebp]
  00076	83 c1 1c	 add	 ecx, 28			; 0000001cH
; File C:\Program Files (x86)\Microsoft Visual Studio\2019\Community\VC\Tools\MSVC\14.28.29333\include\xstring

; 3062 :         return assign(_Ptr, _Convert_size<size_type>(_Traits::length(_Ptr)));

  00079	e8 00 00 00 00	 call	 ?assign@?$basic_string@DU?$char_traits@D@std@@V?$allocator@D@2@@std@@QAEAAV12@QBDI@Z ; std::basic_string<char,std::char_traits<char>,std::allocator<char> >::assign

; 389  :         return _CSTD strlen(reinterpret_cast<const char*>(_First));

  0007e	68 00 00 00 00	 push	 OFFSET ??_C@_00CNPNBAHC@@
  00083	e8 00 00 00 00	 call	 _strlen
  00088	59		 pop	 ecx
  00089	89 45 e0	 mov	 DWORD PTR $T4[ebp], eax
; File C:\Program Files (x86)\Microsoft Visual Studio\2019\Community\VC\Tools\MSVC\14.28.29333\include\xmemory

; 997  :     return _Len;

  0008c	8b 45 e0	 mov	 eax, DWORD PTR $T4[ebp]
  0008f	89 45 dc	 mov	 DWORD PTR $T3[ebp], eax
; File C:\Program Files (x86)\Microsoft Visual Studio\2019\Community\VC\Tools\MSVC\14.28.29333\include\xstring

; 3062 :         return assign(_Ptr, _Convert_size<size_type>(_Traits::length(_Ptr)));

  00092	ff 75 dc	 push	 DWORD PTR $T3[ebp]
  00095	68 00 00 00 00	 push	 OFFSET ??_C@_00CNPNBAHC@@
; File D:\Metin2 Server Files\mainline\SRC_2014\Metin2Client\GameLib\ItemData.cpp

; 444  : 	m_strDropModelFileName = "";

  0009a	8b 4d fc	 mov	 ecx, DWORD PTR _this$[ebp]
  0009d	83 c1 34	 add	 ecx, 52			; 00000034H
; File C:\Program Files (x86)\Microsoft Visual Studio\2019\Community\VC\Tools\MSVC\14.28.29333\include\xstring

; 3062 :         return assign(_Ptr, _Convert_size<size_type>(_Traits::length(_Ptr)));

  000a0	e8 00 00 00 00	 call	 ?assign@?$basic_string@DU?$char_traits@D@std@@V?$allocator@D@2@@std@@QAEAAV12@QBDI@Z ; std::basic_string<char,std::char_traits<char>,std::allocator<char> >::assign

; 389  :         return _CSTD strlen(reinterpret_cast<const char*>(_First));

  000a5	68 00 00 00 00	 push	 OFFSET ??_C@_00CNPNBAHC@@
  000aa	e8 00 00 00 00	 call	 _strlen
  000af	59		 pop	 ecx
  000b0	89 45 d8	 mov	 DWORD PTR $T2[ebp], eax
; File C:\Program Files (x86)\Microsoft Visual Studio\2019\Community\VC\Tools\MSVC\14.28.29333\include\xmemory

; 997  :     return _Len;

  000b3	8b 45 d8	 mov	 eax, DWORD PTR $T2[ebp]
  000b6	89 45 d4	 mov	 DWORD PTR $T1[ebp], eax
; File C:\Program Files (x86)\Microsoft Visual Studio\2019\Community\VC\Tools\MSVC\14.28.29333\include\xstring

; 3062 :         return assign(_Ptr, _Convert_size<size_type>(_Traits::length(_Ptr)));

  000b9	ff 75 d4	 push	 DWORD PTR $T1[ebp]
  000bc	68 00 00 00 00	 push	 OFFSET ??_C@_00CNPNBAHC@@
; File D:\Metin2 Server Files\mainline\SRC_2014\Metin2Client\GameLib\ItemData.cpp

; 445  : 	m_strIconFileName = "";

  000c1	8b 4d fc	 mov	 ecx, DWORD PTR _this$[ebp]
  000c4	83 c1 4c	 add	 ecx, 76			; 0000004cH
; File C:\Program Files (x86)\Microsoft Visual Studio\2019\Community\VC\Tools\MSVC\14.28.29333\include\xstring

; 3062 :         return assign(_Ptr, _Convert_size<size_type>(_Traits::length(_Ptr)));

  000c7	e8 00 00 00 00	 call	 ?assign@?$basic_string@DU?$char_traits@D@std@@V?$allocator@D@2@@std@@QAEAAV12@QBDI@Z ; std::basic_string<char,std::char_traits<char>,std::allocator<char> >::assign
; File D:\Metin2 Server Files\mainline\SRC_2014\Metin2Client\GameLib\ItemData.cpp

; 446  : 	m_strLODModelFileNameVector.clear();

  000cc	8b 4d fc	 mov	 ecx, DWORD PTR _this$[ebp]
  000cf	81 c1 94 00 00
	00		 add	 ecx, 148		; 00000094H
  000d5	e8 00 00 00 00	 call	 ?clear@?$vector@V?$basic_string@DU?$char_traits@D@std@@V?$allocator@D@2@@std@@V?$allocator@V?$basic_string@DU?$char_traits@D@std@@V?$allocator@D@2@@std@@@2@@std@@QAEXXZ ; std::vector<std::basic_string<char,std::char_traits<char>,std::allocator<char> >,std::allocator<std::basic_string<char,std::char_traits<char>,std::allocator<char> > > >::clear

; 447  : 
; 448  : 	m_pModelThing = NULL;

  000da	8b 45 fc	 mov	 eax, DWORD PTR _this$[ebp]
  000dd	83 a0 a0 00 00
	00 00		 and	 DWORD PTR [eax+160], 0

; 449  : 	m_pSubModelThing = NULL;

  000e4	8b 45 fc	 mov	 eax, DWORD PTR _this$[ebp]
  000e7	83 a0 a4 00 00
	00 00		 and	 DWORD PTR [eax+164], 0

; 450  : 	m_pDropModelThing = NULL;

  000ee	8b 45 fc	 mov	 eax, DWORD PTR _this$[ebp]
  000f1	83 a0 a8 00 00
	00 00		 and	 DWORD PTR [eax+168], 0

; 451  : 	m_pIconImage = NULL;

  000f8	8b 45 fc	 mov	 eax, DWORD PTR _this$[ebp]
  000fb	83 a0 ac 00 00
	00 00		 and	 DWORD PTR [eax+172], 0

; 452  : 	m_pLODModelThingVector.clear();

  00102	8b 4d fc	 mov	 ecx, DWORD PTR _this$[ebp]
  00105	81 c1 b0 00 00
	00		 add	 ecx, 176		; 000000b0H
  0010b	e8 00 00 00 00	 call	 ?clear@?$vector@PAVCGraphicThing@@V?$allocator@PAVCGraphicThing@@@std@@@std@@QAEXXZ ; std::vector<CGraphicThing *,std::allocator<CGraphicThing *> >::clear

; 453  : 
; 454  : 	memset(&m_ItemTable, 0, sizeof(m_ItemTable));

  00110	68 9c 00 00 00	 push	 156			; 0000009cH
  00115	6a 00		 push	 0
  00117	8b 45 fc	 mov	 eax, DWORD PTR _this$[ebp]
  0011a	05 cc 00 00 00	 add	 eax, 204		; 000000ccH
  0011f	50		 push	 eax
  00120	e8 00 00 00 00	 call	 _memset
  00125	83 c4 0c	 add	 esp, 12			; 0000000cH

; 455  : }

  00128	c9		 leave
  00129	c3		 ret	 0
?Clear@CItemData@@QAEXXZ ENDP				; CItemData::Clear
_TEXT	ENDS
; Function compile flags: /Odspy
; File D:\Metin2 Server Files\mainline\SRC_2014\Metin2Client\GameLib\ItemData.cpp
; File C:\Program Files (x86)\Microsoft Visual Studio\2019\Community\VC\Tools\MSVC\14.28.29333\include\vector
; File D:\Metin2 Server Files\mainline\SRC_2014\Metin2Client\GameLib\ItemData.cpp
; File C:\Program Files (x86)\Microsoft Visual Studio\2019\Community\VC\Tools\MSVC\14.28.29333\include\vector
; File D:\Metin2 Server Files\mainline\SRC_2014\Metin2Client\GameLib\ItemData.cpp
; File C:\Program Files (x86)\Microsoft Visual Studio\2019\Community\VC\Tools\MSVC\14.28.29333\include\vector
; File D:\Metin2 Server Files\mainline\SRC_2014\Metin2Client\GameLib\ItemData.cpp
; File C:\Program Files (x86)\Microsoft Visual Studio\2019\Community\VC\Tools\MSVC\14.28.29333\include\xstring
; File D:\Metin2 Server Files\mainline\SRC_2014\Metin2Client\GameLib\ItemData.cpp
; File C:\Program Files (x86)\Microsoft Visual Studio\2019\Community\VC\Tools\MSVC\14.28.29333\include\xstring
; File D:\Metin2 Server Files\mainline\SRC_2014\Metin2Client\GameLib\ItemData.cpp
; File C:\Program Files (x86)\Microsoft Visual Studio\2019\Community\VC\Tools\MSVC\14.28.29333\include\xstring
; File D:\Metin2 Server Files\mainline\SRC_2014\Metin2Client\GameLib\ItemData.cpp
; File C:\Program Files (x86)\Microsoft Visual Studio\2019\Community\VC\Tools\MSVC\14.28.29333\include\xstring
; File D:\Metin2 Server Files\mainline\SRC_2014\Metin2Client\GameLib\ItemData.cpp
; File C:\Program Files (x86)\Microsoft Visual Studio\2019\Community\VC\Tools\MSVC\14.28.29333\include\xstring
; File D:\Metin2 Server Files\mainline\SRC_2014\Metin2Client\GameLib\ItemData.cpp
; File C:\Program Files (x86)\Microsoft Visual Studio\2019\Community\VC\Tools\MSVC\14.28.29333\include\xstring
; File D:\Metin2 Server Files\mainline\SRC_2014\Metin2Client\GameLib\ItemData.cpp
;	COMDAT ??1CItemData@@UAE@XZ
_TEXT	SEGMENT
_this$ = -4						; size = 4
??1CItemData@@UAE@XZ PROC				; CItemData::~CItemData, COMDAT
; _this$ = ecx

; 463  : {

  00000	55		 push	 ebp
  00001	8b ec		 mov	 ebp, esp
  00003	51		 push	 ecx
  00004	89 4d fc	 mov	 DWORD PTR _this$[ebp], ecx
  00007	8b 45 fc	 mov	 eax, DWORD PTR _this$[ebp]
  0000a	c7 00 00 00 00
	00		 mov	 DWORD PTR [eax], OFFSET ??_7CItemData@@6B@

; 464  : }

  00010	8b 4d fc	 mov	 ecx, DWORD PTR _this$[ebp]
  00013	81 c1 bc 00 00
	00		 add	 ecx, 188		; 000000bcH
; File C:\Program Files (x86)\Microsoft Visual Studio\2019\Community\VC\Tools\MSVC\14.28.29333\include\vector

; 673  :         _Tidy();

  00019	e8 00 00 00 00	 call	 ?_Tidy@?$vector@USAttachingData@NRaceData@@V?$allocator@USAttachingData@NRaceData@@@std@@@std@@AAEXXZ ; std::vector<NRaceData::SAttachingData,std::allocator<NRaceData::SAttachingData> >::_Tidy
; File D:\Metin2 Server Files\mainline\SRC_2014\Metin2Client\GameLib\ItemData.cpp

; 464  : }

  0001e	8b 4d fc	 mov	 ecx, DWORD PTR _this$[ebp]
  00021	81 c1 b0 00 00
	00		 add	 ecx, 176		; 000000b0H
; File C:\Program Files (x86)\Microsoft Visual Studio\2019\Community\VC\Tools\MSVC\14.28.29333\include\vector

; 673  :         _Tidy();

  00027	e8 00 00 00 00	 call	 ?_Tidy@?$vector@PAVCGraphicThing@@V?$allocator@PAVCGraphicThing@@@std@@@std@@AAEXXZ ; std::vector<CGraphicThing *,std::allocator<CGraphicThing *> >::_Tidy
; File D:\Metin2 Server Files\mainline\SRC_2014\Metin2Client\GameLib\ItemData.cpp

; 464  : }

  0002c	8b 4d fc	 mov	 ecx, DWORD PTR _this$[ebp]
  0002f	81 c1 94 00 00
	00		 add	 ecx, 148		; 00000094H
; File C:\Program Files (x86)\Microsoft Visual Studio\2019\Community\VC\Tools\MSVC\14.28.29333\include\vector

; 673  :         _Tidy();

  00035	e8 00 00 00 00	 call	 ?_Tidy@?$vector@V?$basic_string@DU?$char_traits@D@std@@V?$allocator@D@2@@std@@V?$allocator@V?$basic_string@DU?$char_traits@D@std@@V?$allocator@D@2@@std@@@2@@std@@AAEXXZ ; std::vector<std::basic_string<char,std::char_traits<char>,std::allocator<char> >,std::allocator<std::basic_string<char,std::char_traits<char>,std::allocator<char> > > >::_Tidy
; File D:\Metin2 Server Files\mainline\SRC_2014\Metin2Client\GameLib\ItemData.cpp

; 464  : }

  0003a	8b 4d fc	 mov	 ecx, DWORD PTR _this$[ebp]
  0003d	83 c1 7c	 add	 ecx, 124		; 0000007cH
; File C:\Program Files (x86)\Microsoft Visual Studio\2019\Community\VC\Tools\MSVC\14.28.29333\include\xstring

; 2801 :         _Tidy_deallocate();

  00040	e8 00 00 00 00	 call	 ?_Tidy_deallocate@?$basic_string@DU?$char_traits@D@std@@V?$allocator@D@2@@std@@AAEXXZ ; std::basic_string<char,std::char_traits<char>,std::allocator<char> >::_Tidy_deallocate
; File D:\Metin2 Server Files\mainline\SRC_2014\Metin2Client\GameLib\ItemData.cpp

; 464  : }

  00045	8b 4d fc	 mov	 ecx, DWORD PTR _this$[ebp]
  00048	83 c1 64	 add	 ecx, 100		; 00000064H
; File C:\Program Files (x86)\Microsoft Visual Studio\2019\Community\VC\Tools\MSVC\14.28.29333\include\xstring

; 2801 :         _Tidy_deallocate();

  0004b	e8 00 00 00 00	 call	 ?_Tidy_deallocate@?$basic_string@DU?$char_traits@D@std@@V?$allocator@D@2@@std@@AAEXXZ ; std::basic_string<char,std::char_traits<char>,std::allocator<char> >::_Tidy_deallocate
; File D:\Metin2 Server Files\mainline\SRC_2014\Metin2Client\GameLib\ItemData.cpp

; 464  : }

  00050	8b 4d fc	 mov	 ecx, DWORD PTR _this$[ebp]
  00053	83 c1 4c	 add	 ecx, 76			; 0000004cH
; File C:\Program Files (x86)\Microsoft Visual Studio\2019\Community\VC\Tools\MSVC\14.28.29333\include\xstring

; 2801 :         _Tidy_deallocate();

  00056	e8 00 00 00 00	 call	 ?_Tidy_deallocate@?$basic_string@DU?$char_traits@D@std@@V?$allocator@D@2@@std@@AAEXXZ ; std::basic_string<char,std::char_traits<char>,std::allocator<char> >::_Tidy_deallocate
; File D:\Metin2 Server Files\mainline\SRC_2014\Metin2Client\GameLib\ItemData.cpp

; 464  : }

  0005b	8b 4d fc	 mov	 ecx, DWORD PTR _this$[ebp]
  0005e	83 c1 34	 add	 ecx, 52			; 00000034H
; File C:\Program Files (x86)\Microsoft Visual Studio\2019\Community\VC\Tools\MSVC\14.28.29333\include\xstring

; 2801 :         _Tidy_deallocate();

  00061	e8 00 00 00 00	 call	 ?_Tidy_deallocate@?$basic_string@DU?$char_traits@D@std@@V?$allocator@D@2@@std@@AAEXXZ ; std::basic_string<char,std::char_traits<char>,std::allocator<char> >::_Tidy_deallocate
; File D:\Metin2 Server Files\mainline\SRC_2014\Metin2Client\GameLib\ItemData.cpp

; 464  : }

  00066	8b 4d fc	 mov	 ecx, DWORD PTR _this$[ebp]
  00069	83 c1 1c	 add	 ecx, 28			; 0000001cH
; File C:\Program Files (x86)\Microsoft Visual Studio\2019\Community\VC\Tools\MSVC\14.28.29333\include\xstring

; 2801 :         _Tidy_deallocate();

  0006c	e8 00 00 00 00	 call	 ?_Tidy_deallocate@?$basic_string@DU?$char_traits@D@std@@V?$allocator@D@2@@std@@AAEXXZ ; std::basic_string<char,std::char_traits<char>,std::allocator<char> >::_Tidy_deallocate
; File D:\Metin2 Server Files\mainline\SRC_2014\Metin2Client\GameLib\ItemData.cpp

; 464  : }

  00071	8b 4d fc	 mov	 ecx, DWORD PTR _this$[ebp]
  00074	83 c1 04	 add	 ecx, 4
; File C:\Program Files (x86)\Microsoft Visual Studio\2019\Community\VC\Tools\MSVC\14.28.29333\include\xstring

; 2801 :         _Tidy_deallocate();

  00077	e8 00 00 00 00	 call	 ?_Tidy_deallocate@?$basic_string@DU?$char_traits@D@std@@V?$allocator@D@2@@std@@AAEXXZ ; std::basic_string<char,std::char_traits<char>,std::allocator<char> >::_Tidy_deallocate
; File D:\Metin2 Server Files\mainline\SRC_2014\Metin2Client\GameLib\ItemData.cpp

; 464  : }

  0007c	c9		 leave
  0007d	c3		 ret	 0
??1CItemData@@UAE@XZ ENDP				; CItemData::~CItemData
_TEXT	ENDS
; Function compile flags: /Odspy
; File D:\Metin2 Server Files\mainline\SRC_2014\Metin2Client\GameLib\ItemData.cpp
; File C:\Program Files (x86)\Microsoft Visual Studio\2019\Community\VC\Tools\MSVC\14.28.29333\include\xstring
; File C:\Program Files (x86)\Microsoft Visual Studio\2019\Community\VC\Tools\MSVC\14.28.29333\include\xmemory
; File C:\Program Files (x86)\Microsoft Visual Studio\2019\Community\VC\Tools\MSVC\14.28.29333\include\xstring
; File D:\Metin2 Server Files\mainline\SRC_2014\Metin2Client\GameLib\ItemData.cpp
; File C:\Program Files (x86)\Microsoft Visual Studio\2019\Community\VC\Tools\MSVC\14.28.29333\include\xstring
; File C:\Program Files (x86)\Microsoft Visual Studio\2019\Community\VC\Tools\MSVC\14.28.29333\include\xmemory
; File C:\Program Files (x86)\Microsoft Visual Studio\2019\Community\VC\Tools\MSVC\14.28.29333\include\xstring
; File D:\Metin2 Server Files\mainline\SRC_2014\Metin2Client\GameLib\ItemData.cpp
; File C:\Program Files (x86)\Microsoft Visual Studio\2019\Community\VC\Tools\MSVC\14.28.29333\include\xstring
; File C:\Program Files (x86)\Microsoft Visual Studio\2019\Community\VC\Tools\MSVC\14.28.29333\include\xmemory
; File C:\Program Files (x86)\Microsoft Visual Studio\2019\Community\VC\Tools\MSVC\14.28.29333\include\xstring
; File D:\Metin2 Server Files\mainline\SRC_2014\Metin2Client\GameLib\ItemData.cpp
; File C:\Program Files (x86)\Microsoft Visual Studio\2019\Community\VC\Tools\MSVC\14.28.29333\include\xstring
; File C:\Program Files (x86)\Microsoft Visual Studio\2019\Community\VC\Tools\MSVC\14.28.29333\include\xmemory
; File C:\Program Files (x86)\Microsoft Visual Studio\2019\Community\VC\Tools\MSVC\14.28.29333\include\xstring
; File D:\Metin2 Server Files\mainline\SRC_2014\Metin2Client\GameLib\ItemData.cpp
; File C:\Program Files (x86)\Microsoft Visual Studio\2019\Community\VC\Tools\MSVC\14.28.29333\include\xstring
; File C:\Program Files (x86)\Microsoft Visual Studio\2019\Community\VC\Tools\MSVC\14.28.29333\include\xmemory
; File C:\Program Files (x86)\Microsoft Visual Studio\2019\Community\VC\Tools\MSVC\14.28.29333\include\xstring
; File D:\Metin2 Server Files\mainline\SRC_2014\Metin2Client\GameLib\ItemData.cpp
; File C:\Program Files (x86)\Microsoft Visual Studio\2019\Community\VC\Tools\MSVC\14.28.29333\include\xstring
; File C:\Program Files (x86)\Microsoft Visual Studio\2019\Community\VC\Tools\MSVC\14.28.29333\include\xmemory
; File C:\Program Files (x86)\Microsoft Visual Studio\2019\Community\VC\Tools\MSVC\14.28.29333\include\xstring
; File D:\Metin2 Server Files\mainline\SRC_2014\Metin2Client\GameLib\ItemData.cpp
; File C:\Program Files (x86)\Microsoft Visual Studio\2019\Community\VC\Tools\MSVC\14.28.29333\include\vector
; File C:\Program Files (x86)\Microsoft Visual Studio\2019\Community\VC\Tools\MSVC\14.28.29333\include\xmemory
; File D:\Metin2 Server Files\mainline\SRC_2014\Metin2Client\GameLib\ItemData.cpp
; File C:\Program Files (x86)\Microsoft Visual Studio\2019\Community\VC\Tools\MSVC\14.28.29333\include\vector
; File C:\Program Files (x86)\Microsoft Visual Studio\2019\Community\VC\Tools\MSVC\14.28.29333\include\xmemory
; File D:\Metin2 Server Files\mainline\SRC_2014\Metin2Client\GameLib\ItemData.cpp
; File C:\Program Files (x86)\Microsoft Visual Studio\2019\Community\VC\Tools\MSVC\14.28.29333\include\vector
; File C:\Program Files (x86)\Microsoft Visual Studio\2019\Community\VC\Tools\MSVC\14.28.29333\include\xmemory
; File C:\Program Files (x86)\Microsoft Visual Studio\2019\Community\VC\Tools\MSVC\14.28.29333\include\vector
; File D:\Metin2 Server Files\mainline\SRC_2014\Metin2Client\GameLib\ItemData.cpp
;	COMDAT ??0CItemData@@QAE@XZ
_TEXT	SEGMENT
_this$ = -92						; size = 4
_this$ = -88						; size = 4
_this$ = -84						; size = 4
_this$ = -80						; size = 4
_this$ = -76						; size = 4
_this$ = -72						; size = 4
_this$ = -68						; size = 4
_this$ = -64						; size = 4
_this$ = -60						; size = 4
_this$ = -56						; size = 4
_this$ = -52						; size = 4
_this$ = -48						; size = 4
_this$ = -44						; size = 4
_this$ = -40						; size = 4
_this$ = -36						; size = 4
_this$ = -32						; size = 4
_this$ = -28						; size = 4
_this$ = -24						; size = 4
_this$2 = -20						; size = 4
_this$ = -16						; size = 4
__$EHRec$ = -12						; size = 12
??0CItemData@@QAE@XZ PROC				; CItemData::CItemData, COMDAT
; _this$ = ecx

; 458  : {

  00000	55		 push	 ebp
  00001	8b ec		 mov	 ebp, esp
  00003	6a ff		 push	 -1
  00005	68 00 00 00 00	 push	 __ehhandler$??0CItemData@@QAE@XZ
  0000a	64 a1 00 00 00
	00		 mov	 eax, DWORD PTR fs:0
  00010	50		 push	 eax
  00011	83 ec 50	 sub	 esp, 80			; 00000050H
  00014	a1 00 00 00 00	 mov	 eax, DWORD PTR ___security_cookie
  00019	33 c5		 xor	 eax, ebp
  0001b	50		 push	 eax
  0001c	8d 45 f4	 lea	 eax, DWORD PTR __$EHRec$[ebp]
  0001f	64 a3 00 00 00
	00		 mov	 DWORD PTR fs:0, eax
  00025	89 4d f0	 mov	 DWORD PTR _this$[ebp], ecx
  00028	8b 45 f0	 mov	 eax, DWORD PTR _this$[ebp]
  0002b	c7 00 00 00 00
	00		 mov	 DWORD PTR [eax], OFFSET ??_7CItemData@@6B@
  00031	8b 45 f0	 mov	 eax, DWORD PTR _this$[ebp]
  00034	83 c0 04	 add	 eax, 4
  00037	89 45 e8	 mov	 DWORD PTR _this$[ebp], eax
; File C:\Program Files (x86)\Microsoft Visual Studio\2019\Community\VC\Tools\MSVC\14.28.29333\include\xstring

; 2365 :     basic_string() noexcept(is_nothrow_default_constructible_v<_Alty>) : _Mypair(_Zero_then_variadic_args_t{}) {

  0003a	8b 45 e8	 mov	 eax, DWORD PTR _this$[ebp]
  0003d	89 45 d0	 mov	 DWORD PTR _this$[ebp], eax
; File C:\Program Files (x86)\Microsoft Visual Studio\2019\Community\VC\Tools\MSVC\14.28.29333\include\xmemory

; 1339 :         : _Ty1(), _Myval2(_STD forward<_Other2>(_Val2)...) {}

  00040	8b 4d d0	 mov	 ecx, DWORD PTR _this$[ebp]
  00043	e8 00 00 00 00	 call	 ??0?$_String_val@U?$_Simple_types@D@std@@@std@@QAE@XZ ; std::_String_val<std::_Simple_types<char> >::_String_val<std::_Simple_types<char> >
; File C:\Program Files (x86)\Microsoft Visual Studio\2019\Community\VC\Tools\MSVC\14.28.29333\include\xstring

; 2367 :         _Tidy_init();

  00048	8b 4d e8	 mov	 ecx, DWORD PTR _this$[ebp]
  0004b	e8 00 00 00 00	 call	 ?_Tidy_init@?$basic_string@DU?$char_traits@D@std@@V?$allocator@D@2@@std@@AAEXXZ ; std::basic_string<char,std::char_traits<char>,std::allocator<char> >::_Tidy_init
; File D:\Metin2 Server Files\mainline\SRC_2014\Metin2Client\GameLib\ItemData.cpp

; 458  : {

  00050	83 65 fc 00	 and	 DWORD PTR __$EHRec$[ebp+8], 0
  00054	8b 45 f0	 mov	 eax, DWORD PTR _this$[ebp]
  00057	83 c0 1c	 add	 eax, 28			; 0000001cH
  0005a	89 45 e4	 mov	 DWORD PTR _this$[ebp], eax
; File C:\Program Files (x86)\Microsoft Visual Studio\2019\Community\VC\Tools\MSVC\14.28.29333\include\xstring

; 2365 :     basic_string() noexcept(is_nothrow_default_constructible_v<_Alty>) : _Mypair(_Zero_then_variadic_args_t{}) {

  0005d	8b 45 e4	 mov	 eax, DWORD PTR _this$[ebp]
  00060	89 45 cc	 mov	 DWORD PTR _this$[ebp], eax
; File C:\Program Files (x86)\Microsoft Visual Studio\2019\Community\VC\Tools\MSVC\14.28.29333\include\xmemory

; 1339 :         : _Ty1(), _Myval2(_STD forward<_Other2>(_Val2)...) {}

  00063	8b 4d cc	 mov	 ecx, DWORD PTR _this$[ebp]
  00066	e8 00 00 00 00	 call	 ??0?$_String_val@U?$_Simple_types@D@std@@@std@@QAE@XZ ; std::_String_val<std::_Simple_types<char> >::_String_val<std::_Simple_types<char> >
; File C:\Program Files (x86)\Microsoft Visual Studio\2019\Community\VC\Tools\MSVC\14.28.29333\include\xstring

; 2367 :         _Tidy_init();

  0006b	8b 4d e4	 mov	 ecx, DWORD PTR _this$[ebp]
  0006e	e8 00 00 00 00	 call	 ?_Tidy_init@?$basic_string@DU?$char_traits@D@std@@V?$allocator@D@2@@std@@AAEXXZ ; std::basic_string<char,std::char_traits<char>,std::allocator<char> >::_Tidy_init
; File D:\Metin2 Server Files\mainline\SRC_2014\Metin2Client\GameLib\ItemData.cpp

; 458  : {

  00073	c6 45 fc 01	 mov	 BYTE PTR __$EHRec$[ebp+8], 1
  00077	8b 45 f0	 mov	 eax, DWORD PTR _this$[ebp]
  0007a	83 c0 34	 add	 eax, 52			; 00000034H
  0007d	89 45 e0	 mov	 DWORD PTR _this$[ebp], eax
; File C:\Program Files (x86)\Microsoft Visual Studio\2019\Community\VC\Tools\MSVC\14.28.29333\include\xstring

; 2365 :     basic_string() noexcept(is_nothrow_default_constructible_v<_Alty>) : _Mypair(_Zero_then_variadic_args_t{}) {

  00080	8b 45 e0	 mov	 eax, DWORD PTR _this$[ebp]
  00083	89 45 c8	 mov	 DWORD PTR _this$[ebp], eax
; File C:\Program Files (x86)\Microsoft Visual Studio\2019\Community\VC\Tools\MSVC\14.28.29333\include\xmemory

; 1339 :         : _Ty1(), _Myval2(_STD forward<_Other2>(_Val2)...) {}

  00086	8b 4d c8	 mov	 ecx, DWORD PTR _this$[ebp]
  00089	e8 00 00 00 00	 call	 ??0?$_String_val@U?$_Simple_types@D@std@@@std@@QAE@XZ ; std::_String_val<std::_Simple_types<char> >::_String_val<std::_Simple_types<char> >
; File C:\Program Files (x86)\Microsoft Visual Studio\2019\Community\VC\Tools\MSVC\14.28.29333\include\xstring

; 2367 :         _Tidy_init();

  0008e	8b 4d e0	 mov	 ecx, DWORD PTR _this$[ebp]
  00091	e8 00 00 00 00	 call	 ?_Tidy_init@?$basic_string@DU?$char_traits@D@std@@V?$allocator@D@2@@std@@AAEXXZ ; std::basic_string<char,std::char_traits<char>,std::allocator<char> >::_Tidy_init
; File D:\Metin2 Server Files\mainline\SRC_2014\Metin2Client\GameLib\ItemData.cpp

; 458  : {

  00096	c6 45 fc 02	 mov	 BYTE PTR __$EHRec$[ebp+8], 2
  0009a	8b 45 f0	 mov	 eax, DWORD PTR _this$[ebp]
  0009d	83 c0 4c	 add	 eax, 76			; 0000004cH
  000a0	89 45 dc	 mov	 DWORD PTR _this$[ebp], eax
; File C:\Program Files (x86)\Microsoft Visual Studio\2019\Community\VC\Tools\MSVC\14.28.29333\include\xstring

; 2365 :     basic_string() noexcept(is_nothrow_default_constructible_v<_Alty>) : _Mypair(_Zero_then_variadic_args_t{}) {

  000a3	8b 45 dc	 mov	 eax, DWORD PTR _this$[ebp]
  000a6	89 45 c4	 mov	 DWORD PTR _this$[ebp], eax
; File C:\Program Files (x86)\Microsoft Visual Studio\2019\Community\VC\Tools\MSVC\14.28.29333\include\xmemory

; 1339 :         : _Ty1(), _Myval2(_STD forward<_Other2>(_Val2)...) {}

  000a9	8b 4d c4	 mov	 ecx, DWORD PTR _this$[ebp]
  000ac	e8 00 00 00 00	 call	 ??0?$_String_val@U?$_Simple_types@D@std@@@std@@QAE@XZ ; std::_String_val<std::_Simple_types<char> >::_String_val<std::_Simple_types<char> >
; File C:\Program Files (x86)\Microsoft Visual Studio\2019\Community\VC\Tools\MSVC\14.28.29333\include\xstring

; 2367 :         _Tidy_init();

  000b1	8b 4d dc	 mov	 ecx, DWORD PTR _this$[ebp]
  000b4	e8 00 00 00 00	 call	 ?_Tidy_init@?$basic_string@DU?$char_traits@D@std@@V?$allocator@D@2@@std@@AAEXXZ ; std::basic_string<char,std::char_traits<char>,std::allocator<char> >::_Tidy_init
; File D:\Metin2 Server Files\mainline\SRC_2014\Metin2Client\GameLib\ItemData.cpp

; 458  : {

  000b9	c6 45 fc 03	 mov	 BYTE PTR __$EHRec$[ebp+8], 3
  000bd	8b 45 f0	 mov	 eax, DWORD PTR _this$[ebp]
  000c0	83 c0 64	 add	 eax, 100		; 00000064H
  000c3	89 45 d8	 mov	 DWORD PTR _this$[ebp], eax
; File C:\Program Files (x86)\Microsoft Visual Studio\2019\Community\VC\Tools\MSVC\14.28.29333\include\xstring

; 2365 :     basic_string() noexcept(is_nothrow_default_constructible_v<_Alty>) : _Mypair(_Zero_then_variadic_args_t{}) {

  000c6	8b 45 d8	 mov	 eax, DWORD PTR _this$[ebp]
  000c9	89 45 c0	 mov	 DWORD PTR _this$[ebp], eax
; File C:\Program Files (x86)\Microsoft Visual Studio\2019\Community\VC\Tools\MSVC\14.28.29333\include\xmemory

; 1339 :         : _Ty1(), _Myval2(_STD forward<_Other2>(_Val2)...) {}

  000cc	8b 4d c0	 mov	 ecx, DWORD PTR _this$[ebp]
  000cf	e8 00 00 00 00	 call	 ??0?$_String_val@U?$_Simple_types@D@std@@@std@@QAE@XZ ; std::_String_val<std::_Simple_types<char> >::_String_val<std::_Simple_types<char> >
; File C:\Program Files (x86)\Microsoft Visual Studio\2019\Community\VC\Tools\MSVC\14.28.29333\include\xstring

; 2367 :         _Tidy_init();

  000d4	8b 4d d8	 mov	 ecx, DWORD PTR _this$[ebp]
  000d7	e8 00 00 00 00	 call	 ?_Tidy_init@?$basic_string@DU?$char_traits@D@std@@V?$allocator@D@2@@std@@AAEXXZ ; std::basic_string<char,std::char_traits<char>,std::allocator<char> >::_Tidy_init
; File D:\Metin2 Server Files\mainline\SRC_2014\Metin2Client\GameLib\ItemData.cpp

; 458  : {

  000dc	c6 45 fc 04	 mov	 BYTE PTR __$EHRec$[ebp+8], 4
  000e0	8b 45 f0	 mov	 eax, DWORD PTR _this$[ebp]
  000e3	83 c0 7c	 add	 eax, 124		; 0000007cH
  000e6	89 45 d4	 mov	 DWORD PTR _this$[ebp], eax
; File C:\Program Files (x86)\Microsoft Visual Studio\2019\Community\VC\Tools\MSVC\14.28.29333\include\xstring

; 2365 :     basic_string() noexcept(is_nothrow_default_constructible_v<_Alty>) : _Mypair(_Zero_then_variadic_args_t{}) {

  000e9	8b 45 d4	 mov	 eax, DWORD PTR _this$[ebp]
  000ec	89 45 bc	 mov	 DWORD PTR _this$[ebp], eax
; File C:\Program Files (x86)\Microsoft Visual Studio\2019\Community\VC\Tools\MSVC\14.28.29333\include\xmemory

; 1339 :         : _Ty1(), _Myval2(_STD forward<_Other2>(_Val2)...) {}

  000ef	8b 4d bc	 mov	 ecx, DWORD PTR _this$[ebp]
  000f2	e8 00 00 00 00	 call	 ??0?$_String_val@U?$_Simple_types@D@std@@@std@@QAE@XZ ; std::_String_val<std::_Simple_types<char> >::_String_val<std::_Simple_types<char> >
; File C:\Program Files (x86)\Microsoft Visual Studio\2019\Community\VC\Tools\MSVC\14.28.29333\include\xstring

; 2367 :         _Tidy_init();

  000f7	8b 4d d4	 mov	 ecx, DWORD PTR _this$[ebp]
  000fa	e8 00 00 00 00	 call	 ?_Tidy_init@?$basic_string@DU?$char_traits@D@std@@V?$allocator@D@2@@std@@AAEXXZ ; std::basic_string<char,std::char_traits<char>,std::allocator<char> >::_Tidy_init
; File D:\Metin2 Server Files\mainline\SRC_2014\Metin2Client\GameLib\ItemData.cpp

; 458  : {

  000ff	c6 45 fc 05	 mov	 BYTE PTR __$EHRec$[ebp+8], 5
  00103	8b 45 f0	 mov	 eax, DWORD PTR _this$[ebp]
  00106	05 94 00 00 00	 add	 eax, 148		; 00000094H
  0010b	89 45 b8	 mov	 DWORD PTR _this$[ebp], eax
; File C:\Program Files (x86)\Microsoft Visual Studio\2019\Community\VC\Tools\MSVC\14.28.29333\include\vector

; 445  :     vector() noexcept(is_nothrow_default_constructible_v<_Alty>) : _Mypair(_Zero_then_variadic_args_t{}) {

  0010e	8b 45 b8	 mov	 eax, DWORD PTR _this$[ebp]
  00111	89 45 b4	 mov	 DWORD PTR _this$[ebp], eax
; File C:\Program Files (x86)\Microsoft Visual Studio\2019\Community\VC\Tools\MSVC\14.28.29333\include\xmemory

; 1339 :         : _Ty1(), _Myval2(_STD forward<_Other2>(_Val2)...) {}

  00114	8b 4d b4	 mov	 ecx, DWORD PTR _this$[ebp]
  00117	e8 00 00 00 00	 call	 ??0?$_Vector_val@U?$_Simple_types@V?$basic_string@DU?$char_traits@D@std@@V?$allocator@D@2@@std@@@std@@@std@@QAE@XZ ; std::_Vector_val<std::_Simple_types<std::basic_string<char,std::char_traits<char>,std::allocator<char> > > >::_Vector_val<std::_Simple_types<std::basic_string<char,std::char_traits<char>,std::allocator<char> > > >
; File D:\Metin2 Server Files\mainline\SRC_2014\Metin2Client\GameLib\ItemData.cpp

; 458  : {

  0011c	c6 45 fc 06	 mov	 BYTE PTR __$EHRec$[ebp+8], 6
  00120	8b 45 f0	 mov	 eax, DWORD PTR _this$[ebp]
  00123	05 b0 00 00 00	 add	 eax, 176		; 000000b0H
  00128	89 45 b0	 mov	 DWORD PTR _this$[ebp], eax
; File C:\Program Files (x86)\Microsoft Visual Studio\2019\Community\VC\Tools\MSVC\14.28.29333\include\vector

; 445  :     vector() noexcept(is_nothrow_default_constructible_v<_Alty>) : _Mypair(_Zero_then_variadic_args_t{}) {

  0012b	8b 45 b0	 mov	 eax, DWORD PTR _this$[ebp]
  0012e	89 45 ac	 mov	 DWORD PTR _this$[ebp], eax
; File C:\Program Files (x86)\Microsoft Visual Studio\2019\Community\VC\Tools\MSVC\14.28.29333\include\xmemory

; 1339 :         : _Ty1(), _Myval2(_STD forward<_Other2>(_Val2)...) {}

  00131	8b 4d ac	 mov	 ecx, DWORD PTR _this$[ebp]
  00134	e8 00 00 00 00	 call	 ??0?$_Vector_val@U?$_Simple_types@PAVCGraphicThing@@@std@@@std@@QAE@XZ ; std::_Vector_val<std::_Simple_types<CGraphicThing *> >::_Vector_val<std::_Simple_types<CGraphicThing *> >
; File D:\Metin2 Server Files\mainline\SRC_2014\Metin2Client\GameLib\ItemData.cpp

; 458  : {

  00139	c6 45 fc 07	 mov	 BYTE PTR __$EHRec$[ebp+8], 7
  0013d	8b 45 f0	 mov	 eax, DWORD PTR _this$[ebp]
  00140	05 bc 00 00 00	 add	 eax, 188		; 000000bcH
  00145	89 45 a8	 mov	 DWORD PTR _this$[ebp], eax
; File C:\Program Files (x86)\Microsoft Visual Studio\2019\Community\VC\Tools\MSVC\14.28.29333\include\vector

; 445  :     vector() noexcept(is_nothrow_default_constructible_v<_Alty>) : _Mypair(_Zero_then_variadic_args_t{}) {

  00148	8b 45 a8	 mov	 eax, DWORD PTR _this$[ebp]
  0014b	89 45 a4	 mov	 DWORD PTR _this$[ebp], eax
; File C:\Program Files (x86)\Microsoft Visual Studio\2019\Community\VC\Tools\MSVC\14.28.29333\include\xmemory

; 1339 :         : _Ty1(), _Myval2(_STD forward<_Other2>(_Val2)...) {}

  0014e	8b 45 a4	 mov	 eax, DWORD PTR _this$[ebp]
  00151	89 45 ec	 mov	 DWORD PTR _this$2[ebp], eax
; File C:\Program Files (x86)\Microsoft Visual Studio\2019\Community\VC\Tools\MSVC\14.28.29333\include\vector

; 375  :     _Vector_val() noexcept : _Myfirst(), _Mylast(), _Myend() {}

  00154	8b 45 ec	 mov	 eax, DWORD PTR _this$2[ebp]
  00157	83 20 00	 and	 DWORD PTR [eax], 0
  0015a	8b 45 ec	 mov	 eax, DWORD PTR _this$2[ebp]
  0015d	83 60 04 00	 and	 DWORD PTR [eax+4], 0
  00161	8b 45 ec	 mov	 eax, DWORD PTR _this$2[ebp]
  00164	83 60 08 00	 and	 DWORD PTR [eax+8], 0
; File D:\Metin2 Server Files\mainline\SRC_2014\Metin2Client\GameLib\ItemData.cpp

; 458  : {

  00168	c6 45 fc 08	 mov	 BYTE PTR __$EHRec$[ebp+8], 8

; 459  : 	Clear();

  0016c	8b 4d f0	 mov	 ecx, DWORD PTR _this$[ebp]
  0016f	e8 00 00 00 00	 call	 ?Clear@CItemData@@QAEXXZ ; CItemData::Clear

; 460  : }

  00174	83 4d fc ff	 or	 DWORD PTR __$EHRec$[ebp+8], -1
  00178	8b 45 f0	 mov	 eax, DWORD PTR _this$[ebp]
  0017b	8b 4d f4	 mov	 ecx, DWORD PTR __$EHRec$[ebp]
  0017e	64 89 0d 00 00
	00 00		 mov	 DWORD PTR fs:0, ecx
  00185	59		 pop	 ecx
  00186	c9		 leave
  00187	c3		 ret	 0
_TEXT	ENDS
;	COMDAT text$x
text$x	SEGMENT
__unwindfunclet$??0CItemData@@QAE@XZ$0:
  00000	8b 4d f0	 mov	 ecx, DWORD PTR _this$[ebp]
  00003	83 c1 04	 add	 ecx, 4
  00006	e9 00 00 00 00	 jmp	 ??1?$basic_string@DU?$char_traits@D@std@@V?$allocator@D@2@@std@@QAE@XZ ; std::basic_string<char,std::char_traits<char>,std::allocator<char> >::~basic_string<char,std::char_traits<char>,std::allocator<char> >
__unwindfunclet$??0CItemData@@QAE@XZ$1:
  0000b	8b 4d f0	 mov	 ecx, DWORD PTR _this$[ebp]
  0000e	83 c1 1c	 add	 ecx, 28			; 0000001cH
  00011	e9 00 00 00 00	 jmp	 ??1?$basic_string@DU?$char_traits@D@std@@V?$allocator@D@2@@std@@QAE@XZ ; std::basic_string<char,std::char_traits<char>,std::allocator<char> >::~basic_string<char,std::char_traits<char>,std::allocator<char> >
__unwindfunclet$??0CItemData@@QAE@XZ$2:
  00016	8b 4d f0	 mov	 ecx, DWORD PTR _this$[ebp]
  00019	83 c1 34	 add	 ecx, 52			; 00000034H
  0001c	e9 00 00 00 00	 jmp	 ??1?$basic_string@DU?$char_traits@D@std@@V?$allocator@D@2@@std@@QAE@XZ ; std::basic_string<char,std::char_traits<char>,std::allocator<char> >::~basic_string<char,std::char_traits<char>,std::allocator<char> >
__unwindfunclet$??0CItemData@@QAE@XZ$3:
  00021	8b 4d f0	 mov	 ecx, DWORD PTR _this$[ebp]
  00024	83 c1 4c	 add	 ecx, 76			; 0000004cH
  00027	e9 00 00 00 00	 jmp	 ??1?$basic_string@DU?$char_traits@D@std@@V?$allocator@D@2@@std@@QAE@XZ ; std::basic_string<char,std::char_traits<char>,std::allocator<char> >::~basic_string<char,std::char_traits<char>,std::allocator<char> >
__unwindfunclet$??0CItemData@@QAE@XZ$4:
  0002c	8b 4d f0	 mov	 ecx, DWORD PTR _this$[ebp]
  0002f	83 c1 64	 add	 ecx, 100		; 00000064H
  00032	e9 00 00 00 00	 jmp	 ??1?$basic_string@DU?$char_traits@D@std@@V?$allocator@D@2@@std@@QAE@XZ ; std::basic_string<char,std::char_traits<char>,std::allocator<char> >::~basic_string<char,std::char_traits<char>,std::allocator<char> >
__unwindfunclet$??0CItemData@@QAE@XZ$5:
  00037	8b 4d f0	 mov	 ecx, DWORD PTR _this$[ebp]
  0003a	83 c1 7c	 add	 ecx, 124		; 0000007cH
  0003d	e9 00 00 00 00	 jmp	 ??1?$basic_string@DU?$char_traits@D@std@@V?$allocator@D@2@@std@@QAE@XZ ; std::basic_string<char,std::char_traits<char>,std::allocator<char> >::~basic_string<char,std::char_traits<char>,std::allocator<char> >
__unwindfunclet$??0CItemData@@QAE@XZ$6:
  00042	8b 4d f0	 mov	 ecx, DWORD PTR _this$[ebp]
  00045	81 c1 94 00 00
	00		 add	 ecx, 148		; 00000094H
  0004b	e9 00 00 00 00	 jmp	 ??1?$vector@V?$basic_string@DU?$char_traits@D@std@@V?$allocator@D@2@@std@@V?$allocator@V?$basic_string@DU?$char_traits@D@std@@V?$allocator@D@2@@std@@@2@@std@@QAE@XZ ; std::vector<std::basic_string<char,std::char_traits<char>,std::allocator<char> >,std::allocator<std::basic_string<char,std::char_traits<char>,std::allocator<char> > > >::~vector<std::basic_string<char,std::char_traits<char>,std::allocator<char> >,std::allocator<std::basic_string<char,std::char_traits<char>,std::allocator<char> > > >
__unwindfunclet$??0CItemData@@QAE@XZ$7:
  00050	8b 4d f0	 mov	 ecx, DWORD PTR _this$[ebp]
  00053	81 c1 b0 00 00
	00		 add	 ecx, 176		; 000000b0H
  00059	e9 00 00 00 00	 jmp	 ??1?$vector@PAVCGraphicThing@@V?$allocator@PAVCGraphicThing@@@std@@@std@@QAE@XZ ; std::vector<CGraphicThing *,std::allocator<CGraphicThing *> >::~vector<CGraphicThing *,std::allocator<CGraphicThing *> >
__unwindfunclet$??0CItemData@@QAE@XZ$8:
  0005e	8b 4d f0	 mov	 ecx, DWORD PTR _this$[ebp]
  00061	81 c1 bc 00 00
	00		 add	 ecx, 188		; 000000bcH
  00067	e9 00 00 00 00	 jmp	 ??1?$vector@USAttachingData@NRaceData@@V?$allocator@USAttachingData@NRaceData@@@std@@@std@@QAE@XZ ; std::vector<NRaceData::SAttachingData,std::allocator<NRaceData::SAttachingData> >::~vector<NRaceData::SAttachingData,std::allocator<NRaceData::SAttachingData> >
  0006c	cc		 int	 3
  0006d	cc		 int	 3
  0006e	cc		 int	 3
  0006f	cc		 int	 3
  00070	cc		 int	 3
__ehhandler$??0CItemData@@QAE@XZ:
  00071	90		 npad	 1
  00072	90		 npad	 1
  00073	8b 54 24 08	 mov	 edx, DWORD PTR [esp+8]
  00077	8d 42 0c	 lea	 eax, DWORD PTR [edx+12]
  0007a	8b 4a ac	 mov	 ecx, DWORD PTR [edx-84]
  0007d	33 c8		 xor	 ecx, eax
  0007f	e8 00 00 00 00	 call	 @__security_check_cookie@4
  00084	b8 00 00 00 00	 mov	 eax, OFFSET __ehfuncinfo$??0CItemData@@QAE@XZ
  00089	e9 00 00 00 00	 jmp	 ___CxxFrameHandler3
text$x	ENDS
??0CItemData@@QAE@XZ ENDP				; CItemData::CItemData
; Function compile flags: /Odspy
; File C:\Program Files (x86)\Microsoft Visual Studio\2019\Community\VC\Tools\MSVC\14.28.29333\include\xmemory
;	COMDAT ??$_Allocate_manually_vector_aligned@U_Default_allocate_traits@std@@@std@@YAPAXI@Z
_TEXT	SEGMENT
__Ptr$ = -12						; size = 4
__Block_size$ = -8					; size = 4
__Ptr_container$ = -4					; size = 4
__Bytes$ = 8						; size = 4
??$_Allocate_manually_vector_aligned@U_Default_allocate_traits@std@@@std@@YAPAXI@Z PROC ; std::_Allocate_manually_vector_aligned<std::_Default_allocate_traits>, COMDAT

; 113  : __declspec(allocator) void* _Allocate_manually_vector_aligned(const size_t _Bytes) {

  00000	55		 push	 ebp
  00001	8b ec		 mov	 ebp, esp
  00003	83 ec 0c	 sub	 esp, 12			; 0000000cH

; 114  :     // allocate _Bytes manually aligned to at least _Big_allocation_alignment
; 115  :     const size_t _Block_size = _Non_user_size + _Bytes;

  00006	8b 45 08	 mov	 eax, DWORD PTR __Bytes$[ebp]
  00009	83 c0 23	 add	 eax, 35			; 00000023H
  0000c	89 45 f8	 mov	 DWORD PTR __Block_size$[ebp], eax

; 116  :     if (_Block_size <= _Bytes) {

  0000f	8b 45 f8	 mov	 eax, DWORD PTR __Block_size$[ebp]
  00012	3b 45 08	 cmp	 eax, DWORD PTR __Bytes$[ebp]
  00015	77 05		 ja	 SHORT $LN12@Allocate_m

; 117  :         _Throw_bad_array_new_length(); // add overflow

  00017	e8 00 00 00 00	 call	 ?_Throw_bad_array_new_length@std@@YAXXZ ; std::_Throw_bad_array_new_length
$LN12@Allocate_m:

; 77   :         return ::operator new(_Bytes);

  0001c	ff 75 f8	 push	 DWORD PTR __Block_size$[ebp]
  0001f	e8 00 00 00 00	 call	 ??2@YAPAXI@Z		; operator new
  00024	59		 pop	 ecx

; 118  :     }
; 119  : 
; 120  :     const uintptr_t _Ptr_container = reinterpret_cast<uintptr_t>(_Traits::_Allocate(_Block_size));

  00025	89 45 fc	 mov	 DWORD PTR __Ptr_container$[ebp], eax
$LN4@Allocate_m:

; 121  :     _STL_VERIFY(_Ptr_container != 0, "invalid argument"); // validate even in release since we're doing p[-1]

  00028	83 7d fc 00	 cmp	 DWORD PTR __Ptr_container$[ebp], 0
  0002c	74 02		 je	 SHORT $LN7@Allocate_m
  0002e	eb 09		 jmp	 SHORT $LN2@Allocate_m
$LN7@Allocate_m:
  00030	e8 00 00 00 00	 call	 __invalid_parameter_noinfo_noreturn
  00035	33 c0		 xor	 eax, eax
  00037	75 f7		 jne	 SHORT $LN7@Allocate_m
$LN2@Allocate_m:
  00039	33 c0		 xor	 eax, eax
  0003b	75 eb		 jne	 SHORT $LN4@Allocate_m

; 122  :     void* const _Ptr = reinterpret_cast<void*>((_Ptr_container + _Non_user_size) & ~(_Big_allocation_alignment - 1));

  0003d	8b 45 fc	 mov	 eax, DWORD PTR __Ptr_container$[ebp]
  00040	83 c0 23	 add	 eax, 35			; 00000023H
  00043	83 e0 e0	 and	 eax, -32		; ffffffe0H
  00046	89 45 f4	 mov	 DWORD PTR __Ptr$[ebp], eax

; 123  :     static_cast<uintptr_t*>(_Ptr)[-1] = _Ptr_container;

  00049	6a 04		 push	 4
  0004b	58		 pop	 eax
  0004c	6b c0 ff	 imul	 eax, eax, -1
  0004f	8b 4d f4	 mov	 ecx, DWORD PTR __Ptr$[ebp]
  00052	8b 55 fc	 mov	 edx, DWORD PTR __Ptr_container$[ebp]
  00055	89 14 01	 mov	 DWORD PTR [ecx+eax], edx

; 124  : 
; 125  : #ifdef _DEBUG
; 126  :     static_cast<uintptr_t*>(_Ptr)[-2] = _Big_allocation_sentinel;
; 127  : #endif // _DEBUG
; 128  :     return _Ptr;

  00058	8b 45 f4	 mov	 eax, DWORD PTR __Ptr$[ebp]
$LN11@Allocate_m:

; 129  : }

  0005b	c9		 leave
  0005c	c3		 ret	 0
??$_Allocate_manually_vector_aligned@U_Default_allocate_traits@std@@@std@@YAPAXI@Z ENDP ; std::_Allocate_manually_vector_aligned<std::_Default_allocate_traits>
_TEXT	ENDS
; Function compile flags: /Odspy
; File C:\Program Files (x86)\Microsoft Visual Studio\2019\Community\VC\Tools\MSVC\14.28.29333\include\xmemory
;	COMDAT ??$_Allocate@$07U_Default_allocate_traits@std@@$0A@@std@@YAPAXI@Z
_TEXT	SEGMENT
__Bytes$ = 8						; size = 4
??$_Allocate@$07U_Default_allocate_traits@std@@$0A@@std@@YAPAXI@Z PROC ; std::_Allocate<8,std::_Default_allocate_traits,0>, COMDAT

; 197  : __declspec(allocator) void* _Allocate(const size_t _Bytes) {

  00000	55		 push	 ebp
  00001	8b ec		 mov	 ebp, esp

; 198  :     // allocate _Bytes when !_HAS_ALIGNED_NEW || _Align <= __STDCPP_DEFAULT_NEW_ALIGNMENT__
; 199  : #if defined(_M_IX86) || defined(_M_X64)
; 200  :     if (_Bytes >= _Big_allocation_threshold) { // boost the alignment of big allocations to help autovectorization

  00003	81 7d 08 00 10
	00 00		 cmp	 DWORD PTR __Bytes$[ebp], 4096 ; 00001000H
  0000a	72 0b		 jb	 SHORT $LN2@Allocate

; 201  :         return _Allocate_manually_vector_aligned<_Traits>(_Bytes);

  0000c	ff 75 08	 push	 DWORD PTR __Bytes$[ebp]
  0000f	e8 00 00 00 00	 call	 ??$_Allocate_manually_vector_aligned@U_Default_allocate_traits@std@@@std@@YAPAXI@Z ; std::_Allocate_manually_vector_aligned<std::_Default_allocate_traits>
  00014	59		 pop	 ecx
  00015	eb 13		 jmp	 SHORT $LN1@Allocate
$LN2@Allocate:

; 202  :     }
; 203  : #endif // defined(_M_IX86) || defined(_M_X64)
; 204  : 
; 205  :     if (_Bytes != 0) {

  00017	83 7d 08 00	 cmp	 DWORD PTR __Bytes$[ebp], 0
  0001b	74 0b		 je	 SHORT $LN3@Allocate

; 77   :         return ::operator new(_Bytes);

  0001d	ff 75 08	 push	 DWORD PTR __Bytes$[ebp]
  00020	e8 00 00 00 00	 call	 ??2@YAPAXI@Z		; operator new
  00025	59		 pop	 ecx

; 206  :         return _Traits::_Allocate(_Bytes);

  00026	eb 02		 jmp	 SHORT $LN1@Allocate
$LN3@Allocate:

; 207  :     }
; 208  : 
; 209  :     return nullptr;

  00028	33 c0		 xor	 eax, eax
$LN1@Allocate:

; 210  : }

  0002a	5d		 pop	 ebp
  0002b	c3		 ret	 0
??$_Allocate@$07U_Default_allocate_traits@std@@$0A@@std@@YAPAXI@Z ENDP ; std::_Allocate<8,std::_Default_allocate_traits,0>
_TEXT	ENDS
; Function compile flags: /Odspy
; File C:\Program Files (x86)\Microsoft Visual Studio\2019\Community\VC\Tools\MSVC\14.28.29333\include\xmemory
;	COMDAT ??$_Deallocate@$07$0A@@std@@YAXPAXI@Z
_TEXT	SEGMENT
__$EHRec$ = -12						; size = 12
__Ptr$ = 8						; size = 4
__Bytes$ = 12						; size = 4
??$_Deallocate@$07$0A@@std@@YAXPAXI@Z PROC		; std::_Deallocate<8,0>, COMDAT

; 213  : void _Deallocate(void* _Ptr, size_t _Bytes) noexcept {

  00000	55		 push	 ebp
  00001	8b ec		 mov	 ebp, esp
  00003	6a ff		 push	 -1
  00005	68 00 00 00 00	 push	 __ehhandler$??$_Deallocate@$07$0A@@std@@YAXPAXI@Z
  0000a	64 a1 00 00 00
	00		 mov	 eax, DWORD PTR fs:0
  00010	50		 push	 eax
  00011	a1 00 00 00 00	 mov	 eax, DWORD PTR ___security_cookie
  00016	33 c5		 xor	 eax, ebp
  00018	50		 push	 eax
  00019	8d 45 f4	 lea	 eax, DWORD PTR __$EHRec$[ebp]
  0001c	64 a3 00 00 00
	00		 mov	 DWORD PTR fs:0, eax

; 214  :     // deallocate storage allocated by _Allocate when !_HAS_ALIGNED_NEW || _Align <= __STDCPP_DEFAULT_NEW_ALIGNMENT__
; 215  : #if defined(_M_IX86) || defined(_M_X64)
; 216  :     if (_Bytes >= _Big_allocation_threshold) { // boost the alignment of big allocations to help autovectorization

  00022	81 7d 0c 00 10
	00 00		 cmp	 DWORD PTR __Bytes$[ebp], 4096 ; 00001000H
  00029	72 0f		 jb	 SHORT $LN2@Deallocate

; 217  :         _Adjust_manually_vector_aligned(_Ptr, _Bytes);

  0002b	8d 45 0c	 lea	 eax, DWORD PTR __Bytes$[ebp]
  0002e	50		 push	 eax
  0002f	8d 45 08	 lea	 eax, DWORD PTR __Ptr$[ebp]
  00032	50		 push	 eax
  00033	e8 00 00 00 00	 call	 ?_Adjust_manually_vector_aligned@std@@YAXAAPAXAAI@Z ; std::_Adjust_manually_vector_aligned
  00038	59		 pop	 ecx
  00039	59		 pop	 ecx
$LN2@Deallocate:

; 218  :     }
; 219  : #endif // defined(_M_IX86) || defined(_M_X64)
; 220  : 
; 221  :     ::operator delete(_Ptr, _Bytes);

  0003a	ff 75 0c	 push	 DWORD PTR __Bytes$[ebp]
  0003d	ff 75 08	 push	 DWORD PTR __Ptr$[ebp]
  00040	e8 00 00 00 00	 call	 ??3@YAXPAXI@Z		; operator delete
  00045	59		 pop	 ecx
  00046	59		 pop	 ecx

; 222  : }

  00047	8b 4d f4	 mov	 ecx, DWORD PTR __$EHRec$[ebp]
  0004a	64 89 0d 00 00
	00 00		 mov	 DWORD PTR fs:0, ecx
  00051	59		 pop	 ecx
  00052	c9		 leave
  00053	c3		 ret	 0
  00054	cc		 int	 3
  00055	cc		 int	 3
  00056	cc		 int	 3
  00057	cc		 int	 3
  00058	cc		 int	 3
_TEXT	ENDS
;	COMDAT text$x
text$x	SEGMENT
__ehhandler$??$_Deallocate@$07$0A@@std@@YAXPAXI@Z:
  00000	90		 npad	 1
  00001	90		 npad	 1
  00002	8b 54 24 08	 mov	 edx, DWORD PTR [esp+8]
  00006	8d 42 0c	 lea	 eax, DWORD PTR [edx+12]
  00009	8b 4a fc	 mov	 ecx, DWORD PTR [edx-4]
  0000c	33 c8		 xor	 ecx, eax
  0000e	e8 00 00 00 00	 call	 @__security_check_cookie@4
  00013	b8 00 00 00 00	 mov	 eax, OFFSET __ehfuncinfo$??$_Deallocate@$07$0A@@std@@YAXPAXI@Z
  00018	e9 00 00 00 00	 jmp	 ___CxxFrameHandler3
text$x	ENDS
??$_Deallocate@$07$0A@@std@@YAXPAXI@Z ENDP		; std::_Deallocate<8,0>
; Function compile flags: /Odspy
; File C:\Program Files (x86)\Microsoft Visual Studio\2019\Community\VC\Tools\MSVC\14.28.29333\include\xmemory
; File C:\Program Files (x86)\Microsoft Visual Studio\2019\Community\VC\Tools\MSVC\14.28.29333\include\xstddef
; File C:\Program Files (x86)\Microsoft Visual Studio\2019\Community\VC\Tools\MSVC\14.28.29333\include\vcruntime_new.h
; File C:\Program Files (x86)\Microsoft Visual Studio\2019\Community\VC\Tools\MSVC\14.28.29333\include\type_traits
; File C:\Program Files (x86)\Microsoft Visual Studio\2019\Community\VC\Tools\MSVC\14.28.29333\include\xmemory
;	COMDAT ??$_Construct_in_place@PADABQAD@std@@YAXAAPADABQAD@Z
_TEXT	SEGMENT
$T1 = -12						; size = 4
$T2 = -8						; size = 4
$T3 = -4						; size = 4
__Obj$ = 8						; size = 4
_<_Args_0>$ = 12					; size = 4
??$_Construct_in_place@PADABQAD@std@@YAXAAPADABQAD@Z PROC ; std::_Construct_in_place<char *,char * const &>, COMDAT

; 228  : void _Construct_in_place(_Ty& _Obj, _Types&&... _Args) noexcept(is_nothrow_constructible_v<_Ty, _Types...>) {

  00000	55		 push	 ebp
  00001	8b ec		 mov	 ebp, esp
  00003	83 ec 0c	 sub	 esp, 12			; 0000000cH
; File C:\Program Files (x86)\Microsoft Visual Studio\2019\Community\VC\Tools\MSVC\14.28.29333\include\xstddef

; 275  :     return __builtin_addressof(_Val);

  00006	8b 45 08	 mov	 eax, DWORD PTR __Obj$[ebp]
  00009	89 45 fc	 mov	 DWORD PTR $T3[ebp], eax
; File C:\Program Files (x86)\Microsoft Visual Studio\2019\Community\VC\Tools\MSVC\14.28.29333\include\vcruntime_new.h

; 169  :         return _Where;

  0000c	8b 45 fc	 mov	 eax, DWORD PTR $T3[ebp]
  0000f	89 45 f8	 mov	 DWORD PTR $T2[ebp], eax
; File C:\Program Files (x86)\Microsoft Visual Studio\2019\Community\VC\Tools\MSVC\14.28.29333\include\type_traits

; 1443 :     return static_cast<_Ty&&>(_Arg);

  00012	8b 45 0c	 mov	 eax, DWORD PTR _<_Args_0>$[ebp]
  00015	89 45 f4	 mov	 DWORD PTR $T1[ebp], eax
; File C:\Program Files (x86)\Microsoft Visual Studio\2019\Community\VC\Tools\MSVC\14.28.29333\include\xmemory

; 229  :     ::new (const_cast<void*>(static_cast<const volatile void*>(_STD addressof(_Obj))))

  00018	8b 45 f8	 mov	 eax, DWORD PTR $T2[ebp]
  0001b	8b 4d f4	 mov	 ecx, DWORD PTR $T1[ebp]
  0001e	8b 09		 mov	 ecx, DWORD PTR [ecx]
  00020	89 08		 mov	 DWORD PTR [eax], ecx

; 230  :         _Ty(_STD forward<_Types>(_Args)...);
; 231  : }

  00022	c9		 leave
  00023	c3		 ret	 0
??$_Construct_in_place@PADABQAD@std@@YAXAAPADABQAD@Z ENDP ; std::_Construct_in_place<char *,char * const &>
_TEXT	ENDS
; Function compile flags: /Odspy
; File C:\Program Files (x86)\Microsoft Visual Studio\2019\Community\VC\Tools\MSVC\14.28.29333\include\xstring
; File C:\Program Files (x86)\Microsoft Visual Studio\2019\Community\VC\Tools\MSVC\14.28.29333\include\xmemory
; File C:\Program Files (x86)\Microsoft Visual Studio\2019\Community\VC\Tools\MSVC\14.28.29333\include\xstring
; File C:\Program Files (x86)\Microsoft Visual Studio\2019\Community\VC\Tools\MSVC\14.28.29333\include\xmemory
; File C:\Program Files (x86)\Microsoft Visual Studio\2019\Community\VC\Tools\MSVC\14.28.29333\include\xstring
; File C:\Program Files (x86)\Microsoft Visual Studio\2019\Community\VC\Tools\MSVC\14.28.29333\include\xmemory
; File C:\Program Files (x86)\Microsoft Visual Studio\2019\Community\VC\Tools\MSVC\14.28.29333\include\xstring
; File C:\Program Files (x86)\Microsoft Visual Studio\2019\Community\VC\Tools\MSVC\14.28.29333\include\xstddef
; File C:\Program Files (x86)\Microsoft Visual Studio\2019\Community\VC\Tools\MSVC\14.28.29333\include\xstring
; File C:\Program Files (x86)\Microsoft Visual Studio\2019\Community\VC\Tools\MSVC\14.28.29333\include\xmemory
; File C:\Program Files (x86)\Microsoft Visual Studio\2019\Community\VC\Tools\MSVC\14.28.29333\include\xstring
;	COMDAT ??$_Reallocate_for@V<lambda_9366063389c5f42a00a5088cf24e69de>@@PBD@?$basic_string@DU?$char_traits@D@std@@V?$allocator@D@2@@std@@AAEAAV01@IV<lambda_9366063389c5f42a00a5088cf24e69de>@@PBD@Z
_TEXT	SEGMENT
__Al$ = -40						; size = 4
__Ptr$ = -36						; size = 4
__Ptr$ = -32						; size = 4
$T1 = -28						; size = 4
__Old_capacity$ = -24					; size = 4
$T2 = -20						; size = 4
__New_capacity$ = -16					; size = 4
__New_ptr$ = -12					; size = 4
_this$ = -8						; size = 4
__Overflow_is_possible$3 = -2				; size = 1
$T4 = -1						; size = 1
__New_size$ = 8						; size = 4
__Fn$ = 12						; size = 1
_<_Args_0>$ = 16					; size = 4
??$_Reallocate_for@V<lambda_9366063389c5f42a00a5088cf24e69de>@@PBD@?$basic_string@DU?$char_traits@D@std@@V?$allocator@D@2@@std@@AAEAAV01@IV<lambda_9366063389c5f42a00a5088cf24e69de>@@PBD@Z PROC ; std::basic_string<char,std::char_traits<char>,std::allocator<char> >::_Reallocate_for<<lambda_9366063389c5f42a00a5088cf24e69de>,char const *>, COMDAT
; _this$ = ecx

; 4302 :     basic_string& _Reallocate_for(const size_type _New_size, _Fty _Fn, _ArgTys... _Args) {

  00000	55		 push	 ebp
  00001	8b ec		 mov	 ebp, esp
  00003	83 ec 28	 sub	 esp, 40			; 00000028H
  00006	89 4d f8	 mov	 DWORD PTR _this$[ebp], ecx

; 4303 :         // reallocate to store exactly _New_size elements, new buffer prepared by
; 4304 :         // _Fn(_New_ptr, _New_size, _Args...)
; 4305 :         if (_New_size > max_size()) {

  00009	8b 4d f8	 mov	 ecx, DWORD PTR _this$[ebp]
  0000c	e8 00 00 00 00	 call	 ?max_size@?$basic_string@DU?$char_traits@D@std@@V?$allocator@D@2@@std@@QBEIXZ ; std::basic_string<char,std::char_traits<char>,std::allocator<char> >::max_size
  00011	39 45 08	 cmp	 DWORD PTR __New_size$[ebp], eax
  00014	76 05		 jbe	 SHORT $LN2@Reallocate

; 4306 :             _Xlen_string(); // result too long

  00016	e8 00 00 00 00	 call	 ?_Xlen_string@std@@YAXXZ ; std::_Xlen_string
$LN2@Reallocate:

; 4307 :         }
; 4308 : 
; 4309 :         const size_type _Old_capacity = _Mypair._Myval2._Myres;

  0001b	8b 45 f8	 mov	 eax, DWORD PTR _this$[ebp]
  0001e	8b 40 14	 mov	 eax, DWORD PTR [eax+20]
  00021	89 45 e8	 mov	 DWORD PTR __Old_capacity$[ebp], eax

; 4310 :         const size_type _New_capacity = _Calculate_growth(_New_size);

  00024	ff 75 08	 push	 DWORD PTR __New_size$[ebp]
  00027	8b 4d f8	 mov	 ecx, DWORD PTR _this$[ebp]
  0002a	e8 00 00 00 00	 call	 ?_Calculate_growth@?$basic_string@DU?$char_traits@D@std@@V?$allocator@D@2@@std@@ABEII@Z ; std::basic_string<char,std::char_traits<char>,std::allocator<char> >::_Calculate_growth
  0002f	89 45 f0	 mov	 DWORD PTR __New_capacity$[ebp], eax

; 4409 :         return _Mypair._Get_first();

  00032	8b 45 f8	 mov	 eax, DWORD PTR _this$[ebp]
; File C:\Program Files (x86)\Microsoft Visual Studio\2019\Community\VC\Tools\MSVC\14.28.29333\include\xmemory

; 1347 :         return *this;

  00035	89 45 e4	 mov	 DWORD PTR $T1[ebp], eax
; File C:\Program Files (x86)\Microsoft Visual Studio\2019\Community\VC\Tools\MSVC\14.28.29333\include\xstring

; 4409 :         return _Mypair._Get_first();

  00038	8b 45 e4	 mov	 eax, DWORD PTR $T1[ebp]
  0003b	89 45 d8	 mov	 DWORD PTR __Al$[ebp], eax
; File C:\Program Files (x86)\Microsoft Visual Studio\2019\Community\VC\Tools\MSVC\14.28.29333\include\xmemory

; 56   :     constexpr bool _Overflow_is_possible = _Ty_size > 1;

  0003e	c6 45 fe 00	 mov	 BYTE PTR __Overflow_is_possible$3[ebp], 0
; File C:\Program Files (x86)\Microsoft Visual Studio\2019\Community\VC\Tools\MSVC\14.28.29333\include\xstring

; 4312 :         const pointer _New_ptr        = _Al.allocate(_New_capacity + 1); // throws

  00042	8b 45 f0	 mov	 eax, DWORD PTR __New_capacity$[ebp]
  00045	40		 inc	 eax
; File C:\Program Files (x86)\Microsoft Visual Studio\2019\Community\VC\Tools\MSVC\14.28.29333\include\xmemory

; 814  :         return static_cast<_Ty*>(_Allocate<_New_alignof<_Ty>>(_Get_size_of_n<sizeof(_Ty)>(_Count)));

  00046	50		 push	 eax
  00047	e8 00 00 00 00	 call	 ??$_Allocate@$07U_Default_allocate_traits@std@@$0A@@std@@YAPAXI@Z ; std::_Allocate<8,std::_Default_allocate_traits,0>
  0004c	59		 pop	 ecx
; File C:\Program Files (x86)\Microsoft Visual Studio\2019\Community\VC\Tools\MSVC\14.28.29333\include\xstring

; 4312 :         const pointer _New_ptr        = _Al.allocate(_New_capacity + 1); // throws

  0004d	89 45 f4	 mov	 DWORD PTR __New_ptr$[ebp], eax

; 4313 :         _Mypair._Myval2._Orphan_all();
; 4314 :         _Mypair._Myval2._Mysize = _New_size;

  00050	8b 45 f8	 mov	 eax, DWORD PTR _this$[ebp]
  00053	8b 4d 08	 mov	 ecx, DWORD PTR __New_size$[ebp]
  00056	89 48 10	 mov	 DWORD PTR [eax+16], ecx

; 4315 :         _Mypair._Myval2._Myres  = _New_capacity;

  00059	8b 45 f8	 mov	 eax, DWORD PTR _this$[ebp]
  0005c	8b 4d f0	 mov	 ecx, DWORD PTR __New_capacity$[ebp]
  0005f	89 48 14	 mov	 DWORD PTR [eax+20], ecx

; 4316 :         _Fn(_Unfancy(_New_ptr), _New_size, _Args...);

  00062	8b 45 f4	 mov	 eax, DWORD PTR __New_ptr$[ebp]
  00065	89 45 e0	 mov	 DWORD PTR __Ptr$[ebp], eax
; File C:\Program Files (x86)\Microsoft Visual Studio\2019\Community\VC\Tools\MSVC\14.28.29333\include\xstddef

; 289  :     return _Ptr;

  00068	8b 45 e0	 mov	 eax, DWORD PTR __Ptr$[ebp]
  0006b	89 45 ec	 mov	 DWORD PTR $T2[ebp], eax
; File C:\Program Files (x86)\Microsoft Visual Studio\2019\Community\VC\Tools\MSVC\14.28.29333\include\xstring

; 62   :         _CSTD memcpy(_First1, _First2, _Count * sizeof(_Elem));

  0006e	ff 75 08	 push	 DWORD PTR __New_size$[ebp]
  00071	ff 75 10	 push	 DWORD PTR _<_Args_0>$[ebp]
  00074	ff 75 ec	 push	 DWORD PTR $T2[ebp]
  00077	e8 00 00 00 00	 call	 _memcpy
  0007c	83 c4 0c	 add	 esp, 12			; 0000000cH

; 3056 :                 _Traits::assign(_New_ptr[_Count], _Elem());

  0007f	c6 45 ff 00	 mov	 BYTE PTR $T4[ebp], 0

; 428  :         _Left = _Right;

  00083	8b 45 ec	 mov	 eax, DWORD PTR $T2[ebp]
  00086	03 45 08	 add	 eax, DWORD PTR __New_size$[ebp]
  00089	8a 4d ff	 mov	 cl, BYTE PTR $T4[ebp]
  0008c	88 08		 mov	 BYTE PTR [eax], cl

; 4317 :         if (_BUF_SIZE <= _Old_capacity) {

  0008e	83 7d e8 10	 cmp	 DWORD PTR __Old_capacity$[ebp], 16 ; 00000010H
  00092	72 21		 jb	 SHORT $LN3@Reallocate

; 4318 :             _Al.deallocate(_Mypair._Myval2._Bx._Ptr, _Old_capacity + 1);

  00094	8b 45 f8	 mov	 eax, DWORD PTR _this$[ebp]
  00097	8b 00		 mov	 eax, DWORD PTR [eax]
  00099	89 45 dc	 mov	 DWORD PTR __Ptr$[ebp], eax
  0009c	8b 45 e8	 mov	 eax, DWORD PTR __Old_capacity$[ebp]
  0009f	40		 inc	 eax
; File C:\Program Files (x86)\Microsoft Visual Studio\2019\Community\VC\Tools\MSVC\14.28.29333\include\xmemory

; 810  :         _Deallocate<_New_alignof<_Ty>>(_Ptr, sizeof(_Ty) * _Count);

  000a0	50		 push	 eax
  000a1	ff 75 dc	 push	 DWORD PTR __Ptr$[ebp]
  000a4	e8 00 00 00 00	 call	 ??$_Deallocate@$07$0A@@std@@YAXPAXI@Z ; std::_Deallocate<8,0>
  000a9	59		 pop	 ecx
  000aa	59		 pop	 ecx
; File C:\Program Files (x86)\Microsoft Visual Studio\2019\Community\VC\Tools\MSVC\14.28.29333\include\xstring

; 4319 :             _Mypair._Myval2._Bx._Ptr = _New_ptr;

  000ab	8b 45 f8	 mov	 eax, DWORD PTR _this$[ebp]
  000ae	8b 4d f4	 mov	 ecx, DWORD PTR __New_ptr$[ebp]
  000b1	89 08		 mov	 DWORD PTR [eax], ecx

; 4320 :         } else {

  000b3	eb 0e		 jmp	 SHORT $LN4@Reallocate
$LN3@Reallocate:

; 4321 :             _Construct_in_place(_Mypair._Myval2._Bx._Ptr, _New_ptr);

  000b5	8d 45 f4	 lea	 eax, DWORD PTR __New_ptr$[ebp]
  000b8	50		 push	 eax
  000b9	ff 75 f8	 push	 DWORD PTR _this$[ebp]
  000bc	e8 00 00 00 00	 call	 ??$_Construct_in_place@PADABQAD@std@@YAXAAPADABQAD@Z ; std::_Construct_in_place<char *,char * const &>
  000c1	59		 pop	 ecx
  000c2	59		 pop	 ecx
$LN4@Reallocate:

; 4322 :         }
; 4323 : 
; 4324 :         return *this;

  000c3	8b 45 f8	 mov	 eax, DWORD PTR _this$[ebp]
$LN5@Reallocate:

; 4325 :     }

  000c6	c9		 leave
  000c7	c2 0c 00	 ret	 12			; 0000000cH
??$_Reallocate_for@V<lambda_9366063389c5f42a00a5088cf24e69de>@@PBD@?$basic_string@DU?$char_traits@D@std@@V?$allocator@D@2@@std@@AAEAAV01@IV<lambda_9366063389c5f42a00a5088cf24e69de>@@PBD@Z ENDP ; std::basic_string<char,std::char_traits<char>,std::allocator<char> >::_Reallocate_for<<lambda_9366063389c5f42a00a5088cf24e69de>,char const *>
_TEXT	ENDS
; Function compile flags: /Odspy
; File C:\Program Files (x86)\Microsoft Visual Studio\2019\Community\VC\Tools\MSVC\14.28.29333\include\xmemory
;	COMDAT ??$_Destroy_in_place@PAD@std@@YAXAAPAD@Z
_TEXT	SEGMENT
__Obj$ = 8						; size = 4
??$_Destroy_in_place@PAD@std@@YAXAAPAD@Z PROC		; std::_Destroy_in_place<char *>, COMDAT

; 270  : /* _CONSTEXPR20_DYNALLOC */ void _Destroy_in_place(_Ty& _Obj) noexcept {

  00000	55		 push	 ebp
  00001	8b ec		 mov	 ebp, esp

; 271  : #if _HAS_IF_CONSTEXPR
; 272  :     if constexpr (is_array_v<_Ty>) {
; 273  :         _Destroy_range(_Obj, _Obj + extent_v<_Ty>);
; 274  :     } else
; 275  : #endif // _HAS_IF_CONSTEXPR
; 276  :     {
; 277  :         _Obj.~_Ty();
; 278  :     }
; 279  : }

  00003	5d		 pop	 ebp
  00004	c3		 ret	 0
??$_Destroy_in_place@PAD@std@@YAXAAPAD@Z ENDP		; std::_Destroy_in_place<char *>
_TEXT	ENDS
; Function compile flags: /Odspy
; File C:\Program Files (x86)\Microsoft Visual Studio\2019\Community\VC\Tools\MSVC\14.28.29333\include\vector
;	COMDAT ??0?$_Vector_val@U?$_Simple_types@V?$basic_string@DU?$char_traits@D@std@@V?$allocator@D@2@@std@@@std@@@std@@QAE@XZ
_TEXT	SEGMENT
_this$ = -4						; size = 4
??0?$_Vector_val@U?$_Simple_types@V?$basic_string@DU?$char_traits@D@std@@V?$allocator@D@2@@std@@@std@@@std@@QAE@XZ PROC ; std::_Vector_val<std::_Simple_types<std::basic_string<char,std::char_traits<char>,std::allocator<char> > > >::_Vector_val<std::_Simple_types<std::basic_string<char,std::char_traits<char>,std::allocator<char> > > >, COMDAT
; _this$ = ecx

; 375  :     _Vector_val() noexcept : _Myfirst(), _Mylast(), _Myend() {}

  00000	55		 push	 ebp
  00001	8b ec		 mov	 ebp, esp
  00003	51		 push	 ecx
  00004	89 4d fc	 mov	 DWORD PTR _this$[ebp], ecx
  00007	8b 45 fc	 mov	 eax, DWORD PTR _this$[ebp]
  0000a	83 20 00	 and	 DWORD PTR [eax], 0
  0000d	8b 45 fc	 mov	 eax, DWORD PTR _this$[ebp]
  00010	83 60 04 00	 and	 DWORD PTR [eax+4], 0
  00014	8b 45 fc	 mov	 eax, DWORD PTR _this$[ebp]
  00017	83 60 08 00	 and	 DWORD PTR [eax+8], 0
  0001b	8b 45 fc	 mov	 eax, DWORD PTR _this$[ebp]
  0001e	c9		 leave
  0001f	c3		 ret	 0
??0?$_Vector_val@U?$_Simple_types@V?$basic_string@DU?$char_traits@D@std@@V?$allocator@D@2@@std@@@std@@@std@@QAE@XZ ENDP ; std::_Vector_val<std::_Simple_types<std::basic_string<char,std::char_traits<char>,std::allocator<char> > > >::_Vector_val<std::_Simple_types<std::basic_string<char,std::char_traits<char>,std::allocator<char> > > >
_TEXT	ENDS
; Function compile flags: /Odspy
; File C:\Program Files (x86)\Microsoft Visual Studio\2019\Community\VC\Tools\MSVC\14.28.29333\include\vector
; File C:\Program Files (x86)\Microsoft Visual Studio\2019\Community\VC\Tools\MSVC\14.28.29333\include\xmemory
; File C:\Program Files (x86)\Microsoft Visual Studio\2019\Community\VC\Tools\MSVC\14.28.29333\include\vector
; File C:\Program Files (x86)\Microsoft Visual Studio\2019\Community\VC\Tools\MSVC\14.28.29333\include\xmemory
; File C:\Program Files (x86)\Microsoft Visual Studio\2019\Community\VC\Tools\MSVC\14.28.29333\include\vector
; File C:\Program Files (x86)\Microsoft Visual Studio\2019\Community\VC\Tools\MSVC\14.28.29333\include\xmemory
; File C:\Program Files (x86)\Microsoft Visual Studio\2019\Community\VC\Tools\MSVC\14.28.29333\include\vector
;	COMDAT ?_Tidy@?$vector@V?$basic_string@DU?$char_traits@D@std@@V?$allocator@D@2@@std@@V?$allocator@V?$basic_string@DU?$char_traits@D@std@@V?$allocator@D@2@@std@@@2@@std@@AAEXXZ
_TEXT	SEGMENT
$T1 = -52						; size = 4
__Ptr$ = -48						; size = 4
__Count$ = -44						; size = 4
$T2 = -40						; size = 4
__First$ = -36						; size = 4
__Last$ = -32						; size = 4
$T3 = -28						; size = 4
$T4 = -24						; size = 4
__Myend$ = -20						; size = 4
__Mylast$ = -16						; size = 4
_this$ = -12						; size = 4
__My_data$ = -8						; size = 4
__Myfirst$ = -4						; size = 4
?_Tidy@?$vector@V?$basic_string@DU?$char_traits@D@std@@V?$allocator@D@2@@std@@V?$allocator@V?$basic_string@DU?$char_traits@D@std@@V?$allocator@D@2@@std@@@2@@std@@AAEXXZ PROC ; std::vector<std::basic_string<char,std::char_traits<char>,std::allocator<char> >,std::allocator<std::basic_string<char,std::char_traits<char>,std::allocator<char> > > >::_Tidy, COMDAT
; _this$ = ecx

; 1686 :     void _Tidy() noexcept { // free all storage

  00000	55		 push	 ebp
  00001	8b ec		 mov	 ebp, esp
  00003	83 ec 34	 sub	 esp, 52			; 00000034H
  00006	89 4d f4	 mov	 DWORD PTR _this$[ebp], ecx

; 1687 :         auto& _My_data    = _Mypair._Myval2;

  00009	8b 45 f4	 mov	 eax, DWORD PTR _this$[ebp]
  0000c	89 45 f8	 mov	 DWORD PTR __My_data$[ebp], eax

; 1688 :         pointer& _Myfirst = _My_data._Myfirst;

  0000f	8b 45 f8	 mov	 eax, DWORD PTR __My_data$[ebp]
  00012	89 45 fc	 mov	 DWORD PTR __Myfirst$[ebp], eax

; 1689 :         pointer& _Mylast  = _My_data._Mylast;

  00015	8b 45 f8	 mov	 eax, DWORD PTR __My_data$[ebp]
  00018	83 c0 04	 add	 eax, 4
  0001b	89 45 f0	 mov	 DWORD PTR __Mylast$[ebp], eax

; 1690 :         pointer& _Myend   = _My_data._Myend;

  0001e	8b 45 f8	 mov	 eax, DWORD PTR __My_data$[ebp]
  00021	83 c0 08	 add	 eax, 8
  00024	89 45 ec	 mov	 DWORD PTR __Myend$[ebp], eax

; 1691 : 
; 1692 :         _My_data._Orphan_all();
; 1693 : 
; 1694 :         if (_Myfirst) { // destroy and deallocate old array

  00027	8b 45 fc	 mov	 eax, DWORD PTR __Myfirst$[ebp]
  0002a	83 38 00	 cmp	 DWORD PTR [eax], 0
  0002d	74 75		 je	 SHORT $LN3@Tidy

; 1695 :             _Destroy(_Myfirst, _Mylast);

  0002f	8b 45 f0	 mov	 eax, DWORD PTR __Mylast$[ebp]
  00032	8b 00		 mov	 eax, DWORD PTR [eax]
  00034	89 45 e0	 mov	 DWORD PTR __Last$[ebp], eax
  00037	8b 45 fc	 mov	 eax, DWORD PTR __Myfirst$[ebp]
  0003a	8b 00		 mov	 eax, DWORD PTR [eax]
  0003c	89 45 dc	 mov	 DWORD PTR __First$[ebp], eax

; 1733 :         return _Mypair._Get_first();

  0003f	8b 45 f4	 mov	 eax, DWORD PTR _this$[ebp]
; File C:\Program Files (x86)\Microsoft Visual Studio\2019\Community\VC\Tools\MSVC\14.28.29333\include\xmemory

; 1347 :         return *this;

  00042	89 45 e8	 mov	 DWORD PTR $T4[ebp], eax
; File C:\Program Files (x86)\Microsoft Visual Studio\2019\Community\VC\Tools\MSVC\14.28.29333\include\vector

; 1733 :         return _Mypair._Get_first();

  00045	8b 45 e8	 mov	 eax, DWORD PTR $T4[ebp]
  00048	89 45 e4	 mov	 DWORD PTR $T3[ebp], eax

; 1612 :         _Destroy_range(_First, _Last, _Getal());

  0004b	ff 75 e4	 push	 DWORD PTR $T3[ebp]
  0004e	ff 75 e0	 push	 DWORD PTR __Last$[ebp]
  00051	ff 75 dc	 push	 DWORD PTR __First$[ebp]
  00054	e8 00 00 00 00	 call	 ??$_Destroy_range@V?$allocator@V?$basic_string@DU?$char_traits@D@std@@V?$allocator@D@2@@std@@@std@@@std@@YAXPAV?$basic_string@DU?$char_traits@D@std@@V?$allocator@D@2@@0@QAV10@AAV?$allocator@V?$basic_string@DU?$char_traits@D@std@@V?$allocator@D@2@@std@@@0@@Z ; std::_Destroy_range<std::allocator<std::basic_string<char,std::char_traits<char>,std::allocator<char> > > >
  00059	83 c4 0c	 add	 esp, 12			; 0000000cH

; 1733 :         return _Mypair._Get_first();

  0005c	8b 45 f4	 mov	 eax, DWORD PTR _this$[ebp]
; File C:\Program Files (x86)\Microsoft Visual Studio\2019\Community\VC\Tools\MSVC\14.28.29333\include\xmemory

; 1347 :         return *this;

  0005f	89 45 d8	 mov	 DWORD PTR $T2[ebp], eax
; File C:\Program Files (x86)\Microsoft Visual Studio\2019\Community\VC\Tools\MSVC\14.28.29333\include\vector

; 1733 :         return _Mypair._Get_first();

  00062	8b 45 d8	 mov	 eax, DWORD PTR $T2[ebp]
  00065	89 45 cc	 mov	 DWORD PTR $T1[ebp], eax

; 1696 :             _Getal().deallocate(_Myfirst, static_cast<size_type>(_Myend - _Myfirst));

  00068	8b 45 ec	 mov	 eax, DWORD PTR __Myend$[ebp]
  0006b	8b 4d fc	 mov	 ecx, DWORD PTR __Myfirst$[ebp]
  0006e	8b 00		 mov	 eax, DWORD PTR [eax]
  00070	2b 01		 sub	 eax, DWORD PTR [ecx]
  00072	99		 cdq
  00073	6a 18		 push	 24			; 00000018H
  00075	59		 pop	 ecx
  00076	f7 f9		 idiv	 ecx
  00078	89 45 d4	 mov	 DWORD PTR __Count$[ebp], eax
  0007b	8b 45 fc	 mov	 eax, DWORD PTR __Myfirst$[ebp]
  0007e	8b 00		 mov	 eax, DWORD PTR [eax]
  00080	89 45 d0	 mov	 DWORD PTR __Ptr$[ebp], eax
; File C:\Program Files (x86)\Microsoft Visual Studio\2019\Community\VC\Tools\MSVC\14.28.29333\include\xmemory

; 810  :         _Deallocate<_New_alignof<_Ty>>(_Ptr, sizeof(_Ty) * _Count);

  00083	6b 45 d4 18	 imul	 eax, DWORD PTR __Count$[ebp], 24
  00087	50		 push	 eax
  00088	ff 75 d0	 push	 DWORD PTR __Ptr$[ebp]
  0008b	e8 00 00 00 00	 call	 ??$_Deallocate@$07$0A@@std@@YAXPAXI@Z ; std::_Deallocate<8,0>
  00090	59		 pop	 ecx
  00091	59		 pop	 ecx
; File C:\Program Files (x86)\Microsoft Visual Studio\2019\Community\VC\Tools\MSVC\14.28.29333\include\vector

; 1698 :             _Myfirst = pointer();

  00092	8b 45 fc	 mov	 eax, DWORD PTR __Myfirst$[ebp]
  00095	83 20 00	 and	 DWORD PTR [eax], 0

; 1699 :             _Mylast  = pointer();

  00098	8b 45 f0	 mov	 eax, DWORD PTR __Mylast$[ebp]
  0009b	83 20 00	 and	 DWORD PTR [eax], 0

; 1700 :             _Myend   = pointer();

  0009e	8b 45 ec	 mov	 eax, DWORD PTR __Myend$[ebp]
  000a1	83 20 00	 and	 DWORD PTR [eax], 0
$LN3@Tidy:

; 1701 :         }
; 1702 :     }

  000a4	c9		 leave
  000a5	c3		 ret	 0
?_Tidy@?$vector@V?$basic_string@DU?$char_traits@D@std@@V?$allocator@D@2@@std@@V?$allocator@V?$basic_string@DU?$char_traits@D@std@@V?$allocator@D@2@@std@@@2@@std@@AAEXXZ ENDP ; std::vector<std::basic_string<char,std::char_traits<char>,std::allocator<char> >,std::allocator<std::basic_string<char,std::char_traits<char>,std::allocator<char> > > >::_Tidy
_TEXT	ENDS
; Function compile flags: /Odspy
; File C:\Program Files (x86)\Microsoft Visual Studio\2019\Community\VC\Tools\MSVC\14.28.29333\include\vector
; File C:\Program Files (x86)\Microsoft Visual Studio\2019\Community\VC\Tools\MSVC\14.28.29333\include\xmemory
; File C:\Program Files (x86)\Microsoft Visual Studio\2019\Community\VC\Tools\MSVC\14.28.29333\include\vector
;	COMDAT ?clear@?$vector@V?$basic_string@DU?$char_traits@D@std@@V?$allocator@D@2@@std@@V?$allocator@V?$basic_string@DU?$char_traits@D@std@@V?$allocator@D@2@@std@@@2@@std@@QAEXXZ
_TEXT	SEGMENT
__First$ = -32						; size = 4
__Last$ = -28						; size = 4
$T1 = -24						; size = 4
$T2 = -20						; size = 4
__Myfirst$ = -16					; size = 4
__Mylast$ = -12						; size = 4
_this$ = -8						; size = 4
__My_data$ = -4						; size = 4
?clear@?$vector@V?$basic_string@DU?$char_traits@D@std@@V?$allocator@D@2@@std@@V?$allocator@V?$basic_string@DU?$char_traits@D@std@@V?$allocator@D@2@@std@@@2@@std@@QAEXXZ PROC ; std::vector<std::basic_string<char,std::char_traits<char>,std::allocator<char> >,std::allocator<std::basic_string<char,std::char_traits<char>,std::allocator<char> > > >::clear, COMDAT
; _this$ = ecx

; 1383 :     void clear() noexcept { // erase all

  00000	55		 push	 ebp
  00001	8b ec		 mov	 ebp, esp
  00003	83 ec 20	 sub	 esp, 32			; 00000020H
  00006	89 4d f8	 mov	 DWORD PTR _this$[ebp], ecx

; 1384 :         auto& _My_data    = _Mypair._Myval2;

  00009	8b 45 f8	 mov	 eax, DWORD PTR _this$[ebp]
  0000c	89 45 fc	 mov	 DWORD PTR __My_data$[ebp], eax

; 1385 :         pointer& _Myfirst = _My_data._Myfirst;

  0000f	8b 45 fc	 mov	 eax, DWORD PTR __My_data$[ebp]
  00012	89 45 f0	 mov	 DWORD PTR __Myfirst$[ebp], eax

; 1386 :         pointer& _Mylast  = _My_data._Mylast;

  00015	8b 45 fc	 mov	 eax, DWORD PTR __My_data$[ebp]
  00018	83 c0 04	 add	 eax, 4
  0001b	89 45 f4	 mov	 DWORD PTR __Mylast$[ebp], eax

; 1387 : 
; 1388 :         _My_data._Orphan_all();
; 1389 :         _Destroy(_Myfirst, _Mylast);

  0001e	8b 45 f4	 mov	 eax, DWORD PTR __Mylast$[ebp]
  00021	8b 00		 mov	 eax, DWORD PTR [eax]
  00023	89 45 e4	 mov	 DWORD PTR __Last$[ebp], eax
  00026	8b 45 f0	 mov	 eax, DWORD PTR __Myfirst$[ebp]
  00029	8b 00		 mov	 eax, DWORD PTR [eax]
  0002b	89 45 e0	 mov	 DWORD PTR __First$[ebp], eax

; 1733 :         return _Mypair._Get_first();

  0002e	8b 45 f8	 mov	 eax, DWORD PTR _this$[ebp]
; File C:\Program Files (x86)\Microsoft Visual Studio\2019\Community\VC\Tools\MSVC\14.28.29333\include\xmemory

; 1347 :         return *this;

  00031	89 45 ec	 mov	 DWORD PTR $T2[ebp], eax
; File C:\Program Files (x86)\Microsoft Visual Studio\2019\Community\VC\Tools\MSVC\14.28.29333\include\vector

; 1733 :         return _Mypair._Get_first();

  00034	8b 45 ec	 mov	 eax, DWORD PTR $T2[ebp]
  00037	89 45 e8	 mov	 DWORD PTR $T1[ebp], eax

; 1612 :         _Destroy_range(_First, _Last, _Getal());

  0003a	ff 75 e8	 push	 DWORD PTR $T1[ebp]
  0003d	ff 75 e4	 push	 DWORD PTR __Last$[ebp]
  00040	ff 75 e0	 push	 DWORD PTR __First$[ebp]
  00043	e8 00 00 00 00	 call	 ??$_Destroy_range@V?$allocator@V?$basic_string@DU?$char_traits@D@std@@V?$allocator@D@2@@std@@@std@@@std@@YAXPAV?$basic_string@DU?$char_traits@D@std@@V?$allocator@D@2@@0@QAV10@AAV?$allocator@V?$basic_string@DU?$char_traits@D@std@@V?$allocator@D@2@@std@@@0@@Z ; std::_Destroy_range<std::allocator<std::basic_string<char,std::char_traits<char>,std::allocator<char> > > >
  00048	83 c4 0c	 add	 esp, 12			; 0000000cH

; 1390 :         _Mylast = _Myfirst;

  0004b	8b 45 f4	 mov	 eax, DWORD PTR __Mylast$[ebp]
  0004e	8b 4d f0	 mov	 ecx, DWORD PTR __Myfirst$[ebp]
  00051	8b 09		 mov	 ecx, DWORD PTR [ecx]
  00053	89 08		 mov	 DWORD PTR [eax], ecx

; 1391 :     }

  00055	c9		 leave
  00056	c3		 ret	 0
?clear@?$vector@V?$basic_string@DU?$char_traits@D@std@@V?$allocator@D@2@@std@@V?$allocator@V?$basic_string@DU?$char_traits@D@std@@V?$allocator@D@2@@std@@@2@@std@@QAEXXZ ENDP ; std::vector<std::basic_string<char,std::char_traits<char>,std::allocator<char> >,std::allocator<std::basic_string<char,std::char_traits<char>,std::allocator<char> > > >::clear
_TEXT	ENDS
; Function compile flags: /Odspy
; File C:\Program Files (x86)\Microsoft Visual Studio\2019\Community\VC\Tools\MSVC\14.28.29333\include\vector
;	COMDAT ??1?$vector@V?$basic_string@DU?$char_traits@D@std@@V?$allocator@D@2@@std@@V?$allocator@V?$basic_string@DU?$char_traits@D@std@@V?$allocator@D@2@@std@@@2@@std@@QAE@XZ
_TEXT	SEGMENT
_this$ = -4						; size = 4
??1?$vector@V?$basic_string@DU?$char_traits@D@std@@V?$allocator@D@2@@std@@V?$allocator@V?$basic_string@DU?$char_traits@D@std@@V?$allocator@D@2@@std@@@2@@std@@QAE@XZ PROC ; std::vector<std::basic_string<char,std::char_traits<char>,std::allocator<char> >,std::allocator<std::basic_string<char,std::char_traits<char>,std::allocator<char> > > >::~vector<std::basic_string<char,std::char_traits<char>,std::allocator<char> >,std::allocator<std::basic_string<char,std::char_traits<char>,std::allocator<char> > > >, COMDAT
; _this$ = ecx

; 672  :     ~vector() noexcept {

  00000	55		 push	 ebp
  00001	8b ec		 mov	 ebp, esp
  00003	51		 push	 ecx
  00004	89 4d fc	 mov	 DWORD PTR _this$[ebp], ecx

; 673  :         _Tidy();

  00007	8b 4d fc	 mov	 ecx, DWORD PTR _this$[ebp]
  0000a	e8 00 00 00 00	 call	 ?_Tidy@?$vector@V?$basic_string@DU?$char_traits@D@std@@V?$allocator@D@2@@std@@V?$allocator@V?$basic_string@DU?$char_traits@D@std@@V?$allocator@D@2@@std@@@2@@std@@AAEXXZ ; std::vector<std::basic_string<char,std::char_traits<char>,std::allocator<char> >,std::allocator<std::basic_string<char,std::char_traits<char>,std::allocator<char> > > >::_Tidy

; 674  : #if _ITERATOR_DEBUG_LEVEL != 0
; 675  :         auto&& _Alproxy = _GET_PROXY_ALLOCATOR(_Alty, _Getal());
; 676  :         _Delete_plain_internal(_Alproxy, _STD exchange(_Mypair._Myval2._Myproxy, nullptr));
; 677  : #endif // _ITERATOR_DEBUG_LEVEL != 0
; 678  :     }

  0000f	c9		 leave
  00010	c3		 ret	 0
??1?$vector@V?$basic_string@DU?$char_traits@D@std@@V?$allocator@D@2@@std@@V?$allocator@V?$basic_string@DU?$char_traits@D@std@@V?$allocator@D@2@@std@@@2@@std@@QAE@XZ ENDP ; std::vector<std::basic_string<char,std::char_traits<char>,std::allocator<char> >,std::allocator<std::basic_string<char,std::char_traits<char>,std::allocator<char> > > >::~vector<std::basic_string<char,std::char_traits<char>,std::allocator<char> >,std::allocator<std::basic_string<char,std::char_traits<char>,std::allocator<char> > > >
_TEXT	ENDS
; Function compile flags: /Odspy
; File C:\Program Files (x86)\Microsoft Visual Studio\2019\Community\VC\Tools\MSVC\14.28.29333\include\xstring
; File C:\Program Files (x86)\Microsoft Visual Studio\2019\Community\VC\Tools\MSVC\14.28.29333\include\xmemory
; File C:\Program Files (x86)\Microsoft Visual Studio\2019\Community\VC\Tools\MSVC\14.28.29333\include\xstring
; File C:\Program Files (x86)\Microsoft Visual Studio\2019\Community\VC\Tools\MSVC\14.28.29333\include\xmemory
; File C:\Program Files (x86)\Microsoft Visual Studio\2019\Community\VC\Tools\MSVC\14.28.29333\include\xstring
;	COMDAT ?_Tidy_deallocate@?$basic_string@DU?$char_traits@D@std@@V?$allocator@D@2@@std@@AAEXXZ
_TEXT	SEGMENT
__Al$1 = -28						; size = 4
__Ptr$2 = -24						; size = 4
__Count$ = -20						; size = 4
$T3 = -16						; size = 4
tv68 = -12						; size = 4
_this$ = -8						; size = 4
$T4 = -2						; size = 1
$T5 = -1						; size = 1
?_Tidy_deallocate@?$basic_string@DU?$char_traits@D@std@@V?$allocator@D@2@@std@@AAEXXZ PROC ; std::basic_string<char,std::char_traits<char>,std::allocator<char> >::_Tidy_deallocate, COMDAT
; _this$ = ecx

; 4383 :     void _Tidy_deallocate() noexcept { // initialize buffer, deallocating any storage

  00000	55		 push	 ebp
  00001	8b ec		 mov	 ebp, esp
  00003	83 ec 1c	 sub	 esp, 28			; 0000001cH
  00006	89 4d f8	 mov	 DWORD PTR _this$[ebp], ecx

; 2227 :         return _BUF_SIZE <= _Myres;

  00009	8b 45 f8	 mov	 eax, DWORD PTR _this$[ebp]
  0000c	83 78 14 10	 cmp	 DWORD PTR [eax+20], 16	; 00000010H
  00010	72 09		 jb	 SHORT $LN9@Tidy_deall
  00012	c7 45 f4 01 00
	00 00		 mov	 DWORD PTR tv68[ebp], 1
  00019	eb 04		 jmp	 SHORT $LN10@Tidy_deall
$LN9@Tidy_deall:
  0001b	83 65 f4 00	 and	 DWORD PTR tv68[ebp], 0
$LN10@Tidy_deall:
  0001f	8a 45 f4	 mov	 al, BYTE PTR tv68[ebp]
  00022	88 45 ff	 mov	 BYTE PTR $T5[ebp], al

; 4384 :         _Mypair._Myval2._Orphan_all();
; 4385 :         if (_Mypair._Myval2._Large_string_engaged()) {

  00025	0f b6 45 ff	 movzx	 eax, BYTE PTR $T5[ebp]
  00029	85 c0		 test	 eax, eax
  0002b	74 34		 je	 SHORT $LN2@Tidy_deall

; 4386 :             const pointer _Ptr = _Mypair._Myval2._Bx._Ptr;

  0002d	8b 45 f8	 mov	 eax, DWORD PTR _this$[ebp]
  00030	8b 00		 mov	 eax, DWORD PTR [eax]
  00032	89 45 e8	 mov	 DWORD PTR __Ptr$2[ebp], eax

; 4409 :         return _Mypair._Get_first();

  00035	8b 45 f8	 mov	 eax, DWORD PTR _this$[ebp]
; File C:\Program Files (x86)\Microsoft Visual Studio\2019\Community\VC\Tools\MSVC\14.28.29333\include\xmemory

; 1347 :         return *this;

  00038	89 45 f0	 mov	 DWORD PTR $T3[ebp], eax
; File C:\Program Files (x86)\Microsoft Visual Studio\2019\Community\VC\Tools\MSVC\14.28.29333\include\xstring

; 4409 :         return _Mypair._Get_first();

  0003b	8b 45 f0	 mov	 eax, DWORD PTR $T3[ebp]
  0003e	89 45 e4	 mov	 DWORD PTR __Al$1[ebp], eax

; 4387 :             auto& _Al          = _Getal();
; 4388 :             _Destroy_in_place(_Mypair._Myval2._Bx._Ptr);

  00041	ff 75 f8	 push	 DWORD PTR _this$[ebp]
  00044	e8 00 00 00 00	 call	 ??$_Destroy_in_place@PAD@std@@YAXAAPAD@Z ; std::_Destroy_in_place<char *>
  00049	59		 pop	 ecx

; 4389 :             _Al.deallocate(_Ptr, _Mypair._Myval2._Myres + 1);

  0004a	8b 45 f8	 mov	 eax, DWORD PTR _this$[ebp]
  0004d	8b 40 14	 mov	 eax, DWORD PTR [eax+20]
  00050	40		 inc	 eax
  00051	89 45 ec	 mov	 DWORD PTR __Count$[ebp], eax
; File C:\Program Files (x86)\Microsoft Visual Studio\2019\Community\VC\Tools\MSVC\14.28.29333\include\xmemory

; 810  :         _Deallocate<_New_alignof<_Ty>>(_Ptr, sizeof(_Ty) * _Count);

  00054	ff 75 ec	 push	 DWORD PTR __Count$[ebp]
  00057	ff 75 e8	 push	 DWORD PTR __Ptr$2[ebp]
  0005a	e8 00 00 00 00	 call	 ??$_Deallocate@$07$0A@@std@@YAXPAXI@Z ; std::_Deallocate<8,0>
  0005f	59		 pop	 ecx
  00060	59		 pop	 ecx
$LN2@Tidy_deall:
; File C:\Program Files (x86)\Microsoft Visual Studio\2019\Community\VC\Tools\MSVC\14.28.29333\include\xstring

; 4392 :         _Mypair._Myval2._Mysize = 0;

  00061	8b 45 f8	 mov	 eax, DWORD PTR _this$[ebp]
  00064	83 60 10 00	 and	 DWORD PTR [eax+16], 0

; 4393 :         _Mypair._Myval2._Myres  = _BUF_SIZE - 1;

  00068	8b 45 f8	 mov	 eax, DWORD PTR _this$[ebp]
  0006b	c7 40 14 0f 00
	00 00		 mov	 DWORD PTR [eax+20], 15	; 0000000fH

; 4394 :         // the _Traits::assign is last so the codegen doesn't think the char write can alias this
; 4395 :         _Traits::assign(_Mypair._Myval2._Bx._Buf[0], _Elem());

  00072	c6 45 fe 00	 mov	 BYTE PTR $T4[ebp], 0
  00076	33 c0		 xor	 eax, eax
  00078	40		 inc	 eax
  00079	6b c0 00	 imul	 eax, eax, 0

; 428  :         _Left = _Right;

  0007c	8b 4d f8	 mov	 ecx, DWORD PTR _this$[ebp]
  0007f	8a 55 fe	 mov	 dl, BYTE PTR $T4[ebp]
  00082	88 14 01	 mov	 BYTE PTR [ecx+eax], dl

; 4396 :     }

  00085	c9		 leave
  00086	c3		 ret	 0
?_Tidy_deallocate@?$basic_string@DU?$char_traits@D@std@@V?$allocator@D@2@@std@@AAEXXZ ENDP ; std::basic_string<char,std::char_traits<char>,std::allocator<char> >::_Tidy_deallocate
_TEXT	ENDS
; Function compile flags: /Odspy
; File C:\Program Files (x86)\Microsoft Visual Studio\2019\Community\VC\Tools\MSVC\14.28.29333\include\xstring
;	COMDAT ?_Tidy_init@?$basic_string@DU?$char_traits@D@std@@V?$allocator@D@2@@std@@AAEXXZ
_TEXT	SEGMENT
_this$ = -8						; size = 4
$T1 = -1						; size = 1
?_Tidy_init@?$basic_string@DU?$char_traits@D@std@@V?$allocator@D@2@@std@@AAEXXZ PROC ; std::basic_string<char,std::char_traits<char>,std::allocator<char> >::_Tidy_init, COMDAT
; _this$ = ecx

; 4376 :     void _Tidy_init() noexcept { // initialize basic_string data members

  00000	55		 push	 ebp
  00001	8b ec		 mov	 ebp, esp
  00003	51		 push	 ecx
  00004	51		 push	 ecx
  00005	89 4d f8	 mov	 DWORD PTR _this$[ebp], ecx

; 4377 :         _Mypair._Myval2._Mysize = 0;

  00008	8b 45 f8	 mov	 eax, DWORD PTR _this$[ebp]
  0000b	83 60 10 00	 and	 DWORD PTR [eax+16], 0

; 4378 :         _Mypair._Myval2._Myres  = _BUF_SIZE - 1;

  0000f	8b 45 f8	 mov	 eax, DWORD PTR _this$[ebp]
  00012	c7 40 14 0f 00
	00 00		 mov	 DWORD PTR [eax+20], 15	; 0000000fH

; 4379 :         // the _Traits::assign is last so the codegen doesn't think the char write can alias this
; 4380 :         _Traits::assign(_Mypair._Myval2._Bx._Buf[0], _Elem());

  00019	c6 45 ff 00	 mov	 BYTE PTR $T1[ebp], 0
  0001d	33 c0		 xor	 eax, eax
  0001f	40		 inc	 eax
  00020	6b c0 00	 imul	 eax, eax, 0

; 428  :         _Left = _Right;

  00023	8b 4d f8	 mov	 ecx, DWORD PTR _this$[ebp]
  00026	8a 55 ff	 mov	 dl, BYTE PTR $T1[ebp]
  00029	88 14 01	 mov	 BYTE PTR [ecx+eax], dl

; 4381 :     }

  0002c	c9		 leave
  0002d	c3		 ret	 0
?_Tidy_init@?$basic_string@DU?$char_traits@D@std@@V?$allocator@D@2@@std@@AAEXXZ ENDP ; std::basic_string<char,std::char_traits<char>,std::allocator<char> >::_Tidy_init
_TEXT	ENDS
; Function compile flags: /Odspy
; File C:\Program Files (x86)\Microsoft Visual Studio\2019\Community\VC\Tools\MSVC\14.28.29333\include\xstring
; File C:\Program Files (x86)\Microsoft Visual Studio\2019\Community\VC\Tools\MSVC\14.28.29333\include\utility
; File C:\Program Files (x86)\Microsoft Visual Studio\2019\Community\VC\Tools\MSVC\14.28.29333\include\xstring
;	COMDAT ?_Calculate_growth@?$basic_string@DU?$char_traits@D@std@@V?$allocator@D@2@@std@@ABEII@Z
_TEXT	SEGMENT
$T1 = -36						; size = 4
$T2 = -32						; size = 4
tv93 = -28						; size = 4
$T3 = -24						; size = 4
_this$ = -20						; size = 4
$T4 = -16						; size = 4
__Masked$5 = -12					; size = 4
__Old$ = -8						; size = 4
__Max$ = -4						; size = 4
__Requested$ = 8					; size = 4
?_Calculate_growth@?$basic_string@DU?$char_traits@D@std@@V?$allocator@D@2@@std@@ABEII@Z PROC ; std::basic_string<char,std::char_traits<char>,std::allocator<char> >::_Calculate_growth, COMDAT
; _this$ = ecx

; 4297 :     _NODISCARD size_type _Calculate_growth(const size_type _Requested) const noexcept {

  00000	55		 push	 ebp
  00001	8b ec		 mov	 ebp, esp
  00003	83 ec 24	 sub	 esp, 36			; 00000024H
  00006	89 4d ec	 mov	 DWORD PTR _this$[ebp], ecx

; 4298 :         return _Calculate_growth(_Requested, _Mypair._Myval2._Myres, max_size());

  00009	8b 4d ec	 mov	 ecx, DWORD PTR _this$[ebp]
  0000c	e8 00 00 00 00	 call	 ?max_size@?$basic_string@DU?$char_traits@D@std@@V?$allocator@D@2@@std@@QBEIXZ ; std::basic_string<char,std::char_traits<char>,std::allocator<char> >::max_size
  00011	89 45 fc	 mov	 DWORD PTR __Max$[ebp], eax
  00014	8b 45 ec	 mov	 eax, DWORD PTR _this$[ebp]
  00017	8b 40 14	 mov	 eax, DWORD PTR [eax+20]
  0001a	89 45 f8	 mov	 DWORD PTR __Old$[ebp], eax

; 4285 :         const size_type _Masked = _Requested | _ALLOC_MASK;

  0001d	8b 45 08	 mov	 eax, DWORD PTR __Requested$[ebp]
  00020	83 c8 0f	 or	 eax, 15			; 0000000fH
  00023	89 45 f4	 mov	 DWORD PTR __Masked$5[ebp], eax

; 4286 :         if (_Masked > _Max) { // the mask overflows, settle for max_size()

  00026	8b 45 f4	 mov	 eax, DWORD PTR __Masked$5[ebp]
  00029	3b 45 fc	 cmp	 eax, DWORD PTR __Max$[ebp]
  0002c	76 08		 jbe	 SHORT $LN29@Calculate_

; 4287 :             return _Max;

  0002e	8b 45 fc	 mov	 eax, DWORD PTR __Max$[ebp]
  00031	89 45 f0	 mov	 DWORD PTR $T4[ebp], eax
  00034	eb 4c		 jmp	 SHORT $LN31@Calculate_
$LN29@Calculate_:

; 4288 :         }
; 4289 : 
; 4290 :         if (_Old > _Max - _Old / 2) { // similarly, geometric overflows

  00036	8b 45 f8	 mov	 eax, DWORD PTR __Old$[ebp]
  00039	d1 e8		 shr	 eax, 1
  0003b	8b 4d fc	 mov	 ecx, DWORD PTR __Max$[ebp]
  0003e	2b c8		 sub	 ecx, eax
  00040	39 4d f8	 cmp	 DWORD PTR __Old$[ebp], ecx
  00043	76 08		 jbe	 SHORT $LN30@Calculate_

; 4291 :             return _Max;

  00045	8b 45 fc	 mov	 eax, DWORD PTR __Max$[ebp]
  00048	89 45 f0	 mov	 DWORD PTR $T4[ebp], eax
  0004b	eb 35		 jmp	 SHORT $LN31@Calculate_
$LN30@Calculate_:

; 4294 :         return (_STD max)(_Masked, _Old + _Old / 2);

  0004d	8b 45 f8	 mov	 eax, DWORD PTR __Old$[ebp]
  00050	d1 e8		 shr	 eax, 1
  00052	03 45 f8	 add	 eax, DWORD PTR __Old$[ebp]
  00055	89 45 e8	 mov	 DWORD PTR $T3[ebp], eax
; File C:\Program Files (x86)\Microsoft Visual Studio\2019\Community\VC\Tools\MSVC\14.28.29333\include\utility

; 44   :     return _Left < _Right ? _Right : _Left;

  00058	8b 45 f4	 mov	 eax, DWORD PTR __Masked$5[ebp]
  0005b	3b 45 e8	 cmp	 eax, DWORD PTR $T3[ebp]
  0005e	73 08		 jae	 SHORT $LN35@Calculate_
  00060	8d 45 e8	 lea	 eax, DWORD PTR $T3[ebp]
  00063	89 45 e4	 mov	 DWORD PTR tv93[ebp], eax
  00066	eb 06		 jmp	 SHORT $LN36@Calculate_
$LN35@Calculate_:
  00068	8d 45 f4	 lea	 eax, DWORD PTR __Masked$5[ebp]
  0006b	89 45 e4	 mov	 DWORD PTR tv93[ebp], eax
$LN36@Calculate_:
  0006e	8b 45 e4	 mov	 eax, DWORD PTR tv93[ebp]
  00071	89 45 e0	 mov	 DWORD PTR $T2[ebp], eax
  00074	8b 45 e0	 mov	 eax, DWORD PTR $T2[ebp]
  00077	89 45 dc	 mov	 DWORD PTR $T1[ebp], eax
; File C:\Program Files (x86)\Microsoft Visual Studio\2019\Community\VC\Tools\MSVC\14.28.29333\include\xstring

; 4294 :         return (_STD max)(_Masked, _Old + _Old / 2);

  0007a	8b 45 dc	 mov	 eax, DWORD PTR $T1[ebp]
  0007d	8b 00		 mov	 eax, DWORD PTR [eax]
  0007f	89 45 f0	 mov	 DWORD PTR $T4[ebp], eax
$LN31@Calculate_:

; 4298 :         return _Calculate_growth(_Requested, _Mypair._Myval2._Myres, max_size());

  00082	8b 45 f0	 mov	 eax, DWORD PTR $T4[ebp]

; 4299 :     }

  00085	c9		 leave
  00086	c2 04 00	 ret	 4
?_Calculate_growth@?$basic_string@DU?$char_traits@D@std@@V?$allocator@D@2@@std@@ABEII@Z ENDP ; std::basic_string<char,std::char_traits<char>,std::allocator<char> >::_Calculate_growth
_TEXT	ENDS
; Function compile flags: /Odspy
; File C:\Program Files (x86)\Microsoft Visual Studio\2019\Community\VC\Tools\MSVC\14.28.29333\include\xstring
; File C:\Program Files (x86)\Microsoft Visual Studio\2019\Community\VC\Tools\MSVC\14.28.29333\include\xmemory
; File C:\Program Files (x86)\Microsoft Visual Studio\2019\Community\VC\Tools\MSVC\14.28.29333\include\xstring
; File C:\Program Files (x86)\Microsoft Visual Studio\2019\Community\VC\Tools\MSVC\14.28.29333\include\xmemory
; File C:\Program Files (x86)\Microsoft Visual Studio\2019\Community\VC\Tools\MSVC\14.28.29333\include\xstring
; File C:\Program Files (x86)\Microsoft Visual Studio\2019\Community\VC\Tools\MSVC\14.28.29333\include\utility
; File C:\Program Files (x86)\Microsoft Visual Studio\2019\Community\VC\Tools\MSVC\14.28.29333\include\xstring
; File C:\Program Files (x86)\Microsoft Visual Studio\2019\Community\VC\Tools\MSVC\14.28.29333\include\limits
; File C:\Program Files (x86)\Microsoft Visual Studio\2019\Community\VC\Tools\MSVC\14.28.29333\include\xstring
; File C:\Program Files (x86)\Microsoft Visual Studio\2019\Community\VC\Tools\MSVC\14.28.29333\include\utility
; File C:\Program Files (x86)\Microsoft Visual Studio\2019\Community\VC\Tools\MSVC\14.28.29333\include\xstring
;	COMDAT ?max_size@?$basic_string@DU?$char_traits@D@std@@V?$allocator@D@2@@std@@QBEIXZ
_TEXT	SEGMENT
$T1 = -60						; size = 4
$T2 = -56						; size = 4
$T3 = -52						; size = 4
$T4 = -48						; size = 4
__Storage_max$ = -44					; size = 4
$T5 = -40						; size = 4
$T6 = -36						; size = 4
$T7 = -32						; size = 4
_this$ = -28						; size = 4
tv70 = -24						; size = 4
$T8 = -20						; size = 4
$T9 = -16						; size = 4
tv67 = -12						; size = 4
__Alloc_max$ = -8					; size = 4
$T10 = -4						; size = 4
?max_size@?$basic_string@DU?$char_traits@D@std@@V?$allocator@D@2@@std@@QBEIXZ PROC ; std::basic_string<char,std::char_traits<char>,std::allocator<char> >::max_size, COMDAT
; _this$ = ecx

; 3773 :     _NODISCARD size_type max_size() const noexcept {

  00000	55		 push	 ebp
  00001	8b ec		 mov	 ebp, esp
  00003	83 ec 3c	 sub	 esp, 60			; 0000003cH
  00006	89 4d e4	 mov	 DWORD PTR _this$[ebp], ecx

; 4413 :         return _Mypair._Get_first();

  00009	8b 45 e4	 mov	 eax, DWORD PTR _this$[ebp]
; File C:\Program Files (x86)\Microsoft Visual Studio\2019\Community\VC\Tools\MSVC\14.28.29333\include\xmemory

; 1351 :         return *this;

  0000c	89 45 e0	 mov	 DWORD PTR $T7[ebp], eax
; File C:\Program Files (x86)\Microsoft Visual Studio\2019\Community\VC\Tools\MSVC\14.28.29333\include\xstring

; 4413 :         return _Mypair._Get_first();

  0000f	8b 45 e0	 mov	 eax, DWORD PTR $T7[ebp]
  00012	89 45 c4	 mov	 DWORD PTR $T1[ebp], eax
; File C:\Program Files (x86)\Microsoft Visual Studio\2019\Community\VC\Tools\MSVC\14.28.29333\include\xmemory

; 710  :         return static_cast<size_t>(-1) / sizeof(value_type);

  00015	83 4d f8 ff	 or	 DWORD PTR __Alloc_max$[ebp], -1
; File C:\Program Files (x86)\Microsoft Visual Studio\2019\Community\VC\Tools\MSVC\14.28.29333\include\xstring

; 3775 :         const size_type _Storage_max = // can always store small string

  00019	c7 45 fc 10 00
	00 00		 mov	 DWORD PTR $T10[ebp], 16	; 00000010H
; File C:\Program Files (x86)\Microsoft Visual Studio\2019\Community\VC\Tools\MSVC\14.28.29333\include\utility

; 44   :     return _Left < _Right ? _Right : _Left;

  00020	8b 45 f8	 mov	 eax, DWORD PTR __Alloc_max$[ebp]
  00023	3b 45 fc	 cmp	 eax, DWORD PTR $T10[ebp]
  00026	73 08		 jae	 SHORT $LN14@max_size
  00028	8d 45 fc	 lea	 eax, DWORD PTR $T10[ebp]
  0002b	89 45 f4	 mov	 DWORD PTR tv67[ebp], eax
  0002e	eb 06		 jmp	 SHORT $LN15@max_size
$LN14@max_size:
  00030	8d 45 f8	 lea	 eax, DWORD PTR __Alloc_max$[ebp]
  00033	89 45 f4	 mov	 DWORD PTR tv67[ebp], eax
$LN15@max_size:
  00036	8b 45 f4	 mov	 eax, DWORD PTR tv67[ebp]
  00039	89 45 dc	 mov	 DWORD PTR $T6[ebp], eax
  0003c	8b 45 dc	 mov	 eax, DWORD PTR $T6[ebp]
  0003f	89 45 d8	 mov	 DWORD PTR $T5[ebp], eax
; File C:\Program Files (x86)\Microsoft Visual Studio\2019\Community\VC\Tools\MSVC\14.28.29333\include\xstring

; 3775 :         const size_type _Storage_max = // can always store small string

  00042	8b 45 d8	 mov	 eax, DWORD PTR $T5[ebp]
  00045	8b 00		 mov	 eax, DWORD PTR [eax]
  00047	89 45 d4	 mov	 DWORD PTR __Storage_max$[ebp], eax

; 3777 :         return (_STD min)(static_cast<size_type>((numeric_limits<difference_type>::max)()),

  0004a	8b 45 d4	 mov	 eax, DWORD PTR __Storage_max$[ebp]
  0004d	48		 dec	 eax
  0004e	89 45 f0	 mov	 DWORD PTR $T9[ebp], eax
; File C:\Program Files (x86)\Microsoft Visual Studio\2019\Community\VC\Tools\MSVC\14.28.29333\include\limits

; 557  :         return INT_MAX;

  00051	c7 45 d0 ff ff
	ff 7f		 mov	 DWORD PTR $T4[ebp], 2147483647 ; 7fffffffH
; File C:\Program Files (x86)\Microsoft Visual Studio\2019\Community\VC\Tools\MSVC\14.28.29333\include\xstring

; 3777 :         return (_STD min)(static_cast<size_type>((numeric_limits<difference_type>::max)()),

  00058	8b 45 d0	 mov	 eax, DWORD PTR $T4[ebp]
  0005b	89 45 ec	 mov	 DWORD PTR $T8[ebp], eax
; File C:\Program Files (x86)\Microsoft Visual Studio\2019\Community\VC\Tools\MSVC\14.28.29333\include\utility

; 68   :     return _Right < _Left ? _Right : _Left;

  0005e	8b 45 f0	 mov	 eax, DWORD PTR $T9[ebp]
  00061	3b 45 ec	 cmp	 eax, DWORD PTR $T8[ebp]
  00064	73 08		 jae	 SHORT $LN22@max_size
  00066	8d 45 f0	 lea	 eax, DWORD PTR $T9[ebp]
  00069	89 45 e8	 mov	 DWORD PTR tv70[ebp], eax
  0006c	eb 06		 jmp	 SHORT $LN23@max_size
$LN22@max_size:
  0006e	8d 45 ec	 lea	 eax, DWORD PTR $T8[ebp]
  00071	89 45 e8	 mov	 DWORD PTR tv70[ebp], eax
$LN23@max_size:
  00074	8b 45 e8	 mov	 eax, DWORD PTR tv70[ebp]
  00077	89 45 cc	 mov	 DWORD PTR $T3[ebp], eax
  0007a	8b 45 cc	 mov	 eax, DWORD PTR $T3[ebp]
  0007d	89 45 c8	 mov	 DWORD PTR $T2[ebp], eax
; File C:\Program Files (x86)\Microsoft Visual Studio\2019\Community\VC\Tools\MSVC\14.28.29333\include\xstring

; 3777 :         return (_STD min)(static_cast<size_type>((numeric_limits<difference_type>::max)()),

  00080	8b 45 c8	 mov	 eax, DWORD PTR $T2[ebp]
  00083	8b 00		 mov	 eax, DWORD PTR [eax]

; 3778 :             _Storage_max - 1 // -1 is for null terminator and/or npos
; 3779 :         );
; 3780 :     }

  00085	c9		 leave
  00086	c3		 ret	 0
?max_size@?$basic_string@DU?$char_traits@D@std@@V?$allocator@D@2@@std@@QBEIXZ ENDP ; std::basic_string<char,std::char_traits<char>,std::allocator<char> >::max_size
_TEXT	ENDS
; Function compile flags: /Odspy
; File C:\Program Files (x86)\Microsoft Visual Studio\2019\Community\VC\Tools\MSVC\14.28.29333\include\xstring
; File C:\Program Files (x86)\Microsoft Visual Studio\2019\Community\VC\Tools\MSVC\14.28.29333\include\xstddef
; File C:\Program Files (x86)\Microsoft Visual Studio\2019\Community\VC\Tools\MSVC\14.28.29333\include\xstring
;	COMDAT ?c_str@?$basic_string@DU?$char_traits@D@std@@V?$allocator@D@2@@std@@QBEPBDXZ
_TEXT	SEGMENT
$T1 = -28						; size = 4
__Ptr$ = -24						; size = 4
_this$ = -20						; size = 4
__Result$2 = -16					; size = 4
tv80 = -12						; size = 4
_this$ = -8						; size = 4
$T3 = -1						; size = 1
?c_str@?$basic_string@DU?$char_traits@D@std@@V?$allocator@D@2@@std@@QBEPBDXZ PROC ; std::basic_string<char,std::char_traits<char>,std::allocator<char> >::c_str, COMDAT
; _this$ = ecx

; 3751 :     _NODISCARD _Ret_z_ const _Elem* c_str() const noexcept {

  00000	55		 push	 ebp
  00001	8b ec		 mov	 ebp, esp
  00003	83 ec 1c	 sub	 esp, 28			; 0000001cH
  00006	89 4d ec	 mov	 DWORD PTR _this$[ebp], ecx

; 3752 :         return _Mypair._Myval2._Myptr();

  00009	8b 45 ec	 mov	 eax, DWORD PTR _this$[ebp]
  0000c	89 45 f8	 mov	 DWORD PTR _this$[ebp], eax

; 2218 :         const value_type* _Result = _Bx._Buf;

  0000f	8b 45 f8	 mov	 eax, DWORD PTR _this$[ebp]
  00012	89 45 f0	 mov	 DWORD PTR __Result$2[ebp], eax

; 2227 :         return _BUF_SIZE <= _Myres;

  00015	8b 45 f8	 mov	 eax, DWORD PTR _this$[ebp]
  00018	83 78 14 10	 cmp	 DWORD PTR [eax+20], 16	; 00000010H
  0001c	72 09		 jb	 SHORT $LN9@c_str
  0001e	c7 45 f4 01 00
	00 00		 mov	 DWORD PTR tv80[ebp], 1
  00025	eb 04		 jmp	 SHORT $LN10@c_str
$LN9@c_str:
  00027	83 65 f4 00	 and	 DWORD PTR tv80[ebp], 0
$LN10@c_str:
  0002b	8a 45 f4	 mov	 al, BYTE PTR tv80[ebp]
  0002e	88 45 ff	 mov	 BYTE PTR $T3[ebp], al

; 2219 :         if (_Large_string_engaged()) {

  00031	0f b6 45 ff	 movzx	 eax, BYTE PTR $T3[ebp]
  00035	85 c0		 test	 eax, eax
  00037	74 0e		 je	 SHORT $LN4@c_str

; 2220 :             _Result = _Unfancy(_Bx._Ptr);

  00039	8b 45 f8	 mov	 eax, DWORD PTR _this$[ebp]
  0003c	8b 00		 mov	 eax, DWORD PTR [eax]
  0003e	89 45 e8	 mov	 DWORD PTR __Ptr$[ebp], eax
; File C:\Program Files (x86)\Microsoft Visual Studio\2019\Community\VC\Tools\MSVC\14.28.29333\include\xstddef

; 289  :     return _Ptr;

  00041	8b 45 e8	 mov	 eax, DWORD PTR __Ptr$[ebp]
  00044	89 45 f0	 mov	 DWORD PTR __Result$2[ebp], eax
$LN4@c_str:
; File C:\Program Files (x86)\Microsoft Visual Studio\2019\Community\VC\Tools\MSVC\14.28.29333\include\xstring

; 2223 :         return _Result;

  00047	8b 45 f0	 mov	 eax, DWORD PTR __Result$2[ebp]
  0004a	89 45 e4	 mov	 DWORD PTR $T1[ebp], eax

; 3752 :         return _Mypair._Myval2._Myptr();

  0004d	8b 45 e4	 mov	 eax, DWORD PTR $T1[ebp]

; 3753 :     }

  00050	c9		 leave
  00051	c3		 ret	 0
?c_str@?$basic_string@DU?$char_traits@D@std@@V?$allocator@D@2@@std@@QBEPBDXZ ENDP ; std::basic_string<char,std::char_traits<char>,std::allocator<char> >::c_str
_TEXT	ENDS
; Function compile flags: /Odspy
; File C:\Program Files (x86)\Microsoft Visual Studio\2019\Community\VC\Tools\MSVC\14.28.29333\include\xstring
;	COMDAT ?assign@?$basic_string@DU?$char_traits@D@std@@V?$allocator@D@2@@std@@QAEAAV12@QBDI@Z
_TEXT	SEGMENT
$T1 = -16						; size = 1
__Old_ptr$2 = -12					; size = 4
_this$ = -8						; size = 4
$T3 = -1						; size = 1
__Ptr$ = 8						; size = 4
__Count$ = 12						; size = 4
?assign@?$basic_string@DU?$char_traits@D@std@@V?$allocator@D@2@@std@@QAEAAV12@QBDI@Z PROC ; std::basic_string<char,std::char_traits<char>,std::allocator<char> >::assign, COMDAT
; _this$ = ecx

; 3042 :     basic_string& assign(_In_reads_(_Count) const _Elem* const _Ptr, _CRT_GUARDOVERFLOW const size_type _Count) {

  00000	55		 push	 ebp
  00001	8b ec		 mov	 ebp, esp
  00003	83 ec 10	 sub	 esp, 16			; 00000010H
  00006	89 4d f8	 mov	 DWORD PTR _this$[ebp], ecx

; 3043 :         // assign [_Ptr, _Ptr + _Count)
; 3044 :         if (_Count <= _Mypair._Myval2._Myres) {

  00009	8b 45 f8	 mov	 eax, DWORD PTR _this$[ebp]
  0000c	8b 4d 0c	 mov	 ecx, DWORD PTR __Count$[ebp]
  0000f	3b 48 14	 cmp	 ecx, DWORD PTR [eax+20]
  00012	77 39		 ja	 SHORT $LN2@assign

; 3045 :             _Elem* const _Old_ptr   = _Mypair._Myval2._Myptr();

  00014	8b 4d f8	 mov	 ecx, DWORD PTR _this$[ebp]
  00017	e8 00 00 00 00	 call	 ?_Myptr@?$_String_val@U?$_Simple_types@D@std@@@std@@QAEPADXZ ; std::_String_val<std::_Simple_types<char> >::_Myptr
  0001c	89 45 f4	 mov	 DWORD PTR __Old_ptr$2[ebp], eax

; 3046 :             _Mypair._Myval2._Mysize = _Count;

  0001f	8b 45 f8	 mov	 eax, DWORD PTR _this$[ebp]
  00022	8b 4d 0c	 mov	 ecx, DWORD PTR __Count$[ebp]
  00025	89 48 10	 mov	 DWORD PTR [eax+16], ecx

; 119  :         _CSTD memmove(_First1, _First2, _Count * sizeof(_Elem));

  00028	ff 75 0c	 push	 DWORD PTR __Count$[ebp]
  0002b	ff 75 08	 push	 DWORD PTR __Ptr$[ebp]
  0002e	ff 75 f4	 push	 DWORD PTR __Old_ptr$2[ebp]
  00031	e8 00 00 00 00	 call	 _memmove
  00036	83 c4 0c	 add	 esp, 12			; 0000000cH

; 3047 :             _Traits::move(_Old_ptr, _Ptr, _Count);
; 3048 :             _Traits::assign(_Old_ptr[_Count], _Elem());

  00039	c6 45 ff 00	 mov	 BYTE PTR $T3[ebp], 0

; 428  :         _Left = _Right;

  0003d	8b 45 f4	 mov	 eax, DWORD PTR __Old_ptr$2[ebp]
  00040	03 45 0c	 add	 eax, DWORD PTR __Count$[ebp]
  00043	8a 4d ff	 mov	 cl, BYTE PTR $T3[ebp]
  00046	88 08		 mov	 BYTE PTR [eax], cl

; 3049 :             return *this;

  00048	8b 45 f8	 mov	 eax, DWORD PTR _this$[ebp]
  0004b	eb 16		 jmp	 SHORT $LN1@assign
$LN2@assign:

; 3050 :         }
; 3051 : 
; 3052 :         return _Reallocate_for(

  0004d	33 c0		 xor	 eax, eax
  0004f	88 45 f0	 mov	 BYTE PTR $T1[ebp], al
  00052	ff 75 08	 push	 DWORD PTR __Ptr$[ebp]
  00055	ff 75 f0	 push	 DWORD PTR $T1[ebp]
  00058	ff 75 0c	 push	 DWORD PTR __Count$[ebp]
  0005b	8b 4d f8	 mov	 ecx, DWORD PTR _this$[ebp]
  0005e	e8 00 00 00 00	 call	 ??$_Reallocate_for@V<lambda_9366063389c5f42a00a5088cf24e69de>@@PBD@?$basic_string@DU?$char_traits@D@std@@V?$allocator@D@2@@std@@AAEAAV01@IV<lambda_9366063389c5f42a00a5088cf24e69de>@@PBD@Z ; std::basic_string<char,std::char_traits<char>,std::allocator<char> >::_Reallocate_for<<lambda_9366063389c5f42a00a5088cf24e69de>,char const *>
$LN1@assign:

; 3053 :             _Count,
; 3054 :             [](_Elem* const _New_ptr, const size_type _Count, const _Elem* const _Ptr) {
; 3055 :                 _Traits::copy(_New_ptr, _Ptr, _Count);
; 3056 :                 _Traits::assign(_New_ptr[_Count], _Elem());
; 3057 :             },
; 3058 :             _Ptr);
; 3059 :     }

  00063	c9		 leave
  00064	c2 08 00	 ret	 8
?assign@?$basic_string@DU?$char_traits@D@std@@V?$allocator@D@2@@std@@QAEAAV12@QBDI@Z ENDP ; std::basic_string<char,std::char_traits<char>,std::allocator<char> >::assign
_TEXT	ENDS
; Function compile flags: /Odspy
; File C:\Program Files (x86)\Microsoft Visual Studio\2019\Community\VC\Tools\MSVC\14.28.29333\include\xstring
; File C:\Program Files (x86)\Microsoft Visual Studio\2019\Community\VC\Tools\MSVC\14.28.29333\include\xmemory
; File C:\Program Files (x86)\Microsoft Visual Studio\2019\Community\VC\Tools\MSVC\14.28.29333\include\xstring
; File C:\Program Files (x86)\Microsoft Visual Studio\2019\Community\VC\Tools\MSVC\14.28.29333\include\xmemory
; File C:\Program Files (x86)\Microsoft Visual Studio\2019\Community\VC\Tools\MSVC\14.28.29333\include\xstring
; File C:\Program Files (x86)\Microsoft Visual Studio\2019\Community\VC\Tools\MSVC\14.28.29333\include\xstddef
; File C:\Program Files (x86)\Microsoft Visual Studio\2019\Community\VC\Tools\MSVC\14.28.29333\include\xstring
;	COMDAT ?_Copy_assign@?$basic_string@DU?$char_traits@D@std@@V?$allocator@D@2@@std@@AAEXABV12@U?$integral_constant@_N$0A@@2@@Z
_TEXT	SEGMENT
$T1 = -44						; size = 4
__Ptr$ = -40						; size = 4
$T2 = -36						; size = 4
$T3 = -32						; size = 4
$T4 = -28						; size = 4
$T5 = -24						; size = 4
_this$ = -20						; size = 4
__Result$6 = -16					; size = 4
tv134 = -12						; size = 4
_this$ = -8						; size = 4
$T7 = -1						; size = 1
__Right$ = 8						; size = 4
___formal$ = 12						; size = 1
?_Copy_assign@?$basic_string@DU?$char_traits@D@std@@V?$allocator@D@2@@std@@AAEXABV12@U?$integral_constant@_N$0A@@2@@Z PROC ; std::basic_string<char,std::char_traits<char>,std::allocator<char> >::_Copy_assign, COMDAT
; _this$ = ecx

; 2826 :     void _Copy_assign(const basic_string& _Right, false_type) {

  00000	55		 push	 ebp
  00001	8b ec		 mov	 ebp, esp
  00003	83 ec 2c	 sub	 esp, 44			; 0000002cH
  00006	89 4d ec	 mov	 DWORD PTR _this$[ebp], ecx

; 4413 :         return _Mypair._Get_first();

  00009	8b 45 08	 mov	 eax, DWORD PTR __Right$[ebp]
; File C:\Program Files (x86)\Microsoft Visual Studio\2019\Community\VC\Tools\MSVC\14.28.29333\include\xmemory

; 1351 :         return *this;

  0000c	89 45 e8	 mov	 DWORD PTR $T5[ebp], eax
; File C:\Program Files (x86)\Microsoft Visual Studio\2019\Community\VC\Tools\MSVC\14.28.29333\include\xstring

; 4413 :         return _Mypair._Get_first();

  0000f	8b 45 e8	 mov	 eax, DWORD PTR $T5[ebp]
  00012	89 45 e0	 mov	 DWORD PTR $T3[ebp], eax

; 4409 :         return _Mypair._Get_first();

  00015	8b 45 ec	 mov	 eax, DWORD PTR _this$[ebp]
; File C:\Program Files (x86)\Microsoft Visual Studio\2019\Community\VC\Tools\MSVC\14.28.29333\include\xmemory

; 1347 :         return *this;

  00018	89 45 e4	 mov	 DWORD PTR $T4[ebp], eax
; File C:\Program Files (x86)\Microsoft Visual Studio\2019\Community\VC\Tools\MSVC\14.28.29333\include\xstring

; 4409 :         return _Mypair._Get_first();

  0001b	8b 45 e4	 mov	 eax, DWORD PTR $T4[ebp]
  0001e	89 45 dc	 mov	 DWORD PTR $T2[ebp], eax

; 2827 :         _Pocca(_Getal(), _Right._Getal());

  00021	ff 75 e0	 push	 DWORD PTR $T3[ebp]
  00024	ff 75 dc	 push	 DWORD PTR $T2[ebp]
  00027	e8 00 00 00 00	 call	 ??$_Pocca@V?$allocator@D@std@@@std@@YAXAAV?$allocator@D@0@ABV10@@Z ; std::_Pocca<std::allocator<char> >
  0002c	59		 pop	 ecx
  0002d	59		 pop	 ecx

; 2828 :         assign(_Right._Mypair._Myval2._Myptr(), _Right._Mypair._Myval2._Mysize);

  0002e	8b 45 08	 mov	 eax, DWORD PTR __Right$[ebp]
  00031	89 45 f8	 mov	 DWORD PTR _this$[ebp], eax

; 2218 :         const value_type* _Result = _Bx._Buf;

  00034	8b 45 f8	 mov	 eax, DWORD PTR _this$[ebp]
  00037	89 45 f0	 mov	 DWORD PTR __Result$6[ebp], eax

; 2227 :         return _BUF_SIZE <= _Myres;

  0003a	8b 45 f8	 mov	 eax, DWORD PTR _this$[ebp]
  0003d	83 78 14 10	 cmp	 DWORD PTR [eax+20], 16	; 00000010H
  00041	72 09		 jb	 SHORT $LN21@Copy_assig
  00043	c7 45 f4 01 00
	00 00		 mov	 DWORD PTR tv134[ebp], 1
  0004a	eb 04		 jmp	 SHORT $LN22@Copy_assig
$LN21@Copy_assig:
  0004c	83 65 f4 00	 and	 DWORD PTR tv134[ebp], 0
$LN22@Copy_assig:
  00050	8a 45 f4	 mov	 al, BYTE PTR tv134[ebp]
  00053	88 45 ff	 mov	 BYTE PTR $T7[ebp], al

; 2219 :         if (_Large_string_engaged()) {

  00056	0f b6 45 ff	 movzx	 eax, BYTE PTR $T7[ebp]
  0005a	85 c0		 test	 eax, eax
  0005c	74 0e		 je	 SHORT $LN16@Copy_assig

; 2220 :             _Result = _Unfancy(_Bx._Ptr);

  0005e	8b 45 f8	 mov	 eax, DWORD PTR _this$[ebp]
  00061	8b 00		 mov	 eax, DWORD PTR [eax]
  00063	89 45 d8	 mov	 DWORD PTR __Ptr$[ebp], eax
; File C:\Program Files (x86)\Microsoft Visual Studio\2019\Community\VC\Tools\MSVC\14.28.29333\include\xstddef

; 289  :     return _Ptr;

  00066	8b 45 d8	 mov	 eax, DWORD PTR __Ptr$[ebp]
  00069	89 45 f0	 mov	 DWORD PTR __Result$6[ebp], eax
$LN16@Copy_assig:
; File C:\Program Files (x86)\Microsoft Visual Studio\2019\Community\VC\Tools\MSVC\14.28.29333\include\xstring

; 2223 :         return _Result;

  0006c	8b 45 f0	 mov	 eax, DWORD PTR __Result$6[ebp]
  0006f	89 45 d4	 mov	 DWORD PTR $T1[ebp], eax

; 2828 :         assign(_Right._Mypair._Myval2._Myptr(), _Right._Mypair._Myval2._Mysize);

  00072	8b 45 08	 mov	 eax, DWORD PTR __Right$[ebp]
  00075	ff 70 10	 push	 DWORD PTR [eax+16]
  00078	ff 75 d4	 push	 DWORD PTR $T1[ebp]
  0007b	8b 4d ec	 mov	 ecx, DWORD PTR _this$[ebp]
  0007e	e8 00 00 00 00	 call	 ?assign@?$basic_string@DU?$char_traits@D@std@@V?$allocator@D@2@@std@@QAEAAV12@QBDI@Z ; std::basic_string<char,std::char_traits<char>,std::allocator<char> >::assign

; 2829 :     }

  00083	c9		 leave
  00084	c2 08 00	 ret	 8
?_Copy_assign@?$basic_string@DU?$char_traits@D@std@@V?$allocator@D@2@@std@@AAEXABV12@U?$integral_constant@_N$0A@@2@@Z ENDP ; std::basic_string<char,std::char_traits<char>,std::allocator<char> >::_Copy_assign
_TEXT	ENDS
; Function compile flags: /Odspy
; File C:\Program Files (x86)\Microsoft Visual Studio\2019\Community\VC\Tools\MSVC\14.28.29333\include\xstring
;	COMDAT ??1?$basic_string@DU?$char_traits@D@std@@V?$allocator@D@2@@std@@QAE@XZ
_TEXT	SEGMENT
_this$ = -4						; size = 4
??1?$basic_string@DU?$char_traits@D@std@@V?$allocator@D@2@@std@@QAE@XZ PROC ; std::basic_string<char,std::char_traits<char>,std::allocator<char> >::~basic_string<char,std::char_traits<char>,std::allocator<char> >, COMDAT
; _this$ = ecx

; 2800 :     ~basic_string() noexcept {

  00000	55		 push	 ebp
  00001	8b ec		 mov	 ebp, esp
  00003	51		 push	 ecx
  00004	89 4d fc	 mov	 DWORD PTR _this$[ebp], ecx

; 2801 :         _Tidy_deallocate();

  00007	8b 4d fc	 mov	 ecx, DWORD PTR _this$[ebp]
  0000a	e8 00 00 00 00	 call	 ?_Tidy_deallocate@?$basic_string@DU?$char_traits@D@std@@V?$allocator@D@2@@std@@AAEXXZ ; std::basic_string<char,std::char_traits<char>,std::allocator<char> >::_Tidy_deallocate

; 2802 : #if _ITERATOR_DEBUG_LEVEL != 0
; 2803 :         auto&& _Alproxy          = _GET_PROXY_ALLOCATOR(_Alty, _Getal());
; 2804 :         const auto _To_delete    = _Mypair._Myval2._Myproxy;
; 2805 :         _Mypair._Myval2._Myproxy = nullptr;
; 2806 :         _Delete_plain_internal(_Alproxy, _To_delete);
; 2807 : #endif // _ITERATOR_DEBUG_LEVEL != 0
; 2808 :     }

  0000f	c9		 leave
  00010	c3		 ret	 0
??1?$basic_string@DU?$char_traits@D@std@@V?$allocator@D@2@@std@@QAE@XZ ENDP ; std::basic_string<char,std::char_traits<char>,std::allocator<char> >::~basic_string<char,std::char_traits<char>,std::allocator<char> >
_TEXT	ENDS
; Function compile flags: /Odspy
; File C:\Program Files (x86)\Microsoft Visual Studio\2019\Community\VC\Tools\MSVC\14.28.29333\include\xstring
; File C:\Program Files (x86)\Microsoft Visual Studio\2019\Community\VC\Tools\MSVC\14.28.29333\include\xstddef
; File C:\Program Files (x86)\Microsoft Visual Studio\2019\Community\VC\Tools\MSVC\14.28.29333\include\xstring
;	COMDAT ?_Myptr@?$_String_val@U?$_Simple_types@D@std@@@std@@QBEPBDXZ
_TEXT	SEGMENT
__Ptr$ = -20						; size = 4
__Result$ = -16						; size = 4
tv76 = -12						; size = 4
_this$ = -8						; size = 4
$T1 = -1						; size = 1
?_Myptr@?$_String_val@U?$_Simple_types@D@std@@@std@@QBEPBDXZ PROC ; std::_String_val<std::_Simple_types<char> >::_Myptr, COMDAT
; _this$ = ecx

; 2217 :     const value_type* _Myptr() const noexcept {

  00000	55		 push	 ebp
  00001	8b ec		 mov	 ebp, esp
  00003	83 ec 14	 sub	 esp, 20			; 00000014H
  00006	89 4d f8	 mov	 DWORD PTR _this$[ebp], ecx

; 2218 :         const value_type* _Result = _Bx._Buf;

  00009	8b 45 f8	 mov	 eax, DWORD PTR _this$[ebp]
  0000c	89 45 f0	 mov	 DWORD PTR __Result$[ebp], eax

; 2227 :         return _BUF_SIZE <= _Myres;

  0000f	8b 45 f8	 mov	 eax, DWORD PTR _this$[ebp]
  00012	83 78 14 10	 cmp	 DWORD PTR [eax+20], 16	; 00000010H
  00016	72 09		 jb	 SHORT $LN6@Myptr
  00018	c7 45 f4 01 00
	00 00		 mov	 DWORD PTR tv76[ebp], 1
  0001f	eb 04		 jmp	 SHORT $LN7@Myptr
$LN6@Myptr:
  00021	83 65 f4 00	 and	 DWORD PTR tv76[ebp], 0
$LN7@Myptr:
  00025	8a 45 f4	 mov	 al, BYTE PTR tv76[ebp]
  00028	88 45 ff	 mov	 BYTE PTR $T1[ebp], al

; 2219 :         if (_Large_string_engaged()) {

  0002b	0f b6 45 ff	 movzx	 eax, BYTE PTR $T1[ebp]
  0002f	85 c0		 test	 eax, eax
  00031	74 0e		 je	 SHORT $LN2@Myptr

; 2220 :             _Result = _Unfancy(_Bx._Ptr);

  00033	8b 45 f8	 mov	 eax, DWORD PTR _this$[ebp]
  00036	8b 00		 mov	 eax, DWORD PTR [eax]
  00038	89 45 ec	 mov	 DWORD PTR __Ptr$[ebp], eax
; File C:\Program Files (x86)\Microsoft Visual Studio\2019\Community\VC\Tools\MSVC\14.28.29333\include\xstddef

; 289  :     return _Ptr;

  0003b	8b 45 ec	 mov	 eax, DWORD PTR __Ptr$[ebp]
  0003e	89 45 f0	 mov	 DWORD PTR __Result$[ebp], eax
$LN2@Myptr:
; File C:\Program Files (x86)\Microsoft Visual Studio\2019\Community\VC\Tools\MSVC\14.28.29333\include\xstring

; 2223 :         return _Result;

  00041	8b 45 f0	 mov	 eax, DWORD PTR __Result$[ebp]

; 2224 :     }

  00044	c9		 leave
  00045	c3		 ret	 0
?_Myptr@?$_String_val@U?$_Simple_types@D@std@@@std@@QBEPBDXZ ENDP ; std::_String_val<std::_Simple_types<char> >::_Myptr
_TEXT	ENDS
; Function compile flags: /Odspy
; File C:\Program Files (x86)\Microsoft Visual Studio\2019\Community\VC\Tools\MSVC\14.28.29333\include\xstring
; File C:\Program Files (x86)\Microsoft Visual Studio\2019\Community\VC\Tools\MSVC\14.28.29333\include\xstddef
; File C:\Program Files (x86)\Microsoft Visual Studio\2019\Community\VC\Tools\MSVC\14.28.29333\include\xstring
;	COMDAT ?_Myptr@?$_String_val@U?$_Simple_types@D@std@@@std@@QAEPADXZ
_TEXT	SEGMENT
__Ptr$ = -20						; size = 4
__Result$ = -16						; size = 4
tv76 = -12						; size = 4
_this$ = -8						; size = 4
$T1 = -1						; size = 1
?_Myptr@?$_String_val@U?$_Simple_types@D@std@@@std@@QAEPADXZ PROC ; std::_String_val<std::_Simple_types<char> >::_Myptr, COMDAT
; _this$ = ecx

; 2208 :     value_type* _Myptr() noexcept {

  00000	55		 push	 ebp
  00001	8b ec		 mov	 ebp, esp
  00003	83 ec 14	 sub	 esp, 20			; 00000014H
  00006	89 4d f8	 mov	 DWORD PTR _this$[ebp], ecx

; 2209 :         value_type* _Result = _Bx._Buf;

  00009	8b 45 f8	 mov	 eax, DWORD PTR _this$[ebp]
  0000c	89 45 f0	 mov	 DWORD PTR __Result$[ebp], eax

; 2227 :         return _BUF_SIZE <= _Myres;

  0000f	8b 45 f8	 mov	 eax, DWORD PTR _this$[ebp]
  00012	83 78 14 10	 cmp	 DWORD PTR [eax+20], 16	; 00000010H
  00016	72 09		 jb	 SHORT $LN6@Myptr
  00018	c7 45 f4 01 00
	00 00		 mov	 DWORD PTR tv76[ebp], 1
  0001f	eb 04		 jmp	 SHORT $LN7@Myptr
$LN6@Myptr:
  00021	83 65 f4 00	 and	 DWORD PTR tv76[ebp], 0
$LN7@Myptr:
  00025	8a 45 f4	 mov	 al, BYTE PTR tv76[ebp]
  00028	88 45 ff	 mov	 BYTE PTR $T1[ebp], al

; 2210 :         if (_Large_string_engaged()) {

  0002b	0f b6 45 ff	 movzx	 eax, BYTE PTR $T1[ebp]
  0002f	85 c0		 test	 eax, eax
  00031	74 0e		 je	 SHORT $LN2@Myptr

; 2211 :             _Result = _Unfancy(_Bx._Ptr);

  00033	8b 45 f8	 mov	 eax, DWORD PTR _this$[ebp]
  00036	8b 00		 mov	 eax, DWORD PTR [eax]
  00038	89 45 ec	 mov	 DWORD PTR __Ptr$[ebp], eax
; File C:\Program Files (x86)\Microsoft Visual Studio\2019\Community\VC\Tools\MSVC\14.28.29333\include\xstddef

; 289  :     return _Ptr;

  0003b	8b 45 ec	 mov	 eax, DWORD PTR __Ptr$[ebp]
  0003e	89 45 f0	 mov	 DWORD PTR __Result$[ebp], eax
$LN2@Myptr:
; File C:\Program Files (x86)\Microsoft Visual Studio\2019\Community\VC\Tools\MSVC\14.28.29333\include\xstring

; 2214 :         return _Result;

  00041	8b 45 f0	 mov	 eax, DWORD PTR __Result$[ebp]

; 2215 :     }

  00044	c9		 leave
  00045	c3		 ret	 0
?_Myptr@?$_String_val@U?$_Simple_types@D@std@@@std@@QAEPADXZ ENDP ; std::_String_val<std::_Simple_types<char> >::_Myptr
_TEXT	ENDS
; Function compile flags: /Odspy
; File C:\Program Files (x86)\Microsoft Visual Studio\2019\Community\VC\Tools\MSVC\14.28.29333\include\xstring
;	COMDAT ??0?$_String_val@U?$_Simple_types@D@std@@@std@@QAE@XZ
_TEXT	SEGMENT
_this$ = -4						; size = 4
??0?$_String_val@U?$_Simple_types@D@std@@@std@@QAE@XZ PROC ; std::_String_val<std::_Simple_types<char> >::_String_val<std::_Simple_types<char> >, COMDAT
; _this$ = ecx

; 2198 :     _String_val() noexcept : _Bx(), _Mysize(0), _Myres(0) {}

  00000	55		 push	 ebp
  00001	8b ec		 mov	 ebp, esp
  00003	51		 push	 ecx
  00004	89 4d fc	 mov	 DWORD PTR _this$[ebp], ecx
  00007	8b 45 fc	 mov	 eax, DWORD PTR _this$[ebp]
  0000a	83 60 10 00	 and	 DWORD PTR [eax+16], 0
  0000e	8b 45 fc	 mov	 eax, DWORD PTR _this$[ebp]
  00011	83 60 14 00	 and	 DWORD PTR [eax+20], 0
  00015	8b 45 fc	 mov	 eax, DWORD PTR _this$[ebp]
  00018	c9		 leave
  00019	c3		 ret	 0
??0?$_String_val@U?$_Simple_types@D@std@@@std@@QAE@XZ ENDP ; std::_String_val<std::_Simple_types<char> >::_String_val<std::_Simple_types<char> >
_TEXT	ENDS
; Function compile flags: /Odspy
; File C:\Program Files (x86)\Microsoft Visual Studio\2019\Community\VC\Tools\MSVC\14.28.29333\include\xstring
;	COMDAT ?_Xlen_string@std@@YAXXZ
_TEXT	SEGMENT
?_Xlen_string@std@@YAXXZ PROC				; std::_Xlen_string, COMDAT

; 2274 : [[noreturn]] inline void _Xlen_string() {

  00000	55		 push	 ebp
  00001	8b ec		 mov	 ebp, esp

; 2275 :     _Xlength_error("string too long");

  00003	68 00 00 00 00	 push	 OFFSET ??_C@_0BA@JFNIOLAK@string?5too?5long@
  00008	e8 00 00 00 00	 call	 ?_Xlength_error@std@@YAXPBD@Z ; std::_Xlength_error
$LN2@Xlen_strin:

; 2276 : }

  0000d	5d		 pop	 ebp
  0000e	c3		 ret	 0
?_Xlen_string@std@@YAXXZ ENDP				; std::_Xlen_string
_TEXT	ENDS
; Function compile flags: /Odspy
; File C:\Program Files (x86)\Microsoft Visual Studio\2019\Community\VC\Tools\MSVC\14.28.29333\include\xmemory
;	COMDAT ?_Adjust_manually_vector_aligned@std@@YAXAAPAXAAI@Z
_TEXT	SEGMENT
__Min_back_shift$ = -16					; size = 4
__Ptr_user$ = -12					; size = 4
__Ptr_container$ = -8					; size = 4
__Back_shift$ = -4					; size = 4
__Ptr$ = 8						; size = 4
__Bytes$ = 12						; size = 4
?_Adjust_manually_vector_aligned@std@@YAXAAPAXAAI@Z PROC ; std::_Adjust_manually_vector_aligned, COMDAT

; 132  : inline void _Adjust_manually_vector_aligned(void*& _Ptr, size_t& _Bytes) {

  00000	55		 push	 ebp
  00001	8b ec		 mov	 ebp, esp
  00003	83 ec 10	 sub	 esp, 16			; 00000010H

; 133  :     // adjust parameters from _Allocate_manually_vector_aligned to pass to operator delete
; 134  :     _Bytes += _Non_user_size;

  00006	8b 45 0c	 mov	 eax, DWORD PTR __Bytes$[ebp]
  00009	8b 00		 mov	 eax, DWORD PTR [eax]
  0000b	83 c0 23	 add	 eax, 35			; 00000023H
  0000e	8b 4d 0c	 mov	 ecx, DWORD PTR __Bytes$[ebp]
  00011	89 01		 mov	 DWORD PTR [ecx], eax

; 135  : 
; 136  :     const uintptr_t* const _Ptr_user = reinterpret_cast<uintptr_t*>(_Ptr);

  00013	8b 45 08	 mov	 eax, DWORD PTR __Ptr$[ebp]
  00016	8b 00		 mov	 eax, DWORD PTR [eax]
  00018	89 45 f4	 mov	 DWORD PTR __Ptr_user$[ebp], eax

; 137  :     const uintptr_t _Ptr_container   = _Ptr_user[-1];

  0001b	6a 04		 push	 4
  0001d	58		 pop	 eax
  0001e	6b c0 ff	 imul	 eax, eax, -1
  00021	8b 4d f4	 mov	 ecx, DWORD PTR __Ptr_user$[ebp]
  00024	8b 04 01	 mov	 eax, DWORD PTR [ecx+eax]
  00027	89 45 f8	 mov	 DWORD PTR __Ptr_container$[ebp], eax

; 138  : 
; 139  :     // If the following asserts, it likely means that we are performing
; 140  :     // an aligned delete on memory coming from an unaligned allocation.
; 141  :     _STL_ASSERT(_Ptr_user[-2] == _Big_allocation_sentinel, "invalid argument");
; 142  : 
; 143  :     // Extra paranoia on aligned allocation/deallocation; ensure _Ptr_container is
; 144  :     // in range [_Min_back_shift, _Non_user_size]
; 145  : #ifdef _DEBUG
; 146  :     constexpr uintptr_t _Min_back_shift = 2 * sizeof(void*);
; 147  : #else // ^^^ _DEBUG ^^^ // vvv !_DEBUG vvv
; 148  :     constexpr uintptr_t _Min_back_shift = sizeof(void*);

  0002a	c7 45 f0 04 00
	00 00		 mov	 DWORD PTR __Min_back_shift$[ebp], 4

; 149  : #endif // _DEBUG
; 150  :     const uintptr_t _Back_shift = reinterpret_cast<uintptr_t>(_Ptr) - _Ptr_container;

  00031	8b 45 08	 mov	 eax, DWORD PTR __Ptr$[ebp]
  00034	8b 00		 mov	 eax, DWORD PTR [eax]
  00036	2b 45 f8	 sub	 eax, DWORD PTR __Ptr_container$[ebp]
  00039	89 45 fc	 mov	 DWORD PTR __Back_shift$[ebp], eax
$LN4@Adjust_man:

; 151  :     _STL_VERIFY(_Back_shift >= _Min_back_shift && _Back_shift <= _Non_user_size, "invalid argument");

  0003c	83 7d fc 04	 cmp	 DWORD PTR __Back_shift$[ebp], 4
  00040	72 08		 jb	 SHORT $LN7@Adjust_man
  00042	83 7d fc 23	 cmp	 DWORD PTR __Back_shift$[ebp], 35 ; 00000023H
  00046	77 02		 ja	 SHORT $LN7@Adjust_man
  00048	eb 09		 jmp	 SHORT $LN2@Adjust_man
$LN7@Adjust_man:
  0004a	e8 00 00 00 00	 call	 __invalid_parameter_noinfo_noreturn
  0004f	33 c0		 xor	 eax, eax
  00051	75 f7		 jne	 SHORT $LN7@Adjust_man
$LN2@Adjust_man:
  00053	33 c0		 xor	 eax, eax
  00055	75 e5		 jne	 SHORT $LN4@Adjust_man

; 152  :     _Ptr = reinterpret_cast<void*>(_Ptr_container);

  00057	8b 45 08	 mov	 eax, DWORD PTR __Ptr$[ebp]
  0005a	8b 4d f8	 mov	 ecx, DWORD PTR __Ptr_container$[ebp]
  0005d	89 08		 mov	 DWORD PTR [eax], ecx
$LN10@Adjust_man:

; 153  : }

  0005f	c9		 leave
  00060	c3		 ret	 0
?_Adjust_manually_vector_aligned@std@@YAXAAPAXAAI@Z ENDP ; std::_Adjust_manually_vector_aligned
_TEXT	ENDS
; Function compile flags: /Odspy
; File C:\Program Files (x86)\Microsoft Visual Studio\2019\Community\VC\Tools\MSVC\14.28.29333\include\exception
;	COMDAT ?_Throw_bad_array_new_length@std@@YAXXZ
_TEXT	SEGMENT
$T1 = -12						; size = 12
?_Throw_bad_array_new_length@std@@YAXXZ PROC		; std::_Throw_bad_array_new_length, COMDAT

; 320  : [[noreturn]] inline void _Throw_bad_array_new_length() {

  00000	55		 push	 ebp
  00001	8b ec		 mov	 ebp, esp
  00003	83 ec 0c	 sub	 esp, 12			; 0000000cH

; 321  :     _THROW(bad_array_new_length{});

  00006	8d 4d f4	 lea	 ecx, DWORD PTR $T1[ebp]
  00009	e8 00 00 00 00	 call	 ??0bad_array_new_length@std@@QAE@XZ ; std::bad_array_new_length::bad_array_new_length
  0000e	68 00 00 00 00	 push	 OFFSET __TI3?AVbad_array_new_length@std@@
  00013	8d 45 f4	 lea	 eax, DWORD PTR $T1[ebp]
  00016	50		 push	 eax
  00017	e8 00 00 00 00	 call	 __CxxThrowException@8
$LN2@Throw_bad_:

; 322  : }

  0001c	c9		 leave
  0001d	c3		 ret	 0
?_Throw_bad_array_new_length@std@@YAXXZ ENDP		; std::_Throw_bad_array_new_length
_TEXT	ENDS
; Function compile flags: /Odspy
; File C:\Program Files (x86)\Microsoft Visual Studio\2019\Community\VC\Tools\MSVC\14.28.29333\include\vcruntime_exception.h
;	COMDAT ??_Gbad_array_new_length@std@@UAEPAXI@Z
_TEXT	SEGMENT
_this$ = -4						; size = 4
___flags$ = 8						; size = 4
??_Gbad_array_new_length@std@@UAEPAXI@Z PROC		; std::bad_array_new_length::`scalar deleting destructor', COMDAT
; _this$ = ecx
  00000	55		 push	 ebp
  00001	8b ec		 mov	 ebp, esp
  00003	51		 push	 ecx
  00004	89 4d fc	 mov	 DWORD PTR _this$[ebp], ecx

; 89   :     {

  00007	8b 45 fc	 mov	 eax, DWORD PTR _this$[ebp]
  0000a	c7 00 00 00 00
	00		 mov	 DWORD PTR [eax], OFFSET ??_7exception@std@@6B@

; 90   :         __std_exception_destroy(&_Data);

  00010	8b 45 fc	 mov	 eax, DWORD PTR _this$[ebp]
  00013	83 c0 04	 add	 eax, 4
  00016	50		 push	 eax
  00017	e8 00 00 00 00	 call	 ___std_exception_destroy
  0001c	59		 pop	 ecx
  0001d	8b 45 08	 mov	 eax, DWORD PTR ___flags$[ebp]
  00020	83 e0 01	 and	 eax, 1
  00023	74 0c		 je	 SHORT $LN2@scalar
  00025	6a 0c		 push	 12			; 0000000cH
  00027	ff 75 fc	 push	 DWORD PTR _this$[ebp]
  0002a	e8 00 00 00 00	 call	 ??3@YAXPAXI@Z		; operator delete
  0002f	59		 pop	 ecx
  00030	59		 pop	 ecx
$LN2@scalar:
  00031	8b 45 fc	 mov	 eax, DWORD PTR _this$[ebp]
  00034	c9		 leave
  00035	c2 04 00	 ret	 4
??_Gbad_array_new_length@std@@UAEPAXI@Z ENDP		; std::bad_array_new_length::`scalar deleting destructor'
_TEXT	ENDS
; Function compile flags: /Odspy
;	COMDAT ??0bad_array_new_length@std@@QAE@ABV01@@Z
_TEXT	SEGMENT
_this$ = -4						; size = 4
___that$ = 8						; size = 4
??0bad_array_new_length@std@@QAE@ABV01@@Z PROC		; std::bad_array_new_length::bad_array_new_length, COMDAT
; _this$ = ecx
  00000	55		 push	 ebp
  00001	8b ec		 mov	 ebp, esp
  00003	51		 push	 ecx
  00004	89 4d fc	 mov	 DWORD PTR _this$[ebp], ecx
  00007	ff 75 08	 push	 DWORD PTR ___that$[ebp]
  0000a	8b 4d fc	 mov	 ecx, DWORD PTR _this$[ebp]
  0000d	e8 00 00 00 00	 call	 ??0exception@std@@QAE@ABV01@@Z ; std::exception::exception
  00012	8b 45 fc	 mov	 eax, DWORD PTR _this$[ebp]
  00015	c7 00 00 00 00
	00		 mov	 DWORD PTR [eax], OFFSET ??_7bad_alloc@std@@6B@
  0001b	8b 45 fc	 mov	 eax, DWORD PTR _this$[ebp]
  0001e	c7 00 00 00 00
	00		 mov	 DWORD PTR [eax], OFFSET ??_7bad_array_new_length@std@@6B@
  00024	8b 45 fc	 mov	 eax, DWORD PTR _this$[ebp]
  00027	c9		 leave
  00028	c2 04 00	 ret	 4
??0bad_array_new_length@std@@QAE@ABV01@@Z ENDP		; std::bad_array_new_length::bad_array_new_length
_TEXT	ENDS
; Function compile flags: /Odspy
; File C:\Program Files (x86)\Microsoft Visual Studio\2019\Community\VC\Tools\MSVC\14.28.29333\include\vcruntime_exception.h
;	COMDAT ??1bad_array_new_length@std@@UAE@XZ
_TEXT	SEGMENT
_this$ = -4						; size = 4
??1bad_array_new_length@std@@UAE@XZ PROC		; std::bad_array_new_length::~bad_array_new_length, COMDAT
; _this$ = ecx
  00000	55		 push	 ebp
  00001	8b ec		 mov	 ebp, esp
  00003	51		 push	 ecx
  00004	89 4d fc	 mov	 DWORD PTR _this$[ebp], ecx

; 89   :     {

  00007	8b 45 fc	 mov	 eax, DWORD PTR _this$[ebp]
  0000a	c7 00 00 00 00
	00		 mov	 DWORD PTR [eax], OFFSET ??_7exception@std@@6B@

; 90   :         __std_exception_destroy(&_Data);

  00010	8b 45 fc	 mov	 eax, DWORD PTR _this$[ebp]
  00013	83 c0 04	 add	 eax, 4
  00016	50		 push	 eax
  00017	e8 00 00 00 00	 call	 ___std_exception_destroy
  0001c	59		 pop	 ecx
  0001d	c9		 leave
  0001e	c3		 ret	 0
??1bad_array_new_length@std@@UAE@XZ ENDP		; std::bad_array_new_length::~bad_array_new_length
_TEXT	ENDS
; Function compile flags: /Odspy
; File C:\Program Files (x86)\Microsoft Visual Studio\2019\Community\VC\Tools\MSVC\14.28.29333\include\vcruntime_exception.h
;	COMDAT ??0bad_array_new_length@std@@QAE@XZ
_TEXT	SEGMENT
_this$ = -4						; size = 4
??0bad_array_new_length@std@@QAE@XZ PROC		; std::bad_array_new_length::bad_array_new_length, COMDAT
; _this$ = ecx

; 141  :     {

  00000	55		 push	 ebp
  00001	8b ec		 mov	 ebp, esp
  00003	51		 push	 ecx
  00004	89 4d fc	 mov	 DWORD PTR _this$[ebp], ecx

; 66   :     {

  00007	8b 45 fc	 mov	 eax, DWORD PTR _this$[ebp]
  0000a	c7 00 00 00 00
	00		 mov	 DWORD PTR [eax], OFFSET ??_7exception@std@@6B@

; 65   :         : _Data()

  00010	33 c0		 xor	 eax, eax
  00012	8b 4d fc	 mov	 ecx, DWORD PTR _this$[ebp]
  00015	83 c1 04	 add	 ecx, 4
  00018	89 01		 mov	 DWORD PTR [ecx], eax
  0001a	89 41 04	 mov	 DWORD PTR [ecx+4], eax

; 67   :         _Data._What = _Message;

  0001d	8b 45 fc	 mov	 eax, DWORD PTR _this$[ebp]
  00020	c7 40 04 00 00
	00 00		 mov	 DWORD PTR [eax+4], OFFSET ??_C@_0BF@KINCDENJ@bad?5array?5new?5length@

; 130  :     {

  00027	8b 45 fc	 mov	 eax, DWORD PTR _this$[ebp]
  0002a	c7 00 00 00 00
	00		 mov	 DWORD PTR [eax], OFFSET ??_7bad_alloc@std@@6B@

; 141  :     {

  00030	8b 45 fc	 mov	 eax, DWORD PTR _this$[ebp]
  00033	c7 00 00 00 00
	00		 mov	 DWORD PTR [eax], OFFSET ??_7bad_array_new_length@std@@6B@

; 142  :     }

  00039	8b 45 fc	 mov	 eax, DWORD PTR _this$[ebp]
  0003c	c9		 leave
  0003d	c3		 ret	 0
??0bad_array_new_length@std@@QAE@XZ ENDP		; std::bad_array_new_length::bad_array_new_length
_TEXT	ENDS
; Function compile flags: /Odspy
; File C:\Program Files (x86)\Microsoft Visual Studio\2019\Community\VC\Tools\MSVC\14.28.29333\include\vcruntime_exception.h
;	COMDAT ??_Gbad_alloc@std@@UAEPAXI@Z
_TEXT	SEGMENT
_this$ = -4						; size = 4
___flags$ = 8						; size = 4
??_Gbad_alloc@std@@UAEPAXI@Z PROC			; std::bad_alloc::`scalar deleting destructor', COMDAT
; _this$ = ecx
  00000	55		 push	 ebp
  00001	8b ec		 mov	 ebp, esp
  00003	51		 push	 ecx
  00004	89 4d fc	 mov	 DWORD PTR _this$[ebp], ecx

; 89   :     {

  00007	8b 45 fc	 mov	 eax, DWORD PTR _this$[ebp]
  0000a	c7 00 00 00 00
	00		 mov	 DWORD PTR [eax], OFFSET ??_7exception@std@@6B@

; 90   :         __std_exception_destroy(&_Data);

  00010	8b 45 fc	 mov	 eax, DWORD PTR _this$[ebp]
  00013	83 c0 04	 add	 eax, 4
  00016	50		 push	 eax
  00017	e8 00 00 00 00	 call	 ___std_exception_destroy
  0001c	59		 pop	 ecx
  0001d	8b 45 08	 mov	 eax, DWORD PTR ___flags$[ebp]
  00020	83 e0 01	 and	 eax, 1
  00023	74 0c		 je	 SHORT $LN2@scalar
  00025	6a 0c		 push	 12			; 0000000cH
  00027	ff 75 fc	 push	 DWORD PTR _this$[ebp]
  0002a	e8 00 00 00 00	 call	 ??3@YAXPAXI@Z		; operator delete
  0002f	59		 pop	 ecx
  00030	59		 pop	 ecx
$LN2@scalar:
  00031	8b 45 fc	 mov	 eax, DWORD PTR _this$[ebp]
  00034	c9		 leave
  00035	c2 04 00	 ret	 4
??_Gbad_alloc@std@@UAEPAXI@Z ENDP			; std::bad_alloc::`scalar deleting destructor'
_TEXT	ENDS
; Function compile flags: /Odspy
;	COMDAT ??0bad_alloc@std@@QAE@ABV01@@Z
_TEXT	SEGMENT
_this$ = -4						; size = 4
___that$ = 8						; size = 4
??0bad_alloc@std@@QAE@ABV01@@Z PROC			; std::bad_alloc::bad_alloc, COMDAT
; _this$ = ecx
  00000	55		 push	 ebp
  00001	8b ec		 mov	 ebp, esp
  00003	51		 push	 ecx
  00004	89 4d fc	 mov	 DWORD PTR _this$[ebp], ecx
  00007	ff 75 08	 push	 DWORD PTR ___that$[ebp]
  0000a	8b 4d fc	 mov	 ecx, DWORD PTR _this$[ebp]
  0000d	e8 00 00 00 00	 call	 ??0exception@std@@QAE@ABV01@@Z ; std::exception::exception
  00012	8b 45 fc	 mov	 eax, DWORD PTR _this$[ebp]
  00015	c7 00 00 00 00
	00		 mov	 DWORD PTR [eax], OFFSET ??_7bad_alloc@std@@6B@
  0001b	8b 45 fc	 mov	 eax, DWORD PTR _this$[ebp]
  0001e	c9		 leave
  0001f	c2 04 00	 ret	 4
??0bad_alloc@std@@QAE@ABV01@@Z ENDP			; std::bad_alloc::bad_alloc
_TEXT	ENDS
; Function compile flags: /Odspy
; File C:\Program Files (x86)\Microsoft Visual Studio\2019\Community\VC\Tools\MSVC\14.28.29333\include\vcruntime_exception.h
;	COMDAT ??_Gexception@std@@UAEPAXI@Z
_TEXT	SEGMENT
_this$ = -4						; size = 4
___flags$ = 8						; size = 4
??_Gexception@std@@UAEPAXI@Z PROC			; std::exception::`scalar deleting destructor', COMDAT
; _this$ = ecx
  00000	55		 push	 ebp
  00001	8b ec		 mov	 ebp, esp
  00003	51		 push	 ecx
  00004	89 4d fc	 mov	 DWORD PTR _this$[ebp], ecx

; 89   :     {

  00007	8b 45 fc	 mov	 eax, DWORD PTR _this$[ebp]
  0000a	c7 00 00 00 00
	00		 mov	 DWORD PTR [eax], OFFSET ??_7exception@std@@6B@

; 90   :         __std_exception_destroy(&_Data);

  00010	8b 45 fc	 mov	 eax, DWORD PTR _this$[ebp]
  00013	83 c0 04	 add	 eax, 4
  00016	50		 push	 eax
  00017	e8 00 00 00 00	 call	 ___std_exception_destroy
  0001c	59		 pop	 ecx
  0001d	8b 45 08	 mov	 eax, DWORD PTR ___flags$[ebp]
  00020	83 e0 01	 and	 eax, 1
  00023	74 0c		 je	 SHORT $LN2@scalar
  00025	6a 0c		 push	 12			; 0000000cH
  00027	ff 75 fc	 push	 DWORD PTR _this$[ebp]
  0002a	e8 00 00 00 00	 call	 ??3@YAXPAXI@Z		; operator delete
  0002f	59		 pop	 ecx
  00030	59		 pop	 ecx
$LN2@scalar:
  00031	8b 45 fc	 mov	 eax, DWORD PTR _this$[ebp]
  00034	c9		 leave
  00035	c2 04 00	 ret	 4
??_Gexception@std@@UAEPAXI@Z ENDP			; std::exception::`scalar deleting destructor'
_TEXT	ENDS
; Function compile flags: /Odspy
; File C:\Program Files (x86)\Microsoft Visual Studio\2019\Community\VC\Tools\MSVC\14.28.29333\include\vcruntime_exception.h
;	COMDAT ?what@exception@std@@UBEPBDXZ
_TEXT	SEGMENT
tv69 = -8						; size = 4
_this$ = -4						; size = 4
?what@exception@std@@UBEPBDXZ PROC			; std::exception::what, COMDAT
; _this$ = ecx

; 94   :     {

  00000	55		 push	 ebp
  00001	8b ec		 mov	 ebp, esp
  00003	51		 push	 ecx
  00004	51		 push	 ecx
  00005	89 4d fc	 mov	 DWORD PTR _this$[ebp], ecx

; 95   :         return _Data._What ? _Data._What : "Unknown exception";

  00008	8b 45 fc	 mov	 eax, DWORD PTR _this$[ebp]
  0000b	83 78 04 00	 cmp	 DWORD PTR [eax+4], 0
  0000f	74 0b		 je	 SHORT $LN3@what
  00011	8b 45 fc	 mov	 eax, DWORD PTR _this$[ebp]
  00014	8b 40 04	 mov	 eax, DWORD PTR [eax+4]
  00017	89 45 f8	 mov	 DWORD PTR tv69[ebp], eax
  0001a	eb 07		 jmp	 SHORT $LN4@what
$LN3@what:
  0001c	c7 45 f8 00 00
	00 00		 mov	 DWORD PTR tv69[ebp], OFFSET ??_C@_0BC@EOODALEL@Unknown?5exception@
$LN4@what:
  00023	8b 45 f8	 mov	 eax, DWORD PTR tv69[ebp]

; 96   :     }

  00026	c9		 leave
  00027	c3		 ret	 0
?what@exception@std@@UBEPBDXZ ENDP			; std::exception::what
_TEXT	ENDS
; Function compile flags: /Odspy
; File C:\Program Files (x86)\Microsoft Visual Studio\2019\Community\VC\Tools\MSVC\14.28.29333\include\vcruntime_exception.h
;	COMDAT ??0exception@std@@QAE@ABV01@@Z
_TEXT	SEGMENT
_this$ = -4						; size = 4
__Other$ = 8						; size = 4
??0exception@std@@QAE@ABV01@@Z PROC			; std::exception::exception, COMDAT
; _this$ = ecx

; 72   :     {

  00000	55		 push	 ebp
  00001	8b ec		 mov	 ebp, esp
  00003	51		 push	 ecx
  00004	89 4d fc	 mov	 DWORD PTR _this$[ebp], ecx
  00007	8b 45 fc	 mov	 eax, DWORD PTR _this$[ebp]
  0000a	c7 00 00 00 00
	00		 mov	 DWORD PTR [eax], OFFSET ??_7exception@std@@6B@

; 71   :         : _Data()

  00010	33 c0		 xor	 eax, eax
  00012	8b 4d fc	 mov	 ecx, DWORD PTR _this$[ebp]
  00015	83 c1 04	 add	 ecx, 4
  00018	89 01		 mov	 DWORD PTR [ecx], eax
  0001a	89 41 04	 mov	 DWORD PTR [ecx+4], eax

; 73   :         __std_exception_copy(&_Other._Data, &_Data);

  0001d	8b 45 fc	 mov	 eax, DWORD PTR _this$[ebp]
  00020	83 c0 04	 add	 eax, 4
  00023	50		 push	 eax
  00024	8b 45 08	 mov	 eax, DWORD PTR __Other$[ebp]
  00027	83 c0 04	 add	 eax, 4
  0002a	50		 push	 eax
  0002b	e8 00 00 00 00	 call	 ___std_exception_copy
  00030	59		 pop	 ecx
  00031	59		 pop	 ecx

; 74   :     }

  00032	8b 45 fc	 mov	 eax, DWORD PTR _this$[ebp]
  00035	c9		 leave
  00036	c2 04 00	 ret	 4
??0exception@std@@QAE@ABV01@@Z ENDP			; std::exception::exception
_TEXT	ENDS
END
