; Listing generated by Microsoft (R) Optimizing Compiler Version 19.28.29335.0 

	TITLE	D:\Metin2 Server Files\mainline\SRC_2014\Metin2Client\GameLib\MapOutdoorUpdate.cpp
	.686P
	.XMM
	include listing.inc
	.model	flat

INCLUDELIB LIBCMT
INCLUDELIB OLDNAMES

PUBLIC	??_H@YGXPAXIIP6EPAX0@Z@Z			; `vector constructor iterator'
PUBLIC	?__empty_global_delete@@YAXPAX@Z		; __empty_global_delete
PUBLIC	?__empty_global_delete@@YAXPAXI@Z		; __empty_global_delete
PUBLIC	??0exception@std@@QAE@ABV01@@Z			; std::exception::exception
PUBLIC	?what@exception@std@@UBEPBDXZ			; std::exception::what
PUBLIC	??_Gexception@std@@UAEPAXI@Z			; std::exception::`scalar deleting destructor'
PUBLIC	??0bad_alloc@std@@QAE@ABV01@@Z			; std::bad_alloc::bad_alloc
PUBLIC	??_Gbad_alloc@std@@UAEPAXI@Z			; std::bad_alloc::`scalar deleting destructor'
PUBLIC	??0bad_array_new_length@std@@QAE@XZ		; std::bad_array_new_length::bad_array_new_length
PUBLIC	??1bad_array_new_length@std@@UAE@XZ		; std::bad_array_new_length::~bad_array_new_length
PUBLIC	??0bad_array_new_length@std@@QAE@ABV01@@Z	; std::bad_array_new_length::bad_array_new_length
PUBLIC	??_Gbad_array_new_length@std@@UAEPAXI@Z		; std::bad_array_new_length::`scalar deleting destructor'
PUBLIC	?_Throw_bad_array_new_length@std@@YAXXZ		; std::_Throw_bad_array_new_length
PUBLIC	?_Adjust_manually_vector_aligned@std@@YAXAAPAXAAI@Z ; std::_Adjust_manually_vector_aligned
PUBLIC	??$_Deallocate@$07$0A@@std@@YAXPAXI@Z		; std::_Deallocate<8,0>
PUBLIC	??$_Allocate@$07U_Default_allocate_traits@std@@$0A@@std@@YAPAXI@Z ; std::_Allocate<8,std::_Default_allocate_traits,0>
PUBLIC	??$_Allocate_manually_vector_aligned@U_Default_allocate_traits@std@@@std@@YAPAXI@Z ; std::_Allocate_manually_vector_aligned<std::_Default_allocate_traits>
PUBLIC	?VisibilityCallback@SpherePackCallback@@UAEXABVFrustum@@PAVSpherePack@@W4ViewState@@@Z ; SpherePackCallback::VisibilityCallback
PUBLIC	?RayTraceCallback@SpherePackCallback@@UAEXABVVector3d@@0M0PAVSpherePack@@@Z ; SpherePackCallback::RayTraceCallback
PUBLIC	?RangeTestCallback@SpherePackCallback@@UAEXABVVector3d@@MPAVSpherePack@@W4ViewState@@@Z ; SpherePackCallback::RangeTestCallback
PUBLIC	?PointTest2dCallback@SpherePackCallback@@UAEXABVVector3d@@PAVSpherePack@@W4ViewState@@@Z ; SpherePackCallback::PointTest2dCallback
PUBLIC	??_GSpherePackCallback@@UAEPAXI@Z		; SpherePackCallback::`scalar deleting destructor'
PUBLIC	?deallocate@?$allocator@PAVCGraphicObjectInstance@@@std@@QAEXQAPAVCGraphicObjectInstance@@I@Z ; std::allocator<CGraphicObjectInstance *>::deallocate
PUBLIC	??1?$vector@PAVCGraphicObjectInstance@@V?$allocator@PAVCGraphicObjectInstance@@@std@@@std@@QAE@XZ ; std::vector<CGraphicObjectInstance *,std::allocator<CGraphicObjectInstance *> >::~vector<CGraphicObjectInstance *,std::allocator<CGraphicObjectInstance *> >
PUBLIC	?clear@?$vector@PAVCGraphicObjectInstance@@V?$allocator@PAVCGraphicObjectInstance@@@std@@@std@@QAEXXZ ; std::vector<CGraphicObjectInstance *,std::allocator<CGraphicObjectInstance *> >::clear
PUBLIC	?_Destroy@?$vector@PAVCGraphicObjectInstance@@V?$allocator@PAVCGraphicObjectInstance@@@std@@@std@@AAEXPAPAVCGraphicObjectInstance@@0@Z ; std::vector<CGraphicObjectInstance *,std::allocator<CGraphicObjectInstance *> >::_Destroy
PUBLIC	?_Calculate_growth@?$vector@PAVCGraphicObjectInstance@@V?$allocator@PAVCGraphicObjectInstance@@@std@@@std@@ABEII@Z ; std::vector<CGraphicObjectInstance *,std::allocator<CGraphicObjectInstance *> >::_Calculate_growth
PUBLIC	?_Change_array@?$vector@PAVCGraphicObjectInstance@@V?$allocator@PAVCGraphicObjectInstance@@@std@@@std@@AAEXQAPAVCGraphicObjectInstance@@II@Z ; std::vector<CGraphicObjectInstance *,std::allocator<CGraphicObjectInstance *> >::_Change_array
PUBLIC	?_Tidy@?$vector@PAVCGraphicObjectInstance@@V?$allocator@PAVCGraphicObjectInstance@@@std@@@std@@AAEXXZ ; std::vector<CGraphicObjectInstance *,std::allocator<CGraphicObjectInstance *> >::_Tidy
PUBLIC	?_Xlength@?$vector@PAVCGraphicObjectInstance@@V?$allocator@PAVCGraphicObjectInstance@@@std@@@std@@CAXXZ ; std::vector<CGraphicObjectInstance *,std::allocator<CGraphicObjectInstance *> >::_Xlength
PUBLIC	??0?$_Vector_val@U?$_Simple_types@PAVCGraphicObjectInstance@@@std@@@std@@QAE@XZ ; std::_Vector_val<std::_Simple_types<CGraphicObjectInstance *> >::_Vector_val<std::_Simple_types<CGraphicObjectInstance *> >
PUBLIC	?deallocate@?$allocator@PAVCTerrain@@@std@@QAEXQAPAVCTerrain@@I@Z ; std::allocator<CTerrain *>::deallocate
PUBLIC	?deallocate@?$allocator@PAVCArea@@@std@@QAEXQAPAVCArea@@I@Z ; std::allocator<CArea *>::deallocate
PUBLIC	?Update@CMapOutdoor@@UAE_NMMM@Z			; CMapOutdoor::Update
PUBLIC	?UpdateAroundAmbience@CMapOutdoor@@UAEXMMM@Z	; CMapOutdoor::UpdateAroundAmbience
PUBLIC	?UpdateSky@CMapOutdoor@@QAEXXZ			; CMapOutdoor::UpdateSky
PUBLIC	?__ClearGarvage@CMapOutdoor@@MAEXXZ		; CMapOutdoor::__ClearGarvage
PUBLIC	?__UpdateGarvage@CMapOutdoor@@MAEXXZ		; CMapOutdoor::__UpdateGarvage
PUBLIC	?UpdateAreaList@CMapOutdoor@@MAEXJJ@Z		; CMapOutdoor::UpdateAreaList
PUBLIC	?UpdateTerrain@CMapOutdoor@@IAEXMM@Z		; CMapOutdoor::UpdateTerrain
PUBLIC	?ConvertTerrainToTnL@CMapOutdoor@@IAEXJJ@Z	; CMapOutdoor::ConvertTerrainToTnL
PUBLIC	?AssignPatch@CMapOutdoor@@IAEXJJJJJ@Z		; CMapOutdoor::AssignPatch
PUBLIC	?__UpdateArea@CMapOutdoor@@IAEXAAUD3DXVECTOR3@@@Z ; CMapOutdoor::__UpdateArea
PUBLIC	?__Game_UpdateArea@CMapOutdoor@@IAEXAAUD3DXVECTOR3@@@Z ; CMapOutdoor::__Game_UpdateArea
PUBLIC	?__CollectShadowReceiver@CMapOutdoor@@IAEXAAUD3DXVECTOR3@@0@Z ; CMapOutdoor::__CollectShadowReceiver
PUBLIC	?__CollectCollisionPCBlocker@CMapOutdoor@@IAEXAAUD3DXVECTOR3@@0M@Z ; CMapOutdoor::__CollectCollisionPCBlocker
PUBLIC	?__CollectCollisionShadowReceiver@CMapOutdoor@@IAEXAAUD3DXVECTOR3@@0@Z ; CMapOutdoor::__CollectCollisionShadowReceiver
PUBLIC	?__UpdateAroundAreaList@CMapOutdoor@@IAEXXZ	; CMapOutdoor::__UpdateAroundAreaList
PUBLIC	?__IsInShadowReceiverList@CMapOutdoor@@IAE_NPAVCGraphicObjectInstance@@@Z ; CMapOutdoor::__IsInShadowReceiverList
PUBLIC	?__IsInPCBlockerList@CMapOutdoor@@IAE_NPAVCGraphicObjectInstance@@@Z ; CMapOutdoor::__IsInPCBlockerList
PUBLIC	?UpdateQuadTreeHeights@CMapOutdoor@@IAEXPAVCTerrainQuadtreeNode@@@Z ; CMapOutdoor::UpdateQuadTreeHeights
PUBLIC	??0?$vector@PAVCTerrain@@V?$allocator@PAVCTerrain@@@std@@@std@@QAE@XZ ; std::vector<CTerrain *,std::allocator<CTerrain *> >::vector<CTerrain *,std::allocator<CTerrain *> >
PUBLIC	??0?$vector@PAVCTerrain@@V?$allocator@PAVCTerrain@@@std@@@std@@QAE@$$QAV01@@Z ; std::vector<CTerrain *,std::allocator<CTerrain *> >::vector<CTerrain *,std::allocator<CTerrain *> >
PUBLIC	?erase@?$vector@PAVCTerrain@@V?$allocator@PAVCTerrain@@@std@@@std@@QAE?AV?$_Vector_iterator@V?$_Vector_val@U?$_Simple_types@PAVCTerrain@@@std@@@std@@@2@V?$_Vector_const_iterator@V?$_Vector_val@U?$_Simple_types@PAVCTerrain@@@std@@@std@@@2@@Z ; std::vector<CTerrain *,std::allocator<CTerrain *> >::erase
PUBLIC	?clear@?$vector@PAVCTerrain@@V?$allocator@PAVCTerrain@@@std@@@std@@QAEXXZ ; std::vector<CTerrain *,std::allocator<CTerrain *> >::clear
PUBLIC	?begin@?$vector@PAVCTerrain@@V?$allocator@PAVCTerrain@@@std@@@std@@QAE?AV?$_Vector_iterator@V?$_Vector_val@U?$_Simple_types@PAVCTerrain@@@std@@@std@@@2@XZ ; std::vector<CTerrain *,std::allocator<CTerrain *> >::begin
PUBLIC	?_Destroy@?$vector@PAVCTerrain@@V?$allocator@PAVCTerrain@@@std@@@std@@AAEXPAPAVCTerrain@@0@Z ; std::vector<CTerrain *,std::allocator<CTerrain *> >::_Destroy
PUBLIC	?_Calculate_growth@?$vector@PAVCTerrain@@V?$allocator@PAVCTerrain@@@std@@@std@@ABEII@Z ; std::vector<CTerrain *,std::allocator<CTerrain *> >::_Calculate_growth
PUBLIC	?_Change_array@?$vector@PAVCTerrain@@V?$allocator@PAVCTerrain@@@std@@@std@@AAEXQAPAVCTerrain@@II@Z ; std::vector<CTerrain *,std::allocator<CTerrain *> >::_Change_array
PUBLIC	?_Tidy@?$vector@PAVCTerrain@@V?$allocator@PAVCTerrain@@@std@@@std@@AAEXXZ ; std::vector<CTerrain *,std::allocator<CTerrain *> >::_Tidy
PUBLIC	?_Xlength@?$vector@PAVCTerrain@@V?$allocator@PAVCTerrain@@@std@@@std@@CAXXZ ; std::vector<CTerrain *,std::allocator<CTerrain *> >::_Xlength
PUBLIC	?_Getal@?$vector@PAVCTerrain@@V?$allocator@PAVCTerrain@@@std@@@std@@AAEAAV?$allocator@PAVCTerrain@@@2@XZ ; std::vector<CTerrain *,std::allocator<CTerrain *> >::_Getal
PUBLIC	??0?$vector@PAVCArea@@V?$allocator@PAVCArea@@@std@@@std@@QAE@XZ ; std::vector<CArea *,std::allocator<CArea *> >::vector<CArea *,std::allocator<CArea *> >
PUBLIC	??0?$vector@PAVCArea@@V?$allocator@PAVCArea@@@std@@@std@@QAE@$$QAV01@@Z ; std::vector<CArea *,std::allocator<CArea *> >::vector<CArea *,std::allocator<CArea *> >
PUBLIC	?erase@?$vector@PAVCArea@@V?$allocator@PAVCArea@@@std@@@std@@QAE?AV?$_Vector_iterator@V?$_Vector_val@U?$_Simple_types@PAVCArea@@@std@@@std@@@2@V?$_Vector_const_iterator@V?$_Vector_val@U?$_Simple_types@PAVCArea@@@std@@@std@@@2@@Z ; std::vector<CArea *,std::allocator<CArea *> >::erase
PUBLIC	?clear@?$vector@PAVCArea@@V?$allocator@PAVCArea@@@std@@@std@@QAEXXZ ; std::vector<CArea *,std::allocator<CArea *> >::clear
PUBLIC	?begin@?$vector@PAVCArea@@V?$allocator@PAVCArea@@@std@@@std@@QAE?AV?$_Vector_iterator@V?$_Vector_val@U?$_Simple_types@PAVCArea@@@std@@@std@@@2@XZ ; std::vector<CArea *,std::allocator<CArea *> >::begin
PUBLIC	?_Destroy@?$vector@PAVCArea@@V?$allocator@PAVCArea@@@std@@@std@@AAEXPAPAVCArea@@0@Z ; std::vector<CArea *,std::allocator<CArea *> >::_Destroy
PUBLIC	?_Calculate_growth@?$vector@PAVCArea@@V?$allocator@PAVCArea@@@std@@@std@@ABEII@Z ; std::vector<CArea *,std::allocator<CArea *> >::_Calculate_growth
PUBLIC	?_Change_array@?$vector@PAVCArea@@V?$allocator@PAVCArea@@@std@@@std@@AAEXQAPAVCArea@@II@Z ; std::vector<CArea *,std::allocator<CArea *> >::_Change_array
PUBLIC	?_Tidy@?$vector@PAVCArea@@V?$allocator@PAVCArea@@@std@@@std@@AAEXXZ ; std::vector<CArea *,std::allocator<CArea *> >::_Tidy
PUBLIC	?_Xlength@?$vector@PAVCArea@@V?$allocator@PAVCArea@@@std@@@std@@CAXXZ ; std::vector<CArea *,std::allocator<CArea *> >::_Xlength
PUBLIC	?_Getal@?$vector@PAVCArea@@V?$allocator@PAVCArea@@@std@@@std@@AAEAAV?$allocator@PAVCArea@@@2@XZ ; std::vector<CArea *,std::allocator<CArea *> >::_Getal
PUBLIC	??0?$_Vector_const_iterator@V?$_Vector_val@U?$_Simple_types@PAVCTerrain@@@std@@@std@@@std@@QAE@PAPAVCTerrain@@PBU_Container_base0@1@@Z ; std::_Vector_const_iterator<std::_Vector_val<std::_Simple_types<CTerrain *> > >::_Vector_const_iterator<std::_Vector_val<std::_Simple_types<CTerrain *> > >
PUBLIC	??0?$_Vector_const_iterator@V?$_Vector_val@U?$_Simple_types@PAVCArea@@@std@@@std@@@std@@QAE@PAPAVCArea@@PBU_Container_base0@1@@Z ; std::_Vector_const_iterator<std::_Vector_val<std::_Simple_types<CArea *> > >::_Vector_const_iterator<std::_Vector_val<std::_Simple_types<CArea *> > >
PUBLIC	??RFPushTerrainToDeleteVector@CMapOutdoor@@QAEXPAVCTerrain@@@Z ; CMapOutdoor::FPushTerrainToDeleteVector::operator()
PUBLIC	??1FPushTerrainToDeleteVector@CMapOutdoor@@QAE@XZ ; CMapOutdoor::FPushTerrainToDeleteVector::~FPushTerrainToDeleteVector
PUBLIC	??RFPushAreaToDeleteVector@CMapOutdoor@@QAEXPAVCArea@@@Z ; CMapOutdoor::FPushAreaToDeleteVector::operator()
PUBLIC	??1FPushAreaToDeleteVector@CMapOutdoor@@QAE@XZ	; CMapOutdoor::FPushAreaToDeleteVector::~FPushAreaToDeleteVector
PUBLIC	??1PCBlocker_CDynamicSphereInstanceVector@@QAE@XZ ; PCBlocker_CDynamicSphereInstanceVector::~PCBlocker_CDynamicSphereInstanceVector
PUBLIC	??RFGetShadowReceiverFromCollisionData@@QAEXPAVCGraphicObjectInstance@@@Z ; FGetShadowReceiverFromCollisionData::operator()
PUBLIC	??RFPCBlockerDistanceSort@@QBE_NPAVCGraphicObjectInstance@@0@Z ; FPCBlockerDistanceSort::operator()
PUBLIC	??RFGetShadowReceiverFromHeightData@@QAEXPAVCGraphicObjectInstance@@@Z ; FGetShadowReceiverFromHeightData::operator()
PUBLIC	??$ForInRange@UFGetShadowReceiverFromHeightData@@@CCullingManager@@QAEXABVVector3d@@MPAUFGetShadowReceiverFromHeightData@@@Z ; CCullingManager::ForInRange<FGetShadowReceiverFromHeightData>
PUBLIC	??0PCBlocker_SInstanceList@@QAE@PAVPCBlocker_CDynamicSphereInstanceVector@@@Z ; PCBlocker_SInstanceList::PCBlocker_SInstanceList
PUBLIC	??1PCBlocker_SInstanceList@@QAE@XZ		; PCBlocker_SInstanceList::~PCBlocker_SInstanceList
PUBLIC	?__AppendPCBlocker@PCBlocker_SInstanceList@@QAEXPAVCGraphicObjectInstance@@@Z ; PCBlocker_SInstanceList::__AppendPCBlocker
PUBLIC	?__AppendObject@PCBlocker_SInstanceList@@QAEXPAVCGraphicObjectInstance@@@Z ; PCBlocker_SInstanceList::__AppendObject
PUBLIC	??RPCBlocker_SInstanceList@@QAEXPAVCGraphicObjectInstance@@@Z ; PCBlocker_SInstanceList::operator()
PUBLIC	??1?$RangeTester@UPCBlocker_SInstanceList@@@@UAE@XZ ; RangeTester<PCBlocker_SInstanceList>::~RangeTester<PCBlocker_SInstanceList>
PUBLIC	?RayTraceCallback@?$RangeTester@UPCBlocker_SInstanceList@@@@UAEXABVVector3d@@0M0PAVSpherePack@@@Z ; RangeTester<PCBlocker_SInstanceList>::RayTraceCallback
PUBLIC	?VisibilityCallback@?$RangeTester@UPCBlocker_SInstanceList@@@@UAEXABVFrustum@@PAVSpherePack@@W4ViewState@@@Z ; RangeTester<PCBlocker_SInstanceList>::VisibilityCallback
PUBLIC	?RangeTestCallback@?$RangeTester@UPCBlocker_SInstanceList@@@@UAEXABVVector3d@@MPAVSpherePack@@W4ViewState@@@Z ; RangeTester<PCBlocker_SInstanceList>::RangeTestCallback
PUBLIC	?PointTest2dCallback@?$RangeTester@UPCBlocker_SInstanceList@@@@UAEXABVVector3d@@PAVSpherePack@@W4ViewState@@@Z ; RangeTester<PCBlocker_SInstanceList>::PointTest2dCallback
PUBLIC	??_G?$RangeTester@UPCBlocker_SInstanceList@@@@UAEPAXI@Z ; RangeTester<PCBlocker_SInstanceList>::`scalar deleting destructor'
PUBLIC	??$sort@V?$_Vector_iterator@V?$_Vector_val@U?$_Simple_types@PAVCGraphicObjectInstance@@@std@@@std@@@std@@UFPCBlockerDistanceSort@@@std@@YAXV?$_Vector_iterator@V?$_Vector_val@U?$_Simple_types@PAVCGraphicObjectInstance@@@std@@@std@@@0@0UFPCBlockerDistanceSort@@@Z ; std::sort<std::_Vector_iterator<std::_Vector_val<std::_Simple_types<CGraphicObjectInstance *> > >,FPCBlockerDistanceSort>
PUBLIC	??$ForInRange@UFGetShadowReceiverFromCollisionData@@@CCullingManager@@QAEXABVVector3d@@MPAUFGetShadowReceiverFromCollisionData@@@Z ; CCullingManager::ForInRange<FGetShadowReceiverFromCollisionData>
PUBLIC	??$find@V?$_Vector_iterator@V?$_Vector_val@U?$_Simple_types@PAVCGraphicObjectInstance@@@std@@@std@@@std@@PAVCGraphicObjectInstance@@@std@@YA?AV?$_Vector_iterator@V?$_Vector_val@U?$_Simple_types@PAVCGraphicObjectInstance@@@std@@@std@@@0@V10@V10@ABQAVCGraphicObjectInstance@@@Z ; std::find<std::_Vector_iterator<std::_Vector_val<std::_Simple_types<CGraphicObjectInstance *> > >,CGraphicObjectInstance *>
PUBLIC	??$find@V?$_Vector_iterator@V?$_Vector_val@U?$_Simple_types@PAVCTerrain@@@std@@@std@@@std@@PAVCTerrain@@@std@@YA?AV?$_Vector_iterator@V?$_Vector_val@U?$_Simple_types@PAVCTerrain@@@std@@@std@@@0@V10@V10@ABQAVCTerrain@@@Z ; std::find<std::_Vector_iterator<std::_Vector_val<std::_Simple_types<CTerrain *> > >,CTerrain *>
PUBLIC	??$find@V?$_Vector_iterator@V?$_Vector_val@U?$_Simple_types@PAVCArea@@@std@@@std@@@std@@PAVCArea@@@std@@YA?AV?$_Vector_iterator@V?$_Vector_val@U?$_Simple_types@PAVCArea@@@std@@@std@@@0@V10@V10@ABQAVCArea@@@Z ; std::find<std::_Vector_iterator<std::_Vector_val<std::_Simple_types<CArea *> > >,CArea *>
PUBLIC	??$for_each@V?$_Vector_iterator@V?$_Vector_val@U?$_Simple_types@PAVCTerrain@@@std@@@std@@@std@@UFPushTerrainToDeleteVector@CMapOutdoor@@@std@@YA?AUFPushTerrainToDeleteVector@CMapOutdoor@@V?$_Vector_iterator@V?$_Vector_val@U?$_Simple_types@PAVCTerrain@@@std@@@std@@@0@0U12@@Z ; std::for_each<std::_Vector_iterator<std::_Vector_val<std::_Simple_types<CTerrain *> > >,CMapOutdoor::FPushTerrainToDeleteVector>
PUBLIC	??$for_each@V?$_Vector_iterator@V?$_Vector_val@U?$_Simple_types@PAVCArea@@@std@@@std@@@std@@UFPushAreaToDeleteVector@CMapOutdoor@@@std@@YA?AUFPushAreaToDeleteVector@CMapOutdoor@@V?$_Vector_iterator@V?$_Vector_val@U?$_Simple_types@PAVCArea@@@std@@@std@@@0@0U12@@Z ; std::for_each<std::_Vector_iterator<std::_Vector_val<std::_Simple_types<CArea *> > >,CMapOutdoor::FPushAreaToDeleteVector>
PUBLIC	??$copy@V?$_Vector_iterator@V?$_Vector_val@U?$_Simple_types@PAVCTerrain@@@std@@@std@@@std@@V12@@std@@YA?AV?$_Vector_iterator@V?$_Vector_val@U?$_Simple_types@PAVCTerrain@@@std@@@std@@@0@V10@00@Z ; std::copy<std::_Vector_iterator<std::_Vector_val<std::_Simple_types<CTerrain *> > >,std::_Vector_iterator<std::_Vector_val<std::_Simple_types<CTerrain *> > > >
PUBLIC	??$copy@V?$_Vector_iterator@V?$_Vector_val@U?$_Simple_types@PAVCArea@@@std@@@std@@@std@@V12@@std@@YA?AV?$_Vector_iterator@V?$_Vector_val@U?$_Simple_types@PAVCArea@@@std@@@std@@@0@V10@00@Z ; std::copy<std::_Vector_iterator<std::_Vector_val<std::_Simple_types<CArea *> > >,std::_Vector_iterator<std::_Vector_val<std::_Simple_types<CArea *> > > >
PUBLIC	??0?$CDynamicPoolEx@VCRotationDecorator@NEffectUpdateDecorator@@@@QAE@XZ ; CDynamicPoolEx<NEffectUpdateDecorator::CRotationDecorator>::CDynamicPoolEx<NEffectUpdateDecorator::CRotationDecorator>
PUBLIC	??1?$CDynamicPoolEx@VCRotationDecorator@NEffectUpdateDecorator@@@@UAE@XZ ; CDynamicPoolEx<NEffectUpdateDecorator::CRotationDecorator>::~CDynamicPoolEx<NEffectUpdateDecorator::CRotationDecorator>
PUBLIC	?Destroy@?$CDynamicPoolEx@VCRotationDecorator@NEffectUpdateDecorator@@@@QAEXXZ ; CDynamicPoolEx<NEffectUpdateDecorator::CRotationDecorator>::Destroy
PUBLIC	?Delete@?$CDynamicPoolEx@VCRotationDecorator@NEffectUpdateDecorator@@@@KAXPAVCRotationDecorator@NEffectUpdateDecorator@@@Z ; CDynamicPoolEx<NEffectUpdateDecorator::CRotationDecorator>::Delete
PUBLIC	?clear@?$vector@PAVCRotationDecorator@NEffectUpdateDecorator@@V?$allocator@PAVCRotationDecorator@NEffectUpdateDecorator@@@std@@@std@@QAEXXZ ; std::vector<NEffectUpdateDecorator::CRotationDecorator *,std::allocator<NEffectUpdateDecorator::CRotationDecorator *> >::clear
PUBLIC	?_Tidy@?$vector@PAVCRotationDecorator@NEffectUpdateDecorator@@V?$allocator@PAVCRotationDecorator@NEffectUpdateDecorator@@@std@@@std@@AAEXXZ ; std::vector<NEffectUpdateDecorator::CRotationDecorator *,std::allocator<NEffectUpdateDecorator::CRotationDecorator *> >::_Tidy
PUBLIC	??_G?$CDynamicPoolEx@VCRotationDecorator@NEffectUpdateDecorator@@@@UAEPAXI@Z ; CDynamicPoolEx<NEffectUpdateDecorator::CRotationDecorator>::`scalar deleting destructor'
PUBLIC	??0?$CDynamicPoolEx@VCGravityDecorator@NEffectUpdateDecorator@@@@QAE@XZ ; CDynamicPoolEx<NEffectUpdateDecorator::CGravityDecorator>::CDynamicPoolEx<NEffectUpdateDecorator::CGravityDecorator>
PUBLIC	??1?$CDynamicPoolEx@VCGravityDecorator@NEffectUpdateDecorator@@@@UAE@XZ ; CDynamicPoolEx<NEffectUpdateDecorator::CGravityDecorator>::~CDynamicPoolEx<NEffectUpdateDecorator::CGravityDecorator>
PUBLIC	?Destroy@?$CDynamicPoolEx@VCGravityDecorator@NEffectUpdateDecorator@@@@QAEXXZ ; CDynamicPoolEx<NEffectUpdateDecorator::CGravityDecorator>::Destroy
PUBLIC	?Delete@?$CDynamicPoolEx@VCGravityDecorator@NEffectUpdateDecorator@@@@KAXPAVCGravityDecorator@NEffectUpdateDecorator@@@Z ; CDynamicPoolEx<NEffectUpdateDecorator::CGravityDecorator>::Delete
PUBLIC	?clear@?$vector@PAVCGravityDecorator@NEffectUpdateDecorator@@V?$allocator@PAVCGravityDecorator@NEffectUpdateDecorator@@@std@@@std@@QAEXXZ ; std::vector<NEffectUpdateDecorator::CGravityDecorator *,std::allocator<NEffectUpdateDecorator::CGravityDecorator *> >::clear
PUBLIC	?_Tidy@?$vector@PAVCGravityDecorator@NEffectUpdateDecorator@@V?$allocator@PAVCGravityDecorator@NEffectUpdateDecorator@@@std@@@std@@AAEXXZ ; std::vector<NEffectUpdateDecorator::CGravityDecorator *,std::allocator<NEffectUpdateDecorator::CGravityDecorator *> >::_Tidy
PUBLIC	??_G?$CDynamicPoolEx@VCGravityDecorator@NEffectUpdateDecorator@@@@UAEPAXI@Z ; CDynamicPoolEx<NEffectUpdateDecorator::CGravityDecorator>::`scalar deleting destructor'
PUBLIC	??0?$CDynamicPoolEx@VCAirResistanceDecorator@NEffectUpdateDecorator@@@@QAE@XZ ; CDynamicPoolEx<NEffectUpdateDecorator::CAirResistanceDecorator>::CDynamicPoolEx<NEffectUpdateDecorator::CAirResistanceDecorator>
PUBLIC	??1?$CDynamicPoolEx@VCAirResistanceDecorator@NEffectUpdateDecorator@@@@UAE@XZ ; CDynamicPoolEx<NEffectUpdateDecorator::CAirResistanceDecorator>::~CDynamicPoolEx<NEffectUpdateDecorator::CAirResistanceDecorator>
PUBLIC	?Destroy@?$CDynamicPoolEx@VCAirResistanceDecorator@NEffectUpdateDecorator@@@@QAEXXZ ; CDynamicPoolEx<NEffectUpdateDecorator::CAirResistanceDecorator>::Destroy
PUBLIC	?Delete@?$CDynamicPoolEx@VCAirResistanceDecorator@NEffectUpdateDecorator@@@@KAXPAVCAirResistanceDecorator@NEffectUpdateDecorator@@@Z ; CDynamicPoolEx<NEffectUpdateDecorator::CAirResistanceDecorator>::Delete
PUBLIC	?clear@?$vector@PAVCAirResistanceDecorator@NEffectUpdateDecorator@@V?$allocator@PAVCAirResistanceDecorator@NEffectUpdateDecorator@@@std@@@std@@QAEXXZ ; std::vector<NEffectUpdateDecorator::CAirResistanceDecorator *,std::allocator<NEffectUpdateDecorator::CAirResistanceDecorator *> >::clear
PUBLIC	?_Tidy@?$vector@PAVCAirResistanceDecorator@NEffectUpdateDecorator@@V?$allocator@PAVCAirResistanceDecorator@NEffectUpdateDecorator@@@std@@@std@@AAEXXZ ; std::vector<NEffectUpdateDecorator::CAirResistanceDecorator *,std::allocator<NEffectUpdateDecorator::CAirResistanceDecorator *> >::_Tidy
PUBLIC	??_G?$CDynamicPoolEx@VCAirResistanceDecorator@NEffectUpdateDecorator@@@@UAEPAXI@Z ; CDynamicPoolEx<NEffectUpdateDecorator::CAirResistanceDecorator>::`scalar deleting destructor'
PUBLIC	??0?$CDynamicPoolEx@VCTextureAnimationRandomDecorator@NEffectUpdateDecorator@@@@QAE@XZ ; CDynamicPoolEx<NEffectUpdateDecorator::CTextureAnimationRandomDecorator>::CDynamicPoolEx<NEffectUpdateDecorator::CTextureAnimationRandomDecorator>
PUBLIC	??1?$CDynamicPoolEx@VCTextureAnimationRandomDecorator@NEffectUpdateDecorator@@@@UAE@XZ ; CDynamicPoolEx<NEffectUpdateDecorator::CTextureAnimationRandomDecorator>::~CDynamicPoolEx<NEffectUpdateDecorator::CTextureAnimationRandomDecorator>
PUBLIC	?Destroy@?$CDynamicPoolEx@VCTextureAnimationRandomDecorator@NEffectUpdateDecorator@@@@QAEXXZ ; CDynamicPoolEx<NEffectUpdateDecorator::CTextureAnimationRandomDecorator>::Destroy
PUBLIC	?Delete@?$CDynamicPoolEx@VCTextureAnimationRandomDecorator@NEffectUpdateDecorator@@@@KAXPAVCTextureAnimationRandomDecorator@NEffectUpdateDecorator@@@Z ; CDynamicPoolEx<NEffectUpdateDecorator::CTextureAnimationRandomDecorator>::Delete
PUBLIC	?clear@?$vector@PAVCTextureAnimationRandomDecorator@NEffectUpdateDecorator@@V?$allocator@PAVCTextureAnimationRandomDecorator@NEffectUpdateDecorator@@@std@@@std@@QAEXXZ ; std::vector<NEffectUpdateDecorator::CTextureAnimationRandomDecorator *,std::allocator<NEffectUpdateDecorator::CTextureAnimationRandomDecorator *> >::clear
PUBLIC	?_Tidy@?$vector@PAVCTextureAnimationRandomDecorator@NEffectUpdateDecorator@@V?$allocator@PAVCTextureAnimationRandomDecorator@NEffectUpdateDecorator@@@std@@@std@@AAEXXZ ; std::vector<NEffectUpdateDecorator::CTextureAnimationRandomDecorator *,std::allocator<NEffectUpdateDecorator::CTextureAnimationRandomDecorator *> >::_Tidy
PUBLIC	??_G?$CDynamicPoolEx@VCTextureAnimationRandomDecorator@NEffectUpdateDecorator@@@@UAEPAXI@Z ; CDynamicPoolEx<NEffectUpdateDecorator::CTextureAnimationRandomDecorator>::`scalar deleting destructor'
PUBLIC	??0?$CDynamicPoolEx@VCTextureAnimationCCWDecorator@NEffectUpdateDecorator@@@@QAE@XZ ; CDynamicPoolEx<NEffectUpdateDecorator::CTextureAnimationCCWDecorator>::CDynamicPoolEx<NEffectUpdateDecorator::CTextureAnimationCCWDecorator>
PUBLIC	??1?$CDynamicPoolEx@VCTextureAnimationCCWDecorator@NEffectUpdateDecorator@@@@UAE@XZ ; CDynamicPoolEx<NEffectUpdateDecorator::CTextureAnimationCCWDecorator>::~CDynamicPoolEx<NEffectUpdateDecorator::CTextureAnimationCCWDecorator>
PUBLIC	?Destroy@?$CDynamicPoolEx@VCTextureAnimationCCWDecorator@NEffectUpdateDecorator@@@@QAEXXZ ; CDynamicPoolEx<NEffectUpdateDecorator::CTextureAnimationCCWDecorator>::Destroy
PUBLIC	?Delete@?$CDynamicPoolEx@VCTextureAnimationCCWDecorator@NEffectUpdateDecorator@@@@KAXPAVCTextureAnimationCCWDecorator@NEffectUpdateDecorator@@@Z ; CDynamicPoolEx<NEffectUpdateDecorator::CTextureAnimationCCWDecorator>::Delete
PUBLIC	?clear@?$vector@PAVCTextureAnimationCCWDecorator@NEffectUpdateDecorator@@V?$allocator@PAVCTextureAnimationCCWDecorator@NEffectUpdateDecorator@@@std@@@std@@QAEXXZ ; std::vector<NEffectUpdateDecorator::CTextureAnimationCCWDecorator *,std::allocator<NEffectUpdateDecorator::CTextureAnimationCCWDecorator *> >::clear
PUBLIC	?_Tidy@?$vector@PAVCTextureAnimationCCWDecorator@NEffectUpdateDecorator@@V?$allocator@PAVCTextureAnimationCCWDecorator@NEffectUpdateDecorator@@@std@@@std@@AAEXXZ ; std::vector<NEffectUpdateDecorator::CTextureAnimationCCWDecorator *,std::allocator<NEffectUpdateDecorator::CTextureAnimationCCWDecorator *> >::_Tidy
PUBLIC	??_G?$CDynamicPoolEx@VCTextureAnimationCCWDecorator@NEffectUpdateDecorator@@@@UAEPAXI@Z ; CDynamicPoolEx<NEffectUpdateDecorator::CTextureAnimationCCWDecorator>::`scalar deleting destructor'
PUBLIC	??0?$CDynamicPoolEx@VCTextureAnimationCWDecorator@NEffectUpdateDecorator@@@@QAE@XZ ; CDynamicPoolEx<NEffectUpdateDecorator::CTextureAnimationCWDecorator>::CDynamicPoolEx<NEffectUpdateDecorator::CTextureAnimationCWDecorator>
PUBLIC	??1?$CDynamicPoolEx@VCTextureAnimationCWDecorator@NEffectUpdateDecorator@@@@UAE@XZ ; CDynamicPoolEx<NEffectUpdateDecorator::CTextureAnimationCWDecorator>::~CDynamicPoolEx<NEffectUpdateDecorator::CTextureAnimationCWDecorator>
PUBLIC	?Destroy@?$CDynamicPoolEx@VCTextureAnimationCWDecorator@NEffectUpdateDecorator@@@@QAEXXZ ; CDynamicPoolEx<NEffectUpdateDecorator::CTextureAnimationCWDecorator>::Destroy
PUBLIC	?Delete@?$CDynamicPoolEx@VCTextureAnimationCWDecorator@NEffectUpdateDecorator@@@@KAXPAVCTextureAnimationCWDecorator@NEffectUpdateDecorator@@@Z ; CDynamicPoolEx<NEffectUpdateDecorator::CTextureAnimationCWDecorator>::Delete
PUBLIC	?clear@?$vector@PAVCTextureAnimationCWDecorator@NEffectUpdateDecorator@@V?$allocator@PAVCTextureAnimationCWDecorator@NEffectUpdateDecorator@@@std@@@std@@QAEXXZ ; std::vector<NEffectUpdateDecorator::CTextureAnimationCWDecorator *,std::allocator<NEffectUpdateDecorator::CTextureAnimationCWDecorator *> >::clear
PUBLIC	?_Tidy@?$vector@PAVCTextureAnimationCWDecorator@NEffectUpdateDecorator@@V?$allocator@PAVCTextureAnimationCWDecorator@NEffectUpdateDecorator@@@std@@@std@@AAEXXZ ; std::vector<NEffectUpdateDecorator::CTextureAnimationCWDecorator *,std::allocator<NEffectUpdateDecorator::CTextureAnimationCWDecorator *> >::_Tidy
PUBLIC	??_G?$CDynamicPoolEx@VCTextureAnimationCWDecorator@NEffectUpdateDecorator@@@@UAEPAXI@Z ; CDynamicPoolEx<NEffectUpdateDecorator::CTextureAnimationCWDecorator>::`scalar deleting destructor'
PUBLIC	??0?$CDynamicPoolEx@VCNullDecorator@NEffectUpdateDecorator@@@@QAE@XZ ; CDynamicPoolEx<NEffectUpdateDecorator::CNullDecorator>::CDynamicPoolEx<NEffectUpdateDecorator::CNullDecorator>
PUBLIC	??1?$CDynamicPoolEx@VCNullDecorator@NEffectUpdateDecorator@@@@UAE@XZ ; CDynamicPoolEx<NEffectUpdateDecorator::CNullDecorator>::~CDynamicPoolEx<NEffectUpdateDecorator::CNullDecorator>
PUBLIC	?Destroy@?$CDynamicPoolEx@VCNullDecorator@NEffectUpdateDecorator@@@@QAEXXZ ; CDynamicPoolEx<NEffectUpdateDecorator::CNullDecorator>::Destroy
PUBLIC	?Delete@?$CDynamicPoolEx@VCNullDecorator@NEffectUpdateDecorator@@@@KAXPAVCNullDecorator@NEffectUpdateDecorator@@@Z ; CDynamicPoolEx<NEffectUpdateDecorator::CNullDecorator>::Delete
PUBLIC	?clear@?$vector@PAVCNullDecorator@NEffectUpdateDecorator@@V?$allocator@PAVCNullDecorator@NEffectUpdateDecorator@@@std@@@std@@QAEXXZ ; std::vector<NEffectUpdateDecorator::CNullDecorator *,std::allocator<NEffectUpdateDecorator::CNullDecorator *> >::clear
PUBLIC	?_Tidy@?$vector@PAVCNullDecorator@NEffectUpdateDecorator@@V?$allocator@PAVCNullDecorator@NEffectUpdateDecorator@@@std@@@std@@AAEXXZ ; std::vector<NEffectUpdateDecorator::CNullDecorator *,std::allocator<NEffectUpdateDecorator::CNullDecorator *> >::_Tidy
PUBLIC	??_G?$CDynamicPoolEx@VCNullDecorator@NEffectUpdateDecorator@@@@UAEPAXI@Z ; CDynamicPoolEx<NEffectUpdateDecorator::CNullDecorator>::`scalar deleting destructor'
PUBLIC	??0?$CDynamicPoolEx@VCHeaderDecorator@NEffectUpdateDecorator@@@@QAE@XZ ; CDynamicPoolEx<NEffectUpdateDecorator::CHeaderDecorator>::CDynamicPoolEx<NEffectUpdateDecorator::CHeaderDecorator>
PUBLIC	??1?$CDynamicPoolEx@VCHeaderDecorator@NEffectUpdateDecorator@@@@UAE@XZ ; CDynamicPoolEx<NEffectUpdateDecorator::CHeaderDecorator>::~CDynamicPoolEx<NEffectUpdateDecorator::CHeaderDecorator>
PUBLIC	?Destroy@?$CDynamicPoolEx@VCHeaderDecorator@NEffectUpdateDecorator@@@@QAEXXZ ; CDynamicPoolEx<NEffectUpdateDecorator::CHeaderDecorator>::Destroy
PUBLIC	?Delete@?$CDynamicPoolEx@VCHeaderDecorator@NEffectUpdateDecorator@@@@KAXPAVCHeaderDecorator@NEffectUpdateDecorator@@@Z ; CDynamicPoolEx<NEffectUpdateDecorator::CHeaderDecorator>::Delete
PUBLIC	?clear@?$vector@PAVCHeaderDecorator@NEffectUpdateDecorator@@V?$allocator@PAVCHeaderDecorator@NEffectUpdateDecorator@@@std@@@std@@QAEXXZ ; std::vector<NEffectUpdateDecorator::CHeaderDecorator *,std::allocator<NEffectUpdateDecorator::CHeaderDecorator *> >::clear
PUBLIC	?_Tidy@?$vector@PAVCHeaderDecorator@NEffectUpdateDecorator@@V?$allocator@PAVCHeaderDecorator@NEffectUpdateDecorator@@@std@@@std@@AAEXXZ ; std::vector<NEffectUpdateDecorator::CHeaderDecorator *,std::allocator<NEffectUpdateDecorator::CHeaderDecorator *> >::_Tidy
PUBLIC	??_G?$CDynamicPoolEx@VCHeaderDecorator@NEffectUpdateDecorator@@@@UAEPAXI@Z ; CDynamicPoolEx<NEffectUpdateDecorator::CHeaderDecorator>::`scalar deleting destructor'
PUBLIC	??$_Resize@U_Value_init_tag@std@@@?$vector@PAVCArea@@V?$allocator@PAVCArea@@@std@@@std@@AAEXIABU_Value_init_tag@1@@Z ; std::vector<CArea *,std::allocator<CArea *> >::_Resize<std::_Value_init_tag>
PUBLIC	??$emplace_back@ABQAVCArea@@@?$vector@PAVCArea@@V?$allocator@PAVCArea@@@std@@@std@@QAEXABQAVCArea@@@Z ; std::vector<CArea *,std::allocator<CArea *> >::emplace_back<CArea * const &>
PUBLIC	??$_Emplace_back_with_unused_capacity@ABQAVCArea@@@?$vector@PAVCArea@@V?$allocator@PAVCArea@@@std@@@std@@AAEXABQAVCArea@@@Z ; std::vector<CArea *,std::allocator<CArea *> >::_Emplace_back_with_unused_capacity<CArea * const &>
PUBLIC	??$_Emplace_reallocate@ABQAVCArea@@@?$vector@PAVCArea@@V?$allocator@PAVCArea@@@std@@@std@@QAEPAPAVCArea@@QAPAV2@ABQAV2@@Z ; std::vector<CArea *,std::allocator<CArea *> >::_Emplace_reallocate<CArea * const &>
PUBLIC	??$_Resize@U_Value_init_tag@std@@@?$vector@PAVCTerrain@@V?$allocator@PAVCTerrain@@@std@@@std@@AAEXIABU_Value_init_tag@1@@Z ; std::vector<CTerrain *,std::allocator<CTerrain *> >::_Resize<std::_Value_init_tag>
PUBLIC	??$emplace_back@ABQAVCTerrain@@@?$vector@PAVCTerrain@@V?$allocator@PAVCTerrain@@@std@@@std@@QAEXABQAVCTerrain@@@Z ; std::vector<CTerrain *,std::allocator<CTerrain *> >::emplace_back<CTerrain * const &>
PUBLIC	??$_Emplace_back_with_unused_capacity@ABQAVCTerrain@@@?$vector@PAVCTerrain@@V?$allocator@PAVCTerrain@@@std@@@std@@AAEXABQAVCTerrain@@@Z ; std::vector<CTerrain *,std::allocator<CTerrain *> >::_Emplace_back_with_unused_capacity<CTerrain * const &>
PUBLIC	??$_Emplace_reallocate@ABQAVCTerrain@@@?$vector@PAVCTerrain@@V?$allocator@PAVCTerrain@@@std@@@std@@QAEPAPAVCTerrain@@QAPAV2@ABQAV2@@Z ; std::vector<CTerrain *,std::allocator<CTerrain *> >::_Emplace_reallocate<CTerrain * const &>
PUBLIC	??$emplace_back@ABQAVCGraphicObjectInstance@@@?$vector@PAVCGraphicObjectInstance@@V?$allocator@PAVCGraphicObjectInstance@@@std@@@std@@QAEXABQAVCGraphicObjectInstance@@@Z ; std::vector<CGraphicObjectInstance *,std::allocator<CGraphicObjectInstance *> >::emplace_back<CGraphicObjectInstance * const &>
PUBLIC	??$_Emplace_back_with_unused_capacity@ABQAVCGraphicObjectInstance@@@?$vector@PAVCGraphicObjectInstance@@V?$allocator@PAVCGraphicObjectInstance@@@std@@@std@@AAEXABQAVCGraphicObjectInstance@@@Z ; std::vector<CGraphicObjectInstance *,std::allocator<CGraphicObjectInstance *> >::_Emplace_back_with_unused_capacity<CGraphicObjectInstance * const &>
PUBLIC	??$_Emplace_reallocate@ABQAVCGraphicObjectInstance@@@?$vector@PAVCGraphicObjectInstance@@V?$allocator@PAVCGraphicObjectInstance@@@std@@@std@@QAEPAPAVCGraphicObjectInstance@@QAPAV2@ABQAV2@@Z ; std::vector<CGraphicObjectInstance *,std::allocator<CGraphicObjectInstance *> >::_Emplace_reallocate<CGraphicObjectInstance * const &>
PUBLIC	??$_Destroy_range@V?$allocator@PAVCArea@@@std@@@std@@YAXPAPAVCArea@@QAPAV1@AAV?$allocator@PAVCArea@@@0@@Z ; std::_Destroy_range<std::allocator<CArea *> >
PUBLIC	??$_Destroy_range@V?$allocator@PAVCTerrain@@@std@@@std@@YAXPAPAVCTerrain@@QAPAV1@AAV?$allocator@PAVCTerrain@@@0@@Z ; std::_Destroy_range<std::allocator<CTerrain *> >
PUBLIC	??$_Destroy_range@V?$allocator@PAVCGraphicObjectInstance@@@std@@@std@@YAXPAPAVCGraphicObjectInstance@@QAPAV1@AAV?$allocator@PAVCGraphicObjectInstance@@@0@@Z ; std::_Destroy_range<std::allocator<CGraphicObjectInstance *> >
PUBLIC	??$for_each@V?$_Vector_iterator@V?$_Vector_val@U?$_Simple_types@PAVCHeaderDecorator@NEffectUpdateDecorator@@@std@@@std@@@std@@P6AXPAVCHeaderDecorator@NEffectUpdateDecorator@@@Z@std@@YAP6AXPAVCHeaderDecorator@NEffectUpdateDecorator@@@ZV?$_Vector_iterator@V?$_Vector_val@U?$_Simple_types@PAVCHeaderDecorator@NEffectUpdateDecorator@@@std@@@std@@@0@1P6AX0@Z@Z ; std::for_each<std::_Vector_iterator<std::_Vector_val<std::_Simple_types<NEffectUpdateDecorator::CHeaderDecorator *> > >,void (__cdecl*)(NEffectUpdateDecorator::CHeaderDecorator *)>
PUBLIC	??$for_each@V?$_Vector_iterator@V?$_Vector_val@U?$_Simple_types@PAVCNullDecorator@NEffectUpdateDecorator@@@std@@@std@@@std@@P6AXPAVCNullDecorator@NEffectUpdateDecorator@@@Z@std@@YAP6AXPAVCNullDecorator@NEffectUpdateDecorator@@@ZV?$_Vector_iterator@V?$_Vector_val@U?$_Simple_types@PAVCNullDecorator@NEffectUpdateDecorator@@@std@@@std@@@0@1P6AX0@Z@Z ; std::for_each<std::_Vector_iterator<std::_Vector_val<std::_Simple_types<NEffectUpdateDecorator::CNullDecorator *> > >,void (__cdecl*)(NEffectUpdateDecorator::CNullDecorator *)>
PUBLIC	??$for_each@V?$_Vector_iterator@V?$_Vector_val@U?$_Simple_types@PAVCTextureAnimationCWDecorator@NEffectUpdateDecorator@@@std@@@std@@@std@@P6AXPAVCTextureAnimationCWDecorator@NEffectUpdateDecorator@@@Z@std@@YAP6AXPAVCTextureAnimationCWDecorator@NEffectUpdateDecorator@@@ZV?$_Vector_iterator@V?$_Vector_val@U?$_Simple_types@PAVCTextureAnimationCWDecorator@NEffectUpdateDecorator@@@std@@@std@@@0@1P6AX0@Z@Z ; std::for_each<std::_Vector_iterator<std::_Vector_val<std::_Simple_types<NEffectUpdateDecorator::CTextureAnimationCWDecorator *> > >,void (__cdecl*)(NEffectUpdateDecorator::CTextureAnimationCWDecorator *)>
PUBLIC	??$for_each@V?$_Vector_iterator@V?$_Vector_val@U?$_Simple_types@PAVCTextureAnimationCCWDecorator@NEffectUpdateDecorator@@@std@@@std@@@std@@P6AXPAVCTextureAnimationCCWDecorator@NEffectUpdateDecorator@@@Z@std@@YAP6AXPAVCTextureAnimationCCWDecorator@NEffectUpdateDecorator@@@ZV?$_Vector_iterator@V?$_Vector_val@U?$_Simple_types@PAVCTextureAnimationCCWDecorator@NEffectUpdateDecorator@@@std@@@std@@@0@1P6AX0@Z@Z ; std::for_each<std::_Vector_iterator<std::_Vector_val<std::_Simple_types<NEffectUpdateDecorator::CTextureAnimationCCWDecorator *> > >,void (__cdecl*)(NEffectUpdateDecorator::CTextureAnimationCCWDecorator *)>
PUBLIC	??$for_each@V?$_Vector_iterator@V?$_Vector_val@U?$_Simple_types@PAVCTextureAnimationRandomDecorator@NEffectUpdateDecorator@@@std@@@std@@@std@@P6AXPAVCTextureAnimationRandomDecorator@NEffectUpdateDecorator@@@Z@std@@YAP6AXPAVCTextureAnimationRandomDecorator@NEffectUpdateDecorator@@@ZV?$_Vector_iterator@V?$_Vector_val@U?$_Simple_types@PAVCTextureAnimationRandomDecorator@NEffectUpdateDecorator@@@std@@@std@@@0@1P6AX0@Z@Z ; std::for_each<std::_Vector_iterator<std::_Vector_val<std::_Simple_types<NEffectUpdateDecorator::CTextureAnimationRandomDecorator *> > >,void (__cdecl*)(NEffectUpdateDecorator::CTextureAnimationRandomDecorator *)>
PUBLIC	??$for_each@V?$_Vector_iterator@V?$_Vector_val@U?$_Simple_types@PAVCAirResistanceDecorator@NEffectUpdateDecorator@@@std@@@std@@@std@@P6AXPAVCAirResistanceDecorator@NEffectUpdateDecorator@@@Z@std@@YAP6AXPAVCAirResistanceDecorator@NEffectUpdateDecorator@@@ZV?$_Vector_iterator@V?$_Vector_val@U?$_Simple_types@PAVCAirResistanceDecorator@NEffectUpdateDecorator@@@std@@@std@@@0@1P6AX0@Z@Z ; std::for_each<std::_Vector_iterator<std::_Vector_val<std::_Simple_types<NEffectUpdateDecorator::CAirResistanceDecorator *> > >,void (__cdecl*)(NEffectUpdateDecorator::CAirResistanceDecorator *)>
PUBLIC	??$for_each@V?$_Vector_iterator@V?$_Vector_val@U?$_Simple_types@PAVCGravityDecorator@NEffectUpdateDecorator@@@std@@@std@@@std@@P6AXPAVCGravityDecorator@NEffectUpdateDecorator@@@Z@std@@YAP6AXPAVCGravityDecorator@NEffectUpdateDecorator@@@ZV?$_Vector_iterator@V?$_Vector_val@U?$_Simple_types@PAVCGravityDecorator@NEffectUpdateDecorator@@@std@@@std@@@0@1P6AX0@Z@Z ; std::for_each<std::_Vector_iterator<std::_Vector_val<std::_Simple_types<NEffectUpdateDecorator::CGravityDecorator *> > >,void (__cdecl*)(NEffectUpdateDecorator::CGravityDecorator *)>
PUBLIC	??$for_each@V?$_Vector_iterator@V?$_Vector_val@U?$_Simple_types@PAVCRotationDecorator@NEffectUpdateDecorator@@@std@@@std@@@std@@P6AXPAVCRotationDecorator@NEffectUpdateDecorator@@@Z@std@@YAP6AXPAVCRotationDecorator@NEffectUpdateDecorator@@@ZV?$_Vector_iterator@V?$_Vector_val@U?$_Simple_types@PAVCRotationDecorator@NEffectUpdateDecorator@@@std@@@std@@@0@1P6AX0@Z@Z ; std::for_each<std::_Vector_iterator<std::_Vector_val<std::_Simple_types<NEffectUpdateDecorator::CRotationDecorator *> > >,void (__cdecl*)(NEffectUpdateDecorator::CRotationDecorator *)>
PUBLIC	??$_Destroy_range@V?$allocator@PAVCHeaderDecorator@NEffectUpdateDecorator@@@std@@@std@@YAXPAPAVCHeaderDecorator@NEffectUpdateDecorator@@QAPAV12@AAV?$allocator@PAVCHeaderDecorator@NEffectUpdateDecorator@@@0@@Z ; std::_Destroy_range<std::allocator<NEffectUpdateDecorator::CHeaderDecorator *> >
PUBLIC	??$_Destroy_range@V?$allocator@PAVCNullDecorator@NEffectUpdateDecorator@@@std@@@std@@YAXPAPAVCNullDecorator@NEffectUpdateDecorator@@QAPAV12@AAV?$allocator@PAVCNullDecorator@NEffectUpdateDecorator@@@0@@Z ; std::_Destroy_range<std::allocator<NEffectUpdateDecorator::CNullDecorator *> >
PUBLIC	??$_Destroy_range@V?$allocator@PAVCTextureAnimationCWDecorator@NEffectUpdateDecorator@@@std@@@std@@YAXPAPAVCTextureAnimationCWDecorator@NEffectUpdateDecorator@@QAPAV12@AAV?$allocator@PAVCTextureAnimationCWDecorator@NEffectUpdateDecorator@@@0@@Z ; std::_Destroy_range<std::allocator<NEffectUpdateDecorator::CTextureAnimationCWDecorator *> >
PUBLIC	??$_Destroy_range@V?$allocator@PAVCTextureAnimationCCWDecorator@NEffectUpdateDecorator@@@std@@@std@@YAXPAPAVCTextureAnimationCCWDecorator@NEffectUpdateDecorator@@QAPAV12@AAV?$allocator@PAVCTextureAnimationCCWDecorator@NEffectUpdateDecorator@@@0@@Z ; std::_Destroy_range<std::allocator<NEffectUpdateDecorator::CTextureAnimationCCWDecorator *> >
PUBLIC	??$_Destroy_range@V?$allocator@PAVCTextureAnimationRandomDecorator@NEffectUpdateDecorator@@@std@@@std@@YAXPAPAVCTextureAnimationRandomDecorator@NEffectUpdateDecorator@@QAPAV12@AAV?$allocator@PAVCTextureAnimationRandomDecorator@NEffectUpdateDecorator@@@0@@Z ; std::_Destroy_range<std::allocator<NEffectUpdateDecorator::CTextureAnimationRandomDecorator *> >
PUBLIC	??$_Destroy_range@V?$allocator@PAVCAirResistanceDecorator@NEffectUpdateDecorator@@@std@@@std@@YAXPAPAVCAirResistanceDecorator@NEffectUpdateDecorator@@QAPAV12@AAV?$allocator@PAVCAirResistanceDecorator@NEffectUpdateDecorator@@@0@@Z ; std::_Destroy_range<std::allocator<NEffectUpdateDecorator::CAirResistanceDecorator *> >
PUBLIC	??$_Destroy_range@V?$allocator@PAVCGravityDecorator@NEffectUpdateDecorator@@@std@@@std@@YAXPAPAVCGravityDecorator@NEffectUpdateDecorator@@QAPAV12@AAV?$allocator@PAVCGravityDecorator@NEffectUpdateDecorator@@@0@@Z ; std::_Destroy_range<std::allocator<NEffectUpdateDecorator::CGravityDecorator *> >
PUBLIC	??$_Destroy_range@V?$allocator@PAVCRotationDecorator@NEffectUpdateDecorator@@@std@@@std@@YAXPAPAVCRotationDecorator@NEffectUpdateDecorator@@QAPAV12@AAV?$allocator@PAVCRotationDecorator@NEffectUpdateDecorator@@@0@@Z ; std::_Destroy_range<std::allocator<NEffectUpdateDecorator::CRotationDecorator *> >
PUBLIC	??1?$RangeTester@UFGetShadowReceiverFromHeightData@@@@UAE@XZ ; RangeTester<FGetShadowReceiverFromHeightData>::~RangeTester<FGetShadowReceiverFromHeightData>
PUBLIC	?RayTraceCallback@?$RangeTester@UFGetShadowReceiverFromHeightData@@@@UAEXABVVector3d@@0M0PAVSpherePack@@@Z ; RangeTester<FGetShadowReceiverFromHeightData>::RayTraceCallback
PUBLIC	?VisibilityCallback@?$RangeTester@UFGetShadowReceiverFromHeightData@@@@UAEXABVFrustum@@PAVSpherePack@@W4ViewState@@@Z ; RangeTester<FGetShadowReceiverFromHeightData>::VisibilityCallback
PUBLIC	?RangeTestCallback@?$RangeTester@UFGetShadowReceiverFromHeightData@@@@UAEXABVVector3d@@MPAVSpherePack@@W4ViewState@@@Z ; RangeTester<FGetShadowReceiverFromHeightData>::RangeTestCallback
PUBLIC	?PointTest2dCallback@?$RangeTester@UFGetShadowReceiverFromHeightData@@@@UAEXABVVector3d@@PAVSpherePack@@W4ViewState@@@Z ; RangeTester<FGetShadowReceiverFromHeightData>::PointTest2dCallback
PUBLIC	??_G?$RangeTester@UFGetShadowReceiverFromHeightData@@@@UAEPAXI@Z ; RangeTester<FGetShadowReceiverFromHeightData>::`scalar deleting destructor'
PUBLIC	??$_Sort_unchecked@PAPAVCGraphicObjectInstance@@U?$_Ref_fn@UFPCBlockerDistanceSort@@@std@@@std@@YAXPAPAVCGraphicObjectInstance@@0HU?$_Ref_fn@UFPCBlockerDistanceSort@@@0@@Z ; std::_Sort_unchecked<CGraphicObjectInstance * *,std::_Ref_fn<FPCBlockerDistanceSort> >
PUBLIC	??1?$RangeTester@UFGetShadowReceiverFromCollisionData@@@@UAE@XZ ; RangeTester<FGetShadowReceiverFromCollisionData>::~RangeTester<FGetShadowReceiverFromCollisionData>
PUBLIC	?RayTraceCallback@?$RangeTester@UFGetShadowReceiverFromCollisionData@@@@UAEXABVVector3d@@0M0PAVSpherePack@@@Z ; RangeTester<FGetShadowReceiverFromCollisionData>::RayTraceCallback
PUBLIC	?VisibilityCallback@?$RangeTester@UFGetShadowReceiverFromCollisionData@@@@UAEXABVFrustum@@PAVSpherePack@@W4ViewState@@@Z ; RangeTester<FGetShadowReceiverFromCollisionData>::VisibilityCallback
PUBLIC	?RangeTestCallback@?$RangeTester@UFGetShadowReceiverFromCollisionData@@@@UAEXABVVector3d@@MPAVSpherePack@@W4ViewState@@@Z ; RangeTester<FGetShadowReceiverFromCollisionData>::RangeTestCallback
PUBLIC	?PointTest2dCallback@?$RangeTester@UFGetShadowReceiverFromCollisionData@@@@UAEXABVVector3d@@PAVSpherePack@@W4ViewState@@@Z ; RangeTester<FGetShadowReceiverFromCollisionData>::PointTest2dCallback
PUBLIC	??_G?$RangeTester@UFGetShadowReceiverFromCollisionData@@@@UAEPAXI@Z ; RangeTester<FGetShadowReceiverFromCollisionData>::`scalar deleting destructor'
PUBLIC	??$_Copy_memmove@PAPAVCArea@@PAPAV1@@std@@YAPAPAVCArea@@PAPAV1@00@Z ; std::_Copy_memmove<CArea * *,CArea * *>
PUBLIC	??$_Resize_reallocate@U_Value_init_tag@std@@@?$vector@PAVCArea@@V?$allocator@PAVCArea@@@std@@@std@@AAEXIABU_Value_init_tag@1@@Z ; std::vector<CArea *,std::allocator<CArea *> >::_Resize_reallocate<std::_Value_init_tag>
PUBLIC	??$_Copy_memmove@PAPAVCTerrain@@PAPAV1@@std@@YAPAPAVCTerrain@@PAPAV1@00@Z ; std::_Copy_memmove<CTerrain * *,CTerrain * *>
PUBLIC	??$_Resize_reallocate@U_Value_init_tag@std@@@?$vector@PAVCTerrain@@V?$allocator@PAVCTerrain@@@std@@@std@@AAEXIABU_Value_init_tag@1@@Z ; std::vector<CTerrain *,std::allocator<CTerrain *> >::_Resize_reallocate<std::_Value_init_tag>
PUBLIC	??$_Uninitialized_move@PAPAVCArea@@V?$allocator@PAVCArea@@@std@@@std@@YAPAPAVCArea@@QAPAV1@0PAPAV1@AAV?$allocator@PAVCArea@@@0@@Z ; std::_Uninitialized_move<CArea * *,std::allocator<CArea *> >
PUBLIC	??$_Uninitialized_value_construct_n@V?$allocator@PAVCArea@@@std@@@std@@YAPAPAVCArea@@PAPAV1@IAAV?$allocator@PAVCArea@@@0@@Z ; std::_Uninitialized_value_construct_n<std::allocator<CArea *> >
PUBLIC	??$_Uninitialized_move@PAPAVCTerrain@@V?$allocator@PAVCTerrain@@@std@@@std@@YAPAPAVCTerrain@@QAPAV1@0PAPAV1@AAV?$allocator@PAVCTerrain@@@0@@Z ; std::_Uninitialized_move<CTerrain * *,std::allocator<CTerrain *> >
PUBLIC	??$_Uninitialized_value_construct_n@V?$allocator@PAVCTerrain@@@std@@@std@@YAPAPAVCTerrain@@PAPAV1@IAAV?$allocator@PAVCTerrain@@@0@@Z ; std::_Uninitialized_value_construct_n<std::allocator<CTerrain *> >
PUBLIC	??$_Uninitialized_move@PAPAVCGraphicObjectInstance@@V?$allocator@PAVCGraphicObjectInstance@@@std@@@std@@YAPAPAVCGraphicObjectInstance@@QAPAV1@0PAPAV1@AAV?$allocator@PAVCGraphicObjectInstance@@@0@@Z ; std::_Uninitialized_move<CGraphicObjectInstance * *,std::allocator<CGraphicObjectInstance *> >
PUBLIC	??$_Insertion_sort_unchecked@PAPAVCGraphicObjectInstance@@U?$_Ref_fn@UFPCBlockerDistanceSort@@@std@@@std@@YAPAPAVCGraphicObjectInstance@@QAPAV1@0U?$_Ref_fn@UFPCBlockerDistanceSort@@@0@@Z ; std::_Insertion_sort_unchecked<CGraphicObjectInstance * *,std::_Ref_fn<FPCBlockerDistanceSort> >
PUBLIC	??$_Make_heap_unchecked@PAPAVCGraphicObjectInstance@@U?$_Ref_fn@UFPCBlockerDistanceSort@@@std@@@std@@YAXPAPAVCGraphicObjectInstance@@0U?$_Ref_fn@UFPCBlockerDistanceSort@@@0@@Z ; std::_Make_heap_unchecked<CGraphicObjectInstance * *,std::_Ref_fn<FPCBlockerDistanceSort> >
PUBLIC	??$_Partition_by_median_guess_unchecked@PAPAVCGraphicObjectInstance@@U?$_Ref_fn@UFPCBlockerDistanceSort@@@std@@@std@@YA?AU?$pair@PAPAVCGraphicObjectInstance@@PAPAV1@@0@PAPAVCGraphicObjectInstance@@0U?$_Ref_fn@UFPCBlockerDistanceSort@@@0@@Z ; std::_Partition_by_median_guess_unchecked<CGraphicObjectInstance * *,std::_Ref_fn<FPCBlockerDistanceSort> >
PUBLIC	??$_Zero_range@PAPAVCArea@@@std@@YAPAPAVCArea@@QAPAV1@0@Z ; std::_Zero_range<CArea * *>
PUBLIC	??$_Zero_range@PAPAVCTerrain@@@std@@YAPAPAVCTerrain@@QAPAV1@0@Z ; std::_Zero_range<CTerrain * *>
PUBLIC	??$_Copy_memmove@PAPAVCGraphicObjectInstance@@PAPAV1@@std@@YAPAPAVCGraphicObjectInstance@@PAPAV1@00@Z ; std::_Copy_memmove<CGraphicObjectInstance * *,CGraphicObjectInstance * *>
PUBLIC	??$_Refancy@PAPAVCArea@@$0A@@std@@YAPAPAVCArea@@PAPAV1@@Z ; std::_Refancy<CArea * *,0>
PUBLIC	??$_Refancy@PAPAVCTerrain@@$0A@@std@@YAPAPAVCTerrain@@PAPAV1@@Z ; std::_Refancy<CTerrain * *,0>
PUBLIC	??$_Refancy@PAPAVCGraphicObjectInstance@@$0A@@std@@YAPAPAVCGraphicObjectInstance@@PAPAV1@@Z ; std::_Refancy<CGraphicObjectInstance * *,0>
PUBLIC	??$_Pop_heap_hole_by_index@PAPAVCGraphicObjectInstance@@PAV1@U?$_Ref_fn@UFPCBlockerDistanceSort@@@std@@@std@@YAXPAPAVCGraphicObjectInstance@@HH$$QAPAV1@U?$_Ref_fn@UFPCBlockerDistanceSort@@@0@@Z ; std::_Pop_heap_hole_by_index<CGraphicObjectInstance * *,CGraphicObjectInstance *,std::_Ref_fn<FPCBlockerDistanceSort> >
PUBLIC	??$_Pop_heap_unchecked@PAPAVCGraphicObjectInstance@@U?$_Ref_fn@UFPCBlockerDistanceSort@@@std@@@std@@YAXPAPAVCGraphicObjectInstance@@0U?$_Ref_fn@UFPCBlockerDistanceSort@@@0@@Z ; std::_Pop_heap_unchecked<CGraphicObjectInstance * *,std::_Ref_fn<FPCBlockerDistanceSort> >
PUBLIC	??$_Guess_median_unchecked@PAPAVCGraphicObjectInstance@@U?$_Ref_fn@UFPCBlockerDistanceSort@@@std@@@std@@YAXPAPAVCGraphicObjectInstance@@00U?$_Ref_fn@UFPCBlockerDistanceSort@@@0@@Z ; std::_Guess_median_unchecked<CGraphicObjectInstance * *,std::_Ref_fn<FPCBlockerDistanceSort> >
PUBLIC	??$_Copy_backward_memmove@PAPAVCGraphicObjectInstance@@PAPAV1@@std@@YAPAPAVCGraphicObjectInstance@@PAPAV1@00@Z ; std::_Copy_backward_memmove<CGraphicObjectInstance * *,CGraphicObjectInstance * *>
PUBLIC	??$_Push_heap_by_index@PAPAVCGraphicObjectInstance@@PAV1@U?$_Ref_fn@UFPCBlockerDistanceSort@@@std@@@std@@YAXPAPAVCGraphicObjectInstance@@HH$$QAPAV1@U?$_Ref_fn@UFPCBlockerDistanceSort@@@0@@Z ; std::_Push_heap_by_index<CGraphicObjectInstance * *,CGraphicObjectInstance *,std::_Ref_fn<FPCBlockerDistanceSort> >
PUBLIC	??$_Med3_unchecked@PAPAVCGraphicObjectInstance@@U?$_Ref_fn@UFPCBlockerDistanceSort@@@std@@@std@@YAXPAPAVCGraphicObjectInstance@@00U?$_Ref_fn@UFPCBlockerDistanceSort@@@0@@Z ; std::_Med3_unchecked<CGraphicObjectInstance * *,std::_Ref_fn<FPCBlockerDistanceSort> >
PUBLIC	??_7exception@std@@6B@				; std::exception::`vftable'
PUBLIC	??_C@_0BC@EOODALEL@Unknown?5exception@		; `string'
PUBLIC	??_7bad_alloc@std@@6B@				; std::bad_alloc::`vftable'
PUBLIC	??_7bad_array_new_length@std@@6B@		; std::bad_array_new_length::`vftable'
PUBLIC	??_C@_0BF@KINCDENJ@bad?5array?5new?5length@	; `string'
PUBLIC	__TI3?AVbad_array_new_length@std@@
PUBLIC	__CTA3?AVbad_array_new_length@std@@
PUBLIC	??_R0?AVbad_array_new_length@std@@@8		; std::bad_array_new_length `RTTI Type Descriptor'
PUBLIC	__CT??_R0?AVbad_array_new_length@std@@@8??0bad_array_new_length@std@@QAE@ABV01@@Z12
PUBLIC	??_R0?AVbad_alloc@std@@@8			; std::bad_alloc `RTTI Type Descriptor'
PUBLIC	__CT??_R0?AVbad_alloc@std@@@8??0bad_alloc@std@@QAE@ABV01@@Z12
PUBLIC	??_R0?AVexception@std@@@8			; std::exception `RTTI Type Descriptor'
PUBLIC	__CT??_R0?AVexception@std@@@8??0exception@std@@QAE@ABV01@@Z12
PUBLIC	?ms_singleton@?$CSingleton@VCTimer@@@@0PAVCTimer@@A ; CSingleton<CTimer>::ms_singleton
PUBLIC	??_R4exception@std@@6B@				; std::exception::`RTTI Complete Object Locator'
PUBLIC	??_R3exception@std@@8				; std::exception::`RTTI Class Hierarchy Descriptor'
PUBLIC	??_R2exception@std@@8				; std::exception::`RTTI Base Class Array'
PUBLIC	??_R1A@?0A@EA@exception@std@@8			; std::exception::`RTTI Base Class Descriptor at (0,-1,0,64)'
PUBLIC	??_R4bad_alloc@std@@6B@				; std::bad_alloc::`RTTI Complete Object Locator'
PUBLIC	??_R3bad_alloc@std@@8				; std::bad_alloc::`RTTI Class Hierarchy Descriptor'
PUBLIC	??_R2bad_alloc@std@@8				; std::bad_alloc::`RTTI Base Class Array'
PUBLIC	??_R1A@?0A@EA@bad_alloc@std@@8			; std::bad_alloc::`RTTI Base Class Descriptor at (0,-1,0,64)'
PUBLIC	??_R4bad_array_new_length@std@@6B@		; std::bad_array_new_length::`RTTI Complete Object Locator'
PUBLIC	??_R3bad_array_new_length@std@@8		; std::bad_array_new_length::`RTTI Class Hierarchy Descriptor'
PUBLIC	??_R2bad_array_new_length@std@@8		; std::bad_array_new_length::`RTTI Base Class Array'
PUBLIC	??_R1A@?0A@EA@bad_array_new_length@std@@8	; std::bad_array_new_length::`RTTI Base Class Descriptor at (0,-1,0,64)'
PUBLIC	?ms_singleton@?$CSingleton@VCCameraManager@@@@0PAVCCameraManager@@A ; CSingleton<CCameraManager>::ms_singleton
PUBLIC	??_7SpherePackCallback@@6B@			; SpherePackCallback::`vftable'
PUBLIC	?ms_singleton@?$CSingleton@VCCullingManager@@@@0PAVCCullingManager@@A ; CSingleton<CCullingManager>::ms_singleton
PUBLIC	?ms_singleton@?$CSingleton@VCSpeedTreeForestDirectX8@@@@0PAVCSpeedTreeForestDirectX8@@A ; CSingleton<CSpeedTreeForestDirectX8>::ms_singleton
PUBLIC	?ms_kPool@?$CPooledObject@VCHeaderDecorator@NEffectUpdateDecorator@@@@1V?$CDynamicPoolEx@VCHeaderDecorator@NEffectUpdateDecorator@@@@A ; CPooledObject<NEffectUpdateDecorator::CHeaderDecorator>::ms_kPool
PUBLIC	?ms_kPool@?$CPooledObject@VCNullDecorator@NEffectUpdateDecorator@@@@1V?$CDynamicPoolEx@VCNullDecorator@NEffectUpdateDecorator@@@@A ; CPooledObject<NEffectUpdateDecorator::CNullDecorator>::ms_kPool
PUBLIC	?ms_kPool@?$CPooledObject@VCTextureAnimationCWDecorator@NEffectUpdateDecorator@@@@1V?$CDynamicPoolEx@VCTextureAnimationCWDecorator@NEffectUpdateDecorator@@@@A ; CPooledObject<NEffectUpdateDecorator::CTextureAnimationCWDecorator>::ms_kPool
PUBLIC	?ms_kPool@?$CPooledObject@VCTextureAnimationCCWDecorator@NEffectUpdateDecorator@@@@1V?$CDynamicPoolEx@VCTextureAnimationCCWDecorator@NEffectUpdateDecorator@@@@A ; CPooledObject<NEffectUpdateDecorator::CTextureAnimationCCWDecorator>::ms_kPool
PUBLIC	?ms_kPool@?$CPooledObject@VCTextureAnimationRandomDecorator@NEffectUpdateDecorator@@@@1V?$CDynamicPoolEx@VCTextureAnimationRandomDecorator@NEffectUpdateDecorator@@@@A ; CPooledObject<NEffectUpdateDecorator::CTextureAnimationRandomDecorator>::ms_kPool
PUBLIC	?ms_kPool@?$CPooledObject@VCAirResistanceDecorator@NEffectUpdateDecorator@@@@1V?$CDynamicPoolEx@VCAirResistanceDecorator@NEffectUpdateDecorator@@@@A ; CPooledObject<NEffectUpdateDecorator::CAirResistanceDecorator>::ms_kPool
PUBLIC	?ms_kPool@?$CPooledObject@VCGravityDecorator@NEffectUpdateDecorator@@@@1V?$CDynamicPoolEx@VCGravityDecorator@NEffectUpdateDecorator@@@@A ; CPooledObject<NEffectUpdateDecorator::CGravityDecorator>::ms_kPool
PUBLIC	?ms_kPool@?$CPooledObject@VCRotationDecorator@NEffectUpdateDecorator@@@@1V?$CDynamicPoolEx@VCRotationDecorator@NEffectUpdateDecorator@@@@A ; CPooledObject<NEffectUpdateDecorator::CRotationDecorator>::ms_kPool
PUBLIC	??_C@_0BK@IDOOHDBC@Update?3?3Load?5spent?5?$CFd?5ms?6@ ; `string'
PUBLIC	??_7?$RangeTester@UPCBlocker_SInstanceList@@@@6B@ ; RangeTester<PCBlocker_SInstanceList>::`vftable'
PUBLIC	??_C@_0BB@GFILMBNJ@Delete?5Terrain?5?6@		; `string'
PUBLIC	??_C@_0O@MNAKBLAF@Delete?5Area?5?6@		; `string'
PUBLIC	??_7?$CDynamicPoolEx@VCRotationDecorator@NEffectUpdateDecorator@@@@6B@ ; CDynamicPoolEx<NEffectUpdateDecorator::CRotationDecorator>::`vftable'
PUBLIC	??_7?$CDynamicPoolEx@VCGravityDecorator@NEffectUpdateDecorator@@@@6B@ ; CDynamicPoolEx<NEffectUpdateDecorator::CGravityDecorator>::`vftable'
PUBLIC	??_7?$CDynamicPoolEx@VCAirResistanceDecorator@NEffectUpdateDecorator@@@@6B@ ; CDynamicPoolEx<NEffectUpdateDecorator::CAirResistanceDecorator>::`vftable'
PUBLIC	??_7?$CDynamicPoolEx@VCTextureAnimationRandomDecorator@NEffectUpdateDecorator@@@@6B@ ; CDynamicPoolEx<NEffectUpdateDecorator::CTextureAnimationRandomDecorator>::`vftable'
PUBLIC	??_7?$CDynamicPoolEx@VCTextureAnimationCCWDecorator@NEffectUpdateDecorator@@@@6B@ ; CDynamicPoolEx<NEffectUpdateDecorator::CTextureAnimationCCWDecorator>::`vftable'
PUBLIC	??_7?$CDynamicPoolEx@VCTextureAnimationCWDecorator@NEffectUpdateDecorator@@@@6B@ ; CDynamicPoolEx<NEffectUpdateDecorator::CTextureAnimationCWDecorator>::`vftable'
PUBLIC	??_7?$CDynamicPoolEx@VCNullDecorator@NEffectUpdateDecorator@@@@6B@ ; CDynamicPoolEx<NEffectUpdateDecorator::CNullDecorator>::`vftable'
PUBLIC	??_7?$CDynamicPoolEx@VCHeaderDecorator@NEffectUpdateDecorator@@@@6B@ ; CDynamicPoolEx<NEffectUpdateDecorator::CHeaderDecorator>::`vftable'
PUBLIC	??_7?$RangeTester@UFGetShadowReceiverFromHeightData@@@@6B@ ; RangeTester<FGetShadowReceiverFromHeightData>::`vftable'
PUBLIC	??_7?$RangeTester@UFGetShadowReceiverFromCollisionData@@@@6B@ ; RangeTester<FGetShadowReceiverFromCollisionData>::`vftable'
PUBLIC	??_C@_0BA@FOIKENOD@vector?5too?5long@		; `string'
PUBLIC	??_R4SpherePackCallback@@6B@			; SpherePackCallback::`RTTI Complete Object Locator'
PUBLIC	??_R0?AVSpherePackCallback@@@8			; SpherePackCallback `RTTI Type Descriptor'
PUBLIC	??_R3SpherePackCallback@@8			; SpherePackCallback::`RTTI Class Hierarchy Descriptor'
PUBLIC	??_R2SpherePackCallback@@8			; SpherePackCallback::`RTTI Base Class Array'
PUBLIC	??_R1A@?0A@EA@SpherePackCallback@@8		; SpherePackCallback::`RTTI Base Class Descriptor at (0,-1,0,64)'
PUBLIC	??_R4?$CDynamicPoolEx@VCHeaderDecorator@NEffectUpdateDecorator@@@@6B@ ; CDynamicPoolEx<NEffectUpdateDecorator::CHeaderDecorator>::`RTTI Complete Object Locator'
PUBLIC	??_R0?AV?$CDynamicPoolEx@VCHeaderDecorator@NEffectUpdateDecorator@@@@@8 ; CDynamicPoolEx<NEffectUpdateDecorator::CHeaderDecorator> `RTTI Type Descriptor'
PUBLIC	??_R3?$CDynamicPoolEx@VCHeaderDecorator@NEffectUpdateDecorator@@@@8 ; CDynamicPoolEx<NEffectUpdateDecorator::CHeaderDecorator>::`RTTI Class Hierarchy Descriptor'
PUBLIC	??_R2?$CDynamicPoolEx@VCHeaderDecorator@NEffectUpdateDecorator@@@@8 ; CDynamicPoolEx<NEffectUpdateDecorator::CHeaderDecorator>::`RTTI Base Class Array'
PUBLIC	??_R1A@?0A@EA@?$CDynamicPoolEx@VCHeaderDecorator@NEffectUpdateDecorator@@@@8 ; CDynamicPoolEx<NEffectUpdateDecorator::CHeaderDecorator>::`RTTI Base Class Descriptor at (0,-1,0,64)'
PUBLIC	??_R4?$CDynamicPoolEx@VCNullDecorator@NEffectUpdateDecorator@@@@6B@ ; CDynamicPoolEx<NEffectUpdateDecorator::CNullDecorator>::`RTTI Complete Object Locator'
PUBLIC	??_R0?AV?$CDynamicPoolEx@VCNullDecorator@NEffectUpdateDecorator@@@@@8 ; CDynamicPoolEx<NEffectUpdateDecorator::CNullDecorator> `RTTI Type Descriptor'
PUBLIC	??_R3?$CDynamicPoolEx@VCNullDecorator@NEffectUpdateDecorator@@@@8 ; CDynamicPoolEx<NEffectUpdateDecorator::CNullDecorator>::`RTTI Class Hierarchy Descriptor'
PUBLIC	??_R2?$CDynamicPoolEx@VCNullDecorator@NEffectUpdateDecorator@@@@8 ; CDynamicPoolEx<NEffectUpdateDecorator::CNullDecorator>::`RTTI Base Class Array'
PUBLIC	??_R1A@?0A@EA@?$CDynamicPoolEx@VCNullDecorator@NEffectUpdateDecorator@@@@8 ; CDynamicPoolEx<NEffectUpdateDecorator::CNullDecorator>::`RTTI Base Class Descriptor at (0,-1,0,64)'
PUBLIC	??_R4?$CDynamicPoolEx@VCTextureAnimationCWDecorator@NEffectUpdateDecorator@@@@6B@ ; CDynamicPoolEx<NEffectUpdateDecorator::CTextureAnimationCWDecorator>::`RTTI Complete Object Locator'
PUBLIC	??_R0?AV?$CDynamicPoolEx@VCTextureAnimationCWDecorator@NEffectUpdateDecorator@@@@@8 ; CDynamicPoolEx<NEffectUpdateDecorator::CTextureAnimationCWDecorator> `RTTI Type Descriptor'
PUBLIC	??_R3?$CDynamicPoolEx@VCTextureAnimationCWDecorator@NEffectUpdateDecorator@@@@8 ; CDynamicPoolEx<NEffectUpdateDecorator::CTextureAnimationCWDecorator>::`RTTI Class Hierarchy Descriptor'
PUBLIC	??_R2?$CDynamicPoolEx@VCTextureAnimationCWDecorator@NEffectUpdateDecorator@@@@8 ; CDynamicPoolEx<NEffectUpdateDecorator::CTextureAnimationCWDecorator>::`RTTI Base Class Array'
PUBLIC	??_R1A@?0A@EA@?$CDynamicPoolEx@VCTextureAnimationCWDecorator@NEffectUpdateDecorator@@@@8 ; CDynamicPoolEx<NEffectUpdateDecorator::CTextureAnimationCWDecorator>::`RTTI Base Class Descriptor at (0,-1,0,64)'
PUBLIC	??_R4?$CDynamicPoolEx@VCTextureAnimationCCWDecorator@NEffectUpdateDecorator@@@@6B@ ; CDynamicPoolEx<NEffectUpdateDecorator::CTextureAnimationCCWDecorator>::`RTTI Complete Object Locator'
PUBLIC	??_R0?AV?$CDynamicPoolEx@VCTextureAnimationCCWDecorator@NEffectUpdateDecorator@@@@@8 ; CDynamicPoolEx<NEffectUpdateDecorator::CTextureAnimationCCWDecorator> `RTTI Type Descriptor'
PUBLIC	??_R3?$CDynamicPoolEx@VCTextureAnimationCCWDecorator@NEffectUpdateDecorator@@@@8 ; CDynamicPoolEx<NEffectUpdateDecorator::CTextureAnimationCCWDecorator>::`RTTI Class Hierarchy Descriptor'
PUBLIC	??_R2?$CDynamicPoolEx@VCTextureAnimationCCWDecorator@NEffectUpdateDecorator@@@@8 ; CDynamicPoolEx<NEffectUpdateDecorator::CTextureAnimationCCWDecorator>::`RTTI Base Class Array'
PUBLIC	??_R1A@?0A@EA@?$CDynamicPoolEx@VCTextureAnimationCCWDecorator@NEffectUpdateDecorator@@@@8 ; CDynamicPoolEx<NEffectUpdateDecorator::CTextureAnimationCCWDecorator>::`RTTI Base Class Descriptor at (0,-1,0,64)'
PUBLIC	??_R4?$CDynamicPoolEx@VCTextureAnimationRandomDecorator@NEffectUpdateDecorator@@@@6B@ ; CDynamicPoolEx<NEffectUpdateDecorator::CTextureAnimationRandomDecorator>::`RTTI Complete Object Locator'
PUBLIC	??_R0?AV?$CDynamicPoolEx@VCTextureAnimationRandomDecorator@NEffectUpdateDecorator@@@@@8 ; CDynamicPoolEx<NEffectUpdateDecorator::CTextureAnimationRandomDecorator> `RTTI Type Descriptor'
PUBLIC	??_R3?$CDynamicPoolEx@VCTextureAnimationRandomDecorator@NEffectUpdateDecorator@@@@8 ; CDynamicPoolEx<NEffectUpdateDecorator::CTextureAnimationRandomDecorator>::`RTTI Class Hierarchy Descriptor'
PUBLIC	??_R2?$CDynamicPoolEx@VCTextureAnimationRandomDecorator@NEffectUpdateDecorator@@@@8 ; CDynamicPoolEx<NEffectUpdateDecorator::CTextureAnimationRandomDecorator>::`RTTI Base Class Array'
PUBLIC	??_R1A@?0A@EA@?$CDynamicPoolEx@VCTextureAnimationRandomDecorator@NEffectUpdateDecorator@@@@8 ; CDynamicPoolEx<NEffectUpdateDecorator::CTextureAnimationRandomDecorator>::`RTTI Base Class Descriptor at (0,-1,0,64)'
PUBLIC	??_R4?$CDynamicPoolEx@VCAirResistanceDecorator@NEffectUpdateDecorator@@@@6B@ ; CDynamicPoolEx<NEffectUpdateDecorator::CAirResistanceDecorator>::`RTTI Complete Object Locator'
PUBLIC	??_R0?AV?$CDynamicPoolEx@VCAirResistanceDecorator@NEffectUpdateDecorator@@@@@8 ; CDynamicPoolEx<NEffectUpdateDecorator::CAirResistanceDecorator> `RTTI Type Descriptor'
PUBLIC	??_R3?$CDynamicPoolEx@VCAirResistanceDecorator@NEffectUpdateDecorator@@@@8 ; CDynamicPoolEx<NEffectUpdateDecorator::CAirResistanceDecorator>::`RTTI Class Hierarchy Descriptor'
PUBLIC	??_R2?$CDynamicPoolEx@VCAirResistanceDecorator@NEffectUpdateDecorator@@@@8 ; CDynamicPoolEx<NEffectUpdateDecorator::CAirResistanceDecorator>::`RTTI Base Class Array'
PUBLIC	??_R1A@?0A@EA@?$CDynamicPoolEx@VCAirResistanceDecorator@NEffectUpdateDecorator@@@@8 ; CDynamicPoolEx<NEffectUpdateDecorator::CAirResistanceDecorator>::`RTTI Base Class Descriptor at (0,-1,0,64)'
PUBLIC	??_R4?$CDynamicPoolEx@VCGravityDecorator@NEffectUpdateDecorator@@@@6B@ ; CDynamicPoolEx<NEffectUpdateDecorator::CGravityDecorator>::`RTTI Complete Object Locator'
PUBLIC	??_R0?AV?$CDynamicPoolEx@VCGravityDecorator@NEffectUpdateDecorator@@@@@8 ; CDynamicPoolEx<NEffectUpdateDecorator::CGravityDecorator> `RTTI Type Descriptor'
PUBLIC	??_R3?$CDynamicPoolEx@VCGravityDecorator@NEffectUpdateDecorator@@@@8 ; CDynamicPoolEx<NEffectUpdateDecorator::CGravityDecorator>::`RTTI Class Hierarchy Descriptor'
PUBLIC	??_R2?$CDynamicPoolEx@VCGravityDecorator@NEffectUpdateDecorator@@@@8 ; CDynamicPoolEx<NEffectUpdateDecorator::CGravityDecorator>::`RTTI Base Class Array'
PUBLIC	??_R1A@?0A@EA@?$CDynamicPoolEx@VCGravityDecorator@NEffectUpdateDecorator@@@@8 ; CDynamicPoolEx<NEffectUpdateDecorator::CGravityDecorator>::`RTTI Base Class Descriptor at (0,-1,0,64)'
PUBLIC	??_R4?$CDynamicPoolEx@VCRotationDecorator@NEffectUpdateDecorator@@@@6B@ ; CDynamicPoolEx<NEffectUpdateDecorator::CRotationDecorator>::`RTTI Complete Object Locator'
PUBLIC	??_R0?AV?$CDynamicPoolEx@VCRotationDecorator@NEffectUpdateDecorator@@@@@8 ; CDynamicPoolEx<NEffectUpdateDecorator::CRotationDecorator> `RTTI Type Descriptor'
PUBLIC	??_R3?$CDynamicPoolEx@VCRotationDecorator@NEffectUpdateDecorator@@@@8 ; CDynamicPoolEx<NEffectUpdateDecorator::CRotationDecorator>::`RTTI Class Hierarchy Descriptor'
PUBLIC	??_R2?$CDynamicPoolEx@VCRotationDecorator@NEffectUpdateDecorator@@@@8 ; CDynamicPoolEx<NEffectUpdateDecorator::CRotationDecorator>::`RTTI Base Class Array'
PUBLIC	??_R1A@?0A@EA@?$CDynamicPoolEx@VCRotationDecorator@NEffectUpdateDecorator@@@@8 ; CDynamicPoolEx<NEffectUpdateDecorator::CRotationDecorator>::`RTTI Base Class Descriptor at (0,-1,0,64)'
PUBLIC	??_R4?$RangeTester@UPCBlocker_SInstanceList@@@@6B@ ; RangeTester<PCBlocker_SInstanceList>::`RTTI Complete Object Locator'
PUBLIC	??_R0?AU?$RangeTester@UPCBlocker_SInstanceList@@@@@8 ; RangeTester<PCBlocker_SInstanceList> `RTTI Type Descriptor'
PUBLIC	??_R3?$RangeTester@UPCBlocker_SInstanceList@@@@8 ; RangeTester<PCBlocker_SInstanceList>::`RTTI Class Hierarchy Descriptor'
PUBLIC	??_R2?$RangeTester@UPCBlocker_SInstanceList@@@@8 ; RangeTester<PCBlocker_SInstanceList>::`RTTI Base Class Array'
PUBLIC	??_R1A@?0A@EA@?$RangeTester@UPCBlocker_SInstanceList@@@@8 ; RangeTester<PCBlocker_SInstanceList>::`RTTI Base Class Descriptor at (0,-1,0,64)'
PUBLIC	??_R4?$RangeTester@UFGetShadowReceiverFromHeightData@@@@6B@ ; RangeTester<FGetShadowReceiverFromHeightData>::`RTTI Complete Object Locator'
PUBLIC	??_R0?AU?$RangeTester@UFGetShadowReceiverFromHeightData@@@@@8 ; RangeTester<FGetShadowReceiverFromHeightData> `RTTI Type Descriptor'
PUBLIC	??_R3?$RangeTester@UFGetShadowReceiverFromHeightData@@@@8 ; RangeTester<FGetShadowReceiverFromHeightData>::`RTTI Class Hierarchy Descriptor'
PUBLIC	??_R2?$RangeTester@UFGetShadowReceiverFromHeightData@@@@8 ; RangeTester<FGetShadowReceiverFromHeightData>::`RTTI Base Class Array'
PUBLIC	??_R1A@?0A@EA@?$RangeTester@UFGetShadowReceiverFromHeightData@@@@8 ; RangeTester<FGetShadowReceiverFromHeightData>::`RTTI Base Class Descriptor at (0,-1,0,64)'
PUBLIC	??_R4?$RangeTester@UFGetShadowReceiverFromCollisionData@@@@6B@ ; RangeTester<FGetShadowReceiverFromCollisionData>::`RTTI Complete Object Locator'
PUBLIC	??_R0?AU?$RangeTester@UFGetShadowReceiverFromCollisionData@@@@@8 ; RangeTester<FGetShadowReceiverFromCollisionData> `RTTI Type Descriptor'
PUBLIC	??_R3?$RangeTester@UFGetShadowReceiverFromCollisionData@@@@8 ; RangeTester<FGetShadowReceiverFromCollisionData>::`RTTI Class Hierarchy Descriptor'
PUBLIC	??_R2?$RangeTester@UFGetShadowReceiverFromCollisionData@@@@8 ; RangeTester<FGetShadowReceiverFromCollisionData>::`RTTI Base Class Array'
PUBLIC	??_R1A@?0A@EA@?$RangeTester@UFGetShadowReceiverFromCollisionData@@@@8 ; RangeTester<FGetShadowReceiverFromCollisionData>::`RTTI Base Class Descriptor at (0,-1,0,64)'
PUBLIC	__real@3f000000
PUBLIC	__real@3f800000
PUBLIC	__real@3fddb22d
PUBLIC	__real@40000000
PUBLIC	__real@41200000
PUBLIC	__real@42480000
PUBLIC	__real@42c80000
PUBLIC	__real@bf800000
PUBLIC	__real@c05db22d
PUBLIC	__xmm@80000000800000008000000080000000
EXTRN	??2@YAPAXI@Z:PROC				; operator new
EXTRN	??3@YAXPAX@Z:PROC				; operator delete
EXTRN	??3@YAXPAXI@Z:PROC				; operator delete
EXTRN	_atexit:PROC
EXTRN	__Init_thread_header:PROC
EXTRN	__Init_thread_abort:PROC
EXTRN	__Init_thread_footer:PROC
EXTRN	__invalid_parameter_noinfo_noreturn:PROC
EXTRN	_memmove:PROC
EXTRN	_memset:PROC
EXTRN	__imp__timeGetTime@0:PROC
EXTRN	_sqrt:PROC
EXTRN	___std_exception_copy:PROC
EXTRN	___std_exception_destroy:PROC
EXTRN	??_Eexception@std@@UAEPAXI@Z:PROC		; std::exception::`vector deleting destructor'
EXTRN	??_Ebad_alloc@std@@UAEPAXI@Z:PROC		; std::bad_alloc::`vector deleting destructor'
EXTRN	??_Ebad_array_new_length@std@@UAEPAXI@Z:PROC	; std::bad_array_new_length::`vector deleting destructor'
EXTRN	?_Xlength_error@std@@YAXPBD@Z:PROC		; std::_Xlength_error
EXTRN	?MINMAX@@YAHHHH@Z:PROC				; MINMAX
EXTRN	?Trace@@YAXPBD@Z:PROC				; Trace
EXTRN	?Tracenf@@YAXPBDZZ:PROC				; Tracenf
EXTRN	?GetCurrentSecond@CTimer@@QAEMXZ:PROC		; CTimer::GetCurrentSecond
EXTRN	?ELTimer_GetMSec@@YAKXZ:PROC			; ELTimer_GetMSec
EXTRN	?GetCurrentCamera@CCameraManager@@QAEPAVCCamera@@XZ:PROC ; CCameraManager::GetCurrentCamera
EXTRN	??_ESpherePackCallback@@UAEPAXI@Z:PROC		; SpherePackCallback::`vector deleting destructor'
EXTRN	?RangeTest@SpherePackFactory@@QAEXABVVector3d@@MPAVSpherePackCallback@@@Z:PROC ; SpherePackFactory::RangeTest
EXTRN	?GetPosition@CGraphicObjectInstance@@QBEABUD3DXVECTOR3@@XZ:PROC ; CGraphicObjectInstance::GetPosition
EXTRN	?CollisionDynamicSphere@CGraphicObjectInstance@@QBE_NABUCDynamicSphereInstance@@@Z:PROC ; CGraphicObjectInstance::CollisionDynamicSphere
EXTRN	?GetObjectHeight@CGraphicObjectInstance@@QAE_NMMPAM@Z:PROC ; CGraphicObjectInstance::GetObjectHeight
EXTRN	?UpdateSystem@CSpeedTreeForest@@QAEXM@Z:PROC	; CSpeedTreeForest::UpdateSystem
EXTRN	?Update@CArea@@QAEXXZ:PROC			; CArea::Update
EXTRN	?UpdateAroundAmbience@CArea@@QAEXMMM@Z:PROC	; CArea::UpdateAroundAmbience
EXTRN	?GetCoordinate@CArea@@QAEXPAG0@Z:PROC		; CArea::GetCoordinate
EXTRN	?Delete@CArea@@SAXPAV1@@Z:PROC			; CArea::Delete
EXTRN	?GetTerrainPatchPtr@CTerrain@@QAEPAVCTerrainPatch@@EE@Z:PROC ; CTerrain::GetTerrainPatchPtr
EXTRN	?Delete@CTerrain@@SAXPAV1@@Z:PROC		; CTerrain::Delete
EXTRN	?AssignTerrainPtr@CMapOutdoor@@IAEXXZ:PROC	; CMapOutdoor::AssignTerrainPtr
EXTRN	?GetTerrainPointer@CMapOutdoor@@QAEHEPAPAVCTerrain@@@Z:PROC ; CMapOutdoor::GetTerrainPointer
EXTRN	?GetAreaPointer@CMapOutdoor@@QAEHEPAPAVCArea@@@Z:PROC ; CMapOutdoor::GetAreaPointer
EXTRN	?__HeightCache_Update@CMapOutdoor@@AAEXXZ:PROC	; CMapOutdoor::__HeightCache_Update
EXTRN	?IsBuilding@CActorInstance@@QAE_NXZ:PROC	; CActorInstance::IsBuilding
EXTRN	??_E?$RangeTester@UPCBlocker_SInstanceList@@@@UAEPAXI@Z:PROC ; RangeTester<PCBlocker_SInstanceList>::`vector deleting destructor'
EXTRN	??_E?$CDynamicPoolEx@VCRotationDecorator@NEffectUpdateDecorator@@@@UAEPAXI@Z:PROC ; CDynamicPoolEx<NEffectUpdateDecorator::CRotationDecorator>::`vector deleting destructor'
EXTRN	??_E?$CDynamicPoolEx@VCGravityDecorator@NEffectUpdateDecorator@@@@UAEPAXI@Z:PROC ; CDynamicPoolEx<NEffectUpdateDecorator::CGravityDecorator>::`vector deleting destructor'
EXTRN	??_E?$CDynamicPoolEx@VCAirResistanceDecorator@NEffectUpdateDecorator@@@@UAEPAXI@Z:PROC ; CDynamicPoolEx<NEffectUpdateDecorator::CAirResistanceDecorator>::`vector deleting destructor'
EXTRN	??_E?$CDynamicPoolEx@VCTextureAnimationRandomDecorator@NEffectUpdateDecorator@@@@UAEPAXI@Z:PROC ; CDynamicPoolEx<NEffectUpdateDecorator::CTextureAnimationRandomDecorator>::`vector deleting destructor'
EXTRN	??_E?$CDynamicPoolEx@VCTextureAnimationCCWDecorator@NEffectUpdateDecorator@@@@UAEPAXI@Z:PROC ; CDynamicPoolEx<NEffectUpdateDecorator::CTextureAnimationCCWDecorator>::`vector deleting destructor'
EXTRN	??_E?$CDynamicPoolEx@VCTextureAnimationCWDecorator@NEffectUpdateDecorator@@@@UAEPAXI@Z:PROC ; CDynamicPoolEx<NEffectUpdateDecorator::CTextureAnimationCWDecorator>::`vector deleting destructor'
EXTRN	??_E?$CDynamicPoolEx@VCNullDecorator@NEffectUpdateDecorator@@@@UAEPAXI@Z:PROC ; CDynamicPoolEx<NEffectUpdateDecorator::CNullDecorator>::`vector deleting destructor'
EXTRN	??_E?$CDynamicPoolEx@VCHeaderDecorator@NEffectUpdateDecorator@@@@UAEPAXI@Z:PROC ; CDynamicPoolEx<NEffectUpdateDecorator::CHeaderDecorator>::`vector deleting destructor'
EXTRN	??_E?$RangeTester@UFGetShadowReceiverFromHeightData@@@@UAEPAXI@Z:PROC ; RangeTester<FGetShadowReceiverFromHeightData>::`vector deleting destructor'
EXTRN	??_E?$RangeTester@UFGetShadowReceiverFromCollisionData@@@@UAEPAXI@Z:PROC ; RangeTester<FGetShadowReceiverFromCollisionData>::`vector deleting destructor'
EXTRN	@__security_check_cookie@4:PROC
EXTRN	__CxxThrowException@8:PROC
EXTRN	___CxxFrameHandler3:PROC
EXTRN	__Init_thread_epoch:DWORD
EXTRN	??_7type_info@@6B@:QWORD			; type_info::`vftable'
EXTRN	?PR_FCNV@@3MA:DWORD				; PR_FCNV
EXTRN	?PR_ICNV@@3JA:DWORD				; PR_ICNV
EXTRN	___security_cookie:DWORD
EXTRN	__fltused:DWORD
EXTRN	__tls_array:DWORD
EXTRN	__tls_index:DWORD
;	COMDAT ?ms_singleton@?$CSingleton@VCTimer@@@@0PAVCTimer@@A
_BSS	SEGMENT
?ms_singleton@?$CSingleton@VCTimer@@@@0PAVCTimer@@A DD 01H DUP (?) ; CSingleton<CTimer>::ms_singleton
_BSS	ENDS
;	COMDAT ?ms_singleton@?$CSingleton@VCCameraManager@@@@0PAVCCameraManager@@A
_BSS	SEGMENT
?ms_singleton@?$CSingleton@VCCameraManager@@@@0PAVCCameraManager@@A DD 01H DUP (?) ; CSingleton<CCameraManager>::ms_singleton
_BSS	ENDS
;	COMDAT ?ms_singleton@?$CSingleton@VCCullingManager@@@@0PAVCCullingManager@@A
_BSS	SEGMENT
?ms_singleton@?$CSingleton@VCCullingManager@@@@0PAVCCullingManager@@A DD 01H DUP (?) ; CSingleton<CCullingManager>::ms_singleton
_BSS	ENDS
;	COMDAT ?ms_singleton@?$CSingleton@VCSpeedTreeForestDirectX8@@@@0PAVCSpeedTreeForestDirectX8@@A
_BSS	SEGMENT
?ms_singleton@?$CSingleton@VCSpeedTreeForestDirectX8@@@@0PAVCSpeedTreeForestDirectX8@@A DD 01H DUP (?) ; CSingleton<CSpeedTreeForestDirectX8>::ms_singleton
_BSS	ENDS
;	COMDAT ?ms_kPool@?$CPooledObject@VCHeaderDecorator@NEffectUpdateDecorator@@@@1V?$CDynamicPoolEx@VCHeaderDecorator@NEffectUpdateDecorator@@@@A
_BSS	SEGMENT
?ms_kPool@?$CPooledObject@VCHeaderDecorator@NEffectUpdateDecorator@@@@1V?$CDynamicPoolEx@VCHeaderDecorator@NEffectUpdateDecorator@@@@A DB 024H DUP (?) ; CPooledObject<NEffectUpdateDecorator::CHeaderDecorator>::ms_kPool
_BSS	ENDS
;	COMDAT ?ms_kPool@?$CPooledObject@VCNullDecorator@NEffectUpdateDecorator@@@@1V?$CDynamicPoolEx@VCNullDecorator@NEffectUpdateDecorator@@@@A
_BSS	SEGMENT
?ms_kPool@?$CPooledObject@VCNullDecorator@NEffectUpdateDecorator@@@@1V?$CDynamicPoolEx@VCNullDecorator@NEffectUpdateDecorator@@@@A DB 024H DUP (?) ; CPooledObject<NEffectUpdateDecorator::CNullDecorator>::ms_kPool
_BSS	ENDS
;	COMDAT ?ms_kPool@?$CPooledObject@VCTextureAnimationCWDecorator@NEffectUpdateDecorator@@@@1V?$CDynamicPoolEx@VCTextureAnimationCWDecorator@NEffectUpdateDecorator@@@@A
_BSS	SEGMENT
?ms_kPool@?$CPooledObject@VCTextureAnimationCWDecorator@NEffectUpdateDecorator@@@@1V?$CDynamicPoolEx@VCTextureAnimationCWDecorator@NEffectUpdateDecorator@@@@A DB 024H DUP (?) ; CPooledObject<NEffectUpdateDecorator::CTextureAnimationCWDecorator>::ms_kPool
_BSS	ENDS
;	COMDAT ?ms_kPool@?$CPooledObject@VCTextureAnimationCCWDecorator@NEffectUpdateDecorator@@@@1V?$CDynamicPoolEx@VCTextureAnimationCCWDecorator@NEffectUpdateDecorator@@@@A
_BSS	SEGMENT
?ms_kPool@?$CPooledObject@VCTextureAnimationCCWDecorator@NEffectUpdateDecorator@@@@1V?$CDynamicPoolEx@VCTextureAnimationCCWDecorator@NEffectUpdateDecorator@@@@A DB 024H DUP (?) ; CPooledObject<NEffectUpdateDecorator::CTextureAnimationCCWDecorator>::ms_kPool
_BSS	ENDS
;	COMDAT ?ms_kPool@?$CPooledObject@VCTextureAnimationRandomDecorator@NEffectUpdateDecorator@@@@1V?$CDynamicPoolEx@VCTextureAnimationRandomDecorator@NEffectUpdateDecorator@@@@A
_BSS	SEGMENT
?ms_kPool@?$CPooledObject@VCTextureAnimationRandomDecorator@NEffectUpdateDecorator@@@@1V?$CDynamicPoolEx@VCTextureAnimationRandomDecorator@NEffectUpdateDecorator@@@@A DB 024H DUP (?) ; CPooledObject<NEffectUpdateDecorator::CTextureAnimationRandomDecorator>::ms_kPool
_BSS	ENDS
;	COMDAT ?ms_kPool@?$CPooledObject@VCAirResistanceDecorator@NEffectUpdateDecorator@@@@1V?$CDynamicPoolEx@VCAirResistanceDecorator@NEffectUpdateDecorator@@@@A
_BSS	SEGMENT
?ms_kPool@?$CPooledObject@VCAirResistanceDecorator@NEffectUpdateDecorator@@@@1V?$CDynamicPoolEx@VCAirResistanceDecorator@NEffectUpdateDecorator@@@@A DB 024H DUP (?) ; CPooledObject<NEffectUpdateDecorator::CAirResistanceDecorator>::ms_kPool
_BSS	ENDS
;	COMDAT ?ms_kPool@?$CPooledObject@VCGravityDecorator@NEffectUpdateDecorator@@@@1V?$CDynamicPoolEx@VCGravityDecorator@NEffectUpdateDecorator@@@@A
_BSS	SEGMENT
?ms_kPool@?$CPooledObject@VCGravityDecorator@NEffectUpdateDecorator@@@@1V?$CDynamicPoolEx@VCGravityDecorator@NEffectUpdateDecorator@@@@A DB 024H DUP (?) ; CPooledObject<NEffectUpdateDecorator::CGravityDecorator>::ms_kPool
_BSS	ENDS
;	COMDAT ?ms_kPool@?$CPooledObject@VCRotationDecorator@NEffectUpdateDecorator@@@@1V?$CDynamicPoolEx@VCRotationDecorator@NEffectUpdateDecorator@@@@A
_BSS	SEGMENT
?ms_kPool@?$CPooledObject@VCRotationDecorator@NEffectUpdateDecorator@@@@1V?$CDynamicPoolEx@VCRotationDecorator@NEffectUpdateDecorator@@@@A DB 024H DUP (?) ; CPooledObject<NEffectUpdateDecorator::CRotationDecorator>::ms_kPool
_BSS	ENDS
;	COMDAT ?dwEraseTime@?1??__UpdateGarvage@CMapOutdoor@@MAEXXZ@4KA
_BSS	SEGMENT
?dwEraseTime@?1??__UpdateGarvage@CMapOutdoor@@MAEXXZ@4KA DD 01H DUP (?) ; `CMapOutdoor::__UpdateGarvage'::`2'::dwEraseTime
_BSS	ENDS
;	COMDAT ?$TSS0@?1??__UpdateGarvage@CMapOutdoor@@MAEXXZ@4HA
_BSS	SEGMENT
?$TSS0@?1??__UpdateGarvage@CMapOutdoor@@MAEXXZ@4HA DD 01H DUP (?) ; `CMapOutdoor::__UpdateGarvage'::`2'::$TSS0
_BSS	ENDS
;	COMDAT CRT$XCU
CRT$XCU	SEGMENT
??ms_kPool$initializer$@?$CPooledObject@VCHeaderDecorator@NEffectUpdateDecorator@@@@1P6AXXZA@@3P6AXXZA DD FLAT:??__E?ms_kPool@?$CPooledObject@VCHeaderDecorator@NEffectUpdateDecorator@@@@1V?$CDynamicPoolEx@VCHeaderDecorator@NEffectUpdateDecorator@@@@A@@YAXXZ ; ??ms_kPool$initializer$@?$CPooledObject@VCHeaderDecorator@NEffectUpdateDecorator@@@@1P6AXXZA@@3P6AXXZA
CRT$XCU	ENDS
;	COMDAT __xmm@80000000800000008000000080000000
CONST	SEGMENT
__xmm@80000000800000008000000080000000 DB 00H, 00H, 00H, 080H, 00H, 00H, 00H
	DB	080H, 00H, 00H, 00H, 080H, 00H, 00H, 00H, 080H
CONST	ENDS
;	COMDAT __real@c05db22d
CONST	SEGMENT
__real@c05db22d DD 0c05db22dr			; -3.464
CONST	ENDS
;	COMDAT __real@bf800000
CONST	SEGMENT
__real@bf800000 DD 0bf800000r			; -1
CONST	ENDS
;	COMDAT __real@42c80000
CONST	SEGMENT
__real@42c80000 DD 042c80000r			; 100
CONST	ENDS
;	COMDAT __real@42480000
CONST	SEGMENT
__real@42480000 DD 042480000r			; 50
CONST	ENDS
;	COMDAT __real@41200000
CONST	SEGMENT
__real@41200000 DD 041200000r			; 10
CONST	ENDS
;	COMDAT __real@40000000
CONST	SEGMENT
__real@40000000 DD 040000000r			; 2
CONST	ENDS
;	COMDAT __real@3fddb22d
CONST	SEGMENT
__real@3fddb22d DD 03fddb22dr			; 1.732
CONST	ENDS
;	COMDAT __real@3f800000
CONST	SEGMENT
__real@3f800000 DD 03f800000r			; 1
CONST	ENDS
;	COMDAT __real@3f000000
CONST	SEGMENT
__real@3f000000 DD 03f000000r			; 0.5
CONST	ENDS
;	COMDAT ??_R1A@?0A@EA@?$RangeTester@UFGetShadowReceiverFromCollisionData@@@@8
rdata$r	SEGMENT
??_R1A@?0A@EA@?$RangeTester@UFGetShadowReceiverFromCollisionData@@@@8 DD FLAT:??_R0?AU?$RangeTester@UFGetShadowReceiverFromCollisionData@@@@@8 ; RangeTester<FGetShadowReceiverFromCollisionData>::`RTTI Base Class Descriptor at (0,-1,0,64)'
	DD	01H
	DD	00H
	DD	0ffffffffH
	DD	00H
	DD	040H
	DD	FLAT:??_R3?$RangeTester@UFGetShadowReceiverFromCollisionData@@@@8
rdata$r	ENDS
;	COMDAT ??_R2?$RangeTester@UFGetShadowReceiverFromCollisionData@@@@8
rdata$r	SEGMENT
??_R2?$RangeTester@UFGetShadowReceiverFromCollisionData@@@@8 DD FLAT:??_R1A@?0A@EA@?$RangeTester@UFGetShadowReceiverFromCollisionData@@@@8 ; RangeTester<FGetShadowReceiverFromCollisionData>::`RTTI Base Class Array'
	DD	FLAT:??_R1A@?0A@EA@SpherePackCallback@@8
rdata$r	ENDS
;	COMDAT ??_R3?$RangeTester@UFGetShadowReceiverFromCollisionData@@@@8
rdata$r	SEGMENT
??_R3?$RangeTester@UFGetShadowReceiverFromCollisionData@@@@8 DD 00H ; RangeTester<FGetShadowReceiverFromCollisionData>::`RTTI Class Hierarchy Descriptor'
	DD	00H
	DD	02H
	DD	FLAT:??_R2?$RangeTester@UFGetShadowReceiverFromCollisionData@@@@8
rdata$r	ENDS
;	COMDAT ??_R0?AU?$RangeTester@UFGetShadowReceiverFromCollisionData@@@@@8
data$rs	SEGMENT
??_R0?AU?$RangeTester@UFGetShadowReceiverFromCollisionData@@@@@8 DD FLAT:??_7type_info@@6B@ ; RangeTester<FGetShadowReceiverFromCollisionData> `RTTI Type Descriptor'
	DD	00H
	DB	'.?AU?$RangeTester@UFGetShadowReceiverFromCollisionData@@'
	DB	'@@', 00H
data$rs	ENDS
;	COMDAT ??_R4?$RangeTester@UFGetShadowReceiverFromCollisionData@@@@6B@
rdata$r	SEGMENT
??_R4?$RangeTester@UFGetShadowReceiverFromCollisionData@@@@6B@ DD 00H ; RangeTester<FGetShadowReceiverFromCollisionData>::`RTTI Complete Object Locator'
	DD	00H
	DD	00H
	DD	FLAT:??_R0?AU?$RangeTester@UFGetShadowReceiverFromCollisionData@@@@@8
	DD	FLAT:??_R3?$RangeTester@UFGetShadowReceiverFromCollisionData@@@@8
rdata$r	ENDS
;	COMDAT ??_R1A@?0A@EA@?$RangeTester@UFGetShadowReceiverFromHeightData@@@@8
rdata$r	SEGMENT
??_R1A@?0A@EA@?$RangeTester@UFGetShadowReceiverFromHeightData@@@@8 DD FLAT:??_R0?AU?$RangeTester@UFGetShadowReceiverFromHeightData@@@@@8 ; RangeTester<FGetShadowReceiverFromHeightData>::`RTTI Base Class Descriptor at (0,-1,0,64)'
	DD	01H
	DD	00H
	DD	0ffffffffH
	DD	00H
	DD	040H
	DD	FLAT:??_R3?$RangeTester@UFGetShadowReceiverFromHeightData@@@@8
rdata$r	ENDS
;	COMDAT ??_R2?$RangeTester@UFGetShadowReceiverFromHeightData@@@@8
rdata$r	SEGMENT
??_R2?$RangeTester@UFGetShadowReceiverFromHeightData@@@@8 DD FLAT:??_R1A@?0A@EA@?$RangeTester@UFGetShadowReceiverFromHeightData@@@@8 ; RangeTester<FGetShadowReceiverFromHeightData>::`RTTI Base Class Array'
	DD	FLAT:??_R1A@?0A@EA@SpherePackCallback@@8
rdata$r	ENDS
;	COMDAT ??_R3?$RangeTester@UFGetShadowReceiverFromHeightData@@@@8
rdata$r	SEGMENT
??_R3?$RangeTester@UFGetShadowReceiverFromHeightData@@@@8 DD 00H ; RangeTester<FGetShadowReceiverFromHeightData>::`RTTI Class Hierarchy Descriptor'
	DD	00H
	DD	02H
	DD	FLAT:??_R2?$RangeTester@UFGetShadowReceiverFromHeightData@@@@8
rdata$r	ENDS
;	COMDAT ??_R0?AU?$RangeTester@UFGetShadowReceiverFromHeightData@@@@@8
data$rs	SEGMENT
??_R0?AU?$RangeTester@UFGetShadowReceiverFromHeightData@@@@@8 DD FLAT:??_7type_info@@6B@ ; RangeTester<FGetShadowReceiverFromHeightData> `RTTI Type Descriptor'
	DD	00H
	DB	'.?AU?$RangeTester@UFGetShadowReceiverFromHeightData@@@@', 00H
data$rs	ENDS
;	COMDAT ??_R4?$RangeTester@UFGetShadowReceiverFromHeightData@@@@6B@
rdata$r	SEGMENT
??_R4?$RangeTester@UFGetShadowReceiverFromHeightData@@@@6B@ DD 00H ; RangeTester<FGetShadowReceiverFromHeightData>::`RTTI Complete Object Locator'
	DD	00H
	DD	00H
	DD	FLAT:??_R0?AU?$RangeTester@UFGetShadowReceiverFromHeightData@@@@@8
	DD	FLAT:??_R3?$RangeTester@UFGetShadowReceiverFromHeightData@@@@8
rdata$r	ENDS
;	COMDAT ??_R1A@?0A@EA@?$RangeTester@UPCBlocker_SInstanceList@@@@8
rdata$r	SEGMENT
??_R1A@?0A@EA@?$RangeTester@UPCBlocker_SInstanceList@@@@8 DD FLAT:??_R0?AU?$RangeTester@UPCBlocker_SInstanceList@@@@@8 ; RangeTester<PCBlocker_SInstanceList>::`RTTI Base Class Descriptor at (0,-1,0,64)'
	DD	01H
	DD	00H
	DD	0ffffffffH
	DD	00H
	DD	040H
	DD	FLAT:??_R3?$RangeTester@UPCBlocker_SInstanceList@@@@8
rdata$r	ENDS
;	COMDAT ??_R2?$RangeTester@UPCBlocker_SInstanceList@@@@8
rdata$r	SEGMENT
??_R2?$RangeTester@UPCBlocker_SInstanceList@@@@8 DD FLAT:??_R1A@?0A@EA@?$RangeTester@UPCBlocker_SInstanceList@@@@8 ; RangeTester<PCBlocker_SInstanceList>::`RTTI Base Class Array'
	DD	FLAT:??_R1A@?0A@EA@SpherePackCallback@@8
rdata$r	ENDS
;	COMDAT ??_R3?$RangeTester@UPCBlocker_SInstanceList@@@@8
rdata$r	SEGMENT
??_R3?$RangeTester@UPCBlocker_SInstanceList@@@@8 DD 00H	; RangeTester<PCBlocker_SInstanceList>::`RTTI Class Hierarchy Descriptor'
	DD	00H
	DD	02H
	DD	FLAT:??_R2?$RangeTester@UPCBlocker_SInstanceList@@@@8
rdata$r	ENDS
;	COMDAT ??_R0?AU?$RangeTester@UPCBlocker_SInstanceList@@@@@8
data$rs	SEGMENT
??_R0?AU?$RangeTester@UPCBlocker_SInstanceList@@@@@8 DD FLAT:??_7type_info@@6B@ ; RangeTester<PCBlocker_SInstanceList> `RTTI Type Descriptor'
	DD	00H
	DB	'.?AU?$RangeTester@UPCBlocker_SInstanceList@@@@', 00H
data$rs	ENDS
;	COMDAT ??_R4?$RangeTester@UPCBlocker_SInstanceList@@@@6B@
rdata$r	SEGMENT
??_R4?$RangeTester@UPCBlocker_SInstanceList@@@@6B@ DD 00H ; RangeTester<PCBlocker_SInstanceList>::`RTTI Complete Object Locator'
	DD	00H
	DD	00H
	DD	FLAT:??_R0?AU?$RangeTester@UPCBlocker_SInstanceList@@@@@8
	DD	FLAT:??_R3?$RangeTester@UPCBlocker_SInstanceList@@@@8
rdata$r	ENDS
;	COMDAT ??_R1A@?0A@EA@?$CDynamicPoolEx@VCRotationDecorator@NEffectUpdateDecorator@@@@8
rdata$r	SEGMENT
??_R1A@?0A@EA@?$CDynamicPoolEx@VCRotationDecorator@NEffectUpdateDecorator@@@@8 DD FLAT:??_R0?AV?$CDynamicPoolEx@VCRotationDecorator@NEffectUpdateDecorator@@@@@8 ; CDynamicPoolEx<NEffectUpdateDecorator::CRotationDecorator>::`RTTI Base Class Descriptor at (0,-1,0,64)'
	DD	00H
	DD	00H
	DD	0ffffffffH
	DD	00H
	DD	040H
	DD	FLAT:??_R3?$CDynamicPoolEx@VCRotationDecorator@NEffectUpdateDecorator@@@@8
rdata$r	ENDS
;	COMDAT ??_R2?$CDynamicPoolEx@VCRotationDecorator@NEffectUpdateDecorator@@@@8
rdata$r	SEGMENT
??_R2?$CDynamicPoolEx@VCRotationDecorator@NEffectUpdateDecorator@@@@8 DD FLAT:??_R1A@?0A@EA@?$CDynamicPoolEx@VCRotationDecorator@NEffectUpdateDecorator@@@@8 ; CDynamicPoolEx<NEffectUpdateDecorator::CRotationDecorator>::`RTTI Base Class Array'
rdata$r	ENDS
;	COMDAT ??_R3?$CDynamicPoolEx@VCRotationDecorator@NEffectUpdateDecorator@@@@8
rdata$r	SEGMENT
??_R3?$CDynamicPoolEx@VCRotationDecorator@NEffectUpdateDecorator@@@@8 DD 00H ; CDynamicPoolEx<NEffectUpdateDecorator::CRotationDecorator>::`RTTI Class Hierarchy Descriptor'
	DD	00H
	DD	01H
	DD	FLAT:??_R2?$CDynamicPoolEx@VCRotationDecorator@NEffectUpdateDecorator@@@@8
rdata$r	ENDS
;	COMDAT ??_R0?AV?$CDynamicPoolEx@VCRotationDecorator@NEffectUpdateDecorator@@@@@8
data$rs	SEGMENT
??_R0?AV?$CDynamicPoolEx@VCRotationDecorator@NEffectUpdateDecorator@@@@@8 DD FLAT:??_7type_info@@6B@ ; CDynamicPoolEx<NEffectUpdateDecorator::CRotationDecorator> `RTTI Type Descriptor'
	DD	00H
	DB	'.?AV?$CDynamicPoolEx@VCRotationDecorator@NEffectUpdateDe'
	DB	'corator@@@@', 00H
data$rs	ENDS
;	COMDAT ??_R4?$CDynamicPoolEx@VCRotationDecorator@NEffectUpdateDecorator@@@@6B@
rdata$r	SEGMENT
??_R4?$CDynamicPoolEx@VCRotationDecorator@NEffectUpdateDecorator@@@@6B@ DD 00H ; CDynamicPoolEx<NEffectUpdateDecorator::CRotationDecorator>::`RTTI Complete Object Locator'
	DD	00H
	DD	00H
	DD	FLAT:??_R0?AV?$CDynamicPoolEx@VCRotationDecorator@NEffectUpdateDecorator@@@@@8
	DD	FLAT:??_R3?$CDynamicPoolEx@VCRotationDecorator@NEffectUpdateDecorator@@@@8
rdata$r	ENDS
;	COMDAT ??_R1A@?0A@EA@?$CDynamicPoolEx@VCGravityDecorator@NEffectUpdateDecorator@@@@8
rdata$r	SEGMENT
??_R1A@?0A@EA@?$CDynamicPoolEx@VCGravityDecorator@NEffectUpdateDecorator@@@@8 DD FLAT:??_R0?AV?$CDynamicPoolEx@VCGravityDecorator@NEffectUpdateDecorator@@@@@8 ; CDynamicPoolEx<NEffectUpdateDecorator::CGravityDecorator>::`RTTI Base Class Descriptor at (0,-1,0,64)'
	DD	00H
	DD	00H
	DD	0ffffffffH
	DD	00H
	DD	040H
	DD	FLAT:??_R3?$CDynamicPoolEx@VCGravityDecorator@NEffectUpdateDecorator@@@@8
rdata$r	ENDS
;	COMDAT ??_R2?$CDynamicPoolEx@VCGravityDecorator@NEffectUpdateDecorator@@@@8
rdata$r	SEGMENT
??_R2?$CDynamicPoolEx@VCGravityDecorator@NEffectUpdateDecorator@@@@8 DD FLAT:??_R1A@?0A@EA@?$CDynamicPoolEx@VCGravityDecorator@NEffectUpdateDecorator@@@@8 ; CDynamicPoolEx<NEffectUpdateDecorator::CGravityDecorator>::`RTTI Base Class Array'
rdata$r	ENDS
;	COMDAT ??_R3?$CDynamicPoolEx@VCGravityDecorator@NEffectUpdateDecorator@@@@8
rdata$r	SEGMENT
??_R3?$CDynamicPoolEx@VCGravityDecorator@NEffectUpdateDecorator@@@@8 DD 00H ; CDynamicPoolEx<NEffectUpdateDecorator::CGravityDecorator>::`RTTI Class Hierarchy Descriptor'
	DD	00H
	DD	01H
	DD	FLAT:??_R2?$CDynamicPoolEx@VCGravityDecorator@NEffectUpdateDecorator@@@@8
rdata$r	ENDS
;	COMDAT ??_R0?AV?$CDynamicPoolEx@VCGravityDecorator@NEffectUpdateDecorator@@@@@8
data$rs	SEGMENT
??_R0?AV?$CDynamicPoolEx@VCGravityDecorator@NEffectUpdateDecorator@@@@@8 DD FLAT:??_7type_info@@6B@ ; CDynamicPoolEx<NEffectUpdateDecorator::CGravityDecorator> `RTTI Type Descriptor'
	DD	00H
	DB	'.?AV?$CDynamicPoolEx@VCGravityDecorator@NEffectUpdateDec'
	DB	'orator@@@@', 00H
data$rs	ENDS
;	COMDAT ??_R4?$CDynamicPoolEx@VCGravityDecorator@NEffectUpdateDecorator@@@@6B@
rdata$r	SEGMENT
??_R4?$CDynamicPoolEx@VCGravityDecorator@NEffectUpdateDecorator@@@@6B@ DD 00H ; CDynamicPoolEx<NEffectUpdateDecorator::CGravityDecorator>::`RTTI Complete Object Locator'
	DD	00H
	DD	00H
	DD	FLAT:??_R0?AV?$CDynamicPoolEx@VCGravityDecorator@NEffectUpdateDecorator@@@@@8
	DD	FLAT:??_R3?$CDynamicPoolEx@VCGravityDecorator@NEffectUpdateDecorator@@@@8
rdata$r	ENDS
;	COMDAT ??_R1A@?0A@EA@?$CDynamicPoolEx@VCAirResistanceDecorator@NEffectUpdateDecorator@@@@8
rdata$r	SEGMENT
??_R1A@?0A@EA@?$CDynamicPoolEx@VCAirResistanceDecorator@NEffectUpdateDecorator@@@@8 DD FLAT:??_R0?AV?$CDynamicPoolEx@VCAirResistanceDecorator@NEffectUpdateDecorator@@@@@8 ; CDynamicPoolEx<NEffectUpdateDecorator::CAirResistanceDecorator>::`RTTI Base Class Descriptor at (0,-1,0,64)'
	DD	00H
	DD	00H
	DD	0ffffffffH
	DD	00H
	DD	040H
	DD	FLAT:??_R3?$CDynamicPoolEx@VCAirResistanceDecorator@NEffectUpdateDecorator@@@@8
rdata$r	ENDS
;	COMDAT ??_R2?$CDynamicPoolEx@VCAirResistanceDecorator@NEffectUpdateDecorator@@@@8
rdata$r	SEGMENT
??_R2?$CDynamicPoolEx@VCAirResistanceDecorator@NEffectUpdateDecorator@@@@8 DD FLAT:??_R1A@?0A@EA@?$CDynamicPoolEx@VCAirResistanceDecorator@NEffectUpdateDecorator@@@@8 ; CDynamicPoolEx<NEffectUpdateDecorator::CAirResistanceDecorator>::`RTTI Base Class Array'
rdata$r	ENDS
;	COMDAT ??_R3?$CDynamicPoolEx@VCAirResistanceDecorator@NEffectUpdateDecorator@@@@8
rdata$r	SEGMENT
??_R3?$CDynamicPoolEx@VCAirResistanceDecorator@NEffectUpdateDecorator@@@@8 DD 00H ; CDynamicPoolEx<NEffectUpdateDecorator::CAirResistanceDecorator>::`RTTI Class Hierarchy Descriptor'
	DD	00H
	DD	01H
	DD	FLAT:??_R2?$CDynamicPoolEx@VCAirResistanceDecorator@NEffectUpdateDecorator@@@@8
rdata$r	ENDS
;	COMDAT ??_R0?AV?$CDynamicPoolEx@VCAirResistanceDecorator@NEffectUpdateDecorator@@@@@8
data$rs	SEGMENT
??_R0?AV?$CDynamicPoolEx@VCAirResistanceDecorator@NEffectUpdateDecorator@@@@@8 DD FLAT:??_7type_info@@6B@ ; CDynamicPoolEx<NEffectUpdateDecorator::CAirResistanceDecorator> `RTTI Type Descriptor'
	DD	00H
	DB	'.?AV?$CDynamicPoolEx@VCAirResistanceDecorator@NEffectUpd'
	DB	'ateDecorator@@@@', 00H
data$rs	ENDS
;	COMDAT ??_R4?$CDynamicPoolEx@VCAirResistanceDecorator@NEffectUpdateDecorator@@@@6B@
rdata$r	SEGMENT
??_R4?$CDynamicPoolEx@VCAirResistanceDecorator@NEffectUpdateDecorator@@@@6B@ DD 00H ; CDynamicPoolEx<NEffectUpdateDecorator::CAirResistanceDecorator>::`RTTI Complete Object Locator'
	DD	00H
	DD	00H
	DD	FLAT:??_R0?AV?$CDynamicPoolEx@VCAirResistanceDecorator@NEffectUpdateDecorator@@@@@8
	DD	FLAT:??_R3?$CDynamicPoolEx@VCAirResistanceDecorator@NEffectUpdateDecorator@@@@8
rdata$r	ENDS
;	COMDAT ??_R1A@?0A@EA@?$CDynamicPoolEx@VCTextureAnimationRandomDecorator@NEffectUpdateDecorator@@@@8
rdata$r	SEGMENT
??_R1A@?0A@EA@?$CDynamicPoolEx@VCTextureAnimationRandomDecorator@NEffectUpdateDecorator@@@@8 DD FLAT:??_R0?AV?$CDynamicPoolEx@VCTextureAnimationRandomDecorator@NEffectUpdateDecorator@@@@@8 ; CDynamicPoolEx<NEffectUpdateDecorator::CTextureAnimationRandomDecorator>::`RTTI Base Class Descriptor at (0,-1,0,64)'
	DD	00H
	DD	00H
	DD	0ffffffffH
	DD	00H
	DD	040H
	DD	FLAT:??_R3?$CDynamicPoolEx@VCTextureAnimationRandomDecorator@NEffectUpdateDecorator@@@@8
rdata$r	ENDS
;	COMDAT ??_R2?$CDynamicPoolEx@VCTextureAnimationRandomDecorator@NEffectUpdateDecorator@@@@8
rdata$r	SEGMENT
??_R2?$CDynamicPoolEx@VCTextureAnimationRandomDecorator@NEffectUpdateDecorator@@@@8 DD FLAT:??_R1A@?0A@EA@?$CDynamicPoolEx@VCTextureAnimationRandomDecorator@NEffectUpdateDecorator@@@@8 ; CDynamicPoolEx<NEffectUpdateDecorator::CTextureAnimationRandomDecorator>::`RTTI Base Class Array'
rdata$r	ENDS
;	COMDAT ??_R3?$CDynamicPoolEx@VCTextureAnimationRandomDecorator@NEffectUpdateDecorator@@@@8
rdata$r	SEGMENT
??_R3?$CDynamicPoolEx@VCTextureAnimationRandomDecorator@NEffectUpdateDecorator@@@@8 DD 00H ; CDynamicPoolEx<NEffectUpdateDecorator::CTextureAnimationRandomDecorator>::`RTTI Class Hierarchy Descriptor'
	DD	00H
	DD	01H
	DD	FLAT:??_R2?$CDynamicPoolEx@VCTextureAnimationRandomDecorator@NEffectUpdateDecorator@@@@8
rdata$r	ENDS
;	COMDAT ??_R0?AV?$CDynamicPoolEx@VCTextureAnimationRandomDecorator@NEffectUpdateDecorator@@@@@8
data$rs	SEGMENT
??_R0?AV?$CDynamicPoolEx@VCTextureAnimationRandomDecorator@NEffectUpdateDecorator@@@@@8 DD FLAT:??_7type_info@@6B@ ; CDynamicPoolEx<NEffectUpdateDecorator::CTextureAnimationRandomDecorator> `RTTI Type Descriptor'
	DD	00H
	DB	'.?AV?$CDynamicPoolEx@VCTextureAnimationRandomDecorator@N'
	DB	'EffectUpdateDecorator@@@@', 00H
data$rs	ENDS
;	COMDAT ??_R4?$CDynamicPoolEx@VCTextureAnimationRandomDecorator@NEffectUpdateDecorator@@@@6B@
rdata$r	SEGMENT
??_R4?$CDynamicPoolEx@VCTextureAnimationRandomDecorator@NEffectUpdateDecorator@@@@6B@ DD 00H ; CDynamicPoolEx<NEffectUpdateDecorator::CTextureAnimationRandomDecorator>::`RTTI Complete Object Locator'
	DD	00H
	DD	00H
	DD	FLAT:??_R0?AV?$CDynamicPoolEx@VCTextureAnimationRandomDecorator@NEffectUpdateDecorator@@@@@8
	DD	FLAT:??_R3?$CDynamicPoolEx@VCTextureAnimationRandomDecorator@NEffectUpdateDecorator@@@@8
rdata$r	ENDS
;	COMDAT ??_R1A@?0A@EA@?$CDynamicPoolEx@VCTextureAnimationCCWDecorator@NEffectUpdateDecorator@@@@8
rdata$r	SEGMENT
??_R1A@?0A@EA@?$CDynamicPoolEx@VCTextureAnimationCCWDecorator@NEffectUpdateDecorator@@@@8 DD FLAT:??_R0?AV?$CDynamicPoolEx@VCTextureAnimationCCWDecorator@NEffectUpdateDecorator@@@@@8 ; CDynamicPoolEx<NEffectUpdateDecorator::CTextureAnimationCCWDecorator>::`RTTI Base Class Descriptor at (0,-1,0,64)'
	DD	00H
	DD	00H
	DD	0ffffffffH
	DD	00H
	DD	040H
	DD	FLAT:??_R3?$CDynamicPoolEx@VCTextureAnimationCCWDecorator@NEffectUpdateDecorator@@@@8
rdata$r	ENDS
;	COMDAT ??_R2?$CDynamicPoolEx@VCTextureAnimationCCWDecorator@NEffectUpdateDecorator@@@@8
rdata$r	SEGMENT
??_R2?$CDynamicPoolEx@VCTextureAnimationCCWDecorator@NEffectUpdateDecorator@@@@8 DD FLAT:??_R1A@?0A@EA@?$CDynamicPoolEx@VCTextureAnimationCCWDecorator@NEffectUpdateDecorator@@@@8 ; CDynamicPoolEx<NEffectUpdateDecorator::CTextureAnimationCCWDecorator>::`RTTI Base Class Array'
rdata$r	ENDS
;	COMDAT ??_R3?$CDynamicPoolEx@VCTextureAnimationCCWDecorator@NEffectUpdateDecorator@@@@8
rdata$r	SEGMENT
??_R3?$CDynamicPoolEx@VCTextureAnimationCCWDecorator@NEffectUpdateDecorator@@@@8 DD 00H ; CDynamicPoolEx<NEffectUpdateDecorator::CTextureAnimationCCWDecorator>::`RTTI Class Hierarchy Descriptor'
	DD	00H
	DD	01H
	DD	FLAT:??_R2?$CDynamicPoolEx@VCTextureAnimationCCWDecorator@NEffectUpdateDecorator@@@@8
rdata$r	ENDS
;	COMDAT ??_R0?AV?$CDynamicPoolEx@VCTextureAnimationCCWDecorator@NEffectUpdateDecorator@@@@@8
data$rs	SEGMENT
??_R0?AV?$CDynamicPoolEx@VCTextureAnimationCCWDecorator@NEffectUpdateDecorator@@@@@8 DD FLAT:??_7type_info@@6B@ ; CDynamicPoolEx<NEffectUpdateDecorator::CTextureAnimationCCWDecorator> `RTTI Type Descriptor'
	DD	00H
	DB	'.?AV?$CDynamicPoolEx@VCTextureAnimationCCWDecorator@NEff'
	DB	'ectUpdateDecorator@@@@', 00H
data$rs	ENDS
;	COMDAT ??_R4?$CDynamicPoolEx@VCTextureAnimationCCWDecorator@NEffectUpdateDecorator@@@@6B@
rdata$r	SEGMENT
??_R4?$CDynamicPoolEx@VCTextureAnimationCCWDecorator@NEffectUpdateDecorator@@@@6B@ DD 00H ; CDynamicPoolEx<NEffectUpdateDecorator::CTextureAnimationCCWDecorator>::`RTTI Complete Object Locator'
	DD	00H
	DD	00H
	DD	FLAT:??_R0?AV?$CDynamicPoolEx@VCTextureAnimationCCWDecorator@NEffectUpdateDecorator@@@@@8
	DD	FLAT:??_R3?$CDynamicPoolEx@VCTextureAnimationCCWDecorator@NEffectUpdateDecorator@@@@8
rdata$r	ENDS
;	COMDAT ??_R1A@?0A@EA@?$CDynamicPoolEx@VCTextureAnimationCWDecorator@NEffectUpdateDecorator@@@@8
rdata$r	SEGMENT
??_R1A@?0A@EA@?$CDynamicPoolEx@VCTextureAnimationCWDecorator@NEffectUpdateDecorator@@@@8 DD FLAT:??_R0?AV?$CDynamicPoolEx@VCTextureAnimationCWDecorator@NEffectUpdateDecorator@@@@@8 ; CDynamicPoolEx<NEffectUpdateDecorator::CTextureAnimationCWDecorator>::`RTTI Base Class Descriptor at (0,-1,0,64)'
	DD	00H
	DD	00H
	DD	0ffffffffH
	DD	00H
	DD	040H
	DD	FLAT:??_R3?$CDynamicPoolEx@VCTextureAnimationCWDecorator@NEffectUpdateDecorator@@@@8
rdata$r	ENDS
;	COMDAT ??_R2?$CDynamicPoolEx@VCTextureAnimationCWDecorator@NEffectUpdateDecorator@@@@8
rdata$r	SEGMENT
??_R2?$CDynamicPoolEx@VCTextureAnimationCWDecorator@NEffectUpdateDecorator@@@@8 DD FLAT:??_R1A@?0A@EA@?$CDynamicPoolEx@VCTextureAnimationCWDecorator@NEffectUpdateDecorator@@@@8 ; CDynamicPoolEx<NEffectUpdateDecorator::CTextureAnimationCWDecorator>::`RTTI Base Class Array'
rdata$r	ENDS
;	COMDAT ??_R3?$CDynamicPoolEx@VCTextureAnimationCWDecorator@NEffectUpdateDecorator@@@@8
rdata$r	SEGMENT
??_R3?$CDynamicPoolEx@VCTextureAnimationCWDecorator@NEffectUpdateDecorator@@@@8 DD 00H ; CDynamicPoolEx<NEffectUpdateDecorator::CTextureAnimationCWDecorator>::`RTTI Class Hierarchy Descriptor'
	DD	00H
	DD	01H
	DD	FLAT:??_R2?$CDynamicPoolEx@VCTextureAnimationCWDecorator@NEffectUpdateDecorator@@@@8
rdata$r	ENDS
;	COMDAT ??_R0?AV?$CDynamicPoolEx@VCTextureAnimationCWDecorator@NEffectUpdateDecorator@@@@@8
data$rs	SEGMENT
??_R0?AV?$CDynamicPoolEx@VCTextureAnimationCWDecorator@NEffectUpdateDecorator@@@@@8 DD FLAT:??_7type_info@@6B@ ; CDynamicPoolEx<NEffectUpdateDecorator::CTextureAnimationCWDecorator> `RTTI Type Descriptor'
	DD	00H
	DB	'.?AV?$CDynamicPoolEx@VCTextureAnimationCWDecorator@NEffe'
	DB	'ctUpdateDecorator@@@@', 00H
data$rs	ENDS
;	COMDAT ??_R4?$CDynamicPoolEx@VCTextureAnimationCWDecorator@NEffectUpdateDecorator@@@@6B@
rdata$r	SEGMENT
??_R4?$CDynamicPoolEx@VCTextureAnimationCWDecorator@NEffectUpdateDecorator@@@@6B@ DD 00H ; CDynamicPoolEx<NEffectUpdateDecorator::CTextureAnimationCWDecorator>::`RTTI Complete Object Locator'
	DD	00H
	DD	00H
	DD	FLAT:??_R0?AV?$CDynamicPoolEx@VCTextureAnimationCWDecorator@NEffectUpdateDecorator@@@@@8
	DD	FLAT:??_R3?$CDynamicPoolEx@VCTextureAnimationCWDecorator@NEffectUpdateDecorator@@@@8
rdata$r	ENDS
;	COMDAT ??_R1A@?0A@EA@?$CDynamicPoolEx@VCNullDecorator@NEffectUpdateDecorator@@@@8
rdata$r	SEGMENT
??_R1A@?0A@EA@?$CDynamicPoolEx@VCNullDecorator@NEffectUpdateDecorator@@@@8 DD FLAT:??_R0?AV?$CDynamicPoolEx@VCNullDecorator@NEffectUpdateDecorator@@@@@8 ; CDynamicPoolEx<NEffectUpdateDecorator::CNullDecorator>::`RTTI Base Class Descriptor at (0,-1,0,64)'
	DD	00H
	DD	00H
	DD	0ffffffffH
	DD	00H
	DD	040H
	DD	FLAT:??_R3?$CDynamicPoolEx@VCNullDecorator@NEffectUpdateDecorator@@@@8
rdata$r	ENDS
;	COMDAT ??_R2?$CDynamicPoolEx@VCNullDecorator@NEffectUpdateDecorator@@@@8
rdata$r	SEGMENT
??_R2?$CDynamicPoolEx@VCNullDecorator@NEffectUpdateDecorator@@@@8 DD FLAT:??_R1A@?0A@EA@?$CDynamicPoolEx@VCNullDecorator@NEffectUpdateDecorator@@@@8 ; CDynamicPoolEx<NEffectUpdateDecorator::CNullDecorator>::`RTTI Base Class Array'
rdata$r	ENDS
;	COMDAT ??_R3?$CDynamicPoolEx@VCNullDecorator@NEffectUpdateDecorator@@@@8
rdata$r	SEGMENT
??_R3?$CDynamicPoolEx@VCNullDecorator@NEffectUpdateDecorator@@@@8 DD 00H ; CDynamicPoolEx<NEffectUpdateDecorator::CNullDecorator>::`RTTI Class Hierarchy Descriptor'
	DD	00H
	DD	01H
	DD	FLAT:??_R2?$CDynamicPoolEx@VCNullDecorator@NEffectUpdateDecorator@@@@8
rdata$r	ENDS
;	COMDAT ??_R0?AV?$CDynamicPoolEx@VCNullDecorator@NEffectUpdateDecorator@@@@@8
data$rs	SEGMENT
??_R0?AV?$CDynamicPoolEx@VCNullDecorator@NEffectUpdateDecorator@@@@@8 DD FLAT:??_7type_info@@6B@ ; CDynamicPoolEx<NEffectUpdateDecorator::CNullDecorator> `RTTI Type Descriptor'
	DD	00H
	DB	'.?AV?$CDynamicPoolEx@VCNullDecorator@NEffectUpdateDecora'
	DB	'tor@@@@', 00H
data$rs	ENDS
;	COMDAT ??_R4?$CDynamicPoolEx@VCNullDecorator@NEffectUpdateDecorator@@@@6B@
rdata$r	SEGMENT
??_R4?$CDynamicPoolEx@VCNullDecorator@NEffectUpdateDecorator@@@@6B@ DD 00H ; CDynamicPoolEx<NEffectUpdateDecorator::CNullDecorator>::`RTTI Complete Object Locator'
	DD	00H
	DD	00H
	DD	FLAT:??_R0?AV?$CDynamicPoolEx@VCNullDecorator@NEffectUpdateDecorator@@@@@8
	DD	FLAT:??_R3?$CDynamicPoolEx@VCNullDecorator@NEffectUpdateDecorator@@@@8
rdata$r	ENDS
;	COMDAT ??_R1A@?0A@EA@?$CDynamicPoolEx@VCHeaderDecorator@NEffectUpdateDecorator@@@@8
rdata$r	SEGMENT
??_R1A@?0A@EA@?$CDynamicPoolEx@VCHeaderDecorator@NEffectUpdateDecorator@@@@8 DD FLAT:??_R0?AV?$CDynamicPoolEx@VCHeaderDecorator@NEffectUpdateDecorator@@@@@8 ; CDynamicPoolEx<NEffectUpdateDecorator::CHeaderDecorator>::`RTTI Base Class Descriptor at (0,-1,0,64)'
	DD	00H
	DD	00H
	DD	0ffffffffH
	DD	00H
	DD	040H
	DD	FLAT:??_R3?$CDynamicPoolEx@VCHeaderDecorator@NEffectUpdateDecorator@@@@8
rdata$r	ENDS
;	COMDAT ??_R2?$CDynamicPoolEx@VCHeaderDecorator@NEffectUpdateDecorator@@@@8
rdata$r	SEGMENT
??_R2?$CDynamicPoolEx@VCHeaderDecorator@NEffectUpdateDecorator@@@@8 DD FLAT:??_R1A@?0A@EA@?$CDynamicPoolEx@VCHeaderDecorator@NEffectUpdateDecorator@@@@8 ; CDynamicPoolEx<NEffectUpdateDecorator::CHeaderDecorator>::`RTTI Base Class Array'
rdata$r	ENDS
;	COMDAT ??_R3?$CDynamicPoolEx@VCHeaderDecorator@NEffectUpdateDecorator@@@@8
rdata$r	SEGMENT
??_R3?$CDynamicPoolEx@VCHeaderDecorator@NEffectUpdateDecorator@@@@8 DD 00H ; CDynamicPoolEx<NEffectUpdateDecorator::CHeaderDecorator>::`RTTI Class Hierarchy Descriptor'
	DD	00H
	DD	01H
	DD	FLAT:??_R2?$CDynamicPoolEx@VCHeaderDecorator@NEffectUpdateDecorator@@@@8
rdata$r	ENDS
;	COMDAT ??_R0?AV?$CDynamicPoolEx@VCHeaderDecorator@NEffectUpdateDecorator@@@@@8
data$rs	SEGMENT
??_R0?AV?$CDynamicPoolEx@VCHeaderDecorator@NEffectUpdateDecorator@@@@@8 DD FLAT:??_7type_info@@6B@ ; CDynamicPoolEx<NEffectUpdateDecorator::CHeaderDecorator> `RTTI Type Descriptor'
	DD	00H
	DB	'.?AV?$CDynamicPoolEx@VCHeaderDecorator@NEffectUpdateDeco'
	DB	'rator@@@@', 00H
data$rs	ENDS
;	COMDAT ??_R4?$CDynamicPoolEx@VCHeaderDecorator@NEffectUpdateDecorator@@@@6B@
rdata$r	SEGMENT
??_R4?$CDynamicPoolEx@VCHeaderDecorator@NEffectUpdateDecorator@@@@6B@ DD 00H ; CDynamicPoolEx<NEffectUpdateDecorator::CHeaderDecorator>::`RTTI Complete Object Locator'
	DD	00H
	DD	00H
	DD	FLAT:??_R0?AV?$CDynamicPoolEx@VCHeaderDecorator@NEffectUpdateDecorator@@@@@8
	DD	FLAT:??_R3?$CDynamicPoolEx@VCHeaderDecorator@NEffectUpdateDecorator@@@@8
rdata$r	ENDS
;	COMDAT ??_R1A@?0A@EA@SpherePackCallback@@8
rdata$r	SEGMENT
??_R1A@?0A@EA@SpherePackCallback@@8 DD FLAT:??_R0?AVSpherePackCallback@@@8 ; SpherePackCallback::`RTTI Base Class Descriptor at (0,-1,0,64)'
	DD	00H
	DD	00H
	DD	0ffffffffH
	DD	00H
	DD	040H
	DD	FLAT:??_R3SpherePackCallback@@8
rdata$r	ENDS
;	COMDAT ??_R2SpherePackCallback@@8
rdata$r	SEGMENT
??_R2SpherePackCallback@@8 DD FLAT:??_R1A@?0A@EA@SpherePackCallback@@8 ; SpherePackCallback::`RTTI Base Class Array'
rdata$r	ENDS
;	COMDAT ??_R3SpherePackCallback@@8
rdata$r	SEGMENT
??_R3SpherePackCallback@@8 DD 00H			; SpherePackCallback::`RTTI Class Hierarchy Descriptor'
	DD	00H
	DD	01H
	DD	FLAT:??_R2SpherePackCallback@@8
rdata$r	ENDS
;	COMDAT ??_R0?AVSpherePackCallback@@@8
data$rs	SEGMENT
??_R0?AVSpherePackCallback@@@8 DD FLAT:??_7type_info@@6B@ ; SpherePackCallback `RTTI Type Descriptor'
	DD	00H
	DB	'.?AVSpherePackCallback@@', 00H
data$rs	ENDS
;	COMDAT ??_R4SpherePackCallback@@6B@
rdata$r	SEGMENT
??_R4SpherePackCallback@@6B@ DD 00H			; SpherePackCallback::`RTTI Complete Object Locator'
	DD	00H
	DD	00H
	DD	FLAT:??_R0?AVSpherePackCallback@@@8
	DD	FLAT:??_R3SpherePackCallback@@8
rdata$r	ENDS
;	COMDAT ??_C@_0BA@FOIKENOD@vector?5too?5long@
CONST	SEGMENT
??_C@_0BA@FOIKENOD@vector?5too?5long@ DB 'vector too long', 00H ; `string'
CONST	ENDS
;	COMDAT ??_7?$RangeTester@UFGetShadowReceiverFromCollisionData@@@@6B@
CONST	SEGMENT
??_7?$RangeTester@UFGetShadowReceiverFromCollisionData@@@@6B@ DD FLAT:??_R4?$RangeTester@UFGetShadowReceiverFromCollisionData@@@@6B@ ; RangeTester<FGetShadowReceiverFromCollisionData>::`vftable'
	DD	FLAT:??_E?$RangeTester@UFGetShadowReceiverFromCollisionData@@@@UAEPAXI@Z
	DD	FLAT:?VisibilityCallback@?$RangeTester@UFGetShadowReceiverFromCollisionData@@@@UAEXABVFrustum@@PAVSpherePack@@W4ViewState@@@Z
	DD	FLAT:?RayTraceCallback@?$RangeTester@UFGetShadowReceiverFromCollisionData@@@@UAEXABVVector3d@@0M0PAVSpherePack@@@Z
	DD	FLAT:?RangeTestCallback@?$RangeTester@UFGetShadowReceiverFromCollisionData@@@@UAEXABVVector3d@@MPAVSpherePack@@W4ViewState@@@Z
	DD	FLAT:?PointTest2dCallback@?$RangeTester@UFGetShadowReceiverFromCollisionData@@@@UAEXABVVector3d@@PAVSpherePack@@W4ViewState@@@Z
CONST	ENDS
;	COMDAT ??_7?$RangeTester@UFGetShadowReceiverFromHeightData@@@@6B@
CONST	SEGMENT
??_7?$RangeTester@UFGetShadowReceiverFromHeightData@@@@6B@ DD FLAT:??_R4?$RangeTester@UFGetShadowReceiverFromHeightData@@@@6B@ ; RangeTester<FGetShadowReceiverFromHeightData>::`vftable'
	DD	FLAT:??_E?$RangeTester@UFGetShadowReceiverFromHeightData@@@@UAEPAXI@Z
	DD	FLAT:?VisibilityCallback@?$RangeTester@UFGetShadowReceiverFromHeightData@@@@UAEXABVFrustum@@PAVSpherePack@@W4ViewState@@@Z
	DD	FLAT:?RayTraceCallback@?$RangeTester@UFGetShadowReceiverFromHeightData@@@@UAEXABVVector3d@@0M0PAVSpherePack@@@Z
	DD	FLAT:?RangeTestCallback@?$RangeTester@UFGetShadowReceiverFromHeightData@@@@UAEXABVVector3d@@MPAVSpherePack@@W4ViewState@@@Z
	DD	FLAT:?PointTest2dCallback@?$RangeTester@UFGetShadowReceiverFromHeightData@@@@UAEXABVVector3d@@PAVSpherePack@@W4ViewState@@@Z
CONST	ENDS
;	COMDAT ??_7?$CDynamicPoolEx@VCHeaderDecorator@NEffectUpdateDecorator@@@@6B@
CONST	SEGMENT
??_7?$CDynamicPoolEx@VCHeaderDecorator@NEffectUpdateDecorator@@@@6B@ DD FLAT:??_R4?$CDynamicPoolEx@VCHeaderDecorator@NEffectUpdateDecorator@@@@6B@ ; CDynamicPoolEx<NEffectUpdateDecorator::CHeaderDecorator>::`vftable'
	DD	FLAT:??_E?$CDynamicPoolEx@VCHeaderDecorator@NEffectUpdateDecorator@@@@UAEPAXI@Z
CONST	ENDS
;	COMDAT ??_7?$CDynamicPoolEx@VCNullDecorator@NEffectUpdateDecorator@@@@6B@
CONST	SEGMENT
??_7?$CDynamicPoolEx@VCNullDecorator@NEffectUpdateDecorator@@@@6B@ DD FLAT:??_R4?$CDynamicPoolEx@VCNullDecorator@NEffectUpdateDecorator@@@@6B@ ; CDynamicPoolEx<NEffectUpdateDecorator::CNullDecorator>::`vftable'
	DD	FLAT:??_E?$CDynamicPoolEx@VCNullDecorator@NEffectUpdateDecorator@@@@UAEPAXI@Z
CONST	ENDS
;	COMDAT ??_7?$CDynamicPoolEx@VCTextureAnimationCWDecorator@NEffectUpdateDecorator@@@@6B@
CONST	SEGMENT
??_7?$CDynamicPoolEx@VCTextureAnimationCWDecorator@NEffectUpdateDecorator@@@@6B@ DD FLAT:??_R4?$CDynamicPoolEx@VCTextureAnimationCWDecorator@NEffectUpdateDecorator@@@@6B@ ; CDynamicPoolEx<NEffectUpdateDecorator::CTextureAnimationCWDecorator>::`vftable'
	DD	FLAT:??_E?$CDynamicPoolEx@VCTextureAnimationCWDecorator@NEffectUpdateDecorator@@@@UAEPAXI@Z
CONST	ENDS
;	COMDAT ??_7?$CDynamicPoolEx@VCTextureAnimationCCWDecorator@NEffectUpdateDecorator@@@@6B@
CONST	SEGMENT
??_7?$CDynamicPoolEx@VCTextureAnimationCCWDecorator@NEffectUpdateDecorator@@@@6B@ DD FLAT:??_R4?$CDynamicPoolEx@VCTextureAnimationCCWDecorator@NEffectUpdateDecorator@@@@6B@ ; CDynamicPoolEx<NEffectUpdateDecorator::CTextureAnimationCCWDecorator>::`vftable'
	DD	FLAT:??_E?$CDynamicPoolEx@VCTextureAnimationCCWDecorator@NEffectUpdateDecorator@@@@UAEPAXI@Z
CONST	ENDS
;	COMDAT ??_7?$CDynamicPoolEx@VCTextureAnimationRandomDecorator@NEffectUpdateDecorator@@@@6B@
CONST	SEGMENT
??_7?$CDynamicPoolEx@VCTextureAnimationRandomDecorator@NEffectUpdateDecorator@@@@6B@ DD FLAT:??_R4?$CDynamicPoolEx@VCTextureAnimationRandomDecorator@NEffectUpdateDecorator@@@@6B@ ; CDynamicPoolEx<NEffectUpdateDecorator::CTextureAnimationRandomDecorator>::`vftable'
	DD	FLAT:??_E?$CDynamicPoolEx@VCTextureAnimationRandomDecorator@NEffectUpdateDecorator@@@@UAEPAXI@Z
CONST	ENDS
;	COMDAT ??_7?$CDynamicPoolEx@VCAirResistanceDecorator@NEffectUpdateDecorator@@@@6B@
CONST	SEGMENT
??_7?$CDynamicPoolEx@VCAirResistanceDecorator@NEffectUpdateDecorator@@@@6B@ DD FLAT:??_R4?$CDynamicPoolEx@VCAirResistanceDecorator@NEffectUpdateDecorator@@@@6B@ ; CDynamicPoolEx<NEffectUpdateDecorator::CAirResistanceDecorator>::`vftable'
	DD	FLAT:??_E?$CDynamicPoolEx@VCAirResistanceDecorator@NEffectUpdateDecorator@@@@UAEPAXI@Z
CONST	ENDS
;	COMDAT ??_7?$CDynamicPoolEx@VCGravityDecorator@NEffectUpdateDecorator@@@@6B@
CONST	SEGMENT
??_7?$CDynamicPoolEx@VCGravityDecorator@NEffectUpdateDecorator@@@@6B@ DD FLAT:??_R4?$CDynamicPoolEx@VCGravityDecorator@NEffectUpdateDecorator@@@@6B@ ; CDynamicPoolEx<NEffectUpdateDecorator::CGravityDecorator>::`vftable'
	DD	FLAT:??_E?$CDynamicPoolEx@VCGravityDecorator@NEffectUpdateDecorator@@@@UAEPAXI@Z
CONST	ENDS
;	COMDAT ??_7?$CDynamicPoolEx@VCRotationDecorator@NEffectUpdateDecorator@@@@6B@
CONST	SEGMENT
??_7?$CDynamicPoolEx@VCRotationDecorator@NEffectUpdateDecorator@@@@6B@ DD FLAT:??_R4?$CDynamicPoolEx@VCRotationDecorator@NEffectUpdateDecorator@@@@6B@ ; CDynamicPoolEx<NEffectUpdateDecorator::CRotationDecorator>::`vftable'
	DD	FLAT:??_E?$CDynamicPoolEx@VCRotationDecorator@NEffectUpdateDecorator@@@@UAEPAXI@Z
CONST	ENDS
;	COMDAT ??_C@_0O@MNAKBLAF@Delete?5Area?5?6@
CONST	SEGMENT
??_C@_0O@MNAKBLAF@Delete?5Area?5?6@ DB 'Delete Area ', 0aH, 00H ; `string'
CONST	ENDS
;	COMDAT ??_C@_0BB@GFILMBNJ@Delete?5Terrain?5?6@
CONST	SEGMENT
??_C@_0BB@GFILMBNJ@Delete?5Terrain?5?6@ DB 'Delete Terrain ', 0aH, 00H ; `string'
CONST	ENDS
;	COMDAT ??_7?$RangeTester@UPCBlocker_SInstanceList@@@@6B@
CONST	SEGMENT
??_7?$RangeTester@UPCBlocker_SInstanceList@@@@6B@ DD FLAT:??_R4?$RangeTester@UPCBlocker_SInstanceList@@@@6B@ ; RangeTester<PCBlocker_SInstanceList>::`vftable'
	DD	FLAT:??_E?$RangeTester@UPCBlocker_SInstanceList@@@@UAEPAXI@Z
	DD	FLAT:?VisibilityCallback@?$RangeTester@UPCBlocker_SInstanceList@@@@UAEXABVFrustum@@PAVSpherePack@@W4ViewState@@@Z
	DD	FLAT:?RayTraceCallback@?$RangeTester@UPCBlocker_SInstanceList@@@@UAEXABVVector3d@@0M0PAVSpherePack@@@Z
	DD	FLAT:?RangeTestCallback@?$RangeTester@UPCBlocker_SInstanceList@@@@UAEXABVVector3d@@MPAVSpherePack@@W4ViewState@@@Z
	DD	FLAT:?PointTest2dCallback@?$RangeTester@UPCBlocker_SInstanceList@@@@UAEXABVVector3d@@PAVSpherePack@@W4ViewState@@@Z
CONST	ENDS
;	COMDAT ??_C@_0BK@IDOOHDBC@Update?3?3Load?5spent?5?$CFd?5ms?6@
CONST	SEGMENT
??_C@_0BK@IDOOHDBC@Update?3?3Load?5spent?5?$CFd?5ms?6@ DB 'Update::Load s'
	DB	'pent %d ms', 0aH, 00H			; `string'
CONST	ENDS
;	COMDAT ??_7SpherePackCallback@@6B@
CONST	SEGMENT
??_7SpherePackCallback@@6B@ DD FLAT:??_R4SpherePackCallback@@6B@ ; SpherePackCallback::`vftable'
	DD	FLAT:??_ESpherePackCallback@@UAEPAXI@Z
	DD	FLAT:?VisibilityCallback@SpherePackCallback@@UAEXABVFrustum@@PAVSpherePack@@W4ViewState@@@Z
	DD	FLAT:?RayTraceCallback@SpherePackCallback@@UAEXABVVector3d@@0M0PAVSpherePack@@@Z
	DD	FLAT:?RangeTestCallback@SpherePackCallback@@UAEXABVVector3d@@MPAVSpherePack@@W4ViewState@@@Z
	DD	FLAT:?PointTest2dCallback@SpherePackCallback@@UAEXABVVector3d@@PAVSpherePack@@W4ViewState@@@Z
CONST	ENDS
;	COMDAT ??_R1A@?0A@EA@bad_array_new_length@std@@8
rdata$r	SEGMENT
??_R1A@?0A@EA@bad_array_new_length@std@@8 DD FLAT:??_R0?AVbad_array_new_length@std@@@8 ; std::bad_array_new_length::`RTTI Base Class Descriptor at (0,-1,0,64)'
	DD	02H
	DD	00H
	DD	0ffffffffH
	DD	00H
	DD	040H
	DD	FLAT:??_R3bad_array_new_length@std@@8
rdata$r	ENDS
;	COMDAT ??_R2bad_array_new_length@std@@8
rdata$r	SEGMENT
??_R2bad_array_new_length@std@@8 DD FLAT:??_R1A@?0A@EA@bad_array_new_length@std@@8 ; std::bad_array_new_length::`RTTI Base Class Array'
	DD	FLAT:??_R1A@?0A@EA@bad_alloc@std@@8
	DD	FLAT:??_R1A@?0A@EA@exception@std@@8
rdata$r	ENDS
;	COMDAT ??_R3bad_array_new_length@std@@8
rdata$r	SEGMENT
??_R3bad_array_new_length@std@@8 DD 00H			; std::bad_array_new_length::`RTTI Class Hierarchy Descriptor'
	DD	00H
	DD	03H
	DD	FLAT:??_R2bad_array_new_length@std@@8
rdata$r	ENDS
;	COMDAT ??_R4bad_array_new_length@std@@6B@
rdata$r	SEGMENT
??_R4bad_array_new_length@std@@6B@ DD 00H		; std::bad_array_new_length::`RTTI Complete Object Locator'
	DD	00H
	DD	00H
	DD	FLAT:??_R0?AVbad_array_new_length@std@@@8
	DD	FLAT:??_R3bad_array_new_length@std@@8
rdata$r	ENDS
;	COMDAT ??_R1A@?0A@EA@bad_alloc@std@@8
rdata$r	SEGMENT
??_R1A@?0A@EA@bad_alloc@std@@8 DD FLAT:??_R0?AVbad_alloc@std@@@8 ; std::bad_alloc::`RTTI Base Class Descriptor at (0,-1,0,64)'
	DD	01H
	DD	00H
	DD	0ffffffffH
	DD	00H
	DD	040H
	DD	FLAT:??_R3bad_alloc@std@@8
rdata$r	ENDS
;	COMDAT ??_R2bad_alloc@std@@8
rdata$r	SEGMENT
??_R2bad_alloc@std@@8 DD FLAT:??_R1A@?0A@EA@bad_alloc@std@@8 ; std::bad_alloc::`RTTI Base Class Array'
	DD	FLAT:??_R1A@?0A@EA@exception@std@@8
rdata$r	ENDS
;	COMDAT ??_R3bad_alloc@std@@8
rdata$r	SEGMENT
??_R3bad_alloc@std@@8 DD 00H				; std::bad_alloc::`RTTI Class Hierarchy Descriptor'
	DD	00H
	DD	02H
	DD	FLAT:??_R2bad_alloc@std@@8
rdata$r	ENDS
;	COMDAT ??_R4bad_alloc@std@@6B@
rdata$r	SEGMENT
??_R4bad_alloc@std@@6B@ DD 00H				; std::bad_alloc::`RTTI Complete Object Locator'
	DD	00H
	DD	00H
	DD	FLAT:??_R0?AVbad_alloc@std@@@8
	DD	FLAT:??_R3bad_alloc@std@@8
rdata$r	ENDS
;	COMDAT ??_R1A@?0A@EA@exception@std@@8
rdata$r	SEGMENT
??_R1A@?0A@EA@exception@std@@8 DD FLAT:??_R0?AVexception@std@@@8 ; std::exception::`RTTI Base Class Descriptor at (0,-1,0,64)'
	DD	00H
	DD	00H
	DD	0ffffffffH
	DD	00H
	DD	040H
	DD	FLAT:??_R3exception@std@@8
rdata$r	ENDS
;	COMDAT ??_R2exception@std@@8
rdata$r	SEGMENT
??_R2exception@std@@8 DD FLAT:??_R1A@?0A@EA@exception@std@@8 ; std::exception::`RTTI Base Class Array'
rdata$r	ENDS
;	COMDAT ??_R3exception@std@@8
rdata$r	SEGMENT
??_R3exception@std@@8 DD 00H				; std::exception::`RTTI Class Hierarchy Descriptor'
	DD	00H
	DD	01H
	DD	FLAT:??_R2exception@std@@8
rdata$r	ENDS
;	COMDAT ??_R4exception@std@@6B@
rdata$r	SEGMENT
??_R4exception@std@@6B@ DD 00H				; std::exception::`RTTI Complete Object Locator'
	DD	00H
	DD	00H
	DD	FLAT:??_R0?AVexception@std@@@8
	DD	FLAT:??_R3exception@std@@8
rdata$r	ENDS
;	COMDAT __CT??_R0?AVexception@std@@@8??0exception@std@@QAE@ABV01@@Z12
xdata$x	SEGMENT
__CT??_R0?AVexception@std@@@8??0exception@std@@QAE@ABV01@@Z12 DD 00H
	DD	FLAT:??_R0?AVexception@std@@@8
	DD	00H
	DD	0ffffffffH
	ORG $+4
	DD	0cH
	DD	FLAT:??0exception@std@@QAE@ABV01@@Z
xdata$x	ENDS
;	COMDAT ??_R0?AVexception@std@@@8
data$r	SEGMENT
??_R0?AVexception@std@@@8 DD FLAT:??_7type_info@@6B@	; std::exception `RTTI Type Descriptor'
	DD	00H
	DB	'.?AVexception@std@@', 00H
data$r	ENDS
;	COMDAT __CT??_R0?AVbad_alloc@std@@@8??0bad_alloc@std@@QAE@ABV01@@Z12
xdata$x	SEGMENT
__CT??_R0?AVbad_alloc@std@@@8??0bad_alloc@std@@QAE@ABV01@@Z12 DD 010H
	DD	FLAT:??_R0?AVbad_alloc@std@@@8
	DD	00H
	DD	0ffffffffH
	ORG $+4
	DD	0cH
	DD	FLAT:??0bad_alloc@std@@QAE@ABV01@@Z
xdata$x	ENDS
;	COMDAT ??_R0?AVbad_alloc@std@@@8
data$r	SEGMENT
??_R0?AVbad_alloc@std@@@8 DD FLAT:??_7type_info@@6B@	; std::bad_alloc `RTTI Type Descriptor'
	DD	00H
	DB	'.?AVbad_alloc@std@@', 00H
data$r	ENDS
;	COMDAT __CT??_R0?AVbad_array_new_length@std@@@8??0bad_array_new_length@std@@QAE@ABV01@@Z12
xdata$x	SEGMENT
__CT??_R0?AVbad_array_new_length@std@@@8??0bad_array_new_length@std@@QAE@ABV01@@Z12 DD 00H
	DD	FLAT:??_R0?AVbad_array_new_length@std@@@8
	DD	00H
	DD	0ffffffffH
	ORG $+4
	DD	0cH
	DD	FLAT:??0bad_array_new_length@std@@QAE@ABV01@@Z
xdata$x	ENDS
;	COMDAT ??_R0?AVbad_array_new_length@std@@@8
data$r	SEGMENT
??_R0?AVbad_array_new_length@std@@@8 DD FLAT:??_7type_info@@6B@ ; std::bad_array_new_length `RTTI Type Descriptor'
	DD	00H
	DB	'.?AVbad_array_new_length@std@@', 00H
data$r	ENDS
;	COMDAT __CTA3?AVbad_array_new_length@std@@
xdata$x	SEGMENT
__CTA3?AVbad_array_new_length@std@@ DD 03H
	DD	FLAT:__CT??_R0?AVbad_array_new_length@std@@@8??0bad_array_new_length@std@@QAE@ABV01@@Z12
	DD	FLAT:__CT??_R0?AVbad_alloc@std@@@8??0bad_alloc@std@@QAE@ABV01@@Z12
	DD	FLAT:__CT??_R0?AVexception@std@@@8??0exception@std@@QAE@ABV01@@Z12
xdata$x	ENDS
;	COMDAT __TI3?AVbad_array_new_length@std@@
xdata$x	SEGMENT
__TI3?AVbad_array_new_length@std@@ DD 00H
	DD	FLAT:??1bad_array_new_length@std@@UAE@XZ
	DD	00H
	DD	FLAT:__CTA3?AVbad_array_new_length@std@@
xdata$x	ENDS
;	COMDAT ??_C@_0BF@KINCDENJ@bad?5array?5new?5length@
CONST	SEGMENT
??_C@_0BF@KINCDENJ@bad?5array?5new?5length@ DB 'bad array new length', 00H ; `string'
CONST	ENDS
;	COMDAT ??_7bad_array_new_length@std@@6B@
CONST	SEGMENT
??_7bad_array_new_length@std@@6B@ DD FLAT:??_R4bad_array_new_length@std@@6B@ ; std::bad_array_new_length::`vftable'
	DD	FLAT:??_Ebad_array_new_length@std@@UAEPAXI@Z
	DD	FLAT:?what@exception@std@@UBEPBDXZ
CONST	ENDS
;	COMDAT ??_7bad_alloc@std@@6B@
CONST	SEGMENT
??_7bad_alloc@std@@6B@ DD FLAT:??_R4bad_alloc@std@@6B@	; std::bad_alloc::`vftable'
	DD	FLAT:??_Ebad_alloc@std@@UAEPAXI@Z
	DD	FLAT:?what@exception@std@@UBEPBDXZ
CONST	ENDS
;	COMDAT ??_C@_0BC@EOODALEL@Unknown?5exception@
CONST	SEGMENT
??_C@_0BC@EOODALEL@Unknown?5exception@ DB 'Unknown exception', 00H ; `string'
CONST	ENDS
;	COMDAT ??_7exception@std@@6B@
CONST	SEGMENT
??_7exception@std@@6B@ DD FLAT:??_R4exception@std@@6B@	; std::exception::`vftable'
	DD	FLAT:??_Eexception@std@@UAEPAXI@Z
	DD	FLAT:?what@exception@std@@UBEPBDXZ
CONST	ENDS
;	COMDAT xdata$x
xdata$x	SEGMENT
__catchsym$??$_Resize_reallocate@U_Value_init_tag@std@@@?$vector@PAVCTerrain@@V?$allocator@PAVCTerrain@@@std@@@std@@AAEXIABU_Value_init_tag@1@@Z$26 DD 040H
	DD	00H
	DD	00H
	DD	FLAT:__catch$??$_Resize_reallocate@U_Value_init_tag@std@@@?$vector@PAVCTerrain@@V?$allocator@PAVCTerrain@@@std@@@std@@AAEXIABU_Value_init_tag@1@@Z$0
__unwindtable$??$_Resize_reallocate@U_Value_init_tag@std@@@?$vector@PAVCTerrain@@V?$allocator@PAVCTerrain@@@std@@@std@@AAEXIABU_Value_init_tag@1@@Z DD 0ffffffffH
	DD	00H
	DD	0ffffffffH
	DD	00H
__tryblocktable$??$_Resize_reallocate@U_Value_init_tag@std@@@?$vector@PAVCTerrain@@V?$allocator@PAVCTerrain@@@std@@@std@@AAEXIABU_Value_init_tag@1@@Z DD 00H
	DD	00H
	DD	01H
	DD	01H
	DD	FLAT:__catchsym$??$_Resize_reallocate@U_Value_init_tag@std@@@?$vector@PAVCTerrain@@V?$allocator@PAVCTerrain@@@std@@@std@@AAEXIABU_Value_init_tag@1@@Z$26
__ehfuncinfo$??$_Resize_reallocate@U_Value_init_tag@std@@@?$vector@PAVCTerrain@@V?$allocator@PAVCTerrain@@@std@@@std@@AAEXIABU_Value_init_tag@1@@Z DD 019930522H
	DD	02H
	DD	FLAT:__unwindtable$??$_Resize_reallocate@U_Value_init_tag@std@@@?$vector@PAVCTerrain@@V?$allocator@PAVCTerrain@@@std@@@std@@AAEXIABU_Value_init_tag@1@@Z
	DD	01H
	DD	FLAT:__tryblocktable$??$_Resize_reallocate@U_Value_init_tag@std@@@?$vector@PAVCTerrain@@V?$allocator@PAVCTerrain@@@std@@@std@@AAEXIABU_Value_init_tag@1@@Z
	DD	2 DUP(00H)
	DD	00H
	DD	01H
xdata$x	ENDS
;	COMDAT xdata$x
xdata$x	SEGMENT
__catchsym$??$_Resize_reallocate@U_Value_init_tag@std@@@?$vector@PAVCArea@@V?$allocator@PAVCArea@@@std@@@std@@AAEXIABU_Value_init_tag@1@@Z$26 DD 040H
	DD	00H
	DD	00H
	DD	FLAT:__catch$??$_Resize_reallocate@U_Value_init_tag@std@@@?$vector@PAVCArea@@V?$allocator@PAVCArea@@@std@@@std@@AAEXIABU_Value_init_tag@1@@Z$0
__unwindtable$??$_Resize_reallocate@U_Value_init_tag@std@@@?$vector@PAVCArea@@V?$allocator@PAVCArea@@@std@@@std@@AAEXIABU_Value_init_tag@1@@Z DD 0ffffffffH
	DD	00H
	DD	0ffffffffH
	DD	00H
__tryblocktable$??$_Resize_reallocate@U_Value_init_tag@std@@@?$vector@PAVCArea@@V?$allocator@PAVCArea@@@std@@@std@@AAEXIABU_Value_init_tag@1@@Z DD 00H
	DD	00H
	DD	01H
	DD	01H
	DD	FLAT:__catchsym$??$_Resize_reallocate@U_Value_init_tag@std@@@?$vector@PAVCArea@@V?$allocator@PAVCArea@@@std@@@std@@AAEXIABU_Value_init_tag@1@@Z$26
__ehfuncinfo$??$_Resize_reallocate@U_Value_init_tag@std@@@?$vector@PAVCArea@@V?$allocator@PAVCArea@@@std@@@std@@AAEXIABU_Value_init_tag@1@@Z DD 019930522H
	DD	02H
	DD	FLAT:__unwindtable$??$_Resize_reallocate@U_Value_init_tag@std@@@?$vector@PAVCArea@@V?$allocator@PAVCArea@@@std@@@std@@AAEXIABU_Value_init_tag@1@@Z
	DD	01H
	DD	FLAT:__tryblocktable$??$_Resize_reallocate@U_Value_init_tag@std@@@?$vector@PAVCArea@@V?$allocator@PAVCArea@@@std@@@std@@AAEXIABU_Value_init_tag@1@@Z
	DD	2 DUP(00H)
	DD	00H
	DD	01H
xdata$x	ENDS
;	COMDAT xdata$x
xdata$x	SEGMENT
__catchsym$??$_Emplace_reallocate@ABQAVCGraphicObjectInstance@@@?$vector@PAVCGraphicObjectInstance@@V?$allocator@PAVCGraphicObjectInstance@@@std@@@std@@QAEPAPAVCGraphicObjectInstance@@QAPAV2@ABQAV2@@Z$32 DD 040H
	DD	00H
	DD	00H
	DD	FLAT:__catch$??$_Emplace_reallocate@ABQAVCGraphicObjectInstance@@@?$vector@PAVCGraphicObjectInstance@@V?$allocator@PAVCGraphicObjectInstance@@@std@@@std@@QAEPAPAVCGraphicObjectInstance@@QAPAV2@ABQAV2@@Z$0
__unwindtable$??$_Emplace_reallocate@ABQAVCGraphicObjectInstance@@@?$vector@PAVCGraphicObjectInstance@@V?$allocator@PAVCGraphicObjectInstance@@@std@@@std@@QAEPAPAVCGraphicObjectInstance@@QAPAV2@ABQAV2@@Z DD 0ffffffffH
	DD	00H
	DD	0ffffffffH
	DD	00H
__tryblocktable$??$_Emplace_reallocate@ABQAVCGraphicObjectInstance@@@?$vector@PAVCGraphicObjectInstance@@V?$allocator@PAVCGraphicObjectInstance@@@std@@@std@@QAEPAPAVCGraphicObjectInstance@@QAPAV2@ABQAV2@@Z DD 00H
	DD	00H
	DD	01H
	DD	01H
	DD	FLAT:__catchsym$??$_Emplace_reallocate@ABQAVCGraphicObjectInstance@@@?$vector@PAVCGraphicObjectInstance@@V?$allocator@PAVCGraphicObjectInstance@@@std@@@std@@QAEPAPAVCGraphicObjectInstance@@QAPAV2@ABQAV2@@Z$32
__ehfuncinfo$??$_Emplace_reallocate@ABQAVCGraphicObjectInstance@@@?$vector@PAVCGraphicObjectInstance@@V?$allocator@PAVCGraphicObjectInstance@@@std@@@std@@QAEPAPAVCGraphicObjectInstance@@QAPAV2@ABQAV2@@Z DD 019930522H
	DD	02H
	DD	FLAT:__unwindtable$??$_Emplace_reallocate@ABQAVCGraphicObjectInstance@@@?$vector@PAVCGraphicObjectInstance@@V?$allocator@PAVCGraphicObjectInstance@@@std@@@std@@QAEPAPAVCGraphicObjectInstance@@QAPAV2@ABQAV2@@Z
	DD	01H
	DD	FLAT:__tryblocktable$??$_Emplace_reallocate@ABQAVCGraphicObjectInstance@@@?$vector@PAVCGraphicObjectInstance@@V?$allocator@PAVCGraphicObjectInstance@@@std@@@std@@QAEPAPAVCGraphicObjectInstance@@QAPAV2@ABQAV2@@Z
	DD	2 DUP(00H)
	DD	00H
	DD	01H
xdata$x	ENDS
;	COMDAT xdata$x
xdata$x	SEGMENT
__catchsym$??$_Emplace_reallocate@ABQAVCTerrain@@@?$vector@PAVCTerrain@@V?$allocator@PAVCTerrain@@@std@@@std@@QAEPAPAVCTerrain@@QAPAV2@ABQAV2@@Z$32 DD 040H
	DD	00H
	DD	00H
	DD	FLAT:__catch$??$_Emplace_reallocate@ABQAVCTerrain@@@?$vector@PAVCTerrain@@V?$allocator@PAVCTerrain@@@std@@@std@@QAEPAPAVCTerrain@@QAPAV2@ABQAV2@@Z$0
__unwindtable$??$_Emplace_reallocate@ABQAVCTerrain@@@?$vector@PAVCTerrain@@V?$allocator@PAVCTerrain@@@std@@@std@@QAEPAPAVCTerrain@@QAPAV2@ABQAV2@@Z DD 0ffffffffH
	DD	00H
	DD	0ffffffffH
	DD	00H
__tryblocktable$??$_Emplace_reallocate@ABQAVCTerrain@@@?$vector@PAVCTerrain@@V?$allocator@PAVCTerrain@@@std@@@std@@QAEPAPAVCTerrain@@QAPAV2@ABQAV2@@Z DD 00H
	DD	00H
	DD	01H
	DD	01H
	DD	FLAT:__catchsym$??$_Emplace_reallocate@ABQAVCTerrain@@@?$vector@PAVCTerrain@@V?$allocator@PAVCTerrain@@@std@@@std@@QAEPAPAVCTerrain@@QAPAV2@ABQAV2@@Z$32
__ehfuncinfo$??$_Emplace_reallocate@ABQAVCTerrain@@@?$vector@PAVCTerrain@@V?$allocator@PAVCTerrain@@@std@@@std@@QAEPAPAVCTerrain@@QAPAV2@ABQAV2@@Z DD 019930522H
	DD	02H
	DD	FLAT:__unwindtable$??$_Emplace_reallocate@ABQAVCTerrain@@@?$vector@PAVCTerrain@@V?$allocator@PAVCTerrain@@@std@@@std@@QAEPAPAVCTerrain@@QAPAV2@ABQAV2@@Z
	DD	01H
	DD	FLAT:__tryblocktable$??$_Emplace_reallocate@ABQAVCTerrain@@@?$vector@PAVCTerrain@@V?$allocator@PAVCTerrain@@@std@@@std@@QAEPAPAVCTerrain@@QAPAV2@ABQAV2@@Z
	DD	2 DUP(00H)
	DD	00H
	DD	01H
xdata$x	ENDS
;	COMDAT xdata$x
xdata$x	SEGMENT
__catchsym$??$_Emplace_reallocate@ABQAVCArea@@@?$vector@PAVCArea@@V?$allocator@PAVCArea@@@std@@@std@@QAEPAPAVCArea@@QAPAV2@ABQAV2@@Z$32 DD 040H
	DD	00H
	DD	00H
	DD	FLAT:__catch$??$_Emplace_reallocate@ABQAVCArea@@@?$vector@PAVCArea@@V?$allocator@PAVCArea@@@std@@@std@@QAEPAPAVCArea@@QAPAV2@ABQAV2@@Z$0
__unwindtable$??$_Emplace_reallocate@ABQAVCArea@@@?$vector@PAVCArea@@V?$allocator@PAVCArea@@@std@@@std@@QAEPAPAVCArea@@QAPAV2@ABQAV2@@Z DD 0ffffffffH
	DD	00H
	DD	0ffffffffH
	DD	00H
__tryblocktable$??$_Emplace_reallocate@ABQAVCArea@@@?$vector@PAVCArea@@V?$allocator@PAVCArea@@@std@@@std@@QAEPAPAVCArea@@QAPAV2@ABQAV2@@Z DD 00H
	DD	00H
	DD	01H
	DD	01H
	DD	FLAT:__catchsym$??$_Emplace_reallocate@ABQAVCArea@@@?$vector@PAVCArea@@V?$allocator@PAVCArea@@@std@@@std@@QAEPAPAVCArea@@QAPAV2@ABQAV2@@Z$32
__ehfuncinfo$??$_Emplace_reallocate@ABQAVCArea@@@?$vector@PAVCArea@@V?$allocator@PAVCArea@@@std@@@std@@QAEPAPAVCArea@@QAPAV2@ABQAV2@@Z DD 019930522H
	DD	02H
	DD	FLAT:__unwindtable$??$_Emplace_reallocate@ABQAVCArea@@@?$vector@PAVCArea@@V?$allocator@PAVCArea@@@std@@@std@@QAEPAPAVCArea@@QAPAV2@ABQAV2@@Z
	DD	01H
	DD	FLAT:__tryblocktable$??$_Emplace_reallocate@ABQAVCArea@@@?$vector@PAVCArea@@V?$allocator@PAVCArea@@@std@@@std@@QAEPAPAVCArea@@QAPAV2@ABQAV2@@Z
	DD	2 DUP(00H)
	DD	00H
	DD	01H
xdata$x	ENDS
;	COMDAT xdata$x
xdata$x	SEGMENT
__ehfuncinfo$??1?$CDynamicPoolEx@VCHeaderDecorator@NEffectUpdateDecorator@@@@UAE@XZ DD 019930522H
	DD	00H
	DD	00H
	DD	2 DUP(00H)
	DD	2 DUP(00H)
	DD	00H
	DD	05H
xdata$x	ENDS
;	COMDAT xdata$x
xdata$x	SEGMENT
__ehfuncinfo$??1?$CDynamicPoolEx@VCNullDecorator@NEffectUpdateDecorator@@@@UAE@XZ DD 019930522H
	DD	00H
	DD	00H
	DD	2 DUP(00H)
	DD	2 DUP(00H)
	DD	00H
	DD	05H
xdata$x	ENDS
;	COMDAT xdata$x
xdata$x	SEGMENT
__ehfuncinfo$??1?$CDynamicPoolEx@VCTextureAnimationCWDecorator@NEffectUpdateDecorator@@@@UAE@XZ DD 019930522H
	DD	00H
	DD	00H
	DD	2 DUP(00H)
	DD	2 DUP(00H)
	DD	00H
	DD	05H
xdata$x	ENDS
;	COMDAT xdata$x
xdata$x	SEGMENT
__ehfuncinfo$??1?$CDynamicPoolEx@VCTextureAnimationCCWDecorator@NEffectUpdateDecorator@@@@UAE@XZ DD 019930522H
	DD	00H
	DD	00H
	DD	2 DUP(00H)
	DD	2 DUP(00H)
	DD	00H
	DD	05H
xdata$x	ENDS
;	COMDAT xdata$x
xdata$x	SEGMENT
__ehfuncinfo$??1?$CDynamicPoolEx@VCTextureAnimationRandomDecorator@NEffectUpdateDecorator@@@@UAE@XZ DD 019930522H
	DD	00H
	DD	00H
	DD	2 DUP(00H)
	DD	2 DUP(00H)
	DD	00H
	DD	05H
xdata$x	ENDS
;	COMDAT xdata$x
xdata$x	SEGMENT
__ehfuncinfo$??1?$CDynamicPoolEx@VCAirResistanceDecorator@NEffectUpdateDecorator@@@@UAE@XZ DD 019930522H
	DD	00H
	DD	00H
	DD	2 DUP(00H)
	DD	2 DUP(00H)
	DD	00H
	DD	05H
xdata$x	ENDS
;	COMDAT xdata$x
xdata$x	SEGMENT
__ehfuncinfo$??1?$CDynamicPoolEx@VCGravityDecorator@NEffectUpdateDecorator@@@@UAE@XZ DD 019930522H
	DD	00H
	DD	00H
	DD	2 DUP(00H)
	DD	2 DUP(00H)
	DD	00H
	DD	05H
xdata$x	ENDS
;	COMDAT xdata$x
xdata$x	SEGMENT
__ehfuncinfo$??1?$CDynamicPoolEx@VCRotationDecorator@NEffectUpdateDecorator@@@@UAE@XZ DD 019930522H
	DD	00H
	DD	00H
	DD	2 DUP(00H)
	DD	2 DUP(00H)
	DD	00H
	DD	05H
xdata$x	ENDS
;	COMDAT xdata$x
xdata$x	SEGMENT
__unwindtable$??$for_each@V?$_Vector_iterator@V?$_Vector_val@U?$_Simple_types@PAVCArea@@@std@@@std@@@std@@UFPushAreaToDeleteVector@CMapOutdoor@@@std@@YA?AUFPushAreaToDeleteVector@CMapOutdoor@@V?$_Vector_iterator@V?$_Vector_val@U?$_Simple_types@PAVCArea@@@std@@@std@@@0@0U12@@Z DD 0ffffffffH
	DD	FLAT:__unwindfunclet$??$for_each@V?$_Vector_iterator@V?$_Vector_val@U?$_Simple_types@PAVCArea@@@std@@@std@@@std@@UFPushAreaToDeleteVector@CMapOutdoor@@@std@@YA?AUFPushAreaToDeleteVector@CMapOutdoor@@V?$_Vector_iterator@V?$_Vector_val@U?$_Simple_types@PAVCArea@@@std@@@std@@@0@0U12@@Z$0
__ehfuncinfo$??$for_each@V?$_Vector_iterator@V?$_Vector_val@U?$_Simple_types@PAVCArea@@@std@@@std@@@std@@UFPushAreaToDeleteVector@CMapOutdoor@@@std@@YA?AUFPushAreaToDeleteVector@CMapOutdoor@@V?$_Vector_iterator@V?$_Vector_val@U?$_Simple_types@PAVCArea@@@std@@@std@@@0@0U12@@Z DD 019930522H
	DD	01H
	DD	FLAT:__unwindtable$??$for_each@V?$_Vector_iterator@V?$_Vector_val@U?$_Simple_types@PAVCArea@@@std@@@std@@@std@@UFPushAreaToDeleteVector@CMapOutdoor@@@std@@YA?AUFPushAreaToDeleteVector@CMapOutdoor@@V?$_Vector_iterator@V?$_Vector_val@U?$_Simple_types@PAVCArea@@@std@@@std@@@0@0U12@@Z
	DD	2 DUP(00H)
	DD	2 DUP(00H)
	DD	00H
	DD	01H
xdata$x	ENDS
;	COMDAT xdata$x
xdata$x	SEGMENT
__unwindtable$??$for_each@V?$_Vector_iterator@V?$_Vector_val@U?$_Simple_types@PAVCTerrain@@@std@@@std@@@std@@UFPushTerrainToDeleteVector@CMapOutdoor@@@std@@YA?AUFPushTerrainToDeleteVector@CMapOutdoor@@V?$_Vector_iterator@V?$_Vector_val@U?$_Simple_types@PAVCTerrain@@@std@@@std@@@0@0U12@@Z DD 0ffffffffH
	DD	FLAT:__unwindfunclet$??$for_each@V?$_Vector_iterator@V?$_Vector_val@U?$_Simple_types@PAVCTerrain@@@std@@@std@@@std@@UFPushTerrainToDeleteVector@CMapOutdoor@@@std@@YA?AUFPushTerrainToDeleteVector@CMapOutdoor@@V?$_Vector_iterator@V?$_Vector_val@U?$_Simple_types@PAVCTerrain@@@std@@@std@@@0@0U12@@Z$0
__ehfuncinfo$??$for_each@V?$_Vector_iterator@V?$_Vector_val@U?$_Simple_types@PAVCTerrain@@@std@@@std@@@std@@UFPushTerrainToDeleteVector@CMapOutdoor@@@std@@YA?AUFPushTerrainToDeleteVector@CMapOutdoor@@V?$_Vector_iterator@V?$_Vector_val@U?$_Simple_types@PAVCTerrain@@@std@@@std@@@0@0U12@@Z DD 019930522H
	DD	01H
	DD	FLAT:__unwindtable$??$for_each@V?$_Vector_iterator@V?$_Vector_val@U?$_Simple_types@PAVCTerrain@@@std@@@std@@@std@@UFPushTerrainToDeleteVector@CMapOutdoor@@@std@@YA?AUFPushTerrainToDeleteVector@CMapOutdoor@@V?$_Vector_iterator@V?$_Vector_val@U?$_Simple_types@PAVCTerrain@@@std@@@std@@@0@0U12@@Z
	DD	2 DUP(00H)
	DD	2 DUP(00H)
	DD	00H
	DD	01H
xdata$x	ENDS
;	COMDAT xdata$x
xdata$x	SEGMENT
__unwindtable$??$ForInRange@UFGetShadowReceiverFromCollisionData@@@CCullingManager@@QAEXABVVector3d@@MPAUFGetShadowReceiverFromCollisionData@@@Z DD 0ffffffffH
	DD	FLAT:__unwindfunclet$??$ForInRange@UFGetShadowReceiverFromCollisionData@@@CCullingManager@@QAEXABVVector3d@@MPAUFGetShadowReceiverFromCollisionData@@@Z$0
__ehfuncinfo$??$ForInRange@UFGetShadowReceiverFromCollisionData@@@CCullingManager@@QAEXABVVector3d@@MPAUFGetShadowReceiverFromCollisionData@@@Z DD 019930522H
	DD	01H
	DD	FLAT:__unwindtable$??$ForInRange@UFGetShadowReceiverFromCollisionData@@@CCullingManager@@QAEXABVVector3d@@MPAUFGetShadowReceiverFromCollisionData@@@Z
	DD	2 DUP(00H)
	DD	2 DUP(00H)
	DD	00H
	DD	01H
xdata$x	ENDS
;	COMDAT xdata$x
xdata$x	SEGMENT
__unwindtable$??$ForInRange@UFGetShadowReceiverFromHeightData@@@CCullingManager@@QAEXABVVector3d@@MPAUFGetShadowReceiverFromHeightData@@@Z DD 0ffffffffH
	DD	FLAT:__unwindfunclet$??$ForInRange@UFGetShadowReceiverFromHeightData@@@CCullingManager@@QAEXABVVector3d@@MPAUFGetShadowReceiverFromHeightData@@@Z$0
__ehfuncinfo$??$ForInRange@UFGetShadowReceiverFromHeightData@@@CCullingManager@@QAEXABVVector3d@@MPAUFGetShadowReceiverFromHeightData@@@Z DD 019930522H
	DD	01H
	DD	FLAT:__unwindtable$??$ForInRange@UFGetShadowReceiverFromHeightData@@@CCullingManager@@QAEXABVVector3d@@MPAUFGetShadowReceiverFromHeightData@@@Z
	DD	2 DUP(00H)
	DD	2 DUP(00H)
	DD	00H
	DD	01H
xdata$x	ENDS
;	COMDAT xdata$x
xdata$x	SEGMENT
__ehfuncinfo$?erase@?$vector@PAVCArea@@V?$allocator@PAVCArea@@@std@@@std@@QAE?AV?$_Vector_iterator@V?$_Vector_val@U?$_Simple_types@PAVCArea@@@std@@@std@@@2@V?$_Vector_const_iterator@V?$_Vector_val@U?$_Simple_types@PAVCArea@@@std@@@std@@@2@@Z DD 019930522H
	DD	00H
	DD	00H
	DD	2 DUP(00H)
	DD	2 DUP(00H)
	DD	00H
	DD	05H
xdata$x	ENDS
;	COMDAT xdata$x
xdata$x	SEGMENT
__ehfuncinfo$?erase@?$vector@PAVCTerrain@@V?$allocator@PAVCTerrain@@@std@@@std@@QAE?AV?$_Vector_iterator@V?$_Vector_val@U?$_Simple_types@PAVCTerrain@@@std@@@std@@@2@V?$_Vector_const_iterator@V?$_Vector_val@U?$_Simple_types@PAVCTerrain@@@std@@@std@@@2@@Z DD 019930522H
	DD	00H
	DD	00H
	DD	2 DUP(00H)
	DD	2 DUP(00H)
	DD	00H
	DD	05H
xdata$x	ENDS
;	COMDAT xdata$x
xdata$x	SEGMENT
__unwindtable$?__CollectCollisionShadowReceiver@CMapOutdoor@@IAEXAAUD3DXVECTOR3@@0@Z DD 0ffffffffH
	DD	FLAT:__unwindfunclet$?__CollectCollisionShadowReceiver@CMapOutdoor@@IAEXAAUD3DXVECTOR3@@0@Z$0
__ehfuncinfo$?__CollectCollisionShadowReceiver@CMapOutdoor@@IAEXAAUD3DXVECTOR3@@0@Z DD 019930522H
	DD	01H
	DD	FLAT:__unwindtable$?__CollectCollisionShadowReceiver@CMapOutdoor@@IAEXAAUD3DXVECTOR3@@0@Z
	DD	2 DUP(00H)
	DD	2 DUP(00H)
	DD	00H
	DD	01H
xdata$x	ENDS
;	COMDAT xdata$x
xdata$x	SEGMENT
__unwindtable$?__CollectCollisionPCBlocker@CMapOutdoor@@IAEXAAUD3DXVECTOR3@@0M@Z DD 0ffffffffH
	DD	FLAT:__unwindfunclet$?__CollectCollisionPCBlocker@CMapOutdoor@@IAEXAAUD3DXVECTOR3@@0M@Z$0
	DD	00H
	DD	FLAT:__unwindfunclet$?__CollectCollisionPCBlocker@CMapOutdoor@@IAEXAAUD3DXVECTOR3@@0M@Z$1
	DD	01H
	DD	FLAT:__unwindfunclet$?__CollectCollisionPCBlocker@CMapOutdoor@@IAEXAAUD3DXVECTOR3@@0M@Z$2
__ehfuncinfo$?__CollectCollisionPCBlocker@CMapOutdoor@@IAEXAAUD3DXVECTOR3@@0M@Z DD 019930522H
	DD	03H
	DD	FLAT:__unwindtable$?__CollectCollisionPCBlocker@CMapOutdoor@@IAEXAAUD3DXVECTOR3@@0M@Z
	DD	2 DUP(00H)
	DD	2 DUP(00H)
	DD	00H
	DD	01H
xdata$x	ENDS
;	COMDAT xdata$x
xdata$x	SEGMENT
__unwindtable$?UpdateAreaList@CMapOutdoor@@MAEXJJ@Z DD 0ffffffffH
	DD	FLAT:__unwindfunclet$?UpdateAreaList@CMapOutdoor@@MAEXJJ@Z$1
	DD	00H
	DD	FLAT:__unwindfunclet$?UpdateAreaList@CMapOutdoor@@MAEXJJ@Z$3
__ehfuncinfo$?UpdateAreaList@CMapOutdoor@@MAEXJJ@Z DD 019930522H
	DD	02H
	DD	FLAT:__unwindtable$?UpdateAreaList@CMapOutdoor@@MAEXJJ@Z
	DD	2 DUP(00H)
	DD	2 DUP(00H)
	DD	00H
	DD	01H
xdata$x	ENDS
;	COMDAT xdata$x
xdata$x	SEGMENT
__unwindtable$?__UpdateGarvage@CMapOutdoor@@MAEXXZ DD 0ffffffffH
	DD	FLAT:__unwindfunclet$?__UpdateGarvage@CMapOutdoor@@MAEXXZ$0
__ehfuncinfo$?__UpdateGarvage@CMapOutdoor@@MAEXXZ DD 019930522H
	DD	01H
	DD	FLAT:__unwindtable$?__UpdateGarvage@CMapOutdoor@@MAEXXZ
	DD	2 DUP(00H)
	DD	2 DUP(00H)
	DD	00H
	DD	01H
xdata$x	ENDS
;	COMDAT xdata$x
xdata$x	SEGMENT
__ehfuncinfo$??$_Deallocate@$07$0A@@std@@YAXPAXI@Z DD 019930522H
	DD	00H
	DD	00H
	DD	2 DUP(00H)
	DD	2 DUP(00H)
	DD	00H
	DD	05H
xdata$x	ENDS
;	COMDAT CRT$XCU
CRT$XCU	SEGMENT
??ms_kPool$initializer$@?$CPooledObject@VCNullDecorator@NEffectUpdateDecorator@@@@1P6AXXZA@@3P6AXXZA DD FLAT:??__E?ms_kPool@?$CPooledObject@VCNullDecorator@NEffectUpdateDecorator@@@@1V?$CDynamicPoolEx@VCNullDecorator@NEffectUpdateDecorator@@@@A@@YAXXZ ; ??ms_kPool$initializer$@?$CPooledObject@VCNullDecorator@NEffectUpdateDecorator@@@@1P6AXXZA@@3P6AXXZA
CRT$XCU	ENDS
;	COMDAT CRT$XCU
CRT$XCU	SEGMENT
??ms_kPool$initializer$@?$CPooledObject@VCTextureAnimationCWDecorator@NEffectUpdateDecorator@@@@1P6AXXZA@@3P6AXXZA DD FLAT:??__E?ms_kPool@?$CPooledObject@VCTextureAnimationCWDecorator@NEffectUpdateDecorator@@@@1V?$CDynamicPoolEx@VCTextureAnimationCWDecorator@NEffectUpdateDecorator@@@@A@@YAXXZ ; ??ms_kPool$initializer$@?$CPooledObject@VCTextureAnimationCWDecorator@NEffectUpdateDecorator@@@@1P6AXXZA@@3P6AXXZA
CRT$XCU	ENDS
;	COMDAT CRT$XCU
CRT$XCU	SEGMENT
??ms_kPool$initializer$@?$CPooledObject@VCTextureAnimationCCWDecorator@NEffectUpdateDecorator@@@@1P6AXXZA@@3P6AXXZA DD FLAT:??__E?ms_kPool@?$CPooledObject@VCTextureAnimationCCWDecorator@NEffectUpdateDecorator@@@@1V?$CDynamicPoolEx@VCTextureAnimationCCWDecorator@NEffectUpdateDecorator@@@@A@@YAXXZ ; ??ms_kPool$initializer$@?$CPooledObject@VCTextureAnimationCCWDecorator@NEffectUpdateDecorator@@@@1P6AXXZA@@3P6AXXZA
CRT$XCU	ENDS
;	COMDAT CRT$XCU
CRT$XCU	SEGMENT
??ms_kPool$initializer$@?$CPooledObject@VCTextureAnimationRandomDecorator@NEffectUpdateDecorator@@@@1P6AXXZA@@3P6AXXZA DD FLAT:??__E?ms_kPool@?$CPooledObject@VCTextureAnimationRandomDecorator@NEffectUpdateDecorator@@@@1V?$CDynamicPoolEx@VCTextureAnimationRandomDecorator@NEffectUpdateDecorator@@@@A@@YAXXZ ; ??ms_kPool$initializer$@?$CPooledObject@VCTextureAnimationRandomDecorator@NEffectUpdateDecorator@@@@1P6AXXZA@@3P6AXXZA
CRT$XCU	ENDS
;	COMDAT CRT$XCU
CRT$XCU	SEGMENT
??ms_kPool$initializer$@?$CPooledObject@VCAirResistanceDecorator@NEffectUpdateDecorator@@@@1P6AXXZA@@3P6AXXZA DD FLAT:??__E?ms_kPool@?$CPooledObject@VCAirResistanceDecorator@NEffectUpdateDecorator@@@@1V?$CDynamicPoolEx@VCAirResistanceDecorator@NEffectUpdateDecorator@@@@A@@YAXXZ ; ??ms_kPool$initializer$@?$CPooledObject@VCAirResistanceDecorator@NEffectUpdateDecorator@@@@1P6AXXZA@@3P6AXXZA
CRT$XCU	ENDS
;	COMDAT CRT$XCU
CRT$XCU	SEGMENT
??ms_kPool$initializer$@?$CPooledObject@VCGravityDecorator@NEffectUpdateDecorator@@@@1P6AXXZA@@3P6AXXZA DD FLAT:??__E?ms_kPool@?$CPooledObject@VCGravityDecorator@NEffectUpdateDecorator@@@@1V?$CDynamicPoolEx@VCGravityDecorator@NEffectUpdateDecorator@@@@A@@YAXXZ ; ??ms_kPool$initializer$@?$CPooledObject@VCGravityDecorator@NEffectUpdateDecorator@@@@1P6AXXZA@@3P6AXXZA
CRT$XCU	ENDS
;	COMDAT CRT$XCU
CRT$XCU	SEGMENT
??ms_kPool$initializer$@?$CPooledObject@VCRotationDecorator@NEffectUpdateDecorator@@@@1P6AXXZA@@3P6AXXZA DD FLAT:??__E?ms_kPool@?$CPooledObject@VCRotationDecorator@NEffectUpdateDecorator@@@@1V?$CDynamicPoolEx@VCRotationDecorator@NEffectUpdateDecorator@@@@A@@YAXXZ ; ??ms_kPool$initializer$@?$CPooledObject@VCRotationDecorator@NEffectUpdateDecorator@@@@1P6AXXZA@@3P6AXXZA
CRT$XCU	ENDS
; Function compile flags: /Odspy
; File C:\Program Files (x86)\Microsoft Visual Studio\2019\Community\VC\Tools\MSVC\14.28.29333\include\algorithm
; File C:\Program Files (x86)\Microsoft Visual Studio\2019\Community\VC\Tools\MSVC\14.28.29333\include\type_traits
; File C:\Program Files (x86)\Microsoft Visual Studio\2019\Community\VC\Tools\MSVC\14.28.29333\include\xutility
; File C:\Program Files (x86)\Microsoft Visual Studio\2019\Community\VC\Tools\MSVC\14.28.29333\include\algorithm
; File C:\Program Files (x86)\Microsoft Visual Studio\2019\Community\VC\Tools\MSVC\14.28.29333\include\type_traits
; File C:\Program Files (x86)\Microsoft Visual Studio\2019\Community\VC\Tools\MSVC\14.28.29333\include\utility
; File C:\Program Files (x86)\Microsoft Visual Studio\2019\Community\VC\Tools\MSVC\14.28.29333\include\type_traits
; File C:\Program Files (x86)\Microsoft Visual Studio\2019\Community\VC\Tools\MSVC\14.28.29333\include\utility
; File C:\Program Files (x86)\Microsoft Visual Studio\2019\Community\VC\Tools\MSVC\14.28.29333\include\type_traits
; File C:\Program Files (x86)\Microsoft Visual Studio\2019\Community\VC\Tools\MSVC\14.28.29333\include\utility
; File C:\Program Files (x86)\Microsoft Visual Studio\2019\Community\VC\Tools\MSVC\14.28.29333\include\type_traits
; File C:\Program Files (x86)\Microsoft Visual Studio\2019\Community\VC\Tools\MSVC\14.28.29333\include\xutility
; File C:\Program Files (x86)\Microsoft Visual Studio\2019\Community\VC\Tools\MSVC\14.28.29333\include\algorithm
; File C:\Program Files (x86)\Microsoft Visual Studio\2019\Community\VC\Tools\MSVC\14.28.29333\include\type_traits
; File C:\Program Files (x86)\Microsoft Visual Studio\2019\Community\VC\Tools\MSVC\14.28.29333\include\utility
; File C:\Program Files (x86)\Microsoft Visual Studio\2019\Community\VC\Tools\MSVC\14.28.29333\include\type_traits
; File C:\Program Files (x86)\Microsoft Visual Studio\2019\Community\VC\Tools\MSVC\14.28.29333\include\utility
; File C:\Program Files (x86)\Microsoft Visual Studio\2019\Community\VC\Tools\MSVC\14.28.29333\include\type_traits
; File C:\Program Files (x86)\Microsoft Visual Studio\2019\Community\VC\Tools\MSVC\14.28.29333\include\utility
; File C:\Program Files (x86)\Microsoft Visual Studio\2019\Community\VC\Tools\MSVC\14.28.29333\include\type_traits
; File C:\Program Files (x86)\Microsoft Visual Studio\2019\Community\VC\Tools\MSVC\14.28.29333\include\xutility
; File C:\Program Files (x86)\Microsoft Visual Studio\2019\Community\VC\Tools\MSVC\14.28.29333\include\algorithm
; File C:\Program Files (x86)\Microsoft Visual Studio\2019\Community\VC\Tools\MSVC\14.28.29333\include\type_traits
; File C:\Program Files (x86)\Microsoft Visual Studio\2019\Community\VC\Tools\MSVC\14.28.29333\include\utility
; File C:\Program Files (x86)\Microsoft Visual Studio\2019\Community\VC\Tools\MSVC\14.28.29333\include\type_traits
; File C:\Program Files (x86)\Microsoft Visual Studio\2019\Community\VC\Tools\MSVC\14.28.29333\include\utility
; File C:\Program Files (x86)\Microsoft Visual Studio\2019\Community\VC\Tools\MSVC\14.28.29333\include\type_traits
; File C:\Program Files (x86)\Microsoft Visual Studio\2019\Community\VC\Tools\MSVC\14.28.29333\include\utility
; File C:\Program Files (x86)\Microsoft Visual Studio\2019\Community\VC\Tools\MSVC\14.28.29333\include\algorithm
;	COMDAT ??$_Med3_unchecked@PAPAVCGraphicObjectInstance@@U?$_Ref_fn@UFPCBlockerDistanceSort@@@std@@@std@@YAXPAPAVCGraphicObjectInstance@@00U?$_Ref_fn@UFPCBlockerDistanceSort@@@0@@Z
_TEXT	SEGMENT
$T1 = -72						; size = 4
__Tmp$2 = -68						; size = 4
$T3 = -64						; size = 4
$T4 = -60						; size = 4
$T5 = -56						; size = 4
$T6 = -52						; size = 4
$T7 = -48						; size = 4
__Tmp$8 = -44						; size = 4
$T9 = -40						; size = 4
$T10 = -36						; size = 4
$T11 = -32						; size = 4
$T12 = -28						; size = 4
$T13 = -24						; size = 4
__Tmp$14 = -20						; size = 4
$T15 = -16						; size = 4
$T16 = -12						; size = 4
$T17 = -8						; size = 4
$T18 = -4						; size = 4
__First$ = 8						; size = 4
__Mid$ = 12						; size = 4
__Last$ = 16						; size = 4
__Pred$ = 20						; size = 4
??$_Med3_unchecked@PAPAVCGraphicObjectInstance@@U?$_Ref_fn@UFPCBlockerDistanceSort@@@std@@@std@@YAXPAPAVCGraphicObjectInstance@@00U?$_Ref_fn@UFPCBlockerDistanceSort@@@0@@Z PROC ; std::_Med3_unchecked<CGraphicObjectInstance * *,std::_Ref_fn<FPCBlockerDistanceSort> >, COMDAT

; 7434 : _CONSTEXPR20 void _Med3_unchecked(_RanIt _First, _RanIt _Mid, _RanIt _Last, _Pr _Pred) {

  00000	55		 push	 ebp
  00001	8b ec		 mov	 ebp, esp
  00003	83 ec 48	 sub	 esp, 72			; 00000048H
; File C:\Program Files (x86)\Microsoft Visual Studio\2019\Community\VC\Tools\MSVC\14.28.29333\include\type_traits

; 1443 :     return static_cast<_Ty&&>(_Arg);

  00006	8b 45 08	 mov	 eax, DWORD PTR __First$[ebp]
  00009	89 45 fc	 mov	 DWORD PTR $T18[ebp], eax
  0000c	8b 45 0c	 mov	 eax, DWORD PTR __Mid$[ebp]
  0000f	89 45 f8	 mov	 DWORD PTR $T17[ebp], eax
; File C:\Program Files (x86)\Microsoft Visual Studio\2019\Community\VC\Tools\MSVC\14.28.29333\include\xutility

; 203  :             return _Fn(_STD forward<_Args>(_Vals)...);

  00012	8b 45 fc	 mov	 eax, DWORD PTR $T18[ebp]
  00015	ff 30		 push	 DWORD PTR [eax]
  00017	8b 45 f8	 mov	 eax, DWORD PTR $T17[ebp]
  0001a	ff 30		 push	 DWORD PTR [eax]
  0001c	8b 4d 14	 mov	 ecx, DWORD PTR __Pred$[ebp]
  0001f	e8 00 00 00 00	 call	 ??RFPCBlockerDistanceSort@@QBE_NPAVCGraphicObjectInstance@@0@Z ; FPCBlockerDistanceSort::operator()
; File C:\Program Files (x86)\Microsoft Visual Studio\2019\Community\VC\Tools\MSVC\14.28.29333\include\algorithm

; 7436 :     if (_DEBUG_LT_PRED(_Pred, *_Mid, *_First)) {

  00024	0f b6 c0	 movzx	 eax, al
  00027	85 c0		 test	 eax, eax
  00029	74 2e		 je	 SHORT $LN2@Med3_unche
; File C:\Program Files (x86)\Microsoft Visual Studio\2019\Community\VC\Tools\MSVC\14.28.29333\include\type_traits

; 1455 :     return static_cast<remove_reference_t<_Ty>&&>(_Arg);

  0002b	8b 45 0c	 mov	 eax, DWORD PTR __Mid$[ebp]
  0002e	89 45 f4	 mov	 DWORD PTR $T16[ebp], eax
; File C:\Program Files (x86)\Microsoft Visual Studio\2019\Community\VC\Tools\MSVC\14.28.29333\include\utility

; 104  :     _Ty _Tmp = _STD move(_Left);

  00031	8b 45 f4	 mov	 eax, DWORD PTR $T16[ebp]
  00034	8b 00		 mov	 eax, DWORD PTR [eax]
  00036	89 45 ec	 mov	 DWORD PTR __Tmp$14[ebp], eax
; File C:\Program Files (x86)\Microsoft Visual Studio\2019\Community\VC\Tools\MSVC\14.28.29333\include\type_traits

; 1455 :     return static_cast<remove_reference_t<_Ty>&&>(_Arg);

  00039	8b 45 08	 mov	 eax, DWORD PTR __First$[ebp]
  0003c	89 45 f0	 mov	 DWORD PTR $T15[ebp], eax
; File C:\Program Files (x86)\Microsoft Visual Studio\2019\Community\VC\Tools\MSVC\14.28.29333\include\utility

; 105  :     _Left    = _STD move(_Right);

  0003f	8b 45 0c	 mov	 eax, DWORD PTR __Mid$[ebp]
  00042	8b 4d f0	 mov	 ecx, DWORD PTR $T15[ebp]
  00045	8b 09		 mov	 ecx, DWORD PTR [ecx]
  00047	89 08		 mov	 DWORD PTR [eax], ecx
; File C:\Program Files (x86)\Microsoft Visual Studio\2019\Community\VC\Tools\MSVC\14.28.29333\include\type_traits

; 1455 :     return static_cast<remove_reference_t<_Ty>&&>(_Arg);

  00049	8d 45 ec	 lea	 eax, DWORD PTR __Tmp$14[ebp]
  0004c	89 45 e8	 mov	 DWORD PTR $T13[ebp], eax
; File C:\Program Files (x86)\Microsoft Visual Studio\2019\Community\VC\Tools\MSVC\14.28.29333\include\utility

; 106  :     _Right   = _STD move(_Tmp);

  0004f	8b 45 08	 mov	 eax, DWORD PTR __First$[ebp]
  00052	8b 4d e8	 mov	 ecx, DWORD PTR $T13[ebp]
  00055	8b 09		 mov	 ecx, DWORD PTR [ecx]
  00057	89 08		 mov	 DWORD PTR [eax], ecx
$LN2@Med3_unche:
; File C:\Program Files (x86)\Microsoft Visual Studio\2019\Community\VC\Tools\MSVC\14.28.29333\include\type_traits

; 1443 :     return static_cast<_Ty&&>(_Arg);

  00059	8b 45 0c	 mov	 eax, DWORD PTR __Mid$[ebp]
  0005c	89 45 e4	 mov	 DWORD PTR $T12[ebp], eax
  0005f	8b 45 10	 mov	 eax, DWORD PTR __Last$[ebp]
  00062	89 45 e0	 mov	 DWORD PTR $T11[ebp], eax
; File C:\Program Files (x86)\Microsoft Visual Studio\2019\Community\VC\Tools\MSVC\14.28.29333\include\xutility

; 203  :             return _Fn(_STD forward<_Args>(_Vals)...);

  00065	8b 45 e4	 mov	 eax, DWORD PTR $T12[ebp]
  00068	ff 30		 push	 DWORD PTR [eax]
  0006a	8b 45 e0	 mov	 eax, DWORD PTR $T11[ebp]
  0006d	ff 30		 push	 DWORD PTR [eax]
  0006f	8b 4d 14	 mov	 ecx, DWORD PTR __Pred$[ebp]
  00072	e8 00 00 00 00	 call	 ??RFPCBlockerDistanceSort@@QBE_NPAVCGraphicObjectInstance@@0@Z ; FPCBlockerDistanceSort::operator()
; File C:\Program Files (x86)\Microsoft Visual Studio\2019\Community\VC\Tools\MSVC\14.28.29333\include\algorithm

; 7440 :     if (_DEBUG_LT_PRED(_Pred, *_Last, *_Mid)) { // swap middle and last, then test first again

  00077	0f b6 c0	 movzx	 eax, al
  0007a	85 c0		 test	 eax, eax
  0007c	0f 84 81 00 00
	00		 je	 $LN1@Med3_unche
; File C:\Program Files (x86)\Microsoft Visual Studio\2019\Community\VC\Tools\MSVC\14.28.29333\include\type_traits

; 1455 :     return static_cast<remove_reference_t<_Ty>&&>(_Arg);

  00082	8b 45 10	 mov	 eax, DWORD PTR __Last$[ebp]
  00085	89 45 dc	 mov	 DWORD PTR $T10[ebp], eax
; File C:\Program Files (x86)\Microsoft Visual Studio\2019\Community\VC\Tools\MSVC\14.28.29333\include\utility

; 104  :     _Ty _Tmp = _STD move(_Left);

  00088	8b 45 dc	 mov	 eax, DWORD PTR $T10[ebp]
  0008b	8b 00		 mov	 eax, DWORD PTR [eax]
  0008d	89 45 d4	 mov	 DWORD PTR __Tmp$8[ebp], eax
; File C:\Program Files (x86)\Microsoft Visual Studio\2019\Community\VC\Tools\MSVC\14.28.29333\include\type_traits

; 1455 :     return static_cast<remove_reference_t<_Ty>&&>(_Arg);

  00090	8b 45 0c	 mov	 eax, DWORD PTR __Mid$[ebp]
  00093	89 45 d8	 mov	 DWORD PTR $T9[ebp], eax
; File C:\Program Files (x86)\Microsoft Visual Studio\2019\Community\VC\Tools\MSVC\14.28.29333\include\utility

; 105  :     _Left    = _STD move(_Right);

  00096	8b 45 10	 mov	 eax, DWORD PTR __Last$[ebp]
  00099	8b 4d d8	 mov	 ecx, DWORD PTR $T9[ebp]
  0009c	8b 09		 mov	 ecx, DWORD PTR [ecx]
  0009e	89 08		 mov	 DWORD PTR [eax], ecx
; File C:\Program Files (x86)\Microsoft Visual Studio\2019\Community\VC\Tools\MSVC\14.28.29333\include\type_traits

; 1455 :     return static_cast<remove_reference_t<_Ty>&&>(_Arg);

  000a0	8d 45 d4	 lea	 eax, DWORD PTR __Tmp$8[ebp]
  000a3	89 45 d0	 mov	 DWORD PTR $T7[ebp], eax
; File C:\Program Files (x86)\Microsoft Visual Studio\2019\Community\VC\Tools\MSVC\14.28.29333\include\utility

; 106  :     _Right   = _STD move(_Tmp);

  000a6	8b 45 0c	 mov	 eax, DWORD PTR __Mid$[ebp]
  000a9	8b 4d d0	 mov	 ecx, DWORD PTR $T7[ebp]
  000ac	8b 09		 mov	 ecx, DWORD PTR [ecx]
  000ae	89 08		 mov	 DWORD PTR [eax], ecx
; File C:\Program Files (x86)\Microsoft Visual Studio\2019\Community\VC\Tools\MSVC\14.28.29333\include\type_traits

; 1443 :     return static_cast<_Ty&&>(_Arg);

  000b0	8b 45 08	 mov	 eax, DWORD PTR __First$[ebp]
  000b3	89 45 cc	 mov	 DWORD PTR $T6[ebp], eax
  000b6	8b 45 0c	 mov	 eax, DWORD PTR __Mid$[ebp]
  000b9	89 45 c8	 mov	 DWORD PTR $T5[ebp], eax
; File C:\Program Files (x86)\Microsoft Visual Studio\2019\Community\VC\Tools\MSVC\14.28.29333\include\xutility

; 203  :             return _Fn(_STD forward<_Args>(_Vals)...);

  000bc	8b 45 cc	 mov	 eax, DWORD PTR $T6[ebp]
  000bf	ff 30		 push	 DWORD PTR [eax]
  000c1	8b 45 c8	 mov	 eax, DWORD PTR $T5[ebp]
  000c4	ff 30		 push	 DWORD PTR [eax]
  000c6	8b 4d 14	 mov	 ecx, DWORD PTR __Pred$[ebp]
  000c9	e8 00 00 00 00	 call	 ??RFPCBlockerDistanceSort@@QBE_NPAVCGraphicObjectInstance@@0@Z ; FPCBlockerDistanceSort::operator()
; File C:\Program Files (x86)\Microsoft Visual Studio\2019\Community\VC\Tools\MSVC\14.28.29333\include\algorithm

; 7443 :         if (_DEBUG_LT_PRED(_Pred, *_Mid, *_First)) {

  000ce	0f b6 c0	 movzx	 eax, al
  000d1	85 c0		 test	 eax, eax
  000d3	74 2e		 je	 SHORT $LN1@Med3_unche
; File C:\Program Files (x86)\Microsoft Visual Studio\2019\Community\VC\Tools\MSVC\14.28.29333\include\type_traits

; 1455 :     return static_cast<remove_reference_t<_Ty>&&>(_Arg);

  000d5	8b 45 0c	 mov	 eax, DWORD PTR __Mid$[ebp]
  000d8	89 45 c4	 mov	 DWORD PTR $T4[ebp], eax
; File C:\Program Files (x86)\Microsoft Visual Studio\2019\Community\VC\Tools\MSVC\14.28.29333\include\utility

; 104  :     _Ty _Tmp = _STD move(_Left);

  000db	8b 45 c4	 mov	 eax, DWORD PTR $T4[ebp]
  000de	8b 00		 mov	 eax, DWORD PTR [eax]
  000e0	89 45 bc	 mov	 DWORD PTR __Tmp$2[ebp], eax
; File C:\Program Files (x86)\Microsoft Visual Studio\2019\Community\VC\Tools\MSVC\14.28.29333\include\type_traits

; 1455 :     return static_cast<remove_reference_t<_Ty>&&>(_Arg);

  000e3	8b 45 08	 mov	 eax, DWORD PTR __First$[ebp]
  000e6	89 45 c0	 mov	 DWORD PTR $T3[ebp], eax
; File C:\Program Files (x86)\Microsoft Visual Studio\2019\Community\VC\Tools\MSVC\14.28.29333\include\utility

; 105  :     _Left    = _STD move(_Right);

  000e9	8b 45 0c	 mov	 eax, DWORD PTR __Mid$[ebp]
  000ec	8b 4d c0	 mov	 ecx, DWORD PTR $T3[ebp]
  000ef	8b 09		 mov	 ecx, DWORD PTR [ecx]
  000f1	89 08		 mov	 DWORD PTR [eax], ecx
; File C:\Program Files (x86)\Microsoft Visual Studio\2019\Community\VC\Tools\MSVC\14.28.29333\include\type_traits

; 1455 :     return static_cast<remove_reference_t<_Ty>&&>(_Arg);

  000f3	8d 45 bc	 lea	 eax, DWORD PTR __Tmp$2[ebp]
  000f6	89 45 b8	 mov	 DWORD PTR $T1[ebp], eax
; File C:\Program Files (x86)\Microsoft Visual Studio\2019\Community\VC\Tools\MSVC\14.28.29333\include\utility

; 106  :     _Right   = _STD move(_Tmp);

  000f9	8b 45 08	 mov	 eax, DWORD PTR __First$[ebp]
  000fc	8b 4d b8	 mov	 ecx, DWORD PTR $T1[ebp]
  000ff	8b 09		 mov	 ecx, DWORD PTR [ecx]
  00101	89 08		 mov	 DWORD PTR [eax], ecx
$LN1@Med3_unche:
; File C:\Program Files (x86)\Microsoft Visual Studio\2019\Community\VC\Tools\MSVC\14.28.29333\include\algorithm

; 7447 : }

  00103	c9		 leave
  00104	c3		 ret	 0
??$_Med3_unchecked@PAPAVCGraphicObjectInstance@@U?$_Ref_fn@UFPCBlockerDistanceSort@@@std@@@std@@YAXPAPAVCGraphicObjectInstance@@00U?$_Ref_fn@UFPCBlockerDistanceSort@@@0@@Z ENDP ; std::_Med3_unchecked<CGraphicObjectInstance * *,std::_Ref_fn<FPCBlockerDistanceSort> >
_TEXT	ENDS
; Function compile flags: /Odspy
; File C:\Program Files (x86)\Microsoft Visual Studio\2019\Community\VC\Tools\MSVC\14.28.29333\include\algorithm
; File C:\Program Files (x86)\Microsoft Visual Studio\2019\Community\VC\Tools\MSVC\14.28.29333\include\type_traits
; File C:\Program Files (x86)\Microsoft Visual Studio\2019\Community\VC\Tools\MSVC\14.28.29333\include\algorithm
; File C:\Program Files (x86)\Microsoft Visual Studio\2019\Community\VC\Tools\MSVC\14.28.29333\include\type_traits
; File C:\Program Files (x86)\Microsoft Visual Studio\2019\Community\VC\Tools\MSVC\14.28.29333\include\xutility
; File C:\Program Files (x86)\Microsoft Visual Studio\2019\Community\VC\Tools\MSVC\14.28.29333\include\algorithm
; File C:\Program Files (x86)\Microsoft Visual Studio\2019\Community\VC\Tools\MSVC\14.28.29333\include\type_traits
; File C:\Program Files (x86)\Microsoft Visual Studio\2019\Community\VC\Tools\MSVC\14.28.29333\include\algorithm
; File C:\Program Files (x86)\Microsoft Visual Studio\2019\Community\VC\Tools\MSVC\14.28.29333\include\type_traits
; File C:\Program Files (x86)\Microsoft Visual Studio\2019\Community\VC\Tools\MSVC\14.28.29333\include\algorithm
;	COMDAT ??$_Push_heap_by_index@PAPAVCGraphicObjectInstance@@PAV1@U?$_Ref_fn@UFPCBlockerDistanceSort@@@std@@@std@@YAXPAPAVCGraphicObjectInstance@@HH$$QAPAV1@U?$_Ref_fn@UFPCBlockerDistanceSort@@@0@@Z
_TEXT	SEGMENT
$T1 = -20						; size = 4
$T2 = -16						; size = 4
$T3 = -12						; size = 4
$T4 = -8						; size = 4
__Idx$5 = -4						; size = 4
__First$ = 8						; size = 4
__Hole$ = 12						; size = 4
__Top$ = 16						; size = 4
__Val$ = 20						; size = 4
__Pred$ = 24						; size = 4
??$_Push_heap_by_index@PAPAVCGraphicObjectInstance@@PAV1@U?$_Ref_fn@UFPCBlockerDistanceSort@@@std@@@std@@YAXPAPAVCGraphicObjectInstance@@HH$$QAPAV1@U?$_Ref_fn@UFPCBlockerDistanceSort@@@0@@Z PROC ; std::_Push_heap_by_index<CGraphicObjectInstance * *,CGraphicObjectInstance *,std::_Ref_fn<FPCBlockerDistanceSort> >, COMDAT

; 6073 :     _RanIt _First, _Iter_diff_t<_RanIt> _Hole, _Iter_diff_t<_RanIt> _Top, _Ty&& _Val, _Pr _Pred) {

  00000	55		 push	 ebp
  00001	8b ec		 mov	 ebp, esp
  00003	83 ec 14	 sub	 esp, 20			; 00000014H

; 6074 :     // percolate _Hole to _Top or where _Val belongs
; 6075 :     using _Diff = _Iter_diff_t<_RanIt>;
; 6076 :     for (_Diff _Idx = (_Hole - 1) >> 1; // shift for codegen

  00006	8b 45 0c	 mov	 eax, DWORD PTR __Hole$[ebp]
  00009	48		 dec	 eax
  0000a	d1 f8		 sar	 eax, 1
  0000c	89 45 fc	 mov	 DWORD PTR __Idx$5[ebp], eax
  0000f	eb 09		 jmp	 SHORT $LN4@Push_heap_
$LN2@Push_heap_:

; 6078 :          _Idx = (_Hole - 1) >> 1) { // shift for codegen

  00011	8b 45 0c	 mov	 eax, DWORD PTR __Hole$[ebp]
  00014	48		 dec	 eax
  00015	d1 f8		 sar	 eax, 1
  00017	89 45 fc	 mov	 DWORD PTR __Idx$5[ebp], eax
$LN4@Push_heap_:

; 6077 :          _Top < _Hole && _DEBUG_LT_PRED(_Pred, *(_First + _Idx), _Val); //

  0001a	8b 45 10	 mov	 eax, DWORD PTR __Top$[ebp]
  0001d	3b 45 0c	 cmp	 eax, DWORD PTR __Hole$[ebp]
  00020	7d 4d		 jge	 SHORT $LN3@Push_heap_
; File C:\Program Files (x86)\Microsoft Visual Studio\2019\Community\VC\Tools\MSVC\14.28.29333\include\type_traits

; 1443 :     return static_cast<_Ty&&>(_Arg);

  00022	8b 45 14	 mov	 eax, DWORD PTR __Val$[ebp]
  00025	89 45 f8	 mov	 DWORD PTR $T4[ebp], eax
; File C:\Program Files (x86)\Microsoft Visual Studio\2019\Community\VC\Tools\MSVC\14.28.29333\include\algorithm

; 6077 :          _Top < _Hole && _DEBUG_LT_PRED(_Pred, *(_First + _Idx), _Val); //

  00028	8b 45 fc	 mov	 eax, DWORD PTR __Idx$5[ebp]
  0002b	8b 4d 08	 mov	 ecx, DWORD PTR __First$[ebp]
  0002e	8d 04 81	 lea	 eax, DWORD PTR [ecx+eax*4]
; File C:\Program Files (x86)\Microsoft Visual Studio\2019\Community\VC\Tools\MSVC\14.28.29333\include\type_traits

; 1443 :     return static_cast<_Ty&&>(_Arg);

  00031	89 45 f4	 mov	 DWORD PTR $T3[ebp], eax
; File C:\Program Files (x86)\Microsoft Visual Studio\2019\Community\VC\Tools\MSVC\14.28.29333\include\xutility

; 203  :             return _Fn(_STD forward<_Args>(_Vals)...);

  00034	8b 45 f8	 mov	 eax, DWORD PTR $T4[ebp]
  00037	ff 30		 push	 DWORD PTR [eax]
  00039	8b 45 f4	 mov	 eax, DWORD PTR $T3[ebp]
  0003c	ff 30		 push	 DWORD PTR [eax]
  0003e	8b 4d 18	 mov	 ecx, DWORD PTR __Pred$[ebp]
  00041	e8 00 00 00 00	 call	 ??RFPCBlockerDistanceSort@@QBE_NPAVCGraphicObjectInstance@@0@Z ; FPCBlockerDistanceSort::operator()
; File C:\Program Files (x86)\Microsoft Visual Studio\2019\Community\VC\Tools\MSVC\14.28.29333\include\algorithm

; 6077 :          _Top < _Hole && _DEBUG_LT_PRED(_Pred, *(_First + _Idx), _Val); //

  00046	0f b6 c0	 movzx	 eax, al
  00049	85 c0		 test	 eax, eax
  0004b	74 22		 je	 SHORT $LN3@Push_heap_

; 6080 :         *(_First + _Hole) = _STD move(*(_First + _Idx));

  0004d	8b 45 fc	 mov	 eax, DWORD PTR __Idx$5[ebp]
  00050	8b 4d 08	 mov	 ecx, DWORD PTR __First$[ebp]
  00053	8d 04 81	 lea	 eax, DWORD PTR [ecx+eax*4]
; File C:\Program Files (x86)\Microsoft Visual Studio\2019\Community\VC\Tools\MSVC\14.28.29333\include\type_traits

; 1455 :     return static_cast<remove_reference_t<_Ty>&&>(_Arg);

  00056	89 45 f0	 mov	 DWORD PTR $T2[ebp], eax
; File C:\Program Files (x86)\Microsoft Visual Studio\2019\Community\VC\Tools\MSVC\14.28.29333\include\algorithm

; 6080 :         *(_First + _Hole) = _STD move(*(_First + _Idx));

  00059	8b 45 0c	 mov	 eax, DWORD PTR __Hole$[ebp]
  0005c	8b 4d 08	 mov	 ecx, DWORD PTR __First$[ebp]
  0005f	8b 55 f0	 mov	 edx, DWORD PTR $T2[ebp]
  00062	8b 12		 mov	 edx, DWORD PTR [edx]
  00064	89 14 81	 mov	 DWORD PTR [ecx+eax*4], edx

; 6081 :         _Hole             = _Idx;

  00067	8b 45 fc	 mov	 eax, DWORD PTR __Idx$5[ebp]
  0006a	89 45 0c	 mov	 DWORD PTR __Hole$[ebp], eax

; 6082 :     }

  0006d	eb a2		 jmp	 SHORT $LN2@Push_heap_
$LN3@Push_heap_:
; File C:\Program Files (x86)\Microsoft Visual Studio\2019\Community\VC\Tools\MSVC\14.28.29333\include\type_traits

; 1443 :     return static_cast<_Ty&&>(_Arg);

  0006f	8b 45 14	 mov	 eax, DWORD PTR __Val$[ebp]
  00072	89 45 ec	 mov	 DWORD PTR $T1[ebp], eax
; File C:\Program Files (x86)\Microsoft Visual Studio\2019\Community\VC\Tools\MSVC\14.28.29333\include\algorithm

; 6084 :     *(_First + _Hole) = _STD forward<_Ty>(_Val); // drop _Val into final hole

  00075	8b 45 0c	 mov	 eax, DWORD PTR __Hole$[ebp]
  00078	8b 4d 08	 mov	 ecx, DWORD PTR __First$[ebp]
  0007b	8b 55 ec	 mov	 edx, DWORD PTR $T1[ebp]
  0007e	8b 12		 mov	 edx, DWORD PTR [edx]
  00080	89 14 81	 mov	 DWORD PTR [ecx+eax*4], edx

; 6085 : }

  00083	c9		 leave
  00084	c3		 ret	 0
??$_Push_heap_by_index@PAPAVCGraphicObjectInstance@@PAV1@U?$_Ref_fn@UFPCBlockerDistanceSort@@@std@@@std@@YAXPAPAVCGraphicObjectInstance@@HH$$QAPAV1@U?$_Ref_fn@UFPCBlockerDistanceSort@@@0@@Z ENDP ; std::_Push_heap_by_index<CGraphicObjectInstance * *,CGraphicObjectInstance *,std::_Ref_fn<FPCBlockerDistanceSort> >
_TEXT	ENDS
; Function compile flags: /Odspy
; File C:\Program Files (x86)\Microsoft Visual Studio\2019\Community\VC\Tools\MSVC\14.28.29333\include\xutility
;	COMDAT ??$_Copy_backward_memmove@PAPAVCGraphicObjectInstance@@PAPAV1@@std@@YAPAPAVCGraphicObjectInstance@@PAPAV1@00@Z
_TEXT	SEGMENT
__Dest_ch$ = -16					; size = 4
__Last_ch$ = -12					; size = 4
__Count$ = -8						; size = 4
__First_ch$ = -4					; size = 4
__First$ = 8						; size = 4
__Last$ = 12						; size = 4
__Dest$ = 16						; size = 4
??$_Copy_backward_memmove@PAPAVCGraphicObjectInstance@@PAPAV1@@std@@YAPAPAVCGraphicObjectInstance@@PAPAV1@00@Z PROC ; std::_Copy_backward_memmove<CGraphicObjectInstance * *,CGraphicObjectInstance * *>, COMDAT

; 4535 : _BidIt2 _Copy_backward_memmove(_BidIt1 _First, _BidIt1 _Last, _BidIt2 _Dest) {

  00000	55		 push	 ebp
  00001	8b ec		 mov	 ebp, esp
  00003	83 ec 10	 sub	 esp, 16			; 00000010H

; 4536 :     // implement copy_backward-like function as memmove
; 4537 :     const char* const _First_ch = const_cast<const char*>(reinterpret_cast<const volatile char*>(_First));

  00006	8b 45 08	 mov	 eax, DWORD PTR __First$[ebp]
  00009	89 45 fc	 mov	 DWORD PTR __First_ch$[ebp], eax

; 4538 :     const char* const _Last_ch  = const_cast<const char*>(reinterpret_cast<const volatile char*>(_Last));

  0000c	8b 45 0c	 mov	 eax, DWORD PTR __Last$[ebp]
  0000f	89 45 f4	 mov	 DWORD PTR __Last_ch$[ebp], eax

; 4539 :     char* const _Dest_ch        = const_cast<char*>(reinterpret_cast<volatile char*>(_Dest));

  00012	8b 45 10	 mov	 eax, DWORD PTR __Dest$[ebp]
  00015	89 45 f0	 mov	 DWORD PTR __Dest_ch$[ebp], eax

; 4540 :     const auto _Count           = static_cast<size_t>(_Last_ch - _First_ch);

  00018	8b 45 f4	 mov	 eax, DWORD PTR __Last_ch$[ebp]
  0001b	2b 45 fc	 sub	 eax, DWORD PTR __First_ch$[ebp]
  0001e	89 45 f8	 mov	 DWORD PTR __Count$[ebp], eax

; 4541 :     return static_cast<_BidIt2>(_CSTD memmove(_Dest_ch - _Count, _First_ch, _Count));

  00021	ff 75 f8	 push	 DWORD PTR __Count$[ebp]
  00024	ff 75 fc	 push	 DWORD PTR __First_ch$[ebp]
  00027	8b 45 f0	 mov	 eax, DWORD PTR __Dest_ch$[ebp]
  0002a	2b 45 f8	 sub	 eax, DWORD PTR __Count$[ebp]
  0002d	50		 push	 eax
  0002e	e8 00 00 00 00	 call	 _memmove
  00033	83 c4 0c	 add	 esp, 12			; 0000000cH

; 4542 : }

  00036	c9		 leave
  00037	c3		 ret	 0
??$_Copy_backward_memmove@PAPAVCGraphicObjectInstance@@PAPAV1@@std@@YAPAPAVCGraphicObjectInstance@@PAPAV1@00@Z ENDP ; std::_Copy_backward_memmove<CGraphicObjectInstance * *,CGraphicObjectInstance * *>
_TEXT	ENDS
; Function compile flags: /Odspy
; File C:\Program Files (x86)\Microsoft Visual Studio\2019\Community\VC\Tools\MSVC\14.28.29333\include\algorithm
;	COMDAT ??$_Guess_median_unchecked@PAPAVCGraphicObjectInstance@@U?$_Ref_fn@UFPCBlockerDistanceSort@@@std@@@std@@YAXPAPAVCGraphicObjectInstance@@00U?$_Ref_fn@UFPCBlockerDistanceSort@@@0@@Z
_TEXT	SEGMENT
__Two_step$1 = -12					; size = 4
__Count$ = -8						; size = 4
__Step$2 = -4						; size = 4
__First$ = 8						; size = 4
__Mid$ = 12						; size = 4
__Last$ = 16						; size = 4
__Pred$ = 20						; size = 4
??$_Guess_median_unchecked@PAPAVCGraphicObjectInstance@@U?$_Ref_fn@UFPCBlockerDistanceSort@@@std@@@std@@YAXPAPAVCGraphicObjectInstance@@00U?$_Ref_fn@UFPCBlockerDistanceSort@@@0@@Z PROC ; std::_Guess_median_unchecked<CGraphicObjectInstance * *,std::_Ref_fn<FPCBlockerDistanceSort> >, COMDAT

; 7450 : _CONSTEXPR20 void _Guess_median_unchecked(_RanIt _First, _RanIt _Mid, _RanIt _Last, _Pr _Pred) {

  00000	55		 push	 ebp
  00001	8b ec		 mov	 ebp, esp
  00003	83 ec 0c	 sub	 esp, 12			; 0000000cH

; 7451 :     // sort median element to middle
; 7452 :     using _Diff        = _Iter_diff_t<_RanIt>;
; 7453 :     const _Diff _Count = _Last - _First;

  00006	8b 45 10	 mov	 eax, DWORD PTR __Last$[ebp]
  00009	2b 45 08	 sub	 eax, DWORD PTR __First$[ebp]
  0000c	c1 f8 02	 sar	 eax, 2
  0000f	89 45 f8	 mov	 DWORD PTR __Count$[ebp], eax

; 7454 :     if (40 < _Count) { // Tukey's ninther

  00012	83 7d f8 28	 cmp	 DWORD PTR __Count$[ebp], 40 ; 00000028H
  00016	0f 8e a4 00 00
	00		 jle	 $LN2@Guess_medi

; 7455 :         const _Diff _Step     = (_Count + 1) >> 3; // +1 can't overflow because range was made inclusive in caller

  0001c	8b 45 f8	 mov	 eax, DWORD PTR __Count$[ebp]
  0001f	40		 inc	 eax
  00020	c1 f8 03	 sar	 eax, 3
  00023	89 45 fc	 mov	 DWORD PTR __Step$2[ebp], eax

; 7456 :         const _Diff _Two_step = _Step << 1; // note: intentionally discards low-order bit

  00026	8b 45 fc	 mov	 eax, DWORD PTR __Step$2[ebp]
  00029	d1 e0		 shl	 eax, 1
  0002b	89 45 f4	 mov	 DWORD PTR __Two_step$1[ebp], eax

; 7457 :         _Med3_unchecked(_First, _First + _Step, _First + _Two_step, _Pred);

  0002e	ff 75 14	 push	 DWORD PTR __Pred$[ebp]
  00031	8b 45 f4	 mov	 eax, DWORD PTR __Two_step$1[ebp]
  00034	8b 4d 08	 mov	 ecx, DWORD PTR __First$[ebp]
  00037	8d 04 81	 lea	 eax, DWORD PTR [ecx+eax*4]
  0003a	50		 push	 eax
  0003b	8b 45 fc	 mov	 eax, DWORD PTR __Step$2[ebp]
  0003e	8b 4d 08	 mov	 ecx, DWORD PTR __First$[ebp]
  00041	8d 04 81	 lea	 eax, DWORD PTR [ecx+eax*4]
  00044	50		 push	 eax
  00045	ff 75 08	 push	 DWORD PTR __First$[ebp]
  00048	e8 00 00 00 00	 call	 ??$_Med3_unchecked@PAPAVCGraphicObjectInstance@@U?$_Ref_fn@UFPCBlockerDistanceSort@@@std@@@std@@YAXPAPAVCGraphicObjectInstance@@00U?$_Ref_fn@UFPCBlockerDistanceSort@@@0@@Z ; std::_Med3_unchecked<CGraphicObjectInstance * *,std::_Ref_fn<FPCBlockerDistanceSort> >
  0004d	83 c4 10	 add	 esp, 16			; 00000010H

; 7458 :         _Med3_unchecked(_Mid - _Step, _Mid, _Mid + _Step, _Pred);

  00050	ff 75 14	 push	 DWORD PTR __Pred$[ebp]
  00053	8b 45 fc	 mov	 eax, DWORD PTR __Step$2[ebp]
  00056	8b 4d 0c	 mov	 ecx, DWORD PTR __Mid$[ebp]
  00059	8d 04 81	 lea	 eax, DWORD PTR [ecx+eax*4]
  0005c	50		 push	 eax
  0005d	ff 75 0c	 push	 DWORD PTR __Mid$[ebp]
  00060	8b 45 fc	 mov	 eax, DWORD PTR __Step$2[ebp]
  00063	c1 e0 02	 shl	 eax, 2
  00066	8b 4d 0c	 mov	 ecx, DWORD PTR __Mid$[ebp]
  00069	2b c8		 sub	 ecx, eax
  0006b	51		 push	 ecx
  0006c	e8 00 00 00 00	 call	 ??$_Med3_unchecked@PAPAVCGraphicObjectInstance@@U?$_Ref_fn@UFPCBlockerDistanceSort@@@std@@@std@@YAXPAPAVCGraphicObjectInstance@@00U?$_Ref_fn@UFPCBlockerDistanceSort@@@0@@Z ; std::_Med3_unchecked<CGraphicObjectInstance * *,std::_Ref_fn<FPCBlockerDistanceSort> >
  00071	83 c4 10	 add	 esp, 16			; 00000010H

; 7459 :         _Med3_unchecked(_Last - _Two_step, _Last - _Step, _Last, _Pred);

  00074	ff 75 14	 push	 DWORD PTR __Pred$[ebp]
  00077	ff 75 10	 push	 DWORD PTR __Last$[ebp]
  0007a	8b 45 fc	 mov	 eax, DWORD PTR __Step$2[ebp]
  0007d	c1 e0 02	 shl	 eax, 2
  00080	8b 4d 10	 mov	 ecx, DWORD PTR __Last$[ebp]
  00083	2b c8		 sub	 ecx, eax
  00085	51		 push	 ecx
  00086	8b 45 f4	 mov	 eax, DWORD PTR __Two_step$1[ebp]
  00089	c1 e0 02	 shl	 eax, 2
  0008c	8b 4d 10	 mov	 ecx, DWORD PTR __Last$[ebp]
  0008f	2b c8		 sub	 ecx, eax
  00091	51		 push	 ecx
  00092	e8 00 00 00 00	 call	 ??$_Med3_unchecked@PAPAVCGraphicObjectInstance@@U?$_Ref_fn@UFPCBlockerDistanceSort@@@std@@@std@@YAXPAPAVCGraphicObjectInstance@@00U?$_Ref_fn@UFPCBlockerDistanceSort@@@0@@Z ; std::_Med3_unchecked<CGraphicObjectInstance * *,std::_Ref_fn<FPCBlockerDistanceSort> >
  00097	83 c4 10	 add	 esp, 16			; 00000010H

; 7460 :         _Med3_unchecked(_First + _Step, _Mid, _Last - _Step, _Pred);

  0009a	ff 75 14	 push	 DWORD PTR __Pred$[ebp]
  0009d	8b 45 fc	 mov	 eax, DWORD PTR __Step$2[ebp]
  000a0	c1 e0 02	 shl	 eax, 2
  000a3	8b 4d 10	 mov	 ecx, DWORD PTR __Last$[ebp]
  000a6	2b c8		 sub	 ecx, eax
  000a8	51		 push	 ecx
  000a9	ff 75 0c	 push	 DWORD PTR __Mid$[ebp]
  000ac	8b 45 fc	 mov	 eax, DWORD PTR __Step$2[ebp]
  000af	8b 4d 08	 mov	 ecx, DWORD PTR __First$[ebp]
  000b2	8d 04 81	 lea	 eax, DWORD PTR [ecx+eax*4]
  000b5	50		 push	 eax
  000b6	e8 00 00 00 00	 call	 ??$_Med3_unchecked@PAPAVCGraphicObjectInstance@@U?$_Ref_fn@UFPCBlockerDistanceSort@@@std@@@std@@YAXPAPAVCGraphicObjectInstance@@00U?$_Ref_fn@UFPCBlockerDistanceSort@@@0@@Z ; std::_Med3_unchecked<CGraphicObjectInstance * *,std::_Ref_fn<FPCBlockerDistanceSort> >
  000bb	83 c4 10	 add	 esp, 16			; 00000010H

; 7461 :     } else {

  000be	eb 14		 jmp	 SHORT $LN1@Guess_medi
$LN2@Guess_medi:

; 7462 :         _Med3_unchecked(_First, _Mid, _Last, _Pred);

  000c0	ff 75 14	 push	 DWORD PTR __Pred$[ebp]
  000c3	ff 75 10	 push	 DWORD PTR __Last$[ebp]
  000c6	ff 75 0c	 push	 DWORD PTR __Mid$[ebp]
  000c9	ff 75 08	 push	 DWORD PTR __First$[ebp]
  000cc	e8 00 00 00 00	 call	 ??$_Med3_unchecked@PAPAVCGraphicObjectInstance@@U?$_Ref_fn@UFPCBlockerDistanceSort@@@std@@@std@@YAXPAPAVCGraphicObjectInstance@@00U?$_Ref_fn@UFPCBlockerDistanceSort@@@0@@Z ; std::_Med3_unchecked<CGraphicObjectInstance * *,std::_Ref_fn<FPCBlockerDistanceSort> >
  000d1	83 c4 10	 add	 esp, 16			; 00000010H
$LN1@Guess_medi:

; 7463 :     }
; 7464 : }

  000d4	c9		 leave
  000d5	c3		 ret	 0
??$_Guess_median_unchecked@PAPAVCGraphicObjectInstance@@U?$_Ref_fn@UFPCBlockerDistanceSort@@@std@@@std@@YAXPAPAVCGraphicObjectInstance@@00U?$_Ref_fn@UFPCBlockerDistanceSort@@@0@@Z ENDP ; std::_Guess_median_unchecked<CGraphicObjectInstance * *,std::_Ref_fn<FPCBlockerDistanceSort> >
_TEXT	ENDS
; Function compile flags: /Odspy
; File C:\Program Files (x86)\Microsoft Visual Studio\2019\Community\VC\Tools\MSVC\14.28.29333\include\algorithm
; File C:\Program Files (x86)\Microsoft Visual Studio\2019\Community\VC\Tools\MSVC\14.28.29333\include\type_traits
; File C:\Program Files (x86)\Microsoft Visual Studio\2019\Community\VC\Tools\MSVC\14.28.29333\include\algorithm
; File C:\Program Files (x86)\Microsoft Visual Studio\2019\Community\VC\Tools\MSVC\14.28.29333\include\type_traits
; File C:\Program Files (x86)\Microsoft Visual Studio\2019\Community\VC\Tools\MSVC\14.28.29333\include\algorithm
; File C:\Program Files (x86)\Microsoft Visual Studio\2019\Community\VC\Tools\MSVC\14.28.29333\include\type_traits
; File C:\Program Files (x86)\Microsoft Visual Studio\2019\Community\VC\Tools\MSVC\14.28.29333\include\algorithm
;	COMDAT ??$_Pop_heap_unchecked@PAPAVCGraphicObjectInstance@@U?$_Ref_fn@UFPCBlockerDistanceSort@@@std@@@std@@YAXPAPAVCGraphicObjectInstance@@0U?$_Ref_fn@UFPCBlockerDistanceSort@@@0@@Z
_TEXT	SEGMENT
$T1 = -20						; size = 4
$T2 = -16						; size = 4
$T3 = -12						; size = 4
__Val$4 = -8						; size = 4
$T5 = -4						; size = 4
__First$ = 8						; size = 4
__Last$ = 12						; size = 4
__Pred$ = 16						; size = 4
??$_Pop_heap_unchecked@PAPAVCGraphicObjectInstance@@U?$_Ref_fn@UFPCBlockerDistanceSort@@@std@@@std@@YAXPAPAVCGraphicObjectInstance@@0U?$_Ref_fn@UFPCBlockerDistanceSort@@@0@@Z PROC ; std::_Pop_heap_unchecked<CGraphicObjectInstance * *,std::_Ref_fn<FPCBlockerDistanceSort> >, COMDAT

; 6226 : _CONSTEXPR20 void _Pop_heap_unchecked(_RanIt _First, _RanIt _Last, _Pr _Pred) {

  00000	55		 push	 ebp
  00001	8b ec		 mov	 ebp, esp
  00003	83 ec 14	 sub	 esp, 20			; 00000014H

; 6227 :     // pop *_First to *(_Last - 1) and reheap
; 6228 :     if (2 <= _Last - _First) {

  00006	8b 45 0c	 mov	 eax, DWORD PTR __Last$[ebp]
  00009	2b 45 08	 sub	 eax, DWORD PTR __First$[ebp]
  0000c	c1 f8 02	 sar	 eax, 2
  0000f	83 f8 02	 cmp	 eax, 2
  00012	7c 50		 jl	 SHORT $LN1@Pop_heap_u

; 6229 :         --_Last;

  00014	8b 45 0c	 mov	 eax, DWORD PTR __Last$[ebp]
  00017	83 e8 04	 sub	 eax, 4
  0001a	89 45 0c	 mov	 DWORD PTR __Last$[ebp], eax
; File C:\Program Files (x86)\Microsoft Visual Studio\2019\Community\VC\Tools\MSVC\14.28.29333\include\type_traits

; 1455 :     return static_cast<remove_reference_t<_Ty>&&>(_Arg);

  0001d	8b 45 0c	 mov	 eax, DWORD PTR __Last$[ebp]
  00020	89 45 fc	 mov	 DWORD PTR $T5[ebp], eax
; File C:\Program Files (x86)\Microsoft Visual Studio\2019\Community\VC\Tools\MSVC\14.28.29333\include\algorithm

; 6230 :         _Iter_value_t<_RanIt> _Val = _STD move(*_Last);

  00023	8b 45 fc	 mov	 eax, DWORD PTR $T5[ebp]
  00026	8b 00		 mov	 eax, DWORD PTR [eax]
  00028	89 45 f8	 mov	 DWORD PTR __Val$4[ebp], eax
; File C:\Program Files (x86)\Microsoft Visual Studio\2019\Community\VC\Tools\MSVC\14.28.29333\include\type_traits

; 1455 :     return static_cast<remove_reference_t<_Ty>&&>(_Arg);

  0002b	8d 45 f8	 lea	 eax, DWORD PTR __Val$4[ebp]
  0002e	89 45 f0	 mov	 DWORD PTR $T2[ebp], eax
  00031	8b 45 08	 mov	 eax, DWORD PTR __First$[ebp]
  00034	89 45 f4	 mov	 DWORD PTR $T3[ebp], eax
; File C:\Program Files (x86)\Microsoft Visual Studio\2019\Community\VC\Tools\MSVC\14.28.29333\include\algorithm

; 6219 :     *_Dest      = _STD move(*_First);

  00037	8b 45 0c	 mov	 eax, DWORD PTR __Last$[ebp]
  0003a	8b 4d f4	 mov	 ecx, DWORD PTR $T3[ebp]
  0003d	8b 09		 mov	 ecx, DWORD PTR [ecx]
  0003f	89 08		 mov	 DWORD PTR [eax], ecx
; File C:\Program Files (x86)\Microsoft Visual Studio\2019\Community\VC\Tools\MSVC\14.28.29333\include\type_traits

; 1443 :     return static_cast<_Ty&&>(_Arg);

  00041	8b 45 f0	 mov	 eax, DWORD PTR $T2[ebp]
  00044	89 45 ec	 mov	 DWORD PTR $T1[ebp], eax
; File C:\Program Files (x86)\Microsoft Visual Studio\2019\Community\VC\Tools\MSVC\14.28.29333\include\algorithm

; 6221 :     _Pop_heap_hole_by_index(

  00047	ff 75 10	 push	 DWORD PTR __Pred$[ebp]
  0004a	ff 75 ec	 push	 DWORD PTR $T1[ebp]
  0004d	8b 45 0c	 mov	 eax, DWORD PTR __Last$[ebp]
  00050	2b 45 08	 sub	 eax, DWORD PTR __First$[ebp]
  00053	c1 f8 02	 sar	 eax, 2
  00056	50		 push	 eax
  00057	6a 00		 push	 0
  00059	ff 75 08	 push	 DWORD PTR __First$[ebp]
  0005c	e8 00 00 00 00	 call	 ??$_Pop_heap_hole_by_index@PAPAVCGraphicObjectInstance@@PAV1@U?$_Ref_fn@UFPCBlockerDistanceSort@@@std@@@std@@YAXPAPAVCGraphicObjectInstance@@HH$$QAPAV1@U?$_Ref_fn@UFPCBlockerDistanceSort@@@0@@Z ; std::_Pop_heap_hole_by_index<CGraphicObjectInstance * *,CGraphicObjectInstance *,std::_Ref_fn<FPCBlockerDistanceSort> >
  00061	83 c4 14	 add	 esp, 20			; 00000014H
$LN1@Pop_heap_u:

; 6231 :         _Pop_heap_hole_unchecked(_First, _Last, _Last, _STD move(_Val), _Pred);
; 6232 :     }
; 6233 : }

  00064	c9		 leave
  00065	c3		 ret	 0
??$_Pop_heap_unchecked@PAPAVCGraphicObjectInstance@@U?$_Ref_fn@UFPCBlockerDistanceSort@@@std@@@std@@YAXPAPAVCGraphicObjectInstance@@0U?$_Ref_fn@UFPCBlockerDistanceSort@@@0@@Z ENDP ; std::_Pop_heap_unchecked<CGraphicObjectInstance * *,std::_Ref_fn<FPCBlockerDistanceSort> >
_TEXT	ENDS
; Function compile flags: /Odspy
; File C:\Program Files (x86)\Microsoft Visual Studio\2019\Community\VC\Tools\MSVC\14.28.29333\include\algorithm
; File C:\Program Files (x86)\Microsoft Visual Studio\2019\Community\VC\Tools\MSVC\14.28.29333\include\type_traits
; File C:\Program Files (x86)\Microsoft Visual Studio\2019\Community\VC\Tools\MSVC\14.28.29333\include\algorithm
; File C:\Program Files (x86)\Microsoft Visual Studio\2019\Community\VC\Tools\MSVC\14.28.29333\include\type_traits
; File C:\Program Files (x86)\Microsoft Visual Studio\2019\Community\VC\Tools\MSVC\14.28.29333\include\xutility
; File C:\Program Files (x86)\Microsoft Visual Studio\2019\Community\VC\Tools\MSVC\14.28.29333\include\algorithm
; File C:\Program Files (x86)\Microsoft Visual Studio\2019\Community\VC\Tools\MSVC\14.28.29333\include\type_traits
; File C:\Program Files (x86)\Microsoft Visual Studio\2019\Community\VC\Tools\MSVC\14.28.29333\include\algorithm
; File C:\Program Files (x86)\Microsoft Visual Studio\2019\Community\VC\Tools\MSVC\14.28.29333\include\type_traits
; File C:\Program Files (x86)\Microsoft Visual Studio\2019\Community\VC\Tools\MSVC\14.28.29333\include\algorithm
; File C:\Program Files (x86)\Microsoft Visual Studio\2019\Community\VC\Tools\MSVC\14.28.29333\include\type_traits
; File C:\Program Files (x86)\Microsoft Visual Studio\2019\Community\VC\Tools\MSVC\14.28.29333\include\algorithm
;	COMDAT ??$_Pop_heap_hole_by_index@PAPAVCGraphicObjectInstance@@PAV1@U?$_Ref_fn@UFPCBlockerDistanceSort@@@std@@@std@@YAXPAPAVCGraphicObjectInstance@@HH$$QAPAV1@U?$_Ref_fn@UFPCBlockerDistanceSort@@@0@@Z
_TEXT	SEGMENT
__Top$ = -32						; size = 4
$T1 = -28						; size = 4
$T2 = -24						; size = 4
$T3 = -20						; size = 4
$T4 = -16						; size = 4
$T5 = -12						; size = 4
__Max_sequence_non_leaf$ = -8				; size = 4
__Idx$ = -4						; size = 4
__First$ = 8						; size = 4
__Hole$ = 12						; size = 4
__Bottom$ = 16						; size = 4
__Val$ = 20						; size = 4
__Pred$ = 24						; size = 4
??$_Pop_heap_hole_by_index@PAPAVCGraphicObjectInstance@@PAV1@U?$_Ref_fn@UFPCBlockerDistanceSort@@@std@@@std@@YAXPAPAVCGraphicObjectInstance@@HH$$QAPAV1@U?$_Ref_fn@UFPCBlockerDistanceSort@@@0@@Z PROC ; std::_Pop_heap_hole_by_index<CGraphicObjectInstance * *,CGraphicObjectInstance *,std::_Ref_fn<FPCBlockerDistanceSort> >, COMDAT

; 6186 :     _RanIt _First, _Iter_diff_t<_RanIt> _Hole, _Iter_diff_t<_RanIt> _Bottom, _Ty&& _Val, _Pr _Pred) {

  00000	55		 push	 ebp
  00001	8b ec		 mov	 ebp, esp
  00003	83 ec 20	 sub	 esp, 32			; 00000020H

; 6187 :     // percolate _Hole to _Bottom, then push _Val
; 6188 :     _STL_INTERNAL_CHECK(_Bottom > 0);
; 6189 : 
; 6190 :     using _Diff      = _Iter_diff_t<_RanIt>;
; 6191 :     const _Diff _Top = _Hole;

  00006	8b 45 0c	 mov	 eax, DWORD PTR __Hole$[ebp]
  00009	89 45 e0	 mov	 DWORD PTR __Top$[ebp], eax

; 6192 :     _Diff _Idx       = _Hole;

  0000c	8b 45 0c	 mov	 eax, DWORD PTR __Hole$[ebp]
  0000f	89 45 fc	 mov	 DWORD PTR __Idx$[ebp], eax

; 6193 : 
; 6194 :     // Check whether _Idx can have a child before calculating that child's index, since
; 6195 :     // calculating the child's index can trigger integer overflows
; 6196 :     const _Diff _Max_sequence_non_leaf = (_Bottom - 1) >> 1; // shift for codegen

  00012	8b 45 10	 mov	 eax, DWORD PTR __Bottom$[ebp]
  00015	48		 dec	 eax
  00016	d1 f8		 sar	 eax, 1
  00018	89 45 f8	 mov	 DWORD PTR __Max_sequence_non_leaf$[ebp], eax
$LN2@Pop_heap_h:

; 6197 :     while (_Idx < _Max_sequence_non_leaf) { // move _Hole down to larger child

  0001b	8b 45 fc	 mov	 eax, DWORD PTR __Idx$[ebp]
  0001e	3b 45 f8	 cmp	 eax, DWORD PTR __Max_sequence_non_leaf$[ebp]
  00021	7d 65		 jge	 SHORT $LN3@Pop_heap_h

; 6198 :         _Idx = 2 * _Idx + 2;

  00023	8b 45 fc	 mov	 eax, DWORD PTR __Idx$[ebp]
  00026	8d 44 00 02	 lea	 eax, DWORD PTR [eax+eax+2]
  0002a	89 45 fc	 mov	 DWORD PTR __Idx$[ebp], eax

; 6199 :         if (_DEBUG_LT_PRED(_Pred, *(_First + _Idx), *(_First + (_Idx - 1)))) {

  0002d	8b 45 fc	 mov	 eax, DWORD PTR __Idx$[ebp]
  00030	8b 4d 08	 mov	 ecx, DWORD PTR __First$[ebp]
  00033	8d 44 81 fc	 lea	 eax, DWORD PTR [ecx+eax*4-4]
; File C:\Program Files (x86)\Microsoft Visual Studio\2019\Community\VC\Tools\MSVC\14.28.29333\include\type_traits

; 1443 :     return static_cast<_Ty&&>(_Arg);

  00037	89 45 f4	 mov	 DWORD PTR $T5[ebp], eax
; File C:\Program Files (x86)\Microsoft Visual Studio\2019\Community\VC\Tools\MSVC\14.28.29333\include\algorithm

; 6199 :         if (_DEBUG_LT_PRED(_Pred, *(_First + _Idx), *(_First + (_Idx - 1)))) {

  0003a	8b 45 fc	 mov	 eax, DWORD PTR __Idx$[ebp]
  0003d	8b 4d 08	 mov	 ecx, DWORD PTR __First$[ebp]
  00040	8d 04 81	 lea	 eax, DWORD PTR [ecx+eax*4]
; File C:\Program Files (x86)\Microsoft Visual Studio\2019\Community\VC\Tools\MSVC\14.28.29333\include\type_traits

; 1443 :     return static_cast<_Ty&&>(_Arg);

  00043	89 45 f0	 mov	 DWORD PTR $T4[ebp], eax
; File C:\Program Files (x86)\Microsoft Visual Studio\2019\Community\VC\Tools\MSVC\14.28.29333\include\xutility

; 203  :             return _Fn(_STD forward<_Args>(_Vals)...);

  00046	8b 45 f4	 mov	 eax, DWORD PTR $T5[ebp]
  00049	ff 30		 push	 DWORD PTR [eax]
  0004b	8b 45 f0	 mov	 eax, DWORD PTR $T4[ebp]
  0004e	ff 30		 push	 DWORD PTR [eax]
  00050	8b 4d 18	 mov	 ecx, DWORD PTR __Pred$[ebp]
  00053	e8 00 00 00 00	 call	 ??RFPCBlockerDistanceSort@@QBE_NPAVCGraphicObjectInstance@@0@Z ; FPCBlockerDistanceSort::operator()
; File C:\Program Files (x86)\Microsoft Visual Studio\2019\Community\VC\Tools\MSVC\14.28.29333\include\algorithm

; 6199 :         if (_DEBUG_LT_PRED(_Pred, *(_First + _Idx), *(_First + (_Idx - 1)))) {

  00058	0f b6 c0	 movzx	 eax, al
  0005b	85 c0		 test	 eax, eax
  0005d	74 07		 je	 SHORT $LN4@Pop_heap_h

; 6200 :             --_Idx;

  0005f	8b 45 fc	 mov	 eax, DWORD PTR __Idx$[ebp]
  00062	48		 dec	 eax
  00063	89 45 fc	 mov	 DWORD PTR __Idx$[ebp], eax
$LN4@Pop_heap_h:

; 6202 :         *(_First + _Hole) = _STD move(*(_First + _Idx));

  00066	8b 45 fc	 mov	 eax, DWORD PTR __Idx$[ebp]
  00069	8b 4d 08	 mov	 ecx, DWORD PTR __First$[ebp]
  0006c	8d 04 81	 lea	 eax, DWORD PTR [ecx+eax*4]
; File C:\Program Files (x86)\Microsoft Visual Studio\2019\Community\VC\Tools\MSVC\14.28.29333\include\type_traits

; 1455 :     return static_cast<remove_reference_t<_Ty>&&>(_Arg);

  0006f	89 45 ec	 mov	 DWORD PTR $T3[ebp], eax
; File C:\Program Files (x86)\Microsoft Visual Studio\2019\Community\VC\Tools\MSVC\14.28.29333\include\algorithm

; 6202 :         *(_First + _Hole) = _STD move(*(_First + _Idx));

  00072	8b 45 0c	 mov	 eax, DWORD PTR __Hole$[ebp]
  00075	8b 4d 08	 mov	 ecx, DWORD PTR __First$[ebp]
  00078	8b 55 ec	 mov	 edx, DWORD PTR $T3[ebp]
  0007b	8b 12		 mov	 edx, DWORD PTR [edx]
  0007d	89 14 81	 mov	 DWORD PTR [ecx+eax*4], edx

; 6203 :         _Hole             = _Idx;

  00080	8b 45 fc	 mov	 eax, DWORD PTR __Idx$[ebp]
  00083	89 45 0c	 mov	 DWORD PTR __Hole$[ebp], eax

; 6204 :     }

  00086	eb 93		 jmp	 SHORT $LN2@Pop_heap_h
$LN3@Pop_heap_h:

; 6205 : 
; 6206 :     if (_Idx == _Max_sequence_non_leaf && _Bottom % 2 == 0) { // only child at bottom, move _Hole down to it

  00088	8b 45 fc	 mov	 eax, DWORD PTR __Idx$[ebp]
  0008b	3b 45 f8	 cmp	 eax, DWORD PTR __Max_sequence_non_leaf$[ebp]
  0008e	75 35		 jne	 SHORT $LN5@Pop_heap_h
  00090	8b 45 10	 mov	 eax, DWORD PTR __Bottom$[ebp]
  00093	25 01 00 00 80	 and	 eax, -2147483647	; 80000001H
  00098	79 05		 jns	 SHORT $LN75@Pop_heap_h
  0009a	48		 dec	 eax
  0009b	83 c8 fe	 or	 eax, -2			; fffffffeH
  0009e	40		 inc	 eax
$LN75@Pop_heap_h:
  0009f	85 c0		 test	 eax, eax
  000a1	75 22		 jne	 SHORT $LN5@Pop_heap_h

; 6207 :         *(_First + _Hole) = _STD move(*(_First + (_Bottom - 1)));

  000a3	8b 45 10	 mov	 eax, DWORD PTR __Bottom$[ebp]
  000a6	8b 4d 08	 mov	 ecx, DWORD PTR __First$[ebp]
  000a9	8d 44 81 fc	 lea	 eax, DWORD PTR [ecx+eax*4-4]
; File C:\Program Files (x86)\Microsoft Visual Studio\2019\Community\VC\Tools\MSVC\14.28.29333\include\type_traits

; 1455 :     return static_cast<remove_reference_t<_Ty>&&>(_Arg);

  000ad	89 45 e8	 mov	 DWORD PTR $T2[ebp], eax
; File C:\Program Files (x86)\Microsoft Visual Studio\2019\Community\VC\Tools\MSVC\14.28.29333\include\algorithm

; 6207 :         *(_First + _Hole) = _STD move(*(_First + (_Bottom - 1)));

  000b0	8b 45 0c	 mov	 eax, DWORD PTR __Hole$[ebp]
  000b3	8b 4d 08	 mov	 ecx, DWORD PTR __First$[ebp]
  000b6	8b 55 e8	 mov	 edx, DWORD PTR $T2[ebp]
  000b9	8b 12		 mov	 edx, DWORD PTR [edx]
  000bb	89 14 81	 mov	 DWORD PTR [ecx+eax*4], edx

; 6208 :         _Hole             = _Bottom - 1;

  000be	8b 45 10	 mov	 eax, DWORD PTR __Bottom$[ebp]
  000c1	48		 dec	 eax
  000c2	89 45 0c	 mov	 DWORD PTR __Hole$[ebp], eax
$LN5@Pop_heap_h:
; File C:\Program Files (x86)\Microsoft Visual Studio\2019\Community\VC\Tools\MSVC\14.28.29333\include\type_traits

; 1443 :     return static_cast<_Ty&&>(_Arg);

  000c5	8b 45 14	 mov	 eax, DWORD PTR __Val$[ebp]
  000c8	89 45 e4	 mov	 DWORD PTR $T1[ebp], eax
; File C:\Program Files (x86)\Microsoft Visual Studio\2019\Community\VC\Tools\MSVC\14.28.29333\include\algorithm

; 6211 :     _Push_heap_by_index(_First, _Hole, _Top, _STD forward<_Ty>(_Val), _Pred);

  000cb	ff 75 18	 push	 DWORD PTR __Pred$[ebp]
  000ce	ff 75 e4	 push	 DWORD PTR $T1[ebp]
  000d1	ff 75 e0	 push	 DWORD PTR __Top$[ebp]
  000d4	ff 75 0c	 push	 DWORD PTR __Hole$[ebp]
  000d7	ff 75 08	 push	 DWORD PTR __First$[ebp]
  000da	e8 00 00 00 00	 call	 ??$_Push_heap_by_index@PAPAVCGraphicObjectInstance@@PAV1@U?$_Ref_fn@UFPCBlockerDistanceSort@@@std@@@std@@YAXPAPAVCGraphicObjectInstance@@HH$$QAPAV1@U?$_Ref_fn@UFPCBlockerDistanceSort@@@0@@Z ; std::_Push_heap_by_index<CGraphicObjectInstance * *,CGraphicObjectInstance *,std::_Ref_fn<FPCBlockerDistanceSort> >
  000df	83 c4 14	 add	 esp, 20			; 00000014H

; 6212 : }

  000e2	c9		 leave
  000e3	c3		 ret	 0
??$_Pop_heap_hole_by_index@PAPAVCGraphicObjectInstance@@PAV1@U?$_Ref_fn@UFPCBlockerDistanceSort@@@std@@@std@@YAXPAPAVCGraphicObjectInstance@@HH$$QAPAV1@U?$_Ref_fn@UFPCBlockerDistanceSort@@@0@@Z ENDP ; std::_Pop_heap_hole_by_index<CGraphicObjectInstance * *,CGraphicObjectInstance *,std::_Ref_fn<FPCBlockerDistanceSort> >
_TEXT	ENDS
; Function compile flags: /Odspy
; File C:\Program Files (x86)\Microsoft Visual Studio\2019\Community\VC\Tools\MSVC\14.28.29333\include\xmemory
;	COMDAT ??$_Refancy@PAPAVCGraphicObjectInstance@@$0A@@std@@YAPAPAVCGraphicObjectInstance@@PAPAV1@@Z
_TEXT	SEGMENT
__Ptr$ = 8						; size = 4
??$_Refancy@PAPAVCGraphicObjectInstance@@$0A@@std@@YAPAPAVCGraphicObjectInstance@@PAPAV1@@Z PROC ; std::_Refancy<CGraphicObjectInstance * *,0>, COMDAT

; 261  : _Pointer _Refancy(_Pointer _Ptr) noexcept {

  00000	55		 push	 ebp
  00001	8b ec		 mov	 ebp, esp

; 262  :     return _Ptr;

  00003	8b 45 08	 mov	 eax, DWORD PTR __Ptr$[ebp]

; 263  : }

  00006	5d		 pop	 ebp
  00007	c3		 ret	 0
??$_Refancy@PAPAVCGraphicObjectInstance@@$0A@@std@@YAPAPAVCGraphicObjectInstance@@PAPAV1@@Z ENDP ; std::_Refancy<CGraphicObjectInstance * *,0>
_TEXT	ENDS
; Function compile flags: /Odspy
; File C:\Program Files (x86)\Microsoft Visual Studio\2019\Community\VC\Tools\MSVC\14.28.29333\include\xmemory
;	COMDAT ??$_Refancy@PAPAVCTerrain@@$0A@@std@@YAPAPAVCTerrain@@PAPAV1@@Z
_TEXT	SEGMENT
__Ptr$ = 8						; size = 4
??$_Refancy@PAPAVCTerrain@@$0A@@std@@YAPAPAVCTerrain@@PAPAV1@@Z PROC ; std::_Refancy<CTerrain * *,0>, COMDAT

; 261  : _Pointer _Refancy(_Pointer _Ptr) noexcept {

  00000	55		 push	 ebp
  00001	8b ec		 mov	 ebp, esp

; 262  :     return _Ptr;

  00003	8b 45 08	 mov	 eax, DWORD PTR __Ptr$[ebp]

; 263  : }

  00006	5d		 pop	 ebp
  00007	c3		 ret	 0
??$_Refancy@PAPAVCTerrain@@$0A@@std@@YAPAPAVCTerrain@@PAPAV1@@Z ENDP ; std::_Refancy<CTerrain * *,0>
_TEXT	ENDS
; Function compile flags: /Odspy
; File C:\Program Files (x86)\Microsoft Visual Studio\2019\Community\VC\Tools\MSVC\14.28.29333\include\xmemory
;	COMDAT ??$_Refancy@PAPAVCArea@@$0A@@std@@YAPAPAVCArea@@PAPAV1@@Z
_TEXT	SEGMENT
__Ptr$ = 8						; size = 4
??$_Refancy@PAPAVCArea@@$0A@@std@@YAPAPAVCArea@@PAPAV1@@Z PROC ; std::_Refancy<CArea * *,0>, COMDAT

; 261  : _Pointer _Refancy(_Pointer _Ptr) noexcept {

  00000	55		 push	 ebp
  00001	8b ec		 mov	 ebp, esp

; 262  :     return _Ptr;

  00003	8b 45 08	 mov	 eax, DWORD PTR __Ptr$[ebp]

; 263  : }

  00006	5d		 pop	 ebp
  00007	c3		 ret	 0
??$_Refancy@PAPAVCArea@@$0A@@std@@YAPAPAVCArea@@PAPAV1@@Z ENDP ; std::_Refancy<CArea * *,0>
_TEXT	ENDS
; Function compile flags: /Odspy
; File C:\Program Files (x86)\Microsoft Visual Studio\2019\Community\VC\Tools\MSVC\14.28.29333\include\xutility
;	COMDAT ??$_Copy_memmove@PAPAVCGraphicObjectInstance@@PAPAV1@@std@@YAPAPAVCGraphicObjectInstance@@PAPAV1@00@Z
_TEXT	SEGMENT
__Last_ch$ = -16					; size = 4
__Count$ = -12						; size = 4
__Dest_ch$ = -8						; size = 4
__First_ch$ = -4					; size = 4
__First$ = 8						; size = 4
__Last$ = 12						; size = 4
__Dest$ = 16						; size = 4
??$_Copy_memmove@PAPAVCGraphicObjectInstance@@PAPAV1@@std@@YAPAPAVCGraphicObjectInstance@@PAPAV1@00@Z PROC ; std::_Copy_memmove<CGraphicObjectInstance * *,CGraphicObjectInstance * *>, COMDAT

; 4360 : _OutIt _Copy_memmove(_InIt _First, _InIt _Last, _OutIt _Dest) {

  00000	55		 push	 ebp
  00001	8b ec		 mov	 ebp, esp
  00003	83 ec 10	 sub	 esp, 16			; 00000010H

; 4361 :     const char* const _First_ch = const_cast<const char*>(reinterpret_cast<const volatile char*>(_First));

  00006	8b 45 08	 mov	 eax, DWORD PTR __First$[ebp]
  00009	89 45 fc	 mov	 DWORD PTR __First_ch$[ebp], eax

; 4362 :     const char* const _Last_ch  = const_cast<const char*>(reinterpret_cast<const volatile char*>(_Last));

  0000c	8b 45 0c	 mov	 eax, DWORD PTR __Last$[ebp]
  0000f	89 45 f0	 mov	 DWORD PTR __Last_ch$[ebp], eax

; 4363 :     char* const _Dest_ch        = const_cast<char*>(reinterpret_cast<volatile char*>(_Dest));

  00012	8b 45 10	 mov	 eax, DWORD PTR __Dest$[ebp]
  00015	89 45 f8	 mov	 DWORD PTR __Dest_ch$[ebp], eax

; 4364 :     const auto _Count           = static_cast<size_t>(_Last_ch - _First_ch);

  00018	8b 45 f0	 mov	 eax, DWORD PTR __Last_ch$[ebp]
  0001b	2b 45 fc	 sub	 eax, DWORD PTR __First_ch$[ebp]
  0001e	89 45 f4	 mov	 DWORD PTR __Count$[ebp], eax

; 4365 :     _CSTD memmove(_Dest_ch, _First_ch, _Count);

  00021	ff 75 f4	 push	 DWORD PTR __Count$[ebp]
  00024	ff 75 fc	 push	 DWORD PTR __First_ch$[ebp]
  00027	ff 75 f8	 push	 DWORD PTR __Dest_ch$[ebp]
  0002a	e8 00 00 00 00	 call	 _memmove
  0002f	83 c4 0c	 add	 esp, 12			; 0000000cH

; 4366 :     return reinterpret_cast<_OutIt>(_Dest_ch + _Count);

  00032	8b 45 f8	 mov	 eax, DWORD PTR __Dest_ch$[ebp]
  00035	03 45 f4	 add	 eax, DWORD PTR __Count$[ebp]

; 4367 : }

  00038	c9		 leave
  00039	c3		 ret	 0
??$_Copy_memmove@PAPAVCGraphicObjectInstance@@PAPAV1@@std@@YAPAPAVCGraphicObjectInstance@@PAPAV1@00@Z ENDP ; std::_Copy_memmove<CGraphicObjectInstance * *,CGraphicObjectInstance * *>
_TEXT	ENDS
; Function compile flags: /Odspy
; File C:\Program Files (x86)\Microsoft Visual Studio\2019\Community\VC\Tools\MSVC\14.28.29333\include\xmemory
;	COMDAT ??$_Zero_range@PAPAVCTerrain@@@std@@YAPAPAVCTerrain@@QAPAV1@0@Z
_TEXT	SEGMENT
__Last_ch$ = -8						; size = 4
__First_ch$ = -4					; size = 4
__First$ = 8						; size = 4
__Last$ = 12						; size = 4
??$_Zero_range@PAPAVCTerrain@@@std@@YAPAPAVCTerrain@@QAPAV1@0@Z PROC ; std::_Zero_range<CTerrain * *>, COMDAT

; 1852 : _Ptr _Zero_range(const _Ptr _First, const _Ptr _Last) { // fill [_First, _Last) with zeroes

  00000	55		 push	 ebp
  00001	8b ec		 mov	 ebp, esp
  00003	51		 push	 ecx
  00004	51		 push	 ecx

; 1853 :     char* const _First_ch = reinterpret_cast<char*>(_First);

  00005	8b 45 08	 mov	 eax, DWORD PTR __First$[ebp]
  00008	89 45 fc	 mov	 DWORD PTR __First_ch$[ebp], eax

; 1854 :     char* const _Last_ch  = reinterpret_cast<char*>(_Last);

  0000b	8b 45 0c	 mov	 eax, DWORD PTR __Last$[ebp]
  0000e	89 45 f8	 mov	 DWORD PTR __Last_ch$[ebp], eax

; 1855 :     _CSTD memset(_First_ch, 0, static_cast<size_t>(_Last_ch - _First_ch));

  00011	8b 45 f8	 mov	 eax, DWORD PTR __Last_ch$[ebp]
  00014	2b 45 fc	 sub	 eax, DWORD PTR __First_ch$[ebp]
  00017	50		 push	 eax
  00018	6a 00		 push	 0
  0001a	ff 75 fc	 push	 DWORD PTR __First_ch$[ebp]
  0001d	e8 00 00 00 00	 call	 _memset
  00022	83 c4 0c	 add	 esp, 12			; 0000000cH

; 1856 :     return _Last;

  00025	8b 45 0c	 mov	 eax, DWORD PTR __Last$[ebp]

; 1857 : }

  00028	c9		 leave
  00029	c3		 ret	 0
??$_Zero_range@PAPAVCTerrain@@@std@@YAPAPAVCTerrain@@QAPAV1@0@Z ENDP ; std::_Zero_range<CTerrain * *>
_TEXT	ENDS
; Function compile flags: /Odspy
; File C:\Program Files (x86)\Microsoft Visual Studio\2019\Community\VC\Tools\MSVC\14.28.29333\include\xmemory
;	COMDAT ??$_Zero_range@PAPAVCArea@@@std@@YAPAPAVCArea@@QAPAV1@0@Z
_TEXT	SEGMENT
__Last_ch$ = -8						; size = 4
__First_ch$ = -4					; size = 4
__First$ = 8						; size = 4
__Last$ = 12						; size = 4
??$_Zero_range@PAPAVCArea@@@std@@YAPAPAVCArea@@QAPAV1@0@Z PROC ; std::_Zero_range<CArea * *>, COMDAT

; 1852 : _Ptr _Zero_range(const _Ptr _First, const _Ptr _Last) { // fill [_First, _Last) with zeroes

  00000	55		 push	 ebp
  00001	8b ec		 mov	 ebp, esp
  00003	51		 push	 ecx
  00004	51		 push	 ecx

; 1853 :     char* const _First_ch = reinterpret_cast<char*>(_First);

  00005	8b 45 08	 mov	 eax, DWORD PTR __First$[ebp]
  00008	89 45 fc	 mov	 DWORD PTR __First_ch$[ebp], eax

; 1854 :     char* const _Last_ch  = reinterpret_cast<char*>(_Last);

  0000b	8b 45 0c	 mov	 eax, DWORD PTR __Last$[ebp]
  0000e	89 45 f8	 mov	 DWORD PTR __Last_ch$[ebp], eax

; 1855 :     _CSTD memset(_First_ch, 0, static_cast<size_t>(_Last_ch - _First_ch));

  00011	8b 45 f8	 mov	 eax, DWORD PTR __Last_ch$[ebp]
  00014	2b 45 fc	 sub	 eax, DWORD PTR __First_ch$[ebp]
  00017	50		 push	 eax
  00018	6a 00		 push	 0
  0001a	ff 75 fc	 push	 DWORD PTR __First_ch$[ebp]
  0001d	e8 00 00 00 00	 call	 _memset
  00022	83 c4 0c	 add	 esp, 12			; 0000000cH

; 1856 :     return _Last;

  00025	8b 45 0c	 mov	 eax, DWORD PTR __Last$[ebp]

; 1857 : }

  00028	c9		 leave
  00029	c3		 ret	 0
??$_Zero_range@PAPAVCArea@@@std@@YAPAPAVCArea@@QAPAV1@0@Z ENDP ; std::_Zero_range<CArea * *>
_TEXT	ENDS
; Function compile flags: /Odspy
; File C:\Program Files (x86)\Microsoft Visual Studio\2019\Community\VC\Tools\MSVC\14.28.29333\include\algorithm
; File C:\Program Files (x86)\Microsoft Visual Studio\2019\Community\VC\Tools\MSVC\14.28.29333\include\xutility
; File C:\Program Files (x86)\Microsoft Visual Studio\2019\Community\VC\Tools\MSVC\14.28.29333\include\algorithm
; File C:\Program Files (x86)\Microsoft Visual Studio\2019\Community\VC\Tools\MSVC\14.28.29333\include\xutility
; File C:\Program Files (x86)\Microsoft Visual Studio\2019\Community\VC\Tools\MSVC\14.28.29333\include\algorithm
; File C:\Program Files (x86)\Microsoft Visual Studio\2019\Community\VC\Tools\MSVC\14.28.29333\include\xutility
; File C:\Program Files (x86)\Microsoft Visual Studio\2019\Community\VC\Tools\MSVC\14.28.29333\include\algorithm
; File C:\Program Files (x86)\Microsoft Visual Studio\2019\Community\VC\Tools\MSVC\14.28.29333\include\type_traits
; File C:\Program Files (x86)\Microsoft Visual Studio\2019\Community\VC\Tools\MSVC\14.28.29333\include\xutility
; File C:\Program Files (x86)\Microsoft Visual Studio\2019\Community\VC\Tools\MSVC\14.28.29333\include\algorithm
; File C:\Program Files (x86)\Microsoft Visual Studio\2019\Community\VC\Tools\MSVC\14.28.29333\include\xutility
; File C:\Program Files (x86)\Microsoft Visual Studio\2019\Community\VC\Tools\MSVC\14.28.29333\include\algorithm
; File C:\Program Files (x86)\Microsoft Visual Studio\2019\Community\VC\Tools\MSVC\14.28.29333\include\type_traits
; File C:\Program Files (x86)\Microsoft Visual Studio\2019\Community\VC\Tools\MSVC\14.28.29333\include\xutility
; File C:\Program Files (x86)\Microsoft Visual Studio\2019\Community\VC\Tools\MSVC\14.28.29333\include\algorithm
; File C:\Program Files (x86)\Microsoft Visual Studio\2019\Community\VC\Tools\MSVC\14.28.29333\include\type_traits
; File C:\Program Files (x86)\Microsoft Visual Studio\2019\Community\VC\Tools\MSVC\14.28.29333\include\xutility
; File C:\Program Files (x86)\Microsoft Visual Studio\2019\Community\VC\Tools\MSVC\14.28.29333\include\algorithm
; File C:\Program Files (x86)\Microsoft Visual Studio\2019\Community\VC\Tools\MSVC\14.28.29333\include\type_traits
; File C:\Program Files (x86)\Microsoft Visual Studio\2019\Community\VC\Tools\MSVC\14.28.29333\include\xutility
; File C:\Program Files (x86)\Microsoft Visual Studio\2019\Community\VC\Tools\MSVC\14.28.29333\include\algorithm
; File C:\Program Files (x86)\Microsoft Visual Studio\2019\Community\VC\Tools\MSVC\14.28.29333\include\type_traits
; File C:\Program Files (x86)\Microsoft Visual Studio\2019\Community\VC\Tools\MSVC\14.28.29333\include\xutility
; File C:\Program Files (x86)\Microsoft Visual Studio\2019\Community\VC\Tools\MSVC\14.28.29333\include\algorithm
; File C:\Program Files (x86)\Microsoft Visual Studio\2019\Community\VC\Tools\MSVC\14.28.29333\include\type_traits
; File C:\Program Files (x86)\Microsoft Visual Studio\2019\Community\VC\Tools\MSVC\14.28.29333\include\xutility
; File C:\Program Files (x86)\Microsoft Visual Studio\2019\Community\VC\Tools\MSVC\14.28.29333\include\algorithm
; File C:\Program Files (x86)\Microsoft Visual Studio\2019\Community\VC\Tools\MSVC\14.28.29333\include\type_traits
; File C:\Program Files (x86)\Microsoft Visual Studio\2019\Community\VC\Tools\MSVC\14.28.29333\include\utility
; File C:\Program Files (x86)\Microsoft Visual Studio\2019\Community\VC\Tools\MSVC\14.28.29333\include\type_traits
; File C:\Program Files (x86)\Microsoft Visual Studio\2019\Community\VC\Tools\MSVC\14.28.29333\include\utility
; File C:\Program Files (x86)\Microsoft Visual Studio\2019\Community\VC\Tools\MSVC\14.28.29333\include\type_traits
; File C:\Program Files (x86)\Microsoft Visual Studio\2019\Community\VC\Tools\MSVC\14.28.29333\include\utility
; File C:\Program Files (x86)\Microsoft Visual Studio\2019\Community\VC\Tools\MSVC\14.28.29333\include\algorithm
; File C:\Program Files (x86)\Microsoft Visual Studio\2019\Community\VC\Tools\MSVC\14.28.29333\include\xutility
; File C:\Program Files (x86)\Microsoft Visual Studio\2019\Community\VC\Tools\MSVC\14.28.29333\include\algorithm
; File C:\Program Files (x86)\Microsoft Visual Studio\2019\Community\VC\Tools\MSVC\14.28.29333\include\type_traits
; File C:\Program Files (x86)\Microsoft Visual Studio\2019\Community\VC\Tools\MSVC\14.28.29333\include\xutility
; File C:\Program Files (x86)\Microsoft Visual Studio\2019\Community\VC\Tools\MSVC\14.28.29333\include\algorithm
; File C:\Program Files (x86)\Microsoft Visual Studio\2019\Community\VC\Tools\MSVC\14.28.29333\include\xutility
; File C:\Program Files (x86)\Microsoft Visual Studio\2019\Community\VC\Tools\MSVC\14.28.29333\include\algorithm
; File C:\Program Files (x86)\Microsoft Visual Studio\2019\Community\VC\Tools\MSVC\14.28.29333\include\type_traits
; File C:\Program Files (x86)\Microsoft Visual Studio\2019\Community\VC\Tools\MSVC\14.28.29333\include\xutility
; File C:\Program Files (x86)\Microsoft Visual Studio\2019\Community\VC\Tools\MSVC\14.28.29333\include\algorithm
; File C:\Program Files (x86)\Microsoft Visual Studio\2019\Community\VC\Tools\MSVC\14.28.29333\include\xutility
; File C:\Program Files (x86)\Microsoft Visual Studio\2019\Community\VC\Tools\MSVC\14.28.29333\include\algorithm
; File C:\Program Files (x86)\Microsoft Visual Studio\2019\Community\VC\Tools\MSVC\14.28.29333\include\xutility
; File C:\Program Files (x86)\Microsoft Visual Studio\2019\Community\VC\Tools\MSVC\14.28.29333\include\algorithm
; File C:\Program Files (x86)\Microsoft Visual Studio\2019\Community\VC\Tools\MSVC\14.28.29333\include\type_traits
; File C:\Program Files (x86)\Microsoft Visual Studio\2019\Community\VC\Tools\MSVC\14.28.29333\include\utility
; File C:\Program Files (x86)\Microsoft Visual Studio\2019\Community\VC\Tools\MSVC\14.28.29333\include\type_traits
; File C:\Program Files (x86)\Microsoft Visual Studio\2019\Community\VC\Tools\MSVC\14.28.29333\include\utility
; File C:\Program Files (x86)\Microsoft Visual Studio\2019\Community\VC\Tools\MSVC\14.28.29333\include\type_traits
; File C:\Program Files (x86)\Microsoft Visual Studio\2019\Community\VC\Tools\MSVC\14.28.29333\include\utility
; File C:\Program Files (x86)\Microsoft Visual Studio\2019\Community\VC\Tools\MSVC\14.28.29333\include\algorithm
; File C:\Program Files (x86)\Microsoft Visual Studio\2019\Community\VC\Tools\MSVC\14.28.29333\include\type_traits
; File C:\Program Files (x86)\Microsoft Visual Studio\2019\Community\VC\Tools\MSVC\14.28.29333\include\utility
; File C:\Program Files (x86)\Microsoft Visual Studio\2019\Community\VC\Tools\MSVC\14.28.29333\include\type_traits
; File C:\Program Files (x86)\Microsoft Visual Studio\2019\Community\VC\Tools\MSVC\14.28.29333\include\utility
; File C:\Program Files (x86)\Microsoft Visual Studio\2019\Community\VC\Tools\MSVC\14.28.29333\include\algorithm
; File C:\Program Files (x86)\Microsoft Visual Studio\2019\Community\VC\Tools\MSVC\14.28.29333\include\type_traits
; File C:\Program Files (x86)\Microsoft Visual Studio\2019\Community\VC\Tools\MSVC\14.28.29333\include\utility
; File C:\Program Files (x86)\Microsoft Visual Studio\2019\Community\VC\Tools\MSVC\14.28.29333\include\type_traits
; File C:\Program Files (x86)\Microsoft Visual Studio\2019\Community\VC\Tools\MSVC\14.28.29333\include\utility
; File C:\Program Files (x86)\Microsoft Visual Studio\2019\Community\VC\Tools\MSVC\14.28.29333\include\type_traits
; File C:\Program Files (x86)\Microsoft Visual Studio\2019\Community\VC\Tools\MSVC\14.28.29333\include\utility
; File C:\Program Files (x86)\Microsoft Visual Studio\2019\Community\VC\Tools\MSVC\14.28.29333\include\algorithm
; File C:\Program Files (x86)\Microsoft Visual Studio\2019\Community\VC\Tools\MSVC\14.28.29333\include\type_traits
; File C:\Program Files (x86)\Microsoft Visual Studio\2019\Community\VC\Tools\MSVC\14.28.29333\include\utility
; File C:\Program Files (x86)\Microsoft Visual Studio\2019\Community\VC\Tools\MSVC\14.28.29333\include\type_traits
; File C:\Program Files (x86)\Microsoft Visual Studio\2019\Community\VC\Tools\MSVC\14.28.29333\include\utility
; File C:\Program Files (x86)\Microsoft Visual Studio\2019\Community\VC\Tools\MSVC\14.28.29333\include\type_traits
; File C:\Program Files (x86)\Microsoft Visual Studio\2019\Community\VC\Tools\MSVC\14.28.29333\include\utility
; File C:\Program Files (x86)\Microsoft Visual Studio\2019\Community\VC\Tools\MSVC\14.28.29333\include\algorithm
; File C:\Program Files (x86)\Microsoft Visual Studio\2019\Community\VC\Tools\MSVC\14.28.29333\include\type_traits
; File C:\Program Files (x86)\Microsoft Visual Studio\2019\Community\VC\Tools\MSVC\14.28.29333\include\utility
; File C:\Program Files (x86)\Microsoft Visual Studio\2019\Community\VC\Tools\MSVC\14.28.29333\include\type_traits
; File C:\Program Files (x86)\Microsoft Visual Studio\2019\Community\VC\Tools\MSVC\14.28.29333\include\utility
; File C:\Program Files (x86)\Microsoft Visual Studio\2019\Community\VC\Tools\MSVC\14.28.29333\include\type_traits
; File C:\Program Files (x86)\Microsoft Visual Studio\2019\Community\VC\Tools\MSVC\14.28.29333\include\utility
; File C:\Program Files (x86)\Microsoft Visual Studio\2019\Community\VC\Tools\MSVC\14.28.29333\include\algorithm
; File C:\Program Files (x86)\Microsoft Visual Studio\2019\Community\VC\Tools\MSVC\14.28.29333\include\type_traits
; File C:\Program Files (x86)\Microsoft Visual Studio\2019\Community\VC\Tools\MSVC\14.28.29333\include\utility
; File C:\Program Files (x86)\Microsoft Visual Studio\2019\Community\VC\Tools\MSVC\14.28.29333\include\type_traits
; File C:\Program Files (x86)\Microsoft Visual Studio\2019\Community\VC\Tools\MSVC\14.28.29333\include\utility
; File C:\Program Files (x86)\Microsoft Visual Studio\2019\Community\VC\Tools\MSVC\14.28.29333\include\type_traits
; File C:\Program Files (x86)\Microsoft Visual Studio\2019\Community\VC\Tools\MSVC\14.28.29333\include\utility
; File C:\Program Files (x86)\Microsoft Visual Studio\2019\Community\VC\Tools\MSVC\14.28.29333\include\algorithm
; File C:\Program Files (x86)\Microsoft Visual Studio\2019\Community\VC\Tools\MSVC\14.28.29333\include\type_traits
; File C:\Program Files (x86)\Microsoft Visual Studio\2019\Community\VC\Tools\MSVC\14.28.29333\include\utility
; File C:\Program Files (x86)\Microsoft Visual Studio\2019\Community\VC\Tools\MSVC\14.28.29333\include\type_traits
; File C:\Program Files (x86)\Microsoft Visual Studio\2019\Community\VC\Tools\MSVC\14.28.29333\include\utility
; File C:\Program Files (x86)\Microsoft Visual Studio\2019\Community\VC\Tools\MSVC\14.28.29333\include\type_traits
; File C:\Program Files (x86)\Microsoft Visual Studio\2019\Community\VC\Tools\MSVC\14.28.29333\include\utility
; File C:\Program Files (x86)\Microsoft Visual Studio\2019\Community\VC\Tools\MSVC\14.28.29333\include\algorithm
;	COMDAT ??$_Partition_by_median_guess_unchecked@PAPAVCGraphicObjectInstance@@U?$_Ref_fn@UFPCBlockerDistanceSort@@@std@@@std@@YA?AU?$pair@PAPAVCGraphicObjectInstance@@PAPAV1@@0@PAPAVCGraphicObjectInstance@@0U?$_Ref_fn@UFPCBlockerDistanceSort@@@0@@Z
_TEXT	SEGMENT
$T1 = -204						; size = 4
__Tmp$2 = -200						; size = 4
$T3 = -196						; size = 4
$T4 = -192						; size = 4
$T5 = -188						; size = 4
__Tmp$6 = -184						; size = 4
$T7 = -180						; size = 4
$T8 = -176						; size = 4
$T9 = -172						; size = 4
__Tmp$10 = -168						; size = 4
$T11 = -164						; size = 4
$T12 = -160						; size = 4
$T13 = -156						; size = 4
__Tmp$14 = -152						; size = 4
$T15 = -148						; size = 4
$T16 = -144						; size = 4
$T17 = -140						; size = 4
__Tmp$18 = -136						; size = 4
$T19 = -132						; size = 4
$T20 = -128						; size = 4
$T21 = -124						; size = 4
$T22 = -120						; size = 4
$T23 = -116						; size = 4
__Tmp$24 = -112						; size = 4
$T25 = -108						; size = 4
$T26 = -104						; size = 4
$T27 = -100						; size = 4
$T28 = -96						; size = 4
_<_Vals_0>$ = -92					; size = 4
$T29 = -88						; size = 4
$T30 = -84						; size = 4
_<_Vals_1>$ = -80					; size = 4
$T31 = -76						; size = 4
__Tmp$32 = -72						; size = 4
$T33 = -68						; size = 4
$T34 = -64						; size = 4
$T35 = -60						; size = 4
$T36 = -56						; size = 4
_<_Vals_1>$ = -52					; size = 4
$T37 = -48						; size = 4
$T38 = -44						; size = 4
_<_Vals_0>$ = -40					; size = 4
$T39 = -36						; size = 4
$T40 = -32						; size = 4
_<_Vals_0>$ = -28					; size = 4
_<_Vals_1>$ = -24					; size = 4
$T41 = -20						; size = 4
$T42 = -16						; size = 4
_<_Vals_0>$ = -12					; size = 4
_<_Vals_1>$ = -8					; size = 4
$T43 = -4						; size = 4
$T44 = 0						; size = 4
_<_Vals_0>$ = 4						; size = 4
$T45 = 8						; size = 4
$T46 = 12						; size = 4
_<_Vals_1>$ = 16					; size = 4
__Right$ = 20						; size = 4
__Left$ = 24						; size = 4
__Right$ = 28						; size = 4
__Left$ = 32						; size = 4
__Right$ = 36						; size = 4
__Left$ = 40						; size = 4
__Left$ = 44						; size = 4
__Left$ = 48						; size = 4
__Mid$ = 52						; size = 4
__First$ = 56						; size = 4
__First$ = 60						; size = 4
__First$ = 64						; size = 4
__First$ = 68						; size = 4
__First$ = 72						; size = 4
__First$ = 76						; size = 4
__First$ = 80						; size = 4
__First$ = 84						; size = 4
__Glast$ = 88						; size = 4
__Gfirst$ = 92						; size = 4
__Plast$ = 96						; size = 4
__Pfirst$ = 100						; size = 4
___$ReturnUdt$ = 112					; size = 4
__First$ = 116						; size = 4
__Last$ = 120						; size = 4
__Pred$ = 124						; size = 4
??$_Partition_by_median_guess_unchecked@PAPAVCGraphicObjectInstance@@U?$_Ref_fn@UFPCBlockerDistanceSort@@@std@@@std@@YA?AU?$pair@PAPAVCGraphicObjectInstance@@PAPAV1@@0@PAPAVCGraphicObjectInstance@@0U?$_Ref_fn@UFPCBlockerDistanceSort@@@0@@Z PROC ; std::_Partition_by_median_guess_unchecked<CGraphicObjectInstance * *,std::_Ref_fn<FPCBlockerDistanceSort> >, COMDAT

; 7467 : _CONSTEXPR20 pair<_RanIt, _RanIt> _Partition_by_median_guess_unchecked(_RanIt _First, _RanIt _Last, _Pr _Pred) {

  00000	55		 push	 ebp
  00001	8d 6c 24 98	 lea	 ebp, DWORD PTR [esp-104]
  00005	81 ec 34 01 00
	00		 sub	 esp, 308		; 00000134H

; 7468 :     // partition [_First, _Last)
; 7469 :     _RanIt _Mid = _First + ((_Last - _First) >> 1); // shift for codegen

  0000b	8b 45 78	 mov	 eax, DWORD PTR __Last$[ebp]
  0000e	2b 45 74	 sub	 eax, DWORD PTR __First$[ebp]
  00011	c1 f8 02	 sar	 eax, 2
  00014	d1 f8		 sar	 eax, 1
  00016	8b 4d 74	 mov	 ecx, DWORD PTR __First$[ebp]
  00019	8d 04 81	 lea	 eax, DWORD PTR [ecx+eax*4]
  0001c	89 45 34	 mov	 DWORD PTR __Mid$[ebp], eax

; 7470 :     _Guess_median_unchecked(_First, _Mid, _Prev_iter(_Last), _Pred);

  0001f	8b 45 78	 mov	 eax, DWORD PTR __Last$[ebp]
  00022	89 45 50	 mov	 DWORD PTR __First$[ebp], eax
; File C:\Program Files (x86)\Microsoft Visual Studio\2019\Community\VC\Tools\MSVC\14.28.29333\include\xutility

; 1852 :     return --_First;

  00025	8b 45 50	 mov	 eax, DWORD PTR __First$[ebp]
  00028	83 e8 04	 sub	 eax, 4
  0002b	89 45 50	 mov	 DWORD PTR __First$[ebp], eax
; File C:\Program Files (x86)\Microsoft Visual Studio\2019\Community\VC\Tools\MSVC\14.28.29333\include\algorithm

; 7470 :     _Guess_median_unchecked(_First, _Mid, _Prev_iter(_Last), _Pred);

  0002e	ff 75 7c	 push	 DWORD PTR __Pred$[ebp]
  00031	ff 75 50	 push	 DWORD PTR __First$[ebp]
  00034	ff 75 34	 push	 DWORD PTR __Mid$[ebp]
  00037	ff 75 74	 push	 DWORD PTR __First$[ebp]
  0003a	e8 00 00 00 00	 call	 ??$_Guess_median_unchecked@PAPAVCGraphicObjectInstance@@U?$_Ref_fn@UFPCBlockerDistanceSort@@@std@@@std@@YAXPAPAVCGraphicObjectInstance@@00U?$_Ref_fn@UFPCBlockerDistanceSort@@@0@@Z ; std::_Guess_median_unchecked<CGraphicObjectInstance * *,std::_Ref_fn<FPCBlockerDistanceSort> >
  0003f	83 c4 10	 add	 esp, 16			; 00000010H

; 7471 :     _RanIt _Pfirst = _Mid;

  00042	8b 45 34	 mov	 eax, DWORD PTR __Mid$[ebp]
  00045	89 45 64	 mov	 DWORD PTR __Pfirst$[ebp], eax

; 7472 :     _RanIt _Plast  = _Next_iter(_Pfirst);

  00048	8b 45 64	 mov	 eax, DWORD PTR __Pfirst$[ebp]
  0004b	89 45 4c	 mov	 DWORD PTR __First$[ebp], eax
; File C:\Program Files (x86)\Microsoft Visual Studio\2019\Community\VC\Tools\MSVC\14.28.29333\include\xutility

; 1837 :     return ++_First;

  0004e	8b 45 4c	 mov	 eax, DWORD PTR __First$[ebp]
  00051	83 c0 04	 add	 eax, 4
  00054	89 45 4c	 mov	 DWORD PTR __First$[ebp], eax
; File C:\Program Files (x86)\Microsoft Visual Studio\2019\Community\VC\Tools\MSVC\14.28.29333\include\algorithm

; 7472 :     _RanIt _Plast  = _Next_iter(_Pfirst);

  00057	8b 45 4c	 mov	 eax, DWORD PTR __First$[ebp]
  0005a	89 45 60	 mov	 DWORD PTR __Plast$[ebp], eax
$LN2@Partition_:

; 7475 :            && !_Pred(*_Pfirst, *_Prev_iter(_Pfirst))) {

  0005d	8b 45 74	 mov	 eax, DWORD PTR __First$[ebp]
  00060	3b 45 64	 cmp	 eax, DWORD PTR __Pfirst$[ebp]
  00063	0f 83 82 00 00
	00		 jae	 $LN4@Partition_
  00069	8b 45 64	 mov	 eax, DWORD PTR __Pfirst$[ebp]
  0006c	89 45 48	 mov	 DWORD PTR __First$[ebp], eax
; File C:\Program Files (x86)\Microsoft Visual Studio\2019\Community\VC\Tools\MSVC\14.28.29333\include\xutility

; 1852 :     return --_First;

  0006f	8b 45 48	 mov	 eax, DWORD PTR __First$[ebp]
  00072	83 e8 04	 sub	 eax, 4
  00075	89 45 48	 mov	 DWORD PTR __First$[ebp], eax
; File C:\Program Files (x86)\Microsoft Visual Studio\2019\Community\VC\Tools\MSVC\14.28.29333\include\algorithm

; 7475 :            && !_Pred(*_Pfirst, *_Prev_iter(_Pfirst))) {

  00078	8b 45 64	 mov	 eax, DWORD PTR __Pfirst$[ebp]
  0007b	89 45 10	 mov	 DWORD PTR _<_Vals_1>$[ebp], eax
; File C:\Program Files (x86)\Microsoft Visual Studio\2019\Community\VC\Tools\MSVC\14.28.29333\include\type_traits

; 1443 :     return static_cast<_Ty&&>(_Arg);

  0007e	8b 45 10	 mov	 eax, DWORD PTR _<_Vals_1>$[ebp]
  00081	89 45 0c	 mov	 DWORD PTR $T46[ebp], eax
  00084	8b 45 48	 mov	 eax, DWORD PTR __First$[ebp]
  00087	89 45 08	 mov	 DWORD PTR $T45[ebp], eax
; File C:\Program Files (x86)\Microsoft Visual Studio\2019\Community\VC\Tools\MSVC\14.28.29333\include\xutility

; 203  :             return _Fn(_STD forward<_Args>(_Vals)...);

  0008a	8b 45 0c	 mov	 eax, DWORD PTR $T46[ebp]
  0008d	ff 30		 push	 DWORD PTR [eax]
  0008f	8b 45 08	 mov	 eax, DWORD PTR $T45[ebp]
  00092	ff 30		 push	 DWORD PTR [eax]
  00094	8b 4d 7c	 mov	 ecx, DWORD PTR __Pred$[ebp]
  00097	e8 00 00 00 00	 call	 ??RFPCBlockerDistanceSort@@QBE_NPAVCGraphicObjectInstance@@0@Z ; FPCBlockerDistanceSort::operator()
; File C:\Program Files (x86)\Microsoft Visual Studio\2019\Community\VC\Tools\MSVC\14.28.29333\include\algorithm

; 7475 :            && !_Pred(*_Pfirst, *_Prev_iter(_Pfirst))) {

  0009c	0f b6 c0	 movzx	 eax, al
  0009f	85 c0		 test	 eax, eax
  000a1	75 48		 jne	 SHORT $LN4@Partition_
  000a3	8b 45 64	 mov	 eax, DWORD PTR __Pfirst$[ebp]
  000a6	89 45 44	 mov	 DWORD PTR __First$[ebp], eax
; File C:\Program Files (x86)\Microsoft Visual Studio\2019\Community\VC\Tools\MSVC\14.28.29333\include\xutility

; 1852 :     return --_First;

  000a9	8b 45 44	 mov	 eax, DWORD PTR __First$[ebp]
  000ac	83 e8 04	 sub	 eax, 4
  000af	89 45 44	 mov	 DWORD PTR __First$[ebp], eax
; File C:\Program Files (x86)\Microsoft Visual Studio\2019\Community\VC\Tools\MSVC\14.28.29333\include\algorithm

; 7475 :            && !_Pred(*_Pfirst, *_Prev_iter(_Pfirst))) {

  000b2	8b 45 64	 mov	 eax, DWORD PTR __Pfirst$[ebp]
  000b5	89 45 04	 mov	 DWORD PTR _<_Vals_0>$[ebp], eax
; File C:\Program Files (x86)\Microsoft Visual Studio\2019\Community\VC\Tools\MSVC\14.28.29333\include\type_traits

; 1443 :     return static_cast<_Ty&&>(_Arg);

  000b8	8b 45 44	 mov	 eax, DWORD PTR __First$[ebp]
  000bb	89 45 00	 mov	 DWORD PTR $T44[ebp], eax
  000be	8b 45 04	 mov	 eax, DWORD PTR _<_Vals_0>$[ebp]
  000c1	89 45 fc	 mov	 DWORD PTR $T43[ebp], eax
; File C:\Program Files (x86)\Microsoft Visual Studio\2019\Community\VC\Tools\MSVC\14.28.29333\include\xutility

; 203  :             return _Fn(_STD forward<_Args>(_Vals)...);

  000c4	8b 45 00	 mov	 eax, DWORD PTR $T44[ebp]
  000c7	ff 30		 push	 DWORD PTR [eax]
  000c9	8b 45 fc	 mov	 eax, DWORD PTR $T43[ebp]
  000cc	ff 30		 push	 DWORD PTR [eax]
  000ce	8b 4d 7c	 mov	 ecx, DWORD PTR __Pred$[ebp]
  000d1	e8 00 00 00 00	 call	 ??RFPCBlockerDistanceSort@@QBE_NPAVCGraphicObjectInstance@@0@Z ; FPCBlockerDistanceSort::operator()
; File C:\Program Files (x86)\Microsoft Visual Studio\2019\Community\VC\Tools\MSVC\14.28.29333\include\algorithm

; 7475 :            && !_Pred(*_Pfirst, *_Prev_iter(_Pfirst))) {

  000d6	0f b6 c0	 movzx	 eax, al
  000d9	85 c0		 test	 eax, eax
  000db	75 0e		 jne	 SHORT $LN4@Partition_

; 7476 :         --_Pfirst;

  000dd	8b 45 64	 mov	 eax, DWORD PTR __Pfirst$[ebp]
  000e0	83 e8 04	 sub	 eax, 4
  000e3	89 45 64	 mov	 DWORD PTR __Pfirst$[ebp], eax

; 7477 :     }

  000e6	e9 72 ff ff ff	 jmp	 $LN2@Partition_
$LN4@Partition_:

; 7479 :     while (_Plast < _Last && !_DEBUG_LT_PRED(_Pred, *_Plast, *_Pfirst) && !_Pred(*_Pfirst, *_Plast)) {

  000eb	8b 45 60	 mov	 eax, DWORD PTR __Plast$[ebp]
  000ee	3b 45 78	 cmp	 eax, DWORD PTR __Last$[ebp]
  000f1	73 6d		 jae	 SHORT $LN5@Partition_
  000f3	8b 45 64	 mov	 eax, DWORD PTR __Pfirst$[ebp]
  000f6	89 45 f8	 mov	 DWORD PTR _<_Vals_1>$[ebp], eax
  000f9	8b 45 60	 mov	 eax, DWORD PTR __Plast$[ebp]
  000fc	89 45 f4	 mov	 DWORD PTR _<_Vals_0>$[ebp], eax
; File C:\Program Files (x86)\Microsoft Visual Studio\2019\Community\VC\Tools\MSVC\14.28.29333\include\type_traits

; 1443 :     return static_cast<_Ty&&>(_Arg);

  000ff	8b 45 f8	 mov	 eax, DWORD PTR _<_Vals_1>$[ebp]
  00102	89 45 f0	 mov	 DWORD PTR $T42[ebp], eax
  00105	8b 45 f4	 mov	 eax, DWORD PTR _<_Vals_0>$[ebp]
  00108	89 45 ec	 mov	 DWORD PTR $T41[ebp], eax
; File C:\Program Files (x86)\Microsoft Visual Studio\2019\Community\VC\Tools\MSVC\14.28.29333\include\xutility

; 203  :             return _Fn(_STD forward<_Args>(_Vals)...);

  0010b	8b 45 f0	 mov	 eax, DWORD PTR $T42[ebp]
  0010e	ff 30		 push	 DWORD PTR [eax]
  00110	8b 45 ec	 mov	 eax, DWORD PTR $T41[ebp]
  00113	ff 30		 push	 DWORD PTR [eax]
  00115	8b 4d 7c	 mov	 ecx, DWORD PTR __Pred$[ebp]
  00118	e8 00 00 00 00	 call	 ??RFPCBlockerDistanceSort@@QBE_NPAVCGraphicObjectInstance@@0@Z ; FPCBlockerDistanceSort::operator()
; File C:\Program Files (x86)\Microsoft Visual Studio\2019\Community\VC\Tools\MSVC\14.28.29333\include\algorithm

; 7479 :     while (_Plast < _Last && !_DEBUG_LT_PRED(_Pred, *_Plast, *_Pfirst) && !_Pred(*_Pfirst, *_Plast)) {

  0011d	0f b6 c0	 movzx	 eax, al
  00120	85 c0		 test	 eax, eax
  00122	75 3c		 jne	 SHORT $LN5@Partition_
  00124	8b 45 60	 mov	 eax, DWORD PTR __Plast$[ebp]
  00127	89 45 e8	 mov	 DWORD PTR _<_Vals_1>$[ebp], eax
  0012a	8b 45 64	 mov	 eax, DWORD PTR __Pfirst$[ebp]
  0012d	89 45 e4	 mov	 DWORD PTR _<_Vals_0>$[ebp], eax
; File C:\Program Files (x86)\Microsoft Visual Studio\2019\Community\VC\Tools\MSVC\14.28.29333\include\type_traits

; 1443 :     return static_cast<_Ty&&>(_Arg);

  00130	8b 45 e8	 mov	 eax, DWORD PTR _<_Vals_1>$[ebp]
  00133	89 45 e0	 mov	 DWORD PTR $T40[ebp], eax
  00136	8b 45 e4	 mov	 eax, DWORD PTR _<_Vals_0>$[ebp]
  00139	89 45 dc	 mov	 DWORD PTR $T39[ebp], eax
; File C:\Program Files (x86)\Microsoft Visual Studio\2019\Community\VC\Tools\MSVC\14.28.29333\include\xutility

; 203  :             return _Fn(_STD forward<_Args>(_Vals)...);

  0013c	8b 45 e0	 mov	 eax, DWORD PTR $T40[ebp]
  0013f	ff 30		 push	 DWORD PTR [eax]
  00141	8b 45 dc	 mov	 eax, DWORD PTR $T39[ebp]
  00144	ff 30		 push	 DWORD PTR [eax]
  00146	8b 4d 7c	 mov	 ecx, DWORD PTR __Pred$[ebp]
  00149	e8 00 00 00 00	 call	 ??RFPCBlockerDistanceSort@@QBE_NPAVCGraphicObjectInstance@@0@Z ; FPCBlockerDistanceSort::operator()
; File C:\Program Files (x86)\Microsoft Visual Studio\2019\Community\VC\Tools\MSVC\14.28.29333\include\algorithm

; 7479 :     while (_Plast < _Last && !_DEBUG_LT_PRED(_Pred, *_Plast, *_Pfirst) && !_Pred(*_Pfirst, *_Plast)) {

  0014e	0f b6 c0	 movzx	 eax, al
  00151	85 c0		 test	 eax, eax
  00153	75 0b		 jne	 SHORT $LN5@Partition_

; 7480 :         ++_Plast;

  00155	8b 45 60	 mov	 eax, DWORD PTR __Plast$[ebp]
  00158	83 c0 04	 add	 eax, 4
  0015b	89 45 60	 mov	 DWORD PTR __Plast$[ebp], eax

; 7481 :     }

  0015e	eb 8b		 jmp	 SHORT $LN4@Partition_
$LN5@Partition_:

; 7482 : 
; 7483 :     _RanIt _Gfirst = _Plast;

  00160	8b 45 60	 mov	 eax, DWORD PTR __Plast$[ebp]
  00163	89 45 5c	 mov	 DWORD PTR __Gfirst$[ebp], eax

; 7484 :     _RanIt _Glast  = _Pfirst;

  00166	8b 45 64	 mov	 eax, DWORD PTR __Pfirst$[ebp]
  00169	89 45 58	 mov	 DWORD PTR __Glast$[ebp], eax
$LN8@Partition_:

; 7485 : 
; 7486 :     for (;;) { // partition
; 7487 :         for (; _Gfirst < _Last; ++_Gfirst) {

  0016c	eb 09		 jmp	 SHORT $LN11@Partition_
$LN9@Partition_:
  0016e	8b 45 5c	 mov	 eax, DWORD PTR __Gfirst$[ebp]
  00171	83 c0 04	 add	 eax, 4
  00174	89 45 5c	 mov	 DWORD PTR __Gfirst$[ebp], eax
$LN11@Partition_:
  00177	8b 45 5c	 mov	 eax, DWORD PTR __Gfirst$[ebp]
  0017a	3b 45 78	 cmp	 eax, DWORD PTR __Last$[ebp]
  0017d	0f 83 b3 00 00
	00		 jae	 $LN10@Partition_

; 7488 :             if (_DEBUG_LT_PRED(_Pred, *_Pfirst, *_Gfirst)) {

  00183	8b 45 64	 mov	 eax, DWORD PTR __Pfirst$[ebp]
  00186	89 45 d8	 mov	 DWORD PTR _<_Vals_0>$[ebp], eax
; File C:\Program Files (x86)\Microsoft Visual Studio\2019\Community\VC\Tools\MSVC\14.28.29333\include\type_traits

; 1443 :     return static_cast<_Ty&&>(_Arg);

  00189	8b 45 5c	 mov	 eax, DWORD PTR __Gfirst$[ebp]
  0018c	89 45 d4	 mov	 DWORD PTR $T38[ebp], eax
  0018f	8b 45 d8	 mov	 eax, DWORD PTR _<_Vals_0>$[ebp]
  00192	89 45 d0	 mov	 DWORD PTR $T37[ebp], eax
; File C:\Program Files (x86)\Microsoft Visual Studio\2019\Community\VC\Tools\MSVC\14.28.29333\include\xutility

; 203  :             return _Fn(_STD forward<_Args>(_Vals)...);

  00195	8b 45 d4	 mov	 eax, DWORD PTR $T38[ebp]
  00198	ff 30		 push	 DWORD PTR [eax]
  0019a	8b 45 d0	 mov	 eax, DWORD PTR $T37[ebp]
  0019d	ff 30		 push	 DWORD PTR [eax]
  0019f	8b 4d 7c	 mov	 ecx, DWORD PTR __Pred$[ebp]
  001a2	e8 00 00 00 00	 call	 ??RFPCBlockerDistanceSort@@QBE_NPAVCGraphicObjectInstance@@0@Z ; FPCBlockerDistanceSort::operator()
; File C:\Program Files (x86)\Microsoft Visual Studio\2019\Community\VC\Tools\MSVC\14.28.29333\include\algorithm

; 7488 :             if (_DEBUG_LT_PRED(_Pred, *_Pfirst, *_Gfirst)) {

  001a7	0f b6 c0	 movzx	 eax, al
  001aa	85 c0		 test	 eax, eax
  001ac	74 04		 je	 SHORT $LN15@Partition_

; 7489 :                 continue;

  001ae	eb be		 jmp	 SHORT $LN9@Partition_
  001b0	eb 7f		 jmp	 SHORT $LN16@Partition_
$LN15@Partition_:

; 7490 :             } else if (_Pred(*_Gfirst, *_Pfirst)) {

  001b2	8b 45 64	 mov	 eax, DWORD PTR __Pfirst$[ebp]
  001b5	89 45 cc	 mov	 DWORD PTR _<_Vals_1>$[ebp], eax
; File C:\Program Files (x86)\Microsoft Visual Studio\2019\Community\VC\Tools\MSVC\14.28.29333\include\type_traits

; 1443 :     return static_cast<_Ty&&>(_Arg);

  001b8	8b 45 cc	 mov	 eax, DWORD PTR _<_Vals_1>$[ebp]
  001bb	89 45 c8	 mov	 DWORD PTR $T36[ebp], eax
  001be	8b 45 5c	 mov	 eax, DWORD PTR __Gfirst$[ebp]
  001c1	89 45 c4	 mov	 DWORD PTR $T35[ebp], eax
; File C:\Program Files (x86)\Microsoft Visual Studio\2019\Community\VC\Tools\MSVC\14.28.29333\include\xutility

; 203  :             return _Fn(_STD forward<_Args>(_Vals)...);

  001c4	8b 45 c8	 mov	 eax, DWORD PTR $T36[ebp]
  001c7	ff 30		 push	 DWORD PTR [eax]
  001c9	8b 45 c4	 mov	 eax, DWORD PTR $T35[ebp]
  001cc	ff 30		 push	 DWORD PTR [eax]
  001ce	8b 4d 7c	 mov	 ecx, DWORD PTR __Pred$[ebp]
  001d1	e8 00 00 00 00	 call	 ??RFPCBlockerDistanceSort@@QBE_NPAVCGraphicObjectInstance@@0@Z ; FPCBlockerDistanceSort::operator()
; File C:\Program Files (x86)\Microsoft Visual Studio\2019\Community\VC\Tools\MSVC\14.28.29333\include\algorithm

; 7490 :             } else if (_Pred(*_Gfirst, *_Pfirst)) {

  001d6	0f b6 c0	 movzx	 eax, al
  001d9	85 c0		 test	 eax, eax
  001db	74 04		 je	 SHORT $LN17@Partition_

; 7491 :                 break;

  001dd	eb 57		 jmp	 SHORT $LN10@Partition_
  001df	eb 50		 jmp	 SHORT $LN16@Partition_
$LN17@Partition_:

; 7492 :             } else if (_Plast != _Gfirst) {

  001e1	8b 45 60	 mov	 eax, DWORD PTR __Plast$[ebp]
  001e4	3b 45 5c	 cmp	 eax, DWORD PTR __Gfirst$[ebp]
  001e7	74 3f		 je	 SHORT $LN19@Partition_

; 7493 :                 _STD iter_swap(_Plast, _Gfirst);

  001e9	8b 45 60	 mov	 eax, DWORD PTR __Plast$[ebp]
  001ec	89 45 30	 mov	 DWORD PTR __Left$[ebp], eax
; File C:\Program Files (x86)\Microsoft Visual Studio\2019\Community\VC\Tools\MSVC\14.28.29333\include\type_traits

; 1455 :     return static_cast<remove_reference_t<_Ty>&&>(_Arg);

  001ef	8b 45 30	 mov	 eax, DWORD PTR __Left$[ebp]
  001f2	89 45 c0	 mov	 DWORD PTR $T34[ebp], eax
; File C:\Program Files (x86)\Microsoft Visual Studio\2019\Community\VC\Tools\MSVC\14.28.29333\include\utility

; 104  :     _Ty _Tmp = _STD move(_Left);

  001f5	8b 45 c0	 mov	 eax, DWORD PTR $T34[ebp]
  001f8	8b 00		 mov	 eax, DWORD PTR [eax]
  001fa	89 45 b8	 mov	 DWORD PTR __Tmp$32[ebp], eax
; File C:\Program Files (x86)\Microsoft Visual Studio\2019\Community\VC\Tools\MSVC\14.28.29333\include\type_traits

; 1455 :     return static_cast<remove_reference_t<_Ty>&&>(_Arg);

  001fd	8b 45 5c	 mov	 eax, DWORD PTR __Gfirst$[ebp]
  00200	89 45 bc	 mov	 DWORD PTR $T33[ebp], eax
; File C:\Program Files (x86)\Microsoft Visual Studio\2019\Community\VC\Tools\MSVC\14.28.29333\include\utility

; 105  :     _Left    = _STD move(_Right);

  00203	8b 45 30	 mov	 eax, DWORD PTR __Left$[ebp]
  00206	8b 4d bc	 mov	 ecx, DWORD PTR $T33[ebp]
  00209	8b 09		 mov	 ecx, DWORD PTR [ecx]
  0020b	89 08		 mov	 DWORD PTR [eax], ecx
; File C:\Program Files (x86)\Microsoft Visual Studio\2019\Community\VC\Tools\MSVC\14.28.29333\include\type_traits

; 1455 :     return static_cast<remove_reference_t<_Ty>&&>(_Arg);

  0020d	8d 45 b8	 lea	 eax, DWORD PTR __Tmp$32[ebp]
  00210	89 45 b4	 mov	 DWORD PTR $T31[ebp], eax
; File C:\Program Files (x86)\Microsoft Visual Studio\2019\Community\VC\Tools\MSVC\14.28.29333\include\utility

; 106  :     _Right   = _STD move(_Tmp);

  00213	8b 45 5c	 mov	 eax, DWORD PTR __Gfirst$[ebp]
  00216	8b 4d b4	 mov	 ecx, DWORD PTR $T31[ebp]
  00219	8b 09		 mov	 ecx, DWORD PTR [ecx]
  0021b	89 08		 mov	 DWORD PTR [eax], ecx
; File C:\Program Files (x86)\Microsoft Visual Studio\2019\Community\VC\Tools\MSVC\14.28.29333\include\algorithm

; 7494 :                 ++_Plast;

  0021d	8b 45 60	 mov	 eax, DWORD PTR __Plast$[ebp]
  00220	83 c0 04	 add	 eax, 4
  00223	89 45 60	 mov	 DWORD PTR __Plast$[ebp], eax

; 7495 :             } else {

  00226	eb 09		 jmp	 SHORT $LN16@Partition_
$LN19@Partition_:

; 7496 :                 ++_Plast;

  00228	8b 45 60	 mov	 eax, DWORD PTR __Plast$[ebp]
  0022b	83 c0 04	 add	 eax, 4
  0022e	89 45 60	 mov	 DWORD PTR __Plast$[ebp], eax
$LN16@Partition_:

; 7497 :             }
; 7498 :         }

  00231	e9 38 ff ff ff	 jmp	 $LN9@Partition_
$LN10@Partition_:

; 7499 : 
; 7500 :         for (; _First < _Glast; --_Glast) {

  00236	eb 09		 jmp	 SHORT $LN14@Partition_
$LN12@Partition_:
  00238	8b 45 58	 mov	 eax, DWORD PTR __Glast$[ebp]
  0023b	83 e8 04	 sub	 eax, 4
  0023e	89 45 58	 mov	 DWORD PTR __Glast$[ebp], eax
$LN14@Partition_:
  00241	8b 45 74	 mov	 eax, DWORD PTR __First$[ebp]
  00244	3b 45 58	 cmp	 eax, DWORD PTR __Glast$[ebp]
  00247	0f 83 e7 00 00
	00		 jae	 $LN13@Partition_

; 7501 :             if (_DEBUG_LT_PRED(_Pred, *_Prev_iter(_Glast), *_Pfirst)) {

  0024d	8b 45 58	 mov	 eax, DWORD PTR __Glast$[ebp]
  00250	89 45 40	 mov	 DWORD PTR __First$[ebp], eax
; File C:\Program Files (x86)\Microsoft Visual Studio\2019\Community\VC\Tools\MSVC\14.28.29333\include\xutility

; 1852 :     return --_First;

  00253	8b 45 40	 mov	 eax, DWORD PTR __First$[ebp]
  00256	83 e8 04	 sub	 eax, 4
  00259	89 45 40	 mov	 DWORD PTR __First$[ebp], eax
; File C:\Program Files (x86)\Microsoft Visual Studio\2019\Community\VC\Tools\MSVC\14.28.29333\include\algorithm

; 7501 :             if (_DEBUG_LT_PRED(_Pred, *_Prev_iter(_Glast), *_Pfirst)) {

  0025c	8b 45 64	 mov	 eax, DWORD PTR __Pfirst$[ebp]
  0025f	89 45 b0	 mov	 DWORD PTR _<_Vals_1>$[ebp], eax
; File C:\Program Files (x86)\Microsoft Visual Studio\2019\Community\VC\Tools\MSVC\14.28.29333\include\type_traits

; 1443 :     return static_cast<_Ty&&>(_Arg);

  00262	8b 45 b0	 mov	 eax, DWORD PTR _<_Vals_1>$[ebp]
  00265	89 45 ac	 mov	 DWORD PTR $T30[ebp], eax
  00268	8b 45 40	 mov	 eax, DWORD PTR __First$[ebp]
  0026b	89 45 a8	 mov	 DWORD PTR $T29[ebp], eax
; File C:\Program Files (x86)\Microsoft Visual Studio\2019\Community\VC\Tools\MSVC\14.28.29333\include\xutility

; 203  :             return _Fn(_STD forward<_Args>(_Vals)...);

  0026e	8b 45 ac	 mov	 eax, DWORD PTR $T30[ebp]
  00271	ff 30		 push	 DWORD PTR [eax]
  00273	8b 45 a8	 mov	 eax, DWORD PTR $T29[ebp]
  00276	ff 30		 push	 DWORD PTR [eax]
  00278	8b 4d 7c	 mov	 ecx, DWORD PTR __Pred$[ebp]
  0027b	e8 00 00 00 00	 call	 ??RFPCBlockerDistanceSort@@QBE_NPAVCGraphicObjectInstance@@0@Z ; FPCBlockerDistanceSort::operator()
; File C:\Program Files (x86)\Microsoft Visual Studio\2019\Community\VC\Tools\MSVC\14.28.29333\include\algorithm

; 7501 :             if (_DEBUG_LT_PRED(_Pred, *_Prev_iter(_Glast), *_Pfirst)) {

  00280	0f b6 c0	 movzx	 eax, al
  00283	85 c0		 test	 eax, eax
  00285	74 07		 je	 SHORT $LN21@Partition_

; 7502 :                 continue;

  00287	eb af		 jmp	 SHORT $LN12@Partition_
  00289	e9 a1 00 00 00	 jmp	 $LN22@Partition_
$LN21@Partition_:

; 7503 :             } else if (_Pred(*_Pfirst, *_Prev_iter(_Glast))) {

  0028e	8b 45 58	 mov	 eax, DWORD PTR __Glast$[ebp]
  00291	89 45 3c	 mov	 DWORD PTR __First$[ebp], eax
; File C:\Program Files (x86)\Microsoft Visual Studio\2019\Community\VC\Tools\MSVC\14.28.29333\include\xutility

; 1852 :     return --_First;

  00294	8b 45 3c	 mov	 eax, DWORD PTR __First$[ebp]
  00297	83 e8 04	 sub	 eax, 4
  0029a	89 45 3c	 mov	 DWORD PTR __First$[ebp], eax
; File C:\Program Files (x86)\Microsoft Visual Studio\2019\Community\VC\Tools\MSVC\14.28.29333\include\algorithm

; 7503 :             } else if (_Pred(*_Pfirst, *_Prev_iter(_Glast))) {

  0029d	8b 45 64	 mov	 eax, DWORD PTR __Pfirst$[ebp]
  002a0	89 45 a4	 mov	 DWORD PTR _<_Vals_0>$[ebp], eax
; File C:\Program Files (x86)\Microsoft Visual Studio\2019\Community\VC\Tools\MSVC\14.28.29333\include\type_traits

; 1443 :     return static_cast<_Ty&&>(_Arg);

  002a3	8b 45 3c	 mov	 eax, DWORD PTR __First$[ebp]
  002a6	89 45 a0	 mov	 DWORD PTR $T28[ebp], eax
  002a9	8b 45 a4	 mov	 eax, DWORD PTR _<_Vals_0>$[ebp]
  002ac	89 45 9c	 mov	 DWORD PTR $T27[ebp], eax
; File C:\Program Files (x86)\Microsoft Visual Studio\2019\Community\VC\Tools\MSVC\14.28.29333\include\xutility

; 203  :             return _Fn(_STD forward<_Args>(_Vals)...);

  002af	8b 45 a0	 mov	 eax, DWORD PTR $T28[ebp]
  002b2	ff 30		 push	 DWORD PTR [eax]
  002b4	8b 45 9c	 mov	 eax, DWORD PTR $T27[ebp]
  002b7	ff 30		 push	 DWORD PTR [eax]
  002b9	8b 4d 7c	 mov	 ecx, DWORD PTR __Pred$[ebp]
  002bc	e8 00 00 00 00	 call	 ??RFPCBlockerDistanceSort@@QBE_NPAVCGraphicObjectInstance@@0@Z ; FPCBlockerDistanceSort::operator()
; File C:\Program Files (x86)\Microsoft Visual Studio\2019\Community\VC\Tools\MSVC\14.28.29333\include\algorithm

; 7503 :             } else if (_Pred(*_Pfirst, *_Prev_iter(_Glast))) {

  002c1	0f b6 c0	 movzx	 eax, al
  002c4	85 c0		 test	 eax, eax
  002c6	74 04		 je	 SHORT $LN23@Partition_

; 7504 :                 break;

  002c8	eb 6a		 jmp	 SHORT $LN13@Partition_
  002ca	eb 63		 jmp	 SHORT $LN22@Partition_
$LN23@Partition_:

; 7505 :             } else if (--_Pfirst != _Prev_iter(_Glast)) {

  002cc	8b 45 64	 mov	 eax, DWORD PTR __Pfirst$[ebp]
  002cf	83 e8 04	 sub	 eax, 4
  002d2	89 45 64	 mov	 DWORD PTR __Pfirst$[ebp], eax
  002d5	8b 45 58	 mov	 eax, DWORD PTR __Glast$[ebp]
  002d8	89 45 38	 mov	 DWORD PTR __First$[ebp], eax
; File C:\Program Files (x86)\Microsoft Visual Studio\2019\Community\VC\Tools\MSVC\14.28.29333\include\xutility

; 1852 :     return --_First;

  002db	8b 45 38	 mov	 eax, DWORD PTR __First$[ebp]
  002de	83 e8 04	 sub	 eax, 4
  002e1	89 45 38	 mov	 DWORD PTR __First$[ebp], eax
; File C:\Program Files (x86)\Microsoft Visual Studio\2019\Community\VC\Tools\MSVC\14.28.29333\include\algorithm

; 7505 :             } else if (--_Pfirst != _Prev_iter(_Glast)) {

  002e4	8b 45 64	 mov	 eax, DWORD PTR __Pfirst$[ebp]
  002e7	3b 45 38	 cmp	 eax, DWORD PTR __First$[ebp]
  002ea	74 43		 je	 SHORT $LN22@Partition_

; 7506 :                 _STD iter_swap(_Pfirst, _Prev_iter(_Glast));

  002ec	8b 45 58	 mov	 eax, DWORD PTR __Glast$[ebp]
  002ef	89 45 54	 mov	 DWORD PTR __First$[ebp], eax
; File C:\Program Files (x86)\Microsoft Visual Studio\2019\Community\VC\Tools\MSVC\14.28.29333\include\xutility

; 1852 :     return --_First;

  002f2	8b 45 54	 mov	 eax, DWORD PTR __First$[ebp]
  002f5	83 e8 04	 sub	 eax, 4
  002f8	89 45 54	 mov	 DWORD PTR __First$[ebp], eax
; File C:\Program Files (x86)\Microsoft Visual Studio\2019\Community\VC\Tools\MSVC\14.28.29333\include\algorithm

; 7506 :                 _STD iter_swap(_Pfirst, _Prev_iter(_Glast));

  002fb	8b 45 64	 mov	 eax, DWORD PTR __Pfirst$[ebp]
  002fe	89 45 2c	 mov	 DWORD PTR __Left$[ebp], eax
; File C:\Program Files (x86)\Microsoft Visual Studio\2019\Community\VC\Tools\MSVC\14.28.29333\include\type_traits

; 1455 :     return static_cast<remove_reference_t<_Ty>&&>(_Arg);

  00301	8b 45 2c	 mov	 eax, DWORD PTR __Left$[ebp]
  00304	89 45 98	 mov	 DWORD PTR $T26[ebp], eax
; File C:\Program Files (x86)\Microsoft Visual Studio\2019\Community\VC\Tools\MSVC\14.28.29333\include\utility

; 104  :     _Ty _Tmp = _STD move(_Left);

  00307	8b 45 98	 mov	 eax, DWORD PTR $T26[ebp]
  0030a	8b 00		 mov	 eax, DWORD PTR [eax]
  0030c	89 45 90	 mov	 DWORD PTR __Tmp$24[ebp], eax
; File C:\Program Files (x86)\Microsoft Visual Studio\2019\Community\VC\Tools\MSVC\14.28.29333\include\type_traits

; 1455 :     return static_cast<remove_reference_t<_Ty>&&>(_Arg);

  0030f	8b 45 54	 mov	 eax, DWORD PTR __First$[ebp]
  00312	89 45 94	 mov	 DWORD PTR $T25[ebp], eax
; File C:\Program Files (x86)\Microsoft Visual Studio\2019\Community\VC\Tools\MSVC\14.28.29333\include\utility

; 105  :     _Left    = _STD move(_Right);

  00315	8b 45 2c	 mov	 eax, DWORD PTR __Left$[ebp]
  00318	8b 4d 94	 mov	 ecx, DWORD PTR $T25[ebp]
  0031b	8b 09		 mov	 ecx, DWORD PTR [ecx]
  0031d	89 08		 mov	 DWORD PTR [eax], ecx
; File C:\Program Files (x86)\Microsoft Visual Studio\2019\Community\VC\Tools\MSVC\14.28.29333\include\type_traits

; 1455 :     return static_cast<remove_reference_t<_Ty>&&>(_Arg);

  0031f	8d 45 90	 lea	 eax, DWORD PTR __Tmp$24[ebp]
  00322	89 45 8c	 mov	 DWORD PTR $T23[ebp], eax
; File C:\Program Files (x86)\Microsoft Visual Studio\2019\Community\VC\Tools\MSVC\14.28.29333\include\utility

; 106  :     _Right   = _STD move(_Tmp);

  00325	8b 45 54	 mov	 eax, DWORD PTR __First$[ebp]
  00328	8b 4d 8c	 mov	 ecx, DWORD PTR $T23[ebp]
  0032b	8b 09		 mov	 ecx, DWORD PTR [ecx]
  0032d	89 08		 mov	 DWORD PTR [eax], ecx
$LN22@Partition_:
; File C:\Program Files (x86)\Microsoft Visual Studio\2019\Community\VC\Tools\MSVC\14.28.29333\include\algorithm

; 7508 :         }

  0032f	e9 04 ff ff ff	 jmp	 $LN12@Partition_
$LN13@Partition_:

; 7509 : 
; 7510 :         if (_Glast == _First && _Gfirst == _Last) {

  00334	8b 45 58	 mov	 eax, DWORD PTR __Glast$[ebp]
  00337	3b 45 74	 cmp	 eax, DWORD PTR __First$[ebp]
  0033a	75 31		 jne	 SHORT $LN26@Partition_
  0033c	8b 45 5c	 mov	 eax, DWORD PTR __Gfirst$[ebp]
  0033f	3b 45 78	 cmp	 eax, DWORD PTR __Last$[ebp]
  00342	75 29		 jne	 SHORT $LN26@Partition_
; File C:\Program Files (x86)\Microsoft Visual Studio\2019\Community\VC\Tools\MSVC\14.28.29333\include\type_traits

; 1443 :     return static_cast<_Ty&&>(_Arg);

  00344	8d 45 64	 lea	 eax, DWORD PTR __Pfirst$[ebp]
  00347	89 45 88	 mov	 DWORD PTR $T22[ebp], eax
; File C:\Program Files (x86)\Microsoft Visual Studio\2019\Community\VC\Tools\MSVC\14.28.29333\include\utility

; 190  :         : first(_STD forward<_Other1>(_Val1)), second(_STD forward<_Other2>(_Val2)) {}

  0034a	8b 45 70	 mov	 eax, DWORD PTR ___$ReturnUdt$[ebp]
  0034d	8b 4d 88	 mov	 ecx, DWORD PTR $T22[ebp]
  00350	8b 09		 mov	 ecx, DWORD PTR [ecx]
  00352	89 08		 mov	 DWORD PTR [eax], ecx
; File C:\Program Files (x86)\Microsoft Visual Studio\2019\Community\VC\Tools\MSVC\14.28.29333\include\type_traits

; 1443 :     return static_cast<_Ty&&>(_Arg);

  00354	8d 45 60	 lea	 eax, DWORD PTR __Plast$[ebp]
  00357	89 45 84	 mov	 DWORD PTR $T21[ebp], eax
; File C:\Program Files (x86)\Microsoft Visual Studio\2019\Community\VC\Tools\MSVC\14.28.29333\include\utility

; 190  :         : first(_STD forward<_Other1>(_Val1)), second(_STD forward<_Other2>(_Val2)) {}

  0035a	8b 45 70	 mov	 eax, DWORD PTR ___$ReturnUdt$[ebp]
  0035d	8b 4d 84	 mov	 ecx, DWORD PTR $T21[ebp]
  00360	8b 09		 mov	 ecx, DWORD PTR [ecx]
  00362	89 48 04	 mov	 DWORD PTR [eax+4], ecx
; File C:\Program Files (x86)\Microsoft Visual Studio\2019\Community\VC\Tools\MSVC\14.28.29333\include\algorithm

; 7511 :             return pair<_RanIt, _RanIt>(_Pfirst, _Plast);

  00365	8b 45 70	 mov	 eax, DWORD PTR ___$ReturnUdt$[ebp]
  00368	e9 f8 01 00 00	 jmp	 $LN1@Partition_
$LN26@Partition_:

; 7512 :         }
; 7513 : 
; 7514 :         if (_Glast == _First) { // no room at bottom, rotate pivot upward

  0036d	8b 45 58	 mov	 eax, DWORD PTR __Glast$[ebp]
  00370	3b 45 74	 cmp	 eax, DWORD PTR __First$[ebp]
  00373	0f 85 c0 00 00
	00		 jne	 $LN27@Partition_

; 7515 :             if (_Plast != _Gfirst) {

  00379	8b 45 60	 mov	 eax, DWORD PTR __Plast$[ebp]
  0037c	3b 45 5c	 cmp	 eax, DWORD PTR __Gfirst$[ebp]
  0037f	74 4c		 je	 SHORT $LN29@Partition_

; 7516 :                 _STD iter_swap(_Pfirst, _Plast);

  00381	8b 45 60	 mov	 eax, DWORD PTR __Plast$[ebp]
  00384	89 45 24	 mov	 DWORD PTR __Right$[ebp], eax
  00387	8b 45 64	 mov	 eax, DWORD PTR __Pfirst$[ebp]
  0038a	89 45 28	 mov	 DWORD PTR __Left$[ebp], eax
; File C:\Program Files (x86)\Microsoft Visual Studio\2019\Community\VC\Tools\MSVC\14.28.29333\include\type_traits

; 1455 :     return static_cast<remove_reference_t<_Ty>&&>(_Arg);

  0038d	8b 45 28	 mov	 eax, DWORD PTR __Left$[ebp]
  00390	89 45 80	 mov	 DWORD PTR $T20[ebp], eax
; File C:\Program Files (x86)\Microsoft Visual Studio\2019\Community\VC\Tools\MSVC\14.28.29333\include\utility

; 104  :     _Ty _Tmp = _STD move(_Left);

  00393	8b 45 80	 mov	 eax, DWORD PTR $T20[ebp]
  00396	8b 00		 mov	 eax, DWORD PTR [eax]
  00398	89 85 78 ff ff
	ff		 mov	 DWORD PTR __Tmp$18[ebp], eax
; File C:\Program Files (x86)\Microsoft Visual Studio\2019\Community\VC\Tools\MSVC\14.28.29333\include\type_traits

; 1455 :     return static_cast<remove_reference_t<_Ty>&&>(_Arg);

  0039e	8b 45 24	 mov	 eax, DWORD PTR __Right$[ebp]
  003a1	89 85 7c ff ff
	ff		 mov	 DWORD PTR $T19[ebp], eax
; File C:\Program Files (x86)\Microsoft Visual Studio\2019\Community\VC\Tools\MSVC\14.28.29333\include\utility

; 105  :     _Left    = _STD move(_Right);

  003a7	8b 45 28	 mov	 eax, DWORD PTR __Left$[ebp]
  003aa	8b 8d 7c ff ff
	ff		 mov	 ecx, DWORD PTR $T19[ebp]
  003b0	8b 09		 mov	 ecx, DWORD PTR [ecx]
  003b2	89 08		 mov	 DWORD PTR [eax], ecx
; File C:\Program Files (x86)\Microsoft Visual Studio\2019\Community\VC\Tools\MSVC\14.28.29333\include\type_traits

; 1455 :     return static_cast<remove_reference_t<_Ty>&&>(_Arg);

  003b4	8d 85 78 ff ff
	ff		 lea	 eax, DWORD PTR __Tmp$18[ebp]
  003ba	89 85 74 ff ff
	ff		 mov	 DWORD PTR $T17[ebp], eax
; File C:\Program Files (x86)\Microsoft Visual Studio\2019\Community\VC\Tools\MSVC\14.28.29333\include\utility

; 106  :     _Right   = _STD move(_Tmp);

  003c0	8b 45 24	 mov	 eax, DWORD PTR __Right$[ebp]
  003c3	8b 8d 74 ff ff
	ff		 mov	 ecx, DWORD PTR $T17[ebp]
  003c9	8b 09		 mov	 ecx, DWORD PTR [ecx]
  003cb	89 08		 mov	 DWORD PTR [eax], ecx
$LN29@Partition_:
; File C:\Program Files (x86)\Microsoft Visual Studio\2019\Community\VC\Tools\MSVC\14.28.29333\include\algorithm

; 7519 :             ++_Plast;

  003cd	8b 45 60	 mov	 eax, DWORD PTR __Plast$[ebp]
  003d0	83 c0 04	 add	 eax, 4
  003d3	89 45 60	 mov	 DWORD PTR __Plast$[ebp], eax

; 7520 :             _STD iter_swap(_Pfirst, _Gfirst);

  003d6	8b 45 64	 mov	 eax, DWORD PTR __Pfirst$[ebp]
  003d9	89 45 20	 mov	 DWORD PTR __Left$[ebp], eax
; File C:\Program Files (x86)\Microsoft Visual Studio\2019\Community\VC\Tools\MSVC\14.28.29333\include\type_traits

; 1455 :     return static_cast<remove_reference_t<_Ty>&&>(_Arg);

  003dc	8b 45 20	 mov	 eax, DWORD PTR __Left$[ebp]
  003df	89 85 70 ff ff
	ff		 mov	 DWORD PTR $T16[ebp], eax
; File C:\Program Files (x86)\Microsoft Visual Studio\2019\Community\VC\Tools\MSVC\14.28.29333\include\utility

; 104  :     _Ty _Tmp = _STD move(_Left);

  003e5	8b 85 70 ff ff
	ff		 mov	 eax, DWORD PTR $T16[ebp]
  003eb	8b 00		 mov	 eax, DWORD PTR [eax]
  003ed	89 85 68 ff ff
	ff		 mov	 DWORD PTR __Tmp$14[ebp], eax
; File C:\Program Files (x86)\Microsoft Visual Studio\2019\Community\VC\Tools\MSVC\14.28.29333\include\type_traits

; 1455 :     return static_cast<remove_reference_t<_Ty>&&>(_Arg);

  003f3	8b 45 5c	 mov	 eax, DWORD PTR __Gfirst$[ebp]
  003f6	89 85 6c ff ff
	ff		 mov	 DWORD PTR $T15[ebp], eax
; File C:\Program Files (x86)\Microsoft Visual Studio\2019\Community\VC\Tools\MSVC\14.28.29333\include\utility

; 105  :     _Left    = _STD move(_Right);

  003fc	8b 45 20	 mov	 eax, DWORD PTR __Left$[ebp]
  003ff	8b 8d 6c ff ff
	ff		 mov	 ecx, DWORD PTR $T15[ebp]
  00405	8b 09		 mov	 ecx, DWORD PTR [ecx]
  00407	89 08		 mov	 DWORD PTR [eax], ecx
; File C:\Program Files (x86)\Microsoft Visual Studio\2019\Community\VC\Tools\MSVC\14.28.29333\include\type_traits

; 1455 :     return static_cast<remove_reference_t<_Ty>&&>(_Arg);

  00409	8d 85 68 ff ff
	ff		 lea	 eax, DWORD PTR __Tmp$14[ebp]
  0040f	89 85 64 ff ff
	ff		 mov	 DWORD PTR $T13[ebp], eax
; File C:\Program Files (x86)\Microsoft Visual Studio\2019\Community\VC\Tools\MSVC\14.28.29333\include\utility

; 106  :     _Right   = _STD move(_Tmp);

  00415	8b 45 5c	 mov	 eax, DWORD PTR __Gfirst$[ebp]
  00418	8b 8d 64 ff ff
	ff		 mov	 ecx, DWORD PTR $T13[ebp]
  0041e	8b 09		 mov	 ecx, DWORD PTR [ecx]
  00420	89 08		 mov	 DWORD PTR [eax], ecx
; File C:\Program Files (x86)\Microsoft Visual Studio\2019\Community\VC\Tools\MSVC\14.28.29333\include\algorithm

; 7521 :             ++_Pfirst;

  00422	8b 45 64	 mov	 eax, DWORD PTR __Pfirst$[ebp]
  00425	83 c0 04	 add	 eax, 4
  00428	89 45 64	 mov	 DWORD PTR __Pfirst$[ebp], eax

; 7522 :             ++_Gfirst;

  0042b	8b 45 5c	 mov	 eax, DWORD PTR __Gfirst$[ebp]
  0042e	83 c0 04	 add	 eax, 4
  00431	89 45 5c	 mov	 DWORD PTR __Gfirst$[ebp], eax
  00434	e9 27 01 00 00	 jmp	 $LN28@Partition_
$LN27@Partition_:

; 7523 :         } else if (_Gfirst == _Last) { // no room at top, rotate pivot downward

  00439	8b 45 5c	 mov	 eax, DWORD PTR __Gfirst$[ebp]
  0043c	3b 45 78	 cmp	 eax, DWORD PTR __Last$[ebp]
  0043f	0f 85 c3 00 00
	00		 jne	 $LN30@Partition_

; 7524 :             if (--_Glast != --_Pfirst) {

  00445	8b 45 58	 mov	 eax, DWORD PTR __Glast$[ebp]
  00448	83 e8 04	 sub	 eax, 4
  0044b	89 45 58	 mov	 DWORD PTR __Glast$[ebp], eax
  0044e	8b 45 64	 mov	 eax, DWORD PTR __Pfirst$[ebp]
  00451	83 e8 04	 sub	 eax, 4
  00454	89 45 64	 mov	 DWORD PTR __Pfirst$[ebp], eax
  00457	8b 45 58	 mov	 eax, DWORD PTR __Glast$[ebp]
  0045a	3b 45 64	 cmp	 eax, DWORD PTR __Pfirst$[ebp]
  0045d	74 4c		 je	 SHORT $LN32@Partition_

; 7525 :                 _STD iter_swap(_Glast, _Pfirst);

  0045f	8b 45 64	 mov	 eax, DWORD PTR __Pfirst$[ebp]
  00462	89 45 1c	 mov	 DWORD PTR __Right$[ebp], eax
; File C:\Program Files (x86)\Microsoft Visual Studio\2019\Community\VC\Tools\MSVC\14.28.29333\include\type_traits

; 1455 :     return static_cast<remove_reference_t<_Ty>&&>(_Arg);

  00465	8b 45 58	 mov	 eax, DWORD PTR __Glast$[ebp]
  00468	89 85 60 ff ff
	ff		 mov	 DWORD PTR $T12[ebp], eax
; File C:\Program Files (x86)\Microsoft Visual Studio\2019\Community\VC\Tools\MSVC\14.28.29333\include\utility

; 104  :     _Ty _Tmp = _STD move(_Left);

  0046e	8b 85 60 ff ff
	ff		 mov	 eax, DWORD PTR $T12[ebp]
  00474	8b 00		 mov	 eax, DWORD PTR [eax]
  00476	89 85 58 ff ff
	ff		 mov	 DWORD PTR __Tmp$10[ebp], eax
; File C:\Program Files (x86)\Microsoft Visual Studio\2019\Community\VC\Tools\MSVC\14.28.29333\include\type_traits

; 1455 :     return static_cast<remove_reference_t<_Ty>&&>(_Arg);

  0047c	8b 45 1c	 mov	 eax, DWORD PTR __Right$[ebp]
  0047f	89 85 5c ff ff
	ff		 mov	 DWORD PTR $T11[ebp], eax
; File C:\Program Files (x86)\Microsoft Visual Studio\2019\Community\VC\Tools\MSVC\14.28.29333\include\utility

; 105  :     _Left    = _STD move(_Right);

  00485	8b 45 58	 mov	 eax, DWORD PTR __Glast$[ebp]
  00488	8b 8d 5c ff ff
	ff		 mov	 ecx, DWORD PTR $T11[ebp]
  0048e	8b 09		 mov	 ecx, DWORD PTR [ecx]
  00490	89 08		 mov	 DWORD PTR [eax], ecx
; File C:\Program Files (x86)\Microsoft Visual Studio\2019\Community\VC\Tools\MSVC\14.28.29333\include\type_traits

; 1455 :     return static_cast<remove_reference_t<_Ty>&&>(_Arg);

  00492	8d 85 58 ff ff
	ff		 lea	 eax, DWORD PTR __Tmp$10[ebp]
  00498	89 85 54 ff ff
	ff		 mov	 DWORD PTR $T9[ebp], eax
; File C:\Program Files (x86)\Microsoft Visual Studio\2019\Community\VC\Tools\MSVC\14.28.29333\include\utility

; 106  :     _Right   = _STD move(_Tmp);

  0049e	8b 45 1c	 mov	 eax, DWORD PTR __Right$[ebp]
  004a1	8b 8d 54 ff ff
	ff		 mov	 ecx, DWORD PTR $T9[ebp]
  004a7	8b 09		 mov	 ecx, DWORD PTR [ecx]
  004a9	89 08		 mov	 DWORD PTR [eax], ecx
$LN32@Partition_:
; File C:\Program Files (x86)\Microsoft Visual Studio\2019\Community\VC\Tools\MSVC\14.28.29333\include\algorithm

; 7528 :             _STD iter_swap(_Pfirst, --_Plast);

  004ab	8b 45 60	 mov	 eax, DWORD PTR __Plast$[ebp]
  004ae	83 e8 04	 sub	 eax, 4
  004b1	89 45 60	 mov	 DWORD PTR __Plast$[ebp], eax
  004b4	8b 45 60	 mov	 eax, DWORD PTR __Plast$[ebp]
  004b7	89 45 14	 mov	 DWORD PTR __Right$[ebp], eax
  004ba	8b 45 64	 mov	 eax, DWORD PTR __Pfirst$[ebp]
  004bd	89 45 18	 mov	 DWORD PTR __Left$[ebp], eax
; File C:\Program Files (x86)\Microsoft Visual Studio\2019\Community\VC\Tools\MSVC\14.28.29333\include\type_traits

; 1455 :     return static_cast<remove_reference_t<_Ty>&&>(_Arg);

  004c0	8b 45 18	 mov	 eax, DWORD PTR __Left$[ebp]
  004c3	89 85 50 ff ff
	ff		 mov	 DWORD PTR $T8[ebp], eax
; File C:\Program Files (x86)\Microsoft Visual Studio\2019\Community\VC\Tools\MSVC\14.28.29333\include\utility

; 104  :     _Ty _Tmp = _STD move(_Left);

  004c9	8b 85 50 ff ff
	ff		 mov	 eax, DWORD PTR $T8[ebp]
  004cf	8b 00		 mov	 eax, DWORD PTR [eax]
  004d1	89 85 48 ff ff
	ff		 mov	 DWORD PTR __Tmp$6[ebp], eax
; File C:\Program Files (x86)\Microsoft Visual Studio\2019\Community\VC\Tools\MSVC\14.28.29333\include\type_traits

; 1455 :     return static_cast<remove_reference_t<_Ty>&&>(_Arg);

  004d7	8b 45 14	 mov	 eax, DWORD PTR __Right$[ebp]
  004da	89 85 4c ff ff
	ff		 mov	 DWORD PTR $T7[ebp], eax
; File C:\Program Files (x86)\Microsoft Visual Studio\2019\Community\VC\Tools\MSVC\14.28.29333\include\utility

; 105  :     _Left    = _STD move(_Right);

  004e0	8b 45 18	 mov	 eax, DWORD PTR __Left$[ebp]
  004e3	8b 8d 4c ff ff
	ff		 mov	 ecx, DWORD PTR $T7[ebp]
  004e9	8b 09		 mov	 ecx, DWORD PTR [ecx]
  004eb	89 08		 mov	 DWORD PTR [eax], ecx
; File C:\Program Files (x86)\Microsoft Visual Studio\2019\Community\VC\Tools\MSVC\14.28.29333\include\type_traits

; 1455 :     return static_cast<remove_reference_t<_Ty>&&>(_Arg);

  004ed	8d 85 48 ff ff
	ff		 lea	 eax, DWORD PTR __Tmp$6[ebp]
  004f3	89 85 44 ff ff
	ff		 mov	 DWORD PTR $T5[ebp], eax
; File C:\Program Files (x86)\Microsoft Visual Studio\2019\Community\VC\Tools\MSVC\14.28.29333\include\utility

; 106  :     _Right   = _STD move(_Tmp);

  004f9	8b 45 14	 mov	 eax, DWORD PTR __Right$[ebp]
  004fc	8b 8d 44 ff ff
	ff		 mov	 ecx, DWORD PTR $T5[ebp]
  00502	8b 09		 mov	 ecx, DWORD PTR [ecx]
  00504	89 08		 mov	 DWORD PTR [eax], ecx
; File C:\Program Files (x86)\Microsoft Visual Studio\2019\Community\VC\Tools\MSVC\14.28.29333\include\algorithm

; 7529 :         } else {

  00506	eb 58		 jmp	 SHORT $LN28@Partition_
$LN30@Partition_:

; 7530 :             _STD iter_swap(_Gfirst, --_Glast);

  00508	8b 45 58	 mov	 eax, DWORD PTR __Glast$[ebp]
  0050b	83 e8 04	 sub	 eax, 4
  0050e	89 45 58	 mov	 DWORD PTR __Glast$[ebp], eax
; File C:\Program Files (x86)\Microsoft Visual Studio\2019\Community\VC\Tools\MSVC\14.28.29333\include\type_traits

; 1455 :     return static_cast<remove_reference_t<_Ty>&&>(_Arg);

  00511	8b 45 5c	 mov	 eax, DWORD PTR __Gfirst$[ebp]
  00514	89 85 40 ff ff
	ff		 mov	 DWORD PTR $T4[ebp], eax
; File C:\Program Files (x86)\Microsoft Visual Studio\2019\Community\VC\Tools\MSVC\14.28.29333\include\utility

; 104  :     _Ty _Tmp = _STD move(_Left);

  0051a	8b 85 40 ff ff
	ff		 mov	 eax, DWORD PTR $T4[ebp]
  00520	8b 00		 mov	 eax, DWORD PTR [eax]
  00522	89 85 38 ff ff
	ff		 mov	 DWORD PTR __Tmp$2[ebp], eax
; File C:\Program Files (x86)\Microsoft Visual Studio\2019\Community\VC\Tools\MSVC\14.28.29333\include\type_traits

; 1455 :     return static_cast<remove_reference_t<_Ty>&&>(_Arg);

  00528	8b 45 58	 mov	 eax, DWORD PTR __Glast$[ebp]
  0052b	89 85 3c ff ff
	ff		 mov	 DWORD PTR $T3[ebp], eax
; File C:\Program Files (x86)\Microsoft Visual Studio\2019\Community\VC\Tools\MSVC\14.28.29333\include\utility

; 105  :     _Left    = _STD move(_Right);

  00531	8b 45 5c	 mov	 eax, DWORD PTR __Gfirst$[ebp]
  00534	8b 8d 3c ff ff
	ff		 mov	 ecx, DWORD PTR $T3[ebp]
  0053a	8b 09		 mov	 ecx, DWORD PTR [ecx]
  0053c	89 08		 mov	 DWORD PTR [eax], ecx
; File C:\Program Files (x86)\Microsoft Visual Studio\2019\Community\VC\Tools\MSVC\14.28.29333\include\type_traits

; 1455 :     return static_cast<remove_reference_t<_Ty>&&>(_Arg);

  0053e	8d 85 38 ff ff
	ff		 lea	 eax, DWORD PTR __Tmp$2[ebp]
  00544	89 85 34 ff ff
	ff		 mov	 DWORD PTR $T1[ebp], eax
; File C:\Program Files (x86)\Microsoft Visual Studio\2019\Community\VC\Tools\MSVC\14.28.29333\include\utility

; 106  :     _Right   = _STD move(_Tmp);

  0054a	8b 45 58	 mov	 eax, DWORD PTR __Glast$[ebp]
  0054d	8b 8d 34 ff ff
	ff		 mov	 ecx, DWORD PTR $T1[ebp]
  00553	8b 09		 mov	 ecx, DWORD PTR [ecx]
  00555	89 08		 mov	 DWORD PTR [eax], ecx
; File C:\Program Files (x86)\Microsoft Visual Studio\2019\Community\VC\Tools\MSVC\14.28.29333\include\algorithm

; 7531 :             ++_Gfirst;

  00557	8b 45 5c	 mov	 eax, DWORD PTR __Gfirst$[ebp]
  0055a	83 c0 04	 add	 eax, 4
  0055d	89 45 5c	 mov	 DWORD PTR __Gfirst$[ebp], eax
$LN28@Partition_:

; 7532 :         }
; 7533 :     }

  00560	e9 07 fc ff ff	 jmp	 $LN8@Partition_
$LN1@Partition_:

; 7534 : }

  00565	83 c5 68	 add	 ebp, 104		; 00000068H
  00568	c9		 leave
  00569	c3		 ret	 0
??$_Partition_by_median_guess_unchecked@PAPAVCGraphicObjectInstance@@U?$_Ref_fn@UFPCBlockerDistanceSort@@@std@@@std@@YA?AU?$pair@PAPAVCGraphicObjectInstance@@PAPAV1@@0@PAPAVCGraphicObjectInstance@@0U?$_Ref_fn@UFPCBlockerDistanceSort@@@0@@Z ENDP ; std::_Partition_by_median_guess_unchecked<CGraphicObjectInstance * *,std::_Ref_fn<FPCBlockerDistanceSort> >
_TEXT	ENDS
; Function compile flags: /Odspy
; File C:\Program Files (x86)\Microsoft Visual Studio\2019\Community\VC\Tools\MSVC\14.28.29333\include\algorithm
; File C:\Program Files (x86)\Microsoft Visual Studio\2019\Community\VC\Tools\MSVC\14.28.29333\include\type_traits
; File C:\Program Files (x86)\Microsoft Visual Studio\2019\Community\VC\Tools\MSVC\14.28.29333\include\algorithm
; File C:\Program Files (x86)\Microsoft Visual Studio\2019\Community\VC\Tools\MSVC\14.28.29333\include\type_traits
; File C:\Program Files (x86)\Microsoft Visual Studio\2019\Community\VC\Tools\MSVC\14.28.29333\include\algorithm
;	COMDAT ??$_Make_heap_unchecked@PAPAVCGraphicObjectInstance@@U?$_Ref_fn@UFPCBlockerDistanceSort@@@std@@@std@@YAXPAPAVCGraphicObjectInstance@@0U?$_Ref_fn@UFPCBlockerDistanceSort@@@0@@Z
_TEXT	SEGMENT
$T1 = -20						; size = 4
__Val$2 = -16						; size = 4
$T3 = -12						; size = 4
__Bottom$ = -8						; size = 4
__Hole$4 = -4						; size = 4
__First$ = 8						; size = 4
__Last$ = 12						; size = 4
__Pred$ = 16						; size = 4
??$_Make_heap_unchecked@PAPAVCGraphicObjectInstance@@U?$_Ref_fn@UFPCBlockerDistanceSort@@@std@@@std@@YAXPAPAVCGraphicObjectInstance@@0U?$_Ref_fn@UFPCBlockerDistanceSort@@@0@@Z PROC ; std::_Make_heap_unchecked<CGraphicObjectInstance * *,std::_Ref_fn<FPCBlockerDistanceSort> >, COMDAT

; 6357 : _CONSTEXPR20 void _Make_heap_unchecked(_RanIt _First, _RanIt _Last, _Pr _Pred) {

  00000	55		 push	 ebp
  00001	8b ec		 mov	 ebp, esp
  00003	83 ec 14	 sub	 esp, 20			; 00000014H

; 6358 :     // make [_First, _Last) into a heap
; 6359 :     using _Diff   = _Iter_diff_t<_RanIt>;
; 6360 :     _Diff _Bottom = _Last - _First;

  00006	8b 45 0c	 mov	 eax, DWORD PTR __Last$[ebp]
  00009	2b 45 08	 sub	 eax, DWORD PTR __First$[ebp]
  0000c	c1 f8 02	 sar	 eax, 2
  0000f	89 45 f8	 mov	 DWORD PTR __Bottom$[ebp], eax

; 6361 :     for (_Diff _Hole = _Bottom >> 1; _Hole > 0;) { // shift for codegen

  00012	8b 45 f8	 mov	 eax, DWORD PTR __Bottom$[ebp]
  00015	d1 f8		 sar	 eax, 1
  00017	89 45 fc	 mov	 DWORD PTR __Hole$4[ebp], eax
$LN4@Make_heap_:
  0001a	83 7d fc 00	 cmp	 DWORD PTR __Hole$4[ebp], 0
  0001e	7e 3a		 jle	 SHORT $LN1@Make_heap_

; 6362 :         // reheap top half, bottom to top
; 6363 :         --_Hole;

  00020	8b 45 fc	 mov	 eax, DWORD PTR __Hole$4[ebp]
  00023	48		 dec	 eax
  00024	89 45 fc	 mov	 DWORD PTR __Hole$4[ebp], eax

; 6364 :         _Iter_value_t<_RanIt> _Val = _STD move(*(_First + _Hole));

  00027	8b 45 fc	 mov	 eax, DWORD PTR __Hole$4[ebp]
  0002a	8b 4d 08	 mov	 ecx, DWORD PTR __First$[ebp]
  0002d	8d 04 81	 lea	 eax, DWORD PTR [ecx+eax*4]
; File C:\Program Files (x86)\Microsoft Visual Studio\2019\Community\VC\Tools\MSVC\14.28.29333\include\type_traits

; 1455 :     return static_cast<remove_reference_t<_Ty>&&>(_Arg);

  00030	89 45 f4	 mov	 DWORD PTR $T3[ebp], eax
; File C:\Program Files (x86)\Microsoft Visual Studio\2019\Community\VC\Tools\MSVC\14.28.29333\include\algorithm

; 6364 :         _Iter_value_t<_RanIt> _Val = _STD move(*(_First + _Hole));

  00033	8b 45 f4	 mov	 eax, DWORD PTR $T3[ebp]
  00036	8b 00		 mov	 eax, DWORD PTR [eax]
  00038	89 45 f0	 mov	 DWORD PTR __Val$2[ebp], eax
; File C:\Program Files (x86)\Microsoft Visual Studio\2019\Community\VC\Tools\MSVC\14.28.29333\include\type_traits

; 1455 :     return static_cast<remove_reference_t<_Ty>&&>(_Arg);

  0003b	8d 45 f0	 lea	 eax, DWORD PTR __Val$2[ebp]
  0003e	89 45 ec	 mov	 DWORD PTR $T1[ebp], eax
; File C:\Program Files (x86)\Microsoft Visual Studio\2019\Community\VC\Tools\MSVC\14.28.29333\include\algorithm

; 6365 :         _Pop_heap_hole_by_index(_First, _Hole, _Bottom, _STD move(_Val), _Pred);

  00041	ff 75 10	 push	 DWORD PTR __Pred$[ebp]
  00044	ff 75 ec	 push	 DWORD PTR $T1[ebp]
  00047	ff 75 f8	 push	 DWORD PTR __Bottom$[ebp]
  0004a	ff 75 fc	 push	 DWORD PTR __Hole$4[ebp]
  0004d	ff 75 08	 push	 DWORD PTR __First$[ebp]
  00050	e8 00 00 00 00	 call	 ??$_Pop_heap_hole_by_index@PAPAVCGraphicObjectInstance@@PAV1@U?$_Ref_fn@UFPCBlockerDistanceSort@@@std@@@std@@YAXPAPAVCGraphicObjectInstance@@HH$$QAPAV1@U?$_Ref_fn@UFPCBlockerDistanceSort@@@0@@Z ; std::_Pop_heap_hole_by_index<CGraphicObjectInstance * *,CGraphicObjectInstance *,std::_Ref_fn<FPCBlockerDistanceSort> >
  00055	83 c4 14	 add	 esp, 20			; 00000014H

; 6366 :     }

  00058	eb c0		 jmp	 SHORT $LN4@Make_heap_
$LN1@Make_heap_:

; 6367 : }

  0005a	c9		 leave
  0005b	c3		 ret	 0
??$_Make_heap_unchecked@PAPAVCGraphicObjectInstance@@U?$_Ref_fn@UFPCBlockerDistanceSort@@@std@@@std@@YAXPAPAVCGraphicObjectInstance@@0U?$_Ref_fn@UFPCBlockerDistanceSort@@@0@@Z ENDP ; std::_Make_heap_unchecked<CGraphicObjectInstance * *,std::_Ref_fn<FPCBlockerDistanceSort> >
_TEXT	ENDS
; Function compile flags: /Odspy
; File C:\Program Files (x86)\Microsoft Visual Studio\2019\Community\VC\Tools\MSVC\14.28.29333\include\algorithm
; File C:\Program Files (x86)\Microsoft Visual Studio\2019\Community\VC\Tools\MSVC\14.28.29333\include\type_traits
; File C:\Program Files (x86)\Microsoft Visual Studio\2019\Community\VC\Tools\MSVC\14.28.29333\include\algorithm
; File C:\Program Files (x86)\Microsoft Visual Studio\2019\Community\VC\Tools\MSVC\14.28.29333\include\type_traits
; File C:\Program Files (x86)\Microsoft Visual Studio\2019\Community\VC\Tools\MSVC\14.28.29333\include\xutility
; File C:\Program Files (x86)\Microsoft Visual Studio\2019\Community\VC\Tools\MSVC\14.28.29333\include\algorithm
; File C:\Program Files (x86)\Microsoft Visual Studio\2019\Community\VC\Tools\MSVC\14.28.29333\include\xutility
; File C:\Program Files (x86)\Microsoft Visual Studio\2019\Community\VC\Tools\MSVC\14.28.29333\include\type_traits
; File C:\Program Files (x86)\Microsoft Visual Studio\2019\Community\VC\Tools\MSVC\14.28.29333\include\xutility
; File C:\Program Files (x86)\Microsoft Visual Studio\2019\Community\VC\Tools\MSVC\14.28.29333\include\type_traits
; File C:\Program Files (x86)\Microsoft Visual Studio\2019\Community\VC\Tools\MSVC\14.28.29333\include\algorithm
; File C:\Program Files (x86)\Microsoft Visual Studio\2019\Community\VC\Tools\MSVC\14.28.29333\include\type_traits
; File C:\Program Files (x86)\Microsoft Visual Studio\2019\Community\VC\Tools\MSVC\14.28.29333\include\xutility
; File C:\Program Files (x86)\Microsoft Visual Studio\2019\Community\VC\Tools\MSVC\14.28.29333\include\algorithm
; File C:\Program Files (x86)\Microsoft Visual Studio\2019\Community\VC\Tools\MSVC\14.28.29333\include\type_traits
; File C:\Program Files (x86)\Microsoft Visual Studio\2019\Community\VC\Tools\MSVC\14.28.29333\include\algorithm
; File C:\Program Files (x86)\Microsoft Visual Studio\2019\Community\VC\Tools\MSVC\14.28.29333\include\type_traits
; File C:\Program Files (x86)\Microsoft Visual Studio\2019\Community\VC\Tools\MSVC\14.28.29333\include\algorithm
;	COMDAT ??$_Insertion_sort_unchecked@PAPAVCGraphicObjectInstance@@U?$_Ref_fn@UFPCBlockerDistanceSort@@@std@@@std@@YAPAPAVCGraphicObjectInstance@@QAPAV1@0U?$_Ref_fn@UFPCBlockerDistanceSort@@@0@@Z
_TEXT	SEGMENT
$T1 = -60						; size = 4
$T2 = -56						; size = 4
$T3 = -52						; size = 4
$T4 = -48						; size = 4
$T5 = -44						; size = 4
$T6 = -40						; size = 4
$T7 = -36						; size = 4
$T8 = -32						; size = 4
$T9 = -28						; size = 4
__Val$10 = -24						; size = 4
__Dest$ = -20						; size = 4
__Prev$11 = -16						; size = 4
__Last$ = -12						; size = 4
__Mid$12 = -8						; size = 4
__Hole$13 = -4						; size = 4
__First$ = 8						; size = 4
__Last$ = 12						; size = 4
__Pred$ = 16						; size = 4
??$_Insertion_sort_unchecked@PAPAVCGraphicObjectInstance@@U?$_Ref_fn@UFPCBlockerDistanceSort@@@std@@@std@@YAPAPAVCGraphicObjectInstance@@QAPAV1@0U?$_Ref_fn@UFPCBlockerDistanceSort@@@0@@Z PROC ; std::_Insertion_sort_unchecked<CGraphicObjectInstance * *,std::_Ref_fn<FPCBlockerDistanceSort> >, COMDAT

; 7410 : _CONSTEXPR20 _BidIt _Insertion_sort_unchecked(const _BidIt _First, const _BidIt _Last, _Pr _Pred) {

  00000	55		 push	 ebp
  00001	8b ec		 mov	 ebp, esp
  00003	83 ec 3c	 sub	 esp, 60			; 0000003cH

; 7411 :     // insertion sort [_First, _Last)
; 7412 :     if (_First != _Last) {

  00006	8b 45 08	 mov	 eax, DWORD PTR __First$[ebp]
  00009	3b 45 0c	 cmp	 eax, DWORD PTR __Last$[ebp]
  0000c	0f 84 1d 01 00
	00		 je	 $LN8@Insertion_

; 7413 :         for (_BidIt _Mid = _First; ++_Mid != _Last;) { // order next element

  00012	8b 45 08	 mov	 eax, DWORD PTR __First$[ebp]
  00015	89 45 f8	 mov	 DWORD PTR __Mid$12[ebp], eax
$LN4@Insertion_:
  00018	8b 45 f8	 mov	 eax, DWORD PTR __Mid$12[ebp]
  0001b	83 c0 04	 add	 eax, 4
  0001e	89 45 f8	 mov	 DWORD PTR __Mid$12[ebp], eax
  00021	8b 45 f8	 mov	 eax, DWORD PTR __Mid$12[ebp]
  00024	3b 45 0c	 cmp	 eax, DWORD PTR __Last$[ebp]
  00027	0f 84 02 01 00
	00		 je	 $LN8@Insertion_

; 7414 :             _BidIt _Hole               = _Mid;

  0002d	8b 45 f8	 mov	 eax, DWORD PTR __Mid$12[ebp]
  00030	89 45 fc	 mov	 DWORD PTR __Hole$13[ebp], eax
; File C:\Program Files (x86)\Microsoft Visual Studio\2019\Community\VC\Tools\MSVC\14.28.29333\include\type_traits

; 1455 :     return static_cast<remove_reference_t<_Ty>&&>(_Arg);

  00033	8b 45 f8	 mov	 eax, DWORD PTR __Mid$12[ebp]
  00036	89 45 e4	 mov	 DWORD PTR $T9[ebp], eax
; File C:\Program Files (x86)\Microsoft Visual Studio\2019\Community\VC\Tools\MSVC\14.28.29333\include\algorithm

; 7415 :             _Iter_value_t<_BidIt> _Val = _STD move(*_Mid);

  00039	8b 45 e4	 mov	 eax, DWORD PTR $T9[ebp]
  0003c	8b 00		 mov	 eax, DWORD PTR [eax]
  0003e	89 45 e8	 mov	 DWORD PTR __Val$10[ebp], eax
; File C:\Program Files (x86)\Microsoft Visual Studio\2019\Community\VC\Tools\MSVC\14.28.29333\include\type_traits

; 1443 :     return static_cast<_Ty&&>(_Arg);

  00041	8b 45 08	 mov	 eax, DWORD PTR __First$[ebp]
  00044	89 45 e0	 mov	 DWORD PTR $T8[ebp], eax
  00047	8d 45 e8	 lea	 eax, DWORD PTR __Val$10[ebp]
  0004a	89 45 dc	 mov	 DWORD PTR $T7[ebp], eax
; File C:\Program Files (x86)\Microsoft Visual Studio\2019\Community\VC\Tools\MSVC\14.28.29333\include\xutility

; 203  :             return _Fn(_STD forward<_Args>(_Vals)...);

  0004d	8b 45 e0	 mov	 eax, DWORD PTR $T8[ebp]
  00050	ff 30		 push	 DWORD PTR [eax]
  00052	8b 45 dc	 mov	 eax, DWORD PTR $T7[ebp]
  00055	ff 30		 push	 DWORD PTR [eax]
  00057	8b 4d 10	 mov	 ecx, DWORD PTR __Pred$[ebp]
  0005a	e8 00 00 00 00	 call	 ??RFPCBlockerDistanceSort@@QBE_NPAVCGraphicObjectInstance@@0@Z ; FPCBlockerDistanceSort::operator()
; File C:\Program Files (x86)\Microsoft Visual Studio\2019\Community\VC\Tools\MSVC\14.28.29333\include\algorithm

; 7417 :             if (_DEBUG_LT_PRED(_Pred, _Val, *_First)) { // found new earliest element, move to front

  0005f	0f b6 c0	 movzx	 eax, al
  00062	85 c0		 test	 eax, eax
