; Listing generated by Microsoft (R) Optimizing Compiler Version 19.28.29335.0 

	TITLE	D:\Metin2 Server Files\mainline\SRC_2014\Metin2Client\GameLib\MapOutdoorWater.cpp
	.686P
	.XMM
	include listing.inc
	.model	flat

INCLUDELIB LIBCMT
INCLUDELIB OLDNAMES

PUBLIC	??_H@YGXPAXIIP6EPAX0@Z@Z			; `vector constructor iterator'
PUBLIC	___local_stdio_printf_options
PUBLIC	_sprintf
PUBLIC	?RenderWater@CMapOutdoor@@QAEXXZ		; CMapOutdoor::RenderWater
PUBLIC	?DrawWater@CMapOutdoor@@IAEXJ@Z			; CMapOutdoor::DrawWater
PUBLIC	?LoadWaterTexture@CMapOutdoor@@IAEXXZ		; CMapOutdoor::LoadWaterTexture
PUBLIC	?UnloadWaterTexture@CMapOutdoor@@IAEXXZ		; CMapOutdoor::UnloadWaterTexture
PUBLIC	??$_Const_cast@$$CBU?$pair@MJ@std@@@std@@YAPAU?$pair@MJ@0@PBU10@@Z ; std::_Const_cast<std::pair<float,long> const >
PUBLIC	?_OptionsStorage@?1??__local_stdio_printf_options@@9@4_KA ; `__local_stdio_printf_options'::`2'::_OptionsStorage
PUBLIC	?ms_singleton@?$CSingleton@VCTimer@@@@0PAVCTimer@@A ; CSingleton<CTimer>::ms_singleton
PUBLIC	?ms_singleton@?$CSingleton@VCStateManager@@@@0PAVCStateManager@@A ; CSingleton<CStateManager>::ms_singleton
PUBLIC	?ms_singleton@?$CSingleton@VCResourceManager@@@@0PAVCResourceManager@@A ; CSingleton<CResourceManager>::ms_singleton
PUBLIC	??_C@_0CE@FMFHOAGL@d?3?1ymir?5Work?1special?1water?1?$CF02d@ ; `string'
PUBLIC	__real@00000000
PUBLIC	__xmm@41f00000000000000000000000000000
PUBLIC	__xmm@80000000800000008000000080000000
EXTRN	__Init_thread_header:PROC
EXTRN	__Init_thread_abort:PROC
EXTRN	__Init_thread_footer:PROC
EXTRN	___stdio_common_vsprintf:PROC
EXTRN	?random_range@@YAJJJ@Z:PROC			; random_range
EXTRN	_D3DXMatrixMultiply@12:PROC
EXTRN	_D3DXMatrixScaling@16:PROC
EXTRN	?GetCurrentMillisecond@CTimer@@QAEKXZ:PROC	; CTimer::GetCurrentMillisecond
EXTRN	?ELTimer_GetMSec@@YAKXZ:PROC			; ELTimer_GetMSec
EXTRN	?GetD3DTexture@CGraphicTexture@@QBEPAUIDirect3DTexture8@@XZ:PROC ; CGraphicTexture::GetD3DTexture
EXTRN	?Destroy@CGraphicImageInstance@@QAEXXZ:PROC	; CGraphicImageInstance::Destroy
EXTRN	?SetImagePointer@CGraphicImageInstance@@QAEXPAVCGraphicImage@@@Z:PROC ; CGraphicImageInstance::SetImagePointer
EXTRN	?GetTexturePointer@CGraphicImageInstance@@QAEPAVCGraphicTexture@@XZ:PROC ; CGraphicImageInstance::GetTexturePointer
EXTRN	?SaveRenderState@CStateManager@@QAEXW4_D3DRENDERSTATETYPE@@K@Z:PROC ; CStateManager::SaveRenderState
EXTRN	?RestoreRenderState@CStateManager@@QAEXW4_D3DRENDERSTATETYPE@@@Z:PROC ; CStateManager::RestoreRenderState
EXTRN	?SetRenderState@CStateManager@@QAEXW4_D3DRENDERSTATETYPE@@K@Z:PROC ; CStateManager::SetRenderState
EXTRN	?SetTexture@CStateManager@@QAEXKPAUIDirect3DBaseTexture8@@@Z:PROC ; CStateManager::SetTexture
EXTRN	?SaveTextureStageState@CStateManager@@QAEXKW4_D3DTEXTURESTAGESTATETYPE@@K@Z:PROC ; CStateManager::SaveTextureStageState
EXTRN	?RestoreTextureStageState@CStateManager@@QAEXKW4_D3DTEXTURESTAGESTATETYPE@@@Z:PROC ; CStateManager::RestoreTextureStageState
EXTRN	?SetTextureStageState@CStateManager@@QAEXKW4_D3DTEXTURESTAGESTATETYPE@@K@Z:PROC ; CStateManager::SetTextureStageState
EXTRN	?SaveVertexShader@CStateManager@@QAEXK@Z:PROC	; CStateManager::SaveVertexShader
EXTRN	?RestoreVertexShader@CStateManager@@QAEXXZ:PROC	; CStateManager::RestoreVertexShader
EXTRN	?SaveTransform@CStateManager@@QAEXW4_D3DTRANSFORMSTATETYPE@@PBU_D3DMATRIX@@@Z:PROC ; CStateManager::SaveTransform
EXTRN	?RestoreTransform@CStateManager@@QAEXW4_D3DTRANSFORMSTATETYPE@@@Z:PROC ; CStateManager::RestoreTransform
EXTRN	?SetTransform@CStateManager@@QAEXW4_D3DTRANSFORMSTATETYPE@@PBU_D3DMATRIX@@@Z:PROC ; CStateManager::SetTransform
EXTRN	?SetStreamSource@CStateManager@@QAEXIPAUIDirect3DVertexBuffer8@@I@Z:PROC ; CStateManager::SetStreamSource
EXTRN	?DrawPrimitive@CStateManager@@QAEJW4_D3DPRIMITIVETYPE@@II@Z:PROC ; CStateManager::DrawPrimitive
EXTRN	?GetResourcePointer@CResourceManager@@QAEPAVCResource@@PBD@Z:PROC ; CResourceManager::GetResourcePointer
EXTRN	?GetWaterFaceCount@CTerrainPatchProxy@@QAEIXZ:PROC ; CTerrainPatchProxy::GetWaterFaceCount
EXTRN	?IsVisiblePart@CMapOutdoor@@IAE_NH@Z:PROC	; CMapOutdoor::IsVisiblePart
EXTRN	?__GetFogDistance@CMapOutdoor@@IAEMXZ:PROC	; CMapOutdoor::__GetFogDistance
EXTRN	@__security_check_cookie@4:PROC
EXTRN	___CxxFrameHandler3:PROC
EXTRN	__Init_thread_epoch:DWORD
EXTRN	?ms_faceCount@CGraphicBase@@1KA:DWORD		; CGraphicBase::ms_faceCount
EXTRN	___security_cookie:DWORD
EXTRN	__fltused:DWORD
EXTRN	__tls_array:DWORD
EXTRN	__tls_index:DWORD
;	COMDAT ?_OptionsStorage@?1??__local_stdio_printf_options@@9@4_KA
_BSS	SEGMENT
?_OptionsStorage@?1??__local_stdio_printf_options@@9@4_KA DQ 01H DUP (?) ; `__local_stdio_printf_options'::`2'::_OptionsStorage
_BSS	ENDS
;	COMDAT ?ms_singleton@?$CSingleton@VCTimer@@@@0PAVCTimer@@A
_BSS	SEGMENT
?ms_singleton@?$CSingleton@VCTimer@@@@0PAVCTimer@@A DD 01H DUP (?) ; CSingleton<CTimer>::ms_singleton
_BSS	ENDS
;	COMDAT ?ms_singleton@?$CSingleton@VCStateManager@@@@0PAVCStateManager@@A
_BSS	SEGMENT
?ms_singleton@?$CSingleton@VCStateManager@@@@0PAVCStateManager@@A DD 01H DUP (?) ; CSingleton<CStateManager>::ms_singleton
_BSS	ENDS
;	COMDAT ?ms_singleton@?$CSingleton@VCResourceManager@@@@0PAVCResourceManager@@A
_BSS	SEGMENT
?ms_singleton@?$CSingleton@VCResourceManager@@@@0PAVCResourceManager@@A DD 01H DUP (?) ; CSingleton<CResourceManager>::ms_singleton
_BSS	ENDS
;	COMDAT ?s_fWaterHeightCurrent@?1??RenderWater@CMapOutdoor@@QAEXXZ@4MA
_BSS	SEGMENT
?s_fWaterHeightCurrent@?1??RenderWater@CMapOutdoor@@QAEXXZ@4MA DD 01H DUP (?) ; `CMapOutdoor::RenderWater'::`2'::s_fWaterHeightCurrent
_BSS	ENDS
;	COMDAT ?s_fWaterHeightBegin@?1??RenderWater@CMapOutdoor@@QAEXXZ@4MA
_BSS	SEGMENT
?s_fWaterHeightBegin@?1??RenderWater@CMapOutdoor@@QAEXXZ@4MA DD 01H DUP (?) ; `CMapOutdoor::RenderWater'::`2'::s_fWaterHeightBegin
_BSS	ENDS
;	COMDAT ?s_fWaterHeightEnd@?1??RenderWater@CMapOutdoor@@QAEXXZ@4MA
_BSS	SEGMENT
?s_fWaterHeightEnd@?1??RenderWater@CMapOutdoor@@QAEXXZ@4MA DD 01H DUP (?) ; `CMapOutdoor::RenderWater'::`2'::s_fWaterHeightEnd
_BSS	ENDS
;	COMDAT ?s_dwLastHeightChangeTime@?1??RenderWater@CMapOutdoor@@QAEXXZ@4KA
_BSS	SEGMENT
?s_dwLastHeightChangeTime@?1??RenderWater@CMapOutdoor@@QAEXXZ@4KA DD 01H DUP (?) ; `CMapOutdoor::RenderWater'::`2'::s_dwLastHeightChangeTime
_BSS	ENDS
;	COMDAT ?$TSS0@?1??RenderWater@CMapOutdoor@@QAEXXZ@4HA
_BSS	SEGMENT
?$TSS0@?1??RenderWater@CMapOutdoor@@QAEXXZ@4HA DD 01H DUP (?) ; `CMapOutdoor::RenderWater'::`2'::$TSS0
_BSS	ENDS
;	COMDAT __xmm@80000000800000008000000080000000
CONST	SEGMENT
__xmm@80000000800000008000000080000000 DB 00H, 00H, 00H, 080H, 00H, 00H, 00H
	DB	080H, 00H, 00H, 00H, 080H, 00H, 00H, 00H, 080H
CONST	ENDS
;	COMDAT __xmm@41f00000000000000000000000000000
CONST	SEGMENT
__xmm@41f00000000000000000000000000000 DB 00H, 00H, 00H, 00H, 00H, 00H, 00H
	DB	00H, 00H, 00H, 00H, 00H, 00H, 00H, 0f0H, 'A'
CONST	ENDS
;	COMDAT __real@00000000
CONST	SEGMENT
__real@00000000 DD 000000000r			; 0
CONST	ENDS
;	COMDAT ?s_dwBlendtime@?1??RenderWater@CMapOutdoor@@QAEXXZ@4KA
_DATA	SEGMENT
?s_dwBlendtime@?1??RenderWater@CMapOutdoor@@QAEXXZ@4KA DD 012cH ; `CMapOutdoor::RenderWater'::`2'::s_dwBlendtime
_DATA	ENDS
;	COMDAT ??_C@_0CE@FMFHOAGL@d?3?1ymir?5Work?1special?1water?1?$CF02d@
CONST	SEGMENT
??_C@_0CE@FMFHOAGL@d?3?1ymir?5Work?1special?1water?1?$CF02d@ DB 'd:/ymir '
	DB	'Work/special/water/%02d.dds', 00H		; `string'
CONST	ENDS
;	COMDAT xdata$x
xdata$x	SEGMENT
__unwindtable$?RenderWater@CMapOutdoor@@QAEXXZ DD 0ffffffffH
	DD	FLAT:__unwindfunclet$?RenderWater@CMapOutdoor@@QAEXXZ$0
__ehfuncinfo$?RenderWater@CMapOutdoor@@QAEXXZ DD 019930522H
	DD	01H
	DD	FLAT:__unwindtable$?RenderWater@CMapOutdoor@@QAEXXZ
	DD	2 DUP(00H)
	DD	2 DUP(00H)
	DD	00H
	DD	01H
xdata$x	ENDS
; Function compile flags: /Odspy
; File C:\Program Files (x86)\Microsoft Visual Studio\2019\Community\VC\Tools\MSVC\14.28.29333\include\xmemory
;	COMDAT ??$_Const_cast@$$CBU?$pair@MJ@std@@@std@@YAPAU?$pair@MJ@0@PBU10@@Z
_TEXT	SEGMENT
__Ptr$ = 8						; size = 4
??$_Const_cast@$$CBU?$pair@MJ@std@@@std@@YAPAU?$pair@MJ@0@PBU10@@Z PROC ; std::_Const_cast<std::pair<float,long> const >, COMDAT

; 292  : auto _Const_cast(_Ty* _Ptr) noexcept {

  00000	55		 push	 ebp
  00001	8b ec		 mov	 ebp, esp

; 293  :     return const_cast<remove_const_t<_Ty>*>(_Ptr);

  00003	8b 45 08	 mov	 eax, DWORD PTR __Ptr$[ebp]

; 294  : }

  00006	5d		 pop	 ebp
  00007	c3		 ret	 0
??$_Const_cast@$$CBU?$pair@MJ@std@@@std@@YAPAU?$pair@MJ@0@PBU10@@Z ENDP ; std::_Const_cast<std::pair<float,long> const >
_TEXT	ENDS
; Function compile flags: /Odspy
; File D:\Metin2 Server Files\mainline\SRC_2014\Metin2Client\GameLib\MapOutdoorWater.cpp
;	COMDAT ?UnloadWaterTexture@CMapOutdoor@@IAEXXZ
_TEXT	SEGMENT
_this$ = -8						; size = 4
_i$1 = -4						; size = 4
?UnloadWaterTexture@CMapOutdoor@@IAEXXZ PROC		; CMapOutdoor::UnloadWaterTexture, COMDAT
; _this$ = ecx

; 20   : {

  00000	55		 push	 ebp
  00001	8b ec		 mov	 ebp, esp
  00003	51		 push	 ecx
  00004	51		 push	 ecx
  00005	89 4d f8	 mov	 DWORD PTR _this$[ebp], ecx

; 21   : 	for (int i = 0; i < 30; ++i)

  00008	83 65 fc 00	 and	 DWORD PTR _i$1[ebp], 0
  0000c	eb 07		 jmp	 SHORT $LN4@UnloadWate
$LN2@UnloadWate:
  0000e	8b 45 fc	 mov	 eax, DWORD PTR _i$1[ebp]
  00011	40		 inc	 eax
  00012	89 45 fc	 mov	 DWORD PTR _i$1[ebp], eax
$LN4@UnloadWate:
  00015	83 7d fc 1e	 cmp	 DWORD PTR _i$1[ebp], 30	; 0000001eH
  00019	7d 17		 jge	 SHORT $LN1@UnloadWate

; 22   : 		m_WaterInstances[i].Destroy();

  0001b	8b 45 fc	 mov	 eax, DWORD PTR _i$1[ebp]
  0001e	c1 e0 05	 shl	 eax, 5
  00021	8b 4d f8	 mov	 ecx, DWORD PTR _this$[ebp]
  00024	8d 8c 01 28 0a
	00 00		 lea	 ecx, DWORD PTR [ecx+eax+2600]
  0002b	e8 00 00 00 00	 call	 ?Destroy@CGraphicImageInstance@@QAEXXZ ; CGraphicImageInstance::Destroy
  00030	eb dc		 jmp	 SHORT $LN2@UnloadWate
$LN1@UnloadWate:

; 23   : }

  00032	c9		 leave
  00033	c3		 ret	 0
?UnloadWaterTexture@CMapOutdoor@@IAEXXZ ENDP		; CMapOutdoor::UnloadWaterTexture
_TEXT	ENDS
; Function compile flags: /Odspy
; File D:\Metin2 Server Files\mainline\SRC_2014\Metin2Client\GameLib\MapOutdoorWater.cpp
; File D:\Metin2 Server Files\mainline\SRC_2014\Metin2Client\eterBase\Singleton.h
; File D:\Metin2 Server Files\mainline\SRC_2014\Metin2Client\GameLib\MapOutdoorWater.cpp
;	COMDAT ?LoadWaterTexture@CMapOutdoor@@IAEXXZ
_TEXT	SEGMENT
$T1 = -128						; size = 4
_this$ = -124						; size = 4
_i$2 = -120						; size = 4
_buf$ = -116						; size = 256
__$ArrayPad$ = 140					; size = 4
?LoadWaterTexture@CMapOutdoor@@IAEXXZ PROC		; CMapOutdoor::LoadWaterTexture, COMDAT
; _this$ = ecx

; 9    : {

  00000	55		 push	 ebp
  00001	8d ac 24 70 ff
	ff ff		 lea	 ebp, DWORD PTR [esp-144]
  00008	81 ec 10 01 00
	00		 sub	 esp, 272		; 00000110H
  0000e	a1 00 00 00 00	 mov	 eax, DWORD PTR ___security_cookie
  00013	33 c5		 xor	 eax, ebp
  00015	89 85 8c 00 00
	00		 mov	 DWORD PTR __$ArrayPad$[ebp], eax
  0001b	89 4d 84	 mov	 DWORD PTR _this$[ebp], ecx

; 10   : 	UnloadWaterTexture();

  0001e	8b 4d 84	 mov	 ecx, DWORD PTR _this$[ebp]
  00021	e8 00 00 00 00	 call	 ?UnloadWaterTexture@CMapOutdoor@@IAEXXZ ; CMapOutdoor::UnloadWaterTexture

; 11   : 	char buf[256];
; 12   : 	for (int i = 0; i < 30; ++i)

  00026	83 65 88 00	 and	 DWORD PTR _i$2[ebp], 0
  0002a	eb 07		 jmp	 SHORT $LN4@LoadWaterT
$LN2@LoadWaterT:
  0002c	8b 45 88	 mov	 eax, DWORD PTR _i$2[ebp]
  0002f	40		 inc	 eax
  00030	89 45 88	 mov	 DWORD PTR _i$2[ebp], eax
$LN4@LoadWaterT:
  00033	83 7d 88 1e	 cmp	 DWORD PTR _i$2[ebp], 30	; 0000001eH
  00037	7d 42		 jge	 SHORT $LN1@LoadWaterT

; 13   : 	{
; 14   : 		sprintf(buf, "d:/ymir Work/special/water/%02d.dds", i+1);

  00039	8b 45 88	 mov	 eax, DWORD PTR _i$2[ebp]
  0003c	40		 inc	 eax
  0003d	50		 push	 eax
  0003e	68 00 00 00 00	 push	 OFFSET ??_C@_0CE@FMFHOAGL@d?3?1ymir?5Work?1special?1water?1?$CF02d@
  00043	8d 45 8c	 lea	 eax, DWORD PTR _buf$[ebp]
  00046	50		 push	 eax
  00047	e8 00 00 00 00	 call	 _sprintf
  0004c	83 c4 0c	 add	 esp, 12			; 0000000cH
; File D:\Metin2 Server Files\mainline\SRC_2014\Metin2Client\eterBase\Singleton.h

; 27   : 		return (*ms_singleton);

  0004f	a1 00 00 00 00	 mov	 eax, DWORD PTR ?ms_singleton@?$CSingleton@VCResourceManager@@@@0PAVCResourceManager@@A ; CSingleton<CResourceManager>::ms_singleton
  00054	89 45 80	 mov	 DWORD PTR $T1[ebp], eax
; File D:\Metin2 Server Files\mainline\SRC_2014\Metin2Client\GameLib\MapOutdoorWater.cpp

; 15   : 		m_WaterInstances[i].SetImagePointer((CGraphicImage *) CResourceManager::Instance().GetResourcePointer(buf));

  00057	8d 45 8c	 lea	 eax, DWORD PTR _buf$[ebp]
  0005a	50		 push	 eax
  0005b	8b 4d 80	 mov	 ecx, DWORD PTR $T1[ebp]
  0005e	e8 00 00 00 00	 call	 ?GetResourcePointer@CResourceManager@@QAEPAVCResource@@PBD@Z ; CResourceManager::GetResourcePointer
  00063	50		 push	 eax
  00064	8b 45 88	 mov	 eax, DWORD PTR _i$2[ebp]
  00067	c1 e0 05	 shl	 eax, 5
  0006a	8b 4d 84	 mov	 ecx, DWORD PTR _this$[ebp]
  0006d	8d 8c 01 28 0a
	00 00		 lea	 ecx, DWORD PTR [ecx+eax+2600]
  00074	e8 00 00 00 00	 call	 ?SetImagePointer@CGraphicImageInstance@@QAEXPAVCGraphicImage@@@Z ; CGraphicImageInstance::SetImagePointer

; 16   : 	}

  00079	eb b1		 jmp	 SHORT $LN2@LoadWaterT
$LN1@LoadWaterT:

; 17   : }

  0007b	8b 8d 8c 00 00
	00		 mov	 ecx, DWORD PTR __$ArrayPad$[ebp]
  00081	33 cd		 xor	 ecx, ebp
  00083	e8 00 00 00 00	 call	 @__security_check_cookie@4
  00088	81 c5 90 00 00
	00		 add	 ebp, 144		; 00000090H
  0008e	c9		 leave
  0008f	c3		 ret	 0
?LoadWaterTexture@CMapOutdoor@@IAEXXZ ENDP		; CMapOutdoor::LoadWaterTexture
_TEXT	ENDS
; Function compile flags: /Odspy
; File D:\Metin2 Server Files\mainline\SRC_2014\Metin2Client\GameLib\MapOutdoorWater.cpp
; File D:\Metin2 Server Files\mainline\SRC_2014\Metin2Client\GameLib\TerrainPatch.h
; File D:\Metin2 Server Files\mainline\SRC_2014\Metin2Client\GameLib\MapOutdoorWater.cpp
; File D:\Metin2 Server Files\mainline\SRC_2014\Metin2Client\GameLib\TerrainPatch.h
; File D:\Metin2 Server Files\mainline\SRC_2014\Metin2Client\GameLib\MapOutdoorWater.cpp
; File D:\Metin2 Server Files\mainline\SRC_2014\Metin2Client\GameLib\TerrainPatch.h
; File D:\Metin2 Server Files\mainline\SRC_2014\Metin2Client\GameLib\MapOutdoorWater.cpp
; File D:\Metin2 Server Files\mainline\SRC_2014\Metin2Client\eterLib\GrpVertexBuffer.h
; File D:\Metin2 Server Files\mainline\SRC_2014\Metin2Client\GameLib\MapOutdoorWater.cpp
; File D:\Metin2 Server Files\mainline\SRC_2014\Metin2Client\eterLib\GrpVertexBuffer.h
; File D:\Metin2 Server Files\mainline\SRC_2014\Metin2Client\GameLib\MapOutdoorWater.cpp
;	COMDAT ?DrawWater@CMapOutdoor@@IAEXJ@Z
_TEXT	SEGMENT
$T1 = -28						; size = 4
$T2 = -24						; size = 4
_this$ = -20						; size = 4
_uPriCount$ = -16					; size = 4
_pkVB$ = -12						; size = 4
_rkTerrainPatchProxy$ = -8				; size = 4
$T3 = -2						; size = 1
$T4 = -1						; size = 1
_patchnum$ = 8						; size = 4
?DrawWater@CMapOutdoor@@IAEXJ@Z PROC			; CMapOutdoor::DrawWater, COMDAT
; _this$ = ecx

; 142  : {

  00000	55		 push	 ebp
  00001	8b ec		 mov	 ebp, esp
  00003	83 ec 1c	 sub	 esp, 28			; 0000001cH
  00006	89 4d ec	 mov	 DWORD PTR _this$[ebp], ecx

; 143  : 	assert(NULL!=m_pTerrainPatchProxyList);
; 144  : 	if (!m_pTerrainPatchProxyList)

  00009	8b 45 ec	 mov	 eax, DWORD PTR _this$[ebp]
  0000c	83 78 64 00	 cmp	 DWORD PTR [eax+100], 0
  00010	75 05		 jne	 SHORT $LN2@DrawWater

; 145  : 		return;

  00012	e9 a7 00 00 00	 jmp	 $LN1@DrawWater
$LN2@DrawWater:

; 146  : 
; 147  : 	CTerrainPatchProxy& rkTerrainPatchProxy = m_pTerrainPatchProxyList[patchnum];

  00017	6b 45 08 1c	 imul	 eax, DWORD PTR _patchnum$[ebp], 28
  0001b	8b 4d ec	 mov	 ecx, DWORD PTR _this$[ebp]
  0001e	03 41 64	 add	 eax, DWORD PTR [ecx+100]
  00021	89 45 f8	 mov	 DWORD PTR _rkTerrainPatchProxy$[ebp], eax
; File D:\Metin2 Server Files\mainline\SRC_2014\Metin2Client\GameLib\TerrainPatch.h

; 170  : 	bool isUsed()																	{ return m_bUsed; }

  00024	8b 45 f8	 mov	 eax, DWORD PTR _rkTerrainPatchProxy$[ebp]
  00027	8a 40 04	 mov	 al, BYTE PTR [eax+4]
  0002a	88 45 ff	 mov	 BYTE PTR $T4[ebp], al
; File D:\Metin2 Server Files\mainline\SRC_2014\Metin2Client\GameLib\MapOutdoorWater.cpp

; 149  : 	if (!rkTerrainPatchProxy.isUsed())

  0002d	0f b6 45 ff	 movzx	 eax, BYTE PTR $T4[ebp]
  00031	85 c0		 test	 eax, eax
  00033	75 05		 jne	 SHORT $LN3@DrawWater

; 150  : 		return;

  00035	e9 84 00 00 00	 jmp	 $LN1@DrawWater
$LN3@DrawWater:
; File D:\Metin2 Server Files\mainline\SRC_2014\Metin2Client\GameLib\TerrainPatch.h

; 84   : 	bool IsWaterExist()										{ return m_bWaterExist; }

  0003a	8b 45 f8	 mov	 eax, DWORD PTR _rkTerrainPatchProxy$[ebp]
  0003d	8b 40 0c	 mov	 eax, DWORD PTR [eax+12]
  00040	8a 40 19	 mov	 al, BYTE PTR [eax+25]
  00043	88 45 fe	 mov	 BYTE PTR $T3[ebp], al
; File D:\Metin2 Server Files\mainline\SRC_2014\Metin2Client\GameLib\MapOutdoorWater.cpp

; 152  : 	if (!rkTerrainPatchProxy.isWaterExists())

  00046	0f b6 45 fe	 movzx	 eax, BYTE PTR $T3[ebp]
  0004a	85 c0		 test	 eax, eax
  0004c	75 02		 jne	 SHORT $LN15@DrawWater

; 153  : 		return;

  0004e	eb 6e		 jmp	 SHORT $LN1@DrawWater
$LN15@DrawWater:
; File D:\Metin2 Server Files\mainline\SRC_2014\Metin2Client\GameLib\TerrainPatch.h

; 126  : 	CGraphicVertexBuffer* GetWaterVertexBufferPointer()	{ return &m_WaterVertexBuffer;}

  00050	8b 45 f8	 mov	 eax, DWORD PTR _rkTerrainPatchProxy$[ebp]
  00053	8b 40 0c	 mov	 eax, DWORD PTR [eax+12]
  00056	83 c0 24	 add	 eax, 36			; 00000024H
; File D:\Metin2 Server Files\mainline\SRC_2014\Metin2Client\GameLib\MapOutdoorWater.cpp

; 155  : 	CGraphicVertexBuffer* pkVB=rkTerrainPatchProxy.GetWaterVertexBufferPointer();

  00059	89 45 f4	 mov	 DWORD PTR _pkVB$[ebp], eax

; 156  : 	if (!pkVB)

  0005c	75 02		 jne	 SHORT $LN5@DrawWater

; 157  : 		return;

  0005e	eb 5e		 jmp	 SHORT $LN1@DrawWater
$LN5@DrawWater:
; File D:\Metin2 Server Files\mainline\SRC_2014\Metin2Client\eterLib\GrpVertexBuffer.h

; 33   : 		inline	LPDIRECT3DVERTEXBUFFER8 GetD3DVertexBuffer() const	{ return m_lpd3dVB; }

  00060	8b 45 f4	 mov	 eax, DWORD PTR _pkVB$[ebp]
  00063	8b 40 04	 mov	 eax, DWORD PTR [eax+4]
  00066	89 45 e8	 mov	 DWORD PTR $T2[ebp], eax
; File D:\Metin2 Server Files\mainline\SRC_2014\Metin2Client\GameLib\MapOutdoorWater.cpp

; 159  : 	if (!pkVB->GetD3DVertexBuffer())

  00069	83 7d e8 00	 cmp	 DWORD PTR $T2[ebp], 0
  0006d	75 02		 jne	 SHORT $LN6@DrawWater

; 160  : 		return;

  0006f	eb 4d		 jmp	 SHORT $LN1@DrawWater
$LN6@DrawWater:

; 161  : 
; 162  : 	UINT uPriCount=rkTerrainPatchProxy.GetWaterFaceCount();

  00071	8b 4d f8	 mov	 ecx, DWORD PTR _rkTerrainPatchProxy$[ebp]
  00074	e8 00 00 00 00	 call	 ?GetWaterFaceCount@CTerrainPatchProxy@@QAEIXZ ; CTerrainPatchProxy::GetWaterFaceCount
  00079	89 45 f0	 mov	 DWORD PTR _uPriCount$[ebp], eax

; 163  : 	if (!uPriCount)

  0007c	83 7d f0 00	 cmp	 DWORD PTR _uPriCount$[ebp], 0
  00080	75 02		 jne	 SHORT $LN7@DrawWater

; 164  : 		return;

  00082	eb 3a		 jmp	 SHORT $LN1@DrawWater
$LN7@DrawWater:
; File D:\Metin2 Server Files\mainline\SRC_2014\Metin2Client\eterLib\GrpVertexBuffer.h

; 33   : 		inline	LPDIRECT3DVERTEXBUFFER8 GetD3DVertexBuffer() const	{ return m_lpd3dVB; }

  00084	8b 45 f4	 mov	 eax, DWORD PTR _pkVB$[ebp]
  00087	8b 40 04	 mov	 eax, DWORD PTR [eax+4]
  0008a	89 45 e4	 mov	 DWORD PTR $T1[ebp], eax
; File D:\Metin2 Server Files\mainline\SRC_2014\Metin2Client\GameLib\MapOutdoorWater.cpp

; 166  : 	STATEMANAGER.SetStreamSource(0, pkVB->GetD3DVertexBuffer(), sizeof(SWaterVertex));

  0008d	6a 10		 push	 16			; 00000010H
  0008f	ff 75 e4	 push	 DWORD PTR $T1[ebp]
  00092	6a 00		 push	 0
  00094	8b 0d 00 00 00
	00		 mov	 ecx, DWORD PTR ?ms_singleton@?$CSingleton@VCStateManager@@@@0PAVCStateManager@@A ; CSingleton<CStateManager>::ms_singleton
  0009a	e8 00 00 00 00	 call	 ?SetStreamSource@CStateManager@@QAEXIPAUIDirect3DVertexBuffer8@@I@Z ; CStateManager::SetStreamSource

; 167  : 	STATEMANAGER.DrawPrimitive(D3DPT_TRIANGLELIST, 0, uPriCount);

  0009f	ff 75 f0	 push	 DWORD PTR _uPriCount$[ebp]
  000a2	6a 00		 push	 0
  000a4	6a 04		 push	 4
  000a6	8b 0d 00 00 00
	00		 mov	 ecx, DWORD PTR ?ms_singleton@?$CSingleton@VCStateManager@@@@0PAVCStateManager@@A ; CSingleton<CStateManager>::ms_singleton
  000ac	e8 00 00 00 00	 call	 ?DrawPrimitive@CStateManager@@QAEJW4_D3DPRIMITIVETYPE@@II@Z ; CStateManager::DrawPrimitive

; 168  : 
; 169  : 	ms_faceCount += uPriCount;

  000b1	a1 00 00 00 00	 mov	 eax, DWORD PTR ?ms_faceCount@CGraphicBase@@1KA ; CGraphicBase::ms_faceCount
  000b6	03 45 f0	 add	 eax, DWORD PTR _uPriCount$[ebp]
  000b9	a3 00 00 00 00	 mov	 DWORD PTR ?ms_faceCount@CGraphicBase@@1KA, eax ; CGraphicBase::ms_faceCount
$LN1@DrawWater:

; 170  : }

  000be	c9		 leave
  000bf	c2 04 00	 ret	 4
?DrawWater@CMapOutdoor@@IAEXJ@Z ENDP			; CMapOutdoor::DrawWater
_TEXT	ENDS
; Function compile flags: /Odspy
; File D:\Metin2 Server Files\mainline\SRC_2014\Metin2Client\GameLib\MapOutdoorWater.cpp
; File C:\Program Files (x86)\Microsoft Visual Studio\2019\Community\VC\Tools\MSVC\14.28.29333\include\vector
; File D:\Metin2 Server Files\mainline\SRC_2014\Metin2Client\GameLib\MapOutdoorWater.cpp
; File D:\Metin2 Server Files\mainline\SRC_2014\Metin2Client\eterBase\Singleton.h
; File D:\Metin2 Server Files\mainline\SRC_2014\Metin2Client\GameLib\MapOutdoorWater.cpp
; File D:\Metin2 Server Files\mainline\SRC_2014\Metin2Client\eterBase\Singleton.h
; File D:\Metin2 Server Files\mainline\SRC_2014\Metin2Client\GameLib\MapOutdoorWater.cpp
; File D:\Metin2 Server Files\mainline\SRC_2014\Metin2Client\eterBase\Singleton.h
; File D:\Metin2 Server Files\mainline\SRC_2014\Metin2Client\GameLib\MapOutdoorWater.cpp
; File D:\Metin2 Server Files\mainline\SRC_2014\Metin2Client\eterBase\Singleton.h
; File D:\Metin2 Server Files\mainline\SRC_2014\Metin2Client\GameLib\MapOutdoorWater.cpp
; File D:\Metin2 Server Files\mainline\SRC_2014\Metin2Client\eterBase\Singleton.h
; File D:\Metin2 Server Files\mainline\SRC_2014\Metin2Client\GameLib\MapOutdoorWater.cpp
; File C:\Program Files (x86)\Microsoft Visual Studio\2019\Community\VC\Tools\MSVC\14.28.29333\include\vector
; File C:\Program Files (x86)\Microsoft Visual Studio\2019\Community\VC\Tools\MSVC\14.28.29333\include\xstddef
; File C:\Program Files (x86)\Microsoft Visual Studio\2019\Community\VC\Tools\MSVC\14.28.29333\include\vector
; File D:\Metin2 Server Files\mainline\SRC_2014\Metin2Client\GameLib\MapOutdoorWater.cpp
; File C:\Program Files (x86)\Microsoft Visual Studio\2019\Community\VC\Tools\MSVC\14.28.29333\include\vector
; File C:\Program Files (x86)\Microsoft Visual Studio\2019\Community\VC\Tools\MSVC\14.28.29333\include\xstddef
; File C:\Program Files (x86)\Microsoft Visual Studio\2019\Community\VC\Tools\MSVC\14.28.29333\include\vector
; File D:\Metin2 Server Files\mainline\SRC_2014\Metin2Client\GameLib\MapOutdoorWater.cpp
; File C:\Program Files (x86)\Microsoft Visual Studio\2019\Community\VC\Tools\MSVC\14.28.29333\include\vector
; File D:\Metin2 Server Files\mainline\SRC_2014\Metin2Client\GameLib\MapOutdoorWater.cpp
; File C:\Program Files (x86)\Microsoft Visual Studio\2019\Community\VC\Tools\MSVC\14.28.29333\include\vector
; File D:\Metin2 Server Files\mainline\SRC_2014\Metin2Client\GameLib\MapOutdoorWater.cpp
; File C:\Program Files (x86)\Microsoft Visual Studio\2019\Community\VC\Tools\MSVC\14.28.29333\include\vector
; File C:\Program Files (x86)\Microsoft Visual Studio\2019\Community\VC\Tools\MSVC\14.28.29333\include\xstddef
; File C:\Program Files (x86)\Microsoft Visual Studio\2019\Community\VC\Tools\MSVC\14.28.29333\include\vector
; File D:\Metin2 Server Files\mainline\SRC_2014\Metin2Client\GameLib\MapOutdoorWater.cpp
; File C:\Program Files (x86)\Microsoft Visual Studio\2019\Community\VC\Tools\MSVC\14.28.29333\include\vector
; File C:\Program Files (x86)\Microsoft Visual Studio\2019\Community\VC\Tools\MSVC\14.28.29333\include\xstddef
; File C:\Program Files (x86)\Microsoft Visual Studio\2019\Community\VC\Tools\MSVC\14.28.29333\include\vector
; File D:\Metin2 Server Files\mainline\SRC_2014\Metin2Client\GameLib\MapOutdoorWater.cpp
; File C:\Program Files (x86)\Microsoft Visual Studio\2019\Community\VC\Tools\MSVC\14.28.29333\include\vector
; File D:\Metin2 Server Files\mainline\SRC_2014\Metin2Client\GameLib\MapOutdoorWater.cpp
; File C:\Program Files (x86)\Microsoft Visual Studio\2019\Community\VC\Tools\MSVC\14.28.29333\include\vector
; File D:\Metin2 Server Files\mainline\SRC_2014\Metin2Client\GameLib\MapOutdoorWater.cpp
;	COMDAT ?RenderWater@CMapOutdoor@@QAEXXZ
_TEXT	SEGMENT
$T2 = -284						; size = 4
tv679 = -280						; size = 8
tv670 = -272						; size = 8
$T3 = -264						; size = 4
$T4 = -260						; size = 4
$T5 = -256						; size = 4
$T6 = -252						; size = 4
$T7 = -248						; size = 4
$T8 = -244						; size = 4
$T9 = -240						; size = 4
$T10 = -236						; size = 4
$T11 = -232						; size = 4
$T12 = -228						; size = 4
___param0$ = -224					; size = 4
$T13 = -220						; size = 4
$T14 = -216						; size = 4
___param0$ = -212					; size = 4
$T15 = -208						; size = 4
$T16 = -204						; size = 4
$T17 = -200						; size = 4
$T18 = -196						; size = 4
$T19 = -192						; size = 4
$T20 = -188						; size = 4
___param0$ = -184					; size = 4
$T21 = -180						; size = 4
$T22 = -176						; size = 4
___param0$ = -172					; size = 4
tv745 = -168						; size = 4
$T23 = -164						; size = 4
$T24 = -160						; size = 4
$T25 = -156						; size = 4
$T26 = -152						; size = 4
_fFogDistance$ = -148					; size = 4
tv589 = -144						; size = 4
tv603 = -140						; size = 4
__My_data$27 = -136					; size = 4
__My_data$28 = -132					; size = 4
tv491 = -128						; size = 4
tv505 = -124						; size = 4
__My_data$29 = -120					; size = 4
__My_data$30 = -116					; size = 4
tv675 = -112						; size = 4
tv667 = -108						; size = 4
tv437 = -104						; size = 4
__My_data$31 = -100					; size = 4
$T32 = -93						; size = 1
$T33 = -92						; size = 1
$T34 = -91						; size = 1
$T35 = -90						; size = 1
$T36 = -89						; size = 1
_i$ = -88						; size = 4
_this$ = -84						; size = 4
_matTexTransformWater$ = -80				; size = 64
__$ArrayPad$ = -16					; size = 4
__$EHRec$ = -12						; size = 12
?RenderWater@CMapOutdoor@@QAEXXZ PROC			; CMapOutdoor::RenderWater, COMDAT
; _this$ = ecx

; 26   : {

  00000	55		 push	 ebp
  00001	8b ec		 mov	 ebp, esp
  00003	6a ff		 push	 -1
  00005	68 00 00 00 00	 push	 __ehhandler$?RenderWater@CMapOutdoor@@QAEXXZ
  0000a	64 a1 00 00 00
	00		 mov	 eax, DWORD PTR fs:0
  00010	50		 push	 eax
  00011	81 ec 10 01 00
	00		 sub	 esp, 272		; 00000110H
  00017	a1 00 00 00 00	 mov	 eax, DWORD PTR ___security_cookie
  0001c	33 c5		 xor	 eax, ebp
  0001e	89 45 f0	 mov	 DWORD PTR __$ArrayPad$[ebp], eax
  00021	50		 push	 eax
  00022	8d 45 f4	 lea	 eax, DWORD PTR __$EHRec$[ebp]
  00025	64 a3 00 00 00
	00		 mov	 DWORD PTR fs:0, eax
  0002b	89 4d ac	 mov	 DWORD PTR _this$[ebp], ecx
; File C:\Program Files (x86)\Microsoft Visual Studio\2019\Community\VC\Tools\MSVC\14.28.29333\include\vector

; 1478 :         auto& _My_data = _Mypair._Myval2;

  0002e	8b 45 ac	 mov	 eax, DWORD PTR _this$[ebp]
  00031	05 18 01 00 00	 add	 eax, 280		; 00000118H
  00036	89 45 9c	 mov	 DWORD PTR __My_data$31[ebp], eax

; 1479 :         return _My_data._Myfirst == _My_data._Mylast;

  00039	8b 45 9c	 mov	 eax, DWORD PTR __My_data$31[ebp]
  0003c	8b 4d 9c	 mov	 ecx, DWORD PTR __My_data$31[ebp]
  0003f	8b 00		 mov	 eax, DWORD PTR [eax]
  00041	3b 41 04	 cmp	 eax, DWORD PTR [ecx+4]
  00044	75 09		 jne	 SHORT $LN20@RenderWate
  00046	c7 45 98 01 00
	00 00		 mov	 DWORD PTR tv437[ebp], 1
  0004d	eb 04		 jmp	 SHORT $LN21@RenderWate
$LN20@RenderWate:
  0004f	83 65 98 00	 and	 DWORD PTR tv437[ebp], 0
$LN21@RenderWate:
  00053	8a 45 98	 mov	 al, BYTE PTR tv437[ebp]
  00056	88 45 a3	 mov	 BYTE PTR $T32[ebp], al
; File D:\Metin2 Server Files\mainline\SRC_2014\Metin2Client\GameLib\MapOutdoorWater.cpp

; 27   : 	if (m_PatchVector.empty())

  00059	0f b6 45 a3	 movzx	 eax, BYTE PTR $T32[ebp]
  0005d	85 c0		 test	 eax, eax
  0005f	74 05		 je	 SHORT $LN9@RenderWate

; 28   : 		return;

  00061	e9 70 07 00 00	 jmp	 $LN1@RenderWate
$LN9@RenderWate:

; 29   : 
; 30   : 	if (!IsVisiblePart(PART_WATER))

  00066	6a 03		 push	 3
  00068	8b 4d ac	 mov	 ecx, DWORD PTR _this$[ebp]
  0006b	e8 00 00 00 00	 call	 ?IsVisiblePart@CMapOutdoor@@IAE_NH@Z ; CMapOutdoor::IsVisiblePart
  00070	0f b6 c0	 movzx	 eax, al
  00073	85 c0		 test	 eax, eax
  00075	75 05		 jne	 SHORT $LN10@RenderWate

; 31   : 		return;

  00077	e9 5a 07 00 00	 jmp	 $LN1@RenderWate
$LN10@RenderWate:

; 32   : 
; 33   : 	//////////////////////////////////////////////////////////////////////////
; 34   : 	// RenderState
; 35   : 	D3DXMATRIX matTexTransformWater;
; 36   : 	
; 37   : 	STATEMANAGER.SaveRenderState(D3DRS_ZWRITEENABLE, FALSE);

  0007c	6a 00		 push	 0
  0007e	6a 0e		 push	 14			; 0000000eH
  00080	8b 0d 00 00 00
	00		 mov	 ecx, DWORD PTR ?ms_singleton@?$CSingleton@VCStateManager@@@@0PAVCStateManager@@A ; CSingleton<CStateManager>::ms_singleton
  00086	e8 00 00 00 00	 call	 ?SaveRenderState@CStateManager@@QAEXW4_D3DRENDERSTATETYPE@@K@Z ; CStateManager::SaveRenderState

; 38   : 	STATEMANAGER.SaveRenderState(D3DRS_ALPHABLENDENABLE, TRUE);

  0008b	6a 01		 push	 1
  0008d	6a 1b		 push	 27			; 0000001bH
  0008f	8b 0d 00 00 00
	00		 mov	 ecx, DWORD PTR ?ms_singleton@?$CSingleton@VCStateManager@@@@0PAVCStateManager@@A ; CSingleton<CStateManager>::ms_singleton
  00095	e8 00 00 00 00	 call	 ?SaveRenderState@CStateManager@@QAEXW4_D3DRENDERSTATETYPE@@K@Z ; CStateManager::SaveRenderState

; 39   : 	STATEMANAGER.SaveRenderState(D3DRS_CULLMODE, D3DCULL_NONE);

  0009a	6a 01		 push	 1
  0009c	6a 16		 push	 22			; 00000016H
  0009e	8b 0d 00 00 00
	00		 mov	 ecx, DWORD PTR ?ms_singleton@?$CSingleton@VCStateManager@@@@0PAVCStateManager@@A ; CSingleton<CStateManager>::ms_singleton
  000a4	e8 00 00 00 00	 call	 ?SaveRenderState@CStateManager@@QAEXW4_D3DRENDERSTATETYPE@@K@Z ; CStateManager::SaveRenderState

; 40   : 	STATEMANAGER.SaveRenderState(D3DRS_DIFFUSEMATERIALSOURCE, D3DMCS_COLOR1);

  000a9	6a 01		 push	 1
  000ab	68 91 00 00 00	 push	 145			; 00000091H
  000b0	8b 0d 00 00 00
	00		 mov	 ecx, DWORD PTR ?ms_singleton@?$CSingleton@VCStateManager@@@@0PAVCStateManager@@A ; CSingleton<CStateManager>::ms_singleton
  000b6	e8 00 00 00 00	 call	 ?SaveRenderState@CStateManager@@QAEXW4_D3DRENDERSTATETYPE@@K@Z ; CStateManager::SaveRenderState

; 41   : 	STATEMANAGER.SaveRenderState(D3DRS_COLORVERTEX, TRUE);

  000bb	6a 01		 push	 1
  000bd	68 8d 00 00 00	 push	 141			; 0000008dH
  000c2	8b 0d 00 00 00
	00		 mov	 ecx, DWORD PTR ?ms_singleton@?$CSingleton@VCStateManager@@@@0PAVCStateManager@@A ; CSingleton<CStateManager>::ms_singleton
  000c8	e8 00 00 00 00	 call	 ?SaveRenderState@CStateManager@@QAEXW4_D3DRENDERSTATETYPE@@K@Z ; CStateManager::SaveRenderState
; File D:\Metin2 Server Files\mainline\SRC_2014\Metin2Client\eterBase\Singleton.h

; 27   : 		return (*ms_singleton);

  000cd	a1 00 00 00 00	 mov	 eax, DWORD PTR ?ms_singleton@?$CSingleton@VCStateManager@@@@0PAVCStateManager@@A ; CSingleton<CStateManager>::ms_singleton
  000d2	89 85 1c ff ff
	ff		 mov	 DWORD PTR $T12[ebp], eax
; File D:\Metin2 Server Files\mainline\SRC_2014\Metin2Client\GameLib\MapOutdoorWater.cpp

; 43   : 	STATEMANAGER.SetTexture(0, m_WaterInstances[((ELTimer_GetMSec() / 70) % 30)].GetTexturePointer()->GetD3DTexture());

  000d8	e8 00 00 00 00	 call	 ?ELTimer_GetMSec@@YAKXZ	; ELTimer_GetMSec
  000dd	33 d2		 xor	 edx, edx
  000df	6a 46		 push	 70			; 00000046H
  000e1	59		 pop	 ecx
  000e2	f7 f1		 div	 ecx
  000e4	33 d2		 xor	 edx, edx
  000e6	6a 1e		 push	 30			; 0000001eH
  000e8	59		 pop	 ecx
  000e9	f7 f1		 div	 ecx
  000eb	c1 e2 05	 shl	 edx, 5
  000ee	8b 45 ac	 mov	 eax, DWORD PTR _this$[ebp]
  000f1	8d 8c 10 28 0a
	00 00		 lea	 ecx, DWORD PTR [eax+edx+2600]
  000f8	e8 00 00 00 00	 call	 ?GetTexturePointer@CGraphicImageInstance@@QAEPAVCGraphicTexture@@XZ ; CGraphicImageInstance::GetTexturePointer
  000fd	8b c8		 mov	 ecx, eax
  000ff	e8 00 00 00 00	 call	 ?GetD3DTexture@CGraphicTexture@@QBEPAUIDirect3DTexture8@@XZ ; CGraphicTexture::GetD3DTexture
  00104	50		 push	 eax
  00105	6a 00		 push	 0
  00107	8b 8d 1c ff ff
	ff		 mov	 ecx, DWORD PTR $T12[ebp]
  0010d	e8 00 00 00 00	 call	 ?SetTexture@CStateManager@@QAEXKPAUIDirect3DBaseTexture8@@@Z ; CStateManager::SetTexture

; 44   : 
; 45   : 	D3DXMatrixScaling(&matTexTransformWater, m_fWaterTexCoordBase, -m_fWaterTexCoordBase, 0.0f);

  00112	51		 push	 ecx
  00113	0f 57 c0	 xorps	 xmm0, xmm0
  00116	f3 0f 11 04 24	 movss	 DWORD PTR [esp], xmm0
  0011b	8b 45 ac	 mov	 eax, DWORD PTR _this$[ebp]
  0011e	f3 0f 10 80 0c
	09 00 00	 movss	 xmm0, DWORD PTR [eax+2316]
  00126	0f 57 05 00 00
	00 00		 xorps	 xmm0, DWORD PTR __xmm@80000000800000008000000080000000
  0012d	51		 push	 ecx
  0012e	f3 0f 11 04 24	 movss	 DWORD PTR [esp], xmm0
  00133	8b 45 ac	 mov	 eax, DWORD PTR _this$[ebp]
  00136	51		 push	 ecx
  00137	f3 0f 10 80 0c
	09 00 00	 movss	 xmm0, DWORD PTR [eax+2316]
  0013f	f3 0f 11 04 24	 movss	 DWORD PTR [esp], xmm0
  00144	8d 45 b0	 lea	 eax, DWORD PTR _matTexTransformWater$[ebp]
  00147	50		 push	 eax
  00148	e8 00 00 00 00	 call	 _D3DXMatrixScaling@16

; 46   : 	D3DXMatrixMultiply(&matTexTransformWater, &m_matViewInverse, &matTexTransformWater);

  0014d	8d 45 b0	 lea	 eax, DWORD PTR _matTexTransformWater$[ebp]
  00150	50		 push	 eax
  00151	8b 45 ac	 mov	 eax, DWORD PTR _this$[ebp]
  00154	05 88 07 00 00	 add	 eax, 1928		; 00000788H
  00159	50		 push	 eax
  0015a	8d 45 b0	 lea	 eax, DWORD PTR _matTexTransformWater$[ebp]
  0015d	50		 push	 eax
  0015e	e8 00 00 00 00	 call	 _D3DXMatrixMultiply@12

; 47   : 	
; 48   : 	STATEMANAGER.SaveTransform(D3DTS_TEXTURE0, &matTexTransformWater);

  00163	8d 45 b0	 lea	 eax, DWORD PTR _matTexTransformWater$[ebp]
  00166	50		 push	 eax
  00167	6a 10		 push	 16			; 00000010H
  00169	8b 0d 00 00 00
	00		 mov	 ecx, DWORD PTR ?ms_singleton@?$CSingleton@VCStateManager@@@@0PAVCStateManager@@A ; CSingleton<CStateManager>::ms_singleton
  0016f	e8 00 00 00 00	 call	 ?SaveTransform@CStateManager@@QAEXW4_D3DTRANSFORMSTATETYPE@@PBU_D3DMATRIX@@@Z ; CStateManager::SaveTransform

; 49   : 	STATEMANAGER.SaveVertexShader(D3DFVF_XYZ|D3DFVF_DIFFUSE);

  00174	6a 42		 push	 66			; 00000042H
  00176	8b 0d 00 00 00
	00		 mov	 ecx, DWORD PTR ?ms_singleton@?$CSingleton@VCStateManager@@@@0PAVCStateManager@@A ; CSingleton<CStateManager>::ms_singleton
  0017c	e8 00 00 00 00	 call	 ?SaveVertexShader@CStateManager@@QAEXK@Z ; CStateManager::SaveVertexShader

; 50   : 
; 51   : 	STATEMANAGER.SaveTextureStageState(0, D3DTSS_TEXCOORDINDEX, D3DTSS_TCI_CAMERASPACEPOSITION);

  00181	68 00 00 02 00	 push	 131072			; 00020000H
  00186	6a 0b		 push	 11			; 0000000bH
  00188	6a 00		 push	 0
  0018a	8b 0d 00 00 00
	00		 mov	 ecx, DWORD PTR ?ms_singleton@?$CSingleton@VCStateManager@@@@0PAVCStateManager@@A ; CSingleton<CStateManager>::ms_singleton
  00190	e8 00 00 00 00	 call	 ?SaveTextureStageState@CStateManager@@QAEXKW4_D3DTEXTURESTAGESTATETYPE@@K@Z ; CStateManager::SaveTextureStageState

; 52   : 	STATEMANAGER.SaveTextureStageState(0, D3DTSS_TEXTURETRANSFORMFLAGS, D3DTTFF_COUNT2);

  00195	6a 02		 push	 2
  00197	6a 18		 push	 24			; 00000018H
  00199	6a 00		 push	 0
  0019b	8b 0d 00 00 00
	00		 mov	 ecx, DWORD PTR ?ms_singleton@?$CSingleton@VCStateManager@@@@0PAVCStateManager@@A ; CSingleton<CStateManager>::ms_singleton
  001a1	e8 00 00 00 00	 call	 ?SaveTextureStageState@CStateManager@@QAEXKW4_D3DTEXTURESTAGESTATETYPE@@K@Z ; CStateManager::SaveTextureStageState

; 53   : 	STATEMANAGER.SaveTextureStageState(0, D3DTSS_MINFILTER, D3DTEXF_LINEAR);

  001a6	6a 02		 push	 2
  001a8	6a 11		 push	 17			; 00000011H
  001aa	6a 00		 push	 0
  001ac	8b 0d 00 00 00
	00		 mov	 ecx, DWORD PTR ?ms_singleton@?$CSingleton@VCStateManager@@@@0PAVCStateManager@@A ; CSingleton<CStateManager>::ms_singleton
  001b2	e8 00 00 00 00	 call	 ?SaveTextureStageState@CStateManager@@QAEXKW4_D3DTEXTURESTAGESTATETYPE@@K@Z ; CStateManager::SaveTextureStageState

; 54   : 	STATEMANAGER.SaveTextureStageState(0, D3DTSS_MAGFILTER, D3DTEXF_LINEAR);

  001b7	6a 02		 push	 2
  001b9	6a 10		 push	 16			; 00000010H
  001bb	6a 00		 push	 0
  001bd	8b 0d 00 00 00
	00		 mov	 ecx, DWORD PTR ?ms_singleton@?$CSingleton@VCStateManager@@@@0PAVCStateManager@@A ; CSingleton<CStateManager>::ms_singleton
  001c3	e8 00 00 00 00	 call	 ?SaveTextureStageState@CStateManager@@QAEXKW4_D3DTEXTURESTAGESTATETYPE@@K@Z ; CStateManager::SaveTextureStageState

; 55   : 	STATEMANAGER.SaveTextureStageState(0, D3DTSS_MIPFILTER, D3DTEXF_LINEAR);

  001c8	6a 02		 push	 2
  001ca	6a 12		 push	 18			; 00000012H
  001cc	6a 00		 push	 0
  001ce	8b 0d 00 00 00
	00		 mov	 ecx, DWORD PTR ?ms_singleton@?$CSingleton@VCStateManager@@@@0PAVCStateManager@@A ; CSingleton<CStateManager>::ms_singleton
  001d4	e8 00 00 00 00	 call	 ?SaveTextureStageState@CStateManager@@QAEXKW4_D3DTEXTURESTAGESTATETYPE@@K@Z ; CStateManager::SaveTextureStageState

; 56   : 	STATEMANAGER.SaveTextureStageState(0, D3DTSS_ADDRESSU, D3DTADDRESS_WRAP);

  001d9	6a 01		 push	 1
  001db	6a 0d		 push	 13			; 0000000dH
  001dd	6a 00		 push	 0
  001df	8b 0d 00 00 00
	00		 mov	 ecx, DWORD PTR ?ms_singleton@?$CSingleton@VCStateManager@@@@0PAVCStateManager@@A ; CSingleton<CStateManager>::ms_singleton
  001e5	e8 00 00 00 00	 call	 ?SaveTextureStageState@CStateManager@@QAEXKW4_D3DTEXTURESTAGESTATETYPE@@K@Z ; CStateManager::SaveTextureStageState

; 57   : 	STATEMANAGER.SaveTextureStageState(0, D3DTSS_ADDRESSV, D3DTADDRESS_WRAP);

  001ea	6a 01		 push	 1
  001ec	6a 0e		 push	 14			; 0000000eH
  001ee	6a 00		 push	 0
  001f0	8b 0d 00 00 00
	00		 mov	 ecx, DWORD PTR ?ms_singleton@?$CSingleton@VCStateManager@@@@0PAVCStateManager@@A ; CSingleton<CStateManager>::ms_singleton
  001f6	e8 00 00 00 00	 call	 ?SaveTextureStageState@CStateManager@@QAEXKW4_D3DTEXTURESTAGESTATETYPE@@K@Z ; CStateManager::SaveTextureStageState

; 58   : 	
; 59   : 	STATEMANAGER.SetTextureStageState(0, D3DTSS_COLORARG1, D3DTA_TEXTURE);

  001fb	6a 02		 push	 2
  001fd	6a 02		 push	 2
  001ff	6a 00		 push	 0
  00201	8b 0d 00 00 00
	00		 mov	 ecx, DWORD PTR ?ms_singleton@?$CSingleton@VCStateManager@@@@0PAVCStateManager@@A ; CSingleton<CStateManager>::ms_singleton
  00207	e8 00 00 00 00	 call	 ?SetTextureStageState@CStateManager@@QAEXKW4_D3DTEXTURESTAGESTATETYPE@@K@Z ; CStateManager::SetTextureStageState

; 60   : 	STATEMANAGER.SetTextureStageState(0, D3DTSS_COLOROP, D3DTOP_SELECTARG1);

  0020c	6a 02		 push	 2
  0020e	6a 01		 push	 1
  00210	6a 00		 push	 0
  00212	8b 0d 00 00 00
	00		 mov	 ecx, DWORD PTR ?ms_singleton@?$CSingleton@VCStateManager@@@@0PAVCStateManager@@A ; CSingleton<CStateManager>::ms_singleton
  00218	e8 00 00 00 00	 call	 ?SetTextureStageState@CStateManager@@QAEXKW4_D3DTEXTURESTAGESTATETYPE@@K@Z ; CStateManager::SetTextureStageState

; 61   : 	STATEMANAGER.SetTextureStageState(0, D3DTSS_ALPHAARG1, D3DTA_DIFFUSE);

  0021d	6a 00		 push	 0
  0021f	6a 05		 push	 5
  00221	6a 00		 push	 0
  00223	8b 0d 00 00 00
	00		 mov	 ecx, DWORD PTR ?ms_singleton@?$CSingleton@VCStateManager@@@@0PAVCStateManager@@A ; CSingleton<CStateManager>::ms_singleton
  00229	e8 00 00 00 00	 call	 ?SetTextureStageState@CStateManager@@QAEXKW4_D3DTEXTURESTAGESTATETYPE@@K@Z ; CStateManager::SetTextureStageState

; 62   : 	STATEMANAGER.SetTextureStageState(0, D3DTSS_ALPHAOP, D3DTOP_SELECTARG1);

  0022e	6a 02		 push	 2
  00230	6a 04		 push	 4
  00232	6a 00		 push	 0
  00234	8b 0d 00 00 00
	00		 mov	 ecx, DWORD PTR ?ms_singleton@?$CSingleton@VCStateManager@@@@0PAVCStateManager@@A ; CSingleton<CStateManager>::ms_singleton
  0023a	e8 00 00 00 00	 call	 ?SetTextureStageState@CStateManager@@QAEXKW4_D3DTEXTURESTAGESTATETYPE@@K@Z ; CStateManager::SetTextureStageState

; 63   : 	
; 64   : 
; 65   : 	STATEMANAGER.SetTexture(1,NULL);

  0023f	6a 00		 push	 0
  00241	6a 01		 push	 1
  00243	8b 0d 00 00 00
	00		 mov	 ecx, DWORD PTR ?ms_singleton@?$CSingleton@VCStateManager@@@@0PAVCStateManager@@A ; CSingleton<CStateManager>::ms_singleton
  00249	e8 00 00 00 00	 call	 ?SetTexture@CStateManager@@QAEXKPAUIDirect3DBaseTexture8@@@Z ; CStateManager::SetTexture

; 66   : 	STATEMANAGER.SetTextureStageState(1, D3DTSS_COLOROP, D3DTOP_DISABLE);

  0024e	6a 01		 push	 1
  00250	6a 01		 push	 1
  00252	6a 01		 push	 1
  00254	8b 0d 00 00 00
	00		 mov	 ecx, DWORD PTR ?ms_singleton@?$CSingleton@VCStateManager@@@@0PAVCStateManager@@A ; CSingleton<CStateManager>::ms_singleton
  0025a	e8 00 00 00 00	 call	 ?SetTextureStageState@CStateManager@@QAEXKW4_D3DTEXTURESTAGESTATETYPE@@K@Z ; CStateManager::SetTextureStageState

; 67   : 	STATEMANAGER.SetTextureStageState(1, D3DTSS_ALPHAOP, D3DTOP_DISABLE);

  0025f	6a 01		 push	 1
  00261	6a 04		 push	 4
  00263	6a 01		 push	 1
  00265	8b 0d 00 00 00
	00		 mov	 ecx, DWORD PTR ?ms_singleton@?$CSingleton@VCStateManager@@@@0PAVCStateManager@@A ; CSingleton<CStateManager>::ms_singleton
  0026b	e8 00 00 00 00	 call	 ?SetTextureStageState@CStateManager@@QAEXKW4_D3DTEXTURESTAGESTATETYPE@@K@Z ; CStateManager::SetTextureStageState

; 76   : 	static DWORD s_dwLastHeightChangeTime = CTimer::Instance().GetCurrentMillisecond();

  00270	a1 00 00 00 00	 mov	 eax, DWORD PTR __tls_index
  00275	64 8b 0d 00 00
	00 00		 mov	 ecx, DWORD PTR fs:__tls_array
  0027c	8b 04 81	 mov	 eax, DWORD PTR [ecx+eax*4]
  0027f	8b 0d 00 00 00
	00		 mov	 ecx, DWORD PTR ?$TSS0@?1??RenderWater@CMapOutdoor@@QAEXXZ@4HA
  00285	3b 88 00 00 00
	00		 cmp	 ecx, DWORD PTR __Init_thread_epoch[eax]
  0028b	7e 42		 jle	 SHORT $LN2@RenderWate
  0028d	68 00 00 00 00	 push	 OFFSET ?$TSS0@?1??RenderWater@CMapOutdoor@@QAEXXZ@4HA
  00292	e8 00 00 00 00	 call	 __Init_thread_header
  00297	59		 pop	 ecx
  00298	83 3d 00 00 00
	00 ff		 cmp	 DWORD PTR ?$TSS0@?1??RenderWater@CMapOutdoor@@QAEXXZ@4HA, -1
  0029f	75 2e		 jne	 SHORT $LN2@RenderWate
  002a1	83 65 fc 00	 and	 DWORD PTR __$EHRec$[ebp+8], 0
; File D:\Metin2 Server Files\mainline\SRC_2014\Metin2Client\eterBase\Singleton.h

; 27   : 		return (*ms_singleton);

  002a5	a1 00 00 00 00	 mov	 eax, DWORD PTR ?ms_singleton@?$CSingleton@VCTimer@@@@0PAVCTimer@@A ; CSingleton<CTimer>::ms_singleton
  002aa	89 85 68 ff ff
	ff		 mov	 DWORD PTR $T26[ebp], eax
; File D:\Metin2 Server Files\mainline\SRC_2014\Metin2Client\GameLib\MapOutdoorWater.cpp

; 76   : 	static DWORD s_dwLastHeightChangeTime = CTimer::Instance().GetCurrentMillisecond();

  002b0	8b 8d 68 ff ff
	ff		 mov	 ecx, DWORD PTR $T26[ebp]
  002b6	e8 00 00 00 00	 call	 ?GetCurrentMillisecond@CTimer@@QAEKXZ ; CTimer::GetCurrentMillisecond
  002bb	a3 00 00 00 00	 mov	 DWORD PTR ?s_dwLastHeightChangeTime@?1??RenderWater@CMapOutdoor@@QAEXXZ@4KA, eax
  002c0	83 4d fc ff	 or	 DWORD PTR __$EHRec$[ebp+8], -1
  002c4	68 00 00 00 00	 push	 OFFSET ?$TSS0@?1??RenderWater@CMapOutdoor@@QAEXXZ@4HA
  002c9	e8 00 00 00 00	 call	 __Init_thread_footer
  002ce	59		 pop	 ecx
$LN2@RenderWate:
; File D:\Metin2 Server Files\mainline\SRC_2014\Metin2Client\eterBase\Singleton.h

; 27   : 		return (*ms_singleton);

  002cf	a1 00 00 00 00	 mov	 eax, DWORD PTR ?ms_singleton@?$CSingleton@VCTimer@@@@0PAVCTimer@@A ; CSingleton<CTimer>::ms_singleton
  002d4	89 85 64 ff ff
	ff		 mov	 DWORD PTR $T25[ebp], eax
; File D:\Metin2 Server Files\mainline\SRC_2014\Metin2Client\GameLib\MapOutdoorWater.cpp

; 80   : 	if ((CTimer::Instance().GetCurrentMillisecond() - s_dwLastHeightChangeTime) > s_dwBlendtime)

  002da	8b 8d 64 ff ff
	ff		 mov	 ecx, DWORD PTR $T25[ebp]
  002e0	e8 00 00 00 00	 call	 ?GetCurrentMillisecond@CTimer@@QAEKXZ ; CTimer::GetCurrentMillisecond
  002e5	2b 05 00 00 00
	00		 sub	 eax, DWORD PTR ?s_dwLastHeightChangeTime@?1??RenderWater@CMapOutdoor@@QAEXXZ@4KA
  002eb	3b 05 00 00 00
	00		 cmp	 eax, DWORD PTR ?s_dwBlendtime@?1??RenderWater@CMapOutdoor@@QAEXXZ@4KA
  002f1	76 7c		 jbe	 SHORT $LN11@RenderWate

; 81   : 	{
; 82   : 		s_dwBlendtime = random_range(1000, 3000);

  002f3	68 b8 0b 00 00	 push	 3000			; 00000bb8H
  002f8	68 e8 03 00 00	 push	 1000			; 000003e8H
  002fd	e8 00 00 00 00	 call	 ?random_range@@YAJJJ@Z	; random_range
  00302	59		 pop	 ecx
  00303	59		 pop	 ecx
  00304	a3 00 00 00 00	 mov	 DWORD PTR ?s_dwBlendtime@?1??RenderWater@CMapOutdoor@@QAEXXZ@4KA, eax

; 83   : 
; 84   : 		if (s_fWaterHeightEnd == 0)

  00309	f3 0f 10 05 00
	00 00 00	 movss	 xmm0, DWORD PTR ?s_fWaterHeightEnd@?1??RenderWater@CMapOutdoor@@QAEXXZ@4MA
  00311	0f 2e 05 00 00
	00 00		 ucomiss xmm0, DWORD PTR __real@00000000
  00318	9f		 lahf
  00319	f6 c4 44	 test	 ah, 68			; 00000044H
  0031c	7a 1b		 jp	 SHORT $LN12@RenderWate

; 85   : 			s_fWaterHeightEnd = -random_range(0, 15);

  0031e	6a 0f		 push	 15			; 0000000fH
  00320	6a 00		 push	 0
  00322	e8 00 00 00 00	 call	 ?random_range@@YAJJJ@Z	; random_range
  00327	59		 pop	 ecx
  00328	59		 pop	 ecx
  00329	f7 d8		 neg	 eax
  0032b	f3 0f 2a c0	 cvtsi2ss xmm0, eax
  0032f	f3 0f 11 05 00
	00 00 00	 movss	 DWORD PTR ?s_fWaterHeightEnd@?1??RenderWater@CMapOutdoor@@QAEXXZ@4MA, xmm0
  00337	eb 0b		 jmp	 SHORT $LN13@RenderWate
$LN12@RenderWate:

; 86   : 		else
; 87   : 			s_fWaterHeightEnd = 0;

  00339	0f 57 c0	 xorps	 xmm0, xmm0
  0033c	f3 0f 11 05 00
	00 00 00	 movss	 DWORD PTR ?s_fWaterHeightEnd@?1??RenderWater@CMapOutdoor@@QAEXXZ@4MA, xmm0
$LN13@RenderWate:

; 88   : 
; 89   : 		s_fWaterHeightBegin = s_fWaterHeightCurrent;

  00344	f3 0f 10 05 00
	00 00 00	 movss	 xmm0, DWORD PTR ?s_fWaterHeightCurrent@?1??RenderWater@CMapOutdoor@@QAEXXZ@4MA
  0034c	f3 0f 11 05 00
	00 00 00	 movss	 DWORD PTR ?s_fWaterHeightBegin@?1??RenderWater@CMapOutdoor@@QAEXXZ@4MA, xmm0
; File D:\Metin2 Server Files\mainline\SRC_2014\Metin2Client\eterBase\Singleton.h

; 27   : 		return (*ms_singleton);

  00354	a1 00 00 00 00	 mov	 eax, DWORD PTR ?ms_singleton@?$CSingleton@VCTimer@@@@0PAVCTimer@@A ; CSingleton<CTimer>::ms_singleton
  00359	89 85 60 ff ff
	ff		 mov	 DWORD PTR $T24[ebp], eax
; File D:\Metin2 Server Files\mainline\SRC_2014\Metin2Client\GameLib\MapOutdoorWater.cpp

; 90   : 		s_dwLastHeightChangeTime = CTimer::Instance().GetCurrentMillisecond();

  0035f	8b 8d 60 ff ff
	ff		 mov	 ecx, DWORD PTR $T24[ebp]
  00365	e8 00 00 00 00	 call	 ?GetCurrentMillisecond@CTimer@@QAEKXZ ; CTimer::GetCurrentMillisecond
  0036a	a3 00 00 00 00	 mov	 DWORD PTR ?s_dwLastHeightChangeTime@?1??RenderWater@CMapOutdoor@@QAEXXZ@4KA, eax
$LN11@RenderWate:
; File D:\Metin2 Server Files\mainline\SRC_2014\Metin2Client\eterBase\Singleton.h

; 27   : 		return (*ms_singleton);

  0036f	a1 00 00 00 00	 mov	 eax, DWORD PTR ?ms_singleton@?$CSingleton@VCTimer@@@@0PAVCTimer@@A ; CSingleton<CTimer>::ms_singleton
  00374	89 85 5c ff ff
	ff		 mov	 DWORD PTR $T23[ebp], eax
; File D:\Metin2 Server Files\mainline\SRC_2014\Metin2Client\GameLib\MapOutdoorWater.cpp

; 93   : 	s_fWaterHeightCurrent = s_fWaterHeightBegin + (s_fWaterHeightEnd - s_fWaterHeightBegin) * (float) ((CTimer::Instance().GetCurrentMillisecond() - s_dwLastHeightChangeTime) / (float) s_dwBlendtime);

  0037a	f3 0f 10 05 00
	00 00 00	 movss	 xmm0, DWORD PTR ?s_fWaterHeightEnd@?1??RenderWater@CMapOutdoor@@QAEXXZ@4MA
  00382	f3 0f 5c 05 00
	00 00 00	 subss	 xmm0, DWORD PTR ?s_fWaterHeightBegin@?1??RenderWater@CMapOutdoor@@QAEXXZ@4MA
  0038a	8b 8d 5c ff ff
	ff		 mov	 ecx, DWORD PTR $T23[ebp]
  00390	f3 0f 11 85 58
	ff ff ff	 movss	 DWORD PTR tv745[ebp], xmm0
  00398	e8 00 00 00 00	 call	 ?GetCurrentMillisecond@CTimer@@QAEKXZ ; CTimer::GetCurrentMillisecond
  0039d	2b 05 00 00 00
	00		 sub	 eax, DWORD PTR ?s_dwLastHeightChangeTime@?1??RenderWater@CMapOutdoor@@QAEXXZ@4KA
  003a3	89 45 94	 mov	 DWORD PTR tv667[ebp], eax
  003a6	f2 0f 2a 45 94	 cvtsi2sd xmm0, DWORD PTR tv667[ebp]
  003ab	8b 45 94	 mov	 eax, DWORD PTR tv667[ebp]
  003ae	c1 e8 1f	 shr	 eax, 31			; 0000001fH
  003b1	f2 0f 58 04 c5
	00 00 00 00	 addsd	 xmm0, QWORD PTR __xmm@41f00000000000000000000000000000[eax*8]
  003ba	f2 0f 11 85 f0
	fe ff ff	 movsd	 QWORD PTR tv670[ebp], xmm0
  003c2	f2 0f 5a 85 f0
	fe ff ff	 cvtsd2ss xmm0, QWORD PTR tv670[ebp]
  003ca	a1 00 00 00 00	 mov	 eax, DWORD PTR ?s_dwBlendtime@?1??RenderWater@CMapOutdoor@@QAEXXZ@4KA
  003cf	89 45 90	 mov	 DWORD PTR tv675[ebp], eax
  003d2	f2 0f 2a 4d 90	 cvtsi2sd xmm1, DWORD PTR tv675[ebp]
  003d7	8b 45 90	 mov	 eax, DWORD PTR tv675[ebp]
  003da	c1 e8 1f	 shr	 eax, 31			; 0000001fH
  003dd	f2 0f 58 0c c5
	00 00 00 00	 addsd	 xmm1, QWORD PTR __xmm@41f00000000000000000000000000000[eax*8]
  003e6	f2 0f 11 8d e8
	fe ff ff	 movsd	 QWORD PTR tv679[ebp], xmm1
  003ee	f2 0f 5a 8d e8
	fe ff ff	 cvtsd2ss xmm1, QWORD PTR tv679[ebp]
  003f6	f3 0f 5e c1	 divss	 xmm0, xmm1
  003fa	f3 0f 10 8d 58
	ff ff ff	 movss	 xmm1, DWORD PTR tv745[ebp]
  00402	f3 0f 59 c8	 mulss	 xmm1, xmm0
  00406	f3 0f 58 0d 00
	00 00 00	 addss	 xmm1, DWORD PTR ?s_fWaterHeightBegin@?1??RenderWater@CMapOutdoor@@QAEXXZ@4MA
  0040e	f3 0f 11 0d 00
	00 00 00	 movss	 DWORD PTR ?s_fWaterHeightCurrent@?1??RenderWater@CMapOutdoor@@QAEXXZ@4MA, xmm1

; 94   : 	m_matWorldForCommonUse._43 = s_fWaterHeightCurrent;

  00416	8b 45 ac	 mov	 eax, DWORD PTR _this$[ebp]
  00419	f3 0f 10 05 00
	00 00 00	 movss	 xmm0, DWORD PTR ?s_fWaterHeightCurrent@?1??RenderWater@CMapOutdoor@@QAEXXZ@4MA
  00421	f3 0f 11 80 80
	07 00 00	 movss	 DWORD PTR [eax+1920], xmm0

; 95   : 
; 96   : 	m_matWorldForCommonUse._41 = 0.0f;

  00429	8b 45 ac	 mov	 eax, DWORD PTR _this$[ebp]
  0042c	0f 57 c0	 xorps	 xmm0, xmm0
  0042f	f3 0f 11 80 78
	07 00 00	 movss	 DWORD PTR [eax+1912], xmm0

; 97   : 	m_matWorldForCommonUse._42 = 0.0f;

  00437	8b 45 ac	 mov	 eax, DWORD PTR _this$[ebp]
  0043a	0f 57 c0	 xorps	 xmm0, xmm0
  0043d	f3 0f 11 80 7c
	07 00 00	 movss	 DWORD PTR [eax+1916], xmm0

; 98   : 	STATEMANAGER.SetTransform(D3DTS_WORLD, &m_matWorldForCommonUse);

  00445	8b 45 ac	 mov	 eax, DWORD PTR _this$[ebp]
  00448	05 48 07 00 00	 add	 eax, 1864		; 00000748H
  0044d	50		 push	 eax
  0044e	68 00 01 00 00	 push	 256			; 00000100H
  00453	8b 0d 00 00 00
	00		 mov	 ecx, DWORD PTR ?ms_singleton@?$CSingleton@VCStateManager@@@@0PAVCStateManager@@A ; CSingleton<CStateManager>::ms_singleton
  00459	e8 00 00 00 00	 call	 ?SetTransform@CStateManager@@QAEXW4_D3DTRANSFORMSTATETYPE@@PBU_D3DMATRIX@@@Z ; CStateManager::SetTransform

; 99   : 	
; 100  : 	float fFogDistance = __GetFogDistance();

  0045e	8b 4d ac	 mov	 ecx, DWORD PTR _this$[ebp]
  00461	e8 00 00 00 00	 call	 ?__GetFogDistance@CMapOutdoor@@IAEMXZ ; CMapOutdoor::__GetFogDistance
  00466	d9 9d 6c ff ff
	ff		 fstp	 DWORD PTR _fFogDistance$[ebp]
; File C:\Program Files (x86)\Microsoft Visual Studio\2019\Community\VC\Tools\MSVC\14.28.29333\include\vector

; 40   :     _Vector_const_iterator() noexcept : _Ptr() {}

  0046c	83 65 a8 00	 and	 DWORD PTR _i$[ebp], 0

; 1410 :         auto& _My_data = _Mypair._Myval2;

  00470	8b 45 ac	 mov	 eax, DWORD PTR _this$[ebp]
  00473	05 18 01 00 00	 add	 eax, 280		; 00000118H
  00478	89 45 8c	 mov	 DWORD PTR __My_data$30[ebp], eax
; File C:\Program Files (x86)\Microsoft Visual Studio\2019\Community\VC\Tools\MSVC\14.28.29333\include\xstddef

; 275  :     return __builtin_addressof(_Val);

  0047b	8b 45 8c	 mov	 eax, DWORD PTR __My_data$30[ebp]
  0047e	89 85 e4 fe ff
	ff		 mov	 DWORD PTR $T2[ebp], eax
; File C:\Program Files (x86)\Microsoft Visual Studio\2019\Community\VC\Tools\MSVC\14.28.29333\include\vector

; 1411 :         return iterator(_My_data._Myfirst, _STD addressof(_My_data));

  00484	8b 45 8c	 mov	 eax, DWORD PTR __My_data$30[ebp]
  00487	8b 00		 mov	 eax, DWORD PTR [eax]
  00489	89 85 54 ff ff
	ff		 mov	 DWORD PTR ___param0$[ebp], eax

; 42   :     _Vector_const_iterator(_Tptr _Parg, const _Container_base* _Pvector) noexcept : _Ptr(_Parg) {

  0048f	8b 85 54 ff ff
	ff		 mov	 eax, DWORD PTR ___param0$[ebp]
  00495	89 85 50 ff ff
	ff		 mov	 DWORD PTR $T22[ebp], eax

; 1411 :         return iterator(_My_data._Myfirst, _STD addressof(_My_data));

  0049b	8d 85 50 ff ff
	ff		 lea	 eax, DWORD PTR $T22[ebp]
  004a1	89 85 4c ff ff
	ff		 mov	 DWORD PTR $T21[ebp], eax
; File D:\Metin2 Server Files\mainline\SRC_2014\Metin2Client\GameLib\MapOutdoorWater.cpp

; 104  : 	for(i = m_PatchVector.begin();i != m_PatchVector.end(); ++i)

  004a7	8b 85 4c ff ff
	ff		 mov	 eax, DWORD PTR $T21[ebp]
  004ad	8b 00		 mov	 eax, DWORD PTR [eax]
  004af	89 45 a8	 mov	 DWORD PTR _i$[ebp], eax
  004b2	eb 09		 jmp	 SHORT $LN100@RenderWate
$LN3@RenderWate:
; File C:\Program Files (x86)\Microsoft Visual Studio\2019\Community\VC\Tools\MSVC\14.28.29333\include\vector

; 75   :         ++_Ptr;

  004b4	8b 45 a8	 mov	 eax, DWORD PTR _i$[ebp]
  004b7	83 c0 08	 add	 eax, 8
  004ba	89 45 a8	 mov	 DWORD PTR _i$[ebp], eax
$LN100@RenderWate:

; 1420 :         auto& _My_data = _Mypair._Myval2;

  004bd	8b 45 ac	 mov	 eax, DWORD PTR _this$[ebp]
  004c0	05 18 01 00 00	 add	 eax, 280		; 00000118H
  004c5	89 45 88	 mov	 DWORD PTR __My_data$29[ebp], eax
; File C:\Program Files (x86)\Microsoft Visual Studio\2019\Community\VC\Tools\MSVC\14.28.29333\include\xstddef

; 275  :     return __builtin_addressof(_Val);

  004c8	8b 45 88	 mov	 eax, DWORD PTR __My_data$29[ebp]
  004cb	89 85 00 ff ff
	ff		 mov	 DWORD PTR $T5[ebp], eax
; File C:\Program Files (x86)\Microsoft Visual Studio\2019\Community\VC\Tools\MSVC\14.28.29333\include\vector

; 1421 :         return iterator(_My_data._Mylast, _STD addressof(_My_data));

  004d1	8b 45 88	 mov	 eax, DWORD PTR __My_data$29[ebp]
  004d4	8b 40 04	 mov	 eax, DWORD PTR [eax+4]
  004d7	89 85 48 ff ff
	ff		 mov	 DWORD PTR ___param0$[ebp], eax

; 42   :     _Vector_const_iterator(_Tptr _Parg, const _Container_base* _Pvector) noexcept : _Ptr(_Parg) {

  004dd	8b 85 48 ff ff
	ff		 mov	 eax, DWORD PTR ___param0$[ebp]
  004e3	89 85 44 ff ff
	ff		 mov	 DWORD PTR $T20[ebp], eax

; 1421 :         return iterator(_My_data._Mylast, _STD addressof(_My_data));

  004e9	8d 85 44 ff ff
	ff		 lea	 eax, DWORD PTR $T20[ebp]
  004ef	89 85 40 ff ff
	ff		 mov	 DWORD PTR $T19[ebp], eax

; 149  :         return _Ptr == _Right._Ptr;

  004f5	8b 85 40 ff ff
	ff		 mov	 eax, DWORD PTR $T19[ebp]
  004fb	8b 4d a8	 mov	 ecx, DWORD PTR _i$[ebp]
  004fe	3b 08		 cmp	 ecx, DWORD PTR [eax]
  00500	75 09		 jne	 SHORT $LN128@RenderWate
  00502	c7 45 84 01 00
	00 00		 mov	 DWORD PTR tv505[ebp], 1
  00509	eb 04		 jmp	 SHORT $LN129@RenderWate
$LN128@RenderWate:
  0050b	83 65 84 00	 and	 DWORD PTR tv505[ebp], 0
$LN129@RenderWate:
  0050f	8a 45 84	 mov	 al, BYTE PTR tv505[ebp]
  00512	88 45 a7	 mov	 BYTE PTR $T36[ebp], al

; 153  :         return !(*this == _Right);

  00515	0f b6 45 a7	 movzx	 eax, BYTE PTR $T36[ebp]
  00519	85 c0		 test	 eax, eax
  0051b	75 09		 jne	 SHORT $LN123@RenderWate
  0051d	c7 45 80 01 00
	00 00		 mov	 DWORD PTR tv491[ebp], 1
  00524	eb 04		 jmp	 SHORT $LN124@RenderWate
$LN123@RenderWate:
  00526	83 65 80 00	 and	 DWORD PTR tv491[ebp], 0
$LN124@RenderWate:
  0052a	8a 45 80	 mov	 al, BYTE PTR tv491[ebp]
  0052d	88 45 a6	 mov	 BYTE PTR $T35[ebp], al
; File D:\Metin2 Server Files\mainline\SRC_2014\Metin2Client\GameLib\MapOutdoorWater.cpp

; 104  : 	for(i = m_PatchVector.begin();i != m_PatchVector.end(); ++i)

  00530	0f b6 45 a6	 movzx	 eax, BYTE PTR $T35[ebp]
  00534	85 c0		 test	 eax, eax
  00536	74 5f		 je	 SHORT $LN4@RenderWate
; File C:\Program Files (x86)\Microsoft Visual Studio\2019\Community\VC\Tools\MSVC\14.28.29333\include\vector

; 65   :         return _Ptr;

  00538	8b 45 a8	 mov	 eax, DWORD PTR _i$[ebp]
  0053b	89 85 3c ff ff
	ff		 mov	 DWORD PTR $T18[ebp], eax

; 256  :         return _Const_cast(_Mybase::operator->());

  00541	ff b5 3c ff ff
	ff		 push	 DWORD PTR $T18[ebp]
  00547	e8 00 00 00 00	 call	 ??$_Const_cast@$$CBU?$pair@MJ@std@@@std@@YAPAU?$pair@MJ@0@PBU10@@Z ; std::_Const_cast<std::pair<float,long> const >
  0054c	59		 pop	 ecx
  0054d	89 85 38 ff ff
	ff		 mov	 DWORD PTR $T17[ebp], eax
; File D:\Metin2 Server Files\mainline\SRC_2014\Metin2Client\GameLib\MapOutdoorWater.cpp

; 106  : 		if (i->first<fFogDistance)	

  00553	8b 85 38 ff ff
	ff		 mov	 eax, DWORD PTR $T17[ebp]
  00559	f3 0f 10 85 6c
	ff ff ff	 movss	 xmm0, DWORD PTR _fFogDistance$[ebp]
  00561	0f 2f 00	 comiss	 xmm0, DWORD PTR [eax]
  00564	76 2c		 jbe	 SHORT $LN14@RenderWate
; File C:\Program Files (x86)\Microsoft Visual Studio\2019\Community\VC\Tools\MSVC\14.28.29333\include\vector

; 65   :         return _Ptr;

  00566	8b 45 a8	 mov	 eax, DWORD PTR _i$[ebp]
  00569	89 85 34 ff ff
	ff		 mov	 DWORD PTR $T16[ebp], eax

; 256  :         return _Const_cast(_Mybase::operator->());

  0056f	ff b5 34 ff ff
	ff		 push	 DWORD PTR $T16[ebp]
  00575	e8 00 00 00 00	 call	 ??$_Const_cast@$$CBU?$pair@MJ@std@@@std@@YAPAU?$pair@MJ@0@PBU10@@Z ; std::_Const_cast<std::pair<float,long> const >
  0057a	59		 pop	 ecx
  0057b	89 85 30 ff ff
	ff		 mov	 DWORD PTR $T15[ebp], eax
; File D:\Metin2 Server Files\mainline\SRC_2014\Metin2Client\GameLib\MapOutdoorWater.cpp

; 107  : 			DrawWater(i->second);

  00581	8b 85 30 ff ff
	ff		 mov	 eax, DWORD PTR $T15[ebp]
  00587	ff 70 04	 push	 DWORD PTR [eax+4]
  0058a	8b 4d ac	 mov	 ecx, DWORD PTR _this$[ebp]
  0058d	e8 00 00 00 00	 call	 ?DrawWater@CMapOutdoor@@IAEXJ@Z ; CMapOutdoor::DrawWater
$LN14@RenderWate:

; 108  : 	}

  00592	e9 1d ff ff ff	 jmp	 $LN3@RenderWate
$LN4@RenderWate:

; 109  : 
; 110  : 	STATEMANAGER.SetTexture(0, NULL);

  00597	6a 00		 push	 0
  00599	6a 00		 push	 0
  0059b	8b 0d 00 00 00
	00		 mov	 ecx, DWORD PTR ?ms_singleton@?$CSingleton@VCStateManager@@@@0PAVCStateManager@@A ; CSingleton<CStateManager>::ms_singleton
  005a1	e8 00 00 00 00	 call	 ?SetTexture@CStateManager@@QAEXKPAUIDirect3DBaseTexture8@@@Z ; CStateManager::SetTexture

; 111  : 	STATEMANAGER.SetRenderState(D3DRS_ALPHABLENDENABLE, FALSE);

  005a6	6a 00		 push	 0
  005a8	6a 1b		 push	 27			; 0000001bH
  005aa	8b 0d 00 00 00
	00		 mov	 ecx, DWORD PTR ?ms_singleton@?$CSingleton@VCStateManager@@@@0PAVCStateManager@@A ; CSingleton<CStateManager>::ms_singleton
  005b0	e8 00 00 00 00	 call	 ?SetRenderState@CStateManager@@QAEXW4_D3DRENDERSTATETYPE@@K@Z ; CStateManager::SetRenderState
; File C:\Program Files (x86)\Microsoft Visual Studio\2019\Community\VC\Tools\MSVC\14.28.29333\include\vector

; 1410 :         auto& _My_data = _Mypair._Myval2;

  005b5	8b 45 ac	 mov	 eax, DWORD PTR _this$[ebp]
  005b8	05 18 01 00 00	 add	 eax, 280		; 00000118H
  005bd	89 85 7c ff ff
	ff		 mov	 DWORD PTR __My_data$28[ebp], eax
; File C:\Program Files (x86)\Microsoft Visual Studio\2019\Community\VC\Tools\MSVC\14.28.29333\include\xstddef

; 275  :     return __builtin_addressof(_Val);

  005c3	8b 85 7c ff ff
	ff		 mov	 eax, DWORD PTR __My_data$28[ebp]
  005c9	89 85 fc fe ff
	ff		 mov	 DWORD PTR $T4[ebp], eax
; File C:\Program Files (x86)\Microsoft Visual Studio\2019\Community\VC\Tools\MSVC\14.28.29333\include\vector

; 1411 :         return iterator(_My_data._Myfirst, _STD addressof(_My_data));

  005cf	8b 85 7c ff ff
	ff		 mov	 eax, DWORD PTR __My_data$28[ebp]
  005d5	8b 00		 mov	 eax, DWORD PTR [eax]
  005d7	89 85 2c ff ff
	ff		 mov	 DWORD PTR ___param0$[ebp], eax

; 42   :     _Vector_const_iterator(_Tptr _Parg, const _Container_base* _Pvector) noexcept : _Ptr(_Parg) {

  005dd	8b 85 2c ff ff
	ff		 mov	 eax, DWORD PTR ___param0$[ebp]
  005e3	89 85 28 ff ff
	ff		 mov	 DWORD PTR $T14[ebp], eax

; 1411 :         return iterator(_My_data._Myfirst, _STD addressof(_My_data));

  005e9	8d 85 28 ff ff
	ff		 lea	 eax, DWORD PTR $T14[ebp]
  005ef	89 85 24 ff ff
	ff		 mov	 DWORD PTR $T13[ebp], eax
; File D:\Metin2 Server Files\mainline\SRC_2014\Metin2Client\GameLib\MapOutdoorWater.cpp

; 113  : 	for(i = m_PatchVector.begin();i != m_PatchVector.end(); ++i)

  005f5	8b 85 24 ff ff
	ff		 mov	 eax, DWORD PTR $T13[ebp]
  005fb	8b 00		 mov	 eax, DWORD PTR [eax]
  005fd	89 45 a8	 mov	 DWORD PTR _i$[ebp], eax
  00600	eb 09		 jmp	 SHORT $LN165@RenderWate
$LN6@RenderWate:
; File C:\Program Files (x86)\Microsoft Visual Studio\2019\Community\VC\Tools\MSVC\14.28.29333\include\vector

; 75   :         ++_Ptr;

  00602	8b 45 a8	 mov	 eax, DWORD PTR _i$[ebp]
  00605	83 c0 08	 add	 eax, 8
  00608	89 45 a8	 mov	 DWORD PTR _i$[ebp], eax
$LN165@RenderWate:

; 1420 :         auto& _My_data = _Mypair._Myval2;

  0060b	8b 45 ac	 mov	 eax, DWORD PTR _this$[ebp]
  0060e	05 18 01 00 00	 add	 eax, 280		; 00000118H
  00613	89 85 78 ff ff
	ff		 mov	 DWORD PTR __My_data$27[ebp], eax
; File C:\Program Files (x86)\Microsoft Visual Studio\2019\Community\VC\Tools\MSVC\14.28.29333\include\xstddef

; 275  :     return __builtin_addressof(_Val);

  00619	8b 85 78 ff ff
	ff		 mov	 eax, DWORD PTR __My_data$27[ebp]
  0061f	89 85 f8 fe ff
	ff		 mov	 DWORD PTR $T3[ebp], eax
; File C:\Program Files (x86)\Microsoft Visual Studio\2019\Community\VC\Tools\MSVC\14.28.29333\include\vector

; 1421 :         return iterator(_My_data._Mylast, _STD addressof(_My_data));

  00625	8b 85 78 ff ff
	ff		 mov	 eax, DWORD PTR __My_data$27[ebp]
  0062b	8b 40 04	 mov	 eax, DWORD PTR [eax+4]
  0062e	89 85 20 ff ff
	ff		 mov	 DWORD PTR ___param0$[ebp], eax

; 42   :     _Vector_const_iterator(_Tptr _Parg, const _Container_base* _Pvector) noexcept : _Ptr(_Parg) {

  00634	8b 85 20 ff ff
	ff		 mov	 eax, DWORD PTR ___param0$[ebp]
  0063a	89 85 04 ff ff
	ff		 mov	 DWORD PTR $T6[ebp], eax

; 1421 :         return iterator(_My_data._Mylast, _STD addressof(_My_data));

  00640	8d 85 04 ff ff
	ff		 lea	 eax, DWORD PTR $T6[ebp]
  00646	89 85 18 ff ff
	ff		 mov	 DWORD PTR $T11[ebp], eax

; 149  :         return _Ptr == _Right._Ptr;

  0064c	8b 85 18 ff ff
	ff		 mov	 eax, DWORD PTR $T11[ebp]
  00652	8b 4d a8	 mov	 ecx, DWORD PTR _i$[ebp]
  00655	3b 08		 cmp	 ecx, DWORD PTR [eax]
  00657	75 0c		 jne	 SHORT $LN193@RenderWate
  00659	c7 85 74 ff ff
	ff 01 00 00 00	 mov	 DWORD PTR tv603[ebp], 1
  00663	eb 07		 jmp	 SHORT $LN194@RenderWate
$LN193@RenderWate:
  00665	83 a5 74 ff ff
	ff 00		 and	 DWORD PTR tv603[ebp], 0
$LN194@RenderWate:
  0066c	8a 85 74 ff ff
	ff		 mov	 al, BYTE PTR tv603[ebp]
  00672	88 45 a5	 mov	 BYTE PTR $T34[ebp], al

; 153  :         return !(*this == _Right);

  00675	0f b6 45 a5	 movzx	 eax, BYTE PTR $T34[ebp]
  00679	85 c0		 test	 eax, eax
  0067b	75 0c		 jne	 SHORT $LN188@RenderWate
  0067d	c7 85 70 ff ff
	ff 01 00 00 00	 mov	 DWORD PTR tv589[ebp], 1
  00687	eb 07		 jmp	 SHORT $LN189@RenderWate
$LN188@RenderWate:
  00689	83 a5 70 ff ff
	ff 00		 and	 DWORD PTR tv589[ebp], 0
$LN189@RenderWate:
  00690	8a 85 70 ff ff
	ff		 mov	 al, BYTE PTR tv589[ebp]
  00696	88 45 a4	 mov	 BYTE PTR $T33[ebp], al
; File D:\Metin2 Server Files\mainline\SRC_2014\Metin2Client\GameLib\MapOutdoorWater.cpp

; 113  : 	for(i = m_PatchVector.begin();i != m_PatchVector.end(); ++i)

  00699	0f b6 45 a4	 movzx	 eax, BYTE PTR $T33[ebp]
  0069d	85 c0		 test	 eax, eax
  0069f	74 5f		 je	 SHORT $LN7@RenderWate
; File C:\Program Files (x86)\Microsoft Visual Studio\2019\Community\VC\Tools\MSVC\14.28.29333\include\vector

; 65   :         return _Ptr;

  006a1	8b 45 a8	 mov	 eax, DWORD PTR _i$[ebp]
  006a4	89 85 14 ff ff
	ff		 mov	 DWORD PTR $T10[ebp], eax

; 256  :         return _Const_cast(_Mybase::operator->());

  006aa	ff b5 14 ff ff
	ff		 push	 DWORD PTR $T10[ebp]
  006b0	e8 00 00 00 00	 call	 ??$_Const_cast@$$CBU?$pair@MJ@std@@@std@@YAPAU?$pair@MJ@0@PBU10@@Z ; std::_Const_cast<std::pair<float,long> const >
  006b5	59		 pop	 ecx
  006b6	89 85 10 ff ff
	ff		 mov	 DWORD PTR $T9[ebp], eax
; File D:\Metin2 Server Files\mainline\SRC_2014\Metin2Client\GameLib\MapOutdoorWater.cpp

; 115  : 		if (i->first>=fFogDistance)	

  006bc	8b 85 10 ff ff
	ff		 mov	 eax, DWORD PTR $T9[ebp]
  006c2	f3 0f 10 00	 movss	 xmm0, DWORD PTR [eax]
  006c6	0f 2f 85 6c ff
	ff ff		 comiss	 xmm0, DWORD PTR _fFogDistance$[ebp]
  006cd	72 2c		 jb	 SHORT $LN15@RenderWate
; File C:\Program Files (x86)\Microsoft Visual Studio\2019\Community\VC\Tools\MSVC\14.28.29333\include\vector

; 65   :         return _Ptr;

  006cf	8b 45 a8	 mov	 eax, DWORD PTR _i$[ebp]
  006d2	89 85 0c ff ff
	ff		 mov	 DWORD PTR $T8[ebp], eax

; 256  :         return _Const_cast(_Mybase::operator->());

  006d8	ff b5 0c ff ff
	ff		 push	 DWORD PTR $T8[ebp]
  006de	e8 00 00 00 00	 call	 ??$_Const_cast@$$CBU?$pair@MJ@std@@@std@@YAPAU?$pair@MJ@0@PBU10@@Z ; std::_Const_cast<std::pair<float,long> const >
  006e3	59		 pop	 ecx
  006e4	89 85 08 ff ff
	ff		 mov	 DWORD PTR $T7[ebp], eax
; File D:\Metin2 Server Files\mainline\SRC_2014\Metin2Client\GameLib\MapOutdoorWater.cpp

; 116  : 			DrawWater(i->second);

  006ea	8b 85 08 ff ff
	ff		 mov	 eax, DWORD PTR $T7[ebp]
  006f0	ff 70 04	 push	 DWORD PTR [eax+4]
  006f3	8b 4d ac	 mov	 ecx, DWORD PTR _this$[ebp]
  006f6	e8 00 00 00 00	 call	 ?DrawWater@CMapOutdoor@@IAEXJ@Z ; CMapOutdoor::DrawWater
$LN15@RenderWate:

; 117  : 	}

  006fb	e9 02 ff ff ff	 jmp	 $LN6@RenderWate
$LN7@RenderWate:

; 118  : 
; 119  : 	//     z  
; 120  : 	m_matWorldForCommonUse._43 = 0.0f;

  00700	8b 45 ac	 mov	 eax, DWORD PTR _this$[ebp]
  00703	0f 57 c0	 xorps	 xmm0, xmm0
  00706	f3 0f 11 80 80
	07 00 00	 movss	 DWORD PTR [eax+1920], xmm0

; 121  : 
; 122  : 	//////////////////////////////////////////////////////////////////////////
; 123  : 	// RenderState
; 124  : 	STATEMANAGER.RestoreVertexShader();

  0070e	8b 0d 00 00 00
	00		 mov	 ecx, DWORD PTR ?ms_singleton@?$CSingleton@VCStateManager@@@@0PAVCStateManager@@A ; CSingleton<CStateManager>::ms_singleton
  00714	e8 00 00 00 00	 call	 ?RestoreVertexShader@CStateManager@@QAEXXZ ; CStateManager::RestoreVertexShader

; 125  : 	STATEMANAGER.RestoreTransform(D3DTS_TEXTURE0);

  00719	6a 10		 push	 16			; 00000010H
  0071b	8b 0d 00 00 00
	00		 mov	 ecx, DWORD PTR ?ms_singleton@?$CSingleton@VCStateManager@@@@0PAVCStateManager@@A ; CSingleton<CStateManager>::ms_singleton
  00721	e8 00 00 00 00	 call	 ?RestoreTransform@CStateManager@@QAEXW4_D3DTRANSFORMSTATETYPE@@@Z ; CStateManager::RestoreTransform

; 126  : 	STATEMANAGER.RestoreTextureStageState(0, D3DTSS_MINFILTER);

  00726	6a 11		 push	 17			; 00000011H
  00728	6a 00		 push	 0
  0072a	8b 0d 00 00 00
	00		 mov	 ecx, DWORD PTR ?ms_singleton@?$CSingleton@VCStateManager@@@@0PAVCStateManager@@A ; CSingleton<CStateManager>::ms_singleton
  00730	e8 00 00 00 00	 call	 ?RestoreTextureStageState@CStateManager@@QAEXKW4_D3DTEXTURESTAGESTATETYPE@@@Z ; CStateManager::RestoreTextureStageState

; 127  : 	STATEMANAGER.RestoreTextureStageState(0, D3DTSS_MAGFILTER);

  00735	6a 10		 push	 16			; 00000010H
  00737	6a 00		 push	 0
  00739	8b 0d 00 00 00
	00		 mov	 ecx, DWORD PTR ?ms_singleton@?$CSingleton@VCStateManager@@@@0PAVCStateManager@@A ; CSingleton<CStateManager>::ms_singleton
  0073f	e8 00 00 00 00	 call	 ?RestoreTextureStageState@CStateManager@@QAEXKW4_D3DTEXTURESTAGESTATETYPE@@@Z ; CStateManager::RestoreTextureStageState

; 128  : 	STATEMANAGER.RestoreTextureStageState(0, D3DTSS_MIPFILTER);

  00744	6a 12		 push	 18			; 00000012H
  00746	6a 00		 push	 0
  00748	8b 0d 00 00 00
	00		 mov	 ecx, DWORD PTR ?ms_singleton@?$CSingleton@VCStateManager@@@@0PAVCStateManager@@A ; CSingleton<CStateManager>::ms_singleton
  0074e	e8 00 00 00 00	 call	 ?RestoreTextureStageState@CStateManager@@QAEXKW4_D3DTEXTURESTAGESTATETYPE@@@Z ; CStateManager::RestoreTextureStageState

; 129  : 	STATEMANAGER.RestoreTextureStageState(0, D3DTSS_ADDRESSU);

  00753	6a 0d		 push	 13			; 0000000dH
  00755	6a 00		 push	 0
  00757	8b 0d 00 00 00
	00		 mov	 ecx, DWORD PTR ?ms_singleton@?$CSingleton@VCStateManager@@@@0PAVCStateManager@@A ; CSingleton<CStateManager>::ms_singleton
  0075d	e8 00 00 00 00	 call	 ?RestoreTextureStageState@CStateManager@@QAEXKW4_D3DTEXTURESTAGESTATETYPE@@@Z ; CStateManager::RestoreTextureStageState

; 130  : 	STATEMANAGER.RestoreTextureStageState(0, D3DTSS_ADDRESSV);

  00762	6a 0e		 push	 14			; 0000000eH
  00764	6a 00		 push	 0
  00766	8b 0d 00 00 00
	00		 mov	 ecx, DWORD PTR ?ms_singleton@?$CSingleton@VCStateManager@@@@0PAVCStateManager@@A ; CSingleton<CStateManager>::ms_singleton
  0076c	e8 00 00 00 00	 call	 ?RestoreTextureStageState@CStateManager@@QAEXKW4_D3DTEXTURESTAGESTATETYPE@@@Z ; CStateManager::RestoreTextureStageState

; 131  : 	STATEMANAGER.RestoreTextureStageState(0, D3DTSS_TEXCOORDINDEX);

  00771	6a 0b		 push	 11			; 0000000bH
  00773	6a 00		 push	 0
  00775	8b 0d 00 00 00
	00		 mov	 ecx, DWORD PTR ?ms_singleton@?$CSingleton@VCStateManager@@@@0PAVCStateManager@@A ; CSingleton<CStateManager>::ms_singleton
  0077b	e8 00 00 00 00	 call	 ?RestoreTextureStageState@CStateManager@@QAEXKW4_D3DTEXTURESTAGESTATETYPE@@@Z ; CStateManager::RestoreTextureStageState

; 132  : 	STATEMANAGER.RestoreTextureStageState(0, D3DTSS_TEXTURETRANSFORMFLAGS);

  00780	6a 18		 push	 24			; 00000018H
  00782	6a 00		 push	 0
  00784	8b 0d 00 00 00
	00		 mov	 ecx, DWORD PTR ?ms_singleton@?$CSingleton@VCStateManager@@@@0PAVCStateManager@@A ; CSingleton<CStateManager>::ms_singleton
  0078a	e8 00 00 00 00	 call	 ?RestoreTextureStageState@CStateManager@@QAEXKW4_D3DTEXTURESTAGESTATETYPE@@@Z ; CStateManager::RestoreTextureStageState

; 133  : 	
; 134  : 	STATEMANAGER.RestoreRenderState(D3DRS_DIFFUSEMATERIALSOURCE);

  0078f	68 91 00 00 00	 push	 145			; 00000091H
  00794	8b 0d 00 00 00
	00		 mov	 ecx, DWORD PTR ?ms_singleton@?$CSingleton@VCStateManager@@@@0PAVCStateManager@@A ; CSingleton<CStateManager>::ms_singleton
  0079a	e8 00 00 00 00	 call	 ?RestoreRenderState@CStateManager@@QAEXW4_D3DRENDERSTATETYPE@@@Z ; CStateManager::RestoreRenderState

; 135  : 	STATEMANAGER.RestoreRenderState(D3DRS_COLORVERTEX);

  0079f	68 8d 00 00 00	 push	 141			; 0000008dH
  007a4	8b 0d 00 00 00
	00		 mov	 ecx, DWORD PTR ?ms_singleton@?$CSingleton@VCStateManager@@@@0PAVCStateManager@@A ; CSingleton<CStateManager>::ms_singleton
  007aa	e8 00 00 00 00	 call	 ?RestoreRenderState@CStateManager@@QAEXW4_D3DRENDERSTATETYPE@@@Z ; CStateManager::RestoreRenderState

; 136  : 	STATEMANAGER.RestoreRenderState(D3DRS_ZWRITEENABLE);

  007af	6a 0e		 push	 14			; 0000000eH
  007b1	8b 0d 00 00 00
	00		 mov	 ecx, DWORD PTR ?ms_singleton@?$CSingleton@VCStateManager@@@@0PAVCStateManager@@A ; CSingleton<CStateManager>::ms_singleton
  007b7	e8 00 00 00 00	 call	 ?RestoreRenderState@CStateManager@@QAEXW4_D3DRENDERSTATETYPE@@@Z ; CStateManager::RestoreRenderState

; 137  : 	STATEMANAGER.RestoreRenderState(D3DRS_ALPHABLENDENABLE);

  007bc	6a 1b		 push	 27			; 0000001bH
  007be	8b 0d 00 00 00
	00		 mov	 ecx, DWORD PTR ?ms_singleton@?$CSingleton@VCStateManager@@@@0PAVCStateManager@@A ; CSingleton<CStateManager>::ms_singleton
  007c4	e8 00 00 00 00	 call	 ?RestoreRenderState@CStateManager@@QAEXW4_D3DRENDERSTATETYPE@@@Z ; CStateManager::RestoreRenderState

; 138  : 	STATEMANAGER.RestoreRenderState(D3DRS_CULLMODE);	

  007c9	6a 16		 push	 22			; 00000016H
  007cb	8b 0d 00 00 00
	00		 mov	 ecx, DWORD PTR ?ms_singleton@?$CSingleton@VCStateManager@@@@0PAVCStateManager@@A ; CSingleton<CStateManager>::ms_singleton
  007d1	e8 00 00 00 00	 call	 ?RestoreRenderState@CStateManager@@QAEXW4_D3DRENDERSTATETYPE@@@Z ; CStateManager::RestoreRenderState
$LN1@RenderWate:

; 139  : }

  007d6	8b 4d f4	 mov	 ecx, DWORD PTR __$EHRec$[ebp]
  007d9	64 89 0d 00 00
	00 00		 mov	 DWORD PTR fs:0, ecx
  007e0	59		 pop	 ecx
  007e1	8b 4d f0	 mov	 ecx, DWORD PTR __$ArrayPad$[ebp]
  007e4	33 cd		 xor	 ecx, ebp
  007e6	e8 00 00 00 00	 call	 @__security_check_cookie@4
  007eb	c9		 leave
  007ec	c3		 ret	 0
_TEXT	ENDS
;	COMDAT text$x
text$x	SEGMENT
__unwindfunclet$?RenderWater@CMapOutdoor@@QAEXXZ$0:
  00000	68 00 00 00 00	 push	 OFFSET ?$TSS0@?1??RenderWater@CMapOutdoor@@QAEXXZ@4HA
  00005	e8 00 00 00 00	 call	 __Init_thread_abort
  0000a	59		 pop	 ecx
  0000b	c3		 ret	 0
  0000c	cc		 int	 3
  0000d	cc		 int	 3
  0000e	cc		 int	 3
  0000f	cc		 int	 3
  00010	cc		 int	 3
__ehhandler$?RenderWater@CMapOutdoor@@QAEXXZ:
  00011	90		 npad	 1
  00012	90		 npad	 1
  00013	8b 54 24 08	 mov	 edx, DWORD PTR [esp+8]
  00017	8d 42 0c	 lea	 eax, DWORD PTR [edx+12]
  0001a	8b 8a ec fe ff
	ff		 mov	 ecx, DWORD PTR [edx-276]
  00020	33 c8		 xor	 ecx, eax
  00022	e8 00 00 00 00	 call	 @__security_check_cookie@4
  00027	8b 4a fc	 mov	 ecx, DWORD PTR [edx-4]
  0002a	33 c8		 xor	 ecx, eax
  0002c	e8 00 00 00 00	 call	 @__security_check_cookie@4
  00031	b8 00 00 00 00	 mov	 eax, OFFSET __ehfuncinfo$?RenderWater@CMapOutdoor@@QAEXXZ
  00036	e9 00 00 00 00	 jmp	 ___CxxFrameHandler3
text$x	ENDS
?RenderWater@CMapOutdoor@@QAEXXZ ENDP			; CMapOutdoor::RenderWater
; Function compile flags: /Odspy
; File C:\Program Files (x86)\Windows Kits\10\Include\10.0.18362.0\ucrt\stdio.h
;	COMDAT _sprintf
_TEXT	SEGMENT
__Result$ = -20						; size = 4
__Format$ = -16						; size = 4
__ArgList$ = -12					; size = 4
tv86 = -8						; size = 4
__Result$1 = -4						; size = 4
__Buffer$ = 8						; size = 4
__Format$ = 12						; size = 4
_sprintf PROC						; COMDAT

; 1781 :     {

  00000	55		 push	 ebp
  00001	8b ec		 mov	 ebp, esp
  00003	83 ec 14	 sub	 esp, 20			; 00000014H

; 1782 :         int _Result;
; 1783 :         va_list _ArgList;
; 1784 :         __crt_va_start(_ArgList, _Format);

  00006	8d 45 10	 lea	 eax, DWORD PTR __Format$[ebp+4]
  00009	89 45 f4	 mov	 DWORD PTR __ArgList$[ebp], eax

; 1785 : 
; 1786 :         #pragma warning(push)
; 1787 :         #pragma warning(disable: 4996) // Deprecation
; 1788 :         _Result = _vsprintf_l(_Buffer, _Format, NULL, _ArgList);

  0000c	8b 45 0c	 mov	 eax, DWORD PTR __Format$[ebp]
  0000f	89 45 f0	 mov	 DWORD PTR __Format$[ebp], eax

; 1390 :         int const _Result = __stdio_common_vsprintf(

  00012	ff 75 f4	 push	 DWORD PTR __ArgList$[ebp]
  00015	6a 00		 push	 0
  00017	ff 75 f0	 push	 DWORD PTR __Format$[ebp]
  0001a	6a ff		 push	 -1
  0001c	ff 75 08	 push	 DWORD PTR __Buffer$[ebp]
  0001f	e8 00 00 00 00	 call	 ___local_stdio_printf_options
  00024	8b 08		 mov	 ecx, DWORD PTR [eax]
  00026	83 c9 01	 or	 ecx, 1
  00029	8b 40 04	 mov	 eax, DWORD PTR [eax+4]
  0002c	50		 push	 eax
  0002d	51		 push	 ecx
  0002e	e8 00 00 00 00	 call	 ___stdio_common_vsprintf
  00033	83 c4 1c	 add	 esp, 28			; 0000001cH
  00036	89 45 fc	 mov	 DWORD PTR __Result$1[ebp], eax

; 1391 :             _CRT_INTERNAL_LOCAL_PRINTF_OPTIONS | _CRT_INTERNAL_PRINTF_LEGACY_VSPRINTF_NULL_TERMINATION,
; 1392 :             _Buffer, _BufferCount, _Format, _Locale, _ArgList);
; 1393 : 
; 1394 :         return _Result < 0 ? -1 : _Result;

  00039	83 7d fc 00	 cmp	 DWORD PTR __Result$1[ebp], 0
  0003d	7d 06		 jge	 SHORT $LN7@sprintf
  0003f	83 4d f8 ff	 or	 DWORD PTR tv86[ebp], -1
  00043	eb 06		 jmp	 SHORT $LN3@sprintf
$LN7@sprintf:
  00045	8b 45 fc	 mov	 eax, DWORD PTR __Result$1[ebp]
  00048	89 45 f8	 mov	 DWORD PTR tv86[ebp], eax
$LN3@sprintf:

; 1785 : 
; 1786 :         #pragma warning(push)
; 1787 :         #pragma warning(disable: 4996) // Deprecation
; 1788 :         _Result = _vsprintf_l(_Buffer, _Format, NULL, _ArgList);

  0004b	8b 45 f8	 mov	 eax, DWORD PTR tv86[ebp]
  0004e	89 45 ec	 mov	 DWORD PTR __Result$[ebp], eax

; 1789 :         #pragma warning(pop)
; 1790 : 
; 1791 :         __crt_va_end(_ArgList);

  00051	83 65 f4 00	 and	 DWORD PTR __ArgList$[ebp], 0

; 1792 :         return _Result;

  00055	8b 45 ec	 mov	 eax, DWORD PTR __Result$[ebp]

; 1793 :     }

  00058	c9		 leave
  00059	c3		 ret	 0
_sprintf ENDP
_TEXT	ENDS
; Function compile flags: /Odspy
; File C:\Program Files (x86)\Windows Kits\10\Include\10.0.18362.0\ucrt\corecrt_stdio_config.h
;	COMDAT ___local_stdio_printf_options
_TEXT	SEGMENT
___local_stdio_printf_options PROC			; COMDAT

; 86   :     {

  00000	55		 push	 ebp
  00001	8b ec		 mov	 ebp, esp

; 87   :         static unsigned __int64 _OptionsStorage;
; 88   :         return &_OptionsStorage;

  00003	b8 00 00 00 00	 mov	 eax, OFFSET ?_OptionsStorage@?1??__local_stdio_printf_options@@9@4_KA ; `__local_stdio_printf_options'::`2'::_OptionsStorage

; 89   :     }

  00008	5d		 pop	 ebp
  00009	c3		 ret	 0
___local_stdio_printf_options ENDP
_TEXT	ENDS
; Function compile flags: /Odspy
;	COMDAT ??_H@YGXPAXIIP6EPAX0@Z@Z
_TEXT	SEGMENT
tv66 = -4						; size = 4
___t$ = 8						; size = 4
___s$ = 12						; size = 4
___n$ = 16						; size = 4
___f$ = 20						; size = 4
??_H@YGXPAXIIP6EPAX0@Z@Z PROC				; `vector constructor iterator', COMDAT
  00000	55		 push	 ebp
  00001	8b ec		 mov	 ebp, esp
  00003	51		 push	 ecx
$LN2@vector:
  00004	8b 45 10	 mov	 eax, DWORD PTR ___n$[ebp]
  00007	89 45 fc	 mov	 DWORD PTR tv66[ebp], eax
  0000a	8b 45 10	 mov	 eax, DWORD PTR ___n$[ebp]
  0000d	48		 dec	 eax
  0000e	89 45 10	 mov	 DWORD PTR ___n$[ebp], eax
  00011	83 7d fc 00	 cmp	 DWORD PTR tv66[ebp], 0
  00015	76 11		 jbe	 SHORT $LN1@vector
  00017	8b 4d 08	 mov	 ecx, DWORD PTR ___t$[ebp]
  0001a	ff 55 14	 call	 DWORD PTR ___f$[ebp]
  0001d	8b 45 08	 mov	 eax, DWORD PTR ___t$[ebp]
  00020	03 45 0c	 add	 eax, DWORD PTR ___s$[ebp]
  00023	89 45 08	 mov	 DWORD PTR ___t$[ebp], eax
  00026	eb dc		 jmp	 SHORT $LN2@vector
$LN1@vector:
  00028	c9		 leave
  00029	c2 10 00	 ret	 16			; 00000010H
??_H@YGXPAXIIP6EPAX0@Z@Z ENDP				; `vector constructor iterator'
_TEXT	ENDS
END
