; Listing generated by Microsoft (R) Optimizing Compiler Version 19.28.29335.0 

	TITLE	D:\Metin2 Server Files\mainline\SRC_2014\Metin2Client\GameLib\MapOutdoorRenderSTP.cpp
	.686P
	.XMM
	include listing.inc
	.model	flat

INCLUDELIB LIBCMT
INCLUDELIB OLDNAMES

PUBLIC	??_H@YGXPAXIIP6EPAX0@Z@Z			; `vector constructor iterator'
PUBLIC	??0exception@std@@QAE@ABV01@@Z			; std::exception::exception
PUBLIC	?what@exception@std@@UBEPBDXZ			; std::exception::what
PUBLIC	??_Gexception@std@@UAEPAXI@Z			; std::exception::`scalar deleting destructor'
PUBLIC	??0bad_alloc@std@@QAE@ABV01@@Z			; std::bad_alloc::bad_alloc
PUBLIC	??_Gbad_alloc@std@@UAEPAXI@Z			; std::bad_alloc::`scalar deleting destructor'
PUBLIC	??0bad_array_new_length@std@@QAE@XZ		; std::bad_array_new_length::bad_array_new_length
PUBLIC	??1bad_array_new_length@std@@UAE@XZ		; std::bad_array_new_length::~bad_array_new_length
PUBLIC	??0bad_array_new_length@std@@QAE@ABV01@@Z	; std::bad_array_new_length::bad_array_new_length
PUBLIC	??_Gbad_array_new_length@std@@UAEPAXI@Z		; std::bad_array_new_length::`scalar deleting destructor'
PUBLIC	?_Throw_bad_array_new_length@std@@YAXXZ		; std::_Throw_bad_array_new_length
PUBLIC	?_Adjust_manually_vector_aligned@std@@YAXAAPAXAAI@Z ; std::_Adjust_manually_vector_aligned
PUBLIC	??$_Deallocate@$07$0A@@std@@YAXPAXI@Z		; std::_Deallocate<8,0>
PUBLIC	??$_Allocate@$07U_Default_allocate_traits@std@@$0A@@std@@YAPAXI@Z ; std::_Allocate<8,std::_Default_allocate_traits,0>
PUBLIC	??$_Allocate_manually_vector_aligned@U_Default_allocate_traits@std@@@std@@YAPAXI@Z ; std::_Allocate_manually_vector_aligned<std::_Default_allocate_traits>
PUBLIC	?deallocate@?$allocator@H@std@@QAEXQAHI@Z	; std::allocator<int>::deallocate
PUBLIC	?begin@?$vector@U?$pair@MJ@std@@V?$allocator@U?$pair@MJ@std@@@2@@std@@QAE?AV?$_Vector_iterator@V?$_Vector_val@U?$_Simple_types@U?$pair@MJ@std@@@std@@@std@@@2@XZ ; std::vector<std::pair<float,long>,std::allocator<std::pair<float,long> > >::begin
PUBLIC	?clear@?$vector@HV?$allocator@H@std@@@std@@QAEXXZ ; std::vector<int,std::allocator<int> >::clear
PUBLIC	?_Destroy@?$vector@HV?$allocator@H@std@@@std@@AAEXPAH0@Z ; std::vector<int,std::allocator<int> >::_Destroy
PUBLIC	?_Calculate_growth@?$vector@HV?$allocator@H@std@@@std@@ABEII@Z ; std::vector<int,std::allocator<int> >::_Calculate_growth
PUBLIC	?_Change_array@?$vector@HV?$allocator@H@std@@@std@@AAEXQAHII@Z ; std::vector<int,std::allocator<int> >::_Change_array
PUBLIC	?_Xlength@?$vector@HV?$allocator@H@std@@@std@@CAXXZ ; std::vector<int,std::allocator<int> >::_Xlength
PUBLIC	?__RenderTerrain_RenderSoftwareTransformPatch@CMapOutdoor@@IAEXXZ ; CMapOutdoor::__RenderTerrain_RenderSoftwareTransformPatch
PUBLIC	?__SoftwareTransformPatch_ApplyRenderState@CMapOutdoor@@IAEXXZ ; CMapOutdoor::__SoftwareTransformPatch_ApplyRenderState
PUBLIC	?__SoftwareTransformPatch_RestoreRenderState@CMapOutdoor@@IAEXK@Z ; CMapOutdoor::__SoftwareTransformPatch_RestoreRenderState
PUBLIC	?__SoftwareTransformPatch_Initialize@CMapOutdoor@@IAEXXZ ; CMapOutdoor::__SoftwareTransformPatch_Initialize
PUBLIC	?__SoftwareTransformPatch_Create@CMapOutdoor@@IAE_NXZ ; CMapOutdoor::__SoftwareTransformPatch_Create
PUBLIC	?__SoftwareTransformPatch_Destroy@CMapOutdoor@@IAEXXZ ; CMapOutdoor::__SoftwareTransformPatch_Destroy
PUBLIC	?__SoftwareTransformPatch_BuildPipeline@CMapOutdoor@@IAEXAAUSoftwareTransformPatch_SRenderState@1@@Z ; CMapOutdoor::__SoftwareTransformPatch_BuildPipeline
PUBLIC	?__SoftwareTransformPatch_SetTransform@CMapOutdoor@@IAE_NAAUSoftwareTransformPatch_SRenderState@1@PAUSoftwareTransformPatch_STLVertex@1@AAVCTerrainPatchProxy@@II_N3@Z ; CMapOutdoor::__SoftwareTransformPatch_SetTransform
PUBLIC	?__SoftwareTransformPatch_SetSplatStream@CMapOutdoor@@IAE_NPAUSoftwareTransformPatch_STLVertex@1@@Z ; CMapOutdoor::__SoftwareTransformPatch_SetSplatStream
PUBLIC	?__SoftwareTransformPatch_SetShadowStream@CMapOutdoor@@IAE_NPAUSoftwareTransformPatch_STLVertex@1@@Z ; CMapOutdoor::__SoftwareTransformPatch_SetShadowStream
PUBLIC	?__SoftwareTransformPatch_ApplyStaticShadowRenderState@CMapOutdoor@@IAEXXZ ; CMapOutdoor::__SoftwareTransformPatch_ApplyStaticShadowRenderState
PUBLIC	?__SoftwareTransformPatch_RestoreStaticShadowRenderState@CMapOutdoor@@IAEXXZ ; CMapOutdoor::__SoftwareTransformPatch_RestoreStaticShadowRenderState
PUBLIC	?__SoftwareTransformPatch_ApplyFogShadowRenderState@CMapOutdoor@@IAEXXZ ; CMapOutdoor::__SoftwareTransformPatch_ApplyFogShadowRenderState
PUBLIC	?__SoftwareTransformPatch_RestoreFogShadowRenderState@CMapOutdoor@@IAEXXZ ; CMapOutdoor::__SoftwareTransformPatch_RestoreFogShadowRenderState
PUBLIC	?__SoftwareTransformPatch_ApplyDynamicShadowRenderState@CMapOutdoor@@IAEXXZ ; CMapOutdoor::__SoftwareTransformPatch_ApplyDynamicShadowRenderState
PUBLIC	?__SoftwareTransformPatch_RestoreDynamicShadowRenderState@CMapOutdoor@@IAEXXZ ; CMapOutdoor::__SoftwareTransformPatch_RestoreDynamicShadowRenderState
PUBLIC	?__SoftwareTransformPatch_RenderPatchSplat@CMapOutdoor@@IAEXAAUSoftwareTransformPatch_SRenderState@1@JGW4_D3DPRIMITIVETYPE@@_N@Z ; CMapOutdoor::__SoftwareTransformPatch_RenderPatchSplat
PUBLIC	?__SoftwareTransformPatch_RenderPatchNone@CMapOutdoor@@IAEXAAUSoftwareTransformPatch_SRenderState@1@JGW4_D3DPRIMITIVETYPE@@@Z ; CMapOutdoor::__SoftwareTransformPatch_RenderPatchNone
PUBLIC	??0?$_Vector_const_iterator@V?$_Vector_val@U?$_Simple_types@U?$pair@MJ@std@@@std@@@std@@@std@@QAE@PAU?$pair@MJ@1@PBU_Container_base0@1@@Z ; std::_Vector_const_iterator<std::_Vector_val<std::_Simple_types<std::pair<float,long> > > >::_Vector_const_iterator<std::_Vector_val<std::_Simple_types<std::pair<float,long> > > >
PUBLIC	??$find@V?$_Vector_iterator@V?$_Vector_val@U?$_Simple_types@H@std@@@std@@@std@@H@std@@YA?AV?$_Vector_iterator@V?$_Vector_val@U?$_Simple_types@H@std@@@std@@@0@V10@V10@ABH@Z ; std::find<std::_Vector_iterator<std::_Vector_val<std::_Simple_types<int> > >,int>
PUBLIC	??$sort@V?$_Vector_iterator@V?$_Vector_val@U?$_Simple_types@H@std@@@std@@@std@@@std@@YAXV?$_Vector_iterator@V?$_Vector_val@U?$_Simple_types@H@std@@@std@@@0@0@Z ; std::sort<std::_Vector_iterator<std::_Vector_val<std::_Simple_types<int> > > >
PUBLIC	??$_Const_cast@$$CBU?$pair@MJ@std@@@std@@YAPAU?$pair@MJ@0@PBU10@@Z ; std::_Const_cast<std::pair<float,long> const >
PUBLIC	??$emplace_back@ABH@?$vector@HV?$allocator@H@std@@@std@@QAEXABH@Z ; std::vector<int,std::allocator<int> >::emplace_back<int const &>
PUBLIC	??$_Emplace_back_with_unused_capacity@ABH@?$vector@HV?$allocator@H@std@@@std@@AAEXABH@Z ; std::vector<int,std::allocator<int> >::_Emplace_back_with_unused_capacity<int const &>
PUBLIC	??$_Emplace_reallocate@ABH@?$vector@HV?$allocator@H@std@@@std@@QAEPAHQAHABH@Z ; std::vector<int,std::allocator<int> >::_Emplace_reallocate<int const &>
PUBLIC	??$_Destroy_range@V?$allocator@H@std@@@std@@YAXPAHQAHAAV?$allocator@H@0@@Z ; std::_Destroy_range<std::allocator<int> >
PUBLIC	??$upper_bound@V?$_Vector_iterator@V?$_Vector_val@U?$_Simple_types@U?$pair@MJ@std@@@std@@@std@@@std@@U?$pair@MJ@2@U?$less@X@2@@std@@YA?AV?$_Vector_iterator@V?$_Vector_val@U?$_Simple_types@U?$pair@MJ@std@@@std@@@std@@@0@V10@0ABU?$pair@MJ@0@U?$less@X@0@@Z ; std::upper_bound<std::_Vector_iterator<std::_Vector_val<std::_Simple_types<std::pair<float,long> > > >,std::pair<float,long>,std::less<void> >
PUBLIC	??$_Uninitialized_move@PAHV?$allocator@H@std@@@std@@YAPAHQAH0PAHAAV?$allocator@H@0@@Z ; std::_Uninitialized_move<int *,std::allocator<int> >
PUBLIC	??$_Sort_unchecked@PAHU?$less@X@std@@@std@@YAXPAH0HU?$less@X@0@@Z ; std::_Sort_unchecked<int *,std::less<void> >
PUBLIC	??$_Copy_memmove@PAHPAH@std@@YAPAHPAH00@Z	; std::_Copy_memmove<int *,int *>
PUBLIC	??$_Refancy@PAH$0A@@std@@YAPAHPAH@Z		; std::_Refancy<int *,0>
PUBLIC	??$_Insertion_sort_unchecked@PAHU?$less@X@std@@@std@@YAPAHQAH0U?$less@X@0@@Z ; std::_Insertion_sort_unchecked<int *,std::less<void> >
PUBLIC	??$_Make_heap_unchecked@PAHU?$less@X@std@@@std@@YAXPAH0U?$less@X@0@@Z ; std::_Make_heap_unchecked<int *,std::less<void> >
PUBLIC	??$_Partition_by_median_guess_unchecked@PAHU?$less@X@std@@@std@@YA?AU?$pair@PAHPAH@0@PAH0U?$less@X@0@@Z ; std::_Partition_by_median_guess_unchecked<int *,std::less<void> >
PUBLIC	??$_Refancy@PAU?$pair@MJ@std@@$0A@@std@@YAPAU?$pair@MJ@0@PAU10@@Z ; std::_Refancy<std::pair<float,long> *,0>
PUBLIC	??$_Pop_heap_hole_by_index@PAHHU?$less@X@std@@@std@@YAXPAHHH$$QAHU?$less@X@0@@Z ; std::_Pop_heap_hole_by_index<int *,int,std::less<void> >
PUBLIC	??$_Pop_heap_unchecked@PAHU?$less@X@std@@@std@@YAXPAH0U?$less@X@0@@Z ; std::_Pop_heap_unchecked<int *,std::less<void> >
PUBLIC	??$_Guess_median_unchecked@PAHU?$less@X@std@@@std@@YAXPAH00U?$less@X@0@@Z ; std::_Guess_median_unchecked<int *,std::less<void> >
PUBLIC	??$_Copy_backward_memmove@PAHPAH@std@@YAPAHPAH00@Z ; std::_Copy_backward_memmove<int *,int *>
PUBLIC	??$_Med3_unchecked@PAHU?$less@X@std@@@std@@YAXPAH00U?$less@X@0@@Z ; std::_Med3_unchecked<int *,std::less<void> >
PUBLIC	??_7exception@std@@6B@				; std::exception::`vftable'
PUBLIC	??_C@_0BC@EOODALEL@Unknown?5exception@		; `string'
PUBLIC	??_7bad_alloc@std@@6B@				; std::bad_alloc::`vftable'
PUBLIC	??_7bad_array_new_length@std@@6B@		; std::bad_array_new_length::`vftable'
PUBLIC	??_C@_0BF@KINCDENJ@bad?5array?5new?5length@	; `string'
PUBLIC	__TI3?AVbad_array_new_length@std@@
PUBLIC	__CTA3?AVbad_array_new_length@std@@
PUBLIC	??_R0?AVbad_array_new_length@std@@@8		; std::bad_array_new_length `RTTI Type Descriptor'
PUBLIC	__CT??_R0?AVbad_array_new_length@std@@@8??0bad_array_new_length@std@@QAE@ABV01@@Z12
PUBLIC	??_R0?AVbad_alloc@std@@@8			; std::bad_alloc `RTTI Type Descriptor'
PUBLIC	__CT??_R0?AVbad_alloc@std@@@8??0bad_alloc@std@@QAE@ABV01@@Z12
PUBLIC	??_R0?AVexception@std@@@8			; std::exception `RTTI Type Descriptor'
PUBLIC	__CT??_R0?AVexception@std@@@8??0exception@std@@QAE@ABV01@@Z12
PUBLIC	??_R4exception@std@@6B@				; std::exception::`RTTI Complete Object Locator'
PUBLIC	??_R3exception@std@@8				; std::exception::`RTTI Class Hierarchy Descriptor'
PUBLIC	??_R2exception@std@@8				; std::exception::`RTTI Base Class Array'
PUBLIC	??_R1A@?0A@EA@exception@std@@8			; std::exception::`RTTI Base Class Descriptor at (0,-1,0,64)'
PUBLIC	??_R4bad_alloc@std@@6B@				; std::bad_alloc::`RTTI Complete Object Locator'
PUBLIC	??_R3bad_alloc@std@@8				; std::bad_alloc::`RTTI Class Hierarchy Descriptor'
PUBLIC	??_R2bad_alloc@std@@8				; std::bad_alloc::`RTTI Base Class Array'
PUBLIC	??_R1A@?0A@EA@bad_alloc@std@@8			; std::bad_alloc::`RTTI Base Class Descriptor at (0,-1,0,64)'
PUBLIC	??_R4bad_array_new_length@std@@6B@		; std::bad_array_new_length::`RTTI Complete Object Locator'
PUBLIC	??_R3bad_array_new_length@std@@8		; std::bad_array_new_length::`RTTI Class Hierarchy Descriptor'
PUBLIC	??_R2bad_array_new_length@std@@8		; std::bad_array_new_length::`RTTI Base Class Array'
PUBLIC	??_R1A@?0A@EA@bad_array_new_length@std@@8	; std::bad_array_new_length::`RTTI Base Class Descriptor at (0,-1,0,64)'
PUBLIC	?ms_singleton@?$CSingleton@VCStateManager@@@@0PAVCStateManager@@A ; CSingleton<CStateManager>::ms_singleton
PUBLIC	??_C@_0BA@FOIKENOD@vector?5too?5long@		; `string'
PUBLIC	__real@3acccccd
PUBLIC	__real@3e000000
PUBLIC	__real@3f000000
PUBLIC	__real@3f800000
PUBLIC	__real@40000000
PUBLIC	__real@4144ec4c
PUBLIC	__real@437f0000
PUBLIC	__real@44480000
PUBLIC	__real@453b8000
PUBLIC	__real@45480000
PUBLIC	__real@459c4000
PUBLIC	__real@461c4000
PUBLIC	__real@bacccccd
PUBLIC	__xmm@41f00000000000000000000000000000
PUBLIC	__xmm@80000000800000008000000080000000
EXTRN	??2@YAPAXI@Z:PROC				; operator new
EXTRN	??3@YAXPAXI@Z:PROC				; operator delete
EXTRN	__invalid_parameter_noinfo_noreturn:PROC
EXTRN	_memcpy:PROC
EXTRN	_memmove:PROC
EXTRN	_memset:PROC
EXTRN	___std_exception_copy:PROC
EXTRN	___std_exception_destroy:PROC
EXTRN	??_Eexception@std@@UAEPAXI@Z:PROC		; std::exception::`vector deleting destructor'
EXTRN	??_Ebad_alloc@std@@UAEPAXI@Z:PROC		; std::bad_alloc::`vector deleting destructor'
EXTRN	??_Ebad_array_new_length@std@@UAEPAXI@Z:PROC	; std::bad_array_new_length::`vector deleting destructor'
EXTRN	?_Xlength_error@std@@YAXPBD@Z:PROC		; std::_Xlength_error
EXTRN	_D3DXVec3Transform@12:PROC
EXTRN	_D3DXVec3TransformCoord@12:PROC
EXTRN	_D3DXMatrixMultiply@12:PROC
EXTRN	?GetBackBufferSize@CGraphicBase@@SAXPAI0@Z:PROC	; CGraphicBase::GetBackBufferSize
EXTRN	?IsTLVertexClipping@CGraphicBase@@SA_NXZ:PROC	; CGraphicBase::IsTLVertexClipping
EXTRN	?IsFastTNL@CGraphicBase@@SA_NXZ:PROC		; CGraphicBase::IsFastTNL
EXTRN	?GetFogNearDistance@SEnvironmentData@@QBEMXZ:PROC ; SEnvironmentData::GetFogNearDistance
EXTRN	?GetFogFarDistance@SEnvironmentData@@QBEMXZ:PROC ; SEnvironmentData::GetFogFarDistance
EXTRN	?GetTextureCount@CTextureSet@@QAEKXZ:PROC	; CTextureSet::GetTextureCount
EXTRN	?GetTexture@CTextureSet@@QAEAAUSTerrainTexture@@K@Z:PROC ; CTextureSet::GetTexture
EXTRN	?IsIn@CTerrainPatchProxy@@QAE_NABUD3DXVECTOR3@@M@Z:PROC ; CTerrainPatchProxy::IsIn
EXTRN	?SoftwareTransformPatch_GetTerrainVertexDataPtr@CTerrainPatchProxy@@QAEPAUSoftwareTransformPatch_SSourceVertex@@XZ:PROC ; CTerrainPatchProxy::SoftwareTransformPatch_GetTerrainVertexDataPtr
EXTRN	?SoftwareTransformPatch_UpdateTerrainLighting@CTerrainPatchProxy@@QAEXKABU_D3DLIGHT8@@ABU_D3DMATERIAL8@@@Z:PROC ; CTerrainPatchProxy::SoftwareTransformPatch_UpdateTerrainLighting
EXTRN	?GetTerrainPointer@CMapOutdoor@@QAEHEPAPAVCTerrain@@@Z:PROC ; CMapOutdoor::GetTerrainPointer
EXTRN	?SelectIndexBuffer@CMapOutdoor@@IAEXEPAGPAW4_D3DPRIMITIVETYPE@@@Z:PROC ; CMapOutdoor::SelectIndexBuffer
EXTRN	?__GetNoFogDistance@CMapOutdoor@@IAEMXZ:PROC	; CMapOutdoor::__GetNoFogDistance
EXTRN	?__GetFogDistance@CMapOutdoor@@IAEMXZ:PROC	; CMapOutdoor::__GetFogDistance
EXTRN	?GetMaterial@CStateManager@@QAEXPAU_D3DMATERIAL8@@@Z:PROC ; CStateManager::GetMaterial
EXTRN	?GetLight@CStateManager@@QAEXKPAU_D3DLIGHT8@@@Z:PROC ; CStateManager::GetLight
EXTRN	?SaveRenderState@CStateManager@@QAEXW4_D3DRENDERSTATETYPE@@K@Z:PROC ; CStateManager::SaveRenderState
EXTRN	?RestoreRenderState@CStateManager@@QAEXW4_D3DRENDERSTATETYPE@@@Z:PROC ; CStateManager::RestoreRenderState
EXTRN	?SetRenderState@CStateManager@@QAEXW4_D3DRENDERSTATETYPE@@K@Z:PROC ; CStateManager::SetRenderState
EXTRN	?SetTexture@CStateManager@@QAEXKPAUIDirect3DBaseTexture8@@@Z:PROC ; CStateManager::SetTexture
EXTRN	?SetTextureStageState@CStateManager@@QAEXKW4_D3DTEXTURESTAGESTATETYPE@@K@Z:PROC ; CStateManager::SetTextureStageState
EXTRN	?SetBestFiltering@CStateManager@@QAEXK@Z:PROC	; CStateManager::SetBestFiltering
EXTRN	?SetVertexShader@CStateManager@@QAEXK@Z:PROC	; CStateManager::SetVertexShader
EXTRN	?SetTransform@CStateManager@@QAEXW4_D3DTRANSFORMSTATETYPE@@PBU_D3DMATRIX@@@Z:PROC ; CStateManager::SetTransform
EXTRN	?GetTransform@CStateManager@@QAEXW4_D3DTRANSFORMSTATETYPE@@PAU_D3DMATRIX@@@Z:PROC ; CStateManager::GetTransform
EXTRN	?SetStreamSource@CStateManager@@QAEXIPAUIDirect3DVertexBuffer8@@I@Z:PROC ; CStateManager::SetStreamSource
EXTRN	?DrawIndexedPrimitive@CStateManager@@QAEJW4_D3DPRIMITIVETYPE@@IIII@Z:PROC ; CStateManager::DrawIndexedPrimitive
EXTRN	?GetRenderState@CStateManager@@QAEKW4_D3DRENDERSTATETYPE@@@Z:PROC ; CStateManager::GetRenderState
EXTRN	@__security_check_cookie@4:PROC
EXTRN	__CxxThrowException@8:PROC
EXTRN	___CxxFrameHandler3:PROC
EXTRN	__chkstk:PROC
EXTRN	__ftoui3:PROC
EXTRN	??_7type_info@@6B@:QWORD			; type_info::`vftable'
EXTRN	?ms_lpd3dDevice@CGraphicBase@@1PAUIDirect3DDevice8@@A:DWORD ; CGraphicBase::ms_lpd3dDevice
EXTRN	?ms_faceCount@CGraphicBase@@1KA:DWORD		; CGraphicBase::ms_faceCount
EXTRN	?ms_bSelfShadowOn@CSpeedTreeWrapper@@2_NA:BYTE	; CSpeedTreeWrapper::ms_bSelfShadowOn
EXTRN	?ms_pTextureSet@CTerrainImpl@@1PAVCTextureSet@@A:DWORD ; CTerrainImpl::ms_pTextureSet
EXTRN	___security_cookie:DWORD
EXTRN	__fltused:DWORD
;	COMDAT ?ms_singleton@?$CSingleton@VCStateManager@@@@0PAVCStateManager@@A
_BSS	SEGMENT
?ms_singleton@?$CSingleton@VCStateManager@@@@0PAVCStateManager@@A DD 01H DUP (?) ; CSingleton<CStateManager>::ms_singleton
_BSS	ENDS
;	COMDAT __xmm@80000000800000008000000080000000
CONST	SEGMENT
__xmm@80000000800000008000000080000000 DB 00H, 00H, 00H, 080H, 00H, 00H, 00H
	DB	080H, 00H, 00H, 00H, 080H, 00H, 00H, 00H, 080H
CONST	ENDS
;	COMDAT __xmm@41f00000000000000000000000000000
CONST	SEGMENT
__xmm@41f00000000000000000000000000000 DB 00H, 00H, 00H, 00H, 00H, 00H, 00H
	DB	00H, 00H, 00H, 00H, 00H, 00H, 00H, 0f0H, 'A'
CONST	ENDS
;	COMDAT __real@bacccccd
CONST	SEGMENT
__real@bacccccd DD 0bacccccdr			; -0.0015625
CONST	ENDS
;	COMDAT __real@461c4000
CONST	SEGMENT
__real@461c4000 DD 0461c4000r			; 10000
CONST	ENDS
;	COMDAT __real@459c4000
CONST	SEGMENT
__real@459c4000 DD 0459c4000r			; 5000
CONST	ENDS
;	COMDAT __real@45480000
CONST	SEGMENT
__real@45480000 DD 045480000r			; 3200
CONST	ENDS
;	COMDAT __real@453b8000
CONST	SEGMENT
__real@453b8000 DD 0453b8000r			; 3000
CONST	ENDS
;	COMDAT __real@44480000
CONST	SEGMENT
__real@44480000 DD 044480000r			; 800
CONST	ENDS
;	COMDAT __real@437f0000
CONST	SEGMENT
__real@437f0000 DD 0437f0000r			; 255
CONST	ENDS
;	COMDAT __real@4144ec4c
CONST	SEGMENT
__real@4144ec4c DD 04144ec4cr			; 12.3077
CONST	ENDS
;	COMDAT __real@40000000
CONST	SEGMENT
__real@40000000 DD 040000000r			; 2
CONST	ENDS
;	COMDAT __real@3f800000
CONST	SEGMENT
__real@3f800000 DD 03f800000r			; 1
CONST	ENDS
;	COMDAT __real@3f000000
CONST	SEGMENT
__real@3f000000 DD 03f000000r			; 0.5
CONST	ENDS
;	COMDAT __real@3e000000
CONST	SEGMENT
__real@3e000000 DD 03e000000r			; 0.125
CONST	ENDS
;	COMDAT __real@3acccccd
CONST	SEGMENT
__real@3acccccd DD 03acccccdr			; 0.0015625
CONST	ENDS
;	COMDAT ??_C@_0BA@FOIKENOD@vector?5too?5long@
CONST	SEGMENT
??_C@_0BA@FOIKENOD@vector?5too?5long@ DB 'vector too long', 00H ; `string'
CONST	ENDS
;	COMDAT ??_R1A@?0A@EA@bad_array_new_length@std@@8
rdata$r	SEGMENT
??_R1A@?0A@EA@bad_array_new_length@std@@8 DD FLAT:??_R0?AVbad_array_new_length@std@@@8 ; std::bad_array_new_length::`RTTI Base Class Descriptor at (0,-1,0,64)'
	DD	02H
	DD	00H
	DD	0ffffffffH
	DD	00H
	DD	040H
	DD	FLAT:??_R3bad_array_new_length@std@@8
rdata$r	ENDS
;	COMDAT ??_R2bad_array_new_length@std@@8
rdata$r	SEGMENT
??_R2bad_array_new_length@std@@8 DD FLAT:??_R1A@?0A@EA@bad_array_new_length@std@@8 ; std::bad_array_new_length::`RTTI Base Class Array'
	DD	FLAT:??_R1A@?0A@EA@bad_alloc@std@@8
	DD	FLAT:??_R1A@?0A@EA@exception@std@@8
rdata$r	ENDS
;	COMDAT ??_R3bad_array_new_length@std@@8
rdata$r	SEGMENT
??_R3bad_array_new_length@std@@8 DD 00H			; std::bad_array_new_length::`RTTI Class Hierarchy Descriptor'
	DD	00H
	DD	03H
	DD	FLAT:??_R2bad_array_new_length@std@@8
rdata$r	ENDS
;	COMDAT ??_R4bad_array_new_length@std@@6B@
rdata$r	SEGMENT
??_R4bad_array_new_length@std@@6B@ DD 00H		; std::bad_array_new_length::`RTTI Complete Object Locator'
	DD	00H
	DD	00H
	DD	FLAT:??_R0?AVbad_array_new_length@std@@@8
	DD	FLAT:??_R3bad_array_new_length@std@@8
rdata$r	ENDS
;	COMDAT ??_R1A@?0A@EA@bad_alloc@std@@8
rdata$r	SEGMENT
??_R1A@?0A@EA@bad_alloc@std@@8 DD FLAT:??_R0?AVbad_alloc@std@@@8 ; std::bad_alloc::`RTTI Base Class Descriptor at (0,-1,0,64)'
	DD	01H
	DD	00H
	DD	0ffffffffH
	DD	00H
	DD	040H
	DD	FLAT:??_R3bad_alloc@std@@8
rdata$r	ENDS
;	COMDAT ??_R2bad_alloc@std@@8
rdata$r	SEGMENT
??_R2bad_alloc@std@@8 DD FLAT:??_R1A@?0A@EA@bad_alloc@std@@8 ; std::bad_alloc::`RTTI Base Class Array'
	DD	FLAT:??_R1A@?0A@EA@exception@std@@8
rdata$r	ENDS
;	COMDAT ??_R3bad_alloc@std@@8
rdata$r	SEGMENT
??_R3bad_alloc@std@@8 DD 00H				; std::bad_alloc::`RTTI Class Hierarchy Descriptor'
	DD	00H
	DD	02H
	DD	FLAT:??_R2bad_alloc@std@@8
rdata$r	ENDS
;	COMDAT ??_R4bad_alloc@std@@6B@
rdata$r	SEGMENT
??_R4bad_alloc@std@@6B@ DD 00H				; std::bad_alloc::`RTTI Complete Object Locator'
	DD	00H
	DD	00H
	DD	FLAT:??_R0?AVbad_alloc@std@@@8
	DD	FLAT:??_R3bad_alloc@std@@8
rdata$r	ENDS
;	COMDAT ??_R1A@?0A@EA@exception@std@@8
rdata$r	SEGMENT
??_R1A@?0A@EA@exception@std@@8 DD FLAT:??_R0?AVexception@std@@@8 ; std::exception::`RTTI Base Class Descriptor at (0,-1,0,64)'
	DD	00H
	DD	00H
	DD	0ffffffffH
	DD	00H
	DD	040H
	DD	FLAT:??_R3exception@std@@8
rdata$r	ENDS
;	COMDAT ??_R2exception@std@@8
rdata$r	SEGMENT
??_R2exception@std@@8 DD FLAT:??_R1A@?0A@EA@exception@std@@8 ; std::exception::`RTTI Base Class Array'
rdata$r	ENDS
;	COMDAT ??_R3exception@std@@8
rdata$r	SEGMENT
??_R3exception@std@@8 DD 00H				; std::exception::`RTTI Class Hierarchy Descriptor'
	DD	00H
	DD	01H
	DD	FLAT:??_R2exception@std@@8
rdata$r	ENDS
;	COMDAT ??_R4exception@std@@6B@
rdata$r	SEGMENT
??_R4exception@std@@6B@ DD 00H				; std::exception::`RTTI Complete Object Locator'
	DD	00H
	DD	00H
	DD	FLAT:??_R0?AVexception@std@@@8
	DD	FLAT:??_R3exception@std@@8
rdata$r	ENDS
;	COMDAT __CT??_R0?AVexception@std@@@8??0exception@std@@QAE@ABV01@@Z12
xdata$x	SEGMENT
__CT??_R0?AVexception@std@@@8??0exception@std@@QAE@ABV01@@Z12 DD 00H
	DD	FLAT:??_R0?AVexception@std@@@8
	DD	00H
	DD	0ffffffffH
	ORG $+4
	DD	0cH
	DD	FLAT:??0exception@std@@QAE@ABV01@@Z
xdata$x	ENDS
;	COMDAT ??_R0?AVexception@std@@@8
data$r	SEGMENT
??_R0?AVexception@std@@@8 DD FLAT:??_7type_info@@6B@	; std::exception `RTTI Type Descriptor'
	DD	00H
	DB	'.?AVexception@std@@', 00H
data$r	ENDS
;	COMDAT __CT??_R0?AVbad_alloc@std@@@8??0bad_alloc@std@@QAE@ABV01@@Z12
xdata$x	SEGMENT
__CT??_R0?AVbad_alloc@std@@@8??0bad_alloc@std@@QAE@ABV01@@Z12 DD 010H
	DD	FLAT:??_R0?AVbad_alloc@std@@@8
	DD	00H
	DD	0ffffffffH
	ORG $+4
	DD	0cH
	DD	FLAT:??0bad_alloc@std@@QAE@ABV01@@Z
xdata$x	ENDS
;	COMDAT ??_R0?AVbad_alloc@std@@@8
data$r	SEGMENT
??_R0?AVbad_alloc@std@@@8 DD FLAT:??_7type_info@@6B@	; std::bad_alloc `RTTI Type Descriptor'
	DD	00H
	DB	'.?AVbad_alloc@std@@', 00H
data$r	ENDS
;	COMDAT __CT??_R0?AVbad_array_new_length@std@@@8??0bad_array_new_length@std@@QAE@ABV01@@Z12
xdata$x	SEGMENT
__CT??_R0?AVbad_array_new_length@std@@@8??0bad_array_new_length@std@@QAE@ABV01@@Z12 DD 00H
	DD	FLAT:??_R0?AVbad_array_new_length@std@@@8
	DD	00H
	DD	0ffffffffH
	ORG $+4
	DD	0cH
	DD	FLAT:??0bad_array_new_length@std@@QAE@ABV01@@Z
xdata$x	ENDS
;	COMDAT ??_R0?AVbad_array_new_length@std@@@8
data$r	SEGMENT
??_R0?AVbad_array_new_length@std@@@8 DD FLAT:??_7type_info@@6B@ ; std::bad_array_new_length `RTTI Type Descriptor'
	DD	00H
	DB	'.?AVbad_array_new_length@std@@', 00H
data$r	ENDS
;	COMDAT __CTA3?AVbad_array_new_length@std@@
xdata$x	SEGMENT
__CTA3?AVbad_array_new_length@std@@ DD 03H
	DD	FLAT:__CT??_R0?AVbad_array_new_length@std@@@8??0bad_array_new_length@std@@QAE@ABV01@@Z12
	DD	FLAT:__CT??_R0?AVbad_alloc@std@@@8??0bad_alloc@std@@QAE@ABV01@@Z12
	DD	FLAT:__CT??_R0?AVexception@std@@@8??0exception@std@@QAE@ABV01@@Z12
xdata$x	ENDS
;	COMDAT __TI3?AVbad_array_new_length@std@@
xdata$x	SEGMENT
__TI3?AVbad_array_new_length@std@@ DD 00H
	DD	FLAT:??1bad_array_new_length@std@@UAE@XZ
	DD	00H
	DD	FLAT:__CTA3?AVbad_array_new_length@std@@
xdata$x	ENDS
;	COMDAT ??_C@_0BF@KINCDENJ@bad?5array?5new?5length@
CONST	SEGMENT
??_C@_0BF@KINCDENJ@bad?5array?5new?5length@ DB 'bad array new length', 00H ; `string'
CONST	ENDS
;	COMDAT ??_7bad_array_new_length@std@@6B@
CONST	SEGMENT
??_7bad_array_new_length@std@@6B@ DD FLAT:??_R4bad_array_new_length@std@@6B@ ; std::bad_array_new_length::`vftable'
	DD	FLAT:??_Ebad_array_new_length@std@@UAEPAXI@Z
	DD	FLAT:?what@exception@std@@UBEPBDXZ
CONST	ENDS
;	COMDAT ??_7bad_alloc@std@@6B@
CONST	SEGMENT
??_7bad_alloc@std@@6B@ DD FLAT:??_R4bad_alloc@std@@6B@	; std::bad_alloc::`vftable'
	DD	FLAT:??_Ebad_alloc@std@@UAEPAXI@Z
	DD	FLAT:?what@exception@std@@UBEPBDXZ
CONST	ENDS
;	COMDAT ??_C@_0BC@EOODALEL@Unknown?5exception@
CONST	SEGMENT
??_C@_0BC@EOODALEL@Unknown?5exception@ DB 'Unknown exception', 00H ; `string'
CONST	ENDS
;	COMDAT ??_7exception@std@@6B@
CONST	SEGMENT
??_7exception@std@@6B@ DD FLAT:??_R4exception@std@@6B@	; std::exception::`vftable'
	DD	FLAT:??_Eexception@std@@UAEPAXI@Z
	DD	FLAT:?what@exception@std@@UBEPBDXZ
CONST	ENDS
;	COMDAT xdata$x
xdata$x	SEGMENT
__catchsym$??$_Emplace_reallocate@ABH@?$vector@HV?$allocator@H@std@@@std@@QAEPAHQAHABH@Z$32 DD 040H
	DD	00H
	DD	00H
	DD	FLAT:__catch$??$_Emplace_reallocate@ABH@?$vector@HV?$allocator@H@std@@@std@@QAEPAHQAHABH@Z$0
__unwindtable$??$_Emplace_reallocate@ABH@?$vector@HV?$allocator@H@std@@@std@@QAEPAHQAHABH@Z DD 0ffffffffH
	DD	00H
	DD	0ffffffffH
	DD	00H
__tryblocktable$??$_Emplace_reallocate@ABH@?$vector@HV?$allocator@H@std@@@std@@QAEPAHQAHABH@Z DD 00H
	DD	00H
	DD	01H
	DD	01H
	DD	FLAT:__catchsym$??$_Emplace_reallocate@ABH@?$vector@HV?$allocator@H@std@@@std@@QAEPAHQAHABH@Z$32
__ehfuncinfo$??$_Emplace_reallocate@ABH@?$vector@HV?$allocator@H@std@@@std@@QAEPAHQAHABH@Z DD 019930522H
	DD	02H
	DD	FLAT:__unwindtable$??$_Emplace_reallocate@ABH@?$vector@HV?$allocator@H@std@@@std@@QAEPAHQAHABH@Z
	DD	01H
	DD	FLAT:__tryblocktable$??$_Emplace_reallocate@ABH@?$vector@HV?$allocator@H@std@@@std@@QAEPAHQAHABH@Z
	DD	2 DUP(00H)
	DD	00H
	DD	01H
xdata$x	ENDS
;	COMDAT xdata$x
xdata$x	SEGMENT
__ehfuncinfo$??$_Deallocate@$07$0A@@std@@YAXPAXI@Z DD 019930522H
	DD	00H
	DD	00H
	DD	2 DUP(00H)
	DD	2 DUP(00H)
	DD	00H
	DD	05H
xdata$x	ENDS
; Function compile flags: /Odspy
; File C:\Program Files (x86)\Microsoft Visual Studio\2019\Community\VC\Tools\MSVC\14.28.29333\include\algorithm
; File C:\Program Files (x86)\Microsoft Visual Studio\2019\Community\VC\Tools\MSVC\14.28.29333\include\xstddef
; File C:\Program Files (x86)\Microsoft Visual Studio\2019\Community\VC\Tools\MSVC\14.28.29333\include\algorithm
; File C:\Program Files (x86)\Microsoft Visual Studio\2019\Community\VC\Tools\MSVC\14.28.29333\include\type_traits
; File C:\Program Files (x86)\Microsoft Visual Studio\2019\Community\VC\Tools\MSVC\14.28.29333\include\utility
; File C:\Program Files (x86)\Microsoft Visual Studio\2019\Community\VC\Tools\MSVC\14.28.29333\include\type_traits
; File C:\Program Files (x86)\Microsoft Visual Studio\2019\Community\VC\Tools\MSVC\14.28.29333\include\utility
; File C:\Program Files (x86)\Microsoft Visual Studio\2019\Community\VC\Tools\MSVC\14.28.29333\include\type_traits
; File C:\Program Files (x86)\Microsoft Visual Studio\2019\Community\VC\Tools\MSVC\14.28.29333\include\utility
; File C:\Program Files (x86)\Microsoft Visual Studio\2019\Community\VC\Tools\MSVC\14.28.29333\include\xstddef
; File C:\Program Files (x86)\Microsoft Visual Studio\2019\Community\VC\Tools\MSVC\14.28.29333\include\algorithm
; File C:\Program Files (x86)\Microsoft Visual Studio\2019\Community\VC\Tools\MSVC\14.28.29333\include\type_traits
; File C:\Program Files (x86)\Microsoft Visual Studio\2019\Community\VC\Tools\MSVC\14.28.29333\include\utility
; File C:\Program Files (x86)\Microsoft Visual Studio\2019\Community\VC\Tools\MSVC\14.28.29333\include\type_traits
; File C:\Program Files (x86)\Microsoft Visual Studio\2019\Community\VC\Tools\MSVC\14.28.29333\include\utility
; File C:\Program Files (x86)\Microsoft Visual Studio\2019\Community\VC\Tools\MSVC\14.28.29333\include\type_traits
; File C:\Program Files (x86)\Microsoft Visual Studio\2019\Community\VC\Tools\MSVC\14.28.29333\include\utility
; File C:\Program Files (x86)\Microsoft Visual Studio\2019\Community\VC\Tools\MSVC\14.28.29333\include\xstddef
; File C:\Program Files (x86)\Microsoft Visual Studio\2019\Community\VC\Tools\MSVC\14.28.29333\include\algorithm
; File C:\Program Files (x86)\Microsoft Visual Studio\2019\Community\VC\Tools\MSVC\14.28.29333\include\type_traits
; File C:\Program Files (x86)\Microsoft Visual Studio\2019\Community\VC\Tools\MSVC\14.28.29333\include\utility
; File C:\Program Files (x86)\Microsoft Visual Studio\2019\Community\VC\Tools\MSVC\14.28.29333\include\type_traits
; File C:\Program Files (x86)\Microsoft Visual Studio\2019\Community\VC\Tools\MSVC\14.28.29333\include\utility
; File C:\Program Files (x86)\Microsoft Visual Studio\2019\Community\VC\Tools\MSVC\14.28.29333\include\type_traits
; File C:\Program Files (x86)\Microsoft Visual Studio\2019\Community\VC\Tools\MSVC\14.28.29333\include\utility
; File C:\Program Files (x86)\Microsoft Visual Studio\2019\Community\VC\Tools\MSVC\14.28.29333\include\algorithm
;	COMDAT ??$_Med3_unchecked@PAHU?$less@X@std@@@std@@YAXPAH00U?$less@X@0@@Z
_TEXT	SEGMENT
$T1 = -64						; size = 4
__Tmp$2 = -60						; size = 4
$T3 = -56						; size = 4
$T4 = -52						; size = 4
$T5 = -48						; size = 4
__Tmp$6 = -44						; size = 4
$T7 = -40						; size = 4
$T8 = -36						; size = 4
$T9 = -32						; size = 4
__Tmp$10 = -28						; size = 4
$T11 = -24						; size = 4
$T12 = -20						; size = 4
tv79 = -16						; size = 4
tv71 = -12						; size = 4
tv89 = -8						; size = 4
$T13 = -3						; size = 1
$T14 = -2						; size = 1
$T15 = -1						; size = 1
__First$ = 8						; size = 4
__Mid$ = 12						; size = 4
__Last$ = 16						; size = 4
__Pred$ = 20						; size = 1
??$_Med3_unchecked@PAHU?$less@X@std@@@std@@YAXPAH00U?$less@X@0@@Z PROC ; std::_Med3_unchecked<int *,std::less<void> >, COMDAT

; 7434 : _CONSTEXPR20 void _Med3_unchecked(_RanIt _First, _RanIt _Mid, _RanIt _Last, _Pr _Pred) {

  00000	55		 push	 ebp
  00001	8b ec		 mov	 ebp, esp
  00003	83 ec 40	 sub	 esp, 64			; 00000040H
; File C:\Program Files (x86)\Microsoft Visual Studio\2019\Community\VC\Tools\MSVC\14.28.29333\include\xstddef

; 240  :         return static_cast<_Ty1&&>(_Left) < static_cast<_Ty2&&>(_Right);

  00006	8b 45 0c	 mov	 eax, DWORD PTR __Mid$[ebp]
  00009	8b 4d 08	 mov	 ecx, DWORD PTR __First$[ebp]
  0000c	8b 00		 mov	 eax, DWORD PTR [eax]
  0000e	3b 01		 cmp	 eax, DWORD PTR [ecx]
  00010	7d 09		 jge	 SHORT $LN8@Med3_unche
  00012	c7 45 f8 01 00
	00 00		 mov	 DWORD PTR tv89[ebp], 1
  00019	eb 04		 jmp	 SHORT $LN9@Med3_unche
$LN8@Med3_unche:
  0001b	83 65 f8 00	 and	 DWORD PTR tv89[ebp], 0
$LN9@Med3_unche:
  0001f	8a 45 f8	 mov	 al, BYTE PTR tv89[ebp]
  00022	88 45 ff	 mov	 BYTE PTR $T15[ebp], al
; File C:\Program Files (x86)\Microsoft Visual Studio\2019\Community\VC\Tools\MSVC\14.28.29333\include\algorithm

; 7436 :     if (_DEBUG_LT_PRED(_Pred, *_Mid, *_First)) {

  00025	0f b6 45 ff	 movzx	 eax, BYTE PTR $T15[ebp]
  00029	85 c0		 test	 eax, eax
  0002b	74 2e		 je	 SHORT $LN2@Med3_unche
; File C:\Program Files (x86)\Microsoft Visual Studio\2019\Community\VC\Tools\MSVC\14.28.29333\include\type_traits

; 1455 :     return static_cast<remove_reference_t<_Ty>&&>(_Arg);

  0002d	8b 45 0c	 mov	 eax, DWORD PTR __Mid$[ebp]
  00030	89 45 ec	 mov	 DWORD PTR $T12[ebp], eax
; File C:\Program Files (x86)\Microsoft Visual Studio\2019\Community\VC\Tools\MSVC\14.28.29333\include\utility

; 104  :     _Ty _Tmp = _STD move(_Left);

  00033	8b 45 ec	 mov	 eax, DWORD PTR $T12[ebp]
  00036	8b 00		 mov	 eax, DWORD PTR [eax]
  00038	89 45 e4	 mov	 DWORD PTR __Tmp$10[ebp], eax
; File C:\Program Files (x86)\Microsoft Visual Studio\2019\Community\VC\Tools\MSVC\14.28.29333\include\type_traits

; 1455 :     return static_cast<remove_reference_t<_Ty>&&>(_Arg);

  0003b	8b 45 08	 mov	 eax, DWORD PTR __First$[ebp]
  0003e	89 45 e8	 mov	 DWORD PTR $T11[ebp], eax
; File C:\Program Files (x86)\Microsoft Visual Studio\2019\Community\VC\Tools\MSVC\14.28.29333\include\utility

; 105  :     _Left    = _STD move(_Right);

  00041	8b 45 0c	 mov	 eax, DWORD PTR __Mid$[ebp]
  00044	8b 4d e8	 mov	 ecx, DWORD PTR $T11[ebp]
  00047	8b 09		 mov	 ecx, DWORD PTR [ecx]
  00049	89 08		 mov	 DWORD PTR [eax], ecx
; File C:\Program Files (x86)\Microsoft Visual Studio\2019\Community\VC\Tools\MSVC\14.28.29333\include\type_traits

; 1455 :     return static_cast<remove_reference_t<_Ty>&&>(_Arg);

  0004b	8d 45 e4	 lea	 eax, DWORD PTR __Tmp$10[ebp]
  0004e	89 45 e0	 mov	 DWORD PTR $T9[ebp], eax
; File C:\Program Files (x86)\Microsoft Visual Studio\2019\Community\VC\Tools\MSVC\14.28.29333\include\utility

; 106  :     _Right   = _STD move(_Tmp);

  00051	8b 45 08	 mov	 eax, DWORD PTR __First$[ebp]
  00054	8b 4d e0	 mov	 ecx, DWORD PTR $T9[ebp]
  00057	8b 09		 mov	 ecx, DWORD PTR [ecx]
  00059	89 08		 mov	 DWORD PTR [eax], ecx
$LN2@Med3_unche:
; File C:\Program Files (x86)\Microsoft Visual Studio\2019\Community\VC\Tools\MSVC\14.28.29333\include\xstddef

; 240  :         return static_cast<_Ty1&&>(_Left) < static_cast<_Ty2&&>(_Right);

  0005b	8b 45 10	 mov	 eax, DWORD PTR __Last$[ebp]
  0005e	8b 4d 0c	 mov	 ecx, DWORD PTR __Mid$[ebp]
  00061	8b 00		 mov	 eax, DWORD PTR [eax]
  00063	3b 01		 cmp	 eax, DWORD PTR [ecx]
  00065	7d 09		 jge	 SHORT $LN27@Med3_unche
  00067	c7 45 f4 01 00
	00 00		 mov	 DWORD PTR tv71[ebp], 1
  0006e	eb 04		 jmp	 SHORT $LN28@Med3_unche
$LN27@Med3_unche:
  00070	83 65 f4 00	 and	 DWORD PTR tv71[ebp], 0
$LN28@Med3_unche:
  00074	8a 45 f4	 mov	 al, BYTE PTR tv71[ebp]
  00077	88 45 fe	 mov	 BYTE PTR $T14[ebp], al
; File C:\Program Files (x86)\Microsoft Visual Studio\2019\Community\VC\Tools\MSVC\14.28.29333\include\algorithm

; 7440 :     if (_DEBUG_LT_PRED(_Pred, *_Last, *_Mid)) { // swap middle and last, then test first again

  0007a	0f b6 45 fe	 movzx	 eax, BYTE PTR $T14[ebp]
  0007e	85 c0		 test	 eax, eax
  00080	0f 84 83 00 00
	00		 je	 $LN1@Med3_unche
; File C:\Program Files (x86)\Microsoft Visual Studio\2019\Community\VC\Tools\MSVC\14.28.29333\include\type_traits

; 1455 :     return static_cast<remove_reference_t<_Ty>&&>(_Arg);

  00086	8b 45 10	 mov	 eax, DWORD PTR __Last$[ebp]
  00089	89 45 dc	 mov	 DWORD PTR $T8[ebp], eax
; File C:\Program Files (x86)\Microsoft Visual Studio\2019\Community\VC\Tools\MSVC\14.28.29333\include\utility

; 104  :     _Ty _Tmp = _STD move(_Left);

  0008c	8b 45 dc	 mov	 eax, DWORD PTR $T8[ebp]
  0008f	8b 00		 mov	 eax, DWORD PTR [eax]
  00091	89 45 d4	 mov	 DWORD PTR __Tmp$6[ebp], eax
; File C:\Program Files (x86)\Microsoft Visual Studio\2019\Community\VC\Tools\MSVC\14.28.29333\include\type_traits

; 1455 :     return static_cast<remove_reference_t<_Ty>&&>(_Arg);

  00094	8b 45 0c	 mov	 eax, DWORD PTR __Mid$[ebp]
  00097	89 45 d8	 mov	 DWORD PTR $T7[ebp], eax
; File C:\Program Files (x86)\Microsoft Visual Studio\2019\Community\VC\Tools\MSVC\14.28.29333\include\utility

; 105  :     _Left    = _STD move(_Right);

  0009a	8b 45 10	 mov	 eax, DWORD PTR __Last$[ebp]
  0009d	8b 4d d8	 mov	 ecx, DWORD PTR $T7[ebp]
  000a0	8b 09		 mov	 ecx, DWORD PTR [ecx]
  000a2	89 08		 mov	 DWORD PTR [eax], ecx
; File C:\Program Files (x86)\Microsoft Visual Studio\2019\Community\VC\Tools\MSVC\14.28.29333\include\type_traits

; 1455 :     return static_cast<remove_reference_t<_Ty>&&>(_Arg);

  000a4	8d 45 d4	 lea	 eax, DWORD PTR __Tmp$6[ebp]
  000a7	89 45 d0	 mov	 DWORD PTR $T5[ebp], eax
; File C:\Program Files (x86)\Microsoft Visual Studio\2019\Community\VC\Tools\MSVC\14.28.29333\include\utility

; 106  :     _Right   = _STD move(_Tmp);

  000aa	8b 45 0c	 mov	 eax, DWORD PTR __Mid$[ebp]
  000ad	8b 4d d0	 mov	 ecx, DWORD PTR $T5[ebp]
  000b0	8b 09		 mov	 ecx, DWORD PTR [ecx]
  000b2	89 08		 mov	 DWORD PTR [eax], ecx
; File C:\Program Files (x86)\Microsoft Visual Studio\2019\Community\VC\Tools\MSVC\14.28.29333\include\xstddef

; 240  :         return static_cast<_Ty1&&>(_Left) < static_cast<_Ty2&&>(_Right);

  000b4	8b 45 0c	 mov	 eax, DWORD PTR __Mid$[ebp]
  000b7	8b 4d 08	 mov	 ecx, DWORD PTR __First$[ebp]
  000ba	8b 00		 mov	 eax, DWORD PTR [eax]
  000bc	3b 01		 cmp	 eax, DWORD PTR [ecx]
  000be	7d 09		 jge	 SHORT $LN46@Med3_unche
  000c0	c7 45 f0 01 00
	00 00		 mov	 DWORD PTR tv79[ebp], 1
  000c7	eb 04		 jmp	 SHORT $LN47@Med3_unche
$LN46@Med3_unche:
  000c9	83 65 f0 00	 and	 DWORD PTR tv79[ebp], 0
$LN47@Med3_unche:
  000cd	8a 45 f0	 mov	 al, BYTE PTR tv79[ebp]
  000d0	88 45 fd	 mov	 BYTE PTR $T13[ebp], al
; File C:\Program Files (x86)\Microsoft Visual Studio\2019\Community\VC\Tools\MSVC\14.28.29333\include\algorithm

; 7443 :         if (_DEBUG_LT_PRED(_Pred, *_Mid, *_First)) {

  000d3	0f b6 45 fd	 movzx	 eax, BYTE PTR $T13[ebp]
  000d7	85 c0		 test	 eax, eax
  000d9	74 2e		 je	 SHORT $LN1@Med3_unche
; File C:\Program Files (x86)\Microsoft Visual Studio\2019\Community\VC\Tools\MSVC\14.28.29333\include\type_traits

; 1455 :     return static_cast<remove_reference_t<_Ty>&&>(_Arg);

  000db	8b 45 0c	 mov	 eax, DWORD PTR __Mid$[ebp]
  000de	89 45 cc	 mov	 DWORD PTR $T4[ebp], eax
; File C:\Program Files (x86)\Microsoft Visual Studio\2019\Community\VC\Tools\MSVC\14.28.29333\include\utility

; 104  :     _Ty _Tmp = _STD move(_Left);

  000e1	8b 45 cc	 mov	 eax, DWORD PTR $T4[ebp]
  000e4	8b 00		 mov	 eax, DWORD PTR [eax]
  000e6	89 45 c4	 mov	 DWORD PTR __Tmp$2[ebp], eax
; File C:\Program Files (x86)\Microsoft Visual Studio\2019\Community\VC\Tools\MSVC\14.28.29333\include\type_traits

; 1455 :     return static_cast<remove_reference_t<_Ty>&&>(_Arg);

  000e9	8b 45 08	 mov	 eax, DWORD PTR __First$[ebp]
  000ec	89 45 c8	 mov	 DWORD PTR $T3[ebp], eax
; File C:\Program Files (x86)\Microsoft Visual Studio\2019\Community\VC\Tools\MSVC\14.28.29333\include\utility

; 105  :     _Left    = _STD move(_Right);

  000ef	8b 45 0c	 mov	 eax, DWORD PTR __Mid$[ebp]
  000f2	8b 4d c8	 mov	 ecx, DWORD PTR $T3[ebp]
  000f5	8b 09		 mov	 ecx, DWORD PTR [ecx]
  000f7	89 08		 mov	 DWORD PTR [eax], ecx
; File C:\Program Files (x86)\Microsoft Visual Studio\2019\Community\VC\Tools\MSVC\14.28.29333\include\type_traits

; 1455 :     return static_cast<remove_reference_t<_Ty>&&>(_Arg);

  000f9	8d 45 c4	 lea	 eax, DWORD PTR __Tmp$2[ebp]
  000fc	89 45 c0	 mov	 DWORD PTR $T1[ebp], eax
; File C:\Program Files (x86)\Microsoft Visual Studio\2019\Community\VC\Tools\MSVC\14.28.29333\include\utility

; 106  :     _Right   = _STD move(_Tmp);

  000ff	8b 45 08	 mov	 eax, DWORD PTR __First$[ebp]
  00102	8b 4d c0	 mov	 ecx, DWORD PTR $T1[ebp]
  00105	8b 09		 mov	 ecx, DWORD PTR [ecx]
  00107	89 08		 mov	 DWORD PTR [eax], ecx
$LN1@Med3_unche:
; File C:\Program Files (x86)\Microsoft Visual Studio\2019\Community\VC\Tools\MSVC\14.28.29333\include\algorithm

; 7447 : }

  00109	c9		 leave
  0010a	c3		 ret	 0
??$_Med3_unchecked@PAHU?$less@X@std@@@std@@YAXPAH00U?$less@X@0@@Z ENDP ; std::_Med3_unchecked<int *,std::less<void> >
_TEXT	ENDS
; Function compile flags: /Odspy
; File C:\Program Files (x86)\Microsoft Visual Studio\2019\Community\VC\Tools\MSVC\14.28.29333\include\xutility
;	COMDAT ??$_Copy_backward_memmove@PAHPAH@std@@YAPAHPAH00@Z
_TEXT	SEGMENT
__Dest_ch$ = -16					; size = 4
__Last_ch$ = -12					; size = 4
__Count$ = -8						; size = 4
__First_ch$ = -4					; size = 4
__First$ = 8						; size = 4
__Last$ = 12						; size = 4
__Dest$ = 16						; size = 4
??$_Copy_backward_memmove@PAHPAH@std@@YAPAHPAH00@Z PROC	; std::_Copy_backward_memmove<int *,int *>, COMDAT

; 4535 : _BidIt2 _Copy_backward_memmove(_BidIt1 _First, _BidIt1 _Last, _BidIt2 _Dest) {

  00000	55		 push	 ebp
  00001	8b ec		 mov	 ebp, esp
  00003	83 ec 10	 sub	 esp, 16			; 00000010H

; 4536 :     // implement copy_backward-like function as memmove
; 4537 :     const char* const _First_ch = const_cast<const char*>(reinterpret_cast<const volatile char*>(_First));

  00006	8b 45 08	 mov	 eax, DWORD PTR __First$[ebp]
  00009	89 45 fc	 mov	 DWORD PTR __First_ch$[ebp], eax

; 4538 :     const char* const _Last_ch  = const_cast<const char*>(reinterpret_cast<const volatile char*>(_Last));

  0000c	8b 45 0c	 mov	 eax, DWORD PTR __Last$[ebp]
  0000f	89 45 f4	 mov	 DWORD PTR __Last_ch$[ebp], eax

; 4539 :     char* const _Dest_ch        = const_cast<char*>(reinterpret_cast<volatile char*>(_Dest));

  00012	8b 45 10	 mov	 eax, DWORD PTR __Dest$[ebp]
  00015	89 45 f0	 mov	 DWORD PTR __Dest_ch$[ebp], eax

; 4540 :     const auto _Count           = static_cast<size_t>(_Last_ch - _First_ch);

  00018	8b 45 f4	 mov	 eax, DWORD PTR __Last_ch$[ebp]
  0001b	2b 45 fc	 sub	 eax, DWORD PTR __First_ch$[ebp]
  0001e	89 45 f8	 mov	 DWORD PTR __Count$[ebp], eax

; 4541 :     return static_cast<_BidIt2>(_CSTD memmove(_Dest_ch - _Count, _First_ch, _Count));

  00021	ff 75 f8	 push	 DWORD PTR __Count$[ebp]
  00024	ff 75 fc	 push	 DWORD PTR __First_ch$[ebp]
  00027	8b 45 f0	 mov	 eax, DWORD PTR __Dest_ch$[ebp]
  0002a	2b 45 f8	 sub	 eax, DWORD PTR __Count$[ebp]
  0002d	50		 push	 eax
  0002e	e8 00 00 00 00	 call	 _memmove
  00033	83 c4 0c	 add	 esp, 12			; 0000000cH

; 4542 : }

  00036	c9		 leave
  00037	c3		 ret	 0
??$_Copy_backward_memmove@PAHPAH@std@@YAPAHPAH00@Z ENDP	; std::_Copy_backward_memmove<int *,int *>
_TEXT	ENDS
; Function compile flags: /Odspy
; File C:\Program Files (x86)\Microsoft Visual Studio\2019\Community\VC\Tools\MSVC\14.28.29333\include\algorithm
;	COMDAT ??$_Guess_median_unchecked@PAHU?$less@X@std@@@std@@YAXPAH00U?$less@X@0@@Z
_TEXT	SEGMENT
__Two_step$1 = -12					; size = 4
__Count$ = -8						; size = 4
__Step$2 = -4						; size = 4
__First$ = 8						; size = 4
__Mid$ = 12						; size = 4
__Last$ = 16						; size = 4
__Pred$ = 20						; size = 1
??$_Guess_median_unchecked@PAHU?$less@X@std@@@std@@YAXPAH00U?$less@X@0@@Z PROC ; std::_Guess_median_unchecked<int *,std::less<void> >, COMDAT

; 7450 : _CONSTEXPR20 void _Guess_median_unchecked(_RanIt _First, _RanIt _Mid, _RanIt _Last, _Pr _Pred) {

  00000	55		 push	 ebp
  00001	8b ec		 mov	 ebp, esp
  00003	83 ec 0c	 sub	 esp, 12			; 0000000cH

; 7451 :     // sort median element to middle
; 7452 :     using _Diff        = _Iter_diff_t<_RanIt>;
; 7453 :     const _Diff _Count = _Last - _First;

  00006	8b 45 10	 mov	 eax, DWORD PTR __Last$[ebp]
  00009	2b 45 08	 sub	 eax, DWORD PTR __First$[ebp]
  0000c	c1 f8 02	 sar	 eax, 2
  0000f	89 45 f8	 mov	 DWORD PTR __Count$[ebp], eax

; 7454 :     if (40 < _Count) { // Tukey's ninther

  00012	83 7d f8 28	 cmp	 DWORD PTR __Count$[ebp], 40 ; 00000028H
  00016	0f 8e a4 00 00
	00		 jle	 $LN2@Guess_medi

; 7455 :         const _Diff _Step     = (_Count + 1) >> 3; // +1 can't overflow because range was made inclusive in caller

  0001c	8b 45 f8	 mov	 eax, DWORD PTR __Count$[ebp]
  0001f	40		 inc	 eax
  00020	c1 f8 03	 sar	 eax, 3
  00023	89 45 fc	 mov	 DWORD PTR __Step$2[ebp], eax

; 7456 :         const _Diff _Two_step = _Step << 1; // note: intentionally discards low-order bit

  00026	8b 45 fc	 mov	 eax, DWORD PTR __Step$2[ebp]
  00029	d1 e0		 shl	 eax, 1
  0002b	89 45 f4	 mov	 DWORD PTR __Two_step$1[ebp], eax

; 7457 :         _Med3_unchecked(_First, _First + _Step, _First + _Two_step, _Pred);

  0002e	ff 75 14	 push	 DWORD PTR __Pred$[ebp]
  00031	8b 45 f4	 mov	 eax, DWORD PTR __Two_step$1[ebp]
  00034	8b 4d 08	 mov	 ecx, DWORD PTR __First$[ebp]
  00037	8d 04 81	 lea	 eax, DWORD PTR [ecx+eax*4]
  0003a	50		 push	 eax
  0003b	8b 45 fc	 mov	 eax, DWORD PTR __Step$2[ebp]
  0003e	8b 4d 08	 mov	 ecx, DWORD PTR __First$[ebp]
  00041	8d 04 81	 lea	 eax, DWORD PTR [ecx+eax*4]
  00044	50		 push	 eax
  00045	ff 75 08	 push	 DWORD PTR __First$[ebp]
  00048	e8 00 00 00 00	 call	 ??$_Med3_unchecked@PAHU?$less@X@std@@@std@@YAXPAH00U?$less@X@0@@Z ; std::_Med3_unchecked<int *,std::less<void> >
  0004d	83 c4 10	 add	 esp, 16			; 00000010H

; 7458 :         _Med3_unchecked(_Mid - _Step, _Mid, _Mid + _Step, _Pred);

  00050	ff 75 14	 push	 DWORD PTR __Pred$[ebp]
  00053	8b 45 fc	 mov	 eax, DWORD PTR __Step$2[ebp]
  00056	8b 4d 0c	 mov	 ecx, DWORD PTR __Mid$[ebp]
  00059	8d 04 81	 lea	 eax, DWORD PTR [ecx+eax*4]
  0005c	50		 push	 eax
  0005d	ff 75 0c	 push	 DWORD PTR __Mid$[ebp]
  00060	8b 45 fc	 mov	 eax, DWORD PTR __Step$2[ebp]
  00063	c1 e0 02	 shl	 eax, 2
  00066	8b 4d 0c	 mov	 ecx, DWORD PTR __Mid$[ebp]
  00069	2b c8		 sub	 ecx, eax
  0006b	51		 push	 ecx
  0006c	e8 00 00 00 00	 call	 ??$_Med3_unchecked@PAHU?$less@X@std@@@std@@YAXPAH00U?$less@X@0@@Z ; std::_Med3_unchecked<int *,std::less<void> >
  00071	83 c4 10	 add	 esp, 16			; 00000010H

; 7459 :         _Med3_unchecked(_Last - _Two_step, _Last - _Step, _Last, _Pred);

  00074	ff 75 14	 push	 DWORD PTR __Pred$[ebp]
  00077	ff 75 10	 push	 DWORD PTR __Last$[ebp]
  0007a	8b 45 fc	 mov	 eax, DWORD PTR __Step$2[ebp]
  0007d	c1 e0 02	 shl	 eax, 2
  00080	8b 4d 10	 mov	 ecx, DWORD PTR __Last$[ebp]
  00083	2b c8		 sub	 ecx, eax
  00085	51		 push	 ecx
  00086	8b 45 f4	 mov	 eax, DWORD PTR __Two_step$1[ebp]
  00089	c1 e0 02	 shl	 eax, 2
  0008c	8b 4d 10	 mov	 ecx, DWORD PTR __Last$[ebp]
  0008f	2b c8		 sub	 ecx, eax
  00091	51		 push	 ecx
  00092	e8 00 00 00 00	 call	 ??$_Med3_unchecked@PAHU?$less@X@std@@@std@@YAXPAH00U?$less@X@0@@Z ; std::_Med3_unchecked<int *,std::less<void> >
  00097	83 c4 10	 add	 esp, 16			; 00000010H

; 7460 :         _Med3_unchecked(_First + _Step, _Mid, _Last - _Step, _Pred);

  0009a	ff 75 14	 push	 DWORD PTR __Pred$[ebp]
  0009d	8b 45 fc	 mov	 eax, DWORD PTR __Step$2[ebp]
  000a0	c1 e0 02	 shl	 eax, 2
  000a3	8b 4d 10	 mov	 ecx, DWORD PTR __Last$[ebp]
  000a6	2b c8		 sub	 ecx, eax
  000a8	51		 push	 ecx
  000a9	ff 75 0c	 push	 DWORD PTR __Mid$[ebp]
  000ac	8b 45 fc	 mov	 eax, DWORD PTR __Step$2[ebp]
  000af	8b 4d 08	 mov	 ecx, DWORD PTR __First$[ebp]
  000b2	8d 04 81	 lea	 eax, DWORD PTR [ecx+eax*4]
  000b5	50		 push	 eax
  000b6	e8 00 00 00 00	 call	 ??$_Med3_unchecked@PAHU?$less@X@std@@@std@@YAXPAH00U?$less@X@0@@Z ; std::_Med3_unchecked<int *,std::less<void> >
  000bb	83 c4 10	 add	 esp, 16			; 00000010H

; 7461 :     } else {

  000be	eb 14		 jmp	 SHORT $LN1@Guess_medi
$LN2@Guess_medi:

; 7462 :         _Med3_unchecked(_First, _Mid, _Last, _Pred);

  000c0	ff 75 14	 push	 DWORD PTR __Pred$[ebp]
  000c3	ff 75 10	 push	 DWORD PTR __Last$[ebp]
  000c6	ff 75 0c	 push	 DWORD PTR __Mid$[ebp]
  000c9	ff 75 08	 push	 DWORD PTR __First$[ebp]
  000cc	e8 00 00 00 00	 call	 ??$_Med3_unchecked@PAHU?$less@X@std@@@std@@YAXPAH00U?$less@X@0@@Z ; std::_Med3_unchecked<int *,std::less<void> >
  000d1	83 c4 10	 add	 esp, 16			; 00000010H
$LN1@Guess_medi:

; 7463 :     }
; 7464 : }

  000d4	c9		 leave
  000d5	c3		 ret	 0
??$_Guess_median_unchecked@PAHU?$less@X@std@@@std@@YAXPAH00U?$less@X@0@@Z ENDP ; std::_Guess_median_unchecked<int *,std::less<void> >
_TEXT	ENDS
; Function compile flags: /Odspy
; File C:\Program Files (x86)\Microsoft Visual Studio\2019\Community\VC\Tools\MSVC\14.28.29333\include\algorithm
; File C:\Program Files (x86)\Microsoft Visual Studio\2019\Community\VC\Tools\MSVC\14.28.29333\include\type_traits
; File C:\Program Files (x86)\Microsoft Visual Studio\2019\Community\VC\Tools\MSVC\14.28.29333\include\algorithm
; File C:\Program Files (x86)\Microsoft Visual Studio\2019\Community\VC\Tools\MSVC\14.28.29333\include\type_traits
; File C:\Program Files (x86)\Microsoft Visual Studio\2019\Community\VC\Tools\MSVC\14.28.29333\include\algorithm
; File C:\Program Files (x86)\Microsoft Visual Studio\2019\Community\VC\Tools\MSVC\14.28.29333\include\type_traits
; File C:\Program Files (x86)\Microsoft Visual Studio\2019\Community\VC\Tools\MSVC\14.28.29333\include\algorithm
;	COMDAT ??$_Pop_heap_unchecked@PAHU?$less@X@std@@@std@@YAXPAH0U?$less@X@0@@Z
_TEXT	SEGMENT
$T1 = -20						; size = 4
$T2 = -16						; size = 4
$T3 = -12						; size = 4
__Val$4 = -8						; size = 4
$T5 = -4						; size = 4
__First$ = 8						; size = 4
__Last$ = 12						; size = 4
__Pred$ = 16						; size = 1
??$_Pop_heap_unchecked@PAHU?$less@X@std@@@std@@YAXPAH0U?$less@X@0@@Z PROC ; std::_Pop_heap_unchecked<int *,std::less<void> >, COMDAT

; 6226 : _CONSTEXPR20 void _Pop_heap_unchecked(_RanIt _First, _RanIt _Last, _Pr _Pred) {

  00000	55		 push	 ebp
  00001	8b ec		 mov	 ebp, esp
  00003	83 ec 14	 sub	 esp, 20			; 00000014H

; 6227 :     // pop *_First to *(_Last - 1) and reheap
; 6228 :     if (2 <= _Last - _First) {

  00006	8b 45 0c	 mov	 eax, DWORD PTR __Last$[ebp]
  00009	2b 45 08	 sub	 eax, DWORD PTR __First$[ebp]
  0000c	c1 f8 02	 sar	 eax, 2
  0000f	83 f8 02	 cmp	 eax, 2
  00012	7c 50		 jl	 SHORT $LN1@Pop_heap_u

; 6229 :         --_Last;

  00014	8b 45 0c	 mov	 eax, DWORD PTR __Last$[ebp]
  00017	83 e8 04	 sub	 eax, 4
  0001a	89 45 0c	 mov	 DWORD PTR __Last$[ebp], eax
; File C:\Program Files (x86)\Microsoft Visual Studio\2019\Community\VC\Tools\MSVC\14.28.29333\include\type_traits

; 1455 :     return static_cast<remove_reference_t<_Ty>&&>(_Arg);

  0001d	8b 45 0c	 mov	 eax, DWORD PTR __Last$[ebp]
  00020	89 45 fc	 mov	 DWORD PTR $T5[ebp], eax
; File C:\Program Files (x86)\Microsoft Visual Studio\2019\Community\VC\Tools\MSVC\14.28.29333\include\algorithm

; 6230 :         _Iter_value_t<_RanIt> _Val = _STD move(*_Last);

  00023	8b 45 fc	 mov	 eax, DWORD PTR $T5[ebp]
  00026	8b 00		 mov	 eax, DWORD PTR [eax]
  00028	89 45 f8	 mov	 DWORD PTR __Val$4[ebp], eax
; File C:\Program Files (x86)\Microsoft Visual Studio\2019\Community\VC\Tools\MSVC\14.28.29333\include\type_traits

; 1455 :     return static_cast<remove_reference_t<_Ty>&&>(_Arg);

  0002b	8d 45 f8	 lea	 eax, DWORD PTR __Val$4[ebp]
  0002e	89 45 f0	 mov	 DWORD PTR $T2[ebp], eax
  00031	8b 45 08	 mov	 eax, DWORD PTR __First$[ebp]
  00034	89 45 f4	 mov	 DWORD PTR $T3[ebp], eax
; File C:\Program Files (x86)\Microsoft Visual Studio\2019\Community\VC\Tools\MSVC\14.28.29333\include\algorithm

; 6219 :     *_Dest      = _STD move(*_First);

  00037	8b 45 0c	 mov	 eax, DWORD PTR __Last$[ebp]
  0003a	8b 4d f4	 mov	 ecx, DWORD PTR $T3[ebp]
  0003d	8b 09		 mov	 ecx, DWORD PTR [ecx]
  0003f	89 08		 mov	 DWORD PTR [eax], ecx
; File C:\Program Files (x86)\Microsoft Visual Studio\2019\Community\VC\Tools\MSVC\14.28.29333\include\type_traits

; 1443 :     return static_cast<_Ty&&>(_Arg);

  00041	8b 45 f0	 mov	 eax, DWORD PTR $T2[ebp]
  00044	89 45 ec	 mov	 DWORD PTR $T1[ebp], eax
; File C:\Program Files (x86)\Microsoft Visual Studio\2019\Community\VC\Tools\MSVC\14.28.29333\include\algorithm

; 6221 :     _Pop_heap_hole_by_index(

  00047	ff 75 10	 push	 DWORD PTR __Pred$[ebp]
  0004a	ff 75 ec	 push	 DWORD PTR $T1[ebp]
  0004d	8b 45 0c	 mov	 eax, DWORD PTR __Last$[ebp]
  00050	2b 45 08	 sub	 eax, DWORD PTR __First$[ebp]
  00053	c1 f8 02	 sar	 eax, 2
  00056	50		 push	 eax
  00057	6a 00		 push	 0
  00059	ff 75 08	 push	 DWORD PTR __First$[ebp]
  0005c	e8 00 00 00 00	 call	 ??$_Pop_heap_hole_by_index@PAHHU?$less@X@std@@@std@@YAXPAHHH$$QAHU?$less@X@0@@Z ; std::_Pop_heap_hole_by_index<int *,int,std::less<void> >
  00061	83 c4 14	 add	 esp, 20			; 00000014H
$LN1@Pop_heap_u:

; 6231 :         _Pop_heap_hole_unchecked(_First, _Last, _Last, _STD move(_Val), _Pred);
; 6232 :     }
; 6233 : }

  00064	c9		 leave
  00065	c3		 ret	 0
??$_Pop_heap_unchecked@PAHU?$less@X@std@@@std@@YAXPAH0U?$less@X@0@@Z ENDP ; std::_Pop_heap_unchecked<int *,std::less<void> >
_TEXT	ENDS
; Function compile flags: /Odspy
; File C:\Program Files (x86)\Microsoft Visual Studio\2019\Community\VC\Tools\MSVC\14.28.29333\include\algorithm
; File C:\Program Files (x86)\Microsoft Visual Studio\2019\Community\VC\Tools\MSVC\14.28.29333\include\xstddef
; File C:\Program Files (x86)\Microsoft Visual Studio\2019\Community\VC\Tools\MSVC\14.28.29333\include\algorithm
; File C:\Program Files (x86)\Microsoft Visual Studio\2019\Community\VC\Tools\MSVC\14.28.29333\include\type_traits
; File C:\Program Files (x86)\Microsoft Visual Studio\2019\Community\VC\Tools\MSVC\14.28.29333\include\algorithm
; File C:\Program Files (x86)\Microsoft Visual Studio\2019\Community\VC\Tools\MSVC\14.28.29333\include\type_traits
; File C:\Program Files (x86)\Microsoft Visual Studio\2019\Community\VC\Tools\MSVC\14.28.29333\include\algorithm
; File C:\Program Files (x86)\Microsoft Visual Studio\2019\Community\VC\Tools\MSVC\14.28.29333\include\type_traits
; File C:\Program Files (x86)\Microsoft Visual Studio\2019\Community\VC\Tools\MSVC\14.28.29333\include\algorithm
; File C:\Program Files (x86)\Microsoft Visual Studio\2019\Community\VC\Tools\MSVC\14.28.29333\include\xstddef
; File C:\Program Files (x86)\Microsoft Visual Studio\2019\Community\VC\Tools\MSVC\14.28.29333\include\algorithm
; File C:\Program Files (x86)\Microsoft Visual Studio\2019\Community\VC\Tools\MSVC\14.28.29333\include\type_traits
; File C:\Program Files (x86)\Microsoft Visual Studio\2019\Community\VC\Tools\MSVC\14.28.29333\include\algorithm
; File C:\Program Files (x86)\Microsoft Visual Studio\2019\Community\VC\Tools\MSVC\14.28.29333\include\type_traits
; File C:\Program Files (x86)\Microsoft Visual Studio\2019\Community\VC\Tools\MSVC\14.28.29333\include\algorithm
;	COMDAT ??$_Pop_heap_hole_by_index@PAHHU?$less@X@std@@@std@@YAXPAHHH$$QAHU?$less@X@0@@Z
_TEXT	SEGMENT
$T1 = -56						; size = 4
$T2 = -52						; size = 4
__Top$ = -48						; size = 4
$T3 = -44						; size = 4
$T4 = -40						; size = 4
$T5 = -36						; size = 4
tv158 = -32						; size = 4
__Max_sequence_non_leaf$ = -28				; size = 4
tv138 = -24						; size = 4
__Idx$6 = -20						; size = 4
__Hole$ = -16						; size = 4
__Idx$ = -12						; size = 4
__Pred$ = -8						; size = 1
$T7 = -2						; size = 1
$T8 = -1						; size = 1
__First$ = 8						; size = 4
__Hole$ = 12						; size = 4
__Bottom$ = 16						; size = 4
__Val$ = 20						; size = 4
__Pred$ = 24						; size = 1
??$_Pop_heap_hole_by_index@PAHHU?$less@X@std@@@std@@YAXPAHHH$$QAHU?$less@X@0@@Z PROC ; std::_Pop_heap_hole_by_index<int *,int,std::less<void> >, COMDAT

; 6186 :     _RanIt _First, _Iter_diff_t<_RanIt> _Hole, _Iter_diff_t<_RanIt> _Bottom, _Ty&& _Val, _Pr _Pred) {

  00000	55		 push	 ebp
  00001	8b ec		 mov	 ebp, esp
  00003	83 ec 38	 sub	 esp, 56			; 00000038H
  00006	56		 push	 esi

; 6187 :     // percolate _Hole to _Bottom, then push _Val
; 6188 :     _STL_INTERNAL_CHECK(_Bottom > 0);
; 6189 : 
; 6190 :     using _Diff      = _Iter_diff_t<_RanIt>;
; 6191 :     const _Diff _Top = _Hole;

  00007	8b 45 0c	 mov	 eax, DWORD PTR __Hole$[ebp]
  0000a	89 45 d0	 mov	 DWORD PTR __Top$[ebp], eax

; 6192 :     _Diff _Idx       = _Hole;

  0000d	8b 45 0c	 mov	 eax, DWORD PTR __Hole$[ebp]
  00010	89 45 f4	 mov	 DWORD PTR __Idx$[ebp], eax

; 6193 : 
; 6194 :     // Check whether _Idx can have a child before calculating that child's index, since
; 6195 :     // calculating the child's index can trigger integer overflows
; 6196 :     const _Diff _Max_sequence_non_leaf = (_Bottom - 1) >> 1; // shift for codegen

  00013	8b 45 10	 mov	 eax, DWORD PTR __Bottom$[ebp]
  00016	48		 dec	 eax
  00017	d1 f8		 sar	 eax, 1
  00019	89 45 e4	 mov	 DWORD PTR __Max_sequence_non_leaf$[ebp], eax
$LN2@Pop_heap_h:

; 6197 :     while (_Idx < _Max_sequence_non_leaf) { // move _Hole down to larger child

  0001c	8b 45 f4	 mov	 eax, DWORD PTR __Idx$[ebp]
  0001f	3b 45 e4	 cmp	 eax, DWORD PTR __Max_sequence_non_leaf$[ebp]
  00022	7d 63		 jge	 SHORT $LN3@Pop_heap_h

; 6198 :         _Idx = 2 * _Idx + 2;

  00024	8b 45 f4	 mov	 eax, DWORD PTR __Idx$[ebp]
  00027	8d 44 00 02	 lea	 eax, DWORD PTR [eax+eax+2]
  0002b	89 45 f4	 mov	 DWORD PTR __Idx$[ebp], eax
; File C:\Program Files (x86)\Microsoft Visual Studio\2019\Community\VC\Tools\MSVC\14.28.29333\include\xstddef

; 240  :         return static_cast<_Ty1&&>(_Left) < static_cast<_Ty2&&>(_Right);

  0002e	8b 45 f4	 mov	 eax, DWORD PTR __Idx$[ebp]
  00031	8b 4d 08	 mov	 ecx, DWORD PTR __First$[ebp]
  00034	8b 55 f4	 mov	 edx, DWORD PTR __Idx$[ebp]
  00037	8b 75 08	 mov	 esi, DWORD PTR __First$[ebp]
  0003a	8b 04 81	 mov	 eax, DWORD PTR [ecx+eax*4]
  0003d	3b 44 96 fc	 cmp	 eax, DWORD PTR [esi+edx*4-4]
  00041	7d 09		 jge	 SHORT $LN9@Pop_heap_h
  00043	c7 45 e8 01 00
	00 00		 mov	 DWORD PTR tv138[ebp], 1
  0004a	eb 04		 jmp	 SHORT $LN10@Pop_heap_h
$LN9@Pop_heap_h:
  0004c	83 65 e8 00	 and	 DWORD PTR tv138[ebp], 0
$LN10@Pop_heap_h:
  00050	8a 45 e8	 mov	 al, BYTE PTR tv138[ebp]
  00053	88 45 ff	 mov	 BYTE PTR $T8[ebp], al
; File C:\Program Files (x86)\Microsoft Visual Studio\2019\Community\VC\Tools\MSVC\14.28.29333\include\algorithm

; 6199 :         if (_DEBUG_LT_PRED(_Pred, *(_First + _Idx), *(_First + (_Idx - 1)))) {

  00056	0f b6 45 ff	 movzx	 eax, BYTE PTR $T8[ebp]
  0005a	85 c0		 test	 eax, eax
  0005c	74 07		 je	 SHORT $LN4@Pop_heap_h

; 6200 :             --_Idx;

  0005e	8b 45 f4	 mov	 eax, DWORD PTR __Idx$[ebp]
  00061	48		 dec	 eax
  00062	89 45 f4	 mov	 DWORD PTR __Idx$[ebp], eax
$LN4@Pop_heap_h:

; 6202 :         *(_First + _Hole) = _STD move(*(_First + _Idx));

  00065	8b 45 f4	 mov	 eax, DWORD PTR __Idx$[ebp]
  00068	8b 4d 08	 mov	 ecx, DWORD PTR __First$[ebp]
  0006b	8d 04 81	 lea	 eax, DWORD PTR [ecx+eax*4]
; File C:\Program Files (x86)\Microsoft Visual Studio\2019\Community\VC\Tools\MSVC\14.28.29333\include\type_traits

; 1455 :     return static_cast<remove_reference_t<_Ty>&&>(_Arg);

  0006e	89 45 d8	 mov	 DWORD PTR $T4[ebp], eax
; File C:\Program Files (x86)\Microsoft Visual Studio\2019\Community\VC\Tools\MSVC\14.28.29333\include\algorithm

; 6202 :         *(_First + _Hole) = _STD move(*(_First + _Idx));

  00071	8b 45 0c	 mov	 eax, DWORD PTR __Hole$[ebp]
  00074	8b 4d 08	 mov	 ecx, DWORD PTR __First$[ebp]
  00077	8b 55 d8	 mov	 edx, DWORD PTR $T4[ebp]
  0007a	8b 12		 mov	 edx, DWORD PTR [edx]
  0007c	89 14 81	 mov	 DWORD PTR [ecx+eax*4], edx

; 6203 :         _Hole             = _Idx;

  0007f	8b 45 f4	 mov	 eax, DWORD PTR __Idx$[ebp]
  00082	89 45 0c	 mov	 DWORD PTR __Hole$[ebp], eax

; 6204 :     }

  00085	eb 95		 jmp	 SHORT $LN2@Pop_heap_h
$LN3@Pop_heap_h:

; 6205 : 
; 6206 :     if (_Idx == _Max_sequence_non_leaf && _Bottom % 2 == 0) { // only child at bottom, move _Hole down to it

  00087	8b 45 f4	 mov	 eax, DWORD PTR __Idx$[ebp]
  0008a	3b 45 e4	 cmp	 eax, DWORD PTR __Max_sequence_non_leaf$[ebp]
  0008d	75 35		 jne	 SHORT $LN5@Pop_heap_h
  0008f	8b 45 10	 mov	 eax, DWORD PTR __Bottom$[ebp]
  00092	25 01 00 00 80	 and	 eax, -2147483647	; 80000001H
  00097	79 05		 jns	 SHORT $LN37@Pop_heap_h
  00099	48		 dec	 eax
  0009a	83 c8 fe	 or	 eax, -2			; fffffffeH
  0009d	40		 inc	 eax
$LN37@Pop_heap_h:
  0009e	85 c0		 test	 eax, eax
  000a0	75 22		 jne	 SHORT $LN5@Pop_heap_h

; 6207 :         *(_First + _Hole) = _STD move(*(_First + (_Bottom - 1)));

  000a2	8b 45 10	 mov	 eax, DWORD PTR __Bottom$[ebp]
  000a5	8b 4d 08	 mov	 ecx, DWORD PTR __First$[ebp]
  000a8	8d 44 81 fc	 lea	 eax, DWORD PTR [ecx+eax*4-4]
; File C:\Program Files (x86)\Microsoft Visual Studio\2019\Community\VC\Tools\MSVC\14.28.29333\include\type_traits

; 1455 :     return static_cast<remove_reference_t<_Ty>&&>(_Arg);

  000ac	89 45 d4	 mov	 DWORD PTR $T3[ebp], eax
; File C:\Program Files (x86)\Microsoft Visual Studio\2019\Community\VC\Tools\MSVC\14.28.29333\include\algorithm

; 6207 :         *(_First + _Hole) = _STD move(*(_First + (_Bottom - 1)));

  000af	8b 45 0c	 mov	 eax, DWORD PTR __Hole$[ebp]
  000b2	8b 4d 08	 mov	 ecx, DWORD PTR __First$[ebp]
  000b5	8b 55 d4	 mov	 edx, DWORD PTR $T3[ebp]
  000b8	8b 12		 mov	 edx, DWORD PTR [edx]
  000ba	89 14 81	 mov	 DWORD PTR [ecx+eax*4], edx

; 6208 :         _Hole             = _Bottom - 1;

  000bd	8b 45 10	 mov	 eax, DWORD PTR __Bottom$[ebp]
  000c0	48		 dec	 eax
  000c1	89 45 0c	 mov	 DWORD PTR __Hole$[ebp], eax
$LN5@Pop_heap_h:
; File C:\Program Files (x86)\Microsoft Visual Studio\2019\Community\VC\Tools\MSVC\14.28.29333\include\type_traits

; 1443 :     return static_cast<_Ty&&>(_Arg);

  000c4	8b 45 14	 mov	 eax, DWORD PTR __Val$[ebp]
  000c7	89 45 dc	 mov	 DWORD PTR $T5[ebp], eax
; File C:\Program Files (x86)\Microsoft Visual Studio\2019\Community\VC\Tools\MSVC\14.28.29333\include\algorithm

; 6211 :     _Push_heap_by_index(_First, _Hole, _Top, _STD forward<_Ty>(_Val), _Pred);

  000ca	8a 45 18	 mov	 al, BYTE PTR __Pred$[ebp]
  000cd	88 45 f8	 mov	 BYTE PTR __Pred$[ebp], al
  000d0	8b 45 0c	 mov	 eax, DWORD PTR __Hole$[ebp]
  000d3	89 45 f0	 mov	 DWORD PTR __Hole$[ebp], eax

; 6076 :     for (_Diff _Idx = (_Hole - 1) >> 1; // shift for codegen

  000d6	8b 45 f0	 mov	 eax, DWORD PTR __Hole$[ebp]
  000d9	48		 dec	 eax
  000da	d1 f8		 sar	 eax, 1
  000dc	89 45 ec	 mov	 DWORD PTR __Idx$6[ebp], eax
  000df	eb 09		 jmp	 SHORT $LN24@Pop_heap_h
$LN22@Pop_heap_h:

; 6078 :          _Idx = (_Hole - 1) >> 1) { // shift for codegen

  000e1	8b 45 f0	 mov	 eax, DWORD PTR __Hole$[ebp]
  000e4	48		 dec	 eax
  000e5	d1 f8		 sar	 eax, 1
  000e7	89 45 ec	 mov	 DWORD PTR __Idx$6[ebp], eax
$LN24@Pop_heap_h:

; 6077 :          _Top < _Hole && _DEBUG_LT_PRED(_Pred, *(_First + _Idx), _Val); //

  000ea	8b 45 d0	 mov	 eax, DWORD PTR __Top$[ebp]
  000ed	3b 45 f0	 cmp	 eax, DWORD PTR __Hole$[ebp]
  000f0	7d 4d		 jge	 SHORT $LN23@Pop_heap_h
; File C:\Program Files (x86)\Microsoft Visual Studio\2019\Community\VC\Tools\MSVC\14.28.29333\include\xstddef

; 240  :         return static_cast<_Ty1&&>(_Left) < static_cast<_Ty2&&>(_Right);

  000f2	8b 45 ec	 mov	 eax, DWORD PTR __Idx$6[ebp]
  000f5	8b 4d 08	 mov	 ecx, DWORD PTR __First$[ebp]
  000f8	8b 55 dc	 mov	 edx, DWORD PTR $T5[ebp]
  000fb	8b 04 81	 mov	 eax, DWORD PTR [ecx+eax*4]
  000fe	3b 02		 cmp	 eax, DWORD PTR [edx]
  00100	7d 09		 jge	 SHORT $LN28@Pop_heap_h
  00102	c7 45 e0 01 00
	00 00		 mov	 DWORD PTR tv158[ebp], 1
  00109	eb 04		 jmp	 SHORT $LN29@Pop_heap_h
$LN28@Pop_heap_h:
  0010b	83 65 e0 00	 and	 DWORD PTR tv158[ebp], 0
$LN29@Pop_heap_h:
  0010f	8a 45 e0	 mov	 al, BYTE PTR tv158[ebp]
  00112	88 45 fe	 mov	 BYTE PTR $T7[ebp], al
; File C:\Program Files (x86)\Microsoft Visual Studio\2019\Community\VC\Tools\MSVC\14.28.29333\include\algorithm

; 6077 :          _Top < _Hole && _DEBUG_LT_PRED(_Pred, *(_First + _Idx), _Val); //

  00115	0f b6 45 fe	 movzx	 eax, BYTE PTR $T7[ebp]
  00119	85 c0		 test	 eax, eax
  0011b	74 22		 je	 SHORT $LN23@Pop_heap_h

; 6080 :         *(_First + _Hole) = _STD move(*(_First + _Idx));

  0011d	8b 45 ec	 mov	 eax, DWORD PTR __Idx$6[ebp]
  00120	8b 4d 08	 mov	 ecx, DWORD PTR __First$[ebp]
  00123	8d 04 81	 lea	 eax, DWORD PTR [ecx+eax*4]
; File C:\Program Files (x86)\Microsoft Visual Studio\2019\Community\VC\Tools\MSVC\14.28.29333\include\type_traits

; 1455 :     return static_cast<remove_reference_t<_Ty>&&>(_Arg);

  00126	89 45 cc	 mov	 DWORD PTR $T2[ebp], eax
; File C:\Program Files (x86)\Microsoft Visual Studio\2019\Community\VC\Tools\MSVC\14.28.29333\include\algorithm

; 6080 :         *(_First + _Hole) = _STD move(*(_First + _Idx));

  00129	8b 45 f0	 mov	 eax, DWORD PTR __Hole$[ebp]
  0012c	8b 4d 08	 mov	 ecx, DWORD PTR __First$[ebp]
  0012f	8b 55 cc	 mov	 edx, DWORD PTR $T2[ebp]
  00132	8b 12		 mov	 edx, DWORD PTR [edx]
  00134	89 14 81	 mov	 DWORD PTR [ecx+eax*4], edx

; 6081 :         _Hole             = _Idx;

  00137	8b 45 ec	 mov	 eax, DWORD PTR __Idx$6[ebp]
  0013a	89 45 f0	 mov	 DWORD PTR __Hole$[ebp], eax

; 6082 :     }

  0013d	eb a2		 jmp	 SHORT $LN22@Pop_heap_h
$LN23@Pop_heap_h:
; File C:\Program Files (x86)\Microsoft Visual Studio\2019\Community\VC\Tools\MSVC\14.28.29333\include\type_traits

; 1443 :     return static_cast<_Ty&&>(_Arg);

  0013f	8b 45 dc	 mov	 eax, DWORD PTR $T5[ebp]
  00142	89 45 c8	 mov	 DWORD PTR $T1[ebp], eax
; File C:\Program Files (x86)\Microsoft Visual Studio\2019\Community\VC\Tools\MSVC\14.28.29333\include\algorithm

; 6084 :     *(_First + _Hole) = _STD forward<_Ty>(_Val); // drop _Val into final hole

  00145	8b 45 f0	 mov	 eax, DWORD PTR __Hole$[ebp]
  00148	8b 4d 08	 mov	 ecx, DWORD PTR __First$[ebp]
  0014b	8b 55 c8	 mov	 edx, DWORD PTR $T1[ebp]
  0014e	8b 12		 mov	 edx, DWORD PTR [edx]
  00150	89 14 81	 mov	 DWORD PTR [ecx+eax*4], edx

; 6212 : }

  00153	5e		 pop	 esi
  00154	c9		 leave
  00155	c3		 ret	 0
??$_Pop_heap_hole_by_index@PAHHU?$less@X@std@@@std@@YAXPAHHH$$QAHU?$less@X@0@@Z ENDP ; std::_Pop_heap_hole_by_index<int *,int,std::less<void> >
_TEXT	ENDS
; Function compile flags: /Odspy
; File C:\Program Files (x86)\Microsoft Visual Studio\2019\Community\VC\Tools\MSVC\14.28.29333\include\xmemory
;	COMDAT ??$_Refancy@PAU?$pair@MJ@std@@$0A@@std@@YAPAU?$pair@MJ@0@PAU10@@Z
_TEXT	SEGMENT
__Ptr$ = 8						; size = 4
??$_Refancy@PAU?$pair@MJ@std@@$0A@@std@@YAPAU?$pair@MJ@0@PAU10@@Z PROC ; std::_Refancy<std::pair<float,long> *,0>, COMDAT

; 261  : _Pointer _Refancy(_Pointer _Ptr) noexcept {

  00000	55		 push	 ebp
  00001	8b ec		 mov	 ebp, esp

; 262  :     return _Ptr;

  00003	8b 45 08	 mov	 eax, DWORD PTR __Ptr$[ebp]

; 263  : }

  00006	5d		 pop	 ebp
  00007	c3		 ret	 0
??$_Refancy@PAU?$pair@MJ@std@@$0A@@std@@YAPAU?$pair@MJ@0@PAU10@@Z ENDP ; std::_Refancy<std::pair<float,long> *,0>
_TEXT	ENDS
; Function compile flags: /Odspy
; File C:\Program Files (x86)\Microsoft Visual Studio\2019\Community\VC\Tools\MSVC\14.28.29333\include\algorithm
; File C:\Program Files (x86)\Microsoft Visual Studio\2019\Community\VC\Tools\MSVC\14.28.29333\include\xutility
; File C:\Program Files (x86)\Microsoft Visual Studio\2019\Community\VC\Tools\MSVC\14.28.29333\include\algorithm
; File C:\Program Files (x86)\Microsoft Visual Studio\2019\Community\VC\Tools\MSVC\14.28.29333\include\xutility
; File C:\Program Files (x86)\Microsoft Visual Studio\2019\Community\VC\Tools\MSVC\14.28.29333\include\algorithm
; File C:\Program Files (x86)\Microsoft Visual Studio\2019\Community\VC\Tools\MSVC\14.28.29333\include\xutility
; File C:\Program Files (x86)\Microsoft Visual Studio\2019\Community\VC\Tools\MSVC\14.28.29333\include\algorithm
; File C:\Program Files (x86)\Microsoft Visual Studio\2019\Community\VC\Tools\MSVC\14.28.29333\include\xstddef
; File C:\Program Files (x86)\Microsoft Visual Studio\2019\Community\VC\Tools\MSVC\14.28.29333\include\algorithm
; File C:\Program Files (x86)\Microsoft Visual Studio\2019\Community\VC\Tools\MSVC\14.28.29333\include\xutility
; File C:\Program Files (x86)\Microsoft Visual Studio\2019\Community\VC\Tools\MSVC\14.28.29333\include\algorithm
; File C:\Program Files (x86)\Microsoft Visual Studio\2019\Community\VC\Tools\MSVC\14.28.29333\include\xstddef
; File C:\Program Files (x86)\Microsoft Visual Studio\2019\Community\VC\Tools\MSVC\14.28.29333\include\algorithm
; File C:\Program Files (x86)\Microsoft Visual Studio\2019\Community\VC\Tools\MSVC\14.28.29333\include\xstddef
; File C:\Program Files (x86)\Microsoft Visual Studio\2019\Community\VC\Tools\MSVC\14.28.29333\include\algorithm
; File C:\Program Files (x86)\Microsoft Visual Studio\2019\Community\VC\Tools\MSVC\14.28.29333\include\xstddef
; File C:\Program Files (x86)\Microsoft Visual Studio\2019\Community\VC\Tools\MSVC\14.28.29333\include\algorithm
; File C:\Program Files (x86)\Microsoft Visual Studio\2019\Community\VC\Tools\MSVC\14.28.29333\include\xstddef
; File C:\Program Files (x86)\Microsoft Visual Studio\2019\Community\VC\Tools\MSVC\14.28.29333\include\algorithm
; File C:\Program Files (x86)\Microsoft Visual Studio\2019\Community\VC\Tools\MSVC\14.28.29333\include\xstddef
; File C:\Program Files (x86)\Microsoft Visual Studio\2019\Community\VC\Tools\MSVC\14.28.29333\include\algorithm
; File C:\Program Files (x86)\Microsoft Visual Studio\2019\Community\VC\Tools\MSVC\14.28.29333\include\type_traits
; File C:\Program Files (x86)\Microsoft Visual Studio\2019\Community\VC\Tools\MSVC\14.28.29333\include\utility
; File C:\Program Files (x86)\Microsoft Visual Studio\2019\Community\VC\Tools\MSVC\14.28.29333\include\type_traits
; File C:\Program Files (x86)\Microsoft Visual Studio\2019\Community\VC\Tools\MSVC\14.28.29333\include\utility
; File C:\Program Files (x86)\Microsoft Visual Studio\2019\Community\VC\Tools\MSVC\14.28.29333\include\type_traits
; File C:\Program Files (x86)\Microsoft Visual Studio\2019\Community\VC\Tools\MSVC\14.28.29333\include\utility
; File C:\Program Files (x86)\Microsoft Visual Studio\2019\Community\VC\Tools\MSVC\14.28.29333\include\algorithm
; File C:\Program Files (x86)\Microsoft Visual Studio\2019\Community\VC\Tools\MSVC\14.28.29333\include\xutility
; File C:\Program Files (x86)\Microsoft Visual Studio\2019\Community\VC\Tools\MSVC\14.28.29333\include\algorithm
; File C:\Program Files (x86)\Microsoft Visual Studio\2019\Community\VC\Tools\MSVC\14.28.29333\include\xstddef
; File C:\Program Files (x86)\Microsoft Visual Studio\2019\Community\VC\Tools\MSVC\14.28.29333\include\algorithm
; File C:\Program Files (x86)\Microsoft Visual Studio\2019\Community\VC\Tools\MSVC\14.28.29333\include\xutility
; File C:\Program Files (x86)\Microsoft Visual Studio\2019\Community\VC\Tools\MSVC\14.28.29333\include\algorithm
; File C:\Program Files (x86)\Microsoft Visual Studio\2019\Community\VC\Tools\MSVC\14.28.29333\include\xstddef
; File C:\Program Files (x86)\Microsoft Visual Studio\2019\Community\VC\Tools\MSVC\14.28.29333\include\algorithm
; File C:\Program Files (x86)\Microsoft Visual Studio\2019\Community\VC\Tools\MSVC\14.28.29333\include\xutility
; File C:\Program Files (x86)\Microsoft Visual Studio\2019\Community\VC\Tools\MSVC\14.28.29333\include\algorithm
; File C:\Program Files (x86)\Microsoft Visual Studio\2019\Community\VC\Tools\MSVC\14.28.29333\include\xutility
; File C:\Program Files (x86)\Microsoft Visual Studio\2019\Community\VC\Tools\MSVC\14.28.29333\include\algorithm
; File C:\Program Files (x86)\Microsoft Visual Studio\2019\Community\VC\Tools\MSVC\14.28.29333\include\type_traits
; File C:\Program Files (x86)\Microsoft Visual Studio\2019\Community\VC\Tools\MSVC\14.28.29333\include\utility
; File C:\Program Files (x86)\Microsoft Visual Studio\2019\Community\VC\Tools\MSVC\14.28.29333\include\type_traits
; File C:\Program Files (x86)\Microsoft Visual Studio\2019\Community\VC\Tools\MSVC\14.28.29333\include\utility
; File C:\Program Files (x86)\Microsoft Visual Studio\2019\Community\VC\Tools\MSVC\14.28.29333\include\type_traits
; File C:\Program Files (x86)\Microsoft Visual Studio\2019\Community\VC\Tools\MSVC\14.28.29333\include\utility
; File C:\Program Files (x86)\Microsoft Visual Studio\2019\Community\VC\Tools\MSVC\14.28.29333\include\algorithm
; File C:\Program Files (x86)\Microsoft Visual Studio\2019\Community\VC\Tools\MSVC\14.28.29333\include\type_traits
; File C:\Program Files (x86)\Microsoft Visual Studio\2019\Community\VC\Tools\MSVC\14.28.29333\include\utility
; File C:\Program Files (x86)\Microsoft Visual Studio\2019\Community\VC\Tools\MSVC\14.28.29333\include\type_traits
; File C:\Program Files (x86)\Microsoft Visual Studio\2019\Community\VC\Tools\MSVC\14.28.29333\include\utility
; File C:\Program Files (x86)\Microsoft Visual Studio\2019\Community\VC\Tools\MSVC\14.28.29333\include\algorithm
; File C:\Program Files (x86)\Microsoft Visual Studio\2019\Community\VC\Tools\MSVC\14.28.29333\include\type_traits
; File C:\Program Files (x86)\Microsoft Visual Studio\2019\Community\VC\Tools\MSVC\14.28.29333\include\utility
; File C:\Program Files (x86)\Microsoft Visual Studio\2019\Community\VC\Tools\MSVC\14.28.29333\include\type_traits
; File C:\Program Files (x86)\Microsoft Visual Studio\2019\Community\VC\Tools\MSVC\14.28.29333\include\utility
; File C:\Program Files (x86)\Microsoft Visual Studio\2019\Community\VC\Tools\MSVC\14.28.29333\include\type_traits
; File C:\Program Files (x86)\Microsoft Visual Studio\2019\Community\VC\Tools\MSVC\14.28.29333\include\utility
; File C:\Program Files (x86)\Microsoft Visual Studio\2019\Community\VC\Tools\MSVC\14.28.29333\include\algorithm
; File C:\Program Files (x86)\Microsoft Visual Studio\2019\Community\VC\Tools\MSVC\14.28.29333\include\type_traits
; File C:\Program Files (x86)\Microsoft Visual Studio\2019\Community\VC\Tools\MSVC\14.28.29333\include\utility
; File C:\Program Files (x86)\Microsoft Visual Studio\2019\Community\VC\Tools\MSVC\14.28.29333\include\type_traits
; File C:\Program Files (x86)\Microsoft Visual Studio\2019\Community\VC\Tools\MSVC\14.28.29333\include\utility
; File C:\Program Files (x86)\Microsoft Visual Studio\2019\Community\VC\Tools\MSVC\14.28.29333\include\type_traits
; File C:\Program Files (x86)\Microsoft Visual Studio\2019\Community\VC\Tools\MSVC\14.28.29333\include\utility
; File C:\Program Files (x86)\Microsoft Visual Studio\2019\Community\VC\Tools\MSVC\14.28.29333\include\algorithm
; File C:\Program Files (x86)\Microsoft Visual Studio\2019\Community\VC\Tools\MSVC\14.28.29333\include\type_traits
; File C:\Program Files (x86)\Microsoft Visual Studio\2019\Community\VC\Tools\MSVC\14.28.29333\include\utility
; File C:\Program Files (x86)\Microsoft Visual Studio\2019\Community\VC\Tools\MSVC\14.28.29333\include\type_traits
; File C:\Program Files (x86)\Microsoft Visual Studio\2019\Community\VC\Tools\MSVC\14.28.29333\include\utility
; File C:\Program Files (x86)\Microsoft Visual Studio\2019\Community\VC\Tools\MSVC\14.28.29333\include\type_traits
; File C:\Program Files (x86)\Microsoft Visual Studio\2019\Community\VC\Tools\MSVC\14.28.29333\include\utility
; File C:\Program Files (x86)\Microsoft Visual Studio\2019\Community\VC\Tools\MSVC\14.28.29333\include\algorithm
; File C:\Program Files (x86)\Microsoft Visual Studio\2019\Community\VC\Tools\MSVC\14.28.29333\include\type_traits
; File C:\Program Files (x86)\Microsoft Visual Studio\2019\Community\VC\Tools\MSVC\14.28.29333\include\utility
; File C:\Program Files (x86)\Microsoft Visual Studio\2019\Community\VC\Tools\MSVC\14.28.29333\include\type_traits
; File C:\Program Files (x86)\Microsoft Visual Studio\2019\Community\VC\Tools\MSVC\14.28.29333\include\utility
; File C:\Program Files (x86)\Microsoft Visual Studio\2019\Community\VC\Tools\MSVC\14.28.29333\include\type_traits
; File C:\Program Files (x86)\Microsoft Visual Studio\2019\Community\VC\Tools\MSVC\14.28.29333\include\utility
; File C:\Program Files (x86)\Microsoft Visual Studio\2019\Community\VC\Tools\MSVC\14.28.29333\include\algorithm
; File C:\Program Files (x86)\Microsoft Visual Studio\2019\Community\VC\Tools\MSVC\14.28.29333\include\type_traits
; File C:\Program Files (x86)\Microsoft Visual Studio\2019\Community\VC\Tools\MSVC\14.28.29333\include\utility
; File C:\Program Files (x86)\Microsoft Visual Studio\2019\Community\VC\Tools\MSVC\14.28.29333\include\type_traits
; File C:\Program Files (x86)\Microsoft Visual Studio\2019\Community\VC\Tools\MSVC\14.28.29333\include\utility
; File C:\Program Files (x86)\Microsoft Visual Studio\2019\Community\VC\Tools\MSVC\14.28.29333\include\type_traits
; File C:\Program Files (x86)\Microsoft Visual Studio\2019\Community\VC\Tools\MSVC\14.28.29333\include\utility
; File C:\Program Files (x86)\Microsoft Visual Studio\2019\Community\VC\Tools\MSVC\14.28.29333\include\algorithm
;	COMDAT ??$_Partition_by_median_guess_unchecked@PAHU?$less@X@std@@@std@@YA?AU?$pair@PAHPAH@0@PAH0U?$less@X@0@@Z
_TEXT	SEGMENT
$T1 = -180						; size = 4
__Tmp$2 = -176						; size = 4
$T3 = -172						; size = 4
$T4 = -168						; size = 4
$T5 = -164						; size = 4
__Tmp$6 = -160						; size = 4
$T7 = -156						; size = 4
$T8 = -152						; size = 4
$T9 = -148						; size = 4
__Tmp$10 = -144						; size = 4
$T11 = -140						; size = 4
$T12 = -136						; size = 4
$T13 = -132						; size = 4
__Tmp$14 = -128						; size = 4
$T15 = -124						; size = 4
$T16 = -120						; size = 4
$T17 = -116						; size = 4
__Tmp$18 = -112						; size = 4
$T19 = -108						; size = 4
$T20 = -104						; size = 4
$T21 = -100						; size = 4
$T22 = -96						; size = 4
$T23 = -92						; size = 4
__Tmp$24 = -88						; size = 4
$T25 = -84						; size = 4
$T26 = -80						; size = 4
__Left$ = -76						; size = 4
__Right$ = -72						; size = 4
$T27 = -68						; size = 4
__Tmp$28 = -64						; size = 4
$T29 = -60						; size = 4
$T30 = -56						; size = 4
__Right$ = -52						; size = 4
__Left$ = -48						; size = 4
__Right$ = -44						; size = 4
__Left$ = -40						; size = 4
__Right$ = -36						; size = 4
__Left$ = -32						; size = 4
__Left$ = -28						; size = 4
__Right$ = -24						; size = 4
__Right$ = -20						; size = 4
__Left$ = -16						; size = 4
__Right$ = -12						; size = 4
__Left$ = -8						; size = 4
__Right$ = -4						; size = 4
__Left$ = 0						; size = 4
__Left$ = 4						; size = 4
tv167 = 8						; size = 4
tv157 = 12						; size = 4
__Left$ = 16						; size = 4
tv146 = 20						; size = 4
tv137 = 24						; size = 4
tv131 = 28						; size = 4
tv91 = 32						; size = 4
tv83 = 36						; size = 4
tv214 = 40						; size = 4
__Mid$ = 44						; size = 4
__First$ = 48						; size = 4
__First$ = 52						; size = 4
__First$ = 56						; size = 4
__First$ = 60						; size = 4
__First$ = 64						; size = 4
__First$ = 68						; size = 4
__First$ = 72						; size = 4
__First$ = 76						; size = 4
$T31 = 80						; size = 1
$T32 = 81						; size = 1
$T33 = 82						; size = 1
$T34 = 83						; size = 1
$T35 = 84						; size = 1
$T36 = 85						; size = 1
$T37 = 86						; size = 1
$T38 = 87						; size = 1
__Glast$ = 88						; size = 4
__Gfirst$ = 92						; size = 4
__Plast$ = 96						; size = 4
__Pfirst$ = 100						; size = 4
___$ReturnUdt$ = 112					; size = 4
__First$ = 116						; size = 4
__Last$ = 120						; size = 4
__Pred$ = 124						; size = 1
??$_Partition_by_median_guess_unchecked@PAHU?$less@X@std@@@std@@YA?AU?$pair@PAHPAH@0@PAH0U?$less@X@0@@Z PROC ; std::_Partition_by_median_guess_unchecked<int *,std::less<void> >, COMDAT

; 7467 : _CONSTEXPR20 pair<_RanIt, _RanIt> _Partition_by_median_guess_unchecked(_RanIt _First, _RanIt _Last, _Pr _Pred) {

  00000	55		 push	 ebp
  00001	8d 6c 24 98	 lea	 ebp, DWORD PTR [esp-104]
  00005	81 ec 1c 01 00
	00		 sub	 esp, 284		; 0000011cH

; 7468 :     // partition [_First, _Last)
; 7469 :     _RanIt _Mid = _First + ((_Last - _First) >> 1); // shift for codegen

  0000b	8b 45 78	 mov	 eax, DWORD PTR __Last$[ebp]
  0000e	2b 45 74	 sub	 eax, DWORD PTR __First$[ebp]
  00011	c1 f8 02	 sar	 eax, 2
  00014	d1 f8		 sar	 eax, 1
  00016	8b 4d 74	 mov	 ecx, DWORD PTR __First$[ebp]
  00019	8d 04 81	 lea	 eax, DWORD PTR [ecx+eax*4]
  0001c	89 45 2c	 mov	 DWORD PTR __Mid$[ebp], eax

; 7470 :     _Guess_median_unchecked(_First, _Mid, _Prev_iter(_Last), _Pred);

  0001f	8b 45 78	 mov	 eax, DWORD PTR __Last$[ebp]
  00022	89 45 48	 mov	 DWORD PTR __First$[ebp], eax
; File C:\Program Files (x86)\Microsoft Visual Studio\2019\Community\VC\Tools\MSVC\14.28.29333\include\xutility

; 1852 :     return --_First;

  00025	8b 45 48	 mov	 eax, DWORD PTR __First$[ebp]
  00028	83 e8 04	 sub	 eax, 4
  0002b	89 45 48	 mov	 DWORD PTR __First$[ebp], eax
; File C:\Program Files (x86)\Microsoft Visual Studio\2019\Community\VC\Tools\MSVC\14.28.29333\include\algorithm

; 7470 :     _Guess_median_unchecked(_First, _Mid, _Prev_iter(_Last), _Pred);

  0002e	ff 75 7c	 push	 DWORD PTR __Pred$[ebp]
  00031	ff 75 48	 push	 DWORD PTR __First$[ebp]
  00034	ff 75 2c	 push	 DWORD PTR __Mid$[ebp]
  00037	ff 75 74	 push	 DWORD PTR __First$[ebp]
  0003a	e8 00 00 00 00	 call	 ??$_Guess_median_unchecked@PAHU?$less@X@std@@@std@@YAXPAH00U?$less@X@0@@Z ; std::_Guess_median_unchecked<int *,std::less<void> >
  0003f	83 c4 10	 add	 esp, 16			; 00000010H

; 7471 :     _RanIt _Pfirst = _Mid;

  00042	8b 45 2c	 mov	 eax, DWORD PTR __Mid$[ebp]
  00045	89 45 64	 mov	 DWORD PTR __Pfirst$[ebp], eax

; 7472 :     _RanIt _Plast  = _Next_iter(_Pfirst);

  00048	8b 45 64	 mov	 eax, DWORD PTR __Pfirst$[ebp]
  0004b	89 45 44	 mov	 DWORD PTR __First$[ebp], eax
; File C:\Program Files (x86)\Microsoft Visual Studio\2019\Community\VC\Tools\MSVC\14.28.29333\include\xutility

; 1837 :     return ++_First;

  0004e	8b 45 44	 mov	 eax, DWORD PTR __First$[ebp]
  00051	83 c0 04	 add	 eax, 4
  00054	89 45 44	 mov	 DWORD PTR __First$[ebp], eax
; File C:\Program Files (x86)\Microsoft Visual Studio\2019\Community\VC\Tools\MSVC\14.28.29333\include\algorithm

; 7472 :     _RanIt _Plast  = _Next_iter(_Pfirst);

  00057	8b 45 44	 mov	 eax, DWORD PTR __First$[ebp]
  0005a	89 45 60	 mov	 DWORD PTR __Plast$[ebp], eax
$LN2@Partition_:

; 7475 :            && !_Pred(*_Pfirst, *_Prev_iter(_Pfirst))) {

  0005d	8b 45 74	 mov	 eax, DWORD PTR __First$[ebp]
  00060	3b 45 64	 cmp	 eax, DWORD PTR __Pfirst$[ebp]
  00063	0f 83 86 00 00
	00		 jae	 $LN4@Partition_
  00069	8b 45 64	 mov	 eax, DWORD PTR __Pfirst$[ebp]
  0006c	89 45 40	 mov	 DWORD PTR __First$[ebp], eax
; File C:\Program Files (x86)\Microsoft Visual Studio\2019\Community\VC\Tools\MSVC\14.28.29333\include\xutility

; 1852 :     return --_First;

  0006f	8b 45 40	 mov	 eax, DWORD PTR __First$[ebp]
  00072	83 e8 04	 sub	 eax, 4
  00075	89 45 40	 mov	 DWORD PTR __First$[ebp], eax
; File C:\Program Files (x86)\Microsoft Visual Studio\2019\Community\VC\Tools\MSVC\14.28.29333\include\algorithm

; 7475 :            && !_Pred(*_Pfirst, *_Prev_iter(_Pfirst))) {

  00078	8b 45 64	 mov	 eax, DWORD PTR __Pfirst$[ebp]
  0007b	89 45 e8	 mov	 DWORD PTR __Right$[ebp], eax
; File C:\Program Files (x86)\Microsoft Visual Studio\2019\Community\VC\Tools\MSVC\14.28.29333\include\xstddef

; 240  :         return static_cast<_Ty1&&>(_Left) < static_cast<_Ty2&&>(_Right);

  0007e	8b 45 40	 mov	 eax, DWORD PTR __First$[ebp]
  00081	8b 4d e8	 mov	 ecx, DWORD PTR __Right$[ebp]
  00084	8b 00		 mov	 eax, DWORD PTR [eax]
  00086	3b 01		 cmp	 eax, DWORD PTR [ecx]
  00088	7d 09		 jge	 SHORT $LN42@Partition_
  0008a	c7 45 28 01 00
	00 00		 mov	 DWORD PTR tv214[ebp], 1
  00091	eb 04		 jmp	 SHORT $LN43@Partition_
$LN42@Partition_:
  00093	83 65 28 00	 and	 DWORD PTR tv214[ebp], 0
$LN43@Partition_:
  00097	8a 45 28	 mov	 al, BYTE PTR tv214[ebp]
  0009a	88 45 50	 mov	 BYTE PTR $T31[ebp], al
; File C:\Program Files (x86)\Microsoft Visual Studio\2019\Community\VC\Tools\MSVC\14.28.29333\include\algorithm

; 7475 :            && !_Pred(*_Pfirst, *_Prev_iter(_Pfirst))) {

  0009d	0f b6 45 50	 movzx	 eax, BYTE PTR $T31[ebp]
  000a1	85 c0		 test	 eax, eax
  000a3	75 4a		 jne	 SHORT $LN4@Partition_
  000a5	8b 45 64	 mov	 eax, DWORD PTR __Pfirst$[ebp]
  000a8	89 45 3c	 mov	 DWORD PTR __First$[ebp], eax
; File C:\Program Files (x86)\Microsoft Visual Studio\2019\Community\VC\Tools\MSVC\14.28.29333\include\xutility

; 1852 :     return --_First;

  000ab	8b 45 3c	 mov	 eax, DWORD PTR __First$[ebp]
  000ae	83 e8 04	 sub	 eax, 4
  000b1	89 45 3c	 mov	 DWORD PTR __First$[ebp], eax
; File C:\Program Files (x86)\Microsoft Visual Studio\2019\Community\VC\Tools\MSVC\14.28.29333\include\algorithm

; 7475 :            && !_Pred(*_Pfirst, *_Prev_iter(_Pfirst))) {

  000b4	8b 45 64	 mov	 eax, DWORD PTR __Pfirst$[ebp]
  000b7	89 45 e4	 mov	 DWORD PTR __Left$[ebp], eax
; File C:\Program Files (x86)\Microsoft Visual Studio\2019\Community\VC\Tools\MSVC\14.28.29333\include\xstddef

; 240  :         return static_cast<_Ty1&&>(_Left) < static_cast<_Ty2&&>(_Right);

  000ba	8b 45 e4	 mov	 eax, DWORD PTR __Left$[ebp]
  000bd	8b 4d 3c	 mov	 ecx, DWORD PTR __First$[ebp]
  000c0	8b 00		 mov	 eax, DWORD PTR [eax]
  000c2	3b 01		 cmp	 eax, DWORD PTR [ecx]
  000c4	7d 09		 jge	 SHORT $LN49@Partition_
  000c6	c7 45 24 01 00
	00 00		 mov	 DWORD PTR tv83[ebp], 1
  000cd	eb 04		 jmp	 SHORT $LN50@Partition_
$LN49@Partition_:
  000cf	83 65 24 00	 and	 DWORD PTR tv83[ebp], 0
$LN50@Partition_:
  000d3	8a 45 24	 mov	 al, BYTE PTR tv83[ebp]
  000d6	88 45 57	 mov	 BYTE PTR $T38[ebp], al
; File C:\Program Files (x86)\Microsoft Visual Studio\2019\Community\VC\Tools\MSVC\14.28.29333\include\algorithm

; 7475 :            && !_Pred(*_Pfirst, *_Prev_iter(_Pfirst))) {

  000d9	0f b6 45 57	 movzx	 eax, BYTE PTR $T38[ebp]
  000dd	85 c0		 test	 eax, eax
  000df	75 0e		 jne	 SHORT $LN4@Partition_

; 7476 :         --_Pfirst;

  000e1	8b 45 64	 mov	 eax, DWORD PTR __Pfirst$[ebp]
  000e4	83 e8 04	 sub	 eax, 4
  000e7	89 45 64	 mov	 DWORD PTR __Pfirst$[ebp], eax

; 7477 :     }

  000ea	e9 6e ff ff ff	 jmp	 $LN2@Partition_
$LN4@Partition_:

; 7479 :     while (_Plast < _Last && !_DEBUG_LT_PRED(_Pred, *_Plast, *_Pfirst) && !_Pred(*_Pfirst, *_Plast)) {

  000ef	8b 45 60	 mov	 eax, DWORD PTR __Plast$[ebp]
  000f2	3b 45 78	 cmp	 eax, DWORD PTR __Last$[ebp]
  000f5	73 71		 jae	 SHORT $LN5@Partition_
  000f7	8b 45 64	 mov	 eax, DWORD PTR __Pfirst$[ebp]
  000fa	89 45 dc	 mov	 DWORD PTR __Right$[ebp], eax
  000fd	8b 45 60	 mov	 eax, DWORD PTR __Plast$[ebp]
  00100	89 45 e0	 mov	 DWORD PTR __Left$[ebp], eax
; File C:\Program Files (x86)\Microsoft Visual Studio\2019\Community\VC\Tools\MSVC\14.28.29333\include\xstddef

; 240  :         return static_cast<_Ty1&&>(_Left) < static_cast<_Ty2&&>(_Right);

  00103	8b 45 e0	 mov	 eax, DWORD PTR __Left$[ebp]
  00106	8b 4d dc	 mov	 ecx, DWORD PTR __Right$[ebp]
  00109	8b 00		 mov	 eax, DWORD PTR [eax]
  0010b	3b 01		 cmp	 eax, DWORD PTR [ecx]
  0010d	7d 09		 jge	 SHORT $LN54@Partition_
  0010f	c7 45 20 01 00
	00 00		 mov	 DWORD PTR tv91[ebp], 1
  00116	eb 04		 jmp	 SHORT $LN55@Partition_
$LN54@Partition_:
  00118	83 65 20 00	 and	 DWORD PTR tv91[ebp], 0
$LN55@Partition_:
  0011c	8a 45 20	 mov	 al, BYTE PTR tv91[ebp]
  0011f	88 45 56	 mov	 BYTE PTR $T37[ebp], al
; File C:\Program Files (x86)\Microsoft Visual Studio\2019\Community\VC\Tools\MSVC\14.28.29333\include\algorithm

; 7479 :     while (_Plast < _Last && !_DEBUG_LT_PRED(_Pred, *_Plast, *_Pfirst) && !_Pred(*_Pfirst, *_Plast)) {

  00122	0f b6 45 56	 movzx	 eax, BYTE PTR $T37[ebp]
  00126	85 c0		 test	 eax, eax
  00128	75 3e		 jne	 SHORT $LN5@Partition_
  0012a	8b 45 60	 mov	 eax, DWORD PTR __Plast$[ebp]
  0012d	89 45 d4	 mov	 DWORD PTR __Right$[ebp], eax
  00130	8b 45 64	 mov	 eax, DWORD PTR __Pfirst$[ebp]
  00133	89 45 d8	 mov	 DWORD PTR __Left$[ebp], eax
; File C:\Program Files (x86)\Microsoft Visual Studio\2019\Community\VC\Tools\MSVC\14.28.29333\include\xstddef

; 240  :         return static_cast<_Ty1&&>(_Left) < static_cast<_Ty2&&>(_Right);

  00136	8b 45 d8	 mov	 eax, DWORD PTR __Left$[ebp]
  00139	8b 4d d4	 mov	 ecx, DWORD PTR __Right$[ebp]
  0013c	8b 00		 mov	 eax, DWORD PTR [eax]
  0013e	3b 01		 cmp	 eax, DWORD PTR [ecx]
  00140	7d 09		 jge	 SHORT $LN59@Partition_
  00142	c7 45 1c 01 00
	00 00		 mov	 DWORD PTR tv131[ebp], 1
  00149	eb 04		 jmp	 SHORT $LN60@Partition_
$LN59@Partition_:
  0014b	83 65 1c 00	 and	 DWORD PTR tv131[ebp], 0
$LN60@Partition_:
  0014f	8a 45 1c	 mov	 al, BYTE PTR tv131[ebp]
  00152	88 45 55	 mov	 BYTE PTR $T36[ebp], al
; File C:\Program Files (x86)\Microsoft Visual Studio\2019\Community\VC\Tools\MSVC\14.28.29333\include\algorithm

; 7479 :     while (_Plast < _Last && !_DEBUG_LT_PRED(_Pred, *_Plast, *_Pfirst) && !_Pred(*_Pfirst, *_Plast)) {

  00155	0f b6 45 55	 movzx	 eax, BYTE PTR $T36[ebp]
  00159	85 c0		 test	 eax, eax
  0015b	75 0b		 jne	 SHORT $LN5@Partition_

; 7480 :         ++_Plast;

  0015d	8b 45 60	 mov	 eax, DWORD PTR __Plast$[ebp]
  00160	83 c0 04	 add	 eax, 4
  00163	89 45 60	 mov	 DWORD PTR __Plast$[ebp], eax

; 7481 :     }

  00166	eb 87		 jmp	 SHORT $LN4@Partition_
$LN5@Partition_:

; 7482 : 
; 7483 :     _RanIt _Gfirst = _Plast;

  00168	8b 45 60	 mov	 eax, DWORD PTR __Plast$[ebp]
  0016b	89 45 5c	 mov	 DWORD PTR __Gfirst$[ebp], eax

; 7484 :     _RanIt _Glast  = _Pfirst;

  0016e	8b 45 64	 mov	 eax, DWORD PTR __Pfirst$[ebp]
  00171	89 45 58	 mov	 DWORD PTR __Glast$[ebp], eax
$LN8@Partition_:

; 7485 : 
; 7486 :     for (;;) { // partition
; 7487 :         for (; _Gfirst < _Last; ++_Gfirst) {

  00174	eb 09		 jmp	 SHORT $LN11@Partition_
$LN9@Partition_:
  00176	8b 45 5c	 mov	 eax, DWORD PTR __Gfirst$[ebp]
  00179	83 c0 04	 add	 eax, 4
  0017c	89 45 5c	 mov	 DWORD PTR __Gfirst$[ebp], eax
$LN11@Partition_:
  0017f	8b 45 5c	 mov	 eax, DWORD PTR __Gfirst$[ebp]
  00182	3b 45 78	 cmp	 eax, DWORD PTR __Last$[ebp]
  00185	0f 83 ba 00 00
	00		 jae	 $LN10@Partition_

; 7488 :             if (_DEBUG_LT_PRED(_Pred, *_Pfirst, *_Gfirst)) {

  0018b	8b 45 64	 mov	 eax, DWORD PTR __Pfirst$[ebp]
  0018e	89 45 d0	 mov	 DWORD PTR __Left$[ebp], eax
; File C:\Program Files (x86)\Microsoft Visual Studio\2019\Community\VC\Tools\MSVC\14.28.29333\include\xstddef

; 240  :         return static_cast<_Ty1&&>(_Left) < static_cast<_Ty2&&>(_Right);

  00191	8b 45 d0	 mov	 eax, DWORD PTR __Left$[ebp]
  00194	8b 4d 5c	 mov	 ecx, DWORD PTR __Gfirst$[ebp]
  00197	8b 00		 mov	 eax, DWORD PTR [eax]
  00199	3b 01		 cmp	 eax, DWORD PTR [ecx]
  0019b	7d 09		 jge	 SHORT $LN64@Partition_
  0019d	c7 45 18 01 00
	00 00		 mov	 DWORD PTR tv137[ebp], 1
  001a4	eb 04		 jmp	 SHORT $LN65@Partition_
$LN64@Partition_:
  001a6	83 65 18 00	 and	 DWORD PTR tv137[ebp], 0
$LN65@Partition_:
  001aa	8a 45 18	 mov	 al, BYTE PTR tv137[ebp]
  001ad	88 45 54	 mov	 BYTE PTR $T35[ebp], al
; File C:\Program Files (x86)\Microsoft Visual Studio\2019\Community\VC\Tools\MSVC\14.28.29333\include\algorithm

; 7488 :             if (_DEBUG_LT_PRED(_Pred, *_Pfirst, *_Gfirst)) {

  001b0	0f b6 45 54	 movzx	 eax, BYTE PTR $T35[ebp]
  001b4	85 c0		 test	 eax, eax
  001b6	74 07		 je	 SHORT $LN15@Partition_

; 7489 :                 continue;

  001b8	eb bc		 jmp	 SHORT $LN9@Partition_
  001ba	e9 81 00 00 00	 jmp	 $LN16@Partition_
$LN15@Partition_:

; 7490 :             } else if (_Pred(*_Gfirst, *_Pfirst)) {

  001bf	8b 45 64	 mov	 eax, DWORD PTR __Pfirst$[ebp]
  001c2	89 45 cc	 mov	 DWORD PTR __Right$[ebp], eax
; File C:\Program Files (x86)\Microsoft Visual Studio\2019\Community\VC\Tools\MSVC\14.28.29333\include\xstddef

; 240  :         return static_cast<_Ty1&&>(_Left) < static_cast<_Ty2&&>(_Right);

  001c5	8b 45 5c	 mov	 eax, DWORD PTR __Gfirst$[ebp]
  001c8	8b 4d cc	 mov	 ecx, DWORD PTR __Right$[ebp]
  001cb	8b 00		 mov	 eax, DWORD PTR [eax]
  001cd	3b 01		 cmp	 eax, DWORD PTR [ecx]
  001cf	7d 09		 jge	 SHORT $LN69@Partition_
  001d1	c7 45 14 01 00
	00 00		 mov	 DWORD PTR tv146[ebp], 1
  001d8	eb 04		 jmp	 SHORT $LN70@Partition_
$LN69@Partition_:
  001da	83 65 14 00	 and	 DWORD PTR tv146[ebp], 0
$LN70@Partition_:
  001de	8a 45 14	 mov	 al, BYTE PTR tv146[ebp]
  001e1	88 45 53	 mov	 BYTE PTR $T34[ebp], al
; File C:\Program Files (x86)\Microsoft Visual Studio\2019\Community\VC\Tools\MSVC\14.28.29333\include\algorithm

; 7490 :             } else if (_Pred(*_Gfirst, *_Pfirst)) {

  001e4	0f b6 45 53	 movzx	 eax, BYTE PTR $T34[ebp]
  001e8	85 c0		 test	 eax, eax
  001ea	74 04		 je	 SHORT $LN17@Partition_

; 7491 :                 break;

  001ec	eb 57		 jmp	 SHORT $LN10@Partition_
  001ee	eb 50		 jmp	 SHORT $LN16@Partition_
$LN17@Partition_:

; 7492 :             } else if (_Plast != _Gfirst) {

  001f0	8b 45 60	 mov	 eax, DWORD PTR __Plast$[ebp]
  001f3	3b 45 5c	 cmp	 eax, DWORD PTR __Gfirst$[ebp]
  001f6	74 3f		 je	 SHORT $LN19@Partition_

; 7493 :                 _STD iter_swap(_Plast, _Gfirst);

  001f8	8b 45 60	 mov	 eax, DWORD PTR __Plast$[ebp]
  001fb	89 45 10	 mov	 DWORD PTR __Left$[ebp], eax
; File C:\Program Files (x86)\Microsoft Visual Studio\2019\Community\VC\Tools\MSVC\14.28.29333\include\type_traits

; 1455 :     return static_cast<remove_reference_t<_Ty>&&>(_Arg);

  001fe	8b 45 10	 mov	 eax, DWORD PTR __Left$[ebp]
  00201	89 45 c8	 mov	 DWORD PTR $T30[ebp], eax
; File C:\Program Files (x86)\Microsoft Visual Studio\2019\Community\VC\Tools\MSVC\14.28.29333\include\utility

; 104  :     _Ty _Tmp = _STD move(_Left);

  00204	8b 45 c8	 mov	 eax, DWORD PTR $T30[ebp]
  00207	8b 00		 mov	 eax, DWORD PTR [eax]
  00209	89 45 c0	 mov	 DWORD PTR __Tmp$28[ebp], eax
; File C:\Program Files (x86)\Microsoft Visual Studio\2019\Community\VC\Tools\MSVC\14.28.29333\include\type_traits

; 1455 :     return static_cast<remove_reference_t<_Ty>&&>(_Arg);

  0020c	8b 45 5c	 mov	 eax, DWORD PTR __Gfirst$[ebp]
  0020f	89 45 c4	 mov	 DWORD PTR $T29[ebp], eax
; File C:\Program Files (x86)\Microsoft Visual Studio\2019\Community\VC\Tools\MSVC\14.28.29333\include\utility

; 105  :     _Left    = _STD move(_Right);

  00212	8b 45 10	 mov	 eax, DWORD PTR __Left$[ebp]
  00215	8b 4d c4	 mov	 ecx, DWORD PTR $T29[ebp]
  00218	8b 09		 mov	 ecx, DWORD PTR [ecx]
  0021a	89 08		 mov	 DWORD PTR [eax], ecx
; File C:\Program Files (x86)\Microsoft Visual Studio\2019\Community\VC\Tools\MSVC\14.28.29333\include\type_traits

; 1455 :     return static_cast<remove_reference_t<_Ty>&&>(_Arg);

  0021c	8d 45 c0	 lea	 eax, DWORD PTR __Tmp$28[ebp]
  0021f	89 45 bc	 mov	 DWORD PTR $T27[ebp], eax
; File C:\Program Files (x86)\Microsoft Visual Studio\2019\Community\VC\Tools\MSVC\14.28.29333\include\utility

; 106  :     _Right   = _STD move(_Tmp);

  00222	8b 45 5c	 mov	 eax, DWORD PTR __Gfirst$[ebp]
  00225	8b 4d bc	 mov	 ecx, DWORD PTR $T27[ebp]
  00228	8b 09		 mov	 ecx, DWORD PTR [ecx]
  0022a	89 08		 mov	 DWORD PTR [eax], ecx
; File C:\Program Files (x86)\Microsoft Visual Studio\2019\Community\VC\Tools\MSVC\14.28.29333\include\algorithm

; 7494 :                 ++_Plast;

  0022c	8b 45 60	 mov	 eax, DWORD PTR __Plast$[ebp]
  0022f	83 c0 04	 add	 eax, 4
  00232	89 45 60	 mov	 DWORD PTR __Plast$[ebp], eax

; 7495 :             } else {

  00235	eb 09		 jmp	 SHORT $LN16@Partition_
$LN19@Partition_:

; 7496 :                 ++_Plast;

  00237	8b 45 60	 mov	 eax, DWORD PTR __Plast$[ebp]
  0023a	83 c0 04	 add	 eax, 4
  0023d	89 45 60	 mov	 DWORD PTR __Plast$[ebp], eax
$LN16@Partition_:

; 7497 :             }
; 7498 :         }

  00240	e9 31 ff ff ff	 jmp	 $LN9@Partition_
$LN10@Partition_:

; 7499 : 
; 7500 :         for (; _First < _Glast; --_Glast) {

  00245	eb 09		 jmp	 SHORT $LN14@Partition_
$LN12@Partition_:
  00247	8b 45 58	 mov	 eax, DWORD PTR __Glast$[ebp]
  0024a	83 e8 04	 sub	 eax, 4
  0024d	89 45 58	 mov	 DWORD PTR __Glast$[ebp], eax
$LN14@Partition_:
  00250	8b 45 74	 mov	 eax, DWORD PTR __First$[ebp]
  00253	3b 45 58	 cmp	 eax, DWORD PTR __Glast$[ebp]
  00256	0f 83 eb 00 00
	00		 jae	 $LN13@Partition_

; 7501 :             if (_DEBUG_LT_PRED(_Pred, *_Prev_iter(_Glast), *_Pfirst)) {

  0025c	8b 45 58	 mov	 eax, DWORD PTR __Glast$[ebp]
  0025f	89 45 38	 mov	 DWORD PTR __First$[ebp], eax
; File C:\Program Files (x86)\Microsoft Visual Studio\2019\Community\VC\Tools\MSVC\14.28.29333\include\xutility

; 1852 :     return --_First;

  00262	8b 45 38	 mov	 eax, DWORD PTR __First$[ebp]
  00265	83 e8 04	 sub	 eax, 4
  00268	89 45 38	 mov	 DWORD PTR __First$[ebp], eax
; File C:\Program Files (x86)\Microsoft Visual Studio\2019\Community\VC\Tools\MSVC\14.28.29333\include\algorithm

; 7501 :             if (_DEBUG_LT_PRED(_Pred, *_Prev_iter(_Glast), *_Pfirst)) {

  0026b	8b 45 64	 mov	 eax, DWORD PTR __Pfirst$[ebp]
  0026e	89 45 b8	 mov	 DWORD PTR __Right$[ebp], eax
; File C:\Program Files (x86)\Microsoft Visual Studio\2019\Community\VC\Tools\MSVC\14.28.29333\include\xstddef

; 240  :         return static_cast<_Ty1&&>(_Left) < static_cast<_Ty2&&>(_Right);

  00271	8b 45 38	 mov	 eax, DWORD PTR __First$[ebp]
  00274	8b 4d b8	 mov	 ecx, DWORD PTR __Right$[ebp]
  00277	8b 00		 mov	 eax, DWORD PTR [eax]
  00279	3b 01		 cmp	 eax, DWORD PTR [ecx]
  0027b	7d 09		 jge	 SHORT $LN90@Partition_
  0027d	c7 45 0c 01 00
	00 00		 mov	 DWORD PTR tv157[ebp], 1
  00284	eb 04		 jmp	 SHORT $LN91@Partition_
$LN90@Partition_:
  00286	83 65 0c 00	 and	 DWORD PTR tv157[ebp], 0
$LN91@Partition_:
  0028a	8a 45 0c	 mov	 al, BYTE PTR tv157[ebp]
  0028d	88 45 52	 mov	 BYTE PTR $T33[ebp], al
; File C:\Program Files (x86)\Microsoft Visual Studio\2019\Community\VC\Tools\MSVC\14.28.29333\include\algorithm

; 7501 :             if (_DEBUG_LT_PRED(_Pred, *_Prev_iter(_Glast), *_Pfirst)) {

  00290	0f b6 45 52	 movzx	 eax, BYTE PTR $T33[ebp]
  00294	85 c0		 test	 eax, eax
  00296	74 07		 je	 SHORT $LN21@Partition_

; 7502 :                 continue;

  00298	eb ad		 jmp	 SHORT $LN12@Partition_
  0029a	e9 a3 00 00 00	 jmp	 $LN22@Partition_
$LN21@Partition_:

; 7503 :             } else if (_Pred(*_Pfirst, *_Prev_iter(_Glast))) {

  0029f	8b 45 58	 mov	 eax, DWORD PTR __Glast$[ebp]
  002a2	89 45 34	 mov	 DWORD PTR __First$[ebp], eax
; File C:\Program Files (x86)\Microsoft Visual Studio\2019\Community\VC\Tools\MSVC\14.28.29333\include\xutility

; 1852 :     return --_First;

  002a5	8b 45 34	 mov	 eax, DWORD PTR __First$[ebp]
  002a8	83 e8 04	 sub	 eax, 4
  002ab	89 45 34	 mov	 DWORD PTR __First$[ebp], eax
; File C:\Program Files (x86)\Microsoft Visual Studio\2019\Community\VC\Tools\MSVC\14.28.29333\include\algorithm

; 7503 :             } else if (_Pred(*_Pfirst, *_Prev_iter(_Glast))) {

  002ae	8b 45 64	 mov	 eax, DWORD PTR __Pfirst$[ebp]
  002b1	89 45 b4	 mov	 DWORD PTR __Left$[ebp], eax
; File C:\Program Files (x86)\Microsoft Visual Studio\2019\Community\VC\Tools\MSVC\14.28.29333\include\xstddef

; 240  :         return static_cast<_Ty1&&>(_Left) < static_cast<_Ty2&&>(_Right);

  002b4	8b 45 b4	 mov	 eax, DWORD PTR __Left$[ebp]
  002b7	8b 4d 34	 mov	 ecx, DWORD PTR __First$[ebp]
  002ba	8b 00		 mov	 eax, DWORD PTR [eax]
  002bc	3b 01		 cmp	 eax, DWORD PTR [ecx]
  002be	7d 09		 jge	 SHORT $LN97@Partition_
  002c0	c7 45 08 01 00
	00 00		 mov	 DWORD PTR tv167[ebp], 1
  002c7	eb 04		 jmp	 SHORT $LN98@Partition_
$LN97@Partition_:
  002c9	83 65 08 00	 and	 DWORD PTR tv167[ebp], 0
$LN98@Partition_:
  002cd	8a 45 08	 mov	 al, BYTE PTR tv167[ebp]
  002d0	88 45 51	 mov	 BYTE PTR $T32[ebp], al
; File C:\Program Files (x86)\Microsoft Visual Studio\2019\Community\VC\Tools\MSVC\14.28.29333\include\algorithm

; 7503 :             } else if (_Pred(*_Pfirst, *_Prev_iter(_Glast))) {

  002d3	0f b6 45 51	 movzx	 eax, BYTE PTR $T32[ebp]
  002d7	85 c0		 test	 eax, eax
  002d9	74 04		 je	 SHORT $LN23@Partition_

; 7504 :                 break;

  002db	eb 6a		 jmp	 SHORT $LN13@Partition_
  002dd	eb 63		 jmp	 SHORT $LN22@Partition_
$LN23@Partition_:

; 7505 :             } else if (--_Pfirst != _Prev_iter(_Glast)) {

  002df	8b 45 64	 mov	 eax, DWORD PTR __Pfirst$[ebp]
  002e2	83 e8 04	 sub	 eax, 4
  002e5	89 45 64	 mov	 DWORD PTR __Pfirst$[ebp], eax
  002e8	8b 45 58	 mov	 eax, DWORD PTR __Glast$[ebp]
  002eb	89 45 30	 mov	 DWORD PTR __First$[ebp], eax
; File C:\Program Files (x86)\Microsoft Visual Studio\2019\Community\VC\Tools\MSVC\14.28.29333\include\xutility

; 1852 :     return --_First;

  002ee	8b 45 30	 mov	 eax, DWORD PTR __First$[ebp]
  002f1	83 e8 04	 sub	 eax, 4
  002f4	89 45 30	 mov	 DWORD PTR __First$[ebp], eax
; File C:\Program Files (x86)\Microsoft Visual Studio\2019\Community\VC\Tools\MSVC\14.28.29333\include\algorithm

; 7505 :             } else if (--_Pfirst != _Prev_iter(_Glast)) {

  002f7	8b 45 64	 mov	 eax, DWORD PTR __Pfirst$[ebp]
  002fa	3b 45 30	 cmp	 eax, DWORD PTR __First$[ebp]
  002fd	74 43		 je	 SHORT $LN22@Partition_

; 7506 :                 _STD iter_swap(_Pfirst, _Prev_iter(_Glast));

  002ff	8b 45 58	 mov	 eax, DWORD PTR __Glast$[ebp]
  00302	89 45 4c	 mov	 DWORD PTR __First$[ebp], eax
; File C:\Program Files (x86)\Microsoft Visual Studio\2019\Community\VC\Tools\MSVC\14.28.29333\include\xutility

; 1852 :     return --_First;

  00305	8b 45 4c	 mov	 eax, DWORD PTR __First$[ebp]
  00308	83 e8 04	 sub	 eax, 4
  0030b	89 45 4c	 mov	 DWORD PTR __First$[ebp], eax
; File C:\Program Files (x86)\Microsoft Visual Studio\2019\Community\VC\Tools\MSVC\14.28.29333\include\algorithm

; 7506 :                 _STD iter_swap(_Pfirst, _Prev_iter(_Glast));

  0030e	8b 45 64	 mov	 eax, DWORD PTR __Pfirst$[ebp]
  00311	89 45 04	 mov	 DWORD PTR __Left$[ebp], eax
; File C:\Program Files (x86)\Microsoft Visual Studio\2019\Community\VC\Tools\MSVC\14.28.29333\include\type_traits

; 1455 :     return static_cast<remove_reference_t<_Ty>&&>(_Arg);

  00314	8b 45 04	 mov	 eax, DWORD PTR __Left$[ebp]
  00317	89 45 b0	 mov	 DWORD PTR $T26[ebp], eax
; File C:\Program Files (x86)\Microsoft Visual Studio\2019\Community\VC\Tools\MSVC\14.28.29333\include\utility

; 104  :     _Ty _Tmp = _STD move(_Left);

  0031a	8b 45 b0	 mov	 eax, DWORD PTR $T26[ebp]
  0031d	8b 00		 mov	 eax, DWORD PTR [eax]
  0031f	89 45 a8	 mov	 DWORD PTR __Tmp$24[ebp], eax
; File C:\Program Files (x86)\Microsoft Visual Studio\2019\Community\VC\Tools\MSVC\14.28.29333\include\type_traits

; 1455 :     return static_cast<remove_reference_t<_Ty>&&>(_Arg);

  00322	8b 45 4c	 mov	 eax, DWORD PTR __First$[ebp]
  00325	89 45 ac	 mov	 DWORD PTR $T25[ebp], eax
; File C:\Program Files (x86)\Microsoft Visual Studio\2019\Community\VC\Tools\MSVC\14.28.29333\include\utility

; 105  :     _Left    = _STD move(_Right);

  00328	8b 45 04	 mov	 eax, DWORD PTR __Left$[ebp]
  0032b	8b 4d ac	 mov	 ecx, DWORD PTR $T25[ebp]
  0032e	8b 09		 mov	 ecx, DWORD PTR [ecx]
  00330	89 08		 mov	 DWORD PTR [eax], ecx
; File C:\Program Files (x86)\Microsoft Visual Studio\2019\Community\VC\Tools\MSVC\14.28.29333\include\type_traits

; 1455 :     return static_cast<remove_reference_t<_Ty>&&>(_Arg);

  00332	8d 45 a8	 lea	 eax, DWORD PTR __Tmp$24[ebp]
  00335	89 45 a4	 mov	 DWORD PTR $T23[ebp], eax
; File C:\Program Files (x86)\Microsoft Visual Studio\2019\Community\VC\Tools\MSVC\14.28.29333\include\utility

; 106  :     _Right   = _STD move(_Tmp);

  00338	8b 45 4c	 mov	 eax, DWORD PTR __First$[ebp]
  0033b	8b 4d a4	 mov	 ecx, DWORD PTR $T23[ebp]
  0033e	8b 09		 mov	 ecx, DWORD PTR [ecx]
  00340	89 08		 mov	 DWORD PTR [eax], ecx
$LN22@Partition_:
; File C:\Program Files (x86)\Microsoft Visual Studio\2019\Community\VC\Tools\MSVC\14.28.29333\include\algorithm

; 7508 :         }

  00342	e9 00 ff ff ff	 jmp	 $LN12@Partition_
$LN13@Partition_:

; 7509 : 
; 7510 :         if (_Glast == _First && _Gfirst == _Last) {

  00347	8b 45 58	 mov	 eax, DWORD PTR __Glast$[ebp]
  0034a	3b 45 74	 cmp	 eax, DWORD PTR __First$[ebp]
  0034d	75 31		 jne	 SHORT $LN26@Partition_
  0034f	8b 45 5c	 mov	 eax, DWORD PTR __Gfirst$[ebp]
  00352	3b 45 78	 cmp	 eax, DWORD PTR __Last$[ebp]
  00355	75 29		 jne	 SHORT $LN26@Partition_
; File C:\Program Files (x86)\Microsoft Visual Studio\2019\Community\VC\Tools\MSVC\14.28.29333\include\type_traits

; 1443 :     return static_cast<_Ty&&>(_Arg);

  00357	8d 45 64	 lea	 eax, DWORD PTR __Pfirst$[ebp]
  0035a	89 45 a0	 mov	 DWORD PTR $T22[ebp], eax
; File C:\Program Files (x86)\Microsoft Visual Studio\2019\Community\VC\Tools\MSVC\14.28.29333\include\utility

; 190  :         : first(_STD forward<_Other1>(_Val1)), second(_STD forward<_Other2>(_Val2)) {}

  0035d	8b 45 70	 mov	 eax, DWORD PTR ___$ReturnUdt$[ebp]
  00360	8b 4d a0	 mov	 ecx, DWORD PTR $T22[ebp]
  00363	8b 09		 mov	 ecx, DWORD PTR [ecx]
  00365	89 08		 mov	 DWORD PTR [eax], ecx
; File C:\Program Files (x86)\Microsoft Visual Studio\2019\Community\VC\Tools\MSVC\14.28.29333\include\type_traits

; 1443 :     return static_cast<_Ty&&>(_Arg);

  00367	8d 45 60	 lea	 eax, DWORD PTR __Plast$[ebp]
  0036a	89 45 9c	 mov	 DWORD PTR $T21[ebp], eax
; File C:\Program Files (x86)\Microsoft Visual Studio\2019\Community\VC\Tools\MSVC\14.28.29333\include\utility

; 190  :         : first(_STD forward<_Other1>(_Val1)), second(_STD forward<_Other2>(_Val2)) {}

  0036d	8b 45 70	 mov	 eax, DWORD PTR ___$ReturnUdt$[ebp]
  00370	8b 4d 9c	 mov	 ecx, DWORD PTR $T21[ebp]
  00373	8b 09		 mov	 ecx, DWORD PTR [ecx]
  00375	89 48 04	 mov	 DWORD PTR [eax+4], ecx
; File C:\Program Files (x86)\Microsoft Visual Studio\2019\Community\VC\Tools\MSVC\14.28.29333\include\algorithm

; 7511 :             return pair<_RanIt, _RanIt>(_Pfirst, _Plast);

  00378	8b 45 70	 mov	 eax, DWORD PTR ___$ReturnUdt$[ebp]
  0037b	e9 d4 01 00 00	 jmp	 $LN1@Partition_
$LN26@Partition_:

; 7512 :         }
; 7513 : 
; 7514 :         if (_Glast == _First) { // no room at bottom, rotate pivot upward

  00380	8b 45 58	 mov	 eax, DWORD PTR __Glast$[ebp]
  00383	3b 45 74	 cmp	 eax, DWORD PTR __First$[ebp]
  00386	0f 85 9c 00 00
	00		 jne	 $LN27@Partition_

; 7515 :             if (_Plast != _Gfirst) {

  0038c	8b 45 60	 mov	 eax, DWORD PTR __Plast$[ebp]
  0038f	3b 45 5c	 cmp	 eax, DWORD PTR __Gfirst$[ebp]
  00392	74 3a		 je	 SHORT $LN29@Partition_

; 7516 :                 _STD iter_swap(_Pfirst, _Plast);

  00394	8b 45 60	 mov	 eax, DWORD PTR __Plast$[ebp]
  00397	89 45 fc	 mov	 DWORD PTR __Right$[ebp], eax
  0039a	8b 45 64	 mov	 eax, DWORD PTR __Pfirst$[ebp]
  0039d	89 45 00	 mov	 DWORD PTR __Left$[ebp], eax
; File C:\Program Files (x86)\Microsoft Visual Studio\2019\Community\VC\Tools\MSVC\14.28.29333\include\type_traits

; 1455 :     return static_cast<remove_reference_t<_Ty>&&>(_Arg);

  003a0	8b 45 00	 mov	 eax, DWORD PTR __Left$[ebp]
  003a3	89 45 98	 mov	 DWORD PTR $T20[ebp], eax
; File C:\Program Files (x86)\Microsoft Visual Studio\2019\Community\VC\Tools\MSVC\14.28.29333\include\utility

; 104  :     _Ty _Tmp = _STD move(_Left);

  003a6	8b 45 98	 mov	 eax, DWORD PTR $T20[ebp]
  003a9	8b 00		 mov	 eax, DWORD PTR [eax]
  003ab	89 45 90	 mov	 DWORD PTR __Tmp$18[ebp], eax
; File C:\Program Files (x86)\Microsoft Visual Studio\2019\Community\VC\Tools\MSVC\14.28.29333\include\type_traits

; 1455 :     return static_cast<remove_reference_t<_Ty>&&>(_Arg);

  003ae	8b 45 fc	 mov	 eax, DWORD PTR __Right$[ebp]
  003b1	89 45 94	 mov	 DWORD PTR $T19[ebp], eax
; File C:\Program Files (x86)\Microsoft Visual Studio\2019\Community\VC\Tools\MSVC\14.28.29333\include\utility

; 105  :     _Left    = _STD move(_Right);

  003b4	8b 45 00	 mov	 eax, DWORD PTR __Left$[ebp]
  003b7	8b 4d 94	 mov	 ecx, DWORD PTR $T19[ebp]
  003ba	8b 09		 mov	 ecx, DWORD PTR [ecx]
  003bc	89 08		 mov	 DWORD PTR [eax], ecx
; File C:\Program Files (x86)\Microsoft Visual Studio\2019\Community\VC\Tools\MSVC\14.28.29333\include\type_traits

; 1455 :     return static_cast<remove_reference_t<_Ty>&&>(_Arg);

  003be	8d 45 90	 lea	 eax, DWORD PTR __Tmp$18[ebp]
  003c1	89 45 8c	 mov	 DWORD PTR $T17[ebp], eax
; File C:\Program Files (x86)\Microsoft Visual Studio\2019\Community\VC\Tools\MSVC\14.28.29333\include\utility

; 106  :     _Right   = _STD move(_Tmp);

  003c4	8b 45 fc	 mov	 eax, DWORD PTR __Right$[ebp]
  003c7	8b 4d 8c	 mov	 ecx, DWORD PTR $T17[ebp]
  003ca	8b 09		 mov	 ecx, DWORD PTR [ecx]
  003cc	89 08		 mov	 DWORD PTR [eax], ecx
$LN29@Partition_:
; File C:\Program Files (x86)\Microsoft Visual Studio\2019\Community\VC\Tools\MSVC\14.28.29333\include\algorithm

; 7519 :             ++_Plast;

  003ce	8b 45 60	 mov	 eax, DWORD PTR __Plast$[ebp]
  003d1	83 c0 04	 add	 eax, 4
  003d4	89 45 60	 mov	 DWORD PTR __Plast$[ebp], eax

; 7520 :             _STD iter_swap(_Pfirst, _Gfirst);

  003d7	8b 45 64	 mov	 eax, DWORD PTR __Pfirst$[ebp]
  003da	89 45 f8	 mov	 DWORD PTR __Left$[ebp], eax
; File C:\Program Files (x86)\Microsoft Visual Studio\2019\Community\VC\Tools\MSVC\14.28.29333\include\type_traits

; 1455 :     return static_cast<remove_reference_t<_Ty>&&>(_Arg);

  003dd	8b 45 f8	 mov	 eax, DWORD PTR __Left$[ebp]
  003e0	89 45 88	 mov	 DWORD PTR $T16[ebp], eax
; File C:\Program Files (x86)\Microsoft Visual Studio\2019\Community\VC\Tools\MSVC\14.28.29333\include\utility

; 104  :     _Ty _Tmp = _STD move(_Left);

  003e3	8b 45 88	 mov	 eax, DWORD PTR $T16[ebp]
  003e6	8b 00		 mov	 eax, DWORD PTR [eax]
  003e8	89 45 80	 mov	 DWORD PTR __Tmp$14[ebp], eax
; File C:\Program Files (x86)\Microsoft Visual Studio\2019\Community\VC\Tools\MSVC\14.28.29333\include\type_traits

; 1455 :     return static_cast<remove_reference_t<_Ty>&&>(_Arg);

  003eb	8b 45 5c	 mov	 eax, DWORD PTR __Gfirst$[ebp]
  003ee	89 45 84	 mov	 DWORD PTR $T15[ebp], eax
; File C:\Program Files (x86)\Microsoft Visual Studio\2019\Community\VC\Tools\MSVC\14.28.29333\include\utility

; 105  :     _Left    = _STD move(_Right);

  003f1	8b 45 f8	 mov	 eax, DWORD PTR __Left$[ebp]
  003f4	8b 4d 84	 mov	 ecx, DWORD PTR $T15[ebp]
  003f7	8b 09		 mov	 ecx, DWORD PTR [ecx]
  003f9	89 08		 mov	 DWORD PTR [eax], ecx
; File C:\Program Files (x86)\Microsoft Visual Studio\2019\Community\VC\Tools\MSVC\14.28.29333\include\type_traits

; 1455 :     return static_cast<remove_reference_t<_Ty>&&>(_Arg);

  003fb	8d 45 80	 lea	 eax, DWORD PTR __Tmp$14[ebp]
  003fe	89 85 7c ff ff
	ff		 mov	 DWORD PTR $T13[ebp], eax
; File C:\Program Files (x86)\Microsoft Visual Studio\2019\Community\VC\Tools\MSVC\14.28.29333\include\utility

; 106  :     _Right   = _STD move(_Tmp);

  00404	8b 45 5c	 mov	 eax, DWORD PTR __Gfirst$[ebp]
  00407	8b 8d 7c ff ff
	ff		 mov	 ecx, DWORD PTR $T13[ebp]
  0040d	8b 09		 mov	 ecx, DWORD PTR [ecx]
  0040f	89 08		 mov	 DWORD PTR [eax], ecx
; File C:\Program Files (x86)\Microsoft Visual Studio\2019\Community\VC\Tools\MSVC\14.28.29333\include\algorithm

; 7521 :             ++_Pfirst;

  00411	8b 45 64	 mov	 eax, DWORD PTR __Pfirst$[ebp]
  00414	83 c0 04	 add	 eax, 4
  00417	89 45 64	 mov	 DWORD PTR __Pfirst$[ebp], eax

; 7522 :             ++_Gfirst;

  0041a	8b 45 5c	 mov	 eax, DWORD PTR __Gfirst$[ebp]
  0041d	83 c0 04	 add	 eax, 4
  00420	89 45 5c	 mov	 DWORD PTR __Gfirst$[ebp], eax
  00423	e9 27 01 00 00	 jmp	 $LN28@Partition_
$LN27@Partition_:

; 7523 :         } else if (_Gfirst == _Last) { // no room at top, rotate pivot downward

  00428	8b 45 5c	 mov	 eax, DWORD PTR __Gfirst$[ebp]
  0042b	3b 45 78	 cmp	 eax, DWORD PTR __Last$[ebp]
  0042e	0f 85 c3 00 00
	00		 jne	 $LN30@Partition_

; 7524 :             if (--_Glast != --_Pfirst) {

  00434	8b 45 58	 mov	 eax, DWORD PTR __Glast$[ebp]
  00437	83 e8 04	 sub	 eax, 4
  0043a	89 45 58	 mov	 DWORD PTR __Glast$[ebp], eax
  0043d	8b 45 64	 mov	 eax, DWORD PTR __Pfirst$[ebp]
  00440	83 e8 04	 sub	 eax, 4
  00443	89 45 64	 mov	 DWORD PTR __Pfirst$[ebp], eax
  00446	8b 45 58	 mov	 eax, DWORD PTR __Glast$[ebp]
  00449	3b 45 64	 cmp	 eax, DWORD PTR __Pfirst$[ebp]
  0044c	74 4c		 je	 SHORT $LN32@Partition_

; 7525 :                 _STD iter_swap(_Glast, _Pfirst);

  0044e	8b 45 64	 mov	 eax, DWORD PTR __Pfirst$[ebp]
  00451	89 45 f4	 mov	 DWORD PTR __Right$[ebp], eax
; File C:\Program Files (x86)\Microsoft Visual Studio\2019\Community\VC\Tools\MSVC\14.28.29333\include\type_traits

; 1455 :     return static_cast<remove_reference_t<_Ty>&&>(_Arg);

  00454	8b 45 58	 mov	 eax, DWORD PTR __Glast$[ebp]
  00457	89 85 78 ff ff
	ff		 mov	 DWORD PTR $T12[ebp], eax
; File C:\Program Files (x86)\Microsoft Visual Studio\2019\Community\VC\Tools\MSVC\14.28.29333\include\utility

; 104  :     _Ty _Tmp = _STD move(_Left);

  0045d	8b 85 78 ff ff
	ff		 mov	 eax, DWORD PTR $T12[ebp]
  00463	8b 00		 mov	 eax, DWORD PTR [eax]
  00465	89 85 70 ff ff
	ff		 mov	 DWORD PTR __Tmp$10[ebp], eax
; File C:\Program Files (x86)\Microsoft Visual Studio\2019\Community\VC\Tools\MSVC\14.28.29333\include\type_traits

; 1455 :     return static_cast<remove_reference_t<_Ty>&&>(_Arg);

  0046b	8b 45 f4	 mov	 eax, DWORD PTR __Right$[ebp]
  0046e	89 85 74 ff ff
	ff		 mov	 DWORD PTR $T11[ebp], eax
; File C:\Program Files (x86)\Microsoft Visual Studio\2019\Community\VC\Tools\MSVC\14.28.29333\include\utility

; 105  :     _Left    = _STD move(_Right);

  00474	8b 45 58	 mov	 eax, DWORD PTR __Glast$[ebp]
  00477	8b 8d 74 ff ff
	ff		 mov	 ecx, DWORD PTR $T11[ebp]
  0047d	8b 09		 mov	 ecx, DWORD PTR [ecx]
  0047f	89 08		 mov	 DWORD PTR [eax], ecx
; File C:\Program Files (x86)\Microsoft Visual Studio\2019\Community\VC\Tools\MSVC\14.28.29333\include\type_traits

; 1455 :     return static_cast<remove_reference_t<_Ty>&&>(_Arg);

  00481	8d 85 70 ff ff
	ff		 lea	 eax, DWORD PTR __Tmp$10[ebp]
  00487	89 85 6c ff ff
	ff		 mov	 DWORD PTR $T9[ebp], eax
; File C:\Program Files (x86)\Microsoft Visual Studio\2019\Community\VC\Tools\MSVC\14.28.29333\include\utility

; 106  :     _Right   = _STD move(_Tmp);

  0048d	8b 45 f4	 mov	 eax, DWORD PTR __Right$[ebp]
  00490	8b 8d 6c ff ff
	ff		 mov	 ecx, DWORD PTR $T9[ebp]
  00496	8b 09		 mov	 ecx, DWORD PTR [ecx]
  00498	89 08		 mov	 DWORD PTR [eax], ecx
$LN32@Partition_:
; File C:\Program Files (x86)\Microsoft Visual Studio\2019\Community\VC\Tools\MSVC\14.28.29333\include\algorithm

; 7528 :             _STD iter_swap(_Pfirst, --_Plast);

  0049a	8b 45 60	 mov	 eax, DWORD PTR __Plast$[ebp]
  0049d	83 e8 04	 sub	 eax, 4
  004a0	89 45 60	 mov	 DWORD PTR __Plast$[ebp], eax
  004a3	8b 45 60	 mov	 eax, DWORD PTR __Plast$[ebp]
  004a6	89 45 ec	 mov	 DWORD PTR __Right$[ebp], eax
  004a9	8b 45 64	 mov	 eax, DWORD PTR __Pfirst$[ebp]
  004ac	89 45 f0	 mov	 DWORD PTR __Left$[ebp], eax
; File C:\Program Files (x86)\Microsoft Visual Studio\2019\Community\VC\Tools\MSVC\14.28.29333\include\type_traits

; 1455 :     return static_cast<remove_reference_t<_Ty>&&>(_Arg);

  004af	8b 45 f0	 mov	 eax, DWORD PTR __Left$[ebp]
  004b2	89 85 68 ff ff
	ff		 mov	 DWORD PTR $T8[ebp], eax
; File C:\Program Files (x86)\Microsoft Visual Studio\2019\Community\VC\Tools\MSVC\14.28.29333\include\utility

; 104  :     _Ty _Tmp = _STD move(_Left);

  004b8	8b 85 68 ff ff
	ff		 mov	 eax, DWORD PTR $T8[ebp]
  004be	8b 00		 mov	 eax, DWORD PTR [eax]
  004c0	89 85 60 ff ff
	ff		 mov	 DWORD PTR __Tmp$6[ebp], eax
; File C:\Program Files (x86)\Microsoft Visual Studio\2019\Community\VC\Tools\MSVC\14.28.29333\include\type_traits

; 1455 :     return static_cast<remove_reference_t<_Ty>&&>(_Arg);

  004c6	8b 45 ec	 mov	 eax, DWORD PTR __Right$[ebp]
  004c9	89 85 64 ff ff
	ff		 mov	 DWORD PTR $T7[ebp], eax
; File C:\Program Files (x86)\Microsoft Visual Studio\2019\Community\VC\Tools\MSVC\14.28.29333\include\utility

; 105  :     _Left    = _STD move(_Right);

  004cf	8b 45 f0	 mov	 eax, DWORD PTR __Left$[ebp]
  004d2	8b 8d 64 ff ff
	ff		 mov	 ecx, DWORD PTR $T7[ebp]
  004d8	8b 09		 mov	 ecx, DWORD PTR [ecx]
  004da	89 08		 mov	 DWORD PTR [eax], ecx
; File C:\Program Files (x86)\Microsoft Visual Studio\2019\Community\VC\Tools\MSVC\14.28.29333\include\type_traits

; 1455 :     return static_cast<remove_reference_t<_Ty>&&>(_Arg);

  004dc	8d 85 60 ff ff
	ff		 lea	 eax, DWORD PTR __Tmp$6[ebp]
  004e2	89 85 5c ff ff
	ff		 mov	 DWORD PTR $T5[ebp], eax
; File C:\Program Files (x86)\Microsoft Visual Studio\2019\Community\VC\Tools\MSVC\14.28.29333\include\utility

; 106  :     _Right   = _STD move(_Tmp);

  004e8	8b 45 ec	 mov	 eax, DWORD PTR __Right$[ebp]
  004eb	8b 8d 5c ff ff
	ff		 mov	 ecx, DWORD PTR $T5[ebp]
  004f1	8b 09		 mov	 ecx, DWORD PTR [ecx]
  004f3	89 08		 mov	 DWORD PTR [eax], ecx
; File C:\Program Files (x86)\Microsoft Visual Studio\2019\Community\VC\Tools\MSVC\14.28.29333\include\algorithm

; 7529 :         } else {

  004f5	eb 58		 jmp	 SHORT $LN28@Partition_
$LN30@Partition_:

; 7530 :             _STD iter_swap(_Gfirst, --_Glast);

  004f7	8b 45 58	 mov	 eax, DWORD PTR __Glast$[ebp]
  004fa	83 e8 04	 sub	 eax, 4
  004fd	89 45 58	 mov	 DWORD PTR __Glast$[ebp], eax
; File C:\Program Files (x86)\Microsoft Visual Studio\2019\Community\VC\Tools\MSVC\14.28.29333\include\type_traits

; 1455 :     return static_cast<remove_reference_t<_Ty>&&>(_Arg);

  00500	8b 45 5c	 mov	 eax, DWORD PTR __Gfirst$[ebp]
  00503	89 85 58 ff ff
	ff		 mov	 DWORD PTR $T4[ebp], eax
; File C:\Program Files (x86)\Microsoft Visual Studio\2019\Community\VC\Tools\MSVC\14.28.29333\include\utility

; 104  :     _Ty _Tmp = _STD move(_Left);

  00509	8b 85 58 ff ff
	ff		 mov	 eax, DWORD PTR $T4[ebp]
  0050f	8b 00		 mov	 eax, DWORD PTR [eax]
  00511	89 85 50 ff ff
	ff		 mov	 DWORD PTR __Tmp$2[ebp], eax
; File C:\Program Files (x86)\Microsoft Visual Studio\2019\Community\VC\Tools\MSVC\14.28.29333\include\type_traits

; 1455 :     return static_cast<remove_reference_t<_Ty>&&>(_Arg);

  00517	8b 45 58	 mov	 eax, DWORD PTR __Glast$[ebp]
  0051a	89 85 54 ff ff
	ff		 mov	 DWORD PTR $T3[ebp], eax
; File C:\Program Files (x86)\Microsoft Visual Studio\2019\Community\VC\Tools\MSVC\14.28.29333\include\utility

; 105  :     _Left    = _STD move(_Right);

  00520	8b 45 5c	 mov	 eax, DWORD PTR __Gfirst$[ebp]
  00523	8b 8d 54 ff ff
	ff		 mov	 ecx, DWORD PTR $T3[ebp]
  00529	8b 09		 mov	 ecx, DWORD PTR [ecx]
  0052b	89 08		 mov	 DWORD PTR [eax], ecx
; File C:\Program Files (x86)\Microsoft Visual Studio\2019\Community\VC\Tools\MSVC\14.28.29333\include\type_traits

; 1455 :     return static_cast<remove_reference_t<_Ty>&&>(_Arg);

  0052d	8d 85 50 ff ff
	ff		 lea	 eax, DWORD PTR __Tmp$2[ebp]
  00533	89 85 4c ff ff
	ff		 mov	 DWORD PTR $T1[ebp], eax
; File C:\Program Files (x86)\Microsoft Visual Studio\2019\Community\VC\Tools\MSVC\14.28.29333\include\utility

; 106  :     _Right   = _STD move(_Tmp);

  00539	8b 45 58	 mov	 eax, DWORD PTR __Glast$[ebp]
  0053c	8b 8d 4c ff ff
	ff		 mov	 ecx, DWORD PTR $T1[ebp]
  00542	8b 09		 mov	 ecx, DWORD PTR [ecx]
  00544	89 08		 mov	 DWORD PTR [eax], ecx
; File C:\Program Files (x86)\Microsoft Visual Studio\2019\Community\VC\Tools\MSVC\14.28.29333\include\algorithm

; 7531 :             ++_Gfirst;

  00546	8b 45 5c	 mov	 eax, DWORD PTR __Gfirst$[ebp]
  00549	83 c0 04	 add	 eax, 4
  0054c	89 45 5c	 mov	 DWORD PTR __Gfirst$[ebp], eax
$LN28@Partition_:

; 7532 :         }
; 7533 :     }

  0054f	e9 20 fc ff ff	 jmp	 $LN8@Partition_
$LN1@Partition_:

; 7534 : }

  00554	83 c5 68	 add	 ebp, 104		; 00000068H
  00557	c9		 leave
  00558	c3		 ret	 0
??$_Partition_by_median_guess_unchecked@PAHU?$less@X@std@@@std@@YA?AU?$pair@PAHPAH@0@PAH0U?$less@X@0@@Z ENDP ; std::_Partition_by_median_guess_unchecked<int *,std::less<void> >
_TEXT	ENDS
; Function compile flags: /Odspy
; File C:\Program Files (x86)\Microsoft Visual Studio\2019\Community\VC\Tools\MSVC\14.28.29333\include\algorithm
; File C:\Program Files (x86)\Microsoft Visual Studio\2019\Community\VC\Tools\MSVC\14.28.29333\include\type_traits
; File C:\Program Files (x86)\Microsoft Visual Studio\2019\Community\VC\Tools\MSVC\14.28.29333\include\algorithm
; File C:\Program Files (x86)\Microsoft Visual Studio\2019\Community\VC\Tools\MSVC\14.28.29333\include\type_traits
; File C:\Program Files (x86)\Microsoft Visual Studio\2019\Community\VC\Tools\MSVC\14.28.29333\include\algorithm
;	COMDAT ??$_Make_heap_unchecked@PAHU?$less@X@std@@@std@@YAXPAH0U?$less@X@0@@Z
_TEXT	SEGMENT
$T1 = -20						; size = 4
__Val$2 = -16						; size = 4
$T3 = -12						; size = 4
__Bottom$ = -8						; size = 4
__Hole$4 = -4						; size = 4
__First$ = 8						; size = 4
__Last$ = 12						; size = 4
__Pred$ = 16						; size = 1
??$_Make_heap_unchecked@PAHU?$less@X@std@@@std@@YAXPAH0U?$less@X@0@@Z PROC ; std::_Make_heap_unchecked<int *,std::less<void> >, COMDAT

; 6357 : _CONSTEXPR20 void _Make_heap_unchecked(_RanIt _First, _RanIt _Last, _Pr _Pred) {

  00000	55		 push	 ebp
  00001	8b ec		 mov	 ebp, esp
  00003	83 ec 14	 sub	 esp, 20			; 00000014H

; 6358 :     // make [_First, _Last) into a heap
; 6359 :     using _Diff   = _Iter_diff_t<_RanIt>;
; 6360 :     _Diff _Bottom = _Last - _First;

  00006	8b 45 0c	 mov	 eax, DWORD PTR __Last$[ebp]
  00009	2b 45 08	 sub	 eax, DWORD PTR __First$[ebp]
  0000c	c1 f8 02	 sar	 eax, 2
  0000f	89 45 f8	 mov	 DWORD PTR __Bottom$[ebp], eax

; 6361 :     for (_Diff _Hole = _Bottom >> 1; _Hole > 0;) { // shift for codegen

  00012	8b 45 f8	 mov	 eax, DWORD PTR __Bottom$[ebp]
  00015	d1 f8		 sar	 eax, 1
  00017	89 45 fc	 mov	 DWORD PTR __Hole$4[ebp], eax
$LN4@Make_heap_:
  0001a	83 7d fc 00	 cmp	 DWORD PTR __Hole$4[ebp], 0
  0001e	7e 3a		 jle	 SHORT $LN1@Make_heap_

; 6362 :         // reheap top half, bottom to top
; 6363 :         --_Hole;

  00020	8b 45 fc	 mov	 eax, DWORD PTR __Hole$4[ebp]
  00023	48		 dec	 eax
  00024	89 45 fc	 mov	 DWORD PTR __Hole$4[ebp], eax

; 6364 :         _Iter_value_t<_RanIt> _Val = _STD move(*(_First + _Hole));

  00027	8b 45 fc	 mov	 eax, DWORD PTR __Hole$4[ebp]
  0002a	8b 4d 08	 mov	 ecx, DWORD PTR __First$[ebp]
  0002d	8d 04 81	 lea	 eax, DWORD PTR [ecx+eax*4]
; File C:\Program Files (x86)\Microsoft Visual Studio\2019\Community\VC\Tools\MSVC\14.28.29333\include\type_traits

; 1455 :     return static_cast<remove_reference_t<_Ty>&&>(_Arg);

  00030	89 45 f4	 mov	 DWORD PTR $T3[ebp], eax
; File C:\Program Files (x86)\Microsoft Visual Studio\2019\Community\VC\Tools\MSVC\14.28.29333\include\algorithm

; 6364 :         _Iter_value_t<_RanIt> _Val = _STD move(*(_First + _Hole));

  00033	8b 45 f4	 mov	 eax, DWORD PTR $T3[ebp]
  00036	8b 00		 mov	 eax, DWORD PTR [eax]
  00038	89 45 f0	 mov	 DWORD PTR __Val$2[ebp], eax
; File C:\Program Files (x86)\Microsoft Visual Studio\2019\Community\VC\Tools\MSVC\14.28.29333\include\type_traits

; 1455 :     return static_cast<remove_reference_t<_Ty>&&>(_Arg);

  0003b	8d 45 f0	 lea	 eax, DWORD PTR __Val$2[ebp]
  0003e	89 45 ec	 mov	 DWORD PTR $T1[ebp], eax
; File C:\Program Files (x86)\Microsoft Visual Studio\2019\Community\VC\Tools\MSVC\14.28.29333\include\algorithm

; 6365 :         _Pop_heap_hole_by_index(_First, _Hole, _Bottom, _STD move(_Val), _Pred);

  00041	ff 75 10	 push	 DWORD PTR __Pred$[ebp]
  00044	ff 75 ec	 push	 DWORD PTR $T1[ebp]
  00047	ff 75 f8	 push	 DWORD PTR __Bottom$[ebp]
  0004a	ff 75 fc	 push	 DWORD PTR __Hole$4[ebp]
  0004d	ff 75 08	 push	 DWORD PTR __First$[ebp]
  00050	e8 00 00 00 00	 call	 ??$_Pop_heap_hole_by_index@PAHHU?$less@X@std@@@std@@YAXPAHHH$$QAHU?$less@X@0@@Z ; std::_Pop_heap_hole_by_index<int *,int,std::less<void> >
  00055	83 c4 14	 add	 esp, 20			; 00000014H

; 6366 :     }

  00058	eb c0		 jmp	 SHORT $LN4@Make_heap_
$LN1@Make_heap_:

; 6367 : }

  0005a	c9		 leave
  0005b	c3		 ret	 0
??$_Make_heap_unchecked@PAHU?$less@X@std@@@std@@YAXPAH0U?$less@X@0@@Z ENDP ; std::_Make_heap_unchecked<int *,std::less<void> >
_TEXT	ENDS
; Function compile flags: /Odspy
; File C:\Program Files (x86)\Microsoft Visual Studio\2019\Community\VC\Tools\MSVC\14.28.29333\include\algorithm
; File C:\Program Files (x86)\Microsoft Visual Studio\2019\Community\VC\Tools\MSVC\14.28.29333\include\type_traits
; File C:\Program Files (x86)\Microsoft Visual Studio\2019\Community\VC\Tools\MSVC\14.28.29333\include\algorithm
; File C:\Program Files (x86)\Microsoft Visual Studio\2019\Community\VC\Tools\MSVC\14.28.29333\include\xstddef
; File C:\Program Files (x86)\Microsoft Visual Studio\2019\Community\VC\Tools\MSVC\14.28.29333\include\algorithm
; File C:\Program Files (x86)\Microsoft Visual Studio\2019\Community\VC\Tools\MSVC\14.28.29333\include\xutility
; File C:\Program Files (x86)\Microsoft Visual Studio\2019\Community\VC\Tools\MSVC\14.28.29333\include\type_traits
; File C:\Program Files (x86)\Microsoft Visual Studio\2019\Community\VC\Tools\MSVC\14.28.29333\include\xutility
; File C:\Program Files (x86)\Microsoft Visual Studio\2019\Community\VC\Tools\MSVC\14.28.29333\include\type_traits
; File C:\Program Files (x86)\Microsoft Visual Studio\2019\Community\VC\Tools\MSVC\14.28.29333\include\algorithm
; File C:\Program Files (x86)\Microsoft Visual Studio\2019\Community\VC\Tools\MSVC\14.28.29333\include\xstddef
; File C:\Program Files (x86)\Microsoft Visual Studio\2019\Community\VC\Tools\MSVC\14.28.29333\include\algorithm
; File C:\Program Files (x86)\Microsoft Visual Studio\2019\Community\VC\Tools\MSVC\14.28.29333\include\type_traits
; File C:\Program Files (x86)\Microsoft Visual Studio\2019\Community\VC\Tools\MSVC\14.28.29333\include\algorithm
; File C:\Program Files (x86)\Microsoft Visual Studio\2019\Community\VC\Tools\MSVC\14.28.29333\include\type_traits
; File C:\Program Files (x86)\Microsoft Visual Studio\2019\Community\VC\Tools\MSVC\14.28.29333\include\algorithm
;	COMDAT ??$_Insertion_sort_unchecked@PAHU?$less@X@std@@@std@@YAPAHQAH0U?$less@X@0@@Z
_TEXT	SEGMENT
$T1 = -56						; size = 4
$T2 = -52						; size = 4
$T3 = -48						; size = 4
$T4 = -44						; size = 4
$T5 = -40						; size = 4
tv71 = -36						; size = 4
tv92 = -32						; size = 4
__Val$6 = -28						; size = 4
__Dest$ = -24						; size = 4
__Prev$7 = -20						; size = 4
__Last$ = -16						; size = 4
__Mid$8 = -12						; size = 4
__Hole$9 = -8						; size = 4
$T10 = -2						; size = 1
$T11 = -1						; size = 1
__First$ = 8						; size = 4
__Last$ = 12						; size = 4
__Pred$ = 16						; size = 1
??$_Insertion_sort_unchecked@PAHU?$less@X@std@@@std@@YAPAHQAH0U?$less@X@0@@Z PROC ; std::_Insertion_sort_unchecked<int *,std::less<void> >, COMDAT

; 7410 : _CONSTEXPR20 _BidIt _Insertion_sort_unchecked(const _BidIt _First, const _BidIt _Last, _Pr _Pred) {

  00000	55		 push	 ebp
  00001	8b ec		 mov	 ebp, esp
  00003	83 ec 38	 sub	 esp, 56			; 00000038H

; 7411 :     // insertion sort [_First, _Last)
; 7412 :     if (_First != _Last) {

  00006	8b 45 08	 mov	 eax, DWORD PTR __First$[ebp]
  00009	3b 45 0c	 cmp	 eax, DWORD PTR __Last$[ebp]
  0000c	0f 84 1d 01 00
	00		 je	 $LN8@Insertion_

; 7413 :         for (_BidIt _Mid = _First; ++_Mid != _Last;) { // order next element

  00012	8b 45 08	 mov	 eax, DWORD PTR __First$[ebp]
  00015	89 45 f4	 mov	 DWORD PTR __Mid$8[ebp], eax
$LN4@Insertion_:
  00018	8b 45 f4	 mov	 eax, DWORD PTR __Mid$8[ebp]
  0001b	83 c0 04	 add	 eax, 4
  0001e	89 45 f4	 mov	 DWORD PTR __Mid$8[ebp], eax
  00021	8b 45 f4	 mov	 eax, DWORD PTR __Mid$8[ebp]
  00024	3b 45 0c	 cmp	 eax, DWORD PTR __Last$[ebp]
  00027	0f 84 02 01 00
	00		 je	 $LN8@Insertion_

; 7414 :             _BidIt _Hole               = _Mid;

  0002d	8b 45 f4	 mov	 eax, DWORD PTR __Mid$8[ebp]
  00030	89 45 f8	 mov	 DWORD PTR __Hole$9[ebp], eax
; File C:\Program Files (x86)\Microsoft Visual Studio\2019\Community\VC\Tools\MSVC\14.28.29333\include\type_traits

; 1455 :     return static_cast<remove_reference_t<_Ty>&&>(_Arg);

  00033	8b 45 f4	 mov	 eax, DWORD PTR __Mid$8[ebp]
  00036	89 45 d8	 mov	 DWORD PTR $T5[ebp], eax
; File C:\Program Files (x86)\Microsoft Visual Studio\2019\Community\VC\Tools\MSVC\14.28.29333\include\algorithm

; 7415 :             _Iter_value_t<_BidIt> _Val = _STD move(*_Mid);

  00039	8b 45 d8	 mov	 eax, DWORD PTR $T5[ebp]
  0003c	8b 00		 mov	 eax, DWORD PTR [eax]
  0003e	89 45 e4	 mov	 DWORD PTR __Val$6[ebp], eax
; File C:\Program Files (x86)\Microsoft Visual Studio\2019\Community\VC\Tools\MSVC\14.28.29333\include\xstddef

; 240  :         return static_cast<_Ty1&&>(_Left) < static_cast<_Ty2&&>(_Right);

  00041	8b 45 08	 mov	 eax, DWORD PTR __First$[ebp]
  00044	8b 4d e4	 mov	 ecx, DWORD PTR __Val$6[ebp]
  00047	3b 08		 cmp	 ecx, DWORD PTR [eax]
  00049	7d 09		 jge	 SHORT $LN17@Insertion_
  0004b	c7 45 e0 01 00
	00 00		 mov	 DWORD PTR tv92[ebp], 1
  00052	eb 04		 jmp	 SHORT $LN18@Insertion_
$LN17@Insertion_:
  00054	83 65 e0 00	 and	 DWORD PTR tv92[ebp], 0
$LN18@Insertion_:
  00058	8a 45 e0	 mov	 al, BYTE PTR tv92[ebp]
  0005b	88 45 ff	 mov	 BYTE PTR $T11[ebp], al
; File C:\Program Files (x86)\Microsoft Visual Studio\2019\Community\VC\Tools\MSVC\14.28.29333\include\algorithm

; 7417 :             if (_DEBUG_LT_PRED(_Pred, _Val, *_First)) { // found new earliest element, move to front

  0005e	0f b6 45 ff	 movzx	 eax, BYTE PTR $T11[ebp]
  00062	85 c0		 test	 eax, eax
  00064	74 66		 je	 SHORT $LN9@Insertion_

; 7418 :                 _Move_backward_unchecked(_First, _Mid, ++_Hole);

  00066	8b 45 f8	 mov	 eax, DWORD PTR __Hole$9[ebp]
  00069	83 c0 04	 add	 eax, 4
  0006c	89 45 f8	 mov	 DWORD PTR __Hole$9[ebp], eax
  0006f	8b 45 f8	 mov	 eax, DWORD PTR __Hole$9[ebp]
  00072	89 45 e8	 mov	 DWORD PTR __Dest$[ebp], eax
  00075	8b 45 f4	 mov	 eax, DWORD PTR __Mid$8[ebp]
  00078	89 45 f0	 mov	 DWORD PTR __Last$[ebp], eax
; File C:\Program Files (x86)\Microsoft Visual Studio\2019\Community\VC\Tools\MSVC\14.28.29333\include\xutility

; 4696 :             return _Copy_backward_memmove(_First, _Last, _Dest);

  0007b	ff 75 e8	 push	 DWORD PTR __Dest$[ebp]
  0007e	ff 75 f0	 push	 DWORD PTR __Last$[ebp]
  00081	ff 75 08	 push	 DWORD PTR __First$[ebp]
  00084	e8 00 00 00 00	 call	 ??$_Copy_backward_memmove@PAHPAH@std@@YAPAHPAH00@Z ; std::_Copy_backward_memmove<int *,int *>
  00089	83 c4 0c	 add	 esp, 12			; 0000000cH
  0008c	eb 2c		 jmp	 SHORT $LN20@Insertion_
$LN21@Insertion_:

; 4697 :         }
; 4698 :     }
; 4699 : 
; 4700 :     while (_First != _Last) {

  0008e	8b 45 08	 mov	 eax, DWORD PTR __First$[ebp]
  00091	3b 45 f0	 cmp	 eax, DWORD PTR __Last$[ebp]
  00094	74 24		 je	 SHORT $LN20@Insertion_

; 4701 :         *--_Dest = _STD move(*--_Last);

  00096	8b 45 f0	 mov	 eax, DWORD PTR __Last$[ebp]
  00099	83 e8 04	 sub	 eax, 4
  0009c	89 45 f0	 mov	 DWORD PTR __Last$[ebp], eax
  0009f	8b 45 e8	 mov	 eax, DWORD PTR __Dest$[ebp]
  000a2	83 e8 04	 sub	 eax, 4
  000a5	89 45 e8	 mov	 DWORD PTR __Dest$[ebp], eax
; File C:\Program Files (x86)\Microsoft Visual Studio\2019\Community\VC\Tools\MSVC\14.28.29333\include\type_traits

; 1455 :     return static_cast<remove_reference_t<_Ty>&&>(_Arg);

  000a8	8b 45 f0	 mov	 eax, DWORD PTR __Last$[ebp]
  000ab	89 45 d4	 mov	 DWORD PTR $T4[ebp], eax
; File C:\Program Files (x86)\Microsoft Visual Studio\2019\Community\VC\Tools\MSVC\14.28.29333\include\xutility

; 4701 :         *--_Dest = _STD move(*--_Last);

  000ae	8b 45 e8	 mov	 eax, DWORD PTR __Dest$[ebp]
  000b1	8b 4d d4	 mov	 ecx, DWORD PTR $T4[ebp]
  000b4	8b 09		 mov	 ecx, DWORD PTR [ecx]
  000b6	89 08		 mov	 DWORD PTR [eax], ecx

; 4702 :     }

  000b8	eb d4		 jmp	 SHORT $LN21@Insertion_
$LN20@Insertion_:
; File C:\Program Files (x86)\Microsoft Visual Studio\2019\Community\VC\Tools\MSVC\14.28.29333\include\type_traits

; 1455 :     return static_cast<remove_reference_t<_Ty>&&>(_Arg);

  000ba	8d 45 e4	 lea	 eax, DWORD PTR __Val$6[ebp]
  000bd	89 45 d0	 mov	 DWORD PTR $T3[ebp], eax
; File C:\Program Files (x86)\Microsoft Visual Studio\2019\Community\VC\Tools\MSVC\14.28.29333\include\algorithm

; 7419 :                 *_First = _STD move(_Val);

  000c0	8b 45 08	 mov	 eax, DWORD PTR __First$[ebp]
  000c3	8b 4d d0	 mov	 ecx, DWORD PTR $T3[ebp]
  000c6	8b 09		 mov	 ecx, DWORD PTR [ecx]
  000c8	89 08		 mov	 DWORD PTR [eax], ecx

; 7420 :             } else { // look for insertion point after first

  000ca	eb 5e		 jmp	 SHORT $LN10@Insertion_
$LN9@Insertion_:

; 7421 :                 for (_BidIt _Prev = _Hole; _DEBUG_LT_PRED(_Pred, _Val, *--_Prev); _Hole = _Prev) {

  000cc	8b 45 f8	 mov	 eax, DWORD PTR __Hole$9[ebp]
  000cf	89 45 ec	 mov	 DWORD PTR __Prev$7[ebp], eax
  000d2	eb 06		 jmp	 SHORT $LN7@Insertion_
$LN5@Insertion_:
  000d4	8b 45 ec	 mov	 eax, DWORD PTR __Prev$7[ebp]
  000d7	89 45 f8	 mov	 DWORD PTR __Hole$9[ebp], eax
$LN7@Insertion_:
  000da	8b 45 ec	 mov	 eax, DWORD PTR __Prev$7[ebp]
  000dd	83 e8 04	 sub	 eax, 4
  000e0	89 45 ec	 mov	 DWORD PTR __Prev$7[ebp], eax
; File C:\Program Files (x86)\Microsoft Visual Studio\2019\Community\VC\Tools\MSVC\14.28.29333\include\xstddef

; 240  :         return static_cast<_Ty1&&>(_Left) < static_cast<_Ty2&&>(_Right);

  000e3	8b 45 ec	 mov	 eax, DWORD PTR __Prev$7[ebp]
  000e6	8b 4d e4	 mov	 ecx, DWORD PTR __Val$6[ebp]
  000e9	3b 08		 cmp	 ecx, DWORD PTR [eax]
  000eb	7d 09		 jge	 SHORT $LN32@Insertion_
  000ed	c7 45 dc 01 00
	00 00		 mov	 DWORD PTR tv71[ebp], 1
  000f4	eb 04		 jmp	 SHORT $LN33@Insertion_
$LN32@Insertion_:
  000f6	83 65 dc 00	 and	 DWORD PTR tv71[ebp], 0
$LN33@Insertion_:
  000fa	8a 45 dc	 mov	 al, BYTE PTR tv71[ebp]
  000fd	88 45 fe	 mov	 BYTE PTR $T10[ebp], al
; File C:\Program Files (x86)\Microsoft Visual Studio\2019\Community\VC\Tools\MSVC\14.28.29333\include\algorithm

; 7421 :                 for (_BidIt _Prev = _Hole; _DEBUG_LT_PRED(_Pred, _Val, *--_Prev); _Hole = _Prev) {

  00100	0f b6 45 fe	 movzx	 eax, BYTE PTR $T10[ebp]
  00104	85 c0		 test	 eax, eax
  00106	74 12		 je	 SHORT $LN6@Insertion_
; File C:\Program Files (x86)\Microsoft Visual Studio\2019\Community\VC\Tools\MSVC\14.28.29333\include\type_traits

; 1455 :     return static_cast<remove_reference_t<_Ty>&&>(_Arg);

  00108	8b 45 ec	 mov	 eax, DWORD PTR __Prev$7[ebp]
  0010b	89 45 cc	 mov	 DWORD PTR $T2[ebp], eax
; File C:\Program Files (x86)\Microsoft Visual Studio\2019\Community\VC\Tools\MSVC\14.28.29333\include\algorithm

; 7422 :                     *_Hole = _STD move(*_Prev); // move hole down

  0010e	8b 45 f8	 mov	 eax, DWORD PTR __Hole$9[ebp]
  00111	8b 4d cc	 mov	 ecx, DWORD PTR $T2[ebp]
  00114	8b 09		 mov	 ecx, DWORD PTR [ecx]
  00116	89 08		 mov	 DWORD PTR [eax], ecx

; 7423 :                 }

  00118	eb ba		 jmp	 SHORT $LN5@Insertion_
$LN6@Insertion_:
; File C:\Program Files (x86)\Microsoft Visual Studio\2019\Community\VC\Tools\MSVC\14.28.29333\include\type_traits

; 1455 :     return static_cast<remove_reference_t<_Ty>&&>(_Arg);

  0011a	8d 45 e4	 lea	 eax, DWORD PTR __Val$6[ebp]
  0011d	89 45 c8	 mov	 DWORD PTR $T1[ebp], eax
; File C:\Program Files (x86)\Microsoft Visual Studio\2019\Community\VC\Tools\MSVC\14.28.29333\include\algorithm

; 7425 :                 *_Hole = _STD move(_Val); // insert element in hole

  00120	8b 45 f8	 mov	 eax, DWORD PTR __Hole$9[ebp]
  00123	8b 4d c8	 mov	 ecx, DWORD PTR $T1[ebp]
  00126	8b 09		 mov	 ecx, DWORD PTR [ecx]
  00128	89 08		 mov	 DWORD PTR [eax], ecx
$LN10@Insertion_:

; 7426 :             }
; 7427 :         }

  0012a	e9 e9 fe ff ff	 jmp	 $LN4@Insertion_
$LN8@Insertion_:

; 7428 :     }
; 7429 : 
; 7430 :     return _Last;

  0012f	8b 45 0c	 mov	 eax, DWORD PTR __Last$[ebp]

; 7431 : }

  00132	c9		 leave
  00133	c3		 ret	 0
??$_Insertion_sort_unchecked@PAHU?$less@X@std@@@std@@YAPAHQAH0U?$less@X@0@@Z ENDP ; std::_Insertion_sort_unchecked<int *,std::less<void> >
_TEXT	ENDS
; Function compile flags: /Odspy
; File C:\Program Files (x86)\Microsoft Visual Studio\2019\Community\VC\Tools\MSVC\14.28.29333\include\xmemory
;	COMDAT ??$_Refancy@PAH$0A@@std@@YAPAHPAH@Z
_TEXT	SEGMENT
__Ptr$ = 8						; size = 4
??$_Refancy@PAH$0A@@std@@YAPAHPAH@Z PROC		; std::_Refancy<int *,0>, COMDAT

; 261  : _Pointer _Refancy(_Pointer _Ptr) noexcept {

  00000	55		 push	 ebp
  00001	8b ec		 mov	 ebp, esp

; 262  :     return _Ptr;

  00003	8b 45 08	 mov	 eax, DWORD PTR __Ptr$[ebp]

; 263  : }

  00006	5d		 pop	 ebp
  00007	c3		 ret	 0
??$_Refancy@PAH$0A@@std@@YAPAHPAH@Z ENDP		; std::_Refancy<int *,0>
_TEXT	ENDS
; Function compile flags: /Odspy
; File C:\Program Files (x86)\Microsoft Visual Studio\2019\Community\VC\Tools\MSVC\14.28.29333\include\xutility
;	COMDAT ??$_Copy_memmove@PAHPAH@std@@YAPAHPAH00@Z
_TEXT	SEGMENT
__Last_ch$ = -16					; size = 4
__Count$ = -12						; size = 4
__Dest_ch$ = -8						; size = 4
__First_ch$ = -4					; size = 4
__First$ = 8						; size = 4
__Last$ = 12						; size = 4
__Dest$ = 16						; size = 4
??$_Copy_memmove@PAHPAH@std@@YAPAHPAH00@Z PROC		; std::_Copy_memmove<int *,int *>, COMDAT

; 4360 : _OutIt _Copy_memmove(_InIt _First, _InIt _Last, _OutIt _Dest) {

  00000	55		 push	 ebp
  00001	8b ec		 mov	 ebp, esp
  00003	83 ec 10	 sub	 esp, 16			; 00000010H

; 4361 :     const char* const _First_ch = const_cast<const char*>(reinterpret_cast<const volatile char*>(_First));

  00006	8b 45 08	 mov	 eax, DWORD PTR __First$[ebp]
  00009	89 45 fc	 mov	 DWORD PTR __First_ch$[ebp], eax

; 4362 :     const char* const _Last_ch  = const_cast<const char*>(reinterpret_cast<const volatile char*>(_Last));

  0000c	8b 45 0c	 mov	 eax, DWORD PTR __Last$[ebp]
  0000f	89 45 f0	 mov	 DWORD PTR __Last_ch$[ebp], eax

; 4363 :     char* const _Dest_ch        = const_cast<char*>(reinterpret_cast<volatile char*>(_Dest));

  00012	8b 45 10	 mov	 eax, DWORD PTR __Dest$[ebp]
  00015	89 45 f8	 mov	 DWORD PTR __Dest_ch$[ebp], eax

; 4364 :     const auto _Count           = static_cast<size_t>(_Last_ch - _First_ch);

  00018	8b 45 f0	 mov	 eax, DWORD PTR __Last_ch$[ebp]
  0001b	2b 45 fc	 sub	 eax, DWORD PTR __First_ch$[ebp]
  0001e	89 45 f4	 mov	 DWORD PTR __Count$[ebp], eax

; 4365 :     _CSTD memmove(_Dest_ch, _First_ch, _Count);

  00021	ff 75 f4	 push	 DWORD PTR __Count$[ebp]
  00024	ff 75 fc	 push	 DWORD PTR __First_ch$[ebp]
  00027	ff 75 f8	 push	 DWORD PTR __Dest_ch$[ebp]
  0002a	e8 00 00 00 00	 call	 _memmove
  0002f	83 c4 0c	 add	 esp, 12			; 0000000cH

; 4366 :     return reinterpret_cast<_OutIt>(_Dest_ch + _Count);

  00032	8b 45 f8	 mov	 eax, DWORD PTR __Dest_ch$[ebp]
  00035	03 45 f4	 add	 eax, DWORD PTR __Count$[ebp]

; 4367 : }

  00038	c9		 leave
  00039	c3		 ret	 0
??$_Copy_memmove@PAHPAH@std@@YAPAHPAH00@Z ENDP		; std::_Copy_memmove<int *,int *>
_TEXT	ENDS
; Function compile flags: /Odspy
; File C:\Program Files (x86)\Microsoft Visual Studio\2019\Community\VC\Tools\MSVC\14.28.29333\include\algorithm
;	COMDAT ??$_Sort_unchecked@PAHU?$less@X@std@@@std@@YAXPAH0HU?$less@X@0@@Z
_TEXT	SEGMENT
__Mid$1 = -12						; size = 8
__Last$ = -4						; size = 4
__First$ = 8						; size = 4
__Last$ = 12						; size = 4
__Ideal$ = 16						; size = 4
__Pred$ = 20						; size = 1
??$_Sort_unchecked@PAHU?$less@X@std@@@std@@YAXPAH0HU?$less@X@0@@Z PROC ; std::_Sort_unchecked<int *,std::less<void> >, COMDAT

; 7537 : _CONSTEXPR20 void _Sort_unchecked(_RanIt _First, _RanIt _Last, _Iter_diff_t<_RanIt> _Ideal, _Pr _Pred) {

  00000	55		 push	 ebp
  00001	8b ec		 mov	 ebp, esp
  00003	83 ec 0c	 sub	 esp, 12			; 0000000cH
$LN4@Sort_unche:

; 7538 :     // order [_First, _Last)
; 7539 :     for (;;) {
; 7540 :         if (_Last - _First <= _ISORT_MAX) { // small

  00006	8b 45 0c	 mov	 eax, DWORD PTR __Last$[ebp]
  00009	2b 45 08	 sub	 eax, DWORD PTR __First$[ebp]
  0000c	c1 f8 02	 sar	 eax, 2
  0000f	83 f8 20	 cmp	 eax, 32			; 00000020H
  00012	7f 16		 jg	 SHORT $LN5@Sort_unche

; 7541 :             _Insertion_sort_unchecked(_First, _Last, _Pred);

  00014	ff 75 14	 push	 DWORD PTR __Pred$[ebp]
  00017	ff 75 0c	 push	 DWORD PTR __Last$[ebp]
  0001a	ff 75 08	 push	 DWORD PTR __First$[ebp]
  0001d	e8 00 00 00 00	 call	 ??$_Insertion_sort_unchecked@PAHU?$less@X@std@@@std@@YAPAHQAH0U?$less@X@0@@Z ; std::_Insertion_sort_unchecked<int *,std::less<void> >
  00022	83 c4 0c	 add	 esp, 12			; 0000000cH

; 7542 :             return;

  00025	e9 c1 00 00 00	 jmp	 $LN1@Sort_unche
$LN5@Sort_unche:

; 7543 :         }
; 7544 : 
; 7545 :         if (_Ideal <= 0) { // heap sort if too many divisions

  0002a	83 7d 10 00	 cmp	 DWORD PTR __Ideal$[ebp], 0
  0002e	7f 45		 jg	 SHORT $LN6@Sort_unche

; 7546 :             _Make_heap_unchecked(_First, _Last, _Pred);

  00030	ff 75 14	 push	 DWORD PTR __Pred$[ebp]
  00033	ff 75 0c	 push	 DWORD PTR __Last$[ebp]
  00036	ff 75 08	 push	 DWORD PTR __First$[ebp]
  00039	e8 00 00 00 00	 call	 ??$_Make_heap_unchecked@PAHU?$less@X@std@@@std@@YAXPAH0U?$less@X@0@@Z ; std::_Make_heap_unchecked<int *,std::less<void> >
  0003e	83 c4 0c	 add	 esp, 12			; 0000000cH

; 7547 :             _Sort_heap_unchecked(_First, _Last, _Pred);

  00041	8b 45 0c	 mov	 eax, DWORD PTR __Last$[ebp]
  00044	89 45 fc	 mov	 DWORD PTR __Last$[ebp], eax

; 6592 :     for (; _Last - _First >= 2; --_Last) {

  00047	eb 09		 jmp	 SHORT $LN64@Sort_unche
$LN62@Sort_unche:
  00049	8b 45 fc	 mov	 eax, DWORD PTR __Last$[ebp]
  0004c	83 e8 04	 sub	 eax, 4
  0004f	89 45 fc	 mov	 DWORD PTR __Last$[ebp], eax
$LN64@Sort_unche:
  00052	8b 45 fc	 mov	 eax, DWORD PTR __Last$[ebp]
  00055	2b 45 08	 sub	 eax, DWORD PTR __First$[ebp]
  00058	c1 f8 02	 sar	 eax, 2
  0005b	83 f8 02	 cmp	 eax, 2
  0005e	7c 13		 jl	 SHORT $LN61@Sort_unche

; 6593 :         _Pop_heap_unchecked(_First, _Last, _Pred);

  00060	ff 75 14	 push	 DWORD PTR __Pred$[ebp]
  00063	ff 75 fc	 push	 DWORD PTR __Last$[ebp]
  00066	ff 75 08	 push	 DWORD PTR __First$[ebp]
  00069	e8 00 00 00 00	 call	 ??$_Pop_heap_unchecked@PAHU?$less@X@std@@@std@@YAXPAH0U?$less@X@0@@Z ; std::_Pop_heap_unchecked<int *,std::less<void> >
  0006e	83 c4 0c	 add	 esp, 12			; 0000000cH

; 6594 :     }

  00071	eb d6		 jmp	 SHORT $LN62@Sort_unche
$LN61@Sort_unche:

; 7548 :             return;

  00073	eb 76		 jmp	 SHORT $LN1@Sort_unche
$LN6@Sort_unche:

; 7549 :         }
; 7550 : 
; 7551 :         // divide and conquer by quicksort
; 7552 :         auto _Mid = _Partition_by_median_guess_unchecked(_First, _Last, _Pred);

  00075	ff 75 14	 push	 DWORD PTR __Pred$[ebp]
  00078	ff 75 0c	 push	 DWORD PTR __Last$[ebp]
  0007b	ff 75 08	 push	 DWORD PTR __First$[ebp]
  0007e	8d 45 f4	 lea	 eax, DWORD PTR __Mid$1[ebp]
  00081	50		 push	 eax
  00082	e8 00 00 00 00	 call	 ??$_Partition_by_median_guess_unchecked@PAHU?$less@X@std@@@std@@YA?AU?$pair@PAHPAH@0@PAH0U?$less@X@0@@Z ; std::_Partition_by_median_guess_unchecked<int *,std::less<void> >
  00087	83 c4 10	 add	 esp, 16			; 00000010H

; 7553 : 
; 7554 :         _Ideal = (_Ideal >> 1) + (_Ideal >> 2); // allow 1.5 log2(N) divisions

  0008a	8b 45 10	 mov	 eax, DWORD PTR __Ideal$[ebp]
  0008d	d1 f8		 sar	 eax, 1
  0008f	8b 4d 10	 mov	 ecx, DWORD PTR __Ideal$[ebp]
  00092	c1 f9 02	 sar	 ecx, 2
  00095	03 c1		 add	 eax, ecx
  00097	89 45 10	 mov	 DWORD PTR __Ideal$[ebp], eax

; 7555 : 
; 7556 :         if (_Mid.first - _First < _Last - _Mid.second) { // loop on second half

  0009a	8b 45 f4	 mov	 eax, DWORD PTR __Mid$1[ebp]
  0009d	2b 45 08	 sub	 eax, DWORD PTR __First$[ebp]
  000a0	c1 f8 02	 sar	 eax, 2
  000a3	8b 4d 0c	 mov	 ecx, DWORD PTR __Last$[ebp]
  000a6	2b 4d f8	 sub	 ecx, DWORD PTR __Mid$1[ebp+4]
  000a9	c1 f9 02	 sar	 ecx, 2
  000ac	3b c1		 cmp	 eax, ecx
  000ae	7d 1c		 jge	 SHORT $LN7@Sort_unche

; 7557 :             _Sort_unchecked(_First, _Mid.first, _Ideal, _Pred);

  000b0	ff 75 14	 push	 DWORD PTR __Pred$[ebp]
  000b3	ff 75 10	 push	 DWORD PTR __Ideal$[ebp]
  000b6	ff 75 f4	 push	 DWORD PTR __Mid$1[ebp]
  000b9	ff 75 08	 push	 DWORD PTR __First$[ebp]
  000bc	e8 00 00 00 00	 call	 ??$_Sort_unchecked@PAHU?$less@X@std@@@std@@YAXPAH0HU?$less@X@0@@Z ; std::_Sort_unchecked<int *,std::less<void> >
  000c1	83 c4 10	 add	 esp, 16			; 00000010H

; 7558 :             _First = _Mid.second;

  000c4	8b 45 f8	 mov	 eax, DWORD PTR __Mid$1[ebp+4]
  000c7	89 45 08	 mov	 DWORD PTR __First$[ebp], eax

; 7559 :         } else { // loop on first half

  000ca	eb 1a		 jmp	 SHORT $LN8@Sort_unche
$LN7@Sort_unche:

; 7560 :             _Sort_unchecked(_Mid.second, _Last, _Ideal, _Pred);

  000cc	ff 75 14	 push	 DWORD PTR __Pred$[ebp]
  000cf	ff 75 10	 push	 DWORD PTR __Ideal$[ebp]
  000d2	ff 75 0c	 push	 DWORD PTR __Last$[ebp]
  000d5	ff 75 f8	 push	 DWORD PTR __Mid$1[ebp+4]
  000d8	e8 00 00 00 00	 call	 ??$_Sort_unchecked@PAHU?$less@X@std@@@std@@YAXPAH0HU?$less@X@0@@Z ; std::_Sort_unchecked<int *,std::less<void> >
  000dd	83 c4 10	 add	 esp, 16			; 00000010H

; 7561 :             _Last = _Mid.first;

  000e0	8b 45 f4	 mov	 eax, DWORD PTR __Mid$1[ebp]
  000e3	89 45 0c	 mov	 DWORD PTR __Last$[ebp], eax
$LN8@Sort_unche:

; 7562 :         }
; 7563 :     }

  000e6	e9 1b ff ff ff	 jmp	 $LN4@Sort_unche
$LN1@Sort_unche:

; 7564 : }

  000eb	c9		 leave
  000ec	c3		 ret	 0
??$_Sort_unchecked@PAHU?$less@X@std@@@std@@YAXPAH0HU?$less@X@0@@Z ENDP ; std::_Sort_unchecked<int *,std::less<void> >
_TEXT	ENDS
; Function compile flags: /Odspy
; File C:\Program Files (x86)\Microsoft Visual Studio\2019\Community\VC\Tools\MSVC\14.28.29333\include\xmemory
; File C:\Program Files (x86)\Microsoft Visual Studio\2019\Community\VC\Tools\MSVC\14.28.29333\include\xstddef
; File C:\Program Files (x86)\Microsoft Visual Studio\2019\Community\VC\Tools\MSVC\14.28.29333\include\xmemory
;	COMDAT ??$_Uninitialized_move@PAHV?$allocator@H@std@@@std@@YAPAHQAH0PAHAAV?$allocator@H@0@@Z
_TEXT	SEGMENT
$T1 = -12						; size = 4
__UFirst$ = -8						; size = 4
__ULast$ = -4						; size = 4
__First$ = 8						; size = 4
__Last$ = 12						; size = 4
__Dest$ = 16						; size = 4
__Al$ = 20						; size = 4
??$_Uninitialized_move@PAHV?$allocator@H@std@@@std@@YAPAHQAH0PAHAAV?$allocator@H@0@@Z PROC ; std::_Uninitialized_move<int *,std::allocator<int> >, COMDAT

; 1685 :     const _InIt _First, const _InIt _Last, _Alloc_ptr_t<_Alloc> _Dest, _Alloc& _Al) {

  00000	55		 push	 ebp
  00001	8b ec		 mov	 ebp, esp
  00003	83 ec 0c	 sub	 esp, 12			; 0000000cH

; 1686 :     // move [_First, _Last) to raw _Dest, using _Al
; 1687 :     // note: only called internally from elsewhere in the STL
; 1688 :     using _Ptrval     = typename _Alloc::value_type*;
; 1689 :     auto _UFirst      = _Get_unwrapped(_First);

  00006	8b 45 08	 mov	 eax, DWORD PTR __First$[ebp]
  00009	89 45 f8	 mov	 DWORD PTR __UFirst$[ebp], eax

; 1690 :     const auto _ULast = _Get_unwrapped(_Last);

  0000c	8b 45 0c	 mov	 eax, DWORD PTR __Last$[ebp]
  0000f	89 45 fc	 mov	 DWORD PTR __ULast$[ebp], eax
; File C:\Program Files (x86)\Microsoft Visual Studio\2019\Community\VC\Tools\MSVC\14.28.29333\include\xstddef

; 289  :     return _Ptr;

  00012	8b 45 10	 mov	 eax, DWORD PTR __Dest$[ebp]
  00015	89 45 f4	 mov	 DWORD PTR $T1[ebp], eax
; File C:\Program Files (x86)\Microsoft Visual Studio\2019\Community\VC\Tools\MSVC\14.28.29333\include\xmemory

; 1693 :         _Copy_memmove(_UFirst, _ULast, _Unfancy(_Dest));

  00018	ff 75 f4	 push	 DWORD PTR $T1[ebp]
  0001b	ff 75 fc	 push	 DWORD PTR __ULast$[ebp]
  0001e	ff 75 f8	 push	 DWORD PTR __UFirst$[ebp]
  00021	e8 00 00 00 00	 call	 ??$_Copy_memmove@PAHPAH@std@@YAPAHPAH00@Z ; std::_Copy_memmove<int *,int *>
  00026	83 c4 0c	 add	 esp, 12			; 0000000cH

; 1694 :         return _Dest + (_ULast - _UFirst);

  00029	8b 45 fc	 mov	 eax, DWORD PTR __ULast$[ebp]
  0002c	2b 45 f8	 sub	 eax, DWORD PTR __UFirst$[ebp]
  0002f	c1 f8 02	 sar	 eax, 2
  00032	8b 4d 10	 mov	 ecx, DWORD PTR __Dest$[ebp]
  00035	8d 04 81	 lea	 eax, DWORD PTR [ecx+eax*4]

; 1695 :     } else {
; 1696 :         _Uninitialized_backout_al<_Alloc> _Backout{_Dest, _Al};
; 1697 :         for (; _UFirst != _ULast; ++_UFirst) {
; 1698 :             _Backout._Emplace_back(_STD move(*_UFirst));
; 1699 :         }
; 1700 : 
; 1701 :         return _Backout._Release();
; 1702 :     }
; 1703 : }

  00038	c9		 leave
  00039	c3		 ret	 0
??$_Uninitialized_move@PAHV?$allocator@H@std@@@std@@YAPAHQAH0PAHAAV?$allocator@H@0@@Z ENDP ; std::_Uninitialized_move<int *,std::allocator<int> >
_TEXT	ENDS
; Function compile flags: /Odspy
; File C:\Program Files (x86)\Microsoft Visual Studio\2019\Community\VC\Tools\MSVC\14.28.29333\include\algorithm
; File C:\Program Files (x86)\Microsoft Visual Studio\2019\Community\VC\Tools\MSVC\14.28.29333\include\vector
; File C:\Program Files (x86)\Microsoft Visual Studio\2019\Community\VC\Tools\MSVC\14.28.29333\include\xstddef
; File C:\Program Files (x86)\Microsoft Visual Studio\2019\Community\VC\Tools\MSVC\14.28.29333\include\vector
; File C:\Program Files (x86)\Microsoft Visual Studio\2019\Community\VC\Tools\MSVC\14.28.29333\include\algorithm
; File C:\Program Files (x86)\Microsoft Visual Studio\2019\Community\VC\Tools\MSVC\14.28.29333\include\vector
; File C:\Program Files (x86)\Microsoft Visual Studio\2019\Community\VC\Tools\MSVC\14.28.29333\include\xstddef
; File C:\Program Files (x86)\Microsoft Visual Studio\2019\Community\VC\Tools\MSVC\14.28.29333\include\vector
; File C:\Program Files (x86)\Microsoft Visual Studio\2019\Community\VC\Tools\MSVC\14.28.29333\include\xutility
; File C:\Program Files (x86)\Microsoft Visual Studio\2019\Community\VC\Tools\MSVC\14.28.29333\include\algorithm
; File C:\Program Files (x86)\Microsoft Visual Studio\2019\Community\VC\Tools\MSVC\14.28.29333\include\xutility
; File C:\Program Files (x86)\Microsoft Visual Studio\2019\Community\VC\Tools\MSVC\14.28.29333\include\algorithm
; File C:\Program Files (x86)\Microsoft Visual Studio\2019\Community\VC\Tools\MSVC\14.28.29333\include\utility
; File C:\Program Files (x86)\Microsoft Visual Studio\2019\Community\VC\Tools\MSVC\14.28.29333\include\algorithm
; File C:\Program Files (x86)\Microsoft Visual Studio\2019\Community\VC\Tools\MSVC\14.28.29333\include\xutility
; File C:\Program Files (x86)\Microsoft Visual Studio\2019\Community\VC\Tools\MSVC\14.28.29333\include\algorithm
; File C:\Program Files (x86)\Microsoft Visual Studio\2019\Community\VC\Tools\MSVC\14.28.29333\include\xutility
; File C:\Program Files (x86)\Microsoft Visual Studio\2019\Community\VC\Tools\MSVC\14.28.29333\include\vector
; File C:\Program Files (x86)\Microsoft Visual Studio\2019\Community\VC\Tools\MSVC\14.28.29333\include\algorithm
;	COMDAT ??$upper_bound@V?$_Vector_iterator@V?$_Vector_val@U?$_Simple_types@U?$pair@MJ@std@@@std@@@std@@@std@@U?$pair@MJ@2@U?$less@X@2@@std@@YA?AV?$_Vector_iterator@V?$_Vector_val@U?$_Simple_types@U?$pair@MJ@std@@@std@@@std@@@0@V10@0ABU?$pair@MJ@0@U?$less@X@0@@Z
_TEXT	SEGMENT
__It$ = -56						; size = 4
$T1 = -52						; size = 4
$T2 = -48						; size = 4
__Ptr$3 = -44						; size = 4
$T4 = -40						; size = 4
$T5 = -36						; size = 4
__Ptr$6 = -32						; size = 4
tv144 = -28						; size = 4
__Count2$7 = -24					; size = 4
__First$ = -20						; size = 4
__First$ = -16						; size = 4
__UFirst$ = -12						; size = 4
__UMid$8 = -8						; size = 4
__Count$ = -4						; size = 4
___$ReturnUdt$ = 8					; size = 4
__First$ = 12						; size = 4
__Last$ = 16						; size = 4
__Val$ = 20						; size = 4
__Pred$ = 24						; size = 1
??$upper_bound@V?$_Vector_iterator@V?$_Vector_val@U?$_Simple_types@U?$pair@MJ@std@@@std@@@std@@@std@@U?$pair@MJ@2@U?$less@X@2@@std@@YA?AV?$_Vector_iterator@V?$_Vector_val@U?$_Simple_types@U?$pair@MJ@std@@@std@@@std@@@0@V10@0ABU?$pair@MJ@0@U?$less@X@0@@Z PROC ; std::upper_bound<std::_Vector_iterator<std::_Vector_val<std::_Simple_types<std::pair<float,long> > > >,std::pair<float,long>,std::less<void> >, COMDAT

; 6725 : _NODISCARD _CONSTEXPR20 _FwdIt upper_bound(_FwdIt _First, _FwdIt _Last, const _Ty& _Val, _Pr _Pred) {

  00000	55		 push	 ebp
  00001	8b ec		 mov	 ebp, esp
  00003	83 ec 38	 sub	 esp, 56			; 00000038H
; File C:\Program Files (x86)\Microsoft Visual Studio\2019\Community\VC\Tools\MSVC\14.28.29333\include\vector

; 310  :         return _Unfancy(this->_Ptr);

  00006	8b 45 0c	 mov	 eax, DWORD PTR __First$[ebp]
  00009	89 45 e0	 mov	 DWORD PTR __Ptr$6[ebp], eax
; File C:\Program Files (x86)\Microsoft Visual Studio\2019\Community\VC\Tools\MSVC\14.28.29333\include\xstddef

; 289  :     return _Ptr;

  0000c	8b 45 e0	 mov	 eax, DWORD PTR __Ptr$6[ebp]
  0000f	89 45 dc	 mov	 DWORD PTR $T5[ebp], eax
; File C:\Program Files (x86)\Microsoft Visual Studio\2019\Community\VC\Tools\MSVC\14.28.29333\include\vector

; 310  :         return _Unfancy(this->_Ptr);

  00012	8b 45 dc	 mov	 eax, DWORD PTR $T5[ebp]
  00015	89 45 d8	 mov	 DWORD PTR $T4[ebp], eax
; File C:\Program Files (x86)\Microsoft Visual Studio\2019\Community\VC\Tools\MSVC\14.28.29333\include\algorithm

; 6728 :     auto _UFirst                = _Get_unwrapped(_First);

  00018	8b 45 d8	 mov	 eax, DWORD PTR $T4[ebp]
  0001b	89 45 f4	 mov	 DWORD PTR __UFirst$[ebp], eax
; File C:\Program Files (x86)\Microsoft Visual Studio\2019\Community\VC\Tools\MSVC\14.28.29333\include\vector

; 310  :         return _Unfancy(this->_Ptr);

  0001e	8b 45 10	 mov	 eax, DWORD PTR __Last$[ebp]
  00021	89 45 d4	 mov	 DWORD PTR __Ptr$3[ebp], eax
; File C:\Program Files (x86)\Microsoft Visual Studio\2019\Community\VC\Tools\MSVC\14.28.29333\include\xstddef

; 289  :     return _Ptr;

  00024	8b 45 d4	 mov	 eax, DWORD PTR __Ptr$3[ebp]
  00027	89 45 d0	 mov	 DWORD PTR $T2[ebp], eax
; File C:\Program Files (x86)\Microsoft Visual Studio\2019\Community\VC\Tools\MSVC\14.28.29333\include\vector

; 310  :         return _Unfancy(this->_Ptr);

  0002a	8b 45 d0	 mov	 eax, DWORD PTR $T2[ebp]
  0002d	89 45 cc	 mov	 DWORD PTR $T1[ebp], eax
; File C:\Program Files (x86)\Microsoft Visual Studio\2019\Community\VC\Tools\MSVC\14.28.29333\include\xutility

; 1794 :         return _Last - _First; // assume the iterator will do debug checking

  00030	8b 45 cc	 mov	 eax, DWORD PTR $T1[ebp]
  00033	2b 45 f4	 sub	 eax, DWORD PTR __UFirst$[ebp]
  00036	c1 f8 03	 sar	 eax, 3
; File C:\Program Files (x86)\Microsoft Visual Studio\2019\Community\VC\Tools\MSVC\14.28.29333\include\algorithm

; 6729 :     _Iter_diff_t<_FwdIt> _Count = _STD distance(_UFirst, _Get_unwrapped(_Last));

  00039	89 45 fc	 mov	 DWORD PTR __Count$[ebp], eax
$LN2@upper_boun:

; 6730 : 
; 6731 :     while (0 < _Count) { // divide and conquer, find half that contains answer

  0003c	83 7d fc 00	 cmp	 DWORD PTR __Count$[ebp], 0
  00040	0f 8e 92 00 00
	00		 jle	 $LN3@upper_boun

; 6732 :         _Iter_diff_t<_FwdIt> _Count2 = _Count / 2;

  00046	8b 45 fc	 mov	 eax, DWORD PTR __Count$[ebp]
  00049	99		 cdq
  0004a	2b c2		 sub	 eax, edx
  0004c	d1 f8		 sar	 eax, 1
  0004e	89 45 e8	 mov	 DWORD PTR __Count2$7[ebp], eax

; 6733 :         const auto _UMid             = _STD next(_UFirst, _Count2);

  00051	8b 45 f4	 mov	 eax, DWORD PTR __UFirst$[ebp]
  00054	89 45 f0	 mov	 DWORD PTR __First$[ebp], eax
; File C:\Program Files (x86)\Microsoft Visual Studio\2019\Community\VC\Tools\MSVC\14.28.29333\include\xutility

; 1714 :         _Where += _Off;

  00057	8b 45 e8	 mov	 eax, DWORD PTR __Count2$7[ebp]
  0005a	8b 4d f0	 mov	 ecx, DWORD PTR __First$[ebp]
  0005d	8d 04 c1	 lea	 eax, DWORD PTR [ecx+eax*8]
  00060	89 45 f0	 mov	 DWORD PTR __First$[ebp], eax
; File C:\Program Files (x86)\Microsoft Visual Studio\2019\Community\VC\Tools\MSVC\14.28.29333\include\algorithm

; 6733 :         const auto _UMid             = _STD next(_UFirst, _Count2);

  00063	8b 45 f0	 mov	 eax, DWORD PTR __First$[ebp]
  00066	89 45 f8	 mov	 DWORD PTR __UMid$8[ebp], eax
; File C:\Program Files (x86)\Microsoft Visual Studio\2019\Community\VC\Tools\MSVC\14.28.29333\include\utility

; 352  :     return _Left.first < _Right.first || (!(_Right.first < _Left.first) && _Left.second < _Right.second);

  00069	8b 45 f8	 mov	 eax, DWORD PTR __UMid$8[ebp]
  0006c	8b 4d 14	 mov	 ecx, DWORD PTR __Val$[ebp]
  0006f	f3 0f 10 00	 movss	 xmm0, DWORD PTR [eax]
  00073	0f 2f 01	 comiss	 xmm0, DWORD PTR [ecx]
  00076	77 23		 ja	 SHORT $LN36@upper_boun
  00078	8b 45 14	 mov	 eax, DWORD PTR __Val$[ebp]
  0007b	8b 4d f8	 mov	 ecx, DWORD PTR __UMid$8[ebp]
  0007e	f3 0f 10 00	 movss	 xmm0, DWORD PTR [eax]
  00082	0f 2f 01	 comiss	 xmm0, DWORD PTR [ecx]
  00085	77 0e		 ja	 SHORT $LN35@upper_boun
  00087	8b 45 14	 mov	 eax, DWORD PTR __Val$[ebp]
  0008a	8b 4d f8	 mov	 ecx, DWORD PTR __UMid$8[ebp]
  0008d	8b 40 04	 mov	 eax, DWORD PTR [eax+4]
  00090	3b 41 04	 cmp	 eax, DWORD PTR [ecx+4]
  00093	7c 06		 jl	 SHORT $LN36@upper_boun
$LN35@upper_boun:
  00095	83 65 e4 00	 and	 DWORD PTR tv144[ebp], 0
  00099	eb 07		 jmp	 SHORT $LN37@upper_boun
$LN36@upper_boun:
  0009b	c7 45 e4 01 00
	00 00		 mov	 DWORD PTR tv144[ebp], 1
$LN37@upper_boun:
; File C:\Program Files (x86)\Microsoft Visual Studio\2019\Community\VC\Tools\MSVC\14.28.29333\include\algorithm

; 6734 :         if (_Pred(_Val, *_UMid)) {

  000a2	0f b6 45 e4	 movzx	 eax, BYTE PTR tv144[ebp]
  000a6	85 c0		 test	 eax, eax
  000a8	74 08		 je	 SHORT $LN4@upper_boun

; 6735 :             _Count = _Count2;

  000aa	8b 45 e8	 mov	 eax, DWORD PTR __Count2$7[ebp]
  000ad	89 45 fc	 mov	 DWORD PTR __Count$[ebp], eax

; 6736 :         } else { // try top half

  000b0	eb 21		 jmp	 SHORT $LN5@upper_boun
$LN4@upper_boun:

; 6737 :             _UFirst = _Next_iter(_UMid);

  000b2	8b 45 f8	 mov	 eax, DWORD PTR __UMid$8[ebp]
  000b5	89 45 ec	 mov	 DWORD PTR __First$[ebp], eax
; File C:\Program Files (x86)\Microsoft Visual Studio\2019\Community\VC\Tools\MSVC\14.28.29333\include\xutility

; 1837 :     return ++_First;

  000b8	8b 45 ec	 mov	 eax, DWORD PTR __First$[ebp]
  000bb	83 c0 08	 add	 eax, 8
  000be	89 45 ec	 mov	 DWORD PTR __First$[ebp], eax
; File C:\Program Files (x86)\Microsoft Visual Studio\2019\Community\VC\Tools\MSVC\14.28.29333\include\algorithm

; 6737 :             _UFirst = _Next_iter(_UMid);

  000c1	8b 45 ec	 mov	 eax, DWORD PTR __First$[ebp]
  000c4	89 45 f4	 mov	 DWORD PTR __UFirst$[ebp], eax

; 6738 :             _Count -= _Count2 + 1;

  000c7	8b 45 e8	 mov	 eax, DWORD PTR __Count2$7[ebp]
  000ca	40		 inc	 eax
  000cb	8b 4d fc	 mov	 ecx, DWORD PTR __Count$[ebp]
  000ce	2b c8		 sub	 ecx, eax
  000d0	89 4d fc	 mov	 DWORD PTR __Count$[ebp], ecx
$LN5@upper_boun:

; 6739 :         }
; 6740 :     }

  000d3	e9 64 ff ff ff	 jmp	 $LN2@upper_boun
$LN3@upper_boun:
; File C:\Program Files (x86)\Microsoft Visual Studio\2019\Community\VC\Tools\MSVC\14.28.29333\include\xutility

; 1490 :         _It._Seek_to(static_cast<_UIter&&>(_UIt));

  000d8	8b 45 f4	 mov	 eax, DWORD PTR __UFirst$[ebp]
  000db	89 45 c8	 mov	 DWORD PTR __It$[ebp], eax
; File C:\Program Files (x86)\Microsoft Visual Studio\2019\Community\VC\Tools\MSVC\14.28.29333\include\vector

; 195  :         _Ptr = _Refancy<_Tptr>(const_cast<value_type*>(_It));

  000de	ff 75 c8	 push	 DWORD PTR __It$[ebp]
  000e1	e8 00 00 00 00	 call	 ??$_Refancy@PAU?$pair@MJ@std@@$0A@@std@@YAPAU?$pair@MJ@0@PAU10@@Z ; std::_Refancy<std::pair<float,long> *,0>
  000e6	59		 pop	 ecx
  000e7	89 45 0c	 mov	 DWORD PTR __First$[ebp], eax
; File C:\Program Files (x86)\Microsoft Visual Studio\2019\Community\VC\Tools\MSVC\14.28.29333\include\algorithm

; 6743 :     return _First;

  000ea	8b 45 08	 mov	 eax, DWORD PTR ___$ReturnUdt$[ebp]
  000ed	8b 4d 0c	 mov	 ecx, DWORD PTR __First$[ebp]
  000f0	89 08		 mov	 DWORD PTR [eax], ecx
  000f2	8b 45 08	 mov	 eax, DWORD PTR ___$ReturnUdt$[ebp]

; 6744 : }

  000f5	c9		 leave
  000f6	c3		 ret	 0
??$upper_bound@V?$_Vector_iterator@V?$_Vector_val@U?$_Simple_types@U?$pair@MJ@std@@@std@@@std@@@std@@U?$pair@MJ@2@U?$less@X@2@@std@@YA?AV?$_Vector_iterator@V?$_Vector_val@U?$_Simple_types@U?$pair@MJ@std@@@std@@@std@@@0@V10@0ABU?$pair@MJ@0@U?$less@X@0@@Z ENDP ; std::upper_bound<std::_Vector_iterator<std::_Vector_val<std::_Simple_types<std::pair<float,long> > > >,std::pair<float,long>,std::less<void> >
_TEXT	ENDS
; Function compile flags: /Odspy
; File C:\Program Files (x86)\Microsoft Visual Studio\2019\Community\VC\Tools\MSVC\14.28.29333\include\xmemory
;	COMDAT ??$_Destroy_range@V?$allocator@H@std@@@std@@YAXPAHQAHAAV?$allocator@H@0@@Z
_TEXT	SEGMENT
__First$ = 8						; size = 4
__Last$ = 12						; size = 4
__Al$ = 16						; size = 4
??$_Destroy_range@V?$allocator@H@std@@@std@@YAXPAHQAHAAV?$allocator@H@0@@Z PROC ; std::_Destroy_range<std::allocator<int> >, COMDAT

; 962  :     _Alloc_ptr_t<_Alloc> _First, const _Alloc_ptr_t<_Alloc> _Last, _Alloc& _Al) noexcept {

  00000	55		 push	 ebp
  00001	8b ec		 mov	 ebp, esp

; 963  :     // note that this is an optimization for debug mode codegen; in release mode the BE removes all of this
; 964  :     using _Ty = typename _Alloc::value_type;
; 965  :     if _CONSTEXPR_IF (!conjunction_v<is_trivially_destructible<_Ty>, _Uses_default_destroy<_Alloc, _Ty*>>) {
; 966  :         for (; _First != _Last; ++_First) {
; 967  :             allocator_traits<_Alloc>::destroy(_Al, _Unfancy(_First));
; 968  :         }
; 969  :     }
; 970  : }

  00003	5d		 pop	 ebp
  00004	c3		 ret	 0
??$_Destroy_range@V?$allocator@H@std@@@std@@YAXPAHQAHAAV?$allocator@H@0@@Z ENDP ; std::_Destroy_range<std::allocator<int> >
_TEXT	ENDS
; Function compile flags: /Odspy
; File C:\Program Files (x86)\Microsoft Visual Studio\2019\Community\VC\Tools\MSVC\14.28.29333\include\vector
; File C:\Program Files (x86)\Microsoft Visual Studio\2019\Community\VC\Tools\MSVC\14.28.29333\include\xmemory
; File C:\Program Files (x86)\Microsoft Visual Studio\2019\Community\VC\Tools\MSVC\14.28.29333\include\vector
; File C:\Program Files (x86)\Microsoft Visual Studio\2019\Community\VC\Tools\MSVC\14.28.29333\include\xmemory
; File C:\Program Files (x86)\Microsoft Visual Studio\2019\Community\VC\Tools\MSVC\14.28.29333\include\vector
; File C:\Program Files (x86)\Microsoft Visual Studio\2019\Community\VC\Tools\MSVC\14.28.29333\include\xmemory
; File C:\Program Files (x86)\Microsoft Visual Studio\2019\Community\VC\Tools\MSVC\14.28.29333\include\limits
; File C:\Program Files (x86)\Microsoft Visual Studio\2019\Community\VC\Tools\MSVC\14.28.29333\include\vector
; File C:\Program Files (x86)\Microsoft Visual Studio\2019\Community\VC\Tools\MSVC\14.28.29333\include\utility
; File C:\Program Files (x86)\Microsoft Visual Studio\2019\Community\VC\Tools\MSVC\14.28.29333\include\vector
; File C:\Program Files (x86)\Microsoft Visual Studio\2019\Community\VC\Tools\MSVC\14.28.29333\include\xmemory
; File C:\Program Files (x86)\Microsoft Visual Studio\2019\Community\VC\Tools\MSVC\14.28.29333\include\vector
; File C:\Program Files (x86)\Microsoft Visual Studio\2019\Community\VC\Tools\MSVC\14.28.29333\include\type_traits
; File C:\Program Files (x86)\Microsoft Visual Studio\2019\Community\VC\Tools\MSVC\14.28.29333\include\vector
; File C:\Program Files (x86)\Microsoft Visual Studio\2019\Community\VC\Tools\MSVC\14.28.29333\include\xstddef
; File C:\Program Files (x86)\Microsoft Visual Studio\2019\Community\VC\Tools\MSVC\14.28.29333\include\vcruntime_new.h
; File C:\Program Files (x86)\Microsoft Visual Studio\2019\Community\VC\Tools\MSVC\14.28.29333\include\type_traits
; File C:\Program Files (x86)\Microsoft Visual Studio\2019\Community\VC\Tools\MSVC\14.28.29333\include\xmemory
; File C:\Program Files (x86)\Microsoft Visual Studio\2019\Community\VC\Tools\MSVC\14.28.29333\include\vector
; File C:\Program Files (x86)\Microsoft Visual Studio\2019\Community\VC\Tools\MSVC\14.28.29333\include\xmemory
; File C:\Program Files (x86)\Microsoft Visual Studio\2019\Community\VC\Tools\MSVC\14.28.29333\include\vector
; File C:\Program Files (x86)\Microsoft Visual Studio\2019\Community\VC\Tools\MSVC\14.28.29333\include\xmemory
; File C:\Program Files (x86)\Microsoft Visual Studio\2019\Community\VC\Tools\MSVC\14.28.29333\include\vector
; File C:\Program Files (x86)\Microsoft Visual Studio\2019\Community\VC\Tools\MSVC\14.28.29333\include\xmemory
; File C:\Program Files (x86)\Microsoft Visual Studio\2019\Community\VC\Tools\MSVC\14.28.29333\include\vector
;	COMDAT ??$_Emplace_reallocate@ABH@?$vector@HV?$allocator@H@std@@@std@@QAEPAHQAHABH@Z
_TEXT	SEGMENT
__Max_possible$2 = -68					; size = 4
$T3 = -64						; size = 4
__Al$ = -60						; size = 4
__Last$ = -56						; size = 4
$T4 = -52						; size = 4
$T5 = -48						; size = 4
__First$ = -44						; size = 4
$T6 = -40						; size = 4
$T7 = -36						; size = 4
__First$ = -32						; size = 4
__Last$ = -28						; size = 4
$T8 = -24						; size = 4
$T9 = -20						; size = 4
__$EHRec$ = -16						; size = 16
$T10 = 0						; size = 4
$T11 = 4						; size = 4
$T12 = 8						; size = 4
$T13 = 12						; size = 4
$T14 = 16						; size = 4
$T15 = 20						; size = 4
$T16 = 24						; size = 4
$T17 = 28						; size = 4
$T18 = 32						; size = 4
$T19 = 36						; size = 4
$T20 = 40						; size = 4
__Newsize$ = 44						; size = 4
__Constructed_last$ = 48				; size = 4
__Oldsize$ = 52						; size = 4
tv172 = 56						; size = 4
$T21 = 60						; size = 4
$T22 = 64						; size = 4
__My_data$ = 68						; size = 4
__Constructed_first$ = 72				; size = 4
___formal$ = 76						; size = 1
__Overflow_is_possible$23 = 83				; size = 1
__Newcapacity$ = 84					; size = 4
__Mylast$ = 88						; size = 4
__Myfirst$ = 92						; size = 4
__Whereoff$ = 96					; size = 4
$T24 = 103						; size = 1
_this$ = 104						; size = 4
__Newvec$ = 108						; size = 4
__Whereptr$ = 120					; size = 4
_<_Val_0>$ = 124					; size = 4
??$_Emplace_reallocate@ABH@?$vector@HV?$allocator@H@std@@@std@@QAEPAHQAHABH@Z PROC ; std::vector<int,std::allocator<int> >::_Emplace_reallocate<int const &>, COMDAT
; _this$ = ecx

; 725  :     pointer _Emplace_reallocate(const pointer _Whereptr, _Valty&&... _Val) {

  00000	55		 push	 ebp
  00001	8d 6c 24 90	 lea	 ebp, DWORD PTR [esp-112]
  00005	83 ec 70	 sub	 esp, 112		; 00000070H
  00008	6a ff		 push	 -1
  0000a	68 00 00 00 00	 push	 __ehhandler$??$_Emplace_reallocate@ABH@?$vector@HV?$allocator@H@std@@@std@@QAEPAHQAHABH@Z
  0000f	64 a1 00 00 00
	00		 mov	 eax, DWORD PTR fs:0
  00015	50		 push	 eax
  00016	51		 push	 ecx
  00017	83 ec 34	 sub	 esp, 52			; 00000034H
  0001a	53		 push	 ebx
  0001b	56		 push	 esi
  0001c	57		 push	 edi
  0001d	a1 00 00 00 00	 mov	 eax, DWORD PTR ___security_cookie
  00022	33 c5		 xor	 eax, ebp
  00024	50		 push	 eax
  00025	8d 45 f4	 lea	 eax, DWORD PTR __$EHRec$[ebp+4]
  00028	64 a3 00 00 00
	00		 mov	 DWORD PTR fs:0, eax
  0002e	89 65 f0	 mov	 DWORD PTR __$EHRec$[ebp], esp
  00031	89 4d 68	 mov	 DWORD PTR _this$[ebp], ecx

; 1733 :         return _Mypair._Get_first();

  00034	8b 45 68	 mov	 eax, DWORD PTR _this$[ebp]
; File C:\Program Files (x86)\Microsoft Visual Studio\2019\Community\VC\Tools\MSVC\14.28.29333\include\xmemory

; 1347 :         return *this;

  00037	89 45 28	 mov	 DWORD PTR $T20[ebp], eax
; File C:\Program Files (x86)\Microsoft Visual Studio\2019\Community\VC\Tools\MSVC\14.28.29333\include\vector

; 1733 :         return _Mypair._Get_first();

  0003a	8b 45 28	 mov	 eax, DWORD PTR $T20[ebp]
  0003d	89 45 c4	 mov	 DWORD PTR __Al$[ebp], eax

; 726  :         // reallocate and insert by perfectly forwarding _Val at _Whereptr
; 727  :         _Alty& _Al        = _Getal();
; 728  :         auto& _My_data    = _Mypair._Myval2;

  00040	8b 45 68	 mov	 eax, DWORD PTR _this$[ebp]
  00043	89 45 44	 mov	 DWORD PTR __My_data$[ebp], eax

; 729  :         pointer& _Myfirst = _My_data._Myfirst;

  00046	8b 45 44	 mov	 eax, DWORD PTR __My_data$[ebp]
  00049	89 45 5c	 mov	 DWORD PTR __Myfirst$[ebp], eax

; 730  :         pointer& _Mylast  = _My_data._Mylast;

  0004c	8b 45 44	 mov	 eax, DWORD PTR __My_data$[ebp]
  0004f	83 c0 04	 add	 eax, 4
  00052	89 45 58	 mov	 DWORD PTR __Mylast$[ebp], eax

; 731  : 
; 732  :         _STL_INTERNAL_CHECK(_Mylast == _My_data._Myend); // check that we have no unused capacity
; 733  : 
; 734  :         const auto _Whereoff = static_cast<size_type>(_Whereptr - _Myfirst);

  00055	8b 45 5c	 mov	 eax, DWORD PTR __Myfirst$[ebp]
  00058	8b 4d 78	 mov	 ecx, DWORD PTR __Whereptr$[ebp]
  0005b	2b 08		 sub	 ecx, DWORD PTR [eax]
  0005d	c1 f9 02	 sar	 ecx, 2
  00060	89 4d 60	 mov	 DWORD PTR __Whereoff$[ebp], ecx

; 735  :         const auto _Oldsize  = static_cast<size_type>(_Mylast - _Myfirst);

  00063	8b 45 58	 mov	 eax, DWORD PTR __Mylast$[ebp]
  00066	8b 4d 5c	 mov	 ecx, DWORD PTR __Myfirst$[ebp]
  00069	8b 00		 mov	 eax, DWORD PTR [eax]
  0006b	2b 01		 sub	 eax, DWORD PTR [ecx]
  0006d	c1 f8 02	 sar	 eax, 2
  00070	89 45 34	 mov	 DWORD PTR __Oldsize$[ebp], eax

; 1737 :         return _Mypair._Get_first();

  00073	8b 45 68	 mov	 eax, DWORD PTR _this$[ebp]
; File C:\Program Files (x86)\Microsoft Visual Studio\2019\Community\VC\Tools\MSVC\14.28.29333\include\xmemory

; 1351 :         return *this;

  00076	89 45 24	 mov	 DWORD PTR $T19[ebp], eax
; File C:\Program Files (x86)\Microsoft Visual Studio\2019\Community\VC\Tools\MSVC\14.28.29333\include\vector

; 1737 :         return _Mypair._Get_first();

  00079	8b 45 24	 mov	 eax, DWORD PTR $T19[ebp]
  0007c	89 45 c0	 mov	 DWORD PTR $T3[ebp], eax
; File C:\Program Files (x86)\Microsoft Visual Studio\2019\Community\VC\Tools\MSVC\14.28.29333\include\xmemory

; 710  :         return static_cast<size_t>(-1) / sizeof(value_type);

  0007f	c7 45 40 ff ff
	ff 3f		 mov	 DWORD PTR $T22[ebp], 1073741823 ; 3fffffffH
; File C:\Program Files (x86)\Microsoft Visual Studio\2019\Community\VC\Tools\MSVC\14.28.29333\include\limits

; 557  :         return INT_MAX;

  00086	c7 45 20 ff ff
	ff 7f		 mov	 DWORD PTR $T18[ebp], 2147483647 ; 7fffffffH
; File C:\Program Files (x86)\Microsoft Visual Studio\2019\Community\VC\Tools\MSVC\14.28.29333\include\vector

; 1488 :         return (_STD min)(

  0008d	8b 45 20	 mov	 eax, DWORD PTR $T18[ebp]
  00090	89 45 3c	 mov	 DWORD PTR $T21[ebp], eax
; File C:\Program Files (x86)\Microsoft Visual Studio\2019\Community\VC\Tools\MSVC\14.28.29333\include\utility

; 68   :     return _Right < _Left ? _Right : _Left;

  00093	8b 45 40	 mov	 eax, DWORD PTR $T22[ebp]
  00096	3b 45 3c	 cmp	 eax, DWORD PTR $T21[ebp]
  00099	73 08		 jae	 SHORT $LN34@Emplace_re
  0009b	8d 45 40	 lea	 eax, DWORD PTR $T22[ebp]
  0009e	89 45 38	 mov	 DWORD PTR tv172[ebp], eax
  000a1	eb 06		 jmp	 SHORT $LN35@Emplace_re
$LN34@Emplace_re:
  000a3	8d 45 3c	 lea	 eax, DWORD PTR $T21[ebp]
  000a6	89 45 38	 mov	 DWORD PTR tv172[ebp], eax
$LN35@Emplace_re:
  000a9	8b 45 38	 mov	 eax, DWORD PTR tv172[ebp]
  000ac	89 45 1c	 mov	 DWORD PTR $T17[ebp], eax
  000af	8b 45 1c	 mov	 eax, DWORD PTR $T17[ebp]
  000b2	89 45 18	 mov	 DWORD PTR $T16[ebp], eax
; File C:\Program Files (x86)\Microsoft Visual Studio\2019\Community\VC\Tools\MSVC\14.28.29333\include\vector

; 1488 :         return (_STD min)(

  000b5	8b 45 18	 mov	 eax, DWORD PTR $T16[ebp]
  000b8	8b 00		 mov	 eax, DWORD PTR [eax]
  000ba	89 45 14	 mov	 DWORD PTR $T15[ebp], eax

; 736  : 
; 737  :         if (_Oldsize == max_size()) {

  000bd	8b 45 34	 mov	 eax, DWORD PTR __Oldsize$[ebp]
  000c0	3b 45 14	 cmp	 eax, DWORD PTR $T15[ebp]
  000c3	75 05		 jne	 SHORT $LN2@Emplace_re

; 738  :             _Xlength();

  000c5	e8 00 00 00 00	 call	 ?_Xlength@?$vector@HV?$allocator@H@std@@@std@@CAXXZ ; std::vector<int,std::allocator<int> >::_Xlength
$LN2@Emplace_re:

; 739  :         }
; 740  : 
; 741  :         const size_type _Newsize     = _Oldsize + 1;

  000ca	8b 45 34	 mov	 eax, DWORD PTR __Oldsize$[ebp]
  000cd	40		 inc	 eax
  000ce	89 45 2c	 mov	 DWORD PTR __Newsize$[ebp], eax

; 742  :         const size_type _Newcapacity = _Calculate_growth(_Newsize);

  000d1	ff 75 2c	 push	 DWORD PTR __Newsize$[ebp]
  000d4	8b 4d 68	 mov	 ecx, DWORD PTR _this$[ebp]
  000d7	e8 00 00 00 00	 call	 ?_Calculate_growth@?$vector@HV?$allocator@H@std@@@std@@ABEII@Z ; std::vector<int,std::allocator<int> >::_Calculate_growth
  000dc	89 45 54	 mov	 DWORD PTR __Newcapacity$[ebp], eax
; File C:\Program Files (x86)\Microsoft Visual Studio\2019\Community\VC\Tools\MSVC\14.28.29333\include\xmemory

; 56   :     constexpr bool _Overflow_is_possible = _Ty_size > 1;

  000df	c6 45 53 01	 mov	 BYTE PTR __Overflow_is_possible$23[ebp], 1

; 57   : 
; 58   :     if _CONSTEXPR_IF (_Overflow_is_possible) {
; 59   :         constexpr size_t _Max_possible = static_cast<size_t>(-1) / _Ty_size;

  000e3	c7 45 bc ff ff
	ff 3f		 mov	 DWORD PTR __Max_possible$2[ebp], 1073741823 ; 3fffffffH

; 60   :         if (_Count > _Max_possible) {

  000ea	81 7d 54 ff ff
	ff 3f		 cmp	 DWORD PTR __Newcapacity$[ebp], 1073741823 ; 3fffffffH
  000f1	76 05		 jbe	 SHORT $LN67@Emplace_re

; 61   :             _Throw_bad_array_new_length(); // multiply overflow

  000f3	e8 00 00 00 00	 call	 ?_Throw_bad_array_new_length@std@@YAXXZ ; std::_Throw_bad_array_new_length
$LN67@Emplace_re:

; 62   :         }
; 63   :     }
; 64   : 
; 65   :     return _Count * _Ty_size;

  000f8	8b 45 54	 mov	 eax, DWORD PTR __Newcapacity$[ebp]
  000fb	c1 e0 02	 shl	 eax, 2
  000fe	89 45 10	 mov	 DWORD PTR $T14[ebp], eax

; 814  :         return static_cast<_Ty*>(_Allocate<_New_alignof<_Ty>>(_Get_size_of_n<sizeof(_Ty)>(_Count)));

  00101	ff 75 10	 push	 DWORD PTR $T14[ebp]
  00104	e8 00 00 00 00	 call	 ??$_Allocate@$07U_Default_allocate_traits@std@@$0A@@std@@YAPAXI@Z ; std::_Allocate<8,std::_Default_allocate_traits,0>
  00109	59		 pop	 ecx
  0010a	89 45 6c	 mov	 DWORD PTR __Newvec$[ebp], eax
; File C:\Program Files (x86)\Microsoft Visual Studio\2019\Community\VC\Tools\MSVC\14.28.29333\include\vector

; 745  :         const pointer _Constructed_last = _Newvec + _Whereoff + 1;

  0010d	8b 45 60	 mov	 eax, DWORD PTR __Whereoff$[ebp]
  00110	8b 4d 6c	 mov	 ecx, DWORD PTR __Newvec$[ebp]
  00113	8d 44 81 04	 lea	 eax, DWORD PTR [ecx+eax*4+4]
  00117	89 45 30	 mov	 DWORD PTR __Constructed_last$[ebp], eax

; 746  :         pointer _Constructed_first      = _Constructed_last;

  0011a	8b 45 30	 mov	 eax, DWORD PTR __Constructed_last$[ebp]
  0011d	89 45 48	 mov	 DWORD PTR __Constructed_first$[ebp], eax

; 747  : 
; 748  :         _TRY_BEGIN

  00120	83 65 fc 00	 and	 DWORD PTR __$EHRec$[ebp+12], 0
; File C:\Program Files (x86)\Microsoft Visual Studio\2019\Community\VC\Tools\MSVC\14.28.29333\include\type_traits

; 1443 :     return static_cast<_Ty&&>(_Arg);

  00124	8b 45 7c	 mov	 eax, DWORD PTR _<_Val_0>$[ebp]
  00127	89 45 08	 mov	 DWORD PTR $T12[ebp], eax
; File C:\Program Files (x86)\Microsoft Visual Studio\2019\Community\VC\Tools\MSVC\14.28.29333\include\vector

; 749  :         _Alty_traits::construct(_Al, _Unfancy(_Newvec + _Whereoff), _STD forward<_Valty>(_Val)...);

  0012a	8b 45 60	 mov	 eax, DWORD PTR __Whereoff$[ebp]
  0012d	8b 4d 6c	 mov	 ecx, DWORD PTR __Newvec$[ebp]
  00130	8d 04 81	 lea	 eax, DWORD PTR [ecx+eax*4]
; File C:\Program Files (x86)\Microsoft Visual Studio\2019\Community\VC\Tools\MSVC\14.28.29333\include\xstddef

; 289  :     return _Ptr;

  00133	89 45 0c	 mov	 DWORD PTR $T13[ebp], eax
; File C:\Program Files (x86)\Microsoft Visual Studio\2019\Community\VC\Tools\MSVC\14.28.29333\include\vcruntime_new.h

; 169  :         return _Where;

  00136	8b 45 0c	 mov	 eax, DWORD PTR $T13[ebp]
  00139	89 45 04	 mov	 DWORD PTR $T11[ebp], eax
; File C:\Program Files (x86)\Microsoft Visual Studio\2019\Community\VC\Tools\MSVC\14.28.29333\include\type_traits

; 1443 :     return static_cast<_Ty&&>(_Arg);

  0013c	8b 45 08	 mov	 eax, DWORD PTR $T12[ebp]
  0013f	89 45 00	 mov	 DWORD PTR $T10[ebp], eax
; File C:\Program Files (x86)\Microsoft Visual Studio\2019\Community\VC\Tools\MSVC\14.28.29333\include\xmemory

; 701  :         ::new (const_cast<void*>(static_cast<const volatile void*>(_Ptr))) _Objty(_STD forward<_Types>(_Args)...);

  00142	8b 45 04	 mov	 eax, DWORD PTR $T11[ebp]
  00145	8b 4d 00	 mov	 ecx, DWORD PTR $T10[ebp]
  00148	8b 09		 mov	 ecx, DWORD PTR [ecx]
  0014a	89 08		 mov	 DWORD PTR [eax], ecx
; File C:\Program Files (x86)\Microsoft Visual Studio\2019\Community\VC\Tools\MSVC\14.28.29333\include\vector

; 750  :         _Constructed_first = _Newvec + _Whereoff;

  0014c	8b 45 60	 mov	 eax, DWORD PTR __Whereoff$[ebp]
  0014f	8b 4d 6c	 mov	 ecx, DWORD PTR __Newvec$[ebp]
  00152	8d 04 81	 lea	 eax, DWORD PTR [ecx+eax*4]
  00155	89 45 48	 mov	 DWORD PTR __Constructed_first$[ebp], eax

; 751  : 
; 752  :         if (_Whereptr == _Mylast) { // at back, provide strong guarantee

  00158	8b 45 58	 mov	 eax, DWORD PTR __Mylast$[ebp]
  0015b	8b 4d 78	 mov	 ecx, DWORD PTR __Whereptr$[ebp]
  0015e	3b 08		 cmp	 ecx, DWORD PTR [eax]
  00160	75 3d		 jne	 SHORT $LN4@Emplace_re

; 753  :             _Umove_if_noexcept(_Myfirst, _Mylast, _Newvec);

  00162	8b 45 58	 mov	 eax, DWORD PTR __Mylast$[ebp]
  00165	8b 00		 mov	 eax, DWORD PTR [eax]
  00167	89 45 e4	 mov	 DWORD PTR __Last$[ebp], eax
  0016a	8b 45 5c	 mov	 eax, DWORD PTR __Myfirst$[ebp]
  0016d	8b 00		 mov	 eax, DWORD PTR [eax]
  0016f	89 45 e0	 mov	 DWORD PTR __First$[ebp], eax

; 1607 :         _Umove_if_noexcept1(_First, _Last, _Dest,

  00172	33 c0		 xor	 eax, eax
  00174	88 45 67	 mov	 BYTE PTR $T24[ebp], al
  00177	8a 45 67	 mov	 al, BYTE PTR $T24[ebp]
  0017a	88 45 4c	 mov	 BYTE PTR ___formal$[ebp], al

; 1733 :         return _Mypair._Get_first();

  0017d	8b 45 68	 mov	 eax, DWORD PTR _this$[ebp]
; File C:\Program Files (x86)\Microsoft Visual Studio\2019\Community\VC\Tools\MSVC\14.28.29333\include\xmemory

; 1347 :         return *this;

  00180	89 45 ec	 mov	 DWORD PTR $T9[ebp], eax
; File C:\Program Files (x86)\Microsoft Visual Studio\2019\Community\VC\Tools\MSVC\14.28.29333\include\vector

; 1733 :         return _Mypair._Get_first();

  00183	8b 45 ec	 mov	 eax, DWORD PTR $T9[ebp]
  00186	89 45 e8	 mov	 DWORD PTR $T8[ebp], eax

; 1597 :         _Uninitialized_move(_First, _Last, _Dest, _Getal());

  00189	ff 75 e8	 push	 DWORD PTR $T8[ebp]
  0018c	ff 75 6c	 push	 DWORD PTR __Newvec$[ebp]
  0018f	ff 75 e4	 push	 DWORD PTR __Last$[ebp]
  00192	ff 75 e0	 push	 DWORD PTR __First$[ebp]
  00195	e8 00 00 00 00	 call	 ??$_Uninitialized_move@PAHV?$allocator@H@std@@@std@@YAPAHQAH0PAHAAV?$allocator@H@0@@Z ; std::_Uninitialized_move<int *,std::allocator<int> >
  0019a	83 c4 10	 add	 esp, 16			; 00000010H

; 754  :         } else { // provide basic guarantee

  0019d	eb 5e		 jmp	 SHORT $LN5@Emplace_re
$LN4@Emplace_re:

; 755  :             _Umove(_Myfirst, _Whereptr, _Newvec);

  0019f	8b 45 5c	 mov	 eax, DWORD PTR __Myfirst$[ebp]
  001a2	8b 00		 mov	 eax, DWORD PTR [eax]
  001a4	89 45 d4	 mov	 DWORD PTR __First$[ebp], eax

; 1733 :         return _Mypair._Get_first();

  001a7	8b 45 68	 mov	 eax, DWORD PTR _this$[ebp]
; File C:\Program Files (x86)\Microsoft Visual Studio\2019\Community\VC\Tools\MSVC\14.28.29333\include\xmemory

; 1347 :         return *this;

  001aa	89 45 dc	 mov	 DWORD PTR $T7[ebp], eax
; File C:\Program Files (x86)\Microsoft Visual Studio\2019\Community\VC\Tools\MSVC\14.28.29333\include\vector

; 1733 :         return _Mypair._Get_first();

  001ad	8b 45 dc	 mov	 eax, DWORD PTR $T7[ebp]
  001b0	89 45 d8	 mov	 DWORD PTR $T6[ebp], eax

; 1592 :         return _Uninitialized_move(_First, _Last, _Dest, _Getal());

  001b3	ff 75 d8	 push	 DWORD PTR $T6[ebp]
  001b6	ff 75 6c	 push	 DWORD PTR __Newvec$[ebp]
  001b9	ff 75 78	 push	 DWORD PTR __Whereptr$[ebp]
  001bc	ff 75 d4	 push	 DWORD PTR __First$[ebp]
  001bf	e8 00 00 00 00	 call	 ??$_Uninitialized_move@PAHV?$allocator@H@std@@@std@@YAPAHQAH0PAHAAV?$allocator@H@0@@Z ; std::_Uninitialized_move<int *,std::allocator<int> >
  001c4	83 c4 10	 add	 esp, 16			; 00000010H

; 756  :             _Constructed_first = _Newvec;

  001c7	8b 45 6c	 mov	 eax, DWORD PTR __Newvec$[ebp]
  001ca	89 45 48	 mov	 DWORD PTR __Constructed_first$[ebp], eax

; 757  :             _Umove(_Whereptr, _Mylast, _Newvec + _Whereoff + 1);

  001cd	8b 45 58	 mov	 eax, DWORD PTR __Mylast$[ebp]
  001d0	8b 00		 mov	 eax, DWORD PTR [eax]
  001d2	89 45 c8	 mov	 DWORD PTR __Last$[ebp], eax

; 1733 :         return _Mypair._Get_first();

  001d5	8b 45 68	 mov	 eax, DWORD PTR _this$[ebp]
; File C:\Program Files (x86)\Microsoft Visual Studio\2019\Community\VC\Tools\MSVC\14.28.29333\include\xmemory

; 1347 :         return *this;

  001d8	89 45 d0	 mov	 DWORD PTR $T5[ebp], eax
; File C:\Program Files (x86)\Microsoft Visual Studio\2019\Community\VC\Tools\MSVC\14.28.29333\include\vector

; 1733 :         return _Mypair._Get_first();

  001db	8b 45 d0	 mov	 eax, DWORD PTR $T5[ebp]
  001de	89 45 cc	 mov	 DWORD PTR $T4[ebp], eax

; 1592 :         return _Uninitialized_move(_First, _Last, _Dest, _Getal());

  001e1	ff 75 cc	 push	 DWORD PTR $T4[ebp]

; 757  :             _Umove(_Whereptr, _Mylast, _Newvec + _Whereoff + 1);

  001e4	8b 45 60	 mov	 eax, DWORD PTR __Whereoff$[ebp]
  001e7	8b 4d 6c	 mov	 ecx, DWORD PTR __Newvec$[ebp]
  001ea	8d 44 81 04	 lea	 eax, DWORD PTR [ecx+eax*4+4]

; 1592 :         return _Uninitialized_move(_First, _Last, _Dest, _Getal());

  001ee	50		 push	 eax
  001ef	ff 75 c8	 push	 DWORD PTR __Last$[ebp]
  001f2	ff 75 78	 push	 DWORD PTR __Whereptr$[ebp]
  001f5	e8 00 00 00 00	 call	 ??$_Uninitialized_move@PAHV?$allocator@H@std@@@std@@YAPAHQAH0PAHAAV?$allocator@H@0@@Z ; std::_Uninitialized_move<int *,std::allocator<int> >
  001fa	83 c4 10	 add	 esp, 16			; 00000010H
$LN5@Emplace_re:

; 757  :             _Umove(_Whereptr, _Mylast, _Newvec + _Whereoff + 1);

  001fd	eb 2b		 jmp	 SHORT $LN7@Emplace_re
__catch$??$_Emplace_reallocate@ABH@?$vector@HV?$allocator@H@std@@@std@@QAEPAHQAHABH@Z$0:

; 758  :         }
; 759  :         _CATCH_ALL
; 760  :         _Destroy(_Constructed_first, _Constructed_last);

  001ff	ff 75 30	 push	 DWORD PTR __Constructed_last$[ebp]
  00202	ff 75 48	 push	 DWORD PTR __Constructed_first$[ebp]
  00205	8b 4d 68	 mov	 ecx, DWORD PTR _this$[ebp]
  00208	e8 00 00 00 00	 call	 ?_Destroy@?$vector@HV?$allocator@H@std@@@std@@AAEXPAH0@Z ; std::vector<int,std::allocator<int> >::_Destroy

; 761  :         _Al.deallocate(_Newvec, _Newcapacity);

  0020d	ff 75 54	 push	 DWORD PTR __Newcapacity$[ebp]
  00210	ff 75 6c	 push	 DWORD PTR __Newvec$[ebp]
  00213	8b 4d c4	 mov	 ecx, DWORD PTR __Al$[ebp]
  00216	e8 00 00 00 00	 call	 ?deallocate@?$allocator@H@std@@QAEXQAHI@Z ; std::allocator<int>::deallocate

; 762  :         _RERAISE;

  0021b	6a 00		 push	 0
  0021d	6a 00		 push	 0
  0021f	e8 00 00 00 00	 call	 __CxxThrowException@8

; 763  :         _CATCH_END

  00224	b8 00 00 00 00	 mov	 eax, $LN10@Emplace_re
  00229	c3		 ret	 0
$LN7@Emplace_re:
  0022a	83 4d fc ff	 or	 DWORD PTR __$EHRec$[ebp+12], -1
  0022e	eb 04		 jmp	 SHORT __tryend$??$_Emplace_reallocate@ABH@?$vector@HV?$allocator@H@std@@@std@@QAEPAHQAHABH@Z$1
$LN10@Emplace_re:
; File C:\Program Files (x86)\Microsoft Visual Studio\2019\Community\VC\Tools\MSVC\14.28.29333\include\xmemory
  00230	83 4d fc ff	 or	 DWORD PTR __$EHRec$[ebp+12], -1
__tryend$??$_Emplace_reallocate@ABH@?$vector@HV?$allocator@H@std@@@std@@QAEPAHQAHABH@Z$1:
; File C:\Program Files (x86)\Microsoft Visual Studio\2019\Community\VC\Tools\MSVC\14.28.29333\include\vector

; 764  : 
; 765  :         _Change_array(_Newvec, _Newsize, _Newcapacity);

  00234	ff 75 54	 push	 DWORD PTR __Newcapacity$[ebp]
  00237	ff 75 2c	 push	 DWORD PTR __Newsize$[ebp]
  0023a	ff 75 6c	 push	 DWORD PTR __Newvec$[ebp]
  0023d	8b 4d 68	 mov	 ecx, DWORD PTR _this$[ebp]
  00240	e8 00 00 00 00	 call	 ?_Change_array@?$vector@HV?$allocator@H@std@@@std@@AAEXQAHII@Z ; std::vector<int,std::allocator<int> >::_Change_array

; 766  :         return _Newvec + _Whereoff;

  00245	8b 45 60	 mov	 eax, DWORD PTR __Whereoff$[ebp]
  00248	8b 4d 6c	 mov	 ecx, DWORD PTR __Newvec$[ebp]
  0024b	8d 04 81	 lea	 eax, DWORD PTR [ecx+eax*4]
$LN70@Emplace_re:

; 767  :     }

  0024e	8b 4d f4	 mov	 ecx, DWORD PTR __$EHRec$[ebp+4]
  00251	64 89 0d 00 00
	00 00		 mov	 DWORD PTR fs:0, ecx
  00258	59		 pop	 ecx
  00259	5f		 pop	 edi
  0025a	5e		 pop	 esi
  0025b	5b		 pop	 ebx
  0025c	83 c5 70	 add	 ebp, 112		; 00000070H
  0025f	c9		 leave
  00260	c2 08 00	 ret	 8
  00263	cc		 int	 3
  00264	cc		 int	 3
  00265	cc		 int	 3
  00266	cc		 int	 3
  00267	cc		 int	 3
_TEXT	ENDS
;	COMDAT text$x
text$x	SEGMENT
__ehhandler$??$_Emplace_reallocate@ABH@?$vector@HV?$allocator@H@std@@@std@@QAEPAHQAHABH@Z:
  00000	90		 npad	 1
  00001	90		 npad	 1
  00002	8b 54 24 08	 mov	 edx, DWORD PTR [esp+8]
  00006	8d 42 0c	 lea	 eax, DWORD PTR [edx+12]
  00009	8b 4a b8	 mov	 ecx, DWORD PTR [edx-72]
  0000c	33 c8		 xor	 ecx, eax
  0000e	e8 00 00 00 00	 call	 @__security_check_cookie@4
  00013	b8 00 00 00 00	 mov	 eax, OFFSET __ehfuncinfo$??$_Emplace_reallocate@ABH@?$vector@HV?$allocator@H@std@@@std@@QAEPAHQAHABH@Z
  00018	e9 00 00 00 00	 jmp	 ___CxxFrameHandler3
text$x	ENDS
??$_Emplace_reallocate@ABH@?$vector@HV?$allocator@H@std@@@std@@QAEPAHQAHABH@Z ENDP ; std::vector<int,std::allocator<int> >::_Emplace_reallocate<int const &>
; Function compile flags: /Odspy
; File C:\Program Files (x86)\Microsoft Visual Studio\2019\Community\VC\Tools\MSVC\14.28.29333\include\vector
; File C:\Program Files (x86)\Microsoft Visual Studio\2019\Community\VC\Tools\MSVC\14.28.29333\include\type_traits
; File C:\Program Files (x86)\Microsoft Visual Studio\2019\Community\VC\Tools\MSVC\14.28.29333\include\vector
; File C:\Program Files (x86)\Microsoft Visual Studio\2019\Community\VC\Tools\MSVC\14.28.29333\include\xstddef
; File C:\Program Files (x86)\Microsoft Visual Studio\2019\Community\VC\Tools\MSVC\14.28.29333\include\vector
; File C:\Program Files (x86)\Microsoft Visual Studio\2019\Community\VC\Tools\MSVC\14.28.29333\include\xmemory
; File C:\Program Files (x86)\Microsoft Visual Studio\2019\Community\VC\Tools\MSVC\14.28.29333\include\vector
; File C:\Program Files (x86)\Microsoft Visual Studio\2019\Community\VC\Tools\MSVC\14.28.29333\include\vcruntime_new.h
; File C:\Program Files (x86)\Microsoft Visual Studio\2019\Community\VC\Tools\MSVC\14.28.29333\include\type_traits
; File C:\Program Files (x86)\Microsoft Visual Studio\2019\Community\VC\Tools\MSVC\14.28.29333\include\xmemory
; File C:\Program Files (x86)\Microsoft Visual Studio\2019\Community\VC\Tools\MSVC\14.28.29333\include\vector
;	COMDAT ??$_Emplace_back_with_unused_capacity@ABH@?$vector@HV?$allocator@H@std@@@std@@AAEXABH@Z
_TEXT	SEGMENT
__Result$ = -44						; size = 4
$T1 = -40						; size = 4
$T2 = -36						; size = 4
$T3 = -32						; size = 4
$T4 = -28						; size = 4
$T5 = -24						; size = 4
$T6 = -20						; size = 4
__Ptr$ = -16						; size = 4
__My_data$ = -12					; size = 4
_this$ = -8						; size = 4
__Mylast$ = -4						; size = 4
_<_Val_0>$ = 8						; size = 4
??$_Emplace_back_with_unused_capacity@ABH@?$vector@HV?$allocator@H@std@@@std@@AAEXABH@Z PROC ; std::vector<int,std::allocator<int> >::_Emplace_back_with_unused_capacity<int const &>, COMDAT
; _this$ = ecx

; 682  :     decltype(auto) _Emplace_back_with_unused_capacity(_Valty&&... _Val) {

  00000	55		 push	 ebp
  00001	8b ec		 mov	 ebp, esp
  00003	83 ec 2c	 sub	 esp, 44			; 0000002cH
  00006	89 4d f8	 mov	 DWORD PTR _this$[ebp], ecx

; 683  :         // insert by perfectly forwarding into element at end, provide strong guarantee
; 684  :         auto& _My_data   = _Mypair._Myval2;

  00009	8b 45 f8	 mov	 eax, DWORD PTR _this$[ebp]
  0000c	89 45 f4	 mov	 DWORD PTR __My_data$[ebp], eax

; 685  :         pointer& _Mylast = _My_data._Mylast;

  0000f	8b 45 f4	 mov	 eax, DWORD PTR __My_data$[ebp]
  00012	83 c0 04	 add	 eax, 4
  00015	89 45 fc	 mov	 DWORD PTR __Mylast$[ebp], eax
; File C:\Program Files (x86)\Microsoft Visual Studio\2019\Community\VC\Tools\MSVC\14.28.29333\include\type_traits

; 1443 :     return static_cast<_Ty&&>(_Arg);

  00018	8b 45 08	 mov	 eax, DWORD PTR _<_Val_0>$[ebp]
  0001b	89 45 e4	 mov	 DWORD PTR $T4[ebp], eax
; File C:\Program Files (x86)\Microsoft Visual Studio\2019\Community\VC\Tools\MSVC\14.28.29333\include\vector

; 687  :         _Alty_traits::construct(_Getal(), _Unfancy(_Mylast), _STD forward<_Valty>(_Val)...);

  0001e	8b 45 fc	 mov	 eax, DWORD PTR __Mylast$[ebp]
  00021	8b 00		 mov	 eax, DWORD PTR [eax]
  00023	89 45 f0	 mov	 DWORD PTR __Ptr$[ebp], eax
; File C:\Program Files (x86)\Microsoft Visual Studio\2019\Community\VC\Tools\MSVC\14.28.29333\include\xstddef

; 289  :     return _Ptr;

  00026	8b 45 f0	 mov	 eax, DWORD PTR __Ptr$[ebp]
  00029	89 45 e8	 mov	 DWORD PTR $T5[ebp], eax
; File C:\Program Files (x86)\Microsoft Visual Studio\2019\Community\VC\Tools\MSVC\14.28.29333\include\vector

; 1733 :         return _Mypair._Get_first();

  0002c	8b 45 f8	 mov	 eax, DWORD PTR _this$[ebp]
; File C:\Program Files (x86)\Microsoft Visual Studio\2019\Community\VC\Tools\MSVC\14.28.29333\include\xmemory

; 1347 :         return *this;

  0002f	89 45 ec	 mov	 DWORD PTR $T6[ebp], eax
; File C:\Program Files (x86)\Microsoft Visual Studio\2019\Community\VC\Tools\MSVC\14.28.29333\include\vector

; 1733 :         return _Mypair._Get_first();

  00032	8b 45 ec	 mov	 eax, DWORD PTR $T6[ebp]
  00035	89 45 d8	 mov	 DWORD PTR $T1[ebp], eax
; File C:\Program Files (x86)\Microsoft Visual Studio\2019\Community\VC\Tools\MSVC\14.28.29333\include\vcruntime_new.h

; 169  :         return _Where;

  00038	8b 45 e8	 mov	 eax, DWORD PTR $T5[ebp]
  0003b	89 45 e0	 mov	 DWORD PTR $T3[ebp], eax
; File C:\Program Files (x86)\Microsoft Visual Studio\2019\Community\VC\Tools\MSVC\14.28.29333\include\type_traits

; 1443 :     return static_cast<_Ty&&>(_Arg);

  0003e	8b 45 e4	 mov	 eax, DWORD PTR $T4[ebp]
  00041	89 45 dc	 mov	 DWORD PTR $T2[ebp], eax
; File C:\Program Files (x86)\Microsoft Visual Studio\2019\Community\VC\Tools\MSVC\14.28.29333\include\xmemory

; 701  :         ::new (const_cast<void*>(static_cast<const volatile void*>(_Ptr))) _Objty(_STD forward<_Types>(_Args)...);

  00044	8b 45 e0	 mov	 eax, DWORD PTR $T3[ebp]
  00047	8b 4d dc	 mov	 ecx, DWORD PTR $T2[ebp]
  0004a	8b 09		 mov	 ecx, DWORD PTR [ecx]
  0004c	89 08		 mov	 DWORD PTR [eax], ecx
; File C:\Program Files (x86)\Microsoft Visual Studio\2019\Community\VC\Tools\MSVC\14.28.29333\include\vector

; 689  :         _Ty& _Result = *_Mylast;

  0004e	8b 45 fc	 mov	 eax, DWORD PTR __Mylast$[ebp]
  00051	8b 00		 mov	 eax, DWORD PTR [eax]
  00053	89 45 d4	 mov	 DWORD PTR __Result$[ebp], eax

; 690  :         ++_Mylast;

  00056	8b 45 fc	 mov	 eax, DWORD PTR __Mylast$[ebp]
  00059	8b 00		 mov	 eax, DWORD PTR [eax]
  0005b	83 c0 04	 add	 eax, 4
  0005e	8b 4d fc	 mov	 ecx, DWORD PTR __Mylast$[ebp]
  00061	89 01		 mov	 DWORD PTR [ecx], eax

; 691  : #if _HAS_CXX17
; 692  :         return _Result;
; 693  : #else // ^^^ _HAS_CXX17 ^^^ // vvv !_HAS_CXX17 vvv
; 694  :         (void) _Result;
; 695  : #endif // _HAS_CXX17
; 696  :     }

  00063	c9		 leave
  00064	c2 04 00	 ret	 4
??$_Emplace_back_with_unused_capacity@ABH@?$vector@HV?$allocator@H@std@@@std@@AAEXABH@Z ENDP ; std::vector<int,std::allocator<int> >::_Emplace_back_with_unused_capacity<int const &>
_TEXT	ENDS
; Function compile flags: /Odspy
; File C:\Program Files (x86)\Microsoft Visual Studio\2019\Community\VC\Tools\MSVC\14.28.29333\include\vector
; File C:\Program Files (x86)\Microsoft Visual Studio\2019\Community\VC\Tools\MSVC\14.28.29333\include\type_traits
; File C:\Program Files (x86)\Microsoft Visual Studio\2019\Community\VC\Tools\MSVC\14.28.29333\include\vector
; File C:\Program Files (x86)\Microsoft Visual Studio\2019\Community\VC\Tools\MSVC\14.28.29333\include\type_traits
; File C:\Program Files (x86)\Microsoft Visual Studio\2019\Community\VC\Tools\MSVC\14.28.29333\include\vector
;	COMDAT ??$emplace_back@ABH@?$vector@HV?$allocator@H@std@@@std@@QAEXABH@Z
_TEXT	SEGMENT
__Result$ = -24						; size = 4
$T1 = -20						; size = 4
$T2 = -16						; size = 4
__Mylast$ = -12						; size = 4
__My_data$ = -8						; size = 4
_this$ = -4						; size = 4
_<_Val_0>$ = 8						; size = 4
??$emplace_back@ABH@?$vector@HV?$allocator@H@std@@@std@@QAEXABH@Z PROC ; std::vector<int,std::allocator<int> >::emplace_back<int const &>, COMDAT
; _this$ = ecx

; 700  :     decltype(auto) emplace_back(_Valty&&... _Val) {

  00000	55		 push	 ebp
  00001	8b ec		 mov	 ebp, esp
  00003	83 ec 18	 sub	 esp, 24			; 00000018H
  00006	89 4d fc	 mov	 DWORD PTR _this$[ebp], ecx

; 701  :         // insert by perfectly forwarding into element at end, provide strong guarantee
; 702  :         auto& _My_data   = _Mypair._Myval2;

  00009	8b 45 fc	 mov	 eax, DWORD PTR _this$[ebp]
  0000c	89 45 f8	 mov	 DWORD PTR __My_data$[ebp], eax

; 703  :         pointer& _Mylast = _My_data._Mylast;

  0000f	8b 45 f8	 mov	 eax, DWORD PTR __My_data$[ebp]
  00012	83 c0 04	 add	 eax, 4
  00015	89 45 f4	 mov	 DWORD PTR __Mylast$[ebp], eax

; 704  :         if (_Mylast != _My_data._Myend) {

  00018	8b 45 f4	 mov	 eax, DWORD PTR __Mylast$[ebp]
  0001b	8b 4d f8	 mov	 ecx, DWORD PTR __My_data$[ebp]
  0001e	8b 00		 mov	 eax, DWORD PTR [eax]
  00020	3b 41 08	 cmp	 eax, DWORD PTR [ecx+8]
  00023	74 13		 je	 SHORT $LN2@emplace_ba
; File C:\Program Files (x86)\Microsoft Visual Studio\2019\Community\VC\Tools\MSVC\14.28.29333\include\type_traits

; 1443 :     return static_cast<_Ty&&>(_Arg);

  00025	8b 45 08	 mov	 eax, DWORD PTR _<_Val_0>$[ebp]
  00028	89 45 f0	 mov	 DWORD PTR $T2[ebp], eax
; File C:\Program Files (x86)\Microsoft Visual Studio\2019\Community\VC\Tools\MSVC\14.28.29333\include\vector

; 705  :             return _Emplace_back_with_unused_capacity(_STD forward<_Valty>(_Val)...);

  0002b	ff 75 f0	 push	 DWORD PTR $T2[ebp]
  0002e	8b 4d fc	 mov	 ecx, DWORD PTR _this$[ebp]
  00031	e8 00 00 00 00	 call	 ??$_Emplace_back_with_unused_capacity@ABH@?$vector@HV?$allocator@H@std@@@std@@AAEXABH@Z ; std::vector<int,std::allocator<int> >::_Emplace_back_with_unused_capacity<int const &>
  00036	eb 19		 jmp	 SHORT $LN1@emplace_ba
$LN2@emplace_ba:
; File C:\Program Files (x86)\Microsoft Visual Studio\2019\Community\VC\Tools\MSVC\14.28.29333\include\type_traits

; 1443 :     return static_cast<_Ty&&>(_Arg);

  00038	8b 45 08	 mov	 eax, DWORD PTR _<_Val_0>$[ebp]
  0003b	89 45 ec	 mov	 DWORD PTR $T1[ebp], eax
; File C:\Program Files (x86)\Microsoft Visual Studio\2019\Community\VC\Tools\MSVC\14.28.29333\include\vector

; 708  :         _Ty& _Result = *_Emplace_reallocate(_Mylast, _STD forward<_Valty>(_Val)...);

  0003e	ff 75 ec	 push	 DWORD PTR $T1[ebp]
  00041	8b 45 f4	 mov	 eax, DWORD PTR __Mylast$[ebp]
  00044	ff 30		 push	 DWORD PTR [eax]
  00046	8b 4d fc	 mov	 ecx, DWORD PTR _this$[ebp]
  00049	e8 00 00 00 00	 call	 ??$_Emplace_reallocate@ABH@?$vector@HV?$allocator@H@std@@@std@@QAEPAHQAHABH@Z ; std::vector<int,std::allocator<int> >::_Emplace_reallocate<int const &>
  0004e	89 45 e8	 mov	 DWORD PTR __Result$[ebp], eax
$LN1@emplace_ba:

; 709  : #if _HAS_CXX17
; 710  :         return _Result;
; 711  : #else // ^^^ _HAS_CXX17 ^^^ // vvv !_HAS_CXX17 vvv
; 712  :         (void) _Result;
; 713  : #endif // _HAS_CXX17
; 714  :     }

  00051	c9		 leave
  00052	c2 04 00	 ret	 4
??$emplace_back@ABH@?$vector@HV?$allocator@H@std@@@std@@QAEXABH@Z ENDP ; std::vector<int,std::allocator<int> >::emplace_back<int const &>
_TEXT	ENDS
; Function compile flags: /Odspy
; File C:\Program Files (x86)\Microsoft Visual Studio\2019\Community\VC\Tools\MSVC\14.28.29333\include\xmemory
;	COMDAT ??$_Const_cast@$$CBU?$pair@MJ@std@@@std@@YAPAU?$pair@MJ@0@PBU10@@Z
_TEXT	SEGMENT
__Ptr$ = 8						; size = 4
??$_Const_cast@$$CBU?$pair@MJ@std@@@std@@YAPAU?$pair@MJ@0@PBU10@@Z PROC ; std::_Const_cast<std::pair<float,long> const >, COMDAT

; 292  : auto _Const_cast(_Ty* _Ptr) noexcept {

  00000	55		 push	 ebp
  00001	8b ec		 mov	 ebp, esp

; 293  :     return const_cast<remove_const_t<_Ty>*>(_Ptr);

  00003	8b 45 08	 mov	 eax, DWORD PTR __Ptr$[ebp]

; 294  : }

  00006	5d		 pop	 ebp
  00007	c3		 ret	 0
??$_Const_cast@$$CBU?$pair@MJ@std@@@std@@YAPAU?$pair@MJ@0@PBU10@@Z ENDP ; std::_Const_cast<std::pair<float,long> const >
_TEXT	ENDS
; Function compile flags: /Odspy
; File C:\Program Files (x86)\Microsoft Visual Studio\2019\Community\VC\Tools\MSVC\14.28.29333\include\algorithm
; File C:\Program Files (x86)\Microsoft Visual Studio\2019\Community\VC\Tools\MSVC\14.28.29333\include\vector
; File C:\Program Files (x86)\Microsoft Visual Studio\2019\Community\VC\Tools\MSVC\14.28.29333\include\xstddef
; File C:\Program Files (x86)\Microsoft Visual Studio\2019\Community\VC\Tools\MSVC\14.28.29333\include\vector
; File C:\Program Files (x86)\Microsoft Visual Studio\2019\Community\VC\Tools\MSVC\14.28.29333\include\algorithm
; File C:\Program Files (x86)\Microsoft Visual Studio\2019\Community\VC\Tools\MSVC\14.28.29333\include\vector
; File C:\Program Files (x86)\Microsoft Visual Studio\2019\Community\VC\Tools\MSVC\14.28.29333\include\xstddef
; File C:\Program Files (x86)\Microsoft Visual Studio\2019\Community\VC\Tools\MSVC\14.28.29333\include\vector
; File C:\Program Files (x86)\Microsoft Visual Studio\2019\Community\VC\Tools\MSVC\14.28.29333\include\algorithm
;	COMDAT ??$sort@V?$_Vector_iterator@V?$_Vector_val@U?$_Simple_types@H@std@@@std@@@std@@@std@@YAXV?$_Vector_iterator@V?$_Vector_val@U?$_Simple_types@H@std@@@std@@@0@0@Z
_TEXT	SEGMENT
$T1 = -52						; size = 1
$T2 = -48						; size = 4
$T3 = -44						; size = 4
__Ptr$4 = -40						; size = 4
__Last$ = -36						; size = 4
$T5 = -32						; size = 4
$T6 = -28						; size = 4
__Ptr$7 = -24						; size = 4
__First$ = -20						; size = 4
__UFirst$8 = -16					; size = 4
__ULast$9 = -12						; size = 4
__Pred$ = -8						; size = 1
$T10 = -1						; size = 1
__First$ = 8						; size = 4
__Last$ = 12						; size = 4
??$sort@V?$_Vector_iterator@V?$_Vector_val@U?$_Simple_types@H@std@@@std@@@std@@@std@@YAXV?$_Vector_iterator@V?$_Vector_val@U?$_Simple_types@H@std@@@std@@@0@0@Z PROC ; std::sort<std::_Vector_iterator<std::_Vector_val<std::_Simple_types<int> > > >, COMDAT

; 7575 : _CONSTEXPR20 void sort(const _RanIt _First, const _RanIt _Last) { // order [_First, _Last)

  00000	55		 push	 ebp
  00001	8b ec		 mov	 ebp, esp
  00003	83 ec 34	 sub	 esp, 52			; 00000034H

; 7576 :     _STD sort(_First, _Last, less<>{});

  00006	33 c0		 xor	 eax, eax
  00008	88 45 ff	 mov	 BYTE PTR $T10[ebp], al
  0000b	8a 45 ff	 mov	 al, BYTE PTR $T10[ebp]
  0000e	88 45 f8	 mov	 BYTE PTR __Pred$[ebp], al
  00011	8b 45 0c	 mov	 eax, DWORD PTR __Last$[ebp]
  00014	89 45 dc	 mov	 DWORD PTR __Last$[ebp], eax
  00017	8b 45 08	 mov	 eax, DWORD PTR __First$[ebp]
  0001a	89 45 ec	 mov	 DWORD PTR __First$[ebp], eax
; File C:\Program Files (x86)\Microsoft Visual Studio\2019\Community\VC\Tools\MSVC\14.28.29333\include\vector

; 310  :         return _Unfancy(this->_Ptr);

  0001d	8b 45 ec	 mov	 eax, DWORD PTR __First$[ebp]
  00020	89 45 e8	 mov	 DWORD PTR __Ptr$7[ebp], eax
; File C:\Program Files (x86)\Microsoft Visual Studio\2019\Community\VC\Tools\MSVC\14.28.29333\include\xstddef

; 289  :     return _Ptr;

  00023	8b 45 e8	 mov	 eax, DWORD PTR __Ptr$7[ebp]
  00026	89 45 e4	 mov	 DWORD PTR $T6[ebp], eax
; File C:\Program Files (x86)\Microsoft Visual Studio\2019\Community\VC\Tools\MSVC\14.28.29333\include\vector

; 310  :         return _Unfancy(this->_Ptr);

  00029	8b 45 e4	 mov	 eax, DWORD PTR $T6[ebp]
  0002c	89 45 e0	 mov	 DWORD PTR $T5[ebp], eax
; File C:\Program Files (x86)\Microsoft Visual Studio\2019\Community\VC\Tools\MSVC\14.28.29333\include\algorithm

; 7569 :     const auto _UFirst = _Get_unwrapped(_First);

  0002f	8b 45 e0	 mov	 eax, DWORD PTR $T5[ebp]
  00032	89 45 f0	 mov	 DWORD PTR __UFirst$8[ebp], eax
; File C:\Program Files (x86)\Microsoft Visual Studio\2019\Community\VC\Tools\MSVC\14.28.29333\include\vector

; 310  :         return _Unfancy(this->_Ptr);

  00035	8b 45 dc	 mov	 eax, DWORD PTR __Last$[ebp]
  00038	89 45 d8	 mov	 DWORD PTR __Ptr$4[ebp], eax
; File C:\Program Files (x86)\Microsoft Visual Studio\2019\Community\VC\Tools\MSVC\14.28.29333\include\xstddef

; 289  :     return _Ptr;

  0003b	8b 45 d8	 mov	 eax, DWORD PTR __Ptr$4[ebp]
  0003e	89 45 d4	 mov	 DWORD PTR $T3[ebp], eax
; File C:\Program Files (x86)\Microsoft Visual Studio\2019\Community\VC\Tools\MSVC\14.28.29333\include\vector

; 310  :         return _Unfancy(this->_Ptr);

  00041	8b 45 d4	 mov	 eax, DWORD PTR $T3[ebp]
  00044	89 45 d0	 mov	 DWORD PTR $T2[ebp], eax
; File C:\Program Files (x86)\Microsoft Visual Studio\2019\Community\VC\Tools\MSVC\14.28.29333\include\algorithm

; 7570 :     const auto _ULast  = _Get_unwrapped(_Last);

  00047	8b 45 d0	 mov	 eax, DWORD PTR $T2[ebp]
  0004a	89 45 f4	 mov	 DWORD PTR __ULast$9[ebp], eax

; 7571 :     _Sort_unchecked(_UFirst, _ULast, _ULast - _UFirst, _Pass_fn(_Pred));

  0004d	8a 45 f8	 mov	 al, BYTE PTR __Pred$[ebp]
  00050	88 45 cc	 mov	 BYTE PTR $T1[ebp], al
  00053	ff 75 cc	 push	 DWORD PTR $T1[ebp]
  00056	8b 45 f4	 mov	 eax, DWORD PTR __ULast$9[ebp]
  00059	2b 45 f0	 sub	 eax, DWORD PTR __UFirst$8[ebp]
  0005c	c1 f8 02	 sar	 eax, 2
  0005f	50		 push	 eax
  00060	ff 75 f4	 push	 DWORD PTR __ULast$9[ebp]
  00063	ff 75 f0	 push	 DWORD PTR __UFirst$8[ebp]
  00066	e8 00 00 00 00	 call	 ??$_Sort_unchecked@PAHU?$less@X@std@@@std@@YAXPAH0HU?$less@X@0@@Z ; std::_Sort_unchecked<int *,std::less<void> >
  0006b	83 c4 10	 add	 esp, 16			; 00000010H

; 7577 : }

  0006e	c9		 leave
  0006f	c3		 ret	 0
??$sort@V?$_Vector_iterator@V?$_Vector_val@U?$_Simple_types@H@std@@@std@@@std@@@std@@YAXV?$_Vector_iterator@V?$_Vector_val@U?$_Simple_types@H@std@@@std@@@0@0@Z ENDP ; std::sort<std::_Vector_iterator<std::_Vector_val<std::_Simple_types<int> > > >
_TEXT	ENDS
; Function compile flags: /Odspy
; File C:\Program Files (x86)\Microsoft Visual Studio\2019\Community\VC\Tools\MSVC\14.28.29333\include\xutility
; File C:\Program Files (x86)\Microsoft Visual Studio\2019\Community\VC\Tools\MSVC\14.28.29333\include\vector
; File C:\Program Files (x86)\Microsoft Visual Studio\2019\Community\VC\Tools\MSVC\14.28.29333\include\xstddef
; File C:\Program Files (x86)\Microsoft Visual Studio\2019\Community\VC\Tools\MSVC\14.28.29333\include\vector
; File C:\Program Files (x86)\Microsoft Visual Studio\2019\Community\VC\Tools\MSVC\14.28.29333\include\xstddef
; File C:\Program Files (x86)\Microsoft Visual Studio\2019\Community\VC\Tools\MSVC\14.28.29333\include\vector
; File C:\Program Files (x86)\Microsoft Visual Studio\2019\Community\VC\Tools\MSVC\14.28.29333\include\xutility
; File C:\Program Files (x86)\Microsoft Visual Studio\2019\Community\VC\Tools\MSVC\14.28.29333\include\vector
; File C:\Program Files (x86)\Microsoft Visual Studio\2019\Community\VC\Tools\MSVC\14.28.29333\include\xutility
;	COMDAT ??$find@V?$_Vector_iterator@V?$_Vector_val@U?$_Simple_types@H@std@@@std@@@std@@H@std@@YA?AV?$_Vector_iterator@V?$_Vector_val@U?$_Simple_types@H@std@@@std@@@0@V10@V10@ABH@Z
_TEXT	SEGMENT
__It$ = -40						; size = 4
$T1 = -36						; size = 4
$T2 = -32						; size = 4
$T3 = -28						; size = 4
$T4 = -24						; size = 4
__Ptr$5 = -20						; size = 4
$T6 = -16						; size = 4
__Ptr$7 = -12						; size = 4
__First$ = -8						; size = 4
$T8 = -1						; size = 1
___$ReturnUdt$ = 8					; size = 4
__First$ = 12						; size = 4
__Last$ = 16						; size = 4
__Val$ = 20						; size = 4
??$find@V?$_Vector_iterator@V?$_Vector_val@U?$_Simple_types@H@std@@@std@@@std@@H@std@@YA?AV?$_Vector_iterator@V?$_Vector_val@U?$_Simple_types@H@std@@@std@@@0@V10@V10@ABH@Z PROC ; std::find<std::_Vector_iterator<std::_Vector_val<std::_Simple_types<int> > >,int>, COMDAT

; 5478 : _NODISCARD _CONSTEXPR20 _InIt find(_InIt _First, const _InIt _Last, const _Ty& _Val) { // find first matching _Val

  00000	55		 push	 ebp
  00001	8b ec		 mov	 ebp, esp
  00003	83 ec 28	 sub	 esp, 40			; 00000028H
; File C:\Program Files (x86)\Microsoft Visual Studio\2019\Community\VC\Tools\MSVC\14.28.29333\include\vector

; 310  :         return _Unfancy(this->_Ptr);

  00006	8b 45 10	 mov	 eax, DWORD PTR __Last$[ebp]
  00009	89 45 f4	 mov	 DWORD PTR __Ptr$7[ebp], eax
; File C:\Program Files (x86)\Microsoft Visual Studio\2019\Community\VC\Tools\MSVC\14.28.29333\include\xstddef

; 289  :     return _Ptr;

  0000c	8b 45 f4	 mov	 eax, DWORD PTR __Ptr$7[ebp]
  0000f	89 45 f0	 mov	 DWORD PTR $T6[ebp], eax
; File C:\Program Files (x86)\Microsoft Visual Studio\2019\Community\VC\Tools\MSVC\14.28.29333\include\vector

; 310  :         return _Unfancy(this->_Ptr);

  00012	8b 45 f0	 mov	 eax, DWORD PTR $T6[ebp]
  00015	89 45 e0	 mov	 DWORD PTR $T2[ebp], eax
  00018	8b 45 0c	 mov	 eax, DWORD PTR __First$[ebp]
  0001b	89 45 ec	 mov	 DWORD PTR __Ptr$5[ebp], eax
; File C:\Program Files (x86)\Microsoft Visual Studio\2019\Community\VC\Tools\MSVC\14.28.29333\include\xstddef

; 289  :     return _Ptr;

  0001e	8b 45 ec	 mov	 eax, DWORD PTR __Ptr$5[ebp]
  00021	89 45 e8	 mov	 DWORD PTR $T4[ebp], eax
; File C:\Program Files (x86)\Microsoft Visual Studio\2019\Community\VC\Tools\MSVC\14.28.29333\include\vector

; 310  :         return _Unfancy(this->_Ptr);

  00024	8b 45 e8	 mov	 eax, DWORD PTR $T4[ebp]
  00027	89 45 e4	 mov	 DWORD PTR $T3[ebp], eax
; File C:\Program Files (x86)\Microsoft Visual Studio\2019\Community\VC\Tools\MSVC\14.28.29333\include\xutility

; 5474 :     return _Find_unchecked1(_First, _Last, _Val, _Memchr_opt{});

  0002a	33 c0		 xor	 eax, eax
  0002c	88 45 ff	 mov	 BYTE PTR $T8[ebp], al
  0002f	8b 45 e4	 mov	 eax, DWORD PTR $T3[ebp]
  00032	89 45 f8	 mov	 DWORD PTR __First$[ebp], eax

; 5439 :     for (; _First != _Last; ++_First) {

  00035	eb 09		 jmp	 SHORT $LN26@find
$LN24@find:
  00037	8b 45 f8	 mov	 eax, DWORD PTR __First$[ebp]
  0003a	83 c0 04	 add	 eax, 4
  0003d	89 45 f8	 mov	 DWORD PTR __First$[ebp], eax
$LN26@find:
  00040	8b 45 f8	 mov	 eax, DWORD PTR __First$[ebp]
  00043	3b 45 e0	 cmp	 eax, DWORD PTR $T2[ebp]
  00046	74 10		 je	 SHORT $LN21@find

; 5440 :         if (*_First == _Val) {

  00048	8b 45 f8	 mov	 eax, DWORD PTR __First$[ebp]
  0004b	8b 4d 14	 mov	 ecx, DWORD PTR __Val$[ebp]
  0004e	8b 00		 mov	 eax, DWORD PTR [eax]
  00050	3b 01		 cmp	 eax, DWORD PTR [ecx]
  00052	75 02		 jne	 SHORT $LN27@find

; 5441 :             break;

  00054	eb 02		 jmp	 SHORT $LN21@find
$LN27@find:

; 5442 :         }
; 5443 :     }

  00056	eb df		 jmp	 SHORT $LN24@find
$LN21@find:

; 5479 :     _Adl_verify_range(_First, _Last);
; 5480 :     _Seek_wrapped(_First, _Find_unchecked(_Get_unwrapped(_First), _Get_unwrapped(_Last), _Val));

  00058	8b 45 f8	 mov	 eax, DWORD PTR __First$[ebp]
  0005b	89 45 dc	 mov	 DWORD PTR $T1[ebp], eax

; 1490 :         _It._Seek_to(static_cast<_UIter&&>(_UIt));

  0005e	8b 45 dc	 mov	 eax, DWORD PTR $T1[ebp]
  00061	89 45 d8	 mov	 DWORD PTR __It$[ebp], eax
; File C:\Program Files (x86)\Microsoft Visual Studio\2019\Community\VC\Tools\MSVC\14.28.29333\include\vector

; 195  :         _Ptr = _Refancy<_Tptr>(const_cast<value_type*>(_It));

  00064	ff 75 d8	 push	 DWORD PTR __It$[ebp]
  00067	e8 00 00 00 00	 call	 ??$_Refancy@PAH$0A@@std@@YAPAHPAH@Z ; std::_Refancy<int *,0>
  0006c	59		 pop	 ecx
  0006d	89 45 0c	 mov	 DWORD PTR __First$[ebp], eax
; File C:\Program Files (x86)\Microsoft Visual Studio\2019\Community\VC\Tools\MSVC\14.28.29333\include\xutility

; 5481 :     return _First;

  00070	8b 45 08	 mov	 eax, DWORD PTR ___$ReturnUdt$[ebp]
  00073	8b 4d 0c	 mov	 ecx, DWORD PTR __First$[ebp]
  00076	89 08		 mov	 DWORD PTR [eax], ecx
  00078	8b 45 08	 mov	 eax, DWORD PTR ___$ReturnUdt$[ebp]

; 5482 : }

  0007b	c9		 leave
  0007c	c3		 ret	 0
??$find@V?$_Vector_iterator@V?$_Vector_val@U?$_Simple_types@H@std@@@std@@@std@@H@std@@YA?AV?$_Vector_iterator@V?$_Vector_val@U?$_Simple_types@H@std@@@std@@@0@V10@V10@ABH@Z ENDP ; std::find<std::_Vector_iterator<std::_Vector_val<std::_Simple_types<int> > >,int>
_TEXT	ENDS
; Function compile flags: /Odspy
; File C:\Program Files (x86)\Microsoft Visual Studio\2019\Community\VC\Tools\MSVC\14.28.29333\include\vector
;	COMDAT ??0?$_Vector_const_iterator@V?$_Vector_val@U?$_Simple_types@U?$pair@MJ@std@@@std@@@std@@@std@@QAE@PAU?$pair@MJ@1@PBU_Container_base0@1@@Z
_TEXT	SEGMENT
_this$ = -4						; size = 4
__Parg$ = 8						; size = 4
__Pvector$ = 12						; size = 4
??0?$_Vector_const_iterator@V?$_Vector_val@U?$_Simple_types@U?$pair@MJ@std@@@std@@@std@@@std@@QAE@PAU?$pair@MJ@1@PBU_Container_base0@1@@Z PROC ; std::_Vector_const_iterator<std::_Vector_val<std::_Simple_types<std::pair<float,long> > > >::_Vector_const_iterator<std::_Vector_val<std::_Simple_types<std::pair<float,long> > > >, COMDAT
; _this$ = ecx

; 42   :     _Vector_const_iterator(_Tptr _Parg, const _Container_base* _Pvector) noexcept : _Ptr(_Parg) {

  00000	55		 push	 ebp
  00001	8b ec		 mov	 ebp, esp
  00003	51		 push	 ecx
  00004	89 4d fc	 mov	 DWORD PTR _this$[ebp], ecx
  00007	8b 45 fc	 mov	 eax, DWORD PTR _this$[ebp]
  0000a	8b 4d 08	 mov	 ecx, DWORD PTR __Parg$[ebp]
  0000d	89 08		 mov	 DWORD PTR [eax], ecx

; 43   :         this->_Adopt(_Pvector);
; 44   :     }

  0000f	8b 45 fc	 mov	 eax, DWORD PTR _this$[ebp]
  00012	c9		 leave
  00013	c2 08 00	 ret	 8
??0?$_Vector_const_iterator@V?$_Vector_val@U?$_Simple_types@U?$pair@MJ@std@@@std@@@std@@@std@@QAE@PAU?$pair@MJ@1@PBU_Container_base0@1@@Z ENDP ; std::_Vector_const_iterator<std::_Vector_val<std::_Simple_types<std::pair<float,long> > > >::_Vector_const_iterator<std::_Vector_val<std::_Simple_types<std::pair<float,long> > > >
_TEXT	ENDS
; Function compile flags: /Odspy
; File D:\Metin2 Server Files\mainline\SRC_2014\Metin2Client\GameLib\MapOutdoorRenderSTP.cpp
; File D:\Metin2 Server Files\mainline\SRC_2014\Metin2Client\GameLib\TerrainPatch.h
; File D:\Metin2 Server Files\mainline\SRC_2014\Metin2Client\GameLib\MapOutdoorRenderSTP.cpp
; File D:\Metin2 Server Files\mainline\SRC_2014\Metin2Client\GameLib\TerrainPatch.h
; File D:\Metin2 Server Files\mainline\SRC_2014\Metin2Client\GameLib\MapOutdoorRenderSTP.cpp
; File D:\Metin2 Server Files\mainline\SRC_2014\Metin2Client\GameLib\TerrainPatch.h
; File D:\Metin2 Server Files\mainline\SRC_2014\Metin2Client\GameLib\MapOutdoorRenderSTP.cpp
; File D:\Metin2 Server Files\mainline\SRC_2014\Metin2Client\GameLib\AreaTerrain.h
; File D:\Metin2 Server Files\mainline\SRC_2014\Metin2Client\GameLib\MapOutdoorRenderSTP.cpp
;	COMDAT ?__SoftwareTransformPatch_RenderPatchNone@CMapOutdoor@@IAEXAAUSoftwareTransformPatch_SRenderState@1@JGW4_D3DPRIMITIVETYPE@@@Z
_TEXT	SEGMENT
_akDstVertex$ = -128					; size = 4
_fScreenHalfWidth$ = -124				; size = 4
_fScreenHalfHeight$ = -120				; size = 4
_akPosition$ = -116					; size = 4
tv84 = -112						; size = 4
_sPatchNum$ = -108					; size = 4
_wCoordY$ = -104					; size = 2
_wCoordX$ = -100					; size = 2
_dwVBSize$ = -96					; size = 4
_akSrcVertex$ = -92					; size = 4
___t$ = -88						; size = 4
_pTerrain$ = -84					; size = 4
_ucTerrainNum$ = -80					; size = 1
___n$ = -76						; size = 4
$T1 = -70						; size = 2
_pTerrainPatchProxy$ = -68				; size = 4
_uIndex$2 = -64						; size = 4
_pkVB$ = -60						; size = 4
$T3 = -53						; size = 1
_this$ = -52						; size = 4
_pkPosition$ = -48					; size = 4
_m4Frustum$ = -44					; size = 64
_akTransVertex$ = 20					; size = 4624
__$ArrayPad$ = 4644					; size = 4
_rkTPRS$ = 4656						; size = 4
_patchnum$ = 4660					; size = 4
_wPrimitiveCount$ = 4664				; size = 2
_ePrimitiveType$ = 4668					; size = 4
?__SoftwareTransformPatch_RenderPatchNone@CMapOutdoor@@IAEXAAUSoftwareTransformPatch_SRenderState@1@JGW4_D3DPRIMITIVETYPE@@@Z PROC ; CMapOutdoor::__SoftwareTransformPatch_RenderPatchNone, COMDAT
; _this$ = ecx

; 271  : {

  00000	55		 push	 ebp
  00001	8d ac 24 d8 ed
	ff ff		 lea	 ebp, DWORD PTR [esp-4648]
  00008	b8 a8 12 00 00	 mov	 eax, 4776		; 000012a8H
  0000d	e8 00 00 00 00	 call	 __chkstk
  00012	a1 00 00 00 00	 mov	 eax, DWORD PTR ___security_cookie
  00017	33 c5		 xor	 eax, ebp
  00019	89 85 24 12 00
	00		 mov	 DWORD PTR __$ArrayPad$[ebp], eax
  0001f	56		 push	 esi
  00020	57		 push	 edi
  00021	89 4d cc	 mov	 DWORD PTR _this$[ebp], ecx

; 272  : 	assert(NULL!=m_pTerrainPatchProxyList && "CMapOutdoor::__SoftwareTransformPatch_RenderPatchNone");
; 273  : 
; 274  : 	CTerrainPatchProxy * pTerrainPatchProxy = &m_pTerrainPatchProxyList[patchnum];

  00024	6b 85 34 12 00
	00 1c		 imul	 eax, DWORD PTR _patchnum$[ebp], 28
  0002b	8b 4d cc	 mov	 ecx, DWORD PTR _this$[ebp]
  0002e	03 41 64	 add	 eax, DWORD PTR [ecx+100]
  00031	89 45 bc	 mov	 DWORD PTR _pTerrainPatchProxy$[ebp], eax
; File D:\Metin2 Server Files\mainline\SRC_2014\Metin2Client\GameLib\TerrainPatch.h

; 170  : 	bool isUsed()																	{ return m_bUsed; }

  00034	8b 45 bc	 mov	 eax, DWORD PTR _pTerrainPatchProxy$[ebp]
  00037	8a 40 04	 mov	 al, BYTE PTR [eax+4]
  0003a	88 45 cb	 mov	 BYTE PTR $T3[ebp], al
; File D:\Metin2 Server Files\mainline\SRC_2014\Metin2Client\GameLib\MapOutdoorRenderSTP.cpp

; 276  : 	if (!pTerrainPatchProxy->isUsed())

  0003d	0f b6 45 cb	 movzx	 eax, BYTE PTR $T3[ebp]
  00041	85 c0		 test	 eax, eax
  00043	75 05		 jne	 SHORT $LN5@SoftwareTr

; 277  : 		return;

  00045	e9 79 02 00 00	 jmp	 $LN1@SoftwareTr
$LN5@SoftwareTr:
; File D:\Metin2 Server Files\mainline\SRC_2014\Metin2Client\GameLib\TerrainPatch.h

; 173  : 	short GetPatchNum()																{ return m_sPatchNum; }

  0004a	8b 45 bc	 mov	 eax, DWORD PTR _pTerrainPatchProxy$[ebp]
  0004d	66 8b 40 06	 mov	 ax, WORD PTR [eax+6]
  00051	66 89 45 ba	 mov	 WORD PTR $T1[ebp], ax
; File D:\Metin2 Server Files\mainline\SRC_2014\Metin2Client\GameLib\MapOutdoorRenderSTP.cpp

; 279  : 	long sPatchNum = pTerrainPatchProxy->GetPatchNum();

  00055	0f bf 45 ba	 movsx	 eax, WORD PTR $T1[ebp]
  00059	89 45 94	 mov	 DWORD PTR _sPatchNum$[ebp], eax

; 280  : 	if (sPatchNum < 0)

  0005c	83 7d 94 00	 cmp	 DWORD PTR _sPatchNum$[ebp], 0
  00060	7d 05		 jge	 SHORT $LN6@SoftwareTr

; 281  : 		return;

  00062	e9 5c 02 00 00	 jmp	 $LN1@SoftwareTr
$LN6@SoftwareTr:
; File D:\Metin2 Server Files\mainline\SRC_2014\Metin2Client\GameLib\TerrainPatch.h

; 176  : 	BYTE GetTerrainNum()															{ return m_byTerrainNum; }

  00067	8b 45 bc	 mov	 eax, DWORD PTR _pTerrainPatchProxy$[ebp]
  0006a	8a 40 08	 mov	 al, BYTE PTR [eax+8]
  0006d	88 45 b0	 mov	 BYTE PTR _ucTerrainNum$[ebp], al
; File D:\Metin2 Server Files\mainline\SRC_2014\Metin2Client\GameLib\MapOutdoorRenderSTP.cpp

; 284  : 	if (0xFF == ucTerrainNum)

  00070	0f b6 45 b0	 movzx	 eax, BYTE PTR _ucTerrainNum$[ebp]
  00074	3d ff 00 00 00	 cmp	 eax, 255		; 000000ffH
  00079	75 05		 jne	 SHORT $LN7@SoftwareTr

; 285  : 		return;

  0007b	e9 43 02 00 00	 jmp	 $LN1@SoftwareTr
$LN7@SoftwareTr:

; 286  : 
; 287  : 	CTerrain * pTerrain;
; 288  : 	if (!GetTerrainPointer(ucTerrainNum, &pTerrain))

  00080	8d 45 ac	 lea	 eax, DWORD PTR _pTerrain$[ebp]
  00083	50		 push	 eax
  00084	ff 75 b0	 push	 DWORD PTR _ucTerrainNum$[ebp]
  00087	8b 4d cc	 mov	 ecx, DWORD PTR _this$[ebp]
  0008a	e8 00 00 00 00	 call	 ?GetTerrainPointer@CMapOutdoor@@QAEHEPAPAVCTerrain@@@Z ; CMapOutdoor::GetTerrainPointer
  0008f	85 c0		 test	 eax, eax
  00091	75 05		 jne	 SHORT $LN8@SoftwareTr

; 289  : 		return;

  00093	e9 2b 02 00 00	 jmp	 $LN1@SoftwareTr
$LN8@SoftwareTr:
; File D:\Metin2 Server Files\mainline\SRC_2014\Metin2Client\GameLib\AreaTerrain.h

; 92   : 			*usCoordX = m_wX;

  00098	8b 45 ac	 mov	 eax, DWORD PTR _pTerrain$[ebp]
  0009b	66 8b 80 6c a5
	06 00		 mov	 ax, WORD PTR [eax+435564]
  000a2	66 89 45 9c	 mov	 WORD PTR _wCoordX$[ebp], ax

; 93   : 			*usCoordY = m_wY;

  000a6	8b 45 ac	 mov	 eax, DWORD PTR _pTerrain$[ebp]
  000a9	66 8b 80 6e a5
	06 00		 mov	 ax, WORD PTR [eax+435566]
  000b0	66 89 45 98	 mov	 WORD PTR _wCoordY$[ebp], ax
; File D:\Metin2 Server Files\mainline\SRC_2014\Metin2Client\GameLib\MapOutdoorRenderSTP.cpp

; 294  : 	SoftwareTransformPatch_SSourceVertex* akSrcVertex=pTerrainPatchProxy->SoftwareTransformPatch_GetTerrainVertexDataPtr();

  000b4	8b 4d bc	 mov	 ecx, DWORD PTR _pTerrainPatchProxy$[ebp]
  000b7	e8 00 00 00 00	 call	 ?SoftwareTransformPatch_GetTerrainVertexDataPtr@CTerrainPatchProxy@@QAEPAUSoftwareTransformPatch_SSourceVertex@@XZ ; CTerrainPatchProxy::SoftwareTransformPatch_GetTerrainVertexDataPtr
  000bc	89 45 a4	 mov	 DWORD PTR _akSrcVertex$[ebp], eax

; 295  : 	if (!akSrcVertex)

  000bf	83 7d a4 00	 cmp	 DWORD PTR _akSrcVertex$[ebp], 0
  000c3	75 05		 jne	 SHORT $LN9@SoftwareTr

; 296  : 		return;

  000c5	e9 f9 01 00 00	 jmp	 $LN1@SoftwareTr
$LN9@SoftwareTr:

; 297  : 	
; 298  : 	float fScreenHalfWidth=rkTPRS.m_fScreenHalfWidth;

  000ca	8b 85 30 12 00
	00		 mov	 eax, DWORD PTR _rkTPRS$[ebp]
  000d0	f3 0f 10 80 7c
	01 00 00	 movss	 xmm0, DWORD PTR [eax+380]
  000d8	f3 0f 11 45 84	 movss	 DWORD PTR _fScreenHalfWidth$[ebp], xmm0

; 299  : 	float fScreenHalfHeight=rkTPRS.m_fScreenHalfHeight;

  000dd	8b 85 30 12 00
	00		 mov	 eax, DWORD PTR _rkTPRS$[ebp]
  000e3	f3 0f 10 80 80
	01 00 00	 movss	 xmm0, DWORD PTR [eax+384]
  000eb	f3 0f 11 45 88	 movss	 DWORD PTR _fScreenHalfHeight$[ebp], xmm0

; 300  : 
; 301  : 	D3DXMATRIX m4Frustum=rkTPRS.m_m4Frustum;

  000f0	8b b5 30 12 00
	00		 mov	 esi, DWORD PTR _rkTPRS$[ebp]
  000f6	83 c6 40	 add	 esi, 64			; 00000040H
  000f9	6a 10		 push	 16			; 00000010H
  000fb	59		 pop	 ecx
  000fc	8d 7d d4	 lea	 edi, DWORD PTR _m4Frustum$[ebp]
  000ff	f3 a5		 rep movsd

; 302  : 
; 303  : 	SoftwareTransformPatch_STVertex akTransVertex[CTerrainPatch::TERRAIN_VERTEX_COUNT];

  00101	c7 45 b4 21 01
	00 00		 mov	 DWORD PTR ___n$[ebp], 289 ; 00000121H
  00108	8d 45 14	 lea	 eax, DWORD PTR _akTransVertex$[ebp]
  0010b	89 45 a8	 mov	 DWORD PTR ___t$[ebp], eax
$LN22@SoftwareTr:
  0010e	8b 45 b4	 mov	 eax, DWORD PTR ___n$[ebp]
  00111	89 45 90	 mov	 DWORD PTR tv84[ebp], eax
  00114	8b 45 b4	 mov	 eax, DWORD PTR ___n$[ebp]
  00117	48		 dec	 eax
  00118	89 45 b4	 mov	 DWORD PTR ___n$[ebp], eax
  0011b	83 7d 90 00	 cmp	 DWORD PTR tv84[ebp], 0
  0011f	76 0b		 jbe	 SHORT $LN23@SoftwareTr
  00121	8b 45 a8	 mov	 eax, DWORD PTR ___t$[ebp]
  00124	83 c0 10	 add	 eax, 16			; 00000010H
  00127	89 45 a8	 mov	 DWORD PTR ___t$[ebp], eax
  0012a	eb e2		 jmp	 SHORT $LN22@SoftwareTr
$LN23@SoftwareTr:

; 304  : 
; 305  : 	D3DXVECTOR4* akPosition=(D3DXVECTOR4*)akTransVertex;

  0012c	8d 45 14	 lea	 eax, DWORD PTR _akTransVertex$[ebp]
  0012f	89 45 8c	 mov	 DWORD PTR _akPosition$[ebp], eax

; 306  : 	D3DXVECTOR4* pkPosition;
; 307  : 	for (UINT uIndex=0; uIndex!=CTerrainPatch::TERRAIN_VERTEX_COUNT; ++uIndex)

  00132	83 65 c0 00	 and	 DWORD PTR _uIndex$2[ebp], 0
  00136	eb 07		 jmp	 SHORT $LN4@SoftwareTr
$LN2@SoftwareTr:
  00138	8b 45 c0	 mov	 eax, DWORD PTR _uIndex$2[ebp]
  0013b	40		 inc	 eax
  0013c	89 45 c0	 mov	 DWORD PTR _uIndex$2[ebp], eax
$LN4@SoftwareTr:
  0013f	81 7d c0 21 01
	00 00		 cmp	 DWORD PTR _uIndex$2[ebp], 289 ; 00000121H
  00146	0f 84 9d 00 00
	00		 je	 $LN3@SoftwareTr

; 308  : 	{		
; 309  : 		pkPosition=akPosition+uIndex;

  0014c	8b 45 c0	 mov	 eax, DWORD PTR _uIndex$2[ebp]
  0014f	c1 e0 04	 shl	 eax, 4
  00152	03 45 8c	 add	 eax, DWORD PTR _akPosition$[ebp]
  00155	89 45 d0	 mov	 DWORD PTR _pkPosition$[ebp], eax

; 310  : 		D3DXVec3Transform(pkPosition, &akSrcVertex[uIndex].kPosition, &m4Frustum);

  00158	8d 45 d4	 lea	 eax, DWORD PTR _m4Frustum$[ebp]
  0015b	50		 push	 eax
  0015c	6b 45 c0 1c	 imul	 eax, DWORD PTR _uIndex$2[ebp], 28
  00160	03 45 a4	 add	 eax, DWORD PTR _akSrcVertex$[ebp]
  00163	50		 push	 eax
  00164	ff 75 d0	 push	 DWORD PTR _pkPosition$[ebp]
  00167	e8 00 00 00 00	 call	 _D3DXVec3Transform@12

; 311  : 		pkPosition->w=1.0f/pkPosition->w;

  0016c	8b 45 d0	 mov	 eax, DWORD PTR _pkPosition$[ebp]
  0016f	f3 0f 10 05 00
	00 00 00	 movss	 xmm0, DWORD PTR __real@3f800000
  00177	f3 0f 5e 40 0c	 divss	 xmm0, DWORD PTR [eax+12]
  0017c	8b 45 d0	 mov	 eax, DWORD PTR _pkPosition$[ebp]
  0017f	f3 0f 11 40 0c	 movss	 DWORD PTR [eax+12], xmm0

; 312  : 		pkPosition->z*=pkPosition->w;

  00184	8b 45 d0	 mov	 eax, DWORD PTR _pkPosition$[ebp]
  00187	8b 4d d0	 mov	 ecx, DWORD PTR _pkPosition$[ebp]
  0018a	f3 0f 10 40 08	 movss	 xmm0, DWORD PTR [eax+8]
  0018f	f3 0f 59 41 0c	 mulss	 xmm0, DWORD PTR [ecx+12]
  00194	8b 45 d0	 mov	 eax, DWORD PTR _pkPosition$[ebp]
  00197	f3 0f 11 40 08	 movss	 DWORD PTR [eax+8], xmm0

; 313  : 		pkPosition->y=(pkPosition->y*pkPosition->w-1.0f)*fScreenHalfHeight;	

  0019c	8b 45 d0	 mov	 eax, DWORD PTR _pkPosition$[ebp]
  0019f	8b 4d d0	 mov	 ecx, DWORD PTR _pkPosition$[ebp]
  001a2	f3 0f 10 40 04	 movss	 xmm0, DWORD PTR [eax+4]
  001a7	f3 0f 59 41 0c	 mulss	 xmm0, DWORD PTR [ecx+12]
  001ac	f3 0f 5c 05 00
	00 00 00	 subss	 xmm0, DWORD PTR __real@3f800000
  001b4	f3 0f 59 45 88	 mulss	 xmm0, DWORD PTR _fScreenHalfHeight$[ebp]
  001b9	8b 45 d0	 mov	 eax, DWORD PTR _pkPosition$[ebp]
  001bc	f3 0f 11 40 04	 movss	 DWORD PTR [eax+4], xmm0

; 314  : 		pkPosition->x=(pkPosition->x*pkPosition->w+1.0f)*fScreenHalfWidth;

  001c1	8b 45 d0	 mov	 eax, DWORD PTR _pkPosition$[ebp]
  001c4	8b 4d d0	 mov	 ecx, DWORD PTR _pkPosition$[ebp]
  001c7	f3 0f 10 00	 movss	 xmm0, DWORD PTR [eax]
  001cb	f3 0f 59 41 0c	 mulss	 xmm0, DWORD PTR [ecx+12]
  001d0	f3 0f 58 05 00
	00 00 00	 addss	 xmm0, DWORD PTR __real@3f800000
  001d8	f3 0f 59 45 84	 mulss	 xmm0, DWORD PTR _fScreenHalfWidth$[ebp]
  001dd	8b 45 d0	 mov	 eax, DWORD PTR _pkPosition$[ebp]
  001e0	f3 0f 11 00	 movss	 DWORD PTR [eax], xmm0

; 315  : 	}

  001e4	e9 4f ff ff ff	 jmp	 $LN2@SoftwareTr
$LN3@SoftwareTr:

; 316  : 	
; 317  : 
; 318  : 	IDirect3DVertexBuffer8* pkVB=m_kSTPD.m_pkVBNone[m_kSTPD.m_dwNonePos++];

  001e9	8b 45 cc	 mov	 eax, DWORD PTR _this$[ebp]
  001ec	8b 80 04 0a 00
	00		 mov	 eax, DWORD PTR [eax+2564]
  001f2	8b 4d cc	 mov	 ecx, DWORD PTR _this$[ebp]
  001f5	8b 84 81 e0 09
	00 00		 mov	 eax, DWORD PTR [ecx+eax*4+2528]
  001fc	89 45 c4	 mov	 DWORD PTR _pkVB$[ebp], eax
  001ff	8b 45 cc	 mov	 eax, DWORD PTR _this$[ebp]
  00202	8b 80 04 0a 00
	00		 mov	 eax, DWORD PTR [eax+2564]
  00208	40		 inc	 eax
  00209	8b 4d cc	 mov	 ecx, DWORD PTR _this$[ebp]
  0020c	89 81 04 0a 00
	00		 mov	 DWORD PTR [ecx+2564], eax

; 319  : 	m_kSTPD.m_dwNonePos%=SoftwareTransformPatch_SData::NONE_VB_NUM;

  00212	8b 45 cc	 mov	 eax, DWORD PTR _this$[ebp]
  00215	8b 80 04 0a 00
	00		 mov	 eax, DWORD PTR [eax+2564]
  0021b	33 d2		 xor	 edx, edx
  0021d	6a 08		 push	 8
  0021f	59		 pop	 ecx
  00220	f7 f1		 div	 ecx
  00222	8b 45 cc	 mov	 eax, DWORD PTR _this$[ebp]
  00225	89 90 04 0a 00
	00		 mov	 DWORD PTR [eax+2564], edx

; 320  : 	if (!pkVB)

  0022b	83 7d c4 00	 cmp	 DWORD PTR _pkVB$[ebp], 0
  0022f	75 05		 jne	 SHORT $LN10@SoftwareTr

; 321  : 		return;

  00231	e9 8d 00 00 00	 jmp	 $LN1@SoftwareTr
$LN10@SoftwareTr:

; 322  : 
; 323  : 	DWORD dwVBSize=sizeof(SoftwareTransformPatch_STVertex)*CTerrainPatch::TERRAIN_VERTEX_COUNT;

  00236	c7 45 a0 10 12
	00 00		 mov	 DWORD PTR _dwVBSize$[ebp], 4624 ; 00001210H

; 324  : 	SoftwareTransformPatch_STVertex* akDstVertex;
; 325  : 	if (FAILED(

  0023d	68 00 20 00 00	 push	 8192			; 00002000H
  00242	8d 45 80	 lea	 eax, DWORD PTR _akDstVertex$[ebp]
  00245	50		 push	 eax
  00246	ff 75 a0	 push	 DWORD PTR _dwVBSize$[ebp]
  00249	6a 00		 push	 0
  0024b	8b 45 c4	 mov	 eax, DWORD PTR _pkVB$[ebp]
  0024e	8b 00		 mov	 eax, DWORD PTR [eax]
  00250	ff 75 c4	 push	 DWORD PTR _pkVB$[ebp]
  00253	ff 50 2c	 call	 DWORD PTR [eax+44]
  00256	85 c0		 test	 eax, eax
  00258	7d 02		 jge	 SHORT $LN11@SoftwareTr

; 326  : 		pkVB->Lock(0, dwVBSize, (BYTE**)&akDstVertex, D3DLOCK_DISCARD)
; 327  : 	)) return;

  0025a	eb 67		 jmp	 SHORT $LN1@SoftwareTr
$LN11@SoftwareTr:

; 328  : 
; 329  : 	memcpy(akDstVertex, akTransVertex, dwVBSize);

  0025c	ff 75 a0	 push	 DWORD PTR _dwVBSize$[ebp]
  0025f	8d 45 14	 lea	 eax, DWORD PTR _akTransVertex$[ebp]
  00262	50		 push	 eax
  00263	ff 75 80	 push	 DWORD PTR _akDstVertex$[ebp]
  00266	e8 00 00 00 00	 call	 _memcpy
  0026b	83 c4 0c	 add	 esp, 12			; 0000000cH

; 330  : 
; 331  : 	pkVB->Unlock();

  0026e	8b 45 c4	 mov	 eax, DWORD PTR _pkVB$[ebp]
  00271	8b 00		 mov	 eax, DWORD PTR [eax]
  00273	ff 75 c4	 push	 DWORD PTR _pkVB$[ebp]
  00276	ff 50 30	 call	 DWORD PTR [eax+48]

; 332  : 
; 333  : 	STATEMANAGER.SetStreamSource(0, pkVB, sizeof(SoftwareTransformPatch_STVertex));

  00279	6a 10		 push	 16			; 00000010H
  0027b	ff 75 c4	 push	 DWORD PTR _pkVB$[ebp]
  0027e	6a 00		 push	 0
  00280	8b 0d 00 00 00
	00		 mov	 ecx, DWORD PTR ?ms_singleton@?$CSingleton@VCStateManager@@@@0PAVCStateManager@@A ; CSingleton<CStateManager>::ms_singleton
  00286	e8 00 00 00 00	 call	 ?SetStreamSource@CStateManager@@QAEXIPAUIDirect3DVertexBuffer8@@I@Z ; CStateManager::SetStreamSource

; 334  : 	STATEMANAGER.DrawIndexedPrimitive(ePrimitiveType, 0, m_iPatchTerrainVertexCount, 0, wPrimitiveCount);

  0028b	0f b7 85 38 12
	00 00		 movzx	 eax, WORD PTR _wPrimitiveCount$[ebp]
  00292	50		 push	 eax
  00293	6a 00		 push	 0
  00295	8b 45 cc	 mov	 eax, DWORD PTR _this$[ebp]
  00298	ff b0 a0 09 00
	00		 push	 DWORD PTR [eax+2464]
  0029e	6a 00		 push	 0
  002a0	ff b5 3c 12 00
	00		 push	 DWORD PTR _ePrimitiveType$[ebp]
  002a6	8b 0d 00 00 00
	00		 mov	 ecx, DWORD PTR ?ms_singleton@?$CSingleton@VCStateManager@@@@0PAVCStateManager@@A ; CSingleton<CStateManager>::ms_singleton
  002ac	e8 00 00 00 00	 call	 ?DrawIndexedPrimitive@CStateManager@@QAEJW4_D3DPRIMITIVETYPE@@IIII@Z ; CStateManager::DrawIndexedPrimitive

; 335  : 	ms_faceCount += wPrimitiveCount;

  002b1	0f b7 85 38 12
	00 00		 movzx	 eax, WORD PTR _wPrimitiveCount$[ebp]
  002b8	03 05 00 00 00
	00		 add	 eax, DWORD PTR ?ms_faceCount@CGraphicBase@@1KA ; CGraphicBase::ms_faceCount
  002be	a3 00 00 00 00	 mov	 DWORD PTR ?ms_faceCount@CGraphicBase@@1KA, eax ; CGraphicBase::ms_faceCount
$LN1@SoftwareTr:

; 336  : }

  002c3	5f		 pop	 edi
  002c4	5e		 pop	 esi
  002c5	8b 8d 24 12 00
	00		 mov	 ecx, DWORD PTR __$ArrayPad$[ebp]
  002cb	33 cd		 xor	 ecx, ebp
  002cd	e8 00 00 00 00	 call	 @__security_check_cookie@4
  002d2	81 c5 28 12 00
	00		 add	 ebp, 4648		; 00001228H
  002d8	c9		 leave
  002d9	c2 10 00	 ret	 16			; 00000010H
?__SoftwareTransformPatch_RenderPatchNone@CMapOutdoor@@IAEXAAUSoftwareTransformPatch_SRenderState@1@JGW4_D3DPRIMITIVETYPE@@@Z ENDP ; CMapOutdoor::__SoftwareTransformPatch_RenderPatchNone
_TEXT	ENDS
; Function compile flags: /Odspy
; File D:\Metin2 Server Files\mainline\SRC_2014\Metin2Client\GameLib\MapOutdoorRenderSTP.cpp
; File D:\Metin2 Server Files\mainline\SRC_2014\Metin2Client\GameLib\TerrainPatch.h
; File D:\Metin2 Server Files\mainline\SRC_2014\Metin2Client\GameLib\MapOutdoorRenderSTP.cpp
; File D:\Metin2 Server Files\mainline\SRC_2014\Metin2Client\GameLib\TerrainPatch.h
; File D:\Metin2 Server Files\mainline\SRC_2014\Metin2Client\GameLib\MapOutdoorRenderSTP.cpp
; File D:\Metin2 Server Files\mainline\SRC_2014\Metin2Client\GameLib\TerrainPatch.h
; File D:\Metin2 Server Files\mainline\SRC_2014\Metin2Client\GameLib\MapOutdoorRenderSTP.cpp
; File D:\Metin2 Server Files\mainline\SRC_2014\Metin2Client\GameLib\AreaTerrain.h
; File D:\Metin2 Server Files\mainline\SRC_2014\Metin2Client\PRTerrainLib\Terrain.h
; File D:\Metin2 Server Files\mainline\SRC_2014\Metin2Client\GameLib\MapOutdoorRenderSTP.cpp
; File D:\Metin2 Server Files\mainline\SRC_2014\Metin2Client\PRTerrainLib\Terrain.h
; File D:\Metin2 Server Files\mainline\SRC_2014\Metin2Client\GameLib\MapOutdoorRenderSTP.cpp
; File C:\Program Files (x86)\Microsoft Visual Studio\2019\Community\VC\Tools\MSVC\14.28.29333\include\vector
; File C:\Program Files (x86)\Microsoft Visual Studio\2019\Community\VC\Tools\MSVC\14.28.29333\include\xstddef
; File C:\Program Files (x86)\Microsoft Visual Studio\2019\Community\VC\Tools\MSVC\14.28.29333\include\vector
; File C:\Program Files (x86)\Microsoft Visual Studio\2019\Community\VC\Tools\MSVC\14.28.29333\include\xstddef
; File C:\Program Files (x86)\Microsoft Visual Studio\2019\Community\VC\Tools\MSVC\14.28.29333\include\vector
; File D:\Metin2 Server Files\mainline\SRC_2014\Metin2Client\GameLib\MapOutdoorRenderSTP.cpp
; File C:\Program Files (x86)\Microsoft Visual Studio\2019\Community\VC\Tools\MSVC\14.28.29333\include\vector
; File C:\Program Files (x86)\Microsoft Visual Studio\2019\Community\VC\Tools\MSVC\14.28.29333\include\xstddef
; File C:\Program Files (x86)\Microsoft Visual Studio\2019\Community\VC\Tools\MSVC\14.28.29333\include\vector
; File D:\Metin2 Server Files\mainline\SRC_2014\Metin2Client\GameLib\MapOutdoorRenderSTP.cpp
; File C:\Program Files (x86)\Microsoft Visual Studio\2019\Community\VC\Tools\MSVC\14.28.29333\include\vector
; File D:\Metin2 Server Files\mainline\SRC_2014\Metin2Client\GameLib\MapOutdoorRenderSTP.cpp
; File C:\Program Files (x86)\Microsoft Visual Studio\2019\Community\VC\Tools\MSVC\14.28.29333\include\vector
; File D:\Metin2 Server Files\mainline\SRC_2014\Metin2Client\GameLib\MapOutdoorRenderSTP.cpp
; File D:\Metin2 Server Files\mainline\SRC_2014\Metin2Client\PRTerrainLib\Terrain.h
; File D:\Metin2 Server Files\mainline\SRC_2014\Metin2Client\GameLib\MapOutdoorRenderSTP.cpp
; File D:\Metin2 Server Files\mainline\SRC_2014\Metin2Client\PRTerrainLib\Terrain.h
; File D:\Metin2 Server Files\mainline\SRC_2014\Metin2Client\GameLib\MapOutdoorRenderSTP.cpp
;	COMDAT ?__SoftwareTransformPatch_RenderPatchSplat@CMapOutdoor@@IAEXAAUSoftwareTransformPatch_SRenderState@1@JGW4_D3DPRIMITIVETYPE@@_N@Z
_TEXT	SEGMENT
$T1 = -124						; size = 4
$T2 = -120						; size = 4
$T3 = -116						; size = 4
_this$ = -112						; size = 4
_iPrevRenderedSplatNum$ = -108				; size = 4
$T4 = -104						; size = 4
$T5 = -100						; size = 4
$T6 = -96						; size = 4
$T7 = -92						; size = 4
_aIterator$8 = -88					; size = 4
tv92 = -84						; size = 4
$T9 = -80						; size = 4
___param0$ = -76					; size = 4
$T10 = -72						; size = 4
$T11 = -68						; size = 4
$T12 = -64						; size = 4
$T13 = -60						; size = 4
___param0$ = -56					; size = 4
$T14 = -52						; size = 4
___param0$ = -48					; size = 4
_ucTerrainNum$ = -44					; size = 1
_iCurRenderedSplatNum$ = -40				; size = 4
tv517 = -36						; size = 4
__My_data$15 = -32					; size = 4
__My_data$16 = -28					; size = 4
__My_data$17 = -24					; size = 4
_rTexture$18 = -20					; size = 4
_rTerrainSplatPatch$ = -16				; size = 4
_sPatchNum$ = -12					; size = 4
___t$ = -8						; size = 4
_rSplat$19 = -4						; size = 4
___n$ = 0						; size = 4
_wCoordX$ = 4						; size = 2
_wCoordY$ = 8						; size = 2
$T20 = 14						; size = 2
_isDynamicShadow$ = 16					; size = 1
_pTerrainPatchProxy$ = 20				; size = 4
_pTerrain$ = 24						; size = 4
$T21 = 30						; size = 1
$T22 = 31						; size = 1
_j$23 = 32						; size = 4
_isFirst$ = 39						; size = 1
_this$ = 40						; size = 4
_akTransVertex$ = 44					; size = 16184
__$ArrayPad$ = 16228					; size = 4
_rkTPRS$ = 16240					; size = 4
_patchnum$ = 16244					; size = 4
_wPrimitiveCount$ = 16248				; size = 2
_ePrimitiveType$ = 16252				; size = 4
_isFogEnable$ = 16256					; size = 1
?__SoftwareTransformPatch_RenderPatchSplat@CMapOutdoor@@IAEXAAUSoftwareTransformPatch_SRenderState@1@JGW4_D3DPRIMITIVETYPE@@_N@Z PROC ; CMapOutdoor::__SoftwareTransformPatch_RenderPatchSplat, COMDAT
; _this$ = ecx

; 133  : {

  00000	55		 push	 ebp
  00001	8d ac 24 98 c0
	ff ff		 lea	 ebp, DWORD PTR [esp-16232]
  00008	b8 e4 3f 00 00	 mov	 eax, 16356		; 00003fe4H
  0000d	e8 00 00 00 00	 call	 __chkstk
  00012	a1 00 00 00 00	 mov	 eax, DWORD PTR ___security_cookie
  00017	33 c5		 xor	 eax, ebp
  00019	89 85 64 3f 00
	00		 mov	 DWORD PTR __$ArrayPad$[ebp], eax
  0001f	89 4d 28	 mov	 DWORD PTR _this$[ebp], ecx

; 134  : 	assert(NULL!=m_pTerrainPatchProxyList && "CMapOutdoor::__SoftwareTransformPatch_RenderPatchSplat");
; 135  : 
; 136  : 	CTerrainPatchProxy * pTerrainPatchProxy = &m_pTerrainPatchProxyList[patchnum];

  00022	6b 85 74 3f 00
	00 1c		 imul	 eax, DWORD PTR _patchnum$[ebp], 28
  00029	8b 4d 28	 mov	 ecx, DWORD PTR _this$[ebp]
  0002c	03 41 64	 add	 eax, DWORD PTR [ecx+100]
  0002f	89 45 14	 mov	 DWORD PTR _pTerrainPatchProxy$[ebp], eax
; File D:\Metin2 Server Files\mainline\SRC_2014\Metin2Client\GameLib\TerrainPatch.h

; 170  : 	bool isUsed()																	{ return m_bUsed; }

  00032	8b 45 14	 mov	 eax, DWORD PTR _pTerrainPatchProxy$[ebp]
  00035	8a 40 04	 mov	 al, BYTE PTR [eax+4]
  00038	88 45 1f	 mov	 BYTE PTR $T22[ebp], al
; File D:\Metin2 Server Files\mainline\SRC_2014\Metin2Client\GameLib\MapOutdoorRenderSTP.cpp

; 138  : 	if (!pTerrainPatchProxy->isUsed())

  0003b	0f b6 45 1f	 movzx	 eax, BYTE PTR $T22[ebp]
  0003f	85 c0		 test	 eax, eax
  00041	75 05		 jne	 SHORT $LN5@SoftwareTr

; 139  : 		return;

  00043	e9 7b 05 00 00	 jmp	 $LN1@SoftwareTr
$LN5@SoftwareTr:

; 140  : 
; 141  : 	bool isDynamicShadow = pTerrainPatchProxy->IsIn(rkTPRS.m_v3Player, 3000.0f);

  00048	51		 push	 ecx
  00049	f3 0f 10 05 00
	00 00 00	 movss	 xmm0, DWORD PTR __real@453b8000
  00051	f3 0f 11 04 24	 movss	 DWORD PTR [esp], xmm0
  00056	8b 85 70 3f 00
	00		 mov	 eax, DWORD PTR _rkTPRS$[ebp]
  0005c	05 6c 01 00 00	 add	 eax, 364		; 0000016cH
  00061	50		 push	 eax
  00062	8b 4d 14	 mov	 ecx, DWORD PTR _pTerrainPatchProxy$[ebp]
  00065	e8 00 00 00 00	 call	 ?IsIn@CTerrainPatchProxy@@QAE_NABUD3DXVECTOR3@@M@Z ; CTerrainPatchProxy::IsIn
  0006a	88 45 10	 mov	 BYTE PTR _isDynamicShadow$[ebp], al

; 142  : 
; 143  : 	if (!m_bDrawChrShadow)

  0006d	8b 45 28	 mov	 eax, DWORD PTR _this$[ebp]
  00070	0f b6 80 32 01
	00 00		 movzx	 eax, BYTE PTR [eax+306]
  00077	85 c0		 test	 eax, eax
  00079	75 04		 jne	 SHORT $LN6@SoftwareTr

; 144  : 		isDynamicShadow = false;

  0007b	c6 45 10 00	 mov	 BYTE PTR _isDynamicShadow$[ebp], 0
$LN6@SoftwareTr:
; File D:\Metin2 Server Files\mainline\SRC_2014\Metin2Client\GameLib\TerrainPatch.h

; 173  : 	short GetPatchNum()																{ return m_sPatchNum; }

  0007f	8b 45 14	 mov	 eax, DWORD PTR _pTerrainPatchProxy$[ebp]
  00082	66 8b 40 06	 mov	 ax, WORD PTR [eax+6]
  00086	66 89 45 0e	 mov	 WORD PTR $T20[ebp], ax
; File D:\Metin2 Server Files\mainline\SRC_2014\Metin2Client\GameLib\MapOutdoorRenderSTP.cpp

; 146  : 	long sPatchNum = pTerrainPatchProxy->GetPatchNum();

  0008a	0f bf 45 0e	 movsx	 eax, WORD PTR $T20[ebp]
  0008e	89 45 f4	 mov	 DWORD PTR _sPatchNum$[ebp], eax

; 147  : 
; 148  : 	if (sPatchNum < 0)

  00091	83 7d f4 00	 cmp	 DWORD PTR _sPatchNum$[ebp], 0
  00095	7d 05		 jge	 SHORT $LN7@SoftwareTr

; 149  : 		return;

  00097	e9 27 05 00 00	 jmp	 $LN1@SoftwareTr
$LN7@SoftwareTr:
; File D:\Metin2 Server Files\mainline\SRC_2014\Metin2Client\GameLib\TerrainPatch.h

; 176  : 	BYTE GetTerrainNum()															{ return m_byTerrainNum; }

  0009c	8b 45 14	 mov	 eax, DWORD PTR _pTerrainPatchProxy$[ebp]
  0009f	8a 40 08	 mov	 al, BYTE PTR [eax+8]
  000a2	88 45 d4	 mov	 BYTE PTR _ucTerrainNum$[ebp], al
; File D:\Metin2 Server Files\mainline\SRC_2014\Metin2Client\GameLib\MapOutdoorRenderSTP.cpp

; 153  : 	if (0xFF == ucTerrainNum)

  000a5	0f b6 45 d4	 movzx	 eax, BYTE PTR _ucTerrainNum$[ebp]
  000a9	3d ff 00 00 00	 cmp	 eax, 255		; 000000ffH
  000ae	75 05		 jne	 SHORT $LN8@SoftwareTr

; 154  : 		return;

  000b0	e9 0e 05 00 00	 jmp	 $LN1@SoftwareTr
$LN8@SoftwareTr:

; 155  : 
; 156  : 	CTerrain * pTerrain;
; 157  : 	if (!GetTerrainPointer(ucTerrainNum, &pTerrain))

  000b5	8d 45 18	 lea	 eax, DWORD PTR _pTerrain$[ebp]
  000b8	50		 push	 eax
  000b9	ff 75 d4	 push	 DWORD PTR _ucTerrainNum$[ebp]
  000bc	8b 4d 28	 mov	 ecx, DWORD PTR _this$[ebp]
  000bf	e8 00 00 00 00	 call	 ?GetTerrainPointer@CMapOutdoor@@QAEHEPAPAVCTerrain@@@Z ; CMapOutdoor::GetTerrainPointer
  000c4	85 c0		 test	 eax, eax
  000c6	75 05		 jne	 SHORT $LN9@SoftwareTr

; 158  : 		return;

  000c8	e9 f6 04 00 00	 jmp	 $LN1@SoftwareTr
$LN9@SoftwareTr:
; File D:\Metin2 Server Files\mainline\SRC_2014\Metin2Client\GameLib\AreaTerrain.h

; 92   : 			*usCoordX = m_wX;

  000cd	8b 45 18	 mov	 eax, DWORD PTR _pTerrain$[ebp]
  000d0	66 8b 80 6c a5
	06 00		 mov	 ax, WORD PTR [eax+435564]
  000d7	66 89 45 04	 mov	 WORD PTR _wCoordX$[ebp], ax

; 93   : 			*usCoordY = m_wY;

  000db	8b 45 18	 mov	 eax, DWORD PTR _pTerrain$[ebp]
  000de	66 8b 80 6e a5
	06 00		 mov	 ax, WORD PTR [eax+435566]
  000e5	66 89 45 08	 mov	 WORD PTR _wCoordY$[ebp], ax
; File D:\Metin2 Server Files\mainline\SRC_2014\Metin2Client\PRTerrainLib\Terrain.h

; 86   : 		TTerrainSplatPatch &	GetTerrainSplatPatch() {return m_TerrainSplatPatch;}

  000e9	8b 45 18	 mov	 eax, DWORD PTR _pTerrain$[ebp]
  000ec	05 3c 91 03 00	 add	 eax, 233788		; 0003913cH
; File D:\Metin2 Server Files\mainline\SRC_2014\Metin2Client\GameLib\MapOutdoorRenderSTP.cpp

; 163  : 	TTerrainSplatPatch & rTerrainSplatPatch = pTerrain->GetTerrainSplatPatch();

  000f1	89 45 f0	 mov	 DWORD PTR _rTerrainSplatPatch$[ebp], eax

; 164  : 	
; 165  : 	SoftwareTransformPatch_STLVertex akTransVertex[CTerrainPatch::TERRAIN_VERTEX_COUNT];

  000f4	c7 45 00 21 01
	00 00		 mov	 DWORD PTR ___n$[ebp], 289 ; 00000121H
  000fb	8d 45 2c	 lea	 eax, DWORD PTR _akTransVertex$[ebp]
  000fe	89 45 f8	 mov	 DWORD PTR ___t$[ebp], eax
$LN39@SoftwareTr:
  00101	8b 45 00	 mov	 eax, DWORD PTR ___n$[ebp]
  00104	89 45 ac	 mov	 DWORD PTR tv92[ebp], eax
  00107	8b 45 00	 mov	 eax, DWORD PTR ___n$[ebp]
  0010a	48		 dec	 eax
  0010b	89 45 00	 mov	 DWORD PTR ___n$[ebp], eax
  0010e	83 7d ac 00	 cmp	 DWORD PTR tv92[ebp], 0
  00112	76 0b		 jbe	 SHORT $LN40@SoftwareTr
  00114	8b 45 f8	 mov	 eax, DWORD PTR ___t$[ebp]
  00117	83 c0 38	 add	 eax, 56			; 00000038H
  0011a	89 45 f8	 mov	 DWORD PTR ___t$[ebp], eax
  0011d	eb e2		 jmp	 SHORT $LN39@SoftwareTr
$LN40@SoftwareTr:

; 166  : 	if (!__SoftwareTransformPatch_SetTransform(rkTPRS, akTransVertex, *pTerrainPatchProxy, wCoordX, wCoordY, isFogEnable, isDynamicShadow))

  0011f	ff 75 10	 push	 DWORD PTR _isDynamicShadow$[ebp]
  00122	ff b5 80 3f 00
	00		 push	 DWORD PTR _isFogEnable$[ebp]
  00128	0f b7 45 08	 movzx	 eax, WORD PTR _wCoordY$[ebp]
  0012c	50		 push	 eax
  0012d	0f b7 45 04	 movzx	 eax, WORD PTR _wCoordX$[ebp]
  00131	50		 push	 eax
  00132	ff 75 14	 push	 DWORD PTR _pTerrainPatchProxy$[ebp]
  00135	8d 45 2c	 lea	 eax, DWORD PTR _akTransVertex$[ebp]
  00138	50		 push	 eax
  00139	ff b5 70 3f 00
	00		 push	 DWORD PTR _rkTPRS$[ebp]
  0013f	8b 4d 28	 mov	 ecx, DWORD PTR _this$[ebp]
  00142	e8 00 00 00 00	 call	 ?__SoftwareTransformPatch_SetTransform@CMapOutdoor@@IAE_NAAUSoftwareTransformPatch_SRenderState@1@PAUSoftwareTransformPatch_STLVertex@1@AAVCTerrainPatchProxy@@II_N3@Z ; CMapOutdoor::__SoftwareTransformPatch_SetTransform
  00147	0f b6 c0	 movzx	 eax, al
  0014a	85 c0		 test	 eax, eax
  0014c	75 05		 jne	 SHORT $LN10@SoftwareTr

; 167  : 		return;

  0014e	e9 70 04 00 00	 jmp	 $LN1@SoftwareTr
$LN10@SoftwareTr:

; 168  : 	
; 169  : 	if (!__SoftwareTransformPatch_SetSplatStream(akTransVertex))

  00153	8d 45 2c	 lea	 eax, DWORD PTR _akTransVertex$[ebp]
  00156	50		 push	 eax
  00157	8b 4d 28	 mov	 ecx, DWORD PTR _this$[ebp]
  0015a	e8 00 00 00 00	 call	 ?__SoftwareTransformPatch_SetSplatStream@CMapOutdoor@@IAE_NPAUSoftwareTransformPatch_STLVertex@1@@Z ; CMapOutdoor::__SoftwareTransformPatch_SetSplatStream
  0015f	0f b6 c0	 movzx	 eax, al
  00162	85 c0		 test	 eax, eax
  00164	75 05		 jne	 SHORT $LN11@SoftwareTr

; 170  : 		return;

  00166	e9 58 04 00 00	 jmp	 $LN1@SoftwareTr
$LN11@SoftwareTr:

; 171  : 	
; 172  : 	if (isFogEnable)

  0016b	0f b6 85 80 3f
	00 00		 movzx	 eax, BYTE PTR _isFogEnable$[ebp]
  00172	85 c0		 test	 eax, eax
  00174	74 35		 je	 SHORT $LN12@SoftwareTr

; 173  : 	{
; 174  : 		STATEMANAGER.SetTextureStageState(0, D3DTSS_COLORARG1, D3DTA_TEXTURE);

  00176	6a 02		 push	 2
  00178	6a 02		 push	 2
  0017a	6a 00		 push	 0
  0017c	8b 0d 00 00 00
	00		 mov	 ecx, DWORD PTR ?ms_singleton@?$CSingleton@VCStateManager@@@@0PAVCStateManager@@A ; CSingleton<CStateManager>::ms_singleton
  00182	e8 00 00 00 00	 call	 ?SetTextureStageState@CStateManager@@QAEXKW4_D3DTEXTURESTAGESTATETYPE@@K@Z ; CStateManager::SetTextureStageState

; 175  : 		STATEMANAGER.SetTextureStageState(0, D3DTSS_COLORARG2, D3DTA_TFACTOR);

  00187	6a 03		 push	 3
  00189	6a 03		 push	 3
  0018b	6a 00		 push	 0
  0018d	8b 0d 00 00 00
	00		 mov	 ecx, DWORD PTR ?ms_singleton@?$CSingleton@VCStateManager@@@@0PAVCStateManager@@A ; CSingleton<CStateManager>::ms_singleton
  00193	e8 00 00 00 00	 call	 ?SetTextureStageState@CStateManager@@QAEXKW4_D3DTEXTURESTAGESTATETYPE@@K@Z ; CStateManager::SetTextureStageState

; 176  : 		STATEMANAGER.SetTextureStageState(0, D3DTSS_COLOROP,   D3DTOP_BLENDDIFFUSEALPHA);

  00198	6a 0c		 push	 12			; 0000000cH
  0019a	6a 01		 push	 1
  0019c	6a 00		 push	 0
  0019e	8b 0d 00 00 00
	00		 mov	 ecx, DWORD PTR ?ms_singleton@?$CSingleton@VCStateManager@@@@0PAVCStateManager@@A ; CSingleton<CStateManager>::ms_singleton
  001a4	e8 00 00 00 00	 call	 ?SetTextureStageState@CStateManager@@QAEXKW4_D3DTEXTURESTAGESTATETYPE@@K@Z ; CStateManager::SetTextureStageState

; 177  : 	}

  001a9	eb 33		 jmp	 SHORT $LN13@SoftwareTr
$LN12@SoftwareTr:

; 178  : 	else
; 179  : 	{
; 180  : 		STATEMANAGER.SetTextureStageState(0, D3DTSS_COLORARG1, D3DTA_TEXTURE);

  001ab	6a 02		 push	 2
  001ad	6a 02		 push	 2
  001af	6a 00		 push	 0
  001b1	8b 0d 00 00 00
	00		 mov	 ecx, DWORD PTR ?ms_singleton@?$CSingleton@VCStateManager@@@@0PAVCStateManager@@A ; CSingleton<CStateManager>::ms_singleton
  001b7	e8 00 00 00 00	 call	 ?SetTextureStageState@CStateManager@@QAEXKW4_D3DTEXTURESTAGESTATETYPE@@K@Z ; CStateManager::SetTextureStageState

; 181  : 		STATEMANAGER.SetTextureStageState(0, D3DTSS_COLORARG2, D3DTA_DIFFUSE);

  001bc	6a 00		 push	 0
  001be	6a 03		 push	 3
  001c0	6a 00		 push	 0
  001c2	8b 0d 00 00 00
	00		 mov	 ecx, DWORD PTR ?ms_singleton@?$CSingleton@VCStateManager@@@@0PAVCStateManager@@A ; CSingleton<CStateManager>::ms_singleton
  001c8	e8 00 00 00 00	 call	 ?SetTextureStageState@CStateManager@@QAEXKW4_D3DTEXTURESTAGESTATETYPE@@K@Z ; CStateManager::SetTextureStageState

; 182  : 		STATEMANAGER.SetTextureStageState(0, D3DTSS_COLOROP,   D3DTOP_SELECTARG1);

  001cd	6a 02		 push	 2
  001cf	6a 01		 push	 1
  001d1	6a 00		 push	 0
  001d3	8b 0d 00 00 00
	00		 mov	 ecx, DWORD PTR ?ms_singleton@?$CSingleton@VCStateManager@@@@0PAVCStateManager@@A ; CSingleton<CStateManager>::ms_singleton
  001d9	e8 00 00 00 00	 call	 ?SetTextureStageState@CStateManager@@QAEXKW4_D3DTEXTURESTAGESTATETYPE@@K@Z ; CStateManager::SetTextureStageState
$LN13@SoftwareTr:

; 183  : 	}
; 184  : 
; 185  : 	int iPrevRenderedSplatNum=m_iRenderedSplatNum;

  001de	8b 45 28	 mov	 eax, DWORD PTR _this$[ebp]
  001e1	8b 80 88 09 00
	00		 mov	 eax, DWORD PTR [eax+2440]
  001e7	89 45 94	 mov	 DWORD PTR _iPrevRenderedSplatNum$[ebp], eax

; 186  : 	
; 187  : 	bool isFirst=true;

  001ea	c6 45 27 01	 mov	 BYTE PTR _isFirst$[ebp], 1

; 188  : 	for (DWORD j = 1; j < pTerrain->GetNumTextures(); ++j)

  001ee	c7 45 20 01 00
	00 00		 mov	 DWORD PTR _j$23[ebp], 1
  001f5	eb 07		 jmp	 SHORT $LN4@SoftwareTr
$LN2@SoftwareTr:
  001f7	8b 45 20	 mov	 eax, DWORD PTR _j$23[ebp]
  001fa	40		 inc	 eax
  001fb	89 45 20	 mov	 DWORD PTR _j$23[ebp], eax
$LN4@SoftwareTr:
  001fe	8b 45 18	 mov	 eax, DWORD PTR _pTerrain$[ebp]
  00201	89 45 90	 mov	 DWORD PTR _this$[ebp], eax
; File D:\Metin2 Server Files\mainline\SRC_2014\Metin2Client\PRTerrainLib\Terrain.h

; 87   : 		DWORD					GetNumTextures()						{ return ms_pTextureSet->GetTextureCount(); }

  00204	8b 0d 00 00 00
	00		 mov	 ecx, DWORD PTR ?ms_pTextureSet@CTerrainImpl@@1PAVCTextureSet@@A ; CTerrainImpl::ms_pTextureSet
  0020a	e8 00 00 00 00	 call	 ?GetTextureCount@CTextureSet@@QAEKXZ ; CTextureSet::GetTextureCount
; File D:\Metin2 Server Files\mainline\SRC_2014\Metin2Client\GameLib\MapOutdoorRenderSTP.cpp

; 188  : 	for (DWORD j = 1; j < pTerrain->GetNumTextures(); ++j)

  0020f	39 45 20	 cmp	 DWORD PTR _j$23[ebp], eax
  00212	0f 83 0e 02 00
	00		 jae	 $LN3@SoftwareTr

; 189  : 	{
; 190  : 		TTerainSplat & rSplat = rTerrainSplatPatch.Splats[j];

  00218	6b 45 20 0c	 imul	 eax, DWORD PTR _j$23[ebp], 12
  0021c	8b 4d f0	 mov	 ecx, DWORD PTR _rTerrainSplatPatch$[ebp]
  0021f	8d 84 01 00 04
	01 00		 lea	 eax, DWORD PTR [ecx+eax+66560]
  00226	89 45 fc	 mov	 DWORD PTR _rSplat$19[ebp], eax

; 191  : 		
; 192  : 		if (!rSplat.Active)

  00229	8b 45 fc	 mov	 eax, DWORD PTR _rSplat$19[ebp]
  0022c	83 38 00	 cmp	 DWORD PTR [eax], 0
  0022f	75 02		 jne	 SHORT $LN14@SoftwareTr

; 193  : 			continue;

  00231	eb c4		 jmp	 SHORT $LN2@SoftwareTr
$LN14@SoftwareTr:

; 194  : 		
; 195  : 		if (rTerrainSplatPatch.PatchTileCount[sPatchNum][j] == 0)

  00233	8b 45 f4	 mov	 eax, DWORD PTR _sPatchNum$[ebp]
  00236	c1 e0 0a	 shl	 eax, 10			; 0000000aH
  00239	8b 4d f0	 mov	 ecx, DWORD PTR _rTerrainSplatPatch$[ebp]
  0023c	8d 84 01 00 04
	00 00		 lea	 eax, DWORD PTR [ecx+eax+1024]
  00243	8b 4d 20	 mov	 ecx, DWORD PTR _j$23[ebp]
  00246	83 3c 88 00	 cmp	 DWORD PTR [eax+ecx*4], 0
  0024a	75 02		 jne	 SHORT $LN15@SoftwareTr

; 196  : 			continue;

  0024c	eb a9		 jmp	 SHORT $LN2@SoftwareTr
$LN15@SoftwareTr:

; 197  : 		
; 198  : 		const TTerrainTexture & rTexture = m_TextureSet.GetTexture(j);

  0024e	ff 75 20	 push	 DWORD PTR _j$23[ebp]
  00251	8b 4d 28	 mov	 ecx, DWORD PTR _this$[ebp]
  00254	81 c1 7c 02 00
	00		 add	 ecx, 636		; 0000027cH
  0025a	e8 00 00 00 00	 call	 ?GetTexture@CTextureSet@@QAEAAUSTerrainTexture@@K@Z ; CTextureSet::GetTexture
  0025f	89 45 ec	 mov	 DWORD PTR _rTexture$18[ebp], eax

; 199  : 		
; 200  : 		if (isFirst)

  00262	0f b6 45 27	 movzx	 eax, BYTE PTR _isFirst$[ebp]
  00266	85 c0		 test	 eax, eax
  00268	74 74		 je	 SHORT $LN16@SoftwareTr

; 201  : 		{
; 202  : 			STATEMANAGER.SetTextureStageState(1, D3DTSS_ALPHAOP,   D3DTOP_SELECTARG2);

  0026a	6a 03		 push	 3
  0026c	6a 04		 push	 4
  0026e	6a 01		 push	 1
  00270	8b 0d 00 00 00
	00		 mov	 ecx, DWORD PTR ?ms_singleton@?$CSingleton@VCStateManager@@@@0PAVCStateManager@@A ; CSingleton<CStateManager>::ms_singleton
  00276	e8 00 00 00 00	 call	 ?SetTextureStageState@CStateManager@@QAEXKW4_D3DTEXTURESTAGESTATETYPE@@K@Z ; CStateManager::SetTextureStageState

; 203  : 			STATEMANAGER.SetTexture(0, rTexture.pd3dTexture);

  0027b	8b 45 ec	 mov	 eax, DWORD PTR _rTexture$18[ebp]
  0027e	ff 70 18	 push	 DWORD PTR [eax+24]
  00281	6a 00		 push	 0
  00283	8b 0d 00 00 00
	00		 mov	 ecx, DWORD PTR ?ms_singleton@?$CSingleton@VCStateManager@@@@0PAVCStateManager@@A ; CSingleton<CStateManager>::ms_singleton
  00289	e8 00 00 00 00	 call	 ?SetTexture@CStateManager@@QAEXKPAUIDirect3DBaseTexture8@@@Z ; CStateManager::SetTexture

; 204  : 			STATEMANAGER.SetTexture(1, rSplat.pd3dTexture);

  0028e	8b 45 fc	 mov	 eax, DWORD PTR _rSplat$19[ebp]
  00291	ff 70 08	 push	 DWORD PTR [eax+8]
  00294	6a 01		 push	 1
  00296	8b 0d 00 00 00
	00		 mov	 ecx, DWORD PTR ?ms_singleton@?$CSingleton@VCStateManager@@@@0PAVCStateManager@@A ; CSingleton<CStateManager>::ms_singleton
  0029c	e8 00 00 00 00	 call	 ?SetTexture@CStateManager@@QAEXKPAUIDirect3DBaseTexture8@@@Z ; CStateManager::SetTexture

; 205  : 			STATEMANAGER.DrawIndexedPrimitive(ePrimitiveType, 0, m_iPatchTerrainVertexCount, 0, wPrimitiveCount);

  002a1	0f b7 85 78 3f
	00 00		 movzx	 eax, WORD PTR _wPrimitiveCount$[ebp]
  002a8	50		 push	 eax
  002a9	6a 00		 push	 0
  002ab	8b 45 28	 mov	 eax, DWORD PTR _this$[ebp]
  002ae	ff b0 a0 09 00
	00		 push	 DWORD PTR [eax+2464]
  002b4	6a 00		 push	 0
  002b6	ff b5 7c 3f 00
	00		 push	 DWORD PTR _ePrimitiveType$[ebp]
  002bc	8b 0d 00 00 00
	00		 mov	 ecx, DWORD PTR ?ms_singleton@?$CSingleton@VCStateManager@@@@0PAVCStateManager@@A ; CSingleton<CStateManager>::ms_singleton
  002c2	e8 00 00 00 00	 call	 ?DrawIndexedPrimitive@CStateManager@@QAEJW4_D3DPRIMITIVETYPE@@IIII@Z ; CStateManager::DrawIndexedPrimitive

; 206  : 			STATEMANAGER.SetTextureStageState(1, D3DTSS_ALPHAOP,   D3DTOP_SELECTARG1);

  002c7	6a 02		 push	 2
  002c9	6a 04		 push	 4
  002cb	6a 01		 push	 1
  002cd	8b 0d 00 00 00
	00		 mov	 ecx, DWORD PTR ?ms_singleton@?$CSingleton@VCStateManager@@@@0PAVCStateManager@@A ; CSingleton<CStateManager>::ms_singleton
  002d3	e8 00 00 00 00	 call	 ?SetTextureStageState@CStateManager@@QAEXKW4_D3DTEXTURESTAGESTATETYPE@@K@Z ; CStateManager::SetTextureStageState

; 207  : 			isFirst=false;

  002d8	c6 45 27 00	 mov	 BYTE PTR _isFirst$[ebp], 0

; 208  : 		}

  002dc	eb 4c		 jmp	 SHORT $LN17@SoftwareTr
$LN16@SoftwareTr:

; 209  : 		else
; 210  : 		{
; 211  : 			STATEMANAGER.SetTexture(0, rTexture.pd3dTexture);

  002de	8b 45 ec	 mov	 eax, DWORD PTR _rTexture$18[ebp]
  002e1	ff 70 18	 push	 DWORD PTR [eax+24]
  002e4	6a 00		 push	 0
  002e6	8b 0d 00 00 00
	00		 mov	 ecx, DWORD PTR ?ms_singleton@?$CSingleton@VCStateManager@@@@0PAVCStateManager@@A ; CSingleton<CStateManager>::ms_singleton
  002ec	e8 00 00 00 00	 call	 ?SetTexture@CStateManager@@QAEXKPAUIDirect3DBaseTexture8@@@Z ; CStateManager::SetTexture

; 212  : 			STATEMANAGER.SetTexture(1, rSplat.pd3dTexture);

  002f1	8b 45 fc	 mov	 eax, DWORD PTR _rSplat$19[ebp]
  002f4	ff 70 08	 push	 DWORD PTR [eax+8]
  002f7	6a 01		 push	 1
  002f9	8b 0d 00 00 00
	00		 mov	 ecx, DWORD PTR ?ms_singleton@?$CSingleton@VCStateManager@@@@0PAVCStateManager@@A ; CSingleton<CStateManager>::ms_singleton
  002ff	e8 00 00 00 00	 call	 ?SetTexture@CStateManager@@QAEXKPAUIDirect3DBaseTexture8@@@Z ; CStateManager::SetTexture

; 213  : 			STATEMANAGER.DrawIndexedPrimitive(ePrimitiveType, 0, m_iPatchTerrainVertexCount, 0, wPrimitiveCount);			

  00304	0f b7 85 78 3f
	00 00		 movzx	 eax, WORD PTR _wPrimitiveCount$[ebp]
  0030b	50		 push	 eax
  0030c	6a 00		 push	 0
  0030e	8b 45 28	 mov	 eax, DWORD PTR _this$[ebp]
  00311	ff b0 a0 09 00
	00		 push	 DWORD PTR [eax+2464]
  00317	6a 00		 push	 0
  00319	ff b5 7c 3f 00
	00		 push	 DWORD PTR _ePrimitiveType$[ebp]
  0031f	8b 0d 00 00 00
	00		 mov	 ecx, DWORD PTR ?ms_singleton@?$CSingleton@VCStateManager@@@@0PAVCStateManager@@A ; CSingleton<CStateManager>::ms_singleton
  00325	e8 00 00 00 00	 call	 ?DrawIndexedPrimitive@CStateManager@@QAEJW4_D3DPRIMITIVETYPE@@IIII@Z ; CStateManager::DrawIndexedPrimitive
$LN17@SoftwareTr:

; 216  : 		std::vector<int>::iterator aIterator = std::find(m_RenderedTextureNumVector.begin(), m_RenderedTextureNumVector.end(), (int)j);

  0032a	8b 45 20	 mov	 eax, DWORD PTR _j$23[ebp]
  0032d	89 45 c0	 mov	 DWORD PTR $T12[ebp], eax
; File C:\Program Files (x86)\Microsoft Visual Studio\2019\Community\VC\Tools\MSVC\14.28.29333\include\vector

; 1420 :         auto& _My_data = _Mypair._Myval2;

  00330	8b 45 28	 mov	 eax, DWORD PTR _this$[ebp]
  00333	05 90 09 00 00	 add	 eax, 2448		; 00000990H
  00338	89 45 e8	 mov	 DWORD PTR __My_data$17[ebp], eax
; File C:\Program Files (x86)\Microsoft Visual Studio\2019\Community\VC\Tools\MSVC\14.28.29333\include\xstddef

; 275  :     return __builtin_addressof(_Val);

  0033b	8b 45 e8	 mov	 eax, DWORD PTR __My_data$17[ebp]
  0033e	89 45 8c	 mov	 DWORD PTR $T3[ebp], eax
; File C:\Program Files (x86)\Microsoft Visual Studio\2019\Community\VC\Tools\MSVC\14.28.29333\include\vector

; 1421 :         return iterator(_My_data._Mylast, _STD addressof(_My_data));

  00341	8b 45 e8	 mov	 eax, DWORD PTR __My_data$17[ebp]
  00344	8b 40 04	 mov	 eax, DWORD PTR [eax+4]
  00347	89 45 d0	 mov	 DWORD PTR ___param0$[ebp], eax

; 42   :     _Vector_const_iterator(_Tptr _Parg, const _Container_base* _Pvector) noexcept : _Ptr(_Parg) {

  0034a	8b 45 d0	 mov	 eax, DWORD PTR ___param0$[ebp]
  0034d	89 45 cc	 mov	 DWORD PTR $T14[ebp], eax

; 1421 :         return iterator(_My_data._Mylast, _STD addressof(_My_data));

  00350	8d 45 cc	 lea	 eax, DWORD PTR $T14[ebp]
  00353	89 45 bc	 mov	 DWORD PTR $T11[ebp], eax

; 1410 :         auto& _My_data = _Mypair._Myval2;

  00356	8b 45 28	 mov	 eax, DWORD PTR _this$[ebp]
  00359	05 90 09 00 00	 add	 eax, 2448		; 00000990H
  0035e	89 45 e4	 mov	 DWORD PTR __My_data$16[ebp], eax
; File C:\Program Files (x86)\Microsoft Visual Studio\2019\Community\VC\Tools\MSVC\14.28.29333\include\xstddef

; 275  :     return __builtin_addressof(_Val);

  00361	8b 45 e4	 mov	 eax, DWORD PTR __My_data$16[ebp]
  00364	89 45 88	 mov	 DWORD PTR $T2[ebp], eax
; File C:\Program Files (x86)\Microsoft Visual Studio\2019\Community\VC\Tools\MSVC\14.28.29333\include\vector

; 1411 :         return iterator(_My_data._Myfirst, _STD addressof(_My_data));

  00367	8b 45 e4	 mov	 eax, DWORD PTR __My_data$16[ebp]
  0036a	8b 00		 mov	 eax, DWORD PTR [eax]
  0036c	89 45 c8	 mov	 DWORD PTR ___param0$[ebp], eax

; 42   :     _Vector_const_iterator(_Tptr _Parg, const _Container_base* _Pvector) noexcept : _Ptr(_Parg) {

  0036f	8b 45 c8	 mov	 eax, DWORD PTR ___param0$[ebp]
  00372	89 45 c4	 mov	 DWORD PTR $T13[ebp], eax

; 1411 :         return iterator(_My_data._Myfirst, _STD addressof(_My_data));

  00375	8d 45 c4	 lea	 eax, DWORD PTR $T13[ebp]
  00378	89 45 b8	 mov	 DWORD PTR $T10[ebp], eax
; File D:\Metin2 Server Files\mainline\SRC_2014\Metin2Client\GameLib\MapOutdoorRenderSTP.cpp

; 216  : 		std::vector<int>::iterator aIterator = std::find(m_RenderedTextureNumVector.begin(), m_RenderedTextureNumVector.end(), (int)j);

  0037b	8d 45 c0	 lea	 eax, DWORD PTR $T12[ebp]
  0037e	50		 push	 eax
  0037f	8b 45 bc	 mov	 eax, DWORD PTR $T11[ebp]
  00382	ff 30		 push	 DWORD PTR [eax]
  00384	8b 45 b8	 mov	 eax, DWORD PTR $T10[ebp]
  00387	ff 30		 push	 DWORD PTR [eax]
  00389	8d 45 a8	 lea	 eax, DWORD PTR _aIterator$8[ebp]
  0038c	50		 push	 eax
  0038d	e8 00 00 00 00	 call	 ??$find@V?$_Vector_iterator@V?$_Vector_val@U?$_Simple_types@H@std@@@std@@@std@@H@std@@YA?AV?$_Vector_iterator@V?$_Vector_val@U?$_Simple_types@H@std@@@std@@@0@V10@V10@ABH@Z ; std::find<std::_Vector_iterator<std::_Vector_val<std::_Simple_types<int> > >,int>
  00392	83 c4 10	 add	 esp, 16			; 00000010H
; File C:\Program Files (x86)\Microsoft Visual Studio\2019\Community\VC\Tools\MSVC\14.28.29333\include\vector

; 1420 :         auto& _My_data = _Mypair._Myval2;

  00395	8b 45 28	 mov	 eax, DWORD PTR _this$[ebp]
  00398	05 90 09 00 00	 add	 eax, 2448		; 00000990H
  0039d	89 45 e0	 mov	 DWORD PTR __My_data$15[ebp], eax
; File C:\Program Files (x86)\Microsoft Visual Studio\2019\Community\VC\Tools\MSVC\14.28.29333\include\xstddef

; 275  :     return __builtin_addressof(_Val);

  003a0	8b 45 e0	 mov	 eax, DWORD PTR __My_data$15[ebp]
  003a3	89 45 84	 mov	 DWORD PTR $T1[ebp], eax
; File C:\Program Files (x86)\Microsoft Visual Studio\2019\Community\VC\Tools\MSVC\14.28.29333\include\vector

; 1421 :         return iterator(_My_data._Mylast, _STD addressof(_My_data));

  003a6	8b 45 e0	 mov	 eax, DWORD PTR __My_data$15[ebp]
  003a9	8b 40 04	 mov	 eax, DWORD PTR [eax+4]
  003ac	89 45 b4	 mov	 DWORD PTR ___param0$[ebp], eax

; 42   :     _Vector_const_iterator(_Tptr _Parg, const _Container_base* _Pvector) noexcept : _Ptr(_Parg) {

  003af	8b 45 b4	 mov	 eax, DWORD PTR ___param0$[ebp]
  003b2	89 45 b0	 mov	 DWORD PTR $T9[ebp], eax

; 1421 :         return iterator(_My_data._Mylast, _STD addressof(_My_data));

  003b5	8d 45 b0	 lea	 eax, DWORD PTR $T9[ebp]
  003b8	89 45 98	 mov	 DWORD PTR $T4[ebp], eax

; 149  :         return _Ptr == _Right._Ptr;

  003bb	8b 45 98	 mov	 eax, DWORD PTR $T4[ebp]
  003be	8b 4d a8	 mov	 ecx, DWORD PTR _aIterator$8[ebp]
  003c1	3b 08		 cmp	 ecx, DWORD PTR [eax]
  003c3	75 09		 jne	 SHORT $LN164@SoftwareTr
  003c5	c7 45 dc 01 00
	00 00		 mov	 DWORD PTR tv517[ebp], 1
  003cc	eb 04		 jmp	 SHORT $LN165@SoftwareTr
$LN164@SoftwareTr:
  003ce	83 65 dc 00	 and	 DWORD PTR tv517[ebp], 0
$LN165@SoftwareTr:
  003d2	8a 45 dc	 mov	 al, BYTE PTR tv517[ebp]
  003d5	88 45 1e	 mov	 BYTE PTR $T21[ebp], al
; File D:\Metin2 Server Files\mainline\SRC_2014\Metin2Client\GameLib\MapOutdoorRenderSTP.cpp

; 217  : 		if (aIterator == m_RenderedTextureNumVector.end())

  003d8	0f b6 45 1e	 movzx	 eax, BYTE PTR $T21[ebp]
  003dc	85 c0		 test	 eax, eax
