; Listing generated by Microsoft (R) Optimizing Compiler Version 19.28.29335.0 

	TITLE	D:\Metin2 Server Files\mainline\SRC_2014\Metin2Client\GameLib\MapUtil.cpp
	.686P
	.XMM
	include listing.inc
	.model	flat

INCLUDELIB LIBCMT
INCLUDELIB OLDNAMES

PUBLIC	??0exception@std@@QAE@ABV01@@Z			; std::exception::exception
PUBLIC	?what@exception@std@@UBEPBDXZ			; std::exception::what
PUBLIC	??_Gexception@std@@UAEPAXI@Z			; std::exception::`scalar deleting destructor'
PUBLIC	??0bad_alloc@std@@QAE@ABV01@@Z			; std::bad_alloc::bad_alloc
PUBLIC	??_Gbad_alloc@std@@UAEPAXI@Z			; std::bad_alloc::`scalar deleting destructor'
PUBLIC	??0bad_array_new_length@std@@QAE@XZ		; std::bad_array_new_length::bad_array_new_length
PUBLIC	??1bad_array_new_length@std@@UAE@XZ		; std::bad_array_new_length::~bad_array_new_length
PUBLIC	??0bad_array_new_length@std@@QAE@ABV01@@Z	; std::bad_array_new_length::bad_array_new_length
PUBLIC	??_Gbad_array_new_length@std@@UAEPAXI@Z		; std::bad_array_new_length::`scalar deleting destructor'
PUBLIC	?_Throw_bad_array_new_length@std@@YAXXZ		; std::_Throw_bad_array_new_length
PUBLIC	?_Adjust_manually_vector_aligned@std@@YAXAAPAXAAI@Z ; std::_Adjust_manually_vector_aligned
PUBLIC	?_Xlen_string@std@@YAXXZ			; std::_Xlen_string
PUBLIC	?_Myptr@?$_String_val@U?$_Simple_types@D@std@@@std@@QAEPADXZ ; std::_String_val<std::_Simple_types<char> >::_Myptr
PUBLIC	?_Myptr@?$_String_val@U?$_Simple_types@D@std@@@std@@QBEPBDXZ ; std::_String_val<std::_Simple_types<char> >::_Myptr
PUBLIC	??0?$basic_string@DU?$char_traits@D@std@@V?$allocator@D@2@@std@@QAE@QBD@Z ; std::basic_string<char,std::char_traits<char>,std::allocator<char> >::basic_string<char,std::char_traits<char>,std::allocator<char> >
PUBLIC	??1?$basic_string@DU?$char_traits@D@std@@V?$allocator@D@2@@std@@QAE@XZ ; std::basic_string<char,std::char_traits<char>,std::allocator<char> >::~basic_string<char,std::char_traits<char>,std::allocator<char> >
PUBLIC	?assign@?$basic_string@DU?$char_traits@D@std@@V?$allocator@D@2@@std@@QAEAAV12@QBDI@Z ; std::basic_string<char,std::char_traits<char>,std::allocator<char> >::assign
PUBLIC	?c_str@?$basic_string@DU?$char_traits@D@std@@V?$allocator@D@2@@std@@QBEPBDXZ ; std::basic_string<char,std::char_traits<char>,std::allocator<char> >::c_str
PUBLIC	?max_size@?$basic_string@DU?$char_traits@D@std@@V?$allocator@D@2@@std@@QBEIXZ ; std::basic_string<char,std::char_traits<char>,std::allocator<char> >::max_size
PUBLIC	?_Calculate_growth@?$basic_string@DU?$char_traits@D@std@@V?$allocator@D@2@@std@@ABEII@Z ; std::basic_string<char,std::char_traits<char>,std::allocator<char> >::_Calculate_growth
PUBLIC	?_Tidy_init@?$basic_string@DU?$char_traits@D@std@@V?$allocator@D@2@@std@@AAEXXZ ; std::basic_string<char,std::char_traits<char>,std::allocator<char> >::_Tidy_init
PUBLIC	?_Tidy_deallocate@?$basic_string@DU?$char_traits@D@std@@V?$allocator@D@2@@std@@AAEXXZ ; std::basic_string<char,std::char_traits<char>,std::allocator<char> >::_Tidy_deallocate
PUBLIC	??1?$_Compressed_pair@V?$allocator@D@std@@V?$_String_val@U?$_Simple_types@D@std@@@2@$00@std@@QAE@XZ ; std::_Compressed_pair<std::allocator<char>,std::_String_val<std::_Simple_types<char> >,1>::~_Compressed_pair<std::allocator<char>,std::_String_val<std::_Simple_types<char> >,1>
PUBLIC	?at@?$vector@V?$basic_string@DU?$char_traits@D@std@@V?$allocator@D@2@@std@@V?$allocator@V?$basic_string@DU?$char_traits@D@std@@V?$allocator@D@2@@std@@@2@@std@@QAEAAV?$basic_string@DU?$char_traits@D@std@@V?$allocator@D@2@@2@I@Z ; std::vector<std::basic_string<char,std::char_traits<char>,std::allocator<char> >,std::allocator<std::basic_string<char,std::char_traits<char>,std::allocator<char> > > >::at
PUBLIC	?_Xrange@?$vector@V?$basic_string@DU?$char_traits@D@std@@V?$allocator@D@2@@std@@V?$allocator@V?$basic_string@DU?$char_traits@D@std@@V?$allocator@D@2@@std@@@2@@std@@CAXXZ ; std::vector<std::basic_string<char,std::char_traits<char>,std::allocator<char> >,std::allocator<std::basic_string<char,std::char_traits<char>,std::allocator<char> > > >::_Xrange
PUBLIC	??0TGradientColor@@QAE@XZ			; TGradientColor::TGradientColor
PUBLIC	?deallocate@?$allocator@UTGradientColor@@@std@@QAEXQAUTGradientColor@@I@Z ; std::allocator<TGradientColor>::deallocate
PUBLIC	?clear@?$vector@UTGradientColor@@V?$allocator@UTGradientColor@@@std@@@std@@QAEXXZ ; std::vector<TGradientColor,std::allocator<TGradientColor> >::clear
PUBLIC	?_Destroy@?$vector@UTGradientColor@@V?$allocator@UTGradientColor@@@std@@@std@@AAEXPAUTGradientColor@@0@Z ; std::vector<TGradientColor,std::allocator<TGradientColor> >::_Destroy
PUBLIC	?_Calculate_growth@?$vector@UTGradientColor@@V?$allocator@UTGradientColor@@@std@@@std@@ABEII@Z ; std::vector<TGradientColor,std::allocator<TGradientColor> >::_Calculate_growth
PUBLIC	?_Change_array@?$vector@UTGradientColor@@V?$allocator@UTGradientColor@@@std@@@std@@AAEXQAUTGradientColor@@II@Z ; std::vector<TGradientColor,std::allocator<TGradientColor> >::_Change_array
PUBLIC	?_Xlength@?$vector@UTGradientColor@@V?$allocator@UTGradientColor@@@std@@@std@@CAXXZ ; std::vector<TGradientColor,std::allocator<TGradientColor> >::_Xlength
PUBLIC	?_Getal@?$vector@UTGradientColor@@V?$allocator@UTGradientColor@@@std@@@std@@AAEAAV?$allocator@UTGradientColor@@@2@XZ ; std::vector<TGradientColor,std::allocator<TGradientColor> >::_Getal
PUBLIC	?Environment_Init@@YAXAAUSEnvironmentData@@@Z	; Environment_Init
PUBLIC	?Environment_Load@@YA_NAAUSEnvironmentData@@PBD@Z ; Environment_Load
PUBLIC	?GetInterpolatedPosition@@YAXMPAUD3DXVECTOR3@@@Z ; GetInterpolatedPosition
PUBLIC	?GetLinearInterpolation@@YAMMMM@Z		; GetLinearInterpolation
PUBLIC	?PixelPositionToAttributeCellPosition@@YAXUD3DXVECTOR3@@PAUSCellPosition@@@Z ; PixelPositionToAttributeCellPosition
PUBLIC	?AttributeCellPositionToPixelPosition@@YAXUSCellPosition@@PAUD3DXVECTOR3@@@Z ; AttributeCellPositionToPixelPosition
PUBLIC	?GetPixelPositionDistance@@YAMABUD3DXVECTOR3@@0@Z ; GetPixelPositionDistance
PUBLIC	??0CEaseOutInterpolation@@QAE@XZ		; CEaseOutInterpolation::CEaseOutInterpolation
PUBLIC	??1CEaseOutInterpolation@@UAE@XZ		; CEaseOutInterpolation::~CEaseOutInterpolation
PUBLIC	?Initialize@CEaseOutInterpolation@@QAEXXZ	; CEaseOutInterpolation::Initialize
PUBLIC	?Setup@CEaseOutInterpolation@@QAEHMMM@Z		; CEaseOutInterpolation::Setup
PUBLIC	?Interpolate@CEaseOutInterpolation@@QAEXM@Z	; CEaseOutInterpolation::Interpolate
PUBLIC	?isPlaying@CEaseOutInterpolation@@QAEHXZ	; CEaseOutInterpolation::isPlaying
PUBLIC	?GetValue@CEaseOutInterpolation@@QAEMXZ		; CEaseOutInterpolation::GetValue
PUBLIC	?GetChangingValue@CEaseOutInterpolation@@QAEMXZ	; CEaseOutInterpolation::GetChangingValue
PUBLIC	??_GCEaseOutInterpolation@@UAEPAXI@Z		; CEaseOutInterpolation::`scalar deleting destructor'
PUBLIC	??$_Destroy_in_place@PAD@std@@YAXAAPAD@Z	; std::_Destroy_in_place<char *>
PUBLIC	??$_Reallocate_for@V<lambda_9366063389c5f42a00a5088cf24e69de>@@PBD@?$basic_string@DU?$char_traits@D@std@@V?$allocator@D@2@@std@@AAEAAV01@IV<lambda_9366063389c5f42a00a5088cf24e69de>@@PBD@Z ; std::basic_string<char,std::char_traits<char>,std::allocator<char> >::_Reallocate_for<<lambda_9366063389c5f42a00a5088cf24e69de>,char const *>
PUBLIC	??$_Construct_in_place@PADABQAD@std@@YAXAAPADABQAD@Z ; std::_Construct_in_place<char *,char * const &>
PUBLIC	??$_Deallocate@$07$0A@@std@@YAXPAXI@Z		; std::_Deallocate<8,0>
PUBLIC	??$_Allocate@$07U_Default_allocate_traits@std@@$0A@@std@@YAPAXI@Z ; std::_Allocate<8,std::_Default_allocate_traits,0>
PUBLIC	??$_Allocate_manually_vector_aligned@U_Default_allocate_traits@std@@@std@@YAPAXI@Z ; std::_Allocate_manually_vector_aligned<std::_Default_allocate_traits>
PUBLIC	??$_Resize@U_Value_init_tag@std@@@?$vector@UTGradientColor@@V?$allocator@UTGradientColor@@@std@@@std@@AAEXIABU_Value_init_tag@1@@Z ; std::vector<TGradientColor,std::allocator<TGradientColor> >::_Resize<std::_Value_init_tag>
PUBLIC	??$_Destroy_range@V?$allocator@UTGradientColor@@@std@@@std@@YAXPAUTGradientColor@@QAU1@AAV?$allocator@UTGradientColor@@@0@@Z ; std::_Destroy_range<std::allocator<TGradientColor> >
PUBLIC	??$_Resize_reallocate@U_Value_init_tag@std@@@?$vector@UTGradientColor@@V?$allocator@UTGradientColor@@@std@@@std@@AAEXIABU_Value_init_tag@1@@Z ; std::vector<TGradientColor,std::allocator<TGradientColor> >::_Resize_reallocate<std::_Value_init_tag>
PUBLIC	??$_Uninitialized_value_construct_n@V?$allocator@UTGradientColor@@@std@@@std@@YAPAUTGradientColor@@PAU1@IAAV?$allocator@UTGradientColor@@@0@@Z ; std::_Uninitialized_value_construct_n<std::allocator<TGradientColor> >
PUBLIC	??1?$_Uninitialized_backout_al@V?$allocator@UTGradientColor@@@std@@@std@@QAE@XZ ; std::_Uninitialized_backout_al<std::allocator<TGradientColor> >::~_Uninitialized_backout_al<std::allocator<TGradientColor> >
PUBLIC	??$_Emplace_back@$$V@?$_Uninitialized_backout_al@V?$allocator@UTGradientColor@@@std@@@std@@QAEXXZ ; std::_Uninitialized_backout_al<std::allocator<TGradientColor> >::_Emplace_back<>
PUBLIC	??$_Uninitialized_move@PAUTGradientColor@@V?$allocator@UTGradientColor@@@std@@@std@@YAPAUTGradientColor@@QAU1@0PAU1@AAV?$allocator@UTGradientColor@@@0@@Z ; std::_Uninitialized_move<TGradientColor *,std::allocator<TGradientColor> >
PUBLIC	??_7exception@std@@6B@				; std::exception::`vftable'
PUBLIC	??_C@_0BC@EOODALEL@Unknown?5exception@		; `string'
PUBLIC	??_7bad_alloc@std@@6B@				; std::bad_alloc::`vftable'
PUBLIC	??_7bad_array_new_length@std@@6B@		; std::bad_array_new_length::`vftable'
PUBLIC	??_C@_0BF@KINCDENJ@bad?5array?5new?5length@	; `string'
PUBLIC	__TI3?AVbad_array_new_length@std@@
PUBLIC	__CTA3?AVbad_array_new_length@std@@
PUBLIC	??_R0?AVbad_array_new_length@std@@@8		; std::bad_array_new_length `RTTI Type Descriptor'
PUBLIC	__CT??_R0?AVbad_array_new_length@std@@@8??0bad_array_new_length@std@@QAE@ABV01@@Z12
PUBLIC	??_R0?AVbad_alloc@std@@@8			; std::bad_alloc `RTTI Type Descriptor'
PUBLIC	__CT??_R0?AVbad_alloc@std@@@8??0bad_alloc@std@@QAE@ABV01@@Z12
PUBLIC	??_R0?AVexception@std@@@8			; std::exception `RTTI Type Descriptor'
PUBLIC	__CT??_R0?AVexception@std@@@8??0exception@std@@QAE@ABV01@@Z12
PUBLIC	??_C@_0BA@JFNIOLAK@string?5too?5long@		; `string'
PUBLIC	??_C@_00CNPNBAHC@@				; `string'
PUBLIC	??_7CEaseOutInterpolation@@6B@			; CEaseOutInterpolation::`vftable'
PUBLIC	??_R4exception@std@@6B@				; std::exception::`RTTI Complete Object Locator'
PUBLIC	??_R3exception@std@@8				; std::exception::`RTTI Class Hierarchy Descriptor'
PUBLIC	??_R2exception@std@@8				; std::exception::`RTTI Base Class Array'
PUBLIC	??_R1A@?0A@EA@exception@std@@8			; std::exception::`RTTI Base Class Descriptor at (0,-1,0,64)'
PUBLIC	??_R4bad_alloc@std@@6B@				; std::bad_alloc::`RTTI Complete Object Locator'
PUBLIC	??_R3bad_alloc@std@@8				; std::bad_alloc::`RTTI Class Hierarchy Descriptor'
PUBLIC	??_R2bad_alloc@std@@8				; std::bad_alloc::`RTTI Base Class Array'
PUBLIC	??_R1A@?0A@EA@bad_alloc@std@@8			; std::bad_alloc::`RTTI Base Class Descriptor at (0,-1,0,64)'
PUBLIC	??_R4bad_array_new_length@std@@6B@		; std::bad_array_new_length::`RTTI Complete Object Locator'
PUBLIC	??_R3bad_array_new_length@std@@8		; std::bad_array_new_length::`RTTI Class Hierarchy Descriptor'
PUBLIC	??_R2bad_array_new_length@std@@8		; std::bad_array_new_length::`RTTI Base Class Array'
PUBLIC	??_R1A@?0A@EA@bad_array_new_length@std@@8	; std::bad_array_new_length::`RTTI Base Class Descriptor at (0,-1,0,64)'
PUBLIC	??_C@_08FINKBBAF@reserved@			; `string'
PUBLIC	??_C@_0BB@GPOHGDLH@directionallight@		; `string'
PUBLIC	??_C@_09HPKLLIJF@direction@			; `string'
PUBLIC	??_C@_0L@EGCKCJDC@background@			; `string'
PUBLIC	??_C@_06OFNJOBDK@enable@			; `string'
PUBLIC	??_C@_07KFBPAAO@diffuse@			; `string'
PUBLIC	??_C@_07LIABELBC@ambient@			; `string'
PUBLIC	??_C@_09MNKJOHH@character@			; `string'
PUBLIC	??_C@_08KNOEMJMM@material@			; `string'
PUBLIC	??_C@_08GHNOEFBP@emissive@			; `string'
PUBLIC	??_C@_03KJMBPJEB@fog@				; `string'
PUBLIC	??_C@_09BCCBMEKP@isdensity@			; `string'
PUBLIC	??_C@_0N@HJCBLCNJ@neardistance@			; `string'
PUBLIC	??_C@_0M@IOALDGCK@fardistance@			; `string'
PUBLIC	??_C@_05PEENBMOG@color@				; `string'
PUBLIC	??_C@_06EOIELIPE@filter@			; `string'
PUBLIC	??_C@_08BJBIEDIL@alphasrc@			; `string'
PUBLIC	??_C@_09DCAIHJNN@alphadest@			; `string'
PUBLIC	??_C@_06BMKANHHL@skybox@			; `string'
PUBLIC	??_C@_0BD@MANDHJLJ@btexturerendermode@		; `string'
PUBLIC	??_C@_05MHMEBBGO@scale@				; `string'
PUBLIC	??_C@_0BD@JOBCGNII@gradientlevelupper@		; `string'
PUBLIC	??_C@_0BD@MFKMAGDB@gradientlevellower@		; `string'
PUBLIC	??_C@_0BC@MAAIOOFC@frontfacefilename@		; `string'
PUBLIC	??_C@_0BB@HMLADBDH@backfacefilename@		; `string'
PUBLIC	??_C@_0BB@OKAELDDH@leftfacefilename@		; `string'
PUBLIC	??_C@_0BC@BGDBKDJG@rightfacefilename@		; `string'
PUBLIC	??_C@_0BA@ODMABPL@topfacefilename@		; `string'
PUBLIC	??_C@_0BD@PAPHNGLP@bottomfacefilename@		; `string'
PUBLIC	??_C@_0L@HPPKMJB@cloudscale@			; `string'
PUBLIC	??_C@_0M@JAHFJEDG@cloudheight@			; `string'
PUBLIC	??_C@_0BC@BBJMDDCO@cloudtexturescale@		; `string'
PUBLIC	??_C@_0L@LJBHNMFK@cloudspeed@			; `string'
PUBLIC	??_C@_0BF@KCIBJMLM@cloudtexturefilename@	; `string'
PUBLIC	??_C@_0L@DEHGKBBJ@cloudcolor@			; `string'
PUBLIC	??_C@_08OAOFNDBJ@gradient@			; `string'
PUBLIC	??_C@_09JHLBAKBC@lensflare@			; `string'
PUBLIC	??_C@_0BA@KOCEAOMM@brightnesscolor@		; `string'
PUBLIC	??_C@_0O@GEBPBGOO@maxbrightness@		; `string'
PUBLIC	??_C@_0BA@GMIEGFJG@mainflareenable@		; `string'
PUBLIC	??_C@_0BJ@EAALILHN@mainflaretexturefilename@	; `string'
PUBLIC	??_C@_0O@JBMODIIN@mainflaresize@		; `string'
PUBLIC	??_C@_0BJ@DHFDPMIM@invalid?5vector?5subscript@	; `string'
PUBLIC	??_C@_0BA@FOIKENOD@vector?5too?5long@		; `string'
PUBLIC	??_R4CEaseOutInterpolation@@6B@			; CEaseOutInterpolation::`RTTI Complete Object Locator'
PUBLIC	??_R0?AVCEaseOutInterpolation@@@8		; CEaseOutInterpolation `RTTI Type Descriptor'
PUBLIC	??_R3CEaseOutInterpolation@@8			; CEaseOutInterpolation::`RTTI Class Hierarchy Descriptor'
PUBLIC	??_R2CEaseOutInterpolation@@8			; CEaseOutInterpolation::`RTTI Base Class Array'
PUBLIC	??_R1A@?0A@EA@CEaseOutInterpolation@@8		; CEaseOutInterpolation::`RTTI Base Class Descriptor at (0,-1,0,64)'
PUBLIC	__real@00000000
PUBLIC	__real@34000000
PUBLIC	__real@3a83126f
PUBLIC	__real@3c23d70a
PUBLIC	__real@3dcccccd
PUBLIC	__real@3e4ccccd
PUBLIC	__real@3e99999a
PUBLIC	__real@3f000000
PUBLIC	__real@3f4ccccd
PUBLIC	__real@3f800000
PUBLIC	__real@40000000
PUBLIC	__real@40800000
PUBLIC	__real@42480000
PUBLIC	__real@455ac000
PUBLIC	__real@46480000
PUBLIC	__real@468c0000
PUBLIC	__real@46ea6000
PUBLIC	__real@48435000
PUBLIC	__real@bf000000
EXTRN	??2@YAPAXI@Z:PROC				; operator new
EXTRN	??3@YAXPAXI@Z:PROC				; operator delete
EXTRN	__invalid_parameter_noinfo_noreturn:PROC
EXTRN	_memcpy:PROC
EXTRN	_memmove:PROC
EXTRN	_strlen:PROC
EXTRN	_atof:PROC
EXTRN	_fabs:PROC
EXTRN	_sqrt:PROC
EXTRN	___std_exception_copy:PROC
EXTRN	___std_exception_destroy:PROC
EXTRN	??_Eexception@std@@UAEPAXI@Z:PROC		; std::exception::`vector deleting destructor'
EXTRN	??_Ebad_alloc@std@@UAEPAXI@Z:PROC		; std::bad_alloc::`vector deleting destructor'
EXTRN	??_Ebad_array_new_length@std@@UAEPAXI@Z:PROC	; std::bad_array_new_length::`vector deleting destructor'
EXTRN	?_Xlength_error@std@@YAXPBD@Z:PROC		; std::_Xlength_error
EXTRN	?_Xout_of_range@std@@YAXPBD@Z:PROC		; std::_Xout_of_range
EXTRN	??0CTextFileLoader@@QAE@XZ:PROC			; CTextFileLoader::CTextFileLoader
EXTRN	??1CTextFileLoader@@UAE@XZ:PROC			; CTextFileLoader::~CTextFileLoader
EXTRN	?Load@CTextFileLoader@@QAE_NPBD@Z:PROC		; CTextFileLoader::Load
EXTRN	?SetTop@CTextFileLoader@@QAEXXZ:PROC		; CTextFileLoader::SetTop
EXTRN	?SetChildNode@CTextFileLoader@@QAEHPBD@Z:PROC	; CTextFileLoader::SetChildNode
EXTRN	?SetParentNode@CTextFileLoader@@QAEHXZ:PROC	; CTextFileLoader::SetParentNode
EXTRN	?GetTokenVector@CTextFileLoader@@QAEHABV?$basic_string@DU?$char_traits@D@std@@V?$allocator@D@2@@std@@PAPAV?$vector@V?$basic_string@DU?$char_traits@D@std@@V?$allocator@D@2@@std@@V?$allocator@V?$basic_string@DU?$char_traits@D@std@@V?$allocator@D@2@@std@@@2@@3@@Z:PROC ; CTextFileLoader::GetTokenVector
EXTRN	?GetTokenBoolean@CTextFileLoader@@QAEHABV?$basic_string@DU?$char_traits@D@std@@V?$allocator@D@2@@std@@PAH@Z:PROC ; CTextFileLoader::GetTokenBoolean
EXTRN	?GetTokenByte@CTextFileLoader@@QAEHABV?$basic_string@DU?$char_traits@D@std@@V?$allocator@D@2@@std@@PAE@Z:PROC ; CTextFileLoader::GetTokenByte
EXTRN	?GetTokenFloat@CTextFileLoader@@QAEHABV?$basic_string@DU?$char_traits@D@std@@V?$allocator@D@2@@std@@PAM@Z:PROC ; CTextFileLoader::GetTokenFloat
EXTRN	?GetTokenVector2@CTextFileLoader@@QAEHABV?$basic_string@DU?$char_traits@D@std@@V?$allocator@D@2@@std@@PAUD3DXVECTOR2@@@Z:PROC ; CTextFileLoader::GetTokenVector2
EXTRN	?GetTokenVector3@CTextFileLoader@@QAEHABV?$basic_string@DU?$char_traits@D@std@@V?$allocator@D@2@@std@@PAUD3DXVECTOR3@@@Z:PROC ; CTextFileLoader::GetTokenVector3
EXTRN	?GetTokenDirection@CTextFileLoader@@QAEHABV?$basic_string@DU?$char_traits@D@std@@V?$allocator@D@2@@std@@PAU_D3DVECTOR@@@Z:PROC ; CTextFileLoader::GetTokenDirection
EXTRN	?GetTokenColor@CTextFileLoader@@QAEHABV?$basic_string@DU?$char_traits@D@std@@V?$allocator@D@2@@std@@PAUD3DXCOLOR@@@Z:PROC ; CTextFileLoader::GetTokenColor
EXTRN	?GetTokenColor@CTextFileLoader@@QAEHABV?$basic_string@DU?$char_traits@D@std@@V?$allocator@D@2@@std@@PAU_D3DCOLORVALUE@@@Z:PROC ; CTextFileLoader::GetTokenColor
EXTRN	?GetTokenString@CTextFileLoader@@QAEHABV?$basic_string@DU?$char_traits@D@std@@V?$allocator@D@2@@std@@PAV23@@Z:PROC ; CTextFileLoader::GetTokenString
EXTRN	??_ECEaseOutInterpolation@@UAEPAXI@Z:PROC	; CEaseOutInterpolation::`vector deleting destructor'
EXTRN	@__security_check_cookie@4:PROC
EXTRN	__CxxThrowException@8:PROC
EXTRN	___CxxFrameHandler3:PROC
EXTRN	??_7type_info@@6B@:QWORD			; type_info::`vftable'
EXTRN	___security_cookie:DWORD
EXTRN	__fltused:DWORD
;	COMDAT __real@bf000000
CONST	SEGMENT
__real@bf000000 DD 0bf000000r			; -0.5
CONST	ENDS
;	COMDAT __real@48435000
CONST	SEGMENT
__real@48435000 DD 048435000r			; 200000
CONST	ENDS
;	COMDAT __real@46ea6000
CONST	SEGMENT
__real@46ea6000 DD 046ea6000r			; 30000
CONST	ENDS
;	COMDAT __real@468c0000
CONST	SEGMENT
__real@468c0000 DD 0468c0000r			; 17920
CONST	ENDS
;	COMDAT __real@46480000
CONST	SEGMENT
__real@46480000 DD 046480000r			; 12800
CONST	ENDS
;	COMDAT __real@455ac000
CONST	SEGMENT
__real@455ac000 DD 0455ac000r			; 3500
CONST	ENDS
;	COMDAT __real@42480000
CONST	SEGMENT
__real@42480000 DD 042480000r			; 50
CONST	ENDS
;	COMDAT __real@40800000
CONST	SEGMENT
__real@40800000 DD 040800000r			; 4
CONST	ENDS
;	COMDAT __real@40000000
CONST	SEGMENT
__real@40000000 DD 040000000r			; 2
CONST	ENDS
;	COMDAT __real@3f800000
CONST	SEGMENT
__real@3f800000 DD 03f800000r			; 1
CONST	ENDS
;	COMDAT __real@3f4ccccd
CONST	SEGMENT
__real@3f4ccccd DD 03f4ccccdr			; 0.8
CONST	ENDS
;	COMDAT __real@3f000000
CONST	SEGMENT
__real@3f000000 DD 03f000000r			; 0.5
CONST	ENDS
;	COMDAT __real@3e99999a
CONST	SEGMENT
__real@3e99999a DD 03e99999ar			; 0.3
CONST	ENDS
;	COMDAT __real@3e4ccccd
CONST	SEGMENT
__real@3e4ccccd DD 03e4ccccdr			; 0.2
CONST	ENDS
;	COMDAT __real@3dcccccd
CONST	SEGMENT
__real@3dcccccd DD 03dcccccdr			; 0.1
CONST	ENDS
;	COMDAT __real@3c23d70a
CONST	SEGMENT
__real@3c23d70a DD 03c23d70ar			; 0.01
CONST	ENDS
;	COMDAT __real@3a83126f
CONST	SEGMENT
__real@3a83126f DD 03a83126fr			; 0.001
CONST	ENDS
;	COMDAT __real@34000000
CONST	SEGMENT
__real@34000000 DD 034000000r			; 1.19209e-07
CONST	ENDS
;	COMDAT __real@00000000
CONST	SEGMENT
__real@00000000 DD 000000000r			; 0
CONST	ENDS
;	COMDAT ??_R1A@?0A@EA@CEaseOutInterpolation@@8
rdata$r	SEGMENT
??_R1A@?0A@EA@CEaseOutInterpolation@@8 DD FLAT:??_R0?AVCEaseOutInterpolation@@@8 ; CEaseOutInterpolation::`RTTI Base Class Descriptor at (0,-1,0,64)'
	DD	00H
	DD	00H
	DD	0ffffffffH
	DD	00H
	DD	040H
	DD	FLAT:??_R3CEaseOutInterpolation@@8
rdata$r	ENDS
;	COMDAT ??_R2CEaseOutInterpolation@@8
rdata$r	SEGMENT
??_R2CEaseOutInterpolation@@8 DD FLAT:??_R1A@?0A@EA@CEaseOutInterpolation@@8 ; CEaseOutInterpolation::`RTTI Base Class Array'
rdata$r	ENDS
;	COMDAT ??_R3CEaseOutInterpolation@@8
rdata$r	SEGMENT
??_R3CEaseOutInterpolation@@8 DD 00H			; CEaseOutInterpolation::`RTTI Class Hierarchy Descriptor'
	DD	00H
	DD	01H
	DD	FLAT:??_R2CEaseOutInterpolation@@8
rdata$r	ENDS
;	COMDAT ??_R0?AVCEaseOutInterpolation@@@8
data$rs	SEGMENT
??_R0?AVCEaseOutInterpolation@@@8 DD FLAT:??_7type_info@@6B@ ; CEaseOutInterpolation `RTTI Type Descriptor'
	DD	00H
	DB	'.?AVCEaseOutInterpolation@@', 00H
data$rs	ENDS
;	COMDAT ??_R4CEaseOutInterpolation@@6B@
rdata$r	SEGMENT
??_R4CEaseOutInterpolation@@6B@ DD 00H			; CEaseOutInterpolation::`RTTI Complete Object Locator'
	DD	00H
	DD	00H
	DD	FLAT:??_R0?AVCEaseOutInterpolation@@@8
	DD	FLAT:??_R3CEaseOutInterpolation@@8
rdata$r	ENDS
;	COMDAT ??_C@_0BA@FOIKENOD@vector?5too?5long@
CONST	SEGMENT
??_C@_0BA@FOIKENOD@vector?5too?5long@ DB 'vector too long', 00H ; `string'
CONST	ENDS
;	COMDAT ??_C@_0BJ@DHFDPMIM@invalid?5vector?5subscript@
CONST	SEGMENT
??_C@_0BJ@DHFDPMIM@invalid?5vector?5subscript@ DB 'invalid vector subscri'
	DB	'pt', 00H					; `string'
CONST	ENDS
;	COMDAT ??_C@_0O@JBMODIIN@mainflaresize@
CONST	SEGMENT
??_C@_0O@JBMODIIN@mainflaresize@ DB 'mainflaresize', 00H ; `string'
CONST	ENDS
;	COMDAT ??_C@_0BJ@EAALILHN@mainflaretexturefilename@
CONST	SEGMENT
??_C@_0BJ@EAALILHN@mainflaretexturefilename@ DB 'mainflaretexturefilename'
	DB	00H						; `string'
CONST	ENDS
;	COMDAT ??_C@_0BA@GMIEGFJG@mainflareenable@
CONST	SEGMENT
??_C@_0BA@GMIEGFJG@mainflareenable@ DB 'mainflareenable', 00H ; `string'
CONST	ENDS
;	COMDAT ??_C@_0O@GEBPBGOO@maxbrightness@
CONST	SEGMENT
??_C@_0O@GEBPBGOO@maxbrightness@ DB 'maxbrightness', 00H ; `string'
CONST	ENDS
;	COMDAT ??_C@_0BA@KOCEAOMM@brightnesscolor@
CONST	SEGMENT
??_C@_0BA@KOCEAOMM@brightnesscolor@ DB 'brightnesscolor', 00H ; `string'
CONST	ENDS
;	COMDAT ??_C@_09JHLBAKBC@lensflare@
CONST	SEGMENT
??_C@_09JHLBAKBC@lensflare@ DB 'lensflare', 00H		; `string'
CONST	ENDS
;	COMDAT ??_C@_08OAOFNDBJ@gradient@
CONST	SEGMENT
??_C@_08OAOFNDBJ@gradient@ DB 'gradient', 00H		; `string'
CONST	ENDS
;	COMDAT ??_C@_0L@DEHGKBBJ@cloudcolor@
CONST	SEGMENT
??_C@_0L@DEHGKBBJ@cloudcolor@ DB 'cloudcolor', 00H	; `string'
CONST	ENDS
;	COMDAT ??_C@_0BF@KCIBJMLM@cloudtexturefilename@
CONST	SEGMENT
??_C@_0BF@KCIBJMLM@cloudtexturefilename@ DB 'cloudtexturefilename', 00H ; `string'
CONST	ENDS
;	COMDAT ??_C@_0L@LJBHNMFK@cloudspeed@
CONST	SEGMENT
??_C@_0L@LJBHNMFK@cloudspeed@ DB 'cloudspeed', 00H	; `string'
CONST	ENDS
;	COMDAT ??_C@_0BC@BBJMDDCO@cloudtexturescale@
CONST	SEGMENT
??_C@_0BC@BBJMDDCO@cloudtexturescale@ DB 'cloudtexturescale', 00H ; `string'
CONST	ENDS
;	COMDAT ??_C@_0M@JAHFJEDG@cloudheight@
CONST	SEGMENT
??_C@_0M@JAHFJEDG@cloudheight@ DB 'cloudheight', 00H	; `string'
CONST	ENDS
;	COMDAT ??_C@_0L@HPPKMJB@cloudscale@
CONST	SEGMENT
??_C@_0L@HPPKMJB@cloudscale@ DB 'cloudscale', 00H	; `string'
CONST	ENDS
;	COMDAT ??_C@_0BD@PAPHNGLP@bottomfacefilename@
CONST	SEGMENT
??_C@_0BD@PAPHNGLP@bottomfacefilename@ DB 'bottomfacefilename', 00H ; `string'
CONST	ENDS
;	COMDAT ??_C@_0BA@ODMABPL@topfacefilename@
CONST	SEGMENT
??_C@_0BA@ODMABPL@topfacefilename@ DB 'topfacefilename', 00H ; `string'
CONST	ENDS
;	COMDAT ??_C@_0BC@BGDBKDJG@rightfacefilename@
CONST	SEGMENT
??_C@_0BC@BGDBKDJG@rightfacefilename@ DB 'rightfacefilename', 00H ; `string'
CONST	ENDS
;	COMDAT ??_C@_0BB@OKAELDDH@leftfacefilename@
CONST	SEGMENT
??_C@_0BB@OKAELDDH@leftfacefilename@ DB 'leftfacefilename', 00H ; `string'
CONST	ENDS
;	COMDAT ??_C@_0BB@HMLADBDH@backfacefilename@
CONST	SEGMENT
??_C@_0BB@HMLADBDH@backfacefilename@ DB 'backfacefilename', 00H ; `string'
CONST	ENDS
;	COMDAT ??_C@_0BC@MAAIOOFC@frontfacefilename@
CONST	SEGMENT
??_C@_0BC@MAAIOOFC@frontfacefilename@ DB 'frontfacefilename', 00H ; `string'
CONST	ENDS
;	COMDAT ??_C@_0BD@MFKMAGDB@gradientlevellower@
CONST	SEGMENT
??_C@_0BD@MFKMAGDB@gradientlevellower@ DB 'gradientlevellower', 00H ; `string'
CONST	ENDS
;	COMDAT ??_C@_0BD@JOBCGNII@gradientlevelupper@
CONST	SEGMENT
??_C@_0BD@JOBCGNII@gradientlevelupper@ DB 'gradientlevelupper', 00H ; `string'
CONST	ENDS
;	COMDAT ??_C@_05MHMEBBGO@scale@
CONST	SEGMENT
??_C@_05MHMEBBGO@scale@ DB 'scale', 00H			; `string'
CONST	ENDS
;	COMDAT ??_C@_0BD@MANDHJLJ@btexturerendermode@
CONST	SEGMENT
??_C@_0BD@MANDHJLJ@btexturerendermode@ DB 'btexturerendermode', 00H ; `string'
CONST	ENDS
;	COMDAT ??_C@_06BMKANHHL@skybox@
CONST	SEGMENT
??_C@_06BMKANHHL@skybox@ DB 'skybox', 00H		; `string'
CONST	ENDS
;	COMDAT ??_C@_09DCAIHJNN@alphadest@
CONST	SEGMENT
??_C@_09DCAIHJNN@alphadest@ DB 'alphadest', 00H		; `string'
CONST	ENDS
;	COMDAT ??_C@_08BJBIEDIL@alphasrc@
CONST	SEGMENT
??_C@_08BJBIEDIL@alphasrc@ DB 'alphasrc', 00H		; `string'
CONST	ENDS
;	COMDAT ??_C@_06EOIELIPE@filter@
CONST	SEGMENT
??_C@_06EOIELIPE@filter@ DB 'filter', 00H		; `string'
CONST	ENDS
;	COMDAT ??_C@_05PEENBMOG@color@
CONST	SEGMENT
??_C@_05PEENBMOG@color@ DB 'color', 00H			; `string'
CONST	ENDS
;	COMDAT ??_C@_0M@IOALDGCK@fardistance@
CONST	SEGMENT
??_C@_0M@IOALDGCK@fardistance@ DB 'fardistance', 00H	; `string'
CONST	ENDS
;	COMDAT ??_C@_0N@HJCBLCNJ@neardistance@
CONST	SEGMENT
??_C@_0N@HJCBLCNJ@neardistance@ DB 'neardistance', 00H	; `string'
CONST	ENDS
;	COMDAT ??_C@_09BCCBMEKP@isdensity@
CONST	SEGMENT
??_C@_09BCCBMEKP@isdensity@ DB 'isdensity', 00H		; `string'
CONST	ENDS
;	COMDAT ??_C@_03KJMBPJEB@fog@
CONST	SEGMENT
??_C@_03KJMBPJEB@fog@ DB 'fog', 00H			; `string'
CONST	ENDS
;	COMDAT ??_C@_08GHNOEFBP@emissive@
CONST	SEGMENT
??_C@_08GHNOEFBP@emissive@ DB 'emissive', 00H		; `string'
CONST	ENDS
;	COMDAT ??_C@_08KNOEMJMM@material@
CONST	SEGMENT
??_C@_08KNOEMJMM@material@ DB 'material', 00H		; `string'
CONST	ENDS
;	COMDAT ??_C@_09MNKJOHH@character@
CONST	SEGMENT
??_C@_09MNKJOHH@character@ DB 'character', 00H		; `string'
CONST	ENDS
;	COMDAT ??_C@_07LIABELBC@ambient@
CONST	SEGMENT
??_C@_07LIABELBC@ambient@ DB 'ambient', 00H		; `string'
CONST	ENDS
;	COMDAT ??_C@_07KFBPAAO@diffuse@
CONST	SEGMENT
??_C@_07KFBPAAO@diffuse@ DB 'diffuse', 00H		; `string'
CONST	ENDS
;	COMDAT ??_C@_06OFNJOBDK@enable@
CONST	SEGMENT
??_C@_06OFNJOBDK@enable@ DB 'enable', 00H		; `string'
CONST	ENDS
;	COMDAT ??_C@_0L@EGCKCJDC@background@
CONST	SEGMENT
??_C@_0L@EGCKCJDC@background@ DB 'background', 00H	; `string'
CONST	ENDS
;	COMDAT ??_C@_09HPKLLIJF@direction@
CONST	SEGMENT
??_C@_09HPKLLIJF@direction@ DB 'direction', 00H		; `string'
CONST	ENDS
;	COMDAT ??_C@_0BB@GPOHGDLH@directionallight@
CONST	SEGMENT
??_C@_0BB@GPOHGDLH@directionallight@ DB 'directionallight', 00H ; `string'
CONST	ENDS
;	COMDAT ??_C@_08FINKBBAF@reserved@
CONST	SEGMENT
??_C@_08FINKBBAF@reserved@ DB 'reserved', 00H		; `string'
CONST	ENDS
;	COMDAT ??_R1A@?0A@EA@bad_array_new_length@std@@8
rdata$r	SEGMENT
??_R1A@?0A@EA@bad_array_new_length@std@@8 DD FLAT:??_R0?AVbad_array_new_length@std@@@8 ; std::bad_array_new_length::`RTTI Base Class Descriptor at (0,-1,0,64)'
	DD	02H
	DD	00H
	DD	0ffffffffH
	DD	00H
	DD	040H
	DD	FLAT:??_R3bad_array_new_length@std@@8
rdata$r	ENDS
;	COMDAT ??_R2bad_array_new_length@std@@8
rdata$r	SEGMENT
??_R2bad_array_new_length@std@@8 DD FLAT:??_R1A@?0A@EA@bad_array_new_length@std@@8 ; std::bad_array_new_length::`RTTI Base Class Array'
	DD	FLAT:??_R1A@?0A@EA@bad_alloc@std@@8
	DD	FLAT:??_R1A@?0A@EA@exception@std@@8
rdata$r	ENDS
;	COMDAT ??_R3bad_array_new_length@std@@8
rdata$r	SEGMENT
??_R3bad_array_new_length@std@@8 DD 00H			; std::bad_array_new_length::`RTTI Class Hierarchy Descriptor'
	DD	00H
	DD	03H
	DD	FLAT:??_R2bad_array_new_length@std@@8
rdata$r	ENDS
;	COMDAT ??_R4bad_array_new_length@std@@6B@
rdata$r	SEGMENT
??_R4bad_array_new_length@std@@6B@ DD 00H		; std::bad_array_new_length::`RTTI Complete Object Locator'
	DD	00H
	DD	00H
	DD	FLAT:??_R0?AVbad_array_new_length@std@@@8
	DD	FLAT:??_R3bad_array_new_length@std@@8
rdata$r	ENDS
;	COMDAT ??_R1A@?0A@EA@bad_alloc@std@@8
rdata$r	SEGMENT
??_R1A@?0A@EA@bad_alloc@std@@8 DD FLAT:??_R0?AVbad_alloc@std@@@8 ; std::bad_alloc::`RTTI Base Class Descriptor at (0,-1,0,64)'
	DD	01H
	DD	00H
	DD	0ffffffffH
	DD	00H
	DD	040H
	DD	FLAT:??_R3bad_alloc@std@@8
rdata$r	ENDS
;	COMDAT ??_R2bad_alloc@std@@8
rdata$r	SEGMENT
??_R2bad_alloc@std@@8 DD FLAT:??_R1A@?0A@EA@bad_alloc@std@@8 ; std::bad_alloc::`RTTI Base Class Array'
	DD	FLAT:??_R1A@?0A@EA@exception@std@@8
rdata$r	ENDS
;	COMDAT ??_R3bad_alloc@std@@8
rdata$r	SEGMENT
??_R3bad_alloc@std@@8 DD 00H				; std::bad_alloc::`RTTI Class Hierarchy Descriptor'
	DD	00H
	DD	02H
	DD	FLAT:??_R2bad_alloc@std@@8
rdata$r	ENDS
;	COMDAT ??_R4bad_alloc@std@@6B@
rdata$r	SEGMENT
??_R4bad_alloc@std@@6B@ DD 00H				; std::bad_alloc::`RTTI Complete Object Locator'
	DD	00H
	DD	00H
	DD	FLAT:??_R0?AVbad_alloc@std@@@8
	DD	FLAT:??_R3bad_alloc@std@@8
rdata$r	ENDS
;	COMDAT ??_R1A@?0A@EA@exception@std@@8
rdata$r	SEGMENT
??_R1A@?0A@EA@exception@std@@8 DD FLAT:??_R0?AVexception@std@@@8 ; std::exception::`RTTI Base Class Descriptor at (0,-1,0,64)'
	DD	00H
	DD	00H
	DD	0ffffffffH
	DD	00H
	DD	040H
	DD	FLAT:??_R3exception@std@@8
rdata$r	ENDS
;	COMDAT ??_R2exception@std@@8
rdata$r	SEGMENT
??_R2exception@std@@8 DD FLAT:??_R1A@?0A@EA@exception@std@@8 ; std::exception::`RTTI Base Class Array'
rdata$r	ENDS
;	COMDAT ??_R3exception@std@@8
rdata$r	SEGMENT
??_R3exception@std@@8 DD 00H				; std::exception::`RTTI Class Hierarchy Descriptor'
	DD	00H
	DD	01H
	DD	FLAT:??_R2exception@std@@8
rdata$r	ENDS
;	COMDAT ??_R4exception@std@@6B@
rdata$r	SEGMENT
??_R4exception@std@@6B@ DD 00H				; std::exception::`RTTI Complete Object Locator'
	DD	00H
	DD	00H
	DD	FLAT:??_R0?AVexception@std@@@8
	DD	FLAT:??_R3exception@std@@8
rdata$r	ENDS
;	COMDAT ??_7CEaseOutInterpolation@@6B@
CONST	SEGMENT
??_7CEaseOutInterpolation@@6B@ DD FLAT:??_R4CEaseOutInterpolation@@6B@ ; CEaseOutInterpolation::`vftable'
	DD	FLAT:??_ECEaseOutInterpolation@@UAEPAXI@Z
CONST	ENDS
;	COMDAT ??_C@_00CNPNBAHC@@
CONST	SEGMENT
??_C@_00CNPNBAHC@@ DB 00H				; `string'
CONST	ENDS
;	COMDAT ??_C@_0BA@JFNIOLAK@string?5too?5long@
CONST	SEGMENT
??_C@_0BA@JFNIOLAK@string?5too?5long@ DB 'string too long', 00H ; `string'
CONST	ENDS
;	COMDAT __CT??_R0?AVexception@std@@@8??0exception@std@@QAE@ABV01@@Z12
xdata$x	SEGMENT
__CT??_R0?AVexception@std@@@8??0exception@std@@QAE@ABV01@@Z12 DD 00H
	DD	FLAT:??_R0?AVexception@std@@@8
	DD	00H
	DD	0ffffffffH
	ORG $+4
	DD	0cH
	DD	FLAT:??0exception@std@@QAE@ABV01@@Z
xdata$x	ENDS
;	COMDAT ??_R0?AVexception@std@@@8
data$r	SEGMENT
??_R0?AVexception@std@@@8 DD FLAT:??_7type_info@@6B@	; std::exception `RTTI Type Descriptor'
	DD	00H
	DB	'.?AVexception@std@@', 00H
data$r	ENDS
;	COMDAT __CT??_R0?AVbad_alloc@std@@@8??0bad_alloc@std@@QAE@ABV01@@Z12
xdata$x	SEGMENT
__CT??_R0?AVbad_alloc@std@@@8??0bad_alloc@std@@QAE@ABV01@@Z12 DD 010H
	DD	FLAT:??_R0?AVbad_alloc@std@@@8
	DD	00H
	DD	0ffffffffH
	ORG $+4
	DD	0cH
	DD	FLAT:??0bad_alloc@std@@QAE@ABV01@@Z
xdata$x	ENDS
;	COMDAT ??_R0?AVbad_alloc@std@@@8
data$r	SEGMENT
??_R0?AVbad_alloc@std@@@8 DD FLAT:??_7type_info@@6B@	; std::bad_alloc `RTTI Type Descriptor'
	DD	00H
	DB	'.?AVbad_alloc@std@@', 00H
data$r	ENDS
;	COMDAT __CT??_R0?AVbad_array_new_length@std@@@8??0bad_array_new_length@std@@QAE@ABV01@@Z12
xdata$x	SEGMENT
__CT??_R0?AVbad_array_new_length@std@@@8??0bad_array_new_length@std@@QAE@ABV01@@Z12 DD 00H
	DD	FLAT:??_R0?AVbad_array_new_length@std@@@8
	DD	00H
	DD	0ffffffffH
	ORG $+4
	DD	0cH
	DD	FLAT:??0bad_array_new_length@std@@QAE@ABV01@@Z
xdata$x	ENDS
;	COMDAT ??_R0?AVbad_array_new_length@std@@@8
data$r	SEGMENT
??_R0?AVbad_array_new_length@std@@@8 DD FLAT:??_7type_info@@6B@ ; std::bad_array_new_length `RTTI Type Descriptor'
	DD	00H
	DB	'.?AVbad_array_new_length@std@@', 00H
data$r	ENDS
;	COMDAT __CTA3?AVbad_array_new_length@std@@
xdata$x	SEGMENT
__CTA3?AVbad_array_new_length@std@@ DD 03H
	DD	FLAT:__CT??_R0?AVbad_array_new_length@std@@@8??0bad_array_new_length@std@@QAE@ABV01@@Z12
	DD	FLAT:__CT??_R0?AVbad_alloc@std@@@8??0bad_alloc@std@@QAE@ABV01@@Z12
	DD	FLAT:__CT??_R0?AVexception@std@@@8??0exception@std@@QAE@ABV01@@Z12
xdata$x	ENDS
;	COMDAT __TI3?AVbad_array_new_length@std@@
xdata$x	SEGMENT
__TI3?AVbad_array_new_length@std@@ DD 00H
	DD	FLAT:??1bad_array_new_length@std@@UAE@XZ
	DD	00H
	DD	FLAT:__CTA3?AVbad_array_new_length@std@@
xdata$x	ENDS
;	COMDAT ??_C@_0BF@KINCDENJ@bad?5array?5new?5length@
CONST	SEGMENT
??_C@_0BF@KINCDENJ@bad?5array?5new?5length@ DB 'bad array new length', 00H ; `string'
CONST	ENDS
;	COMDAT ??_7bad_array_new_length@std@@6B@
CONST	SEGMENT
??_7bad_array_new_length@std@@6B@ DD FLAT:??_R4bad_array_new_length@std@@6B@ ; std::bad_array_new_length::`vftable'
	DD	FLAT:??_Ebad_array_new_length@std@@UAEPAXI@Z
	DD	FLAT:?what@exception@std@@UBEPBDXZ
CONST	ENDS
;	COMDAT ??_7bad_alloc@std@@6B@
CONST	SEGMENT
??_7bad_alloc@std@@6B@ DD FLAT:??_R4bad_alloc@std@@6B@	; std::bad_alloc::`vftable'
	DD	FLAT:??_Ebad_alloc@std@@UAEPAXI@Z
	DD	FLAT:?what@exception@std@@UBEPBDXZ
CONST	ENDS
;	COMDAT ??_C@_0BC@EOODALEL@Unknown?5exception@
CONST	SEGMENT
??_C@_0BC@EOODALEL@Unknown?5exception@ DB 'Unknown exception', 00H ; `string'
CONST	ENDS
;	COMDAT ??_7exception@std@@6B@
CONST	SEGMENT
??_7exception@std@@6B@ DD FLAT:??_R4exception@std@@6B@	; std::exception::`vftable'
	DD	FLAT:??_Eexception@std@@UAEPAXI@Z
	DD	FLAT:?what@exception@std@@UBEPBDXZ
CONST	ENDS
;	COMDAT xdata$x
xdata$x	SEGMENT
__unwindtable$??$_Uninitialized_value_construct_n@V?$allocator@UTGradientColor@@@std@@@std@@YAPAUTGradientColor@@PAU1@IAAV?$allocator@UTGradientColor@@@0@@Z DD 0ffffffffH
	DD	FLAT:__unwindfunclet$??$_Uninitialized_value_construct_n@V?$allocator@UTGradientColor@@@std@@@std@@YAPAUTGradientColor@@PAU1@IAAV?$allocator@UTGradientColor@@@0@@Z$0
__ehfuncinfo$??$_Uninitialized_value_construct_n@V?$allocator@UTGradientColor@@@std@@@std@@YAPAUTGradientColor@@PAU1@IAAV?$allocator@UTGradientColor@@@0@@Z DD 019930522H
	DD	01H
	DD	FLAT:__unwindtable$??$_Uninitialized_value_construct_n@V?$allocator@UTGradientColor@@@std@@@std@@YAPAUTGradientColor@@PAU1@IAAV?$allocator@UTGradientColor@@@0@@Z
	DD	2 DUP(00H)
	DD	2 DUP(00H)
	DD	00H
	DD	01H
xdata$x	ENDS
;	COMDAT xdata$x
xdata$x	SEGMENT
__catchsym$??$_Resize_reallocate@U_Value_init_tag@std@@@?$vector@UTGradientColor@@V?$allocator@UTGradientColor@@@std@@@std@@AAEXIABU_Value_init_tag@1@@Z$26 DD 040H
	DD	00H
	DD	00H
	DD	FLAT:__catch$??$_Resize_reallocate@U_Value_init_tag@std@@@?$vector@UTGradientColor@@V?$allocator@UTGradientColor@@@std@@@std@@AAEXIABU_Value_init_tag@1@@Z$0
__unwindtable$??$_Resize_reallocate@U_Value_init_tag@std@@@?$vector@UTGradientColor@@V?$allocator@UTGradientColor@@@std@@@std@@AAEXIABU_Value_init_tag@1@@Z DD 0ffffffffH
	DD	00H
	DD	0ffffffffH
	DD	00H
__tryblocktable$??$_Resize_reallocate@U_Value_init_tag@std@@@?$vector@UTGradientColor@@V?$allocator@UTGradientColor@@@std@@@std@@AAEXIABU_Value_init_tag@1@@Z DD 00H
	DD	00H
	DD	01H
	DD	01H
	DD	FLAT:__catchsym$??$_Resize_reallocate@U_Value_init_tag@std@@@?$vector@UTGradientColor@@V?$allocator@UTGradientColor@@@std@@@std@@AAEXIABU_Value_init_tag@1@@Z$26
__ehfuncinfo$??$_Resize_reallocate@U_Value_init_tag@std@@@?$vector@UTGradientColor@@V?$allocator@UTGradientColor@@@std@@@std@@AAEXIABU_Value_init_tag@1@@Z DD 019930522H
	DD	02H
	DD	FLAT:__unwindtable$??$_Resize_reallocate@U_Value_init_tag@std@@@?$vector@UTGradientColor@@V?$allocator@UTGradientColor@@@std@@@std@@AAEXIABU_Value_init_tag@1@@Z
	DD	01H
	DD	FLAT:__tryblocktable$??$_Resize_reallocate@U_Value_init_tag@std@@@?$vector@UTGradientColor@@V?$allocator@UTGradientColor@@@std@@@std@@AAEXIABU_Value_init_tag@1@@Z
	DD	2 DUP(00H)
	DD	00H
	DD	01H
xdata$x	ENDS
;	COMDAT xdata$x
xdata$x	SEGMENT
__ehfuncinfo$??$_Deallocate@$07$0A@@std@@YAXPAXI@Z DD 019930522H
	DD	00H
	DD	00H
	DD	2 DUP(00H)
	DD	2 DUP(00H)
	DD	00H
	DD	05H
xdata$x	ENDS
;	COMDAT xdata$x
xdata$x	SEGMENT
__ehfuncinfo$?Environment_Load@@YA_NAAUSEnvironmentData@@PBD@Z DD 019930522H
	DD	02cH
	DD	FLAT:__unwindtable$?Environment_Load@@YA_NAAUSEnvironmentData@@PBD@Z
	DD	2 DUP(00H)
	DD	2 DUP(00H)
	DD	00H
	DD	01H
__unwindtable$?Environment_Load@@YA_NAAUSEnvironmentData@@PBD@Z DD 0ffffffffH
	DD	FLAT:__unwindfunclet$?Environment_Load@@YA_NAAUSEnvironmentData@@PBD@Z$0
	DD	00H
	DD	FLAT:__unwindfunclet$?Environment_Load@@YA_NAAUSEnvironmentData@@PBD@Z$1
	DD	00H
	DD	FLAT:__unwindfunclet$?Environment_Load@@YA_NAAUSEnvironmentData@@PBD@Z$2
	DD	00H
	DD	FLAT:__unwindfunclet$?Environment_Load@@YA_NAAUSEnvironmentData@@PBD@Z$3
	DD	00H
	DD	FLAT:__unwindfunclet$?Environment_Load@@YA_NAAUSEnvironmentData@@PBD@Z$4
	DD	00H
	DD	FLAT:__unwindfunclet$?Environment_Load@@YA_NAAUSEnvironmentData@@PBD@Z$5
	DD	00H
	DD	FLAT:__unwindfunclet$?Environment_Load@@YA_NAAUSEnvironmentData@@PBD@Z$6
	DD	00H
	DD	FLAT:__unwindfunclet$?Environment_Load@@YA_NAAUSEnvironmentData@@PBD@Z$7
	DD	00H
	DD	FLAT:__unwindfunclet$?Environment_Load@@YA_NAAUSEnvironmentData@@PBD@Z$8
	DD	00H
	DD	FLAT:__unwindfunclet$?Environment_Load@@YA_NAAUSEnvironmentData@@PBD@Z$9
	DD	00H
	DD	FLAT:__unwindfunclet$?Environment_Load@@YA_NAAUSEnvironmentData@@PBD@Z$10
	DD	00H
	DD	FLAT:__unwindfunclet$?Environment_Load@@YA_NAAUSEnvironmentData@@PBD@Z$11
	DD	00H
	DD	FLAT:__unwindfunclet$?Environment_Load@@YA_NAAUSEnvironmentData@@PBD@Z$12
	DD	00H
	DD	FLAT:__unwindfunclet$?Environment_Load@@YA_NAAUSEnvironmentData@@PBD@Z$13
	DD	00H
	DD	FLAT:__unwindfunclet$?Environment_Load@@YA_NAAUSEnvironmentData@@PBD@Z$14
	DD	00H
	DD	FLAT:__unwindfunclet$?Environment_Load@@YA_NAAUSEnvironmentData@@PBD@Z$15
	DD	00H
	DD	FLAT:__unwindfunclet$?Environment_Load@@YA_NAAUSEnvironmentData@@PBD@Z$16
	DD	00H
	DD	FLAT:__unwindfunclet$?Environment_Load@@YA_NAAUSEnvironmentData@@PBD@Z$17
	DD	00H
	DD	FLAT:__unwindfunclet$?Environment_Load@@YA_NAAUSEnvironmentData@@PBD@Z$18
	DD	00H
	DD	FLAT:__unwindfunclet$?Environment_Load@@YA_NAAUSEnvironmentData@@PBD@Z$19
	DD	00H
	DD	FLAT:__unwindfunclet$?Environment_Load@@YA_NAAUSEnvironmentData@@PBD@Z$20
	DD	00H
	DD	FLAT:__unwindfunclet$?Environment_Load@@YA_NAAUSEnvironmentData@@PBD@Z$21
	DD	00H
	DD	FLAT:__unwindfunclet$?Environment_Load@@YA_NAAUSEnvironmentData@@PBD@Z$22
	DD	00H
	DD	FLAT:__unwindfunclet$?Environment_Load@@YA_NAAUSEnvironmentData@@PBD@Z$23
	DD	00H
	DD	FLAT:__unwindfunclet$?Environment_Load@@YA_NAAUSEnvironmentData@@PBD@Z$24
	DD	00H
	DD	FLAT:__unwindfunclet$?Environment_Load@@YA_NAAUSEnvironmentData@@PBD@Z$25
	DD	00H
	DD	FLAT:__unwindfunclet$?Environment_Load@@YA_NAAUSEnvironmentData@@PBD@Z$26
	DD	00H
	DD	FLAT:__unwindfunclet$?Environment_Load@@YA_NAAUSEnvironmentData@@PBD@Z$27
	DD	00H
	DD	FLAT:__unwindfunclet$?Environment_Load@@YA_NAAUSEnvironmentData@@PBD@Z$28
	DD	00H
	DD	FLAT:__unwindfunclet$?Environment_Load@@YA_NAAUSEnvironmentData@@PBD@Z$29
	DD	00H
	DD	FLAT:__unwindfunclet$?Environment_Load@@YA_NAAUSEnvironmentData@@PBD@Z$30
	DD	00H
	DD	FLAT:__unwindfunclet$?Environment_Load@@YA_NAAUSEnvironmentData@@PBD@Z$31
	DD	00H
	DD	FLAT:__unwindfunclet$?Environment_Load@@YA_NAAUSEnvironmentData@@PBD@Z$32
	DD	00H
	DD	FLAT:__unwindfunclet$?Environment_Load@@YA_NAAUSEnvironmentData@@PBD@Z$33
	DD	00H
	DD	FLAT:__unwindfunclet$?Environment_Load@@YA_NAAUSEnvironmentData@@PBD@Z$34
	DD	00H
	DD	FLAT:__unwindfunclet$?Environment_Load@@YA_NAAUSEnvironmentData@@PBD@Z$35
	DD	00H
	DD	FLAT:__unwindfunclet$?Environment_Load@@YA_NAAUSEnvironmentData@@PBD@Z$36
	DD	00H
	DD	FLAT:__unwindfunclet$?Environment_Load@@YA_NAAUSEnvironmentData@@PBD@Z$37
	DD	00H
	DD	FLAT:__unwindfunclet$?Environment_Load@@YA_NAAUSEnvironmentData@@PBD@Z$38
	DD	00H
	DD	FLAT:__unwindfunclet$?Environment_Load@@YA_NAAUSEnvironmentData@@PBD@Z$39
	DD	00H
	DD	FLAT:__unwindfunclet$?Environment_Load@@YA_NAAUSEnvironmentData@@PBD@Z$40
	DD	00H
	DD	FLAT:__unwindfunclet$?Environment_Load@@YA_NAAUSEnvironmentData@@PBD@Z$41
	DD	00H
	DD	FLAT:__unwindfunclet$?Environment_Load@@YA_NAAUSEnvironmentData@@PBD@Z$42
	DD	00H
	DD	FLAT:__unwindfunclet$?Environment_Load@@YA_NAAUSEnvironmentData@@PBD@Z$43
xdata$x	ENDS
;	COMDAT xdata$x
xdata$x	SEGMENT
__unwindtable$??0?$basic_string@DU?$char_traits@D@std@@V?$allocator@D@2@@std@@QAE@QBD@Z DD 0ffffffffH
	DD	FLAT:__unwindfunclet$??0?$basic_string@DU?$char_traits@D@std@@V?$allocator@D@2@@std@@QAE@QBD@Z$0
__ehfuncinfo$??0?$basic_string@DU?$char_traits@D@std@@V?$allocator@D@2@@std@@QAE@QBD@Z DD 019930522H
	DD	01H
	DD	FLAT:__unwindtable$??0?$basic_string@DU?$char_traits@D@std@@V?$allocator@D@2@@std@@QAE@QBD@Z
	DD	2 DUP(00H)
	DD	2 DUP(00H)
	DD	00H
	DD	01H
xdata$x	ENDS
; Function compile flags: /Odspy
; File C:\Program Files (x86)\Microsoft Visual Studio\2019\Community\VC\Tools\MSVC\14.28.29333\include\xmemory
; File C:\Program Files (x86)\Microsoft Visual Studio\2019\Community\VC\Tools\MSVC\14.28.29333\include\type_traits
; File C:\Program Files (x86)\Microsoft Visual Studio\2019\Community\VC\Tools\MSVC\14.28.29333\include\xmemory
; File C:\Program Files (x86)\Microsoft Visual Studio\2019\Community\VC\Tools\MSVC\14.28.29333\include\xstddef
; File C:\Program Files (x86)\Microsoft Visual Studio\2019\Community\VC\Tools\MSVC\14.28.29333\include\xmemory
; File C:\Program Files (x86)\Microsoft Visual Studio\2019\Community\VC\Tools\MSVC\14.28.29333\include\vcruntime_new.h
; File C:\Program Files (x86)\Microsoft Visual Studio\2019\Community\VC\Tools\MSVC\14.28.29333\include\type_traits
; File C:\Program Files (x86)\Microsoft Visual Studio\2019\Community\VC\Tools\MSVC\14.28.29333\include\xmemory
;	COMDAT ??$_Uninitialized_move@PAUTGradientColor@@V?$allocator@UTGradientColor@@@std@@@std@@YAPAUTGradientColor@@QAU1@0PAU1@AAV?$allocator@UTGradientColor@@@0@@Z
_TEXT	SEGMENT
__Backout$1 = -52					; size = 12
___formal$ = -40					; size = 4
$T2 = -36						; size = 4
$T3 = -32						; size = 4
$T4 = -28						; size = 4
$T5 = -24						; size = 4
$T6 = -20						; size = 4
__Ptr$ = -16						; size = 4
$T7 = -12						; size = 4
__ULast$ = -8						; size = 4
__UFirst$ = -4						; size = 4
__First$ = 8						; size = 4
__Last$ = 12						; size = 4
__Dest$ = 16						; size = 4
__Al$ = 20						; size = 4
??$_Uninitialized_move@PAUTGradientColor@@V?$allocator@UTGradientColor@@@std@@@std@@YAPAUTGradientColor@@QAU1@0PAU1@AAV?$allocator@UTGradientColor@@@0@@Z PROC ; std::_Uninitialized_move<TGradientColor *,std::allocator<TGradientColor> >, COMDAT

; 1685 :     const _InIt _First, const _InIt _Last, _Alloc_ptr_t<_Alloc> _Dest, _Alloc& _Al) {

  00000	55		 push	 ebp
  00001	8b ec		 mov	 ebp, esp
  00003	83 ec 34	 sub	 esp, 52			; 00000034H
  00006	56		 push	 esi
  00007	57		 push	 edi

; 1686 :     // move [_First, _Last) to raw _Dest, using _Al
; 1687 :     // note: only called internally from elsewhere in the STL
; 1688 :     using _Ptrval     = typename _Alloc::value_type*;
; 1689 :     auto _UFirst      = _Get_unwrapped(_First);

  00008	8b 45 08	 mov	 eax, DWORD PTR __First$[ebp]
  0000b	89 45 fc	 mov	 DWORD PTR __UFirst$[ebp], eax

; 1690 :     const auto _ULast = _Get_unwrapped(_Last);

  0000e	8b 45 0c	 mov	 eax, DWORD PTR __Last$[ebp]
  00011	89 45 f8	 mov	 DWORD PTR __ULast$[ebp], eax

; 1535 :     _Uninitialized_backout_al(pointer _Dest, _Alloc& _Al_) : _First(_Dest), _Last(_Dest), _Al(_Al_) {}

  00014	8b 45 10	 mov	 eax, DWORD PTR __Dest$[ebp]
  00017	89 45 cc	 mov	 DWORD PTR __Backout$1[ebp], eax
  0001a	8b 45 10	 mov	 eax, DWORD PTR __Dest$[ebp]
  0001d	89 45 d0	 mov	 DWORD PTR __Backout$1[ebp+4], eax
  00020	8b 45 14	 mov	 eax, DWORD PTR __Al$[ebp]
  00023	89 45 d4	 mov	 DWORD PTR __Backout$1[ebp+8], eax

; 1691 :     if constexpr (conjunction_v<bool_constant<_Ptr_move_cat<decltype(_UFirst), _Ptrval>::_Really_trivial>,
; 1692 :                       _Uses_default_construct<_Alloc, _Ptrval, decltype(_STD move(*_UFirst))>>) {
; 1693 :         _Copy_memmove(_UFirst, _ULast, _Unfancy(_Dest));
; 1694 :         return _Dest + (_ULast - _UFirst);
; 1695 :     } else {
; 1696 :         _Uninitialized_backout_al<_Alloc> _Backout{_Dest, _Al};
; 1697 :         for (; _UFirst != _ULast; ++_UFirst) {

  00026	eb 09		 jmp	 SHORT $LN4@Uninitiali
$LN2@Uninitiali:
  00028	8b 45 fc	 mov	 eax, DWORD PTR __UFirst$[ebp]
  0002b	83 c0 20	 add	 eax, 32			; 00000020H
  0002e	89 45 fc	 mov	 DWORD PTR __UFirst$[ebp], eax
$LN4@Uninitiali:
  00031	8b 45 fc	 mov	 eax, DWORD PTR __UFirst$[ebp]
  00034	3b 45 f8	 cmp	 eax, DWORD PTR __ULast$[ebp]
  00037	74 40		 je	 SHORT $LN3@Uninitiali
; File C:\Program Files (x86)\Microsoft Visual Studio\2019\Community\VC\Tools\MSVC\14.28.29333\include\type_traits

; 1455 :     return static_cast<remove_reference_t<_Ty>&&>(_Arg);

  00039	8b 45 fc	 mov	 eax, DWORD PTR __UFirst$[ebp]
  0003c	89 45 f4	 mov	 DWORD PTR $T7[ebp], eax

; 1443 :     return static_cast<_Ty&&>(_Arg);

  0003f	8b 45 f4	 mov	 eax, DWORD PTR $T7[ebp]
  00042	89 45 e8	 mov	 DWORD PTR $T5[ebp], eax
; File C:\Program Files (x86)\Microsoft Visual Studio\2019\Community\VC\Tools\MSVC\14.28.29333\include\xmemory

; 1546 :         allocator_traits<_Alloc>::construct(_Al, _Unfancy(_Last), _STD forward<_Types>(_Vals)...);

  00045	8b 45 d0	 mov	 eax, DWORD PTR __Backout$1[ebp+4]
  00048	89 45 f0	 mov	 DWORD PTR __Ptr$[ebp], eax
; File C:\Program Files (x86)\Microsoft Visual Studio\2019\Community\VC\Tools\MSVC\14.28.29333\include\xstddef

; 289  :     return _Ptr;

  0004b	8b 45 f0	 mov	 eax, DWORD PTR __Ptr$[ebp]
  0004e	89 45 ec	 mov	 DWORD PTR $T6[ebp], eax
; File C:\Program Files (x86)\Microsoft Visual Studio\2019\Community\VC\Tools\MSVC\14.28.29333\include\xmemory

; 1546 :         allocator_traits<_Alloc>::construct(_Al, _Unfancy(_Last), _STD forward<_Types>(_Vals)...);

  00051	8b 45 d4	 mov	 eax, DWORD PTR __Backout$1[ebp+8]
  00054	89 45 d8	 mov	 DWORD PTR ___formal$[ebp], eax
; File C:\Program Files (x86)\Microsoft Visual Studio\2019\Community\VC\Tools\MSVC\14.28.29333\include\vcruntime_new.h

; 169  :         return _Where;

  00057	8b 45 ec	 mov	 eax, DWORD PTR $T6[ebp]
  0005a	89 45 e0	 mov	 DWORD PTR $T3[ebp], eax
; File C:\Program Files (x86)\Microsoft Visual Studio\2019\Community\VC\Tools\MSVC\14.28.29333\include\type_traits

; 1443 :     return static_cast<_Ty&&>(_Arg);

  0005d	8b 45 e8	 mov	 eax, DWORD PTR $T5[ebp]
  00060	89 45 e4	 mov	 DWORD PTR $T4[ebp], eax
; File C:\Program Files (x86)\Microsoft Visual Studio\2019\Community\VC\Tools\MSVC\14.28.29333\include\xmemory

; 701  :         ::new (const_cast<void*>(static_cast<const volatile void*>(_Ptr))) _Objty(_STD forward<_Types>(_Args)...);

  00063	6a 08		 push	 8
  00065	59		 pop	 ecx
  00066	8b 75 e4	 mov	 esi, DWORD PTR $T4[ebp]
  00069	8b 7d e0	 mov	 edi, DWORD PTR $T3[ebp]
  0006c	f3 a5		 rep movsd

; 1547 :         ++_Last;

  0006e	8b 45 d0	 mov	 eax, DWORD PTR __Backout$1[ebp+4]
  00071	83 c0 20	 add	 eax, 32			; 00000020H
  00074	89 45 d0	 mov	 DWORD PTR __Backout$1[ebp+4], eax

; 1698 :             _Backout._Emplace_back(_STD move(*_UFirst));
; 1699 :         }

  00077	eb af		 jmp	 SHORT $LN2@Uninitiali
$LN3@Uninitiali:

; 1551 :         _First = _Last;

  00079	8b 45 d0	 mov	 eax, DWORD PTR __Backout$1[ebp+4]
  0007c	89 45 cc	 mov	 DWORD PTR __Backout$1[ebp], eax

; 1552 :         return _Last;

  0007f	8b 45 d0	 mov	 eax, DWORD PTR __Backout$1[ebp+4]
  00082	89 45 dc	 mov	 DWORD PTR $T2[ebp], eax

; 1541 :         _Destroy_range(_First, _Last, _Al);

  00085	ff 75 d4	 push	 DWORD PTR __Backout$1[ebp+8]
  00088	ff 75 d0	 push	 DWORD PTR __Backout$1[ebp+4]
  0008b	ff 75 cc	 push	 DWORD PTR __Backout$1[ebp]
  0008e	e8 00 00 00 00	 call	 ??$_Destroy_range@V?$allocator@UTGradientColor@@@std@@@std@@YAXPAUTGradientColor@@QAU1@AAV?$allocator@UTGradientColor@@@0@@Z ; std::_Destroy_range<std::allocator<TGradientColor> >
  00093	83 c4 0c	 add	 esp, 12			; 0000000cH

; 1700 : 
; 1701 :         return _Backout._Release();

  00096	8b 45 dc	 mov	 eax, DWORD PTR $T2[ebp]

; 1702 :     }
; 1703 : }

  00099	5f		 pop	 edi
  0009a	5e		 pop	 esi
  0009b	c9		 leave
  0009c	c3		 ret	 0
??$_Uninitialized_move@PAUTGradientColor@@V?$allocator@UTGradientColor@@@std@@@std@@YAPAUTGradientColor@@QAU1@0PAU1@AAV?$allocator@UTGradientColor@@@0@@Z ENDP ; std::_Uninitialized_move<TGradientColor *,std::allocator<TGradientColor> >
_TEXT	ENDS
; Function compile flags: /Odspy
; File C:\Program Files (x86)\Microsoft Visual Studio\2019\Community\VC\Tools\MSVC\14.28.29333\include\xmemory
; File C:\Program Files (x86)\Microsoft Visual Studio\2019\Community\VC\Tools\MSVC\14.28.29333\include\xstddef
; File C:\Program Files (x86)\Microsoft Visual Studio\2019\Community\VC\Tools\MSVC\14.28.29333\include\xmemory
; File C:\Program Files (x86)\Microsoft Visual Studio\2019\Community\VC\Tools\MSVC\14.28.29333\include\vcruntime_new.h
; File C:\Program Files (x86)\Microsoft Visual Studio\2019\Community\VC\Tools\MSVC\14.28.29333\include\xmemory
;	COMDAT ??$_Emplace_back@$$V@?$_Uninitialized_backout_al@V?$allocator@UTGradientColor@@@std@@@std@@QAEXXZ
_TEXT	SEGMENT
___formal$ = -20					; size = 4
$T1 = -16						; size = 4
__Ptr$ = -12						; size = 4
$T2 = -8						; size = 4
_this$ = -4						; size = 4
??$_Emplace_back@$$V@?$_Uninitialized_backout_al@V?$allocator@UTGradientColor@@@std@@@std@@QAEXXZ PROC ; std::_Uninitialized_backout_al<std::allocator<TGradientColor> >::_Emplace_back<>, COMDAT
; _this$ = ecx

; 1545 :     void _Emplace_back(_Types&&... _Vals) { // construct a new element at *_Last and increment

  00000	55		 push	 ebp
  00001	8b ec		 mov	 ebp, esp
  00003	83 ec 14	 sub	 esp, 20			; 00000014H
  00006	57		 push	 edi
  00007	89 4d fc	 mov	 DWORD PTR _this$[ebp], ecx

; 1546 :         allocator_traits<_Alloc>::construct(_Al, _Unfancy(_Last), _STD forward<_Types>(_Vals)...);

  0000a	8b 45 fc	 mov	 eax, DWORD PTR _this$[ebp]
  0000d	8b 40 04	 mov	 eax, DWORD PTR [eax+4]
  00010	89 45 f4	 mov	 DWORD PTR __Ptr$[ebp], eax
; File C:\Program Files (x86)\Microsoft Visual Studio\2019\Community\VC\Tools\MSVC\14.28.29333\include\xstddef

; 289  :     return _Ptr;

  00013	8b 45 f4	 mov	 eax, DWORD PTR __Ptr$[ebp]
  00016	89 45 f0	 mov	 DWORD PTR $T1[ebp], eax
; File C:\Program Files (x86)\Microsoft Visual Studio\2019\Community\VC\Tools\MSVC\14.28.29333\include\xmemory

; 1546 :         allocator_traits<_Alloc>::construct(_Al, _Unfancy(_Last), _STD forward<_Types>(_Vals)...);

  00019	8b 45 fc	 mov	 eax, DWORD PTR _this$[ebp]
  0001c	8b 40 08	 mov	 eax, DWORD PTR [eax+8]
  0001f	89 45 ec	 mov	 DWORD PTR ___formal$[ebp], eax
; File C:\Program Files (x86)\Microsoft Visual Studio\2019\Community\VC\Tools\MSVC\14.28.29333\include\vcruntime_new.h

; 169  :         return _Where;

  00022	8b 45 f0	 mov	 eax, DWORD PTR $T1[ebp]
  00025	89 45 f8	 mov	 DWORD PTR $T2[ebp], eax
; File C:\Program Files (x86)\Microsoft Visual Studio\2019\Community\VC\Tools\MSVC\14.28.29333\include\xmemory

; 701  :         ::new (const_cast<void*>(static_cast<const volatile void*>(_Ptr))) _Objty(_STD forward<_Types>(_Args)...);

  00028	6a 08		 push	 8
  0002a	59		 pop	 ecx
  0002b	33 c0		 xor	 eax, eax
  0002d	8b 7d f8	 mov	 edi, DWORD PTR $T2[ebp]
  00030	f3 ab		 rep stosd
  00032	8b 4d f8	 mov	 ecx, DWORD PTR $T2[ebp]
  00035	e8 00 00 00 00	 call	 ??0TGradientColor@@QAE@XZ

; 1547 :         ++_Last;

  0003a	8b 45 fc	 mov	 eax, DWORD PTR _this$[ebp]
  0003d	8b 40 04	 mov	 eax, DWORD PTR [eax+4]
  00040	83 c0 20	 add	 eax, 32			; 00000020H
  00043	8b 4d fc	 mov	 ecx, DWORD PTR _this$[ebp]
  00046	89 41 04	 mov	 DWORD PTR [ecx+4], eax

; 1548 :     }

  00049	5f		 pop	 edi
  0004a	c9		 leave
  0004b	c3		 ret	 0
??$_Emplace_back@$$V@?$_Uninitialized_backout_al@V?$allocator@UTGradientColor@@@std@@@std@@QAEXXZ ENDP ; std::_Uninitialized_backout_al<std::allocator<TGradientColor> >::_Emplace_back<>
_TEXT	ENDS
; Function compile flags: /Odspy
; File C:\Program Files (x86)\Microsoft Visual Studio\2019\Community\VC\Tools\MSVC\14.28.29333\include\xmemory
;	COMDAT ??1?$_Uninitialized_backout_al@V?$allocator@UTGradientColor@@@std@@@std@@QAE@XZ
_TEXT	SEGMENT
_this$ = -4						; size = 4
??1?$_Uninitialized_backout_al@V?$allocator@UTGradientColor@@@std@@@std@@QAE@XZ PROC ; std::_Uninitialized_backout_al<std::allocator<TGradientColor> >::~_Uninitialized_backout_al<std::allocator<TGradientColor> >, COMDAT
; _this$ = ecx

; 1540 :     ~_Uninitialized_backout_al() {

  00000	55		 push	 ebp
  00001	8b ec		 mov	 ebp, esp
  00003	51		 push	 ecx
  00004	89 4d fc	 mov	 DWORD PTR _this$[ebp], ecx

; 1541 :         _Destroy_range(_First, _Last, _Al);

  00007	8b 45 fc	 mov	 eax, DWORD PTR _this$[ebp]
  0000a	ff 70 08	 push	 DWORD PTR [eax+8]
  0000d	8b 45 fc	 mov	 eax, DWORD PTR _this$[ebp]
  00010	ff 70 04	 push	 DWORD PTR [eax+4]
  00013	8b 45 fc	 mov	 eax, DWORD PTR _this$[ebp]
  00016	ff 30		 push	 DWORD PTR [eax]
  00018	e8 00 00 00 00	 call	 ??$_Destroy_range@V?$allocator@UTGradientColor@@@std@@@std@@YAXPAUTGradientColor@@QAU1@AAV?$allocator@UTGradientColor@@@0@@Z ; std::_Destroy_range<std::allocator<TGradientColor> >
  0001d	83 c4 0c	 add	 esp, 12			; 0000000cH

; 1542 :     }

  00020	c9		 leave
  00021	c3		 ret	 0
??1?$_Uninitialized_backout_al@V?$allocator@UTGradientColor@@@std@@@std@@QAE@XZ ENDP ; std::_Uninitialized_backout_al<std::allocator<TGradientColor> >::~_Uninitialized_backout_al<std::allocator<TGradientColor> >
_TEXT	ENDS
; Function compile flags: /Odspy
; File C:\Program Files (x86)\Microsoft Visual Studio\2019\Community\VC\Tools\MSVC\14.28.29333\include\xmemory
;	COMDAT ??$_Uninitialized_value_construct_n@V?$allocator@UTGradientColor@@@std@@@std@@YAPAUTGradientColor@@PAU1@IAAV?$allocator@UTGradientColor@@@0@@Z
_TEXT	SEGMENT
__Backout$2 = -28					; size = 12
$T3 = -16						; size = 4
__$EHRec$ = -12						; size = 12
__First$ = 8						; size = 4
__Count$ = 12						; size = 4
__Al$ = 16						; size = 4
??$_Uninitialized_value_construct_n@V?$allocator@UTGradientColor@@@std@@@std@@YAPAUTGradientColor@@PAU1@IAAV?$allocator@UTGradientColor@@@0@@Z PROC ; std::_Uninitialized_value_construct_n<std::allocator<TGradientColor> >, COMDAT

; 1862 :     _Alloc_ptr_t<_Alloc> _First, _Alloc_size_t<_Alloc> _Count, _Alloc& _Al) {

  00000	55		 push	 ebp
  00001	8b ec		 mov	 ebp, esp
  00003	6a ff		 push	 -1
  00005	68 00 00 00 00	 push	 __ehhandler$??$_Uninitialized_value_construct_n@V?$allocator@UTGradientColor@@@std@@@std@@YAPAUTGradientColor@@PAU1@IAAV?$allocator@UTGradientColor@@@0@@Z
  0000a	64 a1 00 00 00
	00		 mov	 eax, DWORD PTR fs:0
  00010	50		 push	 eax
  00011	83 ec 10	 sub	 esp, 16			; 00000010H
  00014	a1 00 00 00 00	 mov	 eax, DWORD PTR ___security_cookie
  00019	33 c5		 xor	 eax, ebp
  0001b	50		 push	 eax
  0001c	8d 45 f4	 lea	 eax, DWORD PTR __$EHRec$[ebp]
  0001f	64 a3 00 00 00
	00		 mov	 DWORD PTR fs:0, eax

; 1535 :     _Uninitialized_backout_al(pointer _Dest, _Alloc& _Al_) : _First(_Dest), _Last(_Dest), _Al(_Al_) {}

  00025	8b 45 08	 mov	 eax, DWORD PTR __First$[ebp]
  00028	89 45 e4	 mov	 DWORD PTR __Backout$2[ebp], eax
  0002b	8b 45 08	 mov	 eax, DWORD PTR __First$[ebp]
  0002e	89 45 e8	 mov	 DWORD PTR __Backout$2[ebp+4], eax
  00031	8b 45 10	 mov	 eax, DWORD PTR __Al$[ebp]
  00034	89 45 ec	 mov	 DWORD PTR __Backout$2[ebp+8], eax

; 1863 :     // value-initialize _Count objects to raw _First, using _Al
; 1864 :     using _Ptrty = typename _Alloc::value_type*;
; 1865 :     if constexpr (_Use_memset_value_construct_v<_Ptrty> && _Uses_default_construct<_Alloc, _Ptrty>::value) {
; 1866 :         auto _PFirst = _Unfancy(_First);
; 1867 :         _Zero_range(_PFirst, _PFirst + _Count);
; 1868 :         return _First + _Count;
; 1869 :     } else {
; 1870 :         _Uninitialized_backout_al<_Alloc> _Backout{_First, _Al};

  00037	83 65 fc 00	 and	 DWORD PTR __$EHRec$[ebp+8], 0

; 1871 :         for (; 0 < _Count; --_Count) {

  0003b	eb 07		 jmp	 SHORT $LN4@Uninitiali
$LN2@Uninitiali:
  0003d	8b 45 0c	 mov	 eax, DWORD PTR __Count$[ebp]
  00040	48		 dec	 eax
  00041	89 45 0c	 mov	 DWORD PTR __Count$[ebp], eax
$LN4@Uninitiali:
  00044	83 7d 0c 00	 cmp	 DWORD PTR __Count$[ebp], 0
  00048	76 0a		 jbe	 SHORT $LN3@Uninitiali

; 1872 :             _Backout._Emplace_back();

  0004a	8d 4d e4	 lea	 ecx, DWORD PTR __Backout$2[ebp]
  0004d	e8 00 00 00 00	 call	 ??$_Emplace_back@$$V@?$_Uninitialized_backout_al@V?$allocator@UTGradientColor@@@std@@@std@@QAEXXZ ; std::_Uninitialized_backout_al<std::allocator<TGradientColor> >::_Emplace_back<>

; 1873 :         }

  00052	eb e9		 jmp	 SHORT $LN2@Uninitiali
$LN3@Uninitiali:

; 1551 :         _First = _Last;

  00054	8b 45 e8	 mov	 eax, DWORD PTR __Backout$2[ebp+4]
  00057	89 45 e4	 mov	 DWORD PTR __Backout$2[ebp], eax

; 1552 :         return _Last;

  0005a	8b 45 e8	 mov	 eax, DWORD PTR __Backout$2[ebp+4]
  0005d	89 45 f0	 mov	 DWORD PTR $T3[ebp], eax

; 1874 : 
; 1875 :         return _Backout._Release();

  00060	83 4d fc ff	 or	 DWORD PTR __$EHRec$[ebp+8], -1

; 1541 :         _Destroy_range(_First, _Last, _Al);

  00064	ff 75 ec	 push	 DWORD PTR __Backout$2[ebp+8]
  00067	ff 75 e8	 push	 DWORD PTR __Backout$2[ebp+4]
  0006a	ff 75 e4	 push	 DWORD PTR __Backout$2[ebp]
  0006d	e8 00 00 00 00	 call	 ??$_Destroy_range@V?$allocator@UTGradientColor@@@std@@@std@@YAXPAUTGradientColor@@QAU1@AAV?$allocator@UTGradientColor@@@0@@Z ; std::_Destroy_range<std::allocator<TGradientColor> >
  00072	83 c4 0c	 add	 esp, 12			; 0000000cH

; 1874 : 
; 1875 :         return _Backout._Release();

  00075	8b 45 f0	 mov	 eax, DWORD PTR $T3[ebp]

; 1876 :     }
; 1877 : }

  00078	8b 4d f4	 mov	 ecx, DWORD PTR __$EHRec$[ebp]
  0007b	64 89 0d 00 00
	00 00		 mov	 DWORD PTR fs:0, ecx
  00082	59		 pop	 ecx
  00083	c9		 leave
  00084	c3		 ret	 0
_TEXT	ENDS
;	COMDAT text$x
text$x	SEGMENT
__unwindfunclet$??$_Uninitialized_value_construct_n@V?$allocator@UTGradientColor@@@std@@@std@@YAPAUTGradientColor@@PAU1@IAAV?$allocator@UTGradientColor@@@0@@Z$0:
  00000	8d 4d e4	 lea	 ecx, DWORD PTR __Backout$2[ebp]
  00003	e9 00 00 00 00	 jmp	 ??1?$_Uninitialized_backout_al@V?$allocator@UTGradientColor@@@std@@@std@@QAE@XZ ; std::_Uninitialized_backout_al<std::allocator<TGradientColor> >::~_Uninitialized_backout_al<std::allocator<TGradientColor> >
  00008	cc		 int	 3
  00009	cc		 int	 3
  0000a	cc		 int	 3
  0000b	cc		 int	 3
  0000c	cc		 int	 3
__ehhandler$??$_Uninitialized_value_construct_n@V?$allocator@UTGradientColor@@@std@@@std@@YAPAUTGradientColor@@PAU1@IAAV?$allocator@UTGradientColor@@@0@@Z:
  0000d	90		 npad	 1
  0000e	90		 npad	 1
  0000f	8b 54 24 08	 mov	 edx, DWORD PTR [esp+8]
  00013	8d 42 0c	 lea	 eax, DWORD PTR [edx+12]
  00016	8b 4a ec	 mov	 ecx, DWORD PTR [edx-20]
  00019	33 c8		 xor	 ecx, eax
  0001b	e8 00 00 00 00	 call	 @__security_check_cookie@4
  00020	b8 00 00 00 00	 mov	 eax, OFFSET __ehfuncinfo$??$_Uninitialized_value_construct_n@V?$allocator@UTGradientColor@@@std@@@std@@YAPAUTGradientColor@@PAU1@IAAV?$allocator@UTGradientColor@@@0@@Z
  00025	e9 00 00 00 00	 jmp	 ___CxxFrameHandler3
text$x	ENDS
??$_Uninitialized_value_construct_n@V?$allocator@UTGradientColor@@@std@@@std@@YAPAUTGradientColor@@PAU1@IAAV?$allocator@UTGradientColor@@@0@@Z ENDP ; std::_Uninitialized_value_construct_n<std::allocator<TGradientColor> >
; Function compile flags: /Odspy
; File C:\Program Files (x86)\Microsoft Visual Studio\2019\Community\VC\Tools\MSVC\14.28.29333\include\vector
; File C:\Program Files (x86)\Microsoft Visual Studio\2019\Community\VC\Tools\MSVC\14.28.29333\include\xmemory
; File C:\Program Files (x86)\Microsoft Visual Studio\2019\Community\VC\Tools\MSVC\14.28.29333\include\vector
; File C:\Program Files (x86)\Microsoft Visual Studio\2019\Community\VC\Tools\MSVC\14.28.29333\include\xmemory
; File C:\Program Files (x86)\Microsoft Visual Studio\2019\Community\VC\Tools\MSVC\14.28.29333\include\limits
; File C:\Program Files (x86)\Microsoft Visual Studio\2019\Community\VC\Tools\MSVC\14.28.29333\include\vector
; File C:\Program Files (x86)\Microsoft Visual Studio\2019\Community\VC\Tools\MSVC\14.28.29333\include\utility
; File C:\Program Files (x86)\Microsoft Visual Studio\2019\Community\VC\Tools\MSVC\14.28.29333\include\vector
; File C:\Program Files (x86)\Microsoft Visual Studio\2019\Community\VC\Tools\MSVC\14.28.29333\include\xmemory
; File C:\Program Files (x86)\Microsoft Visual Studio\2019\Community\VC\Tools\MSVC\14.28.29333\include\vector
; File C:\Program Files (x86)\Microsoft Visual Studio\2019\Community\VC\Tools\MSVC\14.28.29333\include\xmemory
; File C:\Program Files (x86)\Microsoft Visual Studio\2019\Community\VC\Tools\MSVC\14.28.29333\include\vector
; File C:\Program Files (x86)\Microsoft Visual Studio\2019\Community\VC\Tools\MSVC\14.28.29333\include\xmemory
; File C:\Program Files (x86)\Microsoft Visual Studio\2019\Community\VC\Tools\MSVC\14.28.29333\include\vector
; File C:\Program Files (x86)\Microsoft Visual Studio\2019\Community\VC\Tools\MSVC\14.28.29333\include\xmemory
; File C:\Program Files (x86)\Microsoft Visual Studio\2019\Community\VC\Tools\MSVC\14.28.29333\include\vector
;	COMDAT ??$_Resize_reallocate@U_Value_init_tag@std@@@?$vector@UTGradientColor@@V?$allocator@UTGradientColor@@@std@@@std@@AAEXIABU_Value_init_tag@1@@Z
_TEXT	SEGMENT
__Max_possible$2 = -148					; size = 4
$T3 = -144						; size = 4
$T4 = -140						; size = 4
__First$ = -136						; size = 4
__Last$ = -132						; size = 4
$T5 = -128						; size = 4
$T6 = -124						; size = 4
tv244 = -120						; size = 4
$T7 = -116						; size = 4
$T8 = -112						; size = 4
$T9 = -108						; size = 4
$T10 = -104						; size = 4
$T11 = -100						; size = 4
$T12 = -96						; size = 4
$T13 = -92						; size = 4
$T14 = -88						; size = 4
$T15 = -84						; size = 4
__Appended_last$ = -80					; size = 4
__Myfirst$ = -76					; size = 4
__Mylast$ = -72						; size = 4
__Oldsize$ = -68					; size = 4
__My_data$ = -64					; size = 4
tv147 = -60						; size = 4
$T16 = -56						; size = 4
$T17 = -52						; size = 4
__Appended_first$ = -48					; size = 4
___formal$ = -44					; size = 1
___formal$ = -40					; size = 1
__Overflow_is_possible$18 = -33				; size = 1
__Newvec$ = -32						; size = 4
__Newcapacity$ = -28					; size = 4
$T19 = -21						; size = 1
_this$ = -20						; size = 4
__$EHRec$ = -16						; size = 16
__Newsize$ = 8						; size = 4
__Val$ = 12						; size = 4
??$_Resize_reallocate@U_Value_init_tag@std@@@?$vector@UTGradientColor@@V?$allocator@UTGradientColor@@@std@@@std@@AAEXIABU_Value_init_tag@1@@Z PROC ; std::vector<TGradientColor,std::allocator<TGradientColor> >::_Resize_reallocate<std::_Value_init_tag>, COMDAT
; _this$ = ecx

; 1182 :     void _Resize_reallocate(const size_type _Newsize, const _Ty2& _Val) {

  00000	55		 push	 ebp
  00001	8b ec		 mov	 ebp, esp
  00003	6a ff		 push	 -1
  00005	68 00 00 00 00	 push	 __ehhandler$??$_Resize_reallocate@U_Value_init_tag@std@@@?$vector@UTGradientColor@@V?$allocator@UTGradientColor@@@std@@@std@@AAEXIABU_Value_init_tag@1@@Z
  0000a	64 a1 00 00 00
	00		 mov	 eax, DWORD PTR fs:0
  00010	50		 push	 eax
  00011	51		 push	 ecx
  00012	81 ec 84 00 00
	00		 sub	 esp, 132		; 00000084H
  00018	53		 push	 ebx
  00019	56		 push	 esi
  0001a	57		 push	 edi
  0001b	a1 00 00 00 00	 mov	 eax, DWORD PTR ___security_cookie
  00020	33 c5		 xor	 eax, ebp
  00022	50		 push	 eax
  00023	8d 45 f4	 lea	 eax, DWORD PTR __$EHRec$[ebp+4]
  00026	64 a3 00 00 00
	00		 mov	 DWORD PTR fs:0, eax
  0002c	89 65 f0	 mov	 DWORD PTR __$EHRec$[ebp], esp
  0002f	89 4d ec	 mov	 DWORD PTR _this$[ebp], ecx

; 1737 :         return _Mypair._Get_first();

  00032	8b 45 ec	 mov	 eax, DWORD PTR _this$[ebp]
; File C:\Program Files (x86)\Microsoft Visual Studio\2019\Community\VC\Tools\MSVC\14.28.29333\include\xmemory

; 1351 :         return *this;

  00035	89 45 ac	 mov	 DWORD PTR $T15[ebp], eax
; File C:\Program Files (x86)\Microsoft Visual Studio\2019\Community\VC\Tools\MSVC\14.28.29333\include\vector

; 1737 :         return _Mypair._Get_first();

  00038	8b 45 ac	 mov	 eax, DWORD PTR $T15[ebp]
  0003b	89 85 74 ff ff
	ff		 mov	 DWORD PTR $T4[ebp], eax
; File C:\Program Files (x86)\Microsoft Visual Studio\2019\Community\VC\Tools\MSVC\14.28.29333\include\xmemory

; 710  :         return static_cast<size_t>(-1) / sizeof(value_type);

  00041	c7 45 cc ff ff
	ff 07		 mov	 DWORD PTR $T17[ebp], 134217727 ; 07ffffffH
; File C:\Program Files (x86)\Microsoft Visual Studio\2019\Community\VC\Tools\MSVC\14.28.29333\include\limits

; 557  :         return INT_MAX;

  00048	c7 45 a8 ff ff
	ff 7f		 mov	 DWORD PTR $T14[ebp], 2147483647 ; 7fffffffH
; File C:\Program Files (x86)\Microsoft Visual Studio\2019\Community\VC\Tools\MSVC\14.28.29333\include\vector

; 1488 :         return (_STD min)(

  0004f	8b 45 a8	 mov	 eax, DWORD PTR $T14[ebp]
  00052	89 45 c8	 mov	 DWORD PTR $T16[ebp], eax
; File C:\Program Files (x86)\Microsoft Visual Studio\2019\Community\VC\Tools\MSVC\14.28.29333\include\utility

; 68   :     return _Right < _Left ? _Right : _Left;

  00055	8b 45 cc	 mov	 eax, DWORD PTR $T17[ebp]
  00058	3b 45 c8	 cmp	 eax, DWORD PTR $T16[ebp]
  0005b	73 08		 jae	 SHORT $LN26@Resize_rea
  0005d	8d 45 cc	 lea	 eax, DWORD PTR $T17[ebp]
  00060	89 45 c4	 mov	 DWORD PTR tv147[ebp], eax
  00063	eb 06		 jmp	 SHORT $LN27@Resize_rea
$LN26@Resize_rea:
  00065	8d 45 c8	 lea	 eax, DWORD PTR $T16[ebp]
  00068	89 45 c4	 mov	 DWORD PTR tv147[ebp], eax
$LN27@Resize_rea:
  0006b	8b 45 c4	 mov	 eax, DWORD PTR tv147[ebp]
  0006e	89 45 a4	 mov	 DWORD PTR $T13[ebp], eax
  00071	8b 45 a4	 mov	 eax, DWORD PTR $T13[ebp]
  00074	89 45 a0	 mov	 DWORD PTR $T12[ebp], eax
; File C:\Program Files (x86)\Microsoft Visual Studio\2019\Community\VC\Tools\MSVC\14.28.29333\include\vector

; 1488 :         return (_STD min)(

  00077	8b 45 a0	 mov	 eax, DWORD PTR $T12[ebp]
  0007a	8b 00		 mov	 eax, DWORD PTR [eax]
  0007c	89 45 9c	 mov	 DWORD PTR $T11[ebp], eax

; 1183 :         if (_Newsize > max_size()) {

  0007f	8b 45 08	 mov	 eax, DWORD PTR __Newsize$[ebp]
  00082	3b 45 9c	 cmp	 eax, DWORD PTR $T11[ebp]
  00085	76 05		 jbe	 SHORT $LN2@Resize_rea

; 1184 :             _Xlength();

  00087	e8 00 00 00 00	 call	 ?_Xlength@?$vector@UTGradientColor@@V?$allocator@UTGradientColor@@@std@@@std@@CAXXZ ; std::vector<TGradientColor,std::allocator<TGradientColor> >::_Xlength
$LN2@Resize_rea:

; 1185 :         }
; 1186 : 
; 1187 :         auto& _My_data    = _Mypair._Myval2;

  0008c	8b 45 ec	 mov	 eax, DWORD PTR _this$[ebp]
  0008f	89 45 c0	 mov	 DWORD PTR __My_data$[ebp], eax

; 1188 :         pointer& _Myfirst = _My_data._Myfirst;

  00092	8b 45 c0	 mov	 eax, DWORD PTR __My_data$[ebp]
  00095	89 45 b4	 mov	 DWORD PTR __Myfirst$[ebp], eax

; 1189 :         pointer& _Mylast  = _My_data._Mylast;

  00098	8b 45 c0	 mov	 eax, DWORD PTR __My_data$[ebp]
  0009b	83 c0 04	 add	 eax, 4
  0009e	89 45 b8	 mov	 DWORD PTR __Mylast$[ebp], eax

; 1190 : 
; 1191 :         const auto _Oldsize          = static_cast<size_type>(_Mylast - _Myfirst);

  000a1	8b 45 b8	 mov	 eax, DWORD PTR __Mylast$[ebp]
  000a4	8b 4d b4	 mov	 ecx, DWORD PTR __Myfirst$[ebp]
  000a7	8b 00		 mov	 eax, DWORD PTR [eax]
  000a9	2b 01		 sub	 eax, DWORD PTR [ecx]
  000ab	c1 f8 05	 sar	 eax, 5
  000ae	89 45 bc	 mov	 DWORD PTR __Oldsize$[ebp], eax

; 1192 :         const size_type _Newcapacity = _Calculate_growth(_Newsize);

  000b1	ff 75 08	 push	 DWORD PTR __Newsize$[ebp]
  000b4	8b 4d ec	 mov	 ecx, DWORD PTR _this$[ebp]
  000b7	e8 00 00 00 00	 call	 ?_Calculate_growth@?$vector@UTGradientColor@@V?$allocator@UTGradientColor@@@std@@@std@@ABEII@Z ; std::vector<TGradientColor,std::allocator<TGradientColor> >::_Calculate_growth
  000bc	89 45 e4	 mov	 DWORD PTR __Newcapacity$[ebp], eax

; 1733 :         return _Mypair._Get_first();

  000bf	8b 45 ec	 mov	 eax, DWORD PTR _this$[ebp]
; File C:\Program Files (x86)\Microsoft Visual Studio\2019\Community\VC\Tools\MSVC\14.28.29333\include\xmemory

; 1347 :         return *this;

  000c2	89 45 98	 mov	 DWORD PTR $T10[ebp], eax
; File C:\Program Files (x86)\Microsoft Visual Studio\2019\Community\VC\Tools\MSVC\14.28.29333\include\vector

; 1733 :         return _Mypair._Get_first();

  000c5	8b 45 98	 mov	 eax, DWORD PTR $T10[ebp]
  000c8	89 85 70 ff ff
	ff		 mov	 DWORD PTR $T3[ebp], eax
; File C:\Program Files (x86)\Microsoft Visual Studio\2019\Community\VC\Tools\MSVC\14.28.29333\include\xmemory

; 56   :     constexpr bool _Overflow_is_possible = _Ty_size > 1;

  000ce	c6 45 df 01	 mov	 BYTE PTR __Overflow_is_possible$18[ebp], 1

; 57   : 
; 58   :     if _CONSTEXPR_IF (_Overflow_is_possible) {
; 59   :         constexpr size_t _Max_possible = static_cast<size_t>(-1) / _Ty_size;

  000d2	c7 85 6c ff ff
	ff ff ff ff 07	 mov	 DWORD PTR __Max_possible$2[ebp], 134217727 ; 07ffffffH

; 60   :         if (_Count > _Max_possible) {

  000dc	81 7d e4 ff ff
	ff 07		 cmp	 DWORD PTR __Newcapacity$[ebp], 134217727 ; 07ffffffH
  000e3	76 05		 jbe	 SHORT $LN65@Resize_rea

; 61   :             _Throw_bad_array_new_length(); // multiply overflow

  000e5	e8 00 00 00 00	 call	 ?_Throw_bad_array_new_length@std@@YAXXZ ; std::_Throw_bad_array_new_length
$LN65@Resize_rea:

; 62   :         }
; 63   :     }
; 64   : 
; 65   :     return _Count * _Ty_size;

  000ea	8b 45 e4	 mov	 eax, DWORD PTR __Newcapacity$[ebp]
  000ed	c1 e0 05	 shl	 eax, 5
  000f0	89 45 94	 mov	 DWORD PTR $T9[ebp], eax

; 814  :         return static_cast<_Ty*>(_Allocate<_New_alignof<_Ty>>(_Get_size_of_n<sizeof(_Ty)>(_Count)));

  000f3	ff 75 94	 push	 DWORD PTR $T9[ebp]
  000f6	e8 00 00 00 00	 call	 ??$_Allocate@$07U_Default_allocate_traits@std@@$0A@@std@@YAPAXI@Z ; std::_Allocate<8,std::_Default_allocate_traits,0>
  000fb	59		 pop	 ecx
  000fc	89 45 e0	 mov	 DWORD PTR __Newvec$[ebp], eax
; File C:\Program Files (x86)\Microsoft Visual Studio\2019\Community\VC\Tools\MSVC\14.28.29333\include\vector

; 1195 :         const pointer _Appended_first = _Newvec + _Oldsize;

  000ff	8b 45 bc	 mov	 eax, DWORD PTR __Oldsize$[ebp]
  00102	c1 e0 05	 shl	 eax, 5
  00105	03 45 e0	 add	 eax, DWORD PTR __Newvec$[ebp]
  00108	89 45 d0	 mov	 DWORD PTR __Appended_first$[ebp], eax

; 1196 :         pointer _Appended_last        = _Appended_first;

  0010b	8b 45 d0	 mov	 eax, DWORD PTR __Appended_first$[ebp]
  0010e	89 45 b0	 mov	 DWORD PTR __Appended_last$[ebp], eax

; 1197 : 
; 1198 :         _TRY_BEGIN

  00111	83 65 fc 00	 and	 DWORD PTR __$EHRec$[ebp+12], 0

; 1199 :         _Appended_last = _Ufill(_Appended_first, _Newsize - _Oldsize, _Val);

  00115	8b 45 0c	 mov	 eax, DWORD PTR __Val$[ebp]
  00118	8a 00		 mov	 al, BYTE PTR [eax]
  0011a	88 45 d8	 mov	 BYTE PTR ___formal$[ebp], al

; 1733 :         return _Mypair._Get_first();

  0011d	8b 45 ec	 mov	 eax, DWORD PTR _this$[ebp]
; File C:\Program Files (x86)\Microsoft Visual Studio\2019\Community\VC\Tools\MSVC\14.28.29333\include\xmemory

; 1347 :         return *this;

  00120	89 45 90	 mov	 DWORD PTR $T8[ebp], eax
; File C:\Program Files (x86)\Microsoft Visual Studio\2019\Community\VC\Tools\MSVC\14.28.29333\include\vector

; 1733 :         return _Mypair._Get_first();

  00123	8b 45 90	 mov	 eax, DWORD PTR $T8[ebp]
  00126	89 45 8c	 mov	 DWORD PTR $T7[ebp], eax

; 1583 :         return _Uninitialized_value_construct_n(_Dest, _Count, _Getal());

  00129	ff 75 8c	 push	 DWORD PTR $T7[ebp]

; 1199 :         _Appended_last = _Ufill(_Appended_first, _Newsize - _Oldsize, _Val);

  0012c	8b 45 08	 mov	 eax, DWORD PTR __Newsize$[ebp]
  0012f	2b 45 bc	 sub	 eax, DWORD PTR __Oldsize$[ebp]

; 1583 :         return _Uninitialized_value_construct_n(_Dest, _Count, _Getal());

  00132	50		 push	 eax
  00133	ff 75 d0	 push	 DWORD PTR __Appended_first$[ebp]
  00136	e8 00 00 00 00	 call	 ??$_Uninitialized_value_construct_n@V?$allocator@UTGradientColor@@@std@@@std@@YAPAUTGradientColor@@PAU1@IAAV?$allocator@UTGradientColor@@@0@@Z ; std::_Uninitialized_value_construct_n<std::allocator<TGradientColor> >
  0013b	83 c4 0c	 add	 esp, 12			; 0000000cH
  0013e	89 45 88	 mov	 DWORD PTR tv244[ebp], eax

; 1199 :         _Appended_last = _Ufill(_Appended_first, _Newsize - _Oldsize, _Val);

  00141	8b 45 88	 mov	 eax, DWORD PTR tv244[ebp]
  00144	89 45 b0	 mov	 DWORD PTR __Appended_last$[ebp], eax

; 1200 :         _Umove_if_noexcept(_Myfirst, _Mylast, _Newvec);

  00147	8b 45 b8	 mov	 eax, DWORD PTR __Mylast$[ebp]
  0014a	8b 00		 mov	 eax, DWORD PTR [eax]
  0014c	89 85 7c ff ff
	ff		 mov	 DWORD PTR __Last$[ebp], eax
  00152	8b 45 b4	 mov	 eax, DWORD PTR __Myfirst$[ebp]
  00155	8b 00		 mov	 eax, DWORD PTR [eax]
  00157	89 85 78 ff ff
	ff		 mov	 DWORD PTR __First$[ebp], eax

; 1607 :         _Umove_if_noexcept1(_First, _Last, _Dest,

  0015d	33 c0		 xor	 eax, eax
  0015f	88 45 eb	 mov	 BYTE PTR $T19[ebp], al
  00162	8a 45 eb	 mov	 al, BYTE PTR $T19[ebp]
  00165	88 45 d4	 mov	 BYTE PTR ___formal$[ebp], al

; 1733 :         return _Mypair._Get_first();

  00168	8b 45 ec	 mov	 eax, DWORD PTR _this$[ebp]
; File C:\Program Files (x86)\Microsoft Visual Studio\2019\Community\VC\Tools\MSVC\14.28.29333\include\xmemory

; 1347 :         return *this;

  0016b	89 45 84	 mov	 DWORD PTR $T6[ebp], eax
; File C:\Program Files (x86)\Microsoft Visual Studio\2019\Community\VC\Tools\MSVC\14.28.29333\include\vector

; 1733 :         return _Mypair._Get_first();

  0016e	8b 45 84	 mov	 eax, DWORD PTR $T6[ebp]
  00171	89 45 80	 mov	 DWORD PTR $T5[ebp], eax

; 1597 :         _Uninitialized_move(_First, _Last, _Dest, _Getal());

  00174	ff 75 80	 push	 DWORD PTR $T5[ebp]
  00177	ff 75 e0	 push	 DWORD PTR __Newvec$[ebp]
  0017a	ff b5 7c ff ff
	ff		 push	 DWORD PTR __Last$[ebp]
  00180	ff b5 78 ff ff
	ff		 push	 DWORD PTR __First$[ebp]
  00186	e8 00 00 00 00	 call	 ??$_Uninitialized_move@PAUTGradientColor@@V?$allocator@UTGradientColor@@@std@@@std@@YAPAUTGradientColor@@QAU1@0PAU1@AAV?$allocator@UTGradientColor@@@0@@Z ; std::_Uninitialized_move<TGradientColor *,std::allocator<TGradientColor> >
  0018b	83 c4 10	 add	 esp, 16			; 00000010H

; 1200 :         _Umove_if_noexcept(_Myfirst, _Mylast, _Newvec);

  0018e	eb 32		 jmp	 SHORT $LN5@Resize_rea
__catch$??$_Resize_reallocate@U_Value_init_tag@std@@@?$vector@UTGradientColor@@V?$allocator@UTGradientColor@@@std@@@std@@AAEXIABU_Value_init_tag@1@@Z$0:

; 1201 :         _CATCH_ALL
; 1202 :         _Destroy(_Appended_first, _Appended_last);

  00190	ff 75 b0	 push	 DWORD PTR __Appended_last$[ebp]
  00193	ff 75 d0	 push	 DWORD PTR __Appended_first$[ebp]
  00196	8b 4d ec	 mov	 ecx, DWORD PTR _this$[ebp]
  00199	e8 00 00 00 00	 call	 ?_Destroy@?$vector@UTGradientColor@@V?$allocator@UTGradientColor@@@std@@@std@@AAEXPAUTGradientColor@@0@Z ; std::vector<TGradientColor,std::allocator<TGradientColor> >::_Destroy

; 1203 :         _Getal().deallocate(_Newvec, _Newcapacity);

  0019e	ff 75 e4	 push	 DWORD PTR __Newcapacity$[ebp]
  001a1	ff 75 e0	 push	 DWORD PTR __Newvec$[ebp]
  001a4	8b 4d ec	 mov	 ecx, DWORD PTR _this$[ebp]
  001a7	e8 00 00 00 00	 call	 ?_Getal@?$vector@UTGradientColor@@V?$allocator@UTGradientColor@@@std@@@std@@AAEAAV?$allocator@UTGradientColor@@@2@XZ ; std::vector<TGradientColor,std::allocator<TGradientColor> >::_Getal
  001ac	8b c8		 mov	 ecx, eax
  001ae	e8 00 00 00 00	 call	 ?deallocate@?$allocator@UTGradientColor@@@std@@QAEXQAUTGradientColor@@I@Z ; std::allocator<TGradientColor>::deallocate

; 1204 :         _RERAISE;

  001b3	6a 00		 push	 0
  001b5	6a 00		 push	 0
  001b7	e8 00 00 00 00	 call	 __CxxThrowException@8

; 1205 :         _CATCH_END

  001bc	b8 00 00 00 00	 mov	 eax, $LN8@Resize_rea
  001c1	c3		 ret	 0
$LN5@Resize_rea:
  001c2	83 4d fc ff	 or	 DWORD PTR __$EHRec$[ebp+12], -1
  001c6	eb 04		 jmp	 SHORT __tryend$??$_Resize_reallocate@U_Value_init_tag@std@@@?$vector@UTGradientColor@@V?$allocator@UTGradientColor@@@std@@@std@@AAEXIABU_Value_init_tag@1@@Z$1
$LN8@Resize_rea:
; File C:\Program Files (x86)\Microsoft Visual Studio\2019\Community\VC\Tools\MSVC\14.28.29333\include\xmemory
  001c8	83 4d fc ff	 or	 DWORD PTR __$EHRec$[ebp+12], -1
__tryend$??$_Resize_reallocate@U_Value_init_tag@std@@@?$vector@UTGradientColor@@V?$allocator@UTGradientColor@@@std@@@std@@AAEXIABU_Value_init_tag@1@@Z$1:
; File C:\Program Files (x86)\Microsoft Visual Studio\2019\Community\VC\Tools\MSVC\14.28.29333\include\vector

; 1206 : 
; 1207 :         _Change_array(_Newvec, _Newsize, _Newcapacity);

  001cc	ff 75 e4	 push	 DWORD PTR __Newcapacity$[ebp]
  001cf	ff 75 08	 push	 DWORD PTR __Newsize$[ebp]
  001d2	ff 75 e0	 push	 DWORD PTR __Newvec$[ebp]
  001d5	8b 4d ec	 mov	 ecx, DWORD PTR _this$[ebp]
  001d8	e8 00 00 00 00	 call	 ?_Change_array@?$vector@UTGradientColor@@V?$allocator@UTGradientColor@@@std@@@std@@AAEXQAUTGradientColor@@II@Z ; std::vector<TGradientColor,std::allocator<TGradientColor> >::_Change_array
$LN68@Resize_rea:

; 1208 :     }

  001dd	8b 4d f4	 mov	 ecx, DWORD PTR __$EHRec$[ebp+4]
  001e0	64 89 0d 00 00
	00 00		 mov	 DWORD PTR fs:0, ecx
  001e7	59		 pop	 ecx
  001e8	5f		 pop	 edi
  001e9	5e		 pop	 esi
  001ea	5b		 pop	 ebx
  001eb	c9		 leave
  001ec	c2 08 00	 ret	 8
  001ef	cc		 int	 3
  001f0	cc		 int	 3
  001f1	cc		 int	 3
  001f2	cc		 int	 3
  001f3	cc		 int	 3
_TEXT	ENDS
;	COMDAT text$x
text$x	SEGMENT
__ehhandler$??$_Resize_reallocate@U_Value_init_tag@std@@@?$vector@UTGradientColor@@V?$allocator@UTGradientColor@@@std@@@std@@AAEXIABU_Value_init_tag@1@@Z:
  00000	90		 npad	 1
  00001	90		 npad	 1
  00002	8b 54 24 08	 mov	 edx, DWORD PTR [esp+8]
  00006	8d 42 0c	 lea	 eax, DWORD PTR [edx+12]
  00009	8b 8a 68 ff ff
	ff		 mov	 ecx, DWORD PTR [edx-152]
  0000f	33 c8		 xor	 ecx, eax
  00011	e8 00 00 00 00	 call	 @__security_check_cookie@4
  00016	b8 00 00 00 00	 mov	 eax, OFFSET __ehfuncinfo$??$_Resize_reallocate@U_Value_init_tag@std@@@?$vector@UTGradientColor@@V?$allocator@UTGradientColor@@@std@@@std@@AAEXIABU_Value_init_tag@1@@Z
  0001b	e9 00 00 00 00	 jmp	 ___CxxFrameHandler3
text$x	ENDS
??$_Resize_reallocate@U_Value_init_tag@std@@@?$vector@UTGradientColor@@V?$allocator@UTGradientColor@@@std@@@std@@AAEXIABU_Value_init_tag@1@@Z ENDP ; std::vector<TGradientColor,std::allocator<TGradientColor> >::_Resize_reallocate<std::_Value_init_tag>
; Function compile flags: /Odspy
; File C:\Program Files (x86)\Microsoft Visual Studio\2019\Community\VC\Tools\MSVC\14.28.29333\include\xmemory
;	COMDAT ??$_Destroy_range@V?$allocator@UTGradientColor@@@std@@@std@@YAXPAUTGradientColor@@QAU1@AAV?$allocator@UTGradientColor@@@0@@Z
_TEXT	SEGMENT
__First$ = 8						; size = 4
__Last$ = 12						; size = 4
__Al$ = 16						; size = 4
??$_Destroy_range@V?$allocator@UTGradientColor@@@std@@@std@@YAXPAUTGradientColor@@QAU1@AAV?$allocator@UTGradientColor@@@0@@Z PROC ; std::_Destroy_range<std::allocator<TGradientColor> >, COMDAT

; 962  :     _Alloc_ptr_t<_Alloc> _First, const _Alloc_ptr_t<_Alloc> _Last, _Alloc& _Al) noexcept {

  00000	55		 push	 ebp
  00001	8b ec		 mov	 ebp, esp

; 963  :     // note that this is an optimization for debug mode codegen; in release mode the BE removes all of this
; 964  :     using _Ty = typename _Alloc::value_type;
; 965  :     if _CONSTEXPR_IF (!conjunction_v<is_trivially_destructible<_Ty>, _Uses_default_destroy<_Alloc, _Ty*>>) {
; 966  :         for (; _First != _Last; ++_First) {
; 967  :             allocator_traits<_Alloc>::destroy(_Al, _Unfancy(_First));
; 968  :         }
; 969  :     }
; 970  : }

  00003	5d		 pop	 ebp
  00004	c3		 ret	 0
??$_Destroy_range@V?$allocator@UTGradientColor@@@std@@@std@@YAXPAUTGradientColor@@QAU1@AAV?$allocator@UTGradientColor@@@0@@Z ENDP ; std::_Destroy_range<std::allocator<TGradientColor> >
_TEXT	ENDS
; Function compile flags: /Odspy
; File C:\Program Files (x86)\Microsoft Visual Studio\2019\Community\VC\Tools\MSVC\14.28.29333\include\vector
; File C:\Program Files (x86)\Microsoft Visual Studio\2019\Community\VC\Tools\MSVC\14.28.29333\include\xmemory
; File C:\Program Files (x86)\Microsoft Visual Studio\2019\Community\VC\Tools\MSVC\14.28.29333\include\vector
; File C:\Program Files (x86)\Microsoft Visual Studio\2019\Community\VC\Tools\MSVC\14.28.29333\include\xmemory
; File C:\Program Files (x86)\Microsoft Visual Studio\2019\Community\VC\Tools\MSVC\14.28.29333\include\vector
;	COMDAT ??$_Resize@U_Value_init_tag@std@@@?$vector@UTGradientColor@@V?$allocator@UTGradientColor@@@std@@@std@@AAEXIABU_Value_init_tag@1@@Z
_TEXT	SEGMENT
__Oldlast$1 = -56					; size = 4
$T2 = -52						; size = 4
$T3 = -48						; size = 4
__Oldcapacity$4 = -44					; size = 4
__Last$ = -40						; size = 4
$T5 = -36						; size = 4
$T6 = -32						; size = 4
__Newlast$7 = -28					; size = 4
__Oldsize$ = -24					; size = 4
__Myfirst$ = -20					; size = 4
__My_data$ = -16					; size = 4
_this$ = -12						; size = 4
__Mylast$ = -8						; size = 4
___formal$ = -4						; size = 1
__Newsize$ = 8						; size = 4
__Val$ = 12						; size = 4
??$_Resize@U_Value_init_tag@std@@@?$vector@UTGradientColor@@V?$allocator@UTGradientColor@@@std@@@std@@AAEXIABU_Value_init_tag@1@@Z PROC ; std::vector<TGradientColor,std::allocator<TGradientColor> >::_Resize<std::_Value_init_tag>, COMDAT
; _this$ = ecx

; 1211 :     void _Resize(const size_type _Newsize, const _Ty2& _Val) { // trim or append elements, provide strong guarantee

  00000	55		 push	 ebp
  00001	8b ec		 mov	 ebp, esp
  00003	83 ec 38	 sub	 esp, 56			; 00000038H
  00006	89 4d f4	 mov	 DWORD PTR _this$[ebp], ecx

; 1212 :         auto& _My_data      = _Mypair._Myval2;

  00009	8b 45 f4	 mov	 eax, DWORD PTR _this$[ebp]
  0000c	89 45 f0	 mov	 DWORD PTR __My_data$[ebp], eax

; 1213 :         pointer& _Myfirst   = _My_data._Myfirst;

  0000f	8b 45 f0	 mov	 eax, DWORD PTR __My_data$[ebp]
  00012	89 45 ec	 mov	 DWORD PTR __Myfirst$[ebp], eax

; 1214 :         pointer& _Mylast    = _My_data._Mylast;

  00015	8b 45 f0	 mov	 eax, DWORD PTR __My_data$[ebp]
  00018	83 c0 04	 add	 eax, 4
  0001b	89 45 f8	 mov	 DWORD PTR __Mylast$[ebp], eax

; 1215 :         const auto _Oldsize = static_cast<size_type>(_Mylast - _Myfirst);

  0001e	8b 45 f8	 mov	 eax, DWORD PTR __Mylast$[ebp]
  00021	8b 4d ec	 mov	 ecx, DWORD PTR __Myfirst$[ebp]
  00024	8b 00		 mov	 eax, DWORD PTR [eax]
  00026	2b 01		 sub	 eax, DWORD PTR [ecx]
  00028	c1 f8 05	 sar	 eax, 5
  0002b	89 45 e8	 mov	 DWORD PTR __Oldsize$[ebp], eax

; 1216 :         if (_Newsize < _Oldsize) { // trim

  0002e	8b 45 08	 mov	 eax, DWORD PTR __Newsize$[ebp]
  00031	3b 45 e8	 cmp	 eax, DWORD PTR __Oldsize$[ebp]
  00034	73 3d		 jae	 SHORT $LN2@Resize

; 1217 :             const pointer _Newlast = _Myfirst + _Newsize;

  00036	8b 45 08	 mov	 eax, DWORD PTR __Newsize$[ebp]
  00039	c1 e0 05	 shl	 eax, 5
  0003c	8b 4d ec	 mov	 ecx, DWORD PTR __Myfirst$[ebp]
  0003f	03 01		 add	 eax, DWORD PTR [ecx]
  00041	89 45 e4	 mov	 DWORD PTR __Newlast$7[ebp], eax

; 1218 :             _Orphan_range(_Newlast, _Mylast);
; 1219 :             _Destroy(_Newlast, _Mylast);

  00044	8b 45 f8	 mov	 eax, DWORD PTR __Mylast$[ebp]
  00047	8b 00		 mov	 eax, DWORD PTR [eax]
  00049	89 45 d8	 mov	 DWORD PTR __Last$[ebp], eax

; 1733 :         return _Mypair._Get_first();

  0004c	8b 45 f4	 mov	 eax, DWORD PTR _this$[ebp]
; File C:\Program Files (x86)\Microsoft Visual Studio\2019\Community\VC\Tools\MSVC\14.28.29333\include\xmemory

; 1347 :         return *this;

  0004f	89 45 e0	 mov	 DWORD PTR $T6[ebp], eax
; File C:\Program Files (x86)\Microsoft Visual Studio\2019\Community\VC\Tools\MSVC\14.28.29333\include\vector

; 1733 :         return _Mypair._Get_first();

  00052	8b 45 e0	 mov	 eax, DWORD PTR $T6[ebp]
  00055	89 45 dc	 mov	 DWORD PTR $T5[ebp], eax

; 1612 :         _Destroy_range(_First, _Last, _Getal());

  00058	ff 75 dc	 push	 DWORD PTR $T5[ebp]
  0005b	ff 75 d8	 push	 DWORD PTR __Last$[ebp]
  0005e	ff 75 e4	 push	 DWORD PTR __Newlast$7[ebp]
  00061	e8 00 00 00 00	 call	 ??$_Destroy_range@V?$allocator@UTGradientColor@@@std@@@std@@YAXPAUTGradientColor@@QAU1@AAV?$allocator@UTGradientColor@@@0@@Z ; std::_Destroy_range<std::allocator<TGradientColor> >
  00066	83 c4 0c	 add	 esp, 12			; 0000000cH

; 1220 :             _Mylast = _Newlast;

  00069	8b 45 f8	 mov	 eax, DWORD PTR __Mylast$[ebp]
  0006c	8b 4d e4	 mov	 ecx, DWORD PTR __Newlast$7[ebp]
  0006f	89 08		 mov	 DWORD PTR [eax], ecx

; 1221 :             return;

  00071	eb 67		 jmp	 SHORT $LN1@Resize
$LN2@Resize:

; 1222 :         }
; 1223 : 
; 1224 :         if (_Newsize > _Oldsize) { // append

  00073	8b 45 08	 mov	 eax, DWORD PTR __Newsize$[ebp]
  00076	3b 45 e8	 cmp	 eax, DWORD PTR __Oldsize$[ebp]
  00079	76 5f		 jbe	 SHORT $LN1@Resize

; 1225 :             const auto _Oldcapacity = static_cast<size_type>(_My_data._Myend - _Myfirst);

  0007b	8b 45 f0	 mov	 eax, DWORD PTR __My_data$[ebp]
  0007e	8b 4d ec	 mov	 ecx, DWORD PTR __Myfirst$[ebp]
  00081	8b 40 08	 mov	 eax, DWORD PTR [eax+8]
  00084	2b 01		 sub	 eax, DWORD PTR [ecx]
  00086	c1 f8 05	 sar	 eax, 5
  00089	89 45 d4	 mov	 DWORD PTR __Oldcapacity$4[ebp], eax

; 1226 :             if (_Newsize > _Oldcapacity) { // reallocate

  0008c	8b 45 08	 mov	 eax, DWORD PTR __Newsize$[ebp]
  0008f	3b 45 d4	 cmp	 eax, DWORD PTR __Oldcapacity$4[ebp]
  00092	76 10		 jbe	 SHORT $LN4@Resize

; 1227 :                 _Resize_reallocate(_Newsize, _Val);

  00094	ff 75 0c	 push	 DWORD PTR __Val$[ebp]
  00097	ff 75 08	 push	 DWORD PTR __Newsize$[ebp]
  0009a	8b 4d f4	 mov	 ecx, DWORD PTR _this$[ebp]
  0009d	e8 00 00 00 00	 call	 ??$_Resize_reallocate@U_Value_init_tag@std@@@?$vector@UTGradientColor@@V?$allocator@UTGradientColor@@@std@@@std@@AAEXIABU_Value_init_tag@1@@Z ; std::vector<TGradientColor,std::allocator<TGradientColor> >::_Resize_reallocate<std::_Value_init_tag>

; 1228 :                 return;

  000a2	eb 36		 jmp	 SHORT $LN1@Resize
$LN4@Resize:

; 1229 :             }
; 1230 : 
; 1231 :             const pointer _Oldlast = _Mylast;

  000a4	8b 45 f8	 mov	 eax, DWORD PTR __Mylast$[ebp]
  000a7	8b 00		 mov	 eax, DWORD PTR [eax]
  000a9	89 45 c8	 mov	 DWORD PTR __Oldlast$1[ebp], eax

; 1232 :             _Mylast                = _Ufill(_Oldlast, _Newsize - _Oldsize, _Val);

  000ac	8b 45 0c	 mov	 eax, DWORD PTR __Val$[ebp]
  000af	8a 00		 mov	 al, BYTE PTR [eax]
  000b1	88 45 fc	 mov	 BYTE PTR ___formal$[ebp], al

; 1733 :         return _Mypair._Get_first();

  000b4	8b 45 f4	 mov	 eax, DWORD PTR _this$[ebp]
; File C:\Program Files (x86)\Microsoft Visual Studio\2019\Community\VC\Tools\MSVC\14.28.29333\include\xmemory

; 1347 :         return *this;

  000b7	89 45 d0	 mov	 DWORD PTR $T3[ebp], eax
; File C:\Program Files (x86)\Microsoft Visual Studio\2019\Community\VC\Tools\MSVC\14.28.29333\include\vector

; 1733 :         return _Mypair._Get_first();

  000ba	8b 45 d0	 mov	 eax, DWORD PTR $T3[ebp]
  000bd	89 45 cc	 mov	 DWORD PTR $T2[ebp], eax

; 1583 :         return _Uninitialized_value_construct_n(_Dest, _Count, _Getal());

  000c0	ff 75 cc	 push	 DWORD PTR $T2[ebp]

; 1232 :             _Mylast                = _Ufill(_Oldlast, _Newsize - _Oldsize, _Val);

  000c3	8b 45 08	 mov	 eax, DWORD PTR __Newsize$[ebp]
  000c6	2b 45 e8	 sub	 eax, DWORD PTR __Oldsize$[ebp]

; 1583 :         return _Uninitialized_value_construct_n(_Dest, _Count, _Getal());

  000c9	50		 push	 eax
  000ca	ff 75 c8	 push	 DWORD PTR __Oldlast$1[ebp]
  000cd	e8 00 00 00 00	 call	 ??$_Uninitialized_value_construct_n@V?$allocator@UTGradientColor@@@std@@@std@@YAPAUTGradientColor@@PAU1@IAAV?$allocator@UTGradientColor@@@0@@Z ; std::_Uninitialized_value_construct_n<std::allocator<TGradientColor> >
  000d2	83 c4 0c	 add	 esp, 12			; 0000000cH

; 1232 :             _Mylast                = _Ufill(_Oldlast, _Newsize - _Oldsize, _Val);

  000d5	8b 4d f8	 mov	 ecx, DWORD PTR __Mylast$[ebp]
  000d8	89 01		 mov	 DWORD PTR [ecx], eax
$LN1@Resize:

; 1233 :             _Orphan_range(_Oldlast, _Oldlast);
; 1234 :         }
; 1235 : 
; 1236 :         // if _Newsize == _Oldsize, do nothing; avoid invalidating iterators
; 1237 :     }

  000da	c9		 leave
  000db	c2 08 00	 ret	 8
??$_Resize@U_Value_init_tag@std@@@?$vector@UTGradientColor@@V?$allocator@UTGradientColor@@@std@@@std@@AAEXIABU_Value_init_tag@1@@Z ENDP ; std::vector<TGradientColor,std::allocator<TGradientColor> >::_Resize<std::_Value_init_tag>
_TEXT	ENDS
; Function compile flags: /Odspy
; File C:\Program Files (x86)\Microsoft Visual Studio\2019\Community\VC\Tools\MSVC\14.28.29333\include\xmemory
;	COMDAT ??$_Allocate_manually_vector_aligned@U_Default_allocate_traits@std@@@std@@YAPAXI@Z
_TEXT	SEGMENT
__Ptr$ = -12						; size = 4
__Block_size$ = -8					; size = 4
__Ptr_container$ = -4					; size = 4
__Bytes$ = 8						; size = 4
??$_Allocate_manually_vector_aligned@U_Default_allocate_traits@std@@@std@@YAPAXI@Z PROC ; std::_Allocate_manually_vector_aligned<std::_Default_allocate_traits>, COMDAT

; 113  : __declspec(allocator) void* _Allocate_manually_vector_aligned(const size_t _Bytes) {

  00000	55		 push	 ebp
  00001	8b ec		 mov	 ebp, esp
  00003	83 ec 0c	 sub	 esp, 12			; 0000000cH

; 114  :     // allocate _Bytes manually aligned to at least _Big_allocation_alignment
; 115  :     const size_t _Block_size = _Non_user_size + _Bytes;

  00006	8b 45 08	 mov	 eax, DWORD PTR __Bytes$[ebp]
  00009	83 c0 23	 add	 eax, 35			; 00000023H
  0000c	89 45 f8	 mov	 DWORD PTR __Block_size$[ebp], eax

; 116  :     if (_Block_size <= _Bytes) {

  0000f	8b 45 f8	 mov	 eax, DWORD PTR __Block_size$[ebp]
  00012	3b 45 08	 cmp	 eax, DWORD PTR __Bytes$[ebp]
  00015	77 05		 ja	 SHORT $LN12@Allocate_m

; 117  :         _Throw_bad_array_new_length(); // add overflow

  00017	e8 00 00 00 00	 call	 ?_Throw_bad_array_new_length@std@@YAXXZ ; std::_Throw_bad_array_new_length
$LN12@Allocate_m:

; 77   :         return ::operator new(_Bytes);

  0001c	ff 75 f8	 push	 DWORD PTR __Block_size$[ebp]
  0001f	e8 00 00 00 00	 call	 ??2@YAPAXI@Z		; operator new
  00024	59		 pop	 ecx

; 118  :     }
; 119  : 
; 120  :     const uintptr_t _Ptr_container = reinterpret_cast<uintptr_t>(_Traits::_Allocate(_Block_size));

  00025	89 45 fc	 mov	 DWORD PTR __Ptr_container$[ebp], eax
$LN4@Allocate_m:

; 121  :     _STL_VERIFY(_Ptr_container != 0, "invalid argument"); // validate even in release since we're doing p[-1]

  00028	83 7d fc 00	 cmp	 DWORD PTR __Ptr_container$[ebp], 0
  0002c	74 02		 je	 SHORT $LN7@Allocate_m
  0002e	eb 09		 jmp	 SHORT $LN2@Allocate_m
$LN7@Allocate_m:
  00030	e8 00 00 00 00	 call	 __invalid_parameter_noinfo_noreturn
  00035	33 c0		 xor	 eax, eax
  00037	75 f7		 jne	 SHORT $LN7@Allocate_m
$LN2@Allocate_m:
  00039	33 c0		 xor	 eax, eax
  0003b	75 eb		 jne	 SHORT $LN4@Allocate_m

; 122  :     void* const _Ptr = reinterpret_cast<void*>((_Ptr_container + _Non_user_size) & ~(_Big_allocation_alignment - 1));

  0003d	8b 45 fc	 mov	 eax, DWORD PTR __Ptr_container$[ebp]
  00040	83 c0 23	 add	 eax, 35			; 00000023H
  00043	83 e0 e0	 and	 eax, -32		; ffffffe0H
  00046	89 45 f4	 mov	 DWORD PTR __Ptr$[ebp], eax

; 123  :     static_cast<uintptr_t*>(_Ptr)[-1] = _Ptr_container;

  00049	6a 04		 push	 4
  0004b	58		 pop	 eax
  0004c	6b c0 ff	 imul	 eax, eax, -1
  0004f	8b 4d f4	 mov	 ecx, DWORD PTR __Ptr$[ebp]
  00052	8b 55 fc	 mov	 edx, DWORD PTR __Ptr_container$[ebp]
  00055	89 14 01	 mov	 DWORD PTR [ecx+eax], edx

; 124  : 
; 125  : #ifdef _DEBUG
; 126  :     static_cast<uintptr_t*>(_Ptr)[-2] = _Big_allocation_sentinel;
; 127  : #endif // _DEBUG
; 128  :     return _Ptr;

  00058	8b 45 f4	 mov	 eax, DWORD PTR __Ptr$[ebp]
$LN11@Allocate_m:

; 129  : }

  0005b	c9		 leave
  0005c	c3		 ret	 0
??$_Allocate_manually_vector_aligned@U_Default_allocate_traits@std@@@std@@YAPAXI@Z ENDP ; std::_Allocate_manually_vector_aligned<std::_Default_allocate_traits>
_TEXT	ENDS
; Function compile flags: /Odspy
; File C:\Program Files (x86)\Microsoft Visual Studio\2019\Community\VC\Tools\MSVC\14.28.29333\include\xmemory
;	COMDAT ??$_Allocate@$07U_Default_allocate_traits@std@@$0A@@std@@YAPAXI@Z
_TEXT	SEGMENT
__Bytes$ = 8						; size = 4
??$_Allocate@$07U_Default_allocate_traits@std@@$0A@@std@@YAPAXI@Z PROC ; std::_Allocate<8,std::_Default_allocate_traits,0>, COMDAT

; 197  : __declspec(allocator) void* _Allocate(const size_t _Bytes) {

  00000	55		 push	 ebp
  00001	8b ec		 mov	 ebp, esp

; 198  :     // allocate _Bytes when !_HAS_ALIGNED_NEW || _Align <= __STDCPP_DEFAULT_NEW_ALIGNMENT__
; 199  : #if defined(_M_IX86) || defined(_M_X64)
; 200  :     if (_Bytes >= _Big_allocation_threshold) { // boost the alignment of big allocations to help autovectorization

  00003	81 7d 08 00 10
	00 00		 cmp	 DWORD PTR __Bytes$[ebp], 4096 ; 00001000H
  0000a	72 0b		 jb	 SHORT $LN2@Allocate

; 201  :         return _Allocate_manually_vector_aligned<_Traits>(_Bytes);

  0000c	ff 75 08	 push	 DWORD PTR __Bytes$[ebp]
  0000f	e8 00 00 00 00	 call	 ??$_Allocate_manually_vector_aligned@U_Default_allocate_traits@std@@@std@@YAPAXI@Z ; std::_Allocate_manually_vector_aligned<std::_Default_allocate_traits>
  00014	59		 pop	 ecx
  00015	eb 13		 jmp	 SHORT $LN1@Allocate
$LN2@Allocate:

; 202  :     }
; 203  : #endif // defined(_M_IX86) || defined(_M_X64)
; 204  : 
; 205  :     if (_Bytes != 0) {

  00017	83 7d 08 00	 cmp	 DWORD PTR __Bytes$[ebp], 0
  0001b	74 0b		 je	 SHORT $LN3@Allocate

; 77   :         return ::operator new(_Bytes);

  0001d	ff 75 08	 push	 DWORD PTR __Bytes$[ebp]
  00020	e8 00 00 00 00	 call	 ??2@YAPAXI@Z		; operator new
  00025	59		 pop	 ecx

; 206  :         return _Traits::_Allocate(_Bytes);

  00026	eb 02		 jmp	 SHORT $LN1@Allocate
$LN3@Allocate:

; 207  :     }
; 208  : 
; 209  :     return nullptr;

  00028	33 c0		 xor	 eax, eax
$LN1@Allocate:

; 210  : }

  0002a	5d		 pop	 ebp
  0002b	c3		 ret	 0
??$_Allocate@$07U_Default_allocate_traits@std@@$0A@@std@@YAPAXI@Z ENDP ; std::_Allocate<8,std::_Default_allocate_traits,0>
_TEXT	ENDS
; Function compile flags: /Odspy
; File C:\Program Files (x86)\Microsoft Visual Studio\2019\Community\VC\Tools\MSVC\14.28.29333\include\xmemory
;	COMDAT ??$_Deallocate@$07$0A@@std@@YAXPAXI@Z
_TEXT	SEGMENT
__$EHRec$ = -12						; size = 12
__Ptr$ = 8						; size = 4
__Bytes$ = 12						; size = 4
??$_Deallocate@$07$0A@@std@@YAXPAXI@Z PROC		; std::_Deallocate<8,0>, COMDAT

; 213  : void _Deallocate(void* _Ptr, size_t _Bytes) noexcept {

  00000	55		 push	 ebp
  00001	8b ec		 mov	 ebp, esp
  00003	6a ff		 push	 -1
  00005	68 00 00 00 00	 push	 __ehhandler$??$_Deallocate@$07$0A@@std@@YAXPAXI@Z
  0000a	64 a1 00 00 00
	00		 mov	 eax, DWORD PTR fs:0
  00010	50		 push	 eax
  00011	a1 00 00 00 00	 mov	 eax, DWORD PTR ___security_cookie
  00016	33 c5		 xor	 eax, ebp
  00018	50		 push	 eax
  00019	8d 45 f4	 lea	 eax, DWORD PTR __$EHRec$[ebp]
  0001c	64 a3 00 00 00
	00		 mov	 DWORD PTR fs:0, eax

; 214  :     // deallocate storage allocated by _Allocate when !_HAS_ALIGNED_NEW || _Align <= __STDCPP_DEFAULT_NEW_ALIGNMENT__
; 215  : #if defined(_M_IX86) || defined(_M_X64)
; 216  :     if (_Bytes >= _Big_allocation_threshold) { // boost the alignment of big allocations to help autovectorization

  00022	81 7d 0c 00 10
	00 00		 cmp	 DWORD PTR __Bytes$[ebp], 4096 ; 00001000H
  00029	72 0f		 jb	 SHORT $LN2@Deallocate

; 217  :         _Adjust_manually_vector_aligned(_Ptr, _Bytes);

  0002b	8d 45 0c	 lea	 eax, DWORD PTR __Bytes$[ebp]
  0002e	50		 push	 eax
  0002f	8d 45 08	 lea	 eax, DWORD PTR __Ptr$[ebp]
  00032	50		 push	 eax
  00033	e8 00 00 00 00	 call	 ?_Adjust_manually_vector_aligned@std@@YAXAAPAXAAI@Z ; std::_Adjust_manually_vector_aligned
  00038	59		 pop	 ecx
  00039	59		 pop	 ecx
$LN2@Deallocate:

; 218  :     }
; 219  : #endif // defined(_M_IX86) || defined(_M_X64)
; 220  : 
; 221  :     ::operator delete(_Ptr, _Bytes);

  0003a	ff 75 0c	 push	 DWORD PTR __Bytes$[ebp]
  0003d	ff 75 08	 push	 DWORD PTR __Ptr$[ebp]
  00040	e8 00 00 00 00	 call	 ??3@YAXPAXI@Z		; operator delete
  00045	59		 pop	 ecx
  00046	59		 pop	 ecx

; 222  : }

  00047	8b 4d f4	 mov	 ecx, DWORD PTR __$EHRec$[ebp]
  0004a	64 89 0d 00 00
	00 00		 mov	 DWORD PTR fs:0, ecx
  00051	59		 pop	 ecx
  00052	c9		 leave
  00053	c3		 ret	 0
  00054	cc		 int	 3
  00055	cc		 int	 3
  00056	cc		 int	 3
  00057	cc		 int	 3
  00058	cc		 int	 3
_TEXT	ENDS
;	COMDAT text$x
text$x	SEGMENT
__ehhandler$??$_Deallocate@$07$0A@@std@@YAXPAXI@Z:
  00000	90		 npad	 1
  00001	90		 npad	 1
  00002	8b 54 24 08	 mov	 edx, DWORD PTR [esp+8]
  00006	8d 42 0c	 lea	 eax, DWORD PTR [edx+12]
  00009	8b 4a fc	 mov	 ecx, DWORD PTR [edx-4]
  0000c	33 c8		 xor	 ecx, eax
  0000e	e8 00 00 00 00	 call	 @__security_check_cookie@4
  00013	b8 00 00 00 00	 mov	 eax, OFFSET __ehfuncinfo$??$_Deallocate@$07$0A@@std@@YAXPAXI@Z
  00018	e9 00 00 00 00	 jmp	 ___CxxFrameHandler3
text$x	ENDS
??$_Deallocate@$07$0A@@std@@YAXPAXI@Z ENDP		; std::_Deallocate<8,0>
; Function compile flags: /Odspy
; File C:\Program Files (x86)\Microsoft Visual Studio\2019\Community\VC\Tools\MSVC\14.28.29333\include\xmemory
; File C:\Program Files (x86)\Microsoft Visual Studio\2019\Community\VC\Tools\MSVC\14.28.29333\include\xstddef
; File C:\Program Files (x86)\Microsoft Visual Studio\2019\Community\VC\Tools\MSVC\14.28.29333\include\vcruntime_new.h
; File C:\Program Files (x86)\Microsoft Visual Studio\2019\Community\VC\Tools\MSVC\14.28.29333\include\type_traits
; File C:\Program Files (x86)\Microsoft Visual Studio\2019\Community\VC\Tools\MSVC\14.28.29333\include\xmemory
;	COMDAT ??$_Construct_in_place@PADABQAD@std@@YAXAAPADABQAD@Z
_TEXT	SEGMENT
$T1 = -12						; size = 4
$T2 = -8						; size = 4
$T3 = -4						; size = 4
__Obj$ = 8						; size = 4
_<_Args_0>$ = 12					; size = 4
??$_Construct_in_place@PADABQAD@std@@YAXAAPADABQAD@Z PROC ; std::_Construct_in_place<char *,char * const &>, COMDAT

; 228  : void _Construct_in_place(_Ty& _Obj, _Types&&... _Args) noexcept(is_nothrow_constructible_v<_Ty, _Types...>) {

  00000	55		 push	 ebp
  00001	8b ec		 mov	 ebp, esp
  00003	83 ec 0c	 sub	 esp, 12			; 0000000cH
; File C:\Program Files (x86)\Microsoft Visual Studio\2019\Community\VC\Tools\MSVC\14.28.29333\include\xstddef

; 275  :     return __builtin_addressof(_Val);

  00006	8b 45 08	 mov	 eax, DWORD PTR __Obj$[ebp]
  00009	89 45 fc	 mov	 DWORD PTR $T3[ebp], eax
; File C:\Program Files (x86)\Microsoft Visual Studio\2019\Community\VC\Tools\MSVC\14.28.29333\include\vcruntime_new.h

; 169  :         return _Where;

  0000c	8b 45 fc	 mov	 eax, DWORD PTR $T3[ebp]
  0000f	89 45 f8	 mov	 DWORD PTR $T2[ebp], eax
; File C:\Program Files (x86)\Microsoft Visual Studio\2019\Community\VC\Tools\MSVC\14.28.29333\include\type_traits

; 1443 :     return static_cast<_Ty&&>(_Arg);

  00012	8b 45 0c	 mov	 eax, DWORD PTR _<_Args_0>$[ebp]
  00015	89 45 f4	 mov	 DWORD PTR $T1[ebp], eax
; File C:\Program Files (x86)\Microsoft Visual Studio\2019\Community\VC\Tools\MSVC\14.28.29333\include\xmemory

; 229  :     ::new (const_cast<void*>(static_cast<const volatile void*>(_STD addressof(_Obj))))

  00018	8b 45 f8	 mov	 eax, DWORD PTR $T2[ebp]
  0001b	8b 4d f4	 mov	 ecx, DWORD PTR $T1[ebp]
  0001e	8b 09		 mov	 ecx, DWORD PTR [ecx]
  00020	89 08		 mov	 DWORD PTR [eax], ecx

; 230  :         _Ty(_STD forward<_Types>(_Args)...);
; 231  : }

  00022	c9		 leave
  00023	c3		 ret	 0
??$_Construct_in_place@PADABQAD@std@@YAXAAPADABQAD@Z ENDP ; std::_Construct_in_place<char *,char * const &>
_TEXT	ENDS
; Function compile flags: /Odspy
; File C:\Program Files (x86)\Microsoft Visual Studio\2019\Community\VC\Tools\MSVC\14.28.29333\include\xstring
; File C:\Program Files (x86)\Microsoft Visual Studio\2019\Community\VC\Tools\MSVC\14.28.29333\include\xmemory
; File C:\Program Files (x86)\Microsoft Visual Studio\2019\Community\VC\Tools\MSVC\14.28.29333\include\xstring
; File C:\Program Files (x86)\Microsoft Visual Studio\2019\Community\VC\Tools\MSVC\14.28.29333\include\xmemory
; File C:\Program Files (x86)\Microsoft Visual Studio\2019\Community\VC\Tools\MSVC\14.28.29333\include\xstring
; File C:\Program Files (x86)\Microsoft Visual Studio\2019\Community\VC\Tools\MSVC\14.28.29333\include\xmemory
; File C:\Program Files (x86)\Microsoft Visual Studio\2019\Community\VC\Tools\MSVC\14.28.29333\include\xstring
; File C:\Program Files (x86)\Microsoft Visual Studio\2019\Community\VC\Tools\MSVC\14.28.29333\include\xstddef
; File C:\Program Files (x86)\Microsoft Visual Studio\2019\Community\VC\Tools\MSVC\14.28.29333\include\xstring
; File C:\Program Files (x86)\Microsoft Visual Studio\2019\Community\VC\Tools\MSVC\14.28.29333\include\xmemory
; File C:\Program Files (x86)\Microsoft Visual Studio\2019\Community\VC\Tools\MSVC\14.28.29333\include\xstring
;	COMDAT ??$_Reallocate_for@V<lambda_9366063389c5f42a00a5088cf24e69de>@@PBD@?$basic_string@DU?$char_traits@D@std@@V?$allocator@D@2@@std@@AAEAAV01@IV<lambda_9366063389c5f42a00a5088cf24e69de>@@PBD@Z
_TEXT	SEGMENT
__Al$ = -40						; size = 4
__Ptr$ = -36						; size = 4
__Ptr$ = -32						; size = 4
$T1 = -28						; size = 4
__Old_capacity$ = -24					; size = 4
$T2 = -20						; size = 4
__New_capacity$ = -16					; size = 4
__New_ptr$ = -12					; size = 4
_this$ = -8						; size = 4
__Overflow_is_possible$3 = -2				; size = 1
$T4 = -1						; size = 1
__New_size$ = 8						; size = 4
__Fn$ = 12						; size = 1
_<_Args_0>$ = 16					; size = 4
??$_Reallocate_for@V<lambda_9366063389c5f42a00a5088cf24e69de>@@PBD@?$basic_string@DU?$char_traits@D@std@@V?$allocator@D@2@@std@@AAEAAV01@IV<lambda_9366063389c5f42a00a5088cf24e69de>@@PBD@Z PROC ; std::basic_string<char,std::char_traits<char>,std::allocator<char> >::_Reallocate_for<<lambda_9366063389c5f42a00a5088cf24e69de>,char const *>, COMDAT
; _this$ = ecx

; 4302 :     basic_string& _Reallocate_for(const size_type _New_size, _Fty _Fn, _ArgTys... _Args) {

  00000	55		 push	 ebp
  00001	8b ec		 mov	 ebp, esp
  00003	83 ec 28	 sub	 esp, 40			; 00000028H
  00006	89 4d f8	 mov	 DWORD PTR _this$[ebp], ecx

; 4303 :         // reallocate to store exactly _New_size elements, new buffer prepared by
; 4304 :         // _Fn(_New_ptr, _New_size, _Args...)
; 4305 :         if (_New_size > max_size()) {

  00009	8b 4d f8	 mov	 ecx, DWORD PTR _this$[ebp]
  0000c	e8 00 00 00 00	 call	 ?max_size@?$basic_string@DU?$char_traits@D@std@@V?$allocator@D@2@@std@@QBEIXZ ; std::basic_string<char,std::char_traits<char>,std::allocator<char> >::max_size
  00011	39 45 08	 cmp	 DWORD PTR __New_size$[ebp], eax
  00014	76 05		 jbe	 SHORT $LN2@Reallocate

; 4306 :             _Xlen_string(); // result too long

  00016	e8 00 00 00 00	 call	 ?_Xlen_string@std@@YAXXZ ; std::_Xlen_string
$LN2@Reallocate:

; 4307 :         }
; 4308 : 
; 4309 :         const size_type _Old_capacity = _Mypair._Myval2._Myres;

  0001b	8b 45 f8	 mov	 eax, DWORD PTR _this$[ebp]
  0001e	8b 40 14	 mov	 eax, DWORD PTR [eax+20]
  00021	89 45 e8	 mov	 DWORD PTR __Old_capacity$[ebp], eax

; 4310 :         const size_type _New_capacity = _Calculate_growth(_New_size);

  00024	ff 75 08	 push	 DWORD PTR __New_size$[ebp]
  00027	8b 4d f8	 mov	 ecx, DWORD PTR _this$[ebp]
  0002a	e8 00 00 00 00	 call	 ?_Calculate_growth@?$basic_string@DU?$char_traits@D@std@@V?$allocator@D@2@@std@@ABEII@Z ; std::basic_string<char,std::char_traits<char>,std::allocator<char> >::_Calculate_growth
  0002f	89 45 f0	 mov	 DWORD PTR __New_capacity$[ebp], eax

; 4409 :         return _Mypair._Get_first();

  00032	8b 45 f8	 mov	 eax, DWORD PTR _this$[ebp]
; File C:\Program Files (x86)\Microsoft Visual Studio\2019\Community\VC\Tools\MSVC\14.28.29333\include\xmemory

; 1347 :         return *this;

  00035	89 45 e4	 mov	 DWORD PTR $T1[ebp], eax
; File C:\Program Files (x86)\Microsoft Visual Studio\2019\Community\VC\Tools\MSVC\14.28.29333\include\xstring

; 4409 :         return _Mypair._Get_first();

  00038	8b 45 e4	 mov	 eax, DWORD PTR $T1[ebp]
  0003b	89 45 d8	 mov	 DWORD PTR __Al$[ebp], eax
; File C:\Program Files (x86)\Microsoft Visual Studio\2019\Community\VC\Tools\MSVC\14.28.29333\include\xmemory

; 56   :     constexpr bool _Overflow_is_possible = _Ty_size > 1;

  0003e	c6 45 fe 00	 mov	 BYTE PTR __Overflow_is_possible$3[ebp], 0
; File C:\Program Files (x86)\Microsoft Visual Studio\2019\Community\VC\Tools\MSVC\14.28.29333\include\xstring

; 4312 :         const pointer _New_ptr        = _Al.allocate(_New_capacity + 1); // throws

  00042	8b 45 f0	 mov	 eax, DWORD PTR __New_capacity$[ebp]
  00045	40		 inc	 eax
; File C:\Program Files (x86)\Microsoft Visual Studio\2019\Community\VC\Tools\MSVC\14.28.29333\include\xmemory

; 814  :         return static_cast<_Ty*>(_Allocate<_New_alignof<_Ty>>(_Get_size_of_n<sizeof(_Ty)>(_Count)));

  00046	50		 push	 eax
  00047	e8 00 00 00 00	 call	 ??$_Allocate@$07U_Default_allocate_traits@std@@$0A@@std@@YAPAXI@Z ; std::_Allocate<8,std::_Default_allocate_traits,0>
  0004c	59		 pop	 ecx
; File C:\Program Files (x86)\Microsoft Visual Studio\2019\Community\VC\Tools\MSVC\14.28.29333\include\xstring

; 4312 :         const pointer _New_ptr        = _Al.allocate(_New_capacity + 1); // throws

  0004d	89 45 f4	 mov	 DWORD PTR __New_ptr$[ebp], eax

; 4313 :         _Mypair._Myval2._Orphan_all();
; 4314 :         _Mypair._Myval2._Mysize = _New_size;

  00050	8b 45 f8	 mov	 eax, DWORD PTR _this$[ebp]
  00053	8b 4d 08	 mov	 ecx, DWORD PTR __New_size$[ebp]
  00056	89 48 10	 mov	 DWORD PTR [eax+16], ecx

; 4315 :         _Mypair._Myval2._Myres  = _New_capacity;

  00059	8b 45 f8	 mov	 eax, DWORD PTR _this$[ebp]
  0005c	8b 4d f0	 mov	 ecx, DWORD PTR __New_capacity$[ebp]
  0005f	89 48 14	 mov	 DWORD PTR [eax+20], ecx

; 4316 :         _Fn(_Unfancy(_New_ptr), _New_size, _Args...);

  00062	8b 45 f4	 mov	 eax, DWORD PTR __New_ptr$[ebp]
  00065	89 45 e0	 mov	 DWORD PTR __Ptr$[ebp], eax
; File C:\Program Files (x86)\Microsoft Visual Studio\2019\Community\VC\Tools\MSVC\14.28.29333\include\xstddef

; 289  :     return _Ptr;

  00068	8b 45 e0	 mov	 eax, DWORD PTR __Ptr$[ebp]
  0006b	89 45 ec	 mov	 DWORD PTR $T2[ebp], eax
; File C:\Program Files (x86)\Microsoft Visual Studio\2019\Community\VC\Tools\MSVC\14.28.29333\include\xstring

; 62   :         _CSTD memcpy(_First1, _First2, _Count * sizeof(_Elem));

  0006e	ff 75 08	 push	 DWORD PTR __New_size$[ebp]
  00071	ff 75 10	 push	 DWORD PTR _<_Args_0>$[ebp]
  00074	ff 75 ec	 push	 DWORD PTR $T2[ebp]
  00077	e8 00 00 00 00	 call	 _memcpy
  0007c	83 c4 0c	 add	 esp, 12			; 0000000cH

; 3056 :                 _Traits::assign(_New_ptr[_Count], _Elem());

  0007f	c6 45 ff 00	 mov	 BYTE PTR $T4[ebp], 0

; 428  :         _Left = _Right;

  00083	8b 45 ec	 mov	 eax, DWORD PTR $T2[ebp]
  00086	03 45 08	 add	 eax, DWORD PTR __New_size$[ebp]
  00089	8a 4d ff	 mov	 cl, BYTE PTR $T4[ebp]
  0008c	88 08		 mov	 BYTE PTR [eax], cl

; 4317 :         if (_BUF_SIZE <= _Old_capacity) {

  0008e	83 7d e8 10	 cmp	 DWORD PTR __Old_capacity$[ebp], 16 ; 00000010H
  00092	72 21		 jb	 SHORT $LN3@Reallocate

; 4318 :             _Al.deallocate(_Mypair._Myval2._Bx._Ptr, _Old_capacity + 1);

  00094	8b 45 f8	 mov	 eax, DWORD PTR _this$[ebp]
  00097	8b 00		 mov	 eax, DWORD PTR [eax]
  00099	89 45 dc	 mov	 DWORD PTR __Ptr$[ebp], eax
  0009c	8b 45 e8	 mov	 eax, DWORD PTR __Old_capacity$[ebp]
  0009f	40		 inc	 eax
; File C:\Program Files (x86)\Microsoft Visual Studio\2019\Community\VC\Tools\MSVC\14.28.29333\include\xmemory

; 810  :         _Deallocate<_New_alignof<_Ty>>(_Ptr, sizeof(_Ty) * _Count);

  000a0	50		 push	 eax
  000a1	ff 75 dc	 push	 DWORD PTR __Ptr$[ebp]
  000a4	e8 00 00 00 00	 call	 ??$_Deallocate@$07$0A@@std@@YAXPAXI@Z ; std::_Deallocate<8,0>
  000a9	59		 pop	 ecx
  000aa	59		 pop	 ecx
; File C:\Program Files (x86)\Microsoft Visual Studio\2019\Community\VC\Tools\MSVC\14.28.29333\include\xstring

; 4319 :             _Mypair._Myval2._Bx._Ptr = _New_ptr;

  000ab	8b 45 f8	 mov	 eax, DWORD PTR _this$[ebp]
  000ae	8b 4d f4	 mov	 ecx, DWORD PTR __New_ptr$[ebp]
  000b1	89 08		 mov	 DWORD PTR [eax], ecx

; 4320 :         } else {

  000b3	eb 0e		 jmp	 SHORT $LN4@Reallocate
$LN3@Reallocate:

; 4321 :             _Construct_in_place(_Mypair._Myval2._Bx._Ptr, _New_ptr);

  000b5	8d 45 f4	 lea	 eax, DWORD PTR __New_ptr$[ebp]
  000b8	50		 push	 eax
  000b9	ff 75 f8	 push	 DWORD PTR _this$[ebp]
  000bc	e8 00 00 00 00	 call	 ??$_Construct_in_place@PADABQAD@std@@YAXAAPADABQAD@Z ; std::_Construct_in_place<char *,char * const &>
  000c1	59		 pop	 ecx
  000c2	59		 pop	 ecx
$LN4@Reallocate:

; 4322 :         }
; 4323 : 
; 4324 :         return *this;

  000c3	8b 45 f8	 mov	 eax, DWORD PTR _this$[ebp]
$LN5@Reallocate:

; 4325 :     }

  000c6	c9		 leave
  000c7	c2 0c 00	 ret	 12			; 0000000cH
??$_Reallocate_for@V<lambda_9366063389c5f42a00a5088cf24e69de>@@PBD@?$basic_string@DU?$char_traits@D@std@@V?$allocator@D@2@@std@@AAEAAV01@IV<lambda_9366063389c5f42a00a5088cf24e69de>@@PBD@Z ENDP ; std::basic_string<char,std::char_traits<char>,std::allocator<char> >::_Reallocate_for<<lambda_9366063389c5f42a00a5088cf24e69de>,char const *>
_TEXT	ENDS
; Function compile flags: /Odspy
; File C:\Program Files (x86)\Microsoft Visual Studio\2019\Community\VC\Tools\MSVC\14.28.29333\include\xmemory
;	COMDAT ??$_Destroy_in_place@PAD@std@@YAXAAPAD@Z
_TEXT	SEGMENT
__Obj$ = 8						; size = 4
??$_Destroy_in_place@PAD@std@@YAXAAPAD@Z PROC		; std::_Destroy_in_place<char *>, COMDAT

; 270  : /* _CONSTEXPR20_DYNALLOC */ void _Destroy_in_place(_Ty& _Obj) noexcept {

  00000	55		 push	 ebp
  00001	8b ec		 mov	 ebp, esp

; 271  : #if _HAS_IF_CONSTEXPR
; 272  :     if constexpr (is_array_v<_Ty>) {
; 273  :         _Destroy_range(_Obj, _Obj + extent_v<_Ty>);
; 274  :     } else
; 275  : #endif // _HAS_IF_CONSTEXPR
; 276  :     {
; 277  :         _Obj.~_Ty();
; 278  :     }
; 279  : }

  00003	5d		 pop	 ebp
  00004	c3		 ret	 0
??$_Destroy_in_place@PAD@std@@YAXAAPAD@Z ENDP		; std::_Destroy_in_place<char *>
_TEXT	ENDS
; Function compile flags: /Odspy
;	COMDAT ??_GCEaseOutInterpolation@@UAEPAXI@Z
_TEXT	SEGMENT
_this$ = -4						; size = 4
___flags$ = 8						; size = 4
??_GCEaseOutInterpolation@@UAEPAXI@Z PROC		; CEaseOutInterpolation::`scalar deleting destructor', COMDAT
; _this$ = ecx
  00000	55		 push	 ebp
  00001	8b ec		 mov	 ebp, esp
  00003	51		 push	 ecx
  00004	89 4d fc	 mov	 DWORD PTR _this$[ebp], ecx
  00007	8b 4d fc	 mov	 ecx, DWORD PTR _this$[ebp]
  0000a	e8 00 00 00 00	 call	 ??1CEaseOutInterpolation@@UAE@XZ ; CEaseOutInterpolation::~CEaseOutInterpolation
  0000f	8b 45 08	 mov	 eax, DWORD PTR ___flags$[ebp]
  00012	83 e0 01	 and	 eax, 1
  00015	74 0c		 je	 SHORT $LN2@scalar
  00017	6a 1c		 push	 28			; 0000001cH
  00019	ff 75 fc	 push	 DWORD PTR _this$[ebp]
  0001c	e8 00 00 00 00	 call	 ??3@YAXPAXI@Z		; operator delete
  00021	59		 pop	 ecx
  00022	59		 pop	 ecx
$LN2@scalar:
  00023	8b 45 fc	 mov	 eax, DWORD PTR _this$[ebp]
  00026	c9		 leave
  00027	c2 04 00	 ret	 4
??_GCEaseOutInterpolation@@UAEPAXI@Z ENDP		; CEaseOutInterpolation::`scalar deleting destructor'
_TEXT	ENDS
; Function compile flags: /Odspy
; File D:\Metin2 Server Files\mainline\SRC_2014\Metin2Client\GameLib\MapUtil.cpp
;	COMDAT ?GetChangingValue@CEaseOutInterpolation@@QAEMXZ
_TEXT	SEGMENT
tv71 = -8						; size = 4
_this$ = -4						; size = 4
?GetChangingValue@CEaseOutInterpolation@@QAEMXZ PROC	; CEaseOutInterpolation::GetChangingValue, COMDAT
; _this$ = ecx

; 304  : {

  00000	55		 push	 ebp
  00001	8b ec		 mov	 ebp, esp
  00003	51		 push	 ecx
  00004	51		 push	 ecx
  00005	89 4d fc	 mov	 DWORD PTR _this$[ebp], ecx

; 305  : 	return m_fValue - m_fLastValue;

  00008	8b 45 fc	 mov	 eax, DWORD PTR _this$[ebp]
  0000b	8b 4d fc	 mov	 ecx, DWORD PTR _this$[ebp]
  0000e	f3 0f 10 40 08	 movss	 xmm0, DWORD PTR [eax+8]
  00013	f3 0f 5c 41 18	 subss	 xmm0, DWORD PTR [ecx+24]
  00018	f3 0f 11 45 f8	 movss	 DWORD PTR tv71[ebp], xmm0
  0001d	d9 45 f8	 fld	 DWORD PTR tv71[ebp]

; 306  : }

  00020	c9		 leave
  00021	c3		 ret	 0
?GetChangingValue@CEaseOutInterpolation@@QAEMXZ ENDP	; CEaseOutInterpolation::GetChangingValue
_TEXT	ENDS
; Function compile flags: /Odspy
; File D:\Metin2 Server Files\mainline\SRC_2014\Metin2Client\GameLib\MapUtil.cpp
;	COMDAT ?GetValue@CEaseOutInterpolation@@QAEMXZ
_TEXT	SEGMENT
_this$ = -4						; size = 4
?GetValue@CEaseOutInterpolation@@QAEMXZ PROC		; CEaseOutInterpolation::GetValue, COMDAT
; _this$ = ecx

; 299  : {

  00000	55		 push	 ebp
  00001	8b ec		 mov	 ebp, esp
  00003	51		 push	 ecx
  00004	89 4d fc	 mov	 DWORD PTR _this$[ebp], ecx

; 300  : 	return m_fValue;

  00007	8b 45 fc	 mov	 eax, DWORD PTR _this$[ebp]
  0000a	d9 40 08	 fld	 DWORD PTR [eax+8]

; 301  : }

  0000d	c9		 leave
  0000e	c3		 ret	 0
?GetValue@CEaseOutInterpolation@@QAEMXZ ENDP		; CEaseOutInterpolation::GetValue
_TEXT	ENDS
; Function compile flags: /Odspy
; File D:\Metin2 Server Files\mainline\SRC_2014\Metin2Client\GameLib\MapUtil.cpp
;	COMDAT ?isPlaying@CEaseOutInterpolation@@QAEHXZ
_TEXT	SEGMENT
_this$ = -8						; size = 4
tv66 = -4						; size = 4
?isPlaying@CEaseOutInterpolation@@QAEHXZ PROC		; CEaseOutInterpolation::isPlaying, COMDAT
; _this$ = ecx

; 294  : {

  00000	55		 push	 ebp
  00001	8b ec		 mov	 ebp, esp
  00003	51		 push	 ecx
  00004	51		 push	 ecx
  00005	89 4d f8	 mov	 DWORD PTR _this$[ebp], ecx

; 295  : 	return m_fRemainingTime > 0.0f;

  00008	8b 45 f8	 mov	 eax, DWORD PTR _this$[ebp]
  0000b	f3 0f 10 40 04	 movss	 xmm0, DWORD PTR [eax+4]
  00010	0f 2f 05 00 00
	00 00		 comiss	 xmm0, DWORD PTR __real@00000000
  00017	76 09		 jbe	 SHORT $LN3@isPlaying
  00019	c7 45 fc 01 00
	00 00		 mov	 DWORD PTR tv66[ebp], 1
  00020	eb 04		 jmp	 SHORT $LN4@isPlaying
$LN3@isPlaying:
  00022	83 65 fc 00	 and	 DWORD PTR tv66[ebp], 0
$LN4@isPlaying:
  00026	8b 45 fc	 mov	 eax, DWORD PTR tv66[ebp]

; 296  : }

  00029	c9		 leave
  0002a	c3		 ret	 0
?isPlaying@CEaseOutInterpolation@@QAEHXZ ENDP		; CEaseOutInterpolation::isPlaying
_TEXT	ENDS
; Function compile flags: /Odspy
; File D:\Metin2 Server Files\mainline\SRC_2014\Metin2Client\GameLib\MapUtil.cpp
;	COMDAT ?Interpolate@CEaseOutInterpolation@@QAEXM@Z
_TEXT	SEGMENT
_this$ = -4						; size = 4
_fElapsedTime$ = 8					; size = 4
?Interpolate@CEaseOutInterpolation@@QAEXM@Z PROC	; CEaseOutInterpolation::Interpolate, COMDAT
; _this$ = ecx

; 279  : {

  00000	55		 push	 ebp
  00001	8b ec		 mov	 ebp, esp
  00003	51		 push	 ecx
  00004	89 4d fc	 mov	 DWORD PTR _this$[ebp], ecx

; 280  : 	m_fLastValue = m_fValue;

  00007	8b 45 fc	 mov	 eax, DWORD PTR _this$[ebp]
  0000a	8b 4d fc	 mov	 ecx, DWORD PTR _this$[ebp]
  0000d	8b 49 08	 mov	 ecx, DWORD PTR [ecx+8]
  00010	89 48 18	 mov	 DWORD PTR [eax+24], ecx

; 281  : 
; 282  : 	m_fRemainingTime -= fElapsedTime;

  00013	8b 45 fc	 mov	 eax, DWORD PTR _this$[ebp]
  00016	f3 0f 10 40 04	 movss	 xmm0, DWORD PTR [eax+4]
  0001b	f3 0f 5c 45 08	 subss	 xmm0, DWORD PTR _fElapsedTime$[ebp]
  00020	8b 45 fc	 mov	 eax, DWORD PTR _this$[ebp]
  00023	f3 0f 11 40 04	 movss	 DWORD PTR [eax+4], xmm0

; 283  : 	m_fSpeed += m_fAcceleration * fElapsedTime;

  00028	8b 45 fc	 mov	 eax, DWORD PTR _this$[ebp]
  0002b	f3 0f 10 40 10	 movss	 xmm0, DWORD PTR [eax+16]
  00030	f3 0f 59 45 08	 mulss	 xmm0, DWORD PTR _fElapsedTime$[ebp]
  00035	8b 45 fc	 mov	 eax, DWORD PTR _this$[ebp]
  00038	f3 0f 58 40 0c	 addss	 xmm0, DWORD PTR [eax+12]
  0003d	8b 45 fc	 mov	 eax, DWORD PTR _this$[ebp]
  00040	f3 0f 11 40 0c	 movss	 DWORD PTR [eax+12], xmm0

; 284  : 	m_fValue += m_fSpeed * fElapsedTime;

  00045	8b 45 fc	 mov	 eax, DWORD PTR _this$[ebp]
  00048	f3 0f 10 40 0c	 movss	 xmm0, DWORD PTR [eax+12]
  0004d	f3 0f 59 45 08	 mulss	 xmm0, DWORD PTR _fElapsedTime$[ebp]
  00052	8b 45 fc	 mov	 eax, DWORD PTR _this$[ebp]
  00055	f3 0f 58 40 08	 addss	 xmm0, DWORD PTR [eax+8]
  0005a	8b 45 fc	 mov	 eax, DWORD PTR _this$[ebp]
  0005d	f3 0f 11 40 08	 movss	 DWORD PTR [eax+8], xmm0

; 285  : 
; 286  : 	if (!isPlaying())

  00062	8b 4d fc	 mov	 ecx, DWORD PTR _this$[ebp]
  00065	e8 00 00 00 00	 call	 ?isPlaying@CEaseOutInterpolation@@QAEHXZ ; CEaseOutInterpolation::isPlaying
  0006a	85 c0		 test	 eax, eax
  0006c	75 16		 jne	 SHORT $LN2@Interpolat

; 287  : 	{
; 288  : 		m_fValue = 0.0f;

  0006e	8b 45 fc	 mov	 eax, DWORD PTR _this$[ebp]
  00071	0f 57 c0	 xorps	 xmm0, xmm0
  00074	f3 0f 11 40 08	 movss	 DWORD PTR [eax+8], xmm0

; 289  : 		m_fLastValue = 0.0f;

  00079	8b 45 fc	 mov	 eax, DWORD PTR _this$[ebp]
  0007c	0f 57 c0	 xorps	 xmm0, xmm0
  0007f	f3 0f 11 40 18	 movss	 DWORD PTR [eax+24], xmm0
$LN2@Interpolat:

; 290  : 	}
; 291  : }

  00084	c9		 leave
  00085	c2 04 00	 ret	 4
?Interpolate@CEaseOutInterpolation@@QAEXM@Z ENDP	; CEaseOutInterpolation::Interpolate
_TEXT	ENDS
; Function compile flags: /Odspy
; File D:\Metin2 Server Files\mainline\SRC_2014\Metin2Client\GameLib\MapUtil.cpp
; File C:\Program Files (x86)\Windows Kits\10\Include\10.0.18362.0\ucrt\corecrt_math.h
; File C:\Program Files (x86)\Microsoft Visual Studio\2019\Community\VC\Tools\MSVC\14.28.29333\include\cmath
; File D:\Metin2 Server Files\mainline\SRC_2014\Metin2Client\GameLib\MapUtil.cpp
;	COMDAT ?Setup@CEaseOutInterpolation@@QAEHMMM@Z
_TEXT	SEGMENT
$T1 = -8						; size = 4
_this$ = -4						; size = 4
_fStart$ = 8						; size = 4
_fEnd$ = 12						; size = 4
_fTime$ = 16						; size = 4
?Setup@CEaseOutInterpolation@@QAEHMMM@Z PROC		; CEaseOutInterpolation::Setup, COMDAT
; _this$ = ecx

; 260  : {

  00000	55		 push	 ebp
  00001	8b ec		 mov	 ebp, esp
  00003	51		 push	 ecx
  00004	51		 push	 ecx
  00005	89 4d fc	 mov	 DWORD PTR _this$[ebp], ecx
; File C:\Program Files (x86)\Windows Kits\10\Include\10.0.18362.0\ucrt\corecrt_math.h

; 672  :             return (float)fabs(_X);

  00008	f3 0f 5a 45 10	 cvtss2sd xmm0, DWORD PTR _fTime$[ebp]
  0000d	51		 push	 ecx
  0000e	51		 push	 ecx
  0000f	f2 0f 11 04 24	 movsd	 QWORD PTR [esp], xmm0
  00014	e8 00 00 00 00	 call	 _fabs
  00019	59		 pop	 ecx
  0001a	59		 pop	 ecx
; File C:\Program Files (x86)\Microsoft Visual Studio\2019\Community\VC\Tools\MSVC\14.28.29333\include\cmath

; 95   :     return _CSTD fabsf(_Xx);

  0001b	d9 5d f8	 fstp	 DWORD PTR $T1[ebp]
; File D:\Metin2 Server Files\mainline\SRC_2014\Metin2Client\GameLib\MapUtil.cpp

; 262  : 	if( fabs(fTime) < FLT_EPSILON )

  0001e	f3 0f 10 05 00
	00 00 00	 movss	 xmm0, DWORD PTR __real@34000000
  00026	0f 2f 45 f8	 comiss	 xmm0, DWORD PTR $T1[ebp]
  0002a	76 0d		 jbe	 SHORT $LN2@Setup

; 263  : 	{
; 264  : 		fTime = 0.01f;

  0002c	f3 0f 10 05 00
	00 00 00	 movss	 xmm0, DWORD PTR __real@3c23d70a
  00034	f3 0f 11 45 10	 movss	 DWORD PTR _fTime$[ebp], xmm0
$LN2@Setup:

; 265  : 	}
; 266  : 
; 267  : 	m_fValue = fStart;

  00039	8b 45 fc	 mov	 eax, DWORD PTR _this$[ebp]
  0003c	f3 0f 10 45 08	 movss	 xmm0, DWORD PTR _fStart$[ebp]
  00041	f3 0f 11 40 08	 movss	 DWORD PTR [eax+8], xmm0

; 268  : 	m_fStartValue = fStart;

  00046	8b 45 fc	 mov	 eax, DWORD PTR _this$[ebp]
  00049	f3 0f 10 45 08	 movss	 xmm0, DWORD PTR _fStart$[ebp]
  0004e	f3 0f 11 40 14	 movss	 DWORD PTR [eax+20], xmm0

; 269  : 	m_fLastValue = fStart;

  00053	8b 45 fc	 mov	 eax, DWORD PTR _this$[ebp]
  00056	f3 0f 10 45 08	 movss	 xmm0, DWORD PTR _fStart$[ebp]
  0005b	f3 0f 11 40 18	 movss	 DWORD PTR [eax+24], xmm0

; 270  : 
; 271  : 	m_fSpeed = (2.0f * (fEnd - fStart)) / fTime;

  00060	f3 0f 10 45 0c	 movss	 xmm0, DWORD PTR _fEnd$[ebp]
  00065	f3 0f 5c 45 08	 subss	 xmm0, DWORD PTR _fStart$[ebp]
  0006a	f3 0f 59 05 00
	00 00 00	 mulss	 xmm0, DWORD PTR __real@40000000
  00072	f3 0f 5e 45 10	 divss	 xmm0, DWORD PTR _fTime$[ebp]
  00077	8b 45 fc	 mov	 eax, DWORD PTR _this$[ebp]
  0007a	f3 0f 11 40 0c	 movss	 DWORD PTR [eax+12], xmm0

; 272  : 	m_fAcceleration = 2.0f * (fEnd - fStart) / (fTime * fTime) - 2.0f * m_fSpeed / fTime;

  0007f	f3 0f 10 45 0c	 movss	 xmm0, DWORD PTR _fEnd$[ebp]
  00084	f3 0f 5c 45 08	 subss	 xmm0, DWORD PTR _fStart$[ebp]
  00089	f3 0f 59 05 00
	00 00 00	 mulss	 xmm0, DWORD PTR __real@40000000
  00091	f3 0f 10 4d 10	 movss	 xmm1, DWORD PTR _fTime$[ebp]
  00096	f3 0f 59 4d 10	 mulss	 xmm1, DWORD PTR _fTime$[ebp]
  0009b	f3 0f 5e c1	 divss	 xmm0, xmm1
  0009f	8b 45 fc	 mov	 eax, DWORD PTR _this$[ebp]
  000a2	f3 0f 10 0d 00
	00 00 00	 movss	 xmm1, DWORD PTR __real@40000000
  000aa	f3 0f 59 48 0c	 mulss	 xmm1, DWORD PTR [eax+12]
  000af	f3 0f 5e 4d 10	 divss	 xmm1, DWORD PTR _fTime$[ebp]
  000b4	f3 0f 5c c1	 subss	 xmm0, xmm1
  000b8	8b 45 fc	 mov	 eax, DWORD PTR _this$[ebp]
  000bb	f3 0f 11 40 10	 movss	 DWORD PTR [eax+16], xmm0

; 273  : 	m_fRemainingTime = fTime;

  000c0	8b 45 fc	 mov	 eax, DWORD PTR _this$[ebp]
  000c3	f3 0f 10 45 10	 movss	 xmm0, DWORD PTR _fTime$[ebp]
  000c8	f3 0f 11 40 04	 movss	 DWORD PTR [eax+4], xmm0

; 274  : 
; 275  : 	return TRUE;

  000cd	33 c0		 xor	 eax, eax
  000cf	40		 inc	 eax

; 276  : }

  000d0	c9		 leave
  000d1	c2 0c 00	 ret	 12			; 0000000cH
?Setup@CEaseOutInterpolation@@QAEHMMM@Z ENDP		; CEaseOutInterpolation::Setup
_TEXT	ENDS
; Function compile flags: /Odspy
; File D:\Metin2 Server Files\mainline\SRC_2014\Metin2Client\GameLib\MapUtil.cpp
;	COMDAT ?Initialize@CEaseOutInterpolation@@QAEXXZ
_TEXT	SEGMENT
_this$ = -4						; size = 4
?Initialize@CEaseOutInterpolation@@QAEXXZ PROC		; CEaseOutInterpolation::Initialize, COMDAT
; _this$ = ecx

; 249  : {

  00000	55		 push	 ebp
  00001	8b ec		 mov	 ebp, esp
  00003	51		 push	 ecx
  00004	89 4d fc	 mov	 DWORD PTR _this$[ebp], ecx

; 250  : 	m_fRemainingTime = 0.0f;

  00007	8b 45 fc	 mov	 eax, DWORD PTR _this$[ebp]
  0000a	0f 57 c0	 xorps	 xmm0, xmm0
  0000d	f3 0f 11 40 04	 movss	 DWORD PTR [eax+4], xmm0

; 251  : 	m_fValue = 0.0f;

  00012	8b 45 fc	 mov	 eax, DWORD PTR _this$[ebp]
  00015	0f 57 c0	 xorps	 xmm0, xmm0
  00018	f3 0f 11 40 08	 movss	 DWORD PTR [eax+8], xmm0

; 252  : 	m_fSpeed = 0.0f;

  0001d	8b 45 fc	 mov	 eax, DWORD PTR _this$[ebp]
  00020	0f 57 c0	 xorps	 xmm0, xmm0
  00023	f3 0f 11 40 0c	 movss	 DWORD PTR [eax+12], xmm0

; 253  : 	m_fAcceleration = 0.0f;

  00028	8b 45 fc	 mov	 eax, DWORD PTR _this$[ebp]
  0002b	0f 57 c0	 xorps	 xmm0, xmm0
  0002e	f3 0f 11 40 10	 movss	 DWORD PTR [eax+16], xmm0

; 254  : 	m_fStartValue = 0.0f;

  00033	8b 45 fc	 mov	 eax, DWORD PTR _this$[ebp]
  00036	0f 57 c0	 xorps	 xmm0, xmm0
  00039	f3 0f 11 40 14	 movss	 DWORD PTR [eax+20], xmm0

; 255  : 	m_fLastValue = 0.0f;

  0003e	8b 45 fc	 mov	 eax, DWORD PTR _this$[ebp]
  00041	0f 57 c0	 xorps	 xmm0, xmm0
  00044	f3 0f 11 40 18	 movss	 DWORD PTR [eax+24], xmm0

; 256  : }

  00049	c9		 leave
  0004a	c3		 ret	 0
?Initialize@CEaseOutInterpolation@@QAEXXZ ENDP		; CEaseOutInterpolation::Initialize
_TEXT	ENDS
; Function compile flags: /Odspy
; File D:\Metin2 Server Files\mainline\SRC_2014\Metin2Client\GameLib\MapUtil.cpp
;	COMDAT ??1CEaseOutInterpolation@@UAE@XZ
_TEXT	SEGMENT
_this$ = -4						; size = 4
??1CEaseOutInterpolation@@UAE@XZ PROC			; CEaseOutInterpolation::~CEaseOutInterpolation, COMDAT
; _this$ = ecx

; 245  : {

  00000	55		 push	 ebp
  00001	8b ec		 mov	 ebp, esp
  00003	51		 push	 ecx
  00004	89 4d fc	 mov	 DWORD PTR _this$[ebp], ecx
  00007	8b 45 fc	 mov	 eax, DWORD PTR _this$[ebp]
  0000a	c7 00 00 00 00
	00		 mov	 DWORD PTR [eax], OFFSET ??_7CEaseOutInterpolation@@6B@

; 246  : }

  00010	c9		 leave
  00011	c3		 ret	 0
??1CEaseOutInterpolation@@UAE@XZ ENDP			; CEaseOutInterpolation::~CEaseOutInterpolation
_TEXT	ENDS
; Function compile flags: /Odspy
; File D:\Metin2 Server Files\mainline\SRC_2014\Metin2Client\GameLib\MapUtil.cpp
;	COMDAT ??0CEaseOutInterpolation@@QAE@XZ
_TEXT	SEGMENT
_this$ = -4						; size = 4
??0CEaseOutInterpolation@@QAE@XZ PROC			; CEaseOutInterpolation::CEaseOutInterpolation, COMDAT
; _this$ = ecx

; 240  : {

  00000	55		 push	 ebp
  00001	8b ec		 mov	 ebp, esp
  00003	51		 push	 ecx
  00004	89 4d fc	 mov	 DWORD PTR _this$[ebp], ecx
  00007	8b 45 fc	 mov	 eax, DWORD PTR _this$[ebp]
  0000a	c7 00 00 00 00
	00		 mov	 DWORD PTR [eax], OFFSET ??_7CEaseOutInterpolation@@6B@

; 241  : 	Initialize();

  00010	8b 4d fc	 mov	 ecx, DWORD PTR _this$[ebp]
  00013	e8 00 00 00 00	 call	 ?Initialize@CEaseOutInterpolation@@QAEXXZ ; CEaseOutInterpolation::Initialize

; 242  : }

  00018	8b 45 fc	 mov	 eax, DWORD PTR _this$[ebp]
  0001b	c9		 leave
  0001c	c3		 ret	 0
??0CEaseOutInterpolation@@QAE@XZ ENDP			; CEaseOutInterpolation::CEaseOutInterpolation
_TEXT	ENDS
; Function compile flags: /Odspy
; File D:\Metin2 Server Files\mainline\SRC_2014\Metin2Client\GameLib\MapUtil.cpp
; File C:\Program Files (x86)\Windows Kits\10\Include\10.0.18362.0\ucrt\corecrt_math.h
; File D:\Metin2 Server Files\mainline\SRC_2014\Metin2Client\GameLib\MapUtil.cpp
;	COMDAT ?GetPixelPositionDistance@@YAMABUD3DXVECTOR3@@0@Z
_TEXT	SEGMENT
tv140 = -12						; size = 4
_idx$ = -8						; size = 4
_idy$ = -4						; size = 4
_c_rsrcPosition$ = 8					; size = 4
_c_rdstPosition$ = 12					; size = 4
?GetPixelPositionDistance@@YAMABUD3DXVECTOR3@@0@Z PROC	; GetPixelPositionDistance, COMDAT

; 231  : {

  00000	55		 push	 ebp
  00001	8b ec		 mov	 ebp, esp
  00003	83 ec 0c	 sub	 esp, 12			; 0000000cH

; 232  : 	int idx = c_rsrcPosition.x - c_rdstPosition.x;

  00006	8b 45 08	 mov	 eax, DWORD PTR _c_rsrcPosition$[ebp]
  00009	8b 4d 0c	 mov	 ecx, DWORD PTR _c_rdstPosition$[ebp]
  0000c	f3 0f 10 00	 movss	 xmm0, DWORD PTR [eax]
  00010	f3 0f 5c 01	 subss	 xmm0, DWORD PTR [ecx]
  00014	f3 0f 2c c0	 cvttss2si eax, xmm0
  00018	89 45 f8	 mov	 DWORD PTR _idx$[ebp], eax

; 233  : 	int idy = c_rsrcPosition.y - c_rdstPosition.y;

  0001b	8b 45 08	 mov	 eax, DWORD PTR _c_rsrcPosition$[ebp]
  0001e	8b 4d 0c	 mov	 ecx, DWORD PTR _c_rdstPosition$[ebp]
  00021	f3 0f 10 40 04	 movss	 xmm0, DWORD PTR [eax+4]
  00026	f3 0f 5c 41 04	 subss	 xmm0, DWORD PTR [ecx+4]
  0002b	f3 0f 2c c0	 cvttss2si eax, xmm0
  0002f	89 45 fc	 mov	 DWORD PTR _idy$[ebp], eax

; 234  : 
; 235  : 	return sqrtf(float(idx*idx + idy*idy));

  00032	8b 45 fc	 mov	 eax, DWORD PTR _idy$[ebp]
  00035	0f af 45 fc	 imul	 eax, DWORD PTR _idy$[ebp]
  00039	8b 4d f8	 mov	 ecx, DWORD PTR _idx$[ebp]
  0003c	0f af 4d f8	 imul	 ecx, DWORD PTR _idx$[ebp]
  00040	03 c8		 add	 ecx, eax
  00042	f3 0f 2a c1	 cvtsi2ss xmm0, ecx
; File C:\Program Files (x86)\Windows Kits\10\Include\10.0.18362.0\ucrt\corecrt_math.h

; 760  :             return (float)sqrt(_X);

  00046	f3 0f 5a c0	 cvtss2sd xmm0, xmm0
  0004a	51		 push	 ecx
  0004b	51		 push	 ecx
  0004c	f2 0f 11 04 24	 movsd	 QWORD PTR [esp], xmm0
  00051	e8 00 00 00 00	 call	 _sqrt
  00056	59		 pop	 ecx
  00057	59		 pop	 ecx
  00058	d9 5d f4	 fstp	 DWORD PTR tv140[ebp]
  0005b	d9 45 f4	 fld	 DWORD PTR tv140[ebp]
; File D:\Metin2 Server Files\mainline\SRC_2014\Metin2Client\GameLib\MapUtil.cpp

; 236  : }

  0005e	c9		 leave
  0005f	c3		 ret	 0
?GetPixelPositionDistance@@YAMABUD3DXVECTOR3@@0@Z ENDP	; GetPixelPositionDistance
_TEXT	ENDS
; Function compile flags: /Odspy
; File D:\Metin2 Server Files\mainline\SRC_2014\Metin2Client\GameLib\MapUtil.cpp
;	COMDAT ?AttributeCellPositionToPixelPosition@@YAXUSCellPosition@@PAUD3DXVECTOR3@@@Z
_TEXT	SEGMENT
_AttrCellPosition$ = 8					; size = 8
_pPixelPosition$ = 16					; size = 4
?AttributeCellPositionToPixelPosition@@YAXUSCellPosition@@PAUD3DXVECTOR3@@@Z PROC ; AttributeCellPositionToPixelPosition, COMDAT

; 225  : {

  00000	55		 push	 ebp
  00001	8b ec		 mov	 ebp, esp

; 226  : 	pPixelPosition->x = AttrCellPosition.x * c_Section_xAttributeCellSize;

  00003	6b 45 08 32	 imul	 eax, DWORD PTR _AttrCellPosition$[ebp], 50
  00007	f3 0f 2a c0	 cvtsi2ss xmm0, eax
  0000b	8b 45 10	 mov	 eax, DWORD PTR _pPixelPosition$[ebp]
  0000e	f3 0f 11 00	 movss	 DWORD PTR [eax], xmm0

; 227  : 	pPixelPosition->y = AttrCellPosition.y * c_Section_yAttributeCellSize;

  00012	6b 45 0c 32	 imul	 eax, DWORD PTR _AttrCellPosition$[ebp+4], 50
  00016	f3 0f 2a c0	 cvtsi2ss xmm0, eax
  0001a	8b 45 10	 mov	 eax, DWORD PTR _pPixelPosition$[ebp]
  0001d	f3 0f 11 40 04	 movss	 DWORD PTR [eax+4], xmm0

; 228  : }

  00022	5d		 pop	 ebp
  00023	c3		 ret	 0
?AttributeCellPositionToPixelPosition@@YAXUSCellPosition@@PAUD3DXVECTOR3@@@Z ENDP ; AttributeCellPositionToPixelPosition
_TEXT	ENDS
; Function compile flags: /Odspy
; File D:\Metin2 Server Files\mainline\SRC_2014\Metin2Client\GameLib\MapUtil.cpp
;	COMDAT ?PixelPositionToAttributeCellPosition@@YAXUD3DXVECTOR3@@PAUSCellPosition@@@Z
_TEXT	SEGMENT
_PixelPosition$ = 8					; size = 12
_pAttrCellPosition$ = 20				; size = 4
?PixelPositionToAttributeCellPosition@@YAXUD3DXVECTOR3@@PAUSCellPosition@@@Z PROC ; PixelPositionToAttributeCellPosition, COMDAT

; 219  : {

  00000	55		 push	 ebp
  00001	8b ec		 mov	 ebp, esp

; 220  : 	pAttrCellPosition->x = PixelPosition.x / c_Section_xAttributeCellSize;

  00003	f3 0f 10 45 08	 movss	 xmm0, DWORD PTR _PixelPosition$[ebp]
  00008	f3 0f 5e 05 00
	00 00 00	 divss	 xmm0, DWORD PTR __real@42480000
  00010	f3 0f 2c c0	 cvttss2si eax, xmm0
  00014	8b 4d 14	 mov	 ecx, DWORD PTR _pAttrCellPosition$[ebp]
  00017	89 01		 mov	 DWORD PTR [ecx], eax

; 221  : 	pAttrCellPosition->y = PixelPosition.y / c_Section_yAttributeCellSize;

  00019	f3 0f 10 45 0c	 movss	 xmm0, DWORD PTR _PixelPosition$[ebp+4]
  0001e	f3 0f 5e 05 00
	00 00 00	 divss	 xmm0, DWORD PTR __real@42480000
  00026	f3 0f 2c c0	 cvttss2si eax, xmm0
  0002a	8b 4d 14	 mov	 ecx, DWORD PTR _pAttrCellPosition$[ebp]
  0002d	89 41 04	 mov	 DWORD PTR [ecx+4], eax

; 222  : }

  00030	5d		 pop	 ebp
  00031	c3		 ret	 0
?PixelPositionToAttributeCellPosition@@YAXUD3DXVECTOR3@@PAUSCellPosition@@@Z ENDP ; PixelPositionToAttributeCellPosition
_TEXT	ENDS
; Function compile flags: /Odspy
; File D:\Metin2 Server Files\mainline\SRC_2014\Metin2Client\GameLib\MapUtil.cpp
;	COMDAT ?GetLinearInterpolation@@YAMMMM@Z
_TEXT	SEGMENT
tv69 = -4						; size = 4
_begin$ = 8						; size = 4
_end$ = 12						; size = 4
_curRate$ = 16						; size = 4
?GetLinearInterpolation@@YAMMMM@Z PROC			; GetLinearInterpolation, COMDAT

; 214  : {

  00000	55		 push	 ebp
  00001	8b ec		 mov	 ebp, esp
  00003	51		 push	 ecx

; 215  : 	return (end - begin) * curRate + begin;

  00004	f3 0f 10 45 0c	 movss	 xmm0, DWORD PTR _end$[ebp]
  00009	f3 0f 5c 45 08	 subss	 xmm0, DWORD PTR _begin$[ebp]
  0000e	f3 0f 59 45 10	 mulss	 xmm0, DWORD PTR _curRate$[ebp]
  00013	f3 0f 58 45 08	 addss	 xmm0, DWORD PTR _begin$[ebp]
  00018	f3 0f 11 45 fc	 movss	 DWORD PTR tv69[ebp], xmm0
  0001d	d9 45 fc	 fld	 DWORD PTR tv69[ebp]

; 216  : }

  00020	c9		 leave
  00021	c3		 ret	 0
?GetLinearInterpolation@@YAMMMM@Z ENDP			; GetLinearInterpolation
_TEXT	ENDS
; Function compile flags: /Odspy
; File D:\Metin2 Server Files\mainline\SRC_2014\Metin2Client\GameLib\MapUtil.cpp
;	COMDAT ?GetInterpolatedPosition@@YAXMPAUD3DXVECTOR3@@@Z
_TEXT	SEGMENT
_curPositionRate$ = 8					; size = 4
_PixelPosition$ = 12					; size = 4
?GetInterpolatedPosition@@YAXMPAUD3DXVECTOR3@@@Z PROC	; GetInterpolatedPosition, COMDAT

; 210  : {

  00000	55		 push	 ebp
  00001	8b ec		 mov	 ebp, esp

; 211  : }

  00003	5d		 pop	 ebp
  00004	c3		 ret	 0
?GetInterpolatedPosition@@YAXMPAUD3DXVECTOR3@@@Z ENDP	; GetInterpolatedPosition
_TEXT	ENDS
; Function compile flags: /Odspy
; File D:\Metin2 Server Files\mainline\SRC_2014\Metin2Client\GameLib\MapUtil.cpp
; File C:\Program Files (x86)\Microsoft Visual Studio\2019\Community\VC\Tools\MSVC\14.28.29333\include\xstring
; File D:\Metin2 Server Files\mainline\SRC_2014\Metin2Client\GameLib\MapUtil.cpp
; File C:\Program Files (x86)\Microsoft Visual Studio\2019\Community\VC\Tools\MSVC\14.28.29333\include\xstring
; File D:\Metin2 Server Files\mainline\SRC_2014\Metin2Client\GameLib\MapUtil.cpp
; File C:\Program Files (x86)\Microsoft Visual Studio\2019\Community\VC\Tools\MSVC\14.28.29333\include\xstring
; File D:\Metin2 Server Files\mainline\SRC_2014\Metin2Client\GameLib\MapUtil.cpp
; File C:\Program Files (x86)\Microsoft Visual Studio\2019\Community\VC\Tools\MSVC\14.28.29333\include\xstring
; File D:\Metin2 Server Files\mainline\SRC_2014\Metin2Client\GameLib\MapUtil.cpp
; File C:\Program Files (x86)\Microsoft Visual Studio\2019\Community\VC\Tools\MSVC\14.28.29333\include\xstring
; File D:\Metin2 Server Files\mainline\SRC_2014\Metin2Client\GameLib\MapUtil.cpp
; File C:\Program Files (x86)\Microsoft Visual Studio\2019\Community\VC\Tools\MSVC\14.28.29333\include\xstring
; File D:\Metin2 Server Files\mainline\SRC_2014\Metin2Client\GameLib\MapUtil.cpp
; File C:\Program Files (x86)\Microsoft Visual Studio\2019\Community\VC\Tools\MSVC\14.28.29333\include\xstring
; File D:\Metin2 Server Files\mainline\SRC_2014\Metin2Client\GameLib\MapUtil.cpp
; File C:\Program Files (x86)\Microsoft Visual Studio\2019\Community\VC\Tools\MSVC\14.28.29333\include\xstring
; File D:\Metin2 Server Files\mainline\SRC_2014\Metin2Client\GameLib\MapUtil.cpp
; File C:\Program Files (x86)\Microsoft Visual Studio\2019\Community\VC\Tools\MSVC\14.28.29333\include\xstring
; File D:\Metin2 Server Files\mainline\SRC_2014\Metin2Client\GameLib\MapUtil.cpp
; File C:\Program Files (x86)\Microsoft Visual Studio\2019\Community\VC\Tools\MSVC\14.28.29333\include\xstring
; File D:\Metin2 Server Files\mainline\SRC_2014\Metin2Client\GameLib\MapUtil.cpp
; File C:\Program Files (x86)\Microsoft Visual Studio\2019\Community\VC\Tools\MSVC\14.28.29333\include\xstring
; File D:\Metin2 Server Files\mainline\SRC_2014\Metin2Client\GameLib\MapUtil.cpp
; File C:\Program Files (x86)\Microsoft Visual Studio\2019\Community\VC\Tools\MSVC\14.28.29333\include\xstring
; File D:\Metin2 Server Files\mainline\SRC_2014\Metin2Client\GameLib\MapUtil.cpp
; File C:\Program Files (x86)\Microsoft Visual Studio\2019\Community\VC\Tools\MSVC\14.28.29333\include\xstring
; File D:\Metin2 Server Files\mainline\SRC_2014\Metin2Client\GameLib\MapUtil.cpp
; File C:\Program Files (x86)\Microsoft Visual Studio\2019\Community\VC\Tools\MSVC\14.28.29333\include\xstring
; File D:\Metin2 Server Files\mainline\SRC_2014\Metin2Client\GameLib\MapUtil.cpp
; File C:\Program Files (x86)\Microsoft Visual Studio\2019\Community\VC\Tools\MSVC\14.28.29333\include\xstring
; File D:\Metin2 Server Files\mainline\SRC_2014\Metin2Client\GameLib\MapUtil.cpp
; File C:\Program Files (x86)\Microsoft Visual Studio\2019\Community\VC\Tools\MSVC\14.28.29333\include\xstring
; File D:\Metin2 Server Files\mainline\SRC_2014\Metin2Client\GameLib\MapUtil.cpp
; File C:\Program Files (x86)\Microsoft Visual Studio\2019\Community\VC\Tools\MSVC\14.28.29333\include\xstring
; File D:\Metin2 Server Files\mainline\SRC_2014\Metin2Client\GameLib\MapUtil.cpp
; File C:\Program Files (x86)\Microsoft Visual Studio\2019\Community\VC\Tools\MSVC\14.28.29333\include\xstring
; File D:\Metin2 Server Files\mainline\SRC_2014\Metin2Client\GameLib\MapUtil.cpp
; File C:\Program Files (x86)\Microsoft Visual Studio\2019\Community\VC\Tools\MSVC\14.28.29333\include\xstring
; File D:\Metin2 Server Files\mainline\SRC_2014\Metin2Client\GameLib\MapUtil.cpp
; File C:\Program Files (x86)\Microsoft Visual Studio\2019\Community\VC\Tools\MSVC\14.28.29333\include\xstring
; File D:\Metin2 Server Files\mainline\SRC_2014\Metin2Client\GameLib\MapUtil.cpp
; File C:\Program Files (x86)\Microsoft Visual Studio\2019\Community\VC\Tools\MSVC\14.28.29333\include\xstring
; File D:\Metin2 Server Files\mainline\SRC_2014\Metin2Client\GameLib\MapUtil.cpp
; File C:\Program Files (x86)\Microsoft Visual Studio\2019\Community\VC\Tools\MSVC\14.28.29333\include\xstring
; File D:\Metin2 Server Files\mainline\SRC_2014\Metin2Client\GameLib\MapUtil.cpp
; File C:\Program Files (x86)\Microsoft Visual Studio\2019\Community\VC\Tools\MSVC\14.28.29333\include\xstring
; File D:\Metin2 Server Files\mainline\SRC_2014\Metin2Client\GameLib\MapUtil.cpp
; File C:\Program Files (x86)\Microsoft Visual Studio\2019\Community\VC\Tools\MSVC\14.28.29333\include\xstring
; File D:\Metin2 Server Files\mainline\SRC_2014\Metin2Client\GameLib\MapUtil.cpp
; File C:\Program Files (x86)\Microsoft Visual Studio\2019\Community\VC\Tools\MSVC\14.28.29333\include\xstring
; File D:\Metin2 Server Files\mainline\SRC_2014\Metin2Client\GameLib\MapUtil.cpp
; File C:\Program Files (x86)\Microsoft Visual Studio\2019\Community\VC\Tools\MSVC\14.28.29333\include\xstring
; File D:\Metin2 Server Files\mainline\SRC_2014\Metin2Client\GameLib\MapUtil.cpp
; File C:\Program Files (x86)\Microsoft Visual Studio\2019\Community\VC\Tools\MSVC\14.28.29333\include\xstring
; File D:\Metin2 Server Files\mainline\SRC_2014\Metin2Client\GameLib\MapUtil.cpp
; File C:\Program Files (x86)\Microsoft Visual Studio\2019\Community\VC\Tools\MSVC\14.28.29333\include\xstring
; File D:\Metin2 Server Files\mainline\SRC_2014\Metin2Client\GameLib\MapUtil.cpp
; File C:\Program Files (x86)\Microsoft Visual Studio\2019\Community\VC\Tools\MSVC\14.28.29333\include\xstring
; File D:\Metin2 Server Files\mainline\SRC_2014\Metin2Client\GameLib\MapUtil.cpp
; File C:\Program Files (x86)\Microsoft Visual Studio\2019\Community\VC\Tools\MSVC\14.28.29333\include\xstring
; File D:\Metin2 Server Files\mainline\SRC_2014\Metin2Client\GameLib\MapUtil.cpp
; File C:\Program Files (x86)\Microsoft Visual Studio\2019\Community\VC\Tools\MSVC\14.28.29333\include\xstring
; File D:\Metin2 Server Files\mainline\SRC_2014\Metin2Client\GameLib\MapUtil.cpp
; File C:\Program Files (x86)\Microsoft Visual Studio\2019\Community\VC\Tools\MSVC\14.28.29333\include\xstring
; File D:\Metin2 Server Files\mainline\SRC_2014\Metin2Client\GameLib\MapUtil.cpp
; File C:\Program Files (x86)\Microsoft Visual Studio\2019\Community\VC\Tools\MSVC\14.28.29333\include\xstring
; File D:\Metin2 Server Files\mainline\SRC_2014\Metin2Client\GameLib\MapUtil.cpp
; File C:\Program Files (x86)\Microsoft Visual Studio\2019\Community\VC\Tools\MSVC\14.28.29333\include\xstring
; File D:\Metin2 Server Files\mainline\SRC_2014\Metin2Client\GameLib\MapUtil.cpp
; File C:\Program Files (x86)\Microsoft Visual Studio\2019\Community\VC\Tools\MSVC\14.28.29333\include\xstring
; File D:\Metin2 Server Files\mainline\SRC_2014\Metin2Client\GameLib\MapUtil.cpp
; File C:\Program Files (x86)\Microsoft Visual Studio\2019\Community\VC\Tools\MSVC\14.28.29333\include\xstring
; File D:\Metin2 Server Files\mainline\SRC_2014\Metin2Client\GameLib\MapUtil.cpp
; File C:\Program Files (x86)\Microsoft Visual Studio\2019\Community\VC\Tools\MSVC\14.28.29333\include\vector
; File D:\Metin2 Server Files\mainline\SRC_2014\Metin2Client\GameLib\MapUtil.cpp
; File C:\Program Files (x86)\Microsoft Visual Studio\2019\Community\VC\Tools\MSVC\14.28.29333\include\xstring
; File D:\Metin2 Server Files\mainline\SRC_2014\Metin2Client\GameLib\MapUtil.cpp
; File C:\Program Files (x86)\Microsoft Visual Studio\2019\Community\VC\Tools\MSVC\14.28.29333\include\xstring
; File D:\Metin2 Server Files\mainline\SRC_2014\Metin2Client\GameLib\MapUtil.cpp
; File C:\Program Files (x86)\Microsoft Visual Studio\2019\Community\VC\Tools\MSVC\14.28.29333\include\xstring
; File D:\Metin2 Server Files\mainline\SRC_2014\Metin2Client\GameLib\MapUtil.cpp
; File C:\Program Files (x86)\Microsoft Visual Studio\2019\Community\VC\Tools\MSVC\14.28.29333\include\xstring
; File D:\Metin2 Server Files\mainline\SRC_2014\Metin2Client\GameLib\MapUtil.cpp
; File C:\Program Files (x86)\Microsoft Visual Studio\2019\Community\VC\Tools\MSVC\14.28.29333\include\xstring
; File D:\Metin2 Server Files\mainline\SRC_2014\Metin2Client\GameLib\MapUtil.cpp
; File C:\Program Files (x86)\Microsoft Visual Studio\2019\Community\VC\Tools\MSVC\14.28.29333\include\xstring
; File D:\Metin2 Server Files\mainline\SRC_2014\Metin2Client\GameLib\MapUtil.cpp
; File C:\Program Files (x86)\Microsoft Visual Studio\2019\Community\VC\Tools\MSVC\14.28.29333\include\xstring
; File D:\Metin2 Server Files\mainline\SRC_2014\Metin2Client\GameLib\MapUtil.cpp
; File C:\Program Files (x86)\Microsoft Visual Studio\2019\Community\VC\Tools\MSVC\14.28.29333\include\xstring
; File D:\Metin2 Server Files\mainline\SRC_2014\Metin2Client\GameLib\MapUtil.cpp
; File C:\Program Files (x86)\Microsoft Visual Studio\2019\Community\VC\Tools\MSVC\14.28.29333\include\xstring
; File D:\Metin2 Server Files\mainline\SRC_2014\Metin2Client\GameLib\MapUtil.cpp
; File C:\Program Files (x86)\Microsoft Visual Studio\2019\Community\VC\Tools\MSVC\14.28.29333\include\vector
; File D:\Metin2 Server Files\mainline\SRC_2014\Metin2Client\GameLib\MapUtil.cpp
; File C:\Program Files (x86)\Microsoft Visual Studio\2019\Community\VC\Tools\MSVC\14.28.29333\include\vector
; File D:\Metin2 Server Files\mainline\SRC_2014\Metin2Client\GameLib\MapUtil.cpp
; File C:\Program Files (x86)\Microsoft Visual Studio\2019\Community\VC\Tools\MSVC\14.28.29333\include\vector
; File D:\Metin2 Server Files\mainline\SRC_2014\Metin2Client\GameLib\MapUtil.cpp
; File C:\Program Files (x86)\Microsoft Visual Studio\2019\Community\VC\Tools\MSVC\14.28.29333\include\vector
; File D:\Metin2 Server Files\mainline\SRC_2014\Metin2Client\GameLib\MapUtil.cpp
; File C:\Program Files (x86)\Microsoft Visual Studio\2019\Community\VC\Tools\MSVC\14.28.29333\include\vector
; File D:\Metin2 Server Files\mainline\SRC_2014\Metin2Client\GameLib\MapUtil.cpp
; File C:\Program Files (x86)\Microsoft Visual Studio\2019\Community\VC\Tools\MSVC\14.28.29333\include\xstring
; File C:\Program Files (x86)\Microsoft Visual Studio\2019\Community\VC\Tools\MSVC\14.28.29333\include\vector
; File D:\Metin2 Server Files\mainline\SRC_2014\Metin2Client\GameLib\MapUtil.cpp
; File C:\Program Files (x86)\Microsoft Visual Studio\2019\Community\VC\Tools\MSVC\14.28.29333\include\xstring
; File C:\Program Files (x86)\Microsoft Visual Studio\2019\Community\VC\Tools\MSVC\14.28.29333\include\vector
; File D:\Metin2 Server Files\mainline\SRC_2014\Metin2Client\GameLib\MapUtil.cpp
; File C:\Program Files (x86)\Microsoft Visual Studio\2019\Community\VC\Tools\MSVC\14.28.29333\include\xstring
; File C:\Program Files (x86)\Microsoft Visual Studio\2019\Community\VC\Tools\MSVC\14.28.29333\include\vector
; File D:\Metin2 Server Files\mainline\SRC_2014\Metin2Client\GameLib\MapUtil.cpp
; File C:\Program Files (x86)\Microsoft Visual Studio\2019\Community\VC\Tools\MSVC\14.28.29333\include\xstring
; File C:\Program Files (x86)\Microsoft Visual Studio\2019\Community\VC\Tools\MSVC\14.28.29333\include\vector
; File D:\Metin2 Server Files\mainline\SRC_2014\Metin2Client\GameLib\MapUtil.cpp
; File C:\Program Files (x86)\Microsoft Visual Studio\2019\Community\VC\Tools\MSVC\14.28.29333\include\xstring
; File C:\Program Files (x86)\Microsoft Visual Studio\2019\Community\VC\Tools\MSVC\14.28.29333\include\vector
; File D:\Metin2 Server Files\mainline\SRC_2014\Metin2Client\GameLib\MapUtil.cpp
; File C:\Program Files (x86)\Microsoft Visual Studio\2019\Community\VC\Tools\MSVC\14.28.29333\include\xstring
; File C:\Program Files (x86)\Microsoft Visual Studio\2019\Community\VC\Tools\MSVC\14.28.29333\include\vector
; File D:\Metin2 Server Files\mainline\SRC_2014\Metin2Client\GameLib\MapUtil.cpp
; File C:\Program Files (x86)\Microsoft Visual Studio\2019\Community\VC\Tools\MSVC\14.28.29333\include\vector
; File D:\Metin2 Server Files\mainline\SRC_2014\Metin2Client\GameLib\MapUtil.cpp
; File C:\Program Files (x86)\Microsoft Visual Studio\2019\Community\VC\Tools\MSVC\14.28.29333\include\vector
; File D:\Metin2 Server Files\mainline\SRC_2014\Metin2Client\GameLib\MapUtil.cpp
; File C:\Program Files (x86)\Microsoft Visual Studio\2019\Community\VC\Tools\MSVC\14.28.29333\include\xstring
; File D:\Metin2 Server Files\mainline\SRC_2014\Metin2Client\GameLib\MapUtil.cpp
; File C:\Program Files (x86)\Microsoft Visual Studio\2019\Community\VC\Tools\MSVC\14.28.29333\include\xstring
; File D:\Metin2 Server Files\mainline\SRC_2014\Metin2Client\GameLib\MapUtil.cpp
; File C:\Program Files (x86)\Microsoft Visual Studio\2019\Community\VC\Tools\MSVC\14.28.29333\include\xstring
; File D:\Metin2 Server Files\mainline\SRC_2014\Metin2Client\GameLib\MapUtil.cpp
; File C:\Program Files (x86)\Microsoft Visual Studio\2019\Community\VC\Tools\MSVC\14.28.29333\include\xstring
; File D:\Metin2 Server Files\mainline\SRC_2014\Metin2Client\GameLib\MapUtil.cpp
; File C:\Program Files (x86)\Microsoft Visual Studio\2019\Community\VC\Tools\MSVC\14.28.29333\include\xstring
; File D:\Metin2 Server Files\mainline\SRC_2014\Metin2Client\GameLib\MapUtil.cpp
; File C:\Program Files (x86)\Microsoft Visual Studio\2019\Community\VC\Tools\MSVC\14.28.29333\include\xstring
; File D:\Metin2 Server Files\mainline\SRC_2014\Metin2Client\GameLib\MapUtil.cpp
;	COMDAT ?Environment_Load@@YA_NAAUSEnvironmentData@@PBD@Z
_TEXT	SEGMENT
_this$ = -252						; size = 4
_this$ = -248						; size = 4
$T2 = -244						; size = 4
__My_data$3 = -240					; size = 4
_this$ = -236						; size = 4
$T4 = -232						; size = 4
$T5 = -228						; size = 4
__My_data$6 = -224					; size = 4
_this$ = -220						; size = 4
$T7 = -216						; size = 4
$T8 = -212						; size = 4
__My_data$9 = -208					; size = 4
_this$ = -204						; size = 4
$T10 = -200						; size = 4
$T11 = -196						; size = 4
__My_data$12 = -192					; size = 4
_this$ = -188						; size = 4
$T13 = -184						; size = 4
$T14 = -180						; size = 4
__My_data$15 = -176					; size = 4
_this$ = -172						; size = 4
$T16 = -168						; size = 4
_this$ = -164						; size = 4
$T17 = -160						; size = 4
_this$ = -156						; size = 4
$T18 = -152						; size = 4
$T19 = -148						; size = 4
_this$ = -144						; size = 4
$T20 = -140						; size = 4
_this$ = -136						; size = 4
$T21 = -132						; size = 4
_this$ = -128						; size = 4
$T22 = -124						; size = 4
_this$ = -120						; size = 4
$T23 = -116						; size = 4
_this$ = -112						; size = 4
$T24 = -108						; size = 4
_this$ = -104						; size = 4
$T25 = -100						; size = 4
_this$ = -96						; size = 4
$T26 = -92						; size = 4
$T27 = -88						; size = 4
$T28 = -84						; size = 4
_this$ = -80						; size = 4
$T29 = -76						; size = 4
$T30 = -72						; size = 4
__My_data$31 = -68					; size = 4
$T32 = -64						; size = 4
__My_data$33 = -60					; size = 4
$T34 = -56						; size = 4
$T35 = -52						; size = 4
__My_data$36 = -48					; size = 4
__My_data$37 = -44					; size = 4
__My_data$38 = -40					; size = 4
__My_data$39 = -36					; size = 4
$T40 = -31						; size = 1
$T41 = -30						; size = 1
$T42 = -29						; size = 1
_pTokenVectorCloudColor$43 = -28			; size = 4
_pTokenVector$44 = -24					; size = 4
_byGradientCount$45 = -17				; size = 1
_i$46 = -16						; size = 4
__$EHRec$ = -12						; size = 12
$T47 = 0						; size = 24
$T48 = 24						; size = 24
$T49 = 48						; size = 24
$T50 = 72						; size = 24
$T51 = 96						; size = 24
$T52 = 120						; size = 24
$T53 = 144						; size = 24
$T54 = 168						; size = 24
$T55 = 192						; size = 24
$T56 = 216						; size = 24
$T57 = 240						; size = 24
$T58 = 264						; size = 24
$T59 = 288						; size = 24
$T60 = 312						; size = 24
$T61 = 336						; size = 24
$T62 = 360						; size = 24
$T63 = 384						; size = 24
$T64 = 408						; size = 24
$T65 = 432						; size = 24
$T66 = 456						; size = 24
$T67 = 480						; size = 24
$T68 = 504						; size = 24
$T69 = 528						; size = 24
$T70 = 552						; size = 24
$T71 = 576						; size = 24
$T72 = 600						; size = 24
$T73 = 624						; size = 24
$T74 = 648						; size = 24
$T75 = 672						; size = 24
$T76 = 696						; size = 24
$T77 = 720						; size = 24
$T78 = 744						; size = 24
$T79 = 768						; size = 24
$T80 = 792						; size = 24
$T81 = 816						; size = 24
$T82 = 840						; size = 24
$T83 = 864						; size = 24
$T84 = 888						; size = 24
$T85 = 912						; size = 24
$T86 = 936						; size = 24
$T87 = 960						; size = 24
$T88 = 984						; size = 24
$T89 = 1008						; size = 24
_v3Dir$90 = 1032					; size = 12
_textLoader$ = 1044					; size = 128
__$ArrayPad$ = 1172					; size = 4
_envData$ = 1184					; size = 4
_envFileName$ = 1188					; size = 4
?Environment_Load@@YA_NAAUSEnvironmentData@@PBD@Z PROC	; Environment_Load, COMDAT

; 71   : {

  00000	55		 push	 ebp
  00001	8d ac 24 68 fb
	ff ff		 lea	 ebp, DWORD PTR [esp-1176]
  00008	81 ec 98 04 00
	00		 sub	 esp, 1176		; 00000498H
  0000e	6a ff		 push	 -1
  00010	68 00 00 00 00	 push	 __ehhandler$?Environment_Load@@YA_NAAUSEnvironmentData@@PBD@Z
  00015	64 a1 00 00 00
	00		 mov	 eax, DWORD PTR fs:0
  0001b	50		 push	 eax
  0001c	81 ec f0 00 00
	00		 sub	 esp, 240		; 000000f0H
  00022	a1 00 00 00 00	 mov	 eax, DWORD PTR ___security_cookie
  00027	33 c5		 xor	 eax, ebp
  00029	89 85 94 04 00
	00		 mov	 DWORD PTR __$ArrayPad$[ebp], eax
  0002f	56		 push	 esi
  00030	57		 push	 edi
  00031	50		 push	 eax
  00032	8d 45 f4	 lea	 eax, DWORD PTR __$EHRec$[ebp]
  00035	64 a3 00 00 00
	00		 mov	 DWORD PTR fs:0, eax

; 72   : 	CTextFileLoader textLoader;

  0003b	8d 8d 14 04 00
	00		 lea	 ecx, DWORD PTR _textLoader$[ebp]
  00041	e8 00 00 00 00	 call	 ??0CTextFileLoader@@QAE@XZ ; CTextFileLoader::CTextFileLoader
  00046	83 65 fc 00	 and	 DWORD PTR __$EHRec$[ebp+8], 0

; 73   : 	
; 74   : 	if (!textLoader.Load(envFileName))

  0004a	ff b5 a4 04 00
	00		 push	 DWORD PTR _envFileName$[ebp]
  00050	8d 8d 14 04 00
	00		 lea	 ecx, DWORD PTR _textLoader$[ebp]
  00056	e8 00 00 00 00	 call	 ?Load@CTextFileLoader@@QAE_NPBD@Z ; CTextFileLoader::Load
  0005b	0f b6 c0	 movzx	 eax, al
  0005e	85 c0		 test	 eax, eax
  00060	75 1b		 jne	 SHORT $LN5@Environmen

; 75   : 		return false;

  00062	c6 45 e3 00	 mov	 BYTE PTR $T42[ebp], 0
  00066	83 4d fc ff	 or	 DWORD PTR __$EHRec$[ebp+8], -1
  0006a	8d 8d 14 04 00
	00		 lea	 ecx, DWORD PTR _textLoader$[ebp]
  00070	e8 00 00 00 00	 call	 ??1CTextFileLoader@@UAE@XZ ; CTextFileLoader::~CTextFileLoader
  00075	8a 45 e3	 mov	 al, BYTE PTR $T42[ebp]
  00078	e9 d4 11 00 00	 jmp	 $LN1@Environmen
$LN5@Environmen:

; 76   : 
; 77   : 	textLoader.SetTop();

  0007d	8d 8d 14 04 00
	00		 lea	 ecx, DWORD PTR _textLoader$[ebp]
  00083	e8 00 00 00 00	 call	 ?SetTop@CTextFileLoader@@QAEXXZ ; CTextFileLoader::SetTop

; 78   : 
; 79   : 	textLoader.GetTokenBoolean("reserved", &envData.bReserve);

  00088	68 00 00 00 00	 push	 OFFSET ??_C@_08FINKBBAF@reserved@
  0008d	8d 8d e8 02 00
	00		 lea	 ecx, DWORD PTR $T78[ebp]
  00093	e8 00 00 00 00	 call	 ??0?$basic_string@DU?$char_traits@D@std@@V?$allocator@D@2@@std@@QAE@QBD@Z ; std::basic_string<char,std::char_traits<char>,std::allocator<char> >::basic_string<char,std::char_traits<char>,std::allocator<char> >
  00098	c6 45 fc 01	 mov	 BYTE PTR __$EHRec$[ebp+8], 1
  0009c	8b 85 a0 04 00
	00		 mov	 eax, DWORD PTR _envData$[ebp]
  000a2	05 98 02 00 00	 add	 eax, 664		; 00000298H
  000a7	50		 push	 eax
  000a8	8d 85 e8 02 00
	00		 lea	 eax, DWORD PTR $T78[ebp]
  000ae	50		 push	 eax
  000af	8d 8d 14 04 00
	00		 lea	 ecx, DWORD PTR _textLoader$[ebp]
  000b5	e8 00 00 00 00	 call	 ?GetTokenBoolean@CTextFileLoader@@QAEHABV?$basic_string@DU?$char_traits@D@std@@V?$allocator@D@2@@std@@PAH@Z ; CTextFileLoader::GetTokenBoolean
  000ba	c6 45 fc 00	 mov	 BYTE PTR __$EHRec$[ebp+8], 0
; File C:\Program Files (x86)\Microsoft Visual Studio\2019\Community\VC\Tools\MSVC\14.28.29333\include\xstring

; 2801 :         _Tidy_deallocate();

  000be	8d 8d e8 02 00
	00		 lea	 ecx, DWORD PTR $T78[ebp]
  000c4	e8 00 00 00 00	 call	 ?_Tidy_deallocate@?$basic_string@DU?$char_traits@D@std@@V?$allocator@D@2@@std@@AAEXXZ ; std::basic_string<char,std::char_traits<char>,std::allocator<char> >::_Tidy_deallocate
; File D:\Metin2 Server Files\mainline\SRC_2014\Metin2Client\GameLib\MapUtil.cpp

; 81   : 	if (textLoader.SetChildNode("directionallight"))

  000c9	68 00 00 00 00	 push	 OFFSET ??_C@_0BB@GPOHGDLH@directionallight@
  000ce	8d 8d 14 04 00
	00		 lea	 ecx, DWORD PTR _textLoader$[ebp]
  000d4	e8 00 00 00 00	 call	 ?SetChildNode@CTextFileLoader@@QAEHPBD@Z ; CTextFileLoader::SetChildNode
  000d9	85 c0		 test	 eax, eax
  000db	0f 84 5b 02 00
	00		 je	 $LN6@Environmen

; 82   : 	{
; 83   : 		D3DVECTOR v3Dir;
; 84   : 		textLoader.GetTokenDirection("direction", &v3Dir);

  000e1	68 00 00 00 00	 push	 OFFSET ??_C@_09HPKLLIJF@direction@
  000e6	8d 8d d0 02 00
	00		 lea	 ecx, DWORD PTR $T77[ebp]
  000ec	e8 00 00 00 00	 call	 ??0?$basic_string@DU?$char_traits@D@std@@V?$allocator@D@2@@std@@QAE@QBD@Z ; std::basic_string<char,std::char_traits<char>,std::allocator<char> >::basic_string<char,std::char_traits<char>,std::allocator<char> >
  000f1	c6 45 fc 02	 mov	 BYTE PTR __$EHRec$[ebp+8], 2
  000f5	8d 85 08 04 00
	00		 lea	 eax, DWORD PTR _v3Dir$90[ebp]
  000fb	50		 push	 eax
  000fc	8d 85 d0 02 00
	00		 lea	 eax, DWORD PTR $T77[ebp]
  00102	50		 push	 eax
  00103	8d 8d 14 04 00
	00		 lea	 ecx, DWORD PTR _textLoader$[ebp]
  00109	e8 00 00 00 00	 call	 ?GetTokenDirection@CTextFileLoader@@QAEHABV?$basic_string@DU?$char_traits@D@std@@V?$allocator@D@2@@std@@PAU_D3DVECTOR@@@Z ; CTextFileLoader::GetTokenDirection
  0010e	c6 45 fc 00	 mov	 BYTE PTR __$EHRec$[ebp+8], 0
; File C:\Program Files (x86)\Microsoft Visual Studio\2019\Community\VC\Tools\MSVC\14.28.29333\include\xstring

; 2801 :         _Tidy_deallocate();

  00112	8d 8d d0 02 00
	00		 lea	 ecx, DWORD PTR $T77[ebp]
  00118	e8 00 00 00 00	 call	 ?_Tidy_deallocate@?$basic_string@DU?$char_traits@D@std@@V?$allocator@D@2@@std@@AAEXXZ ; std::basic_string<char,std::char_traits<char>,std::allocator<char> >::_Tidy_deallocate
; File D:\Metin2 Server Files\mainline\SRC_2014\Metin2Client\GameLib\MapUtil.cpp

; 86   : 		if (textLoader.SetChildNode("background"))

  0011d	68 00 00 00 00	 push	 OFFSET ??_C@_0L@EGCKCJDC@background@
  00122	8d 8d 14 04 00
	00		 lea	 ecx, DWORD PTR _textLoader$[ebp]
  00128	e8 00 00 00 00	 call	 ?SetChildNode@CTextFileLoader@@QAEHPBD@Z ; CTextFileLoader::SetChildNode
  0012d	85 c0		 test	 eax, eax
  0012f	0f 84 f2 00 00
	00		 je	 $LN7@Environmen

; 87   : 		{
; 88   : 			envData.DirLights[ENV_DIRLIGHT_BACKGROUND].Direction = v3Dir;

  00135	6a 68		 push	 104			; 00000068H
  00137	58		 pop	 eax
  00138	6b c0 00	 imul	 eax, eax, 0
  0013b	8b 8d a0 04 00
	00		 mov	 ecx, DWORD PTR _envData$[ebp]
  00141	8d 7c 01 48	 lea	 edi, DWORD PTR [ecx+eax+72]
  00145	8d b5 08 04 00
	00		 lea	 esi, DWORD PTR _v3Dir$90[ebp]
  0014b	a5		 movsd
  0014c	a5		 movsd
  0014d	a5		 movsd

; 89   : 			textLoader.GetTokenBoolean("enable", &envData.bDirLightsEnable[ENV_DIRLIGHT_BACKGROUND]);

  0014e	68 00 00 00 00	 push	 OFFSET ??_C@_06OFNJOBDK@enable@
  00153	8d 8d b8 02 00
	00		 lea	 ecx, DWORD PTR $T76[ebp]
  00159	e8 00 00 00 00	 call	 ??0?$basic_string@DU?$char_traits@D@std@@V?$allocator@D@2@@std@@QAE@QBD@Z ; std::basic_string<char,std::char_traits<char>,std::allocator<char> >::basic_string<char,std::char_traits<char>,std::allocator<char> >
  0015e	c6 45 fc 03	 mov	 BYTE PTR __$EHRec$[ebp+8], 3
  00162	6a 04		 push	 4
  00164	58		 pop	 eax
  00165	6b c0 00	 imul	 eax, eax, 0
  00168	03 85 a0 04 00
	00		 add	 eax, DWORD PTR _envData$[ebp]
  0016e	50		 push	 eax
  0016f	8d 85 b8 02 00
	00		 lea	 eax, DWORD PTR $T76[ebp]
  00175	50		 push	 eax
  00176	8d 8d 14 04 00
	00		 lea	 ecx, DWORD PTR _textLoader$[ebp]
  0017c	e8 00 00 00 00	 call	 ?GetTokenBoolean@CTextFileLoader@@QAEHABV?$basic_string@DU?$char_traits@D@std@@V?$allocator@D@2@@std@@PAH@Z ; CTextFileLoader::GetTokenBoolean
  00181	c6 45 fc 00	 mov	 BYTE PTR __$EHRec$[ebp+8], 0
; File C:\Program Files (x86)\Microsoft Visual Studio\2019\Community\VC\Tools\MSVC\14.28.29333\include\xstring

; 2801 :         _Tidy_deallocate();

  00185	8d 8d b8 02 00
	00		 lea	 ecx, DWORD PTR $T76[ebp]
  0018b	e8 00 00 00 00	 call	 ?_Tidy_deallocate@?$basic_string@DU?$char_traits@D@std@@V?$allocator@D@2@@std@@AAEXXZ ; std::basic_string<char,std::char_traits<char>,std::allocator<char> >::_Tidy_deallocate
; File D:\Metin2 Server Files\mainline\SRC_2014\Metin2Client\GameLib\MapUtil.cpp

; 90   : 			textLoader.GetTokenColor("diffuse", &envData.DirLights[ENV_DIRLIGHT_BACKGROUND].Diffuse);

  00190	68 00 00 00 00	 push	 OFFSET ??_C@_07KFBPAAO@diffuse@
  00195	8d 8d 18 03 00
	00		 lea	 ecx, DWORD PTR $T80[ebp]
  0019b	e8 00 00 00 00	 call	 ??0?$basic_string@DU?$char_traits@D@std@@V?$allocator@D@2@@std@@QAE@QBD@Z ; std::basic_string<char,std::char_traits<char>,std::allocator<char> >::basic_string<char,std::char_traits<char>,std::allocator<char> >
  001a0	c6 45 fc 04	 mov	 BYTE PTR __$EHRec$[ebp+8], 4
  001a4	6a 68		 push	 104			; 00000068H
  001a6	58		 pop	 eax
  001a7	6b c0 00	 imul	 eax, eax, 0
  001aa	8b 8d a0 04 00
	00		 mov	 ecx, DWORD PTR _envData$[ebp]
  001b0	8d 44 01 0c	 lea	 eax, DWORD PTR [ecx+eax+12]
  001b4	50		 push	 eax
  001b5	8d 85 18 03 00
	00		 lea	 eax, DWORD PTR $T80[ebp]
  001bb	50		 push	 eax
  001bc	8d 8d 14 04 00
	00		 lea	 ecx, DWORD PTR _textLoader$[ebp]
  001c2	e8 00 00 00 00	 call	 ?GetTokenColor@CTextFileLoader@@QAEHABV?$basic_string@DU?$char_traits@D@std@@V?$allocator@D@2@@std@@PAU_D3DCOLORVALUE@@@Z ; CTextFileLoader::GetTokenColor
  001c7	c6 45 fc 00	 mov	 BYTE PTR __$EHRec$[ebp+8], 0
; File C:\Program Files (x86)\Microsoft Visual Studio\2019\Community\VC\Tools\MSVC\14.28.29333\include\xstring

; 2801 :         _Tidy_deallocate();

  001cb	8d 8d 18 03 00
	00		 lea	 ecx, DWORD PTR $T80[ebp]
  001d1	e8 00 00 00 00	 call	 ?_Tidy_deallocate@?$basic_string@DU?$char_traits@D@std@@V?$allocator@D@2@@std@@AAEXXZ ; std::basic_string<char,std::char_traits<char>,std::allocator<char> >::_Tidy_deallocate
; File D:\Metin2 Server Files\mainline\SRC_2014\Metin2Client\GameLib\MapUtil.cpp

; 91   : 			textLoader.GetTokenColor("ambient", &envData.DirLights[ENV_DIRLIGHT_BACKGROUND].Ambient);

  001d6	68 00 00 00 00	 push	 OFFSET ??_C@_07LIABELBC@ambient@
  001db	8d 8d a0 02 00
	00		 lea	 ecx, DWORD PTR $T75[ebp]
  001e1	e8 00 00 00 00	 call	 ??0?$basic_string@DU?$char_traits@D@std@@V?$allocator@D@2@@std@@QAE@QBD@Z ; std::basic_string<char,std::char_traits<char>,std::allocator<char> >::basic_string<char,std::char_traits<char>,std::allocator<char> >
  001e6	c6 45 fc 05	 mov	 BYTE PTR __$EHRec$[ebp+8], 5
  001ea	6a 68		 push	 104			; 00000068H
  001ec	58		 pop	 eax
  001ed	6b c0 00	 imul	 eax, eax, 0
  001f0	8b 8d a0 04 00
	00		 mov	 ecx, DWORD PTR _envData$[ebp]
  001f6	8d 44 01 2c	 lea	 eax, DWORD PTR [ecx+eax+44]
  001fa	50		 push	 eax
  001fb	8d 85 a0 02 00
	00		 lea	 eax, DWORD PTR $T75[ebp]
  00201	50		 push	 eax
  00202	8d 8d 14 04 00
	00		 lea	 ecx, DWORD PTR _textLoader$[ebp]
  00208	e8 00 00 00 00	 call	 ?GetTokenColor@CTextFileLoader@@QAEHABV?$basic_string@DU?$char_traits@D@std@@V?$allocator@D@2@@std@@PAU_D3DCOLORVALUE@@@Z ; CTextFileLoader::GetTokenColor
  0020d	c6 45 fc 00	 mov	 BYTE PTR __$EHRec$[ebp+8], 0
; File C:\Program Files (x86)\Microsoft Visual Studio\2019\Community\VC\Tools\MSVC\14.28.29333\include\xstring

; 2801 :         _Tidy_deallocate();

  00211	8d 8d a0 02 00
	00		 lea	 ecx, DWORD PTR $T75[ebp]
  00217	e8 00 00 00 00	 call	 ?_Tidy_deallocate@?$basic_string@DU?$char_traits@D@std@@V?$allocator@D@2@@std@@AAEXXZ ; std::basic_string<char,std::char_traits<char>,std::allocator<char> >::_Tidy_deallocate
; File D:\Metin2 Server Files\mainline\SRC_2014\Metin2Client\GameLib\MapUtil.cpp

; 92   : 			textLoader.SetParentNode();

  0021c	8d 8d 14 04 00
	00		 lea	 ecx, DWORD PTR _textLoader$[ebp]
  00222	e8 00 00 00 00	 call	 ?SetParentNode@CTextFileLoader@@QAEHXZ ; CTextFileLoader::SetParentNode
$LN7@Environmen:

; 93   : 		}
; 94   : 
; 95   : 		if (textLoader.SetChildNode("character"))

  00227	68 00 00 00 00	 push	 OFFSET ??_C@_09MNKJOHH@character@
  0022c	8d 8d 14 04 00
	00		 lea	 ecx, DWORD PTR _textLoader$[ebp]
  00232	e8 00 00 00 00	 call	 ?SetChildNode@CTextFileLoader@@QAEHPBD@Z ; CTextFileLoader::SetChildNode
  00237	85 c0		 test	 eax, eax
  00239	0f 84 f2 00 00
	00		 je	 $LN8@Environmen

; 96   : 		{
; 97   : 			envData.DirLights[ENV_DIRLIGHT_CHARACTER].Direction = v3Dir;

  0023f	6a 68		 push	 104			; 00000068H
  00241	58		 pop	 eax
  00242	c1 e0 00	 shl	 eax, 0
  00245	8b 8d a0 04 00
	00		 mov	 ecx, DWORD PTR _envData$[ebp]
  0024b	8d 7c 01 48	 lea	 edi, DWORD PTR [ecx+eax+72]
  0024f	8d b5 08 04 00
	00		 lea	 esi, DWORD PTR _v3Dir$90[ebp]
  00255	a5		 movsd
  00256	a5		 movsd
  00257	a5		 movsd

; 98   : 			textLoader.GetTokenBoolean("enable", &envData.bDirLightsEnable[ENV_DIRLIGHT_CHARACTER]);

  00258	68 00 00 00 00	 push	 OFFSET ??_C@_06OFNJOBDK@enable@
  0025d	8d 8d 88 02 00
	00		 lea	 ecx, DWORD PTR $T74[ebp]
  00263	e8 00 00 00 00	 call	 ??0?$basic_string@DU?$char_traits@D@std@@V?$allocator@D@2@@std@@QAE@QBD@Z ; std::basic_string<char,std::char_traits<char>,std::allocator<char> >::basic_string<char,std::char_traits<char>,std::allocator<char> >
  00268	c6 45 fc 06	 mov	 BYTE PTR __$EHRec$[ebp+8], 6
  0026c	6a 04		 push	 4
  0026e	58		 pop	 eax
  0026f	c1 e0 00	 shl	 eax, 0
  00272	03 85 a0 04 00
	00		 add	 eax, DWORD PTR _envData$[ebp]
  00278	50		 push	 eax
  00279	8d 85 88 02 00
	00		 lea	 eax, DWORD PTR $T74[ebp]
  0027f	50		 push	 eax
  00280	8d 8d 14 04 00
	00		 lea	 ecx, DWORD PTR _textLoader$[ebp]
  00286	e8 00 00 00 00	 call	 ?GetTokenBoolean@CTextFileLoader@@QAEHABV?$basic_string@DU?$char_traits@D@std@@V?$allocator@D@2@@std@@PAH@Z ; CTextFileLoader::GetTokenBoolean
  0028b	c6 45 fc 00	 mov	 BYTE PTR __$EHRec$[ebp+8], 0
; File C:\Program Files (x86)\Microsoft Visual Studio\2019\Community\VC\Tools\MSVC\14.28.29333\include\xstring

; 2801 :         _Tidy_deallocate();

  0028f	8d 8d 88 02 00
	00		 lea	 ecx, DWORD PTR $T74[ebp]
  00295	e8 00 00 00 00	 call	 ?_Tidy_deallocate@?$basic_string@DU?$char_traits@D@std@@V?$allocator@D@2@@std@@AAEXXZ ; std::basic_string<char,std::char_traits<char>,std::allocator<char> >::_Tidy_deallocate
; File D:\Metin2 Server Files\mainline\SRC_2014\Metin2Client\GameLib\MapUtil.cpp

; 99   : 			textLoader.GetTokenColor("diffuse", &envData.DirLights[ENV_DIRLIGHT_CHARACTER].Diffuse);

  0029a	68 00 00 00 00	 push	 OFFSET ??_C@_07KFBPAAO@diffuse@
  0029f	8d 8d 70 02 00
	00		 lea	 ecx, DWORD PTR $T73[ebp]
  002a5	e8 00 00 00 00	 call	 ??0?$basic_string@DU?$char_traits@D@std@@V?$allocator@D@2@@std@@QAE@QBD@Z ; std::basic_string<char,std::char_traits<char>,std::allocator<char> >::basic_string<char,std::char_traits<char>,std::allocator<char> >
  002aa	c6 45 fc 07	 mov	 BYTE PTR __$EHRec$[ebp+8], 7
  002ae	6a 68		 push	 104			; 00000068H
  002b0	58		 pop	 eax
  002b1	c1 e0 00	 shl	 eax, 0
  002b4	8b 8d a0 04 00
	00		 mov	 ecx, DWORD PTR _envData$[ebp]
  002ba	8d 44 01 0c	 lea	 eax, DWORD PTR [ecx+eax+12]
  002be	50		 push	 eax
  002bf	8d 85 70 02 00
	00		 lea	 eax, DWORD PTR $T73[ebp]
  002c5	50		 push	 eax
  002c6	8d 8d 14 04 00
	00		 lea	 ecx, DWORD PTR _textLoader$[ebp]
  002cc	e8 00 00 00 00	 call	 ?GetTokenColor@CTextFileLoader@@QAEHABV?$basic_string@DU?$char_traits@D@std@@V?$allocator@D@2@@std@@PAU_D3DCOLORVALUE@@@Z ; CTextFileLoader::GetTokenColor
  002d1	c6 45 fc 00	 mov	 BYTE PTR __$EHRec$[ebp+8], 0
; File C:\Program Files (x86)\Microsoft Visual Studio\2019\Community\VC\Tools\MSVC\14.28.29333\include\xstring

; 2801 :         _Tidy_deallocate();

  002d5	8d 8d 70 02 00
	00		 lea	 ecx, DWORD PTR $T73[ebp]
  002db	e8 00 00 00 00	 call	 ?_Tidy_deallocate@?$basic_string@DU?$char_traits@D@std@@V?$allocator@D@2@@std@@AAEXXZ ; std::basic_string<char,std::char_traits<char>,std::allocator<char> >::_Tidy_deallocate
; File D:\Metin2 Server Files\mainline\SRC_2014\Metin2Client\GameLib\MapUtil.cpp

; 100  : 			textLoader.GetTokenColor("ambient", &envData.DirLights[ENV_DIRLIGHT_CHARACTER].Ambient);

  002e0	68 00 00 00 00	 push	 OFFSET ??_C@_07LIABELBC@ambient@
  002e5	8d 8d 58 02 00
	00		 lea	 ecx, DWORD PTR $T72[ebp]
  002eb	e8 00 00 00 00	 call	 ??0?$basic_string@DU?$char_traits@D@std@@V?$allocator@D@2@@std@@QAE@QBD@Z ; std::basic_string<char,std::char_traits<char>,std::allocator<char> >::basic_string<char,std::char_traits<char>,std::allocator<char> >
  002f0	c6 45 fc 08	 mov	 BYTE PTR __$EHRec$[ebp+8], 8
  002f4	6a 68		 push	 104			; 00000068H
  002f6	58		 pop	 eax
  002f7	c1 e0 00	 shl	 eax, 0
  002fa	8b 8d a0 04 00
	00		 mov	 ecx, DWORD PTR _envData$[ebp]
  00300	8d 44 01 2c	 lea	 eax, DWORD PTR [ecx+eax+44]
  00304	50		 push	 eax
  00305	8d 85 58 02 00
	00		 lea	 eax, DWORD PTR $T72[ebp]
  0030b	50		 push	 eax
  0030c	8d 8d 14 04 00
	00		 lea	 ecx, DWORD PTR _textLoader$[ebp]
  00312	e8 00 00 00 00	 call	 ?GetTokenColor@CTextFileLoader@@QAEHABV?$basic_string@DU?$char_traits@D@std@@V?$allocator@D@2@@std@@PAU_D3DCOLORVALUE@@@Z ; CTextFileLoader::GetTokenColor
  00317	c6 45 fc 00	 mov	 BYTE PTR __$EHRec$[ebp+8], 0
; File C:\Program Files (x86)\Microsoft Visual Studio\2019\Community\VC\Tools\MSVC\14.28.29333\include\xstring

; 2801 :         _Tidy_deallocate();

  0031b	8d 8d 58 02 00
	00		 lea	 ecx, DWORD PTR $T72[ebp]
  00321	e8 00 00 00 00	 call	 ?_Tidy_deallocate@?$basic_string@DU?$char_traits@D@std@@V?$allocator@D@2@@std@@AAEXXZ ; std::basic_string<char,std::char_traits<char>,std::allocator<char> >::_Tidy_deallocate
; File D:\Metin2 Server Files\mainline\SRC_2014\Metin2Client\GameLib\MapUtil.cpp

; 101  : 			textLoader.SetParentNode();

  00326	8d 8d 14 04 00
	00		 lea	 ecx, DWORD PTR _textLoader$[ebp]
  0032c	e8 00 00 00 00	 call	 ?SetParentNode@CTextFileLoader@@QAEHXZ ; CTextFileLoader::SetParentNode
$LN8@Environmen:

; 102  : 		}
; 103  : 
; 104  : 		textLoader.SetParentNode();

  00331	8d 8d 14 04 00
	00		 lea	 ecx, DWORD PTR _textLoader$[ebp]
  00337	e8 00 00 00 00	 call	 ?SetParentNode@CTextFileLoader@@QAEHXZ ; CTextFileLoader::SetParentNode
$LN6@Environmen:

; 105  : 	}
; 106  : 
; 107  : 	if (textLoader.SetChildNode("material"))

  0033c	68 00 00 00 00	 push	 OFFSET ??_C@_08KNOEMJMM@material@
  00341	8d 8d 14 04 00
	00		 lea	 ecx, DWORD PTR _textLoader$[ebp]
  00347	e8 00 00 00 00	 call	 ?SetChildNode@CTextFileLoader@@QAEHPBD@Z ; CTextFileLoader::SetChildNode
  0034c	85 c0		 test	 eax, eax
  0034e	0f 84 ce 00 00
	00		 je	 $LN9@Environmen

; 108  : 	{
; 109  : 		textLoader.GetTokenColor("diffuse", &envData.Material.Diffuse);

  00354	68 00 00 00 00	 push	 OFFSET ??_C@_07KFBPAAO@diffuse@
  00359	8d 8d 40 02 00
	00		 lea	 ecx, DWORD PTR $T71[ebp]
  0035f	e8 00 00 00 00	 call	 ??0?$basic_string@DU?$char_traits@D@std@@V?$allocator@D@2@@std@@QAE@QBD@Z ; std::basic_string<char,std::char_traits<char>,std::allocator<char> >::basic_string<char,std::char_traits<char>,std::allocator<char> >
  00364	c6 45 fc 09	 mov	 BYTE PTR __$EHRec$[ebp+8], 9
  00368	8b 85 a0 04 00
	00		 mov	 eax, DWORD PTR _envData$[ebp]
  0036e	05 d8 00 00 00	 add	 eax, 216		; 000000d8H
  00373	50		 push	 eax
  00374	8d 85 40 02 00
	00		 lea	 eax, DWORD PTR $T71[ebp]
  0037a	50		 push	 eax
  0037b	8d 8d 14 04 00
	00		 lea	 ecx, DWORD PTR _textLoader$[ebp]
  00381	e8 00 00 00 00	 call	 ?GetTokenColor@CTextFileLoader@@QAEHABV?$basic_string@DU?$char_traits@D@std@@V?$allocator@D@2@@std@@PAU_D3DCOLORVALUE@@@Z ; CTextFileLoader::GetTokenColor
  00386	c6 45 fc 00	 mov	 BYTE PTR __$EHRec$[ebp+8], 0
; File C:\Program Files (x86)\Microsoft Visual Studio\2019\Community\VC\Tools\MSVC\14.28.29333\include\xstring

; 2801 :         _Tidy_deallocate();

  0038a	8d 8d 40 02 00
	00		 lea	 ecx, DWORD PTR $T71[ebp]
  00390	e8 00 00 00 00	 call	 ?_Tidy_deallocate@?$basic_string@DU?$char_traits@D@std@@V?$allocator@D@2@@std@@AAEXXZ ; std::basic_string<char,std::char_traits<char>,std::allocator<char> >::_Tidy_deallocate
; File D:\Metin2 Server Files\mainline\SRC_2014\Metin2Client\GameLib\MapUtil.cpp

; 110  : 		textLoader.GetTokenColor("ambient", &envData.Material.Ambient);

  00395	68 00 00 00 00	 push	 OFFSET ??_C@_07LIABELBC@ambient@
  0039a	8d 8d 28 02 00
	00		 lea	 ecx, DWORD PTR $T70[ebp]
  003a0	e8 00 00 00 00	 call	 ??0?$basic_string@DU?$char_traits@D@std@@V?$allocator@D@2@@std@@QAE@QBD@Z ; std::basic_string<char,std::char_traits<char>,std::allocator<char> >::basic_string<char,std::char_traits<char>,std::allocator<char> >
  003a5	c6 45 fc 0a	 mov	 BYTE PTR __$EHRec$[ebp+8], 10 ; 0000000aH
  003a9	8b 85 a0 04 00
	00		 mov	 eax, DWORD PTR _envData$[ebp]
  003af	05 e8 00 00 00	 add	 eax, 232		; 000000e8H
  003b4	50		 push	 eax
  003b5	8d 85 28 02 00
	00		 lea	 eax, DWORD PTR $T70[ebp]
  003bb	50		 push	 eax
  003bc	8d 8d 14 04 00
	00		 lea	 ecx, DWORD PTR _textLoader$[ebp]
  003c2	e8 00 00 00 00	 call	 ?GetTokenColor@CTextFileLoader@@QAEHABV?$basic_string@DU?$char_traits@D@std@@V?$allocator@D@2@@std@@PAU_D3DCOLORVALUE@@@Z ; CTextFileLoader::GetTokenColor
  003c7	c6 45 fc 00	 mov	 BYTE PTR __$EHRec$[ebp+8], 0
; File C:\Program Files (x86)\Microsoft Visual Studio\2019\Community\VC\Tools\MSVC\14.28.29333\include\xstring

; 2801 :         _Tidy_deallocate();

  003cb	8d 8d 28 02 00
	00		 lea	 ecx, DWORD PTR $T70[ebp]
  003d1	e8 00 00 00 00	 call	 ?_Tidy_deallocate@?$basic_string@DU?$char_traits@D@std@@V?$allocator@D@2@@std@@AAEXXZ ; std::basic_string<char,std::char_traits<char>,std::allocator<char> >::_Tidy_deallocate
; File D:\Metin2 Server Files\mainline\SRC_2014\Metin2Client\GameLib\MapUtil.cpp

; 111  : 		textLoader.GetTokenColor("emissive", &envData.Material.Emissive);

  003d6	68 00 00 00 00	 push	 OFFSET ??_C@_08GHNOEFBP@emissive@
  003db	8d 8d 10 02 00
	00		 lea	 ecx, DWORD PTR $T69[ebp]
  003e1	e8 00 00 00 00	 call	 ??0?$basic_string@DU?$char_traits@D@std@@V?$allocator@D@2@@std@@QAE@QBD@Z ; std::basic_string<char,std::char_traits<char>,std::allocator<char> >::basic_string<char,std::char_traits<char>,std::allocator<char> >
  003e6	c6 45 fc 0b	 mov	 BYTE PTR __$EHRec$[ebp+8], 11 ; 0000000bH
  003ea	8b 85 a0 04 00
	00		 mov	 eax, DWORD PTR _envData$[ebp]
  003f0	05 08 01 00 00	 add	 eax, 264		; 00000108H
  003f5	50		 push	 eax
  003f6	8d 85 10 02 00
	00		 lea	 eax, DWORD PTR $T69[ebp]
  003fc	50		 push	 eax
  003fd	8d 8d 14 04 00
	00		 lea	 ecx, DWORD PTR _textLoader$[ebp]
  00403	e8 00 00 00 00	 call	 ?GetTokenColor@CTextFileLoader@@QAEHABV?$basic_string@DU?$char_traits@D@std@@V?$allocator@D@2@@std@@PAU_D3DCOLORVALUE@@@Z ; CTextFileLoader::GetTokenColor
  00408	c6 45 fc 00	 mov	 BYTE PTR __$EHRec$[ebp+8], 0
; File C:\Program Files (x86)\Microsoft Visual Studio\2019\Community\VC\Tools\MSVC\14.28.29333\include\xstring

; 2801 :         _Tidy_deallocate();

  0040c	8d 8d 10 02 00
	00		 lea	 ecx, DWORD PTR $T69[ebp]
  00412	e8 00 00 00 00	 call	 ?_Tidy_deallocate@?$basic_string@DU?$char_traits@D@std@@V?$allocator@D@2@@std@@AAEXXZ ; std::basic_string<char,std::char_traits<char>,std::allocator<char> >::_Tidy_deallocate
; File D:\Metin2 Server Files\mainline\SRC_2014\Metin2Client\GameLib\MapUtil.cpp

; 112  : 		textLoader.SetParentNode();

  00417	8d 8d 14 04 00
	00		 lea	 ecx, DWORD PTR _textLoader$[ebp]
  0041d	e8 00 00 00 00	 call	 ?SetParentNode@CTextFileLoader@@QAEHXZ ; CTextFileLoader::SetParentNode
$LN9@Environmen:

; 113  : 	}
; 114  : 
; 115  : 	if (textLoader.SetChildNode("fog"))

  00422	68 00 00 00 00	 push	 OFFSET ??_C@_03KJMBPJEB@fog@
  00427	8d 8d 14 04 00
	00		 lea	 ecx, DWORD PTR _textLoader$[ebp]
  0042d	e8 00 00 00 00	 call	 ?SetChildNode@CTextFileLoader@@QAEHPBD@Z ; CTextFileLoader::SetChildNode
  00432	85 c0		 test	 eax, eax
  00434	0f 84 50 01 00
	00		 je	 $LN10@Environmen

; 116  : 	{
; 117  : 		textLoader.GetTokenBoolean("enable", &envData.bFogEnable);

  0043a	68 00 00 00 00	 push	 OFFSET ??_C@_06OFNJOBDK@enable@
  0043f	8d 8d f8 01 00
	00		 lea	 ecx, DWORD PTR $T68[ebp]
  00445	e8 00 00 00 00	 call	 ??0?$basic_string@DU?$char_traits@D@std@@V?$allocator@D@2@@std@@QAE@QBD@Z ; std::basic_string<char,std::char_traits<char>,std::allocator<char> >::basic_string<char,std::char_traits<char>,std::allocator<char> >
  0044a	c6 45 fc 0c	 mov	 BYTE PTR __$EHRec$[ebp+8], 12 ; 0000000cH
  0044e	8b 85 a0 04 00
	00		 mov	 eax, DWORD PTR _envData$[ebp]
  00454	05 1c 01 00 00	 add	 eax, 284		; 0000011cH
  00459	50		 push	 eax
  0045a	8d 85 f8 01 00
	00		 lea	 eax, DWORD PTR $T68[ebp]
  00460	50		 push	 eax
  00461	8d 8d 14 04 00
	00		 lea	 ecx, DWORD PTR _textLoader$[ebp]
  00467	e8 00 00 00 00	 call	 ?GetTokenBoolean@CTextFileLoader@@QAEHABV?$basic_string@DU?$char_traits@D@std@@V?$allocator@D@2@@std@@PAH@Z ; CTextFileLoader::GetTokenBoolean
  0046c	c6 45 fc 00	 mov	 BYTE PTR __$EHRec$[ebp+8], 0
; File C:\Program Files (x86)\Microsoft Visual Studio\2019\Community\VC\Tools\MSVC\14.28.29333\include\xstring

; 2801 :         _Tidy_deallocate();

  00470	8d 8d f8 01 00
	00		 lea	 ecx, DWORD PTR $T68[ebp]
  00476	e8 00 00 00 00	 call	 ?_Tidy_deallocate@?$basic_string@DU?$char_traits@D@std@@V?$allocator@D@2@@std@@AAEXXZ ; std::basic_string<char,std::char_traits<char>,std::allocator<char> >::_Tidy_deallocate
; File D:\Metin2 Server Files\mainline\SRC_2014\Metin2Client\GameLib\MapUtil.cpp

; 118  : 		textLoader.GetTokenBoolean("isdensity", &envData.bDensityFog);

  0047b	68 00 00 00 00	 push	 OFFSET ??_C@_09BCCBMEKP@isdensity@
  00480	8d 8d e0 01 00
	00		 lea	 ecx, DWORD PTR $T67[ebp]
  00486	e8 00 00 00 00	 call	 ??0?$basic_string@DU?$char_traits@D@std@@V?$allocator@D@2@@std@@QAE@QBD@Z ; std::basic_string<char,std::char_traits<char>,std::allocator<char> >::basic_string<char,std::char_traits<char>,std::allocator<char> >
  0048b	c6 45 fc 0d	 mov	 BYTE PTR __$EHRec$[ebp+8], 13 ; 0000000dH
  0048f	8b 85 a0 04 00
	00		 mov	 eax, DWORD PTR _envData$[ebp]
  00495	05 20 01 00 00	 add	 eax, 288		; 00000120H
  0049a	50		 push	 eax
  0049b	8d 85 e0 01 00
	00		 lea	 eax, DWORD PTR $T67[ebp]
  004a1	50		 push	 eax
  004a2	8d 8d 14 04 00
	00		 lea	 ecx, DWORD PTR _textLoader$[ebp]
  004a8	e8 00 00 00 00	 call	 ?GetTokenBoolean@CTextFileLoader@@QAEHABV?$basic_string@DU?$char_traits@D@std@@V?$allocator@D@2@@std@@PAH@Z ; CTextFileLoader::GetTokenBoolean
  004ad	c6 45 fc 00	 mov	 BYTE PTR __$EHRec$[ebp+8], 0
; File C:\Program Files (x86)\Microsoft Visual Studio\2019\Community\VC\Tools\MSVC\14.28.29333\include\xstring

; 2801 :         _Tidy_deallocate();

  004b1	8d 8d e0 01 00
	00		 lea	 ecx, DWORD PTR $T67[ebp]
  004b7	e8 00 00 00 00	 call	 ?_Tidy_deallocate@?$basic_string@DU?$char_traits@D@std@@V?$allocator@D@2@@std@@AAEXXZ ; std::basic_string<char,std::char_traits<char>,std::allocator<char> >::_Tidy_deallocate
; File D:\Metin2 Server Files\mainline\SRC_2014\Metin2Client\GameLib\MapUtil.cpp

; 119  : 		textLoader.GetTokenFloat("neardistance", &envData.m_fFogNearDistance);

  004bc	68 00 00 00 00	 push	 OFFSET ??_C@_0N@HJCBLCNJ@neardistance@
  004c1	8d 8d c8 01 00
	00		 lea	 ecx, DWORD PTR $T66[ebp]
  004c7	e8 00 00 00 00	 call	 ??0?$basic_string@DU?$char_traits@D@std@@V?$allocator@D@2@@std@@QAE@QBD@Z ; std::basic_string<char,std::char_traits<char>,std::allocator<char> >::basic_string<char,std::char_traits<char>,std::allocator<char> >
  004cc	c6 45 fc 0e	 mov	 BYTE PTR __$EHRec$[ebp+8], 14 ; 0000000eH
  004d0	8b 85 a0 04 00
	00		 mov	 eax, DWORD PTR _envData$[ebp]
  004d6	05 24 01 00 00	 add	 eax, 292		; 00000124H
  004db	50		 push	 eax
  004dc	8d 85 c8 01 00
	00		 lea	 eax, DWORD PTR $T66[ebp]
  004e2	50		 push	 eax
  004e3	8d 8d 14 04 00
	00		 lea	 ecx, DWORD PTR _textLoader$[ebp]
  004e9	e8 00 00 00 00	 call	 ?GetTokenFloat@CTextFileLoader@@QAEHABV?$basic_string@DU?$char_traits@D@std@@V?$allocator@D@2@@std@@PAM@Z ; CTextFileLoader::GetTokenFloat
  004ee	c6 45 fc 00	 mov	 BYTE PTR __$EHRec$[ebp+8], 0
; File C:\Program Files (x86)\Microsoft Visual Studio\2019\Community\VC\Tools\MSVC\14.28.29333\include\xstring

; 2801 :         _Tidy_deallocate();

  004f2	8d 8d c8 01 00
	00		 lea	 ecx, DWORD PTR $T66[ebp]
  004f8	e8 00 00 00 00	 call	 ?_Tidy_deallocate@?$basic_string@DU?$char_traits@D@std@@V?$allocator@D@2@@std@@AAEXXZ ; std::basic_string<char,std::char_traits<char>,std::allocator<char> >::_Tidy_deallocate
; File D:\Metin2 Server Files\mainline\SRC_2014\Metin2Client\GameLib\MapUtil.cpp

; 120  : 		textLoader.GetTokenFloat("fardistance", &envData.m_fFogFarDistance);

  004fd	68 00 00 00 00	 push	 OFFSET ??_C@_0M@IOALDGCK@fardistance@
  00502	8d 8d b0 01 00
	00		 lea	 ecx, DWORD PTR $T65[ebp]
  00508	e8 00 00 00 00	 call	 ??0?$basic_string@DU?$char_traits@D@std@@V?$allocator@D@2@@std@@QAE@QBD@Z ; std::basic_string<char,std::char_traits<char>,std::allocator<char> >::basic_string<char,std::char_traits<char>,std::allocator<char> >
  0050d	c6 45 fc 0f	 mov	 BYTE PTR __$EHRec$[ebp+8], 15 ; 0000000fH
  00511	8b 85 a0 04 00
	00		 mov	 eax, DWORD PTR _envData$[ebp]
  00517	05 28 01 00 00	 add	 eax, 296		; 00000128H
  0051c	50		 push	 eax
  0051d	8d 85 b0 01 00
	00		 lea	 eax, DWORD PTR $T65[ebp]
  00523	50		 push	 eax
  00524	8d 8d 14 04 00
	00		 lea	 ecx, DWORD PTR _textLoader$[ebp]
  0052a	e8 00 00 00 00	 call	 ?GetTokenFloat@CTextFileLoader@@QAEHABV?$basic_string@DU?$char_traits@D@std@@V?$allocator@D@2@@std@@PAM@Z ; CTextFileLoader::GetTokenFloat
  0052f	c6 45 fc 00	 mov	 BYTE PTR __$EHRec$[ebp+8], 0
; File C:\Program Files (x86)\Microsoft Visual Studio\2019\Community\VC\Tools\MSVC\14.28.29333\include\xstring

; 2801 :         _Tidy_deallocate();

  00533	8d 8d b0 01 00
	00		 lea	 ecx, DWORD PTR $T65[ebp]
  00539	e8 00 00 00 00	 call	 ?_Tidy_deallocate@?$basic_string@DU?$char_traits@D@std@@V?$allocator@D@2@@std@@AAEXXZ ; std::basic_string<char,std::char_traits<char>,std::allocator<char> >::_Tidy_deallocate
; File D:\Metin2 Server Files\mainline\SRC_2014\Metin2Client\GameLib\MapUtil.cpp

; 121  : 		textLoader.GetTokenColor("color", &envData.FogColor);

  0053e	68 00 00 00 00	 push	 OFFSET ??_C@_05PEENBMOG@color@
  00543	8d 8d 78 03 00
	00		 lea	 ecx, DWORD PTR $T84[ebp]
  00549	e8 00 00 00 00	 call	 ??0?$basic_string@DU?$char_traits@D@std@@V?$allocator@D@2@@std@@QAE@QBD@Z ; std::basic_string<char,std::char_traits<char>,std::allocator<char> >::basic_string<char,std::char_traits<char>,std::allocator<char> >
  0054e	c6 45 fc 10	 mov	 BYTE PTR __$EHRec$[ebp+8], 16 ; 00000010H
  00552	8b 85 a0 04 00
	00		 mov	 eax, DWORD PTR _envData$[ebp]
  00558	05 2c 01 00 00	 add	 eax, 300		; 0000012cH
  0055d	50		 push	 eax
  0055e	8d 85 78 03 00
	00		 lea	 eax, DWORD PTR $T84[ebp]
  00564	50		 push	 eax
  00565	8d 8d 14 04 00
	00		 lea	 ecx, DWORD PTR _textLoader$[ebp]
  0056b	e8 00 00 00 00	 call	 ?GetTokenColor@CTextFileLoader@@QAEHABV?$basic_string@DU?$char_traits@D@std@@V?$allocator@D@2@@std@@PAUD3DXCOLOR@@@Z ; CTextFileLoader::GetTokenColor
  00570	c6 45 fc 00	 mov	 BYTE PTR __$EHRec$[ebp+8], 0
; File C:\Program Files (x86)\Microsoft Visual Studio\2019\Community\VC\Tools\MSVC\14.28.29333\include\xstring

; 2801 :         _Tidy_deallocate();

  00574	8d 8d 78 03 00
	00		 lea	 ecx, DWORD PTR $T84[ebp]
  0057a	e8 00 00 00 00	 call	 ?_Tidy_deallocate@?$basic_string@DU?$char_traits@D@std@@V?$allocator@D@2@@std@@AAEXXZ ; std::basic_string<char,std::char_traits<char>,std::allocator<char> >::_Tidy_deallocate
; File D:\Metin2 Server Files\mainline\SRC_2014\Metin2Client\GameLib\MapUtil.cpp

; 122  : 		textLoader.SetParentNode();

  0057f	8d 8d 14 04 00
	00		 lea	 ecx, DWORD PTR _textLoader$[ebp]
  00585	e8 00 00 00 00	 call	 ?SetParentNode@CTextFileLoader@@QAEHXZ ; CTextFileLoader::SetParentNode
$LN10@Environmen:

; 123  : 	}
; 124  : 
; 125  : 	if (textLoader.SetChildNode("filter"))

  0058a	68 00 00 00 00	 push	 OFFSET ??_C@_06EOIELIPE@filter@
  0058f	8d 8d 14 04 00
	00		 lea	 ecx, DWORD PTR _textLoader$[ebp]
  00595	e8 00 00 00 00	 call	 ?SetChildNode@CTextFileLoader@@QAEHPBD@Z ; CTextFileLoader::SetChildNode
  0059a	85 c0		 test	 eax, eax
  0059c	0f 84 0f 01 00
	00		 je	 $LN11@Environmen

; 126  : 	{
; 127  : 		textLoader.GetTokenBoolean("enable", (BOOL *) &envData.bFilteringEnable);

  005a2	68 00 00 00 00	 push	 OFFSET ??_C@_06OFNJOBDK@enable@
  005a7	8d 8d 80 01 00
	00		 lea	 ecx, DWORD PTR $T63[ebp]
  005ad	e8 00 00 00 00	 call	 ??0?$basic_string@DU?$char_traits@D@std@@V?$allocator@D@2@@std@@QAE@QBD@Z ; std::basic_string<char,std::char_traits<char>,std::allocator<char> >::basic_string<char,std::char_traits<char>,std::allocator<char> >
  005b2	c6 45 fc 11	 mov	 BYTE PTR __$EHRec$[ebp+8], 17 ; 00000011H
  005b6	8b 85 a0 04 00
	00		 mov	 eax, DWORD PTR _envData$[ebp]
  005bc	05 3c 01 00 00	 add	 eax, 316		; 0000013cH
  005c1	50		 push	 eax
  005c2	8d 85 80 01 00
	00		 lea	 eax, DWORD PTR $T63[ebp]
  005c8	50		 push	 eax
  005c9	8d 8d 14 04 00
	00		 lea	 ecx, DWORD PTR _textLoader$[ebp]
  005cf	e8 00 00 00 00	 call	 ?GetTokenBoolean@CTextFileLoader@@QAEHABV?$basic_string@DU?$char_traits@D@std@@V?$allocator@D@2@@std@@PAH@Z ; CTextFileLoader::GetTokenBoolean
  005d4	c6 45 fc 00	 mov	 BYTE PTR __$EHRec$[ebp+8], 0
; File C:\Program Files (x86)\Microsoft Visual Studio\2019\Community\VC\Tools\MSVC\14.28.29333\include\xstring

; 2801 :         _Tidy_deallocate();

  005d8	8d 8d 80 01 00
	00		 lea	 ecx, DWORD PTR $T63[ebp]
  005de	e8 00 00 00 00	 call	 ?_Tidy_deallocate@?$basic_string@DU?$char_traits@D@std@@V?$allocator@D@2@@std@@AAEXXZ ; std::basic_string<char,std::char_traits<char>,std::allocator<char> >::_Tidy_deallocate
; File D:\Metin2 Server Files\mainline\SRC_2014\Metin2Client\GameLib\MapUtil.cpp

; 128  : 		textLoader.GetTokenColor("color", &envData.FilteringColor);

  005e3	68 00 00 00 00	 push	 OFFSET ??_C@_05PEENBMOG@color@
  005e8	8d 8d 00 03 00
	00		 lea	 ecx, DWORD PTR $T79[ebp]
  005ee	e8 00 00 00 00	 call	 ??0?$basic_string@DU?$char_traits@D@std@@V?$allocator@D@2@@std@@QAE@QBD@Z ; std::basic_string<char,std::char_traits<char>,std::allocator<char> >::basic_string<char,std::char_traits<char>,std::allocator<char> >
  005f3	c6 45 fc 12	 mov	 BYTE PTR __$EHRec$[ebp+8], 18 ; 00000012H
  005f7	8b 85 a0 04 00
	00		 mov	 eax, DWORD PTR _envData$[ebp]
  005fd	05 40 01 00 00	 add	 eax, 320		; 00000140H
  00602	50		 push	 eax
  00603	8d 85 00 03 00
	00		 lea	 eax, DWORD PTR $T79[ebp]
  00609	50		 push	 eax
  0060a	8d 8d 14 04 00
	00		 lea	 ecx, DWORD PTR _textLoader$[ebp]
  00610	e8 00 00 00 00	 call	 ?GetTokenColor@CTextFileLoader@@QAEHABV?$basic_string@DU?$char_traits@D@std@@V?$allocator@D@2@@std@@PAUD3DXCOLOR@@@Z ; CTextFileLoader::GetTokenColor
  00615	c6 45 fc 00	 mov	 BYTE PTR __$EHRec$[ebp+8], 0
; File C:\Program Files (x86)\Microsoft Visual Studio\2019\Community\VC\Tools\MSVC\14.28.29333\include\xstring

; 2801 :         _Tidy_deallocate();

  00619	8d 8d 00 03 00
	00		 lea	 ecx, DWORD PTR $T79[ebp]
  0061f	e8 00 00 00 00	 call	 ?_Tidy_deallocate@?$basic_string@DU?$char_traits@D@std@@V?$allocator@D@2@@std@@AAEXXZ ; std::basic_string<char,std::char_traits<char>,std::allocator<char> >::_Tidy_deallocate
; File D:\Metin2 Server Files\mainline\SRC_2014\Metin2Client\GameLib\MapUtil.cpp

; 129  : 		textLoader.GetTokenByte("alphasrc", &envData.byFilteringAlphaSrc);

  00624	68 00 00 00 00	 push	 OFFSET ??_C@_08BJBIEDIL@alphasrc@
  00629	8d 8d 68 01 00
	00		 lea	 ecx, DWORD PTR $T62[ebp]
  0062f	e8 00 00 00 00	 call	 ??0?$basic_string@DU?$char_traits@D@std@@V?$allocator@D@2@@std@@QAE@QBD@Z ; std::basic_string<char,std::char_traits<char>,std::allocator<char> >::basic_string<char,std::char_traits<char>,std::allocator<char> >
  00634	c6 45 fc 13	 mov	 BYTE PTR __$EHRec$[ebp+8], 19 ; 00000013H
  00638	8b 85 a0 04 00
	00		 mov	 eax, DWORD PTR _envData$[ebp]
  0063e	05 50 01 00 00	 add	 eax, 336		; 00000150H
  00643	50		 push	 eax
  00644	8d 85 68 01 00
	00		 lea	 eax, DWORD PTR $T62[ebp]
  0064a	50		 push	 eax
  0064b	8d 8d 14 04 00
	00		 lea	 ecx, DWORD PTR _textLoader$[ebp]
  00651	e8 00 00 00 00	 call	 ?GetTokenByte@CTextFileLoader@@QAEHABV?$basic_string@DU?$char_traits@D@std@@V?$allocator@D@2@@std@@PAE@Z ; CTextFileLoader::GetTokenByte
  00656	c6 45 fc 00	 mov	 BYTE PTR __$EHRec$[ebp+8], 0
; File C:\Program Files (x86)\Microsoft Visual Studio\2019\Community\VC\Tools\MSVC\14.28.29333\include\xstring

; 2801 :         _Tidy_deallocate();

  0065a	8d 8d 68 01 00
	00		 lea	 ecx, DWORD PTR $T62[ebp]
  00660	e8 00 00 00 00	 call	 ?_Tidy_deallocate@?$basic_string@DU?$char_traits@D@std@@V?$allocator@D@2@@std@@AAEXXZ ; std::basic_string<char,std::char_traits<char>,std::allocator<char> >::_Tidy_deallocate
; File D:\Metin2 Server Files\mainline\SRC_2014\Metin2Client\GameLib\MapUtil.cpp

; 130  : 		textLoader.GetTokenByte("alphadest", &envData.byFilteringAlphaDest);

  00665	68 00 00 00 00	 push	 OFFSET ??_C@_09DCAIHJNN@alphadest@
  0066a	8d 8d 50 01 00
	00		 lea	 ecx, DWORD PTR $T61[ebp]
  00670	e8 00 00 00 00	 call	 ??0?$basic_string@DU?$char_traits@D@std@@V?$allocator@D@2@@std@@QAE@QBD@Z ; std::basic_string<char,std::char_traits<char>,std::allocator<char> >::basic_string<char,std::char_traits<char>,std::allocator<char> >
  00675	c6 45 fc 14	 mov	 BYTE PTR __$EHRec$[ebp+8], 20 ; 00000014H
  00679	8b 85 a0 04 00
	00		 mov	 eax, DWORD PTR _envData$[ebp]
  0067f	05 51 01 00 00	 add	 eax, 337		; 00000151H
  00684	50		 push	 eax
  00685	8d 85 50 01 00
	00		 lea	 eax, DWORD PTR $T61[ebp]
  0068b	50		 push	 eax
  0068c	8d 8d 14 04 00
	00		 lea	 ecx, DWORD PTR _textLoader$[ebp]
  00692	e8 00 00 00 00	 call	 ?GetTokenByte@CTextFileLoader@@QAEHABV?$basic_string@DU?$char_traits@D@std@@V?$allocator@D@2@@std@@PAE@Z ; CTextFileLoader::GetTokenByte
  00697	c6 45 fc 00	 mov	 BYTE PTR __$EHRec$[ebp+8], 0
; File C:\Program Files (x86)\Microsoft Visual Studio\2019\Community\VC\Tools\MSVC\14.28.29333\include\xstring

; 2801 :         _Tidy_deallocate();

  0069b	8d 8d 50 01 00
	00		 lea	 ecx, DWORD PTR $T61[ebp]
  006a1	e8 00 00 00 00	 call	 ?_Tidy_deallocate@?$basic_string@DU?$char_traits@D@std@@V?$allocator@D@2@@std@@AAEXXZ ; std::basic_string<char,std::char_traits<char>,std::allocator<char> >::_Tidy_deallocate
; File D:\Metin2 Server Files\mainline\SRC_2014\Metin2Client\GameLib\MapUtil.cpp

; 131  : 		textLoader.SetParentNode();

  006a6	8d 8d 14 04 00
	00		 lea	 ecx, DWORD PTR _textLoader$[ebp]
  006ac	e8 00 00 00 00	 call	 ?SetParentNode@CTextFileLoader@@QAEHXZ ; CTextFileLoader::SetParentNode
$LN11@Environmen:

; 132  : 	}
; 133  : 	
; 134  : 	if (textLoader.SetChildNode("skybox"))

  006b1	68 00 00 00 00	 push	 OFFSET ??_C@_06BMKANHHL@skybox@
  006b6	8d 8d 14 04 00
	00		 lea	 ecx, DWORD PTR _textLoader$[ebp]
  006bc	e8 00 00 00 00	 call	 ?SetChildNode@CTextFileLoader@@QAEHPBD@Z ; CTextFileLoader::SetChildNode
  006c1	85 c0		 test	 eax, eax
  006c3	0f 84 c9 09 00
	00		 je	 $LN12@Environmen

; 135  : 	{
; 136  : 		textLoader.GetTokenBoolean("btexturerendermode", (BOOL *) &envData.bSkyBoxTextureRenderMode);

  006c9	68 00 00 00 00	 push	 OFFSET ??_C@_0BD@MANDHJLJ@btexturerendermode@
  006ce	8d 8d 38 01 00
	00		 lea	 ecx, DWORD PTR $T60[ebp]
  006d4	e8 00 00 00 00	 call	 ??0?$basic_string@DU?$char_traits@D@std@@V?$allocator@D@2@@std@@QAE@QBD@Z ; std::basic_string<char,std::char_traits<char>,std::allocator<char> >::basic_string<char,std::char_traits<char>,std::allocator<char> >
  006d9	c6 45 fc 15	 mov	 BYTE PTR __$EHRec$[ebp+8], 21 ; 00000015H
  006dd	8b 85 a0 04 00
	00		 mov	 eax, DWORD PTR _envData$[ebp]
  006e3	05 68 01 00 00	 add	 eax, 360		; 00000168H
  006e8	50		 push	 eax
  006e9	8d 85 38 01 00
	00		 lea	 eax, DWORD PTR $T60[ebp]
  006ef	50		 push	 eax
  006f0	8d 8d 14 04 00
	00		 lea	 ecx, DWORD PTR _textLoader$[ebp]
  006f6	e8 00 00 00 00	 call	 ?GetTokenBoolean@CTextFileLoader@@QAEHABV?$basic_string@DU?$char_traits@D@std@@V?$allocator@D@2@@std@@PAH@Z ; CTextFileLoader::GetTokenBoolean
  006fb	c6 45 fc 00	 mov	 BYTE PTR __$EHRec$[ebp+8], 0
; File C:\Program Files (x86)\Microsoft Visual Studio\2019\Community\VC\Tools\MSVC\14.28.29333\include\xstring

; 2801 :         _Tidy_deallocate();

  006ff	8d 8d 38 01 00
	00		 lea	 ecx, DWORD PTR $T60[ebp]
  00705	e8 00 00 00 00	 call	 ?_Tidy_deallocate@?$basic_string@DU?$char_traits@D@std@@V?$allocator@D@2@@std@@AAEXXZ ; std::basic_string<char,std::char_traits<char>,std::allocator<char> >::_Tidy_deallocate
; File D:\Metin2 Server Files\mainline\SRC_2014\Metin2Client\GameLib\MapUtil.cpp

; 137  : 		textLoader.GetTokenVector3("scale", &envData.v3SkyBoxScale);

  0070a	68 00 00 00 00	 push	 OFFSET ??_C@_05MHMEBBGO@scale@
  0070f	8d 8d 20 01 00
	00		 lea	 ecx, DWORD PTR $T59[ebp]
  00715	e8 00 00 00 00	 call	 ??0?$basic_string@DU?$char_traits@D@std@@V?$allocator@D@2@@std@@QAE@QBD@Z ; std::basic_string<char,std::char_traits<char>,std::allocator<char> >::basic_string<char,std::char_traits<char>,std::allocator<char> >
  0071a	c6 45 fc 16	 mov	 BYTE PTR __$EHRec$[ebp+8], 22 ; 00000016H
  0071e	8b 85 a0 04 00
	00		 mov	 eax, DWORD PTR _envData$[ebp]
  00724	05 5c 01 00 00	 add	 eax, 348		; 0000015cH
  00729	50		 push	 eax
  0072a	8d 85 20 01 00
	00		 lea	 eax, DWORD PTR $T59[ebp]
  00730	50		 push	 eax
  00731	8d 8d 14 04 00
	00		 lea	 ecx, DWORD PTR _textLoader$[ebp]
  00737	e8 00 00 00 00	 call	 ?GetTokenVector3@CTextFileLoader@@QAEHABV?$basic_string@DU?$char_traits@D@std@@V?$allocator@D@2@@std@@PAUD3DXVECTOR3@@@Z ; CTextFileLoader::GetTokenVector3
  0073c	c6 45 fc 00	 mov	 BYTE PTR __$EHRec$[ebp+8], 0
; File C:\Program Files (x86)\Microsoft Visual Studio\2019\Community\VC\Tools\MSVC\14.28.29333\include\xstring

; 2801 :         _Tidy_deallocate();

  00740	8d 8d 20 01 00
	00		 lea	 ecx, DWORD PTR $T59[ebp]
  00746	e8 00 00 00 00	 call	 ?_Tidy_deallocate@?$basic_string@DU?$char_traits@D@std@@V?$allocator@D@2@@std@@AAEXXZ ; std::basic_string<char,std::char_traits<char>,std::allocator<char> >::_Tidy_deallocate
; File D:\Metin2 Server Files\mainline\SRC_2014\Metin2Client\GameLib\MapUtil.cpp

; 138  : 		textLoader.GetTokenByte("gradientlevelupper", &envData.bySkyBoxGradientLevelUpper);

  0074b	68 00 00 00 00	 push	 OFFSET ??_C@_0BD@JOBCGNII@gradientlevelupper@
  00750	8d 8d 08 01 00
	00		 lea	 ecx, DWORD PTR $T58[ebp]
  00756	e8 00 00 00 00	 call	 ??0?$basic_string@DU?$char_traits@D@std@@V?$allocator@D@2@@std@@QAE@QBD@Z ; std::basic_string<char,std::char_traits<char>,std::allocator<char> >::basic_string<char,std::char_traits<char>,std::allocator<char> >
  0075b	c6 45 fc 17	 mov	 BYTE PTR __$EHRec$[ebp+8], 23 ; 00000017H
  0075f	8b 85 a0 04 00
	00		 mov	 eax, DWORD PTR _envData$[ebp]
  00765	05 6c 01 00 00	 add	 eax, 364		; 0000016cH
  0076a	50		 push	 eax
  0076b	8d 85 08 01 00
	00		 lea	 eax, DWORD PTR $T58[ebp]
  00771	50		 push	 eax
  00772	8d 8d 14 04 00
	00		 lea	 ecx, DWORD PTR _textLoader$[ebp]
  00778	e8 00 00 00 00	 call	 ?GetTokenByte@CTextFileLoader@@QAEHABV?$basic_string@DU?$char_traits@D@std@@V?$allocator@D@2@@std@@PAE@Z ; CTextFileLoader::GetTokenByte
  0077d	c6 45 fc 00	 mov	 BYTE PTR __$EHRec$[ebp+8], 0
; File C:\Program Files (x86)\Microsoft Visual Studio\2019\Community\VC\Tools\MSVC\14.28.29333\include\xstring

; 2801 :         _Tidy_deallocate();

  00781	8d 8d 08 01 00
	00		 lea	 ecx, DWORD PTR $T58[ebp]
  00787	e8 00 00 00 00	 call	 ?_Tidy_deallocate@?$basic_string@DU?$char_traits@D@std@@V?$allocator@D@2@@std@@AAEXXZ ; std::basic_string<char,std::char_traits<char>,std::allocator<char> >::_Tidy_deallocate
; File D:\Metin2 Server Files\mainline\SRC_2014\Metin2Client\GameLib\MapUtil.cpp

; 139  : 		textLoader.GetTokenByte("gradientlevellower", &envData.bySkyBoxGradientLevelLower);

  0078c	68 00 00 00 00	 push	 OFFSET ??_C@_0BD@MFKMAGDB@gradientlevellower@
  00791	8d 8d f0 00 00
	00		 lea	 ecx, DWORD PTR $T57[ebp]
  00797	e8 00 00 00 00	 call	 ??0?$basic_string@DU?$char_traits@D@std@@V?$allocator@D@2@@std@@QAE@QBD@Z ; std::basic_string<char,std::char_traits<char>,std::allocator<char> >::basic_string<char,std::char_traits<char>,std::allocator<char> >
  0079c	c6 45 fc 18	 mov	 BYTE PTR __$EHRec$[ebp+8], 24 ; 00000018H
  007a0	8b 85 a0 04 00
	00		 mov	 eax, DWORD PTR _envData$[ebp]
  007a6	05 6d 01 00 00	 add	 eax, 365		; 0000016dH
  007ab	50		 push	 eax
  007ac	8d 85 f0 00 00
	00		 lea	 eax, DWORD PTR $T57[ebp]
  007b2	50		 push	 eax
  007b3	8d 8d 14 04 00
	00		 lea	 ecx, DWORD PTR _textLoader$[ebp]
  007b9	e8 00 00 00 00	 call	 ?GetTokenByte@CTextFileLoader@@QAEHABV?$basic_string@DU?$char_traits@D@std@@V?$allocator@D@2@@std@@PAE@Z ; CTextFileLoader::GetTokenByte
  007be	c6 45 fc 00	 mov	 BYTE PTR __$EHRec$[ebp+8], 0
; File C:\Program Files (x86)\Microsoft Visual Studio\2019\Community\VC\Tools\MSVC\14.28.29333\include\xstring

; 2801 :         _Tidy_deallocate();

  007c2	8d 8d f0 00 00
	00		 lea	 ecx, DWORD PTR $T57[ebp]
  007c8	e8 00 00 00 00	 call	 ?_Tidy_deallocate@?$basic_string@DU?$char_traits@D@std@@V?$allocator@D@2@@std@@AAEXXZ ; std::basic_string<char,std::char_traits<char>,std::allocator<char> >::_Tidy_deallocate
; File D:\Metin2 Server Files\mainline\SRC_2014\Metin2Client\GameLib\MapUtil.cpp

; 141  : 		textLoader.GetTokenString("frontfacefilename", &envData.strSkyBoxFaceFileName[0]);

  007cd	68 00 00 00 00	 push	 OFFSET ??_C@_0BC@MAAIOOFC@frontfacefilename@
  007d2	8d 8d d8 00 00
	00		 lea	 ecx, DWORD PTR $T56[ebp]
  007d8	e8 00 00 00 00	 call	 ??0?$basic_string@DU?$char_traits@D@std@@V?$allocator@D@2@@std@@QAE@QBD@Z ; std::basic_string<char,std::char_traits<char>,std::allocator<char> >::basic_string<char,std::char_traits<char>,std::allocator<char> >
  007dd	c6 45 fc 19	 mov	 BYTE PTR __$EHRec$[ebp+8], 25 ; 00000019H
  007e1	6a 18		 push	 24			; 00000018H
  007e3	58		 pop	 eax
  007e4	6b c0 00	 imul	 eax, eax, 0
  007e7	8b 8d a0 04 00
	00		 mov	 ecx, DWORD PTR _envData$[ebp]
  007ed	8d 84 01 70 01
	00 00		 lea	 eax, DWORD PTR [ecx+eax+368]
  007f4	50		 push	 eax
  007f5	8d 85 d8 00 00
	00		 lea	 eax, DWORD PTR $T56[ebp]
  007fb	50		 push	 eax
  007fc	8d 8d 14 04 00
	00		 lea	 ecx, DWORD PTR _textLoader$[ebp]
  00802	e8 00 00 00 00	 call	 ?GetTokenString@CTextFileLoader@@QAEHABV?$basic_string@DU?$char_traits@D@std@@V?$allocator@D@2@@std@@PAV23@@Z ; CTextFileLoader::GetTokenString
  00807	c6 45 fc 00	 mov	 BYTE PTR __$EHRec$[ebp+8], 0
; File C:\Program Files (x86)\Microsoft Visual Studio\2019\Community\VC\Tools\MSVC\14.28.29333\include\xstring

; 2801 :         _Tidy_deallocate();

  0080b	8d 8d d8 00 00
	00		 lea	 ecx, DWORD PTR $T56[ebp]
  00811	e8 00 00 00 00	 call	 ?_Tidy_deallocate@?$basic_string@DU?$char_traits@D@std@@V?$allocator@D@2@@std@@AAEXXZ ; std::basic_string<char,std::char_traits<char>,std::allocator<char> >::_Tidy_deallocate
; File D:\Metin2 Server Files\mainline\SRC_2014\Metin2Client\GameLib\MapUtil.cpp

; 142  : 		textLoader.GetTokenString("backfacefilename", &envData.strSkyBoxFaceFileName[1]);

  00816	68 00 00 00 00	 push	 OFFSET ??_C@_0BB@HMLADBDH@backfacefilename@
  0081b	8d 8d c0 00 00
	00		 lea	 ecx, DWORD PTR $T55[ebp]
  00821	e8 00 00 00 00	 call	 ??0?$basic_string@DU?$char_traits@D@std@@V?$allocator@D@2@@std@@QAE@QBD@Z ; std::basic_string<char,std::char_traits<char>,std::allocator<char> >::basic_string<char,std::char_traits<char>,std::allocator<char> >
  00826	c6 45 fc 1a	 mov	 BYTE PTR __$EHRec$[ebp+8], 26 ; 0000001aH
  0082a	6a 18		 push	 24			; 00000018H
  0082c	58		 pop	 eax
  0082d	c1 e0 00	 shl	 eax, 0
  00830	8b 8d a0 04 00
	00		 mov	 ecx, DWORD PTR _envData$[ebp]
  00836	8d 84 01 70 01
	00 00		 lea	 eax, DWORD PTR [ecx+eax+368]
  0083d	50		 push	 eax
  0083e	8d 85 c0 00 00
	00		 lea	 eax, DWORD PTR $T55[ebp]
  00844	50		 push	 eax
  00845	8d 8d 14 04 00
	00		 lea	 ecx, DWORD PTR _textLoader$[ebp]
  0084b	e8 00 00 00 00	 call	 ?GetTokenString@CTextFileLoader@@QAEHABV?$basic_string@DU?$char_traits@D@std@@V?$allocator@D@2@@std@@PAV23@@Z ; CTextFileLoader::GetTokenString
  00850	c6 45 fc 00	 mov	 BYTE PTR __$EHRec$[ebp+8], 0
; File C:\Program Files (x86)\Microsoft Visual Studio\2019\Community\VC\Tools\MSVC\14.28.29333\include\xstring

; 2801 :         _Tidy_deallocate();

  00854	8d 8d c0 00 00
	00		 lea	 ecx, DWORD PTR $T55[ebp]
  0085a	e8 00 00 00 00	 call	 ?_Tidy_deallocate@?$basic_string@DU?$char_traits@D@std@@V?$allocator@D@2@@std@@AAEXXZ ; std::basic_string<char,std::char_traits<char>,std::allocator<char> >::_Tidy_deallocate
; File D:\Metin2 Server Files\mainline\SRC_2014\Metin2Client\GameLib\MapUtil.cpp

; 143  : 		textLoader.GetTokenString("leftfacefilename", &envData.strSkyBoxFaceFileName[2]);

  0085f	68 00 00 00 00	 push	 OFFSET ??_C@_0BB@OKAELDDH@leftfacefilename@
  00864	8d 8d a8 00 00
	00		 lea	 ecx, DWORD PTR $T54[ebp]
  0086a	e8 00 00 00 00	 call	 ??0?$basic_string@DU?$char_traits@D@std@@V?$allocator@D@2@@std@@QAE@QBD@Z ; std::basic_string<char,std::char_traits<char>,std::allocator<char> >::basic_string<char,std::char_traits<char>,std::allocator<char> >
  0086f	c6 45 fc 1b	 mov	 BYTE PTR __$EHRec$[ebp+8], 27 ; 0000001bH
  00873	6a 18		 push	 24			; 00000018H
  00875	58		 pop	 eax
  00876	d1 e0		 shl	 eax, 1
  00878	8b 8d a0 04 00
	00		 mov	 ecx, DWORD PTR _envData$[ebp]
  0087e	8d 84 01 70 01
	00 00		 lea	 eax, DWORD PTR [ecx+eax+368]
  00885	50		 push	 eax
  00886	8d 85 a8 00 00
	00		 lea	 eax, DWORD PTR $T54[ebp]
  0088c	50		 push	 eax
  0088d	8d 8d 14 04 00
	00		 lea	 ecx, DWORD PTR _textLoader$[ebp]
  00893	e8 00 00 00 00	 call	 ?GetTokenString@CTextFileLoader@@QAEHABV?$basic_string@DU?$char_traits@D@std@@V?$allocator@D@2@@std@@PAV23@@Z ; CTextFileLoader::GetTokenString
  00898	c6 45 fc 00	 mov	 BYTE PTR __$EHRec$[ebp+8], 0
; File C:\Program Files (x86)\Microsoft Visual Studio\2019\Community\VC\Tools\MSVC\14.28.29333\include\xstring

; 2801 :         _Tidy_deallocate();

  0089c	8d 8d a8 00 00
	00		 lea	 ecx, DWORD PTR $T54[ebp]
  008a2	e8 00 00 00 00	 call	 ?_Tidy_deallocate@?$basic_string@DU?$char_traits@D@std@@V?$allocator@D@2@@std@@AAEXXZ ; std::basic_string<char,std::char_traits<char>,std::allocator<char> >::_Tidy_deallocate
; File D:\Metin2 Server Files\mainline\SRC_2014\Metin2Client\GameLib\MapUtil.cpp

; 144  : 		textLoader.GetTokenString("rightfacefilename", &envData.strSkyBoxFaceFileName[3]);

  008a7	68 00 00 00 00	 push	 OFFSET ??_C@_0BC@BGDBKDJG@rightfacefilename@
  008ac	8d 8d 90 00 00
	00		 lea	 ecx, DWORD PTR $T53[ebp]
  008b2	e8 00 00 00 00	 call	 ??0?$basic_string@DU?$char_traits@D@std@@V?$allocator@D@2@@std@@QAE@QBD@Z ; std::basic_string<char,std::char_traits<char>,std::allocator<char> >::basic_string<char,std::char_traits<char>,std::allocator<char> >
  008b7	c6 45 fc 1c	 mov	 BYTE PTR __$EHRec$[ebp+8], 28 ; 0000001cH
  008bb	6a 18		 push	 24			; 00000018H
  008bd	58		 pop	 eax
  008be	6b c0 03	 imul	 eax, eax, 3
  008c1	8b 8d a0 04 00
	00		 mov	 ecx, DWORD PTR _envData$[ebp]
  008c7	8d 84 01 70 01
	00 00		 lea	 eax, DWORD PTR [ecx+eax+368]
  008ce	50		 push	 eax
  008cf	8d 85 90 00 00
	00		 lea	 eax, DWORD PTR $T53[ebp]
  008d5	50		 push	 eax
  008d6	8d 8d 14 04 00
	00		 lea	 ecx, DWORD PTR _textLoader$[ebp]
  008dc	e8 00 00 00 00	 call	 ?GetTokenString@CTextFileLoader@@QAEHABV?$basic_string@DU?$char_traits@D@std@@V?$allocator@D@2@@std@@PAV23@@Z ; CTextFileLoader::GetTokenString
  008e1	c6 45 fc 00	 mov	 BYTE PTR __$EHRec$[ebp+8], 0
; File C:\Program Files (x86)\Microsoft Visual Studio\2019\Community\VC\Tools\MSVC\14.28.29333\include\xstring

; 2801 :         _Tidy_deallocate();

  008e5	8d 8d 90 00 00
	00		 lea	 ecx, DWORD PTR $T53[ebp]
  008eb	e8 00 00 00 00	 call	 ?_Tidy_deallocate@?$basic_string@DU?$char_traits@D@std@@V?$allocator@D@2@@std@@AAEXXZ ; std::basic_string<char,std::char_traits<char>,std::allocator<char> >::_Tidy_deallocate
; File D:\Metin2 Server Files\mainline\SRC_2014\Metin2Client\GameLib\MapUtil.cpp

; 145  : 		textLoader.GetTokenString("topfacefilename", &envData.strSkyBoxFaceFileName[4]);

  008f0	68 00 00 00 00	 push	 OFFSET ??_C@_0BA@ODMABPL@topfacefilename@
  008f5	8d 4d 78	 lea	 ecx, DWORD PTR $T52[ebp]
  008f8	e8 00 00 00 00	 call	 ??0?$basic_string@DU?$char_traits@D@std@@V?$allocator@D@2@@std@@QAE@QBD@Z ; std::basic_string<char,std::char_traits<char>,std::allocator<char> >::basic_string<char,std::char_traits<char>,std::allocator<char> >
  008fd	c6 45 fc 1d	 mov	 BYTE PTR __$EHRec$[ebp+8], 29 ; 0000001dH
  00901	6a 18		 push	 24			; 00000018H
  00903	58		 pop	 eax
  00904	c1 e0 02	 shl	 eax, 2
  00907	8b 8d a0 04 00
	00		 mov	 ecx, DWORD PTR _envData$[ebp]
  0090d	8d 84 01 70 01
	00 00		 lea	 eax, DWORD PTR [ecx+eax+368]
  00914	50		 push	 eax
  00915	8d 45 78	 lea	 eax, DWORD PTR $T52[ebp]
  00918	50		 push	 eax
  00919	8d 8d 14 04 00
	00		 lea	 ecx, DWORD PTR _textLoader$[ebp]
  0091f	e8 00 00 00 00	 call	 ?GetTokenString@CTextFileLoader@@QAEHABV?$basic_string@DU?$char_traits@D@std@@V?$allocator@D@2@@std@@PAV23@@Z ; CTextFileLoader::GetTokenString
  00924	c6 45 fc 00	 mov	 BYTE PTR __$EHRec$[ebp+8], 0
; File C:\Program Files (x86)\Microsoft Visual Studio\2019\Community\VC\Tools\MSVC\14.28.29333\include\xstring

; 2801 :         _Tidy_deallocate();

  00928	8d 4d 78	 lea	 ecx, DWORD PTR $T52[ebp]
  0092b	e8 00 00 00 00	 call	 ?_Tidy_deallocate@?$basic_string@DU?$char_traits@D@std@@V?$allocator@D@2@@std@@AAEXXZ ; std::basic_string<char,std::char_traits<char>,std::allocator<char> >::_Tidy_deallocate
; File D:\Metin2 Server Files\mainline\SRC_2014\Metin2Client\GameLib\MapUtil.cpp

; 146  : 		textLoader.GetTokenString("bottomfacefilename", &envData.strSkyBoxFaceFileName[5]);

  00930	68 00 00 00 00	 push	 OFFSET ??_C@_0BD@PAPHNGLP@bottomfacefilename@
  00935	8d 4d 60	 lea	 ecx, DWORD PTR $T51[ebp]
  00938	e8 00 00 00 00	 call	 ??0?$basic_string@DU?$char_traits@D@std@@V?$allocator@D@2@@std@@QAE@QBD@Z ; std::basic_string<char,std::char_traits<char>,std::allocator<char> >::basic_string<char,std::char_traits<char>,std::allocator<char> >
  0093d	c6 45 fc 1e	 mov	 BYTE PTR __$EHRec$[ebp+8], 30 ; 0000001eH
  00941	6a 18		 push	 24			; 00000018H
  00943	58		 pop	 eax
  00944	6b c0 05	 imul	 eax, eax, 5
  00947	8b 8d a0 04 00
	00		 mov	 ecx, DWORD PTR _envData$[ebp]
  0094d	8d 84 01 70 01
	00 00		 lea	 eax, DWORD PTR [ecx+eax+368]
  00954	50		 push	 eax
  00955	8d 45 60	 lea	 eax, DWORD PTR $T51[ebp]
  00958	50		 push	 eax
  00959	8d 8d 14 04 00
	00		 lea	 ecx, DWORD PTR _textLoader$[ebp]
  0095f	e8 00 00 00 00	 call	 ?GetTokenString@CTextFileLoader@@QAEHABV?$basic_string@DU?$char_traits@D@std@@V?$allocator@D@2@@std@@PAV23@@Z ; CTextFileLoader::GetTokenString
  00964	c6 45 fc 00	 mov	 BYTE PTR __$EHRec$[ebp+8], 0
; File C:\Program Files (x86)\Microsoft Visual Studio\2019\Community\VC\Tools\MSVC\14.28.29333\include\xstring

; 2801 :         _Tidy_deallocate();

  00968	8d 4d 60	 lea	 ecx, DWORD PTR $T51[ebp]
  0096b	e8 00 00 00 00	 call	 ?_Tidy_deallocate@?$basic_string@DU?$char_traits@D@std@@V?$allocator@D@2@@std@@AAEXXZ ; std::basic_string<char,std::char_traits<char>,std::allocator<char> >::_Tidy_deallocate
; File D:\Metin2 Server Files\mainline\SRC_2014\Metin2Client\GameLib\MapUtil.cpp

; 149  : 		textLoader.GetTokenVector2("cloudscale", &envData.v2CloudScale);

  00970	68 00 00 00 00	 push	 OFFSET ??_C@_0L@HPPKMJB@cloudscale@
  00975	8d 8d 30 03 00
	00		 lea	 ecx, DWORD PTR $T81[ebp]
  0097b	e8 00 00 00 00	 call	 ??0?$basic_string@DU?$char_traits@D@std@@V?$allocator@D@2@@std@@QAE@QBD@Z ; std::basic_string<char,std::char_traits<char>,std::allocator<char> >::basic_string<char,std::char_traits<char>,std::allocator<char> >
  00980	c6 45 fc 1f	 mov	 BYTE PTR __$EHRec$[ebp+8], 31 ; 0000001fH
  00984	8b 85 a0 04 00
	00		 mov	 eax, DWORD PTR _envData$[ebp]
  0098a	05 00 02 00 00	 add	 eax, 512		; 00000200H
  0098f	50		 push	 eax
  00990	8d 85 30 03 00
	00		 lea	 eax, DWORD PTR $T81[ebp]
  00996	50		 push	 eax
  00997	8d 8d 14 04 00
	00		 lea	 ecx, DWORD PTR _textLoader$[ebp]
  0099d	e8 00 00 00 00	 call	 ?GetTokenVector2@CTextFileLoader@@QAEHABV?$basic_string@DU?$char_traits@D@std@@V?$allocator@D@2@@std@@PAUD3DXVECTOR2@@@Z ; CTextFileLoader::GetTokenVector2
  009a2	c6 45 fc 00	 mov	 BYTE PTR __$EHRec$[ebp+8], 0
; File C:\Program Files (x86)\Microsoft Visual Studio\2019\Community\VC\Tools\MSVC\14.28.29333\include\xstring

; 2801 :         _Tidy_deallocate();

  009a6	8d 8d 30 03 00
	00		 lea	 ecx, DWORD PTR $T81[ebp]
  009ac	e8 00 00 00 00	 call	 ?_Tidy_deallocate@?$basic_string@DU?$char_traits@D@std@@V?$allocator@D@2@@std@@AAEXXZ ; std::basic_string<char,std::char_traits<char>,std::allocator<char> >::_Tidy_deallocate
; File D:\Metin2 Server Files\mainline\SRC_2014\Metin2Client\GameLib\MapUtil.cpp

; 150  : 		textLoader.GetTokenFloat("cloudheight", &envData.fCloudHeight);

  009b1	68 00 00 00 00	 push	 OFFSET ??_C@_0M@JAHFJEDG@cloudheight@
  009b6	8d 4d 48	 lea	 ecx, DWORD PTR $T50[ebp]
  009b9	e8 00 00 00 00	 call	 ??0?$basic_string@DU?$char_traits@D@std@@V?$allocator@D@2@@std@@QAE@QBD@Z ; std::basic_string<char,std::char_traits<char>,std::allocator<char> >::basic_string<char,std::char_traits<char>,std::allocator<char> >
  009be	c6 45 fc 20	 mov	 BYTE PTR __$EHRec$[ebp+8], 32 ; 00000020H
  009c2	8b 85 a0 04 00
	00		 mov	 eax, DWORD PTR _envData$[ebp]
  009c8	05 08 02 00 00	 add	 eax, 520		; 00000208H
  009cd	50		 push	 eax
  009ce	8d 45 48	 lea	 eax, DWORD PTR $T50[ebp]
  009d1	50		 push	 eax
  009d2	8d 8d 14 04 00
	00		 lea	 ecx, DWORD PTR _textLoader$[ebp]
  009d8	e8 00 00 00 00	 call	 ?GetTokenFloat@CTextFileLoader@@QAEHABV?$basic_string@DU?$char_traits@D@std@@V?$allocator@D@2@@std@@PAM@Z ; CTextFileLoader::GetTokenFloat
  009dd	c6 45 fc 00	 mov	 BYTE PTR __$EHRec$[ebp+8], 0
; File C:\Program Files (x86)\Microsoft Visual Studio\2019\Community\VC\Tools\MSVC\14.28.29333\include\xstring

; 2801 :         _Tidy_deallocate();

  009e1	8d 4d 48	 lea	 ecx, DWORD PTR $T50[ebp]
  009e4	e8 00 00 00 00	 call	 ?_Tidy_deallocate@?$basic_string@DU?$char_traits@D@std@@V?$allocator@D@2@@std@@AAEXXZ ; std::basic_string<char,std::char_traits<char>,std::allocator<char> >::_Tidy_deallocate
; File D:\Metin2 Server Files\mainline\SRC_2014\Metin2Client\GameLib\MapUtil.cpp

; 151  : 		textLoader.GetTokenVector2("cloudtexturescale", &envData.v2CloudTextureScale);

  009e9	68 00 00 00 00	 push	 OFFSET ??_C@_0BC@BBJMDDCO@cloudtexturescale@
  009ee	8d 4d 30	 lea	 ecx, DWORD PTR $T49[ebp]
  009f1	e8 00 00 00 00	 call	 ??0?$basic_string@DU?$char_traits@D@std@@V?$allocator@D@2@@std@@QAE@QBD@Z ; std::basic_string<char,std::char_traits<char>,std::allocator<char> >::basic_string<char,std::char_traits<char>,std::allocator<char> >
  009f6	c6 45 fc 21	 mov	 BYTE PTR __$EHRec$[ebp+8], 33 ; 00000021H
  009fa	8b 85 a0 04 00
	00		 mov	 eax, DWORD PTR _envData$[ebp]
  00a00	05 0c 02 00 00	 add	 eax, 524		; 0000020cH
  00a05	50		 push	 eax
  00a06	8d 45 30	 lea	 eax, DWORD PTR $T49[ebp]
  00a09	50		 push	 eax
  00a0a	8d 8d 14 04 00
	00		 lea	 ecx, DWORD PTR _textLoader$[ebp]
  00a10	e8 00 00 00 00	 call	 ?GetTokenVector2@CTextFileLoader@@QAEHABV?$basic_string@DU?$char_traits@D@std@@V?$allocator@D@2@@std@@PAUD3DXVECTOR2@@@Z ; CTextFileLoader::GetTokenVector2
  00a15	c6 45 fc 00	 mov	 BYTE PTR __$EHRec$[ebp+8], 0
; File C:\Program Files (x86)\Microsoft Visual Studio\2019\Community\VC\Tools\MSVC\14.28.29333\include\xstring

; 2801 :         _Tidy_deallocate();

  00a19	8d 4d 30	 lea	 ecx, DWORD PTR $T49[ebp]
  00a1c	e8 00 00 00 00	 call	 ?_Tidy_deallocate@?$basic_string@DU?$char_traits@D@std@@V?$allocator@D@2@@std@@AAEXXZ ; std::basic_string<char,std::char_traits<char>,std::allocator<char> >::_Tidy_deallocate
; File D:\Metin2 Server Files\mainline\SRC_2014\Metin2Client\GameLib\MapUtil.cpp

; 152  : 		textLoader.GetTokenVector2("cloudspeed", &envData.v2CloudSpeed);

  00a21	68 00 00 00 00	 push	 OFFSET ??_C@_0L@LJBHNMFK@cloudspeed@
  00a26	8d 4d 18	 lea	 ecx, DWORD PTR $T48[ebp]
  00a29	e8 00 00 00 00	 call	 ??0?$basic_string@DU?$char_traits@D@std@@V?$allocator@D@2@@std@@QAE@QBD@Z ; std::basic_string<char,std::char_traits<char>,std::allocator<char> >::basic_string<char,std::char_traits<char>,std::allocator<char> >
  00a2e	c6 45 fc 22	 mov	 BYTE PTR __$EHRec$[ebp+8], 34 ; 00000022H
  00a32	8b 85 a0 04 00
	00		 mov	 eax, DWORD PTR _envData$[ebp]
  00a38	05 14 02 00 00	 add	 eax, 532		; 00000214H
  00a3d	50		 push	 eax
  00a3e	8d 45 18	 lea	 eax, DWORD PTR $T48[ebp]
  00a41	50		 push	 eax
  00a42	8d 8d 14 04 00
	00		 lea	 ecx, DWORD PTR _textLoader$[ebp]
  00a48	e8 00 00 00 00	 call	 ?GetTokenVector2@CTextFileLoader@@QAEHABV?$basic_string@DU?$char_traits@D@std@@V?$allocator@D@2@@std@@PAUD3DXVECTOR2@@@Z ; CTextFileLoader::GetTokenVector2
  00a4d	c6 45 fc 00	 mov	 BYTE PTR __$EHRec$[ebp+8], 0
; File C:\Program Files (x86)\Microsoft Visual Studio\2019\Community\VC\Tools\MSVC\14.28.29333\include\xstring

; 2801 :         _Tidy_deallocate();

  00a51	8d 4d 18	 lea	 ecx, DWORD PTR $T48[ebp]
  00a54	e8 00 00 00 00	 call	 ?_Tidy_deallocate@?$basic_string@DU?$char_traits@D@std@@V?$allocator@D@2@@std@@AAEXXZ ; std::basic_string<char,std::char_traits<char>,std::allocator<char> >::_Tidy_deallocate
; File D:\Metin2 Server Files\mainline\SRC_2014\Metin2Client\GameLib\MapUtil.cpp

; 153  : 		textLoader.GetTokenString("cloudtexturefilename", &envData.strCloudTextureFileName);

  00a59	68 00 00 00 00	 push	 OFFSET ??_C@_0BF@KCIBJMLM@cloudtexturefilename@
  00a5e	8d 4d 00	 lea	 ecx, DWORD PTR $T47[ebp]
  00a61	e8 00 00 00 00	 call	 ??0?$basic_string@DU?$char_traits@D@std@@V?$allocator@D@2@@std@@QAE@QBD@Z ; std::basic_string<char,std::char_traits<char>,std::allocator<char> >::basic_string<char,std::char_traits<char>,std::allocator<char> >
  00a66	c6 45 fc 23	 mov	 BYTE PTR __$EHRec$[ebp+8], 35 ; 00000023H
  00a6a	8b 85 a0 04 00
	00		 mov	 eax, DWORD PTR _envData$[ebp]
  00a70	05 1c 02 00 00	 add	 eax, 540		; 0000021cH
  00a75	50		 push	 eax
  00a76	8d 45 00	 lea	 eax, DWORD PTR $T47[ebp]
  00a79	50		 push	 eax
  00a7a	8d 8d 14 04 00
	00		 lea	 ecx, DWORD PTR _textLoader$[ebp]
  00a80	e8 00 00 00 00	 call	 ?GetTokenString@CTextFileLoader@@QAEHABV?$basic_string@DU?$char_traits@D@std@@V?$allocator@D@2@@std@@PAV23@@Z ; CTextFileLoader::GetTokenString
  00a85	c6 45 fc 00	 mov	 BYTE PTR __$EHRec$[ebp+8], 0
; File C:\Program Files (x86)\Microsoft Visual Studio\2019\Community\VC\Tools\MSVC\14.28.29333\include\xstring

; 2801 :         _Tidy_deallocate();

  00a89	8d 4d 00	 lea	 ecx, DWORD PTR $T47[ebp]
  00a8c	e8 00 00 00 00	 call	 ?_Tidy_deallocate@?$basic_string@DU?$char_traits@D@std@@V?$allocator@D@2@@std@@AAEXXZ ; std::basic_string<char,std::char_traits<char>,std::allocator<char> >::_Tidy_deallocate
; File D:\Metin2 Server Files\mainline\SRC_2014\Metin2Client\GameLib\MapUtil.cpp

; 156  : 		if(textLoader.GetTokenVector("cloudcolor", &pTokenVectorCloudColor))

  00a91	68 00 00 00 00	 push	 OFFSET ??_C@_0L@DEHGKBBJ@cloudcolor@
  00a96	8d 8d f0 03 00
	00		 lea	 ecx, DWORD PTR $T89[ebp]
  00a9c	e8 00 00 00 00	 call	 ??0?$basic_string@DU?$char_traits@D@std@@V?$allocator@D@2@@std@@QAE@QBD@Z ; std::basic_string<char,std::char_traits<char>,std::allocator<char> >::basic_string<char,std::char_traits<char>,std::allocator<char> >
  00aa1	c6 45 fc 24	 mov	 BYTE PTR __$EHRec$[ebp+8], 36 ; 00000024H
  00aa5	8d 45 e4	 lea	 eax, DWORD PTR _pTokenVectorCloudColor$43[ebp]
  00aa8	50		 push	 eax
  00aa9	8d 85 f0 03 00
	00		 lea	 eax, DWORD PTR $T89[ebp]
  00aaf	50		 push	 eax
  00ab0	8d 8d 14 04 00
	00		 lea	 ecx, DWORD PTR _textLoader$[ebp]
  00ab6	e8 00 00 00 00	 call	 ?GetTokenVector@CTextFileLoader@@QAEHABV?$basic_string@DU?$char_traits@D@std@@V?$allocator@D@2@@std@@PAPAV?$vector@V?$basic_string@DU?$char_traits@D@std@@V?$allocator@D@2@@std@@V?$allocator@V?$basic_string@DU?$char_traits@D@std@@V?$allocator@D@2@@std@@@2@@3@@Z ; CTextFileLoader::GetTokenVector
  00abb	89 45 b4	 mov	 DWORD PTR $T29[ebp], eax
  00abe	c6 45 fc 00	 mov	 BYTE PTR __$EHRec$[ebp+8], 0
; File C:\Program Files (x86)\Microsoft Visual Studio\2019\Community\VC\Tools\MSVC\14.28.29333\include\xstring

; 2801 :         _Tidy_deallocate();

  00ac2	8d 8d f0 03 00
	00		 lea	 ecx, DWORD PTR $T89[ebp]
  00ac8	e8 00 00 00 00	 call	 ?_Tidy_deallocate@?$basic_string@DU?$char_traits@D@std@@V?$allocator@D@2@@std@@AAEXXZ ; std::basic_string<char,std::char_traits<char>,std::allocator<char> >::_Tidy_deallocate
; File D:\Metin2 Server Files\mainline\SRC_2014\Metin2Client\GameLib\MapUtil.cpp

; 156  : 		if(textLoader.GetTokenVector("cloudcolor", &pTokenVectorCloudColor))

  00acd	83 7d b4 00	 cmp	 DWORD PTR $T29[ebp], 0
  00ad1	0f 84 be 01 00
	00		 je	 $LN14@Environmen

; 157  : 		if ( 0 == pTokenVectorCloudColor->size()%8)

  00ad7	8b 45 e4	 mov	 eax, DWORD PTR _pTokenVectorCloudColor$43[ebp]
  00ada	89 45 b0	 mov	 DWORD PTR _this$[ebp], eax
; File C:\Program Files (x86)\Microsoft Visual Studio\2019\Community\VC\Tools\MSVC\14.28.29333\include\vector

; 1483 :         auto& _My_data = _Mypair._Myval2;

  00add	8b 45 b0	 mov	 eax, DWORD PTR _this$[ebp]
  00ae0	89 45 dc	 mov	 DWORD PTR __My_data$39[ebp], eax

; 1484 :         return static_cast<size_type>(_My_data._Mylast - _My_data._Myfirst);

  00ae3	8b 45 dc	 mov	 eax, DWORD PTR __My_data$39[ebp]
  00ae6	8b 4d dc	 mov	 ecx, DWORD PTR __My_data$39[ebp]
  00ae9	8b 40 04	 mov	 eax, DWORD PTR [eax+4]
  00aec	2b 01		 sub	 eax, DWORD PTR [ecx]
  00aee	99		 cdq
  00aef	6a 18		 push	 24			; 00000018H
  00af1	59		 pop	 ecx
  00af2	f7 f9		 idiv	 ecx
  00af4	89 45 ac	 mov	 DWORD PTR $T28[ebp], eax
; File D:\Metin2 Server Files\mainline\SRC_2014\Metin2Client\GameLib\MapUtil.cpp

; 157  : 		if ( 0 == pTokenVectorCloudColor->size()%8)

  00af7	8b 45 ac	 mov	 eax, DWORD PTR $T28[ebp]
  00afa	33 d2		 xor	 edx, edx
  00afc	6a 08		 push	 8
  00afe	59		 pop	 ecx
  00aff	f7 f1		 div	 ecx
  00b01	85 d2		 test	 edx, edx
  00b03	0f 85 8c 01 00
	00		 jne	 $LN14@Environmen

; 159  : 			envData.CloudGradientColor.m_FirstColor.r = atof(pTokenVectorCloudColor->at(0).c_str());

  00b09	6a 00		 push	 0
  00b0b	8b 4d e4	 mov	 ecx, DWORD PTR _pTokenVectorCloudColor$43[ebp]
  00b0e	e8 00 00 00 00	 call	 ?at@?$vector@V?$basic_string@DU?$char_traits@D@std@@V?$allocator@D@2@@std@@V?$allocator@V?$basic_string@DU?$char_traits@D@std@@V?$allocator@D@2@@std@@@2@@std@@QAEAAV?$basic_string@DU?$char_traits@D@std@@V?$allocator@D@2@@2@I@Z ; std::vector<std::basic_string<char,std::char_traits<char>,std::allocator<char> >,std::allocator<std::basic_string<char,std::char_traits<char>,std::allocator<char> > > >::at
  00b13	89 85 08 ff ff
	ff		 mov	 DWORD PTR _this$[ebp], eax
; File C:\Program Files (x86)\Microsoft Visual Studio\2019\Community\VC\Tools\MSVC\14.28.29333\include\xstring

; 3752 :         return _Mypair._Myval2._Myptr();

  00b19	8b 8d 08 ff ff
	ff		 mov	 ecx, DWORD PTR _this$[ebp]
  00b1f	e8 00 00 00 00	 call	 ?_Myptr@?$_String_val@U?$_Simple_types@D@std@@@std@@QBEPBDXZ ; std::_String_val<std::_Simple_types<char> >::_Myptr
  00b24	89 45 a8	 mov	 DWORD PTR $T27[ebp], eax
; File D:\Metin2 Server Files\mainline\SRC_2014\Metin2Client\GameLib\MapUtil.cpp

; 159  : 			envData.CloudGradientColor.m_FirstColor.r = atof(pTokenVectorCloudColor->at(0).c_str());

  00b27	ff 75 a8	 push	 DWORD PTR $T27[ebp]
  00b2a	e8 00 00 00 00	 call	 _atof
  00b2f	59		 pop	 ecx
  00b30	8b 85 a0 04 00
	00		 mov	 eax, DWORD PTR _envData$[ebp]
  00b36	d9 98 34 02 00
	00		 fstp	 DWORD PTR [eax+564]

; 160  : 			envData.CloudGradientColor.m_FirstColor.g = atof(pTokenVectorCloudColor->at(1).c_str());

  00b3c	6a 01		 push	 1
  00b3e	8b 4d e4	 mov	 ecx, DWORD PTR _pTokenVectorCloudColor$43[ebp]
  00b41	e8 00 00 00 00	 call	 ?at@?$vector@V?$basic_string@DU?$char_traits@D@std@@V?$allocator@D@2@@std@@V?$allocator@V?$basic_string@DU?$char_traits@D@std@@V?$allocator@D@2@@std@@@2@@std@@QAEAAV?$basic_string@DU?$char_traits@D@std@@V?$allocator@D@2@@2@I@Z ; std::vector<std::basic_string<char,std::char_traits<char>,std::allocator<char> >,std::allocator<std::basic_string<char,std::char_traits<char>,std::allocator<char> > > >::at
  00b46	89 45 a0	 mov	 DWORD PTR _this$[ebp], eax
; File C:\Program Files (x86)\Microsoft Visual Studio\2019\Community\VC\Tools\MSVC\14.28.29333\include\xstring

; 3752 :         return _Mypair._Myval2._Myptr();

  00b49	8b 4d a0	 mov	 ecx, DWORD PTR _this$[ebp]
  00b4c	e8 00 00 00 00	 call	 ?_Myptr@?$_String_val@U?$_Simple_types@D@std@@@std@@QBEPBDXZ ; std::_String_val<std::_Simple_types<char> >::_Myptr
  00b51	89 45 9c	 mov	 DWORD PTR $T25[ebp], eax
; File D:\Metin2 Server Files\mainline\SRC_2014\Metin2Client\GameLib\MapUtil.cpp

; 160  : 			envData.CloudGradientColor.m_FirstColor.g = atof(pTokenVectorCloudColor->at(1).c_str());

  00b54	ff 75 9c	 push	 DWORD PTR $T25[ebp]
  00b57	e8 00 00 00 00	 call	 _atof
  00b5c	59		 pop	 ecx
  00b5d	8b 85 a0 04 00
	00		 mov	 eax, DWORD PTR _envData$[ebp]
  00b63	d9 98 38 02 00
	00		 fstp	 DWORD PTR [eax+568]

; 161  : 			envData.CloudGradientColor.m_FirstColor.b = atof(pTokenVectorCloudColor->at(2).c_str());

  00b69	6a 02		 push	 2
  00b6b	8b 4d e4	 mov	 ecx, DWORD PTR _pTokenVectorCloudColor$43[ebp]
  00b6e	e8 00 00 00 00	 call	 ?at@?$vector@V?$basic_string@DU?$char_traits@D@std@@V?$allocator@D@2@@std@@V?$allocator@V?$basic_string@DU?$char_traits@D@std@@V?$allocator@D@2@@std@@@2@@std@@QAEAAV?$basic_string@DU?$char_traits@D@std@@V?$allocator@D@2@@2@I@Z ; std::vector<std::basic_string<char,std::char_traits<char>,std::allocator<char> >,std::allocator<std::basic_string<char,std::char_traits<char>,std::allocator<char> > > >::at
  00b73	89 45 98	 mov	 DWORD PTR _this$[ebp], eax
; File C:\Program Files (x86)\Microsoft Visual Studio\2019\Community\VC\Tools\MSVC\14.28.29333\include\xstring

; 3752 :         return _Mypair._Myval2._Myptr();

  00b76	8b 4d 98	 mov	 ecx, DWORD PTR _this$[ebp]
  00b79	e8 00 00 00 00	 call	 ?_Myptr@?$_String_val@U?$_Simple_types@D@std@@@std@@QBEPBDXZ ; std::_String_val<std::_Simple_types<char> >::_Myptr
  00b7e	89 45 94	 mov	 DWORD PTR $T24[ebp], eax
; File D:\Metin2 Server Files\mainline\SRC_2014\Metin2Client\GameLib\MapUtil.cpp

; 161  : 			envData.CloudGradientColor.m_FirstColor.b = atof(pTokenVectorCloudColor->at(2).c_str());

  00b81	ff 75 94	 push	 DWORD PTR $T24[ebp]
  00b84	e8 00 00 00 00	 call	 _atof
  00b89	59		 pop	 ecx
  00b8a	8b 85 a0 04 00
	00		 mov	 eax, DWORD PTR _envData$[ebp]
  00b90	d9 98 3c 02 00
	00		 fstp	 DWORD PTR [eax+572]

; 162  : 			envData.CloudGradientColor.m_FirstColor.a = atof(pTokenVectorCloudColor->at(3).c_str());

  00b96	6a 03		 push	 3
  00b98	8b 4d e4	 mov	 ecx, DWORD PTR _pTokenVectorCloudColor$43[ebp]
  00b9b	e8 00 00 00 00	 call	 ?at@?$vector@V?$basic_string@DU?$char_traits@D@std@@V?$allocator@D@2@@std@@V?$allocator@V?$basic_string@DU?$char_traits@D@std@@V?$allocator@D@2@@std@@@2@@std@@QAEAAV?$basic_string@DU?$char_traits@D@std@@V?$allocator@D@2@@2@I@Z ; std::vector<std::basic_string<char,std::char_traits<char>,std::allocator<char> >,std::allocator<std::basic_string<char,std::char_traits<char>,std::allocator<char> > > >::at
  00ba0	89 45 90	 mov	 DWORD PTR _this$[ebp], eax
; File C:\Program Files (x86)\Microsoft Visual Studio\2019\Community\VC\Tools\MSVC\14.28.29333\include\xstring

; 3752 :         return _Mypair._Myval2._Myptr();

  00ba3	8b 4d 90	 mov	 ecx, DWORD PTR _this$[ebp]
  00ba6	e8 00 00 00 00	 call	 ?_Myptr@?$_String_val@U?$_Simple_types@D@std@@@std@@QBEPBDXZ ; std::_String_val<std::_Simple_types<char> >::_Myptr
  00bab	89 45 8c	 mov	 DWORD PTR $T23[ebp], eax
; File D:\Metin2 Server Files\mainline\SRC_2014\Metin2Client\GameLib\MapUtil.cpp

; 162  : 			envData.CloudGradientColor.m_FirstColor.a = atof(pTokenVectorCloudColor->at(3).c_str());

  00bae	ff 75 8c	 push	 DWORD PTR $T23[ebp]
  00bb1	e8 00 00 00 00	 call	 _atof
  00bb6	59		 pop	 ecx
  00bb7	8b 85 a0 04 00
	00		 mov	 eax, DWORD PTR _envData$[ebp]
  00bbd	d9 98 40 02 00
	00		 fstp	 DWORD PTR [eax+576]

; 164  : 			envData.CloudGradientColor.m_SecondColor.r = atof(pTokenVectorCloudColor->at(4).c_str());

  00bc3	6a 04		 push	 4
  00bc5	8b 4d e4	 mov	 ecx, DWORD PTR _pTokenVectorCloudColor$43[ebp]
  00bc8	e8 00 00 00 00	 call	 ?at@?$vector@V?$basic_string@DU?$char_traits@D@std@@V?$allocator@D@2@@std@@V?$allocator@V?$basic_string@DU?$char_traits@D@std@@V?$allocator@D@2@@std@@@2@@std@@QAEAAV?$basic_string@DU?$char_traits@D@std@@V?$allocator@D@2@@2@I@Z ; std::vector<std::basic_string<char,std::char_traits<char>,std::allocator<char> >,std::allocator<std::basic_string<char,std::char_traits<char>,std::allocator<char> > > >::at
  00bcd	89 45 88	 mov	 DWORD PTR _this$[ebp], eax
; File C:\Program Files (x86)\Microsoft Visual Studio\2019\Community\VC\Tools\MSVC\14.28.29333\include\xstring

; 3752 :         return _Mypair._Myval2._Myptr();

  00bd0	8b 4d 88	 mov	 ecx, DWORD PTR _this$[ebp]
  00bd3	e8 00 00 00 00	 call	 ?_Myptr@?$_String_val@U?$_Simple_types@D@std@@@std@@QBEPBDXZ ; std::_String_val<std::_Simple_types<char> >::_Myptr
  00bd8	89 45 84	 mov	 DWORD PTR $T22[ebp], eax
; File D:\Metin2 Server Files\mainline\SRC_2014\Metin2Client\GameLib\MapUtil.cpp

; 164  : 			envData.CloudGradientColor.m_SecondColor.r = atof(pTokenVectorCloudColor->at(4).c_str());

  00bdb	ff 75 84	 push	 DWORD PTR $T22[ebp]
  00bde	e8 00 00 00 00	 call	 _atof
  00be3	59		 pop	 ecx
  00be4	8b 85 a0 04 00
	00		 mov	 eax, DWORD PTR _envData$[ebp]
  00bea	d9 98 44 02 00
	00		 fstp	 DWORD PTR [eax+580]

; 165  : 			envData.CloudGradientColor.m_SecondColor.g = atof(pTokenVectorCloudColor->at(5).c_str());

  00bf0	6a 05		 push	 5
  00bf2	8b 4d e4	 mov	 ecx, DWORD PTR _pTokenVectorCloudColor$43[ebp]
  00bf5	e8 00 00 00 00	 call	 ?at@?$vector@V?$basic_string@DU?$char_traits@D@std@@V?$allocator@D@2@@std@@V?$allocator@V?$basic_string@DU?$char_traits@D@std@@V?$allocator@D@2@@std@@@2@@std@@QAEAAV?$basic_string@DU?$char_traits@D@std@@V?$allocator@D@2@@2@I@Z ; std::vector<std::basic_string<char,std::char_traits<char>,std::allocator<char> >,std::allocator<std::basic_string<char,std::char_traits<char>,std::allocator<char> > > >::at
  00bfa	89 45 80	 mov	 DWORD PTR _this$[ebp], eax
; File C:\Program Files (x86)\Microsoft Visual Studio\2019\Community\VC\Tools\MSVC\14.28.29333\include\xstring

; 3752 :         return _Mypair._Myval2._Myptr();

  00bfd	8b 4d 80	 mov	 ecx, DWORD PTR _this$[ebp]
  00c00	e8 00 00 00 00	 call	 ?_Myptr@?$_String_val@U?$_Simple_types@D@std@@@std@@QBEPBDXZ ; std::_String_val<std::_Simple_types<char> >::_Myptr
  00c05	89 85 7c ff ff
	ff		 mov	 DWORD PTR $T21[ebp], eax
; File D:\Metin2 Server Files\mainline\SRC_2014\Metin2Client\GameLib\MapUtil.cpp

; 165  : 			envData.CloudGradientColor.m_SecondColor.g = atof(pTokenVectorCloudColor->at(5).c_str());

  00c0b	ff b5 7c ff ff
	ff		 push	 DWORD PTR $T21[ebp]
  00c11	e8 00 00 00 00	 call	 _atof
  00c16	59		 pop	 ecx
  00c17	8b 85 a0 04 00
	00		 mov	 eax, DWORD PTR _envData$[ebp]
  00c1d	d9 98 48 02 00
	00		 fstp	 DWORD PTR [eax+584]

; 166  : 			envData.CloudGradientColor.m_SecondColor.b = atof(pTokenVectorCloudColor->at(6).c_str());

  00c23	6a 06		 push	 6
  00c25	8b 4d e4	 mov	 ecx, DWORD PTR _pTokenVectorCloudColor$43[ebp]
  00c28	e8 00 00 00 00	 call	 ?at@?$vector@V?$basic_string@DU?$char_traits@D@std@@V?$allocator@D@2@@std@@V?$allocator@V?$basic_string@DU?$char_traits@D@std@@V?$allocator@D@2@@std@@@2@@std@@QAEAAV?$basic_string@DU?$char_traits@D@std@@V?$allocator@D@2@@2@I@Z ; std::vector<std::basic_string<char,std::char_traits<char>,std::allocator<char> >,std::allocator<std::basic_string<char,std::char_traits<char>,std::allocator<char> > > >::at
  00c2d	89 85 78 ff ff
	ff		 mov	 DWORD PTR _this$[ebp], eax
; File C:\Program Files (x86)\Microsoft Visual Studio\2019\Community\VC\Tools\MSVC\14.28.29333\include\xstring

; 3752 :         return _Mypair._Myval2._Myptr();

  00c33	8b 8d 78 ff ff
	ff		 mov	 ecx, DWORD PTR _this$[ebp]
  00c39	e8 00 00 00 00	 call	 ?_Myptr@?$_String_val@U?$_Simple_types@D@std@@@std@@QBEPBDXZ ; std::_String_val<std::_Simple_types<char> >::_Myptr
  00c3e	89 85 74 ff ff
	ff		 mov	 DWORD PTR $T20[ebp], eax
; File D:\Metin2 Server Files\mainline\SRC_2014\Metin2Client\GameLib\MapUtil.cpp

; 166  : 			envData.CloudGradientColor.m_SecondColor.b = atof(pTokenVectorCloudColor->at(6).c_str());

  00c44	ff b5 74 ff ff
	ff		 push	 DWORD PTR $T20[ebp]
  00c4a	e8 00 00 00 00	 call	 _atof
  00c4f	59		 pop	 ecx
  00c50	8b 85 a0 04 00
	00		 mov	 eax, DWORD PTR _envData$[ebp]
  00c56	d9 98 4c 02 00
	00		 fstp	 DWORD PTR [eax+588]

; 167  : 			envData.CloudGradientColor.m_SecondColor.a = atof(pTokenVectorCloudColor->at(7).c_str());

  00c5c	6a 07		 push	 7
  00c5e	8b 4d e4	 mov	 ecx, DWORD PTR _pTokenVectorCloudColor$43[ebp]
  00c61	e8 00 00 00 00	 call	 ?at@?$vector@V?$basic_string@DU?$char_traits@D@std@@V?$allocator@D@2@@std@@V?$allocator@V?$basic_string@DU?$char_traits@D@std@@V?$allocator@D@2@@std@@@2@@std@@QAEAAV?$basic_string@DU?$char_traits@D@std@@V?$allocator@D@2@@2@I@Z ; std::vector<std::basic_string<char,std::char_traits<char>,std::allocator<char> >,std::allocator<std::basic_string<char,std::char_traits<char>,std::allocator<char> > > >::at
  00c66	89 85 70 ff ff
	ff		 mov	 DWORD PTR _this$[ebp], eax
; File C:\Program Files (x86)\Microsoft Visual Studio\2019\Community\VC\Tools\MSVC\14.28.29333\include\xstring

; 3752 :         return _Mypair._Myval2._Myptr();

  00c6c	8b 8d 70 ff ff
	ff		 mov	 ecx, DWORD PTR _this$[ebp]
  00c72	e8 00 00 00 00	 call	 ?_Myptr@?$_String_val@U?$_Simple_types@D@std@@@std@@QBEPBDXZ ; std::_String_val<std::_Simple_types<char> >::_Myptr
  00c77	89 85 6c ff ff
	ff		 mov	 DWORD PTR $T19[ebp], eax
; File D:\Metin2 Server Files\mainline\SRC_2014\Metin2Client\GameLib\MapUtil.cpp

; 167  : 			envData.CloudGradientColor.m_SecondColor.a = atof(pTokenVectorCloudColor->at(7).c_str());

  00c7d	ff b5 6c ff ff
	ff		 push	 DWORD PTR $T19[ebp]
  00c83	e8 00 00 00 00	 call	 _atof
  00c88	59		 pop	 ecx
  00c89	8b 85 a0 04 00
	00		 mov	 eax, DWORD PTR _envData$[ebp]
  00c8f	d9 98 50 02 00
	00		 fstp	 DWORD PTR [eax+592]
$LN14@Environmen:

; 168  : 		}
; 169  : 
; 170  : 		BYTE byGradientCount = envData.bySkyBoxGradientLevelUpper+envData.bySkyBoxGradientLevelLower;

  00c95	8b 85 a0 04 00
	00		 mov	 eax, DWORD PTR _envData$[ebp]
  00c9b	0f b6 80 6c 01
	00 00		 movzx	 eax, BYTE PTR [eax+364]
  00ca2	8b 8d a0 04 00
	00		 mov	 ecx, DWORD PTR _envData$[ebp]
  00ca8	0f b6 89 6d 01
	00 00		 movzx	 ecx, BYTE PTR [ecx+365]
  00caf	03 c1		 add	 eax, ecx
  00cb1	88 45 ef	 mov	 BYTE PTR _byGradientCount$45[ebp], al

; 172  : 		if (textLoader.GetTokenVector("gradient", &pTokenVector))

  00cb4	68 00 00 00 00	 push	 OFFSET ??_C@_08OAOFNDBJ@gradient@
  00cb9	8d 8d d8 03 00
	00		 lea	 ecx, DWORD PTR $T88[ebp]
  00cbf	e8 00 00 00 00	 call	 ??0?$basic_string@DU?$char_traits@D@std@@V?$allocator@D@2@@std@@QAE@QBD@Z ; std::basic_string<char,std::char_traits<char>,std::allocator<char> >::basic_string<char,std::char_traits<char>,std::allocator<char> >
  00cc4	c6 45 fc 25	 mov	 BYTE PTR __$EHRec$[ebp+8], 37 ; 00000025H
  00cc8	8d 45 e8	 lea	 eax, DWORD PTR _pTokenVector$44[ebp]
  00ccb	50		 push	 eax
  00ccc	8d 85 d8 03 00
	00		 lea	 eax, DWORD PTR $T88[ebp]
  00cd2	50		 push	 eax
  00cd3	8d 8d 14 04 00
	00		 lea	 ecx, DWORD PTR _textLoader$[ebp]
  00cd9	e8 00 00 00 00	 call	 ?GetTokenVector@CTextFileLoader@@QAEHABV?$basic_string@DU?$char_traits@D@std@@V?$allocator@D@2@@std@@PAPAV?$vector@V?$basic_string@DU?$char_traits@D@std@@V?$allocator@D@2@@std@@V?$allocator@V?$basic_string@DU?$char_traits@D@std@@V?$allocator@D@2@@std@@@2@@3@@Z ; CTextFileLoader::GetTokenVector
  00cde	89 85 68 ff ff
	ff		 mov	 DWORD PTR $T18[ebp], eax
  00ce4	c6 45 fc 00	 mov	 BYTE PTR __$EHRec$[ebp+8], 0
; File C:\Program Files (x86)\Microsoft Visual Studio\2019\Community\VC\Tools\MSVC\14.28.29333\include\xstring

; 2801 :         _Tidy_deallocate();

  00ce8	8d 8d d8 03 00
	00		 lea	 ecx, DWORD PTR $T88[ebp]
  00cee	e8 00 00 00 00	 call	 ?_Tidy_deallocate@?$basic_string@DU?$char_traits@D@std@@V?$allocator@D@2@@std@@AAEXXZ ; std::basic_string<char,std::char_traits<char>,std::allocator<char> >::_Tidy_deallocate
; File D:\Metin2 Server Files\mainline\SRC_2014\Metin2Client\GameLib\MapUtil.cpp

; 172  : 		if (textLoader.GetTokenVector("gradient", &pTokenVector))

  00cf3	83 bd 68 ff ff
	ff 00		 cmp	 DWORD PTR $T18[ebp], 0
  00cfa	0f 84 87 03 00
	00		 je	 $LN3@Environmen

; 173  : 		if (0 == pTokenVector->size()%8)

  00d00	8b 45 e8	 mov	 eax, DWORD PTR _pTokenVector$44[ebp]
  00d03	89 85 64 ff ff
	ff		 mov	 DWORD PTR _this$[ebp], eax
; File C:\Program Files (x86)\Microsoft Visual Studio\2019\Community\VC\Tools\MSVC\14.28.29333\include\vector

; 1483 :         auto& _My_data = _Mypair._Myval2;

  00d09	8b 85 64 ff ff
	ff		 mov	 eax, DWORD PTR _this$[ebp]
  00d0f	89 45 d8	 mov	 DWORD PTR __My_data$38[ebp], eax

; 1484 :         return static_cast<size_type>(_My_data._Mylast - _My_data._Myfirst);

  00d12	8b 45 d8	 mov	 eax, DWORD PTR __My_data$38[ebp]
  00d15	8b 4d d8	 mov	 ecx, DWORD PTR __My_data$38[ebp]
  00d18	8b 40 04	 mov	 eax, DWORD PTR [eax+4]
  00d1b	2b 01		 sub	 eax, DWORD PTR [ecx]
  00d1d	99		 cdq
  00d1e	6a 18		 push	 24			; 00000018H
  00d20	59		 pop	 ecx
  00d21	f7 f9		 idiv	 ecx
  00d23	89 85 60 ff ff
	ff		 mov	 DWORD PTR $T17[ebp], eax
; File D:\Metin2 Server Files\mainline\SRC_2014\Metin2Client\GameLib\MapUtil.cpp

; 173  : 		if (0 == pTokenVector->size()%8)

  00d29	8b 85 60 ff ff
	ff		 mov	 eax, DWORD PTR $T17[ebp]
  00d2f	33 d2		 xor	 edx, edx
  00d31	6a 08		 push	 8
  00d33	59		 pop	 ecx
  00d34	f7 f1		 div	 ecx
  00d36	85 d2		 test	 edx, edx
  00d38	0f 85 49 03 00
	00		 jne	 $LN3@Environmen

; 174  : 		if (byGradientCount == pTokenVector->size()/8)

  00d3e	8b 45 e8	 mov	 eax, DWORD PTR _pTokenVector$44[ebp]
  00d41	89 85 5c ff ff
	ff		 mov	 DWORD PTR _this$[ebp], eax
; File C:\Program Files (x86)\Microsoft Visual Studio\2019\Community\VC\Tools\MSVC\14.28.29333\include\vector

; 1483 :         auto& _My_data = _Mypair._Myval2;

  00d47	8b 85 5c ff ff
	ff		 mov	 eax, DWORD PTR _this$[ebp]
  00d4d	89 45 d4	 mov	 DWORD PTR __My_data$37[ebp], eax

; 1484 :         return static_cast<size_type>(_My_data._Mylast - _My_data._Myfirst);

  00d50	8b 45 d4	 mov	 eax, DWORD PTR __My_data$37[ebp]
  00d53	8b 4d d4	 mov	 ecx, DWORD PTR __My_data$37[ebp]
  00d56	8b 40 04	 mov	 eax, DWORD PTR [eax+4]
  00d59	2b 01		 sub	 eax, DWORD PTR [ecx]
  00d5b	99		 cdq
  00d5c	6a 18		 push	 24			; 00000018H
  00d5e	59		 pop	 ecx
  00d5f	f7 f9		 idiv	 ecx
  00d61	89 85 58 ff ff
	ff		 mov	 DWORD PTR $T16[ebp], eax
; File D:\Metin2 Server Files\mainline\SRC_2014\Metin2Client\GameLib\MapUtil.cpp

; 174  : 		if (byGradientCount == pTokenVector->size()/8)

  00d67	0f b6 45 ef	 movzx	 eax, BYTE PTR _byGradientCount$45[ebp]
  00d6b	8b 8d 58 ff ff
	ff		 mov	 ecx, DWORD PTR $T16[ebp]
  00d71	c1 e9 03	 shr	 ecx, 3
  00d74	3b c1		 cmp	 eax, ecx
  00d76	0f 85 0b 03 00
	00		 jne	 $LN3@Environmen

; 175  : 		{
; 176  : 			envData.SkyBoxGradientColorVector.clear();

  00d7c	8b 8d a0 04 00
	00		 mov	 ecx, DWORD PTR _envData$[ebp]
  00d82	81 c1 54 02 00
	00		 add	 ecx, 596		; 00000254H
  00d88	e8 00 00 00 00	 call	 ?clear@?$vector@UTGradientColor@@V?$allocator@UTGradientColor@@@std@@@std@@QAEXXZ ; std::vector<TGradientColor,std::allocator<TGradientColor> >::clear
; File C:\Program Files (x86)\Microsoft Visual Studio\2019\Community\VC\Tools\MSVC\14.28.29333\include\vector

; 1242 :         _Resize(_Newsize, _Value_init_tag{});

  00d8d	8d 45 e1	 lea	 eax, DWORD PTR $T40[ebp]
  00d90	50		 push	 eax
; File D:\Metin2 Server Files\mainline\SRC_2014\Metin2Client\GameLib\MapUtil.cpp

; 177  : 			envData.SkyBoxGradientColorVector.resize(byGradientCount);

  00d91	0f b6 45 ef	 movzx	 eax, BYTE PTR _byGradientCount$45[ebp]
; File C:\Program Files (x86)\Microsoft Visual Studio\2019\Community\VC\Tools\MSVC\14.28.29333\include\vector

; 1242 :         _Resize(_Newsize, _Value_init_tag{});

  00d95	50		 push	 eax
; File D:\Metin2 Server Files\mainline\SRC_2014\Metin2Client\GameLib\MapUtil.cpp

; 177  : 			envData.SkyBoxGradientColorVector.resize(byGradientCount);

  00d96	8b 8d a0 04 00
	00		 mov	 ecx, DWORD PTR _envData$[ebp]
  00d9c	81 c1 54 02 00
	00		 add	 ecx, 596		; 00000254H
; File C:\Program Files (x86)\Microsoft Visual Studio\2019\Community\VC\Tools\MSVC\14.28.29333\include\vector

; 1242 :         _Resize(_Newsize, _Value_init_tag{});

  00da2	e8 00 00 00 00	 call	 ??$_Resize@U_Value_init_tag@std@@@?$vector@UTGradientColor@@V?$allocator@UTGradientColor@@@std@@@std@@AAEXIABU_Value_init_tag@1@@Z ; std::vector<TGradientColor,std::allocator<TGradientColor> >::_Resize<std::_Value_init_tag>
; File D:\Metin2 Server Files\mainline\SRC_2014\Metin2Client\GameLib\MapUtil.cpp

; 178  : 			for (DWORD i = 0; i < byGradientCount; ++i)

  00da7	83 65 f0 00	 and	 DWORD PTR _i$46[ebp], 0
  00dab	eb 07		 jmp	 SHORT $LN4@Environmen
$LN2@Environmen:
  00dad	8b 45 f0	 mov	 eax, DWORD PTR _i$46[ebp]
  00db0	40		 inc	 eax
  00db1	89 45 f0	 mov	 DWORD PTR _i$46[ebp], eax
$LN4@Environmen:
  00db4	0f b6 45 ef	 movzx	 eax, BYTE PTR _byGradientCount$45[ebp]
  00db8	39 45 f0	 cmp	 DWORD PTR _i$46[ebp], eax
  00dbb	0f 83 c6 02 00
	00		 jae	 $LN3@Environmen

; 180  : 				envData.SkyBoxGradientColorVector[i].m_FirstColor.r = atof(pTokenVector->at(i*8+0).c_str());

  00dc1	8b 45 f0	 mov	 eax, DWORD PTR _i$46[ebp]
  00dc4	c1 e0 03	 shl	 eax, 3
  00dc7	50		 push	 eax
  00dc8	8b 4d e8	 mov	 ecx, DWORD PTR _pTokenVector$44[ebp]
  00dcb	e8 00 00 00 00	 call	 ?at@?$vector@V?$basic_string@DU?$char_traits@D@std@@V?$allocator@D@2@@std@@V?$allocator@V?$basic_string@DU?$char_traits@D@std@@V?$allocator@D@2@@std@@@2@@std@@QAEAAV?$basic_string@DU?$char_traits@D@std@@V?$allocator@D@2@@2@I@Z ; std::vector<std::basic_string<char,std::char_traits<char>,std::allocator<char> >,std::allocator<std::basic_string<char,std::char_traits<char>,std::allocator<char> > > >::at
  00dd0	89 85 54 ff ff
	ff		 mov	 DWORD PTR _this$[ebp], eax
; File C:\Program Files (x86)\Microsoft Visual Studio\2019\Community\VC\Tools\MSVC\14.28.29333\include\xstring

; 3752 :         return _Mypair._Myval2._Myptr();

  00dd6	8b 8d 54 ff ff
	ff		 mov	 ecx, DWORD PTR _this$[ebp]
  00ddc	e8 00 00 00 00	 call	 ?_Myptr@?$_String_val@U?$_Simple_types@D@std@@@std@@QBEPBDXZ ; std::_String_val<std::_Simple_types<char> >::_Myptr
  00de1	89 85 4c ff ff
	ff		 mov	 DWORD PTR $T14[ebp], eax
; File C:\Program Files (x86)\Microsoft Visual Studio\2019\Community\VC\Tools\MSVC\14.28.29333\include\vector

; 1498 :         auto& _My_data = _Mypair._Myval2;

  00de7	8b 85 a0 04 00
	00		 mov	 eax, DWORD PTR _envData$[ebp]
  00ded	05 54 02 00 00	 add	 eax, 596		; 00000254H
  00df2	89 85 50 ff ff
	ff		 mov	 DWORD PTR __My_data$15[ebp], eax

; 1499 : #if _CONTAINER_DEBUG_LEVEL > 0
; 1500 :         _STL_VERIFY(
; 1501 :             _Pos < static_cast<size_type>(_My_data._Mylast - _My_data._Myfirst), "vector subscript out of range");
; 1502 : #endif // _CONTAINER_DEBUG_LEVEL > 0
; 1503 : 
; 1504 :         return _My_data._Myfirst[_Pos];

  00df8	8b 45 f0	 mov	 eax, DWORD PTR _i$46[ebp]
  00dfb	c1 e0 05	 shl	 eax, 5
  00dfe	8b 8d 50 ff ff
	ff		 mov	 ecx, DWORD PTR __My_data$15[ebp]
  00e04	03 01		 add	 eax, DWORD PTR [ecx]
  00e06	89 85 48 ff ff
	ff		 mov	 DWORD PTR $T13[ebp], eax
; File D:\Metin2 Server Files\mainline\SRC_2014\Metin2Client\GameLib\MapUtil.cpp

; 180  : 				envData.SkyBoxGradientColorVector[i].m_FirstColor.r = atof(pTokenVector->at(i*8+0).c_str());

  00e0c	ff b5 4c ff ff
	ff		 push	 DWORD PTR $T14[ebp]
  00e12	e8 00 00 00 00	 call	 _atof
  00e17	59		 pop	 ecx
  00e18	8b 85 48 ff ff
	ff		 mov	 eax, DWORD PTR $T13[ebp]
  00e1e	d9 18		 fstp	 DWORD PTR [eax]

; 181  : 				envData.SkyBoxGradientColorVector[i].m_FirstColor.g = atof(pTokenVector->at(i*8+1).c_str());

  00e20	8b 45 f0	 mov	 eax, DWORD PTR _i$46[ebp]
  00e23	8d 04 c5 01 00
	00 00		 lea	 eax, DWORD PTR [eax*8+1]
  00e2a	50		 push	 eax
  00e2b	8b 4d e8	 mov	 ecx, DWORD PTR _pTokenVector$44[ebp]
  00e2e	e8 00 00 00 00	 call	 ?at@?$vector@V?$basic_string@DU?$char_traits@D@std@@V?$allocator@D@2@@std@@V?$allocator@V?$basic_string@DU?$char_traits@D@std@@V?$allocator@D@2@@std@@@2@@std@@QAEAAV?$basic_string@DU?$char_traits@D@std@@V?$allocator@D@2@@2@I@Z ; std::vector<std::basic_string<char,std::char_traits<char>,std::allocator<char> >,std::allocator<std::basic_string<char,std::char_traits<char>,std::allocator<char> > > >::at
  00e33	89 85 44 ff ff
	ff		 mov	 DWORD PTR _this$[ebp], eax
; File C:\Program Files (x86)\Microsoft Visual Studio\2019\Community\VC\Tools\MSVC\14.28.29333\include\xstring

; 3752 :         return _Mypair._Myval2._Myptr();

  00e39	8b 8d 44 ff ff
	ff		 mov	 ecx, DWORD PTR _this$[ebp]
  00e3f	e8 00 00 00 00	 call	 ?_Myptr@?$_String_val@U?$_Simple_types@D@std@@@std@@QBEPBDXZ ; std::_String_val<std::_Simple_types<char> >::_Myptr
  00e44	89 85 38 ff ff
	ff		 mov	 DWORD PTR $T10[ebp], eax
; File C:\Program Files (x86)\Microsoft Visual Studio\2019\Community\VC\Tools\MSVC\14.28.29333\include\vector

; 1498 :         auto& _My_data = _Mypair._Myval2;

  00e4a	8b 85 a0 04 00
	00		 mov	 eax, DWORD PTR _envData$[ebp]
  00e50	05 54 02 00 00	 add	 eax, 596		; 00000254H
  00e55	89 85 40 ff ff
	ff		 mov	 DWORD PTR __My_data$12[ebp], eax

; 1499 : #if _CONTAINER_DEBUG_LEVEL > 0
; 1500 :         _STL_VERIFY(
; 1501 :             _Pos < static_cast<size_type>(_My_data._Mylast - _My_data._Myfirst), "vector subscript out of range");
; 1502 : #endif // _CONTAINER_DEBUG_LEVEL > 0
; 1503 : 
; 1504 :         return _My_data._Myfirst[_Pos];

  00e5b	8b 45 f0	 mov	 eax, DWORD PTR _i$46[ebp]
  00e5e	c1 e0 05	 shl	 eax, 5
  00e61	8b 8d 40 ff ff
	ff		 mov	 ecx, DWORD PTR __My_data$12[ebp]
  00e67	03 01		 add	 eax, DWORD PTR [ecx]
  00e69	89 85 3c ff ff
	ff		 mov	 DWORD PTR $T11[ebp], eax
; File D:\Metin2 Server Files\mainline\SRC_2014\Metin2Client\GameLib\MapUtil.cpp

; 181  : 				envData.SkyBoxGradientColorVector[i].m_FirstColor.g = atof(pTokenVector->at(i*8+1).c_str());

  00e6f	ff b5 38 ff ff
	ff		 push	 DWORD PTR $T10[ebp]
  00e75	e8 00 00 00 00	 call	 _atof
  00e7a	59		 pop	 ecx
  00e7b	8b 85 3c ff ff
	ff		 mov	 eax, DWORD PTR $T11[ebp]
  00e81	d9 58 04	 fstp	 DWORD PTR [eax+4]

; 182  : 				envData.SkyBoxGradientColorVector[i].m_FirstColor.b = atof(pTokenVector->at(i*8+2).c_str());

  00e84	8b 45 f0	 mov	 eax, DWORD PTR _i$46[ebp]
  00e87	8d 04 c5 02 00
	00 00		 lea	 eax, DWORD PTR [eax*8+2]
  00e8e	50		 push	 eax
  00e8f	8b 4d e8	 mov	 ecx, DWORD PTR _pTokenVector$44[ebp]
  00e92	e8 00 00 00 00	 call	 ?at@?$vector@V?$basic_string@DU?$char_traits@D@std@@V?$allocator@D@2@@std@@V?$allocator@V?$basic_string@DU?$char_traits@D@std@@V?$allocator@D@2@@std@@@2@@std@@QAEAAV?$basic_string@DU?$char_traits@D@std@@V?$allocator@D@2@@2@I@Z ; std::vector<std::basic_string<char,std::char_traits<char>,std::allocator<char> >,std::allocator<std::basic_string<char,std::char_traits<char>,std::allocator<char> > > >::at
  00e97	89 85 34 ff ff
	ff		 mov	 DWORD PTR _this$[ebp], eax
; File C:\Program Files (x86)\Microsoft Visual Studio\2019\Community\VC\Tools\MSVC\14.28.29333\include\xstring

; 3752 :         return _Mypair._Myval2._Myptr();

  00e9d	8b 8d 34 ff ff
	ff		 mov	 ecx, DWORD PTR _this$[ebp]
  00ea3	e8 00 00 00 00	 call	 ?_Myptr@?$_String_val@U?$_Simple_types@D@std@@@std@@QBEPBDXZ ; std::_String_val<std::_Simple_types<char> >::_Myptr
  00ea8	89 85 2c ff ff
	ff		 mov	 DWORD PTR $T8[ebp], eax
; File C:\Program Files (x86)\Microsoft Visual Studio\2019\Community\VC\Tools\MSVC\14.28.29333\include\vector

; 1498 :         auto& _My_data = _Mypair._Myval2;

  00eae	8b 85 a0 04 00
	00		 mov	 eax, DWORD PTR _envData$[ebp]
  00eb4	05 54 02 00 00	 add	 eax, 596		; 00000254H
  00eb9	89 85 30 ff ff
	ff		 mov	 DWORD PTR __My_data$9[ebp], eax

; 1499 : #if _CONTAINER_DEBUG_LEVEL > 0
; 1500 :         _STL_VERIFY(
; 1501 :             _Pos < static_cast<size_type>(_My_data._Mylast - _My_data._Myfirst), "vector subscript out of range");
; 1502 : #endif // _CONTAINER_DEBUG_LEVEL > 0
; 1503 : 
; 1504 :         return _My_data._Myfirst[_Pos];

  00ebf	8b 45 f0	 mov	 eax, DWORD PTR _i$46[ebp]
  00ec2	c1 e0 05	 shl	 eax, 5
  00ec5	8b 8d 30 ff ff
	ff		 mov	 ecx, DWORD PTR __My_data$9[ebp]
  00ecb	03 01		 add	 eax, DWORD PTR [ecx]
  00ecd	89 85 28 ff ff
	ff		 mov	 DWORD PTR $T7[ebp], eax
; File D:\Metin2 Server Files\mainline\SRC_2014\Metin2Client\GameLib\MapUtil.cpp

; 182  : 				envData.SkyBoxGradientColorVector[i].m_FirstColor.b = atof(pTokenVector->at(i*8+2).c_str());

  00ed3	ff b5 2c ff ff
	ff		 push	 DWORD PTR $T8[ebp]
  00ed9	e8 00 00 00 00	 call	 _atof
  00ede	59		 pop	 ecx
  00edf	8b 85 28 ff ff
	ff		 mov	 eax, DWORD PTR $T7[ebp]
  00ee5	d9 58 08	 fstp	 DWORD PTR [eax+8]

; 183  : 				envData.SkyBoxGradientColorVector[i].m_FirstColor.a = atof(pTokenVector->at(i*8+3).c_str());

  00ee8	8b 45 f0	 mov	 eax, DWORD PTR _i$46[ebp]
  00eeb	8d 04 c5 03 00
	00 00		 lea	 eax, DWORD PTR [eax*8+3]
  00ef2	50		 push	 eax
  00ef3	8b 4d e8	 mov	 ecx, DWORD PTR _pTokenVector$44[ebp]
  00ef6	e8 00 00 00 00	 call	 ?at@?$vector@V?$basic_string@DU?$char_traits@D@std@@V?$allocator@D@2@@std@@V?$allocator@V?$basic_string@DU?$char_traits@D@std@@V?$allocator@D@2@@std@@@2@@std@@QAEAAV?$basic_string@DU?$char_traits@D@std@@V?$allocator@D@2@@2@I@Z ; std::vector<std::basic_string<char,std::char_traits<char>,std::allocator<char> >,std::allocator<std::basic_string<char,std::char_traits<char>,std::allocator<char> > > >::at
  00efb	89 85 24 ff ff
	ff		 mov	 DWORD PTR _this$[ebp], eax
; File C:\Program Files (x86)\Microsoft Visual Studio\2019\Community\VC\Tools\MSVC\14.28.29333\include\xstring

; 3752 :         return _Mypair._Myval2._Myptr();

  00f01	8b 8d 24 ff ff
	ff		 mov	 ecx, DWORD PTR _this$[ebp]
  00f07	e8 00 00 00 00	 call	 ?_Myptr@?$_String_val@U?$_Simple_types@D@std@@@std@@QBEPBDXZ ; std::_String_val<std::_Simple_types<char> >::_Myptr
  00f0c	89 85 1c ff ff
	ff		 mov	 DWORD PTR $T5[ebp], eax
; File C:\Program Files (x86)\Microsoft Visual Studio\2019\Community\VC\Tools\MSVC\14.28.29333\include\vector

; 1498 :         auto& _My_data = _Mypair._Myval2;

  00f12	8b 85 a0 04 00
	00		 mov	 eax, DWORD PTR _envData$[ebp]
  00f18	05 54 02 00 00	 add	 eax, 596		; 00000254H
  00f1d	89 85 20 ff ff
	ff		 mov	 DWORD PTR __My_data$6[ebp], eax

; 1499 : #if _CONTAINER_DEBUG_LEVEL > 0
; 1500 :         _STL_VERIFY(
; 1501 :             _Pos < static_cast<size_type>(_My_data._Mylast - _My_data._Myfirst), "vector subscript out of range");
; 1502 : #endif // _CONTAINER_DEBUG_LEVEL > 0
; 1503 : 
; 1504 :         return _My_data._Myfirst[_Pos];

  00f23	8b 45 f0	 mov	 eax, DWORD PTR _i$46[ebp]
  00f26	c1 e0 05	 shl	 eax, 5
  00f29	8b 8d 20 ff ff
	ff		 mov	 ecx, DWORD PTR __My_data$6[ebp]
  00f2f	03 01		 add	 eax, DWORD PTR [ecx]
  00f31	89 85 18 ff ff
	ff		 mov	 DWORD PTR $T4[ebp], eax
; File D:\Metin2 Server Files\mainline\SRC_2014\Metin2Client\GameLib\MapUtil.cpp

; 183  : 				envData.SkyBoxGradientColorVector[i].m_FirstColor.a = atof(pTokenVector->at(i*8+3).c_str());

  00f37	ff b5 1c ff ff
	ff		 push	 DWORD PTR $T5[ebp]
  00f3d	e8 00 00 00 00	 call	 _atof
  00f42	59		 pop	 ecx
  00f43	8b 85 18 ff ff
	ff		 mov	 eax, DWORD PTR $T4[ebp]
  00f49	d9 58 0c	 fstp	 DWORD PTR [eax+12]

; 185  : 				envData.SkyBoxGradientColorVector[i].m_SecondColor.r = atof(pTokenVector->at(i*8+4).c_str());

  00f4c	8b 45 f0	 mov	 eax, DWORD PTR _i$46[ebp]
  00f4f	8d 04 c5 04 00
	00 00		 lea	 eax, DWORD PTR [eax*8+4]
  00f56	50		 push	 eax
  00f57	8b 4d e8	 mov	 ecx, DWORD PTR _pTokenVector$44[ebp]
  00f5a	e8 00 00 00 00	 call	 ?at@?$vector@V?$basic_string@DU?$char_traits@D@std@@V?$allocator@D@2@@std@@V?$allocator@V?$basic_string@DU?$char_traits@D@std@@V?$allocator@D@2@@std@@@2@@std@@QAEAAV?$basic_string@DU?$char_traits@D@std@@V?$allocator@D@2@@2@I@Z ; std::vector<std::basic_string<char,std::char_traits<char>,std::allocator<char> >,std::allocator<std::basic_string<char,std::char_traits<char>,std::allocator<char> > > >::at
  00f5f	89 85 14 ff ff
	ff		 mov	 DWORD PTR _this$[ebp], eax
; File C:\Program Files (x86)\Microsoft Visual Studio\2019\Community\VC\Tools\MSVC\14.28.29333\include\xstring

; 3752 :         return _Mypair._Myval2._Myptr();

  00f65	8b 8d 14 ff ff
	ff		 mov	 ecx, DWORD PTR _this$[ebp]
  00f6b	e8 00 00 00 00	 call	 ?_Myptr@?$_String_val@U?$_Simple_types@D@std@@@std@@QBEPBDXZ ; std::_String_val<std::_Simple_types<char> >::_Myptr
  00f70	89 85 0c ff ff
	ff		 mov	 DWORD PTR $T2[ebp], eax
; File C:\Program Files (x86)\Microsoft Visual Studio\2019\Community\VC\Tools\MSVC\14.28.29333\include\vector

; 1498 :         auto& _My_data = _Mypair._Myval2;

  00f76	8b 85 a0 04 00
	00		 mov	 eax, DWORD PTR _envData$[ebp]
  00f7c	05 54 02 00 00	 add	 eax, 596		; 00000254H
  00f81	89 85 10 ff ff
	ff		 mov	 DWORD PTR __My_data$3[ebp], eax

; 1499 : #if _CONTAINER_DEBUG_LEVEL > 0
; 1500 :         _STL_VERIFY(
; 1501 :             _Pos < static_cast<size_type>(_My_data._Mylast - _My_data._Myfirst), "vector subscript out of range");
; 1502 : #endif // _CONTAINER_DEBUG_LEVEL > 0
; 1503 : 
; 1504 :         return _My_data._Myfirst[_Pos];

  00f87	8b 45 f0	 mov	 eax, DWORD PTR _i$46[ebp]
  00f8a	c1 e0 05	 shl	 eax, 5
  00f8d	8b 8d 10 ff ff
	ff		 mov	 ecx, DWORD PTR __My_data$3[ebp]
  00f93	03 01		 add	 eax, DWORD PTR [ecx]
  00f95	89 45 a4	 mov	 DWORD PTR $T26[ebp], eax
; File D:\Metin2 Server Files\mainline\SRC_2014\Metin2Client\GameLib\MapUtil.cpp

; 185  : 				envData.SkyBoxGradientColorVector[i].m_SecondColor.r = atof(pTokenVector->at(i*8+4).c_str());

  00f98	ff b5 0c ff ff
	ff		 push	 DWORD PTR $T2[ebp]
  00f9e	e8 00 00 00 00	 call	 _atof
  00fa3	59		 pop	 ecx
  00fa4	8b 45 a4	 mov	 eax, DWORD PTR $T26[ebp]
  00fa7	d9 58 10	 fstp	 DWORD PTR [eax+16]

; 186  : 				envData.SkyBoxGradientColorVector[i].m_SecondColor.g = atof(pTokenVector->at(i*8+5).c_str());

  00faa	8b 45 f0	 mov	 eax, DWORD PTR _i$46[ebp]
  00fad	8d 04 c5 05 00
	00 00		 lea	 eax, DWORD PTR [eax*8+5]
  00fb4	50		 push	 eax
  00fb5	8b 4d e8	 mov	 ecx, DWORD PTR _pTokenVector$44[ebp]
  00fb8	e8 00 00 00 00	 call	 ?at@?$vector@V?$basic_string@DU?$char_traits@D@std@@V?$allocator@D@2@@std@@V?$allocator@V?$basic_string@DU?$char_traits@D@std@@V?$allocator@D@2@@std@@@2@@std@@QAEAAV?$basic_string@DU?$char_traits@D@std@@V?$allocator@D@2@@2@I@Z ; std::vector<std::basic_string<char,std::char_traits<char>,std::allocator<char> >,std::allocator<std::basic_string<char,std::char_traits<char>,std::allocator<char> > > >::at
  00fbd	89 85 04 ff ff
	ff		 mov	 DWORD PTR _this$[ebp], eax
; File C:\Program Files (x86)\Microsoft Visual Studio\2019\Community\VC\Tools\MSVC\14.28.29333\include\xstring

; 3752 :         return _Mypair._Myval2._Myptr();

  00fc3	8b 8d 04 ff ff
	ff		 mov	 ecx, DWORD PTR _this$[ebp]
  00fc9	e8 00 00 00 00	 call	 ?_Myptr@?$_String_val@U?$_Simple_types@D@std@@@std@@QBEPBDXZ ; std::_String_val<std::_Simple_types<char> >::_Myptr
  00fce	89 45 cc	 mov	 DWORD PTR $T35[ebp], eax
; File C:\Program Files (x86)\Microsoft Visual Studio\2019\Community\VC\Tools\MSVC\14.28.29333\include\vector

; 1498 :         auto& _My_data = _Mypair._Myval2;

  00fd1	8b 85 a0 04 00
	00		 mov	 eax, DWORD PTR _envData$[ebp]
  00fd7	05 54 02 00 00	 add	 eax, 596		; 00000254H
  00fdc	89 45 d0	 mov	 DWORD PTR __My_data$36[ebp], eax

; 1499 : #if _CONTAINER_DEBUG_LEVEL > 0
; 1500 :         _STL_VERIFY(
; 1501 :             _Pos < static_cast<size_type>(_My_data._Mylast - _My_data._Myfirst), "vector subscript out of range");
; 1502 : #endif // _CONTAINER_DEBUG_LEVEL > 0
; 1503 : 
; 1504 :         return _My_data._Myfirst[_Pos];

  00fdf	8b 45 f0	 mov	 eax, DWORD PTR _i$46[ebp]
  00fe2	c1 e0 05	 shl	 eax, 5
  00fe5	8b 4d d0	 mov	 ecx, DWORD PTR __My_data$36[ebp]
  00fe8	03 01		 add	 eax, DWORD PTR [ecx]
  00fea	89 45 c8	 mov	 DWORD PTR $T34[ebp], eax
; File D:\Metin2 Server Files\mainline\SRC_2014\Metin2Client\GameLib\MapUtil.cpp

; 186  : 				envData.SkyBoxGradientColorVector[i].m_SecondColor.g = atof(pTokenVector->at(i*8+5).c_str());

  00fed	ff 75 cc	 push	 DWORD PTR $T35[ebp]
  00ff0	e8 00 00 00 00	 call	 _atof
  00ff5	59		 pop	 ecx
  00ff6	8b 45 c8	 mov	 eax, DWORD PTR $T34[ebp]
  00ff9	d9 58 14	 fstp	 DWORD PTR [eax+20]
; File C:\Program Files (x86)\Microsoft Visual Studio\2019\Community\VC\Tools\MSVC\14.28.29333\include\vector

; 1498 :         auto& _My_data = _Mypair._Myval2;

  00ffc	8b 85 a0 04 00
	00		 mov	 eax, DWORD PTR _envData$[ebp]
  01002	05 54 02 00 00	 add	 eax, 596		; 00000254H
  01007	89 45 c4	 mov	 DWORD PTR __My_data$33[ebp], eax

; 1499 : #if _CONTAINER_DEBUG_LEVEL > 0
; 1500 :         _STL_VERIFY(
; 1501 :             _Pos < static_cast<size_type>(_My_data._Mylast - _My_data._Myfirst), "vector subscript out of range");
; 1502 : #endif // _CONTAINER_DEBUG_LEVEL > 0
; 1503 : 
; 1504 :         return _My_data._Myfirst[_Pos];

  0100a	8b 45 f0	 mov	 eax, DWORD PTR _i$46[ebp]
  0100d	c1 e0 05	 shl	 eax, 5
  01010	8b 4d c4	 mov	 ecx, DWORD PTR __My_data$33[ebp]
  01013	03 01		 add	 eax, DWORD PTR [ecx]
  01015	89 45 c0	 mov	 DWORD PTR $T32[ebp], eax
; File D:\Metin2 Server Files\mainline\SRC_2014\Metin2Client\GameLib\MapUtil.cpp

; 187  : 				envData.SkyBoxGradientColorVector[i].m_SecondColor.b = atof(pTokenVector->at(i*8+6).c_str());

  01018	8b 45 f0	 mov	 eax, DWORD PTR _i$46[ebp]
  0101b	8d 04 c5 06 00
	00 00		 lea	 eax, DWORD PTR [eax*8+6]
  01022	50		 push	 eax
  01023	8b 4d e8	 mov	 ecx, DWORD PTR _pTokenVector$44[ebp]
  01026	e8 00 00 00 00	 call	 ?at@?$vector@V?$basic_string@DU?$char_traits@D@std@@V?$allocator@D@2@@std@@V?$allocator@V?$basic_string@DU?$char_traits@D@std@@V?$allocator@D@2@@std@@@2@@std@@QAEAAV?$basic_string@DU?$char_traits@D@std@@V?$allocator@D@2@@2@I@Z ; std::vector<std::basic_string<char,std::char_traits<char>,std::allocator<char> >,std::allocator<std::basic_string<char,std::char_traits<char>,std::allocator<char> > > >::at
  0102b	8b c8		 mov	 ecx, eax
  0102d	e8 00 00 00 00	 call	 ?c_str@?$basic_string@DU?$char_traits@D@std@@V?$allocator@D@2@@std@@QBEPBDXZ ; std::basic_string<char,std::char_traits<char>,std::allocator<char> >::c_str
  01032	50		 push	 eax
  01033	e8 00 00 00 00	 call	 _atof
  01038	59		 pop	 ecx
  01039	8b 45 c0	 mov	 eax, DWORD PTR $T32[ebp]
  0103c	d9 58 18	 fstp	 DWORD PTR [eax+24]
; File C:\Program Files (x86)\Microsoft Visual Studio\2019\Community\VC\Tools\MSVC\14.28.29333\include\vector

; 1498 :         auto& _My_data = _Mypair._Myval2;

  0103f	8b 85 a0 04 00
	00		 mov	 eax, DWORD PTR _envData$[ebp]
  01045	05 54 02 00 00	 add	 eax, 596		; 00000254H
  0104a	89 45 bc	 mov	 DWORD PTR __My_data$31[ebp], eax

; 1499 : #if _CONTAINER_DEBUG_LEVEL > 0
; 1500 :         _STL_VERIFY(
; 1501 :             _Pos < static_cast<size_type>(_My_data._Mylast - _My_data._Myfirst), "vector subscript out of range");
; 1502 : #endif // _CONTAINER_DEBUG_LEVEL > 0
; 1503 : 
; 1504 :         return _My_data._Myfirst[_Pos];

  0104d	8b 45 f0	 mov	 eax, DWORD PTR _i$46[ebp]
  01050	c1 e0 05	 shl	 eax, 5
  01053	8b 4d bc	 mov	 ecx, DWORD PTR __My_data$31[ebp]
  01056	03 01		 add	 eax, DWORD PTR [ecx]
  01058	89 45 b8	 mov	 DWORD PTR $T30[ebp], eax
; File D:\Metin2 Server Files\mainline\SRC_2014\Metin2Client\GameLib\MapUtil.cpp

; 188  : 				envData.SkyBoxGradientColorVector[i].m_SecondColor.a = atof(pTokenVector->at(i*8+7).c_str());

  0105b	8b 45 f0	 mov	 eax, DWORD PTR _i$46[ebp]
  0105e	8d 04 c5 07 00
	00 00		 lea	 eax, DWORD PTR [eax*8+7]
  01065	50		 push	 eax
  01066	8b 4d e8	 mov	 ecx, DWORD PTR _pTokenVector$44[ebp]
  01069	e8 00 00 00 00	 call	 ?at@?$vector@V?$basic_string@DU?$char_traits@D@std@@V?$allocator@D@2@@std@@V?$allocator@V?$basic_string@DU?$char_traits@D@std@@V?$allocator@D@2@@std@@@2@@std@@QAEAAV?$basic_string@DU?$char_traits@D@std@@V?$allocator@D@2@@2@I@Z ; std::vector<std::basic_string<char,std::char_traits<char>,std::allocator<char> >,std::allocator<std::basic_string<char,std::char_traits<char>,std::allocator<char> > > >::at
  0106e	8b c8		 mov	 ecx, eax
  01070	e8 00 00 00 00	 call	 ?c_str@?$basic_string@DU?$char_traits@D@std@@V?$allocator@D@2@@std@@QBEPBDXZ ; std::basic_string<char,std::char_traits<char>,std::allocator<char> >::c_str
  01075	50		 push	 eax
  01076	e8 00 00 00 00	 call	 _atof
  0107b	59		 pop	 ecx
  0107c	8b 45 b8	 mov	 eax, DWORD PTR $T30[ebp]
  0107f	d9 58 1c	 fstp	 DWORD PTR [eax+28]

; 189  : 			}

  01082	e9 26 fd ff ff	 jmp	 $LN2@Environmen
$LN3@Environmen:

; 190  : 		}
; 191  : 
; 192  : 		textLoader.SetParentNode();

  01087	8d 8d 14 04 00
	00		 lea	 ecx, DWORD PTR _textLoader$[ebp]
  0108d	e8 00 00 00 00	 call	 ?SetParentNode@CTextFileLoader@@QAEHXZ ; CTextFileLoader::SetParentNode
$LN12@Environmen:

; 193  : 	}
; 194  : 
; 195  : 	if (textLoader.SetChildNode("lensflare"))

  01092	68 00 00 00 00	 push	 OFFSET ??_C@_09JHLBAKBC@lensflare@
  01097	8d 8d 14 04 00
	00		 lea	 ecx, DWORD PTR _textLoader$[ebp]
  0109d	e8 00 00 00 00	 call	 ?SetChildNode@CTextFileLoader@@QAEHPBD@Z ; CTextFileLoader::SetChildNode
  010a2	85 c0		 test	 eax, eax
  010a4	0f 84 91 01 00
	00		 je	 $LN18@Environmen

; 196  : 	{
; 197  : 		textLoader.GetTokenBoolean("enable", &envData.bLensFlareEnable);

  010aa	68 00 00 00 00	 push	 OFFSET ??_C@_06OFNJOBDK@enable@
  010af	8d 8d 98 01 00
	00		 lea	 ecx, DWORD PTR $T64[ebp]
  010b5	e8 00 00 00 00	 call	 ??0?$basic_string@DU?$char_traits@D@std@@V?$allocator@D@2@@std@@QAE@QBD@Z ; std::basic_string<char,std::char_traits<char>,std::allocator<char> >::basic_string<char,std::char_traits<char>,std::allocator<char> >
  010ba	c6 45 fc 26	 mov	 BYTE PTR __$EHRec$[ebp+8], 38 ; 00000026H
  010be	8b 85 a0 04 00
	00		 mov	 eax, DWORD PTR _envData$[ebp]
  010c4	05 60 02 00 00	 add	 eax, 608		; 00000260H
  010c9	50		 push	 eax
  010ca	8d 85 98 01 00
	00		 lea	 eax, DWORD PTR $T64[ebp]
  010d0	50		 push	 eax
  010d1	8d 8d 14 04 00
	00		 lea	 ecx, DWORD PTR _textLoader$[ebp]
  010d7	e8 00 00 00 00	 call	 ?GetTokenBoolean@CTextFileLoader@@QAEHABV?$basic_string@DU?$char_traits@D@std@@V?$allocator@D@2@@std@@PAH@Z ; CTextFileLoader::GetTokenBoolean
  010dc	c6 45 fc 00	 mov	 BYTE PTR __$EHRec$[ebp+8], 0
; File C:\Program Files (x86)\Microsoft Visual Studio\2019\Community\VC\Tools\MSVC\14.28.29333\include\xstring

; 2801 :         _Tidy_deallocate();

  010e0	8d 8d 98 01 00
	00		 lea	 ecx, DWORD PTR $T64[ebp]
  010e6	e8 00 00 00 00	 call	 ?_Tidy_deallocate@?$basic_string@DU?$char_traits@D@std@@V?$allocator@D@2@@std@@AAEXXZ ; std::basic_string<char,std::char_traits<char>,std::allocator<char> >::_Tidy_deallocate
; File D:\Metin2 Server Files\mainline\SRC_2014\Metin2Client\GameLib\MapUtil.cpp

; 198  : 		textLoader.GetTokenColor("brightnesscolor", &envData.LensFlareBrightnessColor);

  010eb	68 00 00 00 00	 push	 OFFSET ??_C@_0BA@KOCEAOMM@brightnesscolor@
  010f0	8d 8d c0 03 00
	00		 lea	 ecx, DWORD PTR $T87[ebp]
  010f6	e8 00 00 00 00	 call	 ??0?$basic_string@DU?$char_traits@D@std@@V?$allocator@D@2@@std@@QAE@QBD@Z ; std::basic_string<char,std::char_traits<char>,std::allocator<char> >::basic_string<char,std::char_traits<char>,std::allocator<char> >
  010fb	c6 45 fc 27	 mov	 BYTE PTR __$EHRec$[ebp+8], 39 ; 00000027H
  010ff	8b 85 a0 04 00
	00		 mov	 eax, DWORD PTR _envData$[ebp]
  01105	05 64 02 00 00	 add	 eax, 612		; 00000264H
  0110a	50		 push	 eax
  0110b	8d 85 c0 03 00
	00		 lea	 eax, DWORD PTR $T87[ebp]
  01111	50		 push	 eax
  01112	8d 8d 14 04 00
	00		 lea	 ecx, DWORD PTR _textLoader$[ebp]
  01118	e8 00 00 00 00	 call	 ?GetTokenColor@CTextFileLoader@@QAEHABV?$basic_string@DU?$char_traits@D@std@@V?$allocator@D@2@@std@@PAUD3DXCOLOR@@@Z ; CTextFileLoader::GetTokenColor
  0111d	c6 45 fc 00	 mov	 BYTE PTR __$EHRec$[ebp+8], 0
; File C:\Program Files (x86)\Microsoft Visual Studio\2019\Community\VC\Tools\MSVC\14.28.29333\include\xstring

; 2801 :         _Tidy_deallocate();

  01121	8d 8d c0 03 00
	00		 lea	 ecx, DWORD PTR $T87[ebp]
  01127	e8 00 00 00 00	 call	 ?_Tidy_deallocate@?$basic_string@DU?$char_traits@D@std@@V?$allocator@D@2@@std@@AAEXXZ ; std::basic_string<char,std::char_traits<char>,std::allocator<char> >::_Tidy_deallocate
; File D:\Metin2 Server Files\mainline\SRC_2014\Metin2Client\GameLib\MapUtil.cpp

; 199  : 		textLoader.GetTokenFloat("maxbrightness", &envData.fLensFlareMaxBrightness);

  0112c	68 00 00 00 00	 push	 OFFSET ??_C@_0O@GEBPBGOO@maxbrightness@
  01131	8d 8d a8 03 00
	00		 lea	 ecx, DWORD PTR $T86[ebp]
  01137	e8 00 00 00 00	 call	 ??0?$basic_string@DU?$char_traits@D@std@@V?$allocator@D@2@@std@@QAE@QBD@Z ; std::basic_string<char,std::char_traits<char>,std::allocator<char> >::basic_string<char,std::char_traits<char>,std::allocator<char> >
  0113c	c6 45 fc 28	 mov	 BYTE PTR __$EHRec$[ebp+8], 40 ; 00000028H
  01140	8b 85 a0 04 00
	00		 mov	 eax, DWORD PTR _envData$[ebp]
  01146	05 74 02 00 00	 add	 eax, 628		; 00000274H
  0114b	50		 push	 eax
  0114c	8d 85 a8 03 00
	00		 lea	 eax, DWORD PTR $T86[ebp]
  01152	50		 push	 eax
  01153	8d 8d 14 04 00
	00		 lea	 ecx, DWORD PTR _textLoader$[ebp]
  01159	e8 00 00 00 00	 call	 ?GetTokenFloat@CTextFileLoader@@QAEHABV?$basic_string@DU?$char_traits@D@std@@V?$allocator@D@2@@std@@PAM@Z ; CTextFileLoader::GetTokenFloat
  0115e	c6 45 fc 00	 mov	 BYTE PTR __$EHRec$[ebp+8], 0
; File C:\Program Files (x86)\Microsoft Visual Studio\2019\Community\VC\Tools\MSVC\14.28.29333\include\xstring

; 2801 :         _Tidy_deallocate();

  01162	8d 8d a8 03 00
	00		 lea	 ecx, DWORD PTR $T86[ebp]
  01168	e8 00 00 00 00	 call	 ?_Tidy_deallocate@?$basic_string@DU?$char_traits@D@std@@V?$allocator@D@2@@std@@AAEXXZ ; std::basic_string<char,std::char_traits<char>,std::allocator<char> >::_Tidy_deallocate
; File D:\Metin2 Server Files\mainline\SRC_2014\Metin2Client\GameLib\MapUtil.cpp

; 200  : 		textLoader.GetTokenBoolean("mainflareenable", &envData.bMainFlareEnable);

  0116d	68 00 00 00 00	 push	 OFFSET ??_C@_0BA@GMIEGFJG@mainflareenable@
  01172	8d 8d 90 03 00
	00		 lea	 ecx, DWORD PTR $T85[ebp]
  01178	e8 00 00 00 00	 call	 ??0?$basic_string@DU?$char_traits@D@std@@V?$allocator@D@2@@std@@QAE@QBD@Z ; std::basic_string<char,std::char_traits<char>,std::allocator<char> >::basic_string<char,std::char_traits<char>,std::allocator<char> >
  0117d	c6 45 fc 29	 mov	 BYTE PTR __$EHRec$[ebp+8], 41 ; 00000029H
  01181	8b 85 a0 04 00
	00		 mov	 eax, DWORD PTR _envData$[ebp]
  01187	05 78 02 00 00	 add	 eax, 632		; 00000278H
  0118c	50		 push	 eax
  0118d	8d 85 90 03 00
	00		 lea	 eax, DWORD PTR $T85[ebp]
  01193	50		 push	 eax
  01194	8d 8d 14 04 00
	00		 lea	 ecx, DWORD PTR _textLoader$[ebp]
  0119a	e8 00 00 00 00	 call	 ?GetTokenBoolean@CTextFileLoader@@QAEHABV?$basic_string@DU?$char_traits@D@std@@V?$allocator@D@2@@std@@PAH@Z ; CTextFileLoader::GetTokenBoolean
  0119f	c6 45 fc 00	 mov	 BYTE PTR __$EHRec$[ebp+8], 0
; File C:\Program Files (x86)\Microsoft Visual Studio\2019\Community\VC\Tools\MSVC\14.28.29333\include\xstring

; 2801 :         _Tidy_deallocate();

  011a3	8d 8d 90 03 00
	00		 lea	 ecx, DWORD PTR $T85[ebp]
  011a9	e8 00 00 00 00	 call	 ?_Tidy_deallocate@?$basic_string@DU?$char_traits@D@std@@V?$allocator@D@2@@std@@AAEXXZ ; std::basic_string<char,std::char_traits<char>,std::allocator<char> >::_Tidy_deallocate
; File D:\Metin2 Server Files\mainline\SRC_2014\Metin2Client\GameLib\MapUtil.cpp

; 201  : 		textLoader.GetTokenString("mainflaretexturefilename", &envData.strMainFlareTextureFileName);

  011ae	68 00 00 00 00	 push	 OFFSET ??_C@_0BJ@EAALILHN@mainflaretexturefilename@
  011b3	8d 8d 60 03 00
	00		 lea	 ecx, DWORD PTR $T83[ebp]
  011b9	e8 00 00 00 00	 call	 ??0?$basic_string@DU?$char_traits@D@std@@V?$allocator@D@2@@std@@QAE@QBD@Z ; std::basic_string<char,std::char_traits<char>,std::allocator<char> >::basic_string<char,std::char_traits<char>,std::allocator<char> >
  011be	c6 45 fc 2a	 mov	 BYTE PTR __$EHRec$[ebp+8], 42 ; 0000002aH
  011c2	8b 85 a0 04 00
	00		 mov	 eax, DWORD PTR _envData$[ebp]
  011c8	05 7c 02 00 00	 add	 eax, 636		; 0000027cH
  011cd	50		 push	 eax
  011ce	8d 85 60 03 00
	00		 lea	 eax, DWORD PTR $T83[ebp]
  011d4	50		 push	 eax
  011d5	8d 8d 14 04 00
	00		 lea	 ecx, DWORD PTR _textLoader$[ebp]
  011db	e8 00 00 00 00	 call	 ?GetTokenString@CTextFileLoader@@QAEHABV?$basic_string@DU?$char_traits@D@std@@V?$allocator@D@2@@std@@PAV23@@Z ; CTextFileLoader::GetTokenString
  011e0	c6 45 fc 00	 mov	 BYTE PTR __$EHRec$[ebp+8], 0
; File C:\Program Files (x86)\Microsoft Visual Studio\2019\Community\VC\Tools\MSVC\14.28.29333\include\xstring

; 2801 :         _Tidy_deallocate();

  011e4	8d 8d 60 03 00
	00		 lea	 ecx, DWORD PTR $T83[ebp]
  011ea	e8 00 00 00 00	 call	 ?_Tidy_deallocate@?$basic_string@DU?$char_traits@D@std@@V?$allocator@D@2@@std@@AAEXXZ ; std::basic_string<char,std::char_traits<char>,std::allocator<char> >::_Tidy_deallocate
; File D:\Metin2 Server Files\mainline\SRC_2014\Metin2Client\GameLib\MapUtil.cpp

; 202  : 		textLoader.GetTokenFloat("mainflaresize", &envData.fMainFlareSize);

  011ef	68 00 00 00 00	 push	 OFFSET ??_C@_0O@JBMODIIN@mainflaresize@
  011f4	8d 8d 48 03 00
	00		 lea	 ecx, DWORD PTR $T82[ebp]
  011fa	e8 00 00 00 00	 call	 ??0?$basic_string@DU?$char_traits@D@std@@V?$allocator@D@2@@std@@QAE@QBD@Z ; std::basic_string<char,std::char_traits<char>,std::allocator<char> >::basic_string<char,std::char_traits<char>,std::allocator<char> >
  011ff	c6 45 fc 2b	 mov	 BYTE PTR __$EHRec$[ebp+8], 43 ; 0000002bH
  01203	8b 85 a0 04 00
	00		 mov	 eax, DWORD PTR _envData$[ebp]
  01209	05 94 02 00 00	 add	 eax, 660		; 00000294H
  0120e	50		 push	 eax
  0120f	8d 85 48 03 00
	00		 lea	 eax, DWORD PTR $T82[ebp]
  01215	50		 push	 eax
  01216	8d 8d 14 04 00
	00		 lea	 ecx, DWORD PTR _textLoader$[ebp]
  0121c	e8 00 00 00 00	 call	 ?GetTokenFloat@CTextFileLoader@@QAEHABV?$basic_string@DU?$char_traits@D@std@@V?$allocator@D@2@@std@@PAM@Z ; CTextFileLoader::GetTokenFloat
  01221	c6 45 fc 00	 mov	 BYTE PTR __$EHRec$[ebp+8], 0
; File C:\Program Files (x86)\Microsoft Visual Studio\2019\Community\VC\Tools\MSVC\14.28.29333\include\xstring

; 2801 :         _Tidy_deallocate();

  01225	8d 8d 48 03 00
	00		 lea	 ecx, DWORD PTR $T82[ebp]
  0122b	e8 00 00 00 00	 call	 ?_Tidy_deallocate@?$basic_string@DU?$char_traits@D@std@@V?$allocator@D@2@@std@@AAEXXZ ; std::basic_string<char,std::char_traits<char>,std::allocator<char> >::_Tidy_deallocate
; File D:\Metin2 Server Files\mainline\SRC_2014\Metin2Client\GameLib\MapUtil.cpp

; 204  : 		textLoader.SetParentNode();

  01230	8d 8d 14 04 00
	00		 lea	 ecx, DWORD PTR _textLoader$[ebp]
  01236	e8 00 00 00 00	 call	 ?SetParentNode@CTextFileLoader@@QAEHXZ ; CTextFileLoader::SetParentNode
$LN18@Environmen:

; 205  : 	}
; 206  : 	return true;

  0123b	c6 45 e2 01	 mov	 BYTE PTR $T41[ebp], 1
  0123f	83 4d fc ff	 or	 DWORD PTR __$EHRec$[ebp+8], -1
  01243	8d 8d 14 04 00
	00		 lea	 ecx, DWORD PTR _textLoader$[ebp]
  01249	e8 00 00 00 00	 call	 ??1CTextFileLoader@@UAE@XZ ; CTextFileLoader::~CTextFileLoader
  0124e	8a 45 e2	 mov	 al, BYTE PTR $T41[ebp]
$LN1@Environmen:

; 207  : }

  01251	8b 4d f4	 mov	 ecx, DWORD PTR __$EHRec$[ebp]
  01254	64 89 0d 00 00
	00 00		 mov	 DWORD PTR fs:0, ecx
  0125b	59		 pop	 ecx
  0125c	5f		 pop	 edi
  0125d	5e		 pop	 esi
  0125e	8b 8d 94 04 00
	00		 mov	 ecx, DWORD PTR __$ArrayPad$[ebp]
  01264	33 cd		 xor	 ecx, ebp
  01266	e8 00 00 00 00	 call	 @__security_check_cookie@4
  0126b	81 c5 98 04 00
	00		 add	 ebp, 1176		; 00000498H
  01271	c9		 leave
  01272	c3		 ret	 0
_TEXT	ENDS
;	COMDAT text$x
text$x	SEGMENT
__unwindfunclet$?Environment_Load@@YA_NAAUSEnvironmentData@@PBD@Z$0:
  00000	8d 8d 14 04 00
	00		 lea	 ecx, DWORD PTR _textLoader$[ebp]
  00006	e9 00 00 00 00	 jmp	 ??1CTextFileLoader@@UAE@XZ ; CTextFileLoader::~CTextFileLoader
__unwindfunclet$?Environment_Load@@YA_NAAUSEnvironmentData@@PBD@Z$1:
  0000b	8d 8d e8 02 00
	00		 lea	 ecx, DWORD PTR $T78[ebp]
  00011	e9 00 00 00 00	 jmp	 ??1?$basic_string@DU?$char_traits@D@std@@V?$allocator@D@2@@std@@QAE@XZ ; std::basic_string<char,std::char_traits<char>,std::allocator<char> >::~basic_string<char,std::char_traits<char>,std::allocator<char> >
__unwindfunclet$?Environment_Load@@YA_NAAUSEnvironmentData@@PBD@Z$2:
  00016	8d 8d d0 02 00
	00		 lea	 ecx, DWORD PTR $T77[ebp]
  0001c	e9 00 00 00 00	 jmp	 ??1?$basic_string@DU?$char_traits@D@std@@V?$allocator@D@2@@std@@QAE@XZ ; std::basic_string<char,std::char_traits<char>,std::allocator<char> >::~basic_string<char,std::char_traits<char>,std::allocator<char> >
__unwindfunclet$?Environment_Load@@YA_NAAUSEnvironmentData@@PBD@Z$3:
  00021	8d 8d b8 02 00
	00		 lea	 ecx, DWORD PTR $T76[ebp]
  00027	e9 00 00 00 00	 jmp	 ??1?$basic_string@DU?$char_traits@D@std@@V?$allocator@D@2@@std@@QAE@XZ ; std::basic_string<char,std::char_traits<char>,std::allocator<char> >::~basic_string<char,std::char_traits<char>,std::allocator<char> >
__unwindfunclet$?Environment_Load@@YA_NAAUSEnvironmentData@@PBD@Z$4:
  0002c	8d 8d 18 03 00
	00		 lea	 ecx, DWORD PTR $T80[ebp]
  00032	e9 00 00 00 00	 jmp	 ??1?$basic_string@DU?$char_traits@D@std@@V?$allocator@D@2@@std@@QAE@XZ ; std::basic_string<char,std::char_traits<char>,std::allocator<char> >::~basic_string<char,std::char_traits<char>,std::allocator<char> >
__unwindfunclet$?Environment_Load@@YA_NAAUSEnvironmentData@@PBD@Z$5:
  00037	8d 8d a0 02 00
	00		 lea	 ecx, DWORD PTR $T75[ebp]
  0003d	e9 00 00 00 00	 jmp	 ??1?$basic_string@DU?$char_traits@D@std@@V?$allocator@D@2@@std@@QAE@XZ ; std::basic_string<char,std::char_traits<char>,std::allocator<char> >::~basic_string<char,std::char_traits<char>,std::allocator<char> >
__unwindfunclet$?Environment_Load@@YA_NAAUSEnvironmentData@@PBD@Z$6:
  00042	8d 8d 88 02 00
	00		 lea	 ecx, DWORD PTR $T74[ebp]
  00048	e9 00 00 00 00	 jmp	 ??1?$basic_string@DU?$char_traits@D@std@@V?$allocator@D@2@@std@@QAE@XZ ; std::basic_string<char,std::char_traits<char>,std::allocator<char> >::~basic_string<char,std::char_traits<char>,std::allocator<char> >
__unwindfunclet$?Environment_Load@@YA_NAAUSEnvironmentData@@PBD@Z$7:
  0004d	8d 8d 70 02 00
	00		 lea	 ecx, DWORD PTR $T73[ebp]
  00053	e9 00 00 00 00	 jmp	 ??1?$basic_string@DU?$char_traits@D@std@@V?$allocator@D@2@@std@@QAE@XZ ; std::basic_string<char,std::char_traits<char>,std::allocator<char> >::~basic_string<char,std::char_traits<char>,std::allocator<char> >
__unwindfunclet$?Environment_Load@@YA_NAAUSEnvironmentData@@PBD@Z$8:
  00058	8d 8d 58 02 00
	00		 lea	 ecx, DWORD PTR $T72[ebp]
  0005e	e9 00 00 00 00	 jmp	 ??1?$basic_string@DU?$char_traits@D@std@@V?$allocator@D@2@@std@@QAE@XZ ; std::basic_string<char,std::char_traits<char>,std::allocator<char> >::~basic_string<char,std::char_traits<char>,std::allocator<char> >
__unwindfunclet$?Environment_Load@@YA_NAAUSEnvironmentData@@PBD@Z$9:
  00063	8d 8d 40 02 00
	00		 lea	 ecx, DWORD PTR $T71[ebp]
  00069	e9 00 00 00 00	 jmp	 ??1?$basic_string@DU?$char_traits@D@std@@V?$allocator@D@2@@std@@QAE@XZ ; std::basic_string<char,std::char_traits<char>,std::allocator<char> >::~basic_string<char,std::char_traits<char>,std::allocator<char> >
__unwindfunclet$?Environment_Load@@YA_NAAUSEnvironmentData@@PBD@Z$10:
  0006e	8d 8d 28 02 00
	00		 lea	 ecx, DWORD PTR $T70[ebp]
  00074	e9 00 00 00 00	 jmp	 ??1?$basic_string@DU?$char_traits@D@std@@V?$allocator@D@2@@std@@QAE@XZ ; std::basic_string<char,std::char_traits<char>,std::allocator<char> >::~basic_string<char,std::char_traits<char>,std::allocator<char> >
__unwindfunclet$?Environment_Load@@YA_NAAUSEnvironmentData@@PBD@Z$11:
  00079	8d 8d 10 02 00
	00		 lea	 ecx, DWORD PTR $T69[ebp]
  0007f	e9 00 00 00 00	 jmp	 ??1?$basic_string@DU?$char_traits@D@std@@V?$allocator@D@2@@std@@QAE@XZ ; std::basic_string<char,std::char_traits<char>,std::allocator<char> >::~basic_string<char,std::char_traits<char>,std::allocator<char> >
__unwindfunclet$?Environment_Load@@YA_NAAUSEnvironmentData@@PBD@Z$12:
  00084	8d 8d f8 01 00
	00		 lea	 ecx, DWORD PTR $T68[ebp]
  0008a	e9 00 00 00 00	 jmp	 ??1?$basic_string@DU?$char_traits@D@std@@V?$allocator@D@2@@std@@QAE@XZ ; std::basic_string<char,std::char_traits<char>,std::allocator<char> >::~basic_string<char,std::char_traits<char>,std::allocator<char> >
__unwindfunclet$?Environment_Load@@YA_NAAUSEnvironmentData@@PBD@Z$13:
  0008f	8d 8d e0 01 00
	00		 lea	 ecx, DWORD PTR $T67[ebp]
  00095	e9 00 00 00 00	 jmp	 ??1?$basic_string@DU?$char_traits@D@std@@V?$allocator@D@2@@std@@QAE@XZ ; std::basic_string<char,std::char_traits<char>,std::allocator<char> >::~basic_string<char,std::char_traits<char>,std::allocator<char> >
__unwindfunclet$?Environment_Load@@YA_NAAUSEnvironmentData@@PBD@Z$14:
  0009a	8d 8d c8 01 00
	00		 lea	 ecx, DWORD PTR $T66[ebp]
  000a0	e9 00 00 00 00	 jmp	 ??1?$basic_string@DU?$char_traits@D@std@@V?$allocator@D@2@@std@@QAE@XZ ; std::basic_string<char,std::char_traits<char>,std::allocator<char> >::~basic_string<char,std::char_traits<char>,std::allocator<char> >
__unwindfunclet$?Environment_Load@@YA_NAAUSEnvironmentData@@PBD@Z$15:
  000a5	8d 8d b0 01 00
	00		 lea	 ecx, DWORD PTR $T65[ebp]
  000ab	e9 00 00 00 00	 jmp	 ??1?$basic_string@DU?$char_traits@D@std@@V?$allocator@D@2@@std@@QAE@XZ ; std::basic_string<char,std::char_traits<char>,std::allocator<char> >::~basic_string<char,std::char_traits<char>,std::allocator<char> >
__unwindfunclet$?Environment_Load@@YA_NAAUSEnvironmentData@@PBD@Z$16:
  000b0	8d 8d 78 03 00
	00		 lea	 ecx, DWORD PTR $T84[ebp]
  000b6	e9 00 00 00 00	 jmp	 ??1?$basic_string@DU?$char_traits@D@std@@V?$allocator@D@2@@std@@QAE@XZ ; std::basic_string<char,std::char_traits<char>,std::allocator<char> >::~basic_string<char,std::char_traits<char>,std::allocator<char> >
__unwindfunclet$?Environment_Load@@YA_NAAUSEnvironmentData@@PBD@Z$17:
  000bb	8d 8d 80 01 00
	00		 lea	 ecx, DWORD PTR $T63[ebp]
  000c1	e9 00 00 00 00	 jmp	 ??1?$basic_string@DU?$char_traits@D@std@@V?$allocator@D@2@@std@@QAE@XZ ; std::basic_string<char,std::char_traits<char>,std::allocator<char> >::~basic_string<char,std::char_traits<char>,std::allocator<char> >
__unwindfunclet$?Environment_Load@@YA_NAAUSEnvironmentData@@PBD@Z$18:
  000c6	8d 8d 00 03 00
	00		 lea	 ecx, DWORD PTR $T79[ebp]
  000cc	e9 00 00 00 00	 jmp	 ??1?$basic_string@DU?$char_traits@D@std@@V?$allocator@D@2@@std@@QAE@XZ ; std::basic_string<char,std::char_traits<char>,std::allocator<char> >::~basic_string<char,std::char_traits<char>,std::allocator<char> >
__unwindfunclet$?Environment_Load@@YA_NAAUSEnvironmentData@@PBD@Z$19:
  000d1	8d 8d 68 01 00
	00		 lea	 ecx, DWORD PTR $T62[ebp]
  000d7	e9 00 00 00 00	 jmp	 ??1?$basic_string@DU?$char_traits@D@std@@V?$allocator@D@2@@std@@QAE@XZ ; std::basic_string<char,std::char_traits<char>,std::allocator<char> >::~basic_string<char,std::char_traits<char>,std::allocator<char> >
__unwindfunclet$?Environment_Load@@YA_NAAUSEnvironmentData@@PBD@Z$20:
  000dc	8d 8d 50 01 00
	00		 lea	 ecx, DWORD PTR $T61[ebp]
  000e2	e9 00 00 00 00	 jmp	 ??1?$basic_string@DU?$char_traits@D@std@@V?$allocator@D@2@@std@@QAE@XZ ; std::basic_string<char,std::char_traits<char>,std::allocator<char> >::~basic_string<char,std::char_traits<char>,std::allocator<char> >
__unwindfunclet$?Environment_Load@@YA_NAAUSEnvironmentData@@PBD@Z$21:
  000e7	8d 8d 38 01 00
	00		 lea	 ecx, DWORD PTR $T60[ebp]
  000ed	e9 00 00 00 00	 jmp	 ??1?$basic_string@DU?$char_traits@D@std@@V?$allocator@D@2@@std@@QAE@XZ ; std::basic_string<char,std::char_traits<char>,std::allocator<char> >::~basic_string<char,std::char_traits<char>,std::allocator<char> >
__unwindfunclet$?Environment_Load@@YA_NAAUSEnvironmentData@@PBD@Z$22:
  000f2	8d 8d 20 01 00
	00		 lea	 ecx, DWORD PTR $T59[ebp]
  000f8	e9 00 00 00 00	 jmp	 ??1?$basic_string@DU?$char_traits@D@std@@V?$allocator@D@2@@std@@QAE@XZ ; std::basic_string<char,std::char_traits<char>,std::allocator<char> >::~basic_string<char,std::char_traits<char>,std::allocator<char> >
__unwindfunclet$?Environment_Load@@YA_NAAUSEnvironmentData@@PBD@Z$23:
  000fd	8d 8d 08 01 00
	00		 lea	 ecx, DWORD PTR $T58[ebp]
  00103	e9 00 00 00 00	 jmp	 ??1?$basic_string@DU?$char_traits@D@std@@V?$allocator@D@2@@std@@QAE@XZ ; std::basic_string<char,std::char_traits<char>,std::allocator<char> >::~basic_string<char,std::char_traits<char>,std::allocator<char> >
__unwindfunclet$?Environment_Load@@YA_NAAUSEnvironmentData@@PBD@Z$24:
  00108	8d 8d f0 00 00
	00		 lea	 ecx, DWORD PTR $T57[ebp]
  0010e	e9 00 00 00 00	 jmp	 ??1?$basic_string@DU?$char_traits@D@std@@V?$allocator@D@2@@std@@QAE@XZ ; std::basic_string<char,std::char_traits<char>,std::allocator<char> >::~basic_string<char,std::char_traits<char>,std::allocator<char> >
__unwindfunclet$?Environment_Load@@YA_NAAUSEnvironmentData@@PBD@Z$25:
  00113	8d 8d d8 00 00
	00		 lea	 ecx, DWORD PTR $T56[ebp]
  00119	e9 00 00 00 00	 jmp	 ??1?$basic_string@DU?$char_traits@D@std@@V?$allocator@D@2@@std@@QAE@XZ ; std::basic_string<char,std::char_traits<char>,std::allocator<char> >::~basic_string<char,std::char_traits<char>,std::allocator<char> >
__unwindfunclet$?Environment_Load@@YA_NAAUSEnvironmentData@@PBD@Z$26:
  0011e	8d 8d c0 00 00
	00		 lea	 ecx, DWORD PTR $T55[ebp]
  00124	e9 00 00 00 00	 jmp	 ??1?$basic_string@DU?$char_traits@D@std@@V?$allocator@D@2@@std@@QAE@XZ ; std::basic_string<char,std::char_traits<char>,std::allocator<char> >::~basic_string<char,std::char_traits<char>,std::allocator<char> >
__unwindfunclet$?Environment_Load@@YA_NAAUSEnvironmentData@@PBD@Z$27:
  00129	8d 8d a8 00 00
	00		 lea	 ecx, DWORD PTR $T54[ebp]
  0012f	e9 00 00 00 00	 jmp	 ??1?$basic_string@DU?$char_traits@D@std@@V?$allocator@D@2@@std@@QAE@XZ ; std::basic_string<char,std::char_traits<char>,std::allocator<char> >::~basic_string<char,std::char_traits<char>,std::allocator<char> >
__unwindfunclet$?Environment_Load@@YA_NAAUSEnvironmentData@@PBD@Z$28:
  00134	8d 8d 90 00 00
	00		 lea	 ecx, DWORD PTR $T53[ebp]
  0013a	e9 00 00 00 00	 jmp	 ??1?$basic_string@DU?$char_traits@D@std@@V?$allocator@D@2@@std@@QAE@XZ ; std::basic_string<char,std::char_traits<char>,std::allocator<char> >::~basic_string<char,std::char_traits<char>,std::allocator<char> >
__unwindfunclet$?Environment_Load@@YA_NAAUSEnvironmentData@@PBD@Z$29:
  0013f	8d 4d 78	 lea	 ecx, DWORD PTR $T52[ebp]
  00142	e9 00 00 00 00	 jmp	 ??1?$basic_string@DU?$char_traits@D@std@@V?$allocator@D@2@@std@@QAE@XZ ; std::basic_string<char,std::char_traits<char>,std::allocator<char> >::~basic_string<char,std::char_traits<char>,std::allocator<char> >
__unwindfunclet$?Environment_Load@@YA_NAAUSEnvironmentData@@PBD@Z$30:
  00147	8d 4d 60	 lea	 ecx, DWORD PTR $T51[ebp]
  0014a	e9 00 00 00 00	 jmp	 ??1?$basic_string@DU?$char_traits@D@std@@V?$allocator@D@2@@std@@QAE@XZ ; std::basic_string<char,std::char_traits<char>,std::allocator<char> >::~basic_string<char,std::char_traits<char>,std::allocator<char> >
__unwindfunclet$?Environment_Load@@YA_NAAUSEnvironmentData@@PBD@Z$31:
  0014f	8d 8d 30 03 00
	00		 lea	 ecx, DWORD PTR $T81[ebp]
  00155	e9 00 00 00 00	 jmp	 ??1?$basic_string@DU?$char_traits@D@std@@V?$allocator@D@2@@std@@QAE@XZ ; std::basic_string<char,std::char_traits<char>,std::allocator<char> >::~basic_string<char,std::char_traits<char>,std::allocator<char> >
__unwindfunclet$?Environment_Load@@YA_NAAUSEnvironmentData@@PBD@Z$32:
  0015a	8d 4d 48	 lea	 ecx, DWORD PTR $T50[ebp]
  0015d	e9 00 00 00 00	 jmp	 ??1?$basic_string@DU?$char_traits@D@std@@V?$allocator@D@2@@std@@QAE@XZ ; std::basic_string<char,std::char_traits<char>,std::allocator<char> >::~basic_string<char,std::char_traits<char>,std::allocator<char> >
__unwindfunclet$?Environment_Load@@YA_NAAUSEnvironmentData@@PBD@Z$33:
  00162	8d 4d 30	 lea	 ecx, DWORD PTR $T49[ebp]
  00165	e9 00 00 00 00	 jmp	 ??1?$basic_string@DU?$char_traits@D@std@@V?$allocator@D@2@@std@@QAE@XZ ; std::basic_string<char,std::char_traits<char>,std::allocator<char> >::~basic_string<char,std::char_traits<char>,std::allocator<char> >
__unwindfunclet$?Environment_Load@@YA_NAAUSEnvironmentData@@PBD@Z$34:
  0016a	8d 4d 18	 lea	 ecx, DWORD PTR $T48[ebp]
  0016d	e9 00 00 00 00	 jmp	 ??1?$basic_string@DU?$char_traits@D@std@@V?$allocator@D@2@@std@@QAE@XZ ; std::basic_string<char,std::char_traits<char>,std::allocator<char> >::~basic_string<char,std::char_traits<char>,std::allocator<char> >
__unwindfunclet$?Environment_Load@@YA_NAAUSEnvironmentData@@PBD@Z$35:
  00172	8d 4d 00	 lea	 ecx, DWORD PTR $T47[ebp]
  00175	e9 00 00 00 00	 jmp	 ??1?$basic_string@DU?$char_traits@D@std@@V?$allocator@D@2@@std@@QAE@XZ ; std::basic_string<char,std::char_traits<char>,std::allocator<char> >::~basic_string<char,std::char_traits<char>,std::allocator<char> >
__unwindfunclet$?Environment_Load@@YA_NAAUSEnvironmentData@@PBD@Z$36:
  0017a	8d 8d f0 03 00
	00		 lea	 ecx, DWORD PTR $T89[ebp]
  00180	e9 00 00 00 00	 jmp	 ??1?$basic_string@DU?$char_traits@D@std@@V?$allocator@D@2@@std@@QAE@XZ ; std::basic_string<char,std::char_traits<char>,std::allocator<char> >::~basic_string<char,std::char_traits<char>,std::allocator<char> >
__unwindfunclet$?Environment_Load@@YA_NAAUSEnvironmentData@@PBD@Z$37:
  00185	8d 8d d8 03 00
	00		 lea	 ecx, DWORD PTR $T88[ebp]
  0018b	e9 00 00 00 00	 jmp	 ??1?$basic_string@DU?$char_traits@D@std@@V?$allocator@D@2@@std@@QAE@XZ ; std::basic_string<char,std::char_traits<char>,std::allocator<char> >::~basic_string<char,std::char_traits<char>,std::allocator<char> >
__unwindfunclet$?Environment_Load@@YA_NAAUSEnvironmentData@@PBD@Z$38:
  00190	8d 8d 98 01 00
	00		 lea	 ecx, DWORD PTR $T64[ebp]
  00196	e9 00 00 00 00	 jmp	 ??1?$basic_string@DU?$char_traits@D@std@@V?$allocator@D@2@@std@@QAE@XZ ; std::basic_string<char,std::char_traits<char>,std::allocator<char> >::~basic_string<char,std::char_traits<char>,std::allocator<char> >
__unwindfunclet$?Environment_Load@@YA_NAAUSEnvironmentData@@PBD@Z$39:
  0019b	8d 8d c0 03 00
	00		 lea	 ecx, DWORD PTR $T87[ebp]
  001a1	e9 00 00 00 00	 jmp	 ??1?$basic_string@DU?$char_traits@D@std@@V?$allocator@D@2@@std@@QAE@XZ ; std::basic_string<char,std::char_traits<char>,std::allocator<char> >::~basic_string<char,std::char_traits<char>,std::allocator<char> >
__unwindfunclet$?Environment_Load@@YA_NAAUSEnvironmentData@@PBD@Z$40:
  001a6	8d 8d a8 03 00
	00		 lea	 ecx, DWORD PTR $T86[ebp]
  001ac	e9 00 00 00 00	 jmp	 ??1?$basic_string@DU?$char_traits@D@std@@V?$allocator@D@2@@std@@QAE@XZ ; std::basic_string<char,std::char_traits<char>,std::allocator<char> >::~basic_string<char,std::char_traits<char>,std::allocator<char> >
__unwindfunclet$?Environment_Load@@YA_NAAUSEnvironmentData@@PBD@Z$41:
  001b1	8d 8d 90 03 00
	00		 lea	 ecx, DWORD PTR $T85[ebp]
  001b7	e9 00 00 00 00	 jmp	 ??1?$basic_string@DU?$char_traits@D@std@@V?$allocator@D@2@@std@@QAE@XZ ; std::basic_string<char,std::char_traits<char>,std::allocator<char> >::~basic_string<char,std::char_traits<char>,std::allocator<char> >
__unwindfunclet$?Environment_Load@@YA_NAAUSEnvironmentData@@PBD@Z$42:
  001bc	8d 8d 60 03 00
	00		 lea	 ecx, DWORD PTR $T83[ebp]
  001c2	e9 00 00 00 00	 jmp	 ??1?$basic_string@DU?$char_traits@D@std@@V?$allocator@D@2@@std@@QAE@XZ ; std::basic_string<char,std::char_traits<char>,std::allocator<char> >::~basic_string<char,std::char_traits<char>,std::allocator<char> >
__unwindfunclet$?Environment_Load@@YA_NAAUSEnvironmentData@@PBD@Z$43:
  001c7	8d 8d 48 03 00
	00		 lea	 ecx, DWORD PTR $T82[ebp]
  001cd	e9 00 00 00 00	 jmp	 ??1?$basic_string@DU?$char_traits@D@std@@V?$allocator@D@2@@std@@QAE@XZ ; std::basic_string<char,std::char_traits<char>,std::allocator<char> >::~basic_string<char,std::char_traits<char>,std::allocator<char> >
  001d2	cc		 int	 3
  001d3	cc		 int	 3
  001d4	cc		 int	 3
  001d5	cc		 int	 3
  001d6	cc		 int	 3
__ehhandler$?Environment_Load@@YA_NAAUSEnvironmentData@@PBD@Z:
  001d7	90		 npad	 1
  001d8	90		 npad	 1
  001d9	8b 54 24 08	 mov	 edx, DWORD PTR [esp+8]
  001dd	8d 42 0c	 lea	 eax, DWORD PTR [edx+12]
  001e0	8b 8a 04 ff ff
	ff		 mov	 ecx, DWORD PTR [edx-252]
  001e6	33 c8		 xor	 ecx, eax
  001e8	e8 00 00 00 00	 call	 @__security_check_cookie@4
  001ed	8b 8a a0 04 00
	00		 mov	 ecx, DWORD PTR [edx+1184]
  001f3	33 c8		 xor	 ecx, eax
  001f5	e8 00 00 00 00	 call	 @__security_check_cookie@4
  001fa	b8 00 00 00 00	 mov	 eax, OFFSET __ehfuncinfo$?Environment_Load@@YA_NAAUSEnvironmentData@@PBD@Z
  001ff	e9 00 00 00 00	 jmp	 ___CxxFrameHandler3
text$x	ENDS
?Environment_Load@@YA_NAAUSEnvironmentData@@PBD@Z ENDP	; Environment_Load
; Function compile flags: /Odspy
; File D:\Metin2 Server Files\mainline\SRC_2014\Metin2Client\GameLib\MapUtil.cpp
; File D:\Metin2 Server Files\mainline\SRC_2014\M2Data\include\d3dx8math.inl
; File D:\Metin2 Server Files\mainline\SRC_2014\Metin2Client\GameLib\MapUtil.cpp
; File D:\Metin2 Server Files\mainline\SRC_2014\M2Data\include\d3dx8math.inl
; File D:\Metin2 Server Files\mainline\SRC_2014\Metin2Client\GameLib\MapUtil.cpp
; File D:\Metin2 Server Files\mainline\SRC_2014\M2Data\include\d3dx8math.inl
; File D:\Metin2 Server Files\mainline\SRC_2014\Metin2Client\GameLib\MapUtil.cpp
; File D:\Metin2 Server Files\mainline\SRC_2014\M2Data\include\d3dx8math.inl
; File D:\Metin2 Server Files\mainline\SRC_2014\Metin2Client\GameLib\MapUtil.cpp
; File D:\Metin2 Server Files\mainline\SRC_2014\M2Data\include\d3dx8math.inl
; File D:\Metin2 Server Files\mainline\SRC_2014\Metin2Client\GameLib\MapUtil.cpp
; File D:\Metin2 Server Files\mainline\SRC_2014\M2Data\include\d3dx8math.inl
; File D:\Metin2 Server Files\mainline\SRC_2014\Metin2Client\GameLib\MapUtil.cpp
; File D:\Metin2 Server Files\mainline\SRC_2014\M2Data\include\d3dx8math.inl
; File D:\Metin2 Server Files\mainline\SRC_2014\Metin2Client\GameLib\MapUtil.cpp
; File D:\Metin2 Server Files\mainline\SRC_2014\M2Data\include\d3dx8math.inl
; File D:\Metin2 Server Files\mainline\SRC_2014\Metin2Client\GameLib\MapUtil.cpp
; File D:\Metin2 Server Files\mainline\SRC_2014\M2Data\include\d3dx8math.inl
; File D:\Metin2 Server Files\mainline\SRC_2014\Metin2Client\GameLib\MapUtil.cpp
; File D:\Metin2 Server Files\mainline\SRC_2014\M2Data\include\d3dx8math.inl
; File D:\Metin2 Server Files\mainline\SRC_2014\Metin2Client\GameLib\MapUtil.cpp
; File D:\Metin2 Server Files\mainline\SRC_2014\M2Data\include\d3dx8math.inl
; File D:\Metin2 Server Files\mainline\SRC_2014\Metin2Client\GameLib\MapUtil.cpp
; File D:\Metin2 Server Files\mainline\SRC_2014\M2Data\include\d3dx8math.inl
; File D:\Metin2 Server Files\mainline\SRC_2014\Metin2Client\GameLib\MapUtil.cpp
; File D:\Metin2 Server Files\mainline\SRC_2014\M2Data\include\d3dx8math.inl
; File D:\Metin2 Server Files\mainline\SRC_2014\Metin2Client\GameLib\MapUtil.cpp
; File D:\Metin2 Server Files\mainline\SRC_2014\M2Data\include\d3dx8math.inl
; File D:\Metin2 Server Files\mainline\SRC_2014\Metin2Client\GameLib\MapUtil.cpp
; File D:\Metin2 Server Files\mainline\SRC_2014\M2Data\include\d3dx8math.inl
; File D:\Metin2 Server Files\mainline\SRC_2014\Metin2Client\GameLib\MapUtil.cpp
; File C:\Program Files (x86)\Microsoft Visual Studio\2019\Community\VC\Tools\MSVC\14.28.29333\include\xstring
; File C:\Program Files (x86)\Microsoft Visual Studio\2019\Community\VC\Tools\MSVC\14.28.29333\include\xmemory
; File C:\Program Files (x86)\Microsoft Visual Studio\2019\Community\VC\Tools\MSVC\14.28.29333\include\xstring
; File D:\Metin2 Server Files\mainline\SRC_2014\Metin2Client\GameLib\MapUtil.cpp
; File C:\Program Files (x86)\Microsoft Visual Studio\2019\Community\VC\Tools\MSVC\14.28.29333\include\xstring
; File D:\Metin2 Server Files\mainline\SRC_2014\Metin2Client\eterLib\SkyBox.h
; File D:\Metin2 Server Files\mainline\SRC_2014\Metin2Client\GameLib\MapUtil.cpp
; File D:\Metin2 Server Files\mainline\SRC_2014\Metin2Client\eterLib\SkyBox.h
; File D:\Metin2 Server Files\mainline\SRC_2014\Metin2Client\GameLib\MapUtil.cpp
; File D:\Metin2 Server Files\mainline\SRC_2014\M2Data\include\d3dx8math.inl
; File D:\Metin2 Server Files\mainline\SRC_2014\Metin2Client\GameLib\MapUtil.cpp
; File C:\Program Files (x86)\Microsoft Visual Studio\2019\Community\VC\Tools\MSVC\14.28.29333\include\xstring
; File C:\Program Files (x86)\Microsoft Visual Studio\2019\Community\VC\Tools\MSVC\14.28.29333\include\xmemory
; File C:\Program Files (x86)\Microsoft Visual Studio\2019\Community\VC\Tools\MSVC\14.28.29333\include\xstring
; File D:\Metin2 Server Files\mainline\SRC_2014\Metin2Client\GameLib\MapUtil.cpp
; File C:\Program Files (x86)\Microsoft Visual Studio\2019\Community\VC\Tools\MSVC\14.28.29333\include\xstring
; File D:\Metin2 Server Files\mainline\SRC_2014\Metin2Client\GameLib\MapUtil.cpp
;	COMDAT ?Environment_Init@@YAXAAUSEnvironmentData@@@Z
_TEXT	SEGMENT
$T1 = -160						; size = 16
$T2 = -144						; size = 16
$T3 = -128						; size = 16
$T4 = -112						; size = 16
$T5 = -96						; size = 16
$T6 = -80						; size = 16
$T7 = -64						; size = 16
$T8 = -48						; size = 16
$T9 = -32						; size = 16
$T10 = -16						; size = 16
$T11 = 0						; size = 16
$T12 = 16						; size = 16
$T13 = 32						; size = 8
$T14 = 40						; size = 8
$T15 = 48						; size = 8
$T16 = 56						; size = 4
$T17 = 60						; size = 4
$T18 = 64						; size = 4
$T19 = 68						; size = 4
_i$20 = 72						; size = 4
$T21 = 76						; size = 12
$T22 = 88						; size = 12
$T23 = 100						; size = 12
__$ArrayPad$ = 112					; size = 4
_envData$ = 124						; size = 4
?Environment_Init@@YAXAAUSEnvironmentData@@@Z PROC	; Environment_Init, COMDAT

; 5    : {

  00000	55		 push	 ebp
  00001	8d 6c 24 8c	 lea	 ebp, DWORD PTR [esp-116]
  00005	81 ec 14 01 00
	00		 sub	 esp, 276		; 00000114H
  0000b	a1 00 00 00 00	 mov	 eax, DWORD PTR ___security_cookie
  00010	33 c5		 xor	 eax, ebp
  00012	89 45 70	 mov	 DWORD PTR __$ArrayPad$[ebp], eax
  00015	56		 push	 esi
  00016	57		 push	 edi

; 6    : 	for (int i = 0; i < ENV_DIRLIGHT_NUM; ++i)

  00017	83 65 48 00	 and	 DWORD PTR _i$20[ebp], 0
  0001b	eb 07		 jmp	 SHORT $LN4@Environmen
$LN2@Environmen:
  0001d	8b 45 48	 mov	 eax, DWORD PTR _i$20[ebp]
  00020	40		 inc	 eax
  00021	89 45 48	 mov	 DWORD PTR _i$20[ebp], eax
$LN4@Environmen:
  00024	83 7d 48 02	 cmp	 DWORD PTR _i$20[ebp], 2
  00028	0f 8d cb 01 00
	00		 jge	 $LN3@Environmen

; 7    : 	{
; 8    : 		envData.bDirLightsEnable[i] = false;

  0002e	8b 45 48	 mov	 eax, DWORD PTR _i$20[ebp]
  00031	8b 4d 7c	 mov	 ecx, DWORD PTR _envData$[ebp]
  00034	83 24 81 00	 and	 DWORD PTR [ecx+eax*4], 0

; 9    : 		envData.DirLights[i].Type = D3DLIGHT_DIRECTIONAL;

  00038	6b 45 48 68	 imul	 eax, DWORD PTR _i$20[ebp], 104
  0003c	8b 4d 7c	 mov	 ecx, DWORD PTR _envData$[ebp]
  0003f	c7 44 01 08 03
	00 00 00	 mov	 DWORD PTR [ecx+eax+8], 3
; File D:\Metin2 Server Files\mainline\SRC_2014\M2Data\include\d3dx8math.inl

; 180  :     x = fx;

  00047	f3 0f 10 05 00
	00 00 00	 movss	 xmm0, DWORD PTR __real@3f000000
  0004f	f3 0f 11 45 64	 movss	 DWORD PTR $T23[ebp], xmm0

; 181  :     y = fy;

  00054	f3 0f 10 05 00
	00 00 00	 movss	 xmm0, DWORD PTR __real@3f000000
  0005c	f3 0f 11 45 68	 movss	 DWORD PTR $T23[ebp+4], xmm0

; 182  :     z = fz;

  00061	f3 0f 10 05 00
	00 00 00	 movss	 xmm0, DWORD PTR __real@bf000000
  00069	f3 0f 11 45 6c	 movss	 DWORD PTR $T23[ebp+8], xmm0
; File D:\Metin2 Server Files\mainline\SRC_2014\Metin2Client\GameLib\MapUtil.cpp

; 10   : 		envData.DirLights[i].Direction = D3DXVECTOR3(0.5f, 0.5f, -0.5f);

  0006e	6b 45 48 68	 imul	 eax, DWORD PTR _i$20[ebp], 104
  00072	8b 4d 7c	 mov	 ecx, DWORD PTR _envData$[ebp]
  00075	8d 7c 01 48	 lea	 edi, DWORD PTR [ecx+eax+72]
  00079	8d 75 64	 lea	 esi, DWORD PTR $T23[ebp]
  0007c	a5		 movsd
  0007d	a5		 movsd
  0007e	a5		 movsd
; File D:\Metin2 Server Files\mainline\SRC_2014\M2Data\include\d3dx8math.inl

; 180  :     x = fx;

  0007f	0f 57 c0	 xorps	 xmm0, xmm0
  00082	f3 0f 11 45 58	 movss	 DWORD PTR $T22[ebp], xmm0

; 181  :     y = fy;

  00087	0f 57 c0	 xorps	 xmm0, xmm0
  0008a	f3 0f 11 45 5c	 movss	 DWORD PTR $T22[ebp+4], xmm0

; 182  :     z = fz;

  0008f	0f 57 c0	 xorps	 xmm0, xmm0
  00092	f3 0f 11 45 60	 movss	 DWORD PTR $T22[ebp+8], xmm0
; File D:\Metin2 Server Files\mainline\SRC_2014\Metin2Client\GameLib\MapUtil.cpp

; 11   : 		envData.DirLights[i].Position = D3DXVECTOR3(0.0f, 0.0f, 0.0f);

  00097	6b 45 48 68	 imul	 eax, DWORD PTR _i$20[ebp], 104
  0009b	8b 4d 7c	 mov	 ecx, DWORD PTR _envData$[ebp]
  0009e	8d 7c 01 3c	 lea	 edi, DWORD PTR [ecx+eax+60]
  000a2	8d 75 58	 lea	 esi, DWORD PTR $T22[ebp]
  000a5	a5		 movsd
  000a6	a5		 movsd
  000a7	a5		 movsd
; File D:\Metin2 Server Files\mainline\SRC_2014\M2Data\include\d3dx8math.inl

; 920  :     r = fr;

  000a8	f3 0f 10 05 00
	00 00 00	 movss	 xmm0, DWORD PTR __real@3f800000
  000b0	f3 0f 11 45 10	 movss	 DWORD PTR $T12[ebp], xmm0

; 921  :     g = fg;

  000b5	f3 0f 10 05 00
	00 00 00	 movss	 xmm0, DWORD PTR __real@3f800000
  000bd	f3 0f 11 45 14	 movss	 DWORD PTR $T12[ebp+4], xmm0

; 922  :     b = fb;

  000c2	f3 0f 10 05 00
	00 00 00	 movss	 xmm0, DWORD PTR __real@3f800000
  000ca	f3 0f 11 45 18	 movss	 DWORD PTR $T12[ebp+8], xmm0

; 923  :     a = fa;

  000cf	f3 0f 10 05 00
	00 00 00	 movss	 xmm0, DWORD PTR __real@3f800000
  000d7	f3 0f 11 45 1c	 movss	 DWORD PTR $T12[ebp+12], xmm0

; 969  :     return *((D3DCOLORVALUE *) &r);

  000dc	8d 75 10	 lea	 esi, DWORD PTR $T12[ebp]
; File D:\Metin2 Server Files\mainline\SRC_2014\Metin2Client\GameLib\MapUtil.cpp

; 12   : 		envData.DirLights[i].Specular = D3DXCOLOR(1.0f, 1.0f, 1.0f, 1.0f);

  000df	6b 45 48 68	 imul	 eax, DWORD PTR _i$20[ebp], 104
  000e3	8b 4d 7c	 mov	 ecx, DWORD PTR _envData$[ebp]
  000e6	8d 7c 01 1c	 lea	 edi, DWORD PTR [ecx+eax+28]
  000ea	a5		 movsd
  000eb	a5		 movsd
  000ec	a5		 movsd
  000ed	a5		 movsd
; File D:\Metin2 Server Files\mainline\SRC_2014\M2Data\include\d3dx8math.inl

; 920  :     r = fr;

  000ee	f3 0f 10 05 00
	00 00 00	 movss	 xmm0, DWORD PTR __real@3f800000
  000f6	f3 0f 11 45 00	 movss	 DWORD PTR $T11[ebp], xmm0

; 921  :     g = fg;

  000fb	f3 0f 10 05 00
	00 00 00	 movss	 xmm0, DWORD PTR __real@3f800000
  00103	f3 0f 11 45 04	 movss	 DWORD PTR $T11[ebp+4], xmm0

; 922  :     b = fb;

  00108	f3 0f 10 05 00
	00 00 00	 movss	 xmm0, DWORD PTR __real@3f800000
  00110	f3 0f 11 45 08	 movss	 DWORD PTR $T11[ebp+8], xmm0

; 923  :     a = fa;

  00115	f3 0f 10 05 00
	00 00 00	 movss	 xmm0, DWORD PTR __real@3f800000
  0011d	f3 0f 11 45 0c	 movss	 DWORD PTR $T11[ebp+12], xmm0

; 969  :     return *((D3DCOLORVALUE *) &r);

  00122	8d 75 00	 lea	 esi, DWORD PTR $T11[ebp]
; File D:\Metin2 Server Files\mainline\SRC_2014\Metin2Client\GameLib\MapUtil.cpp

; 13   : 		envData.DirLights[i].Diffuse = D3DXCOLOR(1.0f, 1.0f, 1.0f, 1.0f);

  00125	6b 45 48 68	 imul	 eax, DWORD PTR _i$20[ebp], 104
  00129	8b 4d 7c	 mov	 ecx, DWORD PTR _envData$[ebp]
  0012c	8d 7c 01 0c	 lea	 edi, DWORD PTR [ecx+eax+12]
  00130	a5		 movsd
  00131	a5		 movsd
  00132	a5		 movsd
  00133	a5		 movsd
; File D:\Metin2 Server Files\mainline\SRC_2014\M2Data\include\d3dx8math.inl

; 920  :     r = fr;

  00134	f3 0f 10 05 00
	00 00 00	 movss	 xmm0, DWORD PTR __real@3f000000
  0013c	f3 0f 11 45 f0	 movss	 DWORD PTR $T10[ebp], xmm0

; 921  :     g = fg;

  00141	f3 0f 10 05 00
	00 00 00	 movss	 xmm0, DWORD PTR __real@3f000000
  00149	f3 0f 11 45 f4	 movss	 DWORD PTR $T10[ebp+4], xmm0

; 922  :     b = fb;

  0014e	f3 0f 10 05 00
	00 00 00	 movss	 xmm0, DWORD PTR __real@3f000000
  00156	f3 0f 11 45 f8	 movss	 DWORD PTR $T10[ebp+8], xmm0

; 923  :     a = fa;

  0015b	f3 0f 10 05 00
	00 00 00	 movss	 xmm0, DWORD PTR __real@3f800000
  00163	f3 0f 11 45 fc	 movss	 DWORD PTR $T10[ebp+12], xmm0

; 969  :     return *((D3DCOLORVALUE *) &r);

  00168	8d 75 f0	 lea	 esi, DWORD PTR $T10[ebp]
; File D:\Metin2 Server Files\mainline\SRC_2014\Metin2Client\GameLib\MapUtil.cpp

; 14   : 		envData.DirLights[i].Ambient = D3DXCOLOR(0.5f, 0.5f, 0.5f, 1.0f);

  0016b	6b 45 48 68	 imul	 eax, DWORD PTR _i$20[ebp], 104
  0016f	8b 4d 7c	 mov	 ecx, DWORD PTR _envData$[ebp]
  00172	8d 7c 01 2c	 lea	 edi, DWORD PTR [ecx+eax+44]
  00176	a5		 movsd
  00177	a5		 movsd
  00178	a5		 movsd
  00179	a5		 movsd

; 15   : 		envData.DirLights[i].Range = 0.0f; // Used by Point Light & Spot Light

  0017a	6b 45 48 68	 imul	 eax, DWORD PTR _i$20[ebp], 104
  0017e	8b 4d 7c	 mov	 ecx, DWORD PTR _envData$[ebp]
  00181	0f 57 c0	 xorps	 xmm0, xmm0
  00184	f3 0f 11 44 01
	54		 movss	 DWORD PTR [ecx+eax+84], xmm0

; 16   : 		envData.DirLights[i].Falloff = 1.0f; // Used by Spot Light

  0018a	6b 45 48 68	 imul	 eax, DWORD PTR _i$20[ebp], 104
  0018e	8b 4d 7c	 mov	 ecx, DWORD PTR _envData$[ebp]
  00191	f3 0f 10 05 00
	00 00 00	 movss	 xmm0, DWORD PTR __real@3f800000
  00199	f3 0f 11 44 01
	58		 movss	 DWORD PTR [ecx+eax+88], xmm0

; 17   : 		envData.DirLights[i].Theta = 0.0f; // Used by Spot Light

  0019f	6b 45 48 68	 imul	 eax, DWORD PTR _i$20[ebp], 104
  001a3	8b 4d 7c	 mov	 ecx, DWORD PTR _envData$[ebp]
  001a6	0f 57 c0	 xorps	 xmm0, xmm0
  001a9	f3 0f 11 44 01
	68		 movss	 DWORD PTR [ecx+eax+104], xmm0

; 18   : 		envData.DirLights[i].Phi = 0.0f; // Used by Spot Light

  001af	6b 45 48 68	 imul	 eax, DWORD PTR _i$20[ebp], 104
  001b3	8b 4d 7c	 mov	 ecx, DWORD PTR _envData$[ebp]
  001b6	0f 57 c0	 xorps	 xmm0, xmm0
  001b9	f3 0f 11 44 01
	6c		 movss	 DWORD PTR [ecx+eax+108], xmm0

; 19   : 		envData.DirLights[i].Attenuation0 = 0.0f;

  001bf	6b 45 48 68	 imul	 eax, DWORD PTR _i$20[ebp], 104
  001c3	8b 4d 7c	 mov	 ecx, DWORD PTR _envData$[ebp]
  001c6	0f 57 c0	 xorps	 xmm0, xmm0
  001c9	f3 0f 11 44 01
	5c		 movss	 DWORD PTR [ecx+eax+92], xmm0

; 20   : 		envData.DirLights[i].Attenuation1 = 1.0f;

  001cf	6b 45 48 68	 imul	 eax, DWORD PTR _i$20[ebp], 104
  001d3	8b 4d 7c	 mov	 ecx, DWORD PTR _envData$[ebp]
  001d6	f3 0f 10 05 00
	00 00 00	 movss	 xmm0, DWORD PTR __real@3f800000
  001de	f3 0f 11 44 01
	60		 movss	 DWORD PTR [ecx+eax+96], xmm0

; 21   : 		envData.DirLights[i].Attenuation2 = 0.0f;

  001e4	6b 45 48 68	 imul	 eax, DWORD PTR _i$20[ebp], 104
  001e8	8b 4d 7c	 mov	 ecx, DWORD PTR _envData$[ebp]
  001eb	0f 57 c0	 xorps	 xmm0, xmm0
  001ee	f3 0f 11 44 01
	64		 movss	 DWORD PTR [ecx+eax+100], xmm0

; 22   : 	}

  001f4	e9 24 fe ff ff	 jmp	 $LN2@Environmen
$LN3@Environmen:
; File D:\Metin2 Server Files\mainline\SRC_2014\M2Data\include\d3dx8math.inl

; 920  :     r = fr;

  001f9	f3 0f 10 05 00
	00 00 00	 movss	 xmm0, DWORD PTR __real@3f4ccccd
  00201	f3 0f 11 45 e0	 movss	 DWORD PTR $T9[ebp], xmm0

; 921  :     g = fg;

  00206	f3 0f 10 05 00
	00 00 00	 movss	 xmm0, DWORD PTR __real@3f4ccccd
  0020e	f3 0f 11 45 e4	 movss	 DWORD PTR $T9[ebp+4], xmm0

; 922  :     b = fb;

  00213	f3 0f 10 05 00
	00 00 00	 movss	 xmm0, DWORD PTR __real@3f4ccccd
  0021b	f3 0f 11 45 e8	 movss	 DWORD PTR $T9[ebp+8], xmm0

; 923  :     a = fa;

  00220	f3 0f 10 05 00
	00 00 00	 movss	 xmm0, DWORD PTR __real@3f800000
  00228	f3 0f 11 45 ec	 movss	 DWORD PTR $T9[ebp+12], xmm0

; 969  :     return *((D3DCOLORVALUE *) &r);

  0022d	8d 75 e0	 lea	 esi, DWORD PTR $T9[ebp]
; File D:\Metin2 Server Files\mainline\SRC_2014\Metin2Client\GameLib\MapUtil.cpp

; 24   : 	envData.Material.Diffuse = D3DXCOLOR(0.8f, 0.8f, 0.8f, 1.0f);

  00230	8b 7d 7c	 mov	 edi, DWORD PTR _envData$[ebp]
  00233	81 c7 d8 00 00
	00		 add	 edi, 216		; 000000d8H
  00239	a5		 movsd
  0023a	a5		 movsd
  0023b	a5		 movsd
  0023c	a5		 movsd
; File D:\Metin2 Server Files\mainline\SRC_2014\M2Data\include\d3dx8math.inl

; 920  :     r = fr;

  0023d	f3 0f 10 05 00
	00 00 00	 movss	 xmm0, DWORD PTR __real@3f4ccccd
  00245	f3 0f 11 45 d0	 movss	 DWORD PTR $T8[ebp], xmm0

; 921  :     g = fg;

  0024a	f3 0f 10 05 00
	00 00 00	 movss	 xmm0, DWORD PTR __real@3f4ccccd
  00252	f3 0f 11 45 d4	 movss	 DWORD PTR $T8[ebp+4], xmm0

; 922  :     b = fb;

  00257	f3 0f 10 05 00
	00 00 00	 movss	 xmm0, DWORD PTR __real@3f4ccccd
  0025f	f3 0f 11 45 d8	 movss	 DWORD PTR $T8[ebp+8], xmm0

; 923  :     a = fa;

  00264	f3 0f 10 05 00
	00 00 00	 movss	 xmm0, DWORD PTR __real@3f800000
  0026c	f3 0f 11 45 dc	 movss	 DWORD PTR $T8[ebp+12], xmm0

; 969  :     return *((D3DCOLORVALUE *) &r);

  00271	8d 75 d0	 lea	 esi, DWORD PTR $T8[ebp]
; File D:\Metin2 Server Files\mainline\SRC_2014\Metin2Client\GameLib\MapUtil.cpp

; 25   : 	envData.Material.Ambient = D3DXCOLOR(0.8f, 0.8f, 0.8f, 1.0f);

  00274	8b 7d 7c	 mov	 edi, DWORD PTR _envData$[ebp]
  00277	81 c7 e8 00 00
	00		 add	 edi, 232		; 000000e8H
  0027d	a5		 movsd
  0027e	a5		 movsd
  0027f	a5		 movsd
  00280	a5		 movsd
; File D:\Metin2 Server Files\mainline\SRC_2014\M2Data\include\d3dx8math.inl

; 920  :     r = fr;

  00281	f3 0f 10 05 00
	00 00 00	 movss	 xmm0, DWORD PTR __real@3f4ccccd
  00289	f3 0f 11 45 c0	 movss	 DWORD PTR $T7[ebp], xmm0

; 921  :     g = fg;

  0028e	f3 0f 10 05 00
	00 00 00	 movss	 xmm0, DWORD PTR __real@3f4ccccd
  00296	f3 0f 11 45 c4	 movss	 DWORD PTR $T7[ebp+4], xmm0

; 922  :     b = fb;

  0029b	f3 0f 10 05 00
	00 00 00	 movss	 xmm0, DWORD PTR __real@3f4ccccd
  002a3	f3 0f 11 45 c8	 movss	 DWORD PTR $T7[ebp+8], xmm0

; 923  :     a = fa;

  002a8	f3 0f 10 05 00
	00 00 00	 movss	 xmm0, DWORD PTR __real@3f800000
  002b0	f3 0f 11 45 cc	 movss	 DWORD PTR $T7[ebp+12], xmm0

; 969  :     return *((D3DCOLORVALUE *) &r);

  002b5	8d 75 c0	 lea	 esi, DWORD PTR $T7[ebp]
; File D:\Metin2 Server Files\mainline\SRC_2014\Metin2Client\GameLib\MapUtil.cpp

; 26   : 	envData.Material.Emissive = D3DXCOLOR(0.8f, 0.8f, 0.8f, 1.0f);

  002b8	8b 7d 7c	 mov	 edi, DWORD PTR _envData$[ebp]
  002bb	81 c7 08 01 00
	00		 add	 edi, 264		; 00000108H
  002c1	a5		 movsd
  002c2	a5		 movsd
  002c3	a5		 movsd
  002c4	a5		 movsd
; File D:\Metin2 Server Files\mainline\SRC_2014\M2Data\include\d3dx8math.inl

; 920  :     r = fr;

  002c5	0f 57 c0	 xorps	 xmm0, xmm0
  002c8	f3 0f 11 45 b0	 movss	 DWORD PTR $T6[ebp], xmm0

; 921  :     g = fg;

  002cd	0f 57 c0	 xorps	 xmm0, xmm0
  002d0	f3 0f 11 45 b4	 movss	 DWORD PTR $T6[ebp+4], xmm0

; 922  :     b = fb;

  002d5	0f 57 c0	 xorps	 xmm0, xmm0
  002d8	f3 0f 11 45 b8	 movss	 DWORD PTR $T6[ebp+8], xmm0

; 923  :     a = fa;

  002dd	f3 0f 10 05 00
	00 00 00	 movss	 xmm0, DWORD PTR __real@3f800000
  002e5	f3 0f 11 45 bc	 movss	 DWORD PTR $T6[ebp+12], xmm0

; 969  :     return *((D3DCOLORVALUE *) &r);

  002ea	8d 75 b0	 lea	 esi, DWORD PTR $T6[ebp]
; File D:\Metin2 Server Files\mainline\SRC_2014\Metin2Client\GameLib\MapUtil.cpp

; 27   : 	envData.Material.Specular = D3DXCOLOR(0.0f, 0.0f, 0.0f, 1.0f);

  002ed	8b 7d 7c	 mov	 edi, DWORD PTR _envData$[ebp]
  002f0	81 c7 f8 00 00
	00		 add	 edi, 248		; 000000f8H
  002f6	a5		 movsd
  002f7	a5		 movsd
  002f8	a5		 movsd
  002f9	a5		 movsd

; 28   : 	envData.Material.Power = 0.0f;

  002fa	8b 45 7c	 mov	 eax, DWORD PTR _envData$[ebp]
  002fd	0f 57 c0	 xorps	 xmm0, xmm0
  00300	f3 0f 11 80 18
	01 00 00	 movss	 DWORD PTR [eax+280], xmm0

; 29   : 
; 30   : 	envData.bFogEnable = FALSE;

  00308	8b 45 7c	 mov	 eax, DWORD PTR _envData$[ebp]
  0030b	83 a0 1c 01 00
	00 00		 and	 DWORD PTR [eax+284], 0

; 31   : 	envData.bDensityFog = FALSE;

  00312	8b 45 7c	 mov	 eax, DWORD PTR _envData$[ebp]
  00315	83 a0 20 01 00
	00 00		 and	 DWORD PTR [eax+288], 0

; 32   : 	envData.m_fFogNearDistance = 25600.0f * 0.5f;

  0031c	8b 45 7c	 mov	 eax, DWORD PTR _envData$[ebp]
  0031f	f3 0f 10 05 00
	00 00 00	 movss	 xmm0, DWORD PTR __real@46480000
  00327	f3 0f 11 80 24
	01 00 00	 movss	 DWORD PTR [eax+292], xmm0

; 33   : 	envData.m_fFogFarDistance = 25600.0f * 0.7f;

  0032f	8b 45 7c	 mov	 eax, DWORD PTR _envData$[ebp]
  00332	f3 0f 10 05 00
	00 00 00	 movss	 xmm0, DWORD PTR __real@468c0000
  0033a	f3 0f 11 80 28
	01 00 00	 movss	 DWORD PTR [eax+296], xmm0
; File D:\Metin2 Server Files\mainline\SRC_2014\M2Data\include\d3dx8math.inl

; 920  :     r = fr;

  00342	f3 0f 10 05 00
	00 00 00	 movss	 xmm0, DWORD PTR __real@3f000000
  0034a	f3 0f 11 45 a0	 movss	 DWORD PTR $T5[ebp], xmm0

; 921  :     g = fg;

  0034f	f3 0f 10 05 00
	00 00 00	 movss	 xmm0, DWORD PTR __real@3f000000
  00357	f3 0f 11 45 a4	 movss	 DWORD PTR $T5[ebp+4], xmm0

; 922  :     b = fb;

  0035c	f3 0f 10 05 00
	00 00 00	 movss	 xmm0, DWORD PTR __real@3f000000
  00364	f3 0f 11 45 a8	 movss	 DWORD PTR $T5[ebp+8], xmm0

; 923  :     a = fa;

  00369	f3 0f 10 05 00
	00 00 00	 movss	 xmm0, DWORD PTR __real@3f800000
  00371	f3 0f 11 45 ac	 movss	 DWORD PTR $T5[ebp+12], xmm0
; File D:\Metin2 Server Files\mainline\SRC_2014\Metin2Client\GameLib\MapUtil.cpp

; 34   : 	envData.FogColor = D3DXCOLOR(0.5f, 0.5f, 0.5f, 1.0f);

  00376	8b 7d 7c	 mov	 edi, DWORD PTR _envData$[ebp]
  00379	81 c7 2c 01 00
	00		 add	 edi, 300		; 0000012cH
  0037f	8d 75 a0	 lea	 esi, DWORD PTR $T5[ebp]
  00382	a5		 movsd
  00383	a5		 movsd
  00384	a5		 movsd
  00385	a5		 movsd

; 35   : 
; 36   : 	envData.bFilteringEnable = FALSE;

  00386	8b 45 7c	 mov	 eax, DWORD PTR _envData$[ebp]
  00389	83 a0 3c 01 00
	00 00		 and	 DWORD PTR [eax+316], 0
; File D:\Metin2 Server Files\mainline\SRC_2014\M2Data\include\d3dx8math.inl

; 920  :     r = fr;

  00390	f3 0f 10 05 00
	00 00 00	 movss	 xmm0, DWORD PTR __real@3e99999a
  00398	f3 0f 11 45 90	 movss	 DWORD PTR $T4[ebp], xmm0

; 921  :     g = fg;

  0039d	f3 0f 10 05 00
	00 00 00	 movss	 xmm0, DWORD PTR __real@3dcccccd
  003a5	f3 0f 11 45 94	 movss	 DWORD PTR $T4[ebp+4], xmm0

; 922  :     b = fb;

  003aa	f3 0f 10 05 00
	00 00 00	 movss	 xmm0, DWORD PTR __real@3dcccccd
  003b2	f3 0f 11 45 98	 movss	 DWORD PTR $T4[ebp+8], xmm0

; 923  :     a = fa;

  003b7	0f 57 c0	 xorps	 xmm0, xmm0
  003ba	f3 0f 11 45 9c	 movss	 DWORD PTR $T4[ebp+12], xmm0
; File D:\Metin2 Server Files\mainline\SRC_2014\Metin2Client\GameLib\MapUtil.cpp

; 37   : 	envData.FilteringColor = D3DXCOLOR(0.3f, 0.1f, 0.1f, 0.0f);

  003bf	8b 7d 7c	 mov	 edi, DWORD PTR _envData$[ebp]
  003c2	81 c7 40 01 00
	00		 add	 edi, 320		; 00000140H
  003c8	8d 75 90	 lea	 esi, DWORD PTR $T4[ebp]
  003cb	a5		 movsd
  003cc	a5		 movsd
  003cd	a5		 movsd
  003ce	a5		 movsd

; 38   : 	envData.byFilteringAlphaSrc = D3DBLEND_ONE;

  003cf	8b 45 7c	 mov	 eax, DWORD PTR _envData$[ebp]
  003d2	c6 80 50 01 00
	00 02		 mov	 BYTE PTR [eax+336], 2

; 39   : 	envData.byFilteringAlphaDest = D3DBLEND_ONE;

  003d9	8b 45 7c	 mov	 eax, DWORD PTR _envData$[ebp]
  003dc	c6 80 51 01 00
	00 02		 mov	 BYTE PTR [eax+337], 2

; 40   : 
; 41   : 	envData.fWindStrength = 0.2f;

  003e3	8b 45 7c	 mov	 eax, DWORD PTR _envData$[ebp]
  003e6	f3 0f 10 05 00
	00 00 00	 movss	 xmm0, DWORD PTR __real@3e4ccccd
  003ee	f3 0f 11 80 54
	01 00 00	 movss	 DWORD PTR [eax+340], xmm0

; 42   : 	envData.fWindRandom = 0.0f;

  003f6	8b 45 7c	 mov	 eax, DWORD PTR _envData$[ebp]
  003f9	0f 57 c0	 xorps	 xmm0, xmm0
  003fc	f3 0f 11 80 58
	01 00 00	 movss	 DWORD PTR [eax+344], xmm0
; File D:\Metin2 Server Files\mainline\SRC_2014\M2Data\include\d3dx8math.inl

; 180  :     x = fx;

  00404	f3 0f 10 05 00
	00 00 00	 movss	 xmm0, DWORD PTR __real@455ac000
  0040c	f3 0f 11 45 4c	 movss	 DWORD PTR $T21[ebp], xmm0

; 181  :     y = fy;

  00411	f3 0f 10 05 00
	00 00 00	 movss	 xmm0, DWORD PTR __real@455ac000
  00419	f3 0f 11 45 50	 movss	 DWORD PTR $T21[ebp+4], xmm0

; 182  :     z = fz;

  0041e	f3 0f 10 05 00
	00 00 00	 movss	 xmm0, DWORD PTR __real@455ac000
  00426	f3 0f 11 45 54	 movss	 DWORD PTR $T21[ebp+8], xmm0
; File D:\Metin2 Server Files\mainline\SRC_2014\Metin2Client\GameLib\MapUtil.cpp

; 44   : 	envData.v3SkyBoxScale = D3DXVECTOR3(3500.0f, 3500.0f, 3500.0f);

  0042b	8b 7d 7c	 mov	 edi, DWORD PTR _envData$[ebp]
  0042e	81 c7 5c 01 00
	00		 add	 edi, 348		; 0000015cH
  00434	8d 75 4c	 lea	 esi, DWORD PTR $T21[ebp]
  00437	a5		 movsd
  00438	a5		 movsd
  00439	a5		 movsd

; 45   : 	envData.bySkyBoxGradientLevelUpper = 0;

  0043a	8b 45 7c	 mov	 eax, DWORD PTR _envData$[ebp]
  0043d	c6 80 6c 01 00
	00 00		 mov	 BYTE PTR [eax+364], 0

; 46   : 	envData.bySkyBoxGradientLevelLower = 0;

  00444	8b 45 7c	 mov	 eax, DWORD PTR _envData$[ebp]
  00447	c6 80 6d 01 00
	00 00		 mov	 BYTE PTR [eax+365], 0

; 47   : 	envData.bSkyBoxTextureRenderMode = FALSE;

  0044e	8b 45 7c	 mov	 eax, DWORD PTR _envData$[ebp]
  00451	83 a0 68 01 00
	00 00		 and	 DWORD PTR [eax+360], 0
; File D:\Metin2 Server Files\mainline\SRC_2014\M2Data\include\d3dx8math.inl

; 41   :     x = fx;

  00458	f3 0f 10 05 00
	00 00 00	 movss	 xmm0, DWORD PTR __real@48435000
  00460	f3 0f 11 45 30	 movss	 DWORD PTR $T15[ebp], xmm0

; 42   :     y = fy;

  00465	f3 0f 10 05 00
	00 00 00	 movss	 xmm0, DWORD PTR __real@48435000
  0046d	f3 0f 11 45 34	 movss	 DWORD PTR $T15[ebp+4], xmm0
; File D:\Metin2 Server Files\mainline\SRC_2014\Metin2Client\GameLib\MapUtil.cpp

; 49   : 	envData.v2CloudScale = D3DXVECTOR2(200000.0f, 200000.0f);

  00472	8b 45 30	 mov	 eax, DWORD PTR $T15[ebp]
  00475	8b 4d 34	 mov	 ecx, DWORD PTR $T15[ebp+4]
  00478	8b 55 7c	 mov	 edx, DWORD PTR _envData$[ebp]
  0047b	89 82 00 02 00
	00		 mov	 DWORD PTR [edx+512], eax
  00481	89 8a 04 02 00
	00		 mov	 DWORD PTR [edx+516], ecx

; 50   : 	envData.fCloudHeight = 30000.0f;

  00487	8b 45 7c	 mov	 eax, DWORD PTR _envData$[ebp]
  0048a	f3 0f 10 05 00
	00 00 00	 movss	 xmm0, DWORD PTR __real@46ea6000
  00492	f3 0f 11 80 08
	02 00 00	 movss	 DWORD PTR [eax+520], xmm0
; File D:\Metin2 Server Files\mainline\SRC_2014\M2Data\include\d3dx8math.inl

; 41   :     x = fx;

  0049a	f3 0f 10 05 00
	00 00 00	 movss	 xmm0, DWORD PTR __real@40800000
  004a2	f3 0f 11 45 28	 movss	 DWORD PTR $T14[ebp], xmm0

; 42   :     y = fy;

  004a7	f3 0f 10 05 00
	00 00 00	 movss	 xmm0, DWORD PTR __real@40800000
  004af	f3 0f 11 45 2c	 movss	 DWORD PTR $T14[ebp+4], xmm0
; File D:\Metin2 Server Files\mainline\SRC_2014\Metin2Client\GameLib\MapUtil.cpp

; 51   : 	envData.v2CloudTextureScale = D3DXVECTOR2(4.0f, 4.0f);

  004b4	8b 45 28	 mov	 eax, DWORD PTR $T14[ebp]
  004b7	8b 4d 2c	 mov	 ecx, DWORD PTR $T14[ebp+4]
  004ba	8b 55 7c	 mov	 edx, DWORD PTR _envData$[ebp]
  004bd	89 82 0c 02 00
	00		 mov	 DWORD PTR [edx+524], eax
  004c3	89 8a 10 02 00
	00		 mov	 DWORD PTR [edx+528], ecx
; File D:\Metin2 Server Files\mainline\SRC_2014\M2Data\include\d3dx8math.inl

; 41   :     x = fx;

  004c9	f3 0f 10 05 00
	00 00 00	 movss	 xmm0, DWORD PTR __real@3a83126f
  004d1	f3 0f 11 45 20	 movss	 DWORD PTR $T13[ebp], xmm0

; 42   :     y = fy;

  004d6	f3 0f 10 05 00
	00 00 00	 movss	 xmm0, DWORD PTR __real@3a83126f
  004de	f3 0f 11 45 24	 movss	 DWORD PTR $T13[ebp+4], xmm0
; File D:\Metin2 Server Files\mainline\SRC_2014\Metin2Client\GameLib\MapUtil.cpp

; 52   : 	envData.v2CloudSpeed = D3DXVECTOR2(0.001f, 0.001f);

  004e3	8b 45 20	 mov	 eax, DWORD PTR $T13[ebp]
  004e6	8b 4d 24	 mov	 ecx, DWORD PTR $T13[ebp+4]
  004e9	8b 55 7c	 mov	 edx, DWORD PTR _envData$[ebp]
  004ec	89 82 14 02 00
	00		 mov	 DWORD PTR [edx+532], eax
  004f2	89 8a 18 02 00
	00		 mov	 DWORD PTR [edx+536], ecx
; File C:\Program Files (x86)\Microsoft Visual Studio\2019\Community\VC\Tools\MSVC\14.28.29333\include\xstring

; 389  :         return _CSTD strlen(reinterpret_cast<const char*>(_First));

  004f8	68 00 00 00 00	 push	 OFFSET ??_C@_00CNPNBAHC@@
  004fd	e8 00 00 00 00	 call	 _strlen
  00502	59		 pop	 ecx
  00503	89 45 44	 mov	 DWORD PTR $T19[ebp], eax
; File C:\Program Files (x86)\Microsoft Visual Studio\2019\Community\VC\Tools\MSVC\14.28.29333\include\xmemory

; 997  :     return _Len;

  00506	8b 45 44	 mov	 eax, DWORD PTR $T19[ebp]
  00509	89 45 40	 mov	 DWORD PTR $T18[ebp], eax
; File C:\Program Files (x86)\Microsoft Visual Studio\2019\Community\VC\Tools\MSVC\14.28.29333\include\xstring

; 3062 :         return assign(_Ptr, _Convert_size<size_type>(_Traits::length(_Ptr)));

  0050c	ff 75 40	 push	 DWORD PTR $T18[ebp]
  0050f	68 00 00 00 00	 push	 OFFSET ??_C@_00CNPNBAHC@@
; File D:\Metin2 Server Files\mainline\SRC_2014\Metin2Client\GameLib\MapUtil.cpp

; 53   : 	envData.strCloudTextureFileName = "";

  00514	8b 4d 7c	 mov	 ecx, DWORD PTR _envData$[ebp]
  00517	81 c1 1c 02 00
	00		 add	 ecx, 540		; 0000021cH
; File C:\Program Files (x86)\Microsoft Visual Studio\2019\Community\VC\Tools\MSVC\14.28.29333\include\xstring

; 3062 :         return assign(_Ptr, _Convert_size<size_type>(_Traits::length(_Ptr)));

  0051d	e8 00 00 00 00	 call	 ?assign@?$basic_string@DU?$char_traits@D@std@@V?$allocator@D@2@@std@@QAEAAV12@QBDI@Z ; std::basic_string<char,std::char_traits<char>,std::allocator<char> >::assign
; File D:\Metin2 Server Files\mainline\SRC_2014\Metin2Client\eterLib\SkyBox.h

; 22   : 	SColor(float _r = 0.0f, float _g = 0.0f, float _b = 0.0f, float _a = 0.0f) : r(_r), g(_g), b(_b), a(_a){}

  00522	0f 57 c0	 xorps	 xmm0, xmm0
  00525	f3 0f 11 45 80	 movss	 DWORD PTR $T3[ebp], xmm0
  0052a	0f 57 c0	 xorps	 xmm0, xmm0
  0052d	f3 0f 11 45 84	 movss	 DWORD PTR $T3[ebp+4], xmm0
  00532	0f 57 c0	 xorps	 xmm0, xmm0
  00535	f3 0f 11 45 88	 movss	 DWORD PTR $T3[ebp+8], xmm0
  0053a	0f 57 c0	 xorps	 xmm0, xmm0
  0053d	f3 0f 11 45 8c	 movss	 DWORD PTR $T3[ebp+12], xmm0
; File D:\Metin2 Server Files\mainline\SRC_2014\Metin2Client\GameLib\MapUtil.cpp

; 54   : 	envData.CloudGradientColor.m_FirstColor = .0f;

  00542	8b 7d 7c	 mov	 edi, DWORD PTR _envData$[ebp]
  00545	81 c7 34 02 00
	00		 add	 edi, 564		; 00000234H
  0054b	8d 75 80	 lea	 esi, DWORD PTR $T3[ebp]
  0054e	a5		 movsd
  0054f	a5		 movsd
  00550	a5		 movsd
  00551	a5		 movsd
; File D:\Metin2 Server Files\mainline\SRC_2014\Metin2Client\eterLib\SkyBox.h

; 22   : 	SColor(float _r = 0.0f, float _g = 0.0f, float _b = 0.0f, float _a = 0.0f) : r(_r), g(_g), b(_b), a(_a){}

  00552	0f 57 c0	 xorps	 xmm0, xmm0
  00555	f3 0f 11 85 70
	ff ff ff	 movss	 DWORD PTR $T2[ebp], xmm0
  0055d	0f 57 c0	 xorps	 xmm0, xmm0
  00560	f3 0f 11 85 74
	ff ff ff	 movss	 DWORD PTR $T2[ebp+4], xmm0
  00568	0f 57 c0	 xorps	 xmm0, xmm0
  0056b	f3 0f 11 85 78
	ff ff ff	 movss	 DWORD PTR $T2[ebp+8], xmm0
  00573	0f 57 c0	 xorps	 xmm0, xmm0
  00576	f3 0f 11 85 7c
	ff ff ff	 movss	 DWORD PTR $T2[ebp+12], xmm0
; File D:\Metin2 Server Files\mainline\SRC_2014\Metin2Client\GameLib\MapUtil.cpp

; 55   : 	envData.CloudGradientColor.m_SecondColor = .0f;

  0057e	8b 7d 7c	 mov	 edi, DWORD PTR _envData$[ebp]
  00581	81 c7 44 02 00
	00		 add	 edi, 580		; 00000244H
  00587	8d b5 70 ff ff
	ff		 lea	 esi, DWORD PTR $T2[ebp]
  0058d	a5		 movsd
  0058e	a5		 movsd
  0058f	a5		 movsd
  00590	a5		 movsd

; 56   : 
; 57   : 	envData.SkyBoxGradientColorVector.clear();

  00591	8b 4d 7c	 mov	 ecx, DWORD PTR _envData$[ebp]
  00594	81 c1 54 02 00
	00		 add	 ecx, 596		; 00000254H
  0059a	e8 00 00 00 00	 call	 ?clear@?$vector@UTGradientColor@@V?$allocator@UTGradientColor@@@std@@@std@@QAEXXZ ; std::vector<TGradientColor,std::allocator<TGradientColor> >::clear

; 58   : 
; 59   : 	envData.bLensFlareEnable = FALSE;

  0059f	8b 45 7c	 mov	 eax, DWORD PTR _envData$[ebp]
  005a2	83 a0 60 02 00
	00 00		 and	 DWORD PTR [eax+608], 0
; File D:\Metin2 Server Files\mainline\SRC_2014\M2Data\include\d3dx8math.inl

; 920  :     r = fr;

  005a9	f3 0f 10 05 00
	00 00 00	 movss	 xmm0, DWORD PTR __real@3f800000
  005b1	f3 0f 11 85 60
	ff ff ff	 movss	 DWORD PTR $T1[ebp], xmm0

; 921  :     g = fg;

  005b9	f3 0f 10 05 00
	00 00 00	 movss	 xmm0, DWORD PTR __real@3f800000
  005c1	f3 0f 11 85 64
	ff ff ff	 movss	 DWORD PTR $T1[ebp+4], xmm0

; 922  :     b = fb;

  005c9	f3 0f 10 05 00
	00 00 00	 movss	 xmm0, DWORD PTR __real@3f800000
  005d1	f3 0f 11 85 68
	ff ff ff	 movss	 DWORD PTR $T1[ebp+8], xmm0

; 923  :     a = fa;

  005d9	f3 0f 10 05 00
	00 00 00	 movss	 xmm0, DWORD PTR __real@3f800000
  005e1	f3 0f 11 85 6c
	ff ff ff	 movss	 DWORD PTR $T1[ebp+12], xmm0
; File D:\Metin2 Server Files\mainline\SRC_2014\Metin2Client\GameLib\MapUtil.cpp

; 60   : 	envData.LensFlareBrightnessColor = D3DXCOLOR(1.0f, 1.0f, 1.0f, 1.0f);

  005e9	8b 7d 7c	 mov	 edi, DWORD PTR _envData$[ebp]
  005ec	81 c7 64 02 00
	00		 add	 edi, 612		; 00000264H
  005f2	8d b5 60 ff ff
	ff		 lea	 esi, DWORD PTR $T1[ebp]
  005f8	a5		 movsd
  005f9	a5		 movsd
  005fa	a5		 movsd
  005fb	a5		 movsd

; 61   : 	envData.fLensFlareMaxBrightness = 1.0f;

  005fc	8b 45 7c	 mov	 eax, DWORD PTR _envData$[ebp]
  005ff	f3 0f 10 05 00
	00 00 00	 movss	 xmm0, DWORD PTR __real@3f800000
  00607	f3 0f 11 80 74
	02 00 00	 movss	 DWORD PTR [eax+628], xmm0

; 62   : 
; 63   : 	envData.bMainFlareEnable = FALSE;

  0060f	8b 45 7c	 mov	 eax, DWORD PTR _envData$[ebp]
  00612	83 a0 78 02 00
	00 00		 and	 DWORD PTR [eax+632], 0
; File C:\Program Files (x86)\Microsoft Visual Studio\2019\Community\VC\Tools\MSVC\14.28.29333\include\xstring

; 389  :         return _CSTD strlen(reinterpret_cast<const char*>(_First));

  00619	68 00 00 00 00	 push	 OFFSET ??_C@_00CNPNBAHC@@
  0061e	e8 00 00 00 00	 call	 _strlen
  00623	59		 pop	 ecx
  00624	89 45 3c	 mov	 DWORD PTR $T17[ebp], eax
; File C:\Program Files (x86)\Microsoft Visual Studio\2019\Community\VC\Tools\MSVC\14.28.29333\include\xmemory

; 997  :     return _Len;

  00627	8b 45 3c	 mov	 eax, DWORD PTR $T17[ebp]
  0062a	89 45 38	 mov	 DWORD PTR $T16[ebp], eax
; File C:\Program Files (x86)\Microsoft Visual Studio\2019\Community\VC\Tools\MSVC\14.28.29333\include\xstring

; 3062 :         return assign(_Ptr, _Convert_size<size_type>(_Traits::length(_Ptr)));

  0062d	ff 75 38	 push	 DWORD PTR $T16[ebp]
  00630	68 00 00 00 00	 push	 OFFSET ??_C@_00CNPNBAHC@@
; File D:\Metin2 Server Files\mainline\SRC_2014\Metin2Client\GameLib\MapUtil.cpp

; 64   : 	envData.strMainFlareTextureFileName = "";

  00635	8b 4d 7c	 mov	 ecx, DWORD PTR _envData$[ebp]
  00638	81 c1 7c 02 00
	00		 add	 ecx, 636		; 0000027cH
; File C:\Program Files (x86)\Microsoft Visual Studio\2019\Community\VC\Tools\MSVC\14.28.29333\include\xstring

; 3062 :         return assign(_Ptr, _Convert_size<size_type>(_Traits::length(_Ptr)));

  0063e	e8 00 00 00 00	 call	 ?assign@?$basic_string@DU?$char_traits@D@std@@V?$allocator@D@2@@std@@QAEAAV12@QBDI@Z ; std::basic_string<char,std::char_traits<char>,std::allocator<char> >::assign
; File D:\Metin2 Server Files\mainline\SRC_2014\Metin2Client\GameLib\MapUtil.cpp

; 65   : 	envData.fMainFlareSize = 0.2f;

  00643	8b 45 7c	 mov	 eax, DWORD PTR _envData$[ebp]
  00646	f3 0f 10 05 00
	00 00 00	 movss	 xmm0, DWORD PTR __real@3e4ccccd
  0064e	f3 0f 11 80 94
	02 00 00	 movss	 DWORD PTR [eax+660], xmm0

; 66   : 
; 67   : 	envData.bReserve = FALSE;

  00656	8b 45 7c	 mov	 eax, DWORD PTR _envData$[ebp]
  00659	83 a0 98 02 00
	00 00		 and	 DWORD PTR [eax+664], 0

; 68   : }

  00660	5f		 pop	 edi
  00661	5e		 pop	 esi
  00662	8b 4d 70	 mov	 ecx, DWORD PTR __$ArrayPad$[ebp]
  00665	33 cd		 xor	 ecx, ebp
  00667	e8 00 00 00 00	 call	 @__security_check_cookie@4
  0066c	83 c5 74	 add	 ebp, 116		; 00000074H
  0066f	c9		 leave
  00670	c3		 ret	 0
?Environment_Init@@YAXAAUSEnvironmentData@@@Z ENDP	; Environment_Init
_TEXT	ENDS
; Function compile flags: /Odspy
; File C:\Program Files (x86)\Microsoft Visual Studio\2019\Community\VC\Tools\MSVC\14.28.29333\include\vector
; File C:\Program Files (x86)\Microsoft Visual Studio\2019\Community\VC\Tools\MSVC\14.28.29333\include\xmemory
; File C:\Program Files (x86)\Microsoft Visual Studio\2019\Community\VC\Tools\MSVC\14.28.29333\include\vector
;	COMDAT ?_Getal@?$vector@UTGradientColor@@V?$allocator@UTGradientColor@@@std@@@std@@AAEAAV?$allocator@UTGradientColor@@@2@XZ
_TEXT	SEGMENT
$T1 = -8						; size = 4
_this$ = -4						; size = 4
?_Getal@?$vector@UTGradientColor@@V?$allocator@UTGradientColor@@@std@@@std@@AAEAAV?$allocator@UTGradientColor@@@2@XZ PROC ; std::vector<TGradientColor,std::allocator<TGradientColor> >::_Getal, COMDAT
; _this$ = ecx

; 1732 :     _Alty& _Getal() noexcept {

  00000	55		 push	 ebp
  00001	8b ec		 mov	 ebp, esp
  00003	51		 push	 ecx
  00004	51		 push	 ecx
  00005	89 4d fc	 mov	 DWORD PTR _this$[ebp], ecx

; 1733 :         return _Mypair._Get_first();

  00008	8b 45 fc	 mov	 eax, DWORD PTR _this$[ebp]
; File C:\Program Files (x86)\Microsoft Visual Studio\2019\Community\VC\Tools\MSVC\14.28.29333\include\xmemory

; 1347 :         return *this;

  0000b	89 45 f8	 mov	 DWORD PTR $T1[ebp], eax
; File C:\Program Files (x86)\Microsoft Visual Studio\2019\Community\VC\Tools\MSVC\14.28.29333\include\vector

; 1733 :         return _Mypair._Get_first();

  0000e	8b 45 f8	 mov	 eax, DWORD PTR $T1[ebp]

; 1734 :     }

  00011	c9		 leave
  00012	c3		 ret	 0
?_Getal@?$vector@UTGradientColor@@V?$allocator@UTGradientColor@@@std@@@std@@AAEAAV?$allocator@UTGradientColor@@@2@XZ ENDP ; std::vector<TGradientColor,std::allocator<TGradientColor> >::_Getal
_TEXT	ENDS
; Function compile flags: /Odspy
; File C:\Program Files (x86)\Microsoft Visual Studio\2019\Community\VC\Tools\MSVC\14.28.29333\include\vector
;	COMDAT ?_Xlength@?$vector@UTGradientColor@@V?$allocator@UTGradientColor@@@std@@@std@@CAXXZ
_TEXT	SEGMENT
?_Xlength@?$vector@UTGradientColor@@V?$allocator@UTGradientColor@@@std@@@std@@CAXXZ PROC ; std::vector<TGradientColor,std::allocator<TGradientColor> >::_Xlength, COMDAT

; 1704 :     [[noreturn]] static void _Xlength() {

  00000	55		 push	 ebp
  00001	8b ec		 mov	 ebp, esp

; 1705 :         _Xlength_error("vector too long");

  00003	68 00 00 00 00	 push	 OFFSET ??_C@_0BA@FOIKENOD@vector?5too?5long@
  00008	e8 00 00 00 00	 call	 ?_Xlength_error@std@@YAXPBD@Z ; std::_Xlength_error
$LN2@Xlength:

; 1706 :     }

  0000d	5d		 pop	 ebp
  0000e	c3		 ret	 0
?_Xlength@?$vector@UTGradientColor@@V?$allocator@UTGradientColor@@@std@@@std@@CAXXZ ENDP ; std::vector<TGradientColor,std::allocator<TGradientColor> >::_Xlength
_TEXT	ENDS
; Function compile flags: /Odspy
; File C:\Program Files (x86)\Microsoft Visual Studio\2019\Community\VC\Tools\MSVC\14.28.29333\include\vector
; File C:\Program Files (x86)\Microsoft Visual Studio\2019\Community\VC\Tools\MSVC\14.28.29333\include\xmemory
; File C:\Program Files (x86)\Microsoft Visual Studio\2019\Community\VC\Tools\MSVC\14.28.29333\include\vector
; File C:\Program Files (x86)\Microsoft Visual Studio\2019\Community\VC\Tools\MSVC\14.28.29333\include\xmemory
; File C:\Program Files (x86)\Microsoft Visual Studio\2019\Community\VC\Tools\MSVC\14.28.29333\include\vector
; File C:\Program Files (x86)\Microsoft Visual Studio\2019\Community\VC\Tools\MSVC\14.28.29333\include\xmemory
; File C:\Program Files (x86)\Microsoft Visual Studio\2019\Community\VC\Tools\MSVC\14.28.29333\include\vector
;	COMDAT ?_Change_array@?$vector@UTGradientColor@@V?$allocator@UTGradientColor@@@std@@@std@@AAEXQAUTGradientColor@@II@Z
_TEXT	SEGMENT
$T1 = -52						; size = 4
__Ptr$ = -48						; size = 4
__Count$ = -44						; size = 4
$T2 = -40						; size = 4
__First$ = -36						; size = 4
__Last$ = -32						; size = 4
$T3 = -28						; size = 4
$T4 = -24						; size = 4
__Myend$ = -20						; size = 4
__Mylast$ = -16						; size = 4
_this$ = -12						; size = 4
__My_data$ = -8						; size = 4
__Myfirst$ = -4						; size = 4
__Newvec$ = 8						; size = 4
__Newsize$ = 12						; size = 4
__Newcapacity$ = 16					; size = 4
?_Change_array@?$vector@UTGradientColor@@V?$allocator@UTGradientColor@@@std@@@std@@AAEXQAUTGradientColor@@II@Z PROC ; std::vector<TGradientColor,std::allocator<TGradientColor> >::_Change_array, COMDAT
; _this$ = ecx

; 1667 :     void _Change_array(const pointer _Newvec, const size_type _Newsize, const size_type _Newcapacity) {

  00000	55		 push	 ebp
  00001	8b ec		 mov	 ebp, esp
  00003	83 ec 34	 sub	 esp, 52			; 00000034H
  00006	89 4d f4	 mov	 DWORD PTR _this$[ebp], ecx

; 1668 :         // orphan all iterators, discard old array, acquire new array
; 1669 :         auto& _My_data    = _Mypair._Myval2;

  00009	8b 45 f4	 mov	 eax, DWORD PTR _this$[ebp]
  0000c	89 45 f8	 mov	 DWORD PTR __My_data$[ebp], eax

; 1670 :         pointer& _Myfirst = _My_data._Myfirst;

  0000f	8b 45 f8	 mov	 eax, DWORD PTR __My_data$[ebp]
  00012	89 45 fc	 mov	 DWORD PTR __Myfirst$[ebp], eax

; 1671 :         pointer& _Mylast  = _My_data._Mylast;

  00015	8b 45 f8	 mov	 eax, DWORD PTR __My_data$[ebp]
  00018	83 c0 04	 add	 eax, 4
  0001b	89 45 f0	 mov	 DWORD PTR __Mylast$[ebp], eax

; 1672 :         pointer& _Myend   = _My_data._Myend;

  0001e	8b 45 f8	 mov	 eax, DWORD PTR __My_data$[ebp]
  00021	83 c0 08	 add	 eax, 8
  00024	89 45 ec	 mov	 DWORD PTR __Myend$[ebp], eax

; 1673 : 
; 1674 :         _My_data._Orphan_all();
; 1675 : 
; 1676 :         if (_Myfirst) { // destroy and deallocate old array

  00027	8b 45 fc	 mov	 eax, DWORD PTR __Myfirst$[ebp]
  0002a	83 38 00	 cmp	 DWORD PTR [eax], 0
  0002d	74 62		 je	 SHORT $LN2@Change_arr

; 1677 :             _Destroy(_Myfirst, _Mylast);

  0002f	8b 45 f0	 mov	 eax, DWORD PTR __Mylast$[ebp]
  00032	8b 00		 mov	 eax, DWORD PTR [eax]
  00034	89 45 e0	 mov	 DWORD PTR __Last$[ebp], eax
  00037	8b 45 fc	 mov	 eax, DWORD PTR __Myfirst$[ebp]
  0003a	8b 00		 mov	 eax, DWORD PTR [eax]
  0003c	89 45 dc	 mov	 DWORD PTR __First$[ebp], eax

; 1733 :         return _Mypair._Get_first();

  0003f	8b 45 f4	 mov	 eax, DWORD PTR _this$[ebp]
; File C:\Program Files (x86)\Microsoft Visual Studio\2019\Community\VC\Tools\MSVC\14.28.29333\include\xmemory

; 1347 :         return *this;

  00042	89 45 e8	 mov	 DWORD PTR $T4[ebp], eax
; File C:\Program Files (x86)\Microsoft Visual Studio\2019\Community\VC\Tools\MSVC\14.28.29333\include\vector

; 1733 :         return _Mypair._Get_first();

  00045	8b 45 e8	 mov	 eax, DWORD PTR $T4[ebp]
  00048	89 45 e4	 mov	 DWORD PTR $T3[ebp], eax

; 1612 :         _Destroy_range(_First, _Last, _Getal());

  0004b	ff 75 e4	 push	 DWORD PTR $T3[ebp]
  0004e	ff 75 e0	 push	 DWORD PTR __Last$[ebp]
  00051	ff 75 dc	 push	 DWORD PTR __First$[ebp]
  00054	e8 00 00 00 00	 call	 ??$_Destroy_range@V?$allocator@UTGradientColor@@@std@@@std@@YAXPAUTGradientColor@@QAU1@AAV?$allocator@UTGradientColor@@@0@@Z ; std::_Destroy_range<std::allocator<TGradientColor> >
  00059	83 c4 0c	 add	 esp, 12			; 0000000cH

; 1733 :         return _Mypair._Get_first();

  0005c	8b 45 f4	 mov	 eax, DWORD PTR _this$[ebp]
; File C:\Program Files (x86)\Microsoft Visual Studio\2019\Community\VC\Tools\MSVC\14.28.29333\include\xmemory

; 1347 :         return *this;

  0005f	89 45 d8	 mov	 DWORD PTR $T2[ebp], eax
; File C:\Program Files (x86)\Microsoft Visual Studio\2019\Community\VC\Tools\MSVC\14.28.29333\include\vector

; 1733 :         return _Mypair._Get_first();

  00062	8b 45 d8	 mov	 eax, DWORD PTR $T2[ebp]
  00065	89 45 cc	 mov	 DWORD PTR $T1[ebp], eax

; 1678 :             _Getal().deallocate(_Myfirst, static_cast<size_type>(_Myend - _Myfirst));

  00068	8b 45 ec	 mov	 eax, DWORD PTR __Myend$[ebp]
  0006b	8b 4d fc	 mov	 ecx, DWORD PTR __Myfirst$[ebp]
  0006e	8b 00		 mov	 eax, DWORD PTR [eax]
  00070	2b 01		 sub	 eax, DWORD PTR [ecx]
  00072	c1 f8 05	 sar	 eax, 5
  00075	89 45 d4	 mov	 DWORD PTR __Count$[ebp], eax
  00078	8b 45 fc	 mov	 eax, DWORD PTR __Myfirst$[ebp]
  0007b	8b 00		 mov	 eax, DWORD PTR [eax]
  0007d	89 45 d0	 mov	 DWORD PTR __Ptr$[ebp], eax
; File C:\Program Files (x86)\Microsoft Visual Studio\2019\Community\VC\Tools\MSVC\14.28.29333\include\xmemory

; 810  :         _Deallocate<_New_alignof<_Ty>>(_Ptr, sizeof(_Ty) * _Count);

  00080	8b 45 d4	 mov	 eax, DWORD PTR __Count$[ebp]
  00083	c1 e0 05	 shl	 eax, 5
  00086	50		 push	 eax
  00087	ff 75 d0	 push	 DWORD PTR __Ptr$[ebp]
  0008a	e8 00 00 00 00	 call	 ??$_Deallocate@$07$0A@@std@@YAXPAXI@Z ; std::_Deallocate<8,0>
  0008f	59		 pop	 ecx
  00090	59		 pop	 ecx
$LN2@Change_arr:
; File C:\Program Files (x86)\Microsoft Visual Studio\2019\Community\VC\Tools\MSVC\14.28.29333\include\vector

; 1681 :         _Myfirst = _Newvec;

  00091	8b 45 fc	 mov	 eax, DWORD PTR __Myfirst$[ebp]
  00094	8b 4d 08	 mov	 ecx, DWORD PTR __Newvec$[ebp]
  00097	89 08		 mov	 DWORD PTR [eax], ecx

; 1682 :         _Mylast  = _Newvec + _Newsize;

  00099	8b 45 0c	 mov	 eax, DWORD PTR __Newsize$[ebp]
  0009c	c1 e0 05	 shl	 eax, 5
  0009f	03 45 08	 add	 eax, DWORD PTR __Newvec$[ebp]
  000a2	8b 4d f0	 mov	 ecx, DWORD PTR __Mylast$[ebp]
  000a5	89 01		 mov	 DWORD PTR [ecx], eax

; 1683 :         _Myend   = _Newvec + _Newcapacity;

  000a7	8b 45 10	 mov	 eax, DWORD PTR __Newcapacity$[ebp]
  000aa	c1 e0 05	 shl	 eax, 5
  000ad	03 45 08	 add	 eax, DWORD PTR __Newvec$[ebp]
  000b0	8b 4d ec	 mov	 ecx, DWORD PTR __Myend$[ebp]
  000b3	89 01		 mov	 DWORD PTR [ecx], eax

; 1684 :     }

  000b5	c9		 leave
  000b6	c2 0c 00	 ret	 12			; 0000000cH
?_Change_array@?$vector@UTGradientColor@@V?$allocator@UTGradientColor@@@std@@@std@@AAEXQAUTGradientColor@@II@Z ENDP ; std::vector<TGradientColor,std::allocator<TGradientColor> >::_Change_array
_TEXT	ENDS
; Function compile flags: /Odspy
; File C:\Program Files (x86)\Microsoft Visual Studio\2019\Community\VC\Tools\MSVC\14.28.29333\include\vector
; File C:\Program Files (x86)\Microsoft Visual Studio\2019\Community\VC\Tools\MSVC\14.28.29333\include\xmemory
; File C:\Program Files (x86)\Microsoft Visual Studio\2019\Community\VC\Tools\MSVC\14.28.29333\include\vector
; File C:\Program Files (x86)\Microsoft Visual Studio\2019\Community\VC\Tools\MSVC\14.28.29333\include\xmemory
; File C:\Program Files (x86)\Microsoft Visual Studio\2019\Community\VC\Tools\MSVC\14.28.29333\include\limits
; File C:\Program Files (x86)\Microsoft Visual Studio\2019\Community\VC\Tools\MSVC\14.28.29333\include\vector
; File C:\Program Files (x86)\Microsoft Visual Studio\2019\Community\VC\Tools\MSVC\14.28.29333\include\utility
; File C:\Program Files (x86)\Microsoft Visual Studio\2019\Community\VC\Tools\MSVC\14.28.29333\include\vector
;	COMDAT ?_Calculate_growth@?$vector@UTGradientColor@@V?$allocator@UTGradientColor@@@std@@@std@@ABEII@Z
_TEXT	SEGMENT
$T1 = -52						; size = 4
$T2 = -48						; size = 4
$T3 = -44						; size = 4
$T4 = -40						; size = 4
$T5 = -36						; size = 4
__Geometric$ = -32					; size = 4
__Max$ = -28						; size = 4
tv82 = -24						; size = 4
$T6 = -20						; size = 4
$T7 = -16						; size = 4
_this$ = -12						; size = 4
__My_data$8 = -8					; size = 4
__Oldcapacity$ = -4					; size = 4
__Newsize$ = 8						; size = 4
?_Calculate_growth@?$vector@UTGradientColor@@V?$allocator@UTGradientColor@@@std@@@std@@ABEII@Z PROC ; std::vector<TGradientColor,std::allocator<TGradientColor> >::_Calculate_growth, COMDAT
; _this$ = ecx

; 1615 :     size_type _Calculate_growth(const size_type _Newsize) const {

  00000	55		 push	 ebp
  00001	8b ec		 mov	 ebp, esp
  00003	83 ec 34	 sub	 esp, 52			; 00000034H
  00006	89 4d f4	 mov	 DWORD PTR _this$[ebp], ecx

; 1493 :         auto& _My_data = _Mypair._Myval2;

  00009	8b 45 f4	 mov	 eax, DWORD PTR _this$[ebp]
  0000c	89 45 f8	 mov	 DWORD PTR __My_data$8[ebp], eax

; 1494 :         return static_cast<size_type>(_My_data._Myend - _My_data._Myfirst);

  0000f	8b 45 f8	 mov	 eax, DWORD PTR __My_data$8[ebp]
  00012	8b 4d f8	 mov	 ecx, DWORD PTR __My_data$8[ebp]
  00015	8b 40 08	 mov	 eax, DWORD PTR [eax+8]
  00018	2b 01		 sub	 eax, DWORD PTR [ecx]
  0001a	c1 f8 05	 sar	 eax, 5
  0001d	89 45 fc	 mov	 DWORD PTR __Oldcapacity$[ebp], eax

; 1737 :         return _Mypair._Get_first();

  00020	8b 45 f4	 mov	 eax, DWORD PTR _this$[ebp]
; File C:\Program Files (x86)\Microsoft Visual Studio\2019\Community\VC\Tools\MSVC\14.28.29333\include\xmemory

; 1351 :         return *this;

  00023	89 45 dc	 mov	 DWORD PTR $T5[ebp], eax
; File C:\Program Files (x86)\Microsoft Visual Studio\2019\Community\VC\Tools\MSVC\14.28.29333\include\vector

; 1737 :         return _Mypair._Get_first();

  00026	8b 45 dc	 mov	 eax, DWORD PTR $T5[ebp]
  00029	89 45 cc	 mov	 DWORD PTR $T1[ebp], eax
; File C:\Program Files (x86)\Microsoft Visual Studio\2019\Community\VC\Tools\MSVC\14.28.29333\include\xmemory

; 710  :         return static_cast<size_t>(-1) / sizeof(value_type);

  0002c	c7 45 f0 ff ff
	ff 07		 mov	 DWORD PTR $T7[ebp], 134217727 ; 07ffffffH
; File C:\Program Files (x86)\Microsoft Visual Studio\2019\Community\VC\Tools\MSVC\14.28.29333\include\limits

; 557  :         return INT_MAX;

  00033	c7 45 d8 ff ff
	ff 7f		 mov	 DWORD PTR $T4[ebp], 2147483647 ; 7fffffffH
; File C:\Program Files (x86)\Microsoft Visual Studio\2019\Community\VC\Tools\MSVC\14.28.29333\include\vector

; 1488 :         return (_STD min)(

  0003a	8b 45 d8	 mov	 eax, DWORD PTR $T4[ebp]
  0003d	89 45 ec	 mov	 DWORD PTR $T6[ebp], eax
; File C:\Program Files (x86)\Microsoft Visual Studio\2019\Community\VC\Tools\MSVC\14.28.29333\include\utility

; 68   :     return _Right < _Left ? _Right : _Left;

  00040	8b 45 f0	 mov	 eax, DWORD PTR $T7[ebp]
  00043	3b 45 ec	 cmp	 eax, DWORD PTR $T6[ebp]
  00046	73 08		 jae	 SHORT $LN25@Calculate_
  00048	8d 45 f0	 lea	 eax, DWORD PTR $T7[ebp]
  0004b	89 45 e8	 mov	 DWORD PTR tv82[ebp], eax
  0004e	eb 06		 jmp	 SHORT $LN26@Calculate_
$LN25@Calculate_:
  00050	8d 45 ec	 lea	 eax, DWORD PTR $T6[ebp]
  00053	89 45 e8	 mov	 DWORD PTR tv82[ebp], eax
$LN26@Calculate_:
  00056	8b 45 e8	 mov	 eax, DWORD PTR tv82[ebp]
  00059	89 45 d4	 mov	 DWORD PTR $T3[ebp], eax
  0005c	8b 45 d4	 mov	 eax, DWORD PTR $T3[ebp]
  0005f	89 45 d0	 mov	 DWORD PTR $T2[ebp], eax
; File C:\Program Files (x86)\Microsoft Visual Studio\2019\Community\VC\Tools\MSVC\14.28.29333\include\vector

; 1488 :         return (_STD min)(

  00062	8b 45 d0	 mov	 eax, DWORD PTR $T2[ebp]
  00065	8b 00		 mov	 eax, DWORD PTR [eax]
  00067	89 45 e4	 mov	 DWORD PTR __Max$[ebp], eax

; 1616 :         // given _Oldcapacity and _Newsize, calculate geometric growth
; 1617 :         const size_type _Oldcapacity = capacity();
; 1618 :         const auto _Max              = max_size();
; 1619 : 
; 1620 :         if (_Oldcapacity > _Max - _Oldcapacity / 2) {

  0006a	8b 45 fc	 mov	 eax, DWORD PTR __Oldcapacity$[ebp]
  0006d	d1 e8		 shr	 eax, 1
  0006f	8b 4d e4	 mov	 ecx, DWORD PTR __Max$[ebp]
  00072	2b c8		 sub	 ecx, eax
  00074	39 4d fc	 cmp	 DWORD PTR __Oldcapacity$[ebp], ecx
  00077	76 05		 jbe	 SHORT $LN2@Calculate_

; 1621 :             return _Max; // geometric growth would overflow

  00079	8b 45 e4	 mov	 eax, DWORD PTR __Max$[ebp]
  0007c	eb 1b		 jmp	 SHORT $LN1@Calculate_
$LN2@Calculate_:

; 1622 :         }
; 1623 : 
; 1624 :         const size_type _Geometric = _Oldcapacity + _Oldcapacity / 2;

  0007e	8b 45 fc	 mov	 eax, DWORD PTR __Oldcapacity$[ebp]
  00081	d1 e8		 shr	 eax, 1
  00083	03 45 fc	 add	 eax, DWORD PTR __Oldcapacity$[ebp]
  00086	89 45 e0	 mov	 DWORD PTR __Geometric$[ebp], eax

; 1625 : 
; 1626 :         if (_Geometric < _Newsize) {

  00089	8b 45 e0	 mov	 eax, DWORD PTR __Geometric$[ebp]
  0008c	3b 45 08	 cmp	 eax, DWORD PTR __Newsize$[ebp]
  0008f	73 05		 jae	 SHORT $LN3@Calculate_

; 1627 :             return _Newsize; // geometric growth would be insufficient

  00091	8b 45 08	 mov	 eax, DWORD PTR __Newsize$[ebp]
  00094	eb 03		 jmp	 SHORT $LN1@Calculate_
$LN3@Calculate_:

; 1628 :         }
; 1629 : 
; 1630 :         return _Geometric; // geometric growth is sufficient

  00096	8b 45 e0	 mov	 eax, DWORD PTR __Geometric$[ebp]
$LN1@Calculate_:

; 1631 :     }

  00099	c9		 leave
  0009a	c2 04 00	 ret	 4
?_Calculate_growth@?$vector@UTGradientColor@@V?$allocator@UTGradientColor@@@std@@@std@@ABEII@Z ENDP ; std::vector<TGradientColor,std::allocator<TGradientColor> >::_Calculate_growth
_TEXT	ENDS
; Function compile flags: /Odspy
; File C:\Program Files (x86)\Microsoft Visual Studio\2019\Community\VC\Tools\MSVC\14.28.29333\include\vector
; File C:\Program Files (x86)\Microsoft Visual Studio\2019\Community\VC\Tools\MSVC\14.28.29333\include\xmemory
; File C:\Program Files (x86)\Microsoft Visual Studio\2019\Community\VC\Tools\MSVC\14.28.29333\include\vector
;	COMDAT ?_Destroy@?$vector@UTGradientColor@@V?$allocator@UTGradientColor@@@std@@@std@@AAEXPAUTGradientColor@@0@Z
_TEXT	SEGMENT
$T1 = -12						; size = 4
$T2 = -8						; size = 4
_this$ = -4						; size = 4
__First$ = 8						; size = 4
__Last$ = 12						; size = 4
?_Destroy@?$vector@UTGradientColor@@V?$allocator@UTGradientColor@@@std@@@std@@AAEXPAUTGradientColor@@0@Z PROC ; std::vector<TGradientColor,std::allocator<TGradientColor> >::_Destroy, COMDAT
; _this$ = ecx

; 1611 :     void _Destroy(pointer _First, pointer _Last) { // destroy [_First, _Last) using allocator

  00000	55		 push	 ebp
  00001	8b ec		 mov	 ebp, esp
  00003	83 ec 0c	 sub	 esp, 12			; 0000000cH
  00006	89 4d fc	 mov	 DWORD PTR _this$[ebp], ecx

; 1733 :         return _Mypair._Get_first();

  00009	8b 45 fc	 mov	 eax, DWORD PTR _this$[ebp]
; File C:\Program Files (x86)\Microsoft Visual Studio\2019\Community\VC\Tools\MSVC\14.28.29333\include\xmemory

; 1347 :         return *this;

  0000c	89 45 f8	 mov	 DWORD PTR $T2[ebp], eax
; File C:\Program Files (x86)\Microsoft Visual Studio\2019\Community\VC\Tools\MSVC\14.28.29333\include\vector

; 1733 :         return _Mypair._Get_first();

  0000f	8b 45 f8	 mov	 eax, DWORD PTR $T2[ebp]
  00012	89 45 f4	 mov	 DWORD PTR $T1[ebp], eax

; 1612 :         _Destroy_range(_First, _Last, _Getal());

  00015	ff 75 f4	 push	 DWORD PTR $T1[ebp]
  00018	ff 75 0c	 push	 DWORD PTR __Last$[ebp]
  0001b	ff 75 08	 push	 DWORD PTR __First$[ebp]
  0001e	e8 00 00 00 00	 call	 ??$_Destroy_range@V?$allocator@UTGradientColor@@@std@@@std@@YAXPAUTGradientColor@@QAU1@AAV?$allocator@UTGradientColor@@@0@@Z ; std::_Destroy_range<std::allocator<TGradientColor> >
  00023	83 c4 0c	 add	 esp, 12			; 0000000cH

; 1613 :     }

  00026	c9		 leave
  00027	c2 08 00	 ret	 8
?_Destroy@?$vector@UTGradientColor@@V?$allocator@UTGradientColor@@@std@@@std@@AAEXPAUTGradientColor@@0@Z ENDP ; std::vector<TGradientColor,std::allocator<TGradientColor> >::_Destroy
_TEXT	ENDS
; Function compile flags: /Odspy
; File C:\Program Files (x86)\Microsoft Visual Studio\2019\Community\VC\Tools\MSVC\14.28.29333\include\vector
; File C:\Program Files (x86)\Microsoft Visual Studio\2019\Community\VC\Tools\MSVC\14.28.29333\include\xmemory
; File C:\Program Files (x86)\Microsoft Visual Studio\2019\Community\VC\Tools\MSVC\14.28.29333\include\vector
;	COMDAT ?clear@?$vector@UTGradientColor@@V?$allocator@UTGradientColor@@@std@@@std@@QAEXXZ
_TEXT	SEGMENT
__First$ = -32						; size = 4
__Last$ = -28						; size = 4
$T1 = -24						; size = 4
$T2 = -20						; size = 4
__Myfirst$ = -16					; size = 4
__Mylast$ = -12						; size = 4
_this$ = -8						; size = 4
__My_data$ = -4						; size = 4
?clear@?$vector@UTGradientColor@@V?$allocator@UTGradientColor@@@std@@@std@@QAEXXZ PROC ; std::vector<TGradientColor,std::allocator<TGradientColor> >::clear, COMDAT
; _this$ = ecx

; 1383 :     void clear() noexcept { // erase all

  00000	55		 push	 ebp
  00001	8b ec		 mov	 ebp, esp
  00003	83 ec 20	 sub	 esp, 32			; 00000020H
  00006	89 4d f8	 mov	 DWORD PTR _this$[ebp], ecx

; 1384 :         auto& _My_data    = _Mypair._Myval2;

  00009	8b 45 f8	 mov	 eax, DWORD PTR _this$[ebp]
  0000c	89 45 fc	 mov	 DWORD PTR __My_data$[ebp], eax

; 1385 :         pointer& _Myfirst = _My_data._Myfirst;

  0000f	8b 45 fc	 mov	 eax, DWORD PTR __My_data$[ebp]
  00012	89 45 f0	 mov	 DWORD PTR __Myfirst$[ebp], eax

; 1386 :         pointer& _Mylast  = _My_data._Mylast;

  00015	8b 45 fc	 mov	 eax, DWORD PTR __My_data$[ebp]
  00018	83 c0 04	 add	 eax, 4
  0001b	89 45 f4	 mov	 DWORD PTR __Mylast$[ebp], eax

; 1387 : 
; 1388 :         _My_data._Orphan_all();
; 1389 :         _Destroy(_Myfirst, _Mylast);

  0001e	8b 45 f4	 mov	 eax, DWORD PTR __Mylast$[ebp]
  00021	8b 00		 mov	 eax, DWORD PTR [eax]
  00023	89 45 e4	 mov	 DWORD PTR __Last$[ebp], eax
  00026	8b 45 f0	 mov	 eax, DWORD PTR __Myfirst$[ebp]
  00029	8b 00		 mov	 eax, DWORD PTR [eax]
  0002b	89 45 e0	 mov	 DWORD PTR __First$[ebp], eax

; 1733 :         return _Mypair._Get_first();

  0002e	8b 45 f8	 mov	 eax, DWORD PTR _this$[ebp]
; File C:\Program Files (x86)\Microsoft Visual Studio\2019\Community\VC\Tools\MSVC\14.28.29333\include\xmemory

; 1347 :         return *this;

  00031	89 45 ec	 mov	 DWORD PTR $T2[ebp], eax
; File C:\Program Files (x86)\Microsoft Visual Studio\2019\Community\VC\Tools\MSVC\14.28.29333\include\vector

; 1733 :         return _Mypair._Get_first();

  00034	8b 45 ec	 mov	 eax, DWORD PTR $T2[ebp]
  00037	89 45 e8	 mov	 DWORD PTR $T1[ebp], eax

; 1612 :         _Destroy_range(_First, _Last, _Getal());

  0003a	ff 75 e8	 push	 DWORD PTR $T1[ebp]
  0003d	ff 75 e4	 push	 DWORD PTR __Last$[ebp]
  00040	ff 75 e0	 push	 DWORD PTR __First$[ebp]
  00043	e8 00 00 00 00	 call	 ??$_Destroy_range@V?$allocator@UTGradientColor@@@std@@@std@@YAXPAUTGradientColor@@QAU1@AAV?$allocator@UTGradientColor@@@0@@Z ; std::_Destroy_range<std::allocator<TGradientColor> >
  00048	83 c4 0c	 add	 esp, 12			; 0000000cH

; 1390 :         _Mylast = _Myfirst;

  0004b	8b 45 f4	 mov	 eax, DWORD PTR __Mylast$[ebp]
  0004e	8b 4d f0	 mov	 ecx, DWORD PTR __Myfirst$[ebp]
  00051	8b 09		 mov	 ecx, DWORD PTR [ecx]
  00053	89 08		 mov	 DWORD PTR [eax], ecx

; 1391 :     }

  00055	c9		 leave
  00056	c3		 ret	 0
?clear@?$vector@UTGradientColor@@V?$allocator@UTGradientColor@@@std@@@std@@QAEXXZ ENDP ; std::vector<TGradientColor,std::allocator<TGradientColor> >::clear
_TEXT	ENDS
; Function compile flags: /Odspy
; File C:\Program Files (x86)\Microsoft Visual Studio\2019\Community\VC\Tools\MSVC\14.28.29333\include\xmemory
;	COMDAT ?deallocate@?$allocator@UTGradientColor@@@std@@QAEXQAUTGradientColor@@I@Z
_TEXT	SEGMENT
_this$ = -4						; size = 4
__Ptr$ = 8						; size = 4
__Count$ = 12						; size = 4
?deallocate@?$allocator@UTGradientColor@@@std@@QAEXQAUTGradientColor@@I@Z PROC ; std::allocator<TGradientColor>::deallocate, COMDAT
; _this$ = ecx

; 808  :     void deallocate(_Ty* const _Ptr, const size_t _Count) {

  00000	55		 push	 ebp
  00001	8b ec		 mov	 ebp, esp
  00003	51		 push	 ecx
  00004	89 4d fc	 mov	 DWORD PTR _this$[ebp], ecx

; 809  :         // no overflow check on the following multiply; we assume _Allocate did that check
; 810  :         _Deallocate<_New_alignof<_Ty>>(_Ptr, sizeof(_Ty) * _Count);

  00007	8b 45 0c	 mov	 eax, DWORD PTR __Count$[ebp]
  0000a	c1 e0 05	 shl	 eax, 5
  0000d	50		 push	 eax
  0000e	ff 75 08	 push	 DWORD PTR __Ptr$[ebp]
  00011	e8 00 00 00 00	 call	 ??$_Deallocate@$07$0A@@std@@YAXPAXI@Z ; std::_Deallocate<8,0>
  00016	59		 pop	 ecx
  00017	59		 pop	 ecx

; 811  :     }

  00018	c9		 leave
  00019	c2 08 00	 ret	 8
?deallocate@?$allocator@UTGradientColor@@@std@@QAEXQAUTGradientColor@@I@Z ENDP ; std::allocator<TGradientColor>::deallocate
_TEXT	ENDS
; Function compile flags: /Odspy
; File D:\Metin2 Server Files\mainline\SRC_2014\Metin2Client\eterLib\SkyBox.h
;	COMDAT ??0TGradientColor@@QAE@XZ
_TEXT	SEGMENT
_this$ = -12						; size = 4
_this$ = -8						; size = 4
_this$ = -4						; size = 4
??0TGradientColor@@QAE@XZ PROC				; TGradientColor::TGradientColor, COMDAT
; _this$ = ecx
  00000	55		 push	 ebp
  00001	8b ec		 mov	 ebp, esp
  00003	83 ec 0c	 sub	 esp, 12			; 0000000cH
  00006	89 4d f4	 mov	 DWORD PTR _this$[ebp], ecx
  00009	8b 45 f4	 mov	 eax, DWORD PTR _this$[ebp]
  0000c	89 45 fc	 mov	 DWORD PTR _this$[ebp], eax

; 22   : 	SColor(float _r = 0.0f, float _g = 0.0f, float _b = 0.0f, float _a = 0.0f) : r(_r), g(_g), b(_b), a(_a){}

  0000f	8b 45 fc	 mov	 eax, DWORD PTR _this$[ebp]
  00012	0f 57 c0	 xorps	 xmm0, xmm0
  00015	f3 0f 11 00	 movss	 DWORD PTR [eax], xmm0
  00019	8b 45 fc	 mov	 eax, DWORD PTR _this$[ebp]
  0001c	0f 57 c0	 xorps	 xmm0, xmm0
  0001f	f3 0f 11 40 04	 movss	 DWORD PTR [eax+4], xmm0
  00024	8b 45 fc	 mov	 eax, DWORD PTR _this$[ebp]
  00027	0f 57 c0	 xorps	 xmm0, xmm0
  0002a	f3 0f 11 40 08	 movss	 DWORD PTR [eax+8], xmm0
  0002f	8b 45 fc	 mov	 eax, DWORD PTR _this$[ebp]
  00032	0f 57 c0	 xorps	 xmm0, xmm0
  00035	f3 0f 11 40 0c	 movss	 DWORD PTR [eax+12], xmm0
  0003a	8b 45 f4	 mov	 eax, DWORD PTR _this$[ebp]
  0003d	83 c0 10	 add	 eax, 16			; 00000010H
  00040	89 45 f8	 mov	 DWORD PTR _this$[ebp], eax
  00043	8b 45 f8	 mov	 eax, DWORD PTR _this$[ebp]
  00046	0f 57 c0	 xorps	 xmm0, xmm0
  00049	f3 0f 11 00	 movss	 DWORD PTR [eax], xmm0
  0004d	8b 45 f8	 mov	 eax, DWORD PTR _this$[ebp]
  00050	0f 57 c0	 xorps	 xmm0, xmm0
  00053	f3 0f 11 40 04	 movss	 DWORD PTR [eax+4], xmm0
  00058	8b 45 f8	 mov	 eax, DWORD PTR _this$[ebp]
  0005b	0f 57 c0	 xorps	 xmm0, xmm0
  0005e	f3 0f 11 40 08	 movss	 DWORD PTR [eax+8], xmm0
  00063	8b 45 f8	 mov	 eax, DWORD PTR _this$[ebp]
  00066	0f 57 c0	 xorps	 xmm0, xmm0
  00069	f3 0f 11 40 0c	 movss	 DWORD PTR [eax+12], xmm0
  0006e	8b 45 f4	 mov	 eax, DWORD PTR _this$[ebp]
  00071	c9		 leave
  00072	c3		 ret	 0
??0TGradientColor@@QAE@XZ ENDP				; TGradientColor::TGradientColor
_TEXT	ENDS
; Function compile flags: /Odspy
; File C:\Program Files (x86)\Microsoft Visual Studio\2019\Community\VC\Tools\MSVC\14.28.29333\include\vector
;	COMDAT ?_Xrange@?$vector@V?$basic_string@DU?$char_traits@D@std@@V?$allocator@D@2@@std@@V?$allocator@V?$basic_string@DU?$char_traits@D@std@@V?$allocator@D@2@@std@@@2@@std@@CAXXZ
_TEXT	SEGMENT
?_Xrange@?$vector@V?$basic_string@DU?$char_traits@D@std@@V?$allocator@D@2@@std@@V?$allocator@V?$basic_string@DU?$char_traits@D@std@@V?$allocator@D@2@@std@@@2@@std@@CAXXZ PROC ; std::vector<std::basic_string<char,std::char_traits<char>,std::allocator<char> >,std::allocator<std::basic_string<char,std::char_traits<char>,std::allocator<char> > > >::_Xrange, COMDAT

; 1708 :     [[noreturn]] static void _Xrange() {

  00000	55		 push	 ebp
  00001	8b ec		 mov	 ebp, esp

; 1709 :         _Xout_of_range("invalid vector subscript");

  00003	68 00 00 00 00	 push	 OFFSET ??_C@_0BJ@DHFDPMIM@invalid?5vector?5subscript@
  00008	e8 00 00 00 00	 call	 ?_Xout_of_range@std@@YAXPBD@Z ; std::_Xout_of_range
$LN2@Xrange:

; 1710 :     }

  0000d	5d		 pop	 ebp
  0000e	c3		 ret	 0
?_Xrange@?$vector@V?$basic_string@DU?$char_traits@D@std@@V?$allocator@D@2@@std@@V?$allocator@V?$basic_string@DU?$char_traits@D@std@@V?$allocator@D@2@@std@@@2@@std@@CAXXZ ENDP ; std::vector<std::basic_string<char,std::char_traits<char>,std::allocator<char> >,std::allocator<std::basic_string<char,std::char_traits<char>,std::allocator<char> > > >::_Xrange
_TEXT	ENDS
; Function compile flags: /Odspy
; File C:\Program Files (x86)\Microsoft Visual Studio\2019\Community\VC\Tools\MSVC\14.28.29333\include\vector
;	COMDAT ?at@?$vector@V?$basic_string@DU?$char_traits@D@std@@V?$allocator@D@2@@std@@V?$allocator@V?$basic_string@DU?$char_traits@D@std@@V?$allocator@D@2@@std@@@2@@std@@QAEAAV?$basic_string@DU?$char_traits@D@std@@V?$allocator@D@2@@2@I@Z
_TEXT	SEGMENT
_this$ = -8						; size = 4
__My_data$ = -4						; size = 4
__Pos$ = 8						; size = 4
?at@?$vector@V?$basic_string@DU?$char_traits@D@std@@V?$allocator@D@2@@std@@V?$allocator@V?$basic_string@DU?$char_traits@D@std@@V?$allocator@D@2@@std@@@2@@std@@QAEAAV?$basic_string@DU?$char_traits@D@std@@V?$allocator@D@2@@2@I@Z PROC ; std::vector<std::basic_string<char,std::char_traits<char>,std::allocator<char> >,std::allocator<std::basic_string<char,std::char_traits<char>,std::allocator<char> > > >::at, COMDAT
; _this$ = ecx

; 1517 :     _NODISCARD _Ty& at(const size_type _Pos) {

  00000	55		 push	 ebp
  00001	8b ec		 mov	 ebp, esp
  00003	51		 push	 ecx
  00004	51		 push	 ecx
  00005	89 4d f8	 mov	 DWORD PTR _this$[ebp], ecx

; 1518 :         auto& _My_data = _Mypair._Myval2;

  00008	8b 45 f8	 mov	 eax, DWORD PTR _this$[ebp]
  0000b	89 45 fc	 mov	 DWORD PTR __My_data$[ebp], eax

; 1519 :         if (static_cast<size_type>(_My_data._Mylast - _My_data._Myfirst) <= _Pos) {

  0000e	8b 45 fc	 mov	 eax, DWORD PTR __My_data$[ebp]
  00011	8b 4d fc	 mov	 ecx, DWORD PTR __My_data$[ebp]
  00014	8b 40 04	 mov	 eax, DWORD PTR [eax+4]
  00017	2b 01		 sub	 eax, DWORD PTR [ecx]
  00019	99		 cdq
  0001a	6a 18		 push	 24			; 00000018H
  0001c	59		 pop	 ecx
  0001d	f7 f9		 idiv	 ecx
  0001f	3b 45 08	 cmp	 eax, DWORD PTR __Pos$[ebp]
  00022	77 05		 ja	 SHORT $LN2@at

; 1520 :             _Xrange();

  00024	e8 00 00 00 00	 call	 ?_Xrange@?$vector@V?$basic_string@DU?$char_traits@D@std@@V?$allocator@D@2@@std@@V?$allocator@V?$basic_string@DU?$char_traits@D@std@@V?$allocator@D@2@@std@@@2@@std@@CAXXZ ; std::vector<std::basic_string<char,std::char_traits<char>,std::allocator<char> >,std::allocator<std::basic_string<char,std::char_traits<char>,std::allocator<char> > > >::_Xrange
$LN2@at:

; 1521 :         }
; 1522 : 
; 1523 :         return _My_data._Myfirst[_Pos];

  00029	6b 45 08 18	 imul	 eax, DWORD PTR __Pos$[ebp], 24
  0002d	8b 4d fc	 mov	 ecx, DWORD PTR __My_data$[ebp]
  00030	03 01		 add	 eax, DWORD PTR [ecx]
$LN3@at:

; 1524 :     }

  00032	c9		 leave
  00033	c2 04 00	 ret	 4
?at@?$vector@V?$basic_string@DU?$char_traits@D@std@@V?$allocator@D@2@@std@@V?$allocator@V?$basic_string@DU?$char_traits@D@std@@V?$allocator@D@2@@std@@@2@@std@@QAEAAV?$basic_string@DU?$char_traits@D@std@@V?$allocator@D@2@@2@I@Z ENDP ; std::vector<std::basic_string<char,std::char_traits<char>,std::allocator<char> >,std::allocator<std::basic_string<char,std::char_traits<char>,std::allocator<char> > > >::at
_TEXT	ENDS
; Function compile flags: /Odspy
;	COMDAT ??1?$_Compressed_pair@V?$allocator@D@std@@V?$_String_val@U?$_Simple_types@D@std@@@2@$00@std@@QAE@XZ
_TEXT	SEGMENT
_this$ = -4						; size = 4
??1?$_Compressed_pair@V?$allocator@D@std@@V?$_String_val@U?$_Simple_types@D@std@@@2@$00@std@@QAE@XZ PROC ; std::_Compressed_pair<std::allocator<char>,std::_String_val<std::_Simple_types<char> >,1>::~_Compressed_pair<std::allocator<char>,std::_String_val<std::_Simple_types<char> >,1>, COMDAT
; _this$ = ecx
  00000	55		 push	 ebp
  00001	8b ec		 mov	 ebp, esp
  00003	51		 push	 ecx
  00004	89 4d fc	 mov	 DWORD PTR _this$[ebp], ecx
  00007	c9		 leave
  00008	c3		 ret	 0
??1?$_Compressed_pair@V?$allocator@D@std@@V?$_String_val@U?$_Simple_types@D@std@@@2@$00@std@@QAE@XZ ENDP ; std::_Compressed_pair<std::allocator<char>,std::_String_val<std::_Simple_types<char> >,1>::~_Compressed_pair<std::allocator<char>,std::_String_val<std::_Simple_types<char> >,1>
_TEXT	ENDS
; Function compile flags: /Odspy
; File C:\Program Files (x86)\Microsoft Visual Studio\2019\Community\VC\Tools\MSVC\14.28.29333\include\xstring
; File C:\Program Files (x86)\Microsoft Visual Studio\2019\Community\VC\Tools\MSVC\14.28.29333\include\xmemory
; File C:\Program Files (x86)\Microsoft Visual Studio\2019\Community\VC\Tools\MSVC\14.28.29333\include\xstring
; File C:\Program Files (x86)\Microsoft Visual Studio\2019\Community\VC\Tools\MSVC\14.28.29333\include\xmemory
; File C:\Program Files (x86)\Microsoft Visual Studio\2019\Community\VC\Tools\MSVC\14.28.29333\include\xstring
;	COMDAT ?_Tidy_deallocate@?$basic_string@DU?$char_traits@D@std@@V?$allocator@D@2@@std@@AAEXXZ
_TEXT	SEGMENT
__Al$1 = -28						; size = 4
__Ptr$2 = -24						; size = 4
__Count$ = -20						; size = 4
$T3 = -16						; size = 4
tv68 = -12						; size = 4
_this$ = -8						; size = 4
$T4 = -2						; size = 1
$T5 = -1						; size = 1
?_Tidy_deallocate@?$basic_string@DU?$char_traits@D@std@@V?$allocator@D@2@@std@@AAEXXZ PROC ; std::basic_string<char,std::char_traits<char>,std::allocator<char> >::_Tidy_deallocate, COMDAT
; _this$ = ecx

; 4383 :     void _Tidy_deallocate() noexcept { // initialize buffer, deallocating any storage

  00000	55		 push	 ebp
  00001	8b ec		 mov	 ebp, esp
  00003	83 ec 1c	 sub	 esp, 28			; 0000001cH
  00006	89 4d f8	 mov	 DWORD PTR _this$[ebp], ecx

; 2227 :         return _BUF_SIZE <= _Myres;

  00009	8b 45 f8	 mov	 eax, DWORD PTR _this$[ebp]
  0000c	83 78 14 10	 cmp	 DWORD PTR [eax+20], 16	; 00000010H
  00010	72 09		 jb	 SHORT $LN9@Tidy_deall
  00012	c7 45 f4 01 00
	00 00		 mov	 DWORD PTR tv68[ebp], 1
  00019	eb 04		 jmp	 SHORT $LN10@Tidy_deall
$LN9@Tidy_deall:
  0001b	83 65 f4 00	 and	 DWORD PTR tv68[ebp], 0
$LN10@Tidy_deall:
  0001f	8a 45 f4	 mov	 al, BYTE PTR tv68[ebp]
  00022	88 45 ff	 mov	 BYTE PTR $T5[ebp], al

; 4384 :         _Mypair._Myval2._Orphan_all();
; 4385 :         if (_Mypair._Myval2._Large_string_engaged()) {

  00025	0f b6 45 ff	 movzx	 eax, BYTE PTR $T5[ebp]
  00029	85 c0		 test	 eax, eax
  0002b	74 34		 je	 SHORT $LN2@Tidy_deall

; 4386 :             const pointer _Ptr = _Mypair._Myval2._Bx._Ptr;

  0002d	8b 45 f8	 mov	 eax, DWORD PTR _this$[ebp]
  00030	8b 00		 mov	 eax, DWORD PTR [eax]
  00032	89 45 e8	 mov	 DWORD PTR __Ptr$2[ebp], eax

; 4409 :         return _Mypair._Get_first();

  00035	8b 45 f8	 mov	 eax, DWORD PTR _this$[ebp]
; File C:\Program Files (x86)\Microsoft Visual Studio\2019\Community\VC\Tools\MSVC\14.28.29333\include\xmemory

; 1347 :         return *this;

  00038	89 45 f0	 mov	 DWORD PTR $T3[ebp], eax
; File C:\Program Files (x86)\Microsoft Visual Studio\2019\Community\VC\Tools\MSVC\14.28.29333\include\xstring

; 4409 :         return _Mypair._Get_first();

  0003b	8b 45 f0	 mov	 eax, DWORD PTR $T3[ebp]
  0003e	89 45 e4	 mov	 DWORD PTR __Al$1[ebp], eax

; 4387 :             auto& _Al          = _Getal();
; 4388 :             _Destroy_in_place(_Mypair._Myval2._Bx._Ptr);

  00041	ff 75 f8	 push	 DWORD PTR _this$[ebp]
  00044	e8 00 00 00 00	 call	 ??$_Destroy_in_place@PAD@std@@YAXAAPAD@Z ; std::_Destroy_in_place<char *>
  00049	59		 pop	 ecx

; 4389 :             _Al.deallocate(_Ptr, _Mypair._Myval2._Myres + 1);

  0004a	8b 45 f8	 mov	 eax, DWORD PTR _this$[ebp]
  0004d	8b 40 14	 mov	 eax, DWORD PTR [eax+20]
  00050	40		 inc	 eax
  00051	89 45 ec	 mov	 DWORD PTR __Count$[ebp], eax
; File C:\Program Files (x86)\Microsoft Visual Studio\2019\Community\VC\Tools\MSVC\14.28.29333\include\xmemory

; 810  :         _Deallocate<_New_alignof<_Ty>>(_Ptr, sizeof(_Ty) * _Count);

  00054	ff 75 ec	 push	 DWORD PTR __Count$[ebp]
  00057	ff 75 e8	 push	 DWORD PTR __Ptr$2[ebp]
  0005a	e8 00 00 00 00	 call	 ??$_Deallocate@$07$0A@@std@@YAXPAXI@Z ; std::_Deallocate<8,0>
  0005f	59		 pop	 ecx
  00060	59		 pop	 ecx
$LN2@Tidy_deall:
; File C:\Program Files (x86)\Microsoft Visual Studio\2019\Community\VC\Tools\MSVC\14.28.29333\include\xstring

; 4392 :         _Mypair._Myval2._Mysize = 0;

  00061	8b 45 f8	 mov	 eax, DWORD PTR _this$[ebp]
  00064	83 60 10 00	 and	 DWORD PTR [eax+16], 0

; 4393 :         _Mypair._Myval2._Myres  = _BUF_SIZE - 1;

  00068	8b 45 f8	 mov	 eax, DWORD PTR _this$[ebp]
  0006b	c7 40 14 0f 00
	00 00		 mov	 DWORD PTR [eax+20], 15	; 0000000fH

; 4394 :         // the _Traits::assign is last so the codegen doesn't think the char write can alias this
; 4395 :         _Traits::assign(_Mypair._Myval2._Bx._Buf[0], _Elem());

  00072	c6 45 fe 00	 mov	 BYTE PTR $T4[ebp], 0
  00076	33 c0		 xor	 eax, eax
  00078	40		 inc	 eax
  00079	6b c0 00	 imul	 eax, eax, 0

; 428  :         _Left = _Right;

  0007c	8b 4d f8	 mov	 ecx, DWORD PTR _this$[ebp]
  0007f	8a 55 fe	 mov	 dl, BYTE PTR $T4[ebp]
  00082	88 14 01	 mov	 BYTE PTR [ecx+eax], dl

; 4396 :     }

  00085	c9		 leave
  00086	c3		 ret	 0
?_Tidy_deallocate@?$basic_string@DU?$char_traits@D@std@@V?$allocator@D@2@@std@@AAEXXZ ENDP ; std::basic_string<char,std::char_traits<char>,std::allocator<char> >::_Tidy_deallocate
_TEXT	ENDS
; Function compile flags: /Odspy
; File C:\Program Files (x86)\Microsoft Visual Studio\2019\Community\VC\Tools\MSVC\14.28.29333\include\xstring
;	COMDAT ?_Tidy_init@?$basic_string@DU?$char_traits@D@std@@V?$allocator@D@2@@std@@AAEXXZ
_TEXT	SEGMENT
_this$ = -8						; size = 4
$T1 = -1						; size = 1
?_Tidy_init@?$basic_string@DU?$char_traits@D@std@@V?$allocator@D@2@@std@@AAEXXZ PROC ; std::basic_string<char,std::char_traits<char>,std::allocator<char> >::_Tidy_init, COMDAT
; _this$ = ecx

; 4376 :     void _Tidy_init() noexcept { // initialize basic_string data members

  00000	55		 push	 ebp
  00001	8b ec		 mov	 ebp, esp
  00003	51		 push	 ecx
  00004	51		 push	 ecx
  00005	89 4d f8	 mov	 DWORD PTR _this$[ebp], ecx

; 4377 :         _Mypair._Myval2._Mysize = 0;

  00008	8b 45 f8	 mov	 eax, DWORD PTR _this$[ebp]
  0000b	83 60 10 00	 and	 DWORD PTR [eax+16], 0

; 4378 :         _Mypair._Myval2._Myres  = _BUF_SIZE - 1;

  0000f	8b 45 f8	 mov	 eax, DWORD PTR _this$[ebp]
  00012	c7 40 14 0f 00
	00 00		 mov	 DWORD PTR [eax+20], 15	; 0000000fH

; 4379 :         // the _Traits::assign is last so the codegen doesn't think the char write can alias this
; 4380 :         _Traits::assign(_Mypair._Myval2._Bx._Buf[0], _Elem());

  00019	c6 45 ff 00	 mov	 BYTE PTR $T1[ebp], 0
  0001d	33 c0		 xor	 eax, eax
  0001f	40		 inc	 eax
  00020	6b c0 00	 imul	 eax, eax, 0

; 428  :         _Left = _Right;

  00023	8b 4d f8	 mov	 ecx, DWORD PTR _this$[ebp]
  00026	8a 55 ff	 mov	 dl, BYTE PTR $T1[ebp]
  00029	88 14 01	 mov	 BYTE PTR [ecx+eax], dl

; 4381 :     }

  0002c	c9		 leave
  0002d	c3		 ret	 0
?_Tidy_init@?$basic_string@DU?$char_traits@D@std@@V?$allocator@D@2@@std@@AAEXXZ ENDP ; std::basic_string<char,std::char_traits<char>,std::allocator<char> >::_Tidy_init
_TEXT	ENDS
; Function compile flags: /Odspy
; File C:\Program Files (x86)\Microsoft Visual Studio\2019\Community\VC\Tools\MSVC\14.28.29333\include\xstring
; File C:\Program Files (x86)\Microsoft Visual Studio\2019\Community\VC\Tools\MSVC\14.28.29333\include\utility
; File C:\Program Files (x86)\Microsoft Visual Studio\2019\Community\VC\Tools\MSVC\14.28.29333\include\xstring
;	COMDAT ?_Calculate_growth@?$basic_string@DU?$char_traits@D@std@@V?$allocator@D@2@@std@@ABEII@Z
_TEXT	SEGMENT
$T1 = -36						; size = 4
$T2 = -32						; size = 4
tv93 = -28						; size = 4
$T3 = -24						; size = 4
_this$ = -20						; size = 4
$T4 = -16						; size = 4
__Masked$5 = -12					; size = 4
__Old$ = -8						; size = 4
__Max$ = -4						; size = 4
__Requested$ = 8					; size = 4
?_Calculate_growth@?$basic_string@DU?$char_traits@D@std@@V?$allocator@D@2@@std@@ABEII@Z PROC ; std::basic_string<char,std::char_traits<char>,std::allocator<char> >::_Calculate_growth, COMDAT
; _this$ = ecx

; 4297 :     _NODISCARD size_type _Calculate_growth(const size_type _Requested) const noexcept {

  00000	55		 push	 ebp
  00001	8b ec		 mov	 ebp, esp
  00003	83 ec 24	 sub	 esp, 36			; 00000024H
  00006	89 4d ec	 mov	 DWORD PTR _this$[ebp], ecx

; 4298 :         return _Calculate_growth(_Requested, _Mypair._Myval2._Myres, max_size());

  00009	8b 4d ec	 mov	 ecx, DWORD PTR _this$[ebp]
  0000c	e8 00 00 00 00	 call	 ?max_size@?$basic_string@DU?$char_traits@D@std@@V?$allocator@D@2@@std@@QBEIXZ ; std::basic_string<char,std::char_traits<char>,std::allocator<char> >::max_size
  00011	89 45 fc	 mov	 DWORD PTR __Max$[ebp], eax
  00014	8b 45 ec	 mov	 eax, DWORD PTR _this$[ebp]
  00017	8b 40 14	 mov	 eax, DWORD PTR [eax+20]
  0001a	89 45 f8	 mov	 DWORD PTR __Old$[ebp], eax

; 4285 :         const size_type _Masked = _Requested | _ALLOC_MASK;

  0001d	8b 45 08	 mov	 eax, DWORD PTR __Requested$[ebp]
  00020	83 c8 0f	 or	 eax, 15			; 0000000fH
  00023	89 45 f4	 mov	 DWORD PTR __Masked$5[ebp], eax

; 4286 :         if (_Masked > _Max) { // the mask overflows, settle for max_size()

  00026	8b 45 f4	 mov	 eax, DWORD PTR __Masked$5[ebp]
  00029	3b 45 fc	 cmp	 eax, DWORD PTR __Max$[ebp]
  0002c	76 08		 jbe	 SHORT $LN29@Calculate_

; 4287 :             return _Max;

  0002e	8b 45 fc	 mov	 eax, DWORD PTR __Max$[ebp]
  00031	89 45 f0	 mov	 DWORD PTR $T4[ebp], eax
  00034	eb 4c		 jmp	 SHORT $LN31@Calculate_
$LN29@Calculate_:

; 4288 :         }
; 4289 : 
; 4290 :         if (_Old > _Max - _Old / 2) { // similarly, geometric overflows

  00036	8b 45 f8	 mov	 eax, DWORD PTR __Old$[ebp]
  00039	d1 e8		 shr	 eax, 1
  0003b	8b 4d fc	 mov	 ecx, DWORD PTR __Max$[ebp]
  0003e	2b c8		 sub	 ecx, eax
  00040	39 4d f8	 cmp	 DWORD PTR __Old$[ebp], ecx
  00043	76 08		 jbe	 SHORT $LN30@Calculate_

; 4291 :             return _Max;

  00045	8b 45 fc	 mov	 eax, DWORD PTR __Max$[ebp]
  00048	89 45 f0	 mov	 DWORD PTR $T4[ebp], eax
  0004b	eb 35		 jmp	 SHORT $LN31@Calculate_
$LN30@Calculate_:

; 4294 :         return (_STD max)(_Masked, _Old + _Old / 2);

  0004d	8b 45 f8	 mov	 eax, DWORD PTR __Old$[ebp]
  00050	d1 e8		 shr	 eax, 1
  00052	03 45 f8	 add	 eax, DWORD PTR __Old$[ebp]
  00055	89 45 e8	 mov	 DWORD PTR $T3[ebp], eax
; File C:\Program Files (x86)\Microsoft Visual Studio\2019\Community\VC\Tools\MSVC\14.28.29333\include\utility

; 44   :     return _Left < _Right ? _Right : _Left;

  00058	8b 45 f4	 mov	 eax, DWORD PTR __Masked$5[ebp]
  0005b	3b 45 e8	 cmp	 eax, DWORD PTR $T3[ebp]
  0005e	73 08		 jae	 SHORT $LN35@Calculate_
  00060	8d 45 e8	 lea	 eax, DWORD PTR $T3[ebp]
  00063	89 45 e4	 mov	 DWORD PTR tv93[ebp], eax
  00066	eb 06		 jmp	 SHORT $LN36@Calculate_
$LN35@Calculate_:
  00068	8d 45 f4	 lea	 eax, DWORD PTR __Masked$5[ebp]
  0006b	89 45 e4	 mov	 DWORD PTR tv93[ebp], eax
$LN36@Calculate_:
  0006e	8b 45 e4	 mov	 eax, DWORD PTR tv93[ebp]
  00071	89 45 e0	 mov	 DWORD PTR $T2[ebp], eax
  00074	8b 45 e0	 mov	 eax, DWORD PTR $T2[ebp]
  00077	89 45 dc	 mov	 DWORD PTR $T1[ebp], eax
; File C:\Program Files (x86)\Microsoft Visual Studio\2019\Community\VC\Tools\MSVC\14.28.29333\include\xstring

; 4294 :         return (_STD max)(_Masked, _Old + _Old / 2);

  0007a	8b 45 dc	 mov	 eax, DWORD PTR $T1[ebp]
  0007d	8b 00		 mov	 eax, DWORD PTR [eax]
  0007f	89 45 f0	 mov	 DWORD PTR $T4[ebp], eax
$LN31@Calculate_:

; 4298 :         return _Calculate_growth(_Requested, _Mypair._Myval2._Myres, max_size());

  00082	8b 45 f0	 mov	 eax, DWORD PTR $T4[ebp]

; 4299 :     }

  00085	c9		 leave
  00086	c2 04 00	 ret	 4
?_Calculate_growth@?$basic_string@DU?$char_traits@D@std@@V?$allocator@D@2@@std@@ABEII@Z ENDP ; std::basic_string<char,std::char_traits<char>,std::allocator<char> >::_Calculate_growth
_TEXT	ENDS
; Function compile flags: /Odspy
; File C:\Program Files (x86)\Microsoft Visual Studio\2019\Community\VC\Tools\MSVC\14.28.29333\include\xstring
; File C:\Program Files (x86)\Microsoft Visual Studio\2019\Community\VC\Tools\MSVC\14.28.29333\include\xmemory
; File C:\Program Files (x86)\Microsoft Visual Studio\2019\Community\VC\Tools\MSVC\14.28.29333\include\xstring
; File C:\Program Files (x86)\Microsoft Visual Studio\2019\Community\VC\Tools\MSVC\14.28.29333\include\xmemory
; File C:\Program Files (x86)\Microsoft Visual Studio\2019\Community\VC\Tools\MSVC\14.28.29333\include\xstring
; File C:\Program Files (x86)\Microsoft Visual Studio\2019\Community\VC\Tools\MSVC\14.28.29333\include\utility
; File C:\Program Files (x86)\Microsoft Visual Studio\2019\Community\VC\Tools\MSVC\14.28.29333\include\xstring
; File C:\Program Files (x86)\Microsoft Visual Studio\2019\Community\VC\Tools\MSVC\14.28.29333\include\limits
; File C:\Program Files (x86)\Microsoft Visual Studio\2019\Community\VC\Tools\MSVC\14.28.29333\include\xstring
; File C:\Program Files (x86)\Microsoft Visual Studio\2019\Community\VC\Tools\MSVC\14.28.29333\include\utility
; File C:\Program Files (x86)\Microsoft Visual Studio\2019\Community\VC\Tools\MSVC\14.28.29333\include\xstring
;	COMDAT ?max_size@?$basic_string@DU?$char_traits@D@std@@V?$allocator@D@2@@std@@QBEIXZ
_TEXT	SEGMENT
$T1 = -60						; size = 4
$T2 = -56						; size = 4
$T3 = -52						; size = 4
$T4 = -48						; size = 4
__Storage_max$ = -44					; size = 4
$T5 = -40						; size = 4
$T6 = -36						; size = 4
$T7 = -32						; size = 4
_this$ = -28						; size = 4
tv70 = -24						; size = 4
$T8 = -20						; size = 4
$T9 = -16						; size = 4
tv67 = -12						; size = 4
__Alloc_max$ = -8					; size = 4
$T10 = -4						; size = 4
?max_size@?$basic_string@DU?$char_traits@D@std@@V?$allocator@D@2@@std@@QBEIXZ PROC ; std::basic_string<char,std::char_traits<char>,std::allocator<char> >::max_size, COMDAT
; _this$ = ecx

; 3773 :     _NODISCARD size_type max_size() const noexcept {

  00000	55		 push	 ebp
  00001	8b ec		 mov	 ebp, esp
  00003	83 ec 3c	 sub	 esp, 60			; 0000003cH
  00006	89 4d e4	 mov	 DWORD PTR _this$[ebp], ecx

; 4413 :         return _Mypair._Get_first();

  00009	8b 45 e4	 mov	 eax, DWORD PTR _this$[ebp]
; File C:\Program Files (x86)\Microsoft Visual Studio\2019\Community\VC\Tools\MSVC\14.28.29333\include\xmemory

; 1351 :         return *this;

  0000c	89 45 e0	 mov	 DWORD PTR $T7[ebp], eax
; File C:\Program Files (x86)\Microsoft Visual Studio\2019\Community\VC\Tools\MSVC\14.28.29333\include\xstring

; 4413 :         return _Mypair._Get_first();

  0000f	8b 45 e0	 mov	 eax, DWORD PTR $T7[ebp]
  00012	89 45 c4	 mov	 DWORD PTR $T1[ebp], eax
; File C:\Program Files (x86)\Microsoft Visual Studio\2019\Community\VC\Tools\MSVC\14.28.29333\include\xmemory

; 710  :         return static_cast<size_t>(-1) / sizeof(value_type);

  00015	83 4d f8 ff	 or	 DWORD PTR __Alloc_max$[ebp], -1
; File C:\Program Files (x86)\Microsoft Visual Studio\2019\Community\VC\Tools\MSVC\14.28.29333\include\xstring

; 3775 :         const size_type _Storage_max = // can always store small string

  00019	c7 45 fc 10 00
	00 00		 mov	 DWORD PTR $T10[ebp], 16	; 00000010H
; File C:\Program Files (x86)\Microsoft Visual Studio\2019\Community\VC\Tools\MSVC\14.28.29333\include\utility

; 44   :     return _Left < _Right ? _Right : _Left;

  00020	8b 45 f8	 mov	 eax, DWORD PTR __Alloc_max$[ebp]
  00023	3b 45 fc	 cmp	 eax, DWORD PTR $T10[ebp]
  00026	73 08		 jae	 SHORT $LN14@max_size
  00028	8d 45 fc	 lea	 eax, DWORD PTR $T10[ebp]
  0002b	89 45 f4	 mov	 DWORD PTR tv67[ebp], eax
  0002e	eb 06		 jmp	 SHORT $LN15@max_size
$LN14@max_size:
  00030	8d 45 f8	 lea	 eax, DWORD PTR __Alloc_max$[ebp]
  00033	89 45 f4	 mov	 DWORD PTR tv67[ebp], eax
$LN15@max_size:
  00036	8b 45 f4	 mov	 eax, DWORD PTR tv67[ebp]
  00039	89 45 dc	 mov	 DWORD PTR $T6[ebp], eax
  0003c	8b 45 dc	 mov	 eax, DWORD PTR $T6[ebp]
  0003f	89 45 d8	 mov	 DWORD PTR $T5[ebp], eax
; File C:\Program Files (x86)\Microsoft Visual Studio\2019\Community\VC\Tools\MSVC\14.28.29333\include\xstring

; 3775 :         const size_type _Storage_max = // can always store small string

  00042	8b 45 d8	 mov	 eax, DWORD PTR $T5[ebp]
  00045	8b 00		 mov	 eax, DWORD PTR [eax]
  00047	89 45 d4	 mov	 DWORD PTR __Storage_max$[ebp], eax

; 3777 :         return (_STD min)(static_cast<size_type>((numeric_limits<difference_type>::max)()),

  0004a	8b 45 d4	 mov	 eax, DWORD PTR __Storage_max$[ebp]
  0004d	48		 dec	 eax
  0004e	89 45 f0	 mov	 DWORD PTR $T9[ebp], eax
; File C:\Program Files (x86)\Microsoft Visual Studio\2019\Community\VC\Tools\MSVC\14.28.29333\include\limits

; 557  :         return INT_MAX;

  00051	c7 45 d0 ff ff
	ff 7f		 mov	 DWORD PTR $T4[ebp], 2147483647 ; 7fffffffH
; File C:\Program Files (x86)\Microsoft Visual Studio\2019\Community\VC\Tools\MSVC\14.28.29333\include\xstring

; 3777 :         return (_STD min)(static_cast<size_type>((numeric_limits<difference_type>::max)()),

  00058	8b 45 d0	 mov	 eax, DWORD PTR $T4[ebp]
  0005b	89 45 ec	 mov	 DWORD PTR $T8[ebp], eax
; File C:\Program Files (x86)\Microsoft Visual Studio\2019\Community\VC\Tools\MSVC\14.28.29333\include\utility

; 68   :     return _Right < _Left ? _Right : _Left;

  0005e	8b 45 f0	 mov	 eax, DWORD PTR $T9[ebp]
  00061	3b 45 ec	 cmp	 eax, DWORD PTR $T8[ebp]
  00064	73 08		 jae	 SHORT $LN22@max_size
  00066	8d 45 f0	 lea	 eax, DWORD PTR $T9[ebp]
  00069	89 45 e8	 mov	 DWORD PTR tv70[ebp], eax
  0006c	eb 06		 jmp	 SHORT $LN23@max_size
$LN22@max_size:
  0006e	8d 45 ec	 lea	 eax, DWORD PTR $T8[ebp]
  00071	89 45 e8	 mov	 DWORD PTR tv70[ebp], eax
$LN23@max_size:
  00074	8b 45 e8	 mov	 eax, DWORD PTR tv70[ebp]
  00077	89 45 cc	 mov	 DWORD PTR $T3[ebp], eax
  0007a	8b 45 cc	 mov	 eax, DWORD PTR $T3[ebp]
  0007d	89 45 c8	 mov	 DWORD PTR $T2[ebp], eax
; File C:\Program Files (x86)\Microsoft Visual Studio\2019\Community\VC\Tools\MSVC\14.28.29333\include\xstring

; 3777 :         return (_STD min)(static_cast<size_type>((numeric_limits<difference_type>::max)()),

  00080	8b 45 c8	 mov	 eax, DWORD PTR $T2[ebp]
  00083	8b 00		 mov	 eax, DWORD PTR [eax]

; 3778 :             _Storage_max - 1 // -1 is for null terminator and/or npos
; 3779 :         );
; 3780 :     }

  00085	c9		 leave
  00086	c3		 ret	 0
?max_size@?$basic_string@DU?$char_traits@D@std@@V?$allocator@D@2@@std@@QBEIXZ ENDP ; std::basic_string<char,std::char_traits<char>,std::allocator<char> >::max_size
_TEXT	ENDS
; Function compile flags: /Odspy
; File C:\Program Files (x86)\Microsoft Visual Studio\2019\Community\VC\Tools\MSVC\14.28.29333\include\xstring
; File C:\Program Files (x86)\Microsoft Visual Studio\2019\Community\VC\Tools\MSVC\14.28.29333\include\xstddef
; File C:\Program Files (x86)\Microsoft Visual Studio\2019\Community\VC\Tools\MSVC\14.28.29333\include\xstring
;	COMDAT ?c_str@?$basic_string@DU?$char_traits@D@std@@V?$allocator@D@2@@std@@QBEPBDXZ
_TEXT	SEGMENT
$T1 = -28						; size = 4
__Ptr$ = -24						; size = 4
_this$ = -20						; size = 4
__Result$2 = -16					; size = 4
tv80 = -12						; size = 4
_this$ = -8						; size = 4
$T3 = -1						; size = 1
?c_str@?$basic_string@DU?$char_traits@D@std@@V?$allocator@D@2@@std@@QBEPBDXZ PROC ; std::basic_string<char,std::char_traits<char>,std::allocator<char> >::c_str, COMDAT
; _this$ = ecx

; 3751 :     _NODISCARD _Ret_z_ const _Elem* c_str() const noexcept {

  00000	55		 push	 ebp
  00001	8b ec		 mov	 ebp, esp
  00003	83 ec 1c	 sub	 esp, 28			; 0000001cH
  00006	89 4d ec	 mov	 DWORD PTR _this$[ebp], ecx

; 3752 :         return _Mypair._Myval2._Myptr();

  00009	8b 45 ec	 mov	 eax, DWORD PTR _this$[ebp]
  0000c	89 45 f8	 mov	 DWORD PTR _this$[ebp], eax

; 2218 :         const value_type* _Result = _Bx._Buf;

  0000f	8b 45 f8	 mov	 eax, DWORD PTR _this$[ebp]
  00012	89 45 f0	 mov	 DWORD PTR __Result$2[ebp], eax

; 2227 :         return _BUF_SIZE <= _Myres;

  00015	8b 45 f8	 mov	 eax, DWORD PTR _this$[ebp]
  00018	83 78 14 10	 cmp	 DWORD PTR [eax+20], 16	; 00000010H
  0001c	72 09		 jb	 SHORT $LN9@c_str
  0001e	c7 45 f4 01 00
	00 00		 mov	 DWORD PTR tv80[ebp], 1
  00025	eb 04		 jmp	 SHORT $LN10@c_str
$LN9@c_str:
  00027	83 65 f4 00	 and	 DWORD PTR tv80[ebp], 0
$LN10@c_str:
  0002b	8a 45 f4	 mov	 al, BYTE PTR tv80[ebp]
  0002e	88 45 ff	 mov	 BYTE PTR $T3[ebp], al

; 2219 :         if (_Large_string_engaged()) {

  00031	0f b6 45 ff	 movzx	 eax, BYTE PTR $T3[ebp]
  00035	85 c0		 test	 eax, eax
  00037	74 0e		 je	 SHORT $LN4@c_str

; 2220 :             _Result = _Unfancy(_Bx._Ptr);

  00039	8b 45 f8	 mov	 eax, DWORD PTR _this$[ebp]
  0003c	8b 00		 mov	 eax, DWORD PTR [eax]
  0003e	89 45 e8	 mov	 DWORD PTR __Ptr$[ebp], eax
; File C:\Program Files (x86)\Microsoft Visual Studio\2019\Community\VC\Tools\MSVC\14.28.29333\include\xstddef

; 289  :     return _Ptr;

  00041	8b 45 e8	 mov	 eax, DWORD PTR __Ptr$[ebp]
  00044	89 45 f0	 mov	 DWORD PTR __Result$2[ebp], eax
$LN4@c_str:
; File C:\Program Files (x86)\Microsoft Visual Studio\2019\Community\VC\Tools\MSVC\14.28.29333\include\xstring

; 2223 :         return _Result;

  00047	8b 45 f0	 mov	 eax, DWORD PTR __Result$2[ebp]
  0004a	89 45 e4	 mov	 DWORD PTR $T1[ebp], eax

; 3752 :         return _Mypair._Myval2._Myptr();

  0004d	8b 45 e4	 mov	 eax, DWORD PTR $T1[ebp]

; 3753 :     }

  00050	c9		 leave
  00051	c3		 ret	 0
?c_str@?$basic_string@DU?$char_traits@D@std@@V?$allocator@D@2@@std@@QBEPBDXZ ENDP ; std::basic_string<char,std::char_traits<char>,std::allocator<char> >::c_str
_TEXT	ENDS
; Function compile flags: /Odspy
; File C:\Program Files (x86)\Microsoft Visual Studio\2019\Community\VC\Tools\MSVC\14.28.29333\include\xstring
;	COMDAT ?assign@?$basic_string@DU?$char_traits@D@std@@V?$allocator@D@2@@std@@QAEAAV12@QBDI@Z
_TEXT	SEGMENT
$T1 = -16						; size = 1
__Old_ptr$2 = -12					; size = 4
_this$ = -8						; size = 4
$T3 = -1						; size = 1
__Ptr$ = 8						; size = 4
__Count$ = 12						; size = 4
?assign@?$basic_string@DU?$char_traits@D@std@@V?$allocator@D@2@@std@@QAEAAV12@QBDI@Z PROC ; std::basic_string<char,std::char_traits<char>,std::allocator<char> >::assign, COMDAT
; _this$ = ecx

; 3042 :     basic_string& assign(_In_reads_(_Count) const _Elem* const _Ptr, _CRT_GUARDOVERFLOW const size_type _Count) {

  00000	55		 push	 ebp
  00001	8b ec		 mov	 ebp, esp
  00003	83 ec 10	 sub	 esp, 16			; 00000010H
  00006	89 4d f8	 mov	 DWORD PTR _this$[ebp], ecx

; 3043 :         // assign [_Ptr, _Ptr + _Count)
; 3044 :         if (_Count <= _Mypair._Myval2._Myres) {

  00009	8b 45 f8	 mov	 eax, DWORD PTR _this$[ebp]
  0000c	8b 4d 0c	 mov	 ecx, DWORD PTR __Count$[ebp]
  0000f	3b 48 14	 cmp	 ecx, DWORD PTR [eax+20]
  00012	77 39		 ja	 SHORT $LN2@assign

; 3045 :             _Elem* const _Old_ptr   = _Mypair._Myval2._Myptr();

  00014	8b 4d f8	 mov	 ecx, DWORD PTR _this$[ebp]
  00017	e8 00 00 00 00	 call	 ?_Myptr@?$_String_val@U?$_Simple_types@D@std@@@std@@QAEPADXZ ; std::_String_val<std::_Simple_types<char> >::_Myptr
  0001c	89 45 f4	 mov	 DWORD PTR __Old_ptr$2[ebp], eax

; 3046 :             _Mypair._Myval2._Mysize = _Count;

  0001f	8b 45 f8	 mov	 eax, DWORD PTR _this$[ebp]
  00022	8b 4d 0c	 mov	 ecx, DWORD PTR __Count$[ebp]
  00025	89 48 10	 mov	 DWORD PTR [eax+16], ecx

; 119  :         _CSTD memmove(_First1, _First2, _Count * sizeof(_Elem));

  00028	ff 75 0c	 push	 DWORD PTR __Count$[ebp]
  0002b	ff 75 08	 push	 DWORD PTR __Ptr$[ebp]
  0002e	ff 75 f4	 push	 DWORD PTR __Old_ptr$2[ebp]
  00031	e8 00 00 00 00	 call	 _memmove
  00036	83 c4 0c	 add	 esp, 12			; 0000000cH

; 3047 :             _Traits::move(_Old_ptr, _Ptr, _Count);
; 3048 :             _Traits::assign(_Old_ptr[_Count], _Elem());

  00039	c6 45 ff 00	 mov	 BYTE PTR $T3[ebp], 0

; 428  :         _Left = _Right;

  0003d	8b 45 f4	 mov	 eax, DWORD PTR __Old_ptr$2[ebp]
  00040	03 45 0c	 add	 eax, DWORD PTR __Count$[ebp]
  00043	8a 4d ff	 mov	 cl, BYTE PTR $T3[ebp]
  00046	88 08		 mov	 BYTE PTR [eax], cl

; 3049 :             return *this;

  00048	8b 45 f8	 mov	 eax, DWORD PTR _this$[ebp]
  0004b	eb 16		 jmp	 SHORT $LN1@assign
$LN2@assign:

; 3050 :         }
; 3051 : 
; 3052 :         return _Reallocate_for(

  0004d	33 c0		 xor	 eax, eax
  0004f	88 45 f0	 mov	 BYTE PTR $T1[ebp], al
  00052	ff 75 08	 push	 DWORD PTR __Ptr$[ebp]
  00055	ff 75 f0	 push	 DWORD PTR $T1[ebp]
  00058	ff 75 0c	 push	 DWORD PTR __Count$[ebp]
  0005b	8b 4d f8	 mov	 ecx, DWORD PTR _this$[ebp]
  0005e	e8 00 00 00 00	 call	 ??$_Reallocate_for@V<lambda_9366063389c5f42a00a5088cf24e69de>@@PBD@?$basic_string@DU?$char_traits@D@std@@V?$allocator@D@2@@std@@AAEAAV01@IV<lambda_9366063389c5f42a00a5088cf24e69de>@@PBD@Z ; std::basic_string<char,std::char_traits<char>,std::allocator<char> >::_Reallocate_for<<lambda_9366063389c5f42a00a5088cf24e69de>,char const *>
$LN1@assign:

; 3053 :             _Count,
; 3054 :             [](_Elem* const _New_ptr, const size_type _Count, const _Elem* const _Ptr) {
; 3055 :                 _Traits::copy(_New_ptr, _Ptr, _Count);
; 3056 :                 _Traits::assign(_New_ptr[_Count], _Elem());
; 3057 :             },
; 3058 :             _Ptr);
; 3059 :     }

  00063	c9		 leave
  00064	c2 08 00	 ret	 8
?assign@?$basic_string@DU?$char_traits@D@std@@V?$allocator@D@2@@std@@QAEAAV12@QBDI@Z ENDP ; std::basic_string<char,std::char_traits<char>,std::allocator<char> >::assign
_TEXT	ENDS
; Function compile flags: /Odspy
; File C:\Program Files (x86)\Microsoft Visual Studio\2019\Community\VC\Tools\MSVC\14.28.29333\include\xstring
;	COMDAT ??1?$basic_string@DU?$char_traits@D@std@@V?$allocator@D@2@@std@@QAE@XZ
_TEXT	SEGMENT
_this$ = -4						; size = 4
??1?$basic_string@DU?$char_traits@D@std@@V?$allocator@D@2@@std@@QAE@XZ PROC ; std::basic_string<char,std::char_traits<char>,std::allocator<char> >::~basic_string<char,std::char_traits<char>,std::allocator<char> >, COMDAT
; _this$ = ecx

; 2800 :     ~basic_string() noexcept {

  00000	55		 push	 ebp
  00001	8b ec		 mov	 ebp, esp
  00003	51		 push	 ecx
  00004	89 4d fc	 mov	 DWORD PTR _this$[ebp], ecx

; 2801 :         _Tidy_deallocate();

  00007	8b 4d fc	 mov	 ecx, DWORD PTR _this$[ebp]
  0000a	e8 00 00 00 00	 call	 ?_Tidy_deallocate@?$basic_string@DU?$char_traits@D@std@@V?$allocator@D@2@@std@@AAEXXZ ; std::basic_string<char,std::char_traits<char>,std::allocator<char> >::_Tidy_deallocate

; 2802 : #if _ITERATOR_DEBUG_LEVEL != 0
; 2803 :         auto&& _Alproxy          = _GET_PROXY_ALLOCATOR(_Alty, _Getal());
; 2804 :         const auto _To_delete    = _Mypair._Myval2._Myproxy;
; 2805 :         _Mypair._Myval2._Myproxy = nullptr;
; 2806 :         _Delete_plain_internal(_Alproxy, _To_delete);
; 2807 : #endif // _ITERATOR_DEBUG_LEVEL != 0
; 2808 :     }

  0000f	c9		 leave
  00010	c3		 ret	 0
??1?$basic_string@DU?$char_traits@D@std@@V?$allocator@D@2@@std@@QAE@XZ ENDP ; std::basic_string<char,std::char_traits<char>,std::allocator<char> >::~basic_string<char,std::char_traits<char>,std::allocator<char> >
_TEXT	ENDS
; Function compile flags: /Odspy
; File C:\Program Files (x86)\Microsoft Visual Studio\2019\Community\VC\Tools\MSVC\14.28.29333\include\xstring
; File C:\Program Files (x86)\Microsoft Visual Studio\2019\Community\VC\Tools\MSVC\14.28.29333\include\xmemory
; File C:\Program Files (x86)\Microsoft Visual Studio\2019\Community\VC\Tools\MSVC\14.28.29333\include\xstring
; File C:\Program Files (x86)\Microsoft Visual Studio\2019\Community\VC\Tools\MSVC\14.28.29333\include\xmemory
; File C:\Program Files (x86)\Microsoft Visual Studio\2019\Community\VC\Tools\MSVC\14.28.29333\include\xstring
;	COMDAT ??0?$basic_string@DU?$char_traits@D@std@@V?$allocator@D@2@@std@@QAE@QBD@Z
_TEXT	SEGMENT
__Alproxy$ = -40					; size = 4
$T2 = -36						; size = 4
$T3 = -32						; size = 4
_this$ = -28						; size = 4
_this$ = -24						; size = 4
_this$ = -20						; size = 4
_$S6$ = -13						; size = 1
__$EHRec$ = -12						; size = 12
__Ptr$ = 8						; size = 4
??0?$basic_string@DU?$char_traits@D@std@@V?$allocator@D@2@@std@@QAE@QBD@Z PROC ; std::basic_string<char,std::char_traits<char>,std::allocator<char> >::basic_string<char,std::char_traits<char>,std::allocator<char> >, COMDAT
; _this$ = ecx

; 2413 :     basic_string(_In_z_ const _Elem* const _Ptr) : _Mypair(_Zero_then_variadic_args_t{}) {

  00000	55		 push	 ebp
  00001	8b ec		 mov	 ebp, esp
  00003	6a ff		 push	 -1
  00005	68 00 00 00 00	 push	 __ehhandler$??0?$basic_string@DU?$char_traits@D@std@@V?$allocator@D@2@@std@@QAE@QBD@Z
  0000a	64 a1 00 00 00
	00		 mov	 eax, DWORD PTR fs:0
  00010	50		 push	 eax
  00011	83 ec 1c	 sub	 esp, 28			; 0000001cH
  00014	a1 00 00 00 00	 mov	 eax, DWORD PTR ___security_cookie
  00019	33 c5		 xor	 eax, ebp
  0001b	50		 push	 eax
  0001c	8d 45 f4	 lea	 eax, DWORD PTR __$EHRec$[ebp]
  0001f	64 a3 00 00 00
	00		 mov	 DWORD PTR fs:0, eax
  00025	89 4d ec	 mov	 DWORD PTR _this$[ebp], ecx
  00028	8b 45 ec	 mov	 eax, DWORD PTR _this$[ebp]
  0002b	89 45 e4	 mov	 DWORD PTR _this$[ebp], eax
; File C:\Program Files (x86)\Microsoft Visual Studio\2019\Community\VC\Tools\MSVC\14.28.29333\include\xmemory

; 1339 :         : _Ty1(), _Myval2(_STD forward<_Other2>(_Val2)...) {}

  0002e	8b 45 e4	 mov	 eax, DWORD PTR _this$[ebp]
  00031	89 45 e8	 mov	 DWORD PTR _this$[ebp], eax
; File C:\Program Files (x86)\Microsoft Visual Studio\2019\Community\VC\Tools\MSVC\14.28.29333\include\xstring

; 2198 :     _String_val() noexcept : _Bx(), _Mysize(0), _Myres(0) {}

  00034	8b 45 e8	 mov	 eax, DWORD PTR _this$[ebp]
  00037	83 60 10 00	 and	 DWORD PTR [eax+16], 0
  0003b	8b 45 e8	 mov	 eax, DWORD PTR _this$[ebp]
  0003e	83 60 14 00	 and	 DWORD PTR [eax+20], 0

; 2413 :     basic_string(_In_z_ const _Elem* const _Ptr) : _Mypair(_Zero_then_variadic_args_t{}) {

  00042	83 65 fc 00	 and	 DWORD PTR __$EHRec$[ebp+8], 0

; 2414 :         auto&& _Alproxy = _GET_PROXY_ALLOCATOR(_Alty, _Getal());

  00046	8d 45 f3	 lea	 eax, DWORD PTR _$S6$[ebp]
  00049	89 45 d8	 mov	 DWORD PTR __Alproxy$[ebp], eax

; 2415 :         _Container_proxy_ptr<_Alty> _Proxy(_Alproxy, _Mypair._Myval2);
; 2416 :         _Tidy_init();

  0004c	8b 4d ec	 mov	 ecx, DWORD PTR _this$[ebp]
  0004f	e8 00 00 00 00	 call	 ?_Tidy_init@?$basic_string@DU?$char_traits@D@std@@V?$allocator@D@2@@std@@AAEXXZ ; std::basic_string<char,std::char_traits<char>,std::allocator<char> >::_Tidy_init

; 389  :         return _CSTD strlen(reinterpret_cast<const char*>(_First));

  00054	ff 75 08	 push	 DWORD PTR __Ptr$[ebp]
  00057	e8 00 00 00 00	 call	 _strlen
  0005c	59		 pop	 ecx
  0005d	89 45 e0	 mov	 DWORD PTR $T3[ebp], eax
; File C:\Program Files (x86)\Microsoft Visual Studio\2019\Community\VC\Tools\MSVC\14.28.29333\include\xmemory

; 997  :     return _Len;

  00060	8b 45 e0	 mov	 eax, DWORD PTR $T3[ebp]
  00063	89 45 dc	 mov	 DWORD PTR $T2[ebp], eax
; File C:\Program Files (x86)\Microsoft Visual Studio\2019\Community\VC\Tools\MSVC\14.28.29333\include\xstring

; 3062 :         return assign(_Ptr, _Convert_size<size_type>(_Traits::length(_Ptr)));

  00066	ff 75 dc	 push	 DWORD PTR $T2[ebp]
  00069	ff 75 08	 push	 DWORD PTR __Ptr$[ebp]
  0006c	8b 4d ec	 mov	 ecx, DWORD PTR _this$[ebp]
  0006f	e8 00 00 00 00	 call	 ?assign@?$basic_string@DU?$char_traits@D@std@@V?$allocator@D@2@@std@@QAEAAV12@QBDI@Z ; std::basic_string<char,std::char_traits<char>,std::allocator<char> >::assign

; 2417 :         assign(_Ptr);
; 2418 :         _Proxy._Release();
; 2419 :     }

  00074	83 4d fc ff	 or	 DWORD PTR __$EHRec$[ebp+8], -1
  00078	8b 45 ec	 mov	 eax, DWORD PTR _this$[ebp]
  0007b	8b 4d f4	 mov	 ecx, DWORD PTR __$EHRec$[ebp]
  0007e	64 89 0d 00 00
	00 00		 mov	 DWORD PTR fs:0, ecx
  00085	59		 pop	 ecx
  00086	c9		 leave
  00087	c2 04 00	 ret	 4
_TEXT	ENDS
;	COMDAT text$x
text$x	SEGMENT
__unwindfunclet$??0?$basic_string@DU?$char_traits@D@std@@V?$allocator@D@2@@std@@QAE@QBD@Z$0:
  00000	8b 4d ec	 mov	 ecx, DWORD PTR _this$[ebp]
  00003	e9 00 00 00 00	 jmp	 ??1?$_Compressed_pair@V?$allocator@D@std@@V?$_String_val@U?$_Simple_types@D@std@@@2@$00@std@@QAE@XZ
  00008	cc		 int	 3
  00009	cc		 int	 3
  0000a	cc		 int	 3
  0000b	cc		 int	 3
  0000c	cc		 int	 3
__ehhandler$??0?$basic_string@DU?$char_traits@D@std@@V?$allocator@D@2@@std@@QAE@QBD@Z:
  0000d	90		 npad	 1
  0000e	90		 npad	 1
  0000f	8b 54 24 08	 mov	 edx, DWORD PTR [esp+8]
  00013	8d 42 0c	 lea	 eax, DWORD PTR [edx+12]
  00016	8b 4a e0	 mov	 ecx, DWORD PTR [edx-32]
  00019	33 c8		 xor	 ecx, eax
  0001b	e8 00 00 00 00	 call	 @__security_check_cookie@4
  00020	b8 00 00 00 00	 mov	 eax, OFFSET __ehfuncinfo$??0?$basic_string@DU?$char_traits@D@std@@V?$allocator@D@2@@std@@QAE@QBD@Z
  00025	e9 00 00 00 00	 jmp	 ___CxxFrameHandler3
text$x	ENDS
??0?$basic_string@DU?$char_traits@D@std@@V?$allocator@D@2@@std@@QAE@QBD@Z ENDP ; std::basic_string<char,std::char_traits<char>,std::allocator<char> >::basic_string<char,std::char_traits<char>,std::allocator<char> >
; Function compile flags: /Odspy
; File C:\Program Files (x86)\Microsoft Visual Studio\2019\Community\VC\Tools\MSVC\14.28.29333\include\xstring
; File C:\Program Files (x86)\Microsoft Visual Studio\2019\Community\VC\Tools\MSVC\14.28.29333\include\xstddef
; File C:\Program Files (x86)\Microsoft Visual Studio\2019\Community\VC\Tools\MSVC\14.28.29333\include\xstring
;	COMDAT ?_Myptr@?$_String_val@U?$_Simple_types@D@std@@@std@@QBEPBDXZ
_TEXT	SEGMENT
__Ptr$ = -20						; size = 4
__Result$ = -16						; size = 4
tv76 = -12						; size = 4
_this$ = -8						; size = 4
$T1 = -1						; size = 1
?_Myptr@?$_String_val@U?$_Simple_types@D@std@@@std@@QBEPBDXZ PROC ; std::_String_val<std::_Simple_types<char> >::_Myptr, COMDAT
; _this$ = ecx

; 2217 :     const value_type* _Myptr() const noexcept {

  00000	55		 push	 ebp
  00001	8b ec		 mov	 ebp, esp
  00003	83 ec 14	 sub	 esp, 20			; 00000014H
  00006	89 4d f8	 mov	 DWORD PTR _this$[ebp], ecx

; 2218 :         const value_type* _Result = _Bx._Buf;

  00009	8b 45 f8	 mov	 eax, DWORD PTR _this$[ebp]
  0000c	89 45 f0	 mov	 DWORD PTR __Result$[ebp], eax

; 2227 :         return _BUF_SIZE <= _Myres;

  0000f	8b 45 f8	 mov	 eax, DWORD PTR _this$[ebp]
  00012	83 78 14 10	 cmp	 DWORD PTR [eax+20], 16	; 00000010H
  00016	72 09		 jb	 SHORT $LN6@Myptr
  00018	c7 45 f4 01 00
	00 00		 mov	 DWORD PTR tv76[ebp], 1
  0001f	eb 04		 jmp	 SHORT $LN7@Myptr
$LN6@Myptr:
  00021	83 65 f4 00	 and	 DWORD PTR tv76[ebp], 0
$LN7@Myptr:
  00025	8a 45 f4	 mov	 al, BYTE PTR tv76[ebp]
  00028	88 45 ff	 mov	 BYTE PTR $T1[ebp], al

; 2219 :         if (_Large_string_engaged()) {

  0002b	0f b6 45 ff	 movzx	 eax, BYTE PTR $T1[ebp]
  0002f	85 c0		 test	 eax, eax
  00031	74 0e		 je	 SHORT $LN2@Myptr

; 2220 :             _Result = _Unfancy(_Bx._Ptr);

  00033	8b 45 f8	 mov	 eax, DWORD PTR _this$[ebp]
  00036	8b 00		 mov	 eax, DWORD PTR [eax]
  00038	89 45 ec	 mov	 DWORD PTR __Ptr$[ebp], eax
; File C:\Program Files (x86)\Microsoft Visual Studio\2019\Community\VC\Tools\MSVC\14.28.29333\include\xstddef

; 289  :     return _Ptr;

  0003b	8b 45 ec	 mov	 eax, DWORD PTR __Ptr$[ebp]
  0003e	89 45 f0	 mov	 DWORD PTR __Result$[ebp], eax
$LN2@Myptr:
; File C:\Program Files (x86)\Microsoft Visual Studio\2019\Community\VC\Tools\MSVC\14.28.29333\include\xstring

; 2223 :         return _Result;

  00041	8b 45 f0	 mov	 eax, DWORD PTR __Result$[ebp]

; 2224 :     }

  00044	c9		 leave
  00045	c3		 ret	 0
?_Myptr@?$_String_val@U?$_Simple_types@D@std@@@std@@QBEPBDXZ ENDP ; std::_String_val<std::_Simple_types<char> >::_Myptr
_TEXT	ENDS
; Function compile flags: /Odspy
; File C:\Program Files (x86)\Microsoft Visual Studio\2019\Community\VC\Tools\MSVC\14.28.29333\include\xstring
; File C:\Program Files (x86)\Microsoft Visual Studio\2019\Community\VC\Tools\MSVC\14.28.29333\include\xstddef
; File C:\Program Files (x86)\Microsoft Visual Studio\2019\Community\VC\Tools\MSVC\14.28.29333\include\xstring
;	COMDAT ?_Myptr@?$_String_val@U?$_Simple_types@D@std@@@std@@QAEPADXZ
_TEXT	SEGMENT
__Ptr$ = -20						; size = 4
__Result$ = -16						; size = 4
tv76 = -12						; size = 4
_this$ = -8						; size = 4
$T1 = -1						; size = 1
?_Myptr@?$_String_val@U?$_Simple_types@D@std@@@std@@QAEPADXZ PROC ; std::_String_val<std::_Simple_types<char> >::_Myptr, COMDAT
; _this$ = ecx

; 2208 :     value_type* _Myptr() noexcept {

  00000	55		 push	 ebp
  00001	8b ec		 mov	 ebp, esp
  00003	83 ec 14	 sub	 esp, 20			; 00000014H
  00006	89 4d f8	 mov	 DWORD PTR _this$[ebp], ecx

; 2209 :         value_type* _Result = _Bx._Buf;

  00009	8b 45 f8	 mov	 eax, DWORD PTR _this$[ebp]
  0000c	89 45 f0	 mov	 DWORD PTR __Result$[ebp], eax

; 2227 :         return _BUF_SIZE <= _Myres;

  0000f	8b 45 f8	 mov	 eax, DWORD PTR _this$[ebp]
  00012	83 78 14 10	 cmp	 DWORD PTR [eax+20], 16	; 00000010H
  00016	72 09		 jb	 SHORT $LN6@Myptr
  00018	c7 45 f4 01 00
	00 00		 mov	 DWORD PTR tv76[ebp], 1
  0001f	eb 04		 jmp	 SHORT $LN7@Myptr
$LN6@Myptr:
  00021	83 65 f4 00	 and	 DWORD PTR tv76[ebp], 0
$LN7@Myptr:
  00025	8a 45 f4	 mov	 al, BYTE PTR tv76[ebp]
  00028	88 45 ff	 mov	 BYTE PTR $T1[ebp], al

; 2210 :         if (_Large_string_engaged()) {

  0002b	0f b6 45 ff	 movzx	 eax, BYTE PTR $T1[ebp]
  0002f	85 c0		 test	 eax, eax
  00031	74 0e		 je	 SHORT $LN2@Myptr

; 2211 :             _Result = _Unfancy(_Bx._Ptr);

  00033	8b 45 f8	 mov	 eax, DWORD PTR _this$[ebp]
  00036	8b 00		 mov	 eax, DWORD PTR [eax]
  00038	89 45 ec	 mov	 DWORD PTR __Ptr$[ebp], eax
; File C:\Program Files (x86)\Microsoft Visual Studio\2019\Community\VC\Tools\MSVC\14.28.29333\include\xstddef

; 289  :     return _Ptr;

  0003b	8b 45 ec	 mov	 eax, DWORD PTR __Ptr$[ebp]
  0003e	89 45 f0	 mov	 DWORD PTR __Result$[ebp], eax
$LN2@Myptr:
; File C:\Program Files (x86)\Microsoft Visual Studio\2019\Community\VC\Tools\MSVC\14.28.29333\include\xstring

; 2214 :         return _Result;

  00041	8b 45 f0	 mov	 eax, DWORD PTR __Result$[ebp]

; 2215 :     }

  00044	c9		 leave
  00045	c3		 ret	 0
?_Myptr@?$_String_val@U?$_Simple_types@D@std@@@std@@QAEPADXZ ENDP ; std::_String_val<std::_Simple_types<char> >::_Myptr
_TEXT	ENDS
; Function compile flags: /Odspy
; File C:\Program Files (x86)\Microsoft Visual Studio\2019\Community\VC\Tools\MSVC\14.28.29333\include\xstring
;	COMDAT ?_Xlen_string@std@@YAXXZ
_TEXT	SEGMENT
?_Xlen_string@std@@YAXXZ PROC				; std::_Xlen_string, COMDAT

; 2274 : [[noreturn]] inline void _Xlen_string() {

  00000	55		 push	 ebp
  00001	8b ec		 mov	 ebp, esp

; 2275 :     _Xlength_error("string too long");

  00003	68 00 00 00 00	 push	 OFFSET ??_C@_0BA@JFNIOLAK@string?5too?5long@
  00008	e8 00 00 00 00	 call	 ?_Xlength_error@std@@YAXPBD@Z ; std::_Xlength_error
$LN2@Xlen_strin:

; 2276 : }

  0000d	5d		 pop	 ebp
  0000e	c3		 ret	 0
?_Xlen_string@std@@YAXXZ ENDP				; std::_Xlen_string
_TEXT	ENDS
; Function compile flags: /Odspy
; File C:\Program Files (x86)\Microsoft Visual Studio\2019\Community\VC\Tools\MSVC\14.28.29333\include\xmemory
;	COMDAT ?_Adjust_manually_vector_aligned@std@@YAXAAPAXAAI@Z
_TEXT	SEGMENT
__Min_back_shift$ = -16					; size = 4
__Ptr_user$ = -12					; size = 4
__Ptr_container$ = -8					; size = 4
__Back_shift$ = -4					; size = 4
__Ptr$ = 8						; size = 4
__Bytes$ = 12						; size = 4
?_Adjust_manually_vector_aligned@std@@YAXAAPAXAAI@Z PROC ; std::_Adjust_manually_vector_aligned, COMDAT

; 132  : inline void _Adjust_manually_vector_aligned(void*& _Ptr, size_t& _Bytes) {

  00000	55		 push	 ebp
  00001	8b ec		 mov	 ebp, esp
  00003	83 ec 10	 sub	 esp, 16			; 00000010H

; 133  :     // adjust parameters from _Allocate_manually_vector_aligned to pass to operator delete
; 134  :     _Bytes += _Non_user_size;

  00006	8b 45 0c	 mov	 eax, DWORD PTR __Bytes$[ebp]
  00009	8b 00		 mov	 eax, DWORD PTR [eax]
  0000b	83 c0 23	 add	 eax, 35			; 00000023H
  0000e	8b 4d 0c	 mov	 ecx, DWORD PTR __Bytes$[ebp]
  00011	89 01		 mov	 DWORD PTR [ecx], eax

; 135  : 
; 136  :     const uintptr_t* const _Ptr_user = reinterpret_cast<uintptr_t*>(_Ptr);

  00013	8b 45 08	 mov	 eax, DWORD PTR __Ptr$[ebp]
  00016	8b 00		 mov	 eax, DWORD PTR [eax]
  00018	89 45 f4	 mov	 DWORD PTR __Ptr_user$[ebp], eax

; 137  :     const uintptr_t _Ptr_container   = _Ptr_user[-1];

  0001b	6a 04		 push	 4
  0001d	58		 pop	 eax
  0001e	6b c0 ff	 imul	 eax, eax, -1
  00021	8b 4d f4	 mov	 ecx, DWORD PTR __Ptr_user$[ebp]
  00024	8b 04 01	 mov	 eax, DWORD PTR [ecx+eax]
  00027	89 45 f8	 mov	 DWORD PTR __Ptr_container$[ebp], eax

; 138  : 
; 139  :     // If the following asserts, it likely means that we are performing
; 140  :     // an aligned delete on memory coming from an unaligned allocation.
; 141  :     _STL_ASSERT(_Ptr_user[-2] == _Big_allocation_sentinel, "invalid argument");
; 142  : 
; 143  :     // Extra paranoia on aligned allocation/deallocation; ensure _Ptr_container is
; 144  :     // in range [_Min_back_shift, _Non_user_size]
; 145  : #ifdef _DEBUG
; 146  :     constexpr uintptr_t _Min_back_shift = 2 * sizeof(void*);
; 147  : #else // ^^^ _DEBUG ^^^ // vvv !_DEBUG vvv
; 148  :     constexpr uintptr_t _Min_back_shift = sizeof(void*);

  0002a	c7 45 f0 04 00
	00 00		 mov	 DWORD PTR __Min_back_shift$[ebp], 4

; 149  : #endif // _DEBUG
; 150  :     const uintptr_t _Back_shift = reinterpret_cast<uintptr_t>(_Ptr) - _Ptr_container;

  00031	8b 45 08	 mov	 eax, DWORD PTR __Ptr$[ebp]
  00034	8b 00		 mov	 eax, DWORD PTR [eax]
  00036	2b 45 f8	 sub	 eax, DWORD PTR __Ptr_container$[ebp]
  00039	89 45 fc	 mov	 DWORD PTR __Back_shift$[ebp], eax
$LN4@Adjust_man:

; 151  :     _STL_VERIFY(_Back_shift >= _Min_back_shift && _Back_shift <= _Non_user_size, "invalid argument");

  0003c	83 7d fc 04	 cmp	 DWORD PTR __Back_shift$[ebp], 4
  00040	72 08		 jb	 SHORT $LN7@Adjust_man
  00042	83 7d fc 23	 cmp	 DWORD PTR __Back_shift$[ebp], 35 ; 00000023H
  00046	77 02		 ja	 SHORT $LN7@Adjust_man
  00048	eb 09		 jmp	 SHORT $LN2@Adjust_man
$LN7@Adjust_man:
  0004a	e8 00 00 00 00	 call	 __invalid_parameter_noinfo_noreturn
  0004f	33 c0		 xor	 eax, eax
  00051	75 f7		 jne	 SHORT $LN7@Adjust_man
$LN2@Adjust_man:
  00053	33 c0		 xor	 eax, eax
  00055	75 e5		 jne	 SHORT $LN4@Adjust_man

; 152  :     _Ptr = reinterpret_cast<void*>(_Ptr_container);

  00057	8b 45 08	 mov	 eax, DWORD PTR __Ptr$[ebp]
  0005a	8b 4d f8	 mov	 ecx, DWORD PTR __Ptr_container$[ebp]
  0005d	89 08		 mov	 DWORD PTR [eax], ecx
$LN10@Adjust_man:

; 153  : }

  0005f	c9		 leave
  00060	c3		 ret	 0
?_Adjust_manually_vector_aligned@std@@YAXAAPAXAAI@Z ENDP ; std::_Adjust_manually_vector_aligned
_TEXT	ENDS
; Function compile flags: /Odspy
; File C:\Program Files (x86)\Microsoft Visual Studio\2019\Community\VC\Tools\MSVC\14.28.29333\include\exception
;	COMDAT ?_Throw_bad_array_new_length@std@@YAXXZ
_TEXT	SEGMENT
$T1 = -12						; size = 12
?_Throw_bad_array_new_length@std@@YAXXZ PROC		; std::_Throw_bad_array_new_length, COMDAT

; 320  : [[noreturn]] inline void _Throw_bad_array_new_length() {

  00000	55		 push	 ebp
  00001	8b ec		 mov	 ebp, esp
  00003	83 ec 0c	 sub	 esp, 12			; 0000000cH

; 321  :     _THROW(bad_array_new_length{});

  00006	8d 4d f4	 lea	 ecx, DWORD PTR $T1[ebp]
  00009	e8 00 00 00 00	 call	 ??0bad_array_new_length@std@@QAE@XZ ; std::bad_array_new_length::bad_array_new_length
  0000e	68 00 00 00 00	 push	 OFFSET __TI3?AVbad_array_new_length@std@@
  00013	8d 45 f4	 lea	 eax, DWORD PTR $T1[ebp]
  00016	50		 push	 eax
  00017	e8 00 00 00 00	 call	 __CxxThrowException@8
$LN2@Throw_bad_:

; 322  : }

  0001c	c9		 leave
  0001d	c3		 ret	 0
?_Throw_bad_array_new_length@std@@YAXXZ ENDP		; std::_Throw_bad_array_new_length
_TEXT	ENDS
; Function compile flags: /Odspy
; File C:\Program Files (x86)\Microsoft Visual Studio\2019\Community\VC\Tools\MSVC\14.28.29333\include\vcruntime_exception.h
;	COMDAT ??_Gbad_array_new_length@std@@UAEPAXI@Z
_TEXT	SEGMENT
_this$ = -4						; size = 4
___flags$ = 8						; size = 4
??_Gbad_array_new_length@std@@UAEPAXI@Z PROC		; std::bad_array_new_length::`scalar deleting destructor', COMDAT
; _this$ = ecx
  00000	55		 push	 ebp
  00001	8b ec		 mov	 ebp, esp
  00003	51		 push	 ecx
  00004	89 4d fc	 mov	 DWORD PTR _this$[ebp], ecx

; 89   :     {

  00007	8b 45 fc	 mov	 eax, DWORD PTR _this$[ebp]
  0000a	c7 00 00 00 00
	00		 mov	 DWORD PTR [eax], OFFSET ??_7exception@std@@6B@

; 90   :         __std_exception_destroy(&_Data);

  00010	8b 45 fc	 mov	 eax, DWORD PTR _this$[ebp]
  00013	83 c0 04	 add	 eax, 4
  00016	50		 push	 eax
  00017	e8 00 00 00 00	 call	 ___std_exception_destroy
  0001c	59		 pop	 ecx
  0001d	8b 45 08	 mov	 eax, DWORD PTR ___flags$[ebp]
  00020	83 e0 01	 and	 eax, 1
  00023	74 0c		 je	 SHORT $LN2@scalar
  00025	6a 0c		 push	 12			; 0000000cH
  00027	ff 75 fc	 push	 DWORD PTR _this$[ebp]
  0002a	e8 00 00 00 00	 call	 ??3@YAXPAXI@Z		; operator delete
  0002f	59		 pop	 ecx
  00030	59		 pop	 ecx
$LN2@scalar:
  00031	8b 45 fc	 mov	 eax, DWORD PTR _this$[ebp]
  00034	c9		 leave
  00035	c2 04 00	 ret	 4
??_Gbad_array_new_length@std@@UAEPAXI@Z ENDP		; std::bad_array_new_length::`scalar deleting destructor'
_TEXT	ENDS
; Function compile flags: /Odspy
;	COMDAT ??0bad_array_new_length@std@@QAE@ABV01@@Z
_TEXT	SEGMENT
_this$ = -4						; size = 4
___that$ = 8						; size = 4
??0bad_array_new_length@std@@QAE@ABV01@@Z PROC		; std::bad_array_new_length::bad_array_new_length, COMDAT
; _this$ = ecx
  00000	55		 push	 ebp
  00001	8b ec		 mov	 ebp, esp
  00003	51		 push	 ecx
  00004	89 4d fc	 mov	 DWORD PTR _this$[ebp], ecx
  00007	ff 75 08	 push	 DWORD PTR ___that$[ebp]
  0000a	8b 4d fc	 mov	 ecx, DWORD PTR _this$[ebp]
  0000d	e8 00 00 00 00	 call	 ??0exception@std@@QAE@ABV01@@Z ; std::exception::exception
  00012	8b 45 fc	 mov	 eax, DWORD PTR _this$[ebp]
  00015	c7 00 00 00 00
	00		 mov	 DWORD PTR [eax], OFFSET ??_7bad_alloc@std@@6B@
  0001b	8b 45 fc	 mov	 eax, DWORD PTR _this$[ebp]
  0001e	c7 00 00 00 00
	00		 mov	 DWORD PTR [eax], OFFSET ??_7bad_array_new_length@std@@6B@
  00024	8b 45 fc	 mov	 eax, DWORD PTR _this$[ebp]
  00027	c9		 leave
  00028	c2 04 00	 ret	 4
??0bad_array_new_length@std@@QAE@ABV01@@Z ENDP		; std::bad_array_new_length::bad_array_new_length
_TEXT	ENDS
; Function compile flags: /Odspy
; File C:\Program Files (x86)\Microsoft Visual Studio\2019\Community\VC\Tools\MSVC\14.28.29333\include\vcruntime_exception.h
;	COMDAT ??1bad_array_new_length@std@@UAE@XZ
_TEXT	SEGMENT
_this$ = -4						; size = 4
??1bad_array_new_length@std@@UAE@XZ PROC		; std::bad_array_new_length::~bad_array_new_length, COMDAT
; _this$ = ecx
  00000	55		 push	 ebp
  00001	8b ec		 mov	 ebp, esp
  00003	51		 push	 ecx
  00004	89 4d fc	 mov	 DWORD PTR _this$[ebp], ecx

; 89   :     {

  00007	8b 45 fc	 mov	 eax, DWORD PTR _this$[ebp]
  0000a	c7 00 00 00 00
	00		 mov	 DWORD PTR [eax], OFFSET ??_7exception@std@@6B@

; 90   :         __std_exception_destroy(&_Data);

  00010	8b 45 fc	 mov	 eax, DWORD PTR _this$[ebp]
  00013	83 c0 04	 add	 eax, 4
  00016	50		 push	 eax
  00017	e8 00 00 00 00	 call	 ___std_exception_destroy
  0001c	59		 pop	 ecx
  0001d	c9		 leave
  0001e	c3		 ret	 0
??1bad_array_new_length@std@@UAE@XZ ENDP		; std::bad_array_new_length::~bad_array_new_length
_TEXT	ENDS
; Function compile flags: /Odspy
; File C:\Program Files (x86)\Microsoft Visual Studio\2019\Community\VC\Tools\MSVC\14.28.29333\include\vcruntime_exception.h
;	COMDAT ??0bad_array_new_length@std@@QAE@XZ
_TEXT	SEGMENT
_this$ = -4						; size = 4
??0bad_array_new_length@std@@QAE@XZ PROC		; std::bad_array_new_length::bad_array_new_length, COMDAT
; _this$ = ecx

; 141  :     {

  00000	55		 push	 ebp
  00001	8b ec		 mov	 ebp, esp
  00003	51		 push	 ecx
  00004	89 4d fc	 mov	 DWORD PTR _this$[ebp], ecx

; 66   :     {

  00007	8b 45 fc	 mov	 eax, DWORD PTR _this$[ebp]
  0000a	c7 00 00 00 00
	00		 mov	 DWORD PTR [eax], OFFSET ??_7exception@std@@6B@

; 65   :         : _Data()

  00010	33 c0		 xor	 eax, eax
  00012	8b 4d fc	 mov	 ecx, DWORD PTR _this$[ebp]
  00015	83 c1 04	 add	 ecx, 4
  00018	89 01		 mov	 DWORD PTR [ecx], eax
  0001a	89 41 04	 mov	 DWORD PTR [ecx+4], eax

; 67   :         _Data._What = _Message;

  0001d	8b 45 fc	 mov	 eax, DWORD PTR _this$[ebp]
  00020	c7 40 04 00 00
	00 00		 mov	 DWORD PTR [eax+4], OFFSET ??_C@_0BF@KINCDENJ@bad?5array?5new?5length@

; 130  :     {

  00027	8b 45 fc	 mov	 eax, DWORD PTR _this$[ebp]
  0002a	c7 00 00 00 00
	00		 mov	 DWORD PTR [eax], OFFSET ??_7bad_alloc@std@@6B@

; 141  :     {

  00030	8b 45 fc	 mov	 eax, DWORD PTR _this$[ebp]
  00033	c7 00 00 00 00
	00		 mov	 DWORD PTR [eax], OFFSET ??_7bad_array_new_length@std@@6B@

; 142  :     }

  00039	8b 45 fc	 mov	 eax, DWORD PTR _this$[ebp]
  0003c	c9		 leave
  0003d	c3		 ret	 0
??0bad_array_new_length@std@@QAE@XZ ENDP		; std::bad_array_new_length::bad_array_new_length
_TEXT	ENDS
; Function compile flags: /Odspy
; File C:\Program Files (x86)\Microsoft Visual Studio\2019\Community\VC\Tools\MSVC\14.28.29333\include\vcruntime_exception.h
;	COMDAT ??_Gbad_alloc@std@@UAEPAXI@Z
_TEXT	SEGMENT
_this$ = -4						; size = 4
___flags$ = 8						; size = 4
??_Gbad_alloc@std@@UAEPAXI@Z PROC			; std::bad_alloc::`scalar deleting destructor', COMDAT
; _this$ = ecx
  00000	55		 push	 ebp
  00001	8b ec		 mov	 ebp, esp
  00003	51		 push	 ecx
  00004	89 4d fc	 mov	 DWORD PTR _this$[ebp], ecx

; 89   :     {

  00007	8b 45 fc	 mov	 eax, DWORD PTR _this$[ebp]
  0000a	c7 00 00 00 00
	00		 mov	 DWORD PTR [eax], OFFSET ??_7exception@std@@6B@

; 90   :         __std_exception_destroy(&_Data);

  00010	8b 45 fc	 mov	 eax, DWORD PTR _this$[ebp]
  00013	83 c0 04	 add	 eax, 4
  00016	50		 push	 eax
  00017	e8 00 00 00 00	 call	 ___std_exception_destroy
  0001c	59		 pop	 ecx
  0001d	8b 45 08	 mov	 eax, DWORD PTR ___flags$[ebp]
  00020	83 e0 01	 and	 eax, 1
  00023	74 0c		 je	 SHORT $LN2@scalar
  00025	6a 0c		 push	 12			; 0000000cH
  00027	ff 75 fc	 push	 DWORD PTR _this$[ebp]
  0002a	e8 00 00 00 00	 call	 ??3@YAXPAXI@Z		; operator delete
  0002f	59		 pop	 ecx
  00030	59		 pop	 ecx
$LN2@scalar:
  00031	8b 45 fc	 mov	 eax, DWORD PTR _this$[ebp]
  00034	c9		 leave
  00035	c2 04 00	 ret	 4
??_Gbad_alloc@std@@UAEPAXI@Z ENDP			; std::bad_alloc::`scalar deleting destructor'
_TEXT	ENDS
; Function compile flags: /Odspy
;	COMDAT ??0bad_alloc@std@@QAE@ABV01@@Z
_TEXT	SEGMENT
_this$ = -4						; size = 4
___that$ = 8						; size = 4
??0bad_alloc@std@@QAE@ABV01@@Z PROC			; std::bad_alloc::bad_alloc, COMDAT
; _this$ = ecx
  00000	55		 push	 ebp
  00001	8b ec		 mov	 ebp, esp
  00003	51		 push	 ecx
  00004	89 4d fc	 mov	 DWORD PTR _this$[ebp], ecx
  00007	ff 75 08	 push	 DWORD PTR ___that$[ebp]
  0000a	8b 4d fc	 mov	 ecx, DWORD PTR _this$[ebp]
  0000d	e8 00 00 00 00	 call	 ??0exception@std@@QAE@ABV01@@Z ; std::exception::exception
  00012	8b 45 fc	 mov	 eax, DWORD PTR _this$[ebp]
  00015	c7 00 00 00 00
	00		 mov	 DWORD PTR [eax], OFFSET ??_7bad_alloc@std@@6B@
  0001b	8b 45 fc	 mov	 eax, DWORD PTR _this$[ebp]
  0001e	c9		 leave
  0001f	c2 04 00	 ret	 4
??0bad_alloc@std@@QAE@ABV01@@Z ENDP			; std::bad_alloc::bad_alloc
_TEXT	ENDS
; Function compile flags: /Odspy
; File C:\Program Files (x86)\Microsoft Visual Studio\2019\Community\VC\Tools\MSVC\14.28.29333\include\vcruntime_exception.h
;	COMDAT ??_Gexception@std@@UAEPAXI@Z
_TEXT	SEGMENT
_this$ = -4						; size = 4
___flags$ = 8						; size = 4
??_Gexception@std@@UAEPAXI@Z PROC			; std::exception::`scalar deleting destructor', COMDAT
; _this$ = ecx
  00000	55		 push	 ebp
  00001	8b ec		 mov	 ebp, esp
  00003	51		 push	 ecx
  00004	89 4d fc	 mov	 DWORD PTR _this$[ebp], ecx

; 89   :     {

  00007	8b 45 fc	 mov	 eax, DWORD PTR _this$[ebp]
  0000a	c7 00 00 00 00
	00		 mov	 DWORD PTR [eax], OFFSET ??_7exception@std@@6B@

; 90   :         __std_exception_destroy(&_Data);

  00010	8b 45 fc	 mov	 eax, DWORD PTR _this$[ebp]
  00013	83 c0 04	 add	 eax, 4
  00016	50		 push	 eax
  00017	e8 00 00 00 00	 call	 ___std_exception_destroy
  0001c	59		 pop	 ecx
  0001d	8b 45 08	 mov	 eax, DWORD PTR ___flags$[ebp]
  00020	83 e0 01	 and	 eax, 1
  00023	74 0c		 je	 SHORT $LN2@scalar
  00025	6a 0c		 push	 12			; 0000000cH
  00027	ff 75 fc	 push	 DWORD PTR _this$[ebp]
  0002a	e8 00 00 00 00	 call	 ??3@YAXPAXI@Z		; operator delete
  0002f	59		 pop	 ecx
  00030	59		 pop	 ecx
$LN2@scalar:
  00031	8b 45 fc	 mov	 eax, DWORD PTR _this$[ebp]
  00034	c9		 leave
  00035	c2 04 00	 ret	 4
??_Gexception@std@@UAEPAXI@Z ENDP			; std::exception::`scalar deleting destructor'
_TEXT	ENDS
; Function compile flags: /Odspy
; File C:\Program Files (x86)\Microsoft Visual Studio\2019\Community\VC\Tools\MSVC\14.28.29333\include\vcruntime_exception.h
;	COMDAT ?what@exception@std@@UBEPBDXZ
_TEXT	SEGMENT
tv69 = -8						; size = 4
_this$ = -4						; size = 4
?what@exception@std@@UBEPBDXZ PROC			; std::exception::what, COMDAT
; _this$ = ecx

; 94   :     {

  00000	55		 push	 ebp
  00001	8b ec		 mov	 ebp, esp
  00003	51		 push	 ecx
  00004	51		 push	 ecx
  00005	89 4d fc	 mov	 DWORD PTR _this$[ebp], ecx

; 95   :         return _Data._What ? _Data._What : "Unknown exception";

  00008	8b 45 fc	 mov	 eax, DWORD PTR _this$[ebp]
  0000b	83 78 04 00	 cmp	 DWORD PTR [eax+4], 0
  0000f	74 0b		 je	 SHORT $LN3@what
  00011	8b 45 fc	 mov	 eax, DWORD PTR _this$[ebp]
  00014	8b 40 04	 mov	 eax, DWORD PTR [eax+4]
  00017	89 45 f8	 mov	 DWORD PTR tv69[ebp], eax
  0001a	eb 07		 jmp	 SHORT $LN4@what
$LN3@what:
  0001c	c7 45 f8 00 00
	00 00		 mov	 DWORD PTR tv69[ebp], OFFSET ??_C@_0BC@EOODALEL@Unknown?5exception@
$LN4@what:
  00023	8b 45 f8	 mov	 eax, DWORD PTR tv69[ebp]

; 96   :     }

  00026	c9		 leave
  00027	c3		 ret	 0
?what@exception@std@@UBEPBDXZ ENDP			; std::exception::what
_TEXT	ENDS
; Function compile flags: /Odspy
; File C:\Program Files (x86)\Microsoft Visual Studio\2019\Community\VC\Tools\MSVC\14.28.29333\include\vcruntime_exception.h
;	COMDAT ??0exception@std@@QAE@ABV01@@Z
_TEXT	SEGMENT
_this$ = -4						; size = 4
__Other$ = 8						; size = 4
??0exception@std@@QAE@ABV01@@Z PROC			; std::exception::exception, COMDAT
; _this$ = ecx

; 72   :     {

  00000	55		 push	 ebp
  00001	8b ec		 mov	 ebp, esp
  00003	51		 push	 ecx
  00004	89 4d fc	 mov	 DWORD PTR _this$[ebp], ecx
  00007	8b 45 fc	 mov	 eax, DWORD PTR _this$[ebp]
  0000a	c7 00 00 00 00
	00		 mov	 DWORD PTR [eax], OFFSET ??_7exception@std@@6B@

; 71   :         : _Data()

  00010	33 c0		 xor	 eax, eax
  00012	8b 4d fc	 mov	 ecx, DWORD PTR _this$[ebp]
  00015	83 c1 04	 add	 ecx, 4
  00018	89 01		 mov	 DWORD PTR [ecx], eax
  0001a	89 41 04	 mov	 DWORD PTR [ecx+4], eax

; 73   :         __std_exception_copy(&_Other._Data, &_Data);

  0001d	8b 45 fc	 mov	 eax, DWORD PTR _this$[ebp]
  00020	83 c0 04	 add	 eax, 4
  00023	50		 push	 eax
  00024	8b 45 08	 mov	 eax, DWORD PTR __Other$[ebp]
  00027	83 c0 04	 add	 eax, 4
  0002a	50		 push	 eax
  0002b	e8 00 00 00 00	 call	 ___std_exception_copy
  00030	59		 pop	 ecx
  00031	59		 pop	 ecx

; 74   :     }

  00032	8b 45 fc	 mov	 eax, DWORD PTR _this$[ebp]
  00035	c9		 leave
  00036	c2 04 00	 ret	 4
??0exception@std@@QAE@ABV01@@Z ENDP			; std::exception::exception
_TEXT	ENDS
END
