; Listing generated by Microsoft (R) Optimizing Compiler Version 19.28.29335.0 

	TITLE	D:\Metin2 Server Files\mainline\SRC_2014\Metin2Client\GameLib\MonsterAreaInfo.cpp
	.686P
	.XMM
	include listing.inc
	.model	flat

INCLUDELIB LIBCMT
INCLUDELIB OLDNAMES

PUBLIC	??0exception@std@@QAE@ABV01@@Z			; std::exception::exception
PUBLIC	?what@exception@std@@UBEPBDXZ			; std::exception::what
PUBLIC	??_Gexception@std@@UAEPAXI@Z			; std::exception::`scalar deleting destructor'
PUBLIC	??0bad_alloc@std@@QAE@ABV01@@Z			; std::bad_alloc::bad_alloc
PUBLIC	??_Gbad_alloc@std@@UAEPAXI@Z			; std::bad_alloc::`scalar deleting destructor'
PUBLIC	??0bad_array_new_length@std@@QAE@XZ		; std::bad_array_new_length::bad_array_new_length
PUBLIC	??1bad_array_new_length@std@@UAE@XZ		; std::bad_array_new_length::~bad_array_new_length
PUBLIC	??0bad_array_new_length@std@@QAE@ABV01@@Z	; std::bad_array_new_length::bad_array_new_length
PUBLIC	??_Gbad_array_new_length@std@@UAEPAXI@Z		; std::bad_array_new_length::`scalar deleting destructor'
PUBLIC	?_Throw_bad_array_new_length@std@@YAXXZ		; std::_Throw_bad_array_new_length
PUBLIC	?_Adjust_manually_vector_aligned@std@@YAXAAPAXAAI@Z ; std::_Adjust_manually_vector_aligned
PUBLIC	?_Xlen_string@std@@YAXXZ			; std::_Xlen_string
PUBLIC	??0?$_String_val@U?$_Simple_types@D@std@@@std@@QAE@XZ ; std::_String_val<std::_Simple_types<char> >::_String_val<std::_Simple_types<char> >
PUBLIC	?_Myptr@?$_String_val@U?$_Simple_types@D@std@@@std@@QAEPADXZ ; std::_String_val<std::_Simple_types<char> >::_Myptr
PUBLIC	??1?$basic_string@DU?$char_traits@D@std@@V?$allocator@D@2@@std@@QAE@XZ ; std::basic_string<char,std::char_traits<char>,std::allocator<char> >::~basic_string<char,std::char_traits<char>,std::allocator<char> >
PUBLIC	?assign@?$basic_string@DU?$char_traits@D@std@@V?$allocator@D@2@@std@@QAEAAV12@QBDI@Z ; std::basic_string<char,std::char_traits<char>,std::allocator<char> >::assign
PUBLIC	?max_size@?$basic_string@DU?$char_traits@D@std@@V?$allocator@D@2@@std@@QBEIXZ ; std::basic_string<char,std::char_traits<char>,std::allocator<char> >::max_size
PUBLIC	?_Calculate_growth@?$basic_string@DU?$char_traits@D@std@@V?$allocator@D@2@@std@@ABEII@Z ; std::basic_string<char,std::char_traits<char>,std::allocator<char> >::_Calculate_growth
PUBLIC	?_Tidy_init@?$basic_string@DU?$char_traits@D@std@@V?$allocator@D@2@@std@@AAEXXZ ; std::basic_string<char,std::char_traits<char>,std::allocator<char> >::_Tidy_init
PUBLIC	?_Tidy_deallocate@?$basic_string@DU?$char_traits@D@std@@V?$allocator@D@2@@std@@AAEXXZ ; std::basic_string<char,std::char_traits<char>,std::allocator<char> >::_Tidy_deallocate
PUBLIC	??$_Destroy_in_place@PAD@std@@YAXAAPAD@Z	; std::_Destroy_in_place<char *>
PUBLIC	??$_Reallocate_for@V<lambda_9366063389c5f42a00a5088cf24e69de>@@PBD@?$basic_string@DU?$char_traits@D@std@@V?$allocator@D@2@@std@@AAEAAV01@IV<lambda_9366063389c5f42a00a5088cf24e69de>@@PBD@Z ; std::basic_string<char,std::char_traits<char>,std::allocator<char> >::_Reallocate_for<<lambda_9366063389c5f42a00a5088cf24e69de>,char const *>
PUBLIC	??$_Construct_in_place@PADABQAD@std@@YAXAAPADABQAD@Z ; std::_Construct_in_place<char *,char * const &>
PUBLIC	??$_Deallocate@$07$0A@@std@@YAXPAXI@Z		; std::_Deallocate<8,0>
PUBLIC	??$_Allocate@$07U_Default_allocate_traits@std@@$0A@@std@@YAPAXI@Z ; std::_Allocate<8,std::_Default_allocate_traits,0>
PUBLIC	??$_Allocate_manually_vector_aligned@U_Default_allocate_traits@std@@@std@@YAPAXI@Z ; std::_Allocate_manually_vector_aligned<std::_Default_allocate_traits>
PUBLIC	??0CMonsterAreaInfo@@QAE@XZ			; CMonsterAreaInfo::CMonsterAreaInfo
PUBLIC	??1CMonsterAreaInfo@@UAE@XZ			; CMonsterAreaInfo::~CMonsterAreaInfo
PUBLIC	?Clear@CMonsterAreaInfo@@QAEXXZ			; CMonsterAreaInfo::Clear
PUBLIC	?SetOrigin@CMonsterAreaInfo@@QAEXJJ@Z		; CMonsterAreaInfo::SetOrigin
PUBLIC	?GetOrigin@CMonsterAreaInfo@@QAEXPAJ0@Z		; CMonsterAreaInfo::GetOrigin
PUBLIC	?SetSize@CMonsterAreaInfo@@QAEXJJ@Z		; CMonsterAreaInfo::SetSize
PUBLIC	?GetSize@CMonsterAreaInfo@@QAEXPAJ0@Z		; CMonsterAreaInfo::GetSize
PUBLIC	?SetMonsterCount@CMonsterAreaInfo@@QAEXK@Z	; CMonsterAreaInfo::SetMonsterCount
PUBLIC	?SetMonsterDirection@CMonsterAreaInfo@@QAEXW4EMonsterDir@1@@Z ; CMonsterAreaInfo::SetMonsterDirection
PUBLIC	?RemoveAllMonsters@CMonsterAreaInfo@@QAEXXZ	; CMonsterAreaInfo::RemoveAllMonsters
PUBLIC	?GetTempMonsterPos@CMonsterAreaInfo@@QAE?AUD3DXVECTOR2@@K@Z ; CMonsterAreaInfo::GetTempMonsterPos
PUBLIC	?SetLRTB@CMonsterAreaInfo@@IAEXXZ		; CMonsterAreaInfo::SetLRTB
PUBLIC	?deallocate@?$allocator@UD3DXVECTOR2@@@std@@QAEXQAUD3DXVECTOR2@@I@Z ; std::allocator<D3DXVECTOR2>::deallocate
PUBLIC	??1?$vector@UD3DXVECTOR2@@V?$allocator@UD3DXVECTOR2@@@std@@@std@@QAE@XZ ; std::vector<D3DXVECTOR2,std::allocator<D3DXVECTOR2> >::~vector<D3DXVECTOR2,std::allocator<D3DXVECTOR2> >
PUBLIC	?clear@?$vector@UD3DXVECTOR2@@V?$allocator@UD3DXVECTOR2@@@std@@@std@@QAEXXZ ; std::vector<D3DXVECTOR2,std::allocator<D3DXVECTOR2> >::clear
PUBLIC	?_Destroy@?$vector@UD3DXVECTOR2@@V?$allocator@UD3DXVECTOR2@@@std@@@std@@AAEXPAUD3DXVECTOR2@@0@Z ; std::vector<D3DXVECTOR2,std::allocator<D3DXVECTOR2> >::_Destroy
PUBLIC	?_Calculate_growth@?$vector@UD3DXVECTOR2@@V?$allocator@UD3DXVECTOR2@@@std@@@std@@ABEII@Z ; std::vector<D3DXVECTOR2,std::allocator<D3DXVECTOR2> >::_Calculate_growth
PUBLIC	?_Change_array@?$vector@UD3DXVECTOR2@@V?$allocator@UD3DXVECTOR2@@@std@@@std@@AAEXQAUD3DXVECTOR2@@II@Z ; std::vector<D3DXVECTOR2,std::allocator<D3DXVECTOR2> >::_Change_array
PUBLIC	?_Tidy@?$vector@UD3DXVECTOR2@@V?$allocator@UD3DXVECTOR2@@@std@@@std@@AAEXXZ ; std::vector<D3DXVECTOR2,std::allocator<D3DXVECTOR2> >::_Tidy
PUBLIC	?_Xlength@?$vector@UD3DXVECTOR2@@V?$allocator@UD3DXVECTOR2@@@std@@@std@@CAXXZ ; std::vector<D3DXVECTOR2,std::allocator<D3DXVECTOR2> >::_Xlength
PUBLIC	?_Getal@?$vector@UD3DXVECTOR2@@V?$allocator@UD3DXVECTOR2@@@std@@@std@@AAEAAV?$allocator@UD3DXVECTOR2@@@2@XZ ; std::vector<D3DXVECTOR2,std::allocator<D3DXVECTOR2> >::_Getal
PUBLIC	??_GCMonsterAreaInfo@@UAEPAXI@Z			; CMonsterAreaInfo::`scalar deleting destructor'
PUBLIC	??$_Resize@U_Value_init_tag@std@@@?$vector@UD3DXVECTOR2@@V?$allocator@UD3DXVECTOR2@@@std@@@std@@AAEXIABU_Value_init_tag@1@@Z ; std::vector<D3DXVECTOR2,std::allocator<D3DXVECTOR2> >::_Resize<std::_Value_init_tag>
PUBLIC	??$_Destroy_range@V?$allocator@UD3DXVECTOR2@@@std@@@std@@YAXPAUD3DXVECTOR2@@QAU1@AAV?$allocator@UD3DXVECTOR2@@@0@@Z ; std::_Destroy_range<std::allocator<D3DXVECTOR2> >
PUBLIC	??$_Resize_reallocate@U_Value_init_tag@std@@@?$vector@UD3DXVECTOR2@@V?$allocator@UD3DXVECTOR2@@@std@@@std@@AAEXIABU_Value_init_tag@1@@Z ; std::vector<D3DXVECTOR2,std::allocator<D3DXVECTOR2> >::_Resize_reallocate<std::_Value_init_tag>
PUBLIC	??$_Uninitialized_value_construct_n@V?$allocator@UD3DXVECTOR2@@@std@@@std@@YAPAUD3DXVECTOR2@@PAU1@IAAV?$allocator@UD3DXVECTOR2@@@0@@Z ; std::_Uninitialized_value_construct_n<std::allocator<D3DXVECTOR2> >
PUBLIC	??$_Uninitialized_move@PAUD3DXVECTOR2@@V?$allocator@UD3DXVECTOR2@@@std@@@std@@YAPAUD3DXVECTOR2@@QAU1@0PAU1@AAV?$allocator@UD3DXVECTOR2@@@0@@Z ; std::_Uninitialized_move<D3DXVECTOR2 *,std::allocator<D3DXVECTOR2> >
PUBLIC	??_7exception@std@@6B@				; std::exception::`vftable'
PUBLIC	??_C@_0BC@EOODALEL@Unknown?5exception@		; `string'
PUBLIC	??_7bad_alloc@std@@6B@				; std::bad_alloc::`vftable'
PUBLIC	??_7bad_array_new_length@std@@6B@		; std::bad_array_new_length::`vftable'
PUBLIC	??_C@_0BF@KINCDENJ@bad?5array?5new?5length@	; `string'
PUBLIC	__TI3?AVbad_array_new_length@std@@
PUBLIC	__CTA3?AVbad_array_new_length@std@@
PUBLIC	??_R0?AVbad_array_new_length@std@@@8		; std::bad_array_new_length `RTTI Type Descriptor'
PUBLIC	__CT??_R0?AVbad_array_new_length@std@@@8??0bad_array_new_length@std@@QAE@ABV01@@Z12
PUBLIC	??_R0?AVbad_alloc@std@@@8			; std::bad_alloc `RTTI Type Descriptor'
PUBLIC	__CT??_R0?AVbad_alloc@std@@@8??0bad_alloc@std@@QAE@ABV01@@Z12
PUBLIC	??_R0?AVexception@std@@@8			; std::exception `RTTI Type Descriptor'
PUBLIC	__CT??_R0?AVexception@std@@@8??0exception@std@@QAE@ABV01@@Z12
PUBLIC	??_C@_0BA@JFNIOLAK@string?5too?5long@		; `string'
PUBLIC	??_R4exception@std@@6B@				; std::exception::`RTTI Complete Object Locator'
PUBLIC	??_R3exception@std@@8				; std::exception::`RTTI Class Hierarchy Descriptor'
PUBLIC	??_R2exception@std@@8				; std::exception::`RTTI Base Class Array'
PUBLIC	??_R1A@?0A@EA@exception@std@@8			; std::exception::`RTTI Base Class Descriptor at (0,-1,0,64)'
PUBLIC	??_R4bad_alloc@std@@6B@				; std::bad_alloc::`RTTI Complete Object Locator'
PUBLIC	??_R3bad_alloc@std@@8				; std::bad_alloc::`RTTI Class Hierarchy Descriptor'
PUBLIC	??_R2bad_alloc@std@@8				; std::bad_alloc::`RTTI Base Class Array'
PUBLIC	??_R1A@?0A@EA@bad_alloc@std@@8			; std::bad_alloc::`RTTI Base Class Descriptor at (0,-1,0,64)'
PUBLIC	??_R4bad_array_new_length@std@@6B@		; std::bad_array_new_length::`RTTI Complete Object Locator'
PUBLIC	??_R3bad_array_new_length@std@@8		; std::bad_array_new_length::`RTTI Class Hierarchy Descriptor'
PUBLIC	??_R2bad_array_new_length@std@@8		; std::bad_array_new_length::`RTTI Base Class Array'
PUBLIC	??_R1A@?0A@EA@bad_array_new_length@std@@8	; std::bad_array_new_length::`RTTI Base Class Descriptor at (0,-1,0,64)'
PUBLIC	??_7CMonsterAreaInfo@@6B@			; CMonsterAreaInfo::`vftable'
PUBLIC	??_C@_08LHFKFEHI@?$MA?L?$LI?$KH?$LO?x?$MA?$LN@	; `string'
PUBLIC	??_C@_0BA@FOIKENOD@vector?5too?5long@		; `string'
PUBLIC	??_R4CMonsterAreaInfo@@6B@			; CMonsterAreaInfo::`RTTI Complete Object Locator'
PUBLIC	??_R0?AVCMonsterAreaInfo@@@8			; CMonsterAreaInfo `RTTI Type Descriptor'
PUBLIC	??_R3CMonsterAreaInfo@@8			; CMonsterAreaInfo::`RTTI Class Hierarchy Descriptor'
PUBLIC	??_R2CMonsterAreaInfo@@8			; CMonsterAreaInfo::`RTTI Base Class Array'
PUBLIC	??_R1A@?0A@EA@CMonsterAreaInfo@@8		; CMonsterAreaInfo::`RTTI Base Class Descriptor at (0,-1,0,64)'
PUBLIC	__real@3c8efa35
PUBLIC	__real@3f800000
PUBLIC	__real@42340000
PUBLIC	__real@42b40000
PUBLIC	__real@43070000
PUBLIC	__real@43340000
PUBLIC	__real@43610000
PUBLIC	__real@43870000
PUBLIC	__real@439d8000
PUBLIC	__xmm@80000000800000008000000080000000
EXTRN	??2@YAPAXI@Z:PROC				; operator new
EXTRN	??3@YAXPAXI@Z:PROC				; operator delete
EXTRN	__invalid_parameter_noinfo_noreturn:PROC
EXTRN	_memcpy:PROC
EXTRN	_memmove:PROC
EXTRN	_strlen:PROC
EXTRN	___std_exception_copy:PROC
EXTRN	___std_exception_destroy:PROC
EXTRN	??_Eexception@std@@UAEPAXI@Z:PROC		; std::exception::`vector deleting destructor'
EXTRN	??_Ebad_alloc@std@@UAEPAXI@Z:PROC		; std::bad_alloc::`vector deleting destructor'
EXTRN	??_Ebad_array_new_length@std@@UAEPAXI@Z:PROC	; std::bad_array_new_length::`vector deleting destructor'
EXTRN	?_Xlength_error@std@@YAXPBD@Z:PROC		; std::_Xlength_error
EXTRN	?random_range@@YAJJJ@Z:PROC			; random_range
EXTRN	_D3DXVec2Normalize@8:PROC
EXTRN	_D3DXVec3TransformCoord@12:PROC
EXTRN	_D3DXMatrixRotationZ@8:PROC
EXTRN	??_ECMonsterAreaInfo@@UAEPAXI@Z:PROC		; CMonsterAreaInfo::`vector deleting destructor'
EXTRN	@__security_check_cookie@4:PROC
EXTRN	__CxxThrowException@8:PROC
EXTRN	___CxxFrameHandler3:PROC
EXTRN	??_7type_info@@6B@:QWORD			; type_info::`vftable'
EXTRN	___security_cookie:DWORD
EXTRN	__fltused:DWORD
;	COMDAT __xmm@80000000800000008000000080000000
CONST	SEGMENT
__xmm@80000000800000008000000080000000 DB 00H, 00H, 00H, 080H, 00H, 00H, 00H
	DB	080H, 00H, 00H, 00H, 080H, 00H, 00H, 00H, 080H
CONST	ENDS
;	COMDAT __real@439d8000
CONST	SEGMENT
__real@439d8000 DD 0439d8000r			; 315
CONST	ENDS
;	COMDAT __real@43870000
CONST	SEGMENT
__real@43870000 DD 043870000r			; 270
CONST	ENDS
;	COMDAT __real@43610000
CONST	SEGMENT
__real@43610000 DD 043610000r			; 225
CONST	ENDS
;	COMDAT __real@43340000
CONST	SEGMENT
__real@43340000 DD 043340000r			; 180
CONST	ENDS
;	COMDAT __real@43070000
CONST	SEGMENT
__real@43070000 DD 043070000r			; 135
CONST	ENDS
;	COMDAT __real@42b40000
CONST	SEGMENT
__real@42b40000 DD 042b40000r			; 90
CONST	ENDS
;	COMDAT __real@42340000
CONST	SEGMENT
__real@42340000 DD 042340000r			; 45
CONST	ENDS
;	COMDAT __real@3f800000
CONST	SEGMENT
__real@3f800000 DD 03f800000r			; 1
CONST	ENDS
;	COMDAT __real@3c8efa35
CONST	SEGMENT
__real@3c8efa35 DD 03c8efa35r			; 0.0174533
CONST	ENDS
;	COMDAT ??_R1A@?0A@EA@CMonsterAreaInfo@@8
rdata$r	SEGMENT
??_R1A@?0A@EA@CMonsterAreaInfo@@8 DD FLAT:??_R0?AVCMonsterAreaInfo@@@8 ; CMonsterAreaInfo::`RTTI Base Class Descriptor at (0,-1,0,64)'
	DD	00H
	DD	00H
	DD	0ffffffffH
	DD	00H
	DD	040H
	DD	FLAT:??_R3CMonsterAreaInfo@@8
rdata$r	ENDS
;	COMDAT ??_R2CMonsterAreaInfo@@8
rdata$r	SEGMENT
??_R2CMonsterAreaInfo@@8 DD FLAT:??_R1A@?0A@EA@CMonsterAreaInfo@@8 ; CMonsterAreaInfo::`RTTI Base Class Array'
rdata$r	ENDS
;	COMDAT ??_R3CMonsterAreaInfo@@8
rdata$r	SEGMENT
??_R3CMonsterAreaInfo@@8 DD 00H				; CMonsterAreaInfo::`RTTI Class Hierarchy Descriptor'
	DD	00H
	DD	01H
	DD	FLAT:??_R2CMonsterAreaInfo@@8
rdata$r	ENDS
;	COMDAT ??_R0?AVCMonsterAreaInfo@@@8
data$rs	SEGMENT
??_R0?AVCMonsterAreaInfo@@@8 DD FLAT:??_7type_info@@6B@	; CMonsterAreaInfo `RTTI Type Descriptor'
	DD	00H
	DB	'.?AVCMonsterAreaInfo@@', 00H
data$rs	ENDS
;	COMDAT ??_R4CMonsterAreaInfo@@6B@
rdata$r	SEGMENT
??_R4CMonsterAreaInfo@@6B@ DD 00H			; CMonsterAreaInfo::`RTTI Complete Object Locator'
	DD	00H
	DD	00H
	DD	FLAT:??_R0?AVCMonsterAreaInfo@@@8
	DD	FLAT:??_R3CMonsterAreaInfo@@8
rdata$r	ENDS
;	COMDAT ??_C@_0BA@FOIKENOD@vector?5too?5long@
CONST	SEGMENT
??_C@_0BA@FOIKENOD@vector?5too?5long@ DB 'vector too long', 00H ; `string'
CONST	ENDS
;	COMDAT ??_C@_08LHFKFEHI@?$MA?L?$LI?$KH?$LO?x?$MA?$LN@
CONST	SEGMENT
??_C@_08LHFKFEHI@?$MA?L?$LI?$KH?$LO?x?$MA?$LN@ DB 0c0H, 0ccH, 0b8H, 0a7H, 0beH
	DB	0f8H, 0c0H, 0bdH, 00H			; `string'
CONST	ENDS
;	COMDAT ??_7CMonsterAreaInfo@@6B@
CONST	SEGMENT
??_7CMonsterAreaInfo@@6B@ DD FLAT:??_R4CMonsterAreaInfo@@6B@ ; CMonsterAreaInfo::`vftable'
	DD	FLAT:??_ECMonsterAreaInfo@@UAEPAXI@Z
CONST	ENDS
;	COMDAT ??_R1A@?0A@EA@bad_array_new_length@std@@8
rdata$r	SEGMENT
??_R1A@?0A@EA@bad_array_new_length@std@@8 DD FLAT:??_R0?AVbad_array_new_length@std@@@8 ; std::bad_array_new_length::`RTTI Base Class Descriptor at (0,-1,0,64)'
	DD	02H
	DD	00H
	DD	0ffffffffH
	DD	00H
	DD	040H
	DD	FLAT:??_R3bad_array_new_length@std@@8
rdata$r	ENDS
;	COMDAT ??_R2bad_array_new_length@std@@8
rdata$r	SEGMENT
??_R2bad_array_new_length@std@@8 DD FLAT:??_R1A@?0A@EA@bad_array_new_length@std@@8 ; std::bad_array_new_length::`RTTI Base Class Array'
	DD	FLAT:??_R1A@?0A@EA@bad_alloc@std@@8
	DD	FLAT:??_R1A@?0A@EA@exception@std@@8
rdata$r	ENDS
;	COMDAT ??_R3bad_array_new_length@std@@8
rdata$r	SEGMENT
??_R3bad_array_new_length@std@@8 DD 00H			; std::bad_array_new_length::`RTTI Class Hierarchy Descriptor'
	DD	00H
	DD	03H
	DD	FLAT:??_R2bad_array_new_length@std@@8
rdata$r	ENDS
;	COMDAT ??_R4bad_array_new_length@std@@6B@
rdata$r	SEGMENT
??_R4bad_array_new_length@std@@6B@ DD 00H		; std::bad_array_new_length::`RTTI Complete Object Locator'
	DD	00H
	DD	00H
	DD	FLAT:??_R0?AVbad_array_new_length@std@@@8
	DD	FLAT:??_R3bad_array_new_length@std@@8
rdata$r	ENDS
;	COMDAT ??_R1A@?0A@EA@bad_alloc@std@@8
rdata$r	SEGMENT
??_R1A@?0A@EA@bad_alloc@std@@8 DD FLAT:??_R0?AVbad_alloc@std@@@8 ; std::bad_alloc::`RTTI Base Class Descriptor at (0,-1,0,64)'
	DD	01H
	DD	00H
	DD	0ffffffffH
	DD	00H
	DD	040H
	DD	FLAT:??_R3bad_alloc@std@@8
rdata$r	ENDS
;	COMDAT ??_R2bad_alloc@std@@8
rdata$r	SEGMENT
??_R2bad_alloc@std@@8 DD FLAT:??_R1A@?0A@EA@bad_alloc@std@@8 ; std::bad_alloc::`RTTI Base Class Array'
	DD	FLAT:??_R1A@?0A@EA@exception@std@@8
rdata$r	ENDS
;	COMDAT ??_R3bad_alloc@std@@8
rdata$r	SEGMENT
??_R3bad_alloc@std@@8 DD 00H				; std::bad_alloc::`RTTI Class Hierarchy Descriptor'
	DD	00H
	DD	02H
	DD	FLAT:??_R2bad_alloc@std@@8
rdata$r	ENDS
;	COMDAT ??_R4bad_alloc@std@@6B@
rdata$r	SEGMENT
??_R4bad_alloc@std@@6B@ DD 00H				; std::bad_alloc::`RTTI Complete Object Locator'
	DD	00H
	DD	00H
	DD	FLAT:??_R0?AVbad_alloc@std@@@8
	DD	FLAT:??_R3bad_alloc@std@@8
rdata$r	ENDS
;	COMDAT ??_R1A@?0A@EA@exception@std@@8
rdata$r	SEGMENT
??_R1A@?0A@EA@exception@std@@8 DD FLAT:??_R0?AVexception@std@@@8 ; std::exception::`RTTI Base Class Descriptor at (0,-1,0,64)'
	DD	00H
	DD	00H
	DD	0ffffffffH
	DD	00H
	DD	040H
	DD	FLAT:??_R3exception@std@@8
rdata$r	ENDS
;	COMDAT ??_R2exception@std@@8
rdata$r	SEGMENT
??_R2exception@std@@8 DD FLAT:??_R1A@?0A@EA@exception@std@@8 ; std::exception::`RTTI Base Class Array'
rdata$r	ENDS
;	COMDAT ??_R3exception@std@@8
rdata$r	SEGMENT
??_R3exception@std@@8 DD 00H				; std::exception::`RTTI Class Hierarchy Descriptor'
	DD	00H
	DD	01H
	DD	FLAT:??_R2exception@std@@8
rdata$r	ENDS
;	COMDAT ??_R4exception@std@@6B@
rdata$r	SEGMENT
??_R4exception@std@@6B@ DD 00H				; std::exception::`RTTI Complete Object Locator'
	DD	00H
	DD	00H
	DD	FLAT:??_R0?AVexception@std@@@8
	DD	FLAT:??_R3exception@std@@8
rdata$r	ENDS
;	COMDAT ??_C@_0BA@JFNIOLAK@string?5too?5long@
CONST	SEGMENT
??_C@_0BA@JFNIOLAK@string?5too?5long@ DB 'string too long', 00H ; `string'
CONST	ENDS
;	COMDAT __CT??_R0?AVexception@std@@@8??0exception@std@@QAE@ABV01@@Z12
xdata$x	SEGMENT
__CT??_R0?AVexception@std@@@8??0exception@std@@QAE@ABV01@@Z12 DD 00H
	DD	FLAT:??_R0?AVexception@std@@@8
	DD	00H
	DD	0ffffffffH
	ORG $+4
	DD	0cH
	DD	FLAT:??0exception@std@@QAE@ABV01@@Z
xdata$x	ENDS
;	COMDAT ??_R0?AVexception@std@@@8
data$r	SEGMENT
??_R0?AVexception@std@@@8 DD FLAT:??_7type_info@@6B@	; std::exception `RTTI Type Descriptor'
	DD	00H
	DB	'.?AVexception@std@@', 00H
data$r	ENDS
;	COMDAT __CT??_R0?AVbad_alloc@std@@@8??0bad_alloc@std@@QAE@ABV01@@Z12
xdata$x	SEGMENT
__CT??_R0?AVbad_alloc@std@@@8??0bad_alloc@std@@QAE@ABV01@@Z12 DD 010H
	DD	FLAT:??_R0?AVbad_alloc@std@@@8
	DD	00H
	DD	0ffffffffH
	ORG $+4
	DD	0cH
	DD	FLAT:??0bad_alloc@std@@QAE@ABV01@@Z
xdata$x	ENDS
;	COMDAT ??_R0?AVbad_alloc@std@@@8
data$r	SEGMENT
??_R0?AVbad_alloc@std@@@8 DD FLAT:??_7type_info@@6B@	; std::bad_alloc `RTTI Type Descriptor'
	DD	00H
	DB	'.?AVbad_alloc@std@@', 00H
data$r	ENDS
;	COMDAT __CT??_R0?AVbad_array_new_length@std@@@8??0bad_array_new_length@std@@QAE@ABV01@@Z12
xdata$x	SEGMENT
__CT??_R0?AVbad_array_new_length@std@@@8??0bad_array_new_length@std@@QAE@ABV01@@Z12 DD 00H
	DD	FLAT:??_R0?AVbad_array_new_length@std@@@8
	DD	00H
	DD	0ffffffffH
	ORG $+4
	DD	0cH
	DD	FLAT:??0bad_array_new_length@std@@QAE@ABV01@@Z
xdata$x	ENDS
;	COMDAT ??_R0?AVbad_array_new_length@std@@@8
data$r	SEGMENT
??_R0?AVbad_array_new_length@std@@@8 DD FLAT:??_7type_info@@6B@ ; std::bad_array_new_length `RTTI Type Descriptor'
	DD	00H
	DB	'.?AVbad_array_new_length@std@@', 00H
data$r	ENDS
;	COMDAT __CTA3?AVbad_array_new_length@std@@
xdata$x	SEGMENT
__CTA3?AVbad_array_new_length@std@@ DD 03H
	DD	FLAT:__CT??_R0?AVbad_array_new_length@std@@@8??0bad_array_new_length@std@@QAE@ABV01@@Z12
	DD	FLAT:__CT??_R0?AVbad_alloc@std@@@8??0bad_alloc@std@@QAE@ABV01@@Z12
	DD	FLAT:__CT??_R0?AVexception@std@@@8??0exception@std@@QAE@ABV01@@Z12
xdata$x	ENDS
;	COMDAT __TI3?AVbad_array_new_length@std@@
xdata$x	SEGMENT
__TI3?AVbad_array_new_length@std@@ DD 00H
	DD	FLAT:??1bad_array_new_length@std@@UAE@XZ
	DD	00H
	DD	FLAT:__CTA3?AVbad_array_new_length@std@@
xdata$x	ENDS
;	COMDAT ??_C@_0BF@KINCDENJ@bad?5array?5new?5length@
CONST	SEGMENT
??_C@_0BF@KINCDENJ@bad?5array?5new?5length@ DB 'bad array new length', 00H ; `string'
CONST	ENDS
;	COMDAT ??_7bad_array_new_length@std@@6B@
CONST	SEGMENT
??_7bad_array_new_length@std@@6B@ DD FLAT:??_R4bad_array_new_length@std@@6B@ ; std::bad_array_new_length::`vftable'
	DD	FLAT:??_Ebad_array_new_length@std@@UAEPAXI@Z
	DD	FLAT:?what@exception@std@@UBEPBDXZ
CONST	ENDS
;	COMDAT ??_7bad_alloc@std@@6B@
CONST	SEGMENT
??_7bad_alloc@std@@6B@ DD FLAT:??_R4bad_alloc@std@@6B@	; std::bad_alloc::`vftable'
	DD	FLAT:??_Ebad_alloc@std@@UAEPAXI@Z
	DD	FLAT:?what@exception@std@@UBEPBDXZ
CONST	ENDS
;	COMDAT ??_C@_0BC@EOODALEL@Unknown?5exception@
CONST	SEGMENT
??_C@_0BC@EOODALEL@Unknown?5exception@ DB 'Unknown exception', 00H ; `string'
CONST	ENDS
;	COMDAT ??_7exception@std@@6B@
CONST	SEGMENT
??_7exception@std@@6B@ DD FLAT:??_R4exception@std@@6B@	; std::exception::`vftable'
	DD	FLAT:??_Eexception@std@@UAEPAXI@Z
	DD	FLAT:?what@exception@std@@UBEPBDXZ
CONST	ENDS
;	COMDAT xdata$x
xdata$x	SEGMENT
__catchsym$??$_Resize_reallocate@U_Value_init_tag@std@@@?$vector@UD3DXVECTOR2@@V?$allocator@UD3DXVECTOR2@@@std@@@std@@AAEXIABU_Value_init_tag@1@@Z$26 DD 040H
	DD	00H
	DD	00H
	DD	FLAT:__catch$??$_Resize_reallocate@U_Value_init_tag@std@@@?$vector@UD3DXVECTOR2@@V?$allocator@UD3DXVECTOR2@@@std@@@std@@AAEXIABU_Value_init_tag@1@@Z$0
__unwindtable$??$_Resize_reallocate@U_Value_init_tag@std@@@?$vector@UD3DXVECTOR2@@V?$allocator@UD3DXVECTOR2@@@std@@@std@@AAEXIABU_Value_init_tag@1@@Z DD 0ffffffffH
	DD	00H
	DD	0ffffffffH
	DD	00H
__tryblocktable$??$_Resize_reallocate@U_Value_init_tag@std@@@?$vector@UD3DXVECTOR2@@V?$allocator@UD3DXVECTOR2@@@std@@@std@@AAEXIABU_Value_init_tag@1@@Z DD 00H
	DD	00H
	DD	01H
	DD	01H
	DD	FLAT:__catchsym$??$_Resize_reallocate@U_Value_init_tag@std@@@?$vector@UD3DXVECTOR2@@V?$allocator@UD3DXVECTOR2@@@std@@@std@@AAEXIABU_Value_init_tag@1@@Z$26
__ehfuncinfo$??$_Resize_reallocate@U_Value_init_tag@std@@@?$vector@UD3DXVECTOR2@@V?$allocator@UD3DXVECTOR2@@@std@@@std@@AAEXIABU_Value_init_tag@1@@Z DD 019930522H
	DD	02H
	DD	FLAT:__unwindtable$??$_Resize_reallocate@U_Value_init_tag@std@@@?$vector@UD3DXVECTOR2@@V?$allocator@UD3DXVECTOR2@@@std@@@std@@AAEXIABU_Value_init_tag@1@@Z
	DD	01H
	DD	FLAT:__tryblocktable$??$_Resize_reallocate@U_Value_init_tag@std@@@?$vector@UD3DXVECTOR2@@V?$allocator@UD3DXVECTOR2@@@std@@@std@@AAEXIABU_Value_init_tag@1@@Z
	DD	2 DUP(00H)
	DD	00H
	DD	01H
xdata$x	ENDS
;	COMDAT xdata$x
xdata$x	SEGMENT
__ehfuncinfo$??1CMonsterAreaInfo@@UAE@XZ DD 019930522H
	DD	00H
	DD	00H
	DD	2 DUP(00H)
	DD	2 DUP(00H)
	DD	00H
	DD	05H
xdata$x	ENDS
;	COMDAT xdata$x
xdata$x	SEGMENT
__unwindtable$??0CMonsterAreaInfo@@QAE@XZ DD 0ffffffffH
	DD	FLAT:__unwindfunclet$??0CMonsterAreaInfo@@QAE@XZ$0
	DD	00H
	DD	FLAT:__unwindfunclet$??0CMonsterAreaInfo@@QAE@XZ$1
	DD	01H
	DD	FLAT:__unwindfunclet$??0CMonsterAreaInfo@@QAE@XZ$2
	DD	02H
	DD	FLAT:__unwindfunclet$??0CMonsterAreaInfo@@QAE@XZ$3
__ehfuncinfo$??0CMonsterAreaInfo@@QAE@XZ DD 019930522H
	DD	04H
	DD	FLAT:__unwindtable$??0CMonsterAreaInfo@@QAE@XZ
	DD	2 DUP(00H)
	DD	2 DUP(00H)
	DD	00H
	DD	01H
xdata$x	ENDS
;	COMDAT xdata$x
xdata$x	SEGMENT
__ehfuncinfo$??$_Deallocate@$07$0A@@std@@YAXPAXI@Z DD 019930522H
	DD	00H
	DD	00H
	DD	2 DUP(00H)
	DD	2 DUP(00H)
	DD	00H
	DD	05H
xdata$x	ENDS
; Function compile flags: /Odspy
; File C:\Program Files (x86)\Microsoft Visual Studio\2019\Community\VC\Tools\MSVC\14.28.29333\include\xmemory
; File C:\Program Files (x86)\Microsoft Visual Studio\2019\Community\VC\Tools\MSVC\14.28.29333\include\type_traits
; File C:\Program Files (x86)\Microsoft Visual Studio\2019\Community\VC\Tools\MSVC\14.28.29333\include\xmemory
; File C:\Program Files (x86)\Microsoft Visual Studio\2019\Community\VC\Tools\MSVC\14.28.29333\include\xstddef
; File C:\Program Files (x86)\Microsoft Visual Studio\2019\Community\VC\Tools\MSVC\14.28.29333\include\xmemory
; File C:\Program Files (x86)\Microsoft Visual Studio\2019\Community\VC\Tools\MSVC\14.28.29333\include\vcruntime_new.h
; File C:\Program Files (x86)\Microsoft Visual Studio\2019\Community\VC\Tools\MSVC\14.28.29333\include\type_traits
; File C:\Program Files (x86)\Microsoft Visual Studio\2019\Community\VC\Tools\MSVC\14.28.29333\include\xmemory
;	COMDAT ??$_Uninitialized_move@PAUD3DXVECTOR2@@V?$allocator@UD3DXVECTOR2@@@std@@@std@@YAPAUD3DXVECTOR2@@QAU1@0PAU1@AAV?$allocator@UD3DXVECTOR2@@@0@@Z
_TEXT	SEGMENT
__Backout$1 = -52					; size = 12
___formal$ = -40					; size = 4
$T2 = -36						; size = 4
$T3 = -32						; size = 4
$T4 = -28						; size = 4
$T5 = -24						; size = 4
$T6 = -20						; size = 4
__Ptr$ = -16						; size = 4
$T7 = -12						; size = 4
__ULast$ = -8						; size = 4
__UFirst$ = -4						; size = 4
__First$ = 8						; size = 4
__Last$ = 12						; size = 4
__Dest$ = 16						; size = 4
__Al$ = 20						; size = 4
??$_Uninitialized_move@PAUD3DXVECTOR2@@V?$allocator@UD3DXVECTOR2@@@std@@@std@@YAPAUD3DXVECTOR2@@QAU1@0PAU1@AAV?$allocator@UD3DXVECTOR2@@@0@@Z PROC ; std::_Uninitialized_move<D3DXVECTOR2 *,std::allocator<D3DXVECTOR2> >, COMDAT

; 1685 :     const _InIt _First, const _InIt _Last, _Alloc_ptr_t<_Alloc> _Dest, _Alloc& _Al) {

  00000	55		 push	 ebp
  00001	8b ec		 mov	 ebp, esp
  00003	83 ec 34	 sub	 esp, 52			; 00000034H

; 1686 :     // move [_First, _Last) to raw _Dest, using _Al
; 1687 :     // note: only called internally from elsewhere in the STL
; 1688 :     using _Ptrval     = typename _Alloc::value_type*;
; 1689 :     auto _UFirst      = _Get_unwrapped(_First);

  00006	8b 45 08	 mov	 eax, DWORD PTR __First$[ebp]
  00009	89 45 fc	 mov	 DWORD PTR __UFirst$[ebp], eax

; 1690 :     const auto _ULast = _Get_unwrapped(_Last);

  0000c	8b 45 0c	 mov	 eax, DWORD PTR __Last$[ebp]
  0000f	89 45 f8	 mov	 DWORD PTR __ULast$[ebp], eax

; 1535 :     _Uninitialized_backout_al(pointer _Dest, _Alloc& _Al_) : _First(_Dest), _Last(_Dest), _Al(_Al_) {}

  00012	8b 45 10	 mov	 eax, DWORD PTR __Dest$[ebp]
  00015	89 45 cc	 mov	 DWORD PTR __Backout$1[ebp], eax
  00018	8b 45 10	 mov	 eax, DWORD PTR __Dest$[ebp]
  0001b	89 45 d0	 mov	 DWORD PTR __Backout$1[ebp+4], eax
  0001e	8b 45 14	 mov	 eax, DWORD PTR __Al$[ebp]
  00021	89 45 d4	 mov	 DWORD PTR __Backout$1[ebp+8], eax

; 1691 :     if constexpr (conjunction_v<bool_constant<_Ptr_move_cat<decltype(_UFirst), _Ptrval>::_Really_trivial>,
; 1692 :                       _Uses_default_construct<_Alloc, _Ptrval, decltype(_STD move(*_UFirst))>>) {
; 1693 :         _Copy_memmove(_UFirst, _ULast, _Unfancy(_Dest));
; 1694 :         return _Dest + (_ULast - _UFirst);
; 1695 :     } else {
; 1696 :         _Uninitialized_backout_al<_Alloc> _Backout{_Dest, _Al};
; 1697 :         for (; _UFirst != _ULast; ++_UFirst) {

  00024	eb 09		 jmp	 SHORT $LN4@Uninitiali
$LN2@Uninitiali:
  00026	8b 45 fc	 mov	 eax, DWORD PTR __UFirst$[ebp]
  00029	83 c0 08	 add	 eax, 8
  0002c	89 45 fc	 mov	 DWORD PTR __UFirst$[ebp], eax
$LN4@Uninitiali:
  0002f	8b 45 fc	 mov	 eax, DWORD PTR __UFirst$[ebp]
  00032	3b 45 f8	 cmp	 eax, DWORD PTR __ULast$[ebp]
  00035	74 45		 je	 SHORT $LN3@Uninitiali
; File C:\Program Files (x86)\Microsoft Visual Studio\2019\Community\VC\Tools\MSVC\14.28.29333\include\type_traits

; 1455 :     return static_cast<remove_reference_t<_Ty>&&>(_Arg);

  00037	8b 45 fc	 mov	 eax, DWORD PTR __UFirst$[ebp]
  0003a	89 45 f4	 mov	 DWORD PTR $T7[ebp], eax

; 1443 :     return static_cast<_Ty&&>(_Arg);

  0003d	8b 45 f4	 mov	 eax, DWORD PTR $T7[ebp]
  00040	89 45 e8	 mov	 DWORD PTR $T5[ebp], eax
; File C:\Program Files (x86)\Microsoft Visual Studio\2019\Community\VC\Tools\MSVC\14.28.29333\include\xmemory

; 1546 :         allocator_traits<_Alloc>::construct(_Al, _Unfancy(_Last), _STD forward<_Types>(_Vals)...);

  00043	8b 45 d0	 mov	 eax, DWORD PTR __Backout$1[ebp+4]
  00046	89 45 f0	 mov	 DWORD PTR __Ptr$[ebp], eax
; File C:\Program Files (x86)\Microsoft Visual Studio\2019\Community\VC\Tools\MSVC\14.28.29333\include\xstddef

; 289  :     return _Ptr;

  00049	8b 45 f0	 mov	 eax, DWORD PTR __Ptr$[ebp]
  0004c	89 45 ec	 mov	 DWORD PTR $T6[ebp], eax
; File C:\Program Files (x86)\Microsoft Visual Studio\2019\Community\VC\Tools\MSVC\14.28.29333\include\xmemory

; 1546 :         allocator_traits<_Alloc>::construct(_Al, _Unfancy(_Last), _STD forward<_Types>(_Vals)...);

  0004f	8b 45 d4	 mov	 eax, DWORD PTR __Backout$1[ebp+8]
  00052	89 45 d8	 mov	 DWORD PTR ___formal$[ebp], eax
; File C:\Program Files (x86)\Microsoft Visual Studio\2019\Community\VC\Tools\MSVC\14.28.29333\include\vcruntime_new.h

; 169  :         return _Where;

  00055	8b 45 ec	 mov	 eax, DWORD PTR $T6[ebp]
  00058	89 45 e0	 mov	 DWORD PTR $T3[ebp], eax
; File C:\Program Files (x86)\Microsoft Visual Studio\2019\Community\VC\Tools\MSVC\14.28.29333\include\type_traits

; 1443 :     return static_cast<_Ty&&>(_Arg);

  0005b	8b 45 e8	 mov	 eax, DWORD PTR $T5[ebp]
  0005e	89 45 e4	 mov	 DWORD PTR $T4[ebp], eax
; File C:\Program Files (x86)\Microsoft Visual Studio\2019\Community\VC\Tools\MSVC\14.28.29333\include\xmemory

; 701  :         ::new (const_cast<void*>(static_cast<const volatile void*>(_Ptr))) _Objty(_STD forward<_Types>(_Args)...);

  00061	8b 45 e4	 mov	 eax, DWORD PTR $T4[ebp]
  00064	8b 08		 mov	 ecx, DWORD PTR [eax]
  00066	8b 40 04	 mov	 eax, DWORD PTR [eax+4]
  00069	8b 55 e0	 mov	 edx, DWORD PTR $T3[ebp]
  0006c	89 0a		 mov	 DWORD PTR [edx], ecx
  0006e	89 42 04	 mov	 DWORD PTR [edx+4], eax

; 1547 :         ++_Last;

  00071	8b 45 d0	 mov	 eax, DWORD PTR __Backout$1[ebp+4]
  00074	83 c0 08	 add	 eax, 8
  00077	89 45 d0	 mov	 DWORD PTR __Backout$1[ebp+4], eax

; 1698 :             _Backout._Emplace_back(_STD move(*_UFirst));
; 1699 :         }

  0007a	eb aa		 jmp	 SHORT $LN2@Uninitiali
$LN3@Uninitiali:

; 1551 :         _First = _Last;

  0007c	8b 45 d0	 mov	 eax, DWORD PTR __Backout$1[ebp+4]
  0007f	89 45 cc	 mov	 DWORD PTR __Backout$1[ebp], eax

; 1552 :         return _Last;

  00082	8b 45 d0	 mov	 eax, DWORD PTR __Backout$1[ebp+4]
  00085	89 45 dc	 mov	 DWORD PTR $T2[ebp], eax

; 1541 :         _Destroy_range(_First, _Last, _Al);

  00088	ff 75 d4	 push	 DWORD PTR __Backout$1[ebp+8]
  0008b	ff 75 d0	 push	 DWORD PTR __Backout$1[ebp+4]
  0008e	ff 75 cc	 push	 DWORD PTR __Backout$1[ebp]
  00091	e8 00 00 00 00	 call	 ??$_Destroy_range@V?$allocator@UD3DXVECTOR2@@@std@@@std@@YAXPAUD3DXVECTOR2@@QAU1@AAV?$allocator@UD3DXVECTOR2@@@0@@Z ; std::_Destroy_range<std::allocator<D3DXVECTOR2> >
  00096	83 c4 0c	 add	 esp, 12			; 0000000cH

; 1700 : 
; 1701 :         return _Backout._Release();

  00099	8b 45 dc	 mov	 eax, DWORD PTR $T2[ebp]

; 1702 :     }
; 1703 : }

  0009c	c9		 leave
  0009d	c3		 ret	 0
??$_Uninitialized_move@PAUD3DXVECTOR2@@V?$allocator@UD3DXVECTOR2@@@std@@@std@@YAPAUD3DXVECTOR2@@QAU1@0PAU1@AAV?$allocator@UD3DXVECTOR2@@@0@@Z ENDP ; std::_Uninitialized_move<D3DXVECTOR2 *,std::allocator<D3DXVECTOR2> >
_TEXT	ENDS
; Function compile flags: /Odspy
; File C:\Program Files (x86)\Microsoft Visual Studio\2019\Community\VC\Tools\MSVC\14.28.29333\include\xmemory
; File C:\Program Files (x86)\Microsoft Visual Studio\2019\Community\VC\Tools\MSVC\14.28.29333\include\xstddef
; File C:\Program Files (x86)\Microsoft Visual Studio\2019\Community\VC\Tools\MSVC\14.28.29333\include\xmemory
; File C:\Program Files (x86)\Microsoft Visual Studio\2019\Community\VC\Tools\MSVC\14.28.29333\include\vcruntime_new.h
; File C:\Program Files (x86)\Microsoft Visual Studio\2019\Community\VC\Tools\MSVC\14.28.29333\include\xmemory
;	COMDAT ??$_Uninitialized_value_construct_n@V?$allocator@UD3DXVECTOR2@@@std@@@std@@YAPAUD3DXVECTOR2@@PAU1@IAAV?$allocator@UD3DXVECTOR2@@@0@@Z
_TEXT	SEGMENT
__Backout$1 = -32					; size = 12
$T2 = -20						; size = 4
___formal$ = -16					; size = 4
$T3 = -12						; size = 4
$T4 = -8						; size = 4
__Ptr$ = -4						; size = 4
__First$ = 8						; size = 4
__Count$ = 12						; size = 4
__Al$ = 16						; size = 4
??$_Uninitialized_value_construct_n@V?$allocator@UD3DXVECTOR2@@@std@@@std@@YAPAUD3DXVECTOR2@@PAU1@IAAV?$allocator@UD3DXVECTOR2@@@0@@Z PROC ; std::_Uninitialized_value_construct_n<std::allocator<D3DXVECTOR2> >, COMDAT

; 1862 :     _Alloc_ptr_t<_Alloc> _First, _Alloc_size_t<_Alloc> _Count, _Alloc& _Al) {

  00000	55		 push	 ebp
  00001	8b ec		 mov	 ebp, esp
  00003	83 ec 20	 sub	 esp, 32			; 00000020H

; 1535 :     _Uninitialized_backout_al(pointer _Dest, _Alloc& _Al_) : _First(_Dest), _Last(_Dest), _Al(_Al_) {}

  00006	8b 45 08	 mov	 eax, DWORD PTR __First$[ebp]
  00009	89 45 e0	 mov	 DWORD PTR __Backout$1[ebp], eax
  0000c	8b 45 08	 mov	 eax, DWORD PTR __First$[ebp]
  0000f	89 45 e4	 mov	 DWORD PTR __Backout$1[ebp+4], eax
  00012	8b 45 10	 mov	 eax, DWORD PTR __Al$[ebp]
  00015	89 45 e8	 mov	 DWORD PTR __Backout$1[ebp+8], eax

; 1863 :     // value-initialize _Count objects to raw _First, using _Al
; 1864 :     using _Ptrty = typename _Alloc::value_type*;
; 1865 :     if constexpr (_Use_memset_value_construct_v<_Ptrty> && _Uses_default_construct<_Alloc, _Ptrty>::value) {
; 1866 :         auto _PFirst = _Unfancy(_First);
; 1867 :         _Zero_range(_PFirst, _PFirst + _Count);
; 1868 :         return _First + _Count;
; 1869 :     } else {
; 1870 :         _Uninitialized_backout_al<_Alloc> _Backout{_First, _Al};
; 1871 :         for (; 0 < _Count; --_Count) {

  00018	eb 07		 jmp	 SHORT $LN4@Uninitiali
$LN2@Uninitiali:
  0001a	8b 45 0c	 mov	 eax, DWORD PTR __Count$[ebp]
  0001d	48		 dec	 eax
  0001e	89 45 0c	 mov	 DWORD PTR __Count$[ebp], eax
$LN4@Uninitiali:
  00021	83 7d 0c 00	 cmp	 DWORD PTR __Count$[ebp], 0
  00025	76 23		 jbe	 SHORT $LN3@Uninitiali

; 1546 :         allocator_traits<_Alloc>::construct(_Al, _Unfancy(_Last), _STD forward<_Types>(_Vals)...);

  00027	8b 45 e4	 mov	 eax, DWORD PTR __Backout$1[ebp+4]
  0002a	89 45 fc	 mov	 DWORD PTR __Ptr$[ebp], eax
; File C:\Program Files (x86)\Microsoft Visual Studio\2019\Community\VC\Tools\MSVC\14.28.29333\include\xstddef

; 289  :     return _Ptr;

  0002d	8b 45 fc	 mov	 eax, DWORD PTR __Ptr$[ebp]
  00030	89 45 f8	 mov	 DWORD PTR $T4[ebp], eax
; File C:\Program Files (x86)\Microsoft Visual Studio\2019\Community\VC\Tools\MSVC\14.28.29333\include\xmemory

; 1546 :         allocator_traits<_Alloc>::construct(_Al, _Unfancy(_Last), _STD forward<_Types>(_Vals)...);

  00033	8b 45 e8	 mov	 eax, DWORD PTR __Backout$1[ebp+8]
  00036	89 45 f0	 mov	 DWORD PTR ___formal$[ebp], eax
; File C:\Program Files (x86)\Microsoft Visual Studio\2019\Community\VC\Tools\MSVC\14.28.29333\include\vcruntime_new.h

; 169  :         return _Where;

  00039	8b 45 f8	 mov	 eax, DWORD PTR $T4[ebp]
  0003c	89 45 ec	 mov	 DWORD PTR $T2[ebp], eax
; File C:\Program Files (x86)\Microsoft Visual Studio\2019\Community\VC\Tools\MSVC\14.28.29333\include\xmemory

; 1547 :         ++_Last;

  0003f	8b 45 e4	 mov	 eax, DWORD PTR __Backout$1[ebp+4]
  00042	83 c0 08	 add	 eax, 8
  00045	89 45 e4	 mov	 DWORD PTR __Backout$1[ebp+4], eax

; 1872 :             _Backout._Emplace_back();
; 1873 :         }

  00048	eb d0		 jmp	 SHORT $LN2@Uninitiali
$LN3@Uninitiali:

; 1551 :         _First = _Last;

  0004a	8b 45 e4	 mov	 eax, DWORD PTR __Backout$1[ebp+4]
  0004d	89 45 e0	 mov	 DWORD PTR __Backout$1[ebp], eax

; 1552 :         return _Last;

  00050	8b 45 e4	 mov	 eax, DWORD PTR __Backout$1[ebp+4]
  00053	89 45 f4	 mov	 DWORD PTR $T3[ebp], eax

; 1541 :         _Destroy_range(_First, _Last, _Al);

  00056	ff 75 e8	 push	 DWORD PTR __Backout$1[ebp+8]
  00059	ff 75 e4	 push	 DWORD PTR __Backout$1[ebp+4]
  0005c	ff 75 e0	 push	 DWORD PTR __Backout$1[ebp]
  0005f	e8 00 00 00 00	 call	 ??$_Destroy_range@V?$allocator@UD3DXVECTOR2@@@std@@@std@@YAXPAUD3DXVECTOR2@@QAU1@AAV?$allocator@UD3DXVECTOR2@@@0@@Z ; std::_Destroy_range<std::allocator<D3DXVECTOR2> >
  00064	83 c4 0c	 add	 esp, 12			; 0000000cH

; 1874 : 
; 1875 :         return _Backout._Release();

  00067	8b 45 f4	 mov	 eax, DWORD PTR $T3[ebp]

; 1876 :     }
; 1877 : }

  0006a	c9		 leave
  0006b	c3		 ret	 0
??$_Uninitialized_value_construct_n@V?$allocator@UD3DXVECTOR2@@@std@@@std@@YAPAUD3DXVECTOR2@@PAU1@IAAV?$allocator@UD3DXVECTOR2@@@0@@Z ENDP ; std::_Uninitialized_value_construct_n<std::allocator<D3DXVECTOR2> >
_TEXT	ENDS
; Function compile flags: /Odspy
; File C:\Program Files (x86)\Microsoft Visual Studio\2019\Community\VC\Tools\MSVC\14.28.29333\include\vector
; File C:\Program Files (x86)\Microsoft Visual Studio\2019\Community\VC\Tools\MSVC\14.28.29333\include\xmemory
; File C:\Program Files (x86)\Microsoft Visual Studio\2019\Community\VC\Tools\MSVC\14.28.29333\include\vector
; File C:\Program Files (x86)\Microsoft Visual Studio\2019\Community\VC\Tools\MSVC\14.28.29333\include\xmemory
; File C:\Program Files (x86)\Microsoft Visual Studio\2019\Community\VC\Tools\MSVC\14.28.29333\include\limits
; File C:\Program Files (x86)\Microsoft Visual Studio\2019\Community\VC\Tools\MSVC\14.28.29333\include\vector
; File C:\Program Files (x86)\Microsoft Visual Studio\2019\Community\VC\Tools\MSVC\14.28.29333\include\utility
; File C:\Program Files (x86)\Microsoft Visual Studio\2019\Community\VC\Tools\MSVC\14.28.29333\include\vector
; File C:\Program Files (x86)\Microsoft Visual Studio\2019\Community\VC\Tools\MSVC\14.28.29333\include\xmemory
; File C:\Program Files (x86)\Microsoft Visual Studio\2019\Community\VC\Tools\MSVC\14.28.29333\include\vector
; File C:\Program Files (x86)\Microsoft Visual Studio\2019\Community\VC\Tools\MSVC\14.28.29333\include\xmemory
; File C:\Program Files (x86)\Microsoft Visual Studio\2019\Community\VC\Tools\MSVC\14.28.29333\include\vector
; File C:\Program Files (x86)\Microsoft Visual Studio\2019\Community\VC\Tools\MSVC\14.28.29333\include\xmemory
; File C:\Program Files (x86)\Microsoft Visual Studio\2019\Community\VC\Tools\MSVC\14.28.29333\include\vector
; File C:\Program Files (x86)\Microsoft Visual Studio\2019\Community\VC\Tools\MSVC\14.28.29333\include\xmemory
; File C:\Program Files (x86)\Microsoft Visual Studio\2019\Community\VC\Tools\MSVC\14.28.29333\include\vector
;	COMDAT ??$_Resize_reallocate@U_Value_init_tag@std@@@?$vector@UD3DXVECTOR2@@V?$allocator@UD3DXVECTOR2@@@std@@@std@@AAEXIABU_Value_init_tag@1@@Z
_TEXT	SEGMENT
__Max_possible$2 = -148					; size = 4
$T3 = -144						; size = 4
$T4 = -140						; size = 4
__First$ = -136						; size = 4
__Last$ = -132						; size = 4
$T5 = -128						; size = 4
$T6 = -124						; size = 4
tv244 = -120						; size = 4
$T7 = -116						; size = 4
$T8 = -112						; size = 4
$T9 = -108						; size = 4
$T10 = -104						; size = 4
$T11 = -100						; size = 4
$T12 = -96						; size = 4
$T13 = -92						; size = 4
$T14 = -88						; size = 4
$T15 = -84						; size = 4
__Appended_last$ = -80					; size = 4
__Myfirst$ = -76					; size = 4
__Mylast$ = -72						; size = 4
__Oldsize$ = -68					; size = 4
__My_data$ = -64					; size = 4
tv147 = -60						; size = 4
$T16 = -56						; size = 4
$T17 = -52						; size = 4
__Appended_first$ = -48					; size = 4
___formal$ = -44					; size = 1
___formal$ = -40					; size = 1
__Overflow_is_possible$18 = -33				; size = 1
__Newvec$ = -32						; size = 4
__Newcapacity$ = -28					; size = 4
$T19 = -21						; size = 1
_this$ = -20						; size = 4
__$EHRec$ = -16						; size = 16
__Newsize$ = 8						; size = 4
__Val$ = 12						; size = 4
??$_Resize_reallocate@U_Value_init_tag@std@@@?$vector@UD3DXVECTOR2@@V?$allocator@UD3DXVECTOR2@@@std@@@std@@AAEXIABU_Value_init_tag@1@@Z PROC ; std::vector<D3DXVECTOR2,std::allocator<D3DXVECTOR2> >::_Resize_reallocate<std::_Value_init_tag>, COMDAT
; _this$ = ecx

; 1182 :     void _Resize_reallocate(const size_type _Newsize, const _Ty2& _Val) {

  00000	55		 push	 ebp
  00001	8b ec		 mov	 ebp, esp
  00003	6a ff		 push	 -1
  00005	68 00 00 00 00	 push	 __ehhandler$??$_Resize_reallocate@U_Value_init_tag@std@@@?$vector@UD3DXVECTOR2@@V?$allocator@UD3DXVECTOR2@@@std@@@std@@AAEXIABU_Value_init_tag@1@@Z
  0000a	64 a1 00 00 00
	00		 mov	 eax, DWORD PTR fs:0
  00010	50		 push	 eax
  00011	51		 push	 ecx
  00012	81 ec 84 00 00
	00		 sub	 esp, 132		; 00000084H
  00018	53		 push	 ebx
  00019	56		 push	 esi
  0001a	57		 push	 edi
  0001b	a1 00 00 00 00	 mov	 eax, DWORD PTR ___security_cookie
  00020	33 c5		 xor	 eax, ebp
  00022	50		 push	 eax
  00023	8d 45 f4	 lea	 eax, DWORD PTR __$EHRec$[ebp+4]
  00026	64 a3 00 00 00
	00		 mov	 DWORD PTR fs:0, eax
  0002c	89 65 f0	 mov	 DWORD PTR __$EHRec$[ebp], esp
  0002f	89 4d ec	 mov	 DWORD PTR _this$[ebp], ecx

; 1737 :         return _Mypair._Get_first();

  00032	8b 45 ec	 mov	 eax, DWORD PTR _this$[ebp]
; File C:\Program Files (x86)\Microsoft Visual Studio\2019\Community\VC\Tools\MSVC\14.28.29333\include\xmemory

; 1351 :         return *this;

  00035	89 45 ac	 mov	 DWORD PTR $T15[ebp], eax
; File C:\Program Files (x86)\Microsoft Visual Studio\2019\Community\VC\Tools\MSVC\14.28.29333\include\vector

; 1737 :         return _Mypair._Get_first();

  00038	8b 45 ac	 mov	 eax, DWORD PTR $T15[ebp]
  0003b	89 85 74 ff ff
	ff		 mov	 DWORD PTR $T4[ebp], eax
; File C:\Program Files (x86)\Microsoft Visual Studio\2019\Community\VC\Tools\MSVC\14.28.29333\include\xmemory

; 710  :         return static_cast<size_t>(-1) / sizeof(value_type);

  00041	c7 45 cc ff ff
	ff 1f		 mov	 DWORD PTR $T17[ebp], 536870911 ; 1fffffffH
; File C:\Program Files (x86)\Microsoft Visual Studio\2019\Community\VC\Tools\MSVC\14.28.29333\include\limits

; 557  :         return INT_MAX;

  00048	c7 45 a8 ff ff
	ff 7f		 mov	 DWORD PTR $T14[ebp], 2147483647 ; 7fffffffH
; File C:\Program Files (x86)\Microsoft Visual Studio\2019\Community\VC\Tools\MSVC\14.28.29333\include\vector

; 1488 :         return (_STD min)(

  0004f	8b 45 a8	 mov	 eax, DWORD PTR $T14[ebp]
  00052	89 45 c8	 mov	 DWORD PTR $T16[ebp], eax
; File C:\Program Files (x86)\Microsoft Visual Studio\2019\Community\VC\Tools\MSVC\14.28.29333\include\utility

; 68   :     return _Right < _Left ? _Right : _Left;

  00055	8b 45 cc	 mov	 eax, DWORD PTR $T17[ebp]
  00058	3b 45 c8	 cmp	 eax, DWORD PTR $T16[ebp]
  0005b	73 08		 jae	 SHORT $LN26@Resize_rea
  0005d	8d 45 cc	 lea	 eax, DWORD PTR $T17[ebp]
  00060	89 45 c4	 mov	 DWORD PTR tv147[ebp], eax
  00063	eb 06		 jmp	 SHORT $LN27@Resize_rea
$LN26@Resize_rea:
  00065	8d 45 c8	 lea	 eax, DWORD PTR $T16[ebp]
  00068	89 45 c4	 mov	 DWORD PTR tv147[ebp], eax
$LN27@Resize_rea:
  0006b	8b 45 c4	 mov	 eax, DWORD PTR tv147[ebp]
  0006e	89 45 a4	 mov	 DWORD PTR $T13[ebp], eax
  00071	8b 45 a4	 mov	 eax, DWORD PTR $T13[ebp]
  00074	89 45 a0	 mov	 DWORD PTR $T12[ebp], eax
; File C:\Program Files (x86)\Microsoft Visual Studio\2019\Community\VC\Tools\MSVC\14.28.29333\include\vector

; 1488 :         return (_STD min)(

  00077	8b 45 a0	 mov	 eax, DWORD PTR $T12[ebp]
  0007a	8b 00		 mov	 eax, DWORD PTR [eax]
  0007c	89 45 9c	 mov	 DWORD PTR $T11[ebp], eax

; 1183 :         if (_Newsize > max_size()) {

  0007f	8b 45 08	 mov	 eax, DWORD PTR __Newsize$[ebp]
  00082	3b 45 9c	 cmp	 eax, DWORD PTR $T11[ebp]
  00085	76 05		 jbe	 SHORT $LN2@Resize_rea

; 1184 :             _Xlength();

  00087	e8 00 00 00 00	 call	 ?_Xlength@?$vector@UD3DXVECTOR2@@V?$allocator@UD3DXVECTOR2@@@std@@@std@@CAXXZ ; std::vector<D3DXVECTOR2,std::allocator<D3DXVECTOR2> >::_Xlength
$LN2@Resize_rea:

; 1185 :         }
; 1186 : 
; 1187 :         auto& _My_data    = _Mypair._Myval2;

  0008c	8b 45 ec	 mov	 eax, DWORD PTR _this$[ebp]
  0008f	89 45 c0	 mov	 DWORD PTR __My_data$[ebp], eax

; 1188 :         pointer& _Myfirst = _My_data._Myfirst;

  00092	8b 45 c0	 mov	 eax, DWORD PTR __My_data$[ebp]
  00095	89 45 b4	 mov	 DWORD PTR __Myfirst$[ebp], eax

; 1189 :         pointer& _Mylast  = _My_data._Mylast;

  00098	8b 45 c0	 mov	 eax, DWORD PTR __My_data$[ebp]
  0009b	83 c0 04	 add	 eax, 4
  0009e	89 45 b8	 mov	 DWORD PTR __Mylast$[ebp], eax

; 1190 : 
; 1191 :         const auto _Oldsize          = static_cast<size_type>(_Mylast - _Myfirst);

  000a1	8b 45 b8	 mov	 eax, DWORD PTR __Mylast$[ebp]
  000a4	8b 4d b4	 mov	 ecx, DWORD PTR __Myfirst$[ebp]
  000a7	8b 00		 mov	 eax, DWORD PTR [eax]
  000a9	2b 01		 sub	 eax, DWORD PTR [ecx]
  000ab	c1 f8 03	 sar	 eax, 3
  000ae	89 45 bc	 mov	 DWORD PTR __Oldsize$[ebp], eax

; 1192 :         const size_type _Newcapacity = _Calculate_growth(_Newsize);

  000b1	ff 75 08	 push	 DWORD PTR __Newsize$[ebp]
  000b4	8b 4d ec	 mov	 ecx, DWORD PTR _this$[ebp]
  000b7	e8 00 00 00 00	 call	 ?_Calculate_growth@?$vector@UD3DXVECTOR2@@V?$allocator@UD3DXVECTOR2@@@std@@@std@@ABEII@Z ; std::vector<D3DXVECTOR2,std::allocator<D3DXVECTOR2> >::_Calculate_growth
  000bc	89 45 e4	 mov	 DWORD PTR __Newcapacity$[ebp], eax

; 1733 :         return _Mypair._Get_first();

  000bf	8b 45 ec	 mov	 eax, DWORD PTR _this$[ebp]
; File C:\Program Files (x86)\Microsoft Visual Studio\2019\Community\VC\Tools\MSVC\14.28.29333\include\xmemory

; 1347 :         return *this;

  000c2	89 45 98	 mov	 DWORD PTR $T10[ebp], eax
; File C:\Program Files (x86)\Microsoft Visual Studio\2019\Community\VC\Tools\MSVC\14.28.29333\include\vector

; 1733 :         return _Mypair._Get_first();

  000c5	8b 45 98	 mov	 eax, DWORD PTR $T10[ebp]
  000c8	89 85 70 ff ff
	ff		 mov	 DWORD PTR $T3[ebp], eax
; File C:\Program Files (x86)\Microsoft Visual Studio\2019\Community\VC\Tools\MSVC\14.28.29333\include\xmemory

; 56   :     constexpr bool _Overflow_is_possible = _Ty_size > 1;

  000ce	c6 45 df 01	 mov	 BYTE PTR __Overflow_is_possible$18[ebp], 1

; 57   : 
; 58   :     if _CONSTEXPR_IF (_Overflow_is_possible) {
; 59   :         constexpr size_t _Max_possible = static_cast<size_t>(-1) / _Ty_size;

  000d2	c7 85 6c ff ff
	ff ff ff ff 1f	 mov	 DWORD PTR __Max_possible$2[ebp], 536870911 ; 1fffffffH

; 60   :         if (_Count > _Max_possible) {

  000dc	81 7d e4 ff ff
	ff 1f		 cmp	 DWORD PTR __Newcapacity$[ebp], 536870911 ; 1fffffffH
  000e3	76 05		 jbe	 SHORT $LN65@Resize_rea

; 61   :             _Throw_bad_array_new_length(); // multiply overflow

  000e5	e8 00 00 00 00	 call	 ?_Throw_bad_array_new_length@std@@YAXXZ ; std::_Throw_bad_array_new_length
$LN65@Resize_rea:

; 62   :         }
; 63   :     }
; 64   : 
; 65   :     return _Count * _Ty_size;

  000ea	8b 45 e4	 mov	 eax, DWORD PTR __Newcapacity$[ebp]
  000ed	c1 e0 03	 shl	 eax, 3
  000f0	89 45 94	 mov	 DWORD PTR $T9[ebp], eax

; 814  :         return static_cast<_Ty*>(_Allocate<_New_alignof<_Ty>>(_Get_size_of_n<sizeof(_Ty)>(_Count)));

  000f3	ff 75 94	 push	 DWORD PTR $T9[ebp]
  000f6	e8 00 00 00 00	 call	 ??$_Allocate@$07U_Default_allocate_traits@std@@$0A@@std@@YAPAXI@Z ; std::_Allocate<8,std::_Default_allocate_traits,0>
  000fb	59		 pop	 ecx
  000fc	89 45 e0	 mov	 DWORD PTR __Newvec$[ebp], eax
; File C:\Program Files (x86)\Microsoft Visual Studio\2019\Community\VC\Tools\MSVC\14.28.29333\include\vector

; 1195 :         const pointer _Appended_first = _Newvec + _Oldsize;

  000ff	8b 45 bc	 mov	 eax, DWORD PTR __Oldsize$[ebp]
  00102	8b 4d e0	 mov	 ecx, DWORD PTR __Newvec$[ebp]
  00105	8d 04 c1	 lea	 eax, DWORD PTR [ecx+eax*8]
  00108	89 45 d0	 mov	 DWORD PTR __Appended_first$[ebp], eax

; 1196 :         pointer _Appended_last        = _Appended_first;

  0010b	8b 45 d0	 mov	 eax, DWORD PTR __Appended_first$[ebp]
  0010e	89 45 b0	 mov	 DWORD PTR __Appended_last$[ebp], eax

; 1197 : 
; 1198 :         _TRY_BEGIN

  00111	83 65 fc 00	 and	 DWORD PTR __$EHRec$[ebp+12], 0

; 1199 :         _Appended_last = _Ufill(_Appended_first, _Newsize - _Oldsize, _Val);

  00115	8b 45 0c	 mov	 eax, DWORD PTR __Val$[ebp]
  00118	8a 00		 mov	 al, BYTE PTR [eax]
  0011a	88 45 d8	 mov	 BYTE PTR ___formal$[ebp], al

; 1733 :         return _Mypair._Get_first();

  0011d	8b 45 ec	 mov	 eax, DWORD PTR _this$[ebp]
; File C:\Program Files (x86)\Microsoft Visual Studio\2019\Community\VC\Tools\MSVC\14.28.29333\include\xmemory

; 1347 :         return *this;

  00120	89 45 90	 mov	 DWORD PTR $T8[ebp], eax
; File C:\Program Files (x86)\Microsoft Visual Studio\2019\Community\VC\Tools\MSVC\14.28.29333\include\vector

; 1733 :         return _Mypair._Get_first();

  00123	8b 45 90	 mov	 eax, DWORD PTR $T8[ebp]
  00126	89 45 8c	 mov	 DWORD PTR $T7[ebp], eax

; 1583 :         return _Uninitialized_value_construct_n(_Dest, _Count, _Getal());

  00129	ff 75 8c	 push	 DWORD PTR $T7[ebp]

; 1199 :         _Appended_last = _Ufill(_Appended_first, _Newsize - _Oldsize, _Val);

  0012c	8b 45 08	 mov	 eax, DWORD PTR __Newsize$[ebp]
  0012f	2b 45 bc	 sub	 eax, DWORD PTR __Oldsize$[ebp]

; 1583 :         return _Uninitialized_value_construct_n(_Dest, _Count, _Getal());

  00132	50		 push	 eax
  00133	ff 75 d0	 push	 DWORD PTR __Appended_first$[ebp]
  00136	e8 00 00 00 00	 call	 ??$_Uninitialized_value_construct_n@V?$allocator@UD3DXVECTOR2@@@std@@@std@@YAPAUD3DXVECTOR2@@PAU1@IAAV?$allocator@UD3DXVECTOR2@@@0@@Z ; std::_Uninitialized_value_construct_n<std::allocator<D3DXVECTOR2> >
  0013b	83 c4 0c	 add	 esp, 12			; 0000000cH
  0013e	89 45 88	 mov	 DWORD PTR tv244[ebp], eax

; 1199 :         _Appended_last = _Ufill(_Appended_first, _Newsize - _Oldsize, _Val);

  00141	8b 45 88	 mov	 eax, DWORD PTR tv244[ebp]
  00144	89 45 b0	 mov	 DWORD PTR __Appended_last$[ebp], eax

; 1200 :         _Umove_if_noexcept(_Myfirst, _Mylast, _Newvec);

  00147	8b 45 b8	 mov	 eax, DWORD PTR __Mylast$[ebp]
  0014a	8b 00		 mov	 eax, DWORD PTR [eax]
  0014c	89 85 7c ff ff
	ff		 mov	 DWORD PTR __Last$[ebp], eax
  00152	8b 45 b4	 mov	 eax, DWORD PTR __Myfirst$[ebp]
  00155	8b 00		 mov	 eax, DWORD PTR [eax]
  00157	89 85 78 ff ff
	ff		 mov	 DWORD PTR __First$[ebp], eax

; 1607 :         _Umove_if_noexcept1(_First, _Last, _Dest,

  0015d	33 c0		 xor	 eax, eax
  0015f	88 45 eb	 mov	 BYTE PTR $T19[ebp], al
  00162	8a 45 eb	 mov	 al, BYTE PTR $T19[ebp]
  00165	88 45 d4	 mov	 BYTE PTR ___formal$[ebp], al

; 1733 :         return _Mypair._Get_first();

  00168	8b 45 ec	 mov	 eax, DWORD PTR _this$[ebp]
; File C:\Program Files (x86)\Microsoft Visual Studio\2019\Community\VC\Tools\MSVC\14.28.29333\include\xmemory

; 1347 :         return *this;

  0016b	89 45 84	 mov	 DWORD PTR $T6[ebp], eax
; File C:\Program Files (x86)\Microsoft Visual Studio\2019\Community\VC\Tools\MSVC\14.28.29333\include\vector

; 1733 :         return _Mypair._Get_first();

  0016e	8b 45 84	 mov	 eax, DWORD PTR $T6[ebp]
  00171	89 45 80	 mov	 DWORD PTR $T5[ebp], eax

; 1597 :         _Uninitialized_move(_First, _Last, _Dest, _Getal());

  00174	ff 75 80	 push	 DWORD PTR $T5[ebp]
  00177	ff 75 e0	 push	 DWORD PTR __Newvec$[ebp]
  0017a	ff b5 7c ff ff
	ff		 push	 DWORD PTR __Last$[ebp]
  00180	ff b5 78 ff ff
	ff		 push	 DWORD PTR __First$[ebp]
  00186	e8 00 00 00 00	 call	 ??$_Uninitialized_move@PAUD3DXVECTOR2@@V?$allocator@UD3DXVECTOR2@@@std@@@std@@YAPAUD3DXVECTOR2@@QAU1@0PAU1@AAV?$allocator@UD3DXVECTOR2@@@0@@Z ; std::_Uninitialized_move<D3DXVECTOR2 *,std::allocator<D3DXVECTOR2> >
  0018b	83 c4 10	 add	 esp, 16			; 00000010H

; 1200 :         _Umove_if_noexcept(_Myfirst, _Mylast, _Newvec);

  0018e	eb 32		 jmp	 SHORT $LN5@Resize_rea
__catch$??$_Resize_reallocate@U_Value_init_tag@std@@@?$vector@UD3DXVECTOR2@@V?$allocator@UD3DXVECTOR2@@@std@@@std@@AAEXIABU_Value_init_tag@1@@Z$0:

; 1201 :         _CATCH_ALL
; 1202 :         _Destroy(_Appended_first, _Appended_last);

  00190	ff 75 b0	 push	 DWORD PTR __Appended_last$[ebp]
  00193	ff 75 d0	 push	 DWORD PTR __Appended_first$[ebp]
  00196	8b 4d ec	 mov	 ecx, DWORD PTR _this$[ebp]
  00199	e8 00 00 00 00	 call	 ?_Destroy@?$vector@UD3DXVECTOR2@@V?$allocator@UD3DXVECTOR2@@@std@@@std@@AAEXPAUD3DXVECTOR2@@0@Z ; std::vector<D3DXVECTOR2,std::allocator<D3DXVECTOR2> >::_Destroy

; 1203 :         _Getal().deallocate(_Newvec, _Newcapacity);

  0019e	ff 75 e4	 push	 DWORD PTR __Newcapacity$[ebp]
  001a1	ff 75 e0	 push	 DWORD PTR __Newvec$[ebp]
  001a4	8b 4d ec	 mov	 ecx, DWORD PTR _this$[ebp]
  001a7	e8 00 00 00 00	 call	 ?_Getal@?$vector@UD3DXVECTOR2@@V?$allocator@UD3DXVECTOR2@@@std@@@std@@AAEAAV?$allocator@UD3DXVECTOR2@@@2@XZ ; std::vector<D3DXVECTOR2,std::allocator<D3DXVECTOR2> >::_Getal
  001ac	8b c8		 mov	 ecx, eax
  001ae	e8 00 00 00 00	 call	 ?deallocate@?$allocator@UD3DXVECTOR2@@@std@@QAEXQAUD3DXVECTOR2@@I@Z ; std::allocator<D3DXVECTOR2>::deallocate

; 1204 :         _RERAISE;

  001b3	6a 00		 push	 0
  001b5	6a 00		 push	 0
  001b7	e8 00 00 00 00	 call	 __CxxThrowException@8

; 1205 :         _CATCH_END

  001bc	b8 00 00 00 00	 mov	 eax, $LN8@Resize_rea
  001c1	c3		 ret	 0
$LN5@Resize_rea:
  001c2	83 4d fc ff	 or	 DWORD PTR __$EHRec$[ebp+12], -1
  001c6	eb 04		 jmp	 SHORT __tryend$??$_Resize_reallocate@U_Value_init_tag@std@@@?$vector@UD3DXVECTOR2@@V?$allocator@UD3DXVECTOR2@@@std@@@std@@AAEXIABU_Value_init_tag@1@@Z$1
$LN8@Resize_rea:
; File C:\Program Files (x86)\Microsoft Visual Studio\2019\Community\VC\Tools\MSVC\14.28.29333\include\xmemory
  001c8	83 4d fc ff	 or	 DWORD PTR __$EHRec$[ebp+12], -1
__tryend$??$_Resize_reallocate@U_Value_init_tag@std@@@?$vector@UD3DXVECTOR2@@V?$allocator@UD3DXVECTOR2@@@std@@@std@@AAEXIABU_Value_init_tag@1@@Z$1:
; File C:\Program Files (x86)\Microsoft Visual Studio\2019\Community\VC\Tools\MSVC\14.28.29333\include\vector

; 1206 : 
; 1207 :         _Change_array(_Newvec, _Newsize, _Newcapacity);

  001cc	ff 75 e4	 push	 DWORD PTR __Newcapacity$[ebp]
  001cf	ff 75 08	 push	 DWORD PTR __Newsize$[ebp]
  001d2	ff 75 e0	 push	 DWORD PTR __Newvec$[ebp]
  001d5	8b 4d ec	 mov	 ecx, DWORD PTR _this$[ebp]
  001d8	e8 00 00 00 00	 call	 ?_Change_array@?$vector@UD3DXVECTOR2@@V?$allocator@UD3DXVECTOR2@@@std@@@std@@AAEXQAUD3DXVECTOR2@@II@Z ; std::vector<D3DXVECTOR2,std::allocator<D3DXVECTOR2> >::_Change_array
$LN68@Resize_rea:

; 1208 :     }

  001dd	8b 4d f4	 mov	 ecx, DWORD PTR __$EHRec$[ebp+4]
  001e0	64 89 0d 00 00
	00 00		 mov	 DWORD PTR fs:0, ecx
  001e7	59		 pop	 ecx
  001e8	5f		 pop	 edi
  001e9	5e		 pop	 esi
  001ea	5b		 pop	 ebx
  001eb	c9		 leave
  001ec	c2 08 00	 ret	 8
  001ef	cc		 int	 3
  001f0	cc		 int	 3
  001f1	cc		 int	 3
  001f2	cc		 int	 3
  001f3	cc		 int	 3
_TEXT	ENDS
;	COMDAT text$x
text$x	SEGMENT
__ehhandler$??$_Resize_reallocate@U_Value_init_tag@std@@@?$vector@UD3DXVECTOR2@@V?$allocator@UD3DXVECTOR2@@@std@@@std@@AAEXIABU_Value_init_tag@1@@Z:
  00000	90		 npad	 1
  00001	90		 npad	 1
  00002	8b 54 24 08	 mov	 edx, DWORD PTR [esp+8]
  00006	8d 42 0c	 lea	 eax, DWORD PTR [edx+12]
  00009	8b 8a 68 ff ff
	ff		 mov	 ecx, DWORD PTR [edx-152]
  0000f	33 c8		 xor	 ecx, eax
  00011	e8 00 00 00 00	 call	 @__security_check_cookie@4
  00016	b8 00 00 00 00	 mov	 eax, OFFSET __ehfuncinfo$??$_Resize_reallocate@U_Value_init_tag@std@@@?$vector@UD3DXVECTOR2@@V?$allocator@UD3DXVECTOR2@@@std@@@std@@AAEXIABU_Value_init_tag@1@@Z
  0001b	e9 00 00 00 00	 jmp	 ___CxxFrameHandler3
text$x	ENDS
??$_Resize_reallocate@U_Value_init_tag@std@@@?$vector@UD3DXVECTOR2@@V?$allocator@UD3DXVECTOR2@@@std@@@std@@AAEXIABU_Value_init_tag@1@@Z ENDP ; std::vector<D3DXVECTOR2,std::allocator<D3DXVECTOR2> >::_Resize_reallocate<std::_Value_init_tag>
; Function compile flags: /Odspy
; File C:\Program Files (x86)\Microsoft Visual Studio\2019\Community\VC\Tools\MSVC\14.28.29333\include\xmemory
;	COMDAT ??$_Destroy_range@V?$allocator@UD3DXVECTOR2@@@std@@@std@@YAXPAUD3DXVECTOR2@@QAU1@AAV?$allocator@UD3DXVECTOR2@@@0@@Z
_TEXT	SEGMENT
__First$ = 8						; size = 4
__Last$ = 12						; size = 4
__Al$ = 16						; size = 4
??$_Destroy_range@V?$allocator@UD3DXVECTOR2@@@std@@@std@@YAXPAUD3DXVECTOR2@@QAU1@AAV?$allocator@UD3DXVECTOR2@@@0@@Z PROC ; std::_Destroy_range<std::allocator<D3DXVECTOR2> >, COMDAT

; 962  :     _Alloc_ptr_t<_Alloc> _First, const _Alloc_ptr_t<_Alloc> _Last, _Alloc& _Al) noexcept {

  00000	55		 push	 ebp
  00001	8b ec		 mov	 ebp, esp

; 963  :     // note that this is an optimization for debug mode codegen; in release mode the BE removes all of this
; 964  :     using _Ty = typename _Alloc::value_type;
; 965  :     if _CONSTEXPR_IF (!conjunction_v<is_trivially_destructible<_Ty>, _Uses_default_destroy<_Alloc, _Ty*>>) {
; 966  :         for (; _First != _Last; ++_First) {
; 967  :             allocator_traits<_Alloc>::destroy(_Al, _Unfancy(_First));
; 968  :         }
; 969  :     }
; 970  : }

  00003	5d		 pop	 ebp
  00004	c3		 ret	 0
??$_Destroy_range@V?$allocator@UD3DXVECTOR2@@@std@@@std@@YAXPAUD3DXVECTOR2@@QAU1@AAV?$allocator@UD3DXVECTOR2@@@0@@Z ENDP ; std::_Destroy_range<std::allocator<D3DXVECTOR2> >
_TEXT	ENDS
; Function compile flags: /Odspy
; File C:\Program Files (x86)\Microsoft Visual Studio\2019\Community\VC\Tools\MSVC\14.28.29333\include\vector
; File C:\Program Files (x86)\Microsoft Visual Studio\2019\Community\VC\Tools\MSVC\14.28.29333\include\xmemory
; File C:\Program Files (x86)\Microsoft Visual Studio\2019\Community\VC\Tools\MSVC\14.28.29333\include\vector
; File C:\Program Files (x86)\Microsoft Visual Studio\2019\Community\VC\Tools\MSVC\14.28.29333\include\xmemory
; File C:\Program Files (x86)\Microsoft Visual Studio\2019\Community\VC\Tools\MSVC\14.28.29333\include\vector
;	COMDAT ??$_Resize@U_Value_init_tag@std@@@?$vector@UD3DXVECTOR2@@V?$allocator@UD3DXVECTOR2@@@std@@@std@@AAEXIABU_Value_init_tag@1@@Z
_TEXT	SEGMENT
__Oldlast$1 = -56					; size = 4
$T2 = -52						; size = 4
$T3 = -48						; size = 4
__Oldcapacity$4 = -44					; size = 4
__Last$ = -40						; size = 4
$T5 = -36						; size = 4
$T6 = -32						; size = 4
__Newlast$7 = -28					; size = 4
__Oldsize$ = -24					; size = 4
__Myfirst$ = -20					; size = 4
__My_data$ = -16					; size = 4
_this$ = -12						; size = 4
__Mylast$ = -8						; size = 4
___formal$ = -4						; size = 1
__Newsize$ = 8						; size = 4
__Val$ = 12						; size = 4
??$_Resize@U_Value_init_tag@std@@@?$vector@UD3DXVECTOR2@@V?$allocator@UD3DXVECTOR2@@@std@@@std@@AAEXIABU_Value_init_tag@1@@Z PROC ; std::vector<D3DXVECTOR2,std::allocator<D3DXVECTOR2> >::_Resize<std::_Value_init_tag>, COMDAT
; _this$ = ecx

; 1211 :     void _Resize(const size_type _Newsize, const _Ty2& _Val) { // trim or append elements, provide strong guarantee

  00000	55		 push	 ebp
  00001	8b ec		 mov	 ebp, esp
  00003	83 ec 38	 sub	 esp, 56			; 00000038H
  00006	89 4d f4	 mov	 DWORD PTR _this$[ebp], ecx

; 1212 :         auto& _My_data      = _Mypair._Myval2;

  00009	8b 45 f4	 mov	 eax, DWORD PTR _this$[ebp]
  0000c	89 45 f0	 mov	 DWORD PTR __My_data$[ebp], eax

; 1213 :         pointer& _Myfirst   = _My_data._Myfirst;

  0000f	8b 45 f0	 mov	 eax, DWORD PTR __My_data$[ebp]
  00012	89 45 ec	 mov	 DWORD PTR __Myfirst$[ebp], eax

; 1214 :         pointer& _Mylast    = _My_data._Mylast;

  00015	8b 45 f0	 mov	 eax, DWORD PTR __My_data$[ebp]
  00018	83 c0 04	 add	 eax, 4
  0001b	89 45 f8	 mov	 DWORD PTR __Mylast$[ebp], eax

; 1215 :         const auto _Oldsize = static_cast<size_type>(_Mylast - _Myfirst);

  0001e	8b 45 f8	 mov	 eax, DWORD PTR __Mylast$[ebp]
  00021	8b 4d ec	 mov	 ecx, DWORD PTR __Myfirst$[ebp]
  00024	8b 00		 mov	 eax, DWORD PTR [eax]
  00026	2b 01		 sub	 eax, DWORD PTR [ecx]
  00028	c1 f8 03	 sar	 eax, 3
  0002b	89 45 e8	 mov	 DWORD PTR __Oldsize$[ebp], eax

; 1216 :         if (_Newsize < _Oldsize) { // trim

  0002e	8b 45 08	 mov	 eax, DWORD PTR __Newsize$[ebp]
  00031	3b 45 e8	 cmp	 eax, DWORD PTR __Oldsize$[ebp]
  00034	73 3d		 jae	 SHORT $LN2@Resize

; 1217 :             const pointer _Newlast = _Myfirst + _Newsize;

  00036	8b 45 ec	 mov	 eax, DWORD PTR __Myfirst$[ebp]
  00039	8b 00		 mov	 eax, DWORD PTR [eax]
  0003b	8b 4d 08	 mov	 ecx, DWORD PTR __Newsize$[ebp]
  0003e	8d 04 c8	 lea	 eax, DWORD PTR [eax+ecx*8]
  00041	89 45 e4	 mov	 DWORD PTR __Newlast$7[ebp], eax

; 1218 :             _Orphan_range(_Newlast, _Mylast);
; 1219 :             _Destroy(_Newlast, _Mylast);

  00044	8b 45 f8	 mov	 eax, DWORD PTR __Mylast$[ebp]
  00047	8b 00		 mov	 eax, DWORD PTR [eax]
  00049	89 45 d8	 mov	 DWORD PTR __Last$[ebp], eax

; 1733 :         return _Mypair._Get_first();

  0004c	8b 45 f4	 mov	 eax, DWORD PTR _this$[ebp]
; File C:\Program Files (x86)\Microsoft Visual Studio\2019\Community\VC\Tools\MSVC\14.28.29333\include\xmemory

; 1347 :         return *this;

  0004f	89 45 e0	 mov	 DWORD PTR $T6[ebp], eax
; File C:\Program Files (x86)\Microsoft Visual Studio\2019\Community\VC\Tools\MSVC\14.28.29333\include\vector

; 1733 :         return _Mypair._Get_first();

  00052	8b 45 e0	 mov	 eax, DWORD PTR $T6[ebp]
  00055	89 45 dc	 mov	 DWORD PTR $T5[ebp], eax

; 1612 :         _Destroy_range(_First, _Last, _Getal());

  00058	ff 75 dc	 push	 DWORD PTR $T5[ebp]
  0005b	ff 75 d8	 push	 DWORD PTR __Last$[ebp]
  0005e	ff 75 e4	 push	 DWORD PTR __Newlast$7[ebp]
  00061	e8 00 00 00 00	 call	 ??$_Destroy_range@V?$allocator@UD3DXVECTOR2@@@std@@@std@@YAXPAUD3DXVECTOR2@@QAU1@AAV?$allocator@UD3DXVECTOR2@@@0@@Z ; std::_Destroy_range<std::allocator<D3DXVECTOR2> >
  00066	83 c4 0c	 add	 esp, 12			; 0000000cH

; 1220 :             _Mylast = _Newlast;

  00069	8b 45 f8	 mov	 eax, DWORD PTR __Mylast$[ebp]
  0006c	8b 4d e4	 mov	 ecx, DWORD PTR __Newlast$7[ebp]
  0006f	89 08		 mov	 DWORD PTR [eax], ecx

; 1221 :             return;

  00071	eb 67		 jmp	 SHORT $LN1@Resize
$LN2@Resize:

; 1222 :         }
; 1223 : 
; 1224 :         if (_Newsize > _Oldsize) { // append

  00073	8b 45 08	 mov	 eax, DWORD PTR __Newsize$[ebp]
  00076	3b 45 e8	 cmp	 eax, DWORD PTR __Oldsize$[ebp]
  00079	76 5f		 jbe	 SHORT $LN1@Resize

; 1225 :             const auto _Oldcapacity = static_cast<size_type>(_My_data._Myend - _Myfirst);

  0007b	8b 45 f0	 mov	 eax, DWORD PTR __My_data$[ebp]
  0007e	8b 4d ec	 mov	 ecx, DWORD PTR __Myfirst$[ebp]
  00081	8b 40 08	 mov	 eax, DWORD PTR [eax+8]
  00084	2b 01		 sub	 eax, DWORD PTR [ecx]
  00086	c1 f8 03	 sar	 eax, 3
  00089	89 45 d4	 mov	 DWORD PTR __Oldcapacity$4[ebp], eax

; 1226 :             if (_Newsize > _Oldcapacity) { // reallocate

  0008c	8b 45 08	 mov	 eax, DWORD PTR __Newsize$[ebp]
  0008f	3b 45 d4	 cmp	 eax, DWORD PTR __Oldcapacity$4[ebp]
  00092	76 10		 jbe	 SHORT $LN4@Resize

; 1227 :                 _Resize_reallocate(_Newsize, _Val);

  00094	ff 75 0c	 push	 DWORD PTR __Val$[ebp]
  00097	ff 75 08	 push	 DWORD PTR __Newsize$[ebp]
  0009a	8b 4d f4	 mov	 ecx, DWORD PTR _this$[ebp]
  0009d	e8 00 00 00 00	 call	 ??$_Resize_reallocate@U_Value_init_tag@std@@@?$vector@UD3DXVECTOR2@@V?$allocator@UD3DXVECTOR2@@@std@@@std@@AAEXIABU_Value_init_tag@1@@Z ; std::vector<D3DXVECTOR2,std::allocator<D3DXVECTOR2> >::_Resize_reallocate<std::_Value_init_tag>

; 1228 :                 return;

  000a2	eb 36		 jmp	 SHORT $LN1@Resize
$LN4@Resize:

; 1229 :             }
; 1230 : 
; 1231 :             const pointer _Oldlast = _Mylast;

  000a4	8b 45 f8	 mov	 eax, DWORD PTR __Mylast$[ebp]
  000a7	8b 00		 mov	 eax, DWORD PTR [eax]
  000a9	89 45 c8	 mov	 DWORD PTR __Oldlast$1[ebp], eax

; 1232 :             _Mylast                = _Ufill(_Oldlast, _Newsize - _Oldsize, _Val);

  000ac	8b 45 0c	 mov	 eax, DWORD PTR __Val$[ebp]
  000af	8a 00		 mov	 al, BYTE PTR [eax]
  000b1	88 45 fc	 mov	 BYTE PTR ___formal$[ebp], al

; 1733 :         return _Mypair._Get_first();

  000b4	8b 45 f4	 mov	 eax, DWORD PTR _this$[ebp]
; File C:\Program Files (x86)\Microsoft Visual Studio\2019\Community\VC\Tools\MSVC\14.28.29333\include\xmemory

; 1347 :         return *this;

  000b7	89 45 d0	 mov	 DWORD PTR $T3[ebp], eax
; File C:\Program Files (x86)\Microsoft Visual Studio\2019\Community\VC\Tools\MSVC\14.28.29333\include\vector

; 1733 :         return _Mypair._Get_first();

  000ba	8b 45 d0	 mov	 eax, DWORD PTR $T3[ebp]
  000bd	89 45 cc	 mov	 DWORD PTR $T2[ebp], eax

; 1583 :         return _Uninitialized_value_construct_n(_Dest, _Count, _Getal());

  000c0	ff 75 cc	 push	 DWORD PTR $T2[ebp]

; 1232 :             _Mylast                = _Ufill(_Oldlast, _Newsize - _Oldsize, _Val);

  000c3	8b 45 08	 mov	 eax, DWORD PTR __Newsize$[ebp]
  000c6	2b 45 e8	 sub	 eax, DWORD PTR __Oldsize$[ebp]

; 1583 :         return _Uninitialized_value_construct_n(_Dest, _Count, _Getal());

  000c9	50		 push	 eax
  000ca	ff 75 c8	 push	 DWORD PTR __Oldlast$1[ebp]
  000cd	e8 00 00 00 00	 call	 ??$_Uninitialized_value_construct_n@V?$allocator@UD3DXVECTOR2@@@std@@@std@@YAPAUD3DXVECTOR2@@PAU1@IAAV?$allocator@UD3DXVECTOR2@@@0@@Z ; std::_Uninitialized_value_construct_n<std::allocator<D3DXVECTOR2> >
  000d2	83 c4 0c	 add	 esp, 12			; 0000000cH

; 1232 :             _Mylast                = _Ufill(_Oldlast, _Newsize - _Oldsize, _Val);

  000d5	8b 4d f8	 mov	 ecx, DWORD PTR __Mylast$[ebp]
  000d8	89 01		 mov	 DWORD PTR [ecx], eax
$LN1@Resize:

; 1233 :             _Orphan_range(_Oldlast, _Oldlast);
; 1234 :         }
; 1235 : 
; 1236 :         // if _Newsize == _Oldsize, do nothing; avoid invalidating iterators
; 1237 :     }

  000da	c9		 leave
  000db	c2 08 00	 ret	 8
??$_Resize@U_Value_init_tag@std@@@?$vector@UD3DXVECTOR2@@V?$allocator@UD3DXVECTOR2@@@std@@@std@@AAEXIABU_Value_init_tag@1@@Z ENDP ; std::vector<D3DXVECTOR2,std::allocator<D3DXVECTOR2> >::_Resize<std::_Value_init_tag>
_TEXT	ENDS
; Function compile flags: /Odspy
;	COMDAT ??_GCMonsterAreaInfo@@UAEPAXI@Z
_TEXT	SEGMENT
_this$ = -4						; size = 4
___flags$ = 8						; size = 4
??_GCMonsterAreaInfo@@UAEPAXI@Z PROC			; CMonsterAreaInfo::`scalar deleting destructor', COMDAT
; _this$ = ecx
  00000	55		 push	 ebp
  00001	8b ec		 mov	 ebp, esp
  00003	51		 push	 ecx
  00004	89 4d fc	 mov	 DWORD PTR _this$[ebp], ecx
  00007	8b 4d fc	 mov	 ecx, DWORD PTR _this$[ebp]
  0000a	e8 00 00 00 00	 call	 ??1CMonsterAreaInfo@@UAE@XZ ; CMonsterAreaInfo::~CMonsterAreaInfo
  0000f	8b 45 08	 mov	 eax, DWORD PTR ___flags$[ebp]
  00012	83 e0 01	 and	 eax, 1
  00015	74 0f		 je	 SHORT $LN2@scalar
  00017	68 9c 00 00 00	 push	 156			; 0000009cH
  0001c	ff 75 fc	 push	 DWORD PTR _this$[ebp]
  0001f	e8 00 00 00 00	 call	 ??3@YAXPAXI@Z		; operator delete
  00024	59		 pop	 ecx
  00025	59		 pop	 ecx
$LN2@scalar:
  00026	8b 45 fc	 mov	 eax, DWORD PTR _this$[ebp]
  00029	c9		 leave
  0002a	c2 04 00	 ret	 4
??_GCMonsterAreaInfo@@UAEPAXI@Z ENDP			; CMonsterAreaInfo::`scalar deleting destructor'
_TEXT	ENDS
; Function compile flags: /Odspy
; File C:\Program Files (x86)\Microsoft Visual Studio\2019\Community\VC\Tools\MSVC\14.28.29333\include\vector
; File C:\Program Files (x86)\Microsoft Visual Studio\2019\Community\VC\Tools\MSVC\14.28.29333\include\xmemory
; File C:\Program Files (x86)\Microsoft Visual Studio\2019\Community\VC\Tools\MSVC\14.28.29333\include\vector
;	COMDAT ?_Getal@?$vector@UD3DXVECTOR2@@V?$allocator@UD3DXVECTOR2@@@std@@@std@@AAEAAV?$allocator@UD3DXVECTOR2@@@2@XZ
_TEXT	SEGMENT
$T1 = -8						; size = 4
_this$ = -4						; size = 4
?_Getal@?$vector@UD3DXVECTOR2@@V?$allocator@UD3DXVECTOR2@@@std@@@std@@AAEAAV?$allocator@UD3DXVECTOR2@@@2@XZ PROC ; std::vector<D3DXVECTOR2,std::allocator<D3DXVECTOR2> >::_Getal, COMDAT
; _this$ = ecx

; 1732 :     _Alty& _Getal() noexcept {

  00000	55		 push	 ebp
  00001	8b ec		 mov	 ebp, esp
  00003	51		 push	 ecx
  00004	51		 push	 ecx
  00005	89 4d fc	 mov	 DWORD PTR _this$[ebp], ecx

; 1733 :         return _Mypair._Get_first();

  00008	8b 45 fc	 mov	 eax, DWORD PTR _this$[ebp]
; File C:\Program Files (x86)\Microsoft Visual Studio\2019\Community\VC\Tools\MSVC\14.28.29333\include\xmemory

; 1347 :         return *this;

  0000b	89 45 f8	 mov	 DWORD PTR $T1[ebp], eax
; File C:\Program Files (x86)\Microsoft Visual Studio\2019\Community\VC\Tools\MSVC\14.28.29333\include\vector

; 1733 :         return _Mypair._Get_first();

  0000e	8b 45 f8	 mov	 eax, DWORD PTR $T1[ebp]

; 1734 :     }

  00011	c9		 leave
  00012	c3		 ret	 0
?_Getal@?$vector@UD3DXVECTOR2@@V?$allocator@UD3DXVECTOR2@@@std@@@std@@AAEAAV?$allocator@UD3DXVECTOR2@@@2@XZ ENDP ; std::vector<D3DXVECTOR2,std::allocator<D3DXVECTOR2> >::_Getal
_TEXT	ENDS
; Function compile flags: /Odspy
; File C:\Program Files (x86)\Microsoft Visual Studio\2019\Community\VC\Tools\MSVC\14.28.29333\include\vector
;	COMDAT ?_Xlength@?$vector@UD3DXVECTOR2@@V?$allocator@UD3DXVECTOR2@@@std@@@std@@CAXXZ
_TEXT	SEGMENT
?_Xlength@?$vector@UD3DXVECTOR2@@V?$allocator@UD3DXVECTOR2@@@std@@@std@@CAXXZ PROC ; std::vector<D3DXVECTOR2,std::allocator<D3DXVECTOR2> >::_Xlength, COMDAT

; 1704 :     [[noreturn]] static void _Xlength() {

  00000	55		 push	 ebp
  00001	8b ec		 mov	 ebp, esp

; 1705 :         _Xlength_error("vector too long");

  00003	68 00 00 00 00	 push	 OFFSET ??_C@_0BA@FOIKENOD@vector?5too?5long@
  00008	e8 00 00 00 00	 call	 ?_Xlength_error@std@@YAXPBD@Z ; std::_Xlength_error
$LN2@Xlength:

; 1706 :     }

  0000d	5d		 pop	 ebp
  0000e	c3		 ret	 0
?_Xlength@?$vector@UD3DXVECTOR2@@V?$allocator@UD3DXVECTOR2@@@std@@@std@@CAXXZ ENDP ; std::vector<D3DXVECTOR2,std::allocator<D3DXVECTOR2> >::_Xlength
_TEXT	ENDS
; Function compile flags: /Odspy
; File C:\Program Files (x86)\Microsoft Visual Studio\2019\Community\VC\Tools\MSVC\14.28.29333\include\vector
; File C:\Program Files (x86)\Microsoft Visual Studio\2019\Community\VC\Tools\MSVC\14.28.29333\include\xmemory
; File C:\Program Files (x86)\Microsoft Visual Studio\2019\Community\VC\Tools\MSVC\14.28.29333\include\vector
; File C:\Program Files (x86)\Microsoft Visual Studio\2019\Community\VC\Tools\MSVC\14.28.29333\include\xmemory
; File C:\Program Files (x86)\Microsoft Visual Studio\2019\Community\VC\Tools\MSVC\14.28.29333\include\vector
; File C:\Program Files (x86)\Microsoft Visual Studio\2019\Community\VC\Tools\MSVC\14.28.29333\include\xmemory
; File C:\Program Files (x86)\Microsoft Visual Studio\2019\Community\VC\Tools\MSVC\14.28.29333\include\vector
;	COMDAT ?_Tidy@?$vector@UD3DXVECTOR2@@V?$allocator@UD3DXVECTOR2@@@std@@@std@@AAEXXZ
_TEXT	SEGMENT
$T1 = -52						; size = 4
__Ptr$ = -48						; size = 4
__Count$ = -44						; size = 4
$T2 = -40						; size = 4
__First$ = -36						; size = 4
__Last$ = -32						; size = 4
$T3 = -28						; size = 4
$T4 = -24						; size = 4
__Myend$ = -20						; size = 4
__Mylast$ = -16						; size = 4
_this$ = -12						; size = 4
__My_data$ = -8						; size = 4
__Myfirst$ = -4						; size = 4
?_Tidy@?$vector@UD3DXVECTOR2@@V?$allocator@UD3DXVECTOR2@@@std@@@std@@AAEXXZ PROC ; std::vector<D3DXVECTOR2,std::allocator<D3DXVECTOR2> >::_Tidy, COMDAT
; _this$ = ecx

; 1686 :     void _Tidy() noexcept { // free all storage

  00000	55		 push	 ebp
  00001	8b ec		 mov	 ebp, esp
  00003	83 ec 34	 sub	 esp, 52			; 00000034H
  00006	89 4d f4	 mov	 DWORD PTR _this$[ebp], ecx

; 1687 :         auto& _My_data    = _Mypair._Myval2;

  00009	8b 45 f4	 mov	 eax, DWORD PTR _this$[ebp]
  0000c	89 45 f8	 mov	 DWORD PTR __My_data$[ebp], eax

; 1688 :         pointer& _Myfirst = _My_data._Myfirst;

  0000f	8b 45 f8	 mov	 eax, DWORD PTR __My_data$[ebp]
  00012	89 45 fc	 mov	 DWORD PTR __Myfirst$[ebp], eax

; 1689 :         pointer& _Mylast  = _My_data._Mylast;

  00015	8b 45 f8	 mov	 eax, DWORD PTR __My_data$[ebp]
  00018	83 c0 04	 add	 eax, 4
  0001b	89 45 f0	 mov	 DWORD PTR __Mylast$[ebp], eax

; 1690 :         pointer& _Myend   = _My_data._Myend;

  0001e	8b 45 f8	 mov	 eax, DWORD PTR __My_data$[ebp]
  00021	83 c0 08	 add	 eax, 8
  00024	89 45 ec	 mov	 DWORD PTR __Myend$[ebp], eax

; 1691 : 
; 1692 :         _My_data._Orphan_all();
; 1693 : 
; 1694 :         if (_Myfirst) { // destroy and deallocate old array

  00027	8b 45 fc	 mov	 eax, DWORD PTR __Myfirst$[ebp]
  0002a	83 38 00	 cmp	 DWORD PTR [eax], 0
  0002d	74 74		 je	 SHORT $LN3@Tidy

; 1695 :             _Destroy(_Myfirst, _Mylast);

  0002f	8b 45 f0	 mov	 eax, DWORD PTR __Mylast$[ebp]
  00032	8b 00		 mov	 eax, DWORD PTR [eax]
  00034	89 45 e0	 mov	 DWORD PTR __Last$[ebp], eax
  00037	8b 45 fc	 mov	 eax, DWORD PTR __Myfirst$[ebp]
  0003a	8b 00		 mov	 eax, DWORD PTR [eax]
  0003c	89 45 dc	 mov	 DWORD PTR __First$[ebp], eax

; 1733 :         return _Mypair._Get_first();

  0003f	8b 45 f4	 mov	 eax, DWORD PTR _this$[ebp]
; File C:\Program Files (x86)\Microsoft Visual Studio\2019\Community\VC\Tools\MSVC\14.28.29333\include\xmemory

; 1347 :         return *this;

  00042	89 45 e8	 mov	 DWORD PTR $T4[ebp], eax
; File C:\Program Files (x86)\Microsoft Visual Studio\2019\Community\VC\Tools\MSVC\14.28.29333\include\vector

; 1733 :         return _Mypair._Get_first();

  00045	8b 45 e8	 mov	 eax, DWORD PTR $T4[ebp]
  00048	89 45 e4	 mov	 DWORD PTR $T3[ebp], eax

; 1612 :         _Destroy_range(_First, _Last, _Getal());

  0004b	ff 75 e4	 push	 DWORD PTR $T3[ebp]
  0004e	ff 75 e0	 push	 DWORD PTR __Last$[ebp]
  00051	ff 75 dc	 push	 DWORD PTR __First$[ebp]
  00054	e8 00 00 00 00	 call	 ??$_Destroy_range@V?$allocator@UD3DXVECTOR2@@@std@@@std@@YAXPAUD3DXVECTOR2@@QAU1@AAV?$allocator@UD3DXVECTOR2@@@0@@Z ; std::_Destroy_range<std::allocator<D3DXVECTOR2> >
  00059	83 c4 0c	 add	 esp, 12			; 0000000cH

; 1733 :         return _Mypair._Get_first();

  0005c	8b 45 f4	 mov	 eax, DWORD PTR _this$[ebp]
; File C:\Program Files (x86)\Microsoft Visual Studio\2019\Community\VC\Tools\MSVC\14.28.29333\include\xmemory

; 1347 :         return *this;

  0005f	89 45 d8	 mov	 DWORD PTR $T2[ebp], eax
; File C:\Program Files (x86)\Microsoft Visual Studio\2019\Community\VC\Tools\MSVC\14.28.29333\include\vector

; 1733 :         return _Mypair._Get_first();

  00062	8b 45 d8	 mov	 eax, DWORD PTR $T2[ebp]
  00065	89 45 cc	 mov	 DWORD PTR $T1[ebp], eax

; 1696 :             _Getal().deallocate(_Myfirst, static_cast<size_type>(_Myend - _Myfirst));

  00068	8b 45 ec	 mov	 eax, DWORD PTR __Myend$[ebp]
  0006b	8b 4d fc	 mov	 ecx, DWORD PTR __Myfirst$[ebp]
  0006e	8b 00		 mov	 eax, DWORD PTR [eax]
  00070	2b 01		 sub	 eax, DWORD PTR [ecx]
  00072	c1 f8 03	 sar	 eax, 3
  00075	89 45 d4	 mov	 DWORD PTR __Count$[ebp], eax
  00078	8b 45 fc	 mov	 eax, DWORD PTR __Myfirst$[ebp]
  0007b	8b 00		 mov	 eax, DWORD PTR [eax]
  0007d	89 45 d0	 mov	 DWORD PTR __Ptr$[ebp], eax
; File C:\Program Files (x86)\Microsoft Visual Studio\2019\Community\VC\Tools\MSVC\14.28.29333\include\xmemory

; 810  :         _Deallocate<_New_alignof<_Ty>>(_Ptr, sizeof(_Ty) * _Count);

  00080	8b 45 d4	 mov	 eax, DWORD PTR __Count$[ebp]
  00083	c1 e0 03	 shl	 eax, 3
  00086	50		 push	 eax
  00087	ff 75 d0	 push	 DWORD PTR __Ptr$[ebp]
  0008a	e8 00 00 00 00	 call	 ??$_Deallocate@$07$0A@@std@@YAXPAXI@Z ; std::_Deallocate<8,0>
  0008f	59		 pop	 ecx
  00090	59		 pop	 ecx
; File C:\Program Files (x86)\Microsoft Visual Studio\2019\Community\VC\Tools\MSVC\14.28.29333\include\vector

; 1698 :             _Myfirst = pointer();

  00091	8b 45 fc	 mov	 eax, DWORD PTR __Myfirst$[ebp]
  00094	83 20 00	 and	 DWORD PTR [eax], 0

; 1699 :             _Mylast  = pointer();

  00097	8b 45 f0	 mov	 eax, DWORD PTR __Mylast$[ebp]
  0009a	83 20 00	 and	 DWORD PTR [eax], 0

; 1700 :             _Myend   = pointer();

  0009d	8b 45 ec	 mov	 eax, DWORD PTR __Myend$[ebp]
  000a0	83 20 00	 and	 DWORD PTR [eax], 0
$LN3@Tidy:

; 1701 :         }
; 1702 :     }

  000a3	c9		 leave
  000a4	c3		 ret	 0
?_Tidy@?$vector@UD3DXVECTOR2@@V?$allocator@UD3DXVECTOR2@@@std@@@std@@AAEXXZ ENDP ; std::vector<D3DXVECTOR2,std::allocator<D3DXVECTOR2> >::_Tidy
_TEXT	ENDS
; Function compile flags: /Odspy
; File C:\Program Files (x86)\Microsoft Visual Studio\2019\Community\VC\Tools\MSVC\14.28.29333\include\vector
; File C:\Program Files (x86)\Microsoft Visual Studio\2019\Community\VC\Tools\MSVC\14.28.29333\include\xmemory
; File C:\Program Files (x86)\Microsoft Visual Studio\2019\Community\VC\Tools\MSVC\14.28.29333\include\vector
; File C:\Program Files (x86)\Microsoft Visual Studio\2019\Community\VC\Tools\MSVC\14.28.29333\include\xmemory
; File C:\Program Files (x86)\Microsoft Visual Studio\2019\Community\VC\Tools\MSVC\14.28.29333\include\vector
; File C:\Program Files (x86)\Microsoft Visual Studio\2019\Community\VC\Tools\MSVC\14.28.29333\include\xmemory
; File C:\Program Files (x86)\Microsoft Visual Studio\2019\Community\VC\Tools\MSVC\14.28.29333\include\vector
;	COMDAT ?_Change_array@?$vector@UD3DXVECTOR2@@V?$allocator@UD3DXVECTOR2@@@std@@@std@@AAEXQAUD3DXVECTOR2@@II@Z
_TEXT	SEGMENT
$T1 = -52						; size = 4
__Ptr$ = -48						; size = 4
__Count$ = -44						; size = 4
$T2 = -40						; size = 4
__First$ = -36						; size = 4
__Last$ = -32						; size = 4
$T3 = -28						; size = 4
$T4 = -24						; size = 4
__Myend$ = -20						; size = 4
__Mylast$ = -16						; size = 4
_this$ = -12						; size = 4
__My_data$ = -8						; size = 4
__Myfirst$ = -4						; size = 4
__Newvec$ = 8						; size = 4
__Newsize$ = 12						; size = 4
__Newcapacity$ = 16					; size = 4
?_Change_array@?$vector@UD3DXVECTOR2@@V?$allocator@UD3DXVECTOR2@@@std@@@std@@AAEXQAUD3DXVECTOR2@@II@Z PROC ; std::vector<D3DXVECTOR2,std::allocator<D3DXVECTOR2> >::_Change_array, COMDAT
; _this$ = ecx

; 1667 :     void _Change_array(const pointer _Newvec, const size_type _Newsize, const size_type _Newcapacity) {

  00000	55		 push	 ebp
  00001	8b ec		 mov	 ebp, esp
  00003	83 ec 34	 sub	 esp, 52			; 00000034H
  00006	89 4d f4	 mov	 DWORD PTR _this$[ebp], ecx

; 1668 :         // orphan all iterators, discard old array, acquire new array
; 1669 :         auto& _My_data    = _Mypair._Myval2;

  00009	8b 45 f4	 mov	 eax, DWORD PTR _this$[ebp]
  0000c	89 45 f8	 mov	 DWORD PTR __My_data$[ebp], eax

; 1670 :         pointer& _Myfirst = _My_data._Myfirst;

  0000f	8b 45 f8	 mov	 eax, DWORD PTR __My_data$[ebp]
  00012	89 45 fc	 mov	 DWORD PTR __Myfirst$[ebp], eax

; 1671 :         pointer& _Mylast  = _My_data._Mylast;

  00015	8b 45 f8	 mov	 eax, DWORD PTR __My_data$[ebp]
  00018	83 c0 04	 add	 eax, 4
  0001b	89 45 f0	 mov	 DWORD PTR __Mylast$[ebp], eax

; 1672 :         pointer& _Myend   = _My_data._Myend;

  0001e	8b 45 f8	 mov	 eax, DWORD PTR __My_data$[ebp]
  00021	83 c0 08	 add	 eax, 8
  00024	89 45 ec	 mov	 DWORD PTR __Myend$[ebp], eax

; 1673 : 
; 1674 :         _My_data._Orphan_all();
; 1675 : 
; 1676 :         if (_Myfirst) { // destroy and deallocate old array

  00027	8b 45 fc	 mov	 eax, DWORD PTR __Myfirst$[ebp]
  0002a	83 38 00	 cmp	 DWORD PTR [eax], 0
  0002d	74 62		 je	 SHORT $LN2@Change_arr

; 1677 :             _Destroy(_Myfirst, _Mylast);

  0002f	8b 45 f0	 mov	 eax, DWORD PTR __Mylast$[ebp]
  00032	8b 00		 mov	 eax, DWORD PTR [eax]
  00034	89 45 e0	 mov	 DWORD PTR __Last$[ebp], eax
  00037	8b 45 fc	 mov	 eax, DWORD PTR __Myfirst$[ebp]
  0003a	8b 00		 mov	 eax, DWORD PTR [eax]
  0003c	89 45 dc	 mov	 DWORD PTR __First$[ebp], eax

; 1733 :         return _Mypair._Get_first();

  0003f	8b 45 f4	 mov	 eax, DWORD PTR _this$[ebp]
; File C:\Program Files (x86)\Microsoft Visual Studio\2019\Community\VC\Tools\MSVC\14.28.29333\include\xmemory

; 1347 :         return *this;

  00042	89 45 e8	 mov	 DWORD PTR $T4[ebp], eax
; File C:\Program Files (x86)\Microsoft Visual Studio\2019\Community\VC\Tools\MSVC\14.28.29333\include\vector

; 1733 :         return _Mypair._Get_first();

  00045	8b 45 e8	 mov	 eax, DWORD PTR $T4[ebp]
  00048	89 45 e4	 mov	 DWORD PTR $T3[ebp], eax

; 1612 :         _Destroy_range(_First, _Last, _Getal());

  0004b	ff 75 e4	 push	 DWORD PTR $T3[ebp]
  0004e	ff 75 e0	 push	 DWORD PTR __Last$[ebp]
  00051	ff 75 dc	 push	 DWORD PTR __First$[ebp]
  00054	e8 00 00 00 00	 call	 ??$_Destroy_range@V?$allocator@UD3DXVECTOR2@@@std@@@std@@YAXPAUD3DXVECTOR2@@QAU1@AAV?$allocator@UD3DXVECTOR2@@@0@@Z ; std::_Destroy_range<std::allocator<D3DXVECTOR2> >
  00059	83 c4 0c	 add	 esp, 12			; 0000000cH

; 1733 :         return _Mypair._Get_first();

  0005c	8b 45 f4	 mov	 eax, DWORD PTR _this$[ebp]
; File C:\Program Files (x86)\Microsoft Visual Studio\2019\Community\VC\Tools\MSVC\14.28.29333\include\xmemory

; 1347 :         return *this;

  0005f	89 45 d8	 mov	 DWORD PTR $T2[ebp], eax
; File C:\Program Files (x86)\Microsoft Visual Studio\2019\Community\VC\Tools\MSVC\14.28.29333\include\vector

; 1733 :         return _Mypair._Get_first();

  00062	8b 45 d8	 mov	 eax, DWORD PTR $T2[ebp]
  00065	89 45 cc	 mov	 DWORD PTR $T1[ebp], eax

; 1678 :             _Getal().deallocate(_Myfirst, static_cast<size_type>(_Myend - _Myfirst));

  00068	8b 45 ec	 mov	 eax, DWORD PTR __Myend$[ebp]
  0006b	8b 4d fc	 mov	 ecx, DWORD PTR __Myfirst$[ebp]
  0006e	8b 00		 mov	 eax, DWORD PTR [eax]
  00070	2b 01		 sub	 eax, DWORD PTR [ecx]
  00072	c1 f8 03	 sar	 eax, 3
  00075	89 45 d4	 mov	 DWORD PTR __Count$[ebp], eax
  00078	8b 45 fc	 mov	 eax, DWORD PTR __Myfirst$[ebp]
  0007b	8b 00		 mov	 eax, DWORD PTR [eax]
  0007d	89 45 d0	 mov	 DWORD PTR __Ptr$[ebp], eax
; File C:\Program Files (x86)\Microsoft Visual Studio\2019\Community\VC\Tools\MSVC\14.28.29333\include\xmemory

; 810  :         _Deallocate<_New_alignof<_Ty>>(_Ptr, sizeof(_Ty) * _Count);

  00080	8b 45 d4	 mov	 eax, DWORD PTR __Count$[ebp]
  00083	c1 e0 03	 shl	 eax, 3
  00086	50		 push	 eax
  00087	ff 75 d0	 push	 DWORD PTR __Ptr$[ebp]
  0008a	e8 00 00 00 00	 call	 ??$_Deallocate@$07$0A@@std@@YAXPAXI@Z ; std::_Deallocate<8,0>
  0008f	59		 pop	 ecx
  00090	59		 pop	 ecx
$LN2@Change_arr:
; File C:\Program Files (x86)\Microsoft Visual Studio\2019\Community\VC\Tools\MSVC\14.28.29333\include\vector

; 1681 :         _Myfirst = _Newvec;

  00091	8b 45 fc	 mov	 eax, DWORD PTR __Myfirst$[ebp]
  00094	8b 4d 08	 mov	 ecx, DWORD PTR __Newvec$[ebp]
  00097	89 08		 mov	 DWORD PTR [eax], ecx

; 1682 :         _Mylast  = _Newvec + _Newsize;

  00099	8b 45 0c	 mov	 eax, DWORD PTR __Newsize$[ebp]
  0009c	8b 4d 08	 mov	 ecx, DWORD PTR __Newvec$[ebp]
  0009f	8d 04 c1	 lea	 eax, DWORD PTR [ecx+eax*8]
  000a2	8b 4d f0	 mov	 ecx, DWORD PTR __Mylast$[ebp]
  000a5	89 01		 mov	 DWORD PTR [ecx], eax

; 1683 :         _Myend   = _Newvec + _Newcapacity;

  000a7	8b 45 10	 mov	 eax, DWORD PTR __Newcapacity$[ebp]
  000aa	8b 4d 08	 mov	 ecx, DWORD PTR __Newvec$[ebp]
  000ad	8d 04 c1	 lea	 eax, DWORD PTR [ecx+eax*8]
  000b0	8b 4d ec	 mov	 ecx, DWORD PTR __Myend$[ebp]
  000b3	89 01		 mov	 DWORD PTR [ecx], eax

; 1684 :     }

  000b5	c9		 leave
  000b6	c2 0c 00	 ret	 12			; 0000000cH
?_Change_array@?$vector@UD3DXVECTOR2@@V?$allocator@UD3DXVECTOR2@@@std@@@std@@AAEXQAUD3DXVECTOR2@@II@Z ENDP ; std::vector<D3DXVECTOR2,std::allocator<D3DXVECTOR2> >::_Change_array
_TEXT	ENDS
; Function compile flags: /Odspy
; File C:\Program Files (x86)\Microsoft Visual Studio\2019\Community\VC\Tools\MSVC\14.28.29333\include\vector
; File C:\Program Files (x86)\Microsoft Visual Studio\2019\Community\VC\Tools\MSVC\14.28.29333\include\xmemory
; File C:\Program Files (x86)\Microsoft Visual Studio\2019\Community\VC\Tools\MSVC\14.28.29333\include\vector
; File C:\Program Files (x86)\Microsoft Visual Studio\2019\Community\VC\Tools\MSVC\14.28.29333\include\xmemory
; File C:\Program Files (x86)\Microsoft Visual Studio\2019\Community\VC\Tools\MSVC\14.28.29333\include\limits
; File C:\Program Files (x86)\Microsoft Visual Studio\2019\Community\VC\Tools\MSVC\14.28.29333\include\vector
; File C:\Program Files (x86)\Microsoft Visual Studio\2019\Community\VC\Tools\MSVC\14.28.29333\include\utility
; File C:\Program Files (x86)\Microsoft Visual Studio\2019\Community\VC\Tools\MSVC\14.28.29333\include\vector
;	COMDAT ?_Calculate_growth@?$vector@UD3DXVECTOR2@@V?$allocator@UD3DXVECTOR2@@@std@@@std@@ABEII@Z
_TEXT	SEGMENT
$T1 = -52						; size = 4
$T2 = -48						; size = 4
$T3 = -44						; size = 4
$T4 = -40						; size = 4
$T5 = -36						; size = 4
__Geometric$ = -32					; size = 4
__Max$ = -28						; size = 4
tv82 = -24						; size = 4
$T6 = -20						; size = 4
$T7 = -16						; size = 4
_this$ = -12						; size = 4
__My_data$8 = -8					; size = 4
__Oldcapacity$ = -4					; size = 4
__Newsize$ = 8						; size = 4
?_Calculate_growth@?$vector@UD3DXVECTOR2@@V?$allocator@UD3DXVECTOR2@@@std@@@std@@ABEII@Z PROC ; std::vector<D3DXVECTOR2,std::allocator<D3DXVECTOR2> >::_Calculate_growth, COMDAT
; _this$ = ecx

; 1615 :     size_type _Calculate_growth(const size_type _Newsize) const {

  00000	55		 push	 ebp
  00001	8b ec		 mov	 ebp, esp
  00003	83 ec 34	 sub	 esp, 52			; 00000034H
  00006	89 4d f4	 mov	 DWORD PTR _this$[ebp], ecx

; 1493 :         auto& _My_data = _Mypair._Myval2;

  00009	8b 45 f4	 mov	 eax, DWORD PTR _this$[ebp]
  0000c	89 45 f8	 mov	 DWORD PTR __My_data$8[ebp], eax

; 1494 :         return static_cast<size_type>(_My_data._Myend - _My_data._Myfirst);

  0000f	8b 45 f8	 mov	 eax, DWORD PTR __My_data$8[ebp]
  00012	8b 4d f8	 mov	 ecx, DWORD PTR __My_data$8[ebp]
  00015	8b 40 08	 mov	 eax, DWORD PTR [eax+8]
  00018	2b 01		 sub	 eax, DWORD PTR [ecx]
  0001a	c1 f8 03	 sar	 eax, 3
  0001d	89 45 fc	 mov	 DWORD PTR __Oldcapacity$[ebp], eax

; 1737 :         return _Mypair._Get_first();

  00020	8b 45 f4	 mov	 eax, DWORD PTR _this$[ebp]
; File C:\Program Files (x86)\Microsoft Visual Studio\2019\Community\VC\Tools\MSVC\14.28.29333\include\xmemory

; 1351 :         return *this;

  00023	89 45 dc	 mov	 DWORD PTR $T5[ebp], eax
; File C:\Program Files (x86)\Microsoft Visual Studio\2019\Community\VC\Tools\MSVC\14.28.29333\include\vector

; 1737 :         return _Mypair._Get_first();

  00026	8b 45 dc	 mov	 eax, DWORD PTR $T5[ebp]
  00029	89 45 cc	 mov	 DWORD PTR $T1[ebp], eax
; File C:\Program Files (x86)\Microsoft Visual Studio\2019\Community\VC\Tools\MSVC\14.28.29333\include\xmemory

; 710  :         return static_cast<size_t>(-1) / sizeof(value_type);

  0002c	c7 45 f0 ff ff
	ff 1f		 mov	 DWORD PTR $T7[ebp], 536870911 ; 1fffffffH
; File C:\Program Files (x86)\Microsoft Visual Studio\2019\Community\VC\Tools\MSVC\14.28.29333\include\limits

; 557  :         return INT_MAX;

  00033	c7 45 d8 ff ff
	ff 7f		 mov	 DWORD PTR $T4[ebp], 2147483647 ; 7fffffffH
; File C:\Program Files (x86)\Microsoft Visual Studio\2019\Community\VC\Tools\MSVC\14.28.29333\include\vector

; 1488 :         return (_STD min)(

  0003a	8b 45 d8	 mov	 eax, DWORD PTR $T4[ebp]
  0003d	89 45 ec	 mov	 DWORD PTR $T6[ebp], eax
; File C:\Program Files (x86)\Microsoft Visual Studio\2019\Community\VC\Tools\MSVC\14.28.29333\include\utility

; 68   :     return _Right < _Left ? _Right : _Left;

  00040	8b 45 f0	 mov	 eax, DWORD PTR $T7[ebp]
  00043	3b 45 ec	 cmp	 eax, DWORD PTR $T6[ebp]
  00046	73 08		 jae	 SHORT $LN25@Calculate_
  00048	8d 45 f0	 lea	 eax, DWORD PTR $T7[ebp]
  0004b	89 45 e8	 mov	 DWORD PTR tv82[ebp], eax
  0004e	eb 06		 jmp	 SHORT $LN26@Calculate_
$LN25@Calculate_:
  00050	8d 45 ec	 lea	 eax, DWORD PTR $T6[ebp]
  00053	89 45 e8	 mov	 DWORD PTR tv82[ebp], eax
$LN26@Calculate_:
  00056	8b 45 e8	 mov	 eax, DWORD PTR tv82[ebp]
  00059	89 45 d4	 mov	 DWORD PTR $T3[ebp], eax
  0005c	8b 45 d4	 mov	 eax, DWORD PTR $T3[ebp]
  0005f	89 45 d0	 mov	 DWORD PTR $T2[ebp], eax
; File C:\Program Files (x86)\Microsoft Visual Studio\2019\Community\VC\Tools\MSVC\14.28.29333\include\vector

; 1488 :         return (_STD min)(

  00062	8b 45 d0	 mov	 eax, DWORD PTR $T2[ebp]
  00065	8b 00		 mov	 eax, DWORD PTR [eax]
  00067	89 45 e4	 mov	 DWORD PTR __Max$[ebp], eax

; 1616 :         // given _Oldcapacity and _Newsize, calculate geometric growth
; 1617 :         const size_type _Oldcapacity = capacity();
; 1618 :         const auto _Max              = max_size();
; 1619 : 
; 1620 :         if (_Oldcapacity > _Max - _Oldcapacity / 2) {

  0006a	8b 45 fc	 mov	 eax, DWORD PTR __Oldcapacity$[ebp]
  0006d	d1 e8		 shr	 eax, 1
  0006f	8b 4d e4	 mov	 ecx, DWORD PTR __Max$[ebp]
  00072	2b c8		 sub	 ecx, eax
  00074	39 4d fc	 cmp	 DWORD PTR __Oldcapacity$[ebp], ecx
  00077	76 05		 jbe	 SHORT $LN2@Calculate_

; 1621 :             return _Max; // geometric growth would overflow

  00079	8b 45 e4	 mov	 eax, DWORD PTR __Max$[ebp]
  0007c	eb 1b		 jmp	 SHORT $LN1@Calculate_
$LN2@Calculate_:

; 1622 :         }
; 1623 : 
; 1624 :         const size_type _Geometric = _Oldcapacity + _Oldcapacity / 2;

  0007e	8b 45 fc	 mov	 eax, DWORD PTR __Oldcapacity$[ebp]
  00081	d1 e8		 shr	 eax, 1
  00083	03 45 fc	 add	 eax, DWORD PTR __Oldcapacity$[ebp]
  00086	89 45 e0	 mov	 DWORD PTR __Geometric$[ebp], eax

; 1625 : 
; 1626 :         if (_Geometric < _Newsize) {

  00089	8b 45 e0	 mov	 eax, DWORD PTR __Geometric$[ebp]
  0008c	3b 45 08	 cmp	 eax, DWORD PTR __Newsize$[ebp]
  0008f	73 05		 jae	 SHORT $LN3@Calculate_

; 1627 :             return _Newsize; // geometric growth would be insufficient

  00091	8b 45 08	 mov	 eax, DWORD PTR __Newsize$[ebp]
  00094	eb 03		 jmp	 SHORT $LN1@Calculate_
$LN3@Calculate_:

; 1628 :         }
; 1629 : 
; 1630 :         return _Geometric; // geometric growth is sufficient

  00096	8b 45 e0	 mov	 eax, DWORD PTR __Geometric$[ebp]
$LN1@Calculate_:

; 1631 :     }

  00099	c9		 leave
  0009a	c2 04 00	 ret	 4
?_Calculate_growth@?$vector@UD3DXVECTOR2@@V?$allocator@UD3DXVECTOR2@@@std@@@std@@ABEII@Z ENDP ; std::vector<D3DXVECTOR2,std::allocator<D3DXVECTOR2> >::_Calculate_growth
_TEXT	ENDS
; Function compile flags: /Odspy
; File C:\Program Files (x86)\Microsoft Visual Studio\2019\Community\VC\Tools\MSVC\14.28.29333\include\vector
; File C:\Program Files (x86)\Microsoft Visual Studio\2019\Community\VC\Tools\MSVC\14.28.29333\include\xmemory
; File C:\Program Files (x86)\Microsoft Visual Studio\2019\Community\VC\Tools\MSVC\14.28.29333\include\vector
;	COMDAT ?_Destroy@?$vector@UD3DXVECTOR2@@V?$allocator@UD3DXVECTOR2@@@std@@@std@@AAEXPAUD3DXVECTOR2@@0@Z
_TEXT	SEGMENT
$T1 = -12						; size = 4
$T2 = -8						; size = 4
_this$ = -4						; size = 4
__First$ = 8						; size = 4
__Last$ = 12						; size = 4
?_Destroy@?$vector@UD3DXVECTOR2@@V?$allocator@UD3DXVECTOR2@@@std@@@std@@AAEXPAUD3DXVECTOR2@@0@Z PROC ; std::vector<D3DXVECTOR2,std::allocator<D3DXVECTOR2> >::_Destroy, COMDAT
; _this$ = ecx

; 1611 :     void _Destroy(pointer _First, pointer _Last) { // destroy [_First, _Last) using allocator

  00000	55		 push	 ebp
  00001	8b ec		 mov	 ebp, esp
  00003	83 ec 0c	 sub	 esp, 12			; 0000000cH
  00006	89 4d fc	 mov	 DWORD PTR _this$[ebp], ecx

; 1733 :         return _Mypair._Get_first();

  00009	8b 45 fc	 mov	 eax, DWORD PTR _this$[ebp]
; File C:\Program Files (x86)\Microsoft Visual Studio\2019\Community\VC\Tools\MSVC\14.28.29333\include\xmemory

; 1347 :         return *this;

  0000c	89 45 f8	 mov	 DWORD PTR $T2[ebp], eax
; File C:\Program Files (x86)\Microsoft Visual Studio\2019\Community\VC\Tools\MSVC\14.28.29333\include\vector

; 1733 :         return _Mypair._Get_first();

  0000f	8b 45 f8	 mov	 eax, DWORD PTR $T2[ebp]
  00012	89 45 f4	 mov	 DWORD PTR $T1[ebp], eax

; 1612 :         _Destroy_range(_First, _Last, _Getal());

  00015	ff 75 f4	 push	 DWORD PTR $T1[ebp]
  00018	ff 75 0c	 push	 DWORD PTR __Last$[ebp]
  0001b	ff 75 08	 push	 DWORD PTR __First$[ebp]
  0001e	e8 00 00 00 00	 call	 ??$_Destroy_range@V?$allocator@UD3DXVECTOR2@@@std@@@std@@YAXPAUD3DXVECTOR2@@QAU1@AAV?$allocator@UD3DXVECTOR2@@@0@@Z ; std::_Destroy_range<std::allocator<D3DXVECTOR2> >
  00023	83 c4 0c	 add	 esp, 12			; 0000000cH

; 1613 :     }

  00026	c9		 leave
  00027	c2 08 00	 ret	 8
?_Destroy@?$vector@UD3DXVECTOR2@@V?$allocator@UD3DXVECTOR2@@@std@@@std@@AAEXPAUD3DXVECTOR2@@0@Z ENDP ; std::vector<D3DXVECTOR2,std::allocator<D3DXVECTOR2> >::_Destroy
_TEXT	ENDS
; Function compile flags: /Odspy
; File C:\Program Files (x86)\Microsoft Visual Studio\2019\Community\VC\Tools\MSVC\14.28.29333\include\vector
; File C:\Program Files (x86)\Microsoft Visual Studio\2019\Community\VC\Tools\MSVC\14.28.29333\include\xmemory
; File C:\Program Files (x86)\Microsoft Visual Studio\2019\Community\VC\Tools\MSVC\14.28.29333\include\vector
;	COMDAT ?clear@?$vector@UD3DXVECTOR2@@V?$allocator@UD3DXVECTOR2@@@std@@@std@@QAEXXZ
_TEXT	SEGMENT
__First$ = -32						; size = 4
__Last$ = -28						; size = 4
$T1 = -24						; size = 4
$T2 = -20						; size = 4
__Myfirst$ = -16					; size = 4
__Mylast$ = -12						; size = 4
_this$ = -8						; size = 4
__My_data$ = -4						; size = 4
?clear@?$vector@UD3DXVECTOR2@@V?$allocator@UD3DXVECTOR2@@@std@@@std@@QAEXXZ PROC ; std::vector<D3DXVECTOR2,std::allocator<D3DXVECTOR2> >::clear, COMDAT
; _this$ = ecx

; 1383 :     void clear() noexcept { // erase all

  00000	55		 push	 ebp
  00001	8b ec		 mov	 ebp, esp
  00003	83 ec 20	 sub	 esp, 32			; 00000020H
  00006	89 4d f8	 mov	 DWORD PTR _this$[ebp], ecx

; 1384 :         auto& _My_data    = _Mypair._Myval2;

  00009	8b 45 f8	 mov	 eax, DWORD PTR _this$[ebp]
  0000c	89 45 fc	 mov	 DWORD PTR __My_data$[ebp], eax

; 1385 :         pointer& _Myfirst = _My_data._Myfirst;

  0000f	8b 45 fc	 mov	 eax, DWORD PTR __My_data$[ebp]
  00012	89 45 f0	 mov	 DWORD PTR __Myfirst$[ebp], eax

; 1386 :         pointer& _Mylast  = _My_data._Mylast;

  00015	8b 45 fc	 mov	 eax, DWORD PTR __My_data$[ebp]
  00018	83 c0 04	 add	 eax, 4
  0001b	89 45 f4	 mov	 DWORD PTR __Mylast$[ebp], eax

; 1387 : 
; 1388 :         _My_data._Orphan_all();
; 1389 :         _Destroy(_Myfirst, _Mylast);

  0001e	8b 45 f4	 mov	 eax, DWORD PTR __Mylast$[ebp]
  00021	8b 00		 mov	 eax, DWORD PTR [eax]
  00023	89 45 e4	 mov	 DWORD PTR __Last$[ebp], eax
  00026	8b 45 f0	 mov	 eax, DWORD PTR __Myfirst$[ebp]
  00029	8b 00		 mov	 eax, DWORD PTR [eax]
  0002b	89 45 e0	 mov	 DWORD PTR __First$[ebp], eax

; 1733 :         return _Mypair._Get_first();

  0002e	8b 45 f8	 mov	 eax, DWORD PTR _this$[ebp]
; File C:\Program Files (x86)\Microsoft Visual Studio\2019\Community\VC\Tools\MSVC\14.28.29333\include\xmemory

; 1347 :         return *this;

  00031	89 45 ec	 mov	 DWORD PTR $T2[ebp], eax
; File C:\Program Files (x86)\Microsoft Visual Studio\2019\Community\VC\Tools\MSVC\14.28.29333\include\vector

; 1733 :         return _Mypair._Get_first();

  00034	8b 45 ec	 mov	 eax, DWORD PTR $T2[ebp]
  00037	89 45 e8	 mov	 DWORD PTR $T1[ebp], eax

; 1612 :         _Destroy_range(_First, _Last, _Getal());

  0003a	ff 75 e8	 push	 DWORD PTR $T1[ebp]
  0003d	ff 75 e4	 push	 DWORD PTR __Last$[ebp]
  00040	ff 75 e0	 push	 DWORD PTR __First$[ebp]
  00043	e8 00 00 00 00	 call	 ??$_Destroy_range@V?$allocator@UD3DXVECTOR2@@@std@@@std@@YAXPAUD3DXVECTOR2@@QAU1@AAV?$allocator@UD3DXVECTOR2@@@0@@Z ; std::_Destroy_range<std::allocator<D3DXVECTOR2> >
  00048	83 c4 0c	 add	 esp, 12			; 0000000cH

; 1390 :         _Mylast = _Myfirst;

  0004b	8b 45 f4	 mov	 eax, DWORD PTR __Mylast$[ebp]
  0004e	8b 4d f0	 mov	 ecx, DWORD PTR __Myfirst$[ebp]
  00051	8b 09		 mov	 ecx, DWORD PTR [ecx]
  00053	89 08		 mov	 DWORD PTR [eax], ecx

; 1391 :     }

  00055	c9		 leave
  00056	c3		 ret	 0
?clear@?$vector@UD3DXVECTOR2@@V?$allocator@UD3DXVECTOR2@@@std@@@std@@QAEXXZ ENDP ; std::vector<D3DXVECTOR2,std::allocator<D3DXVECTOR2> >::clear
_TEXT	ENDS
; Function compile flags: /Odspy
; File C:\Program Files (x86)\Microsoft Visual Studio\2019\Community\VC\Tools\MSVC\14.28.29333\include\vector
;	COMDAT ??1?$vector@UD3DXVECTOR2@@V?$allocator@UD3DXVECTOR2@@@std@@@std@@QAE@XZ
_TEXT	SEGMENT
_this$ = -4						; size = 4
??1?$vector@UD3DXVECTOR2@@V?$allocator@UD3DXVECTOR2@@@std@@@std@@QAE@XZ PROC ; std::vector<D3DXVECTOR2,std::allocator<D3DXVECTOR2> >::~vector<D3DXVECTOR2,std::allocator<D3DXVECTOR2> >, COMDAT
; _this$ = ecx

; 672  :     ~vector() noexcept {

  00000	55		 push	 ebp
  00001	8b ec		 mov	 ebp, esp
  00003	51		 push	 ecx
  00004	89 4d fc	 mov	 DWORD PTR _this$[ebp], ecx

; 673  :         _Tidy();

  00007	8b 4d fc	 mov	 ecx, DWORD PTR _this$[ebp]
  0000a	e8 00 00 00 00	 call	 ?_Tidy@?$vector@UD3DXVECTOR2@@V?$allocator@UD3DXVECTOR2@@@std@@@std@@AAEXXZ ; std::vector<D3DXVECTOR2,std::allocator<D3DXVECTOR2> >::_Tidy

; 674  : #if _ITERATOR_DEBUG_LEVEL != 0
; 675  :         auto&& _Alproxy = _GET_PROXY_ALLOCATOR(_Alty, _Getal());
; 676  :         _Delete_plain_internal(_Alproxy, _STD exchange(_Mypair._Myval2._Myproxy, nullptr));
; 677  : #endif // _ITERATOR_DEBUG_LEVEL != 0
; 678  :     }

  0000f	c9		 leave
  00010	c3		 ret	 0
??1?$vector@UD3DXVECTOR2@@V?$allocator@UD3DXVECTOR2@@@std@@@std@@QAE@XZ ENDP ; std::vector<D3DXVECTOR2,std::allocator<D3DXVECTOR2> >::~vector<D3DXVECTOR2,std::allocator<D3DXVECTOR2> >
_TEXT	ENDS
; Function compile flags: /Odspy
; File C:\Program Files (x86)\Microsoft Visual Studio\2019\Community\VC\Tools\MSVC\14.28.29333\include\xmemory
;	COMDAT ?deallocate@?$allocator@UD3DXVECTOR2@@@std@@QAEXQAUD3DXVECTOR2@@I@Z
_TEXT	SEGMENT
_this$ = -4						; size = 4
__Ptr$ = 8						; size = 4
__Count$ = 12						; size = 4
?deallocate@?$allocator@UD3DXVECTOR2@@@std@@QAEXQAUD3DXVECTOR2@@I@Z PROC ; std::allocator<D3DXVECTOR2>::deallocate, COMDAT
; _this$ = ecx

; 808  :     void deallocate(_Ty* const _Ptr, const size_t _Count) {

  00000	55		 push	 ebp
  00001	8b ec		 mov	 ebp, esp
  00003	51		 push	 ecx
  00004	89 4d fc	 mov	 DWORD PTR _this$[ebp], ecx

; 809  :         // no overflow check on the following multiply; we assume _Allocate did that check
; 810  :         _Deallocate<_New_alignof<_Ty>>(_Ptr, sizeof(_Ty) * _Count);

  00007	8b 45 0c	 mov	 eax, DWORD PTR __Count$[ebp]
  0000a	c1 e0 03	 shl	 eax, 3
  0000d	50		 push	 eax
  0000e	ff 75 08	 push	 DWORD PTR __Ptr$[ebp]
  00011	e8 00 00 00 00	 call	 ??$_Deallocate@$07$0A@@std@@YAXPAXI@Z ; std::_Deallocate<8,0>
  00016	59		 pop	 ecx
  00017	59		 pop	 ecx

; 811  :     }

  00018	c9		 leave
  00019	c2 08 00	 ret	 8
?deallocate@?$allocator@UD3DXVECTOR2@@@std@@QAEXQAUD3DXVECTOR2@@I@Z ENDP ; std::allocator<D3DXVECTOR2>::deallocate
_TEXT	ENDS
; Function compile flags: /Odspy
; File D:\Metin2 Server Files\mainline\SRC_2014\Metin2Client\GameLib\MonsterAreaInfo.cpp
;	COMDAT ?SetLRTB@CMonsterAreaInfo@@IAEXXZ
_TEXT	SEGMENT
_this$ = -4						; size = 4
?SetLRTB@CMonsterAreaInfo@@IAEXXZ PROC			; CMonsterAreaInfo::SetLRTB, COMDAT
; _this$ = ecx

; 56   : {

  00000	55		 push	 ebp
  00001	8b ec		 mov	 ebp, esp
  00003	51		 push	 ecx
  00004	89 4d fc	 mov	 DWORD PTR _this$[ebp], ecx

; 57   : 	m_lLeft = m_lOriginX - m_lSizeX;

  00007	8b 45 fc	 mov	 eax, DWORD PTR _this$[ebp]
  0000a	8b 4d fc	 mov	 ecx, DWORD PTR _this$[ebp]
  0000d	8b 40 70	 mov	 eax, DWORD PTR [eax+112]
  00010	2b 41 78	 sub	 eax, DWORD PTR [ecx+120]
  00013	8b 4d fc	 mov	 ecx, DWORD PTR _this$[ebp]
  00016	89 81 80 00 00
	00		 mov	 DWORD PTR [ecx+128], eax

; 58   : 	m_lTop = m_lOriginY - m_lSizeY;

  0001c	8b 45 fc	 mov	 eax, DWORD PTR _this$[ebp]
  0001f	8b 4d fc	 mov	 ecx, DWORD PTR _this$[ebp]
  00022	8b 40 74	 mov	 eax, DWORD PTR [eax+116]
  00025	2b 41 7c	 sub	 eax, DWORD PTR [ecx+124]
  00028	8b 4d fc	 mov	 ecx, DWORD PTR _this$[ebp]
  0002b	89 81 88 00 00
	00		 mov	 DWORD PTR [ecx+136], eax

; 59   : 	m_lRight = m_lOriginX + m_lSizeX;

  00031	8b 45 fc	 mov	 eax, DWORD PTR _this$[ebp]
  00034	8b 40 70	 mov	 eax, DWORD PTR [eax+112]
  00037	8b 4d fc	 mov	 ecx, DWORD PTR _this$[ebp]
  0003a	03 41 78	 add	 eax, DWORD PTR [ecx+120]
  0003d	8b 4d fc	 mov	 ecx, DWORD PTR _this$[ebp]
  00040	89 81 84 00 00
	00		 mov	 DWORD PTR [ecx+132], eax

; 60   : 	m_lBottom = m_lOriginY + m_lSizeY;

  00046	8b 45 fc	 mov	 eax, DWORD PTR _this$[ebp]
  00049	8b 40 74	 mov	 eax, DWORD PTR [eax+116]
  0004c	8b 4d fc	 mov	 ecx, DWORD PTR _this$[ebp]
  0004f	03 41 7c	 add	 eax, DWORD PTR [ecx+124]
  00052	8b 4d fc	 mov	 ecx, DWORD PTR _this$[ebp]
  00055	89 81 8c 00 00
	00		 mov	 DWORD PTR [ecx+140], eax

; 61   : }

  0005b	c9		 leave
  0005c	c3		 ret	 0
?SetLRTB@CMonsterAreaInfo@@IAEXXZ ENDP			; CMonsterAreaInfo::SetLRTB
_TEXT	ENDS
; Function compile flags: /Odspy
; File D:\Metin2 Server Files\mainline\SRC_2014\Metin2Client\GameLib\MonsterAreaInfo.cpp
; File C:\Program Files (x86)\Microsoft Visual Studio\2019\Community\VC\Tools\MSVC\14.28.29333\include\vector
; File D:\Metin2 Server Files\mainline\SRC_2014\Metin2Client\GameLib\MonsterAreaInfo.cpp
; File D:\Metin2 Server Files\mainline\SRC_2014\M2Data\include\d3dx8math.inl
; File D:\Metin2 Server Files\mainline\SRC_2014\Metin2Client\GameLib\MonsterAreaInfo.cpp
; File C:\Program Files (x86)\Microsoft Visual Studio\2019\Community\VC\Tools\MSVC\14.28.29333\include\vector
; File D:\Metin2 Server Files\mainline\SRC_2014\Metin2Client\GameLib\MonsterAreaInfo.cpp
;	COMDAT ?GetTempMonsterPos@CMonsterAreaInfo@@QAE?AUD3DXVECTOR2@@K@Z
_TEXT	SEGMENT
$T1 = -20						; size = 4
__My_data$2 = -16					; size = 4
$T3 = -12						; size = 4
_this$ = -8						; size = 4
__My_data$4 = -4					; size = 4
___$ReturnUdt$ = 8					; size = 4
_dwIndex$ = 12						; size = 4
?GetTempMonsterPos@CMonsterAreaInfo@@QAE?AUD3DXVECTOR2@@K@Z PROC ; CMonsterAreaInfo::GetTempMonsterPos, COMDAT
; _this$ = ecx

; 143  : {

  00000	55		 push	 ebp
  00001	8b ec		 mov	 ebp, esp
  00003	83 ec 14	 sub	 esp, 20			; 00000014H
  00006	89 4d f8	 mov	 DWORD PTR _this$[ebp], ecx
; File C:\Program Files (x86)\Microsoft Visual Studio\2019\Community\VC\Tools\MSVC\14.28.29333\include\vector

; 1483 :         auto& _My_data = _Mypair._Myval2;

  00009	8b 45 f8	 mov	 eax, DWORD PTR _this$[ebp]
  0000c	05 90 00 00 00	 add	 eax, 144		; 00000090H
  00011	89 45 fc	 mov	 DWORD PTR __My_data$4[ebp], eax

; 1484 :         return static_cast<size_type>(_My_data._Mylast - _My_data._Myfirst);

  00014	8b 45 fc	 mov	 eax, DWORD PTR __My_data$4[ebp]
  00017	8b 4d fc	 mov	 ecx, DWORD PTR __My_data$4[ebp]
  0001a	8b 40 04	 mov	 eax, DWORD PTR [eax+4]
  0001d	2b 01		 sub	 eax, DWORD PTR [ecx]
  0001f	c1 f8 03	 sar	 eax, 3
  00022	89 45 f4	 mov	 DWORD PTR $T3[ebp], eax
; File D:\Metin2 Server Files\mainline\SRC_2014\Metin2Client\GameLib\MonsterAreaInfo.cpp

; 144  : 	if (dwIndex >= m_TempMonsterPosVector.size())

  00025	8b 45 0c	 mov	 eax, DWORD PTR _dwIndex$[ebp]
  00028	3b 45 f4	 cmp	 eax, DWORD PTR $T3[ebp]
  0002b	72 1a		 jb	 SHORT $LN2@GetTempMon
; File D:\Metin2 Server Files\mainline\SRC_2014\M2Data\include\d3dx8math.inl

; 41   :     x = fx;

  0002d	8b 45 08	 mov	 eax, DWORD PTR ___$ReturnUdt$[ebp]
  00030	0f 57 c0	 xorps	 xmm0, xmm0
  00033	f3 0f 11 00	 movss	 DWORD PTR [eax], xmm0

; 42   :     y = fy;

  00037	8b 45 08	 mov	 eax, DWORD PTR ___$ReturnUdt$[ebp]
  0003a	0f 57 c0	 xorps	 xmm0, xmm0
  0003d	f3 0f 11 40 04	 movss	 DWORD PTR [eax+4], xmm0
; File D:\Metin2 Server Files\mainline\SRC_2014\Metin2Client\GameLib\MonsterAreaInfo.cpp

; 145  : 		return D3DXVECTOR2(0.0f, 0.0f);

  00042	8b 45 08	 mov	 eax, DWORD PTR ___$ReturnUdt$[ebp]
  00045	eb 2c		 jmp	 SHORT $LN1@GetTempMon
$LN2@GetTempMon:
; File C:\Program Files (x86)\Microsoft Visual Studio\2019\Community\VC\Tools\MSVC\14.28.29333\include\vector

; 1498 :         auto& _My_data = _Mypair._Myval2;

  00047	8b 45 f8	 mov	 eax, DWORD PTR _this$[ebp]
  0004a	05 90 00 00 00	 add	 eax, 144		; 00000090H
  0004f	89 45 f0	 mov	 DWORD PTR __My_data$2[ebp], eax

; 1499 : #if _CONTAINER_DEBUG_LEVEL > 0
; 1500 :         _STL_VERIFY(
; 1501 :             _Pos < static_cast<size_type>(_My_data._Mylast - _My_data._Myfirst), "vector subscript out of range");
; 1502 : #endif // _CONTAINER_DEBUG_LEVEL > 0
; 1503 : 
; 1504 :         return _My_data._Myfirst[_Pos];

  00052	8b 45 f0	 mov	 eax, DWORD PTR __My_data$2[ebp]
  00055	8b 00		 mov	 eax, DWORD PTR [eax]
  00057	8b 4d 0c	 mov	 ecx, DWORD PTR _dwIndex$[ebp]
  0005a	8d 04 c8	 lea	 eax, DWORD PTR [eax+ecx*8]
  0005d	89 45 ec	 mov	 DWORD PTR $T1[ebp], eax
; File D:\Metin2 Server Files\mainline\SRC_2014\Metin2Client\GameLib\MonsterAreaInfo.cpp

; 146  : 	return m_TempMonsterPosVector[dwIndex];

  00060	8b 45 ec	 mov	 eax, DWORD PTR $T1[ebp]
  00063	8b 08		 mov	 ecx, DWORD PTR [eax]
  00065	8b 40 04	 mov	 eax, DWORD PTR [eax+4]
  00068	8b 55 08	 mov	 edx, DWORD PTR ___$ReturnUdt$[ebp]
  0006b	89 0a		 mov	 DWORD PTR [edx], ecx
  0006d	89 42 04	 mov	 DWORD PTR [edx+4], eax
  00070	8b 45 08	 mov	 eax, DWORD PTR ___$ReturnUdt$[ebp]
$LN1@GetTempMon:

; 147  : }

  00073	c9		 leave
  00074	c2 08 00	 ret	 8
?GetTempMonsterPos@CMonsterAreaInfo@@QAE?AUD3DXVECTOR2@@K@Z ENDP ; CMonsterAreaInfo::GetTempMonsterPos
_TEXT	ENDS
; Function compile flags: /Odspy
; File D:\Metin2 Server Files\mainline\SRC_2014\Metin2Client\GameLib\MonsterAreaInfo.cpp
; File D:\Metin2 Server Files\mainline\SRC_2014\Metin2Client\GameLib\MonsterAreaInfo.h
; File C:\Program Files (x86)\Microsoft Visual Studio\2019\Community\VC\Tools\MSVC\14.28.29333\include\xstring
; File C:\Program Files (x86)\Microsoft Visual Studio\2019\Community\VC\Tools\MSVC\14.28.29333\include\xmemory
; File C:\Program Files (x86)\Microsoft Visual Studio\2019\Community\VC\Tools\MSVC\14.28.29333\include\xstring
; File D:\Metin2 Server Files\mainline\SRC_2014\Metin2Client\GameLib\MonsterAreaInfo.cpp
; File C:\Program Files (x86)\Microsoft Visual Studio\2019\Community\VC\Tools\MSVC\14.28.29333\include\xstring
; File C:\Program Files (x86)\Microsoft Visual Studio\2019\Community\VC\Tools\MSVC\14.28.29333\include\xmemory
; File C:\Program Files (x86)\Microsoft Visual Studio\2019\Community\VC\Tools\MSVC\14.28.29333\include\xstring
; File D:\Metin2 Server Files\mainline\SRC_2014\Metin2Client\GameLib\MonsterAreaInfo.cpp
; File C:\Program Files (x86)\Microsoft Visual Studio\2019\Community\VC\Tools\MSVC\14.28.29333\include\xstring
; File D:\Metin2 Server Files\mainline\SRC_2014\Metin2Client\GameLib\MonsterAreaInfo.h
; File C:\Program Files (x86)\Microsoft Visual Studio\2019\Community\VC\Tools\MSVC\14.28.29333\include\xstring
; File C:\Program Files (x86)\Microsoft Visual Studio\2019\Community\VC\Tools\MSVC\14.28.29333\include\xmemory
; File C:\Program Files (x86)\Microsoft Visual Studio\2019\Community\VC\Tools\MSVC\14.28.29333\include\xstring
; File D:\Metin2 Server Files\mainline\SRC_2014\Metin2Client\GameLib\MonsterAreaInfo.cpp
; File C:\Program Files (x86)\Microsoft Visual Studio\2019\Community\VC\Tools\MSVC\14.28.29333\include\xstring
; File D:\Metin2 Server Files\mainline\SRC_2014\Metin2Client\GameLib\MonsterAreaInfo.cpp
;	COMDAT ?RemoveAllMonsters@CMonsterAreaInfo@@QAEXXZ
_TEXT	SEGMENT
$T1 = -28						; size = 4
$T2 = -24						; size = 4
$T3 = -20						; size = 4
$T4 = -16						; size = 4
$T5 = -12						; size = 4
$T6 = -8						; size = 4
_this$ = -4						; size = 4
?RemoveAllMonsters@CMonsterAreaInfo@@QAEXXZ PROC	; CMonsterAreaInfo::RemoveAllMonsters, COMDAT
; _this$ = ecx

; 124  : {

  00000	55		 push	 ebp
  00001	8b ec		 mov	 ebp, esp
  00003	83 ec 1c	 sub	 esp, 28			; 0000001cH
  00006	89 4d fc	 mov	 DWORD PTR _this$[ebp], ecx
; File D:\Metin2 Server Files\mainline\SRC_2014\Metin2Client\GameLib\MonsterAreaInfo.h

; 55   : 	void			SetMonsterAreaInfoType(EMonsterAreaInfoType eMonsterAreaInfoType) { m_eMonsterAreaInfoType = eMonsterAreaInfoType; }

  00009	8b 45 fc	 mov	 eax, DWORD PTR _this$[ebp]
  0000c	83 60 04 00	 and	 DWORD PTR [eax+4], 0

; 59   : 	void			SetMonsterGroupID(DWORD dwGroupID) { m_dwGroupID = dwGroupID;}

  00010	8b 45 fc	 mov	 eax, DWORD PTR _this$[ebp]
  00013	83 60 08 00	 and	 DWORD PTR [eax+8], 0
; File C:\Program Files (x86)\Microsoft Visual Studio\2019\Community\VC\Tools\MSVC\14.28.29333\include\xstring

; 389  :         return _CSTD strlen(reinterpret_cast<const char*>(_First));

  00017	68 00 00 00 00	 push	 OFFSET ??_C@_08LHFKFEHI@?$MA?L?$LI?$KH?$LO?x?$MA?$LN@
  0001c	e8 00 00 00 00	 call	 _strlen
  00021	59		 pop	 ecx
  00022	89 45 f8	 mov	 DWORD PTR $T6[ebp], eax
; File C:\Program Files (x86)\Microsoft Visual Studio\2019\Community\VC\Tools\MSVC\14.28.29333\include\xmemory

; 997  :     return _Len;

  00025	8b 45 f8	 mov	 eax, DWORD PTR $T6[ebp]
  00028	89 45 f4	 mov	 DWORD PTR $T5[ebp], eax
; File C:\Program Files (x86)\Microsoft Visual Studio\2019\Community\VC\Tools\MSVC\14.28.29333\include\xstring

; 3062 :         return assign(_Ptr, _Convert_size<size_type>(_Traits::length(_Ptr)));

  0002b	ff 75 f4	 push	 DWORD PTR $T5[ebp]
  0002e	68 00 00 00 00	 push	 OFFSET ??_C@_08LHFKFEHI@?$MA?L?$LI?$KH?$LO?x?$MA?$LN@
; File D:\Metin2 Server Files\mainline\SRC_2014\Metin2Client\GameLib\MonsterAreaInfo.cpp

; 129  : 	m_strGroupName.assign("");

  00033	8b 4d fc	 mov	 ecx, DWORD PTR _this$[ebp]
  00036	83 c1 0c	 add	 ecx, 12			; 0000000cH
; File C:\Program Files (x86)\Microsoft Visual Studio\2019\Community\VC\Tools\MSVC\14.28.29333\include\xstring

; 3062 :         return assign(_Ptr, _Convert_size<size_type>(_Traits::length(_Ptr)));

  00039	e8 00 00 00 00	 call	 ?assign@?$basic_string@DU?$char_traits@D@std@@V?$allocator@D@2@@std@@QAEAAV12@QBDI@Z ; std::basic_string<char,std::char_traits<char>,std::allocator<char> >::assign

; 389  :         return _CSTD strlen(reinterpret_cast<const char*>(_First));

  0003e	68 00 00 00 00	 push	 OFFSET ??_C@_08LHFKFEHI@?$MA?L?$LI?$KH?$LO?x?$MA?$LN@
  00043	e8 00 00 00 00	 call	 _strlen
  00048	59		 pop	 ecx
  00049	89 45 f0	 mov	 DWORD PTR $T4[ebp], eax
; File C:\Program Files (x86)\Microsoft Visual Studio\2019\Community\VC\Tools\MSVC\14.28.29333\include\xmemory

; 997  :     return _Len;

  0004c	8b 45 f0	 mov	 eax, DWORD PTR $T4[ebp]
  0004f	89 45 ec	 mov	 DWORD PTR $T3[ebp], eax
; File C:\Program Files (x86)\Microsoft Visual Studio\2019\Community\VC\Tools\MSVC\14.28.29333\include\xstring

; 3062 :         return assign(_Ptr, _Convert_size<size_type>(_Traits::length(_Ptr)));

  00052	ff 75 ec	 push	 DWORD PTR $T3[ebp]
  00055	68 00 00 00 00	 push	 OFFSET ??_C@_08LHFKFEHI@?$MA?L?$LI?$KH?$LO?x?$MA?$LN@
; File D:\Metin2 Server Files\mainline\SRC_2014\Metin2Client\GameLib\MonsterAreaInfo.cpp

; 130  : 	m_strLeaderName.assign("");

  0005a	8b 4d fc	 mov	 ecx, DWORD PTR _this$[ebp]
  0005d	83 c1 24	 add	 ecx, 36			; 00000024H
; File C:\Program Files (x86)\Microsoft Visual Studio\2019\Community\VC\Tools\MSVC\14.28.29333\include\xstring

; 3062 :         return assign(_Ptr, _Convert_size<size_type>(_Traits::length(_Ptr)));

  00060	e8 00 00 00 00	 call	 ?assign@?$basic_string@DU?$char_traits@D@std@@V?$allocator@D@2@@std@@QAEAAV12@QBDI@Z ; std::basic_string<char,std::char_traits<char>,std::allocator<char> >::assign
; File D:\Metin2 Server Files\mainline\SRC_2014\Metin2Client\GameLib\MonsterAreaInfo.h

; 62   : 	void			SetMonsterGroupFollowerCount(DWORD dwFollowerCount) { m_dwFollowerCount = dwFollowerCount; }

  00065	8b 45 fc	 mov	 eax, DWORD PTR _this$[ebp]
  00068	83 60 3c 00	 and	 DWORD PTR [eax+60], 0

; 71   : 	void			SetMonsterVID(DWORD dwVID) { m_dwVID = dwVID; }

  0006c	8b 45 fc	 mov	 eax, DWORD PTR _this$[ebp]
  0006f	83 60 40 00	 and	 DWORD PTR [eax+64], 0
; File C:\Program Files (x86)\Microsoft Visual Studio\2019\Community\VC\Tools\MSVC\14.28.29333\include\xstring

; 389  :         return _CSTD strlen(reinterpret_cast<const char*>(_First));

  00073	68 00 00 00 00	 push	 OFFSET ??_C@_08LHFKFEHI@?$MA?L?$LI?$KH?$LO?x?$MA?$LN@
  00078	e8 00 00 00 00	 call	 _strlen
  0007d	59		 pop	 ecx
  0007e	89 45 e8	 mov	 DWORD PTR $T2[ebp], eax
; File C:\Program Files (x86)\Microsoft Visual Studio\2019\Community\VC\Tools\MSVC\14.28.29333\include\xmemory

; 997  :     return _Len;

  00081	8b 45 e8	 mov	 eax, DWORD PTR $T2[ebp]
  00084	89 45 e4	 mov	 DWORD PTR $T1[ebp], eax
; File C:\Program Files (x86)\Microsoft Visual Studio\2019\Community\VC\Tools\MSVC\14.28.29333\include\xstring

; 3062 :         return assign(_Ptr, _Convert_size<size_type>(_Traits::length(_Ptr)));

  00087	ff 75 e4	 push	 DWORD PTR $T1[ebp]
  0008a	68 00 00 00 00	 push	 OFFSET ??_C@_08LHFKFEHI@?$MA?L?$LI?$KH?$LO?x?$MA?$LN@
; File D:\Metin2 Server Files\mainline\SRC_2014\Metin2Client\GameLib\MonsterAreaInfo.cpp

; 134  : 	m_strMonsterName.assign("");

  0008f	8b 4d fc	 mov	 ecx, DWORD PTR _this$[ebp]
  00092	83 c1 44	 add	 ecx, 68			; 00000044H
; File C:\Program Files (x86)\Microsoft Visual Studio\2019\Community\VC\Tools\MSVC\14.28.29333\include\xstring

; 3062 :         return assign(_Ptr, _Convert_size<size_type>(_Traits::length(_Ptr)));

  00095	e8 00 00 00 00	 call	 ?assign@?$basic_string@DU?$char_traits@D@std@@V?$allocator@D@2@@std@@QAEAAV12@QBDI@Z ; std::basic_string<char,std::char_traits<char>,std::allocator<char> >::assign
; File D:\Metin2 Server Files\mainline\SRC_2014\Metin2Client\GameLib\MonsterAreaInfo.cpp

; 136  : 	SetMonsterCount(0);

  0009a	6a 00		 push	 0
  0009c	8b 4d fc	 mov	 ecx, DWORD PTR _this$[ebp]
  0009f	e8 00 00 00 00	 call	 ?SetMonsterCount@CMonsterAreaInfo@@QAEXK@Z ; CMonsterAreaInfo::SetMonsterCount

; 137  : 	SetMonsterDirection(DIR_NORTH);

  000a4	6a 01		 push	 1
  000a6	8b 4d fc	 mov	 ecx, DWORD PTR _this$[ebp]
  000a9	e8 00 00 00 00	 call	 ?SetMonsterDirection@CMonsterAreaInfo@@QAEXW4EMonsterDir@1@@Z ; CMonsterAreaInfo::SetMonsterDirection

; 138  : 
; 139  : 	m_TempMonsterPosVector.clear();

  000ae	8b 4d fc	 mov	 ecx, DWORD PTR _this$[ebp]
  000b1	81 c1 90 00 00
	00		 add	 ecx, 144		; 00000090H
  000b7	e8 00 00 00 00	 call	 ?clear@?$vector@UD3DXVECTOR2@@V?$allocator@UD3DXVECTOR2@@@std@@@std@@QAEXXZ ; std::vector<D3DXVECTOR2,std::allocator<D3DXVECTOR2> >::clear

; 140  : }

  000bc	c9		 leave
  000bd	c3		 ret	 0
?RemoveAllMonsters@CMonsterAreaInfo@@QAEXXZ ENDP	; CMonsterAreaInfo::RemoveAllMonsters
_TEXT	ENDS
; Function compile flags: /Odspy
; File D:\Metin2 Server Files\mainline\SRC_2014\Metin2Client\GameLib\MonsterAreaInfo.cpp
; File D:\Metin2 Server Files\mainline\SRC_2014\M2Data\include\d3dx8math.inl
; File D:\Metin2 Server Files\mainline\SRC_2014\Metin2Client\GameLib\MonsterAreaInfo.cpp
;	COMDAT ?SetMonsterDirection@CMonsterAreaInfo@@QAEXW4EMonsterDir@1@@Z
_TEXT	SEGMENT
tv71 = -92						; size = 4
_this$ = -88						; size = 4
_fDegree$ = -84						; size = 4
_matRotation$ = -80					; size = 64
_v3Direction$ = -16					; size = 12
__$ArrayPad$ = -4					; size = 4
_eMonsterDir$ = 8					; size = 4
?SetMonsterDirection@CMonsterAreaInfo@@QAEXW4EMonsterDir@1@@Z PROC ; CMonsterAreaInfo::SetMonsterDirection, COMDAT
; _this$ = ecx

; 81   : {

  00000	55		 push	 ebp
  00001	8b ec		 mov	 ebp, esp
  00003	83 ec 5c	 sub	 esp, 92			; 0000005cH
  00006	a1 00 00 00 00	 mov	 eax, DWORD PTR ___security_cookie
  0000b	33 c5		 xor	 eax, ebp
  0000d	89 45 fc	 mov	 DWORD PTR __$ArrayPad$[ebp], eax
  00010	89 4d a8	 mov	 DWORD PTR _this$[ebp], ecx

; 82   : 	m_eMonsterDir = eMonsterDir;

  00013	8b 45 a8	 mov	 eax, DWORD PTR _this$[ebp]
  00016	8b 4d 08	 mov	 ecx, DWORD PTR _eMonsterDir$[ebp]
  00019	89 48 60	 mov	 DWORD PTR [eax+96], ecx
; File D:\Metin2 Server Files\mainline\SRC_2014\M2Data\include\d3dx8math.inl

; 180  :     x = fx;

  0001c	0f 57 c0	 xorps	 xmm0, xmm0
  0001f	f3 0f 11 45 f0	 movss	 DWORD PTR _v3Direction$[ebp], xmm0

; 181  :     y = fy;

  00024	f3 0f 10 05 00
	00 00 00	 movss	 xmm0, DWORD PTR __real@3f800000
  0002c	f3 0f 11 45 f4	 movss	 DWORD PTR _v3Direction$[ebp+4], xmm0

; 182  :     z = fz;

  00031	0f 57 c0	 xorps	 xmm0, xmm0
  00034	f3 0f 11 45 f8	 movss	 DWORD PTR _v3Direction$[ebp+8], xmm0
; File D:\Metin2 Server Files\mainline\SRC_2014\Metin2Client\GameLib\MonsterAreaInfo.cpp

; 85   : 	float fDegree = 0.0f;

  00039	0f 57 c0	 xorps	 xmm0, xmm0
  0003c	f3 0f 11 45 ac	 movss	 DWORD PTR _fDegree$[ebp], xmm0

; 86   : 	switch(m_eMonsterDir)

  00041	8b 45 a8	 mov	 eax, DWORD PTR _this$[ebp]
  00044	8b 40 60	 mov	 eax, DWORD PTR [eax+96]
  00047	89 45 a4	 mov	 DWORD PTR tv71[ebp], eax
  0004a	83 7d a4 08	 cmp	 DWORD PTR tv71[ebp], 8
  0004e	0f 87 99 00 00
	00		 ja	 $LN2@SetMonster
  00054	8b 45 a4	 mov	 eax, DWORD PTR tv71[ebp]
  00057	ff 24 85 00 00
	00 00		 jmp	 DWORD PTR $LN18@SetMonster[eax*4]
$LN4@SetMonster:

; 87   : 	{
; 88   : 	case DIR_RANDOM:
; 89   : 		fDegree = (float) random_range(0, 7) * 45.0f;

  0005e	6a 07		 push	 7
  00060	6a 00		 push	 0
  00062	e8 00 00 00 00	 call	 ?random_range@@YAJJJ@Z	; random_range
  00067	59		 pop	 ecx
  00068	59		 pop	 ecx
  00069	f3 0f 2a c0	 cvtsi2ss xmm0, eax
  0006d	f3 0f 59 05 00
	00 00 00	 mulss	 xmm0, DWORD PTR __real@42340000
  00075	f3 0f 11 45 ac	 movss	 DWORD PTR _fDegree$[ebp], xmm0

; 90   : 		break;

  0007a	eb 71		 jmp	 SHORT $LN2@SetMonster
$LN5@SetMonster:

; 91   : 	case DIR_NORTH:
; 92   : 		fDegree = 0.0f;

  0007c	0f 57 c0	 xorps	 xmm0, xmm0
  0007f	f3 0f 11 45 ac	 movss	 DWORD PTR _fDegree$[ebp], xmm0

; 93   : 		break;

  00084	eb 67		 jmp	 SHORT $LN2@SetMonster
$LN6@SetMonster:

; 94   : 	case DIR_NORTHEAST:
; 95   : 		fDegree = 45.0f;

  00086	f3 0f 10 05 00
	00 00 00	 movss	 xmm0, DWORD PTR __real@42340000
  0008e	f3 0f 11 45 ac	 movss	 DWORD PTR _fDegree$[ebp], xmm0

; 96   : 		break;

  00093	eb 58		 jmp	 SHORT $LN2@SetMonster
$LN7@SetMonster:

; 97   : 	case DIR_EAST:
; 98   : 		fDegree = 90.0f;

  00095	f3 0f 10 05 00
	00 00 00	 movss	 xmm0, DWORD PTR __real@42b40000
  0009d	f3 0f 11 45 ac	 movss	 DWORD PTR _fDegree$[ebp], xmm0

; 99   : 		break;

  000a2	eb 49		 jmp	 SHORT $LN2@SetMonster
$LN8@SetMonster:

; 100  : 	case DIR_SOUTHEAST:
; 101  : 		fDegree = 135.0f;

  000a4	f3 0f 10 05 00
	00 00 00	 movss	 xmm0, DWORD PTR __real@43070000
  000ac	f3 0f 11 45 ac	 movss	 DWORD PTR _fDegree$[ebp], xmm0

; 102  : 		break;

  000b1	eb 3a		 jmp	 SHORT $LN2@SetMonster
$LN9@SetMonster:

; 103  : 	case DIR_SOUTH:
; 104  : 		fDegree = 180.0f;

  000b3	f3 0f 10 05 00
	00 00 00	 movss	 xmm0, DWORD PTR __real@43340000
  000bb	f3 0f 11 45 ac	 movss	 DWORD PTR _fDegree$[ebp], xmm0

; 105  : 		break;

  000c0	eb 2b		 jmp	 SHORT $LN2@SetMonster
$LN10@SetMonster:

; 106  : 	case DIR_SOUTHWEST:
; 107  : 		fDegree = 225.0f;

  000c2	f3 0f 10 05 00
	00 00 00	 movss	 xmm0, DWORD PTR __real@43610000
  000ca	f3 0f 11 45 ac	 movss	 DWORD PTR _fDegree$[ebp], xmm0

; 108  : 		break;

  000cf	eb 1c		 jmp	 SHORT $LN2@SetMonster
$LN11@SetMonster:

; 109  : 	case DIR_WEST:
; 110  : 		fDegree = 270.0f;

  000d1	f3 0f 10 05 00
	00 00 00	 movss	 xmm0, DWORD PTR __real@43870000
  000d9	f3 0f 11 45 ac	 movss	 DWORD PTR _fDegree$[ebp], xmm0

; 111  : 		break;

  000de	eb 0d		 jmp	 SHORT $LN2@SetMonster
$LN12@SetMonster:

; 112  : 	case DIR_NORTHWEST:
; 113  : 		fDegree = 315.0f;

  000e0	f3 0f 10 05 00
	00 00 00	 movss	 xmm0, DWORD PTR __real@439d8000
  000e8	f3 0f 11 45 ac	 movss	 DWORD PTR _fDegree$[ebp], xmm0
$LN2@SetMonster:

; 114  : 		break;
; 115  : 	}
; 116  : 	D3DXMatrixRotationZ(&matRotation, -D3DXToRadian(fDegree));

  000ed	f3 0f 10 45 ac	 movss	 xmm0, DWORD PTR _fDegree$[ebp]
  000f2	f3 0f 59 05 00
	00 00 00	 mulss	 xmm0, DWORD PTR __real@3c8efa35
  000fa	0f 57 05 00 00
	00 00		 xorps	 xmm0, DWORD PTR __xmm@80000000800000008000000080000000
  00101	51		 push	 ecx
  00102	f3 0f 11 04 24	 movss	 DWORD PTR [esp], xmm0
  00107	8d 45 b0	 lea	 eax, DWORD PTR _matRotation$[ebp]
  0010a	50		 push	 eax
  0010b	e8 00 00 00 00	 call	 _D3DXMatrixRotationZ@8

; 117  : 	D3DXVec3TransformCoord(&v3Direction, &v3Direction, &matRotation);

  00110	8d 45 b0	 lea	 eax, DWORD PTR _matRotation$[ebp]
  00113	50		 push	 eax
  00114	8d 45 f0	 lea	 eax, DWORD PTR _v3Direction$[ebp]
  00117	50		 push	 eax
  00118	8d 45 f0	 lea	 eax, DWORD PTR _v3Direction$[ebp]
  0011b	50		 push	 eax
  0011c	e8 00 00 00 00	 call	 _D3DXVec3TransformCoord@12

; 118  : 	m_v2Monsterdirection.x = v3Direction.x;

  00121	8b 45 a8	 mov	 eax, DWORD PTR _this$[ebp]
  00124	f3 0f 10 45 f0	 movss	 xmm0, DWORD PTR _v3Direction$[ebp]
  00129	f3 0f 11 40 64	 movss	 DWORD PTR [eax+100], xmm0

; 119  : 	m_v2Monsterdirection.y = v3Direction.y;

  0012e	8b 45 a8	 mov	 eax, DWORD PTR _this$[ebp]
  00131	f3 0f 10 45 f4	 movss	 xmm0, DWORD PTR _v3Direction$[ebp+4]
  00136	f3 0f 11 40 68	 movss	 DWORD PTR [eax+104], xmm0

; 120  : 	D3DXVec2Normalize(&m_v2Monsterdirection, &m_v2Monsterdirection);

  0013b	8b 45 a8	 mov	 eax, DWORD PTR _this$[ebp]
  0013e	83 c0 64	 add	 eax, 100		; 00000064H
  00141	50		 push	 eax
  00142	8b 45 a8	 mov	 eax, DWORD PTR _this$[ebp]
  00145	83 c0 64	 add	 eax, 100		; 00000064H
  00148	50		 push	 eax
  00149	e8 00 00 00 00	 call	 _D3DXVec2Normalize@8

; 121  : }

  0014e	8b 4d fc	 mov	 ecx, DWORD PTR __$ArrayPad$[ebp]
  00151	33 cd		 xor	 ecx, ebp
  00153	e8 00 00 00 00	 call	 @__security_check_cookie@4
  00158	c9		 leave
  00159	c2 04 00	 ret	 4
$LN18@SetMonster:
  0015c	00 00 00 00	 DD	 $LN4@SetMonster
  00160	00 00 00 00	 DD	 $LN5@SetMonster
  00164	00 00 00 00	 DD	 $LN6@SetMonster
  00168	00 00 00 00	 DD	 $LN7@SetMonster
  0016c	00 00 00 00	 DD	 $LN8@SetMonster
  00170	00 00 00 00	 DD	 $LN9@SetMonster
  00174	00 00 00 00	 DD	 $LN10@SetMonster
  00178	00 00 00 00	 DD	 $LN11@SetMonster
  0017c	00 00 00 00	 DD	 $LN12@SetMonster
?SetMonsterDirection@CMonsterAreaInfo@@QAEXW4EMonsterDir@1@@Z ENDP ; CMonsterAreaInfo::SetMonsterDirection
_TEXT	ENDS
; Function compile flags: /Odspy
; File D:\Metin2 Server Files\mainline\SRC_2014\Metin2Client\GameLib\MonsterAreaInfo.cpp
; File C:\Program Files (x86)\Microsoft Visual Studio\2019\Community\VC\Tools\MSVC\14.28.29333\include\vector
; File D:\Metin2 Server Files\mainline\SRC_2014\Metin2Client\GameLib\MonsterAreaInfo.cpp
; File C:\Program Files (x86)\Microsoft Visual Studio\2019\Community\VC\Tools\MSVC\14.28.29333\include\vector
; File D:\Metin2 Server Files\mainline\SRC_2014\Metin2Client\GameLib\MonsterAreaInfo.cpp
; File C:\Program Files (x86)\Microsoft Visual Studio\2019\Community\VC\Tools\MSVC\14.28.29333\include\vector
; File D:\Metin2 Server Files\mainline\SRC_2014\Metin2Client\GameLib\MonsterAreaInfo.cpp
; File C:\Program Files (x86)\Microsoft Visual Studio\2019\Community\VC\Tools\MSVC\14.28.29333\include\vector
; File D:\Metin2 Server Files\mainline\SRC_2014\Metin2Client\GameLib\MonsterAreaInfo.cpp
; File C:\Program Files (x86)\Microsoft Visual Studio\2019\Community\VC\Tools\MSVC\14.28.29333\include\vector
; File D:\Metin2 Server Files\mainline\SRC_2014\Metin2Client\GameLib\MonsterAreaInfo.cpp
;	COMDAT ?SetMonsterCount@CMonsterAreaInfo@@QAEXK@Z
_TEXT	SEGMENT
$T1 = -36						; size = 4
__My_data$2 = -32					; size = 4
$T3 = -28						; size = 4
__My_data$4 = -24					; size = 4
$T5 = -20						; size = 4
__My_data$6 = -16					; size = 4
_dwI$7 = -12						; size = 4
_this$ = -8						; size = 4
$T8 = -1						; size = 1
_dwCount$ = 8						; size = 4
?SetMonsterCount@CMonsterAreaInfo@@QAEXK@Z PROC		; CMonsterAreaInfo::SetMonsterCount, COMDAT
; _this$ = ecx

; 64   : {

  00000	55		 push	 ebp
  00001	8b ec		 mov	 ebp, esp
  00003	83 ec 24	 sub	 esp, 36			; 00000024H
  00006	89 4d f8	 mov	 DWORD PTR _this$[ebp], ecx

; 65   : 	m_dwMonsterCount = dwCount;

  00009	8b 45 f8	 mov	 eax, DWORD PTR _this$[ebp]
  0000c	8b 4d 08	 mov	 ecx, DWORD PTR _dwCount$[ebp]
  0000f	89 48 5c	 mov	 DWORD PTR [eax+92], ecx
; File C:\Program Files (x86)\Microsoft Visual Studio\2019\Community\VC\Tools\MSVC\14.28.29333\include\vector

; 1483 :         auto& _My_data = _Mypair._Myval2;

  00012	8b 45 f8	 mov	 eax, DWORD PTR _this$[ebp]
  00015	05 90 00 00 00	 add	 eax, 144		; 00000090H
  0001a	89 45 f0	 mov	 DWORD PTR __My_data$6[ebp], eax

; 1484 :         return static_cast<size_type>(_My_data._Mylast - _My_data._Myfirst);

  0001d	8b 45 f0	 mov	 eax, DWORD PTR __My_data$6[ebp]
  00020	8b 4d f0	 mov	 ecx, DWORD PTR __My_data$6[ebp]
  00023	8b 40 04	 mov	 eax, DWORD PTR [eax+4]
  00026	2b 01		 sub	 eax, DWORD PTR [ecx]
  00028	c1 f8 03	 sar	 eax, 3
  0002b	89 45 ec	 mov	 DWORD PTR $T5[ebp], eax
; File D:\Metin2 Server Files\mainline\SRC_2014\Metin2Client\GameLib\MonsterAreaInfo.cpp

; 67   : 	if (m_TempMonsterPosVector.size() == dwCount)

  0002e	8b 45 ec	 mov	 eax, DWORD PTR $T5[ebp]
  00031	3b 45 08	 cmp	 eax, DWORD PTR _dwCount$[ebp]
  00034	75 05		 jne	 SHORT $LN5@SetMonster

; 68   : 		return;

  00036	e9 bc 00 00 00	 jmp	 $LN1@SetMonster
$LN5@SetMonster:

; 69   : 
; 70   : 	m_TempMonsterPosVector.clear();

  0003b	8b 4d f8	 mov	 ecx, DWORD PTR _this$[ebp]
  0003e	81 c1 90 00 00
	00		 add	 ecx, 144		; 00000090H
  00044	e8 00 00 00 00	 call	 ?clear@?$vector@UD3DXVECTOR2@@V?$allocator@UD3DXVECTOR2@@@std@@@std@@QAEXXZ ; std::vector<D3DXVECTOR2,std::allocator<D3DXVECTOR2> >::clear
; File C:\Program Files (x86)\Microsoft Visual Studio\2019\Community\VC\Tools\MSVC\14.28.29333\include\vector

; 1242 :         _Resize(_Newsize, _Value_init_tag{});

  00049	8d 45 ff	 lea	 eax, DWORD PTR $T8[ebp]
  0004c	50		 push	 eax
  0004d	ff 75 08	 push	 DWORD PTR _dwCount$[ebp]
; File D:\Metin2 Server Files\mainline\SRC_2014\Metin2Client\GameLib\MonsterAreaInfo.cpp

; 71   : 	m_TempMonsterPosVector.resize(dwCount);

  00050	8b 4d f8	 mov	 ecx, DWORD PTR _this$[ebp]
  00053	81 c1 90 00 00
	00		 add	 ecx, 144		; 00000090H
; File C:\Program Files (x86)\Microsoft Visual Studio\2019\Community\VC\Tools\MSVC\14.28.29333\include\vector

; 1242 :         _Resize(_Newsize, _Value_init_tag{});

  00059	e8 00 00 00 00	 call	 ??$_Resize@U_Value_init_tag@std@@@?$vector@UD3DXVECTOR2@@V?$allocator@UD3DXVECTOR2@@@std@@@std@@AAEXIABU_Value_init_tag@1@@Z ; std::vector<D3DXVECTOR2,std::allocator<D3DXVECTOR2> >::_Resize<std::_Value_init_tag>
; File D:\Metin2 Server Files\mainline\SRC_2014\Metin2Client\GameLib\MonsterAreaInfo.cpp

; 73   : 	for (DWORD dwI = 0; dwI < dwCount; ++dwI)

  0005e	83 65 f4 00	 and	 DWORD PTR _dwI$7[ebp], 0
  00062	eb 07		 jmp	 SHORT $LN4@SetMonster
$LN2@SetMonster:
  00064	8b 45 f4	 mov	 eax, DWORD PTR _dwI$7[ebp]
  00067	40		 inc	 eax
  00068	89 45 f4	 mov	 DWORD PTR _dwI$7[ebp], eax
$LN4@SetMonster:
  0006b	8b 45 f4	 mov	 eax, DWORD PTR _dwI$7[ebp]
  0006e	3b 45 08	 cmp	 eax, DWORD PTR _dwCount$[ebp]
  00071	0f 83 80 00 00
	00		 jae	 $LN3@SetMonster
; File C:\Program Files (x86)\Microsoft Visual Studio\2019\Community\VC\Tools\MSVC\14.28.29333\include\vector

; 1498 :         auto& _My_data = _Mypair._Myval2;

  00077	8b 45 f8	 mov	 eax, DWORD PTR _this$[ebp]
  0007a	05 90 00 00 00	 add	 eax, 144		; 00000090H
  0007f	89 45 e8	 mov	 DWORD PTR __My_data$4[ebp], eax

; 1499 : #if _CONTAINER_DEBUG_LEVEL > 0
; 1500 :         _STL_VERIFY(
; 1501 :             _Pos < static_cast<size_type>(_My_data._Mylast - _My_data._Myfirst), "vector subscript out of range");
; 1502 : #endif // _CONTAINER_DEBUG_LEVEL > 0
; 1503 : 
; 1504 :         return _My_data._Myfirst[_Pos];

  00082	8b 45 e8	 mov	 eax, DWORD PTR __My_data$4[ebp]
  00085	8b 00		 mov	 eax, DWORD PTR [eax]
  00087	8b 4d f4	 mov	 ecx, DWORD PTR _dwI$7[ebp]
  0008a	8d 04 c8	 lea	 eax, DWORD PTR [eax+ecx*8]
  0008d	89 45 e4	 mov	 DWORD PTR $T3[ebp], eax
; File D:\Metin2 Server Files\mainline\SRC_2014\Metin2Client\GameLib\MonsterAreaInfo.cpp

; 75   : 		m_TempMonsterPosVector[dwI].x = (float)random_range(m_lLeft, m_lRight);

  00090	8b 45 f8	 mov	 eax, DWORD PTR _this$[ebp]
  00093	ff b0 84 00 00
	00		 push	 DWORD PTR [eax+132]
  00099	8b 45 f8	 mov	 eax, DWORD PTR _this$[ebp]
  0009c	ff b0 80 00 00
	00		 push	 DWORD PTR [eax+128]
  000a2	e8 00 00 00 00	 call	 ?random_range@@YAJJJ@Z	; random_range
  000a7	59		 pop	 ecx
  000a8	59		 pop	 ecx
  000a9	f3 0f 2a c0	 cvtsi2ss xmm0, eax
  000ad	8b 45 e4	 mov	 eax, DWORD PTR $T3[ebp]
  000b0	f3 0f 11 00	 movss	 DWORD PTR [eax], xmm0
; File C:\Program Files (x86)\Microsoft Visual Studio\2019\Community\VC\Tools\MSVC\14.28.29333\include\vector

; 1498 :         auto& _My_data = _Mypair._Myval2;

  000b4	8b 45 f8	 mov	 eax, DWORD PTR _this$[ebp]
  000b7	05 90 00 00 00	 add	 eax, 144		; 00000090H
  000bc	89 45 e0	 mov	 DWORD PTR __My_data$2[ebp], eax

; 1499 : #if _CONTAINER_DEBUG_LEVEL > 0
; 1500 :         _STL_VERIFY(
; 1501 :             _Pos < static_cast<size_type>(_My_data._Mylast - _My_data._Myfirst), "vector subscript out of range");
; 1502 : #endif // _CONTAINER_DEBUG_LEVEL > 0
; 1503 : 
; 1504 :         return _My_data._Myfirst[_Pos];

  000bf	8b 45 e0	 mov	 eax, DWORD PTR __My_data$2[ebp]
  000c2	8b 00		 mov	 eax, DWORD PTR [eax]
  000c4	8b 4d f4	 mov	 ecx, DWORD PTR _dwI$7[ebp]
  000c7	8d 04 c8	 lea	 eax, DWORD PTR [eax+ecx*8]
  000ca	89 45 dc	 mov	 DWORD PTR $T1[ebp], eax
; File D:\Metin2 Server Files\mainline\SRC_2014\Metin2Client\GameLib\MonsterAreaInfo.cpp

; 76   : 		m_TempMonsterPosVector[dwI].y = (float)random_range(m_lTop, m_lBottom);

  000cd	8b 45 f8	 mov	 eax, DWORD PTR _this$[ebp]
  000d0	ff b0 8c 00 00
	00		 push	 DWORD PTR [eax+140]
  000d6	8b 45 f8	 mov	 eax, DWORD PTR _this$[ebp]
  000d9	ff b0 88 00 00
	00		 push	 DWORD PTR [eax+136]
  000df	e8 00 00 00 00	 call	 ?random_range@@YAJJJ@Z	; random_range
  000e4	59		 pop	 ecx
  000e5	59		 pop	 ecx
  000e6	f3 0f 2a c0	 cvtsi2ss xmm0, eax
  000ea	8b 45 dc	 mov	 eax, DWORD PTR $T1[ebp]
  000ed	f3 0f 11 40 04	 movss	 DWORD PTR [eax+4], xmm0

; 77   : 	}

  000f2	e9 6d ff ff ff	 jmp	 $LN2@SetMonster
$LN3@SetMonster:
$LN1@SetMonster:

; 78   : }

  000f7	c9		 leave
  000f8	c2 04 00	 ret	 4
?SetMonsterCount@CMonsterAreaInfo@@QAEXK@Z ENDP		; CMonsterAreaInfo::SetMonsterCount
_TEXT	ENDS
; Function compile flags: /Odspy
; File D:\Metin2 Server Files\mainline\SRC_2014\Metin2Client\GameLib\MonsterAreaInfo.cpp
;	COMDAT ?GetSize@CMonsterAreaInfo@@QAEXPAJ0@Z
_TEXT	SEGMENT
_this$ = -4						; size = 4
_plSizeX$ = 8						; size = 4
_plSizeY$ = 12						; size = 4
?GetSize@CMonsterAreaInfo@@QAEXPAJ0@Z PROC		; CMonsterAreaInfo::GetSize, COMDAT
; _this$ = ecx

; 50   : {

  00000	55		 push	 ebp
  00001	8b ec		 mov	 ebp, esp
  00003	51		 push	 ecx
  00004	89 4d fc	 mov	 DWORD PTR _this$[ebp], ecx

; 51   : 	*plSizeX = m_lSizeX;

  00007	8b 45 08	 mov	 eax, DWORD PTR _plSizeX$[ebp]
  0000a	8b 4d fc	 mov	 ecx, DWORD PTR _this$[ebp]
  0000d	8b 49 78	 mov	 ecx, DWORD PTR [ecx+120]
  00010	89 08		 mov	 DWORD PTR [eax], ecx

; 52   : 	*plSizeY = m_lSizeY;

  00012	8b 45 0c	 mov	 eax, DWORD PTR _plSizeY$[ebp]
  00015	8b 4d fc	 mov	 ecx, DWORD PTR _this$[ebp]
  00018	8b 49 7c	 mov	 ecx, DWORD PTR [ecx+124]
  0001b	89 08		 mov	 DWORD PTR [eax], ecx

; 53   : }

  0001d	c9		 leave
  0001e	c2 08 00	 ret	 8
?GetSize@CMonsterAreaInfo@@QAEXPAJ0@Z ENDP		; CMonsterAreaInfo::GetSize
_TEXT	ENDS
; Function compile flags: /Odspy
; File D:\Metin2 Server Files\mainline\SRC_2014\Metin2Client\GameLib\MonsterAreaInfo.cpp
;	COMDAT ?SetSize@CMonsterAreaInfo@@QAEXJJ@Z
_TEXT	SEGMENT
_this$ = -4						; size = 4
_lSizeX$ = 8						; size = 4
_lSizeY$ = 12						; size = 4
?SetSize@CMonsterAreaInfo@@QAEXJJ@Z PROC		; CMonsterAreaInfo::SetSize, COMDAT
; _this$ = ecx

; 37   : {

  00000	55		 push	 ebp
  00001	8b ec		 mov	 ebp, esp
  00003	51		 push	 ecx
  00004	89 4d fc	 mov	 DWORD PTR _this$[ebp], ecx

; 38   : 	m_lSizeX = lSizeX;

  00007	8b 45 fc	 mov	 eax, DWORD PTR _this$[ebp]
  0000a	8b 4d 08	 mov	 ecx, DWORD PTR _lSizeX$[ebp]
  0000d	89 48 78	 mov	 DWORD PTR [eax+120], ecx

; 39   : 	m_lSizeY = lSizeY;

  00010	8b 45 fc	 mov	 eax, DWORD PTR _this$[ebp]
  00013	8b 4d 0c	 mov	 ecx, DWORD PTR _lSizeY$[ebp]
  00016	89 48 7c	 mov	 DWORD PTR [eax+124], ecx

; 40   : 	SetLRTB();

  00019	8b 4d fc	 mov	 ecx, DWORD PTR _this$[ebp]
  0001c	e8 00 00 00 00	 call	 ?SetLRTB@CMonsterAreaInfo@@IAEXXZ ; CMonsterAreaInfo::SetLRTB

; 41   : }

  00021	c9		 leave
  00022	c2 08 00	 ret	 8
?SetSize@CMonsterAreaInfo@@QAEXJJ@Z ENDP		; CMonsterAreaInfo::SetSize
_TEXT	ENDS
; Function compile flags: /Odspy
; File D:\Metin2 Server Files\mainline\SRC_2014\Metin2Client\GameLib\MonsterAreaInfo.cpp
;	COMDAT ?GetOrigin@CMonsterAreaInfo@@QAEXPAJ0@Z
_TEXT	SEGMENT
_this$ = -4						; size = 4
_plOriginX$ = 8						; size = 4
_plOriginY$ = 12					; size = 4
?GetOrigin@CMonsterAreaInfo@@QAEXPAJ0@Z PROC		; CMonsterAreaInfo::GetOrigin, COMDAT
; _this$ = ecx

; 44   : {

  00000	55		 push	 ebp
  00001	8b ec		 mov	 ebp, esp
  00003	51		 push	 ecx
  00004	89 4d fc	 mov	 DWORD PTR _this$[ebp], ecx

; 45   : 	*plOriginX = m_lOriginX;

  00007	8b 45 08	 mov	 eax, DWORD PTR _plOriginX$[ebp]
  0000a	8b 4d fc	 mov	 ecx, DWORD PTR _this$[ebp]
  0000d	8b 49 70	 mov	 ecx, DWORD PTR [ecx+112]
  00010	89 08		 mov	 DWORD PTR [eax], ecx

; 46   : 	*plOriginY = m_lOriginY;

  00012	8b 45 0c	 mov	 eax, DWORD PTR _plOriginY$[ebp]
  00015	8b 4d fc	 mov	 ecx, DWORD PTR _this$[ebp]
  00018	8b 49 74	 mov	 ecx, DWORD PTR [ecx+116]
  0001b	89 08		 mov	 DWORD PTR [eax], ecx

; 47   : }

  0001d	c9		 leave
  0001e	c2 08 00	 ret	 8
?GetOrigin@CMonsterAreaInfo@@QAEXPAJ0@Z ENDP		; CMonsterAreaInfo::GetOrigin
_TEXT	ENDS
; Function compile flags: /Odspy
; File D:\Metin2 Server Files\mainline\SRC_2014\Metin2Client\GameLib\MonsterAreaInfo.cpp
;	COMDAT ?SetOrigin@CMonsterAreaInfo@@QAEXJJ@Z
_TEXT	SEGMENT
_this$ = -4						; size = 4
_lOriginX$ = 8						; size = 4
_lOriginY$ = 12						; size = 4
?SetOrigin@CMonsterAreaInfo@@QAEXJJ@Z PROC		; CMonsterAreaInfo::SetOrigin, COMDAT
; _this$ = ecx

; 30   : {

  00000	55		 push	 ebp
  00001	8b ec		 mov	 ebp, esp
  00003	51		 push	 ecx
  00004	89 4d fc	 mov	 DWORD PTR _this$[ebp], ecx

; 31   : 	m_lOriginX = lOriginX;

  00007	8b 45 fc	 mov	 eax, DWORD PTR _this$[ebp]
  0000a	8b 4d 08	 mov	 ecx, DWORD PTR _lOriginX$[ebp]
  0000d	89 48 70	 mov	 DWORD PTR [eax+112], ecx

; 32   : 	m_lOriginY = lOriginY;

  00010	8b 45 fc	 mov	 eax, DWORD PTR _this$[ebp]
  00013	8b 4d 0c	 mov	 ecx, DWORD PTR _lOriginY$[ebp]
  00016	89 48 74	 mov	 DWORD PTR [eax+116], ecx

; 33   : 	SetLRTB();

  00019	8b 4d fc	 mov	 ecx, DWORD PTR _this$[ebp]
  0001c	e8 00 00 00 00	 call	 ?SetLRTB@CMonsterAreaInfo@@IAEXXZ ; CMonsterAreaInfo::SetLRTB

; 34   : }

  00021	c9		 leave
  00022	c2 08 00	 ret	 8
?SetOrigin@CMonsterAreaInfo@@QAEXJJ@Z ENDP		; CMonsterAreaInfo::SetOrigin
_TEXT	ENDS
; Function compile flags: /Odspy
; File D:\Metin2 Server Files\mainline\SRC_2014\Metin2Client\GameLib\MonsterAreaInfo.cpp
;	COMDAT ?Clear@CMonsterAreaInfo@@QAEXXZ
_TEXT	SEGMENT
_this$ = -4						; size = 4
?Clear@CMonsterAreaInfo@@QAEXXZ PROC			; CMonsterAreaInfo::Clear, COMDAT
; _this$ = ecx

; 23   : {

  00000	55		 push	 ebp
  00001	8b ec		 mov	 ebp, esp
  00003	51		 push	 ecx
  00004	89 4d fc	 mov	 DWORD PTR _this$[ebp], ecx

; 24   : 	SetOrigin(-1, -1);

  00007	6a ff		 push	 -1
  00009	6a ff		 push	 -1
  0000b	8b 4d fc	 mov	 ecx, DWORD PTR _this$[ebp]
  0000e	e8 00 00 00 00	 call	 ?SetOrigin@CMonsterAreaInfo@@QAEXJJ@Z ; CMonsterAreaInfo::SetOrigin

; 25   : 	SetSize(-1, -1);

  00013	6a ff		 push	 -1
  00015	6a ff		 push	 -1
  00017	8b 4d fc	 mov	 ecx, DWORD PTR _this$[ebp]
  0001a	e8 00 00 00 00	 call	 ?SetSize@CMonsterAreaInfo@@QAEXJJ@Z ; CMonsterAreaInfo::SetSize

; 26   : 	RemoveAllMonsters();

  0001f	8b 4d fc	 mov	 ecx, DWORD PTR _this$[ebp]
  00022	e8 00 00 00 00	 call	 ?RemoveAllMonsters@CMonsterAreaInfo@@QAEXXZ ; CMonsterAreaInfo::RemoveAllMonsters

; 27   : }

  00027	c9		 leave
  00028	c3		 ret	 0
?Clear@CMonsterAreaInfo@@QAEXXZ ENDP			; CMonsterAreaInfo::Clear
_TEXT	ENDS
; Function compile flags: /Odspy
; File D:\Metin2 Server Files\mainline\SRC_2014\Metin2Client\GameLib\MonsterAreaInfo.cpp
; File C:\Program Files (x86)\Microsoft Visual Studio\2019\Community\VC\Tools\MSVC\14.28.29333\include\vector
; File D:\Metin2 Server Files\mainline\SRC_2014\Metin2Client\GameLib\MonsterAreaInfo.cpp
; File C:\Program Files (x86)\Microsoft Visual Studio\2019\Community\VC\Tools\MSVC\14.28.29333\include\xstring
; File D:\Metin2 Server Files\mainline\SRC_2014\Metin2Client\GameLib\MonsterAreaInfo.cpp
; File C:\Program Files (x86)\Microsoft Visual Studio\2019\Community\VC\Tools\MSVC\14.28.29333\include\xstring
; File D:\Metin2 Server Files\mainline\SRC_2014\Metin2Client\GameLib\MonsterAreaInfo.cpp
; File C:\Program Files (x86)\Microsoft Visual Studio\2019\Community\VC\Tools\MSVC\14.28.29333\include\xstring
; File D:\Metin2 Server Files\mainline\SRC_2014\Metin2Client\GameLib\MonsterAreaInfo.cpp
;	COMDAT ??1CMonsterAreaInfo@@UAE@XZ
_TEXT	SEGMENT
_this$ = -16						; size = 4
__$EHRec$ = -12						; size = 12
??1CMonsterAreaInfo@@UAE@XZ PROC			; CMonsterAreaInfo::~CMonsterAreaInfo, COMDAT
; _this$ = ecx

; 18   : {

  00000	55		 push	 ebp
  00001	8b ec		 mov	 ebp, esp
  00003	6a ff		 push	 -1
  00005	68 00 00 00 00	 push	 __ehhandler$??1CMonsterAreaInfo@@UAE@XZ
  0000a	64 a1 00 00 00
	00		 mov	 eax, DWORD PTR fs:0
  00010	50		 push	 eax
  00011	51		 push	 ecx
  00012	a1 00 00 00 00	 mov	 eax, DWORD PTR ___security_cookie
  00017	33 c5		 xor	 eax, ebp
  00019	50		 push	 eax
  0001a	8d 45 f4	 lea	 eax, DWORD PTR __$EHRec$[ebp]
  0001d	64 a3 00 00 00
	00		 mov	 DWORD PTR fs:0, eax
  00023	89 4d f0	 mov	 DWORD PTR _this$[ebp], ecx
  00026	8b 45 f0	 mov	 eax, DWORD PTR _this$[ebp]
  00029	c7 00 00 00 00
	00		 mov	 DWORD PTR [eax], OFFSET ??_7CMonsterAreaInfo@@6B@

; 19   : 	Clear();

  0002f	8b 4d f0	 mov	 ecx, DWORD PTR _this$[ebp]
  00032	e8 00 00 00 00	 call	 ?Clear@CMonsterAreaInfo@@QAEXXZ ; CMonsterAreaInfo::Clear

; 20   : }

  00037	8b 4d f0	 mov	 ecx, DWORD PTR _this$[ebp]
  0003a	81 c1 90 00 00
	00		 add	 ecx, 144		; 00000090H
; File C:\Program Files (x86)\Microsoft Visual Studio\2019\Community\VC\Tools\MSVC\14.28.29333\include\vector

; 673  :         _Tidy();

  00040	e8 00 00 00 00	 call	 ?_Tidy@?$vector@UD3DXVECTOR2@@V?$allocator@UD3DXVECTOR2@@@std@@@std@@AAEXXZ ; std::vector<D3DXVECTOR2,std::allocator<D3DXVECTOR2> >::_Tidy
; File D:\Metin2 Server Files\mainline\SRC_2014\Metin2Client\GameLib\MonsterAreaInfo.cpp

; 20   : }

  00045	8b 4d f0	 mov	 ecx, DWORD PTR _this$[ebp]
  00048	83 c1 44	 add	 ecx, 68			; 00000044H
; File C:\Program Files (x86)\Microsoft Visual Studio\2019\Community\VC\Tools\MSVC\14.28.29333\include\xstring

; 2801 :         _Tidy_deallocate();

  0004b	e8 00 00 00 00	 call	 ?_Tidy_deallocate@?$basic_string@DU?$char_traits@D@std@@V?$allocator@D@2@@std@@AAEXXZ ; std::basic_string<char,std::char_traits<char>,std::allocator<char> >::_Tidy_deallocate
; File D:\Metin2 Server Files\mainline\SRC_2014\Metin2Client\GameLib\MonsterAreaInfo.cpp

; 20   : }

  00050	8b 4d f0	 mov	 ecx, DWORD PTR _this$[ebp]
  00053	83 c1 24	 add	 ecx, 36			; 00000024H
; File C:\Program Files (x86)\Microsoft Visual Studio\2019\Community\VC\Tools\MSVC\14.28.29333\include\xstring

; 2801 :         _Tidy_deallocate();

  00056	e8 00 00 00 00	 call	 ?_Tidy_deallocate@?$basic_string@DU?$char_traits@D@std@@V?$allocator@D@2@@std@@AAEXXZ ; std::basic_string<char,std::char_traits<char>,std::allocator<char> >::_Tidy_deallocate
; File D:\Metin2 Server Files\mainline\SRC_2014\Metin2Client\GameLib\MonsterAreaInfo.cpp

; 20   : }

  0005b	8b 4d f0	 mov	 ecx, DWORD PTR _this$[ebp]
  0005e	83 c1 0c	 add	 ecx, 12			; 0000000cH
; File C:\Program Files (x86)\Microsoft Visual Studio\2019\Community\VC\Tools\MSVC\14.28.29333\include\xstring

; 2801 :         _Tidy_deallocate();

  00061	e8 00 00 00 00	 call	 ?_Tidy_deallocate@?$basic_string@DU?$char_traits@D@std@@V?$allocator@D@2@@std@@AAEXXZ ; std::basic_string<char,std::char_traits<char>,std::allocator<char> >::_Tidy_deallocate
; File D:\Metin2 Server Files\mainline\SRC_2014\Metin2Client\GameLib\MonsterAreaInfo.cpp

; 20   : }

  00066	8b 4d f4	 mov	 ecx, DWORD PTR __$EHRec$[ebp]
  00069	64 89 0d 00 00
	00 00		 mov	 DWORD PTR fs:0, ecx
  00070	59		 pop	 ecx
  00071	c9		 leave
  00072	c3		 ret	 0
  00073	cc		 int	 3
  00074	cc		 int	 3
  00075	cc		 int	 3
  00076	cc		 int	 3
  00077	cc		 int	 3
_TEXT	ENDS
;	COMDAT text$x
text$x	SEGMENT
__ehhandler$??1CMonsterAreaInfo@@UAE@XZ:
  00000	90		 npad	 1
  00001	90		 npad	 1
  00002	8b 54 24 08	 mov	 edx, DWORD PTR [esp+8]
  00006	8d 42 0c	 lea	 eax, DWORD PTR [edx+12]
  00009	8b 4a f8	 mov	 ecx, DWORD PTR [edx-8]
  0000c	33 c8		 xor	 ecx, eax
  0000e	e8 00 00 00 00	 call	 @__security_check_cookie@4
  00013	b8 00 00 00 00	 mov	 eax, OFFSET __ehfuncinfo$??1CMonsterAreaInfo@@UAE@XZ
  00018	e9 00 00 00 00	 jmp	 ___CxxFrameHandler3
text$x	ENDS
??1CMonsterAreaInfo@@UAE@XZ ENDP			; CMonsterAreaInfo::~CMonsterAreaInfo
; Function compile flags: /Odspy
; File D:\Metin2 Server Files\mainline\SRC_2014\Metin2Client\GameLib\MonsterAreaInfo.cpp
; File C:\Program Files (x86)\Microsoft Visual Studio\2019\Community\VC\Tools\MSVC\14.28.29333\include\xstring
; File C:\Program Files (x86)\Microsoft Visual Studio\2019\Community\VC\Tools\MSVC\14.28.29333\include\xmemory
; File C:\Program Files (x86)\Microsoft Visual Studio\2019\Community\VC\Tools\MSVC\14.28.29333\include\xstring
; File D:\Metin2 Server Files\mainline\SRC_2014\Metin2Client\GameLib\MonsterAreaInfo.cpp
; File C:\Program Files (x86)\Microsoft Visual Studio\2019\Community\VC\Tools\MSVC\14.28.29333\include\xstring
; File C:\Program Files (x86)\Microsoft Visual Studio\2019\Community\VC\Tools\MSVC\14.28.29333\include\xmemory
; File C:\Program Files (x86)\Microsoft Visual Studio\2019\Community\VC\Tools\MSVC\14.28.29333\include\xstring
; File D:\Metin2 Server Files\mainline\SRC_2014\Metin2Client\GameLib\MonsterAreaInfo.cpp
; File C:\Program Files (x86)\Microsoft Visual Studio\2019\Community\VC\Tools\MSVC\14.28.29333\include\xstring
; File C:\Program Files (x86)\Microsoft Visual Studio\2019\Community\VC\Tools\MSVC\14.28.29333\include\xmemory
; File C:\Program Files (x86)\Microsoft Visual Studio\2019\Community\VC\Tools\MSVC\14.28.29333\include\xstring
; File D:\Metin2 Server Files\mainline\SRC_2014\Metin2Client\GameLib\MonsterAreaInfo.cpp
; File C:\Program Files (x86)\Microsoft Visual Studio\2019\Community\VC\Tools\MSVC\14.28.29333\include\vector
; File C:\Program Files (x86)\Microsoft Visual Studio\2019\Community\VC\Tools\MSVC\14.28.29333\include\xmemory
; File C:\Program Files (x86)\Microsoft Visual Studio\2019\Community\VC\Tools\MSVC\14.28.29333\include\vector
; File D:\Metin2 Server Files\mainline\SRC_2014\Metin2Client\GameLib\MonsterAreaInfo.cpp
;	COMDAT ??0CMonsterAreaInfo@@QAE@XZ
_TEXT	SEGMENT
_this$ = -52						; size = 4
_this$ = -48						; size = 4
_this$ = -44						; size = 4
_this$ = -40						; size = 4
_this$ = -36						; size = 4
_this$ = -32						; size = 4
_this$ = -28						; size = 4
_this$ = -24						; size = 4
_this$2 = -20						; size = 4
_this$ = -16						; size = 4
__$EHRec$ = -12						; size = 12
??0CMonsterAreaInfo@@QAE@XZ PROC			; CMonsterAreaInfo::CMonsterAreaInfo, COMDAT
; _this$ = ecx

; 13   : {

  00000	55		 push	 ebp
  00001	8b ec		 mov	 ebp, esp
  00003	6a ff		 push	 -1
  00005	68 00 00 00 00	 push	 __ehhandler$??0CMonsterAreaInfo@@QAE@XZ
  0000a	64 a1 00 00 00
	00		 mov	 eax, DWORD PTR fs:0
  00010	50		 push	 eax
  00011	83 ec 28	 sub	 esp, 40			; 00000028H
  00014	a1 00 00 00 00	 mov	 eax, DWORD PTR ___security_cookie
  00019	33 c5		 xor	 eax, ebp
  0001b	50		 push	 eax
  0001c	8d 45 f4	 lea	 eax, DWORD PTR __$EHRec$[ebp]
  0001f	64 a3 00 00 00
	00		 mov	 DWORD PTR fs:0, eax
  00025	89 4d f0	 mov	 DWORD PTR _this$[ebp], ecx
  00028	8b 45 f0	 mov	 eax, DWORD PTR _this$[ebp]
  0002b	c7 00 00 00 00
	00		 mov	 DWORD PTR [eax], OFFSET ??_7CMonsterAreaInfo@@6B@
  00031	8b 45 f0	 mov	 eax, DWORD PTR _this$[ebp]
  00034	83 c0 0c	 add	 eax, 12			; 0000000cH
  00037	89 45 e8	 mov	 DWORD PTR _this$[ebp], eax
; File C:\Program Files (x86)\Microsoft Visual Studio\2019\Community\VC\Tools\MSVC\14.28.29333\include\xstring

; 2365 :     basic_string() noexcept(is_nothrow_default_constructible_v<_Alty>) : _Mypair(_Zero_then_variadic_args_t{}) {

  0003a	8b 45 e8	 mov	 eax, DWORD PTR _this$[ebp]
  0003d	89 45 dc	 mov	 DWORD PTR _this$[ebp], eax
; File C:\Program Files (x86)\Microsoft Visual Studio\2019\Community\VC\Tools\MSVC\14.28.29333\include\xmemory

; 1339 :         : _Ty1(), _Myval2(_STD forward<_Other2>(_Val2)...) {}

  00040	8b 4d dc	 mov	 ecx, DWORD PTR _this$[ebp]
  00043	e8 00 00 00 00	 call	 ??0?$_String_val@U?$_Simple_types@D@std@@@std@@QAE@XZ ; std::_String_val<std::_Simple_types<char> >::_String_val<std::_Simple_types<char> >
; File C:\Program Files (x86)\Microsoft Visual Studio\2019\Community\VC\Tools\MSVC\14.28.29333\include\xstring

; 2367 :         _Tidy_init();

  00048	8b 4d e8	 mov	 ecx, DWORD PTR _this$[ebp]
  0004b	e8 00 00 00 00	 call	 ?_Tidy_init@?$basic_string@DU?$char_traits@D@std@@V?$allocator@D@2@@std@@AAEXXZ ; std::basic_string<char,std::char_traits<char>,std::allocator<char> >::_Tidy_init
; File D:\Metin2 Server Files\mainline\SRC_2014\Metin2Client\GameLib\MonsterAreaInfo.cpp

; 13   : {

  00050	83 65 fc 00	 and	 DWORD PTR __$EHRec$[ebp+8], 0
  00054	8b 45 f0	 mov	 eax, DWORD PTR _this$[ebp]
  00057	83 c0 24	 add	 eax, 36			; 00000024H
  0005a	89 45 e4	 mov	 DWORD PTR _this$[ebp], eax
; File C:\Program Files (x86)\Microsoft Visual Studio\2019\Community\VC\Tools\MSVC\14.28.29333\include\xstring

; 2365 :     basic_string() noexcept(is_nothrow_default_constructible_v<_Alty>) : _Mypair(_Zero_then_variadic_args_t{}) {

  0005d	8b 45 e4	 mov	 eax, DWORD PTR _this$[ebp]
  00060	89 45 d8	 mov	 DWORD PTR _this$[ebp], eax
; File C:\Program Files (x86)\Microsoft Visual Studio\2019\Community\VC\Tools\MSVC\14.28.29333\include\xmemory

; 1339 :         : _Ty1(), _Myval2(_STD forward<_Other2>(_Val2)...) {}

  00063	8b 4d d8	 mov	 ecx, DWORD PTR _this$[ebp]
  00066	e8 00 00 00 00	 call	 ??0?$_String_val@U?$_Simple_types@D@std@@@std@@QAE@XZ ; std::_String_val<std::_Simple_types<char> >::_String_val<std::_Simple_types<char> >
; File C:\Program Files (x86)\Microsoft Visual Studio\2019\Community\VC\Tools\MSVC\14.28.29333\include\xstring

; 2367 :         _Tidy_init();

  0006b	8b 4d e4	 mov	 ecx, DWORD PTR _this$[ebp]
  0006e	e8 00 00 00 00	 call	 ?_Tidy_init@?$basic_string@DU?$char_traits@D@std@@V?$allocator@D@2@@std@@AAEXXZ ; std::basic_string<char,std::char_traits<char>,std::allocator<char> >::_Tidy_init
; File D:\Metin2 Server Files\mainline\SRC_2014\Metin2Client\GameLib\MonsterAreaInfo.cpp

; 13   : {

  00073	c6 45 fc 01	 mov	 BYTE PTR __$EHRec$[ebp+8], 1
  00077	8b 45 f0	 mov	 eax, DWORD PTR _this$[ebp]
  0007a	83 c0 44	 add	 eax, 68			; 00000044H
  0007d	89 45 e0	 mov	 DWORD PTR _this$[ebp], eax
; File C:\Program Files (x86)\Microsoft Visual Studio\2019\Community\VC\Tools\MSVC\14.28.29333\include\xstring

; 2365 :     basic_string() noexcept(is_nothrow_default_constructible_v<_Alty>) : _Mypair(_Zero_then_variadic_args_t{}) {

  00080	8b 45 e0	 mov	 eax, DWORD PTR _this$[ebp]
  00083	89 45 d4	 mov	 DWORD PTR _this$[ebp], eax
; File C:\Program Files (x86)\Microsoft Visual Studio\2019\Community\VC\Tools\MSVC\14.28.29333\include\xmemory

; 1339 :         : _Ty1(), _Myval2(_STD forward<_Other2>(_Val2)...) {}

  00086	8b 4d d4	 mov	 ecx, DWORD PTR _this$[ebp]
  00089	e8 00 00 00 00	 call	 ??0?$_String_val@U?$_Simple_types@D@std@@@std@@QAE@XZ ; std::_String_val<std::_Simple_types<char> >::_String_val<std::_Simple_types<char> >
; File C:\Program Files (x86)\Microsoft Visual Studio\2019\Community\VC\Tools\MSVC\14.28.29333\include\xstring

; 2367 :         _Tidy_init();

  0008e	8b 4d e0	 mov	 ecx, DWORD PTR _this$[ebp]
  00091	e8 00 00 00 00	 call	 ?_Tidy_init@?$basic_string@DU?$char_traits@D@std@@V?$allocator@D@2@@std@@AAEXXZ ; std::basic_string<char,std::char_traits<char>,std::allocator<char> >::_Tidy_init
; File D:\Metin2 Server Files\mainline\SRC_2014\Metin2Client\GameLib\MonsterAreaInfo.cpp

; 13   : {

  00096	c6 45 fc 02	 mov	 BYTE PTR __$EHRec$[ebp+8], 2
  0009a	8b 45 f0	 mov	 eax, DWORD PTR _this$[ebp]
  0009d	05 90 00 00 00	 add	 eax, 144		; 00000090H
  000a2	89 45 d0	 mov	 DWORD PTR _this$[ebp], eax
; File C:\Program Files (x86)\Microsoft Visual Studio\2019\Community\VC\Tools\MSVC\14.28.29333\include\vector

; 445  :     vector() noexcept(is_nothrow_default_constructible_v<_Alty>) : _Mypair(_Zero_then_variadic_args_t{}) {

  000a5	8b 45 d0	 mov	 eax, DWORD PTR _this$[ebp]
  000a8	89 45 cc	 mov	 DWORD PTR _this$[ebp], eax
; File C:\Program Files (x86)\Microsoft Visual Studio\2019\Community\VC\Tools\MSVC\14.28.29333\include\xmemory

; 1339 :         : _Ty1(), _Myval2(_STD forward<_Other2>(_Val2)...) {}

  000ab	8b 45 cc	 mov	 eax, DWORD PTR _this$[ebp]
  000ae	89 45 ec	 mov	 DWORD PTR _this$2[ebp], eax
; File C:\Program Files (x86)\Microsoft Visual Studio\2019\Community\VC\Tools\MSVC\14.28.29333\include\vector

; 375  :     _Vector_val() noexcept : _Myfirst(), _Mylast(), _Myend() {}

  000b1	8b 45 ec	 mov	 eax, DWORD PTR _this$2[ebp]
  000b4	83 20 00	 and	 DWORD PTR [eax], 0
  000b7	8b 45 ec	 mov	 eax, DWORD PTR _this$2[ebp]
  000ba	83 60 04 00	 and	 DWORD PTR [eax+4], 0
  000be	8b 45 ec	 mov	 eax, DWORD PTR _this$2[ebp]
  000c1	83 60 08 00	 and	 DWORD PTR [eax+8], 0
; File D:\Metin2 Server Files\mainline\SRC_2014\Metin2Client\GameLib\MonsterAreaInfo.cpp

; 13   : {

  000c5	c6 45 fc 03	 mov	 BYTE PTR __$EHRec$[ebp+8], 3

; 14   : 	Clear();

  000c9	8b 4d f0	 mov	 ecx, DWORD PTR _this$[ebp]
  000cc	e8 00 00 00 00	 call	 ?Clear@CMonsterAreaInfo@@QAEXXZ ; CMonsterAreaInfo::Clear

; 15   : }

  000d1	83 4d fc ff	 or	 DWORD PTR __$EHRec$[ebp+8], -1
  000d5	8b 45 f0	 mov	 eax, DWORD PTR _this$[ebp]
  000d8	8b 4d f4	 mov	 ecx, DWORD PTR __$EHRec$[ebp]
  000db	64 89 0d 00 00
	00 00		 mov	 DWORD PTR fs:0, ecx
  000e2	59		 pop	 ecx
  000e3	c9		 leave
  000e4	c3		 ret	 0
_TEXT	ENDS
;	COMDAT text$x
text$x	SEGMENT
__unwindfunclet$??0CMonsterAreaInfo@@QAE@XZ$0:
  00000	8b 4d f0	 mov	 ecx, DWORD PTR _this$[ebp]
  00003	83 c1 0c	 add	 ecx, 12			; 0000000cH
  00006	e9 00 00 00 00	 jmp	 ??1?$basic_string@DU?$char_traits@D@std@@V?$allocator@D@2@@std@@QAE@XZ ; std::basic_string<char,std::char_traits<char>,std::allocator<char> >::~basic_string<char,std::char_traits<char>,std::allocator<char> >
__unwindfunclet$??0CMonsterAreaInfo@@QAE@XZ$1:
  0000b	8b 4d f0	 mov	 ecx, DWORD PTR _this$[ebp]
  0000e	83 c1 24	 add	 ecx, 36			; 00000024H
  00011	e9 00 00 00 00	 jmp	 ??1?$basic_string@DU?$char_traits@D@std@@V?$allocator@D@2@@std@@QAE@XZ ; std::basic_string<char,std::char_traits<char>,std::allocator<char> >::~basic_string<char,std::char_traits<char>,std::allocator<char> >
__unwindfunclet$??0CMonsterAreaInfo@@QAE@XZ$2:
  00016	8b 4d f0	 mov	 ecx, DWORD PTR _this$[ebp]
  00019	83 c1 44	 add	 ecx, 68			; 00000044H
  0001c	e9 00 00 00 00	 jmp	 ??1?$basic_string@DU?$char_traits@D@std@@V?$allocator@D@2@@std@@QAE@XZ ; std::basic_string<char,std::char_traits<char>,std::allocator<char> >::~basic_string<char,std::char_traits<char>,std::allocator<char> >
__unwindfunclet$??0CMonsterAreaInfo@@QAE@XZ$3:
  00021	8b 4d f0	 mov	 ecx, DWORD PTR _this$[ebp]
  00024	81 c1 90 00 00
	00		 add	 ecx, 144		; 00000090H
  0002a	e9 00 00 00 00	 jmp	 ??1?$vector@UD3DXVECTOR2@@V?$allocator@UD3DXVECTOR2@@@std@@@std@@QAE@XZ ; std::vector<D3DXVECTOR2,std::allocator<D3DXVECTOR2> >::~vector<D3DXVECTOR2,std::allocator<D3DXVECTOR2> >
  0002f	cc		 int	 3
  00030	cc		 int	 3
  00031	cc		 int	 3
  00032	cc		 int	 3
  00033	cc		 int	 3
__ehhandler$??0CMonsterAreaInfo@@QAE@XZ:
  00034	90		 npad	 1
  00035	90		 npad	 1
  00036	8b 54 24 08	 mov	 edx, DWORD PTR [esp+8]
  0003a	8d 42 0c	 lea	 eax, DWORD PTR [edx+12]
  0003d	8b 4a d4	 mov	 ecx, DWORD PTR [edx-44]
  00040	33 c8		 xor	 ecx, eax
  00042	e8 00 00 00 00	 call	 @__security_check_cookie@4
  00047	b8 00 00 00 00	 mov	 eax, OFFSET __ehfuncinfo$??0CMonsterAreaInfo@@QAE@XZ
  0004c	e9 00 00 00 00	 jmp	 ___CxxFrameHandler3
text$x	ENDS
??0CMonsterAreaInfo@@QAE@XZ ENDP			; CMonsterAreaInfo::CMonsterAreaInfo
; Function compile flags: /Odspy
; File C:\Program Files (x86)\Microsoft Visual Studio\2019\Community\VC\Tools\MSVC\14.28.29333\include\xmemory
;	COMDAT ??$_Allocate_manually_vector_aligned@U_Default_allocate_traits@std@@@std@@YAPAXI@Z
_TEXT	SEGMENT
__Ptr$ = -12						; size = 4
__Block_size$ = -8					; size = 4
__Ptr_container$ = -4					; size = 4
__Bytes$ = 8						; size = 4
??$_Allocate_manually_vector_aligned@U_Default_allocate_traits@std@@@std@@YAPAXI@Z PROC ; std::_Allocate_manually_vector_aligned<std::_Default_allocate_traits>, COMDAT

; 113  : __declspec(allocator) void* _Allocate_manually_vector_aligned(const size_t _Bytes) {

  00000	55		 push	 ebp
  00001	8b ec		 mov	 ebp, esp
  00003	83 ec 0c	 sub	 esp, 12			; 0000000cH

; 114  :     // allocate _Bytes manually aligned to at least _Big_allocation_alignment
; 115  :     const size_t _Block_size = _Non_user_size + _Bytes;

  00006	8b 45 08	 mov	 eax, DWORD PTR __Bytes$[ebp]
  00009	83 c0 23	 add	 eax, 35			; 00000023H
  0000c	89 45 f8	 mov	 DWORD PTR __Block_size$[ebp], eax

; 116  :     if (_Block_size <= _Bytes) {

  0000f	8b 45 f8	 mov	 eax, DWORD PTR __Block_size$[ebp]
  00012	3b 45 08	 cmp	 eax, DWORD PTR __Bytes$[ebp]
  00015	77 05		 ja	 SHORT $LN12@Allocate_m

; 117  :         _Throw_bad_array_new_length(); // add overflow

  00017	e8 00 00 00 00	 call	 ?_Throw_bad_array_new_length@std@@YAXXZ ; std::_Throw_bad_array_new_length
$LN12@Allocate_m:

; 77   :         return ::operator new(_Bytes);

  0001c	ff 75 f8	 push	 DWORD PTR __Block_size$[ebp]
  0001f	e8 00 00 00 00	 call	 ??2@YAPAXI@Z		; operator new
  00024	59		 pop	 ecx

; 118  :     }
; 119  : 
; 120  :     const uintptr_t _Ptr_container = reinterpret_cast<uintptr_t>(_Traits::_Allocate(_Block_size));

  00025	89 45 fc	 mov	 DWORD PTR __Ptr_container$[ebp], eax
$LN4@Allocate_m:

; 121  :     _STL_VERIFY(_Ptr_container != 0, "invalid argument"); // validate even in release since we're doing p[-1]

  00028	83 7d fc 00	 cmp	 DWORD PTR __Ptr_container$[ebp], 0
  0002c	74 02		 je	 SHORT $LN7@Allocate_m
  0002e	eb 09		 jmp	 SHORT $LN2@Allocate_m
$LN7@Allocate_m:
  00030	e8 00 00 00 00	 call	 __invalid_parameter_noinfo_noreturn
  00035	33 c0		 xor	 eax, eax
  00037	75 f7		 jne	 SHORT $LN7@Allocate_m
$LN2@Allocate_m:
  00039	33 c0		 xor	 eax, eax
  0003b	75 eb		 jne	 SHORT $LN4@Allocate_m

; 122  :     void* const _Ptr = reinterpret_cast<void*>((_Ptr_container + _Non_user_size) & ~(_Big_allocation_alignment - 1));

  0003d	8b 45 fc	 mov	 eax, DWORD PTR __Ptr_container$[ebp]
  00040	83 c0 23	 add	 eax, 35			; 00000023H
  00043	83 e0 e0	 and	 eax, -32		; ffffffe0H
  00046	89 45 f4	 mov	 DWORD PTR __Ptr$[ebp], eax

; 123  :     static_cast<uintptr_t*>(_Ptr)[-1] = _Ptr_container;

  00049	6a 04		 push	 4
  0004b	58		 pop	 eax
  0004c	6b c0 ff	 imul	 eax, eax, -1
  0004f	8b 4d f4	 mov	 ecx, DWORD PTR __Ptr$[ebp]
  00052	8b 55 fc	 mov	 edx, DWORD PTR __Ptr_container$[ebp]
  00055	89 14 01	 mov	 DWORD PTR [ecx+eax], edx

; 124  : 
; 125  : #ifdef _DEBUG
; 126  :     static_cast<uintptr_t*>(_Ptr)[-2] = _Big_allocation_sentinel;
; 127  : #endif // _DEBUG
; 128  :     return _Ptr;

  00058	8b 45 f4	 mov	 eax, DWORD PTR __Ptr$[ebp]
$LN11@Allocate_m:

; 129  : }

  0005b	c9		 leave
  0005c	c3		 ret	 0
??$_Allocate_manually_vector_aligned@U_Default_allocate_traits@std@@@std@@YAPAXI@Z ENDP ; std::_Allocate_manually_vector_aligned<std::_Default_allocate_traits>
_TEXT	ENDS
; Function compile flags: /Odspy
; File C:\Program Files (x86)\Microsoft Visual Studio\2019\Community\VC\Tools\MSVC\14.28.29333\include\xmemory
;	COMDAT ??$_Allocate@$07U_Default_allocate_traits@std@@$0A@@std@@YAPAXI@Z
_TEXT	SEGMENT
__Bytes$ = 8						; size = 4
??$_Allocate@$07U_Default_allocate_traits@std@@$0A@@std@@YAPAXI@Z PROC ; std::_Allocate<8,std::_Default_allocate_traits,0>, COMDAT

; 197  : __declspec(allocator) void* _Allocate(const size_t _Bytes) {

  00000	55		 push	 ebp
  00001	8b ec		 mov	 ebp, esp

; 198  :     // allocate _Bytes when !_HAS_ALIGNED_NEW || _Align <= __STDCPP_DEFAULT_NEW_ALIGNMENT__
; 199  : #if defined(_M_IX86) || defined(_M_X64)
; 200  :     if (_Bytes >= _Big_allocation_threshold) { // boost the alignment of big allocations to help autovectorization

  00003	81 7d 08 00 10
	00 00		 cmp	 DWORD PTR __Bytes$[ebp], 4096 ; 00001000H
  0000a	72 0b		 jb	 SHORT $LN2@Allocate

; 201  :         return _Allocate_manually_vector_aligned<_Traits>(_Bytes);

  0000c	ff 75 08	 push	 DWORD PTR __Bytes$[ebp]
  0000f	e8 00 00 00 00	 call	 ??$_Allocate_manually_vector_aligned@U_Default_allocate_traits@std@@@std@@YAPAXI@Z ; std::_Allocate_manually_vector_aligned<std::_Default_allocate_traits>
  00014	59		 pop	 ecx
  00015	eb 13		 jmp	 SHORT $LN1@Allocate
$LN2@Allocate:

; 202  :     }
; 203  : #endif // defined(_M_IX86) || defined(_M_X64)
; 204  : 
; 205  :     if (_Bytes != 0) {

  00017	83 7d 08 00	 cmp	 DWORD PTR __Bytes$[ebp], 0
  0001b	74 0b		 je	 SHORT $LN3@Allocate

; 77   :         return ::operator new(_Bytes);

  0001d	ff 75 08	 push	 DWORD PTR __Bytes$[ebp]
  00020	e8 00 00 00 00	 call	 ??2@YAPAXI@Z		; operator new
  00025	59		 pop	 ecx

; 206  :         return _Traits::_Allocate(_Bytes);

  00026	eb 02		 jmp	 SHORT $LN1@Allocate
$LN3@Allocate:

; 207  :     }
; 208  : 
; 209  :     return nullptr;

  00028	33 c0		 xor	 eax, eax
$LN1@Allocate:

; 210  : }

  0002a	5d		 pop	 ebp
  0002b	c3		 ret	 0
??$_Allocate@$07U_Default_allocate_traits@std@@$0A@@std@@YAPAXI@Z ENDP ; std::_Allocate<8,std::_Default_allocate_traits,0>
_TEXT	ENDS
; Function compile flags: /Odspy
; File C:\Program Files (x86)\Microsoft Visual Studio\2019\Community\VC\Tools\MSVC\14.28.29333\include\xmemory
;	COMDAT ??$_Deallocate@$07$0A@@std@@YAXPAXI@Z
_TEXT	SEGMENT
__$EHRec$ = -12						; size = 12
__Ptr$ = 8						; size = 4
__Bytes$ = 12						; size = 4
??$_Deallocate@$07$0A@@std@@YAXPAXI@Z PROC		; std::_Deallocate<8,0>, COMDAT

; 213  : void _Deallocate(void* _Ptr, size_t _Bytes) noexcept {

  00000	55		 push	 ebp
  00001	8b ec		 mov	 ebp, esp
  00003	6a ff		 push	 -1
  00005	68 00 00 00 00	 push	 __ehhandler$??$_Deallocate@$07$0A@@std@@YAXPAXI@Z
  0000a	64 a1 00 00 00
	00		 mov	 eax, DWORD PTR fs:0
  00010	50		 push	 eax
  00011	a1 00 00 00 00	 mov	 eax, DWORD PTR ___security_cookie
  00016	33 c5		 xor	 eax, ebp
  00018	50		 push	 eax
  00019	8d 45 f4	 lea	 eax, DWORD PTR __$EHRec$[ebp]
  0001c	64 a3 00 00 00
	00		 mov	 DWORD PTR fs:0, eax

; 214  :     // deallocate storage allocated by _Allocate when !_HAS_ALIGNED_NEW || _Align <= __STDCPP_DEFAULT_NEW_ALIGNMENT__
; 215  : #if defined(_M_IX86) || defined(_M_X64)
; 216  :     if (_Bytes >= _Big_allocation_threshold) { // boost the alignment of big allocations to help autovectorization

  00022	81 7d 0c 00 10
	00 00		 cmp	 DWORD PTR __Bytes$[ebp], 4096 ; 00001000H
  00029	72 0f		 jb	 SHORT $LN2@Deallocate

; 217  :         _Adjust_manually_vector_aligned(_Ptr, _Bytes);

  0002b	8d 45 0c	 lea	 eax, DWORD PTR __Bytes$[ebp]
  0002e	50		 push	 eax
  0002f	8d 45 08	 lea	 eax, DWORD PTR __Ptr$[ebp]
  00032	50		 push	 eax
  00033	e8 00 00 00 00	 call	 ?_Adjust_manually_vector_aligned@std@@YAXAAPAXAAI@Z ; std::_Adjust_manually_vector_aligned
  00038	59		 pop	 ecx
  00039	59		 pop	 ecx
$LN2@Deallocate:

; 218  :     }
; 219  : #endif // defined(_M_IX86) || defined(_M_X64)
; 220  : 
; 221  :     ::operator delete(_Ptr, _Bytes);

  0003a	ff 75 0c	 push	 DWORD PTR __Bytes$[ebp]
  0003d	ff 75 08	 push	 DWORD PTR __Ptr$[ebp]
  00040	e8 00 00 00 00	 call	 ??3@YAXPAXI@Z		; operator delete
  00045	59		 pop	 ecx
  00046	59		 pop	 ecx

; 222  : }

  00047	8b 4d f4	 mov	 ecx, DWORD PTR __$EHRec$[ebp]
  0004a	64 89 0d 00 00
	00 00		 mov	 DWORD PTR fs:0, ecx
  00051	59		 pop	 ecx
  00052	c9		 leave
  00053	c3		 ret	 0
  00054	cc		 int	 3
  00055	cc		 int	 3
  00056	cc		 int	 3
  00057	cc		 int	 3
  00058	cc		 int	 3
_TEXT	ENDS
;	COMDAT text$x
text$x	SEGMENT
__ehhandler$??$_Deallocate@$07$0A@@std@@YAXPAXI@Z:
  00000	90		 npad	 1
  00001	90		 npad	 1
  00002	8b 54 24 08	 mov	 edx, DWORD PTR [esp+8]
  00006	8d 42 0c	 lea	 eax, DWORD PTR [edx+12]
  00009	8b 4a fc	 mov	 ecx, DWORD PTR [edx-4]
  0000c	33 c8		 xor	 ecx, eax
  0000e	e8 00 00 00 00	 call	 @__security_check_cookie@4
  00013	b8 00 00 00 00	 mov	 eax, OFFSET __ehfuncinfo$??$_Deallocate@$07$0A@@std@@YAXPAXI@Z
  00018	e9 00 00 00 00	 jmp	 ___CxxFrameHandler3
text$x	ENDS
??$_Deallocate@$07$0A@@std@@YAXPAXI@Z ENDP		; std::_Deallocate<8,0>
; Function compile flags: /Odspy
; File C:\Program Files (x86)\Microsoft Visual Studio\2019\Community\VC\Tools\MSVC\14.28.29333\include\xmemory
; File C:\Program Files (x86)\Microsoft Visual Studio\2019\Community\VC\Tools\MSVC\14.28.29333\include\xstddef
; File C:\Program Files (x86)\Microsoft Visual Studio\2019\Community\VC\Tools\MSVC\14.28.29333\include\vcruntime_new.h
; File C:\Program Files (x86)\Microsoft Visual Studio\2019\Community\VC\Tools\MSVC\14.28.29333\include\type_traits
; File C:\Program Files (x86)\Microsoft Visual Studio\2019\Community\VC\Tools\MSVC\14.28.29333\include\xmemory
;	COMDAT ??$_Construct_in_place@PADABQAD@std@@YAXAAPADABQAD@Z
_TEXT	SEGMENT
$T1 = -12						; size = 4
$T2 = -8						; size = 4
$T3 = -4						; size = 4
__Obj$ = 8						; size = 4
_<_Args_0>$ = 12					; size = 4
??$_Construct_in_place@PADABQAD@std@@YAXAAPADABQAD@Z PROC ; std::_Construct_in_place<char *,char * const &>, COMDAT

; 228  : void _Construct_in_place(_Ty& _Obj, _Types&&... _Args) noexcept(is_nothrow_constructible_v<_Ty, _Types...>) {

  00000	55		 push	 ebp
  00001	8b ec		 mov	 ebp, esp
  00003	83 ec 0c	 sub	 esp, 12			; 0000000cH
; File C:\Program Files (x86)\Microsoft Visual Studio\2019\Community\VC\Tools\MSVC\14.28.29333\include\xstddef

; 275  :     return __builtin_addressof(_Val);

  00006	8b 45 08	 mov	 eax, DWORD PTR __Obj$[ebp]
  00009	89 45 fc	 mov	 DWORD PTR $T3[ebp], eax
; File C:\Program Files (x86)\Microsoft Visual Studio\2019\Community\VC\Tools\MSVC\14.28.29333\include\vcruntime_new.h

; 169  :         return _Where;

  0000c	8b 45 fc	 mov	 eax, DWORD PTR $T3[ebp]
  0000f	89 45 f8	 mov	 DWORD PTR $T2[ebp], eax
; File C:\Program Files (x86)\Microsoft Visual Studio\2019\Community\VC\Tools\MSVC\14.28.29333\include\type_traits

; 1443 :     return static_cast<_Ty&&>(_Arg);

  00012	8b 45 0c	 mov	 eax, DWORD PTR _<_Args_0>$[ebp]
  00015	89 45 f4	 mov	 DWORD PTR $T1[ebp], eax
; File C:\Program Files (x86)\Microsoft Visual Studio\2019\Community\VC\Tools\MSVC\14.28.29333\include\xmemory

; 229  :     ::new (const_cast<void*>(static_cast<const volatile void*>(_STD addressof(_Obj))))

  00018	8b 45 f8	 mov	 eax, DWORD PTR $T2[ebp]
  0001b	8b 4d f4	 mov	 ecx, DWORD PTR $T1[ebp]
  0001e	8b 09		 mov	 ecx, DWORD PTR [ecx]
  00020	89 08		 mov	 DWORD PTR [eax], ecx

; 230  :         _Ty(_STD forward<_Types>(_Args)...);
; 231  : }

  00022	c9		 leave
  00023	c3		 ret	 0
??$_Construct_in_place@PADABQAD@std@@YAXAAPADABQAD@Z ENDP ; std::_Construct_in_place<char *,char * const &>
_TEXT	ENDS
; Function compile flags: /Odspy
; File C:\Program Files (x86)\Microsoft Visual Studio\2019\Community\VC\Tools\MSVC\14.28.29333\include\xstring
; File C:\Program Files (x86)\Microsoft Visual Studio\2019\Community\VC\Tools\MSVC\14.28.29333\include\xmemory
; File C:\Program Files (x86)\Microsoft Visual Studio\2019\Community\VC\Tools\MSVC\14.28.29333\include\xstring
; File C:\Program Files (x86)\Microsoft Visual Studio\2019\Community\VC\Tools\MSVC\14.28.29333\include\xmemory
; File C:\Program Files (x86)\Microsoft Visual Studio\2019\Community\VC\Tools\MSVC\14.28.29333\include\xstring
; File C:\Program Files (x86)\Microsoft Visual Studio\2019\Community\VC\Tools\MSVC\14.28.29333\include\xmemory
; File C:\Program Files (x86)\Microsoft Visual Studio\2019\Community\VC\Tools\MSVC\14.28.29333\include\xstring
; File C:\Program Files (x86)\Microsoft Visual Studio\2019\Community\VC\Tools\MSVC\14.28.29333\include\xstddef
; File C:\Program Files (x86)\Microsoft Visual Studio\2019\Community\VC\Tools\MSVC\14.28.29333\include\xstring
; File C:\Program Files (x86)\Microsoft Visual Studio\2019\Community\VC\Tools\MSVC\14.28.29333\include\xmemory
; File C:\Program Files (x86)\Microsoft Visual Studio\2019\Community\VC\Tools\MSVC\14.28.29333\include\xstring
;	COMDAT ??$_Reallocate_for@V<lambda_9366063389c5f42a00a5088cf24e69de>@@PBD@?$basic_string@DU?$char_traits@D@std@@V?$allocator@D@2@@std@@AAEAAV01@IV<lambda_9366063389c5f42a00a5088cf24e69de>@@PBD@Z
_TEXT	SEGMENT
__Al$ = -40						; size = 4
__Ptr$ = -36						; size = 4
__Ptr$ = -32						; size = 4
$T1 = -28						; size = 4
__Old_capacity$ = -24					; size = 4
$T2 = -20						; size = 4
__New_capacity$ = -16					; size = 4
__New_ptr$ = -12					; size = 4
_this$ = -8						; size = 4
__Overflow_is_possible$3 = -2				; size = 1
$T4 = -1						; size = 1
__New_size$ = 8						; size = 4
__Fn$ = 12						; size = 1
_<_Args_0>$ = 16					; size = 4
??$_Reallocate_for@V<lambda_9366063389c5f42a00a5088cf24e69de>@@PBD@?$basic_string@DU?$char_traits@D@std@@V?$allocator@D@2@@std@@AAEAAV01@IV<lambda_9366063389c5f42a00a5088cf24e69de>@@PBD@Z PROC ; std::basic_string<char,std::char_traits<char>,std::allocator<char> >::_Reallocate_for<<lambda_9366063389c5f42a00a5088cf24e69de>,char const *>, COMDAT
; _this$ = ecx

; 4302 :     basic_string& _Reallocate_for(const size_type _New_size, _Fty _Fn, _ArgTys... _Args) {

  00000	55		 push	 ebp
  00001	8b ec		 mov	 ebp, esp
  00003	83 ec 28	 sub	 esp, 40			; 00000028H
  00006	89 4d f8	 mov	 DWORD PTR _this$[ebp], ecx

; 4303 :         // reallocate to store exactly _New_size elements, new buffer prepared by
; 4304 :         // _Fn(_New_ptr, _New_size, _Args...)
; 4305 :         if (_New_size > max_size()) {

  00009	8b 4d f8	 mov	 ecx, DWORD PTR _this$[ebp]
  0000c	e8 00 00 00 00	 call	 ?max_size@?$basic_string@DU?$char_traits@D@std@@V?$allocator@D@2@@std@@QBEIXZ ; std::basic_string<char,std::char_traits<char>,std::allocator<char> >::max_size
  00011	39 45 08	 cmp	 DWORD PTR __New_size$[ebp], eax
  00014	76 05		 jbe	 SHORT $LN2@Reallocate

; 4306 :             _Xlen_string(); // result too long

  00016	e8 00 00 00 00	 call	 ?_Xlen_string@std@@YAXXZ ; std::_Xlen_string
$LN2@Reallocate:

; 4307 :         }
; 4308 : 
; 4309 :         const size_type _Old_capacity = _Mypair._Myval2._Myres;

  0001b	8b 45 f8	 mov	 eax, DWORD PTR _this$[ebp]
  0001e	8b 40 14	 mov	 eax, DWORD PTR [eax+20]
  00021	89 45 e8	 mov	 DWORD PTR __Old_capacity$[ebp], eax

; 4310 :         const size_type _New_capacity = _Calculate_growth(_New_size);

  00024	ff 75 08	 push	 DWORD PTR __New_size$[ebp]
  00027	8b 4d f8	 mov	 ecx, DWORD PTR _this$[ebp]
  0002a	e8 00 00 00 00	 call	 ?_Calculate_growth@?$basic_string@DU?$char_traits@D@std@@V?$allocator@D@2@@std@@ABEII@Z ; std::basic_string<char,std::char_traits<char>,std::allocator<char> >::_Calculate_growth
  0002f	89 45 f0	 mov	 DWORD PTR __New_capacity$[ebp], eax

; 4409 :         return _Mypair._Get_first();

  00032	8b 45 f8	 mov	 eax, DWORD PTR _this$[ebp]
; File C:\Program Files (x86)\Microsoft Visual Studio\2019\Community\VC\Tools\MSVC\14.28.29333\include\xmemory

; 1347 :         return *this;

  00035	89 45 e4	 mov	 DWORD PTR $T1[ebp], eax
; File C:\Program Files (x86)\Microsoft Visual Studio\2019\Community\VC\Tools\MSVC\14.28.29333\include\xstring

; 4409 :         return _Mypair._Get_first();

  00038	8b 45 e4	 mov	 eax, DWORD PTR $T1[ebp]
  0003b	89 45 d8	 mov	 DWORD PTR __Al$[ebp], eax
; File C:\Program Files (x86)\Microsoft Visual Studio\2019\Community\VC\Tools\MSVC\14.28.29333\include\xmemory

; 56   :     constexpr bool _Overflow_is_possible = _Ty_size > 1;

  0003e	c6 45 fe 00	 mov	 BYTE PTR __Overflow_is_possible$3[ebp], 0
; File C:\Program Files (x86)\Microsoft Visual Studio\2019\Community\VC\Tools\MSVC\14.28.29333\include\xstring

; 4312 :         const pointer _New_ptr        = _Al.allocate(_New_capacity + 1); // throws

  00042	8b 45 f0	 mov	 eax, DWORD PTR __New_capacity$[ebp]
  00045	40		 inc	 eax
; File C:\Program Files (x86)\Microsoft Visual Studio\2019\Community\VC\Tools\MSVC\14.28.29333\include\xmemory

; 814  :         return static_cast<_Ty*>(_Allocate<_New_alignof<_Ty>>(_Get_size_of_n<sizeof(_Ty)>(_Count)));

  00046	50		 push	 eax
  00047	e8 00 00 00 00	 call	 ??$_Allocate@$07U_Default_allocate_traits@std@@$0A@@std@@YAPAXI@Z ; std::_Allocate<8,std::_Default_allocate_traits,0>
  0004c	59		 pop	 ecx
; File C:\Program Files (x86)\Microsoft Visual Studio\2019\Community\VC\Tools\MSVC\14.28.29333\include\xstring

; 4312 :         const pointer _New_ptr        = _Al.allocate(_New_capacity + 1); // throws

  0004d	89 45 f4	 mov	 DWORD PTR __New_ptr$[ebp], eax

; 4313 :         _Mypair._Myval2._Orphan_all();
; 4314 :         _Mypair._Myval2._Mysize = _New_size;

  00050	8b 45 f8	 mov	 eax, DWORD PTR _this$[ebp]
  00053	8b 4d 08	 mov	 ecx, DWORD PTR __New_size$[ebp]
  00056	89 48 10	 mov	 DWORD PTR [eax+16], ecx

; 4315 :         _Mypair._Myval2._Myres  = _New_capacity;

  00059	8b 45 f8	 mov	 eax, DWORD PTR _this$[ebp]
  0005c	8b 4d f0	 mov	 ecx, DWORD PTR __New_capacity$[ebp]
  0005f	89 48 14	 mov	 DWORD PTR [eax+20], ecx

; 4316 :         _Fn(_Unfancy(_New_ptr), _New_size, _Args...);

  00062	8b 45 f4	 mov	 eax, DWORD PTR __New_ptr$[ebp]
  00065	89 45 e0	 mov	 DWORD PTR __Ptr$[ebp], eax
; File C:\Program Files (x86)\Microsoft Visual Studio\2019\Community\VC\Tools\MSVC\14.28.29333\include\xstddef

; 289  :     return _Ptr;

  00068	8b 45 e0	 mov	 eax, DWORD PTR __Ptr$[ebp]
  0006b	89 45 ec	 mov	 DWORD PTR $T2[ebp], eax
; File C:\Program Files (x86)\Microsoft Visual Studio\2019\Community\VC\Tools\MSVC\14.28.29333\include\xstring

; 62   :         _CSTD memcpy(_First1, _First2, _Count * sizeof(_Elem));

  0006e	ff 75 08	 push	 DWORD PTR __New_size$[ebp]
  00071	ff 75 10	 push	 DWORD PTR _<_Args_0>$[ebp]
  00074	ff 75 ec	 push	 DWORD PTR $T2[ebp]
  00077	e8 00 00 00 00	 call	 _memcpy
  0007c	83 c4 0c	 add	 esp, 12			; 0000000cH

; 3056 :                 _Traits::assign(_New_ptr[_Count], _Elem());

  0007f	c6 45 ff 00	 mov	 BYTE PTR $T4[ebp], 0

; 428  :         _Left = _Right;

  00083	8b 45 ec	 mov	 eax, DWORD PTR $T2[ebp]
  00086	03 45 08	 add	 eax, DWORD PTR __New_size$[ebp]
  00089	8a 4d ff	 mov	 cl, BYTE PTR $T4[ebp]
  0008c	88 08		 mov	 BYTE PTR [eax], cl

; 4317 :         if (_BUF_SIZE <= _Old_capacity) {

  0008e	83 7d e8 10	 cmp	 DWORD PTR __Old_capacity$[ebp], 16 ; 00000010H
  00092	72 21		 jb	 SHORT $LN3@Reallocate

; 4318 :             _Al.deallocate(_Mypair._Myval2._Bx._Ptr, _Old_capacity + 1);

  00094	8b 45 f8	 mov	 eax, DWORD PTR _this$[ebp]
  00097	8b 00		 mov	 eax, DWORD PTR [eax]
  00099	89 45 dc	 mov	 DWORD PTR __Ptr$[ebp], eax
  0009c	8b 45 e8	 mov	 eax, DWORD PTR __Old_capacity$[ebp]
  0009f	40		 inc	 eax
; File C:\Program Files (x86)\Microsoft Visual Studio\2019\Community\VC\Tools\MSVC\14.28.29333\include\xmemory

; 810  :         _Deallocate<_New_alignof<_Ty>>(_Ptr, sizeof(_Ty) * _Count);

  000a0	50		 push	 eax
  000a1	ff 75 dc	 push	 DWORD PTR __Ptr$[ebp]
  000a4	e8 00 00 00 00	 call	 ??$_Deallocate@$07$0A@@std@@YAXPAXI@Z ; std::_Deallocate<8,0>
  000a9	59		 pop	 ecx
  000aa	59		 pop	 ecx
; File C:\Program Files (x86)\Microsoft Visual Studio\2019\Community\VC\Tools\MSVC\14.28.29333\include\xstring

; 4319 :             _Mypair._Myval2._Bx._Ptr = _New_ptr;

  000ab	8b 45 f8	 mov	 eax, DWORD PTR _this$[ebp]
  000ae	8b 4d f4	 mov	 ecx, DWORD PTR __New_ptr$[ebp]
  000b1	89 08		 mov	 DWORD PTR [eax], ecx

; 4320 :         } else {

  000b3	eb 0e		 jmp	 SHORT $LN4@Reallocate
$LN3@Reallocate:

; 4321 :             _Construct_in_place(_Mypair._Myval2._Bx._Ptr, _New_ptr);

  000b5	8d 45 f4	 lea	 eax, DWORD PTR __New_ptr$[ebp]
  000b8	50		 push	 eax
  000b9	ff 75 f8	 push	 DWORD PTR _this$[ebp]
  000bc	e8 00 00 00 00	 call	 ??$_Construct_in_place@PADABQAD@std@@YAXAAPADABQAD@Z ; std::_Construct_in_place<char *,char * const &>
  000c1	59		 pop	 ecx
  000c2	59		 pop	 ecx
$LN4@Reallocate:

; 4322 :         }
; 4323 : 
; 4324 :         return *this;

  000c3	8b 45 f8	 mov	 eax, DWORD PTR _this$[ebp]
$LN5@Reallocate:

; 4325 :     }

  000c6	c9		 leave
  000c7	c2 0c 00	 ret	 12			; 0000000cH
??$_Reallocate_for@V<lambda_9366063389c5f42a00a5088cf24e69de>@@PBD@?$basic_string@DU?$char_traits@D@std@@V?$allocator@D@2@@std@@AAEAAV01@IV<lambda_9366063389c5f42a00a5088cf24e69de>@@PBD@Z ENDP ; std::basic_string<char,std::char_traits<char>,std::allocator<char> >::_Reallocate_for<<lambda_9366063389c5f42a00a5088cf24e69de>,char const *>
_TEXT	ENDS
; Function compile flags: /Odspy
; File C:\Program Files (x86)\Microsoft Visual Studio\2019\Community\VC\Tools\MSVC\14.28.29333\include\xmemory
;	COMDAT ??$_Destroy_in_place@PAD@std@@YAXAAPAD@Z
_TEXT	SEGMENT
__Obj$ = 8						; size = 4
??$_Destroy_in_place@PAD@std@@YAXAAPAD@Z PROC		; std::_Destroy_in_place<char *>, COMDAT

; 270  : /* _CONSTEXPR20_DYNALLOC */ void _Destroy_in_place(_Ty& _Obj) noexcept {

  00000	55		 push	 ebp
  00001	8b ec		 mov	 ebp, esp

; 271  : #if _HAS_IF_CONSTEXPR
; 272  :     if constexpr (is_array_v<_Ty>) {
; 273  :         _Destroy_range(_Obj, _Obj + extent_v<_Ty>);
; 274  :     } else
; 275  : #endif // _HAS_IF_CONSTEXPR
; 276  :     {
; 277  :         _Obj.~_Ty();
; 278  :     }
; 279  : }

  00003	5d		 pop	 ebp
  00004	c3		 ret	 0
??$_Destroy_in_place@PAD@std@@YAXAAPAD@Z ENDP		; std::_Destroy_in_place<char *>
_TEXT	ENDS
; Function compile flags: /Odspy
; File C:\Program Files (x86)\Microsoft Visual Studio\2019\Community\VC\Tools\MSVC\14.28.29333\include\xstring
; File C:\Program Files (x86)\Microsoft Visual Studio\2019\Community\VC\Tools\MSVC\14.28.29333\include\xmemory
; File C:\Program Files (x86)\Microsoft Visual Studio\2019\Community\VC\Tools\MSVC\14.28.29333\include\xstring
; File C:\Program Files (x86)\Microsoft Visual Studio\2019\Community\VC\Tools\MSVC\14.28.29333\include\xmemory
; File C:\Program Files (x86)\Microsoft Visual Studio\2019\Community\VC\Tools\MSVC\14.28.29333\include\xstring
;	COMDAT ?_Tidy_deallocate@?$basic_string@DU?$char_traits@D@std@@V?$allocator@D@2@@std@@AAEXXZ
_TEXT	SEGMENT
__Al$1 = -28						; size = 4
__Ptr$2 = -24						; size = 4
__Count$ = -20						; size = 4
$T3 = -16						; size = 4
tv68 = -12						; size = 4
_this$ = -8						; size = 4
$T4 = -2						; size = 1
$T5 = -1						; size = 1
?_Tidy_deallocate@?$basic_string@DU?$char_traits@D@std@@V?$allocator@D@2@@std@@AAEXXZ PROC ; std::basic_string<char,std::char_traits<char>,std::allocator<char> >::_Tidy_deallocate, COMDAT
; _this$ = ecx

; 4383 :     void _Tidy_deallocate() noexcept { // initialize buffer, deallocating any storage

  00000	55		 push	 ebp
  00001	8b ec		 mov	 ebp, esp
  00003	83 ec 1c	 sub	 esp, 28			; 0000001cH
  00006	89 4d f8	 mov	 DWORD PTR _this$[ebp], ecx

; 2227 :         return _BUF_SIZE <= _Myres;

  00009	8b 45 f8	 mov	 eax, DWORD PTR _this$[ebp]
  0000c	83 78 14 10	 cmp	 DWORD PTR [eax+20], 16	; 00000010H
  00010	72 09		 jb	 SHORT $LN9@Tidy_deall
  00012	c7 45 f4 01 00
	00 00		 mov	 DWORD PTR tv68[ebp], 1
  00019	eb 04		 jmp	 SHORT $LN10@Tidy_deall
$LN9@Tidy_deall:
  0001b	83 65 f4 00	 and	 DWORD PTR tv68[ebp], 0
$LN10@Tidy_deall:
  0001f	8a 45 f4	 mov	 al, BYTE PTR tv68[ebp]
  00022	88 45 ff	 mov	 BYTE PTR $T5[ebp], al

; 4384 :         _Mypair._Myval2._Orphan_all();
; 4385 :         if (_Mypair._Myval2._Large_string_engaged()) {

  00025	0f b6 45 ff	 movzx	 eax, BYTE PTR $T5[ebp]
  00029	85 c0		 test	 eax, eax
  0002b	74 34		 je	 SHORT $LN2@Tidy_deall

; 4386 :             const pointer _Ptr = _Mypair._Myval2._Bx._Ptr;

  0002d	8b 45 f8	 mov	 eax, DWORD PTR _this$[ebp]
  00030	8b 00		 mov	 eax, DWORD PTR [eax]
  00032	89 45 e8	 mov	 DWORD PTR __Ptr$2[ebp], eax

; 4409 :         return _Mypair._Get_first();

  00035	8b 45 f8	 mov	 eax, DWORD PTR _this$[ebp]
; File C:\Program Files (x86)\Microsoft Visual Studio\2019\Community\VC\Tools\MSVC\14.28.29333\include\xmemory

; 1347 :         return *this;

  00038	89 45 f0	 mov	 DWORD PTR $T3[ebp], eax
; File C:\Program Files (x86)\Microsoft Visual Studio\2019\Community\VC\Tools\MSVC\14.28.29333\include\xstring

; 4409 :         return _Mypair._Get_first();

  0003b	8b 45 f0	 mov	 eax, DWORD PTR $T3[ebp]
  0003e	89 45 e4	 mov	 DWORD PTR __Al$1[ebp], eax

; 4387 :             auto& _Al          = _Getal();
; 4388 :             _Destroy_in_place(_Mypair._Myval2._Bx._Ptr);

  00041	ff 75 f8	 push	 DWORD PTR _this$[ebp]
  00044	e8 00 00 00 00	 call	 ??$_Destroy_in_place@PAD@std@@YAXAAPAD@Z ; std::_Destroy_in_place<char *>
  00049	59		 pop	 ecx

; 4389 :             _Al.deallocate(_Ptr, _Mypair._Myval2._Myres + 1);

  0004a	8b 45 f8	 mov	 eax, DWORD PTR _this$[ebp]
  0004d	8b 40 14	 mov	 eax, DWORD PTR [eax+20]
  00050	40		 inc	 eax
  00051	89 45 ec	 mov	 DWORD PTR __Count$[ebp], eax
; File C:\Program Files (x86)\Microsoft Visual Studio\2019\Community\VC\Tools\MSVC\14.28.29333\include\xmemory

; 810  :         _Deallocate<_New_alignof<_Ty>>(_Ptr, sizeof(_Ty) * _Count);

  00054	ff 75 ec	 push	 DWORD PTR __Count$[ebp]
  00057	ff 75 e8	 push	 DWORD PTR __Ptr$2[ebp]
  0005a	e8 00 00 00 00	 call	 ??$_Deallocate@$07$0A@@std@@YAXPAXI@Z ; std::_Deallocate<8,0>
  0005f	59		 pop	 ecx
  00060	59		 pop	 ecx
$LN2@Tidy_deall:
; File C:\Program Files (x86)\Microsoft Visual Studio\2019\Community\VC\Tools\MSVC\14.28.29333\include\xstring

; 4392 :         _Mypair._Myval2._Mysize = 0;

  00061	8b 45 f8	 mov	 eax, DWORD PTR _this$[ebp]
  00064	83 60 10 00	 and	 DWORD PTR [eax+16], 0

; 4393 :         _Mypair._Myval2._Myres  = _BUF_SIZE - 1;

  00068	8b 45 f8	 mov	 eax, DWORD PTR _this$[ebp]
  0006b	c7 40 14 0f 00
	00 00		 mov	 DWORD PTR [eax+20], 15	; 0000000fH

; 4394 :         // the _Traits::assign is last so the codegen doesn't think the char write can alias this
; 4395 :         _Traits::assign(_Mypair._Myval2._Bx._Buf[0], _Elem());

  00072	c6 45 fe 00	 mov	 BYTE PTR $T4[ebp], 0
  00076	33 c0		 xor	 eax, eax
  00078	40		 inc	 eax
  00079	6b c0 00	 imul	 eax, eax, 0

; 428  :         _Left = _Right;

  0007c	8b 4d f8	 mov	 ecx, DWORD PTR _this$[ebp]
  0007f	8a 55 fe	 mov	 dl, BYTE PTR $T4[ebp]
  00082	88 14 01	 mov	 BYTE PTR [ecx+eax], dl

; 4396 :     }

  00085	c9		 leave
  00086	c3		 ret	 0
?_Tidy_deallocate@?$basic_string@DU?$char_traits@D@std@@V?$allocator@D@2@@std@@AAEXXZ ENDP ; std::basic_string<char,std::char_traits<char>,std::allocator<char> >::_Tidy_deallocate
_TEXT	ENDS
; Function compile flags: /Odspy
; File C:\Program Files (x86)\Microsoft Visual Studio\2019\Community\VC\Tools\MSVC\14.28.29333\include\xstring
;	COMDAT ?_Tidy_init@?$basic_string@DU?$char_traits@D@std@@V?$allocator@D@2@@std@@AAEXXZ
_TEXT	SEGMENT
_this$ = -8						; size = 4
$T1 = -1						; size = 1
?_Tidy_init@?$basic_string@DU?$char_traits@D@std@@V?$allocator@D@2@@std@@AAEXXZ PROC ; std::basic_string<char,std::char_traits<char>,std::allocator<char> >::_Tidy_init, COMDAT
; _this$ = ecx

; 4376 :     void _Tidy_init() noexcept { // initialize basic_string data members

  00000	55		 push	 ebp
  00001	8b ec		 mov	 ebp, esp
  00003	51		 push	 ecx
  00004	51		 push	 ecx
  00005	89 4d f8	 mov	 DWORD PTR _this$[ebp], ecx

; 4377 :         _Mypair._Myval2._Mysize = 0;

  00008	8b 45 f8	 mov	 eax, DWORD PTR _this$[ebp]
  0000b	83 60 10 00	 and	 DWORD PTR [eax+16], 0

; 4378 :         _Mypair._Myval2._Myres  = _BUF_SIZE - 1;

  0000f	8b 45 f8	 mov	 eax, DWORD PTR _this$[ebp]
  00012	c7 40 14 0f 00
	00 00		 mov	 DWORD PTR [eax+20], 15	; 0000000fH

; 4379 :         // the _Traits::assign is last so the codegen doesn't think the char write can alias this
; 4380 :         _Traits::assign(_Mypair._Myval2._Bx._Buf[0], _Elem());

  00019	c6 45 ff 00	 mov	 BYTE PTR $T1[ebp], 0
  0001d	33 c0		 xor	 eax, eax
  0001f	40		 inc	 eax
  00020	6b c0 00	 imul	 eax, eax, 0

; 428  :         _Left = _Right;

  00023	8b 4d f8	 mov	 ecx, DWORD PTR _this$[ebp]
  00026	8a 55 ff	 mov	 dl, BYTE PTR $T1[ebp]
  00029	88 14 01	 mov	 BYTE PTR [ecx+eax], dl

; 4381 :     }

  0002c	c9		 leave
  0002d	c3		 ret	 0
?_Tidy_init@?$basic_string@DU?$char_traits@D@std@@V?$allocator@D@2@@std@@AAEXXZ ENDP ; std::basic_string<char,std::char_traits<char>,std::allocator<char> >::_Tidy_init
_TEXT	ENDS
; Function compile flags: /Odspy
; File C:\Program Files (x86)\Microsoft Visual Studio\2019\Community\VC\Tools\MSVC\14.28.29333\include\xstring
; File C:\Program Files (x86)\Microsoft Visual Studio\2019\Community\VC\Tools\MSVC\14.28.29333\include\utility
; File C:\Program Files (x86)\Microsoft Visual Studio\2019\Community\VC\Tools\MSVC\14.28.29333\include\xstring
;	COMDAT ?_Calculate_growth@?$basic_string@DU?$char_traits@D@std@@V?$allocator@D@2@@std@@ABEII@Z
_TEXT	SEGMENT
$T1 = -36						; size = 4
$T2 = -32						; size = 4
tv93 = -28						; size = 4
$T3 = -24						; size = 4
_this$ = -20						; size = 4
$T4 = -16						; size = 4
__Masked$5 = -12					; size = 4
__Old$ = -8						; size = 4
__Max$ = -4						; size = 4
__Requested$ = 8					; size = 4
?_Calculate_growth@?$basic_string@DU?$char_traits@D@std@@V?$allocator@D@2@@std@@ABEII@Z PROC ; std::basic_string<char,std::char_traits<char>,std::allocator<char> >::_Calculate_growth, COMDAT
; _this$ = ecx

; 4297 :     _NODISCARD size_type _Calculate_growth(const size_type _Requested) const noexcept {

  00000	55		 push	 ebp
  00001	8b ec		 mov	 ebp, esp
  00003	83 ec 24	 sub	 esp, 36			; 00000024H
  00006	89 4d ec	 mov	 DWORD PTR _this$[ebp], ecx

; 4298 :         return _Calculate_growth(_Requested, _Mypair._Myval2._Myres, max_size());

  00009	8b 4d ec	 mov	 ecx, DWORD PTR _this$[ebp]
  0000c	e8 00 00 00 00	 call	 ?max_size@?$basic_string@DU?$char_traits@D@std@@V?$allocator@D@2@@std@@QBEIXZ ; std::basic_string<char,std::char_traits<char>,std::allocator<char> >::max_size
  00011	89 45 fc	 mov	 DWORD PTR __Max$[ebp], eax
  00014	8b 45 ec	 mov	 eax, DWORD PTR _this$[ebp]
  00017	8b 40 14	 mov	 eax, DWORD PTR [eax+20]
  0001a	89 45 f8	 mov	 DWORD PTR __Old$[ebp], eax

; 4285 :         const size_type _Masked = _Requested | _ALLOC_MASK;

  0001d	8b 45 08	 mov	 eax, DWORD PTR __Requested$[ebp]
  00020	83 c8 0f	 or	 eax, 15			; 0000000fH
  00023	89 45 f4	 mov	 DWORD PTR __Masked$5[ebp], eax

; 4286 :         if (_Masked > _Max) { // the mask overflows, settle for max_size()

  00026	8b 45 f4	 mov	 eax, DWORD PTR __Masked$5[ebp]
  00029	3b 45 fc	 cmp	 eax, DWORD PTR __Max$[ebp]
  0002c	76 08		 jbe	 SHORT $LN29@Calculate_

; 4287 :             return _Max;

  0002e	8b 45 fc	 mov	 eax, DWORD PTR __Max$[ebp]
  00031	89 45 f0	 mov	 DWORD PTR $T4[ebp], eax
  00034	eb 4c		 jmp	 SHORT $LN31@Calculate_
$LN29@Calculate_:

; 4288 :         }
; 4289 : 
; 4290 :         if (_Old > _Max - _Old / 2) { // similarly, geometric overflows

  00036	8b 45 f8	 mov	 eax, DWORD PTR __Old$[ebp]
  00039	d1 e8		 shr	 eax, 1
  0003b	8b 4d fc	 mov	 ecx, DWORD PTR __Max$[ebp]
  0003e	2b c8		 sub	 ecx, eax
  00040	39 4d f8	 cmp	 DWORD PTR __Old$[ebp], ecx
  00043	76 08		 jbe	 SHORT $LN30@Calculate_

; 4291 :             return _Max;

  00045	8b 45 fc	 mov	 eax, DWORD PTR __Max$[ebp]
  00048	89 45 f0	 mov	 DWORD PTR $T4[ebp], eax
  0004b	eb 35		 jmp	 SHORT $LN31@Calculate_
$LN30@Calculate_:

; 4294 :         return (_STD max)(_Masked, _Old + _Old / 2);

  0004d	8b 45 f8	 mov	 eax, DWORD PTR __Old$[ebp]
  00050	d1 e8		 shr	 eax, 1
  00052	03 45 f8	 add	 eax, DWORD PTR __Old$[ebp]
  00055	89 45 e8	 mov	 DWORD PTR $T3[ebp], eax
; File C:\Program Files (x86)\Microsoft Visual Studio\2019\Community\VC\Tools\MSVC\14.28.29333\include\utility

; 44   :     return _Left < _Right ? _Right : _Left;

  00058	8b 45 f4	 mov	 eax, DWORD PTR __Masked$5[ebp]
  0005b	3b 45 e8	 cmp	 eax, DWORD PTR $T3[ebp]
  0005e	73 08		 jae	 SHORT $LN35@Calculate_
  00060	8d 45 e8	 lea	 eax, DWORD PTR $T3[ebp]
  00063	89 45 e4	 mov	 DWORD PTR tv93[ebp], eax
  00066	eb 06		 jmp	 SHORT $LN36@Calculate_
$LN35@Calculate_:
  00068	8d 45 f4	 lea	 eax, DWORD PTR __Masked$5[ebp]
  0006b	89 45 e4	 mov	 DWORD PTR tv93[ebp], eax
$LN36@Calculate_:
  0006e	8b 45 e4	 mov	 eax, DWORD PTR tv93[ebp]
  00071	89 45 e0	 mov	 DWORD PTR $T2[ebp], eax
  00074	8b 45 e0	 mov	 eax, DWORD PTR $T2[ebp]
  00077	89 45 dc	 mov	 DWORD PTR $T1[ebp], eax
; File C:\Program Files (x86)\Microsoft Visual Studio\2019\Community\VC\Tools\MSVC\14.28.29333\include\xstring

; 4294 :         return (_STD max)(_Masked, _Old + _Old / 2);

  0007a	8b 45 dc	 mov	 eax, DWORD PTR $T1[ebp]
  0007d	8b 00		 mov	 eax, DWORD PTR [eax]
  0007f	89 45 f0	 mov	 DWORD PTR $T4[ebp], eax
$LN31@Calculate_:

; 4298 :         return _Calculate_growth(_Requested, _Mypair._Myval2._Myres, max_size());

  00082	8b 45 f0	 mov	 eax, DWORD PTR $T4[ebp]

; 4299 :     }

  00085	c9		 leave
  00086	c2 04 00	 ret	 4
?_Calculate_growth@?$basic_string@DU?$char_traits@D@std@@V?$allocator@D@2@@std@@ABEII@Z ENDP ; std::basic_string<char,std::char_traits<char>,std::allocator<char> >::_Calculate_growth
_TEXT	ENDS
; Function compile flags: /Odspy
; File C:\Program Files (x86)\Microsoft Visual Studio\2019\Community\VC\Tools\MSVC\14.28.29333\include\xstring
; File C:\Program Files (x86)\Microsoft Visual Studio\2019\Community\VC\Tools\MSVC\14.28.29333\include\xmemory
; File C:\Program Files (x86)\Microsoft Visual Studio\2019\Community\VC\Tools\MSVC\14.28.29333\include\xstring
; File C:\Program Files (x86)\Microsoft Visual Studio\2019\Community\VC\Tools\MSVC\14.28.29333\include\xmemory
; File C:\Program Files (x86)\Microsoft Visual Studio\2019\Community\VC\Tools\MSVC\14.28.29333\include\xstring
; File C:\Program Files (x86)\Microsoft Visual Studio\2019\Community\VC\Tools\MSVC\14.28.29333\include\utility
; File C:\Program Files (x86)\Microsoft Visual Studio\2019\Community\VC\Tools\MSVC\14.28.29333\include\xstring
; File C:\Program Files (x86)\Microsoft Visual Studio\2019\Community\VC\Tools\MSVC\14.28.29333\include\limits
; File C:\Program Files (x86)\Microsoft Visual Studio\2019\Community\VC\Tools\MSVC\14.28.29333\include\xstring
; File C:\Program Files (x86)\Microsoft Visual Studio\2019\Community\VC\Tools\MSVC\14.28.29333\include\utility
; File C:\Program Files (x86)\Microsoft Visual Studio\2019\Community\VC\Tools\MSVC\14.28.29333\include\xstring
;	COMDAT ?max_size@?$basic_string@DU?$char_traits@D@std@@V?$allocator@D@2@@std@@QBEIXZ
_TEXT	SEGMENT
$T1 = -60						; size = 4
$T2 = -56						; size = 4
$T3 = -52						; size = 4
$T4 = -48						; size = 4
__Storage_max$ = -44					; size = 4
$T5 = -40						; size = 4
$T6 = -36						; size = 4
$T7 = -32						; size = 4
_this$ = -28						; size = 4
tv70 = -24						; size = 4
$T8 = -20						; size = 4
$T9 = -16						; size = 4
tv67 = -12						; size = 4
__Alloc_max$ = -8					; size = 4
$T10 = -4						; size = 4
?max_size@?$basic_string@DU?$char_traits@D@std@@V?$allocator@D@2@@std@@QBEIXZ PROC ; std::basic_string<char,std::char_traits<char>,std::allocator<char> >::max_size, COMDAT
; _this$ = ecx

; 3773 :     _NODISCARD size_type max_size() const noexcept {

  00000	55		 push	 ebp
  00001	8b ec		 mov	 ebp, esp
  00003	83 ec 3c	 sub	 esp, 60			; 0000003cH
  00006	89 4d e4	 mov	 DWORD PTR _this$[ebp], ecx

; 4413 :         return _Mypair._Get_first();

  00009	8b 45 e4	 mov	 eax, DWORD PTR _this$[ebp]
; File C:\Program Files (x86)\Microsoft Visual Studio\2019\Community\VC\Tools\MSVC\14.28.29333\include\xmemory

; 1351 :         return *this;

  0000c	89 45 e0	 mov	 DWORD PTR $T7[ebp], eax
; File C:\Program Files (x86)\Microsoft Visual Studio\2019\Community\VC\Tools\MSVC\14.28.29333\include\xstring

; 4413 :         return _Mypair._Get_first();

  0000f	8b 45 e0	 mov	 eax, DWORD PTR $T7[ebp]
  00012	89 45 c4	 mov	 DWORD PTR $T1[ebp], eax
; File C:\Program Files (x86)\Microsoft Visual Studio\2019\Community\VC\Tools\MSVC\14.28.29333\include\xmemory

; 710  :         return static_cast<size_t>(-1) / sizeof(value_type);

  00015	83 4d f8 ff	 or	 DWORD PTR __Alloc_max$[ebp], -1
; File C:\Program Files (x86)\Microsoft Visual Studio\2019\Community\VC\Tools\MSVC\14.28.29333\include\xstring

; 3775 :         const size_type _Storage_max = // can always store small string

  00019	c7 45 fc 10 00
	00 00		 mov	 DWORD PTR $T10[ebp], 16	; 00000010H
; File C:\Program Files (x86)\Microsoft Visual Studio\2019\Community\VC\Tools\MSVC\14.28.29333\include\utility

; 44   :     return _Left < _Right ? _Right : _Left;

  00020	8b 45 f8	 mov	 eax, DWORD PTR __Alloc_max$[ebp]
  00023	3b 45 fc	 cmp	 eax, DWORD PTR $T10[ebp]
  00026	73 08		 jae	 SHORT $LN14@max_size
  00028	8d 45 fc	 lea	 eax, DWORD PTR $T10[ebp]
  0002b	89 45 f4	 mov	 DWORD PTR tv67[ebp], eax
  0002e	eb 06		 jmp	 SHORT $LN15@max_size
$LN14@max_size:
  00030	8d 45 f8	 lea	 eax, DWORD PTR __Alloc_max$[ebp]
  00033	89 45 f4	 mov	 DWORD PTR tv67[ebp], eax
$LN15@max_size:
  00036	8b 45 f4	 mov	 eax, DWORD PTR tv67[ebp]
  00039	89 45 dc	 mov	 DWORD PTR $T6[ebp], eax
  0003c	8b 45 dc	 mov	 eax, DWORD PTR $T6[ebp]
  0003f	89 45 d8	 mov	 DWORD PTR $T5[ebp], eax
; File C:\Program Files (x86)\Microsoft Visual Studio\2019\Community\VC\Tools\MSVC\14.28.29333\include\xstring

; 3775 :         const size_type _Storage_max = // can always store small string

  00042	8b 45 d8	 mov	 eax, DWORD PTR $T5[ebp]
  00045	8b 00		 mov	 eax, DWORD PTR [eax]
  00047	89 45 d4	 mov	 DWORD PTR __Storage_max$[ebp], eax

; 3777 :         return (_STD min)(static_cast<size_type>((numeric_limits<difference_type>::max)()),

  0004a	8b 45 d4	 mov	 eax, DWORD PTR __Storage_max$[ebp]
  0004d	48		 dec	 eax
  0004e	89 45 f0	 mov	 DWORD PTR $T9[ebp], eax
; File C:\Program Files (x86)\Microsoft Visual Studio\2019\Community\VC\Tools\MSVC\14.28.29333\include\limits

; 557  :         return INT_MAX;

  00051	c7 45 d0 ff ff
	ff 7f		 mov	 DWORD PTR $T4[ebp], 2147483647 ; 7fffffffH
; File C:\Program Files (x86)\Microsoft Visual Studio\2019\Community\VC\Tools\MSVC\14.28.29333\include\xstring

; 3777 :         return (_STD min)(static_cast<size_type>((numeric_limits<difference_type>::max)()),

  00058	8b 45 d0	 mov	 eax, DWORD PTR $T4[ebp]
  0005b	89 45 ec	 mov	 DWORD PTR $T8[ebp], eax
; File C:\Program Files (x86)\Microsoft Visual Studio\2019\Community\VC\Tools\MSVC\14.28.29333\include\utility

; 68   :     return _Right < _Left ? _Right : _Left;

  0005e	8b 45 f0	 mov	 eax, DWORD PTR $T9[ebp]
  00061	3b 45 ec	 cmp	 eax, DWORD PTR $T8[ebp]
  00064	73 08		 jae	 SHORT $LN22@max_size
  00066	8d 45 f0	 lea	 eax, DWORD PTR $T9[ebp]
  00069	89 45 e8	 mov	 DWORD PTR tv70[ebp], eax
  0006c	eb 06		 jmp	 SHORT $LN23@max_size
$LN22@max_size:
  0006e	8d 45 ec	 lea	 eax, DWORD PTR $T8[ebp]
  00071	89 45 e8	 mov	 DWORD PTR tv70[ebp], eax
$LN23@max_size:
  00074	8b 45 e8	 mov	 eax, DWORD PTR tv70[ebp]
  00077	89 45 cc	 mov	 DWORD PTR $T3[ebp], eax
  0007a	8b 45 cc	 mov	 eax, DWORD PTR $T3[ebp]
  0007d	89 45 c8	 mov	 DWORD PTR $T2[ebp], eax
; File C:\Program Files (x86)\Microsoft Visual Studio\2019\Community\VC\Tools\MSVC\14.28.29333\include\xstring

; 3777 :         return (_STD min)(static_cast<size_type>((numeric_limits<difference_type>::max)()),

  00080	8b 45 c8	 mov	 eax, DWORD PTR $T2[ebp]
  00083	8b 00		 mov	 eax, DWORD PTR [eax]

; 3778 :             _Storage_max - 1 // -1 is for null terminator and/or npos
; 3779 :         );
; 3780 :     }

  00085	c9		 leave
  00086	c3		 ret	 0
?max_size@?$basic_string@DU?$char_traits@D@std@@V?$allocator@D@2@@std@@QBEIXZ ENDP ; std::basic_string<char,std::char_traits<char>,std::allocator<char> >::max_size
_TEXT	ENDS
; Function compile flags: /Odspy
; File C:\Program Files (x86)\Microsoft Visual Studio\2019\Community\VC\Tools\MSVC\14.28.29333\include\xstring
;	COMDAT ?assign@?$basic_string@DU?$char_traits@D@std@@V?$allocator@D@2@@std@@QAEAAV12@QBDI@Z
_TEXT	SEGMENT
$T1 = -16						; size = 1
__Old_ptr$2 = -12					; size = 4
_this$ = -8						; size = 4
$T3 = -1						; size = 1
__Ptr$ = 8						; size = 4
__Count$ = 12						; size = 4
?assign@?$basic_string@DU?$char_traits@D@std@@V?$allocator@D@2@@std@@QAEAAV12@QBDI@Z PROC ; std::basic_string<char,std::char_traits<char>,std::allocator<char> >::assign, COMDAT
; _this$ = ecx

; 3042 :     basic_string& assign(_In_reads_(_Count) const _Elem* const _Ptr, _CRT_GUARDOVERFLOW const size_type _Count) {

  00000	55		 push	 ebp
  00001	8b ec		 mov	 ebp, esp
  00003	83 ec 10	 sub	 esp, 16			; 00000010H
  00006	89 4d f8	 mov	 DWORD PTR _this$[ebp], ecx

; 3043 :         // assign [_Ptr, _Ptr + _Count)
; 3044 :         if (_Count <= _Mypair._Myval2._Myres) {

  00009	8b 45 f8	 mov	 eax, DWORD PTR _this$[ebp]
  0000c	8b 4d 0c	 mov	 ecx, DWORD PTR __Count$[ebp]
  0000f	3b 48 14	 cmp	 ecx, DWORD PTR [eax+20]
  00012	77 39		 ja	 SHORT $LN2@assign

; 3045 :             _Elem* const _Old_ptr   = _Mypair._Myval2._Myptr();

  00014	8b 4d f8	 mov	 ecx, DWORD PTR _this$[ebp]
  00017	e8 00 00 00 00	 call	 ?_Myptr@?$_String_val@U?$_Simple_types@D@std@@@std@@QAEPADXZ ; std::_String_val<std::_Simple_types<char> >::_Myptr
  0001c	89 45 f4	 mov	 DWORD PTR __Old_ptr$2[ebp], eax

; 3046 :             _Mypair._Myval2._Mysize = _Count;

  0001f	8b 45 f8	 mov	 eax, DWORD PTR _this$[ebp]
  00022	8b 4d 0c	 mov	 ecx, DWORD PTR __Count$[ebp]
  00025	89 48 10	 mov	 DWORD PTR [eax+16], ecx

; 119  :         _CSTD memmove(_First1, _First2, _Count * sizeof(_Elem));

  00028	ff 75 0c	 push	 DWORD PTR __Count$[ebp]
  0002b	ff 75 08	 push	 DWORD PTR __Ptr$[ebp]
  0002e	ff 75 f4	 push	 DWORD PTR __Old_ptr$2[ebp]
  00031	e8 00 00 00 00	 call	 _memmove
  00036	83 c4 0c	 add	 esp, 12			; 0000000cH

; 3047 :             _Traits::move(_Old_ptr, _Ptr, _Count);
; 3048 :             _Traits::assign(_Old_ptr[_Count], _Elem());

  00039	c6 45 ff 00	 mov	 BYTE PTR $T3[ebp], 0

; 428  :         _Left = _Right;

  0003d	8b 45 f4	 mov	 eax, DWORD PTR __Old_ptr$2[ebp]
  00040	03 45 0c	 add	 eax, DWORD PTR __Count$[ebp]
  00043	8a 4d ff	 mov	 cl, BYTE PTR $T3[ebp]
  00046	88 08		 mov	 BYTE PTR [eax], cl

; 3049 :             return *this;

  00048	8b 45 f8	 mov	 eax, DWORD PTR _this$[ebp]
  0004b	eb 16		 jmp	 SHORT $LN1@assign
$LN2@assign:

; 3050 :         }
; 3051 : 
; 3052 :         return _Reallocate_for(

  0004d	33 c0		 xor	 eax, eax
  0004f	88 45 f0	 mov	 BYTE PTR $T1[ebp], al
  00052	ff 75 08	 push	 DWORD PTR __Ptr$[ebp]
  00055	ff 75 f0	 push	 DWORD PTR $T1[ebp]
  00058	ff 75 0c	 push	 DWORD PTR __Count$[ebp]
  0005b	8b 4d f8	 mov	 ecx, DWORD PTR _this$[ebp]
  0005e	e8 00 00 00 00	 call	 ??$_Reallocate_for@V<lambda_9366063389c5f42a00a5088cf24e69de>@@PBD@?$basic_string@DU?$char_traits@D@std@@V?$allocator@D@2@@std@@AAEAAV01@IV<lambda_9366063389c5f42a00a5088cf24e69de>@@PBD@Z ; std::basic_string<char,std::char_traits<char>,std::allocator<char> >::_Reallocate_for<<lambda_9366063389c5f42a00a5088cf24e69de>,char const *>
$LN1@assign:

; 3053 :             _Count,
; 3054 :             [](_Elem* const _New_ptr, const size_type _Count, const _Elem* const _Ptr) {
; 3055 :                 _Traits::copy(_New_ptr, _Ptr, _Count);
; 3056 :                 _Traits::assign(_New_ptr[_Count], _Elem());
; 3057 :             },
; 3058 :             _Ptr);
; 3059 :     }

  00063	c9		 leave
  00064	c2 08 00	 ret	 8
?assign@?$basic_string@DU?$char_traits@D@std@@V?$allocator@D@2@@std@@QAEAAV12@QBDI@Z ENDP ; std::basic_string<char,std::char_traits<char>,std::allocator<char> >::assign
_TEXT	ENDS
; Function compile flags: /Odspy
; File C:\Program Files (x86)\Microsoft Visual Studio\2019\Community\VC\Tools\MSVC\14.28.29333\include\xstring
;	COMDAT ??1?$basic_string@DU?$char_traits@D@std@@V?$allocator@D@2@@std@@QAE@XZ
_TEXT	SEGMENT
_this$ = -4						; size = 4
??1?$basic_string@DU?$char_traits@D@std@@V?$allocator@D@2@@std@@QAE@XZ PROC ; std::basic_string<char,std::char_traits<char>,std::allocator<char> >::~basic_string<char,std::char_traits<char>,std::allocator<char> >, COMDAT
; _this$ = ecx

; 2800 :     ~basic_string() noexcept {

  00000	55		 push	 ebp
  00001	8b ec		 mov	 ebp, esp
  00003	51		 push	 ecx
  00004	89 4d fc	 mov	 DWORD PTR _this$[ebp], ecx

; 2801 :         _Tidy_deallocate();

  00007	8b 4d fc	 mov	 ecx, DWORD PTR _this$[ebp]
  0000a	e8 00 00 00 00	 call	 ?_Tidy_deallocate@?$basic_string@DU?$char_traits@D@std@@V?$allocator@D@2@@std@@AAEXXZ ; std::basic_string<char,std::char_traits<char>,std::allocator<char> >::_Tidy_deallocate

; 2802 : #if _ITERATOR_DEBUG_LEVEL != 0
; 2803 :         auto&& _Alproxy          = _GET_PROXY_ALLOCATOR(_Alty, _Getal());
; 2804 :         const auto _To_delete    = _Mypair._Myval2._Myproxy;
; 2805 :         _Mypair._Myval2._Myproxy = nullptr;
; 2806 :         _Delete_plain_internal(_Alproxy, _To_delete);
; 2807 : #endif // _ITERATOR_DEBUG_LEVEL != 0
; 2808 :     }

  0000f	c9		 leave
  00010	c3		 ret	 0
??1?$basic_string@DU?$char_traits@D@std@@V?$allocator@D@2@@std@@QAE@XZ ENDP ; std::basic_string<char,std::char_traits<char>,std::allocator<char> >::~basic_string<char,std::char_traits<char>,std::allocator<char> >
_TEXT	ENDS
; Function compile flags: /Odspy
; File C:\Program Files (x86)\Microsoft Visual Studio\2019\Community\VC\Tools\MSVC\14.28.29333\include\xstring
; File C:\Program Files (x86)\Microsoft Visual Studio\2019\Community\VC\Tools\MSVC\14.28.29333\include\xstddef
; File C:\Program Files (x86)\Microsoft Visual Studio\2019\Community\VC\Tools\MSVC\14.28.29333\include\xstring
;	COMDAT ?_Myptr@?$_String_val@U?$_Simple_types@D@std@@@std@@QAEPADXZ
_TEXT	SEGMENT
__Ptr$ = -20						; size = 4
__Result$ = -16						; size = 4
tv76 = -12						; size = 4
_this$ = -8						; size = 4
$T1 = -1						; size = 1
?_Myptr@?$_String_val@U?$_Simple_types@D@std@@@std@@QAEPADXZ PROC ; std::_String_val<std::_Simple_types<char> >::_Myptr, COMDAT
; _this$ = ecx

; 2208 :     value_type* _Myptr() noexcept {

  00000	55		 push	 ebp
  00001	8b ec		 mov	 ebp, esp
  00003	83 ec 14	 sub	 esp, 20			; 00000014H
  00006	89 4d f8	 mov	 DWORD PTR _this$[ebp], ecx

; 2209 :         value_type* _Result = _Bx._Buf;

  00009	8b 45 f8	 mov	 eax, DWORD PTR _this$[ebp]
  0000c	89 45 f0	 mov	 DWORD PTR __Result$[ebp], eax

; 2227 :         return _BUF_SIZE <= _Myres;

  0000f	8b 45 f8	 mov	 eax, DWORD PTR _this$[ebp]
  00012	83 78 14 10	 cmp	 DWORD PTR [eax+20], 16	; 00000010H
  00016	72 09		 jb	 SHORT $LN6@Myptr
  00018	c7 45 f4 01 00
	00 00		 mov	 DWORD PTR tv76[ebp], 1
  0001f	eb 04		 jmp	 SHORT $LN7@Myptr
$LN6@Myptr:
  00021	83 65 f4 00	 and	 DWORD PTR tv76[ebp], 0
$LN7@Myptr:
  00025	8a 45 f4	 mov	 al, BYTE PTR tv76[ebp]
  00028	88 45 ff	 mov	 BYTE PTR $T1[ebp], al

; 2210 :         if (_Large_string_engaged()) {

  0002b	0f b6 45 ff	 movzx	 eax, BYTE PTR $T1[ebp]
  0002f	85 c0		 test	 eax, eax
  00031	74 0e		 je	 SHORT $LN2@Myptr

; 2211 :             _Result = _Unfancy(_Bx._Ptr);

  00033	8b 45 f8	 mov	 eax, DWORD PTR _this$[ebp]
  00036	8b 00		 mov	 eax, DWORD PTR [eax]
  00038	89 45 ec	 mov	 DWORD PTR __Ptr$[ebp], eax
; File C:\Program Files (x86)\Microsoft Visual Studio\2019\Community\VC\Tools\MSVC\14.28.29333\include\xstddef

; 289  :     return _Ptr;

  0003b	8b 45 ec	 mov	 eax, DWORD PTR __Ptr$[ebp]
  0003e	89 45 f0	 mov	 DWORD PTR __Result$[ebp], eax
$LN2@Myptr:
; File C:\Program Files (x86)\Microsoft Visual Studio\2019\Community\VC\Tools\MSVC\14.28.29333\include\xstring

; 2214 :         return _Result;

  00041	8b 45 f0	 mov	 eax, DWORD PTR __Result$[ebp]

; 2215 :     }

  00044	c9		 leave
  00045	c3		 ret	 0
?_Myptr@?$_String_val@U?$_Simple_types@D@std@@@std@@QAEPADXZ ENDP ; std::_String_val<std::_Simple_types<char> >::_Myptr
_TEXT	ENDS
; Function compile flags: /Odspy
; File C:\Program Files (x86)\Microsoft Visual Studio\2019\Community\VC\Tools\MSVC\14.28.29333\include\xstring
;	COMDAT ??0?$_String_val@U?$_Simple_types@D@std@@@std@@QAE@XZ
_TEXT	SEGMENT
_this$ = -4						; size = 4
??0?$_String_val@U?$_Simple_types@D@std@@@std@@QAE@XZ PROC ; std::_String_val<std::_Simple_types<char> >::_String_val<std::_Simple_types<char> >, COMDAT
; _this$ = ecx

; 2198 :     _String_val() noexcept : _Bx(), _Mysize(0), _Myres(0) {}

  00000	55		 push	 ebp
  00001	8b ec		 mov	 ebp, esp
  00003	51		 push	 ecx
  00004	89 4d fc	 mov	 DWORD PTR _this$[ebp], ecx
  00007	8b 45 fc	 mov	 eax, DWORD PTR _this$[ebp]
  0000a	83 60 10 00	 and	 DWORD PTR [eax+16], 0
  0000e	8b 45 fc	 mov	 eax, DWORD PTR _this$[ebp]
  00011	83 60 14 00	 and	 DWORD PTR [eax+20], 0
  00015	8b 45 fc	 mov	 eax, DWORD PTR _this$[ebp]
  00018	c9		 leave
  00019	c3		 ret	 0
??0?$_String_val@U?$_Simple_types@D@std@@@std@@QAE@XZ ENDP ; std::_String_val<std::_Simple_types<char> >::_String_val<std::_Simple_types<char> >
_TEXT	ENDS
; Function compile flags: /Odspy
; File C:\Program Files (x86)\Microsoft Visual Studio\2019\Community\VC\Tools\MSVC\14.28.29333\include\xstring
;	COMDAT ?_Xlen_string@std@@YAXXZ
_TEXT	SEGMENT
?_Xlen_string@std@@YAXXZ PROC				; std::_Xlen_string, COMDAT

; 2274 : [[noreturn]] inline void _Xlen_string() {

  00000	55		 push	 ebp
  00001	8b ec		 mov	 ebp, esp

; 2275 :     _Xlength_error("string too long");

  00003	68 00 00 00 00	 push	 OFFSET ??_C@_0BA@JFNIOLAK@string?5too?5long@
  00008	e8 00 00 00 00	 call	 ?_Xlength_error@std@@YAXPBD@Z ; std::_Xlength_error
$LN2@Xlen_strin:

; 2276 : }

  0000d	5d		 pop	 ebp
  0000e	c3		 ret	 0
?_Xlen_string@std@@YAXXZ ENDP				; std::_Xlen_string
_TEXT	ENDS
; Function compile flags: /Odspy
; File C:\Program Files (x86)\Microsoft Visual Studio\2019\Community\VC\Tools\MSVC\14.28.29333\include\xmemory
;	COMDAT ?_Adjust_manually_vector_aligned@std@@YAXAAPAXAAI@Z
_TEXT	SEGMENT
__Min_back_shift$ = -16					; size = 4
__Ptr_user$ = -12					; size = 4
__Ptr_container$ = -8					; size = 4
__Back_shift$ = -4					; size = 4
__Ptr$ = 8						; size = 4
__Bytes$ = 12						; size = 4
?_Adjust_manually_vector_aligned@std@@YAXAAPAXAAI@Z PROC ; std::_Adjust_manually_vector_aligned, COMDAT

; 132  : inline void _Adjust_manually_vector_aligned(void*& _Ptr, size_t& _Bytes) {

  00000	55		 push	 ebp
  00001	8b ec		 mov	 ebp, esp
  00003	83 ec 10	 sub	 esp, 16			; 00000010H

; 133  :     // adjust parameters from _Allocate_manually_vector_aligned to pass to operator delete
; 134  :     _Bytes += _Non_user_size;

  00006	8b 45 0c	 mov	 eax, DWORD PTR __Bytes$[ebp]
  00009	8b 00		 mov	 eax, DWORD PTR [eax]
  0000b	83 c0 23	 add	 eax, 35			; 00000023H
  0000e	8b 4d 0c	 mov	 ecx, DWORD PTR __Bytes$[ebp]
  00011	89 01		 mov	 DWORD PTR [ecx], eax

; 135  : 
; 136  :     const uintptr_t* const _Ptr_user = reinterpret_cast<uintptr_t*>(_Ptr);

  00013	8b 45 08	 mov	 eax, DWORD PTR __Ptr$[ebp]
  00016	8b 00		 mov	 eax, DWORD PTR [eax]
  00018	89 45 f4	 mov	 DWORD PTR __Ptr_user$[ebp], eax

; 137  :     const uintptr_t _Ptr_container   = _Ptr_user[-1];

  0001b	6a 04		 push	 4
  0001d	58		 pop	 eax
  0001e	6b c0 ff	 imul	 eax, eax, -1
  00021	8b 4d f4	 mov	 ecx, DWORD PTR __Ptr_user$[ebp]
  00024	8b 04 01	 mov	 eax, DWORD PTR [ecx+eax]
  00027	89 45 f8	 mov	 DWORD PTR __Ptr_container$[ebp], eax

; 138  : 
; 139  :     // If the following asserts, it likely means that we are performing
; 140  :     // an aligned delete on memory coming from an unaligned allocation.
; 141  :     _STL_ASSERT(_Ptr_user[-2] == _Big_allocation_sentinel, "invalid argument");
; 142  : 
; 143  :     // Extra paranoia on aligned allocation/deallocation; ensure _Ptr_container is
; 144  :     // in range [_Min_back_shift, _Non_user_size]
; 145  : #ifdef _DEBUG
; 146  :     constexpr uintptr_t _Min_back_shift = 2 * sizeof(void*);
; 147  : #else // ^^^ _DEBUG ^^^ // vvv !_DEBUG vvv
; 148  :     constexpr uintptr_t _Min_back_shift = sizeof(void*);

  0002a	c7 45 f0 04 00
	00 00		 mov	 DWORD PTR __Min_back_shift$[ebp], 4

; 149  : #endif // _DEBUG
; 150  :     const uintptr_t _Back_shift = reinterpret_cast<uintptr_t>(_Ptr) - _Ptr_container;

  00031	8b 45 08	 mov	 eax, DWORD PTR __Ptr$[ebp]
  00034	8b 00		 mov	 eax, DWORD PTR [eax]
  00036	2b 45 f8	 sub	 eax, DWORD PTR __Ptr_container$[ebp]
  00039	89 45 fc	 mov	 DWORD PTR __Back_shift$[ebp], eax
$LN4@Adjust_man:

; 151  :     _STL_VERIFY(_Back_shift >= _Min_back_shift && _Back_shift <= _Non_user_size, "invalid argument");

  0003c	83 7d fc 04	 cmp	 DWORD PTR __Back_shift$[ebp], 4
  00040	72 08		 jb	 SHORT $LN7@Adjust_man
  00042	83 7d fc 23	 cmp	 DWORD PTR __Back_shift$[ebp], 35 ; 00000023H
  00046	77 02		 ja	 SHORT $LN7@Adjust_man
  00048	eb 09		 jmp	 SHORT $LN2@Adjust_man
$LN7@Adjust_man:
  0004a	e8 00 00 00 00	 call	 __invalid_parameter_noinfo_noreturn
  0004f	33 c0		 xor	 eax, eax
  00051	75 f7		 jne	 SHORT $LN7@Adjust_man
$LN2@Adjust_man:
  00053	33 c0		 xor	 eax, eax
  00055	75 e5		 jne	 SHORT $LN4@Adjust_man

; 152  :     _Ptr = reinterpret_cast<void*>(_Ptr_container);

  00057	8b 45 08	 mov	 eax, DWORD PTR __Ptr$[ebp]
  0005a	8b 4d f8	 mov	 ecx, DWORD PTR __Ptr_container$[ebp]
  0005d	89 08		 mov	 DWORD PTR [eax], ecx
$LN10@Adjust_man:

; 153  : }

  0005f	c9		 leave
  00060	c3		 ret	 0
?_Adjust_manually_vector_aligned@std@@YAXAAPAXAAI@Z ENDP ; std::_Adjust_manually_vector_aligned
_TEXT	ENDS
; Function compile flags: /Odspy
; File C:\Program Files (x86)\Microsoft Visual Studio\2019\Community\VC\Tools\MSVC\14.28.29333\include\exception
;	COMDAT ?_Throw_bad_array_new_length@std@@YAXXZ
_TEXT	SEGMENT
$T1 = -12						; size = 12
?_Throw_bad_array_new_length@std@@YAXXZ PROC		; std::_Throw_bad_array_new_length, COMDAT

; 320  : [[noreturn]] inline void _Throw_bad_array_new_length() {

  00000	55		 push	 ebp
  00001	8b ec		 mov	 ebp, esp
  00003	83 ec 0c	 sub	 esp, 12			; 0000000cH

; 321  :     _THROW(bad_array_new_length{});

  00006	8d 4d f4	 lea	 ecx, DWORD PTR $T1[ebp]
  00009	e8 00 00 00 00	 call	 ??0bad_array_new_length@std@@QAE@XZ ; std::bad_array_new_length::bad_array_new_length
  0000e	68 00 00 00 00	 push	 OFFSET __TI3?AVbad_array_new_length@std@@
  00013	8d 45 f4	 lea	 eax, DWORD PTR $T1[ebp]
  00016	50		 push	 eax
  00017	e8 00 00 00 00	 call	 __CxxThrowException@8
$LN2@Throw_bad_:

; 322  : }

  0001c	c9		 leave
  0001d	c3		 ret	 0
?_Throw_bad_array_new_length@std@@YAXXZ ENDP		; std::_Throw_bad_array_new_length
_TEXT	ENDS
; Function compile flags: /Odspy
; File C:\Program Files (x86)\Microsoft Visual Studio\2019\Community\VC\Tools\MSVC\14.28.29333\include\vcruntime_exception.h
;	COMDAT ??_Gbad_array_new_length@std@@UAEPAXI@Z
_TEXT	SEGMENT
_this$ = -4						; size = 4
___flags$ = 8						; size = 4
??_Gbad_array_new_length@std@@UAEPAXI@Z PROC		; std::bad_array_new_length::`scalar deleting destructor', COMDAT
; _this$ = ecx
  00000	55		 push	 ebp
  00001	8b ec		 mov	 ebp, esp
  00003	51		 push	 ecx
  00004	89 4d fc	 mov	 DWORD PTR _this$[ebp], ecx

; 89   :     {

  00007	8b 45 fc	 mov	 eax, DWORD PTR _this$[ebp]
  0000a	c7 00 00 00 00
	00		 mov	 DWORD PTR [eax], OFFSET ??_7exception@std@@6B@

; 90   :         __std_exception_destroy(&_Data);

  00010	8b 45 fc	 mov	 eax, DWORD PTR _this$[ebp]
  00013	83 c0 04	 add	 eax, 4
  00016	50		 push	 eax
  00017	e8 00 00 00 00	 call	 ___std_exception_destroy
  0001c	59		 pop	 ecx
  0001d	8b 45 08	 mov	 eax, DWORD PTR ___flags$[ebp]
  00020	83 e0 01	 and	 eax, 1
  00023	74 0c		 je	 SHORT $LN2@scalar
  00025	6a 0c		 push	 12			; 0000000cH
  00027	ff 75 fc	 push	 DWORD PTR _this$[ebp]
  0002a	e8 00 00 00 00	 call	 ??3@YAXPAXI@Z		; operator delete
  0002f	59		 pop	 ecx
  00030	59		 pop	 ecx
$LN2@scalar:
  00031	8b 45 fc	 mov	 eax, DWORD PTR _this$[ebp]
  00034	c9		 leave
  00035	c2 04 00	 ret	 4
??_Gbad_array_new_length@std@@UAEPAXI@Z ENDP		; std::bad_array_new_length::`scalar deleting destructor'
_TEXT	ENDS
; Function compile flags: /Odspy
;	COMDAT ??0bad_array_new_length@std@@QAE@ABV01@@Z
_TEXT	SEGMENT
_this$ = -4						; size = 4
___that$ = 8						; size = 4
??0bad_array_new_length@std@@QAE@ABV01@@Z PROC		; std::bad_array_new_length::bad_array_new_length, COMDAT
; _this$ = ecx
  00000	55		 push	 ebp
  00001	8b ec		 mov	 ebp, esp
  00003	51		 push	 ecx
  00004	89 4d fc	 mov	 DWORD PTR _this$[ebp], ecx
  00007	ff 75 08	 push	 DWORD PTR ___that$[ebp]
  0000a	8b 4d fc	 mov	 ecx, DWORD PTR _this$[ebp]
  0000d	e8 00 00 00 00	 call	 ??0exception@std@@QAE@ABV01@@Z ; std::exception::exception
  00012	8b 45 fc	 mov	 eax, DWORD PTR _this$[ebp]
  00015	c7 00 00 00 00
	00		 mov	 DWORD PTR [eax], OFFSET ??_7bad_alloc@std@@6B@
  0001b	8b 45 fc	 mov	 eax, DWORD PTR _this$[ebp]
  0001e	c7 00 00 00 00
	00		 mov	 DWORD PTR [eax], OFFSET ??_7bad_array_new_length@std@@6B@
  00024	8b 45 fc	 mov	 eax, DWORD PTR _this$[ebp]
  00027	c9		 leave
  00028	c2 04 00	 ret	 4
??0bad_array_new_length@std@@QAE@ABV01@@Z ENDP		; std::bad_array_new_length::bad_array_new_length
_TEXT	ENDS
; Function compile flags: /Odspy
; File C:\Program Files (x86)\Microsoft Visual Studio\2019\Community\VC\Tools\MSVC\14.28.29333\include\vcruntime_exception.h
;	COMDAT ??1bad_array_new_length@std@@UAE@XZ
_TEXT	SEGMENT
_this$ = -4						; size = 4
??1bad_array_new_length@std@@UAE@XZ PROC		; std::bad_array_new_length::~bad_array_new_length, COMDAT
; _this$ = ecx
  00000	55		 push	 ebp
  00001	8b ec		 mov	 ebp, esp
  00003	51		 push	 ecx
  00004	89 4d fc	 mov	 DWORD PTR _this$[ebp], ecx

; 89   :     {

  00007	8b 45 fc	 mov	 eax, DWORD PTR _this$[ebp]
  0000a	c7 00 00 00 00
	00		 mov	 DWORD PTR [eax], OFFSET ??_7exception@std@@6B@

; 90   :         __std_exception_destroy(&_Data);

  00010	8b 45 fc	 mov	 eax, DWORD PTR _this$[ebp]
  00013	83 c0 04	 add	 eax, 4
  00016	50		 push	 eax
  00017	e8 00 00 00 00	 call	 ___std_exception_destroy
  0001c	59		 pop	 ecx
  0001d	c9		 leave
  0001e	c3		 ret	 0
??1bad_array_new_length@std@@UAE@XZ ENDP		; std::bad_array_new_length::~bad_array_new_length
_TEXT	ENDS
; Function compile flags: /Odspy
; File C:\Program Files (x86)\Microsoft Visual Studio\2019\Community\VC\Tools\MSVC\14.28.29333\include\vcruntime_exception.h
;	COMDAT ??0bad_array_new_length@std@@QAE@XZ
_TEXT	SEGMENT
_this$ = -4						; size = 4
??0bad_array_new_length@std@@QAE@XZ PROC		; std::bad_array_new_length::bad_array_new_length, COMDAT
; _this$ = ecx

; 141  :     {

  00000	55		 push	 ebp
  00001	8b ec		 mov	 ebp, esp
  00003	51		 push	 ecx
  00004	89 4d fc	 mov	 DWORD PTR _this$[ebp], ecx

; 66   :     {

  00007	8b 45 fc	 mov	 eax, DWORD PTR _this$[ebp]
  0000a	c7 00 00 00 00
	00		 mov	 DWORD PTR [eax], OFFSET ??_7exception@std@@6B@

; 65   :         : _Data()

  00010	33 c0		 xor	 eax, eax
  00012	8b 4d fc	 mov	 ecx, DWORD PTR _this$[ebp]
  00015	83 c1 04	 add	 ecx, 4
  00018	89 01		 mov	 DWORD PTR [ecx], eax
  0001a	89 41 04	 mov	 DWORD PTR [ecx+4], eax

; 67   :         _Data._What = _Message;

  0001d	8b 45 fc	 mov	 eax, DWORD PTR _this$[ebp]
  00020	c7 40 04 00 00
	00 00		 mov	 DWORD PTR [eax+4], OFFSET ??_C@_0BF@KINCDENJ@bad?5array?5new?5length@

; 130  :     {

  00027	8b 45 fc	 mov	 eax, DWORD PTR _this$[ebp]
  0002a	c7 00 00 00 00
	00		 mov	 DWORD PTR [eax], OFFSET ??_7bad_alloc@std@@6B@

; 141  :     {

  00030	8b 45 fc	 mov	 eax, DWORD PTR _this$[ebp]
  00033	c7 00 00 00 00
	00		 mov	 DWORD PTR [eax], OFFSET ??_7bad_array_new_length@std@@6B@

; 142  :     }

  00039	8b 45 fc	 mov	 eax, DWORD PTR _this$[ebp]
  0003c	c9		 leave
  0003d	c3		 ret	 0
??0bad_array_new_length@std@@QAE@XZ ENDP		; std::bad_array_new_length::bad_array_new_length
_TEXT	ENDS
; Function compile flags: /Odspy
; File C:\Program Files (x86)\Microsoft Visual Studio\2019\Community\VC\Tools\MSVC\14.28.29333\include\vcruntime_exception.h
;	COMDAT ??_Gbad_alloc@std@@UAEPAXI@Z
_TEXT	SEGMENT
_this$ = -4						; size = 4
___flags$ = 8						; size = 4
??_Gbad_alloc@std@@UAEPAXI@Z PROC			; std::bad_alloc::`scalar deleting destructor', COMDAT
; _this$ = ecx
  00000	55		 push	 ebp
  00001	8b ec		 mov	 ebp, esp
  00003	51		 push	 ecx
  00004	89 4d fc	 mov	 DWORD PTR _this$[ebp], ecx

; 89   :     {

  00007	8b 45 fc	 mov	 eax, DWORD PTR _this$[ebp]
  0000a	c7 00 00 00 00
	00		 mov	 DWORD PTR [eax], OFFSET ??_7exception@std@@6B@

; 90   :         __std_exception_destroy(&_Data);

  00010	8b 45 fc	 mov	 eax, DWORD PTR _this$[ebp]
  00013	83 c0 04	 add	 eax, 4
  00016	50		 push	 eax
  00017	e8 00 00 00 00	 call	 ___std_exception_destroy
  0001c	59		 pop	 ecx
  0001d	8b 45 08	 mov	 eax, DWORD PTR ___flags$[ebp]
  00020	83 e0 01	 and	 eax, 1
  00023	74 0c		 je	 SHORT $LN2@scalar
  00025	6a 0c		 push	 12			; 0000000cH
  00027	ff 75 fc	 push	 DWORD PTR _this$[ebp]
  0002a	e8 00 00 00 00	 call	 ??3@YAXPAXI@Z		; operator delete
  0002f	59		 pop	 ecx
  00030	59		 pop	 ecx
$LN2@scalar:
  00031	8b 45 fc	 mov	 eax, DWORD PTR _this$[ebp]
  00034	c9		 leave
  00035	c2 04 00	 ret	 4
??_Gbad_alloc@std@@UAEPAXI@Z ENDP			; std::bad_alloc::`scalar deleting destructor'
_TEXT	ENDS
; Function compile flags: /Odspy
;	COMDAT ??0bad_alloc@std@@QAE@ABV01@@Z
_TEXT	SEGMENT
_this$ = -4						; size = 4
___that$ = 8						; size = 4
??0bad_alloc@std@@QAE@ABV01@@Z PROC			; std::bad_alloc::bad_alloc, COMDAT
; _this$ = ecx
  00000	55		 push	 ebp
  00001	8b ec		 mov	 ebp, esp
  00003	51		 push	 ecx
  00004	89 4d fc	 mov	 DWORD PTR _this$[ebp], ecx
  00007	ff 75 08	 push	 DWORD PTR ___that$[ebp]
  0000a	8b 4d fc	 mov	 ecx, DWORD PTR _this$[ebp]
  0000d	e8 00 00 00 00	 call	 ??0exception@std@@QAE@ABV01@@Z ; std::exception::exception
  00012	8b 45 fc	 mov	 eax, DWORD PTR _this$[ebp]
  00015	c7 00 00 00 00
	00		 mov	 DWORD PTR [eax], OFFSET ??_7bad_alloc@std@@6B@
  0001b	8b 45 fc	 mov	 eax, DWORD PTR _this$[ebp]
  0001e	c9		 leave
  0001f	c2 04 00	 ret	 4
??0bad_alloc@std@@QAE@ABV01@@Z ENDP			; std::bad_alloc::bad_alloc
_TEXT	ENDS
; Function compile flags: /Odspy
; File C:\Program Files (x86)\Microsoft Visual Studio\2019\Community\VC\Tools\MSVC\14.28.29333\include\vcruntime_exception.h
;	COMDAT ??_Gexception@std@@UAEPAXI@Z
_TEXT	SEGMENT
_this$ = -4						; size = 4
___flags$ = 8						; size = 4
??_Gexception@std@@UAEPAXI@Z PROC			; std::exception::`scalar deleting destructor', COMDAT
; _this$ = ecx
  00000	55		 push	 ebp
  00001	8b ec		 mov	 ebp, esp
  00003	51		 push	 ecx
  00004	89 4d fc	 mov	 DWORD PTR _this$[ebp], ecx

; 89   :     {

  00007	8b 45 fc	 mov	 eax, DWORD PTR _this$[ebp]
  0000a	c7 00 00 00 00
	00		 mov	 DWORD PTR [eax], OFFSET ??_7exception@std@@6B@

; 90   :         __std_exception_destroy(&_Data);

  00010	8b 45 fc	 mov	 eax, DWORD PTR _this$[ebp]
  00013	83 c0 04	 add	 eax, 4
  00016	50		 push	 eax
  00017	e8 00 00 00 00	 call	 ___std_exception_destroy
  0001c	59		 pop	 ecx
  0001d	8b 45 08	 mov	 eax, DWORD PTR ___flags$[ebp]
  00020	83 e0 01	 and	 eax, 1
  00023	74 0c		 je	 SHORT $LN2@scalar
  00025	6a 0c		 push	 12			; 0000000cH
  00027	ff 75 fc	 push	 DWORD PTR _this$[ebp]
  0002a	e8 00 00 00 00	 call	 ??3@YAXPAXI@Z		; operator delete
  0002f	59		 pop	 ecx
  00030	59		 pop	 ecx
$LN2@scalar:
  00031	8b 45 fc	 mov	 eax, DWORD PTR _this$[ebp]
  00034	c9		 leave
  00035	c2 04 00	 ret	 4
??_Gexception@std@@UAEPAXI@Z ENDP			; std::exception::`scalar deleting destructor'
_TEXT	ENDS
; Function compile flags: /Odspy
; File C:\Program Files (x86)\Microsoft Visual Studio\2019\Community\VC\Tools\MSVC\14.28.29333\include\vcruntime_exception.h
;	COMDAT ?what@exception@std@@UBEPBDXZ
_TEXT	SEGMENT
tv69 = -8						; size = 4
_this$ = -4						; size = 4
?what@exception@std@@UBEPBDXZ PROC			; std::exception::what, COMDAT
; _this$ = ecx

; 94   :     {

  00000	55		 push	 ebp
  00001	8b ec		 mov	 ebp, esp
  00003	51		 push	 ecx
  00004	51		 push	 ecx
  00005	89 4d fc	 mov	 DWORD PTR _this$[ebp], ecx

; 95   :         return _Data._What ? _Data._What : "Unknown exception";

  00008	8b 45 fc	 mov	 eax, DWORD PTR _this$[ebp]
  0000b	83 78 04 00	 cmp	 DWORD PTR [eax+4], 0
  0000f	74 0b		 je	 SHORT $LN3@what
  00011	8b 45 fc	 mov	 eax, DWORD PTR _this$[ebp]
  00014	8b 40 04	 mov	 eax, DWORD PTR [eax+4]
  00017	89 45 f8	 mov	 DWORD PTR tv69[ebp], eax
  0001a	eb 07		 jmp	 SHORT $LN4@what
$LN3@what:
  0001c	c7 45 f8 00 00
	00 00		 mov	 DWORD PTR tv69[ebp], OFFSET ??_C@_0BC@EOODALEL@Unknown?5exception@
$LN4@what:
  00023	8b 45 f8	 mov	 eax, DWORD PTR tv69[ebp]

; 96   :     }

  00026	c9		 leave
  00027	c3		 ret	 0
?what@exception@std@@UBEPBDXZ ENDP			; std::exception::what
_TEXT	ENDS
; Function compile flags: /Odspy
; File C:\Program Files (x86)\Microsoft Visual Studio\2019\Community\VC\Tools\MSVC\14.28.29333\include\vcruntime_exception.h
;	COMDAT ??0exception@std@@QAE@ABV01@@Z
_TEXT	SEGMENT
_this$ = -4						; size = 4
__Other$ = 8						; size = 4
??0exception@std@@QAE@ABV01@@Z PROC			; std::exception::exception, COMDAT
; _this$ = ecx

; 72   :     {

  00000	55		 push	 ebp
  00001	8b ec		 mov	 ebp, esp
  00003	51		 push	 ecx
  00004	89 4d fc	 mov	 DWORD PTR _this$[ebp], ecx
  00007	8b 45 fc	 mov	 eax, DWORD PTR _this$[ebp]
  0000a	c7 00 00 00 00
	00		 mov	 DWORD PTR [eax], OFFSET ??_7exception@std@@6B@

; 71   :         : _Data()

  00010	33 c0		 xor	 eax, eax
  00012	8b 4d fc	 mov	 ecx, DWORD PTR _this$[ebp]
  00015	83 c1 04	 add	 ecx, 4
  00018	89 01		 mov	 DWORD PTR [ecx], eax
  0001a	89 41 04	 mov	 DWORD PTR [ecx+4], eax

; 73   :         __std_exception_copy(&_Other._Data, &_Data);

  0001d	8b 45 fc	 mov	 eax, DWORD PTR _this$[ebp]
  00020	83 c0 04	 add	 eax, 4
  00023	50		 push	 eax
  00024	8b 45 08	 mov	 eax, DWORD PTR __Other$[ebp]
  00027	83 c0 04	 add	 eax, 4
  0002a	50		 push	 eax
  0002b	e8 00 00 00 00	 call	 ___std_exception_copy
  00030	59		 pop	 ecx
  00031	59		 pop	 ecx

; 74   :     }

  00032	8b 45 fc	 mov	 eax, DWORD PTR _this$[ebp]
  00035	c9		 leave
  00036	c2 04 00	 ret	 4
??0exception@std@@QAE@ABV01@@Z ENDP			; std::exception::exception
_TEXT	ENDS
END
