; Listing generated by Microsoft (R) Optimizing Compiler Version 19.28.29335.0 

	TITLE	D:\Metin2 Server Files\mainline\SRC_2014\Metin2Client\GameLib\PhysicsObject.cpp
	.686P
	.XMM
	include listing.inc
	.model	flat

INCLUDELIB LIBCMT
INCLUDELIB OLDNAMES

PUBLIC	?ms_pWorld@IPhysicsWorld@@0PAV1@A		; IPhysicsWorld::ms_pWorld
PUBLIC	?ms_ObjManager@IObjectManager@@0PAV1@A		; IObjectManager::ms_ObjManager
_BSS	SEGMENT
?ms_pWorld@IPhysicsWorld@@0PAV1@A DD 01H DUP (?)	; IPhysicsWorld::ms_pWorld
?ms_ObjManager@IObjectManager@@0PAV1@A DD 01H DUP (?)	; IObjectManager::ms_ObjManager
_BSS	ENDS
PUBLIC	??0CPhysicsObject@@QAE@XZ			; CPhysicsObject::CPhysicsObject
PUBLIC	??1CPhysicsObject@@UAE@XZ			; CPhysicsObject::~CPhysicsObject
PUBLIC	?Initialize@CPhysicsObject@@QAEXXZ		; CPhysicsObject::Initialize
PUBLIC	?Update@CPhysicsObject@@QAEXM@Z			; CPhysicsObject::Update
PUBLIC	?isBlending@CPhysicsObject@@QAE_NXZ		; CPhysicsObject::isBlending
PUBLIC	?SetDirection@CPhysicsObject@@QAEXABUD3DXVECTOR3@@@Z ; CPhysicsObject::SetDirection
PUBLIC	?IncreaseExternalForce@CPhysicsObject@@QAEXABUD3DXVECTOR3@@M@Z ; CPhysicsObject::IncreaseExternalForce
PUBLIC	?SetLastPosition@CPhysicsObject@@QAEXABUD3DXVECTOR3@@M@Z ; CPhysicsObject::SetLastPosition
PUBLIC	?GetLastPosition@CPhysicsObject@@QAEXPAUD3DXVECTOR3@@@Z ; CPhysicsObject::GetLastPosition
PUBLIC	?GetXMovement@CPhysicsObject@@QAEMXZ		; CPhysicsObject::GetXMovement
PUBLIC	?GetYMovement@CPhysicsObject@@QAEMXZ		; CPhysicsObject::GetYMovement
PUBLIC	?Accumulate@CPhysicsObject@@IAEXPAUD3DXVECTOR3@@@Z ; CPhysicsObject::Accumulate
PUBLIC	??_GCPhysicsObject@@UAEPAXI@Z			; CPhysicsObject::`scalar deleting destructor'
PUBLIC	??_7CPhysicsObject@@6B@				; CPhysicsObject::`vftable'
PUBLIC	??_R4CPhysicsObject@@6B@			; CPhysicsObject::`RTTI Complete Object Locator'
PUBLIC	??_R0?AVCPhysicsObject@@@8			; CPhysicsObject `RTTI Type Descriptor'
PUBLIC	??_R3CPhysicsObject@@8				; CPhysicsObject::`RTTI Class Hierarchy Descriptor'
PUBLIC	??_R2CPhysicsObject@@8				; CPhysicsObject::`RTTI Base Class Array'
PUBLIC	??_R1A@?0A@EA@CPhysicsObject@@8			; CPhysicsObject::`RTTI Base Class Descriptor at (0,-1,0,64)'
PUBLIC	__real@3a83126f
PUBLIC	__real@3e99999a
PUBLIC	__real@3f800000
PUBLIC	__real@40000000
EXTRN	??3@YAXPAXI@Z:PROC				; operator delete
EXTRN	_fabs:PROC
EXTRN	_sqrt:PROC
EXTRN	??0CEaseOutInterpolation@@QAE@XZ:PROC		; CEaseOutInterpolation::CEaseOutInterpolation
EXTRN	??1CEaseOutInterpolation@@UAE@XZ:PROC		; CEaseOutInterpolation::~CEaseOutInterpolation
EXTRN	?Initialize@CEaseOutInterpolation@@QAEXXZ:PROC	; CEaseOutInterpolation::Initialize
EXTRN	?Setup@CEaseOutInterpolation@@QAEHMMM@Z:PROC	; CEaseOutInterpolation::Setup
EXTRN	?Interpolate@CEaseOutInterpolation@@QAEXM@Z:PROC ; CEaseOutInterpolation::Interpolate
EXTRN	?isPlaying@CEaseOutInterpolation@@QAEHXZ:PROC	; CEaseOutInterpolation::isPlaying
EXTRN	?GetChangingValue@CEaseOutInterpolation@@QAEMXZ:PROC ; CEaseOutInterpolation::GetChangingValue
EXTRN	??_ECPhysicsObject@@UAEPAXI@Z:PROC		; CPhysicsObject::`vector deleting destructor'
EXTRN	@__security_check_cookie@4:PROC
EXTRN	___CxxFrameHandler3:PROC
EXTRN	??_7type_info@@6B@:QWORD			; type_info::`vftable'
EXTRN	___security_cookie:DWORD
EXTRN	__fltused:DWORD
;	COMDAT __real@40000000
CONST	SEGMENT
__real@40000000 DD 040000000r			; 2
CONST	ENDS
;	COMDAT __real@3f800000
CONST	SEGMENT
__real@3f800000 DD 03f800000r			; 1
CONST	ENDS
;	COMDAT __real@3e99999a
CONST	SEGMENT
__real@3e99999a DD 03e99999ar			; 0.3
CONST	ENDS
;	COMDAT __real@3a83126f
CONST	SEGMENT
__real@3a83126f DD 03a83126fr			; 0.001
CONST	ENDS
;	COMDAT ??_R1A@?0A@EA@CPhysicsObject@@8
rdata$r	SEGMENT
??_R1A@?0A@EA@CPhysicsObject@@8 DD FLAT:??_R0?AVCPhysicsObject@@@8 ; CPhysicsObject::`RTTI Base Class Descriptor at (0,-1,0,64)'
	DD	00H
	DD	00H
	DD	0ffffffffH
	DD	00H
	DD	040H
	DD	FLAT:??_R3CPhysicsObject@@8
rdata$r	ENDS
;	COMDAT ??_R2CPhysicsObject@@8
rdata$r	SEGMENT
??_R2CPhysicsObject@@8 DD FLAT:??_R1A@?0A@EA@CPhysicsObject@@8 ; CPhysicsObject::`RTTI Base Class Array'
rdata$r	ENDS
;	COMDAT ??_R3CPhysicsObject@@8
rdata$r	SEGMENT
??_R3CPhysicsObject@@8 DD 00H				; CPhysicsObject::`RTTI Class Hierarchy Descriptor'
	DD	00H
	DD	01H
	DD	FLAT:??_R2CPhysicsObject@@8
rdata$r	ENDS
;	COMDAT ??_R0?AVCPhysicsObject@@@8
data$rs	SEGMENT
??_R0?AVCPhysicsObject@@@8 DD FLAT:??_7type_info@@6B@	; CPhysicsObject `RTTI Type Descriptor'
	DD	00H
	DB	'.?AVCPhysicsObject@@', 00H
data$rs	ENDS
;	COMDAT ??_R4CPhysicsObject@@6B@
rdata$r	SEGMENT
??_R4CPhysicsObject@@6B@ DD 00H				; CPhysicsObject::`RTTI Complete Object Locator'
	DD	00H
	DD	00H
	DD	FLAT:??_R0?AVCPhysicsObject@@@8
	DD	FLAT:??_R3CPhysicsObject@@8
rdata$r	ENDS
;	COMDAT ??_7CPhysicsObject@@6B@
CONST	SEGMENT
??_7CPhysicsObject@@6B@ DD FLAT:??_R4CPhysicsObject@@6B@ ; CPhysicsObject::`vftable'
	DD	FLAT:??_ECPhysicsObject@@UAEPAXI@Z
CONST	ENDS
;	COMDAT xdata$x
xdata$x	SEGMENT
__unwindtable$??0CPhysicsObject@@QAE@XZ DD 0ffffffffH
	DD	FLAT:__unwindfunclet$??0CPhysicsObject@@QAE@XZ$0
__ehfuncinfo$??0CPhysicsObject@@QAE@XZ DD 019930522H
	DD	01H
	DD	FLAT:__unwindtable$??0CPhysicsObject@@QAE@XZ
	DD	2 DUP(00H)
	DD	2 DUP(00H)
	DD	00H
	DD	01H
xdata$x	ENDS
; Function compile flags: /Odspy
;	COMDAT ??_GCPhysicsObject@@UAEPAXI@Z
_TEXT	SEGMENT
_this$ = -4						; size = 4
___flags$ = 8						; size = 4
??_GCPhysicsObject@@UAEPAXI@Z PROC			; CPhysicsObject::`scalar deleting destructor', COMDAT
; _this$ = ecx
  00000	55		 push	 ebp
  00001	8b ec		 mov	 ebp, esp
  00003	51		 push	 ecx
  00004	89 4d fc	 mov	 DWORD PTR _this$[ebp], ecx
  00007	8b 4d fc	 mov	 ecx, DWORD PTR _this$[ebp]
  0000a	e8 00 00 00 00	 call	 ??1CPhysicsObject@@UAE@XZ ; CPhysicsObject::~CPhysicsObject
  0000f	8b 45 08	 mov	 eax, DWORD PTR ___flags$[ebp]
  00012	83 e0 01	 and	 eax, 1
  00015	74 0c		 je	 SHORT $LN2@scalar
  00017	6a 78		 push	 120			; 00000078H
  00019	ff 75 fc	 push	 DWORD PTR _this$[ebp]
  0001c	e8 00 00 00 00	 call	 ??3@YAXPAXI@Z		; operator delete
  00021	59		 pop	 ecx
  00022	59		 pop	 ecx
$LN2@scalar:
  00023	8b 45 fc	 mov	 eax, DWORD PTR _this$[ebp]
  00026	c9		 leave
  00027	c2 04 00	 ret	 4
??_GCPhysicsObject@@UAEPAXI@Z ENDP			; CPhysicsObject::`scalar deleting destructor'
_TEXT	ENDS
; Function compile flags: /Odspy
; File D:\Metin2 Server Files\mainline\SRC_2014\Metin2Client\GameLib\PhysicsObject.cpp
; File C:\Program Files (x86)\Windows Kits\10\Include\10.0.18362.0\ucrt\corecrt_math.h
; File C:\Program Files (x86)\Microsoft Visual Studio\2019\Community\VC\Tools\MSVC\14.28.29333\include\cmath
; File D:\Metin2 Server Files\mainline\SRC_2014\Metin2Client\GameLib\PhysicsObject.cpp
; File C:\Program Files (x86)\Windows Kits\10\Include\10.0.18362.0\ucrt\corecrt_math.h
; File C:\Program Files (x86)\Microsoft Visual Studio\2019\Community\VC\Tools\MSVC\14.28.29333\include\cmath
; File D:\Metin2 Server Files\mainline\SRC_2014\Metin2Client\GameLib\PhysicsObject.cpp
; File C:\Program Files (x86)\Windows Kits\10\Include\10.0.18362.0\ucrt\corecrt_math.h
; File C:\Program Files (x86)\Microsoft Visual Studio\2019\Community\VC\Tools\MSVC\14.28.29333\include\cmath
; File D:\Metin2 Server Files\mainline\SRC_2014\Metin2Client\GameLib\PhysicsObject.cpp
; File D:\Metin2 Server Files\mainline\SRC_2014\M2Data\include\d3dx8math.inl
; File D:\Metin2 Server Files\mainline\SRC_2014\Metin2Client\GameLib\PhysicsObject.cpp
; File D:\Metin2 Server Files\mainline\SRC_2014\M2Data\include\d3dx8math.inl
; File D:\Metin2 Server Files\mainline\SRC_2014\Metin2Client\GameLib\PhysicsObject.cpp
;	COMDAT ?Accumulate@CPhysicsObject@@IAEXPAUD3DXVECTOR3@@@Z
_TEXT	SEGMENT
_fz$ = -76						; size = 4
_fy$ = -72						; size = 4
_fx$ = -68						; size = 4
$T1 = -64						; size = 4
__Xx$ = -60						; size = 4
$T2 = -56						; size = 4
__Xx$ = -52						; size = 4
$T3 = -48						; size = 4
__Xx$ = -44						; size = 4
_v$ = -40						; size = 4
_f$ = -36						; size = 4
_this$ = -32						; size = 4
_fForce$ = -28						; size = 4
_this$ = -24						; size = 4
_this$ = -20						; size = 4
$T4 = -16						; size = 12
__$ArrayPad$ = -4					; size = 4
_pv3Position$ = 8					; size = 4
?Accumulate@CPhysicsObject@@IAEXPAUD3DXVECTOR3@@@Z PROC	; CPhysicsObject::Accumulate, COMDAT
; _this$ = ecx

; 19   : {

  00000	55		 push	 ebp
  00001	8b ec		 mov	 ebp, esp
  00003	83 ec 4c	 sub	 esp, 76			; 0000004cH
  00006	a1 00 00 00 00	 mov	 eax, DWORD PTR ___security_cookie
  0000b	33 c5		 xor	 eax, ebp
  0000d	89 45 fc	 mov	 DWORD PTR __$ArrayPad$[ebp], eax
  00010	56		 push	 esi
  00011	57		 push	 edi
  00012	89 4d ec	 mov	 DWORD PTR _this$[ebp], ecx

; 20   : 	// If object is moving, give minor power to object.
; 21   : 	float fForce = 0.0f;

  00015	0f 57 c0	 xorps	 xmm0, xmm0
  00018	f3 0f 11 45 e4	 movss	 DWORD PTR _fForce$[ebp], xmm0

; 24   : 		fabs(m_v3Velocity.y) < EPSILON ||

  0001d	8b 45 ec	 mov	 eax, DWORD PTR _this$[ebp]
  00020	f3 0f 10 40 24	 movss	 xmm0, DWORD PTR [eax+36]
  00025	f3 0f 11 45 d4	 movss	 DWORD PTR __Xx$[ebp], xmm0
; File C:\Program Files (x86)\Windows Kits\10\Include\10.0.18362.0\ucrt\corecrt_math.h

; 672  :             return (float)fabs(_X);

  0002a	f3 0f 5a 45 d4	 cvtss2sd xmm0, DWORD PTR __Xx$[ebp]
  0002f	51		 push	 ecx
  00030	51		 push	 ecx
  00031	f2 0f 11 04 24	 movsd	 QWORD PTR [esp], xmm0
  00036	e8 00 00 00 00	 call	 _fabs
  0003b	59		 pop	 ecx
  0003c	59		 pop	 ecx
; File C:\Program Files (x86)\Microsoft Visual Studio\2019\Community\VC\Tools\MSVC\14.28.29333\include\cmath

; 95   :     return _CSTD fabsf(_Xx);

  0003d	d9 5d d0	 fstp	 DWORD PTR $T3[ebp]
; File D:\Metin2 Server Files\mainline\SRC_2014\Metin2Client\GameLib\PhysicsObject.cpp

; 24   : 		fabs(m_v3Velocity.y) < EPSILON ||

  00040	f3 0f 10 05 00
	00 00 00	 movss	 xmm0, DWORD PTR __real@3a83126f
  00048	0f 2f 45 d0	 comiss	 xmm0, DWORD PTR $T3[ebp]
  0004c	77 62		 ja	 SHORT $LN3@Accumulate
  0004e	8b 45 ec	 mov	 eax, DWORD PTR _this$[ebp]
  00051	f3 0f 10 40 28	 movss	 xmm0, DWORD PTR [eax+40]
  00056	f3 0f 11 45 cc	 movss	 DWORD PTR __Xx$[ebp], xmm0
; File C:\Program Files (x86)\Windows Kits\10\Include\10.0.18362.0\ucrt\corecrt_math.h

; 672  :             return (float)fabs(_X);

  0005b	f3 0f 5a 45 cc	 cvtss2sd xmm0, DWORD PTR __Xx$[ebp]
  00060	51		 push	 ecx
  00061	51		 push	 ecx
  00062	f2 0f 11 04 24	 movsd	 QWORD PTR [esp], xmm0
  00067	e8 00 00 00 00	 call	 _fabs
  0006c	59		 pop	 ecx
  0006d	59		 pop	 ecx
; File C:\Program Files (x86)\Microsoft Visual Studio\2019\Community\VC\Tools\MSVC\14.28.29333\include\cmath

; 95   :     return _CSTD fabsf(_Xx);

  0006e	d9 5d c8	 fstp	 DWORD PTR $T2[ebp]
; File D:\Metin2 Server Files\mainline\SRC_2014\Metin2Client\GameLib\PhysicsObject.cpp

; 24   : 		fabs(m_v3Velocity.y) < EPSILON ||

  00071	f3 0f 10 05 00
	00 00 00	 movss	 xmm0, DWORD PTR __real@3a83126f
  00079	0f 2f 45 c8	 comiss	 xmm0, DWORD PTR $T2[ebp]
  0007d	77 31		 ja	 SHORT $LN3@Accumulate
  0007f	8b 45 ec	 mov	 eax, DWORD PTR _this$[ebp]
  00082	f3 0f 10 40 2c	 movss	 xmm0, DWORD PTR [eax+44]
  00087	f3 0f 11 45 c4	 movss	 DWORD PTR __Xx$[ebp], xmm0
; File C:\Program Files (x86)\Windows Kits\10\Include\10.0.18362.0\ucrt\corecrt_math.h

; 672  :             return (float)fabs(_X);

  0008c	f3 0f 5a 45 c4	 cvtss2sd xmm0, DWORD PTR __Xx$[ebp]
  00091	51		 push	 ecx
  00092	51		 push	 ecx
  00093	f2 0f 11 04 24	 movsd	 QWORD PTR [esp], xmm0
  00098	e8 00 00 00 00	 call	 _fabs
  0009d	59		 pop	 ecx
  0009e	59		 pop	 ecx
; File C:\Program Files (x86)\Microsoft Visual Studio\2019\Community\VC\Tools\MSVC\14.28.29333\include\cmath

; 95   :     return _CSTD fabsf(_Xx);

  0009f	d9 5d c0	 fstp	 DWORD PTR $T1[ebp]
; File D:\Metin2 Server Files\mainline\SRC_2014\Metin2Client\GameLib\PhysicsObject.cpp

; 24   : 		fabs(m_v3Velocity.y) < EPSILON ||

  000a2	f3 0f 10 05 00
	00 00 00	 movss	 xmm0, DWORD PTR __real@3a83126f
  000aa	0f 2f 45 c0	 comiss	 xmm0, DWORD PTR $T1[ebp]
  000ae	76 1e		 jbe	 SHORT $LN2@Accumulate
$LN3@Accumulate:

; 25   : 		fabs(m_v3Velocity.z) < EPSILON )
; 26   : 	{
; 27   : 		fForce -= (m_fMass * m_fFriction);

  000b0	8b 45 ec	 mov	 eax, DWORD PTR _this$[ebp]
  000b3	8b 4d ec	 mov	 ecx, DWORD PTR _this$[ebp]
  000b6	f3 0f 10 40 04	 movss	 xmm0, DWORD PTR [eax+4]
  000bb	f3 0f 59 41 08	 mulss	 xmm0, DWORD PTR [ecx+8]
  000c0	f3 0f 10 4d e4	 movss	 xmm1, DWORD PTR _fForce$[ebp]
  000c5	f3 0f 5c c8	 subss	 xmm1, xmm0
  000c9	f3 0f 11 4d e4	 movss	 DWORD PTR _fForce$[ebp], xmm1
$LN2@Accumulate:

; 30   : 	m_v3Acceleration = m_v3Direction * (fForce / m_fMass);

  000ce	8b 45 ec	 mov	 eax, DWORD PTR _this$[ebp]
  000d1	f3 0f 10 45 e4	 movss	 xmm0, DWORD PTR _fForce$[ebp]
  000d6	f3 0f 5e 40 04	 divss	 xmm0, DWORD PTR [eax+4]
  000db	f3 0f 11 45 dc	 movss	 DWORD PTR _f$[ebp], xmm0
  000e0	8b 45 ec	 mov	 eax, DWORD PTR _this$[ebp]
  000e3	83 c0 0c	 add	 eax, 12			; 0000000cH
  000e6	89 45 e0	 mov	 DWORD PTR _this$[ebp], eax
; File D:\Metin2 Server Files\mainline\SRC_2014\M2Data\include\d3dx8math.inl

; 269  :     return D3DXVECTOR3(x * f, y * f, z * f);

  000e9	8b 45 e0	 mov	 eax, DWORD PTR _this$[ebp]
  000ec	f3 0f 10 00	 movss	 xmm0, DWORD PTR [eax]
  000f0	f3 0f 59 45 dc	 mulss	 xmm0, DWORD PTR _f$[ebp]
  000f5	f3 0f 11 45 bc	 movss	 DWORD PTR _fx$[ebp], xmm0
  000fa	8b 45 e0	 mov	 eax, DWORD PTR _this$[ebp]
  000fd	f3 0f 10 40 04	 movss	 xmm0, DWORD PTR [eax+4]
  00102	f3 0f 59 45 dc	 mulss	 xmm0, DWORD PTR _f$[ebp]
  00107	f3 0f 11 45 b8	 movss	 DWORD PTR _fy$[ebp], xmm0
  0010c	8b 45 e0	 mov	 eax, DWORD PTR _this$[ebp]
  0010f	f3 0f 10 40 08	 movss	 xmm0, DWORD PTR [eax+8]
  00114	f3 0f 59 45 dc	 mulss	 xmm0, DWORD PTR _f$[ebp]
  00119	f3 0f 11 45 b4	 movss	 DWORD PTR _fz$[ebp], xmm0

; 180  :     x = fx;

  0011e	f3 0f 10 45 bc	 movss	 xmm0, DWORD PTR _fx$[ebp]
  00123	f3 0f 11 45 f0	 movss	 DWORD PTR $T4[ebp], xmm0

; 181  :     y = fy;

  00128	f3 0f 10 45 b8	 movss	 xmm0, DWORD PTR _fy$[ebp]
  0012d	f3 0f 11 45 f4	 movss	 DWORD PTR $T4[ebp+4], xmm0

; 182  :     z = fz;

  00132	f3 0f 10 45 b4	 movss	 xmm0, DWORD PTR _fz$[ebp]
  00137	f3 0f 11 45 f8	 movss	 DWORD PTR $T4[ebp+8], xmm0
; File D:\Metin2 Server Files\mainline\SRC_2014\Metin2Client\GameLib\PhysicsObject.cpp

; 30   : 	m_v3Acceleration = m_v3Direction * (fForce / m_fMass);

  0013c	8b 7d ec	 mov	 edi, DWORD PTR _this$[ebp]
  0013f	83 c7 18	 add	 edi, 24			; 00000018H
  00142	8d 75 f0	 lea	 esi, DWORD PTR $T4[ebp]
  00145	a5		 movsd
  00146	a5		 movsd
  00147	a5		 movsd

; 31   : 	m_v3Velocity += m_v3Acceleration;

  00148	8b 45 ec	 mov	 eax, DWORD PTR _this$[ebp]
  0014b	83 c0 18	 add	 eax, 24			; 00000018H
  0014e	89 45 d8	 mov	 DWORD PTR _v$[ebp], eax
  00151	8b 45 ec	 mov	 eax, DWORD PTR _this$[ebp]
  00154	83 c0 24	 add	 eax, 36			; 00000024H
  00157	89 45 e8	 mov	 DWORD PTR _this$[ebp], eax
; File D:\Metin2 Server Files\mainline\SRC_2014\M2Data\include\d3dx8math.inl

; 204  :     x += v.x;

  0015a	8b 45 e8	 mov	 eax, DWORD PTR _this$[ebp]
  0015d	8b 4d d8	 mov	 ecx, DWORD PTR _v$[ebp]
  00160	f3 0f 10 00	 movss	 xmm0, DWORD PTR [eax]
  00164	f3 0f 58 01	 addss	 xmm0, DWORD PTR [ecx]
  00168	8b 45 e8	 mov	 eax, DWORD PTR _this$[ebp]
  0016b	f3 0f 11 00	 movss	 DWORD PTR [eax], xmm0

; 205  :     y += v.y;

  0016f	8b 45 e8	 mov	 eax, DWORD PTR _this$[ebp]
  00172	8b 4d d8	 mov	 ecx, DWORD PTR _v$[ebp]
  00175	f3 0f 10 40 04	 movss	 xmm0, DWORD PTR [eax+4]
  0017a	f3 0f 58 41 04	 addss	 xmm0, DWORD PTR [ecx+4]
  0017f	8b 45 e8	 mov	 eax, DWORD PTR _this$[ebp]
  00182	f3 0f 11 40 04	 movss	 DWORD PTR [eax+4], xmm0

; 206  :     z += v.z;

  00187	8b 45 e8	 mov	 eax, DWORD PTR _this$[ebp]
  0018a	8b 4d d8	 mov	 ecx, DWORD PTR _v$[ebp]
  0018d	f3 0f 10 40 08	 movss	 xmm0, DWORD PTR [eax+8]
  00192	f3 0f 58 41 08	 addss	 xmm0, DWORD PTR [ecx+8]
  00197	8b 45 e8	 mov	 eax, DWORD PTR _this$[ebp]
  0019a	f3 0f 11 40 08	 movss	 DWORD PTR [eax+8], xmm0
; File D:\Metin2 Server Files\mainline\SRC_2014\Metin2Client\GameLib\PhysicsObject.cpp

; 32   : 	if (m_v3Velocity.x * m_v3Direction.x < EPSILON)

  0019f	8b 45 ec	 mov	 eax, DWORD PTR _this$[ebp]
  001a2	8b 4d ec	 mov	 ecx, DWORD PTR _this$[ebp]
  001a5	f3 0f 10 40 24	 movss	 xmm0, DWORD PTR [eax+36]
  001aa	f3 0f 59 41 0c	 mulss	 xmm0, DWORD PTR [ecx+12]
  001af	f3 0f 10 0d 00
	00 00 00	 movss	 xmm1, DWORD PTR __real@3a83126f
  001b7	0f 2f c8	 comiss	 xmm1, xmm0
  001ba	76 16		 jbe	 SHORT $LN4@Accumulate

; 33   : 	{
; 34   : 		m_v3Velocity.x = 0.0f;

  001bc	8b 45 ec	 mov	 eax, DWORD PTR _this$[ebp]
  001bf	0f 57 c0	 xorps	 xmm0, xmm0
  001c2	f3 0f 11 40 24	 movss	 DWORD PTR [eax+36], xmm0

; 35   : 		m_v3Direction.x = 0.0f;

  001c7	8b 45 ec	 mov	 eax, DWORD PTR _this$[ebp]
  001ca	0f 57 c0	 xorps	 xmm0, xmm0
  001cd	f3 0f 11 40 0c	 movss	 DWORD PTR [eax+12], xmm0
$LN4@Accumulate:

; 36   : 	}
; 37   : 	if (m_v3Velocity.y * m_v3Direction.y < EPSILON)

  001d2	8b 45 ec	 mov	 eax, DWORD PTR _this$[ebp]
  001d5	8b 4d ec	 mov	 ecx, DWORD PTR _this$[ebp]
  001d8	f3 0f 10 40 28	 movss	 xmm0, DWORD PTR [eax+40]
  001dd	f3 0f 59 41 10	 mulss	 xmm0, DWORD PTR [ecx+16]
  001e2	f3 0f 10 0d 00
	00 00 00	 movss	 xmm1, DWORD PTR __real@3a83126f
  001ea	0f 2f c8	 comiss	 xmm1, xmm0
  001ed	76 16		 jbe	 SHORT $LN5@Accumulate

; 38   : 	{
; 39   : 		m_v3Velocity.y = 0.0f;

  001ef	8b 45 ec	 mov	 eax, DWORD PTR _this$[ebp]
  001f2	0f 57 c0	 xorps	 xmm0, xmm0
  001f5	f3 0f 11 40 28	 movss	 DWORD PTR [eax+40], xmm0

; 40   : 		m_v3Direction.y = 0.0f;

  001fa	8b 45 ec	 mov	 eax, DWORD PTR _this$[ebp]
  001fd	0f 57 c0	 xorps	 xmm0, xmm0
  00200	f3 0f 11 40 10	 movss	 DWORD PTR [eax+16], xmm0
$LN5@Accumulate:

; 41   : 	}
; 42   : 	if (m_v3Velocity.z * m_v3Direction.z < EPSILON)

  00205	8b 45 ec	 mov	 eax, DWORD PTR _this$[ebp]
  00208	8b 4d ec	 mov	 ecx, DWORD PTR _this$[ebp]
  0020b	f3 0f 10 40 2c	 movss	 xmm0, DWORD PTR [eax+44]
  00210	f3 0f 59 41 14	 mulss	 xmm0, DWORD PTR [ecx+20]
  00215	f3 0f 10 0d 00
	00 00 00	 movss	 xmm1, DWORD PTR __real@3a83126f
  0021d	0f 2f c8	 comiss	 xmm1, xmm0
  00220	76 16		 jbe	 SHORT $LN6@Accumulate

; 43   : 	{
; 44   : 		m_v3Velocity.z = 0.0f;

  00222	8b 45 ec	 mov	 eax, DWORD PTR _this$[ebp]
  00225	0f 57 c0	 xorps	 xmm0, xmm0
  00228	f3 0f 11 40 2c	 movss	 DWORD PTR [eax+44], xmm0

; 45   : 		m_v3Direction.z = 0.0f;

  0022d	8b 45 ec	 mov	 eax, DWORD PTR _this$[ebp]
  00230	0f 57 c0	 xorps	 xmm0, xmm0
  00233	f3 0f 11 40 14	 movss	 DWORD PTR [eax+20], xmm0
$LN6@Accumulate:

; 46   : 	}
; 47   : 
; 48   : 	pv3Position->x += m_v3Velocity.x;

  00238	8b 45 08	 mov	 eax, DWORD PTR _pv3Position$[ebp]
  0023b	8b 4d ec	 mov	 ecx, DWORD PTR _this$[ebp]
  0023e	f3 0f 10 00	 movss	 xmm0, DWORD PTR [eax]
  00242	f3 0f 58 41 24	 addss	 xmm0, DWORD PTR [ecx+36]
  00247	8b 45 08	 mov	 eax, DWORD PTR _pv3Position$[ebp]
  0024a	f3 0f 11 00	 movss	 DWORD PTR [eax], xmm0

; 49   : 	pv3Position->y += m_v3Velocity.y;

  0024e	8b 45 08	 mov	 eax, DWORD PTR _pv3Position$[ebp]
  00251	8b 4d ec	 mov	 ecx, DWORD PTR _this$[ebp]
  00254	f3 0f 10 40 04	 movss	 xmm0, DWORD PTR [eax+4]
  00259	f3 0f 58 41 28	 addss	 xmm0, DWORD PTR [ecx+40]
  0025e	8b 45 08	 mov	 eax, DWORD PTR _pv3Position$[ebp]
  00261	f3 0f 11 40 04	 movss	 DWORD PTR [eax+4], xmm0

; 50   : 	pv3Position->z += m_v3Velocity.z;

  00266	8b 45 08	 mov	 eax, DWORD PTR _pv3Position$[ebp]
  00269	8b 4d ec	 mov	 ecx, DWORD PTR _this$[ebp]
  0026c	f3 0f 10 40 08	 movss	 xmm0, DWORD PTR [eax+8]
  00271	f3 0f 58 41 2c	 addss	 xmm0, DWORD PTR [ecx+44]
  00276	8b 45 08	 mov	 eax, DWORD PTR _pv3Position$[ebp]
  00279	f3 0f 11 40 08	 movss	 DWORD PTR [eax+8], xmm0

; 51   : }

  0027e	5f		 pop	 edi
  0027f	5e		 pop	 esi
  00280	8b 4d fc	 mov	 ecx, DWORD PTR __$ArrayPad$[ebp]
  00283	33 cd		 xor	 ecx, ebp
  00285	e8 00 00 00 00	 call	 @__security_check_cookie@4
  0028a	c9		 leave
  0028b	c2 04 00	 ret	 4
?Accumulate@CPhysicsObject@@IAEXPAUD3DXVECTOR3@@@Z ENDP	; CPhysicsObject::Accumulate
_TEXT	ENDS
; Function compile flags: /Odspy
; File D:\Metin2 Server Files\mainline\SRC_2014\Metin2Client\GameLib\PhysicsObject.cpp
;	COMDAT ?GetYMovement@CPhysicsObject@@QAEMXZ
_TEXT	SEGMENT
_this$ = -4						; size = 4
?GetYMovement@CPhysicsObject@@QAEMXZ PROC		; CPhysicsObject::GetYMovement, COMDAT
; _this$ = ecx

; 139  : {

  00000	55		 push	 ebp
  00001	8b ec		 mov	 ebp, esp
  00003	51		 push	 ecx
  00004	89 4d fc	 mov	 DWORD PTR _this$[ebp], ecx

; 140  : 	return m_yPushingPosition.GetChangingValue();

  00007	8b 4d fc	 mov	 ecx, DWORD PTR _this$[ebp]
  0000a	83 c1 58	 add	 ecx, 88			; 00000058H
  0000d	e8 00 00 00 00	 call	 ?GetChangingValue@CEaseOutInterpolation@@QAEMXZ ; CEaseOutInterpolation::GetChangingValue

; 141  : }

  00012	c9		 leave
  00013	c3		 ret	 0
?GetYMovement@CPhysicsObject@@QAEMXZ ENDP		; CPhysicsObject::GetYMovement
_TEXT	ENDS
; Function compile flags: /Odspy
; File D:\Metin2 Server Files\mainline\SRC_2014\Metin2Client\GameLib\PhysicsObject.cpp
;	COMDAT ?GetXMovement@CPhysicsObject@@QAEMXZ
_TEXT	SEGMENT
_this$ = -4						; size = 4
?GetXMovement@CPhysicsObject@@QAEMXZ PROC		; CPhysicsObject::GetXMovement, COMDAT
; _this$ = ecx

; 134  : {

  00000	55		 push	 ebp
  00001	8b ec		 mov	 ebp, esp
  00003	51		 push	 ecx
  00004	89 4d fc	 mov	 DWORD PTR _this$[ebp], ecx

; 135  : 	return m_xPushingPosition.GetChangingValue();

  00007	8b 4d fc	 mov	 ecx, DWORD PTR _this$[ebp]
  0000a	83 c1 3c	 add	 ecx, 60			; 0000003cH
  0000d	e8 00 00 00 00	 call	 ?GetChangingValue@CEaseOutInterpolation@@QAEMXZ ; CEaseOutInterpolation::GetChangingValue

; 136  : }

  00012	c9		 leave
  00013	c3		 ret	 0
?GetXMovement@CPhysicsObject@@QAEMXZ ENDP		; CPhysicsObject::GetXMovement
_TEXT	ENDS
; Function compile flags: /Odspy
; File D:\Metin2 Server Files\mainline\SRC_2014\Metin2Client\GameLib\PhysicsObject.cpp
;	COMDAT ?GetLastPosition@CPhysicsObject@@QAEXPAUD3DXVECTOR3@@@Z
_TEXT	SEGMENT
_this$ = -4						; size = 4
_pPosition$ = 8						; size = 4
?GetLastPosition@CPhysicsObject@@QAEXPAUD3DXVECTOR3@@@Z PROC ; CPhysicsObject::GetLastPosition, COMDAT
; _this$ = ecx

; 120  : {

  00000	55		 push	 ebp
  00001	8b ec		 mov	 ebp, esp
  00003	51		 push	 ecx
  00004	89 4d fc	 mov	 DWORD PTR _this$[ebp], ecx

; 121  : 	pPosition->x = (m_v3LastPosition.x);

  00007	8b 45 08	 mov	 eax, DWORD PTR _pPosition$[ebp]
  0000a	8b 4d fc	 mov	 ecx, DWORD PTR _this$[ebp]
  0000d	8b 49 30	 mov	 ecx, DWORD PTR [ecx+48]
  00010	89 08		 mov	 DWORD PTR [eax], ecx

; 122  : 	pPosition->y = (m_v3LastPosition.y);

  00012	8b 45 08	 mov	 eax, DWORD PTR _pPosition$[ebp]
  00015	8b 4d fc	 mov	 ecx, DWORD PTR _this$[ebp]
  00018	8b 49 34	 mov	 ecx, DWORD PTR [ecx+52]
  0001b	89 48 04	 mov	 DWORD PTR [eax+4], ecx

; 123  : 	pPosition->z = (m_v3LastPosition.z);

  0001e	8b 45 08	 mov	 eax, DWORD PTR _pPosition$[ebp]
  00021	8b 4d fc	 mov	 ecx, DWORD PTR _this$[ebp]
  00024	8b 49 38	 mov	 ecx, DWORD PTR [ecx+56]
  00027	89 48 08	 mov	 DWORD PTR [eax+8], ecx

; 124  : }

  0002a	c9		 leave
  0002b	c2 04 00	 ret	 4
?GetLastPosition@CPhysicsObject@@QAEXPAUD3DXVECTOR3@@@Z ENDP ; CPhysicsObject::GetLastPosition
_TEXT	ENDS
; Function compile flags: /Odspy
; File D:\Metin2 Server Files\mainline\SRC_2014\Metin2Client\GameLib\PhysicsObject.cpp
;	COMDAT ?SetLastPosition@CPhysicsObject@@QAEXABUD3DXVECTOR3@@M@Z
_TEXT	SEGMENT
_this$ = -4						; size = 4
_c_rPosition$ = 8					; size = 4
_fBlendingTime$ = 12					; size = 4
?SetLastPosition@CPhysicsObject@@QAEXABUD3DXVECTOR3@@M@Z PROC ; CPhysicsObject::SetLastPosition, COMDAT
; _this$ = ecx

; 111  : {

  00000	55		 push	 ebp
  00001	8b ec		 mov	 ebp, esp
  00003	51		 push	 ecx
  00004	89 4d fc	 mov	 DWORD PTR _this$[ebp], ecx

; 112  : 	m_v3LastPosition.x = float(c_rPosition.x);

  00007	8b 45 fc	 mov	 eax, DWORD PTR _this$[ebp]
  0000a	8b 4d 08	 mov	 ecx, DWORD PTR _c_rPosition$[ebp]
  0000d	8b 09		 mov	 ecx, DWORD PTR [ecx]
  0000f	89 48 30	 mov	 DWORD PTR [eax+48], ecx

; 113  : 	m_v3LastPosition.y = float(c_rPosition.y);

  00012	8b 45 fc	 mov	 eax, DWORD PTR _this$[ebp]
  00015	8b 4d 08	 mov	 ecx, DWORD PTR _c_rPosition$[ebp]
  00018	8b 49 04	 mov	 ecx, DWORD PTR [ecx+4]
  0001b	89 48 34	 mov	 DWORD PTR [eax+52], ecx

; 114  : 	m_v3LastPosition.z = float(c_rPosition.z);

  0001e	8b 45 fc	 mov	 eax, DWORD PTR _this$[ebp]
  00021	8b 4d 08	 mov	 ecx, DWORD PTR _c_rPosition$[ebp]
  00024	8b 49 08	 mov	 ecx, DWORD PTR [ecx+8]
  00027	89 48 38	 mov	 DWORD PTR [eax+56], ecx

; 115  : 	m_xPushingPosition.Setup(0.0f, c_rPosition.x, fBlendingTime);

  0002a	51		 push	 ecx
  0002b	f3 0f 10 45 0c	 movss	 xmm0, DWORD PTR _fBlendingTime$[ebp]
  00030	f3 0f 11 04 24	 movss	 DWORD PTR [esp], xmm0
  00035	8b 45 08	 mov	 eax, DWORD PTR _c_rPosition$[ebp]
  00038	51		 push	 ecx
  00039	f3 0f 10 00	 movss	 xmm0, DWORD PTR [eax]
  0003d	f3 0f 11 04 24	 movss	 DWORD PTR [esp], xmm0
  00042	51		 push	 ecx
  00043	0f 57 c0	 xorps	 xmm0, xmm0
  00046	f3 0f 11 04 24	 movss	 DWORD PTR [esp], xmm0
  0004b	8b 4d fc	 mov	 ecx, DWORD PTR _this$[ebp]
  0004e	83 c1 3c	 add	 ecx, 60			; 0000003cH
  00051	e8 00 00 00 00	 call	 ?Setup@CEaseOutInterpolation@@QAEHMMM@Z ; CEaseOutInterpolation::Setup

; 116  : 	m_yPushingPosition.Setup(0.0f, c_rPosition.y, fBlendingTime);

  00056	51		 push	 ecx
  00057	f3 0f 10 45 0c	 movss	 xmm0, DWORD PTR _fBlendingTime$[ebp]
  0005c	f3 0f 11 04 24	 movss	 DWORD PTR [esp], xmm0
  00061	8b 45 08	 mov	 eax, DWORD PTR _c_rPosition$[ebp]
  00064	51		 push	 ecx
  00065	f3 0f 10 40 04	 movss	 xmm0, DWORD PTR [eax+4]
  0006a	f3 0f 11 04 24	 movss	 DWORD PTR [esp], xmm0
  0006f	51		 push	 ecx
  00070	0f 57 c0	 xorps	 xmm0, xmm0
  00073	f3 0f 11 04 24	 movss	 DWORD PTR [esp], xmm0
  00078	8b 4d fc	 mov	 ecx, DWORD PTR _this$[ebp]
  0007b	83 c1 58	 add	 ecx, 88			; 00000058H
  0007e	e8 00 00 00 00	 call	 ?Setup@CEaseOutInterpolation@@QAEHMMM@Z ; CEaseOutInterpolation::Setup

; 117  : }

  00083	c9		 leave
  00084	c2 08 00	 ret	 8
?SetLastPosition@CPhysicsObject@@QAEXABUD3DXVECTOR3@@M@Z ENDP ; CPhysicsObject::SetLastPosition
_TEXT	ENDS
; Function compile flags: /Odspy
; File D:\Metin2 Server Files\mainline\SRC_2014\Metin2Client\GameLib\PhysicsObject.cpp
; File D:\Metin2 Server Files\mainline\SRC_2014\M2Data\include\d3dx8math.inl
; File D:\Metin2 Server Files\mainline\SRC_2014\Metin2Client\GameLib\PhysicsObject.cpp
; File D:\Metin2 Server Files\mainline\SRC_2014\M2Data\include\d3dx8math.inl
; File D:\Metin2 Server Files\mainline\SRC_2014\Metin2Client\GameLib\PhysicsObject.cpp
; File D:\Metin2 Server Files\mainline\SRC_2014\M2Data\include\d3dx8math.inl
; File D:\Metin2 Server Files\mainline\SRC_2014\Metin2Client\GameLib\PhysicsObject.cpp
; File C:\Program Files (x86)\Windows Kits\10\Include\10.0.18362.0\ucrt\corecrt_math.h
; File C:\Program Files (x86)\Microsoft Visual Studio\2019\Community\VC\Tools\MSVC\14.28.29333\include\cmath
; File D:\Metin2 Server Files\mainline\SRC_2014\Metin2Client\GameLib\PhysicsObject.cpp
; File C:\Program Files (x86)\Windows Kits\10\Include\10.0.18362.0\ucrt\corecrt_math.h
; File C:\Program Files (x86)\Microsoft Visual Studio\2019\Community\VC\Tools\MSVC\14.28.29333\include\cmath
; File D:\Metin2 Server Files\mainline\SRC_2014\Metin2Client\GameLib\PhysicsObject.cpp
; File C:\Program Files (x86)\Windows Kits\10\Include\10.0.18362.0\ucrt\corecrt_math.h
; File C:\Program Files (x86)\Microsoft Visual Studio\2019\Community\VC\Tools\MSVC\14.28.29333\include\cmath
; File D:\Metin2 Server Files\mainline\SRC_2014\Metin2Client\GameLib\PhysicsObject.cpp
;	COMDAT ?IncreaseExternalForce@CPhysicsObject@@QAEXABUD3DXVECTOR3@@M@Z
_TEXT	SEGMENT
_LoopValue$ = -116					; size = 4
$T1 = -112						; size = 4
__Xx$ = -108						; size = 4
$T2 = -104						; size = 4
__Xx$ = -100						; size = 4
$T3 = -96						; size = 4
__Xx$ = -92						; size = 4
_fz$ = -88						; size = 4
_fy$ = -84						; size = 4
_fx$ = -80						; size = 4
_fz$ = -76						; size = 4
_fy$ = -72						; size = 4
_fx$ = -68						; size = 4
_pObjectManager$4 = -64					; size = 4
_pWorld$5 = -60						; size = 4
_i$6 = -56						; size = 4
_f$ = -52						; size = 4
_this$ = -48						; size = 4
_this$ = -44						; size = 4
$T7 = -40						; size = 12
$T8 = -28						; size = 12
_v3Movement$ = -16					; size = 12
__$ArrayPad$ = -4					; size = 4
_c_rvBasePosition$ = 8					; size = 4
_fForce$ = 12						; size = 4
?IncreaseExternalForce@CPhysicsObject@@QAEXABUD3DXVECTOR3@@M@Z PROC ; CPhysicsObject::IncreaseExternalForce, COMDAT
; _this$ = ecx

; 54   : {	

  00000	55		 push	 ebp
  00001	8b ec		 mov	 ebp, esp
  00003	83 ec 74	 sub	 esp, 116		; 00000074H
  00006	a1 00 00 00 00	 mov	 eax, DWORD PTR ___security_cookie
  0000b	33 c5		 xor	 eax, ebp
  0000d	89 45 fc	 mov	 DWORD PTR __$ArrayPad$[ebp], eax
  00010	56		 push	 esi
  00011	57		 push	 edi
  00012	89 4d d4	 mov	 DWORD PTR _this$[ebp], ecx

; 56   : 	m_v3Acceleration = m_v3Direction * (fForce / m_fMass);

  00015	8b 45 d4	 mov	 eax, DWORD PTR _this$[ebp]
  00018	f3 0f 10 45 0c	 movss	 xmm0, DWORD PTR _fForce$[ebp]
  0001d	f3 0f 5e 40 04	 divss	 xmm0, DWORD PTR [eax+4]
  00022	f3 0f 11 45 cc	 movss	 DWORD PTR _f$[ebp], xmm0
  00027	8b 45 d4	 mov	 eax, DWORD PTR _this$[ebp]
  0002a	83 c0 0c	 add	 eax, 12			; 0000000cH
  0002d	89 45 d0	 mov	 DWORD PTR _this$[ebp], eax
; File D:\Metin2 Server Files\mainline\SRC_2014\M2Data\include\d3dx8math.inl

; 269  :     return D3DXVECTOR3(x * f, y * f, z * f);

  00030	8b 45 d0	 mov	 eax, DWORD PTR _this$[ebp]
  00033	f3 0f 10 00	 movss	 xmm0, DWORD PTR [eax]
  00037	f3 0f 59 45 cc	 mulss	 xmm0, DWORD PTR _f$[ebp]
  0003c	f3 0f 11 45 bc	 movss	 DWORD PTR _fx$[ebp], xmm0
  00041	8b 45 d0	 mov	 eax, DWORD PTR _this$[ebp]
  00044	f3 0f 10 40 04	 movss	 xmm0, DWORD PTR [eax+4]
  00049	f3 0f 59 45 cc	 mulss	 xmm0, DWORD PTR _f$[ebp]
  0004e	f3 0f 11 45 b8	 movss	 DWORD PTR _fy$[ebp], xmm0
  00053	8b 45 d0	 mov	 eax, DWORD PTR _this$[ebp]
  00056	f3 0f 10 40 08	 movss	 xmm0, DWORD PTR [eax+8]
  0005b	f3 0f 59 45 cc	 mulss	 xmm0, DWORD PTR _f$[ebp]
  00060	f3 0f 11 45 b4	 movss	 DWORD PTR _fz$[ebp], xmm0

; 180  :     x = fx;

  00065	f3 0f 10 45 bc	 movss	 xmm0, DWORD PTR _fx$[ebp]
  0006a	f3 0f 11 45 e4	 movss	 DWORD PTR $T8[ebp], xmm0

; 181  :     y = fy;

  0006f	f3 0f 10 45 b8	 movss	 xmm0, DWORD PTR _fy$[ebp]
  00074	f3 0f 11 45 e8	 movss	 DWORD PTR $T8[ebp+4], xmm0

; 182  :     z = fz;

  00079	f3 0f 10 45 b4	 movss	 xmm0, DWORD PTR _fz$[ebp]
  0007e	f3 0f 11 45 ec	 movss	 DWORD PTR $T8[ebp+8], xmm0
; File D:\Metin2 Server Files\mainline\SRC_2014\Metin2Client\GameLib\PhysicsObject.cpp

; 56   : 	m_v3Acceleration = m_v3Direction * (fForce / m_fMass);

  00083	8b 7d d4	 mov	 edi, DWORD PTR _this$[ebp]
  00086	83 c7 18	 add	 edi, 24			; 00000018H
  00089	8d 75 e4	 lea	 esi, DWORD PTR $T8[ebp]
  0008c	a5		 movsd
  0008d	a5		 movsd
  0008e	a5		 movsd

; 57   : 	m_v3Velocity = m_v3Acceleration;

  0008f	8b 75 d4	 mov	 esi, DWORD PTR _this$[ebp]
  00092	83 c6 18	 add	 esi, 24			; 00000018H
  00095	8b 7d d4	 mov	 edi, DWORD PTR _this$[ebp]
  00098	83 c7 24	 add	 edi, 36			; 00000024H
  0009b	a5		 movsd
  0009c	a5		 movsd
  0009d	a5		 movsd

; 58   : /*
; 59   : 	Tracenf("force %f, mass %f, accel (%f, %f, %f)", fForce, m_fMass, 
; 60   : 		m_v3Acceleration.x, 
; 61   : 		m_v3Acceleration.y,
; 62   : 		m_v3Acceleration.z);
; 63   : */
; 64   : 	// NOTE : 최종 위치를 구해둔다. 근데 100보다 크다면? ;
; 65   : 	const int LoopValue = 100;

  0009e	c7 45 8c 64 00
	00 00		 mov	 DWORD PTR _LoopValue$[ebp], 100 ; 00000064H
; File D:\Metin2 Server Files\mainline\SRC_2014\M2Data\include\d3dx8math.inl

; 180  :     x = fx;

  000a5	0f 57 c0	 xorps	 xmm0, xmm0
  000a8	f3 0f 11 45 f0	 movss	 DWORD PTR _v3Movement$[ebp], xmm0

; 181  :     y = fy;

  000ad	0f 57 c0	 xorps	 xmm0, xmm0
  000b0	f3 0f 11 45 f4	 movss	 DWORD PTR _v3Movement$[ebp+4], xmm0

; 182  :     z = fz;

  000b5	0f 57 c0	 xorps	 xmm0, xmm0
  000b8	f3 0f 11 45 f8	 movss	 DWORD PTR _v3Movement$[ebp+8], xmm0
; File D:\Metin2 Server Files\mainline\SRC_2014\Metin2Client\GameLib\PhysicsObject.cpp

; 68   : 	for(int i = 0; i < LoopValue; ++i)

  000bd	83 65 c8 00	 and	 DWORD PTR _i$6[ebp], 0
  000c1	eb 07		 jmp	 SHORT $LN4@IncreaseEx
$LN2@IncreaseEx:
  000c3	8b 45 c8	 mov	 eax, DWORD PTR _i$6[ebp]
  000c6	40		 inc	 eax
  000c7	89 45 c8	 mov	 DWORD PTR _i$6[ebp], eax
$LN4@IncreaseEx:
  000ca	83 7d c8 64	 cmp	 DWORD PTR _i$6[ebp], 100 ; 00000064H
  000ce	0f 8d 2a 01 00
	00		 jge	 $LN3@IncreaseEx

; 69   : 	{
; 70   : 		Accumulate(&v3Movement);

  000d4	8d 45 f0	 lea	 eax, DWORD PTR _v3Movement$[ebp]
  000d7	50		 push	 eax
  000d8	8b 4d d4	 mov	 ecx, DWORD PTR _this$[ebp]
  000db	e8 00 00 00 00	 call	 ?Accumulate@CPhysicsObject@@IAEXPAUD3DXVECTOR3@@@Z ; CPhysicsObject::Accumulate

; 71   : 
; 72   : 		// VICTIM_COLLISION_TEST
; 73   : 		IPhysicsWorld* pWorld = IPhysicsWorld::GetPhysicsWorld();

  000e0	a1 00 00 00 00	 mov	 eax, DWORD PTR ?ms_pWorld@IPhysicsWorld@@0PAV1@A ; IPhysicsWorld::ms_pWorld
  000e5	89 45 c4	 mov	 DWORD PTR _pWorld$5[ebp], eax

; 74   : 		if (pWorld)

  000e8	83 7d c4 00	 cmp	 DWORD PTR _pWorld$5[ebp], 0
  000ec	74 76		 je	 SHORT $LN6@IncreaseEx
; File D:\Metin2 Server Files\mainline\SRC_2014\M2Data\include\d3dx8math.inl

; 257  :     return D3DXVECTOR3(x + v.x, y + v.y, z + v.z);

  000ee	8b 45 08	 mov	 eax, DWORD PTR _c_rvBasePosition$[ebp]
  000f1	f3 0f 10 00	 movss	 xmm0, DWORD PTR [eax]
  000f5	f3 0f 58 45 f0	 addss	 xmm0, DWORD PTR _v3Movement$[ebp]
  000fa	f3 0f 11 45 b0	 movss	 DWORD PTR _fx$[ebp], xmm0
  000ff	8b 45 08	 mov	 eax, DWORD PTR _c_rvBasePosition$[ebp]
  00102	f3 0f 10 40 04	 movss	 xmm0, DWORD PTR [eax+4]
  00107	f3 0f 58 45 f4	 addss	 xmm0, DWORD PTR _v3Movement$[ebp+4]
  0010c	f3 0f 11 45 ac	 movss	 DWORD PTR _fy$[ebp], xmm0
  00111	8b 45 08	 mov	 eax, DWORD PTR _c_rvBasePosition$[ebp]
  00114	f3 0f 10 40 08	 movss	 xmm0, DWORD PTR [eax+8]
  00119	f3 0f 58 45 f8	 addss	 xmm0, DWORD PTR _v3Movement$[ebp+8]
  0011e	f3 0f 11 45 a8	 movss	 DWORD PTR _fz$[ebp], xmm0

; 180  :     x = fx;

  00123	f3 0f 10 45 b0	 movss	 xmm0, DWORD PTR _fx$[ebp]
  00128	f3 0f 11 45 d8	 movss	 DWORD PTR $T7[ebp], xmm0

; 181  :     y = fy;

  0012d	f3 0f 10 45 ac	 movss	 xmm0, DWORD PTR _fy$[ebp]
  00132	f3 0f 11 45 dc	 movss	 DWORD PTR $T7[ebp+4], xmm0

; 182  :     z = fz;

  00137	f3 0f 10 45 a8	 movss	 xmm0, DWORD PTR _fz$[ebp]
  0013c	f3 0f 11 45 e0	 movss	 DWORD PTR $T7[ebp+8], xmm0
; File D:\Metin2 Server Files\mainline\SRC_2014\Metin2Client\GameLib\PhysicsObject.cpp

; 76   : 			if (pWorld->isPhysicalCollision(c_rvBasePosition + v3Movement))

  00141	8d 45 d8	 lea	 eax, DWORD PTR $T7[ebp]
  00144	50		 push	 eax
  00145	8b 45 c4	 mov	 eax, DWORD PTR _pWorld$5[ebp]
  00148	8b 00		 mov	 eax, DWORD PTR [eax]
  0014a	8b 4d c4	 mov	 ecx, DWORD PTR _pWorld$5[ebp]
  0014d	ff 50 04	 call	 DWORD PTR [eax+4]
  00150	0f b6 c0	 movzx	 eax, al
  00153	85 c0		 test	 eax, eax
  00155	74 0d		 je	 SHORT $LN6@IncreaseEx

; 77   : 			{
; 78   : 				Initialize();

  00157	8b 4d d4	 mov	 ecx, DWORD PTR _this$[ebp]
  0015a	e8 00 00 00 00	 call	 ?Initialize@CPhysicsObject@@QAEXXZ ; CPhysicsObject::Initialize

; 79   : 				return;

  0015f	e9 d6 00 00 00	 jmp	 $LN1@IncreaseEx
$LN6@IncreaseEx:

; 96   : 			fabs(m_v3Velocity.y) < EPSILON &&

  00164	8b 45 d4	 mov	 eax, DWORD PTR _this$[ebp]
  00167	f3 0f 10 40 24	 movss	 xmm0, DWORD PTR [eax+36]
  0016c	f3 0f 11 45 a4	 movss	 DWORD PTR __Xx$[ebp], xmm0
; File C:\Program Files (x86)\Windows Kits\10\Include\10.0.18362.0\ucrt\corecrt_math.h

; 672  :             return (float)fabs(_X);

  00171	f3 0f 5a 45 a4	 cvtss2sd xmm0, DWORD PTR __Xx$[ebp]
  00176	51		 push	 ecx
  00177	51		 push	 ecx
  00178	f2 0f 11 04 24	 movsd	 QWORD PTR [esp], xmm0
  0017d	e8 00 00 00 00	 call	 _fabs
  00182	59		 pop	 ecx
  00183	59		 pop	 ecx
; File C:\Program Files (x86)\Microsoft Visual Studio\2019\Community\VC\Tools\MSVC\14.28.29333\include\cmath

; 95   :     return _CSTD fabsf(_Xx);

  00184	d9 5d a0	 fstp	 DWORD PTR $T3[ebp]
; File D:\Metin2 Server Files\mainline\SRC_2014\Metin2Client\GameLib\PhysicsObject.cpp

; 96   : 			fabs(m_v3Velocity.y) < EPSILON &&

  00187	f3 0f 10 05 00
	00 00 00	 movss	 xmm0, DWORD PTR __real@3a83126f
  0018f	0f 2f 45 a0	 comiss	 xmm0, DWORD PTR $T3[ebp]
  00193	76 64		 jbe	 SHORT $LN7@IncreaseEx
  00195	8b 45 d4	 mov	 eax, DWORD PTR _this$[ebp]
  00198	f3 0f 10 40 28	 movss	 xmm0, DWORD PTR [eax+40]
  0019d	f3 0f 11 45 9c	 movss	 DWORD PTR __Xx$[ebp], xmm0
; File C:\Program Files (x86)\Windows Kits\10\Include\10.0.18362.0\ucrt\corecrt_math.h

; 672  :             return (float)fabs(_X);

  001a2	f3 0f 5a 45 9c	 cvtss2sd xmm0, DWORD PTR __Xx$[ebp]
  001a7	51		 push	 ecx
  001a8	51		 push	 ecx
  001a9	f2 0f 11 04 24	 movsd	 QWORD PTR [esp], xmm0
  001ae	e8 00 00 00 00	 call	 _fabs
  001b3	59		 pop	 ecx
  001b4	59		 pop	 ecx
; File C:\Program Files (x86)\Microsoft Visual Studio\2019\Community\VC\Tools\MSVC\14.28.29333\include\cmath

; 95   :     return _CSTD fabsf(_Xx);

  001b5	d9 5d 98	 fstp	 DWORD PTR $T2[ebp]
; File D:\Metin2 Server Files\mainline\SRC_2014\Metin2Client\GameLib\PhysicsObject.cpp

; 96   : 			fabs(m_v3Velocity.y) < EPSILON &&

  001b8	f3 0f 10 05 00
	00 00 00	 movss	 xmm0, DWORD PTR __real@3a83126f
  001c0	0f 2f 45 98	 comiss	 xmm0, DWORD PTR $T2[ebp]
  001c4	76 33		 jbe	 SHORT $LN7@IncreaseEx
  001c6	8b 45 d4	 mov	 eax, DWORD PTR _this$[ebp]
  001c9	f3 0f 10 40 2c	 movss	 xmm0, DWORD PTR [eax+44]
  001ce	f3 0f 11 45 94	 movss	 DWORD PTR __Xx$[ebp], xmm0
; File C:\Program Files (x86)\Windows Kits\10\Include\10.0.18362.0\ucrt\corecrt_math.h

; 672  :             return (float)fabs(_X);

  001d3	f3 0f 5a 45 94	 cvtss2sd xmm0, DWORD PTR __Xx$[ebp]
  001d8	51		 push	 ecx
  001d9	51		 push	 ecx
  001da	f2 0f 11 04 24	 movsd	 QWORD PTR [esp], xmm0
  001df	e8 00 00 00 00	 call	 _fabs
  001e4	59		 pop	 ecx
  001e5	59		 pop	 ecx
; File C:\Program Files (x86)\Microsoft Visual Studio\2019\Community\VC\Tools\MSVC\14.28.29333\include\cmath

; 95   :     return _CSTD fabsf(_Xx);

  001e6	d9 5d 90	 fstp	 DWORD PTR $T1[ebp]
; File D:\Metin2 Server Files\mainline\SRC_2014\Metin2Client\GameLib\PhysicsObject.cpp

; 96   : 			fabs(m_v3Velocity.y) < EPSILON &&

  001e9	f3 0f 10 05 00
	00 00 00	 movss	 xmm0, DWORD PTR __real@3a83126f
  001f1	0f 2f 45 90	 comiss	 xmm0, DWORD PTR $T1[ebp]
  001f5	76 02		 jbe	 SHORT $LN7@IncreaseEx

; 97   : 			fabs(m_v3Velocity.z) < EPSILON )
; 98   : 			break;

  001f7	eb 05		 jmp	 SHORT $LN3@IncreaseEx
$LN7@IncreaseEx:

; 99   : 	}	

  001f9	e9 c5 fe ff ff	 jmp	 $LN2@IncreaseEx
$LN3@IncreaseEx:

; 100  : 
; 101  : 	SetLastPosition(v3Movement, float(LoopValue) * c_fFrameTime);

  001fe	51		 push	 ecx
  001ff	f3 0f 10 05 00
	00 00 00	 movss	 xmm0, DWORD PTR __real@40000000
  00207	f3 0f 11 04 24	 movss	 DWORD PTR [esp], xmm0
  0020c	8d 45 f0	 lea	 eax, DWORD PTR _v3Movement$[ebp]
  0020f	50		 push	 eax
  00210	8b 4d d4	 mov	 ecx, DWORD PTR _this$[ebp]
  00213	e8 00 00 00 00	 call	 ?SetLastPosition@CPhysicsObject@@QAEXABUD3DXVECTOR3@@M@Z ; CPhysicsObject::SetLastPosition

; 102  : 
; 103  : 	if( m_pActorInstance )

  00218	8b 45 d4	 mov	 eax, DWORD PTR _this$[ebp]
  0021b	83 78 74 00	 cmp	 DWORD PTR [eax+116], 0
  0021f	74 19		 je	 SHORT $LN8@IncreaseEx

; 104  : 	{
; 105  : 		IObjectManager* pObjectManager = IObjectManager::GetObjectManager();

  00221	a1 00 00 00 00	 mov	 eax, DWORD PTR ?ms_ObjManager@IObjectManager@@0PAV1@A ; IObjectManager::ms_ObjManager
  00226	89 45 c0	 mov	 DWORD PTR _pObjectManager$4[ebp], eax

; 106  : 		pObjectManager->AdjustCollisionWithOtherObjects( m_pActorInstance );

  00229	8b 45 d4	 mov	 eax, DWORD PTR _this$[ebp]
  0022c	ff 70 74	 push	 DWORD PTR [eax+116]
  0022f	8b 45 c0	 mov	 eax, DWORD PTR _pObjectManager$4[ebp]
  00232	8b 00		 mov	 eax, DWORD PTR [eax]
  00234	8b 4d c0	 mov	 ecx, DWORD PTR _pObjectManager$4[ebp]
  00237	ff 50 04	 call	 DWORD PTR [eax+4]
$LN8@IncreaseEx:
$LN1@IncreaseEx:

; 107  : 	}
; 108  : }

  0023a	5f		 pop	 edi
  0023b	5e		 pop	 esi
  0023c	8b 4d fc	 mov	 ecx, DWORD PTR __$ArrayPad$[ebp]
  0023f	33 cd		 xor	 ecx, ebp
  00241	e8 00 00 00 00	 call	 @__security_check_cookie@4
  00246	c9		 leave
  00247	c2 08 00	 ret	 8
?IncreaseExternalForce@CPhysicsObject@@QAEXABUD3DXVECTOR3@@M@Z ENDP ; CPhysicsObject::IncreaseExternalForce
_TEXT	ENDS
; Function compile flags: /Odspy
; File D:\Metin2 Server Files\mainline\SRC_2014\Metin2Client\GameLib\PhysicsObject.cpp
;	COMDAT ?SetDirection@CPhysicsObject@@QAEXABUD3DXVECTOR3@@@Z
_TEXT	SEGMENT
_this$ = -4						; size = 4
_c_rv3Direction$ = 8					; size = 4
?SetDirection@CPhysicsObject@@QAEXABUD3DXVECTOR3@@@Z PROC ; CPhysicsObject::SetDirection, COMDAT
; _this$ = ecx

; 127  : {

  00000	55		 push	 ebp
  00001	8b ec		 mov	 ebp, esp
  00003	51		 push	 ecx
  00004	89 4d fc	 mov	 DWORD PTR _this$[ebp], ecx

; 128  : 	m_v3Direction.x = c_rv3Direction.x;

  00007	8b 45 fc	 mov	 eax, DWORD PTR _this$[ebp]
  0000a	8b 4d 08	 mov	 ecx, DWORD PTR _c_rv3Direction$[ebp]
  0000d	8b 09		 mov	 ecx, DWORD PTR [ecx]
  0000f	89 48 0c	 mov	 DWORD PTR [eax+12], ecx

; 129  : 	m_v3Direction.y = c_rv3Direction.y;

  00012	8b 45 fc	 mov	 eax, DWORD PTR _this$[ebp]
  00015	8b 4d 08	 mov	 ecx, DWORD PTR _c_rv3Direction$[ebp]
  00018	8b 49 04	 mov	 ecx, DWORD PTR [ecx+4]
  0001b	89 48 10	 mov	 DWORD PTR [eax+16], ecx

; 130  : 	m_v3Direction.z = c_rv3Direction.z;

  0001e	8b 45 fc	 mov	 eax, DWORD PTR _this$[ebp]
  00021	8b 4d 08	 mov	 ecx, DWORD PTR _c_rv3Direction$[ebp]
  00024	8b 49 08	 mov	 ecx, DWORD PTR [ecx+8]
  00027	89 48 14	 mov	 DWORD PTR [eax+20], ecx

; 131  : }

  0002a	c9		 leave
  0002b	c2 04 00	 ret	 4
?SetDirection@CPhysicsObject@@QAEXABUD3DXVECTOR3@@@Z ENDP ; CPhysicsObject::SetDirection
_TEXT	ENDS
; Function compile flags: /Odspy
; File D:\Metin2 Server Files\mainline\SRC_2014\Metin2Client\GameLib\PhysicsObject.cpp
; File D:\Metin2 Server Files\mainline\SRC_2014\M2Data\include\d3dx8math.inl
; File C:\Program Files (x86)\Windows Kits\10\Include\10.0.18362.0\ucrt\corecrt_math.h
; File D:\Metin2 Server Files\mainline\SRC_2014\Metin2Client\GameLib\PhysicsObject.cpp
;	COMDAT ?isBlending@CPhysicsObject@@QAE_NXZ
_TEXT	SEGMENT
tv162 = -20						; size = 4
tv161 = -16						; size = 4
__X$ = -12						; size = 4
_this$ = -8						; size = 4
_pV$ = -4						; size = 4
?isBlending@CPhysicsObject@@QAE_NXZ PROC		; CPhysicsObject::isBlending, COMDAT
; _this$ = ecx

; 144  : {

  00000	55		 push	 ebp
  00001	8b ec		 mov	 ebp, esp
  00003	83 ec 14	 sub	 esp, 20			; 00000014H
  00006	89 4d f8	 mov	 DWORD PTR _this$[ebp], ecx

; 146  : 	if (0.0f != D3DXVec3Length(&m_v3Velocity))

  00009	8b 45 f8	 mov	 eax, DWORD PTR _this$[ebp]
  0000c	83 c0 24	 add	 eax, 36			; 00000024H
  0000f	89 45 fc	 mov	 DWORD PTR _pV$[ebp], eax
; File D:\Metin2 Server Files\mainline\SRC_2014\M2Data\include\d3dx8math.inl

; 1239 :     return sqrtf(pV->x * pV->x + pV->y * pV->y + pV->z * pV->z);

  00012	8b 45 fc	 mov	 eax, DWORD PTR _pV$[ebp]
  00015	8b 4d fc	 mov	 ecx, DWORD PTR _pV$[ebp]
  00018	f3 0f 10 40 08	 movss	 xmm0, DWORD PTR [eax+8]
  0001d	f3 0f 59 41 08	 mulss	 xmm0, DWORD PTR [ecx+8]
  00022	8b 45 fc	 mov	 eax, DWORD PTR _pV$[ebp]
  00025	8b 4d fc	 mov	 ecx, DWORD PTR _pV$[ebp]
  00028	f3 0f 10 48 04	 movss	 xmm1, DWORD PTR [eax+4]
  0002d	f3 0f 59 49 04	 mulss	 xmm1, DWORD PTR [ecx+4]
  00032	8b 45 fc	 mov	 eax, DWORD PTR _pV$[ebp]
  00035	8b 4d fc	 mov	 ecx, DWORD PTR _pV$[ebp]
  00038	f3 0f 10 10	 movss	 xmm2, DWORD PTR [eax]
  0003c	f3 0f 59 11	 mulss	 xmm2, DWORD PTR [ecx]
  00040	f3 0f 58 d1	 addss	 xmm2, xmm1
  00044	f3 0f 58 d0	 addss	 xmm2, xmm0
  00048	f3 0f 11 55 f4	 movss	 DWORD PTR __X$[ebp], xmm2
; File C:\Program Files (x86)\Windows Kits\10\Include\10.0.18362.0\ucrt\corecrt_math.h

; 760  :             return (float)sqrt(_X);

  0004d	f3 0f 5a 45 f4	 cvtss2sd xmm0, DWORD PTR __X$[ebp]
  00052	51		 push	 ecx
  00053	51		 push	 ecx
  00054	f2 0f 11 04 24	 movsd	 QWORD PTR [esp], xmm0
  00059	e8 00 00 00 00	 call	 _sqrt
  0005e	59		 pop	 ecx
  0005f	59		 pop	 ecx
  00060	d9 5d f0	 fstp	 DWORD PTR tv161[ebp]
  00063	d9 45 f0	 fld	 DWORD PTR tv161[ebp]
  00066	d9 5d ec	 fstp	 DWORD PTR tv162[ebp]
; File D:\Metin2 Server Files\mainline\SRC_2014\Metin2Client\GameLib\PhysicsObject.cpp

; 146  : 	if (0.0f != D3DXVec3Length(&m_v3Velocity))

  00069	0f 57 c0	 xorps	 xmm0, xmm0
  0006c	0f 2e 45 ec	 ucomiss xmm0, DWORD PTR tv162[ebp]
  00070	9f		 lahf
  00071	f6 c4 44	 test	 ah, 68			; 00000044H
  00074	7b 04		 jnp	 SHORT $LN2@isBlending

; 147  : 		return true;

  00076	b0 01		 mov	 al, 1
  00078	eb 24		 jmp	 SHORT $LN1@isBlending
$LN2@isBlending:

; 148  : 
; 149  : 	// NOTE : SetLastPosition() 에 의해 밀리는 처리중인가?
; 150  : 	if (m_xPushingPosition.isPlaying() ||

  0007a	8b 4d f8	 mov	 ecx, DWORD PTR _this$[ebp]
  0007d	83 c1 3c	 add	 ecx, 60			; 0000003cH
  00080	e8 00 00 00 00	 call	 ?isPlaying@CEaseOutInterpolation@@QAEHXZ ; CEaseOutInterpolation::isPlaying
  00085	85 c0		 test	 eax, eax
  00087	75 0f		 jne	 SHORT $LN4@isBlending
  00089	8b 4d f8	 mov	 ecx, DWORD PTR _this$[ebp]
  0008c	83 c1 58	 add	 ecx, 88			; 00000058H
  0008f	e8 00 00 00 00	 call	 ?isPlaying@CEaseOutInterpolation@@QAEHXZ ; CEaseOutInterpolation::isPlaying
  00094	85 c0		 test	 eax, eax
  00096	74 04		 je	 SHORT $LN3@isBlending
$LN4@isBlending:

; 151  : 		m_yPushingPosition.isPlaying())
; 152  : 		return true;

  00098	b0 01		 mov	 al, 1
  0009a	eb 02		 jmp	 SHORT $LN1@isBlending
$LN3@isBlending:

; 153  : 
; 154  : 	return false;

  0009c	32 c0		 xor	 al, al
$LN1@isBlending:

; 155  : }

  0009e	c9		 leave
  0009f	c3		 ret	 0
?isBlending@CPhysicsObject@@QAE_NXZ ENDP		; CPhysicsObject::isBlending
_TEXT	ENDS
; Function compile flags: /Odspy
; File D:\Metin2 Server Files\mainline\SRC_2014\Metin2Client\GameLib\PhysicsObject.cpp
;	COMDAT ?Update@CPhysicsObject@@QAEXM@Z
_TEXT	SEGMENT
_this$ = -4						; size = 4
_fElapsedTime$ = 8					; size = 4
?Update@CPhysicsObject@@QAEXM@Z PROC			; CPhysicsObject::Update, COMDAT
; _this$ = ecx

; 11   : {

  00000	55		 push	 ebp
  00001	8b ec		 mov	 ebp, esp
  00003	51		 push	 ecx
  00004	89 4d fc	 mov	 DWORD PTR _this$[ebp], ecx

; 12   : 	if (m_xPushingPosition.isPlaying())

  00007	8b 4d fc	 mov	 ecx, DWORD PTR _this$[ebp]
  0000a	83 c1 3c	 add	 ecx, 60			; 0000003cH
  0000d	e8 00 00 00 00	 call	 ?isPlaying@CEaseOutInterpolation@@QAEHXZ ; CEaseOutInterpolation::isPlaying
  00012	85 c0		 test	 eax, eax
  00014	74 16		 je	 SHORT $LN2@Update

; 13   : 		m_xPushingPosition.Interpolate(fElapsedTime);

  00016	51		 push	 ecx
  00017	f3 0f 10 45 08	 movss	 xmm0, DWORD PTR _fElapsedTime$[ebp]
  0001c	f3 0f 11 04 24	 movss	 DWORD PTR [esp], xmm0
  00021	8b 4d fc	 mov	 ecx, DWORD PTR _this$[ebp]
  00024	83 c1 3c	 add	 ecx, 60			; 0000003cH
  00027	e8 00 00 00 00	 call	 ?Interpolate@CEaseOutInterpolation@@QAEXM@Z ; CEaseOutInterpolation::Interpolate
$LN2@Update:

; 14   : 	if (m_yPushingPosition.isPlaying())

  0002c	8b 4d fc	 mov	 ecx, DWORD PTR _this$[ebp]
  0002f	83 c1 58	 add	 ecx, 88			; 00000058H
  00032	e8 00 00 00 00	 call	 ?isPlaying@CEaseOutInterpolation@@QAEHXZ ; CEaseOutInterpolation::isPlaying
  00037	85 c0		 test	 eax, eax
  00039	74 16		 je	 SHORT $LN3@Update

; 15   : 		m_yPushingPosition.Interpolate(fElapsedTime);

  0003b	51		 push	 ecx
  0003c	f3 0f 10 45 08	 movss	 xmm0, DWORD PTR _fElapsedTime$[ebp]
  00041	f3 0f 11 04 24	 movss	 DWORD PTR [esp], xmm0
  00046	8b 4d fc	 mov	 ecx, DWORD PTR _this$[ebp]
  00049	83 c1 58	 add	 ecx, 88			; 00000058H
  0004c	e8 00 00 00 00	 call	 ?Interpolate@CEaseOutInterpolation@@QAEXM@Z ; CEaseOutInterpolation::Interpolate
$LN3@Update:

; 16   : }

  00051	c9		 leave
  00052	c2 04 00	 ret	 4
?Update@CPhysicsObject@@QAEXM@Z ENDP			; CPhysicsObject::Update
_TEXT	ENDS
; Function compile flags: /Odspy
; File D:\Metin2 Server Files\mainline\SRC_2014\Metin2Client\GameLib\PhysicsObject.cpp
; File D:\Metin2 Server Files\mainline\SRC_2014\M2Data\include\d3dx8math.inl
; File D:\Metin2 Server Files\mainline\SRC_2014\Metin2Client\GameLib\PhysicsObject.cpp
; File D:\Metin2 Server Files\mainline\SRC_2014\M2Data\include\d3dx8math.inl
; File D:\Metin2 Server Files\mainline\SRC_2014\Metin2Client\GameLib\PhysicsObject.cpp
; File D:\Metin2 Server Files\mainline\SRC_2014\M2Data\include\d3dx8math.inl
; File D:\Metin2 Server Files\mainline\SRC_2014\Metin2Client\GameLib\PhysicsObject.cpp
; File D:\Metin2 Server Files\mainline\SRC_2014\M2Data\include\d3dx8math.inl
; File D:\Metin2 Server Files\mainline\SRC_2014\Metin2Client\GameLib\PhysicsObject.cpp
;	COMDAT ?Initialize@CPhysicsObject@@QAEXXZ
_TEXT	SEGMENT
_this$ = -56						; size = 4
$T1 = -52						; size = 12
$T2 = -40						; size = 12
$T3 = -28						; size = 12
$T4 = -16						; size = 12
__$ArrayPad$ = -4					; size = 4
?Initialize@CPhysicsObject@@QAEXXZ PROC			; CPhysicsObject::Initialize, COMDAT
; _this$ = ecx

; 158  : {

  00000	55		 push	 ebp
  00001	8b ec		 mov	 ebp, esp
  00003	83 ec 38	 sub	 esp, 56			; 00000038H
  00006	a1 00 00 00 00	 mov	 eax, DWORD PTR ___security_cookie
  0000b	33 c5		 xor	 eax, ebp
  0000d	89 45 fc	 mov	 DWORD PTR __$ArrayPad$[ebp], eax
  00010	56		 push	 esi
  00011	57		 push	 edi
  00012	89 4d c8	 mov	 DWORD PTR _this$[ebp], ecx

; 159  : 	m_fMass = 1.0f;

  00015	8b 45 c8	 mov	 eax, DWORD PTR _this$[ebp]
  00018	f3 0f 10 05 00
	00 00 00	 movss	 xmm0, DWORD PTR __real@3f800000
  00020	f3 0f 11 40 04	 movss	 DWORD PTR [eax+4], xmm0

; 160  : 	m_fFriction = 0.3f;

  00025	8b 45 c8	 mov	 eax, DWORD PTR _this$[ebp]
  00028	f3 0f 10 05 00
	00 00 00	 movss	 xmm0, DWORD PTR __real@3e99999a
  00030	f3 0f 11 40 08	 movss	 DWORD PTR [eax+8], xmm0
; File D:\Metin2 Server Files\mainline\SRC_2014\M2Data\include\d3dx8math.inl

; 180  :     x = fx;

  00035	0f 57 c0	 xorps	 xmm0, xmm0
  00038	f3 0f 11 45 f0	 movss	 DWORD PTR $T4[ebp], xmm0

; 181  :     y = fy;

  0003d	0f 57 c0	 xorps	 xmm0, xmm0
  00040	f3 0f 11 45 f4	 movss	 DWORD PTR $T4[ebp+4], xmm0

; 182  :     z = fz;

  00045	0f 57 c0	 xorps	 xmm0, xmm0
  00048	f3 0f 11 45 f8	 movss	 DWORD PTR $T4[ebp+8], xmm0
; File D:\Metin2 Server Files\mainline\SRC_2014\Metin2Client\GameLib\PhysicsObject.cpp

; 161  : 	m_v3Direction = D3DXVECTOR3(0.0f, 0.0f, 0.0f);

  0004d	8b 7d c8	 mov	 edi, DWORD PTR _this$[ebp]
  00050	83 c7 0c	 add	 edi, 12			; 0000000cH
  00053	8d 75 f0	 lea	 esi, DWORD PTR $T4[ebp]
  00056	a5		 movsd
  00057	a5		 movsd
  00058	a5		 movsd
; File D:\Metin2 Server Files\mainline\SRC_2014\M2Data\include\d3dx8math.inl

; 180  :     x = fx;

  00059	0f 57 c0	 xorps	 xmm0, xmm0
  0005c	f3 0f 11 45 e4	 movss	 DWORD PTR $T3[ebp], xmm0

; 181  :     y = fy;

  00061	0f 57 c0	 xorps	 xmm0, xmm0
  00064	f3 0f 11 45 e8	 movss	 DWORD PTR $T3[ebp+4], xmm0

; 182  :     z = fz;

  00069	0f 57 c0	 xorps	 xmm0, xmm0
  0006c	f3 0f 11 45 ec	 movss	 DWORD PTR $T3[ebp+8], xmm0
; File D:\Metin2 Server Files\mainline\SRC_2014\Metin2Client\GameLib\PhysicsObject.cpp

; 162  : 	m_v3Acceleration = D3DXVECTOR3(0.0f, 0.0f, 0.0f);

  00071	8b 7d c8	 mov	 edi, DWORD PTR _this$[ebp]
  00074	83 c7 18	 add	 edi, 24			; 00000018H
  00077	8d 75 e4	 lea	 esi, DWORD PTR $T3[ebp]
  0007a	a5		 movsd
  0007b	a5		 movsd
  0007c	a5		 movsd
; File D:\Metin2 Server Files\mainline\SRC_2014\M2Data\include\d3dx8math.inl

; 180  :     x = fx;

  0007d	0f 57 c0	 xorps	 xmm0, xmm0
  00080	f3 0f 11 45 d8	 movss	 DWORD PTR $T2[ebp], xmm0

; 181  :     y = fy;

  00085	0f 57 c0	 xorps	 xmm0, xmm0
  00088	f3 0f 11 45 dc	 movss	 DWORD PTR $T2[ebp+4], xmm0

; 182  :     z = fz;

  0008d	0f 57 c0	 xorps	 xmm0, xmm0
  00090	f3 0f 11 45 e0	 movss	 DWORD PTR $T2[ebp+8], xmm0
; File D:\Metin2 Server Files\mainline\SRC_2014\Metin2Client\GameLib\PhysicsObject.cpp

; 163  : 	m_v3Velocity = D3DXVECTOR3(0.0f, 0.0f, 0.0f);

  00095	8b 7d c8	 mov	 edi, DWORD PTR _this$[ebp]
  00098	83 c7 24	 add	 edi, 36			; 00000024H
  0009b	8d 75 d8	 lea	 esi, DWORD PTR $T2[ebp]
  0009e	a5		 movsd
  0009f	a5		 movsd
  000a0	a5		 movsd
; File D:\Metin2 Server Files\mainline\SRC_2014\M2Data\include\d3dx8math.inl

; 180  :     x = fx;

  000a1	0f 57 c0	 xorps	 xmm0, xmm0
  000a4	f3 0f 11 45 cc	 movss	 DWORD PTR $T1[ebp], xmm0

; 181  :     y = fy;

  000a9	0f 57 c0	 xorps	 xmm0, xmm0
  000ac	f3 0f 11 45 d0	 movss	 DWORD PTR $T1[ebp+4], xmm0

; 182  :     z = fz;

  000b1	0f 57 c0	 xorps	 xmm0, xmm0
  000b4	f3 0f 11 45 d4	 movss	 DWORD PTR $T1[ebp+8], xmm0
; File D:\Metin2 Server Files\mainline\SRC_2014\Metin2Client\GameLib\PhysicsObject.cpp

; 164  : 	m_v3LastPosition = D3DXVECTOR3(0.0f, 0.0f, 0.0f);

  000b9	8b 7d c8	 mov	 edi, DWORD PTR _this$[ebp]
  000bc	83 c7 30	 add	 edi, 48			; 00000030H
  000bf	8d 75 cc	 lea	 esi, DWORD PTR $T1[ebp]
  000c2	a5		 movsd
  000c3	a5		 movsd
  000c4	a5		 movsd

; 165  : 
; 166  : 	m_xPushingPosition.Initialize();

  000c5	8b 4d c8	 mov	 ecx, DWORD PTR _this$[ebp]
  000c8	83 c1 3c	 add	 ecx, 60			; 0000003cH
  000cb	e8 00 00 00 00	 call	 ?Initialize@CEaseOutInterpolation@@QAEXXZ ; CEaseOutInterpolation::Initialize

; 167  : 	m_yPushingPosition.Initialize();

  000d0	8b 4d c8	 mov	 ecx, DWORD PTR _this$[ebp]
  000d3	83 c1 58	 add	 ecx, 88			; 00000058H
  000d6	e8 00 00 00 00	 call	 ?Initialize@CEaseOutInterpolation@@QAEXXZ ; CEaseOutInterpolation::Initialize

; 168  : }

  000db	5f		 pop	 edi
  000dc	5e		 pop	 esi
  000dd	8b 4d fc	 mov	 ecx, DWORD PTR __$ArrayPad$[ebp]
  000e0	33 cd		 xor	 ecx, ebp
  000e2	e8 00 00 00 00	 call	 @__security_check_cookie@4
  000e7	c9		 leave
  000e8	c3		 ret	 0
?Initialize@CPhysicsObject@@QAEXXZ ENDP			; CPhysicsObject::Initialize
_TEXT	ENDS
; Function compile flags: /Odspy
; File D:\Metin2 Server Files\mainline\SRC_2014\Metin2Client\GameLib\PhysicsObject.cpp
;	COMDAT ??1CPhysicsObject@@UAE@XZ
_TEXT	SEGMENT
_this$ = -4						; size = 4
??1CPhysicsObject@@UAE@XZ PROC				; CPhysicsObject::~CPhysicsObject, COMDAT
; _this$ = ecx

; 176  : {

  00000	55		 push	 ebp
  00001	8b ec		 mov	 ebp, esp
  00003	51		 push	 ecx
  00004	89 4d fc	 mov	 DWORD PTR _this$[ebp], ecx
  00007	8b 45 fc	 mov	 eax, DWORD PTR _this$[ebp]
  0000a	c7 00 00 00 00
	00		 mov	 DWORD PTR [eax], OFFSET ??_7CPhysicsObject@@6B@

; 177  : }

  00010	8b 4d fc	 mov	 ecx, DWORD PTR _this$[ebp]
  00013	83 c1 58	 add	 ecx, 88			; 00000058H
  00016	e8 00 00 00 00	 call	 ??1CEaseOutInterpolation@@UAE@XZ ; CEaseOutInterpolation::~CEaseOutInterpolation
  0001b	8b 4d fc	 mov	 ecx, DWORD PTR _this$[ebp]
  0001e	83 c1 3c	 add	 ecx, 60			; 0000003cH
  00021	e8 00 00 00 00	 call	 ??1CEaseOutInterpolation@@UAE@XZ ; CEaseOutInterpolation::~CEaseOutInterpolation
  00026	c9		 leave
  00027	c3		 ret	 0
??1CPhysicsObject@@UAE@XZ ENDP				; CPhysicsObject::~CPhysicsObject
_TEXT	ENDS
; Function compile flags: /Odspy
; File D:\Metin2 Server Files\mainline\SRC_2014\Metin2Client\GameLib\PhysicsObject.cpp
;	COMDAT ??0CPhysicsObject@@QAE@XZ
_TEXT	SEGMENT
_this$ = -16						; size = 4
__$EHRec$ = -12						; size = 12
??0CPhysicsObject@@QAE@XZ PROC				; CPhysicsObject::CPhysicsObject, COMDAT
; _this$ = ecx

; 171  : {

  00000	55		 push	 ebp
  00001	8b ec		 mov	 ebp, esp
  00003	6a ff		 push	 -1
  00005	68 00 00 00 00	 push	 __ehhandler$??0CPhysicsObject@@QAE@XZ
  0000a	64 a1 00 00 00
	00		 mov	 eax, DWORD PTR fs:0
  00010	50		 push	 eax
  00011	51		 push	 ecx
  00012	a1 00 00 00 00	 mov	 eax, DWORD PTR ___security_cookie
  00017	33 c5		 xor	 eax, ebp
  00019	50		 push	 eax
  0001a	8d 45 f4	 lea	 eax, DWORD PTR __$EHRec$[ebp]
  0001d	64 a3 00 00 00
	00		 mov	 DWORD PTR fs:0, eax
  00023	89 4d f0	 mov	 DWORD PTR _this$[ebp], ecx
  00026	8b 45 f0	 mov	 eax, DWORD PTR _this$[ebp]
  00029	c7 00 00 00 00
	00		 mov	 DWORD PTR [eax], OFFSET ??_7CPhysicsObject@@6B@
  0002f	8b 4d f0	 mov	 ecx, DWORD PTR _this$[ebp]
  00032	83 c1 3c	 add	 ecx, 60			; 0000003cH
  00035	e8 00 00 00 00	 call	 ??0CEaseOutInterpolation@@QAE@XZ ; CEaseOutInterpolation::CEaseOutInterpolation
  0003a	83 65 fc 00	 and	 DWORD PTR __$EHRec$[ebp+8], 0
  0003e	8b 4d f0	 mov	 ecx, DWORD PTR _this$[ebp]
  00041	83 c1 58	 add	 ecx, 88			; 00000058H
  00044	e8 00 00 00 00	 call	 ??0CEaseOutInterpolation@@QAE@XZ ; CEaseOutInterpolation::CEaseOutInterpolation

; 172  : 	m_pActorInstance = NULL;

  00049	8b 45 f0	 mov	 eax, DWORD PTR _this$[ebp]
  0004c	83 60 74 00	 and	 DWORD PTR [eax+116], 0

; 173  : }

  00050	83 4d fc ff	 or	 DWORD PTR __$EHRec$[ebp+8], -1
  00054	8b 45 f0	 mov	 eax, DWORD PTR _this$[ebp]
  00057	8b 4d f4	 mov	 ecx, DWORD PTR __$EHRec$[ebp]
  0005a	64 89 0d 00 00
	00 00		 mov	 DWORD PTR fs:0, ecx
  00061	59		 pop	 ecx
  00062	c9		 leave
  00063	c3		 ret	 0
_TEXT	ENDS
;	COMDAT text$x
text$x	SEGMENT
__unwindfunclet$??0CPhysicsObject@@QAE@XZ$0:
  00000	8b 4d f0	 mov	 ecx, DWORD PTR _this$[ebp]
  00003	83 c1 3c	 add	 ecx, 60			; 0000003cH
  00006	e9 00 00 00 00	 jmp	 ??1CEaseOutInterpolation@@UAE@XZ ; CEaseOutInterpolation::~CEaseOutInterpolation
  0000b	cc		 int	 3
  0000c	cc		 int	 3
  0000d	cc		 int	 3
  0000e	cc		 int	 3
  0000f	cc		 int	 3
__ehhandler$??0CPhysicsObject@@QAE@XZ:
  00010	90		 npad	 1
  00011	90		 npad	 1
  00012	8b 54 24 08	 mov	 edx, DWORD PTR [esp+8]
  00016	8d 42 0c	 lea	 eax, DWORD PTR [edx+12]
  00019	8b 4a f8	 mov	 ecx, DWORD PTR [edx-8]
  0001c	33 c8		 xor	 ecx, eax
  0001e	e8 00 00 00 00	 call	 @__security_check_cookie@4
  00023	b8 00 00 00 00	 mov	 eax, OFFSET __ehfuncinfo$??0CPhysicsObject@@QAE@XZ
  00028	e9 00 00 00 00	 jmp	 ___CxxFrameHandler3
text$x	ENDS
??0CPhysicsObject@@QAE@XZ ENDP				; CPhysicsObject::CPhysicsObject
END
