; Listing generated by Microsoft (R) Optimizing Compiler Version 19.28.29335.0 

	TITLE	D:\Metin2 Server Files\mainline\SRC_2014\Metin2Client\GameLib\PropertyManager.cpp
	.686P
	.XMM
	include listing.inc
	.model	flat

INCLUDELIB LIBCMT
INCLUDELIB OLDNAMES

PUBLIC	___local_stdio_printf_options
PUBLIC	__snprintf
PUBLIC	??0exception@std@@QAE@ABV01@@Z			; std::exception::exception
PUBLIC	?what@exception@std@@UBEPBDXZ			; std::exception::what
PUBLIC	??_Gexception@std@@UAEPAXI@Z			; std::exception::`scalar deleting destructor'
PUBLIC	??0bad_alloc@std@@QAE@ABV01@@Z			; std::bad_alloc::bad_alloc
PUBLIC	??_Gbad_alloc@std@@UAEPAXI@Z			; std::bad_alloc::`scalar deleting destructor'
PUBLIC	??0bad_array_new_length@std@@QAE@XZ		; std::bad_array_new_length::bad_array_new_length
PUBLIC	??1bad_array_new_length@std@@UAE@XZ		; std::bad_array_new_length::~bad_array_new_length
PUBLIC	??0bad_array_new_length@std@@QAE@ABV01@@Z	; std::bad_array_new_length::bad_array_new_length
PUBLIC	??_Gbad_array_new_length@std@@UAEPAXI@Z		; std::bad_array_new_length::`scalar deleting destructor'
PUBLIC	?_Throw_bad_array_new_length@std@@YAXXZ		; std::_Throw_bad_array_new_length
PUBLIC	?_Adjust_manually_vector_aligned@std@@YAXAAPAXAAI@Z ; std::_Adjust_manually_vector_aligned
PUBLIC	?_Xlen_string@std@@YAXXZ			; std::_Xlen_string
PUBLIC	?_Myptr@?$_String_val@U?$_Simple_types@D@std@@@std@@QAEPADXZ ; std::_String_val<std::_Simple_types<char> >::_Myptr
PUBLIC	??0?$basic_string@DU?$char_traits@D@std@@V?$allocator@D@2@@std@@QAE@QBD@Z ; std::basic_string<char,std::char_traits<char>,std::allocator<char> >::basic_string<char,std::char_traits<char>,std::allocator<char> >
PUBLIC	??1?$basic_string@DU?$char_traits@D@std@@V?$allocator@D@2@@std@@QAE@XZ ; std::basic_string<char,std::char_traits<char>,std::allocator<char> >::~basic_string<char,std::char_traits<char>,std::allocator<char> >
PUBLIC	?append@?$basic_string@DU?$char_traits@D@std@@V?$allocator@D@2@@std@@QAEAAV12@QBDI@Z ; std::basic_string<char,std::char_traits<char>,std::allocator<char> >::append
PUBLIC	?assign@?$basic_string@DU?$char_traits@D@std@@V?$allocator@D@2@@std@@QAEAAV12@QBDI@Z ; std::basic_string<char,std::char_traits<char>,std::allocator<char> >::assign
PUBLIC	?c_str@?$basic_string@DU?$char_traits@D@std@@V?$allocator@D@2@@std@@QBEPBDXZ ; std::basic_string<char,std::char_traits<char>,std::allocator<char> >::c_str
PUBLIC	?max_size@?$basic_string@DU?$char_traits@D@std@@V?$allocator@D@2@@std@@QBEIXZ ; std::basic_string<char,std::char_traits<char>,std::allocator<char> >::max_size
PUBLIC	?_Calculate_growth@?$basic_string@DU?$char_traits@D@std@@V?$allocator@D@2@@std@@CAIIII@Z ; std::basic_string<char,std::char_traits<char>,std::allocator<char> >::_Calculate_growth
PUBLIC	?_Calculate_growth@?$basic_string@DU?$char_traits@D@std@@V?$allocator@D@2@@std@@ABEII@Z ; std::basic_string<char,std::char_traits<char>,std::allocator<char> >::_Calculate_growth
PUBLIC	?_Tidy_init@?$basic_string@DU?$char_traits@D@std@@V?$allocator@D@2@@std@@AAEXXZ ; std::basic_string<char,std::char_traits<char>,std::allocator<char> >::_Tidy_init
PUBLIC	?_Tidy_deallocate@?$basic_string@DU?$char_traits@D@std@@V?$allocator@D@2@@std@@AAEXXZ ; std::basic_string<char,std::char_traits<char>,std::allocator<char> >::_Tidy_deallocate
PUBLIC	??1?$_Compressed_pair@V?$allocator@D@std@@V?$_String_val@U?$_Simple_types@D@std@@@2@$00@std@@QAE@XZ ; std::_Compressed_pair<std::allocator<char>,std::_String_val<std::_Simple_types<char> >,1>::~_Compressed_pair<std::allocator<char>,std::_String_val<std::_Simple_types<char> >,1>
PUBLIC	?_Throw_tree_length_error@std@@YAXXZ		; std::_Throw_tree_length_error
PUBLIC	??$_Destroy_in_place@PAD@std@@YAXAAPAD@Z	; std::_Destroy_in_place<char *>
PUBLIC	??$_Reallocate_for@V<lambda_9366063389c5f42a00a5088cf24e69de>@@PBD@?$basic_string@DU?$char_traits@D@std@@V?$allocator@D@2@@std@@AAEAAV01@IV<lambda_9366063389c5f42a00a5088cf24e69de>@@PBD@Z ; std::basic_string<char,std::char_traits<char>,std::allocator<char> >::_Reallocate_for<<lambda_9366063389c5f42a00a5088cf24e69de>,char const *>
PUBLIC	??$_Reallocate_grow_by@V<lambda_ab246b20b9526e2ef7792587e4298a77>@@PBDI@?$basic_string@DU?$char_traits@D@std@@V?$allocator@D@2@@std@@AAEAAV01@IV<lambda_ab246b20b9526e2ef7792587e4298a77>@@PBDI@Z ; std::basic_string<char,std::char_traits<char>,std::allocator<char> >::_Reallocate_grow_by<<lambda_ab246b20b9526e2ef7792587e4298a77>,char const *,unsigned int>
PUBLIC	??$_Construct_in_place@PADABQAD@std@@YAXAAPADABQAD@Z ; std::_Construct_in_place<char *,char * const &>
PUBLIC	??$_Deallocate@$07$0A@@std@@YAXPAXI@Z		; std::_Deallocate<8,0>
PUBLIC	??$_Allocate@$07U_Default_allocate_traits@std@@$0A@@std@@YAPAXI@Z ; std::_Allocate<8,std::_Default_allocate_traits,0>
PUBLIC	??$_Allocate_manually_vector_aligned@U_Default_allocate_traits@std@@@std@@YAPAXI@Z ; std::_Allocate_manually_vector_aligned<std::_Default_allocate_traits>
PUBLIC	?next_prime@detail@unordered@boost@@YAII@Z	; boost::unordered::detail::next_prime
PUBLIC	??1?$functions@U?$hash@K@boost@@U?$equal_to@K@std@@@detail@unordered@boost@@QAE@XZ ; boost::unordered::detail::functions<boost::hash<unsigned long>,std::equal_to<unsigned long> >::~functions<boost::hash<unsigned long>,std::equal_to<unsigned long> >
PUBLIC	??0?$table@U?$map@V?$allocator@U?$pair@$$CBKUItem@CEterFileDict@@@std@@@std@@KUItem@CEterFileDict@@U?$hash@K@boost@@U?$equal_to@K@2@@detail@unordered@boost@@@detail@unordered@boost@@QAE@IABU?$hash@K@3@ABU?$equal_to@K@std@@ABV?$allocator@U?$ptr_node@U?$pair@$$CBKUItem@CEterFileDict@@@std@@@detail@unordered@boost@@@6@@Z ; boost::unordered::detail::table<boost::unordered::detail::map<std::allocator<std::pair<unsigned long const ,CEterFileDict::Item> >,unsigned long,CEterFileDict::Item,boost::hash<unsigned long>,std::equal_to<unsigned long> > >::table<boost::unordered::detail::map<std::allocator<std::pair<unsigned long const ,CEterFileDict::Item> >,unsigned long,CEterFileDict::Item,boost::hash<unsigned long>,std::equal_to<unsigned long> > >
PUBLIC	?destroy_node@?$table@U?$map@V?$allocator@U?$pair@$$CBKUItem@CEterFileDict@@@std@@@std@@KUItem@CEterFileDict@@U?$hash@K@boost@@U?$equal_to@K@2@@detail@unordered@boost@@@detail@unordered@boost@@QAEXPAU?$ptr_node@U?$pair@$$CBKUItem@CEterFileDict@@@std@@@234@@Z ; boost::unordered::detail::table<boost::unordered::detail::map<std::allocator<std::pair<unsigned long const ,CEterFileDict::Item> >,unsigned long,CEterFileDict::Item,boost::hash<unsigned long>,std::equal_to<unsigned long> > >::destroy_node
PUBLIC	?delete_buckets@?$table@U?$map@V?$allocator@U?$pair@$$CBKUItem@CEterFileDict@@@std@@@std@@KUItem@CEterFileDict@@U?$hash@K@boost@@U?$equal_to@K@2@@detail@unordered@boost@@@detail@unordered@boost@@QAEXXZ ; boost::unordered::detail::table<boost::unordered::detail::map<std::allocator<std::pair<unsigned long const ,CEterFileDict::Item> >,unsigned long,CEterFileDict::Item,boost::hash<unsigned long>,std::equal_to<unsigned long> > >::delete_buckets
PUBLIC	?destroy_buckets@?$table@U?$map@V?$allocator@U?$pair@$$CBKUItem@CEterFileDict@@@std@@@std@@KUItem@CEterFileDict@@U?$hash@K@boost@@U?$equal_to@K@2@@detail@unordered@boost@@@detail@unordered@boost@@QAEXXZ ; boost::unordered::detail::table<boost::unordered::detail::map<std::allocator<std::pair<unsigned long const ,CEterFileDict::Item> >,unsigned long,CEterFileDict::Item,boost::hash<unsigned long>,std::equal_to<unsigned long> > >::destroy_buckets
PUBLIC	??0?$unordered_multimap@KUItem@CEterFileDict@@U?$hash@K@boost@@U?$equal_to@K@std@@V?$allocator@U?$pair@$$CBKUItem@CEterFileDict@@@std@@@6@@unordered@boost@@QAE@XZ ; boost::unordered::unordered_multimap<unsigned long,CEterFileDict::Item,boost::hash<unsigned long>,std::equal_to<unsigned long>,std::allocator<std::pair<unsigned long const ,CEterFileDict::Item> > >::unordered_multimap<unsigned long,CEterFileDict::Item,boost::hash<unsigned long>,std::equal_to<unsigned long>,std::allocator<std::pair<unsigned long const ,CEterFileDict::Item> > >
PUBLIC	??1?$unordered_multimap@KUItem@CEterFileDict@@U?$hash@K@boost@@U?$equal_to@K@std@@V?$allocator@U?$pair@$$CBKUItem@CEterFileDict@@@std@@@6@@unordered@boost@@QAE@XZ ; boost::unordered::unordered_multimap<unsigned long,CEterFileDict::Item,boost::hash<unsigned long>,std::equal_to<unsigned long>,std::allocator<std::pair<unsigned long const ,CEterFileDict::Item> > >::~unordered_multimap<unsigned long,CEterFileDict::Item,boost::hash<unsigned long>,std::equal_to<unsigned long>,std::allocator<std::pair<unsigned long const ,CEterFileDict::Item> > >
PUBLIC	?begin@?$table@U?$map@V?$allocator@U?$pair@$$CBKPAUSEterPackIndex@@@std@@@std@@KPAUSEterPackIndex@@U?$hash@K@boost@@U?$equal_to@K@2@@detail@unordered@boost@@@detail@unordered@boost@@QBEPAU?$ptr_node@U?$pair@$$CBKPAUSEterPackIndex@@@std@@@234@XZ ; boost::unordered::detail::table<boost::unordered::detail::map<std::allocator<std::pair<unsigned long const ,SEterPackIndex *> >,unsigned long,SEterPackIndex *,boost::hash<unsigned long>,std::equal_to<unsigned long> > >::begin
PUBLIC	??1?$CSingleton@VCPropertyManager@@@@UAE@XZ	; CSingleton<CPropertyManager>::~CSingleton<CPropertyManager>
PUBLIC	??_G?$CSingleton@VCPropertyManager@@@@UAEPAXI@Z	; CSingleton<CPropertyManager>::`scalar deleting destructor'
PUBLIC	??0CPropertyManager@@QAE@XZ			; CPropertyManager::CPropertyManager
PUBLIC	??1CPropertyManager@@UAE@XZ			; CPropertyManager::~CPropertyManager
PUBLIC	?Clear@CPropertyManager@@QAEXXZ			; CPropertyManager::Clear
PUBLIC	?BuildPack@CPropertyManager@@QAE_NXZ		; CPropertyManager::BuildPack
PUBLIC	?LoadReservedCRC@CPropertyManager@@QAE_NPBD@Z	; CPropertyManager::LoadReservedCRC
PUBLIC	?ReserveCRC@CPropertyManager@@QAEXK@Z		; CPropertyManager::ReserveCRC
PUBLIC	?GetUniqueCRC@CPropertyManager@@QAEKPBD@Z	; CPropertyManager::GetUniqueCRC
PUBLIC	?Initialize@CPropertyManager@@QAE_NPBD@Z	; CPropertyManager::Initialize
PUBLIC	?Register@CPropertyManager@@QAE_NPBDPAPAVCProperty@@@Z ; CPropertyManager::Register
PUBLIC	?Get@CPropertyManager@@QAE_NKPAPAVCProperty@@@Z	; CPropertyManager::Get
PUBLIC	?Get@CPropertyManager@@QAE_NPBDPAPAVCProperty@@@Z ; CPropertyManager::Get
PUBLIC	?Put@CPropertyManager@@QAE_NPBD0@Z		; CPropertyManager::Put
PUBLIC	?Erase@CPropertyManager@@QAE_NK@Z		; CPropertyManager::Erase
PUBLIC	?Erase@CPropertyManager@@QAE_NPBD@Z		; CPropertyManager::Erase
PUBLIC	??0?$_Tree@V?$_Tmap_traits@KPAVCProperty@@U?$less@K@std@@V?$allocator@U?$pair@$$CBKPAVCProperty@@@std@@@3@$0A@@std@@@std@@QAE@ABU?$less@K@1@@Z ; std::_Tree<std::_Tmap_traits<unsigned long,CProperty *,std::less<unsigned long>,std::allocator<std::pair<unsigned long const ,CProperty *> >,0> >::_Tree<std::_Tmap_traits<unsigned long,CProperty *,std::less<unsigned long>,std::allocator<std::pair<unsigned long const ,CProperty *> >,0> >
PUBLIC	??1?$_Tree@V?$_Tmap_traits@KPAVCProperty@@U?$less@K@std@@V?$allocator@U?$pair@$$CBKPAVCProperty@@@std@@@3@$0A@@std@@@std@@QAE@XZ ; std::_Tree<std::_Tmap_traits<unsigned long,CProperty *,std::less<unsigned long>,std::allocator<std::pair<unsigned long const ,CProperty *> >,0> >::~_Tree<std::_Tmap_traits<unsigned long,CProperty *,std::less<unsigned long>,std::allocator<std::pair<unsigned long const ,CProperty *> >,0> >
PUBLIC	?begin@?$_Tree@V?$_Tmap_traits@KPAVCProperty@@U?$less@K@std@@V?$allocator@U?$pair@$$CBKPAVCProperty@@@std@@@3@$0A@@std@@@std@@QAE?AV?$_Tree_iterator@V?$_Tree_val@U?$_Tree_simple_types@U?$pair@$$CBKPAVCProperty@@@std@@@std@@@std@@@2@XZ ; std::_Tree<std::_Tmap_traits<unsigned long,CProperty *,std::less<unsigned long>,std::allocator<std::pair<unsigned long const ,CProperty *> >,0> >::begin
PUBLIC	?max_size@?$_Tree@V?$_Tmap_traits@KPAVCProperty@@U?$less@K@std@@V?$allocator@U?$pair@$$CBKPAVCProperty@@@std@@@3@$0A@@std@@@std@@QBEIXZ ; std::_Tree<std::_Tmap_traits<unsigned long,CProperty *,std::less<unsigned long>,std::allocator<std::pair<unsigned long const ,CProperty *> >,0> >::max_size
PUBLIC	?_Erase_unchecked@?$_Tree@V?$_Tmap_traits@KPAVCProperty@@U?$less@K@std@@V?$allocator@U?$pair@$$CBKPAVCProperty@@@std@@@3@$0A@@std@@@std@@AAEPAU?$_Tree_node@U?$pair@$$CBKPAVCProperty@@@std@@PAX@2@V?$_Tree_unchecked_const_iterator@V?$_Tree_val@U?$_Tree_simple_types@U?$pair@$$CBKPAVCProperty@@@std@@@std@@@std@@U_Iterator_base0@2@@2@@Z ; std::_Tree<std::_Tmap_traits<unsigned long,CProperty *,std::less<unsigned long>,std::allocator<std::pair<unsigned long const ,CProperty *> >,0> >::_Erase_unchecked
PUBLIC	?clear@?$_Tree@V?$_Tmap_traits@KPAVCProperty@@U?$less@K@std@@V?$allocator@U?$pair@$$CBKPAVCProperty@@@std@@@3@$0A@@std@@@std@@QAEXXZ ; std::_Tree<std::_Tmap_traits<unsigned long,CProperty *,std::less<unsigned long>,std::allocator<std::pair<unsigned long const ,CProperty *> >,0> >::clear
PUBLIC	?find@?$_Tree@V?$_Tmap_traits@KPAVCProperty@@U?$less@K@std@@V?$allocator@U?$pair@$$CBKPAVCProperty@@@std@@@3@$0A@@std@@@std@@QAE?AV?$_Tree_iterator@V?$_Tree_val@U?$_Tree_simple_types@U?$pair@$$CBKPAVCProperty@@@std@@@std@@@std@@@2@ABK@Z ; std::_Tree<std::_Tmap_traits<unsigned long,CProperty *,std::less<unsigned long>,std::allocator<std::pair<unsigned long const ,CProperty *> >,0> >::find
PUBLIC	?_Check_grow_by_1@?$_Tree@V?$_Tmap_traits@KPAVCProperty@@U?$less@K@std@@V?$allocator@U?$pair@$$CBKPAVCProperty@@@std@@@3@$0A@@std@@@std@@IAEXXZ ; std::_Tree<std::_Tmap_traits<unsigned long,CProperty *,std::less<unsigned long>,std::allocator<std::pair<unsigned long const ,CProperty *> >,0> >::_Check_grow_by_1
PUBLIC	?_Alloc_sentinel_and_proxy@?$_Tree@V?$_Tmap_traits@KPAVCProperty@@U?$less@K@std@@V?$allocator@U?$pair@$$CBKPAVCProperty@@@std@@@3@$0A@@std@@@std@@IAEXXZ ; std::_Tree<std::_Tmap_traits<unsigned long,CProperty *,std::less<unsigned long>,std::allocator<std::pair<unsigned long const ,CProperty *> >,0> >::_Alloc_sentinel_and_proxy
PUBLIC	?_Lrotate@?$_Tree_val@U?$_Tree_simple_types@U?$pair@$$CBKPAVCProperty@@@std@@@std@@@std@@QAEXPAU?$_Tree_node@U?$pair@$$CBKPAVCProperty@@@std@@PAX@2@@Z ; std::_Tree_val<std::_Tree_simple_types<std::pair<unsigned long const ,CProperty *> > >::_Lrotate
PUBLIC	?_Rrotate@?$_Tree_val@U?$_Tree_simple_types@U?$pair@$$CBKPAVCProperty@@@std@@@std@@@std@@QAEXPAU?$_Tree_node@U?$pair@$$CBKPAVCProperty@@@std@@PAX@2@@Z ; std::_Tree_val<std::_Tree_simple_types<std::pair<unsigned long const ,CProperty *> > >::_Rrotate
PUBLIC	?_Extract@?$_Tree_val@U?$_Tree_simple_types@U?$pair@$$CBKPAVCProperty@@@std@@@std@@@std@@QAEPAU?$_Tree_node@U?$pair@$$CBKPAVCProperty@@@std@@PAX@2@V?$_Tree_unchecked_const_iterator@V?$_Tree_val@U?$_Tree_simple_types@U?$pair@$$CBKPAVCProperty@@@std@@@std@@@std@@U_Iterator_base0@2@@2@@Z ; std::_Tree_val<std::_Tree_simple_types<std::pair<unsigned long const ,CProperty *> > >::_Extract
PUBLIC	?_Insert_node@?$_Tree_val@U?$_Tree_simple_types@U?$pair@$$CBKPAVCProperty@@@std@@@std@@@std@@QAEPAU?$_Tree_node@U?$pair@$$CBKPAVCProperty@@@std@@PAX@2@U?$_Tree_id@PAU?$_Tree_node@U?$pair@$$CBKPAVCProperty@@@std@@PAX@std@@@2@QAU32@@Z ; std::_Tree_val<std::_Tree_simple_types<std::pair<unsigned long const ,CProperty *> > >::_Insert_node
PUBLIC	??1?$map@KPAVCProperty@@U?$less@K@std@@V?$allocator@U?$pair@$$CBKPAVCProperty@@@std@@@3@@std@@QAE@XZ ; std::map<unsigned long,CProperty *,std::less<unsigned long>,std::allocator<std::pair<unsigned long const ,CProperty *> > >::~map<unsigned long,CProperty *,std::less<unsigned long>,std::allocator<std::pair<unsigned long const ,CProperty *> > >
PUBLIC	??0?$_Tree@V?$_Tset_traits@KU?$less@K@std@@V?$allocator@K@2@$0A@@std@@@std@@QAE@ABU?$less@K@1@@Z ; std::_Tree<std::_Tset_traits<unsigned long,std::less<unsigned long>,std::allocator<unsigned long>,0> >::_Tree<std::_Tset_traits<unsigned long,std::less<unsigned long>,std::allocator<unsigned long>,0> >
PUBLIC	??1?$_Tree@V?$_Tset_traits@KU?$less@K@std@@V?$allocator@K@2@$0A@@std@@@std@@QAE@XZ ; std::_Tree<std::_Tset_traits<unsigned long,std::less<unsigned long>,std::allocator<unsigned long>,0> >::~_Tree<std::_Tset_traits<unsigned long,std::less<unsigned long>,std::allocator<unsigned long>,0> >
PUBLIC	?max_size@?$_Tree@V?$_Tset_traits@KU?$less@K@std@@V?$allocator@K@2@$0A@@std@@@std@@QBEIXZ ; std::_Tree<std::_Tset_traits<unsigned long,std::less<unsigned long>,std::allocator<unsigned long>,0> >::max_size
PUBLIC	?_Check_grow_by_1@?$_Tree@V?$_Tset_traits@KU?$less@K@std@@V?$allocator@K@2@$0A@@std@@@std@@IAEXXZ ; std::_Tree<std::_Tset_traits<unsigned long,std::less<unsigned long>,std::allocator<unsigned long>,0> >::_Check_grow_by_1
PUBLIC	?_Alloc_sentinel_and_proxy@?$_Tree@V?$_Tset_traits@KU?$less@K@std@@V?$allocator@K@2@$0A@@std@@@std@@IAEXXZ ; std::_Tree<std::_Tset_traits<unsigned long,std::less<unsigned long>,std::allocator<unsigned long>,0> >::_Alloc_sentinel_and_proxy
PUBLIC	?_Lrotate@?$_Tree_val@U?$_Tree_simple_types@K@std@@@std@@QAEXPAU?$_Tree_node@KPAX@2@@Z ; std::_Tree_val<std::_Tree_simple_types<unsigned long> >::_Lrotate
PUBLIC	?_Rrotate@?$_Tree_val@U?$_Tree_simple_types@K@std@@@std@@QAEXPAU?$_Tree_node@KPAX@2@@Z ; std::_Tree_val<std::_Tree_simple_types<unsigned long> >::_Rrotate
PUBLIC	?_Insert_node@?$_Tree_val@U?$_Tree_simple_types@K@std@@@std@@QAEPAU?$_Tree_node@KPAX@2@U?$_Tree_id@PAU?$_Tree_node@KPAX@std@@@2@QAU32@@Z ; std::_Tree_val<std::_Tree_simple_types<unsigned long> >::_Insert_node
PUBLIC	??1?$set@KU?$less@K@std@@V?$allocator@K@2@@std@@QAE@XZ ; std::set<unsigned long,std::less<unsigned long>,std::allocator<unsigned long> >::~set<unsigned long,std::less<unsigned long>,std::allocator<unsigned long> >
PUBLIC	??_GCPropertyManager@@UAEPAXI@Z			; CPropertyManager::`scalar deleting destructor'
PUBLIC	??$insert@$0A@$0A@@?$_Tree@V?$_Tset_traits@KU?$less@K@std@@V?$allocator@K@2@$0A@@std@@@std@@QAE?AU?$pair@V?$_Tree_const_iterator@V?$_Tree_val@U?$_Tree_simple_types@K@std@@@std@@@std@@_N@1@ABK@Z ; std::_Tree<std::_Tset_traits<unsigned long,std::less<unsigned long>,std::allocator<unsigned long>,0> >::insert<0,0>
PUBLIC	??E?$_Tree_unchecked_const_iterator@V?$_Tree_val@U?$_Tree_simple_types@U?$pair@$$CBKPAVCProperty@@@std@@@std@@@std@@U_Iterator_base0@2@@std@@QAEAAV01@XZ ; std::_Tree_unchecked_const_iterator<std::_Tree_val<std::_Tree_simple_types<std::pair<unsigned long const ,CProperty *> > >,std::_Iterator_base0>::operator++
PUBLIC	??$insert@$0A@$0A@@?$_Tree@V?$_Tmap_traits@KPAVCProperty@@U?$less@K@std@@V?$allocator@U?$pair@$$CBKPAVCProperty@@@std@@@3@$0A@@std@@@std@@QAE?AU?$pair@V?$_Tree_iterator@V?$_Tree_val@U?$_Tree_simple_types@U?$pair@$$CBKPAVCProperty@@@std@@@std@@@std@@@std@@_N@1@$$QAU?$pair@$$CBKPAVCProperty@@@1@@Z ; std::_Tree<std::_Tmap_traits<unsigned long,CProperty *,std::less<unsigned long>,std::allocator<std::pair<unsigned long const ,CProperty *> >,0> >::insert<0,0>
PUBLIC	??$erase@V?$_Tree_iterator@V?$_Tree_val@U?$_Tree_simple_types@U?$pair@$$CBKPAVCProperty@@@std@@@std@@@std@@@std@@$0A@@?$_Tree@V?$_Tmap_traits@KPAVCProperty@@U?$less@K@std@@V?$allocator@U?$pair@$$CBKPAVCProperty@@@std@@@3@$0A@@std@@@std@@QAE?AV?$_Tree_iterator@V?$_Tree_val@U?$_Tree_simple_types@U?$pair@$$CBKPAVCProperty@@@std@@@std@@@std@@@1@V21@@Z ; std::_Tree<std::_Tmap_traits<unsigned long,CProperty *,std::less<unsigned long>,std::allocator<std::pair<unsigned long const ,CProperty *> >,0> >::erase<std::_Tree_iterator<std::_Tree_val<std::_Tree_simple_types<std::pair<unsigned long const ,CProperty *> > > >,0>
PUBLIC	??$stl_wipe_second@V?$map@KPAVCProperty@@U?$less@K@std@@V?$allocator@U?$pair@$$CBKPAVCProperty@@@std@@@3@@std@@@@YAXAAV?$map@KPAVCProperty@@U?$less@K@std@@V?$allocator@U?$pair@$$CBKPAVCProperty@@@std@@@3@@std@@@Z ; stl_wipe_second<std::map<unsigned long,CProperty *,std::less<unsigned long>,std::allocator<std::pair<unsigned long const ,CProperty *> > > >
PUBLIC	??$_Find@K@?$_Tree@V?$_Tset_traits@KU?$less@K@std@@V?$allocator@K@2@$0A@@std@@@std@@ABEPAU?$_Tree_node@KPAX@1@ABK@Z ; std::_Tree<std::_Tset_traits<unsigned long,std::less<unsigned long>,std::allocator<unsigned long>,0> >::_Find<unsigned long>
PUBLIC	??$_Find@K@?$_Tree@V?$_Tmap_traits@KPAVCProperty@@U?$less@K@std@@V?$allocator@U?$pair@$$CBKPAVCProperty@@@std@@@3@$0A@@std@@@std@@ABEPAU?$_Tree_node@U?$pair@$$CBKPAVCProperty@@@std@@PAX@1@ABK@Z ; std::_Tree<std::_Tmap_traits<unsigned long,CProperty *,std::less<unsigned long>,std::allocator<std::pair<unsigned long const ,CProperty *> >,0> >::_Find<unsigned long>
PUBLIC	??$_Buyheadnode@V?$allocator@U?$_Tree_node@KPAX@std@@@std@@@?$_Tree_node@KPAX@std@@SAPAU01@AAV?$allocator@U?$_Tree_node@KPAX@std@@@1@@Z ; std::_Tree_node<unsigned long,void *>::_Buyheadnode<std::allocator<std::_Tree_node<unsigned long,void *> > >
PUBLIC	??$_Buyheadnode@V?$allocator@U?$_Tree_node@U?$pair@$$CBKPAVCProperty@@@std@@PAX@std@@@std@@@?$_Tree_node@U?$pair@$$CBKPAVCProperty@@@std@@PAX@std@@SAPAU01@AAV?$allocator@U?$_Tree_node@U?$pair@$$CBKPAVCProperty@@@std@@PAX@std@@@1@@Z ; std::_Tree_node<std::pair<unsigned long const ,CProperty *>,void *>::_Buyheadnode<std::allocator<std::_Tree_node<std::pair<unsigned long const ,CProperty *>,void *> > >
PUBLIC	??$lower_bound@PBIIU?$less@X@std@@@std@@YAPBIPBIQBIABIU?$less@X@0@@Z ; std::lower_bound<unsigned int const *,unsigned int,std::less<void> >
PUBLIC	??$_Emplace@ABK@?$_Tree@V?$_Tset_traits@KU?$less@K@std@@V?$allocator@K@2@$0A@@std@@@std@@IAE?AU?$pair@PAU?$_Tree_node@KPAX@std@@_N@1@ABK@Z ; std::_Tree<std::_Tset_traits<unsigned long,std::less<unsigned long>,std::allocator<unsigned long>,0> >::_Emplace<unsigned long const &>
PUBLIC	??$_Emplace@U?$pair@$$CBKPAVCProperty@@@std@@@?$_Tree@V?$_Tmap_traits@KPAVCProperty@@U?$less@K@std@@V?$allocator@U?$pair@$$CBKPAVCProperty@@@std@@@3@$0A@@std@@@std@@IAE?AU?$pair@PAU?$_Tree_node@U?$pair@$$CBKPAVCProperty@@@std@@PAX@std@@_N@1@$$QAU?$pair@$$CBKPAVCProperty@@@1@@Z ; std::_Tree<std::_Tmap_traits<unsigned long,CProperty *,std::less<unsigned long>,std::allocator<std::pair<unsigned long const ,CProperty *> >,0> >::_Emplace<std::pair<unsigned long const ,CProperty *> >
PUBLIC	??$_Find_lower_bound@K@?$_Tree@V?$_Tset_traits@KU?$less@K@std@@V?$allocator@K@2@$0A@@std@@@std@@IBE?AU?$_Tree_find_result@PAU?$_Tree_node@KPAX@std@@@1@ABK@Z ; std::_Tree<std::_Tset_traits<unsigned long,std::less<unsigned long>,std::allocator<unsigned long>,0> >::_Find_lower_bound<unsigned long>
PUBLIC	??$_Erase_tree@V?$allocator@U?$_Tree_node@KPAX@std@@@std@@@?$_Tree_val@U?$_Tree_simple_types@K@std@@@std@@QAEXAAV?$allocator@U?$_Tree_node@KPAX@std@@@1@PAU?$_Tree_node@KPAX@1@@Z ; std::_Tree_val<std::_Tree_simple_types<unsigned long> >::_Erase_tree<std::allocator<std::_Tree_node<unsigned long,void *> > >
PUBLIC	??$_Freenode0@V?$allocator@U?$_Tree_node@KPAX@std@@@std@@@?$_Tree_node@KPAX@std@@SAXAAV?$allocator@U?$_Tree_node@KPAX@std@@@1@PAU01@@Z ; std::_Tree_node<unsigned long,void *>::_Freenode0<std::allocator<std::_Tree_node<unsigned long,void *> > >
PUBLIC	??$_Find_lower_bound@K@?$_Tree@V?$_Tmap_traits@KPAVCProperty@@U?$less@K@std@@V?$allocator@U?$pair@$$CBKPAVCProperty@@@std@@@3@$0A@@std@@@std@@IBE?AU?$_Tree_find_result@PAU?$_Tree_node@U?$pair@$$CBKPAVCProperty@@@std@@PAX@std@@@1@ABK@Z ; std::_Tree<std::_Tmap_traits<unsigned long,CProperty *,std::less<unsigned long>,std::allocator<std::pair<unsigned long const ,CProperty *> >,0> >::_Find_lower_bound<unsigned long>
PUBLIC	??$_Erase_tree@V?$allocator@U?$_Tree_node@U?$pair@$$CBKPAVCProperty@@@std@@PAX@std@@@std@@@?$_Tree_val@U?$_Tree_simple_types@U?$pair@$$CBKPAVCProperty@@@std@@@std@@@std@@QAEXAAV?$allocator@U?$_Tree_node@U?$pair@$$CBKPAVCProperty@@@std@@PAX@std@@@1@PAU?$_Tree_node@U?$pair@$$CBKPAVCProperty@@@std@@PAX@1@@Z ; std::_Tree_val<std::_Tree_simple_types<std::pair<unsigned long const ,CProperty *> > >::_Erase_tree<std::allocator<std::_Tree_node<std::pair<unsigned long const ,CProperty *>,void *> > >
PUBLIC	??$_Freenode0@V?$allocator@U?$_Tree_node@U?$pair@$$CBKPAVCProperty@@@std@@PAX@std@@@std@@@?$_Tree_node@U?$pair@$$CBKPAVCProperty@@@std@@PAX@std@@SAXAAV?$allocator@U?$_Tree_node@U?$pair@$$CBKPAVCProperty@@@std@@PAX@std@@@1@PAU01@@Z ; std::_Tree_node<std::pair<unsigned long const ,CProperty *>,void *>::_Freenode0<std::allocator<std::_Tree_node<std::pair<unsigned long const ,CProperty *>,void *> > >
PUBLIC	??$_Construct_in_place@PAU?$_Tree_node@KPAX@std@@ABQAU12@@std@@YAXAAPAU?$_Tree_node@KPAX@0@ABQAU10@@Z ; std::_Construct_in_place<std::_Tree_node<unsigned long,void *> *,std::_Tree_node<unsigned long,void *> * const &>
PUBLIC	??$_Construct_in_place@PAU?$_Tree_node@U?$pair@$$CBKPAVCProperty@@@std@@PAX@std@@ABQAU12@@std@@YAXAAPAU?$_Tree_node@U?$pair@$$CBKPAVCProperty@@@std@@PAX@0@ABQAU10@@Z ; std::_Construct_in_place<std::_Tree_node<std::pair<unsigned long const ,CProperty *>,void *> *,std::_Tree_node<std::pair<unsigned long const ,CProperty *>,void *> * const &>
PUBLIC	?_Allocate@?$_Alloc_construct_ptr@V?$allocator@U?$_Tree_node@KPAX@std@@@std@@@std@@QAEXXZ ; std::_Alloc_construct_ptr<std::allocator<std::_Tree_node<unsigned long,void *> > >::_Allocate
PUBLIC	??1?$_Alloc_construct_ptr@V?$allocator@U?$_Tree_node@KPAX@std@@@std@@@std@@QAE@XZ ; std::_Alloc_construct_ptr<std::allocator<std::_Tree_node<unsigned long,void *> > >::~_Alloc_construct_ptr<std::allocator<std::_Tree_node<unsigned long,void *> > >
PUBLIC	??1?$_Tree_temp_node@V?$allocator@U?$_Tree_node@KPAX@std@@@std@@@std@@QAE@XZ ; std::_Tree_temp_node<std::allocator<std::_Tree_node<unsigned long,void *> > >::~_Tree_temp_node<std::allocator<std::_Tree_node<unsigned long,void *> > >
PUBLIC	??$?0ABK@?$_Tree_temp_node@V?$allocator@U?$_Tree_node@KPAX@std@@@std@@@std@@QAE@AAV?$allocator@U?$_Tree_node@KPAX@std@@@1@PAU?$_Tree_node@KPAX@1@ABK@Z ; std::_Tree_temp_node<std::allocator<std::_Tree_node<unsigned long,void *> > >::_Tree_temp_node<std::allocator<std::_Tree_node<unsigned long,void *> > ><unsigned long const &>
PUBLIC	?_Allocate@?$_Alloc_construct_ptr@V?$allocator@U?$_Tree_node@U?$pair@$$CBKPAVCProperty@@@std@@PAX@std@@@std@@@std@@QAEXXZ ; std::_Alloc_construct_ptr<std::allocator<std::_Tree_node<std::pair<unsigned long const ,CProperty *>,void *> > >::_Allocate
PUBLIC	??1?$_Alloc_construct_ptr@V?$allocator@U?$_Tree_node@U?$pair@$$CBKPAVCProperty@@@std@@PAX@std@@@std@@@std@@QAE@XZ ; std::_Alloc_construct_ptr<std::allocator<std::_Tree_node<std::pair<unsigned long const ,CProperty *>,void *> > >::~_Alloc_construct_ptr<std::allocator<std::_Tree_node<std::pair<unsigned long const ,CProperty *>,void *> > >
PUBLIC	??1?$_Tree_temp_node@V?$allocator@U?$_Tree_node@U?$pair@$$CBKPAVCProperty@@@std@@PAX@std@@@std@@@std@@QAE@XZ ; std::_Tree_temp_node<std::allocator<std::_Tree_node<std::pair<unsigned long const ,CProperty *>,void *> > >::~_Tree_temp_node<std::allocator<std::_Tree_node<std::pair<unsigned long const ,CProperty *>,void *> > >
PUBLIC	??$?0U?$pair@$$CBKPAVCProperty@@@std@@@?$_Tree_temp_node@V?$allocator@U?$_Tree_node@U?$pair@$$CBKPAVCProperty@@@std@@PAX@std@@@std@@@std@@QAE@AAV?$allocator@U?$_Tree_node@U?$pair@$$CBKPAVCProperty@@@std@@PAX@std@@@1@PAU?$_Tree_node@U?$pair@$$CBKPAVCProperty@@@std@@PAX@1@$$QAU?$pair@$$CBKPAVCProperty@@@1@@Z ; std::_Tree_temp_node<std::allocator<std::_Tree_node<std::pair<unsigned long const ,CProperty *>,void *> > >::_Tree_temp_node<std::allocator<std::_Tree_node<std::pair<unsigned long const ,CProperty *>,void *> > ><std::pair<unsigned long const ,CProperty *> >
PUBLIC	??$_Destroy_in_place@PAU?$_Tree_node@KPAX@std@@@std@@YAXAAPAU?$_Tree_node@KPAX@0@@Z ; std::_Destroy_in_place<std::_Tree_node<unsigned long,void *> *>
PUBLIC	??$_Destroy_in_place@PAU?$_Tree_node@U?$pair@$$CBKPAVCProperty@@@std@@PAX@std@@@std@@YAXAAPAU?$_Tree_node@U?$pair@$$CBKPAVCProperty@@@std@@PAX@0@@Z ; std::_Destroy_in_place<std::_Tree_node<std::pair<unsigned long const ,CProperty *>,void *> *>
PUBLIC	??$_Construct_in_place@PAU?$_Tree_node@KPAX@std@@AAPAU12@@std@@YAXAAPAU?$_Tree_node@KPAX@0@0@Z ; std::_Construct_in_place<std::_Tree_node<unsigned long,void *> *,std::_Tree_node<unsigned long,void *> * &>
PUBLIC	??$_Construct_in_place@PAU?$_Tree_node@U?$pair@$$CBKPAVCProperty@@@std@@PAX@std@@AAPAU12@@std@@YAXAAPAU?$_Tree_node@U?$pair@$$CBKPAVCProperty@@@std@@PAX@0@0@Z ; std::_Construct_in_place<std::_Tree_node<std::pair<unsigned long const ,CProperty *>,void *> *,std::_Tree_node<std::pair<unsigned long const ,CProperty *>,void *> * &>
PUBLIC	?_OptionsStorage@?1??__local_stdio_printf_options@@9@4_KA ; `__local_stdio_printf_options'::`2'::_OptionsStorage
PUBLIC	??_7exception@std@@6B@				; std::exception::`vftable'
PUBLIC	??_C@_0BC@EOODALEL@Unknown?5exception@		; `string'
PUBLIC	??_7bad_alloc@std@@6B@				; std::bad_alloc::`vftable'
PUBLIC	??_7bad_array_new_length@std@@6B@		; std::bad_array_new_length::`vftable'
PUBLIC	??_C@_0BF@KINCDENJ@bad?5array?5new?5length@	; `string'
PUBLIC	__TI3?AVbad_array_new_length@std@@
PUBLIC	__CTA3?AVbad_array_new_length@std@@
PUBLIC	??_R0?AVbad_array_new_length@std@@@8		; std::bad_array_new_length `RTTI Type Descriptor'
PUBLIC	__CT??_R0?AVbad_array_new_length@std@@@8??0bad_array_new_length@std@@QAE@ABV01@@Z12
PUBLIC	??_R0?AVbad_alloc@std@@@8			; std::bad_alloc `RTTI Type Descriptor'
PUBLIC	__CT??_R0?AVbad_alloc@std@@@8??0bad_alloc@std@@QAE@ABV01@@Z12
PUBLIC	??_R0?AVexception@std@@@8			; std::exception `RTTI Type Descriptor'
PUBLIC	__CT??_R0?AVexception@std@@@8??0exception@std@@QAE@ABV01@@Z12
PUBLIC	??_C@_0BA@JFNIOLAK@string?5too?5long@		; `string'
PUBLIC	??_C@_0BB@GCADKGJO@map?1set?5too?5long@		; `string'
PUBLIC	??_C@_00CNPNBAHC@@				; `string'
PUBLIC	??_R4exception@std@@6B@				; std::exception::`RTTI Complete Object Locator'
PUBLIC	??_R3exception@std@@8				; std::exception::`RTTI Class Hierarchy Descriptor'
PUBLIC	??_R2exception@std@@8				; std::exception::`RTTI Base Class Array'
PUBLIC	??_R1A@?0A@EA@exception@std@@8			; std::exception::`RTTI Base Class Descriptor at (0,-1,0,64)'
PUBLIC	??_R4bad_alloc@std@@6B@				; std::bad_alloc::`RTTI Complete Object Locator'
PUBLIC	??_R3bad_alloc@std@@8				; std::bad_alloc::`RTTI Class Hierarchy Descriptor'
PUBLIC	??_R2bad_alloc@std@@8				; std::bad_alloc::`RTTI Base Class Array'
PUBLIC	??_R1A@?0A@EA@bad_alloc@std@@8			; std::bad_alloc::`RTTI Base Class Descriptor at (0,-1,0,64)'
PUBLIC	??_R4bad_array_new_length@std@@6B@		; std::bad_array_new_length::`RTTI Complete Object Locator'
PUBLIC	??_R3bad_array_new_length@std@@8		; std::bad_array_new_length::`RTTI Class Hierarchy Descriptor'
PUBLIC	??_R2bad_array_new_length@std@@8		; std::bad_array_new_length::`RTTI Base Class Array'
PUBLIC	??_R1A@?0A@EA@bad_array_new_length@std@@8	; std::bad_array_new_length::`RTTI Base Class Descriptor at (0,-1,0,64)'
PUBLIC	?value@?$prime_list_template@I@detail@unordered@boost@@2QBIB ; boost::unordered::detail::prime_list_template<unsigned int>::value
PUBLIC	?length@?$prime_list_template@I@detail@unordered@boost@@2HB ; boost::unordered::detail::prime_list_template<unsigned int>::length
PUBLIC	?ms_singleton@?$CSingleton@VCEterPackManager@@@@0PAVCEterPackManager@@A ; CSingleton<CEterPackManager>::ms_singleton
PUBLIC	?ms_singleton@?$CSingleton@VCPropertyManager@@@@0PAVCPropertyManager@@A ; CSingleton<CPropertyManager>::ms_singleton
PUBLIC	??_7?$CSingleton@VCPropertyManager@@@@6B@	; CSingleton<CPropertyManager>::`vftable'
PUBLIC	??_7CPropertyManager@@6B@			; CPropertyManager::`vftable'
PUBLIC	??_C@_0CN@PCLFHBKL@Cannot?5open?5property?5pack?5file?5@ ; `string'
PUBLIC	??_C@_0BB@FGKGEGON@property?1reserve@		; `string'
PUBLIC	??_C@_08EMBNBNLN@property@			; `string'
PUBLIC	??_C@_0L@DIKAOLMN@property?2?$CK@		; `string'
PUBLIC	??_C@_0M@OKKDHDOO@property?2?$CFs@		; `string'
PUBLIC	??_C@_02DPKJAMEF@?$CFd@				; `string'
PUBLIC	??_C@_0CP@KFNNCDLJ@Property?5already?5registered?0?5re@ ; `string'
PUBLIC	??_C@_02DPNLHKJD@a?$CL@				; `string'
PUBLIC	??_C@_0CA@IABPHDJJ@?$LP?$LJ?$LO?$OA?5CRC?5?F?D?$MA?O?$MA?$LL?5?$LP?$KN?5?$LM?v?5?$LO?x?$LN?$MA?$LE?O?$LE?Y?4@ ; `string'
PUBLIC	??_C@_04JOCKIDOB@?$CFu?$AN?6@			; `string'
PUBLIC	??_R4CPropertyManager@@6B@			; CPropertyManager::`RTTI Complete Object Locator'
PUBLIC	??_R0?AVCPropertyManager@@@8			; CPropertyManager `RTTI Type Descriptor'
PUBLIC	??_R3CPropertyManager@@8			; CPropertyManager::`RTTI Class Hierarchy Descriptor'
PUBLIC	??_R2CPropertyManager@@8			; CPropertyManager::`RTTI Base Class Array'
PUBLIC	??_R1A@?0A@EA@CPropertyManager@@8		; CPropertyManager::`RTTI Base Class Descriptor at (0,-1,0,64)'
PUBLIC	??_R1A@?0A@EA@?$CSingleton@VCPropertyManager@@@@8 ; CSingleton<CPropertyManager>::`RTTI Base Class Descriptor at (0,-1,0,64)'
PUBLIC	??_R0?AV?$CSingleton@VCPropertyManager@@@@@8	; CSingleton<CPropertyManager> `RTTI Type Descriptor'
PUBLIC	??_R3?$CSingleton@VCPropertyManager@@@@8	; CSingleton<CPropertyManager>::`RTTI Class Hierarchy Descriptor'
PUBLIC	??_R2?$CSingleton@VCPropertyManager@@@@8	; CSingleton<CPropertyManager>::`RTTI Base Class Array'
PUBLIC	??_R4?$CSingleton@VCPropertyManager@@@@6B@	; CSingleton<CPropertyManager>::`RTTI Complete Object Locator'
PUBLIC	__real@3f800000
EXTRN	??2@YAPAXI@Z:PROC				; operator new
EXTRN	??3@YAXPAXI@Z:PROC				; operator delete
EXTRN	___std_terminate:PROC
EXTRN	__invalid_parameter_noinfo_noreturn:PROC
EXTRN	_memcpy:PROC
EXTRN	_memmove:PROC
EXTRN	__stricmp:PROC
EXTRN	_strlen:PROC
EXTRN	__imp__DeleteFileA@4:PROC
EXTRN	__imp__FindClose@4:PROC
EXTRN	__imp__FindFirstFileA@8:PROC
EXTRN	__imp__FindNextFileA@8:PROC
EXTRN	__imp__CopyFileA@12:PROC
EXTRN	__atoi64:PROC
EXTRN	_fclose:PROC
EXTRN	_fopen:PROC
EXTRN	_fputs:PROC
EXTRN	___stdio_common_vsprintf:PROC
EXTRN	___std_exception_copy:PROC
EXTRN	___std_exception_destroy:PROC
EXTRN	??_Eexception@std@@UAEPAXI@Z:PROC		; std::exception::`vector deleting destructor'
EXTRN	??_Ebad_alloc@std@@UAEPAXI@Z:PROC		; std::bad_alloc::`vector deleting destructor'
EXTRN	??_Ebad_array_new_length@std@@UAEPAXI@Z:PROC	; std::bad_array_new_length::`vector deleting destructor'
EXTRN	?_Xlength_error@std@@YAXPBD@Z:PROC		; std::_Xlength_error
EXTRN	?GetCRC32@@YAKPBDI@Z:PROC			; GetCRC32
EXTRN	?random@@YAKXZ:PROC				; random
EXTRN	?Tracef@@YAXPBDZZ:PROC				; Tracef
EXTRN	?LogBox@@YAXPBD0PAUHWND__@@@Z:PROC		; LogBox
EXTRN	?LogBoxf@@YAXPBDZZ:PROC				; LogBoxf
EXTRN	??0CMemoryTextFileLoader@@QAE@XZ:PROC		; CMemoryTextFileLoader::CMemoryTextFileLoader
EXTRN	??1CMemoryTextFileLoader@@UAE@XZ:PROC		; CMemoryTextFileLoader::~CMemoryTextFileLoader
EXTRN	?Bind@CMemoryTextFileLoader@@QAEXHPBX@Z:PROC	; CMemoryTextFileLoader::Bind
EXTRN	?GetLineCount@CMemoryTextFileLoader@@QAEKXZ:PROC ; CMemoryTextFileLoader::GetLineCount
EXTRN	?GetLineString@CMemoryTextFileLoader@@QAEABV?$basic_string@DU?$char_traits@D@std@@V?$allocator@D@2@@std@@K@Z:PROC ; CMemoryTextFileLoader::GetLineString
EXTRN	??0CMappedFile@@QAE@XZ:PROC			; CMappedFile::CMappedFile
EXTRN	??1CMappedFile@@UAE@XZ:PROC			; CMappedFile::~CMappedFile
EXTRN	?Size@CMappedFile@@QAEKXZ:PROC			; CMappedFile::Size
EXTRN	??0CEterPack@@QAE@XZ:PROC			; CEterPack::CEterPack
EXTRN	??1CEterPack@@UAE@XZ:PROC			; CEterPack::~CEterPack
EXTRN	?Create@CEterPack@@QAE_NAAVCEterFileDict@@PBD1_NPBE@Z:PROC ; CEterPack::Create
EXTRN	?Put@CEterPack@@QAE_NPBD0EABV?$basic_string@DU?$char_traits@D@std@@V?$allocator@D@2@@std@@@Z:PROC ; CEterPack::Put
EXTRN	?Delete@CEterPack@@QAE_NPBD@Z:PROC		; CEterPack::Delete
EXTRN	?GetIndexMap@CEterPack@@QAEAAV?$unordered_map@KPAUSEterPackIndex@@U?$hash@K@boost@@U?$equal_to@K@std@@V?$allocator@U?$pair@$$CBKPAUSEterPackIndex@@@std@@@5@@unordered@boost@@XZ:PROC ; CEterPack::GetIndexMap
EXTRN	?Get@CEterPackManager@@QAE_NAAVCMappedFile@@PBDPAPBX@Z:PROC ; CEterPackManager::Get
EXTRN	??_E?$CSingleton@VCPropertyManager@@@@UAEPAXI@Z:PROC ; CSingleton<CPropertyManager>::`vector deleting destructor'
EXTRN	??_ECPropertyManager@@UAEPAXI@Z:PROC		; CPropertyManager::`vector deleting destructor'
EXTRN	??0CProperty@@QAE@PBD@Z:PROC			; CProperty::CProperty
EXTRN	??1CProperty@@QAE@XZ:PROC			; CProperty::~CProperty
EXTRN	?ReadFromMemory@CProperty@@QAE_NPBXHPBD@Z:PROC	; CProperty::ReadFromMemory
EXTRN	?GetFileName@CProperty@@QAEPBDXZ:PROC		; CProperty::GetFileName
EXTRN	?GetCRC@CProperty@@QAEKXZ:PROC			; CProperty::GetCRC
EXTRN	@__security_check_cookie@4:PROC
EXTRN	__CxxThrowException@8:PROC
EXTRN	___CxxFrameHandler3:PROC
EXTRN	??_7type_info@@6B@:QWORD			; type_info::`vftable'
EXTRN	___security_cookie:DWORD
EXTRN	__fltused:DWORD
;	COMDAT ?_OptionsStorage@?1??__local_stdio_printf_options@@9@4_KA
_BSS	SEGMENT
?_OptionsStorage@?1??__local_stdio_printf_options@@9@4_KA DQ 01H DUP (?) ; `__local_stdio_printf_options'::`2'::_OptionsStorage
_BSS	ENDS
;	COMDAT ?ms_singleton@?$CSingleton@VCEterPackManager@@@@0PAVCEterPackManager@@A
_BSS	SEGMENT
?ms_singleton@?$CSingleton@VCEterPackManager@@@@0PAVCEterPackManager@@A DD 01H DUP (?) ; CSingleton<CEterPackManager>::ms_singleton
_BSS	ENDS
;	COMDAT ?ms_singleton@?$CSingleton@VCPropertyManager@@@@0PAVCPropertyManager@@A
_BSS	SEGMENT
?ms_singleton@?$CSingleton@VCPropertyManager@@@@0PAVCPropertyManager@@A DD 01H DUP (?) ; CSingleton<CPropertyManager>::ms_singleton
_BSS	ENDS
;	COMDAT __real@3f800000
CONST	SEGMENT
__real@3f800000 DD 03f800000r			; 1
CONST	ENDS
;	COMDAT ??_R4?$CSingleton@VCPropertyManager@@@@6B@
rdata$r	SEGMENT
??_R4?$CSingleton@VCPropertyManager@@@@6B@ DD 00H	; CSingleton<CPropertyManager>::`RTTI Complete Object Locator'
	DD	00H
	DD	00H
	DD	FLAT:??_R0?AV?$CSingleton@VCPropertyManager@@@@@8
	DD	FLAT:??_R3?$CSingleton@VCPropertyManager@@@@8
rdata$r	ENDS
;	COMDAT ??_R2?$CSingleton@VCPropertyManager@@@@8
rdata$r	SEGMENT
??_R2?$CSingleton@VCPropertyManager@@@@8 DD FLAT:??_R1A@?0A@EA@?$CSingleton@VCPropertyManager@@@@8 ; CSingleton<CPropertyManager>::`RTTI Base Class Array'
rdata$r	ENDS
;	COMDAT ??_R3?$CSingleton@VCPropertyManager@@@@8
rdata$r	SEGMENT
??_R3?$CSingleton@VCPropertyManager@@@@8 DD 00H		; CSingleton<CPropertyManager>::`RTTI Class Hierarchy Descriptor'
	DD	00H
	DD	01H
	DD	FLAT:??_R2?$CSingleton@VCPropertyManager@@@@8
rdata$r	ENDS
;	COMDAT ??_R0?AV?$CSingleton@VCPropertyManager@@@@@8
data$rs	SEGMENT
??_R0?AV?$CSingleton@VCPropertyManager@@@@@8 DD FLAT:??_7type_info@@6B@ ; CSingleton<CPropertyManager> `RTTI Type Descriptor'
	DD	00H
	DB	'.?AV?$CSingleton@VCPropertyManager@@@@', 00H
data$rs	ENDS
;	COMDAT ??_R1A@?0A@EA@?$CSingleton@VCPropertyManager@@@@8
rdata$r	SEGMENT
??_R1A@?0A@EA@?$CSingleton@VCPropertyManager@@@@8 DD FLAT:??_R0?AV?$CSingleton@VCPropertyManager@@@@@8 ; CSingleton<CPropertyManager>::`RTTI Base Class Descriptor at (0,-1,0,64)'
	DD	00H
	DD	00H
	DD	0ffffffffH
	DD	00H
	DD	040H
	DD	FLAT:??_R3?$CSingleton@VCPropertyManager@@@@8
rdata$r	ENDS
;	COMDAT ??_R1A@?0A@EA@CPropertyManager@@8
rdata$r	SEGMENT
??_R1A@?0A@EA@CPropertyManager@@8 DD FLAT:??_R0?AVCPropertyManager@@@8 ; CPropertyManager::`RTTI Base Class Descriptor at (0,-1,0,64)'
	DD	01H
	DD	00H
	DD	0ffffffffH
	DD	00H
	DD	040H
	DD	FLAT:??_R3CPropertyManager@@8
rdata$r	ENDS
;	COMDAT ??_R2CPropertyManager@@8
rdata$r	SEGMENT
??_R2CPropertyManager@@8 DD FLAT:??_R1A@?0A@EA@CPropertyManager@@8 ; CPropertyManager::`RTTI Base Class Array'
	DD	FLAT:??_R1A@?0A@EA@?$CSingleton@VCPropertyManager@@@@8
rdata$r	ENDS
;	COMDAT ??_R3CPropertyManager@@8
rdata$r	SEGMENT
??_R3CPropertyManager@@8 DD 00H				; CPropertyManager::`RTTI Class Hierarchy Descriptor'
	DD	00H
	DD	02H
	DD	FLAT:??_R2CPropertyManager@@8
rdata$r	ENDS
;	COMDAT ??_R0?AVCPropertyManager@@@8
data$rs	SEGMENT
??_R0?AVCPropertyManager@@@8 DD FLAT:??_7type_info@@6B@	; CPropertyManager `RTTI Type Descriptor'
	DD	00H
	DB	'.?AVCPropertyManager@@', 00H
data$rs	ENDS
;	COMDAT ??_R4CPropertyManager@@6B@
rdata$r	SEGMENT
??_R4CPropertyManager@@6B@ DD 00H			; CPropertyManager::`RTTI Complete Object Locator'
	DD	00H
	DD	00H
	DD	FLAT:??_R0?AVCPropertyManager@@@8
	DD	FLAT:??_R3CPropertyManager@@8
rdata$r	ENDS
;	COMDAT ??_C@_04JOCKIDOB@?$CFu?$AN?6@
CONST	SEGMENT
??_C@_04JOCKIDOB@?$CFu?$AN?6@ DB '%u', 0dH, 0aH, 00H	; `string'
CONST	ENDS
;	COMDAT ??_C@_0CA@IABPHDJJ@?$LP?$LJ?$LO?$OA?5CRC?5?F?D?$MA?O?$MA?$LL?5?$LP?$KN?5?$LM?v?5?$LO?x?$LN?$MA?$LE?O?$LE?Y?4@
CONST	SEGMENT
??_C@_0CA@IABPHDJJ@?$LP?$LJ?$LO?$OA?5CRC?5?F?D?$MA?O?$MA?$LL?5?$LP?$KN?5?$LM?v?5?$LO?x?$LN?$MA?$LE?O?$LE?Y?4@ DB 0bfH
	DB	0b9H, 0beH, 0e0H, ' CRC ', 0c6H, 0c4H, 0c0H, 0cfH, 0c0H, 0bbH, ' '
	DB	0bfH, 0adH, ' ', 0bcH, 0f6H, ' ', 0beH, 0f8H, 0bdH, 0c0H, 0b4H
	DB	0cfH, 0b4H, 0d9H, '.', 00H			; `string'
CONST	ENDS
;	COMDAT ??_C@_02DPNLHKJD@a?$CL@
CONST	SEGMENT
??_C@_02DPNLHKJD@a?$CL@ DB 'a+', 00H			; `string'
CONST	ENDS
;	COMDAT ??_C@_0CP@KFNNCDLJ@Property?5already?5registered?0?5re@
CONST	SEGMENT
??_C@_0CP@KFNNCDLJ@Property?5already?5registered?0?5re@ DB 'Property alre'
	DB	'ady registered, replace %s to %s', 0aH, 00H	; `string'
CONST	ENDS
;	COMDAT ??_C@_02DPKJAMEF@?$CFd@
CONST	SEGMENT
??_C@_02DPKJAMEF@?$CFd@ DB '%d', 00H			; `string'
CONST	ENDS
;	COMDAT ??_C@_0M@OKKDHDOO@property?2?$CFs@
CONST	SEGMENT
??_C@_0M@OKKDHDOO@property?2?$CFs@ DB 'property\%s', 00H ; `string'
CONST	ENDS
;	COMDAT ??_C@_0L@DIKAOLMN@property?2?$CK@
CONST	SEGMENT
??_C@_0L@DIKAOLMN@property?2?$CK@ DB 'property\*', 00H	; `string'
CONST	ENDS
;	COMDAT ??_C@_08EMBNBNLN@property@
CONST	SEGMENT
??_C@_08EMBNBNLN@property@ DB 'property', 00H		; `string'
CONST	ENDS
;	COMDAT ??_C@_0BB@FGKGEGON@property?1reserve@
CONST	SEGMENT
??_C@_0BB@FGKGEGON@property?1reserve@ DB 'property/reserve', 00H ; `string'
CONST	ENDS
;	COMDAT ??_C@_0CN@PCLFHBKL@Cannot?5open?5property?5pack?5file?5@
CONST	SEGMENT
??_C@_0CN@PCLFHBKL@Cannot?5open?5property?5pack?5file?5@ DB 'Cannot open '
	DB	'property pack file (filename %s)', 00H	; `string'
CONST	ENDS
;	COMDAT ??_7CPropertyManager@@6B@
CONST	SEGMENT
??_7CPropertyManager@@6B@ DD FLAT:??_R4CPropertyManager@@6B@ ; CPropertyManager::`vftable'
	DD	FLAT:??_ECPropertyManager@@UAEPAXI@Z
CONST	ENDS
;	COMDAT ??_7?$CSingleton@VCPropertyManager@@@@6B@
CONST	SEGMENT
??_7?$CSingleton@VCPropertyManager@@@@6B@ DD FLAT:??_R4?$CSingleton@VCPropertyManager@@@@6B@ ; CSingleton<CPropertyManager>::`vftable'
	DD	FLAT:??_E?$CSingleton@VCPropertyManager@@@@UAEPAXI@Z
CONST	ENDS
;	COMDAT ?length@?$prime_list_template@I@detail@unordered@boost@@2HB
CONST	SEGMENT
?length@?$prime_list_template@I@detail@unordered@boost@@2HB DD 026H ; boost::unordered::detail::prime_list_template<unsigned int>::length
CONST	ENDS
;	COMDAT ?value@?$prime_list_template@I@detail@unordered@boost@@2QBIB
CONST	SEGMENT
?value@?$prime_list_template@I@detail@unordered@boost@@2QBIB DD 011H ; boost::unordered::detail::prime_list_template<unsigned int>::value
	DD	01dH
	DD	025H
	DD	035H
	DD	043H
	DD	04fH
	DD	061H
	DD	083H
	DD	0c1H
	DD	0101H
	DD	0185H
	DD	0209H
	DD	0301H
	DD	0407H
	DD	0607H
	DD	0805H
	DD	0c07H
	DD	01807H
	DD	03001H
	DD	06011H
	DD	0c005H
	DD	01800dH
	DD	030005H
	DD	060019H
	DD	0c0001H
	DD	0180005H
	DD	030000bH
	DD	060000dH
	DD	0c00005H
	DD	01800013H
	DD	03000005H
	DD	06000017H
	DD	0c000013H
	DD	018000005H
	DD	030000059H
	DD	060000005H
	DD	0c0000001H
	DD	0fffffffbH
CONST	ENDS
;	COMDAT ??_R1A@?0A@EA@bad_array_new_length@std@@8
rdata$r	SEGMENT
??_R1A@?0A@EA@bad_array_new_length@std@@8 DD FLAT:??_R0?AVbad_array_new_length@std@@@8 ; std::bad_array_new_length::`RTTI Base Class Descriptor at (0,-1,0,64)'
	DD	02H
	DD	00H
	DD	0ffffffffH
	DD	00H
	DD	040H
	DD	FLAT:??_R3bad_array_new_length@std@@8
rdata$r	ENDS
;	COMDAT ??_R2bad_array_new_length@std@@8
rdata$r	SEGMENT
??_R2bad_array_new_length@std@@8 DD FLAT:??_R1A@?0A@EA@bad_array_new_length@std@@8 ; std::bad_array_new_length::`RTTI Base Class Array'
	DD	FLAT:??_R1A@?0A@EA@bad_alloc@std@@8
	DD	FLAT:??_R1A@?0A@EA@exception@std@@8
rdata$r	ENDS
;	COMDAT ??_R3bad_array_new_length@std@@8
rdata$r	SEGMENT
??_R3bad_array_new_length@std@@8 DD 00H			; std::bad_array_new_length::`RTTI Class Hierarchy Descriptor'
	DD	00H
	DD	03H
	DD	FLAT:??_R2bad_array_new_length@std@@8
rdata$r	ENDS
;	COMDAT ??_R4bad_array_new_length@std@@6B@
rdata$r	SEGMENT
??_R4bad_array_new_length@std@@6B@ DD 00H		; std::bad_array_new_length::`RTTI Complete Object Locator'
	DD	00H
	DD	00H
	DD	FLAT:??_R0?AVbad_array_new_length@std@@@8
	DD	FLAT:??_R3bad_array_new_length@std@@8
rdata$r	ENDS
;	COMDAT ??_R1A@?0A@EA@bad_alloc@std@@8
rdata$r	SEGMENT
??_R1A@?0A@EA@bad_alloc@std@@8 DD FLAT:??_R0?AVbad_alloc@std@@@8 ; std::bad_alloc::`RTTI Base Class Descriptor at (0,-1,0,64)'
	DD	01H
	DD	00H
	DD	0ffffffffH
	DD	00H
	DD	040H
	DD	FLAT:??_R3bad_alloc@std@@8
rdata$r	ENDS
;	COMDAT ??_R2bad_alloc@std@@8
rdata$r	SEGMENT
??_R2bad_alloc@std@@8 DD FLAT:??_R1A@?0A@EA@bad_alloc@std@@8 ; std::bad_alloc::`RTTI Base Class Array'
	DD	FLAT:??_R1A@?0A@EA@exception@std@@8
rdata$r	ENDS
;	COMDAT ??_R3bad_alloc@std@@8
rdata$r	SEGMENT
??_R3bad_alloc@std@@8 DD 00H				; std::bad_alloc::`RTTI Class Hierarchy Descriptor'
	DD	00H
	DD	02H
	DD	FLAT:??_R2bad_alloc@std@@8
rdata$r	ENDS
;	COMDAT ??_R4bad_alloc@std@@6B@
rdata$r	SEGMENT
??_R4bad_alloc@std@@6B@ DD 00H				; std::bad_alloc::`RTTI Complete Object Locator'
	DD	00H
	DD	00H
	DD	FLAT:??_R0?AVbad_alloc@std@@@8
	DD	FLAT:??_R3bad_alloc@std@@8
rdata$r	ENDS
;	COMDAT ??_R1A@?0A@EA@exception@std@@8
rdata$r	SEGMENT
??_R1A@?0A@EA@exception@std@@8 DD FLAT:??_R0?AVexception@std@@@8 ; std::exception::`RTTI Base Class Descriptor at (0,-1,0,64)'
	DD	00H
	DD	00H
	DD	0ffffffffH
	DD	00H
	DD	040H
	DD	FLAT:??_R3exception@std@@8
rdata$r	ENDS
;	COMDAT ??_R2exception@std@@8
rdata$r	SEGMENT
??_R2exception@std@@8 DD FLAT:??_R1A@?0A@EA@exception@std@@8 ; std::exception::`RTTI Base Class Array'
rdata$r	ENDS
;	COMDAT ??_R3exception@std@@8
rdata$r	SEGMENT
??_R3exception@std@@8 DD 00H				; std::exception::`RTTI Class Hierarchy Descriptor'
	DD	00H
	DD	01H
	DD	FLAT:??_R2exception@std@@8
rdata$r	ENDS
;	COMDAT ??_R4exception@std@@6B@
rdata$r	SEGMENT
??_R4exception@std@@6B@ DD 00H				; std::exception::`RTTI Complete Object Locator'
	DD	00H
	DD	00H
	DD	FLAT:??_R0?AVexception@std@@@8
	DD	FLAT:??_R3exception@std@@8
rdata$r	ENDS
;	COMDAT ??_C@_00CNPNBAHC@@
CONST	SEGMENT
??_C@_00CNPNBAHC@@ DB 00H				; `string'
CONST	ENDS
;	COMDAT ??_C@_0BB@GCADKGJO@map?1set?5too?5long@
CONST	SEGMENT
??_C@_0BB@GCADKGJO@map?1set?5too?5long@ DB 'map/set too long', 00H ; `string'
CONST	ENDS
;	COMDAT ??_C@_0BA@JFNIOLAK@string?5too?5long@
CONST	SEGMENT
??_C@_0BA@JFNIOLAK@string?5too?5long@ DB 'string too long', 00H ; `string'
CONST	ENDS
;	COMDAT __CT??_R0?AVexception@std@@@8??0exception@std@@QAE@ABV01@@Z12
xdata$x	SEGMENT
__CT??_R0?AVexception@std@@@8??0exception@std@@QAE@ABV01@@Z12 DD 00H
	DD	FLAT:??_R0?AVexception@std@@@8
	DD	00H
	DD	0ffffffffH
	ORG $+4
	DD	0cH
	DD	FLAT:??0exception@std@@QAE@ABV01@@Z
xdata$x	ENDS
;	COMDAT ??_R0?AVexception@std@@@8
data$r	SEGMENT
??_R0?AVexception@std@@@8 DD FLAT:??_7type_info@@6B@	; std::exception `RTTI Type Descriptor'
	DD	00H
	DB	'.?AVexception@std@@', 00H
data$r	ENDS
;	COMDAT __CT??_R0?AVbad_alloc@std@@@8??0bad_alloc@std@@QAE@ABV01@@Z12
xdata$x	SEGMENT
__CT??_R0?AVbad_alloc@std@@@8??0bad_alloc@std@@QAE@ABV01@@Z12 DD 010H
	DD	FLAT:??_R0?AVbad_alloc@std@@@8
	DD	00H
	DD	0ffffffffH
	ORG $+4
	DD	0cH
	DD	FLAT:??0bad_alloc@std@@QAE@ABV01@@Z
xdata$x	ENDS
;	COMDAT ??_R0?AVbad_alloc@std@@@8
data$r	SEGMENT
??_R0?AVbad_alloc@std@@@8 DD FLAT:??_7type_info@@6B@	; std::bad_alloc `RTTI Type Descriptor'
	DD	00H
	DB	'.?AVbad_alloc@std@@', 00H
data$r	ENDS
;	COMDAT __CT??_R0?AVbad_array_new_length@std@@@8??0bad_array_new_length@std@@QAE@ABV01@@Z12
xdata$x	SEGMENT
__CT??_R0?AVbad_array_new_length@std@@@8??0bad_array_new_length@std@@QAE@ABV01@@Z12 DD 00H
	DD	FLAT:??_R0?AVbad_array_new_length@std@@@8
	DD	00H
	DD	0ffffffffH
	ORG $+4
	DD	0cH
	DD	FLAT:??0bad_array_new_length@std@@QAE@ABV01@@Z
xdata$x	ENDS
;	COMDAT ??_R0?AVbad_array_new_length@std@@@8
data$r	SEGMENT
??_R0?AVbad_array_new_length@std@@@8 DD FLAT:??_7type_info@@6B@ ; std::bad_array_new_length `RTTI Type Descriptor'
	DD	00H
	DB	'.?AVbad_array_new_length@std@@', 00H
data$r	ENDS
;	COMDAT __CTA3?AVbad_array_new_length@std@@
xdata$x	SEGMENT
__CTA3?AVbad_array_new_length@std@@ DD 03H
	DD	FLAT:__CT??_R0?AVbad_array_new_length@std@@@8??0bad_array_new_length@std@@QAE@ABV01@@Z12
	DD	FLAT:__CT??_R0?AVbad_alloc@std@@@8??0bad_alloc@std@@QAE@ABV01@@Z12
	DD	FLAT:__CT??_R0?AVexception@std@@@8??0exception@std@@QAE@ABV01@@Z12
xdata$x	ENDS
;	COMDAT __TI3?AVbad_array_new_length@std@@
xdata$x	SEGMENT
__TI3?AVbad_array_new_length@std@@ DD 00H
	DD	FLAT:??1bad_array_new_length@std@@UAE@XZ
	DD	00H
	DD	FLAT:__CTA3?AVbad_array_new_length@std@@
xdata$x	ENDS
;	COMDAT ??_C@_0BF@KINCDENJ@bad?5array?5new?5length@
CONST	SEGMENT
??_C@_0BF@KINCDENJ@bad?5array?5new?5length@ DB 'bad array new length', 00H ; `string'
CONST	ENDS
;	COMDAT ??_7bad_array_new_length@std@@6B@
CONST	SEGMENT
??_7bad_array_new_length@std@@6B@ DD FLAT:??_R4bad_array_new_length@std@@6B@ ; std::bad_array_new_length::`vftable'
	DD	FLAT:??_Ebad_array_new_length@std@@UAEPAXI@Z
	DD	FLAT:?what@exception@std@@UBEPBDXZ
CONST	ENDS
;	COMDAT ??_7bad_alloc@std@@6B@
CONST	SEGMENT
??_7bad_alloc@std@@6B@ DD FLAT:??_R4bad_alloc@std@@6B@	; std::bad_alloc::`vftable'
	DD	FLAT:??_Ebad_alloc@std@@UAEPAXI@Z
	DD	FLAT:?what@exception@std@@UBEPBDXZ
CONST	ENDS
;	COMDAT ??_C@_0BC@EOODALEL@Unknown?5exception@
CONST	SEGMENT
??_C@_0BC@EOODALEL@Unknown?5exception@ DB 'Unknown exception', 00H ; `string'
CONST	ENDS
;	COMDAT ??_7exception@std@@6B@
CONST	SEGMENT
??_7exception@std@@6B@ DD FLAT:??_R4exception@std@@6B@	; std::exception::`vftable'
	DD	FLAT:??_Eexception@std@@UAEPAXI@Z
	DD	FLAT:?what@exception@std@@UBEPBDXZ
CONST	ENDS
;	COMDAT xdata$x
xdata$x	SEGMENT
__unwindtable$??$?0U?$pair@$$CBKPAVCProperty@@@std@@@?$_Tree_temp_node@V?$allocator@U?$_Tree_node@U?$pair@$$CBKPAVCProperty@@@std@@PAX@std@@@std@@@std@@QAE@AAV?$allocator@U?$_Tree_node@U?$pair@$$CBKPAVCProperty@@@std@@PAX@std@@@1@PAU?$_Tree_node@U?$pair@$$CBKPAVCProperty@@@std@@PAX@1@$$QAU?$pair@$$CBKPAVCProperty@@@1@@Z DD 0ffffffffH
	DD	FLAT:__unwindfunclet$??$?0U?$pair@$$CBKPAVCProperty@@@std@@@?$_Tree_temp_node@V?$allocator@U?$_Tree_node@U?$pair@$$CBKPAVCProperty@@@std@@PAX@std@@@std@@@std@@QAE@AAV?$allocator@U?$_Tree_node@U?$pair@$$CBKPAVCProperty@@@std@@PAX@std@@@1@PAU?$_Tree_node@U?$pair@$$CBKPAVCProperty@@@std@@PAX@1@$$QAU?$pair@$$CBKPAVCProperty@@@1@@Z$1
__ehfuncinfo$??$?0U?$pair@$$CBKPAVCProperty@@@std@@@?$_Tree_temp_node@V?$allocator@U?$_Tree_node@U?$pair@$$CBKPAVCProperty@@@std@@PAX@std@@@std@@@std@@QAE@AAV?$allocator@U?$_Tree_node@U?$pair@$$CBKPAVCProperty@@@std@@PAX@std@@@1@PAU?$_Tree_node@U?$pair@$$CBKPAVCProperty@@@std@@PAX@1@$$QAU?$pair@$$CBKPAVCProperty@@@1@@Z DD 019930522H
	DD	01H
	DD	FLAT:__unwindtable$??$?0U?$pair@$$CBKPAVCProperty@@@std@@@?$_Tree_temp_node@V?$allocator@U?$_Tree_node@U?$pair@$$CBKPAVCProperty@@@std@@PAX@std@@@std@@@std@@QAE@AAV?$allocator@U?$_Tree_node@U?$pair@$$CBKPAVCProperty@@@std@@PAX@std@@@1@PAU?$_Tree_node@U?$pair@$$CBKPAVCProperty@@@std@@PAX@1@$$QAU?$pair@$$CBKPAVCProperty@@@1@@Z
	DD	2 DUP(00H)
	DD	2 DUP(00H)
	DD	00H
	DD	01H
xdata$x	ENDS
;	COMDAT xdata$x
xdata$x	SEGMENT
__unwindtable$??$?0ABK@?$_Tree_temp_node@V?$allocator@U?$_Tree_node@KPAX@std@@@std@@@std@@QAE@AAV?$allocator@U?$_Tree_node@KPAX@std@@@1@PAU?$_Tree_node@KPAX@1@ABK@Z DD 0ffffffffH
	DD	FLAT:__unwindfunclet$??$?0ABK@?$_Tree_temp_node@V?$allocator@U?$_Tree_node@KPAX@std@@@std@@@std@@QAE@AAV?$allocator@U?$_Tree_node@KPAX@std@@@1@PAU?$_Tree_node@KPAX@1@ABK@Z$1
__ehfuncinfo$??$?0ABK@?$_Tree_temp_node@V?$allocator@U?$_Tree_node@KPAX@std@@@std@@@std@@QAE@AAV?$allocator@U?$_Tree_node@KPAX@std@@@1@PAU?$_Tree_node@KPAX@1@ABK@Z DD 019930522H
	DD	01H
	DD	FLAT:__unwindtable$??$?0ABK@?$_Tree_temp_node@V?$allocator@U?$_Tree_node@KPAX@std@@@std@@@std@@QAE@AAV?$allocator@U?$_Tree_node@KPAX@std@@@1@PAU?$_Tree_node@KPAX@1@ABK@Z
	DD	2 DUP(00H)
	DD	2 DUP(00H)
	DD	00H
	DD	01H
xdata$x	ENDS
;	COMDAT xdata$x
xdata$x	SEGMENT
__unwindtable$?Put@CPropertyManager@@QAE_NPBD0@Z DD 0ffffffffH
	DD	FLAT:__unwindfunclet$?Put@CPropertyManager@@QAE_NPBD0@Z$0
__ehfuncinfo$?Put@CPropertyManager@@QAE_NPBD0@Z DD 019930522H
	DD	01H
	DD	FLAT:__unwindtable$?Put@CPropertyManager@@QAE_NPBD0@Z
	DD	2 DUP(00H)
	DD	2 DUP(00H)
	DD	00H
	DD	01H
xdata$x	ENDS
;	COMDAT xdata$x
xdata$x	SEGMENT
__unwindtable$?Register@CPropertyManager@@QAE_NPBDPAPAVCProperty@@@Z DD 0ffffffffH
	DD	FLAT:__unwindfunclet$?Register@CPropertyManager@@QAE_NPBDPAPAVCProperty@@@Z$0
	DD	00H
	DD	FLAT:__unwindfunclet$?Register@CPropertyManager@@QAE_NPBDPAPAVCProperty@@@Z$1
__ehfuncinfo$?Register@CPropertyManager@@QAE_NPBDPAPAVCProperty@@@Z DD 019930522H
	DD	02H
	DD	FLAT:__unwindtable$?Register@CPropertyManager@@QAE_NPBDPAPAVCProperty@@@Z
	DD	2 DUP(00H)
	DD	2 DUP(00H)
	DD	00H
	DD	01H
xdata$x	ENDS
;	COMDAT xdata$x
xdata$x	SEGMENT
__unwindtable$?Initialize@CPropertyManager@@QAE_NPBD@Z DD 0ffffffffH
	DD	FLAT:___std_terminate
__ehfuncinfo$?Initialize@CPropertyManager@@QAE_NPBD@Z DD 019930522H
	DD	01H
	DD	FLAT:__unwindtable$?Initialize@CPropertyManager@@QAE_NPBD@Z
	DD	2 DUP(00H)
	DD	2 DUP(00H)
	DD	00H
	DD	01H
xdata$x	ENDS
;	COMDAT xdata$x
xdata$x	SEGMENT
__unwindtable$?GetUniqueCRC@CPropertyManager@@QAEKPBD@Z DD 0ffffffffH
	DD	FLAT:__unwindfunclet$?GetUniqueCRC@CPropertyManager@@QAEKPBD@Z$0
__ehfuncinfo$?GetUniqueCRC@CPropertyManager@@QAEKPBD@Z DD 019930522H
	DD	01H
	DD	FLAT:__unwindtable$?GetUniqueCRC@CPropertyManager@@QAEKPBD@Z
	DD	2 DUP(00H)
	DD	2 DUP(00H)
	DD	00H
	DD	01H
xdata$x	ENDS
;	COMDAT xdata$x
xdata$x	SEGMENT
__unwindtable$?LoadReservedCRC@CPropertyManager@@QAE_NPBD@Z DD 0ffffffffH
	DD	FLAT:__unwindfunclet$?LoadReservedCRC@CPropertyManager@@QAE_NPBD@Z$0
	DD	00H
	DD	FLAT:__unwindfunclet$?LoadReservedCRC@CPropertyManager@@QAE_NPBD@Z$1
__ehfuncinfo$?LoadReservedCRC@CPropertyManager@@QAE_NPBD@Z DD 019930522H
	DD	02H
	DD	FLAT:__unwindtable$?LoadReservedCRC@CPropertyManager@@QAE_NPBD@Z
	DD	2 DUP(00H)
	DD	2 DUP(00H)
	DD	00H
	DD	01H
xdata$x	ENDS
;	COMDAT xdata$x
xdata$x	SEGMENT
__unwindtable$?BuildPack@CPropertyManager@@QAE_NXZ DD 0ffffffffH
	DD	FLAT:__unwindfunclet$?BuildPack@CPropertyManager@@QAE_NXZ$0
__ehfuncinfo$?BuildPack@CPropertyManager@@QAE_NXZ DD 019930522H
	DD	01H
	DD	FLAT:__unwindtable$?BuildPack@CPropertyManager@@QAE_NXZ
	DD	2 DUP(00H)
	DD	2 DUP(00H)
	DD	00H
	DD	01H
xdata$x	ENDS
;	COMDAT xdata$x
xdata$x	SEGMENT
__ehfuncinfo$??1CPropertyManager@@UAE@XZ DD 019930522H
	DD	00H
	DD	00H
	DD	2 DUP(00H)
	DD	2 DUP(00H)
	DD	00H
	DD	05H
xdata$x	ENDS
;	COMDAT xdata$x
xdata$x	SEGMENT
__unwindtable$??0CPropertyManager@@QAE@XZ DD 0ffffffffH
	DD	FLAT:__unwindfunclet$??0CPropertyManager@@QAE@XZ$0
	DD	00H
	DD	FLAT:__unwindfunclet$??0CPropertyManager@@QAE@XZ$1
	DD	01H
	DD	FLAT:__unwindfunclet$??0CPropertyManager@@QAE@XZ$2
	DD	02H
	DD	FLAT:__unwindfunclet$??0CPropertyManager@@QAE@XZ$3
__ehfuncinfo$??0CPropertyManager@@QAE@XZ DD 019930522H
	DD	04H
	DD	FLAT:__unwindtable$??0CPropertyManager@@QAE@XZ
	DD	2 DUP(00H)
	DD	2 DUP(00H)
	DD	00H
	DD	01H
xdata$x	ENDS
;	COMDAT xdata$x
xdata$x	SEGMENT
__unwindtable$??1?$unordered_multimap@KUItem@CEterFileDict@@U?$hash@K@boost@@U?$equal_to@K@std@@V?$allocator@U?$pair@$$CBKUItem@CEterFileDict@@@std@@@6@@unordered@boost@@QAE@XZ DD 0ffffffffH
	DD	FLAT:___std_terminate
__ehfuncinfo$??1?$unordered_multimap@KUItem@CEterFileDict@@U?$hash@K@boost@@U?$equal_to@K@std@@V?$allocator@U?$pair@$$CBKUItem@CEterFileDict@@@std@@@6@@unordered@boost@@QAE@XZ DD 019930522H
	DD	01H
	DD	FLAT:__unwindtable$??1?$unordered_multimap@KUItem@CEterFileDict@@U?$hash@K@boost@@U?$equal_to@K@std@@V?$allocator@U?$pair@$$CBKUItem@CEterFileDict@@@std@@@6@@unordered@boost@@QAE@XZ
	DD	2 DUP(00H)
	DD	2 DUP(00H)
	DD	00H
	DD	05H
xdata$x	ENDS
;	COMDAT xdata$x
xdata$x	SEGMENT
__unwindtable$??0?$table@U?$map@V?$allocator@U?$pair@$$CBKUItem@CEterFileDict@@@std@@@std@@KUItem@CEterFileDict@@U?$hash@K@boost@@U?$equal_to@K@2@@detail@unordered@boost@@@detail@unordered@boost@@QAE@IABU?$hash@K@3@ABU?$equal_to@K@std@@ABV?$allocator@U?$ptr_node@U?$pair@$$CBKUItem@CEterFileDict@@@std@@@detail@unordered@boost@@@6@@Z DD 0ffffffffH
	DD	FLAT:__unwindfunclet$??0?$table@U?$map@V?$allocator@U?$pair@$$CBKUItem@CEterFileDict@@@std@@@std@@KUItem@CEterFileDict@@U?$hash@K@boost@@U?$equal_to@K@2@@detail@unordered@boost@@@detail@unordered@boost@@QAE@IABU?$hash@K@3@ABU?$equal_to@K@std@@ABV?$allocator@U?$ptr_node@U?$pair@$$CBKUItem@CEterFileDict@@@std@@@detail@unordered@boost@@@6@@Z$0
__ehfuncinfo$??0?$table@U?$map@V?$allocator@U?$pair@$$CBKUItem@CEterFileDict@@@std@@@std@@KUItem@CEterFileDict@@U?$hash@K@boost@@U?$equal_to@K@2@@detail@unordered@boost@@@detail@unordered@boost@@QAE@IABU?$hash@K@3@ABU?$equal_to@K@std@@ABV?$allocator@U?$ptr_node@U?$pair@$$CBKUItem@CEterFileDict@@@std@@@detail@unordered@boost@@@6@@Z DD 019930522H
	DD	01H
	DD	FLAT:__unwindtable$??0?$table@U?$map@V?$allocator@U?$pair@$$CBKUItem@CEterFileDict@@@std@@@std@@KUItem@CEterFileDict@@U?$hash@K@boost@@U?$equal_to@K@2@@detail@unordered@boost@@@detail@unordered@boost@@QAE@IABU?$hash@K@3@ABU?$equal_to@K@std@@ABV?$allocator@U?$ptr_node@U?$pair@$$CBKUItem@CEterFileDict@@@std@@@detail@unordered@boost@@@6@@Z
	DD	2 DUP(00H)
	DD	2 DUP(00H)
	DD	00H
	DD	01H
xdata$x	ENDS
;	COMDAT xdata$x
xdata$x	SEGMENT
__ehfuncinfo$??$_Deallocate@$07$0A@@std@@YAXPAXI@Z DD 019930522H
	DD	00H
	DD	00H
	DD	2 DUP(00H)
	DD	2 DUP(00H)
	DD	00H
	DD	05H
xdata$x	ENDS
;	COMDAT xdata$x
xdata$x	SEGMENT
__unwindtable$??0?$basic_string@DU?$char_traits@D@std@@V?$allocator@D@2@@std@@QAE@QBD@Z DD 0ffffffffH
	DD	FLAT:__unwindfunclet$??0?$basic_string@DU?$char_traits@D@std@@V?$allocator@D@2@@std@@QAE@QBD@Z$0
__ehfuncinfo$??0?$basic_string@DU?$char_traits@D@std@@V?$allocator@D@2@@std@@QAE@QBD@Z DD 019930522H
	DD	01H
	DD	FLAT:__unwindtable$??0?$basic_string@DU?$char_traits@D@std@@V?$allocator@D@2@@std@@QAE@QBD@Z
	DD	2 DUP(00H)
	DD	2 DUP(00H)
	DD	00H
	DD	01H
xdata$x	ENDS
; Function compile flags: /Odspy
; File C:\Program Files (x86)\Microsoft Visual Studio\2019\Community\VC\Tools\MSVC\14.28.29333\include\xmemory
; File C:\Program Files (x86)\Microsoft Visual Studio\2019\Community\VC\Tools\MSVC\14.28.29333\include\xstddef
; File C:\Program Files (x86)\Microsoft Visual Studio\2019\Community\VC\Tools\MSVC\14.28.29333\include\vcruntime_new.h
; File C:\Program Files (x86)\Microsoft Visual Studio\2019\Community\VC\Tools\MSVC\14.28.29333\include\type_traits
; File C:\Program Files (x86)\Microsoft Visual Studio\2019\Community\VC\Tools\MSVC\14.28.29333\include\xmemory
;	COMDAT ??$_Construct_in_place@PAU?$_Tree_node@U?$pair@$$CBKPAVCProperty@@@std@@PAX@std@@AAPAU12@@std@@YAXAAPAU?$_Tree_node@U?$pair@$$CBKPAVCProperty@@@std@@PAX@0@0@Z
_TEXT	SEGMENT
$T1 = -12						; size = 4
$T2 = -8						; size = 4
$T3 = -4						; size = 4
__Obj$ = 8						; size = 4
_<_Args_0>$ = 12					; size = 4
??$_Construct_in_place@PAU?$_Tree_node@U?$pair@$$CBKPAVCProperty@@@std@@PAX@std@@AAPAU12@@std@@YAXAAPAU?$_Tree_node@U?$pair@$$CBKPAVCProperty@@@std@@PAX@0@0@Z PROC ; std::_Construct_in_place<std::_Tree_node<std::pair<unsigned long const ,CProperty *>,void *> *,std::_Tree_node<std::pair<unsigned long const ,CProperty *>,void *> * &>, COMDAT

; 228  : void _Construct_in_place(_Ty& _Obj, _Types&&... _Args) noexcept(is_nothrow_constructible_v<_Ty, _Types...>) {

  00000	55		 push	 ebp
  00001	8b ec		 mov	 ebp, esp
  00003	83 ec 0c	 sub	 esp, 12			; 0000000cH
; File C:\Program Files (x86)\Microsoft Visual Studio\2019\Community\VC\Tools\MSVC\14.28.29333\include\xstddef

; 275  :     return __builtin_addressof(_Val);

  00006	8b 45 08	 mov	 eax, DWORD PTR __Obj$[ebp]
  00009	89 45 fc	 mov	 DWORD PTR $T3[ebp], eax
; File C:\Program Files (x86)\Microsoft Visual Studio\2019\Community\VC\Tools\MSVC\14.28.29333\include\vcruntime_new.h

; 169  :         return _Where;

  0000c	8b 45 fc	 mov	 eax, DWORD PTR $T3[ebp]
  0000f	89 45 f8	 mov	 DWORD PTR $T2[ebp], eax
; File C:\Program Files (x86)\Microsoft Visual Studio\2019\Community\VC\Tools\MSVC\14.28.29333\include\type_traits

; 1443 :     return static_cast<_Ty&&>(_Arg);

  00012	8b 45 0c	 mov	 eax, DWORD PTR _<_Args_0>$[ebp]
  00015	89 45 f4	 mov	 DWORD PTR $T1[ebp], eax
; File C:\Program Files (x86)\Microsoft Visual Studio\2019\Community\VC\Tools\MSVC\14.28.29333\include\xmemory

; 229  :     ::new (const_cast<void*>(static_cast<const volatile void*>(_STD addressof(_Obj))))

  00018	8b 45 f8	 mov	 eax, DWORD PTR $T2[ebp]
  0001b	8b 4d f4	 mov	 ecx, DWORD PTR $T1[ebp]
  0001e	8b 09		 mov	 ecx, DWORD PTR [ecx]
  00020	89 08		 mov	 DWORD PTR [eax], ecx

; 230  :         _Ty(_STD forward<_Types>(_Args)...);
; 231  : }

  00022	c9		 leave
  00023	c3		 ret	 0
??$_Construct_in_place@PAU?$_Tree_node@U?$pair@$$CBKPAVCProperty@@@std@@PAX@std@@AAPAU12@@std@@YAXAAPAU?$_Tree_node@U?$pair@$$CBKPAVCProperty@@@std@@PAX@0@0@Z ENDP ; std::_Construct_in_place<std::_Tree_node<std::pair<unsigned long const ,CProperty *>,void *> *,std::_Tree_node<std::pair<unsigned long const ,CProperty *>,void *> * &>
_TEXT	ENDS
; Function compile flags: /Odspy
; File C:\Program Files (x86)\Microsoft Visual Studio\2019\Community\VC\Tools\MSVC\14.28.29333\include\xmemory
; File C:\Program Files (x86)\Microsoft Visual Studio\2019\Community\VC\Tools\MSVC\14.28.29333\include\xstddef
; File C:\Program Files (x86)\Microsoft Visual Studio\2019\Community\VC\Tools\MSVC\14.28.29333\include\vcruntime_new.h
; File C:\Program Files (x86)\Microsoft Visual Studio\2019\Community\VC\Tools\MSVC\14.28.29333\include\type_traits
; File C:\Program Files (x86)\Microsoft Visual Studio\2019\Community\VC\Tools\MSVC\14.28.29333\include\xmemory
;	COMDAT ??$_Construct_in_place@PAU?$_Tree_node@KPAX@std@@AAPAU12@@std@@YAXAAPAU?$_Tree_node@KPAX@0@0@Z
_TEXT	SEGMENT
$T1 = -12						; size = 4
$T2 = -8						; size = 4
$T3 = -4						; size = 4
__Obj$ = 8						; size = 4
_<_Args_0>$ = 12					; size = 4
??$_Construct_in_place@PAU?$_Tree_node@KPAX@std@@AAPAU12@@std@@YAXAAPAU?$_Tree_node@KPAX@0@0@Z PROC ; std::_Construct_in_place<std::_Tree_node<unsigned long,void *> *,std::_Tree_node<unsigned long,void *> * &>, COMDAT

; 228  : void _Construct_in_place(_Ty& _Obj, _Types&&... _Args) noexcept(is_nothrow_constructible_v<_Ty, _Types...>) {

  00000	55		 push	 ebp
  00001	8b ec		 mov	 ebp, esp
  00003	83 ec 0c	 sub	 esp, 12			; 0000000cH
; File C:\Program Files (x86)\Microsoft Visual Studio\2019\Community\VC\Tools\MSVC\14.28.29333\include\xstddef

; 275  :     return __builtin_addressof(_Val);

  00006	8b 45 08	 mov	 eax, DWORD PTR __Obj$[ebp]
  00009	89 45 fc	 mov	 DWORD PTR $T3[ebp], eax
; File C:\Program Files (x86)\Microsoft Visual Studio\2019\Community\VC\Tools\MSVC\14.28.29333\include\vcruntime_new.h

; 169  :         return _Where;

  0000c	8b 45 fc	 mov	 eax, DWORD PTR $T3[ebp]
  0000f	89 45 f8	 mov	 DWORD PTR $T2[ebp], eax
; File C:\Program Files (x86)\Microsoft Visual Studio\2019\Community\VC\Tools\MSVC\14.28.29333\include\type_traits

; 1443 :     return static_cast<_Ty&&>(_Arg);

  00012	8b 45 0c	 mov	 eax, DWORD PTR _<_Args_0>$[ebp]
  00015	89 45 f4	 mov	 DWORD PTR $T1[ebp], eax
; File C:\Program Files (x86)\Microsoft Visual Studio\2019\Community\VC\Tools\MSVC\14.28.29333\include\xmemory

; 229  :     ::new (const_cast<void*>(static_cast<const volatile void*>(_STD addressof(_Obj))))

  00018	8b 45 f8	 mov	 eax, DWORD PTR $T2[ebp]
  0001b	8b 4d f4	 mov	 ecx, DWORD PTR $T1[ebp]
  0001e	8b 09		 mov	 ecx, DWORD PTR [ecx]
  00020	89 08		 mov	 DWORD PTR [eax], ecx

; 230  :         _Ty(_STD forward<_Types>(_Args)...);
; 231  : }

  00022	c9		 leave
  00023	c3		 ret	 0
??$_Construct_in_place@PAU?$_Tree_node@KPAX@std@@AAPAU12@@std@@YAXAAPAU?$_Tree_node@KPAX@0@0@Z ENDP ; std::_Construct_in_place<std::_Tree_node<unsigned long,void *> *,std::_Tree_node<unsigned long,void *> * &>
_TEXT	ENDS
; Function compile flags: /Odspy
; File C:\Program Files (x86)\Microsoft Visual Studio\2019\Community\VC\Tools\MSVC\14.28.29333\include\xmemory
;	COMDAT ??$_Destroy_in_place@PAU?$_Tree_node@U?$pair@$$CBKPAVCProperty@@@std@@PAX@std@@@std@@YAXAAPAU?$_Tree_node@U?$pair@$$CBKPAVCProperty@@@std@@PAX@0@@Z
_TEXT	SEGMENT
__Obj$ = 8						; size = 4
??$_Destroy_in_place@PAU?$_Tree_node@U?$pair@$$CBKPAVCProperty@@@std@@PAX@std@@@std@@YAXAAPAU?$_Tree_node@U?$pair@$$CBKPAVCProperty@@@std@@PAX@0@@Z PROC ; std::_Destroy_in_place<std::_Tree_node<std::pair<unsigned long const ,CProperty *>,void *> *>, COMDAT

; 270  : /* _CONSTEXPR20_DYNALLOC */ void _Destroy_in_place(_Ty& _Obj) noexcept {

  00000	55		 push	 ebp
  00001	8b ec		 mov	 ebp, esp

; 271  : #if _HAS_IF_CONSTEXPR
; 272  :     if constexpr (is_array_v<_Ty>) {
; 273  :         _Destroy_range(_Obj, _Obj + extent_v<_Ty>);
; 274  :     } else
; 275  : #endif // _HAS_IF_CONSTEXPR
; 276  :     {
; 277  :         _Obj.~_Ty();
; 278  :     }
; 279  : }

  00003	5d		 pop	 ebp
  00004	c3		 ret	 0
??$_Destroy_in_place@PAU?$_Tree_node@U?$pair@$$CBKPAVCProperty@@@std@@PAX@std@@@std@@YAXAAPAU?$_Tree_node@U?$pair@$$CBKPAVCProperty@@@std@@PAX@0@@Z ENDP ; std::_Destroy_in_place<std::_Tree_node<std::pair<unsigned long const ,CProperty *>,void *> *>
_TEXT	ENDS
; Function compile flags: /Odspy
; File C:\Program Files (x86)\Microsoft Visual Studio\2019\Community\VC\Tools\MSVC\14.28.29333\include\xmemory
;	COMDAT ??$_Destroy_in_place@PAU?$_Tree_node@KPAX@std@@@std@@YAXAAPAU?$_Tree_node@KPAX@0@@Z
_TEXT	SEGMENT
__Obj$ = 8						; size = 4
??$_Destroy_in_place@PAU?$_Tree_node@KPAX@std@@@std@@YAXAAPAU?$_Tree_node@KPAX@0@@Z PROC ; std::_Destroy_in_place<std::_Tree_node<unsigned long,void *> *>, COMDAT

; 270  : /* _CONSTEXPR20_DYNALLOC */ void _Destroy_in_place(_Ty& _Obj) noexcept {

  00000	55		 push	 ebp
  00001	8b ec		 mov	 ebp, esp

; 271  : #if _HAS_IF_CONSTEXPR
; 272  :     if constexpr (is_array_v<_Ty>) {
; 273  :         _Destroy_range(_Obj, _Obj + extent_v<_Ty>);
; 274  :     } else
; 275  : #endif // _HAS_IF_CONSTEXPR
; 276  :     {
; 277  :         _Obj.~_Ty();
; 278  :     }
; 279  : }

  00003	5d		 pop	 ebp
  00004	c3		 ret	 0
??$_Destroy_in_place@PAU?$_Tree_node@KPAX@std@@@std@@YAXAAPAU?$_Tree_node@KPAX@0@@Z ENDP ; std::_Destroy_in_place<std::_Tree_node<unsigned long,void *> *>
_TEXT	ENDS
; Function compile flags: /Odspy
; File C:\Program Files (x86)\Microsoft Visual Studio\2019\Community\VC\Tools\MSVC\14.28.29333\include\xtree
; File C:\Program Files (x86)\Microsoft Visual Studio\2019\Community\VC\Tools\MSVC\14.28.29333\include\xmemory
; File C:\Program Files (x86)\Microsoft Visual Studio\2019\Community\VC\Tools\MSVC\14.28.29333\include\xtree
; File C:\Program Files (x86)\Microsoft Visual Studio\2019\Community\VC\Tools\MSVC\14.28.29333\include\type_traits
; File C:\Program Files (x86)\Microsoft Visual Studio\2019\Community\VC\Tools\MSVC\14.28.29333\include\xtree
; File C:\Program Files (x86)\Microsoft Visual Studio\2019\Community\VC\Tools\MSVC\14.28.29333\include\xstddef
; File C:\Program Files (x86)\Microsoft Visual Studio\2019\Community\VC\Tools\MSVC\14.28.29333\include\xtree
; File C:\Program Files (x86)\Microsoft Visual Studio\2019\Community\VC\Tools\MSVC\14.28.29333\include\vcruntime_new.h
; File C:\Program Files (x86)\Microsoft Visual Studio\2019\Community\VC\Tools\MSVC\14.28.29333\include\type_traits
; File C:\Program Files (x86)\Microsoft Visual Studio\2019\Community\VC\Tools\MSVC\14.28.29333\include\xmemory
; File C:\Program Files (x86)\Microsoft Visual Studio\2019\Community\VC\Tools\MSVC\14.28.29333\include\xtree
;	COMDAT ??$?0U?$pair@$$CBKPAVCProperty@@@std@@@?$_Tree_temp_node@V?$allocator@U?$_Tree_node@U?$pair@$$CBKPAVCProperty@@@std@@PAX@std@@@std@@@std@@QAE@AAV?$allocator@U?$_Tree_node@U?$pair@$$CBKPAVCProperty@@@std@@PAX@std@@@1@PAU?$_Tree_node@U?$pair@$$CBKPAVCProperty@@@std@@PAX@1@$$QAU?$pair@$$CBKPAVCProperty@@@1@@Z
_TEXT	SEGMENT
___formal$ = -40					; size = 4
$T2 = -36						; size = 4
$T3 = -32						; size = 4
$T4 = -28						; size = 4
$T5 = -24						; size = 4
__Val$ = -20						; size = 4
_this$ = -16						; size = 4
__$EHRec$ = -12						; size = 12
__Al_$ = 8						; size = 4
__Myhead$ = 12						; size = 4
_<_Vals_0>$ = 16					; size = 4
??$?0U?$pair@$$CBKPAVCProperty@@@std@@@?$_Tree_temp_node@V?$allocator@U?$_Tree_node@U?$pair@$$CBKPAVCProperty@@@std@@PAX@std@@@std@@@std@@QAE@AAV?$allocator@U?$_Tree_node@U?$pair@$$CBKPAVCProperty@@@std@@PAX@std@@@1@PAU?$_Tree_node@U?$pair@$$CBKPAVCProperty@@@std@@PAX@1@$$QAU?$pair@$$CBKPAVCProperty@@@1@@Z PROC ; std::_Tree_temp_node<std::allocator<std::_Tree_node<std::pair<unsigned long const ,CProperty *>,void *> > >::_Tree_temp_node<std::allocator<std::_Tree_node<std::pair<unsigned long const ,CProperty *>,void *> > ><std::pair<unsigned long const ,CProperty *> >, COMDAT
; _this$ = ecx

; 805  :         : _Tree_temp_node_alloc<_Alnode>(_Al_) {

  00000	55		 push	 ebp
  00001	8b ec		 mov	 ebp, esp
  00003	6a ff		 push	 -1
  00005	68 00 00 00 00	 push	 __ehhandler$??$?0U?$pair@$$CBKPAVCProperty@@@std@@@?$_Tree_temp_node@V?$allocator@U?$_Tree_node@U?$pair@$$CBKPAVCProperty@@@std@@PAX@std@@@std@@@std@@QAE@AAV?$allocator@U?$_Tree_node@U?$pair@$$CBKPAVCProperty@@@std@@PAX@std@@@1@PAU?$_Tree_node@U?$pair@$$CBKPAVCProperty@@@std@@PAX@1@$$QAU?$pair@$$CBKPAVCProperty@@@1@@Z
  0000a	64 a1 00 00 00
	00		 mov	 eax, DWORD PTR fs:0
  00010	50		 push	 eax
  00011	83 ec 1c	 sub	 esp, 28			; 0000001cH
  00014	a1 00 00 00 00	 mov	 eax, DWORD PTR ___security_cookie
  00019	33 c5		 xor	 eax, ebp
  0001b	50		 push	 eax
  0001c	8d 45 f4	 lea	 eax, DWORD PTR __$EHRec$[ebp]
  0001f	64 a3 00 00 00
	00		 mov	 DWORD PTR fs:0, eax
  00025	89 4d f0	 mov	 DWORD PTR _this$[ebp], ecx
; File C:\Program Files (x86)\Microsoft Visual Studio\2019\Community\VC\Tools\MSVC\14.28.29333\include\xmemory

; 1045 :     explicit _Alloc_construct_ptr(_Alloc& _Al_) : _Al(_Al_), _Ptr(nullptr) {}

  00028	8b 45 f0	 mov	 eax, DWORD PTR _this$[ebp]
  0002b	8b 4d 08	 mov	 ecx, DWORD PTR __Al_$[ebp]
  0002e	89 08		 mov	 DWORD PTR [eax], ecx
  00030	8b 45 f0	 mov	 eax, DWORD PTR _this$[ebp]
  00033	83 60 04 00	 and	 DWORD PTR [eax+4], 0
; File C:\Program Files (x86)\Microsoft Visual Studio\2019\Community\VC\Tools\MSVC\14.28.29333\include\xtree

; 784  :     explicit _Tree_temp_node_alloc(_Alnode& _Al_) : _Alloc_construct_ptr<_Alnode>(_Al_) {

  00037	83 65 fc 00	 and	 DWORD PTR __$EHRec$[ebp+8], 0

; 785  :         _Alloc_construct_ptr<_Alnode>::_Allocate();

  0003b	8b 4d f0	 mov	 ecx, DWORD PTR _this$[ebp]
  0003e	e8 00 00 00 00	 call	 ?_Allocate@?$_Alloc_construct_ptr@V?$allocator@U?$_Tree_node@U?$pair@$$CBKPAVCProperty@@@std@@PAX@std@@@std@@@std@@QAEXXZ ; std::_Alloc_construct_ptr<std::allocator<std::_Tree_node<std::pair<unsigned long const ,CProperty *>,void *> > >::_Allocate

; 786  :     }

  00043	83 4d fc ff	 or	 DWORD PTR __$EHRec$[ebp+8], -1
; File C:\Program Files (x86)\Microsoft Visual Studio\2019\Community\VC\Tools\MSVC\14.28.29333\include\type_traits

; 1443 :     return static_cast<_Ty&&>(_Arg);

  00047	8b 45 10	 mov	 eax, DWORD PTR _<_Vals_0>$[ebp]
  0004a	89 45 e4	 mov	 DWORD PTR $T4[ebp], eax
; File C:\Program Files (x86)\Microsoft Visual Studio\2019\Community\VC\Tools\MSVC\14.28.29333\include\xtree

; 806  :         _Alnode_traits::construct(this->_Al, _STD addressof(this->_Ptr->_Myval), _STD forward<_Valtys>(_Vals)...);

  0004d	8b 45 f0	 mov	 eax, DWORD PTR _this$[ebp]
  00050	8b 40 04	 mov	 eax, DWORD PTR [eax+4]
  00053	83 c0 10	 add	 eax, 16			; 00000010H
  00056	89 45 ec	 mov	 DWORD PTR __Val$[ebp], eax
; File C:\Program Files (x86)\Microsoft Visual Studio\2019\Community\VC\Tools\MSVC\14.28.29333\include\xstddef

; 275  :     return __builtin_addressof(_Val);

  00059	8b 45 ec	 mov	 eax, DWORD PTR __Val$[ebp]
  0005c	89 45 e8	 mov	 DWORD PTR $T5[ebp], eax
; File C:\Program Files (x86)\Microsoft Visual Studio\2019\Community\VC\Tools\MSVC\14.28.29333\include\xtree

; 806  :         _Alnode_traits::construct(this->_Al, _STD addressof(this->_Ptr->_Myval), _STD forward<_Valtys>(_Vals)...);

  0005f	8b 45 f0	 mov	 eax, DWORD PTR _this$[ebp]
  00062	8b 00		 mov	 eax, DWORD PTR [eax]
  00064	89 45 d8	 mov	 DWORD PTR ___formal$[ebp], eax
; File C:\Program Files (x86)\Microsoft Visual Studio\2019\Community\VC\Tools\MSVC\14.28.29333\include\vcruntime_new.h

; 169  :         return _Where;

  00067	8b 45 e8	 mov	 eax, DWORD PTR $T5[ebp]
  0006a	89 45 dc	 mov	 DWORD PTR $T2[ebp], eax
; File C:\Program Files (x86)\Microsoft Visual Studio\2019\Community\VC\Tools\MSVC\14.28.29333\include\type_traits

; 1443 :     return static_cast<_Ty&&>(_Arg);

  0006d	8b 45 e4	 mov	 eax, DWORD PTR $T4[ebp]
  00070	89 45 e0	 mov	 DWORD PTR $T3[ebp], eax
; File C:\Program Files (x86)\Microsoft Visual Studio\2019\Community\VC\Tools\MSVC\14.28.29333\include\xmemory

; 701  :         ::new (const_cast<void*>(static_cast<const volatile void*>(_Ptr))) _Objty(_STD forward<_Types>(_Args)...);

  00073	8b 45 e0	 mov	 eax, DWORD PTR $T3[ebp]
  00076	8b 08		 mov	 ecx, DWORD PTR [eax]
  00078	8b 40 04	 mov	 eax, DWORD PTR [eax+4]
  0007b	8b 55 dc	 mov	 edx, DWORD PTR $T2[ebp]
  0007e	89 0a		 mov	 DWORD PTR [edx], ecx
  00080	89 42 04	 mov	 DWORD PTR [edx+4], eax
; File C:\Program Files (x86)\Microsoft Visual Studio\2019\Community\VC\Tools\MSVC\14.28.29333\include\xtree

; 807  :         _Construct_in_place(this->_Ptr->_Left, _Myhead);

  00083	8d 45 0c	 lea	 eax, DWORD PTR __Myhead$[ebp]
  00086	50		 push	 eax
  00087	8b 45 f0	 mov	 eax, DWORD PTR _this$[ebp]
  0008a	ff 70 04	 push	 DWORD PTR [eax+4]
  0008d	e8 00 00 00 00	 call	 ??$_Construct_in_place@PAU?$_Tree_node@U?$pair@$$CBKPAVCProperty@@@std@@PAX@std@@AAPAU12@@std@@YAXAAPAU?$_Tree_node@U?$pair@$$CBKPAVCProperty@@@std@@PAX@0@0@Z ; std::_Construct_in_place<std::_Tree_node<std::pair<unsigned long const ,CProperty *>,void *> *,std::_Tree_node<std::pair<unsigned long const ,CProperty *>,void *> * &>
  00092	59		 pop	 ecx
  00093	59		 pop	 ecx

; 808  :         _Construct_in_place(this->_Ptr->_Parent, _Myhead);

  00094	8d 45 0c	 lea	 eax, DWORD PTR __Myhead$[ebp]
  00097	50		 push	 eax
  00098	8b 45 f0	 mov	 eax, DWORD PTR _this$[ebp]
  0009b	8b 40 04	 mov	 eax, DWORD PTR [eax+4]
  0009e	83 c0 04	 add	 eax, 4
  000a1	50		 push	 eax
  000a2	e8 00 00 00 00	 call	 ??$_Construct_in_place@PAU?$_Tree_node@U?$pair@$$CBKPAVCProperty@@@std@@PAX@std@@AAPAU12@@std@@YAXAAPAU?$_Tree_node@U?$pair@$$CBKPAVCProperty@@@std@@PAX@0@0@Z ; std::_Construct_in_place<std::_Tree_node<std::pair<unsigned long const ,CProperty *>,void *> *,std::_Tree_node<std::pair<unsigned long const ,CProperty *>,void *> * &>
  000a7	59		 pop	 ecx
  000a8	59		 pop	 ecx

; 809  :         _Construct_in_place(this->_Ptr->_Right, _Myhead);

  000a9	8d 45 0c	 lea	 eax, DWORD PTR __Myhead$[ebp]
  000ac	50		 push	 eax
  000ad	8b 45 f0	 mov	 eax, DWORD PTR _this$[ebp]
  000b0	8b 40 04	 mov	 eax, DWORD PTR [eax+4]
  000b3	83 c0 08	 add	 eax, 8
  000b6	50		 push	 eax
  000b7	e8 00 00 00 00	 call	 ??$_Construct_in_place@PAU?$_Tree_node@U?$pair@$$CBKPAVCProperty@@@std@@PAX@std@@AAPAU12@@std@@YAXAAPAU?$_Tree_node@U?$pair@$$CBKPAVCProperty@@@std@@PAX@0@0@Z ; std::_Construct_in_place<std::_Tree_node<std::pair<unsigned long const ,CProperty *>,void *> *,std::_Tree_node<std::pair<unsigned long const ,CProperty *>,void *> * &>
  000bc	59		 pop	 ecx
  000bd	59		 pop	 ecx

; 810  :         this->_Ptr->_Color = _Red;

  000be	8b 45 f0	 mov	 eax, DWORD PTR _this$[ebp]
  000c1	8b 40 04	 mov	 eax, DWORD PTR [eax+4]
  000c4	c6 40 0c 00	 mov	 BYTE PTR [eax+12], 0

; 811  :         this->_Ptr->_Isnil = false;

  000c8	8b 45 f0	 mov	 eax, DWORD PTR _this$[ebp]
  000cb	8b 40 04	 mov	 eax, DWORD PTR [eax+4]
  000ce	c6 40 0d 00	 mov	 BYTE PTR [eax+13], 0

; 812  :     }

  000d2	8b 45 f0	 mov	 eax, DWORD PTR _this$[ebp]
  000d5	8b 4d f4	 mov	 ecx, DWORD PTR __$EHRec$[ebp]
  000d8	64 89 0d 00 00
	00 00		 mov	 DWORD PTR fs:0, ecx
  000df	59		 pop	 ecx
  000e0	c9		 leave
  000e1	c2 0c 00	 ret	 12			; 0000000cH
_TEXT	ENDS
;	COMDAT text$x
text$x	SEGMENT
__unwindfunclet$??$?0U?$pair@$$CBKPAVCProperty@@@std@@@?$_Tree_temp_node@V?$allocator@U?$_Tree_node@U?$pair@$$CBKPAVCProperty@@@std@@PAX@std@@@std@@@std@@QAE@AAV?$allocator@U?$_Tree_node@U?$pair@$$CBKPAVCProperty@@@std@@PAX@std@@@1@PAU?$_Tree_node@U?$pair@$$CBKPAVCProperty@@@std@@PAX@1@$$QAU?$pair@$$CBKPAVCProperty@@@1@@Z$1:
  00000	8b 4d f0	 mov	 ecx, DWORD PTR _this$[ebp]
  00003	e9 00 00 00 00	 jmp	 ??1?$_Alloc_construct_ptr@V?$allocator@U?$_Tree_node@U?$pair@$$CBKPAVCProperty@@@std@@PAX@std@@@std@@@std@@QAE@XZ ; std::_Alloc_construct_ptr<std::allocator<std::_Tree_node<std::pair<unsigned long const ,CProperty *>,void *> > >::~_Alloc_construct_ptr<std::allocator<std::_Tree_node<std::pair<unsigned long const ,CProperty *>,void *> > >
  00008	cc		 int	 3
  00009	cc		 int	 3
  0000a	cc		 int	 3
  0000b	cc		 int	 3
  0000c	cc		 int	 3
__ehhandler$??$?0U?$pair@$$CBKPAVCProperty@@@std@@@?$_Tree_temp_node@V?$allocator@U?$_Tree_node@U?$pair@$$CBKPAVCProperty@@@std@@PAX@std@@@std@@@std@@QAE@AAV?$allocator@U?$_Tree_node@U?$pair@$$CBKPAVCProperty@@@std@@PAX@std@@@1@PAU?$_Tree_node@U?$pair@$$CBKPAVCProperty@@@std@@PAX@1@$$QAU?$pair@$$CBKPAVCProperty@@@1@@Z:
  0000d	90		 npad	 1
  0000e	90		 npad	 1
  0000f	8b 54 24 08	 mov	 edx, DWORD PTR [esp+8]
  00013	8d 42 0c	 lea	 eax, DWORD PTR [edx+12]
  00016	8b 4a e0	 mov	 ecx, DWORD PTR [edx-32]
  00019	33 c8		 xor	 ecx, eax
  0001b	e8 00 00 00 00	 call	 @__security_check_cookie@4
  00020	b8 00 00 00 00	 mov	 eax, OFFSET __ehfuncinfo$??$?0U?$pair@$$CBKPAVCProperty@@@std@@@?$_Tree_temp_node@V?$allocator@U?$_Tree_node@U?$pair@$$CBKPAVCProperty@@@std@@PAX@std@@@std@@@std@@QAE@AAV?$allocator@U?$_Tree_node@U?$pair@$$CBKPAVCProperty@@@std@@PAX@std@@@1@PAU?$_Tree_node@U?$pair@$$CBKPAVCProperty@@@std@@PAX@1@$$QAU?$pair@$$CBKPAVCProperty@@@1@@Z
  00025	e9 00 00 00 00	 jmp	 ___CxxFrameHandler3
text$x	ENDS
??$?0U?$pair@$$CBKPAVCProperty@@@std@@@?$_Tree_temp_node@V?$allocator@U?$_Tree_node@U?$pair@$$CBKPAVCProperty@@@std@@PAX@std@@@std@@@std@@QAE@AAV?$allocator@U?$_Tree_node@U?$pair@$$CBKPAVCProperty@@@std@@PAX@std@@@1@PAU?$_Tree_node@U?$pair@$$CBKPAVCProperty@@@std@@PAX@1@$$QAU?$pair@$$CBKPAVCProperty@@@1@@Z ENDP ; std::_Tree_temp_node<std::allocator<std::_Tree_node<std::pair<unsigned long const ,CProperty *>,void *> > >::_Tree_temp_node<std::allocator<std::_Tree_node<std::pair<unsigned long const ,CProperty *>,void *> > ><std::pair<unsigned long const ,CProperty *> >
; Function compile flags: /Odspy
; File C:\Program Files (x86)\Microsoft Visual Studio\2019\Community\VC\Tools\MSVC\14.28.29333\include\xtree
; File C:\Program Files (x86)\Microsoft Visual Studio\2019\Community\VC\Tools\MSVC\14.28.29333\include\xstddef
; File C:\Program Files (x86)\Microsoft Visual Studio\2019\Community\VC\Tools\MSVC\14.28.29333\include\xtree
;	COMDAT ??1?$_Tree_temp_node@V?$allocator@U?$_Tree_node@U?$pair@$$CBKPAVCProperty@@@std@@PAX@std@@@std@@@std@@QAE@XZ
_TEXT	SEGMENT
$T1 = -12						; size = 4
__Val$ = -8						; size = 4
_this$ = -4						; size = 4
??1?$_Tree_temp_node@V?$allocator@U?$_Tree_node@U?$pair@$$CBKPAVCProperty@@@std@@PAX@std@@@std@@@std@@QAE@XZ PROC ; std::_Tree_temp_node<std::allocator<std::_Tree_node<std::pair<unsigned long const ,CProperty *>,void *> > >::~_Tree_temp_node<std::allocator<std::_Tree_node<std::pair<unsigned long const ,CProperty *>,void *> > >, COMDAT
; _this$ = ecx

; 817  :     ~_Tree_temp_node() {

  00000	55		 push	 ebp
  00001	8b ec		 mov	 ebp, esp
  00003	83 ec 0c	 sub	 esp, 12			; 0000000cH
  00006	89 4d fc	 mov	 DWORD PTR _this$[ebp], ecx

; 818  :         if (this->_Ptr) {

  00009	8b 45 fc	 mov	 eax, DWORD PTR _this$[ebp]
  0000c	83 78 04 00	 cmp	 DWORD PTR [eax+4], 0
  00010	74 3e		 je	 SHORT $LN9@Tree_temp_

; 819  :             _Destroy_in_place(this->_Ptr->_Left);

  00012	8b 45 fc	 mov	 eax, DWORD PTR _this$[ebp]
  00015	ff 70 04	 push	 DWORD PTR [eax+4]
  00018	e8 00 00 00 00	 call	 ??$_Destroy_in_place@PAU?$_Tree_node@U?$pair@$$CBKPAVCProperty@@@std@@PAX@std@@@std@@YAXAAPAU?$_Tree_node@U?$pair@$$CBKPAVCProperty@@@std@@PAX@0@@Z ; std::_Destroy_in_place<std::_Tree_node<std::pair<unsigned long const ,CProperty *>,void *> *>
  0001d	59		 pop	 ecx

; 820  :             _Destroy_in_place(this->_Ptr->_Parent);

  0001e	8b 45 fc	 mov	 eax, DWORD PTR _this$[ebp]
  00021	8b 40 04	 mov	 eax, DWORD PTR [eax+4]
  00024	83 c0 04	 add	 eax, 4
  00027	50		 push	 eax
  00028	e8 00 00 00 00	 call	 ??$_Destroy_in_place@PAU?$_Tree_node@U?$pair@$$CBKPAVCProperty@@@std@@PAX@std@@@std@@YAXAAPAU?$_Tree_node@U?$pair@$$CBKPAVCProperty@@@std@@PAX@0@@Z ; std::_Destroy_in_place<std::_Tree_node<std::pair<unsigned long const ,CProperty *>,void *> *>
  0002d	59		 pop	 ecx

; 821  :             _Destroy_in_place(this->_Ptr->_Right);

  0002e	8b 45 fc	 mov	 eax, DWORD PTR _this$[ebp]
  00031	8b 40 04	 mov	 eax, DWORD PTR [eax+4]
  00034	83 c0 08	 add	 eax, 8
  00037	50		 push	 eax
  00038	e8 00 00 00 00	 call	 ??$_Destroy_in_place@PAU?$_Tree_node@U?$pair@$$CBKPAVCProperty@@@std@@PAX@std@@@std@@YAXAAPAU?$_Tree_node@U?$pair@$$CBKPAVCProperty@@@std@@PAX@0@@Z ; std::_Destroy_in_place<std::_Tree_node<std::pair<unsigned long const ,CProperty *>,void *> *>
  0003d	59		 pop	 ecx

; 822  :             _Alnode_traits::destroy(this->_Al, _STD addressof(this->_Ptr->_Myval));

  0003e	8b 45 fc	 mov	 eax, DWORD PTR _this$[ebp]
  00041	8b 40 04	 mov	 eax, DWORD PTR [eax+4]
  00044	83 c0 10	 add	 eax, 16			; 00000010H
  00047	89 45 f8	 mov	 DWORD PTR __Val$[ebp], eax
; File C:\Program Files (x86)\Microsoft Visual Studio\2019\Community\VC\Tools\MSVC\14.28.29333\include\xstddef

; 275  :     return __builtin_addressof(_Val);

  0004a	8b 45 f8	 mov	 eax, DWORD PTR __Val$[ebp]
  0004d	89 45 f4	 mov	 DWORD PTR $T1[ebp], eax
$LN9@Tree_temp_:
  00050	8b 4d fc	 mov	 ecx, DWORD PTR _this$[ebp]
  00053	e8 00 00 00 00	 call	 ??1?$_Alloc_construct_ptr@V?$allocator@U?$_Tree_node@U?$pair@$$CBKPAVCProperty@@@std@@PAX@std@@@std@@@std@@QAE@XZ ; std::_Alloc_construct_ptr<std::allocator<std::_Tree_node<std::pair<unsigned long const ,CProperty *>,void *> > >::~_Alloc_construct_ptr<std::allocator<std::_Tree_node<std::pair<unsigned long const ,CProperty *>,void *> > >
; File C:\Program Files (x86)\Microsoft Visual Studio\2019\Community\VC\Tools\MSVC\14.28.29333\include\xtree

; 824  :     }

  00058	c9		 leave
  00059	c3		 ret	 0
??1?$_Tree_temp_node@V?$allocator@U?$_Tree_node@U?$pair@$$CBKPAVCProperty@@@std@@PAX@std@@@std@@@std@@QAE@XZ ENDP ; std::_Tree_temp_node<std::allocator<std::_Tree_node<std::pair<unsigned long const ,CProperty *>,void *> > >::~_Tree_temp_node<std::allocator<std::_Tree_node<std::pair<unsigned long const ,CProperty *>,void *> > >
_TEXT	ENDS
; Function compile flags: /Odspy
; File C:\Program Files (x86)\Microsoft Visual Studio\2019\Community\VC\Tools\MSVC\14.28.29333\include\xmemory
;	COMDAT ??1?$_Alloc_construct_ptr@V?$allocator@U?$_Tree_node@U?$pair@$$CBKPAVCProperty@@@std@@PAX@std@@@std@@@std@@QAE@XZ
_TEXT	SEGMENT
_this$ = -12						; size = 4
__Ptr$ = -8						; size = 4
_this$ = -4						; size = 4
??1?$_Alloc_construct_ptr@V?$allocator@U?$_Tree_node@U?$pair@$$CBKPAVCProperty@@@std@@PAX@std@@@std@@@std@@QAE@XZ PROC ; std::_Alloc_construct_ptr<std::allocator<std::_Tree_node<std::pair<unsigned long const ,CProperty *>,void *> > >::~_Alloc_construct_ptr<std::allocator<std::_Tree_node<std::pair<unsigned long const ,CProperty *>,void *> > >, COMDAT
; _this$ = ecx

; 1056 :     ~_Alloc_construct_ptr() { // if this instance is engaged, deallocate storage

  00000	55		 push	 ebp
  00001	8b ec		 mov	 ebp, esp
  00003	83 ec 0c	 sub	 esp, 12			; 0000000cH
  00006	89 4d fc	 mov	 DWORD PTR _this$[ebp], ecx

; 1057 :         if (_Ptr) {

  00009	8b 45 fc	 mov	 eax, DWORD PTR _this$[ebp]
  0000c	83 78 04 00	 cmp	 DWORD PTR [eax+4], 0
  00010	74 22		 je	 SHORT $LN3@Alloc_cons

; 1058 :             _Al.deallocate(_Ptr, 1);

  00012	8b 45 fc	 mov	 eax, DWORD PTR _this$[ebp]
  00015	8b 40 04	 mov	 eax, DWORD PTR [eax+4]
  00018	89 45 f8	 mov	 DWORD PTR __Ptr$[ebp], eax
  0001b	8b 45 fc	 mov	 eax, DWORD PTR _this$[ebp]
  0001e	8b 00		 mov	 eax, DWORD PTR [eax]
  00020	89 45 f4	 mov	 DWORD PTR _this$[ebp], eax

; 810  :         _Deallocate<_New_alignof<_Ty>>(_Ptr, sizeof(_Ty) * _Count);

  00023	33 c0		 xor	 eax, eax
  00025	40		 inc	 eax
  00026	6b c0 18	 imul	 eax, eax, 24
  00029	50		 push	 eax
  0002a	ff 75 f8	 push	 DWORD PTR __Ptr$[ebp]
  0002d	e8 00 00 00 00	 call	 ??$_Deallocate@$07$0A@@std@@YAXPAXI@Z ; std::_Deallocate<8,0>
  00032	59		 pop	 ecx
  00033	59		 pop	 ecx
$LN3@Alloc_cons:

; 1059 :         }
; 1060 :     }

  00034	c9		 leave
  00035	c3		 ret	 0
??1?$_Alloc_construct_ptr@V?$allocator@U?$_Tree_node@U?$pair@$$CBKPAVCProperty@@@std@@PAX@std@@@std@@@std@@QAE@XZ ENDP ; std::_Alloc_construct_ptr<std::allocator<std::_Tree_node<std::pair<unsigned long const ,CProperty *>,void *> > >::~_Alloc_construct_ptr<std::allocator<std::_Tree_node<std::pair<unsigned long const ,CProperty *>,void *> > >
_TEXT	ENDS
; Function compile flags: /Odspy
; File C:\Program Files (x86)\Microsoft Visual Studio\2019\Community\VC\Tools\MSVC\14.28.29333\include\xmemory
;	COMDAT ?_Allocate@?$_Alloc_construct_ptr@V?$allocator@U?$_Tree_node@U?$pair@$$CBKPAVCProperty@@@std@@PAX@std@@@std@@@std@@QAEXXZ
_TEXT	SEGMENT
__Max_possible$1 = -24					; size = 4
_this$ = -20						; size = 4
$T2 = -16						; size = 4
$T3 = -12						; size = 4
_this$ = -8						; size = 4
__Overflow_is_possible$4 = -1				; size = 1
?_Allocate@?$_Alloc_construct_ptr@V?$allocator@U?$_Tree_node@U?$pair@$$CBKPAVCProperty@@@std@@PAX@std@@@std@@@std@@QAEXXZ PROC ; std::_Alloc_construct_ptr<std::allocator<std::_Tree_node<std::pair<unsigned long const ,CProperty *>,void *> > >::_Allocate, COMDAT
; _this$ = ecx

; 1051 :     void _Allocate() { // disengage *this, then allocate a new memory block

  00000	55		 push	 ebp
  00001	8b ec		 mov	 ebp, esp
  00003	83 ec 18	 sub	 esp, 24			; 00000018H
  00006	89 4d f8	 mov	 DWORD PTR _this$[ebp], ecx

; 1052 :         _Ptr = nullptr; // if allocate throws, prevents double-free

  00009	8b 45 f8	 mov	 eax, DWORD PTR _this$[ebp]
  0000c	83 60 04 00	 and	 DWORD PTR [eax+4], 0

; 1053 :         _Ptr = _Al.allocate(1);

  00010	8b 45 f8	 mov	 eax, DWORD PTR _this$[ebp]
  00013	8b 00		 mov	 eax, DWORD PTR [eax]
  00015	89 45 ec	 mov	 DWORD PTR _this$[ebp], eax

; 56   :     constexpr bool _Overflow_is_possible = _Ty_size > 1;

  00018	c6 45 ff 01	 mov	 BYTE PTR __Overflow_is_possible$4[ebp], 1

; 57   : 
; 58   :     if _CONSTEXPR_IF (_Overflow_is_possible) {
; 59   :         constexpr size_t _Max_possible = static_cast<size_t>(-1) / _Ty_size;

  0001c	c7 45 e8 aa aa
	aa 0a		 mov	 DWORD PTR __Max_possible$1[ebp], 178956970 ; 0aaaaaaaH

; 60   :         if (_Count > _Max_possible) {

  00023	33 c0		 xor	 eax, eax
  00025	40		 inc	 eax
  00026	3d aa aa aa 0a	 cmp	 eax, 178956970		; 0aaaaaaaH
  0002b	76 05		 jbe	 SHORT $LN6@Allocate

; 61   :             _Throw_bad_array_new_length(); // multiply overflow

  0002d	e8 00 00 00 00	 call	 ?_Throw_bad_array_new_length@std@@YAXXZ ; std::_Throw_bad_array_new_length
$LN6@Allocate:

; 62   :         }
; 63   :     }
; 64   : 
; 65   :     return _Count * _Ty_size;

  00032	33 c0		 xor	 eax, eax
  00034	40		 inc	 eax
  00035	6b c0 18	 imul	 eax, eax, 24
  00038	89 45 f4	 mov	 DWORD PTR $T3[ebp], eax

; 814  :         return static_cast<_Ty*>(_Allocate<_New_alignof<_Ty>>(_Get_size_of_n<sizeof(_Ty)>(_Count)));

  0003b	ff 75 f4	 push	 DWORD PTR $T3[ebp]
  0003e	e8 00 00 00 00	 call	 ??$_Allocate@$07U_Default_allocate_traits@std@@$0A@@std@@YAPAXI@Z ; std::_Allocate<8,std::_Default_allocate_traits,0>
  00043	59		 pop	 ecx
  00044	89 45 f0	 mov	 DWORD PTR $T2[ebp], eax

; 1053 :         _Ptr = _Al.allocate(1);

  00047	8b 45 f8	 mov	 eax, DWORD PTR _this$[ebp]
  0004a	8b 4d f0	 mov	 ecx, DWORD PTR $T2[ebp]
  0004d	89 48 04	 mov	 DWORD PTR [eax+4], ecx
$LN9@Allocate:

; 1054 :     }

  00050	c9		 leave
  00051	c3		 ret	 0
?_Allocate@?$_Alloc_construct_ptr@V?$allocator@U?$_Tree_node@U?$pair@$$CBKPAVCProperty@@@std@@PAX@std@@@std@@@std@@QAEXXZ ENDP ; std::_Alloc_construct_ptr<std::allocator<std::_Tree_node<std::pair<unsigned long const ,CProperty *>,void *> > >::_Allocate
_TEXT	ENDS
; Function compile flags: /Odspy
; File C:\Program Files (x86)\Microsoft Visual Studio\2019\Community\VC\Tools\MSVC\14.28.29333\include\xtree
; File C:\Program Files (x86)\Microsoft Visual Studio\2019\Community\VC\Tools\MSVC\14.28.29333\include\xmemory
; File C:\Program Files (x86)\Microsoft Visual Studio\2019\Community\VC\Tools\MSVC\14.28.29333\include\xtree
; File C:\Program Files (x86)\Microsoft Visual Studio\2019\Community\VC\Tools\MSVC\14.28.29333\include\type_traits
; File C:\Program Files (x86)\Microsoft Visual Studio\2019\Community\VC\Tools\MSVC\14.28.29333\include\xtree
; File C:\Program Files (x86)\Microsoft Visual Studio\2019\Community\VC\Tools\MSVC\14.28.29333\include\xstddef
; File C:\Program Files (x86)\Microsoft Visual Studio\2019\Community\VC\Tools\MSVC\14.28.29333\include\xtree
; File C:\Program Files (x86)\Microsoft Visual Studio\2019\Community\VC\Tools\MSVC\14.28.29333\include\vcruntime_new.h
; File C:\Program Files (x86)\Microsoft Visual Studio\2019\Community\VC\Tools\MSVC\14.28.29333\include\type_traits
; File C:\Program Files (x86)\Microsoft Visual Studio\2019\Community\VC\Tools\MSVC\14.28.29333\include\xmemory
; File C:\Program Files (x86)\Microsoft Visual Studio\2019\Community\VC\Tools\MSVC\14.28.29333\include\xtree
;	COMDAT ??$?0ABK@?$_Tree_temp_node@V?$allocator@U?$_Tree_node@KPAX@std@@@std@@@std@@QAE@AAV?$allocator@U?$_Tree_node@KPAX@std@@@1@PAU?$_Tree_node@KPAX@1@ABK@Z
_TEXT	SEGMENT
___formal$ = -40					; size = 4
$T2 = -36						; size = 4
$T3 = -32						; size = 4
$T4 = -28						; size = 4
$T5 = -24						; size = 4
__Val$ = -20						; size = 4
_this$ = -16						; size = 4
__$EHRec$ = -12						; size = 12
__Al_$ = 8						; size = 4
__Myhead$ = 12						; size = 4
_<_Vals_0>$ = 16					; size = 4
??$?0ABK@?$_Tree_temp_node@V?$allocator@U?$_Tree_node@KPAX@std@@@std@@@std@@QAE@AAV?$allocator@U?$_Tree_node@KPAX@std@@@1@PAU?$_Tree_node@KPAX@1@ABK@Z PROC ; std::_Tree_temp_node<std::allocator<std::_Tree_node<unsigned long,void *> > >::_Tree_temp_node<std::allocator<std::_Tree_node<unsigned long,void *> > ><unsigned long const &>, COMDAT
; _this$ = ecx

; 805  :         : _Tree_temp_node_alloc<_Alnode>(_Al_) {

  00000	55		 push	 ebp
  00001	8b ec		 mov	 ebp, esp
  00003	6a ff		 push	 -1
  00005	68 00 00 00 00	 push	 __ehhandler$??$?0ABK@?$_Tree_temp_node@V?$allocator@U?$_Tree_node@KPAX@std@@@std@@@std@@QAE@AAV?$allocator@U?$_Tree_node@KPAX@std@@@1@PAU?$_Tree_node@KPAX@1@ABK@Z
  0000a	64 a1 00 00 00
	00		 mov	 eax, DWORD PTR fs:0
  00010	50		 push	 eax
  00011	83 ec 1c	 sub	 esp, 28			; 0000001cH
  00014	a1 00 00 00 00	 mov	 eax, DWORD PTR ___security_cookie
  00019	33 c5		 xor	 eax, ebp
  0001b	50		 push	 eax
  0001c	8d 45 f4	 lea	 eax, DWORD PTR __$EHRec$[ebp]
  0001f	64 a3 00 00 00
	00		 mov	 DWORD PTR fs:0, eax
  00025	89 4d f0	 mov	 DWORD PTR _this$[ebp], ecx
; File C:\Program Files (x86)\Microsoft Visual Studio\2019\Community\VC\Tools\MSVC\14.28.29333\include\xmemory

; 1045 :     explicit _Alloc_construct_ptr(_Alloc& _Al_) : _Al(_Al_), _Ptr(nullptr) {}

  00028	8b 45 f0	 mov	 eax, DWORD PTR _this$[ebp]
  0002b	8b 4d 08	 mov	 ecx, DWORD PTR __Al_$[ebp]
  0002e	89 08		 mov	 DWORD PTR [eax], ecx
  00030	8b 45 f0	 mov	 eax, DWORD PTR _this$[ebp]
  00033	83 60 04 00	 and	 DWORD PTR [eax+4], 0
; File C:\Program Files (x86)\Microsoft Visual Studio\2019\Community\VC\Tools\MSVC\14.28.29333\include\xtree

; 784  :     explicit _Tree_temp_node_alloc(_Alnode& _Al_) : _Alloc_construct_ptr<_Alnode>(_Al_) {

  00037	83 65 fc 00	 and	 DWORD PTR __$EHRec$[ebp+8], 0

; 785  :         _Alloc_construct_ptr<_Alnode>::_Allocate();

  0003b	8b 4d f0	 mov	 ecx, DWORD PTR _this$[ebp]
  0003e	e8 00 00 00 00	 call	 ?_Allocate@?$_Alloc_construct_ptr@V?$allocator@U?$_Tree_node@KPAX@std@@@std@@@std@@QAEXXZ ; std::_Alloc_construct_ptr<std::allocator<std::_Tree_node<unsigned long,void *> > >::_Allocate

; 786  :     }

  00043	83 4d fc ff	 or	 DWORD PTR __$EHRec$[ebp+8], -1
; File C:\Program Files (x86)\Microsoft Visual Studio\2019\Community\VC\Tools\MSVC\14.28.29333\include\type_traits

; 1443 :     return static_cast<_Ty&&>(_Arg);

  00047	8b 45 10	 mov	 eax, DWORD PTR _<_Vals_0>$[ebp]
  0004a	89 45 e4	 mov	 DWORD PTR $T4[ebp], eax
; File C:\Program Files (x86)\Microsoft Visual Studio\2019\Community\VC\Tools\MSVC\14.28.29333\include\xtree

; 806  :         _Alnode_traits::construct(this->_Al, _STD addressof(this->_Ptr->_Myval), _STD forward<_Valtys>(_Vals)...);

  0004d	8b 45 f0	 mov	 eax, DWORD PTR _this$[ebp]
  00050	8b 40 04	 mov	 eax, DWORD PTR [eax+4]
  00053	83 c0 10	 add	 eax, 16			; 00000010H
  00056	89 45 ec	 mov	 DWORD PTR __Val$[ebp], eax
; File C:\Program Files (x86)\Microsoft Visual Studio\2019\Community\VC\Tools\MSVC\14.28.29333\include\xstddef

; 275  :     return __builtin_addressof(_Val);

  00059	8b 45 ec	 mov	 eax, DWORD PTR __Val$[ebp]
  0005c	89 45 e8	 mov	 DWORD PTR $T5[ebp], eax
; File C:\Program Files (x86)\Microsoft Visual Studio\2019\Community\VC\Tools\MSVC\14.28.29333\include\xtree

; 806  :         _Alnode_traits::construct(this->_Al, _STD addressof(this->_Ptr->_Myval), _STD forward<_Valtys>(_Vals)...);

  0005f	8b 45 f0	 mov	 eax, DWORD PTR _this$[ebp]
  00062	8b 00		 mov	 eax, DWORD PTR [eax]
  00064	89 45 d8	 mov	 DWORD PTR ___formal$[ebp], eax
; File C:\Program Files (x86)\Microsoft Visual Studio\2019\Community\VC\Tools\MSVC\14.28.29333\include\vcruntime_new.h

; 169  :         return _Where;

  00067	8b 45 e8	 mov	 eax, DWORD PTR $T5[ebp]
  0006a	89 45 e0	 mov	 DWORD PTR $T3[ebp], eax
; File C:\Program Files (x86)\Microsoft Visual Studio\2019\Community\VC\Tools\MSVC\14.28.29333\include\type_traits

; 1443 :     return static_cast<_Ty&&>(_Arg);

  0006d	8b 45 e4	 mov	 eax, DWORD PTR $T4[ebp]
  00070	89 45 dc	 mov	 DWORD PTR $T2[ebp], eax
; File C:\Program Files (x86)\Microsoft Visual Studio\2019\Community\VC\Tools\MSVC\14.28.29333\include\xmemory

; 701  :         ::new (const_cast<void*>(static_cast<const volatile void*>(_Ptr))) _Objty(_STD forward<_Types>(_Args)...);

  00073	8b 45 e0	 mov	 eax, DWORD PTR $T3[ebp]
  00076	8b 4d dc	 mov	 ecx, DWORD PTR $T2[ebp]
  00079	8b 09		 mov	 ecx, DWORD PTR [ecx]
  0007b	89 08		 mov	 DWORD PTR [eax], ecx
; File C:\Program Files (x86)\Microsoft Visual Studio\2019\Community\VC\Tools\MSVC\14.28.29333\include\xtree

; 807  :         _Construct_in_place(this->_Ptr->_Left, _Myhead);

  0007d	8d 45 0c	 lea	 eax, DWORD PTR __Myhead$[ebp]
  00080	50		 push	 eax
  00081	8b 45 f0	 mov	 eax, DWORD PTR _this$[ebp]
  00084	ff 70 04	 push	 DWORD PTR [eax+4]
  00087	e8 00 00 00 00	 call	 ??$_Construct_in_place@PAU?$_Tree_node@KPAX@std@@AAPAU12@@std@@YAXAAPAU?$_Tree_node@KPAX@0@0@Z ; std::_Construct_in_place<std::_Tree_node<unsigned long,void *> *,std::_Tree_node<unsigned long,void *> * &>
  0008c	59		 pop	 ecx
  0008d	59		 pop	 ecx

; 808  :         _Construct_in_place(this->_Ptr->_Parent, _Myhead);

  0008e	8d 45 0c	 lea	 eax, DWORD PTR __Myhead$[ebp]
  00091	50		 push	 eax
  00092	8b 45 f0	 mov	 eax, DWORD PTR _this$[ebp]
  00095	8b 40 04	 mov	 eax, DWORD PTR [eax+4]
  00098	83 c0 04	 add	 eax, 4
  0009b	50		 push	 eax
  0009c	e8 00 00 00 00	 call	 ??$_Construct_in_place@PAU?$_Tree_node@KPAX@std@@AAPAU12@@std@@YAXAAPAU?$_Tree_node@KPAX@0@0@Z ; std::_Construct_in_place<std::_Tree_node<unsigned long,void *> *,std::_Tree_node<unsigned long,void *> * &>
  000a1	59		 pop	 ecx
  000a2	59		 pop	 ecx

; 809  :         _Construct_in_place(this->_Ptr->_Right, _Myhead);

  000a3	8d 45 0c	 lea	 eax, DWORD PTR __Myhead$[ebp]
  000a6	50		 push	 eax
  000a7	8b 45 f0	 mov	 eax, DWORD PTR _this$[ebp]
  000aa	8b 40 04	 mov	 eax, DWORD PTR [eax+4]
  000ad	83 c0 08	 add	 eax, 8
  000b0	50		 push	 eax
  000b1	e8 00 00 00 00	 call	 ??$_Construct_in_place@PAU?$_Tree_node@KPAX@std@@AAPAU12@@std@@YAXAAPAU?$_Tree_node@KPAX@0@0@Z ; std::_Construct_in_place<std::_Tree_node<unsigned long,void *> *,std::_Tree_node<unsigned long,void *> * &>
  000b6	59		 pop	 ecx
  000b7	59		 pop	 ecx

; 810  :         this->_Ptr->_Color = _Red;

  000b8	8b 45 f0	 mov	 eax, DWORD PTR _this$[ebp]
  000bb	8b 40 04	 mov	 eax, DWORD PTR [eax+4]
  000be	c6 40 0c 00	 mov	 BYTE PTR [eax+12], 0

; 811  :         this->_Ptr->_Isnil = false;

  000c2	8b 45 f0	 mov	 eax, DWORD PTR _this$[ebp]
  000c5	8b 40 04	 mov	 eax, DWORD PTR [eax+4]
  000c8	c6 40 0d 00	 mov	 BYTE PTR [eax+13], 0

; 812  :     }

  000cc	8b 45 f0	 mov	 eax, DWORD PTR _this$[ebp]
  000cf	8b 4d f4	 mov	 ecx, DWORD PTR __$EHRec$[ebp]
  000d2	64 89 0d 00 00
	00 00		 mov	 DWORD PTR fs:0, ecx
  000d9	59		 pop	 ecx
  000da	c9		 leave
  000db	c2 0c 00	 ret	 12			; 0000000cH
_TEXT	ENDS
;	COMDAT text$x
text$x	SEGMENT
__unwindfunclet$??$?0ABK@?$_Tree_temp_node@V?$allocator@U?$_Tree_node@KPAX@std@@@std@@@std@@QAE@AAV?$allocator@U?$_Tree_node@KPAX@std@@@1@PAU?$_Tree_node@KPAX@1@ABK@Z$1:
  00000	8b 4d f0	 mov	 ecx, DWORD PTR _this$[ebp]
  00003	e9 00 00 00 00	 jmp	 ??1?$_Alloc_construct_ptr@V?$allocator@U?$_Tree_node@KPAX@std@@@std@@@std@@QAE@XZ ; std::_Alloc_construct_ptr<std::allocator<std::_Tree_node<unsigned long,void *> > >::~_Alloc_construct_ptr<std::allocator<std::_Tree_node<unsigned long,void *> > >
  00008	cc		 int	 3
  00009	cc		 int	 3
  0000a	cc		 int	 3
  0000b	cc		 int	 3
  0000c	cc		 int	 3
__ehhandler$??$?0ABK@?$_Tree_temp_node@V?$allocator@U?$_Tree_node@KPAX@std@@@std@@@std@@QAE@AAV?$allocator@U?$_Tree_node@KPAX@std@@@1@PAU?$_Tree_node@KPAX@1@ABK@Z:
  0000d	90		 npad	 1
  0000e	90		 npad	 1
  0000f	8b 54 24 08	 mov	 edx, DWORD PTR [esp+8]
  00013	8d 42 0c	 lea	 eax, DWORD PTR [edx+12]
  00016	8b 4a e0	 mov	 ecx, DWORD PTR [edx-32]
  00019	33 c8		 xor	 ecx, eax
  0001b	e8 00 00 00 00	 call	 @__security_check_cookie@4
  00020	b8 00 00 00 00	 mov	 eax, OFFSET __ehfuncinfo$??$?0ABK@?$_Tree_temp_node@V?$allocator@U?$_Tree_node@KPAX@std@@@std@@@std@@QAE@AAV?$allocator@U?$_Tree_node@KPAX@std@@@1@PAU?$_Tree_node@KPAX@1@ABK@Z
  00025	e9 00 00 00 00	 jmp	 ___CxxFrameHandler3
text$x	ENDS
??$?0ABK@?$_Tree_temp_node@V?$allocator@U?$_Tree_node@KPAX@std@@@std@@@std@@QAE@AAV?$allocator@U?$_Tree_node@KPAX@std@@@1@PAU?$_Tree_node@KPAX@1@ABK@Z ENDP ; std::_Tree_temp_node<std::allocator<std::_Tree_node<unsigned long,void *> > >::_Tree_temp_node<std::allocator<std::_Tree_node<unsigned long,void *> > ><unsigned long const &>
; Function compile flags: /Odspy
; File C:\Program Files (x86)\Microsoft Visual Studio\2019\Community\VC\Tools\MSVC\14.28.29333\include\xtree
; File C:\Program Files (x86)\Microsoft Visual Studio\2019\Community\VC\Tools\MSVC\14.28.29333\include\xstddef
; File C:\Program Files (x86)\Microsoft Visual Studio\2019\Community\VC\Tools\MSVC\14.28.29333\include\xtree
;	COMDAT ??1?$_Tree_temp_node@V?$allocator@U?$_Tree_node@KPAX@std@@@std@@@std@@QAE@XZ
_TEXT	SEGMENT
$T1 = -12						; size = 4
__Val$ = -8						; size = 4
_this$ = -4						; size = 4
??1?$_Tree_temp_node@V?$allocator@U?$_Tree_node@KPAX@std@@@std@@@std@@QAE@XZ PROC ; std::_Tree_temp_node<std::allocator<std::_Tree_node<unsigned long,void *> > >::~_Tree_temp_node<std::allocator<std::_Tree_node<unsigned long,void *> > >, COMDAT
; _this$ = ecx

; 817  :     ~_Tree_temp_node() {

  00000	55		 push	 ebp
  00001	8b ec		 mov	 ebp, esp
  00003	83 ec 0c	 sub	 esp, 12			; 0000000cH
  00006	89 4d fc	 mov	 DWORD PTR _this$[ebp], ecx

; 818  :         if (this->_Ptr) {

  00009	8b 45 fc	 mov	 eax, DWORD PTR _this$[ebp]
  0000c	83 78 04 00	 cmp	 DWORD PTR [eax+4], 0
  00010	74 3e		 je	 SHORT $LN9@Tree_temp_

; 819  :             _Destroy_in_place(this->_Ptr->_Left);

  00012	8b 45 fc	 mov	 eax, DWORD PTR _this$[ebp]
  00015	ff 70 04	 push	 DWORD PTR [eax+4]
  00018	e8 00 00 00 00	 call	 ??$_Destroy_in_place@PAU?$_Tree_node@KPAX@std@@@std@@YAXAAPAU?$_Tree_node@KPAX@0@@Z ; std::_Destroy_in_place<std::_Tree_node<unsigned long,void *> *>
  0001d	59		 pop	 ecx

; 820  :             _Destroy_in_place(this->_Ptr->_Parent);

  0001e	8b 45 fc	 mov	 eax, DWORD PTR _this$[ebp]
  00021	8b 40 04	 mov	 eax, DWORD PTR [eax+4]
  00024	83 c0 04	 add	 eax, 4
  00027	50		 push	 eax
  00028	e8 00 00 00 00	 call	 ??$_Destroy_in_place@PAU?$_Tree_node@KPAX@std@@@std@@YAXAAPAU?$_Tree_node@KPAX@0@@Z ; std::_Destroy_in_place<std::_Tree_node<unsigned long,void *> *>
  0002d	59		 pop	 ecx

; 821  :             _Destroy_in_place(this->_Ptr->_Right);

  0002e	8b 45 fc	 mov	 eax, DWORD PTR _this$[ebp]
  00031	8b 40 04	 mov	 eax, DWORD PTR [eax+4]
  00034	83 c0 08	 add	 eax, 8
  00037	50		 push	 eax
  00038	e8 00 00 00 00	 call	 ??$_Destroy_in_place@PAU?$_Tree_node@KPAX@std@@@std@@YAXAAPAU?$_Tree_node@KPAX@0@@Z ; std::_Destroy_in_place<std::_Tree_node<unsigned long,void *> *>
  0003d	59		 pop	 ecx

; 822  :             _Alnode_traits::destroy(this->_Al, _STD addressof(this->_Ptr->_Myval));

  0003e	8b 45 fc	 mov	 eax, DWORD PTR _this$[ebp]
  00041	8b 40 04	 mov	 eax, DWORD PTR [eax+4]
  00044	83 c0 10	 add	 eax, 16			; 00000010H
  00047	89 45 f8	 mov	 DWORD PTR __Val$[ebp], eax
; File C:\Program Files (x86)\Microsoft Visual Studio\2019\Community\VC\Tools\MSVC\14.28.29333\include\xstddef

; 275  :     return __builtin_addressof(_Val);

  0004a	8b 45 f8	 mov	 eax, DWORD PTR __Val$[ebp]
  0004d	89 45 f4	 mov	 DWORD PTR $T1[ebp], eax
$LN9@Tree_temp_:
  00050	8b 4d fc	 mov	 ecx, DWORD PTR _this$[ebp]
  00053	e8 00 00 00 00	 call	 ??1?$_Alloc_construct_ptr@V?$allocator@U?$_Tree_node@KPAX@std@@@std@@@std@@QAE@XZ ; std::_Alloc_construct_ptr<std::allocator<std::_Tree_node<unsigned long,void *> > >::~_Alloc_construct_ptr<std::allocator<std::_Tree_node<unsigned long,void *> > >
; File C:\Program Files (x86)\Microsoft Visual Studio\2019\Community\VC\Tools\MSVC\14.28.29333\include\xtree

; 824  :     }

  00058	c9		 leave
  00059	c3		 ret	 0
??1?$_Tree_temp_node@V?$allocator@U?$_Tree_node@KPAX@std@@@std@@@std@@QAE@XZ ENDP ; std::_Tree_temp_node<std::allocator<std::_Tree_node<unsigned long,void *> > >::~_Tree_temp_node<std::allocator<std::_Tree_node<unsigned long,void *> > >
_TEXT	ENDS
; Function compile flags: /Odspy
; File C:\Program Files (x86)\Microsoft Visual Studio\2019\Community\VC\Tools\MSVC\14.28.29333\include\xmemory
;	COMDAT ??1?$_Alloc_construct_ptr@V?$allocator@U?$_Tree_node@KPAX@std@@@std@@@std@@QAE@XZ
_TEXT	SEGMENT
_this$ = -12						; size = 4
__Ptr$ = -8						; size = 4
_this$ = -4						; size = 4
??1?$_Alloc_construct_ptr@V?$allocator@U?$_Tree_node@KPAX@std@@@std@@@std@@QAE@XZ PROC ; std::_Alloc_construct_ptr<std::allocator<std::_Tree_node<unsigned long,void *> > >::~_Alloc_construct_ptr<std::allocator<std::_Tree_node<unsigned long,void *> > >, COMDAT
; _this$ = ecx

; 1056 :     ~_Alloc_construct_ptr() { // if this instance is engaged, deallocate storage

  00000	55		 push	 ebp
  00001	8b ec		 mov	 ebp, esp
  00003	83 ec 0c	 sub	 esp, 12			; 0000000cH
  00006	89 4d fc	 mov	 DWORD PTR _this$[ebp], ecx

; 1057 :         if (_Ptr) {

  00009	8b 45 fc	 mov	 eax, DWORD PTR _this$[ebp]
  0000c	83 78 04 00	 cmp	 DWORD PTR [eax+4], 0
  00010	74 22		 je	 SHORT $LN3@Alloc_cons

; 1058 :             _Al.deallocate(_Ptr, 1);

  00012	8b 45 fc	 mov	 eax, DWORD PTR _this$[ebp]
  00015	8b 40 04	 mov	 eax, DWORD PTR [eax+4]
  00018	89 45 f8	 mov	 DWORD PTR __Ptr$[ebp], eax
  0001b	8b 45 fc	 mov	 eax, DWORD PTR _this$[ebp]
  0001e	8b 00		 mov	 eax, DWORD PTR [eax]
  00020	89 45 f4	 mov	 DWORD PTR _this$[ebp], eax

; 810  :         _Deallocate<_New_alignof<_Ty>>(_Ptr, sizeof(_Ty) * _Count);

  00023	33 c0		 xor	 eax, eax
  00025	40		 inc	 eax
  00026	6b c0 14	 imul	 eax, eax, 20
  00029	50		 push	 eax
  0002a	ff 75 f8	 push	 DWORD PTR __Ptr$[ebp]
  0002d	e8 00 00 00 00	 call	 ??$_Deallocate@$07$0A@@std@@YAXPAXI@Z ; std::_Deallocate<8,0>
  00032	59		 pop	 ecx
  00033	59		 pop	 ecx
$LN3@Alloc_cons:

; 1059 :         }
; 1060 :     }

  00034	c9		 leave
  00035	c3		 ret	 0
??1?$_Alloc_construct_ptr@V?$allocator@U?$_Tree_node@KPAX@std@@@std@@@std@@QAE@XZ ENDP ; std::_Alloc_construct_ptr<std::allocator<std::_Tree_node<unsigned long,void *> > >::~_Alloc_construct_ptr<std::allocator<std::_Tree_node<unsigned long,void *> > >
_TEXT	ENDS
; Function compile flags: /Odspy
; File C:\Program Files (x86)\Microsoft Visual Studio\2019\Community\VC\Tools\MSVC\14.28.29333\include\xmemory
;	COMDAT ?_Allocate@?$_Alloc_construct_ptr@V?$allocator@U?$_Tree_node@KPAX@std@@@std@@@std@@QAEXXZ
_TEXT	SEGMENT
__Max_possible$1 = -24					; size = 4
_this$ = -20						; size = 4
$T2 = -16						; size = 4
$T3 = -12						; size = 4
_this$ = -8						; size = 4
__Overflow_is_possible$4 = -1				; size = 1
?_Allocate@?$_Alloc_construct_ptr@V?$allocator@U?$_Tree_node@KPAX@std@@@std@@@std@@QAEXXZ PROC ; std::_Alloc_construct_ptr<std::allocator<std::_Tree_node<unsigned long,void *> > >::_Allocate, COMDAT
; _this$ = ecx

; 1051 :     void _Allocate() { // disengage *this, then allocate a new memory block

  00000	55		 push	 ebp
  00001	8b ec		 mov	 ebp, esp
  00003	83 ec 18	 sub	 esp, 24			; 00000018H
  00006	89 4d f8	 mov	 DWORD PTR _this$[ebp], ecx

; 1052 :         _Ptr = nullptr; // if allocate throws, prevents double-free

  00009	8b 45 f8	 mov	 eax, DWORD PTR _this$[ebp]
  0000c	83 60 04 00	 and	 DWORD PTR [eax+4], 0

; 1053 :         _Ptr = _Al.allocate(1);

  00010	8b 45 f8	 mov	 eax, DWORD PTR _this$[ebp]
  00013	8b 00		 mov	 eax, DWORD PTR [eax]
  00015	89 45 ec	 mov	 DWORD PTR _this$[ebp], eax

; 56   :     constexpr bool _Overflow_is_possible = _Ty_size > 1;

  00018	c6 45 ff 01	 mov	 BYTE PTR __Overflow_is_possible$4[ebp], 1

; 57   : 
; 58   :     if _CONSTEXPR_IF (_Overflow_is_possible) {
; 59   :         constexpr size_t _Max_possible = static_cast<size_t>(-1) / _Ty_size;

  0001c	c7 45 e8 cc cc
	cc 0c		 mov	 DWORD PTR __Max_possible$1[ebp], 214748364 ; 0cccccccH

; 60   :         if (_Count > _Max_possible) {

  00023	33 c0		 xor	 eax, eax
  00025	40		 inc	 eax
  00026	3d cc cc cc 0c	 cmp	 eax, 214748364		; 0cccccccH
  0002b	76 05		 jbe	 SHORT $LN6@Allocate

; 61   :             _Throw_bad_array_new_length(); // multiply overflow

  0002d	e8 00 00 00 00	 call	 ?_Throw_bad_array_new_length@std@@YAXXZ ; std::_Throw_bad_array_new_length
$LN6@Allocate:

; 62   :         }
; 63   :     }
; 64   : 
; 65   :     return _Count * _Ty_size;

  00032	33 c0		 xor	 eax, eax
  00034	40		 inc	 eax
  00035	6b c0 14	 imul	 eax, eax, 20
  00038	89 45 f4	 mov	 DWORD PTR $T3[ebp], eax

; 814  :         return static_cast<_Ty*>(_Allocate<_New_alignof<_Ty>>(_Get_size_of_n<sizeof(_Ty)>(_Count)));

  0003b	ff 75 f4	 push	 DWORD PTR $T3[ebp]
  0003e	e8 00 00 00 00	 call	 ??$_Allocate@$07U_Default_allocate_traits@std@@$0A@@std@@YAPAXI@Z ; std::_Allocate<8,std::_Default_allocate_traits,0>
  00043	59		 pop	 ecx
  00044	89 45 f0	 mov	 DWORD PTR $T2[ebp], eax

; 1053 :         _Ptr = _Al.allocate(1);

  00047	8b 45 f8	 mov	 eax, DWORD PTR _this$[ebp]
  0004a	8b 4d f0	 mov	 ecx, DWORD PTR $T2[ebp]
  0004d	89 48 04	 mov	 DWORD PTR [eax+4], ecx
$LN9@Allocate:

; 1054 :     }

  00050	c9		 leave
  00051	c3		 ret	 0
?_Allocate@?$_Alloc_construct_ptr@V?$allocator@U?$_Tree_node@KPAX@std@@@std@@@std@@QAEXXZ ENDP ; std::_Alloc_construct_ptr<std::allocator<std::_Tree_node<unsigned long,void *> > >::_Allocate
_TEXT	ENDS
; Function compile flags: /Odspy
; File C:\Program Files (x86)\Microsoft Visual Studio\2019\Community\VC\Tools\MSVC\14.28.29333\include\xmemory
; File C:\Program Files (x86)\Microsoft Visual Studio\2019\Community\VC\Tools\MSVC\14.28.29333\include\xstddef
; File C:\Program Files (x86)\Microsoft Visual Studio\2019\Community\VC\Tools\MSVC\14.28.29333\include\vcruntime_new.h
; File C:\Program Files (x86)\Microsoft Visual Studio\2019\Community\VC\Tools\MSVC\14.28.29333\include\type_traits
; File C:\Program Files (x86)\Microsoft Visual Studio\2019\Community\VC\Tools\MSVC\14.28.29333\include\xmemory
;	COMDAT ??$_Construct_in_place@PAU?$_Tree_node@U?$pair@$$CBKPAVCProperty@@@std@@PAX@std@@ABQAU12@@std@@YAXAAPAU?$_Tree_node@U?$pair@$$CBKPAVCProperty@@@std@@PAX@0@ABQAU10@@Z
_TEXT	SEGMENT
$T1 = -12						; size = 4
$T2 = -8						; size = 4
$T3 = -4						; size = 4
__Obj$ = 8						; size = 4
_<_Args_0>$ = 12					; size = 4
??$_Construct_in_place@PAU?$_Tree_node@U?$pair@$$CBKPAVCProperty@@@std@@PAX@std@@ABQAU12@@std@@YAXAAPAU?$_Tree_node@U?$pair@$$CBKPAVCProperty@@@std@@PAX@0@ABQAU10@@Z PROC ; std::_Construct_in_place<std::_Tree_node<std::pair<unsigned long const ,CProperty *>,void *> *,std::_Tree_node<std::pair<unsigned long const ,CProperty *>,void *> * const &>, COMDAT

; 228  : void _Construct_in_place(_Ty& _Obj, _Types&&... _Args) noexcept(is_nothrow_constructible_v<_Ty, _Types...>) {

  00000	55		 push	 ebp
  00001	8b ec		 mov	 ebp, esp
  00003	83 ec 0c	 sub	 esp, 12			; 0000000cH
; File C:\Program Files (x86)\Microsoft Visual Studio\2019\Community\VC\Tools\MSVC\14.28.29333\include\xstddef

; 275  :     return __builtin_addressof(_Val);

  00006	8b 45 08	 mov	 eax, DWORD PTR __Obj$[ebp]
  00009	89 45 fc	 mov	 DWORD PTR $T3[ebp], eax
; File C:\Program Files (x86)\Microsoft Visual Studio\2019\Community\VC\Tools\MSVC\14.28.29333\include\vcruntime_new.h

; 169  :         return _Where;

  0000c	8b 45 fc	 mov	 eax, DWORD PTR $T3[ebp]
  0000f	89 45 f8	 mov	 DWORD PTR $T2[ebp], eax
; File C:\Program Files (x86)\Microsoft Visual Studio\2019\Community\VC\Tools\MSVC\14.28.29333\include\type_traits

; 1443 :     return static_cast<_Ty&&>(_Arg);

  00012	8b 45 0c	 mov	 eax, DWORD PTR _<_Args_0>$[ebp]
  00015	89 45 f4	 mov	 DWORD PTR $T1[ebp], eax
; File C:\Program Files (x86)\Microsoft Visual Studio\2019\Community\VC\Tools\MSVC\14.28.29333\include\xmemory

; 229  :     ::new (const_cast<void*>(static_cast<const volatile void*>(_STD addressof(_Obj))))

  00018	8b 45 f8	 mov	 eax, DWORD PTR $T2[ebp]
  0001b	8b 4d f4	 mov	 ecx, DWORD PTR $T1[ebp]
  0001e	8b 09		 mov	 ecx, DWORD PTR [ecx]
  00020	89 08		 mov	 DWORD PTR [eax], ecx

; 230  :         _Ty(_STD forward<_Types>(_Args)...);
; 231  : }

  00022	c9		 leave
  00023	c3		 ret	 0
??$_Construct_in_place@PAU?$_Tree_node@U?$pair@$$CBKPAVCProperty@@@std@@PAX@std@@ABQAU12@@std@@YAXAAPAU?$_Tree_node@U?$pair@$$CBKPAVCProperty@@@std@@PAX@0@ABQAU10@@Z ENDP ; std::_Construct_in_place<std::_Tree_node<std::pair<unsigned long const ,CProperty *>,void *> *,std::_Tree_node<std::pair<unsigned long const ,CProperty *>,void *> * const &>
_TEXT	ENDS
; Function compile flags: /Odspy
; File C:\Program Files (x86)\Microsoft Visual Studio\2019\Community\VC\Tools\MSVC\14.28.29333\include\xmemory
; File C:\Program Files (x86)\Microsoft Visual Studio\2019\Community\VC\Tools\MSVC\14.28.29333\include\xstddef
; File C:\Program Files (x86)\Microsoft Visual Studio\2019\Community\VC\Tools\MSVC\14.28.29333\include\vcruntime_new.h
; File C:\Program Files (x86)\Microsoft Visual Studio\2019\Community\VC\Tools\MSVC\14.28.29333\include\type_traits
; File C:\Program Files (x86)\Microsoft Visual Studio\2019\Community\VC\Tools\MSVC\14.28.29333\include\xmemory
;	COMDAT ??$_Construct_in_place@PAU?$_Tree_node@KPAX@std@@ABQAU12@@std@@YAXAAPAU?$_Tree_node@KPAX@0@ABQAU10@@Z
_TEXT	SEGMENT
$T1 = -12						; size = 4
$T2 = -8						; size = 4
$T3 = -4						; size = 4
__Obj$ = 8						; size = 4
_<_Args_0>$ = 12					; size = 4
??$_Construct_in_place@PAU?$_Tree_node@KPAX@std@@ABQAU12@@std@@YAXAAPAU?$_Tree_node@KPAX@0@ABQAU10@@Z PROC ; std::_Construct_in_place<std::_Tree_node<unsigned long,void *> *,std::_Tree_node<unsigned long,void *> * const &>, COMDAT

; 228  : void _Construct_in_place(_Ty& _Obj, _Types&&... _Args) noexcept(is_nothrow_constructible_v<_Ty, _Types...>) {

  00000	55		 push	 ebp
  00001	8b ec		 mov	 ebp, esp
  00003	83 ec 0c	 sub	 esp, 12			; 0000000cH
; File C:\Program Files (x86)\Microsoft Visual Studio\2019\Community\VC\Tools\MSVC\14.28.29333\include\xstddef

; 275  :     return __builtin_addressof(_Val);

  00006	8b 45 08	 mov	 eax, DWORD PTR __Obj$[ebp]
  00009	89 45 fc	 mov	 DWORD PTR $T3[ebp], eax
; File C:\Program Files (x86)\Microsoft Visual Studio\2019\Community\VC\Tools\MSVC\14.28.29333\include\vcruntime_new.h

; 169  :         return _Where;

  0000c	8b 45 fc	 mov	 eax, DWORD PTR $T3[ebp]
  0000f	89 45 f8	 mov	 DWORD PTR $T2[ebp], eax
; File C:\Program Files (x86)\Microsoft Visual Studio\2019\Community\VC\Tools\MSVC\14.28.29333\include\type_traits

; 1443 :     return static_cast<_Ty&&>(_Arg);

  00012	8b 45 0c	 mov	 eax, DWORD PTR _<_Args_0>$[ebp]
  00015	89 45 f4	 mov	 DWORD PTR $T1[ebp], eax
; File C:\Program Files (x86)\Microsoft Visual Studio\2019\Community\VC\Tools\MSVC\14.28.29333\include\xmemory

; 229  :     ::new (const_cast<void*>(static_cast<const volatile void*>(_STD addressof(_Obj))))

  00018	8b 45 f8	 mov	 eax, DWORD PTR $T2[ebp]
  0001b	8b 4d f4	 mov	 ecx, DWORD PTR $T1[ebp]
  0001e	8b 09		 mov	 ecx, DWORD PTR [ecx]
  00020	89 08		 mov	 DWORD PTR [eax], ecx

; 230  :         _Ty(_STD forward<_Types>(_Args)...);
; 231  : }

  00022	c9		 leave
  00023	c3		 ret	 0
??$_Construct_in_place@PAU?$_Tree_node@KPAX@std@@ABQAU12@@std@@YAXAAPAU?$_Tree_node@KPAX@0@ABQAU10@@Z ENDP ; std::_Construct_in_place<std::_Tree_node<unsigned long,void *> *,std::_Tree_node<unsigned long,void *> * const &>
_TEXT	ENDS
; Function compile flags: /Odspy
; File C:\Program Files (x86)\Microsoft Visual Studio\2019\Community\VC\Tools\MSVC\14.28.29333\include\xtree
; File C:\Program Files (x86)\Microsoft Visual Studio\2019\Community\VC\Tools\MSVC\14.28.29333\include\xmemory
; File C:\Program Files (x86)\Microsoft Visual Studio\2019\Community\VC\Tools\MSVC\14.28.29333\include\xtree
;	COMDAT ??$_Freenode0@V?$allocator@U?$_Tree_node@U?$pair@$$CBKPAVCProperty@@@std@@PAX@std@@@std@@@?$_Tree_node@U?$pair@$$CBKPAVCProperty@@@std@@PAX@std@@SAXAAV?$allocator@U?$_Tree_node@U?$pair@$$CBKPAVCProperty@@@std@@PAX@std@@@1@PAU01@@Z
_TEXT	SEGMENT
__Al$ = 8						; size = 4
__Ptr$ = 12						; size = 4
??$_Freenode0@V?$allocator@U?$_Tree_node@U?$pair@$$CBKPAVCProperty@@@std@@PAX@std@@@std@@@?$_Tree_node@U?$pair@$$CBKPAVCProperty@@@std@@PAX@std@@SAXAAV?$allocator@U?$_Tree_node@U?$pair@$$CBKPAVCProperty@@@std@@PAX@std@@@1@PAU01@@Z PROC ; std::_Tree_node<std::pair<unsigned long const ,CProperty *>,void *>::_Freenode0<std::allocator<std::_Tree_node<std::pair<unsigned long const ,CProperty *>,void *> > >, COMDAT

; 368  :     static void _Freenode0(_Alloc& _Al, _Nodeptr _Ptr) noexcept {

  00000	55		 push	 ebp
  00001	8b ec		 mov	 ebp, esp

; 369  :         static_assert(is_same_v<typename _Alloc::value_type, _Tree_node>, "Bad _Freenode0 call");
; 370  :         _Destroy_in_place(_Ptr->_Left);

  00003	ff 75 0c	 push	 DWORD PTR __Ptr$[ebp]
  00006	e8 00 00 00 00	 call	 ??$_Destroy_in_place@PAU?$_Tree_node@U?$pair@$$CBKPAVCProperty@@@std@@PAX@std@@@std@@YAXAAPAU?$_Tree_node@U?$pair@$$CBKPAVCProperty@@@std@@PAX@0@@Z ; std::_Destroy_in_place<std::_Tree_node<std::pair<unsigned long const ,CProperty *>,void *> *>
  0000b	59		 pop	 ecx

; 371  :         _Destroy_in_place(_Ptr->_Parent);

  0000c	8b 45 0c	 mov	 eax, DWORD PTR __Ptr$[ebp]
  0000f	83 c0 04	 add	 eax, 4
  00012	50		 push	 eax
  00013	e8 00 00 00 00	 call	 ??$_Destroy_in_place@PAU?$_Tree_node@U?$pair@$$CBKPAVCProperty@@@std@@PAX@std@@@std@@YAXAAPAU?$_Tree_node@U?$pair@$$CBKPAVCProperty@@@std@@PAX@0@@Z ; std::_Destroy_in_place<std::_Tree_node<std::pair<unsigned long const ,CProperty *>,void *> *>
  00018	59		 pop	 ecx

; 372  :         _Destroy_in_place(_Ptr->_Right);

  00019	8b 45 0c	 mov	 eax, DWORD PTR __Ptr$[ebp]
  0001c	83 c0 08	 add	 eax, 8
  0001f	50		 push	 eax
  00020	e8 00 00 00 00	 call	 ??$_Destroy_in_place@PAU?$_Tree_node@U?$pair@$$CBKPAVCProperty@@@std@@PAX@std@@@std@@YAXAAPAU?$_Tree_node@U?$pair@$$CBKPAVCProperty@@@std@@PAX@0@@Z ; std::_Destroy_in_place<std::_Tree_node<std::pair<unsigned long const ,CProperty *>,void *> *>
  00025	59		 pop	 ecx
; File C:\Program Files (x86)\Microsoft Visual Studio\2019\Community\VC\Tools\MSVC\14.28.29333\include\xmemory

; 696  :         _Deallocate<_New_alignof<value_type>>(_Ptr, sizeof(value_type) * _Count);

  00026	33 c0		 xor	 eax, eax
  00028	40		 inc	 eax
  00029	6b c0 18	 imul	 eax, eax, 24
  0002c	50		 push	 eax
  0002d	ff 75 0c	 push	 DWORD PTR __Ptr$[ebp]
  00030	e8 00 00 00 00	 call	 ??$_Deallocate@$07$0A@@std@@YAXPAXI@Z ; std::_Deallocate<8,0>
  00035	59		 pop	 ecx
  00036	59		 pop	 ecx
; File C:\Program Files (x86)\Microsoft Visual Studio\2019\Community\VC\Tools\MSVC\14.28.29333\include\xtree

; 374  :     }

  00037	5d		 pop	 ebp
  00038	c3		 ret	 0
??$_Freenode0@V?$allocator@U?$_Tree_node@U?$pair@$$CBKPAVCProperty@@@std@@PAX@std@@@std@@@?$_Tree_node@U?$pair@$$CBKPAVCProperty@@@std@@PAX@std@@SAXAAV?$allocator@U?$_Tree_node@U?$pair@$$CBKPAVCProperty@@@std@@PAX@std@@@1@PAU01@@Z ENDP ; std::_Tree_node<std::pair<unsigned long const ,CProperty *>,void *>::_Freenode0<std::allocator<std::_Tree_node<std::pair<unsigned long const ,CProperty *>,void *> > >
_TEXT	ENDS
; Function compile flags: /Odspy
; File C:\Program Files (x86)\Microsoft Visual Studio\2019\Community\VC\Tools\MSVC\14.28.29333\include\xtree
; File C:\Program Files (x86)\Microsoft Visual Studio\2019\Community\VC\Tools\MSVC\14.28.29333\include\utility
; File C:\Program Files (x86)\Microsoft Visual Studio\2019\Community\VC\Tools\MSVC\14.28.29333\include\xtree
; File C:\Program Files (x86)\Microsoft Visual Studio\2019\Community\VC\Tools\MSVC\14.28.29333\include\xstddef
; File C:\Program Files (x86)\Microsoft Visual Studio\2019\Community\VC\Tools\MSVC\14.28.29333\include\xtree
;	COMDAT ??$_Erase_tree@V?$allocator@U?$_Tree_node@U?$pair@$$CBKPAVCProperty@@@std@@PAX@std@@@std@@@?$_Tree_val@U?$_Tree_simple_types@U?$pair@$$CBKPAVCProperty@@@std@@@std@@@std@@QAEXAAV?$allocator@U?$_Tree_node@U?$pair@$$CBKPAVCProperty@@@std@@PAX@std@@@1@PAU?$_Tree_node@U?$pair@$$CBKPAVCProperty@@@std@@PAX@1@@Z
_TEXT	SEGMENT
$T1 = -20						; size = 4
__Old_val$2 = -16					; size = 4
__New_val$ = -12					; size = 4
_this$ = -8						; size = 4
$T3 = -4						; size = 4
__Al$ = 8						; size = 4
__Rootnode$ = 12					; size = 4
??$_Erase_tree@V?$allocator@U?$_Tree_node@U?$pair@$$CBKPAVCProperty@@@std@@PAX@std@@@std@@@?$_Tree_val@U?$_Tree_simple_types@U?$pair@$$CBKPAVCProperty@@@std@@@std@@@std@@QAEXAAV?$allocator@U?$_Tree_node@U?$pair@$$CBKPAVCProperty@@@std@@PAX@std@@@1@PAU?$_Tree_node@U?$pair@$$CBKPAVCProperty@@@std@@PAX@1@@Z PROC ; std::_Tree_val<std::_Tree_simple_types<std::pair<unsigned long const ,CProperty *> > >::_Erase_tree<std::allocator<std::_Tree_node<std::pair<unsigned long const ,CProperty *>,void *> > >, COMDAT
; _this$ = ecx

; 742  :     void _Erase_tree(_Alnode& _Al, _Nodeptr _Rootnode) noexcept {

  00000	55		 push	 ebp
  00001	8b ec		 mov	 ebp, esp
  00003	83 ec 14	 sub	 esp, 20			; 00000014H
  00006	89 4d f8	 mov	 DWORD PTR _this$[ebp], ecx
$LN2@Erase_tree:

; 743  :         while (!_Rootnode->_Isnil) { // free subtrees, then node

  00009	8b 45 0c	 mov	 eax, DWORD PTR __Rootnode$[ebp]
  0000c	0f be 40 0d	 movsx	 eax, BYTE PTR [eax+13]
  00010	85 c0		 test	 eax, eax
  00012	75 43		 jne	 SHORT $LN4@Erase_tree

; 744  :             _Erase_tree(_Al, _Rootnode->_Right);

  00014	8b 45 0c	 mov	 eax, DWORD PTR __Rootnode$[ebp]
  00017	ff 70 08	 push	 DWORD PTR [eax+8]
  0001a	ff 75 08	 push	 DWORD PTR __Al$[ebp]
  0001d	8b 4d f8	 mov	 ecx, DWORD PTR _this$[ebp]
  00020	e8 00 00 00 00	 call	 ??$_Erase_tree@V?$allocator@U?$_Tree_node@U?$pair@$$CBKPAVCProperty@@@std@@PAX@std@@@std@@@?$_Tree_val@U?$_Tree_simple_types@U?$pair@$$CBKPAVCProperty@@@std@@@std@@@std@@QAEXAAV?$allocator@U?$_Tree_node@U?$pair@$$CBKPAVCProperty@@@std@@PAX@std@@@1@PAU?$_Tree_node@U?$pair@$$CBKPAVCProperty@@@std@@PAX@1@@Z ; std::_Tree_val<std::_Tree_simple_types<std::pair<unsigned long const ,CProperty *> > >::_Erase_tree<std::allocator<std::_Tree_node<std::pair<unsigned long const ,CProperty *>,void *> > >

; 745  :             _Alnode::value_type::_Freenode(_Al, _STD exchange(_Rootnode, _Rootnode->_Left));

  00025	8b 45 0c	 mov	 eax, DWORD PTR __Rootnode$[ebp]
  00028	89 45 f4	 mov	 DWORD PTR __New_val$[ebp], eax
; File C:\Program Files (x86)\Microsoft Visual Studio\2019\Community\VC\Tools\MSVC\14.28.29333\include\utility

; 598  :     _Ty _Old_val = static_cast<_Ty&&>(_Val);

  0002b	8b 45 0c	 mov	 eax, DWORD PTR __Rootnode$[ebp]
  0002e	89 45 f0	 mov	 DWORD PTR __Old_val$2[ebp], eax

; 599  :     _Val         = static_cast<_Other&&>(_New_val);

  00031	8b 45 f4	 mov	 eax, DWORD PTR __New_val$[ebp]
  00034	8b 00		 mov	 eax, DWORD PTR [eax]
  00036	89 45 0c	 mov	 DWORD PTR __Rootnode$[ebp], eax

; 600  :     return _Old_val;

  00039	8b 45 f0	 mov	 eax, DWORD PTR __Old_val$2[ebp]
  0003c	89 45 fc	 mov	 DWORD PTR $T3[ebp], eax
; File C:\Program Files (x86)\Microsoft Visual Studio\2019\Community\VC\Tools\MSVC\14.28.29333\include\xtree

; 379  :         allocator_traits<_Alloc>::destroy(_Al, _STD addressof(_Ptr->_Myval));

  0003f	8b 45 fc	 mov	 eax, DWORD PTR $T3[ebp]
  00042	83 c0 10	 add	 eax, 16			; 00000010H
; File C:\Program Files (x86)\Microsoft Visual Studio\2019\Community\VC\Tools\MSVC\14.28.29333\include\xstddef

; 275  :     return __builtin_addressof(_Val);

  00045	89 45 ec	 mov	 DWORD PTR $T1[ebp], eax
; File C:\Program Files (x86)\Microsoft Visual Studio\2019\Community\VC\Tools\MSVC\14.28.29333\include\xtree

; 380  :         _Freenode0(_Al, _Ptr);

  00048	ff 75 fc	 push	 DWORD PTR $T3[ebp]
  0004b	ff 75 08	 push	 DWORD PTR __Al$[ebp]
  0004e	e8 00 00 00 00	 call	 ??$_Freenode0@V?$allocator@U?$_Tree_node@U?$pair@$$CBKPAVCProperty@@@std@@PAX@std@@@std@@@?$_Tree_node@U?$pair@$$CBKPAVCProperty@@@std@@PAX@std@@SAXAAV?$allocator@U?$_Tree_node@U?$pair@$$CBKPAVCProperty@@@std@@PAX@std@@@1@PAU01@@Z ; std::_Tree_node<std::pair<unsigned long const ,CProperty *>,void *>::_Freenode0<std::allocator<std::_Tree_node<std::pair<unsigned long const ,CProperty *>,void *> > >
  00053	59		 pop	 ecx
  00054	59		 pop	 ecx

; 746  :         }

  00055	eb b2		 jmp	 SHORT $LN2@Erase_tree
$LN4@Erase_tree:

; 747  :     }

  00057	c9		 leave
  00058	c2 08 00	 ret	 8
??$_Erase_tree@V?$allocator@U?$_Tree_node@U?$pair@$$CBKPAVCProperty@@@std@@PAX@std@@@std@@@?$_Tree_val@U?$_Tree_simple_types@U?$pair@$$CBKPAVCProperty@@@std@@@std@@@std@@QAEXAAV?$allocator@U?$_Tree_node@U?$pair@$$CBKPAVCProperty@@@std@@PAX@std@@@1@PAU?$_Tree_node@U?$pair@$$CBKPAVCProperty@@@std@@PAX@1@@Z ENDP ; std::_Tree_val<std::_Tree_simple_types<std::pair<unsigned long const ,CProperty *> > >::_Erase_tree<std::allocator<std::_Tree_node<std::pair<unsigned long const ,CProperty *>,void *> > >
_TEXT	ENDS
; Function compile flags: /Odspy
; File C:\Program Files (x86)\Microsoft Visual Studio\2019\Community\VC\Tools\MSVC\14.28.29333\include\xtree
; File C:\Program Files (x86)\Microsoft Visual Studio\2019\Community\VC\Tools\MSVC\14.28.29333\include\xstddef
; File C:\Program Files (x86)\Microsoft Visual Studio\2019\Community\VC\Tools\MSVC\14.28.29333\include\xtree
; File C:\Program Files (x86)\Microsoft Visual Studio\2019\Community\VC\Tools\MSVC\14.28.29333\include\xmemory
; File C:\Program Files (x86)\Microsoft Visual Studio\2019\Community\VC\Tools\MSVC\14.28.29333\include\xtree
; File C:\Program Files (x86)\Microsoft Visual Studio\2019\Community\VC\Tools\MSVC\14.28.29333\include\xstddef
; File C:\Program Files (x86)\Microsoft Visual Studio\2019\Community\VC\Tools\MSVC\14.28.29333\include\xtree
;	COMDAT ??$_Find_lower_bound@K@?$_Tree@V?$_Tmap_traits@KPAVCProperty@@U?$less@K@std@@V?$allocator@U?$pair@$$CBKPAVCProperty@@@std@@@3@$0A@@std@@@std@@IBE?AU?$_Tree_find_result@PAU?$_Tree_node@U?$pair@$$CBKPAVCProperty@@@std@@PAX@std@@@1@ABK@Z
_TEXT	SEGMENT
__Result$ = -40						; size = 12
$T1 = -28						; size = 4
$T2 = -24						; size = 4
$T3 = -20						; size = 4
tv64 = -16						; size = 4
_this$ = -12						; size = 4
__Scary$ = -8						; size = 4
__Trynode$ = -4						; size = 4
___$ReturnUdt$ = 8					; size = 4
__Keyval$ = 12						; size = 4
??$_Find_lower_bound@K@?$_Tree@V?$_Tmap_traits@KPAVCProperty@@U?$less@K@std@@V?$allocator@U?$pair@$$CBKPAVCProperty@@@std@@@3@$0A@@std@@@std@@IBE?AU?$_Tree_find_result@PAU?$_Tree_node@U?$pair@$$CBKPAVCProperty@@@std@@PAX@std@@@1@ABK@Z PROC ; std::_Tree<std::_Tmap_traits<unsigned long,CProperty *,std::less<unsigned long>,std::allocator<std::pair<unsigned long const ,CProperty *> >,0> >::_Find_lower_bound<unsigned long>, COMDAT
; _this$ = ecx

; 1699 :     _Tree_find_result<_Nodeptr> _Find_lower_bound(const _Keyty& _Keyval) const {

  00000	55		 push	 ebp
  00001	8b ec		 mov	 ebp, esp
  00003	83 ec 28	 sub	 esp, 40			; 00000028H
  00006	56		 push	 esi
  00007	57		 push	 edi
  00008	89 4d f4	 mov	 DWORD PTR _this$[ebp], ecx

; 2051 :         return _STD addressof(_Mypair._Myval2._Myval2);

  0000b	8b 45 f4	 mov	 eax, DWORD PTR _this$[ebp]
; File C:\Program Files (x86)\Microsoft Visual Studio\2019\Community\VC\Tools\MSVC\14.28.29333\include\xstddef

; 275  :     return __builtin_addressof(_Val);

  0000e	89 45 ec	 mov	 DWORD PTR $T3[ebp], eax
; File C:\Program Files (x86)\Microsoft Visual Studio\2019\Community\VC\Tools\MSVC\14.28.29333\include\xtree

; 2051 :         return _STD addressof(_Mypair._Myval2._Myval2);

  00011	8b 45 ec	 mov	 eax, DWORD PTR $T3[ebp]
  00014	89 45 f8	 mov	 DWORD PTR __Scary$[ebp], eax

; 1700 :         const auto _Scary = _Get_scary();
; 1701 :         _Tree_find_result<_Nodeptr> _Result{{_Scary->_Myhead->_Parent, _Tree_child::_Right}, _Scary->_Myhead};

  00017	8b 45 f8	 mov	 eax, DWORD PTR __Scary$[ebp]
  0001a	8b 00		 mov	 eax, DWORD PTR [eax]
  0001c	8b 40 04	 mov	 eax, DWORD PTR [eax+4]
  0001f	89 45 d8	 mov	 DWORD PTR __Result$[ebp], eax
  00022	83 65 dc 00	 and	 DWORD PTR __Result$[ebp+4], 0
  00026	8b 45 f8	 mov	 eax, DWORD PTR __Scary$[ebp]
  00029	8b 00		 mov	 eax, DWORD PTR [eax]
  0002b	89 45 e0	 mov	 DWORD PTR __Result$[ebp+8], eax

; 1702 :         _Nodeptr _Trynode = _Result._Location._Parent;

  0002e	8b 45 d8	 mov	 eax, DWORD PTR __Result$[ebp]
  00031	89 45 fc	 mov	 DWORD PTR __Trynode$[ebp], eax
$LN2@Find_lower:

; 1703 :         while (!_Trynode->_Isnil) {

  00034	8b 45 fc	 mov	 eax, DWORD PTR __Trynode$[ebp]
  00037	0f be 40 0d	 movsx	 eax, BYTE PTR [eax+13]
  0003b	85 c0		 test	 eax, eax
  0003d	75 5a		 jne	 SHORT $LN3@Find_lower

; 1704 :             _Result._Location._Parent = _Trynode;

  0003f	8b 45 fc	 mov	 eax, DWORD PTR __Trynode$[ebp]
  00042	89 45 d8	 mov	 DWORD PTR __Result$[ebp], eax

; 2035 :         return _Mypair._Get_first();

  00045	8b 45 f4	 mov	 eax, DWORD PTR _this$[ebp]
; File C:\Program Files (x86)\Microsoft Visual Studio\2019\Community\VC\Tools\MSVC\14.28.29333\include\xmemory

; 1351 :         return *this;

  00048	89 45 e8	 mov	 DWORD PTR $T2[ebp], eax
; File C:\Program Files (x86)\Microsoft Visual Studio\2019\Community\VC\Tools\MSVC\14.28.29333\include\xtree

; 2035 :         return _Mypair._Get_first();

  0004b	8b 45 e8	 mov	 eax, DWORD PTR $T2[ebp]
  0004e	89 45 e4	 mov	 DWORD PTR $T1[ebp], eax
; File C:\Program Files (x86)\Microsoft Visual Studio\2019\Community\VC\Tools\MSVC\14.28.29333\include\xstddef

; 127  :         return _Left < _Right;

  00051	8b 45 fc	 mov	 eax, DWORD PTR __Trynode$[ebp]
  00054	8b 4d 0c	 mov	 ecx, DWORD PTR __Keyval$[ebp]
  00057	8b 40 10	 mov	 eax, DWORD PTR [eax+16]
  0005a	3b 01		 cmp	 eax, DWORD PTR [ecx]
  0005c	73 09		 jae	 SHORT $LN23@Find_lower
  0005e	c7 45 f0 01 00
	00 00		 mov	 DWORD PTR tv64[ebp], 1
  00065	eb 04		 jmp	 SHORT $LN21@Find_lower
$LN23@Find_lower:
  00067	83 65 f0 00	 and	 DWORD PTR tv64[ebp], 0
$LN21@Find_lower:
; File C:\Program Files (x86)\Microsoft Visual Studio\2019\Community\VC\Tools\MSVC\14.28.29333\include\xtree

; 1705 :             if (_DEBUG_LT_PRED(_Getcomp(), _Traits::_Kfn(_Trynode->_Myval), _Keyval)) {

  0006b	0f b6 45 f0	 movzx	 eax, BYTE PTR tv64[ebp]
  0006f	85 c0		 test	 eax, eax
  00071	74 0f		 je	 SHORT $LN4@Find_lower

; 1706 :                 _Result._Location._Child = _Tree_child::_Right;

  00073	83 65 dc 00	 and	 DWORD PTR __Result$[ebp+4], 0

; 1707 :                 _Trynode                 = _Trynode->_Right;

  00077	8b 45 fc	 mov	 eax, DWORD PTR __Trynode$[ebp]
  0007a	8b 40 08	 mov	 eax, DWORD PTR [eax+8]
  0007d	89 45 fc	 mov	 DWORD PTR __Trynode$[ebp], eax

; 1708 :             } else {

  00080	eb 15		 jmp	 SHORT $LN5@Find_lower
$LN4@Find_lower:

; 1709 :                 _Result._Location._Child = _Tree_child::_Left;

  00082	c7 45 dc 01 00
	00 00		 mov	 DWORD PTR __Result$[ebp+4], 1

; 1710 :                 _Result._Bound           = _Trynode;

  00089	8b 45 fc	 mov	 eax, DWORD PTR __Trynode$[ebp]
  0008c	89 45 e0	 mov	 DWORD PTR __Result$[ebp+8], eax

; 1711 :                 _Trynode                 = _Trynode->_Left;

  0008f	8b 45 fc	 mov	 eax, DWORD PTR __Trynode$[ebp]
  00092	8b 00		 mov	 eax, DWORD PTR [eax]
  00094	89 45 fc	 mov	 DWORD PTR __Trynode$[ebp], eax
$LN5@Find_lower:

; 1712 :             }
; 1713 :         }

  00097	eb 9b		 jmp	 SHORT $LN2@Find_lower
$LN3@Find_lower:

; 1714 : 
; 1715 :         return _Result;

  00099	8d 75 d8	 lea	 esi, DWORD PTR __Result$[ebp]
  0009c	8b 7d 08	 mov	 edi, DWORD PTR ___$ReturnUdt$[ebp]
  0009f	a5		 movsd
  000a0	a5		 movsd
  000a1	a5		 movsd
  000a2	8b 45 08	 mov	 eax, DWORD PTR ___$ReturnUdt$[ebp]

; 1716 :     }

  000a5	5f		 pop	 edi
  000a6	5e		 pop	 esi
  000a7	c9		 leave
  000a8	c2 08 00	 ret	 8
??$_Find_lower_bound@K@?$_Tree@V?$_Tmap_traits@KPAVCProperty@@U?$less@K@std@@V?$allocator@U?$pair@$$CBKPAVCProperty@@@std@@@3@$0A@@std@@@std@@IBE?AU?$_Tree_find_result@PAU?$_Tree_node@U?$pair@$$CBKPAVCProperty@@@std@@PAX@std@@@1@ABK@Z ENDP ; std::_Tree<std::_Tmap_traits<unsigned long,CProperty *,std::less<unsigned long>,std::allocator<std::pair<unsigned long const ,CProperty *> >,0> >::_Find_lower_bound<unsigned long>
_TEXT	ENDS
; Function compile flags: /Odspy
; File C:\Program Files (x86)\Microsoft Visual Studio\2019\Community\VC\Tools\MSVC\14.28.29333\include\xtree
; File C:\Program Files (x86)\Microsoft Visual Studio\2019\Community\VC\Tools\MSVC\14.28.29333\include\xmemory
; File C:\Program Files (x86)\Microsoft Visual Studio\2019\Community\VC\Tools\MSVC\14.28.29333\include\xtree
;	COMDAT ??$_Freenode0@V?$allocator@U?$_Tree_node@KPAX@std@@@std@@@?$_Tree_node@KPAX@std@@SAXAAV?$allocator@U?$_Tree_node@KPAX@std@@@1@PAU01@@Z
_TEXT	SEGMENT
__Al$ = 8						; size = 4
__Ptr$ = 12						; size = 4
??$_Freenode0@V?$allocator@U?$_Tree_node@KPAX@std@@@std@@@?$_Tree_node@KPAX@std@@SAXAAV?$allocator@U?$_Tree_node@KPAX@std@@@1@PAU01@@Z PROC ; std::_Tree_node<unsigned long,void *>::_Freenode0<std::allocator<std::_Tree_node<unsigned long,void *> > >, COMDAT

; 368  :     static void _Freenode0(_Alloc& _Al, _Nodeptr _Ptr) noexcept {

  00000	55		 push	 ebp
  00001	8b ec		 mov	 ebp, esp

; 369  :         static_assert(is_same_v<typename _Alloc::value_type, _Tree_node>, "Bad _Freenode0 call");
; 370  :         _Destroy_in_place(_Ptr->_Left);

  00003	ff 75 0c	 push	 DWORD PTR __Ptr$[ebp]
  00006	e8 00 00 00 00	 call	 ??$_Destroy_in_place@PAU?$_Tree_node@KPAX@std@@@std@@YAXAAPAU?$_Tree_node@KPAX@0@@Z ; std::_Destroy_in_place<std::_Tree_node<unsigned long,void *> *>
  0000b	59		 pop	 ecx

; 371  :         _Destroy_in_place(_Ptr->_Parent);

  0000c	8b 45 0c	 mov	 eax, DWORD PTR __Ptr$[ebp]
  0000f	83 c0 04	 add	 eax, 4
  00012	50		 push	 eax
  00013	e8 00 00 00 00	 call	 ??$_Destroy_in_place@PAU?$_Tree_node@KPAX@std@@@std@@YAXAAPAU?$_Tree_node@KPAX@0@@Z ; std::_Destroy_in_place<std::_Tree_node<unsigned long,void *> *>
  00018	59		 pop	 ecx

; 372  :         _Destroy_in_place(_Ptr->_Right);

  00019	8b 45 0c	 mov	 eax, DWORD PTR __Ptr$[ebp]
  0001c	83 c0 08	 add	 eax, 8
  0001f	50		 push	 eax
  00020	e8 00 00 00 00	 call	 ??$_Destroy_in_place@PAU?$_Tree_node@KPAX@std@@@std@@YAXAAPAU?$_Tree_node@KPAX@0@@Z ; std::_Destroy_in_place<std::_Tree_node<unsigned long,void *> *>
  00025	59		 pop	 ecx
; File C:\Program Files (x86)\Microsoft Visual Studio\2019\Community\VC\Tools\MSVC\14.28.29333\include\xmemory

; 696  :         _Deallocate<_New_alignof<value_type>>(_Ptr, sizeof(value_type) * _Count);

  00026	33 c0		 xor	 eax, eax
  00028	40		 inc	 eax
  00029	6b c0 14	 imul	 eax, eax, 20
  0002c	50		 push	 eax
  0002d	ff 75 0c	 push	 DWORD PTR __Ptr$[ebp]
  00030	e8 00 00 00 00	 call	 ??$_Deallocate@$07$0A@@std@@YAXPAXI@Z ; std::_Deallocate<8,0>
  00035	59		 pop	 ecx
  00036	59		 pop	 ecx
; File C:\Program Files (x86)\Microsoft Visual Studio\2019\Community\VC\Tools\MSVC\14.28.29333\include\xtree

; 374  :     }

  00037	5d		 pop	 ebp
  00038	c3		 ret	 0
??$_Freenode0@V?$allocator@U?$_Tree_node@KPAX@std@@@std@@@?$_Tree_node@KPAX@std@@SAXAAV?$allocator@U?$_Tree_node@KPAX@std@@@1@PAU01@@Z ENDP ; std::_Tree_node<unsigned long,void *>::_Freenode0<std::allocator<std::_Tree_node<unsigned long,void *> > >
_TEXT	ENDS
; Function compile flags: /Odspy
; File C:\Program Files (x86)\Microsoft Visual Studio\2019\Community\VC\Tools\MSVC\14.28.29333\include\xtree
; File C:\Program Files (x86)\Microsoft Visual Studio\2019\Community\VC\Tools\MSVC\14.28.29333\include\utility
; File C:\Program Files (x86)\Microsoft Visual Studio\2019\Community\VC\Tools\MSVC\14.28.29333\include\xtree
; File C:\Program Files (x86)\Microsoft Visual Studio\2019\Community\VC\Tools\MSVC\14.28.29333\include\xstddef
; File C:\Program Files (x86)\Microsoft Visual Studio\2019\Community\VC\Tools\MSVC\14.28.29333\include\xtree
;	COMDAT ??$_Erase_tree@V?$allocator@U?$_Tree_node@KPAX@std@@@std@@@?$_Tree_val@U?$_Tree_simple_types@K@std@@@std@@QAEXAAV?$allocator@U?$_Tree_node@KPAX@std@@@1@PAU?$_Tree_node@KPAX@1@@Z
_TEXT	SEGMENT
$T1 = -20						; size = 4
__Old_val$2 = -16					; size = 4
__New_val$ = -12					; size = 4
_this$ = -8						; size = 4
$T3 = -4						; size = 4
__Al$ = 8						; size = 4
__Rootnode$ = 12					; size = 4
??$_Erase_tree@V?$allocator@U?$_Tree_node@KPAX@std@@@std@@@?$_Tree_val@U?$_Tree_simple_types@K@std@@@std@@QAEXAAV?$allocator@U?$_Tree_node@KPAX@std@@@1@PAU?$_Tree_node@KPAX@1@@Z PROC ; std::_Tree_val<std::_Tree_simple_types<unsigned long> >::_Erase_tree<std::allocator<std::_Tree_node<unsigned long,void *> > >, COMDAT
; _this$ = ecx

; 742  :     void _Erase_tree(_Alnode& _Al, _Nodeptr _Rootnode) noexcept {

  00000	55		 push	 ebp
  00001	8b ec		 mov	 ebp, esp
  00003	83 ec 14	 sub	 esp, 20			; 00000014H
  00006	89 4d f8	 mov	 DWORD PTR _this$[ebp], ecx
$LN2@Erase_tree:

; 743  :         while (!_Rootnode->_Isnil) { // free subtrees, then node

  00009	8b 45 0c	 mov	 eax, DWORD PTR __Rootnode$[ebp]
  0000c	0f be 40 0d	 movsx	 eax, BYTE PTR [eax+13]
  00010	85 c0		 test	 eax, eax
  00012	75 43		 jne	 SHORT $LN4@Erase_tree

; 744  :             _Erase_tree(_Al, _Rootnode->_Right);

  00014	8b 45 0c	 mov	 eax, DWORD PTR __Rootnode$[ebp]
  00017	ff 70 08	 push	 DWORD PTR [eax+8]
  0001a	ff 75 08	 push	 DWORD PTR __Al$[ebp]
  0001d	8b 4d f8	 mov	 ecx, DWORD PTR _this$[ebp]
  00020	e8 00 00 00 00	 call	 ??$_Erase_tree@V?$allocator@U?$_Tree_node@KPAX@std@@@std@@@?$_Tree_val@U?$_Tree_simple_types@K@std@@@std@@QAEXAAV?$allocator@U?$_Tree_node@KPAX@std@@@1@PAU?$_Tree_node@KPAX@1@@Z ; std::_Tree_val<std::_Tree_simple_types<unsigned long> >::_Erase_tree<std::allocator<std::_Tree_node<unsigned long,void *> > >

; 745  :             _Alnode::value_type::_Freenode(_Al, _STD exchange(_Rootnode, _Rootnode->_Left));

  00025	8b 45 0c	 mov	 eax, DWORD PTR __Rootnode$[ebp]
  00028	89 45 f4	 mov	 DWORD PTR __New_val$[ebp], eax
; File C:\Program Files (x86)\Microsoft Visual Studio\2019\Community\VC\Tools\MSVC\14.28.29333\include\utility

; 598  :     _Ty _Old_val = static_cast<_Ty&&>(_Val);

  0002b	8b 45 0c	 mov	 eax, DWORD PTR __Rootnode$[ebp]
  0002e	89 45 f0	 mov	 DWORD PTR __Old_val$2[ebp], eax

; 599  :     _Val         = static_cast<_Other&&>(_New_val);

  00031	8b 45 f4	 mov	 eax, DWORD PTR __New_val$[ebp]
  00034	8b 00		 mov	 eax, DWORD PTR [eax]
  00036	89 45 0c	 mov	 DWORD PTR __Rootnode$[ebp], eax

; 600  :     return _Old_val;

  00039	8b 45 f0	 mov	 eax, DWORD PTR __Old_val$2[ebp]
  0003c	89 45 fc	 mov	 DWORD PTR $T3[ebp], eax
; File C:\Program Files (x86)\Microsoft Visual Studio\2019\Community\VC\Tools\MSVC\14.28.29333\include\xtree

; 379  :         allocator_traits<_Alloc>::destroy(_Al, _STD addressof(_Ptr->_Myval));

  0003f	8b 45 fc	 mov	 eax, DWORD PTR $T3[ebp]
  00042	83 c0 10	 add	 eax, 16			; 00000010H
; File C:\Program Files (x86)\Microsoft Visual Studio\2019\Community\VC\Tools\MSVC\14.28.29333\include\xstddef

; 275  :     return __builtin_addressof(_Val);

  00045	89 45 ec	 mov	 DWORD PTR $T1[ebp], eax
; File C:\Program Files (x86)\Microsoft Visual Studio\2019\Community\VC\Tools\MSVC\14.28.29333\include\xtree

; 380  :         _Freenode0(_Al, _Ptr);

  00048	ff 75 fc	 push	 DWORD PTR $T3[ebp]
  0004b	ff 75 08	 push	 DWORD PTR __Al$[ebp]
  0004e	e8 00 00 00 00	 call	 ??$_Freenode0@V?$allocator@U?$_Tree_node@KPAX@std@@@std@@@?$_Tree_node@KPAX@std@@SAXAAV?$allocator@U?$_Tree_node@KPAX@std@@@1@PAU01@@Z ; std::_Tree_node<unsigned long,void *>::_Freenode0<std::allocator<std::_Tree_node<unsigned long,void *> > >
  00053	59		 pop	 ecx
  00054	59		 pop	 ecx

; 746  :         }

  00055	eb b2		 jmp	 SHORT $LN2@Erase_tree
$LN4@Erase_tree:

; 747  :     }

  00057	c9		 leave
  00058	c2 08 00	 ret	 8
??$_Erase_tree@V?$allocator@U?$_Tree_node@KPAX@std@@@std@@@?$_Tree_val@U?$_Tree_simple_types@K@std@@@std@@QAEXAAV?$allocator@U?$_Tree_node@KPAX@std@@@1@PAU?$_Tree_node@KPAX@1@@Z ENDP ; std::_Tree_val<std::_Tree_simple_types<unsigned long> >::_Erase_tree<std::allocator<std::_Tree_node<unsigned long,void *> > >
_TEXT	ENDS
; Function compile flags: /Odspy
; File C:\Program Files (x86)\Microsoft Visual Studio\2019\Community\VC\Tools\MSVC\14.28.29333\include\xtree
; File C:\Program Files (x86)\Microsoft Visual Studio\2019\Community\VC\Tools\MSVC\14.28.29333\include\xstddef
; File C:\Program Files (x86)\Microsoft Visual Studio\2019\Community\VC\Tools\MSVC\14.28.29333\include\xtree
; File C:\Program Files (x86)\Microsoft Visual Studio\2019\Community\VC\Tools\MSVC\14.28.29333\include\xmemory
; File C:\Program Files (x86)\Microsoft Visual Studio\2019\Community\VC\Tools\MSVC\14.28.29333\include\xtree
; File C:\Program Files (x86)\Microsoft Visual Studio\2019\Community\VC\Tools\MSVC\14.28.29333\include\xstddef
; File C:\Program Files (x86)\Microsoft Visual Studio\2019\Community\VC\Tools\MSVC\14.28.29333\include\xtree
;	COMDAT ??$_Find_lower_bound@K@?$_Tree@V?$_Tset_traits@KU?$less@K@std@@V?$allocator@K@2@$0A@@std@@@std@@IBE?AU?$_Tree_find_result@PAU?$_Tree_node@KPAX@std@@@1@ABK@Z
_TEXT	SEGMENT
__Result$ = -40						; size = 12
$T1 = -28						; size = 4
$T2 = -24						; size = 4
$T3 = -20						; size = 4
tv65 = -16						; size = 4
_this$ = -12						; size = 4
__Scary$ = -8						; size = 4
__Trynode$ = -4						; size = 4
___$ReturnUdt$ = 8					; size = 4
__Keyval$ = 12						; size = 4
??$_Find_lower_bound@K@?$_Tree@V?$_Tset_traits@KU?$less@K@std@@V?$allocator@K@2@$0A@@std@@@std@@IBE?AU?$_Tree_find_result@PAU?$_Tree_node@KPAX@std@@@1@ABK@Z PROC ; std::_Tree<std::_Tset_traits<unsigned long,std::less<unsigned long>,std::allocator<unsigned long>,0> >::_Find_lower_bound<unsigned long>, COMDAT
; _this$ = ecx

; 1699 :     _Tree_find_result<_Nodeptr> _Find_lower_bound(const _Keyty& _Keyval) const {

  00000	55		 push	 ebp
  00001	8b ec		 mov	 ebp, esp
  00003	83 ec 28	 sub	 esp, 40			; 00000028H
  00006	56		 push	 esi
  00007	57		 push	 edi
  00008	89 4d f4	 mov	 DWORD PTR _this$[ebp], ecx

; 2051 :         return _STD addressof(_Mypair._Myval2._Myval2);

  0000b	8b 45 f4	 mov	 eax, DWORD PTR _this$[ebp]
; File C:\Program Files (x86)\Microsoft Visual Studio\2019\Community\VC\Tools\MSVC\14.28.29333\include\xstddef

; 275  :     return __builtin_addressof(_Val);

  0000e	89 45 ec	 mov	 DWORD PTR $T3[ebp], eax
; File C:\Program Files (x86)\Microsoft Visual Studio\2019\Community\VC\Tools\MSVC\14.28.29333\include\xtree

; 2051 :         return _STD addressof(_Mypair._Myval2._Myval2);

  00011	8b 45 ec	 mov	 eax, DWORD PTR $T3[ebp]
  00014	89 45 f8	 mov	 DWORD PTR __Scary$[ebp], eax

; 1700 :         const auto _Scary = _Get_scary();
; 1701 :         _Tree_find_result<_Nodeptr> _Result{{_Scary->_Myhead->_Parent, _Tree_child::_Right}, _Scary->_Myhead};

  00017	8b 45 f8	 mov	 eax, DWORD PTR __Scary$[ebp]
  0001a	8b 00		 mov	 eax, DWORD PTR [eax]
  0001c	8b 40 04	 mov	 eax, DWORD PTR [eax+4]
  0001f	89 45 d8	 mov	 DWORD PTR __Result$[ebp], eax
  00022	83 65 dc 00	 and	 DWORD PTR __Result$[ebp+4], 0
  00026	8b 45 f8	 mov	 eax, DWORD PTR __Scary$[ebp]
  00029	8b 00		 mov	 eax, DWORD PTR [eax]
  0002b	89 45 e0	 mov	 DWORD PTR __Result$[ebp+8], eax

; 1702 :         _Nodeptr _Trynode = _Result._Location._Parent;

  0002e	8b 45 d8	 mov	 eax, DWORD PTR __Result$[ebp]
  00031	89 45 fc	 mov	 DWORD PTR __Trynode$[ebp], eax
$LN2@Find_lower:

; 1703 :         while (!_Trynode->_Isnil) {

  00034	8b 45 fc	 mov	 eax, DWORD PTR __Trynode$[ebp]
  00037	0f be 40 0d	 movsx	 eax, BYTE PTR [eax+13]
  0003b	85 c0		 test	 eax, eax
  0003d	75 5a		 jne	 SHORT $LN3@Find_lower

; 1704 :             _Result._Location._Parent = _Trynode;

  0003f	8b 45 fc	 mov	 eax, DWORD PTR __Trynode$[ebp]
  00042	89 45 d8	 mov	 DWORD PTR __Result$[ebp], eax

; 2035 :         return _Mypair._Get_first();

  00045	8b 45 f4	 mov	 eax, DWORD PTR _this$[ebp]
; File C:\Program Files (x86)\Microsoft Visual Studio\2019\Community\VC\Tools\MSVC\14.28.29333\include\xmemory

; 1351 :         return *this;

  00048	89 45 e8	 mov	 DWORD PTR $T2[ebp], eax
; File C:\Program Files (x86)\Microsoft Visual Studio\2019\Community\VC\Tools\MSVC\14.28.29333\include\xtree

; 2035 :         return _Mypair._Get_first();

  0004b	8b 45 e8	 mov	 eax, DWORD PTR $T2[ebp]
  0004e	89 45 e4	 mov	 DWORD PTR $T1[ebp], eax
; File C:\Program Files (x86)\Microsoft Visual Studio\2019\Community\VC\Tools\MSVC\14.28.29333\include\xstddef

; 127  :         return _Left < _Right;

  00051	8b 45 fc	 mov	 eax, DWORD PTR __Trynode$[ebp]
  00054	8b 4d 0c	 mov	 ecx, DWORD PTR __Keyval$[ebp]
  00057	8b 40 10	 mov	 eax, DWORD PTR [eax+16]
  0005a	3b 01		 cmp	 eax, DWORD PTR [ecx]
  0005c	73 09		 jae	 SHORT $LN23@Find_lower
  0005e	c7 45 f0 01 00
	00 00		 mov	 DWORD PTR tv65[ebp], 1
  00065	eb 04		 jmp	 SHORT $LN21@Find_lower
$LN23@Find_lower:
  00067	83 65 f0 00	 and	 DWORD PTR tv65[ebp], 0
$LN21@Find_lower:
; File C:\Program Files (x86)\Microsoft Visual Studio\2019\Community\VC\Tools\MSVC\14.28.29333\include\xtree

; 1705 :             if (_DEBUG_LT_PRED(_Getcomp(), _Traits::_Kfn(_Trynode->_Myval), _Keyval)) {

  0006b	0f b6 45 f0	 movzx	 eax, BYTE PTR tv65[ebp]
  0006f	85 c0		 test	 eax, eax
  00071	74 0f		 je	 SHORT $LN4@Find_lower

; 1706 :                 _Result._Location._Child = _Tree_child::_Right;

  00073	83 65 dc 00	 and	 DWORD PTR __Result$[ebp+4], 0

; 1707 :                 _Trynode                 = _Trynode->_Right;

  00077	8b 45 fc	 mov	 eax, DWORD PTR __Trynode$[ebp]
  0007a	8b 40 08	 mov	 eax, DWORD PTR [eax+8]
  0007d	89 45 fc	 mov	 DWORD PTR __Trynode$[ebp], eax

; 1708 :             } else {

  00080	eb 15		 jmp	 SHORT $LN5@Find_lower
$LN4@Find_lower:

; 1709 :                 _Result._Location._Child = _Tree_child::_Left;

  00082	c7 45 dc 01 00
	00 00		 mov	 DWORD PTR __Result$[ebp+4], 1

; 1710 :                 _Result._Bound           = _Trynode;

  00089	8b 45 fc	 mov	 eax, DWORD PTR __Trynode$[ebp]
  0008c	89 45 e0	 mov	 DWORD PTR __Result$[ebp+8], eax

; 1711 :                 _Trynode                 = _Trynode->_Left;

  0008f	8b 45 fc	 mov	 eax, DWORD PTR __Trynode$[ebp]
  00092	8b 00		 mov	 eax, DWORD PTR [eax]
  00094	89 45 fc	 mov	 DWORD PTR __Trynode$[ebp], eax
$LN5@Find_lower:

; 1712 :             }
; 1713 :         }

  00097	eb 9b		 jmp	 SHORT $LN2@Find_lower
$LN3@Find_lower:

; 1714 : 
; 1715 :         return _Result;

  00099	8d 75 d8	 lea	 esi, DWORD PTR __Result$[ebp]
  0009c	8b 7d 08	 mov	 edi, DWORD PTR ___$ReturnUdt$[ebp]
  0009f	a5		 movsd
  000a0	a5		 movsd
  000a1	a5		 movsd
  000a2	8b 45 08	 mov	 eax, DWORD PTR ___$ReturnUdt$[ebp]

; 1716 :     }

  000a5	5f		 pop	 edi
  000a6	5e		 pop	 esi
  000a7	c9		 leave
  000a8	c2 08 00	 ret	 8
??$_Find_lower_bound@K@?$_Tree@V?$_Tset_traits@KU?$less@K@std@@V?$allocator@K@2@$0A@@std@@@std@@IBE?AU?$_Tree_find_result@PAU?$_Tree_node@KPAX@std@@@1@ABK@Z ENDP ; std::_Tree<std::_Tset_traits<unsigned long,std::less<unsigned long>,std::allocator<unsigned long>,0> >::_Find_lower_bound<unsigned long>
_TEXT	ENDS
; Function compile flags: /Odspy
; File C:\Program Files (x86)\Microsoft Visual Studio\2019\Community\VC\Tools\MSVC\14.28.29333\include\xtree
; File C:\Program Files (x86)\Microsoft Visual Studio\2019\Community\VC\Tools\MSVC\14.28.29333\include\xstddef
; File C:\Program Files (x86)\Microsoft Visual Studio\2019\Community\VC\Tools\MSVC\14.28.29333\include\xtree
; File C:\Program Files (x86)\Microsoft Visual Studio\2019\Community\VC\Tools\MSVC\14.28.29333\include\xmemory
; File C:\Program Files (x86)\Microsoft Visual Studio\2019\Community\VC\Tools\MSVC\14.28.29333\include\xtree
; File C:\Program Files (x86)\Microsoft Visual Studio\2019\Community\VC\Tools\MSVC\14.28.29333\include\xmemory
; File C:\Program Files (x86)\Microsoft Visual Studio\2019\Community\VC\Tools\MSVC\14.28.29333\include\xtree
; File C:\Program Files (x86)\Microsoft Visual Studio\2019\Community\VC\Tools\MSVC\14.28.29333\include\xstddef
; File C:\Program Files (x86)\Microsoft Visual Studio\2019\Community\VC\Tools\MSVC\14.28.29333\include\xtree
; File C:\Program Files (x86)\Microsoft Visual Studio\2019\Community\VC\Tools\MSVC\14.28.29333\include\type_traits
; File C:\Program Files (x86)\Microsoft Visual Studio\2019\Community\VC\Tools\MSVC\14.28.29333\include\utility
; File C:\Program Files (x86)\Microsoft Visual Studio\2019\Community\VC\Tools\MSVC\14.28.29333\include\type_traits
; File C:\Program Files (x86)\Microsoft Visual Studio\2019\Community\VC\Tools\MSVC\14.28.29333\include\utility
; File C:\Program Files (x86)\Microsoft Visual Studio\2019\Community\VC\Tools\MSVC\14.28.29333\include\xtree
; File C:\Program Files (x86)\Microsoft Visual Studio\2019\Community\VC\Tools\MSVC\14.28.29333\include\type_traits
; File C:\Program Files (x86)\Microsoft Visual Studio\2019\Community\VC\Tools\MSVC\14.28.29333\include\xtree
; File C:\Program Files (x86)\Microsoft Visual Studio\2019\Community\VC\Tools\MSVC\14.28.29333\include\xmemory
; File C:\Program Files (x86)\Microsoft Visual Studio\2019\Community\VC\Tools\MSVC\14.28.29333\include\xtree
; File C:\Program Files (x86)\Microsoft Visual Studio\2019\Community\VC\Tools\MSVC\14.28.29333\include\xmemory
; File C:\Program Files (x86)\Microsoft Visual Studio\2019\Community\VC\Tools\MSVC\14.28.29333\include\utility
; File C:\Program Files (x86)\Microsoft Visual Studio\2019\Community\VC\Tools\MSVC\14.28.29333\include\xmemory
; File C:\Program Files (x86)\Microsoft Visual Studio\2019\Community\VC\Tools\MSVC\14.28.29333\include\xtree
; File C:\Program Files (x86)\Microsoft Visual Studio\2019\Community\VC\Tools\MSVC\14.28.29333\include\type_traits
; File C:\Program Files (x86)\Microsoft Visual Studio\2019\Community\VC\Tools\MSVC\14.28.29333\include\utility
; File C:\Program Files (x86)\Microsoft Visual Studio\2019\Community\VC\Tools\MSVC\14.28.29333\include\type_traits
; File C:\Program Files (x86)\Microsoft Visual Studio\2019\Community\VC\Tools\MSVC\14.28.29333\include\utility
; File C:\Program Files (x86)\Microsoft Visual Studio\2019\Community\VC\Tools\MSVC\14.28.29333\include\xtree
;	COMDAT ??$_Emplace@U?$pair@$$CBKPAVCProperty@@@std@@@?$_Tree@V?$_Tmap_traits@KPAVCProperty@@U?$less@K@std@@V?$allocator@U?$pair@$$CBKPAVCProperty@@@std@@@3@$0A@@std@@@std@@IAE?AU?$pair@PAU?$_Tree_node@U?$pair@$$CBKPAVCProperty@@@std@@PAX@std@@_N@1@$$QAU?$pair@$$CBKPAVCProperty@@@1@@Z
_TEXT	SEGMENT
$T1 = -128						; size = 12
$T2 = -116						; size = 8
$T3 = -108						; size = 4
__Loc$ = -104						; size = 12
$T4 = -92						; size = 4
$T5 = -88						; size = 4
$T6 = -84						; size = 4
__Inserted$ = -80					; size = 4
$T7 = -76						; size = 4
__Old_val$8 = -72					; size = 4
$T9 = -68						; size = 4
$T10 = -64						; size = 4
$T11 = -60						; size = 4
$T12 = -56						; size = 4
$T13 = -52						; size = 4
$T14 = -48						; size = 4
$T15 = -44						; size = 4
$T16 = -40						; size = 4
$T17 = -36						; size = 4
__Scary$ = -32						; size = 4
__Val$ = -28						; size = 4
tv147 = -24						; size = 4
tv167 = -20						; size = 4
__Bound$ = -16						; size = 4
__Keyval$18 = -12					; size = 4
_this$ = -8						; size = 4
$T19 = -2						; size = 1
$T20 = -1						; size = 1
___$ReturnUdt$ = 8					; size = 4
_<_Vals_0>$ = 12					; size = 4
??$_Emplace@U?$pair@$$CBKPAVCProperty@@@std@@@?$_Tree@V?$_Tmap_traits@KPAVCProperty@@U?$less@K@std@@V?$allocator@U?$pair@$$CBKPAVCProperty@@@std@@@3@$0A@@std@@@std@@IAE?AU?$pair@PAU?$_Tree_node@U?$pair@$$CBKPAVCProperty@@@std@@PAX@std@@_N@1@$$QAU?$pair@$$CBKPAVCProperty@@@1@@Z PROC ; std::_Tree<std::_Tmap_traits<unsigned long,CProperty *,std::less<unsigned long>,std::allocator<std::pair<unsigned long const ,CProperty *> >,0> >::_Emplace<std::pair<unsigned long const ,CProperty *> >, COMDAT
; _this$ = ecx

; 1002 :     pair<_Nodeptr, bool> _Emplace(_Valtys&&... _Vals) {

  00000	55		 push	 ebp
  00001	8b ec		 mov	 ebp, esp
  00003	81 ec 80 00 00
	00		 sub	 esp, 128		; 00000080H
  00009	56		 push	 esi
  0000a	57		 push	 edi
  0000b	89 4d f8	 mov	 DWORD PTR _this$[ebp], ecx

; 2047 :         return _STD addressof(_Mypair._Myval2._Myval2);

  0000e	8b 45 f8	 mov	 eax, DWORD PTR _this$[ebp]
; File C:\Program Files (x86)\Microsoft Visual Studio\2019\Community\VC\Tools\MSVC\14.28.29333\include\xstddef

; 275  :     return __builtin_addressof(_Val);

  00011	89 45 dc	 mov	 DWORD PTR $T17[ebp], eax
; File C:\Program Files (x86)\Microsoft Visual Studio\2019\Community\VC\Tools\MSVC\14.28.29333\include\xtree

; 2047 :         return _STD addressof(_Mypair._Myval2._Myval2);

  00014	8b 45 dc	 mov	 eax, DWORD PTR $T17[ebp]
  00017	89 45 e0	 mov	 DWORD PTR __Scary$[ebp], eax
; File C:\Program Files (x86)\Microsoft Visual Studio\2019\Community\VC\Tools\MSVC\14.28.29333\include\xmemory

; 2000 :         return _Val.first;

  0001a	8b 45 0c	 mov	 eax, DWORD PTR _<_Vals_0>$[ebp]
; File C:\Program Files (x86)\Microsoft Visual Studio\2019\Community\VC\Tools\MSVC\14.28.29333\include\xtree

; 1008 :             const auto& _Keyval = _In_place_key_extractor::_Extract(_Vals...);

  0001d	89 45 f4	 mov	 DWORD PTR __Keyval$18[ebp], eax

; 1009 :             _Loc                = _Find_lower_bound(_Keyval);

  00020	ff 75 f4	 push	 DWORD PTR __Keyval$18[ebp]
  00023	8d 45 80	 lea	 eax, DWORD PTR $T1[ebp]
  00026	50		 push	 eax
  00027	8b 4d f8	 mov	 ecx, DWORD PTR _this$[ebp]
  0002a	e8 00 00 00 00	 call	 ??$_Find_lower_bound@K@?$_Tree@V?$_Tmap_traits@KPAVCProperty@@U?$less@K@std@@V?$allocator@U?$pair@$$CBKPAVCProperty@@@std@@@3@$0A@@std@@@std@@IBE?AU?$_Tree_find_result@PAU?$_Tree_node@U?$pair@$$CBKPAVCProperty@@@std@@PAX@std@@@1@ABK@Z ; std::_Tree<std::_Tmap_traits<unsigned long,CProperty *,std::less<unsigned long>,std::allocator<std::pair<unsigned long const ,CProperty *> >,0> >::_Find_lower_bound<unsigned long>
  0002f	8b f0		 mov	 esi, eax
  00031	8d 7d 98	 lea	 edi, DWORD PTR __Loc$[ebp]
  00034	a5		 movsd
  00035	a5		 movsd
  00036	a5		 movsd

; 1010 :             if (_Lower_bound_duplicate(_Loc._Bound, _Keyval)) {

  00037	8b 45 a0	 mov	 eax, DWORD PTR __Loc$[ebp+8]
  0003a	89 45 f0	 mov	 DWORD PTR __Bound$[ebp], eax

; 1695 :         return !_Bound->_Isnil && !_DEBUG_LT_PRED(_Getcomp(), _Keyval, _Traits::_Kfn(_Bound->_Myval));

  0003d	8b 45 f0	 mov	 eax, DWORD PTR __Bound$[ebp]
  00040	0f be 40 0d	 movsx	 eax, BYTE PTR [eax+13]
  00044	85 c0		 test	 eax, eax
  00046	75 37		 jne	 SHORT $LN39@Emplace

; 2035 :         return _Mypair._Get_first();

  00048	8b 45 f8	 mov	 eax, DWORD PTR _this$[ebp]
; File C:\Program Files (x86)\Microsoft Visual Studio\2019\Community\VC\Tools\MSVC\14.28.29333\include\xmemory

; 1351 :         return *this;

  0004b	89 45 d8	 mov	 DWORD PTR $T16[ebp], eax
; File C:\Program Files (x86)\Microsoft Visual Studio\2019\Community\VC\Tools\MSVC\14.28.29333\include\xtree

; 2035 :         return _Mypair._Get_first();

  0004e	8b 45 d8	 mov	 eax, DWORD PTR $T16[ebp]
  00051	89 45 94	 mov	 DWORD PTR $T3[ebp], eax
; File C:\Program Files (x86)\Microsoft Visual Studio\2019\Community\VC\Tools\MSVC\14.28.29333\include\xstddef

; 127  :         return _Left < _Right;

  00054	8b 45 f4	 mov	 eax, DWORD PTR __Keyval$18[ebp]
  00057	8b 4d f0	 mov	 ecx, DWORD PTR __Bound$[ebp]
  0005a	8b 00		 mov	 eax, DWORD PTR [eax]
  0005c	3b 41 10	 cmp	 eax, DWORD PTR [ecx+16]
  0005f	73 09		 jae	 SHORT $LN51@Emplace
  00061	c7 45 ec 01 00
	00 00		 mov	 DWORD PTR tv167[ebp], 1
  00068	eb 04		 jmp	 SHORT $LN49@Emplace
$LN51@Emplace:
  0006a	83 65 ec 00	 and	 DWORD PTR tv167[ebp], 0
$LN49@Emplace:
; File C:\Program Files (x86)\Microsoft Visual Studio\2019\Community\VC\Tools\MSVC\14.28.29333\include\xtree

; 1695 :         return !_Bound->_Isnil && !_DEBUG_LT_PRED(_Getcomp(), _Keyval, _Traits::_Kfn(_Bound->_Myval));

  0006e	0f b6 45 ec	 movzx	 eax, BYTE PTR tv167[ebp]
  00072	85 c0		 test	 eax, eax
  00074	75 09		 jne	 SHORT $LN39@Emplace
  00076	c7 45 e8 01 00
	00 00		 mov	 DWORD PTR tv147[ebp], 1
  0007d	eb 04		 jmp	 SHORT $LN37@Emplace
$LN39@Emplace:
  0007f	83 65 e8 00	 and	 DWORD PTR tv147[ebp], 0
$LN37@Emplace:

; 1010 :             if (_Lower_bound_duplicate(_Loc._Bound, _Keyval)) {

  00083	0f b6 45 e8	 movzx	 eax, BYTE PTR tv147[ebp]
  00087	85 c0		 test	 eax, eax
  00089	74 2d		 je	 SHORT $LN2@Emplace

; 1011 :                 return {_Loc._Bound, false};

  0008b	c6 45 ff 00	 mov	 BYTE PTR $T20[ebp], 0
; File C:\Program Files (x86)\Microsoft Visual Studio\2019\Community\VC\Tools\MSVC\14.28.29333\include\type_traits

; 1443 :     return static_cast<_Ty&&>(_Arg);

  0008f	8d 45 a0	 lea	 eax, DWORD PTR __Loc$[ebp+8]
  00092	89 45 d4	 mov	 DWORD PTR $T15[ebp], eax
; File C:\Program Files (x86)\Microsoft Visual Studio\2019\Community\VC\Tools\MSVC\14.28.29333\include\utility

; 190  :         : first(_STD forward<_Other1>(_Val1)), second(_STD forward<_Other2>(_Val2)) {}

  00095	8b 45 08	 mov	 eax, DWORD PTR ___$ReturnUdt$[ebp]
  00098	8b 4d d4	 mov	 ecx, DWORD PTR $T15[ebp]
  0009b	8b 09		 mov	 ecx, DWORD PTR [ecx]
  0009d	89 08		 mov	 DWORD PTR [eax], ecx
; File C:\Program Files (x86)\Microsoft Visual Studio\2019\Community\VC\Tools\MSVC\14.28.29333\include\type_traits

; 1443 :     return static_cast<_Ty&&>(_Arg);

  0009f	8d 45 ff	 lea	 eax, DWORD PTR $T20[ebp]
  000a2	89 45 d0	 mov	 DWORD PTR $T14[ebp], eax
; File C:\Program Files (x86)\Microsoft Visual Studio\2019\Community\VC\Tools\MSVC\14.28.29333\include\utility

; 190  :         : first(_STD forward<_Other1>(_Val1)), second(_STD forward<_Other2>(_Val2)) {}

  000a5	8b 45 08	 mov	 eax, DWORD PTR ___$ReturnUdt$[ebp]
  000a8	8b 4d d0	 mov	 ecx, DWORD PTR $T14[ebp]
  000ab	8a 09		 mov	 cl, BYTE PTR [ecx]
  000ad	88 48 04	 mov	 BYTE PTR [eax+4], cl
; File C:\Program Files (x86)\Microsoft Visual Studio\2019\Community\VC\Tools\MSVC\14.28.29333\include\xtree

; 1011 :                 return {_Loc._Bound, false};

  000b0	8b 45 08	 mov	 eax, DWORD PTR ___$ReturnUdt$[ebp]
  000b3	e9 9d 00 00 00	 jmp	 $LN1@Emplace
$LN2@Emplace:

; 1012 :             }
; 1013 : 
; 1014 :             _Check_grow_by_1();

  000b8	8b 4d f8	 mov	 ecx, DWORD PTR _this$[ebp]
  000bb	e8 00 00 00 00	 call	 ?_Check_grow_by_1@?$_Tree@V?$_Tmap_traits@KPAVCProperty@@U?$less@K@std@@V?$allocator@U?$pair@$$CBKPAVCProperty@@@std@@@3@$0A@@std@@@std@@IAEXXZ ; std::_Tree<std::_Tmap_traits<unsigned long,CProperty *,std::less<unsigned long>,std::allocator<std::pair<unsigned long const ,CProperty *> >,0> >::_Check_grow_by_1
; File C:\Program Files (x86)\Microsoft Visual Studio\2019\Community\VC\Tools\MSVC\14.28.29333\include\type_traits

; 1443 :     return static_cast<_Ty&&>(_Arg);

  000c0	8b 45 0c	 mov	 eax, DWORD PTR _<_Vals_0>$[ebp]
  000c3	89 45 c8	 mov	 DWORD PTR $T12[ebp], eax
; File C:\Program Files (x86)\Microsoft Visual Studio\2019\Community\VC\Tools\MSVC\14.28.29333\include\xtree

; 2039 :         return _Mypair._Myval2._Get_first();

  000c6	8b 45 f8	 mov	 eax, DWORD PTR _this$[ebp]
; File C:\Program Files (x86)\Microsoft Visual Studio\2019\Community\VC\Tools\MSVC\14.28.29333\include\xmemory

; 1347 :         return *this;

  000c9	89 45 cc	 mov	 DWORD PTR $T13[ebp], eax
; File C:\Program Files (x86)\Microsoft Visual Studio\2019\Community\VC\Tools\MSVC\14.28.29333\include\xtree

; 2039 :         return _Mypair._Myval2._Get_first();

  000cc	8b 45 cc	 mov	 eax, DWORD PTR $T13[ebp]
  000cf	89 45 c4	 mov	 DWORD PTR $T11[ebp], eax

; 1015 :             _Inserted = _Tree_temp_node<_Alnode>(_Getal(), _Scary->_Myhead, _STD forward<_Valtys>(_Vals)...)._Release();

  000d2	ff 75 c8	 push	 DWORD PTR $T12[ebp]
  000d5	8b 45 e0	 mov	 eax, DWORD PTR __Scary$[ebp]
  000d8	ff 30		 push	 DWORD PTR [eax]
  000da	ff 75 c4	 push	 DWORD PTR $T11[ebp]
  000dd	8d 4d 8c	 lea	 ecx, DWORD PTR $T2[ebp]
  000e0	e8 00 00 00 00	 call	 ??$?0U?$pair@$$CBKPAVCProperty@@@std@@@?$_Tree_temp_node@V?$allocator@U?$_Tree_node@U?$pair@$$CBKPAVCProperty@@@std@@PAX@std@@@std@@@std@@QAE@AAV?$allocator@U?$_Tree_node@U?$pair@$$CBKPAVCProperty@@@std@@PAX@std@@@1@PAU?$_Tree_node@U?$pair@$$CBKPAVCProperty@@@std@@PAX@1@$$QAU?$pair@$$CBKPAVCProperty@@@1@@Z ; std::_Tree_temp_node<std::allocator<std::_Tree_node<std::pair<unsigned long const ,CProperty *>,void *> > >::_Tree_temp_node<std::allocator<std::_Tree_node<std::pair<unsigned long const ,CProperty *>,void *> > ><std::pair<unsigned long const ,CProperty *> >
  000e5	89 45 c0	 mov	 DWORD PTR $T10[ebp], eax
; File C:\Program Files (x86)\Microsoft Visual Studio\2019\Community\VC\Tools\MSVC\14.28.29333\include\xmemory

; 1048 :         return _STD exchange(_Ptr, nullptr);

  000e8	83 65 bc 00	 and	 DWORD PTR $T9[ebp], 0
  000ec	8b 45 c0	 mov	 eax, DWORD PTR $T10[ebp]
  000ef	83 c0 04	 add	 eax, 4
  000f2	89 45 e4	 mov	 DWORD PTR __Val$[ebp], eax
; File C:\Program Files (x86)\Microsoft Visual Studio\2019\Community\VC\Tools\MSVC\14.28.29333\include\utility

; 598  :     _Ty _Old_val = static_cast<_Ty&&>(_Val);

  000f5	8b 45 e4	 mov	 eax, DWORD PTR __Val$[ebp]
  000f8	8b 00		 mov	 eax, DWORD PTR [eax]
  000fa	89 45 b8	 mov	 DWORD PTR __Old_val$8[ebp], eax

; 599  :     _Val         = static_cast<_Other&&>(_New_val);

  000fd	8b 45 e4	 mov	 eax, DWORD PTR __Val$[ebp]
  00100	8b 4d bc	 mov	 ecx, DWORD PTR $T9[ebp]
  00103	89 08		 mov	 DWORD PTR [eax], ecx

; 600  :     return _Old_val;

  00105	8b 45 b8	 mov	 eax, DWORD PTR __Old_val$8[ebp]
  00108	89 45 b4	 mov	 DWORD PTR $T7[ebp], eax
; File C:\Program Files (x86)\Microsoft Visual Studio\2019\Community\VC\Tools\MSVC\14.28.29333\include\xmemory

; 1048 :         return _STD exchange(_Ptr, nullptr);

  0010b	8b 45 b4	 mov	 eax, DWORD PTR $T7[ebp]
  0010e	89 45 b0	 mov	 DWORD PTR __Inserted$[ebp], eax
; File C:\Program Files (x86)\Microsoft Visual Studio\2019\Community\VC\Tools\MSVC\14.28.29333\include\xtree

; 1015 :             _Inserted = _Tree_temp_node<_Alnode>(_Getal(), _Scary->_Myhead, _STD forward<_Valtys>(_Vals)...)._Release();

  00111	8d 4d 8c	 lea	 ecx, DWORD PTR $T2[ebp]
  00114	e8 00 00 00 00	 call	 ??1?$_Tree_temp_node@V?$allocator@U?$_Tree_node@U?$pair@$$CBKPAVCProperty@@@std@@PAX@std@@@std@@@std@@QAE@XZ ; std::_Tree_temp_node<std::allocator<std::_Tree_node<std::pair<unsigned long const ,CProperty *>,void *> > >::~_Tree_temp_node<std::allocator<std::_Tree_node<std::pair<unsigned long const ,CProperty *>,void *> > >

; 1034 :         return {_Scary->_Insert_node(_Loc._Location, _Inserted), true};

  00119	ff 75 b0	 push	 DWORD PTR __Inserted$[ebp]
  0011c	ff 75 9c	 push	 DWORD PTR __Loc$[ebp+4]
  0011f	ff 75 98	 push	 DWORD PTR __Loc$[ebp]
  00122	8b 4d e0	 mov	 ecx, DWORD PTR __Scary$[ebp]
  00125	e8 00 00 00 00	 call	 ?_Insert_node@?$_Tree_val@U?$_Tree_simple_types@U?$pair@$$CBKPAVCProperty@@@std@@@std@@@std@@QAEPAU?$_Tree_node@U?$pair@$$CBKPAVCProperty@@@std@@PAX@2@U?$_Tree_id@PAU?$_Tree_node@U?$pair@$$CBKPAVCProperty@@@std@@PAX@std@@@2@QAU32@@Z ; std::_Tree_val<std::_Tree_simple_types<std::pair<unsigned long const ,CProperty *> > >::_Insert_node
  0012a	89 45 ac	 mov	 DWORD PTR $T6[ebp], eax
  0012d	c6 45 fe 01	 mov	 BYTE PTR $T19[ebp], 1
; File C:\Program Files (x86)\Microsoft Visual Studio\2019\Community\VC\Tools\MSVC\14.28.29333\include\type_traits

; 1443 :     return static_cast<_Ty&&>(_Arg);

  00131	8d 45 ac	 lea	 eax, DWORD PTR $T6[ebp]
  00134	89 45 a8	 mov	 DWORD PTR $T5[ebp], eax
; File C:\Program Files (x86)\Microsoft Visual Studio\2019\Community\VC\Tools\MSVC\14.28.29333\include\utility

; 190  :         : first(_STD forward<_Other1>(_Val1)), second(_STD forward<_Other2>(_Val2)) {}

  00137	8b 45 08	 mov	 eax, DWORD PTR ___$ReturnUdt$[ebp]
  0013a	8b 4d a8	 mov	 ecx, DWORD PTR $T5[ebp]
  0013d	8b 09		 mov	 ecx, DWORD PTR [ecx]
  0013f	89 08		 mov	 DWORD PTR [eax], ecx
; File C:\Program Files (x86)\Microsoft Visual Studio\2019\Community\VC\Tools\MSVC\14.28.29333\include\type_traits

; 1443 :     return static_cast<_Ty&&>(_Arg);

  00141	8d 45 fe	 lea	 eax, DWORD PTR $T19[ebp]
  00144	89 45 a4	 mov	 DWORD PTR $T4[ebp], eax
; File C:\Program Files (x86)\Microsoft Visual Studio\2019\Community\VC\Tools\MSVC\14.28.29333\include\utility

; 190  :         : first(_STD forward<_Other1>(_Val1)), second(_STD forward<_Other2>(_Val2)) {}

  00147	8b 45 08	 mov	 eax, DWORD PTR ___$ReturnUdt$[ebp]
  0014a	8b 4d a4	 mov	 ecx, DWORD PTR $T4[ebp]
  0014d	8a 09		 mov	 cl, BYTE PTR [ecx]
  0014f	88 48 04	 mov	 BYTE PTR [eax+4], cl
; File C:\Program Files (x86)\Microsoft Visual Studio\2019\Community\VC\Tools\MSVC\14.28.29333\include\xtree

; 1034 :         return {_Scary->_Insert_node(_Loc._Location, _Inserted), true};

  00152	8b 45 08	 mov	 eax, DWORD PTR ___$ReturnUdt$[ebp]
$LN1@Emplace:

; 1035 :     }

  00155	5f		 pop	 edi
  00156	5e		 pop	 esi
  00157	c9		 leave
  00158	c2 08 00	 ret	 8
??$_Emplace@U?$pair@$$CBKPAVCProperty@@@std@@@?$_Tree@V?$_Tmap_traits@KPAVCProperty@@U?$less@K@std@@V?$allocator@U?$pair@$$CBKPAVCProperty@@@std@@@3@$0A@@std@@@std@@IAE?AU?$pair@PAU?$_Tree_node@U?$pair@$$CBKPAVCProperty@@@std@@PAX@std@@_N@1@$$QAU?$pair@$$CBKPAVCProperty@@@1@@Z ENDP ; std::_Tree<std::_Tmap_traits<unsigned long,CProperty *,std::less<unsigned long>,std::allocator<std::pair<unsigned long const ,CProperty *> >,0> >::_Emplace<std::pair<unsigned long const ,CProperty *> >
_TEXT	ENDS
; Function compile flags: /Odspy
; File C:\Program Files (x86)\Microsoft Visual Studio\2019\Community\VC\Tools\MSVC\14.28.29333\include\xtree
; File C:\Program Files (x86)\Microsoft Visual Studio\2019\Community\VC\Tools\MSVC\14.28.29333\include\xstddef
; File C:\Program Files (x86)\Microsoft Visual Studio\2019\Community\VC\Tools\MSVC\14.28.29333\include\xtree
; File C:\Program Files (x86)\Microsoft Visual Studio\2019\Community\VC\Tools\MSVC\14.28.29333\include\xmemory
; File C:\Program Files (x86)\Microsoft Visual Studio\2019\Community\VC\Tools\MSVC\14.28.29333\include\xtree
; File C:\Program Files (x86)\Microsoft Visual Studio\2019\Community\VC\Tools\MSVC\14.28.29333\include\xmemory
; File C:\Program Files (x86)\Microsoft Visual Studio\2019\Community\VC\Tools\MSVC\14.28.29333\include\xtree
; File C:\Program Files (x86)\Microsoft Visual Studio\2019\Community\VC\Tools\MSVC\14.28.29333\include\xstddef
; File C:\Program Files (x86)\Microsoft Visual Studio\2019\Community\VC\Tools\MSVC\14.28.29333\include\xtree
; File C:\Program Files (x86)\Microsoft Visual Studio\2019\Community\VC\Tools\MSVC\14.28.29333\include\type_traits
; File C:\Program Files (x86)\Microsoft Visual Studio\2019\Community\VC\Tools\MSVC\14.28.29333\include\utility
; File C:\Program Files (x86)\Microsoft Visual Studio\2019\Community\VC\Tools\MSVC\14.28.29333\include\type_traits
; File C:\Program Files (x86)\Microsoft Visual Studio\2019\Community\VC\Tools\MSVC\14.28.29333\include\utility
; File C:\Program Files (x86)\Microsoft Visual Studio\2019\Community\VC\Tools\MSVC\14.28.29333\include\xtree
; File C:\Program Files (x86)\Microsoft Visual Studio\2019\Community\VC\Tools\MSVC\14.28.29333\include\type_traits
; File C:\Program Files (x86)\Microsoft Visual Studio\2019\Community\VC\Tools\MSVC\14.28.29333\include\xtree
; File C:\Program Files (x86)\Microsoft Visual Studio\2019\Community\VC\Tools\MSVC\14.28.29333\include\xmemory
; File C:\Program Files (x86)\Microsoft Visual Studio\2019\Community\VC\Tools\MSVC\14.28.29333\include\xtree
; File C:\Program Files (x86)\Microsoft Visual Studio\2019\Community\VC\Tools\MSVC\14.28.29333\include\xmemory
; File C:\Program Files (x86)\Microsoft Visual Studio\2019\Community\VC\Tools\MSVC\14.28.29333\include\utility
; File C:\Program Files (x86)\Microsoft Visual Studio\2019\Community\VC\Tools\MSVC\14.28.29333\include\xmemory
; File C:\Program Files (x86)\Microsoft Visual Studio\2019\Community\VC\Tools\MSVC\14.28.29333\include\xtree
; File C:\Program Files (x86)\Microsoft Visual Studio\2019\Community\VC\Tools\MSVC\14.28.29333\include\type_traits
; File C:\Program Files (x86)\Microsoft Visual Studio\2019\Community\VC\Tools\MSVC\14.28.29333\include\utility
; File C:\Program Files (x86)\Microsoft Visual Studio\2019\Community\VC\Tools\MSVC\14.28.29333\include\type_traits
; File C:\Program Files (x86)\Microsoft Visual Studio\2019\Community\VC\Tools\MSVC\14.28.29333\include\utility
; File C:\Program Files (x86)\Microsoft Visual Studio\2019\Community\VC\Tools\MSVC\14.28.29333\include\xtree
;	COMDAT ??$_Emplace@ABK@?$_Tree@V?$_Tset_traits@KU?$less@K@std@@V?$allocator@K@2@$0A@@std@@@std@@IAE?AU?$pair@PAU?$_Tree_node@KPAX@std@@_N@1@ABK@Z
_TEXT	SEGMENT
$T1 = -128						; size = 12
$T2 = -116						; size = 8
$T3 = -108						; size = 4
__Loc$ = -104						; size = 12
$T4 = -92						; size = 4
$T5 = -88						; size = 4
$T6 = -84						; size = 4
__Inserted$ = -80					; size = 4
$T7 = -76						; size = 4
__Old_val$8 = -72					; size = 4
$T9 = -68						; size = 4
$T10 = -64						; size = 4
$T11 = -60						; size = 4
$T12 = -56						; size = 4
$T13 = -52						; size = 4
$T14 = -48						; size = 4
$T15 = -44						; size = 4
$T16 = -40						; size = 4
$T17 = -36						; size = 4
__Scary$ = -32						; size = 4
__Val$ = -28						; size = 4
tv65 = -24						; size = 4
tv165 = -20						; size = 4
__Bound$ = -16						; size = 4
__Keyval$18 = -12					; size = 4
_this$ = -8						; size = 4
$T19 = -2						; size = 1
$T20 = -1						; size = 1
___$ReturnUdt$ = 8					; size = 4
_<_Vals_0>$ = 12					; size = 4
??$_Emplace@ABK@?$_Tree@V?$_Tset_traits@KU?$less@K@std@@V?$allocator@K@2@$0A@@std@@@std@@IAE?AU?$pair@PAU?$_Tree_node@KPAX@std@@_N@1@ABK@Z PROC ; std::_Tree<std::_Tset_traits<unsigned long,std::less<unsigned long>,std::allocator<unsigned long>,0> >::_Emplace<unsigned long const &>, COMDAT
; _this$ = ecx

; 1002 :     pair<_Nodeptr, bool> _Emplace(_Valtys&&... _Vals) {

  00000	55		 push	 ebp
  00001	8b ec		 mov	 ebp, esp
  00003	81 ec 80 00 00
	00		 sub	 esp, 128		; 00000080H
  00009	56		 push	 esi
  0000a	57		 push	 edi
  0000b	89 4d f8	 mov	 DWORD PTR _this$[ebp], ecx

; 2047 :         return _STD addressof(_Mypair._Myval2._Myval2);

  0000e	8b 45 f8	 mov	 eax, DWORD PTR _this$[ebp]
; File C:\Program Files (x86)\Microsoft Visual Studio\2019\Community\VC\Tools\MSVC\14.28.29333\include\xstddef

; 275  :     return __builtin_addressof(_Val);

  00011	89 45 dc	 mov	 DWORD PTR $T17[ebp], eax
; File C:\Program Files (x86)\Microsoft Visual Studio\2019\Community\VC\Tools\MSVC\14.28.29333\include\xtree

; 2047 :         return _STD addressof(_Mypair._Myval2._Myval2);

  00014	8b 45 dc	 mov	 eax, DWORD PTR $T17[ebp]
  00017	89 45 e0	 mov	 DWORD PTR __Scary$[ebp], eax
; File C:\Program Files (x86)\Microsoft Visual Studio\2019\Community\VC\Tools\MSVC\14.28.29333\include\xmemory

; 1974 :         return _Val;

  0001a	8b 45 0c	 mov	 eax, DWORD PTR _<_Vals_0>$[ebp]
  0001d	89 45 f4	 mov	 DWORD PTR __Keyval$18[ebp], eax
; File C:\Program Files (x86)\Microsoft Visual Studio\2019\Community\VC\Tools\MSVC\14.28.29333\include\xtree

; 1009 :             _Loc                = _Find_lower_bound(_Keyval);

  00020	ff 75 f4	 push	 DWORD PTR __Keyval$18[ebp]
  00023	8d 45 80	 lea	 eax, DWORD PTR $T1[ebp]
  00026	50		 push	 eax
  00027	8b 4d f8	 mov	 ecx, DWORD PTR _this$[ebp]
  0002a	e8 00 00 00 00	 call	 ??$_Find_lower_bound@K@?$_Tree@V?$_Tset_traits@KU?$less@K@std@@V?$allocator@K@2@$0A@@std@@@std@@IBE?AU?$_Tree_find_result@PAU?$_Tree_node@KPAX@std@@@1@ABK@Z ; std::_Tree<std::_Tset_traits<unsigned long,std::less<unsigned long>,std::allocator<unsigned long>,0> >::_Find_lower_bound<unsigned long>
  0002f	8b f0		 mov	 esi, eax
  00031	8d 7d 98	 lea	 edi, DWORD PTR __Loc$[ebp]
  00034	a5		 movsd
  00035	a5		 movsd
  00036	a5		 movsd

; 1010 :             if (_Lower_bound_duplicate(_Loc._Bound, _Keyval)) {

  00037	8b 45 a0	 mov	 eax, DWORD PTR __Loc$[ebp+8]
  0003a	89 45 f0	 mov	 DWORD PTR __Bound$[ebp], eax

; 1695 :         return !_Bound->_Isnil && !_DEBUG_LT_PRED(_Getcomp(), _Keyval, _Traits::_Kfn(_Bound->_Myval));

  0003d	8b 45 f0	 mov	 eax, DWORD PTR __Bound$[ebp]
  00040	0f be 40 0d	 movsx	 eax, BYTE PTR [eax+13]
  00044	85 c0		 test	 eax, eax
  00046	75 37		 jne	 SHORT $LN40@Emplace

; 2035 :         return _Mypair._Get_first();

  00048	8b 45 f8	 mov	 eax, DWORD PTR _this$[ebp]
; File C:\Program Files (x86)\Microsoft Visual Studio\2019\Community\VC\Tools\MSVC\14.28.29333\include\xmemory

; 1351 :         return *this;

  0004b	89 45 d8	 mov	 DWORD PTR $T16[ebp], eax
; File C:\Program Files (x86)\Microsoft Visual Studio\2019\Community\VC\Tools\MSVC\14.28.29333\include\xtree

; 2035 :         return _Mypair._Get_first();

  0004e	8b 45 d8	 mov	 eax, DWORD PTR $T16[ebp]
  00051	89 45 94	 mov	 DWORD PTR $T3[ebp], eax
; File C:\Program Files (x86)\Microsoft Visual Studio\2019\Community\VC\Tools\MSVC\14.28.29333\include\xstddef

; 127  :         return _Left < _Right;

  00054	8b 45 f4	 mov	 eax, DWORD PTR __Keyval$18[ebp]
  00057	8b 4d f0	 mov	 ecx, DWORD PTR __Bound$[ebp]
  0005a	8b 00		 mov	 eax, DWORD PTR [eax]
  0005c	3b 41 10	 cmp	 eax, DWORD PTR [ecx+16]
  0005f	73 09		 jae	 SHORT $LN52@Emplace
  00061	c7 45 ec 01 00
	00 00		 mov	 DWORD PTR tv165[ebp], 1
  00068	eb 04		 jmp	 SHORT $LN50@Emplace
$LN52@Emplace:
  0006a	83 65 ec 00	 and	 DWORD PTR tv165[ebp], 0
$LN50@Emplace:
; File C:\Program Files (x86)\Microsoft Visual Studio\2019\Community\VC\Tools\MSVC\14.28.29333\include\xtree

; 1695 :         return !_Bound->_Isnil && !_DEBUG_LT_PRED(_Getcomp(), _Keyval, _Traits::_Kfn(_Bound->_Myval));

  0006e	0f b6 45 ec	 movzx	 eax, BYTE PTR tv165[ebp]
  00072	85 c0		 test	 eax, eax
  00074	75 09		 jne	 SHORT $LN40@Emplace
  00076	c7 45 e8 01 00
	00 00		 mov	 DWORD PTR tv65[ebp], 1
  0007d	eb 04		 jmp	 SHORT $LN38@Emplace
$LN40@Emplace:
  0007f	83 65 e8 00	 and	 DWORD PTR tv65[ebp], 0
$LN38@Emplace:

; 1010 :             if (_Lower_bound_duplicate(_Loc._Bound, _Keyval)) {

  00083	0f b6 45 e8	 movzx	 eax, BYTE PTR tv65[ebp]
  00087	85 c0		 test	 eax, eax
  00089	74 2d		 je	 SHORT $LN2@Emplace

; 1011 :                 return {_Loc._Bound, false};

  0008b	c6 45 ff 00	 mov	 BYTE PTR $T20[ebp], 0
; File C:\Program Files (x86)\Microsoft Visual Studio\2019\Community\VC\Tools\MSVC\14.28.29333\include\type_traits

; 1443 :     return static_cast<_Ty&&>(_Arg);

  0008f	8d 45 a0	 lea	 eax, DWORD PTR __Loc$[ebp+8]
  00092	89 45 d4	 mov	 DWORD PTR $T15[ebp], eax
; File C:\Program Files (x86)\Microsoft Visual Studio\2019\Community\VC\Tools\MSVC\14.28.29333\include\utility

; 190  :         : first(_STD forward<_Other1>(_Val1)), second(_STD forward<_Other2>(_Val2)) {}

  00095	8b 45 08	 mov	 eax, DWORD PTR ___$ReturnUdt$[ebp]
  00098	8b 4d d4	 mov	 ecx, DWORD PTR $T15[ebp]
  0009b	8b 09		 mov	 ecx, DWORD PTR [ecx]
  0009d	89 08		 mov	 DWORD PTR [eax], ecx
; File C:\Program Files (x86)\Microsoft Visual Studio\2019\Community\VC\Tools\MSVC\14.28.29333\include\type_traits

; 1443 :     return static_cast<_Ty&&>(_Arg);

  0009f	8d 45 ff	 lea	 eax, DWORD PTR $T20[ebp]
  000a2	89 45 d0	 mov	 DWORD PTR $T14[ebp], eax
; File C:\Program Files (x86)\Microsoft Visual Studio\2019\Community\VC\Tools\MSVC\14.28.29333\include\utility

; 190  :         : first(_STD forward<_Other1>(_Val1)), second(_STD forward<_Other2>(_Val2)) {}

  000a5	8b 45 08	 mov	 eax, DWORD PTR ___$ReturnUdt$[ebp]
  000a8	8b 4d d0	 mov	 ecx, DWORD PTR $T14[ebp]
  000ab	8a 09		 mov	 cl, BYTE PTR [ecx]
  000ad	88 48 04	 mov	 BYTE PTR [eax+4], cl
; File C:\Program Files (x86)\Microsoft Visual Studio\2019\Community\VC\Tools\MSVC\14.28.29333\include\xtree

; 1011 :                 return {_Loc._Bound, false};

  000b0	8b 45 08	 mov	 eax, DWORD PTR ___$ReturnUdt$[ebp]
  000b3	e9 9d 00 00 00	 jmp	 $LN1@Emplace
$LN2@Emplace:

; 1012 :             }
; 1013 : 
; 1014 :             _Check_grow_by_1();

  000b8	8b 4d f8	 mov	 ecx, DWORD PTR _this$[ebp]
  000bb	e8 00 00 00 00	 call	 ?_Check_grow_by_1@?$_Tree@V?$_Tset_traits@KU?$less@K@std@@V?$allocator@K@2@$0A@@std@@@std@@IAEXXZ ; std::_Tree<std::_Tset_traits<unsigned long,std::less<unsigned long>,std::allocator<unsigned long>,0> >::_Check_grow_by_1
; File C:\Program Files (x86)\Microsoft Visual Studio\2019\Community\VC\Tools\MSVC\14.28.29333\include\type_traits

; 1443 :     return static_cast<_Ty&&>(_Arg);

  000c0	8b 45 0c	 mov	 eax, DWORD PTR _<_Vals_0>$[ebp]
  000c3	89 45 c8	 mov	 DWORD PTR $T12[ebp], eax
; File C:\Program Files (x86)\Microsoft Visual Studio\2019\Community\VC\Tools\MSVC\14.28.29333\include\xtree

; 2039 :         return _Mypair._Myval2._Get_first();

  000c6	8b 45 f8	 mov	 eax, DWORD PTR _this$[ebp]
; File C:\Program Files (x86)\Microsoft Visual Studio\2019\Community\VC\Tools\MSVC\14.28.29333\include\xmemory

; 1347 :         return *this;

  000c9	89 45 cc	 mov	 DWORD PTR $T13[ebp], eax
; File C:\Program Files (x86)\Microsoft Visual Studio\2019\Community\VC\Tools\MSVC\14.28.29333\include\xtree

; 2039 :         return _Mypair._Myval2._Get_first();

  000cc	8b 45 cc	 mov	 eax, DWORD PTR $T13[ebp]
  000cf	89 45 c4	 mov	 DWORD PTR $T11[ebp], eax

; 1015 :             _Inserted = _Tree_temp_node<_Alnode>(_Getal(), _Scary->_Myhead, _STD forward<_Valtys>(_Vals)...)._Release();

  000d2	ff 75 c8	 push	 DWORD PTR $T12[ebp]
  000d5	8b 45 e0	 mov	 eax, DWORD PTR __Scary$[ebp]
  000d8	ff 30		 push	 DWORD PTR [eax]
  000da	ff 75 c4	 push	 DWORD PTR $T11[ebp]
  000dd	8d 4d 8c	 lea	 ecx, DWORD PTR $T2[ebp]
  000e0	e8 00 00 00 00	 call	 ??$?0ABK@?$_Tree_temp_node@V?$allocator@U?$_Tree_node@KPAX@std@@@std@@@std@@QAE@AAV?$allocator@U?$_Tree_node@KPAX@std@@@1@PAU?$_Tree_node@KPAX@1@ABK@Z ; std::_Tree_temp_node<std::allocator<std::_Tree_node<unsigned long,void *> > >::_Tree_temp_node<std::allocator<std::_Tree_node<unsigned long,void *> > ><unsigned long const &>
  000e5	89 45 c0	 mov	 DWORD PTR $T10[ebp], eax
; File C:\Program Files (x86)\Microsoft Visual Studio\2019\Community\VC\Tools\MSVC\14.28.29333\include\xmemory

; 1048 :         return _STD exchange(_Ptr, nullptr);

  000e8	83 65 bc 00	 and	 DWORD PTR $T9[ebp], 0
  000ec	8b 45 c0	 mov	 eax, DWORD PTR $T10[ebp]
  000ef	83 c0 04	 add	 eax, 4
  000f2	89 45 e4	 mov	 DWORD PTR __Val$[ebp], eax
; File C:\Program Files (x86)\Microsoft Visual Studio\2019\Community\VC\Tools\MSVC\14.28.29333\include\utility

; 598  :     _Ty _Old_val = static_cast<_Ty&&>(_Val);

  000f5	8b 45 e4	 mov	 eax, DWORD PTR __Val$[ebp]
  000f8	8b 00		 mov	 eax, DWORD PTR [eax]
  000fa	89 45 b8	 mov	 DWORD PTR __Old_val$8[ebp], eax

; 599  :     _Val         = static_cast<_Other&&>(_New_val);

  000fd	8b 45 e4	 mov	 eax, DWORD PTR __Val$[ebp]
  00100	8b 4d bc	 mov	 ecx, DWORD PTR $T9[ebp]
  00103	89 08		 mov	 DWORD PTR [eax], ecx

; 600  :     return _Old_val;

  00105	8b 45 b8	 mov	 eax, DWORD PTR __Old_val$8[ebp]
  00108	89 45 b4	 mov	 DWORD PTR $T7[ebp], eax
; File C:\Program Files (x86)\Microsoft Visual Studio\2019\Community\VC\Tools\MSVC\14.28.29333\include\xmemory

; 1048 :         return _STD exchange(_Ptr, nullptr);

  0010b	8b 45 b4	 mov	 eax, DWORD PTR $T7[ebp]
  0010e	89 45 b0	 mov	 DWORD PTR __Inserted$[ebp], eax
; File C:\Program Files (x86)\Microsoft Visual Studio\2019\Community\VC\Tools\MSVC\14.28.29333\include\xtree

; 1015 :             _Inserted = _Tree_temp_node<_Alnode>(_Getal(), _Scary->_Myhead, _STD forward<_Valtys>(_Vals)...)._Release();

  00111	8d 4d 8c	 lea	 ecx, DWORD PTR $T2[ebp]
  00114	e8 00 00 00 00	 call	 ??1?$_Tree_temp_node@V?$allocator@U?$_Tree_node@KPAX@std@@@std@@@std@@QAE@XZ ; std::_Tree_temp_node<std::allocator<std::_Tree_node<unsigned long,void *> > >::~_Tree_temp_node<std::allocator<std::_Tree_node<unsigned long,void *> > >

; 1034 :         return {_Scary->_Insert_node(_Loc._Location, _Inserted), true};

  00119	ff 75 b0	 push	 DWORD PTR __Inserted$[ebp]
  0011c	ff 75 9c	 push	 DWORD PTR __Loc$[ebp+4]
  0011f	ff 75 98	 push	 DWORD PTR __Loc$[ebp]
  00122	8b 4d e0	 mov	 ecx, DWORD PTR __Scary$[ebp]
  00125	e8 00 00 00 00	 call	 ?_Insert_node@?$_Tree_val@U?$_Tree_simple_types@K@std@@@std@@QAEPAU?$_Tree_node@KPAX@2@U?$_Tree_id@PAU?$_Tree_node@KPAX@std@@@2@QAU32@@Z ; std::_Tree_val<std::_Tree_simple_types<unsigned long> >::_Insert_node
  0012a	89 45 ac	 mov	 DWORD PTR $T6[ebp], eax
  0012d	c6 45 fe 01	 mov	 BYTE PTR $T19[ebp], 1
; File C:\Program Files (x86)\Microsoft Visual Studio\2019\Community\VC\Tools\MSVC\14.28.29333\include\type_traits

; 1443 :     return static_cast<_Ty&&>(_Arg);

  00131	8d 45 ac	 lea	 eax, DWORD PTR $T6[ebp]
  00134	89 45 a8	 mov	 DWORD PTR $T5[ebp], eax
; File C:\Program Files (x86)\Microsoft Visual Studio\2019\Community\VC\Tools\MSVC\14.28.29333\include\utility

; 190  :         : first(_STD forward<_Other1>(_Val1)), second(_STD forward<_Other2>(_Val2)) {}

  00137	8b 45 08	 mov	 eax, DWORD PTR ___$ReturnUdt$[ebp]
  0013a	8b 4d a8	 mov	 ecx, DWORD PTR $T5[ebp]
  0013d	8b 09		 mov	 ecx, DWORD PTR [ecx]
  0013f	89 08		 mov	 DWORD PTR [eax], ecx
; File C:\Program Files (x86)\Microsoft Visual Studio\2019\Community\VC\Tools\MSVC\14.28.29333\include\type_traits

; 1443 :     return static_cast<_Ty&&>(_Arg);

  00141	8d 45 fe	 lea	 eax, DWORD PTR $T19[ebp]
  00144	89 45 a4	 mov	 DWORD PTR $T4[ebp], eax
; File C:\Program Files (x86)\Microsoft Visual Studio\2019\Community\VC\Tools\MSVC\14.28.29333\include\utility

; 190  :         : first(_STD forward<_Other1>(_Val1)), second(_STD forward<_Other2>(_Val2)) {}

  00147	8b 45 08	 mov	 eax, DWORD PTR ___$ReturnUdt$[ebp]
  0014a	8b 4d a4	 mov	 ecx, DWORD PTR $T4[ebp]
  0014d	8a 09		 mov	 cl, BYTE PTR [ecx]
  0014f	88 48 04	 mov	 BYTE PTR [eax+4], cl
; File C:\Program Files (x86)\Microsoft Visual Studio\2019\Community\VC\Tools\MSVC\14.28.29333\include\xtree

; 1034 :         return {_Scary->_Insert_node(_Loc._Location, _Inserted), true};

  00152	8b 45 08	 mov	 eax, DWORD PTR ___$ReturnUdt$[ebp]
$LN1@Emplace:

; 1035 :     }

  00155	5f		 pop	 edi
  00156	5e		 pop	 esi
  00157	c9		 leave
  00158	c2 08 00	 ret	 8
??$_Emplace@ABK@?$_Tree@V?$_Tset_traits@KU?$less@K@std@@V?$allocator@K@2@$0A@@std@@@std@@IAE?AU?$pair@PAU?$_Tree_node@KPAX@std@@_N@1@ABK@Z ENDP ; std::_Tree<std::_Tset_traits<unsigned long,std::less<unsigned long>,std::allocator<unsigned long>,0> >::_Emplace<unsigned long const &>
_TEXT	ENDS
; Function compile flags: /Odspy
; File C:\Program Files (x86)\Microsoft Visual Studio\2019\Community\VC\Tools\MSVC\14.28.29333\include\xutility
; File C:\Program Files (x86)\Microsoft Visual Studio\2019\Community\VC\Tools\MSVC\14.28.29333\include\xstddef
; File C:\Program Files (x86)\Microsoft Visual Studio\2019\Community\VC\Tools\MSVC\14.28.29333\include\xutility
;	COMDAT ??$lower_bound@PBIIU?$less@X@std@@@std@@YAPBIPBIQBIABIU?$less@X@0@@Z
_TEXT	SEGMENT
$T1 = -36						; size = 4
__UMid$2 = -32						; size = 4
tv77 = -28						; size = 4
__Count2$3 = -24					; size = 4
__First$ = -20						; size = 4
__First$ = -16						; size = 4
__UFirst$ = -12						; size = 4
__Count$ = -8						; size = 4
$T4 = -1						; size = 1
__First$ = 8						; size = 4
__Last$ = 12						; size = 4
__Val$ = 16						; size = 4
__Pred$ = 20						; size = 1
??$lower_bound@PBIIU?$less@X@std@@@std@@YAPBIPBIQBIABIU?$less@X@0@@Z PROC ; std::lower_bound<unsigned int const *,unsigned int,std::less<void> >, COMDAT

; 5849 : _NODISCARD _CONSTEXPR20 _FwdIt lower_bound(_FwdIt _First, const _FwdIt _Last, const _Ty& _Val, _Pr _Pred) {

  00000	55		 push	 ebp
  00001	8b ec		 mov	 ebp, esp
  00003	83 ec 24	 sub	 esp, 36			; 00000024H

; 5850 :     // find first element not before _Val
; 5851 :     _Adl_verify_range(_First, _Last);
; 5852 :     auto _UFirst                = _Get_unwrapped(_First);

  00006	8b 45 08	 mov	 eax, DWORD PTR __First$[ebp]
  00009	89 45 f4	 mov	 DWORD PTR __UFirst$[ebp], eax

; 1303 :         return _It + 0;

  0000c	8b 45 0c	 mov	 eax, DWORD PTR __Last$[ebp]
  0000f	89 45 dc	 mov	 DWORD PTR $T1[ebp], eax

; 1794 :         return _Last - _First; // assume the iterator will do debug checking

  00012	8b 45 dc	 mov	 eax, DWORD PTR $T1[ebp]
  00015	2b 45 f4	 sub	 eax, DWORD PTR __UFirst$[ebp]
  00018	c1 f8 02	 sar	 eax, 2

; 5853 :     _Iter_diff_t<_FwdIt> _Count = _STD distance(_UFirst, _Get_unwrapped(_Last));

  0001b	89 45 f8	 mov	 DWORD PTR __Count$[ebp], eax
$LN2@lower_boun:

; 5854 : 
; 5855 :     while (0 < _Count) { // divide and conquer, find half that contains answer

  0001e	83 7d f8 00	 cmp	 DWORD PTR __Count$[ebp], 0
  00022	7e 75		 jle	 SHORT $LN3@lower_boun

; 5856 :         const _Iter_diff_t<_FwdIt> _Count2 = _Count / 2;

  00024	8b 45 f8	 mov	 eax, DWORD PTR __Count$[ebp]
  00027	99		 cdq
  00028	2b c2		 sub	 eax, edx
  0002a	d1 f8		 sar	 eax, 1
  0002c	89 45 e8	 mov	 DWORD PTR __Count2$3[ebp], eax

; 5857 :         const auto _UMid                   = _STD next(_UFirst, _Count2);

  0002f	8b 45 f4	 mov	 eax, DWORD PTR __UFirst$[ebp]
  00032	89 45 f0	 mov	 DWORD PTR __First$[ebp], eax

; 1714 :         _Where += _Off;

  00035	8b 45 e8	 mov	 eax, DWORD PTR __Count2$3[ebp]
  00038	8b 4d f0	 mov	 ecx, DWORD PTR __First$[ebp]
  0003b	8d 04 81	 lea	 eax, DWORD PTR [ecx+eax*4]
  0003e	89 45 f0	 mov	 DWORD PTR __First$[ebp], eax

; 5857 :         const auto _UMid                   = _STD next(_UFirst, _Count2);

  00041	8b 45 f0	 mov	 eax, DWORD PTR __First$[ebp]
  00044	89 45 e0	 mov	 DWORD PTR __UMid$2[ebp], eax
; File C:\Program Files (x86)\Microsoft Visual Studio\2019\Community\VC\Tools\MSVC\14.28.29333\include\xstddef

; 240  :         return static_cast<_Ty1&&>(_Left) < static_cast<_Ty2&&>(_Right);

  00047	8b 45 e0	 mov	 eax, DWORD PTR __UMid$2[ebp]
  0004a	8b 4d 10	 mov	 ecx, DWORD PTR __Val$[ebp]
  0004d	8b 00		 mov	 eax, DWORD PTR [eax]
  0004f	3b 01		 cmp	 eax, DWORD PTR [ecx]
  00051	73 09		 jae	 SHORT $LN21@lower_boun
  00053	c7 45 e4 01 00
	00 00		 mov	 DWORD PTR tv77[ebp], 1
  0005a	eb 04		 jmp	 SHORT $LN22@lower_boun
$LN21@lower_boun:
  0005c	83 65 e4 00	 and	 DWORD PTR tv77[ebp], 0
$LN22@lower_boun:
  00060	8a 45 e4	 mov	 al, BYTE PTR tv77[ebp]
  00063	88 45 ff	 mov	 BYTE PTR $T4[ebp], al
; File C:\Program Files (x86)\Microsoft Visual Studio\2019\Community\VC\Tools\MSVC\14.28.29333\include\xutility

; 5858 :         if (_Pred(*_UMid, _Val)) { // try top half

  00066	0f b6 45 ff	 movzx	 eax, BYTE PTR $T4[ebp]
  0006a	85 c0		 test	 eax, eax
  0006c	74 23		 je	 SHORT $LN4@lower_boun

; 5859 :             _UFirst = _Next_iter(_UMid);

  0006e	8b 45 e0	 mov	 eax, DWORD PTR __UMid$2[ebp]
  00071	89 45 ec	 mov	 DWORD PTR __First$[ebp], eax

; 1837 :     return ++_First;

  00074	8b 45 ec	 mov	 eax, DWORD PTR __First$[ebp]
  00077	83 c0 04	 add	 eax, 4
  0007a	89 45 ec	 mov	 DWORD PTR __First$[ebp], eax

; 5859 :             _UFirst = _Next_iter(_UMid);

  0007d	8b 45 ec	 mov	 eax, DWORD PTR __First$[ebp]
  00080	89 45 f4	 mov	 DWORD PTR __UFirst$[ebp], eax

; 5860 :             _Count -= _Count2 + 1;

  00083	8b 45 e8	 mov	 eax, DWORD PTR __Count2$3[ebp]
  00086	40		 inc	 eax
  00087	8b 4d f8	 mov	 ecx, DWORD PTR __Count$[ebp]
  0008a	2b c8		 sub	 ecx, eax
  0008c	89 4d f8	 mov	 DWORD PTR __Count$[ebp], ecx

; 5861 :         } else {

  0008f	eb 06		 jmp	 SHORT $LN5@lower_boun
$LN4@lower_boun:

; 5862 :             _Count = _Count2;

  00091	8b 45 e8	 mov	 eax, DWORD PTR __Count2$3[ebp]
  00094	89 45 f8	 mov	 DWORD PTR __Count$[ebp], eax
$LN5@lower_boun:

; 5863 :         }
; 5864 :     }

  00097	eb 85		 jmp	 SHORT $LN2@lower_boun
$LN3@lower_boun:

; 1492 :         _It = static_cast<_UIter&&>(_UIt);

  00099	8b 45 f4	 mov	 eax, DWORD PTR __UFirst$[ebp]
  0009c	89 45 08	 mov	 DWORD PTR __First$[ebp], eax

; 5865 : 
; 5866 :     _Seek_wrapped(_First, _UFirst);
; 5867 :     return _First;

  0009f	8b 45 08	 mov	 eax, DWORD PTR __First$[ebp]

; 5868 : }

  000a2	c9		 leave
  000a3	c3		 ret	 0
??$lower_bound@PBIIU?$less@X@std@@@std@@YAPBIPBIQBIABIU?$less@X@0@@Z ENDP ; std::lower_bound<unsigned int const *,unsigned int,std::less<void> >
_TEXT	ENDS
; Function compile flags: /Odspy
; File C:\Program Files (x86)\Microsoft Visual Studio\2019\Community\VC\Tools\MSVC\14.28.29333\include\xtree
; File C:\Program Files (x86)\Microsoft Visual Studio\2019\Community\VC\Tools\MSVC\14.28.29333\include\xmemory
; File C:\Program Files (x86)\Microsoft Visual Studio\2019\Community\VC\Tools\MSVC\14.28.29333\include\xtree
;	COMDAT ??$_Buyheadnode@V?$allocator@U?$_Tree_node@U?$pair@$$CBKPAVCProperty@@@std@@PAX@std@@@std@@@?$_Tree_node@U?$pair@$$CBKPAVCProperty@@@std@@PAX@std@@SAPAU01@AAV?$allocator@U?$_Tree_node@U?$pair@$$CBKPAVCProperty@@@std@@PAX@std@@@1@@Z
_TEXT	SEGMENT
__Max_possible$1 = -20					; size = 4
$T2 = -16						; size = 4
$T3 = -12						; size = 4
__Pnode$ = -8						; size = 4
__Overflow_is_possible$4 = -1				; size = 1
__Al$ = 8						; size = 4
??$_Buyheadnode@V?$allocator@U?$_Tree_node@U?$pair@$$CBKPAVCProperty@@@std@@PAX@std@@@std@@@?$_Tree_node@U?$pair@$$CBKPAVCProperty@@@std@@PAX@std@@SAPAU01@AAV?$allocator@U?$_Tree_node@U?$pair@$$CBKPAVCProperty@@@std@@PAX@std@@@1@@Z PROC ; std::_Tree_node<std::pair<unsigned long const ,CProperty *>,void *>::_Buyheadnode<std::allocator<std::_Tree_node<std::pair<unsigned long const ,CProperty *>,void *> > >, COMDAT

; 341  :     static _Nodeptr _Buyheadnode(_Alloc& _Al) {

  00000	55		 push	 ebp
  00001	8b ec		 mov	 ebp, esp
  00003	83 ec 14	 sub	 esp, 20			; 00000014H
; File C:\Program Files (x86)\Microsoft Visual Studio\2019\Community\VC\Tools\MSVC\14.28.29333\include\xmemory

; 56   :     constexpr bool _Overflow_is_possible = _Ty_size > 1;

  00006	c6 45 ff 01	 mov	 BYTE PTR __Overflow_is_possible$4[ebp], 1

; 57   : 
; 58   :     if _CONSTEXPR_IF (_Overflow_is_possible) {
; 59   :         constexpr size_t _Max_possible = static_cast<size_t>(-1) / _Ty_size;

  0000a	c7 45 ec aa aa
	aa 0a		 mov	 DWORD PTR __Max_possible$1[ebp], 178956970 ; 0aaaaaaaH

; 60   :         if (_Count > _Max_possible) {

  00011	33 c0		 xor	 eax, eax
  00013	40		 inc	 eax
  00014	3d aa aa aa 0a	 cmp	 eax, 178956970		; 0aaaaaaaH
  00019	76 05		 jbe	 SHORT $LN6@Buyheadnod

; 61   :             _Throw_bad_array_new_length(); // multiply overflow

  0001b	e8 00 00 00 00	 call	 ?_Throw_bad_array_new_length@std@@YAXXZ ; std::_Throw_bad_array_new_length
$LN6@Buyheadnod:

; 62   :         }
; 63   :     }
; 64   : 
; 65   :     return _Count * _Ty_size;

  00020	33 c0		 xor	 eax, eax
  00022	40		 inc	 eax
  00023	6b c0 18	 imul	 eax, eax, 24
  00026	89 45 f4	 mov	 DWORD PTR $T3[ebp], eax

; 814  :         return static_cast<_Ty*>(_Allocate<_New_alignof<_Ty>>(_Get_size_of_n<sizeof(_Ty)>(_Count)));

  00029	ff 75 f4	 push	 DWORD PTR $T3[ebp]
  0002c	e8 00 00 00 00	 call	 ??$_Allocate@$07U_Default_allocate_traits@std@@$0A@@std@@YAPAXI@Z ; std::_Allocate<8,std::_Default_allocate_traits,0>
  00031	59		 pop	 ecx
  00032	89 45 f0	 mov	 DWORD PTR $T2[ebp], eax
; File C:\Program Files (x86)\Microsoft Visual Studio\2019\Community\VC\Tools\MSVC\14.28.29333\include\xtree

; 343  :         const auto _Pnode = _Al.allocate(1);

  00035	8b 45 f0	 mov	 eax, DWORD PTR $T2[ebp]
  00038	89 45 f8	 mov	 DWORD PTR __Pnode$[ebp], eax

; 344  :         _Construct_in_place(_Pnode->_Left, _Pnode);

  0003b	8d 45 f8	 lea	 eax, DWORD PTR __Pnode$[ebp]
  0003e	50		 push	 eax
  0003f	ff 75 f8	 push	 DWORD PTR __Pnode$[ebp]
  00042	e8 00 00 00 00	 call	 ??$_Construct_in_place@PAU?$_Tree_node@U?$pair@$$CBKPAVCProperty@@@std@@PAX@std@@ABQAU12@@std@@YAXAAPAU?$_Tree_node@U?$pair@$$CBKPAVCProperty@@@std@@PAX@0@ABQAU10@@Z ; std::_Construct_in_place<std::_Tree_node<std::pair<unsigned long const ,CProperty *>,void *> *,std::_Tree_node<std::pair<unsigned long const ,CProperty *>,void *> * const &>
  00047	59		 pop	 ecx
  00048	59		 pop	 ecx

; 345  :         _Construct_in_place(_Pnode->_Parent, _Pnode);

  00049	8d 45 f8	 lea	 eax, DWORD PTR __Pnode$[ebp]
  0004c	50		 push	 eax
  0004d	8b 45 f8	 mov	 eax, DWORD PTR __Pnode$[ebp]
  00050	83 c0 04	 add	 eax, 4
  00053	50		 push	 eax
  00054	e8 00 00 00 00	 call	 ??$_Construct_in_place@PAU?$_Tree_node@U?$pair@$$CBKPAVCProperty@@@std@@PAX@std@@ABQAU12@@std@@YAXAAPAU?$_Tree_node@U?$pair@$$CBKPAVCProperty@@@std@@PAX@0@ABQAU10@@Z ; std::_Construct_in_place<std::_Tree_node<std::pair<unsigned long const ,CProperty *>,void *> *,std::_Tree_node<std::pair<unsigned long const ,CProperty *>,void *> * const &>
  00059	59		 pop	 ecx
  0005a	59		 pop	 ecx

; 346  :         _Construct_in_place(_Pnode->_Right, _Pnode);

  0005b	8d 45 f8	 lea	 eax, DWORD PTR __Pnode$[ebp]
  0005e	50		 push	 eax
  0005f	8b 45 f8	 mov	 eax, DWORD PTR __Pnode$[ebp]
  00062	83 c0 08	 add	 eax, 8
  00065	50		 push	 eax
  00066	e8 00 00 00 00	 call	 ??$_Construct_in_place@PAU?$_Tree_node@U?$pair@$$CBKPAVCProperty@@@std@@PAX@std@@ABQAU12@@std@@YAXAAPAU?$_Tree_node@U?$pair@$$CBKPAVCProperty@@@std@@PAX@0@ABQAU10@@Z ; std::_Construct_in_place<std::_Tree_node<std::pair<unsigned long const ,CProperty *>,void *> *,std::_Tree_node<std::pair<unsigned long const ,CProperty *>,void *> * const &>
  0006b	59		 pop	 ecx
  0006c	59		 pop	 ecx

; 347  :         _Pnode->_Color = _Black;

  0006d	8b 45 f8	 mov	 eax, DWORD PTR __Pnode$[ebp]
  00070	c6 40 0c 01	 mov	 BYTE PTR [eax+12], 1

; 348  :         _Pnode->_Isnil = true;

  00074	8b 45 f8	 mov	 eax, DWORD PTR __Pnode$[ebp]
  00077	c6 40 0d 01	 mov	 BYTE PTR [eax+13], 1

; 349  :         return _Pnode;

  0007b	8b 45 f8	 mov	 eax, DWORD PTR __Pnode$[ebp]
$LN9@Buyheadnod:

; 350  :     }

  0007e	c9		 leave
  0007f	c3		 ret	 0
??$_Buyheadnode@V?$allocator@U?$_Tree_node@U?$pair@$$CBKPAVCProperty@@@std@@PAX@std@@@std@@@?$_Tree_node@U?$pair@$$CBKPAVCProperty@@@std@@PAX@std@@SAPAU01@AAV?$allocator@U?$_Tree_node@U?$pair@$$CBKPAVCProperty@@@std@@PAX@std@@@1@@Z ENDP ; std::_Tree_node<std::pair<unsigned long const ,CProperty *>,void *>::_Buyheadnode<std::allocator<std::_Tree_node<std::pair<unsigned long const ,CProperty *>,void *> > >
_TEXT	ENDS
; Function compile flags: /Odspy
; File C:\Program Files (x86)\Microsoft Visual Studio\2019\Community\VC\Tools\MSVC\14.28.29333\include\xtree
; File C:\Program Files (x86)\Microsoft Visual Studio\2019\Community\VC\Tools\MSVC\14.28.29333\include\xmemory
; File C:\Program Files (x86)\Microsoft Visual Studio\2019\Community\VC\Tools\MSVC\14.28.29333\include\xtree
;	COMDAT ??$_Buyheadnode@V?$allocator@U?$_Tree_node@KPAX@std@@@std@@@?$_Tree_node@KPAX@std@@SAPAU01@AAV?$allocator@U?$_Tree_node@KPAX@std@@@1@@Z
_TEXT	SEGMENT
__Max_possible$1 = -20					; size = 4
$T2 = -16						; size = 4
$T3 = -12						; size = 4
__Pnode$ = -8						; size = 4
__Overflow_is_possible$4 = -1				; size = 1
__Al$ = 8						; size = 4
??$_Buyheadnode@V?$allocator@U?$_Tree_node@KPAX@std@@@std@@@?$_Tree_node@KPAX@std@@SAPAU01@AAV?$allocator@U?$_Tree_node@KPAX@std@@@1@@Z PROC ; std::_Tree_node<unsigned long,void *>::_Buyheadnode<std::allocator<std::_Tree_node<unsigned long,void *> > >, COMDAT

; 341  :     static _Nodeptr _Buyheadnode(_Alloc& _Al) {

  00000	55		 push	 ebp
  00001	8b ec		 mov	 ebp, esp
  00003	83 ec 14	 sub	 esp, 20			; 00000014H
; File C:\Program Files (x86)\Microsoft Visual Studio\2019\Community\VC\Tools\MSVC\14.28.29333\include\xmemory

; 56   :     constexpr bool _Overflow_is_possible = _Ty_size > 1;

  00006	c6 45 ff 01	 mov	 BYTE PTR __Overflow_is_possible$4[ebp], 1

; 57   : 
; 58   :     if _CONSTEXPR_IF (_Overflow_is_possible) {
; 59   :         constexpr size_t _Max_possible = static_cast<size_t>(-1) / _Ty_size;

  0000a	c7 45 ec cc cc
	cc 0c		 mov	 DWORD PTR __Max_possible$1[ebp], 214748364 ; 0cccccccH

; 60   :         if (_Count > _Max_possible) {

  00011	33 c0		 xor	 eax, eax
  00013	40		 inc	 eax
  00014	3d cc cc cc 0c	 cmp	 eax, 214748364		; 0cccccccH
  00019	76 05		 jbe	 SHORT $LN6@Buyheadnod

; 61   :             _Throw_bad_array_new_length(); // multiply overflow

  0001b	e8 00 00 00 00	 call	 ?_Throw_bad_array_new_length@std@@YAXXZ ; std::_Throw_bad_array_new_length
$LN6@Buyheadnod:

; 62   :         }
; 63   :     }
; 64   : 
; 65   :     return _Count * _Ty_size;

  00020	33 c0		 xor	 eax, eax
  00022	40		 inc	 eax
  00023	6b c0 14	 imul	 eax, eax, 20
  00026	89 45 f4	 mov	 DWORD PTR $T3[ebp], eax

; 814  :         return static_cast<_Ty*>(_Allocate<_New_alignof<_Ty>>(_Get_size_of_n<sizeof(_Ty)>(_Count)));

  00029	ff 75 f4	 push	 DWORD PTR $T3[ebp]
  0002c	e8 00 00 00 00	 call	 ??$_Allocate@$07U_Default_allocate_traits@std@@$0A@@std@@YAPAXI@Z ; std::_Allocate<8,std::_Default_allocate_traits,0>
  00031	59		 pop	 ecx
  00032	89 45 f0	 mov	 DWORD PTR $T2[ebp], eax
; File C:\Program Files (x86)\Microsoft Visual Studio\2019\Community\VC\Tools\MSVC\14.28.29333\include\xtree

; 343  :         const auto _Pnode = _Al.allocate(1);

  00035	8b 45 f0	 mov	 eax, DWORD PTR $T2[ebp]
  00038	89 45 f8	 mov	 DWORD PTR __Pnode$[ebp], eax

; 344  :         _Construct_in_place(_Pnode->_Left, _Pnode);

  0003b	8d 45 f8	 lea	 eax, DWORD PTR __Pnode$[ebp]
  0003e	50		 push	 eax
  0003f	ff 75 f8	 push	 DWORD PTR __Pnode$[ebp]
  00042	e8 00 00 00 00	 call	 ??$_Construct_in_place@PAU?$_Tree_node@KPAX@std@@ABQAU12@@std@@YAXAAPAU?$_Tree_node@KPAX@0@ABQAU10@@Z ; std::_Construct_in_place<std::_Tree_node<unsigned long,void *> *,std::_Tree_node<unsigned long,void *> * const &>
  00047	59		 pop	 ecx
  00048	59		 pop	 ecx

; 345  :         _Construct_in_place(_Pnode->_Parent, _Pnode);

  00049	8d 45 f8	 lea	 eax, DWORD PTR __Pnode$[ebp]
  0004c	50		 push	 eax
  0004d	8b 45 f8	 mov	 eax, DWORD PTR __Pnode$[ebp]
  00050	83 c0 04	 add	 eax, 4
  00053	50		 push	 eax
  00054	e8 00 00 00 00	 call	 ??$_Construct_in_place@PAU?$_Tree_node@KPAX@std@@ABQAU12@@std@@YAXAAPAU?$_Tree_node@KPAX@0@ABQAU10@@Z ; std::_Construct_in_place<std::_Tree_node<unsigned long,void *> *,std::_Tree_node<unsigned long,void *> * const &>
  00059	59		 pop	 ecx
  0005a	59		 pop	 ecx

; 346  :         _Construct_in_place(_Pnode->_Right, _Pnode);

  0005b	8d 45 f8	 lea	 eax, DWORD PTR __Pnode$[ebp]
  0005e	50		 push	 eax
  0005f	8b 45 f8	 mov	 eax, DWORD PTR __Pnode$[ebp]
  00062	83 c0 08	 add	 eax, 8
  00065	50		 push	 eax
  00066	e8 00 00 00 00	 call	 ??$_Construct_in_place@PAU?$_Tree_node@KPAX@std@@ABQAU12@@std@@YAXAAPAU?$_Tree_node@KPAX@0@ABQAU10@@Z ; std::_Construct_in_place<std::_Tree_node<unsigned long,void *> *,std::_Tree_node<unsigned long,void *> * const &>
  0006b	59		 pop	 ecx
  0006c	59		 pop	 ecx

; 347  :         _Pnode->_Color = _Black;

  0006d	8b 45 f8	 mov	 eax, DWORD PTR __Pnode$[ebp]
  00070	c6 40 0c 01	 mov	 BYTE PTR [eax+12], 1

; 348  :         _Pnode->_Isnil = true;

  00074	8b 45 f8	 mov	 eax, DWORD PTR __Pnode$[ebp]
  00077	c6 40 0d 01	 mov	 BYTE PTR [eax+13], 1

; 349  :         return _Pnode;

  0007b	8b 45 f8	 mov	 eax, DWORD PTR __Pnode$[ebp]
$LN9@Buyheadnod:

; 350  :     }

  0007e	c9		 leave
  0007f	c3		 ret	 0
??$_Buyheadnode@V?$allocator@U?$_Tree_node@KPAX@std@@@std@@@?$_Tree_node@KPAX@std@@SAPAU01@AAV?$allocator@U?$_Tree_node@KPAX@std@@@1@@Z ENDP ; std::_Tree_node<unsigned long,void *>::_Buyheadnode<std::allocator<std::_Tree_node<unsigned long,void *> > >
_TEXT	ENDS
; Function compile flags: /Odspy
; File C:\Program Files (x86)\Microsoft Visual Studio\2019\Community\VC\Tools\MSVC\14.28.29333\include\xtree
; File C:\Program Files (x86)\Microsoft Visual Studio\2019\Community\VC\Tools\MSVC\14.28.29333\include\xmemory
; File C:\Program Files (x86)\Microsoft Visual Studio\2019\Community\VC\Tools\MSVC\14.28.29333\include\xtree
; File C:\Program Files (x86)\Microsoft Visual Studio\2019\Community\VC\Tools\MSVC\14.28.29333\include\xstddef
; File C:\Program Files (x86)\Microsoft Visual Studio\2019\Community\VC\Tools\MSVC\14.28.29333\include\xtree
; File C:\Program Files (x86)\Microsoft Visual Studio\2019\Community\VC\Tools\MSVC\14.28.29333\include\xstddef
; File C:\Program Files (x86)\Microsoft Visual Studio\2019\Community\VC\Tools\MSVC\14.28.29333\include\xtree
;	COMDAT ??$_Find@K@?$_Tree@V?$_Tmap_traits@KPAVCProperty@@U?$less@K@std@@V?$allocator@U?$pair@$$CBKPAVCProperty@@@std@@@3@$0A@@std@@@std@@ABEPAU?$_Tree_node@U?$pair@$$CBKPAVCProperty@@@std@@PAX@1@ABK@Z
_TEXT	SEGMENT
__Loc$ = -44						; size = 12
$T1 = -32						; size = 4
$T2 = -28						; size = 4
$T3 = -24						; size = 4
$T4 = -20						; size = 4
tv79 = -16						; size = 4
tv131 = -12						; size = 4
__Bound$ = -8						; size = 4
_this$ = -4						; size = 4
__Keyval$ = 8						; size = 4
??$_Find@K@?$_Tree@V?$_Tmap_traits@KPAVCProperty@@U?$less@K@std@@V?$allocator@U?$pair@$$CBKPAVCProperty@@@std@@@3@$0A@@std@@@std@@ABEPAU?$_Tree_node@U?$pair@$$CBKPAVCProperty@@@std@@PAX@1@ABK@Z PROC ; std::_Tree<std::_Tmap_traits<unsigned long,CProperty *,std::less<unsigned long>,std::allocator<std::pair<unsigned long const ,CProperty *> >,0> >::_Find<unsigned long>, COMDAT
; _this$ = ecx

; 1457 :     _NODISCARD _Nodeptr _Find(const _Other& _Keyval) const {

  00000	55		 push	 ebp
  00001	8b ec		 mov	 ebp, esp
  00003	83 ec 2c	 sub	 esp, 44			; 0000002cH
  00006	89 4d fc	 mov	 DWORD PTR _this$[ebp], ecx

; 1458 :         const _Tree_find_result<_Nodeptr> _Loc = _Find_lower_bound(_Keyval);

  00009	ff 75 08	 push	 DWORD PTR __Keyval$[ebp]
  0000c	8d 45 d4	 lea	 eax, DWORD PTR __Loc$[ebp]
  0000f	50		 push	 eax
  00010	8b 4d fc	 mov	 ecx, DWORD PTR _this$[ebp]
  00013	e8 00 00 00 00	 call	 ??$_Find_lower_bound@K@?$_Tree@V?$_Tmap_traits@KPAVCProperty@@U?$less@K@std@@V?$allocator@U?$pair@$$CBKPAVCProperty@@@std@@@3@$0A@@std@@@std@@IBE?AU?$_Tree_find_result@PAU?$_Tree_node@U?$pair@$$CBKPAVCProperty@@@std@@PAX@std@@@1@ABK@Z ; std::_Tree<std::_Tmap_traits<unsigned long,CProperty *,std::less<unsigned long>,std::allocator<std::pair<unsigned long const ,CProperty *> >,0> >::_Find_lower_bound<unsigned long>

; 1459 :         if (_Lower_bound_duplicate(_Loc._Bound, _Keyval)) {

  00018	8b 45 dc	 mov	 eax, DWORD PTR __Loc$[ebp+8]
  0001b	89 45 f8	 mov	 DWORD PTR __Bound$[ebp], eax

; 1695 :         return !_Bound->_Isnil && !_DEBUG_LT_PRED(_Getcomp(), _Keyval, _Traits::_Kfn(_Bound->_Myval));

  0001e	8b 45 f8	 mov	 eax, DWORD PTR __Bound$[ebp]
  00021	0f be 40 0d	 movsx	 eax, BYTE PTR [eax+13]
  00025	85 c0		 test	 eax, eax
  00027	75 37		 jne	 SHORT $LN30@Find

; 2035 :         return _Mypair._Get_first();

  00029	8b 45 fc	 mov	 eax, DWORD PTR _this$[ebp]
; File C:\Program Files (x86)\Microsoft Visual Studio\2019\Community\VC\Tools\MSVC\14.28.29333\include\xmemory

; 1351 :         return *this;

  0002c	89 45 ec	 mov	 DWORD PTR $T4[ebp], eax
; File C:\Program Files (x86)\Microsoft Visual Studio\2019\Community\VC\Tools\MSVC\14.28.29333\include\xtree

; 2035 :         return _Mypair._Get_first();

  0002f	8b 45 ec	 mov	 eax, DWORD PTR $T4[ebp]
  00032	89 45 e0	 mov	 DWORD PTR $T1[ebp], eax
; File C:\Program Files (x86)\Microsoft Visual Studio\2019\Community\VC\Tools\MSVC\14.28.29333\include\xstddef

; 127  :         return _Left < _Right;

  00035	8b 45 08	 mov	 eax, DWORD PTR __Keyval$[ebp]
  00038	8b 4d f8	 mov	 ecx, DWORD PTR __Bound$[ebp]
  0003b	8b 00		 mov	 eax, DWORD PTR [eax]
  0003d	3b 41 10	 cmp	 eax, DWORD PTR [ecx+16]
  00040	73 09		 jae	 SHORT $LN42@Find
  00042	c7 45 f4 01 00
	00 00		 mov	 DWORD PTR tv131[ebp], 1
  00049	eb 04		 jmp	 SHORT $LN40@Find
$LN42@Find:
  0004b	83 65 f4 00	 and	 DWORD PTR tv131[ebp], 0
$LN40@Find:
; File C:\Program Files (x86)\Microsoft Visual Studio\2019\Community\VC\Tools\MSVC\14.28.29333\include\xtree

; 1695 :         return !_Bound->_Isnil && !_DEBUG_LT_PRED(_Getcomp(), _Keyval, _Traits::_Kfn(_Bound->_Myval));

  0004f	0f b6 45 f4	 movzx	 eax, BYTE PTR tv131[ebp]
  00053	85 c0		 test	 eax, eax
  00055	75 09		 jne	 SHORT $LN30@Find
  00057	c7 45 f0 01 00
	00 00		 mov	 DWORD PTR tv79[ebp], 1
  0005e	eb 04		 jmp	 SHORT $LN28@Find
$LN30@Find:
  00060	83 65 f0 00	 and	 DWORD PTR tv79[ebp], 0
$LN28@Find:

; 1459 :         if (_Lower_bound_duplicate(_Loc._Bound, _Keyval)) {

  00064	0f b6 45 f0	 movzx	 eax, BYTE PTR tv79[ebp]
  00068	85 c0		 test	 eax, eax
  0006a	74 05		 je	 SHORT $LN2@Find

; 1460 :             return _Loc._Bound;

  0006c	8b 45 dc	 mov	 eax, DWORD PTR __Loc$[ebp+8]
  0006f	eb 11		 jmp	 SHORT $LN1@Find
$LN2@Find:

; 2051 :         return _STD addressof(_Mypair._Myval2._Myval2);

  00071	8b 45 fc	 mov	 eax, DWORD PTR _this$[ebp]
; File C:\Program Files (x86)\Microsoft Visual Studio\2019\Community\VC\Tools\MSVC\14.28.29333\include\xstddef

; 275  :     return __builtin_addressof(_Val);

  00074	89 45 e8	 mov	 DWORD PTR $T3[ebp], eax
; File C:\Program Files (x86)\Microsoft Visual Studio\2019\Community\VC\Tools\MSVC\14.28.29333\include\xtree

; 2051 :         return _STD addressof(_Mypair._Myval2._Myval2);

  00077	8b 45 e8	 mov	 eax, DWORD PTR $T3[ebp]
  0007a	89 45 e4	 mov	 DWORD PTR $T2[ebp], eax

; 1461 :         }
; 1462 : 
; 1463 :         return _Get_scary()->_Myhead;

  0007d	8b 45 e4	 mov	 eax, DWORD PTR $T2[ebp]
  00080	8b 00		 mov	 eax, DWORD PTR [eax]
$LN1@Find:

; 1464 :     }

  00082	c9		 leave
  00083	c2 04 00	 ret	 4
??$_Find@K@?$_Tree@V?$_Tmap_traits@KPAVCProperty@@U?$less@K@std@@V?$allocator@U?$pair@$$CBKPAVCProperty@@@std@@@3@$0A@@std@@@std@@ABEPAU?$_Tree_node@U?$pair@$$CBKPAVCProperty@@@std@@PAX@1@ABK@Z ENDP ; std::_Tree<std::_Tmap_traits<unsigned long,CProperty *,std::less<unsigned long>,std::allocator<std::pair<unsigned long const ,CProperty *> >,0> >::_Find<unsigned long>
_TEXT	ENDS
; Function compile flags: /Odspy
; File C:\Program Files (x86)\Microsoft Visual Studio\2019\Community\VC\Tools\MSVC\14.28.29333\include\xtree
; File C:\Program Files (x86)\Microsoft Visual Studio\2019\Community\VC\Tools\MSVC\14.28.29333\include\xmemory
; File C:\Program Files (x86)\Microsoft Visual Studio\2019\Community\VC\Tools\MSVC\14.28.29333\include\xtree
; File C:\Program Files (x86)\Microsoft Visual Studio\2019\Community\VC\Tools\MSVC\14.28.29333\include\xstddef
; File C:\Program Files (x86)\Microsoft Visual Studio\2019\Community\VC\Tools\MSVC\14.28.29333\include\xtree
; File C:\Program Files (x86)\Microsoft Visual Studio\2019\Community\VC\Tools\MSVC\14.28.29333\include\xstddef
; File C:\Program Files (x86)\Microsoft Visual Studio\2019\Community\VC\Tools\MSVC\14.28.29333\include\xtree
;	COMDAT ??$_Find@K@?$_Tree@V?$_Tset_traits@KU?$less@K@std@@V?$allocator@K@2@$0A@@std@@@std@@ABEPAU?$_Tree_node@KPAX@1@ABK@Z
_TEXT	SEGMENT
__Loc$ = -44						; size = 12
$T1 = -32						; size = 4
$T2 = -28						; size = 4
$T3 = -24						; size = 4
$T4 = -20						; size = 4
tv78 = -16						; size = 4
tv131 = -12						; size = 4
__Bound$ = -8						; size = 4
_this$ = -4						; size = 4
__Keyval$ = 8						; size = 4
??$_Find@K@?$_Tree@V?$_Tset_traits@KU?$less@K@std@@V?$allocator@K@2@$0A@@std@@@std@@ABEPAU?$_Tree_node@KPAX@1@ABK@Z PROC ; std::_Tree<std::_Tset_traits<unsigned long,std::less<unsigned long>,std::allocator<unsigned long>,0> >::_Find<unsigned long>, COMDAT
; _this$ = ecx

; 1457 :     _NODISCARD _Nodeptr _Find(const _Other& _Keyval) const {

  00000	55		 push	 ebp
  00001	8b ec		 mov	 ebp, esp
  00003	83 ec 2c	 sub	 esp, 44			; 0000002cH
  00006	89 4d fc	 mov	 DWORD PTR _this$[ebp], ecx

; 1458 :         const _Tree_find_result<_Nodeptr> _Loc = _Find_lower_bound(_Keyval);

  00009	ff 75 08	 push	 DWORD PTR __Keyval$[ebp]
  0000c	8d 45 d4	 lea	 eax, DWORD PTR __Loc$[ebp]
  0000f	50		 push	 eax
  00010	8b 4d fc	 mov	 ecx, DWORD PTR _this$[ebp]
  00013	e8 00 00 00 00	 call	 ??$_Find_lower_bound@K@?$_Tree@V?$_Tset_traits@KU?$less@K@std@@V?$allocator@K@2@$0A@@std@@@std@@IBE?AU?$_Tree_find_result@PAU?$_Tree_node@KPAX@std@@@1@ABK@Z ; std::_Tree<std::_Tset_traits<unsigned long,std::less<unsigned long>,std::allocator<unsigned long>,0> >::_Find_lower_bound<unsigned long>

; 1459 :         if (_Lower_bound_duplicate(_Loc._Bound, _Keyval)) {

  00018	8b 45 dc	 mov	 eax, DWORD PTR __Loc$[ebp+8]
  0001b	89 45 f8	 mov	 DWORD PTR __Bound$[ebp], eax

; 1695 :         return !_Bound->_Isnil && !_DEBUG_LT_PRED(_Getcomp(), _Keyval, _Traits::_Kfn(_Bound->_Myval));

  0001e	8b 45 f8	 mov	 eax, DWORD PTR __Bound$[ebp]
  00021	0f be 40 0d	 movsx	 eax, BYTE PTR [eax+13]
  00025	85 c0		 test	 eax, eax
  00027	75 37		 jne	 SHORT $LN30@Find

; 2035 :         return _Mypair._Get_first();

  00029	8b 45 fc	 mov	 eax, DWORD PTR _this$[ebp]
; File C:\Program Files (x86)\Microsoft Visual Studio\2019\Community\VC\Tools\MSVC\14.28.29333\include\xmemory

; 1351 :         return *this;

  0002c	89 45 ec	 mov	 DWORD PTR $T4[ebp], eax
; File C:\Program Files (x86)\Microsoft Visual Studio\2019\Community\VC\Tools\MSVC\14.28.29333\include\xtree

; 2035 :         return _Mypair._Get_first();

  0002f	8b 45 ec	 mov	 eax, DWORD PTR $T4[ebp]
  00032	89 45 e0	 mov	 DWORD PTR $T1[ebp], eax
; File C:\Program Files (x86)\Microsoft Visual Studio\2019\Community\VC\Tools\MSVC\14.28.29333\include\xstddef

; 127  :         return _Left < _Right;

  00035	8b 45 08	 mov	 eax, DWORD PTR __Keyval$[ebp]
  00038	8b 4d f8	 mov	 ecx, DWORD PTR __Bound$[ebp]
  0003b	8b 00		 mov	 eax, DWORD PTR [eax]
  0003d	3b 41 10	 cmp	 eax, DWORD PTR [ecx+16]
  00040	73 09		 jae	 SHORT $LN42@Find
  00042	c7 45 f4 01 00
	00 00		 mov	 DWORD PTR tv131[ebp], 1
  00049	eb 04		 jmp	 SHORT $LN40@Find
$LN42@Find:
  0004b	83 65 f4 00	 and	 DWORD PTR tv131[ebp], 0
$LN40@Find:
; File C:\Program Files (x86)\Microsoft Visual Studio\2019\Community\VC\Tools\MSVC\14.28.29333\include\xtree

; 1695 :         return !_Bound->_Isnil && !_DEBUG_LT_PRED(_Getcomp(), _Keyval, _Traits::_Kfn(_Bound->_Myval));

  0004f	0f b6 45 f4	 movzx	 eax, BYTE PTR tv131[ebp]
  00053	85 c0		 test	 eax, eax
  00055	75 09		 jne	 SHORT $LN30@Find
  00057	c7 45 f0 01 00
	00 00		 mov	 DWORD PTR tv78[ebp], 1
  0005e	eb 04		 jmp	 SHORT $LN28@Find
$LN30@Find:
  00060	83 65 f0 00	 and	 DWORD PTR tv78[ebp], 0
$LN28@Find:

; 1459 :         if (_Lower_bound_duplicate(_Loc._Bound, _Keyval)) {

  00064	0f b6 45 f0	 movzx	 eax, BYTE PTR tv78[ebp]
  00068	85 c0		 test	 eax, eax
  0006a	74 05		 je	 SHORT $LN2@Find

; 1460 :             return _Loc._Bound;

  0006c	8b 45 dc	 mov	 eax, DWORD PTR __Loc$[ebp+8]
  0006f	eb 11		 jmp	 SHORT $LN1@Find
$LN2@Find:

; 2051 :         return _STD addressof(_Mypair._Myval2._Myval2);

  00071	8b 45 fc	 mov	 eax, DWORD PTR _this$[ebp]
; File C:\Program Files (x86)\Microsoft Visual Studio\2019\Community\VC\Tools\MSVC\14.28.29333\include\xstddef

; 275  :     return __builtin_addressof(_Val);

  00074	89 45 e8	 mov	 DWORD PTR $T3[ebp], eax
; File C:\Program Files (x86)\Microsoft Visual Studio\2019\Community\VC\Tools\MSVC\14.28.29333\include\xtree

; 2051 :         return _STD addressof(_Mypair._Myval2._Myval2);

  00077	8b 45 e8	 mov	 eax, DWORD PTR $T3[ebp]
  0007a	89 45 e4	 mov	 DWORD PTR $T2[ebp], eax

; 1461 :         }
; 1462 : 
; 1463 :         return _Get_scary()->_Myhead;

  0007d	8b 45 e4	 mov	 eax, DWORD PTR $T2[ebp]
  00080	8b 00		 mov	 eax, DWORD PTR [eax]
$LN1@Find:

; 1464 :     }

  00082	c9		 leave
  00083	c2 04 00	 ret	 4
??$_Find@K@?$_Tree@V?$_Tset_traits@KU?$less@K@std@@V?$allocator@K@2@$0A@@std@@@std@@ABEPAU?$_Tree_node@KPAX@1@ABK@Z ENDP ; std::_Tree<std::_Tset_traits<unsigned long,std::less<unsigned long>,std::allocator<unsigned long>,0> >::_Find<unsigned long>
_TEXT	ENDS
; Function compile flags: /Odspy
; File D:\Metin2 Server Files\mainline\SRC_2014\Metin2Client\eterBase\Stl.h
; File C:\Program Files (x86)\Microsoft Visual Studio\2019\Community\VC\Tools\MSVC\14.28.29333\include\xtree
; File C:\Program Files (x86)\Microsoft Visual Studio\2019\Community\VC\Tools\MSVC\14.28.29333\include\xstddef
; File C:\Program Files (x86)\Microsoft Visual Studio\2019\Community\VC\Tools\MSVC\14.28.29333\include\xtree
; File D:\Metin2 Server Files\mainline\SRC_2014\Metin2Client\eterBase\Stl.h
; File C:\Program Files (x86)\Microsoft Visual Studio\2019\Community\VC\Tools\MSVC\14.28.29333\include\xtree
; File C:\Program Files (x86)\Microsoft Visual Studio\2019\Community\VC\Tools\MSVC\14.28.29333\include\xstddef
; File C:\Program Files (x86)\Microsoft Visual Studio\2019\Community\VC\Tools\MSVC\14.28.29333\include\xutility
; File C:\Program Files (x86)\Microsoft Visual Studio\2019\Community\VC\Tools\MSVC\14.28.29333\include\xtree
; File D:\Metin2 Server Files\mainline\SRC_2014\Metin2Client\eterBase\Stl.h
;	COMDAT ??$stl_wipe_second@V?$map@KPAVCProperty@@U?$less@K@std@@V?$allocator@U?$pair@$$CBKPAVCProperty@@@std@@@3@@std@@@@YAXAAV?$map@KPAVCProperty@@U?$less@K@std@@V?$allocator@U?$pair@$$CBKPAVCProperty@@@std@@@3@@std@@@Z
_TEXT	SEGMENT
$T1 = -68						; size = 4
$T2 = -64						; size = 4
$T3 = -60						; size = 4
$T4 = -56						; size = 4
$T5 = -52						; size = 4
$T6 = -48						; size = 4
$T7 = -44						; size = 4
$T8 = -40						; size = 4
___param0$ = -36					; size = 4
__Scary$9 = -32						; size = 4
$T10 = -28						; size = 4
tv130 = -24						; size = 4
tv173 = -20						; size = 4
tv200 = -16						; size = 4
_i$11 = -12						; size = 4
$T12 = -8						; size = 4
$T13 = -2						; size = 1
$T14 = -1						; size = 1
_container$ = 8						; size = 4
??$stl_wipe_second@V?$map@KPAVCProperty@@U?$less@K@std@@V?$allocator@U?$pair@$$CBKPAVCProperty@@@std@@@3@@std@@@@YAXAAV?$map@KPAVCProperty@@U?$less@K@std@@V?$allocator@U?$pair@$$CBKPAVCProperty@@@std@@@3@@std@@@Z PROC ; stl_wipe_second<std::map<unsigned long,CProperty *,std::less<unsigned long>,std::allocator<std::pair<unsigned long const ,CProperty *> > > >, COMDAT

; 126  : {

  00000	55		 push	 ebp
  00001	8b ec		 mov	 ebp, esp
  00003	83 ec 44	 sub	 esp, 68			; 00000044H

; 127  : 	for (TContainer::iterator i = container.begin(); i != container.end(); ++i)

  00006	8d 45 f4	 lea	 eax, DWORD PTR _i$11[ebp]
  00009	50		 push	 eax
  0000a	8b 4d 08	 mov	 ecx, DWORD PTR _container$[ebp]
  0000d	e8 00 00 00 00	 call	 ?begin@?$_Tree@V?$_Tmap_traits@KPAVCProperty@@U?$less@K@std@@V?$allocator@U?$pair@$$CBKPAVCProperty@@@std@@@3@$0A@@std@@@std@@QAE?AV?$_Tree_iterator@V?$_Tree_val@U?$_Tree_simple_types@U?$pair@$$CBKPAVCProperty@@@std@@@std@@@std@@@2@XZ ; std::_Tree<std::_Tmap_traits<unsigned long,CProperty *,std::less<unsigned long>,std::allocator<std::pair<unsigned long const ,CProperty *> >,0> >::begin
  00012	eb 08		 jmp	 SHORT $LN4@stl_wipe_s
$LN2@stl_wipe_s:
; File C:\Program Files (x86)\Microsoft Visual Studio\2019\Community\VC\Tools\MSVC\14.28.29333\include\xtree

; 198  :         _Mybase::operator++();

  00014	8d 4d f4	 lea	 ecx, DWORD PTR _i$11[ebp]
  00017	e8 00 00 00 00	 call	 ??E?$_Tree_unchecked_const_iterator@V?$_Tree_val@U?$_Tree_simple_types@U?$pair@$$CBKPAVCProperty@@@std@@@std@@@std@@U_Iterator_base0@2@@std@@QAEAAV01@XZ ; std::_Tree_unchecked_const_iterator<std::_Tree_val<std::_Tree_simple_types<std::pair<unsigned long const ,CProperty *> > >,std::_Iterator_base0>::operator++
$LN4@stl_wipe_s:

; 2047 :         return _STD addressof(_Mypair._Myval2._Myval2);

  0001c	8b 45 08	 mov	 eax, DWORD PTR _container$[ebp]
; File C:\Program Files (x86)\Microsoft Visual Studio\2019\Community\VC\Tools\MSVC\14.28.29333\include\xstddef

; 275  :     return __builtin_addressof(_Val);

  0001f	89 45 e4	 mov	 DWORD PTR $T10[ebp], eax
; File C:\Program Files (x86)\Microsoft Visual Studio\2019\Community\VC\Tools\MSVC\14.28.29333\include\xtree

; 2047 :         return _STD addressof(_Mypair._Myval2._Myval2);

  00022	8b 45 e4	 mov	 eax, DWORD PTR $T10[ebp]
  00025	89 45 e0	 mov	 DWORD PTR __Scary$9[ebp], eax

; 1250 :         return iterator(_Scary->_Myhead, _Scary);

  00028	8b 45 e0	 mov	 eax, DWORD PTR __Scary$9[ebp]
  0002b	8b 00		 mov	 eax, DWORD PTR [eax]
  0002d	89 45 dc	 mov	 DWORD PTR ___param0$[ebp], eax

; 39   :     _Tree_unchecked_const_iterator(_Nodeptr _Pnode, const _Mytree* _Plist) noexcept : _Ptr(_Pnode) {

  00030	8b 45 dc	 mov	 eax, DWORD PTR ___param0$[ebp]
  00033	89 45 d8	 mov	 DWORD PTR $T8[ebp], eax

; 1250 :         return iterator(_Scary->_Myhead, _Scary);

  00036	8d 45 d8	 lea	 eax, DWORD PTR $T8[ebp]
  00039	89 45 d4	 mov	 DWORD PTR $T7[ebp], eax

; 232  :         return this->_Ptr == _Right._Ptr;

  0003c	8b 45 d4	 mov	 eax, DWORD PTR $T7[ebp]
  0003f	8b 4d f4	 mov	 ecx, DWORD PTR _i$11[ebp]
  00042	3b 08		 cmp	 ecx, DWORD PTR [eax]
  00044	75 09		 jne	 SHORT $LN75@stl_wipe_s
  00046	c7 45 f0 01 00
	00 00		 mov	 DWORD PTR tv200[ebp], 1
  0004d	eb 04		 jmp	 SHORT $LN76@stl_wipe_s
$LN75@stl_wipe_s:
  0004f	83 65 f0 00	 and	 DWORD PTR tv200[ebp], 0
$LN76@stl_wipe_s:
  00053	8a 45 f0	 mov	 al, BYTE PTR tv200[ebp]
  00056	88 45 ff	 mov	 BYTE PTR $T14[ebp], al

; 236  :         return !(*this == _Right);

  00059	0f b6 45 ff	 movzx	 eax, BYTE PTR $T14[ebp]
  0005d	85 c0		 test	 eax, eax
  0005f	75 09		 jne	 SHORT $LN70@stl_wipe_s
  00061	c7 45 ec 01 00
	00 00		 mov	 DWORD PTR tv173[ebp], 1
  00068	eb 04		 jmp	 SHORT $LN71@stl_wipe_s
$LN70@stl_wipe_s:
  0006a	83 65 ec 00	 and	 DWORD PTR tv173[ebp], 0
$LN71@stl_wipe_s:
  0006e	8a 45 ec	 mov	 al, BYTE PTR tv173[ebp]
  00071	88 45 fe	 mov	 BYTE PTR $T13[ebp], al
; File D:\Metin2 Server Files\mainline\SRC_2014\Metin2Client\eterBase\Stl.h

; 127  : 	for (TContainer::iterator i = container.begin(); i != container.end(); ++i)

  00074	0f b6 45 fe	 movzx	 eax, BYTE PTR $T13[ebp]
  00078	85 c0		 test	 eax, eax
  0007a	74 63		 je	 SHORT $LN3@stl_wipe_s
; File C:\Program Files (x86)\Microsoft Visual Studio\2019\Community\VC\Tools\MSVC\14.28.29333\include\xtree

; 185  :         return this->_Ptr->_Myval;

  0007c	8b 45 f4	 mov	 eax, DWORD PTR _i$11[ebp]
  0007f	83 c0 10	 add	 eax, 16			; 00000010H
  00082	89 45 d0	 mov	 DWORD PTR $T6[ebp], eax

; 273  :         return const_cast<reference>(_Mybase::operator*());

  00085	8b 45 d0	 mov	 eax, DWORD PTR $T6[ebp]
  00088	89 45 cc	 mov	 DWORD PTR $T5[ebp], eax
; File C:\Program Files (x86)\Microsoft Visual Studio\2019\Community\VC\Tools\MSVC\14.28.29333\include\xstddef

; 275  :     return __builtin_addressof(_Val);

  0008b	8b 45 cc	 mov	 eax, DWORD PTR $T5[ebp]
  0008e	89 45 c8	 mov	 DWORD PTR $T4[ebp], eax
; File C:\Program Files (x86)\Microsoft Visual Studio\2019\Community\VC\Tools\MSVC\14.28.29333\include\xutility

; 151  :         return _STD addressof(_Val);

  00091	8b 45 c8	 mov	 eax, DWORD PTR $T4[ebp]
  00094	89 45 c4	 mov	 DWORD PTR $T3[ebp], eax
; File C:\Program Files (x86)\Microsoft Visual Studio\2019\Community\VC\Tools\MSVC\14.28.29333\include\xtree

; 277  :         return pointer_traits<pointer>::pointer_to(**this);

  00097	8b 45 c4	 mov	 eax, DWORD PTR $T3[ebp]
  0009a	89 45 c0	 mov	 DWORD PTR $T2[ebp], eax
; File D:\Metin2 Server Files\mainline\SRC_2014\Metin2Client\eterBase\Stl.h

; 129  : 		delete i->second;

  0009d	8b 45 c0	 mov	 eax, DWORD PTR $T2[ebp]
  000a0	8b 40 04	 mov	 eax, DWORD PTR [eax+4]
  000a3	89 45 f8	 mov	 DWORD PTR $T12[ebp], eax
  000a6	83 7d f8 00	 cmp	 DWORD PTR $T12[ebp], 0
  000aa	74 2a		 je	 SHORT $LN6@stl_wipe_s
  000ac	8b 45 bc	 mov	 eax, DWORD PTR $T1[ebp]
  000af	89 45 e8	 mov	 DWORD PTR tv130[ebp], eax
  000b2	8b 4d f8	 mov	 ecx, DWORD PTR $T12[ebp]
  000b5	e8 00 00 00 00	 call	 ??1CProperty@@QAE@XZ	; CProperty::~CProperty
  000ba	33 c0		 xor	 eax, eax
  000bc	40		 inc	 eax
  000bd	83 e0 01	 and	 eax, 1
  000c0	74 0c		 je	 SHORT $LN94@stl_wipe_s
  000c2	6a 40		 push	 64			; 00000040H
  000c4	ff 75 f8	 push	 DWORD PTR $T12[ebp]
  000c7	e8 00 00 00 00	 call	 ??3@YAXPAXI@Z		; operator delete
  000cc	59		 pop	 ecx
  000cd	59		 pop	 ecx
$LN94@stl_wipe_s:
  000ce	8b 45 f8	 mov	 eax, DWORD PTR $T12[ebp]
  000d1	89 45 e8	 mov	 DWORD PTR tv130[ebp], eax
  000d4	eb 04		 jmp	 SHORT $LN7@stl_wipe_s
$LN6@stl_wipe_s:
  000d6	83 65 e8 00	 and	 DWORD PTR tv130[ebp], 0
$LN7@stl_wipe_s:

; 130  : 	}

  000da	e9 35 ff ff ff	 jmp	 $LN2@stl_wipe_s
$LN3@stl_wipe_s:

; 131  : 	
; 132  : 	container.clear();

  000df	8b 4d 08	 mov	 ecx, DWORD PTR _container$[ebp]
  000e2	e8 00 00 00 00	 call	 ?clear@?$_Tree@V?$_Tmap_traits@KPAVCProperty@@U?$less@K@std@@V?$allocator@U?$pair@$$CBKPAVCProperty@@@std@@@3@$0A@@std@@@std@@QAEXXZ ; std::_Tree<std::_Tmap_traits<unsigned long,CProperty *,std::less<unsigned long>,std::allocator<std::pair<unsigned long const ,CProperty *> >,0> >::clear

; 133  : }

  000e7	c9		 leave
  000e8	c3		 ret	 0
??$stl_wipe_second@V?$map@KPAVCProperty@@U?$less@K@std@@V?$allocator@U?$pair@$$CBKPAVCProperty@@@std@@@3@@std@@@@YAXAAV?$map@KPAVCProperty@@U?$less@K@std@@V?$allocator@U?$pair@$$CBKPAVCProperty@@@std@@@3@@std@@@Z ENDP ; stl_wipe_second<std::map<unsigned long,CProperty *,std::less<unsigned long>,std::allocator<std::pair<unsigned long const ,CProperty *> > > >
_TEXT	ENDS
; Function compile flags: /Odspy
; File C:\Program Files (x86)\Microsoft Visual Studio\2019\Community\VC\Tools\MSVC\14.28.29333\include\xtree
; File C:\Program Files (x86)\Microsoft Visual Studio\2019\Community\VC\Tools\MSVC\14.28.29333\include\xstddef
; File C:\Program Files (x86)\Microsoft Visual Studio\2019\Community\VC\Tools\MSVC\14.28.29333\include\xtree
; File C:\Program Files (x86)\Microsoft Visual Studio\2019\Community\VC\Tools\MSVC\14.28.29333\include\xmemory
; File C:\Program Files (x86)\Microsoft Visual Studio\2019\Community\VC\Tools\MSVC\14.28.29333\include\xtree
;	COMDAT ??$erase@V?$_Tree_iterator@V?$_Tree_val@U?$_Tree_simple_types@U?$pair@$$CBKPAVCProperty@@@std@@@std@@@std@@@std@@$0A@@?$_Tree@V?$_Tmap_traits@KPAVCProperty@@U?$less@K@std@@V?$allocator@U?$pair@$$CBKPAVCProperty@@@std@@@3@$0A@@std@@@std@@QAE?AV?$_Tree_iterator@V?$_Tree_val@U?$_Tree_simple_types@U?$pair@$$CBKPAVCProperty@@@std@@@std@@@std@@@1@V21@@Z
_TEXT	SEGMENT
$T1 = -36						; size = 4
__Scary$ = -32						; size = 4
___param0$ = -28					; size = 4
$T2 = -24						; size = 4
$T3 = -20						; size = 4
$T4 = -16						; size = 4
___param0$ = -12					; size = 4
$T5 = -8						; size = 4
_this$ = -4						; size = 4
___$ReturnUdt$ = 8					; size = 4
__Where$ = 12						; size = 4
??$erase@V?$_Tree_iterator@V?$_Tree_val@U?$_Tree_simple_types@U?$pair@$$CBKPAVCProperty@@@std@@@std@@@std@@@std@@$0A@@?$_Tree@V?$_Tmap_traits@KPAVCProperty@@U?$less@K@std@@V?$allocator@U?$pair@$$CBKPAVCProperty@@@std@@@3@$0A@@std@@@std@@QAE?AV?$_Tree_iterator@V?$_Tree_val@U?$_Tree_simple_types@U?$pair@$$CBKPAVCProperty@@@std@@@std@@@std@@@1@V21@@Z PROC ; std::_Tree<std::_Tmap_traits<unsigned long,CProperty *,std::less<unsigned long>,std::allocator<std::pair<unsigned long const ,CProperty *> >,0> >::erase<std::_Tree_iterator<std::_Tree_val<std::_Tree_simple_types<std::pair<unsigned long const ,CProperty *> > > >,0>, COMDAT
; _this$ = ecx

; 1413 :     iterator erase(iterator _Where) noexcept /* strengthened */ {

  00000	55		 push	 ebp
  00001	8b ec		 mov	 ebp, esp
  00003	83 ec 24	 sub	 esp, 36			; 00000024H
  00006	89 4d fc	 mov	 DWORD PTR _this$[ebp], ecx

; 2047 :         return _STD addressof(_Mypair._Myval2._Myval2);

  00009	8b 45 fc	 mov	 eax, DWORD PTR _this$[ebp]
; File C:\Program Files (x86)\Microsoft Visual Studio\2019\Community\VC\Tools\MSVC\14.28.29333\include\xstddef

; 275  :     return __builtin_addressof(_Val);

  0000c	89 45 f8	 mov	 DWORD PTR $T5[ebp], eax
; File C:\Program Files (x86)\Microsoft Visual Studio\2019\Community\VC\Tools\MSVC\14.28.29333\include\xtree

; 2047 :         return _STD addressof(_Mypair._Myval2._Myval2);

  0000f	8b 45 f8	 mov	 eax, DWORD PTR $T5[ebp]
  00012	89 45 e0	 mov	 DWORD PTR __Scary$[ebp], eax
; File C:\Program Files (x86)\Microsoft Visual Studio\2019\Community\VC\Tools\MSVC\14.28.29333\include\xmemory

; 1079 :         return nullptr;

  00015	83 65 dc 00	 and	 DWORD PTR $T1[ebp], 0
; File C:\Program Files (x86)\Microsoft Visual Studio\2019\Community\VC\Tools\MSVC\14.28.29333\include\xtree

; 305  :         return _Tree_unchecked_iterator<_Mytree>(this->_Ptr, static_cast<const _Mytree*>(this->_Getcont()));

  00019	8b 45 0c	 mov	 eax, DWORD PTR __Where$[ebp]
  0001c	89 45 f4	 mov	 DWORD PTR ___param0$[ebp], eax

; 39   :     _Tree_unchecked_const_iterator(_Nodeptr _Pnode, const _Mytree* _Plist) noexcept : _Ptr(_Pnode) {

  0001f	8b 45 f4	 mov	 eax, DWORD PTR ___param0$[ebp]
  00022	89 45 f0	 mov	 DWORD PTR $T4[ebp], eax

; 305  :         return _Tree_unchecked_iterator<_Mytree>(this->_Ptr, static_cast<const _Mytree*>(this->_Getcont()));

  00025	8d 45 f0	 lea	 eax, DWORD PTR $T4[ebp]
  00028	89 45 ec	 mov	 DWORD PTR $T3[ebp], eax

; 1414 :         const auto _Scary = _Get_scary();
; 1415 : #if _ITERATOR_DEBUG_LEVEL == 2
; 1416 :         _STL_VERIFY(_Where._Getcont() == _Scary, "map/set erase iterator from incorrect container");
; 1417 :         _STL_VERIFY(!_Where._Ptr->_Isnil, "cannot erase map/set end() iterator");
; 1418 : #endif // _ITERATOR_DEBUG_LEVEL == 2
; 1419 :         return iterator(_Erase_unchecked(_Where._Unwrapped()), _Scary);

  0002b	8b 45 ec	 mov	 eax, DWORD PTR $T3[ebp]
  0002e	8b 00		 mov	 eax, DWORD PTR [eax]
  00030	89 45 e8	 mov	 DWORD PTR $T2[ebp], eax
  00033	ff 75 e8	 push	 DWORD PTR $T2[ebp]
  00036	8b 4d fc	 mov	 ecx, DWORD PTR _this$[ebp]
  00039	e8 00 00 00 00	 call	 ?_Erase_unchecked@?$_Tree@V?$_Tmap_traits@KPAVCProperty@@U?$less@K@std@@V?$allocator@U?$pair@$$CBKPAVCProperty@@@std@@@3@$0A@@std@@@std@@AAEPAU?$_Tree_node@U?$pair@$$CBKPAVCProperty@@@std@@PAX@2@V?$_Tree_unchecked_const_iterator@V?$_Tree_val@U?$_Tree_simple_types@U?$pair@$$CBKPAVCProperty@@@std@@@std@@@std@@U_Iterator_base0@2@@2@@Z ; std::_Tree<std::_Tmap_traits<unsigned long,CProperty *,std::less<unsigned long>,std::allocator<std::pair<unsigned long const ,CProperty *> >,0> >::_Erase_unchecked
  0003e	89 45 e4	 mov	 DWORD PTR ___param0$[ebp], eax

; 39   :     _Tree_unchecked_const_iterator(_Nodeptr _Pnode, const _Mytree* _Plist) noexcept : _Ptr(_Pnode) {

  00041	8b 45 08	 mov	 eax, DWORD PTR ___$ReturnUdt$[ebp]
  00044	8b 4d e4	 mov	 ecx, DWORD PTR ___param0$[ebp]
  00047	89 08		 mov	 DWORD PTR [eax], ecx

; 1414 :         const auto _Scary = _Get_scary();
; 1415 : #if _ITERATOR_DEBUG_LEVEL == 2
; 1416 :         _STL_VERIFY(_Where._Getcont() == _Scary, "map/set erase iterator from incorrect container");
; 1417 :         _STL_VERIFY(!_Where._Ptr->_Isnil, "cannot erase map/set end() iterator");
; 1418 : #endif // _ITERATOR_DEBUG_LEVEL == 2
; 1419 :         return iterator(_Erase_unchecked(_Where._Unwrapped()), _Scary);

  00049	8b 45 08	 mov	 eax, DWORD PTR ___$ReturnUdt$[ebp]

; 1420 :     }

  0004c	c9		 leave
  0004d	c2 08 00	 ret	 8
??$erase@V?$_Tree_iterator@V?$_Tree_val@U?$_Tree_simple_types@U?$pair@$$CBKPAVCProperty@@@std@@@std@@@std@@@std@@$0A@@?$_Tree@V?$_Tmap_traits@KPAVCProperty@@U?$less@K@std@@V?$allocator@U?$pair@$$CBKPAVCProperty@@@std@@@3@$0A@@std@@@std@@QAE?AV?$_Tree_iterator@V?$_Tree_val@U?$_Tree_simple_types@U?$pair@$$CBKPAVCProperty@@@std@@@std@@@std@@@1@V21@@Z ENDP ; std::_Tree<std::_Tmap_traits<unsigned long,CProperty *,std::less<unsigned long>,std::allocator<std::pair<unsigned long const ,CProperty *> >,0> >::erase<std::_Tree_iterator<std::_Tree_val<std::_Tree_simple_types<std::pair<unsigned long const ,CProperty *> > > >,0>
_TEXT	ENDS
; Function compile flags: /Odspy
; File C:\Program Files (x86)\Microsoft Visual Studio\2019\Community\VC\Tools\MSVC\14.28.29333\include\xtree
; File C:\Program Files (x86)\Microsoft Visual Studio\2019\Community\VC\Tools\MSVC\14.28.29333\include\type_traits
; File C:\Program Files (x86)\Microsoft Visual Studio\2019\Community\VC\Tools\MSVC\14.28.29333\include\xtree
; File C:\Program Files (x86)\Microsoft Visual Studio\2019\Community\VC\Tools\MSVC\14.28.29333\include\xstddef
; File C:\Program Files (x86)\Microsoft Visual Studio\2019\Community\VC\Tools\MSVC\14.28.29333\include\xtree
; File C:\Program Files (x86)\Microsoft Visual Studio\2019\Community\VC\Tools\MSVC\14.28.29333\include\type_traits
; File C:\Program Files (x86)\Microsoft Visual Studio\2019\Community\VC\Tools\MSVC\14.28.29333\include\utility
; File C:\Program Files (x86)\Microsoft Visual Studio\2019\Community\VC\Tools\MSVC\14.28.29333\include\type_traits
; File C:\Program Files (x86)\Microsoft Visual Studio\2019\Community\VC\Tools\MSVC\14.28.29333\include\utility
; File C:\Program Files (x86)\Microsoft Visual Studio\2019\Community\VC\Tools\MSVC\14.28.29333\include\xtree
;	COMDAT ??$insert@$0A@$0A@@?$_Tree@V?$_Tmap_traits@KPAVCProperty@@U?$less@K@std@@V?$allocator@U?$pair@$$CBKPAVCProperty@@@std@@@3@$0A@@std@@@std@@QAE?AU?$pair@V?$_Tree_iterator@V?$_Tree_val@U?$_Tree_simple_types@U?$pair@$$CBKPAVCProperty@@@std@@@std@@@std@@@std@@_N@1@$$QAU?$pair@$$CBKPAVCProperty@@@1@@Z
_TEXT	SEGMENT
__Result$ = -40						; size = 8
$T1 = -32						; size = 4
$T2 = -28						; size = 4
$T3 = -24						; size = 4
$T4 = -20						; size = 4
___param0$ = -16					; size = 4
$T5 = -12						; size = 4
$T6 = -8						; size = 4
_this$ = -4						; size = 4
___$ReturnUdt$ = 8					; size = 4
__Val$ = 12						; size = 4
??$insert@$0A@$0A@@?$_Tree@V?$_Tmap_traits@KPAVCProperty@@U?$less@K@std@@V?$allocator@U?$pair@$$CBKPAVCProperty@@@std@@@3@$0A@@std@@@std@@QAE?AU?$pair@V?$_Tree_iterator@V?$_Tree_val@U?$_Tree_simple_types@U?$pair@$$CBKPAVCProperty@@@std@@@std@@@std@@@std@@_N@1@$$QAU?$pair@$$CBKPAVCProperty@@@1@@Z PROC ; std::_Tree<std::_Tmap_traits<unsigned long,CProperty *,std::less<unsigned long>,std::allocator<std::pair<unsigned long const ,CProperty *> >,0> >::insert<0,0>, COMDAT
; _this$ = ecx

; 1343 :     pair<iterator, bool> insert(value_type&& _Val) {

  00000	55		 push	 ebp
  00001	8b ec		 mov	 ebp, esp
  00003	83 ec 28	 sub	 esp, 40			; 00000028H
  00006	89 4d fc	 mov	 DWORD PTR _this$[ebp], ecx
; File C:\Program Files (x86)\Microsoft Visual Studio\2019\Community\VC\Tools\MSVC\14.28.29333\include\type_traits

; 1455 :     return static_cast<remove_reference_t<_Ty>&&>(_Arg);

  00009	8b 45 0c	 mov	 eax, DWORD PTR __Val$[ebp]
  0000c	89 45 f8	 mov	 DWORD PTR $T6[ebp], eax
; File C:\Program Files (x86)\Microsoft Visual Studio\2019\Community\VC\Tools\MSVC\14.28.29333\include\xtree

; 1344 :         const auto _Result = _Emplace(_STD move(_Val));

  0000f	ff 75 f8	 push	 DWORD PTR $T6[ebp]
  00012	8d 45 d8	 lea	 eax, DWORD PTR __Result$[ebp]
  00015	50		 push	 eax
  00016	8b 4d fc	 mov	 ecx, DWORD PTR _this$[ebp]
  00019	e8 00 00 00 00	 call	 ??$_Emplace@U?$pair@$$CBKPAVCProperty@@@std@@@?$_Tree@V?$_Tmap_traits@KPAVCProperty@@U?$less@K@std@@V?$allocator@U?$pair@$$CBKPAVCProperty@@@std@@@3@$0A@@std@@@std@@IAE?AU?$pair@PAU?$_Tree_node@U?$pair@$$CBKPAVCProperty@@@std@@PAX@std@@_N@1@$$QAU?$pair@$$CBKPAVCProperty@@@1@@Z ; std::_Tree<std::_Tmap_traits<unsigned long,CProperty *,std::less<unsigned long>,std::allocator<std::pair<unsigned long const ,CProperty *> >,0> >::_Emplace<std::pair<unsigned long const ,CProperty *> >

; 2047 :         return _STD addressof(_Mypair._Myval2._Myval2);

  0001e	8b 45 fc	 mov	 eax, DWORD PTR _this$[ebp]
; File C:\Program Files (x86)\Microsoft Visual Studio\2019\Community\VC\Tools\MSVC\14.28.29333\include\xstddef

; 275  :     return __builtin_addressof(_Val);

  00021	89 45 f4	 mov	 DWORD PTR $T5[ebp], eax
; File C:\Program Files (x86)\Microsoft Visual Studio\2019\Community\VC\Tools\MSVC\14.28.29333\include\xtree

; 2047 :         return _STD addressof(_Mypair._Myval2._Myval2);

  00024	8b 45 f4	 mov	 eax, DWORD PTR $T5[ebp]
  00027	89 45 e0	 mov	 DWORD PTR $T1[ebp], eax

; 1345 :         return {iterator(_Result.first, _Get_scary()), _Result.second};

  0002a	8b 45 d8	 mov	 eax, DWORD PTR __Result$[ebp]
  0002d	89 45 f0	 mov	 DWORD PTR ___param0$[ebp], eax

; 39   :     _Tree_unchecked_const_iterator(_Nodeptr _Pnode, const _Mytree* _Plist) noexcept : _Ptr(_Pnode) {

  00030	8b 45 f0	 mov	 eax, DWORD PTR ___param0$[ebp]
  00033	89 45 ec	 mov	 DWORD PTR $T4[ebp], eax
; File C:\Program Files (x86)\Microsoft Visual Studio\2019\Community\VC\Tools\MSVC\14.28.29333\include\type_traits

; 1443 :     return static_cast<_Ty&&>(_Arg);

  00036	8d 45 ec	 lea	 eax, DWORD PTR $T4[ebp]
  00039	89 45 e8	 mov	 DWORD PTR $T3[ebp], eax
; File C:\Program Files (x86)\Microsoft Visual Studio\2019\Community\VC\Tools\MSVC\14.28.29333\include\utility

; 190  :         : first(_STD forward<_Other1>(_Val1)), second(_STD forward<_Other2>(_Val2)) {}

  0003c	8b 45 e8	 mov	 eax, DWORD PTR $T3[ebp]
  0003f	8b 00		 mov	 eax, DWORD PTR [eax]
  00041	8b 4d 08	 mov	 ecx, DWORD PTR ___$ReturnUdt$[ebp]
  00044	89 01		 mov	 DWORD PTR [ecx], eax
; File C:\Program Files (x86)\Microsoft Visual Studio\2019\Community\VC\Tools\MSVC\14.28.29333\include\type_traits

; 1443 :     return static_cast<_Ty&&>(_Arg);

  00046	8d 45 dc	 lea	 eax, DWORD PTR __Result$[ebp+4]
  00049	89 45 e4	 mov	 DWORD PTR $T2[ebp], eax
; File C:\Program Files (x86)\Microsoft Visual Studio\2019\Community\VC\Tools\MSVC\14.28.29333\include\utility

; 190  :         : first(_STD forward<_Other1>(_Val1)), second(_STD forward<_Other2>(_Val2)) {}

  0004c	8b 45 08	 mov	 eax, DWORD PTR ___$ReturnUdt$[ebp]
  0004f	8b 4d e4	 mov	 ecx, DWORD PTR $T2[ebp]
  00052	8a 09		 mov	 cl, BYTE PTR [ecx]
  00054	88 48 04	 mov	 BYTE PTR [eax+4], cl
; File C:\Program Files (x86)\Microsoft Visual Studio\2019\Community\VC\Tools\MSVC\14.28.29333\include\xtree

; 1345 :         return {iterator(_Result.first, _Get_scary()), _Result.second};

  00057	8b 45 08	 mov	 eax, DWORD PTR ___$ReturnUdt$[ebp]

; 1346 :     }

  0005a	c9		 leave
  0005b	c2 08 00	 ret	 8
??$insert@$0A@$0A@@?$_Tree@V?$_Tmap_traits@KPAVCProperty@@U?$less@K@std@@V?$allocator@U?$pair@$$CBKPAVCProperty@@@std@@@3@$0A@@std@@@std@@QAE?AU?$pair@V?$_Tree_iterator@V?$_Tree_val@U?$_Tree_simple_types@U?$pair@$$CBKPAVCProperty@@@std@@@std@@@std@@@std@@_N@1@$$QAU?$pair@$$CBKPAVCProperty@@@1@@Z ENDP ; std::_Tree<std::_Tmap_traits<unsigned long,CProperty *,std::less<unsigned long>,std::allocator<std::pair<unsigned long const ,CProperty *> >,0> >::insert<0,0>
_TEXT	ENDS
; Function compile flags: /Odspy
; File C:\Program Files (x86)\Microsoft Visual Studio\2019\Community\VC\Tools\MSVC\14.28.29333\include\xtree
;	COMDAT ??E?$_Tree_unchecked_const_iterator@V?$_Tree_val@U?$_Tree_simple_types@U?$pair@$$CBKPAVCProperty@@@std@@@std@@@std@@U_Iterator_base0@2@@std@@QAEAAV01@XZ
_TEXT	SEGMENT
$T1 = -16						; size = 4
__Pnode$ = -12						; size = 4
__Pnode$2 = -8						; size = 4
_this$ = -4						; size = 4
??E?$_Tree_unchecked_const_iterator@V?$_Tree_val@U?$_Tree_simple_types@U?$pair@$$CBKPAVCProperty@@@std@@@std@@@std@@U_Iterator_base0@2@@std@@QAEAAV01@XZ PROC ; std::_Tree_unchecked_const_iterator<std::_Tree_val<std::_Tree_simple_types<std::pair<unsigned long const ,CProperty *> > >,std::_Iterator_base0>::operator++, COMDAT
; _this$ = ecx

; 51   :     _Tree_unchecked_const_iterator& operator++() noexcept {

  00000	55		 push	 ebp
  00001	8b ec		 mov	 ebp, esp
  00003	83 ec 10	 sub	 esp, 16			; 00000010H
  00006	89 4d fc	 mov	 DWORD PTR _this$[ebp], ecx

; 52   :         if (_Ptr->_Right->_Isnil) { // climb looking for right subtree

  00009	8b 45 fc	 mov	 eax, DWORD PTR _this$[ebp]
  0000c	8b 00		 mov	 eax, DWORD PTR [eax]
  0000e	8b 40 08	 mov	 eax, DWORD PTR [eax+8]
  00011	0f be 40 0d	 movsx	 eax, BYTE PTR [eax+13]
  00015	85 c0		 test	 eax, eax
  00017	74 37		 je	 SHORT $LN4@operator
$LN2@operator:

; 53   :             _Nodeptr _Pnode;
; 54   :             while (!(_Pnode = _Ptr->_Parent)->_Isnil && _Ptr == _Pnode->_Right) {

  00019	8b 45 fc	 mov	 eax, DWORD PTR _this$[ebp]
  0001c	8b 00		 mov	 eax, DWORD PTR [eax]
  0001e	8b 40 04	 mov	 eax, DWORD PTR [eax+4]
  00021	89 45 f8	 mov	 DWORD PTR __Pnode$2[ebp], eax
  00024	8b 45 f8	 mov	 eax, DWORD PTR __Pnode$2[ebp]
  00027	0f be 40 0d	 movsx	 eax, BYTE PTR [eax+13]
  0002b	85 c0		 test	 eax, eax
  0002d	75 17		 jne	 SHORT $LN3@operator
  0002f	8b 45 fc	 mov	 eax, DWORD PTR _this$[ebp]
  00032	8b 4d f8	 mov	 ecx, DWORD PTR __Pnode$2[ebp]
  00035	8b 00		 mov	 eax, DWORD PTR [eax]
  00037	3b 41 08	 cmp	 eax, DWORD PTR [ecx+8]
  0003a	75 0a		 jne	 SHORT $LN3@operator

; 55   :                 _Ptr = _Pnode; // ==> parent while right subtree

  0003c	8b 45 fc	 mov	 eax, DWORD PTR _this$[ebp]
  0003f	8b 4d f8	 mov	 ecx, DWORD PTR __Pnode$2[ebp]
  00042	89 08		 mov	 DWORD PTR [eax], ecx

; 56   :             }

  00044	eb d3		 jmp	 SHORT $LN2@operator
$LN3@operator:

; 57   : 
; 58   :             _Ptr = _Pnode; // ==> parent (head if end())

  00046	8b 45 fc	 mov	 eax, DWORD PTR _this$[ebp]
  00049	8b 4d f8	 mov	 ecx, DWORD PTR __Pnode$2[ebp]
  0004c	89 08		 mov	 DWORD PTR [eax], ecx

; 59   :         } else {

  0004e	eb 30		 jmp	 SHORT $LN5@operator
$LN4@operator:

; 60   :             _Ptr = _Mytree::_Min(_Ptr->_Right); // ==> smallest of right subtree

  00050	8b 45 fc	 mov	 eax, DWORD PTR _this$[ebp]
  00053	8b 00		 mov	 eax, DWORD PTR [eax]
  00055	8b 40 08	 mov	 eax, DWORD PTR [eax+8]
  00058	89 45 f4	 mov	 DWORD PTR __Pnode$[ebp], eax
$LN8@operator:

; 451  :         while (!_Pnode->_Left->_Isnil) {

  0005b	8b 45 f4	 mov	 eax, DWORD PTR __Pnode$[ebp]
  0005e	8b 00		 mov	 eax, DWORD PTR [eax]
  00060	0f be 40 0d	 movsx	 eax, BYTE PTR [eax+13]
  00064	85 c0		 test	 eax, eax
  00066	75 0a		 jne	 SHORT $LN9@operator

; 452  :             _Pnode = _Pnode->_Left;

  00068	8b 45 f4	 mov	 eax, DWORD PTR __Pnode$[ebp]
  0006b	8b 00		 mov	 eax, DWORD PTR [eax]
  0006d	89 45 f4	 mov	 DWORD PTR __Pnode$[ebp], eax

; 453  :         }

  00070	eb e9		 jmp	 SHORT $LN8@operator
$LN9@operator:

; 454  : 
; 455  :         return _Pnode;

  00072	8b 45 f4	 mov	 eax, DWORD PTR __Pnode$[ebp]
  00075	89 45 f0	 mov	 DWORD PTR $T1[ebp], eax

; 60   :             _Ptr = _Mytree::_Min(_Ptr->_Right); // ==> smallest of right subtree

  00078	8b 45 fc	 mov	 eax, DWORD PTR _this$[ebp]
  0007b	8b 4d f0	 mov	 ecx, DWORD PTR $T1[ebp]
  0007e	89 08		 mov	 DWORD PTR [eax], ecx
$LN5@operator:

; 61   :         }
; 62   : 
; 63   :         return *this;

  00080	8b 45 fc	 mov	 eax, DWORD PTR _this$[ebp]

; 64   :     }

  00083	c9		 leave
  00084	c3		 ret	 0
??E?$_Tree_unchecked_const_iterator@V?$_Tree_val@U?$_Tree_simple_types@U?$pair@$$CBKPAVCProperty@@@std@@@std@@@std@@U_Iterator_base0@2@@std@@QAEAAV01@XZ ENDP ; std::_Tree_unchecked_const_iterator<std::_Tree_val<std::_Tree_simple_types<std::pair<unsigned long const ,CProperty *> > >,std::_Iterator_base0>::operator++
_TEXT	ENDS
; Function compile flags: /Odspy
; File C:\Program Files (x86)\Microsoft Visual Studio\2019\Community\VC\Tools\MSVC\14.28.29333\include\xtree
; File C:\Program Files (x86)\Microsoft Visual Studio\2019\Community\VC\Tools\MSVC\14.28.29333\include\xstddef
; File C:\Program Files (x86)\Microsoft Visual Studio\2019\Community\VC\Tools\MSVC\14.28.29333\include\xtree
; File C:\Program Files (x86)\Microsoft Visual Studio\2019\Community\VC\Tools\MSVC\14.28.29333\include\type_traits
; File C:\Program Files (x86)\Microsoft Visual Studio\2019\Community\VC\Tools\MSVC\14.28.29333\include\utility
; File C:\Program Files (x86)\Microsoft Visual Studio\2019\Community\VC\Tools\MSVC\14.28.29333\include\type_traits
; File C:\Program Files (x86)\Microsoft Visual Studio\2019\Community\VC\Tools\MSVC\14.28.29333\include\utility
; File C:\Program Files (x86)\Microsoft Visual Studio\2019\Community\VC\Tools\MSVC\14.28.29333\include\xtree
;	COMDAT ??$insert@$0A@$0A@@?$_Tree@V?$_Tset_traits@KU?$less@K@std@@V?$allocator@K@2@$0A@@std@@@std@@QAE?AU?$pair@V?$_Tree_const_iterator@V?$_Tree_val@U?$_Tree_simple_types@K@std@@@std@@@std@@_N@1@ABK@Z
_TEXT	SEGMENT
__Result$ = -36						; size = 8
$T1 = -28						; size = 4
$T2 = -24						; size = 4
$T3 = -20						; size = 4
$T4 = -16						; size = 4
___param0$ = -12					; size = 4
$T5 = -8						; size = 4
_this$ = -4						; size = 4
___$ReturnUdt$ = 8					; size = 4
__Val$ = 12						; size = 4
??$insert@$0A@$0A@@?$_Tree@V?$_Tset_traits@KU?$less@K@std@@V?$allocator@K@2@$0A@@std@@@std@@QAE?AU?$pair@V?$_Tree_const_iterator@V?$_Tree_val@U?$_Tree_simple_types@K@std@@@std@@@std@@_N@1@ABK@Z PROC ; std::_Tree<std::_Tset_traits<unsigned long,std::less<unsigned long>,std::allocator<unsigned long>,0> >::insert<0,0>, COMDAT
; _this$ = ecx

; 1332 :     pair<iterator, bool> insert(const value_type& _Val) {

  00000	55		 push	 ebp
  00001	8b ec		 mov	 ebp, esp
  00003	83 ec 24	 sub	 esp, 36			; 00000024H
  00006	89 4d fc	 mov	 DWORD PTR _this$[ebp], ecx

; 1333 :         const auto _Result = _Emplace(_Val);

  00009	ff 75 0c	 push	 DWORD PTR __Val$[ebp]
  0000c	8d 45 dc	 lea	 eax, DWORD PTR __Result$[ebp]
  0000f	50		 push	 eax
  00010	8b 4d fc	 mov	 ecx, DWORD PTR _this$[ebp]
  00013	e8 00 00 00 00	 call	 ??$_Emplace@ABK@?$_Tree@V?$_Tset_traits@KU?$less@K@std@@V?$allocator@K@2@$0A@@std@@@std@@IAE?AU?$pair@PAU?$_Tree_node@KPAX@std@@_N@1@ABK@Z ; std::_Tree<std::_Tset_traits<unsigned long,std::less<unsigned long>,std::allocator<unsigned long>,0> >::_Emplace<unsigned long const &>

; 2047 :         return _STD addressof(_Mypair._Myval2._Myval2);

  00018	8b 45 fc	 mov	 eax, DWORD PTR _this$[ebp]
; File C:\Program Files (x86)\Microsoft Visual Studio\2019\Community\VC\Tools\MSVC\14.28.29333\include\xstddef

; 275  :     return __builtin_addressof(_Val);

  0001b	89 45 f8	 mov	 DWORD PTR $T5[ebp], eax
; File C:\Program Files (x86)\Microsoft Visual Studio\2019\Community\VC\Tools\MSVC\14.28.29333\include\xtree

; 2047 :         return _STD addressof(_Mypair._Myval2._Myval2);

  0001e	8b 45 f8	 mov	 eax, DWORD PTR $T5[ebp]
  00021	89 45 e4	 mov	 DWORD PTR $T1[ebp], eax

; 1334 :         return {iterator(_Result.first, _Get_scary()), _Result.second};

  00024	8b 45 dc	 mov	 eax, DWORD PTR __Result$[ebp]
  00027	89 45 f4	 mov	 DWORD PTR ___param0$[ebp], eax

; 39   :     _Tree_unchecked_const_iterator(_Nodeptr _Pnode, const _Mytree* _Plist) noexcept : _Ptr(_Pnode) {

  0002a	8b 45 f4	 mov	 eax, DWORD PTR ___param0$[ebp]
  0002d	89 45 f0	 mov	 DWORD PTR $T4[ebp], eax
; File C:\Program Files (x86)\Microsoft Visual Studio\2019\Community\VC\Tools\MSVC\14.28.29333\include\type_traits

; 1443 :     return static_cast<_Ty&&>(_Arg);

  00030	8d 45 f0	 lea	 eax, DWORD PTR $T4[ebp]
  00033	89 45 ec	 mov	 DWORD PTR $T3[ebp], eax
; File C:\Program Files (x86)\Microsoft Visual Studio\2019\Community\VC\Tools\MSVC\14.28.29333\include\utility

; 190  :         : first(_STD forward<_Other1>(_Val1)), second(_STD forward<_Other2>(_Val2)) {}

  00036	8b 45 ec	 mov	 eax, DWORD PTR $T3[ebp]
  00039	8b 00		 mov	 eax, DWORD PTR [eax]
  0003b	8b 4d 08	 mov	 ecx, DWORD PTR ___$ReturnUdt$[ebp]
  0003e	89 01		 mov	 DWORD PTR [ecx], eax
; File C:\Program Files (x86)\Microsoft Visual Studio\2019\Community\VC\Tools\MSVC\14.28.29333\include\type_traits

; 1443 :     return static_cast<_Ty&&>(_Arg);

  00040	8d 45 e0	 lea	 eax, DWORD PTR __Result$[ebp+4]
  00043	89 45 e8	 mov	 DWORD PTR $T2[ebp], eax
; File C:\Program Files (x86)\Microsoft Visual Studio\2019\Community\VC\Tools\MSVC\14.28.29333\include\utility

; 190  :         : first(_STD forward<_Other1>(_Val1)), second(_STD forward<_Other2>(_Val2)) {}

  00046	8b 45 08	 mov	 eax, DWORD PTR ___$ReturnUdt$[ebp]
  00049	8b 4d e8	 mov	 ecx, DWORD PTR $T2[ebp]
  0004c	8a 09		 mov	 cl, BYTE PTR [ecx]
  0004e	88 48 04	 mov	 BYTE PTR [eax+4], cl
; File C:\Program Files (x86)\Microsoft Visual Studio\2019\Community\VC\Tools\MSVC\14.28.29333\include\xtree

; 1334 :         return {iterator(_Result.first, _Get_scary()), _Result.second};

  00051	8b 45 08	 mov	 eax, DWORD PTR ___$ReturnUdt$[ebp]

; 1335 :     }

  00054	c9		 leave
  00055	c2 08 00	 ret	 8
??$insert@$0A@$0A@@?$_Tree@V?$_Tset_traits@KU?$less@K@std@@V?$allocator@K@2@$0A@@std@@@std@@QAE?AU?$pair@V?$_Tree_const_iterator@V?$_Tree_val@U?$_Tree_simple_types@K@std@@@std@@@std@@_N@1@ABK@Z ENDP ; std::_Tree<std::_Tset_traits<unsigned long,std::less<unsigned long>,std::allocator<unsigned long>,0> >::insert<0,0>
_TEXT	ENDS
; Function compile flags: /Odspy
;	COMDAT ??_GCPropertyManager@@UAEPAXI@Z
_TEXT	SEGMENT
_this$ = -4						; size = 4
___flags$ = 8						; size = 4
??_GCPropertyManager@@UAEPAXI@Z PROC			; CPropertyManager::`scalar deleting destructor', COMDAT
; _this$ = ecx
  00000	55		 push	 ebp
  00001	8b ec		 mov	 ebp, esp
  00003	51		 push	 ecx
  00004	89 4d fc	 mov	 DWORD PTR _this$[ebp], ecx
  00007	8b 4d fc	 mov	 ecx, DWORD PTR _this$[ebp]
  0000a	e8 00 00 00 00	 call	 ??1CPropertyManager@@UAE@XZ ; CPropertyManager::~CPropertyManager
  0000f	8b 45 08	 mov	 eax, DWORD PTR ___flags$[ebp]
  00012	83 e0 01	 and	 eax, 1
  00015	74 0f		 je	 SHORT $LN2@scalar
  00017	68 1c 14 00 00	 push	 5148			; 0000141cH
  0001c	ff 75 fc	 push	 DWORD PTR _this$[ebp]
  0001f	e8 00 00 00 00	 call	 ??3@YAXPAXI@Z		; operator delete
  00024	59		 pop	 ecx
  00025	59		 pop	 ecx
$LN2@scalar:
  00026	8b 45 fc	 mov	 eax, DWORD PTR _this$[ebp]
  00029	c9		 leave
  0002a	c2 04 00	 ret	 4
??_GCPropertyManager@@UAEPAXI@Z ENDP			; CPropertyManager::`scalar deleting destructor'
_TEXT	ENDS
; Function compile flags: /Odspy
;	COMDAT ??1?$set@KU?$less@K@std@@V?$allocator@K@2@@std@@QAE@XZ
_TEXT	SEGMENT
_this$ = -4						; size = 4
??1?$set@KU?$less@K@std@@V?$allocator@K@2@@std@@QAE@XZ PROC ; std::set<unsigned long,std::less<unsigned long>,std::allocator<unsigned long> >::~set<unsigned long,std::less<unsigned long>,std::allocator<unsigned long> >, COMDAT
; _this$ = ecx
  00000	55		 push	 ebp
  00001	8b ec		 mov	 ebp, esp
  00003	51		 push	 ecx
  00004	89 4d fc	 mov	 DWORD PTR _this$[ebp], ecx
  00007	8b 4d fc	 mov	 ecx, DWORD PTR _this$[ebp]
  0000a	e8 00 00 00 00	 call	 ??1?$_Tree@V?$_Tset_traits@KU?$less@K@std@@V?$allocator@K@2@$0A@@std@@@std@@QAE@XZ ; std::_Tree<std::_Tset_traits<unsigned long,std::less<unsigned long>,std::allocator<unsigned long>,0> >::~_Tree<std::_Tset_traits<unsigned long,std::less<unsigned long>,std::allocator<unsigned long>,0> >
  0000f	c9		 leave
  00010	c3		 ret	 0
??1?$set@KU?$less@K@std@@V?$allocator@K@2@@std@@QAE@XZ ENDP ; std::set<unsigned long,std::less<unsigned long>,std::allocator<unsigned long> >::~set<unsigned long,std::less<unsigned long>,std::allocator<unsigned long> >
_TEXT	ENDS
; Function compile flags: /Odspy
; File C:\Program Files (x86)\Microsoft Visual Studio\2019\Community\VC\Tools\MSVC\14.28.29333\include\xtree
;	COMDAT ?_Insert_node@?$_Tree_val@U?$_Tree_simple_types@K@std@@@std@@QAEPAU?$_Tree_node@KPAX@2@U?$_Tree_id@PAU?$_Tree_node@KPAX@std@@@2@QAU32@@Z
_TEXT	SEGMENT
__Parent_sibling$1 = -20				; size = 4
__Parent_sibling$2 = -16				; size = 4
_this$ = -12						; size = 4
__Head$ = -8						; size = 4
__Pnode$3 = -4						; size = 4
__Loc$ = 8						; size = 8
__Newnode$ = 16						; size = 4
?_Insert_node@?$_Tree_val@U?$_Tree_simple_types@K@std@@@std@@QAEPAU?$_Tree_node@KPAX@2@U?$_Tree_id@PAU?$_Tree_node@KPAX@std@@@2@QAU32@@Z PROC ; std::_Tree_val<std::_Tree_simple_types<unsigned long> >::_Insert_node, COMDAT
; _this$ = ecx

; 644  :     _Nodeptr _Insert_node(const _Tree_id<_Nodeptr> _Loc, const _Nodeptr _Newnode) noexcept {

  00000	55		 push	 ebp
  00001	8b ec		 mov	 ebp, esp
  00003	83 ec 14	 sub	 esp, 20			; 00000014H
  00006	89 4d f4	 mov	 DWORD PTR _this$[ebp], ecx

; 645  :         ++_Mysize;

  00009	8b 45 f4	 mov	 eax, DWORD PTR _this$[ebp]
  0000c	8b 40 04	 mov	 eax, DWORD PTR [eax+4]
  0000f	40		 inc	 eax
  00010	8b 4d f4	 mov	 ecx, DWORD PTR _this$[ebp]
  00013	89 41 04	 mov	 DWORD PTR [ecx+4], eax

; 646  :         const auto _Head  = _Myhead;

  00016	8b 45 f4	 mov	 eax, DWORD PTR _this$[ebp]
  00019	8b 00		 mov	 eax, DWORD PTR [eax]
  0001b	89 45 f8	 mov	 DWORD PTR __Head$[ebp], eax

; 647  :         _Newnode->_Parent = _Loc._Parent;

  0001e	8b 45 10	 mov	 eax, DWORD PTR __Newnode$[ebp]
  00021	8b 4d 08	 mov	 ecx, DWORD PTR __Loc$[ebp]
  00024	89 48 04	 mov	 DWORD PTR [eax+4], ecx

; 648  :         if (_Loc._Parent == _Head) { // first node in tree, just set head values

  00027	8b 45 08	 mov	 eax, DWORD PTR __Loc$[ebp]
  0002a	3b 45 f8	 cmp	 eax, DWORD PTR __Head$[ebp]
  0002d	75 29		 jne	 SHORT $LN5@Insert_nod

; 649  :             _Head->_Left     = _Newnode;

  0002f	8b 45 f8	 mov	 eax, DWORD PTR __Head$[ebp]
  00032	8b 4d 10	 mov	 ecx, DWORD PTR __Newnode$[ebp]
  00035	89 08		 mov	 DWORD PTR [eax], ecx

; 650  :             _Head->_Parent   = _Newnode;

  00037	8b 45 f8	 mov	 eax, DWORD PTR __Head$[ebp]
  0003a	8b 4d 10	 mov	 ecx, DWORD PTR __Newnode$[ebp]
  0003d	89 48 04	 mov	 DWORD PTR [eax+4], ecx

; 651  :             _Head->_Right    = _Newnode;

  00040	8b 45 f8	 mov	 eax, DWORD PTR __Head$[ebp]
  00043	8b 4d 10	 mov	 ecx, DWORD PTR __Newnode$[ebp]
  00046	89 48 08	 mov	 DWORD PTR [eax+8], ecx

; 652  :             _Newnode->_Color = _Black; // the root is black

  00049	8b 45 10	 mov	 eax, DWORD PTR __Newnode$[ebp]
  0004c	c6 40 0c 01	 mov	 BYTE PTR [eax+12], 1

; 653  :             return _Newnode;

  00050	8b 45 10	 mov	 eax, DWORD PTR __Newnode$[ebp]
  00053	e9 a3 01 00 00	 jmp	 $LN18@Insert_nod
$LN5@Insert_nod:

; 654  :         }
; 655  : 
; 656  :         _STL_INTERNAL_CHECK(_Loc._Child != _Tree_child::_Unused);
; 657  :         if (_Loc._Child == _Tree_child::_Right) { // add to right of _Loc._Parent

  00058	83 7d 0c 00	 cmp	 DWORD PTR __Loc$[ebp+4], 0
  0005c	75 1f		 jne	 SHORT $LN6@Insert_nod

; 658  :             _STL_INTERNAL_CHECK(_Loc._Parent->_Right->_Isnil);
; 659  :             _Loc._Parent->_Right = _Newnode;

  0005e	8b 45 08	 mov	 eax, DWORD PTR __Loc$[ebp]
  00061	8b 4d 10	 mov	 ecx, DWORD PTR __Newnode$[ebp]
  00064	89 48 08	 mov	 DWORD PTR [eax+8], ecx

; 660  :             if (_Loc._Parent == _Head->_Right) { // remember rightmost node

  00067	8b 45 f8	 mov	 eax, DWORD PTR __Head$[ebp]
  0006a	8b 4d 08	 mov	 ecx, DWORD PTR __Loc$[ebp]
  0006d	3b 48 08	 cmp	 ecx, DWORD PTR [eax+8]
  00070	75 09		 jne	 SHORT $LN8@Insert_nod

; 661  :                 _Head->_Right = _Newnode;

  00072	8b 45 f8	 mov	 eax, DWORD PTR __Head$[ebp]
  00075	8b 4d 10	 mov	 ecx, DWORD PTR __Newnode$[ebp]
  00078	89 48 08	 mov	 DWORD PTR [eax+8], ecx
$LN8@Insert_nod:

; 662  :             }
; 663  :         } else { // add to left of _Loc._Parent

  0007b	eb 1a		 jmp	 SHORT $LN7@Insert_nod
$LN6@Insert_nod:

; 664  :             _STL_INTERNAL_CHECK(_Loc._Parent->_Left->_Isnil);
; 665  :             _Loc._Parent->_Left = _Newnode;

  0007d	8b 45 08	 mov	 eax, DWORD PTR __Loc$[ebp]
  00080	8b 4d 10	 mov	 ecx, DWORD PTR __Newnode$[ebp]
  00083	89 08		 mov	 DWORD PTR [eax], ecx

; 666  :             if (_Loc._Parent == _Head->_Left) { // remember leftmost node

  00085	8b 45 f8	 mov	 eax, DWORD PTR __Head$[ebp]
  00088	8b 4d 08	 mov	 ecx, DWORD PTR __Loc$[ebp]
  0008b	3b 08		 cmp	 ecx, DWORD PTR [eax]
  0008d	75 08		 jne	 SHORT $LN7@Insert_nod

; 667  :                 _Head->_Left = _Newnode;

  0008f	8b 45 f8	 mov	 eax, DWORD PTR __Head$[ebp]
  00092	8b 4d 10	 mov	 ecx, DWORD PTR __Newnode$[ebp]
  00095	89 08		 mov	 DWORD PTR [eax], ecx
$LN7@Insert_nod:

; 668  :             }
; 669  :         }
; 670  : 
; 671  :         for (_Nodeptr _Pnode = _Newnode; _Pnode->_Parent->_Color == _Red;) {

  00097	8b 45 10	 mov	 eax, DWORD PTR __Newnode$[ebp]
  0009a	89 45 fc	 mov	 DWORD PTR __Pnode$3[ebp], eax
$LN4@Insert_nod:
  0009d	8b 45 fc	 mov	 eax, DWORD PTR __Pnode$3[ebp]
  000a0	8b 40 04	 mov	 eax, DWORD PTR [eax+4]
  000a3	0f be 40 0c	 movsx	 eax, BYTE PTR [eax+12]
  000a7	85 c0		 test	 eax, eax
  000a9	0f 85 3f 01 00
	00		 jne	 $LN3@Insert_nod

; 672  :             if (_Pnode->_Parent == _Pnode->_Parent->_Parent->_Left) { // fixup red-red in left subtree

  000af	8b 45 fc	 mov	 eax, DWORD PTR __Pnode$3[ebp]
  000b2	8b 40 04	 mov	 eax, DWORD PTR [eax+4]
  000b5	8b 40 04	 mov	 eax, DWORD PTR [eax+4]
  000b8	8b 4d fc	 mov	 ecx, DWORD PTR __Pnode$3[ebp]
  000bb	8b 49 04	 mov	 ecx, DWORD PTR [ecx+4]
  000be	3b 08		 cmp	 ecx, DWORD PTR [eax]
  000c0	0f 85 95 00 00
	00		 jne	 $LN10@Insert_nod

; 673  :                 const auto _Parent_sibling = _Pnode->_Parent->_Parent->_Right;

  000c6	8b 45 fc	 mov	 eax, DWORD PTR __Pnode$3[ebp]
  000c9	8b 40 04	 mov	 eax, DWORD PTR [eax+4]
  000cc	8b 40 04	 mov	 eax, DWORD PTR [eax+4]
  000cf	8b 40 08	 mov	 eax, DWORD PTR [eax+8]
  000d2	89 45 f0	 mov	 DWORD PTR __Parent_sibling$2[ebp], eax

; 674  :                 if (_Parent_sibling->_Color == _Red) { // parent's sibling has two red children, blacken both

  000d5	8b 45 f0	 mov	 eax, DWORD PTR __Parent_sibling$2[ebp]
  000d8	0f be 40 0c	 movsx	 eax, BYTE PTR [eax+12]
  000dc	85 c0		 test	 eax, eax
  000de	75 2c		 jne	 SHORT $LN12@Insert_nod

; 675  :                     _Pnode->_Parent->_Color          = _Black;

  000e0	8b 45 fc	 mov	 eax, DWORD PTR __Pnode$3[ebp]
  000e3	8b 40 04	 mov	 eax, DWORD PTR [eax+4]
  000e6	c6 40 0c 01	 mov	 BYTE PTR [eax+12], 1

; 676  :                     _Parent_sibling->_Color          = _Black;

  000ea	8b 45 f0	 mov	 eax, DWORD PTR __Parent_sibling$2[ebp]
  000ed	c6 40 0c 01	 mov	 BYTE PTR [eax+12], 1

; 677  :                     _Pnode->_Parent->_Parent->_Color = _Red;

  000f1	8b 45 fc	 mov	 eax, DWORD PTR __Pnode$3[ebp]
  000f4	8b 40 04	 mov	 eax, DWORD PTR [eax+4]
  000f7	8b 40 04	 mov	 eax, DWORD PTR [eax+4]
  000fa	c6 40 0c 00	 mov	 BYTE PTR [eax+12], 0

; 678  :                     _Pnode                           = _Pnode->_Parent->_Parent;

  000fe	8b 45 fc	 mov	 eax, DWORD PTR __Pnode$3[ebp]
  00101	8b 40 04	 mov	 eax, DWORD PTR [eax+4]
  00104	8b 40 04	 mov	 eax, DWORD PTR [eax+4]
  00107	89 45 fc	 mov	 DWORD PTR __Pnode$3[ebp], eax

; 679  :                 } else { // parent's sibling has red and black children

  0010a	eb 4a		 jmp	 SHORT $LN13@Insert_nod
$LN12@Insert_nod:

; 680  :                     if (_Pnode == _Pnode->_Parent->_Right) { // rotate right child to left

  0010c	8b 45 fc	 mov	 eax, DWORD PTR __Pnode$3[ebp]
  0010f	8b 40 04	 mov	 eax, DWORD PTR [eax+4]
  00112	8b 4d fc	 mov	 ecx, DWORD PTR __Pnode$3[ebp]
  00115	3b 48 08	 cmp	 ecx, DWORD PTR [eax+8]
  00118	75 14		 jne	 SHORT $LN14@Insert_nod

; 681  :                         _Pnode = _Pnode->_Parent;

  0011a	8b 45 fc	 mov	 eax, DWORD PTR __Pnode$3[ebp]
  0011d	8b 40 04	 mov	 eax, DWORD PTR [eax+4]
  00120	89 45 fc	 mov	 DWORD PTR __Pnode$3[ebp], eax

; 682  :                         _Lrotate(_Pnode);

  00123	ff 75 fc	 push	 DWORD PTR __Pnode$3[ebp]
  00126	8b 4d f4	 mov	 ecx, DWORD PTR _this$[ebp]
  00129	e8 00 00 00 00	 call	 ?_Lrotate@?$_Tree_val@U?$_Tree_simple_types@K@std@@@std@@QAEXPAU?$_Tree_node@KPAX@2@@Z ; std::_Tree_val<std::_Tree_simple_types<unsigned long> >::_Lrotate
$LN14@Insert_nod:

; 683  :                     }
; 684  : 
; 685  :                     _Pnode->_Parent->_Color          = _Black; // propagate red up

  0012e	8b 45 fc	 mov	 eax, DWORD PTR __Pnode$3[ebp]
  00131	8b 40 04	 mov	 eax, DWORD PTR [eax+4]
  00134	c6 40 0c 01	 mov	 BYTE PTR [eax+12], 1

; 686  :                     _Pnode->_Parent->_Parent->_Color = _Red;

  00138	8b 45 fc	 mov	 eax, DWORD PTR __Pnode$3[ebp]
  0013b	8b 40 04	 mov	 eax, DWORD PTR [eax+4]
  0013e	8b 40 04	 mov	 eax, DWORD PTR [eax+4]
  00141	c6 40 0c 00	 mov	 BYTE PTR [eax+12], 0

; 687  :                     _Rrotate(_Pnode->_Parent->_Parent);

  00145	8b 45 fc	 mov	 eax, DWORD PTR __Pnode$3[ebp]
  00148	8b 40 04	 mov	 eax, DWORD PTR [eax+4]
  0014b	ff 70 04	 push	 DWORD PTR [eax+4]
  0014e	8b 4d f4	 mov	 ecx, DWORD PTR _this$[ebp]
  00151	e8 00 00 00 00	 call	 ?_Rrotate@?$_Tree_val@U?$_Tree_simple_types@K@std@@@std@@QAEXPAU?$_Tree_node@KPAX@2@@Z ; std::_Tree_val<std::_Tree_simple_types<unsigned long> >::_Rrotate
$LN13@Insert_nod:

; 688  :                 }
; 689  :             } else { // fixup red-red in right subtree

  00156	e9 8e 00 00 00	 jmp	 $LN11@Insert_nod
$LN10@Insert_nod:

; 690  :                 const auto _Parent_sibling = _Pnode->_Parent->_Parent->_Left;

  0015b	8b 45 fc	 mov	 eax, DWORD PTR __Pnode$3[ebp]
  0015e	8b 40 04	 mov	 eax, DWORD PTR [eax+4]
  00161	8b 40 04	 mov	 eax, DWORD PTR [eax+4]
  00164	8b 00		 mov	 eax, DWORD PTR [eax]
  00166	89 45 ec	 mov	 DWORD PTR __Parent_sibling$1[ebp], eax

; 691  :                 if (_Parent_sibling->_Color == _Red) { // parent's sibling has two red children, blacken both

  00169	8b 45 ec	 mov	 eax, DWORD PTR __Parent_sibling$1[ebp]
  0016c	0f be 40 0c	 movsx	 eax, BYTE PTR [eax+12]
  00170	85 c0		 test	 eax, eax
  00172	75 2c		 jne	 SHORT $LN15@Insert_nod

; 692  :                     _Pnode->_Parent->_Color          = _Black;

  00174	8b 45 fc	 mov	 eax, DWORD PTR __Pnode$3[ebp]
  00177	8b 40 04	 mov	 eax, DWORD PTR [eax+4]
  0017a	c6 40 0c 01	 mov	 BYTE PTR [eax+12], 1

; 693  :                     _Parent_sibling->_Color          = _Black;

  0017e	8b 45 ec	 mov	 eax, DWORD PTR __Parent_sibling$1[ebp]
  00181	c6 40 0c 01	 mov	 BYTE PTR [eax+12], 1

; 694  :                     _Pnode->_Parent->_Parent->_Color = _Red;

  00185	8b 45 fc	 mov	 eax, DWORD PTR __Pnode$3[ebp]
  00188	8b 40 04	 mov	 eax, DWORD PTR [eax+4]
  0018b	8b 40 04	 mov	 eax, DWORD PTR [eax+4]
  0018e	c6 40 0c 00	 mov	 BYTE PTR [eax+12], 0

; 695  :                     _Pnode                           = _Pnode->_Parent->_Parent;

  00192	8b 45 fc	 mov	 eax, DWORD PTR __Pnode$3[ebp]
  00195	8b 40 04	 mov	 eax, DWORD PTR [eax+4]
  00198	8b 40 04	 mov	 eax, DWORD PTR [eax+4]
  0019b	89 45 fc	 mov	 DWORD PTR __Pnode$3[ebp], eax

; 696  :                 } else { // parent's sibling has red and black children

  0019e	eb 49		 jmp	 SHORT $LN11@Insert_nod
$LN15@Insert_nod:

; 697  :                     if (_Pnode == _Pnode->_Parent->_Left) { // rotate left child to right

  001a0	8b 45 fc	 mov	 eax, DWORD PTR __Pnode$3[ebp]
  001a3	8b 40 04	 mov	 eax, DWORD PTR [eax+4]
  001a6	8b 4d fc	 mov	 ecx, DWORD PTR __Pnode$3[ebp]
  001a9	3b 08		 cmp	 ecx, DWORD PTR [eax]
  001ab	75 14		 jne	 SHORT $LN17@Insert_nod

; 698  :                         _Pnode = _Pnode->_Parent;

  001ad	8b 45 fc	 mov	 eax, DWORD PTR __Pnode$3[ebp]
  001b0	8b 40 04	 mov	 eax, DWORD PTR [eax+4]
  001b3	89 45 fc	 mov	 DWORD PTR __Pnode$3[ebp], eax

; 699  :                         _Rrotate(_Pnode);

  001b6	ff 75 fc	 push	 DWORD PTR __Pnode$3[ebp]
  001b9	8b 4d f4	 mov	 ecx, DWORD PTR _this$[ebp]
  001bc	e8 00 00 00 00	 call	 ?_Rrotate@?$_Tree_val@U?$_Tree_simple_types@K@std@@@std@@QAEXPAU?$_Tree_node@KPAX@2@@Z ; std::_Tree_val<std::_Tree_simple_types<unsigned long> >::_Rrotate
$LN17@Insert_nod:

; 700  :                     }
; 701  : 
; 702  :                     _Pnode->_Parent->_Color          = _Black; // propagate red up

  001c1	8b 45 fc	 mov	 eax, DWORD PTR __Pnode$3[ebp]
  001c4	8b 40 04	 mov	 eax, DWORD PTR [eax+4]
  001c7	c6 40 0c 01	 mov	 BYTE PTR [eax+12], 1

; 703  :                     _Pnode->_Parent->_Parent->_Color = _Red;

  001cb	8b 45 fc	 mov	 eax, DWORD PTR __Pnode$3[ebp]
  001ce	8b 40 04	 mov	 eax, DWORD PTR [eax+4]
  001d1	8b 40 04	 mov	 eax, DWORD PTR [eax+4]
  001d4	c6 40 0c 00	 mov	 BYTE PTR [eax+12], 0

; 704  :                     _Lrotate(_Pnode->_Parent->_Parent);

  001d8	8b 45 fc	 mov	 eax, DWORD PTR __Pnode$3[ebp]
  001db	8b 40 04	 mov	 eax, DWORD PTR [eax+4]
  001de	ff 70 04	 push	 DWORD PTR [eax+4]
  001e1	8b 4d f4	 mov	 ecx, DWORD PTR _this$[ebp]
  001e4	e8 00 00 00 00	 call	 ?_Lrotate@?$_Tree_val@U?$_Tree_simple_types@K@std@@@std@@QAEXPAU?$_Tree_node@KPAX@2@@Z ; std::_Tree_val<std::_Tree_simple_types<unsigned long> >::_Lrotate
$LN11@Insert_nod:

; 705  :                 }
; 706  :             }
; 707  :         }

  001e9	e9 af fe ff ff	 jmp	 $LN4@Insert_nod
$LN3@Insert_nod:

; 708  : 
; 709  :         _Head->_Parent->_Color = _Black; // root is always black

  001ee	8b 45 f8	 mov	 eax, DWORD PTR __Head$[ebp]
  001f1	8b 40 04	 mov	 eax, DWORD PTR [eax+4]
  001f4	c6 40 0c 01	 mov	 BYTE PTR [eax+12], 1

; 710  :         return _Newnode;

  001f8	8b 45 10	 mov	 eax, DWORD PTR __Newnode$[ebp]
$LN18@Insert_nod:

; 711  :     }

  001fb	c9		 leave
  001fc	c2 0c 00	 ret	 12			; 0000000cH
?_Insert_node@?$_Tree_val@U?$_Tree_simple_types@K@std@@@std@@QAEPAU?$_Tree_node@KPAX@2@U?$_Tree_id@PAU?$_Tree_node@KPAX@std@@@2@QAU32@@Z ENDP ; std::_Tree_val<std::_Tree_simple_types<unsigned long> >::_Insert_node
_TEXT	ENDS
; Function compile flags: /Odspy
; File C:\Program Files (x86)\Microsoft Visual Studio\2019\Community\VC\Tools\MSVC\14.28.29333\include\xtree
;	COMDAT ?_Rrotate@?$_Tree_val@U?$_Tree_simple_types@K@std@@@std@@QAEXPAU?$_Tree_node@KPAX@2@@Z
_TEXT	SEGMENT
_this$ = -8						; size = 4
__Pnode$ = -4						; size = 4
__Wherenode$ = 8					; size = 4
?_Rrotate@?$_Tree_val@U?$_Tree_simple_types@K@std@@@std@@QAEXPAU?$_Tree_node@KPAX@2@@Z PROC ; std::_Tree_val<std::_Tree_simple_types<unsigned long> >::_Rrotate, COMDAT
; _this$ = ecx

; 480  :     void _Rrotate(_Nodeptr _Wherenode) noexcept { // promote left node to root of subtree

  00000	55		 push	 ebp
  00001	8b ec		 mov	 ebp, esp
  00003	51		 push	 ecx
  00004	51		 push	 ecx
  00005	89 4d f8	 mov	 DWORD PTR _this$[ebp], ecx

; 481  :         _Nodeptr _Pnode   = _Wherenode->_Left;

  00008	8b 45 08	 mov	 eax, DWORD PTR __Wherenode$[ebp]
  0000b	8b 00		 mov	 eax, DWORD PTR [eax]
  0000d	89 45 fc	 mov	 DWORD PTR __Pnode$[ebp], eax

; 482  :         _Wherenode->_Left = _Pnode->_Right;

  00010	8b 45 08	 mov	 eax, DWORD PTR __Wherenode$[ebp]
  00013	8b 4d fc	 mov	 ecx, DWORD PTR __Pnode$[ebp]
  00016	8b 49 08	 mov	 ecx, DWORD PTR [ecx+8]
  00019	89 08		 mov	 DWORD PTR [eax], ecx

; 483  : 
; 484  :         if (!_Pnode->_Right->_Isnil) {

  0001b	8b 45 fc	 mov	 eax, DWORD PTR __Pnode$[ebp]
  0001e	8b 40 08	 mov	 eax, DWORD PTR [eax+8]
  00021	0f be 40 0d	 movsx	 eax, BYTE PTR [eax+13]
  00025	85 c0		 test	 eax, eax
  00027	75 0c		 jne	 SHORT $LN2@Rrotate

; 485  :             _Pnode->_Right->_Parent = _Wherenode;

  00029	8b 45 fc	 mov	 eax, DWORD PTR __Pnode$[ebp]
  0002c	8b 40 08	 mov	 eax, DWORD PTR [eax+8]
  0002f	8b 4d 08	 mov	 ecx, DWORD PTR __Wherenode$[ebp]
  00032	89 48 04	 mov	 DWORD PTR [eax+4], ecx
$LN2@Rrotate:

; 486  :         }
; 487  : 
; 488  :         _Pnode->_Parent = _Wherenode->_Parent;

  00035	8b 45 fc	 mov	 eax, DWORD PTR __Pnode$[ebp]
  00038	8b 4d 08	 mov	 ecx, DWORD PTR __Wherenode$[ebp]
  0003b	8b 49 04	 mov	 ecx, DWORD PTR [ecx+4]
  0003e	89 48 04	 mov	 DWORD PTR [eax+4], ecx

; 489  : 
; 490  :         if (_Wherenode == _Myhead->_Parent) {

  00041	8b 45 f8	 mov	 eax, DWORD PTR _this$[ebp]
  00044	8b 00		 mov	 eax, DWORD PTR [eax]
  00046	8b 4d 08	 mov	 ecx, DWORD PTR __Wherenode$[ebp]
  00049	3b 48 04	 cmp	 ecx, DWORD PTR [eax+4]
  0004c	75 0d		 jne	 SHORT $LN3@Rrotate

; 491  :             _Myhead->_Parent = _Pnode;

  0004e	8b 45 f8	 mov	 eax, DWORD PTR _this$[ebp]
  00051	8b 00		 mov	 eax, DWORD PTR [eax]
  00053	8b 4d fc	 mov	 ecx, DWORD PTR __Pnode$[ebp]
  00056	89 48 04	 mov	 DWORD PTR [eax+4], ecx
  00059	eb 27		 jmp	 SHORT $LN4@Rrotate
$LN3@Rrotate:

; 492  :         } else if (_Wherenode == _Wherenode->_Parent->_Right) {

  0005b	8b 45 08	 mov	 eax, DWORD PTR __Wherenode$[ebp]
  0005e	8b 40 04	 mov	 eax, DWORD PTR [eax+4]
  00061	8b 4d 08	 mov	 ecx, DWORD PTR __Wherenode$[ebp]
  00064	3b 48 08	 cmp	 ecx, DWORD PTR [eax+8]
  00067	75 0e		 jne	 SHORT $LN5@Rrotate

; 493  :             _Wherenode->_Parent->_Right = _Pnode;

  00069	8b 45 08	 mov	 eax, DWORD PTR __Wherenode$[ebp]
  0006c	8b 40 04	 mov	 eax, DWORD PTR [eax+4]
  0006f	8b 4d fc	 mov	 ecx, DWORD PTR __Pnode$[ebp]
  00072	89 48 08	 mov	 DWORD PTR [eax+8], ecx

; 494  :         } else {

  00075	eb 0b		 jmp	 SHORT $LN4@Rrotate
$LN5@Rrotate:

; 495  :             _Wherenode->_Parent->_Left = _Pnode;

  00077	8b 45 08	 mov	 eax, DWORD PTR __Wherenode$[ebp]
  0007a	8b 40 04	 mov	 eax, DWORD PTR [eax+4]
  0007d	8b 4d fc	 mov	 ecx, DWORD PTR __Pnode$[ebp]
  00080	89 08		 mov	 DWORD PTR [eax], ecx
$LN4@Rrotate:

; 496  :         }
; 497  : 
; 498  :         _Pnode->_Right      = _Wherenode;

  00082	8b 45 fc	 mov	 eax, DWORD PTR __Pnode$[ebp]
  00085	8b 4d 08	 mov	 ecx, DWORD PTR __Wherenode$[ebp]
  00088	89 48 08	 mov	 DWORD PTR [eax+8], ecx

; 499  :         _Wherenode->_Parent = _Pnode;

  0008b	8b 45 08	 mov	 eax, DWORD PTR __Wherenode$[ebp]
  0008e	8b 4d fc	 mov	 ecx, DWORD PTR __Pnode$[ebp]
  00091	89 48 04	 mov	 DWORD PTR [eax+4], ecx

; 500  :     }

  00094	c9		 leave
  00095	c2 04 00	 ret	 4
?_Rrotate@?$_Tree_val@U?$_Tree_simple_types@K@std@@@std@@QAEXPAU?$_Tree_node@KPAX@2@@Z ENDP ; std::_Tree_val<std::_Tree_simple_types<unsigned long> >::_Rrotate
_TEXT	ENDS
; Function compile flags: /Odspy
; File C:\Program Files (x86)\Microsoft Visual Studio\2019\Community\VC\Tools\MSVC\14.28.29333\include\xtree
;	COMDAT ?_Lrotate@?$_Tree_val@U?$_Tree_simple_types@K@std@@@std@@QAEXPAU?$_Tree_node@KPAX@2@@Z
_TEXT	SEGMENT
_this$ = -8						; size = 4
__Pnode$ = -4						; size = 4
__Wherenode$ = 8					; size = 4
?_Lrotate@?$_Tree_val@U?$_Tree_simple_types@K@std@@@std@@QAEXPAU?$_Tree_node@KPAX@2@@Z PROC ; std::_Tree_val<std::_Tree_simple_types<unsigned long> >::_Lrotate, COMDAT
; _this$ = ecx

; 458  :     void _Lrotate(_Nodeptr _Wherenode) noexcept { // promote right node to root of subtree

  00000	55		 push	 ebp
  00001	8b ec		 mov	 ebp, esp
  00003	51		 push	 ecx
  00004	51		 push	 ecx
  00005	89 4d f8	 mov	 DWORD PTR _this$[ebp], ecx

; 459  :         _Nodeptr _Pnode    = _Wherenode->_Right;

  00008	8b 45 08	 mov	 eax, DWORD PTR __Wherenode$[ebp]
  0000b	8b 40 08	 mov	 eax, DWORD PTR [eax+8]
  0000e	89 45 fc	 mov	 DWORD PTR __Pnode$[ebp], eax

; 460  :         _Wherenode->_Right = _Pnode->_Left;

  00011	8b 45 08	 mov	 eax, DWORD PTR __Wherenode$[ebp]
  00014	8b 4d fc	 mov	 ecx, DWORD PTR __Pnode$[ebp]
  00017	8b 09		 mov	 ecx, DWORD PTR [ecx]
  00019	89 48 08	 mov	 DWORD PTR [eax+8], ecx

; 461  : 
; 462  :         if (!_Pnode->_Left->_Isnil) {

  0001c	8b 45 fc	 mov	 eax, DWORD PTR __Pnode$[ebp]
  0001f	8b 00		 mov	 eax, DWORD PTR [eax]
  00021	0f be 40 0d	 movsx	 eax, BYTE PTR [eax+13]
  00025	85 c0		 test	 eax, eax
  00027	75 0b		 jne	 SHORT $LN2@Lrotate

; 463  :             _Pnode->_Left->_Parent = _Wherenode;

  00029	8b 45 fc	 mov	 eax, DWORD PTR __Pnode$[ebp]
  0002c	8b 00		 mov	 eax, DWORD PTR [eax]
  0002e	8b 4d 08	 mov	 ecx, DWORD PTR __Wherenode$[ebp]
  00031	89 48 04	 mov	 DWORD PTR [eax+4], ecx
$LN2@Lrotate:

; 464  :         }
; 465  : 
; 466  :         _Pnode->_Parent = _Wherenode->_Parent;

  00034	8b 45 fc	 mov	 eax, DWORD PTR __Pnode$[ebp]
  00037	8b 4d 08	 mov	 ecx, DWORD PTR __Wherenode$[ebp]
  0003a	8b 49 04	 mov	 ecx, DWORD PTR [ecx+4]
  0003d	89 48 04	 mov	 DWORD PTR [eax+4], ecx

; 467  : 
; 468  :         if (_Wherenode == _Myhead->_Parent) {

  00040	8b 45 f8	 mov	 eax, DWORD PTR _this$[ebp]
  00043	8b 00		 mov	 eax, DWORD PTR [eax]
  00045	8b 4d 08	 mov	 ecx, DWORD PTR __Wherenode$[ebp]
  00048	3b 48 04	 cmp	 ecx, DWORD PTR [eax+4]
  0004b	75 0d		 jne	 SHORT $LN3@Lrotate

; 469  :             _Myhead->_Parent = _Pnode;

  0004d	8b 45 f8	 mov	 eax, DWORD PTR _this$[ebp]
  00050	8b 00		 mov	 eax, DWORD PTR [eax]
  00052	8b 4d fc	 mov	 ecx, DWORD PTR __Pnode$[ebp]
  00055	89 48 04	 mov	 DWORD PTR [eax+4], ecx
  00058	eb 26		 jmp	 SHORT $LN4@Lrotate
$LN3@Lrotate:

; 470  :         } else if (_Wherenode == _Wherenode->_Parent->_Left) {

  0005a	8b 45 08	 mov	 eax, DWORD PTR __Wherenode$[ebp]
  0005d	8b 40 04	 mov	 eax, DWORD PTR [eax+4]
  00060	8b 4d 08	 mov	 ecx, DWORD PTR __Wherenode$[ebp]
  00063	3b 08		 cmp	 ecx, DWORD PTR [eax]
  00065	75 0d		 jne	 SHORT $LN5@Lrotate

; 471  :             _Wherenode->_Parent->_Left = _Pnode;

  00067	8b 45 08	 mov	 eax, DWORD PTR __Wherenode$[ebp]
  0006a	8b 40 04	 mov	 eax, DWORD PTR [eax+4]
  0006d	8b 4d fc	 mov	 ecx, DWORD PTR __Pnode$[ebp]
  00070	89 08		 mov	 DWORD PTR [eax], ecx

; 472  :         } else {

  00072	eb 0c		 jmp	 SHORT $LN4@Lrotate
$LN5@Lrotate:

; 473  :             _Wherenode->_Parent->_Right = _Pnode;

  00074	8b 45 08	 mov	 eax, DWORD PTR __Wherenode$[ebp]
  00077	8b 40 04	 mov	 eax, DWORD PTR [eax+4]
  0007a	8b 4d fc	 mov	 ecx, DWORD PTR __Pnode$[ebp]
  0007d	89 48 08	 mov	 DWORD PTR [eax+8], ecx
$LN4@Lrotate:

; 474  :         }
; 475  : 
; 476  :         _Pnode->_Left       = _Wherenode;

  00080	8b 45 fc	 mov	 eax, DWORD PTR __Pnode$[ebp]
  00083	8b 4d 08	 mov	 ecx, DWORD PTR __Wherenode$[ebp]
  00086	89 08		 mov	 DWORD PTR [eax], ecx

; 477  :         _Wherenode->_Parent = _Pnode;

  00088	8b 45 08	 mov	 eax, DWORD PTR __Wherenode$[ebp]
  0008b	8b 4d fc	 mov	 ecx, DWORD PTR __Pnode$[ebp]
  0008e	89 48 04	 mov	 DWORD PTR [eax+4], ecx

; 478  :     }

  00091	c9		 leave
  00092	c2 04 00	 ret	 4
?_Lrotate@?$_Tree_val@U?$_Tree_simple_types@K@std@@@std@@QAEXPAU?$_Tree_node@KPAX@2@@Z ENDP ; std::_Tree_val<std::_Tree_simple_types<unsigned long> >::_Lrotate
_TEXT	ENDS
; Function compile flags: /Odspy
; File C:\Program Files (x86)\Microsoft Visual Studio\2019\Community\VC\Tools\MSVC\14.28.29333\include\xtree
; File C:\Program Files (x86)\Microsoft Visual Studio\2019\Community\VC\Tools\MSVC\14.28.29333\include\xstddef
; File C:\Program Files (x86)\Microsoft Visual Studio\2019\Community\VC\Tools\MSVC\14.28.29333\include\xtree
; File C:\Program Files (x86)\Microsoft Visual Studio\2019\Community\VC\Tools\MSVC\14.28.29333\include\xmemory
; File C:\Program Files (x86)\Microsoft Visual Studio\2019\Community\VC\Tools\MSVC\14.28.29333\include\xtree
;	COMDAT ?_Alloc_sentinel_and_proxy@?$_Tree@V?$_Tset_traits@KU?$less@K@std@@V?$allocator@K@2@$0A@@std@@@std@@IAEXXZ
_TEXT	SEGMENT
__Alproxy$ = -28					; size = 4
__Scary$ = -24						; size = 4
$T1 = -20						; size = 4
$T2 = -16						; size = 4
$T3 = -12						; size = 4
_this$ = -8						; size = 4
_$S12$ = -1						; size = 1
?_Alloc_sentinel_and_proxy@?$_Tree@V?$_Tset_traits@KU?$less@K@std@@V?$allocator@K@2@$0A@@std@@@std@@IAEXXZ PROC ; std::_Tree<std::_Tset_traits<unsigned long,std::less<unsigned long>,std::allocator<unsigned long>,0> >::_Alloc_sentinel_and_proxy, COMDAT
; _this$ = ecx

; 2017 :     void _Alloc_sentinel_and_proxy() {

  00000	55		 push	 ebp
  00001	8b ec		 mov	 ebp, esp
  00003	83 ec 1c	 sub	 esp, 28			; 0000001cH
  00006	89 4d f8	 mov	 DWORD PTR _this$[ebp], ecx

; 2047 :         return _STD addressof(_Mypair._Myval2._Myval2);

  00009	8b 45 f8	 mov	 eax, DWORD PTR _this$[ebp]
; File C:\Program Files (x86)\Microsoft Visual Studio\2019\Community\VC\Tools\MSVC\14.28.29333\include\xstddef

; 275  :     return __builtin_addressof(_Val);

  0000c	89 45 f4	 mov	 DWORD PTR $T3[ebp], eax
; File C:\Program Files (x86)\Microsoft Visual Studio\2019\Community\VC\Tools\MSVC\14.28.29333\include\xtree

; 2047 :         return _STD addressof(_Mypair._Myval2._Myval2);

  0000f	8b 45 f4	 mov	 eax, DWORD PTR $T3[ebp]
  00012	89 45 e8	 mov	 DWORD PTR __Scary$[ebp], eax

; 2018 :         const auto _Scary = _Get_scary();
; 2019 :         auto&& _Alproxy   = _GET_PROXY_ALLOCATOR(_Alnode, _Getal());

  00015	8d 45 ff	 lea	 eax, DWORD PTR _$S12$[ebp]
  00018	89 45 e4	 mov	 DWORD PTR __Alproxy$[ebp], eax

; 2039 :         return _Mypair._Myval2._Get_first();

  0001b	8b 45 f8	 mov	 eax, DWORD PTR _this$[ebp]
; File C:\Program Files (x86)\Microsoft Visual Studio\2019\Community\VC\Tools\MSVC\14.28.29333\include\xmemory

; 1347 :         return *this;

  0001e	89 45 f0	 mov	 DWORD PTR $T2[ebp], eax
; File C:\Program Files (x86)\Microsoft Visual Studio\2019\Community\VC\Tools\MSVC\14.28.29333\include\xtree

; 2039 :         return _Mypair._Myval2._Get_first();

  00021	8b 45 f0	 mov	 eax, DWORD PTR $T2[ebp]
  00024	89 45 ec	 mov	 DWORD PTR $T1[ebp], eax

; 2020 :         _Container_proxy_ptr<_Alnode> _Proxy(_Alproxy, *_Scary);
; 2021 :         _Scary->_Myhead = _Node::_Buyheadnode(_Getal());

  00027	ff 75 ec	 push	 DWORD PTR $T1[ebp]
  0002a	e8 00 00 00 00	 call	 ??$_Buyheadnode@V?$allocator@U?$_Tree_node@KPAX@std@@@std@@@?$_Tree_node@KPAX@std@@SAPAU01@AAV?$allocator@U?$_Tree_node@KPAX@std@@@1@@Z ; std::_Tree_node<unsigned long,void *>::_Buyheadnode<std::allocator<std::_Tree_node<unsigned long,void *> > >
  0002f	59		 pop	 ecx
  00030	8b 4d e8	 mov	 ecx, DWORD PTR __Scary$[ebp]
  00033	89 01		 mov	 DWORD PTR [ecx], eax

; 2022 :         _Proxy._Release();
; 2023 :     }

  00035	c9		 leave
  00036	c3		 ret	 0
?_Alloc_sentinel_and_proxy@?$_Tree@V?$_Tset_traits@KU?$less@K@std@@V?$allocator@K@2@$0A@@std@@@std@@IAEXXZ ENDP ; std::_Tree<std::_Tset_traits<unsigned long,std::less<unsigned long>,std::allocator<unsigned long>,0> >::_Alloc_sentinel_and_proxy
_TEXT	ENDS
; Function compile flags: /Odspy
; File C:\Program Files (x86)\Microsoft Visual Studio\2019\Community\VC\Tools\MSVC\14.28.29333\include\xtree
; File C:\Program Files (x86)\Microsoft Visual Studio\2019\Community\VC\Tools\MSVC\14.28.29333\include\xstddef
; File C:\Program Files (x86)\Microsoft Visual Studio\2019\Community\VC\Tools\MSVC\14.28.29333\include\xtree
;	COMDAT ?_Check_grow_by_1@?$_Tree@V?$_Tset_traits@KU?$less@K@std@@V?$allocator@K@2@$0A@@std@@@std@@IAEXXZ
_TEXT	SEGMENT
$T1 = -12						; size = 4
$T2 = -8						; size = 4
_this$ = -4						; size = 4
?_Check_grow_by_1@?$_Tree@V?$_Tset_traits@KU?$less@K@std@@V?$allocator@K@2@$0A@@std@@@std@@IAEXXZ PROC ; std::_Tree<std::_Tset_traits<unsigned long,std::less<unsigned long>,std::allocator<unsigned long>,0> >::_Check_grow_by_1, COMDAT
; _this$ = ecx

; 1718 :     void _Check_grow_by_1() {

  00000	55		 push	 ebp
  00001	8b ec		 mov	 ebp, esp
  00003	83 ec 0c	 sub	 esp, 12			; 0000000cH
  00006	89 4d fc	 mov	 DWORD PTR _this$[ebp], ecx

; 2047 :         return _STD addressof(_Mypair._Myval2._Myval2);

  00009	8b 45 fc	 mov	 eax, DWORD PTR _this$[ebp]
; File C:\Program Files (x86)\Microsoft Visual Studio\2019\Community\VC\Tools\MSVC\14.28.29333\include\xstddef

; 275  :     return __builtin_addressof(_Val);

  0000c	89 45 f8	 mov	 DWORD PTR $T2[ebp], eax
; File C:\Program Files (x86)\Microsoft Visual Studio\2019\Community\VC\Tools\MSVC\14.28.29333\include\xtree

; 2047 :         return _STD addressof(_Mypair._Myval2._Myval2);

  0000f	8b 45 f8	 mov	 eax, DWORD PTR $T2[ebp]
  00012	89 45 f4	 mov	 DWORD PTR $T1[ebp], eax

; 1719 :         if (max_size() == _Get_scary()->_Mysize) {

  00015	8b 4d fc	 mov	 ecx, DWORD PTR _this$[ebp]
  00018	e8 00 00 00 00	 call	 ?max_size@?$_Tree@V?$_Tset_traits@KU?$less@K@std@@V?$allocator@K@2@$0A@@std@@@std@@QBEIXZ ; std::_Tree<std::_Tset_traits<unsigned long,std::less<unsigned long>,std::allocator<unsigned long>,0> >::max_size
  0001d	8b 4d f4	 mov	 ecx, DWORD PTR $T1[ebp]
  00020	3b 41 04	 cmp	 eax, DWORD PTR [ecx+4]
  00023	75 05		 jne	 SHORT $LN3@Check_grow

; 1720 :             _Throw_tree_length_error();

  00025	e8 00 00 00 00	 call	 ?_Throw_tree_length_error@std@@YAXXZ ; std::_Throw_tree_length_error
$LN3@Check_grow:

; 1721 :         }
; 1722 :     }

  0002a	c9		 leave
  0002b	c3		 ret	 0
?_Check_grow_by_1@?$_Tree@V?$_Tset_traits@KU?$less@K@std@@V?$allocator@K@2@$0A@@std@@@std@@IAEXXZ ENDP ; std::_Tree<std::_Tset_traits<unsigned long,std::less<unsigned long>,std::allocator<unsigned long>,0> >::_Check_grow_by_1
_TEXT	ENDS
; Function compile flags: /Odspy
; File C:\Program Files (x86)\Microsoft Visual Studio\2019\Community\VC\Tools\MSVC\14.28.29333\include\xtree
; File C:\Program Files (x86)\Microsoft Visual Studio\2019\Community\VC\Tools\MSVC\14.28.29333\include\xmemory
; File C:\Program Files (x86)\Microsoft Visual Studio\2019\Community\VC\Tools\MSVC\14.28.29333\include\xtree
; File C:\Program Files (x86)\Microsoft Visual Studio\2019\Community\VC\Tools\MSVC\14.28.29333\include\xmemory
; File C:\Program Files (x86)\Microsoft Visual Studio\2019\Community\VC\Tools\MSVC\14.28.29333\include\limits
; File C:\Program Files (x86)\Microsoft Visual Studio\2019\Community\VC\Tools\MSVC\14.28.29333\include\xtree
; File C:\Program Files (x86)\Microsoft Visual Studio\2019\Community\VC\Tools\MSVC\14.28.29333\include\utility
; File C:\Program Files (x86)\Microsoft Visual Studio\2019\Community\VC\Tools\MSVC\14.28.29333\include\xtree
;	COMDAT ?max_size@?$_Tree@V?$_Tset_traits@KU?$less@K@std@@V?$allocator@K@2@$0A@@std@@@std@@QBEIXZ
_TEXT	SEGMENT
$T1 = -36						; size = 4
$T2 = -32						; size = 4
$T3 = -28						; size = 4
$T4 = -24						; size = 4
$T5 = -20						; size = 4
_this$ = -16						; size = 4
tv68 = -12						; size = 4
$T6 = -8						; size = 4
$T7 = -4						; size = 4
?max_size@?$_Tree@V?$_Tset_traits@KU?$less@K@std@@V?$allocator@K@2@$0A@@std@@@std@@QBEIXZ PROC ; std::_Tree<std::_Tset_traits<unsigned long,std::less<unsigned long>,std::allocator<unsigned long>,0> >::max_size, COMDAT
; _this$ = ecx

; 1310 :     _NODISCARD size_type max_size() const noexcept {

  00000	55		 push	 ebp
  00001	8b ec		 mov	 ebp, esp
  00003	83 ec 24	 sub	 esp, 36			; 00000024H
  00006	89 4d f0	 mov	 DWORD PTR _this$[ebp], ecx

; 2043 :         return _Mypair._Myval2._Get_first();

  00009	8b 45 f0	 mov	 eax, DWORD PTR _this$[ebp]
; File C:\Program Files (x86)\Microsoft Visual Studio\2019\Community\VC\Tools\MSVC\14.28.29333\include\xmemory

; 1351 :         return *this;

  0000c	89 45 ec	 mov	 DWORD PTR $T5[ebp], eax
; File C:\Program Files (x86)\Microsoft Visual Studio\2019\Community\VC\Tools\MSVC\14.28.29333\include\xtree

; 2043 :         return _Mypair._Myval2._Get_first();

  0000f	8b 45 ec	 mov	 eax, DWORD PTR $T5[ebp]
  00012	89 45 dc	 mov	 DWORD PTR $T1[ebp], eax
; File C:\Program Files (x86)\Microsoft Visual Studio\2019\Community\VC\Tools\MSVC\14.28.29333\include\xmemory

; 710  :         return static_cast<size_t>(-1) / sizeof(value_type);

  00015	c7 45 fc cc cc
	cc 0c		 mov	 DWORD PTR $T7[ebp], 214748364 ; 0cccccccH
; File C:\Program Files (x86)\Microsoft Visual Studio\2019\Community\VC\Tools\MSVC\14.28.29333\include\limits

; 557  :         return INT_MAX;

  0001c	c7 45 e8 ff ff
	ff 7f		 mov	 DWORD PTR $T4[ebp], 2147483647 ; 7fffffffH
; File C:\Program Files (x86)\Microsoft Visual Studio\2019\Community\VC\Tools\MSVC\14.28.29333\include\xtree

; 1311 :         return (_STD min)(

  00023	8b 45 e8	 mov	 eax, DWORD PTR $T4[ebp]
  00026	89 45 f8	 mov	 DWORD PTR $T6[ebp], eax
; File C:\Program Files (x86)\Microsoft Visual Studio\2019\Community\VC\Tools\MSVC\14.28.29333\include\utility

; 68   :     return _Right < _Left ? _Right : _Left;

  00029	8b 45 fc	 mov	 eax, DWORD PTR $T7[ebp]
  0002c	3b 45 f8	 cmp	 eax, DWORD PTR $T6[ebp]
  0002f	73 08		 jae	 SHORT $LN17@max_size
  00031	8d 45 fc	 lea	 eax, DWORD PTR $T7[ebp]
  00034	89 45 f4	 mov	 DWORD PTR tv68[ebp], eax
  00037	eb 06		 jmp	 SHORT $LN18@max_size
$LN17@max_size:
  00039	8d 45 f8	 lea	 eax, DWORD PTR $T6[ebp]
  0003c	89 45 f4	 mov	 DWORD PTR tv68[ebp], eax
$LN18@max_size:
  0003f	8b 45 f4	 mov	 eax, DWORD PTR tv68[ebp]
  00042	89 45 e4	 mov	 DWORD PTR $T3[ebp], eax
  00045	8b 45 e4	 mov	 eax, DWORD PTR $T3[ebp]
  00048	89 45 e0	 mov	 DWORD PTR $T2[ebp], eax
; File C:\Program Files (x86)\Microsoft Visual Studio\2019\Community\VC\Tools\MSVC\14.28.29333\include\xtree

; 1311 :         return (_STD min)(

  0004b	8b 45 e0	 mov	 eax, DWORD PTR $T2[ebp]
  0004e	8b 00		 mov	 eax, DWORD PTR [eax]

; 1312 :             static_cast<size_type>((numeric_limits<difference_type>::max)()), _Alnode_traits::max_size(_Getal()));
; 1313 :     }

  00050	c9		 leave
  00051	c3		 ret	 0
?max_size@?$_Tree@V?$_Tset_traits@KU?$less@K@std@@V?$allocator@K@2@$0A@@std@@@std@@QBEIXZ ENDP ; std::_Tree<std::_Tset_traits<unsigned long,std::less<unsigned long>,std::allocator<unsigned long>,0> >::max_size
_TEXT	ENDS
; Function compile flags: /Odspy
; File C:\Program Files (x86)\Microsoft Visual Studio\2019\Community\VC\Tools\MSVC\14.28.29333\include\xtree
; File C:\Program Files (x86)\Microsoft Visual Studio\2019\Community\VC\Tools\MSVC\14.28.29333\include\xstddef
; File C:\Program Files (x86)\Microsoft Visual Studio\2019\Community\VC\Tools\MSVC\14.28.29333\include\xtree
; File C:\Program Files (x86)\Microsoft Visual Studio\2019\Community\VC\Tools\MSVC\14.28.29333\include\xmemory
; File C:\Program Files (x86)\Microsoft Visual Studio\2019\Community\VC\Tools\MSVC\14.28.29333\include\xtree
;	COMDAT ??1?$_Tree@V?$_Tset_traits@KU?$less@K@std@@V?$allocator@K@2@$0A@@std@@@std@@QAE@XZ
_TEXT	SEGMENT
$T1 = -20						; size = 4
$T2 = -16						; size = 4
$T3 = -12						; size = 4
_this$ = -8						; size = 4
__Scary$ = -4						; size = 4
??1?$_Tree@V?$_Tset_traits@KU?$less@K@std@@V?$allocator@K@2@$0A@@std@@@std@@QAE@XZ PROC ; std::_Tree<std::_Tset_traits<unsigned long,std::less<unsigned long>,std::allocator<unsigned long>,0> >::~_Tree<std::_Tset_traits<unsigned long,std::less<unsigned long>,std::allocator<unsigned long>,0> >, COMDAT
; _this$ = ecx

; 1189 :     ~_Tree() noexcept {

  00000	55		 push	 ebp
  00001	8b ec		 mov	 ebp, esp
  00003	83 ec 14	 sub	 esp, 20			; 00000014H
  00006	89 4d f8	 mov	 DWORD PTR _this$[ebp], ecx

; 2047 :         return _STD addressof(_Mypair._Myval2._Myval2);

  00009	8b 45 f8	 mov	 eax, DWORD PTR _this$[ebp]
; File C:\Program Files (x86)\Microsoft Visual Studio\2019\Community\VC\Tools\MSVC\14.28.29333\include\xstddef

; 275  :     return __builtin_addressof(_Val);

  0000c	89 45 f0	 mov	 DWORD PTR $T2[ebp], eax
; File C:\Program Files (x86)\Microsoft Visual Studio\2019\Community\VC\Tools\MSVC\14.28.29333\include\xtree

; 2047 :         return _STD addressof(_Mypair._Myval2._Myval2);

  0000f	8b 45 f0	 mov	 eax, DWORD PTR $T2[ebp]
  00012	89 45 fc	 mov	 DWORD PTR __Scary$[ebp], eax

; 2039 :         return _Mypair._Myval2._Get_first();

  00015	8b 45 f8	 mov	 eax, DWORD PTR _this$[ebp]
; File C:\Program Files (x86)\Microsoft Visual Studio\2019\Community\VC\Tools\MSVC\14.28.29333\include\xmemory

; 1347 :         return *this;

  00018	89 45 ec	 mov	 DWORD PTR $T1[ebp], eax
; File C:\Program Files (x86)\Microsoft Visual Studio\2019\Community\VC\Tools\MSVC\14.28.29333\include\xtree

; 2039 :         return _Mypair._Myval2._Get_first();

  0001b	8b 45 ec	 mov	 eax, DWORD PTR $T1[ebp]
  0001e	89 45 f4	 mov	 DWORD PTR $T3[ebp], eax

; 752  :         _Erase_tree(_Al, _Myhead->_Parent);

  00021	8b 45 fc	 mov	 eax, DWORD PTR __Scary$[ebp]
  00024	8b 00		 mov	 eax, DWORD PTR [eax]
  00026	ff 70 04	 push	 DWORD PTR [eax+4]
  00029	ff 75 f4	 push	 DWORD PTR $T3[ebp]
  0002c	8b 4d fc	 mov	 ecx, DWORD PTR __Scary$[ebp]
  0002f	e8 00 00 00 00	 call	 ??$_Erase_tree@V?$allocator@U?$_Tree_node@KPAX@std@@@std@@@?$_Tree_val@U?$_Tree_simple_types@K@std@@@std@@QAEXAAV?$allocator@U?$_Tree_node@KPAX@std@@@1@PAU?$_Tree_node@KPAX@1@@Z ; std::_Tree_val<std::_Tree_simple_types<unsigned long> >::_Erase_tree<std::allocator<std::_Tree_node<unsigned long,void *> > >

; 753  :         _Alnode::value_type::_Freenode0(_Al, _Myhead);

  00034	8b 45 fc	 mov	 eax, DWORD PTR __Scary$[ebp]
  00037	ff 30		 push	 DWORD PTR [eax]
  00039	ff 75 f4	 push	 DWORD PTR $T3[ebp]
  0003c	e8 00 00 00 00	 call	 ??$_Freenode0@V?$allocator@U?$_Tree_node@KPAX@std@@@std@@@?$_Tree_node@KPAX@std@@SAXAAV?$allocator@U?$_Tree_node@KPAX@std@@@1@PAU01@@Z ; std::_Tree_node<unsigned long,void *>::_Freenode0<std::allocator<std::_Tree_node<unsigned long,void *> > >
  00041	59		 pop	 ecx
  00042	59		 pop	 ecx

; 1190 :         const auto _Scary = _Get_scary();
; 1191 :         _Scary->_Erase_head(_Getal());
; 1192 : #if _ITERATOR_DEBUG_LEVEL != 0 // TRANSITION, ABI
; 1193 :         auto&& _Alproxy = _GET_PROXY_ALLOCATOR(_Alnode, _Getal());
; 1194 :         _Delete_plain_internal(_Alproxy, _Scary->_Myproxy);
; 1195 : #endif // _ITERATOR_DEBUG_LEVEL != 0
; 1196 :     }

  00043	c9		 leave
  00044	c3		 ret	 0
??1?$_Tree@V?$_Tset_traits@KU?$less@K@std@@V?$allocator@K@2@$0A@@std@@@std@@QAE@XZ ENDP ; std::_Tree<std::_Tset_traits<unsigned long,std::less<unsigned long>,std::allocator<unsigned long>,0> >::~_Tree<std::_Tset_traits<unsigned long,std::less<unsigned long>,std::allocator<unsigned long>,0> >
_TEXT	ENDS
; Function compile flags: /Odspy
; File C:\Program Files (x86)\Microsoft Visual Studio\2019\Community\VC\Tools\MSVC\14.28.29333\include\xtree
; File C:\Program Files (x86)\Microsoft Visual Studio\2019\Community\VC\Tools\MSVC\14.28.29333\include\type_traits
; File C:\Program Files (x86)\Microsoft Visual Studio\2019\Community\VC\Tools\MSVC\14.28.29333\include\xmemory
; File C:\Program Files (x86)\Microsoft Visual Studio\2019\Community\VC\Tools\MSVC\14.28.29333\include\xtree
;	COMDAT ??0?$_Tree@V?$_Tset_traits@KU?$less@K@std@@V?$allocator@K@2@$0A@@std@@@std@@QAE@ABU?$less@K@1@@Z
_TEXT	SEGMENT
_this$ = -28						; size = 4
_this$ = -24						; size = 4
$T1 = -20						; size = 4
_this$2 = -16						; size = 4
_this$ = -12						; size = 4
___formal$ = -8						; size = 1
$T3 = -1						; size = 1
__Parg$ = 8						; size = 4
??0?$_Tree@V?$_Tset_traits@KU?$less@K@std@@V?$allocator@K@2@$0A@@std@@@std@@QAE@ABU?$less@K@1@@Z PROC ; std::_Tree<std::_Tset_traits<unsigned long,std::less<unsigned long>,std::allocator<unsigned long>,0> >::_Tree<std::_Tset_traits<unsigned long,std::less<unsigned long>,std::allocator<unsigned long>,0> >, COMDAT
; _this$ = ecx

; 885  :     _Tree(const key_compare& _Parg) : _Mypair(_One_then_variadic_args_t{}, _Parg, _Zero_then_variadic_args_t{}) {

  00000	55		 push	 ebp
  00001	8b ec		 mov	 ebp, esp
  00003	83 ec 1c	 sub	 esp, 28			; 0000001cH
  00006	89 4d f4	 mov	 DWORD PTR _this$[ebp], ecx
  00009	8b 45 f4	 mov	 eax, DWORD PTR _this$[ebp]
  0000c	89 45 e8	 mov	 DWORD PTR _this$[ebp], eax
; File C:\Program Files (x86)\Microsoft Visual Studio\2019\Community\VC\Tools\MSVC\14.28.29333\include\type_traits

; 1443 :     return static_cast<_Ty&&>(_Arg);

  0000f	8d 45 ff	 lea	 eax, DWORD PTR $T3[ebp]
  00012	89 45 ec	 mov	 DWORD PTR $T1[ebp], eax
; File C:\Program Files (x86)\Microsoft Visual Studio\2019\Community\VC\Tools\MSVC\14.28.29333\include\xmemory

; 1344 :         : _Ty1(_STD forward<_Other1>(_Val1)), _Myval2(_STD forward<_Other2>(_Val2)...) {}

  00015	8b 45 ec	 mov	 eax, DWORD PTR $T1[ebp]
  00018	8a 00		 mov	 al, BYTE PTR [eax]
  0001a	88 45 f8	 mov	 BYTE PTR ___formal$[ebp], al
  0001d	8b 45 e8	 mov	 eax, DWORD PTR _this$[ebp]
  00020	89 45 e4	 mov	 DWORD PTR _this$[ebp], eax

; 1339 :         : _Ty1(), _Myval2(_STD forward<_Other2>(_Val2)...) {}

  00023	8b 45 e4	 mov	 eax, DWORD PTR _this$[ebp]
  00026	89 45 f0	 mov	 DWORD PTR _this$2[ebp], eax
; File C:\Program Files (x86)\Microsoft Visual Studio\2019\Community\VC\Tools\MSVC\14.28.29333\include\xtree

; 435  :     _Tree_val() noexcept : _Myhead(), _Mysize(0) {}

  00029	8b 45 f0	 mov	 eax, DWORD PTR _this$2[ebp]
  0002c	83 20 00	 and	 DWORD PTR [eax], 0
  0002f	8b 45 f0	 mov	 eax, DWORD PTR _this$2[ebp]
  00032	83 60 04 00	 and	 DWORD PTR [eax+4], 0

; 886  :         _Alloc_sentinel_and_proxy();

  00036	8b 4d f4	 mov	 ecx, DWORD PTR _this$[ebp]
  00039	e8 00 00 00 00	 call	 ?_Alloc_sentinel_and_proxy@?$_Tree@V?$_Tset_traits@KU?$less@K@std@@V?$allocator@K@2@$0A@@std@@@std@@IAEXXZ ; std::_Tree<std::_Tset_traits<unsigned long,std::less<unsigned long>,std::allocator<unsigned long>,0> >::_Alloc_sentinel_and_proxy

; 887  :     }

  0003e	8b 45 f4	 mov	 eax, DWORD PTR _this$[ebp]
  00041	c9		 leave
  00042	c2 04 00	 ret	 4
??0?$_Tree@V?$_Tset_traits@KU?$less@K@std@@V?$allocator@K@2@$0A@@std@@@std@@QAE@ABU?$less@K@1@@Z ENDP ; std::_Tree<std::_Tset_traits<unsigned long,std::less<unsigned long>,std::allocator<unsigned long>,0> >::_Tree<std::_Tset_traits<unsigned long,std::less<unsigned long>,std::allocator<unsigned long>,0> >
_TEXT	ENDS
; Function compile flags: /Odspy
;	COMDAT ??1?$map@KPAVCProperty@@U?$less@K@std@@V?$allocator@U?$pair@$$CBKPAVCProperty@@@std@@@3@@std@@QAE@XZ
_TEXT	SEGMENT
_this$ = -4						; size = 4
??1?$map@KPAVCProperty@@U?$less@K@std@@V?$allocator@U?$pair@$$CBKPAVCProperty@@@std@@@3@@std@@QAE@XZ PROC ; std::map<unsigned long,CProperty *,std::less<unsigned long>,std::allocator<std::pair<unsigned long const ,CProperty *> > >::~map<unsigned long,CProperty *,std::less<unsigned long>,std::allocator<std::pair<unsigned long const ,CProperty *> > >, COMDAT
; _this$ = ecx
  00000	55		 push	 ebp
  00001	8b ec		 mov	 ebp, esp
  00003	51		 push	 ecx
  00004	89 4d fc	 mov	 DWORD PTR _this$[ebp], ecx
  00007	8b 4d fc	 mov	 ecx, DWORD PTR _this$[ebp]
  0000a	e8 00 00 00 00	 call	 ??1?$_Tree@V?$_Tmap_traits@KPAVCProperty@@U?$less@K@std@@V?$allocator@U?$pair@$$CBKPAVCProperty@@@std@@@3@$0A@@std@@@std@@QAE@XZ ; std::_Tree<std::_Tmap_traits<unsigned long,CProperty *,std::less<unsigned long>,std::allocator<std::pair<unsigned long const ,CProperty *> >,0> >::~_Tree<std::_Tmap_traits<unsigned long,CProperty *,std::less<unsigned long>,std::allocator<std::pair<unsigned long const ,CProperty *> >,0> >
  0000f	c9		 leave
  00010	c3		 ret	 0
??1?$map@KPAVCProperty@@U?$less@K@std@@V?$allocator@U?$pair@$$CBKPAVCProperty@@@std@@@3@@std@@QAE@XZ ENDP ; std::map<unsigned long,CProperty *,std::less<unsigned long>,std::allocator<std::pair<unsigned long const ,CProperty *> > >::~map<unsigned long,CProperty *,std::less<unsigned long>,std::allocator<std::pair<unsigned long const ,CProperty *> > >
_TEXT	ENDS
; Function compile flags: /Odspy
; File C:\Program Files (x86)\Microsoft Visual Studio\2019\Community\VC\Tools\MSVC\14.28.29333\include\xtree
;	COMDAT ?_Insert_node@?$_Tree_val@U?$_Tree_simple_types@U?$pair@$$CBKPAVCProperty@@@std@@@std@@@std@@QAEPAU?$_Tree_node@U?$pair@$$CBKPAVCProperty@@@std@@PAX@2@U?$_Tree_id@PAU?$_Tree_node@U?$pair@$$CBKPAVCProperty@@@std@@PAX@std@@@2@QAU32@@Z
_TEXT	SEGMENT
__Parent_sibling$1 = -20				; size = 4
__Parent_sibling$2 = -16				; size = 4
_this$ = -12						; size = 4
__Head$ = -8						; size = 4
__Pnode$3 = -4						; size = 4
__Loc$ = 8						; size = 8
__Newnode$ = 16						; size = 4
?_Insert_node@?$_Tree_val@U?$_Tree_simple_types@U?$pair@$$CBKPAVCProperty@@@std@@@std@@@std@@QAEPAU?$_Tree_node@U?$pair@$$CBKPAVCProperty@@@std@@PAX@2@U?$_Tree_id@PAU?$_Tree_node@U?$pair@$$CBKPAVCProperty@@@std@@PAX@std@@@2@QAU32@@Z PROC ; std::_Tree_val<std::_Tree_simple_types<std::pair<unsigned long const ,CProperty *> > >::_Insert_node, COMDAT
; _this$ = ecx

; 644  :     _Nodeptr _Insert_node(const _Tree_id<_Nodeptr> _Loc, const _Nodeptr _Newnode) noexcept {

  00000	55		 push	 ebp
  00001	8b ec		 mov	 ebp, esp
  00003	83 ec 14	 sub	 esp, 20			; 00000014H
  00006	89 4d f4	 mov	 DWORD PTR _this$[ebp], ecx

; 645  :         ++_Mysize;

  00009	8b 45 f4	 mov	 eax, DWORD PTR _this$[ebp]
  0000c	8b 40 04	 mov	 eax, DWORD PTR [eax+4]
  0000f	40		 inc	 eax
  00010	8b 4d f4	 mov	 ecx, DWORD PTR _this$[ebp]
  00013	89 41 04	 mov	 DWORD PTR [ecx+4], eax

; 646  :         const auto _Head  = _Myhead;

  00016	8b 45 f4	 mov	 eax, DWORD PTR _this$[ebp]
  00019	8b 00		 mov	 eax, DWORD PTR [eax]
  0001b	89 45 f8	 mov	 DWORD PTR __Head$[ebp], eax

; 647  :         _Newnode->_Parent = _Loc._Parent;

  0001e	8b 45 10	 mov	 eax, DWORD PTR __Newnode$[ebp]
  00021	8b 4d 08	 mov	 ecx, DWORD PTR __Loc$[ebp]
  00024	89 48 04	 mov	 DWORD PTR [eax+4], ecx

; 648  :         if (_Loc._Parent == _Head) { // first node in tree, just set head values

  00027	8b 45 08	 mov	 eax, DWORD PTR __Loc$[ebp]
  0002a	3b 45 f8	 cmp	 eax, DWORD PTR __Head$[ebp]
  0002d	75 29		 jne	 SHORT $LN5@Insert_nod

; 649  :             _Head->_Left     = _Newnode;

  0002f	8b 45 f8	 mov	 eax, DWORD PTR __Head$[ebp]
  00032	8b 4d 10	 mov	 ecx, DWORD PTR __Newnode$[ebp]
  00035	89 08		 mov	 DWORD PTR [eax], ecx

; 650  :             _Head->_Parent   = _Newnode;

  00037	8b 45 f8	 mov	 eax, DWORD PTR __Head$[ebp]
  0003a	8b 4d 10	 mov	 ecx, DWORD PTR __Newnode$[ebp]
  0003d	89 48 04	 mov	 DWORD PTR [eax+4], ecx

; 651  :             _Head->_Right    = _Newnode;

  00040	8b 45 f8	 mov	 eax, DWORD PTR __Head$[ebp]
  00043	8b 4d 10	 mov	 ecx, DWORD PTR __Newnode$[ebp]
  00046	89 48 08	 mov	 DWORD PTR [eax+8], ecx

; 652  :             _Newnode->_Color = _Black; // the root is black

  00049	8b 45 10	 mov	 eax, DWORD PTR __Newnode$[ebp]
  0004c	c6 40 0c 01	 mov	 BYTE PTR [eax+12], 1

; 653  :             return _Newnode;

  00050	8b 45 10	 mov	 eax, DWORD PTR __Newnode$[ebp]
  00053	e9 a3 01 00 00	 jmp	 $LN18@Insert_nod
$LN5@Insert_nod:

; 654  :         }
; 655  : 
; 656  :         _STL_INTERNAL_CHECK(_Loc._Child != _Tree_child::_Unused);
; 657  :         if (_Loc._Child == _Tree_child::_Right) { // add to right of _Loc._Parent

  00058	83 7d 0c 00	 cmp	 DWORD PTR __Loc$[ebp+4], 0
  0005c	75 1f		 jne	 SHORT $LN6@Insert_nod

; 658  :             _STL_INTERNAL_CHECK(_Loc._Parent->_Right->_Isnil);
; 659  :             _Loc._Parent->_Right = _Newnode;

  0005e	8b 45 08	 mov	 eax, DWORD PTR __Loc$[ebp]
  00061	8b 4d 10	 mov	 ecx, DWORD PTR __Newnode$[ebp]
  00064	89 48 08	 mov	 DWORD PTR [eax+8], ecx

; 660  :             if (_Loc._Parent == _Head->_Right) { // remember rightmost node

  00067	8b 45 f8	 mov	 eax, DWORD PTR __Head$[ebp]
  0006a	8b 4d 08	 mov	 ecx, DWORD PTR __Loc$[ebp]
  0006d	3b 48 08	 cmp	 ecx, DWORD PTR [eax+8]
  00070	75 09		 jne	 SHORT $LN8@Insert_nod

; 661  :                 _Head->_Right = _Newnode;

  00072	8b 45 f8	 mov	 eax, DWORD PTR __Head$[ebp]
  00075	8b 4d 10	 mov	 ecx, DWORD PTR __Newnode$[ebp]
  00078	89 48 08	 mov	 DWORD PTR [eax+8], ecx
$LN8@Insert_nod:

; 662  :             }
; 663  :         } else { // add to left of _Loc._Parent

  0007b	eb 1a		 jmp	 SHORT $LN7@Insert_nod
$LN6@Insert_nod:

; 664  :             _STL_INTERNAL_CHECK(_Loc._Parent->_Left->_Isnil);
; 665  :             _Loc._Parent->_Left = _Newnode;

  0007d	8b 45 08	 mov	 eax, DWORD PTR __Loc$[ebp]
  00080	8b 4d 10	 mov	 ecx, DWORD PTR __Newnode$[ebp]
  00083	89 08		 mov	 DWORD PTR [eax], ecx

; 666  :             if (_Loc._Parent == _Head->_Left) { // remember leftmost node

  00085	8b 45 f8	 mov	 eax, DWORD PTR __Head$[ebp]
  00088	8b 4d 08	 mov	 ecx, DWORD PTR __Loc$[ebp]
  0008b	3b 08		 cmp	 ecx, DWORD PTR [eax]
  0008d	75 08		 jne	 SHORT $LN7@Insert_nod

; 667  :                 _Head->_Left = _Newnode;

  0008f	8b 45 f8	 mov	 eax, DWORD PTR __Head$[ebp]
  00092	8b 4d 10	 mov	 ecx, DWORD PTR __Newnode$[ebp]
  00095	89 08		 mov	 DWORD PTR [eax], ecx
$LN7@Insert_nod:

; 668  :             }
; 669  :         }
; 670  : 
; 671  :         for (_Nodeptr _Pnode = _Newnode; _Pnode->_Parent->_Color == _Red;) {

  00097	8b 45 10	 mov	 eax, DWORD PTR __Newnode$[ebp]
  0009a	89 45 fc	 mov	 DWORD PTR __Pnode$3[ebp], eax
$LN4@Insert_nod:
  0009d	8b 45 fc	 mov	 eax, DWORD PTR __Pnode$3[ebp]
  000a0	8b 40 04	 mov	 eax, DWORD PTR [eax+4]
  000a3	0f be 40 0c	 movsx	 eax, BYTE PTR [eax+12]
  000a7	85 c0		 test	 eax, eax
  000a9	0f 85 3f 01 00
	00		 jne	 $LN3@Insert_nod

; 672  :             if (_Pnode->_Parent == _Pnode->_Parent->_Parent->_Left) { // fixup red-red in left subtree

  000af	8b 45 fc	 mov	 eax, DWORD PTR __Pnode$3[ebp]
  000b2	8b 40 04	 mov	 eax, DWORD PTR [eax+4]
  000b5	8b 40 04	 mov	 eax, DWORD PTR [eax+4]
  000b8	8b 4d fc	 mov	 ecx, DWORD PTR __Pnode$3[ebp]
  000bb	8b 49 04	 mov	 ecx, DWORD PTR [ecx+4]
  000be	3b 08		 cmp	 ecx, DWORD PTR [eax]
  000c0	0f 85 95 00 00
	00		 jne	 $LN10@Insert_nod

; 673  :                 const auto _Parent_sibling = _Pnode->_Parent->_Parent->_Right;

  000c6	8b 45 fc	 mov	 eax, DWORD PTR __Pnode$3[ebp]
  000c9	8b 40 04	 mov	 eax, DWORD PTR [eax+4]
  000cc	8b 40 04	 mov	 eax, DWORD PTR [eax+4]
  000cf	8b 40 08	 mov	 eax, DWORD PTR [eax+8]
  000d2	89 45 f0	 mov	 DWORD PTR __Parent_sibling$2[ebp], eax

; 674  :                 if (_Parent_sibling->_Color == _Red) { // parent's sibling has two red children, blacken both

  000d5	8b 45 f0	 mov	 eax, DWORD PTR __Parent_sibling$2[ebp]
  000d8	0f be 40 0c	 movsx	 eax, BYTE PTR [eax+12]
  000dc	85 c0		 test	 eax, eax
  000de	75 2c		 jne	 SHORT $LN12@Insert_nod

; 675  :                     _Pnode->_Parent->_Color          = _Black;

  000e0	8b 45 fc	 mov	 eax, DWORD PTR __Pnode$3[ebp]
  000e3	8b 40 04	 mov	 eax, DWORD PTR [eax+4]
  000e6	c6 40 0c 01	 mov	 BYTE PTR [eax+12], 1

; 676  :                     _Parent_sibling->_Color          = _Black;

  000ea	8b 45 f0	 mov	 eax, DWORD PTR __Parent_sibling$2[ebp]
  000ed	c6 40 0c 01	 mov	 BYTE PTR [eax+12], 1

; 677  :                     _Pnode->_Parent->_Parent->_Color = _Red;

  000f1	8b 45 fc	 mov	 eax, DWORD PTR __Pnode$3[ebp]
  000f4	8b 40 04	 mov	 eax, DWORD PTR [eax+4]
  000f7	8b 40 04	 mov	 eax, DWORD PTR [eax+4]
  000fa	c6 40 0c 00	 mov	 BYTE PTR [eax+12], 0

; 678  :                     _Pnode                           = _Pnode->_Parent->_Parent;

  000fe	8b 45 fc	 mov	 eax, DWORD PTR __Pnode$3[ebp]
  00101	8b 40 04	 mov	 eax, DWORD PTR [eax+4]
  00104	8b 40 04	 mov	 eax, DWORD PTR [eax+4]
  00107	89 45 fc	 mov	 DWORD PTR __Pnode$3[ebp], eax

; 679  :                 } else { // parent's sibling has red and black children

  0010a	eb 4a		 jmp	 SHORT $LN13@Insert_nod
$LN12@Insert_nod:

; 680  :                     if (_Pnode == _Pnode->_Parent->_Right) { // rotate right child to left

  0010c	8b 45 fc	 mov	 eax, DWORD PTR __Pnode$3[ebp]
  0010f	8b 40 04	 mov	 eax, DWORD PTR [eax+4]
  00112	8b 4d fc	 mov	 ecx, DWORD PTR __Pnode$3[ebp]
  00115	3b 48 08	 cmp	 ecx, DWORD PTR [eax+8]
  00118	75 14		 jne	 SHORT $LN14@Insert_nod

; 681  :                         _Pnode = _Pnode->_Parent;

  0011a	8b 45 fc	 mov	 eax, DWORD PTR __Pnode$3[ebp]
  0011d	8b 40 04	 mov	 eax, DWORD PTR [eax+4]
  00120	89 45 fc	 mov	 DWORD PTR __Pnode$3[ebp], eax

; 682  :                         _Lrotate(_Pnode);

  00123	ff 75 fc	 push	 DWORD PTR __Pnode$3[ebp]
  00126	8b 4d f4	 mov	 ecx, DWORD PTR _this$[ebp]
  00129	e8 00 00 00 00	 call	 ?_Lrotate@?$_Tree_val@U?$_Tree_simple_types@U?$pair@$$CBKPAVCProperty@@@std@@@std@@@std@@QAEXPAU?$_Tree_node@U?$pair@$$CBKPAVCProperty@@@std@@PAX@2@@Z ; std::_Tree_val<std::_Tree_simple_types<std::pair<unsigned long const ,CProperty *> > >::_Lrotate
$LN14@Insert_nod:

; 683  :                     }
; 684  : 
; 685  :                     _Pnode->_Parent->_Color          = _Black; // propagate red up

  0012e	8b 45 fc	 mov	 eax, DWORD PTR __Pnode$3[ebp]
  00131	8b 40 04	 mov	 eax, DWORD PTR [eax+4]
  00134	c6 40 0c 01	 mov	 BYTE PTR [eax+12], 1

; 686  :                     _Pnode->_Parent->_Parent->_Color = _Red;

  00138	8b 45 fc	 mov	 eax, DWORD PTR __Pnode$3[ebp]
  0013b	8b 40 04	 mov	 eax, DWORD PTR [eax+4]
  0013e	8b 40 04	 mov	 eax, DWORD PTR [eax+4]
  00141	c6 40 0c 00	 mov	 BYTE PTR [eax+12], 0

; 687  :                     _Rrotate(_Pnode->_Parent->_Parent);

  00145	8b 45 fc	 mov	 eax, DWORD PTR __Pnode$3[ebp]
  00148	8b 40 04	 mov	 eax, DWORD PTR [eax+4]
  0014b	ff 70 04	 push	 DWORD PTR [eax+4]
  0014e	8b 4d f4	 mov	 ecx, DWORD PTR _this$[ebp]
  00151	e8 00 00 00 00	 call	 ?_Rrotate@?$_Tree_val@U?$_Tree_simple_types@U?$pair@$$CBKPAVCProperty@@@std@@@std@@@std@@QAEXPAU?$_Tree_node@U?$pair@$$CBKPAVCProperty@@@std@@PAX@2@@Z ; std::_Tree_val<std::_Tree_simple_types<std::pair<unsigned long const ,CProperty *> > >::_Rrotate
$LN13@Insert_nod:

; 688  :                 }
; 689  :             } else { // fixup red-red in right subtree

  00156	e9 8e 00 00 00	 jmp	 $LN11@Insert_nod
$LN10@Insert_nod:

; 690  :                 const auto _Parent_sibling = _Pnode->_Parent->_Parent->_Left;

  0015b	8b 45 fc	 mov	 eax, DWORD PTR __Pnode$3[ebp]
  0015e	8b 40 04	 mov	 eax, DWORD PTR [eax+4]
  00161	8b 40 04	 mov	 eax, DWORD PTR [eax+4]
  00164	8b 00		 mov	 eax, DWORD PTR [eax]
  00166	89 45 ec	 mov	 DWORD PTR __Parent_sibling$1[ebp], eax

; 691  :                 if (_Parent_sibling->_Color == _Red) { // parent's sibling has two red children, blacken both

  00169	8b 45 ec	 mov	 eax, DWORD PTR __Parent_sibling$1[ebp]
  0016c	0f be 40 0c	 movsx	 eax, BYTE PTR [eax+12]
  00170	85 c0		 test	 eax, eax
  00172	75 2c		 jne	 SHORT $LN15@Insert_nod

; 692  :                     _Pnode->_Parent->_Color          = _Black;

  00174	8b 45 fc	 mov	 eax, DWORD PTR __Pnode$3[ebp]
  00177	8b 40 04	 mov	 eax, DWORD PTR [eax+4]
  0017a	c6 40 0c 01	 mov	 BYTE PTR [eax+12], 1

; 693  :                     _Parent_sibling->_Color          = _Black;

  0017e	8b 45 ec	 mov	 eax, DWORD PTR __Parent_sibling$1[ebp]
  00181	c6 40 0c 01	 mov	 BYTE PTR [eax+12], 1

; 694  :                     _Pnode->_Parent->_Parent->_Color = _Red;

  00185	8b 45 fc	 mov	 eax, DWORD PTR __Pnode$3[ebp]
  00188	8b 40 04	 mov	 eax, DWORD PTR [eax+4]
  0018b	8b 40 04	 mov	 eax, DWORD PTR [eax+4]
  0018e	c6 40 0c 00	 mov	 BYTE PTR [eax+12], 0

; 695  :                     _Pnode                           = _Pnode->_Parent->_Parent;

  00192	8b 45 fc	 mov	 eax, DWORD PTR __Pnode$3[ebp]
  00195	8b 40 04	 mov	 eax, DWORD PTR [eax+4]
  00198	8b 40 04	 mov	 eax, DWORD PTR [eax+4]
  0019b	89 45 fc	 mov	 DWORD PTR __Pnode$3[ebp], eax

; 696  :                 } else { // parent's sibling has red and black children

  0019e	eb 49		 jmp	 SHORT $LN11@Insert_nod
$LN15@Insert_nod:

; 697  :                     if (_Pnode == _Pnode->_Parent->_Left) { // rotate left child to right

  001a0	8b 45 fc	 mov	 eax, DWORD PTR __Pnode$3[ebp]
  001a3	8b 40 04	 mov	 eax, DWORD PTR [eax+4]
  001a6	8b 4d fc	 mov	 ecx, DWORD PTR __Pnode$3[ebp]
  001a9	3b 08		 cmp	 ecx, DWORD PTR [eax]
  001ab	75 14		 jne	 SHORT $LN17@Insert_nod

; 698  :                         _Pnode = _Pnode->_Parent;

  001ad	8b 45 fc	 mov	 eax, DWORD PTR __Pnode$3[ebp]
  001b0	8b 40 04	 mov	 eax, DWORD PTR [eax+4]
  001b3	89 45 fc	 mov	 DWORD PTR __Pnode$3[ebp], eax

; 699  :                         _Rrotate(_Pnode);

  001b6	ff 75 fc	 push	 DWORD PTR __Pnode$3[ebp]
  001b9	8b 4d f4	 mov	 ecx, DWORD PTR _this$[ebp]
  001bc	e8 00 00 00 00	 call	 ?_Rrotate@?$_Tree_val@U?$_Tree_simple_types@U?$pair@$$CBKPAVCProperty@@@std@@@std@@@std@@QAEXPAU?$_Tree_node@U?$pair@$$CBKPAVCProperty@@@std@@PAX@2@@Z ; std::_Tree_val<std::_Tree_simple_types<std::pair<unsigned long const ,CProperty *> > >::_Rrotate
$LN17@Insert_nod:

; 700  :                     }
; 701  : 
; 702  :                     _Pnode->_Parent->_Color          = _Black; // propagate red up

  001c1	8b 45 fc	 mov	 eax, DWORD PTR __Pnode$3[ebp]
  001c4	8b 40 04	 mov	 eax, DWORD PTR [eax+4]
  001c7	c6 40 0c 01	 mov	 BYTE PTR [eax+12], 1

; 703  :                     _Pnode->_Parent->_Parent->_Color = _Red;

  001cb	8b 45 fc	 mov	 eax, DWORD PTR __Pnode$3[ebp]
  001ce	8b 40 04	 mov	 eax, DWORD PTR [eax+4]
  001d1	8b 40 04	 mov	 eax, DWORD PTR [eax+4]
  001d4	c6 40 0c 00	 mov	 BYTE PTR [eax+12], 0

; 704  :                     _Lrotate(_Pnode->_Parent->_Parent);

  001d8	8b 45 fc	 mov	 eax, DWORD PTR __Pnode$3[ebp]
  001db	8b 40 04	 mov	 eax, DWORD PTR [eax+4]
  001de	ff 70 04	 push	 DWORD PTR [eax+4]
  001e1	8b 4d f4	 mov	 ecx, DWORD PTR _this$[ebp]
  001e4	e8 00 00 00 00	 call	 ?_Lrotate@?$_Tree_val@U?$_Tree_simple_types@U?$pair@$$CBKPAVCProperty@@@std@@@std@@@std@@QAEXPAU?$_Tree_node@U?$pair@$$CBKPAVCProperty@@@std@@PAX@2@@Z ; std::_Tree_val<std::_Tree_simple_types<std::pair<unsigned long const ,CProperty *> > >::_Lrotate
$LN11@Insert_nod:

; 705  :                 }
; 706  :             }
; 707  :         }

  001e9	e9 af fe ff ff	 jmp	 $LN4@Insert_nod
$LN3@Insert_nod:

; 708  : 
; 709  :         _Head->_Parent->_Color = _Black; // root is always black

  001ee	8b 45 f8	 mov	 eax, DWORD PTR __Head$[ebp]
  001f1	8b 40 04	 mov	 eax, DWORD PTR [eax+4]
  001f4	c6 40 0c 01	 mov	 BYTE PTR [eax+12], 1

; 710  :         return _Newnode;

  001f8	8b 45 10	 mov	 eax, DWORD PTR __Newnode$[ebp]
$LN18@Insert_nod:

; 711  :     }

  001fb	c9		 leave
  001fc	c2 0c 00	 ret	 12			; 0000000cH
?_Insert_node@?$_Tree_val@U?$_Tree_simple_types@U?$pair@$$CBKPAVCProperty@@@std@@@std@@@std@@QAEPAU?$_Tree_node@U?$pair@$$CBKPAVCProperty@@@std@@PAX@2@U?$_Tree_id@PAU?$_Tree_node@U?$pair@$$CBKPAVCProperty@@@std@@PAX@std@@@2@QAU32@@Z ENDP ; std::_Tree_val<std::_Tree_simple_types<std::pair<unsigned long const ,CProperty *> > >::_Insert_node
_TEXT	ENDS
; Function compile flags: /Odspy
; File C:\Program Files (x86)\Microsoft Visual Studio\2019\Community\VC\Tools\MSVC\14.28.29333\include\xtree
; File C:\Program Files (x86)\Microsoft Visual Studio\2019\Community\VC\Tools\MSVC\14.28.29333\include\type_traits
; File C:\Program Files (x86)\Microsoft Visual Studio\2019\Community\VC\Tools\MSVC\14.28.29333\include\utility
; File C:\Program Files (x86)\Microsoft Visual Studio\2019\Community\VC\Tools\MSVC\14.28.29333\include\type_traits
; File C:\Program Files (x86)\Microsoft Visual Studio\2019\Community\VC\Tools\MSVC\14.28.29333\include\utility
; File C:\Program Files (x86)\Microsoft Visual Studio\2019\Community\VC\Tools\MSVC\14.28.29333\include\type_traits
; File C:\Program Files (x86)\Microsoft Visual Studio\2019\Community\VC\Tools\MSVC\14.28.29333\include\utility
; File C:\Program Files (x86)\Microsoft Visual Studio\2019\Community\VC\Tools\MSVC\14.28.29333\include\xtree
;	COMDAT ?_Extract@?$_Tree_val@U?$_Tree_simple_types@U?$pair@$$CBKPAVCProperty@@@std@@@std@@@std@@QAEPAU?$_Tree_node@U?$pair@$$CBKPAVCProperty@@@std@@PAX@2@V?$_Tree_unchecked_const_iterator@V?$_Tree_val@U?$_Tree_simple_types@U?$pair@$$CBKPAVCProperty@@@std@@@std@@@std@@U_Iterator_base0@2@@2@@Z
_TEXT	SEGMENT
$T1 = -68						; size = 4
$T2 = -64						; size = 4
$T3 = -60						; size = 4
$T4 = -56						; size = 4
$T5 = -52						; size = 4
__Right$ = -48						; size = 4
__Left$ = -44						; size = 4
tv144 = -40						; size = 4
tv133 = -36						; size = 4
__Pnode$ = -32						; size = 4
__Pnode$ = -28						; size = 4
_this$ = -24						; size = 4
__Erasednode$ = -20					; size = 4
__Fixnode$ = -16					; size = 4
__Fixnodeparent$ = -12					; size = 4
__Pnode$ = -8						; size = 4
__Tmp$6 = -1						; size = 1
__Where$ = 8						; size = 4
?_Extract@?$_Tree_val@U?$_Tree_simple_types@U?$pair@$$CBKPAVCProperty@@@std@@@std@@@std@@QAEPAU?$_Tree_node@U?$pair@$$CBKPAVCProperty@@@std@@PAX@2@V?$_Tree_unchecked_const_iterator@V?$_Tree_val@U?$_Tree_simple_types@U?$pair@$$CBKPAVCProperty@@@std@@@std@@@std@@U_Iterator_base0@2@@2@@Z PROC ; std::_Tree_val<std::_Tree_simple_types<std::pair<unsigned long const ,CProperty *> > >::_Extract, COMDAT
; _this$ = ecx

; 502  :     _Nodeptr _Extract(_Unchecked_const_iterator _Where) noexcept {

  00000	55		 push	 ebp
  00001	8b ec		 mov	 ebp, esp
  00003	83 ec 44	 sub	 esp, 68			; 00000044H
  00006	89 4d e8	 mov	 DWORD PTR _this$[ebp], ecx

; 503  :         _Nodeptr _Erasednode = _Where._Ptr; // node to erase

  00009	8b 45 08	 mov	 eax, DWORD PTR __Where$[ebp]
  0000c	89 45 ec	 mov	 DWORD PTR __Erasednode$[ebp], eax

; 504  :         ++_Where; // save successor iterator for return

  0000f	8d 4d 08	 lea	 ecx, DWORD PTR __Where$[ebp]
  00012	e8 00 00 00 00	 call	 ??E?$_Tree_unchecked_const_iterator@V?$_Tree_val@U?$_Tree_simple_types@U?$pair@$$CBKPAVCProperty@@@std@@@std@@@std@@U_Iterator_base0@2@@std@@QAEAAV01@XZ ; std::_Tree_unchecked_const_iterator<std::_Tree_val<std::_Tree_simple_types<std::pair<unsigned long const ,CProperty *> > >,std::_Iterator_base0>::operator++

; 505  : 
; 506  :         _Nodeptr _Fixnode; // the node to recolor as needed
; 507  :         _Nodeptr _Fixnodeparent; // parent of _Fixnode (which may be nil)
; 508  :         _Nodeptr _Pnode = _Erasednode;

  00017	8b 45 ec	 mov	 eax, DWORD PTR __Erasednode$[ebp]
  0001a	89 45 f8	 mov	 DWORD PTR __Pnode$[ebp], eax

; 509  : 
; 510  :         if (_Pnode->_Left->_Isnil) {

  0001d	8b 45 f8	 mov	 eax, DWORD PTR __Pnode$[ebp]
  00020	8b 00		 mov	 eax, DWORD PTR [eax]
  00022	0f be 40 0d	 movsx	 eax, BYTE PTR [eax+13]
  00026	85 c0		 test	 eax, eax
  00028	74 0b		 je	 SHORT $LN5@Extract

; 511  :             _Fixnode = _Pnode->_Right; // stitch up right subtree

  0002a	8b 45 f8	 mov	 eax, DWORD PTR __Pnode$[ebp]
  0002d	8b 40 08	 mov	 eax, DWORD PTR [eax+8]
  00030	89 45 f0	 mov	 DWORD PTR __Fixnode$[ebp], eax
  00033	eb 27		 jmp	 SHORT $LN6@Extract
$LN5@Extract:

; 512  :         } else if (_Pnode->_Right->_Isnil) {

  00035	8b 45 f8	 mov	 eax, DWORD PTR __Pnode$[ebp]
  00038	8b 40 08	 mov	 eax, DWORD PTR [eax+8]
  0003b	0f be 40 0d	 movsx	 eax, BYTE PTR [eax+13]
  0003f	85 c0		 test	 eax, eax
  00041	74 0a		 je	 SHORT $LN7@Extract

; 513  :             _Fixnode = _Pnode->_Left; // stitch up left subtree

  00043	8b 45 f8	 mov	 eax, DWORD PTR __Pnode$[ebp]
  00046	8b 00		 mov	 eax, DWORD PTR [eax]
  00048	89 45 f0	 mov	 DWORD PTR __Fixnode$[ebp], eax

; 514  :         } else { // two subtrees, must lift successor node to replace erased

  0004b	eb 0f		 jmp	 SHORT $LN6@Extract
$LN7@Extract:

; 515  :             _Pnode   = _Where._Ptr; // _Pnode is successor node

  0004d	8b 45 08	 mov	 eax, DWORD PTR __Where$[ebp]
  00050	89 45 f8	 mov	 DWORD PTR __Pnode$[ebp], eax

; 516  :             _Fixnode = _Pnode->_Right; // _Fixnode is only subtree

  00053	8b 45 f8	 mov	 eax, DWORD PTR __Pnode$[ebp]
  00056	8b 40 08	 mov	 eax, DWORD PTR [eax+8]
  00059	89 45 f0	 mov	 DWORD PTR __Fixnode$[ebp], eax
$LN6@Extract:

; 517  :         }
; 518  : 
; 519  :         if (_Pnode == _Erasednode) { // at most one subtree, relink it

  0005c	8b 45 f8	 mov	 eax, DWORD PTR __Pnode$[ebp]
  0005f	3b 45 ec	 cmp	 eax, DWORD PTR __Erasednode$[ebp]
  00062	0f 85 01 01 00
	00		 jne	 $LN9@Extract

; 520  :             _Fixnodeparent = _Erasednode->_Parent;

  00068	8b 45 ec	 mov	 eax, DWORD PTR __Erasednode$[ebp]
  0006b	8b 40 04	 mov	 eax, DWORD PTR [eax+4]
  0006e	89 45 f4	 mov	 DWORD PTR __Fixnodeparent$[ebp], eax

; 521  :             if (!_Fixnode->_Isnil) {

  00071	8b 45 f0	 mov	 eax, DWORD PTR __Fixnode$[ebp]
  00074	0f be 40 0d	 movsx	 eax, BYTE PTR [eax+13]
  00078	85 c0		 test	 eax, eax
  0007a	75 09		 jne	 SHORT $LN11@Extract

; 522  :                 _Fixnode->_Parent = _Fixnodeparent; // link up

  0007c	8b 45 f0	 mov	 eax, DWORD PTR __Fixnode$[ebp]
  0007f	8b 4d f4	 mov	 ecx, DWORD PTR __Fixnodeparent$[ebp]
  00082	89 48 04	 mov	 DWORD PTR [eax+4], ecx
$LN11@Extract:

; 523  :             }
; 524  : 
; 525  :             if (_Myhead->_Parent == _Erasednode) {

  00085	8b 45 e8	 mov	 eax, DWORD PTR _this$[ebp]
  00088	8b 00		 mov	 eax, DWORD PTR [eax]
  0008a	8b 40 04	 mov	 eax, DWORD PTR [eax+4]
  0008d	3b 45 ec	 cmp	 eax, DWORD PTR __Erasednode$[ebp]
  00090	75 0d		 jne	 SHORT $LN12@Extract

; 526  :                 _Myhead->_Parent = _Fixnode; // link down from root

  00092	8b 45 e8	 mov	 eax, DWORD PTR _this$[ebp]
  00095	8b 00		 mov	 eax, DWORD PTR [eax]
  00097	8b 4d f0	 mov	 ecx, DWORD PTR __Fixnode$[ebp]
  0009a	89 48 04	 mov	 DWORD PTR [eax+4], ecx
  0009d	eb 1d		 jmp	 SHORT $LN13@Extract
$LN12@Extract:

; 527  :             } else if (_Fixnodeparent->_Left == _Erasednode) {

  0009f	8b 45 f4	 mov	 eax, DWORD PTR __Fixnodeparent$[ebp]
  000a2	8b 00		 mov	 eax, DWORD PTR [eax]
  000a4	3b 45 ec	 cmp	 eax, DWORD PTR __Erasednode$[ebp]
  000a7	75 0a		 jne	 SHORT $LN14@Extract

; 528  :                 _Fixnodeparent->_Left = _Fixnode; // link down to left

  000a9	8b 45 f4	 mov	 eax, DWORD PTR __Fixnodeparent$[ebp]
  000ac	8b 4d f0	 mov	 ecx, DWORD PTR __Fixnode$[ebp]
  000af	89 08		 mov	 DWORD PTR [eax], ecx

; 529  :             } else {

  000b1	eb 09		 jmp	 SHORT $LN13@Extract
$LN14@Extract:

; 530  :                 _Fixnodeparent->_Right = _Fixnode; // link down to right

  000b3	8b 45 f4	 mov	 eax, DWORD PTR __Fixnodeparent$[ebp]
  000b6	8b 4d f0	 mov	 ecx, DWORD PTR __Fixnode$[ebp]
  000b9	89 48 08	 mov	 DWORD PTR [eax+8], ecx
$LN13@Extract:

; 531  :             }
; 532  : 
; 533  :             if (_Myhead->_Left == _Erasednode) {

  000bc	8b 45 e8	 mov	 eax, DWORD PTR _this$[ebp]
  000bf	8b 00		 mov	 eax, DWORD PTR [eax]
  000c1	8b 00		 mov	 eax, DWORD PTR [eax]
  000c3	3b 45 ec	 cmp	 eax, DWORD PTR __Erasednode$[ebp]
  000c6	75 46		 jne	 SHORT $LN16@Extract

; 534  :                 _Myhead->_Left = _Fixnode->_Isnil ? _Fixnodeparent // smallest is parent of erased node

  000c8	8b 45 f0	 mov	 eax, DWORD PTR __Fixnode$[ebp]
  000cb	0f be 40 0d	 movsx	 eax, BYTE PTR [eax+13]
  000cf	85 c0		 test	 eax, eax
  000d1	74 08		 je	 SHORT $LN42@Extract
  000d3	8b 45 f4	 mov	 eax, DWORD PTR __Fixnodeparent$[ebp]
  000d6	89 45 dc	 mov	 DWORD PTR tv133[ebp], eax
  000d9	eb 29		 jmp	 SHORT $LN43@Extract
$LN42@Extract:
  000db	8b 45 f0	 mov	 eax, DWORD PTR __Fixnode$[ebp]
  000de	89 45 e4	 mov	 DWORD PTR __Pnode$[ebp], eax
  000e1	8b 45 c0	 mov	 eax, DWORD PTR $T2[ebp]
  000e4	89 45 dc	 mov	 DWORD PTR tv133[ebp], eax
$LN59@Extract:

; 451  :         while (!_Pnode->_Left->_Isnil) {

  000e7	8b 45 e4	 mov	 eax, DWORD PTR __Pnode$[ebp]
  000ea	8b 00		 mov	 eax, DWORD PTR [eax]
  000ec	0f be 40 0d	 movsx	 eax, BYTE PTR [eax+13]
  000f0	85 c0		 test	 eax, eax
  000f2	75 0a		 jne	 SHORT $LN60@Extract

; 452  :             _Pnode = _Pnode->_Left;

  000f4	8b 45 e4	 mov	 eax, DWORD PTR __Pnode$[ebp]
  000f7	8b 00		 mov	 eax, DWORD PTR [eax]
  000f9	89 45 e4	 mov	 DWORD PTR __Pnode$[ebp], eax

; 453  :         }

  000fc	eb e9		 jmp	 SHORT $LN59@Extract
$LN60@Extract:

; 454  : 
; 455  :         return _Pnode;

  000fe	8b 45 e4	 mov	 eax, DWORD PTR __Pnode$[ebp]
  00101	89 45 dc	 mov	 DWORD PTR tv133[ebp], eax
$LN43@Extract:

; 534  :                 _Myhead->_Left = _Fixnode->_Isnil ? _Fixnodeparent // smallest is parent of erased node

  00104	8b 45 e8	 mov	 eax, DWORD PTR _this$[ebp]
  00107	8b 00		 mov	 eax, DWORD PTR [eax]
  00109	8b 4d dc	 mov	 ecx, DWORD PTR tv133[ebp]
  0010c	89 08		 mov	 DWORD PTR [eax], ecx
$LN16@Extract:

; 535  :                                                   : _Min(_Fixnode); // smallest in relinked subtree
; 536  :             }
; 537  : 
; 538  :             if (_Myhead->_Right == _Erasednode) {

  0010e	8b 45 e8	 mov	 eax, DWORD PTR _this$[ebp]
  00111	8b 00		 mov	 eax, DWORD PTR [eax]
  00113	8b 40 08	 mov	 eax, DWORD PTR [eax+8]
  00116	3b 45 ec	 cmp	 eax, DWORD PTR __Erasednode$[ebp]
  00119	75 49		 jne	 SHORT $LN17@Extract

; 539  :                 _Myhead->_Right = _Fixnode->_Isnil ? _Fixnodeparent // largest is parent of erased node

  0011b	8b 45 f0	 mov	 eax, DWORD PTR __Fixnode$[ebp]
  0011e	0f be 40 0d	 movsx	 eax, BYTE PTR [eax+13]
  00122	85 c0		 test	 eax, eax
  00124	74 08		 je	 SHORT $LN44@Extract
  00126	8b 45 f4	 mov	 eax, DWORD PTR __Fixnodeparent$[ebp]
  00129	89 45 d8	 mov	 DWORD PTR tv144[ebp], eax
  0012c	eb 2b		 jmp	 SHORT $LN45@Extract
$LN44@Extract:
  0012e	8b 45 f0	 mov	 eax, DWORD PTR __Fixnode$[ebp]
  00131	89 45 e0	 mov	 DWORD PTR __Pnode$[ebp], eax
  00134	8b 45 bc	 mov	 eax, DWORD PTR $T1[ebp]
  00137	89 45 d8	 mov	 DWORD PTR tv144[ebp], eax
$LN64@Extract:

; 443  :         while (!_Pnode->_Right->_Isnil) {

  0013a	8b 45 e0	 mov	 eax, DWORD PTR __Pnode$[ebp]
  0013d	8b 40 08	 mov	 eax, DWORD PTR [eax+8]
  00140	0f be 40 0d	 movsx	 eax, BYTE PTR [eax+13]
  00144	85 c0		 test	 eax, eax
  00146	75 0b		 jne	 SHORT $LN65@Extract

; 444  :             _Pnode = _Pnode->_Right;

  00148	8b 45 e0	 mov	 eax, DWORD PTR __Pnode$[ebp]
  0014b	8b 40 08	 mov	 eax, DWORD PTR [eax+8]
  0014e	89 45 e0	 mov	 DWORD PTR __Pnode$[ebp], eax

; 445  :         }

  00151	eb e7		 jmp	 SHORT $LN64@Extract
$LN65@Extract:

; 446  : 
; 447  :         return _Pnode;

  00153	8b 45 e0	 mov	 eax, DWORD PTR __Pnode$[ebp]
  00156	89 45 d8	 mov	 DWORD PTR tv144[ebp], eax
$LN45@Extract:

; 539  :                 _Myhead->_Right = _Fixnode->_Isnil ? _Fixnodeparent // largest is parent of erased node

  00159	8b 45 e8	 mov	 eax, DWORD PTR _this$[ebp]
  0015c	8b 00		 mov	 eax, DWORD PTR [eax]
  0015e	8b 4d d8	 mov	 ecx, DWORD PTR tv144[ebp]
  00161	89 48 08	 mov	 DWORD PTR [eax+8], ecx
$LN17@Extract:

; 540  :                                                    : _Max(_Fixnode); // largest in relinked subtree
; 541  :             }
; 542  :         } else { // erased has two subtrees, _Pnode is successor to erased

  00164	e9 f1 00 00 00	 jmp	 $LN10@Extract
$LN9@Extract:

; 543  :             _Erasednode->_Left->_Parent = _Pnode; // link left up

  00169	8b 45 ec	 mov	 eax, DWORD PTR __Erasednode$[ebp]
  0016c	8b 00		 mov	 eax, DWORD PTR [eax]
  0016e	8b 4d f8	 mov	 ecx, DWORD PTR __Pnode$[ebp]
  00171	89 48 04	 mov	 DWORD PTR [eax+4], ecx

; 544  :             _Pnode->_Left               = _Erasednode->_Left; // link successor down

  00174	8b 45 f8	 mov	 eax, DWORD PTR __Pnode$[ebp]
  00177	8b 4d ec	 mov	 ecx, DWORD PTR __Erasednode$[ebp]
  0017a	8b 09		 mov	 ecx, DWORD PTR [ecx]
  0017c	89 08		 mov	 DWORD PTR [eax], ecx

; 545  : 
; 546  :             if (_Pnode == _Erasednode->_Right) {

  0017e	8b 45 ec	 mov	 eax, DWORD PTR __Erasednode$[ebp]
  00181	8b 4d f8	 mov	 ecx, DWORD PTR __Pnode$[ebp]
  00184	3b 48 08	 cmp	 ecx, DWORD PTR [eax+8]
  00187	75 08		 jne	 SHORT $LN18@Extract

; 547  :                 _Fixnodeparent = _Pnode; // successor is next to erased

  00189	8b 45 f8	 mov	 eax, DWORD PTR __Pnode$[ebp]
  0018c	89 45 f4	 mov	 DWORD PTR __Fixnodeparent$[ebp], eax

; 548  :             } else { // successor further down, link in place of erased

  0018f	eb 3d		 jmp	 SHORT $LN19@Extract
$LN18@Extract:

; 549  :                 _Fixnodeparent = _Pnode->_Parent; // parent is successor's

  00191	8b 45 f8	 mov	 eax, DWORD PTR __Pnode$[ebp]
  00194	8b 40 04	 mov	 eax, DWORD PTR [eax+4]
  00197	89 45 f4	 mov	 DWORD PTR __Fixnodeparent$[ebp], eax

; 550  :                 if (!_Fixnode->_Isnil) {

  0019a	8b 45 f0	 mov	 eax, DWORD PTR __Fixnode$[ebp]
  0019d	0f be 40 0d	 movsx	 eax, BYTE PTR [eax+13]
  001a1	85 c0		 test	 eax, eax
  001a3	75 09		 jne	 SHORT $LN20@Extract

; 551  :                     _Fixnode->_Parent = _Fixnodeparent; // link fix up

  001a5	8b 45 f0	 mov	 eax, DWORD PTR __Fixnode$[ebp]
  001a8	8b 4d f4	 mov	 ecx, DWORD PTR __Fixnodeparent$[ebp]
  001ab	89 48 04	 mov	 DWORD PTR [eax+4], ecx
$LN20@Extract:

; 552  :                 }
; 553  : 
; 554  :                 _Fixnodeparent->_Left        = _Fixnode; // link fix down

  001ae	8b 45 f4	 mov	 eax, DWORD PTR __Fixnodeparent$[ebp]
  001b1	8b 4d f0	 mov	 ecx, DWORD PTR __Fixnode$[ebp]
  001b4	89 08		 mov	 DWORD PTR [eax], ecx

; 555  :                 _Pnode->_Right               = _Erasednode->_Right; // link next down

  001b6	8b 45 f8	 mov	 eax, DWORD PTR __Pnode$[ebp]
  001b9	8b 4d ec	 mov	 ecx, DWORD PTR __Erasednode$[ebp]
  001bc	8b 49 08	 mov	 ecx, DWORD PTR [ecx+8]
  001bf	89 48 08	 mov	 DWORD PTR [eax+8], ecx

; 556  :                 _Erasednode->_Right->_Parent = _Pnode; // right up

  001c2	8b 45 ec	 mov	 eax, DWORD PTR __Erasednode$[ebp]
  001c5	8b 40 08	 mov	 eax, DWORD PTR [eax+8]
  001c8	8b 4d f8	 mov	 ecx, DWORD PTR __Pnode$[ebp]
  001cb	89 48 04	 mov	 DWORD PTR [eax+4], ecx
$LN19@Extract:

; 557  :             }
; 558  : 
; 559  :             if (_Myhead->_Parent == _Erasednode) {

  001ce	8b 45 e8	 mov	 eax, DWORD PTR _this$[ebp]
  001d1	8b 00		 mov	 eax, DWORD PTR [eax]
  001d3	8b 40 04	 mov	 eax, DWORD PTR [eax+4]
  001d6	3b 45 ec	 cmp	 eax, DWORD PTR __Erasednode$[ebp]
  001d9	75 0d		 jne	 SHORT $LN21@Extract

; 560  :                 _Myhead->_Parent = _Pnode; // link down from root

  001db	8b 45 e8	 mov	 eax, DWORD PTR _this$[ebp]
  001de	8b 00		 mov	 eax, DWORD PTR [eax]
  001e0	8b 4d f8	 mov	 ecx, DWORD PTR __Pnode$[ebp]
  001e3	89 48 04	 mov	 DWORD PTR [eax+4], ecx
  001e6	eb 26		 jmp	 SHORT $LN22@Extract
$LN21@Extract:

; 561  :             } else if (_Erasednode->_Parent->_Left == _Erasednode) {

  001e8	8b 45 ec	 mov	 eax, DWORD PTR __Erasednode$[ebp]
  001eb	8b 40 04	 mov	 eax, DWORD PTR [eax+4]
  001ee	8b 00		 mov	 eax, DWORD PTR [eax]
  001f0	3b 45 ec	 cmp	 eax, DWORD PTR __Erasednode$[ebp]
  001f3	75 0d		 jne	 SHORT $LN23@Extract

; 562  :                 _Erasednode->_Parent->_Left = _Pnode; // link down to left

  001f5	8b 45 ec	 mov	 eax, DWORD PTR __Erasednode$[ebp]
  001f8	8b 40 04	 mov	 eax, DWORD PTR [eax+4]
  001fb	8b 4d f8	 mov	 ecx, DWORD PTR __Pnode$[ebp]
  001fe	89 08		 mov	 DWORD PTR [eax], ecx

; 563  :             } else {

  00200	eb 0c		 jmp	 SHORT $LN22@Extract
$LN23@Extract:

; 564  :                 _Erasednode->_Parent->_Right = _Pnode; // link down to right

  00202	8b 45 ec	 mov	 eax, DWORD PTR __Erasednode$[ebp]
  00205	8b 40 04	 mov	 eax, DWORD PTR [eax+4]
  00208	8b 4d f8	 mov	 ecx, DWORD PTR __Pnode$[ebp]
  0020b	89 48 08	 mov	 DWORD PTR [eax+8], ecx
$LN22@Extract:

; 565  :             }
; 566  : 
; 567  :             _Pnode->_Parent = _Erasednode->_Parent; // link successor up

  0020e	8b 45 f8	 mov	 eax, DWORD PTR __Pnode$[ebp]
  00211	8b 4d ec	 mov	 ecx, DWORD PTR __Erasednode$[ebp]
  00214	8b 49 04	 mov	 ecx, DWORD PTR [ecx+4]
  00217	89 48 04	 mov	 DWORD PTR [eax+4], ecx

; 568  :             _STD swap(_Pnode->_Color, _Erasednode->_Color); // recolor it

  0021a	8b 45 ec	 mov	 eax, DWORD PTR __Erasednode$[ebp]
  0021d	83 c0 0c	 add	 eax, 12			; 0000000cH
  00220	89 45 d0	 mov	 DWORD PTR __Right$[ebp], eax
  00223	8b 45 f8	 mov	 eax, DWORD PTR __Pnode$[ebp]
  00226	83 c0 0c	 add	 eax, 12			; 0000000cH
  00229	89 45 d4	 mov	 DWORD PTR __Left$[ebp], eax
; File C:\Program Files (x86)\Microsoft Visual Studio\2019\Community\VC\Tools\MSVC\14.28.29333\include\type_traits

; 1455 :     return static_cast<remove_reference_t<_Ty>&&>(_Arg);

  0022c	8b 45 d4	 mov	 eax, DWORD PTR __Left$[ebp]
  0022f	89 45 cc	 mov	 DWORD PTR $T5[ebp], eax
; File C:\Program Files (x86)\Microsoft Visual Studio\2019\Community\VC\Tools\MSVC\14.28.29333\include\utility

; 104  :     _Ty _Tmp = _STD move(_Left);

  00232	8b 45 cc	 mov	 eax, DWORD PTR $T5[ebp]
  00235	8a 00		 mov	 al, BYTE PTR [eax]
  00237	88 45 ff	 mov	 BYTE PTR __Tmp$6[ebp], al
; File C:\Program Files (x86)\Microsoft Visual Studio\2019\Community\VC\Tools\MSVC\14.28.29333\include\type_traits

; 1455 :     return static_cast<remove_reference_t<_Ty>&&>(_Arg);

  0023a	8b 45 d0	 mov	 eax, DWORD PTR __Right$[ebp]
  0023d	89 45 c8	 mov	 DWORD PTR $T4[ebp], eax
; File C:\Program Files (x86)\Microsoft Visual Studio\2019\Community\VC\Tools\MSVC\14.28.29333\include\utility

; 105  :     _Left    = _STD move(_Right);

  00240	8b 45 d4	 mov	 eax, DWORD PTR __Left$[ebp]
  00243	8b 4d c8	 mov	 ecx, DWORD PTR $T4[ebp]
  00246	8a 09		 mov	 cl, BYTE PTR [ecx]
  00248	88 08		 mov	 BYTE PTR [eax], cl
; File C:\Program Files (x86)\Microsoft Visual Studio\2019\Community\VC\Tools\MSVC\14.28.29333\include\type_traits

; 1455 :     return static_cast<remove_reference_t<_Ty>&&>(_Arg);

  0024a	8d 45 ff	 lea	 eax, DWORD PTR __Tmp$6[ebp]
  0024d	89 45 c4	 mov	 DWORD PTR $T3[ebp], eax
; File C:\Program Files (x86)\Microsoft Visual Studio\2019\Community\VC\Tools\MSVC\14.28.29333\include\utility

; 106  :     _Right   = _STD move(_Tmp);

  00250	8b 45 d0	 mov	 eax, DWORD PTR __Right$[ebp]
  00253	8b 4d c4	 mov	 ecx, DWORD PTR $T3[ebp]
  00256	8a 09		 mov	 cl, BYTE PTR [ecx]
  00258	88 08		 mov	 BYTE PTR [eax], cl
$LN10@Extract:
; File C:\Program Files (x86)\Microsoft Visual Studio\2019\Community\VC\Tools\MSVC\14.28.29333\include\xtree

; 571  :         if (_Erasednode->_Color == _Black) { // erasing black link, must recolor/rebalance tree

  0025a	8b 45 ec	 mov	 eax, DWORD PTR __Erasednode$[ebp]
  0025d	0f be 40 0c	 movsx	 eax, BYTE PTR [eax+12]
  00261	83 f8 01	 cmp	 eax, 1
  00264	0f 85 f4 01 00
	00		 jne	 $LN25@Extract

; 572  :             for (; _Fixnode != _Myhead->_Parent && _Fixnode->_Color == _Black; _Fixnodeparent = _Fixnode->_Parent) {

  0026a	eb 09		 jmp	 SHORT $LN4@Extract
$LN2@Extract:
  0026c	8b 45 f0	 mov	 eax, DWORD PTR __Fixnode$[ebp]
  0026f	8b 40 04	 mov	 eax, DWORD PTR [eax+4]
  00272	89 45 f4	 mov	 DWORD PTR __Fixnodeparent$[ebp], eax
$LN4@Extract:
  00275	8b 45 e8	 mov	 eax, DWORD PTR _this$[ebp]
  00278	8b 00		 mov	 eax, DWORD PTR [eax]
  0027a	8b 4d f0	 mov	 ecx, DWORD PTR __Fixnode$[ebp]
  0027d	3b 48 04	 cmp	 ecx, DWORD PTR [eax+4]
  00280	0f 84 d1 01 00
	00		 je	 $LN3@Extract
  00286	8b 45 f0	 mov	 eax, DWORD PTR __Fixnode$[ebp]
  00289	0f be 40 0c	 movsx	 eax, BYTE PTR [eax+12]
  0028d	83 f8 01	 cmp	 eax, 1
  00290	0f 85 c1 01 00
	00		 jne	 $LN3@Extract

; 573  :                 if (_Fixnode == _Fixnodeparent->_Left) { // fixup left subtree

  00296	8b 45 f4	 mov	 eax, DWORD PTR __Fixnodeparent$[ebp]
  00299	8b 4d f0	 mov	 ecx, DWORD PTR __Fixnode$[ebp]
  0029c	3b 08		 cmp	 ecx, DWORD PTR [eax]
  0029e	0f 85 dd 00 00
	00		 jne	 $LN26@Extract

; 574  :                     _Pnode = _Fixnodeparent->_Right;

  002a4	8b 45 f4	 mov	 eax, DWORD PTR __Fixnodeparent$[ebp]
  002a7	8b 40 08	 mov	 eax, DWORD PTR [eax+8]
  002aa	89 45 f8	 mov	 DWORD PTR __Pnode$[ebp], eax

; 575  :                     if (_Pnode->_Color == _Red) { // rotate red up from right subtree

  002ad	8b 45 f8	 mov	 eax, DWORD PTR __Pnode$[ebp]
  002b0	0f be 40 0c	 movsx	 eax, BYTE PTR [eax+12]
  002b4	85 c0		 test	 eax, eax
  002b6	75 22		 jne	 SHORT $LN28@Extract

; 576  :                         _Pnode->_Color         = _Black;

  002b8	8b 45 f8	 mov	 eax, DWORD PTR __Pnode$[ebp]
  002bb	c6 40 0c 01	 mov	 BYTE PTR [eax+12], 1

; 577  :                         _Fixnodeparent->_Color = _Red;

  002bf	8b 45 f4	 mov	 eax, DWORD PTR __Fixnodeparent$[ebp]
  002c2	c6 40 0c 00	 mov	 BYTE PTR [eax+12], 0

; 578  :                         _Lrotate(_Fixnodeparent);

  002c6	ff 75 f4	 push	 DWORD PTR __Fixnodeparent$[ebp]
  002c9	8b 4d e8	 mov	 ecx, DWORD PTR _this$[ebp]
  002cc	e8 00 00 00 00	 call	 ?_Lrotate@?$_Tree_val@U?$_Tree_simple_types@U?$pair@$$CBKPAVCProperty@@@std@@@std@@@std@@QAEXPAU?$_Tree_node@U?$pair@$$CBKPAVCProperty@@@std@@PAX@2@@Z ; std::_Tree_val<std::_Tree_simple_types<std::pair<unsigned long const ,CProperty *> > >::_Lrotate

; 579  :                         _Pnode = _Fixnodeparent->_Right;

  002d1	8b 45 f4	 mov	 eax, DWORD PTR __Fixnodeparent$[ebp]
  002d4	8b 40 08	 mov	 eax, DWORD PTR [eax+8]
  002d7	89 45 f8	 mov	 DWORD PTR __Pnode$[ebp], eax
$LN28@Extract:

; 580  :                     }
; 581  : 
; 582  :                     if (_Pnode->_Isnil) {

  002da	8b 45 f8	 mov	 eax, DWORD PTR __Pnode$[ebp]
  002dd	0f be 40 0d	 movsx	 eax, BYTE PTR [eax+13]
  002e1	85 c0		 test	 eax, eax
  002e3	74 0b		 je	 SHORT $LN29@Extract

; 583  :                         _Fixnode = _Fixnodeparent; // shouldn't happen

  002e5	8b 45 f4	 mov	 eax, DWORD PTR __Fixnodeparent$[ebp]
  002e8	89 45 f0	 mov	 DWORD PTR __Fixnode$[ebp], eax

; 584  :                     } else if (_Pnode->_Left->_Color == _Black

  002eb	e9 8c 00 00 00	 jmp	 $LN30@Extract
$LN29@Extract:

; 585  :                                && _Pnode->_Right->_Color == _Black) { // redden right subtree with black children

  002f0	8b 45 f8	 mov	 eax, DWORD PTR __Pnode$[ebp]
  002f3	8b 00		 mov	 eax, DWORD PTR [eax]
  002f5	0f be 40 0c	 movsx	 eax, BYTE PTR [eax+12]
  002f9	83 f8 01	 cmp	 eax, 1
  002fc	75 1e		 jne	 SHORT $LN31@Extract
  002fe	8b 45 f8	 mov	 eax, DWORD PTR __Pnode$[ebp]
  00301	8b 40 08	 mov	 eax, DWORD PTR [eax+8]
  00304	0f be 40 0c	 movsx	 eax, BYTE PTR [eax+12]
  00308	83 f8 01	 cmp	 eax, 1
  0030b	75 0f		 jne	 SHORT $LN31@Extract

; 586  :                         _Pnode->_Color = _Red;

  0030d	8b 45 f8	 mov	 eax, DWORD PTR __Pnode$[ebp]
  00310	c6 40 0c 00	 mov	 BYTE PTR [eax+12], 0

; 587  :                         _Fixnode       = _Fixnodeparent;

  00314	8b 45 f4	 mov	 eax, DWORD PTR __Fixnodeparent$[ebp]
  00317	89 45 f0	 mov	 DWORD PTR __Fixnode$[ebp], eax

; 588  :                     } else { // must rearrange right subtree

  0031a	eb 60		 jmp	 SHORT $LN30@Extract
$LN31@Extract:

; 589  :                         if (_Pnode->_Right->_Color == _Black) { // rotate red up from left sub-subtree

  0031c	8b 45 f8	 mov	 eax, DWORD PTR __Pnode$[ebp]
  0031f	8b 40 08	 mov	 eax, DWORD PTR [eax+8]
  00322	0f be 40 0c	 movsx	 eax, BYTE PTR [eax+12]
  00326	83 f8 01	 cmp	 eax, 1
  00329	75 24		 jne	 SHORT $LN33@Extract

; 590  :                             _Pnode->_Left->_Color = _Black;

  0032b	8b 45 f8	 mov	 eax, DWORD PTR __Pnode$[ebp]
  0032e	8b 00		 mov	 eax, DWORD PTR [eax]
  00330	c6 40 0c 01	 mov	 BYTE PTR [eax+12], 1

; 591  :                             _Pnode->_Color        = _Red;

  00334	8b 45 f8	 mov	 eax, DWORD PTR __Pnode$[ebp]
  00337	c6 40 0c 00	 mov	 BYTE PTR [eax+12], 0

; 592  :                             _Rrotate(_Pnode);

  0033b	ff 75 f8	 push	 DWORD PTR __Pnode$[ebp]
  0033e	8b 4d e8	 mov	 ecx, DWORD PTR _this$[ebp]
  00341	e8 00 00 00 00	 call	 ?_Rrotate@?$_Tree_val@U?$_Tree_simple_types@U?$pair@$$CBKPAVCProperty@@@std@@@std@@@std@@QAEXPAU?$_Tree_node@U?$pair@$$CBKPAVCProperty@@@std@@PAX@2@@Z ; std::_Tree_val<std::_Tree_simple_types<std::pair<unsigned long const ,CProperty *> > >::_Rrotate

; 593  :                             _Pnode = _Fixnodeparent->_Right;

  00346	8b 45 f4	 mov	 eax, DWORD PTR __Fixnodeparent$[ebp]
  00349	8b 40 08	 mov	 eax, DWORD PTR [eax+8]
  0034c	89 45 f8	 mov	 DWORD PTR __Pnode$[ebp], eax
$LN33@Extract:

; 594  :                         }
; 595  : 
; 596  :                         _Pnode->_Color         = _Fixnodeparent->_Color;

  0034f	8b 45 f8	 mov	 eax, DWORD PTR __Pnode$[ebp]
  00352	8b 4d f4	 mov	 ecx, DWORD PTR __Fixnodeparent$[ebp]
  00355	8a 49 0c	 mov	 cl, BYTE PTR [ecx+12]
  00358	88 48 0c	 mov	 BYTE PTR [eax+12], cl

; 597  :                         _Fixnodeparent->_Color = _Black;

  0035b	8b 45 f4	 mov	 eax, DWORD PTR __Fixnodeparent$[ebp]
  0035e	c6 40 0c 01	 mov	 BYTE PTR [eax+12], 1

; 598  :                         _Pnode->_Right->_Color = _Black;

  00362	8b 45 f8	 mov	 eax, DWORD PTR __Pnode$[ebp]
  00365	8b 40 08	 mov	 eax, DWORD PTR [eax+8]
  00368	c6 40 0c 01	 mov	 BYTE PTR [eax+12], 1

; 599  :                         _Lrotate(_Fixnodeparent);

  0036c	ff 75 f4	 push	 DWORD PTR __Fixnodeparent$[ebp]
  0036f	8b 4d e8	 mov	 ecx, DWORD PTR _this$[ebp]
  00372	e8 00 00 00 00	 call	 ?_Lrotate@?$_Tree_val@U?$_Tree_simple_types@U?$pair@$$CBKPAVCProperty@@@std@@@std@@@std@@QAEXPAU?$_Tree_node@U?$pair@$$CBKPAVCProperty@@@std@@PAX@2@@Z ; std::_Tree_val<std::_Tree_simple_types<std::pair<unsigned long const ,CProperty *> > >::_Lrotate

; 600  :                         break; // tree now recolored/rebalanced

  00377	e9 db 00 00 00	 jmp	 $LN3@Extract
$LN30@Extract:

; 601  :                     }
; 602  :                 } else { // fixup right subtree

  0037c	e9 d1 00 00 00	 jmp	 $LN27@Extract
$LN26@Extract:

; 603  :                     _Pnode = _Fixnodeparent->_Left;

  00381	8b 45 f4	 mov	 eax, DWORD PTR __Fixnodeparent$[ebp]
  00384	8b 00		 mov	 eax, DWORD PTR [eax]
  00386	89 45 f8	 mov	 DWORD PTR __Pnode$[ebp], eax

; 604  :                     if (_Pnode->_Color == _Red) { // rotate red up from left subtree

  00389	8b 45 f8	 mov	 eax, DWORD PTR __Pnode$[ebp]
  0038c	0f be 40 0c	 movsx	 eax, BYTE PTR [eax+12]
  00390	85 c0		 test	 eax, eax
  00392	75 21		 jne	 SHORT $LN34@Extract

; 605  :                         _Pnode->_Color         = _Black;

  00394	8b 45 f8	 mov	 eax, DWORD PTR __Pnode$[ebp]
  00397	c6 40 0c 01	 mov	 BYTE PTR [eax+12], 1

; 606  :                         _Fixnodeparent->_Color = _Red;

  0039b	8b 45 f4	 mov	 eax, DWORD PTR __Fixnodeparent$[ebp]
  0039e	c6 40 0c 00	 mov	 BYTE PTR [eax+12], 0

; 607  :                         _Rrotate(_Fixnodeparent);

  003a2	ff 75 f4	 push	 DWORD PTR __Fixnodeparent$[ebp]
  003a5	8b 4d e8	 mov	 ecx, DWORD PTR _this$[ebp]
  003a8	e8 00 00 00 00	 call	 ?_Rrotate@?$_Tree_val@U?$_Tree_simple_types@U?$pair@$$CBKPAVCProperty@@@std@@@std@@@std@@QAEXPAU?$_Tree_node@U?$pair@$$CBKPAVCProperty@@@std@@PAX@2@@Z ; std::_Tree_val<std::_Tree_simple_types<std::pair<unsigned long const ,CProperty *> > >::_Rrotate

; 608  :                         _Pnode = _Fixnodeparent->_Left;

  003ad	8b 45 f4	 mov	 eax, DWORD PTR __Fixnodeparent$[ebp]
  003b0	8b 00		 mov	 eax, DWORD PTR [eax]
  003b2	89 45 f8	 mov	 DWORD PTR __Pnode$[ebp], eax
$LN34@Extract:

; 609  :                     }
; 610  : 
; 611  :                     if (_Pnode->_Isnil) {

  003b5	8b 45 f8	 mov	 eax, DWORD PTR __Pnode$[ebp]
  003b8	0f be 40 0d	 movsx	 eax, BYTE PTR [eax+13]
  003bc	85 c0		 test	 eax, eax
  003be	74 0b		 je	 SHORT $LN35@Extract

; 612  :                         _Fixnode = _Fixnodeparent; // shouldn't happen

  003c0	8b 45 f4	 mov	 eax, DWORD PTR __Fixnodeparent$[ebp]
  003c3	89 45 f0	 mov	 DWORD PTR __Fixnode$[ebp], eax

; 613  :                     } else if (_Pnode->_Right->_Color == _Black

  003c6	e9 87 00 00 00	 jmp	 $LN27@Extract
$LN35@Extract:

; 614  :                                && _Pnode->_Left->_Color == _Black) { // redden left subtree with black children

  003cb	8b 45 f8	 mov	 eax, DWORD PTR __Pnode$[ebp]
  003ce	8b 40 08	 mov	 eax, DWORD PTR [eax+8]
  003d1	0f be 40 0c	 movsx	 eax, BYTE PTR [eax+12]
  003d5	83 f8 01	 cmp	 eax, 1
  003d8	75 1d		 jne	 SHORT $LN37@Extract
  003da	8b 45 f8	 mov	 eax, DWORD PTR __Pnode$[ebp]
  003dd	8b 00		 mov	 eax, DWORD PTR [eax]
  003df	0f be 40 0c	 movsx	 eax, BYTE PTR [eax+12]
  003e3	83 f8 01	 cmp	 eax, 1
  003e6	75 0f		 jne	 SHORT $LN37@Extract

; 615  :                         _Pnode->_Color = _Red;

  003e8	8b 45 f8	 mov	 eax, DWORD PTR __Pnode$[ebp]
  003eb	c6 40 0c 00	 mov	 BYTE PTR [eax+12], 0

; 616  :                         _Fixnode       = _Fixnodeparent;

  003ef	8b 45 f4	 mov	 eax, DWORD PTR __Fixnodeparent$[ebp]
  003f2	89 45 f0	 mov	 DWORD PTR __Fixnode$[ebp], eax

; 617  :                     } else { // must rearrange left subtree

  003f5	eb 5b		 jmp	 SHORT $LN27@Extract
$LN37@Extract:

; 618  :                         if (_Pnode->_Left->_Color == _Black) { // rotate red up from right sub-subtree

  003f7	8b 45 f8	 mov	 eax, DWORD PTR __Pnode$[ebp]
  003fa	8b 00		 mov	 eax, DWORD PTR [eax]
  003fc	0f be 40 0c	 movsx	 eax, BYTE PTR [eax+12]
  00400	83 f8 01	 cmp	 eax, 1
  00403	75 24		 jne	 SHORT $LN39@Extract

; 619  :                             _Pnode->_Right->_Color = _Black;

  00405	8b 45 f8	 mov	 eax, DWORD PTR __Pnode$[ebp]
  00408	8b 40 08	 mov	 eax, DWORD PTR [eax+8]
  0040b	c6 40 0c 01	 mov	 BYTE PTR [eax+12], 1

; 620  :                             _Pnode->_Color         = _Red;

  0040f	8b 45 f8	 mov	 eax, DWORD PTR __Pnode$[ebp]
  00412	c6 40 0c 00	 mov	 BYTE PTR [eax+12], 0

; 621  :                             _Lrotate(_Pnode);

  00416	ff 75 f8	 push	 DWORD PTR __Pnode$[ebp]
  00419	8b 4d e8	 mov	 ecx, DWORD PTR _this$[ebp]
  0041c	e8 00 00 00 00	 call	 ?_Lrotate@?$_Tree_val@U?$_Tree_simple_types@U?$pair@$$CBKPAVCProperty@@@std@@@std@@@std@@QAEXPAU?$_Tree_node@U?$pair@$$CBKPAVCProperty@@@std@@PAX@2@@Z ; std::_Tree_val<std::_Tree_simple_types<std::pair<unsigned long const ,CProperty *> > >::_Lrotate

; 622  :                             _Pnode = _Fixnodeparent->_Left;

  00421	8b 45 f4	 mov	 eax, DWORD PTR __Fixnodeparent$[ebp]
  00424	8b 00		 mov	 eax, DWORD PTR [eax]
  00426	89 45 f8	 mov	 DWORD PTR __Pnode$[ebp], eax
$LN39@Extract:

; 623  :                         }
; 624  : 
; 625  :                         _Pnode->_Color         = _Fixnodeparent->_Color;

  00429	8b 45 f8	 mov	 eax, DWORD PTR __Pnode$[ebp]
  0042c	8b 4d f4	 mov	 ecx, DWORD PTR __Fixnodeparent$[ebp]
  0042f	8a 49 0c	 mov	 cl, BYTE PTR [ecx+12]
  00432	88 48 0c	 mov	 BYTE PTR [eax+12], cl

; 626  :                         _Fixnodeparent->_Color = _Black;

  00435	8b 45 f4	 mov	 eax, DWORD PTR __Fixnodeparent$[ebp]
  00438	c6 40 0c 01	 mov	 BYTE PTR [eax+12], 1

; 627  :                         _Pnode->_Left->_Color  = _Black;

  0043c	8b 45 f8	 mov	 eax, DWORD PTR __Pnode$[ebp]
  0043f	8b 00		 mov	 eax, DWORD PTR [eax]
  00441	c6 40 0c 01	 mov	 BYTE PTR [eax+12], 1

; 628  :                         _Rrotate(_Fixnodeparent);

  00445	ff 75 f4	 push	 DWORD PTR __Fixnodeparent$[ebp]
  00448	8b 4d e8	 mov	 ecx, DWORD PTR _this$[ebp]
  0044b	e8 00 00 00 00	 call	 ?_Rrotate@?$_Tree_val@U?$_Tree_simple_types@U?$pair@$$CBKPAVCProperty@@@std@@@std@@@std@@QAEXPAU?$_Tree_node@U?$pair@$$CBKPAVCProperty@@@std@@PAX@2@@Z ; std::_Tree_val<std::_Tree_simple_types<std::pair<unsigned long const ,CProperty *> > >::_Rrotate

; 629  :                         break; // tree now recolored/rebalanced

  00450	eb 05		 jmp	 SHORT $LN3@Extract
$LN27@Extract:

; 630  :                     }
; 631  :                 }
; 632  :             }

  00452	e9 15 fe ff ff	 jmp	 $LN2@Extract
$LN3@Extract:

; 633  : 
; 634  :             _Fixnode->_Color = _Black; // stopping node is black

  00457	8b 45 f0	 mov	 eax, DWORD PTR __Fixnode$[ebp]
  0045a	c6 40 0c 01	 mov	 BYTE PTR [eax+12], 1
$LN25@Extract:

; 635  :         }
; 636  : 
; 637  :         if (0 < _Mysize) {

  0045e	8b 45 e8	 mov	 eax, DWORD PTR _this$[ebp]
  00461	83 78 04 00	 cmp	 DWORD PTR [eax+4], 0
  00465	76 0d		 jbe	 SHORT $LN40@Extract

; 638  :             --_Mysize;

  00467	8b 45 e8	 mov	 eax, DWORD PTR _this$[ebp]
  0046a	8b 40 04	 mov	 eax, DWORD PTR [eax+4]
  0046d	48		 dec	 eax
  0046e	8b 4d e8	 mov	 ecx, DWORD PTR _this$[ebp]
  00471	89 41 04	 mov	 DWORD PTR [ecx+4], eax
$LN40@Extract:

; 639  :         }
; 640  : 
; 641  :         return _Erasednode;

  00474	8b 45 ec	 mov	 eax, DWORD PTR __Erasednode$[ebp]

; 642  :     }

  00477	c9		 leave
  00478	c2 04 00	 ret	 4
?_Extract@?$_Tree_val@U?$_Tree_simple_types@U?$pair@$$CBKPAVCProperty@@@std@@@std@@@std@@QAEPAU?$_Tree_node@U?$pair@$$CBKPAVCProperty@@@std@@PAX@2@V?$_Tree_unchecked_const_iterator@V?$_Tree_val@U?$_Tree_simple_types@U?$pair@$$CBKPAVCProperty@@@std@@@std@@@std@@U_Iterator_base0@2@@2@@Z ENDP ; std::_Tree_val<std::_Tree_simple_types<std::pair<unsigned long const ,CProperty *> > >::_Extract
_TEXT	ENDS
; Function compile flags: /Odspy
; File C:\Program Files (x86)\Microsoft Visual Studio\2019\Community\VC\Tools\MSVC\14.28.29333\include\xtree
;	COMDAT ?_Rrotate@?$_Tree_val@U?$_Tree_simple_types@U?$pair@$$CBKPAVCProperty@@@std@@@std@@@std@@QAEXPAU?$_Tree_node@U?$pair@$$CBKPAVCProperty@@@std@@PAX@2@@Z
_TEXT	SEGMENT
_this$ = -8						; size = 4
__Pnode$ = -4						; size = 4
__Wherenode$ = 8					; size = 4
?_Rrotate@?$_Tree_val@U?$_Tree_simple_types@U?$pair@$$CBKPAVCProperty@@@std@@@std@@@std@@QAEXPAU?$_Tree_node@U?$pair@$$CBKPAVCProperty@@@std@@PAX@2@@Z PROC ; std::_Tree_val<std::_Tree_simple_types<std::pair<unsigned long const ,CProperty *> > >::_Rrotate, COMDAT
; _this$ = ecx

; 480  :     void _Rrotate(_Nodeptr _Wherenode) noexcept { // promote left node to root of subtree

  00000	55		 push	 ebp
  00001	8b ec		 mov	 ebp, esp
  00003	51		 push	 ecx
  00004	51		 push	 ecx
  00005	89 4d f8	 mov	 DWORD PTR _this$[ebp], ecx

; 481  :         _Nodeptr _Pnode   = _Wherenode->_Left;

  00008	8b 45 08	 mov	 eax, DWORD PTR __Wherenode$[ebp]
  0000b	8b 00		 mov	 eax, DWORD PTR [eax]
  0000d	89 45 fc	 mov	 DWORD PTR __Pnode$[ebp], eax

; 482  :         _Wherenode->_Left = _Pnode->_Right;

  00010	8b 45 08	 mov	 eax, DWORD PTR __Wherenode$[ebp]
  00013	8b 4d fc	 mov	 ecx, DWORD PTR __Pnode$[ebp]
  00016	8b 49 08	 mov	 ecx, DWORD PTR [ecx+8]
  00019	89 08		 mov	 DWORD PTR [eax], ecx

; 483  : 
; 484  :         if (!_Pnode->_Right->_Isnil) {

  0001b	8b 45 fc	 mov	 eax, DWORD PTR __Pnode$[ebp]
  0001e	8b 40 08	 mov	 eax, DWORD PTR [eax+8]
  00021	0f be 40 0d	 movsx	 eax, BYTE PTR [eax+13]
  00025	85 c0		 test	 eax, eax
  00027	75 0c		 jne	 SHORT $LN2@Rrotate

; 485  :             _Pnode->_Right->_Parent = _Wherenode;

  00029	8b 45 fc	 mov	 eax, DWORD PTR __Pnode$[ebp]
  0002c	8b 40 08	 mov	 eax, DWORD PTR [eax+8]
  0002f	8b 4d 08	 mov	 ecx, DWORD PTR __Wherenode$[ebp]
  00032	89 48 04	 mov	 DWORD PTR [eax+4], ecx
$LN2@Rrotate:

; 486  :         }
; 487  : 
; 488  :         _Pnode->_Parent = _Wherenode->_Parent;

  00035	8b 45 fc	 mov	 eax, DWORD PTR __Pnode$[ebp]
  00038	8b 4d 08	 mov	 ecx, DWORD PTR __Wherenode$[ebp]
  0003b	8b 49 04	 mov	 ecx, DWORD PTR [ecx+4]
  0003e	89 48 04	 mov	 DWORD PTR [eax+4], ecx

; 489  : 
; 490  :         if (_Wherenode == _Myhead->_Parent) {

  00041	8b 45 f8	 mov	 eax, DWORD PTR _this$[ebp]
  00044	8b 00		 mov	 eax, DWORD PTR [eax]
  00046	8b 4d 08	 mov	 ecx, DWORD PTR __Wherenode$[ebp]
  00049	3b 48 04	 cmp	 ecx, DWORD PTR [eax+4]
  0004c	75 0d		 jne	 SHORT $LN3@Rrotate

; 491  :             _Myhead->_Parent = _Pnode;

  0004e	8b 45 f8	 mov	 eax, DWORD PTR _this$[ebp]
  00051	8b 00		 mov	 eax, DWORD PTR [eax]
  00053	8b 4d fc	 mov	 ecx, DWORD PTR __Pnode$[ebp]
  00056	89 48 04	 mov	 DWORD PTR [eax+4], ecx
  00059	eb 27		 jmp	 SHORT $LN4@Rrotate
$LN3@Rrotate:

; 492  :         } else if (_Wherenode == _Wherenode->_Parent->_Right) {

  0005b	8b 45 08	 mov	 eax, DWORD PTR __Wherenode$[ebp]
  0005e	8b 40 04	 mov	 eax, DWORD PTR [eax+4]
  00061	8b 4d 08	 mov	 ecx, DWORD PTR __Wherenode$[ebp]
  00064	3b 48 08	 cmp	 ecx, DWORD PTR [eax+8]
  00067	75 0e		 jne	 SHORT $LN5@Rrotate

; 493  :             _Wherenode->_Parent->_Right = _Pnode;

  00069	8b 45 08	 mov	 eax, DWORD PTR __Wherenode$[ebp]
  0006c	8b 40 04	 mov	 eax, DWORD PTR [eax+4]
  0006f	8b 4d fc	 mov	 ecx, DWORD PTR __Pnode$[ebp]
  00072	89 48 08	 mov	 DWORD PTR [eax+8], ecx

; 494  :         } else {

  00075	eb 0b		 jmp	 SHORT $LN4@Rrotate
$LN5@Rrotate:

; 495  :             _Wherenode->_Parent->_Left = _Pnode;

  00077	8b 45 08	 mov	 eax, DWORD PTR __Wherenode$[ebp]
  0007a	8b 40 04	 mov	 eax, DWORD PTR [eax+4]
  0007d	8b 4d fc	 mov	 ecx, DWORD PTR __Pnode$[ebp]
  00080	89 08		 mov	 DWORD PTR [eax], ecx
$LN4@Rrotate:

; 496  :         }
; 497  : 
; 498  :         _Pnode->_Right      = _Wherenode;

  00082	8b 45 fc	 mov	 eax, DWORD PTR __Pnode$[ebp]
  00085	8b 4d 08	 mov	 ecx, DWORD PTR __Wherenode$[ebp]
  00088	89 48 08	 mov	 DWORD PTR [eax+8], ecx

; 499  :         _Wherenode->_Parent = _Pnode;

  0008b	8b 45 08	 mov	 eax, DWORD PTR __Wherenode$[ebp]
  0008e	8b 4d fc	 mov	 ecx, DWORD PTR __Pnode$[ebp]
  00091	89 48 04	 mov	 DWORD PTR [eax+4], ecx

; 500  :     }

  00094	c9		 leave
  00095	c2 04 00	 ret	 4
?_Rrotate@?$_Tree_val@U?$_Tree_simple_types@U?$pair@$$CBKPAVCProperty@@@std@@@std@@@std@@QAEXPAU?$_Tree_node@U?$pair@$$CBKPAVCProperty@@@std@@PAX@2@@Z ENDP ; std::_Tree_val<std::_Tree_simple_types<std::pair<unsigned long const ,CProperty *> > >::_Rrotate
_TEXT	ENDS
; Function compile flags: /Odspy
; File C:\Program Files (x86)\Microsoft Visual Studio\2019\Community\VC\Tools\MSVC\14.28.29333\include\xtree
;	COMDAT ?_Lrotate@?$_Tree_val@U?$_Tree_simple_types@U?$pair@$$CBKPAVCProperty@@@std@@@std@@@std@@QAEXPAU?$_Tree_node@U?$pair@$$CBKPAVCProperty@@@std@@PAX@2@@Z
_TEXT	SEGMENT
_this$ = -8						; size = 4
__Pnode$ = -4						; size = 4
__Wherenode$ = 8					; size = 4
?_Lrotate@?$_Tree_val@U?$_Tree_simple_types@U?$pair@$$CBKPAVCProperty@@@std@@@std@@@std@@QAEXPAU?$_Tree_node@U?$pair@$$CBKPAVCProperty@@@std@@PAX@2@@Z PROC ; std::_Tree_val<std::_Tree_simple_types<std::pair<unsigned long const ,CProperty *> > >::_Lrotate, COMDAT
; _this$ = ecx

; 458  :     void _Lrotate(_Nodeptr _Wherenode) noexcept { // promote right node to root of subtree

  00000	55		 push	 ebp
  00001	8b ec		 mov	 ebp, esp
  00003	51		 push	 ecx
  00004	51		 push	 ecx
  00005	89 4d f8	 mov	 DWORD PTR _this$[ebp], ecx

; 459  :         _Nodeptr _Pnode    = _Wherenode->_Right;

  00008	8b 45 08	 mov	 eax, DWORD PTR __Wherenode$[ebp]
  0000b	8b 40 08	 mov	 eax, DWORD PTR [eax+8]
  0000e	89 45 fc	 mov	 DWORD PTR __Pnode$[ebp], eax

; 460  :         _Wherenode->_Right = _Pnode->_Left;

  00011	8b 45 08	 mov	 eax, DWORD PTR __Wherenode$[ebp]
  00014	8b 4d fc	 mov	 ecx, DWORD PTR __Pnode$[ebp]
  00017	8b 09		 mov	 ecx, DWORD PTR [ecx]
  00019	89 48 08	 mov	 DWORD PTR [eax+8], ecx

; 461  : 
; 462  :         if (!_Pnode->_Left->_Isnil) {

  0001c	8b 45 fc	 mov	 eax, DWORD PTR __Pnode$[ebp]
  0001f	8b 00		 mov	 eax, DWORD PTR [eax]
  00021	0f be 40 0d	 movsx	 eax, BYTE PTR [eax+13]
  00025	85 c0		 test	 eax, eax
  00027	75 0b		 jne	 SHORT $LN2@Lrotate

; 463  :             _Pnode->_Left->_Parent = _Wherenode;

  00029	8b 45 fc	 mov	 eax, DWORD PTR __Pnode$[ebp]
  0002c	8b 00		 mov	 eax, DWORD PTR [eax]
  0002e	8b 4d 08	 mov	 ecx, DWORD PTR __Wherenode$[ebp]
  00031	89 48 04	 mov	 DWORD PTR [eax+4], ecx
$LN2@Lrotate:

; 464  :         }
; 465  : 
; 466  :         _Pnode->_Parent = _Wherenode->_Parent;

  00034	8b 45 fc	 mov	 eax, DWORD PTR __Pnode$[ebp]
  00037	8b 4d 08	 mov	 ecx, DWORD PTR __Wherenode$[ebp]
  0003a	8b 49 04	 mov	 ecx, DWORD PTR [ecx+4]
  0003d	89 48 04	 mov	 DWORD PTR [eax+4], ecx

; 467  : 
; 468  :         if (_Wherenode == _Myhead->_Parent) {

  00040	8b 45 f8	 mov	 eax, DWORD PTR _this$[ebp]
  00043	8b 00		 mov	 eax, DWORD PTR [eax]
  00045	8b 4d 08	 mov	 ecx, DWORD PTR __Wherenode$[ebp]
  00048	3b 48 04	 cmp	 ecx, DWORD PTR [eax+4]
  0004b	75 0d		 jne	 SHORT $LN3@Lrotate

; 469  :             _Myhead->_Parent = _Pnode;

  0004d	8b 45 f8	 mov	 eax, DWORD PTR _this$[ebp]
  00050	8b 00		 mov	 eax, DWORD PTR [eax]
  00052	8b 4d fc	 mov	 ecx, DWORD PTR __Pnode$[ebp]
  00055	89 48 04	 mov	 DWORD PTR [eax+4], ecx
  00058	eb 26		 jmp	 SHORT $LN4@Lrotate
$LN3@Lrotate:

; 470  :         } else if (_Wherenode == _Wherenode->_Parent->_Left) {

  0005a	8b 45 08	 mov	 eax, DWORD PTR __Wherenode$[ebp]
  0005d	8b 40 04	 mov	 eax, DWORD PTR [eax+4]
  00060	8b 4d 08	 mov	 ecx, DWORD PTR __Wherenode$[ebp]
  00063	3b 08		 cmp	 ecx, DWORD PTR [eax]
  00065	75 0d		 jne	 SHORT $LN5@Lrotate

; 471  :             _Wherenode->_Parent->_Left = _Pnode;

  00067	8b 45 08	 mov	 eax, DWORD PTR __Wherenode$[ebp]
  0006a	8b 40 04	 mov	 eax, DWORD PTR [eax+4]
  0006d	8b 4d fc	 mov	 ecx, DWORD PTR __Pnode$[ebp]
  00070	89 08		 mov	 DWORD PTR [eax], ecx

; 472  :         } else {

  00072	eb 0c		 jmp	 SHORT $LN4@Lrotate
$LN5@Lrotate:

; 473  :             _Wherenode->_Parent->_Right = _Pnode;

  00074	8b 45 08	 mov	 eax, DWORD PTR __Wherenode$[ebp]
  00077	8b 40 04	 mov	 eax, DWORD PTR [eax+4]
  0007a	8b 4d fc	 mov	 ecx, DWORD PTR __Pnode$[ebp]
  0007d	89 48 08	 mov	 DWORD PTR [eax+8], ecx
$LN4@Lrotate:

; 474  :         }
; 475  : 
; 476  :         _Pnode->_Left       = _Wherenode;

  00080	8b 45 fc	 mov	 eax, DWORD PTR __Pnode$[ebp]
  00083	8b 4d 08	 mov	 ecx, DWORD PTR __Wherenode$[ebp]
  00086	89 08		 mov	 DWORD PTR [eax], ecx

; 477  :         _Wherenode->_Parent = _Pnode;

  00088	8b 45 08	 mov	 eax, DWORD PTR __Wherenode$[ebp]
  0008b	8b 4d fc	 mov	 ecx, DWORD PTR __Pnode$[ebp]
  0008e	89 48 04	 mov	 DWORD PTR [eax+4], ecx

; 478  :     }

  00091	c9		 leave
  00092	c2 04 00	 ret	 4
?_Lrotate@?$_Tree_val@U?$_Tree_simple_types@U?$pair@$$CBKPAVCProperty@@@std@@@std@@@std@@QAEXPAU?$_Tree_node@U?$pair@$$CBKPAVCProperty@@@std@@PAX@2@@Z ENDP ; std::_Tree_val<std::_Tree_simple_types<std::pair<unsigned long const ,CProperty *> > >::_Lrotate
_TEXT	ENDS
; Function compile flags: /Odspy
; File C:\Program Files (x86)\Microsoft Visual Studio\2019\Community\VC\Tools\MSVC\14.28.29333\include\xtree
; File C:\Program Files (x86)\Microsoft Visual Studio\2019\Community\VC\Tools\MSVC\14.28.29333\include\xstddef
; File C:\Program Files (x86)\Microsoft Visual Studio\2019\Community\VC\Tools\MSVC\14.28.29333\include\xtree
; File C:\Program Files (x86)\Microsoft Visual Studio\2019\Community\VC\Tools\MSVC\14.28.29333\include\xmemory
; File C:\Program Files (x86)\Microsoft Visual Studio\2019\Community\VC\Tools\MSVC\14.28.29333\include\xtree
;	COMDAT ?_Alloc_sentinel_and_proxy@?$_Tree@V?$_Tmap_traits@KPAVCProperty@@U?$less@K@std@@V?$allocator@U?$pair@$$CBKPAVCProperty@@@std@@@3@$0A@@std@@@std@@IAEXXZ
_TEXT	SEGMENT
__Alproxy$ = -28					; size = 4
__Scary$ = -24						; size = 4
$T1 = -20						; size = 4
$T2 = -16						; size = 4
$T3 = -12						; size = 4
_this$ = -8						; size = 4
_$S13$ = -1						; size = 1
?_Alloc_sentinel_and_proxy@?$_Tree@V?$_Tmap_traits@KPAVCProperty@@U?$less@K@std@@V?$allocator@U?$pair@$$CBKPAVCProperty@@@std@@@3@$0A@@std@@@std@@IAEXXZ PROC ; std::_Tree<std::_Tmap_traits<unsigned long,CProperty *,std::less<unsigned long>,std::allocator<std::pair<unsigned long const ,CProperty *> >,0> >::_Alloc_sentinel_and_proxy, COMDAT
; _this$ = ecx

; 2017 :     void _Alloc_sentinel_and_proxy() {

  00000	55		 push	 ebp
  00001	8b ec		 mov	 ebp, esp
  00003	83 ec 1c	 sub	 esp, 28			; 0000001cH
  00006	89 4d f8	 mov	 DWORD PTR _this$[ebp], ecx

; 2047 :         return _STD addressof(_Mypair._Myval2._Myval2);

  00009	8b 45 f8	 mov	 eax, DWORD PTR _this$[ebp]
; File C:\Program Files (x86)\Microsoft Visual Studio\2019\Community\VC\Tools\MSVC\14.28.29333\include\xstddef

; 275  :     return __builtin_addressof(_Val);

  0000c	89 45 f4	 mov	 DWORD PTR $T3[ebp], eax
; File C:\Program Files (x86)\Microsoft Visual Studio\2019\Community\VC\Tools\MSVC\14.28.29333\include\xtree

; 2047 :         return _STD addressof(_Mypair._Myval2._Myval2);

  0000f	8b 45 f4	 mov	 eax, DWORD PTR $T3[ebp]
  00012	89 45 e8	 mov	 DWORD PTR __Scary$[ebp], eax

; 2018 :         const auto _Scary = _Get_scary();
; 2019 :         auto&& _Alproxy   = _GET_PROXY_ALLOCATOR(_Alnode, _Getal());

  00015	8d 45 ff	 lea	 eax, DWORD PTR _$S13$[ebp]
  00018	89 45 e4	 mov	 DWORD PTR __Alproxy$[ebp], eax

; 2039 :         return _Mypair._Myval2._Get_first();

  0001b	8b 45 f8	 mov	 eax, DWORD PTR _this$[ebp]
; File C:\Program Files (x86)\Microsoft Visual Studio\2019\Community\VC\Tools\MSVC\14.28.29333\include\xmemory

; 1347 :         return *this;

  0001e	89 45 f0	 mov	 DWORD PTR $T2[ebp], eax
; File C:\Program Files (x86)\Microsoft Visual Studio\2019\Community\VC\Tools\MSVC\14.28.29333\include\xtree

; 2039 :         return _Mypair._Myval2._Get_first();

  00021	8b 45 f0	 mov	 eax, DWORD PTR $T2[ebp]
  00024	89 45 ec	 mov	 DWORD PTR $T1[ebp], eax

; 2020 :         _Container_proxy_ptr<_Alnode> _Proxy(_Alproxy, *_Scary);
; 2021 :         _Scary->_Myhead = _Node::_Buyheadnode(_Getal());

  00027	ff 75 ec	 push	 DWORD PTR $T1[ebp]
  0002a	e8 00 00 00 00	 call	 ??$_Buyheadnode@V?$allocator@U?$_Tree_node@U?$pair@$$CBKPAVCProperty@@@std@@PAX@std@@@std@@@?$_Tree_node@U?$pair@$$CBKPAVCProperty@@@std@@PAX@std@@SAPAU01@AAV?$allocator@U?$_Tree_node@U?$pair@$$CBKPAVCProperty@@@std@@PAX@std@@@1@@Z ; std::_Tree_node<std::pair<unsigned long const ,CProperty *>,void *>::_Buyheadnode<std::allocator<std::_Tree_node<std::pair<unsigned long const ,CProperty *>,void *> > >
  0002f	59		 pop	 ecx
  00030	8b 4d e8	 mov	 ecx, DWORD PTR __Scary$[ebp]
  00033	89 01		 mov	 DWORD PTR [ecx], eax

; 2022 :         _Proxy._Release();
; 2023 :     }

  00035	c9		 leave
  00036	c3		 ret	 0
?_Alloc_sentinel_and_proxy@?$_Tree@V?$_Tmap_traits@KPAVCProperty@@U?$less@K@std@@V?$allocator@U?$pair@$$CBKPAVCProperty@@@std@@@3@$0A@@std@@@std@@IAEXXZ ENDP ; std::_Tree<std::_Tmap_traits<unsigned long,CProperty *,std::less<unsigned long>,std::allocator<std::pair<unsigned long const ,CProperty *> >,0> >::_Alloc_sentinel_and_proxy
_TEXT	ENDS
; Function compile flags: /Odspy
; File C:\Program Files (x86)\Microsoft Visual Studio\2019\Community\VC\Tools\MSVC\14.28.29333\include\xtree
; File C:\Program Files (x86)\Microsoft Visual Studio\2019\Community\VC\Tools\MSVC\14.28.29333\include\xstddef
; File C:\Program Files (x86)\Microsoft Visual Studio\2019\Community\VC\Tools\MSVC\14.28.29333\include\xtree
;	COMDAT ?_Check_grow_by_1@?$_Tree@V?$_Tmap_traits@KPAVCProperty@@U?$less@K@std@@V?$allocator@U?$pair@$$CBKPAVCProperty@@@std@@@3@$0A@@std@@@std@@IAEXXZ
_TEXT	SEGMENT
$T1 = -12						; size = 4
$T2 = -8						; size = 4
_this$ = -4						; size = 4
?_Check_grow_by_1@?$_Tree@V?$_Tmap_traits@KPAVCProperty@@U?$less@K@std@@V?$allocator@U?$pair@$$CBKPAVCProperty@@@std@@@3@$0A@@std@@@std@@IAEXXZ PROC ; std::_Tree<std::_Tmap_traits<unsigned long,CProperty *,std::less<unsigned long>,std::allocator<std::pair<unsigned long const ,CProperty *> >,0> >::_Check_grow_by_1, COMDAT
; _this$ = ecx

; 1718 :     void _Check_grow_by_1() {

  00000	55		 push	 ebp
  00001	8b ec		 mov	 ebp, esp
  00003	83 ec 0c	 sub	 esp, 12			; 0000000cH
  00006	89 4d fc	 mov	 DWORD PTR _this$[ebp], ecx

; 2047 :         return _STD addressof(_Mypair._Myval2._Myval2);

  00009	8b 45 fc	 mov	 eax, DWORD PTR _this$[ebp]
; File C:\Program Files (x86)\Microsoft Visual Studio\2019\Community\VC\Tools\MSVC\14.28.29333\include\xstddef

; 275  :     return __builtin_addressof(_Val);

  0000c	89 45 f8	 mov	 DWORD PTR $T2[ebp], eax
; File C:\Program Files (x86)\Microsoft Visual Studio\2019\Community\VC\Tools\MSVC\14.28.29333\include\xtree

; 2047 :         return _STD addressof(_Mypair._Myval2._Myval2);

  0000f	8b 45 f8	 mov	 eax, DWORD PTR $T2[ebp]
  00012	89 45 f4	 mov	 DWORD PTR $T1[ebp], eax

; 1719 :         if (max_size() == _Get_scary()->_Mysize) {

  00015	8b 4d fc	 mov	 ecx, DWORD PTR _this$[ebp]
  00018	e8 00 00 00 00	 call	 ?max_size@?$_Tree@V?$_Tmap_traits@KPAVCProperty@@U?$less@K@std@@V?$allocator@U?$pair@$$CBKPAVCProperty@@@std@@@3@$0A@@std@@@std@@QBEIXZ ; std::_Tree<std::_Tmap_traits<unsigned long,CProperty *,std::less<unsigned long>,std::allocator<std::pair<unsigned long const ,CProperty *> >,0> >::max_size
  0001d	8b 4d f4	 mov	 ecx, DWORD PTR $T1[ebp]
  00020	3b 41 04	 cmp	 eax, DWORD PTR [ecx+4]
  00023	75 05		 jne	 SHORT $LN3@Check_grow

; 1720 :             _Throw_tree_length_error();

  00025	e8 00 00 00 00	 call	 ?_Throw_tree_length_error@std@@YAXXZ ; std::_Throw_tree_length_error
$LN3@Check_grow:

; 1721 :         }
; 1722 :     }

  0002a	c9		 leave
  0002b	c3		 ret	 0
?_Check_grow_by_1@?$_Tree@V?$_Tmap_traits@KPAVCProperty@@U?$less@K@std@@V?$allocator@U?$pair@$$CBKPAVCProperty@@@std@@@3@$0A@@std@@@std@@IAEXXZ ENDP ; std::_Tree<std::_Tmap_traits<unsigned long,CProperty *,std::less<unsigned long>,std::allocator<std::pair<unsigned long const ,CProperty *> >,0> >::_Check_grow_by_1
_TEXT	ENDS
; Function compile flags: /Odspy
; File C:\Program Files (x86)\Microsoft Visual Studio\2019\Community\VC\Tools\MSVC\14.28.29333\include\xtree
; File C:\Program Files (x86)\Microsoft Visual Studio\2019\Community\VC\Tools\MSVC\14.28.29333\include\xstddef
; File C:\Program Files (x86)\Microsoft Visual Studio\2019\Community\VC\Tools\MSVC\14.28.29333\include\xtree
;	COMDAT ?find@?$_Tree@V?$_Tmap_traits@KPAVCProperty@@U?$less@K@std@@V?$allocator@U?$pair@$$CBKPAVCProperty@@@std@@@3@$0A@@std@@@std@@QAE?AV?$_Tree_iterator@V?$_Tree_val@U?$_Tree_simple_types@U?$pair@$$CBKPAVCProperty@@@std@@@std@@@std@@@2@ABK@Z
_TEXT	SEGMENT
$T1 = -16						; size = 4
___param0$ = -12					; size = 4
$T2 = -8						; size = 4
_this$ = -4						; size = 4
___$ReturnUdt$ = 8					; size = 4
__Keyval$ = 12						; size = 4
?find@?$_Tree@V?$_Tmap_traits@KPAVCProperty@@U?$less@K@std@@V?$allocator@U?$pair@$$CBKPAVCProperty@@@std@@@3@$0A@@std@@@std@@QAE?AV?$_Tree_iterator@V?$_Tree_val@U?$_Tree_simple_types@U?$pair@$$CBKPAVCProperty@@@std@@@std@@@std@@@2@ABK@Z PROC ; std::_Tree<std::_Tmap_traits<unsigned long,CProperty *,std::less<unsigned long>,std::allocator<std::pair<unsigned long const ,CProperty *> >,0> >::find, COMDAT
; _this$ = ecx

; 1467 :     _NODISCARD iterator find(const key_type& _Keyval) {

  00000	55		 push	 ebp
  00001	8b ec		 mov	 ebp, esp
  00003	83 ec 10	 sub	 esp, 16			; 00000010H
  00006	89 4d fc	 mov	 DWORD PTR _this$[ebp], ecx

; 2047 :         return _STD addressof(_Mypair._Myval2._Myval2);

  00009	8b 45 fc	 mov	 eax, DWORD PTR _this$[ebp]
; File C:\Program Files (x86)\Microsoft Visual Studio\2019\Community\VC\Tools\MSVC\14.28.29333\include\xstddef

; 275  :     return __builtin_addressof(_Val);

  0000c	89 45 f8	 mov	 DWORD PTR $T2[ebp], eax
; File C:\Program Files (x86)\Microsoft Visual Studio\2019\Community\VC\Tools\MSVC\14.28.29333\include\xtree

; 2047 :         return _STD addressof(_Mypair._Myval2._Myval2);

  0000f	8b 45 f8	 mov	 eax, DWORD PTR $T2[ebp]
  00012	89 45 f0	 mov	 DWORD PTR $T1[ebp], eax

; 1468 :         return iterator(_Find(_Keyval), _Get_scary());

  00015	ff 75 0c	 push	 DWORD PTR __Keyval$[ebp]
  00018	8b 4d fc	 mov	 ecx, DWORD PTR _this$[ebp]
  0001b	e8 00 00 00 00	 call	 ??$_Find@K@?$_Tree@V?$_Tmap_traits@KPAVCProperty@@U?$less@K@std@@V?$allocator@U?$pair@$$CBKPAVCProperty@@@std@@@3@$0A@@std@@@std@@ABEPAU?$_Tree_node@U?$pair@$$CBKPAVCProperty@@@std@@PAX@1@ABK@Z ; std::_Tree<std::_Tmap_traits<unsigned long,CProperty *,std::less<unsigned long>,std::allocator<std::pair<unsigned long const ,CProperty *> >,0> >::_Find<unsigned long>
  00020	89 45 f4	 mov	 DWORD PTR ___param0$[ebp], eax

; 39   :     _Tree_unchecked_const_iterator(_Nodeptr _Pnode, const _Mytree* _Plist) noexcept : _Ptr(_Pnode) {

  00023	8b 45 08	 mov	 eax, DWORD PTR ___$ReturnUdt$[ebp]
  00026	8b 4d f4	 mov	 ecx, DWORD PTR ___param0$[ebp]
  00029	89 08		 mov	 DWORD PTR [eax], ecx

; 1468 :         return iterator(_Find(_Keyval), _Get_scary());

  0002b	8b 45 08	 mov	 eax, DWORD PTR ___$ReturnUdt$[ebp]

; 1469 :     }

  0002e	c9		 leave
  0002f	c2 08 00	 ret	 8
?find@?$_Tree@V?$_Tmap_traits@KPAVCProperty@@U?$less@K@std@@V?$allocator@U?$pair@$$CBKPAVCProperty@@@std@@@3@$0A@@std@@@std@@QAE?AV?$_Tree_iterator@V?$_Tree_val@U?$_Tree_simple_types@U?$pair@$$CBKPAVCProperty@@@std@@@std@@@std@@@2@ABK@Z ENDP ; std::_Tree<std::_Tmap_traits<unsigned long,CProperty *,std::less<unsigned long>,std::allocator<std::pair<unsigned long const ,CProperty *> >,0> >::find
_TEXT	ENDS
; Function compile flags: /Odspy
; File C:\Program Files (x86)\Microsoft Visual Studio\2019\Community\VC\Tools\MSVC\14.28.29333\include\xtree
; File C:\Program Files (x86)\Microsoft Visual Studio\2019\Community\VC\Tools\MSVC\14.28.29333\include\xstddef
; File C:\Program Files (x86)\Microsoft Visual Studio\2019\Community\VC\Tools\MSVC\14.28.29333\include\xtree
; File C:\Program Files (x86)\Microsoft Visual Studio\2019\Community\VC\Tools\MSVC\14.28.29333\include\xmemory
; File C:\Program Files (x86)\Microsoft Visual Studio\2019\Community\VC\Tools\MSVC\14.28.29333\include\xtree
;	COMDAT ?clear@?$_Tree@V?$_Tmap_traits@KPAVCProperty@@U?$less@K@std@@V?$allocator@U?$pair@$$CBKPAVCProperty@@@std@@@3@$0A@@std@@@std@@QAEXXZ
_TEXT	SEGMENT
$T1 = -24						; size = 4
$T2 = -20						; size = 4
$T3 = -16						; size = 4
_this$ = -12						; size = 4
__Scary$ = -8						; size = 4
__Head$ = -4						; size = 4
?clear@?$_Tree@V?$_Tmap_traits@KPAVCProperty@@U?$less@K@std@@V?$allocator@U?$pair@$$CBKPAVCProperty@@@std@@@3@$0A@@std@@@std@@QAEXXZ PROC ; std::_Tree<std::_Tmap_traits<unsigned long,CProperty *,std::less<unsigned long>,std::allocator<std::pair<unsigned long const ,CProperty *> >,0> >::clear, COMDAT
; _this$ = ecx

; 1444 :     void clear() noexcept {

  00000	55		 push	 ebp
  00001	8b ec		 mov	 ebp, esp
  00003	83 ec 18	 sub	 esp, 24			; 00000018H
  00006	89 4d f4	 mov	 DWORD PTR _this$[ebp], ecx

; 2047 :         return _STD addressof(_Mypair._Myval2._Myval2);

  00009	8b 45 f4	 mov	 eax, DWORD PTR _this$[ebp]
; File C:\Program Files (x86)\Microsoft Visual Studio\2019\Community\VC\Tools\MSVC\14.28.29333\include\xstddef

; 275  :     return __builtin_addressof(_Val);

  0000c	89 45 f0	 mov	 DWORD PTR $T3[ebp], eax
; File C:\Program Files (x86)\Microsoft Visual Studio\2019\Community\VC\Tools\MSVC\14.28.29333\include\xtree

; 2047 :         return _STD addressof(_Mypair._Myval2._Myval2);

  0000f	8b 45 f0	 mov	 eax, DWORD PTR $T3[ebp]
  00012	89 45 f8	 mov	 DWORD PTR __Scary$[ebp], eax

; 1445 :         const auto _Scary = _Get_scary();
; 1446 :         _Scary->_Orphan_ptr(nullptr);
; 1447 :         auto _Head = _Scary->_Myhead;

  00015	8b 45 f8	 mov	 eax, DWORD PTR __Scary$[ebp]
  00018	8b 00		 mov	 eax, DWORD PTR [eax]
  0001a	89 45 fc	 mov	 DWORD PTR __Head$[ebp], eax

; 2039 :         return _Mypair._Myval2._Get_first();

  0001d	8b 45 f4	 mov	 eax, DWORD PTR _this$[ebp]
; File C:\Program Files (x86)\Microsoft Visual Studio\2019\Community\VC\Tools\MSVC\14.28.29333\include\xmemory

; 1347 :         return *this;

  00020	89 45 ec	 mov	 DWORD PTR $T2[ebp], eax
; File C:\Program Files (x86)\Microsoft Visual Studio\2019\Community\VC\Tools\MSVC\14.28.29333\include\xtree

; 2039 :         return _Mypair._Myval2._Get_first();

  00023	8b 45 ec	 mov	 eax, DWORD PTR $T2[ebp]
  00026	89 45 e8	 mov	 DWORD PTR $T1[ebp], eax

; 1448 :         _Scary->_Erase_tree(_Getal(), _Head->_Parent);

  00029	8b 45 fc	 mov	 eax, DWORD PTR __Head$[ebp]
  0002c	ff 70 04	 push	 DWORD PTR [eax+4]
  0002f	ff 75 e8	 push	 DWORD PTR $T1[ebp]
  00032	8b 4d f8	 mov	 ecx, DWORD PTR __Scary$[ebp]
  00035	e8 00 00 00 00	 call	 ??$_Erase_tree@V?$allocator@U?$_Tree_node@U?$pair@$$CBKPAVCProperty@@@std@@PAX@std@@@std@@@?$_Tree_val@U?$_Tree_simple_types@U?$pair@$$CBKPAVCProperty@@@std@@@std@@@std@@QAEXAAV?$allocator@U?$_Tree_node@U?$pair@$$CBKPAVCProperty@@@std@@PAX@std@@@1@PAU?$_Tree_node@U?$pair@$$CBKPAVCProperty@@@std@@PAX@1@@Z ; std::_Tree_val<std::_Tree_simple_types<std::pair<unsigned long const ,CProperty *> > >::_Erase_tree<std::allocator<std::_Tree_node<std::pair<unsigned long const ,CProperty *>,void *> > >

; 1449 :         _Head->_Parent  = _Head;

  0003a	8b 45 fc	 mov	 eax, DWORD PTR __Head$[ebp]
  0003d	8b 4d fc	 mov	 ecx, DWORD PTR __Head$[ebp]
  00040	89 48 04	 mov	 DWORD PTR [eax+4], ecx

; 1450 :         _Head->_Left    = _Head;

  00043	8b 45 fc	 mov	 eax, DWORD PTR __Head$[ebp]
  00046	8b 4d fc	 mov	 ecx, DWORD PTR __Head$[ebp]
  00049	89 08		 mov	 DWORD PTR [eax], ecx

; 1451 :         _Head->_Right   = _Head;

  0004b	8b 45 fc	 mov	 eax, DWORD PTR __Head$[ebp]
  0004e	8b 4d fc	 mov	 ecx, DWORD PTR __Head$[ebp]
  00051	89 48 08	 mov	 DWORD PTR [eax+8], ecx

; 1452 :         _Scary->_Mysize = 0;

  00054	8b 45 f8	 mov	 eax, DWORD PTR __Scary$[ebp]
  00057	83 60 04 00	 and	 DWORD PTR [eax+4], 0

; 1453 :     }

  0005b	c9		 leave
  0005c	c3		 ret	 0
?clear@?$_Tree@V?$_Tmap_traits@KPAVCProperty@@U?$less@K@std@@V?$allocator@U?$pair@$$CBKPAVCProperty@@@std@@@3@$0A@@std@@@std@@QAEXXZ ENDP ; std::_Tree<std::_Tmap_traits<unsigned long,CProperty *,std::less<unsigned long>,std::allocator<std::pair<unsigned long const ,CProperty *> >,0> >::clear
_TEXT	ENDS
; Function compile flags: /Odspy
; File C:\Program Files (x86)\Microsoft Visual Studio\2019\Community\VC\Tools\MSVC\14.28.29333\include\xtree
; File C:\Program Files (x86)\Microsoft Visual Studio\2019\Community\VC\Tools\MSVC\14.28.29333\include\xstddef
; File C:\Program Files (x86)\Microsoft Visual Studio\2019\Community\VC\Tools\MSVC\14.28.29333\include\xtree
; File C:\Program Files (x86)\Microsoft Visual Studio\2019\Community\VC\Tools\MSVC\14.28.29333\include\xmemory
; File C:\Program Files (x86)\Microsoft Visual Studio\2019\Community\VC\Tools\MSVC\14.28.29333\include\xtree
; File C:\Program Files (x86)\Microsoft Visual Studio\2019\Community\VC\Tools\MSVC\14.28.29333\include\xstddef
; File C:\Program Files (x86)\Microsoft Visual Studio\2019\Community\VC\Tools\MSVC\14.28.29333\include\xtree
;	COMDAT ?_Erase_unchecked@?$_Tree@V?$_Tmap_traits@KPAVCProperty@@U?$less@K@std@@V?$allocator@U?$pair@$$CBKPAVCProperty@@@std@@@3@$0A@@std@@@std@@AAEPAU?$_Tree_node@U?$pair@$$CBKPAVCProperty@@@std@@PAX@2@V?$_Tree_unchecked_const_iterator@V?$_Tree_val@U?$_Tree_simple_types@U?$pair@$$CBKPAVCProperty@@@std@@@std@@@std@@U_Iterator_base0@2@@2@@Z
_TEXT	SEGMENT
$T1 = -32						; size = 4
$T2 = -28						; size = 4
$T3 = -24						; size = 4
__Scary$ = -20						; size = 4
$T4 = -16						; size = 4
__Successor$ = -12					; size = 4
__Erasednode$ = -8					; size = 4
_this$ = -4						; size = 4
__Where$ = 8						; size = 4
?_Erase_unchecked@?$_Tree@V?$_Tmap_traits@KPAVCProperty@@U?$less@K@std@@V?$allocator@U?$pair@$$CBKPAVCProperty@@@std@@@3@$0A@@std@@@std@@AAEPAU?$_Tree_node@U?$pair@$$CBKPAVCProperty@@@std@@PAX@2@V?$_Tree_unchecked_const_iterator@V?$_Tree_val@U?$_Tree_simple_types@U?$pair@$$CBKPAVCProperty@@@std@@@std@@@std@@U_Iterator_base0@2@@2@@Z PROC ; std::_Tree<std::_Tmap_traits<unsigned long,CProperty *,std::less<unsigned long>,std::allocator<std::pair<unsigned long const ,CProperty *> >,0> >::_Erase_unchecked, COMDAT
; _this$ = ecx

; 1385 :     _Nodeptr _Erase_unchecked(_Unchecked_const_iterator _Where) noexcept {

  00000	55		 push	 ebp
  00001	8b ec		 mov	 ebp, esp
  00003	83 ec 20	 sub	 esp, 32			; 00000020H
  00006	89 4d fc	 mov	 DWORD PTR _this$[ebp], ecx

; 2047 :         return _STD addressof(_Mypair._Myval2._Myval2);

  00009	8b 45 fc	 mov	 eax, DWORD PTR _this$[ebp]
; File C:\Program Files (x86)\Microsoft Visual Studio\2019\Community\VC\Tools\MSVC\14.28.29333\include\xstddef

; 275  :     return __builtin_addressof(_Val);

  0000c	89 45 f0	 mov	 DWORD PTR $T4[ebp], eax
; File C:\Program Files (x86)\Microsoft Visual Studio\2019\Community\VC\Tools\MSVC\14.28.29333\include\xtree

; 2047 :         return _STD addressof(_Mypair._Myval2._Myval2);

  0000f	8b 45 f0	 mov	 eax, DWORD PTR $T4[ebp]
  00012	89 45 ec	 mov	 DWORD PTR __Scary$[ebp], eax

; 1386 :         const auto _Scary                    = _Get_scary();
; 1387 :         _Unchecked_const_iterator _Successor = _Where;

  00015	8b 45 08	 mov	 eax, DWORD PTR __Where$[ebp]
  00018	89 45 f4	 mov	 DWORD PTR __Successor$[ebp], eax

; 1388 :         ++_Successor; // save successor iterator for return

  0001b	8d 4d f4	 lea	 ecx, DWORD PTR __Successor$[ebp]
  0001e	e8 00 00 00 00	 call	 ??E?$_Tree_unchecked_const_iterator@V?$_Tree_val@U?$_Tree_simple_types@U?$pair@$$CBKPAVCProperty@@@std@@@std@@@std@@U_Iterator_base0@2@@std@@QAEAAV01@XZ ; std::_Tree_unchecked_const_iterator<std::_Tree_val<std::_Tree_simple_types<std::pair<unsigned long const ,CProperty *> > >,std::_Iterator_base0>::operator++

; 1389 :         _Nodeptr _Erasednode = _Scary->_Extract(_Where); // node to erase

  00023	ff 75 08	 push	 DWORD PTR __Where$[ebp]
  00026	8b 4d ec	 mov	 ecx, DWORD PTR __Scary$[ebp]
  00029	e8 00 00 00 00	 call	 ?_Extract@?$_Tree_val@U?$_Tree_simple_types@U?$pair@$$CBKPAVCProperty@@@std@@@std@@@std@@QAEPAU?$_Tree_node@U?$pair@$$CBKPAVCProperty@@@std@@PAX@2@V?$_Tree_unchecked_const_iterator@V?$_Tree_val@U?$_Tree_simple_types@U?$pair@$$CBKPAVCProperty@@@std@@@std@@@std@@U_Iterator_base0@2@@2@@Z ; std::_Tree_val<std::_Tree_simple_types<std::pair<unsigned long const ,CProperty *> > >::_Extract
  0002e	89 45 f8	 mov	 DWORD PTR __Erasednode$[ebp], eax

; 2039 :         return _Mypair._Myval2._Get_first();

  00031	8b 45 fc	 mov	 eax, DWORD PTR _this$[ebp]
; File C:\Program Files (x86)\Microsoft Visual Studio\2019\Community\VC\Tools\MSVC\14.28.29333\include\xmemory

; 1347 :         return *this;

  00034	89 45 e8	 mov	 DWORD PTR $T3[ebp], eax
; File C:\Program Files (x86)\Microsoft Visual Studio\2019\Community\VC\Tools\MSVC\14.28.29333\include\xtree

; 2039 :         return _Mypair._Myval2._Get_first();

  00037	8b 45 e8	 mov	 eax, DWORD PTR $T3[ebp]
  0003a	89 45 e4	 mov	 DWORD PTR $T2[ebp], eax

; 379  :         allocator_traits<_Alloc>::destroy(_Al, _STD addressof(_Ptr->_Myval));

  0003d	8b 45 f8	 mov	 eax, DWORD PTR __Erasednode$[ebp]
  00040	83 c0 10	 add	 eax, 16			; 00000010H
; File C:\Program Files (x86)\Microsoft Visual Studio\2019\Community\VC\Tools\MSVC\14.28.29333\include\xstddef

; 275  :     return __builtin_addressof(_Val);

  00043	89 45 e0	 mov	 DWORD PTR $T1[ebp], eax
; File C:\Program Files (x86)\Microsoft Visual Studio\2019\Community\VC\Tools\MSVC\14.28.29333\include\xtree

; 380  :         _Freenode0(_Al, _Ptr);

  00046	ff 75 f8	 push	 DWORD PTR __Erasednode$[ebp]
  00049	ff 75 e4	 push	 DWORD PTR $T2[ebp]
  0004c	e8 00 00 00 00	 call	 ??$_Freenode0@V?$allocator@U?$_Tree_node@U?$pair@$$CBKPAVCProperty@@@std@@PAX@std@@@std@@@?$_Tree_node@U?$pair@$$CBKPAVCProperty@@@std@@PAX@std@@SAXAAV?$allocator@U?$_Tree_node@U?$pair@$$CBKPAVCProperty@@@std@@PAX@std@@@1@PAU01@@Z ; std::_Tree_node<std::pair<unsigned long const ,CProperty *>,void *>::_Freenode0<std::allocator<std::_Tree_node<std::pair<unsigned long const ,CProperty *>,void *> > >
  00051	59		 pop	 ecx
  00052	59		 pop	 ecx

; 1390 :         _Scary->_Orphan_ptr(_Erasednode);
; 1391 :         _Node::_Freenode(_Getal(), _Erasednode); // delete erased node
; 1392 :         return _Successor._Ptr; // return successor nodeptr

  00053	8b 45 f4	 mov	 eax, DWORD PTR __Successor$[ebp]

; 1393 :     }

  00056	c9		 leave
  00057	c2 04 00	 ret	 4
?_Erase_unchecked@?$_Tree@V?$_Tmap_traits@KPAVCProperty@@U?$less@K@std@@V?$allocator@U?$pair@$$CBKPAVCProperty@@@std@@@3@$0A@@std@@@std@@AAEPAU?$_Tree_node@U?$pair@$$CBKPAVCProperty@@@std@@PAX@2@V?$_Tree_unchecked_const_iterator@V?$_Tree_val@U?$_Tree_simple_types@U?$pair@$$CBKPAVCProperty@@@std@@@std@@@std@@U_Iterator_base0@2@@2@@Z ENDP ; std::_Tree<std::_Tmap_traits<unsigned long,CProperty *,std::less<unsigned long>,std::allocator<std::pair<unsigned long const ,CProperty *> >,0> >::_Erase_unchecked
_TEXT	ENDS
; Function compile flags: /Odspy
; File C:\Program Files (x86)\Microsoft Visual Studio\2019\Community\VC\Tools\MSVC\14.28.29333\include\xtree
; File C:\Program Files (x86)\Microsoft Visual Studio\2019\Community\VC\Tools\MSVC\14.28.29333\include\xmemory
; File C:\Program Files (x86)\Microsoft Visual Studio\2019\Community\VC\Tools\MSVC\14.28.29333\include\xtree
; File C:\Program Files (x86)\Microsoft Visual Studio\2019\Community\VC\Tools\MSVC\14.28.29333\include\xmemory
; File C:\Program Files (x86)\Microsoft Visual Studio\2019\Community\VC\Tools\MSVC\14.28.29333\include\limits
; File C:\Program Files (x86)\Microsoft Visual Studio\2019\Community\VC\Tools\MSVC\14.28.29333\include\xtree
; File C:\Program Files (x86)\Microsoft Visual Studio\2019\Community\VC\Tools\MSVC\14.28.29333\include\utility
; File C:\Program Files (x86)\Microsoft Visual Studio\2019\Community\VC\Tools\MSVC\14.28.29333\include\xtree
;	COMDAT ?max_size@?$_Tree@V?$_Tmap_traits@KPAVCProperty@@U?$less@K@std@@V?$allocator@U?$pair@$$CBKPAVCProperty@@@std@@@3@$0A@@std@@@std@@QBEIXZ
_TEXT	SEGMENT
$T1 = -36						; size = 4
$T2 = -32						; size = 4
$T3 = -28						; size = 4
$T4 = -24						; size = 4
$T5 = -20						; size = 4
_this$ = -16						; size = 4
tv68 = -12						; size = 4
$T6 = -8						; size = 4
$T7 = -4						; size = 4
?max_size@?$_Tree@V?$_Tmap_traits@KPAVCProperty@@U?$less@K@std@@V?$allocator@U?$pair@$$CBKPAVCProperty@@@std@@@3@$0A@@std@@@std@@QBEIXZ PROC ; std::_Tree<std::_Tmap_traits<unsigned long,CProperty *,std::less<unsigned long>,std::allocator<std::pair<unsigned long const ,CProperty *> >,0> >::max_size, COMDAT
; _this$ = ecx

; 1310 :     _NODISCARD size_type max_size() const noexcept {

  00000	55		 push	 ebp
  00001	8b ec		 mov	 ebp, esp
  00003	83 ec 24	 sub	 esp, 36			; 00000024H
  00006	89 4d f0	 mov	 DWORD PTR _this$[ebp], ecx

; 2043 :         return _Mypair._Myval2._Get_first();

  00009	8b 45 f0	 mov	 eax, DWORD PTR _this$[ebp]
; File C:\Program Files (x86)\Microsoft Visual Studio\2019\Community\VC\Tools\MSVC\14.28.29333\include\xmemory

; 1351 :         return *this;

  0000c	89 45 ec	 mov	 DWORD PTR $T5[ebp], eax
; File C:\Program Files (x86)\Microsoft Visual Studio\2019\Community\VC\Tools\MSVC\14.28.29333\include\xtree

; 2043 :         return _Mypair._Myval2._Get_first();

  0000f	8b 45 ec	 mov	 eax, DWORD PTR $T5[ebp]
  00012	89 45 dc	 mov	 DWORD PTR $T1[ebp], eax
; File C:\Program Files (x86)\Microsoft Visual Studio\2019\Community\VC\Tools\MSVC\14.28.29333\include\xmemory

; 710  :         return static_cast<size_t>(-1) / sizeof(value_type);

  00015	c7 45 fc aa aa
	aa 0a		 mov	 DWORD PTR $T7[ebp], 178956970 ; 0aaaaaaaH
; File C:\Program Files (x86)\Microsoft Visual Studio\2019\Community\VC\Tools\MSVC\14.28.29333\include\limits

; 557  :         return INT_MAX;

  0001c	c7 45 e8 ff ff
	ff 7f		 mov	 DWORD PTR $T4[ebp], 2147483647 ; 7fffffffH
; File C:\Program Files (x86)\Microsoft Visual Studio\2019\Community\VC\Tools\MSVC\14.28.29333\include\xtree

; 1311 :         return (_STD min)(

  00023	8b 45 e8	 mov	 eax, DWORD PTR $T4[ebp]
  00026	89 45 f8	 mov	 DWORD PTR $T6[ebp], eax
; File C:\Program Files (x86)\Microsoft Visual Studio\2019\Community\VC\Tools\MSVC\14.28.29333\include\utility

; 68   :     return _Right < _Left ? _Right : _Left;

  00029	8b 45 fc	 mov	 eax, DWORD PTR $T7[ebp]
  0002c	3b 45 f8	 cmp	 eax, DWORD PTR $T6[ebp]
  0002f	73 08		 jae	 SHORT $LN17@max_size
  00031	8d 45 fc	 lea	 eax, DWORD PTR $T7[ebp]
  00034	89 45 f4	 mov	 DWORD PTR tv68[ebp], eax
  00037	eb 06		 jmp	 SHORT $LN18@max_size
$LN17@max_size:
  00039	8d 45 f8	 lea	 eax, DWORD PTR $T6[ebp]
  0003c	89 45 f4	 mov	 DWORD PTR tv68[ebp], eax
$LN18@max_size:
  0003f	8b 45 f4	 mov	 eax, DWORD PTR tv68[ebp]
  00042	89 45 e4	 mov	 DWORD PTR $T3[ebp], eax
  00045	8b 45 e4	 mov	 eax, DWORD PTR $T3[ebp]
  00048	89 45 e0	 mov	 DWORD PTR $T2[ebp], eax
; File C:\Program Files (x86)\Microsoft Visual Studio\2019\Community\VC\Tools\MSVC\14.28.29333\include\xtree

; 1311 :         return (_STD min)(

  0004b	8b 45 e0	 mov	 eax, DWORD PTR $T2[ebp]
  0004e	8b 00		 mov	 eax, DWORD PTR [eax]

; 1312 :             static_cast<size_type>((numeric_limits<difference_type>::max)()), _Alnode_traits::max_size(_Getal()));
; 1313 :     }

  00050	c9		 leave
  00051	c3		 ret	 0
?max_size@?$_Tree@V?$_Tmap_traits@KPAVCProperty@@U?$less@K@std@@V?$allocator@U?$pair@$$CBKPAVCProperty@@@std@@@3@$0A@@std@@@std@@QBEIXZ ENDP ; std::_Tree<std::_Tmap_traits<unsigned long,CProperty *,std::less<unsigned long>,std::allocator<std::pair<unsigned long const ,CProperty *> >,0> >::max_size
_TEXT	ENDS
; Function compile flags: /Odspy
; File C:\Program Files (x86)\Microsoft Visual Studio\2019\Community\VC\Tools\MSVC\14.28.29333\include\xtree
; File C:\Program Files (x86)\Microsoft Visual Studio\2019\Community\VC\Tools\MSVC\14.28.29333\include\xstddef
; File C:\Program Files (x86)\Microsoft Visual Studio\2019\Community\VC\Tools\MSVC\14.28.29333\include\xtree
;	COMDAT ?begin@?$_Tree@V?$_Tmap_traits@KPAVCProperty@@U?$less@K@std@@V?$allocator@U?$pair@$$CBKPAVCProperty@@@std@@@3@$0A@@std@@@std@@QAE?AV?$_Tree_iterator@V?$_Tree_val@U?$_Tree_simple_types@U?$pair@$$CBKPAVCProperty@@@std@@@std@@@std@@@2@XZ
_TEXT	SEGMENT
___param0$ = -16					; size = 4
__Scary$ = -12						; size = 4
$T1 = -8						; size = 4
_this$ = -4						; size = 4
___$ReturnUdt$ = 8					; size = 4
?begin@?$_Tree@V?$_Tmap_traits@KPAVCProperty@@U?$less@K@std@@V?$allocator@U?$pair@$$CBKPAVCProperty@@@std@@@3@$0A@@std@@@std@@QAE?AV?$_Tree_iterator@V?$_Tree_val@U?$_Tree_simple_types@U?$pair@$$CBKPAVCProperty@@@std@@@std@@@std@@@2@XZ PROC ; std::_Tree<std::_Tmap_traits<unsigned long,CProperty *,std::less<unsigned long>,std::allocator<std::pair<unsigned long const ,CProperty *> >,0> >::begin, COMDAT
; _this$ = ecx

; 1238 :     _NODISCARD iterator begin() noexcept {

  00000	55		 push	 ebp
  00001	8b ec		 mov	 ebp, esp
  00003	83 ec 10	 sub	 esp, 16			; 00000010H
  00006	89 4d fc	 mov	 DWORD PTR _this$[ebp], ecx

; 2047 :         return _STD addressof(_Mypair._Myval2._Myval2);

  00009	8b 45 fc	 mov	 eax, DWORD PTR _this$[ebp]
; File C:\Program Files (x86)\Microsoft Visual Studio\2019\Community\VC\Tools\MSVC\14.28.29333\include\xstddef

; 275  :     return __builtin_addressof(_Val);

  0000c	89 45 f8	 mov	 DWORD PTR $T1[ebp], eax
; File C:\Program Files (x86)\Microsoft Visual Studio\2019\Community\VC\Tools\MSVC\14.28.29333\include\xtree

; 2047 :         return _STD addressof(_Mypair._Myval2._Myval2);

  0000f	8b 45 f8	 mov	 eax, DWORD PTR $T1[ebp]
  00012	89 45 f4	 mov	 DWORD PTR __Scary$[ebp], eax

; 1239 :         const auto _Scary = _Get_scary();
; 1240 :         return iterator(_Scary->_Myhead->_Left, _Scary);

  00015	8b 45 f4	 mov	 eax, DWORD PTR __Scary$[ebp]
  00018	8b 00		 mov	 eax, DWORD PTR [eax]
  0001a	8b 00		 mov	 eax, DWORD PTR [eax]
  0001c	89 45 f0	 mov	 DWORD PTR ___param0$[ebp], eax

; 39   :     _Tree_unchecked_const_iterator(_Nodeptr _Pnode, const _Mytree* _Plist) noexcept : _Ptr(_Pnode) {

  0001f	8b 45 08	 mov	 eax, DWORD PTR ___$ReturnUdt$[ebp]
  00022	8b 4d f0	 mov	 ecx, DWORD PTR ___param0$[ebp]
  00025	89 08		 mov	 DWORD PTR [eax], ecx

; 1239 :         const auto _Scary = _Get_scary();
; 1240 :         return iterator(_Scary->_Myhead->_Left, _Scary);

  00027	8b 45 08	 mov	 eax, DWORD PTR ___$ReturnUdt$[ebp]

; 1241 :     }

  0002a	c9		 leave
  0002b	c2 04 00	 ret	 4
?begin@?$_Tree@V?$_Tmap_traits@KPAVCProperty@@U?$less@K@std@@V?$allocator@U?$pair@$$CBKPAVCProperty@@@std@@@3@$0A@@std@@@std@@QAE?AV?$_Tree_iterator@V?$_Tree_val@U?$_Tree_simple_types@U?$pair@$$CBKPAVCProperty@@@std@@@std@@@std@@@2@XZ ENDP ; std::_Tree<std::_Tmap_traits<unsigned long,CProperty *,std::less<unsigned long>,std::allocator<std::pair<unsigned long const ,CProperty *> >,0> >::begin
_TEXT	ENDS
; Function compile flags: /Odspy
; File C:\Program Files (x86)\Microsoft Visual Studio\2019\Community\VC\Tools\MSVC\14.28.29333\include\xtree
; File C:\Program Files (x86)\Microsoft Visual Studio\2019\Community\VC\Tools\MSVC\14.28.29333\include\xstddef
; File C:\Program Files (x86)\Microsoft Visual Studio\2019\Community\VC\Tools\MSVC\14.28.29333\include\xtree
; File C:\Program Files (x86)\Microsoft Visual Studio\2019\Community\VC\Tools\MSVC\14.28.29333\include\xmemory
; File C:\Program Files (x86)\Microsoft Visual Studio\2019\Community\VC\Tools\MSVC\14.28.29333\include\xtree
;	COMDAT ??1?$_Tree@V?$_Tmap_traits@KPAVCProperty@@U?$less@K@std@@V?$allocator@U?$pair@$$CBKPAVCProperty@@@std@@@3@$0A@@std@@@std@@QAE@XZ
_TEXT	SEGMENT
$T1 = -20						; size = 4
$T2 = -16						; size = 4
$T3 = -12						; size = 4
_this$ = -8						; size = 4
__Scary$ = -4						; size = 4
??1?$_Tree@V?$_Tmap_traits@KPAVCProperty@@U?$less@K@std@@V?$allocator@U?$pair@$$CBKPAVCProperty@@@std@@@3@$0A@@std@@@std@@QAE@XZ PROC ; std::_Tree<std::_Tmap_traits<unsigned long,CProperty *,std::less<unsigned long>,std::allocator<std::pair<unsigned long const ,CProperty *> >,0> >::~_Tree<std::_Tmap_traits<unsigned long,CProperty *,std::less<unsigned long>,std::allocator<std::pair<unsigned long const ,CProperty *> >,0> >, COMDAT
; _this$ = ecx

; 1189 :     ~_Tree() noexcept {

  00000	55		 push	 ebp
  00001	8b ec		 mov	 ebp, esp
  00003	83 ec 14	 sub	 esp, 20			; 00000014H
  00006	89 4d f8	 mov	 DWORD PTR _this$[ebp], ecx

; 2047 :         return _STD addressof(_Mypair._Myval2._Myval2);

  00009	8b 45 f8	 mov	 eax, DWORD PTR _this$[ebp]
; File C:\Program Files (x86)\Microsoft Visual Studio\2019\Community\VC\Tools\MSVC\14.28.29333\include\xstddef

; 275  :     return __builtin_addressof(_Val);

  0000c	89 45 f0	 mov	 DWORD PTR $T2[ebp], eax
; File C:\Program Files (x86)\Microsoft Visual Studio\2019\Community\VC\Tools\MSVC\14.28.29333\include\xtree

; 2047 :         return _STD addressof(_Mypair._Myval2._Myval2);

  0000f	8b 45 f0	 mov	 eax, DWORD PTR $T2[ebp]
  00012	89 45 fc	 mov	 DWORD PTR __Scary$[ebp], eax

; 2039 :         return _Mypair._Myval2._Get_first();

  00015	8b 45 f8	 mov	 eax, DWORD PTR _this$[ebp]
; File C:\Program Files (x86)\Microsoft Visual Studio\2019\Community\VC\Tools\MSVC\14.28.29333\include\xmemory

; 1347 :         return *this;

  00018	89 45 ec	 mov	 DWORD PTR $T1[ebp], eax
; File C:\Program Files (x86)\Microsoft Visual Studio\2019\Community\VC\Tools\MSVC\14.28.29333\include\xtree

; 2039 :         return _Mypair._Myval2._Get_first();

  0001b	8b 45 ec	 mov	 eax, DWORD PTR $T1[ebp]
  0001e	89 45 f4	 mov	 DWORD PTR $T3[ebp], eax

; 752  :         _Erase_tree(_Al, _Myhead->_Parent);

  00021	8b 45 fc	 mov	 eax, DWORD PTR __Scary$[ebp]
  00024	8b 00		 mov	 eax, DWORD PTR [eax]
  00026	ff 70 04	 push	 DWORD PTR [eax+4]
  00029	ff 75 f4	 push	 DWORD PTR $T3[ebp]
  0002c	8b 4d fc	 mov	 ecx, DWORD PTR __Scary$[ebp]
  0002f	e8 00 00 00 00	 call	 ??$_Erase_tree@V?$allocator@U?$_Tree_node@U?$pair@$$CBKPAVCProperty@@@std@@PAX@std@@@std@@@?$_Tree_val@U?$_Tree_simple_types@U?$pair@$$CBKPAVCProperty@@@std@@@std@@@std@@QAEXAAV?$allocator@U?$_Tree_node@U?$pair@$$CBKPAVCProperty@@@std@@PAX@std@@@1@PAU?$_Tree_node@U?$pair@$$CBKPAVCProperty@@@std@@PAX@1@@Z ; std::_Tree_val<std::_Tree_simple_types<std::pair<unsigned long const ,CProperty *> > >::_Erase_tree<std::allocator<std::_Tree_node<std::pair<unsigned long const ,CProperty *>,void *> > >

; 753  :         _Alnode::value_type::_Freenode0(_Al, _Myhead);

  00034	8b 45 fc	 mov	 eax, DWORD PTR __Scary$[ebp]
  00037	ff 30		 push	 DWORD PTR [eax]
  00039	ff 75 f4	 push	 DWORD PTR $T3[ebp]
  0003c	e8 00 00 00 00	 call	 ??$_Freenode0@V?$allocator@U?$_Tree_node@U?$pair@$$CBKPAVCProperty@@@std@@PAX@std@@@std@@@?$_Tree_node@U?$pair@$$CBKPAVCProperty@@@std@@PAX@std@@SAXAAV?$allocator@U?$_Tree_node@U?$pair@$$CBKPAVCProperty@@@std@@PAX@std@@@1@PAU01@@Z ; std::_Tree_node<std::pair<unsigned long const ,CProperty *>,void *>::_Freenode0<std::allocator<std::_Tree_node<std::pair<unsigned long const ,CProperty *>,void *> > >
  00041	59		 pop	 ecx
  00042	59		 pop	 ecx

; 1190 :         const auto _Scary = _Get_scary();
; 1191 :         _Scary->_Erase_head(_Getal());
; 1192 : #if _ITERATOR_DEBUG_LEVEL != 0 // TRANSITION, ABI
; 1193 :         auto&& _Alproxy = _GET_PROXY_ALLOCATOR(_Alnode, _Getal());
; 1194 :         _Delete_plain_internal(_Alproxy, _Scary->_Myproxy);
; 1195 : #endif // _ITERATOR_DEBUG_LEVEL != 0
; 1196 :     }

  00043	c9		 leave
  00044	c3		 ret	 0
??1?$_Tree@V?$_Tmap_traits@KPAVCProperty@@U?$less@K@std@@V?$allocator@U?$pair@$$CBKPAVCProperty@@@std@@@3@$0A@@std@@@std@@QAE@XZ ENDP ; std::_Tree<std::_Tmap_traits<unsigned long,CProperty *,std::less<unsigned long>,std::allocator<std::pair<unsigned long const ,CProperty *> >,0> >::~_Tree<std::_Tmap_traits<unsigned long,CProperty *,std::less<unsigned long>,std::allocator<std::pair<unsigned long const ,CProperty *> >,0> >
_TEXT	ENDS
; Function compile flags: /Odspy
; File C:\Program Files (x86)\Microsoft Visual Studio\2019\Community\VC\Tools\MSVC\14.28.29333\include\xtree
; File C:\Program Files (x86)\Microsoft Visual Studio\2019\Community\VC\Tools\MSVC\14.28.29333\include\type_traits
; File C:\Program Files (x86)\Microsoft Visual Studio\2019\Community\VC\Tools\MSVC\14.28.29333\include\xmemory
; File C:\Program Files (x86)\Microsoft Visual Studio\2019\Community\VC\Tools\MSVC\14.28.29333\include\xtree
;	COMDAT ??0?$_Tree@V?$_Tmap_traits@KPAVCProperty@@U?$less@K@std@@V?$allocator@U?$pair@$$CBKPAVCProperty@@@std@@@3@$0A@@std@@@std@@QAE@ABU?$less@K@1@@Z
_TEXT	SEGMENT
_this$ = -28						; size = 4
_this$ = -24						; size = 4
$T1 = -20						; size = 4
_this$2 = -16						; size = 4
_this$ = -12						; size = 4
___formal$ = -8						; size = 1
$T3 = -1						; size = 1
__Parg$ = 8						; size = 4
??0?$_Tree@V?$_Tmap_traits@KPAVCProperty@@U?$less@K@std@@V?$allocator@U?$pair@$$CBKPAVCProperty@@@std@@@3@$0A@@std@@@std@@QAE@ABU?$less@K@1@@Z PROC ; std::_Tree<std::_Tmap_traits<unsigned long,CProperty *,std::less<unsigned long>,std::allocator<std::pair<unsigned long const ,CProperty *> >,0> >::_Tree<std::_Tmap_traits<unsigned long,CProperty *,std::less<unsigned long>,std::allocator<std::pair<unsigned long const ,CProperty *> >,0> >, COMDAT
; _this$ = ecx

; 885  :     _Tree(const key_compare& _Parg) : _Mypair(_One_then_variadic_args_t{}, _Parg, _Zero_then_variadic_args_t{}) {

  00000	55		 push	 ebp
  00001	8b ec		 mov	 ebp, esp
  00003	83 ec 1c	 sub	 esp, 28			; 0000001cH
  00006	89 4d f4	 mov	 DWORD PTR _this$[ebp], ecx
  00009	8b 45 f4	 mov	 eax, DWORD PTR _this$[ebp]
  0000c	89 45 e8	 mov	 DWORD PTR _this$[ebp], eax
; File C:\Program Files (x86)\Microsoft Visual Studio\2019\Community\VC\Tools\MSVC\14.28.29333\include\type_traits

; 1443 :     return static_cast<_Ty&&>(_Arg);

  0000f	8d 45 ff	 lea	 eax, DWORD PTR $T3[ebp]
  00012	89 45 ec	 mov	 DWORD PTR $T1[ebp], eax
; File C:\Program Files (x86)\Microsoft Visual Studio\2019\Community\VC\Tools\MSVC\14.28.29333\include\xmemory

; 1344 :         : _Ty1(_STD forward<_Other1>(_Val1)), _Myval2(_STD forward<_Other2>(_Val2)...) {}

  00015	8b 45 ec	 mov	 eax, DWORD PTR $T1[ebp]
  00018	8a 00		 mov	 al, BYTE PTR [eax]
  0001a	88 45 f8	 mov	 BYTE PTR ___formal$[ebp], al
  0001d	8b 45 e8	 mov	 eax, DWORD PTR _this$[ebp]
  00020	89 45 e4	 mov	 DWORD PTR _this$[ebp], eax

; 1339 :         : _Ty1(), _Myval2(_STD forward<_Other2>(_Val2)...) {}

  00023	8b 45 e4	 mov	 eax, DWORD PTR _this$[ebp]
  00026	89 45 f0	 mov	 DWORD PTR _this$2[ebp], eax
; File C:\Program Files (x86)\Microsoft Visual Studio\2019\Community\VC\Tools\MSVC\14.28.29333\include\xtree

; 435  :     _Tree_val() noexcept : _Myhead(), _Mysize(0) {}

  00029	8b 45 f0	 mov	 eax, DWORD PTR _this$2[ebp]
  0002c	83 20 00	 and	 DWORD PTR [eax], 0
  0002f	8b 45 f0	 mov	 eax, DWORD PTR _this$2[ebp]
  00032	83 60 04 00	 and	 DWORD PTR [eax+4], 0

; 886  :         _Alloc_sentinel_and_proxy();

  00036	8b 4d f4	 mov	 ecx, DWORD PTR _this$[ebp]
  00039	e8 00 00 00 00	 call	 ?_Alloc_sentinel_and_proxy@?$_Tree@V?$_Tmap_traits@KPAVCProperty@@U?$less@K@std@@V?$allocator@U?$pair@$$CBKPAVCProperty@@@std@@@3@$0A@@std@@@std@@IAEXXZ ; std::_Tree<std::_Tmap_traits<unsigned long,CProperty *,std::less<unsigned long>,std::allocator<std::pair<unsigned long const ,CProperty *> >,0> >::_Alloc_sentinel_and_proxy

; 887  :     }

  0003e	8b 45 f4	 mov	 eax, DWORD PTR _this$[ebp]
  00041	c9		 leave
  00042	c2 04 00	 ret	 4
??0?$_Tree@V?$_Tmap_traits@KPAVCProperty@@U?$less@K@std@@V?$allocator@U?$pair@$$CBKPAVCProperty@@@std@@@3@$0A@@std@@@std@@QAE@ABU?$less@K@1@@Z ENDP ; std::_Tree<std::_Tmap_traits<unsigned long,CProperty *,std::less<unsigned long>,std::allocator<std::pair<unsigned long const ,CProperty *> >,0> >::_Tree<std::_Tmap_traits<unsigned long,CProperty *,std::less<unsigned long>,std::allocator<std::pair<unsigned long const ,CProperty *> >,0> >
_TEXT	ENDS
; Function compile flags: /Odspy
; File D:\Metin2 Server Files\mainline\SRC_2014\Metin2Client\GameLib\PropertyManager.cpp
;	COMDAT ?Erase@CPropertyManager@@QAE_NPBD@Z
_TEXT	SEGMENT
_this$ = -8						; size = 4
_pProperty$ = -4					; size = 4
_c_pszFileName$ = 8					; size = 4
?Erase@CPropertyManager@@QAE_NPBD@Z PROC		; CPropertyManager::Erase, COMDAT
; _this$ = ecx

; 243  : {

  00000	55		 push	 ebp
  00001	8b ec		 mov	 ebp, esp
  00003	51		 push	 ecx
  00004	51		 push	 ecx
  00005	89 4d f8	 mov	 DWORD PTR _this$[ebp], ecx

; 244  : 	CProperty * pProperty = NULL;

  00008	83 65 fc 00	 and	 DWORD PTR _pProperty$[ebp], 0

; 245  : 
; 246  : 	if (Get(c_pszFileName, &pProperty))

  0000c	8d 45 fc	 lea	 eax, DWORD PTR _pProperty$[ebp]
  0000f	50		 push	 eax
  00010	ff 75 08	 push	 DWORD PTR _c_pszFileName$[ebp]
  00013	8b 4d f8	 mov	 ecx, DWORD PTR _this$[ebp]
  00016	e8 00 00 00 00	 call	 ?Get@CPropertyManager@@QAE_NPBDPAPAVCProperty@@@Z ; CPropertyManager::Get
  0001b	0f b6 c0	 movzx	 eax, al
  0001e	85 c0		 test	 eax, eax
  00020	74 13		 je	 SHORT $LN2@Erase

; 247  : 		return Erase(pProperty->GetCRC());

  00022	8b 4d fc	 mov	 ecx, DWORD PTR _pProperty$[ebp]
  00025	e8 00 00 00 00	 call	 ?GetCRC@CProperty@@QAEKXZ ; CProperty::GetCRC
  0002a	50		 push	 eax
  0002b	8b 4d f8	 mov	 ecx, DWORD PTR _this$[ebp]
  0002e	e8 00 00 00 00	 call	 ?Erase@CPropertyManager@@QAE_NK@Z ; CPropertyManager::Erase
  00033	eb 02		 jmp	 SHORT $LN1@Erase
$LN2@Erase:

; 248  : 	
; 249  : 	return false;

  00035	32 c0		 xor	 al, al
$LN1@Erase:

; 250  : }

  00037	c9		 leave
  00038	c2 04 00	 ret	 4
?Erase@CPropertyManager@@QAE_NPBD@Z ENDP		; CPropertyManager::Erase
_TEXT	ENDS
; Function compile flags: /Odspy
; File D:\Metin2 Server Files\mainline\SRC_2014\Metin2Client\GameLib\PropertyManager.cpp
; File C:\Program Files (x86)\Microsoft Visual Studio\2019\Community\VC\Tools\MSVC\14.28.29333\include\xtree
; File C:\Program Files (x86)\Microsoft Visual Studio\2019\Community\VC\Tools\MSVC\14.28.29333\include\xstddef
; File C:\Program Files (x86)\Microsoft Visual Studio\2019\Community\VC\Tools\MSVC\14.28.29333\include\xtree
; File D:\Metin2 Server Files\mainline\SRC_2014\Metin2Client\GameLib\PropertyManager.cpp
; File C:\Program Files (x86)\Microsoft Visual Studio\2019\Community\VC\Tools\MSVC\14.28.29333\include\xtree
; File C:\Program Files (x86)\Microsoft Visual Studio\2019\Community\VC\Tools\MSVC\14.28.29333\include\xstddef
; File C:\Program Files (x86)\Microsoft Visual Studio\2019\Community\VC\Tools\MSVC\14.28.29333\include\xutility
; File C:\Program Files (x86)\Microsoft Visual Studio\2019\Community\VC\Tools\MSVC\14.28.29333\include\xtree
; File D:\Metin2 Server Files\mainline\SRC_2014\Metin2Client\GameLib\PropertyManager.cpp
;	COMDAT ?Erase@CPropertyManager@@QAE_NK@Z
_TEXT	SEGMENT
$T1 = -36						; size = 4
$T2 = -32						; size = 4
$T3 = -28						; size = 4
$T4 = -24						; size = 4
$T5 = -20						; size = 4
$T6 = -16						; size = 4
$T7 = -12						; size = 4
$T8 = -8						; size = 4
$T9 = -4						; size = 4
___param0$ = 0						; size = 4
__Scary$10 = 4						; size = 4
$T11 = 8						; size = 4
tv171 = 12						; size = 4
tv233 = 16						; size = 4
_fp$ = 20						; size = 4
_itor$ = 24						; size = 4
$T12 = 28						; size = 4
_pProperty$ = 32					; size = 4
_this$ = 36						; size = 4
$T13 = 43						; size = 1
_szCRC$14 = 44						; size = 65
__$ArrayPad$ = 112					; size = 4
_dwCRC$ = 124						; size = 4
?Erase@CPropertyManager@@QAE_NK@Z PROC			; CPropertyManager::Erase, COMDAT
; _this$ = ecx

; 210  : {

  00000	55		 push	 ebp
  00001	8d 6c 24 8c	 lea	 ebp, DWORD PTR [esp-116]
  00005	81 ec 98 00 00
	00		 sub	 esp, 152		; 00000098H
  0000b	a1 00 00 00 00	 mov	 eax, DWORD PTR ___security_cookie
  00010	33 c5		 xor	 eax, ebp
  00012	89 45 70	 mov	 DWORD PTR __$ArrayPad$[ebp], eax
  00015	89 4d 24	 mov	 DWORD PTR _this$[ebp], ecx

; 211  : 	TPropertyCRCMap::iterator itor = m_PropertyByCRCMap.find(dwCRC);

  00018	8d 45 7c	 lea	 eax, DWORD PTR _dwCRC$[ebp]
  0001b	50		 push	 eax
  0001c	8d 45 18	 lea	 eax, DWORD PTR _itor$[ebp]
  0001f	50		 push	 eax
  00020	8b 4d 24	 mov	 ecx, DWORD PTR _this$[ebp]
  00023	83 c1 08	 add	 ecx, 8
  00026	e8 00 00 00 00	 call	 ?find@?$_Tree@V?$_Tmap_traits@KPAVCProperty@@U?$less@K@std@@V?$allocator@U?$pair@$$CBKPAVCProperty@@@std@@@3@$0A@@std@@@std@@QAE?AV?$_Tree_iterator@V?$_Tree_val@U?$_Tree_simple_types@U?$pair@$$CBKPAVCProperty@@@std@@@std@@@std@@@2@ABK@Z ; std::_Tree<std::_Tmap_traits<unsigned long,CProperty *,std::less<unsigned long>,std::allocator<std::pair<unsigned long const ,CProperty *> >,0> >::find
; File C:\Program Files (x86)\Microsoft Visual Studio\2019\Community\VC\Tools\MSVC\14.28.29333\include\xtree

; 2047 :         return _STD addressof(_Mypair._Myval2._Myval2);

  0002b	8b 45 24	 mov	 eax, DWORD PTR _this$[ebp]
  0002e	83 c0 08	 add	 eax, 8
; File C:\Program Files (x86)\Microsoft Visual Studio\2019\Community\VC\Tools\MSVC\14.28.29333\include\xstddef

; 275  :     return __builtin_addressof(_Val);

  00031	89 45 08	 mov	 DWORD PTR $T11[ebp], eax
; File C:\Program Files (x86)\Microsoft Visual Studio\2019\Community\VC\Tools\MSVC\14.28.29333\include\xtree

; 2047 :         return _STD addressof(_Mypair._Myval2._Myval2);

  00034	8b 45 08	 mov	 eax, DWORD PTR $T11[ebp]
  00037	89 45 04	 mov	 DWORD PTR __Scary$10[ebp], eax

; 1250 :         return iterator(_Scary->_Myhead, _Scary);

  0003a	8b 45 04	 mov	 eax, DWORD PTR __Scary$10[ebp]
  0003d	8b 00		 mov	 eax, DWORD PTR [eax]
  0003f	89 45 00	 mov	 DWORD PTR ___param0$[ebp], eax

; 39   :     _Tree_unchecked_const_iterator(_Nodeptr _Pnode, const _Mytree* _Plist) noexcept : _Ptr(_Pnode) {

  00042	8b 45 00	 mov	 eax, DWORD PTR ___param0$[ebp]
  00045	89 45 fc	 mov	 DWORD PTR $T9[ebp], eax

; 1250 :         return iterator(_Scary->_Myhead, _Scary);

  00048	8d 45 fc	 lea	 eax, DWORD PTR $T9[ebp]
  0004b	89 45 f8	 mov	 DWORD PTR $T8[ebp], eax

; 232  :         return this->_Ptr == _Right._Ptr;

  0004e	8b 45 f8	 mov	 eax, DWORD PTR $T8[ebp]
  00051	8b 00		 mov	 eax, DWORD PTR [eax]
  00053	3b 45 18	 cmp	 eax, DWORD PTR _itor$[ebp]
  00056	75 09		 jne	 SHORT $LN77@Erase
  00058	c7 45 10 01 00
	00 00		 mov	 DWORD PTR tv233[ebp], 1
  0005f	eb 04		 jmp	 SHORT $LN78@Erase
$LN77@Erase:
  00061	83 65 10 00	 and	 DWORD PTR tv233[ebp], 0
$LN78@Erase:
  00065	8a 45 10	 mov	 al, BYTE PTR tv233[ebp]
  00068	88 45 2b	 mov	 BYTE PTR $T13[ebp], al
; File D:\Metin2 Server Files\mainline\SRC_2014\Metin2Client\GameLib\PropertyManager.cpp

; 213  : 	if (m_PropertyByCRCMap.end() == itor)

  0006b	0f b6 45 2b	 movzx	 eax, BYTE PTR $T13[ebp]
  0006f	85 c0		 test	 eax, eax
  00071	74 07		 je	 SHORT $LN2@Erase

; 214  : 		return false;

  00073	32 c0		 xor	 al, al
  00075	e9 17 01 00 00	 jmp	 $LN1@Erase
$LN2@Erase:
; File C:\Program Files (x86)\Microsoft Visual Studio\2019\Community\VC\Tools\MSVC\14.28.29333\include\xtree

; 185  :         return this->_Ptr->_Myval;

  0007a	8b 45 18	 mov	 eax, DWORD PTR _itor$[ebp]
  0007d	83 c0 10	 add	 eax, 16			; 00000010H
  00080	89 45 f4	 mov	 DWORD PTR $T7[ebp], eax

; 273  :         return const_cast<reference>(_Mybase::operator*());

  00083	8b 45 f4	 mov	 eax, DWORD PTR $T7[ebp]
  00086	89 45 f0	 mov	 DWORD PTR $T6[ebp], eax
; File C:\Program Files (x86)\Microsoft Visual Studio\2019\Community\VC\Tools\MSVC\14.28.29333\include\xstddef

; 275  :     return __builtin_addressof(_Val);

  00089	8b 45 f0	 mov	 eax, DWORD PTR $T6[ebp]
  0008c	89 45 ec	 mov	 DWORD PTR $T5[ebp], eax
; File C:\Program Files (x86)\Microsoft Visual Studio\2019\Community\VC\Tools\MSVC\14.28.29333\include\xutility

; 151  :         return _STD addressof(_Val);

  0008f	8b 45 ec	 mov	 eax, DWORD PTR $T5[ebp]
  00092	89 45 e8	 mov	 DWORD PTR $T4[ebp], eax
; File C:\Program Files (x86)\Microsoft Visual Studio\2019\Community\VC\Tools\MSVC\14.28.29333\include\xtree

; 277  :         return pointer_traits<pointer>::pointer_to(**this);

  00095	8b 45 e8	 mov	 eax, DWORD PTR $T4[ebp]
  00098	89 45 e4	 mov	 DWORD PTR $T3[ebp], eax
; File D:\Metin2 Server Files\mainline\SRC_2014\Metin2Client\GameLib\PropertyManager.cpp

; 216  : 	CProperty * pProperty = itor->second;

  0009b	8b 45 e4	 mov	 eax, DWORD PTR $T3[ebp]
  0009e	8b 40 04	 mov	 eax, DWORD PTR [eax+4]
  000a1	89 45 20	 mov	 DWORD PTR _pProperty$[ebp], eax

; 217  : 	m_PropertyByCRCMap.erase(itor);

  000a4	ff 75 18	 push	 DWORD PTR _itor$[ebp]
  000a7	8d 45 e0	 lea	 eax, DWORD PTR $T2[ebp]
  000aa	50		 push	 eax
  000ab	8b 4d 24	 mov	 ecx, DWORD PTR _this$[ebp]
  000ae	83 c1 08	 add	 ecx, 8
  000b1	e8 00 00 00 00	 call	 ??$erase@V?$_Tree_iterator@V?$_Tree_val@U?$_Tree_simple_types@U?$pair@$$CBKPAVCProperty@@@std@@@std@@@std@@@std@@$0A@@?$_Tree@V?$_Tmap_traits@KPAVCProperty@@U?$less@K@std@@V?$allocator@U?$pair@$$CBKPAVCProperty@@@std@@@3@$0A@@std@@@std@@QAE?AV?$_Tree_iterator@V?$_Tree_val@U?$_Tree_simple_types@U?$pair@$$CBKPAVCProperty@@@std@@@std@@@std@@@1@V21@@Z ; std::_Tree<std::_Tmap_traits<unsigned long,CProperty *,std::less<unsigned long>,std::allocator<std::pair<unsigned long const ,CProperty *> >,0> >::erase<std::_Tree_iterator<std::_Tree_val<std::_Tree_simple_types<std::pair<unsigned long const ,CProperty *> > > >,0>

; 218  : 
; 219  : 	DeleteFile(pProperty->GetFileName());

  000b6	8b 4d 20	 mov	 ecx, DWORD PTR _pProperty$[ebp]
  000b9	e8 00 00 00 00	 call	 ?GetFileName@CProperty@@QAEPBDXZ ; CProperty::GetFileName
  000be	50		 push	 eax
  000bf	ff 15 00 00 00
	00		 call	 DWORD PTR __imp__DeleteFileA@4

; 220  : 	ReserveCRC(pProperty->GetCRC());

  000c5	8b 4d 20	 mov	 ecx, DWORD PTR _pProperty$[ebp]
  000c8	e8 00 00 00 00	 call	 ?GetCRC@CProperty@@QAEKXZ ; CProperty::GetCRC
  000cd	50		 push	 eax
  000ce	8b 4d 24	 mov	 ecx, DWORD PTR _this$[ebp]
  000d1	e8 00 00 00 00	 call	 ?ReserveCRC@CPropertyManager@@QAEXK@Z ; CPropertyManager::ReserveCRC

; 221  : 
; 222  : 	if (!m_isFileMode)	//     

  000d6	8b 45 24	 mov	 eax, DWORD PTR _this$[ebp]
  000d9	0f b6 40 04	 movzx	 eax, BYTE PTR [eax+4]
  000dd	85 c0		 test	 eax, eax
  000df	75 14		 jne	 SHORT $LN3@Erase

; 223  : 		m_pack.Delete(pProperty->GetFileName());

  000e1	8b 4d 20	 mov	 ecx, DWORD PTR _pProperty$[ebp]
  000e4	e8 00 00 00 00	 call	 ?GetFileName@CProperty@@QAEPBDXZ ; CProperty::GetFileName
  000e9	50		 push	 eax
  000ea	8b 4d 24	 mov	 ecx, DWORD PTR _this$[ebp]
  000ed	83 c1 18	 add	 ecx, 24			; 00000018H
  000f0	e8 00 00 00 00	 call	 ?Delete@CEterPack@@QAE_NPBD@Z ; CEterPack::Delete
$LN3@Erase:

; 224  : 
; 225  : 	FILE * fp = fopen("property/reserve", "a+");

  000f5	68 00 00 00 00	 push	 OFFSET ??_C@_02DPNLHKJD@a?$CL@
  000fa	68 00 00 00 00	 push	 OFFSET ??_C@_0BB@FGKGEGON@property?1reserve@
  000ff	e8 00 00 00 00	 call	 _fopen
  00104	59		 pop	 ecx
  00105	59		 pop	 ecx
  00106	89 45 14	 mov	 DWORD PTR _fp$[ebp], eax

; 226  : 
; 227  : 	if (!fp)

  00109	83 7d 14 00	 cmp	 DWORD PTR _fp$[ebp], 0
  0010d	75 13		 jne	 SHORT $LN4@Erase

; 228  : 		LogBox(" CRC    .");

  0010f	6a 00		 push	 0
  00111	6a 00		 push	 0
  00113	68 00 00 00 00	 push	 OFFSET ??_C@_0CA@IABPHDJJ@?$LP?$LJ?$LO?$OA?5CRC?5?F?D?$MA?O?$MA?$LL?5?$LP?$KN?5?$LM?v?5?$LO?x?$LN?$MA?$LE?O?$LE?Y?4@
  00118	e8 00 00 00 00	 call	 ?LogBox@@YAXPBD0PAUHWND__@@@Z ; LogBox
  0011d	83 c4 0c	 add	 esp, 12			; 0000000cH
  00120	eb 33		 jmp	 SHORT $LN5@Erase
$LN4@Erase:

; 229  : 	else
; 230  : 	{
; 231  : 		char szCRC[64 + 1];
; 232  : 		_snprintf(szCRC, sizeof(szCRC), "%u\r\n", pProperty->GetCRC());

  00122	8b 4d 20	 mov	 ecx, DWORD PTR _pProperty$[ebp]
  00125	e8 00 00 00 00	 call	 ?GetCRC@CProperty@@QAEKXZ ; CProperty::GetCRC
  0012a	50		 push	 eax
  0012b	68 00 00 00 00	 push	 OFFSET ??_C@_04JOCKIDOB@?$CFu?$AN?6@
  00130	6a 41		 push	 65			; 00000041H
  00132	8d 45 2c	 lea	 eax, DWORD PTR _szCRC$14[ebp]
  00135	50		 push	 eax
  00136	e8 00 00 00 00	 call	 __snprintf
  0013b	83 c4 10	 add	 esp, 16			; 00000010H

; 233  : 
; 234  : 		fputs(szCRC, fp);

  0013e	ff 75 14	 push	 DWORD PTR _fp$[ebp]
  00141	8d 45 2c	 lea	 eax, DWORD PTR _szCRC$14[ebp]
  00144	50		 push	 eax
  00145	e8 00 00 00 00	 call	 _fputs
  0014a	59		 pop	 ecx
  0014b	59		 pop	 ecx

; 235  : 		fclose(fp);

  0014c	ff 75 14	 push	 DWORD PTR _fp$[ebp]
  0014f	e8 00 00 00 00	 call	 _fclose
  00154	59		 pop	 ecx
$LN5@Erase:

; 236  : 	}
; 237  : 
; 238  : 	delete pProperty;

  00155	8b 45 20	 mov	 eax, DWORD PTR _pProperty$[ebp]
  00158	89 45 1c	 mov	 DWORD PTR $T12[ebp], eax
  0015b	83 7d 1c 00	 cmp	 DWORD PTR $T12[ebp], 0
  0015f	74 2a		 je	 SHORT $LN7@Erase
  00161	8b 45 dc	 mov	 eax, DWORD PTR $T1[ebp]
  00164	89 45 0c	 mov	 DWORD PTR tv171[ebp], eax
  00167	8b 4d 1c	 mov	 ecx, DWORD PTR $T12[ebp]
  0016a	e8 00 00 00 00	 call	 ??1CProperty@@QAE@XZ	; CProperty::~CProperty
  0016f	33 c0		 xor	 eax, eax
  00171	40		 inc	 eax
  00172	83 e0 01	 and	 eax, 1
  00175	74 0c		 je	 SHORT $LN175@Erase
  00177	6a 40		 push	 64			; 00000040H
  00179	ff 75 1c	 push	 DWORD PTR $T12[ebp]
  0017c	e8 00 00 00 00	 call	 ??3@YAXPAXI@Z		; operator delete
  00181	59		 pop	 ecx
  00182	59		 pop	 ecx
$LN175@Erase:
  00183	8b 45 1c	 mov	 eax, DWORD PTR $T12[ebp]
  00186	89 45 0c	 mov	 DWORD PTR tv171[ebp], eax
  00189	eb 04		 jmp	 SHORT $LN8@Erase
$LN7@Erase:
  0018b	83 65 0c 00	 and	 DWORD PTR tv171[ebp], 0
$LN8@Erase:

; 239  : 	return true;

  0018f	b0 01		 mov	 al, 1
$LN1@Erase:

; 240  : }

  00191	8b 4d 70	 mov	 ecx, DWORD PTR __$ArrayPad$[ebp]
  00194	33 cd		 xor	 ecx, ebp
  00196	e8 00 00 00 00	 call	 @__security_check_cookie@4
  0019b	83 c5 74	 add	 ebp, 116		; 00000074H
  0019e	c9		 leave
  0019f	c2 04 00	 ret	 4
?Erase@CPropertyManager@@QAE_NK@Z ENDP			; CPropertyManager::Erase
_TEXT	ENDS
; Function compile flags: /Odspy
; File D:\Metin2 Server Files\mainline\SRC_2014\Metin2Client\GameLib\PropertyManager.cpp
; File C:\Program Files (x86)\Microsoft Visual Studio\2019\Community\VC\Tools\MSVC\14.28.29333\include\xstring
; File D:\Metin2 Server Files\mainline\SRC_2014\Metin2Client\GameLib\PropertyManager.cpp
;	COMDAT ?Put@CPropertyManager@@QAE_NPBD0@Z
_TEXT	SEGMENT
tv85 = -52						; size = 4
_this$ = -48						; size = 4
$T2 = -41						; size = 1
$T3 = -40						; size = 24
__$ArrayPad$ = -16					; size = 4
__$EHRec$ = -12						; size = 12
_c_pszFileName$ = 8					; size = 4
_c_pszSourceFileName$ = 12				; size = 4
?Put@CPropertyManager@@QAE_NPBD0@Z PROC			; CPropertyManager::Put, COMDAT
; _this$ = ecx

; 192  : {

  00000	55		 push	 ebp
  00001	8b ec		 mov	 ebp, esp
  00003	6a ff		 push	 -1
  00005	68 00 00 00 00	 push	 __ehhandler$?Put@CPropertyManager@@QAE_NPBD0@Z
  0000a	64 a1 00 00 00
	00		 mov	 eax, DWORD PTR fs:0
  00010	50		 push	 eax
  00011	83 ec 28	 sub	 esp, 40			; 00000028H
  00014	a1 00 00 00 00	 mov	 eax, DWORD PTR ___security_cookie
  00019	33 c5		 xor	 eax, ebp
  0001b	89 45 f0	 mov	 DWORD PTR __$ArrayPad$[ebp], eax
  0001e	50		 push	 eax
  0001f	8d 45 f4	 lea	 eax, DWORD PTR __$EHRec$[ebp]
  00022	64 a3 00 00 00
	00		 mov	 DWORD PTR fs:0, eax
  00028	89 4d d0	 mov	 DWORD PTR _this$[ebp], ecx

; 193  : 	if (!CopyFile(c_pszSourceFileName, c_pszFileName, FALSE))

  0002b	6a 00		 push	 0
  0002d	ff 75 08	 push	 DWORD PTR _c_pszFileName$[ebp]
  00030	ff 75 0c	 push	 DWORD PTR _c_pszSourceFileName$[ebp]
  00033	ff 15 00 00 00
	00		 call	 DWORD PTR __imp__CopyFileA@12
  00039	85 c0		 test	 eax, eax
  0003b	75 04		 jne	 SHORT $LN2@Put

; 194  : 		return false;

  0003d	32 c0		 xor	 al, al
  0003f	eb 73		 jmp	 SHORT $LN1@Put
$LN2@Put:

; 195  : 
; 196  : 	if (!m_isFileMode)	//   

  00041	8b 45 d0	 mov	 eax, DWORD PTR _this$[ebp]
  00044	0f b6 40 04	 movzx	 eax, BYTE PTR [eax+4]
  00048	85 c0		 test	 eax, eax
  0004a	75 59		 jne	 SHORT $LN3@Put

; 198  : 		if (!m_pack.Put(c_pszFileName, NULL, COMPRESSED_TYPE_NONE,""))

  0004c	68 00 00 00 00	 push	 OFFSET ??_C@_00CNPNBAHC@@
  00051	8d 4d d8	 lea	 ecx, DWORD PTR $T3[ebp]
  00054	e8 00 00 00 00	 call	 ??0?$basic_string@DU?$char_traits@D@std@@V?$allocator@D@2@@std@@QAE@QBD@Z ; std::basic_string<char,std::char_traits<char>,std::allocator<char> >::basic_string<char,std::char_traits<char>,std::allocator<char> >
  00059	83 65 fc 00	 and	 DWORD PTR __$EHRec$[ebp+8], 0
  0005d	8d 45 d8	 lea	 eax, DWORD PTR $T3[ebp]
  00060	50		 push	 eax
  00061	6a 00		 push	 0
  00063	6a 00		 push	 0
  00065	ff 75 08	 push	 DWORD PTR _c_pszFileName$[ebp]
  00068	8b 4d d0	 mov	 ecx, DWORD PTR _this$[ebp]
  0006b	83 c1 18	 add	 ecx, 24			; 00000018H
  0006e	e8 00 00 00 00	 call	 ?Put@CEterPack@@QAE_NPBD0EABV?$basic_string@DU?$char_traits@D@std@@V?$allocator@D@2@@std@@@Z ; CEterPack::Put
  00073	0f b6 c0	 movzx	 eax, al
  00076	85 c0		 test	 eax, eax
  00078	75 09		 jne	 SHORT $LN6@Put
  0007a	c7 45 cc 01 00
	00 00		 mov	 DWORD PTR tv85[ebp], 1
  00081	eb 04		 jmp	 SHORT $LN7@Put
$LN6@Put:
  00083	83 65 cc 00	 and	 DWORD PTR tv85[ebp], 0
$LN7@Put:
  00087	8a 45 cc	 mov	 al, BYTE PTR tv85[ebp]
  0008a	88 45 d7	 mov	 BYTE PTR $T2[ebp], al
  0008d	83 4d fc ff	 or	 DWORD PTR __$EHRec$[ebp+8], -1
; File C:\Program Files (x86)\Microsoft Visual Studio\2019\Community\VC\Tools\MSVC\14.28.29333\include\xstring

; 2801 :         _Tidy_deallocate();

  00091	8d 4d d8	 lea	 ecx, DWORD PTR $T3[ebp]
  00094	e8 00 00 00 00	 call	 ?_Tidy_deallocate@?$basic_string@DU?$char_traits@D@std@@V?$allocator@D@2@@std@@AAEXXZ ; std::basic_string<char,std::char_traits<char>,std::allocator<char> >::_Tidy_deallocate
; File D:\Metin2 Server Files\mainline\SRC_2014\Metin2Client\GameLib\PropertyManager.cpp

; 198  : 		if (!m_pack.Put(c_pszFileName, NULL, COMPRESSED_TYPE_NONE,""))

  00099	0f b6 45 d7	 movzx	 eax, BYTE PTR $T2[ebp]
  0009d	85 c0		 test	 eax, eax
  0009f	74 04		 je	 SHORT $LN3@Put

; 199  : 		{
; 200  : 			assert(!"CPropertyManager::Put cannot write to pack file");
; 201  : 			return false;

  000a1	32 c0		 xor	 al, al
  000a3	eb 0f		 jmp	 SHORT $LN1@Put
$LN3@Put:

; 202  : 		}
; 203  : 	}
; 204  : 
; 205  : 	Register(c_pszFileName);

  000a5	6a 00		 push	 0
  000a7	ff 75 08	 push	 DWORD PTR _c_pszFileName$[ebp]
  000aa	8b 4d d0	 mov	 ecx, DWORD PTR _this$[ebp]
  000ad	e8 00 00 00 00	 call	 ?Register@CPropertyManager@@QAE_NPBDPAPAVCProperty@@@Z ; CPropertyManager::Register

; 206  : 	return true;

  000b2	b0 01		 mov	 al, 1
$LN1@Put:

; 207  : }

  000b4	8b 4d f4	 mov	 ecx, DWORD PTR __$EHRec$[ebp]
  000b7	64 89 0d 00 00
	00 00		 mov	 DWORD PTR fs:0, ecx
  000be	59		 pop	 ecx
  000bf	8b 4d f0	 mov	 ecx, DWORD PTR __$ArrayPad$[ebp]
  000c2	33 cd		 xor	 ecx, ebp
  000c4	e8 00 00 00 00	 call	 @__security_check_cookie@4
  000c9	c9		 leave
  000ca	c2 08 00	 ret	 8
_TEXT	ENDS
;	COMDAT text$x
text$x	SEGMENT
__unwindfunclet$?Put@CPropertyManager@@QAE_NPBD0@Z$0:
  00000	8d 4d d8	 lea	 ecx, DWORD PTR $T3[ebp]
  00003	e9 00 00 00 00	 jmp	 ??1?$basic_string@DU?$char_traits@D@std@@V?$allocator@D@2@@std@@QAE@XZ ; std::basic_string<char,std::char_traits<char>,std::allocator<char> >::~basic_string<char,std::char_traits<char>,std::allocator<char> >
  00008	cc		 int	 3
  00009	cc		 int	 3
  0000a	cc		 int	 3
  0000b	cc		 int	 3
  0000c	cc		 int	 3
__ehhandler$?Put@CPropertyManager@@QAE_NPBD0@Z:
  0000d	90		 npad	 1
  0000e	90		 npad	 1
  0000f	8b 54 24 08	 mov	 edx, DWORD PTR [esp+8]
  00013	8d 42 0c	 lea	 eax, DWORD PTR [edx+12]
  00016	8b 4a d4	 mov	 ecx, DWORD PTR [edx-44]
  00019	33 c8		 xor	 ecx, eax
  0001b	e8 00 00 00 00	 call	 @__security_check_cookie@4
  00020	8b 4a fc	 mov	 ecx, DWORD PTR [edx-4]
  00023	33 c8		 xor	 ecx, eax
  00025	e8 00 00 00 00	 call	 @__security_check_cookie@4
  0002a	b8 00 00 00 00	 mov	 eax, OFFSET __ehfuncinfo$?Put@CPropertyManager@@QAE_NPBD0@Z
  0002f	e9 00 00 00 00	 jmp	 ___CxxFrameHandler3
text$x	ENDS
?Put@CPropertyManager@@QAE_NPBD0@Z ENDP			; CPropertyManager::Put
; Function compile flags: /Odspy
; File D:\Metin2 Server Files\mainline\SRC_2014\Metin2Client\GameLib\PropertyManager.cpp
;	COMDAT ?Get@CPropertyManager@@QAE_NPBDPAPAVCProperty@@@Z
_TEXT	SEGMENT
_this$ = -4						; size = 4
_c_pszFileName$ = 8					; size = 4
_ppProperty$ = 12					; size = 4
?Get@CPropertyManager@@QAE_NPBDPAPAVCProperty@@@Z PROC	; CPropertyManager::Get, COMDAT
; _this$ = ecx

; 176  : {

  00000	55		 push	 ebp
  00001	8b ec		 mov	 ebp, esp
  00003	51		 push	 ecx
  00004	89 4d fc	 mov	 DWORD PTR _this$[ebp], ecx

; 177  : 	return Register(c_pszFileName, ppProperty);

  00007	ff 75 0c	 push	 DWORD PTR _ppProperty$[ebp]
  0000a	ff 75 08	 push	 DWORD PTR _c_pszFileName$[ebp]
  0000d	8b 4d fc	 mov	 ecx, DWORD PTR _this$[ebp]
  00010	e8 00 00 00 00	 call	 ?Register@CPropertyManager@@QAE_NPBDPAPAVCProperty@@@Z ; CPropertyManager::Register

; 178  : }

  00015	c9		 leave
  00016	c2 08 00	 ret	 8
?Get@CPropertyManager@@QAE_NPBDPAPAVCProperty@@@Z ENDP	; CPropertyManager::Get
_TEXT	ENDS
; Function compile flags: /Odspy
; File D:\Metin2 Server Files\mainline\SRC_2014\Metin2Client\GameLib\PropertyManager.cpp
; File C:\Program Files (x86)\Microsoft Visual Studio\2019\Community\VC\Tools\MSVC\14.28.29333\include\xtree
; File C:\Program Files (x86)\Microsoft Visual Studio\2019\Community\VC\Tools\MSVC\14.28.29333\include\xstddef
; File C:\Program Files (x86)\Microsoft Visual Studio\2019\Community\VC\Tools\MSVC\14.28.29333\include\xtree
; File D:\Metin2 Server Files\mainline\SRC_2014\Metin2Client\GameLib\PropertyManager.cpp
; File C:\Program Files (x86)\Microsoft Visual Studio\2019\Community\VC\Tools\MSVC\14.28.29333\include\xtree
; File C:\Program Files (x86)\Microsoft Visual Studio\2019\Community\VC\Tools\MSVC\14.28.29333\include\xstddef
; File C:\Program Files (x86)\Microsoft Visual Studio\2019\Community\VC\Tools\MSVC\14.28.29333\include\xutility
; File C:\Program Files (x86)\Microsoft Visual Studio\2019\Community\VC\Tools\MSVC\14.28.29333\include\xtree
; File D:\Metin2 Server Files\mainline\SRC_2014\Metin2Client\GameLib\PropertyManager.cpp
;	COMDAT ?Get@CPropertyManager@@QAE_NKPAPAVCProperty@@@Z
_TEXT	SEGMENT
$T1 = -56						; size = 4
$T2 = -52						; size = 4
$T3 = -48						; size = 4
$T4 = -44						; size = 4
$T5 = -40						; size = 4
$T6 = -36						; size = 4
$T7 = -32						; size = 4
___param0$ = -28					; size = 4
__Scary$8 = -24						; size = 4
$T9 = -20						; size = 4
_itor$ = -16						; size = 4
tv189 = -12						; size = 4
_this$ = -8						; size = 4
$T10 = -1						; size = 1
_dwCRC$ = 8						; size = 4
_ppProperty$ = 12					; size = 4
?Get@CPropertyManager@@QAE_NKPAPAVCProperty@@@Z PROC	; CPropertyManager::Get, COMDAT
; _this$ = ecx

; 181  : {

  00000	55		 push	 ebp
  00001	8b ec		 mov	 ebp, esp
  00003	83 ec 38	 sub	 esp, 56			; 00000038H
  00006	89 4d f8	 mov	 DWORD PTR _this$[ebp], ecx

; 182  : 	TPropertyCRCMap::iterator itor = m_PropertyByCRCMap.find(dwCRC);

  00009	8d 45 08	 lea	 eax, DWORD PTR _dwCRC$[ebp]
  0000c	50		 push	 eax
  0000d	8d 45 f0	 lea	 eax, DWORD PTR _itor$[ebp]
  00010	50		 push	 eax
  00011	8b 4d f8	 mov	 ecx, DWORD PTR _this$[ebp]
  00014	83 c1 08	 add	 ecx, 8
  00017	e8 00 00 00 00	 call	 ?find@?$_Tree@V?$_Tmap_traits@KPAVCProperty@@U?$less@K@std@@V?$allocator@U?$pair@$$CBKPAVCProperty@@@std@@@3@$0A@@std@@@std@@QAE?AV?$_Tree_iterator@V?$_Tree_val@U?$_Tree_simple_types@U?$pair@$$CBKPAVCProperty@@@std@@@std@@@std@@@2@ABK@Z ; std::_Tree<std::_Tmap_traits<unsigned long,CProperty *,std::less<unsigned long>,std::allocator<std::pair<unsigned long const ,CProperty *> >,0> >::find
; File C:\Program Files (x86)\Microsoft Visual Studio\2019\Community\VC\Tools\MSVC\14.28.29333\include\xtree

; 2047 :         return _STD addressof(_Mypair._Myval2._Myval2);

  0001c	8b 45 f8	 mov	 eax, DWORD PTR _this$[ebp]
  0001f	83 c0 08	 add	 eax, 8
; File C:\Program Files (x86)\Microsoft Visual Studio\2019\Community\VC\Tools\MSVC\14.28.29333\include\xstddef

; 275  :     return __builtin_addressof(_Val);

  00022	89 45 ec	 mov	 DWORD PTR $T9[ebp], eax
; File C:\Program Files (x86)\Microsoft Visual Studio\2019\Community\VC\Tools\MSVC\14.28.29333\include\xtree

; 2047 :         return _STD addressof(_Mypair._Myval2._Myval2);

  00025	8b 45 ec	 mov	 eax, DWORD PTR $T9[ebp]
  00028	89 45 e8	 mov	 DWORD PTR __Scary$8[ebp], eax

; 1250 :         return iterator(_Scary->_Myhead, _Scary);

  0002b	8b 45 e8	 mov	 eax, DWORD PTR __Scary$8[ebp]
  0002e	8b 00		 mov	 eax, DWORD PTR [eax]
  00030	89 45 e4	 mov	 DWORD PTR ___param0$[ebp], eax

; 39   :     _Tree_unchecked_const_iterator(_Nodeptr _Pnode, const _Mytree* _Plist) noexcept : _Ptr(_Pnode) {

  00033	8b 45 e4	 mov	 eax, DWORD PTR ___param0$[ebp]
  00036	89 45 e0	 mov	 DWORD PTR $T7[ebp], eax

; 1250 :         return iterator(_Scary->_Myhead, _Scary);

  00039	8d 45 e0	 lea	 eax, DWORD PTR $T7[ebp]
  0003c	89 45 dc	 mov	 DWORD PTR $T6[ebp], eax

; 232  :         return this->_Ptr == _Right._Ptr;

  0003f	8b 45 dc	 mov	 eax, DWORD PTR $T6[ebp]
  00042	8b 00		 mov	 eax, DWORD PTR [eax]
  00044	3b 45 f0	 cmp	 eax, DWORD PTR _itor$[ebp]
  00047	75 09		 jne	 SHORT $LN72@Get
  00049	c7 45 f4 01 00
	00 00		 mov	 DWORD PTR tv189[ebp], 1
  00050	eb 04		 jmp	 SHORT $LN73@Get
$LN72@Get:
  00052	83 65 f4 00	 and	 DWORD PTR tv189[ebp], 0
$LN73@Get:
  00056	8a 45 f4	 mov	 al, BYTE PTR tv189[ebp]
  00059	88 45 ff	 mov	 BYTE PTR $T10[ebp], al
; File D:\Metin2 Server Files\mainline\SRC_2014\Metin2Client\GameLib\PropertyManager.cpp

; 184  : 	if (m_PropertyByCRCMap.end() == itor)

  0005c	0f b6 45 ff	 movzx	 eax, BYTE PTR $T10[ebp]
  00060	85 c0		 test	 eax, eax
  00062	74 04		 je	 SHORT $LN2@Get

; 185  : 		return false;

  00064	32 c0		 xor	 al, al
  00066	eb 2e		 jmp	 SHORT $LN1@Get
$LN2@Get:
; File C:\Program Files (x86)\Microsoft Visual Studio\2019\Community\VC\Tools\MSVC\14.28.29333\include\xtree

; 185  :         return this->_Ptr->_Myval;

  00068	8b 45 f0	 mov	 eax, DWORD PTR _itor$[ebp]
  0006b	83 c0 10	 add	 eax, 16			; 00000010H
  0006e	89 45 d8	 mov	 DWORD PTR $T5[ebp], eax

; 273  :         return const_cast<reference>(_Mybase::operator*());

  00071	8b 45 d8	 mov	 eax, DWORD PTR $T5[ebp]
  00074	89 45 d4	 mov	 DWORD PTR $T4[ebp], eax
; File C:\Program Files (x86)\Microsoft Visual Studio\2019\Community\VC\Tools\MSVC\14.28.29333\include\xstddef

; 275  :     return __builtin_addressof(_Val);

  00077	8b 45 d4	 mov	 eax, DWORD PTR $T4[ebp]
  0007a	89 45 d0	 mov	 DWORD PTR $T3[ebp], eax
; File C:\Program Files (x86)\Microsoft Visual Studio\2019\Community\VC\Tools\MSVC\14.28.29333\include\xutility

; 151  :         return _STD addressof(_Val);

  0007d	8b 45 d0	 mov	 eax, DWORD PTR $T3[ebp]
  00080	89 45 cc	 mov	 DWORD PTR $T2[ebp], eax
; File C:\Program Files (x86)\Microsoft Visual Studio\2019\Community\VC\Tools\MSVC\14.28.29333\include\xtree

; 277  :         return pointer_traits<pointer>::pointer_to(**this);

  00083	8b 45 cc	 mov	 eax, DWORD PTR $T2[ebp]
  00086	89 45 c8	 mov	 DWORD PTR $T1[ebp], eax
; File D:\Metin2 Server Files\mainline\SRC_2014\Metin2Client\GameLib\PropertyManager.cpp

; 187  : 	*ppProperty = itor->second;

  00089	8b 45 0c	 mov	 eax, DWORD PTR _ppProperty$[ebp]
  0008c	8b 4d c8	 mov	 ecx, DWORD PTR $T1[ebp]
  0008f	8b 49 04	 mov	 ecx, DWORD PTR [ecx+4]
  00092	89 08		 mov	 DWORD PTR [eax], ecx

; 188  : 	return true;

  00094	b0 01		 mov	 al, 1
$LN1@Get:

; 189  : }

  00096	c9		 leave
  00097	c2 08 00	 ret	 8
?Get@CPropertyManager@@QAE_NKPAPAVCProperty@@@Z ENDP	; CPropertyManager::Get
_TEXT	ENDS
; Function compile flags: /Odspy
; File D:\Metin2 Server Files\mainline\SRC_2014\Metin2Client\GameLib\PropertyManager.cpp
; File D:\Metin2 Server Files\mainline\SRC_2014\Metin2Client\eterBase\Singleton.h
; File D:\Metin2 Server Files\mainline\SRC_2014\Metin2Client\GameLib\PropertyManager.cpp
; File C:\Program Files (x86)\Microsoft Visual Studio\2019\Community\VC\Tools\MSVC\14.28.29333\include\xtree
; File C:\Program Files (x86)\Microsoft Visual Studio\2019\Community\VC\Tools\MSVC\14.28.29333\include\xstddef
; File C:\Program Files (x86)\Microsoft Visual Studio\2019\Community\VC\Tools\MSVC\14.28.29333\include\xtree
; File D:\Metin2 Server Files\mainline\SRC_2014\Metin2Client\GameLib\PropertyManager.cpp
; File C:\Program Files (x86)\Microsoft Visual Studio\2019\Community\VC\Tools\MSVC\14.28.29333\include\xtree
; File C:\Program Files (x86)\Microsoft Visual Studio\2019\Community\VC\Tools\MSVC\14.28.29333\include\xstddef
; File C:\Program Files (x86)\Microsoft Visual Studio\2019\Community\VC\Tools\MSVC\14.28.29333\include\xutility
; File C:\Program Files (x86)\Microsoft Visual Studio\2019\Community\VC\Tools\MSVC\14.28.29333\include\xtree
; File D:\Metin2 Server Files\mainline\SRC_2014\Metin2Client\GameLib\PropertyManager.cpp
; File C:\Program Files (x86)\Microsoft Visual Studio\2019\Community\VC\Tools\MSVC\14.28.29333\include\xtree
; File C:\Program Files (x86)\Microsoft Visual Studio\2019\Community\VC\Tools\MSVC\14.28.29333\include\xstddef
; File C:\Program Files (x86)\Microsoft Visual Studio\2019\Community\VC\Tools\MSVC\14.28.29333\include\xutility
; File C:\Program Files (x86)\Microsoft Visual Studio\2019\Community\VC\Tools\MSVC\14.28.29333\include\xtree
; File D:\Metin2 Server Files\mainline\SRC_2014\Metin2Client\GameLib\PropertyManager.cpp
; File C:\Program Files (x86)\Microsoft Visual Studio\2019\Community\VC\Tools\MSVC\14.28.29333\include\xtree
; File C:\Program Files (x86)\Microsoft Visual Studio\2019\Community\VC\Tools\MSVC\14.28.29333\include\xstddef
; File C:\Program Files (x86)\Microsoft Visual Studio\2019\Community\VC\Tools\MSVC\14.28.29333\include\xutility
; File C:\Program Files (x86)\Microsoft Visual Studio\2019\Community\VC\Tools\MSVC\14.28.29333\include\xtree
; File D:\Metin2 Server Files\mainline\SRC_2014\Metin2Client\GameLib\PropertyManager.cpp
; File C:\Program Files (x86)\Microsoft Visual Studio\2019\Community\VC\Tools\MSVC\14.28.29333\include\type_traits
; File C:\Program Files (x86)\Microsoft Visual Studio\2019\Community\VC\Tools\MSVC\14.28.29333\include\utility
; File C:\Program Files (x86)\Microsoft Visual Studio\2019\Community\VC\Tools\MSVC\14.28.29333\include\type_traits
; File C:\Program Files (x86)\Microsoft Visual Studio\2019\Community\VC\Tools\MSVC\14.28.29333\include\utility
; File D:\Metin2 Server Files\mainline\SRC_2014\Metin2Client\GameLib\PropertyManager.cpp
;	COMDAT ?Register@CPropertyManager@@QAE_NPBDPAPAVCProperty@@@Z
_TEXT	SEGMENT
$T2 = -192						; size = 8
$T3 = -184						; size = 4
$T4 = -180						; size = 4
$T5 = -176						; size = 8
$T6 = -168						; size = 4
$T7 = -164						; size = 4
$T8 = -160						; size = 4
$T9 = -156						; size = 4
$T10 = -152						; size = 4
$T11 = -148						; size = 4
$T12 = -144						; size = 4
$T13 = -140						; size = 4
$T14 = -136						; size = 4
$T15 = -132						; size = 4
$T16 = -128						; size = 4
$T17 = -124						; size = 4
$T18 = -120						; size = 4
$T19 = -116						; size = 4
$T20 = -112						; size = 4
$T21 = -108						; size = 4
$T22 = -104						; size = 4
$T23 = -100						; size = 4
$T24 = -96						; size = 4
$T25 = -92						; size = 4
___param0$ = -88					; size = 4
__Scary$26 = -84					; size = 4
$T27 = -80						; size = 4
_c_pvData$ = -76					; size = 4
$T28 = -72						; size = 4
_dwCRC$ = -68						; size = 4
tv179 = -64						; size = 4
tv235 = -60						; size = 4
tv303 = -56						; size = 4
tv132 = -52						; size = 4
tv87 = -48						; size = 4
$T29 = -44						; size = 4
_this$ = -40						; size = 4
_itor$ = -36						; size = 4
$T30 = -32						; size = 4
$T31 = -28						; size = 4
_pProperty$ = -24					; size = 4
$T32 = -17						; size = 1
$T33 = -16						; size = 1
$T34 = -15						; size = 1
$T35 = -14						; size = 1
$T36 = -13						; size = 1
__$EHRec$ = -12						; size = 12
_file$ = 0						; size = 324
__$ArrayPad$ = 324					; size = 4
_c_pszFileName$ = 336					; size = 4
_ppProperty$ = 340					; size = 4
?Register@CPropertyManager@@QAE_NPBDPAPAVCProperty@@@Z PROC ; CPropertyManager::Register, COMDAT
; _this$ = ecx

; 138  : {

  00000	55		 push	 ebp
  00001	8d ac 24 b8 fe
	ff ff		 lea	 ebp, DWORD PTR [esp-328]
  00008	81 ec 48 01 00
	00		 sub	 esp, 328		; 00000148H
  0000e	6a ff		 push	 -1
  00010	68 00 00 00 00	 push	 __ehhandler$?Register@CPropertyManager@@QAE_NPBDPAPAVCProperty@@@Z
  00015	64 a1 00 00 00
	00		 mov	 eax, DWORD PTR fs:0
  0001b	50		 push	 eax
  0001c	81 ec b4 00 00
	00		 sub	 esp, 180		; 000000b4H
  00022	a1 00 00 00 00	 mov	 eax, DWORD PTR ___security_cookie
  00027	33 c5		 xor	 eax, ebp
  00029	89 85 44 01 00
	00		 mov	 DWORD PTR __$ArrayPad$[ebp], eax
  0002f	50		 push	 eax
  00030	8d 45 f4	 lea	 eax, DWORD PTR __$EHRec$[ebp]
  00033	64 a3 00 00 00
	00		 mov	 DWORD PTR fs:0, eax
  00039	89 4d d8	 mov	 DWORD PTR _this$[ebp], ecx

; 139  : 	CMappedFile file;

  0003c	8d 4d 00	 lea	 ecx, DWORD PTR _file$[ebp]
  0003f	e8 00 00 00 00	 call	 ??0CMappedFile@@QAE@XZ	; CMappedFile::CMappedFile
  00044	83 65 fc 00	 and	 DWORD PTR __$EHRec$[ebp+8], 0
; File D:\Metin2 Server Files\mainline\SRC_2014\Metin2Client\eterBase\Singleton.h

; 27   : 		return (*ms_singleton);

  00048	a1 00 00 00 00	 mov	 eax, DWORD PTR ?ms_singleton@?$CSingleton@VCEterPackManager@@@@0PAVCEterPackManager@@A ; CSingleton<CEterPackManager>::ms_singleton
  0004d	89 85 70 ff ff
	ff		 mov	 DWORD PTR $T12[ebp], eax
; File D:\Metin2 Server Files\mainline\SRC_2014\Metin2Client\GameLib\PropertyManager.cpp

; 142  : 	if (!CEterPackManager::Instance().Get(file, c_pszFileName, &c_pvData))

  00053	8d 45 b4	 lea	 eax, DWORD PTR _c_pvData$[ebp]
  00056	50		 push	 eax
  00057	ff b5 50 01 00
	00		 push	 DWORD PTR _c_pszFileName$[ebp]
  0005d	8d 45 00	 lea	 eax, DWORD PTR _file$[ebp]
  00060	50		 push	 eax
  00061	8b 8d 70 ff ff
	ff		 mov	 ecx, DWORD PTR $T12[ebp]
  00067	e8 00 00 00 00	 call	 ?Get@CEterPackManager@@QAE_NAAVCMappedFile@@PBDPAPBX@Z ; CEterPackManager::Get
  0006c	0f b6 c0	 movzx	 eax, al
  0006f	85 c0		 test	 eax, eax
  00071	75 18		 jne	 SHORT $LN2@Register

; 143  : 		return false;

  00073	c6 45 f3 00	 mov	 BYTE PTR $T36[ebp], 0
  00077	83 4d fc ff	 or	 DWORD PTR __$EHRec$[ebp+8], -1
  0007b	8d 4d 00	 lea	 ecx, DWORD PTR _file$[ebp]
  0007e	e8 00 00 00 00	 call	 ??1CMappedFile@@UAE@XZ	; CMappedFile::~CMappedFile
  00083	8a 45 f3	 mov	 al, BYTE PTR $T36[ebp]
  00086	e9 9c 02 00 00	 jmp	 $LN1@Register
$LN2@Register:

; 144  : 
; 145  : 	CProperty * pProperty = new CProperty(c_pszFileName);

  0008b	6a 40		 push	 64			; 00000040H
  0008d	e8 00 00 00 00	 call	 ??2@YAPAXI@Z		; operator new
  00092	59		 pop	 ecx
  00093	89 45 d4	 mov	 DWORD PTR $T29[ebp], eax
  00096	c6 45 fc 01	 mov	 BYTE PTR __$EHRec$[ebp+8], 1
  0009a	83 7d d4 00	 cmp	 DWORD PTR $T29[ebp], 0
  0009e	74 13		 je	 SHORT $LN8@Register
  000a0	ff b5 50 01 00
	00		 push	 DWORD PTR _c_pszFileName$[ebp]
  000a6	8b 4d d4	 mov	 ecx, DWORD PTR $T29[ebp]
  000a9	e8 00 00 00 00	 call	 ??0CProperty@@QAE@PBD@Z	; CProperty::CProperty
  000ae	89 45 d0	 mov	 DWORD PTR tv87[ebp], eax
  000b1	eb 04		 jmp	 SHORT $LN9@Register
$LN8@Register:
  000b3	83 65 d0 00	 and	 DWORD PTR tv87[ebp], 0
$LN9@Register:
  000b7	8b 45 d0	 mov	 eax, DWORD PTR tv87[ebp]
  000ba	89 45 b8	 mov	 DWORD PTR $T28[ebp], eax
  000bd	c6 45 fc 00	 mov	 BYTE PTR __$EHRec$[ebp+8], 0
  000c1	8b 45 b8	 mov	 eax, DWORD PTR $T28[ebp]
  000c4	89 45 e8	 mov	 DWORD PTR _pProperty$[ebp], eax

; 146  : 
; 147  : 	if (!pProperty->ReadFromMemory(c_pvData, file.Size(), c_pszFileName))

  000c7	ff b5 50 01 00
	00		 push	 DWORD PTR _c_pszFileName$[ebp]
  000cd	8d 4d 00	 lea	 ecx, DWORD PTR _file$[ebp]
  000d0	e8 00 00 00 00	 call	 ?Size@CMappedFile@@QAEKXZ ; CMappedFile::Size
  000d5	50		 push	 eax
  000d6	ff 75 b4	 push	 DWORD PTR _c_pvData$[ebp]
  000d9	8b 4d e8	 mov	 ecx, DWORD PTR _pProperty$[ebp]
  000dc	e8 00 00 00 00	 call	 ?ReadFromMemory@CProperty@@QAE_NPBXHPBD@Z ; CProperty::ReadFromMemory
  000e1	0f b6 c0	 movzx	 eax, al
  000e4	85 c0		 test	 eax, eax
  000e6	75 55		 jne	 SHORT $LN3@Register

; 148  : 	{
; 149  : 		delete pProperty;

  000e8	8b 45 e8	 mov	 eax, DWORD PTR _pProperty$[ebp]
  000eb	89 45 e4	 mov	 DWORD PTR $T31[ebp], eax
  000ee	83 7d e4 00	 cmp	 DWORD PTR $T31[ebp], 0
  000f2	74 2d		 je	 SHORT $LN10@Register
  000f4	8b 85 48 ff ff
	ff		 mov	 eax, DWORD PTR $T3[ebp]
  000fa	89 45 cc	 mov	 DWORD PTR tv132[ebp], eax
  000fd	8b 4d e4	 mov	 ecx, DWORD PTR $T31[ebp]
  00100	e8 00 00 00 00	 call	 ??1CProperty@@QAE@XZ	; CProperty::~CProperty
  00105	33 c0		 xor	 eax, eax
  00107	40		 inc	 eax
  00108	83 e0 01	 and	 eax, 1
  0010b	74 0c		 je	 SHORT $LN19@Register
  0010d	6a 40		 push	 64			; 00000040H
  0010f	ff 75 e4	 push	 DWORD PTR $T31[ebp]
  00112	e8 00 00 00 00	 call	 ??3@YAXPAXI@Z		; operator delete
  00117	59		 pop	 ecx
  00118	59		 pop	 ecx
$LN19@Register:
  00119	8b 45 e4	 mov	 eax, DWORD PTR $T31[ebp]
  0011c	89 45 cc	 mov	 DWORD PTR tv132[ebp], eax
  0011f	eb 04		 jmp	 SHORT $LN11@Register
$LN10@Register:
  00121	83 65 cc 00	 and	 DWORD PTR tv132[ebp], 0
$LN11@Register:

; 150  : 		return false;

  00125	c6 45 f2 00	 mov	 BYTE PTR $T35[ebp], 0
  00129	83 4d fc ff	 or	 DWORD PTR __$EHRec$[ebp+8], -1
  0012d	8d 4d 00	 lea	 ecx, DWORD PTR _file$[ebp]
  00130	e8 00 00 00 00	 call	 ??1CMappedFile@@UAE@XZ	; CMappedFile::~CMappedFile
  00135	8a 45 f2	 mov	 al, BYTE PTR $T35[ebp]
  00138	e9 ea 01 00 00	 jmp	 $LN1@Register
$LN3@Register:

; 151  : 	}
; 152  : 
; 153  : 	DWORD dwCRC = pProperty->GetCRC();

  0013d	8b 4d e8	 mov	 ecx, DWORD PTR _pProperty$[ebp]
  00140	e8 00 00 00 00	 call	 ?GetCRC@CProperty@@QAEKXZ ; CProperty::GetCRC
  00145	89 45 bc	 mov	 DWORD PTR _dwCRC$[ebp], eax

; 154  : 
; 155  : 	TPropertyCRCMap::iterator itor = m_PropertyByCRCMap.find(dwCRC);

  00148	8d 45 bc	 lea	 eax, DWORD PTR _dwCRC$[ebp]
  0014b	50		 push	 eax
  0014c	8d 45 dc	 lea	 eax, DWORD PTR _itor$[ebp]
  0014f	50		 push	 eax
  00150	8b 4d d8	 mov	 ecx, DWORD PTR _this$[ebp]
  00153	83 c1 08	 add	 ecx, 8
  00156	e8 00 00 00 00	 call	 ?find@?$_Tree@V?$_Tmap_traits@KPAVCProperty@@U?$less@K@std@@V?$allocator@U?$pair@$$CBKPAVCProperty@@@std@@@3@$0A@@std@@@std@@QAE?AV?$_Tree_iterator@V?$_Tree_val@U?$_Tree_simple_types@U?$pair@$$CBKPAVCProperty@@@std@@@std@@@std@@@2@ABK@Z ; std::_Tree<std::_Tmap_traits<unsigned long,CProperty *,std::less<unsigned long>,std::allocator<std::pair<unsigned long const ,CProperty *> >,0> >::find
; File C:\Program Files (x86)\Microsoft Visual Studio\2019\Community\VC\Tools\MSVC\14.28.29333\include\xtree

; 2047 :         return _STD addressof(_Mypair._Myval2._Myval2);

  0015b	8b 45 d8	 mov	 eax, DWORD PTR _this$[ebp]
  0015e	83 c0 08	 add	 eax, 8
; File C:\Program Files (x86)\Microsoft Visual Studio\2019\Community\VC\Tools\MSVC\14.28.29333\include\xstddef

; 275  :     return __builtin_addressof(_Val);

  00161	89 45 b0	 mov	 DWORD PTR $T27[ebp], eax
; File C:\Program Files (x86)\Microsoft Visual Studio\2019\Community\VC\Tools\MSVC\14.28.29333\include\xtree

; 2047 :         return _STD addressof(_Mypair._Myval2._Myval2);

  00164	8b 45 b0	 mov	 eax, DWORD PTR $T27[ebp]
  00167	89 45 ac	 mov	 DWORD PTR __Scary$26[ebp], eax

; 1250 :         return iterator(_Scary->_Myhead, _Scary);

  0016a	8b 45 ac	 mov	 eax, DWORD PTR __Scary$26[ebp]
  0016d	8b 00		 mov	 eax, DWORD PTR [eax]
  0016f	89 45 a8	 mov	 DWORD PTR ___param0$[ebp], eax

; 39   :     _Tree_unchecked_const_iterator(_Nodeptr _Pnode, const _Mytree* _Plist) noexcept : _Ptr(_Pnode) {

  00172	8b 45 a8	 mov	 eax, DWORD PTR ___param0$[ebp]
  00175	89 45 a4	 mov	 DWORD PTR $T25[ebp], eax

; 1250 :         return iterator(_Scary->_Myhead, _Scary);

  00178	8d 45 a4	 lea	 eax, DWORD PTR $T25[ebp]
  0017b	89 45 a0	 mov	 DWORD PTR $T24[ebp], eax

; 232  :         return this->_Ptr == _Right._Ptr;

  0017e	8b 45 a0	 mov	 eax, DWORD PTR $T24[ebp]
  00181	8b 00		 mov	 eax, DWORD PTR [eax]
  00183	3b 45 dc	 cmp	 eax, DWORD PTR _itor$[ebp]
  00186	75 09		 jne	 SHORT $LN95@Register
  00188	c7 45 c8 01 00
	00 00		 mov	 DWORD PTR tv303[ebp], 1
  0018f	eb 04		 jmp	 SHORT $LN96@Register
$LN95@Register:
  00191	83 65 c8 00	 and	 DWORD PTR tv303[ebp], 0
$LN96@Register:
  00195	8a 45 c8	 mov	 al, BYTE PTR tv303[ebp]
  00198	88 45 f1	 mov	 BYTE PTR $T34[ebp], al

; 236  :         return !(*this == _Right);

  0019b	0f b6 45 f1	 movzx	 eax, BYTE PTR $T34[ebp]
  0019f	85 c0		 test	 eax, eax
  001a1	75 09		 jne	 SHORT $LN90@Register
  001a3	c7 45 c4 01 00
	00 00		 mov	 DWORD PTR tv235[ebp], 1
  001aa	eb 04		 jmp	 SHORT $LN91@Register
$LN90@Register:
  001ac	83 65 c4 00	 and	 DWORD PTR tv235[ebp], 0
$LN91@Register:
  001b0	8a 45 c4	 mov	 al, BYTE PTR tv235[ebp]
  001b3	88 45 f0	 mov	 BYTE PTR $T33[ebp], al
; File D:\Metin2 Server Files\mainline\SRC_2014\Metin2Client\GameLib\PropertyManager.cpp

; 157  : 	if (m_PropertyByCRCMap.end() != itor)

  001b6	0f b6 45 f0	 movzx	 eax, BYTE PTR $T33[ebp]
  001ba	85 c0		 test	 eax, eax
  001bc	0f 84 f7 00 00
	00		 je	 $LN4@Register
; File C:\Program Files (x86)\Microsoft Visual Studio\2019\Community\VC\Tools\MSVC\14.28.29333\include\xtree

; 185  :         return this->_Ptr->_Myval;

  001c2	8b 45 dc	 mov	 eax, DWORD PTR _itor$[ebp]
  001c5	83 c0 10	 add	 eax, 16			; 00000010H
  001c8	89 45 9c	 mov	 DWORD PTR $T23[ebp], eax

; 273  :         return const_cast<reference>(_Mybase::operator*());

  001cb	8b 45 9c	 mov	 eax, DWORD PTR $T23[ebp]
  001ce	89 45 98	 mov	 DWORD PTR $T22[ebp], eax
; File C:\Program Files (x86)\Microsoft Visual Studio\2019\Community\VC\Tools\MSVC\14.28.29333\include\xstddef

; 275  :     return __builtin_addressof(_Val);

  001d1	8b 45 98	 mov	 eax, DWORD PTR $T22[ebp]
  001d4	89 45 94	 mov	 DWORD PTR $T21[ebp], eax
; File C:\Program Files (x86)\Microsoft Visual Studio\2019\Community\VC\Tools\MSVC\14.28.29333\include\xutility

; 151  :         return _STD addressof(_Val);

  001d7	8b 45 94	 mov	 eax, DWORD PTR $T21[ebp]
  001da	89 45 90	 mov	 DWORD PTR $T20[ebp], eax
; File C:\Program Files (x86)\Microsoft Visual Studio\2019\Community\VC\Tools\MSVC\14.28.29333\include\xtree

; 277  :         return pointer_traits<pointer>::pointer_to(**this);

  001dd	8b 45 90	 mov	 eax, DWORD PTR $T20[ebp]
  001e0	89 45 8c	 mov	 DWORD PTR $T19[ebp], eax
; File D:\Metin2 Server Files\mainline\SRC_2014\Metin2Client\GameLib\PropertyManager.cpp

; 159  : 		Tracef("Property already registered, replace %s to %s\n",

  001e3	ff b5 50 01 00
	00		 push	 DWORD PTR _c_pszFileName$[ebp]
  001e9	8b 45 8c	 mov	 eax, DWORD PTR $T19[ebp]
  001ec	8b 48 04	 mov	 ecx, DWORD PTR [eax+4]
  001ef	e8 00 00 00 00	 call	 ?GetFileName@CProperty@@QAEPBDXZ ; CProperty::GetFileName
  001f4	50		 push	 eax
  001f5	68 00 00 00 00	 push	 OFFSET ??_C@_0CP@KFNNCDLJ@Property?5already?5registered?0?5re@
  001fa	e8 00 00 00 00	 call	 ?Tracef@@YAXPBDZZ	; Tracef
  001ff	83 c4 0c	 add	 esp, 12			; 0000000cH
; File C:\Program Files (x86)\Microsoft Visual Studio\2019\Community\VC\Tools\MSVC\14.28.29333\include\xtree

; 185  :         return this->_Ptr->_Myval;

  00202	8b 45 dc	 mov	 eax, DWORD PTR _itor$[ebp]
  00205	83 c0 10	 add	 eax, 16			; 00000010H
  00208	89 45 88	 mov	 DWORD PTR $T18[ebp], eax

; 273  :         return const_cast<reference>(_Mybase::operator*());

  0020b	8b 45 88	 mov	 eax, DWORD PTR $T18[ebp]
  0020e	89 45 84	 mov	 DWORD PTR $T17[ebp], eax
; File C:\Program Files (x86)\Microsoft Visual Studio\2019\Community\VC\Tools\MSVC\14.28.29333\include\xstddef

; 275  :     return __builtin_addressof(_Val);

  00211	8b 45 84	 mov	 eax, DWORD PTR $T17[ebp]
  00214	89 45 80	 mov	 DWORD PTR $T16[ebp], eax
; File C:\Program Files (x86)\Microsoft Visual Studio\2019\Community\VC\Tools\MSVC\14.28.29333\include\xutility

; 151  :         return _STD addressof(_Val);

  00217	8b 45 80	 mov	 eax, DWORD PTR $T16[ebp]
  0021a	89 85 7c ff ff
	ff		 mov	 DWORD PTR $T15[ebp], eax
; File C:\Program Files (x86)\Microsoft Visual Studio\2019\Community\VC\Tools\MSVC\14.28.29333\include\xtree

; 277  :         return pointer_traits<pointer>::pointer_to(**this);

  00220	8b 85 7c ff ff
	ff		 mov	 eax, DWORD PTR $T15[ebp]
  00226	89 85 78 ff ff
	ff		 mov	 DWORD PTR $T14[ebp], eax
; File D:\Metin2 Server Files\mainline\SRC_2014\Metin2Client\GameLib\PropertyManager.cpp

; 163  : 		delete itor->second;

  0022c	8b 85 78 ff ff
	ff		 mov	 eax, DWORD PTR $T14[ebp]
  00232	8b 40 04	 mov	 eax, DWORD PTR [eax+4]
  00235	89 45 e0	 mov	 DWORD PTR $T30[ebp], eax
  00238	83 7d e0 00	 cmp	 DWORD PTR $T30[ebp], 0
  0023c	74 2d		 je	 SHORT $LN12@Register
  0023e	8b 85 4c ff ff
	ff		 mov	 eax, DWORD PTR $T4[ebp]
  00244	89 45 c0	 mov	 DWORD PTR tv179[ebp], eax
  00247	8b 4d e0	 mov	 ecx, DWORD PTR $T30[ebp]
  0024a	e8 00 00 00 00	 call	 ??1CProperty@@QAE@XZ	; CProperty::~CProperty
  0024f	33 c0		 xor	 eax, eax
  00251	40		 inc	 eax
  00252	83 e0 01	 and	 eax, 1
  00255	74 0c		 je	 SHORT $LN129@Register
  00257	6a 40		 push	 64			; 00000040H
  00259	ff 75 e0	 push	 DWORD PTR $T30[ebp]
  0025c	e8 00 00 00 00	 call	 ??3@YAXPAXI@Z		; operator delete
  00261	59		 pop	 ecx
  00262	59		 pop	 ecx
$LN129@Register:
  00263	8b 45 e0	 mov	 eax, DWORD PTR $T30[ebp]
  00266	89 45 c0	 mov	 DWORD PTR tv179[ebp], eax
  00269	eb 04		 jmp	 SHORT $LN13@Register
$LN12@Register:
  0026b	83 65 c0 00	 and	 DWORD PTR tv179[ebp], 0
$LN13@Register:
; File C:\Program Files (x86)\Microsoft Visual Studio\2019\Community\VC\Tools\MSVC\14.28.29333\include\xtree

; 185  :         return this->_Ptr->_Myval;

  0026f	8b 45 dc	 mov	 eax, DWORD PTR _itor$[ebp]
  00272	83 c0 10	 add	 eax, 16			; 00000010H
  00275	89 85 74 ff ff
	ff		 mov	 DWORD PTR $T13[ebp], eax

; 273  :         return const_cast<reference>(_Mybase::operator*());

  0027b	8b 85 74 ff ff
	ff		 mov	 eax, DWORD PTR $T13[ebp]
  00281	89 85 5c ff ff
	ff		 mov	 DWORD PTR $T7[ebp], eax
; File C:\Program Files (x86)\Microsoft Visual Studio\2019\Community\VC\Tools\MSVC\14.28.29333\include\xstddef

; 275  :     return __builtin_addressof(_Val);

  00287	8b 85 5c ff ff
	ff		 mov	 eax, DWORD PTR $T7[ebp]
  0028d	89 85 6c ff ff
	ff		 mov	 DWORD PTR $T11[ebp], eax
; File C:\Program Files (x86)\Microsoft Visual Studio\2019\Community\VC\Tools\MSVC\14.28.29333\include\xutility

; 151  :         return _STD addressof(_Val);

  00293	8b 85 6c ff ff
	ff		 mov	 eax, DWORD PTR $T11[ebp]
  00299	89 85 68 ff ff
	ff		 mov	 DWORD PTR $T10[ebp], eax
; File C:\Program Files (x86)\Microsoft Visual Studio\2019\Community\VC\Tools\MSVC\14.28.29333\include\xtree

; 277  :         return pointer_traits<pointer>::pointer_to(**this);

  0029f	8b 85 68 ff ff
	ff		 mov	 eax, DWORD PTR $T10[ebp]
  002a5	89 85 64 ff ff
	ff		 mov	 DWORD PTR $T9[ebp], eax
; File D:\Metin2 Server Files\mainline\SRC_2014\Metin2Client\GameLib\PropertyManager.cpp

; 164  : 		itor->second = pProperty;

  002ab	8b 85 64 ff ff
	ff		 mov	 eax, DWORD PTR $T9[ebp]
  002b1	8b 4d e8	 mov	 ecx, DWORD PTR _pProperty$[ebp]
  002b4	89 48 04	 mov	 DWORD PTR [eax+4], ecx

; 165  : 	}

  002b7	eb 47		 jmp	 SHORT $LN5@Register
$LN4@Register:
; File C:\Program Files (x86)\Microsoft Visual Studio\2019\Community\VC\Tools\MSVC\14.28.29333\include\type_traits

; 1443 :     return static_cast<_Ty&&>(_Arg);

  002b9	8d 45 bc	 lea	 eax, DWORD PTR _dwCRC$[ebp]
  002bc	89 85 60 ff ff
	ff		 mov	 DWORD PTR $T8[ebp], eax
; File C:\Program Files (x86)\Microsoft Visual Studio\2019\Community\VC\Tools\MSVC\14.28.29333\include\utility

; 190  :         : first(_STD forward<_Other1>(_Val1)), second(_STD forward<_Other2>(_Val2)) {}

  002c2	8b 85 60 ff ff
	ff		 mov	 eax, DWORD PTR $T8[ebp]
  002c8	8b 00		 mov	 eax, DWORD PTR [eax]
  002ca	89 85 50 ff ff
	ff		 mov	 DWORD PTR $T5[ebp], eax
; File C:\Program Files (x86)\Microsoft Visual Studio\2019\Community\VC\Tools\MSVC\14.28.29333\include\type_traits

; 1443 :     return static_cast<_Ty&&>(_Arg);

  002d0	8d 45 e8	 lea	 eax, DWORD PTR _pProperty$[ebp]
  002d3	89 85 58 ff ff
	ff		 mov	 DWORD PTR $T6[ebp], eax
; File C:\Program Files (x86)\Microsoft Visual Studio\2019\Community\VC\Tools\MSVC\14.28.29333\include\utility

; 190  :         : first(_STD forward<_Other1>(_Val1)), second(_STD forward<_Other2>(_Val2)) {}

  002d9	8b 85 58 ff ff
	ff		 mov	 eax, DWORD PTR $T6[ebp]
  002df	8b 00		 mov	 eax, DWORD PTR [eax]
  002e1	89 85 54 ff ff
	ff		 mov	 DWORD PTR $T5[ebp+4], eax
; File D:\Metin2 Server Files\mainline\SRC_2014\Metin2Client\GameLib\PropertyManager.cpp

; 167  : 		m_PropertyByCRCMap.insert(TPropertyCRCMap::value_type(dwCRC, pProperty));

  002e7	8d 85 50 ff ff
	ff		 lea	 eax, DWORD PTR $T5[ebp]
  002ed	50		 push	 eax
  002ee	8d 85 40 ff ff
	ff		 lea	 eax, DWORD PTR $T2[ebp]
  002f4	50		 push	 eax
  002f5	8b 4d d8	 mov	 ecx, DWORD PTR _this$[ebp]
  002f8	83 c1 08	 add	 ecx, 8
  002fb	e8 00 00 00 00	 call	 ??$insert@$0A@$0A@@?$_Tree@V?$_Tmap_traits@KPAVCProperty@@U?$less@K@std@@V?$allocator@U?$pair@$$CBKPAVCProperty@@@std@@@3@$0A@@std@@@std@@QAE?AU?$pair@V?$_Tree_iterator@V?$_Tree_val@U?$_Tree_simple_types@U?$pair@$$CBKPAVCProperty@@@std@@@std@@@std@@@std@@_N@1@$$QAU?$pair@$$CBKPAVCProperty@@@1@@Z ; std::_Tree<std::_Tmap_traits<unsigned long,CProperty *,std::less<unsigned long>,std::allocator<std::pair<unsigned long const ,CProperty *> >,0> >::insert<0,0>
$LN5@Register:

; 168  : 
; 169  : 	if (ppProperty)

  00300	83 bd 54 01 00
	00 00		 cmp	 DWORD PTR _ppProperty$[ebp], 0
  00307	74 0b		 je	 SHORT $LN6@Register

; 170  : 		*ppProperty = pProperty;

  00309	8b 85 54 01 00
	00		 mov	 eax, DWORD PTR _ppProperty$[ebp]
  0030f	8b 4d e8	 mov	 ecx, DWORD PTR _pProperty$[ebp]
  00312	89 08		 mov	 DWORD PTR [eax], ecx
$LN6@Register:

; 171  : 
; 172  : 	return true;

  00314	c6 45 ef 01	 mov	 BYTE PTR $T32[ebp], 1
  00318	83 4d fc ff	 or	 DWORD PTR __$EHRec$[ebp+8], -1
  0031c	8d 4d 00	 lea	 ecx, DWORD PTR _file$[ebp]
  0031f	e8 00 00 00 00	 call	 ??1CMappedFile@@UAE@XZ	; CMappedFile::~CMappedFile
  00324	8a 45 ef	 mov	 al, BYTE PTR $T32[ebp]
$LN1@Register:

; 173  : }

  00327	8b 4d f4	 mov	 ecx, DWORD PTR __$EHRec$[ebp]
  0032a	64 89 0d 00 00
	00 00		 mov	 DWORD PTR fs:0, ecx
  00331	59		 pop	 ecx
  00332	8b 8d 44 01 00
	00		 mov	 ecx, DWORD PTR __$ArrayPad$[ebp]
  00338	33 cd		 xor	 ecx, ebp
  0033a	e8 00 00 00 00	 call	 @__security_check_cookie@4
  0033f	81 c5 48 01 00
	00		 add	 ebp, 328		; 00000148H
  00345	c9		 leave
  00346	c2 08 00	 ret	 8
_TEXT	ENDS
;	COMDAT text$x
text$x	SEGMENT
__unwindfunclet$?Register@CPropertyManager@@QAE_NPBDPAPAVCProperty@@@Z$0:
  00000	8d 4d 00	 lea	 ecx, DWORD PTR _file$[ebp]
  00003	e9 00 00 00 00	 jmp	 ??1CMappedFile@@UAE@XZ	; CMappedFile::~CMappedFile
__unwindfunclet$?Register@CPropertyManager@@QAE_NPBDPAPAVCProperty@@@Z$1:
  00008	6a 40		 push	 64			; 00000040H
  0000a	ff 75 d4	 push	 DWORD PTR $T29[ebp]
  0000d	e8 00 00 00 00	 call	 ??3@YAXPAXI@Z		; operator delete
  00012	59		 pop	 ecx
  00013	59		 pop	 ecx
  00014	c3		 ret	 0
  00015	cc		 int	 3
  00016	cc		 int	 3
  00017	cc		 int	 3
  00018	cc		 int	 3
  00019	cc		 int	 3
__ehhandler$?Register@CPropertyManager@@QAE_NPBDPAPAVCProperty@@@Z:
  0001a	90		 npad	 1
  0001b	90		 npad	 1
  0001c	8b 54 24 08	 mov	 edx, DWORD PTR [esp+8]
  00020	8d 42 0c	 lea	 eax, DWORD PTR [edx+12]
  00023	8b 8a 48 ff ff
	ff		 mov	 ecx, DWORD PTR [edx-184]
  00029	33 c8		 xor	 ecx, eax
  0002b	e8 00 00 00 00	 call	 @__security_check_cookie@4
  00030	8b 8a 50 01 00
	00		 mov	 ecx, DWORD PTR [edx+336]
  00036	33 c8		 xor	 ecx, eax
  00038	e8 00 00 00 00	 call	 @__security_check_cookie@4
  0003d	b8 00 00 00 00	 mov	 eax, OFFSET __ehfuncinfo$?Register@CPropertyManager@@QAE_NPBDPAPAVCProperty@@@Z
  00042	e9 00 00 00 00	 jmp	 ___CxxFrameHandler3
text$x	ENDS
?Register@CPropertyManager@@QAE_NPBDPAPAVCProperty@@@Z ENDP ; CPropertyManager::Register
; Function compile flags: /Odspy
; File D:\Metin2 Server Files\mainline\SRC_2014\Metin2Client\GameLib\PropertyManager.cpp
; File D:\Metin2 Server Files\mainline\SRC_2014\M2Data\include\boost\unordered\unordered_map.hpp
; File D:\Metin2 Server Files\mainline\SRC_2014\M2Data\include\boost\unordered\detail\implementation.hpp
; File D:\Metin2 Server Files\mainline\SRC_2014\M2Data\include\boost\unordered\unordered_map.hpp
; File D:\Metin2 Server Files\mainline\SRC_2014\Metin2Client\GameLib\PropertyManager.cpp
; File D:\Metin2 Server Files\mainline\SRC_2014\M2Data\include\boost\unordered\detail\implementation.hpp
; File D:\Metin2 Server Files\mainline\SRC_2014\M2Data\include\boost\unordered\unordered_map.hpp
; File D:\Metin2 Server Files\mainline\SRC_2014\M2Data\include\boost\unordered\detail\implementation.hpp
; File D:\Metin2 Server Files\mainline\SRC_2014\Metin2Client\GameLib\PropertyManager.cpp
; File D:\Metin2 Server Files\mainline\SRC_2014\M2Data\include\boost\unordered\detail\implementation.hpp
; File D:\Metin2 Server Files\mainline\SRC_2014\Metin2Client\GameLib\PropertyManager.cpp
;	COMDAT ?Initialize@CPropertyManager@@QAE_NPBD@Z
_TEXT	SEGMENT
$T2 = -52						; size = 4
$T3 = -48						; size = 4
_x$ = -44						; size = 4
_indexMap$4 = -40					; size = 4
_i$5 = -36						; size = 4
tv154 = -32						; size = 4
_pIndex$6 = -28						; size = 4
_itor$7 = -24						; size = 4
_this$ = -20						; size = 4
$T8 = -13						; size = 1
__$EHRec$ = -12						; size = 12
_c_pszPackFileName$ = 8					; size = 4
?Initialize@CPropertyManager@@QAE_NPBD@Z PROC		; CPropertyManager::Initialize, COMDAT
; _this$ = ecx

; 17   : {

  00000	55		 push	 ebp
  00001	8b ec		 mov	 ebp, esp
  00003	6a ff		 push	 -1
  00005	68 00 00 00 00	 push	 __ehhandler$?Initialize@CPropertyManager@@QAE_NPBD@Z
  0000a	64 a1 00 00 00
	00		 mov	 eax, DWORD PTR fs:0
  00010	50		 push	 eax
  00011	83 ec 28	 sub	 esp, 40			; 00000028H
  00014	a1 00 00 00 00	 mov	 eax, DWORD PTR ___security_cookie
  00019	33 c5		 xor	 eax, ebp
  0001b	50		 push	 eax
  0001c	8d 45 f4	 lea	 eax, DWORD PTR __$EHRec$[ebp]
  0001f	64 a3 00 00 00
	00		 mov	 DWORD PTR fs:0, eax
  00025	89 4d ec	 mov	 DWORD PTR _this$[ebp], ecx

; 18   : 	if (c_pszPackFileName)

  00028	83 7d 08 00	 cmp	 DWORD PTR _c_pszPackFileName$[ebp], 0
  0002c	0f 84 02 01 00
	00		 je	 $LN4@Initialize

; 19   : 	{
; 20   : 		if (!m_pack.Create(m_fileDict, c_pszPackFileName, "", true))

  00032	6a 00		 push	 0
  00034	6a 01		 push	 1
  00036	68 00 00 00 00	 push	 OFFSET ??_C@_00CNPNBAHC@@
  0003b	ff 75 08	 push	 DWORD PTR _c_pszPackFileName$[ebp]
  0003e	8b 45 ec	 mov	 eax, DWORD PTR _this$[ebp]
  00041	05 04 14 00 00	 add	 eax, 5124		; 00001404H
  00046	50		 push	 eax
  00047	8b 4d ec	 mov	 ecx, DWORD PTR _this$[ebp]
  0004a	83 c1 18	 add	 ecx, 24			; 00000018H
  0004d	e8 00 00 00 00	 call	 ?Create@CEterPack@@QAE_NAAVCEterFileDict@@PBD1_NPBE@Z ; CEterPack::Create
  00052	0f b6 c0	 movzx	 eax, al
  00055	85 c0		 test	 eax, eax
  00057	75 16		 jne	 SHORT $LN6@Initialize

; 21   : 		{
; 22   : 			LogBoxf("Cannot open property pack file (filename %s)", c_pszPackFileName);

  00059	ff 75 08	 push	 DWORD PTR _c_pszPackFileName$[ebp]
  0005c	68 00 00 00 00	 push	 OFFSET ??_C@_0CN@PCLFHBKL@Cannot?5open?5property?5pack?5file?5@
  00061	e8 00 00 00 00	 call	 ?LogBoxf@@YAXPBDZZ	; LogBoxf
  00066	59		 pop	 ecx
  00067	59		 pop	 ecx

; 23   : 			return false;

  00068	32 c0		 xor	 al, al
  0006a	e9 ce 00 00 00	 jmp	 $LN1@Initialize
$LN6@Initialize:

; 24   : 		}
; 25   : 
; 26   : 		m_isFileMode = false;

  0006f	8b 45 ec	 mov	 eax, DWORD PTR _this$[ebp]
  00072	c6 40 04 00	 mov	 BYTE PTR [eax+4], 0

; 27   : 
; 28   : 		TDataPositionMap & indexMap = m_pack.GetIndexMap();

  00076	8b 4d ec	 mov	 ecx, DWORD PTR _this$[ebp]
  00079	83 c1 18	 add	 ecx, 24			; 00000018H
  0007c	e8 00 00 00 00	 call	 ?GetIndexMap@CEterPack@@QAEAAV?$unordered_map@KPAUSEterPackIndex@@U?$hash@K@boost@@U?$equal_to@K@std@@V?$allocator@U?$pair@$$CBKPAUSEterPackIndex@@@std@@@5@@unordered@boost@@XZ ; CEterPack::GetIndexMap
  00081	89 45 d8	 mov	 DWORD PTR _indexMap$4[ebp], eax
; File D:\Metin2 Server Files\mainline\SRC_2014\M2Data\include\boost\unordered\unordered_map.hpp

; 193  :       iterator begin() BOOST_NOEXCEPT { return iterator(table_.begin()); }

  00084	83 65 fc 00	 and	 DWORD PTR __$EHRec$[ebp+8], 0
  00088	8b 4d d8	 mov	 ecx, DWORD PTR _indexMap$4[ebp]
  0008b	e8 00 00 00 00	 call	 ?begin@?$table@U?$map@V?$allocator@U?$pair@$$CBKPAUSEterPackIndex@@@std@@@std@@KPAUSEterPackIndex@@U?$hash@K@boost@@U?$equal_to@K@2@@detail@unordered@boost@@@detail@unordered@boost@@QBEPAU?$ptr_node@U?$pair@$$CBKPAUSEterPackIndex@@@std@@@234@XZ ; boost::unordered::detail::table<boost::unordered::detail::map<std::allocator<std::pair<unsigned long const ,SEterPackIndex *> >,unsigned long,SEterPackIndex *,boost::hash<unsigned long>,std::equal_to<unsigned long> > >::begin
  00090	89 45 d4	 mov	 DWORD PTR _x$[ebp], eax
; File D:\Metin2 Server Files\mainline\SRC_2014\M2Data\include\boost\unordered\detail\implementation.hpp

; 2371 :           : node_(static_cast<node_pointer>(x))

  00093	8b 45 d4	 mov	 eax, DWORD PTR _x$[ebp]
  00096	89 45 e8	 mov	 DWORD PTR _itor$7[ebp], eax
; File D:\Metin2 Server Files\mainline\SRC_2014\M2Data\include\boost\unordered\unordered_map.hpp

; 193  :       iterator begin() BOOST_NOEXCEPT { return iterator(table_.begin()); }

  00099	83 4d fc ff	 or	 DWORD PTR __$EHRec$[ebp+8], -1
; File D:\Metin2 Server Files\mainline\SRC_2014\Metin2Client\GameLib\PropertyManager.cpp

; 34   : 		int i = 0;

  0009d	83 65 dc 00	 and	 DWORD PTR _i$5[ebp], 0
$LN2@Initialize:
; File D:\Metin2 Server Files\mainline\SRC_2014\M2Data\include\boost\unordered\detail\implementation.hpp

; 2368 :         iterator() BOOST_NOEXCEPT : node_() {}

  000a1	83 65 d0 00	 and	 DWORD PTR $T3[ebp], 0
; File D:\Metin2 Server Files\mainline\SRC_2014\M2Data\include\boost\unordered\unordered_map.hpp

; 200  :       iterator end() BOOST_NOEXCEPT { return iterator(); }

  000a5	8d 45 d0	 lea	 eax, DWORD PTR $T3[ebp]
  000a8	89 45 cc	 mov	 DWORD PTR $T2[ebp], eax
; File D:\Metin2 Server Files\mainline\SRC_2014\M2Data\include\boost\unordered\detail\implementation.hpp

; 2399 :           return node_ != x.node_;

  000ab	8b 45 cc	 mov	 eax, DWORD PTR $T2[ebp]
  000ae	8b 00		 mov	 eax, DWORD PTR [eax]
  000b0	3b 45 e8	 cmp	 eax, DWORD PTR _itor$7[ebp]
  000b3	74 09		 je	 SHORT $LN36@Initialize
  000b5	c7 45 e0 01 00
	00 00		 mov	 DWORD PTR tv154[ebp], 1
  000bc	eb 04		 jmp	 SHORT $LN37@Initialize
$LN36@Initialize:
  000be	83 65 e0 00	 and	 DWORD PTR tv154[ebp], 0
$LN37@Initialize:
  000c2	8a 45 e0	 mov	 al, BYTE PTR tv154[ebp]
  000c5	88 45 f3	 mov	 BYTE PTR $T8[ebp], al
; File D:\Metin2 Server Files\mainline\SRC_2014\Metin2Client\GameLib\PropertyManager.cpp

; 36   : 		while (indexMap.end() != itor)

  000c8	0f b6 45 f3	 movzx	 eax, BYTE PTR $T8[ebp]
  000cc	85 c0		 test	 eax, eax
  000ce	74 62		 je	 SHORT $LN3@Initialize

; 37   : 		{
; 38   : 			TEterPackIndex * pIndex = itor->second;

  000d0	8b 45 e8	 mov	 eax, DWORD PTR _itor$7[ebp]
  000d3	8b 40 0c	 mov	 eax, DWORD PTR [eax+12]
  000d6	89 45 e4	 mov	 DWORD PTR _pIndex$6[ebp], eax
; File D:\Metin2 Server Files\mainline\SRC_2014\M2Data\include\boost\unordered\detail\implementation.hpp

; 2381 :           node_ = static_cast<node_pointer>(node_->next_);

  000d9	8b 45 e8	 mov	 eax, DWORD PTR _itor$7[ebp]
  000dc	8b 00		 mov	 eax, DWORD PTR [eax]
  000de	89 45 e8	 mov	 DWORD PTR _itor$7[ebp], eax
; File D:\Metin2 Server Files\mainline\SRC_2014\Metin2Client\GameLib\PropertyManager.cpp

; 41   : 			if (!stricmp("property/reserve", pIndex->filename))

  000e1	8b 45 e4	 mov	 eax, DWORD PTR _pIndex$6[ebp]
  000e4	83 c0 04	 add	 eax, 4
  000e7	50		 push	 eax
  000e8	68 00 00 00 00	 push	 OFFSET ??_C@_0BB@FGKGEGON@property?1reserve@
  000ed	e8 00 00 00 00	 call	 __stricmp
  000f2	59		 pop	 ecx
  000f3	59		 pop	 ecx
  000f4	85 c0		 test	 eax, eax
  000f6	75 11		 jne	 SHORT $LN7@Initialize

; 42   : 			{
; 43   : 				LoadReservedCRC(pIndex->filename);

  000f8	8b 45 e4	 mov	 eax, DWORD PTR _pIndex$6[ebp]
  000fb	83 c0 04	 add	 eax, 4
  000fe	50		 push	 eax
  000ff	8b 4d ec	 mov	 ecx, DWORD PTR _this$[ebp]
  00102	e8 00 00 00 00	 call	 ?LoadReservedCRC@CPropertyManager@@QAE_NPBD@Z ; CPropertyManager::LoadReservedCRC

; 44   : 				continue;

  00107	eb 98		 jmp	 SHORT $LN2@Initialize
$LN7@Initialize:

; 45   : 			}
; 46   : 
; 47   : 			if (!Register(pIndex->filename))

  00109	6a 00		 push	 0
  0010b	8b 45 e4	 mov	 eax, DWORD PTR _pIndex$6[ebp]
  0010e	83 c0 04	 add	 eax, 4
  00111	50		 push	 eax
  00112	8b 4d ec	 mov	 ecx, DWORD PTR _this$[ebp]
  00115	e8 00 00 00 00	 call	 ?Register@CPropertyManager@@QAE_NPBDPAPAVCProperty@@@Z ; CPropertyManager::Register
  0011a	0f b6 c0	 movzx	 eax, al
  0011d	85 c0		 test	 eax, eax
  0011f	75 05		 jne	 SHORT $LN8@Initialize

; 48   : 				continue;

  00121	e9 7b ff ff ff	 jmp	 $LN2@Initialize
$LN8@Initialize:

; 49   : 
; 50   : 			++i;

  00126	8b 45 dc	 mov	 eax, DWORD PTR _i$5[ebp]
  00129	40		 inc	 eax
  0012a	89 45 dc	 mov	 DWORD PTR _i$5[ebp], eax

; 51   : 		}

  0012d	e9 6f ff ff ff	 jmp	 $LN2@Initialize
$LN3@Initialize:

; 52   : 	}

  00132	eb 07		 jmp	 SHORT $LN5@Initialize
$LN4@Initialize:

; 53   : 	else
; 54   : 	{
; 55   : 		m_isFileMode = true;

  00134	8b 45 ec	 mov	 eax, DWORD PTR _this$[ebp]
  00137	c6 40 04 01	 mov	 BYTE PTR [eax+4], 1
$LN5@Initialize:

; 56   : 		// NOTE :  Property  WorldEditor   ;
; 57   : 		//        , Property Tree List     .. - [levites]
; 58   : 	}
; 59   : 
; 60   : 	return true;

  0013b	b0 01		 mov	 al, 1
$LN1@Initialize:

; 61   : }

  0013d	8b 4d f4	 mov	 ecx, DWORD PTR __$EHRec$[ebp]
  00140	64 89 0d 00 00
	00 00		 mov	 DWORD PTR fs:0, ecx
  00147	59		 pop	 ecx
  00148	c9		 leave
  00149	c2 04 00	 ret	 4
  0014c	cc		 int	 3
  0014d	cc		 int	 3
  0014e	cc		 int	 3
  0014f	cc		 int	 3
  00150	cc		 int	 3
_TEXT	ENDS
;	COMDAT text$x
text$x	SEGMENT
__ehhandler$?Initialize@CPropertyManager@@QAE_NPBD@Z:
  00000	90		 npad	 1
  00001	90		 npad	 1
  00002	8b 54 24 08	 mov	 edx, DWORD PTR [esp+8]
  00006	8d 42 0c	 lea	 eax, DWORD PTR [edx+12]
  00009	8b 4a d4	 mov	 ecx, DWORD PTR [edx-44]
  0000c	33 c8		 xor	 ecx, eax
  0000e	e8 00 00 00 00	 call	 @__security_check_cookie@4
  00013	b8 00 00 00 00	 mov	 eax, OFFSET __ehfuncinfo$?Initialize@CPropertyManager@@QAE_NPBD@Z
  00018	e9 00 00 00 00	 jmp	 ___CxxFrameHandler3
text$x	ENDS
?Initialize@CPropertyManager@@QAE_NPBD@Z ENDP		; CPropertyManager::Initialize
; Function compile flags: /Odspy
; File D:\Metin2 Server Files\mainline\SRC_2014\Metin2Client\GameLib\PropertyManager.cpp
; File C:\Program Files (x86)\Microsoft Visual Studio\2019\Community\VC\Tools\MSVC\14.28.29333\include\xstring
; File D:\Metin2 Server Files\mainline\SRC_2014\Metin2Client\GameLib\PropertyManager.cpp
; File C:\Program Files (x86)\Microsoft Visual Studio\2019\Community\VC\Tools\MSVC\14.28.29333\include\xtree
; File C:\Program Files (x86)\Microsoft Visual Studio\2019\Community\VC\Tools\MSVC\14.28.29333\include\xstddef
; File C:\Program Files (x86)\Microsoft Visual Studio\2019\Community\VC\Tools\MSVC\14.28.29333\include\xtree
; File D:\Metin2 Server Files\mainline\SRC_2014\Metin2Client\GameLib\PropertyManager.cpp
; File C:\Program Files (x86)\Microsoft Visual Studio\2019\Community\VC\Tools\MSVC\14.28.29333\include\xtree
; File C:\Program Files (x86)\Microsoft Visual Studio\2019\Community\VC\Tools\MSVC\14.28.29333\include\xstddef
; File C:\Program Files (x86)\Microsoft Visual Studio\2019\Community\VC\Tools\MSVC\14.28.29333\include\xtree
; File D:\Metin2 Server Files\mainline\SRC_2014\Metin2Client\GameLib\PropertyManager.cpp
; File C:\Program Files (x86)\Microsoft Visual Studio\2019\Community\VC\Tools\MSVC\14.28.29333\include\xtree
; File C:\Program Files (x86)\Microsoft Visual Studio\2019\Community\VC\Tools\MSVC\14.28.29333\include\xstddef
; File C:\Program Files (x86)\Microsoft Visual Studio\2019\Community\VC\Tools\MSVC\14.28.29333\include\xtree
; File D:\Metin2 Server Files\mainline\SRC_2014\Metin2Client\GameLib\PropertyManager.cpp
; File C:\Program Files (x86)\Microsoft Visual Studio\2019\Community\VC\Tools\MSVC\14.28.29333\include\xtree
; File C:\Program Files (x86)\Microsoft Visual Studio\2019\Community\VC\Tools\MSVC\14.28.29333\include\xstddef
; File C:\Program Files (x86)\Microsoft Visual Studio\2019\Community\VC\Tools\MSVC\14.28.29333\include\xtree
; File D:\Metin2 Server Files\mainline\SRC_2014\Metin2Client\GameLib\PropertyManager.cpp
; File C:\Program Files (x86)\Microsoft Visual Studio\2019\Community\VC\Tools\MSVC\14.28.29333\include\xstring
; File D:\Metin2 Server Files\mainline\SRC_2014\Metin2Client\GameLib\PropertyManager.cpp
; File C:\Program Files (x86)\Microsoft Visual Studio\2019\Community\VC\Tools\MSVC\14.28.29333\include\xstring
; File C:\Program Files (x86)\Microsoft Visual Studio\2019\Community\VC\Tools\MSVC\14.28.29333\include\xmemory
; File C:\Program Files (x86)\Microsoft Visual Studio\2019\Community\VC\Tools\MSVC\14.28.29333\include\xstring
; File D:\Metin2 Server Files\mainline\SRC_2014\Metin2Client\GameLib\PropertyManager.cpp
; File C:\Program Files (x86)\Microsoft Visual Studio\2019\Community\VC\Tools\MSVC\14.28.29333\include\xstring
; File D:\Metin2 Server Files\mainline\SRC_2014\Metin2Client\GameLib\PropertyManager.cpp
;	COMDAT ?GetUniqueCRC@CPropertyManager@@QAEKPBD@Z
_TEXT	SEGMENT
$T2 = -44						; size = 4
$T3 = -40						; size = 4
$T4 = -36						; size = 4
$T5 = -32						; size = 4
$T6 = -28						; size = 4
$T7 = -24						; size = 4
$T8 = -20						; size = 4
___param0$ = -16					; size = 4
__$EHRec$ = -12						; size = 12
$T9 = 0							; size = 4
$T10 = 4						; size = 4
___param0$ = 8						; size = 4
__Scary$11 = 12						; size = 4
$T12 = 16						; size = 4
$T13 = 20						; size = 4
$T14 = 24						; size = 4
___param0$ = 28						; size = 4
$T15 = 32						; size = 4
$T16 = 36						; size = 4
___param0$ = 40						; size = 4
__Scary$17 = 44						; size = 4
$T18 = 48						; size = 4
$T19 = 52						; size = 4
tv339 = 56						; size = 4
_this$ = 60						; size = 4
tv206 = 64						; size = 4
_this$ = 68						; size = 4
_dwCRC$20 = 72						; size = 4
_this$ = 76						; size = 4
_szAdd$21 = 80						; size = 2
$T22 = 86						; size = 1
$T23 = 87						; size = 1
_stTmp$ = 88						; size = 24
__$ArrayPad$ = 112					; size = 4
_c_szSeed$ = 124					; size = 4
?GetUniqueCRC@CPropertyManager@@QAEKPBD@Z PROC		; CPropertyManager::GetUniqueCRC, COMDAT
; _this$ = ecx

; 120  : {

  00000	55		 push	 ebp
  00001	8d 6c 24 8c	 lea	 ebp, DWORD PTR [esp-116]
  00005	83 ec 74	 sub	 esp, 116		; 00000074H
  00008	6a ff		 push	 -1
  0000a	68 00 00 00 00	 push	 __ehhandler$?GetUniqueCRC@CPropertyManager@@QAEKPBD@Z
  0000f	64 a1 00 00 00
	00		 mov	 eax, DWORD PTR fs:0
  00015	50		 push	 eax
  00016	83 ec 20	 sub	 esp, 32			; 00000020H
  00019	a1 00 00 00 00	 mov	 eax, DWORD PTR ___security_cookie
  0001e	33 c5		 xor	 eax, ebp
  00020	89 45 70	 mov	 DWORD PTR __$ArrayPad$[ebp], eax
  00023	50		 push	 eax
  00024	8d 45 f4	 lea	 eax, DWORD PTR __$EHRec$[ebp]
  00027	64 a3 00 00 00
	00		 mov	 DWORD PTR fs:0, eax
  0002d	89 4d 4c	 mov	 DWORD PTR _this$[ebp], ecx

; 121  : 	std::string stTmp = c_szSeed;

  00030	ff 75 7c	 push	 DWORD PTR _c_szSeed$[ebp]
  00033	8d 4d 58	 lea	 ecx, DWORD PTR _stTmp$[ebp]
  00036	e8 00 00 00 00	 call	 ??0?$basic_string@DU?$char_traits@D@std@@V?$allocator@D@2@@std@@QAE@QBD@Z ; std::basic_string<char,std::char_traits<char>,std::allocator<char> >::basic_string<char,std::char_traits<char>,std::allocator<char> >
  0003b	83 65 fc 00	 and	 DWORD PTR __$EHRec$[ebp+8], 0
$LN2@GetUniqueC:

; 122  : 
; 123  : 	while (1)

  0003f	33 c0		 xor	 eax, eax
  00041	40		 inc	 eax
  00042	0f 84 62 01 00
	00		 je	 $LN3@GetUniqueC
; File C:\Program Files (x86)\Microsoft Visual Studio\2019\Community\VC\Tools\MSVC\14.28.29333\include\xstring

; 3766 :         return _Mypair._Myval2._Mysize;

  00048	8b 45 68	 mov	 eax, DWORD PTR _stTmp$[ebp+16]
  0004b	89 45 34	 mov	 DWORD PTR $T19[ebp], eax
; File D:\Metin2 Server Files\mainline\SRC_2014\Metin2Client\GameLib\PropertyManager.cpp

; 125  : 		DWORD dwCRC = GetCRC32(stTmp.c_str(), stTmp.length());

  0004e	ff 75 34	 push	 DWORD PTR $T19[ebp]
  00051	8d 4d 58	 lea	 ecx, DWORD PTR _stTmp$[ebp]
  00054	e8 00 00 00 00	 call	 ?c_str@?$basic_string@DU?$char_traits@D@std@@V?$allocator@D@2@@std@@QBEPBDXZ ; std::basic_string<char,std::char_traits<char>,std::allocator<char> >::c_str
  00059	50		 push	 eax
  0005a	e8 00 00 00 00	 call	 ?GetCRC32@@YAKPBDI@Z	; GetCRC32
  0005f	59		 pop	 ecx
  00060	59		 pop	 ecx
  00061	89 45 48	 mov	 DWORD PTR _dwCRC$20[ebp], eax
; File C:\Program Files (x86)\Microsoft Visual Studio\2019\Community\VC\Tools\MSVC\14.28.29333\include\xtree

; 2047 :         return _STD addressof(_Mypair._Myval2._Myval2);

  00064	8b 45 4c	 mov	 eax, DWORD PTR _this$[ebp]
  00067	83 c0 10	 add	 eax, 16			; 00000010H
; File C:\Program Files (x86)\Microsoft Visual Studio\2019\Community\VC\Tools\MSVC\14.28.29333\include\xstddef

; 275  :     return __builtin_addressof(_Val);

  0006a	89 45 30	 mov	 DWORD PTR $T18[ebp], eax
; File C:\Program Files (x86)\Microsoft Visual Studio\2019\Community\VC\Tools\MSVC\14.28.29333\include\xtree

; 2047 :         return _STD addressof(_Mypair._Myval2._Myval2);

  0006d	8b 45 30	 mov	 eax, DWORD PTR $T18[ebp]
  00070	89 45 2c	 mov	 DWORD PTR __Scary$17[ebp], eax

; 1250 :         return iterator(_Scary->_Myhead, _Scary);

  00073	8b 45 2c	 mov	 eax, DWORD PTR __Scary$17[ebp]
  00076	8b 00		 mov	 eax, DWORD PTR [eax]
  00078	89 45 28	 mov	 DWORD PTR ___param0$[ebp], eax

; 39   :     _Tree_unchecked_const_iterator(_Nodeptr _Pnode, const _Mytree* _Plist) noexcept : _Ptr(_Pnode) {

  0007b	8b 45 28	 mov	 eax, DWORD PTR ___param0$[ebp]
  0007e	89 45 24	 mov	 DWORD PTR $T16[ebp], eax

; 1250 :         return iterator(_Scary->_Myhead, _Scary);

  00081	8d 45 24	 lea	 eax, DWORD PTR $T16[ebp]
  00084	89 45 18	 mov	 DWORD PTR $T14[ebp], eax
; File D:\Metin2 Server Files\mainline\SRC_2014\Metin2Client\GameLib\PropertyManager.cpp

; 127  : 		if (m_ReservedCRCSet.find(dwCRC) == m_ReservedCRCSet.end() &&

  00087	8b 45 4c	 mov	 eax, DWORD PTR _this$[ebp]
  0008a	83 c0 10	 add	 eax, 16			; 00000010H
  0008d	89 45 44	 mov	 DWORD PTR _this$[ebp], eax
; File C:\Program Files (x86)\Microsoft Visual Studio\2019\Community\VC\Tools\MSVC\14.28.29333\include\xtree

; 2047 :         return _STD addressof(_Mypair._Myval2._Myval2);

  00090	8b 45 44	 mov	 eax, DWORD PTR _this$[ebp]
; File C:\Program Files (x86)\Microsoft Visual Studio\2019\Community\VC\Tools\MSVC\14.28.29333\include\xstddef

; 275  :     return __builtin_addressof(_Val);

  00093	89 45 20	 mov	 DWORD PTR $T15[ebp], eax
; File C:\Program Files (x86)\Microsoft Visual Studio\2019\Community\VC\Tools\MSVC\14.28.29333\include\xtree

; 2047 :         return _STD addressof(_Mypair._Myval2._Myval2);

  00096	8b 45 20	 mov	 eax, DWORD PTR $T15[ebp]
  00099	89 45 d8	 mov	 DWORD PTR $T3[ebp], eax

; 1468 :         return iterator(_Find(_Keyval), _Get_scary());

  0009c	8d 45 48	 lea	 eax, DWORD PTR _dwCRC$20[ebp]
  0009f	50		 push	 eax
  000a0	8b 4d 44	 mov	 ecx, DWORD PTR _this$[ebp]
  000a3	e8 00 00 00 00	 call	 ??$_Find@K@?$_Tree@V?$_Tset_traits@KU?$less@K@std@@V?$allocator@K@2@$0A@@std@@@std@@ABEPAU?$_Tree_node@KPAX@1@ABK@Z ; std::_Tree<std::_Tset_traits<unsigned long,std::less<unsigned long>,std::allocator<unsigned long>,0> >::_Find<unsigned long>
  000a8	89 45 1c	 mov	 DWORD PTR ___param0$[ebp], eax

; 39   :     _Tree_unchecked_const_iterator(_Nodeptr _Pnode, const _Mytree* _Plist) noexcept : _Ptr(_Pnode) {

  000ab	8b 45 1c	 mov	 eax, DWORD PTR ___param0$[ebp]
  000ae	89 45 14	 mov	 DWORD PTR $T13[ebp], eax

; 232  :         return this->_Ptr == _Right._Ptr;

  000b1	8b 45 18	 mov	 eax, DWORD PTR $T14[ebp]
  000b4	8b 4d 14	 mov	 ecx, DWORD PTR $T13[ebp]
  000b7	3b 08		 cmp	 ecx, DWORD PTR [eax]
  000b9	75 09		 jne	 SHORT $LN110@GetUniqueC
  000bb	c7 45 40 01 00
	00 00		 mov	 DWORD PTR tv206[ebp], 1
  000c2	eb 04		 jmp	 SHORT $LN111@GetUniqueC
$LN110@GetUniqueC:
  000c4	83 65 40 00	 and	 DWORD PTR tv206[ebp], 0
$LN111@GetUniqueC:
  000c8	8a 45 40	 mov	 al, BYTE PTR tv206[ebp]
  000cb	88 45 57	 mov	 BYTE PTR $T23[ebp], al
; File D:\Metin2 Server Files\mainline\SRC_2014\Metin2Client\GameLib\PropertyManager.cpp

; 127  : 		if (m_ReservedCRCSet.find(dwCRC) == m_ReservedCRCSet.end() &&

  000ce	0f b6 45 57	 movzx	 eax, BYTE PTR $T23[ebp]
  000d2	85 c0		 test	 eax, eax
  000d4	0f 84 89 00 00
	00		 je	 $LN4@GetUniqueC
; File C:\Program Files (x86)\Microsoft Visual Studio\2019\Community\VC\Tools\MSVC\14.28.29333\include\xtree

; 2047 :         return _STD addressof(_Mypair._Myval2._Myval2);

  000da	8b 45 4c	 mov	 eax, DWORD PTR _this$[ebp]
  000dd	83 c0 08	 add	 eax, 8
; File C:\Program Files (x86)\Microsoft Visual Studio\2019\Community\VC\Tools\MSVC\14.28.29333\include\xstddef

; 275  :     return __builtin_addressof(_Val);

  000e0	89 45 10	 mov	 DWORD PTR $T12[ebp], eax
; File C:\Program Files (x86)\Microsoft Visual Studio\2019\Community\VC\Tools\MSVC\14.28.29333\include\xtree

; 2047 :         return _STD addressof(_Mypair._Myval2._Myval2);

  000e3	8b 45 10	 mov	 eax, DWORD PTR $T12[ebp]
  000e6	89 45 0c	 mov	 DWORD PTR __Scary$11[ebp], eax

; 1250 :         return iterator(_Scary->_Myhead, _Scary);

  000e9	8b 45 0c	 mov	 eax, DWORD PTR __Scary$11[ebp]
  000ec	8b 00		 mov	 eax, DWORD PTR [eax]
  000ee	89 45 08	 mov	 DWORD PTR ___param0$[ebp], eax

; 39   :     _Tree_unchecked_const_iterator(_Nodeptr _Pnode, const _Mytree* _Plist) noexcept : _Ptr(_Pnode) {

  000f1	8b 45 08	 mov	 eax, DWORD PTR ___param0$[ebp]
  000f4	89 45 04	 mov	 DWORD PTR $T10[ebp], eax

; 1250 :         return iterator(_Scary->_Myhead, _Scary);

  000f7	8d 45 04	 lea	 eax, DWORD PTR $T10[ebp]
  000fa	89 45 ec	 mov	 DWORD PTR $T8[ebp], eax
; File D:\Metin2 Server Files\mainline\SRC_2014\Metin2Client\GameLib\PropertyManager.cpp

; 127  : 		if (m_ReservedCRCSet.find(dwCRC) == m_ReservedCRCSet.end() &&

  000fd	8b 45 4c	 mov	 eax, DWORD PTR _this$[ebp]
  00100	83 c0 08	 add	 eax, 8
  00103	89 45 3c	 mov	 DWORD PTR _this$[ebp], eax
; File C:\Program Files (x86)\Microsoft Visual Studio\2019\Community\VC\Tools\MSVC\14.28.29333\include\xtree

; 2047 :         return _STD addressof(_Mypair._Myval2._Myval2);

  00106	8b 45 3c	 mov	 eax, DWORD PTR _this$[ebp]
; File C:\Program Files (x86)\Microsoft Visual Studio\2019\Community\VC\Tools\MSVC\14.28.29333\include\xstddef

; 275  :     return __builtin_addressof(_Val);

  00109	89 45 00	 mov	 DWORD PTR $T9[ebp], eax
; File C:\Program Files (x86)\Microsoft Visual Studio\2019\Community\VC\Tools\MSVC\14.28.29333\include\xtree

; 2047 :         return _STD addressof(_Mypair._Myval2._Myval2);

  0010c	8b 45 00	 mov	 eax, DWORD PTR $T9[ebp]
  0010f	89 45 d4	 mov	 DWORD PTR $T2[ebp], eax

; 1468 :         return iterator(_Find(_Keyval), _Get_scary());

  00112	8d 45 48	 lea	 eax, DWORD PTR _dwCRC$20[ebp]
  00115	50		 push	 eax
  00116	8b 4d 3c	 mov	 ecx, DWORD PTR _this$[ebp]
  00119	e8 00 00 00 00	 call	 ??$_Find@K@?$_Tree@V?$_Tmap_traits@KPAVCProperty@@U?$less@K@std@@V?$allocator@U?$pair@$$CBKPAVCProperty@@@std@@@3@$0A@@std@@@std@@ABEPAU?$_Tree_node@U?$pair@$$CBKPAVCProperty@@@std@@PAX@1@ABK@Z ; std::_Tree<std::_Tmap_traits<unsigned long,CProperty *,std::less<unsigned long>,std::allocator<std::pair<unsigned long const ,CProperty *> >,0> >::_Find<unsigned long>
  0011e	89 45 f0	 mov	 DWORD PTR ___param0$[ebp], eax

; 39   :     _Tree_unchecked_const_iterator(_Nodeptr _Pnode, const _Mytree* _Plist) noexcept : _Ptr(_Pnode) {

  00121	8b 45 f0	 mov	 eax, DWORD PTR ___param0$[ebp]
  00124	89 45 e8	 mov	 DWORD PTR $T7[ebp], eax

; 232  :         return this->_Ptr == _Right._Ptr;

  00127	8b 45 ec	 mov	 eax, DWORD PTR $T8[ebp]
  0012a	8b 4d e8	 mov	 ecx, DWORD PTR $T7[ebp]
  0012d	3b 08		 cmp	 ecx, DWORD PTR [eax]
  0012f	75 09		 jne	 SHORT $LN181@GetUniqueC
  00131	c7 45 38 01 00
	00 00		 mov	 DWORD PTR tv339[ebp], 1
  00138	eb 04		 jmp	 SHORT $LN182@GetUniqueC
$LN181@GetUniqueC:
  0013a	83 65 38 00	 and	 DWORD PTR tv339[ebp], 0
$LN182@GetUniqueC:
  0013e	8a 45 38	 mov	 al, BYTE PTR tv339[ebp]
  00141	88 45 56	 mov	 BYTE PTR $T22[ebp], al
; File D:\Metin2 Server Files\mainline\SRC_2014\Metin2Client\GameLib\PropertyManager.cpp

; 127  : 		if (m_ReservedCRCSet.find(dwCRC) == m_ReservedCRCSet.end() &&

  00144	0f b6 45 56	 movzx	 eax, BYTE PTR $T22[ebp]
  00148	85 c0		 test	 eax, eax
  0014a	74 17		 je	 SHORT $LN4@GetUniqueC

; 129  : 			return dwCRC;

  0014c	8b 45 48	 mov	 eax, DWORD PTR _dwCRC$20[ebp]
  0014f	89 45 e4	 mov	 DWORD PTR $T6[ebp], eax
  00152	83 4d fc ff	 or	 DWORD PTR __$EHRec$[ebp+8], -1
; File C:\Program Files (x86)\Microsoft Visual Studio\2019\Community\VC\Tools\MSVC\14.28.29333\include\xstring

; 2801 :         _Tidy_deallocate();

  00156	8d 4d 58	 lea	 ecx, DWORD PTR _stTmp$[ebp]
  00159	e8 00 00 00 00	 call	 ?_Tidy_deallocate@?$basic_string@DU?$char_traits@D@std@@V?$allocator@D@2@@std@@AAEXXZ ; std::basic_string<char,std::char_traits<char>,std::allocator<char> >::_Tidy_deallocate
; File D:\Metin2 Server Files\mainline\SRC_2014\Metin2Client\GameLib\PropertyManager.cpp

; 129  : 			return dwCRC;

  0015e	8b 45 e4	 mov	 eax, DWORD PTR $T6[ebp]
  00161	eb 53		 jmp	 SHORT $LN1@GetUniqueC
$LN4@GetUniqueC:

; 130  : 
; 131  : 		char szAdd[2];
; 132  : 		_snprintf(szAdd, sizeof(szAdd), "%d", random() % 10);

  00163	e8 00 00 00 00	 call	 ?random@@YAKXZ		; random
  00168	33 d2		 xor	 edx, edx
  0016a	6a 0a		 push	 10			; 0000000aH
  0016c	59		 pop	 ecx
  0016d	f7 f1		 div	 ecx
  0016f	52		 push	 edx
  00170	68 00 00 00 00	 push	 OFFSET ??_C@_02DPKJAMEF@?$CFd@
  00175	6a 02		 push	 2
  00177	8d 45 50	 lea	 eax, DWORD PTR _szAdd$21[ebp]
  0017a	50		 push	 eax
  0017b	e8 00 00 00 00	 call	 __snprintf
  00180	83 c4 10	 add	 esp, 16			; 00000010H
; File C:\Program Files (x86)\Microsoft Visual Studio\2019\Community\VC\Tools\MSVC\14.28.29333\include\xstring

; 389  :         return _CSTD strlen(reinterpret_cast<const char*>(_First));

  00183	8d 45 50	 lea	 eax, DWORD PTR _szAdd$21[ebp]
  00186	50		 push	 eax
  00187	e8 00 00 00 00	 call	 _strlen
  0018c	59		 pop	 ecx
  0018d	89 45 e0	 mov	 DWORD PTR $T5[ebp], eax
; File C:\Program Files (x86)\Microsoft Visual Studio\2019\Community\VC\Tools\MSVC\14.28.29333\include\xmemory

; 997  :     return _Len;

  00190	8b 45 e0	 mov	 eax, DWORD PTR $T5[ebp]
  00193	89 45 dc	 mov	 DWORD PTR $T4[ebp], eax
; File C:\Program Files (x86)\Microsoft Visual Studio\2019\Community\VC\Tools\MSVC\14.28.29333\include\xstring

; 2958 :         return append(_Ptr, _Convert_size<size_type>(_Traits::length(_Ptr)));

  00196	ff 75 dc	 push	 DWORD PTR $T4[ebp]
  00199	8d 45 50	 lea	 eax, DWORD PTR _szAdd$21[ebp]
  0019c	50		 push	 eax
  0019d	8d 4d 58	 lea	 ecx, DWORD PTR _stTmp$[ebp]
  001a0	e8 00 00 00 00	 call	 ?append@?$basic_string@DU?$char_traits@D@std@@V?$allocator@D@2@@std@@QAEAAV12@QBDI@Z ; std::basic_string<char,std::char_traits<char>,std::allocator<char> >::append
; File D:\Metin2 Server Files\mainline\SRC_2014\Metin2Client\GameLib\PropertyManager.cpp

; 134  : 	}

  001a5	e9 95 fe ff ff	 jmp	 $LN2@GetUniqueC
$LN3@GetUniqueC:

; 135  : }

  001aa	83 4d fc ff	 or	 DWORD PTR __$EHRec$[ebp+8], -1
; File C:\Program Files (x86)\Microsoft Visual Studio\2019\Community\VC\Tools\MSVC\14.28.29333\include\xstring

; 2801 :         _Tidy_deallocate();

  001ae	8d 4d 58	 lea	 ecx, DWORD PTR _stTmp$[ebp]
  001b1	e8 00 00 00 00	 call	 ?_Tidy_deallocate@?$basic_string@DU?$char_traits@D@std@@V?$allocator@D@2@@std@@AAEXXZ ; std::basic_string<char,std::char_traits<char>,std::allocator<char> >::_Tidy_deallocate
$LN1@GetUniqueC:
; File D:\Metin2 Server Files\mainline\SRC_2014\Metin2Client\GameLib\PropertyManager.cpp

; 135  : }

  001b6	8b 4d f4	 mov	 ecx, DWORD PTR __$EHRec$[ebp]
  001b9	64 89 0d 00 00
	00 00		 mov	 DWORD PTR fs:0, ecx
  001c0	59		 pop	 ecx
  001c1	8b 4d 70	 mov	 ecx, DWORD PTR __$ArrayPad$[ebp]
  001c4	33 cd		 xor	 ecx, ebp
  001c6	e8 00 00 00 00	 call	 @__security_check_cookie@4
  001cb	83 c5 74	 add	 ebp, 116		; 00000074H
  001ce	c9		 leave
  001cf	c2 04 00	 ret	 4
_TEXT	ENDS
;	COMDAT text$x
text$x	SEGMENT
__unwindfunclet$?GetUniqueCRC@CPropertyManager@@QAEKPBD@Z$0:
  00000	8d 4d 58	 lea	 ecx, DWORD PTR _stTmp$[ebp]
  00003	e9 00 00 00 00	 jmp	 ??1?$basic_string@DU?$char_traits@D@std@@V?$allocator@D@2@@std@@QAE@XZ ; std::basic_string<char,std::char_traits<char>,std::allocator<char> >::~basic_string<char,std::char_traits<char>,std::allocator<char> >
  00008	cc		 int	 3
  00009	cc		 int	 3
  0000a	cc		 int	 3
  0000b	cc		 int	 3
  0000c	cc		 int	 3
__ehhandler$?GetUniqueCRC@CPropertyManager@@QAEKPBD@Z:
  0000d	90		 npad	 1
  0000e	90		 npad	 1
  0000f	8b 54 24 08	 mov	 edx, DWORD PTR [esp+8]
  00013	8d 42 0c	 lea	 eax, DWORD PTR [edx+12]
  00016	8b 4a dc	 mov	 ecx, DWORD PTR [edx-36]
  00019	33 c8		 xor	 ecx, eax
  0001b	e8 00 00 00 00	 call	 @__security_check_cookie@4
  00020	8b 4a 7c	 mov	 ecx, DWORD PTR [edx+124]
  00023	33 c8		 xor	 ecx, eax
  00025	e8 00 00 00 00	 call	 @__security_check_cookie@4
  0002a	b8 00 00 00 00	 mov	 eax, OFFSET __ehfuncinfo$?GetUniqueCRC@CPropertyManager@@QAEKPBD@Z
  0002f	e9 00 00 00 00	 jmp	 ___CxxFrameHandler3
text$x	ENDS
?GetUniqueCRC@CPropertyManager@@QAEKPBD@Z ENDP		; CPropertyManager::GetUniqueCRC
; Function compile flags: /Odspy
; File D:\Metin2 Server Files\mainline\SRC_2014\Metin2Client\GameLib\PropertyManager.cpp
;	COMDAT ?ReserveCRC@CPropertyManager@@QAEXK@Z
_TEXT	SEGMENT
$T1 = -12						; size = 8
_this$ = -4						; size = 4
_dwCRC$ = 8						; size = 4
?ReserveCRC@CPropertyManager@@QAEXK@Z PROC		; CPropertyManager::ReserveCRC, COMDAT
; _this$ = ecx

; 115  : {

  00000	55		 push	 ebp
  00001	8b ec		 mov	 ebp, esp
  00003	83 ec 0c	 sub	 esp, 12			; 0000000cH
  00006	89 4d fc	 mov	 DWORD PTR _this$[ebp], ecx

; 116  : 	m_ReservedCRCSet.insert(dwCRC);

  00009	8d 45 08	 lea	 eax, DWORD PTR _dwCRC$[ebp]
  0000c	50		 push	 eax
  0000d	8d 45 f4	 lea	 eax, DWORD PTR $T1[ebp]
  00010	50		 push	 eax
  00011	8b 4d fc	 mov	 ecx, DWORD PTR _this$[ebp]
  00014	83 c1 10	 add	 ecx, 16			; 00000010H
  00017	e8 00 00 00 00	 call	 ??$insert@$0A@$0A@@?$_Tree@V?$_Tset_traits@KU?$less@K@std@@V?$allocator@K@2@$0A@@std@@@std@@QAE?AU?$pair@V?$_Tree_const_iterator@V?$_Tree_val@U?$_Tree_simple_types@K@std@@@std@@@std@@_N@1@ABK@Z ; std::_Tree<std::_Tset_traits<unsigned long,std::less<unsigned long>,std::allocator<unsigned long>,0> >::insert<0,0>

; 117  : }

  0001c	c9		 leave
  0001d	c2 04 00	 ret	 4
?ReserveCRC@CPropertyManager@@QAEXK@Z ENDP		; CPropertyManager::ReserveCRC
_TEXT	ENDS
; Function compile flags: /Odspy
; File D:\Metin2 Server Files\mainline\SRC_2014\Metin2Client\GameLib\PropertyManager.cpp
; File D:\Metin2 Server Files\mainline\SRC_2014\Metin2Client\eterBase\Singleton.h
; File D:\Metin2 Server Files\mainline\SRC_2014\Metin2Client\GameLib\PropertyManager.cpp
;	COMDAT ?LoadReservedCRC@CPropertyManager@@QAE_NPBD@Z
_TEXT	SEGMENT
_textFileLoader$ = -52					; size = 16
_this$ = -36						; size = 4
_c_pvData$ = -32					; size = 4
$T2 = -28						; size = 4
_pszLine$3 = -24					; size = 4
_i$4 = -20						; size = 4
$T5 = -14						; size = 1
$T6 = -13						; size = 1
__$EHRec$ = -12						; size = 12
_file$ = 0						; size = 324
__$ArrayPad$ = 324					; size = 4
_c_pszFileName$ = 336					; size = 4
?LoadReservedCRC@CPropertyManager@@QAE_NPBD@Z PROC	; CPropertyManager::LoadReservedCRC, COMDAT
; _this$ = ecx

; 91   : {

  00000	55		 push	 ebp
  00001	8d ac 24 b8 fe
	ff ff		 lea	 ebp, DWORD PTR [esp-328]
  00008	81 ec 48 01 00
	00		 sub	 esp, 328		; 00000148H
  0000e	6a ff		 push	 -1
  00010	68 00 00 00 00	 push	 __ehhandler$?LoadReservedCRC@CPropertyManager@@QAE_NPBD@Z
  00015	64 a1 00 00 00
	00		 mov	 eax, DWORD PTR fs:0
  0001b	50		 push	 eax
  0001c	83 ec 28	 sub	 esp, 40			; 00000028H
  0001f	a1 00 00 00 00	 mov	 eax, DWORD PTR ___security_cookie
  00024	33 c5		 xor	 eax, ebp
  00026	89 85 44 01 00
	00		 mov	 DWORD PTR __$ArrayPad$[ebp], eax
  0002c	50		 push	 eax
  0002d	8d 45 f4	 lea	 eax, DWORD PTR __$EHRec$[ebp]
  00030	64 a3 00 00 00
	00		 mov	 DWORD PTR fs:0, eax
  00036	89 4d dc	 mov	 DWORD PTR _this$[ebp], ecx

; 92   : 	CMappedFile file;

  00039	8d 4d 00	 lea	 ecx, DWORD PTR _file$[ebp]
  0003c	e8 00 00 00 00	 call	 ??0CMappedFile@@QAE@XZ	; CMappedFile::CMappedFile
  00041	83 65 fc 00	 and	 DWORD PTR __$EHRec$[ebp+8], 0
; File D:\Metin2 Server Files\mainline\SRC_2014\Metin2Client\eterBase\Singleton.h

; 27   : 		return (*ms_singleton);

  00045	a1 00 00 00 00	 mov	 eax, DWORD PTR ?ms_singleton@?$CSingleton@VCEterPackManager@@@@0PAVCEterPackManager@@A ; CSingleton<CEterPackManager>::ms_singleton
  0004a	89 45 e4	 mov	 DWORD PTR $T2[ebp], eax
; File D:\Metin2 Server Files\mainline\SRC_2014\Metin2Client\GameLib\PropertyManager.cpp

; 95   : 	if (!CEterPackManager::Instance().Get(file, c_pszFileName, &c_pvData))

  0004d	8d 45 e0	 lea	 eax, DWORD PTR _c_pvData$[ebp]
  00050	50		 push	 eax
  00051	ff b5 50 01 00
	00		 push	 DWORD PTR _c_pszFileName$[ebp]
  00057	8d 45 00	 lea	 eax, DWORD PTR _file$[ebp]
  0005a	50		 push	 eax
  0005b	8b 4d e4	 mov	 ecx, DWORD PTR $T2[ebp]
  0005e	e8 00 00 00 00	 call	 ?Get@CEterPackManager@@QAE_NAAVCMappedFile@@PBDPAPBX@Z ; CEterPackManager::Get
  00063	0f b6 c0	 movzx	 eax, al
  00066	85 c0		 test	 eax, eax
  00068	75 18		 jne	 SHORT $LN5@LoadReserv

; 96   : 		return false;

  0006a	c6 45 f3 00	 mov	 BYTE PTR $T6[ebp], 0
  0006e	83 4d fc ff	 or	 DWORD PTR __$EHRec$[ebp+8], -1
  00072	8d 4d 00	 lea	 ecx, DWORD PTR _file$[ebp]
  00075	e8 00 00 00 00	 call	 ??1CMappedFile@@UAE@XZ	; CMappedFile::~CMappedFile
  0007a	8a 45 f3	 mov	 al, BYTE PTR $T6[ebp]
  0007d	e9 94 00 00 00	 jmp	 $LN1@LoadReserv
$LN5@LoadReserv:

; 97   : 	
; 98   : 	CMemoryTextFileLoader textFileLoader;

  00082	8d 4d cc	 lea	 ecx, DWORD PTR _textFileLoader$[ebp]
  00085	e8 00 00 00 00	 call	 ??0CMemoryTextFileLoader@@QAE@XZ ; CMemoryTextFileLoader::CMemoryTextFileLoader
  0008a	c6 45 fc 01	 mov	 BYTE PTR __$EHRec$[ebp+8], 1

; 99   : 	textFileLoader.Bind(file.Size(), c_pvData);

  0008e	ff 75 e0	 push	 DWORD PTR _c_pvData$[ebp]
  00091	8d 4d 00	 lea	 ecx, DWORD PTR _file$[ebp]
  00094	e8 00 00 00 00	 call	 ?Size@CMappedFile@@QAEKXZ ; CMappedFile::Size
  00099	50		 push	 eax
  0009a	8d 4d cc	 lea	 ecx, DWORD PTR _textFileLoader$[ebp]
  0009d	e8 00 00 00 00	 call	 ?Bind@CMemoryTextFileLoader@@QAEXHPBX@Z ; CMemoryTextFileLoader::Bind

; 100  : 
; 101  : 	for (DWORD i = 0; i < textFileLoader.GetLineCount(); ++i)

  000a2	83 65 ec 00	 and	 DWORD PTR _i$4[ebp], 0
  000a6	eb 07		 jmp	 SHORT $LN4@LoadReserv
$LN2@LoadReserv:
  000a8	8b 45 ec	 mov	 eax, DWORD PTR _i$4[ebp]
  000ab	40		 inc	 eax
  000ac	89 45 ec	 mov	 DWORD PTR _i$4[ebp], eax
$LN4@LoadReserv:
  000af	8d 4d cc	 lea	 ecx, DWORD PTR _textFileLoader$[ebp]
  000b2	e8 00 00 00 00	 call	 ?GetLineCount@CMemoryTextFileLoader@@QAEKXZ ; CMemoryTextFileLoader::GetLineCount
  000b7	39 45 ec	 cmp	 DWORD PTR _i$4[ebp], eax
  000ba	73 3b		 jae	 SHORT $LN3@LoadReserv

; 102  : 	{
; 103  : 		const char * pszLine = textFileLoader.GetLineString(i).c_str();

  000bc	ff 75 ec	 push	 DWORD PTR _i$4[ebp]
  000bf	8d 4d cc	 lea	 ecx, DWORD PTR _textFileLoader$[ebp]
  000c2	e8 00 00 00 00	 call	 ?GetLineString@CMemoryTextFileLoader@@QAEABV?$basic_string@DU?$char_traits@D@std@@V?$allocator@D@2@@std@@K@Z ; CMemoryTextFileLoader::GetLineString
  000c7	8b c8		 mov	 ecx, eax
  000c9	e8 00 00 00 00	 call	 ?c_str@?$basic_string@DU?$char_traits@D@std@@V?$allocator@D@2@@std@@QBEPBDXZ ; std::basic_string<char,std::char_traits<char>,std::allocator<char> >::c_str
  000ce	89 45 e8	 mov	 DWORD PTR _pszLine$3[ebp], eax

; 104  : 
; 105  : 		if (!pszLine || !*pszLine)

  000d1	83 7d e8 00	 cmp	 DWORD PTR _pszLine$3[ebp], 0
  000d5	74 0a		 je	 SHORT $LN7@LoadReserv
  000d7	8b 45 e8	 mov	 eax, DWORD PTR _pszLine$3[ebp]
  000da	0f be 00	 movsx	 eax, BYTE PTR [eax]
  000dd	85 c0		 test	 eax, eax
  000df	75 02		 jne	 SHORT $LN6@LoadReserv
$LN7@LoadReserv:

; 106  : 			continue;

  000e1	eb c5		 jmp	 SHORT $LN2@LoadReserv
$LN6@LoadReserv:

; 107  : 
; 108  : 		ReserveCRC(atoi(pszLine));

  000e3	ff 75 e8	 push	 DWORD PTR _pszLine$3[ebp]
  000e6	e8 00 00 00 00	 call	 __atoi64
  000eb	59		 pop	 ecx
  000ec	50		 push	 eax
  000ed	8b 4d dc	 mov	 ecx, DWORD PTR _this$[ebp]
  000f0	e8 00 00 00 00	 call	 ?ReserveCRC@CPropertyManager@@QAEXK@Z ; CPropertyManager::ReserveCRC

; 109  : 	}

  000f5	eb b1		 jmp	 SHORT $LN2@LoadReserv
$LN3@LoadReserv:

; 110  : 
; 111  : 	return true;

  000f7	c6 45 f2 01	 mov	 BYTE PTR $T5[ebp], 1
  000fb	c6 45 fc 00	 mov	 BYTE PTR __$EHRec$[ebp+8], 0
  000ff	8d 4d cc	 lea	 ecx, DWORD PTR _textFileLoader$[ebp]
  00102	e8 00 00 00 00	 call	 ??1CMemoryTextFileLoader@@UAE@XZ ; CMemoryTextFileLoader::~CMemoryTextFileLoader
  00107	83 4d fc ff	 or	 DWORD PTR __$EHRec$[ebp+8], -1
  0010b	8d 4d 00	 lea	 ecx, DWORD PTR _file$[ebp]
  0010e	e8 00 00 00 00	 call	 ??1CMappedFile@@UAE@XZ	; CMappedFile::~CMappedFile
  00113	8a 45 f2	 mov	 al, BYTE PTR $T5[ebp]
$LN1@LoadReserv:

; 112  : }

  00116	8b 4d f4	 mov	 ecx, DWORD PTR __$EHRec$[ebp]
  00119	64 89 0d 00 00
	00 00		 mov	 DWORD PTR fs:0, ecx
  00120	59		 pop	 ecx
  00121	8b 8d 44 01 00
	00		 mov	 ecx, DWORD PTR __$ArrayPad$[ebp]
  00127	33 cd		 xor	 ecx, ebp
  00129	e8 00 00 00 00	 call	 @__security_check_cookie@4
  0012e	81 c5 48 01 00
	00		 add	 ebp, 328		; 00000148H
  00134	c9		 leave
  00135	c2 04 00	 ret	 4
_TEXT	ENDS
;	COMDAT text$x
text$x	SEGMENT
__unwindfunclet$?LoadReservedCRC@CPropertyManager@@QAE_NPBD@Z$0:
  00000	8d 4d 00	 lea	 ecx, DWORD PTR _file$[ebp]
  00003	e9 00 00 00 00	 jmp	 ??1CMappedFile@@UAE@XZ	; CMappedFile::~CMappedFile
__unwindfunclet$?LoadReservedCRC@CPropertyManager@@QAE_NPBD@Z$1:
  00008	8d 4d cc	 lea	 ecx, DWORD PTR _textFileLoader$[ebp]
  0000b	e9 00 00 00 00	 jmp	 ??1CMemoryTextFileLoader@@UAE@XZ ; CMemoryTextFileLoader::~CMemoryTextFileLoader
  00010	cc		 int	 3
  00011	cc		 int	 3
  00012	cc		 int	 3
  00013	cc		 int	 3
  00014	cc		 int	 3
__ehhandler$?LoadReservedCRC@CPropertyManager@@QAE_NPBD@Z:
  00015	90		 npad	 1
  00016	90		 npad	 1
  00017	8b 54 24 08	 mov	 edx, DWORD PTR [esp+8]
  0001b	8d 42 0c	 lea	 eax, DWORD PTR [edx+12]
  0001e	8b 4a d4	 mov	 ecx, DWORD PTR [edx-44]
  00021	33 c8		 xor	 ecx, eax
  00023	e8 00 00 00 00	 call	 @__security_check_cookie@4
  00028	8b 8a 50 01 00
	00		 mov	 ecx, DWORD PTR [edx+336]
  0002e	33 c8		 xor	 ecx, eax
  00030	e8 00 00 00 00	 call	 @__security_check_cookie@4
  00035	b8 00 00 00 00	 mov	 eax, OFFSET __ehfuncinfo$?LoadReservedCRC@CPropertyManager@@QAE_NPBD@Z
  0003a	e9 00 00 00 00	 jmp	 ___CxxFrameHandler3
text$x	ENDS
?LoadReservedCRC@CPropertyManager@@QAE_NPBD@Z ENDP	; CPropertyManager::LoadReservedCRC
; Function compile flags: /Odspy
; File D:\Metin2 Server Files\mainline\SRC_2014\Metin2Client\GameLib\PropertyManager.cpp
; File C:\Program Files (x86)\Microsoft Visual Studio\2019\Community\VC\Tools\MSVC\14.28.29333\include\xstring
; File D:\Metin2 Server Files\mainline\SRC_2014\Metin2Client\GameLib\PropertyManager.cpp
;	COMDAT ?BuildPack@CPropertyManager@@QAE_NXZ
_TEXT	SEGMENT
_hFind$ = -20						; size = 4
_this$ = -16						; size = 4
__$EHRec$ = -12						; size = 12
_fdata$ = 0						; size = 320
$T2 = 320						; size = 24
_szSourceFileName$3 = 344				; size = 257
__$ArrayPad$ = 604					; size = 4
?BuildPack@CPropertyManager@@QAE_NXZ PROC		; CPropertyManager::BuildPack, COMDAT
; _this$ = ecx

; 64   : {

  00000	55		 push	 ebp
  00001	8d ac 24 a0 fd
	ff ff		 lea	 ebp, DWORD PTR [esp-608]
  00008	81 ec 60 02 00
	00		 sub	 esp, 608		; 00000260H
  0000e	6a ff		 push	 -1
  00010	68 00 00 00 00	 push	 __ehhandler$?BuildPack@CPropertyManager@@QAE_NXZ
  00015	64 a1 00 00 00
	00		 mov	 eax, DWORD PTR fs:0
  0001b	50		 push	 eax
  0001c	51		 push	 ecx
  0001d	51		 push	 ecx
  0001e	a1 00 00 00 00	 mov	 eax, DWORD PTR ___security_cookie
  00023	33 c5		 xor	 eax, ebp
  00025	89 85 5c 02 00
	00		 mov	 DWORD PTR __$ArrayPad$[ebp], eax
  0002b	50		 push	 eax
  0002c	8d 45 f4	 lea	 eax, DWORD PTR __$EHRec$[ebp]
  0002f	64 a3 00 00 00
	00		 mov	 DWORD PTR fs:0, eax
  00035	89 4d f0	 mov	 DWORD PTR _this$[ebp], ecx

; 65   : 	if (!m_pack.Create(m_fileDict, "property", ""))

  00038	6a 00		 push	 0
  0003a	6a 01		 push	 1
  0003c	68 00 00 00 00	 push	 OFFSET ??_C@_00CNPNBAHC@@
  00041	68 00 00 00 00	 push	 OFFSET ??_C@_08EMBNBNLN@property@
  00046	8b 45 f0	 mov	 eax, DWORD PTR _this$[ebp]
  00049	05 04 14 00 00	 add	 eax, 5124		; 00001404H
  0004e	50		 push	 eax
  0004f	8b 4d f0	 mov	 ecx, DWORD PTR _this$[ebp]
  00052	83 c1 18	 add	 ecx, 24			; 00000018H
  00055	e8 00 00 00 00	 call	 ?Create@CEterPack@@QAE_NAAVCEterFileDict@@PBD1_NPBE@Z ; CEterPack::Create
  0005a	0f b6 c0	 movzx	 eax, al
  0005d	85 c0		 test	 eax, eax
  0005f	75 07		 jne	 SHORT $LN5@BuildPack

; 66   : 		return false;

  00061	32 c0		 xor	 al, al
  00063	e9 a4 00 00 00	 jmp	 $LN1@BuildPack
$LN5@BuildPack:

; 67   : 
; 68   : 	WIN32_FIND_DATA fdata;
; 69   : 	HANDLE hFind = FindFirstFile("property\\*", &fdata);

  00068	8d 45 00	 lea	 eax, DWORD PTR _fdata$[ebp]
  0006b	50		 push	 eax
  0006c	68 00 00 00 00	 push	 OFFSET ??_C@_0L@DIKAOLMN@property?2?$CK@
  00071	ff 15 00 00 00
	00		 call	 DWORD PTR __imp__FindFirstFileA@8
  00077	89 45 ec	 mov	 DWORD PTR _hFind$[ebp], eax

; 70   : 
; 71   : 	if (hFind == INVALID_HANDLE_VALUE)

  0007a	83 7d ec ff	 cmp	 DWORD PTR _hFind$[ebp], -1
  0007e	75 07		 jne	 SHORT $LN4@BuildPack

; 72   : 		return false;

  00080	32 c0		 xor	 al, al
  00082	e9 85 00 00 00	 jmp	 $LN1@BuildPack
$LN4@BuildPack:

; 73   : 
; 74   : 	do
; 75   : 	{
; 76   : 		if (fdata.dwFileAttributes & FILE_ATTRIBUTE_DIRECTORY)

  00087	8b 45 00	 mov	 eax, DWORD PTR _fdata$[ebp]
  0008a	83 e0 10	 and	 eax, 16			; 00000010H
  0008d	74 02		 je	 SHORT $LN7@BuildPack

; 77   : 			continue;

  0008f	eb 5f		 jmp	 SHORT $LN2@BuildPack
$LN7@BuildPack:

; 78   : 
; 79   : 		char szSourceFileName[256 + 1];
; 80   : 		_snprintf(szSourceFileName, sizeof(szSourceFileName), "property\\%s", fdata.cFileName);

  00091	8d 45 2c	 lea	 eax, DWORD PTR _fdata$[ebp+44]
  00094	50		 push	 eax
  00095	68 00 00 00 00	 push	 OFFSET ??_C@_0M@OKKDHDOO@property?2?$CFs@
  0009a	68 01 01 00 00	 push	 257			; 00000101H
  0009f	8d 85 58 01 00
	00		 lea	 eax, DWORD PTR _szSourceFileName$3[ebp]
  000a5	50		 push	 eax
  000a6	e8 00 00 00 00	 call	 __snprintf
  000ab	83 c4 10	 add	 esp, 16			; 00000010H

; 81   : 
; 82   : 		m_pack.Put(fdata.cFileName, szSourceFileName,COMPRESSED_TYPE_NONE,"");

  000ae	68 00 00 00 00	 push	 OFFSET ??_C@_00CNPNBAHC@@
  000b3	8d 8d 40 01 00
	00		 lea	 ecx, DWORD PTR $T2[ebp]
  000b9	e8 00 00 00 00	 call	 ??0?$basic_string@DU?$char_traits@D@std@@V?$allocator@D@2@@std@@QAE@QBD@Z ; std::basic_string<char,std::char_traits<char>,std::allocator<char> >::basic_string<char,std::char_traits<char>,std::allocator<char> >
  000be	83 65 fc 00	 and	 DWORD PTR __$EHRec$[ebp+8], 0
  000c2	8d 85 40 01 00
	00		 lea	 eax, DWORD PTR $T2[ebp]
  000c8	50		 push	 eax
  000c9	6a 00		 push	 0
  000cb	8d 85 58 01 00
	00		 lea	 eax, DWORD PTR _szSourceFileName$3[ebp]
  000d1	50		 push	 eax
  000d2	8d 45 2c	 lea	 eax, DWORD PTR _fdata$[ebp+44]
  000d5	50		 push	 eax
  000d6	8b 4d f0	 mov	 ecx, DWORD PTR _this$[ebp]
  000d9	83 c1 18	 add	 ecx, 24			; 00000018H
  000dc	e8 00 00 00 00	 call	 ?Put@CEterPack@@QAE_NPBD0EABV?$basic_string@DU?$char_traits@D@std@@V?$allocator@D@2@@std@@@Z ; CEterPack::Put
  000e1	83 4d fc ff	 or	 DWORD PTR __$EHRec$[ebp+8], -1
; File C:\Program Files (x86)\Microsoft Visual Studio\2019\Community\VC\Tools\MSVC\14.28.29333\include\xstring

; 2801 :         _Tidy_deallocate();

  000e5	8d 8d 40 01 00
	00		 lea	 ecx, DWORD PTR $T2[ebp]
  000eb	e8 00 00 00 00	 call	 ?_Tidy_deallocate@?$basic_string@DU?$char_traits@D@std@@V?$allocator@D@2@@std@@AAEXXZ ; std::basic_string<char,std::char_traits<char>,std::allocator<char> >::_Tidy_deallocate
$LN2@BuildPack:
; File D:\Metin2 Server Files\mainline\SRC_2014\Metin2Client\GameLib\PropertyManager.cpp

; 84   : 	while (FindNextFile(hFind, &fdata));

  000f0	8d 45 00	 lea	 eax, DWORD PTR _fdata$[ebp]
  000f3	50		 push	 eax
  000f4	ff 75 ec	 push	 DWORD PTR _hFind$[ebp]
  000f7	ff 15 00 00 00
	00		 call	 DWORD PTR __imp__FindNextFileA@8
  000fd	85 c0		 test	 eax, eax
  000ff	75 86		 jne	 SHORT $LN4@BuildPack

; 85   : 
; 86   : 	FindClose(hFind);

  00101	ff 75 ec	 push	 DWORD PTR _hFind$[ebp]
  00104	ff 15 00 00 00
	00		 call	 DWORD PTR __imp__FindClose@4

; 87   : 	return true;

  0010a	b0 01		 mov	 al, 1
$LN1@BuildPack:

; 88   : }

  0010c	8b 4d f4	 mov	 ecx, DWORD PTR __$EHRec$[ebp]
  0010f	64 89 0d 00 00
	00 00		 mov	 DWORD PTR fs:0, ecx
  00116	59		 pop	 ecx
  00117	8b 8d 5c 02 00
	00		 mov	 ecx, DWORD PTR __$ArrayPad$[ebp]
  0011d	33 cd		 xor	 ecx, ebp
  0011f	e8 00 00 00 00	 call	 @__security_check_cookie@4
  00124	81 c5 60 02 00
	00		 add	 ebp, 608		; 00000260H
  0012a	c9		 leave
  0012b	c3		 ret	 0
_TEXT	ENDS
;	COMDAT text$x
text$x	SEGMENT
__unwindfunclet$?BuildPack@CPropertyManager@@QAE_NXZ$0:
  00000	8d 8d 40 01 00
	00		 lea	 ecx, DWORD PTR $T2[ebp]
  00006	e9 00 00 00 00	 jmp	 ??1?$basic_string@DU?$char_traits@D@std@@V?$allocator@D@2@@std@@QAE@XZ ; std::basic_string<char,std::char_traits<char>,std::allocator<char> >::~basic_string<char,std::char_traits<char>,std::allocator<char> >
  0000b	cc		 int	 3
  0000c	cc		 int	 3
  0000d	cc		 int	 3
  0000e	cc		 int	 3
  0000f	cc		 int	 3
__ehhandler$?BuildPack@CPropertyManager@@QAE_NXZ:
  00010	90		 npad	 1
  00011	90		 npad	 1
  00012	8b 54 24 08	 mov	 edx, DWORD PTR [esp+8]
  00016	8d 42 0c	 lea	 eax, DWORD PTR [edx+12]
  00019	8b 4a f4	 mov	 ecx, DWORD PTR [edx-12]
  0001c	33 c8		 xor	 ecx, eax
  0001e	e8 00 00 00 00	 call	 @__security_check_cookie@4
  00023	8b 8a 68 02 00
	00		 mov	 ecx, DWORD PTR [edx+616]
  00029	33 c8		 xor	 ecx, eax
  0002b	e8 00 00 00 00	 call	 @__security_check_cookie@4
  00030	b8 00 00 00 00	 mov	 eax, OFFSET __ehfuncinfo$?BuildPack@CPropertyManager@@QAE_NXZ
  00035	e9 00 00 00 00	 jmp	 ___CxxFrameHandler3
text$x	ENDS
?BuildPack@CPropertyManager@@QAE_NXZ ENDP		; CPropertyManager::BuildPack
; Function compile flags: /Odspy
; File D:\Metin2 Server Files\mainline\SRC_2014\Metin2Client\GameLib\PropertyManager.cpp
;	COMDAT ?Clear@CPropertyManager@@QAEXXZ
_TEXT	SEGMENT
_this$ = -4						; size = 4
?Clear@CPropertyManager@@QAEXXZ PROC			; CPropertyManager::Clear, COMDAT
; _this$ = ecx

; 253  : {

  00000	55		 push	 ebp
  00001	8b ec		 mov	 ebp, esp
  00003	51		 push	 ecx
  00004	89 4d fc	 mov	 DWORD PTR _this$[ebp], ecx

; 254  : 	stl_wipe_second(m_PropertyByCRCMap);

  00007	8b 45 fc	 mov	 eax, DWORD PTR _this$[ebp]
  0000a	83 c0 08	 add	 eax, 8
  0000d	50		 push	 eax
  0000e	e8 00 00 00 00	 call	 ??$stl_wipe_second@V?$map@KPAVCProperty@@U?$less@K@std@@V?$allocator@U?$pair@$$CBKPAVCProperty@@@std@@@3@@std@@@@YAXAAV?$map@KPAVCProperty@@U?$less@K@std@@V?$allocator@U?$pair@$$CBKPAVCProperty@@@std@@@3@@std@@@Z ; stl_wipe_second<std::map<unsigned long,CProperty *,std::less<unsigned long>,std::allocator<std::pair<unsigned long const ,CProperty *> > > >
  00013	59		 pop	 ecx

; 255  : }

  00014	c9		 leave
  00015	c3		 ret	 0
?Clear@CPropertyManager@@QAEXXZ ENDP			; CPropertyManager::Clear
_TEXT	ENDS
; Function compile flags: /Odspy
; File D:\Metin2 Server Files\mainline\SRC_2014\Metin2Client\GameLib\PropertyManager.cpp
; File D:\Metin2 Server Files\mainline\SRC_2014\Metin2Client\eterBase\Singleton.h
; File D:\Metin2 Server Files\mainline\SRC_2014\Metin2Client\GameLib\PropertyManager.cpp
;	COMDAT ??1CPropertyManager@@UAE@XZ
_TEXT	SEGMENT
_this$ = -16						; size = 4
__$EHRec$ = -12						; size = 12
??1CPropertyManager@@UAE@XZ PROC			; CPropertyManager::~CPropertyManager, COMDAT
; _this$ = ecx

; 12   : {

  00000	55		 push	 ebp
  00001	8b ec		 mov	 ebp, esp
  00003	6a ff		 push	 -1
  00005	68 00 00 00 00	 push	 __ehhandler$??1CPropertyManager@@UAE@XZ
  0000a	64 a1 00 00 00
	00		 mov	 eax, DWORD PTR fs:0
  00010	50		 push	 eax
  00011	51		 push	 ecx
  00012	a1 00 00 00 00	 mov	 eax, DWORD PTR ___security_cookie
  00017	33 c5		 xor	 eax, ebp
  00019	50		 push	 eax
  0001a	8d 45 f4	 lea	 eax, DWORD PTR __$EHRec$[ebp]
  0001d	64 a3 00 00 00
	00		 mov	 DWORD PTR fs:0, eax
  00023	89 4d f0	 mov	 DWORD PTR _this$[ebp], ecx
  00026	8b 45 f0	 mov	 eax, DWORD PTR _this$[ebp]
  00029	c7 00 00 00 00
	00		 mov	 DWORD PTR [eax], OFFSET ??_7CPropertyManager@@6B@

; 13   : 	Clear();

  0002f	8b 4d f0	 mov	 ecx, DWORD PTR _this$[ebp]
  00032	e8 00 00 00 00	 call	 ?Clear@CPropertyManager@@QAEXXZ ; CPropertyManager::Clear
  00037	8b 4d f0	 mov	 ecx, DWORD PTR _this$[ebp]
  0003a	81 c1 04 14 00
	00		 add	 ecx, 5124		; 00001404H
  00040	e8 00 00 00 00	 call	 ??1?$unordered_multimap@KUItem@CEterFileDict@@U?$hash@K@boost@@U?$equal_to@K@std@@V?$allocator@U?$pair@$$CBKUItem@CEterFileDict@@@std@@@6@@unordered@boost@@QAE@XZ ; boost::unordered::unordered_multimap<unsigned long,CEterFileDict::Item,boost::hash<unsigned long>,std::equal_to<unsigned long>,std::allocator<std::pair<unsigned long const ,CEterFileDict::Item> > >::~unordered_multimap<unsigned long,CEterFileDict::Item,boost::hash<unsigned long>,std::equal_to<unsigned long>,std::allocator<std::pair<unsigned long const ,CEterFileDict::Item> > >

; 14   : }

  00045	8b 4d f0	 mov	 ecx, DWORD PTR _this$[ebp]
  00048	83 c1 18	 add	 ecx, 24			; 00000018H
  0004b	e8 00 00 00 00	 call	 ??1CEterPack@@UAE@XZ	; CEterPack::~CEterPack
  00050	8b 4d f0	 mov	 ecx, DWORD PTR _this$[ebp]
  00053	83 c1 10	 add	 ecx, 16			; 00000010H
  00056	e8 00 00 00 00	 call	 ??1?$_Tree@V?$_Tset_traits@KU?$less@K@std@@V?$allocator@K@2@$0A@@std@@@std@@QAE@XZ ; std::_Tree<std::_Tset_traits<unsigned long,std::less<unsigned long>,std::allocator<unsigned long>,0> >::~_Tree<std::_Tset_traits<unsigned long,std::less<unsigned long>,std::allocator<unsigned long>,0> >
  0005b	8b 4d f0	 mov	 ecx, DWORD PTR _this$[ebp]
  0005e	83 c1 08	 add	 ecx, 8
  00061	e8 00 00 00 00	 call	 ??1?$_Tree@V?$_Tmap_traits@KPAVCProperty@@U?$less@K@std@@V?$allocator@U?$pair@$$CBKPAVCProperty@@@std@@@3@$0A@@std@@@std@@QAE@XZ ; std::_Tree<std::_Tmap_traits<unsigned long,CProperty *,std::less<unsigned long>,std::allocator<std::pair<unsigned long const ,CProperty *> >,0> >::~_Tree<std::_Tmap_traits<unsigned long,CProperty *,std::less<unsigned long>,std::allocator<std::pair<unsigned long const ,CProperty *> >,0> >
; File D:\Metin2 Server Files\mainline\SRC_2014\Metin2Client\eterBase\Singleton.h

; 19   : 	{ 

  00066	8b 45 f0	 mov	 eax, DWORD PTR _this$[ebp]
  00069	c7 00 00 00 00
	00		 mov	 DWORD PTR [eax], OFFSET ??_7?$CSingleton@VCPropertyManager@@@@6B@

; 20   : 		assert(ms_singleton);
; 21   : 		ms_singleton = 0; 

  0006f	83 25 00 00 00
	00 00		 and	 DWORD PTR ?ms_singleton@?$CSingleton@VCPropertyManager@@@@0PAVCPropertyManager@@A, 0 ; CSingleton<CPropertyManager>::ms_singleton
; File D:\Metin2 Server Files\mainline\SRC_2014\Metin2Client\GameLib\PropertyManager.cpp

; 14   : }

  00076	8b 4d f4	 mov	 ecx, DWORD PTR __$EHRec$[ebp]
  00079	64 89 0d 00 00
	00 00		 mov	 DWORD PTR fs:0, ecx
  00080	59		 pop	 ecx
  00081	c9		 leave
  00082	c3		 ret	 0
  00083	cc		 int	 3
  00084	cc		 int	 3
  00085	cc		 int	 3
  00086	cc		 int	 3
  00087	cc		 int	 3
_TEXT	ENDS
;	COMDAT text$x
text$x	SEGMENT
__ehhandler$??1CPropertyManager@@UAE@XZ:
  00000	90		 npad	 1
  00001	90		 npad	 1
  00002	8b 54 24 08	 mov	 edx, DWORD PTR [esp+8]
  00006	8d 42 0c	 lea	 eax, DWORD PTR [edx+12]
  00009	8b 4a f8	 mov	 ecx, DWORD PTR [edx-8]
  0000c	33 c8		 xor	 ecx, eax
  0000e	e8 00 00 00 00	 call	 @__security_check_cookie@4
  00013	b8 00 00 00 00	 mov	 eax, OFFSET __ehfuncinfo$??1CPropertyManager@@UAE@XZ
  00018	e9 00 00 00 00	 jmp	 ___CxxFrameHandler3
text$x	ENDS
??1CPropertyManager@@UAE@XZ ENDP			; CPropertyManager::~CPropertyManager
; Function compile flags: /Odspy
; File D:\Metin2 Server Files\mainline\SRC_2014\Metin2Client\GameLib\PropertyManager.cpp
; File D:\Metin2 Server Files\mainline\SRC_2014\Metin2Client\eterBase\Singleton.h
; File D:\Metin2 Server Files\mainline\SRC_2014\Metin2Client\GameLib\PropertyManager.cpp
; File C:\Program Files (x86)\Microsoft Visual Studio\2019\Community\VC\Tools\MSVC\14.28.29333\include\map
; File D:\Metin2 Server Files\mainline\SRC_2014\Metin2Client\GameLib\PropertyManager.cpp
; File C:\Program Files (x86)\Microsoft Visual Studio\2019\Community\VC\Tools\MSVC\14.28.29333\include\set
; File D:\Metin2 Server Files\mainline\SRC_2014\Metin2Client\GameLib\PropertyManager.cpp
;	COMDAT ??0CPropertyManager@@QAE@XZ
_TEXT	SEGMENT
_this$ = -36						; size = 4
_this$ = -32						; size = 4
_this$ = -28						; size = 4
_offset$2 = -24						; size = 4
_this$ = -20						; size = 4
$T3 = -14						; size = 1
$T4 = -13						; size = 1
__$EHRec$ = -12						; size = 12
??0CPropertyManager@@QAE@XZ PROC			; CPropertyManager::CPropertyManager, COMDAT
; _this$ = ecx

; 8    : {

  00000	55		 push	 ebp
  00001	8b ec		 mov	 ebp, esp
  00003	6a ff		 push	 -1
  00005	68 00 00 00 00	 push	 __ehhandler$??0CPropertyManager@@QAE@XZ
  0000a	64 a1 00 00 00
	00		 mov	 eax, DWORD PTR fs:0
  00010	50		 push	 eax
  00011	83 ec 18	 sub	 esp, 24			; 00000018H
  00014	a1 00 00 00 00	 mov	 eax, DWORD PTR ___security_cookie
  00019	33 c5		 xor	 eax, ebp
  0001b	50		 push	 eax
  0001c	8d 45 f4	 lea	 eax, DWORD PTR __$EHRec$[ebp]
  0001f	64 a3 00 00 00
	00		 mov	 DWORD PTR fs:0, eax
  00025	89 4d ec	 mov	 DWORD PTR _this$[ebp], ecx
; File D:\Metin2 Server Files\mainline\SRC_2014\Metin2Client\eterBase\Singleton.h

; 12   : 	{ 

  00028	8b 45 ec	 mov	 eax, DWORD PTR _this$[ebp]
  0002b	c7 00 00 00 00
	00		 mov	 DWORD PTR [eax], OFFSET ??_7?$CSingleton@VCPropertyManager@@@@6B@

; 13   : 		assert(!ms_singleton);
; 14   : 		int offset = (int) (T*) 1 - (int) (CSingleton <T>*) (T*) 1; 

  00031	33 c0		 xor	 eax, eax
  00033	89 45 e8	 mov	 DWORD PTR _offset$2[ebp], eax

; 15   : 		ms_singleton = (T*) ((int) this + offset);

  00036	8b 45 ec	 mov	 eax, DWORD PTR _this$[ebp]
  00039	03 45 e8	 add	 eax, DWORD PTR _offset$2[ebp]
  0003c	a3 00 00 00 00	 mov	 DWORD PTR ?ms_singleton@?$CSingleton@VCPropertyManager@@@@0PAVCPropertyManager@@A, eax ; CSingleton<CPropertyManager>::ms_singleton
; File D:\Metin2 Server Files\mainline\SRC_2014\Metin2Client\GameLib\PropertyManager.cpp

; 8    : {

  00041	83 65 fc 00	 and	 DWORD PTR __$EHRec$[ebp+8], 0
  00045	8b 45 ec	 mov	 eax, DWORD PTR _this$[ebp]
  00048	c7 00 00 00 00
	00		 mov	 DWORD PTR [eax], OFFSET ??_7CPropertyManager@@6B@

; 7    : CPropertyManager::CPropertyManager() : m_isFileMode(true)

  0004e	8b 45 ec	 mov	 eax, DWORD PTR _this$[ebp]
  00051	c6 40 04 01	 mov	 BYTE PTR [eax+4], 1

; 8    : {

  00055	8b 45 ec	 mov	 eax, DWORD PTR _this$[ebp]
  00058	83 c0 08	 add	 eax, 8
  0005b	89 45 e4	 mov	 DWORD PTR _this$[ebp], eax
; File C:\Program Files (x86)\Microsoft Visual Studio\2019\Community\VC\Tools\MSVC\14.28.29333\include\map

; 107  :     map() : _Mybase(key_compare()) {}

  0005e	8d 45 f3	 lea	 eax, DWORD PTR $T4[ebp]
  00061	50		 push	 eax
  00062	8b 4d e4	 mov	 ecx, DWORD PTR _this$[ebp]
  00065	e8 00 00 00 00	 call	 ??0?$_Tree@V?$_Tmap_traits@KPAVCProperty@@U?$less@K@std@@V?$allocator@U?$pair@$$CBKPAVCProperty@@@std@@@3@$0A@@std@@@std@@QAE@ABU?$less@K@1@@Z ; std::_Tree<std::_Tmap_traits<unsigned long,CProperty *,std::less<unsigned long>,std::allocator<std::pair<unsigned long const ,CProperty *> >,0> >::_Tree<std::_Tmap_traits<unsigned long,CProperty *,std::less<unsigned long>,std::allocator<std::pair<unsigned long const ,CProperty *> >,0> >
; File D:\Metin2 Server Files\mainline\SRC_2014\Metin2Client\GameLib\PropertyManager.cpp

; 8    : {

  0006a	c6 45 fc 01	 mov	 BYTE PTR __$EHRec$[ebp+8], 1
  0006e	8b 45 ec	 mov	 eax, DWORD PTR _this$[ebp]
  00071	83 c0 10	 add	 eax, 16			; 00000010H
  00074	89 45 e0	 mov	 DWORD PTR _this$[ebp], eax
; File C:\Program Files (x86)\Microsoft Visual Studio\2019\Community\VC\Tools\MSVC\14.28.29333\include\set

; 84   :     set() : _Mybase(key_compare()) {}

  00077	8d 45 f2	 lea	 eax, DWORD PTR $T3[ebp]
  0007a	50		 push	 eax
  0007b	8b 4d e0	 mov	 ecx, DWORD PTR _this$[ebp]
  0007e	e8 00 00 00 00	 call	 ??0?$_Tree@V?$_Tset_traits@KU?$less@K@std@@V?$allocator@K@2@$0A@@std@@@std@@QAE@ABU?$less@K@1@@Z ; std::_Tree<std::_Tset_traits<unsigned long,std::less<unsigned long>,std::allocator<unsigned long>,0> >::_Tree<std::_Tset_traits<unsigned long,std::less<unsigned long>,std::allocator<unsigned long>,0> >
; File D:\Metin2 Server Files\mainline\SRC_2014\Metin2Client\GameLib\PropertyManager.cpp

; 8    : {

  00083	c6 45 fc 02	 mov	 BYTE PTR __$EHRec$[ebp+8], 2
  00087	8b 4d ec	 mov	 ecx, DWORD PTR _this$[ebp]
  0008a	83 c1 18	 add	 ecx, 24			; 00000018H
  0008d	e8 00 00 00 00	 call	 ??0CEterPack@@QAE@XZ	; CEterPack::CEterPack
  00092	c6 45 fc 03	 mov	 BYTE PTR __$EHRec$[ebp+8], 3
  00096	8b 45 ec	 mov	 eax, DWORD PTR _this$[ebp]
  00099	05 04 14 00 00	 add	 eax, 5124		; 00001404H
  0009e	89 45 dc	 mov	 DWORD PTR _this$[ebp], eax
  000a1	8b 4d dc	 mov	 ecx, DWORD PTR _this$[ebp]
  000a4	e8 00 00 00 00	 call	 ??0?$unordered_multimap@KUItem@CEterFileDict@@U?$hash@K@boost@@U?$equal_to@K@std@@V?$allocator@U?$pair@$$CBKUItem@CEterFileDict@@@std@@@6@@unordered@boost@@QAE@XZ ; boost::unordered::unordered_multimap<unsigned long,CEterFileDict::Item,boost::hash<unsigned long>,std::equal_to<unsigned long>,std::allocator<std::pair<unsigned long const ,CEterFileDict::Item> > >::unordered_multimap<unsigned long,CEterFileDict::Item,boost::hash<unsigned long>,std::equal_to<unsigned long>,std::allocator<std::pair<unsigned long const ,CEterFileDict::Item> > >

; 9    : }

  000a9	83 4d fc ff	 or	 DWORD PTR __$EHRec$[ebp+8], -1
  000ad	8b 45 ec	 mov	 eax, DWORD PTR _this$[ebp]
  000b0	8b 4d f4	 mov	 ecx, DWORD PTR __$EHRec$[ebp]
  000b3	64 89 0d 00 00
	00 00		 mov	 DWORD PTR fs:0, ecx
  000ba	59		 pop	 ecx
  000bb	c9		 leave
  000bc	c3		 ret	 0
_TEXT	ENDS
;	COMDAT text$x
text$x	SEGMENT
__unwindfunclet$??0CPropertyManager@@QAE@XZ$0:
  00000	8b 4d ec	 mov	 ecx, DWORD PTR _this$[ebp]
  00003	e9 00 00 00 00	 jmp	 ??1?$CSingleton@VCPropertyManager@@@@UAE@XZ ; CSingleton<CPropertyManager>::~CSingleton<CPropertyManager>
__unwindfunclet$??0CPropertyManager@@QAE@XZ$1:
  00008	8b 4d ec	 mov	 ecx, DWORD PTR _this$[ebp]
  0000b	83 c1 08	 add	 ecx, 8
  0000e	e9 00 00 00 00	 jmp	 ??1?$map@KPAVCProperty@@U?$less@K@std@@V?$allocator@U?$pair@$$CBKPAVCProperty@@@std@@@3@@std@@QAE@XZ
__unwindfunclet$??0CPropertyManager@@QAE@XZ$2:
  00013	8b 4d ec	 mov	 ecx, DWORD PTR _this$[ebp]
  00016	83 c1 10	 add	 ecx, 16			; 00000010H
  00019	e9 00 00 00 00	 jmp	 ??1?$set@KU?$less@K@std@@V?$allocator@K@2@@std@@QAE@XZ
__unwindfunclet$??0CPropertyManager@@QAE@XZ$3:
  0001e	8b 4d ec	 mov	 ecx, DWORD PTR _this$[ebp]
  00021	83 c1 18	 add	 ecx, 24			; 00000018H
  00024	e9 00 00 00 00	 jmp	 ??1CEterPack@@UAE@XZ	; CEterPack::~CEterPack
  00029	cc		 int	 3
  0002a	cc		 int	 3
  0002b	cc		 int	 3
  0002c	cc		 int	 3
  0002d	cc		 int	 3
__ehhandler$??0CPropertyManager@@QAE@XZ:
  0002e	90		 npad	 1
  0002f	90		 npad	 1
  00030	8b 54 24 08	 mov	 edx, DWORD PTR [esp+8]
  00034	8d 42 0c	 lea	 eax, DWORD PTR [edx+12]
  00037	8b 4a e4	 mov	 ecx, DWORD PTR [edx-28]
  0003a	33 c8		 xor	 ecx, eax
  0003c	e8 00 00 00 00	 call	 @__security_check_cookie@4
  00041	b8 00 00 00 00	 mov	 eax, OFFSET __ehfuncinfo$??0CPropertyManager@@QAE@XZ
  00046	e9 00 00 00 00	 jmp	 ___CxxFrameHandler3
text$x	ENDS
??0CPropertyManager@@QAE@XZ ENDP			; CPropertyManager::CPropertyManager
; Function compile flags: /Odspy
; File D:\Metin2 Server Files\mainline\SRC_2014\Metin2Client\eterBase\Singleton.h
;	COMDAT ??_G?$CSingleton@VCPropertyManager@@@@UAEPAXI@Z
_TEXT	SEGMENT
_this$ = -4						; size = 4
___flags$ = 8						; size = 4
??_G?$CSingleton@VCPropertyManager@@@@UAEPAXI@Z PROC	; CSingleton<CPropertyManager>::`scalar deleting destructor', COMDAT
; _this$ = ecx
  00000	55		 push	 ebp
  00001	8b ec		 mov	 ebp, esp
  00003	51		 push	 ecx
  00004	89 4d fc	 mov	 DWORD PTR _this$[ebp], ecx

; 19   : 	{ 

  00007	8b 45 fc	 mov	 eax, DWORD PTR _this$[ebp]
  0000a	c7 00 00 00 00
	00		 mov	 DWORD PTR [eax], OFFSET ??_7?$CSingleton@VCPropertyManager@@@@6B@

; 20   : 		assert(ms_singleton);
; 21   : 		ms_singleton = 0; 

  00010	83 25 00 00 00
	00 00		 and	 DWORD PTR ?ms_singleton@?$CSingleton@VCPropertyManager@@@@0PAVCPropertyManager@@A, 0 ; CSingleton<CPropertyManager>::ms_singleton
  00017	8b 45 08	 mov	 eax, DWORD PTR ___flags$[ebp]
  0001a	83 e0 01	 and	 eax, 1
  0001d	74 0c		 je	 SHORT $LN2@scalar
  0001f	6a 04		 push	 4
  00021	ff 75 fc	 push	 DWORD PTR _this$[ebp]
  00024	e8 00 00 00 00	 call	 ??3@YAXPAXI@Z		; operator delete
  00029	59		 pop	 ecx
  0002a	59		 pop	 ecx
$LN2@scalar:
  0002b	8b 45 fc	 mov	 eax, DWORD PTR _this$[ebp]
  0002e	c9		 leave
  0002f	c2 04 00	 ret	 4
??_G?$CSingleton@VCPropertyManager@@@@UAEPAXI@Z ENDP	; CSingleton<CPropertyManager>::`scalar deleting destructor'
_TEXT	ENDS
; Function compile flags: /Odspy
; File D:\Metin2 Server Files\mainline\SRC_2014\Metin2Client\eterBase\Singleton.h
;	COMDAT ??1?$CSingleton@VCPropertyManager@@@@UAE@XZ
_TEXT	SEGMENT
_this$ = -4						; size = 4
??1?$CSingleton@VCPropertyManager@@@@UAE@XZ PROC	; CSingleton<CPropertyManager>::~CSingleton<CPropertyManager>, COMDAT
; _this$ = ecx

; 19   : 	{ 

  00000	55		 push	 ebp
  00001	8b ec		 mov	 ebp, esp
  00003	51		 push	 ecx
  00004	89 4d fc	 mov	 DWORD PTR _this$[ebp], ecx
  00007	8b 45 fc	 mov	 eax, DWORD PTR _this$[ebp]
  0000a	c7 00 00 00 00
	00		 mov	 DWORD PTR [eax], OFFSET ??_7?$CSingleton@VCPropertyManager@@@@6B@

; 20   : 		assert(ms_singleton);
; 21   : 		ms_singleton = 0; 

  00010	83 25 00 00 00
	00 00		 and	 DWORD PTR ?ms_singleton@?$CSingleton@VCPropertyManager@@@@0PAVCPropertyManager@@A, 0 ; CSingleton<CPropertyManager>::ms_singleton

; 22   : 	}

  00017	c9		 leave
  00018	c3		 ret	 0
??1?$CSingleton@VCPropertyManager@@@@UAE@XZ ENDP	; CSingleton<CPropertyManager>::~CSingleton<CPropertyManager>
_TEXT	ENDS
; Function compile flags: /Odspy
; File D:\Metin2 Server Files\mainline\SRC_2014\M2Data\include\boost\unordered\detail\implementation.hpp
;	COMDAT ?begin@?$table@U?$map@V?$allocator@U?$pair@$$CBKPAUSEterPackIndex@@@std@@@std@@KPAUSEterPackIndex@@U?$hash@K@boost@@U?$equal_to@K@2@@detail@unordered@boost@@@detail@unordered@boost@@QBEPAU?$ptr_node@U?$pair@$$CBKPAUSEterPackIndex@@@std@@@234@XZ
_TEXT	SEGMENT
$T1 = -16						; size = 4
$T2 = -12						; size = 4
tv70 = -8						; size = 4
_this$ = -4						; size = 4
?begin@?$table@U?$map@V?$allocator@U?$pair@$$CBKPAUSEterPackIndex@@@std@@@std@@KPAUSEterPackIndex@@U?$hash@K@boost@@U?$equal_to@K@2@@detail@unordered@boost@@@detail@unordered@boost@@QBEPAU?$ptr_node@U?$pair@$$CBKPAUSEterPackIndex@@@std@@@234@XZ PROC ; boost::unordered::detail::table<boost::unordered::detail::map<std::allocator<std::pair<unsigned long const ,SEterPackIndex *> >,unsigned long,SEterPackIndex *,boost::hash<unsigned long>,std::equal_to<unsigned long> > >::begin, COMDAT
; _this$ = ecx

; 3040 :         {

  00000	55		 push	 ebp
  00001	8b ec		 mov	 ebp, esp
  00003	83 ec 10	 sub	 esp, 16			; 00000010H
  00006	89 4d fc	 mov	 DWORD PTR _this$[ebp], ecx

; 3041 :           return size_ ? next_node(get_previous_start()) : node_pointer();

  00009	8b 45 fc	 mov	 eax, DWORD PTR _this$[ebp]
  0000c	83 78 08 00	 cmp	 DWORD PTR [eax+8], 0
  00010	74 22		 je	 SHORT $LN3@begin

; 3026 :           return buckets_ + static_cast<std::ptrdiff_t>(bucket_index);

  00012	8b 45 fc	 mov	 eax, DWORD PTR _this$[ebp]
  00015	8b 40 04	 mov	 eax, DWORD PTR [eax+4]
  00018	8b 4d fc	 mov	 ecx, DWORD PTR _this$[ebp]
  0001b	8b 49 14	 mov	 ecx, DWORD PTR [ecx+20]
  0001e	8d 04 81	 lea	 eax, DWORD PTR [ecx+eax*4]
  00021	89 45 f4	 mov	 DWORD PTR $T2[ebp], eax

; 3041 :           return size_ ? next_node(get_previous_start()) : node_pointer();

  00024	8b 45 f0	 mov	 eax, DWORD PTR $T1[ebp]
  00027	89 45 f8	 mov	 DWORD PTR tv70[ebp], eax

; 2964 :           return static_cast<node_pointer>(n->next_);

  0002a	8b 45 f4	 mov	 eax, DWORD PTR $T2[ebp]
  0002d	8b 00		 mov	 eax, DWORD PTR [eax]
  0002f	89 45 f8	 mov	 DWORD PTR tv70[ebp], eax

; 3041 :           return size_ ? next_node(get_previous_start()) : node_pointer();

  00032	eb 04		 jmp	 SHORT $LN4@begin
$LN3@begin:
  00034	83 65 f8 00	 and	 DWORD PTR tv70[ebp], 0
$LN4@begin:
  00038	8b 45 f8	 mov	 eax, DWORD PTR tv70[ebp]

; 3042 :         }

  0003b	c9		 leave
  0003c	c3		 ret	 0
?begin@?$table@U?$map@V?$allocator@U?$pair@$$CBKPAUSEterPackIndex@@@std@@@std@@KPAUSEterPackIndex@@U?$hash@K@boost@@U?$equal_to@K@2@@detail@unordered@boost@@@detail@unordered@boost@@QBEPAU?$ptr_node@U?$pair@$$CBKPAUSEterPackIndex@@@std@@@234@XZ ENDP ; boost::unordered::detail::table<boost::unordered::detail::map<std::allocator<std::pair<unsigned long const ,SEterPackIndex *> >,unsigned long,SEterPackIndex *,boost::hash<unsigned long>,std::equal_to<unsigned long> > >::begin
_TEXT	ENDS
; Function compile flags: /Odspy
; File D:\Metin2 Server Files\mainline\SRC_2014\M2Data\include\boost\unordered\unordered_map.hpp
; File D:\Metin2 Server Files\mainline\SRC_2014\M2Data\include\boost\unordered\detail\implementation.hpp
; File D:\Metin2 Server Files\mainline\SRC_2014\M2Data\include\boost\unordered\unordered_map.hpp
;	COMDAT ??1?$unordered_multimap@KUItem@CEterFileDict@@U?$hash@K@boost@@U?$equal_to@K@std@@V?$allocator@U?$pair@$$CBKUItem@CEterFileDict@@@std@@@6@@unordered@boost@@QAE@XZ
_TEXT	SEGMENT
_this$ = -16						; size = 4
__$EHRec$ = -12						; size = 12
??1?$unordered_multimap@KUItem@CEterFileDict@@U?$hash@K@boost@@U?$equal_to@K@std@@V?$allocator@U?$pair@$$CBKUItem@CEterFileDict@@@std@@@6@@unordered@boost@@QAE@XZ PROC ; boost::unordered::unordered_multimap<unsigned long,CEterFileDict::Item,boost::hash<unsigned long>,std::equal_to<unsigned long>,std::allocator<std::pair<unsigned long const ,CEterFileDict::Item> > >::~unordered_multimap<unsigned long,CEterFileDict::Item,boost::hash<unsigned long>,std::equal_to<unsigned long>,std::allocator<std::pair<unsigned long const ,CEterFileDict::Item> > >, COMDAT
; _this$ = ecx

; 2123 :     {

  00000	55		 push	 ebp
  00001	8b ec		 mov	 ebp, esp
  00003	6a ff		 push	 -1
  00005	68 00 00 00 00	 push	 __ehhandler$??1?$unordered_multimap@KUItem@CEterFileDict@@U?$hash@K@boost@@U?$equal_to@K@std@@V?$allocator@U?$pair@$$CBKUItem@CEterFileDict@@@std@@@6@@unordered@boost@@QAE@XZ
  0000a	64 a1 00 00 00
	00		 mov	 eax, DWORD PTR fs:0
  00010	50		 push	 eax
  00011	51		 push	 ecx
  00012	a1 00 00 00 00	 mov	 eax, DWORD PTR ___security_cookie
  00017	33 c5		 xor	 eax, ebp
  00019	50		 push	 eax
  0001a	8d 45 f4	 lea	 eax, DWORD PTR __$EHRec$[ebp]
  0001d	64 a3 00 00 00
	00		 mov	 DWORD PTR fs:0, eax
  00023	89 4d f0	 mov	 DWORD PTR _this$[ebp], ecx
; File D:\Metin2 Server Files\mainline\SRC_2014\M2Data\include\boost\unordered\detail\implementation.hpp

; 3333 :         ~table() { delete_buckets(); }

  00026	83 65 fc 00	 and	 DWORD PTR __$EHRec$[ebp+8], 0
  0002a	8b 4d f0	 mov	 ecx, DWORD PTR _this$[ebp]
  0002d	e8 00 00 00 00	 call	 ?delete_buckets@?$table@U?$map@V?$allocator@U?$pair@$$CBKUItem@CEterFileDict@@@std@@@std@@KUItem@CEterFileDict@@U?$hash@K@boost@@U?$equal_to@K@2@@detail@unordered@boost@@@detail@unordered@boost@@QAEXXZ ; boost::unordered::detail::table<boost::unordered::detail::map<std::allocator<std::pair<unsigned long const ,CEterFileDict::Item> >,unsigned long,CEterFileDict::Item,boost::hash<unsigned long>,std::equal_to<unsigned long> > >::delete_buckets
  00032	83 4d fc ff	 or	 DWORD PTR __$EHRec$[ebp+8], -1
; File D:\Metin2 Server Files\mainline\SRC_2014\M2Data\include\boost\unordered\unordered_map.hpp

; 2124 :     }

  00036	8b 4d f4	 mov	 ecx, DWORD PTR __$EHRec$[ebp]
  00039	64 89 0d 00 00
	00 00		 mov	 DWORD PTR fs:0, ecx
  00040	59		 pop	 ecx
  00041	c9		 leave
  00042	c3		 ret	 0
  00043	cc		 int	 3
  00044	cc		 int	 3
  00045	cc		 int	 3
  00046	cc		 int	 3
  00047	cc		 int	 3
_TEXT	ENDS
;	COMDAT text$x
text$x	SEGMENT
__ehhandler$??1?$unordered_multimap@KUItem@CEterFileDict@@U?$hash@K@boost@@U?$equal_to@K@std@@V?$allocator@U?$pair@$$CBKUItem@CEterFileDict@@@std@@@6@@unordered@boost@@QAE@XZ:
  00000	90		 npad	 1
  00001	90		 npad	 1
  00002	8b 54 24 08	 mov	 edx, DWORD PTR [esp+8]
  00006	8d 42 0c	 lea	 eax, DWORD PTR [edx+12]
  00009	8b 4a f8	 mov	 ecx, DWORD PTR [edx-8]
  0000c	33 c8		 xor	 ecx, eax
  0000e	e8 00 00 00 00	 call	 @__security_check_cookie@4
  00013	b8 00 00 00 00	 mov	 eax, OFFSET __ehfuncinfo$??1?$unordered_multimap@KUItem@CEterFileDict@@U?$hash@K@boost@@U?$equal_to@K@std@@V?$allocator@U?$pair@$$CBKUItem@CEterFileDict@@@std@@@6@@unordered@boost@@QAE@XZ
  00018	e9 00 00 00 00	 jmp	 ___CxxFrameHandler3
text$x	ENDS
??1?$unordered_multimap@KUItem@CEterFileDict@@U?$hash@K@boost@@U?$equal_to@K@std@@V?$allocator@U?$pair@$$CBKUItem@CEterFileDict@@@std@@@6@@unordered@boost@@QAE@XZ ENDP ; boost::unordered::unordered_multimap<unsigned long,CEterFileDict::Item,boost::hash<unsigned long>,std::equal_to<unsigned long>,std::allocator<std::pair<unsigned long const ,CEterFileDict::Item> > >::~unordered_multimap<unsigned long,CEterFileDict::Item,boost::hash<unsigned long>,std::equal_to<unsigned long>,std::allocator<std::pair<unsigned long const ,CEterFileDict::Item> > >
; Function compile flags: /Odspy
; File D:\Metin2 Server Files\mainline\SRC_2014\M2Data\include\boost\unordered\unordered_map.hpp
;	COMDAT ??0?$unordered_multimap@KUItem@CEterFileDict@@U?$hash@K@boost@@U?$equal_to@K@std@@V?$allocator@U?$pair@$$CBKUItem@CEterFileDict@@@std@@@6@@unordered@boost@@QAE@XZ
_TEXT	SEGMENT
_this$ = -8						; size = 4
$T1 = -3						; size = 1
$T2 = -2						; size = 1
$T3 = -1						; size = 1
??0?$unordered_multimap@KUItem@CEterFileDict@@U?$hash@K@boost@@U?$equal_to@K@std@@V?$allocator@U?$pair@$$CBKUItem@CEterFileDict@@@std@@@6@@unordered@boost@@QAE@XZ PROC ; boost::unordered::unordered_multimap<unsigned long,CEterFileDict::Item,boost::hash<unsigned long>,std::equal_to<unsigned long>,std::allocator<std::pair<unsigned long const ,CEterFileDict::Item> > >::unordered_multimap<unsigned long,CEterFileDict::Item,boost::hash<unsigned long>,std::equal_to<unsigned long>,std::allocator<std::pair<unsigned long const ,CEterFileDict::Item> > >, COMDAT
; _this$ = ecx

; 1986 :     {

  00000	55		 push	 ebp
  00001	8b ec		 mov	 ebp, esp
  00003	51		 push	 ecx
  00004	51		 push	 ecx
  00005	89 4d f8	 mov	 DWORD PTR _this$[ebp], ecx

; 1984 :         : table_(boost::unordered::detail::default_bucket_count, hasher(),

  00008	8d 45 ff	 lea	 eax, DWORD PTR $T3[ebp]
  0000b	50		 push	 eax
  0000c	8d 45 fe	 lea	 eax, DWORD PTR $T2[ebp]
  0000f	50		 push	 eax
  00010	8d 45 fd	 lea	 eax, DWORD PTR $T1[ebp]
  00013	50		 push	 eax
  00014	6a 0b		 push	 11			; 0000000bH
  00016	8b 4d f8	 mov	 ecx, DWORD PTR _this$[ebp]
  00019	e8 00 00 00 00	 call	 ??0?$table@U?$map@V?$allocator@U?$pair@$$CBKUItem@CEterFileDict@@@std@@@std@@KUItem@CEterFileDict@@U?$hash@K@boost@@U?$equal_to@K@2@@detail@unordered@boost@@@detail@unordered@boost@@QAE@IABU?$hash@K@3@ABU?$equal_to@K@std@@ABV?$allocator@U?$ptr_node@U?$pair@$$CBKUItem@CEterFileDict@@@std@@@detail@unordered@boost@@@6@@Z ; boost::unordered::detail::table<boost::unordered::detail::map<std::allocator<std::pair<unsigned long const ,CEterFileDict::Item> >,unsigned long,CEterFileDict::Item,boost::hash<unsigned long>,std::equal_to<unsigned long> > >::table<boost::unordered::detail::map<std::allocator<std::pair<unsigned long const ,CEterFileDict::Item> >,unsigned long,CEterFileDict::Item,boost::hash<unsigned long>,std::equal_to<unsigned long> > >

; 1987 :     }

  0001e	8b 45 f8	 mov	 eax, DWORD PTR _this$[ebp]
  00021	c9		 leave
  00022	c3		 ret	 0
??0?$unordered_multimap@KUItem@CEterFileDict@@U?$hash@K@boost@@U?$equal_to@K@std@@V?$allocator@U?$pair@$$CBKUItem@CEterFileDict@@@std@@@6@@unordered@boost@@QAE@XZ ENDP ; boost::unordered::unordered_multimap<unsigned long,CEterFileDict::Item,boost::hash<unsigned long>,std::equal_to<unsigned long>,std::allocator<std::pair<unsigned long const ,CEterFileDict::Item> > >::unordered_multimap<unsigned long,CEterFileDict::Item,boost::hash<unsigned long>,std::equal_to<unsigned long>,std::allocator<std::pair<unsigned long const ,CEterFileDict::Item> > >
_TEXT	ENDS
; Function compile flags: /Odspy
; File D:\Metin2 Server Files\mainline\SRC_2014\M2Data\include\boost\unordered\detail\implementation.hpp
; File D:\Metin2 Server Files\mainline\SRC_2014\M2Data\include\boost\core\pointer_traits.hpp
; File D:\Metin2 Server Files\mainline\SRC_2014\M2Data\include\boost\unordered\detail\implementation.hpp
; File C:\Program Files (x86)\Microsoft Visual Studio\2019\Community\VC\Tools\MSVC\14.28.29333\include\xmemory
; File D:\Metin2 Server Files\mainline\SRC_2014\M2Data\include\boost\unordered\detail\implementation.hpp
;	COMDAT ?destroy_buckets@?$table@U?$map@V?$allocator@U?$pair@$$CBKUItem@CEterFileDict@@@std@@@std@@KUItem@CEterFileDict@@U?$hash@K@boost@@U?$equal_to@K@2@@detail@unordered@boost@@@detail@unordered@boost@@QAEXXZ
_TEXT	SEGMENT
$T1 = -24						; size = 4
__Ptr$ = -20						; size = 4
__Count$ = -16						; size = 4
_end$ = -12						; size = 4
_it$2 = -8						; size = 4
_this$ = -4						; size = 4
?destroy_buckets@?$table@U?$map@V?$allocator@U?$pair@$$CBKUItem@CEterFileDict@@@std@@@std@@KUItem@CEterFileDict@@U?$hash@K@boost@@U?$equal_to@K@2@@detail@unordered@boost@@@detail@unordered@boost@@QAEXXZ PROC ; boost::unordered::detail::table<boost::unordered::detail::map<std::allocator<std::pair<unsigned long const ,CEterFileDict::Item> >,unsigned long,CEterFileDict::Item,boost::hash<unsigned long>,std::equal_to<unsigned long> > >::destroy_buckets, COMDAT
; _this$ = ecx

; 3370 :         {

  00000	55		 push	 ebp
  00001	8b ec		 mov	 ebp, esp
  00003	83 ec 18	 sub	 esp, 24			; 00000018H
  00006	89 4d fc	 mov	 DWORD PTR _this$[ebp], ecx

; 3026 :           return buckets_ + static_cast<std::ptrdiff_t>(bucket_index);

  00009	8b 45 fc	 mov	 eax, DWORD PTR _this$[ebp]
  0000c	8b 40 04	 mov	 eax, DWORD PTR [eax+4]
  0000f	8b 4d fc	 mov	 ecx, DWORD PTR _this$[ebp]
  00012	8b 49 14	 mov	 ecx, DWORD PTR [ecx+20]
  00015	8d 44 81 04	 lea	 eax, DWORD PTR [ecx+eax*4+4]

; 3371 :           bucket_pointer end = get_bucket_pointer(bucket_count_ + 1);

  00019	89 45 f4	 mov	 DWORD PTR _end$[ebp], eax

; 3372 :           for (bucket_pointer it = buckets_; it != end; ++it) {

  0001c	8b 45 fc	 mov	 eax, DWORD PTR _this$[ebp]
  0001f	8b 40 14	 mov	 eax, DWORD PTR [eax+20]
  00022	89 45 f8	 mov	 DWORD PTR _it$2[ebp], eax
  00025	eb 09		 jmp	 SHORT $LN4@destroy_bu
$LN2@destroy_bu:
  00027	8b 45 f8	 mov	 eax, DWORD PTR _it$2[ebp]
  0002a	83 c0 04	 add	 eax, 4
  0002d	89 45 f8	 mov	 DWORD PTR _it$2[ebp], eax
$LN4@destroy_bu:
  00030	8b 45 f8	 mov	 eax, DWORD PTR _it$2[ebp]
  00033	3b 45 f4	 cmp	 eax, DWORD PTR _end$[ebp]
  00036	74 08		 je	 SHORT $LN13@destroy_bu
; File D:\Metin2 Server Files\mainline\SRC_2014\M2Data\include\boost\core\pointer_traits.hpp

; 186  :     return v;

  00038	8b 45 f8	 mov	 eax, DWORD PTR _it$2[ebp]
  0003b	89 45 e8	 mov	 DWORD PTR $T1[ebp], eax
; File D:\Metin2 Server Files\mainline\SRC_2014\M2Data\include\boost\unordered\detail\implementation.hpp

; 3374 :           }

  0003e	eb e7		 jmp	 SHORT $LN2@destroy_bu
$LN13@destroy_bu:

; 3375 : 
; 3376 :           bucket_allocator_traits::deallocate(

  00040	8b 45 fc	 mov	 eax, DWORD PTR _this$[ebp]
  00043	8b 40 04	 mov	 eax, DWORD PTR [eax+4]
  00046	40		 inc	 eax
  00047	89 45 f0	 mov	 DWORD PTR __Count$[ebp], eax
  0004a	8b 45 fc	 mov	 eax, DWORD PTR _this$[ebp]
  0004d	8b 40 14	 mov	 eax, DWORD PTR [eax+20]
  00050	89 45 ec	 mov	 DWORD PTR __Ptr$[ebp], eax
; File C:\Program Files (x86)\Microsoft Visual Studio\2019\Community\VC\Tools\MSVC\14.28.29333\include\xmemory

; 696  :         _Deallocate<_New_alignof<value_type>>(_Ptr, sizeof(value_type) * _Count);

  00053	8b 45 f0	 mov	 eax, DWORD PTR __Count$[ebp]
  00056	c1 e0 02	 shl	 eax, 2
  00059	50		 push	 eax
  0005a	ff 75 ec	 push	 DWORD PTR __Ptr$[ebp]
  0005d	e8 00 00 00 00	 call	 ??$_Deallocate@$07$0A@@std@@YAXPAXI@Z ; std::_Deallocate<8,0>
  00062	59		 pop	 ecx
  00063	59		 pop	 ecx
; File D:\Metin2 Server Files\mainline\SRC_2014\M2Data\include\boost\unordered\detail\implementation.hpp

; 3378 :         }

  00064	c9		 leave
  00065	c3		 ret	 0
?destroy_buckets@?$table@U?$map@V?$allocator@U?$pair@$$CBKUItem@CEterFileDict@@@std@@@std@@KUItem@CEterFileDict@@U?$hash@K@boost@@U?$equal_to@K@2@@detail@unordered@boost@@@detail@unordered@boost@@QAEXXZ ENDP ; boost::unordered::detail::table<boost::unordered::detail::map<std::allocator<std::pair<unsigned long const ,CEterFileDict::Item> >,unsigned long,CEterFileDict::Item,boost::hash<unsigned long>,std::equal_to<unsigned long> > >::destroy_buckets
_TEXT	ENDS
; Function compile flags: /Odspy
; File D:\Metin2 Server Files\mainline\SRC_2014\M2Data\include\boost\unordered\detail\implementation.hpp
; File D:\Metin2 Server Files\mainline\SRC_2014\M2Data\include\boost\core\pointer_traits.hpp
; File D:\Metin2 Server Files\mainline\SRC_2014\M2Data\include\boost\unordered\detail\implementation.hpp
; File C:\Program Files (x86)\Microsoft Visual Studio\2019\Community\VC\Tools\MSVC\14.28.29333\include\xmemory
; File D:\Metin2 Server Files\mainline\SRC_2014\M2Data\include\boost\unordered\detail\implementation.hpp
;	COMDAT ?delete_buckets@?$table@U?$map@V?$allocator@U?$pair@$$CBKUItem@CEterFileDict@@@std@@@std@@KUItem@CEterFileDict@@U?$hash@K@boost@@U?$equal_to@K@2@@detail@unordered@boost@@@detail@unordered@boost@@QAEXXZ
_TEXT	SEGMENT
$T1 = -28						; size = 4
_next$2 = -24						; size = 4
_next$3 = -20						; size = 4
$T4 = -16						; size = 4
_this$ = -12						; size = 4
_n$5 = -8						; size = 4
_this$ = -4						; size = 4
?delete_buckets@?$table@U?$map@V?$allocator@U?$pair@$$CBKUItem@CEterFileDict@@@std@@@std@@KUItem@CEterFileDict@@U?$hash@K@boost@@U?$equal_to@K@2@@detail@unordered@boost@@@detail@unordered@boost@@QAEXXZ PROC ; boost::unordered::detail::table<boost::unordered::detail::map<std::allocator<std::pair<unsigned long const ,CEterFileDict::Item> >,unsigned long,CEterFileDict::Item,boost::hash<unsigned long>,std::equal_to<unsigned long> > >::delete_buckets, COMDAT
; _this$ = ecx

; 3344 :         {

  00000	55		 push	 ebp
  00001	8b ec		 mov	 ebp, esp
  00003	83 ec 1c	 sub	 esp, 28			; 0000001cH
  00006	89 4d fc	 mov	 DWORD PTR _this$[ebp], ecx

; 3345 :           if (buckets_) {

  00009	8b 45 fc	 mov	 eax, DWORD PTR _this$[ebp]
  0000c	83 78 14 00	 cmp	 DWORD PTR [eax+20], 0
  00010	0f 84 91 00 00
	00		 je	 $LN1@delete_buc

; 3346 :             node_pointer n = static_cast<node_pointer>(

  00016	8b 45 fc	 mov	 eax, DWORD PTR _this$[ebp]
  00019	8b 40 04	 mov	 eax, DWORD PTR [eax+4]
  0001c	8b 4d fc	 mov	 ecx, DWORD PTR _this$[ebp]
  0001f	8b 49 14	 mov	 ecx, DWORD PTR [ecx+20]
  00022	8b 04 81	 mov	 eax, DWORD PTR [ecx+eax*4]
  00025	89 45 f8	 mov	 DWORD PTR _n$5[ebp], eax

; 3347 :               get_bucket_pointer(bucket_count_)->next_);
; 3348 : 
; 3349 :             if (bucket::extra_node) {

  00028	33 c0		 xor	 eax, eax
  0002a	74 3d		 je	 SHORT $LN2@delete_buc

; 2964 :           return static_cast<node_pointer>(n->next_);

  0002c	8b 45 f8	 mov	 eax, DWORD PTR _n$5[ebp]
  0002f	8b 00		 mov	 eax, DWORD PTR [eax]
  00031	89 45 ec	 mov	 DWORD PTR _next$3[ebp], eax
; File D:\Metin2 Server Files\mainline\SRC_2014\M2Data\include\boost\core\pointer_traits.hpp

; 186  :     return v;

  00034	8b 45 f8	 mov	 eax, DWORD PTR _n$5[ebp]
  00037	89 45 e4	 mov	 DWORD PTR $T1[ebp], eax
; File D:\Metin2 Server Files\mainline\SRC_2014\M2Data\include\boost\unordered\detail\implementation.hpp

; 3014 :         node_allocator& node_alloc() { return allocators_.second(); }

  0003a	8b 45 fc	 mov	 eax, DWORD PTR _this$[ebp]
  0003d	83 c0 03	 add	 eax, 3
  00040	89 45 f4	 mov	 DWORD PTR _this$[ebp], eax

; 430  :         second_type& second() { return static_cast<base2*>(this)->get(); }

  00043	74 09		 je	 SHORT $LN20@delete_buc
  00045	8b 45 f4	 mov	 eax, DWORD PTR _this$[ebp]
  00048	40		 inc	 eax
  00049	89 45 f0	 mov	 DWORD PTR $T4[ebp], eax
  0004c	eb 04		 jmp	 SHORT $LN16@delete_buc
$LN20@delete_buc:
  0004e	83 65 f0 00	 and	 DWORD PTR $T4[ebp], 0
$LN16@delete_buc:
; File C:\Program Files (x86)\Microsoft Visual Studio\2019\Community\VC\Tools\MSVC\14.28.29333\include\xmemory

; 696  :         _Deallocate<_New_alignof<value_type>>(_Ptr, sizeof(value_type) * _Count);

  00052	33 c0		 xor	 eax, eax
  00054	40		 inc	 eax
  00055	6b c0 14	 imul	 eax, eax, 20
  00058	50		 push	 eax
  00059	ff 75 f8	 push	 DWORD PTR _n$5[ebp]
  0005c	e8 00 00 00 00	 call	 ??$_Deallocate@$07$0A@@std@@YAXPAXI@Z ; std::_Deallocate<8,0>
  00061	59		 pop	 ecx
  00062	59		 pop	 ecx
; File D:\Metin2 Server Files\mainline\SRC_2014\M2Data\include\boost\unordered\detail\implementation.hpp

; 3353 :               n = next;

  00063	8b 45 ec	 mov	 eax, DWORD PTR _next$3[ebp]
  00066	89 45 f8	 mov	 DWORD PTR _n$5[ebp], eax
$LN2@delete_buc:

; 3354 :             }
; 3355 : 
; 3356 :             while (n) {

  00069	83 7d f8 00	 cmp	 DWORD PTR _n$5[ebp], 0
  0006d	74 1b		 je	 SHORT $LN3@delete_buc

; 2964 :           return static_cast<node_pointer>(n->next_);

  0006f	8b 45 f8	 mov	 eax, DWORD PTR _n$5[ebp]
  00072	8b 00		 mov	 eax, DWORD PTR [eax]
  00074	89 45 e8	 mov	 DWORD PTR _next$2[ebp], eax

; 3357 :               node_pointer next = next_node(n);
; 3358 :               destroy_node(n);

  00077	ff 75 f8	 push	 DWORD PTR _n$5[ebp]
  0007a	8b 4d fc	 mov	 ecx, DWORD PTR _this$[ebp]
  0007d	e8 00 00 00 00	 call	 ?destroy_node@?$table@U?$map@V?$allocator@U?$pair@$$CBKUItem@CEterFileDict@@@std@@@std@@KUItem@CEterFileDict@@U?$hash@K@boost@@U?$equal_to@K@2@@detail@unordered@boost@@@detail@unordered@boost@@QAEXPAU?$ptr_node@U?$pair@$$CBKUItem@CEterFileDict@@@std@@@234@@Z ; boost::unordered::detail::table<boost::unordered::detail::map<std::allocator<std::pair<unsigned long const ,CEterFileDict::Item> >,unsigned long,CEterFileDict::Item,boost::hash<unsigned long>,std::equal_to<unsigned long> > >::destroy_node

; 3359 :               n = next;

  00082	8b 45 e8	 mov	 eax, DWORD PTR _next$2[ebp]
  00085	89 45 f8	 mov	 DWORD PTR _n$5[ebp], eax

; 3360 :             }

  00088	eb df		 jmp	 SHORT $LN2@delete_buc
$LN3@delete_buc:

; 3361 : 
; 3362 :             destroy_buckets();

  0008a	8b 4d fc	 mov	 ecx, DWORD PTR _this$[ebp]
  0008d	e8 00 00 00 00	 call	 ?destroy_buckets@?$table@U?$map@V?$allocator@U?$pair@$$CBKUItem@CEterFileDict@@@std@@@std@@KUItem@CEterFileDict@@U?$hash@K@boost@@U?$equal_to@K@2@@detail@unordered@boost@@@detail@unordered@boost@@QAEXXZ ; boost::unordered::detail::table<boost::unordered::detail::map<std::allocator<std::pair<unsigned long const ,CEterFileDict::Item> >,unsigned long,CEterFileDict::Item,boost::hash<unsigned long>,std::equal_to<unsigned long> > >::destroy_buckets

; 3363 :             buckets_ = bucket_pointer();

  00092	8b 45 fc	 mov	 eax, DWORD PTR _this$[ebp]
  00095	83 60 14 00	 and	 DWORD PTR [eax+20], 0

; 3364 :             max_load_ = 0;

  00099	8b 45 fc	 mov	 eax, DWORD PTR _this$[ebp]
  0009c	83 60 10 00	 and	 DWORD PTR [eax+16], 0

; 3365 :             size_ = 0;

  000a0	8b 45 fc	 mov	 eax, DWORD PTR _this$[ebp]
  000a3	83 60 08 00	 and	 DWORD PTR [eax+8], 0
$LN1@delete_buc:

; 3366 :           }
; 3367 :         }

  000a7	c9		 leave
  000a8	c3		 ret	 0
?delete_buckets@?$table@U?$map@V?$allocator@U?$pair@$$CBKUItem@CEterFileDict@@@std@@@std@@KUItem@CEterFileDict@@U?$hash@K@boost@@U?$equal_to@K@2@@detail@unordered@boost@@@detail@unordered@boost@@QAEXXZ ENDP ; boost::unordered::detail::table<boost::unordered::detail::map<std::allocator<std::pair<unsigned long const ,CEterFileDict::Item> >,unsigned long,CEterFileDict::Item,boost::hash<unsigned long>,std::equal_to<unsigned long> > >::delete_buckets
_TEXT	ENDS
; Function compile flags: /Odspy
; File D:\Metin2 Server Files\mainline\SRC_2014\M2Data\include\boost\unordered\detail\implementation.hpp
; File D:\Metin2 Server Files\mainline\SRC_2014\M2Data\include\boost\core\pointer_traits.hpp
; File D:\Metin2 Server Files\mainline\SRC_2014\M2Data\include\boost\unordered\detail\implementation.hpp
; File C:\Program Files (x86)\Microsoft Visual Studio\2019\Community\VC\Tools\MSVC\14.28.29333\include\xmemory
; File D:\Metin2 Server Files\mainline\SRC_2014\M2Data\include\boost\unordered\detail\implementation.hpp
;	COMDAT ?destroy_node@?$table@U?$map@V?$allocator@U?$pair@$$CBKUItem@CEterFileDict@@@std@@@std@@KUItem@CEterFileDict@@U?$hash@K@boost@@U?$equal_to@K@2@@detail@unordered@boost@@@detail@unordered@boost@@QAEXPAU?$ptr_node@U?$pair@$$CBKUItem@CEterFileDict@@@std@@@234@@Z
_TEXT	SEGMENT
$T1 = -24						; size = 4
$T2 = -20						; size = 4
$T3 = -16						; size = 4
_this$ = -12						; size = 4
_this$ = -8						; size = 4
_this$ = -4						; size = 4
_n$ = 8							; size = 4
?destroy_node@?$table@U?$map@V?$allocator@U?$pair@$$CBKUItem@CEterFileDict@@@std@@@std@@KUItem@CEterFileDict@@U?$hash@K@boost@@U?$equal_to@K@2@@detail@unordered@boost@@@detail@unordered@boost@@QAEXPAU?$ptr_node@U?$pair@$$CBKUItem@CEterFileDict@@@std@@@234@@Z PROC ; boost::unordered::detail::table<boost::unordered::detail::map<std::allocator<std::pair<unsigned long const ,CEterFileDict::Item> >,unsigned long,CEterFileDict::Item,boost::hash<unsigned long>,std::equal_to<unsigned long> > >::destroy_node, COMDAT
; _this$ = ecx

; 3336 :         {

  00000	55		 push	 ebp
  00001	8b ec		 mov	 ebp, esp
  00003	83 ec 18	 sub	 esp, 24			; 00000018H
  00006	89 4d f8	 mov	 DWORD PTR _this$[ebp], ecx

; 3014 :         node_allocator& node_alloc() { return allocators_.second(); }

  00009	8b 45 f8	 mov	 eax, DWORD PTR _this$[ebp]
  0000c	83 c0 03	 add	 eax, 3
  0000f	89 45 fc	 mov	 DWORD PTR _this$[ebp], eax

; 430  :         second_type& second() { return static_cast<base2*>(this)->get(); }

  00012	74 09		 je	 SHORT $LN11@destroy_no
  00014	8b 45 fc	 mov	 eax, DWORD PTR _this$[ebp]
  00017	40		 inc	 eax
  00018	89 45 f0	 mov	 DWORD PTR $T3[ebp], eax
  0001b	eb 04		 jmp	 SHORT $LN15@destroy_no
$LN11@destroy_no:
  0001d	83 65 f0 00	 and	 DWORD PTR $T3[ebp], 0
$LN15@destroy_no:
; File D:\Metin2 Server Files\mainline\SRC_2014\M2Data\include\boost\core\pointer_traits.hpp

; 186  :     return v;

  00021	8b 45 08	 mov	 eax, DWORD PTR _n$[ebp]
  00024	89 45 e8	 mov	 DWORD PTR $T1[ebp], eax
; File D:\Metin2 Server Files\mainline\SRC_2014\M2Data\include\boost\unordered\detail\implementation.hpp

; 3014 :         node_allocator& node_alloc() { return allocators_.second(); }

  00027	8b 45 f8	 mov	 eax, DWORD PTR _this$[ebp]
  0002a	83 c0 03	 add	 eax, 3
  0002d	89 45 f4	 mov	 DWORD PTR _this$[ebp], eax

; 430  :         second_type& second() { return static_cast<base2*>(this)->get(); }

  00030	74 09		 je	 SHORT $LN26@destroy_no
  00032	8b 45 f4	 mov	 eax, DWORD PTR _this$[ebp]
  00035	40		 inc	 eax
  00036	89 45 ec	 mov	 DWORD PTR $T2[ebp], eax
  00039	eb 04		 jmp	 SHORT $LN22@destroy_no
$LN26@destroy_no:
  0003b	83 65 ec 00	 and	 DWORD PTR $T2[ebp], 0
$LN22@destroy_no:
; File C:\Program Files (x86)\Microsoft Visual Studio\2019\Community\VC\Tools\MSVC\14.28.29333\include\xmemory

; 696  :         _Deallocate<_New_alignof<value_type>>(_Ptr, sizeof(value_type) * _Count);

  0003f	33 c0		 xor	 eax, eax
  00041	40		 inc	 eax
  00042	6b c0 14	 imul	 eax, eax, 20
  00045	50		 push	 eax
  00046	ff 75 08	 push	 DWORD PTR _n$[ebp]
  00049	e8 00 00 00 00	 call	 ??$_Deallocate@$07$0A@@std@@YAXPAXI@Z ; std::_Deallocate<8,0>
  0004e	59		 pop	 ecx
  0004f	59		 pop	 ecx
; File D:\Metin2 Server Files\mainline\SRC_2014\M2Data\include\boost\unordered\detail\implementation.hpp

; 3341 :         }

  00050	c9		 leave
  00051	c2 04 00	 ret	 4
?destroy_node@?$table@U?$map@V?$allocator@U?$pair@$$CBKUItem@CEterFileDict@@@std@@@std@@KUItem@CEterFileDict@@U?$hash@K@boost@@U?$equal_to@K@2@@detail@unordered@boost@@@detail@unordered@boost@@QAEXPAU?$ptr_node@U?$pair@$$CBKUItem@CEterFileDict@@@std@@@234@@Z ENDP ; boost::unordered::detail::table<boost::unordered::detail::map<std::allocator<std::pair<unsigned long const ,CEterFileDict::Item> >,unsigned long,CEterFileDict::Item,boost::hash<unsigned long>,std::equal_to<unsigned long> > >::destroy_node
_TEXT	ENDS
; Function compile flags: /Odspy
; File D:\Metin2 Server Files\mainline\SRC_2014\M2Data\include\boost\unordered\detail\implementation.hpp
; File C:\Program Files (x86)\Microsoft Visual Studio\2019\Community\VC\Tools\MSVC\14.28.29333\include\vcruntime_new.h
; File D:\Metin2 Server Files\mainline\SRC_2014\M2Data\include\boost\unordered\detail\implementation.hpp
;	COMDAT ??0?$table@U?$map@V?$allocator@U?$pair@$$CBKUItem@CEterFileDict@@@std@@@std@@KUItem@CEterFileDict@@U?$hash@K@boost@@U?$equal_to@K@2@@detail@unordered@boost@@@detail@unordered@boost@@QAE@IABU?$hash@K@3@ABU?$equal_to@K@std@@ABV?$allocator@U?$ptr_node@U?$pair@$$CBKUItem@CEterFileDict@@@std@@@detail@unordered@boost@@@6@@Z
_TEXT	SEGMENT
$T2 = -24						; size = 4
_this$ = -20						; size = 4
_which$ = -16						; size = 1
__$EHRec$ = -12						; size = 12
_num_buckets$ = 8					; size = 4
_hf$ = 12						; size = 4
_eq$ = 16						; size = 4
_a$ = 20						; size = 4
??0?$table@U?$map@V?$allocator@U?$pair@$$CBKUItem@CEterFileDict@@@std@@@std@@KUItem@CEterFileDict@@U?$hash@K@boost@@U?$equal_to@K@2@@detail@unordered@boost@@@detail@unordered@boost@@QAE@IABU?$hash@K@3@ABU?$equal_to@K@std@@ABV?$allocator@U?$ptr_node@U?$pair@$$CBKUItem@CEterFileDict@@@std@@@detail@unordered@boost@@@6@@Z PROC ; boost::unordered::detail::table<boost::unordered::detail::map<std::allocator<std::pair<unsigned long const ,CEterFileDict::Item> >,unsigned long,CEterFileDict::Item,boost::hash<unsigned long>,std::equal_to<unsigned long> > >::table<boost::unordered::detail::map<std::allocator<std::pair<unsigned long const ,CEterFileDict::Item> >,unsigned long,CEterFileDict::Item,boost::hash<unsigned long>,std::equal_to<unsigned long> > >, COMDAT
; _this$ = ecx

; 3123 :         {

  00000	55		 push	 ebp
  00001	8b ec		 mov	 ebp, esp
  00003	6a ff		 push	 -1
  00005	68 00 00 00 00	 push	 __ehhandler$??0?$table@U?$map@V?$allocator@U?$pair@$$CBKUItem@CEterFileDict@@@std@@@std@@KUItem@CEterFileDict@@U?$hash@K@boost@@U?$equal_to@K@2@@detail@unordered@boost@@@detail@unordered@boost@@QAE@IABU?$hash@K@3@ABU?$equal_to@K@std@@ABV?$allocator@U?$ptr_node@U?$pair@$$CBKUItem@CEterFileDict@@@std@@@detail@unordered@boost@@@6@@Z
  0000a	64 a1 00 00 00
	00		 mov	 eax, DWORD PTR fs:0
  00010	50		 push	 eax
  00011	83 ec 0c	 sub	 esp, 12			; 0000000cH
  00014	a1 00 00 00 00	 mov	 eax, DWORD PTR ___security_cookie
  00019	33 c5		 xor	 eax, ebp
  0001b	50		 push	 eax
  0001c	8d 45 f4	 lea	 eax, DWORD PTR __$EHRec$[ebp]
  0001f	64 a3 00 00 00
	00		 mov	 DWORD PTR fs:0, eax
  00025	89 4d ec	 mov	 DWORD PTR _this$[ebp], ecx

; 2761 :         functions(H const& hf, P const& eq) : current_(0)

  00028	8b 45 ec	 mov	 eax, DWORD PTR _this$[ebp]
  0002b	c6 00 00	 mov	 BYTE PTR [eax], 0

; 2762 :         {
; 2763 :           construct_functions(current_, hf, eq);

  0002e	8b 45 ec	 mov	 eax, DWORD PTR _this$[ebp]
  00031	8a 00		 mov	 al, BYTE PTR [eax]
  00033	88 45 f0	 mov	 BYTE PTR _which$[ebp], al

; 2827 :           new ((void*)&funcs_[which]) function_pair(hf, eq);

  00036	0f b6 45 f0	 movzx	 eax, BYTE PTR _which$[ebp]
  0003a	8b 4d ec	 mov	 ecx, DWORD PTR _this$[ebp]
  0003d	8d 44 01 01	 lea	 eax, DWORD PTR [ecx+eax+1]
; File C:\Program Files (x86)\Microsoft Visual Studio\2019\Community\VC\Tools\MSVC\14.28.29333\include\vcruntime_new.h

; 169  :         return _Where;

  00041	89 45 e8	 mov	 DWORD PTR $T2[ebp], eax
; File D:\Metin2 Server Files\mainline\SRC_2014\M2Data\include\boost\unordered\detail\implementation.hpp

; 3120 :             : functions(hf, eq), allocators_(a, a),

  00044	83 65 fc 00	 and	 DWORD PTR __$EHRec$[ebp+8], 0

; 2609 :           return boost::unordered::detail::next_prime(min);

  00048	ff 75 08	 push	 DWORD PTR _num_buckets$[ebp]
  0004b	e8 00 00 00 00	 call	 ?next_prime@detail@unordered@boost@@YAII@Z ; boost::unordered::detail::next_prime
  00050	59		 pop	 ecx

; 3121 :               bucket_count_(policy::new_bucket_count(num_buckets)), size_(0),

  00051	8b 4d ec	 mov	 ecx, DWORD PTR _this$[ebp]
  00054	89 41 04	 mov	 DWORD PTR [ecx+4], eax
  00057	8b 45 ec	 mov	 eax, DWORD PTR _this$[ebp]
  0005a	83 60 08 00	 and	 DWORD PTR [eax+8], 0

; 3122 :               mlf_(1.0f), max_load_(0), buckets_()

  0005e	8b 45 ec	 mov	 eax, DWORD PTR _this$[ebp]
  00061	f3 0f 10 05 00
	00 00 00	 movss	 xmm0, DWORD PTR __real@3f800000
  00069	f3 0f 11 40 0c	 movss	 DWORD PTR [eax+12], xmm0
  0006e	8b 45 ec	 mov	 eax, DWORD PTR _this$[ebp]
  00071	83 60 10 00	 and	 DWORD PTR [eax+16], 0
  00075	8b 45 ec	 mov	 eax, DWORD PTR _this$[ebp]
  00078	83 60 14 00	 and	 DWORD PTR [eax+20], 0

; 3124 :         }

  0007c	83 4d fc ff	 or	 DWORD PTR __$EHRec$[ebp+8], -1
  00080	8b 45 ec	 mov	 eax, DWORD PTR _this$[ebp]
  00083	8b 4d f4	 mov	 ecx, DWORD PTR __$EHRec$[ebp]
  00086	64 89 0d 00 00
	00 00		 mov	 DWORD PTR fs:0, ecx
  0008d	59		 pop	 ecx
  0008e	c9		 leave
  0008f	c2 10 00	 ret	 16			; 00000010H
_TEXT	ENDS
;	COMDAT text$x
text$x	SEGMENT
__unwindfunclet$??0?$table@U?$map@V?$allocator@U?$pair@$$CBKUItem@CEterFileDict@@@std@@@std@@KUItem@CEterFileDict@@U?$hash@K@boost@@U?$equal_to@K@2@@detail@unordered@boost@@@detail@unordered@boost@@QAE@IABU?$hash@K@3@ABU?$equal_to@K@std@@ABV?$allocator@U?$ptr_node@U?$pair@$$CBKUItem@CEterFileDict@@@std@@@detail@unordered@boost@@@6@@Z$0:
  00000	8b 4d ec	 mov	 ecx, DWORD PTR _this$[ebp]
  00003	e9 00 00 00 00	 jmp	 ??1?$functions@U?$hash@K@boost@@U?$equal_to@K@std@@@detail@unordered@boost@@QAE@XZ ; boost::unordered::detail::functions<boost::hash<unsigned long>,std::equal_to<unsigned long> >::~functions<boost::hash<unsigned long>,std::equal_to<unsigned long> >
  00008	cc		 int	 3
  00009	cc		 int	 3
  0000a	cc		 int	 3
  0000b	cc		 int	 3
  0000c	cc		 int	 3
__ehhandler$??0?$table@U?$map@V?$allocator@U?$pair@$$CBKUItem@CEterFileDict@@@std@@@std@@KUItem@CEterFileDict@@U?$hash@K@boost@@U?$equal_to@K@2@@detail@unordered@boost@@@detail@unordered@boost@@QAE@IABU?$hash@K@3@ABU?$equal_to@K@std@@ABV?$allocator@U?$ptr_node@U?$pair@$$CBKUItem@CEterFileDict@@@std@@@detail@unordered@boost@@@6@@Z:
  0000d	90		 npad	 1
  0000e	90		 npad	 1
  0000f	8b 54 24 08	 mov	 edx, DWORD PTR [esp+8]
  00013	8d 42 0c	 lea	 eax, DWORD PTR [edx+12]
  00016	8b 4a f0	 mov	 ecx, DWORD PTR [edx-16]
  00019	33 c8		 xor	 ecx, eax
  0001b	e8 00 00 00 00	 call	 @__security_check_cookie@4
  00020	b8 00 00 00 00	 mov	 eax, OFFSET __ehfuncinfo$??0?$table@U?$map@V?$allocator@U?$pair@$$CBKUItem@CEterFileDict@@@std@@@std@@KUItem@CEterFileDict@@U?$hash@K@boost@@U?$equal_to@K@2@@detail@unordered@boost@@@detail@unordered@boost@@QAE@IABU?$hash@K@3@ABU?$equal_to@K@std@@ABV?$allocator@U?$ptr_node@U?$pair@$$CBKUItem@CEterFileDict@@@std@@@detail@unordered@boost@@@6@@Z
  00025	e9 00 00 00 00	 jmp	 ___CxxFrameHandler3
text$x	ENDS
??0?$table@U?$map@V?$allocator@U?$pair@$$CBKUItem@CEterFileDict@@@std@@@std@@KUItem@CEterFileDict@@U?$hash@K@boost@@U?$equal_to@K@2@@detail@unordered@boost@@@detail@unordered@boost@@QAE@IABU?$hash@K@3@ABU?$equal_to@K@std@@ABV?$allocator@U?$ptr_node@U?$pair@$$CBKUItem@CEterFileDict@@@std@@@detail@unordered@boost@@@6@@Z ENDP ; boost::unordered::detail::table<boost::unordered::detail::map<std::allocator<std::pair<unsigned long const ,CEterFileDict::Item> >,unsigned long,CEterFileDict::Item,boost::hash<unsigned long>,std::equal_to<unsigned long> > >::table<boost::unordered::detail::map<std::allocator<std::pair<unsigned long const ,CEterFileDict::Item> >,unsigned long,CEterFileDict::Item,boost::hash<unsigned long>,std::equal_to<unsigned long> > >
; Function compile flags: /Odspy
; File D:\Metin2 Server Files\mainline\SRC_2014\M2Data\include\boost\unordered\detail\implementation.hpp
;	COMDAT ??1?$functions@U?$hash@K@boost@@U?$equal_to@K@std@@@detail@unordered@boost@@QAE@XZ
_TEXT	SEGMENT
_this$ = -4						; size = 4
??1?$functions@U?$hash@K@boost@@U?$equal_to@K@std@@@detail@unordered@boost@@QAE@XZ PROC ; boost::unordered::detail::functions<boost::hash<unsigned long>,std::equal_to<unsigned long> >::~functions<boost::hash<unsigned long>,std::equal_to<unsigned long> >, COMDAT
; _this$ = ecx

; 2780 :         {

  00000	55		 push	 ebp
  00001	8b ec		 mov	 ebp, esp
  00003	51		 push	 ecx
  00004	89 4d fc	 mov	 DWORD PTR _this$[ebp], ecx

; 2781 :           BOOST_ASSERT(!(current_ & 2));
; 2782 :           destroy_functions(current_);
; 2783 :         }

  00007	c9		 leave
  00008	c3		 ret	 0
??1?$functions@U?$hash@K@boost@@U?$equal_to@K@std@@@detail@unordered@boost@@QAE@XZ ENDP ; boost::unordered::detail::functions<boost::hash<unsigned long>,std::equal_to<unsigned long> >::~functions<boost::hash<unsigned long>,std::equal_to<unsigned long> >
_TEXT	ENDS
; Function compile flags: /Odspy
; File D:\Metin2 Server Files\mainline\SRC_2014\M2Data\include\boost\unordered\detail\implementation.hpp
; File C:\Program Files (x86)\Microsoft Visual Studio\2019\Community\VC\Tools\MSVC\14.28.29333\include\xutility
; File D:\Metin2 Server Files\mainline\SRC_2014\M2Data\include\boost\unordered\detail\implementation.hpp
;	COMDAT ?next_prime@detail@unordered@boost@@YAII@Z
_TEXT	SEGMENT
$T1 = -16						; size = 1
_prime_list_end$ = -12					; size = 4
_prime_list_begin$ = -8					; size = 4
_bound$ = -4						; size = 4
_num$ = 8						; size = 4
?next_prime@detail@unordered@boost@@YAII@Z PROC		; boost::unordered::detail::next_prime, COMDAT

; 327  :       {

  00000	55		 push	 ebp
  00001	8b ec		 mov	 ebp, esp
  00003	83 ec 10	 sub	 esp, 16			; 00000010H

; 328  :         std::size_t const* const prime_list_begin = prime_list::value;

  00006	c7 45 f8 00 00
	00 00		 mov	 DWORD PTR _prime_list_begin$[ebp], OFFSET ?value@?$prime_list_template@I@detail@unordered@boost@@2QBIB ; boost::unordered::detail::prime_list_template<unsigned int>::value

; 329  :         std::size_t const* const prime_list_end =

  0000d	a1 00 00 00 00	 mov	 eax, DWORD PTR ?length@?$prime_list_template@I@detail@unordered@boost@@2HB ; boost::unordered::detail::prime_list_template<unsigned int>::length
  00012	8b 4d f8	 mov	 ecx, DWORD PTR _prime_list_begin$[ebp]
  00015	8d 04 81	 lea	 eax, DWORD PTR [ecx+eax*4]
  00018	89 45 f4	 mov	 DWORD PTR _prime_list_end$[ebp], eax
; File C:\Program Files (x86)\Microsoft Visual Studio\2019\Community\VC\Tools\MSVC\14.28.29333\include\xutility

; 5873 :     return _STD lower_bound(_First, _Last, _Val, less<>{});

  0001b	33 c0		 xor	 eax, eax
  0001d	88 45 f0	 mov	 BYTE PTR $T1[ebp], al
  00020	ff 75 f0	 push	 DWORD PTR $T1[ebp]
  00023	8d 45 08	 lea	 eax, DWORD PTR _num$[ebp]
  00026	50		 push	 eax
  00027	ff 75 f4	 push	 DWORD PTR _prime_list_end$[ebp]
  0002a	ff 75 f8	 push	 DWORD PTR _prime_list_begin$[ebp]
  0002d	e8 00 00 00 00	 call	 ??$lower_bound@PBIIU?$less@X@std@@@std@@YAPBIPBIQBIABIU?$less@X@0@@Z ; std::lower_bound<unsigned int const *,unsigned int,std::less<void> >
  00032	83 c4 10	 add	 esp, 16			; 00000010H
; File D:\Metin2 Server Files\mainline\SRC_2014\M2Data\include\boost\unordered\detail\implementation.hpp

; 331  :         std::size_t const* bound =

  00035	89 45 fc	 mov	 DWORD PTR _bound$[ebp], eax

; 332  :           std::lower_bound(prime_list_begin, prime_list_end, num);
; 333  :         if (bound == prime_list_end)

  00038	8b 45 fc	 mov	 eax, DWORD PTR _bound$[ebp]
  0003b	3b 45 f4	 cmp	 eax, DWORD PTR _prime_list_end$[ebp]
  0003e	75 09		 jne	 SHORT $LN2@next_prime

; 334  :           bound--;

  00040	8b 45 fc	 mov	 eax, DWORD PTR _bound$[ebp]
  00043	83 e8 04	 sub	 eax, 4
  00046	89 45 fc	 mov	 DWORD PTR _bound$[ebp], eax
$LN2@next_prime:

; 335  :         return *bound;

  00049	8b 45 fc	 mov	 eax, DWORD PTR _bound$[ebp]
  0004c	8b 00		 mov	 eax, DWORD PTR [eax]

; 336  :       }

  0004e	c9		 leave
  0004f	c3		 ret	 0
?next_prime@detail@unordered@boost@@YAII@Z ENDP		; boost::unordered::detail::next_prime
_TEXT	ENDS
; Function compile flags: /Odspy
; File C:\Program Files (x86)\Microsoft Visual Studio\2019\Community\VC\Tools\MSVC\14.28.29333\include\xmemory
;	COMDAT ??$_Allocate_manually_vector_aligned@U_Default_allocate_traits@std@@@std@@YAPAXI@Z
_TEXT	SEGMENT
__Ptr$ = -12						; size = 4
__Block_size$ = -8					; size = 4
__Ptr_container$ = -4					; size = 4
__Bytes$ = 8						; size = 4
??$_Allocate_manually_vector_aligned@U_Default_allocate_traits@std@@@std@@YAPAXI@Z PROC ; std::_Allocate_manually_vector_aligned<std::_Default_allocate_traits>, COMDAT

; 113  : __declspec(allocator) void* _Allocate_manually_vector_aligned(const size_t _Bytes) {

  00000	55		 push	 ebp
  00001	8b ec		 mov	 ebp, esp
  00003	83 ec 0c	 sub	 esp, 12			; 0000000cH

; 114  :     // allocate _Bytes manually aligned to at least _Big_allocation_alignment
; 115  :     const size_t _Block_size = _Non_user_size + _Bytes;

  00006	8b 45 08	 mov	 eax, DWORD PTR __Bytes$[ebp]
  00009	83 c0 23	 add	 eax, 35			; 00000023H
  0000c	89 45 f8	 mov	 DWORD PTR __Block_size$[ebp], eax

; 116  :     if (_Block_size <= _Bytes) {

  0000f	8b 45 f8	 mov	 eax, DWORD PTR __Block_size$[ebp]
  00012	3b 45 08	 cmp	 eax, DWORD PTR __Bytes$[ebp]
  00015	77 05		 ja	 SHORT $LN12@Allocate_m

; 117  :         _Throw_bad_array_new_length(); // add overflow

  00017	e8 00 00 00 00	 call	 ?_Throw_bad_array_new_length@std@@YAXXZ ; std::_Throw_bad_array_new_length
$LN12@Allocate_m:

; 77   :         return ::operator new(_Bytes);

  0001c	ff 75 f8	 push	 DWORD PTR __Block_size$[ebp]
  0001f	e8 00 00 00 00	 call	 ??2@YAPAXI@Z		; operator new
  00024	59		 pop	 ecx

; 118  :     }
; 119  : 
; 120  :     const uintptr_t _Ptr_container = reinterpret_cast<uintptr_t>(_Traits::_Allocate(_Block_size));

  00025	89 45 fc	 mov	 DWORD PTR __Ptr_container$[ebp], eax
$LN4@Allocate_m:

; 121  :     _STL_VERIFY(_Ptr_container != 0, "invalid argument"); // validate even in release since we're doing p[-1]

  00028	83 7d fc 00	 cmp	 DWORD PTR __Ptr_container$[ebp], 0
  0002c	74 02		 je	 SHORT $LN7@Allocate_m
  0002e	eb 09		 jmp	 SHORT $LN2@Allocate_m
$LN7@Allocate_m:
  00030	e8 00 00 00 00	 call	 __invalid_parameter_noinfo_noreturn
  00035	33 c0		 xor	 eax, eax
  00037	75 f7		 jne	 SHORT $LN7@Allocate_m
$LN2@Allocate_m:
  00039	33 c0		 xor	 eax, eax
  0003b	75 eb		 jne	 SHORT $LN4@Allocate_m

; 122  :     void* const _Ptr = reinterpret_cast<void*>((_Ptr_container + _Non_user_size) & ~(_Big_allocation_alignment - 1));

  0003d	8b 45 fc	 mov	 eax, DWORD PTR __Ptr_container$[ebp]
  00040	83 c0 23	 add	 eax, 35			; 00000023H
  00043	83 e0 e0	 and	 eax, -32		; ffffffe0H
  00046	89 45 f4	 mov	 DWORD PTR __Ptr$[ebp], eax

; 123  :     static_cast<uintptr_t*>(_Ptr)[-1] = _Ptr_container;

  00049	6a 04		 push	 4
  0004b	58		 pop	 eax
  0004c	6b c0 ff	 imul	 eax, eax, -1
  0004f	8b 4d f4	 mov	 ecx, DWORD PTR __Ptr$[ebp]
  00052	8b 55 fc	 mov	 edx, DWORD PTR __Ptr_container$[ebp]
  00055	89 14 01	 mov	 DWORD PTR [ecx+eax], edx

; 124  : 
; 125  : #ifdef _DEBUG
; 126  :     static_cast<uintptr_t*>(_Ptr)[-2] = _Big_allocation_sentinel;
; 127  : #endif // _DEBUG
; 128  :     return _Ptr;

  00058	8b 45 f4	 mov	 eax, DWORD PTR __Ptr$[ebp]
$LN11@Allocate_m:

; 129  : }

  0005b	c9		 leave
  0005c	c3		 ret	 0
??$_Allocate_manually_vector_aligned@U_Default_allocate_traits@std@@@std@@YAPAXI@Z ENDP ; std::_Allocate_manually_vector_aligned<std::_Default_allocate_traits>
_TEXT	ENDS
; Function compile flags: /Odspy
; File C:\Program Files (x86)\Microsoft Visual Studio\2019\Community\VC\Tools\MSVC\14.28.29333\include\xmemory
;	COMDAT ??$_Allocate@$07U_Default_allocate_traits@std@@$0A@@std@@YAPAXI@Z
_TEXT	SEGMENT
__Bytes$ = 8						; size = 4
??$_Allocate@$07U_Default_allocate_traits@std@@$0A@@std@@YAPAXI@Z PROC ; std::_Allocate<8,std::_Default_allocate_traits,0>, COMDAT

; 197  : __declspec(allocator) void* _Allocate(const size_t _Bytes) {

  00000	55		 push	 ebp
  00001	8b ec		 mov	 ebp, esp

; 198  :     // allocate _Bytes when !_HAS_ALIGNED_NEW || _Align <= __STDCPP_DEFAULT_NEW_ALIGNMENT__
; 199  : #if defined(_M_IX86) || defined(_M_X64)
; 200  :     if (_Bytes >= _Big_allocation_threshold) { // boost the alignment of big allocations to help autovectorization

  00003	81 7d 08 00 10
	00 00		 cmp	 DWORD PTR __Bytes$[ebp], 4096 ; 00001000H
  0000a	72 0b		 jb	 SHORT $LN2@Allocate

; 201  :         return _Allocate_manually_vector_aligned<_Traits>(_Bytes);

  0000c	ff 75 08	 push	 DWORD PTR __Bytes$[ebp]
  0000f	e8 00 00 00 00	 call	 ??$_Allocate_manually_vector_aligned@U_Default_allocate_traits@std@@@std@@YAPAXI@Z ; std::_Allocate_manually_vector_aligned<std::_Default_allocate_traits>
  00014	59		 pop	 ecx
  00015	eb 13		 jmp	 SHORT $LN1@Allocate
$LN2@Allocate:

; 202  :     }
; 203  : #endif // defined(_M_IX86) || defined(_M_X64)
; 204  : 
; 205  :     if (_Bytes != 0) {

  00017	83 7d 08 00	 cmp	 DWORD PTR __Bytes$[ebp], 0
  0001b	74 0b		 je	 SHORT $LN3@Allocate

; 77   :         return ::operator new(_Bytes);

  0001d	ff 75 08	 push	 DWORD PTR __Bytes$[ebp]
  00020	e8 00 00 00 00	 call	 ??2@YAPAXI@Z		; operator new
  00025	59		 pop	 ecx

; 206  :         return _Traits::_Allocate(_Bytes);

  00026	eb 02		 jmp	 SHORT $LN1@Allocate
$LN3@Allocate:

; 207  :     }
; 208  : 
; 209  :     return nullptr;

  00028	33 c0		 xor	 eax, eax
$LN1@Allocate:

; 210  : }

  0002a	5d		 pop	 ebp
  0002b	c3		 ret	 0
??$_Allocate@$07U_Default_allocate_traits@std@@$0A@@std@@YAPAXI@Z ENDP ; std::_Allocate<8,std::_Default_allocate_traits,0>
_TEXT	ENDS
; Function compile flags: /Odspy
; File C:\Program Files (x86)\Microsoft Visual Studio\2019\Community\VC\Tools\MSVC\14.28.29333\include\xmemory
;	COMDAT ??$_Deallocate@$07$0A@@std@@YAXPAXI@Z
_TEXT	SEGMENT
__$EHRec$ = -12						; size = 12
__Ptr$ = 8						; size = 4
__Bytes$ = 12						; size = 4
??$_Deallocate@$07$0A@@std@@YAXPAXI@Z PROC		; std::_Deallocate<8,0>, COMDAT

; 213  : void _Deallocate(void* _Ptr, size_t _Bytes) noexcept {

  00000	55		 push	 ebp
  00001	8b ec		 mov	 ebp, esp
  00003	6a ff		 push	 -1
  00005	68 00 00 00 00	 push	 __ehhandler$??$_Deallocate@$07$0A@@std@@YAXPAXI@Z
  0000a	64 a1 00 00 00
	00		 mov	 eax, DWORD PTR fs:0
  00010	50		 push	 eax
  00011	a1 00 00 00 00	 mov	 eax, DWORD PTR ___security_cookie
  00016	33 c5		 xor	 eax, ebp
  00018	50		 push	 eax
  00019	8d 45 f4	 lea	 eax, DWORD PTR __$EHRec$[ebp]
  0001c	64 a3 00 00 00
	00		 mov	 DWORD PTR fs:0, eax

; 214  :     // deallocate storage allocated by _Allocate when !_HAS_ALIGNED_NEW || _Align <= __STDCPP_DEFAULT_NEW_ALIGNMENT__
; 215  : #if defined(_M_IX86) || defined(_M_X64)
; 216  :     if (_Bytes >= _Big_allocation_threshold) { // boost the alignment of big allocations to help autovectorization

  00022	81 7d 0c 00 10
	00 00		 cmp	 DWORD PTR __Bytes$[ebp], 4096 ; 00001000H
  00029	72 0f		 jb	 SHORT $LN2@Deallocate

; 217  :         _Adjust_manually_vector_aligned(_Ptr, _Bytes);

  0002b	8d 45 0c	 lea	 eax, DWORD PTR __Bytes$[ebp]
  0002e	50		 push	 eax
  0002f	8d 45 08	 lea	 eax, DWORD PTR __Ptr$[ebp]
  00032	50		 push	 eax
  00033	e8 00 00 00 00	 call	 ?_Adjust_manually_vector_aligned@std@@YAXAAPAXAAI@Z ; std::_Adjust_manually_vector_aligned
  00038	59		 pop	 ecx
  00039	59		 pop	 ecx
$LN2@Deallocate:

; 218  :     }
; 219  : #endif // defined(_M_IX86) || defined(_M_X64)
; 220  : 
; 221  :     ::operator delete(_Ptr, _Bytes);

  0003a	ff 75 0c	 push	 DWORD PTR __Bytes$[ebp]
  0003d	ff 75 08	 push	 DWORD PTR __Ptr$[ebp]
  00040	e8 00 00 00 00	 call	 ??3@YAXPAXI@Z		; operator delete
  00045	59		 pop	 ecx
  00046	59		 pop	 ecx

; 222  : }

  00047	8b 4d f4	 mov	 ecx, DWORD PTR __$EHRec$[ebp]
  0004a	64 89 0d 00 00
	00 00		 mov	 DWORD PTR fs:0, ecx
  00051	59		 pop	 ecx
  00052	c9		 leave
  00053	c3		 ret	 0
  00054	cc		 int	 3
  00055	cc		 int	 3
  00056	cc		 int	 3
  00057	cc		 int	 3
  00058	cc		 int	 3
_TEXT	ENDS
;	COMDAT text$x
text$x	SEGMENT
__ehhandler$??$_Deallocate@$07$0A@@std@@YAXPAXI@Z:
  00000	90		 npad	 1
  00001	90		 npad	 1
  00002	8b 54 24 08	 mov	 edx, DWORD PTR [esp+8]
  00006	8d 42 0c	 lea	 eax, DWORD PTR [edx+12]
  00009	8b 4a fc	 mov	 ecx, DWORD PTR [edx-4]
  0000c	33 c8		 xor	 ecx, eax
  0000e	e8 00 00 00 00	 call	 @__security_check_cookie@4
  00013	b8 00 00 00 00	 mov	 eax, OFFSET __ehfuncinfo$??$_Deallocate@$07$0A@@std@@YAXPAXI@Z
  00018	e9 00 00 00 00	 jmp	 ___CxxFrameHandler3
text$x	ENDS
??$_Deallocate@$07$0A@@std@@YAXPAXI@Z ENDP		; std::_Deallocate<8,0>
; Function compile flags: /Odspy
; File C:\Program Files (x86)\Microsoft Visual Studio\2019\Community\VC\Tools\MSVC\14.28.29333\include\xmemory
; File C:\Program Files (x86)\Microsoft Visual Studio\2019\Community\VC\Tools\MSVC\14.28.29333\include\xstddef
; File C:\Program Files (x86)\Microsoft Visual Studio\2019\Community\VC\Tools\MSVC\14.28.29333\include\vcruntime_new.h
; File C:\Program Files (x86)\Microsoft Visual Studio\2019\Community\VC\Tools\MSVC\14.28.29333\include\type_traits
; File C:\Program Files (x86)\Microsoft Visual Studio\2019\Community\VC\Tools\MSVC\14.28.29333\include\xmemory
;	COMDAT ??$_Construct_in_place@PADABQAD@std@@YAXAAPADABQAD@Z
_TEXT	SEGMENT
$T1 = -12						; size = 4
$T2 = -8						; size = 4
$T3 = -4						; size = 4
__Obj$ = 8						; size = 4
_<_Args_0>$ = 12					; size = 4
??$_Construct_in_place@PADABQAD@std@@YAXAAPADABQAD@Z PROC ; std::_Construct_in_place<char *,char * const &>, COMDAT

; 228  : void _Construct_in_place(_Ty& _Obj, _Types&&... _Args) noexcept(is_nothrow_constructible_v<_Ty, _Types...>) {

  00000	55		 push	 ebp
  00001	8b ec		 mov	 ebp, esp
  00003	83 ec 0c	 sub	 esp, 12			; 0000000cH
; File C:\Program Files (x86)\Microsoft Visual Studio\2019\Community\VC\Tools\MSVC\14.28.29333\include\xstddef

; 275  :     return __builtin_addressof(_Val);

  00006	8b 45 08	 mov	 eax, DWORD PTR __Obj$[ebp]
  00009	89 45 fc	 mov	 DWORD PTR $T3[ebp], eax
; File C:\Program Files (x86)\Microsoft Visual Studio\2019\Community\VC\Tools\MSVC\14.28.29333\include\vcruntime_new.h

; 169  :         return _Where;

  0000c	8b 45 fc	 mov	 eax, DWORD PTR $T3[ebp]
  0000f	89 45 f8	 mov	 DWORD PTR $T2[ebp], eax
; File C:\Program Files (x86)\Microsoft Visual Studio\2019\Community\VC\Tools\MSVC\14.28.29333\include\type_traits

; 1443 :     return static_cast<_Ty&&>(_Arg);

  00012	8b 45 0c	 mov	 eax, DWORD PTR _<_Args_0>$[ebp]
  00015	89 45 f4	 mov	 DWORD PTR $T1[ebp], eax
; File C:\Program Files (x86)\Microsoft Visual Studio\2019\Community\VC\Tools\MSVC\14.28.29333\include\xmemory

; 229  :     ::new (const_cast<void*>(static_cast<const volatile void*>(_STD addressof(_Obj))))

  00018	8b 45 f8	 mov	 eax, DWORD PTR $T2[ebp]
  0001b	8b 4d f4	 mov	 ecx, DWORD PTR $T1[ebp]
  0001e	8b 09		 mov	 ecx, DWORD PTR [ecx]
  00020	89 08		 mov	 DWORD PTR [eax], ecx

; 230  :         _Ty(_STD forward<_Types>(_Args)...);
; 231  : }

  00022	c9		 leave
  00023	c3		 ret	 0
??$_Construct_in_place@PADABQAD@std@@YAXAAPADABQAD@Z ENDP ; std::_Construct_in_place<char *,char * const &>
_TEXT	ENDS
; Function compile flags: /Odspy
; File C:\Program Files (x86)\Microsoft Visual Studio\2019\Community\VC\Tools\MSVC\14.28.29333\include\xstring
; File C:\Program Files (x86)\Microsoft Visual Studio\2019\Community\VC\Tools\MSVC\14.28.29333\include\xmemory
; File C:\Program Files (x86)\Microsoft Visual Studio\2019\Community\VC\Tools\MSVC\14.28.29333\include\xstring
; File C:\Program Files (x86)\Microsoft Visual Studio\2019\Community\VC\Tools\MSVC\14.28.29333\include\xmemory
; File C:\Program Files (x86)\Microsoft Visual Studio\2019\Community\VC\Tools\MSVC\14.28.29333\include\xstring
; File C:\Program Files (x86)\Microsoft Visual Studio\2019\Community\VC\Tools\MSVC\14.28.29333\include\xmemory
; File C:\Program Files (x86)\Microsoft Visual Studio\2019\Community\VC\Tools\MSVC\14.28.29333\include\xstring
; File C:\Program Files (x86)\Microsoft Visual Studio\2019\Community\VC\Tools\MSVC\14.28.29333\include\xstddef
; File C:\Program Files (x86)\Microsoft Visual Studio\2019\Community\VC\Tools\MSVC\14.28.29333\include\xstring
; File C:\Program Files (x86)\Microsoft Visual Studio\2019\Community\VC\Tools\MSVC\14.28.29333\include\xstddef
; File C:\Program Files (x86)\Microsoft Visual Studio\2019\Community\VC\Tools\MSVC\14.28.29333\include\xstring
; File C:\Program Files (x86)\Microsoft Visual Studio\2019\Community\VC\Tools\MSVC\14.28.29333\include\xmemory
; File C:\Program Files (x86)\Microsoft Visual Studio\2019\Community\VC\Tools\MSVC\14.28.29333\include\xstring
;	COMDAT ??$_Reallocate_grow_by@V<lambda_ab246b20b9526e2ef7792587e4298a77>@@PBDI@?$basic_string@DU?$char_traits@D@std@@V?$allocator@D@2@@std@@AAEAAV01@IV<lambda_ab246b20b9526e2ef7792587e4298a77>@@PBDI@Z
_TEXT	SEGMENT
__Al$ = -64						; size = 4
__First1$ = -60						; size = 4
__First1$ = -56						; size = 4
$T1 = -52						; size = 4
__Ptr$ = -48						; size = 4
$T2 = -44						; size = 4
__Old_ptr$3 = -40					; size = 4
__Old_capacity$ = -36					; size = 4
__New_capacity$ = -32					; size = 4
__New_size$ = -28					; size = 4
__New_ptr$ = -24					; size = 4
_this$ = -20						; size = 4
__Raw_new$ = -16					; size = 4
__My_data$ = -12					; size = 4
__Old_size$ = -8					; size = 4
__Overflow_is_possible$4 = -3				; size = 1
$T5 = -2						; size = 1
$T6 = -1						; size = 1
__Size_increase$ = 8					; size = 4
__Fn$ = 12						; size = 1
_<_Args_0>$ = 16					; size = 4
_<_Args_1>$ = 20					; size = 4
??$_Reallocate_grow_by@V<lambda_ab246b20b9526e2ef7792587e4298a77>@@PBDI@?$basic_string@DU?$char_traits@D@std@@V?$allocator@D@2@@std@@AAEAAV01@IV<lambda_ab246b20b9526e2ef7792587e4298a77>@@PBDI@Z PROC ; std::basic_string<char,std::char_traits<char>,std::allocator<char> >::_Reallocate_grow_by<<lambda_ab246b20b9526e2ef7792587e4298a77>,char const *,unsigned int>, COMDAT
; _this$ = ecx

; 4328 :     basic_string& _Reallocate_grow_by(const size_type _Size_increase, _Fty _Fn, _ArgTys... _Args) {

  00000	55		 push	 ebp
  00001	8b ec		 mov	 ebp, esp
  00003	83 ec 40	 sub	 esp, 64			; 00000040H
  00006	89 4d ec	 mov	 DWORD PTR _this$[ebp], ecx

; 4329 :         // reallocate to increase size by _Size_increase elements, new buffer prepared by
; 4330 :         // _Fn(_New_ptr, _Old_ptr, _Old_size, _Args...)
; 4331 :         auto& _My_data            = _Mypair._Myval2;

  00009	8b 45 ec	 mov	 eax, DWORD PTR _this$[ebp]
  0000c	89 45 f4	 mov	 DWORD PTR __My_data$[ebp], eax

; 4332 :         const size_type _Old_size = _My_data._Mysize;

  0000f	8b 45 f4	 mov	 eax, DWORD PTR __My_data$[ebp]
  00012	8b 40 10	 mov	 eax, DWORD PTR [eax+16]
  00015	89 45 f8	 mov	 DWORD PTR __Old_size$[ebp], eax

; 4333 :         if (max_size() - _Old_size < _Size_increase) {

  00018	8b 4d ec	 mov	 ecx, DWORD PTR _this$[ebp]
  0001b	e8 00 00 00 00	 call	 ?max_size@?$basic_string@DU?$char_traits@D@std@@V?$allocator@D@2@@std@@QBEIXZ ; std::basic_string<char,std::char_traits<char>,std::allocator<char> >::max_size
  00020	2b 45 f8	 sub	 eax, DWORD PTR __Old_size$[ebp]
  00023	3b 45 08	 cmp	 eax, DWORD PTR __Size_increase$[ebp]
  00026	73 05		 jae	 SHORT $LN2@Reallocate

; 4334 :             _Xlen_string(); // result too long

  00028	e8 00 00 00 00	 call	 ?_Xlen_string@std@@YAXXZ ; std::_Xlen_string
$LN2@Reallocate:

; 4335 :         }
; 4336 : 
; 4337 :         const size_type _New_size     = _Old_size + _Size_increase;

  0002d	8b 45 f8	 mov	 eax, DWORD PTR __Old_size$[ebp]
  00030	03 45 08	 add	 eax, DWORD PTR __Size_increase$[ebp]
  00033	89 45 e4	 mov	 DWORD PTR __New_size$[ebp], eax

; 4338 :         const size_type _Old_capacity = _My_data._Myres;

  00036	8b 45 f4	 mov	 eax, DWORD PTR __My_data$[ebp]
  00039	8b 40 14	 mov	 eax, DWORD PTR [eax+20]
  0003c	89 45 dc	 mov	 DWORD PTR __Old_capacity$[ebp], eax

; 4298 :         return _Calculate_growth(_Requested, _Mypair._Myval2._Myres, max_size());

  0003f	8b 4d ec	 mov	 ecx, DWORD PTR _this$[ebp]
  00042	e8 00 00 00 00	 call	 ?max_size@?$basic_string@DU?$char_traits@D@std@@V?$allocator@D@2@@std@@QBEIXZ ; std::basic_string<char,std::char_traits<char>,std::allocator<char> >::max_size
  00047	50		 push	 eax
  00048	8b 45 ec	 mov	 eax, DWORD PTR _this$[ebp]
  0004b	ff 70 14	 push	 DWORD PTR [eax+20]
  0004e	ff 75 e4	 push	 DWORD PTR __New_size$[ebp]
  00051	e8 00 00 00 00	 call	 ?_Calculate_growth@?$basic_string@DU?$char_traits@D@std@@V?$allocator@D@2@@std@@CAIIII@Z ; std::basic_string<char,std::char_traits<char>,std::allocator<char> >::_Calculate_growth
  00056	83 c4 0c	 add	 esp, 12			; 0000000cH
  00059	89 45 e0	 mov	 DWORD PTR __New_capacity$[ebp], eax

; 4409 :         return _Mypair._Get_first();

  0005c	8b 45 ec	 mov	 eax, DWORD PTR _this$[ebp]
; File C:\Program Files (x86)\Microsoft Visual Studio\2019\Community\VC\Tools\MSVC\14.28.29333\include\xmemory

; 1347 :         return *this;

  0005f	89 45 d4	 mov	 DWORD PTR $T2[ebp], eax
; File C:\Program Files (x86)\Microsoft Visual Studio\2019\Community\VC\Tools\MSVC\14.28.29333\include\xstring

; 4409 :         return _Mypair._Get_first();

  00062	8b 45 d4	 mov	 eax, DWORD PTR $T2[ebp]
  00065	89 45 c0	 mov	 DWORD PTR __Al$[ebp], eax
; File C:\Program Files (x86)\Microsoft Visual Studio\2019\Community\VC\Tools\MSVC\14.28.29333\include\xmemory

; 56   :     constexpr bool _Overflow_is_possible = _Ty_size > 1;

  00068	c6 45 fd 00	 mov	 BYTE PTR __Overflow_is_possible$4[ebp], 0
; File C:\Program Files (x86)\Microsoft Visual Studio\2019\Community\VC\Tools\MSVC\14.28.29333\include\xstring

; 4341 :         const pointer _New_ptr        = _Al.allocate(_New_capacity + 1); // throws

  0006c	8b 45 e0	 mov	 eax, DWORD PTR __New_capacity$[ebp]
  0006f	40		 inc	 eax
; File C:\Program Files (x86)\Microsoft Visual Studio\2019\Community\VC\Tools\MSVC\14.28.29333\include\xmemory

; 814  :         return static_cast<_Ty*>(_Allocate<_New_alignof<_Ty>>(_Get_size_of_n<sizeof(_Ty)>(_Count)));

  00070	50		 push	 eax
  00071	e8 00 00 00 00	 call	 ??$_Allocate@$07U_Default_allocate_traits@std@@$0A@@std@@YAPAXI@Z ; std::_Allocate<8,std::_Default_allocate_traits,0>
  00076	59		 pop	 ecx
; File C:\Program Files (x86)\Microsoft Visual Studio\2019\Community\VC\Tools\MSVC\14.28.29333\include\xstring

; 4341 :         const pointer _New_ptr        = _Al.allocate(_New_capacity + 1); // throws

  00077	89 45 e8	 mov	 DWORD PTR __New_ptr$[ebp], eax

; 4342 :         _My_data._Orphan_all();
; 4343 :         _My_data._Mysize      = _New_size;

  0007a	8b 45 f4	 mov	 eax, DWORD PTR __My_data$[ebp]
  0007d	8b 4d e4	 mov	 ecx, DWORD PTR __New_size$[ebp]
  00080	89 48 10	 mov	 DWORD PTR [eax+16], ecx

; 4344 :         _My_data._Myres       = _New_capacity;

  00083	8b 45 f4	 mov	 eax, DWORD PTR __My_data$[ebp]
  00086	8b 4d e0	 mov	 ecx, DWORD PTR __New_capacity$[ebp]
  00089	89 48 14	 mov	 DWORD PTR [eax+20], ecx

; 4345 :         _Elem* const _Raw_new = _Unfancy(_New_ptr);

  0008c	8b 45 e8	 mov	 eax, DWORD PTR __New_ptr$[ebp]
  0008f	89 45 d0	 mov	 DWORD PTR __Ptr$[ebp], eax
; File C:\Program Files (x86)\Microsoft Visual Studio\2019\Community\VC\Tools\MSVC\14.28.29333\include\xstddef

; 289  :     return _Ptr;

  00092	8b 45 d0	 mov	 eax, DWORD PTR __Ptr$[ebp]
  00095	89 45 f0	 mov	 DWORD PTR __Raw_new$[ebp], eax
; File C:\Program Files (x86)\Microsoft Visual Studio\2019\Community\VC\Tools\MSVC\14.28.29333\include\xstring

; 4346 :         if (_BUF_SIZE <= _Old_capacity) {

  00098	83 7d dc 10	 cmp	 DWORD PTR __Old_capacity$[ebp], 16 ; 00000010H
  0009c	72 65		 jb	 SHORT $LN3@Reallocate

; 4347 :             const pointer _Old_ptr = _My_data._Bx._Ptr;

  0009e	8b 45 f4	 mov	 eax, DWORD PTR __My_data$[ebp]
  000a1	8b 00		 mov	 eax, DWORD PTR [eax]
  000a3	89 45 d8	 mov	 DWORD PTR __Old_ptr$3[ebp], eax
; File C:\Program Files (x86)\Microsoft Visual Studio\2019\Community\VC\Tools\MSVC\14.28.29333\include\xstddef

; 289  :     return _Ptr;

  000a6	8b 45 d8	 mov	 eax, DWORD PTR __Old_ptr$3[ebp]
  000a9	89 45 cc	 mov	 DWORD PTR $T1[ebp], eax
; File C:\Program Files (x86)\Microsoft Visual Studio\2019\Community\VC\Tools\MSVC\14.28.29333\include\xstring

; 62   :         _CSTD memcpy(_First1, _First2, _Count * sizeof(_Elem));

  000ac	ff 75 f8	 push	 DWORD PTR __Old_size$[ebp]
  000af	ff 75 cc	 push	 DWORD PTR $T1[ebp]
  000b2	ff 75 f0	 push	 DWORD PTR __Raw_new$[ebp]
  000b5	e8 00 00 00 00	 call	 _memcpy
  000ba	83 c4 0c	 add	 esp, 12			; 0000000cH

; 2951 :                 _Traits::copy(_New_ptr + _Old_size, _Ptr, _Count);

  000bd	8b 45 f0	 mov	 eax, DWORD PTR __Raw_new$[ebp]
  000c0	03 45 f8	 add	 eax, DWORD PTR __Old_size$[ebp]
  000c3	89 45 c8	 mov	 DWORD PTR __First1$[ebp], eax

; 62   :         _CSTD memcpy(_First1, _First2, _Count * sizeof(_Elem));

  000c6	ff 75 14	 push	 DWORD PTR _<_Args_1>$[ebp]
  000c9	ff 75 10	 push	 DWORD PTR _<_Args_0>$[ebp]
  000cc	ff 75 c8	 push	 DWORD PTR __First1$[ebp]
  000cf	e8 00 00 00 00	 call	 _memcpy
  000d4	83 c4 0c	 add	 esp, 12			; 0000000cH

; 2952 :                 _Traits::assign(_New_ptr[_Old_size + _Count], _Elem());

  000d7	c6 45 ff 00	 mov	 BYTE PTR $T6[ebp], 0
  000db	8b 45 f8	 mov	 eax, DWORD PTR __Old_size$[ebp]
  000de	03 45 14	 add	 eax, DWORD PTR _<_Args_1>$[ebp]

; 428  :         _Left = _Right;

  000e1	8b 4d f0	 mov	 ecx, DWORD PTR __Raw_new$[ebp]
  000e4	8a 55 ff	 mov	 dl, BYTE PTR $T6[ebp]
  000e7	88 14 01	 mov	 BYTE PTR [ecx+eax], dl

; 4348 :             _Fn(_Raw_new, _Unfancy(_Old_ptr), _Old_size, _Args...);
; 4349 :             _Al.deallocate(_Old_ptr, _Old_capacity + 1);

  000ea	8b 45 dc	 mov	 eax, DWORD PTR __Old_capacity$[ebp]
  000ed	40		 inc	 eax
; File C:\Program Files (x86)\Microsoft Visual Studio\2019\Community\VC\Tools\MSVC\14.28.29333\include\xmemory

; 810  :         _Deallocate<_New_alignof<_Ty>>(_Ptr, sizeof(_Ty) * _Count);

  000ee	50		 push	 eax
  000ef	ff 75 d8	 push	 DWORD PTR __Old_ptr$3[ebp]
  000f2	e8 00 00 00 00	 call	 ??$_Deallocate@$07$0A@@std@@YAXPAXI@Z ; std::_Deallocate<8,0>
  000f7	59		 pop	 ecx
  000f8	59		 pop	 ecx
; File C:\Program Files (x86)\Microsoft Visual Studio\2019\Community\VC\Tools\MSVC\14.28.29333\include\xstring

; 4350 :             _My_data._Bx._Ptr = _New_ptr;

  000f9	8b 45 f4	 mov	 eax, DWORD PTR __My_data$[ebp]
  000fc	8b 4d e8	 mov	 ecx, DWORD PTR __New_ptr$[ebp]
  000ff	89 08		 mov	 DWORD PTR [eax], ecx

; 4351 :         } else {

  00101	eb 4c		 jmp	 SHORT $LN4@Reallocate
$LN3@Reallocate:

; 62   :         _CSTD memcpy(_First1, _First2, _Count * sizeof(_Elem));

  00103	ff 75 f8	 push	 DWORD PTR __Old_size$[ebp]
  00106	ff 75 f4	 push	 DWORD PTR __My_data$[ebp]
  00109	ff 75 f0	 push	 DWORD PTR __Raw_new$[ebp]
  0010c	e8 00 00 00 00	 call	 _memcpy
  00111	83 c4 0c	 add	 esp, 12			; 0000000cH

; 2951 :                 _Traits::copy(_New_ptr + _Old_size, _Ptr, _Count);

  00114	8b 45 f0	 mov	 eax, DWORD PTR __Raw_new$[ebp]
  00117	03 45 f8	 add	 eax, DWORD PTR __Old_size$[ebp]
  0011a	89 45 c4	 mov	 DWORD PTR __First1$[ebp], eax

; 62   :         _CSTD memcpy(_First1, _First2, _Count * sizeof(_Elem));

  0011d	ff 75 14	 push	 DWORD PTR _<_Args_1>$[ebp]
  00120	ff 75 10	 push	 DWORD PTR _<_Args_0>$[ebp]
  00123	ff 75 c4	 push	 DWORD PTR __First1$[ebp]
  00126	e8 00 00 00 00	 call	 _memcpy
  0012b	83 c4 0c	 add	 esp, 12			; 0000000cH

; 2952 :                 _Traits::assign(_New_ptr[_Old_size + _Count], _Elem());

  0012e	c6 45 fe 00	 mov	 BYTE PTR $T5[ebp], 0
  00132	8b 45 f8	 mov	 eax, DWORD PTR __Old_size$[ebp]
  00135	03 45 14	 add	 eax, DWORD PTR _<_Args_1>$[ebp]

; 428  :         _Left = _Right;

  00138	8b 4d f0	 mov	 ecx, DWORD PTR __Raw_new$[ebp]
  0013b	8a 55 fe	 mov	 dl, BYTE PTR $T5[ebp]
  0013e	88 14 01	 mov	 BYTE PTR [ecx+eax], dl

; 4352 :             _Fn(_Raw_new, _My_data._Bx._Buf, _Old_size, _Args...);
; 4353 :             _Construct_in_place(_My_data._Bx._Ptr, _New_ptr);

  00141	8d 45 e8	 lea	 eax, DWORD PTR __New_ptr$[ebp]
  00144	50		 push	 eax
  00145	ff 75 f4	 push	 DWORD PTR __My_data$[ebp]
  00148	e8 00 00 00 00	 call	 ??$_Construct_in_place@PADABQAD@std@@YAXAAPADABQAD@Z ; std::_Construct_in_place<char *,char * const &>
  0014d	59		 pop	 ecx
  0014e	59		 pop	 ecx
$LN4@Reallocate:

; 4354 :         }
; 4355 : 
; 4356 :         return *this;

  0014f	8b 45 ec	 mov	 eax, DWORD PTR _this$[ebp]
$LN5@Reallocate:

; 4357 :     }

  00152	c9		 leave
  00153	c2 10 00	 ret	 16			; 00000010H
??$_Reallocate_grow_by@V<lambda_ab246b20b9526e2ef7792587e4298a77>@@PBDI@?$basic_string@DU?$char_traits@D@std@@V?$allocator@D@2@@std@@AAEAAV01@IV<lambda_ab246b20b9526e2ef7792587e4298a77>@@PBDI@Z ENDP ; std::basic_string<char,std::char_traits<char>,std::allocator<char> >::_Reallocate_grow_by<<lambda_ab246b20b9526e2ef7792587e4298a77>,char const *,unsigned int>
_TEXT	ENDS
; Function compile flags: /Odspy
; File C:\Program Files (x86)\Microsoft Visual Studio\2019\Community\VC\Tools\MSVC\14.28.29333\include\xstring
; File C:\Program Files (x86)\Microsoft Visual Studio\2019\Community\VC\Tools\MSVC\14.28.29333\include\xmemory
; File C:\Program Files (x86)\Microsoft Visual Studio\2019\Community\VC\Tools\MSVC\14.28.29333\include\xstring
; File C:\Program Files (x86)\Microsoft Visual Studio\2019\Community\VC\Tools\MSVC\14.28.29333\include\xmemory
; File C:\Program Files (x86)\Microsoft Visual Studio\2019\Community\VC\Tools\MSVC\14.28.29333\include\xstring
; File C:\Program Files (x86)\Microsoft Visual Studio\2019\Community\VC\Tools\MSVC\14.28.29333\include\xmemory
; File C:\Program Files (x86)\Microsoft Visual Studio\2019\Community\VC\Tools\MSVC\14.28.29333\include\xstring
; File C:\Program Files (x86)\Microsoft Visual Studio\2019\Community\VC\Tools\MSVC\14.28.29333\include\xstddef
; File C:\Program Files (x86)\Microsoft Visual Studio\2019\Community\VC\Tools\MSVC\14.28.29333\include\xstring
; File C:\Program Files (x86)\Microsoft Visual Studio\2019\Community\VC\Tools\MSVC\14.28.29333\include\xmemory
; File C:\Program Files (x86)\Microsoft Visual Studio\2019\Community\VC\Tools\MSVC\14.28.29333\include\xstring
;	COMDAT ??$_Reallocate_for@V<lambda_9366063389c5f42a00a5088cf24e69de>@@PBD@?$basic_string@DU?$char_traits@D@std@@V?$allocator@D@2@@std@@AAEAAV01@IV<lambda_9366063389c5f42a00a5088cf24e69de>@@PBD@Z
_TEXT	SEGMENT
__Al$ = -40						; size = 4
__Ptr$ = -36						; size = 4
__Ptr$ = -32						; size = 4
$T1 = -28						; size = 4
__Old_capacity$ = -24					; size = 4
$T2 = -20						; size = 4
__New_capacity$ = -16					; size = 4
__New_ptr$ = -12					; size = 4
_this$ = -8						; size = 4
__Overflow_is_possible$3 = -2				; size = 1
$T4 = -1						; size = 1
__New_size$ = 8						; size = 4
__Fn$ = 12						; size = 1
_<_Args_0>$ = 16					; size = 4
??$_Reallocate_for@V<lambda_9366063389c5f42a00a5088cf24e69de>@@PBD@?$basic_string@DU?$char_traits@D@std@@V?$allocator@D@2@@std@@AAEAAV01@IV<lambda_9366063389c5f42a00a5088cf24e69de>@@PBD@Z PROC ; std::basic_string<char,std::char_traits<char>,std::allocator<char> >::_Reallocate_for<<lambda_9366063389c5f42a00a5088cf24e69de>,char const *>, COMDAT
; _this$ = ecx

; 4302 :     basic_string& _Reallocate_for(const size_type _New_size, _Fty _Fn, _ArgTys... _Args) {

  00000	55		 push	 ebp
  00001	8b ec		 mov	 ebp, esp
  00003	83 ec 28	 sub	 esp, 40			; 00000028H
  00006	89 4d f8	 mov	 DWORD PTR _this$[ebp], ecx

; 4303 :         // reallocate to store exactly _New_size elements, new buffer prepared by
; 4304 :         // _Fn(_New_ptr, _New_size, _Args...)
; 4305 :         if (_New_size > max_size()) {

  00009	8b 4d f8	 mov	 ecx, DWORD PTR _this$[ebp]
  0000c	e8 00 00 00 00	 call	 ?max_size@?$basic_string@DU?$char_traits@D@std@@V?$allocator@D@2@@std@@QBEIXZ ; std::basic_string<char,std::char_traits<char>,std::allocator<char> >::max_size
  00011	39 45 08	 cmp	 DWORD PTR __New_size$[ebp], eax
  00014	76 05		 jbe	 SHORT $LN2@Reallocate

; 4306 :             _Xlen_string(); // result too long

  00016	e8 00 00 00 00	 call	 ?_Xlen_string@std@@YAXXZ ; std::_Xlen_string
$LN2@Reallocate:

; 4307 :         }
; 4308 : 
; 4309 :         const size_type _Old_capacity = _Mypair._Myval2._Myres;

  0001b	8b 45 f8	 mov	 eax, DWORD PTR _this$[ebp]
  0001e	8b 40 14	 mov	 eax, DWORD PTR [eax+20]
  00021	89 45 e8	 mov	 DWORD PTR __Old_capacity$[ebp], eax

; 4310 :         const size_type _New_capacity = _Calculate_growth(_New_size);

  00024	ff 75 08	 push	 DWORD PTR __New_size$[ebp]
  00027	8b 4d f8	 mov	 ecx, DWORD PTR _this$[ebp]
  0002a	e8 00 00 00 00	 call	 ?_Calculate_growth@?$basic_string@DU?$char_traits@D@std@@V?$allocator@D@2@@std@@ABEII@Z ; std::basic_string<char,std::char_traits<char>,std::allocator<char> >::_Calculate_growth
  0002f	89 45 f0	 mov	 DWORD PTR __New_capacity$[ebp], eax

; 4409 :         return _Mypair._Get_first();

  00032	8b 45 f8	 mov	 eax, DWORD PTR _this$[ebp]
; File C:\Program Files (x86)\Microsoft Visual Studio\2019\Community\VC\Tools\MSVC\14.28.29333\include\xmemory

; 1347 :         return *this;

  00035	89 45 e4	 mov	 DWORD PTR $T1[ebp], eax
; File C:\Program Files (x86)\Microsoft Visual Studio\2019\Community\VC\Tools\MSVC\14.28.29333\include\xstring

; 4409 :         return _Mypair._Get_first();

  00038	8b 45 e4	 mov	 eax, DWORD PTR $T1[ebp]
  0003b	89 45 d8	 mov	 DWORD PTR __Al$[ebp], eax
; File C:\Program Files (x86)\Microsoft Visual Studio\2019\Community\VC\Tools\MSVC\14.28.29333\include\xmemory

; 56   :     constexpr bool _Overflow_is_possible = _Ty_size > 1;

  0003e	c6 45 fe 00	 mov	 BYTE PTR __Overflow_is_possible$3[ebp], 0
; File C:\Program Files (x86)\Microsoft Visual Studio\2019\Community\VC\Tools\MSVC\14.28.29333\include\xstring

; 4312 :         const pointer _New_ptr        = _Al.allocate(_New_capacity + 1); // throws

  00042	8b 45 f0	 mov	 eax, DWORD PTR __New_capacity$[ebp]
  00045	40		 inc	 eax
; File C:\Program Files (x86)\Microsoft Visual Studio\2019\Community\VC\Tools\MSVC\14.28.29333\include\xmemory

; 814  :         return static_cast<_Ty*>(_Allocate<_New_alignof<_Ty>>(_Get_size_of_n<sizeof(_Ty)>(_Count)));

  00046	50		 push	 eax
  00047	e8 00 00 00 00	 call	 ??$_Allocate@$07U_Default_allocate_traits@std@@$0A@@std@@YAPAXI@Z ; std::_Allocate<8,std::_Default_allocate_traits,0>
  0004c	59		 pop	 ecx
; File C:\Program Files (x86)\Microsoft Visual Studio\2019\Community\VC\Tools\MSVC\14.28.29333\include\xstring

; 4312 :         const pointer _New_ptr        = _Al.allocate(_New_capacity + 1); // throws

  0004d	89 45 f4	 mov	 DWORD PTR __New_ptr$[ebp], eax

; 4313 :         _Mypair._Myval2._Orphan_all();
; 4314 :         _Mypair._Myval2._Mysize = _New_size;

  00050	8b 45 f8	 mov	 eax, DWORD PTR _this$[ebp]
  00053	8b 4d 08	 mov	 ecx, DWORD PTR __New_size$[ebp]
  00056	89 48 10	 mov	 DWORD PTR [eax+16], ecx

; 4315 :         _Mypair._Myval2._Myres  = _New_capacity;

  00059	8b 45 f8	 mov	 eax, DWORD PTR _this$[ebp]
  0005c	8b 4d f0	 mov	 ecx, DWORD PTR __New_capacity$[ebp]
  0005f	89 48 14	 mov	 DWORD PTR [eax+20], ecx

; 4316 :         _Fn(_Unfancy(_New_ptr), _New_size, _Args...);

  00062	8b 45 f4	 mov	 eax, DWORD PTR __New_ptr$[ebp]
  00065	89 45 e0	 mov	 DWORD PTR __Ptr$[ebp], eax
; File C:\Program Files (x86)\Microsoft Visual Studio\2019\Community\VC\Tools\MSVC\14.28.29333\include\xstddef

; 289  :     return _Ptr;

  00068	8b 45 e0	 mov	 eax, DWORD PTR __Ptr$[ebp]
  0006b	89 45 ec	 mov	 DWORD PTR $T2[ebp], eax
; File C:\Program Files (x86)\Microsoft Visual Studio\2019\Community\VC\Tools\MSVC\14.28.29333\include\xstring

; 62   :         _CSTD memcpy(_First1, _First2, _Count * sizeof(_Elem));

  0006e	ff 75 08	 push	 DWORD PTR __New_size$[ebp]
  00071	ff 75 10	 push	 DWORD PTR _<_Args_0>$[ebp]
  00074	ff 75 ec	 push	 DWORD PTR $T2[ebp]
  00077	e8 00 00 00 00	 call	 _memcpy
  0007c	83 c4 0c	 add	 esp, 12			; 0000000cH

; 3056 :                 _Traits::assign(_New_ptr[_Count], _Elem());

  0007f	c6 45 ff 00	 mov	 BYTE PTR $T4[ebp], 0

; 428  :         _Left = _Right;

  00083	8b 45 ec	 mov	 eax, DWORD PTR $T2[ebp]
  00086	03 45 08	 add	 eax, DWORD PTR __New_size$[ebp]
  00089	8a 4d ff	 mov	 cl, BYTE PTR $T4[ebp]
  0008c	88 08		 mov	 BYTE PTR [eax], cl

; 4317 :         if (_BUF_SIZE <= _Old_capacity) {

  0008e	83 7d e8 10	 cmp	 DWORD PTR __Old_capacity$[ebp], 16 ; 00000010H
  00092	72 21		 jb	 SHORT $LN3@Reallocate

; 4318 :             _Al.deallocate(_Mypair._Myval2._Bx._Ptr, _Old_capacity + 1);

  00094	8b 45 f8	 mov	 eax, DWORD PTR _this$[ebp]
  00097	8b 00		 mov	 eax, DWORD PTR [eax]
  00099	89 45 dc	 mov	 DWORD PTR __Ptr$[ebp], eax
  0009c	8b 45 e8	 mov	 eax, DWORD PTR __Old_capacity$[ebp]
  0009f	40		 inc	 eax
; File C:\Program Files (x86)\Microsoft Visual Studio\2019\Community\VC\Tools\MSVC\14.28.29333\include\xmemory

; 810  :         _Deallocate<_New_alignof<_Ty>>(_Ptr, sizeof(_Ty) * _Count);

  000a0	50		 push	 eax
  000a1	ff 75 dc	 push	 DWORD PTR __Ptr$[ebp]
  000a4	e8 00 00 00 00	 call	 ??$_Deallocate@$07$0A@@std@@YAXPAXI@Z ; std::_Deallocate<8,0>
  000a9	59		 pop	 ecx
  000aa	59		 pop	 ecx
; File C:\Program Files (x86)\Microsoft Visual Studio\2019\Community\VC\Tools\MSVC\14.28.29333\include\xstring

; 4319 :             _Mypair._Myval2._Bx._Ptr = _New_ptr;

  000ab	8b 45 f8	 mov	 eax, DWORD PTR _this$[ebp]
  000ae	8b 4d f4	 mov	 ecx, DWORD PTR __New_ptr$[ebp]
  000b1	89 08		 mov	 DWORD PTR [eax], ecx

; 4320 :         } else {

  000b3	eb 0e		 jmp	 SHORT $LN4@Reallocate
$LN3@Reallocate:

; 4321 :             _Construct_in_place(_Mypair._Myval2._Bx._Ptr, _New_ptr);

  000b5	8d 45 f4	 lea	 eax, DWORD PTR __New_ptr$[ebp]
  000b8	50		 push	 eax
  000b9	ff 75 f8	 push	 DWORD PTR _this$[ebp]
  000bc	e8 00 00 00 00	 call	 ??$_Construct_in_place@PADABQAD@std@@YAXAAPADABQAD@Z ; std::_Construct_in_place<char *,char * const &>
  000c1	59		 pop	 ecx
  000c2	59		 pop	 ecx
$LN4@Reallocate:

; 4322 :         }
; 4323 : 
; 4324 :         return *this;

  000c3	8b 45 f8	 mov	 eax, DWORD PTR _this$[ebp]
$LN5@Reallocate:

; 4325 :     }

  000c6	c9		 leave
  000c7	c2 0c 00	 ret	 12			; 0000000cH
??$_Reallocate_for@V<lambda_9366063389c5f42a00a5088cf24e69de>@@PBD@?$basic_string@DU?$char_traits@D@std@@V?$allocator@D@2@@std@@AAEAAV01@IV<lambda_9366063389c5f42a00a5088cf24e69de>@@PBD@Z ENDP ; std::basic_string<char,std::char_traits<char>,std::allocator<char> >::_Reallocate_for<<lambda_9366063389c5f42a00a5088cf24e69de>,char const *>
_TEXT	ENDS
; Function compile flags: /Odspy
; File C:\Program Files (x86)\Microsoft Visual Studio\2019\Community\VC\Tools\MSVC\14.28.29333\include\xmemory
;	COMDAT ??$_Destroy_in_place@PAD@std@@YAXAAPAD@Z
_TEXT	SEGMENT
__Obj$ = 8						; size = 4
??$_Destroy_in_place@PAD@std@@YAXAAPAD@Z PROC		; std::_Destroy_in_place<char *>, COMDAT

; 270  : /* _CONSTEXPR20_DYNALLOC */ void _Destroy_in_place(_Ty& _Obj) noexcept {

  00000	55		 push	 ebp
  00001	8b ec		 mov	 ebp, esp

; 271  : #if _HAS_IF_CONSTEXPR
; 272  :     if constexpr (is_array_v<_Ty>) {
; 273  :         _Destroy_range(_Obj, _Obj + extent_v<_Ty>);
; 274  :     } else
; 275  : #endif // _HAS_IF_CONSTEXPR
; 276  :     {
; 277  :         _Obj.~_Ty();
; 278  :     }
; 279  : }

  00003	5d		 pop	 ebp
  00004	c3		 ret	 0
??$_Destroy_in_place@PAD@std@@YAXAAPAD@Z ENDP		; std::_Destroy_in_place<char *>
_TEXT	ENDS
; Function compile flags: /Odspy
; File C:\Program Files (x86)\Microsoft Visual Studio\2019\Community\VC\Tools\MSVC\14.28.29333\include\xtree
;	COMDAT ?_Throw_tree_length_error@std@@YAXXZ
_TEXT	SEGMENT
?_Throw_tree_length_error@std@@YAXXZ PROC		; std::_Throw_tree_length_error, COMDAT

; 414  : [[noreturn]] inline void _Throw_tree_length_error() {

  00000	55		 push	 ebp
  00001	8b ec		 mov	 ebp, esp

; 415  :     _Xlength_error("map/set too long");

  00003	68 00 00 00 00	 push	 OFFSET ??_C@_0BB@GCADKGJO@map?1set?5too?5long@
  00008	e8 00 00 00 00	 call	 ?_Xlength_error@std@@YAXPBD@Z ; std::_Xlength_error
$LN2@Throw_tree:

; 416  : }

  0000d	5d		 pop	 ebp
  0000e	c3		 ret	 0
?_Throw_tree_length_error@std@@YAXXZ ENDP		; std::_Throw_tree_length_error
_TEXT	ENDS
; Function compile flags: /Odspy
;	COMDAT ??1?$_Compressed_pair@V?$allocator@D@std@@V?$_String_val@U?$_Simple_types@D@std@@@2@$00@std@@QAE@XZ
_TEXT	SEGMENT
_this$ = -4						; size = 4
??1?$_Compressed_pair@V?$allocator@D@std@@V?$_String_val@U?$_Simple_types@D@std@@@2@$00@std@@QAE@XZ PROC ; std::_Compressed_pair<std::allocator<char>,std::_String_val<std::_Simple_types<char> >,1>::~_Compressed_pair<std::allocator<char>,std::_String_val<std::_Simple_types<char> >,1>, COMDAT
; _this$ = ecx
  00000	55		 push	 ebp
  00001	8b ec		 mov	 ebp, esp
  00003	51		 push	 ecx
  00004	89 4d fc	 mov	 DWORD PTR _this$[ebp], ecx
  00007	c9		 leave
  00008	c3		 ret	 0
??1?$_Compressed_pair@V?$allocator@D@std@@V?$_String_val@U?$_Simple_types@D@std@@@2@$00@std@@QAE@XZ ENDP ; std::_Compressed_pair<std::allocator<char>,std::_String_val<std::_Simple_types<char> >,1>::~_Compressed_pair<std::allocator<char>,std::_String_val<std::_Simple_types<char> >,1>
_TEXT	ENDS
; Function compile flags: /Odspy
; File C:\Program Files (x86)\Microsoft Visual Studio\2019\Community\VC\Tools\MSVC\14.28.29333\include\xstring
; File C:\Program Files (x86)\Microsoft Visual Studio\2019\Community\VC\Tools\MSVC\14.28.29333\include\xmemory
; File C:\Program Files (x86)\Microsoft Visual Studio\2019\Community\VC\Tools\MSVC\14.28.29333\include\xstring
; File C:\Program Files (x86)\Microsoft Visual Studio\2019\Community\VC\Tools\MSVC\14.28.29333\include\xmemory
; File C:\Program Files (x86)\Microsoft Visual Studio\2019\Community\VC\Tools\MSVC\14.28.29333\include\xstring
;	COMDAT ?_Tidy_deallocate@?$basic_string@DU?$char_traits@D@std@@V?$allocator@D@2@@std@@AAEXXZ
_TEXT	SEGMENT
__Al$1 = -28						; size = 4
__Ptr$2 = -24						; size = 4
__Count$ = -20						; size = 4
$T3 = -16						; size = 4
tv68 = -12						; size = 4
_this$ = -8						; size = 4
$T4 = -2						; size = 1
$T5 = -1						; size = 1
?_Tidy_deallocate@?$basic_string@DU?$char_traits@D@std@@V?$allocator@D@2@@std@@AAEXXZ PROC ; std::basic_string<char,std::char_traits<char>,std::allocator<char> >::_Tidy_deallocate, COMDAT
; _this$ = ecx

; 4383 :     void _Tidy_deallocate() noexcept { // initialize buffer, deallocating any storage

  00000	55		 push	 ebp
  00001	8b ec		 mov	 ebp, esp
  00003	83 ec 1c	 sub	 esp, 28			; 0000001cH
  00006	89 4d f8	 mov	 DWORD PTR _this$[ebp], ecx

; 2227 :         return _BUF_SIZE <= _Myres;

  00009	8b 45 f8	 mov	 eax, DWORD PTR _this$[ebp]
  0000c	83 78 14 10	 cmp	 DWORD PTR [eax+20], 16	; 00000010H
  00010	72 09		 jb	 SHORT $LN9@Tidy_deall
  00012	c7 45 f4 01 00
	00 00		 mov	 DWORD PTR tv68[ebp], 1
  00019	eb 04		 jmp	 SHORT $LN10@Tidy_deall
$LN9@Tidy_deall:
  0001b	83 65 f4 00	 and	 DWORD PTR tv68[ebp], 0
$LN10@Tidy_deall:
  0001f	8a 45 f4	 mov	 al, BYTE PTR tv68[ebp]
  00022	88 45 ff	 mov	 BYTE PTR $T5[ebp], al

; 4384 :         _Mypair._Myval2._Orphan_all();
; 4385 :         if (_Mypair._Myval2._Large_string_engaged()) {

  00025	0f b6 45 ff	 movzx	 eax, BYTE PTR $T5[ebp]
  00029	85 c0		 test	 eax, eax
  0002b	74 34		 je	 SHORT $LN2@Tidy_deall

; 4386 :             const pointer _Ptr = _Mypair._Myval2._Bx._Ptr;

  0002d	8b 45 f8	 mov	 eax, DWORD PTR _this$[ebp]
  00030	8b 00		 mov	 eax, DWORD PTR [eax]
  00032	89 45 e8	 mov	 DWORD PTR __Ptr$2[ebp], eax

; 4409 :         return _Mypair._Get_first();

  00035	8b 45 f8	 mov	 eax, DWORD PTR _this$[ebp]
; File C:\Program Files (x86)\Microsoft Visual Studio\2019\Community\VC\Tools\MSVC\14.28.29333\include\xmemory

; 1347 :         return *this;

  00038	89 45 f0	 mov	 DWORD PTR $T3[ebp], eax
; File C:\Program Files (x86)\Microsoft Visual Studio\2019\Community\VC\Tools\MSVC\14.28.29333\include\xstring

; 4409 :         return _Mypair._Get_first();

  0003b	8b 45 f0	 mov	 eax, DWORD PTR $T3[ebp]
  0003e	89 45 e4	 mov	 DWORD PTR __Al$1[ebp], eax

; 4387 :             auto& _Al          = _Getal();
; 4388 :             _Destroy_in_place(_Mypair._Myval2._Bx._Ptr);

  00041	ff 75 f8	 push	 DWORD PTR _this$[ebp]
  00044	e8 00 00 00 00	 call	 ??$_Destroy_in_place@PAD@std@@YAXAAPAD@Z ; std::_Destroy_in_place<char *>
  00049	59		 pop	 ecx

; 4389 :             _Al.deallocate(_Ptr, _Mypair._Myval2._Myres + 1);

  0004a	8b 45 f8	 mov	 eax, DWORD PTR _this$[ebp]
  0004d	8b 40 14	 mov	 eax, DWORD PTR [eax+20]
  00050	40		 inc	 eax
  00051	89 45 ec	 mov	 DWORD PTR __Count$[ebp], eax
; File C:\Program Files (x86)\Microsoft Visual Studio\2019\Community\VC\Tools\MSVC\14.28.29333\include\xmemory

; 810  :         _Deallocate<_New_alignof<_Ty>>(_Ptr, sizeof(_Ty) * _Count);

  00054	ff 75 ec	 push	 DWORD PTR __Count$[ebp]
  00057	ff 75 e8	 push	 DWORD PTR __Ptr$2[ebp]
  0005a	e8 00 00 00 00	 call	 ??$_Deallocate@$07$0A@@std@@YAXPAXI@Z ; std::_Deallocate<8,0>
  0005f	59		 pop	 ecx
  00060	59		 pop	 ecx
$LN2@Tidy_deall:
; File C:\Program Files (x86)\Microsoft Visual Studio\2019\Community\VC\Tools\MSVC\14.28.29333\include\xstring

; 4392 :         _Mypair._Myval2._Mysize = 0;

  00061	8b 45 f8	 mov	 eax, DWORD PTR _this$[ebp]
  00064	83 60 10 00	 and	 DWORD PTR [eax+16], 0

; 4393 :         _Mypair._Myval2._Myres  = _BUF_SIZE - 1;

  00068	8b 45 f8	 mov	 eax, DWORD PTR _this$[ebp]
  0006b	c7 40 14 0f 00
	00 00		 mov	 DWORD PTR [eax+20], 15	; 0000000fH

; 4394 :         // the _Traits::assign is last so the codegen doesn't think the char write can alias this
; 4395 :         _Traits::assign(_Mypair._Myval2._Bx._Buf[0], _Elem());

  00072	c6 45 fe 00	 mov	 BYTE PTR $T4[ebp], 0
  00076	33 c0		 xor	 eax, eax
  00078	40		 inc	 eax
  00079	6b c0 00	 imul	 eax, eax, 0

; 428  :         _Left = _Right;

  0007c	8b 4d f8	 mov	 ecx, DWORD PTR _this$[ebp]
  0007f	8a 55 fe	 mov	 dl, BYTE PTR $T4[ebp]
  00082	88 14 01	 mov	 BYTE PTR [ecx+eax], dl

; 4396 :     }

  00085	c9		 leave
  00086	c3		 ret	 0
?_Tidy_deallocate@?$basic_string@DU?$char_traits@D@std@@V?$allocator@D@2@@std@@AAEXXZ ENDP ; std::basic_string<char,std::char_traits<char>,std::allocator<char> >::_Tidy_deallocate
_TEXT	ENDS
; Function compile flags: /Odspy
; File C:\Program Files (x86)\Microsoft Visual Studio\2019\Community\VC\Tools\MSVC\14.28.29333\include\xstring
;	COMDAT ?_Tidy_init@?$basic_string@DU?$char_traits@D@std@@V?$allocator@D@2@@std@@AAEXXZ
_TEXT	SEGMENT
_this$ = -8						; size = 4
$T1 = -1						; size = 1
?_Tidy_init@?$basic_string@DU?$char_traits@D@std@@V?$allocator@D@2@@std@@AAEXXZ PROC ; std::basic_string<char,std::char_traits<char>,std::allocator<char> >::_Tidy_init, COMDAT
; _this$ = ecx

; 4376 :     void _Tidy_init() noexcept { // initialize basic_string data members

  00000	55		 push	 ebp
  00001	8b ec		 mov	 ebp, esp
  00003	51		 push	 ecx
  00004	51		 push	 ecx
  00005	89 4d f8	 mov	 DWORD PTR _this$[ebp], ecx

; 4377 :         _Mypair._Myval2._Mysize = 0;

  00008	8b 45 f8	 mov	 eax, DWORD PTR _this$[ebp]
  0000b	83 60 10 00	 and	 DWORD PTR [eax+16], 0

; 4378 :         _Mypair._Myval2._Myres  = _BUF_SIZE - 1;

  0000f	8b 45 f8	 mov	 eax, DWORD PTR _this$[ebp]
  00012	c7 40 14 0f 00
	00 00		 mov	 DWORD PTR [eax+20], 15	; 0000000fH

; 4379 :         // the _Traits::assign is last so the codegen doesn't think the char write can alias this
; 4380 :         _Traits::assign(_Mypair._Myval2._Bx._Buf[0], _Elem());

  00019	c6 45 ff 00	 mov	 BYTE PTR $T1[ebp], 0
  0001d	33 c0		 xor	 eax, eax
  0001f	40		 inc	 eax
  00020	6b c0 00	 imul	 eax, eax, 0

; 428  :         _Left = _Right;

  00023	8b 4d f8	 mov	 ecx, DWORD PTR _this$[ebp]
  00026	8a 55 ff	 mov	 dl, BYTE PTR $T1[ebp]
  00029	88 14 01	 mov	 BYTE PTR [ecx+eax], dl

; 4381 :     }

  0002c	c9		 leave
  0002d	c3		 ret	 0
?_Tidy_init@?$basic_string@DU?$char_traits@D@std@@V?$allocator@D@2@@std@@AAEXXZ ENDP ; std::basic_string<char,std::char_traits<char>,std::allocator<char> >::_Tidy_init
_TEXT	ENDS
; Function compile flags: /Odspy
; File C:\Program Files (x86)\Microsoft Visual Studio\2019\Community\VC\Tools\MSVC\14.28.29333\include\xstring
; File C:\Program Files (x86)\Microsoft Visual Studio\2019\Community\VC\Tools\MSVC\14.28.29333\include\utility
; File C:\Program Files (x86)\Microsoft Visual Studio\2019\Community\VC\Tools\MSVC\14.28.29333\include\xstring
;	COMDAT ?_Calculate_growth@?$basic_string@DU?$char_traits@D@std@@V?$allocator@D@2@@std@@ABEII@Z
_TEXT	SEGMENT
$T1 = -36						; size = 4
$T2 = -32						; size = 4
tv93 = -28						; size = 4
$T3 = -24						; size = 4
_this$ = -20						; size = 4
$T4 = -16						; size = 4
__Masked$5 = -12					; size = 4
__Old$ = -8						; size = 4
__Max$ = -4						; size = 4
__Requested$ = 8					; size = 4
?_Calculate_growth@?$basic_string@DU?$char_traits@D@std@@V?$allocator@D@2@@std@@ABEII@Z PROC ; std::basic_string<char,std::char_traits<char>,std::allocator<char> >::_Calculate_growth, COMDAT
; _this$ = ecx

; 4297 :     _NODISCARD size_type _Calculate_growth(const size_type _Requested) const noexcept {

  00000	55		 push	 ebp
  00001	8b ec		 mov	 ebp, esp
  00003	83 ec 24	 sub	 esp, 36			; 00000024H
  00006	89 4d ec	 mov	 DWORD PTR _this$[ebp], ecx

; 4298 :         return _Calculate_growth(_Requested, _Mypair._Myval2._Myres, max_size());

  00009	8b 4d ec	 mov	 ecx, DWORD PTR _this$[ebp]
  0000c	e8 00 00 00 00	 call	 ?max_size@?$basic_string@DU?$char_traits@D@std@@V?$allocator@D@2@@std@@QBEIXZ ; std::basic_string<char,std::char_traits<char>,std::allocator<char> >::max_size
  00011	89 45 fc	 mov	 DWORD PTR __Max$[ebp], eax
  00014	8b 45 ec	 mov	 eax, DWORD PTR _this$[ebp]
  00017	8b 40 14	 mov	 eax, DWORD PTR [eax+20]
  0001a	89 45 f8	 mov	 DWORD PTR __Old$[ebp], eax

; 4285 :         const size_type _Masked = _Requested | _ALLOC_MASK;

  0001d	8b 45 08	 mov	 eax, DWORD PTR __Requested$[ebp]
  00020	83 c8 0f	 or	 eax, 15			; 0000000fH
  00023	89 45 f4	 mov	 DWORD PTR __Masked$5[ebp], eax

; 4286 :         if (_Masked > _Max) { // the mask overflows, settle for max_size()

  00026	8b 45 f4	 mov	 eax, DWORD PTR __Masked$5[ebp]
  00029	3b 45 fc	 cmp	 eax, DWORD PTR __Max$[ebp]
  0002c	76 08		 jbe	 SHORT $LN29@Calculate_

; 4287 :             return _Max;

  0002e	8b 45 fc	 mov	 eax, DWORD PTR __Max$[ebp]
  00031	89 45 f0	 mov	 DWORD PTR $T4[ebp], eax
  00034	eb 4c		 jmp	 SHORT $LN31@Calculate_
$LN29@Calculate_:

; 4288 :         }
; 4289 : 
; 4290 :         if (_Old > _Max - _Old / 2) { // similarly, geometric overflows

  00036	8b 45 f8	 mov	 eax, DWORD PTR __Old$[ebp]
  00039	d1 e8		 shr	 eax, 1
  0003b	8b 4d fc	 mov	 ecx, DWORD PTR __Max$[ebp]
  0003e	2b c8		 sub	 ecx, eax
  00040	39 4d f8	 cmp	 DWORD PTR __Old$[ebp], ecx
  00043	76 08		 jbe	 SHORT $LN30@Calculate_

; 4291 :             return _Max;

  00045	8b 45 fc	 mov	 eax, DWORD PTR __Max$[ebp]
  00048	89 45 f0	 mov	 DWORD PTR $T4[ebp], eax
  0004b	eb 35		 jmp	 SHORT $LN31@Calculate_
$LN30@Calculate_:

; 4294 :         return (_STD max)(_Masked, _Old + _Old / 2);

  0004d	8b 45 f8	 mov	 eax, DWORD PTR __Old$[ebp]
  00050	d1 e8		 shr	 eax, 1
  00052	03 45 f8	 add	 eax, DWORD PTR __Old$[ebp]
  00055	89 45 e8	 mov	 DWORD PTR $T3[ebp], eax
; File C:\Program Files (x86)\Microsoft Visual Studio\2019\Community\VC\Tools\MSVC\14.28.29333\include\utility

; 44   :     return _Left < _Right ? _Right : _Left;

  00058	8b 45 f4	 mov	 eax, DWORD PTR __Masked$5[ebp]
  0005b	3b 45 e8	 cmp	 eax, DWORD PTR $T3[ebp]
  0005e	73 08		 jae	 SHORT $LN35@Calculate_
  00060	8d 45 e8	 lea	 eax, DWORD PTR $T3[ebp]
  00063	89 45 e4	 mov	 DWORD PTR tv93[ebp], eax
  00066	eb 06		 jmp	 SHORT $LN36@Calculate_
$LN35@Calculate_:
  00068	8d 45 f4	 lea	 eax, DWORD PTR __Masked$5[ebp]
  0006b	89 45 e4	 mov	 DWORD PTR tv93[ebp], eax
$LN36@Calculate_:
  0006e	8b 45 e4	 mov	 eax, DWORD PTR tv93[ebp]
  00071	89 45 e0	 mov	 DWORD PTR $T2[ebp], eax
  00074	8b 45 e0	 mov	 eax, DWORD PTR $T2[ebp]
  00077	89 45 dc	 mov	 DWORD PTR $T1[ebp], eax
; File C:\Program Files (x86)\Microsoft Visual Studio\2019\Community\VC\Tools\MSVC\14.28.29333\include\xstring

; 4294 :         return (_STD max)(_Masked, _Old + _Old / 2);

  0007a	8b 45 dc	 mov	 eax, DWORD PTR $T1[ebp]
  0007d	8b 00		 mov	 eax, DWORD PTR [eax]
  0007f	89 45 f0	 mov	 DWORD PTR $T4[ebp], eax
$LN31@Calculate_:

; 4298 :         return _Calculate_growth(_Requested, _Mypair._Myval2._Myres, max_size());

  00082	8b 45 f0	 mov	 eax, DWORD PTR $T4[ebp]

; 4299 :     }

  00085	c9		 leave
  00086	c2 04 00	 ret	 4
?_Calculate_growth@?$basic_string@DU?$char_traits@D@std@@V?$allocator@D@2@@std@@ABEII@Z ENDP ; std::basic_string<char,std::char_traits<char>,std::allocator<char> >::_Calculate_growth
_TEXT	ENDS
; Function compile flags: /Odspy
; File C:\Program Files (x86)\Microsoft Visual Studio\2019\Community\VC\Tools\MSVC\14.28.29333\include\xstring
; File C:\Program Files (x86)\Microsoft Visual Studio\2019\Community\VC\Tools\MSVC\14.28.29333\include\utility
; File C:\Program Files (x86)\Microsoft Visual Studio\2019\Community\VC\Tools\MSVC\14.28.29333\include\xstring
;	COMDAT ?_Calculate_growth@?$basic_string@DU?$char_traits@D@std@@V?$allocator@D@2@@std@@CAIIII@Z
_TEXT	SEGMENT
$T1 = -20						; size = 4
$T2 = -16						; size = 4
tv75 = -12						; size = 4
$T3 = -8						; size = 4
__Masked$ = -4						; size = 4
__Requested$ = 8					; size = 4
__Old$ = 12						; size = 4
__Max$ = 16						; size = 4
?_Calculate_growth@?$basic_string@DU?$char_traits@D@std@@V?$allocator@D@2@@std@@CAIIII@Z PROC ; std::basic_string<char,std::char_traits<char>,std::allocator<char> >::_Calculate_growth, COMDAT

; 4284 :         const size_type _Requested, const size_type _Old, const size_type _Max) noexcept {

  00000	55		 push	 ebp
  00001	8b ec		 mov	 ebp, esp
  00003	83 ec 14	 sub	 esp, 20			; 00000014H

; 4285 :         const size_type _Masked = _Requested | _ALLOC_MASK;

  00006	8b 45 08	 mov	 eax, DWORD PTR __Requested$[ebp]
  00009	83 c8 0f	 or	 eax, 15			; 0000000fH
  0000c	89 45 fc	 mov	 DWORD PTR __Masked$[ebp], eax

; 4286 :         if (_Masked > _Max) { // the mask overflows, settle for max_size()

  0000f	8b 45 fc	 mov	 eax, DWORD PTR __Masked$[ebp]
  00012	3b 45 10	 cmp	 eax, DWORD PTR __Max$[ebp]
  00015	76 05		 jbe	 SHORT $LN2@Calculate_

; 4287 :             return _Max;

  00017	8b 45 10	 mov	 eax, DWORD PTR __Max$[ebp]
  0001a	eb 46		 jmp	 SHORT $LN4@Calculate_
$LN2@Calculate_:

; 4288 :         }
; 4289 : 
; 4290 :         if (_Old > _Max - _Old / 2) { // similarly, geometric overflows

  0001c	8b 45 0c	 mov	 eax, DWORD PTR __Old$[ebp]
  0001f	d1 e8		 shr	 eax, 1
  00021	8b 4d 10	 mov	 ecx, DWORD PTR __Max$[ebp]
  00024	2b c8		 sub	 ecx, eax
  00026	39 4d 0c	 cmp	 DWORD PTR __Old$[ebp], ecx
  00029	76 05		 jbe	 SHORT $LN3@Calculate_

; 4291 :             return _Max;

  0002b	8b 45 10	 mov	 eax, DWORD PTR __Max$[ebp]
  0002e	eb 32		 jmp	 SHORT $LN4@Calculate_
$LN3@Calculate_:

; 4294 :         return (_STD max)(_Masked, _Old + _Old / 2);

  00030	8b 45 0c	 mov	 eax, DWORD PTR __Old$[ebp]
  00033	d1 e8		 shr	 eax, 1
  00035	03 45 0c	 add	 eax, DWORD PTR __Old$[ebp]
  00038	89 45 f8	 mov	 DWORD PTR $T3[ebp], eax
; File C:\Program Files (x86)\Microsoft Visual Studio\2019\Community\VC\Tools\MSVC\14.28.29333\include\utility

; 44   :     return _Left < _Right ? _Right : _Left;

  0003b	8b 45 fc	 mov	 eax, DWORD PTR __Masked$[ebp]
  0003e	3b 45 f8	 cmp	 eax, DWORD PTR $T3[ebp]
  00041	73 08		 jae	 SHORT $LN7@Calculate_
  00043	8d 45 f8	 lea	 eax, DWORD PTR $T3[ebp]
  00046	89 45 f4	 mov	 DWORD PTR tv75[ebp], eax
  00049	eb 06		 jmp	 SHORT $LN8@Calculate_
$LN7@Calculate_:
  0004b	8d 45 fc	 lea	 eax, DWORD PTR __Masked$[ebp]
  0004e	89 45 f4	 mov	 DWORD PTR tv75[ebp], eax
$LN8@Calculate_:
  00051	8b 45 f4	 mov	 eax, DWORD PTR tv75[ebp]
  00054	89 45 f0	 mov	 DWORD PTR $T2[ebp], eax
  00057	8b 45 f0	 mov	 eax, DWORD PTR $T2[ebp]
  0005a	89 45 ec	 mov	 DWORD PTR $T1[ebp], eax
; File C:\Program Files (x86)\Microsoft Visual Studio\2019\Community\VC\Tools\MSVC\14.28.29333\include\xstring

; 4294 :         return (_STD max)(_Masked, _Old + _Old / 2);

  0005d	8b 45 ec	 mov	 eax, DWORD PTR $T1[ebp]
  00060	8b 00		 mov	 eax, DWORD PTR [eax]
$LN4@Calculate_:

; 4295 :     }

  00062	c9		 leave
  00063	c3		 ret	 0
?_Calculate_growth@?$basic_string@DU?$char_traits@D@std@@V?$allocator@D@2@@std@@CAIIII@Z ENDP ; std::basic_string<char,std::char_traits<char>,std::allocator<char> >::_Calculate_growth
_TEXT	ENDS
; Function compile flags: /Odspy
; File C:\Program Files (x86)\Microsoft Visual Studio\2019\Community\VC\Tools\MSVC\14.28.29333\include\xstring
; File C:\Program Files (x86)\Microsoft Visual Studio\2019\Community\VC\Tools\MSVC\14.28.29333\include\xmemory
; File C:\Program Files (x86)\Microsoft Visual Studio\2019\Community\VC\Tools\MSVC\14.28.29333\include\xstring
; File C:\Program Files (x86)\Microsoft Visual Studio\2019\Community\VC\Tools\MSVC\14.28.29333\include\xmemory
; File C:\Program Files (x86)\Microsoft Visual Studio\2019\Community\VC\Tools\MSVC\14.28.29333\include\xstring
; File C:\Program Files (x86)\Microsoft Visual Studio\2019\Community\VC\Tools\MSVC\14.28.29333\include\utility
; File C:\Program Files (x86)\Microsoft Visual Studio\2019\Community\VC\Tools\MSVC\14.28.29333\include\xstring
; File C:\Program Files (x86)\Microsoft Visual Studio\2019\Community\VC\Tools\MSVC\14.28.29333\include\limits
; File C:\Program Files (x86)\Microsoft Visual Studio\2019\Community\VC\Tools\MSVC\14.28.29333\include\xstring
; File C:\Program Files (x86)\Microsoft Visual Studio\2019\Community\VC\Tools\MSVC\14.28.29333\include\utility
; File C:\Program Files (x86)\Microsoft Visual Studio\2019\Community\VC\Tools\MSVC\14.28.29333\include\xstring
;	COMDAT ?max_size@?$basic_string@DU?$char_traits@D@std@@V?$allocator@D@2@@std@@QBEIXZ
_TEXT	SEGMENT
$T1 = -60						; size = 4
$T2 = -56						; size = 4
$T3 = -52						; size = 4
$T4 = -48						; size = 4
__Storage_max$ = -44					; size = 4
$T5 = -40						; size = 4
$T6 = -36						; size = 4
$T7 = -32						; size = 4
_this$ = -28						; size = 4
tv70 = -24						; size = 4
$T8 = -20						; size = 4
$T9 = -16						; size = 4
tv67 = -12						; size = 4
__Alloc_max$ = -8					; size = 4
$T10 = -4						; size = 4
?max_size@?$basic_string@DU?$char_traits@D@std@@V?$allocator@D@2@@std@@QBEIXZ PROC ; std::basic_string<char,std::char_traits<char>,std::allocator<char> >::max_size, COMDAT
; _this$ = ecx

; 3773 :     _NODISCARD size_type max_size() const noexcept {

  00000	55		 push	 ebp
  00001	8b ec		 mov	 ebp, esp
  00003	83 ec 3c	 sub	 esp, 60			; 0000003cH
  00006	89 4d e4	 mov	 DWORD PTR _this$[ebp], ecx

; 4413 :         return _Mypair._Get_first();

  00009	8b 45 e4	 mov	 eax, DWORD PTR _this$[ebp]
; File C:\Program Files (x86)\Microsoft Visual Studio\2019\Community\VC\Tools\MSVC\14.28.29333\include\xmemory

; 1351 :         return *this;

  0000c	89 45 e0	 mov	 DWORD PTR $T7[ebp], eax
; File C:\Program Files (x86)\Microsoft Visual Studio\2019\Community\VC\Tools\MSVC\14.28.29333\include\xstring

; 4413 :         return _Mypair._Get_first();

  0000f	8b 45 e0	 mov	 eax, DWORD PTR $T7[ebp]
  00012	89 45 c4	 mov	 DWORD PTR $T1[ebp], eax
; File C:\Program Files (x86)\Microsoft Visual Studio\2019\Community\VC\Tools\MSVC\14.28.29333\include\xmemory

; 710  :         return static_cast<size_t>(-1) / sizeof(value_type);

  00015	83 4d f8 ff	 or	 DWORD PTR __Alloc_max$[ebp], -1
; File C:\Program Files (x86)\Microsoft Visual Studio\2019\Community\VC\Tools\MSVC\14.28.29333\include\xstring

; 3775 :         const size_type _Storage_max = // can always store small string

  00019	c7 45 fc 10 00
	00 00		 mov	 DWORD PTR $T10[ebp], 16	; 00000010H
; File C:\Program Files (x86)\Microsoft Visual Studio\2019\Community\VC\Tools\MSVC\14.28.29333\include\utility

; 44   :     return _Left < _Right ? _Right : _Left;

  00020	8b 45 f8	 mov	 eax, DWORD PTR __Alloc_max$[ebp]
  00023	3b 45 fc	 cmp	 eax, DWORD PTR $T10[ebp]
  00026	73 08		 jae	 SHORT $LN14@max_size
  00028	8d 45 fc	 lea	 eax, DWORD PTR $T10[ebp]
  0002b	89 45 f4	 mov	 DWORD PTR tv67[ebp], eax
  0002e	eb 06		 jmp	 SHORT $LN15@max_size
$LN14@max_size:
  00030	8d 45 f8	 lea	 eax, DWORD PTR __Alloc_max$[ebp]
  00033	89 45 f4	 mov	 DWORD PTR tv67[ebp], eax
$LN15@max_size:
  00036	8b 45 f4	 mov	 eax, DWORD PTR tv67[ebp]
  00039	89 45 dc	 mov	 DWORD PTR $T6[ebp], eax
  0003c	8b 45 dc	 mov	 eax, DWORD PTR $T6[ebp]
  0003f	89 45 d8	 mov	 DWORD PTR $T5[ebp], eax
; File C:\Program Files (x86)\Microsoft Visual Studio\2019\Community\VC\Tools\MSVC\14.28.29333\include\xstring

; 3775 :         const size_type _Storage_max = // can always store small string

  00042	8b 45 d8	 mov	 eax, DWORD PTR $T5[ebp]
  00045	8b 00		 mov	 eax, DWORD PTR [eax]
  00047	89 45 d4	 mov	 DWORD PTR __Storage_max$[ebp], eax

; 3777 :         return (_STD min)(static_cast<size_type>((numeric_limits<difference_type>::max)()),

  0004a	8b 45 d4	 mov	 eax, DWORD PTR __Storage_max$[ebp]
  0004d	48		 dec	 eax
  0004e	89 45 f0	 mov	 DWORD PTR $T9[ebp], eax
; File C:\Program Files (x86)\Microsoft Visual Studio\2019\Community\VC\Tools\MSVC\14.28.29333\include\limits

; 557  :         return INT_MAX;

  00051	c7 45 d0 ff ff
	ff 7f		 mov	 DWORD PTR $T4[ebp], 2147483647 ; 7fffffffH
; File C:\Program Files (x86)\Microsoft Visual Studio\2019\Community\VC\Tools\MSVC\14.28.29333\include\xstring

; 3777 :         return (_STD min)(static_cast<size_type>((numeric_limits<difference_type>::max)()),

  00058	8b 45 d0	 mov	 eax, DWORD PTR $T4[ebp]
  0005b	89 45 ec	 mov	 DWORD PTR $T8[ebp], eax
; File C:\Program Files (x86)\Microsoft Visual Studio\2019\Community\VC\Tools\MSVC\14.28.29333\include\utility

; 68   :     return _Right < _Left ? _Right : _Left;

  0005e	8b 45 f0	 mov	 eax, DWORD PTR $T9[ebp]
  00061	3b 45 ec	 cmp	 eax, DWORD PTR $T8[ebp]
  00064	73 08		 jae	 SHORT $LN22@max_size
  00066	8d 45 f0	 lea	 eax, DWORD PTR $T9[ebp]
  00069	89 45 e8	 mov	 DWORD PTR tv70[ebp], eax
  0006c	eb 06		 jmp	 SHORT $LN23@max_size
$LN22@max_size:
  0006e	8d 45 ec	 lea	 eax, DWORD PTR $T8[ebp]
  00071	89 45 e8	 mov	 DWORD PTR tv70[ebp], eax
$LN23@max_size:
  00074	8b 45 e8	 mov	 eax, DWORD PTR tv70[ebp]
  00077	89 45 cc	 mov	 DWORD PTR $T3[ebp], eax
  0007a	8b 45 cc	 mov	 eax, DWORD PTR $T3[ebp]
  0007d	89 45 c8	 mov	 DWORD PTR $T2[ebp], eax
; File C:\Program Files (x86)\Microsoft Visual Studio\2019\Community\VC\Tools\MSVC\14.28.29333\include\xstring

; 3777 :         return (_STD min)(static_cast<size_type>((numeric_limits<difference_type>::max)()),

  00080	8b 45 c8	 mov	 eax, DWORD PTR $T2[ebp]
  00083	8b 00		 mov	 eax, DWORD PTR [eax]

; 3778 :             _Storage_max - 1 // -1 is for null terminator and/or npos
; 3779 :         );
; 3780 :     }

  00085	c9		 leave
  00086	c3		 ret	 0
?max_size@?$basic_string@DU?$char_traits@D@std@@V?$allocator@D@2@@std@@QBEIXZ ENDP ; std::basic_string<char,std::char_traits<char>,std::allocator<char> >::max_size
_TEXT	ENDS
; Function compile flags: /Odspy
; File C:\Program Files (x86)\Microsoft Visual Studio\2019\Community\VC\Tools\MSVC\14.28.29333\include\xstring
; File C:\Program Files (x86)\Microsoft Visual Studio\2019\Community\VC\Tools\MSVC\14.28.29333\include\xstddef
; File C:\Program Files (x86)\Microsoft Visual Studio\2019\Community\VC\Tools\MSVC\14.28.29333\include\xstring
;	COMDAT ?c_str@?$basic_string@DU?$char_traits@D@std@@V?$allocator@D@2@@std@@QBEPBDXZ
_TEXT	SEGMENT
$T1 = -28						; size = 4
__Ptr$ = -24						; size = 4
_this$ = -20						; size = 4
__Result$2 = -16					; size = 4
tv80 = -12						; size = 4
_this$ = -8						; size = 4
$T3 = -1						; size = 1
?c_str@?$basic_string@DU?$char_traits@D@std@@V?$allocator@D@2@@std@@QBEPBDXZ PROC ; std::basic_string<char,std::char_traits<char>,std::allocator<char> >::c_str, COMDAT
; _this$ = ecx

; 3751 :     _NODISCARD _Ret_z_ const _Elem* c_str() const noexcept {

  00000	55		 push	 ebp
  00001	8b ec		 mov	 ebp, esp
  00003	83 ec 1c	 sub	 esp, 28			; 0000001cH
  00006	89 4d ec	 mov	 DWORD PTR _this$[ebp], ecx

; 3752 :         return _Mypair._Myval2._Myptr();

  00009	8b 45 ec	 mov	 eax, DWORD PTR _this$[ebp]
  0000c	89 45 f8	 mov	 DWORD PTR _this$[ebp], eax

; 2218 :         const value_type* _Result = _Bx._Buf;

  0000f	8b 45 f8	 mov	 eax, DWORD PTR _this$[ebp]
  00012	89 45 f0	 mov	 DWORD PTR __Result$2[ebp], eax

; 2227 :         return _BUF_SIZE <= _Myres;

  00015	8b 45 f8	 mov	 eax, DWORD PTR _this$[ebp]
  00018	83 78 14 10	 cmp	 DWORD PTR [eax+20], 16	; 00000010H
  0001c	72 09		 jb	 SHORT $LN9@c_str
  0001e	c7 45 f4 01 00
	00 00		 mov	 DWORD PTR tv80[ebp], 1
  00025	eb 04		 jmp	 SHORT $LN10@c_str
$LN9@c_str:
  00027	83 65 f4 00	 and	 DWORD PTR tv80[ebp], 0
$LN10@c_str:
  0002b	8a 45 f4	 mov	 al, BYTE PTR tv80[ebp]
  0002e	88 45 ff	 mov	 BYTE PTR $T3[ebp], al

; 2219 :         if (_Large_string_engaged()) {

  00031	0f b6 45 ff	 movzx	 eax, BYTE PTR $T3[ebp]
  00035	85 c0		 test	 eax, eax
  00037	74 0e		 je	 SHORT $LN4@c_str

; 2220 :             _Result = _Unfancy(_Bx._Ptr);

  00039	8b 45 f8	 mov	 eax, DWORD PTR _this$[ebp]
  0003c	8b 00		 mov	 eax, DWORD PTR [eax]
  0003e	89 45 e8	 mov	 DWORD PTR __Ptr$[ebp], eax
; File C:\Program Files (x86)\Microsoft Visual Studio\2019\Community\VC\Tools\MSVC\14.28.29333\include\xstddef

; 289  :     return _Ptr;

  00041	8b 45 e8	 mov	 eax, DWORD PTR __Ptr$[ebp]
  00044	89 45 f0	 mov	 DWORD PTR __Result$2[ebp], eax
$LN4@c_str:
; File C:\Program Files (x86)\Microsoft Visual Studio\2019\Community\VC\Tools\MSVC\14.28.29333\include\xstring

; 2223 :         return _Result;

  00047	8b 45 f0	 mov	 eax, DWORD PTR __Result$2[ebp]
  0004a	89 45 e4	 mov	 DWORD PTR $T1[ebp], eax

; 3752 :         return _Mypair._Myval2._Myptr();

  0004d	8b 45 e4	 mov	 eax, DWORD PTR $T1[ebp]

; 3753 :     }

  00050	c9		 leave
  00051	c3		 ret	 0
?c_str@?$basic_string@DU?$char_traits@D@std@@V?$allocator@D@2@@std@@QBEPBDXZ ENDP ; std::basic_string<char,std::char_traits<char>,std::allocator<char> >::c_str
_TEXT	ENDS
; Function compile flags: /Odspy
; File C:\Program Files (x86)\Microsoft Visual Studio\2019\Community\VC\Tools\MSVC\14.28.29333\include\xstring
;	COMDAT ?assign@?$basic_string@DU?$char_traits@D@std@@V?$allocator@D@2@@std@@QAEAAV12@QBDI@Z
_TEXT	SEGMENT
$T1 = -16						; size = 1
__Old_ptr$2 = -12					; size = 4
_this$ = -8						; size = 4
$T3 = -1						; size = 1
__Ptr$ = 8						; size = 4
__Count$ = 12						; size = 4
?assign@?$basic_string@DU?$char_traits@D@std@@V?$allocator@D@2@@std@@QAEAAV12@QBDI@Z PROC ; std::basic_string<char,std::char_traits<char>,std::allocator<char> >::assign, COMDAT
; _this$ = ecx

; 3042 :     basic_string& assign(_In_reads_(_Count) const _Elem* const _Ptr, _CRT_GUARDOVERFLOW const size_type _Count) {

  00000	55		 push	 ebp
  00001	8b ec		 mov	 ebp, esp
  00003	83 ec 10	 sub	 esp, 16			; 00000010H
  00006	89 4d f8	 mov	 DWORD PTR _this$[ebp], ecx

; 3043 :         // assign [_Ptr, _Ptr + _Count)
; 3044 :         if (_Count <= _Mypair._Myval2._Myres) {

  00009	8b 45 f8	 mov	 eax, DWORD PTR _this$[ebp]
  0000c	8b 4d 0c	 mov	 ecx, DWORD PTR __Count$[ebp]
  0000f	3b 48 14	 cmp	 ecx, DWORD PTR [eax+20]
  00012	77 39		 ja	 SHORT $LN2@assign

; 3045 :             _Elem* const _Old_ptr   = _Mypair._Myval2._Myptr();

  00014	8b 4d f8	 mov	 ecx, DWORD PTR _this$[ebp]
  00017	e8 00 00 00 00	 call	 ?_Myptr@?$_String_val@U?$_Simple_types@D@std@@@std@@QAEPADXZ ; std::_String_val<std::_Simple_types<char> >::_Myptr
  0001c	89 45 f4	 mov	 DWORD PTR __Old_ptr$2[ebp], eax

; 3046 :             _Mypair._Myval2._Mysize = _Count;

  0001f	8b 45 f8	 mov	 eax, DWORD PTR _this$[ebp]
  00022	8b 4d 0c	 mov	 ecx, DWORD PTR __Count$[ebp]
  00025	89 48 10	 mov	 DWORD PTR [eax+16], ecx

; 119  :         _CSTD memmove(_First1, _First2, _Count * sizeof(_Elem));

  00028	ff 75 0c	 push	 DWORD PTR __Count$[ebp]
  0002b	ff 75 08	 push	 DWORD PTR __Ptr$[ebp]
  0002e	ff 75 f4	 push	 DWORD PTR __Old_ptr$2[ebp]
  00031	e8 00 00 00 00	 call	 _memmove
  00036	83 c4 0c	 add	 esp, 12			; 0000000cH

; 3047 :             _Traits::move(_Old_ptr, _Ptr, _Count);
; 3048 :             _Traits::assign(_Old_ptr[_Count], _Elem());

  00039	c6 45 ff 00	 mov	 BYTE PTR $T3[ebp], 0

; 428  :         _Left = _Right;

  0003d	8b 45 f4	 mov	 eax, DWORD PTR __Old_ptr$2[ebp]
  00040	03 45 0c	 add	 eax, DWORD PTR __Count$[ebp]
  00043	8a 4d ff	 mov	 cl, BYTE PTR $T3[ebp]
  00046	88 08		 mov	 BYTE PTR [eax], cl

; 3049 :             return *this;

  00048	8b 45 f8	 mov	 eax, DWORD PTR _this$[ebp]
  0004b	eb 16		 jmp	 SHORT $LN1@assign
$LN2@assign:

; 3050 :         }
; 3051 : 
; 3052 :         return _Reallocate_for(

  0004d	33 c0		 xor	 eax, eax
  0004f	88 45 f0	 mov	 BYTE PTR $T1[ebp], al
  00052	ff 75 08	 push	 DWORD PTR __Ptr$[ebp]
  00055	ff 75 f0	 push	 DWORD PTR $T1[ebp]
  00058	ff 75 0c	 push	 DWORD PTR __Count$[ebp]
  0005b	8b 4d f8	 mov	 ecx, DWORD PTR _this$[ebp]
  0005e	e8 00 00 00 00	 call	 ??$_Reallocate_for@V<lambda_9366063389c5f42a00a5088cf24e69de>@@PBD@?$basic_string@DU?$char_traits@D@std@@V?$allocator@D@2@@std@@AAEAAV01@IV<lambda_9366063389c5f42a00a5088cf24e69de>@@PBD@Z ; std::basic_string<char,std::char_traits<char>,std::allocator<char> >::_Reallocate_for<<lambda_9366063389c5f42a00a5088cf24e69de>,char const *>
$LN1@assign:

; 3053 :             _Count,
; 3054 :             [](_Elem* const _New_ptr, const size_type _Count, const _Elem* const _Ptr) {
; 3055 :                 _Traits::copy(_New_ptr, _Ptr, _Count);
; 3056 :                 _Traits::assign(_New_ptr[_Count], _Elem());
; 3057 :             },
; 3058 :             _Ptr);
; 3059 :     }

  00063	c9		 leave
  00064	c2 08 00	 ret	 8
?assign@?$basic_string@DU?$char_traits@D@std@@V?$allocator@D@2@@std@@QAEAAV12@QBDI@Z ENDP ; std::basic_string<char,std::char_traits<char>,std::allocator<char> >::assign
_TEXT	ENDS
; Function compile flags: /Odspy
; File C:\Program Files (x86)\Microsoft Visual Studio\2019\Community\VC\Tools\MSVC\14.28.29333\include\xstring
;	COMDAT ?append@?$basic_string@DU?$char_traits@D@std@@V?$allocator@D@2@@std@@QAEAAV12@QBDI@Z
_TEXT	SEGMENT
$T1 = -24						; size = 1
__First1$ = -20						; size = 4
__Old_ptr$2 = -16					; size = 4
__Old_size$ = -12					; size = 4
_this$ = -8						; size = 4
$T3 = -1						; size = 1
__Ptr$ = 8						; size = 4
__Count$ = 12						; size = 4
?append@?$basic_string@DU?$char_traits@D@std@@V?$allocator@D@2@@std@@QAEAAV12@QBDI@Z PROC ; std::basic_string<char,std::char_traits<char>,std::allocator<char> >::append, COMDAT
; _this$ = ecx

; 2935 :     basic_string& append(_In_reads_(_Count) const _Elem* const _Ptr, _CRT_GUARDOVERFLOW const size_type _Count) {

  00000	55		 push	 ebp
  00001	8b ec		 mov	 ebp, esp
  00003	83 ec 18	 sub	 esp, 24			; 00000018H
  00006	89 4d f8	 mov	 DWORD PTR _this$[ebp], ecx

; 2936 :         // append [_Ptr, _Ptr + _Count)
; 2937 :         const size_type _Old_size = _Mypair._Myval2._Mysize;

  00009	8b 45 f8	 mov	 eax, DWORD PTR _this$[ebp]
  0000c	8b 40 10	 mov	 eax, DWORD PTR [eax+16]
  0000f	89 45 f4	 mov	 DWORD PTR __Old_size$[ebp], eax

; 2938 :         if (_Count <= _Mypair._Myval2._Myres - _Old_size) {

  00012	8b 45 f8	 mov	 eax, DWORD PTR _this$[ebp]
  00015	8b 40 14	 mov	 eax, DWORD PTR [eax+20]
  00018	2b 45 f4	 sub	 eax, DWORD PTR __Old_size$[ebp]
  0001b	39 45 0c	 cmp	 DWORD PTR __Count$[ebp], eax
  0001e	77 49		 ja	 SHORT $LN2@append

; 2939 :             _Mypair._Myval2._Mysize = _Old_size + _Count;

  00020	8b 45 f4	 mov	 eax, DWORD PTR __Old_size$[ebp]
  00023	03 45 0c	 add	 eax, DWORD PTR __Count$[ebp]
  00026	8b 4d f8	 mov	 ecx, DWORD PTR _this$[ebp]
  00029	89 41 10	 mov	 DWORD PTR [ecx+16], eax

; 2940 :             _Elem* const _Old_ptr   = _Mypair._Myval2._Myptr();

  0002c	8b 4d f8	 mov	 ecx, DWORD PTR _this$[ebp]
  0002f	e8 00 00 00 00	 call	 ?_Myptr@?$_String_val@U?$_Simple_types@D@std@@@std@@QAEPADXZ ; std::_String_val<std::_Simple_types<char> >::_Myptr
  00034	89 45 f0	 mov	 DWORD PTR __Old_ptr$2[ebp], eax

; 2941 :             _Traits::move(_Old_ptr + _Old_size, _Ptr, _Count);

  00037	8b 45 f0	 mov	 eax, DWORD PTR __Old_ptr$2[ebp]
  0003a	03 45 f4	 add	 eax, DWORD PTR __Old_size$[ebp]
  0003d	89 45 ec	 mov	 DWORD PTR __First1$[ebp], eax

; 119  :         _CSTD memmove(_First1, _First2, _Count * sizeof(_Elem));

  00040	ff 75 0c	 push	 DWORD PTR __Count$[ebp]
  00043	ff 75 08	 push	 DWORD PTR __Ptr$[ebp]
  00046	ff 75 ec	 push	 DWORD PTR __First1$[ebp]
  00049	e8 00 00 00 00	 call	 _memmove
  0004e	83 c4 0c	 add	 esp, 12			; 0000000cH

; 2942 :             _Traits::assign(_Old_ptr[_Old_size + _Count], _Elem());

  00051	c6 45 ff 00	 mov	 BYTE PTR $T3[ebp], 0
  00055	8b 45 f4	 mov	 eax, DWORD PTR __Old_size$[ebp]
  00058	03 45 0c	 add	 eax, DWORD PTR __Count$[ebp]

; 428  :         _Left = _Right;

  0005b	8b 4d f0	 mov	 ecx, DWORD PTR __Old_ptr$2[ebp]
  0005e	8a 55 ff	 mov	 dl, BYTE PTR $T3[ebp]
  00061	88 14 01	 mov	 BYTE PTR [ecx+eax], dl

; 2943 :             return *this;

  00064	8b 45 f8	 mov	 eax, DWORD PTR _this$[ebp]
  00067	eb 19		 jmp	 SHORT $LN1@append
$LN2@append:

; 2944 :         }
; 2945 : 
; 2946 :         return _Reallocate_grow_by(

  00069	33 c0		 xor	 eax, eax
  0006b	88 45 e8	 mov	 BYTE PTR $T1[ebp], al
  0006e	ff 75 0c	 push	 DWORD PTR __Count$[ebp]
  00071	ff 75 08	 push	 DWORD PTR __Ptr$[ebp]
  00074	ff 75 e8	 push	 DWORD PTR $T1[ebp]
  00077	ff 75 0c	 push	 DWORD PTR __Count$[ebp]
  0007a	8b 4d f8	 mov	 ecx, DWORD PTR _this$[ebp]
  0007d	e8 00 00 00 00	 call	 ??$_Reallocate_grow_by@V<lambda_ab246b20b9526e2ef7792587e4298a77>@@PBDI@?$basic_string@DU?$char_traits@D@std@@V?$allocator@D@2@@std@@AAEAAV01@IV<lambda_ab246b20b9526e2ef7792587e4298a77>@@PBDI@Z ; std::basic_string<char,std::char_traits<char>,std::allocator<char> >::_Reallocate_grow_by<<lambda_ab246b20b9526e2ef7792587e4298a77>,char const *,unsigned int>
$LN1@append:

; 2947 :             _Count,
; 2948 :             [](_Elem* const _New_ptr, const _Elem* const _Old_ptr, const size_type _Old_size, const _Elem* const _Ptr,
; 2949 :                 const size_type _Count) {
; 2950 :                 _Traits::copy(_New_ptr, _Old_ptr, _Old_size);
; 2951 :                 _Traits::copy(_New_ptr + _Old_size, _Ptr, _Count);
; 2952 :                 _Traits::assign(_New_ptr[_Old_size + _Count], _Elem());
; 2953 :             },
; 2954 :             _Ptr, _Count);
; 2955 :     }

  00082	c9		 leave
  00083	c2 08 00	 ret	 8
?append@?$basic_string@DU?$char_traits@D@std@@V?$allocator@D@2@@std@@QAEAAV12@QBDI@Z ENDP ; std::basic_string<char,std::char_traits<char>,std::allocator<char> >::append
_TEXT	ENDS
; Function compile flags: /Odspy
; File C:\Program Files (x86)\Microsoft Visual Studio\2019\Community\VC\Tools\MSVC\14.28.29333\include\xstring
;	COMDAT ??1?$basic_string@DU?$char_traits@D@std@@V?$allocator@D@2@@std@@QAE@XZ
_TEXT	SEGMENT
_this$ = -4						; size = 4
??1?$basic_string@DU?$char_traits@D@std@@V?$allocator@D@2@@std@@QAE@XZ PROC ; std::basic_string<char,std::char_traits<char>,std::allocator<char> >::~basic_string<char,std::char_traits<char>,std::allocator<char> >, COMDAT
; _this$ = ecx

; 2800 :     ~basic_string() noexcept {

  00000	55		 push	 ebp
  00001	8b ec		 mov	 ebp, esp
  00003	51		 push	 ecx
  00004	89 4d fc	 mov	 DWORD PTR _this$[ebp], ecx

; 2801 :         _Tidy_deallocate();

  00007	8b 4d fc	 mov	 ecx, DWORD PTR _this$[ebp]
  0000a	e8 00 00 00 00	 call	 ?_Tidy_deallocate@?$basic_string@DU?$char_traits@D@std@@V?$allocator@D@2@@std@@AAEXXZ ; std::basic_string<char,std::char_traits<char>,std::allocator<char> >::_Tidy_deallocate

; 2802 : #if _ITERATOR_DEBUG_LEVEL != 0
; 2803 :         auto&& _Alproxy          = _GET_PROXY_ALLOCATOR(_Alty, _Getal());
; 2804 :         const auto _To_delete    = _Mypair._Myval2._Myproxy;
; 2805 :         _Mypair._Myval2._Myproxy = nullptr;
; 2806 :         _Delete_plain_internal(_Alproxy, _To_delete);
; 2807 : #endif // _ITERATOR_DEBUG_LEVEL != 0
; 2808 :     }

  0000f	c9		 leave
  00010	c3		 ret	 0
??1?$basic_string@DU?$char_traits@D@std@@V?$allocator@D@2@@std@@QAE@XZ ENDP ; std::basic_string<char,std::char_traits<char>,std::allocator<char> >::~basic_string<char,std::char_traits<char>,std::allocator<char> >
_TEXT	ENDS
; Function compile flags: /Odspy
; File C:\Program Files (x86)\Microsoft Visual Studio\2019\Community\VC\Tools\MSVC\14.28.29333\include\xstring
; File C:\Program Files (x86)\Microsoft Visual Studio\2019\Community\VC\Tools\MSVC\14.28.29333\include\xmemory
; File C:\Program Files (x86)\Microsoft Visual Studio\2019\Community\VC\Tools\MSVC\14.28.29333\include\xstring
; File C:\Program Files (x86)\Microsoft Visual Studio\2019\Community\VC\Tools\MSVC\14.28.29333\include\xmemory
; File C:\Program Files (x86)\Microsoft Visual Studio\2019\Community\VC\Tools\MSVC\14.28.29333\include\xstring
;	COMDAT ??0?$basic_string@DU?$char_traits@D@std@@V?$allocator@D@2@@std@@QAE@QBD@Z
_TEXT	SEGMENT
__Alproxy$ = -40					; size = 4
$T2 = -36						; size = 4
$T3 = -32						; size = 4
_this$ = -28						; size = 4
_this$ = -24						; size = 4
_this$ = -20						; size = 4
_$S6$ = -13						; size = 1
__$EHRec$ = -12						; size = 12
__Ptr$ = 8						; size = 4
??0?$basic_string@DU?$char_traits@D@std@@V?$allocator@D@2@@std@@QAE@QBD@Z PROC ; std::basic_string<char,std::char_traits<char>,std::allocator<char> >::basic_string<char,std::char_traits<char>,std::allocator<char> >, COMDAT
; _this$ = ecx

; 2413 :     basic_string(_In_z_ const _Elem* const _Ptr) : _Mypair(_Zero_then_variadic_args_t{}) {

  00000	55		 push	 ebp
  00001	8b ec		 mov	 ebp, esp
  00003	6a ff		 push	 -1
  00005	68 00 00 00 00	 push	 __ehhandler$??0?$basic_string@DU?$char_traits@D@std@@V?$allocator@D@2@@std@@QAE@QBD@Z
  0000a	64 a1 00 00 00
	00		 mov	 eax, DWORD PTR fs:0
  00010	50		 push	 eax
  00011	83 ec 1c	 sub	 esp, 28			; 0000001cH
  00014	a1 00 00 00 00	 mov	 eax, DWORD PTR ___security_cookie
  00019	33 c5		 xor	 eax, ebp
  0001b	50		 push	 eax
  0001c	8d 45 f4	 lea	 eax, DWORD PTR __$EHRec$[ebp]
  0001f	64 a3 00 00 00
	00		 mov	 DWORD PTR fs:0, eax
  00025	89 4d ec	 mov	 DWORD PTR _this$[ebp], ecx
  00028	8b 45 ec	 mov	 eax, DWORD PTR _this$[ebp]
  0002b	89 45 e4	 mov	 DWORD PTR _this$[ebp], eax
; File C:\Program Files (x86)\Microsoft Visual Studio\2019\Community\VC\Tools\MSVC\14.28.29333\include\xmemory

; 1339 :         : _Ty1(), _Myval2(_STD forward<_Other2>(_Val2)...) {}

  0002e	8b 45 e4	 mov	 eax, DWORD PTR _this$[ebp]
  00031	89 45 e8	 mov	 DWORD PTR _this$[ebp], eax
; File C:\Program Files (x86)\Microsoft Visual Studio\2019\Community\VC\Tools\MSVC\14.28.29333\include\xstring

; 2198 :     _String_val() noexcept : _Bx(), _Mysize(0), _Myres(0) {}

  00034	8b 45 e8	 mov	 eax, DWORD PTR _this$[ebp]
  00037	83 60 10 00	 and	 DWORD PTR [eax+16], 0
  0003b	8b 45 e8	 mov	 eax, DWORD PTR _this$[ebp]
  0003e	83 60 14 00	 and	 DWORD PTR [eax+20], 0

; 2413 :     basic_string(_In_z_ const _Elem* const _Ptr) : _Mypair(_Zero_then_variadic_args_t{}) {

  00042	83 65 fc 00	 and	 DWORD PTR __$EHRec$[ebp+8], 0

; 2414 :         auto&& _Alproxy = _GET_PROXY_ALLOCATOR(_Alty, _Getal());

  00046	8d 45 f3	 lea	 eax, DWORD PTR _$S6$[ebp]
  00049	89 45 d8	 mov	 DWORD PTR __Alproxy$[ebp], eax

; 2415 :         _Container_proxy_ptr<_Alty> _Proxy(_Alproxy, _Mypair._Myval2);
; 2416 :         _Tidy_init();

  0004c	8b 4d ec	 mov	 ecx, DWORD PTR _this$[ebp]
  0004f	e8 00 00 00 00	 call	 ?_Tidy_init@?$basic_string@DU?$char_traits@D@std@@V?$allocator@D@2@@std@@AAEXXZ ; std::basic_string<char,std::char_traits<char>,std::allocator<char> >::_Tidy_init

; 389  :         return _CSTD strlen(reinterpret_cast<const char*>(_First));

  00054	ff 75 08	 push	 DWORD PTR __Ptr$[ebp]
  00057	e8 00 00 00 00	 call	 _strlen
  0005c	59		 pop	 ecx
  0005d	89 45 e0	 mov	 DWORD PTR $T3[ebp], eax
; File C:\Program Files (x86)\Microsoft Visual Studio\2019\Community\VC\Tools\MSVC\14.28.29333\include\xmemory

; 997  :     return _Len;

  00060	8b 45 e0	 mov	 eax, DWORD PTR $T3[ebp]
  00063	89 45 dc	 mov	 DWORD PTR $T2[ebp], eax
; File C:\Program Files (x86)\Microsoft Visual Studio\2019\Community\VC\Tools\MSVC\14.28.29333\include\xstring

; 3062 :         return assign(_Ptr, _Convert_size<size_type>(_Traits::length(_Ptr)));

  00066	ff 75 dc	 push	 DWORD PTR $T2[ebp]
  00069	ff 75 08	 push	 DWORD PTR __Ptr$[ebp]
  0006c	8b 4d ec	 mov	 ecx, DWORD PTR _this$[ebp]
  0006f	e8 00 00 00 00	 call	 ?assign@?$basic_string@DU?$char_traits@D@std@@V?$allocator@D@2@@std@@QAEAAV12@QBDI@Z ; std::basic_string<char,std::char_traits<char>,std::allocator<char> >::assign

; 2417 :         assign(_Ptr);
; 2418 :         _Proxy._Release();
; 2419 :     }

  00074	83 4d fc ff	 or	 DWORD PTR __$EHRec$[ebp+8], -1
  00078	8b 45 ec	 mov	 eax, DWORD PTR _this$[ebp]
  0007b	8b 4d f4	 mov	 ecx, DWORD PTR __$EHRec$[ebp]
  0007e	64 89 0d 00 00
	00 00		 mov	 DWORD PTR fs:0, ecx
  00085	59		 pop	 ecx
  00086	c9		 leave
  00087	c2 04 00	 ret	 4
_TEXT	ENDS
;	COMDAT text$x
text$x	SEGMENT
__unwindfunclet$??0?$basic_string@DU?$char_traits@D@std@@V?$allocator@D@2@@std@@QAE@QBD@Z$0:
  00000	8b 4d ec	 mov	 ecx, DWORD PTR _this$[ebp]
  00003	e9 00 00 00 00	 jmp	 ??1?$_Compressed_pair@V?$allocator@D@std@@V?$_String_val@U?$_Simple_types@D@std@@@2@$00@std@@QAE@XZ
  00008	cc		 int	 3
  00009	cc		 int	 3
  0000a	cc		 int	 3
  0000b	cc		 int	 3
  0000c	cc		 int	 3
__ehhandler$??0?$basic_string@DU?$char_traits@D@std@@V?$allocator@D@2@@std@@QAE@QBD@Z:
  0000d	90		 npad	 1
  0000e	90		 npad	 1
  0000f	8b 54 24 08	 mov	 edx, DWORD PTR [esp+8]
  00013	8d 42 0c	 lea	 eax, DWORD PTR [edx+12]
  00016	8b 4a e0	 mov	 ecx, DWORD PTR [edx-32]
  00019	33 c8		 xor	 ecx, eax
  0001b	e8 00 00 00 00	 call	 @__security_check_cookie@4
  00020	b8 00 00 00 00	 mov	 eax, OFFSET __ehfuncinfo$??0?$basic_string@DU?$char_traits@D@std@@V?$allocator@D@2@@std@@QAE@QBD@Z
  00025	e9 00 00 00 00	 jmp	 ___CxxFrameHandler3
text$x	ENDS
??0?$basic_string@DU?$char_traits@D@std@@V?$allocator@D@2@@std@@QAE@QBD@Z ENDP ; std::basic_string<char,std::char_traits<char>,std::allocator<char> >::basic_string<char,std::char_traits<char>,std::allocator<char> >
; Function compile flags: /Odspy
; File C:\Program Files (x86)\Microsoft Visual Studio\2019\Community\VC\Tools\MSVC\14.28.29333\include\xstring
; File C:\Program Files (x86)\Microsoft Visual Studio\2019\Community\VC\Tools\MSVC\14.28.29333\include\xstddef
; File C:\Program Files (x86)\Microsoft Visual Studio\2019\Community\VC\Tools\MSVC\14.28.29333\include\xstring
;	COMDAT ?_Myptr@?$_String_val@U?$_Simple_types@D@std@@@std@@QAEPADXZ
_TEXT	SEGMENT
__Ptr$ = -20						; size = 4
__Result$ = -16						; size = 4
tv76 = -12						; size = 4
_this$ = -8						; size = 4
$T1 = -1						; size = 1
?_Myptr@?$_String_val@U?$_Simple_types@D@std@@@std@@QAEPADXZ PROC ; std::_String_val<std::_Simple_types<char> >::_Myptr, COMDAT
; _this$ = ecx

; 2208 :     value_type* _Myptr() noexcept {

  00000	55		 push	 ebp
  00001	8b ec		 mov	 ebp, esp
  00003	83 ec 14	 sub	 esp, 20			; 00000014H
  00006	89 4d f8	 mov	 DWORD PTR _this$[ebp], ecx

; 2209 :         value_type* _Result = _Bx._Buf;

  00009	8b 45 f8	 mov	 eax, DWORD PTR _this$[ebp]
  0000c	89 45 f0	 mov	 DWORD PTR __Result$[ebp], eax

; 2227 :         return _BUF_SIZE <= _Myres;

  0000f	8b 45 f8	 mov	 eax, DWORD PTR _this$[ebp]
  00012	83 78 14 10	 cmp	 DWORD PTR [eax+20], 16	; 00000010H
  00016	72 09		 jb	 SHORT $LN6@Myptr
  00018	c7 45 f4 01 00
	00 00		 mov	 DWORD PTR tv76[ebp], 1
  0001f	eb 04		 jmp	 SHORT $LN7@Myptr
$LN6@Myptr:
  00021	83 65 f4 00	 and	 DWORD PTR tv76[ebp], 0
$LN7@Myptr:
  00025	8a 45 f4	 mov	 al, BYTE PTR tv76[ebp]
  00028	88 45 ff	 mov	 BYTE PTR $T1[ebp], al

; 2210 :         if (_Large_string_engaged()) {

  0002b	0f b6 45 ff	 movzx	 eax, BYTE PTR $T1[ebp]
  0002f	85 c0		 test	 eax, eax
  00031	74 0e		 je	 SHORT $LN2@Myptr

; 2211 :             _Result = _Unfancy(_Bx._Ptr);

  00033	8b 45 f8	 mov	 eax, DWORD PTR _this$[ebp]
  00036	8b 00		 mov	 eax, DWORD PTR [eax]
  00038	89 45 ec	 mov	 DWORD PTR __Ptr$[ebp], eax
; File C:\Program Files (x86)\Microsoft Visual Studio\2019\Community\VC\Tools\MSVC\14.28.29333\include\xstddef

; 289  :     return _Ptr;

  0003b	8b 45 ec	 mov	 eax, DWORD PTR __Ptr$[ebp]
  0003e	89 45 f0	 mov	 DWORD PTR __Result$[ebp], eax
$LN2@Myptr:
; File C:\Program Files (x86)\Microsoft Visual Studio\2019\Community\VC\Tools\MSVC\14.28.29333\include\xstring

; 2214 :         return _Result;

  00041	8b 45 f0	 mov	 eax, DWORD PTR __Result$[ebp]

; 2215 :     }

  00044	c9		 leave
  00045	c3		 ret	 0
?_Myptr@?$_String_val@U?$_Simple_types@D@std@@@std@@QAEPADXZ ENDP ; std::_String_val<std::_Simple_types<char> >::_Myptr
_TEXT	ENDS
; Function compile flags: /Odspy
; File C:\Program Files (x86)\Microsoft Visual Studio\2019\Community\VC\Tools\MSVC\14.28.29333\include\xstring
;	COMDAT ?_Xlen_string@std@@YAXXZ
_TEXT	SEGMENT
?_Xlen_string@std@@YAXXZ PROC				; std::_Xlen_string, COMDAT

; 2274 : [[noreturn]] inline void _Xlen_string() {

  00000	55		 push	 ebp
  00001	8b ec		 mov	 ebp, esp

; 2275 :     _Xlength_error("string too long");

  00003	68 00 00 00 00	 push	 OFFSET ??_C@_0BA@JFNIOLAK@string?5too?5long@
  00008	e8 00 00 00 00	 call	 ?_Xlength_error@std@@YAXPBD@Z ; std::_Xlength_error
$LN2@Xlen_strin:

; 2276 : }

  0000d	5d		 pop	 ebp
  0000e	c3		 ret	 0
?_Xlen_string@std@@YAXXZ ENDP				; std::_Xlen_string
_TEXT	ENDS
; Function compile flags: /Odspy
; File C:\Program Files (x86)\Microsoft Visual Studio\2019\Community\VC\Tools\MSVC\14.28.29333\include\xmemory
;	COMDAT ?_Adjust_manually_vector_aligned@std@@YAXAAPAXAAI@Z
_TEXT	SEGMENT
__Min_back_shift$ = -16					; size = 4
__Ptr_user$ = -12					; size = 4
__Ptr_container$ = -8					; size = 4
__Back_shift$ = -4					; size = 4
__Ptr$ = 8						; size = 4
__Bytes$ = 12						; size = 4
?_Adjust_manually_vector_aligned@std@@YAXAAPAXAAI@Z PROC ; std::_Adjust_manually_vector_aligned, COMDAT

; 132  : inline void _Adjust_manually_vector_aligned(void*& _Ptr, size_t& _Bytes) {

  00000	55		 push	 ebp
  00001	8b ec		 mov	 ebp, esp
  00003	83 ec 10	 sub	 esp, 16			; 00000010H

; 133  :     // adjust parameters from _Allocate_manually_vector_aligned to pass to operator delete
; 134  :     _Bytes += _Non_user_size;

  00006	8b 45 0c	 mov	 eax, DWORD PTR __Bytes$[ebp]
  00009	8b 00		 mov	 eax, DWORD PTR [eax]
  0000b	83 c0 23	 add	 eax, 35			; 00000023H
  0000e	8b 4d 0c	 mov	 ecx, DWORD PTR __Bytes$[ebp]
  00011	89 01		 mov	 DWORD PTR [ecx], eax

; 135  : 
; 136  :     const uintptr_t* const _Ptr_user = reinterpret_cast<uintptr_t*>(_Ptr);

  00013	8b 45 08	 mov	 eax, DWORD PTR __Ptr$[ebp]
  00016	8b 00		 mov	 eax, DWORD PTR [eax]
  00018	89 45 f4	 mov	 DWORD PTR __Ptr_user$[ebp], eax

; 137  :     const uintptr_t _Ptr_container   = _Ptr_user[-1];

  0001b	6a 04		 push	 4
  0001d	58		 pop	 eax
  0001e	6b c0 ff	 imul	 eax, eax, -1
  00021	8b 4d f4	 mov	 ecx, DWORD PTR __Ptr_user$[ebp]
  00024	8b 04 01	 mov	 eax, DWORD PTR [ecx+eax]
  00027	89 45 f8	 mov	 DWORD PTR __Ptr_container$[ebp], eax

; 138  : 
; 139  :     // If the following asserts, it likely means that we are performing
; 140  :     // an aligned delete on memory coming from an unaligned allocation.
; 141  :     _STL_ASSERT(_Ptr_user[-2] == _Big_allocation_sentinel, "invalid argument");
; 142  : 
; 143  :     // Extra paranoia on aligned allocation/deallocation; ensure _Ptr_container is
; 144  :     // in range [_Min_back_shift, _Non_user_size]
; 145  : #ifdef _DEBUG
; 146  :     constexpr uintptr_t _Min_back_shift = 2 * sizeof(void*);
; 147  : #else // ^^^ _DEBUG ^^^ // vvv !_DEBUG vvv
; 148  :     constexpr uintptr_t _Min_back_shift = sizeof(void*);

  0002a	c7 45 f0 04 00
	00 00		 mov	 DWORD PTR __Min_back_shift$[ebp], 4

; 149  : #endif // _DEBUG
; 150  :     const uintptr_t _Back_shift = reinterpret_cast<uintptr_t>(_Ptr) - _Ptr_container;

  00031	8b 45 08	 mov	 eax, DWORD PTR __Ptr$[ebp]
  00034	8b 00		 mov	 eax, DWORD PTR [eax]
  00036	2b 45 f8	 sub	 eax, DWORD PTR __Ptr_container$[ebp]
  00039	89 45 fc	 mov	 DWORD PTR __Back_shift$[ebp], eax
$LN4@Adjust_man:

; 151  :     _STL_VERIFY(_Back_shift >= _Min_back_shift && _Back_shift <= _Non_user_size, "invalid argument");

  0003c	83 7d fc 04	 cmp	 DWORD PTR __Back_shift$[ebp], 4
  00040	72 08		 jb	 SHORT $LN7@Adjust_man
  00042	83 7d fc 23	 cmp	 DWORD PTR __Back_shift$[ebp], 35 ; 00000023H
  00046	77 02		 ja	 SHORT $LN7@Adjust_man
  00048	eb 09		 jmp	 SHORT $LN2@Adjust_man
$LN7@Adjust_man:
  0004a	e8 00 00 00 00	 call	 __invalid_parameter_noinfo_noreturn
  0004f	33 c0		 xor	 eax, eax
  00051	75 f7		 jne	 SHORT $LN7@Adjust_man
$LN2@Adjust_man:
  00053	33 c0		 xor	 eax, eax
  00055	75 e5		 jne	 SHORT $LN4@Adjust_man

; 152  :     _Ptr = reinterpret_cast<void*>(_Ptr_container);

  00057	8b 45 08	 mov	 eax, DWORD PTR __Ptr$[ebp]
  0005a	8b 4d f8	 mov	 ecx, DWORD PTR __Ptr_container$[ebp]
  0005d	89 08		 mov	 DWORD PTR [eax], ecx
$LN10@Adjust_man:

; 153  : }

  0005f	c9		 leave
  00060	c3		 ret	 0
?_Adjust_manually_vector_aligned@std@@YAXAAPAXAAI@Z ENDP ; std::_Adjust_manually_vector_aligned
_TEXT	ENDS
; Function compile flags: /Odspy
; File C:\Program Files (x86)\Microsoft Visual Studio\2019\Community\VC\Tools\MSVC\14.28.29333\include\exception
;	COMDAT ?_Throw_bad_array_new_length@std@@YAXXZ
_TEXT	SEGMENT
$T1 = -12						; size = 12
?_Throw_bad_array_new_length@std@@YAXXZ PROC		; std::_Throw_bad_array_new_length, COMDAT

; 320  : [[noreturn]] inline void _Throw_bad_array_new_length() {

  00000	55		 push	 ebp
  00001	8b ec		 mov	 ebp, esp
  00003	83 ec 0c	 sub	 esp, 12			; 0000000cH

; 321  :     _THROW(bad_array_new_length{});

  00006	8d 4d f4	 lea	 ecx, DWORD PTR $T1[ebp]
  00009	e8 00 00 00 00	 call	 ??0bad_array_new_length@std@@QAE@XZ ; std::bad_array_new_length::bad_array_new_length
  0000e	68 00 00 00 00	 push	 OFFSET __TI3?AVbad_array_new_length@std@@
  00013	8d 45 f4	 lea	 eax, DWORD PTR $T1[ebp]
  00016	50		 push	 eax
  00017	e8 00 00 00 00	 call	 __CxxThrowException@8
$LN2@Throw_bad_:

; 322  : }

  0001c	c9		 leave
  0001d	c3		 ret	 0
?_Throw_bad_array_new_length@std@@YAXXZ ENDP		; std::_Throw_bad_array_new_length
_TEXT	ENDS
; Function compile flags: /Odspy
; File C:\Program Files (x86)\Microsoft Visual Studio\2019\Community\VC\Tools\MSVC\14.28.29333\include\vcruntime_exception.h
;	COMDAT ??_Gbad_array_new_length@std@@UAEPAXI@Z
_TEXT	SEGMENT
_this$ = -4						; size = 4
___flags$ = 8						; size = 4
??_Gbad_array_new_length@std@@UAEPAXI@Z PROC		; std::bad_array_new_length::`scalar deleting destructor', COMDAT
; _this$ = ecx
  00000	55		 push	 ebp
  00001	8b ec		 mov	 ebp, esp
  00003	51		 push	 ecx
  00004	89 4d fc	 mov	 DWORD PTR _this$[ebp], ecx

; 89   :     {

  00007	8b 45 fc	 mov	 eax, DWORD PTR _this$[ebp]
  0000a	c7 00 00 00 00
	00		 mov	 DWORD PTR [eax], OFFSET ??_7exception@std@@6B@

; 90   :         __std_exception_destroy(&_Data);

  00010	8b 45 fc	 mov	 eax, DWORD PTR _this$[ebp]
  00013	83 c0 04	 add	 eax, 4
  00016	50		 push	 eax
  00017	e8 00 00 00 00	 call	 ___std_exception_destroy
  0001c	59		 pop	 ecx
  0001d	8b 45 08	 mov	 eax, DWORD PTR ___flags$[ebp]
  00020	83 e0 01	 and	 eax, 1
  00023	74 0c		 je	 SHORT $LN2@scalar
  00025	6a 0c		 push	 12			; 0000000cH
  00027	ff 75 fc	 push	 DWORD PTR _this$[ebp]
  0002a	e8 00 00 00 00	 call	 ??3@YAXPAXI@Z		; operator delete
  0002f	59		 pop	 ecx
  00030	59		 pop	 ecx
$LN2@scalar:
  00031	8b 45 fc	 mov	 eax, DWORD PTR _this$[ebp]
  00034	c9		 leave
  00035	c2 04 00	 ret	 4
??_Gbad_array_new_length@std@@UAEPAXI@Z ENDP		; std::bad_array_new_length::`scalar deleting destructor'
_TEXT	ENDS
; Function compile flags: /Odspy
;	COMDAT ??0bad_array_new_length@std@@QAE@ABV01@@Z
_TEXT	SEGMENT
_this$ = -4						; size = 4
___that$ = 8						; size = 4
??0bad_array_new_length@std@@QAE@ABV01@@Z PROC		; std::bad_array_new_length::bad_array_new_length, COMDAT
; _this$ = ecx
  00000	55		 push	 ebp
  00001	8b ec		 mov	 ebp, esp
  00003	51		 push	 ecx
  00004	89 4d fc	 mov	 DWORD PTR _this$[ebp], ecx
  00007	ff 75 08	 push	 DWORD PTR ___that$[ebp]
  0000a	8b 4d fc	 mov	 ecx, DWORD PTR _this$[ebp]
  0000d	e8 00 00 00 00	 call	 ??0exception@std@@QAE@ABV01@@Z ; std::exception::exception
  00012	8b 45 fc	 mov	 eax, DWORD PTR _this$[ebp]
  00015	c7 00 00 00 00
	00		 mov	 DWORD PTR [eax], OFFSET ??_7bad_alloc@std@@6B@
  0001b	8b 45 fc	 mov	 eax, DWORD PTR _this$[ebp]
  0001e	c7 00 00 00 00
	00		 mov	 DWORD PTR [eax], OFFSET ??_7bad_array_new_length@std@@6B@
  00024	8b 45 fc	 mov	 eax, DWORD PTR _this$[ebp]
  00027	c9		 leave
  00028	c2 04 00	 ret	 4
??0bad_array_new_length@std@@QAE@ABV01@@Z ENDP		; std::bad_array_new_length::bad_array_new_length
_TEXT	ENDS
; Function compile flags: /Odspy
; File C:\Program Files (x86)\Microsoft Visual Studio\2019\Community\VC\Tools\MSVC\14.28.29333\include\vcruntime_exception.h
;	COMDAT ??1bad_array_new_length@std@@UAE@XZ
_TEXT	SEGMENT
_this$ = -4						; size = 4
??1bad_array_new_length@std@@UAE@XZ PROC		; std::bad_array_new_length::~bad_array_new_length, COMDAT
; _this$ = ecx
  00000	55		 push	 ebp
  00001	8b ec		 mov	 ebp, esp
  00003	51		 push	 ecx
  00004	89 4d fc	 mov	 DWORD PTR _this$[ebp], ecx

; 89   :     {

  00007	8b 45 fc	 mov	 eax, DWORD PTR _this$[ebp]
  0000a	c7 00 00 00 00
	00		 mov	 DWORD PTR [eax], OFFSET ??_7exception@std@@6B@

; 90   :         __std_exception_destroy(&_Data);

  00010	8b 45 fc	 mov	 eax, DWORD PTR _this$[ebp]
  00013	83 c0 04	 add	 eax, 4
  00016	50		 push	 eax
  00017	e8 00 00 00 00	 call	 ___std_exception_destroy
  0001c	59		 pop	 ecx
  0001d	c9		 leave
  0001e	c3		 ret	 0
??1bad_array_new_length@std@@UAE@XZ ENDP		; std::bad_array_new_length::~bad_array_new_length
_TEXT	ENDS
; Function compile flags: /Odspy
; File C:\Program Files (x86)\Microsoft Visual Studio\2019\Community\VC\Tools\MSVC\14.28.29333\include\vcruntime_exception.h
;	COMDAT ??0bad_array_new_length@std@@QAE@XZ
_TEXT	SEGMENT
_this$ = -4						; size = 4
??0bad_array_new_length@std@@QAE@XZ PROC		; std::bad_array_new_length::bad_array_new_length, COMDAT
; _this$ = ecx

; 141  :     {

  00000	55		 push	 ebp
  00001	8b ec		 mov	 ebp, esp
  00003	51		 push	 ecx
  00004	89 4d fc	 mov	 DWORD PTR _this$[ebp], ecx

; 66   :     {

  00007	8b 45 fc	 mov	 eax, DWORD PTR _this$[ebp]
  0000a	c7 00 00 00 00
	00		 mov	 DWORD PTR [eax], OFFSET ??_7exception@std@@6B@

; 65   :         : _Data()

  00010	33 c0		 xor	 eax, eax
  00012	8b 4d fc	 mov	 ecx, DWORD PTR _this$[ebp]
  00015	83 c1 04	 add	 ecx, 4
  00018	89 01		 mov	 DWORD PTR [ecx], eax
  0001a	89 41 04	 mov	 DWORD PTR [ecx+4], eax

; 67   :         _Data._What = _Message;

  0001d	8b 45 fc	 mov	 eax, DWORD PTR _this$[ebp]
  00020	c7 40 04 00 00
	00 00		 mov	 DWORD PTR [eax+4], OFFSET ??_C@_0BF@KINCDENJ@bad?5array?5new?5length@

; 130  :     {

  00027	8b 45 fc	 mov	 eax, DWORD PTR _this$[ebp]
  0002a	c7 00 00 00 00
	00		 mov	 DWORD PTR [eax], OFFSET ??_7bad_alloc@std@@6B@

; 141  :     {

  00030	8b 45 fc	 mov	 eax, DWORD PTR _this$[ebp]
  00033	c7 00 00 00 00
	00		 mov	 DWORD PTR [eax], OFFSET ??_7bad_array_new_length@std@@6B@

; 142  :     }

  00039	8b 45 fc	 mov	 eax, DWORD PTR _this$[ebp]
  0003c	c9		 leave
  0003d	c3		 ret	 0
??0bad_array_new_length@std@@QAE@XZ ENDP		; std::bad_array_new_length::bad_array_new_length
_TEXT	ENDS
; Function compile flags: /Odspy
; File C:\Program Files (x86)\Microsoft Visual Studio\2019\Community\VC\Tools\MSVC\14.28.29333\include\vcruntime_exception.h
;	COMDAT ??_Gbad_alloc@std@@UAEPAXI@Z
_TEXT	SEGMENT
_this$ = -4						; size = 4
___flags$ = 8						; size = 4
??_Gbad_alloc@std@@UAEPAXI@Z PROC			; std::bad_alloc::`scalar deleting destructor', COMDAT
; _this$ = ecx
  00000	55		 push	 ebp
  00001	8b ec		 mov	 ebp, esp
  00003	51		 push	 ecx
  00004	89 4d fc	 mov	 DWORD PTR _this$[ebp], ecx

; 89   :     {

  00007	8b 45 fc	 mov	 eax, DWORD PTR _this$[ebp]
  0000a	c7 00 00 00 00
	00		 mov	 DWORD PTR [eax], OFFSET ??_7exception@std@@6B@

; 90   :         __std_exception_destroy(&_Data);

  00010	8b 45 fc	 mov	 eax, DWORD PTR _this$[ebp]
  00013	83 c0 04	 add	 eax, 4
  00016	50		 push	 eax
  00017	e8 00 00 00 00	 call	 ___std_exception_destroy
  0001c	59		 pop	 ecx
  0001d	8b 45 08	 mov	 eax, DWORD PTR ___flags$[ebp]
  00020	83 e0 01	 and	 eax, 1
  00023	74 0c		 je	 SHORT $LN2@scalar
  00025	6a 0c		 push	 12			; 0000000cH
  00027	ff 75 fc	 push	 DWORD PTR _this$[ebp]
  0002a	e8 00 00 00 00	 call	 ??3@YAXPAXI@Z		; operator delete
  0002f	59		 pop	 ecx
  00030	59		 pop	 ecx
$LN2@scalar:
  00031	8b 45 fc	 mov	 eax, DWORD PTR _this$[ebp]
  00034	c9		 leave
  00035	c2 04 00	 ret	 4
??_Gbad_alloc@std@@UAEPAXI@Z ENDP			; std::bad_alloc::`scalar deleting destructor'
_TEXT	ENDS
; Function compile flags: /Odspy
;	COMDAT ??0bad_alloc@std@@QAE@ABV01@@Z
_TEXT	SEGMENT
_this$ = -4						; size = 4
___that$ = 8						; size = 4
??0bad_alloc@std@@QAE@ABV01@@Z PROC			; std::bad_alloc::bad_alloc, COMDAT
; _this$ = ecx
  00000	55		 push	 ebp
  00001	8b ec		 mov	 ebp, esp
  00003	51		 push	 ecx
  00004	89 4d fc	 mov	 DWORD PTR _this$[ebp], ecx
  00007	ff 75 08	 push	 DWORD PTR ___that$[ebp]
  0000a	8b 4d fc	 mov	 ecx, DWORD PTR _this$[ebp]
  0000d	e8 00 00 00 00	 call	 ??0exception@std@@QAE@ABV01@@Z ; std::exception::exception
  00012	8b 45 fc	 mov	 eax, DWORD PTR _this$[ebp]
  00015	c7 00 00 00 00
	00		 mov	 DWORD PTR [eax], OFFSET ??_7bad_alloc@std@@6B@
  0001b	8b 45 fc	 mov	 eax, DWORD PTR _this$[ebp]
  0001e	c9		 leave
  0001f	c2 04 00	 ret	 4
??0bad_alloc@std@@QAE@ABV01@@Z ENDP			; std::bad_alloc::bad_alloc
_TEXT	ENDS
; Function compile flags: /Odspy
; File C:\Program Files (x86)\Microsoft Visual Studio\2019\Community\VC\Tools\MSVC\14.28.29333\include\vcruntime_exception.h
;	COMDAT ??_Gexception@std@@UAEPAXI@Z
_TEXT	SEGMENT
_this$ = -4						; size = 4
___flags$ = 8						; size = 4
??_Gexception@std@@UAEPAXI@Z PROC			; std::exception::`scalar deleting destructor', COMDAT
; _this$ = ecx
  00000	55		 push	 ebp
  00001	8b ec		 mov	 ebp, esp
  00003	51		 push	 ecx
  00004	89 4d fc	 mov	 DWORD PTR _this$[ebp], ecx

; 89   :     {

  00007	8b 45 fc	 mov	 eax, DWORD PTR _this$[ebp]
  0000a	c7 00 00 00 00
	00		 mov	 DWORD PTR [eax], OFFSET ??_7exception@std@@6B@

; 90   :         __std_exception_destroy(&_Data);

  00010	8b 45 fc	 mov	 eax, DWORD PTR _this$[ebp]
  00013	83 c0 04	 add	 eax, 4
  00016	50		 push	 eax
  00017	e8 00 00 00 00	 call	 ___std_exception_destroy
  0001c	59		 pop	 ecx
  0001d	8b 45 08	 mov	 eax, DWORD PTR ___flags$[ebp]
  00020	83 e0 01	 and	 eax, 1
  00023	74 0c		 je	 SHORT $LN2@scalar
  00025	6a 0c		 push	 12			; 0000000cH
  00027	ff 75 fc	 push	 DWORD PTR _this$[ebp]
  0002a	e8 00 00 00 00	 call	 ??3@YAXPAXI@Z		; operator delete
  0002f	59		 pop	 ecx
  00030	59		 pop	 ecx
$LN2@scalar:
  00031	8b 45 fc	 mov	 eax, DWORD PTR _this$[ebp]
  00034	c9		 leave
  00035	c2 04 00	 ret	 4
??_Gexception@std@@UAEPAXI@Z ENDP			; std::exception::`scalar deleting destructor'
_TEXT	ENDS
; Function compile flags: /Odspy
; File C:\Program Files (x86)\Microsoft Visual Studio\2019\Community\VC\Tools\MSVC\14.28.29333\include\vcruntime_exception.h
;	COMDAT ?what@exception@std@@UBEPBDXZ
_TEXT	SEGMENT
tv69 = -8						; size = 4
_this$ = -4						; size = 4
?what@exception@std@@UBEPBDXZ PROC			; std::exception::what, COMDAT
; _this$ = ecx

; 94   :     {

  00000	55		 push	 ebp
  00001	8b ec		 mov	 ebp, esp
  00003	51		 push	 ecx
  00004	51		 push	 ecx
  00005	89 4d fc	 mov	 DWORD PTR _this$[ebp], ecx

; 95   :         return _Data._What ? _Data._What : "Unknown exception";

  00008	8b 45 fc	 mov	 eax, DWORD PTR _this$[ebp]
  0000b	83 78 04 00	 cmp	 DWORD PTR [eax+4], 0
  0000f	74 0b		 je	 SHORT $LN3@what
  00011	8b 45 fc	 mov	 eax, DWORD PTR _this$[ebp]
  00014	8b 40 04	 mov	 eax, DWORD PTR [eax+4]
  00017	89 45 f8	 mov	 DWORD PTR tv69[ebp], eax
  0001a	eb 07		 jmp	 SHORT $LN4@what
$LN3@what:
  0001c	c7 45 f8 00 00
	00 00		 mov	 DWORD PTR tv69[ebp], OFFSET ??_C@_0BC@EOODALEL@Unknown?5exception@
$LN4@what:
  00023	8b 45 f8	 mov	 eax, DWORD PTR tv69[ebp]

; 96   :     }

  00026	c9		 leave
  00027	c3		 ret	 0
?what@exception@std@@UBEPBDXZ ENDP			; std::exception::what
_TEXT	ENDS
; Function compile flags: /Odspy
; File C:\Program Files (x86)\Microsoft Visual Studio\2019\Community\VC\Tools\MSVC\14.28.29333\include\vcruntime_exception.h
;	COMDAT ??0exception@std@@QAE@ABV01@@Z
_TEXT	SEGMENT
_this$ = -4						; size = 4
__Other$ = 8						; size = 4
??0exception@std@@QAE@ABV01@@Z PROC			; std::exception::exception, COMDAT
; _this$ = ecx

; 72   :     {

  00000	55		 push	 ebp
  00001	8b ec		 mov	 ebp, esp
  00003	51		 push	 ecx
  00004	89 4d fc	 mov	 DWORD PTR _this$[ebp], ecx
  00007	8b 45 fc	 mov	 eax, DWORD PTR _this$[ebp]
  0000a	c7 00 00 00 00
	00		 mov	 DWORD PTR [eax], OFFSET ??_7exception@std@@6B@

; 71   :         : _Data()

  00010	33 c0		 xor	 eax, eax
  00012	8b 4d fc	 mov	 ecx, DWORD PTR _this$[ebp]
  00015	83 c1 04	 add	 ecx, 4
  00018	89 01		 mov	 DWORD PTR [ecx], eax
  0001a	89 41 04	 mov	 DWORD PTR [ecx+4], eax

; 73   :         __std_exception_copy(&_Other._Data, &_Data);

  0001d	8b 45 fc	 mov	 eax, DWORD PTR _this$[ebp]
  00020	83 c0 04	 add	 eax, 4
  00023	50		 push	 eax
  00024	8b 45 08	 mov	 eax, DWORD PTR __Other$[ebp]
  00027	83 c0 04	 add	 eax, 4
  0002a	50		 push	 eax
  0002b	e8 00 00 00 00	 call	 ___std_exception_copy
  00030	59		 pop	 ecx
  00031	59		 pop	 ecx

; 74   :     }

  00032	8b 45 fc	 mov	 eax, DWORD PTR _this$[ebp]
  00035	c9		 leave
  00036	c2 04 00	 ret	 4
??0exception@std@@QAE@ABV01@@Z ENDP			; std::exception::exception
_TEXT	ENDS
; Function compile flags: /Odspy
; File C:\Program Files (x86)\Windows Kits\10\Include\10.0.18362.0\ucrt\stdio.h
;	COMDAT __snprintf
_TEXT	SEGMENT
__Result$ = -20						; size = 4
__Format$ = -16						; size = 4
__ArgList$ = -12					; size = 4
tv86 = -8						; size = 4
__Result$1 = -4						; size = 4
__Buffer$ = 8						; size = 4
__BufferCount$ = 12					; size = 4
__Format$ = 16						; size = 4
__snprintf PROC						; COMDAT

; 1969 :     {

  00000	55		 push	 ebp
  00001	8b ec		 mov	 ebp, esp
  00003	83 ec 14	 sub	 esp, 20			; 00000014H

; 1970 :         int _Result;
; 1971 :         va_list _ArgList;
; 1972 :         __crt_va_start(_ArgList, _Format);

  00006	8d 45 14	 lea	 eax, DWORD PTR __Format$[ebp+4]
  00009	89 45 f4	 mov	 DWORD PTR __ArgList$[ebp], eax

; 1973 :     #pragma warning(suppress:28719)    // 28719
; 1974 :         _Result = _vsnprintf(_Buffer, _BufferCount, _Format, _ArgList);

  0000c	8b 45 10	 mov	 eax, DWORD PTR __Format$[ebp]
  0000f	89 45 f0	 mov	 DWORD PTR __Format$[ebp], eax

; 1390 :         int const _Result = __stdio_common_vsprintf(

  00012	ff 75 f4	 push	 DWORD PTR __ArgList$[ebp]
  00015	6a 00		 push	 0
  00017	ff 75 f0	 push	 DWORD PTR __Format$[ebp]
  0001a	ff 75 0c	 push	 DWORD PTR __BufferCount$[ebp]
  0001d	ff 75 08	 push	 DWORD PTR __Buffer$[ebp]
  00020	e8 00 00 00 00	 call	 ___local_stdio_printf_options
  00025	8b 08		 mov	 ecx, DWORD PTR [eax]
  00027	83 c9 01	 or	 ecx, 1
  0002a	8b 40 04	 mov	 eax, DWORD PTR [eax+4]
  0002d	50		 push	 eax
  0002e	51		 push	 ecx
  0002f	e8 00 00 00 00	 call	 ___stdio_common_vsprintf
  00034	83 c4 1c	 add	 esp, 28			; 0000001cH
  00037	89 45 fc	 mov	 DWORD PTR __Result$1[ebp], eax

; 1391 :             _CRT_INTERNAL_LOCAL_PRINTF_OPTIONS | _CRT_INTERNAL_PRINTF_LEGACY_VSPRINTF_NULL_TERMINATION,
; 1392 :             _Buffer, _BufferCount, _Format, _Locale, _ArgList);
; 1393 : 
; 1394 :         return _Result < 0 ? -1 : _Result;

  0003a	83 7d fc 00	 cmp	 DWORD PTR __Result$1[ebp], 0
  0003e	7d 06		 jge	 SHORT $LN7@snprintf
  00040	83 4d f8 ff	 or	 DWORD PTR tv86[ebp], -1
  00044	eb 06		 jmp	 SHORT $LN3@snprintf
$LN7@snprintf:
  00046	8b 45 fc	 mov	 eax, DWORD PTR __Result$1[ebp]
  00049	89 45 f8	 mov	 DWORD PTR tv86[ebp], eax
$LN3@snprintf:

; 1973 :     #pragma warning(suppress:28719)    // 28719
; 1974 :         _Result = _vsnprintf(_Buffer, _BufferCount, _Format, _ArgList);

  0004c	8b 45 f8	 mov	 eax, DWORD PTR tv86[ebp]
  0004f	89 45 ec	 mov	 DWORD PTR __Result$[ebp], eax

; 1975 :         __crt_va_end(_ArgList);

  00052	83 65 f4 00	 and	 DWORD PTR __ArgList$[ebp], 0

; 1976 :         return _Result;

  00056	8b 45 ec	 mov	 eax, DWORD PTR __Result$[ebp]

; 1977 :     }

  00059	c9		 leave
  0005a	c3		 ret	 0
__snprintf ENDP
_TEXT	ENDS
; Function compile flags: /Odspy
; File C:\Program Files (x86)\Windows Kits\10\Include\10.0.18362.0\ucrt\corecrt_stdio_config.h
;	COMDAT ___local_stdio_printf_options
_TEXT	SEGMENT
___local_stdio_printf_options PROC			; COMDAT

; 86   :     {

  00000	55		 push	 ebp
  00001	8b ec		 mov	 ebp, esp

; 87   :         static unsigned __int64 _OptionsStorage;
; 88   :         return &_OptionsStorage;

  00003	b8 00 00 00 00	 mov	 eax, OFFSET ?_OptionsStorage@?1??__local_stdio_printf_options@@9@4_KA ; `__local_stdio_printf_options'::`2'::_OptionsStorage

; 89   :     }

  00008	5d		 pop	 ebp
  00009	c3		 ret	 0
___local_stdio_printf_options ENDP
_TEXT	ENDS
END
