; Listing generated by Microsoft (R) Optimizing Compiler Version 19.28.29335.0 

	TITLE	D:\Metin2 Server Files\mainline\SRC_2014\Metin2Client\GameLib\PropertyLoader.cpp
	.686P
	.XMM
	include listing.inc
	.model	flat

INCLUDELIB LIBCMT
INCLUDELIB OLDNAMES

PUBLIC	??0exception@std@@QAE@ABV01@@Z			; std::exception::exception
PUBLIC	?what@exception@std@@UBEPBDXZ			; std::exception::what
PUBLIC	??_Gexception@std@@UAEPAXI@Z			; std::exception::`scalar deleting destructor'
PUBLIC	??0bad_alloc@std@@QAE@ABV01@@Z			; std::bad_alloc::bad_alloc
PUBLIC	??_Gbad_alloc@std@@UAEPAXI@Z			; std::bad_alloc::`scalar deleting destructor'
PUBLIC	??0bad_array_new_length@std@@QAE@XZ		; std::bad_array_new_length::bad_array_new_length
PUBLIC	??1bad_array_new_length@std@@UAE@XZ		; std::bad_array_new_length::~bad_array_new_length
PUBLIC	??0bad_array_new_length@std@@QAE@ABV01@@Z	; std::bad_array_new_length::bad_array_new_length
PUBLIC	??_Gbad_array_new_length@std@@UAEPAXI@Z		; std::bad_array_new_length::`scalar deleting destructor'
PUBLIC	?_Throw_bad_array_new_length@std@@YAXXZ		; std::_Throw_bad_array_new_length
PUBLIC	?_Adjust_manually_vector_aligned@std@@YAXAAPAXAAI@Z ; std::_Adjust_manually_vector_aligned
PUBLIC	?_Xlen_string@std@@YAXXZ			; std::_Xlen_string
PUBLIC	??0?$_String_val@U?$_Simple_types@D@std@@@std@@QAE@XZ ; std::_String_val<std::_Simple_types<char> >::_String_val<std::_Simple_types<char> >
PUBLIC	?_Myptr@?$_String_val@U?$_Simple_types@D@std@@@std@@QAEPADXZ ; std::_String_val<std::_Simple_types<char> >::_Myptr
PUBLIC	??0?$basic_string@DU?$char_traits@D@std@@V?$allocator@D@2@@std@@QAE@QBD@Z ; std::basic_string<char,std::char_traits<char>,std::allocator<char> >::basic_string<char,std::char_traits<char>,std::allocator<char> >
PUBLIC	??1?$basic_string@DU?$char_traits@D@std@@V?$allocator@D@2@@std@@QAE@XZ ; std::basic_string<char,std::char_traits<char>,std::allocator<char> >::~basic_string<char,std::char_traits<char>,std::allocator<char> >
PUBLIC	?append@?$basic_string@DU?$char_traits@D@std@@V?$allocator@D@2@@std@@QAEAAV12@QBDI@Z ; std::basic_string<char,std::char_traits<char>,std::allocator<char> >::append
PUBLIC	?assign@?$basic_string@DU?$char_traits@D@std@@V?$allocator@D@2@@std@@QAEAAV12@QBDI@Z ; std::basic_string<char,std::char_traits<char>,std::allocator<char> >::assign
PUBLIC	?c_str@?$basic_string@DU?$char_traits@D@std@@V?$allocator@D@2@@std@@QBEPBDXZ ; std::basic_string<char,std::char_traits<char>,std::allocator<char> >::c_str
PUBLIC	?max_size@?$basic_string@DU?$char_traits@D@std@@V?$allocator@D@2@@std@@QBEIXZ ; std::basic_string<char,std::char_traits<char>,std::allocator<char> >::max_size
PUBLIC	?compare@?$basic_string@DU?$char_traits@D@std@@V?$allocator@D@2@@std@@QBEHQBD@Z ; std::basic_string<char,std::char_traits<char>,std::allocator<char> >::compare
PUBLIC	?_Calculate_growth@?$basic_string@DU?$char_traits@D@std@@V?$allocator@D@2@@std@@CAIIII@Z ; std::basic_string<char,std::char_traits<char>,std::allocator<char> >::_Calculate_growth
PUBLIC	?_Calculate_growth@?$basic_string@DU?$char_traits@D@std@@V?$allocator@D@2@@std@@ABEII@Z ; std::basic_string<char,std::char_traits<char>,std::allocator<char> >::_Calculate_growth
PUBLIC	?_Tidy_init@?$basic_string@DU?$char_traits@D@std@@V?$allocator@D@2@@std@@AAEXXZ ; std::basic_string<char,std::char_traits<char>,std::allocator<char> >::_Tidy_init
PUBLIC	?_Tidy_deallocate@?$basic_string@DU?$char_traits@D@std@@V?$allocator@D@2@@std@@AAEXXZ ; std::basic_string<char,std::char_traits<char>,std::allocator<char> >::_Tidy_deallocate
PUBLIC	??1?$_Compressed_pair@V?$allocator@D@std@@V?$_String_val@U?$_Simple_types@D@std@@@2@$00@std@@QAE@XZ ; std::_Compressed_pair<std::allocator<char>,std::_String_val<std::_Simple_types<char> >,1>::~_Compressed_pair<std::allocator<char>,std::_String_val<std::_Simple_types<char> >,1>
PUBLIC	??$_Destroy_in_place@PAD@std@@YAXAAPAD@Z	; std::_Destroy_in_place<char *>
PUBLIC	??$_Reallocate_for@V<lambda_9366063389c5f42a00a5088cf24e69de>@@PBD@?$basic_string@DU?$char_traits@D@std@@V?$allocator@D@2@@std@@AAEAAV01@IV<lambda_9366063389c5f42a00a5088cf24e69de>@@PBD@Z ; std::basic_string<char,std::char_traits<char>,std::allocator<char> >::_Reallocate_for<<lambda_9366063389c5f42a00a5088cf24e69de>,char const *>
PUBLIC	??$_Reallocate_grow_by@V<lambda_ab246b20b9526e2ef7792587e4298a77>@@PBDI@?$basic_string@DU?$char_traits@D@std@@V?$allocator@D@2@@std@@AAEAAV01@IV<lambda_ab246b20b9526e2ef7792587e4298a77>@@PBDI@Z ; std::basic_string<char,std::char_traits<char>,std::allocator<char> >::_Reallocate_grow_by<<lambda_ab246b20b9526e2ef7792587e4298a77>,char const *,unsigned int>
PUBLIC	??$_Construct_in_place@PADABQAD@std@@YAXAAPADABQAD@Z ; std::_Construct_in_place<char *,char * const &>
PUBLIC	??$_Deallocate@$07$0A@@std@@YAXPAXI@Z		; std::_Deallocate<8,0>
PUBLIC	??$_Allocate@$07U_Default_allocate_traits@std@@$0A@@std@@YAPAXI@Z ; std::_Allocate<8,std::_Default_allocate_traits,0>
PUBLIC	??$_Allocate_manually_vector_aligned@U_Default_allocate_traits@std@@@std@@YAPAXI@Z ; std::_Allocate_manually_vector_aligned<std::_Default_allocate_traits>
PUBLIC	??0CPropertyLoader@@QAE@XZ			; CPropertyLoader::CPropertyLoader
PUBLIC	??1CPropertyLoader@@UAE@XZ			; CPropertyLoader::~CPropertyLoader
PUBLIC	?SetPropertyManager@CPropertyLoader@@QAEXPAVCPropertyManager@@@Z ; CPropertyLoader::SetPropertyManager
PUBLIC	?RegisterFile@CPropertyLoader@@QAEKPBD0@Z	; CPropertyLoader::RegisterFile
PUBLIC	?OnFolder@CPropertyLoader@@UAE_NPBD00@Z		; CPropertyLoader::OnFolder
PUBLIC	?OnFile@CPropertyLoader@@UAE_NPBD0@Z		; CPropertyLoader::OnFile
PUBLIC	??_GCPropertyLoader@@UAEPAXI@Z			; CPropertyLoader::`scalar deleting destructor'
PUBLIC	??_7exception@std@@6B@				; std::exception::`vftable'
PUBLIC	??_C@_0BC@EOODALEL@Unknown?5exception@		; `string'
PUBLIC	??_7bad_alloc@std@@6B@				; std::bad_alloc::`vftable'
PUBLIC	??_7bad_array_new_length@std@@6B@		; std::bad_array_new_length::`vftable'
PUBLIC	??_C@_0BF@KINCDENJ@bad?5array?5new?5length@	; `string'
PUBLIC	__TI3?AVbad_array_new_length@std@@
PUBLIC	__CTA3?AVbad_array_new_length@std@@
PUBLIC	??_R0?AVbad_array_new_length@std@@@8		; std::bad_array_new_length `RTTI Type Descriptor'
PUBLIC	__CT??_R0?AVbad_array_new_length@std@@@8??0bad_array_new_length@std@@QAE@ABV01@@Z12
PUBLIC	??_R0?AVbad_alloc@std@@@8			; std::bad_alloc `RTTI Type Descriptor'
PUBLIC	__CT??_R0?AVbad_alloc@std@@@8??0bad_alloc@std@@QAE@ABV01@@Z12
PUBLIC	??_R0?AVexception@std@@@8			; std::exception `RTTI Type Descriptor'
PUBLIC	__CT??_R0?AVexception@std@@@8??0exception@std@@QAE@ABV01@@Z12
PUBLIC	??_C@_0BA@JFNIOLAK@string?5too?5long@		; `string'
PUBLIC	??_C@_00CNPNBAHC@@				; `string'
PUBLIC	??_R4exception@std@@6B@				; std::exception::`RTTI Complete Object Locator'
PUBLIC	??_R3exception@std@@8				; std::exception::`RTTI Class Hierarchy Descriptor'
PUBLIC	??_R2exception@std@@8				; std::exception::`RTTI Base Class Array'
PUBLIC	??_R1A@?0A@EA@exception@std@@8			; std::exception::`RTTI Base Class Descriptor at (0,-1,0,64)'
PUBLIC	??_R4bad_alloc@std@@6B@				; std::bad_alloc::`RTTI Complete Object Locator'
PUBLIC	??_R3bad_alloc@std@@8				; std::bad_alloc::`RTTI Class Hierarchy Descriptor'
PUBLIC	??_R2bad_alloc@std@@8				; std::bad_alloc::`RTTI Base Class Array'
PUBLIC	??_R1A@?0A@EA@bad_alloc@std@@8			; std::bad_alloc::`RTTI Base Class Descriptor at (0,-1,0,64)'
PUBLIC	??_R4bad_array_new_length@std@@6B@		; std::bad_array_new_length::`RTTI Complete Object Locator'
PUBLIC	??_R3bad_array_new_length@std@@8		; std::bad_array_new_length::`RTTI Class Hierarchy Descriptor'
PUBLIC	??_R2bad_array_new_length@std@@8		; std::bad_array_new_length::`RTTI Base Class Array'
PUBLIC	??_R1A@?0A@EA@bad_array_new_length@std@@8	; std::bad_array_new_length::`RTTI Base Class Descriptor at (0,-1,0,64)'
PUBLIC	??_7CPropertyLoader@@6B@			; CPropertyLoader::`vftable'
PUBLIC	??_C@_0BB@FGKGEGON@property?1reserve@		; `string'
PUBLIC	??_R4CPropertyLoader@@6B@			; CPropertyLoader::`RTTI Complete Object Locator'
PUBLIC	??_R0?AVCPropertyLoader@@@8			; CPropertyLoader `RTTI Type Descriptor'
PUBLIC	??_R3CPropertyLoader@@8				; CPropertyLoader::`RTTI Class Hierarchy Descriptor'
PUBLIC	??_R2CPropertyLoader@@8				; CPropertyLoader::`RTTI Base Class Array'
PUBLIC	??_R1A@?0A@EA@CPropertyLoader@@8		; CPropertyLoader::`RTTI Base Class Descriptor at (0,-1,0,64)'
PUBLIC	??_R1A@?0A@EA@CDir@@8				; CDir::`RTTI Base Class Descriptor at (0,-1,0,64)'
PUBLIC	??_R0?AVCDir@@@8				; CDir `RTTI Type Descriptor'
PUBLIC	??_R3CDir@@8					; CDir::`RTTI Class Hierarchy Descriptor'
PUBLIC	??_R2CDir@@8					; CDir::`RTTI Base Class Array'
EXTRN	??2@YAPAXI@Z:PROC				; operator new
EXTRN	??3@YAXPAXI@Z:PROC				; operator delete
EXTRN	__invalid_parameter_noinfo_noreturn:PROC
EXTRN	_memcmp:PROC
EXTRN	_memcpy:PROC
EXTRN	_memmove:PROC
EXTRN	_strlen:PROC
EXTRN	___std_exception_copy:PROC
EXTRN	___std_exception_destroy:PROC
EXTRN	??_Eexception@std@@UAEPAXI@Z:PROC		; std::exception::`vector deleting destructor'
EXTRN	??_Ebad_alloc@std@@UAEPAXI@Z:PROC		; std::bad_alloc::`vector deleting destructor'
EXTRN	??_Ebad_array_new_length@std@@UAEPAXI@Z:PROC	; std::bad_array_new_length::`vector deleting destructor'
EXTRN	?_Xlength_error@std@@YAXPBD@Z:PROC		; std::_Xlength_error
EXTRN	?GetFileExtension@@YAXPBDHPAV?$basic_string@DU?$char_traits@D@std@@V?$allocator@D@2@@std@@@Z:PROC ; GetFileExtension
EXTRN	?stl_lowers@@YAXAAV?$basic_string@DU?$char_traits@D@std@@V?$allocator@D@2@@std@@@Z:PROC ; stl_lowers
EXTRN	?StringPath@@YAXAAV?$basic_string@DU?$char_traits@D@std@@V?$allocator@D@2@@std@@@Z:PROC ; StringPath
EXTRN	??0CDir@@QAE@XZ:PROC				; CDir::CDir
EXTRN	??1CDir@@UAE@XZ:PROC				; CDir::~CDir
EXTRN	?Create@CDir@@QAE_NPBD0H@Z:PROC			; CDir::Create
EXTRN	??_ECPropertyLoader@@UAEPAXI@Z:PROC		; CPropertyLoader::`vector deleting destructor'
EXTRN	?LoadReservedCRC@CPropertyManager@@QAE_NPBD@Z:PROC ; CPropertyManager::LoadReservedCRC
EXTRN	?Register@CPropertyManager@@QAE_NPBDPAPAVCProperty@@@Z:PROC ; CPropertyManager::Register
EXTRN	?GetCRC@CProperty@@QAEKXZ:PROC			; CProperty::GetCRC
EXTRN	@__security_check_cookie@4:PROC
EXTRN	__CxxThrowException@8:PROC
EXTRN	___CxxFrameHandler3:PROC
EXTRN	??_7type_info@@6B@:QWORD			; type_info::`vftable'
EXTRN	___security_cookie:DWORD
;	COMDAT ??_R2CDir@@8
rdata$r	SEGMENT
??_R2CDir@@8 DD	FLAT:??_R1A@?0A@EA@CDir@@8		; CDir::`RTTI Base Class Array'
rdata$r	ENDS
;	COMDAT ??_R3CDir@@8
rdata$r	SEGMENT
??_R3CDir@@8 DD	00H					; CDir::`RTTI Class Hierarchy Descriptor'
	DD	00H
	DD	01H
	DD	FLAT:??_R2CDir@@8
rdata$r	ENDS
;	COMDAT ??_R0?AVCDir@@@8
data$rs	SEGMENT
??_R0?AVCDir@@@8 DD FLAT:??_7type_info@@6B@		; CDir `RTTI Type Descriptor'
	DD	00H
	DB	'.?AVCDir@@', 00H
data$rs	ENDS
;	COMDAT ??_R1A@?0A@EA@CDir@@8
rdata$r	SEGMENT
??_R1A@?0A@EA@CDir@@8 DD FLAT:??_R0?AVCDir@@@8		; CDir::`RTTI Base Class Descriptor at (0,-1,0,64)'
	DD	00H
	DD	00H
	DD	0ffffffffH
	DD	00H
	DD	040H
	DD	FLAT:??_R3CDir@@8
rdata$r	ENDS
;	COMDAT ??_R1A@?0A@EA@CPropertyLoader@@8
rdata$r	SEGMENT
??_R1A@?0A@EA@CPropertyLoader@@8 DD FLAT:??_R0?AVCPropertyLoader@@@8 ; CPropertyLoader::`RTTI Base Class Descriptor at (0,-1,0,64)'
	DD	01H
	DD	00H
	DD	0ffffffffH
	DD	00H
	DD	040H
	DD	FLAT:??_R3CPropertyLoader@@8
rdata$r	ENDS
;	COMDAT ??_R2CPropertyLoader@@8
rdata$r	SEGMENT
??_R2CPropertyLoader@@8 DD FLAT:??_R1A@?0A@EA@CPropertyLoader@@8 ; CPropertyLoader::`RTTI Base Class Array'
	DD	FLAT:??_R1A@?0A@EA@CDir@@8
rdata$r	ENDS
;	COMDAT ??_R3CPropertyLoader@@8
rdata$r	SEGMENT
??_R3CPropertyLoader@@8 DD 00H				; CPropertyLoader::`RTTI Class Hierarchy Descriptor'
	DD	00H
	DD	02H
	DD	FLAT:??_R2CPropertyLoader@@8
rdata$r	ENDS
;	COMDAT ??_R0?AVCPropertyLoader@@@8
data$rs	SEGMENT
??_R0?AVCPropertyLoader@@@8 DD FLAT:??_7type_info@@6B@	; CPropertyLoader `RTTI Type Descriptor'
	DD	00H
	DB	'.?AVCPropertyLoader@@', 00H
data$rs	ENDS
;	COMDAT ??_R4CPropertyLoader@@6B@
rdata$r	SEGMENT
??_R4CPropertyLoader@@6B@ DD 00H			; CPropertyLoader::`RTTI Complete Object Locator'
	DD	00H
	DD	00H
	DD	FLAT:??_R0?AVCPropertyLoader@@@8
	DD	FLAT:??_R3CPropertyLoader@@8
rdata$r	ENDS
;	COMDAT ??_C@_0BB@FGKGEGON@property?1reserve@
CONST	SEGMENT
??_C@_0BB@FGKGEGON@property?1reserve@ DB 'property/reserve', 00H ; `string'
CONST	ENDS
;	COMDAT ??_7CPropertyLoader@@6B@
CONST	SEGMENT
??_7CPropertyLoader@@6B@ DD FLAT:??_R4CPropertyLoader@@6B@ ; CPropertyLoader::`vftable'
	DD	FLAT:??_ECPropertyLoader@@UAEPAXI@Z
	DD	FLAT:?OnFolder@CPropertyLoader@@UAE_NPBD00@Z
	DD	FLAT:?OnFile@CPropertyLoader@@UAE_NPBD0@Z
CONST	ENDS
;	COMDAT ??_R1A@?0A@EA@bad_array_new_length@std@@8
rdata$r	SEGMENT
??_R1A@?0A@EA@bad_array_new_length@std@@8 DD FLAT:??_R0?AVbad_array_new_length@std@@@8 ; std::bad_array_new_length::`RTTI Base Class Descriptor at (0,-1,0,64)'
	DD	02H
	DD	00H
	DD	0ffffffffH
	DD	00H
	DD	040H
	DD	FLAT:??_R3bad_array_new_length@std@@8
rdata$r	ENDS
;	COMDAT ??_R2bad_array_new_length@std@@8
rdata$r	SEGMENT
??_R2bad_array_new_length@std@@8 DD FLAT:??_R1A@?0A@EA@bad_array_new_length@std@@8 ; std::bad_array_new_length::`RTTI Base Class Array'
	DD	FLAT:??_R1A@?0A@EA@bad_alloc@std@@8
	DD	FLAT:??_R1A@?0A@EA@exception@std@@8
rdata$r	ENDS
;	COMDAT ??_R3bad_array_new_length@std@@8
rdata$r	SEGMENT
??_R3bad_array_new_length@std@@8 DD 00H			; std::bad_array_new_length::`RTTI Class Hierarchy Descriptor'
	DD	00H
	DD	03H
	DD	FLAT:??_R2bad_array_new_length@std@@8
rdata$r	ENDS
;	COMDAT ??_R4bad_array_new_length@std@@6B@
rdata$r	SEGMENT
??_R4bad_array_new_length@std@@6B@ DD 00H		; std::bad_array_new_length::`RTTI Complete Object Locator'
	DD	00H
	DD	00H
	DD	FLAT:??_R0?AVbad_array_new_length@std@@@8
	DD	FLAT:??_R3bad_array_new_length@std@@8
rdata$r	ENDS
;	COMDAT ??_R1A@?0A@EA@bad_alloc@std@@8
rdata$r	SEGMENT
??_R1A@?0A@EA@bad_alloc@std@@8 DD FLAT:??_R0?AVbad_alloc@std@@@8 ; std::bad_alloc::`RTTI Base Class Descriptor at (0,-1,0,64)'
	DD	01H
	DD	00H
	DD	0ffffffffH
	DD	00H
	DD	040H
	DD	FLAT:??_R3bad_alloc@std@@8
rdata$r	ENDS
;	COMDAT ??_R2bad_alloc@std@@8
rdata$r	SEGMENT
??_R2bad_alloc@std@@8 DD FLAT:??_R1A@?0A@EA@bad_alloc@std@@8 ; std::bad_alloc::`RTTI Base Class Array'
	DD	FLAT:??_R1A@?0A@EA@exception@std@@8
rdata$r	ENDS
;	COMDAT ??_R3bad_alloc@std@@8
rdata$r	SEGMENT
??_R3bad_alloc@std@@8 DD 00H				; std::bad_alloc::`RTTI Class Hierarchy Descriptor'
	DD	00H
	DD	02H
	DD	FLAT:??_R2bad_alloc@std@@8
rdata$r	ENDS
;	COMDAT ??_R4bad_alloc@std@@6B@
rdata$r	SEGMENT
??_R4bad_alloc@std@@6B@ DD 00H				; std::bad_alloc::`RTTI Complete Object Locator'
	DD	00H
	DD	00H
	DD	FLAT:??_R0?AVbad_alloc@std@@@8
	DD	FLAT:??_R3bad_alloc@std@@8
rdata$r	ENDS
;	COMDAT ??_R1A@?0A@EA@exception@std@@8
rdata$r	SEGMENT
??_R1A@?0A@EA@exception@std@@8 DD FLAT:??_R0?AVexception@std@@@8 ; std::exception::`RTTI Base Class Descriptor at (0,-1,0,64)'
	DD	00H
	DD	00H
	DD	0ffffffffH
	DD	00H
	DD	040H
	DD	FLAT:??_R3exception@std@@8
rdata$r	ENDS
;	COMDAT ??_R2exception@std@@8
rdata$r	SEGMENT
??_R2exception@std@@8 DD FLAT:??_R1A@?0A@EA@exception@std@@8 ; std::exception::`RTTI Base Class Array'
rdata$r	ENDS
;	COMDAT ??_R3exception@std@@8
rdata$r	SEGMENT
??_R3exception@std@@8 DD 00H				; std::exception::`RTTI Class Hierarchy Descriptor'
	DD	00H
	DD	01H
	DD	FLAT:??_R2exception@std@@8
rdata$r	ENDS
;	COMDAT ??_R4exception@std@@6B@
rdata$r	SEGMENT
??_R4exception@std@@6B@ DD 00H				; std::exception::`RTTI Complete Object Locator'
	DD	00H
	DD	00H
	DD	FLAT:??_R0?AVexception@std@@@8
	DD	FLAT:??_R3exception@std@@8
rdata$r	ENDS
;	COMDAT ??_C@_00CNPNBAHC@@
CONST	SEGMENT
??_C@_00CNPNBAHC@@ DB 00H				; `string'
CONST	ENDS
;	COMDAT ??_C@_0BA@JFNIOLAK@string?5too?5long@
CONST	SEGMENT
??_C@_0BA@JFNIOLAK@string?5too?5long@ DB 'string too long', 00H ; `string'
CONST	ENDS
;	COMDAT __CT??_R0?AVexception@std@@@8??0exception@std@@QAE@ABV01@@Z12
xdata$x	SEGMENT
__CT??_R0?AVexception@std@@@8??0exception@std@@QAE@ABV01@@Z12 DD 00H
	DD	FLAT:??_R0?AVexception@std@@@8
	DD	00H
	DD	0ffffffffH
	ORG $+4
	DD	0cH
	DD	FLAT:??0exception@std@@QAE@ABV01@@Z
xdata$x	ENDS
;	COMDAT ??_R0?AVexception@std@@@8
data$r	SEGMENT
??_R0?AVexception@std@@@8 DD FLAT:??_7type_info@@6B@	; std::exception `RTTI Type Descriptor'
	DD	00H
	DB	'.?AVexception@std@@', 00H
data$r	ENDS
;	COMDAT __CT??_R0?AVbad_alloc@std@@@8??0bad_alloc@std@@QAE@ABV01@@Z12
xdata$x	SEGMENT
__CT??_R0?AVbad_alloc@std@@@8??0bad_alloc@std@@QAE@ABV01@@Z12 DD 010H
	DD	FLAT:??_R0?AVbad_alloc@std@@@8
	DD	00H
	DD	0ffffffffH
	ORG $+4
	DD	0cH
	DD	FLAT:??0bad_alloc@std@@QAE@ABV01@@Z
xdata$x	ENDS
;	COMDAT ??_R0?AVbad_alloc@std@@@8
data$r	SEGMENT
??_R0?AVbad_alloc@std@@@8 DD FLAT:??_7type_info@@6B@	; std::bad_alloc `RTTI Type Descriptor'
	DD	00H
	DB	'.?AVbad_alloc@std@@', 00H
data$r	ENDS
;	COMDAT __CT??_R0?AVbad_array_new_length@std@@@8??0bad_array_new_length@std@@QAE@ABV01@@Z12
xdata$x	SEGMENT
__CT??_R0?AVbad_array_new_length@std@@@8??0bad_array_new_length@std@@QAE@ABV01@@Z12 DD 00H
	DD	FLAT:??_R0?AVbad_array_new_length@std@@@8
	DD	00H
	DD	0ffffffffH
	ORG $+4
	DD	0cH
	DD	FLAT:??0bad_array_new_length@std@@QAE@ABV01@@Z
xdata$x	ENDS
;	COMDAT ??_R0?AVbad_array_new_length@std@@@8
data$r	SEGMENT
??_R0?AVbad_array_new_length@std@@@8 DD FLAT:??_7type_info@@6B@ ; std::bad_array_new_length `RTTI Type Descriptor'
	DD	00H
	DB	'.?AVbad_array_new_length@std@@', 00H
data$r	ENDS
;	COMDAT __CTA3?AVbad_array_new_length@std@@
xdata$x	SEGMENT
__CTA3?AVbad_array_new_length@std@@ DD 03H
	DD	FLAT:__CT??_R0?AVbad_array_new_length@std@@@8??0bad_array_new_length@std@@QAE@ABV01@@Z12
	DD	FLAT:__CT??_R0?AVbad_alloc@std@@@8??0bad_alloc@std@@QAE@ABV01@@Z12
	DD	FLAT:__CT??_R0?AVexception@std@@@8??0exception@std@@QAE@ABV01@@Z12
xdata$x	ENDS
;	COMDAT __TI3?AVbad_array_new_length@std@@
xdata$x	SEGMENT
__TI3?AVbad_array_new_length@std@@ DD 00H
	DD	FLAT:??1bad_array_new_length@std@@UAE@XZ
	DD	00H
	DD	FLAT:__CTA3?AVbad_array_new_length@std@@
xdata$x	ENDS
;	COMDAT ??_C@_0BF@KINCDENJ@bad?5array?5new?5length@
CONST	SEGMENT
??_C@_0BF@KINCDENJ@bad?5array?5new?5length@ DB 'bad array new length', 00H ; `string'
CONST	ENDS
;	COMDAT ??_7bad_array_new_length@std@@6B@
CONST	SEGMENT
??_7bad_array_new_length@std@@6B@ DD FLAT:??_R4bad_array_new_length@std@@6B@ ; std::bad_array_new_length::`vftable'
	DD	FLAT:??_Ebad_array_new_length@std@@UAEPAXI@Z
	DD	FLAT:?what@exception@std@@UBEPBDXZ
CONST	ENDS
;	COMDAT ??_7bad_alloc@std@@6B@
CONST	SEGMENT
??_7bad_alloc@std@@6B@ DD FLAT:??_R4bad_alloc@std@@6B@	; std::bad_alloc::`vftable'
	DD	FLAT:??_Ebad_alloc@std@@UAEPAXI@Z
	DD	FLAT:?what@exception@std@@UBEPBDXZ
CONST	ENDS
;	COMDAT ??_C@_0BC@EOODALEL@Unknown?5exception@
CONST	SEGMENT
??_C@_0BC@EOODALEL@Unknown?5exception@ DB 'Unknown exception', 00H ; `string'
CONST	ENDS
;	COMDAT ??_7exception@std@@6B@
CONST	SEGMENT
??_7exception@std@@6B@ DD FLAT:??_R4exception@std@@6B@	; std::exception::`vftable'
	DD	FLAT:??_Eexception@std@@UAEPAXI@Z
	DD	FLAT:?what@exception@std@@UBEPBDXZ
CONST	ENDS
;	COMDAT xdata$x
xdata$x	SEGMENT
__unwindtable$?OnFolder@CPropertyLoader@@UAE_NPBD00@Z DD 0ffffffffH
	DD	FLAT:__unwindfunclet$?OnFolder@CPropertyLoader@@UAE_NPBD00@Z$0
	DD	00H
	DD	FLAT:__unwindfunclet$?OnFolder@CPropertyLoader@@UAE_NPBD00@Z$1
__ehfuncinfo$?OnFolder@CPropertyLoader@@UAE_NPBD00@Z DD 019930522H
	DD	02H
	DD	FLAT:__unwindtable$?OnFolder@CPropertyLoader@@UAE_NPBD00@Z
	DD	2 DUP(00H)
	DD	2 DUP(00H)
	DD	00H
	DD	01H
xdata$x	ENDS
;	COMDAT xdata$x
xdata$x	SEGMENT
__unwindtable$?RegisterFile@CPropertyLoader@@QAEKPBD0@Z DD 0ffffffffH
	DD	FLAT:__unwindfunclet$?RegisterFile@CPropertyLoader@@QAEKPBD0@Z$0
	DD	00H
	DD	FLAT:__unwindfunclet$?RegisterFile@CPropertyLoader@@QAEKPBD0@Z$1
__ehfuncinfo$?RegisterFile@CPropertyLoader@@QAEKPBD0@Z DD 019930522H
	DD	02H
	DD	FLAT:__unwindtable$?RegisterFile@CPropertyLoader@@QAEKPBD0@Z
	DD	2 DUP(00H)
	DD	2 DUP(00H)
	DD	00H
	DD	01H
xdata$x	ENDS
;	COMDAT xdata$x
xdata$x	SEGMENT
__ehfuncinfo$??$_Deallocate@$07$0A@@std@@YAXPAXI@Z DD 019930522H
	DD	00H
	DD	00H
	DD	2 DUP(00H)
	DD	2 DUP(00H)
	DD	00H
	DD	05H
xdata$x	ENDS
;	COMDAT xdata$x
xdata$x	SEGMENT
__unwindtable$??0?$basic_string@DU?$char_traits@D@std@@V?$allocator@D@2@@std@@QAE@QBD@Z DD 0ffffffffH
	DD	FLAT:__unwindfunclet$??0?$basic_string@DU?$char_traits@D@std@@V?$allocator@D@2@@std@@QAE@QBD@Z$0
__ehfuncinfo$??0?$basic_string@DU?$char_traits@D@std@@V?$allocator@D@2@@std@@QAE@QBD@Z DD 019930522H
	DD	01H
	DD	FLAT:__unwindtable$??0?$basic_string@DU?$char_traits@D@std@@V?$allocator@D@2@@std@@QAE@QBD@Z
	DD	2 DUP(00H)
	DD	2 DUP(00H)
	DD	00H
	DD	01H
xdata$x	ENDS
; Function compile flags: /Odspy
;	COMDAT ??_GCPropertyLoader@@UAEPAXI@Z
_TEXT	SEGMENT
_this$ = -4						; size = 4
___flags$ = 8						; size = 4
??_GCPropertyLoader@@UAEPAXI@Z PROC			; CPropertyLoader::`scalar deleting destructor', COMDAT
; _this$ = ecx
  00000	55		 push	 ebp
  00001	8b ec		 mov	 ebp, esp
  00003	51		 push	 ecx
  00004	89 4d fc	 mov	 DWORD PTR _this$[ebp], ecx
  00007	8b 4d fc	 mov	 ecx, DWORD PTR _this$[ebp]
  0000a	e8 00 00 00 00	 call	 ??1CPropertyLoader@@UAE@XZ ; CPropertyLoader::~CPropertyLoader
  0000f	8b 45 08	 mov	 eax, DWORD PTR ___flags$[ebp]
  00012	83 e0 01	 and	 eax, 1
  00015	74 0f		 je	 SHORT $LN2@scalar
  00017	68 4c 01 00 00	 push	 332			; 0000014cH
  0001c	ff 75 fc	 push	 DWORD PTR _this$[ebp]
  0001f	e8 00 00 00 00	 call	 ??3@YAXPAXI@Z		; operator delete
  00024	59		 pop	 ecx
  00025	59		 pop	 ecx
$LN2@scalar:
  00026	8b 45 fc	 mov	 eax, DWORD PTR _this$[ebp]
  00029	c9		 leave
  0002a	c2 04 00	 ret	 4
??_GCPropertyLoader@@UAEPAXI@Z ENDP			; CPropertyLoader::`scalar deleting destructor'
_TEXT	ENDS
; Function compile flags: /Odspy
; File D:\Metin2 Server Files\mainline\SRC_2014\Metin2Client\GameLib\PropertyLoader.cpp
;	COMDAT ?OnFile@CPropertyLoader@@UAE_NPBD0@Z
_TEXT	SEGMENT
_this$ = -4						; size = 4
_c_szPathName$ = 8					; size = 4
_c_szFileName$ = 12					; size = 4
?OnFile@CPropertyLoader@@UAE_NPBD0@Z PROC		; CPropertyLoader::OnFile, COMDAT
; _this$ = ecx

; 19   : {

  00000	55		 push	 ebp
  00001	8b ec		 mov	 ebp, esp
  00003	51		 push	 ecx
  00004	89 4d fc	 mov	 DWORD PTR _this$[ebp], ecx

; 20   : 	RegisterFile(c_szPathName, c_szFileName);

  00007	ff 75 0c	 push	 DWORD PTR _c_szFileName$[ebp]
  0000a	ff 75 08	 push	 DWORD PTR _c_szPathName$[ebp]
  0000d	8b 4d fc	 mov	 ecx, DWORD PTR _this$[ebp]
  00010	e8 00 00 00 00	 call	 ?RegisterFile@CPropertyLoader@@QAEKPBD0@Z ; CPropertyLoader::RegisterFile

; 21   : 	return true;

  00015	b0 01		 mov	 al, 1

; 22   : }

  00017	c9		 leave
  00018	c2 08 00	 ret	 8
?OnFile@CPropertyLoader@@UAE_NPBD0@Z ENDP		; CPropertyLoader::OnFile
_TEXT	ENDS
; Function compile flags: /Odspy
; File D:\Metin2 Server Files\mainline\SRC_2014\Metin2Client\GameLib\PropertyLoader.cpp
; File C:\Program Files (x86)\Microsoft Visual Studio\2019\Community\VC\Tools\MSVC\14.28.29333\include\xstring
; File C:\Program Files (x86)\Microsoft Visual Studio\2019\Community\VC\Tools\MSVC\14.28.29333\include\xmemory
; File C:\Program Files (x86)\Microsoft Visual Studio\2019\Community\VC\Tools\MSVC\14.28.29333\include\xstring
; File C:\Program Files (x86)\Microsoft Visual Studio\2019\Community\VC\Tools\MSVC\14.28.29333\include\xmemory
; File C:\Program Files (x86)\Microsoft Visual Studio\2019\Community\VC\Tools\MSVC\14.28.29333\include\xstring
; File D:\Metin2 Server Files\mainline\SRC_2014\Metin2Client\GameLib\PropertyLoader.cpp
; File C:\Program Files (x86)\Microsoft Visual Studio\2019\Community\VC\Tools\MSVC\14.28.29333\include\xstring
; File D:\Metin2 Server Files\mainline\SRC_2014\Metin2Client\GameLib\PropertyLoader.cpp
;	COMDAT ?OnFolder@CPropertyLoader@@UAE_NPBD00@Z
_TEXT	SEGMENT
_this$ = -36						; size = 4
$T2 = -32						; size = 4
$T3 = -28						; size = 4
$T4 = -24						; size = 4
$T5 = -20						; size = 4
$T6 = -13						; size = 1
__$EHRec$ = -12						; size = 12
_PropertyLoader$ = 0					; size = 332
_stPathName$ = 332					; size = 24
__$ArrayPad$ = 356					; size = 4
_c_szFilter$ = 368					; size = 4
_c_szPathName$ = 372					; size = 4
_c_szFileName$ = 376					; size = 4
?OnFolder@CPropertyLoader@@UAE_NPBD00@Z PROC		; CPropertyLoader::OnFolder, COMDAT
; _this$ = ecx

; 7    : {

  00000	55		 push	 ebp
  00001	8d ac 24 98 fe
	ff ff		 lea	 ebp, DWORD PTR [esp-360]
  00008	81 ec 68 01 00
	00		 sub	 esp, 360		; 00000168H
  0000e	6a ff		 push	 -1
  00010	68 00 00 00 00	 push	 __ehhandler$?OnFolder@CPropertyLoader@@UAE_NPBD00@Z
  00015	64 a1 00 00 00
	00		 mov	 eax, DWORD PTR fs:0
  0001b	50		 push	 eax
  0001c	83 ec 18	 sub	 esp, 24			; 00000018H
  0001f	a1 00 00 00 00	 mov	 eax, DWORD PTR ___security_cookie
  00024	33 c5		 xor	 eax, ebp
  00026	89 85 64 01 00
	00		 mov	 DWORD PTR __$ArrayPad$[ebp], eax
  0002c	50		 push	 eax
  0002d	8d 45 f4	 lea	 eax, DWORD PTR __$EHRec$[ebp]
  00030	64 a3 00 00 00
	00		 mov	 DWORD PTR fs:0, eax
  00036	89 4d dc	 mov	 DWORD PTR _this$[ebp], ecx

; 8    : 	std::string stPathName = "";

  00039	68 00 00 00 00	 push	 OFFSET ??_C@_00CNPNBAHC@@
  0003e	8d 8d 4c 01 00
	00		 lea	 ecx, DWORD PTR _stPathName$[ebp]
  00044	e8 00 00 00 00	 call	 ??0?$basic_string@DU?$char_traits@D@std@@V?$allocator@D@2@@std@@QAE@QBD@Z ; std::basic_string<char,std::char_traits<char>,std::allocator<char> >::basic_string<char,std::char_traits<char>,std::allocator<char> >
  00049	83 65 fc 00	 and	 DWORD PTR __$EHRec$[ebp+8], 0
; File C:\Program Files (x86)\Microsoft Visual Studio\2019\Community\VC\Tools\MSVC\14.28.29333\include\xstring

; 389  :         return _CSTD strlen(reinterpret_cast<const char*>(_First));

  0004d	ff b5 74 01 00
	00		 push	 DWORD PTR _c_szPathName$[ebp]
  00053	e8 00 00 00 00	 call	 _strlen
  00058	59		 pop	 ecx
  00059	89 45 ec	 mov	 DWORD PTR $T5[ebp], eax
; File C:\Program Files (x86)\Microsoft Visual Studio\2019\Community\VC\Tools\MSVC\14.28.29333\include\xmemory

; 997  :     return _Len;

  0005c	8b 45 ec	 mov	 eax, DWORD PTR $T5[ebp]
  0005f	89 45 e8	 mov	 DWORD PTR $T4[ebp], eax
; File C:\Program Files (x86)\Microsoft Visual Studio\2019\Community\VC\Tools\MSVC\14.28.29333\include\xstring

; 2958 :         return append(_Ptr, _Convert_size<size_type>(_Traits::length(_Ptr)));

  00062	ff 75 e8	 push	 DWORD PTR $T4[ebp]
  00065	ff b5 74 01 00
	00		 push	 DWORD PTR _c_szPathName$[ebp]
  0006b	8d 8d 4c 01 00
	00		 lea	 ecx, DWORD PTR _stPathName$[ebp]
  00071	e8 00 00 00 00	 call	 ?append@?$basic_string@DU?$char_traits@D@std@@V?$allocator@D@2@@std@@QAEAAV12@QBDI@Z ; std::basic_string<char,std::char_traits<char>,std::allocator<char> >::append

; 389  :         return _CSTD strlen(reinterpret_cast<const char*>(_First));

  00076	ff b5 78 01 00
	00		 push	 DWORD PTR _c_szFileName$[ebp]
  0007c	e8 00 00 00 00	 call	 _strlen
  00081	59		 pop	 ecx
  00082	89 45 e4	 mov	 DWORD PTR $T3[ebp], eax
; File C:\Program Files (x86)\Microsoft Visual Studio\2019\Community\VC\Tools\MSVC\14.28.29333\include\xmemory

; 997  :     return _Len;

  00085	8b 45 e4	 mov	 eax, DWORD PTR $T3[ebp]
  00088	89 45 e0	 mov	 DWORD PTR $T2[ebp], eax
; File C:\Program Files (x86)\Microsoft Visual Studio\2019\Community\VC\Tools\MSVC\14.28.29333\include\xstring

; 2958 :         return append(_Ptr, _Convert_size<size_type>(_Traits::length(_Ptr)));

  0008b	ff 75 e0	 push	 DWORD PTR $T2[ebp]
  0008e	ff b5 78 01 00
	00		 push	 DWORD PTR _c_szFileName$[ebp]
  00094	8d 8d 4c 01 00
	00		 lea	 ecx, DWORD PTR _stPathName$[ebp]
  0009a	e8 00 00 00 00	 call	 ?append@?$basic_string@DU?$char_traits@D@std@@V?$allocator@D@2@@std@@QAEAAV12@QBDI@Z ; std::basic_string<char,std::char_traits<char>,std::allocator<char> >::append
; File D:\Metin2 Server Files\mainline\SRC_2014\Metin2Client\GameLib\PropertyLoader.cpp

; 12   : 	CPropertyLoader PropertyLoader;

  0009f	8d 4d 00	 lea	 ecx, DWORD PTR _PropertyLoader$[ebp]
  000a2	e8 00 00 00 00	 call	 ??0CPropertyLoader@@QAE@XZ ; CPropertyLoader::CPropertyLoader
  000a7	c6 45 fc 01	 mov	 BYTE PTR __$EHRec$[ebp+8], 1

; 13   : 	PropertyLoader.SetPropertyManager(m_pPropertyManager);

  000ab	8b 45 dc	 mov	 eax, DWORD PTR _this$[ebp]
  000ae	ff b0 48 01 00
	00		 push	 DWORD PTR [eax+328]
  000b4	8d 4d 00	 lea	 ecx, DWORD PTR _PropertyLoader$[ebp]
  000b7	e8 00 00 00 00	 call	 ?SetPropertyManager@CPropertyLoader@@QAEXPAVCPropertyManager@@@Z ; CPropertyLoader::SetPropertyManager

; 14   : 	PropertyLoader.Create(c_szFilter, stPathName.c_str());

  000bc	6a 00		 push	 0
  000be	8d 8d 4c 01 00
	00		 lea	 ecx, DWORD PTR _stPathName$[ebp]
  000c4	e8 00 00 00 00	 call	 ?c_str@?$basic_string@DU?$char_traits@D@std@@V?$allocator@D@2@@std@@QBEPBDXZ ; std::basic_string<char,std::char_traits<char>,std::allocator<char> >::c_str
  000c9	50		 push	 eax
  000ca	ff b5 70 01 00
	00		 push	 DWORD PTR _c_szFilter$[ebp]
  000d0	8d 4d 00	 lea	 ecx, DWORD PTR _PropertyLoader$[ebp]
  000d3	e8 00 00 00 00	 call	 ?Create@CDir@@QAE_NPBD0H@Z ; CDir::Create

; 15   : 	return true;

  000d8	c6 45 f3 01	 mov	 BYTE PTR $T6[ebp], 1
  000dc	c6 45 fc 00	 mov	 BYTE PTR __$EHRec$[ebp+8], 0
  000e0	8d 4d 00	 lea	 ecx, DWORD PTR _PropertyLoader$[ebp]
  000e3	e8 00 00 00 00	 call	 ??1CPropertyLoader@@UAE@XZ ; CPropertyLoader::~CPropertyLoader
  000e8	83 4d fc ff	 or	 DWORD PTR __$EHRec$[ebp+8], -1
; File C:\Program Files (x86)\Microsoft Visual Studio\2019\Community\VC\Tools\MSVC\14.28.29333\include\xstring

; 2801 :         _Tidy_deallocate();

  000ec	8d 8d 4c 01 00
	00		 lea	 ecx, DWORD PTR _stPathName$[ebp]
  000f2	e8 00 00 00 00	 call	 ?_Tidy_deallocate@?$basic_string@DU?$char_traits@D@std@@V?$allocator@D@2@@std@@AAEXXZ ; std::basic_string<char,std::char_traits<char>,std::allocator<char> >::_Tidy_deallocate
; File D:\Metin2 Server Files\mainline\SRC_2014\Metin2Client\GameLib\PropertyLoader.cpp

; 15   : 	return true;

  000f7	8a 45 f3	 mov	 al, BYTE PTR $T6[ebp]

; 16   : }

  000fa	8b 4d f4	 mov	 ecx, DWORD PTR __$EHRec$[ebp]
  000fd	64 89 0d 00 00
	00 00		 mov	 DWORD PTR fs:0, ecx
  00104	59		 pop	 ecx
  00105	8b 8d 64 01 00
	00		 mov	 ecx, DWORD PTR __$ArrayPad$[ebp]
  0010b	33 cd		 xor	 ecx, ebp
  0010d	e8 00 00 00 00	 call	 @__security_check_cookie@4
  00112	81 c5 68 01 00
	00		 add	 ebp, 360		; 00000168H
  00118	c9		 leave
  00119	c2 0c 00	 ret	 12			; 0000000cH
_TEXT	ENDS
;	COMDAT text$x
text$x	SEGMENT
__unwindfunclet$?OnFolder@CPropertyLoader@@UAE_NPBD00@Z$0:
  00000	8d 8d 4c 01 00
	00		 lea	 ecx, DWORD PTR _stPathName$[ebp]
  00006	e9 00 00 00 00	 jmp	 ??1?$basic_string@DU?$char_traits@D@std@@V?$allocator@D@2@@std@@QAE@XZ ; std::basic_string<char,std::char_traits<char>,std::allocator<char> >::~basic_string<char,std::char_traits<char>,std::allocator<char> >
__unwindfunclet$?OnFolder@CPropertyLoader@@UAE_NPBD00@Z$1:
  0000b	8d 4d 00	 lea	 ecx, DWORD PTR _PropertyLoader$[ebp]
  0000e	e9 00 00 00 00	 jmp	 ??1CPropertyLoader@@UAE@XZ ; CPropertyLoader::~CPropertyLoader
  00013	cc		 int	 3
  00014	cc		 int	 3
  00015	cc		 int	 3
  00016	cc		 int	 3
  00017	cc		 int	 3
__ehhandler$?OnFolder@CPropertyLoader@@UAE_NPBD00@Z:
  00018	90		 npad	 1
  00019	90		 npad	 1
  0001a	8b 54 24 08	 mov	 edx, DWORD PTR [esp+8]
  0001e	8d 42 0c	 lea	 eax, DWORD PTR [edx+12]
  00021	8b 4a e4	 mov	 ecx, DWORD PTR [edx-28]
  00024	33 c8		 xor	 ecx, eax
  00026	e8 00 00 00 00	 call	 @__security_check_cookie@4
  0002b	8b 8a 70 01 00
	00		 mov	 ecx, DWORD PTR [edx+368]
  00031	33 c8		 xor	 ecx, eax
  00033	e8 00 00 00 00	 call	 @__security_check_cookie@4
  00038	b8 00 00 00 00	 mov	 eax, OFFSET __ehfuncinfo$?OnFolder@CPropertyLoader@@UAE_NPBD00@Z
  0003d	e9 00 00 00 00	 jmp	 ___CxxFrameHandler3
text$x	ENDS
?OnFolder@CPropertyLoader@@UAE_NPBD00@Z ENDP		; CPropertyLoader::OnFolder
; Function compile flags: /Odspy
; File D:\Metin2 Server Files\mainline\SRC_2014\Metin2Client\GameLib\PropertyLoader.cpp
; File C:\Program Files (x86)\Microsoft Visual Studio\2019\Community\VC\Tools\MSVC\14.28.29333\include\xstring
; File C:\Program Files (x86)\Microsoft Visual Studio\2019\Community\VC\Tools\MSVC\14.28.29333\include\xmemory
; File C:\Program Files (x86)\Microsoft Visual Studio\2019\Community\VC\Tools\MSVC\14.28.29333\include\xstring
; File C:\Program Files (x86)\Microsoft Visual Studio\2019\Community\VC\Tools\MSVC\14.28.29333\include\xmemory
; File C:\Program Files (x86)\Microsoft Visual Studio\2019\Community\VC\Tools\MSVC\14.28.29333\include\xstring
; File C:\Program Files (x86)\Microsoft Visual Studio\2019\Community\VC\Tools\MSVC\14.28.29333\include\xmemory
; File C:\Program Files (x86)\Microsoft Visual Studio\2019\Community\VC\Tools\MSVC\14.28.29333\include\xstring
; File D:\Metin2 Server Files\mainline\SRC_2014\Metin2Client\GameLib\PropertyLoader.cpp
; File C:\Program Files (x86)\Microsoft Visual Studio\2019\Community\VC\Tools\MSVC\14.28.29333\include\xstring
; File D:\Metin2 Server Files\mainline\SRC_2014\Metin2Client\GameLib\PropertyLoader.cpp
; File C:\Program Files (x86)\Microsoft Visual Studio\2019\Community\VC\Tools\MSVC\14.28.29333\include\xstring
; File D:\Metin2 Server Files\mainline\SRC_2014\Metin2Client\GameLib\PropertyLoader.cpp
; File C:\Program Files (x86)\Microsoft Visual Studio\2019\Community\VC\Tools\MSVC\14.28.29333\include\xstring
; File D:\Metin2 Server Files\mainline\SRC_2014\Metin2Client\GameLib\PropertyLoader.cpp
; File C:\Program Files (x86)\Microsoft Visual Studio\2019\Community\VC\Tools\MSVC\14.28.29333\include\xstring
; File D:\Metin2 Server Files\mainline\SRC_2014\Metin2Client\GameLib\PropertyLoader.cpp
; File C:\Program Files (x86)\Microsoft Visual Studio\2019\Community\VC\Tools\MSVC\14.28.29333\include\xstring
; File D:\Metin2 Server Files\mainline\SRC_2014\Metin2Client\GameLib\PropertyLoader.cpp
; File C:\Program Files (x86)\Microsoft Visual Studio\2019\Community\VC\Tools\MSVC\14.28.29333\include\xstring
; File D:\Metin2 Server Files\mainline\SRC_2014\Metin2Client\GameLib\PropertyLoader.cpp
; File C:\Program Files (x86)\Microsoft Visual Studio\2019\Community\VC\Tools\MSVC\14.28.29333\include\xstring
; File D:\Metin2 Server Files\mainline\SRC_2014\Metin2Client\GameLib\PropertyLoader.cpp
; File C:\Program Files (x86)\Microsoft Visual Studio\2019\Community\VC\Tools\MSVC\14.28.29333\include\xstring
; File D:\Metin2 Server Files\mainline\SRC_2014\Metin2Client\GameLib\PropertyLoader.cpp
; File C:\Program Files (x86)\Microsoft Visual Studio\2019\Community\VC\Tools\MSVC\14.28.29333\include\xstring
; File D:\Metin2 Server Files\mainline\SRC_2014\Metin2Client\GameLib\PropertyLoader.cpp
;	COMDAT ?RegisterFile@CPropertyLoader@@QAEKPBD0@Z
_TEXT	SEGMENT
$T2 = -108						; size = 4
$T3 = -104						; size = 4
_pProperty$4 = -100					; size = 4
$T5 = -96						; size = 4
$T6 = -92						; size = 4
_this$ = -88						; size = 4
$T7 = -84						; size = 4
$T8 = -80						; size = 4
$T9 = -76						; size = 4
$T10 = -72						; size = 4
_this$ = -68						; size = 4
_stExt$ = -64						; size = 24
_strFileName$ = -40					; size = 24
__$ArrayPad$ = -16					; size = 4
__$EHRec$ = -12						; size = 12
_c_szPathName$ = 8					; size = 4
_c_szFileName$ = 12					; size = 4
?RegisterFile@CPropertyLoader@@QAEKPBD0@Z PROC		; CPropertyLoader::RegisterFile, COMDAT
; _this$ = ecx

; 25   : {

  00000	55		 push	 ebp
  00001	8b ec		 mov	 ebp, esp
  00003	6a ff		 push	 -1
  00005	68 00 00 00 00	 push	 __ehhandler$?RegisterFile@CPropertyLoader@@QAEKPBD0@Z
  0000a	64 a1 00 00 00
	00		 mov	 eax, DWORD PTR fs:0
  00010	50		 push	 eax
  00011	83 ec 60	 sub	 esp, 96			; 00000060H
  00014	a1 00 00 00 00	 mov	 eax, DWORD PTR ___security_cookie
  00019	33 c5		 xor	 eax, ebp
  0001b	89 45 f0	 mov	 DWORD PTR __$ArrayPad$[ebp], eax
  0001e	50		 push	 eax
  0001f	8d 45 f4	 lea	 eax, DWORD PTR __$EHRec$[ebp]
  00022	64 a3 00 00 00
	00		 mov	 DWORD PTR fs:0, eax
  00028	89 4d bc	 mov	 DWORD PTR _this$[ebp], ecx

; 26   : 	std::string strFileName = "";

  0002b	68 00 00 00 00	 push	 OFFSET ??_C@_00CNPNBAHC@@
  00030	8d 4d d8	 lea	 ecx, DWORD PTR _strFileName$[ebp]
  00033	e8 00 00 00 00	 call	 ??0?$basic_string@DU?$char_traits@D@std@@V?$allocator@D@2@@std@@QAE@QBD@Z ; std::basic_string<char,std::char_traits<char>,std::allocator<char> >::basic_string<char,std::char_traits<char>,std::allocator<char> >
  00038	83 65 fc 00	 and	 DWORD PTR __$EHRec$[ebp+8], 0
; File C:\Program Files (x86)\Microsoft Visual Studio\2019\Community\VC\Tools\MSVC\14.28.29333\include\xstring

; 389  :         return _CSTD strlen(reinterpret_cast<const char*>(_First));

  0003c	ff 75 08	 push	 DWORD PTR _c_szPathName$[ebp]
  0003f	e8 00 00 00 00	 call	 _strlen
  00044	59		 pop	 ecx
  00045	89 45 b8	 mov	 DWORD PTR $T10[ebp], eax
; File C:\Program Files (x86)\Microsoft Visual Studio\2019\Community\VC\Tools\MSVC\14.28.29333\include\xmemory

; 997  :     return _Len;

  00048	8b 45 b8	 mov	 eax, DWORD PTR $T10[ebp]
  0004b	89 45 b4	 mov	 DWORD PTR $T9[ebp], eax
; File C:\Program Files (x86)\Microsoft Visual Studio\2019\Community\VC\Tools\MSVC\14.28.29333\include\xstring

; 2958 :         return append(_Ptr, _Convert_size<size_type>(_Traits::length(_Ptr)));

  0004e	ff 75 b4	 push	 DWORD PTR $T9[ebp]
  00051	ff 75 08	 push	 DWORD PTR _c_szPathName$[ebp]
  00054	8d 4d d8	 lea	 ecx, DWORD PTR _strFileName$[ebp]
  00057	e8 00 00 00 00	 call	 ?append@?$basic_string@DU?$char_traits@D@std@@V?$allocator@D@2@@std@@QAEAAV12@QBDI@Z ; std::basic_string<char,std::char_traits<char>,std::allocator<char> >::append

; 389  :         return _CSTD strlen(reinterpret_cast<const char*>(_First));

  0005c	ff 75 0c	 push	 DWORD PTR _c_szFileName$[ebp]
  0005f	e8 00 00 00 00	 call	 _strlen
  00064	59		 pop	 ecx
  00065	89 45 b0	 mov	 DWORD PTR $T8[ebp], eax
; File C:\Program Files (x86)\Microsoft Visual Studio\2019\Community\VC\Tools\MSVC\14.28.29333\include\xmemory

; 997  :     return _Len;

  00068	8b 45 b0	 mov	 eax, DWORD PTR $T8[ebp]
  0006b	89 45 ac	 mov	 DWORD PTR $T7[ebp], eax
; File C:\Program Files (x86)\Microsoft Visual Studio\2019\Community\VC\Tools\MSVC\14.28.29333\include\xstring

; 2958 :         return append(_Ptr, _Convert_size<size_type>(_Traits::length(_Ptr)));

  0006e	ff 75 ac	 push	 DWORD PTR $T7[ebp]
  00071	ff 75 0c	 push	 DWORD PTR _c_szFileName$[ebp]
  00074	8d 4d d8	 lea	 ecx, DWORD PTR _strFileName$[ebp]
  00077	e8 00 00 00 00	 call	 ?append@?$basic_string@DU?$char_traits@D@std@@V?$allocator@D@2@@std@@QAEAAV12@QBDI@Z ; std::basic_string<char,std::char_traits<char>,std::allocator<char> >::append

; 2365 :     basic_string() noexcept(is_nothrow_default_constructible_v<_Alty>) : _Mypair(_Zero_then_variadic_args_t{}) {

  0007c	8d 45 c0	 lea	 eax, DWORD PTR _stExt$[ebp]
  0007f	89 45 a8	 mov	 DWORD PTR _this$[ebp], eax
; File C:\Program Files (x86)\Microsoft Visual Studio\2019\Community\VC\Tools\MSVC\14.28.29333\include\xmemory

; 1339 :         : _Ty1(), _Myval2(_STD forward<_Other2>(_Val2)...) {}

  00082	8b 4d a8	 mov	 ecx, DWORD PTR _this$[ebp]
  00085	e8 00 00 00 00	 call	 ??0?$_String_val@U?$_Simple_types@D@std@@@std@@QAE@XZ ; std::_String_val<std::_Simple_types<char> >::_String_val<std::_Simple_types<char> >
; File C:\Program Files (x86)\Microsoft Visual Studio\2019\Community\VC\Tools\MSVC\14.28.29333\include\xstring

; 2367 :         _Tidy_init();

  0008a	8d 4d c0	 lea	 ecx, DWORD PTR _stExt$[ebp]
  0008d	e8 00 00 00 00	 call	 ?_Tidy_init@?$basic_string@DU?$char_traits@D@std@@V?$allocator@D@2@@std@@AAEXXZ ; std::basic_string<char,std::char_traits<char>,std::allocator<char> >::_Tidy_init
; File D:\Metin2 Server Files\mainline\SRC_2014\Metin2Client\GameLib\PropertyLoader.cpp

; 30   : 	std::string stExt;

  00092	c6 45 fc 01	 mov	 BYTE PTR __$EHRec$[ebp+8], 1
; File C:\Program Files (x86)\Microsoft Visual Studio\2019\Community\VC\Tools\MSVC\14.28.29333\include\xstring

; 3766 :         return _Mypair._Myval2._Mysize;

  00096	8b 45 e8	 mov	 eax, DWORD PTR _strFileName$[ebp+16]
  00099	89 45 a4	 mov	 DWORD PTR $T6[ebp], eax
; File D:\Metin2 Server Files\mainline\SRC_2014\Metin2Client\GameLib\PropertyLoader.cpp

; 31   : 	GetFileExtension(strFileName.c_str(), strFileName.length(), &stExt);

  0009c	8d 45 c0	 lea	 eax, DWORD PTR _stExt$[ebp]
  0009f	50		 push	 eax
  000a0	ff 75 a4	 push	 DWORD PTR $T6[ebp]
  000a3	8d 4d d8	 lea	 ecx, DWORD PTR _strFileName$[ebp]
  000a6	e8 00 00 00 00	 call	 ?c_str@?$basic_string@DU?$char_traits@D@std@@V?$allocator@D@2@@std@@QBEPBDXZ ; std::basic_string<char,std::char_traits<char>,std::allocator<char> >::c_str
  000ab	50		 push	 eax
  000ac	e8 00 00 00 00	 call	 ?GetFileExtension@@YAXPBDHPAV?$basic_string@DU?$char_traits@D@std@@V?$allocator@D@2@@std@@@Z ; GetFileExtension
  000b1	83 c4 0c	 add	 esp, 12			; 0000000cH

; 32   : 
; 33   : 	stl_lowers(stExt);

  000b4	8d 45 c0	 lea	 eax, DWORD PTR _stExt$[ebp]
  000b7	50		 push	 eax
  000b8	e8 00 00 00 00	 call	 ?stl_lowers@@YAXAAV?$basic_string@DU?$char_traits@D@std@@V?$allocator@D@2@@std@@@Z ; stl_lowers
  000bd	59		 pop	 ecx

; 34   : 	stl_lowers(strFileName);

  000be	8d 45 d8	 lea	 eax, DWORD PTR _strFileName$[ebp]
  000c1	50		 push	 eax
  000c2	e8 00 00 00 00	 call	 ?stl_lowers@@YAXAAV?$basic_string@DU?$char_traits@D@std@@V?$allocator@D@2@@std@@@Z ; stl_lowers
  000c7	59		 pop	 ecx

; 35   : 
; 36   : 	// 패스를 소문자로 만들고 \\ 는 / 로 바꾼다.
; 37   : 	StringPath(strFileName);

  000c8	8d 45 d8	 lea	 eax, DWORD PTR _strFileName$[ebp]
  000cb	50		 push	 eax
  000cc	e8 00 00 00 00	 call	 ?StringPath@@YAXAAV?$basic_string@DU?$char_traits@D@std@@V?$allocator@D@2@@std@@@Z ; StringPath
  000d1	59		 pop	 ecx

; 38   : 
; 39   : 	// 예약된 CRC 처리 (지워진 CRC)
; 40   : 	if (0 == strFileName.compare("property/reserve"))

  000d2	68 00 00 00 00	 push	 OFFSET ??_C@_0BB@FGKGEGON@property?1reserve@
  000d7	8d 4d d8	 lea	 ecx, DWORD PTR _strFileName$[ebp]
  000da	e8 00 00 00 00	 call	 ?compare@?$basic_string@DU?$char_traits@D@std@@V?$allocator@D@2@@std@@QBEHQBD@Z ; std::basic_string<char,std::char_traits<char>,std::allocator<char> >::compare
  000df	85 c0		 test	 eax, eax
  000e1	75 40		 jne	 SHORT $LN2@RegisterFi

; 41   : 	{
; 42   : 		m_pPropertyManager->LoadReservedCRC(strFileName.c_str());

  000e3	8d 4d d8	 lea	 ecx, DWORD PTR _strFileName$[ebp]
  000e6	e8 00 00 00 00	 call	 ?c_str@?$basic_string@DU?$char_traits@D@std@@V?$allocator@D@2@@std@@QBEPBDXZ ; std::basic_string<char,std::char_traits<char>,std::allocator<char> >::c_str
  000eb	50		 push	 eax
  000ec	8b 45 bc	 mov	 eax, DWORD PTR _this$[ebp]
  000ef	8b 88 48 01 00
	00		 mov	 ecx, DWORD PTR [eax+328]
  000f5	e8 00 00 00 00	 call	 ?LoadReservedCRC@CPropertyManager@@QAE_NPBD@Z ; CPropertyManager::LoadReservedCRC

; 43   : 		return 1;

  000fa	c7 45 a0 01 00
	00 00		 mov	 DWORD PTR $T5[ebp], 1
  00101	c6 45 fc 00	 mov	 BYTE PTR __$EHRec$[ebp+8], 0
; File C:\Program Files (x86)\Microsoft Visual Studio\2019\Community\VC\Tools\MSVC\14.28.29333\include\xstring

; 2801 :         _Tidy_deallocate();

  00105	8d 4d c0	 lea	 ecx, DWORD PTR _stExt$[ebp]
  00108	e8 00 00 00 00	 call	 ?_Tidy_deallocate@?$basic_string@DU?$char_traits@D@std@@V?$allocator@D@2@@std@@AAEXXZ ; std::basic_string<char,std::char_traits<char>,std::allocator<char> >::_Tidy_deallocate
; File D:\Metin2 Server Files\mainline\SRC_2014\Metin2Client\GameLib\PropertyLoader.cpp

; 43   : 		return 1;

  0010d	83 4d fc ff	 or	 DWORD PTR __$EHRec$[ebp+8], -1
; File C:\Program Files (x86)\Microsoft Visual Studio\2019\Community\VC\Tools\MSVC\14.28.29333\include\xstring

; 2801 :         _Tidy_deallocate();

  00111	8d 4d d8	 lea	 ecx, DWORD PTR _strFileName$[ebp]
  00114	e8 00 00 00 00	 call	 ?_Tidy_deallocate@?$basic_string@DU?$char_traits@D@std@@V?$allocator@D@2@@std@@AAEXXZ ; std::basic_string<char,std::char_traits<char>,std::allocator<char> >::_Tidy_deallocate
; File D:\Metin2 Server Files\mainline\SRC_2014\Metin2Client\GameLib\PropertyLoader.cpp

; 43   : 		return 1;

  00119	8b 45 a0	 mov	 eax, DWORD PTR $T5[ebp]
  0011c	e9 87 00 00 00	 jmp	 $LN1@RegisterFi

; 44   : 	}

  00121	eb 6d		 jmp	 SHORT $LN3@RegisterFi
$LN2@RegisterFi:

; 45   : 	else
; 46   : 	{
; 47   : 		CProperty * pProperty;
; 48   : 
; 49   : 		if (m_pPropertyManager->Register(strFileName.c_str(), &pProperty))

  00123	8d 45 9c	 lea	 eax, DWORD PTR _pProperty$4[ebp]
  00126	50		 push	 eax
  00127	8d 4d d8	 lea	 ecx, DWORD PTR _strFileName$[ebp]
  0012a	e8 00 00 00 00	 call	 ?c_str@?$basic_string@DU?$char_traits@D@std@@V?$allocator@D@2@@std@@QBEPBDXZ ; std::basic_string<char,std::char_traits<char>,std::allocator<char> >::c_str
  0012f	50		 push	 eax
  00130	8b 45 bc	 mov	 eax, DWORD PTR _this$[ebp]
  00133	8b 88 48 01 00
	00		 mov	 ecx, DWORD PTR [eax+328]
  00139	e8 00 00 00 00	 call	 ?Register@CPropertyManager@@QAE_NPBDPAPAVCProperty@@@Z ; CPropertyManager::Register
  0013e	0f b6 c0	 movzx	 eax, al
  00141	85 c0		 test	 eax, eax
  00143	74 2a		 je	 SHORT $LN4@RegisterFi

; 50   : 			return pProperty->GetCRC();

  00145	8b 4d 9c	 mov	 ecx, DWORD PTR _pProperty$4[ebp]
  00148	e8 00 00 00 00	 call	 ?GetCRC@CProperty@@QAEKXZ ; CProperty::GetCRC
  0014d	89 45 98	 mov	 DWORD PTR $T3[ebp], eax
  00150	c6 45 fc 00	 mov	 BYTE PTR __$EHRec$[ebp+8], 0
; File C:\Program Files (x86)\Microsoft Visual Studio\2019\Community\VC\Tools\MSVC\14.28.29333\include\xstring

; 2801 :         _Tidy_deallocate();

  00154	8d 4d c0	 lea	 ecx, DWORD PTR _stExt$[ebp]
  00157	e8 00 00 00 00	 call	 ?_Tidy_deallocate@?$basic_string@DU?$char_traits@D@std@@V?$allocator@D@2@@std@@AAEXXZ ; std::basic_string<char,std::char_traits<char>,std::allocator<char> >::_Tidy_deallocate
; File D:\Metin2 Server Files\mainline\SRC_2014\Metin2Client\GameLib\PropertyLoader.cpp

; 50   : 			return pProperty->GetCRC();

  0015c	83 4d fc ff	 or	 DWORD PTR __$EHRec$[ebp+8], -1
; File C:\Program Files (x86)\Microsoft Visual Studio\2019\Community\VC\Tools\MSVC\14.28.29333\include\xstring

; 2801 :         _Tidy_deallocate();

  00160	8d 4d d8	 lea	 ecx, DWORD PTR _strFileName$[ebp]
  00163	e8 00 00 00 00	 call	 ?_Tidy_deallocate@?$basic_string@DU?$char_traits@D@std@@V?$allocator@D@2@@std@@AAEXXZ ; std::basic_string<char,std::char_traits<char>,std::allocator<char> >::_Tidy_deallocate
; File D:\Metin2 Server Files\mainline\SRC_2014\Metin2Client\GameLib\PropertyLoader.cpp

; 50   : 			return pProperty->GetCRC();

  00168	8b 45 98	 mov	 eax, DWORD PTR $T3[ebp]
  0016b	eb 3b		 jmp	 SHORT $LN1@RegisterFi
  0016d	eb 21		 jmp	 SHORT $LN3@RegisterFi
$LN4@RegisterFi:

; 52   : 			return 0;

  0016f	83 65 94 00	 and	 DWORD PTR $T2[ebp], 0
  00173	c6 45 fc 00	 mov	 BYTE PTR __$EHRec$[ebp+8], 0
; File C:\Program Files (x86)\Microsoft Visual Studio\2019\Community\VC\Tools\MSVC\14.28.29333\include\xstring

; 2801 :         _Tidy_deallocate();

  00177	8d 4d c0	 lea	 ecx, DWORD PTR _stExt$[ebp]
  0017a	e8 00 00 00 00	 call	 ?_Tidy_deallocate@?$basic_string@DU?$char_traits@D@std@@V?$allocator@D@2@@std@@AAEXXZ ; std::basic_string<char,std::char_traits<char>,std::allocator<char> >::_Tidy_deallocate
; File D:\Metin2 Server Files\mainline\SRC_2014\Metin2Client\GameLib\PropertyLoader.cpp

; 52   : 			return 0;

  0017f	83 4d fc ff	 or	 DWORD PTR __$EHRec$[ebp+8], -1
; File C:\Program Files (x86)\Microsoft Visual Studio\2019\Community\VC\Tools\MSVC\14.28.29333\include\xstring

; 2801 :         _Tidy_deallocate();

  00183	8d 4d d8	 lea	 ecx, DWORD PTR _strFileName$[ebp]
  00186	e8 00 00 00 00	 call	 ?_Tidy_deallocate@?$basic_string@DU?$char_traits@D@std@@V?$allocator@D@2@@std@@AAEXXZ ; std::basic_string<char,std::char_traits<char>,std::allocator<char> >::_Tidy_deallocate
; File D:\Metin2 Server Files\mainline\SRC_2014\Metin2Client\GameLib\PropertyLoader.cpp

; 52   : 			return 0;

  0018b	8b 45 94	 mov	 eax, DWORD PTR $T2[ebp]
  0018e	eb 18		 jmp	 SHORT $LN1@RegisterFi
$LN3@RegisterFi:

; 54   : }

  00190	c6 45 fc 00	 mov	 BYTE PTR __$EHRec$[ebp+8], 0
; File C:\Program Files (x86)\Microsoft Visual Studio\2019\Community\VC\Tools\MSVC\14.28.29333\include\xstring

; 2801 :         _Tidy_deallocate();

  00194	8d 4d c0	 lea	 ecx, DWORD PTR _stExt$[ebp]
  00197	e8 00 00 00 00	 call	 ?_Tidy_deallocate@?$basic_string@DU?$char_traits@D@std@@V?$allocator@D@2@@std@@AAEXXZ ; std::basic_string<char,std::char_traits<char>,std::allocator<char> >::_Tidy_deallocate
; File D:\Metin2 Server Files\mainline\SRC_2014\Metin2Client\GameLib\PropertyLoader.cpp

; 54   : }

  0019c	83 4d fc ff	 or	 DWORD PTR __$EHRec$[ebp+8], -1
; File C:\Program Files (x86)\Microsoft Visual Studio\2019\Community\VC\Tools\MSVC\14.28.29333\include\xstring

; 2801 :         _Tidy_deallocate();

  001a0	8d 4d d8	 lea	 ecx, DWORD PTR _strFileName$[ebp]
  001a3	e8 00 00 00 00	 call	 ?_Tidy_deallocate@?$basic_string@DU?$char_traits@D@std@@V?$allocator@D@2@@std@@AAEXXZ ; std::basic_string<char,std::char_traits<char>,std::allocator<char> >::_Tidy_deallocate
$LN1@RegisterFi:
; File D:\Metin2 Server Files\mainline\SRC_2014\Metin2Client\GameLib\PropertyLoader.cpp

; 54   : }

  001a8	8b 4d f4	 mov	 ecx, DWORD PTR __$EHRec$[ebp]
  001ab	64 89 0d 00 00
	00 00		 mov	 DWORD PTR fs:0, ecx
  001b2	59		 pop	 ecx
  001b3	8b 4d f0	 mov	 ecx, DWORD PTR __$ArrayPad$[ebp]
  001b6	33 cd		 xor	 ecx, ebp
  001b8	e8 00 00 00 00	 call	 @__security_check_cookie@4
  001bd	c9		 leave
  001be	c2 08 00	 ret	 8
_TEXT	ENDS
;	COMDAT text$x
text$x	SEGMENT
__unwindfunclet$?RegisterFile@CPropertyLoader@@QAEKPBD0@Z$0:
  00000	8d 4d d8	 lea	 ecx, DWORD PTR _strFileName$[ebp]
  00003	e9 00 00 00 00	 jmp	 ??1?$basic_string@DU?$char_traits@D@std@@V?$allocator@D@2@@std@@QAE@XZ ; std::basic_string<char,std::char_traits<char>,std::allocator<char> >::~basic_string<char,std::char_traits<char>,std::allocator<char> >
__unwindfunclet$?RegisterFile@CPropertyLoader@@QAEKPBD0@Z$1:
  00008	8d 4d c0	 lea	 ecx, DWORD PTR _stExt$[ebp]
  0000b	e9 00 00 00 00	 jmp	 ??1?$basic_string@DU?$char_traits@D@std@@V?$allocator@D@2@@std@@QAE@XZ ; std::basic_string<char,std::char_traits<char>,std::allocator<char> >::~basic_string<char,std::char_traits<char>,std::allocator<char> >
  00010	cc		 int	 3
  00011	cc		 int	 3
  00012	cc		 int	 3
  00013	cc		 int	 3
  00014	cc		 int	 3
__ehhandler$?RegisterFile@CPropertyLoader@@QAEKPBD0@Z:
  00015	90		 npad	 1
  00016	90		 npad	 1
  00017	8b 54 24 08	 mov	 edx, DWORD PTR [esp+8]
  0001b	8d 42 0c	 lea	 eax, DWORD PTR [edx+12]
  0001e	8b 4a 9c	 mov	 ecx, DWORD PTR [edx-100]
  00021	33 c8		 xor	 ecx, eax
  00023	e8 00 00 00 00	 call	 @__security_check_cookie@4
  00028	8b 4a fc	 mov	 ecx, DWORD PTR [edx-4]
  0002b	33 c8		 xor	 ecx, eax
  0002d	e8 00 00 00 00	 call	 @__security_check_cookie@4
  00032	b8 00 00 00 00	 mov	 eax, OFFSET __ehfuncinfo$?RegisterFile@CPropertyLoader@@QAEKPBD0@Z
  00037	e9 00 00 00 00	 jmp	 ___CxxFrameHandler3
text$x	ENDS
?RegisterFile@CPropertyLoader@@QAEKPBD0@Z ENDP		; CPropertyLoader::RegisterFile
; Function compile flags: /Odspy
; File D:\Metin2 Server Files\mainline\SRC_2014\Metin2Client\GameLib\PropertyLoader.cpp
;	COMDAT ?SetPropertyManager@CPropertyLoader@@QAEXPAVCPropertyManager@@@Z
_TEXT	SEGMENT
_this$ = -4						; size = 4
_pPropertyManager$ = 8					; size = 4
?SetPropertyManager@CPropertyLoader@@QAEXPAVCPropertyManager@@@Z PROC ; CPropertyLoader::SetPropertyManager, COMDAT
; _this$ = ecx

; 57   : {

  00000	55		 push	 ebp
  00001	8b ec		 mov	 ebp, esp
  00003	51		 push	 ecx
  00004	89 4d fc	 mov	 DWORD PTR _this$[ebp], ecx

; 58   : 	m_pPropertyManager = pPropertyManager;

  00007	8b 45 fc	 mov	 eax, DWORD PTR _this$[ebp]
  0000a	8b 4d 08	 mov	 ecx, DWORD PTR _pPropertyManager$[ebp]
  0000d	89 88 48 01 00
	00		 mov	 DWORD PTR [eax+328], ecx

; 59   : }

  00013	c9		 leave
  00014	c2 04 00	 ret	 4
?SetPropertyManager@CPropertyLoader@@QAEXPAVCPropertyManager@@@Z ENDP ; CPropertyLoader::SetPropertyManager
_TEXT	ENDS
; Function compile flags: /Odspy
; File D:\Metin2 Server Files\mainline\SRC_2014\Metin2Client\GameLib\PropertyLoader.cpp
;	COMDAT ??1CPropertyLoader@@UAE@XZ
_TEXT	SEGMENT
_this$ = -4						; size = 4
??1CPropertyLoader@@UAE@XZ PROC				; CPropertyLoader::~CPropertyLoader, COMDAT
; _this$ = ecx

; 67   : {

  00000	55		 push	 ebp
  00001	8b ec		 mov	 ebp, esp
  00003	51		 push	 ecx
  00004	89 4d fc	 mov	 DWORD PTR _this$[ebp], ecx
  00007	8b 45 fc	 mov	 eax, DWORD PTR _this$[ebp]
  0000a	c7 00 00 00 00
	00		 mov	 DWORD PTR [eax], OFFSET ??_7CPropertyLoader@@6B@

; 68   : }

  00010	8b 4d fc	 mov	 ecx, DWORD PTR _this$[ebp]
  00013	e8 00 00 00 00	 call	 ??1CDir@@UAE@XZ		; CDir::~CDir
  00018	c9		 leave
  00019	c3		 ret	 0
??1CPropertyLoader@@UAE@XZ ENDP				; CPropertyLoader::~CPropertyLoader
_TEXT	ENDS
; Function compile flags: /Odspy
; File D:\Metin2 Server Files\mainline\SRC_2014\Metin2Client\GameLib\PropertyLoader.cpp
;	COMDAT ??0CPropertyLoader@@QAE@XZ
_TEXT	SEGMENT
_this$ = -4						; size = 4
??0CPropertyLoader@@QAE@XZ PROC				; CPropertyLoader::CPropertyLoader, COMDAT
; _this$ = ecx

; 62   : {

  00000	55		 push	 ebp
  00001	8b ec		 mov	 ebp, esp
  00003	51		 push	 ecx
  00004	89 4d fc	 mov	 DWORD PTR _this$[ebp], ecx
  00007	8b 4d fc	 mov	 ecx, DWORD PTR _this$[ebp]
  0000a	e8 00 00 00 00	 call	 ??0CDir@@QAE@XZ		; CDir::CDir
  0000f	8b 45 fc	 mov	 eax, DWORD PTR _this$[ebp]
  00012	c7 00 00 00 00
	00		 mov	 DWORD PTR [eax], OFFSET ??_7CPropertyLoader@@6B@

; 63   : 	m_pPropertyManager = NULL;

  00018	8b 45 fc	 mov	 eax, DWORD PTR _this$[ebp]
  0001b	83 a0 48 01 00
	00 00		 and	 DWORD PTR [eax+328], 0

; 64   : }

  00022	8b 45 fc	 mov	 eax, DWORD PTR _this$[ebp]
  00025	c9		 leave
  00026	c3		 ret	 0
??0CPropertyLoader@@QAE@XZ ENDP				; CPropertyLoader::CPropertyLoader
_TEXT	ENDS
; Function compile flags: /Odspy
; File C:\Program Files (x86)\Microsoft Visual Studio\2019\Community\VC\Tools\MSVC\14.28.29333\include\xmemory
;	COMDAT ??$_Allocate_manually_vector_aligned@U_Default_allocate_traits@std@@@std@@YAPAXI@Z
_TEXT	SEGMENT
__Ptr$ = -12						; size = 4
__Block_size$ = -8					; size = 4
__Ptr_container$ = -4					; size = 4
__Bytes$ = 8						; size = 4
??$_Allocate_manually_vector_aligned@U_Default_allocate_traits@std@@@std@@YAPAXI@Z PROC ; std::_Allocate_manually_vector_aligned<std::_Default_allocate_traits>, COMDAT

; 113  : __declspec(allocator) void* _Allocate_manually_vector_aligned(const size_t _Bytes) {

  00000	55		 push	 ebp
  00001	8b ec		 mov	 ebp, esp
  00003	83 ec 0c	 sub	 esp, 12			; 0000000cH

; 114  :     // allocate _Bytes manually aligned to at least _Big_allocation_alignment
; 115  :     const size_t _Block_size = _Non_user_size + _Bytes;

  00006	8b 45 08	 mov	 eax, DWORD PTR __Bytes$[ebp]
  00009	83 c0 23	 add	 eax, 35			; 00000023H
  0000c	89 45 f8	 mov	 DWORD PTR __Block_size$[ebp], eax

; 116  :     if (_Block_size <= _Bytes) {

  0000f	8b 45 f8	 mov	 eax, DWORD PTR __Block_size$[ebp]
  00012	3b 45 08	 cmp	 eax, DWORD PTR __Bytes$[ebp]
  00015	77 05		 ja	 SHORT $LN12@Allocate_m

; 117  :         _Throw_bad_array_new_length(); // add overflow

  00017	e8 00 00 00 00	 call	 ?_Throw_bad_array_new_length@std@@YAXXZ ; std::_Throw_bad_array_new_length
$LN12@Allocate_m:

; 77   :         return ::operator new(_Bytes);

  0001c	ff 75 f8	 push	 DWORD PTR __Block_size$[ebp]
  0001f	e8 00 00 00 00	 call	 ??2@YAPAXI@Z		; operator new
  00024	59		 pop	 ecx

; 118  :     }
; 119  : 
; 120  :     const uintptr_t _Ptr_container = reinterpret_cast<uintptr_t>(_Traits::_Allocate(_Block_size));

  00025	89 45 fc	 mov	 DWORD PTR __Ptr_container$[ebp], eax
$LN4@Allocate_m:

; 121  :     _STL_VERIFY(_Ptr_container != 0, "invalid argument"); // validate even in release since we're doing p[-1]

  00028	83 7d fc 00	 cmp	 DWORD PTR __Ptr_container$[ebp], 0
  0002c	74 02		 je	 SHORT $LN7@Allocate_m
  0002e	eb 09		 jmp	 SHORT $LN2@Allocate_m
$LN7@Allocate_m:
  00030	e8 00 00 00 00	 call	 __invalid_parameter_noinfo_noreturn
  00035	33 c0		 xor	 eax, eax
  00037	75 f7		 jne	 SHORT $LN7@Allocate_m
$LN2@Allocate_m:
  00039	33 c0		 xor	 eax, eax
  0003b	75 eb		 jne	 SHORT $LN4@Allocate_m

; 122  :     void* const _Ptr = reinterpret_cast<void*>((_Ptr_container + _Non_user_size) & ~(_Big_allocation_alignment - 1));

  0003d	8b 45 fc	 mov	 eax, DWORD PTR __Ptr_container$[ebp]
  00040	83 c0 23	 add	 eax, 35			; 00000023H
  00043	83 e0 e0	 and	 eax, -32		; ffffffe0H
  00046	89 45 f4	 mov	 DWORD PTR __Ptr$[ebp], eax

; 123  :     static_cast<uintptr_t*>(_Ptr)[-1] = _Ptr_container;

  00049	6a 04		 push	 4
  0004b	58		 pop	 eax
  0004c	6b c0 ff	 imul	 eax, eax, -1
  0004f	8b 4d f4	 mov	 ecx, DWORD PTR __Ptr$[ebp]
  00052	8b 55 fc	 mov	 edx, DWORD PTR __Ptr_container$[ebp]
  00055	89 14 01	 mov	 DWORD PTR [ecx+eax], edx

; 124  : 
; 125  : #ifdef _DEBUG
; 126  :     static_cast<uintptr_t*>(_Ptr)[-2] = _Big_allocation_sentinel;
; 127  : #endif // _DEBUG
; 128  :     return _Ptr;

  00058	8b 45 f4	 mov	 eax, DWORD PTR __Ptr$[ebp]
$LN11@Allocate_m:

; 129  : }

  0005b	c9		 leave
  0005c	c3		 ret	 0
??$_Allocate_manually_vector_aligned@U_Default_allocate_traits@std@@@std@@YAPAXI@Z ENDP ; std::_Allocate_manually_vector_aligned<std::_Default_allocate_traits>
_TEXT	ENDS
; Function compile flags: /Odspy
; File C:\Program Files (x86)\Microsoft Visual Studio\2019\Community\VC\Tools\MSVC\14.28.29333\include\xmemory
;	COMDAT ??$_Allocate@$07U_Default_allocate_traits@std@@$0A@@std@@YAPAXI@Z
_TEXT	SEGMENT
__Bytes$ = 8						; size = 4
??$_Allocate@$07U_Default_allocate_traits@std@@$0A@@std@@YAPAXI@Z PROC ; std::_Allocate<8,std::_Default_allocate_traits,0>, COMDAT

; 197  : __declspec(allocator) void* _Allocate(const size_t _Bytes) {

  00000	55		 push	 ebp
  00001	8b ec		 mov	 ebp, esp

; 198  :     // allocate _Bytes when !_HAS_ALIGNED_NEW || _Align <= __STDCPP_DEFAULT_NEW_ALIGNMENT__
; 199  : #if defined(_M_IX86) || defined(_M_X64)
; 200  :     if (_Bytes >= _Big_allocation_threshold) { // boost the alignment of big allocations to help autovectorization

  00003	81 7d 08 00 10
	00 00		 cmp	 DWORD PTR __Bytes$[ebp], 4096 ; 00001000H
  0000a	72 0b		 jb	 SHORT $LN2@Allocate

; 201  :         return _Allocate_manually_vector_aligned<_Traits>(_Bytes);

  0000c	ff 75 08	 push	 DWORD PTR __Bytes$[ebp]
  0000f	e8 00 00 00 00	 call	 ??$_Allocate_manually_vector_aligned@U_Default_allocate_traits@std@@@std@@YAPAXI@Z ; std::_Allocate_manually_vector_aligned<std::_Default_allocate_traits>
  00014	59		 pop	 ecx
  00015	eb 13		 jmp	 SHORT $LN1@Allocate
$LN2@Allocate:

; 202  :     }
; 203  : #endif // defined(_M_IX86) || defined(_M_X64)
; 204  : 
; 205  :     if (_Bytes != 0) {

  00017	83 7d 08 00	 cmp	 DWORD PTR __Bytes$[ebp], 0
  0001b	74 0b		 je	 SHORT $LN3@Allocate

; 77   :         return ::operator new(_Bytes);

  0001d	ff 75 08	 push	 DWORD PTR __Bytes$[ebp]
  00020	e8 00 00 00 00	 call	 ??2@YAPAXI@Z		; operator new
  00025	59		 pop	 ecx

; 206  :         return _Traits::_Allocate(_Bytes);

  00026	eb 02		 jmp	 SHORT $LN1@Allocate
$LN3@Allocate:

; 207  :     }
; 208  : 
; 209  :     return nullptr;

  00028	33 c0		 xor	 eax, eax
$LN1@Allocate:

; 210  : }

  0002a	5d		 pop	 ebp
  0002b	c3		 ret	 0
??$_Allocate@$07U_Default_allocate_traits@std@@$0A@@std@@YAPAXI@Z ENDP ; std::_Allocate<8,std::_Default_allocate_traits,0>
_TEXT	ENDS
; Function compile flags: /Odspy
; File C:\Program Files (x86)\Microsoft Visual Studio\2019\Community\VC\Tools\MSVC\14.28.29333\include\xmemory
;	COMDAT ??$_Deallocate@$07$0A@@std@@YAXPAXI@Z
_TEXT	SEGMENT
__$EHRec$ = -12						; size = 12
__Ptr$ = 8						; size = 4
__Bytes$ = 12						; size = 4
??$_Deallocate@$07$0A@@std@@YAXPAXI@Z PROC		; std::_Deallocate<8,0>, COMDAT

; 213  : void _Deallocate(void* _Ptr, size_t _Bytes) noexcept {

  00000	55		 push	 ebp
  00001	8b ec		 mov	 ebp, esp
  00003	6a ff		 push	 -1
  00005	68 00 00 00 00	 push	 __ehhandler$??$_Deallocate@$07$0A@@std@@YAXPAXI@Z
  0000a	64 a1 00 00 00
	00		 mov	 eax, DWORD PTR fs:0
  00010	50		 push	 eax
  00011	a1 00 00 00 00	 mov	 eax, DWORD PTR ___security_cookie
  00016	33 c5		 xor	 eax, ebp
  00018	50		 push	 eax
  00019	8d 45 f4	 lea	 eax, DWORD PTR __$EHRec$[ebp]
  0001c	64 a3 00 00 00
	00		 mov	 DWORD PTR fs:0, eax

; 214  :     // deallocate storage allocated by _Allocate when !_HAS_ALIGNED_NEW || _Align <= __STDCPP_DEFAULT_NEW_ALIGNMENT__
; 215  : #if defined(_M_IX86) || defined(_M_X64)
; 216  :     if (_Bytes >= _Big_allocation_threshold) { // boost the alignment of big allocations to help autovectorization

  00022	81 7d 0c 00 10
	00 00		 cmp	 DWORD PTR __Bytes$[ebp], 4096 ; 00001000H
  00029	72 0f		 jb	 SHORT $LN2@Deallocate

; 217  :         _Adjust_manually_vector_aligned(_Ptr, _Bytes);

  0002b	8d 45 0c	 lea	 eax, DWORD PTR __Bytes$[ebp]
  0002e	50		 push	 eax
  0002f	8d 45 08	 lea	 eax, DWORD PTR __Ptr$[ebp]
  00032	50		 push	 eax
  00033	e8 00 00 00 00	 call	 ?_Adjust_manually_vector_aligned@std@@YAXAAPAXAAI@Z ; std::_Adjust_manually_vector_aligned
  00038	59		 pop	 ecx
  00039	59		 pop	 ecx
$LN2@Deallocate:

; 218  :     }
; 219  : #endif // defined(_M_IX86) || defined(_M_X64)
; 220  : 
; 221  :     ::operator delete(_Ptr, _Bytes);

  0003a	ff 75 0c	 push	 DWORD PTR __Bytes$[ebp]
  0003d	ff 75 08	 push	 DWORD PTR __Ptr$[ebp]
  00040	e8 00 00 00 00	 call	 ??3@YAXPAXI@Z		; operator delete
  00045	59		 pop	 ecx
  00046	59		 pop	 ecx

; 222  : }

  00047	8b 4d f4	 mov	 ecx, DWORD PTR __$EHRec$[ebp]
  0004a	64 89 0d 00 00
	00 00		 mov	 DWORD PTR fs:0, ecx
  00051	59		 pop	 ecx
  00052	c9		 leave
  00053	c3		 ret	 0
  00054	cc		 int	 3
  00055	cc		 int	 3
  00056	cc		 int	 3
  00057	cc		 int	 3
  00058	cc		 int	 3
_TEXT	ENDS
;	COMDAT text$x
text$x	SEGMENT
__ehhandler$??$_Deallocate@$07$0A@@std@@YAXPAXI@Z:
  00000	90		 npad	 1
  00001	90		 npad	 1
  00002	8b 54 24 08	 mov	 edx, DWORD PTR [esp+8]
  00006	8d 42 0c	 lea	 eax, DWORD PTR [edx+12]
  00009	8b 4a fc	 mov	 ecx, DWORD PTR [edx-4]
  0000c	33 c8		 xor	 ecx, eax
  0000e	e8 00 00 00 00	 call	 @__security_check_cookie@4
  00013	b8 00 00 00 00	 mov	 eax, OFFSET __ehfuncinfo$??$_Deallocate@$07$0A@@std@@YAXPAXI@Z
  00018	e9 00 00 00 00	 jmp	 ___CxxFrameHandler3
text$x	ENDS
??$_Deallocate@$07$0A@@std@@YAXPAXI@Z ENDP		; std::_Deallocate<8,0>
; Function compile flags: /Odspy
; File C:\Program Files (x86)\Microsoft Visual Studio\2019\Community\VC\Tools\MSVC\14.28.29333\include\xmemory
; File C:\Program Files (x86)\Microsoft Visual Studio\2019\Community\VC\Tools\MSVC\14.28.29333\include\xstddef
; File C:\Program Files (x86)\Microsoft Visual Studio\2019\Community\VC\Tools\MSVC\14.28.29333\include\vcruntime_new.h
; File C:\Program Files (x86)\Microsoft Visual Studio\2019\Community\VC\Tools\MSVC\14.28.29333\include\type_traits
; File C:\Program Files (x86)\Microsoft Visual Studio\2019\Community\VC\Tools\MSVC\14.28.29333\include\xmemory
;	COMDAT ??$_Construct_in_place@PADABQAD@std@@YAXAAPADABQAD@Z
_TEXT	SEGMENT
$T1 = -12						; size = 4
$T2 = -8						; size = 4
$T3 = -4						; size = 4
__Obj$ = 8						; size = 4
_<_Args_0>$ = 12					; size = 4
??$_Construct_in_place@PADABQAD@std@@YAXAAPADABQAD@Z PROC ; std::_Construct_in_place<char *,char * const &>, COMDAT

; 228  : void _Construct_in_place(_Ty& _Obj, _Types&&... _Args) noexcept(is_nothrow_constructible_v<_Ty, _Types...>) {

  00000	55		 push	 ebp
  00001	8b ec		 mov	 ebp, esp
  00003	83 ec 0c	 sub	 esp, 12			; 0000000cH
; File C:\Program Files (x86)\Microsoft Visual Studio\2019\Community\VC\Tools\MSVC\14.28.29333\include\xstddef

; 275  :     return __builtin_addressof(_Val);

  00006	8b 45 08	 mov	 eax, DWORD PTR __Obj$[ebp]
  00009	89 45 fc	 mov	 DWORD PTR $T3[ebp], eax
; File C:\Program Files (x86)\Microsoft Visual Studio\2019\Community\VC\Tools\MSVC\14.28.29333\include\vcruntime_new.h

; 169  :         return _Where;

  0000c	8b 45 fc	 mov	 eax, DWORD PTR $T3[ebp]
  0000f	89 45 f8	 mov	 DWORD PTR $T2[ebp], eax
; File C:\Program Files (x86)\Microsoft Visual Studio\2019\Community\VC\Tools\MSVC\14.28.29333\include\type_traits

; 1443 :     return static_cast<_Ty&&>(_Arg);

  00012	8b 45 0c	 mov	 eax, DWORD PTR _<_Args_0>$[ebp]
  00015	89 45 f4	 mov	 DWORD PTR $T1[ebp], eax
; File C:\Program Files (x86)\Microsoft Visual Studio\2019\Community\VC\Tools\MSVC\14.28.29333\include\xmemory

; 229  :     ::new (const_cast<void*>(static_cast<const volatile void*>(_STD addressof(_Obj))))

  00018	8b 45 f8	 mov	 eax, DWORD PTR $T2[ebp]
  0001b	8b 4d f4	 mov	 ecx, DWORD PTR $T1[ebp]
  0001e	8b 09		 mov	 ecx, DWORD PTR [ecx]
  00020	89 08		 mov	 DWORD PTR [eax], ecx

; 230  :         _Ty(_STD forward<_Types>(_Args)...);
; 231  : }

  00022	c9		 leave
  00023	c3		 ret	 0
??$_Construct_in_place@PADABQAD@std@@YAXAAPADABQAD@Z ENDP ; std::_Construct_in_place<char *,char * const &>
_TEXT	ENDS
; Function compile flags: /Odspy
; File C:\Program Files (x86)\Microsoft Visual Studio\2019\Community\VC\Tools\MSVC\14.28.29333\include\xstring
; File C:\Program Files (x86)\Microsoft Visual Studio\2019\Community\VC\Tools\MSVC\14.28.29333\include\xmemory
; File C:\Program Files (x86)\Microsoft Visual Studio\2019\Community\VC\Tools\MSVC\14.28.29333\include\xstring
; File C:\Program Files (x86)\Microsoft Visual Studio\2019\Community\VC\Tools\MSVC\14.28.29333\include\xmemory
; File C:\Program Files (x86)\Microsoft Visual Studio\2019\Community\VC\Tools\MSVC\14.28.29333\include\xstring
; File C:\Program Files (x86)\Microsoft Visual Studio\2019\Community\VC\Tools\MSVC\14.28.29333\include\xmemory
; File C:\Program Files (x86)\Microsoft Visual Studio\2019\Community\VC\Tools\MSVC\14.28.29333\include\xstring
; File C:\Program Files (x86)\Microsoft Visual Studio\2019\Community\VC\Tools\MSVC\14.28.29333\include\xstddef
; File C:\Program Files (x86)\Microsoft Visual Studio\2019\Community\VC\Tools\MSVC\14.28.29333\include\xstring
; File C:\Program Files (x86)\Microsoft Visual Studio\2019\Community\VC\Tools\MSVC\14.28.29333\include\xstddef
; File C:\Program Files (x86)\Microsoft Visual Studio\2019\Community\VC\Tools\MSVC\14.28.29333\include\xstring
; File C:\Program Files (x86)\Microsoft Visual Studio\2019\Community\VC\Tools\MSVC\14.28.29333\include\xmemory
; File C:\Program Files (x86)\Microsoft Visual Studio\2019\Community\VC\Tools\MSVC\14.28.29333\include\xstring
;	COMDAT ??$_Reallocate_grow_by@V<lambda_ab246b20b9526e2ef7792587e4298a77>@@PBDI@?$basic_string@DU?$char_traits@D@std@@V?$allocator@D@2@@std@@AAEAAV01@IV<lambda_ab246b20b9526e2ef7792587e4298a77>@@PBDI@Z
_TEXT	SEGMENT
__Al$ = -64						; size = 4
__First1$ = -60						; size = 4
__First1$ = -56						; size = 4
$T1 = -52						; size = 4
__Ptr$ = -48						; size = 4
$T2 = -44						; size = 4
__Old_ptr$3 = -40					; size = 4
__Old_capacity$ = -36					; size = 4
__New_capacity$ = -32					; size = 4
__New_size$ = -28					; size = 4
__New_ptr$ = -24					; size = 4
_this$ = -20						; size = 4
__Raw_new$ = -16					; size = 4
__My_data$ = -12					; size = 4
__Old_size$ = -8					; size = 4
__Overflow_is_possible$4 = -3				; size = 1
$T5 = -2						; size = 1
$T6 = -1						; size = 1
__Size_increase$ = 8					; size = 4
__Fn$ = 12						; size = 1
_<_Args_0>$ = 16					; size = 4
_<_Args_1>$ = 20					; size = 4
??$_Reallocate_grow_by@V<lambda_ab246b20b9526e2ef7792587e4298a77>@@PBDI@?$basic_string@DU?$char_traits@D@std@@V?$allocator@D@2@@std@@AAEAAV01@IV<lambda_ab246b20b9526e2ef7792587e4298a77>@@PBDI@Z PROC ; std::basic_string<char,std::char_traits<char>,std::allocator<char> >::_Reallocate_grow_by<<lambda_ab246b20b9526e2ef7792587e4298a77>,char const *,unsigned int>, COMDAT
; _this$ = ecx

; 4328 :     basic_string& _Reallocate_grow_by(const size_type _Size_increase, _Fty _Fn, _ArgTys... _Args) {

  00000	55		 push	 ebp
  00001	8b ec		 mov	 ebp, esp
  00003	83 ec 40	 sub	 esp, 64			; 00000040H
  00006	89 4d ec	 mov	 DWORD PTR _this$[ebp], ecx

; 4329 :         // reallocate to increase size by _Size_increase elements, new buffer prepared by
; 4330 :         // _Fn(_New_ptr, _Old_ptr, _Old_size, _Args...)
; 4331 :         auto& _My_data            = _Mypair._Myval2;

  00009	8b 45 ec	 mov	 eax, DWORD PTR _this$[ebp]
  0000c	89 45 f4	 mov	 DWORD PTR __My_data$[ebp], eax

; 4332 :         const size_type _Old_size = _My_data._Mysize;

  0000f	8b 45 f4	 mov	 eax, DWORD PTR __My_data$[ebp]
  00012	8b 40 10	 mov	 eax, DWORD PTR [eax+16]
  00015	89 45 f8	 mov	 DWORD PTR __Old_size$[ebp], eax

; 4333 :         if (max_size() - _Old_size < _Size_increase) {

  00018	8b 4d ec	 mov	 ecx, DWORD PTR _this$[ebp]
  0001b	e8 00 00 00 00	 call	 ?max_size@?$basic_string@DU?$char_traits@D@std@@V?$allocator@D@2@@std@@QBEIXZ ; std::basic_string<char,std::char_traits<char>,std::allocator<char> >::max_size
  00020	2b 45 f8	 sub	 eax, DWORD PTR __Old_size$[ebp]
  00023	3b 45 08	 cmp	 eax, DWORD PTR __Size_increase$[ebp]
  00026	73 05		 jae	 SHORT $LN2@Reallocate

; 4334 :             _Xlen_string(); // result too long

  00028	e8 00 00 00 00	 call	 ?_Xlen_string@std@@YAXXZ ; std::_Xlen_string
$LN2@Reallocate:

; 4335 :         }
; 4336 : 
; 4337 :         const size_type _New_size     = _Old_size + _Size_increase;

  0002d	8b 45 f8	 mov	 eax, DWORD PTR __Old_size$[ebp]
  00030	03 45 08	 add	 eax, DWORD PTR __Size_increase$[ebp]
  00033	89 45 e4	 mov	 DWORD PTR __New_size$[ebp], eax

; 4338 :         const size_type _Old_capacity = _My_data._Myres;

  00036	8b 45 f4	 mov	 eax, DWORD PTR __My_data$[ebp]
  00039	8b 40 14	 mov	 eax, DWORD PTR [eax+20]
  0003c	89 45 dc	 mov	 DWORD PTR __Old_capacity$[ebp], eax

; 4298 :         return _Calculate_growth(_Requested, _Mypair._Myval2._Myres, max_size());

  0003f	8b 4d ec	 mov	 ecx, DWORD PTR _this$[ebp]
  00042	e8 00 00 00 00	 call	 ?max_size@?$basic_string@DU?$char_traits@D@std@@V?$allocator@D@2@@std@@QBEIXZ ; std::basic_string<char,std::char_traits<char>,std::allocator<char> >::max_size
  00047	50		 push	 eax
  00048	8b 45 ec	 mov	 eax, DWORD PTR _this$[ebp]
  0004b	ff 70 14	 push	 DWORD PTR [eax+20]
  0004e	ff 75 e4	 push	 DWORD PTR __New_size$[ebp]
  00051	e8 00 00 00 00	 call	 ?_Calculate_growth@?$basic_string@DU?$char_traits@D@std@@V?$allocator@D@2@@std@@CAIIII@Z ; std::basic_string<char,std::char_traits<char>,std::allocator<char> >::_Calculate_growth
  00056	83 c4 0c	 add	 esp, 12			; 0000000cH
  00059	89 45 e0	 mov	 DWORD PTR __New_capacity$[ebp], eax

; 4409 :         return _Mypair._Get_first();

  0005c	8b 45 ec	 mov	 eax, DWORD PTR _this$[ebp]
; File C:\Program Files (x86)\Microsoft Visual Studio\2019\Community\VC\Tools\MSVC\14.28.29333\include\xmemory

; 1347 :         return *this;

  0005f	89 45 d4	 mov	 DWORD PTR $T2[ebp], eax
; File C:\Program Files (x86)\Microsoft Visual Studio\2019\Community\VC\Tools\MSVC\14.28.29333\include\xstring

; 4409 :         return _Mypair._Get_first();

  00062	8b 45 d4	 mov	 eax, DWORD PTR $T2[ebp]
  00065	89 45 c0	 mov	 DWORD PTR __Al$[ebp], eax
; File C:\Program Files (x86)\Microsoft Visual Studio\2019\Community\VC\Tools\MSVC\14.28.29333\include\xmemory

; 56   :     constexpr bool _Overflow_is_possible = _Ty_size > 1;

  00068	c6 45 fd 00	 mov	 BYTE PTR __Overflow_is_possible$4[ebp], 0
; File C:\Program Files (x86)\Microsoft Visual Studio\2019\Community\VC\Tools\MSVC\14.28.29333\include\xstring

; 4341 :         const pointer _New_ptr        = _Al.allocate(_New_capacity + 1); // throws

  0006c	8b 45 e0	 mov	 eax, DWORD PTR __New_capacity$[ebp]
  0006f	40		 inc	 eax
; File C:\Program Files (x86)\Microsoft Visual Studio\2019\Community\VC\Tools\MSVC\14.28.29333\include\xmemory

; 814  :         return static_cast<_Ty*>(_Allocate<_New_alignof<_Ty>>(_Get_size_of_n<sizeof(_Ty)>(_Count)));

  00070	50		 push	 eax
  00071	e8 00 00 00 00	 call	 ??$_Allocate@$07U_Default_allocate_traits@std@@$0A@@std@@YAPAXI@Z ; std::_Allocate<8,std::_Default_allocate_traits,0>
  00076	59		 pop	 ecx
; File C:\Program Files (x86)\Microsoft Visual Studio\2019\Community\VC\Tools\MSVC\14.28.29333\include\xstring

; 4341 :         const pointer _New_ptr        = _Al.allocate(_New_capacity + 1); // throws

  00077	89 45 e8	 mov	 DWORD PTR __New_ptr$[ebp], eax

; 4342 :         _My_data._Orphan_all();
; 4343 :         _My_data._Mysize      = _New_size;

  0007a	8b 45 f4	 mov	 eax, DWORD PTR __My_data$[ebp]
  0007d	8b 4d e4	 mov	 ecx, DWORD PTR __New_size$[ebp]
  00080	89 48 10	 mov	 DWORD PTR [eax+16], ecx

; 4344 :         _My_data._Myres       = _New_capacity;

  00083	8b 45 f4	 mov	 eax, DWORD PTR __My_data$[ebp]
  00086	8b 4d e0	 mov	 ecx, DWORD PTR __New_capacity$[ebp]
  00089	89 48 14	 mov	 DWORD PTR [eax+20], ecx

; 4345 :         _Elem* const _Raw_new = _Unfancy(_New_ptr);

  0008c	8b 45 e8	 mov	 eax, DWORD PTR __New_ptr$[ebp]
  0008f	89 45 d0	 mov	 DWORD PTR __Ptr$[ebp], eax
; File C:\Program Files (x86)\Microsoft Visual Studio\2019\Community\VC\Tools\MSVC\14.28.29333\include\xstddef

; 289  :     return _Ptr;

  00092	8b 45 d0	 mov	 eax, DWORD PTR __Ptr$[ebp]
  00095	89 45 f0	 mov	 DWORD PTR __Raw_new$[ebp], eax
; File C:\Program Files (x86)\Microsoft Visual Studio\2019\Community\VC\Tools\MSVC\14.28.29333\include\xstring

; 4346 :         if (_BUF_SIZE <= _Old_capacity) {

  00098	83 7d dc 10	 cmp	 DWORD PTR __Old_capacity$[ebp], 16 ; 00000010H
  0009c	72 65		 jb	 SHORT $LN3@Reallocate

; 4347 :             const pointer _Old_ptr = _My_data._Bx._Ptr;

  0009e	8b 45 f4	 mov	 eax, DWORD PTR __My_data$[ebp]
  000a1	8b 00		 mov	 eax, DWORD PTR [eax]
  000a3	89 45 d8	 mov	 DWORD PTR __Old_ptr$3[ebp], eax
; File C:\Program Files (x86)\Microsoft Visual Studio\2019\Community\VC\Tools\MSVC\14.28.29333\include\xstddef

; 289  :     return _Ptr;

  000a6	8b 45 d8	 mov	 eax, DWORD PTR __Old_ptr$3[ebp]
  000a9	89 45 cc	 mov	 DWORD PTR $T1[ebp], eax
; File C:\Program Files (x86)\Microsoft Visual Studio\2019\Community\VC\Tools\MSVC\14.28.29333\include\xstring

; 62   :         _CSTD memcpy(_First1, _First2, _Count * sizeof(_Elem));

  000ac	ff 75 f8	 push	 DWORD PTR __Old_size$[ebp]
  000af	ff 75 cc	 push	 DWORD PTR $T1[ebp]
  000b2	ff 75 f0	 push	 DWORD PTR __Raw_new$[ebp]
  000b5	e8 00 00 00 00	 call	 _memcpy
  000ba	83 c4 0c	 add	 esp, 12			; 0000000cH

; 2951 :                 _Traits::copy(_New_ptr + _Old_size, _Ptr, _Count);

  000bd	8b 45 f0	 mov	 eax, DWORD PTR __Raw_new$[ebp]
  000c0	03 45 f8	 add	 eax, DWORD PTR __Old_size$[ebp]
  000c3	89 45 c8	 mov	 DWORD PTR __First1$[ebp], eax

; 62   :         _CSTD memcpy(_First1, _First2, _Count * sizeof(_Elem));

  000c6	ff 75 14	 push	 DWORD PTR _<_Args_1>$[ebp]
  000c9	ff 75 10	 push	 DWORD PTR _<_Args_0>$[ebp]
  000cc	ff 75 c8	 push	 DWORD PTR __First1$[ebp]
  000cf	e8 00 00 00 00	 call	 _memcpy
  000d4	83 c4 0c	 add	 esp, 12			; 0000000cH

; 2952 :                 _Traits::assign(_New_ptr[_Old_size + _Count], _Elem());

  000d7	c6 45 ff 00	 mov	 BYTE PTR $T6[ebp], 0
  000db	8b 45 f8	 mov	 eax, DWORD PTR __Old_size$[ebp]
  000de	03 45 14	 add	 eax, DWORD PTR _<_Args_1>$[ebp]

; 428  :         _Left = _Right;

  000e1	8b 4d f0	 mov	 ecx, DWORD PTR __Raw_new$[ebp]
  000e4	8a 55 ff	 mov	 dl, BYTE PTR $T6[ebp]
  000e7	88 14 01	 mov	 BYTE PTR [ecx+eax], dl

; 4348 :             _Fn(_Raw_new, _Unfancy(_Old_ptr), _Old_size, _Args...);
; 4349 :             _Al.deallocate(_Old_ptr, _Old_capacity + 1);

  000ea	8b 45 dc	 mov	 eax, DWORD PTR __Old_capacity$[ebp]
  000ed	40		 inc	 eax
; File C:\Program Files (x86)\Microsoft Visual Studio\2019\Community\VC\Tools\MSVC\14.28.29333\include\xmemory

; 810  :         _Deallocate<_New_alignof<_Ty>>(_Ptr, sizeof(_Ty) * _Count);

  000ee	50		 push	 eax
  000ef	ff 75 d8	 push	 DWORD PTR __Old_ptr$3[ebp]
  000f2	e8 00 00 00 00	 call	 ??$_Deallocate@$07$0A@@std@@YAXPAXI@Z ; std::_Deallocate<8,0>
  000f7	59		 pop	 ecx
  000f8	59		 pop	 ecx
; File C:\Program Files (x86)\Microsoft Visual Studio\2019\Community\VC\Tools\MSVC\14.28.29333\include\xstring

; 4350 :             _My_data._Bx._Ptr = _New_ptr;

  000f9	8b 45 f4	 mov	 eax, DWORD PTR __My_data$[ebp]
  000fc	8b 4d e8	 mov	 ecx, DWORD PTR __New_ptr$[ebp]
  000ff	89 08		 mov	 DWORD PTR [eax], ecx

; 4351 :         } else {

  00101	eb 4c		 jmp	 SHORT $LN4@Reallocate
$LN3@Reallocate:

; 62   :         _CSTD memcpy(_First1, _First2, _Count * sizeof(_Elem));

  00103	ff 75 f8	 push	 DWORD PTR __Old_size$[ebp]
  00106	ff 75 f4	 push	 DWORD PTR __My_data$[ebp]
  00109	ff 75 f0	 push	 DWORD PTR __Raw_new$[ebp]
  0010c	e8 00 00 00 00	 call	 _memcpy
  00111	83 c4 0c	 add	 esp, 12			; 0000000cH

; 2951 :                 _Traits::copy(_New_ptr + _Old_size, _Ptr, _Count);

  00114	8b 45 f0	 mov	 eax, DWORD PTR __Raw_new$[ebp]
  00117	03 45 f8	 add	 eax, DWORD PTR __Old_size$[ebp]
  0011a	89 45 c4	 mov	 DWORD PTR __First1$[ebp], eax

; 62   :         _CSTD memcpy(_First1, _First2, _Count * sizeof(_Elem));

  0011d	ff 75 14	 push	 DWORD PTR _<_Args_1>$[ebp]
  00120	ff 75 10	 push	 DWORD PTR _<_Args_0>$[ebp]
  00123	ff 75 c4	 push	 DWORD PTR __First1$[ebp]
  00126	e8 00 00 00 00	 call	 _memcpy
  0012b	83 c4 0c	 add	 esp, 12			; 0000000cH

; 2952 :                 _Traits::assign(_New_ptr[_Old_size + _Count], _Elem());

  0012e	c6 45 fe 00	 mov	 BYTE PTR $T5[ebp], 0
  00132	8b 45 f8	 mov	 eax, DWORD PTR __Old_size$[ebp]
  00135	03 45 14	 add	 eax, DWORD PTR _<_Args_1>$[ebp]

; 428  :         _Left = _Right;

  00138	8b 4d f0	 mov	 ecx, DWORD PTR __Raw_new$[ebp]
  0013b	8a 55 fe	 mov	 dl, BYTE PTR $T5[ebp]
  0013e	88 14 01	 mov	 BYTE PTR [ecx+eax], dl

; 4352 :             _Fn(_Raw_new, _My_data._Bx._Buf, _Old_size, _Args...);
; 4353 :             _Construct_in_place(_My_data._Bx._Ptr, _New_ptr);

  00141	8d 45 e8	 lea	 eax, DWORD PTR __New_ptr$[ebp]
  00144	50		 push	 eax
  00145	ff 75 f4	 push	 DWORD PTR __My_data$[ebp]
  00148	e8 00 00 00 00	 call	 ??$_Construct_in_place@PADABQAD@std@@YAXAAPADABQAD@Z ; std::_Construct_in_place<char *,char * const &>
  0014d	59		 pop	 ecx
  0014e	59		 pop	 ecx
$LN4@Reallocate:

; 4354 :         }
; 4355 : 
; 4356 :         return *this;

  0014f	8b 45 ec	 mov	 eax, DWORD PTR _this$[ebp]
$LN5@Reallocate:

; 4357 :     }

  00152	c9		 leave
  00153	c2 10 00	 ret	 16			; 00000010H
??$_Reallocate_grow_by@V<lambda_ab246b20b9526e2ef7792587e4298a77>@@PBDI@?$basic_string@DU?$char_traits@D@std@@V?$allocator@D@2@@std@@AAEAAV01@IV<lambda_ab246b20b9526e2ef7792587e4298a77>@@PBDI@Z ENDP ; std::basic_string<char,std::char_traits<char>,std::allocator<char> >::_Reallocate_grow_by<<lambda_ab246b20b9526e2ef7792587e4298a77>,char const *,unsigned int>
_TEXT	ENDS
; Function compile flags: /Odspy
; File C:\Program Files (x86)\Microsoft Visual Studio\2019\Community\VC\Tools\MSVC\14.28.29333\include\xstring
; File C:\Program Files (x86)\Microsoft Visual Studio\2019\Community\VC\Tools\MSVC\14.28.29333\include\xmemory
; File C:\Program Files (x86)\Microsoft Visual Studio\2019\Community\VC\Tools\MSVC\14.28.29333\include\xstring
; File C:\Program Files (x86)\Microsoft Visual Studio\2019\Community\VC\Tools\MSVC\14.28.29333\include\xmemory
; File C:\Program Files (x86)\Microsoft Visual Studio\2019\Community\VC\Tools\MSVC\14.28.29333\include\xstring
; File C:\Program Files (x86)\Microsoft Visual Studio\2019\Community\VC\Tools\MSVC\14.28.29333\include\xmemory
; File C:\Program Files (x86)\Microsoft Visual Studio\2019\Community\VC\Tools\MSVC\14.28.29333\include\xstring
; File C:\Program Files (x86)\Microsoft Visual Studio\2019\Community\VC\Tools\MSVC\14.28.29333\include\xstddef
; File C:\Program Files (x86)\Microsoft Visual Studio\2019\Community\VC\Tools\MSVC\14.28.29333\include\xstring
; File C:\Program Files (x86)\Microsoft Visual Studio\2019\Community\VC\Tools\MSVC\14.28.29333\include\xmemory
; File C:\Program Files (x86)\Microsoft Visual Studio\2019\Community\VC\Tools\MSVC\14.28.29333\include\xstring
;	COMDAT ??$_Reallocate_for@V<lambda_9366063389c5f42a00a5088cf24e69de>@@PBD@?$basic_string@DU?$char_traits@D@std@@V?$allocator@D@2@@std@@AAEAAV01@IV<lambda_9366063389c5f42a00a5088cf24e69de>@@PBD@Z
_TEXT	SEGMENT
__Al$ = -40						; size = 4
__Ptr$ = -36						; size = 4
__Ptr$ = -32						; size = 4
$T1 = -28						; size = 4
__Old_capacity$ = -24					; size = 4
$T2 = -20						; size = 4
__New_capacity$ = -16					; size = 4
__New_ptr$ = -12					; size = 4
_this$ = -8						; size = 4
__Overflow_is_possible$3 = -2				; size = 1
$T4 = -1						; size = 1
__New_size$ = 8						; size = 4
__Fn$ = 12						; size = 1
_<_Args_0>$ = 16					; size = 4
??$_Reallocate_for@V<lambda_9366063389c5f42a00a5088cf24e69de>@@PBD@?$basic_string@DU?$char_traits@D@std@@V?$allocator@D@2@@std@@AAEAAV01@IV<lambda_9366063389c5f42a00a5088cf24e69de>@@PBD@Z PROC ; std::basic_string<char,std::char_traits<char>,std::allocator<char> >::_Reallocate_for<<lambda_9366063389c5f42a00a5088cf24e69de>,char const *>, COMDAT
; _this$ = ecx

; 4302 :     basic_string& _Reallocate_for(const size_type _New_size, _Fty _Fn, _ArgTys... _Args) {

  00000	55		 push	 ebp
  00001	8b ec		 mov	 ebp, esp
  00003	83 ec 28	 sub	 esp, 40			; 00000028H
  00006	89 4d f8	 mov	 DWORD PTR _this$[ebp], ecx

; 4303 :         // reallocate to store exactly _New_size elements, new buffer prepared by
; 4304 :         // _Fn(_New_ptr, _New_size, _Args...)
; 4305 :         if (_New_size > max_size()) {

  00009	8b 4d f8	 mov	 ecx, DWORD PTR _this$[ebp]
  0000c	e8 00 00 00 00	 call	 ?max_size@?$basic_string@DU?$char_traits@D@std@@V?$allocator@D@2@@std@@QBEIXZ ; std::basic_string<char,std::char_traits<char>,std::allocator<char> >::max_size
  00011	39 45 08	 cmp	 DWORD PTR __New_size$[ebp], eax
  00014	76 05		 jbe	 SHORT $LN2@Reallocate

; 4306 :             _Xlen_string(); // result too long

  00016	e8 00 00 00 00	 call	 ?_Xlen_string@std@@YAXXZ ; std::_Xlen_string
$LN2@Reallocate:

; 4307 :         }
; 4308 : 
; 4309 :         const size_type _Old_capacity = _Mypair._Myval2._Myres;

  0001b	8b 45 f8	 mov	 eax, DWORD PTR _this$[ebp]
  0001e	8b 40 14	 mov	 eax, DWORD PTR [eax+20]
  00021	89 45 e8	 mov	 DWORD PTR __Old_capacity$[ebp], eax

; 4310 :         const size_type _New_capacity = _Calculate_growth(_New_size);

  00024	ff 75 08	 push	 DWORD PTR __New_size$[ebp]
  00027	8b 4d f8	 mov	 ecx, DWORD PTR _this$[ebp]
  0002a	e8 00 00 00 00	 call	 ?_Calculate_growth@?$basic_string@DU?$char_traits@D@std@@V?$allocator@D@2@@std@@ABEII@Z ; std::basic_string<char,std::char_traits<char>,std::allocator<char> >::_Calculate_growth
  0002f	89 45 f0	 mov	 DWORD PTR __New_capacity$[ebp], eax

; 4409 :         return _Mypair._Get_first();

  00032	8b 45 f8	 mov	 eax, DWORD PTR _this$[ebp]
; File C:\Program Files (x86)\Microsoft Visual Studio\2019\Community\VC\Tools\MSVC\14.28.29333\include\xmemory

; 1347 :         return *this;

  00035	89 45 e4	 mov	 DWORD PTR $T1[ebp], eax
; File C:\Program Files (x86)\Microsoft Visual Studio\2019\Community\VC\Tools\MSVC\14.28.29333\include\xstring

; 4409 :         return _Mypair._Get_first();

  00038	8b 45 e4	 mov	 eax, DWORD PTR $T1[ebp]
  0003b	89 45 d8	 mov	 DWORD PTR __Al$[ebp], eax
; File C:\Program Files (x86)\Microsoft Visual Studio\2019\Community\VC\Tools\MSVC\14.28.29333\include\xmemory

; 56   :     constexpr bool _Overflow_is_possible = _Ty_size > 1;

  0003e	c6 45 fe 00	 mov	 BYTE PTR __Overflow_is_possible$3[ebp], 0
; File C:\Program Files (x86)\Microsoft Visual Studio\2019\Community\VC\Tools\MSVC\14.28.29333\include\xstring

; 4312 :         const pointer _New_ptr        = _Al.allocate(_New_capacity + 1); // throws

  00042	8b 45 f0	 mov	 eax, DWORD PTR __New_capacity$[ebp]
  00045	40		 inc	 eax
; File C:\Program Files (x86)\Microsoft Visual Studio\2019\Community\VC\Tools\MSVC\14.28.29333\include\xmemory

; 814  :         return static_cast<_Ty*>(_Allocate<_New_alignof<_Ty>>(_Get_size_of_n<sizeof(_Ty)>(_Count)));

  00046	50		 push	 eax
  00047	e8 00 00 00 00	 call	 ??$_Allocate@$07U_Default_allocate_traits@std@@$0A@@std@@YAPAXI@Z ; std::_Allocate<8,std::_Default_allocate_traits,0>
  0004c	59		 pop	 ecx
; File C:\Program Files (x86)\Microsoft Visual Studio\2019\Community\VC\Tools\MSVC\14.28.29333\include\xstring

; 4312 :         const pointer _New_ptr        = _Al.allocate(_New_capacity + 1); // throws

  0004d	89 45 f4	 mov	 DWORD PTR __New_ptr$[ebp], eax

; 4313 :         _Mypair._Myval2._Orphan_all();
; 4314 :         _Mypair._Myval2._Mysize = _New_size;

  00050	8b 45 f8	 mov	 eax, DWORD PTR _this$[ebp]
  00053	8b 4d 08	 mov	 ecx, DWORD PTR __New_size$[ebp]
  00056	89 48 10	 mov	 DWORD PTR [eax+16], ecx

; 4315 :         _Mypair._Myval2._Myres  = _New_capacity;

  00059	8b 45 f8	 mov	 eax, DWORD PTR _this$[ebp]
  0005c	8b 4d f0	 mov	 ecx, DWORD PTR __New_capacity$[ebp]
  0005f	89 48 14	 mov	 DWORD PTR [eax+20], ecx

; 4316 :         _Fn(_Unfancy(_New_ptr), _New_size, _Args...);

  00062	8b 45 f4	 mov	 eax, DWORD PTR __New_ptr$[ebp]
  00065	89 45 e0	 mov	 DWORD PTR __Ptr$[ebp], eax
; File C:\Program Files (x86)\Microsoft Visual Studio\2019\Community\VC\Tools\MSVC\14.28.29333\include\xstddef

; 289  :     return _Ptr;

  00068	8b 45 e0	 mov	 eax, DWORD PTR __Ptr$[ebp]
  0006b	89 45 ec	 mov	 DWORD PTR $T2[ebp], eax
; File C:\Program Files (x86)\Microsoft Visual Studio\2019\Community\VC\Tools\MSVC\14.28.29333\include\xstring

; 62   :         _CSTD memcpy(_First1, _First2, _Count * sizeof(_Elem));

  0006e	ff 75 08	 push	 DWORD PTR __New_size$[ebp]
  00071	ff 75 10	 push	 DWORD PTR _<_Args_0>$[ebp]
  00074	ff 75 ec	 push	 DWORD PTR $T2[ebp]
  00077	e8 00 00 00 00	 call	 _memcpy
  0007c	83 c4 0c	 add	 esp, 12			; 0000000cH

; 3056 :                 _Traits::assign(_New_ptr[_Count], _Elem());

  0007f	c6 45 ff 00	 mov	 BYTE PTR $T4[ebp], 0

; 428  :         _Left = _Right;

  00083	8b 45 ec	 mov	 eax, DWORD PTR $T2[ebp]
  00086	03 45 08	 add	 eax, DWORD PTR __New_size$[ebp]
  00089	8a 4d ff	 mov	 cl, BYTE PTR $T4[ebp]
  0008c	88 08		 mov	 BYTE PTR [eax], cl

; 4317 :         if (_BUF_SIZE <= _Old_capacity) {

  0008e	83 7d e8 10	 cmp	 DWORD PTR __Old_capacity$[ebp], 16 ; 00000010H
  00092	72 21		 jb	 SHORT $LN3@Reallocate

; 4318 :             _Al.deallocate(_Mypair._Myval2._Bx._Ptr, _Old_capacity + 1);

  00094	8b 45 f8	 mov	 eax, DWORD PTR _this$[ebp]
  00097	8b 00		 mov	 eax, DWORD PTR [eax]
  00099	89 45 dc	 mov	 DWORD PTR __Ptr$[ebp], eax
  0009c	8b 45 e8	 mov	 eax, DWORD PTR __Old_capacity$[ebp]
  0009f	40		 inc	 eax
; File C:\Program Files (x86)\Microsoft Visual Studio\2019\Community\VC\Tools\MSVC\14.28.29333\include\xmemory

; 810  :         _Deallocate<_New_alignof<_Ty>>(_Ptr, sizeof(_Ty) * _Count);

  000a0	50		 push	 eax
  000a1	ff 75 dc	 push	 DWORD PTR __Ptr$[ebp]
  000a4	e8 00 00 00 00	 call	 ??$_Deallocate@$07$0A@@std@@YAXPAXI@Z ; std::_Deallocate<8,0>
  000a9	59		 pop	 ecx
  000aa	59		 pop	 ecx
; File C:\Program Files (x86)\Microsoft Visual Studio\2019\Community\VC\Tools\MSVC\14.28.29333\include\xstring

; 4319 :             _Mypair._Myval2._Bx._Ptr = _New_ptr;

  000ab	8b 45 f8	 mov	 eax, DWORD PTR _this$[ebp]
  000ae	8b 4d f4	 mov	 ecx, DWORD PTR __New_ptr$[ebp]
  000b1	89 08		 mov	 DWORD PTR [eax], ecx

; 4320 :         } else {

  000b3	eb 0e		 jmp	 SHORT $LN4@Reallocate
$LN3@Reallocate:

; 4321 :             _Construct_in_place(_Mypair._Myval2._Bx._Ptr, _New_ptr);

  000b5	8d 45 f4	 lea	 eax, DWORD PTR __New_ptr$[ebp]
  000b8	50		 push	 eax
  000b9	ff 75 f8	 push	 DWORD PTR _this$[ebp]
  000bc	e8 00 00 00 00	 call	 ??$_Construct_in_place@PADABQAD@std@@YAXAAPADABQAD@Z ; std::_Construct_in_place<char *,char * const &>
  000c1	59		 pop	 ecx
  000c2	59		 pop	 ecx
$LN4@Reallocate:

; 4322 :         }
; 4323 : 
; 4324 :         return *this;

  000c3	8b 45 f8	 mov	 eax, DWORD PTR _this$[ebp]
$LN5@Reallocate:

; 4325 :     }

  000c6	c9		 leave
  000c7	c2 0c 00	 ret	 12			; 0000000cH
??$_Reallocate_for@V<lambda_9366063389c5f42a00a5088cf24e69de>@@PBD@?$basic_string@DU?$char_traits@D@std@@V?$allocator@D@2@@std@@AAEAAV01@IV<lambda_9366063389c5f42a00a5088cf24e69de>@@PBD@Z ENDP ; std::basic_string<char,std::char_traits<char>,std::allocator<char> >::_Reallocate_for<<lambda_9366063389c5f42a00a5088cf24e69de>,char const *>
_TEXT	ENDS
; Function compile flags: /Odspy
; File C:\Program Files (x86)\Microsoft Visual Studio\2019\Community\VC\Tools\MSVC\14.28.29333\include\xmemory
;	COMDAT ??$_Destroy_in_place@PAD@std@@YAXAAPAD@Z
_TEXT	SEGMENT
__Obj$ = 8						; size = 4
??$_Destroy_in_place@PAD@std@@YAXAAPAD@Z PROC		; std::_Destroy_in_place<char *>, COMDAT

; 270  : /* _CONSTEXPR20_DYNALLOC */ void _Destroy_in_place(_Ty& _Obj) noexcept {

  00000	55		 push	 ebp
  00001	8b ec		 mov	 ebp, esp

; 271  : #if _HAS_IF_CONSTEXPR
; 272  :     if constexpr (is_array_v<_Ty>) {
; 273  :         _Destroy_range(_Obj, _Obj + extent_v<_Ty>);
; 274  :     } else
; 275  : #endif // _HAS_IF_CONSTEXPR
; 276  :     {
; 277  :         _Obj.~_Ty();
; 278  :     }
; 279  : }

  00003	5d		 pop	 ebp
  00004	c3		 ret	 0
??$_Destroy_in_place@PAD@std@@YAXAAPAD@Z ENDP		; std::_Destroy_in_place<char *>
_TEXT	ENDS
; Function compile flags: /Odspy
;	COMDAT ??1?$_Compressed_pair@V?$allocator@D@std@@V?$_String_val@U?$_Simple_types@D@std@@@2@$00@std@@QAE@XZ
_TEXT	SEGMENT
_this$ = -4						; size = 4
??1?$_Compressed_pair@V?$allocator@D@std@@V?$_String_val@U?$_Simple_types@D@std@@@2@$00@std@@QAE@XZ PROC ; std::_Compressed_pair<std::allocator<char>,std::_String_val<std::_Simple_types<char> >,1>::~_Compressed_pair<std::allocator<char>,std::_String_val<std::_Simple_types<char> >,1>, COMDAT
; _this$ = ecx
  00000	55		 push	 ebp
  00001	8b ec		 mov	 ebp, esp
  00003	51		 push	 ecx
  00004	89 4d fc	 mov	 DWORD PTR _this$[ebp], ecx
  00007	c9		 leave
  00008	c3		 ret	 0
??1?$_Compressed_pair@V?$allocator@D@std@@V?$_String_val@U?$_Simple_types@D@std@@@2@$00@std@@QAE@XZ ENDP ; std::_Compressed_pair<std::allocator<char>,std::_String_val<std::_Simple_types<char> >,1>::~_Compressed_pair<std::allocator<char>,std::_String_val<std::_Simple_types<char> >,1>
_TEXT	ENDS
; Function compile flags: /Odspy
; File C:\Program Files (x86)\Microsoft Visual Studio\2019\Community\VC\Tools\MSVC\14.28.29333\include\xstring
; File C:\Program Files (x86)\Microsoft Visual Studio\2019\Community\VC\Tools\MSVC\14.28.29333\include\xmemory
; File C:\Program Files (x86)\Microsoft Visual Studio\2019\Community\VC\Tools\MSVC\14.28.29333\include\xstring
; File C:\Program Files (x86)\Microsoft Visual Studio\2019\Community\VC\Tools\MSVC\14.28.29333\include\xmemory
; File C:\Program Files (x86)\Microsoft Visual Studio\2019\Community\VC\Tools\MSVC\14.28.29333\include\xstring
;	COMDAT ?_Tidy_deallocate@?$basic_string@DU?$char_traits@D@std@@V?$allocator@D@2@@std@@AAEXXZ
_TEXT	SEGMENT
__Al$1 = -28						; size = 4
__Ptr$2 = -24						; size = 4
__Count$ = -20						; size = 4
$T3 = -16						; size = 4
tv68 = -12						; size = 4
_this$ = -8						; size = 4
$T4 = -2						; size = 1
$T5 = -1						; size = 1
?_Tidy_deallocate@?$basic_string@DU?$char_traits@D@std@@V?$allocator@D@2@@std@@AAEXXZ PROC ; std::basic_string<char,std::char_traits<char>,std::allocator<char> >::_Tidy_deallocate, COMDAT
; _this$ = ecx

; 4383 :     void _Tidy_deallocate() noexcept { // initialize buffer, deallocating any storage

  00000	55		 push	 ebp
  00001	8b ec		 mov	 ebp, esp
  00003	83 ec 1c	 sub	 esp, 28			; 0000001cH
  00006	89 4d f8	 mov	 DWORD PTR _this$[ebp], ecx

; 2227 :         return _BUF_SIZE <= _Myres;

  00009	8b 45 f8	 mov	 eax, DWORD PTR _this$[ebp]
  0000c	83 78 14 10	 cmp	 DWORD PTR [eax+20], 16	; 00000010H
  00010	72 09		 jb	 SHORT $LN9@Tidy_deall
  00012	c7 45 f4 01 00
	00 00		 mov	 DWORD PTR tv68[ebp], 1
  00019	eb 04		 jmp	 SHORT $LN10@Tidy_deall
$LN9@Tidy_deall:
  0001b	83 65 f4 00	 and	 DWORD PTR tv68[ebp], 0
$LN10@Tidy_deall:
  0001f	8a 45 f4	 mov	 al, BYTE PTR tv68[ebp]
  00022	88 45 ff	 mov	 BYTE PTR $T5[ebp], al

; 4384 :         _Mypair._Myval2._Orphan_all();
; 4385 :         if (_Mypair._Myval2._Large_string_engaged()) {

  00025	0f b6 45 ff	 movzx	 eax, BYTE PTR $T5[ebp]
  00029	85 c0		 test	 eax, eax
  0002b	74 34		 je	 SHORT $LN2@Tidy_deall

; 4386 :             const pointer _Ptr = _Mypair._Myval2._Bx._Ptr;

  0002d	8b 45 f8	 mov	 eax, DWORD PTR _this$[ebp]
  00030	8b 00		 mov	 eax, DWORD PTR [eax]
  00032	89 45 e8	 mov	 DWORD PTR __Ptr$2[ebp], eax

; 4409 :         return _Mypair._Get_first();

  00035	8b 45 f8	 mov	 eax, DWORD PTR _this$[ebp]
; File C:\Program Files (x86)\Microsoft Visual Studio\2019\Community\VC\Tools\MSVC\14.28.29333\include\xmemory

; 1347 :         return *this;

  00038	89 45 f0	 mov	 DWORD PTR $T3[ebp], eax
; File C:\Program Files (x86)\Microsoft Visual Studio\2019\Community\VC\Tools\MSVC\14.28.29333\include\xstring

; 4409 :         return _Mypair._Get_first();

  0003b	8b 45 f0	 mov	 eax, DWORD PTR $T3[ebp]
  0003e	89 45 e4	 mov	 DWORD PTR __Al$1[ebp], eax

; 4387 :             auto& _Al          = _Getal();
; 4388 :             _Destroy_in_place(_Mypair._Myval2._Bx._Ptr);

  00041	ff 75 f8	 push	 DWORD PTR _this$[ebp]
  00044	e8 00 00 00 00	 call	 ??$_Destroy_in_place@PAD@std@@YAXAAPAD@Z ; std::_Destroy_in_place<char *>
  00049	59		 pop	 ecx

; 4389 :             _Al.deallocate(_Ptr, _Mypair._Myval2._Myres + 1);

  0004a	8b 45 f8	 mov	 eax, DWORD PTR _this$[ebp]
  0004d	8b 40 14	 mov	 eax, DWORD PTR [eax+20]
  00050	40		 inc	 eax
  00051	89 45 ec	 mov	 DWORD PTR __Count$[ebp], eax
; File C:\Program Files (x86)\Microsoft Visual Studio\2019\Community\VC\Tools\MSVC\14.28.29333\include\xmemory

; 810  :         _Deallocate<_New_alignof<_Ty>>(_Ptr, sizeof(_Ty) * _Count);

  00054	ff 75 ec	 push	 DWORD PTR __Count$[ebp]
  00057	ff 75 e8	 push	 DWORD PTR __Ptr$2[ebp]
  0005a	e8 00 00 00 00	 call	 ??$_Deallocate@$07$0A@@std@@YAXPAXI@Z ; std::_Deallocate<8,0>
  0005f	59		 pop	 ecx
  00060	59		 pop	 ecx
$LN2@Tidy_deall:
; File C:\Program Files (x86)\Microsoft Visual Studio\2019\Community\VC\Tools\MSVC\14.28.29333\include\xstring

; 4392 :         _Mypair._Myval2._Mysize = 0;

  00061	8b 45 f8	 mov	 eax, DWORD PTR _this$[ebp]
  00064	83 60 10 00	 and	 DWORD PTR [eax+16], 0

; 4393 :         _Mypair._Myval2._Myres  = _BUF_SIZE - 1;

  00068	8b 45 f8	 mov	 eax, DWORD PTR _this$[ebp]
  0006b	c7 40 14 0f 00
	00 00		 mov	 DWORD PTR [eax+20], 15	; 0000000fH

; 4394 :         // the _Traits::assign is last so the codegen doesn't think the char write can alias this
; 4395 :         _Traits::assign(_Mypair._Myval2._Bx._Buf[0], _Elem());

  00072	c6 45 fe 00	 mov	 BYTE PTR $T4[ebp], 0
  00076	33 c0		 xor	 eax, eax
  00078	40		 inc	 eax
  00079	6b c0 00	 imul	 eax, eax, 0

; 428  :         _Left = _Right;

  0007c	8b 4d f8	 mov	 ecx, DWORD PTR _this$[ebp]
  0007f	8a 55 fe	 mov	 dl, BYTE PTR $T4[ebp]
  00082	88 14 01	 mov	 BYTE PTR [ecx+eax], dl

; 4396 :     }

  00085	c9		 leave
  00086	c3		 ret	 0
?_Tidy_deallocate@?$basic_string@DU?$char_traits@D@std@@V?$allocator@D@2@@std@@AAEXXZ ENDP ; std::basic_string<char,std::char_traits<char>,std::allocator<char> >::_Tidy_deallocate
_TEXT	ENDS
; Function compile flags: /Odspy
; File C:\Program Files (x86)\Microsoft Visual Studio\2019\Community\VC\Tools\MSVC\14.28.29333\include\xstring
;	COMDAT ?_Tidy_init@?$basic_string@DU?$char_traits@D@std@@V?$allocator@D@2@@std@@AAEXXZ
_TEXT	SEGMENT
_this$ = -8						; size = 4
$T1 = -1						; size = 1
?_Tidy_init@?$basic_string@DU?$char_traits@D@std@@V?$allocator@D@2@@std@@AAEXXZ PROC ; std::basic_string<char,std::char_traits<char>,std::allocator<char> >::_Tidy_init, COMDAT
; _this$ = ecx

; 4376 :     void _Tidy_init() noexcept { // initialize basic_string data members

  00000	55		 push	 ebp
  00001	8b ec		 mov	 ebp, esp
  00003	51		 push	 ecx
  00004	51		 push	 ecx
  00005	89 4d f8	 mov	 DWORD PTR _this$[ebp], ecx

; 4377 :         _Mypair._Myval2._Mysize = 0;

  00008	8b 45 f8	 mov	 eax, DWORD PTR _this$[ebp]
  0000b	83 60 10 00	 and	 DWORD PTR [eax+16], 0

; 4378 :         _Mypair._Myval2._Myres  = _BUF_SIZE - 1;

  0000f	8b 45 f8	 mov	 eax, DWORD PTR _this$[ebp]
  00012	c7 40 14 0f 00
	00 00		 mov	 DWORD PTR [eax+20], 15	; 0000000fH

; 4379 :         // the _Traits::assign is last so the codegen doesn't think the char write can alias this
; 4380 :         _Traits::assign(_Mypair._Myval2._Bx._Buf[0], _Elem());

  00019	c6 45 ff 00	 mov	 BYTE PTR $T1[ebp], 0
  0001d	33 c0		 xor	 eax, eax
  0001f	40		 inc	 eax
  00020	6b c0 00	 imul	 eax, eax, 0

; 428  :         _Left = _Right;

  00023	8b 4d f8	 mov	 ecx, DWORD PTR _this$[ebp]
  00026	8a 55 ff	 mov	 dl, BYTE PTR $T1[ebp]
  00029	88 14 01	 mov	 BYTE PTR [ecx+eax], dl

; 4381 :     }

  0002c	c9		 leave
  0002d	c3		 ret	 0
?_Tidy_init@?$basic_string@DU?$char_traits@D@std@@V?$allocator@D@2@@std@@AAEXXZ ENDP ; std::basic_string<char,std::char_traits<char>,std::allocator<char> >::_Tidy_init
_TEXT	ENDS
; Function compile flags: /Odspy
; File C:\Program Files (x86)\Microsoft Visual Studio\2019\Community\VC\Tools\MSVC\14.28.29333\include\xstring
; File C:\Program Files (x86)\Microsoft Visual Studio\2019\Community\VC\Tools\MSVC\14.28.29333\include\utility
; File C:\Program Files (x86)\Microsoft Visual Studio\2019\Community\VC\Tools\MSVC\14.28.29333\include\xstring
;	COMDAT ?_Calculate_growth@?$basic_string@DU?$char_traits@D@std@@V?$allocator@D@2@@std@@ABEII@Z
_TEXT	SEGMENT
$T1 = -36						; size = 4
$T2 = -32						; size = 4
tv93 = -28						; size = 4
$T3 = -24						; size = 4
_this$ = -20						; size = 4
$T4 = -16						; size = 4
__Masked$5 = -12					; size = 4
__Old$ = -8						; size = 4
__Max$ = -4						; size = 4
__Requested$ = 8					; size = 4
?_Calculate_growth@?$basic_string@DU?$char_traits@D@std@@V?$allocator@D@2@@std@@ABEII@Z PROC ; std::basic_string<char,std::char_traits<char>,std::allocator<char> >::_Calculate_growth, COMDAT
; _this$ = ecx

; 4297 :     _NODISCARD size_type _Calculate_growth(const size_type _Requested) const noexcept {

  00000	55		 push	 ebp
  00001	8b ec		 mov	 ebp, esp
  00003	83 ec 24	 sub	 esp, 36			; 00000024H
  00006	89 4d ec	 mov	 DWORD PTR _this$[ebp], ecx

; 4298 :         return _Calculate_growth(_Requested, _Mypair._Myval2._Myres, max_size());

  00009	8b 4d ec	 mov	 ecx, DWORD PTR _this$[ebp]
  0000c	e8 00 00 00 00	 call	 ?max_size@?$basic_string@DU?$char_traits@D@std@@V?$allocator@D@2@@std@@QBEIXZ ; std::basic_string<char,std::char_traits<char>,std::allocator<char> >::max_size
  00011	89 45 fc	 mov	 DWORD PTR __Max$[ebp], eax
  00014	8b 45 ec	 mov	 eax, DWORD PTR _this$[ebp]
  00017	8b 40 14	 mov	 eax, DWORD PTR [eax+20]
  0001a	89 45 f8	 mov	 DWORD PTR __Old$[ebp], eax

; 4285 :         const size_type _Masked = _Requested | _ALLOC_MASK;

  0001d	8b 45 08	 mov	 eax, DWORD PTR __Requested$[ebp]
  00020	83 c8 0f	 or	 eax, 15			; 0000000fH
  00023	89 45 f4	 mov	 DWORD PTR __Masked$5[ebp], eax

; 4286 :         if (_Masked > _Max) { // the mask overflows, settle for max_size()

  00026	8b 45 f4	 mov	 eax, DWORD PTR __Masked$5[ebp]
  00029	3b 45 fc	 cmp	 eax, DWORD PTR __Max$[ebp]
  0002c	76 08		 jbe	 SHORT $LN29@Calculate_

; 4287 :             return _Max;

  0002e	8b 45 fc	 mov	 eax, DWORD PTR __Max$[ebp]
  00031	89 45 f0	 mov	 DWORD PTR $T4[ebp], eax
  00034	eb 4c		 jmp	 SHORT $LN31@Calculate_
$LN29@Calculate_:

; 4288 :         }
; 4289 : 
; 4290 :         if (_Old > _Max - _Old / 2) { // similarly, geometric overflows

  00036	8b 45 f8	 mov	 eax, DWORD PTR __Old$[ebp]
  00039	d1 e8		 shr	 eax, 1
  0003b	8b 4d fc	 mov	 ecx, DWORD PTR __Max$[ebp]
  0003e	2b c8		 sub	 ecx, eax
  00040	39 4d f8	 cmp	 DWORD PTR __Old$[ebp], ecx
  00043	76 08		 jbe	 SHORT $LN30@Calculate_

; 4291 :             return _Max;

  00045	8b 45 fc	 mov	 eax, DWORD PTR __Max$[ebp]
  00048	89 45 f0	 mov	 DWORD PTR $T4[ebp], eax
  0004b	eb 35		 jmp	 SHORT $LN31@Calculate_
$LN30@Calculate_:

; 4294 :         return (_STD max)(_Masked, _Old + _Old / 2);

  0004d	8b 45 f8	 mov	 eax, DWORD PTR __Old$[ebp]
  00050	d1 e8		 shr	 eax, 1
  00052	03 45 f8	 add	 eax, DWORD PTR __Old$[ebp]
  00055	89 45 e8	 mov	 DWORD PTR $T3[ebp], eax
; File C:\Program Files (x86)\Microsoft Visual Studio\2019\Community\VC\Tools\MSVC\14.28.29333\include\utility

; 44   :     return _Left < _Right ? _Right : _Left;

  00058	8b 45 f4	 mov	 eax, DWORD PTR __Masked$5[ebp]
  0005b	3b 45 e8	 cmp	 eax, DWORD PTR $T3[ebp]
  0005e	73 08		 jae	 SHORT $LN35@Calculate_
  00060	8d 45 e8	 lea	 eax, DWORD PTR $T3[ebp]
  00063	89 45 e4	 mov	 DWORD PTR tv93[ebp], eax
  00066	eb 06		 jmp	 SHORT $LN36@Calculate_
$LN35@Calculate_:
  00068	8d 45 f4	 lea	 eax, DWORD PTR __Masked$5[ebp]
  0006b	89 45 e4	 mov	 DWORD PTR tv93[ebp], eax
$LN36@Calculate_:
  0006e	8b 45 e4	 mov	 eax, DWORD PTR tv93[ebp]
  00071	89 45 e0	 mov	 DWORD PTR $T2[ebp], eax
  00074	8b 45 e0	 mov	 eax, DWORD PTR $T2[ebp]
  00077	89 45 dc	 mov	 DWORD PTR $T1[ebp], eax
; File C:\Program Files (x86)\Microsoft Visual Studio\2019\Community\VC\Tools\MSVC\14.28.29333\include\xstring

; 4294 :         return (_STD max)(_Masked, _Old + _Old / 2);

  0007a	8b 45 dc	 mov	 eax, DWORD PTR $T1[ebp]
  0007d	8b 00		 mov	 eax, DWORD PTR [eax]
  0007f	89 45 f0	 mov	 DWORD PTR $T4[ebp], eax
$LN31@Calculate_:

; 4298 :         return _Calculate_growth(_Requested, _Mypair._Myval2._Myres, max_size());

  00082	8b 45 f0	 mov	 eax, DWORD PTR $T4[ebp]

; 4299 :     }

  00085	c9		 leave
  00086	c2 04 00	 ret	 4
?_Calculate_growth@?$basic_string@DU?$char_traits@D@std@@V?$allocator@D@2@@std@@ABEII@Z ENDP ; std::basic_string<char,std::char_traits<char>,std::allocator<char> >::_Calculate_growth
_TEXT	ENDS
; Function compile flags: /Odspy
; File C:\Program Files (x86)\Microsoft Visual Studio\2019\Community\VC\Tools\MSVC\14.28.29333\include\xstring
; File C:\Program Files (x86)\Microsoft Visual Studio\2019\Community\VC\Tools\MSVC\14.28.29333\include\utility
; File C:\Program Files (x86)\Microsoft Visual Studio\2019\Community\VC\Tools\MSVC\14.28.29333\include\xstring
;	COMDAT ?_Calculate_growth@?$basic_string@DU?$char_traits@D@std@@V?$allocator@D@2@@std@@CAIIII@Z
_TEXT	SEGMENT
$T1 = -20						; size = 4
$T2 = -16						; size = 4
tv75 = -12						; size = 4
$T3 = -8						; size = 4
__Masked$ = -4						; size = 4
__Requested$ = 8					; size = 4
__Old$ = 12						; size = 4
__Max$ = 16						; size = 4
?_Calculate_growth@?$basic_string@DU?$char_traits@D@std@@V?$allocator@D@2@@std@@CAIIII@Z PROC ; std::basic_string<char,std::char_traits<char>,std::allocator<char> >::_Calculate_growth, COMDAT

; 4284 :         const size_type _Requested, const size_type _Old, const size_type _Max) noexcept {

  00000	55		 push	 ebp
  00001	8b ec		 mov	 ebp, esp
  00003	83 ec 14	 sub	 esp, 20			; 00000014H

; 4285 :         const size_type _Masked = _Requested | _ALLOC_MASK;

  00006	8b 45 08	 mov	 eax, DWORD PTR __Requested$[ebp]
  00009	83 c8 0f	 or	 eax, 15			; 0000000fH
  0000c	89 45 fc	 mov	 DWORD PTR __Masked$[ebp], eax

; 4286 :         if (_Masked > _Max) { // the mask overflows, settle for max_size()

  0000f	8b 45 fc	 mov	 eax, DWORD PTR __Masked$[ebp]
  00012	3b 45 10	 cmp	 eax, DWORD PTR __Max$[ebp]
  00015	76 05		 jbe	 SHORT $LN2@Calculate_

; 4287 :             return _Max;

  00017	8b 45 10	 mov	 eax, DWORD PTR __Max$[ebp]
  0001a	eb 46		 jmp	 SHORT $LN4@Calculate_
$LN2@Calculate_:

; 4288 :         }
; 4289 : 
; 4290 :         if (_Old > _Max - _Old / 2) { // similarly, geometric overflows

  0001c	8b 45 0c	 mov	 eax, DWORD PTR __Old$[ebp]
  0001f	d1 e8		 shr	 eax, 1
  00021	8b 4d 10	 mov	 ecx, DWORD PTR __Max$[ebp]
  00024	2b c8		 sub	 ecx, eax
  00026	39 4d 0c	 cmp	 DWORD PTR __Old$[ebp], ecx
  00029	76 05		 jbe	 SHORT $LN3@Calculate_

; 4291 :             return _Max;

  0002b	8b 45 10	 mov	 eax, DWORD PTR __Max$[ebp]
  0002e	eb 32		 jmp	 SHORT $LN4@Calculate_
$LN3@Calculate_:

; 4294 :         return (_STD max)(_Masked, _Old + _Old / 2);

  00030	8b 45 0c	 mov	 eax, DWORD PTR __Old$[ebp]
  00033	d1 e8		 shr	 eax, 1
  00035	03 45 0c	 add	 eax, DWORD PTR __Old$[ebp]
  00038	89 45 f8	 mov	 DWORD PTR $T3[ebp], eax
; File C:\Program Files (x86)\Microsoft Visual Studio\2019\Community\VC\Tools\MSVC\14.28.29333\include\utility

; 44   :     return _Left < _Right ? _Right : _Left;

  0003b	8b 45 fc	 mov	 eax, DWORD PTR __Masked$[ebp]
  0003e	3b 45 f8	 cmp	 eax, DWORD PTR $T3[ebp]
  00041	73 08		 jae	 SHORT $LN7@Calculate_
  00043	8d 45 f8	 lea	 eax, DWORD PTR $T3[ebp]
  00046	89 45 f4	 mov	 DWORD PTR tv75[ebp], eax
  00049	eb 06		 jmp	 SHORT $LN8@Calculate_
$LN7@Calculate_:
  0004b	8d 45 fc	 lea	 eax, DWORD PTR __Masked$[ebp]
  0004e	89 45 f4	 mov	 DWORD PTR tv75[ebp], eax
$LN8@Calculate_:
  00051	8b 45 f4	 mov	 eax, DWORD PTR tv75[ebp]
  00054	89 45 f0	 mov	 DWORD PTR $T2[ebp], eax
  00057	8b 45 f0	 mov	 eax, DWORD PTR $T2[ebp]
  0005a	89 45 ec	 mov	 DWORD PTR $T1[ebp], eax
; File C:\Program Files (x86)\Microsoft Visual Studio\2019\Community\VC\Tools\MSVC\14.28.29333\include\xstring

; 4294 :         return (_STD max)(_Masked, _Old + _Old / 2);

  0005d	8b 45 ec	 mov	 eax, DWORD PTR $T1[ebp]
  00060	8b 00		 mov	 eax, DWORD PTR [eax]
$LN4@Calculate_:

; 4295 :     }

  00062	c9		 leave
  00063	c3		 ret	 0
?_Calculate_growth@?$basic_string@DU?$char_traits@D@std@@V?$allocator@D@2@@std@@CAIIII@Z ENDP ; std::basic_string<char,std::char_traits<char>,std::allocator<char> >::_Calculate_growth
_TEXT	ENDS
; Function compile flags: /Odspy
; File C:\Program Files (x86)\Microsoft Visual Studio\2019\Community\VC\Tools\MSVC\14.28.29333\include\xstring
; File C:\Program Files (x86)\Microsoft Visual Studio\2019\Community\VC\Tools\MSVC\14.28.29333\include\xstddef
; File C:\Program Files (x86)\Microsoft Visual Studio\2019\Community\VC\Tools\MSVC\14.28.29333\include\xstring
; File C:\Program Files (x86)\Microsoft Visual Studio\2019\Community\VC\Tools\MSVC\14.28.29333\include\utility
; File C:\Program Files (x86)\Microsoft Visual Studio\2019\Community\VC\Tools\MSVC\14.28.29333\include\xstring
;	COMDAT ?compare@?$basic_string@DU?$char_traits@D@std@@V?$allocator@D@2@@std@@QBEHQBD@Z
_TEXT	SEGMENT
$T1 = -64						; size = 4
__Count$ = -60						; size = 4
$T2 = -56						; size = 4
$T3 = -52						; size = 4
$T4 = -48						; size = 4
__Ptr$ = -44						; size = 4
__Ans$5 = -40						; size = 4
tv132 = -36						; size = 4
_this$ = -32						; size = 4
__Result$6 = -28					; size = 4
tv91 = -24						; size = 4
_this$ = -20						; size = 4
$T7 = -16						; size = 4
__Right_size$ = -12					; size = 4
__Left_size$ = -8					; size = 4
$T8 = -1						; size = 1
__Ptr$ = 8						; size = 4
?compare@?$basic_string@DU?$char_traits@D@std@@V?$allocator@D@2@@std@@QBEHQBD@Z PROC ; std::basic_string<char,std::char_traits<char>,std::allocator<char> >::compare, COMDAT
; _this$ = ecx

; 4233 :     _NODISCARD int compare(_In_z_ const _Elem* const _Ptr) const noexcept /* strengthened */ {

  00000	55		 push	 ebp
  00001	8b ec		 mov	 ebp, esp
  00003	83 ec 40	 sub	 esp, 64			; 00000040H
  00006	89 4d e0	 mov	 DWORD PTR _this$[ebp], ecx

; 389  :         return _CSTD strlen(reinterpret_cast<const char*>(_First));

  00009	ff 75 08	 push	 DWORD PTR __Ptr$[ebp]
  0000c	e8 00 00 00 00	 call	 _strlen
  00011	59		 pop	 ecx
  00012	89 45 d0	 mov	 DWORD PTR $T4[ebp], eax

; 4234 :         // compare [0, size()) with [_Ptr, <null>)
; 4235 :         return _Traits_compare<_Traits>(_Mypair._Myval2._Myptr(), _Mypair._Myval2._Mysize, _Ptr, _Traits::length(_Ptr));

  00015	8b 45 e0	 mov	 eax, DWORD PTR _this$[ebp]
  00018	89 45 ec	 mov	 DWORD PTR _this$[ebp], eax

; 2218 :         const value_type* _Result = _Bx._Buf;

  0001b	8b 45 ec	 mov	 eax, DWORD PTR _this$[ebp]
  0001e	89 45 e4	 mov	 DWORD PTR __Result$6[ebp], eax

; 2227 :         return _BUF_SIZE <= _Myres;

  00021	8b 45 ec	 mov	 eax, DWORD PTR _this$[ebp]
  00024	83 78 14 10	 cmp	 DWORD PTR [eax+20], 16	; 00000010H
  00028	72 09		 jb	 SHORT $LN12@compare
  0002a	c7 45 e8 01 00
	00 00		 mov	 DWORD PTR tv91[ebp], 1
  00031	eb 04		 jmp	 SHORT $LN13@compare
$LN12@compare:
  00033	83 65 e8 00	 and	 DWORD PTR tv91[ebp], 0
$LN13@compare:
  00037	8a 45 e8	 mov	 al, BYTE PTR tv91[ebp]
  0003a	88 45 ff	 mov	 BYTE PTR $T8[ebp], al

; 2219 :         if (_Large_string_engaged()) {

  0003d	0f b6 45 ff	 movzx	 eax, BYTE PTR $T8[ebp]
  00041	85 c0		 test	 eax, eax
  00043	74 0e		 je	 SHORT $LN7@compare

; 2220 :             _Result = _Unfancy(_Bx._Ptr);

  00045	8b 45 ec	 mov	 eax, DWORD PTR _this$[ebp]
  00048	8b 00		 mov	 eax, DWORD PTR [eax]
  0004a	89 45 d4	 mov	 DWORD PTR __Ptr$[ebp], eax
; File C:\Program Files (x86)\Microsoft Visual Studio\2019\Community\VC\Tools\MSVC\14.28.29333\include\xstddef

; 289  :     return _Ptr;

  0004d	8b 45 d4	 mov	 eax, DWORD PTR __Ptr$[ebp]
  00050	89 45 e4	 mov	 DWORD PTR __Result$6[ebp], eax
$LN7@compare:
; File C:\Program Files (x86)\Microsoft Visual Studio\2019\Community\VC\Tools\MSVC\14.28.29333\include\xstring

; 2223 :         return _Result;

  00053	8b 45 e4	 mov	 eax, DWORD PTR __Result$6[ebp]
  00056	89 45 c0	 mov	 DWORD PTR $T1[ebp], eax

; 4234 :         // compare [0, size()) with [_Ptr, <null>)
; 4235 :         return _Traits_compare<_Traits>(_Mypair._Myval2._Myptr(), _Mypair._Myval2._Mysize, _Ptr, _Traits::length(_Ptr));

  00059	8b 45 d0	 mov	 eax, DWORD PTR $T4[ebp]
  0005c	89 45 f4	 mov	 DWORD PTR __Right_size$[ebp], eax
  0005f	8b 45 e0	 mov	 eax, DWORD PTR _this$[ebp]
  00062	8b 40 10	 mov	 eax, DWORD PTR [eax+16]
  00065	89 45 f8	 mov	 DWORD PTR __Left_size$[ebp], eax
; File C:\Program Files (x86)\Microsoft Visual Studio\2019\Community\VC\Tools\MSVC\14.28.29333\include\utility

; 68   :     return _Right < _Left ? _Right : _Left;

  00068	8b 45 f4	 mov	 eax, DWORD PTR __Right_size$[ebp]
  0006b	3b 45 f8	 cmp	 eax, DWORD PTR __Left_size$[ebp]
  0006e	73 08		 jae	 SHORT $LN26@compare
  00070	8d 45 f4	 lea	 eax, DWORD PTR __Right_size$[ebp]
  00073	89 45 dc	 mov	 DWORD PTR tv132[ebp], eax
  00076	eb 06		 jmp	 SHORT $LN27@compare
$LN26@compare:
  00078	8d 45 f8	 lea	 eax, DWORD PTR __Left_size$[ebp]
  0007b	89 45 dc	 mov	 DWORD PTR tv132[ebp], eax
$LN27@compare:
  0007e	8b 45 dc	 mov	 eax, DWORD PTR tv132[ebp]
  00081	89 45 cc	 mov	 DWORD PTR $T3[ebp], eax
  00084	8b 45 cc	 mov	 eax, DWORD PTR $T3[ebp]
  00087	89 45 c8	 mov	 DWORD PTR $T2[ebp], eax
; File C:\Program Files (x86)\Microsoft Visual Studio\2019\Community\VC\Tools\MSVC\14.28.29333\include\xstring

; 568  :     const int _Ans = _Traits::compare(_Left, _Right, (_STD min)(_Left_size, _Right_size));

  0008a	8b 45 c8	 mov	 eax, DWORD PTR $T2[ebp]
  0008d	8b 00		 mov	 eax, DWORD PTR [eax]
  0008f	89 45 c4	 mov	 DWORD PTR __Count$[ebp], eax

; 369  :         return _CSTD memcmp(_First1, _First2, _Count);

  00092	ff 75 c4	 push	 DWORD PTR __Count$[ebp]
  00095	ff 75 08	 push	 DWORD PTR __Ptr$[ebp]
  00098	ff 75 c0	 push	 DWORD PTR $T1[ebp]
  0009b	e8 00 00 00 00	 call	 _memcmp
  000a0	83 c4 0c	 add	 esp, 12			; 0000000cH
  000a3	89 45 d8	 mov	 DWORD PTR __Ans$5[ebp], eax

; 570  :     if (_Ans != 0) {

  000a6	83 7d d8 00	 cmp	 DWORD PTR __Ans$5[ebp], 0
  000aa	74 08		 je	 SHORT $LN19@compare

; 571  :         return _Ans;

  000ac	8b 45 d8	 mov	 eax, DWORD PTR __Ans$5[ebp]
  000af	89 45 f0	 mov	 DWORD PTR $T7[ebp], eax
  000b2	eb 23		 jmp	 SHORT $LN22@compare
$LN19@compare:

; 572  :     }
; 573  : 
; 574  :     if (_Left_size < _Right_size) {

  000b4	8b 45 f8	 mov	 eax, DWORD PTR __Left_size$[ebp]
  000b7	3b 45 f4	 cmp	 eax, DWORD PTR __Right_size$[ebp]
  000ba	73 06		 jae	 SHORT $LN20@compare

; 575  :         return -1;

  000bc	83 4d f0 ff	 or	 DWORD PTR $T7[ebp], -1
  000c0	eb 15		 jmp	 SHORT $LN22@compare
$LN20@compare:

; 576  :     }
; 577  : 
; 578  :     if (_Left_size > _Right_size) {

  000c2	8b 45 f8	 mov	 eax, DWORD PTR __Left_size$[ebp]
  000c5	3b 45 f4	 cmp	 eax, DWORD PTR __Right_size$[ebp]
  000c8	76 09		 jbe	 SHORT $LN21@compare

; 579  :         return 1;

  000ca	c7 45 f0 01 00
	00 00		 mov	 DWORD PTR $T7[ebp], 1
  000d1	eb 04		 jmp	 SHORT $LN22@compare
$LN21@compare:

; 580  :     }
; 581  : 
; 582  :     return 0;

  000d3	83 65 f0 00	 and	 DWORD PTR $T7[ebp], 0
$LN22@compare:

; 4234 :         // compare [0, size()) with [_Ptr, <null>)
; 4235 :         return _Traits_compare<_Traits>(_Mypair._Myval2._Myptr(), _Mypair._Myval2._Mysize, _Ptr, _Traits::length(_Ptr));

  000d7	8b 45 f0	 mov	 eax, DWORD PTR $T7[ebp]

; 4236 :     }

  000da	c9		 leave
  000db	c2 04 00	 ret	 4
?compare@?$basic_string@DU?$char_traits@D@std@@V?$allocator@D@2@@std@@QBEHQBD@Z ENDP ; std::basic_string<char,std::char_traits<char>,std::allocator<char> >::compare
_TEXT	ENDS
; Function compile flags: /Odspy
; File C:\Program Files (x86)\Microsoft Visual Studio\2019\Community\VC\Tools\MSVC\14.28.29333\include\xstring
; File C:\Program Files (x86)\Microsoft Visual Studio\2019\Community\VC\Tools\MSVC\14.28.29333\include\xmemory
; File C:\Program Files (x86)\Microsoft Visual Studio\2019\Community\VC\Tools\MSVC\14.28.29333\include\xstring
; File C:\Program Files (x86)\Microsoft Visual Studio\2019\Community\VC\Tools\MSVC\14.28.29333\include\xmemory
; File C:\Program Files (x86)\Microsoft Visual Studio\2019\Community\VC\Tools\MSVC\14.28.29333\include\xstring
; File C:\Program Files (x86)\Microsoft Visual Studio\2019\Community\VC\Tools\MSVC\14.28.29333\include\utility
; File C:\Program Files (x86)\Microsoft Visual Studio\2019\Community\VC\Tools\MSVC\14.28.29333\include\xstring
; File C:\Program Files (x86)\Microsoft Visual Studio\2019\Community\VC\Tools\MSVC\14.28.29333\include\limits
; File C:\Program Files (x86)\Microsoft Visual Studio\2019\Community\VC\Tools\MSVC\14.28.29333\include\xstring
; File C:\Program Files (x86)\Microsoft Visual Studio\2019\Community\VC\Tools\MSVC\14.28.29333\include\utility
; File C:\Program Files (x86)\Microsoft Visual Studio\2019\Community\VC\Tools\MSVC\14.28.29333\include\xstring
;	COMDAT ?max_size@?$basic_string@DU?$char_traits@D@std@@V?$allocator@D@2@@std@@QBEIXZ
_TEXT	SEGMENT
$T1 = -60						; size = 4
$T2 = -56						; size = 4
$T3 = -52						; size = 4
$T4 = -48						; size = 4
__Storage_max$ = -44					; size = 4
$T5 = -40						; size = 4
$T6 = -36						; size = 4
$T7 = -32						; size = 4
_this$ = -28						; size = 4
tv70 = -24						; size = 4
$T8 = -20						; size = 4
$T9 = -16						; size = 4
tv67 = -12						; size = 4
__Alloc_max$ = -8					; size = 4
$T10 = -4						; size = 4
?max_size@?$basic_string@DU?$char_traits@D@std@@V?$allocator@D@2@@std@@QBEIXZ PROC ; std::basic_string<char,std::char_traits<char>,std::allocator<char> >::max_size, COMDAT
; _this$ = ecx

; 3773 :     _NODISCARD size_type max_size() const noexcept {

  00000	55		 push	 ebp
  00001	8b ec		 mov	 ebp, esp
  00003	83 ec 3c	 sub	 esp, 60			; 0000003cH
  00006	89 4d e4	 mov	 DWORD PTR _this$[ebp], ecx

; 4413 :         return _Mypair._Get_first();

  00009	8b 45 e4	 mov	 eax, DWORD PTR _this$[ebp]
; File C:\Program Files (x86)\Microsoft Visual Studio\2019\Community\VC\Tools\MSVC\14.28.29333\include\xmemory

; 1351 :         return *this;

  0000c	89 45 e0	 mov	 DWORD PTR $T7[ebp], eax
; File C:\Program Files (x86)\Microsoft Visual Studio\2019\Community\VC\Tools\MSVC\14.28.29333\include\xstring

; 4413 :         return _Mypair._Get_first();

  0000f	8b 45 e0	 mov	 eax, DWORD PTR $T7[ebp]
  00012	89 45 c4	 mov	 DWORD PTR $T1[ebp], eax
; File C:\Program Files (x86)\Microsoft Visual Studio\2019\Community\VC\Tools\MSVC\14.28.29333\include\xmemory

; 710  :         return static_cast<size_t>(-1) / sizeof(value_type);

  00015	83 4d f8 ff	 or	 DWORD PTR __Alloc_max$[ebp], -1
; File C:\Program Files (x86)\Microsoft Visual Studio\2019\Community\VC\Tools\MSVC\14.28.29333\include\xstring

; 3775 :         const size_type _Storage_max = // can always store small string

  00019	c7 45 fc 10 00
	00 00		 mov	 DWORD PTR $T10[ebp], 16	; 00000010H
; File C:\Program Files (x86)\Microsoft Visual Studio\2019\Community\VC\Tools\MSVC\14.28.29333\include\utility

; 44   :     return _Left < _Right ? _Right : _Left;

  00020	8b 45 f8	 mov	 eax, DWORD PTR __Alloc_max$[ebp]
  00023	3b 45 fc	 cmp	 eax, DWORD PTR $T10[ebp]
  00026	73 08		 jae	 SHORT $LN14@max_size
  00028	8d 45 fc	 lea	 eax, DWORD PTR $T10[ebp]
  0002b	89 45 f4	 mov	 DWORD PTR tv67[ebp], eax
  0002e	eb 06		 jmp	 SHORT $LN15@max_size
$LN14@max_size:
  00030	8d 45 f8	 lea	 eax, DWORD PTR __Alloc_max$[ebp]
  00033	89 45 f4	 mov	 DWORD PTR tv67[ebp], eax
$LN15@max_size:
  00036	8b 45 f4	 mov	 eax, DWORD PTR tv67[ebp]
  00039	89 45 dc	 mov	 DWORD PTR $T6[ebp], eax
  0003c	8b 45 dc	 mov	 eax, DWORD PTR $T6[ebp]
  0003f	89 45 d8	 mov	 DWORD PTR $T5[ebp], eax
; File C:\Program Files (x86)\Microsoft Visual Studio\2019\Community\VC\Tools\MSVC\14.28.29333\include\xstring

; 3775 :         const size_type _Storage_max = // can always store small string

  00042	8b 45 d8	 mov	 eax, DWORD PTR $T5[ebp]
  00045	8b 00		 mov	 eax, DWORD PTR [eax]
  00047	89 45 d4	 mov	 DWORD PTR __Storage_max$[ebp], eax

; 3777 :         return (_STD min)(static_cast<size_type>((numeric_limits<difference_type>::max)()),

  0004a	8b 45 d4	 mov	 eax, DWORD PTR __Storage_max$[ebp]
  0004d	48		 dec	 eax
  0004e	89 45 f0	 mov	 DWORD PTR $T9[ebp], eax
; File C:\Program Files (x86)\Microsoft Visual Studio\2019\Community\VC\Tools\MSVC\14.28.29333\include\limits

; 557  :         return INT_MAX;

  00051	c7 45 d0 ff ff
	ff 7f		 mov	 DWORD PTR $T4[ebp], 2147483647 ; 7fffffffH
; File C:\Program Files (x86)\Microsoft Visual Studio\2019\Community\VC\Tools\MSVC\14.28.29333\include\xstring

; 3777 :         return (_STD min)(static_cast<size_type>((numeric_limits<difference_type>::max)()),

  00058	8b 45 d0	 mov	 eax, DWORD PTR $T4[ebp]
  0005b	89 45 ec	 mov	 DWORD PTR $T8[ebp], eax
; File C:\Program Files (x86)\Microsoft Visual Studio\2019\Community\VC\Tools\MSVC\14.28.29333\include\utility

; 68   :     return _Right < _Left ? _Right : _Left;

  0005e	8b 45 f0	 mov	 eax, DWORD PTR $T9[ebp]
  00061	3b 45 ec	 cmp	 eax, DWORD PTR $T8[ebp]
  00064	73 08		 jae	 SHORT $LN22@max_size
  00066	8d 45 f0	 lea	 eax, DWORD PTR $T9[ebp]
  00069	89 45 e8	 mov	 DWORD PTR tv70[ebp], eax
  0006c	eb 06		 jmp	 SHORT $LN23@max_size
$LN22@max_size:
  0006e	8d 45 ec	 lea	 eax, DWORD PTR $T8[ebp]
  00071	89 45 e8	 mov	 DWORD PTR tv70[ebp], eax
$LN23@max_size:
  00074	8b 45 e8	 mov	 eax, DWORD PTR tv70[ebp]
  00077	89 45 cc	 mov	 DWORD PTR $T3[ebp], eax
  0007a	8b 45 cc	 mov	 eax, DWORD PTR $T3[ebp]
  0007d	89 45 c8	 mov	 DWORD PTR $T2[ebp], eax
; File C:\Program Files (x86)\Microsoft Visual Studio\2019\Community\VC\Tools\MSVC\14.28.29333\include\xstring

; 3777 :         return (_STD min)(static_cast<size_type>((numeric_limits<difference_type>::max)()),

  00080	8b 45 c8	 mov	 eax, DWORD PTR $T2[ebp]
  00083	8b 00		 mov	 eax, DWORD PTR [eax]

; 3778 :             _Storage_max - 1 // -1 is for null terminator and/or npos
; 3779 :         );
; 3780 :     }

  00085	c9		 leave
  00086	c3		 ret	 0
?max_size@?$basic_string@DU?$char_traits@D@std@@V?$allocator@D@2@@std@@QBEIXZ ENDP ; std::basic_string<char,std::char_traits<char>,std::allocator<char> >::max_size
_TEXT	ENDS
; Function compile flags: /Odspy
; File C:\Program Files (x86)\Microsoft Visual Studio\2019\Community\VC\Tools\MSVC\14.28.29333\include\xstring
; File C:\Program Files (x86)\Microsoft Visual Studio\2019\Community\VC\Tools\MSVC\14.28.29333\include\xstddef
; File C:\Program Files (x86)\Microsoft Visual Studio\2019\Community\VC\Tools\MSVC\14.28.29333\include\xstring
;	COMDAT ?c_str@?$basic_string@DU?$char_traits@D@std@@V?$allocator@D@2@@std@@QBEPBDXZ
_TEXT	SEGMENT
$T1 = -28						; size = 4
__Ptr$ = -24						; size = 4
_this$ = -20						; size = 4
__Result$2 = -16					; size = 4
tv80 = -12						; size = 4
_this$ = -8						; size = 4
$T3 = -1						; size = 1
?c_str@?$basic_string@DU?$char_traits@D@std@@V?$allocator@D@2@@std@@QBEPBDXZ PROC ; std::basic_string<char,std::char_traits<char>,std::allocator<char> >::c_str, COMDAT
; _this$ = ecx

; 3751 :     _NODISCARD _Ret_z_ const _Elem* c_str() const noexcept {

  00000	55		 push	 ebp
  00001	8b ec		 mov	 ebp, esp
  00003	83 ec 1c	 sub	 esp, 28			; 0000001cH
  00006	89 4d ec	 mov	 DWORD PTR _this$[ebp], ecx

; 3752 :         return _Mypair._Myval2._Myptr();

  00009	8b 45 ec	 mov	 eax, DWORD PTR _this$[ebp]
  0000c	89 45 f8	 mov	 DWORD PTR _this$[ebp], eax

; 2218 :         const value_type* _Result = _Bx._Buf;

  0000f	8b 45 f8	 mov	 eax, DWORD PTR _this$[ebp]
  00012	89 45 f0	 mov	 DWORD PTR __Result$2[ebp], eax

; 2227 :         return _BUF_SIZE <= _Myres;

  00015	8b 45 f8	 mov	 eax, DWORD PTR _this$[ebp]
  00018	83 78 14 10	 cmp	 DWORD PTR [eax+20], 16	; 00000010H
  0001c	72 09		 jb	 SHORT $LN9@c_str
  0001e	c7 45 f4 01 00
	00 00		 mov	 DWORD PTR tv80[ebp], 1
  00025	eb 04		 jmp	 SHORT $LN10@c_str
$LN9@c_str:
  00027	83 65 f4 00	 and	 DWORD PTR tv80[ebp], 0
$LN10@c_str:
  0002b	8a 45 f4	 mov	 al, BYTE PTR tv80[ebp]
  0002e	88 45 ff	 mov	 BYTE PTR $T3[ebp], al

; 2219 :         if (_Large_string_engaged()) {

  00031	0f b6 45 ff	 movzx	 eax, BYTE PTR $T3[ebp]
  00035	85 c0		 test	 eax, eax
  00037	74 0e		 je	 SHORT $LN4@c_str

; 2220 :             _Result = _Unfancy(_Bx._Ptr);

  00039	8b 45 f8	 mov	 eax, DWORD PTR _this$[ebp]
  0003c	8b 00		 mov	 eax, DWORD PTR [eax]
  0003e	89 45 e8	 mov	 DWORD PTR __Ptr$[ebp], eax
; File C:\Program Files (x86)\Microsoft Visual Studio\2019\Community\VC\Tools\MSVC\14.28.29333\include\xstddef

; 289  :     return _Ptr;

  00041	8b 45 e8	 mov	 eax, DWORD PTR __Ptr$[ebp]
  00044	89 45 f0	 mov	 DWORD PTR __Result$2[ebp], eax
$LN4@c_str:
; File C:\Program Files (x86)\Microsoft Visual Studio\2019\Community\VC\Tools\MSVC\14.28.29333\include\xstring

; 2223 :         return _Result;

  00047	8b 45 f0	 mov	 eax, DWORD PTR __Result$2[ebp]
  0004a	89 45 e4	 mov	 DWORD PTR $T1[ebp], eax

; 3752 :         return _Mypair._Myval2._Myptr();

  0004d	8b 45 e4	 mov	 eax, DWORD PTR $T1[ebp]

; 3753 :     }

  00050	c9		 leave
  00051	c3		 ret	 0
?c_str@?$basic_string@DU?$char_traits@D@std@@V?$allocator@D@2@@std@@QBEPBDXZ ENDP ; std::basic_string<char,std::char_traits<char>,std::allocator<char> >::c_str
_TEXT	ENDS
; Function compile flags: /Odspy
; File C:\Program Files (x86)\Microsoft Visual Studio\2019\Community\VC\Tools\MSVC\14.28.29333\include\xstring
;	COMDAT ?assign@?$basic_string@DU?$char_traits@D@std@@V?$allocator@D@2@@std@@QAEAAV12@QBDI@Z
_TEXT	SEGMENT
$T1 = -16						; size = 1
__Old_ptr$2 = -12					; size = 4
_this$ = -8						; size = 4
$T3 = -1						; size = 1
__Ptr$ = 8						; size = 4
__Count$ = 12						; size = 4
?assign@?$basic_string@DU?$char_traits@D@std@@V?$allocator@D@2@@std@@QAEAAV12@QBDI@Z PROC ; std::basic_string<char,std::char_traits<char>,std::allocator<char> >::assign, COMDAT
; _this$ = ecx

; 3042 :     basic_string& assign(_In_reads_(_Count) const _Elem* const _Ptr, _CRT_GUARDOVERFLOW const size_type _Count) {

  00000	55		 push	 ebp
  00001	8b ec		 mov	 ebp, esp
  00003	83 ec 10	 sub	 esp, 16			; 00000010H
  00006	89 4d f8	 mov	 DWORD PTR _this$[ebp], ecx

; 3043 :         // assign [_Ptr, _Ptr + _Count)
; 3044 :         if (_Count <= _Mypair._Myval2._Myres) {

  00009	8b 45 f8	 mov	 eax, DWORD PTR _this$[ebp]
  0000c	8b 4d 0c	 mov	 ecx, DWORD PTR __Count$[ebp]
  0000f	3b 48 14	 cmp	 ecx, DWORD PTR [eax+20]
  00012	77 39		 ja	 SHORT $LN2@assign

; 3045 :             _Elem* const _Old_ptr   = _Mypair._Myval2._Myptr();

  00014	8b 4d f8	 mov	 ecx, DWORD PTR _this$[ebp]
  00017	e8 00 00 00 00	 call	 ?_Myptr@?$_String_val@U?$_Simple_types@D@std@@@std@@QAEPADXZ ; std::_String_val<std::_Simple_types<char> >::_Myptr
  0001c	89 45 f4	 mov	 DWORD PTR __Old_ptr$2[ebp], eax

; 3046 :             _Mypair._Myval2._Mysize = _Count;

  0001f	8b 45 f8	 mov	 eax, DWORD PTR _this$[ebp]
  00022	8b 4d 0c	 mov	 ecx, DWORD PTR __Count$[ebp]
  00025	89 48 10	 mov	 DWORD PTR [eax+16], ecx

; 119  :         _CSTD memmove(_First1, _First2, _Count * sizeof(_Elem));

  00028	ff 75 0c	 push	 DWORD PTR __Count$[ebp]
  0002b	ff 75 08	 push	 DWORD PTR __Ptr$[ebp]
  0002e	ff 75 f4	 push	 DWORD PTR __Old_ptr$2[ebp]
  00031	e8 00 00 00 00	 call	 _memmove
  00036	83 c4 0c	 add	 esp, 12			; 0000000cH

; 3047 :             _Traits::move(_Old_ptr, _Ptr, _Count);
; 3048 :             _Traits::assign(_Old_ptr[_Count], _Elem());

  00039	c6 45 ff 00	 mov	 BYTE PTR $T3[ebp], 0

; 428  :         _Left = _Right;

  0003d	8b 45 f4	 mov	 eax, DWORD PTR __Old_ptr$2[ebp]
  00040	03 45 0c	 add	 eax, DWORD PTR __Count$[ebp]
  00043	8a 4d ff	 mov	 cl, BYTE PTR $T3[ebp]
  00046	88 08		 mov	 BYTE PTR [eax], cl

; 3049 :             return *this;

  00048	8b 45 f8	 mov	 eax, DWORD PTR _this$[ebp]
  0004b	eb 16		 jmp	 SHORT $LN1@assign
$LN2@assign:

; 3050 :         }
; 3051 : 
; 3052 :         return _Reallocate_for(

  0004d	33 c0		 xor	 eax, eax
  0004f	88 45 f0	 mov	 BYTE PTR $T1[ebp], al
  00052	ff 75 08	 push	 DWORD PTR __Ptr$[ebp]
  00055	ff 75 f0	 push	 DWORD PTR $T1[ebp]
  00058	ff 75 0c	 push	 DWORD PTR __Count$[ebp]
  0005b	8b 4d f8	 mov	 ecx, DWORD PTR _this$[ebp]
  0005e	e8 00 00 00 00	 call	 ??$_Reallocate_for@V<lambda_9366063389c5f42a00a5088cf24e69de>@@PBD@?$basic_string@DU?$char_traits@D@std@@V?$allocator@D@2@@std@@AAEAAV01@IV<lambda_9366063389c5f42a00a5088cf24e69de>@@PBD@Z ; std::basic_string<char,std::char_traits<char>,std::allocator<char> >::_Reallocate_for<<lambda_9366063389c5f42a00a5088cf24e69de>,char const *>
$LN1@assign:

; 3053 :             _Count,
; 3054 :             [](_Elem* const _New_ptr, const size_type _Count, const _Elem* const _Ptr) {
; 3055 :                 _Traits::copy(_New_ptr, _Ptr, _Count);
; 3056 :                 _Traits::assign(_New_ptr[_Count], _Elem());
; 3057 :             },
; 3058 :             _Ptr);
; 3059 :     }

  00063	c9		 leave
  00064	c2 08 00	 ret	 8
?assign@?$basic_string@DU?$char_traits@D@std@@V?$allocator@D@2@@std@@QAEAAV12@QBDI@Z ENDP ; std::basic_string<char,std::char_traits<char>,std::allocator<char> >::assign
_TEXT	ENDS
; Function compile flags: /Odspy
; File C:\Program Files (x86)\Microsoft Visual Studio\2019\Community\VC\Tools\MSVC\14.28.29333\include\xstring
;	COMDAT ?append@?$basic_string@DU?$char_traits@D@std@@V?$allocator@D@2@@std@@QAEAAV12@QBDI@Z
_TEXT	SEGMENT
$T1 = -24						; size = 1
__First1$ = -20						; size = 4
__Old_ptr$2 = -16					; size = 4
__Old_size$ = -12					; size = 4
_this$ = -8						; size = 4
$T3 = -1						; size = 1
__Ptr$ = 8						; size = 4
__Count$ = 12						; size = 4
?append@?$basic_string@DU?$char_traits@D@std@@V?$allocator@D@2@@std@@QAEAAV12@QBDI@Z PROC ; std::basic_string<char,std::char_traits<char>,std::allocator<char> >::append, COMDAT
; _this$ = ecx

; 2935 :     basic_string& append(_In_reads_(_Count) const _Elem* const _Ptr, _CRT_GUARDOVERFLOW const size_type _Count) {

  00000	55		 push	 ebp
  00001	8b ec		 mov	 ebp, esp
  00003	83 ec 18	 sub	 esp, 24			; 00000018H
  00006	89 4d f8	 mov	 DWORD PTR _this$[ebp], ecx

; 2936 :         // append [_Ptr, _Ptr + _Count)
; 2937 :         const size_type _Old_size = _Mypair._Myval2._Mysize;

  00009	8b 45 f8	 mov	 eax, DWORD PTR _this$[ebp]
  0000c	8b 40 10	 mov	 eax, DWORD PTR [eax+16]
  0000f	89 45 f4	 mov	 DWORD PTR __Old_size$[ebp], eax

; 2938 :         if (_Count <= _Mypair._Myval2._Myres - _Old_size) {

  00012	8b 45 f8	 mov	 eax, DWORD PTR _this$[ebp]
  00015	8b 40 14	 mov	 eax, DWORD PTR [eax+20]
  00018	2b 45 f4	 sub	 eax, DWORD PTR __Old_size$[ebp]
  0001b	39 45 0c	 cmp	 DWORD PTR __Count$[ebp], eax
  0001e	77 49		 ja	 SHORT $LN2@append

; 2939 :             _Mypair._Myval2._Mysize = _Old_size + _Count;

  00020	8b 45 f4	 mov	 eax, DWORD PTR __Old_size$[ebp]
  00023	03 45 0c	 add	 eax, DWORD PTR __Count$[ebp]
  00026	8b 4d f8	 mov	 ecx, DWORD PTR _this$[ebp]
  00029	89 41 10	 mov	 DWORD PTR [ecx+16], eax

; 2940 :             _Elem* const _Old_ptr   = _Mypair._Myval2._Myptr();

  0002c	8b 4d f8	 mov	 ecx, DWORD PTR _this$[ebp]
  0002f	e8 00 00 00 00	 call	 ?_Myptr@?$_String_val@U?$_Simple_types@D@std@@@std@@QAEPADXZ ; std::_String_val<std::_Simple_types<char> >::_Myptr
  00034	89 45 f0	 mov	 DWORD PTR __Old_ptr$2[ebp], eax

; 2941 :             _Traits::move(_Old_ptr + _Old_size, _Ptr, _Count);

  00037	8b 45 f0	 mov	 eax, DWORD PTR __Old_ptr$2[ebp]
  0003a	03 45 f4	 add	 eax, DWORD PTR __Old_size$[ebp]
  0003d	89 45 ec	 mov	 DWORD PTR __First1$[ebp], eax

; 119  :         _CSTD memmove(_First1, _First2, _Count * sizeof(_Elem));

  00040	ff 75 0c	 push	 DWORD PTR __Count$[ebp]
  00043	ff 75 08	 push	 DWORD PTR __Ptr$[ebp]
  00046	ff 75 ec	 push	 DWORD PTR __First1$[ebp]
  00049	e8 00 00 00 00	 call	 _memmove
  0004e	83 c4 0c	 add	 esp, 12			; 0000000cH

; 2942 :             _Traits::assign(_Old_ptr[_Old_size + _Count], _Elem());

  00051	c6 45 ff 00	 mov	 BYTE PTR $T3[ebp], 0
  00055	8b 45 f4	 mov	 eax, DWORD PTR __Old_size$[ebp]
  00058	03 45 0c	 add	 eax, DWORD PTR __Count$[ebp]

; 428  :         _Left = _Right;

  0005b	8b 4d f0	 mov	 ecx, DWORD PTR __Old_ptr$2[ebp]
  0005e	8a 55 ff	 mov	 dl, BYTE PTR $T3[ebp]
  00061	88 14 01	 mov	 BYTE PTR [ecx+eax], dl

; 2943 :             return *this;

  00064	8b 45 f8	 mov	 eax, DWORD PTR _this$[ebp]
  00067	eb 19		 jmp	 SHORT $LN1@append
$LN2@append:

; 2944 :         }
; 2945 : 
; 2946 :         return _Reallocate_grow_by(

  00069	33 c0		 xor	 eax, eax
  0006b	88 45 e8	 mov	 BYTE PTR $T1[ebp], al
  0006e	ff 75 0c	 push	 DWORD PTR __Count$[ebp]
  00071	ff 75 08	 push	 DWORD PTR __Ptr$[ebp]
  00074	ff 75 e8	 push	 DWORD PTR $T1[ebp]
  00077	ff 75 0c	 push	 DWORD PTR __Count$[ebp]
  0007a	8b 4d f8	 mov	 ecx, DWORD PTR _this$[ebp]
  0007d	e8 00 00 00 00	 call	 ??$_Reallocate_grow_by@V<lambda_ab246b20b9526e2ef7792587e4298a77>@@PBDI@?$basic_string@DU?$char_traits@D@std@@V?$allocator@D@2@@std@@AAEAAV01@IV<lambda_ab246b20b9526e2ef7792587e4298a77>@@PBDI@Z ; std::basic_string<char,std::char_traits<char>,std::allocator<char> >::_Reallocate_grow_by<<lambda_ab246b20b9526e2ef7792587e4298a77>,char const *,unsigned int>
$LN1@append:

; 2947 :             _Count,
; 2948 :             [](_Elem* const _New_ptr, const _Elem* const _Old_ptr, const size_type _Old_size, const _Elem* const _Ptr,
; 2949 :                 const size_type _Count) {
; 2950 :                 _Traits::copy(_New_ptr, _Old_ptr, _Old_size);
; 2951 :                 _Traits::copy(_New_ptr + _Old_size, _Ptr, _Count);
; 2952 :                 _Traits::assign(_New_ptr[_Old_size + _Count], _Elem());
; 2953 :             },
; 2954 :             _Ptr, _Count);
; 2955 :     }

  00082	c9		 leave
  00083	c2 08 00	 ret	 8
?append@?$basic_string@DU?$char_traits@D@std@@V?$allocator@D@2@@std@@QAEAAV12@QBDI@Z ENDP ; std::basic_string<char,std::char_traits<char>,std::allocator<char> >::append
_TEXT	ENDS
; Function compile flags: /Odspy
; File C:\Program Files (x86)\Microsoft Visual Studio\2019\Community\VC\Tools\MSVC\14.28.29333\include\xstring
;	COMDAT ??1?$basic_string@DU?$char_traits@D@std@@V?$allocator@D@2@@std@@QAE@XZ
_TEXT	SEGMENT
_this$ = -4						; size = 4
??1?$basic_string@DU?$char_traits@D@std@@V?$allocator@D@2@@std@@QAE@XZ PROC ; std::basic_string<char,std::char_traits<char>,std::allocator<char> >::~basic_string<char,std::char_traits<char>,std::allocator<char> >, COMDAT
; _this$ = ecx

; 2800 :     ~basic_string() noexcept {

  00000	55		 push	 ebp
  00001	8b ec		 mov	 ebp, esp
  00003	51		 push	 ecx
  00004	89 4d fc	 mov	 DWORD PTR _this$[ebp], ecx

; 2801 :         _Tidy_deallocate();

  00007	8b 4d fc	 mov	 ecx, DWORD PTR _this$[ebp]
  0000a	e8 00 00 00 00	 call	 ?_Tidy_deallocate@?$basic_string@DU?$char_traits@D@std@@V?$allocator@D@2@@std@@AAEXXZ ; std::basic_string<char,std::char_traits<char>,std::allocator<char> >::_Tidy_deallocate

; 2802 : #if _ITERATOR_DEBUG_LEVEL != 0
; 2803 :         auto&& _Alproxy          = _GET_PROXY_ALLOCATOR(_Alty, _Getal());
; 2804 :         const auto _To_delete    = _Mypair._Myval2._Myproxy;
; 2805 :         _Mypair._Myval2._Myproxy = nullptr;
; 2806 :         _Delete_plain_internal(_Alproxy, _To_delete);
; 2807 : #endif // _ITERATOR_DEBUG_LEVEL != 0
; 2808 :     }

  0000f	c9		 leave
  00010	c3		 ret	 0
??1?$basic_string@DU?$char_traits@D@std@@V?$allocator@D@2@@std@@QAE@XZ ENDP ; std::basic_string<char,std::char_traits<char>,std::allocator<char> >::~basic_string<char,std::char_traits<char>,std::allocator<char> >
_TEXT	ENDS
; Function compile flags: /Odspy
; File C:\Program Files (x86)\Microsoft Visual Studio\2019\Community\VC\Tools\MSVC\14.28.29333\include\xstring
; File C:\Program Files (x86)\Microsoft Visual Studio\2019\Community\VC\Tools\MSVC\14.28.29333\include\xmemory
; File C:\Program Files (x86)\Microsoft Visual Studio\2019\Community\VC\Tools\MSVC\14.28.29333\include\xstring
; File C:\Program Files (x86)\Microsoft Visual Studio\2019\Community\VC\Tools\MSVC\14.28.29333\include\xmemory
; File C:\Program Files (x86)\Microsoft Visual Studio\2019\Community\VC\Tools\MSVC\14.28.29333\include\xstring
;	COMDAT ??0?$basic_string@DU?$char_traits@D@std@@V?$allocator@D@2@@std@@QAE@QBD@Z
_TEXT	SEGMENT
__Alproxy$ = -40					; size = 4
$T2 = -36						; size = 4
$T3 = -32						; size = 4
_this$ = -28						; size = 4
_this$ = -24						; size = 4
_this$ = -20						; size = 4
_$S6$ = -13						; size = 1
__$EHRec$ = -12						; size = 12
__Ptr$ = 8						; size = 4
??0?$basic_string@DU?$char_traits@D@std@@V?$allocator@D@2@@std@@QAE@QBD@Z PROC ; std::basic_string<char,std::char_traits<char>,std::allocator<char> >::basic_string<char,std::char_traits<char>,std::allocator<char> >, COMDAT
; _this$ = ecx

; 2413 :     basic_string(_In_z_ const _Elem* const _Ptr) : _Mypair(_Zero_then_variadic_args_t{}) {

  00000	55		 push	 ebp
  00001	8b ec		 mov	 ebp, esp
  00003	6a ff		 push	 -1
  00005	68 00 00 00 00	 push	 __ehhandler$??0?$basic_string@DU?$char_traits@D@std@@V?$allocator@D@2@@std@@QAE@QBD@Z
  0000a	64 a1 00 00 00
	00		 mov	 eax, DWORD PTR fs:0
  00010	50		 push	 eax
  00011	83 ec 1c	 sub	 esp, 28			; 0000001cH
  00014	a1 00 00 00 00	 mov	 eax, DWORD PTR ___security_cookie
  00019	33 c5		 xor	 eax, ebp
  0001b	50		 push	 eax
  0001c	8d 45 f4	 lea	 eax, DWORD PTR __$EHRec$[ebp]
  0001f	64 a3 00 00 00
	00		 mov	 DWORD PTR fs:0, eax
  00025	89 4d ec	 mov	 DWORD PTR _this$[ebp], ecx
  00028	8b 45 ec	 mov	 eax, DWORD PTR _this$[ebp]
  0002b	89 45 e4	 mov	 DWORD PTR _this$[ebp], eax
; File C:\Program Files (x86)\Microsoft Visual Studio\2019\Community\VC\Tools\MSVC\14.28.29333\include\xmemory

; 1339 :         : _Ty1(), _Myval2(_STD forward<_Other2>(_Val2)...) {}

  0002e	8b 45 e4	 mov	 eax, DWORD PTR _this$[ebp]
  00031	89 45 e8	 mov	 DWORD PTR _this$[ebp], eax
; File C:\Program Files (x86)\Microsoft Visual Studio\2019\Community\VC\Tools\MSVC\14.28.29333\include\xstring

; 2198 :     _String_val() noexcept : _Bx(), _Mysize(0), _Myres(0) {}

  00034	8b 45 e8	 mov	 eax, DWORD PTR _this$[ebp]
  00037	83 60 10 00	 and	 DWORD PTR [eax+16], 0
  0003b	8b 45 e8	 mov	 eax, DWORD PTR _this$[ebp]
  0003e	83 60 14 00	 and	 DWORD PTR [eax+20], 0

; 2413 :     basic_string(_In_z_ const _Elem* const _Ptr) : _Mypair(_Zero_then_variadic_args_t{}) {

  00042	83 65 fc 00	 and	 DWORD PTR __$EHRec$[ebp+8], 0

; 2414 :         auto&& _Alproxy = _GET_PROXY_ALLOCATOR(_Alty, _Getal());

  00046	8d 45 f3	 lea	 eax, DWORD PTR _$S6$[ebp]
  00049	89 45 d8	 mov	 DWORD PTR __Alproxy$[ebp], eax

; 2415 :         _Container_proxy_ptr<_Alty> _Proxy(_Alproxy, _Mypair._Myval2);
; 2416 :         _Tidy_init();

  0004c	8b 4d ec	 mov	 ecx, DWORD PTR _this$[ebp]
  0004f	e8 00 00 00 00	 call	 ?_Tidy_init@?$basic_string@DU?$char_traits@D@std@@V?$allocator@D@2@@std@@AAEXXZ ; std::basic_string<char,std::char_traits<char>,std::allocator<char> >::_Tidy_init

; 389  :         return _CSTD strlen(reinterpret_cast<const char*>(_First));

  00054	ff 75 08	 push	 DWORD PTR __Ptr$[ebp]
  00057	e8 00 00 00 00	 call	 _strlen
  0005c	59		 pop	 ecx
  0005d	89 45 e0	 mov	 DWORD PTR $T3[ebp], eax
; File C:\Program Files (x86)\Microsoft Visual Studio\2019\Community\VC\Tools\MSVC\14.28.29333\include\xmemory

; 997  :     return _Len;

  00060	8b 45 e0	 mov	 eax, DWORD PTR $T3[ebp]
  00063	89 45 dc	 mov	 DWORD PTR $T2[ebp], eax
; File C:\Program Files (x86)\Microsoft Visual Studio\2019\Community\VC\Tools\MSVC\14.28.29333\include\xstring

; 3062 :         return assign(_Ptr, _Convert_size<size_type>(_Traits::length(_Ptr)));

  00066	ff 75 dc	 push	 DWORD PTR $T2[ebp]
  00069	ff 75 08	 push	 DWORD PTR __Ptr$[ebp]
  0006c	8b 4d ec	 mov	 ecx, DWORD PTR _this$[ebp]
  0006f	e8 00 00 00 00	 call	 ?assign@?$basic_string@DU?$char_traits@D@std@@V?$allocator@D@2@@std@@QAEAAV12@QBDI@Z ; std::basic_string<char,std::char_traits<char>,std::allocator<char> >::assign

; 2417 :         assign(_Ptr);
; 2418 :         _Proxy._Release();
; 2419 :     }

  00074	83 4d fc ff	 or	 DWORD PTR __$EHRec$[ebp+8], -1
  00078	8b 45 ec	 mov	 eax, DWORD PTR _this$[ebp]
  0007b	8b 4d f4	 mov	 ecx, DWORD PTR __$EHRec$[ebp]
  0007e	64 89 0d 00 00
	00 00		 mov	 DWORD PTR fs:0, ecx
  00085	59		 pop	 ecx
  00086	c9		 leave
  00087	c2 04 00	 ret	 4
_TEXT	ENDS
;	COMDAT text$x
text$x	SEGMENT
__unwindfunclet$??0?$basic_string@DU?$char_traits@D@std@@V?$allocator@D@2@@std@@QAE@QBD@Z$0:
  00000	8b 4d ec	 mov	 ecx, DWORD PTR _this$[ebp]
  00003	e9 00 00 00 00	 jmp	 ??1?$_Compressed_pair@V?$allocator@D@std@@V?$_String_val@U?$_Simple_types@D@std@@@2@$00@std@@QAE@XZ
  00008	cc		 int	 3
  00009	cc		 int	 3
  0000a	cc		 int	 3
  0000b	cc		 int	 3
  0000c	cc		 int	 3
__ehhandler$??0?$basic_string@DU?$char_traits@D@std@@V?$allocator@D@2@@std@@QAE@QBD@Z:
  0000d	90		 npad	 1
  0000e	90		 npad	 1
  0000f	8b 54 24 08	 mov	 edx, DWORD PTR [esp+8]
  00013	8d 42 0c	 lea	 eax, DWORD PTR [edx+12]
  00016	8b 4a e0	 mov	 ecx, DWORD PTR [edx-32]
  00019	33 c8		 xor	 ecx, eax
  0001b	e8 00 00 00 00	 call	 @__security_check_cookie@4
  00020	b8 00 00 00 00	 mov	 eax, OFFSET __ehfuncinfo$??0?$basic_string@DU?$char_traits@D@std@@V?$allocator@D@2@@std@@QAE@QBD@Z
  00025	e9 00 00 00 00	 jmp	 ___CxxFrameHandler3
text$x	ENDS
??0?$basic_string@DU?$char_traits@D@std@@V?$allocator@D@2@@std@@QAE@QBD@Z ENDP ; std::basic_string<char,std::char_traits<char>,std::allocator<char> >::basic_string<char,std::char_traits<char>,std::allocator<char> >
; Function compile flags: /Odspy
; File C:\Program Files (x86)\Microsoft Visual Studio\2019\Community\VC\Tools\MSVC\14.28.29333\include\xstring
; File C:\Program Files (x86)\Microsoft Visual Studio\2019\Community\VC\Tools\MSVC\14.28.29333\include\xstddef
; File C:\Program Files (x86)\Microsoft Visual Studio\2019\Community\VC\Tools\MSVC\14.28.29333\include\xstring
;	COMDAT ?_Myptr@?$_String_val@U?$_Simple_types@D@std@@@std@@QAEPADXZ
_TEXT	SEGMENT
__Ptr$ = -20						; size = 4
__Result$ = -16						; size = 4
tv76 = -12						; size = 4
_this$ = -8						; size = 4
$T1 = -1						; size = 1
?_Myptr@?$_String_val@U?$_Simple_types@D@std@@@std@@QAEPADXZ PROC ; std::_String_val<std::_Simple_types<char> >::_Myptr, COMDAT
; _this$ = ecx

; 2208 :     value_type* _Myptr() noexcept {

  00000	55		 push	 ebp
  00001	8b ec		 mov	 ebp, esp
  00003	83 ec 14	 sub	 esp, 20			; 00000014H
  00006	89 4d f8	 mov	 DWORD PTR _this$[ebp], ecx

; 2209 :         value_type* _Result = _Bx._Buf;

  00009	8b 45 f8	 mov	 eax, DWORD PTR _this$[ebp]
  0000c	89 45 f0	 mov	 DWORD PTR __Result$[ebp], eax

; 2227 :         return _BUF_SIZE <= _Myres;

  0000f	8b 45 f8	 mov	 eax, DWORD PTR _this$[ebp]
  00012	83 78 14 10	 cmp	 DWORD PTR [eax+20], 16	; 00000010H
  00016	72 09		 jb	 SHORT $LN6@Myptr
  00018	c7 45 f4 01 00
	00 00		 mov	 DWORD PTR tv76[ebp], 1
  0001f	eb 04		 jmp	 SHORT $LN7@Myptr
$LN6@Myptr:
  00021	83 65 f4 00	 and	 DWORD PTR tv76[ebp], 0
$LN7@Myptr:
  00025	8a 45 f4	 mov	 al, BYTE PTR tv76[ebp]
  00028	88 45 ff	 mov	 BYTE PTR $T1[ebp], al

; 2210 :         if (_Large_string_engaged()) {

  0002b	0f b6 45 ff	 movzx	 eax, BYTE PTR $T1[ebp]
  0002f	85 c0		 test	 eax, eax
  00031	74 0e		 je	 SHORT $LN2@Myptr

; 2211 :             _Result = _Unfancy(_Bx._Ptr);

  00033	8b 45 f8	 mov	 eax, DWORD PTR _this$[ebp]
  00036	8b 00		 mov	 eax, DWORD PTR [eax]
  00038	89 45 ec	 mov	 DWORD PTR __Ptr$[ebp], eax
; File C:\Program Files (x86)\Microsoft Visual Studio\2019\Community\VC\Tools\MSVC\14.28.29333\include\xstddef

; 289  :     return _Ptr;

  0003b	8b 45 ec	 mov	 eax, DWORD PTR __Ptr$[ebp]
  0003e	89 45 f0	 mov	 DWORD PTR __Result$[ebp], eax
$LN2@Myptr:
; File C:\Program Files (x86)\Microsoft Visual Studio\2019\Community\VC\Tools\MSVC\14.28.29333\include\xstring

; 2214 :         return _Result;

  00041	8b 45 f0	 mov	 eax, DWORD PTR __Result$[ebp]

; 2215 :     }

  00044	c9		 leave
  00045	c3		 ret	 0
?_Myptr@?$_String_val@U?$_Simple_types@D@std@@@std@@QAEPADXZ ENDP ; std::_String_val<std::_Simple_types<char> >::_Myptr
_TEXT	ENDS
; Function compile flags: /Odspy
; File C:\Program Files (x86)\Microsoft Visual Studio\2019\Community\VC\Tools\MSVC\14.28.29333\include\xstring
;	COMDAT ??0?$_String_val@U?$_Simple_types@D@std@@@std@@QAE@XZ
_TEXT	SEGMENT
_this$ = -4						; size = 4
??0?$_String_val@U?$_Simple_types@D@std@@@std@@QAE@XZ PROC ; std::_String_val<std::_Simple_types<char> >::_String_val<std::_Simple_types<char> >, COMDAT
; _this$ = ecx

; 2198 :     _String_val() noexcept : _Bx(), _Mysize(0), _Myres(0) {}

  00000	55		 push	 ebp
  00001	8b ec		 mov	 ebp, esp
  00003	51		 push	 ecx
  00004	89 4d fc	 mov	 DWORD PTR _this$[ebp], ecx
  00007	8b 45 fc	 mov	 eax, DWORD PTR _this$[ebp]
  0000a	83 60 10 00	 and	 DWORD PTR [eax+16], 0
  0000e	8b 45 fc	 mov	 eax, DWORD PTR _this$[ebp]
  00011	83 60 14 00	 and	 DWORD PTR [eax+20], 0
  00015	8b 45 fc	 mov	 eax, DWORD PTR _this$[ebp]
  00018	c9		 leave
  00019	c3		 ret	 0
??0?$_String_val@U?$_Simple_types@D@std@@@std@@QAE@XZ ENDP ; std::_String_val<std::_Simple_types<char> >::_String_val<std::_Simple_types<char> >
_TEXT	ENDS
; Function compile flags: /Odspy
; File C:\Program Files (x86)\Microsoft Visual Studio\2019\Community\VC\Tools\MSVC\14.28.29333\include\xstring
;	COMDAT ?_Xlen_string@std@@YAXXZ
_TEXT	SEGMENT
?_Xlen_string@std@@YAXXZ PROC				; std::_Xlen_string, COMDAT

; 2274 : [[noreturn]] inline void _Xlen_string() {

  00000	55		 push	 ebp
  00001	8b ec		 mov	 ebp, esp

; 2275 :     _Xlength_error("string too long");

  00003	68 00 00 00 00	 push	 OFFSET ??_C@_0BA@JFNIOLAK@string?5too?5long@
  00008	e8 00 00 00 00	 call	 ?_Xlength_error@std@@YAXPBD@Z ; std::_Xlength_error
$LN2@Xlen_strin:

; 2276 : }

  0000d	5d		 pop	 ebp
  0000e	c3		 ret	 0
?_Xlen_string@std@@YAXXZ ENDP				; std::_Xlen_string
_TEXT	ENDS
; Function compile flags: /Odspy
; File C:\Program Files (x86)\Microsoft Visual Studio\2019\Community\VC\Tools\MSVC\14.28.29333\include\xmemory
;	COMDAT ?_Adjust_manually_vector_aligned@std@@YAXAAPAXAAI@Z
_TEXT	SEGMENT
__Min_back_shift$ = -16					; size = 4
__Ptr_user$ = -12					; size = 4
__Ptr_container$ = -8					; size = 4
__Back_shift$ = -4					; size = 4
__Ptr$ = 8						; size = 4
__Bytes$ = 12						; size = 4
?_Adjust_manually_vector_aligned@std@@YAXAAPAXAAI@Z PROC ; std::_Adjust_manually_vector_aligned, COMDAT

; 132  : inline void _Adjust_manually_vector_aligned(void*& _Ptr, size_t& _Bytes) {

  00000	55		 push	 ebp
  00001	8b ec		 mov	 ebp, esp
  00003	83 ec 10	 sub	 esp, 16			; 00000010H

; 133  :     // adjust parameters from _Allocate_manually_vector_aligned to pass to operator delete
; 134  :     _Bytes += _Non_user_size;

  00006	8b 45 0c	 mov	 eax, DWORD PTR __Bytes$[ebp]
  00009	8b 00		 mov	 eax, DWORD PTR [eax]
  0000b	83 c0 23	 add	 eax, 35			; 00000023H
  0000e	8b 4d 0c	 mov	 ecx, DWORD PTR __Bytes$[ebp]
  00011	89 01		 mov	 DWORD PTR [ecx], eax

; 135  : 
; 136  :     const uintptr_t* const _Ptr_user = reinterpret_cast<uintptr_t*>(_Ptr);

  00013	8b 45 08	 mov	 eax, DWORD PTR __Ptr$[ebp]
  00016	8b 00		 mov	 eax, DWORD PTR [eax]
  00018	89 45 f4	 mov	 DWORD PTR __Ptr_user$[ebp], eax

; 137  :     const uintptr_t _Ptr_container   = _Ptr_user[-1];

  0001b	6a 04		 push	 4
  0001d	58		 pop	 eax
  0001e	6b c0 ff	 imul	 eax, eax, -1
  00021	8b 4d f4	 mov	 ecx, DWORD PTR __Ptr_user$[ebp]
  00024	8b 04 01	 mov	 eax, DWORD PTR [ecx+eax]
  00027	89 45 f8	 mov	 DWORD PTR __Ptr_container$[ebp], eax

; 138  : 
; 139  :     // If the following asserts, it likely means that we are performing
; 140  :     // an aligned delete on memory coming from an unaligned allocation.
; 141  :     _STL_ASSERT(_Ptr_user[-2] == _Big_allocation_sentinel, "invalid argument");
; 142  : 
; 143  :     // Extra paranoia on aligned allocation/deallocation; ensure _Ptr_container is
; 144  :     // in range [_Min_back_shift, _Non_user_size]
; 145  : #ifdef _DEBUG
; 146  :     constexpr uintptr_t _Min_back_shift = 2 * sizeof(void*);
; 147  : #else // ^^^ _DEBUG ^^^ // vvv !_DEBUG vvv
; 148  :     constexpr uintptr_t _Min_back_shift = sizeof(void*);

  0002a	c7 45 f0 04 00
	00 00		 mov	 DWORD PTR __Min_back_shift$[ebp], 4

; 149  : #endif // _DEBUG
; 150  :     const uintptr_t _Back_shift = reinterpret_cast<uintptr_t>(_Ptr) - _Ptr_container;

  00031	8b 45 08	 mov	 eax, DWORD PTR __Ptr$[ebp]
  00034	8b 00		 mov	 eax, DWORD PTR [eax]
  00036	2b 45 f8	 sub	 eax, DWORD PTR __Ptr_container$[ebp]
  00039	89 45 fc	 mov	 DWORD PTR __Back_shift$[ebp], eax
$LN4@Adjust_man:

; 151  :     _STL_VERIFY(_Back_shift >= _Min_back_shift && _Back_shift <= _Non_user_size, "invalid argument");

  0003c	83 7d fc 04	 cmp	 DWORD PTR __Back_shift$[ebp], 4
  00040	72 08		 jb	 SHORT $LN7@Adjust_man
  00042	83 7d fc 23	 cmp	 DWORD PTR __Back_shift$[ebp], 35 ; 00000023H
  00046	77 02		 ja	 SHORT $LN7@Adjust_man
  00048	eb 09		 jmp	 SHORT $LN2@Adjust_man
$LN7@Adjust_man:
  0004a	e8 00 00 00 00	 call	 __invalid_parameter_noinfo_noreturn
  0004f	33 c0		 xor	 eax, eax
  00051	75 f7		 jne	 SHORT $LN7@Adjust_man
$LN2@Adjust_man:
  00053	33 c0		 xor	 eax, eax
  00055	75 e5		 jne	 SHORT $LN4@Adjust_man

; 152  :     _Ptr = reinterpret_cast<void*>(_Ptr_container);

  00057	8b 45 08	 mov	 eax, DWORD PTR __Ptr$[ebp]
  0005a	8b 4d f8	 mov	 ecx, DWORD PTR __Ptr_container$[ebp]
  0005d	89 08		 mov	 DWORD PTR [eax], ecx
$LN10@Adjust_man:

; 153  : }

  0005f	c9		 leave
  00060	c3		 ret	 0
?_Adjust_manually_vector_aligned@std@@YAXAAPAXAAI@Z ENDP ; std::_Adjust_manually_vector_aligned
_TEXT	ENDS
; Function compile flags: /Odspy
; File C:\Program Files (x86)\Microsoft Visual Studio\2019\Community\VC\Tools\MSVC\14.28.29333\include\exception
;	COMDAT ?_Throw_bad_array_new_length@std@@YAXXZ
_TEXT	SEGMENT
$T1 = -12						; size = 12
?_Throw_bad_array_new_length@std@@YAXXZ PROC		; std::_Throw_bad_array_new_length, COMDAT

; 320  : [[noreturn]] inline void _Throw_bad_array_new_length() {

  00000	55		 push	 ebp
  00001	8b ec		 mov	 ebp, esp
  00003	83 ec 0c	 sub	 esp, 12			; 0000000cH

; 321  :     _THROW(bad_array_new_length{});

  00006	8d 4d f4	 lea	 ecx, DWORD PTR $T1[ebp]
  00009	e8 00 00 00 00	 call	 ??0bad_array_new_length@std@@QAE@XZ ; std::bad_array_new_length::bad_array_new_length
  0000e	68 00 00 00 00	 push	 OFFSET __TI3?AVbad_array_new_length@std@@
  00013	8d 45 f4	 lea	 eax, DWORD PTR $T1[ebp]
  00016	50		 push	 eax
  00017	e8 00 00 00 00	 call	 __CxxThrowException@8
$LN2@Throw_bad_:

; 322  : }

  0001c	c9		 leave
  0001d	c3		 ret	 0
?_Throw_bad_array_new_length@std@@YAXXZ ENDP		; std::_Throw_bad_array_new_length
_TEXT	ENDS
; Function compile flags: /Odspy
; File C:\Program Files (x86)\Microsoft Visual Studio\2019\Community\VC\Tools\MSVC\14.28.29333\include\vcruntime_exception.h
;	COMDAT ??_Gbad_array_new_length@std@@UAEPAXI@Z
_TEXT	SEGMENT
_this$ = -4						; size = 4
___flags$ = 8						; size = 4
??_Gbad_array_new_length@std@@UAEPAXI@Z PROC		; std::bad_array_new_length::`scalar deleting destructor', COMDAT
; _this$ = ecx
  00000	55		 push	 ebp
  00001	8b ec		 mov	 ebp, esp
  00003	51		 push	 ecx
  00004	89 4d fc	 mov	 DWORD PTR _this$[ebp], ecx

; 89   :     {

  00007	8b 45 fc	 mov	 eax, DWORD PTR _this$[ebp]
  0000a	c7 00 00 00 00
	00		 mov	 DWORD PTR [eax], OFFSET ??_7exception@std@@6B@

; 90   :         __std_exception_destroy(&_Data);

  00010	8b 45 fc	 mov	 eax, DWORD PTR _this$[ebp]
  00013	83 c0 04	 add	 eax, 4
  00016	50		 push	 eax
  00017	e8 00 00 00 00	 call	 ___std_exception_destroy
  0001c	59		 pop	 ecx
  0001d	8b 45 08	 mov	 eax, DWORD PTR ___flags$[ebp]
  00020	83 e0 01	 and	 eax, 1
  00023	74 0c		 je	 SHORT $LN2@scalar
  00025	6a 0c		 push	 12			; 0000000cH
  00027	ff 75 fc	 push	 DWORD PTR _this$[ebp]
  0002a	e8 00 00 00 00	 call	 ??3@YAXPAXI@Z		; operator delete
  0002f	59		 pop	 ecx
  00030	59		 pop	 ecx
$LN2@scalar:
  00031	8b 45 fc	 mov	 eax, DWORD PTR _this$[ebp]
  00034	c9		 leave
  00035	c2 04 00	 ret	 4
??_Gbad_array_new_length@std@@UAEPAXI@Z ENDP		; std::bad_array_new_length::`scalar deleting destructor'
_TEXT	ENDS
; Function compile flags: /Odspy
;	COMDAT ??0bad_array_new_length@std@@QAE@ABV01@@Z
_TEXT	SEGMENT
_this$ = -4						; size = 4
___that$ = 8						; size = 4
??0bad_array_new_length@std@@QAE@ABV01@@Z PROC		; std::bad_array_new_length::bad_array_new_length, COMDAT
; _this$ = ecx
  00000	55		 push	 ebp
  00001	8b ec		 mov	 ebp, esp
  00003	51		 push	 ecx
  00004	89 4d fc	 mov	 DWORD PTR _this$[ebp], ecx
  00007	ff 75 08	 push	 DWORD PTR ___that$[ebp]
  0000a	8b 4d fc	 mov	 ecx, DWORD PTR _this$[ebp]
  0000d	e8 00 00 00 00	 call	 ??0exception@std@@QAE@ABV01@@Z ; std::exception::exception
  00012	8b 45 fc	 mov	 eax, DWORD PTR _this$[ebp]
  00015	c7 00 00 00 00
	00		 mov	 DWORD PTR [eax], OFFSET ??_7bad_alloc@std@@6B@
  0001b	8b 45 fc	 mov	 eax, DWORD PTR _this$[ebp]
  0001e	c7 00 00 00 00
	00		 mov	 DWORD PTR [eax], OFFSET ??_7bad_array_new_length@std@@6B@
  00024	8b 45 fc	 mov	 eax, DWORD PTR _this$[ebp]
  00027	c9		 leave
  00028	c2 04 00	 ret	 4
??0bad_array_new_length@std@@QAE@ABV01@@Z ENDP		; std::bad_array_new_length::bad_array_new_length
_TEXT	ENDS
; Function compile flags: /Odspy
; File C:\Program Files (x86)\Microsoft Visual Studio\2019\Community\VC\Tools\MSVC\14.28.29333\include\vcruntime_exception.h
;	COMDAT ??1bad_array_new_length@std@@UAE@XZ
_TEXT	SEGMENT
_this$ = -4						; size = 4
??1bad_array_new_length@std@@UAE@XZ PROC		; std::bad_array_new_length::~bad_array_new_length, COMDAT
; _this$ = ecx
  00000	55		 push	 ebp
  00001	8b ec		 mov	 ebp, esp
  00003	51		 push	 ecx
  00004	89 4d fc	 mov	 DWORD PTR _this$[ebp], ecx

; 89   :     {

  00007	8b 45 fc	 mov	 eax, DWORD PTR _this$[ebp]
  0000a	c7 00 00 00 00
	00		 mov	 DWORD PTR [eax], OFFSET ??_7exception@std@@6B@

; 90   :         __std_exception_destroy(&_Data);

  00010	8b 45 fc	 mov	 eax, DWORD PTR _this$[ebp]
  00013	83 c0 04	 add	 eax, 4
  00016	50		 push	 eax
  00017	e8 00 00 00 00	 call	 ___std_exception_destroy
  0001c	59		 pop	 ecx
  0001d	c9		 leave
  0001e	c3		 ret	 0
??1bad_array_new_length@std@@UAE@XZ ENDP		; std::bad_array_new_length::~bad_array_new_length
_TEXT	ENDS
; Function compile flags: /Odspy
; File C:\Program Files (x86)\Microsoft Visual Studio\2019\Community\VC\Tools\MSVC\14.28.29333\include\vcruntime_exception.h
;	COMDAT ??0bad_array_new_length@std@@QAE@XZ
_TEXT	SEGMENT
_this$ = -4						; size = 4
??0bad_array_new_length@std@@QAE@XZ PROC		; std::bad_array_new_length::bad_array_new_length, COMDAT
; _this$ = ecx

; 141  :     {

  00000	55		 push	 ebp
  00001	8b ec		 mov	 ebp, esp
  00003	51		 push	 ecx
  00004	89 4d fc	 mov	 DWORD PTR _this$[ebp], ecx

; 66   :     {

  00007	8b 45 fc	 mov	 eax, DWORD PTR _this$[ebp]
  0000a	c7 00 00 00 00
	00		 mov	 DWORD PTR [eax], OFFSET ??_7exception@std@@6B@

; 65   :         : _Data()

  00010	33 c0		 xor	 eax, eax
  00012	8b 4d fc	 mov	 ecx, DWORD PTR _this$[ebp]
  00015	83 c1 04	 add	 ecx, 4
  00018	89 01		 mov	 DWORD PTR [ecx], eax
  0001a	89 41 04	 mov	 DWORD PTR [ecx+4], eax

; 67   :         _Data._What = _Message;

  0001d	8b 45 fc	 mov	 eax, DWORD PTR _this$[ebp]
  00020	c7 40 04 00 00
	00 00		 mov	 DWORD PTR [eax+4], OFFSET ??_C@_0BF@KINCDENJ@bad?5array?5new?5length@

; 130  :     {

  00027	8b 45 fc	 mov	 eax, DWORD PTR _this$[ebp]
  0002a	c7 00 00 00 00
	00		 mov	 DWORD PTR [eax], OFFSET ??_7bad_alloc@std@@6B@

; 141  :     {

  00030	8b 45 fc	 mov	 eax, DWORD PTR _this$[ebp]
  00033	c7 00 00 00 00
	00		 mov	 DWORD PTR [eax], OFFSET ??_7bad_array_new_length@std@@6B@

; 142  :     }

  00039	8b 45 fc	 mov	 eax, DWORD PTR _this$[ebp]
  0003c	c9		 leave
  0003d	c3		 ret	 0
??0bad_array_new_length@std@@QAE@XZ ENDP		; std::bad_array_new_length::bad_array_new_length
_TEXT	ENDS
; Function compile flags: /Odspy
; File C:\Program Files (x86)\Microsoft Visual Studio\2019\Community\VC\Tools\MSVC\14.28.29333\include\vcruntime_exception.h
;	COMDAT ??_Gbad_alloc@std@@UAEPAXI@Z
_TEXT	SEGMENT
_this$ = -4						; size = 4
___flags$ = 8						; size = 4
??_Gbad_alloc@std@@UAEPAXI@Z PROC			; std::bad_alloc::`scalar deleting destructor', COMDAT
; _this$ = ecx
  00000	55		 push	 ebp
  00001	8b ec		 mov	 ebp, esp
  00003	51		 push	 ecx
  00004	89 4d fc	 mov	 DWORD PTR _this$[ebp], ecx

; 89   :     {

  00007	8b 45 fc	 mov	 eax, DWORD PTR _this$[ebp]
  0000a	c7 00 00 00 00
	00		 mov	 DWORD PTR [eax], OFFSET ??_7exception@std@@6B@

; 90   :         __std_exception_destroy(&_Data);

  00010	8b 45 fc	 mov	 eax, DWORD PTR _this$[ebp]
  00013	83 c0 04	 add	 eax, 4
  00016	50		 push	 eax
  00017	e8 00 00 00 00	 call	 ___std_exception_destroy
  0001c	59		 pop	 ecx
  0001d	8b 45 08	 mov	 eax, DWORD PTR ___flags$[ebp]
  00020	83 e0 01	 and	 eax, 1
  00023	74 0c		 je	 SHORT $LN2@scalar
  00025	6a 0c		 push	 12			; 0000000cH
  00027	ff 75 fc	 push	 DWORD PTR _this$[ebp]
  0002a	e8 00 00 00 00	 call	 ??3@YAXPAXI@Z		; operator delete
  0002f	59		 pop	 ecx
  00030	59		 pop	 ecx
$LN2@scalar:
  00031	8b 45 fc	 mov	 eax, DWORD PTR _this$[ebp]
  00034	c9		 leave
  00035	c2 04 00	 ret	 4
??_Gbad_alloc@std@@UAEPAXI@Z ENDP			; std::bad_alloc::`scalar deleting destructor'
_TEXT	ENDS
; Function compile flags: /Odspy
;	COMDAT ??0bad_alloc@std@@QAE@ABV01@@Z
_TEXT	SEGMENT
_this$ = -4						; size = 4
___that$ = 8						; size = 4
??0bad_alloc@std@@QAE@ABV01@@Z PROC			; std::bad_alloc::bad_alloc, COMDAT
; _this$ = ecx
  00000	55		 push	 ebp
  00001	8b ec		 mov	 ebp, esp
  00003	51		 push	 ecx
  00004	89 4d fc	 mov	 DWORD PTR _this$[ebp], ecx
  00007	ff 75 08	 push	 DWORD PTR ___that$[ebp]
  0000a	8b 4d fc	 mov	 ecx, DWORD PTR _this$[ebp]
  0000d	e8 00 00 00 00	 call	 ??0exception@std@@QAE@ABV01@@Z ; std::exception::exception
  00012	8b 45 fc	 mov	 eax, DWORD PTR _this$[ebp]
  00015	c7 00 00 00 00
	00		 mov	 DWORD PTR [eax], OFFSET ??_7bad_alloc@std@@6B@
  0001b	8b 45 fc	 mov	 eax, DWORD PTR _this$[ebp]
  0001e	c9		 leave
  0001f	c2 04 00	 ret	 4
??0bad_alloc@std@@QAE@ABV01@@Z ENDP			; std::bad_alloc::bad_alloc
_TEXT	ENDS
; Function compile flags: /Odspy
; File C:\Program Files (x86)\Microsoft Visual Studio\2019\Community\VC\Tools\MSVC\14.28.29333\include\vcruntime_exception.h
;	COMDAT ??_Gexception@std@@UAEPAXI@Z
_TEXT	SEGMENT
_this$ = -4						; size = 4
___flags$ = 8						; size = 4
??_Gexception@std@@UAEPAXI@Z PROC			; std::exception::`scalar deleting destructor', COMDAT
; _this$ = ecx
  00000	55		 push	 ebp
  00001	8b ec		 mov	 ebp, esp
  00003	51		 push	 ecx
  00004	89 4d fc	 mov	 DWORD PTR _this$[ebp], ecx

; 89   :     {

  00007	8b 45 fc	 mov	 eax, DWORD PTR _this$[ebp]
  0000a	c7 00 00 00 00
	00		 mov	 DWORD PTR [eax], OFFSET ??_7exception@std@@6B@

; 90   :         __std_exception_destroy(&_Data);

  00010	8b 45 fc	 mov	 eax, DWORD PTR _this$[ebp]
  00013	83 c0 04	 add	 eax, 4
  00016	50		 push	 eax
  00017	e8 00 00 00 00	 call	 ___std_exception_destroy
  0001c	59		 pop	 ecx
  0001d	8b 45 08	 mov	 eax, DWORD PTR ___flags$[ebp]
  00020	83 e0 01	 and	 eax, 1
  00023	74 0c		 je	 SHORT $LN2@scalar
  00025	6a 0c		 push	 12			; 0000000cH
  00027	ff 75 fc	 push	 DWORD PTR _this$[ebp]
  0002a	e8 00 00 00 00	 call	 ??3@YAXPAXI@Z		; operator delete
  0002f	59		 pop	 ecx
  00030	59		 pop	 ecx
$LN2@scalar:
  00031	8b 45 fc	 mov	 eax, DWORD PTR _this$[ebp]
  00034	c9		 leave
  00035	c2 04 00	 ret	 4
??_Gexception@std@@UAEPAXI@Z ENDP			; std::exception::`scalar deleting destructor'
_TEXT	ENDS
; Function compile flags: /Odspy
; File C:\Program Files (x86)\Microsoft Visual Studio\2019\Community\VC\Tools\MSVC\14.28.29333\include\vcruntime_exception.h
;	COMDAT ?what@exception@std@@UBEPBDXZ
_TEXT	SEGMENT
tv69 = -8						; size = 4
_this$ = -4						; size = 4
?what@exception@std@@UBEPBDXZ PROC			; std::exception::what, COMDAT
; _this$ = ecx

; 94   :     {

  00000	55		 push	 ebp
  00001	8b ec		 mov	 ebp, esp
  00003	51		 push	 ecx
  00004	51		 push	 ecx
  00005	89 4d fc	 mov	 DWORD PTR _this$[ebp], ecx

; 95   :         return _Data._What ? _Data._What : "Unknown exception";

  00008	8b 45 fc	 mov	 eax, DWORD PTR _this$[ebp]
  0000b	83 78 04 00	 cmp	 DWORD PTR [eax+4], 0
  0000f	74 0b		 je	 SHORT $LN3@what
  00011	8b 45 fc	 mov	 eax, DWORD PTR _this$[ebp]
  00014	8b 40 04	 mov	 eax, DWORD PTR [eax+4]
  00017	89 45 f8	 mov	 DWORD PTR tv69[ebp], eax
  0001a	eb 07		 jmp	 SHORT $LN4@what
$LN3@what:
  0001c	c7 45 f8 00 00
	00 00		 mov	 DWORD PTR tv69[ebp], OFFSET ??_C@_0BC@EOODALEL@Unknown?5exception@
$LN4@what:
  00023	8b 45 f8	 mov	 eax, DWORD PTR tv69[ebp]

; 96   :     }

  00026	c9		 leave
  00027	c3		 ret	 0
?what@exception@std@@UBEPBDXZ ENDP			; std::exception::what
_TEXT	ENDS
; Function compile flags: /Odspy
; File C:\Program Files (x86)\Microsoft Visual Studio\2019\Community\VC\Tools\MSVC\14.28.29333\include\vcruntime_exception.h
;	COMDAT ??0exception@std@@QAE@ABV01@@Z
_TEXT	SEGMENT
_this$ = -4						; size = 4
__Other$ = 8						; size = 4
??0exception@std@@QAE@ABV01@@Z PROC			; std::exception::exception, COMDAT
; _this$ = ecx

; 72   :     {

  00000	55		 push	 ebp
  00001	8b ec		 mov	 ebp, esp
  00003	51		 push	 ecx
  00004	89 4d fc	 mov	 DWORD PTR _this$[ebp], ecx
  00007	8b 45 fc	 mov	 eax, DWORD PTR _this$[ebp]
  0000a	c7 00 00 00 00
	00		 mov	 DWORD PTR [eax], OFFSET ??_7exception@std@@6B@

; 71   :         : _Data()

  00010	33 c0		 xor	 eax, eax
  00012	8b 4d fc	 mov	 ecx, DWORD PTR _this$[ebp]
  00015	83 c1 04	 add	 ecx, 4
  00018	89 01		 mov	 DWORD PTR [ecx], eax
  0001a	89 41 04	 mov	 DWORD PTR [ecx+4], eax

; 73   :         __std_exception_copy(&_Other._Data, &_Data);

  0001d	8b 45 fc	 mov	 eax, DWORD PTR _this$[ebp]
  00020	83 c0 04	 add	 eax, 4
  00023	50		 push	 eax
  00024	8b 45 08	 mov	 eax, DWORD PTR __Other$[ebp]
  00027	83 c0 04	 add	 eax, 4
  0002a	50		 push	 eax
  0002b	e8 00 00 00 00	 call	 ___std_exception_copy
  00030	59		 pop	 ecx
  00031	59		 pop	 ecx

; 74   :     }

  00032	8b 45 fc	 mov	 eax, DWORD PTR _this$[ebp]
  00035	c9		 leave
  00036	c2 04 00	 ret	 4
??0exception@std@@QAE@ABV01@@Z ENDP			; std::exception::exception
_TEXT	ENDS
END
