; Listing generated by Microsoft (R) Optimizing Compiler Version 19.28.29335.0 

	TITLE	D:\Metin2 Server Files\mainline\SRC_2014\Metin2Client\GameLib\RaceMotionData.cpp
	.686P
	.XMM
	include listing.inc
	.model	flat

INCLUDELIB LIBCMT
INCLUDELIB OLDNAMES

PUBLIC	??_H@YGXPAXIIP6EPAX0@Z@Z			; `vector constructor iterator'
PUBLIC	?__empty_global_delete@@YAXPAX@Z		; __empty_global_delete
PUBLIC	?__empty_global_delete@@YAXPAXI@Z		; __empty_global_delete
PUBLIC	??0exception@std@@QAE@ABV01@@Z			; std::exception::exception
PUBLIC	?what@exception@std@@UBEPBDXZ			; std::exception::what
PUBLIC	??_Gexception@std@@UAEPAXI@Z			; std::exception::`scalar deleting destructor'
PUBLIC	??0bad_alloc@std@@QAE@ABV01@@Z			; std::bad_alloc::bad_alloc
PUBLIC	??_Gbad_alloc@std@@UAEPAXI@Z			; std::bad_alloc::`scalar deleting destructor'
PUBLIC	??0bad_array_new_length@std@@QAE@XZ		; std::bad_array_new_length::bad_array_new_length
PUBLIC	??1bad_array_new_length@std@@UAE@XZ		; std::bad_array_new_length::~bad_array_new_length
PUBLIC	??0bad_array_new_length@std@@QAE@ABV01@@Z	; std::bad_array_new_length::bad_array_new_length
PUBLIC	??_Gbad_array_new_length@std@@UAEPAXI@Z		; std::bad_array_new_length::`scalar deleting destructor'
PUBLIC	?_Throw_bad_array_new_length@std@@YAXXZ		; std::_Throw_bad_array_new_length
PUBLIC	?_Adjust_manually_vector_aligned@std@@YAXAAPAXAAI@Z ; std::_Adjust_manually_vector_aligned
PUBLIC	?_Xlen_string@std@@YAXXZ			; std::_Xlen_string
PUBLIC	??0?$_String_val@U?$_Simple_types@D@std@@@std@@QAE@XZ ; std::_String_val<std::_Simple_types<char> >::_String_val<std::_Simple_types<char> >
PUBLIC	?_Myptr@?$_String_val@U?$_Simple_types@D@std@@@std@@QAEPADXZ ; std::_String_val<std::_Simple_types<char> >::_Myptr
PUBLIC	?_Myptr@?$_String_val@U?$_Simple_types@D@std@@@std@@QBEPBDXZ ; std::_String_val<std::_Simple_types<char> >::_Myptr
PUBLIC	?_Xran@?$_String_val@U?$_Simple_types@D@std@@@std@@SAXXZ ; std::_String_val<std::_Simple_types<char> >::_Xran
PUBLIC	??0?$basic_string@DU?$char_traits@D@std@@V?$allocator@D@2@@std@@QAE@ABV01@@Z ; std::basic_string<char,std::char_traits<char>,std::allocator<char> >::basic_string<char,std::char_traits<char>,std::allocator<char> >
PUBLIC	??0?$basic_string@DU?$char_traits@D@std@@V?$allocator@D@2@@std@@QAE@XZ ; std::basic_string<char,std::char_traits<char>,std::allocator<char> >::basic_string<char,std::char_traits<char>,std::allocator<char> >
PUBLIC	??0?$basic_string@DU?$char_traits@D@std@@V?$allocator@D@2@@std@@QAE@QBD@Z ; std::basic_string<char,std::char_traits<char>,std::allocator<char> >::basic_string<char,std::char_traits<char>,std::allocator<char> >
PUBLIC	?_Move_assign@?$basic_string@DU?$char_traits@D@std@@V?$allocator@D@2@@std@@AAEXAAV12@U_Equal_allocators@2@@Z ; std::basic_string<char,std::char_traits<char>,std::allocator<char> >::_Move_assign
PUBLIC	?_Construct_lv_contents@?$basic_string@DU?$char_traits@D@std@@V?$allocator@D@2@@std@@AAEXABV12@@Z ; std::basic_string<char,std::char_traits<char>,std::allocator<char> >::_Construct_lv_contents
PUBLIC	??1?$basic_string@DU?$char_traits@D@std@@V?$allocator@D@2@@std@@QAE@XZ ; std::basic_string<char,std::char_traits<char>,std::allocator<char> >::~basic_string<char,std::char_traits<char>,std::allocator<char> >
PUBLIC	?append@?$basic_string@DU?$char_traits@D@std@@V?$allocator@D@2@@std@@QAEAAV12@QBDI@Z ; std::basic_string<char,std::char_traits<char>,std::allocator<char> >::append
PUBLIC	?assign@?$basic_string@DU?$char_traits@D@std@@V?$allocator@D@2@@std@@QAEAAV12@ABV12@II@Z ; std::basic_string<char,std::char_traits<char>,std::allocator<char> >::assign
PUBLIC	?assign@?$basic_string@DU?$char_traits@D@std@@V?$allocator@D@2@@std@@QAEAAV12@QBDI@Z ; std::basic_string<char,std::char_traits<char>,std::allocator<char> >::assign
PUBLIC	??A?$basic_string@DU?$char_traits@D@std@@V?$allocator@D@2@@std@@QAEAADI@Z ; std::basic_string<char,std::char_traits<char>,std::allocator<char> >::operator[]
PUBLIC	?c_str@?$basic_string@DU?$char_traits@D@std@@V?$allocator@D@2@@std@@QBEPBDXZ ; std::basic_string<char,std::char_traits<char>,std::allocator<char> >::c_str
PUBLIC	?max_size@?$basic_string@DU?$char_traits@D@std@@V?$allocator@D@2@@std@@QBEIXZ ; std::basic_string<char,std::char_traits<char>,std::allocator<char> >::max_size
PUBLIC	?find_last_of@?$basic_string@DU?$char_traits@D@std@@V?$allocator@D@2@@std@@QBEIDI@Z ; std::basic_string<char,std::char_traits<char>,std::allocator<char> >::find_last_of
PUBLIC	?compare@?$basic_string@DU?$char_traits@D@std@@V?$allocator@D@2@@std@@QBEHQBD@Z ; std::basic_string<char,std::char_traits<char>,std::allocator<char> >::compare
PUBLIC	?_Calculate_growth@?$basic_string@DU?$char_traits@D@std@@V?$allocator@D@2@@std@@CAIIII@Z ; std::basic_string<char,std::char_traits<char>,std::allocator<char> >::_Calculate_growth
PUBLIC	?_Calculate_growth@?$basic_string@DU?$char_traits@D@std@@V?$allocator@D@2@@std@@ABEII@Z ; std::basic_string<char,std::char_traits<char>,std::allocator<char> >::_Calculate_growth
PUBLIC	?_Tidy_init@?$basic_string@DU?$char_traits@D@std@@V?$allocator@D@2@@std@@AAEXXZ ; std::basic_string<char,std::char_traits<char>,std::allocator<char> >::_Tidy_init
PUBLIC	?_Tidy_deallocate@?$basic_string@DU?$char_traits@D@std@@V?$allocator@D@2@@std@@AAEXXZ ; std::basic_string<char,std::char_traits<char>,std::allocator<char> >::_Tidy_deallocate
PUBLIC	??1?$_Compressed_pair@V?$allocator@D@std@@V?$_String_val@U?$_Simple_types@D@std@@@2@$00@std@@QAE@XZ ; std::_Compressed_pair<std::allocator<char>,std::_String_val<std::_Simple_types<char> >,1>::~_Compressed_pair<std::allocator<char>,std::_String_val<std::_Simple_types<char> >,1>
PUBLIC	?NoExtension@CFileNameHelper@@SA?AV?$basic_string@DU?$char_traits@D@std@@V?$allocator@D@2@@std@@AAV23@@Z ; CFileNameHelper::NoExtension
PUBLIC	?at@?$vector@V?$basic_string@DU?$char_traits@D@std@@V?$allocator@D@2@@std@@V?$allocator@V?$basic_string@DU?$char_traits@D@std@@V?$allocator@D@2@@std@@@2@@std@@QAEAAV?$basic_string@DU?$char_traits@D@std@@V?$allocator@D@2@@2@I@Z ; std::vector<std::basic_string<char,std::char_traits<char>,std::allocator<char> >,std::allocator<std::basic_string<char,std::char_traits<char>,std::allocator<char> > > >::at
PUBLIC	?_Xrange@?$vector@V?$basic_string@DU?$char_traits@D@std@@V?$allocator@D@2@@std@@V?$allocator@V?$basic_string@DU?$char_traits@D@std@@V?$allocator@D@2@@std@@@2@@std@@CAXXZ ; std::vector<std::basic_string<char,std::char_traits<char>,std::allocator<char> >,std::allocator<std::basic_string<char,std::char_traits<char>,std::allocator<char> > > >::_Xrange
PUBLIC	??1CGotoChild@CTextFileLoader@@QAE@XZ		; CTextFileLoader::CGotoChild::~CGotoChild
PUBLIC	??1?$_Tree@V?$_Tmap_traits@MUCDynamicSphereInstance@@U?$less@M@std@@V?$allocator@U?$pair@$$CBMUCDynamicSphereInstance@@@std@@@3@$0A@@std@@@std@@QAE@XZ ; std::_Tree<std::_Tmap_traits<float,CDynamicSphereInstance,std::less<float>,std::allocator<std::pair<float const ,CDynamicSphereInstance> >,0> >::~_Tree<std::_Tmap_traits<float,CDynamicSphereInstance,std::less<float>,std::allocator<std::pair<float const ,CDynamicSphereInstance> >,0> >
PUBLIC	??_GSHitData@NRaceData@@QAEPAXI@Z		; NRaceData::SHitData::`scalar deleting destructor'
PUBLIC	?_Tidy@?$vector@USHitData@NRaceData@@V?$allocator@USHitData@NRaceData@@@std@@@std@@AAEXXZ ; std::vector<NRaceData::SHitData,std::allocator<NRaceData::SHitData> >::_Tidy
PUBLIC	??1SMotionAttackData@NRaceData@@QAE@XZ		; NRaceData::SMotionAttackData::~SMotionAttackData
PUBLIC	?_Tidy@?$vector@VCSphereCollisionInstance@@V?$allocator@VCSphereCollisionInstance@@@std@@@std@@AAEXXZ ; std::vector<CSphereCollisionInstance,std::allocator<CSphereCollisionInstance> >::_Tidy
PUBLIC	??_GSCollisionData@NRaceData@@UAEPAXI@Z		; NRaceData::SCollisionData::`scalar deleting destructor'
PUBLIC	??$?0$$V@?$_Compressed_pair@V?$allocator@D@std@@V?$_String_val@U?$_Simple_types@D@std@@@2@$00@std@@QAE@U_Zero_then_variadic_args_t@1@@Z ; std::_Compressed_pair<std::allocator<char>,std::_String_val<std::_Simple_types<char> >,1>::_Compressed_pair<std::allocator<char>,std::_String_val<std::_Simple_types<char> >,1><>
PUBLIC	??$_Destroy_in_place@PAD@std@@YAXAAPAD@Z	; std::_Destroy_in_place<char *>
PUBLIC	??$_Reallocate_for@V<lambda_9366063389c5f42a00a5088cf24e69de>@@PBD@?$basic_string@DU?$char_traits@D@std@@V?$allocator@D@2@@std@@AAEAAV01@IV<lambda_9366063389c5f42a00a5088cf24e69de>@@PBD@Z ; std::basic_string<char,std::char_traits<char>,std::allocator<char> >::_Reallocate_for<<lambda_9366063389c5f42a00a5088cf24e69de>,char const *>
PUBLIC	??$_Reallocate_grow_by@V<lambda_ab246b20b9526e2ef7792587e4298a77>@@PBDI@?$basic_string@DU?$char_traits@D@std@@V?$allocator@D@2@@std@@AAEAAV01@IV<lambda_ab246b20b9526e2ef7792587e4298a77>@@PBDI@Z ; std::basic_string<char,std::char_traits<char>,std::allocator<char> >::_Reallocate_grow_by<<lambda_ab246b20b9526e2ef7792587e4298a77>,char const *,unsigned int>
PUBLIC	??$_Construct_in_place@PADABQAD@std@@YAXAAPADABQAD@Z ; std::_Construct_in_place<char *,char * const &>
PUBLIC	??$_Pocma@V?$allocator@D@std@@@std@@YAXAAV?$allocator@D@0@0@Z ; std::_Pocma<std::allocator<char> >
PUBLIC	??$_Destroy_range@V?$allocator@VCSphereCollisionInstance@@@std@@@std@@YAXPAVCSphereCollisionInstance@@QAV1@AAV?$allocator@VCSphereCollisionInstance@@@0@@Z ; std::_Destroy_range<std::allocator<CSphereCollisionInstance> >
PUBLIC	??$_Deallocate@$07$0A@@std@@YAXPAXI@Z		; std::_Deallocate<8,0>
PUBLIC	??$_Allocate@$07U_Default_allocate_traits@std@@$0A@@std@@YAPAXI@Z ; std::_Allocate<8,std::_Default_allocate_traits,0>
PUBLIC	??$_Allocate_manually_vector_aligned@U_Default_allocate_traits@std@@@std@@YAPAXI@Z ; std::_Allocate_manually_vector_aligned<std::_Default_allocate_traits>
PUBLIC	??1?$vector@USSoundInstance@NSound@@V?$allocator@USSoundInstance@NSound@@@std@@@std@@QAE@XZ ; std::vector<NSound::SSoundInstance,std::allocator<NSound::SSoundInstance> >::~vector<NSound::SSoundInstance,std::allocator<NSound::SSoundInstance> >
PUBLIC	?clear@?$vector@USSoundInstance@NSound@@V?$allocator@USSoundInstance@NSound@@@std@@@std@@QAEXXZ ; std::vector<NSound::SSoundInstance,std::allocator<NSound::SSoundInstance> >::clear
PUBLIC	?_Tidy@?$vector@USSoundInstance@NSound@@V?$allocator@USSoundInstance@NSound@@@std@@@std@@AAEXXZ ; std::vector<NSound::SSoundInstance,std::allocator<NSound::SSoundInstance> >::_Tidy
PUBLIC	?Load@SMotionEventData@NMotionEvent@@UAE_NAAVCTextFileLoader@@@Z ; NMotionEvent::SMotionEventData::Load
PUBLIC	??_GSMotionEventData@NMotionEvent@@UAEPAXI@Z	; NMotionEvent::SMotionEventData::`scalar deleting destructor'
PUBLIC	?Save@SMotionEventDataScreenWaving@NMotionEvent@@UAEXPAU_iobuf@@H@Z ; NMotionEvent::SMotionEventDataScreenWaving::Save
PUBLIC	?Load@SMotionEventDataScreenWaving@NMotionEvent@@UAE_NAAVCTextFileLoader@@@Z ; NMotionEvent::SMotionEventDataScreenWaving::Load
PUBLIC	??_GSMotionEventDataScreenWaving@NMotionEvent@@UAEPAXI@Z ; NMotionEvent::SMotionEventDataScreenWaving::`scalar deleting destructor'
PUBLIC	??0SMotionEventDataEffect@NMotionEvent@@QAE@XZ	; NMotionEvent::SMotionEventDataEffect::SMotionEventDataEffect
PUBLIC	??1SMotionEventDataEffect@NMotionEvent@@UAE@XZ	; NMotionEvent::SMotionEventDataEffect::~SMotionEventDataEffect
PUBLIC	?Save@SMotionEventDataEffect@NMotionEvent@@UAEXPAU_iobuf@@H@Z ; NMotionEvent::SMotionEventDataEffect::Save
PUBLIC	?Load@SMotionEventDataEffect@NMotionEvent@@UAE_NAAVCTextFileLoader@@@Z ; NMotionEvent::SMotionEventDataEffect::Load
PUBLIC	??_GSMotionEventDataEffect@NMotionEvent@@UAEPAXI@Z ; NMotionEvent::SMotionEventDataEffect::`scalar deleting destructor'
PUBLIC	??0SMotionEventDataEffectToTarget@NMotionEvent@@QAE@XZ ; NMotionEvent::SMotionEventDataEffectToTarget::SMotionEventDataEffectToTarget
PUBLIC	?Save@SMotionEventDataEffectToTarget@NMotionEvent@@UAEXPAU_iobuf@@H@Z ; NMotionEvent::SMotionEventDataEffectToTarget::Save
PUBLIC	?Load@SMotionEventDataEffectToTarget@NMotionEvent@@UAE_NAAVCTextFileLoader@@@Z ; NMotionEvent::SMotionEventDataEffectToTarget::Load
PUBLIC	??_GSMotionEventDataEffectToTarget@NMotionEvent@@UAEPAXI@Z ; NMotionEvent::SMotionEventDataEffectToTarget::`scalar deleting destructor'
PUBLIC	??0SMotionEventDataFly@NMotionEvent@@QAE@XZ	; NMotionEvent::SMotionEventDataFly::SMotionEventDataFly
PUBLIC	??1SMotionEventDataFly@NMotionEvent@@UAE@XZ	; NMotionEvent::SMotionEventDataFly::~SMotionEventDataFly
PUBLIC	?Save@SMotionEventDataFly@NMotionEvent@@UAEXPAU_iobuf@@H@Z ; NMotionEvent::SMotionEventDataFly::Save
PUBLIC	?Load@SMotionEventDataFly@NMotionEvent@@UAE_NAAVCTextFileLoader@@@Z ; NMotionEvent::SMotionEventDataFly::Load
PUBLIC	??_GSMotionEventDataFly@NMotionEvent@@UAEPAXI@Z	; NMotionEvent::SMotionEventDataFly::`scalar deleting destructor'
PUBLIC	??0SMotionEventDataAttack@NMotionEvent@@QAE@XZ	; NMotionEvent::SMotionEventDataAttack::SMotionEventDataAttack
PUBLIC	??1SMotionEventDataAttack@NMotionEvent@@UAE@XZ	; NMotionEvent::SMotionEventDataAttack::~SMotionEventDataAttack
PUBLIC	?Save@SMotionEventDataAttack@NMotionEvent@@UAEXPAU_iobuf@@H@Z ; NMotionEvent::SMotionEventDataAttack::Save
PUBLIC	?Load@SMotionEventDataAttack@NMotionEvent@@UAE_NAAVCTextFileLoader@@@Z ; NMotionEvent::SMotionEventDataAttack::Load
PUBLIC	??_GSMotionEventDataAttack@NMotionEvent@@UAEPAXI@Z ; NMotionEvent::SMotionEventDataAttack::`scalar deleting destructor'
PUBLIC	??0SMotionEventDataSound@NMotionEvent@@QAE@XZ	; NMotionEvent::SMotionEventDataSound::SMotionEventDataSound
PUBLIC	?Save@SMotionEventDataSound@NMotionEvent@@UAEXPAU_iobuf@@H@Z ; NMotionEvent::SMotionEventDataSound::Save
PUBLIC	?Load@SMotionEventDataSound@NMotionEvent@@UAE_NAAVCTextFileLoader@@@Z ; NMotionEvent::SMotionEventDataSound::Load
PUBLIC	??_GSMotionEventDataSound@NMotionEvent@@UAEPAXI@Z ; NMotionEvent::SMotionEventDataSound::`scalar deleting destructor'
PUBLIC	?Save@SMotionEventDataCharacterShow@NMotionEvent@@UAEXPAU_iobuf@@H@Z ; NMotionEvent::SMotionEventDataCharacterShow::Save
PUBLIC	??_GSMotionEventDataCharacterShow@NMotionEvent@@UAEPAXI@Z ; NMotionEvent::SMotionEventDataCharacterShow::`scalar deleting destructor'
PUBLIC	?Save@SMotionEventDataCharacterHide@NMotionEvent@@UAEXPAU_iobuf@@H@Z ; NMotionEvent::SMotionEventDataCharacterHide::Save
PUBLIC	??_GSMotionEventDataCharacterHide@NMotionEvent@@UAEPAXI@Z ; NMotionEvent::SMotionEventDataCharacterHide::`scalar deleting destructor'
PUBLIC	?Save@SMotionEventDataWarp@NMotionEvent@@UAEXPAU_iobuf@@H@Z ; NMotionEvent::SMotionEventDataWarp::Save
PUBLIC	??_GSMotionEventDataWarp@NMotionEvent@@UAEPAXI@Z ; NMotionEvent::SMotionEventDataWarp::`scalar deleting destructor'
PUBLIC	?New@CRaceMotionData@@SAPAV1@XZ			; CRaceMotionData::New
PUBLIC	?Delete@CRaceMotionData@@SAXPAV1@@Z		; CRaceMotionData::Delete
PUBLIC	?CreateSystem@CRaceMotionData@@SAXI@Z		; CRaceMotionData::CreateSystem
PUBLIC	?DestroySystem@CRaceMotionData@@SAXXZ		; CRaceMotionData::DestroySystem
PUBLIC	??0CRaceMotionData@@QAE@XZ			; CRaceMotionData::CRaceMotionData
PUBLIC	??1CRaceMotionData@@UAE@XZ			; CRaceMotionData::~CRaceMotionData
PUBLIC	?Initialize@CRaceMotionData@@QAEXXZ		; CRaceMotionData::Initialize
PUBLIC	?Destroy@CRaceMotionData@@QAEXXZ		; CRaceMotionData::Destroy
PUBLIC	?SetName@CRaceMotionData@@QAEXI@Z		; CRaceMotionData::SetName
PUBLIC	?GetType@CRaceMotionData@@QBEIXZ		; CRaceMotionData::GetType
PUBLIC	?IsLock@CRaceMotionData@@QBE_NXZ		; CRaceMotionData::IsLock
PUBLIC	?GetLoopCount@CRaceMotionData@@QBEHXZ		; CRaceMotionData::GetLoopCount
PUBLIC	?GetMotionFileName@CRaceMotionData@@QBEPBDXZ	; CRaceMotionData::GetMotionFileName
PUBLIC	?GetSoundScriptFileName@CRaceMotionData@@QBEPBDXZ ; CRaceMotionData::GetSoundScriptFileName
PUBLIC	?SetMotionDuration@CRaceMotionData@@QAEXM@Z	; CRaceMotionData::SetMotionDuration
PUBLIC	?GetMotionDuration@CRaceMotionData@@QAEMXZ	; CRaceMotionData::GetMotionDuration
PUBLIC	?SetAccumulationPosition@CRaceMotionData@@QAEXABUD3DXVECTOR3@@@Z ; CRaceMotionData::SetAccumulationPosition
PUBLIC	?IsComboInputTimeData@CRaceMotionData@@QBEHXZ	; CRaceMotionData::IsComboInputTimeData
PUBLIC	?GetComboInputStartTime@CRaceMotionData@@QBEMXZ	; CRaceMotionData::GetComboInputStartTime
PUBLIC	?GetNextComboTime@CRaceMotionData@@QBEMXZ	; CRaceMotionData::GetNextComboTime
PUBLIC	?GetComboInputEndTime@CRaceMotionData@@QBEMXZ	; CRaceMotionData::GetComboInputEndTime
PUBLIC	?isAttackingMotion@CRaceMotionData@@QBEHXZ	; CRaceMotionData::isAttackingMotion
PUBLIC	?GetMotionAttackDataPointer@CRaceMotionData@@QBEPBUSMotionAttackData@NRaceData@@XZ ; CRaceMotionData::GetMotionAttackDataPointer
PUBLIC	?GetMotionAttackDataReference@CRaceMotionData@@QBEABUSMotionAttackData@NRaceData@@XZ ; CRaceMotionData::GetMotionAttackDataReference
PUBLIC	?HasSplashMotionEvent@CRaceMotionData@@QBEHXZ	; CRaceMotionData::HasSplashMotionEvent
PUBLIC	?IsCancelEnableSkill@CRaceMotionData@@QBEHXZ	; CRaceMotionData::IsCancelEnableSkill
PUBLIC	?IsLoopMotion@CRaceMotionData@@QBEHXZ		; CRaceMotionData::IsLoopMotion
PUBLIC	?GetLoopStartTime@CRaceMotionData@@QBEMXZ	; CRaceMotionData::GetLoopStartTime
PUBLIC	?GetLoopEndTime@CRaceMotionData@@QBEMXZ		; CRaceMotionData::GetLoopEndTime
PUBLIC	?GetMotionEventDataCount@CRaceMotionData@@QBEKXZ ; CRaceMotionData::GetMotionEventDataCount
PUBLIC	?GetMotionEventDataPointer@CRaceMotionData@@QBEHEPAPBUSMotionEventData@NMotionEvent@@@Z ; CRaceMotionData::GetMotionEventDataPointer
PUBLIC	?GetMotionAttackingEventDataPointer@CRaceMotionData@@QBEHEPAPBUSMotionEventDataAttack@NMotionEvent@@@Z ; CRaceMotionData::GetMotionAttackingEventDataPointer
PUBLIC	?GetEventType@CRaceMotionData@@QBEHK@Z		; CRaceMotionData::GetEventType
PUBLIC	?GetEventStartTime@CRaceMotionData@@QBEMK@Z	; CRaceMotionData::GetEventStartTime
PUBLIC	?GetSoundInstanceVectorPointer@CRaceMotionData@@QBEPBV?$vector@USSoundInstance@NSound@@V?$allocator@USSoundInstance@NSound@@@std@@@std@@XZ ; CRaceMotionData::GetSoundInstanceVectorPointer
PUBLIC	?LoadMotionData@CRaceMotionData@@QAE_NPBD@Z	; CRaceMotionData::LoadMotionData
PUBLIC	?LoadSoundScriptData@CRaceMotionData@@QAE_NPBD@Z ; CRaceMotionData::LoadSoundScriptData
PUBLIC	?SetType@CRaceMotionData@@IAEXI@Z		; CRaceMotionData::SetType
PUBLIC	?deallocate@?$allocator@PAUSMotionEventData@NMotionEvent@@@std@@QAEXQAPAUSMotionEventData@NMotionEvent@@I@Z ; std::allocator<NMotionEvent::SMotionEventData *>::deallocate
PUBLIC	??1?$vector@PAUSMotionEventData@NMotionEvent@@V?$allocator@PAUSMotionEventData@NMotionEvent@@@std@@@std@@QAE@XZ ; std::vector<NMotionEvent::SMotionEventData *,std::allocator<NMotionEvent::SMotionEventData *> >::~vector<NMotionEvent::SMotionEventData *,std::allocator<NMotionEvent::SMotionEventData *> >
PUBLIC	?clear@?$vector@PAUSMotionEventData@NMotionEvent@@V?$allocator@PAUSMotionEventData@NMotionEvent@@@std@@@std@@QAEXXZ ; std::vector<NMotionEvent::SMotionEventData *,std::allocator<NMotionEvent::SMotionEventData *> >::clear
PUBLIC	?_Destroy@?$vector@PAUSMotionEventData@NMotionEvent@@V?$allocator@PAUSMotionEventData@NMotionEvent@@@std@@@std@@AAEXPAPAUSMotionEventData@NMotionEvent@@0@Z ; std::vector<NMotionEvent::SMotionEventData *,std::allocator<NMotionEvent::SMotionEventData *> >::_Destroy
PUBLIC	?_Calculate_growth@?$vector@PAUSMotionEventData@NMotionEvent@@V?$allocator@PAUSMotionEventData@NMotionEvent@@@std@@@std@@ABEII@Z ; std::vector<NMotionEvent::SMotionEventData *,std::allocator<NMotionEvent::SMotionEventData *> >::_Calculate_growth
PUBLIC	?_Change_array@?$vector@PAUSMotionEventData@NMotionEvent@@V?$allocator@PAUSMotionEventData@NMotionEvent@@@std@@@std@@AAEXQAPAUSMotionEventData@NMotionEvent@@II@Z ; std::vector<NMotionEvent::SMotionEventData *,std::allocator<NMotionEvent::SMotionEventData *> >::_Change_array
PUBLIC	?_Tidy@?$vector@PAUSMotionEventData@NMotionEvent@@V?$allocator@PAUSMotionEventData@NMotionEvent@@@std@@@std@@AAEXXZ ; std::vector<NMotionEvent::SMotionEventData *,std::allocator<NMotionEvent::SMotionEventData *> >::_Tidy
PUBLIC	?_Xlength@?$vector@PAUSMotionEventData@NMotionEvent@@V?$allocator@PAUSMotionEventData@NMotionEvent@@@std@@@std@@CAXXZ ; std::vector<NMotionEvent::SMotionEventData *,std::allocator<NMotionEvent::SMotionEventData *> >::_Xlength
PUBLIC	?_Getal@?$vector@PAUSMotionEventData@NMotionEvent@@V?$allocator@PAUSMotionEventData@NMotionEvent@@@std@@@std@@AAEAAV?$allocator@PAUSMotionEventData@NMotionEvent@@@2@XZ ; std::vector<NMotionEvent::SMotionEventData *,std::allocator<NMotionEvent::SMotionEventData *> >::_Getal
PUBLIC	??_GCRaceMotionData@@UAEPAXI@Z			; CRaceMotionData::`scalar deleting destructor'
PUBLIC	??0?$CDynamicPool@VCRaceMotionData@@@@QAE@XZ	; CDynamicPool<CRaceMotionData>::CDynamicPool<CRaceMotionData>
PUBLIC	??1?$CDynamicPool@VCRaceMotionData@@@@UAE@XZ	; CDynamicPool<CRaceMotionData>::~CDynamicPool<CRaceMotionData>
PUBLIC	?Destroy@?$CDynamicPool@VCRaceMotionData@@@@QAEXXZ ; CDynamicPool<CRaceMotionData>::Destroy
PUBLIC	?Alloc@?$CDynamicPool@VCRaceMotionData@@@@QAEPAVCRaceMotionData@@XZ ; CDynamicPool<CRaceMotionData>::Alloc
PUBLIC	?Delete@?$CDynamicPool@VCRaceMotionData@@@@KAXPAVCRaceMotionData@@@Z ; CDynamicPool<CRaceMotionData>::Delete
PUBLIC	?deallocate@?$allocator@PAVCRaceMotionData@@@std@@QAEXQAPAVCRaceMotionData@@I@Z ; std::allocator<CRaceMotionData *>::deallocate
PUBLIC	?_Reallocate_exactly@?$vector@PAVCRaceMotionData@@V?$allocator@PAVCRaceMotionData@@@std@@@std@@AAEXI@Z ; std::vector<CRaceMotionData *,std::allocator<CRaceMotionData *> >::_Reallocate_exactly
PUBLIC	?reserve@?$vector@PAVCRaceMotionData@@V?$allocator@PAVCRaceMotionData@@@std@@@std@@QAEXI@Z ; std::vector<CRaceMotionData *,std::allocator<CRaceMotionData *> >::reserve
PUBLIC	?clear@?$vector@PAVCRaceMotionData@@V?$allocator@PAVCRaceMotionData@@@std@@@std@@QAEXXZ ; std::vector<CRaceMotionData *,std::allocator<CRaceMotionData *> >::clear
PUBLIC	?_Destroy@?$vector@PAVCRaceMotionData@@V?$allocator@PAVCRaceMotionData@@@std@@@std@@AAEXPAPAVCRaceMotionData@@0@Z ; std::vector<CRaceMotionData *,std::allocator<CRaceMotionData *> >::_Destroy
PUBLIC	?_Calculate_growth@?$vector@PAVCRaceMotionData@@V?$allocator@PAVCRaceMotionData@@@std@@@std@@ABEII@Z ; std::vector<CRaceMotionData *,std::allocator<CRaceMotionData *> >::_Calculate_growth
PUBLIC	?_Change_array@?$vector@PAVCRaceMotionData@@V?$allocator@PAVCRaceMotionData@@@std@@@std@@AAEXQAPAVCRaceMotionData@@II@Z ; std::vector<CRaceMotionData *,std::allocator<CRaceMotionData *> >::_Change_array
PUBLIC	?_Tidy@?$vector@PAVCRaceMotionData@@V?$allocator@PAVCRaceMotionData@@@std@@@std@@AAEXXZ ; std::vector<CRaceMotionData *,std::allocator<CRaceMotionData *> >::_Tidy
PUBLIC	?_Xlength@?$vector@PAVCRaceMotionData@@V?$allocator@PAVCRaceMotionData@@@std@@@std@@CAXXZ ; std::vector<CRaceMotionData *,std::allocator<CRaceMotionData *> >::_Xlength
PUBLIC	?_Getal@?$vector@PAVCRaceMotionData@@V?$allocator@PAVCRaceMotionData@@@std@@@std@@AAEAAV?$allocator@PAVCRaceMotionData@@@2@XZ ; std::vector<CRaceMotionData *,std::allocator<CRaceMotionData *> >::_Getal
PUBLIC	??_G?$CDynamicPool@VCRaceMotionData@@@@UAEPAXI@Z ; CDynamicPool<CRaceMotionData>::`scalar deleting destructor'
PUBLIC	??$stl_wipe@V?$vector@PAUSMotionEventData@NMotionEvent@@V?$allocator@PAUSMotionEventData@NMotionEvent@@@std@@@std@@@@YAXAAV?$vector@PAUSMotionEventData@NMotionEvent@@V?$allocator@PAUSMotionEventData@NMotionEvent@@@std@@@std@@@Z ; stl_wipe<std::vector<NMotionEvent::SMotionEventData *,std::allocator<NMotionEvent::SMotionEventData *> > >
PUBLIC	??1?$vector@USSoundData@NSound@@V?$allocator@USSoundData@NSound@@@std@@@std@@QAE@XZ ; std::vector<NSound::SSoundData,std::allocator<NSound::SSoundData> >::~vector<NSound::SSoundData,std::allocator<NSound::SSoundData> >
PUBLIC	?_Tidy@?$vector@USSoundData@NSound@@V?$allocator@USSoundData@NSound@@@std@@@std@@AAEXXZ ; std::vector<NSound::SSoundData,std::allocator<NSound::SSoundData> >::_Tidy
PUBLIC	??$_Resize@PAUSMotionEventData@NMotionEvent@@@?$vector@PAUSMotionEventData@NMotionEvent@@V?$allocator@PAUSMotionEventData@NMotionEvent@@@std@@@std@@AAEXIABQAUSMotionEventData@NMotionEvent@@@Z ; std::vector<NMotionEvent::SMotionEventData *,std::allocator<NMotionEvent::SMotionEventData *> >::_Resize<NMotionEvent::SMotionEventData *>
PUBLIC	??0?$CDynamicPoolEx@VCRotationDecorator@NEffectUpdateDecorator@@@@QAE@XZ ; CDynamicPoolEx<NEffectUpdateDecorator::CRotationDecorator>::CDynamicPoolEx<NEffectUpdateDecorator::CRotationDecorator>
PUBLIC	??1?$CDynamicPoolEx@VCRotationDecorator@NEffectUpdateDecorator@@@@UAE@XZ ; CDynamicPoolEx<NEffectUpdateDecorator::CRotationDecorator>::~CDynamicPoolEx<NEffectUpdateDecorator::CRotationDecorator>
PUBLIC	?Destroy@?$CDynamicPoolEx@VCRotationDecorator@NEffectUpdateDecorator@@@@QAEXXZ ; CDynamicPoolEx<NEffectUpdateDecorator::CRotationDecorator>::Destroy
PUBLIC	?Delete@?$CDynamicPoolEx@VCRotationDecorator@NEffectUpdateDecorator@@@@KAXPAVCRotationDecorator@NEffectUpdateDecorator@@@Z ; CDynamicPoolEx<NEffectUpdateDecorator::CRotationDecorator>::Delete
PUBLIC	?clear@?$vector@PAVCRotationDecorator@NEffectUpdateDecorator@@V?$allocator@PAVCRotationDecorator@NEffectUpdateDecorator@@@std@@@std@@QAEXXZ ; std::vector<NEffectUpdateDecorator::CRotationDecorator *,std::allocator<NEffectUpdateDecorator::CRotationDecorator *> >::clear
PUBLIC	?_Tidy@?$vector@PAVCRotationDecorator@NEffectUpdateDecorator@@V?$allocator@PAVCRotationDecorator@NEffectUpdateDecorator@@@std@@@std@@AAEXXZ ; std::vector<NEffectUpdateDecorator::CRotationDecorator *,std::allocator<NEffectUpdateDecorator::CRotationDecorator *> >::_Tidy
PUBLIC	??_G?$CDynamicPoolEx@VCRotationDecorator@NEffectUpdateDecorator@@@@UAEPAXI@Z ; CDynamicPoolEx<NEffectUpdateDecorator::CRotationDecorator>::`scalar deleting destructor'
PUBLIC	??0?$CDynamicPoolEx@VCGravityDecorator@NEffectUpdateDecorator@@@@QAE@XZ ; CDynamicPoolEx<NEffectUpdateDecorator::CGravityDecorator>::CDynamicPoolEx<NEffectUpdateDecorator::CGravityDecorator>
PUBLIC	??1?$CDynamicPoolEx@VCGravityDecorator@NEffectUpdateDecorator@@@@UAE@XZ ; CDynamicPoolEx<NEffectUpdateDecorator::CGravityDecorator>::~CDynamicPoolEx<NEffectUpdateDecorator::CGravityDecorator>
PUBLIC	?Destroy@?$CDynamicPoolEx@VCGravityDecorator@NEffectUpdateDecorator@@@@QAEXXZ ; CDynamicPoolEx<NEffectUpdateDecorator::CGravityDecorator>::Destroy
PUBLIC	?Delete@?$CDynamicPoolEx@VCGravityDecorator@NEffectUpdateDecorator@@@@KAXPAVCGravityDecorator@NEffectUpdateDecorator@@@Z ; CDynamicPoolEx<NEffectUpdateDecorator::CGravityDecorator>::Delete
PUBLIC	?clear@?$vector@PAVCGravityDecorator@NEffectUpdateDecorator@@V?$allocator@PAVCGravityDecorator@NEffectUpdateDecorator@@@std@@@std@@QAEXXZ ; std::vector<NEffectUpdateDecorator::CGravityDecorator *,std::allocator<NEffectUpdateDecorator::CGravityDecorator *> >::clear
PUBLIC	?_Tidy@?$vector@PAVCGravityDecorator@NEffectUpdateDecorator@@V?$allocator@PAVCGravityDecorator@NEffectUpdateDecorator@@@std@@@std@@AAEXXZ ; std::vector<NEffectUpdateDecorator::CGravityDecorator *,std::allocator<NEffectUpdateDecorator::CGravityDecorator *> >::_Tidy
PUBLIC	??_G?$CDynamicPoolEx@VCGravityDecorator@NEffectUpdateDecorator@@@@UAEPAXI@Z ; CDynamicPoolEx<NEffectUpdateDecorator::CGravityDecorator>::`scalar deleting destructor'
PUBLIC	??0?$CDynamicPoolEx@VCAirResistanceDecorator@NEffectUpdateDecorator@@@@QAE@XZ ; CDynamicPoolEx<NEffectUpdateDecorator::CAirResistanceDecorator>::CDynamicPoolEx<NEffectUpdateDecorator::CAirResistanceDecorator>
PUBLIC	??1?$CDynamicPoolEx@VCAirResistanceDecorator@NEffectUpdateDecorator@@@@UAE@XZ ; CDynamicPoolEx<NEffectUpdateDecorator::CAirResistanceDecorator>::~CDynamicPoolEx<NEffectUpdateDecorator::CAirResistanceDecorator>
PUBLIC	?Destroy@?$CDynamicPoolEx@VCAirResistanceDecorator@NEffectUpdateDecorator@@@@QAEXXZ ; CDynamicPoolEx<NEffectUpdateDecorator::CAirResistanceDecorator>::Destroy
PUBLIC	?Delete@?$CDynamicPoolEx@VCAirResistanceDecorator@NEffectUpdateDecorator@@@@KAXPAVCAirResistanceDecorator@NEffectUpdateDecorator@@@Z ; CDynamicPoolEx<NEffectUpdateDecorator::CAirResistanceDecorator>::Delete
PUBLIC	?clear@?$vector@PAVCAirResistanceDecorator@NEffectUpdateDecorator@@V?$allocator@PAVCAirResistanceDecorator@NEffectUpdateDecorator@@@std@@@std@@QAEXXZ ; std::vector<NEffectUpdateDecorator::CAirResistanceDecorator *,std::allocator<NEffectUpdateDecorator::CAirResistanceDecorator *> >::clear
PUBLIC	?_Tidy@?$vector@PAVCAirResistanceDecorator@NEffectUpdateDecorator@@V?$allocator@PAVCAirResistanceDecorator@NEffectUpdateDecorator@@@std@@@std@@AAEXXZ ; std::vector<NEffectUpdateDecorator::CAirResistanceDecorator *,std::allocator<NEffectUpdateDecorator::CAirResistanceDecorator *> >::_Tidy
PUBLIC	??_G?$CDynamicPoolEx@VCAirResistanceDecorator@NEffectUpdateDecorator@@@@UAEPAXI@Z ; CDynamicPoolEx<NEffectUpdateDecorator::CAirResistanceDecorator>::`scalar deleting destructor'
PUBLIC	??0?$CDynamicPoolEx@VCTextureAnimationRandomDecorator@NEffectUpdateDecorator@@@@QAE@XZ ; CDynamicPoolEx<NEffectUpdateDecorator::CTextureAnimationRandomDecorator>::CDynamicPoolEx<NEffectUpdateDecorator::CTextureAnimationRandomDecorator>
PUBLIC	??1?$CDynamicPoolEx@VCTextureAnimationRandomDecorator@NEffectUpdateDecorator@@@@UAE@XZ ; CDynamicPoolEx<NEffectUpdateDecorator::CTextureAnimationRandomDecorator>::~CDynamicPoolEx<NEffectUpdateDecorator::CTextureAnimationRandomDecorator>
PUBLIC	?Destroy@?$CDynamicPoolEx@VCTextureAnimationRandomDecorator@NEffectUpdateDecorator@@@@QAEXXZ ; CDynamicPoolEx<NEffectUpdateDecorator::CTextureAnimationRandomDecorator>::Destroy
PUBLIC	?Delete@?$CDynamicPoolEx@VCTextureAnimationRandomDecorator@NEffectUpdateDecorator@@@@KAXPAVCTextureAnimationRandomDecorator@NEffectUpdateDecorator@@@Z ; CDynamicPoolEx<NEffectUpdateDecorator::CTextureAnimationRandomDecorator>::Delete
PUBLIC	?clear@?$vector@PAVCTextureAnimationRandomDecorator@NEffectUpdateDecorator@@V?$allocator@PAVCTextureAnimationRandomDecorator@NEffectUpdateDecorator@@@std@@@std@@QAEXXZ ; std::vector<NEffectUpdateDecorator::CTextureAnimationRandomDecorator *,std::allocator<NEffectUpdateDecorator::CTextureAnimationRandomDecorator *> >::clear
PUBLIC	?_Tidy@?$vector@PAVCTextureAnimationRandomDecorator@NEffectUpdateDecorator@@V?$allocator@PAVCTextureAnimationRandomDecorator@NEffectUpdateDecorator@@@std@@@std@@AAEXXZ ; std::vector<NEffectUpdateDecorator::CTextureAnimationRandomDecorator *,std::allocator<NEffectUpdateDecorator::CTextureAnimationRandomDecorator *> >::_Tidy
PUBLIC	??_G?$CDynamicPoolEx@VCTextureAnimationRandomDecorator@NEffectUpdateDecorator@@@@UAEPAXI@Z ; CDynamicPoolEx<NEffectUpdateDecorator::CTextureAnimationRandomDecorator>::`scalar deleting destructor'
PUBLIC	??0?$CDynamicPoolEx@VCTextureAnimationCCWDecorator@NEffectUpdateDecorator@@@@QAE@XZ ; CDynamicPoolEx<NEffectUpdateDecorator::CTextureAnimationCCWDecorator>::CDynamicPoolEx<NEffectUpdateDecorator::CTextureAnimationCCWDecorator>
PUBLIC	??1?$CDynamicPoolEx@VCTextureAnimationCCWDecorator@NEffectUpdateDecorator@@@@UAE@XZ ; CDynamicPoolEx<NEffectUpdateDecorator::CTextureAnimationCCWDecorator>::~CDynamicPoolEx<NEffectUpdateDecorator::CTextureAnimationCCWDecorator>
PUBLIC	?Destroy@?$CDynamicPoolEx@VCTextureAnimationCCWDecorator@NEffectUpdateDecorator@@@@QAEXXZ ; CDynamicPoolEx<NEffectUpdateDecorator::CTextureAnimationCCWDecorator>::Destroy
PUBLIC	?Delete@?$CDynamicPoolEx@VCTextureAnimationCCWDecorator@NEffectUpdateDecorator@@@@KAXPAVCTextureAnimationCCWDecorator@NEffectUpdateDecorator@@@Z ; CDynamicPoolEx<NEffectUpdateDecorator::CTextureAnimationCCWDecorator>::Delete
PUBLIC	?clear@?$vector@PAVCTextureAnimationCCWDecorator@NEffectUpdateDecorator@@V?$allocator@PAVCTextureAnimationCCWDecorator@NEffectUpdateDecorator@@@std@@@std@@QAEXXZ ; std::vector<NEffectUpdateDecorator::CTextureAnimationCCWDecorator *,std::allocator<NEffectUpdateDecorator::CTextureAnimationCCWDecorator *> >::clear
PUBLIC	?_Tidy@?$vector@PAVCTextureAnimationCCWDecorator@NEffectUpdateDecorator@@V?$allocator@PAVCTextureAnimationCCWDecorator@NEffectUpdateDecorator@@@std@@@std@@AAEXXZ ; std::vector<NEffectUpdateDecorator::CTextureAnimationCCWDecorator *,std::allocator<NEffectUpdateDecorator::CTextureAnimationCCWDecorator *> >::_Tidy
PUBLIC	??_G?$CDynamicPoolEx@VCTextureAnimationCCWDecorator@NEffectUpdateDecorator@@@@UAEPAXI@Z ; CDynamicPoolEx<NEffectUpdateDecorator::CTextureAnimationCCWDecorator>::`scalar deleting destructor'
PUBLIC	??0?$CDynamicPoolEx@VCTextureAnimationCWDecorator@NEffectUpdateDecorator@@@@QAE@XZ ; CDynamicPoolEx<NEffectUpdateDecorator::CTextureAnimationCWDecorator>::CDynamicPoolEx<NEffectUpdateDecorator::CTextureAnimationCWDecorator>
PUBLIC	??1?$CDynamicPoolEx@VCTextureAnimationCWDecorator@NEffectUpdateDecorator@@@@UAE@XZ ; CDynamicPoolEx<NEffectUpdateDecorator::CTextureAnimationCWDecorator>::~CDynamicPoolEx<NEffectUpdateDecorator::CTextureAnimationCWDecorator>
PUBLIC	?Destroy@?$CDynamicPoolEx@VCTextureAnimationCWDecorator@NEffectUpdateDecorator@@@@QAEXXZ ; CDynamicPoolEx<NEffectUpdateDecorator::CTextureAnimationCWDecorator>::Destroy
PUBLIC	?Delete@?$CDynamicPoolEx@VCTextureAnimationCWDecorator@NEffectUpdateDecorator@@@@KAXPAVCTextureAnimationCWDecorator@NEffectUpdateDecorator@@@Z ; CDynamicPoolEx<NEffectUpdateDecorator::CTextureAnimationCWDecorator>::Delete
PUBLIC	?clear@?$vector@PAVCTextureAnimationCWDecorator@NEffectUpdateDecorator@@V?$allocator@PAVCTextureAnimationCWDecorator@NEffectUpdateDecorator@@@std@@@std@@QAEXXZ ; std::vector<NEffectUpdateDecorator::CTextureAnimationCWDecorator *,std::allocator<NEffectUpdateDecorator::CTextureAnimationCWDecorator *> >::clear
PUBLIC	?_Tidy@?$vector@PAVCTextureAnimationCWDecorator@NEffectUpdateDecorator@@V?$allocator@PAVCTextureAnimationCWDecorator@NEffectUpdateDecorator@@@std@@@std@@AAEXXZ ; std::vector<NEffectUpdateDecorator::CTextureAnimationCWDecorator *,std::allocator<NEffectUpdateDecorator::CTextureAnimationCWDecorator *> >::_Tidy
PUBLIC	??_G?$CDynamicPoolEx@VCTextureAnimationCWDecorator@NEffectUpdateDecorator@@@@UAEPAXI@Z ; CDynamicPoolEx<NEffectUpdateDecorator::CTextureAnimationCWDecorator>::`scalar deleting destructor'
PUBLIC	??0?$CDynamicPoolEx@VCNullDecorator@NEffectUpdateDecorator@@@@QAE@XZ ; CDynamicPoolEx<NEffectUpdateDecorator::CNullDecorator>::CDynamicPoolEx<NEffectUpdateDecorator::CNullDecorator>
PUBLIC	??1?$CDynamicPoolEx@VCNullDecorator@NEffectUpdateDecorator@@@@UAE@XZ ; CDynamicPoolEx<NEffectUpdateDecorator::CNullDecorator>::~CDynamicPoolEx<NEffectUpdateDecorator::CNullDecorator>
PUBLIC	?Destroy@?$CDynamicPoolEx@VCNullDecorator@NEffectUpdateDecorator@@@@QAEXXZ ; CDynamicPoolEx<NEffectUpdateDecorator::CNullDecorator>::Destroy
PUBLIC	?Delete@?$CDynamicPoolEx@VCNullDecorator@NEffectUpdateDecorator@@@@KAXPAVCNullDecorator@NEffectUpdateDecorator@@@Z ; CDynamicPoolEx<NEffectUpdateDecorator::CNullDecorator>::Delete
PUBLIC	?clear@?$vector@PAVCNullDecorator@NEffectUpdateDecorator@@V?$allocator@PAVCNullDecorator@NEffectUpdateDecorator@@@std@@@std@@QAEXXZ ; std::vector<NEffectUpdateDecorator::CNullDecorator *,std::allocator<NEffectUpdateDecorator::CNullDecorator *> >::clear
PUBLIC	?_Tidy@?$vector@PAVCNullDecorator@NEffectUpdateDecorator@@V?$allocator@PAVCNullDecorator@NEffectUpdateDecorator@@@std@@@std@@AAEXXZ ; std::vector<NEffectUpdateDecorator::CNullDecorator *,std::allocator<NEffectUpdateDecorator::CNullDecorator *> >::_Tidy
PUBLIC	??_G?$CDynamicPoolEx@VCNullDecorator@NEffectUpdateDecorator@@@@UAEPAXI@Z ; CDynamicPoolEx<NEffectUpdateDecorator::CNullDecorator>::`scalar deleting destructor'
PUBLIC	??0?$CDynamicPoolEx@VCHeaderDecorator@NEffectUpdateDecorator@@@@QAE@XZ ; CDynamicPoolEx<NEffectUpdateDecorator::CHeaderDecorator>::CDynamicPoolEx<NEffectUpdateDecorator::CHeaderDecorator>
PUBLIC	??1?$CDynamicPoolEx@VCHeaderDecorator@NEffectUpdateDecorator@@@@UAE@XZ ; CDynamicPoolEx<NEffectUpdateDecorator::CHeaderDecorator>::~CDynamicPoolEx<NEffectUpdateDecorator::CHeaderDecorator>
PUBLIC	?Destroy@?$CDynamicPoolEx@VCHeaderDecorator@NEffectUpdateDecorator@@@@QAEXXZ ; CDynamicPoolEx<NEffectUpdateDecorator::CHeaderDecorator>::Destroy
PUBLIC	?Delete@?$CDynamicPoolEx@VCHeaderDecorator@NEffectUpdateDecorator@@@@KAXPAVCHeaderDecorator@NEffectUpdateDecorator@@@Z ; CDynamicPoolEx<NEffectUpdateDecorator::CHeaderDecorator>::Delete
PUBLIC	?clear@?$vector@PAVCHeaderDecorator@NEffectUpdateDecorator@@V?$allocator@PAVCHeaderDecorator@NEffectUpdateDecorator@@@std@@@std@@QAEXXZ ; std::vector<NEffectUpdateDecorator::CHeaderDecorator *,std::allocator<NEffectUpdateDecorator::CHeaderDecorator *> >::clear
PUBLIC	?_Tidy@?$vector@PAVCHeaderDecorator@NEffectUpdateDecorator@@V?$allocator@PAVCHeaderDecorator@NEffectUpdateDecorator@@@std@@@std@@AAEXXZ ; std::vector<NEffectUpdateDecorator::CHeaderDecorator *,std::allocator<NEffectUpdateDecorator::CHeaderDecorator *> >::_Tidy
PUBLIC	??_G?$CDynamicPoolEx@VCHeaderDecorator@NEffectUpdateDecorator@@@@UAEPAXI@Z ; CDynamicPoolEx<NEffectUpdateDecorator::CHeaderDecorator>::`scalar deleting destructor'
PUBLIC	??$emplace_back@ABQAVCRaceMotionData@@@?$vector@PAVCRaceMotionData@@V?$allocator@PAVCRaceMotionData@@@std@@@std@@QAEXABQAVCRaceMotionData@@@Z ; std::vector<CRaceMotionData *,std::allocator<CRaceMotionData *> >::emplace_back<CRaceMotionData * const &>
PUBLIC	??$_Emplace_back_with_unused_capacity@ABQAVCRaceMotionData@@@?$vector@PAVCRaceMotionData@@V?$allocator@PAVCRaceMotionData@@@std@@@std@@AAEXABQAVCRaceMotionData@@@Z ; std::vector<CRaceMotionData *,std::allocator<CRaceMotionData *> >::_Emplace_back_with_unused_capacity<CRaceMotionData * const &>
PUBLIC	??$_Emplace_reallocate@ABQAVCRaceMotionData@@@?$vector@PAVCRaceMotionData@@V?$allocator@PAVCRaceMotionData@@@std@@@std@@QAEPAPAVCRaceMotionData@@QAPAV2@ABQAV2@@Z ; std::vector<CRaceMotionData *,std::allocator<CRaceMotionData *> >::_Emplace_reallocate<CRaceMotionData * const &>
PUBLIC	??$for_each@V?$_Vector_iterator@V?$_Vector_val@U?$_Simple_types@PAVCRaceMotionData@@@std@@@std@@@std@@P6AXPAVCRaceMotionData@@@Z@std@@YAP6AXPAVCRaceMotionData@@@ZV?$_Vector_iterator@V?$_Vector_val@U?$_Simple_types@PAVCRaceMotionData@@@std@@@std@@@0@1P6AX0@Z@Z ; std::for_each<std::_Vector_iterator<std::_Vector_val<std::_Simple_types<CRaceMotionData *> > >,void (__cdecl*)(CRaceMotionData *)>
PUBLIC	??$_Destroy_range@V?$allocator@PAUSMotionEventData@NMotionEvent@@@std@@@std@@YAXPAPAUSMotionEventData@NMotionEvent@@QAPAU12@AAV?$allocator@PAUSMotionEventData@NMotionEvent@@@0@@Z ; std::_Destroy_range<std::allocator<NMotionEvent::SMotionEventData *> >
PUBLIC	??$_Destroy_range@V?$allocator@USSoundInstance@NSound@@@std@@@std@@YAXPAUSSoundInstance@NSound@@QAU12@AAV?$allocator@USSoundInstance@NSound@@@0@@Z ; std::_Destroy_range<std::allocator<NSound::SSoundInstance> >
PUBLIC	??$for_each@V?$_Vector_iterator@V?$_Vector_val@U?$_Simple_types@PAVCHeaderDecorator@NEffectUpdateDecorator@@@std@@@std@@@std@@P6AXPAVCHeaderDecorator@NEffectUpdateDecorator@@@Z@std@@YAP6AXPAVCHeaderDecorator@NEffectUpdateDecorator@@@ZV?$_Vector_iterator@V?$_Vector_val@U?$_Simple_types@PAVCHeaderDecorator@NEffectUpdateDecorator@@@std@@@std@@@0@1P6AX0@Z@Z ; std::for_each<std::_Vector_iterator<std::_Vector_val<std::_Simple_types<NEffectUpdateDecorator::CHeaderDecorator *> > >,void (__cdecl*)(NEffectUpdateDecorator::CHeaderDecorator *)>
PUBLIC	??$for_each@V?$_Vector_iterator@V?$_Vector_val@U?$_Simple_types@PAVCNullDecorator@NEffectUpdateDecorator@@@std@@@std@@@std@@P6AXPAVCNullDecorator@NEffectUpdateDecorator@@@Z@std@@YAP6AXPAVCNullDecorator@NEffectUpdateDecorator@@@ZV?$_Vector_iterator@V?$_Vector_val@U?$_Simple_types@PAVCNullDecorator@NEffectUpdateDecorator@@@std@@@std@@@0@1P6AX0@Z@Z ; std::for_each<std::_Vector_iterator<std::_Vector_val<std::_Simple_types<NEffectUpdateDecorator::CNullDecorator *> > >,void (__cdecl*)(NEffectUpdateDecorator::CNullDecorator *)>
PUBLIC	??$for_each@V?$_Vector_iterator@V?$_Vector_val@U?$_Simple_types@PAVCTextureAnimationCWDecorator@NEffectUpdateDecorator@@@std@@@std@@@std@@P6AXPAVCTextureAnimationCWDecorator@NEffectUpdateDecorator@@@Z@std@@YAP6AXPAVCTextureAnimationCWDecorator@NEffectUpdateDecorator@@@ZV?$_Vector_iterator@V?$_Vector_val@U?$_Simple_types@PAVCTextureAnimationCWDecorator@NEffectUpdateDecorator@@@std@@@std@@@0@1P6AX0@Z@Z ; std::for_each<std::_Vector_iterator<std::_Vector_val<std::_Simple_types<NEffectUpdateDecorator::CTextureAnimationCWDecorator *> > >,void (__cdecl*)(NEffectUpdateDecorator::CTextureAnimationCWDecorator *)>
PUBLIC	??$for_each@V?$_Vector_iterator@V?$_Vector_val@U?$_Simple_types@PAVCTextureAnimationCCWDecorator@NEffectUpdateDecorator@@@std@@@std@@@std@@P6AXPAVCTextureAnimationCCWDecorator@NEffectUpdateDecorator@@@Z@std@@YAP6AXPAVCTextureAnimationCCWDecorator@NEffectUpdateDecorator@@@ZV?$_Vector_iterator@V?$_Vector_val@U?$_Simple_types@PAVCTextureAnimationCCWDecorator@NEffectUpdateDecorator@@@std@@@std@@@0@1P6AX0@Z@Z ; std::for_each<std::_Vector_iterator<std::_Vector_val<std::_Simple_types<NEffectUpdateDecorator::CTextureAnimationCCWDecorator *> > >,void (__cdecl*)(NEffectUpdateDecorator::CTextureAnimationCCWDecorator *)>
PUBLIC	??$for_each@V?$_Vector_iterator@V?$_Vector_val@U?$_Simple_types@PAVCTextureAnimationRandomDecorator@NEffectUpdateDecorator@@@std@@@std@@@std@@P6AXPAVCTextureAnimationRandomDecorator@NEffectUpdateDecorator@@@Z@std@@YAP6AXPAVCTextureAnimationRandomDecorator@NEffectUpdateDecorator@@@ZV?$_Vector_iterator@V?$_Vector_val@U?$_Simple_types@PAVCTextureAnimationRandomDecorator@NEffectUpdateDecorator@@@std@@@std@@@0@1P6AX0@Z@Z ; std::for_each<std::_Vector_iterator<std::_Vector_val<std::_Simple_types<NEffectUpdateDecorator::CTextureAnimationRandomDecorator *> > >,void (__cdecl*)(NEffectUpdateDecorator::CTextureAnimationRandomDecorator *)>
PUBLIC	??$for_each@V?$_Vector_iterator@V?$_Vector_val@U?$_Simple_types@PAVCAirResistanceDecorator@NEffectUpdateDecorator@@@std@@@std@@@std@@P6AXPAVCAirResistanceDecorator@NEffectUpdateDecorator@@@Z@std@@YAP6AXPAVCAirResistanceDecorator@NEffectUpdateDecorator@@@ZV?$_Vector_iterator@V?$_Vector_val@U?$_Simple_types@PAVCAirResistanceDecorator@NEffectUpdateDecorator@@@std@@@std@@@0@1P6AX0@Z@Z ; std::for_each<std::_Vector_iterator<std::_Vector_val<std::_Simple_types<NEffectUpdateDecorator::CAirResistanceDecorator *> > >,void (__cdecl*)(NEffectUpdateDecorator::CAirResistanceDecorator *)>
PUBLIC	??$for_each@V?$_Vector_iterator@V?$_Vector_val@U?$_Simple_types@PAVCGravityDecorator@NEffectUpdateDecorator@@@std@@@std@@@std@@P6AXPAVCGravityDecorator@NEffectUpdateDecorator@@@Z@std@@YAP6AXPAVCGravityDecorator@NEffectUpdateDecorator@@@ZV?$_Vector_iterator@V?$_Vector_val@U?$_Simple_types@PAVCGravityDecorator@NEffectUpdateDecorator@@@std@@@std@@@0@1P6AX0@Z@Z ; std::for_each<std::_Vector_iterator<std::_Vector_val<std::_Simple_types<NEffectUpdateDecorator::CGravityDecorator *> > >,void (__cdecl*)(NEffectUpdateDecorator::CGravityDecorator *)>
PUBLIC	??$for_each@V?$_Vector_iterator@V?$_Vector_val@U?$_Simple_types@PAVCRotationDecorator@NEffectUpdateDecorator@@@std@@@std@@@std@@P6AXPAVCRotationDecorator@NEffectUpdateDecorator@@@Z@std@@YAP6AXPAVCRotationDecorator@NEffectUpdateDecorator@@@ZV?$_Vector_iterator@V?$_Vector_val@U?$_Simple_types@PAVCRotationDecorator@NEffectUpdateDecorator@@@std@@@std@@@0@1P6AX0@Z@Z ; std::for_each<std::_Vector_iterator<std::_Vector_val<std::_Simple_types<NEffectUpdateDecorator::CRotationDecorator *> > >,void (__cdecl*)(NEffectUpdateDecorator::CRotationDecorator *)>
PUBLIC	??$_Destroy_range@V?$allocator@USSoundData@NSound@@@std@@@std@@YAXPAUSSoundData@NSound@@QAU12@AAV?$allocator@USSoundData@NSound@@@0@@Z ; std::_Destroy_range<std::allocator<NSound::SSoundData> >
PUBLIC	??$_Destroy_range@V?$allocator@USHitData@NRaceData@@@std@@@std@@YAXPAUSHitData@NRaceData@@QAU12@AAV?$allocator@USHitData@NRaceData@@@0@@Z ; std::_Destroy_range<std::allocator<NRaceData::SHitData> >
PUBLIC	??$_Destroy_range@V?$allocator@PAVCRaceMotionData@@@std@@@std@@YAXPAPAVCRaceMotionData@@QAPAV1@AAV?$allocator@PAVCRaceMotionData@@@0@@Z ; std::_Destroy_range<std::allocator<CRaceMotionData *> >
PUBLIC	??$_Destroy_range@V?$allocator@PAVCHeaderDecorator@NEffectUpdateDecorator@@@std@@@std@@YAXPAPAVCHeaderDecorator@NEffectUpdateDecorator@@QAPAV12@AAV?$allocator@PAVCHeaderDecorator@NEffectUpdateDecorator@@@0@@Z ; std::_Destroy_range<std::allocator<NEffectUpdateDecorator::CHeaderDecorator *> >
PUBLIC	??$_Destroy_range@V?$allocator@PAVCNullDecorator@NEffectUpdateDecorator@@@std@@@std@@YAXPAPAVCNullDecorator@NEffectUpdateDecorator@@QAPAV12@AAV?$allocator@PAVCNullDecorator@NEffectUpdateDecorator@@@0@@Z ; std::_Destroy_range<std::allocator<NEffectUpdateDecorator::CNullDecorator *> >
PUBLIC	??$_Destroy_range@V?$allocator@PAVCTextureAnimationCWDecorator@NEffectUpdateDecorator@@@std@@@std@@YAXPAPAVCTextureAnimationCWDecorator@NEffectUpdateDecorator@@QAPAV12@AAV?$allocator@PAVCTextureAnimationCWDecorator@NEffectUpdateDecorator@@@0@@Z ; std::_Destroy_range<std::allocator<NEffectUpdateDecorator::CTextureAnimationCWDecorator *> >
PUBLIC	??$_Destroy_range@V?$allocator@PAVCTextureAnimationCCWDecorator@NEffectUpdateDecorator@@@std@@@std@@YAXPAPAVCTextureAnimationCCWDecorator@NEffectUpdateDecorator@@QAPAV12@AAV?$allocator@PAVCTextureAnimationCCWDecorator@NEffectUpdateDecorator@@@0@@Z ; std::_Destroy_range<std::allocator<NEffectUpdateDecorator::CTextureAnimationCCWDecorator *> >
PUBLIC	??$_Destroy_range@V?$allocator@PAVCTextureAnimationRandomDecorator@NEffectUpdateDecorator@@@std@@@std@@YAXPAPAVCTextureAnimationRandomDecorator@NEffectUpdateDecorator@@QAPAV12@AAV?$allocator@PAVCTextureAnimationRandomDecorator@NEffectUpdateDecorator@@@0@@Z ; std::_Destroy_range<std::allocator<NEffectUpdateDecorator::CTextureAnimationRandomDecorator *> >
PUBLIC	??$_Destroy_range@V?$allocator@PAVCAirResistanceDecorator@NEffectUpdateDecorator@@@std@@@std@@YAXPAPAVCAirResistanceDecorator@NEffectUpdateDecorator@@QAPAV12@AAV?$allocator@PAVCAirResistanceDecorator@NEffectUpdateDecorator@@@0@@Z ; std::_Destroy_range<std::allocator<NEffectUpdateDecorator::CAirResistanceDecorator *> >
PUBLIC	??$_Destroy_range@V?$allocator@PAVCGravityDecorator@NEffectUpdateDecorator@@@std@@@std@@YAXPAPAVCGravityDecorator@NEffectUpdateDecorator@@QAPAV12@AAV?$allocator@PAVCGravityDecorator@NEffectUpdateDecorator@@@0@@Z ; std::_Destroy_range<std::allocator<NEffectUpdateDecorator::CGravityDecorator *> >
PUBLIC	??$_Destroy_range@V?$allocator@PAVCRotationDecorator@NEffectUpdateDecorator@@@std@@@std@@YAXPAPAVCRotationDecorator@NEffectUpdateDecorator@@QAPAV12@AAV?$allocator@PAVCRotationDecorator@NEffectUpdateDecorator@@@0@@Z ; std::_Destroy_range<std::allocator<NEffectUpdateDecorator::CRotationDecorator *> >
PUBLIC	??$_Uninitialized_move@PAPAVCRaceMotionData@@V?$allocator@PAVCRaceMotionData@@@std@@@std@@YAPAPAVCRaceMotionData@@QAPAV1@0PAPAV1@AAV?$allocator@PAVCRaceMotionData@@@0@@Z ; std::_Uninitialized_move<CRaceMotionData * *,std::allocator<CRaceMotionData *> >
PUBLIC	??$_Resize_reallocate@PAUSMotionEventData@NMotionEvent@@@?$vector@PAUSMotionEventData@NMotionEvent@@V?$allocator@PAUSMotionEventData@NMotionEvent@@@std@@@std@@AAEXIABQAUSMotionEventData@NMotionEvent@@@Z ; std::vector<NMotionEvent::SMotionEventData *,std::allocator<NMotionEvent::SMotionEventData *> >::_Resize_reallocate<NMotionEvent::SMotionEventData *>
PUBLIC	??$_Copy_memmove@PAPAVCRaceMotionData@@PAPAV1@@std@@YAPAPAVCRaceMotionData@@PAPAV1@00@Z ; std::_Copy_memmove<CRaceMotionData * *,CRaceMotionData * *>
PUBLIC	??$_Uninitialized_fill_n@V?$allocator@PAUSMotionEventData@NMotionEvent@@@std@@@std@@YAPAPAUSMotionEventData@NMotionEvent@@PAPAU12@IABQAU12@AAV?$allocator@PAUSMotionEventData@NMotionEvent@@@0@@Z ; std::_Uninitialized_fill_n<std::allocator<NMotionEvent::SMotionEventData *> >
PUBLIC	??$_Uninitialized_move@PAPAUSMotionEventData@NMotionEvent@@V?$allocator@PAUSMotionEventData@NMotionEvent@@@std@@@std@@YAPAPAUSMotionEventData@NMotionEvent@@QAPAU12@0PAPAU12@AAV?$allocator@PAUSMotionEventData@NMotionEvent@@@0@@Z ; std::_Uninitialized_move<NMotionEvent::SMotionEventData * *,std::allocator<NMotionEvent::SMotionEventData *> >
PUBLIC	??$_Erase_tree@V?$allocator@U?$_Tree_node@U?$pair@$$CBMUCDynamicSphereInstance@@@std@@PAX@std@@@std@@@?$_Tree_val@U?$_Tree_simple_types@U?$pair@$$CBMUCDynamicSphereInstance@@@std@@@std@@@std@@QAEXAAV?$allocator@U?$_Tree_node@U?$pair@$$CBMUCDynamicSphereInstance@@@std@@PAX@std@@@1@PAU?$_Tree_node@U?$pair@$$CBMUCDynamicSphereInstance@@@std@@PAX@1@@Z ; std::_Tree_val<std::_Tree_simple_types<std::pair<float const ,CDynamicSphereInstance> > >::_Erase_tree<std::allocator<std::_Tree_node<std::pair<float const ,CDynamicSphereInstance>,void *> > >
PUBLIC	??$_Freenode0@V?$allocator@U?$_Tree_node@U?$pair@$$CBMUCDynamicSphereInstance@@@std@@PAX@std@@@std@@@?$_Tree_node@U?$pair@$$CBMUCDynamicSphereInstance@@@std@@PAX@std@@SAXAAV?$allocator@U?$_Tree_node@U?$pair@$$CBMUCDynamicSphereInstance@@@std@@PAX@std@@@1@PAU01@@Z ; std::_Tree_node<std::pair<float const ,CDynamicSphereInstance>,void *>::_Freenode0<std::allocator<std::_Tree_node<std::pair<float const ,CDynamicSphereInstance>,void *> > >
PUBLIC	??$_Copy_memmove@PAPAUSMotionEventData@NMotionEvent@@PAPAU12@@std@@YAPAPAUSMotionEventData@NMotionEvent@@PAPAU12@00@Z ; std::_Copy_memmove<NMotionEvent::SMotionEventData * *,NMotionEvent::SMotionEventData * *>
PUBLIC	??$_Destroy_in_place@PAU?$_Tree_node@U?$pair@$$CBMUCDynamicSphereInstance@@@std@@PAX@std@@@std@@YAXAAPAU?$_Tree_node@U?$pair@$$CBMUCDynamicSphereInstance@@@std@@PAX@0@@Z ; std::_Destroy_in_place<std::_Tree_node<std::pair<float const ,CDynamicSphereInstance>,void *> *>
PUBLIC	??_7exception@std@@6B@				; std::exception::`vftable'
PUBLIC	??_C@_0BC@EOODALEL@Unknown?5exception@		; `string'
PUBLIC	??_7bad_alloc@std@@6B@				; std::bad_alloc::`vftable'
PUBLIC	??_7bad_array_new_length@std@@6B@		; std::bad_array_new_length::`vftable'
PUBLIC	??_C@_0BF@KINCDENJ@bad?5array?5new?5length@	; `string'
PUBLIC	__TI3?AVbad_array_new_length@std@@
PUBLIC	__CTA3?AVbad_array_new_length@std@@
PUBLIC	??_R0?AVbad_array_new_length@std@@@8		; std::bad_array_new_length `RTTI Type Descriptor'
PUBLIC	__CT??_R0?AVbad_array_new_length@std@@@8??0bad_array_new_length@std@@QAE@ABV01@@Z12
PUBLIC	??_R0?AVbad_alloc@std@@@8			; std::bad_alloc `RTTI Type Descriptor'
PUBLIC	__CT??_R0?AVbad_alloc@std@@@8??0bad_alloc@std@@QAE@ABV01@@Z12
PUBLIC	??_R0?AVexception@std@@@8			; std::exception `RTTI Type Descriptor'
PUBLIC	__CT??_R0?AVexception@std@@@8??0exception@std@@QAE@ABV01@@Z12
PUBLIC	??_C@_0BA@JFNIOLAK@string?5too?5long@		; `string'
PUBLIC	??_7SCollisionData@NRaceData@@6B@		; NRaceData::SCollisionData::`vftable'
PUBLIC	??_C@_0BI@CFPLBAOH@invalid?5string?5position@	; `string'
PUBLIC	??_R4exception@std@@6B@				; std::exception::`RTTI Complete Object Locator'
PUBLIC	??_R3exception@std@@8				; std::exception::`RTTI Class Hierarchy Descriptor'
PUBLIC	??_R2exception@std@@8				; std::exception::`RTTI Base Class Array'
PUBLIC	??_R1A@?0A@EA@exception@std@@8			; std::exception::`RTTI Base Class Descriptor at (0,-1,0,64)'
PUBLIC	??_R4bad_alloc@std@@6B@				; std::bad_alloc::`RTTI Complete Object Locator'
PUBLIC	??_R3bad_alloc@std@@8				; std::bad_alloc::`RTTI Class Hierarchy Descriptor'
PUBLIC	??_R2bad_alloc@std@@8				; std::bad_alloc::`RTTI Base Class Array'
PUBLIC	??_R1A@?0A@EA@bad_alloc@std@@8			; std::bad_alloc::`RTTI Base Class Descriptor at (0,-1,0,64)'
PUBLIC	??_R4bad_array_new_length@std@@6B@		; std::bad_array_new_length::`RTTI Complete Object Locator'
PUBLIC	??_R3bad_array_new_length@std@@8		; std::bad_array_new_length::`RTTI Class Hierarchy Descriptor'
PUBLIC	??_R2bad_array_new_length@std@@8		; std::bad_array_new_length::`RTTI Base Class Array'
PUBLIC	??_R1A@?0A@EA@bad_array_new_length@std@@8	; std::bad_array_new_length::`RTTI Base Class Descriptor at (0,-1,0,64)'
PUBLIC	??_R4SCollisionData@NRaceData@@6B@		; NRaceData::SCollisionData::`RTTI Complete Object Locator'
PUBLIC	??_R0?AUSCollisionData@NRaceData@@@8		; NRaceData::SCollisionData `RTTI Type Descriptor'
PUBLIC	??_R3SCollisionData@NRaceData@@8		; NRaceData::SCollisionData::`RTTI Class Hierarchy Descriptor'
PUBLIC	??_R2SCollisionData@NRaceData@@8		; NRaceData::SCollisionData::`RTTI Base Class Array'
PUBLIC	??_R1A@?0A@EA@SCollisionData@NRaceData@@8	; NRaceData::SCollisionData::`RTTI Base Class Descriptor at (0,-1,0,64)'
PUBLIC	?ms_kPool@?$CPooledObject@VCHeaderDecorator@NEffectUpdateDecorator@@@@1V?$CDynamicPoolEx@VCHeaderDecorator@NEffectUpdateDecorator@@@@A ; CPooledObject<NEffectUpdateDecorator::CHeaderDecorator>::ms_kPool
PUBLIC	?ms_kPool@?$CPooledObject@VCNullDecorator@NEffectUpdateDecorator@@@@1V?$CDynamicPoolEx@VCNullDecorator@NEffectUpdateDecorator@@@@A ; CPooledObject<NEffectUpdateDecorator::CNullDecorator>::ms_kPool
PUBLIC	?ms_kPool@?$CPooledObject@VCTextureAnimationCWDecorator@NEffectUpdateDecorator@@@@1V?$CDynamicPoolEx@VCTextureAnimationCWDecorator@NEffectUpdateDecorator@@@@A ; CPooledObject<NEffectUpdateDecorator::CTextureAnimationCWDecorator>::ms_kPool
PUBLIC	?ms_kPool@?$CPooledObject@VCTextureAnimationCCWDecorator@NEffectUpdateDecorator@@@@1V?$CDynamicPoolEx@VCTextureAnimationCCWDecorator@NEffectUpdateDecorator@@@@A ; CPooledObject<NEffectUpdateDecorator::CTextureAnimationCCWDecorator>::ms_kPool
PUBLIC	?ms_kPool@?$CPooledObject@VCTextureAnimationRandomDecorator@NEffectUpdateDecorator@@@@1V?$CDynamicPoolEx@VCTextureAnimationRandomDecorator@NEffectUpdateDecorator@@@@A ; CPooledObject<NEffectUpdateDecorator::CTextureAnimationRandomDecorator>::ms_kPool
PUBLIC	?ms_kPool@?$CPooledObject@VCAirResistanceDecorator@NEffectUpdateDecorator@@@@1V?$CDynamicPoolEx@VCAirResistanceDecorator@NEffectUpdateDecorator@@@@A ; CPooledObject<NEffectUpdateDecorator::CAirResistanceDecorator>::ms_kPool
PUBLIC	?ms_kPool@?$CPooledObject@VCGravityDecorator@NEffectUpdateDecorator@@@@1V?$CDynamicPoolEx@VCGravityDecorator@NEffectUpdateDecorator@@@@A ; CPooledObject<NEffectUpdateDecorator::CGravityDecorator>::ms_kPool
PUBLIC	?ms_kPool@?$CPooledObject@VCRotationDecorator@NEffectUpdateDecorator@@@@1V?$CDynamicPoolEx@VCRotationDecorator@NEffectUpdateDecorator@@@@A ; CPooledObject<NEffectUpdateDecorator::CRotationDecorator>::ms_kPool
PUBLIC	?ms_singleton@?$CSingleton@VCEffectManager@@@@0PAVCEffectManager@@A ; CSingleton<CEffectManager>::ms_singleton
PUBLIC	?ms_singleton@?$CSingleton@VCFlyingManager@@@@0PAVCFlyingManager@@A ; CSingleton<CFlyingManager>::ms_singleton
PUBLIC	??_7SMotionEventData@NMotionEvent@@6B@		; NMotionEvent::SMotionEventData::`vftable'
PUBLIC	??_7SMotionEventDataScreenWaving@NMotionEvent@@6B@ ; NMotionEvent::SMotionEventDataScreenWaving::`vftable'
PUBLIC	??_C@_01EEMJAFIK@?6@				; `string'
PUBLIC	??_C@_0BJ@JOLNCGNF@DuringTime?5?5?5?5?5?5?5?5?5?5?5?$CFf?6@ ; `string'
PUBLIC	??_C@_0BJ@FEKHNOBC@Power?5?5?5?5?5?5?5?5?5?5?5?5?5?5?5?5?$CFd?6@ ; `string'
PUBLIC	??_C@_0BJ@KLBKOEEF@AffectingRange?5?5?5?5?5?5?5?$CFd?6@ ; `string'
PUBLIC	??_C@_0L@KJGFIEPL@duringtime@			; `string'
PUBLIC	??_C@_05PLIADJJL@power@				; `string'
PUBLIC	??_C@_0P@JIGGKKJB@affectingrange@		; `string'
PUBLIC	??_7SMotionEventDataEffect@NMotionEvent@@6B@	; NMotionEvent::SMotionEventDataEffect::`vftable'
PUBLIC	??_C@_0BJ@EFAIBPHL@IndependentFlag?5?5?5?5?5?5?$CFd?6@ ; `string'
PUBLIC	??_C@_0BJ@LAKEIKLD@AttachingEnable?5?5?5?5?5?5?$CFd?6@ ; `string'
PUBLIC	??_C@_0BL@PLABIPOF@AttachingBoneName?5?5?5?5?$CC?$CFs?$CC?6@ ; `string'
PUBLIC	??_C@_0BJ@NDNPFOND@FollowingEnable?5?5?5?5?5?5?$CFd?6@ ; `string'
PUBLIC	??_C@_0BL@OHMOOLCL@EffectFileName?5?5?5?5?5?5?5?$CC?$CFs?$CC?6@ ; `string'
PUBLIC	??_C@_0BP@CFDDPJAK@EffectPosition?5?5?5?5?5?5?5?$CFf?5?$CFf?5?$CFf?6@ ; `string'
PUBLIC	??_C@_0BA@MCOMBMGO@independentflag@		; `string'
PUBLIC	??_C@_0BA@HJAHPMOG@attachingenable@		; `string'
PUBLIC	??_C@_0BC@FCIOLNPK@attachingbonename@		; `string'
PUBLIC	??_C@_0P@MBGGNLC@effectfilename@		; `string'
PUBLIC	??_C@_0P@PMGDNJPL@effectposition@		; `string'
PUBLIC	??_C@_0BA@DEKLACIK@followingenable@		; `string'
PUBLIC	??_7SMotionEventDataEffectToTarget@NMotionEvent@@6B@ ; NMotionEvent::SMotionEventDataEffectToTarget::`vftable'
PUBLIC	??_C@_0BJ@ECHDEMEM@FishingEffectFlag?5?5?5?5?$CFd?6@ ; `string'
PUBLIC	??_C@_0BC@PGIDKNAJ@fishingeffectflag@		; `string'
PUBLIC	??_7SMotionEventDataFly@NMotionEvent@@6B@	; NMotionEvent::SMotionEventDataFly::`vftable'
PUBLIC	??_C@_0BI@MFBAEGBD@FlyFileName?5?5?5?5?5?5?5?$CC?$CFs?$CC?6@ ; `string'
PUBLIC	??_C@_0BM@LNHEOAC@FlyPosition?5?5?5?5?5?5?5?$CFf?5?$CFf?5?$CFf?6@ ; `string'
PUBLIC	??_C@_0M@BKDIDPMI@flyfilename@			; `string'
PUBLIC	??_C@_0M@OKENILIB@flyposition@			; `string'
PUBLIC	??_7SMotionEventDataAttack@NMotionEvent@@6B@	; NMotionEvent::SMotionEventDataAttack::`vftable'
PUBLIC	??_C@_0BJ@DAILMIKJ@EnableHitProcess?5?5?5?5?5?$CFd?6@ ; `string'
PUBLIC	??_C@_0BB@NODGLCEN@enablehitprocess@		; `string'
PUBLIC	??_7SMotionEventDataSound@NMotionEvent@@6B@	; NMotionEvent::SMotionEventDataSound::`vftable'
PUBLIC	??_C@_0BL@OCKKLAAD@SoundFileName?5?5?5?5?5?5?5?5?$CC?$CFs?$CC?6@ ; `string'
PUBLIC	??_C@_0O@POGBJFAA@soundfilename@		; `string'
PUBLIC	??_7SMotionEventDataCharacterShow@NMotionEvent@@6B@ ; NMotionEvent::SMotionEventDataCharacterShow::`vftable'
PUBLIC	??_7SMotionEventDataCharacterHide@NMotionEvent@@6B@ ; NMotionEvent::SMotionEventDataCharacterHide::`vftable'
PUBLIC	??_7SMotionEventDataWarp@NMotionEvent@@6B@	; NMotionEvent::SMotionEventDataWarp::`vftable'
PUBLIC	?ms_kPool@CRaceMotionData@@1V?$CDynamicPool@VCRaceMotionData@@@@A ; CRaceMotionData::ms_kPool
PUBLIC	??_7CRaceMotionData@@6B@			; CRaceMotionData::`vftable'
PUBLIC	??_7?$CDynamicPool@VCRaceMotionData@@@@6B@	; CDynamicPool<CRaceMotionData>::`vftable'
PUBLIC	??_C@_0CL@NGIMIHAA@CRaceMotionData?3?3SetName?5?9?5UNKN@ ; `string'
PUBLIC	??_C@_0P@IGAOIDID@motionfilename@		; `string'
PUBLIC	??_C@_0P@CAAIIAIN@motionduration@		; `string'
PUBLIC	??_C@_0N@JBNPINGA@accumulation@			; `string'
PUBLIC	??_C@_0EP@FGBECHEA@CRaceMotioNData?3?3LoadMotionData@ ; `string'
PUBLIC	??_C@_0P@BEGKENNC@comboinputdata@		; `string'
PUBLIC	??_C@_0N@IKJEINLI@preinputtime@			; `string'
PUBLIC	??_C@_0BA@OKILMLFK@directinputtime@		; `string'
PUBLIC	??_C@_0P@PPFBMGLB@inputlimittime@		; `string'
PUBLIC	??_C@_0O@NGMBMFEH@attackingdata@		; `string'
PUBLIC	??_C@_08BMIAMBLK@loopdata@			; `string'
PUBLIC	??_C@_0BA@HKGDAAAM@motionloopcount@		; `string'
PUBLIC	??_C@_0BB@LFNJMKIF@loopcancelenable@		; `string'
PUBLIC	??_C@_0O@FAMGINHI@loopstarttime@		; `string'
PUBLIC	??_C@_0M@HIAPALPD@loopendtime@			; `string'
PUBLIC	??_C@_0BA@LAEICHPP@motioneventdata@		; `string'
PUBLIC	??_C@_0BF@KNDELFNF@motioneventdatacount@	; `string'
PUBLIC	??_C@_05GFHEIIDD@event@				; `string'
PUBLIC	??_C@_0BA@CGGAKCNF@motioneventtype@		; `string'
PUBLIC	??_C@_0N@NHFBHOF@startingtime@			; `string'
PUBLIC	??_C@_04NMMFEKGF@?4mss@				; `string'
PUBLIC	??_C@_06PBLIODKG@sound?1@			; `string'
PUBLIC	??_7?$CDynamicPoolEx@VCRotationDecorator@NEffectUpdateDecorator@@@@6B@ ; CDynamicPoolEx<NEffectUpdateDecorator::CRotationDecorator>::`vftable'
PUBLIC	??_7?$CDynamicPoolEx@VCGravityDecorator@NEffectUpdateDecorator@@@@6B@ ; CDynamicPoolEx<NEffectUpdateDecorator::CGravityDecorator>::`vftable'
PUBLIC	??_7?$CDynamicPoolEx@VCAirResistanceDecorator@NEffectUpdateDecorator@@@@6B@ ; CDynamicPoolEx<NEffectUpdateDecorator::CAirResistanceDecorator>::`vftable'
PUBLIC	??_7?$CDynamicPoolEx@VCTextureAnimationRandomDecorator@NEffectUpdateDecorator@@@@6B@ ; CDynamicPoolEx<NEffectUpdateDecorator::CTextureAnimationRandomDecorator>::`vftable'
PUBLIC	??_7?$CDynamicPoolEx@VCTextureAnimationCCWDecorator@NEffectUpdateDecorator@@@@6B@ ; CDynamicPoolEx<NEffectUpdateDecorator::CTextureAnimationCCWDecorator>::`vftable'
PUBLIC	??_7?$CDynamicPoolEx@VCTextureAnimationCWDecorator@NEffectUpdateDecorator@@@@6B@ ; CDynamicPoolEx<NEffectUpdateDecorator::CTextureAnimationCWDecorator>::`vftable'
PUBLIC	??_7?$CDynamicPoolEx@VCNullDecorator@NEffectUpdateDecorator@@@@6B@ ; CDynamicPoolEx<NEffectUpdateDecorator::CNullDecorator>::`vftable'
PUBLIC	??_7?$CDynamicPoolEx@VCHeaderDecorator@NEffectUpdateDecorator@@@@6B@ ; CDynamicPoolEx<NEffectUpdateDecorator::CHeaderDecorator>::`vftable'
PUBLIC	??_C@_0BJ@DHFDPMIM@invalid?5vector?5subscript@	; `string'
PUBLIC	??_C@_0BA@FOIKENOD@vector?5too?5long@		; `string'
PUBLIC	??_R4?$CDynamicPoolEx@VCHeaderDecorator@NEffectUpdateDecorator@@@@6B@ ; CDynamicPoolEx<NEffectUpdateDecorator::CHeaderDecorator>::`RTTI Complete Object Locator'
PUBLIC	??_R0?AV?$CDynamicPoolEx@VCHeaderDecorator@NEffectUpdateDecorator@@@@@8 ; CDynamicPoolEx<NEffectUpdateDecorator::CHeaderDecorator> `RTTI Type Descriptor'
PUBLIC	??_R3?$CDynamicPoolEx@VCHeaderDecorator@NEffectUpdateDecorator@@@@8 ; CDynamicPoolEx<NEffectUpdateDecorator::CHeaderDecorator>::`RTTI Class Hierarchy Descriptor'
PUBLIC	??_R2?$CDynamicPoolEx@VCHeaderDecorator@NEffectUpdateDecorator@@@@8 ; CDynamicPoolEx<NEffectUpdateDecorator::CHeaderDecorator>::`RTTI Base Class Array'
PUBLIC	??_R1A@?0A@EA@?$CDynamicPoolEx@VCHeaderDecorator@NEffectUpdateDecorator@@@@8 ; CDynamicPoolEx<NEffectUpdateDecorator::CHeaderDecorator>::`RTTI Base Class Descriptor at (0,-1,0,64)'
PUBLIC	??_R4?$CDynamicPoolEx@VCNullDecorator@NEffectUpdateDecorator@@@@6B@ ; CDynamicPoolEx<NEffectUpdateDecorator::CNullDecorator>::`RTTI Complete Object Locator'
PUBLIC	??_R0?AV?$CDynamicPoolEx@VCNullDecorator@NEffectUpdateDecorator@@@@@8 ; CDynamicPoolEx<NEffectUpdateDecorator::CNullDecorator> `RTTI Type Descriptor'
PUBLIC	??_R3?$CDynamicPoolEx@VCNullDecorator@NEffectUpdateDecorator@@@@8 ; CDynamicPoolEx<NEffectUpdateDecorator::CNullDecorator>::`RTTI Class Hierarchy Descriptor'
PUBLIC	??_R2?$CDynamicPoolEx@VCNullDecorator@NEffectUpdateDecorator@@@@8 ; CDynamicPoolEx<NEffectUpdateDecorator::CNullDecorator>::`RTTI Base Class Array'
PUBLIC	??_R1A@?0A@EA@?$CDynamicPoolEx@VCNullDecorator@NEffectUpdateDecorator@@@@8 ; CDynamicPoolEx<NEffectUpdateDecorator::CNullDecorator>::`RTTI Base Class Descriptor at (0,-1,0,64)'
PUBLIC	??_R4?$CDynamicPoolEx@VCTextureAnimationCWDecorator@NEffectUpdateDecorator@@@@6B@ ; CDynamicPoolEx<NEffectUpdateDecorator::CTextureAnimationCWDecorator>::`RTTI Complete Object Locator'
PUBLIC	??_R0?AV?$CDynamicPoolEx@VCTextureAnimationCWDecorator@NEffectUpdateDecorator@@@@@8 ; CDynamicPoolEx<NEffectUpdateDecorator::CTextureAnimationCWDecorator> `RTTI Type Descriptor'
PUBLIC	??_R3?$CDynamicPoolEx@VCTextureAnimationCWDecorator@NEffectUpdateDecorator@@@@8 ; CDynamicPoolEx<NEffectUpdateDecorator::CTextureAnimationCWDecorator>::`RTTI Class Hierarchy Descriptor'
PUBLIC	??_R2?$CDynamicPoolEx@VCTextureAnimationCWDecorator@NEffectUpdateDecorator@@@@8 ; CDynamicPoolEx<NEffectUpdateDecorator::CTextureAnimationCWDecorator>::`RTTI Base Class Array'
PUBLIC	??_R1A@?0A@EA@?$CDynamicPoolEx@VCTextureAnimationCWDecorator@NEffectUpdateDecorator@@@@8 ; CDynamicPoolEx<NEffectUpdateDecorator::CTextureAnimationCWDecorator>::`RTTI Base Class Descriptor at (0,-1,0,64)'
PUBLIC	??_R4?$CDynamicPoolEx@VCTextureAnimationCCWDecorator@NEffectUpdateDecorator@@@@6B@ ; CDynamicPoolEx<NEffectUpdateDecorator::CTextureAnimationCCWDecorator>::`RTTI Complete Object Locator'
PUBLIC	??_R0?AV?$CDynamicPoolEx@VCTextureAnimationCCWDecorator@NEffectUpdateDecorator@@@@@8 ; CDynamicPoolEx<NEffectUpdateDecorator::CTextureAnimationCCWDecorator> `RTTI Type Descriptor'
PUBLIC	??_R3?$CDynamicPoolEx@VCTextureAnimationCCWDecorator@NEffectUpdateDecorator@@@@8 ; CDynamicPoolEx<NEffectUpdateDecorator::CTextureAnimationCCWDecorator>::`RTTI Class Hierarchy Descriptor'
PUBLIC	??_R2?$CDynamicPoolEx@VCTextureAnimationCCWDecorator@NEffectUpdateDecorator@@@@8 ; CDynamicPoolEx<NEffectUpdateDecorator::CTextureAnimationCCWDecorator>::`RTTI Base Class Array'
PUBLIC	??_R1A@?0A@EA@?$CDynamicPoolEx@VCTextureAnimationCCWDecorator@NEffectUpdateDecorator@@@@8 ; CDynamicPoolEx<NEffectUpdateDecorator::CTextureAnimationCCWDecorator>::`RTTI Base Class Descriptor at (0,-1,0,64)'
PUBLIC	??_R4?$CDynamicPoolEx@VCTextureAnimationRandomDecorator@NEffectUpdateDecorator@@@@6B@ ; CDynamicPoolEx<NEffectUpdateDecorator::CTextureAnimationRandomDecorator>::`RTTI Complete Object Locator'
PUBLIC	??_R0?AV?$CDynamicPoolEx@VCTextureAnimationRandomDecorator@NEffectUpdateDecorator@@@@@8 ; CDynamicPoolEx<NEffectUpdateDecorator::CTextureAnimationRandomDecorator> `RTTI Type Descriptor'
PUBLIC	??_R3?$CDynamicPoolEx@VCTextureAnimationRandomDecorator@NEffectUpdateDecorator@@@@8 ; CDynamicPoolEx<NEffectUpdateDecorator::CTextureAnimationRandomDecorator>::`RTTI Class Hierarchy Descriptor'
PUBLIC	??_R2?$CDynamicPoolEx@VCTextureAnimationRandomDecorator@NEffectUpdateDecorator@@@@8 ; CDynamicPoolEx<NEffectUpdateDecorator::CTextureAnimationRandomDecorator>::`RTTI Base Class Array'
PUBLIC	??_R1A@?0A@EA@?$CDynamicPoolEx@VCTextureAnimationRandomDecorator@NEffectUpdateDecorator@@@@8 ; CDynamicPoolEx<NEffectUpdateDecorator::CTextureAnimationRandomDecorator>::`RTTI Base Class Descriptor at (0,-1,0,64)'
PUBLIC	??_R4?$CDynamicPoolEx@VCAirResistanceDecorator@NEffectUpdateDecorator@@@@6B@ ; CDynamicPoolEx<NEffectUpdateDecorator::CAirResistanceDecorator>::`RTTI Complete Object Locator'
PUBLIC	??_R0?AV?$CDynamicPoolEx@VCAirResistanceDecorator@NEffectUpdateDecorator@@@@@8 ; CDynamicPoolEx<NEffectUpdateDecorator::CAirResistanceDecorator> `RTTI Type Descriptor'
PUBLIC	??_R3?$CDynamicPoolEx@VCAirResistanceDecorator@NEffectUpdateDecorator@@@@8 ; CDynamicPoolEx<NEffectUpdateDecorator::CAirResistanceDecorator>::`RTTI Class Hierarchy Descriptor'
PUBLIC	??_R2?$CDynamicPoolEx@VCAirResistanceDecorator@NEffectUpdateDecorator@@@@8 ; CDynamicPoolEx<NEffectUpdateDecorator::CAirResistanceDecorator>::`RTTI Base Class Array'
PUBLIC	??_R1A@?0A@EA@?$CDynamicPoolEx@VCAirResistanceDecorator@NEffectUpdateDecorator@@@@8 ; CDynamicPoolEx<NEffectUpdateDecorator::CAirResistanceDecorator>::`RTTI Base Class Descriptor at (0,-1,0,64)'
PUBLIC	??_R4?$CDynamicPoolEx@VCGravityDecorator@NEffectUpdateDecorator@@@@6B@ ; CDynamicPoolEx<NEffectUpdateDecorator::CGravityDecorator>::`RTTI Complete Object Locator'
PUBLIC	??_R0?AV?$CDynamicPoolEx@VCGravityDecorator@NEffectUpdateDecorator@@@@@8 ; CDynamicPoolEx<NEffectUpdateDecorator::CGravityDecorator> `RTTI Type Descriptor'
PUBLIC	??_R3?$CDynamicPoolEx@VCGravityDecorator@NEffectUpdateDecorator@@@@8 ; CDynamicPoolEx<NEffectUpdateDecorator::CGravityDecorator>::`RTTI Class Hierarchy Descriptor'
PUBLIC	??_R2?$CDynamicPoolEx@VCGravityDecorator@NEffectUpdateDecorator@@@@8 ; CDynamicPoolEx<NEffectUpdateDecorator::CGravityDecorator>::`RTTI Base Class Array'
PUBLIC	??_R1A@?0A@EA@?$CDynamicPoolEx@VCGravityDecorator@NEffectUpdateDecorator@@@@8 ; CDynamicPoolEx<NEffectUpdateDecorator::CGravityDecorator>::`RTTI Base Class Descriptor at (0,-1,0,64)'
PUBLIC	??_R4?$CDynamicPoolEx@VCRotationDecorator@NEffectUpdateDecorator@@@@6B@ ; CDynamicPoolEx<NEffectUpdateDecorator::CRotationDecorator>::`RTTI Complete Object Locator'
PUBLIC	??_R0?AV?$CDynamicPoolEx@VCRotationDecorator@NEffectUpdateDecorator@@@@@8 ; CDynamicPoolEx<NEffectUpdateDecorator::CRotationDecorator> `RTTI Type Descriptor'
PUBLIC	??_R3?$CDynamicPoolEx@VCRotationDecorator@NEffectUpdateDecorator@@@@8 ; CDynamicPoolEx<NEffectUpdateDecorator::CRotationDecorator>::`RTTI Class Hierarchy Descriptor'
PUBLIC	??_R2?$CDynamicPoolEx@VCRotationDecorator@NEffectUpdateDecorator@@@@8 ; CDynamicPoolEx<NEffectUpdateDecorator::CRotationDecorator>::`RTTI Base Class Array'
PUBLIC	??_R1A@?0A@EA@?$CDynamicPoolEx@VCRotationDecorator@NEffectUpdateDecorator@@@@8 ; CDynamicPoolEx<NEffectUpdateDecorator::CRotationDecorator>::`RTTI Base Class Descriptor at (0,-1,0,64)'
PUBLIC	??_R4SMotionEventData@NMotionEvent@@6B@		; NMotionEvent::SMotionEventData::`RTTI Complete Object Locator'
PUBLIC	??_R0?AUSMotionEventData@NMotionEvent@@@8	; NMotionEvent::SMotionEventData `RTTI Type Descriptor'
PUBLIC	??_R3SMotionEventData@NMotionEvent@@8		; NMotionEvent::SMotionEventData::`RTTI Class Hierarchy Descriptor'
PUBLIC	??_R2SMotionEventData@NMotionEvent@@8		; NMotionEvent::SMotionEventData::`RTTI Base Class Array'
PUBLIC	??_R1A@?0A@EA@SMotionEventData@NMotionEvent@@8	; NMotionEvent::SMotionEventData::`RTTI Base Class Descriptor at (0,-1,0,64)'
PUBLIC	??_R4SMotionEventDataScreenWaving@NMotionEvent@@6B@ ; NMotionEvent::SMotionEventDataScreenWaving::`RTTI Complete Object Locator'
PUBLIC	??_R0?AUSMotionEventDataScreenWaving@NMotionEvent@@@8 ; NMotionEvent::SMotionEventDataScreenWaving `RTTI Type Descriptor'
PUBLIC	??_R3SMotionEventDataScreenWaving@NMotionEvent@@8 ; NMotionEvent::SMotionEventDataScreenWaving::`RTTI Class Hierarchy Descriptor'
PUBLIC	??_R2SMotionEventDataScreenWaving@NMotionEvent@@8 ; NMotionEvent::SMotionEventDataScreenWaving::`RTTI Base Class Array'
PUBLIC	??_R1A@?0A@EA@SMotionEventDataScreenWaving@NMotionEvent@@8 ; NMotionEvent::SMotionEventDataScreenWaving::`RTTI Base Class Descriptor at (0,-1,0,64)'
PUBLIC	??_R4SMotionEventDataEffect@NMotionEvent@@6B@	; NMotionEvent::SMotionEventDataEffect::`RTTI Complete Object Locator'
PUBLIC	??_R0?AUSMotionEventDataEffect@NMotionEvent@@@8	; NMotionEvent::SMotionEventDataEffect `RTTI Type Descriptor'
PUBLIC	??_R3SMotionEventDataEffect@NMotionEvent@@8	; NMotionEvent::SMotionEventDataEffect::`RTTI Class Hierarchy Descriptor'
PUBLIC	??_R2SMotionEventDataEffect@NMotionEvent@@8	; NMotionEvent::SMotionEventDataEffect::`RTTI Base Class Array'
PUBLIC	??_R1A@?0A@EA@SMotionEventDataEffect@NMotionEvent@@8 ; NMotionEvent::SMotionEventDataEffect::`RTTI Base Class Descriptor at (0,-1,0,64)'
PUBLIC	??_R4SMotionEventDataEffectToTarget@NMotionEvent@@6B@ ; NMotionEvent::SMotionEventDataEffectToTarget::`RTTI Complete Object Locator'
PUBLIC	??_R0?AUSMotionEventDataEffectToTarget@NMotionEvent@@@8 ; NMotionEvent::SMotionEventDataEffectToTarget `RTTI Type Descriptor'
PUBLIC	??_R3SMotionEventDataEffectToTarget@NMotionEvent@@8 ; NMotionEvent::SMotionEventDataEffectToTarget::`RTTI Class Hierarchy Descriptor'
PUBLIC	??_R2SMotionEventDataEffectToTarget@NMotionEvent@@8 ; NMotionEvent::SMotionEventDataEffectToTarget::`RTTI Base Class Array'
PUBLIC	??_R1A@?0A@EA@SMotionEventDataEffectToTarget@NMotionEvent@@8 ; NMotionEvent::SMotionEventDataEffectToTarget::`RTTI Base Class Descriptor at (0,-1,0,64)'
PUBLIC	??_R4SMotionEventDataFly@NMotionEvent@@6B@	; NMotionEvent::SMotionEventDataFly::`RTTI Complete Object Locator'
PUBLIC	??_R0?AUSMotionEventDataFly@NMotionEvent@@@8	; NMotionEvent::SMotionEventDataFly `RTTI Type Descriptor'
PUBLIC	??_R3SMotionEventDataFly@NMotionEvent@@8	; NMotionEvent::SMotionEventDataFly::`RTTI Class Hierarchy Descriptor'
PUBLIC	??_R2SMotionEventDataFly@NMotionEvent@@8	; NMotionEvent::SMotionEventDataFly::`RTTI Base Class Array'
PUBLIC	??_R1A@?0A@EA@SMotionEventDataFly@NMotionEvent@@8 ; NMotionEvent::SMotionEventDataFly::`RTTI Base Class Descriptor at (0,-1,0,64)'
PUBLIC	??_R4SMotionEventDataAttack@NMotionEvent@@6B@	; NMotionEvent::SMotionEventDataAttack::`RTTI Complete Object Locator'
PUBLIC	??_R0?AUSMotionEventDataAttack@NMotionEvent@@@8	; NMotionEvent::SMotionEventDataAttack `RTTI Type Descriptor'
PUBLIC	??_R3SMotionEventDataAttack@NMotionEvent@@8	; NMotionEvent::SMotionEventDataAttack::`RTTI Class Hierarchy Descriptor'
PUBLIC	??_R2SMotionEventDataAttack@NMotionEvent@@8	; NMotionEvent::SMotionEventDataAttack::`RTTI Base Class Array'
PUBLIC	??_R1A@?0A@EA@SMotionEventDataAttack@NMotionEvent@@8 ; NMotionEvent::SMotionEventDataAttack::`RTTI Base Class Descriptor at (0,-1,0,64)'
PUBLIC	??_R4SMotionEventDataSound@NMotionEvent@@6B@	; NMotionEvent::SMotionEventDataSound::`RTTI Complete Object Locator'
PUBLIC	??_R0?AUSMotionEventDataSound@NMotionEvent@@@8	; NMotionEvent::SMotionEventDataSound `RTTI Type Descriptor'
PUBLIC	??_R3SMotionEventDataSound@NMotionEvent@@8	; NMotionEvent::SMotionEventDataSound::`RTTI Class Hierarchy Descriptor'
PUBLIC	??_R2SMotionEventDataSound@NMotionEvent@@8	; NMotionEvent::SMotionEventDataSound::`RTTI Base Class Array'
PUBLIC	??_R1A@?0A@EA@SMotionEventDataSound@NMotionEvent@@8 ; NMotionEvent::SMotionEventDataSound::`RTTI Base Class Descriptor at (0,-1,0,64)'
PUBLIC	??_R4SMotionEventDataCharacterShow@NMotionEvent@@6B@ ; NMotionEvent::SMotionEventDataCharacterShow::`RTTI Complete Object Locator'
PUBLIC	??_R0?AUSMotionEventDataCharacterShow@NMotionEvent@@@8 ; NMotionEvent::SMotionEventDataCharacterShow `RTTI Type Descriptor'
PUBLIC	??_R3SMotionEventDataCharacterShow@NMotionEvent@@8 ; NMotionEvent::SMotionEventDataCharacterShow::`RTTI Class Hierarchy Descriptor'
PUBLIC	??_R2SMotionEventDataCharacterShow@NMotionEvent@@8 ; NMotionEvent::SMotionEventDataCharacterShow::`RTTI Base Class Array'
PUBLIC	??_R1A@?0A@EA@SMotionEventDataCharacterShow@NMotionEvent@@8 ; NMotionEvent::SMotionEventDataCharacterShow::`RTTI Base Class Descriptor at (0,-1,0,64)'
PUBLIC	??_R4SMotionEventDataCharacterHide@NMotionEvent@@6B@ ; NMotionEvent::SMotionEventDataCharacterHide::`RTTI Complete Object Locator'
PUBLIC	??_R0?AUSMotionEventDataCharacterHide@NMotionEvent@@@8 ; NMotionEvent::SMotionEventDataCharacterHide `RTTI Type Descriptor'
PUBLIC	??_R3SMotionEventDataCharacterHide@NMotionEvent@@8 ; NMotionEvent::SMotionEventDataCharacterHide::`RTTI Class Hierarchy Descriptor'
PUBLIC	??_R2SMotionEventDataCharacterHide@NMotionEvent@@8 ; NMotionEvent::SMotionEventDataCharacterHide::`RTTI Base Class Array'
PUBLIC	??_R1A@?0A@EA@SMotionEventDataCharacterHide@NMotionEvent@@8 ; NMotionEvent::SMotionEventDataCharacterHide::`RTTI Base Class Descriptor at (0,-1,0,64)'
PUBLIC	??_R4SMotionEventDataWarp@NMotionEvent@@6B@	; NMotionEvent::SMotionEventDataWarp::`RTTI Complete Object Locator'
PUBLIC	??_R0?AUSMotionEventDataWarp@NMotionEvent@@@8	; NMotionEvent::SMotionEventDataWarp `RTTI Type Descriptor'
PUBLIC	??_R3SMotionEventDataWarp@NMotionEvent@@8	; NMotionEvent::SMotionEventDataWarp::`RTTI Class Hierarchy Descriptor'
PUBLIC	??_R2SMotionEventDataWarp@NMotionEvent@@8	; NMotionEvent::SMotionEventDataWarp::`RTTI Base Class Array'
PUBLIC	??_R1A@?0A@EA@SMotionEventDataWarp@NMotionEvent@@8 ; NMotionEvent::SMotionEventDataWarp::`RTTI Base Class Descriptor at (0,-1,0,64)'
PUBLIC	??_R4CRaceMotionData@@6B@			; CRaceMotionData::`RTTI Complete Object Locator'
PUBLIC	??_R0?AVCRaceMotionData@@@8			; CRaceMotionData `RTTI Type Descriptor'
PUBLIC	??_R3CRaceMotionData@@8				; CRaceMotionData::`RTTI Class Hierarchy Descriptor'
PUBLIC	??_R2CRaceMotionData@@8				; CRaceMotionData::`RTTI Base Class Array'
PUBLIC	??_R1A@?0A@EA@CRaceMotionData@@8		; CRaceMotionData::`RTTI Base Class Descriptor at (0,-1,0,64)'
PUBLIC	??_R4?$CDynamicPool@VCRaceMotionData@@@@6B@	; CDynamicPool<CRaceMotionData>::`RTTI Complete Object Locator'
PUBLIC	??_R0?AV?$CDynamicPool@VCRaceMotionData@@@@@8	; CDynamicPool<CRaceMotionData> `RTTI Type Descriptor'
PUBLIC	??_R3?$CDynamicPool@VCRaceMotionData@@@@8	; CDynamicPool<CRaceMotionData>::`RTTI Class Hierarchy Descriptor'
PUBLIC	??_R2?$CDynamicPool@VCRaceMotionData@@@@8	; CDynamicPool<CRaceMotionData>::`RTTI Base Class Array'
PUBLIC	??_R1A@?0A@EA@?$CDynamicPool@VCRaceMotionData@@@@8 ; CDynamicPool<CRaceMotionData>::`RTTI Base Class Descriptor at (0,-1,0,64)'
PUBLIC	__real@00000000
PUBLIC	__real@3f800000
EXTRN	__purecall:PROC
EXTRN	??2@YAPAXI@Z:PROC				; operator new
EXTRN	??3@YAXPAX@Z:PROC				; operator delete
EXTRN	??3@YAXPAXI@Z:PROC				; operator delete
EXTRN	_atexit:PROC
EXTRN	___std_terminate:PROC
EXTRN	__invalid_parameter_noinfo_noreturn:PROC
EXTRN	_memcmp:PROC
EXTRN	_memcpy:PROC
EXTRN	_memmove:PROC
EXTRN	_strlen:PROC
EXTRN	_atof:PROC
EXTRN	___std_exception_copy:PROC
EXTRN	___std_exception_destroy:PROC
EXTRN	??_Eexception@std@@UAEPAXI@Z:PROC		; std::exception::`vector deleting destructor'
EXTRN	??_Ebad_alloc@std@@UAEPAXI@Z:PROC		; std::bad_alloc::`vector deleting destructor'
EXTRN	??_Ebad_array_new_length@std@@UAEPAXI@Z:PROC	; std::bad_array_new_length::`vector deleting destructor'
EXTRN	?_Xlength_error@std@@YAXPBD@Z:PROC		; std::_Xlength_error
EXTRN	?_Xout_of_range@std@@YAXPBD@Z:PROC		; std::_Xout_of_range
EXTRN	?GetCaseCRC32@@YAKPBDI@Z:PROC			; GetCaseCRC32
EXTRN	?TraceError@@YAXPBDZZ:PROC			; TraceError
EXTRN	?PrintfTabs@@YAXPAU_iobuf@@HPBDZZ:PROC		; PrintfTabs
EXTRN	?Cache@CTextFileLoader@@SAPAV1@PBD@Z:PROC	; CTextFileLoader::Cache
EXTRN	?IsEmpty@CTextFileLoader@@QAE_NXZ:PROC		; CTextFileLoader::IsEmpty
EXTRN	?SetTop@CTextFileLoader@@QAEXXZ:PROC		; CTextFileLoader::SetTop
EXTRN	?GetChildNodeCount@CTextFileLoader@@QAEKXZ:PROC	; CTextFileLoader::GetChildNodeCount
EXTRN	?SetChildNode@CTextFileLoader@@QAEHABV?$basic_string@DU?$char_traits@D@std@@V?$allocator@D@2@@std@@K@Z:PROC ; CTextFileLoader::SetChildNode
EXTRN	?SetChildNode@CTextFileLoader@@QAEHK@Z:PROC	; CTextFileLoader::SetChildNode
EXTRN	?SetParentNode@CTextFileLoader@@QAEHXZ:PROC	; CTextFileLoader::SetParentNode
EXTRN	?GetCurrentNodeName@CTextFileLoader@@QAEHPAV?$basic_string@DU?$char_traits@D@std@@V?$allocator@D@2@@std@@@Z:PROC ; CTextFileLoader::GetCurrentNodeName
EXTRN	?GetTokenVector@CTextFileLoader@@QAEHABV?$basic_string@DU?$char_traits@D@std@@V?$allocator@D@2@@std@@PAPAV?$vector@V?$basic_string@DU?$char_traits@D@std@@V?$allocator@D@2@@std@@V?$allocator@V?$basic_string@DU?$char_traits@D@std@@V?$allocator@D@2@@std@@@2@@3@@Z:PROC ; CTextFileLoader::GetTokenVector
EXTRN	?GetTokenBoolean@CTextFileLoader@@QAEHABV?$basic_string@DU?$char_traits@D@std@@V?$allocator@D@2@@std@@PAH@Z:PROC ; CTextFileLoader::GetTokenBoolean
EXTRN	?GetTokenInteger@CTextFileLoader@@QAEHABV?$basic_string@DU?$char_traits@D@std@@V?$allocator@D@2@@std@@PAH@Z:PROC ; CTextFileLoader::GetTokenInteger
EXTRN	?GetTokenDoubleWord@CTextFileLoader@@QAEHABV?$basic_string@DU?$char_traits@D@std@@V?$allocator@D@2@@std@@PAK@Z:PROC ; CTextFileLoader::GetTokenDoubleWord
EXTRN	?GetTokenFloat@CTextFileLoader@@QAEHABV?$basic_string@DU?$char_traits@D@std@@V?$allocator@D@2@@std@@PAM@Z:PROC ; CTextFileLoader::GetTokenFloat
EXTRN	?GetTokenPosition@CTextFileLoader@@QAEHABV?$basic_string@DU?$char_traits@D@std@@V?$allocator@D@2@@std@@PAUD3DXVECTOR3@@@Z:PROC ; CTextFileLoader::GetTokenPosition
EXTRN	?GetTokenString@CTextFileLoader@@QAEHABV?$basic_string@DU?$char_traits@D@std@@V?$allocator@D@2@@std@@PAV23@@Z:PROC ; CTextFileLoader::GetTokenString
EXTRN	??_ESCollisionData@NRaceData@@UAEPAXI@Z:PROC	; NRaceData::SCollisionData::`vector deleting destructor'
EXTRN	?SaveAttackData@NRaceData@@YAXPAU_iobuf@@HABUSAttackData@1@@Z:PROC ; NRaceData::SaveAttackData
EXTRN	?SaveCollisionData@NRaceData@@YAXPAU_iobuf@@HABUSCollisionData@1@@Z:PROC ; NRaceData::SaveCollisionData
EXTRN	?LoadAttackData@NRaceData@@YAHAAVCTextFileLoader@@PAUSAttackData@1@@Z:PROC ; NRaceData::LoadAttackData
EXTRN	?LoadMotionAttackData@NRaceData@@YAHAAVCTextFileLoader@@PAUSMotionAttackData@1@@Z:PROC ; NRaceData::LoadMotionAttackData
EXTRN	?LoadCollisionData@NRaceData@@YAHAAVCTextFileLoader@@PAUSCollisionData@1@@Z:PROC ; NRaceData::LoadCollisionData
EXTRN	?LoadSoundInformationPiece@NSound@@YA_NPBDAAV?$vector@USSoundData@NSound@@V?$allocator@USSoundData@NSound@@@std@@@std@@0@Z:PROC ; NSound::LoadSoundInformationPiece
EXTRN	?DataToInstance@NSound@@YAXABV?$vector@USSoundData@NSound@@V?$allocator@USSoundData@NSound@@@std@@@std@@PAV?$vector@USSoundInstance@NSound@@V?$allocator@USSoundInstance@NSound@@@std@@@3@@Z:PROC ; NSound::DataToInstance
EXTRN	?RegisterEffect@CEffectManager@@QAEHPBD_N1@Z:PROC ; CEffectManager::RegisterEffect
EXTRN	?RegisterFlyingData@CFlyingManager@@QAE_NPBD@Z:PROC ; CFlyingManager::RegisterFlyingData
EXTRN	??_ESMotionEventData@NMotionEvent@@UAEPAXI@Z:PROC ; NMotionEvent::SMotionEventData::`vector deleting destructor'
EXTRN	??_ESMotionEventDataScreenWaving@NMotionEvent@@UAEPAXI@Z:PROC ; NMotionEvent::SMotionEventDataScreenWaving::`vector deleting destructor'
EXTRN	??_ESMotionEventDataEffect@NMotionEvent@@UAEPAXI@Z:PROC ; NMotionEvent::SMotionEventDataEffect::`vector deleting destructor'
EXTRN	??_ESMotionEventDataEffectToTarget@NMotionEvent@@UAEPAXI@Z:PROC ; NMotionEvent::SMotionEventDataEffectToTarget::`vector deleting destructor'
EXTRN	??_ESMotionEventDataFly@NMotionEvent@@UAEPAXI@Z:PROC ; NMotionEvent::SMotionEventDataFly::`vector deleting destructor'
EXTRN	??_ESMotionEventDataAttack@NMotionEvent@@UAEPAXI@Z:PROC ; NMotionEvent::SMotionEventDataAttack::`vector deleting destructor'
EXTRN	??_ESMotionEventDataSound@NMotionEvent@@UAEPAXI@Z:PROC ; NMotionEvent::SMotionEventDataSound::`vector deleting destructor'
EXTRN	??_ESMotionEventDataCharacterShow@NMotionEvent@@UAEPAXI@Z:PROC ; NMotionEvent::SMotionEventDataCharacterShow::`vector deleting destructor'
EXTRN	??_ESMotionEventDataCharacterHide@NMotionEvent@@UAEPAXI@Z:PROC ; NMotionEvent::SMotionEventDataCharacterHide::`vector deleting destructor'
EXTRN	??_ESMotionEventDataWarp@NMotionEvent@@UAEPAXI@Z:PROC ; NMotionEvent::SMotionEventDataWarp::`vector deleting destructor'
EXTRN	??_ECRaceMotionData@@UAEPAXI@Z:PROC		; CRaceMotionData::`vector deleting destructor'
EXTRN	??_E?$CDynamicPool@VCRaceMotionData@@@@UAEPAXI@Z:PROC ; CDynamicPool<CRaceMotionData>::`vector deleting destructor'
EXTRN	??_E?$CDynamicPoolEx@VCRotationDecorator@NEffectUpdateDecorator@@@@UAEPAXI@Z:PROC ; CDynamicPoolEx<NEffectUpdateDecorator::CRotationDecorator>::`vector deleting destructor'
EXTRN	??_E?$CDynamicPoolEx@VCGravityDecorator@NEffectUpdateDecorator@@@@UAEPAXI@Z:PROC ; CDynamicPoolEx<NEffectUpdateDecorator::CGravityDecorator>::`vector deleting destructor'
EXTRN	??_E?$CDynamicPoolEx@VCAirResistanceDecorator@NEffectUpdateDecorator@@@@UAEPAXI@Z:PROC ; CDynamicPoolEx<NEffectUpdateDecorator::CAirResistanceDecorator>::`vector deleting destructor'
EXTRN	??_E?$CDynamicPoolEx@VCTextureAnimationRandomDecorator@NEffectUpdateDecorator@@@@UAEPAXI@Z:PROC ; CDynamicPoolEx<NEffectUpdateDecorator::CTextureAnimationRandomDecorator>::`vector deleting destructor'
EXTRN	??_E?$CDynamicPoolEx@VCTextureAnimationCCWDecorator@NEffectUpdateDecorator@@@@UAEPAXI@Z:PROC ; CDynamicPoolEx<NEffectUpdateDecorator::CTextureAnimationCCWDecorator>::`vector deleting destructor'
EXTRN	??_E?$CDynamicPoolEx@VCTextureAnimationCWDecorator@NEffectUpdateDecorator@@@@UAEPAXI@Z:PROC ; CDynamicPoolEx<NEffectUpdateDecorator::CTextureAnimationCWDecorator>::`vector deleting destructor'
EXTRN	??_E?$CDynamicPoolEx@VCNullDecorator@NEffectUpdateDecorator@@@@UAEPAXI@Z:PROC ; CDynamicPoolEx<NEffectUpdateDecorator::CNullDecorator>::`vector deleting destructor'
EXTRN	??_E?$CDynamicPoolEx@VCHeaderDecorator@NEffectUpdateDecorator@@@@UAEPAXI@Z:PROC ; CDynamicPoolEx<NEffectUpdateDecorator::CHeaderDecorator>::`vector deleting destructor'
EXTRN	@__security_check_cookie@4:PROC
EXTRN	__CxxThrowException@8:PROC
EXTRN	___CxxFrameHandler3:PROC
EXTRN	__ftoui3:PROC
EXTRN	??_7type_info@@6B@:QWORD			; type_info::`vftable'
EXTRN	?g_fGameFPS@@3MA:DWORD				; g_fGameFPS
EXTRN	___security_cookie:DWORD
EXTRN	__fltused:DWORD
;	COMDAT ?ms_kPool@?$CPooledObject@VCHeaderDecorator@NEffectUpdateDecorator@@@@1V?$CDynamicPoolEx@VCHeaderDecorator@NEffectUpdateDecorator@@@@A
_BSS	SEGMENT
?ms_kPool@?$CPooledObject@VCHeaderDecorator@NEffectUpdateDecorator@@@@1V?$CDynamicPoolEx@VCHeaderDecorator@NEffectUpdateDecorator@@@@A DB 024H DUP (?) ; CPooledObject<NEffectUpdateDecorator::CHeaderDecorator>::ms_kPool
_BSS	ENDS
;	COMDAT ?ms_kPool@?$CPooledObject@VCNullDecorator@NEffectUpdateDecorator@@@@1V?$CDynamicPoolEx@VCNullDecorator@NEffectUpdateDecorator@@@@A
_BSS	SEGMENT
?ms_kPool@?$CPooledObject@VCNullDecorator@NEffectUpdateDecorator@@@@1V?$CDynamicPoolEx@VCNullDecorator@NEffectUpdateDecorator@@@@A DB 024H DUP (?) ; CPooledObject<NEffectUpdateDecorator::CNullDecorator>::ms_kPool
_BSS	ENDS
;	COMDAT ?ms_kPool@?$CPooledObject@VCTextureAnimationCWDecorator@NEffectUpdateDecorator@@@@1V?$CDynamicPoolEx@VCTextureAnimationCWDecorator@NEffectUpdateDecorator@@@@A
_BSS	SEGMENT
?ms_kPool@?$CPooledObject@VCTextureAnimationCWDecorator@NEffectUpdateDecorator@@@@1V?$CDynamicPoolEx@VCTextureAnimationCWDecorator@NEffectUpdateDecorator@@@@A DB 024H DUP (?) ; CPooledObject<NEffectUpdateDecorator::CTextureAnimationCWDecorator>::ms_kPool
_BSS	ENDS
;	COMDAT ?ms_kPool@?$CPooledObject@VCTextureAnimationCCWDecorator@NEffectUpdateDecorator@@@@1V?$CDynamicPoolEx@VCTextureAnimationCCWDecorator@NEffectUpdateDecorator@@@@A
_BSS	SEGMENT
?ms_kPool@?$CPooledObject@VCTextureAnimationCCWDecorator@NEffectUpdateDecorator@@@@1V?$CDynamicPoolEx@VCTextureAnimationCCWDecorator@NEffectUpdateDecorator@@@@A DB 024H DUP (?) ; CPooledObject<NEffectUpdateDecorator::CTextureAnimationCCWDecorator>::ms_kPool
_BSS	ENDS
;	COMDAT ?ms_kPool@?$CPooledObject@VCTextureAnimationRandomDecorator@NEffectUpdateDecorator@@@@1V?$CDynamicPoolEx@VCTextureAnimationRandomDecorator@NEffectUpdateDecorator@@@@A
_BSS	SEGMENT
?ms_kPool@?$CPooledObject@VCTextureAnimationRandomDecorator@NEffectUpdateDecorator@@@@1V?$CDynamicPoolEx@VCTextureAnimationRandomDecorator@NEffectUpdateDecorator@@@@A DB 024H DUP (?) ; CPooledObject<NEffectUpdateDecorator::CTextureAnimationRandomDecorator>::ms_kPool
_BSS	ENDS
;	COMDAT ?ms_kPool@?$CPooledObject@VCAirResistanceDecorator@NEffectUpdateDecorator@@@@1V?$CDynamicPoolEx@VCAirResistanceDecorator@NEffectUpdateDecorator@@@@A
_BSS	SEGMENT
?ms_kPool@?$CPooledObject@VCAirResistanceDecorator@NEffectUpdateDecorator@@@@1V?$CDynamicPoolEx@VCAirResistanceDecorator@NEffectUpdateDecorator@@@@A DB 024H DUP (?) ; CPooledObject<NEffectUpdateDecorator::CAirResistanceDecorator>::ms_kPool
_BSS	ENDS
;	COMDAT ?ms_kPool@?$CPooledObject@VCGravityDecorator@NEffectUpdateDecorator@@@@1V?$CDynamicPoolEx@VCGravityDecorator@NEffectUpdateDecorator@@@@A
_BSS	SEGMENT
?ms_kPool@?$CPooledObject@VCGravityDecorator@NEffectUpdateDecorator@@@@1V?$CDynamicPoolEx@VCGravityDecorator@NEffectUpdateDecorator@@@@A DB 024H DUP (?) ; CPooledObject<NEffectUpdateDecorator::CGravityDecorator>::ms_kPool
_BSS	ENDS
;	COMDAT ?ms_kPool@?$CPooledObject@VCRotationDecorator@NEffectUpdateDecorator@@@@1V?$CDynamicPoolEx@VCRotationDecorator@NEffectUpdateDecorator@@@@A
_BSS	SEGMENT
?ms_kPool@?$CPooledObject@VCRotationDecorator@NEffectUpdateDecorator@@@@1V?$CDynamicPoolEx@VCRotationDecorator@NEffectUpdateDecorator@@@@A DB 024H DUP (?) ; CPooledObject<NEffectUpdateDecorator::CRotationDecorator>::ms_kPool
_BSS	ENDS
;	COMDAT ?ms_singleton@?$CSingleton@VCEffectManager@@@@0PAVCEffectManager@@A
_BSS	SEGMENT
?ms_singleton@?$CSingleton@VCEffectManager@@@@0PAVCEffectManager@@A DD 01H DUP (?) ; CSingleton<CEffectManager>::ms_singleton
_BSS	ENDS
;	COMDAT ?ms_singleton@?$CSingleton@VCFlyingManager@@@@0PAVCFlyingManager@@A
_BSS	SEGMENT
?ms_singleton@?$CSingleton@VCFlyingManager@@@@0PAVCFlyingManager@@A DD 01H DUP (?) ; CSingleton<CFlyingManager>::ms_singleton
_BSS	ENDS
_BSS	SEGMENT
?ms_kPool@CRaceMotionData@@1V?$CDynamicPool@VCRaceMotionData@@@@A DB 024H DUP (?) ; CRaceMotionData::ms_kPool
_BSS	ENDS
CRT$XCU	SEGMENT
??ms_kPool$initializer$@CRaceMotionData@@1P6AXXZA@@3P6AXXZA DD FLAT:??__E?ms_kPool@CRaceMotionData@@1V?$CDynamicPool@VCRaceMotionData@@@@A@@YAXXZ ; ??ms_kPool$initializer$@CRaceMotionData@@1P6AXXZA@@3P6AXXZA
CRT$XCU	ENDS
;	COMDAT __real@3f800000
CONST	SEGMENT
__real@3f800000 DD 03f800000r			; 1
CONST	ENDS
;	COMDAT __real@00000000
CONST	SEGMENT
__real@00000000 DD 000000000r			; 0
CONST	ENDS
;	COMDAT ??_R1A@?0A@EA@?$CDynamicPool@VCRaceMotionData@@@@8
rdata$r	SEGMENT
??_R1A@?0A@EA@?$CDynamicPool@VCRaceMotionData@@@@8 DD FLAT:??_R0?AV?$CDynamicPool@VCRaceMotionData@@@@@8 ; CDynamicPool<CRaceMotionData>::`RTTI Base Class Descriptor at (0,-1,0,64)'
	DD	00H
	DD	00H
	DD	0ffffffffH
	DD	00H
	DD	040H
	DD	FLAT:??_R3?$CDynamicPool@VCRaceMotionData@@@@8
rdata$r	ENDS
;	COMDAT ??_R2?$CDynamicPool@VCRaceMotionData@@@@8
rdata$r	SEGMENT
??_R2?$CDynamicPool@VCRaceMotionData@@@@8 DD FLAT:??_R1A@?0A@EA@?$CDynamicPool@VCRaceMotionData@@@@8 ; CDynamicPool<CRaceMotionData>::`RTTI Base Class Array'
rdata$r	ENDS
;	COMDAT ??_R3?$CDynamicPool@VCRaceMotionData@@@@8
rdata$r	SEGMENT
??_R3?$CDynamicPool@VCRaceMotionData@@@@8 DD 00H	; CDynamicPool<CRaceMotionData>::`RTTI Class Hierarchy Descriptor'
	DD	00H
	DD	01H
	DD	FLAT:??_R2?$CDynamicPool@VCRaceMotionData@@@@8
rdata$r	ENDS
;	COMDAT ??_R0?AV?$CDynamicPool@VCRaceMotionData@@@@@8
data$rs	SEGMENT
??_R0?AV?$CDynamicPool@VCRaceMotionData@@@@@8 DD FLAT:??_7type_info@@6B@ ; CDynamicPool<CRaceMotionData> `RTTI Type Descriptor'
	DD	00H
	DB	'.?AV?$CDynamicPool@VCRaceMotionData@@@@', 00H
data$rs	ENDS
;	COMDAT ??_R4?$CDynamicPool@VCRaceMotionData@@@@6B@
rdata$r	SEGMENT
??_R4?$CDynamicPool@VCRaceMotionData@@@@6B@ DD 00H	; CDynamicPool<CRaceMotionData>::`RTTI Complete Object Locator'
	DD	00H
	DD	00H
	DD	FLAT:??_R0?AV?$CDynamicPool@VCRaceMotionData@@@@@8
	DD	FLAT:??_R3?$CDynamicPool@VCRaceMotionData@@@@8
rdata$r	ENDS
;	COMDAT ??_R1A@?0A@EA@CRaceMotionData@@8
rdata$r	SEGMENT
??_R1A@?0A@EA@CRaceMotionData@@8 DD FLAT:??_R0?AVCRaceMotionData@@@8 ; CRaceMotionData::`RTTI Base Class Descriptor at (0,-1,0,64)'
	DD	00H
	DD	00H
	DD	0ffffffffH
	DD	00H
	DD	040H
	DD	FLAT:??_R3CRaceMotionData@@8
rdata$r	ENDS
;	COMDAT ??_R2CRaceMotionData@@8
rdata$r	SEGMENT
??_R2CRaceMotionData@@8 DD FLAT:??_R1A@?0A@EA@CRaceMotionData@@8 ; CRaceMotionData::`RTTI Base Class Array'
rdata$r	ENDS
;	COMDAT ??_R3CRaceMotionData@@8
rdata$r	SEGMENT
??_R3CRaceMotionData@@8 DD 00H				; CRaceMotionData::`RTTI Class Hierarchy Descriptor'
	DD	00H
	DD	01H
	DD	FLAT:??_R2CRaceMotionData@@8
rdata$r	ENDS
;	COMDAT ??_R0?AVCRaceMotionData@@@8
data$rs	SEGMENT
??_R0?AVCRaceMotionData@@@8 DD FLAT:??_7type_info@@6B@	; CRaceMotionData `RTTI Type Descriptor'
	DD	00H
	DB	'.?AVCRaceMotionData@@', 00H
data$rs	ENDS
;	COMDAT ??_R4CRaceMotionData@@6B@
rdata$r	SEGMENT
??_R4CRaceMotionData@@6B@ DD 00H			; CRaceMotionData::`RTTI Complete Object Locator'
	DD	00H
	DD	00H
	DD	FLAT:??_R0?AVCRaceMotionData@@@8
	DD	FLAT:??_R3CRaceMotionData@@8
rdata$r	ENDS
;	COMDAT ??_R1A@?0A@EA@SMotionEventDataWarp@NMotionEvent@@8
rdata$r	SEGMENT
??_R1A@?0A@EA@SMotionEventDataWarp@NMotionEvent@@8 DD FLAT:??_R0?AUSMotionEventDataWarp@NMotionEvent@@@8 ; NMotionEvent::SMotionEventDataWarp::`RTTI Base Class Descriptor at (0,-1,0,64)'
	DD	01H
	DD	00H
	DD	0ffffffffH
	DD	00H
	DD	040H
	DD	FLAT:??_R3SMotionEventDataWarp@NMotionEvent@@8
rdata$r	ENDS
;	COMDAT ??_R2SMotionEventDataWarp@NMotionEvent@@8
rdata$r	SEGMENT
??_R2SMotionEventDataWarp@NMotionEvent@@8 DD FLAT:??_R1A@?0A@EA@SMotionEventDataWarp@NMotionEvent@@8 ; NMotionEvent::SMotionEventDataWarp::`RTTI Base Class Array'
	DD	FLAT:??_R1A@?0A@EA@SMotionEventData@NMotionEvent@@8
rdata$r	ENDS
;	COMDAT ??_R3SMotionEventDataWarp@NMotionEvent@@8
rdata$r	SEGMENT
??_R3SMotionEventDataWarp@NMotionEvent@@8 DD 00H	; NMotionEvent::SMotionEventDataWarp::`RTTI Class Hierarchy Descriptor'
	DD	00H
	DD	02H
	DD	FLAT:??_R2SMotionEventDataWarp@NMotionEvent@@8
rdata$r	ENDS
;	COMDAT ??_R0?AUSMotionEventDataWarp@NMotionEvent@@@8
data$rs	SEGMENT
??_R0?AUSMotionEventDataWarp@NMotionEvent@@@8 DD FLAT:??_7type_info@@6B@ ; NMotionEvent::SMotionEventDataWarp `RTTI Type Descriptor'
	DD	00H
	DB	'.?AUSMotionEventDataWarp@NMotionEvent@@', 00H
data$rs	ENDS
;	COMDAT ??_R4SMotionEventDataWarp@NMotionEvent@@6B@
rdata$r	SEGMENT
??_R4SMotionEventDataWarp@NMotionEvent@@6B@ DD 00H	; NMotionEvent::SMotionEventDataWarp::`RTTI Complete Object Locator'
	DD	00H
	DD	00H
	DD	FLAT:??_R0?AUSMotionEventDataWarp@NMotionEvent@@@8
	DD	FLAT:??_R3SMotionEventDataWarp@NMotionEvent@@8
rdata$r	ENDS
;	COMDAT ??_R1A@?0A@EA@SMotionEventDataCharacterHide@NMotionEvent@@8
rdata$r	SEGMENT
??_R1A@?0A@EA@SMotionEventDataCharacterHide@NMotionEvent@@8 DD FLAT:??_R0?AUSMotionEventDataCharacterHide@NMotionEvent@@@8 ; NMotionEvent::SMotionEventDataCharacterHide::`RTTI Base Class Descriptor at (0,-1,0,64)'
	DD	01H
	DD	00H
	DD	0ffffffffH
	DD	00H
	DD	040H
	DD	FLAT:??_R3SMotionEventDataCharacterHide@NMotionEvent@@8
rdata$r	ENDS
;	COMDAT ??_R2SMotionEventDataCharacterHide@NMotionEvent@@8
rdata$r	SEGMENT
??_R2SMotionEventDataCharacterHide@NMotionEvent@@8 DD FLAT:??_R1A@?0A@EA@SMotionEventDataCharacterHide@NMotionEvent@@8 ; NMotionEvent::SMotionEventDataCharacterHide::`RTTI Base Class Array'
	DD	FLAT:??_R1A@?0A@EA@SMotionEventData@NMotionEvent@@8
rdata$r	ENDS
;	COMDAT ??_R3SMotionEventDataCharacterHide@NMotionEvent@@8
rdata$r	SEGMENT
??_R3SMotionEventDataCharacterHide@NMotionEvent@@8 DD 00H ; NMotionEvent::SMotionEventDataCharacterHide::`RTTI Class Hierarchy Descriptor'
	DD	00H
	DD	02H
	DD	FLAT:??_R2SMotionEventDataCharacterHide@NMotionEvent@@8
rdata$r	ENDS
;	COMDAT ??_R0?AUSMotionEventDataCharacterHide@NMotionEvent@@@8
data$rs	SEGMENT
??_R0?AUSMotionEventDataCharacterHide@NMotionEvent@@@8 DD FLAT:??_7type_info@@6B@ ; NMotionEvent::SMotionEventDataCharacterHide `RTTI Type Descriptor'
	DD	00H
	DB	'.?AUSMotionEventDataCharacterHide@NMotionEvent@@', 00H
data$rs	ENDS
;	COMDAT ??_R4SMotionEventDataCharacterHide@NMotionEvent@@6B@
rdata$r	SEGMENT
??_R4SMotionEventDataCharacterHide@NMotionEvent@@6B@ DD 00H ; NMotionEvent::SMotionEventDataCharacterHide::`RTTI Complete Object Locator'
	DD	00H
	DD	00H
	DD	FLAT:??_R0?AUSMotionEventDataCharacterHide@NMotionEvent@@@8
	DD	FLAT:??_R3SMotionEventDataCharacterHide@NMotionEvent@@8
rdata$r	ENDS
;	COMDAT ??_R1A@?0A@EA@SMotionEventDataCharacterShow@NMotionEvent@@8
rdata$r	SEGMENT
??_R1A@?0A@EA@SMotionEventDataCharacterShow@NMotionEvent@@8 DD FLAT:??_R0?AUSMotionEventDataCharacterShow@NMotionEvent@@@8 ; NMotionEvent::SMotionEventDataCharacterShow::`RTTI Base Class Descriptor at (0,-1,0,64)'
	DD	01H
	DD	00H
	DD	0ffffffffH
	DD	00H
	DD	040H
	DD	FLAT:??_R3SMotionEventDataCharacterShow@NMotionEvent@@8
rdata$r	ENDS
;	COMDAT ??_R2SMotionEventDataCharacterShow@NMotionEvent@@8
rdata$r	SEGMENT
??_R2SMotionEventDataCharacterShow@NMotionEvent@@8 DD FLAT:??_R1A@?0A@EA@SMotionEventDataCharacterShow@NMotionEvent@@8 ; NMotionEvent::SMotionEventDataCharacterShow::`RTTI Base Class Array'
	DD	FLAT:??_R1A@?0A@EA@SMotionEventData@NMotionEvent@@8
rdata$r	ENDS
;	COMDAT ??_R3SMotionEventDataCharacterShow@NMotionEvent@@8
rdata$r	SEGMENT
??_R3SMotionEventDataCharacterShow@NMotionEvent@@8 DD 00H ; NMotionEvent::SMotionEventDataCharacterShow::`RTTI Class Hierarchy Descriptor'
	DD	00H
	DD	02H
	DD	FLAT:??_R2SMotionEventDataCharacterShow@NMotionEvent@@8
rdata$r	ENDS
;	COMDAT ??_R0?AUSMotionEventDataCharacterShow@NMotionEvent@@@8
data$rs	SEGMENT
??_R0?AUSMotionEventDataCharacterShow@NMotionEvent@@@8 DD FLAT:??_7type_info@@6B@ ; NMotionEvent::SMotionEventDataCharacterShow `RTTI Type Descriptor'
	DD	00H
	DB	'.?AUSMotionEventDataCharacterShow@NMotionEvent@@', 00H
data$rs	ENDS
;	COMDAT ??_R4SMotionEventDataCharacterShow@NMotionEvent@@6B@
rdata$r	SEGMENT
??_R4SMotionEventDataCharacterShow@NMotionEvent@@6B@ DD 00H ; NMotionEvent::SMotionEventDataCharacterShow::`RTTI Complete Object Locator'
	DD	00H
	DD	00H
	DD	FLAT:??_R0?AUSMotionEventDataCharacterShow@NMotionEvent@@@8
	DD	FLAT:??_R3SMotionEventDataCharacterShow@NMotionEvent@@8
rdata$r	ENDS
;	COMDAT ??_R1A@?0A@EA@SMotionEventDataSound@NMotionEvent@@8
rdata$r	SEGMENT
??_R1A@?0A@EA@SMotionEventDataSound@NMotionEvent@@8 DD FLAT:??_R0?AUSMotionEventDataSound@NMotionEvent@@@8 ; NMotionEvent::SMotionEventDataSound::`RTTI Base Class Descriptor at (0,-1,0,64)'
	DD	01H
	DD	00H
	DD	0ffffffffH
	DD	00H
	DD	040H
	DD	FLAT:??_R3SMotionEventDataSound@NMotionEvent@@8
rdata$r	ENDS
;	COMDAT ??_R2SMotionEventDataSound@NMotionEvent@@8
rdata$r	SEGMENT
??_R2SMotionEventDataSound@NMotionEvent@@8 DD FLAT:??_R1A@?0A@EA@SMotionEventDataSound@NMotionEvent@@8 ; NMotionEvent::SMotionEventDataSound::`RTTI Base Class Array'
	DD	FLAT:??_R1A@?0A@EA@SMotionEventData@NMotionEvent@@8
rdata$r	ENDS
;	COMDAT ??_R3SMotionEventDataSound@NMotionEvent@@8
rdata$r	SEGMENT
??_R3SMotionEventDataSound@NMotionEvent@@8 DD 00H	; NMotionEvent::SMotionEventDataSound::`RTTI Class Hierarchy Descriptor'
	DD	00H
	DD	02H
	DD	FLAT:??_R2SMotionEventDataSound@NMotionEvent@@8
rdata$r	ENDS
;	COMDAT ??_R0?AUSMotionEventDataSound@NMotionEvent@@@8
data$rs	SEGMENT
??_R0?AUSMotionEventDataSound@NMotionEvent@@@8 DD FLAT:??_7type_info@@6B@ ; NMotionEvent::SMotionEventDataSound `RTTI Type Descriptor'
	DD	00H
	DB	'.?AUSMotionEventDataSound@NMotionEvent@@', 00H
data$rs	ENDS
;	COMDAT ??_R4SMotionEventDataSound@NMotionEvent@@6B@
rdata$r	SEGMENT
??_R4SMotionEventDataSound@NMotionEvent@@6B@ DD 00H	; NMotionEvent::SMotionEventDataSound::`RTTI Complete Object Locator'
	DD	00H
	DD	00H
	DD	FLAT:??_R0?AUSMotionEventDataSound@NMotionEvent@@@8
	DD	FLAT:??_R3SMotionEventDataSound@NMotionEvent@@8
rdata$r	ENDS
;	COMDAT ??_R1A@?0A@EA@SMotionEventDataAttack@NMotionEvent@@8
rdata$r	SEGMENT
??_R1A@?0A@EA@SMotionEventDataAttack@NMotionEvent@@8 DD FLAT:??_R0?AUSMotionEventDataAttack@NMotionEvent@@@8 ; NMotionEvent::SMotionEventDataAttack::`RTTI Base Class Descriptor at (0,-1,0,64)'
	DD	01H
	DD	00H
	DD	0ffffffffH
	DD	00H
	DD	040H
	DD	FLAT:??_R3SMotionEventDataAttack@NMotionEvent@@8
rdata$r	ENDS
;	COMDAT ??_R2SMotionEventDataAttack@NMotionEvent@@8
rdata$r	SEGMENT
??_R2SMotionEventDataAttack@NMotionEvent@@8 DD FLAT:??_R1A@?0A@EA@SMotionEventDataAttack@NMotionEvent@@8 ; NMotionEvent::SMotionEventDataAttack::`RTTI Base Class Array'
	DD	FLAT:??_R1A@?0A@EA@SMotionEventData@NMotionEvent@@8
rdata$r	ENDS
;	COMDAT ??_R3SMotionEventDataAttack@NMotionEvent@@8
rdata$r	SEGMENT
??_R3SMotionEventDataAttack@NMotionEvent@@8 DD 00H	; NMotionEvent::SMotionEventDataAttack::`RTTI Class Hierarchy Descriptor'
	DD	00H
	DD	02H
	DD	FLAT:??_R2SMotionEventDataAttack@NMotionEvent@@8
rdata$r	ENDS
;	COMDAT ??_R0?AUSMotionEventDataAttack@NMotionEvent@@@8
data$rs	SEGMENT
??_R0?AUSMotionEventDataAttack@NMotionEvent@@@8 DD FLAT:??_7type_info@@6B@ ; NMotionEvent::SMotionEventDataAttack `RTTI Type Descriptor'
	DD	00H
	DB	'.?AUSMotionEventDataAttack@NMotionEvent@@', 00H
data$rs	ENDS
;	COMDAT ??_R4SMotionEventDataAttack@NMotionEvent@@6B@
rdata$r	SEGMENT
??_R4SMotionEventDataAttack@NMotionEvent@@6B@ DD 00H	; NMotionEvent::SMotionEventDataAttack::`RTTI Complete Object Locator'
	DD	00H
	DD	00H
	DD	FLAT:??_R0?AUSMotionEventDataAttack@NMotionEvent@@@8
	DD	FLAT:??_R3SMotionEventDataAttack@NMotionEvent@@8
rdata$r	ENDS
;	COMDAT ??_R1A@?0A@EA@SMotionEventDataFly@NMotionEvent@@8
rdata$r	SEGMENT
??_R1A@?0A@EA@SMotionEventDataFly@NMotionEvent@@8 DD FLAT:??_R0?AUSMotionEventDataFly@NMotionEvent@@@8 ; NMotionEvent::SMotionEventDataFly::`RTTI Base Class Descriptor at (0,-1,0,64)'
	DD	01H
	DD	00H
	DD	0ffffffffH
	DD	00H
	DD	040H
	DD	FLAT:??_R3SMotionEventDataFly@NMotionEvent@@8
rdata$r	ENDS
;	COMDAT ??_R2SMotionEventDataFly@NMotionEvent@@8
rdata$r	SEGMENT
??_R2SMotionEventDataFly@NMotionEvent@@8 DD FLAT:??_R1A@?0A@EA@SMotionEventDataFly@NMotionEvent@@8 ; NMotionEvent::SMotionEventDataFly::`RTTI Base Class Array'
	DD	FLAT:??_R1A@?0A@EA@SMotionEventData@NMotionEvent@@8
rdata$r	ENDS
;	COMDAT ??_R3SMotionEventDataFly@NMotionEvent@@8
rdata$r	SEGMENT
??_R3SMotionEventDataFly@NMotionEvent@@8 DD 00H		; NMotionEvent::SMotionEventDataFly::`RTTI Class Hierarchy Descriptor'
	DD	00H
	DD	02H
	DD	FLAT:??_R2SMotionEventDataFly@NMotionEvent@@8
rdata$r	ENDS
;	COMDAT ??_R0?AUSMotionEventDataFly@NMotionEvent@@@8
data$rs	SEGMENT
??_R0?AUSMotionEventDataFly@NMotionEvent@@@8 DD FLAT:??_7type_info@@6B@ ; NMotionEvent::SMotionEventDataFly `RTTI Type Descriptor'
	DD	00H
	DB	'.?AUSMotionEventDataFly@NMotionEvent@@', 00H
data$rs	ENDS
;	COMDAT ??_R4SMotionEventDataFly@NMotionEvent@@6B@
rdata$r	SEGMENT
??_R4SMotionEventDataFly@NMotionEvent@@6B@ DD 00H	; NMotionEvent::SMotionEventDataFly::`RTTI Complete Object Locator'
	DD	00H
	DD	00H
	DD	FLAT:??_R0?AUSMotionEventDataFly@NMotionEvent@@@8
	DD	FLAT:??_R3SMotionEventDataFly@NMotionEvent@@8
rdata$r	ENDS
;	COMDAT ??_R1A@?0A@EA@SMotionEventDataEffectToTarget@NMotionEvent@@8
rdata$r	SEGMENT
??_R1A@?0A@EA@SMotionEventDataEffectToTarget@NMotionEvent@@8 DD FLAT:??_R0?AUSMotionEventDataEffectToTarget@NMotionEvent@@@8 ; NMotionEvent::SMotionEventDataEffectToTarget::`RTTI Base Class Descriptor at (0,-1,0,64)'
	DD	01H
	DD	00H
	DD	0ffffffffH
	DD	00H
	DD	040H
	DD	FLAT:??_R3SMotionEventDataEffectToTarget@NMotionEvent@@8
rdata$r	ENDS
;	COMDAT ??_R2SMotionEventDataEffectToTarget@NMotionEvent@@8
rdata$r	SEGMENT
??_R2SMotionEventDataEffectToTarget@NMotionEvent@@8 DD FLAT:??_R1A@?0A@EA@SMotionEventDataEffectToTarget@NMotionEvent@@8 ; NMotionEvent::SMotionEventDataEffectToTarget::`RTTI Base Class Array'
	DD	FLAT:??_R1A@?0A@EA@SMotionEventData@NMotionEvent@@8
rdata$r	ENDS
;	COMDAT ??_R3SMotionEventDataEffectToTarget@NMotionEvent@@8
rdata$r	SEGMENT
??_R3SMotionEventDataEffectToTarget@NMotionEvent@@8 DD 00H ; NMotionEvent::SMotionEventDataEffectToTarget::`RTTI Class Hierarchy Descriptor'
	DD	00H
	DD	02H
	DD	FLAT:??_R2SMotionEventDataEffectToTarget@NMotionEvent@@8
rdata$r	ENDS
;	COMDAT ??_R0?AUSMotionEventDataEffectToTarget@NMotionEvent@@@8
data$rs	SEGMENT
??_R0?AUSMotionEventDataEffectToTarget@NMotionEvent@@@8 DD FLAT:??_7type_info@@6B@ ; NMotionEvent::SMotionEventDataEffectToTarget `RTTI Type Descriptor'
	DD	00H
	DB	'.?AUSMotionEventDataEffectToTarget@NMotionEvent@@', 00H
data$rs	ENDS
;	COMDAT ??_R4SMotionEventDataEffectToTarget@NMotionEvent@@6B@
rdata$r	SEGMENT
??_R4SMotionEventDataEffectToTarget@NMotionEvent@@6B@ DD 00H ; NMotionEvent::SMotionEventDataEffectToTarget::`RTTI Complete Object Locator'
	DD	00H
	DD	00H
	DD	FLAT:??_R0?AUSMotionEventDataEffectToTarget@NMotionEvent@@@8
	DD	FLAT:??_R3SMotionEventDataEffectToTarget@NMotionEvent@@8
rdata$r	ENDS
;	COMDAT ??_R1A@?0A@EA@SMotionEventDataEffect@NMotionEvent@@8
rdata$r	SEGMENT
??_R1A@?0A@EA@SMotionEventDataEffect@NMotionEvent@@8 DD FLAT:??_R0?AUSMotionEventDataEffect@NMotionEvent@@@8 ; NMotionEvent::SMotionEventDataEffect::`RTTI Base Class Descriptor at (0,-1,0,64)'
	DD	01H
	DD	00H
	DD	0ffffffffH
	DD	00H
	DD	040H
	DD	FLAT:??_R3SMotionEventDataEffect@NMotionEvent@@8
rdata$r	ENDS
;	COMDAT ??_R2SMotionEventDataEffect@NMotionEvent@@8
rdata$r	SEGMENT
??_R2SMotionEventDataEffect@NMotionEvent@@8 DD FLAT:??_R1A@?0A@EA@SMotionEventDataEffect@NMotionEvent@@8 ; NMotionEvent::SMotionEventDataEffect::`RTTI Base Class Array'
	DD	FLAT:??_R1A@?0A@EA@SMotionEventData@NMotionEvent@@8
rdata$r	ENDS
;	COMDAT ??_R3SMotionEventDataEffect@NMotionEvent@@8
rdata$r	SEGMENT
??_R3SMotionEventDataEffect@NMotionEvent@@8 DD 00H	; NMotionEvent::SMotionEventDataEffect::`RTTI Class Hierarchy Descriptor'
	DD	00H
	DD	02H
	DD	FLAT:??_R2SMotionEventDataEffect@NMotionEvent@@8
rdata$r	ENDS
;	COMDAT ??_R0?AUSMotionEventDataEffect@NMotionEvent@@@8
data$rs	SEGMENT
??_R0?AUSMotionEventDataEffect@NMotionEvent@@@8 DD FLAT:??_7type_info@@6B@ ; NMotionEvent::SMotionEventDataEffect `RTTI Type Descriptor'
	DD	00H
	DB	'.?AUSMotionEventDataEffect@NMotionEvent@@', 00H
data$rs	ENDS
;	COMDAT ??_R4SMotionEventDataEffect@NMotionEvent@@6B@
rdata$r	SEGMENT
??_R4SMotionEventDataEffect@NMotionEvent@@6B@ DD 00H	; NMotionEvent::SMotionEventDataEffect::`RTTI Complete Object Locator'
	DD	00H
	DD	00H
	DD	FLAT:??_R0?AUSMotionEventDataEffect@NMotionEvent@@@8
	DD	FLAT:??_R3SMotionEventDataEffect@NMotionEvent@@8
rdata$r	ENDS
;	COMDAT ??_R1A@?0A@EA@SMotionEventDataScreenWaving@NMotionEvent@@8
rdata$r	SEGMENT
??_R1A@?0A@EA@SMotionEventDataScreenWaving@NMotionEvent@@8 DD FLAT:??_R0?AUSMotionEventDataScreenWaving@NMotionEvent@@@8 ; NMotionEvent::SMotionEventDataScreenWaving::`RTTI Base Class Descriptor at (0,-1,0,64)'
	DD	01H
	DD	00H
	DD	0ffffffffH
	DD	00H
	DD	040H
	DD	FLAT:??_R3SMotionEventDataScreenWaving@NMotionEvent@@8
rdata$r	ENDS
;	COMDAT ??_R2SMotionEventDataScreenWaving@NMotionEvent@@8
rdata$r	SEGMENT
??_R2SMotionEventDataScreenWaving@NMotionEvent@@8 DD FLAT:??_R1A@?0A@EA@SMotionEventDataScreenWaving@NMotionEvent@@8 ; NMotionEvent::SMotionEventDataScreenWaving::`RTTI Base Class Array'
	DD	FLAT:??_R1A@?0A@EA@SMotionEventData@NMotionEvent@@8
rdata$r	ENDS
;	COMDAT ??_R3SMotionEventDataScreenWaving@NMotionEvent@@8
rdata$r	SEGMENT
??_R3SMotionEventDataScreenWaving@NMotionEvent@@8 DD 00H ; NMotionEvent::SMotionEventDataScreenWaving::`RTTI Class Hierarchy Descriptor'
	DD	00H
	DD	02H
	DD	FLAT:??_R2SMotionEventDataScreenWaving@NMotionEvent@@8
rdata$r	ENDS
;	COMDAT ??_R0?AUSMotionEventDataScreenWaving@NMotionEvent@@@8
data$rs	SEGMENT
??_R0?AUSMotionEventDataScreenWaving@NMotionEvent@@@8 DD FLAT:??_7type_info@@6B@ ; NMotionEvent::SMotionEventDataScreenWaving `RTTI Type Descriptor'
	DD	00H
	DB	'.?AUSMotionEventDataScreenWaving@NMotionEvent@@', 00H
data$rs	ENDS
;	COMDAT ??_R4SMotionEventDataScreenWaving@NMotionEvent@@6B@
rdata$r	SEGMENT
??_R4SMotionEventDataScreenWaving@NMotionEvent@@6B@ DD 00H ; NMotionEvent::SMotionEventDataScreenWaving::`RTTI Complete Object Locator'
	DD	00H
	DD	00H
	DD	FLAT:??_R0?AUSMotionEventDataScreenWaving@NMotionEvent@@@8
	DD	FLAT:??_R3SMotionEventDataScreenWaving@NMotionEvent@@8
rdata$r	ENDS
;	COMDAT ??_R1A@?0A@EA@SMotionEventData@NMotionEvent@@8
rdata$r	SEGMENT
??_R1A@?0A@EA@SMotionEventData@NMotionEvent@@8 DD FLAT:??_R0?AUSMotionEventData@NMotionEvent@@@8 ; NMotionEvent::SMotionEventData::`RTTI Base Class Descriptor at (0,-1,0,64)'
	DD	00H
	DD	00H
	DD	0ffffffffH
	DD	00H
	DD	040H
	DD	FLAT:??_R3SMotionEventData@NMotionEvent@@8
rdata$r	ENDS
;	COMDAT ??_R2SMotionEventData@NMotionEvent@@8
rdata$r	SEGMENT
??_R2SMotionEventData@NMotionEvent@@8 DD FLAT:??_R1A@?0A@EA@SMotionEventData@NMotionEvent@@8 ; NMotionEvent::SMotionEventData::`RTTI Base Class Array'
rdata$r	ENDS
;	COMDAT ??_R3SMotionEventData@NMotionEvent@@8
rdata$r	SEGMENT
??_R3SMotionEventData@NMotionEvent@@8 DD 00H		; NMotionEvent::SMotionEventData::`RTTI Class Hierarchy Descriptor'
	DD	00H
	DD	01H
	DD	FLAT:??_R2SMotionEventData@NMotionEvent@@8
rdata$r	ENDS
;	COMDAT ??_R0?AUSMotionEventData@NMotionEvent@@@8
data$rs	SEGMENT
??_R0?AUSMotionEventData@NMotionEvent@@@8 DD FLAT:??_7type_info@@6B@ ; NMotionEvent::SMotionEventData `RTTI Type Descriptor'
	DD	00H
	DB	'.?AUSMotionEventData@NMotionEvent@@', 00H
data$rs	ENDS
;	COMDAT ??_R4SMotionEventData@NMotionEvent@@6B@
rdata$r	SEGMENT
??_R4SMotionEventData@NMotionEvent@@6B@ DD 00H		; NMotionEvent::SMotionEventData::`RTTI Complete Object Locator'
	DD	00H
	DD	00H
	DD	FLAT:??_R0?AUSMotionEventData@NMotionEvent@@@8
	DD	FLAT:??_R3SMotionEventData@NMotionEvent@@8
rdata$r	ENDS
;	COMDAT ??_R1A@?0A@EA@?$CDynamicPoolEx@VCRotationDecorator@NEffectUpdateDecorator@@@@8
rdata$r	SEGMENT
??_R1A@?0A@EA@?$CDynamicPoolEx@VCRotationDecorator@NEffectUpdateDecorator@@@@8 DD FLAT:??_R0?AV?$CDynamicPoolEx@VCRotationDecorator@NEffectUpdateDecorator@@@@@8 ; CDynamicPoolEx<NEffectUpdateDecorator::CRotationDecorator>::`RTTI Base Class Descriptor at (0,-1,0,64)'
	DD	00H
	DD	00H
	DD	0ffffffffH
	DD	00H
	DD	040H
	DD	FLAT:??_R3?$CDynamicPoolEx@VCRotationDecorator@NEffectUpdateDecorator@@@@8
rdata$r	ENDS
;	COMDAT ??_R2?$CDynamicPoolEx@VCRotationDecorator@NEffectUpdateDecorator@@@@8
rdata$r	SEGMENT
??_R2?$CDynamicPoolEx@VCRotationDecorator@NEffectUpdateDecorator@@@@8 DD FLAT:??_R1A@?0A@EA@?$CDynamicPoolEx@VCRotationDecorator@NEffectUpdateDecorator@@@@8 ; CDynamicPoolEx<NEffectUpdateDecorator::CRotationDecorator>::`RTTI Base Class Array'
rdata$r	ENDS
;	COMDAT ??_R3?$CDynamicPoolEx@VCRotationDecorator@NEffectUpdateDecorator@@@@8
rdata$r	SEGMENT
??_R3?$CDynamicPoolEx@VCRotationDecorator@NEffectUpdateDecorator@@@@8 DD 00H ; CDynamicPoolEx<NEffectUpdateDecorator::CRotationDecorator>::`RTTI Class Hierarchy Descriptor'
	DD	00H
	DD	01H
	DD	FLAT:??_R2?$CDynamicPoolEx@VCRotationDecorator@NEffectUpdateDecorator@@@@8
rdata$r	ENDS
;	COMDAT ??_R0?AV?$CDynamicPoolEx@VCRotationDecorator@NEffectUpdateDecorator@@@@@8
data$rs	SEGMENT
??_R0?AV?$CDynamicPoolEx@VCRotationDecorator@NEffectUpdateDecorator@@@@@8 DD FLAT:??_7type_info@@6B@ ; CDynamicPoolEx<NEffectUpdateDecorator::CRotationDecorator> `RTTI Type Descriptor'
	DD	00H
	DB	'.?AV?$CDynamicPoolEx@VCRotationDecorator@NEffectUpdateDe'
	DB	'corator@@@@', 00H
data$rs	ENDS
;	COMDAT ??_R4?$CDynamicPoolEx@VCRotationDecorator@NEffectUpdateDecorator@@@@6B@
rdata$r	SEGMENT
??_R4?$CDynamicPoolEx@VCRotationDecorator@NEffectUpdateDecorator@@@@6B@ DD 00H ; CDynamicPoolEx<NEffectUpdateDecorator::CRotationDecorator>::`RTTI Complete Object Locator'
	DD	00H
	DD	00H
	DD	FLAT:??_R0?AV?$CDynamicPoolEx@VCRotationDecorator@NEffectUpdateDecorator@@@@@8
	DD	FLAT:??_R3?$CDynamicPoolEx@VCRotationDecorator@NEffectUpdateDecorator@@@@8
rdata$r	ENDS
;	COMDAT ??_R1A@?0A@EA@?$CDynamicPoolEx@VCGravityDecorator@NEffectUpdateDecorator@@@@8
rdata$r	SEGMENT
??_R1A@?0A@EA@?$CDynamicPoolEx@VCGravityDecorator@NEffectUpdateDecorator@@@@8 DD FLAT:??_R0?AV?$CDynamicPoolEx@VCGravityDecorator@NEffectUpdateDecorator@@@@@8 ; CDynamicPoolEx<NEffectUpdateDecorator::CGravityDecorator>::`RTTI Base Class Descriptor at (0,-1,0,64)'
	DD	00H
	DD	00H
	DD	0ffffffffH
	DD	00H
	DD	040H
	DD	FLAT:??_R3?$CDynamicPoolEx@VCGravityDecorator@NEffectUpdateDecorator@@@@8
rdata$r	ENDS
;	COMDAT ??_R2?$CDynamicPoolEx@VCGravityDecorator@NEffectUpdateDecorator@@@@8
rdata$r	SEGMENT
??_R2?$CDynamicPoolEx@VCGravityDecorator@NEffectUpdateDecorator@@@@8 DD FLAT:??_R1A@?0A@EA@?$CDynamicPoolEx@VCGravityDecorator@NEffectUpdateDecorator@@@@8 ; CDynamicPoolEx<NEffectUpdateDecorator::CGravityDecorator>::`RTTI Base Class Array'
rdata$r	ENDS
;	COMDAT ??_R3?$CDynamicPoolEx@VCGravityDecorator@NEffectUpdateDecorator@@@@8
rdata$r	SEGMENT
??_R3?$CDynamicPoolEx@VCGravityDecorator@NEffectUpdateDecorator@@@@8 DD 00H ; CDynamicPoolEx<NEffectUpdateDecorator::CGravityDecorator>::`RTTI Class Hierarchy Descriptor'
	DD	00H
	DD	01H
	DD	FLAT:??_R2?$CDynamicPoolEx@VCGravityDecorator@NEffectUpdateDecorator@@@@8
rdata$r	ENDS
;	COMDAT ??_R0?AV?$CDynamicPoolEx@VCGravityDecorator@NEffectUpdateDecorator@@@@@8
data$rs	SEGMENT
??_R0?AV?$CDynamicPoolEx@VCGravityDecorator@NEffectUpdateDecorator@@@@@8 DD FLAT:??_7type_info@@6B@ ; CDynamicPoolEx<NEffectUpdateDecorator::CGravityDecorator> `RTTI Type Descriptor'
	DD	00H
	DB	'.?AV?$CDynamicPoolEx@VCGravityDecorator@NEffectUpdateDec'
	DB	'orator@@@@', 00H
data$rs	ENDS
;	COMDAT ??_R4?$CDynamicPoolEx@VCGravityDecorator@NEffectUpdateDecorator@@@@6B@
rdata$r	SEGMENT
??_R4?$CDynamicPoolEx@VCGravityDecorator@NEffectUpdateDecorator@@@@6B@ DD 00H ; CDynamicPoolEx<NEffectUpdateDecorator::CGravityDecorator>::`RTTI Complete Object Locator'
	DD	00H
	DD	00H
	DD	FLAT:??_R0?AV?$CDynamicPoolEx@VCGravityDecorator@NEffectUpdateDecorator@@@@@8
	DD	FLAT:??_R3?$CDynamicPoolEx@VCGravityDecorator@NEffectUpdateDecorator@@@@8
rdata$r	ENDS
;	COMDAT ??_R1A@?0A@EA@?$CDynamicPoolEx@VCAirResistanceDecorator@NEffectUpdateDecorator@@@@8
rdata$r	SEGMENT
??_R1A@?0A@EA@?$CDynamicPoolEx@VCAirResistanceDecorator@NEffectUpdateDecorator@@@@8 DD FLAT:??_R0?AV?$CDynamicPoolEx@VCAirResistanceDecorator@NEffectUpdateDecorator@@@@@8 ; CDynamicPoolEx<NEffectUpdateDecorator::CAirResistanceDecorator>::`RTTI Base Class Descriptor at (0,-1,0,64)'
	DD	00H
	DD	00H
	DD	0ffffffffH
	DD	00H
	DD	040H
	DD	FLAT:??_R3?$CDynamicPoolEx@VCAirResistanceDecorator@NEffectUpdateDecorator@@@@8
rdata$r	ENDS
;	COMDAT ??_R2?$CDynamicPoolEx@VCAirResistanceDecorator@NEffectUpdateDecorator@@@@8
rdata$r	SEGMENT
??_R2?$CDynamicPoolEx@VCAirResistanceDecorator@NEffectUpdateDecorator@@@@8 DD FLAT:??_R1A@?0A@EA@?$CDynamicPoolEx@VCAirResistanceDecorator@NEffectUpdateDecorator@@@@8 ; CDynamicPoolEx<NEffectUpdateDecorator::CAirResistanceDecorator>::`RTTI Base Class Array'
rdata$r	ENDS
;	COMDAT ??_R3?$CDynamicPoolEx@VCAirResistanceDecorator@NEffectUpdateDecorator@@@@8
rdata$r	SEGMENT
??_R3?$CDynamicPoolEx@VCAirResistanceDecorator@NEffectUpdateDecorator@@@@8 DD 00H ; CDynamicPoolEx<NEffectUpdateDecorator::CAirResistanceDecorator>::`RTTI Class Hierarchy Descriptor'
	DD	00H
	DD	01H
	DD	FLAT:??_R2?$CDynamicPoolEx@VCAirResistanceDecorator@NEffectUpdateDecorator@@@@8
rdata$r	ENDS
;	COMDAT ??_R0?AV?$CDynamicPoolEx@VCAirResistanceDecorator@NEffectUpdateDecorator@@@@@8
data$rs	SEGMENT
??_R0?AV?$CDynamicPoolEx@VCAirResistanceDecorator@NEffectUpdateDecorator@@@@@8 DD FLAT:??_7type_info@@6B@ ; CDynamicPoolEx<NEffectUpdateDecorator::CAirResistanceDecorator> `RTTI Type Descriptor'
	DD	00H
	DB	'.?AV?$CDynamicPoolEx@VCAirResistanceDecorator@NEffectUpd'
	DB	'ateDecorator@@@@', 00H
data$rs	ENDS
;	COMDAT ??_R4?$CDynamicPoolEx@VCAirResistanceDecorator@NEffectUpdateDecorator@@@@6B@
rdata$r	SEGMENT
??_R4?$CDynamicPoolEx@VCAirResistanceDecorator@NEffectUpdateDecorator@@@@6B@ DD 00H ; CDynamicPoolEx<NEffectUpdateDecorator::CAirResistanceDecorator>::`RTTI Complete Object Locator'
	DD	00H
	DD	00H
	DD	FLAT:??_R0?AV?$CDynamicPoolEx@VCAirResistanceDecorator@NEffectUpdateDecorator@@@@@8
	DD	FLAT:??_R3?$CDynamicPoolEx@VCAirResistanceDecorator@NEffectUpdateDecorator@@@@8
rdata$r	ENDS
;	COMDAT ??_R1A@?0A@EA@?$CDynamicPoolEx@VCTextureAnimationRandomDecorator@NEffectUpdateDecorator@@@@8
rdata$r	SEGMENT
??_R1A@?0A@EA@?$CDynamicPoolEx@VCTextureAnimationRandomDecorator@NEffectUpdateDecorator@@@@8 DD FLAT:??_R0?AV?$CDynamicPoolEx@VCTextureAnimationRandomDecorator@NEffectUpdateDecorator@@@@@8 ; CDynamicPoolEx<NEffectUpdateDecorator::CTextureAnimationRandomDecorator>::`RTTI Base Class Descriptor at (0,-1,0,64)'
	DD	00H
	DD	00H
	DD	0ffffffffH
	DD	00H
	DD	040H
	DD	FLAT:??_R3?$CDynamicPoolEx@VCTextureAnimationRandomDecorator@NEffectUpdateDecorator@@@@8
rdata$r	ENDS
;	COMDAT ??_R2?$CDynamicPoolEx@VCTextureAnimationRandomDecorator@NEffectUpdateDecorator@@@@8
rdata$r	SEGMENT
??_R2?$CDynamicPoolEx@VCTextureAnimationRandomDecorator@NEffectUpdateDecorator@@@@8 DD FLAT:??_R1A@?0A@EA@?$CDynamicPoolEx@VCTextureAnimationRandomDecorator@NEffectUpdateDecorator@@@@8 ; CDynamicPoolEx<NEffectUpdateDecorator::CTextureAnimationRandomDecorator>::`RTTI Base Class Array'
rdata$r	ENDS
;	COMDAT ??_R3?$CDynamicPoolEx@VCTextureAnimationRandomDecorator@NEffectUpdateDecorator@@@@8
rdata$r	SEGMENT
??_R3?$CDynamicPoolEx@VCTextureAnimationRandomDecorator@NEffectUpdateDecorator@@@@8 DD 00H ; CDynamicPoolEx<NEffectUpdateDecorator::CTextureAnimationRandomDecorator>::`RTTI Class Hierarchy Descriptor'
	DD	00H
	DD	01H
	DD	FLAT:??_R2?$CDynamicPoolEx@VCTextureAnimationRandomDecorator@NEffectUpdateDecorator@@@@8
rdata$r	ENDS
;	COMDAT ??_R0?AV?$CDynamicPoolEx@VCTextureAnimationRandomDecorator@NEffectUpdateDecorator@@@@@8
data$rs	SEGMENT
??_R0?AV?$CDynamicPoolEx@VCTextureAnimationRandomDecorator@NEffectUpdateDecorator@@@@@8 DD FLAT:??_7type_info@@6B@ ; CDynamicPoolEx<NEffectUpdateDecorator::CTextureAnimationRandomDecorator> `RTTI Type Descriptor'
	DD	00H
	DB	'.?AV?$CDynamicPoolEx@VCTextureAnimationRandomDecorator@N'
	DB	'EffectUpdateDecorator@@@@', 00H
data$rs	ENDS
;	COMDAT ??_R4?$CDynamicPoolEx@VCTextureAnimationRandomDecorator@NEffectUpdateDecorator@@@@6B@
rdata$r	SEGMENT
??_R4?$CDynamicPoolEx@VCTextureAnimationRandomDecorator@NEffectUpdateDecorator@@@@6B@ DD 00H ; CDynamicPoolEx<NEffectUpdateDecorator::CTextureAnimationRandomDecorator>::`RTTI Complete Object Locator'
	DD	00H
	DD	00H
	DD	FLAT:??_R0?AV?$CDynamicPoolEx@VCTextureAnimationRandomDecorator@NEffectUpdateDecorator@@@@@8
	DD	FLAT:??_R3?$CDynamicPoolEx@VCTextureAnimationRandomDecorator@NEffectUpdateDecorator@@@@8
rdata$r	ENDS
;	COMDAT ??_R1A@?0A@EA@?$CDynamicPoolEx@VCTextureAnimationCCWDecorator@NEffectUpdateDecorator@@@@8
rdata$r	SEGMENT
??_R1A@?0A@EA@?$CDynamicPoolEx@VCTextureAnimationCCWDecorator@NEffectUpdateDecorator@@@@8 DD FLAT:??_R0?AV?$CDynamicPoolEx@VCTextureAnimationCCWDecorator@NEffectUpdateDecorator@@@@@8 ; CDynamicPoolEx<NEffectUpdateDecorator::CTextureAnimationCCWDecorator>::`RTTI Base Class Descriptor at (0,-1,0,64)'
	DD	00H
	DD	00H
	DD	0ffffffffH
	DD	00H
	DD	040H
	DD	FLAT:??_R3?$CDynamicPoolEx@VCTextureAnimationCCWDecorator@NEffectUpdateDecorator@@@@8
rdata$r	ENDS
;	COMDAT ??_R2?$CDynamicPoolEx@VCTextureAnimationCCWDecorator@NEffectUpdateDecorator@@@@8
rdata$r	SEGMENT
??_R2?$CDynamicPoolEx@VCTextureAnimationCCWDecorator@NEffectUpdateDecorator@@@@8 DD FLAT:??_R1A@?0A@EA@?$CDynamicPoolEx@VCTextureAnimationCCWDecorator@NEffectUpdateDecorator@@@@8 ; CDynamicPoolEx<NEffectUpdateDecorator::CTextureAnimationCCWDecorator>::`RTTI Base Class Array'
rdata$r	ENDS
;	COMDAT ??_R3?$CDynamicPoolEx@VCTextureAnimationCCWDecorator@NEffectUpdateDecorator@@@@8
rdata$r	SEGMENT
??_R3?$CDynamicPoolEx@VCTextureAnimationCCWDecorator@NEffectUpdateDecorator@@@@8 DD 00H ; CDynamicPoolEx<NEffectUpdateDecorator::CTextureAnimationCCWDecorator>::`RTTI Class Hierarchy Descriptor'
	DD	00H
	DD	01H
	DD	FLAT:??_R2?$CDynamicPoolEx@VCTextureAnimationCCWDecorator@NEffectUpdateDecorator@@@@8
rdata$r	ENDS
;	COMDAT ??_R0?AV?$CDynamicPoolEx@VCTextureAnimationCCWDecorator@NEffectUpdateDecorator@@@@@8
data$rs	SEGMENT
??_R0?AV?$CDynamicPoolEx@VCTextureAnimationCCWDecorator@NEffectUpdateDecorator@@@@@8 DD FLAT:??_7type_info@@6B@ ; CDynamicPoolEx<NEffectUpdateDecorator::CTextureAnimationCCWDecorator> `RTTI Type Descriptor'
	DD	00H
	DB	'.?AV?$CDynamicPoolEx@VCTextureAnimationCCWDecorator@NEff'
	DB	'ectUpdateDecorator@@@@', 00H
data$rs	ENDS
;	COMDAT ??_R4?$CDynamicPoolEx@VCTextureAnimationCCWDecorator@NEffectUpdateDecorator@@@@6B@
rdata$r	SEGMENT
??_R4?$CDynamicPoolEx@VCTextureAnimationCCWDecorator@NEffectUpdateDecorator@@@@6B@ DD 00H ; CDynamicPoolEx<NEffectUpdateDecorator::CTextureAnimationCCWDecorator>::`RTTI Complete Object Locator'
	DD	00H
	DD	00H
	DD	FLAT:??_R0?AV?$CDynamicPoolEx@VCTextureAnimationCCWDecorator@NEffectUpdateDecorator@@@@@8
	DD	FLAT:??_R3?$CDynamicPoolEx@VCTextureAnimationCCWDecorator@NEffectUpdateDecorator@@@@8
rdata$r	ENDS
;	COMDAT ??_R1A@?0A@EA@?$CDynamicPoolEx@VCTextureAnimationCWDecorator@NEffectUpdateDecorator@@@@8
rdata$r	SEGMENT
??_R1A@?0A@EA@?$CDynamicPoolEx@VCTextureAnimationCWDecorator@NEffectUpdateDecorator@@@@8 DD FLAT:??_R0?AV?$CDynamicPoolEx@VCTextureAnimationCWDecorator@NEffectUpdateDecorator@@@@@8 ; CDynamicPoolEx<NEffectUpdateDecorator::CTextureAnimationCWDecorator>::`RTTI Base Class Descriptor at (0,-1,0,64)'
	DD	00H
	DD	00H
	DD	0ffffffffH
	DD	00H
	DD	040H
	DD	FLAT:??_R3?$CDynamicPoolEx@VCTextureAnimationCWDecorator@NEffectUpdateDecorator@@@@8
rdata$r	ENDS
;	COMDAT ??_R2?$CDynamicPoolEx@VCTextureAnimationCWDecorator@NEffectUpdateDecorator@@@@8
rdata$r	SEGMENT
??_R2?$CDynamicPoolEx@VCTextureAnimationCWDecorator@NEffectUpdateDecorator@@@@8 DD FLAT:??_R1A@?0A@EA@?$CDynamicPoolEx@VCTextureAnimationCWDecorator@NEffectUpdateDecorator@@@@8 ; CDynamicPoolEx<NEffectUpdateDecorator::CTextureAnimationCWDecorator>::`RTTI Base Class Array'
rdata$r	ENDS
;	COMDAT ??_R3?$CDynamicPoolEx@VCTextureAnimationCWDecorator@NEffectUpdateDecorator@@@@8
rdata$r	SEGMENT
??_R3?$CDynamicPoolEx@VCTextureAnimationCWDecorator@NEffectUpdateDecorator@@@@8 DD 00H ; CDynamicPoolEx<NEffectUpdateDecorator::CTextureAnimationCWDecorator>::`RTTI Class Hierarchy Descriptor'
	DD	00H
	DD	01H
	DD	FLAT:??_R2?$CDynamicPoolEx@VCTextureAnimationCWDecorator@NEffectUpdateDecorator@@@@8
rdata$r	ENDS
;	COMDAT ??_R0?AV?$CDynamicPoolEx@VCTextureAnimationCWDecorator@NEffectUpdateDecorator@@@@@8
data$rs	SEGMENT
??_R0?AV?$CDynamicPoolEx@VCTextureAnimationCWDecorator@NEffectUpdateDecorator@@@@@8 DD FLAT:??_7type_info@@6B@ ; CDynamicPoolEx<NEffectUpdateDecorator::CTextureAnimationCWDecorator> `RTTI Type Descriptor'
	DD	00H
	DB	'.?AV?$CDynamicPoolEx@VCTextureAnimationCWDecorator@NEffe'
	DB	'ctUpdateDecorator@@@@', 00H
data$rs	ENDS
;	COMDAT ??_R4?$CDynamicPoolEx@VCTextureAnimationCWDecorator@NEffectUpdateDecorator@@@@6B@
rdata$r	SEGMENT
??_R4?$CDynamicPoolEx@VCTextureAnimationCWDecorator@NEffectUpdateDecorator@@@@6B@ DD 00H ; CDynamicPoolEx<NEffectUpdateDecorator::CTextureAnimationCWDecorator>::`RTTI Complete Object Locator'
	DD	00H
	DD	00H
	DD	FLAT:??_R0?AV?$CDynamicPoolEx@VCTextureAnimationCWDecorator@NEffectUpdateDecorator@@@@@8
	DD	FLAT:??_R3?$CDynamicPoolEx@VCTextureAnimationCWDecorator@NEffectUpdateDecorator@@@@8
rdata$r	ENDS
;	COMDAT ??_R1A@?0A@EA@?$CDynamicPoolEx@VCNullDecorator@NEffectUpdateDecorator@@@@8
rdata$r	SEGMENT
??_R1A@?0A@EA@?$CDynamicPoolEx@VCNullDecorator@NEffectUpdateDecorator@@@@8 DD FLAT:??_R0?AV?$CDynamicPoolEx@VCNullDecorator@NEffectUpdateDecorator@@@@@8 ; CDynamicPoolEx<NEffectUpdateDecorator::CNullDecorator>::`RTTI Base Class Descriptor at (0,-1,0,64)'
	DD	00H
	DD	00H
	DD	0ffffffffH
	DD	00H
	DD	040H
	DD	FLAT:??_R3?$CDynamicPoolEx@VCNullDecorator@NEffectUpdateDecorator@@@@8
rdata$r	ENDS
;	COMDAT ??_R2?$CDynamicPoolEx@VCNullDecorator@NEffectUpdateDecorator@@@@8
rdata$r	SEGMENT
??_R2?$CDynamicPoolEx@VCNullDecorator@NEffectUpdateDecorator@@@@8 DD FLAT:??_R1A@?0A@EA@?$CDynamicPoolEx@VCNullDecorator@NEffectUpdateDecorator@@@@8 ; CDynamicPoolEx<NEffectUpdateDecorator::CNullDecorator>::`RTTI Base Class Array'
rdata$r	ENDS
;	COMDAT ??_R3?$CDynamicPoolEx@VCNullDecorator@NEffectUpdateDecorator@@@@8
rdata$r	SEGMENT
??_R3?$CDynamicPoolEx@VCNullDecorator@NEffectUpdateDecorator@@@@8 DD 00H ; CDynamicPoolEx<NEffectUpdateDecorator::CNullDecorator>::`RTTI Class Hierarchy Descriptor'
	DD	00H
	DD	01H
	DD	FLAT:??_R2?$CDynamicPoolEx@VCNullDecorator@NEffectUpdateDecorator@@@@8
rdata$r	ENDS
;	COMDAT ??_R0?AV?$CDynamicPoolEx@VCNullDecorator@NEffectUpdateDecorator@@@@@8
data$rs	SEGMENT
??_R0?AV?$CDynamicPoolEx@VCNullDecorator@NEffectUpdateDecorator@@@@@8 DD FLAT:??_7type_info@@6B@ ; CDynamicPoolEx<NEffectUpdateDecorator::CNullDecorator> `RTTI Type Descriptor'
	DD	00H
	DB	'.?AV?$CDynamicPoolEx@VCNullDecorator@NEffectUpdateDecora'
	DB	'tor@@@@', 00H
data$rs	ENDS
;	COMDAT ??_R4?$CDynamicPoolEx@VCNullDecorator@NEffectUpdateDecorator@@@@6B@
rdata$r	SEGMENT
??_R4?$CDynamicPoolEx@VCNullDecorator@NEffectUpdateDecorator@@@@6B@ DD 00H ; CDynamicPoolEx<NEffectUpdateDecorator::CNullDecorator>::`RTTI Complete Object Locator'
	DD	00H
	DD	00H
	DD	FLAT:??_R0?AV?$CDynamicPoolEx@VCNullDecorator@NEffectUpdateDecorator@@@@@8
	DD	FLAT:??_R3?$CDynamicPoolEx@VCNullDecorator@NEffectUpdateDecorator@@@@8
rdata$r	ENDS
;	COMDAT ??_R1A@?0A@EA@?$CDynamicPoolEx@VCHeaderDecorator@NEffectUpdateDecorator@@@@8
rdata$r	SEGMENT
??_R1A@?0A@EA@?$CDynamicPoolEx@VCHeaderDecorator@NEffectUpdateDecorator@@@@8 DD FLAT:??_R0?AV?$CDynamicPoolEx@VCHeaderDecorator@NEffectUpdateDecorator@@@@@8 ; CDynamicPoolEx<NEffectUpdateDecorator::CHeaderDecorator>::`RTTI Base Class Descriptor at (0,-1,0,64)'
	DD	00H
	DD	00H
	DD	0ffffffffH
	DD	00H
	DD	040H
	DD	FLAT:??_R3?$CDynamicPoolEx@VCHeaderDecorator@NEffectUpdateDecorator@@@@8
rdata$r	ENDS
;	COMDAT ??_R2?$CDynamicPoolEx@VCHeaderDecorator@NEffectUpdateDecorator@@@@8
rdata$r	SEGMENT
??_R2?$CDynamicPoolEx@VCHeaderDecorator@NEffectUpdateDecorator@@@@8 DD FLAT:??_R1A@?0A@EA@?$CDynamicPoolEx@VCHeaderDecorator@NEffectUpdateDecorator@@@@8 ; CDynamicPoolEx<NEffectUpdateDecorator::CHeaderDecorator>::`RTTI Base Class Array'
rdata$r	ENDS
;	COMDAT ??_R3?$CDynamicPoolEx@VCHeaderDecorator@NEffectUpdateDecorator@@@@8
rdata$r	SEGMENT
??_R3?$CDynamicPoolEx@VCHeaderDecorator@NEffectUpdateDecorator@@@@8 DD 00H ; CDynamicPoolEx<NEffectUpdateDecorator::CHeaderDecorator>::`RTTI Class Hierarchy Descriptor'
	DD	00H
	DD	01H
	DD	FLAT:??_R2?$CDynamicPoolEx@VCHeaderDecorator@NEffectUpdateDecorator@@@@8
rdata$r	ENDS
;	COMDAT ??_R0?AV?$CDynamicPoolEx@VCHeaderDecorator@NEffectUpdateDecorator@@@@@8
data$rs	SEGMENT
??_R0?AV?$CDynamicPoolEx@VCHeaderDecorator@NEffectUpdateDecorator@@@@@8 DD FLAT:??_7type_info@@6B@ ; CDynamicPoolEx<NEffectUpdateDecorator::CHeaderDecorator> `RTTI Type Descriptor'
	DD	00H
	DB	'.?AV?$CDynamicPoolEx@VCHeaderDecorator@NEffectUpdateDeco'
	DB	'rator@@@@', 00H
data$rs	ENDS
;	COMDAT ??_R4?$CDynamicPoolEx@VCHeaderDecorator@NEffectUpdateDecorator@@@@6B@
rdata$r	SEGMENT
??_R4?$CDynamicPoolEx@VCHeaderDecorator@NEffectUpdateDecorator@@@@6B@ DD 00H ; CDynamicPoolEx<NEffectUpdateDecorator::CHeaderDecorator>::`RTTI Complete Object Locator'
	DD	00H
	DD	00H
	DD	FLAT:??_R0?AV?$CDynamicPoolEx@VCHeaderDecorator@NEffectUpdateDecorator@@@@@8
	DD	FLAT:??_R3?$CDynamicPoolEx@VCHeaderDecorator@NEffectUpdateDecorator@@@@8
rdata$r	ENDS
;	COMDAT ??_C@_0BA@FOIKENOD@vector?5too?5long@
CONST	SEGMENT
??_C@_0BA@FOIKENOD@vector?5too?5long@ DB 'vector too long', 00H ; `string'
CONST	ENDS
;	COMDAT ??_C@_0BJ@DHFDPMIM@invalid?5vector?5subscript@
CONST	SEGMENT
??_C@_0BJ@DHFDPMIM@invalid?5vector?5subscript@ DB 'invalid vector subscri'
	DB	'pt', 00H					; `string'
CONST	ENDS
;	COMDAT ??_7?$CDynamicPoolEx@VCHeaderDecorator@NEffectUpdateDecorator@@@@6B@
CONST	SEGMENT
??_7?$CDynamicPoolEx@VCHeaderDecorator@NEffectUpdateDecorator@@@@6B@ DD FLAT:??_R4?$CDynamicPoolEx@VCHeaderDecorator@NEffectUpdateDecorator@@@@6B@ ; CDynamicPoolEx<NEffectUpdateDecorator::CHeaderDecorator>::`vftable'
	DD	FLAT:??_E?$CDynamicPoolEx@VCHeaderDecorator@NEffectUpdateDecorator@@@@UAEPAXI@Z
CONST	ENDS
;	COMDAT ??_7?$CDynamicPoolEx@VCNullDecorator@NEffectUpdateDecorator@@@@6B@
CONST	SEGMENT
??_7?$CDynamicPoolEx@VCNullDecorator@NEffectUpdateDecorator@@@@6B@ DD FLAT:??_R4?$CDynamicPoolEx@VCNullDecorator@NEffectUpdateDecorator@@@@6B@ ; CDynamicPoolEx<NEffectUpdateDecorator::CNullDecorator>::`vftable'
	DD	FLAT:??_E?$CDynamicPoolEx@VCNullDecorator@NEffectUpdateDecorator@@@@UAEPAXI@Z
CONST	ENDS
;	COMDAT ??_7?$CDynamicPoolEx@VCTextureAnimationCWDecorator@NEffectUpdateDecorator@@@@6B@
CONST	SEGMENT
??_7?$CDynamicPoolEx@VCTextureAnimationCWDecorator@NEffectUpdateDecorator@@@@6B@ DD FLAT:??_R4?$CDynamicPoolEx@VCTextureAnimationCWDecorator@NEffectUpdateDecorator@@@@6B@ ; CDynamicPoolEx<NEffectUpdateDecorator::CTextureAnimationCWDecorator>::`vftable'
	DD	FLAT:??_E?$CDynamicPoolEx@VCTextureAnimationCWDecorator@NEffectUpdateDecorator@@@@UAEPAXI@Z
CONST	ENDS
;	COMDAT ??_7?$CDynamicPoolEx@VCTextureAnimationCCWDecorator@NEffectUpdateDecorator@@@@6B@
CONST	SEGMENT
??_7?$CDynamicPoolEx@VCTextureAnimationCCWDecorator@NEffectUpdateDecorator@@@@6B@ DD FLAT:??_R4?$CDynamicPoolEx@VCTextureAnimationCCWDecorator@NEffectUpdateDecorator@@@@6B@ ; CDynamicPoolEx<NEffectUpdateDecorator::CTextureAnimationCCWDecorator>::`vftable'
	DD	FLAT:??_E?$CDynamicPoolEx@VCTextureAnimationCCWDecorator@NEffectUpdateDecorator@@@@UAEPAXI@Z
CONST	ENDS
;	COMDAT ??_7?$CDynamicPoolEx@VCTextureAnimationRandomDecorator@NEffectUpdateDecorator@@@@6B@
CONST	SEGMENT
??_7?$CDynamicPoolEx@VCTextureAnimationRandomDecorator@NEffectUpdateDecorator@@@@6B@ DD FLAT:??_R4?$CDynamicPoolEx@VCTextureAnimationRandomDecorator@NEffectUpdateDecorator@@@@6B@ ; CDynamicPoolEx<NEffectUpdateDecorator::CTextureAnimationRandomDecorator>::`vftable'
	DD	FLAT:??_E?$CDynamicPoolEx@VCTextureAnimationRandomDecorator@NEffectUpdateDecorator@@@@UAEPAXI@Z
CONST	ENDS
;	COMDAT ??_7?$CDynamicPoolEx@VCAirResistanceDecorator@NEffectUpdateDecorator@@@@6B@
CONST	SEGMENT
??_7?$CDynamicPoolEx@VCAirResistanceDecorator@NEffectUpdateDecorator@@@@6B@ DD FLAT:??_R4?$CDynamicPoolEx@VCAirResistanceDecorator@NEffectUpdateDecorator@@@@6B@ ; CDynamicPoolEx<NEffectUpdateDecorator::CAirResistanceDecorator>::`vftable'
	DD	FLAT:??_E?$CDynamicPoolEx@VCAirResistanceDecorator@NEffectUpdateDecorator@@@@UAEPAXI@Z
CONST	ENDS
;	COMDAT ??_7?$CDynamicPoolEx@VCGravityDecorator@NEffectUpdateDecorator@@@@6B@
CONST	SEGMENT
??_7?$CDynamicPoolEx@VCGravityDecorator@NEffectUpdateDecorator@@@@6B@ DD FLAT:??_R4?$CDynamicPoolEx@VCGravityDecorator@NEffectUpdateDecorator@@@@6B@ ; CDynamicPoolEx<NEffectUpdateDecorator::CGravityDecorator>::`vftable'
	DD	FLAT:??_E?$CDynamicPoolEx@VCGravityDecorator@NEffectUpdateDecorator@@@@UAEPAXI@Z
CONST	ENDS
;	COMDAT ??_7?$CDynamicPoolEx@VCRotationDecorator@NEffectUpdateDecorator@@@@6B@
CONST	SEGMENT
??_7?$CDynamicPoolEx@VCRotationDecorator@NEffectUpdateDecorator@@@@6B@ DD FLAT:??_R4?$CDynamicPoolEx@VCRotationDecorator@NEffectUpdateDecorator@@@@6B@ ; CDynamicPoolEx<NEffectUpdateDecorator::CRotationDecorator>::`vftable'
	DD	FLAT:??_E?$CDynamicPoolEx@VCRotationDecorator@NEffectUpdateDecorator@@@@UAEPAXI@Z
CONST	ENDS
;	COMDAT ??_C@_06PBLIODKG@sound?1@
CONST	SEGMENT
??_C@_06PBLIODKG@sound?1@ DB 'sound/', 00H		; `string'
CONST	ENDS
;	COMDAT ??_C@_04NMMFEKGF@?4mss@
CONST	SEGMENT
??_C@_04NMMFEKGF@?4mss@ DB '.mss', 00H			; `string'
CONST	ENDS
;	COMDAT ??_C@_0N@NHFBHOF@startingtime@
CONST	SEGMENT
??_C@_0N@NHFBHOF@startingtime@ DB 'startingtime', 00H	; `string'
CONST	ENDS
;	COMDAT ??_C@_0BA@CGGAKCNF@motioneventtype@
CONST	SEGMENT
??_C@_0BA@CGGAKCNF@motioneventtype@ DB 'motioneventtype', 00H ; `string'
CONST	ENDS
;	COMDAT ??_C@_05GFHEIIDD@event@
CONST	SEGMENT
??_C@_05GFHEIIDD@event@ DB 'event', 00H			; `string'
CONST	ENDS
;	COMDAT ??_C@_0BF@KNDELFNF@motioneventdatacount@
CONST	SEGMENT
??_C@_0BF@KNDELFNF@motioneventdatacount@ DB 'motioneventdatacount', 00H ; `string'
CONST	ENDS
;	COMDAT ??_C@_0BA@LAEICHPP@motioneventdata@
CONST	SEGMENT
??_C@_0BA@LAEICHPP@motioneventdata@ DB 'motioneventdata', 00H ; `string'
CONST	ENDS
;	COMDAT ??_C@_0M@HIAPALPD@loopendtime@
CONST	SEGMENT
??_C@_0M@HIAPALPD@loopendtime@ DB 'loopendtime', 00H	; `string'
CONST	ENDS
;	COMDAT ??_C@_0O@FAMGINHI@loopstarttime@
CONST	SEGMENT
??_C@_0O@FAMGINHI@loopstarttime@ DB 'loopstarttime', 00H ; `string'
CONST	ENDS
;	COMDAT ??_C@_0BB@LFNJMKIF@loopcancelenable@
CONST	SEGMENT
??_C@_0BB@LFNJMKIF@loopcancelenable@ DB 'loopcancelenable', 00H ; `string'
CONST	ENDS
;	COMDAT ??_C@_0BA@HKGDAAAM@motionloopcount@
CONST	SEGMENT
??_C@_0BA@HKGDAAAM@motionloopcount@ DB 'motionloopcount', 00H ; `string'
CONST	ENDS
;	COMDAT ??_C@_08BMIAMBLK@loopdata@
CONST	SEGMENT
??_C@_08BMIAMBLK@loopdata@ DB 'loopdata', 00H		; `string'
CONST	ENDS
;	COMDAT ??_C@_0O@NGMBMFEH@attackingdata@
CONST	SEGMENT
??_C@_0O@NGMBMFEH@attackingdata@ DB 'attackingdata', 00H ; `string'
CONST	ENDS
;	COMDAT ??_C@_0P@PPFBMGLB@inputlimittime@
CONST	SEGMENT
??_C@_0P@PPFBMGLB@inputlimittime@ DB 'inputlimittime', 00H ; `string'
CONST	ENDS
;	COMDAT ??_C@_0BA@OKILMLFK@directinputtime@
CONST	SEGMENT
??_C@_0BA@OKILMLFK@directinputtime@ DB 'directinputtime', 00H ; `string'
CONST	ENDS
;	COMDAT ??_C@_0N@IKJEINLI@preinputtime@
CONST	SEGMENT
??_C@_0N@IKJEINLI@preinputtime@ DB 'preinputtime', 00H	; `string'
CONST	ENDS
;	COMDAT ??_C@_0P@BEGKENNC@comboinputdata@
CONST	SEGMENT
??_C@_0P@BEGKENNC@comboinputdata@ DB 'comboinputdata', 00H ; `string'
CONST	ENDS
;	COMDAT ??_C@_0EP@FGBECHEA@CRaceMotioNData?3?3LoadMotionData@
CONST	SEGMENT
??_C@_0EP@FGBECHEA@CRaceMotioNData?3?3LoadMotionData@ DB 'CRaceMotioNData'
	DB	'::LoadMotionData : syntax error on accumulation, vector size '
	DB	'%d', 00H					; `string'
CONST	ENDS
;	COMDAT ??_C@_0N@JBNPINGA@accumulation@
CONST	SEGMENT
??_C@_0N@JBNPINGA@accumulation@ DB 'accumulation', 00H	; `string'
CONST	ENDS
;	COMDAT ??_C@_0P@CAAIIAIN@motionduration@
CONST	SEGMENT
??_C@_0P@CAAIIAIN@motionduration@ DB 'motionduration', 00H ; `string'
CONST	ENDS
;	COMDAT ??_C@_0P@IGAOIDID@motionfilename@
CONST	SEGMENT
??_C@_0P@IGAOIDID@motionfilename@ DB 'motionfilename', 00H ; `string'
CONST	ENDS
;	COMDAT ??_C@_0CL@NGIMIHAA@CRaceMotionData?3?3SetName?5?9?5UNKN@
CONST	SEGMENT
??_C@_0CL@NGIMIHAA@CRaceMotionData?3?3SetName?5?9?5UNKN@ DB 'CRaceMotionD'
	DB	'ata::SetName - UNKNOWN NAME %d', 00H	; `string'
CONST	ENDS
;	COMDAT ??_7?$CDynamicPool@VCRaceMotionData@@@@6B@
CONST	SEGMENT
??_7?$CDynamicPool@VCRaceMotionData@@@@6B@ DD FLAT:??_R4?$CDynamicPool@VCRaceMotionData@@@@6B@ ; CDynamicPool<CRaceMotionData>::`vftable'
	DD	FLAT:??_E?$CDynamicPool@VCRaceMotionData@@@@UAEPAXI@Z
CONST	ENDS
;	COMDAT ??_7CRaceMotionData@@6B@
CONST	SEGMENT
??_7CRaceMotionData@@6B@ DD FLAT:??_R4CRaceMotionData@@6B@ ; CRaceMotionData::`vftable'
	DD	FLAT:??_ECRaceMotionData@@UAEPAXI@Z
CONST	ENDS
;	COMDAT ??_7SMotionEventDataWarp@NMotionEvent@@6B@
CONST	SEGMENT
??_7SMotionEventDataWarp@NMotionEvent@@6B@ DD FLAT:??_R4SMotionEventDataWarp@NMotionEvent@@6B@ ; NMotionEvent::SMotionEventDataWarp::`vftable'
	DD	FLAT:??_ESMotionEventDataWarp@NMotionEvent@@UAEPAXI@Z
	DD	FLAT:?Save@SMotionEventDataWarp@NMotionEvent@@UAEXPAU_iobuf@@H@Z
	DD	FLAT:?Load@SMotionEventData@NMotionEvent@@UAE_NAAVCTextFileLoader@@@Z
CONST	ENDS
;	COMDAT ??_7SMotionEventDataCharacterHide@NMotionEvent@@6B@
CONST	SEGMENT
??_7SMotionEventDataCharacterHide@NMotionEvent@@6B@ DD FLAT:??_R4SMotionEventDataCharacterHide@NMotionEvent@@6B@ ; NMotionEvent::SMotionEventDataCharacterHide::`vftable'
	DD	FLAT:??_ESMotionEventDataCharacterHide@NMotionEvent@@UAEPAXI@Z
	DD	FLAT:?Save@SMotionEventDataCharacterHide@NMotionEvent@@UAEXPAU_iobuf@@H@Z
	DD	FLAT:?Load@SMotionEventData@NMotionEvent@@UAE_NAAVCTextFileLoader@@@Z
CONST	ENDS
;	COMDAT ??_7SMotionEventDataCharacterShow@NMotionEvent@@6B@
CONST	SEGMENT
??_7SMotionEventDataCharacterShow@NMotionEvent@@6B@ DD FLAT:??_R4SMotionEventDataCharacterShow@NMotionEvent@@6B@ ; NMotionEvent::SMotionEventDataCharacterShow::`vftable'
	DD	FLAT:??_ESMotionEventDataCharacterShow@NMotionEvent@@UAEPAXI@Z
	DD	FLAT:?Save@SMotionEventDataCharacterShow@NMotionEvent@@UAEXPAU_iobuf@@H@Z
	DD	FLAT:?Load@SMotionEventData@NMotionEvent@@UAE_NAAVCTextFileLoader@@@Z
CONST	ENDS
;	COMDAT ??_C@_0O@POGBJFAA@soundfilename@
CONST	SEGMENT
??_C@_0O@POGBJFAA@soundfilename@ DB 'soundfilename', 00H ; `string'
CONST	ENDS
;	COMDAT ??_C@_0BL@OCKKLAAD@SoundFileName?5?5?5?5?5?5?5?5?$CC?$CFs?$CC?6@
CONST	SEGMENT
??_C@_0BL@OCKKLAAD@SoundFileName?5?5?5?5?5?5?5?5?$CC?$CFs?$CC?6@ DB 'Soun'
	DB	'dFileName        "%s"', 0aH, 00H		; `string'
CONST	ENDS
;	COMDAT ??_7SMotionEventDataSound@NMotionEvent@@6B@
CONST	SEGMENT
??_7SMotionEventDataSound@NMotionEvent@@6B@ DD FLAT:??_R4SMotionEventDataSound@NMotionEvent@@6B@ ; NMotionEvent::SMotionEventDataSound::`vftable'
	DD	FLAT:??_ESMotionEventDataSound@NMotionEvent@@UAEPAXI@Z
	DD	FLAT:?Save@SMotionEventDataSound@NMotionEvent@@UAEXPAU_iobuf@@H@Z
	DD	FLAT:?Load@SMotionEventDataSound@NMotionEvent@@UAE_NAAVCTextFileLoader@@@Z
CONST	ENDS
;	COMDAT ??_C@_0BB@NODGLCEN@enablehitprocess@
CONST	SEGMENT
??_C@_0BB@NODGLCEN@enablehitprocess@ DB 'enablehitprocess', 00H ; `string'
CONST	ENDS
;	COMDAT ??_C@_0BJ@DAILMIKJ@EnableHitProcess?5?5?5?5?5?$CFd?6@
CONST	SEGMENT
??_C@_0BJ@DAILMIKJ@EnableHitProcess?5?5?5?5?5?$CFd?6@ DB 'EnableHitProces'
	DB	's     %d', 0aH, 00H				; `string'
CONST	ENDS
;	COMDAT ??_7SMotionEventDataAttack@NMotionEvent@@6B@
CONST	SEGMENT
??_7SMotionEventDataAttack@NMotionEvent@@6B@ DD FLAT:??_R4SMotionEventDataAttack@NMotionEvent@@6B@ ; NMotionEvent::SMotionEventDataAttack::`vftable'
	DD	FLAT:??_ESMotionEventDataAttack@NMotionEvent@@UAEPAXI@Z
	DD	FLAT:?Save@SMotionEventDataAttack@NMotionEvent@@UAEXPAU_iobuf@@H@Z
	DD	FLAT:?Load@SMotionEventDataAttack@NMotionEvent@@UAE_NAAVCTextFileLoader@@@Z
CONST	ENDS
;	COMDAT ??_C@_0M@OKENILIB@flyposition@
CONST	SEGMENT
??_C@_0M@OKENILIB@flyposition@ DB 'flyposition', 00H	; `string'
CONST	ENDS
;	COMDAT ??_C@_0M@BKDIDPMI@flyfilename@
CONST	SEGMENT
??_C@_0M@BKDIDPMI@flyfilename@ DB 'flyfilename', 00H	; `string'
CONST	ENDS
;	COMDAT ??_C@_0BM@LNHEOAC@FlyPosition?5?5?5?5?5?5?5?$CFf?5?$CFf?5?$CFf?6@
CONST	SEGMENT
??_C@_0BM@LNHEOAC@FlyPosition?5?5?5?5?5?5?5?$CFf?5?$CFf?5?$CFf?6@ DB 'Fly'
	DB	'Position       %f %f %f', 0aH, 00H		; `string'
CONST	ENDS
;	COMDAT ??_C@_0BI@MFBAEGBD@FlyFileName?5?5?5?5?5?5?5?$CC?$CFs?$CC?6@
CONST	SEGMENT
??_C@_0BI@MFBAEGBD@FlyFileName?5?5?5?5?5?5?5?$CC?$CFs?$CC?6@ DB 'FlyFileN'
	DB	'ame       "%s"', 0aH, 00H			; `string'
CONST	ENDS
;	COMDAT ??_7SMotionEventDataFly@NMotionEvent@@6B@
CONST	SEGMENT
??_7SMotionEventDataFly@NMotionEvent@@6B@ DD FLAT:??_R4SMotionEventDataFly@NMotionEvent@@6B@ ; NMotionEvent::SMotionEventDataFly::`vftable'
	DD	FLAT:??_ESMotionEventDataFly@NMotionEvent@@UAEPAXI@Z
	DD	FLAT:?Save@SMotionEventDataFly@NMotionEvent@@UAEXPAU_iobuf@@H@Z
	DD	FLAT:?Load@SMotionEventDataFly@NMotionEvent@@UAE_NAAVCTextFileLoader@@@Z
CONST	ENDS
;	COMDAT ??_C@_0BC@PGIDKNAJ@fishingeffectflag@
CONST	SEGMENT
??_C@_0BC@PGIDKNAJ@fishingeffectflag@ DB 'fishingeffectflag', 00H ; `string'
CONST	ENDS
;	COMDAT ??_C@_0BJ@ECHDEMEM@FishingEffectFlag?5?5?5?5?$CFd?6@
CONST	SEGMENT
??_C@_0BJ@ECHDEMEM@FishingEffectFlag?5?5?5?5?$CFd?6@ DB 'FishingEffectFla'
	DB	'g    %d', 0aH, 00H				; `string'
CONST	ENDS
;	COMDAT ??_7SMotionEventDataEffectToTarget@NMotionEvent@@6B@
CONST	SEGMENT
??_7SMotionEventDataEffectToTarget@NMotionEvent@@6B@ DD FLAT:??_R4SMotionEventDataEffectToTarget@NMotionEvent@@6B@ ; NMotionEvent::SMotionEventDataEffectToTarget::`vftable'
	DD	FLAT:??_ESMotionEventDataEffectToTarget@NMotionEvent@@UAEPAXI@Z
	DD	FLAT:?Save@SMotionEventDataEffectToTarget@NMotionEvent@@UAEXPAU_iobuf@@H@Z
	DD	FLAT:?Load@SMotionEventDataEffectToTarget@NMotionEvent@@UAE_NAAVCTextFileLoader@@@Z
CONST	ENDS
;	COMDAT ??_C@_0BA@DEKLACIK@followingenable@
CONST	SEGMENT
??_C@_0BA@DEKLACIK@followingenable@ DB 'followingenable', 00H ; `string'
CONST	ENDS
;	COMDAT ??_C@_0P@PMGDNJPL@effectposition@
CONST	SEGMENT
??_C@_0P@PMGDNJPL@effectposition@ DB 'effectposition', 00H ; `string'
CONST	ENDS
;	COMDAT ??_C@_0P@MBGGNLC@effectfilename@
CONST	SEGMENT
??_C@_0P@MBGGNLC@effectfilename@ DB 'effectfilename', 00H ; `string'
CONST	ENDS
;	COMDAT ??_C@_0BC@FCIOLNPK@attachingbonename@
CONST	SEGMENT
??_C@_0BC@FCIOLNPK@attachingbonename@ DB 'attachingbonename', 00H ; `string'
CONST	ENDS
;	COMDAT ??_C@_0BA@HJAHPMOG@attachingenable@
CONST	SEGMENT
??_C@_0BA@HJAHPMOG@attachingenable@ DB 'attachingenable', 00H ; `string'
CONST	ENDS
;	COMDAT ??_C@_0BA@MCOMBMGO@independentflag@
CONST	SEGMENT
??_C@_0BA@MCOMBMGO@independentflag@ DB 'independentflag', 00H ; `string'
CONST	ENDS
;	COMDAT ??_C@_0BP@CFDDPJAK@EffectPosition?5?5?5?5?5?5?5?$CFf?5?$CFf?5?$CFf?6@
CONST	SEGMENT
??_C@_0BP@CFDDPJAK@EffectPosition?5?5?5?5?5?5?5?$CFf?5?$CFf?5?$CFf?6@ DB 'E'
	DB	'ffectPosition       %f %f %f', 0aH, 00H	; `string'
CONST	ENDS
;	COMDAT ??_C@_0BL@OHMOOLCL@EffectFileName?5?5?5?5?5?5?5?$CC?$CFs?$CC?6@
CONST	SEGMENT
??_C@_0BL@OHMOOLCL@EffectFileName?5?5?5?5?5?5?5?$CC?$CFs?$CC?6@ DB 'Effec'
	DB	'tFileName       "%s"', 0aH, 00H		; `string'
CONST	ENDS
;	COMDAT ??_C@_0BJ@NDNPFOND@FollowingEnable?5?5?5?5?5?5?$CFd?6@
CONST	SEGMENT
??_C@_0BJ@NDNPFOND@FollowingEnable?5?5?5?5?5?5?$CFd?6@ DB 'FollowingEnabl'
	DB	'e      %d', 0aH, 00H			; `string'
CONST	ENDS
;	COMDAT ??_C@_0BL@PLABIPOF@AttachingBoneName?5?5?5?5?$CC?$CFs?$CC?6@
CONST	SEGMENT
??_C@_0BL@PLABIPOF@AttachingBoneName?5?5?5?5?$CC?$CFs?$CC?6@ DB 'Attachin'
	DB	'gBoneName    "%s"', 0aH, 00H		; `string'
CONST	ENDS
;	COMDAT ??_C@_0BJ@LAKEIKLD@AttachingEnable?5?5?5?5?5?5?$CFd?6@
CONST	SEGMENT
??_C@_0BJ@LAKEIKLD@AttachingEnable?5?5?5?5?5?5?$CFd?6@ DB 'AttachingEnabl'
	DB	'e      %d', 0aH, 00H			; `string'
CONST	ENDS
;	COMDAT ??_C@_0BJ@EFAIBPHL@IndependentFlag?5?5?5?5?5?5?$CFd?6@
CONST	SEGMENT
??_C@_0BJ@EFAIBPHL@IndependentFlag?5?5?5?5?5?5?$CFd?6@ DB 'IndependentFla'
	DB	'g      %d', 0aH, 00H			; `string'
CONST	ENDS
;	COMDAT ??_7SMotionEventDataEffect@NMotionEvent@@6B@
CONST	SEGMENT
??_7SMotionEventDataEffect@NMotionEvent@@6B@ DD FLAT:??_R4SMotionEventDataEffect@NMotionEvent@@6B@ ; NMotionEvent::SMotionEventDataEffect::`vftable'
	DD	FLAT:??_ESMotionEventDataEffect@NMotionEvent@@UAEPAXI@Z
	DD	FLAT:?Save@SMotionEventDataEffect@NMotionEvent@@UAEXPAU_iobuf@@H@Z
	DD	FLAT:?Load@SMotionEventDataEffect@NMotionEvent@@UAE_NAAVCTextFileLoader@@@Z
CONST	ENDS
;	COMDAT ??_C@_0P@JIGGKKJB@affectingrange@
CONST	SEGMENT
??_C@_0P@JIGGKKJB@affectingrange@ DB 'affectingrange', 00H ; `string'
CONST	ENDS
;	COMDAT ??_C@_05PLIADJJL@power@
CONST	SEGMENT
??_C@_05PLIADJJL@power@ DB 'power', 00H			; `string'
CONST	ENDS
;	COMDAT ??_C@_0L@KJGFIEPL@duringtime@
CONST	SEGMENT
??_C@_0L@KJGFIEPL@duringtime@ DB 'duringtime', 00H	; `string'
CONST	ENDS
;	COMDAT ??_C@_0BJ@KLBKOEEF@AffectingRange?5?5?5?5?5?5?5?$CFd?6@
CONST	SEGMENT
??_C@_0BJ@KLBKOEEF@AffectingRange?5?5?5?5?5?5?5?$CFd?6@ DB 'AffectingRang'
	DB	'e       %d', 0aH, 00H			; `string'
CONST	ENDS
;	COMDAT ??_C@_0BJ@FEKHNOBC@Power?5?5?5?5?5?5?5?5?5?5?5?5?5?5?5?5?$CFd?6@
CONST	SEGMENT
??_C@_0BJ@FEKHNOBC@Power?5?5?5?5?5?5?5?5?5?5?5?5?5?5?5?5?$CFd?6@ DB 'Powe'
	DB	'r                %d', 0aH, 00H		; `string'
CONST	ENDS
;	COMDAT ??_C@_0BJ@JOLNCGNF@DuringTime?5?5?5?5?5?5?5?5?5?5?5?$CFf?6@
CONST	SEGMENT
??_C@_0BJ@JOLNCGNF@DuringTime?5?5?5?5?5?5?5?5?5?5?5?$CFf?6@ DB 'DuringTim'
	DB	'e           %f', 0aH, 00H			; `string'
CONST	ENDS
;	COMDAT ??_C@_01EEMJAFIK@?6@
CONST	SEGMENT
??_C@_01EEMJAFIK@?6@ DB 0aH, 00H			; `string'
CONST	ENDS
;	COMDAT ??_7SMotionEventDataScreenWaving@NMotionEvent@@6B@
CONST	SEGMENT
??_7SMotionEventDataScreenWaving@NMotionEvent@@6B@ DD FLAT:??_R4SMotionEventDataScreenWaving@NMotionEvent@@6B@ ; NMotionEvent::SMotionEventDataScreenWaving::`vftable'
	DD	FLAT:??_ESMotionEventDataScreenWaving@NMotionEvent@@UAEPAXI@Z
	DD	FLAT:?Save@SMotionEventDataScreenWaving@NMotionEvent@@UAEXPAU_iobuf@@H@Z
	DD	FLAT:?Load@SMotionEventDataScreenWaving@NMotionEvent@@UAE_NAAVCTextFileLoader@@@Z
CONST	ENDS
;	COMDAT ??_7SMotionEventData@NMotionEvent@@6B@
CONST	SEGMENT
??_7SMotionEventData@NMotionEvent@@6B@ DD FLAT:??_R4SMotionEventData@NMotionEvent@@6B@ ; NMotionEvent::SMotionEventData::`vftable'
	DD	FLAT:??_ESMotionEventData@NMotionEvent@@UAEPAXI@Z
	DD	FLAT:__purecall
	DD	FLAT:?Load@SMotionEventData@NMotionEvent@@UAE_NAAVCTextFileLoader@@@Z
CONST	ENDS
;	COMDAT ??_R1A@?0A@EA@SCollisionData@NRaceData@@8
rdata$r	SEGMENT
??_R1A@?0A@EA@SCollisionData@NRaceData@@8 DD FLAT:??_R0?AUSCollisionData@NRaceData@@@8 ; NRaceData::SCollisionData::`RTTI Base Class Descriptor at (0,-1,0,64)'
	DD	00H
	DD	00H
	DD	0ffffffffH
	DD	00H
	DD	040H
	DD	FLAT:??_R3SCollisionData@NRaceData@@8
rdata$r	ENDS
;	COMDAT ??_R2SCollisionData@NRaceData@@8
rdata$r	SEGMENT
??_R2SCollisionData@NRaceData@@8 DD FLAT:??_R1A@?0A@EA@SCollisionData@NRaceData@@8 ; NRaceData::SCollisionData::`RTTI Base Class Array'
rdata$r	ENDS
;	COMDAT ??_R3SCollisionData@NRaceData@@8
rdata$r	SEGMENT
??_R3SCollisionData@NRaceData@@8 DD 00H			; NRaceData::SCollisionData::`RTTI Class Hierarchy Descriptor'
	DD	00H
	DD	01H
	DD	FLAT:??_R2SCollisionData@NRaceData@@8
rdata$r	ENDS
;	COMDAT ??_R0?AUSCollisionData@NRaceData@@@8
data$rs	SEGMENT
??_R0?AUSCollisionData@NRaceData@@@8 DD FLAT:??_7type_info@@6B@ ; NRaceData::SCollisionData `RTTI Type Descriptor'
	DD	00H
	DB	'.?AUSCollisionData@NRaceData@@', 00H
data$rs	ENDS
;	COMDAT ??_R4SCollisionData@NRaceData@@6B@
rdata$r	SEGMENT
??_R4SCollisionData@NRaceData@@6B@ DD 00H		; NRaceData::SCollisionData::`RTTI Complete Object Locator'
	DD	00H
	DD	00H
	DD	FLAT:??_R0?AUSCollisionData@NRaceData@@@8
	DD	FLAT:??_R3SCollisionData@NRaceData@@8
rdata$r	ENDS
;	COMDAT ??_R1A@?0A@EA@bad_array_new_length@std@@8
rdata$r	SEGMENT
??_R1A@?0A@EA@bad_array_new_length@std@@8 DD FLAT:??_R0?AVbad_array_new_length@std@@@8 ; std::bad_array_new_length::`RTTI Base Class Descriptor at (0,-1,0,64)'
	DD	02H
	DD	00H
	DD	0ffffffffH
	DD	00H
	DD	040H
	DD	FLAT:??_R3bad_array_new_length@std@@8
rdata$r	ENDS
;	COMDAT ??_R2bad_array_new_length@std@@8
rdata$r	SEGMENT
??_R2bad_array_new_length@std@@8 DD FLAT:??_R1A@?0A@EA@bad_array_new_length@std@@8 ; std::bad_array_new_length::`RTTI Base Class Array'
	DD	FLAT:??_R1A@?0A@EA@bad_alloc@std@@8
	DD	FLAT:??_R1A@?0A@EA@exception@std@@8
rdata$r	ENDS
;	COMDAT ??_R3bad_array_new_length@std@@8
rdata$r	SEGMENT
??_R3bad_array_new_length@std@@8 DD 00H			; std::bad_array_new_length::`RTTI Class Hierarchy Descriptor'
	DD	00H
	DD	03H
	DD	FLAT:??_R2bad_array_new_length@std@@8
rdata$r	ENDS
;	COMDAT ??_R4bad_array_new_length@std@@6B@
rdata$r	SEGMENT
??_R4bad_array_new_length@std@@6B@ DD 00H		; std::bad_array_new_length::`RTTI Complete Object Locator'
	DD	00H
	DD	00H
	DD	FLAT:??_R0?AVbad_array_new_length@std@@@8
	DD	FLAT:??_R3bad_array_new_length@std@@8
rdata$r	ENDS
;	COMDAT ??_R1A@?0A@EA@bad_alloc@std@@8
rdata$r	SEGMENT
??_R1A@?0A@EA@bad_alloc@std@@8 DD FLAT:??_R0?AVbad_alloc@std@@@8 ; std::bad_alloc::`RTTI Base Class Descriptor at (0,-1,0,64)'
	DD	01H
	DD	00H
	DD	0ffffffffH
	DD	00H
	DD	040H
	DD	FLAT:??_R3bad_alloc@std@@8
rdata$r	ENDS
;	COMDAT ??_R2bad_alloc@std@@8
rdata$r	SEGMENT
??_R2bad_alloc@std@@8 DD FLAT:??_R1A@?0A@EA@bad_alloc@std@@8 ; std::bad_alloc::`RTTI Base Class Array'
	DD	FLAT:??_R1A@?0A@EA@exception@std@@8
rdata$r	ENDS
;	COMDAT ??_R3bad_alloc@std@@8
rdata$r	SEGMENT
??_R3bad_alloc@std@@8 DD 00H				; std::bad_alloc::`RTTI Class Hierarchy Descriptor'
	DD	00H
	DD	02H
	DD	FLAT:??_R2bad_alloc@std@@8
rdata$r	ENDS
;	COMDAT ??_R4bad_alloc@std@@6B@
rdata$r	SEGMENT
??_R4bad_alloc@std@@6B@ DD 00H				; std::bad_alloc::`RTTI Complete Object Locator'
	DD	00H
	DD	00H
	DD	FLAT:??_R0?AVbad_alloc@std@@@8
	DD	FLAT:??_R3bad_alloc@std@@8
rdata$r	ENDS
;	COMDAT ??_R1A@?0A@EA@exception@std@@8
rdata$r	SEGMENT
??_R1A@?0A@EA@exception@std@@8 DD FLAT:??_R0?AVexception@std@@@8 ; std::exception::`RTTI Base Class Descriptor at (0,-1,0,64)'
	DD	00H
	DD	00H
	DD	0ffffffffH
	DD	00H
	DD	040H
	DD	FLAT:??_R3exception@std@@8
rdata$r	ENDS
;	COMDAT ??_R2exception@std@@8
rdata$r	SEGMENT
??_R2exception@std@@8 DD FLAT:??_R1A@?0A@EA@exception@std@@8 ; std::exception::`RTTI Base Class Array'
rdata$r	ENDS
;	COMDAT ??_R3exception@std@@8
rdata$r	SEGMENT
??_R3exception@std@@8 DD 00H				; std::exception::`RTTI Class Hierarchy Descriptor'
	DD	00H
	DD	01H
	DD	FLAT:??_R2exception@std@@8
rdata$r	ENDS
;	COMDAT ??_R4exception@std@@6B@
rdata$r	SEGMENT
??_R4exception@std@@6B@ DD 00H				; std::exception::`RTTI Complete Object Locator'
	DD	00H
	DD	00H
	DD	FLAT:??_R0?AVexception@std@@@8
	DD	FLAT:??_R3exception@std@@8
rdata$r	ENDS
;	COMDAT ??_C@_0BI@CFPLBAOH@invalid?5string?5position@
CONST	SEGMENT
??_C@_0BI@CFPLBAOH@invalid?5string?5position@ DB 'invalid string position'
	DB	00H						; `string'
CONST	ENDS
;	COMDAT ??_7SCollisionData@NRaceData@@6B@
CONST	SEGMENT
??_7SCollisionData@NRaceData@@6B@ DD FLAT:??_R4SCollisionData@NRaceData@@6B@ ; NRaceData::SCollisionData::`vftable'
	DD	FLAT:??_ESCollisionData@NRaceData@@UAEPAXI@Z
CONST	ENDS
;	COMDAT ??_C@_0BA@JFNIOLAK@string?5too?5long@
CONST	SEGMENT
??_C@_0BA@JFNIOLAK@string?5too?5long@ DB 'string too long', 00H ; `string'
CONST	ENDS
;	COMDAT __CT??_R0?AVexception@std@@@8??0exception@std@@QAE@ABV01@@Z12
xdata$x	SEGMENT
__CT??_R0?AVexception@std@@@8??0exception@std@@QAE@ABV01@@Z12 DD 00H
	DD	FLAT:??_R0?AVexception@std@@@8
	DD	00H
	DD	0ffffffffH
	ORG $+4
	DD	0cH
	DD	FLAT:??0exception@std@@QAE@ABV01@@Z
xdata$x	ENDS
;	COMDAT ??_R0?AVexception@std@@@8
data$r	SEGMENT
??_R0?AVexception@std@@@8 DD FLAT:??_7type_info@@6B@	; std::exception `RTTI Type Descriptor'
	DD	00H
	DB	'.?AVexception@std@@', 00H
data$r	ENDS
;	COMDAT __CT??_R0?AVbad_alloc@std@@@8??0bad_alloc@std@@QAE@ABV01@@Z12
xdata$x	SEGMENT
__CT??_R0?AVbad_alloc@std@@@8??0bad_alloc@std@@QAE@ABV01@@Z12 DD 010H
	DD	FLAT:??_R0?AVbad_alloc@std@@@8
	DD	00H
	DD	0ffffffffH
	ORG $+4
	DD	0cH
	DD	FLAT:??0bad_alloc@std@@QAE@ABV01@@Z
xdata$x	ENDS
;	COMDAT ??_R0?AVbad_alloc@std@@@8
data$r	SEGMENT
??_R0?AVbad_alloc@std@@@8 DD FLAT:??_7type_info@@6B@	; std::bad_alloc `RTTI Type Descriptor'
	DD	00H
	DB	'.?AVbad_alloc@std@@', 00H
data$r	ENDS
;	COMDAT __CT??_R0?AVbad_array_new_length@std@@@8??0bad_array_new_length@std@@QAE@ABV01@@Z12
xdata$x	SEGMENT
__CT??_R0?AVbad_array_new_length@std@@@8??0bad_array_new_length@std@@QAE@ABV01@@Z12 DD 00H
	DD	FLAT:??_R0?AVbad_array_new_length@std@@@8
	DD	00H
	DD	0ffffffffH
	ORG $+4
	DD	0cH
	DD	FLAT:??0bad_array_new_length@std@@QAE@ABV01@@Z
xdata$x	ENDS
;	COMDAT ??_R0?AVbad_array_new_length@std@@@8
data$r	SEGMENT
??_R0?AVbad_array_new_length@std@@@8 DD FLAT:??_7type_info@@6B@ ; std::bad_array_new_length `RTTI Type Descriptor'
	DD	00H
	DB	'.?AVbad_array_new_length@std@@', 00H
data$r	ENDS
;	COMDAT __CTA3?AVbad_array_new_length@std@@
xdata$x	SEGMENT
__CTA3?AVbad_array_new_length@std@@ DD 03H
	DD	FLAT:__CT??_R0?AVbad_array_new_length@std@@@8??0bad_array_new_length@std@@QAE@ABV01@@Z12
	DD	FLAT:__CT??_R0?AVbad_alloc@std@@@8??0bad_alloc@std@@QAE@ABV01@@Z12
	DD	FLAT:__CT??_R0?AVexception@std@@@8??0exception@std@@QAE@ABV01@@Z12
xdata$x	ENDS
;	COMDAT __TI3?AVbad_array_new_length@std@@
xdata$x	SEGMENT
__TI3?AVbad_array_new_length@std@@ DD 00H
	DD	FLAT:??1bad_array_new_length@std@@UAE@XZ
	DD	00H
	DD	FLAT:__CTA3?AVbad_array_new_length@std@@
xdata$x	ENDS
;	COMDAT ??_C@_0BF@KINCDENJ@bad?5array?5new?5length@
CONST	SEGMENT
??_C@_0BF@KINCDENJ@bad?5array?5new?5length@ DB 'bad array new length', 00H ; `string'
CONST	ENDS
;	COMDAT ??_7bad_array_new_length@std@@6B@
CONST	SEGMENT
??_7bad_array_new_length@std@@6B@ DD FLAT:??_R4bad_array_new_length@std@@6B@ ; std::bad_array_new_length::`vftable'
	DD	FLAT:??_Ebad_array_new_length@std@@UAEPAXI@Z
	DD	FLAT:?what@exception@std@@UBEPBDXZ
CONST	ENDS
;	COMDAT ??_7bad_alloc@std@@6B@
CONST	SEGMENT
??_7bad_alloc@std@@6B@ DD FLAT:??_R4bad_alloc@std@@6B@	; std::bad_alloc::`vftable'
	DD	FLAT:??_Ebad_alloc@std@@UAEPAXI@Z
	DD	FLAT:?what@exception@std@@UBEPBDXZ
CONST	ENDS
;	COMDAT ??_C@_0BC@EOODALEL@Unknown?5exception@
CONST	SEGMENT
??_C@_0BC@EOODALEL@Unknown?5exception@ DB 'Unknown exception', 00H ; `string'
CONST	ENDS
;	COMDAT ??_7exception@std@@6B@
CONST	SEGMENT
??_7exception@std@@6B@ DD FLAT:??_R4exception@std@@6B@	; std::exception::`vftable'
	DD	FLAT:??_Eexception@std@@UAEPAXI@Z
	DD	FLAT:?what@exception@std@@UBEPBDXZ
CONST	ENDS
;	COMDAT xdata$x
xdata$x	SEGMENT
__catchsym$??$_Resize_reallocate@PAUSMotionEventData@NMotionEvent@@@?$vector@PAUSMotionEventData@NMotionEvent@@V?$allocator@PAUSMotionEventData@NMotionEvent@@@std@@@std@@AAEXIABQAUSMotionEventData@NMotionEvent@@@Z$26 DD 040H
	DD	00H
	DD	00H
	DD	FLAT:__catch$??$_Resize_reallocate@PAUSMotionEventData@NMotionEvent@@@?$vector@PAUSMotionEventData@NMotionEvent@@V?$allocator@PAUSMotionEventData@NMotionEvent@@@std@@@std@@AAEXIABQAUSMotionEventData@NMotionEvent@@@Z$0
__unwindtable$??$_Resize_reallocate@PAUSMotionEventData@NMotionEvent@@@?$vector@PAUSMotionEventData@NMotionEvent@@V?$allocator@PAUSMotionEventData@NMotionEvent@@@std@@@std@@AAEXIABQAUSMotionEventData@NMotionEvent@@@Z DD 0ffffffffH
	DD	00H
	DD	0ffffffffH
	DD	00H
__tryblocktable$??$_Resize_reallocate@PAUSMotionEventData@NMotionEvent@@@?$vector@PAUSMotionEventData@NMotionEvent@@V?$allocator@PAUSMotionEventData@NMotionEvent@@@std@@@std@@AAEXIABQAUSMotionEventData@NMotionEvent@@@Z DD 00H
	DD	00H
	DD	01H
	DD	01H
	DD	FLAT:__catchsym$??$_Resize_reallocate@PAUSMotionEventData@NMotionEvent@@@?$vector@PAUSMotionEventData@NMotionEvent@@V?$allocator@PAUSMotionEventData@NMotionEvent@@@std@@@std@@AAEXIABQAUSMotionEventData@NMotionEvent@@@Z$26
__ehfuncinfo$??$_Resize_reallocate@PAUSMotionEventData@NMotionEvent@@@?$vector@PAUSMotionEventData@NMotionEvent@@V?$allocator@PAUSMotionEventData@NMotionEvent@@@std@@@std@@AAEXIABQAUSMotionEventData@NMotionEvent@@@Z DD 019930522H
	DD	02H
	DD	FLAT:__unwindtable$??$_Resize_reallocate@PAUSMotionEventData@NMotionEvent@@@?$vector@PAUSMotionEventData@NMotionEvent@@V?$allocator@PAUSMotionEventData@NMotionEvent@@@std@@@std@@AAEXIABQAUSMotionEventData@NMotionEvent@@@Z
	DD	01H
	DD	FLAT:__tryblocktable$??$_Resize_reallocate@PAUSMotionEventData@NMotionEvent@@@?$vector@PAUSMotionEventData@NMotionEvent@@V?$allocator@PAUSMotionEventData@NMotionEvent@@@std@@@std@@AAEXIABQAUSMotionEventData@NMotionEvent@@@Z
	DD	2 DUP(00H)
	DD	00H
	DD	01H
xdata$x	ENDS
;	COMDAT xdata$x
xdata$x	SEGMENT
__catchsym$??$_Emplace_reallocate@ABQAVCRaceMotionData@@@?$vector@PAVCRaceMotionData@@V?$allocator@PAVCRaceMotionData@@@std@@@std@@QAEPAPAVCRaceMotionData@@QAPAV2@ABQAV2@@Z$32 DD 040H
	DD	00H
	DD	00H
	DD	FLAT:__catch$??$_Emplace_reallocate@ABQAVCRaceMotionData@@@?$vector@PAVCRaceMotionData@@V?$allocator@PAVCRaceMotionData@@@std@@@std@@QAEPAPAVCRaceMotionData@@QAPAV2@ABQAV2@@Z$0
__unwindtable$??$_Emplace_reallocate@ABQAVCRaceMotionData@@@?$vector@PAVCRaceMotionData@@V?$allocator@PAVCRaceMotionData@@@std@@@std@@QAEPAPAVCRaceMotionData@@QAPAV2@ABQAV2@@Z DD 0ffffffffH
	DD	00H
	DD	0ffffffffH
	DD	00H
__tryblocktable$??$_Emplace_reallocate@ABQAVCRaceMotionData@@@?$vector@PAVCRaceMotionData@@V?$allocator@PAVCRaceMotionData@@@std@@@std@@QAEPAPAVCRaceMotionData@@QAPAV2@ABQAV2@@Z DD 00H
	DD	00H
	DD	01H
	DD	01H
	DD	FLAT:__catchsym$??$_Emplace_reallocate@ABQAVCRaceMotionData@@@?$vector@PAVCRaceMotionData@@V?$allocator@PAVCRaceMotionData@@@std@@@std@@QAEPAPAVCRaceMotionData@@QAPAV2@ABQAV2@@Z$32
__ehfuncinfo$??$_Emplace_reallocate@ABQAVCRaceMotionData@@@?$vector@PAVCRaceMotionData@@V?$allocator@PAVCRaceMotionData@@@std@@@std@@QAEPAPAVCRaceMotionData@@QAPAV2@ABQAV2@@Z DD 019930522H
	DD	02H
	DD	FLAT:__unwindtable$??$_Emplace_reallocate@ABQAVCRaceMotionData@@@?$vector@PAVCRaceMotionData@@V?$allocator@PAVCRaceMotionData@@@std@@@std@@QAEPAPAVCRaceMotionData@@QAPAV2@ABQAV2@@Z
	DD	01H
	DD	FLAT:__tryblocktable$??$_Emplace_reallocate@ABQAVCRaceMotionData@@@?$vector@PAVCRaceMotionData@@V?$allocator@PAVCRaceMotionData@@@std@@@std@@QAEPAPAVCRaceMotionData@@QAPAV2@ABQAV2@@Z
	DD	2 DUP(00H)
	DD	00H
	DD	01H
xdata$x	ENDS
;	COMDAT xdata$x
xdata$x	SEGMENT
__ehfuncinfo$??1?$CDynamicPoolEx@VCHeaderDecorator@NEffectUpdateDecorator@@@@UAE@XZ DD 019930522H
	DD	00H
	DD	00H
	DD	2 DUP(00H)
	DD	2 DUP(00H)
	DD	00H
	DD	05H
xdata$x	ENDS
;	COMDAT xdata$x
xdata$x	SEGMENT
__ehfuncinfo$??1?$CDynamicPoolEx@VCNullDecorator@NEffectUpdateDecorator@@@@UAE@XZ DD 019930522H
	DD	00H
	DD	00H
	DD	2 DUP(00H)
	DD	2 DUP(00H)
	DD	00H
	DD	05H
xdata$x	ENDS
;	COMDAT xdata$x
xdata$x	SEGMENT
__ehfuncinfo$??1?$CDynamicPoolEx@VCTextureAnimationCWDecorator@NEffectUpdateDecorator@@@@UAE@XZ DD 019930522H
	DD	00H
	DD	00H
	DD	2 DUP(00H)
	DD	2 DUP(00H)
	DD	00H
	DD	05H
xdata$x	ENDS
;	COMDAT xdata$x
xdata$x	SEGMENT
__ehfuncinfo$??1?$CDynamicPoolEx@VCTextureAnimationCCWDecorator@NEffectUpdateDecorator@@@@UAE@XZ DD 019930522H
	DD	00H
	DD	00H
	DD	2 DUP(00H)
	DD	2 DUP(00H)
	DD	00H
	DD	05H
xdata$x	ENDS
;	COMDAT xdata$x
xdata$x	SEGMENT
__ehfuncinfo$??1?$CDynamicPoolEx@VCTextureAnimationRandomDecorator@NEffectUpdateDecorator@@@@UAE@XZ DD 019930522H
	DD	00H
	DD	00H
	DD	2 DUP(00H)
	DD	2 DUP(00H)
	DD	00H
	DD	05H
xdata$x	ENDS
;	COMDAT xdata$x
xdata$x	SEGMENT
__ehfuncinfo$??1?$CDynamicPoolEx@VCAirResistanceDecorator@NEffectUpdateDecorator@@@@UAE@XZ DD 019930522H
	DD	00H
	DD	00H
	DD	2 DUP(00H)
	DD	2 DUP(00H)
	DD	00H
	DD	05H
xdata$x	ENDS
;	COMDAT xdata$x
xdata$x	SEGMENT
__ehfuncinfo$??1?$CDynamicPoolEx@VCGravityDecorator@NEffectUpdateDecorator@@@@UAE@XZ DD 019930522H
	DD	00H
	DD	00H
	DD	2 DUP(00H)
	DD	2 DUP(00H)
	DD	00H
	DD	05H
xdata$x	ENDS
;	COMDAT xdata$x
xdata$x	SEGMENT
__ehfuncinfo$??1?$CDynamicPoolEx@VCRotationDecorator@NEffectUpdateDecorator@@@@UAE@XZ DD 019930522H
	DD	00H
	DD	00H
	DD	2 DUP(00H)
	DD	2 DUP(00H)
	DD	00H
	DD	05H
xdata$x	ENDS
;	COMDAT xdata$x
xdata$x	SEGMENT
__catchsym$?_Reallocate_exactly@?$vector@PAVCRaceMotionData@@V?$allocator@PAVCRaceMotionData@@@std@@@std@@AAEXI@Z$11 DD 040H
	DD	00H
	DD	00H
	DD	FLAT:__catch$?_Reallocate_exactly@?$vector@PAVCRaceMotionData@@V?$allocator@PAVCRaceMotionData@@@std@@@std@@AAEXI@Z$0
__unwindtable$?_Reallocate_exactly@?$vector@PAVCRaceMotionData@@V?$allocator@PAVCRaceMotionData@@@std@@@std@@AAEXI@Z DD 0ffffffffH
	DD	00H
	DD	0ffffffffH
	DD	00H
__tryblocktable$?_Reallocate_exactly@?$vector@PAVCRaceMotionData@@V?$allocator@PAVCRaceMotionData@@@std@@@std@@AAEXI@Z DD 00H
	DD	00H
	DD	01H
	DD	01H
	DD	FLAT:__catchsym$?_Reallocate_exactly@?$vector@PAVCRaceMotionData@@V?$allocator@PAVCRaceMotionData@@@std@@@std@@AAEXI@Z$11
__ehfuncinfo$?_Reallocate_exactly@?$vector@PAVCRaceMotionData@@V?$allocator@PAVCRaceMotionData@@@std@@@std@@AAEXI@Z DD 019930522H
	DD	02H
	DD	FLAT:__unwindtable$?_Reallocate_exactly@?$vector@PAVCRaceMotionData@@V?$allocator@PAVCRaceMotionData@@@std@@@std@@AAEXI@Z
	DD	01H
	DD	FLAT:__tryblocktable$?_Reallocate_exactly@?$vector@PAVCRaceMotionData@@V?$allocator@PAVCRaceMotionData@@@std@@@std@@AAEXI@Z
	DD	2 DUP(00H)
	DD	00H
	DD	01H
xdata$x	ENDS
;	COMDAT xdata$x
xdata$x	SEGMENT
__unwindtable$?Alloc@?$CDynamicPool@VCRaceMotionData@@@@QAEPAVCRaceMotionData@@XZ DD 0ffffffffH
	DD	FLAT:__unwindfunclet$?Alloc@?$CDynamicPool@VCRaceMotionData@@@@QAEPAVCRaceMotionData@@XZ$0
__ehfuncinfo$?Alloc@?$CDynamicPool@VCRaceMotionData@@@@QAEPAVCRaceMotionData@@XZ DD 019930522H
	DD	01H
	DD	FLAT:__unwindtable$?Alloc@?$CDynamicPool@VCRaceMotionData@@@@QAEPAVCRaceMotionData@@XZ
	DD	2 DUP(00H)
	DD	2 DUP(00H)
	DD	00H
	DD	01H
xdata$x	ENDS
;	COMDAT xdata$x
xdata$x	SEGMENT
__unwindtable$?LoadSoundScriptData@CRaceMotionData@@QAE_NPBD@Z DD 0ffffffffH
	DD	FLAT:__unwindfunclet$?LoadSoundScriptData@CRaceMotionData@@QAE_NPBD@Z$0
__ehfuncinfo$?LoadSoundScriptData@CRaceMotionData@@QAE_NPBD@Z DD 019930522H
	DD	01H
	DD	FLAT:__unwindtable$?LoadSoundScriptData@CRaceMotionData@@QAE_NPBD@Z
	DD	2 DUP(00H)
	DD	2 DUP(00H)
	DD	00H
	DD	01H
xdata$x	ENDS
;	COMDAT xdata$x
xdata$x	SEGMENT
__ehfuncinfo$?LoadMotionData@CRaceMotionData@@QAE_NPBD@Z DD 019930522H
	DD	022H
	DD	FLAT:__unwindtable$?LoadMotionData@CRaceMotionData@@QAE_NPBD@Z
	DD	2 DUP(00H)
	DD	2 DUP(00H)
	DD	00H
	DD	01H
__unwindtable$?LoadMotionData@CRaceMotionData@@QAE_NPBD@Z DD 0ffffffffH
	DD	FLAT:__unwindfunclet$?LoadMotionData@CRaceMotionData@@QAE_NPBD@Z$0
	DD	0ffffffffH
	DD	FLAT:__unwindfunclet$?LoadMotionData@CRaceMotionData@@QAE_NPBD@Z$1
	DD	0ffffffffH
	DD	FLAT:__unwindfunclet$?LoadMotionData@CRaceMotionData@@QAE_NPBD@Z$2
	DD	0ffffffffH
	DD	FLAT:__unwindfunclet$?LoadMotionData@CRaceMotionData@@QAE_NPBD@Z$3
	DD	03H
	DD	FLAT:__unwindfunclet$?LoadMotionData@CRaceMotionData@@QAE_NPBD@Z$4
	DD	04H
	DD	FLAT:__unwindfunclet$?LoadMotionData@CRaceMotionData@@QAE_NPBD@Z$5
	DD	03H
	DD	FLAT:___std_terminate
	DD	04H
	DD	FLAT:__unwindfunclet$?LoadMotionData@CRaceMotionData@@QAE_NPBD@Z$6
	DD	03H
	DD	FLAT:___std_terminate
	DD	04H
	DD	FLAT:__unwindfunclet$?LoadMotionData@CRaceMotionData@@QAE_NPBD@Z$7
	DD	03H
	DD	FLAT:___std_terminate
	DD	03H
	DD	FLAT:___std_terminate
	DD	04H
	DD	FLAT:__unwindfunclet$?LoadMotionData@CRaceMotionData@@QAE_NPBD@Z$8
	DD	04H
	DD	FLAT:__unwindfunclet$?LoadMotionData@CRaceMotionData@@QAE_NPBD@Z$9
	DD	04H
	DD	FLAT:__unwindfunclet$?LoadMotionData@CRaceMotionData@@QAE_NPBD@Z$10
	DD	03H
	DD	FLAT:___std_terminate
	DD	04H
	DD	FLAT:__unwindfunclet$?LoadMotionData@CRaceMotionData@@QAE_NPBD@Z$11
	DD	03H
	DD	FLAT:___std_terminate
	DD	04H
	DD	FLAT:__unwindfunclet$?LoadMotionData@CRaceMotionData@@QAE_NPBD@Z$12
	DD	03H
	DD	FLAT:___std_terminate
	DD	04H
	DD	FLAT:__unwindfunclet$?LoadMotionData@CRaceMotionData@@QAE_NPBD@Z$13
	DD	03H
	DD	FLAT:___std_terminate
	DD	04H
	DD	FLAT:__unwindfunclet$?LoadMotionData@CRaceMotionData@@QAE_NPBD@Z$14
	DD	03H
	DD	FLAT:___std_terminate
	DD	04H
	DD	FLAT:__unwindfunclet$?LoadMotionData@CRaceMotionData@@QAE_NPBD@Z$15
	DD	04H
	DD	FLAT:__unwindfunclet$?LoadMotionData@CRaceMotionData@@QAE_NPBD@Z$16
	DD	04H
	DD	FLAT:__unwindfunclet$?LoadMotionData@CRaceMotionData@@QAE_NPBD@Z$18
	DD	04H
	DD	FLAT:__unwindfunclet$?LoadMotionData@CRaceMotionData@@QAE_NPBD@Z$19
	DD	04H
	DD	FLAT:__unwindfunclet$?LoadMotionData@CRaceMotionData@@QAE_NPBD@Z$23
	DD	03H
	DD	FLAT:___std_terminate
	DD	04H
	DD	FLAT:__unwindfunclet$?LoadMotionData@CRaceMotionData@@QAE_NPBD@Z$24
	DD	03H
	DD	FLAT:___std_terminate
	DD	03H
	DD	FLAT:___std_terminate
	DD	03H
	DD	FLAT:__unwindfunclet$?LoadMotionData@CRaceMotionData@@QAE_NPBD@Z$25
xdata$x	ENDS
;	COMDAT xdata$x
xdata$x	SEGMENT
__ehfuncinfo$??1CRaceMotionData@@UAE@XZ DD 019930522H
	DD	00H
	DD	00H
	DD	2 DUP(00H)
	DD	2 DUP(00H)
	DD	00H
	DD	05H
xdata$x	ENDS
;	COMDAT xdata$x
xdata$x	SEGMENT
__ehfuncinfo$??0CRaceMotionData@@QAE@XZ DD 019930522H
	DD	05H
	DD	FLAT:__unwindtable$??0CRaceMotionData@@QAE@XZ
	DD	2 DUP(00H)
	DD	2 DUP(00H)
	DD	00H
	DD	01H
__unwindtable$??0CRaceMotionData@@QAE@XZ DD 0ffffffffH
	DD	FLAT:__unwindfunclet$??0CRaceMotionData@@QAE@XZ$0
	DD	00H
	DD	FLAT:__unwindfunclet$??0CRaceMotionData@@QAE@XZ$1
	DD	01H
	DD	FLAT:__unwindfunclet$??0CRaceMotionData@@QAE@XZ$2
	DD	02H
	DD	FLAT:__unwindfunclet$??0CRaceMotionData@@QAE@XZ$3
	DD	03H
	DD	FLAT:__unwindfunclet$??0CRaceMotionData@@QAE@XZ$4
xdata$x	ENDS
;	COMDAT xdata$x
xdata$x	SEGMENT
__unwindtable$?Load@SMotionEventDataSound@NMotionEvent@@UAE_NAAVCTextFileLoader@@@Z DD 0ffffffffH
	DD	FLAT:__unwindfunclet$?Load@SMotionEventDataSound@NMotionEvent@@UAE_NAAVCTextFileLoader@@@Z$0
__ehfuncinfo$?Load@SMotionEventDataSound@NMotionEvent@@UAE_NAAVCTextFileLoader@@@Z DD 019930522H
	DD	01H
	DD	FLAT:__unwindtable$?Load@SMotionEventDataSound@NMotionEvent@@UAE_NAAVCTextFileLoader@@@Z
	DD	2 DUP(00H)
	DD	2 DUP(00H)
	DD	00H
	DD	01H
xdata$x	ENDS
;	COMDAT xdata$x
xdata$x	SEGMENT
__unwindtable$?Load@SMotionEventDataAttack@NMotionEvent@@UAE_NAAVCTextFileLoader@@@Z DD 0ffffffffH
	DD	FLAT:__unwindfunclet$?Load@SMotionEventDataAttack@NMotionEvent@@UAE_NAAVCTextFileLoader@@@Z$0
	DD	0ffffffffH
	DD	FLAT:__unwindfunclet$?Load@SMotionEventDataAttack@NMotionEvent@@UAE_NAAVCTextFileLoader@@@Z$1
__ehfuncinfo$?Load@SMotionEventDataAttack@NMotionEvent@@UAE_NAAVCTextFileLoader@@@Z DD 019930522H
	DD	02H
	DD	FLAT:__unwindtable$?Load@SMotionEventDataAttack@NMotionEvent@@UAE_NAAVCTextFileLoader@@@Z
	DD	2 DUP(00H)
	DD	2 DUP(00H)
	DD	00H
	DD	01H
xdata$x	ENDS
;	COMDAT xdata$x
xdata$x	SEGMENT
__unwindtable$?Load@SMotionEventDataFly@NMotionEvent@@UAE_NAAVCTextFileLoader@@@Z DD 0ffffffffH
	DD	FLAT:__unwindfunclet$?Load@SMotionEventDataFly@NMotionEvent@@UAE_NAAVCTextFileLoader@@@Z$0
	DD	0ffffffffH
	DD	FLAT:__unwindfunclet$?Load@SMotionEventDataFly@NMotionEvent@@UAE_NAAVCTextFileLoader@@@Z$1
	DD	0ffffffffH
	DD	FLAT:__unwindfunclet$?Load@SMotionEventDataFly@NMotionEvent@@UAE_NAAVCTextFileLoader@@@Z$2
	DD	0ffffffffH
	DD	FLAT:__unwindfunclet$?Load@SMotionEventDataFly@NMotionEvent@@UAE_NAAVCTextFileLoader@@@Z$3
__ehfuncinfo$?Load@SMotionEventDataFly@NMotionEvent@@UAE_NAAVCTextFileLoader@@@Z DD 019930522H
	DD	04H
	DD	FLAT:__unwindtable$?Load@SMotionEventDataFly@NMotionEvent@@UAE_NAAVCTextFileLoader@@@Z
	DD	2 DUP(00H)
	DD	2 DUP(00H)
	DD	00H
	DD	01H
xdata$x	ENDS
;	COMDAT xdata$x
xdata$x	SEGMENT
__unwindtable$?Load@SMotionEventDataEffectToTarget@NMotionEvent@@UAE_NAAVCTextFileLoader@@@Z DD 0ffffffffH
	DD	FLAT:__unwindfunclet$?Load@SMotionEventDataEffectToTarget@NMotionEvent@@UAE_NAAVCTextFileLoader@@@Z$0
	DD	0ffffffffH
	DD	FLAT:__unwindfunclet$?Load@SMotionEventDataEffectToTarget@NMotionEvent@@UAE_NAAVCTextFileLoader@@@Z$1
	DD	0ffffffffH
	DD	FLAT:__unwindfunclet$?Load@SMotionEventDataEffectToTarget@NMotionEvent@@UAE_NAAVCTextFileLoader@@@Z$2
	DD	0ffffffffH
	DD	FLAT:__unwindfunclet$?Load@SMotionEventDataEffectToTarget@NMotionEvent@@UAE_NAAVCTextFileLoader@@@Z$3
__ehfuncinfo$?Load@SMotionEventDataEffectToTarget@NMotionEvent@@UAE_NAAVCTextFileLoader@@@Z DD 019930522H
	DD	04H
	DD	FLAT:__unwindtable$?Load@SMotionEventDataEffectToTarget@NMotionEvent@@UAE_NAAVCTextFileLoader@@@Z
	DD	2 DUP(00H)
	DD	2 DUP(00H)
	DD	00H
	DD	01H
xdata$x	ENDS
;	COMDAT xdata$x
xdata$x	SEGMENT
__ehfuncinfo$?Load@SMotionEventDataEffect@NMotionEvent@@UAE_NAAVCTextFileLoader@@@Z DD 019930522H
	DD	06H
	DD	FLAT:__unwindtable$?Load@SMotionEventDataEffect@NMotionEvent@@UAE_NAAVCTextFileLoader@@@Z
	DD	2 DUP(00H)
	DD	2 DUP(00H)
	DD	00H
	DD	01H
__unwindtable$?Load@SMotionEventDataEffect@NMotionEvent@@UAE_NAAVCTextFileLoader@@@Z DD 0ffffffffH
	DD	FLAT:__unwindfunclet$?Load@SMotionEventDataEffect@NMotionEvent@@UAE_NAAVCTextFileLoader@@@Z$0
	DD	0ffffffffH
	DD	FLAT:__unwindfunclet$?Load@SMotionEventDataEffect@NMotionEvent@@UAE_NAAVCTextFileLoader@@@Z$1
	DD	0ffffffffH
	DD	FLAT:__unwindfunclet$?Load@SMotionEventDataEffect@NMotionEvent@@UAE_NAAVCTextFileLoader@@@Z$2
	DD	0ffffffffH
	DD	FLAT:__unwindfunclet$?Load@SMotionEventDataEffect@NMotionEvent@@UAE_NAAVCTextFileLoader@@@Z$3
	DD	0ffffffffH
	DD	FLAT:__unwindfunclet$?Load@SMotionEventDataEffect@NMotionEvent@@UAE_NAAVCTextFileLoader@@@Z$4
	DD	0ffffffffH
	DD	FLAT:__unwindfunclet$?Load@SMotionEventDataEffect@NMotionEvent@@UAE_NAAVCTextFileLoader@@@Z$5
xdata$x	ENDS
;	COMDAT xdata$x
xdata$x	SEGMENT
__unwindtable$?Load@SMotionEventDataScreenWaving@NMotionEvent@@UAE_NAAVCTextFileLoader@@@Z DD 0ffffffffH
	DD	FLAT:__unwindfunclet$?Load@SMotionEventDataScreenWaving@NMotionEvent@@UAE_NAAVCTextFileLoader@@@Z$0
	DD	0ffffffffH
	DD	FLAT:__unwindfunclet$?Load@SMotionEventDataScreenWaving@NMotionEvent@@UAE_NAAVCTextFileLoader@@@Z$1
	DD	0ffffffffH
	DD	FLAT:__unwindfunclet$?Load@SMotionEventDataScreenWaving@NMotionEvent@@UAE_NAAVCTextFileLoader@@@Z$2
__ehfuncinfo$?Load@SMotionEventDataScreenWaving@NMotionEvent@@UAE_NAAVCTextFileLoader@@@Z DD 019930522H
	DD	03H
	DD	FLAT:__unwindtable$?Load@SMotionEventDataScreenWaving@NMotionEvent@@UAE_NAAVCTextFileLoader@@@Z
	DD	2 DUP(00H)
	DD	2 DUP(00H)
	DD	00H
	DD	01H
xdata$x	ENDS
;	COMDAT xdata$x
xdata$x	SEGMENT
__ehfuncinfo$??$_Deallocate@$07$0A@@std@@YAXPAXI@Z DD 019930522H
	DD	00H
	DD	00H
	DD	2 DUP(00H)
	DD	2 DUP(00H)
	DD	00H
	DD	05H
xdata$x	ENDS
;	COMDAT xdata$x
xdata$x	SEGMENT
__ehfuncinfo$??1CGotoChild@CTextFileLoader@@QAE@XZ DD 019930522H
	DD	00H
	DD	00H
	DD	2 DUP(00H)
	DD	2 DUP(00H)
	DD	00H
	DD	05H
xdata$x	ENDS
;	COMDAT xdata$x
xdata$x	SEGMENT
__unwindtable$?NoExtension@CFileNameHelper@@SA?AV?$basic_string@DU?$char_traits@D@std@@V?$allocator@D@2@@std@@AAV23@@Z DD 0ffffffffH
	DD	FLAT:__unwindfunclet$?NoExtension@CFileNameHelper@@SA?AV?$basic_string@DU?$char_traits@D@std@@V?$allocator@D@2@@std@@AAV23@@Z$9
__ehfuncinfo$?NoExtension@CFileNameHelper@@SA?AV?$basic_string@DU?$char_traits@D@std@@V?$allocator@D@2@@std@@AAV23@@Z DD 019930522H
	DD	01H
	DD	FLAT:__unwindtable$?NoExtension@CFileNameHelper@@SA?AV?$basic_string@DU?$char_traits@D@std@@V?$allocator@D@2@@std@@AAV23@@Z
	DD	2 DUP(00H)
	DD	2 DUP(00H)
	DD	00H
	DD	01H
xdata$x	ENDS
;	COMDAT xdata$x
xdata$x	SEGMENT
__unwindtable$??0?$basic_string@DU?$char_traits@D@std@@V?$allocator@D@2@@std@@QAE@QBD@Z DD 0ffffffffH
	DD	FLAT:__unwindfunclet$??0?$basic_string@DU?$char_traits@D@std@@V?$allocator@D@2@@std@@QAE@QBD@Z$0
__ehfuncinfo$??0?$basic_string@DU?$char_traits@D@std@@V?$allocator@D@2@@std@@QAE@QBD@Z DD 019930522H
	DD	01H
	DD	FLAT:__unwindtable$??0?$basic_string@DU?$char_traits@D@std@@V?$allocator@D@2@@std@@QAE@QBD@Z
	DD	2 DUP(00H)
	DD	2 DUP(00H)
	DD	00H
	DD	01H
xdata$x	ENDS
;	COMDAT xdata$x
xdata$x	SEGMENT
__unwindtable$??0?$basic_string@DU?$char_traits@D@std@@V?$allocator@D@2@@std@@QAE@ABV01@@Z DD 0ffffffffH
	DD	FLAT:__unwindfunclet$??0?$basic_string@DU?$char_traits@D@std@@V?$allocator@D@2@@std@@QAE@ABV01@@Z$0
__ehfuncinfo$??0?$basic_string@DU?$char_traits@D@std@@V?$allocator@D@2@@std@@QAE@ABV01@@Z DD 019930522H
	DD	01H
	DD	FLAT:__unwindtable$??0?$basic_string@DU?$char_traits@D@std@@V?$allocator@D@2@@std@@QAE@ABV01@@Z
	DD	2 DUP(00H)
	DD	2 DUP(00H)
	DD	00H
	DD	01H
xdata$x	ENDS
;	COMDAT CRT$XCU
CRT$XCU	SEGMENT
??ms_kPool$initializer$@?$CPooledObject@VCHeaderDecorator@NEffectUpdateDecorator@@@@1P6AXXZA@@3P6AXXZA DD FLAT:??__E?ms_kPool@?$CPooledObject@VCHeaderDecorator@NEffectUpdateDecorator@@@@1V?$CDynamicPoolEx@VCHeaderDecorator@NEffectUpdateDecorator@@@@A@@YAXXZ ; ??ms_kPool$initializer$@?$CPooledObject@VCHeaderDecorator@NEffectUpdateDecorator@@@@1P6AXXZA@@3P6AXXZA
CRT$XCU	ENDS
;	COMDAT CRT$XCU
CRT$XCU	SEGMENT
??ms_kPool$initializer$@?$CPooledObject@VCNullDecorator@NEffectUpdateDecorator@@@@1P6AXXZA@@3P6AXXZA DD FLAT:??__E?ms_kPool@?$CPooledObject@VCNullDecorator@NEffectUpdateDecorator@@@@1V?$CDynamicPoolEx@VCNullDecorator@NEffectUpdateDecorator@@@@A@@YAXXZ ; ??ms_kPool$initializer$@?$CPooledObject@VCNullDecorator@NEffectUpdateDecorator@@@@1P6AXXZA@@3P6AXXZA
CRT$XCU	ENDS
;	COMDAT CRT$XCU
CRT$XCU	SEGMENT
??ms_kPool$initializer$@?$CPooledObject@VCTextureAnimationCWDecorator@NEffectUpdateDecorator@@@@1P6AXXZA@@3P6AXXZA DD FLAT:??__E?ms_kPool@?$CPooledObject@VCTextureAnimationCWDecorator@NEffectUpdateDecorator@@@@1V?$CDynamicPoolEx@VCTextureAnimationCWDecorator@NEffectUpdateDecorator@@@@A@@YAXXZ ; ??ms_kPool$initializer$@?$CPooledObject@VCTextureAnimationCWDecorator@NEffectUpdateDecorator@@@@1P6AXXZA@@3P6AXXZA
CRT$XCU	ENDS
;	COMDAT CRT$XCU
CRT$XCU	SEGMENT
??ms_kPool$initializer$@?$CPooledObject@VCTextureAnimationCCWDecorator@NEffectUpdateDecorator@@@@1P6AXXZA@@3P6AXXZA DD FLAT:??__E?ms_kPool@?$CPooledObject@VCTextureAnimationCCWDecorator@NEffectUpdateDecorator@@@@1V?$CDynamicPoolEx@VCTextureAnimationCCWDecorator@NEffectUpdateDecorator@@@@A@@YAXXZ ; ??ms_kPool$initializer$@?$CPooledObject@VCTextureAnimationCCWDecorator@NEffectUpdateDecorator@@@@1P6AXXZA@@3P6AXXZA
CRT$XCU	ENDS
;	COMDAT CRT$XCU
CRT$XCU	SEGMENT
??ms_kPool$initializer$@?$CPooledObject@VCTextureAnimationRandomDecorator@NEffectUpdateDecorator@@@@1P6AXXZA@@3P6AXXZA DD FLAT:??__E?ms_kPool@?$CPooledObject@VCTextureAnimationRandomDecorator@NEffectUpdateDecorator@@@@1V?$CDynamicPoolEx@VCTextureAnimationRandomDecorator@NEffectUpdateDecorator@@@@A@@YAXXZ ; ??ms_kPool$initializer$@?$CPooledObject@VCTextureAnimationRandomDecorator@NEffectUpdateDecorator@@@@1P6AXXZA@@3P6AXXZA
CRT$XCU	ENDS
;	COMDAT CRT$XCU
CRT$XCU	SEGMENT
??ms_kPool$initializer$@?$CPooledObject@VCAirResistanceDecorator@NEffectUpdateDecorator@@@@1P6AXXZA@@3P6AXXZA DD FLAT:??__E?ms_kPool@?$CPooledObject@VCAirResistanceDecorator@NEffectUpdateDecorator@@@@1V?$CDynamicPoolEx@VCAirResistanceDecorator@NEffectUpdateDecorator@@@@A@@YAXXZ ; ??ms_kPool$initializer$@?$CPooledObject@VCAirResistanceDecorator@NEffectUpdateDecorator@@@@1P6AXXZA@@3P6AXXZA
CRT$XCU	ENDS
;	COMDAT CRT$XCU
CRT$XCU	SEGMENT
??ms_kPool$initializer$@?$CPooledObject@VCGravityDecorator@NEffectUpdateDecorator@@@@1P6AXXZA@@3P6AXXZA DD FLAT:??__E?ms_kPool@?$CPooledObject@VCGravityDecorator@NEffectUpdateDecorator@@@@1V?$CDynamicPoolEx@VCGravityDecorator@NEffectUpdateDecorator@@@@A@@YAXXZ ; ??ms_kPool$initializer$@?$CPooledObject@VCGravityDecorator@NEffectUpdateDecorator@@@@1P6AXXZA@@3P6AXXZA
CRT$XCU	ENDS
;	COMDAT CRT$XCU
CRT$XCU	SEGMENT
??ms_kPool$initializer$@?$CPooledObject@VCRotationDecorator@NEffectUpdateDecorator@@@@1P6AXXZA@@3P6AXXZA DD FLAT:??__E?ms_kPool@?$CPooledObject@VCRotationDecorator@NEffectUpdateDecorator@@@@1V?$CDynamicPoolEx@VCRotationDecorator@NEffectUpdateDecorator@@@@A@@YAXXZ ; ??ms_kPool$initializer$@?$CPooledObject@VCRotationDecorator@NEffectUpdateDecorator@@@@1P6AXXZA@@3P6AXXZA
CRT$XCU	ENDS
; Function compile flags: /Odspy
; File C:\Program Files (x86)\Microsoft Visual Studio\2019\Community\VC\Tools\MSVC\14.28.29333\include\xmemory
;	COMDAT ??$_Destroy_in_place@PAU?$_Tree_node@U?$pair@$$CBMUCDynamicSphereInstance@@@std@@PAX@std@@@std@@YAXAAPAU?$_Tree_node@U?$pair@$$CBMUCDynamicSphereInstance@@@std@@PAX@0@@Z
_TEXT	SEGMENT
__Obj$ = 8						; size = 4
??$_Destroy_in_place@PAU?$_Tree_node@U?$pair@$$CBMUCDynamicSphereInstance@@@std@@PAX@std@@@std@@YAXAAPAU?$_Tree_node@U?$pair@$$CBMUCDynamicSphereInstance@@@std@@PAX@0@@Z PROC ; std::_Destroy_in_place<std::_Tree_node<std::pair<float const ,CDynamicSphereInstance>,void *> *>, COMDAT

; 270  : /* _CONSTEXPR20_DYNALLOC */ void _Destroy_in_place(_Ty& _Obj) noexcept {

  00000	55		 push	 ebp
  00001	8b ec		 mov	 ebp, esp

; 271  : #if _HAS_IF_CONSTEXPR
; 272  :     if constexpr (is_array_v<_Ty>) {
; 273  :         _Destroy_range(_Obj, _Obj + extent_v<_Ty>);
; 274  :     } else
; 275  : #endif // _HAS_IF_CONSTEXPR
; 276  :     {
; 277  :         _Obj.~_Ty();
; 278  :     }
; 279  : }

  00003	5d		 pop	 ebp
  00004	c3		 ret	 0
??$_Destroy_in_place@PAU?$_Tree_node@U?$pair@$$CBMUCDynamicSphereInstance@@@std@@PAX@std@@@std@@YAXAAPAU?$_Tree_node@U?$pair@$$CBMUCDynamicSphereInstance@@@std@@PAX@0@@Z ENDP ; std::_Destroy_in_place<std::_Tree_node<std::pair<float const ,CDynamicSphereInstance>,void *> *>
_TEXT	ENDS
; Function compile flags: /Odspy
; File C:\Program Files (x86)\Microsoft Visual Studio\2019\Community\VC\Tools\MSVC\14.28.29333\include\xutility
;	COMDAT ??$_Copy_memmove@PAPAUSMotionEventData@NMotionEvent@@PAPAU12@@std@@YAPAPAUSMotionEventData@NMotionEvent@@PAPAU12@00@Z
_TEXT	SEGMENT
__Last_ch$ = -16					; size = 4
__Count$ = -12						; size = 4
__Dest_ch$ = -8						; size = 4
__First_ch$ = -4					; size = 4
__First$ = 8						; size = 4
__Last$ = 12						; size = 4
__Dest$ = 16						; size = 4
??$_Copy_memmove@PAPAUSMotionEventData@NMotionEvent@@PAPAU12@@std@@YAPAPAUSMotionEventData@NMotionEvent@@PAPAU12@00@Z PROC ; std::_Copy_memmove<NMotionEvent::SMotionEventData * *,NMotionEvent::SMotionEventData * *>, COMDAT

; 4360 : _OutIt _Copy_memmove(_InIt _First, _InIt _Last, _OutIt _Dest) {

  00000	55		 push	 ebp
  00001	8b ec		 mov	 ebp, esp
  00003	83 ec 10	 sub	 esp, 16			; 00000010H

; 4361 :     const char* const _First_ch = const_cast<const char*>(reinterpret_cast<const volatile char*>(_First));

  00006	8b 45 08	 mov	 eax, DWORD PTR __First$[ebp]
  00009	89 45 fc	 mov	 DWORD PTR __First_ch$[ebp], eax

; 4362 :     const char* const _Last_ch  = const_cast<const char*>(reinterpret_cast<const volatile char*>(_Last));

  0000c	8b 45 0c	 mov	 eax, DWORD PTR __Last$[ebp]
  0000f	89 45 f0	 mov	 DWORD PTR __Last_ch$[ebp], eax

; 4363 :     char* const _Dest_ch        = const_cast<char*>(reinterpret_cast<volatile char*>(_Dest));

  00012	8b 45 10	 mov	 eax, DWORD PTR __Dest$[ebp]
  00015	89 45 f8	 mov	 DWORD PTR __Dest_ch$[ebp], eax

; 4364 :     const auto _Count           = static_cast<size_t>(_Last_ch - _First_ch);

  00018	8b 45 f0	 mov	 eax, DWORD PTR __Last_ch$[ebp]
  0001b	2b 45 fc	 sub	 eax, DWORD PTR __First_ch$[ebp]
  0001e	89 45 f4	 mov	 DWORD PTR __Count$[ebp], eax

; 4365 :     _CSTD memmove(_Dest_ch, _First_ch, _Count);

  00021	ff 75 f4	 push	 DWORD PTR __Count$[ebp]
  00024	ff 75 fc	 push	 DWORD PTR __First_ch$[ebp]
  00027	ff 75 f8	 push	 DWORD PTR __Dest_ch$[ebp]
  0002a	e8 00 00 00 00	 call	 _memmove
  0002f	83 c4 0c	 add	 esp, 12			; 0000000cH

; 4366 :     return reinterpret_cast<_OutIt>(_Dest_ch + _Count);

  00032	8b 45 f8	 mov	 eax, DWORD PTR __Dest_ch$[ebp]
  00035	03 45 f4	 add	 eax, DWORD PTR __Count$[ebp]

; 4367 : }

  00038	c9		 leave
  00039	c3		 ret	 0
??$_Copy_memmove@PAPAUSMotionEventData@NMotionEvent@@PAPAU12@@std@@YAPAPAUSMotionEventData@NMotionEvent@@PAPAU12@00@Z ENDP ; std::_Copy_memmove<NMotionEvent::SMotionEventData * *,NMotionEvent::SMotionEventData * *>
_TEXT	ENDS
; Function compile flags: /Odspy
; File C:\Program Files (x86)\Microsoft Visual Studio\2019\Community\VC\Tools\MSVC\14.28.29333\include\xtree
; File C:\Program Files (x86)\Microsoft Visual Studio\2019\Community\VC\Tools\MSVC\14.28.29333\include\xmemory
; File C:\Program Files (x86)\Microsoft Visual Studio\2019\Community\VC\Tools\MSVC\14.28.29333\include\xtree
;	COMDAT ??$_Freenode0@V?$allocator@U?$_Tree_node@U?$pair@$$CBMUCDynamicSphereInstance@@@std@@PAX@std@@@std@@@?$_Tree_node@U?$pair@$$CBMUCDynamicSphereInstance@@@std@@PAX@std@@SAXAAV?$allocator@U?$_Tree_node@U?$pair@$$CBMUCDynamicSphereInstance@@@std@@PAX@std@@@1@PAU01@@Z
_TEXT	SEGMENT
__Al$ = 8						; size = 4
__Ptr$ = 12						; size = 4
??$_Freenode0@V?$allocator@U?$_Tree_node@U?$pair@$$CBMUCDynamicSphereInstance@@@std@@PAX@std@@@std@@@?$_Tree_node@U?$pair@$$CBMUCDynamicSphereInstance@@@std@@PAX@std@@SAXAAV?$allocator@U?$_Tree_node@U?$pair@$$CBMUCDynamicSphereInstance@@@std@@PAX@std@@@1@PAU01@@Z PROC ; std::_Tree_node<std::pair<float const ,CDynamicSphereInstance>,void *>::_Freenode0<std::allocator<std::_Tree_node<std::pair<float const ,CDynamicSphereInstance>,void *> > >, COMDAT

; 368  :     static void _Freenode0(_Alloc& _Al, _Nodeptr _Ptr) noexcept {

  00000	55		 push	 ebp
  00001	8b ec		 mov	 ebp, esp

; 369  :         static_assert(is_same_v<typename _Alloc::value_type, _Tree_node>, "Bad _Freenode0 call");
; 370  :         _Destroy_in_place(_Ptr->_Left);

  00003	ff 75 0c	 push	 DWORD PTR __Ptr$[ebp]
  00006	e8 00 00 00 00	 call	 ??$_Destroy_in_place@PAU?$_Tree_node@U?$pair@$$CBMUCDynamicSphereInstance@@@std@@PAX@std@@@std@@YAXAAPAU?$_Tree_node@U?$pair@$$CBMUCDynamicSphereInstance@@@std@@PAX@0@@Z ; std::_Destroy_in_place<std::_Tree_node<std::pair<float const ,CDynamicSphereInstance>,void *> *>
  0000b	59		 pop	 ecx

; 371  :         _Destroy_in_place(_Ptr->_Parent);

  0000c	8b 45 0c	 mov	 eax, DWORD PTR __Ptr$[ebp]
  0000f	83 c0 04	 add	 eax, 4
  00012	50		 push	 eax
  00013	e8 00 00 00 00	 call	 ??$_Destroy_in_place@PAU?$_Tree_node@U?$pair@$$CBMUCDynamicSphereInstance@@@std@@PAX@std@@@std@@YAXAAPAU?$_Tree_node@U?$pair@$$CBMUCDynamicSphereInstance@@@std@@PAX@0@@Z ; std::_Destroy_in_place<std::_Tree_node<std::pair<float const ,CDynamicSphereInstance>,void *> *>
  00018	59		 pop	 ecx

; 372  :         _Destroy_in_place(_Ptr->_Right);

  00019	8b 45 0c	 mov	 eax, DWORD PTR __Ptr$[ebp]
  0001c	83 c0 08	 add	 eax, 8
  0001f	50		 push	 eax
  00020	e8 00 00 00 00	 call	 ??$_Destroy_in_place@PAU?$_Tree_node@U?$pair@$$CBMUCDynamicSphereInstance@@@std@@PAX@std@@@std@@YAXAAPAU?$_Tree_node@U?$pair@$$CBMUCDynamicSphereInstance@@@std@@PAX@0@@Z ; std::_Destroy_in_place<std::_Tree_node<std::pair<float const ,CDynamicSphereInstance>,void *> *>
  00025	59		 pop	 ecx
; File C:\Program Files (x86)\Microsoft Visual Studio\2019\Community\VC\Tools\MSVC\14.28.29333\include\xmemory

; 696  :         _Deallocate<_New_alignof<value_type>>(_Ptr, sizeof(value_type) * _Count);

  00026	33 c0		 xor	 eax, eax
  00028	40		 inc	 eax
  00029	6b c0 30	 imul	 eax, eax, 48
  0002c	50		 push	 eax
  0002d	ff 75 0c	 push	 DWORD PTR __Ptr$[ebp]
  00030	e8 00 00 00 00	 call	 ??$_Deallocate@$07$0A@@std@@YAXPAXI@Z ; std::_Deallocate<8,0>
  00035	59		 pop	 ecx
  00036	59		 pop	 ecx
; File C:\Program Files (x86)\Microsoft Visual Studio\2019\Community\VC\Tools\MSVC\14.28.29333\include\xtree

; 374  :     }

  00037	5d		 pop	 ebp
  00038	c3		 ret	 0
??$_Freenode0@V?$allocator@U?$_Tree_node@U?$pair@$$CBMUCDynamicSphereInstance@@@std@@PAX@std@@@std@@@?$_Tree_node@U?$pair@$$CBMUCDynamicSphereInstance@@@std@@PAX@std@@SAXAAV?$allocator@U?$_Tree_node@U?$pair@$$CBMUCDynamicSphereInstance@@@std@@PAX@std@@@1@PAU01@@Z ENDP ; std::_Tree_node<std::pair<float const ,CDynamicSphereInstance>,void *>::_Freenode0<std::allocator<std::_Tree_node<std::pair<float const ,CDynamicSphereInstance>,void *> > >
_TEXT	ENDS
; Function compile flags: /Odspy
; File C:\Program Files (x86)\Microsoft Visual Studio\2019\Community\VC\Tools\MSVC\14.28.29333\include\xtree
; File C:\Program Files (x86)\Microsoft Visual Studio\2019\Community\VC\Tools\MSVC\14.28.29333\include\utility
; File C:\Program Files (x86)\Microsoft Visual Studio\2019\Community\VC\Tools\MSVC\14.28.29333\include\xtree
; File C:\Program Files (x86)\Microsoft Visual Studio\2019\Community\VC\Tools\MSVC\14.28.29333\include\xstddef
; File C:\Program Files (x86)\Microsoft Visual Studio\2019\Community\VC\Tools\MSVC\14.28.29333\include\xtree
;	COMDAT ??$_Erase_tree@V?$allocator@U?$_Tree_node@U?$pair@$$CBMUCDynamicSphereInstance@@@std@@PAX@std@@@std@@@?$_Tree_val@U?$_Tree_simple_types@U?$pair@$$CBMUCDynamicSphereInstance@@@std@@@std@@@std@@QAEXAAV?$allocator@U?$_Tree_node@U?$pair@$$CBMUCDynamicSphereInstance@@@std@@PAX@std@@@1@PAU?$_Tree_node@U?$pair@$$CBMUCDynamicSphereInstance@@@std@@PAX@1@@Z
_TEXT	SEGMENT
$T1 = -20						; size = 4
__Old_val$2 = -16					; size = 4
__New_val$ = -12					; size = 4
_this$ = -8						; size = 4
$T3 = -4						; size = 4
__Al$ = 8						; size = 4
__Rootnode$ = 12					; size = 4
??$_Erase_tree@V?$allocator@U?$_Tree_node@U?$pair@$$CBMUCDynamicSphereInstance@@@std@@PAX@std@@@std@@@?$_Tree_val@U?$_Tree_simple_types@U?$pair@$$CBMUCDynamicSphereInstance@@@std@@@std@@@std@@QAEXAAV?$allocator@U?$_Tree_node@U?$pair@$$CBMUCDynamicSphereInstance@@@std@@PAX@std@@@1@PAU?$_Tree_node@U?$pair@$$CBMUCDynamicSphereInstance@@@std@@PAX@1@@Z PROC ; std::_Tree_val<std::_Tree_simple_types<std::pair<float const ,CDynamicSphereInstance> > >::_Erase_tree<std::allocator<std::_Tree_node<std::pair<float const ,CDynamicSphereInstance>,void *> > >, COMDAT
; _this$ = ecx

; 742  :     void _Erase_tree(_Alnode& _Al, _Nodeptr _Rootnode) noexcept {

  00000	55		 push	 ebp
  00001	8b ec		 mov	 ebp, esp
  00003	83 ec 14	 sub	 esp, 20			; 00000014H
  00006	89 4d f8	 mov	 DWORD PTR _this$[ebp], ecx
$LN2@Erase_tree:

; 743  :         while (!_Rootnode->_Isnil) { // free subtrees, then node

  00009	8b 45 0c	 mov	 eax, DWORD PTR __Rootnode$[ebp]
  0000c	0f be 40 0d	 movsx	 eax, BYTE PTR [eax+13]
  00010	85 c0		 test	 eax, eax
  00012	75 43		 jne	 SHORT $LN4@Erase_tree

; 744  :             _Erase_tree(_Al, _Rootnode->_Right);

  00014	8b 45 0c	 mov	 eax, DWORD PTR __Rootnode$[ebp]
  00017	ff 70 08	 push	 DWORD PTR [eax+8]
  0001a	ff 75 08	 push	 DWORD PTR __Al$[ebp]
  0001d	8b 4d f8	 mov	 ecx, DWORD PTR _this$[ebp]
  00020	e8 00 00 00 00	 call	 ??$_Erase_tree@V?$allocator@U?$_Tree_node@U?$pair@$$CBMUCDynamicSphereInstance@@@std@@PAX@std@@@std@@@?$_Tree_val@U?$_Tree_simple_types@U?$pair@$$CBMUCDynamicSphereInstance@@@std@@@std@@@std@@QAEXAAV?$allocator@U?$_Tree_node@U?$pair@$$CBMUCDynamicSphereInstance@@@std@@PAX@std@@@1@PAU?$_Tree_node@U?$pair@$$CBMUCDynamicSphereInstance@@@std@@PAX@1@@Z ; std::_Tree_val<std::_Tree_simple_types<std::pair<float const ,CDynamicSphereInstance> > >::_Erase_tree<std::allocator<std::_Tree_node<std::pair<float const ,CDynamicSphereInstance>,void *> > >

; 745  :             _Alnode::value_type::_Freenode(_Al, _STD exchange(_Rootnode, _Rootnode->_Left));

  00025	8b 45 0c	 mov	 eax, DWORD PTR __Rootnode$[ebp]
  00028	89 45 f4	 mov	 DWORD PTR __New_val$[ebp], eax
; File C:\Program Files (x86)\Microsoft Visual Studio\2019\Community\VC\Tools\MSVC\14.28.29333\include\utility

; 598  :     _Ty _Old_val = static_cast<_Ty&&>(_Val);

  0002b	8b 45 0c	 mov	 eax, DWORD PTR __Rootnode$[ebp]
  0002e	89 45 f0	 mov	 DWORD PTR __Old_val$2[ebp], eax

; 599  :     _Val         = static_cast<_Other&&>(_New_val);

  00031	8b 45 f4	 mov	 eax, DWORD PTR __New_val$[ebp]
  00034	8b 00		 mov	 eax, DWORD PTR [eax]
  00036	89 45 0c	 mov	 DWORD PTR __Rootnode$[ebp], eax

; 600  :     return _Old_val;

  00039	8b 45 f0	 mov	 eax, DWORD PTR __Old_val$2[ebp]
  0003c	89 45 fc	 mov	 DWORD PTR $T3[ebp], eax
; File C:\Program Files (x86)\Microsoft Visual Studio\2019\Community\VC\Tools\MSVC\14.28.29333\include\xtree

; 379  :         allocator_traits<_Alloc>::destroy(_Al, _STD addressof(_Ptr->_Myval));

  0003f	8b 45 fc	 mov	 eax, DWORD PTR $T3[ebp]
  00042	83 c0 10	 add	 eax, 16			; 00000010H
; File C:\Program Files (x86)\Microsoft Visual Studio\2019\Community\VC\Tools\MSVC\14.28.29333\include\xstddef

; 275  :     return __builtin_addressof(_Val);

  00045	89 45 ec	 mov	 DWORD PTR $T1[ebp], eax
; File C:\Program Files (x86)\Microsoft Visual Studio\2019\Community\VC\Tools\MSVC\14.28.29333\include\xtree

; 380  :         _Freenode0(_Al, _Ptr);

  00048	ff 75 fc	 push	 DWORD PTR $T3[ebp]
  0004b	ff 75 08	 push	 DWORD PTR __Al$[ebp]
  0004e	e8 00 00 00 00	 call	 ??$_Freenode0@V?$allocator@U?$_Tree_node@U?$pair@$$CBMUCDynamicSphereInstance@@@std@@PAX@std@@@std@@@?$_Tree_node@U?$pair@$$CBMUCDynamicSphereInstance@@@std@@PAX@std@@SAXAAV?$allocator@U?$_Tree_node@U?$pair@$$CBMUCDynamicSphereInstance@@@std@@PAX@std@@@1@PAU01@@Z ; std::_Tree_node<std::pair<float const ,CDynamicSphereInstance>,void *>::_Freenode0<std::allocator<std::_Tree_node<std::pair<float const ,CDynamicSphereInstance>,void *> > >
  00053	59		 pop	 ecx
  00054	59		 pop	 ecx

; 746  :         }

  00055	eb b2		 jmp	 SHORT $LN2@Erase_tree
$LN4@Erase_tree:

; 747  :     }

  00057	c9		 leave
  00058	c2 08 00	 ret	 8
??$_Erase_tree@V?$allocator@U?$_Tree_node@U?$pair@$$CBMUCDynamicSphereInstance@@@std@@PAX@std@@@std@@@?$_Tree_val@U?$_Tree_simple_types@U?$pair@$$CBMUCDynamicSphereInstance@@@std@@@std@@@std@@QAEXAAV?$allocator@U?$_Tree_node@U?$pair@$$CBMUCDynamicSphereInstance@@@std@@PAX@std@@@1@PAU?$_Tree_node@U?$pair@$$CBMUCDynamicSphereInstance@@@std@@PAX@1@@Z ENDP ; std::_Tree_val<std::_Tree_simple_types<std::pair<float const ,CDynamicSphereInstance> > >::_Erase_tree<std::allocator<std::_Tree_node<std::pair<float const ,CDynamicSphereInstance>,void *> > >
_TEXT	ENDS
; Function compile flags: /Odspy
; File C:\Program Files (x86)\Microsoft Visual Studio\2019\Community\VC\Tools\MSVC\14.28.29333\include\xmemory
; File C:\Program Files (x86)\Microsoft Visual Studio\2019\Community\VC\Tools\MSVC\14.28.29333\include\xstddef
; File C:\Program Files (x86)\Microsoft Visual Studio\2019\Community\VC\Tools\MSVC\14.28.29333\include\xmemory
;	COMDAT ??$_Uninitialized_move@PAPAUSMotionEventData@NMotionEvent@@V?$allocator@PAUSMotionEventData@NMotionEvent@@@std@@@std@@YAPAPAUSMotionEventData@NMotionEvent@@QAPAU12@0PAPAU12@AAV?$allocator@PAUSMotionEventData@NMotionEvent@@@0@@Z
_TEXT	SEGMENT
$T1 = -12						; size = 4
__UFirst$ = -8						; size = 4
__ULast$ = -4						; size = 4
__First$ = 8						; size = 4
__Last$ = 12						; size = 4
__Dest$ = 16						; size = 4
__Al$ = 20						; size = 4
??$_Uninitialized_move@PAPAUSMotionEventData@NMotionEvent@@V?$allocator@PAUSMotionEventData@NMotionEvent@@@std@@@std@@YAPAPAUSMotionEventData@NMotionEvent@@QAPAU12@0PAPAU12@AAV?$allocator@PAUSMotionEventData@NMotionEvent@@@0@@Z PROC ; std::_Uninitialized_move<NMotionEvent::SMotionEventData * *,std::allocator<NMotionEvent::SMotionEventData *> >, COMDAT

; 1685 :     const _InIt _First, const _InIt _Last, _Alloc_ptr_t<_Alloc> _Dest, _Alloc& _Al) {

  00000	55		 push	 ebp
  00001	8b ec		 mov	 ebp, esp
  00003	83 ec 0c	 sub	 esp, 12			; 0000000cH

; 1686 :     // move [_First, _Last) to raw _Dest, using _Al
; 1687 :     // note: only called internally from elsewhere in the STL
; 1688 :     using _Ptrval     = typename _Alloc::value_type*;
; 1689 :     auto _UFirst      = _Get_unwrapped(_First);

  00006	8b 45 08	 mov	 eax, DWORD PTR __First$[ebp]
  00009	89 45 f8	 mov	 DWORD PTR __UFirst$[ebp], eax

; 1690 :     const auto _ULast = _Get_unwrapped(_Last);

  0000c	8b 45 0c	 mov	 eax, DWORD PTR __Last$[ebp]
  0000f	89 45 fc	 mov	 DWORD PTR __ULast$[ebp], eax
; File C:\Program Files (x86)\Microsoft Visual Studio\2019\Community\VC\Tools\MSVC\14.28.29333\include\xstddef

; 289  :     return _Ptr;

  00012	8b 45 10	 mov	 eax, DWORD PTR __Dest$[ebp]
  00015	89 45 f4	 mov	 DWORD PTR $T1[ebp], eax
; File C:\Program Files (x86)\Microsoft Visual Studio\2019\Community\VC\Tools\MSVC\14.28.29333\include\xmemory

; 1693 :         _Copy_memmove(_UFirst, _ULast, _Unfancy(_Dest));

  00018	ff 75 f4	 push	 DWORD PTR $T1[ebp]
  0001b	ff 75 fc	 push	 DWORD PTR __ULast$[ebp]
  0001e	ff 75 f8	 push	 DWORD PTR __UFirst$[ebp]
  00021	e8 00 00 00 00	 call	 ??$_Copy_memmove@PAPAUSMotionEventData@NMotionEvent@@PAPAU12@@std@@YAPAPAUSMotionEventData@NMotionEvent@@PAPAU12@00@Z ; std::_Copy_memmove<NMotionEvent::SMotionEventData * *,NMotionEvent::SMotionEventData * *>
  00026	83 c4 0c	 add	 esp, 12			; 0000000cH

; 1694 :         return _Dest + (_ULast - _UFirst);

  00029	8b 45 fc	 mov	 eax, DWORD PTR __ULast$[ebp]
  0002c	2b 45 f8	 sub	 eax, DWORD PTR __UFirst$[ebp]
  0002f	c1 f8 02	 sar	 eax, 2
  00032	8b 4d 10	 mov	 ecx, DWORD PTR __Dest$[ebp]
  00035	8d 04 81	 lea	 eax, DWORD PTR [ecx+eax*4]

; 1695 :     } else {
; 1696 :         _Uninitialized_backout_al<_Alloc> _Backout{_Dest, _Al};
; 1697 :         for (; _UFirst != _ULast; ++_UFirst) {
; 1698 :             _Backout._Emplace_back(_STD move(*_UFirst));
; 1699 :         }
; 1700 : 
; 1701 :         return _Backout._Release();
; 1702 :     }
; 1703 : }

  00038	c9		 leave
  00039	c3		 ret	 0
??$_Uninitialized_move@PAPAUSMotionEventData@NMotionEvent@@V?$allocator@PAUSMotionEventData@NMotionEvent@@@std@@@std@@YAPAPAUSMotionEventData@NMotionEvent@@QAPAU12@0PAPAU12@AAV?$allocator@PAUSMotionEventData@NMotionEvent@@@0@@Z ENDP ; std::_Uninitialized_move<NMotionEvent::SMotionEventData * *,std::allocator<NMotionEvent::SMotionEventData *> >
_TEXT	ENDS
; Function compile flags: /Odspy
; File C:\Program Files (x86)\Microsoft Visual Studio\2019\Community\VC\Tools\MSVC\14.28.29333\include\xmemory
; File C:\Program Files (x86)\Microsoft Visual Studio\2019\Community\VC\Tools\MSVC\14.28.29333\include\type_traits
; File C:\Program Files (x86)\Microsoft Visual Studio\2019\Community\VC\Tools\MSVC\14.28.29333\include\xmemory
; File C:\Program Files (x86)\Microsoft Visual Studio\2019\Community\VC\Tools\MSVC\14.28.29333\include\xstddef
; File C:\Program Files (x86)\Microsoft Visual Studio\2019\Community\VC\Tools\MSVC\14.28.29333\include\xmemory
; File C:\Program Files (x86)\Microsoft Visual Studio\2019\Community\VC\Tools\MSVC\14.28.29333\include\vcruntime_new.h
; File C:\Program Files (x86)\Microsoft Visual Studio\2019\Community\VC\Tools\MSVC\14.28.29333\include\type_traits
; File C:\Program Files (x86)\Microsoft Visual Studio\2019\Community\VC\Tools\MSVC\14.28.29333\include\xmemory
;	COMDAT ??$_Uninitialized_fill_n@V?$allocator@PAUSMotionEventData@NMotionEvent@@@std@@@std@@YAPAPAUSMotionEventData@NMotionEvent@@PAPAU12@IABQAU12@AAV?$allocator@PAUSMotionEventData@NMotionEvent@@@0@@Z
_TEXT	SEGMENT
__Backout$1 = -40					; size = 12
___formal$ = -28					; size = 4
$T2 = -24						; size = 4
$T3 = -20						; size = 4
$T4 = -16						; size = 4
$T5 = -12						; size = 4
$T6 = -8						; size = 4
__Ptr$ = -4						; size = 4
__First$ = 8						; size = 4
__Count$ = 12						; size = 4
__Val$ = 16						; size = 4
__Al$ = 20						; size = 4
??$_Uninitialized_fill_n@V?$allocator@PAUSMotionEventData@NMotionEvent@@@std@@@std@@YAPAPAUSMotionEventData@NMotionEvent@@PAPAU12@IABQAU12@AAV?$allocator@PAUSMotionEventData@NMotionEvent@@@0@@Z PROC ; std::_Uninitialized_fill_n<std::allocator<NMotionEvent::SMotionEventData *> >, COMDAT

; 1750 :     _Alloc_ptr_t<_Alloc> _First, _Alloc_size_t<_Alloc> _Count, const typename _Alloc::value_type& _Val, _Alloc& _Al) {

  00000	55		 push	 ebp
  00001	8b ec		 mov	 ebp, esp
  00003	83 ec 28	 sub	 esp, 40			; 00000028H

; 1535 :     _Uninitialized_backout_al(pointer _Dest, _Alloc& _Al_) : _First(_Dest), _Last(_Dest), _Al(_Al_) {}

  00006	8b 45 08	 mov	 eax, DWORD PTR __First$[ebp]
  00009	89 45 d8	 mov	 DWORD PTR __Backout$1[ebp], eax
  0000c	8b 45 08	 mov	 eax, DWORD PTR __First$[ebp]
  0000f	89 45 dc	 mov	 DWORD PTR __Backout$1[ebp+4], eax
  00012	8b 45 14	 mov	 eax, DWORD PTR __Al$[ebp]
  00015	89 45 e0	 mov	 DWORD PTR __Backout$1[ebp+8], eax

; 1751 :     // copy _Count copies of _Val to raw _First, using _Al
; 1752 :     using _Ty = typename _Alloc::value_type;
; 1753 :     if constexpr (_Fill_memset_is_safe<_Ty*, _Ty> && _Uses_default_construct<_Alloc, _Ty*, _Ty>::value) {
; 1754 :         _Fill_memset(_Unfancy(_First), _Val, static_cast<size_t>(_Count));
; 1755 :         return _First + _Count;
; 1756 :     } else {
; 1757 :         _Uninitialized_backout_al<_Alloc> _Backout{_First, _Al};
; 1758 :         for (; 0 < _Count; --_Count) {

  00018	eb 07		 jmp	 SHORT $LN4@Uninitiali
$LN2@Uninitiali:
  0001a	8b 45 0c	 mov	 eax, DWORD PTR __Count$[ebp]
  0001d	48		 dec	 eax
  0001e	89 45 0c	 mov	 DWORD PTR __Count$[ebp], eax
$LN4@Uninitiali:
  00021	83 7d 0c 00	 cmp	 DWORD PTR __Count$[ebp], 0
  00025	76 39		 jbe	 SHORT $LN3@Uninitiali
; File C:\Program Files (x86)\Microsoft Visual Studio\2019\Community\VC\Tools\MSVC\14.28.29333\include\type_traits

; 1443 :     return static_cast<_Ty&&>(_Arg);

  00027	8b 45 10	 mov	 eax, DWORD PTR __Val$[ebp]
  0002a	89 45 f4	 mov	 DWORD PTR $T5[ebp], eax
; File C:\Program Files (x86)\Microsoft Visual Studio\2019\Community\VC\Tools\MSVC\14.28.29333\include\xmemory

; 1546 :         allocator_traits<_Alloc>::construct(_Al, _Unfancy(_Last), _STD forward<_Types>(_Vals)...);

  0002d	8b 45 dc	 mov	 eax, DWORD PTR __Backout$1[ebp+4]
  00030	89 45 fc	 mov	 DWORD PTR __Ptr$[ebp], eax
; File C:\Program Files (x86)\Microsoft Visual Studio\2019\Community\VC\Tools\MSVC\14.28.29333\include\xstddef

; 289  :     return _Ptr;

  00033	8b 45 fc	 mov	 eax, DWORD PTR __Ptr$[ebp]
  00036	89 45 f8	 mov	 DWORD PTR $T6[ebp], eax
; File C:\Program Files (x86)\Microsoft Visual Studio\2019\Community\VC\Tools\MSVC\14.28.29333\include\xmemory

; 1546 :         allocator_traits<_Alloc>::construct(_Al, _Unfancy(_Last), _STD forward<_Types>(_Vals)...);

  00039	8b 45 e0	 mov	 eax, DWORD PTR __Backout$1[ebp+8]
  0003c	89 45 e4	 mov	 DWORD PTR ___formal$[ebp], eax
; File C:\Program Files (x86)\Microsoft Visual Studio\2019\Community\VC\Tools\MSVC\14.28.29333\include\vcruntime_new.h

; 169  :         return _Where;

  0003f	8b 45 f8	 mov	 eax, DWORD PTR $T6[ebp]
  00042	89 45 f0	 mov	 DWORD PTR $T4[ebp], eax
; File C:\Program Files (x86)\Microsoft Visual Studio\2019\Community\VC\Tools\MSVC\14.28.29333\include\type_traits

; 1443 :     return static_cast<_Ty&&>(_Arg);

  00045	8b 45 f4	 mov	 eax, DWORD PTR $T5[ebp]
  00048	89 45 ec	 mov	 DWORD PTR $T3[ebp], eax
; File C:\Program Files (x86)\Microsoft Visual Studio\2019\Community\VC\Tools\MSVC\14.28.29333\include\xmemory

; 701  :         ::new (const_cast<void*>(static_cast<const volatile void*>(_Ptr))) _Objty(_STD forward<_Types>(_Args)...);

  0004b	8b 45 f0	 mov	 eax, DWORD PTR $T4[ebp]
  0004e	8b 4d ec	 mov	 ecx, DWORD PTR $T3[ebp]
  00051	8b 09		 mov	 ecx, DWORD PTR [ecx]
  00053	89 08		 mov	 DWORD PTR [eax], ecx

; 1547 :         ++_Last;

  00055	8b 45 dc	 mov	 eax, DWORD PTR __Backout$1[ebp+4]
  00058	83 c0 04	 add	 eax, 4
  0005b	89 45 dc	 mov	 DWORD PTR __Backout$1[ebp+4], eax

; 1759 :             _Backout._Emplace_back(_Val);
; 1760 :         }

  0005e	eb ba		 jmp	 SHORT $LN2@Uninitiali
$LN3@Uninitiali:

; 1551 :         _First = _Last;

  00060	8b 45 dc	 mov	 eax, DWORD PTR __Backout$1[ebp+4]
  00063	89 45 d8	 mov	 DWORD PTR __Backout$1[ebp], eax

; 1552 :         return _Last;

  00066	8b 45 dc	 mov	 eax, DWORD PTR __Backout$1[ebp+4]
  00069	89 45 e8	 mov	 DWORD PTR $T2[ebp], eax

; 1541 :         _Destroy_range(_First, _Last, _Al);

  0006c	ff 75 e0	 push	 DWORD PTR __Backout$1[ebp+8]
  0006f	ff 75 dc	 push	 DWORD PTR __Backout$1[ebp+4]
  00072	ff 75 d8	 push	 DWORD PTR __Backout$1[ebp]
  00075	e8 00 00 00 00	 call	 ??$_Destroy_range@V?$allocator@PAUSMotionEventData@NMotionEvent@@@std@@@std@@YAXPAPAUSMotionEventData@NMotionEvent@@QAPAU12@AAV?$allocator@PAUSMotionEventData@NMotionEvent@@@0@@Z ; std::_Destroy_range<std::allocator<NMotionEvent::SMotionEventData *> >
  0007a	83 c4 0c	 add	 esp, 12			; 0000000cH

; 1761 : 
; 1762 :         return _Backout._Release();

  0007d	8b 45 e8	 mov	 eax, DWORD PTR $T2[ebp]

; 1763 :     }
; 1764 : }

  00080	c9		 leave
  00081	c3		 ret	 0
??$_Uninitialized_fill_n@V?$allocator@PAUSMotionEventData@NMotionEvent@@@std@@@std@@YAPAPAUSMotionEventData@NMotionEvent@@PAPAU12@IABQAU12@AAV?$allocator@PAUSMotionEventData@NMotionEvent@@@0@@Z ENDP ; std::_Uninitialized_fill_n<std::allocator<NMotionEvent::SMotionEventData *> >
_TEXT	ENDS
; Function compile flags: /Odspy
; File C:\Program Files (x86)\Microsoft Visual Studio\2019\Community\VC\Tools\MSVC\14.28.29333\include\xutility
;	COMDAT ??$_Copy_memmove@PAPAVCRaceMotionData@@PAPAV1@@std@@YAPAPAVCRaceMotionData@@PAPAV1@00@Z
_TEXT	SEGMENT
__Last_ch$ = -16					; size = 4
__Count$ = -12						; size = 4
__Dest_ch$ = -8						; size = 4
__First_ch$ = -4					; size = 4
__First$ = 8						; size = 4
__Last$ = 12						; size = 4
__Dest$ = 16						; size = 4
??$_Copy_memmove@PAPAVCRaceMotionData@@PAPAV1@@std@@YAPAPAVCRaceMotionData@@PAPAV1@00@Z PROC ; std::_Copy_memmove<CRaceMotionData * *,CRaceMotionData * *>, COMDAT

; 4360 : _OutIt _Copy_memmove(_InIt _First, _InIt _Last, _OutIt _Dest) {

  00000	55		 push	 ebp
  00001	8b ec		 mov	 ebp, esp
  00003	83 ec 10	 sub	 esp, 16			; 00000010H

; 4361 :     const char* const _First_ch = const_cast<const char*>(reinterpret_cast<const volatile char*>(_First));

  00006	8b 45 08	 mov	 eax, DWORD PTR __First$[ebp]
  00009	89 45 fc	 mov	 DWORD PTR __First_ch$[ebp], eax

; 4362 :     const char* const _Last_ch  = const_cast<const char*>(reinterpret_cast<const volatile char*>(_Last));

  0000c	8b 45 0c	 mov	 eax, DWORD PTR __Last$[ebp]
  0000f	89 45 f0	 mov	 DWORD PTR __Last_ch$[ebp], eax

; 4363 :     char* const _Dest_ch        = const_cast<char*>(reinterpret_cast<volatile char*>(_Dest));

  00012	8b 45 10	 mov	 eax, DWORD PTR __Dest$[ebp]
  00015	89 45 f8	 mov	 DWORD PTR __Dest_ch$[ebp], eax

; 4364 :     const auto _Count           = static_cast<size_t>(_Last_ch - _First_ch);

  00018	8b 45 f0	 mov	 eax, DWORD PTR __Last_ch$[ebp]
  0001b	2b 45 fc	 sub	 eax, DWORD PTR __First_ch$[ebp]
  0001e	89 45 f4	 mov	 DWORD PTR __Count$[ebp], eax

; 4365 :     _CSTD memmove(_Dest_ch, _First_ch, _Count);

  00021	ff 75 f4	 push	 DWORD PTR __Count$[ebp]
  00024	ff 75 fc	 push	 DWORD PTR __First_ch$[ebp]
  00027	ff 75 f8	 push	 DWORD PTR __Dest_ch$[ebp]
  0002a	e8 00 00 00 00	 call	 _memmove
  0002f	83 c4 0c	 add	 esp, 12			; 0000000cH

; 4366 :     return reinterpret_cast<_OutIt>(_Dest_ch + _Count);

  00032	8b 45 f8	 mov	 eax, DWORD PTR __Dest_ch$[ebp]
  00035	03 45 f4	 add	 eax, DWORD PTR __Count$[ebp]

; 4367 : }

  00038	c9		 leave
  00039	c3		 ret	 0
??$_Copy_memmove@PAPAVCRaceMotionData@@PAPAV1@@std@@YAPAPAVCRaceMotionData@@PAPAV1@00@Z ENDP ; std::_Copy_memmove<CRaceMotionData * *,CRaceMotionData * *>
_TEXT	ENDS
; Function compile flags: /Odspy
; File C:\Program Files (x86)\Microsoft Visual Studio\2019\Community\VC\Tools\MSVC\14.28.29333\include\vector
; File C:\Program Files (x86)\Microsoft Visual Studio\2019\Community\VC\Tools\MSVC\14.28.29333\include\xmemory
; File C:\Program Files (x86)\Microsoft Visual Studio\2019\Community\VC\Tools\MSVC\14.28.29333\include\vector
; File C:\Program Files (x86)\Microsoft Visual Studio\2019\Community\VC\Tools\MSVC\14.28.29333\include\xmemory
; File C:\Program Files (x86)\Microsoft Visual Studio\2019\Community\VC\Tools\MSVC\14.28.29333\include\limits
; File C:\Program Files (x86)\Microsoft Visual Studio\2019\Community\VC\Tools\MSVC\14.28.29333\include\vector
; File C:\Program Files (x86)\Microsoft Visual Studio\2019\Community\VC\Tools\MSVC\14.28.29333\include\utility
; File C:\Program Files (x86)\Microsoft Visual Studio\2019\Community\VC\Tools\MSVC\14.28.29333\include\vector
; File C:\Program Files (x86)\Microsoft Visual Studio\2019\Community\VC\Tools\MSVC\14.28.29333\include\xmemory
; File C:\Program Files (x86)\Microsoft Visual Studio\2019\Community\VC\Tools\MSVC\14.28.29333\include\vector
; File C:\Program Files (x86)\Microsoft Visual Studio\2019\Community\VC\Tools\MSVC\14.28.29333\include\xmemory
; File C:\Program Files (x86)\Microsoft Visual Studio\2019\Community\VC\Tools\MSVC\14.28.29333\include\vector
; File C:\Program Files (x86)\Microsoft Visual Studio\2019\Community\VC\Tools\MSVC\14.28.29333\include\xmemory
; File C:\Program Files (x86)\Microsoft Visual Studio\2019\Community\VC\Tools\MSVC\14.28.29333\include\vector
; File C:\Program Files (x86)\Microsoft Visual Studio\2019\Community\VC\Tools\MSVC\14.28.29333\include\xmemory
; File C:\Program Files (x86)\Microsoft Visual Studio\2019\Community\VC\Tools\MSVC\14.28.29333\include\vector
;	COMDAT ??$_Resize_reallocate@PAUSMotionEventData@NMotionEvent@@@?$vector@PAUSMotionEventData@NMotionEvent@@V?$allocator@PAUSMotionEventData@NMotionEvent@@@std@@@std@@AAEXIABQAUSMotionEventData@NMotionEvent@@@Z
_TEXT	SEGMENT
__Max_possible$2 = -140					; size = 4
$T3 = -136						; size = 4
$T4 = -132						; size = 4
__First$ = -128						; size = 4
__Last$ = -124						; size = 4
$T5 = -120						; size = 4
$T6 = -116						; size = 4
tv245 = -112						; size = 4
$T7 = -108						; size = 4
$T8 = -104						; size = 4
$T9 = -100						; size = 4
$T10 = -96						; size = 4
$T11 = -92						; size = 4
$T12 = -88						; size = 4
$T13 = -84						; size = 4
$T14 = -80						; size = 4
$T15 = -76						; size = 4
__Appended_last$ = -72					; size = 4
__Myfirst$ = -68					; size = 4
__Mylast$ = -64						; size = 4
__Oldsize$ = -60					; size = 4
__My_data$ = -56					; size = 4
tv147 = -52						; size = 4
$T16 = -48						; size = 4
$T17 = -44						; size = 4
__Appended_first$ = -40					; size = 4
__Newvec$ = -36						; size = 4
__Newcapacity$ = -32					; size = 4
_this$ = -28						; size = 4
___formal$ = -24					; size = 1
__Overflow_is_possible$18 = -18				; size = 1
$T19 = -17						; size = 1
__$EHRec$ = -16						; size = 16
__Newsize$ = 8						; size = 4
__Val$ = 12						; size = 4
??$_Resize_reallocate@PAUSMotionEventData@NMotionEvent@@@?$vector@PAUSMotionEventData@NMotionEvent@@V?$allocator@PAUSMotionEventData@NMotionEvent@@@std@@@std@@AAEXIABQAUSMotionEventData@NMotionEvent@@@Z PROC ; std::vector<NMotionEvent::SMotionEventData *,std::allocator<NMotionEvent::SMotionEventData *> >::_Resize_reallocate<NMotionEvent::SMotionEventData *>, COMDAT
; _this$ = ecx

; 1182 :     void _Resize_reallocate(const size_type _Newsize, const _Ty2& _Val) {

  00000	55		 push	 ebp
  00001	8b ec		 mov	 ebp, esp
  00003	6a ff		 push	 -1
  00005	68 00 00 00 00	 push	 __ehhandler$??$_Resize_reallocate@PAUSMotionEventData@NMotionEvent@@@?$vector@PAUSMotionEventData@NMotionEvent@@V?$allocator@PAUSMotionEventData@NMotionEvent@@@std@@@std@@AAEXIABQAUSMotionEventData@NMotionEvent@@@Z
  0000a	64 a1 00 00 00
	00		 mov	 eax, DWORD PTR fs:0
  00010	50		 push	 eax
  00011	51		 push	 ecx
  00012	83 ec 7c	 sub	 esp, 124		; 0000007cH
  00015	53		 push	 ebx
  00016	56		 push	 esi
  00017	57		 push	 edi
  00018	a1 00 00 00 00	 mov	 eax, DWORD PTR ___security_cookie
  0001d	33 c5		 xor	 eax, ebp
  0001f	50		 push	 eax
  00020	8d 45 f4	 lea	 eax, DWORD PTR __$EHRec$[ebp+4]
  00023	64 a3 00 00 00
	00		 mov	 DWORD PTR fs:0, eax
  00029	89 65 f0	 mov	 DWORD PTR __$EHRec$[ebp], esp
  0002c	89 4d e4	 mov	 DWORD PTR _this$[ebp], ecx

; 1737 :         return _Mypair._Get_first();

  0002f	8b 45 e4	 mov	 eax, DWORD PTR _this$[ebp]
; File C:\Program Files (x86)\Microsoft Visual Studio\2019\Community\VC\Tools\MSVC\14.28.29333\include\xmemory

; 1351 :         return *this;

  00032	89 45 b4	 mov	 DWORD PTR $T15[ebp], eax
; File C:\Program Files (x86)\Microsoft Visual Studio\2019\Community\VC\Tools\MSVC\14.28.29333\include\vector

; 1737 :         return _Mypair._Get_first();

  00035	8b 45 b4	 mov	 eax, DWORD PTR $T15[ebp]
  00038	89 85 7c ff ff
	ff		 mov	 DWORD PTR $T4[ebp], eax
; File C:\Program Files (x86)\Microsoft Visual Studio\2019\Community\VC\Tools\MSVC\14.28.29333\include\xmemory

; 710  :         return static_cast<size_t>(-1) / sizeof(value_type);

  0003e	c7 45 d4 ff ff
	ff 3f		 mov	 DWORD PTR $T17[ebp], 1073741823 ; 3fffffffH
; File C:\Program Files (x86)\Microsoft Visual Studio\2019\Community\VC\Tools\MSVC\14.28.29333\include\limits

; 557  :         return INT_MAX;

  00045	c7 45 b0 ff ff
	ff 7f		 mov	 DWORD PTR $T14[ebp], 2147483647 ; 7fffffffH
; File C:\Program Files (x86)\Microsoft Visual Studio\2019\Community\VC\Tools\MSVC\14.28.29333\include\vector

; 1488 :         return (_STD min)(

  0004c	8b 45 b0	 mov	 eax, DWORD PTR $T14[ebp]
  0004f	89 45 d0	 mov	 DWORD PTR $T16[ebp], eax
; File C:\Program Files (x86)\Microsoft Visual Studio\2019\Community\VC\Tools\MSVC\14.28.29333\include\utility

; 68   :     return _Right < _Left ? _Right : _Left;

  00052	8b 45 d4	 mov	 eax, DWORD PTR $T17[ebp]
  00055	3b 45 d0	 cmp	 eax, DWORD PTR $T16[ebp]
  00058	73 08		 jae	 SHORT $LN26@Resize_rea
  0005a	8d 45 d4	 lea	 eax, DWORD PTR $T17[ebp]
  0005d	89 45 cc	 mov	 DWORD PTR tv147[ebp], eax
  00060	eb 06		 jmp	 SHORT $LN27@Resize_rea
$LN26@Resize_rea:
  00062	8d 45 d0	 lea	 eax, DWORD PTR $T16[ebp]
  00065	89 45 cc	 mov	 DWORD PTR tv147[ebp], eax
$LN27@Resize_rea:
  00068	8b 45 cc	 mov	 eax, DWORD PTR tv147[ebp]
  0006b	89 45 ac	 mov	 DWORD PTR $T13[ebp], eax
  0006e	8b 45 ac	 mov	 eax, DWORD PTR $T13[ebp]
  00071	89 45 a8	 mov	 DWORD PTR $T12[ebp], eax
; File C:\Program Files (x86)\Microsoft Visual Studio\2019\Community\VC\Tools\MSVC\14.28.29333\include\vector

; 1488 :         return (_STD min)(

  00074	8b 45 a8	 mov	 eax, DWORD PTR $T12[ebp]
  00077	8b 00		 mov	 eax, DWORD PTR [eax]
  00079	89 45 a4	 mov	 DWORD PTR $T11[ebp], eax

; 1183 :         if (_Newsize > max_size()) {

  0007c	8b 45 08	 mov	 eax, DWORD PTR __Newsize$[ebp]
  0007f	3b 45 a4	 cmp	 eax, DWORD PTR $T11[ebp]
  00082	76 05		 jbe	 SHORT $LN2@Resize_rea

; 1184 :             _Xlength();

  00084	e8 00 00 00 00	 call	 ?_Xlength@?$vector@PAUSMotionEventData@NMotionEvent@@V?$allocator@PAUSMotionEventData@NMotionEvent@@@std@@@std@@CAXXZ ; std::vector<NMotionEvent::SMotionEventData *,std::allocator<NMotionEvent::SMotionEventData *> >::_Xlength
$LN2@Resize_rea:

; 1185 :         }
; 1186 : 
; 1187 :         auto& _My_data    = _Mypair._Myval2;

  00089	8b 45 e4	 mov	 eax, DWORD PTR _this$[ebp]
  0008c	89 45 c8	 mov	 DWORD PTR __My_data$[ebp], eax

; 1188 :         pointer& _Myfirst = _My_data._Myfirst;

  0008f	8b 45 c8	 mov	 eax, DWORD PTR __My_data$[ebp]
  00092	89 45 bc	 mov	 DWORD PTR __Myfirst$[ebp], eax

; 1189 :         pointer& _Mylast  = _My_data._Mylast;

  00095	8b 45 c8	 mov	 eax, DWORD PTR __My_data$[ebp]
  00098	83 c0 04	 add	 eax, 4
  0009b	89 45 c0	 mov	 DWORD PTR __Mylast$[ebp], eax

; 1190 : 
; 1191 :         const auto _Oldsize          = static_cast<size_type>(_Mylast - _Myfirst);

  0009e	8b 45 c0	 mov	 eax, DWORD PTR __Mylast$[ebp]
  000a1	8b 4d bc	 mov	 ecx, DWORD PTR __Myfirst$[ebp]
  000a4	8b 00		 mov	 eax, DWORD PTR [eax]
  000a6	2b 01		 sub	 eax, DWORD PTR [ecx]
  000a8	c1 f8 02	 sar	 eax, 2
  000ab	89 45 c4	 mov	 DWORD PTR __Oldsize$[ebp], eax

; 1192 :         const size_type _Newcapacity = _Calculate_growth(_Newsize);

  000ae	ff 75 08	 push	 DWORD PTR __Newsize$[ebp]
  000b1	8b 4d e4	 mov	 ecx, DWORD PTR _this$[ebp]
  000b4	e8 00 00 00 00	 call	 ?_Calculate_growth@?$vector@PAUSMotionEventData@NMotionEvent@@V?$allocator@PAUSMotionEventData@NMotionEvent@@@std@@@std@@ABEII@Z ; std::vector<NMotionEvent::SMotionEventData *,std::allocator<NMotionEvent::SMotionEventData *> >::_Calculate_growth
  000b9	89 45 e0	 mov	 DWORD PTR __Newcapacity$[ebp], eax

; 1733 :         return _Mypair._Get_first();

  000bc	8b 45 e4	 mov	 eax, DWORD PTR _this$[ebp]
; File C:\Program Files (x86)\Microsoft Visual Studio\2019\Community\VC\Tools\MSVC\14.28.29333\include\xmemory

; 1347 :         return *this;

  000bf	89 45 a0	 mov	 DWORD PTR $T10[ebp], eax
; File C:\Program Files (x86)\Microsoft Visual Studio\2019\Community\VC\Tools\MSVC\14.28.29333\include\vector

; 1733 :         return _Mypair._Get_first();

  000c2	8b 45 a0	 mov	 eax, DWORD PTR $T10[ebp]
  000c5	89 85 78 ff ff
	ff		 mov	 DWORD PTR $T3[ebp], eax
; File C:\Program Files (x86)\Microsoft Visual Studio\2019\Community\VC\Tools\MSVC\14.28.29333\include\xmemory

; 56   :     constexpr bool _Overflow_is_possible = _Ty_size > 1;

  000cb	c6 45 ee 01	 mov	 BYTE PTR __Overflow_is_possible$18[ebp], 1

; 57   : 
; 58   :     if _CONSTEXPR_IF (_Overflow_is_possible) {
; 59   :         constexpr size_t _Max_possible = static_cast<size_t>(-1) / _Ty_size;

  000cf	c7 85 74 ff ff
	ff ff ff ff 3f	 mov	 DWORD PTR __Max_possible$2[ebp], 1073741823 ; 3fffffffH

; 60   :         if (_Count > _Max_possible) {

  000d9	81 7d e0 ff ff
	ff 3f		 cmp	 DWORD PTR __Newcapacity$[ebp], 1073741823 ; 3fffffffH
  000e0	76 05		 jbe	 SHORT $LN65@Resize_rea

; 61   :             _Throw_bad_array_new_length(); // multiply overflow

  000e2	e8 00 00 00 00	 call	 ?_Throw_bad_array_new_length@std@@YAXXZ ; std::_Throw_bad_array_new_length
$LN65@Resize_rea:

; 62   :         }
; 63   :     }
; 64   : 
; 65   :     return _Count * _Ty_size;

  000e7	8b 45 e0	 mov	 eax, DWORD PTR __Newcapacity$[ebp]
  000ea	c1 e0 02	 shl	 eax, 2
  000ed	89 45 9c	 mov	 DWORD PTR $T9[ebp], eax

; 814  :         return static_cast<_Ty*>(_Allocate<_New_alignof<_Ty>>(_Get_size_of_n<sizeof(_Ty)>(_Count)));

  000f0	ff 75 9c	 push	 DWORD PTR $T9[ebp]
  000f3	e8 00 00 00 00	 call	 ??$_Allocate@$07U_Default_allocate_traits@std@@$0A@@std@@YAPAXI@Z ; std::_Allocate<8,std::_Default_allocate_traits,0>
  000f8	59		 pop	 ecx
  000f9	89 45 dc	 mov	 DWORD PTR __Newvec$[ebp], eax
; File C:\Program Files (x86)\Microsoft Visual Studio\2019\Community\VC\Tools\MSVC\14.28.29333\include\vector

; 1195 :         const pointer _Appended_first = _Newvec + _Oldsize;

  000fc	8b 45 c4	 mov	 eax, DWORD PTR __Oldsize$[ebp]
  000ff	8b 4d dc	 mov	 ecx, DWORD PTR __Newvec$[ebp]
  00102	8d 04 81	 lea	 eax, DWORD PTR [ecx+eax*4]
  00105	89 45 d8	 mov	 DWORD PTR __Appended_first$[ebp], eax

; 1196 :         pointer _Appended_last        = _Appended_first;

  00108	8b 45 d8	 mov	 eax, DWORD PTR __Appended_first$[ebp]
  0010b	89 45 b8	 mov	 DWORD PTR __Appended_last$[ebp], eax

; 1197 : 
; 1198 :         _TRY_BEGIN

  0010e	83 65 fc 00	 and	 DWORD PTR __$EHRec$[ebp+12], 0

; 1733 :         return _Mypair._Get_first();

  00112	8b 45 e4	 mov	 eax, DWORD PTR _this$[ebp]
; File C:\Program Files (x86)\Microsoft Visual Studio\2019\Community\VC\Tools\MSVC\14.28.29333\include\xmemory

; 1347 :         return *this;

  00115	89 45 98	 mov	 DWORD PTR $T8[ebp], eax
; File C:\Program Files (x86)\Microsoft Visual Studio\2019\Community\VC\Tools\MSVC\14.28.29333\include\vector

; 1733 :         return _Mypair._Get_first();

  00118	8b 45 98	 mov	 eax, DWORD PTR $T8[ebp]
  0011b	89 45 94	 mov	 DWORD PTR $T7[ebp], eax

; 1578 :         return _Uninitialized_fill_n(_Dest, _Count, _Val, _Getal());

  0011e	ff 75 94	 push	 DWORD PTR $T7[ebp]
  00121	ff 75 0c	 push	 DWORD PTR __Val$[ebp]

; 1199 :         _Appended_last = _Ufill(_Appended_first, _Newsize - _Oldsize, _Val);

  00124	8b 45 08	 mov	 eax, DWORD PTR __Newsize$[ebp]
  00127	2b 45 c4	 sub	 eax, DWORD PTR __Oldsize$[ebp]

; 1578 :         return _Uninitialized_fill_n(_Dest, _Count, _Val, _Getal());

  0012a	50		 push	 eax
  0012b	ff 75 d8	 push	 DWORD PTR __Appended_first$[ebp]
  0012e	e8 00 00 00 00	 call	 ??$_Uninitialized_fill_n@V?$allocator@PAUSMotionEventData@NMotionEvent@@@std@@@std@@YAPAPAUSMotionEventData@NMotionEvent@@PAPAU12@IABQAU12@AAV?$allocator@PAUSMotionEventData@NMotionEvent@@@0@@Z ; std::_Uninitialized_fill_n<std::allocator<NMotionEvent::SMotionEventData *> >
  00133	83 c4 10	 add	 esp, 16			; 00000010H
  00136	89 45 90	 mov	 DWORD PTR tv245[ebp], eax

; 1199 :         _Appended_last = _Ufill(_Appended_first, _Newsize - _Oldsize, _Val);

  00139	8b 45 90	 mov	 eax, DWORD PTR tv245[ebp]
  0013c	89 45 b8	 mov	 DWORD PTR __Appended_last$[ebp], eax

; 1200 :         _Umove_if_noexcept(_Myfirst, _Mylast, _Newvec);

  0013f	8b 45 c0	 mov	 eax, DWORD PTR __Mylast$[ebp]
  00142	8b 00		 mov	 eax, DWORD PTR [eax]
  00144	89 45 84	 mov	 DWORD PTR __Last$[ebp], eax
  00147	8b 45 bc	 mov	 eax, DWORD PTR __Myfirst$[ebp]
  0014a	8b 00		 mov	 eax, DWORD PTR [eax]
  0014c	89 45 80	 mov	 DWORD PTR __First$[ebp], eax

; 1607 :         _Umove_if_noexcept1(_First, _Last, _Dest,

  0014f	33 c0		 xor	 eax, eax
  00151	88 45 ef	 mov	 BYTE PTR $T19[ebp], al
  00154	8a 45 ef	 mov	 al, BYTE PTR $T19[ebp]
  00157	88 45 e8	 mov	 BYTE PTR ___formal$[ebp], al

; 1733 :         return _Mypair._Get_first();

  0015a	8b 45 e4	 mov	 eax, DWORD PTR _this$[ebp]
; File C:\Program Files (x86)\Microsoft Visual Studio\2019\Community\VC\Tools\MSVC\14.28.29333\include\xmemory

; 1347 :         return *this;

  0015d	89 45 8c	 mov	 DWORD PTR $T6[ebp], eax
; File C:\Program Files (x86)\Microsoft Visual Studio\2019\Community\VC\Tools\MSVC\14.28.29333\include\vector

; 1733 :         return _Mypair._Get_first();

  00160	8b 45 8c	 mov	 eax, DWORD PTR $T6[ebp]
  00163	89 45 88	 mov	 DWORD PTR $T5[ebp], eax

; 1597 :         _Uninitialized_move(_First, _Last, _Dest, _Getal());

  00166	ff 75 88	 push	 DWORD PTR $T5[ebp]
  00169	ff 75 dc	 push	 DWORD PTR __Newvec$[ebp]
  0016c	ff 75 84	 push	 DWORD PTR __Last$[ebp]
  0016f	ff 75 80	 push	 DWORD PTR __First$[ebp]
  00172	e8 00 00 00 00	 call	 ??$_Uninitialized_move@PAPAUSMotionEventData@NMotionEvent@@V?$allocator@PAUSMotionEventData@NMotionEvent@@@std@@@std@@YAPAPAUSMotionEventData@NMotionEvent@@QAPAU12@0PAPAU12@AAV?$allocator@PAUSMotionEventData@NMotionEvent@@@0@@Z ; std::_Uninitialized_move<NMotionEvent::SMotionEventData * *,std::allocator<NMotionEvent::SMotionEventData *> >
  00177	83 c4 10	 add	 esp, 16			; 00000010H

; 1200 :         _Umove_if_noexcept(_Myfirst, _Mylast, _Newvec);

  0017a	eb 32		 jmp	 SHORT $LN5@Resize_rea
__catch$??$_Resize_reallocate@PAUSMotionEventData@NMotionEvent@@@?$vector@PAUSMotionEventData@NMotionEvent@@V?$allocator@PAUSMotionEventData@NMotionEvent@@@std@@@std@@AAEXIABQAUSMotionEventData@NMotionEvent@@@Z$0:

; 1201 :         _CATCH_ALL
; 1202 :         _Destroy(_Appended_first, _Appended_last);

  0017c	ff 75 b8	 push	 DWORD PTR __Appended_last$[ebp]
  0017f	ff 75 d8	 push	 DWORD PTR __Appended_first$[ebp]
  00182	8b 4d e4	 mov	 ecx, DWORD PTR _this$[ebp]
  00185	e8 00 00 00 00	 call	 ?_Destroy@?$vector@PAUSMotionEventData@NMotionEvent@@V?$allocator@PAUSMotionEventData@NMotionEvent@@@std@@@std@@AAEXPAPAUSMotionEventData@NMotionEvent@@0@Z ; std::vector<NMotionEvent::SMotionEventData *,std::allocator<NMotionEvent::SMotionEventData *> >::_Destroy

; 1203 :         _Getal().deallocate(_Newvec, _Newcapacity);

  0018a	ff 75 e0	 push	 DWORD PTR __Newcapacity$[ebp]
  0018d	ff 75 dc	 push	 DWORD PTR __Newvec$[ebp]
  00190	8b 4d e4	 mov	 ecx, DWORD PTR _this$[ebp]
  00193	e8 00 00 00 00	 call	 ?_Getal@?$vector@PAUSMotionEventData@NMotionEvent@@V?$allocator@PAUSMotionEventData@NMotionEvent@@@std@@@std@@AAEAAV?$allocator@PAUSMotionEventData@NMotionEvent@@@2@XZ ; std::vector<NMotionEvent::SMotionEventData *,std::allocator<NMotionEvent::SMotionEventData *> >::_Getal
  00198	8b c8		 mov	 ecx, eax
  0019a	e8 00 00 00 00	 call	 ?deallocate@?$allocator@PAUSMotionEventData@NMotionEvent@@@std@@QAEXQAPAUSMotionEventData@NMotionEvent@@I@Z ; std::allocator<NMotionEvent::SMotionEventData *>::deallocate

; 1204 :         _RERAISE;

  0019f	6a 00		 push	 0
  001a1	6a 00		 push	 0
  001a3	e8 00 00 00 00	 call	 __CxxThrowException@8

; 1205 :         _CATCH_END

  001a8	b8 00 00 00 00	 mov	 eax, $LN8@Resize_rea
  001ad	c3		 ret	 0
$LN5@Resize_rea:
  001ae	83 4d fc ff	 or	 DWORD PTR __$EHRec$[ebp+12], -1
  001b2	eb 04		 jmp	 SHORT __tryend$??$_Resize_reallocate@PAUSMotionEventData@NMotionEvent@@@?$vector@PAUSMotionEventData@NMotionEvent@@V?$allocator@PAUSMotionEventData@NMotionEvent@@@std@@@std@@AAEXIABQAUSMotionEventData@NMotionEvent@@@Z$1
$LN8@Resize_rea:
; File C:\Program Files (x86)\Microsoft Visual Studio\2019\Community\VC\Tools\MSVC\14.28.29333\include\xmemory
  001b4	83 4d fc ff	 or	 DWORD PTR __$EHRec$[ebp+12], -1
__tryend$??$_Resize_reallocate@PAUSMotionEventData@NMotionEvent@@@?$vector@PAUSMotionEventData@NMotionEvent@@V?$allocator@PAUSMotionEventData@NMotionEvent@@@std@@@std@@AAEXIABQAUSMotionEventData@NMotionEvent@@@Z$1:
; File C:\Program Files (x86)\Microsoft Visual Studio\2019\Community\VC\Tools\MSVC\14.28.29333\include\vector

; 1206 : 
; 1207 :         _Change_array(_Newvec, _Newsize, _Newcapacity);

  001b8	ff 75 e0	 push	 DWORD PTR __Newcapacity$[ebp]
  001bb	ff 75 08	 push	 DWORD PTR __Newsize$[ebp]
  001be	ff 75 dc	 push	 DWORD PTR __Newvec$[ebp]
  001c1	8b 4d e4	 mov	 ecx, DWORD PTR _this$[ebp]
  001c4	e8 00 00 00 00	 call	 ?_Change_array@?$vector@PAUSMotionEventData@NMotionEvent@@V?$allocator@PAUSMotionEventData@NMotionEvent@@@std@@@std@@AAEXQAPAUSMotionEventData@NMotionEvent@@II@Z ; std::vector<NMotionEvent::SMotionEventData *,std::allocator<NMotionEvent::SMotionEventData *> >::_Change_array
$LN68@Resize_rea:

; 1208 :     }

  001c9	8b 4d f4	 mov	 ecx, DWORD PTR __$EHRec$[ebp+4]
  001cc	64 89 0d 00 00
	00 00		 mov	 DWORD PTR fs:0, ecx
  001d3	59		 pop	 ecx
  001d4	5f		 pop	 edi
  001d5	5e		 pop	 esi
  001d6	5b		 pop	 ebx
  001d7	c9		 leave
  001d8	c2 08 00	 ret	 8
  001db	cc		 int	 3
  001dc	cc		 int	 3
  001dd	cc		 int	 3
  001de	cc		 int	 3
  001df	cc		 int	 3
_TEXT	ENDS
;	COMDAT text$x
text$x	SEGMENT
__ehhandler$??$_Resize_reallocate@PAUSMotionEventData@NMotionEvent@@@?$vector@PAUSMotionEventData@NMotionEvent@@V?$allocator@PAUSMotionEventData@NMotionEvent@@@std@@@std@@AAEXIABQAUSMotionEventData@NMotionEvent@@@Z:
  00000	90		 npad	 1
  00001	90		 npad	 1
  00002	8b 54 24 08	 mov	 edx, DWORD PTR [esp+8]
  00006	8d 42 0c	 lea	 eax, DWORD PTR [edx+12]
  00009	8b 8a 70 ff ff
	ff		 mov	 ecx, DWORD PTR [edx-144]
  0000f	33 c8		 xor	 ecx, eax
  00011	e8 00 00 00 00	 call	 @__security_check_cookie@4
  00016	b8 00 00 00 00	 mov	 eax, OFFSET __ehfuncinfo$??$_Resize_reallocate@PAUSMotionEventData@NMotionEvent@@@?$vector@PAUSMotionEventData@NMotionEvent@@V?$allocator@PAUSMotionEventData@NMotionEvent@@@std@@@std@@AAEXIABQAUSMotionEventData@NMotionEvent@@@Z
  0001b	e9 00 00 00 00	 jmp	 ___CxxFrameHandler3
text$x	ENDS
??$_Resize_reallocate@PAUSMotionEventData@NMotionEvent@@@?$vector@PAUSMotionEventData@NMotionEvent@@V?$allocator@PAUSMotionEventData@NMotionEvent@@@std@@@std@@AAEXIABQAUSMotionEventData@NMotionEvent@@@Z ENDP ; std::vector<NMotionEvent::SMotionEventData *,std::allocator<NMotionEvent::SMotionEventData *> >::_Resize_reallocate<NMotionEvent::SMotionEventData *>
; Function compile flags: /Odspy
;	COMDAT ??__F?ms_kPool@?$CPooledObject@VCRotationDecorator@NEffectUpdateDecorator@@@@1V?$CDynamicPoolEx@VCRotationDecorator@NEffectUpdateDecorator@@@@A@@YAXXZ
text$yd	SEGMENT
??__F?ms_kPool@?$CPooledObject@VCRotationDecorator@NEffectUpdateDecorator@@@@1V?$CDynamicPoolEx@VCRotationDecorator@NEffectUpdateDecorator@@@@A@@YAXXZ PROC ; `dynamic atexit destructor for 'CPooledObject<NEffectUpdateDecorator::CRotationDecorator>::ms_kPool'', COMDAT
  00000	55		 push	 ebp
  00001	8b ec		 mov	 ebp, esp
  00003	b9 00 00 00 00	 mov	 ecx, OFFSET ?ms_kPool@?$CPooledObject@VCRotationDecorator@NEffectUpdateDecorator@@@@1V?$CDynamicPoolEx@VCRotationDecorator@NEffectUpdateDecorator@@@@A ; CPooledObject<NEffectUpdateDecorator::CRotationDecorator>::ms_kPool
  00008	e8 00 00 00 00	 call	 ??1?$CDynamicPoolEx@VCRotationDecorator@NEffectUpdateDecorator@@@@UAE@XZ ; CDynamicPoolEx<NEffectUpdateDecorator::CRotationDecorator>::~CDynamicPoolEx<NEffectUpdateDecorator::CRotationDecorator>
  0000d	5d		 pop	 ebp
  0000e	c3		 ret	 0
??__F?ms_kPool@?$CPooledObject@VCRotationDecorator@NEffectUpdateDecorator@@@@1V?$CDynamicPoolEx@VCRotationDecorator@NEffectUpdateDecorator@@@@A@@YAXXZ ENDP ; `dynamic atexit destructor for 'CPooledObject<NEffectUpdateDecorator::CRotationDecorator>::ms_kPool''
text$yd	ENDS
; Function compile flags: /Odspy
; File D:\Metin2 Server Files\mainline\SRC_2014\Metin2Client\eterLib\Pool.h
;	COMDAT ??__E?ms_kPool@?$CPooledObject@VCRotationDecorator@NEffectUpdateDecorator@@@@1V?$CDynamicPoolEx@VCRotationDecorator@NEffectUpdateDecorator@@@@A@@YAXXZ
text$di	SEGMENT
??__E?ms_kPool@?$CPooledObject@VCRotationDecorator@NEffectUpdateDecorator@@@@1V?$CDynamicPoolEx@VCRotationDecorator@NEffectUpdateDecorator@@@@A@@YAXXZ PROC ; `dynamic initializer for 'CPooledObject<NEffectUpdateDecorator::CRotationDecorator>::ms_kPool'', COMDAT

; 272  : template <class T> CDynamicPoolEx<T> CPooledObject<T>::ms_kPool;

  00000	55		 push	 ebp
  00001	8b ec		 mov	 ebp, esp
  00003	b9 00 00 00 00	 mov	 ecx, OFFSET ?ms_kPool@?$CPooledObject@VCRotationDecorator@NEffectUpdateDecorator@@@@1V?$CDynamicPoolEx@VCRotationDecorator@NEffectUpdateDecorator@@@@A ; CPooledObject<NEffectUpdateDecorator::CRotationDecorator>::ms_kPool
  00008	e8 00 00 00 00	 call	 ??0?$CDynamicPoolEx@VCRotationDecorator@NEffectUpdateDecorator@@@@QAE@XZ ; CDynamicPoolEx<NEffectUpdateDecorator::CRotationDecorator>::CDynamicPoolEx<NEffectUpdateDecorator::CRotationDecorator>
  0000d	68 00 00 00 00	 push	 OFFSET ??__F?ms_kPool@?$CPooledObject@VCRotationDecorator@NEffectUpdateDecorator@@@@1V?$CDynamicPoolEx@VCRotationDecorator@NEffectUpdateDecorator@@@@A@@YAXXZ ; `dynamic atexit destructor for 'CPooledObject<NEffectUpdateDecorator::CRotationDecorator>::ms_kPool''
  00012	e8 00 00 00 00	 call	 _atexit
  00017	59		 pop	 ecx
  00018	5d		 pop	 ebp
  00019	c3		 ret	 0
??__E?ms_kPool@?$CPooledObject@VCRotationDecorator@NEffectUpdateDecorator@@@@1V?$CDynamicPoolEx@VCRotationDecorator@NEffectUpdateDecorator@@@@A@@YAXXZ ENDP ; `dynamic initializer for 'CPooledObject<NEffectUpdateDecorator::CRotationDecorator>::ms_kPool''
text$di	ENDS
; Function compile flags: /Odspy
;	COMDAT ??__F?ms_kPool@?$CPooledObject@VCGravityDecorator@NEffectUpdateDecorator@@@@1V?$CDynamicPoolEx@VCGravityDecorator@NEffectUpdateDecorator@@@@A@@YAXXZ
text$yd	SEGMENT
??__F?ms_kPool@?$CPooledObject@VCGravityDecorator@NEffectUpdateDecorator@@@@1V?$CDynamicPoolEx@VCGravityDecorator@NEffectUpdateDecorator@@@@A@@YAXXZ PROC ; `dynamic atexit destructor for 'CPooledObject<NEffectUpdateDecorator::CGravityDecorator>::ms_kPool'', COMDAT
  00000	55		 push	 ebp
  00001	8b ec		 mov	 ebp, esp
  00003	b9 00 00 00 00	 mov	 ecx, OFFSET ?ms_kPool@?$CPooledObject@VCGravityDecorator@NEffectUpdateDecorator@@@@1V?$CDynamicPoolEx@VCGravityDecorator@NEffectUpdateDecorator@@@@A ; CPooledObject<NEffectUpdateDecorator::CGravityDecorator>::ms_kPool
  00008	e8 00 00 00 00	 call	 ??1?$CDynamicPoolEx@VCGravityDecorator@NEffectUpdateDecorator@@@@UAE@XZ ; CDynamicPoolEx<NEffectUpdateDecorator::CGravityDecorator>::~CDynamicPoolEx<NEffectUpdateDecorator::CGravityDecorator>
  0000d	5d		 pop	 ebp
  0000e	c3		 ret	 0
??__F?ms_kPool@?$CPooledObject@VCGravityDecorator@NEffectUpdateDecorator@@@@1V?$CDynamicPoolEx@VCGravityDecorator@NEffectUpdateDecorator@@@@A@@YAXXZ ENDP ; `dynamic atexit destructor for 'CPooledObject<NEffectUpdateDecorator::CGravityDecorator>::ms_kPool''
text$yd	ENDS
; Function compile flags: /Odspy
; File D:\Metin2 Server Files\mainline\SRC_2014\Metin2Client\eterLib\Pool.h
;	COMDAT ??__E?ms_kPool@?$CPooledObject@VCGravityDecorator@NEffectUpdateDecorator@@@@1V?$CDynamicPoolEx@VCGravityDecorator@NEffectUpdateDecorator@@@@A@@YAXXZ
text$di	SEGMENT
??__E?ms_kPool@?$CPooledObject@VCGravityDecorator@NEffectUpdateDecorator@@@@1V?$CDynamicPoolEx@VCGravityDecorator@NEffectUpdateDecorator@@@@A@@YAXXZ PROC ; `dynamic initializer for 'CPooledObject<NEffectUpdateDecorator::CGravityDecorator>::ms_kPool'', COMDAT

; 272  : template <class T> CDynamicPoolEx<T> CPooledObject<T>::ms_kPool;

  00000	55		 push	 ebp
  00001	8b ec		 mov	 ebp, esp
  00003	b9 00 00 00 00	 mov	 ecx, OFFSET ?ms_kPool@?$CPooledObject@VCGravityDecorator@NEffectUpdateDecorator@@@@1V?$CDynamicPoolEx@VCGravityDecorator@NEffectUpdateDecorator@@@@A ; CPooledObject<NEffectUpdateDecorator::CGravityDecorator>::ms_kPool
  00008	e8 00 00 00 00	 call	 ??0?$CDynamicPoolEx@VCGravityDecorator@NEffectUpdateDecorator@@@@QAE@XZ ; CDynamicPoolEx<NEffectUpdateDecorator::CGravityDecorator>::CDynamicPoolEx<NEffectUpdateDecorator::CGravityDecorator>
  0000d	68 00 00 00 00	 push	 OFFSET ??__F?ms_kPool@?$CPooledObject@VCGravityDecorator@NEffectUpdateDecorator@@@@1V?$CDynamicPoolEx@VCGravityDecorator@NEffectUpdateDecorator@@@@A@@YAXXZ ; `dynamic atexit destructor for 'CPooledObject<NEffectUpdateDecorator::CGravityDecorator>::ms_kPool''
  00012	e8 00 00 00 00	 call	 _atexit
  00017	59		 pop	 ecx
  00018	5d		 pop	 ebp
  00019	c3		 ret	 0
??__E?ms_kPool@?$CPooledObject@VCGravityDecorator@NEffectUpdateDecorator@@@@1V?$CDynamicPoolEx@VCGravityDecorator@NEffectUpdateDecorator@@@@A@@YAXXZ ENDP ; `dynamic initializer for 'CPooledObject<NEffectUpdateDecorator::CGravityDecorator>::ms_kPool''
text$di	ENDS
; Function compile flags: /Odspy
;	COMDAT ??__F?ms_kPool@?$CPooledObject@VCAirResistanceDecorator@NEffectUpdateDecorator@@@@1V?$CDynamicPoolEx@VCAirResistanceDecorator@NEffectUpdateDecorator@@@@A@@YAXXZ
text$yd	SEGMENT
??__F?ms_kPool@?$CPooledObject@VCAirResistanceDecorator@NEffectUpdateDecorator@@@@1V?$CDynamicPoolEx@VCAirResistanceDecorator@NEffectUpdateDecorator@@@@A@@YAXXZ PROC ; `dynamic atexit destructor for 'CPooledObject<NEffectUpdateDecorator::CAirResistanceDecorator>::ms_kPool'', COMDAT
  00000	55		 push	 ebp
  00001	8b ec		 mov	 ebp, esp
  00003	b9 00 00 00 00	 mov	 ecx, OFFSET ?ms_kPool@?$CPooledObject@VCAirResistanceDecorator@NEffectUpdateDecorator@@@@1V?$CDynamicPoolEx@VCAirResistanceDecorator@NEffectUpdateDecorator@@@@A ; CPooledObject<NEffectUpdateDecorator::CAirResistanceDecorator>::ms_kPool
  00008	e8 00 00 00 00	 call	 ??1?$CDynamicPoolEx@VCAirResistanceDecorator@NEffectUpdateDecorator@@@@UAE@XZ ; CDynamicPoolEx<NEffectUpdateDecorator::CAirResistanceDecorator>::~CDynamicPoolEx<NEffectUpdateDecorator::CAirResistanceDecorator>
  0000d	5d		 pop	 ebp
  0000e	c3		 ret	 0
??__F?ms_kPool@?$CPooledObject@VCAirResistanceDecorator@NEffectUpdateDecorator@@@@1V?$CDynamicPoolEx@VCAirResistanceDecorator@NEffectUpdateDecorator@@@@A@@YAXXZ ENDP ; `dynamic atexit destructor for 'CPooledObject<NEffectUpdateDecorator::CAirResistanceDecorator>::ms_kPool''
text$yd	ENDS
; Function compile flags: /Odspy
; File D:\Metin2 Server Files\mainline\SRC_2014\Metin2Client\eterLib\Pool.h
;	COMDAT ??__E?ms_kPool@?$CPooledObject@VCAirResistanceDecorator@NEffectUpdateDecorator@@@@1V?$CDynamicPoolEx@VCAirResistanceDecorator@NEffectUpdateDecorator@@@@A@@YAXXZ
text$di	SEGMENT
??__E?ms_kPool@?$CPooledObject@VCAirResistanceDecorator@NEffectUpdateDecorator@@@@1V?$CDynamicPoolEx@VCAirResistanceDecorator@NEffectUpdateDecorator@@@@A@@YAXXZ PROC ; `dynamic initializer for 'CPooledObject<NEffectUpdateDecorator::CAirResistanceDecorator>::ms_kPool'', COMDAT

; 272  : template <class T> CDynamicPoolEx<T> CPooledObject<T>::ms_kPool;

  00000	55		 push	 ebp
  00001	8b ec		 mov	 ebp, esp
  00003	b9 00 00 00 00	 mov	 ecx, OFFSET ?ms_kPool@?$CPooledObject@VCAirResistanceDecorator@NEffectUpdateDecorator@@@@1V?$CDynamicPoolEx@VCAirResistanceDecorator@NEffectUpdateDecorator@@@@A ; CPooledObject<NEffectUpdateDecorator::CAirResistanceDecorator>::ms_kPool
  00008	e8 00 00 00 00	 call	 ??0?$CDynamicPoolEx@VCAirResistanceDecorator@NEffectUpdateDecorator@@@@QAE@XZ ; CDynamicPoolEx<NEffectUpdateDecorator::CAirResistanceDecorator>::CDynamicPoolEx<NEffectUpdateDecorator::CAirResistanceDecorator>
  0000d	68 00 00 00 00	 push	 OFFSET ??__F?ms_kPool@?$CPooledObject@VCAirResistanceDecorator@NEffectUpdateDecorator@@@@1V?$CDynamicPoolEx@VCAirResistanceDecorator@NEffectUpdateDecorator@@@@A@@YAXXZ ; `dynamic atexit destructor for 'CPooledObject<NEffectUpdateDecorator::CAirResistanceDecorator>::ms_kPool''
  00012	e8 00 00 00 00	 call	 _atexit
  00017	59		 pop	 ecx
  00018	5d		 pop	 ebp
  00019	c3		 ret	 0
??__E?ms_kPool@?$CPooledObject@VCAirResistanceDecorator@NEffectUpdateDecorator@@@@1V?$CDynamicPoolEx@VCAirResistanceDecorator@NEffectUpdateDecorator@@@@A@@YAXXZ ENDP ; `dynamic initializer for 'CPooledObject<NEffectUpdateDecorator::CAirResistanceDecorator>::ms_kPool''
text$di	ENDS
; Function compile flags: /Odspy
;	COMDAT ??__F?ms_kPool@?$CPooledObject@VCTextureAnimationRandomDecorator@NEffectUpdateDecorator@@@@1V?$CDynamicPoolEx@VCTextureAnimationRandomDecorator@NEffectUpdateDecorator@@@@A@@YAXXZ
text$yd	SEGMENT
??__F?ms_kPool@?$CPooledObject@VCTextureAnimationRandomDecorator@NEffectUpdateDecorator@@@@1V?$CDynamicPoolEx@VCTextureAnimationRandomDecorator@NEffectUpdateDecorator@@@@A@@YAXXZ PROC ; `dynamic atexit destructor for 'CPooledObject<NEffectUpdateDecorator::CTextureAnimationRandomDecorator>::ms_kPool'', COMDAT
  00000	55		 push	 ebp
  00001	8b ec		 mov	 ebp, esp
  00003	b9 00 00 00 00	 mov	 ecx, OFFSET ?ms_kPool@?$CPooledObject@VCTextureAnimationRandomDecorator@NEffectUpdateDecorator@@@@1V?$CDynamicPoolEx@VCTextureAnimationRandomDecorator@NEffectUpdateDecorator@@@@A ; CPooledObject<NEffectUpdateDecorator::CTextureAnimationRandomDecorator>::ms_kPool
  00008	e8 00 00 00 00	 call	 ??1?$CDynamicPoolEx@VCTextureAnimationRandomDecorator@NEffectUpdateDecorator@@@@UAE@XZ ; CDynamicPoolEx<NEffectUpdateDecorator::CTextureAnimationRandomDecorator>::~CDynamicPoolEx<NEffectUpdateDecorator::CTextureAnimationRandomDecorator>
  0000d	5d		 pop	 ebp
  0000e	c3		 ret	 0
??__F?ms_kPool@?$CPooledObject@VCTextureAnimationRandomDecorator@NEffectUpdateDecorator@@@@1V?$CDynamicPoolEx@VCTextureAnimationRandomDecorator@NEffectUpdateDecorator@@@@A@@YAXXZ ENDP ; `dynamic atexit destructor for 'CPooledObject<NEffectUpdateDecorator::CTextureAnimationRandomDecorator>::ms_kPool''
text$yd	ENDS
; Function compile flags: /Odspy
; File D:\Metin2 Server Files\mainline\SRC_2014\Metin2Client\eterLib\Pool.h
;	COMDAT ??__E?ms_kPool@?$CPooledObject@VCTextureAnimationRandomDecorator@NEffectUpdateDecorator@@@@1V?$CDynamicPoolEx@VCTextureAnimationRandomDecorator@NEffectUpdateDecorator@@@@A@@YAXXZ
text$di	SEGMENT
??__E?ms_kPool@?$CPooledObject@VCTextureAnimationRandomDecorator@NEffectUpdateDecorator@@@@1V?$CDynamicPoolEx@VCTextureAnimationRandomDecorator@NEffectUpdateDecorator@@@@A@@YAXXZ PROC ; `dynamic initializer for 'CPooledObject<NEffectUpdateDecorator::CTextureAnimationRandomDecorator>::ms_kPool'', COMDAT

; 272  : template <class T> CDynamicPoolEx<T> CPooledObject<T>::ms_kPool;

  00000	55		 push	 ebp
  00001	8b ec		 mov	 ebp, esp
  00003	b9 00 00 00 00	 mov	 ecx, OFFSET ?ms_kPool@?$CPooledObject@VCTextureAnimationRandomDecorator@NEffectUpdateDecorator@@@@1V?$CDynamicPoolEx@VCTextureAnimationRandomDecorator@NEffectUpdateDecorator@@@@A ; CPooledObject<NEffectUpdateDecorator::CTextureAnimationRandomDecorator>::ms_kPool
  00008	e8 00 00 00 00	 call	 ??0?$CDynamicPoolEx@VCTextureAnimationRandomDecorator@NEffectUpdateDecorator@@@@QAE@XZ ; CDynamicPoolEx<NEffectUpdateDecorator::CTextureAnimationRandomDecorator>::CDynamicPoolEx<NEffectUpdateDecorator::CTextureAnimationRandomDecorator>
  0000d	68 00 00 00 00	 push	 OFFSET ??__F?ms_kPool@?$CPooledObject@VCTextureAnimationRandomDecorator@NEffectUpdateDecorator@@@@1V?$CDynamicPoolEx@VCTextureAnimationRandomDecorator@NEffectUpdateDecorator@@@@A@@YAXXZ ; `dynamic atexit destructor for 'CPooledObject<NEffectUpdateDecorator::CTextureAnimationRandomDecorator>::ms_kPool''
  00012	e8 00 00 00 00	 call	 _atexit
  00017	59		 pop	 ecx
  00018	5d		 pop	 ebp
  00019	c3		 ret	 0
??__E?ms_kPool@?$CPooledObject@VCTextureAnimationRandomDecorator@NEffectUpdateDecorator@@@@1V?$CDynamicPoolEx@VCTextureAnimationRandomDecorator@NEffectUpdateDecorator@@@@A@@YAXXZ ENDP ; `dynamic initializer for 'CPooledObject<NEffectUpdateDecorator::CTextureAnimationRandomDecorator>::ms_kPool''
text$di	ENDS
; Function compile flags: /Odspy
;	COMDAT ??__F?ms_kPool@?$CPooledObject@VCTextureAnimationCCWDecorator@NEffectUpdateDecorator@@@@1V?$CDynamicPoolEx@VCTextureAnimationCCWDecorator@NEffectUpdateDecorator@@@@A@@YAXXZ
text$yd	SEGMENT
??__F?ms_kPool@?$CPooledObject@VCTextureAnimationCCWDecorator@NEffectUpdateDecorator@@@@1V?$CDynamicPoolEx@VCTextureAnimationCCWDecorator@NEffectUpdateDecorator@@@@A@@YAXXZ PROC ; `dynamic atexit destructor for 'CPooledObject<NEffectUpdateDecorator::CTextureAnimationCCWDecorator>::ms_kPool'', COMDAT
  00000	55		 push	 ebp
  00001	8b ec		 mov	 ebp, esp
  00003	b9 00 00 00 00	 mov	 ecx, OFFSET ?ms_kPool@?$CPooledObject@VCTextureAnimationCCWDecorator@NEffectUpdateDecorator@@@@1V?$CDynamicPoolEx@VCTextureAnimationCCWDecorator@NEffectUpdateDecorator@@@@A ; CPooledObject<NEffectUpdateDecorator::CTextureAnimationCCWDecorator>::ms_kPool
  00008	e8 00 00 00 00	 call	 ??1?$CDynamicPoolEx@VCTextureAnimationCCWDecorator@NEffectUpdateDecorator@@@@UAE@XZ ; CDynamicPoolEx<NEffectUpdateDecorator::CTextureAnimationCCWDecorator>::~CDynamicPoolEx<NEffectUpdateDecorator::CTextureAnimationCCWDecorator>
  0000d	5d		 pop	 ebp
  0000e	c3		 ret	 0
??__F?ms_kPool@?$CPooledObject@VCTextureAnimationCCWDecorator@NEffectUpdateDecorator@@@@1V?$CDynamicPoolEx@VCTextureAnimationCCWDecorator@NEffectUpdateDecorator@@@@A@@YAXXZ ENDP ; `dynamic atexit destructor for 'CPooledObject<NEffectUpdateDecorator::CTextureAnimationCCWDecorator>::ms_kPool''
text$yd	ENDS
; Function compile flags: /Odspy
; File D:\Metin2 Server Files\mainline\SRC_2014\Metin2Client\eterLib\Pool.h
;	COMDAT ??__E?ms_kPool@?$CPooledObject@VCTextureAnimationCCWDecorator@NEffectUpdateDecorator@@@@1V?$CDynamicPoolEx@VCTextureAnimationCCWDecorator@NEffectUpdateDecorator@@@@A@@YAXXZ
text$di	SEGMENT
??__E?ms_kPool@?$CPooledObject@VCTextureAnimationCCWDecorator@NEffectUpdateDecorator@@@@1V?$CDynamicPoolEx@VCTextureAnimationCCWDecorator@NEffectUpdateDecorator@@@@A@@YAXXZ PROC ; `dynamic initializer for 'CPooledObject<NEffectUpdateDecorator::CTextureAnimationCCWDecorator>::ms_kPool'', COMDAT

; 272  : template <class T> CDynamicPoolEx<T> CPooledObject<T>::ms_kPool;

  00000	55		 push	 ebp
  00001	8b ec		 mov	 ebp, esp
  00003	b9 00 00 00 00	 mov	 ecx, OFFSET ?ms_kPool@?$CPooledObject@VCTextureAnimationCCWDecorator@NEffectUpdateDecorator@@@@1V?$CDynamicPoolEx@VCTextureAnimationCCWDecorator@NEffectUpdateDecorator@@@@A ; CPooledObject<NEffectUpdateDecorator::CTextureAnimationCCWDecorator>::ms_kPool
  00008	e8 00 00 00 00	 call	 ??0?$CDynamicPoolEx@VCTextureAnimationCCWDecorator@NEffectUpdateDecorator@@@@QAE@XZ ; CDynamicPoolEx<NEffectUpdateDecorator::CTextureAnimationCCWDecorator>::CDynamicPoolEx<NEffectUpdateDecorator::CTextureAnimationCCWDecorator>
  0000d	68 00 00 00 00	 push	 OFFSET ??__F?ms_kPool@?$CPooledObject@VCTextureAnimationCCWDecorator@NEffectUpdateDecorator@@@@1V?$CDynamicPoolEx@VCTextureAnimationCCWDecorator@NEffectUpdateDecorator@@@@A@@YAXXZ ; `dynamic atexit destructor for 'CPooledObject<NEffectUpdateDecorator::CTextureAnimationCCWDecorator>::ms_kPool''
  00012	e8 00 00 00 00	 call	 _atexit
  00017	59		 pop	 ecx
  00018	5d		 pop	 ebp
  00019	c3		 ret	 0
??__E?ms_kPool@?$CPooledObject@VCTextureAnimationCCWDecorator@NEffectUpdateDecorator@@@@1V?$CDynamicPoolEx@VCTextureAnimationCCWDecorator@NEffectUpdateDecorator@@@@A@@YAXXZ ENDP ; `dynamic initializer for 'CPooledObject<NEffectUpdateDecorator::CTextureAnimationCCWDecorator>::ms_kPool''
text$di	ENDS
; Function compile flags: /Odspy
;	COMDAT ??__F?ms_kPool@?$CPooledObject@VCTextureAnimationCWDecorator@NEffectUpdateDecorator@@@@1V?$CDynamicPoolEx@VCTextureAnimationCWDecorator@NEffectUpdateDecorator@@@@A@@YAXXZ
text$yd	SEGMENT
??__F?ms_kPool@?$CPooledObject@VCTextureAnimationCWDecorator@NEffectUpdateDecorator@@@@1V?$CDynamicPoolEx@VCTextureAnimationCWDecorator@NEffectUpdateDecorator@@@@A@@YAXXZ PROC ; `dynamic atexit destructor for 'CPooledObject<NEffectUpdateDecorator::CTextureAnimationCWDecorator>::ms_kPool'', COMDAT
  00000	55		 push	 ebp
  00001	8b ec		 mov	 ebp, esp
  00003	b9 00 00 00 00	 mov	 ecx, OFFSET ?ms_kPool@?$CPooledObject@VCTextureAnimationCWDecorator@NEffectUpdateDecorator@@@@1V?$CDynamicPoolEx@VCTextureAnimationCWDecorator@NEffectUpdateDecorator@@@@A ; CPooledObject<NEffectUpdateDecorator::CTextureAnimationCWDecorator>::ms_kPool
  00008	e8 00 00 00 00	 call	 ??1?$CDynamicPoolEx@VCTextureAnimationCWDecorator@NEffectUpdateDecorator@@@@UAE@XZ ; CDynamicPoolEx<NEffectUpdateDecorator::CTextureAnimationCWDecorator>::~CDynamicPoolEx<NEffectUpdateDecorator::CTextureAnimationCWDecorator>
  0000d	5d		 pop	 ebp
  0000e	c3		 ret	 0
??__F?ms_kPool@?$CPooledObject@VCTextureAnimationCWDecorator@NEffectUpdateDecorator@@@@1V?$CDynamicPoolEx@VCTextureAnimationCWDecorator@NEffectUpdateDecorator@@@@A@@YAXXZ ENDP ; `dynamic atexit destructor for 'CPooledObject<NEffectUpdateDecorator::CTextureAnimationCWDecorator>::ms_kPool''
text$yd	ENDS
; Function compile flags: /Odspy
; File D:\Metin2 Server Files\mainline\SRC_2014\Metin2Client\eterLib\Pool.h
;	COMDAT ??__E?ms_kPool@?$CPooledObject@VCTextureAnimationCWDecorator@NEffectUpdateDecorator@@@@1V?$CDynamicPoolEx@VCTextureAnimationCWDecorator@NEffectUpdateDecorator@@@@A@@YAXXZ
text$di	SEGMENT
??__E?ms_kPool@?$CPooledObject@VCTextureAnimationCWDecorator@NEffectUpdateDecorator@@@@1V?$CDynamicPoolEx@VCTextureAnimationCWDecorator@NEffectUpdateDecorator@@@@A@@YAXXZ PROC ; `dynamic initializer for 'CPooledObject<NEffectUpdateDecorator::CTextureAnimationCWDecorator>::ms_kPool'', COMDAT

; 272  : template <class T> CDynamicPoolEx<T> CPooledObject<T>::ms_kPool;

  00000	55		 push	 ebp
  00001	8b ec		 mov	 ebp, esp
  00003	b9 00 00 00 00	 mov	 ecx, OFFSET ?ms_kPool@?$CPooledObject@VCTextureAnimationCWDecorator@NEffectUpdateDecorator@@@@1V?$CDynamicPoolEx@VCTextureAnimationCWDecorator@NEffectUpdateDecorator@@@@A ; CPooledObject<NEffectUpdateDecorator::CTextureAnimationCWDecorator>::ms_kPool
  00008	e8 00 00 00 00	 call	 ??0?$CDynamicPoolEx@VCTextureAnimationCWDecorator@NEffectUpdateDecorator@@@@QAE@XZ ; CDynamicPoolEx<NEffectUpdateDecorator::CTextureAnimationCWDecorator>::CDynamicPoolEx<NEffectUpdateDecorator::CTextureAnimationCWDecorator>
  0000d	68 00 00 00 00	 push	 OFFSET ??__F?ms_kPool@?$CPooledObject@VCTextureAnimationCWDecorator@NEffectUpdateDecorator@@@@1V?$CDynamicPoolEx@VCTextureAnimationCWDecorator@NEffectUpdateDecorator@@@@A@@YAXXZ ; `dynamic atexit destructor for 'CPooledObject<NEffectUpdateDecorator::CTextureAnimationCWDecorator>::ms_kPool''
  00012	e8 00 00 00 00	 call	 _atexit
  00017	59		 pop	 ecx
  00018	5d		 pop	 ebp
  00019	c3		 ret	 0
??__E?ms_kPool@?$CPooledObject@VCTextureAnimationCWDecorator@NEffectUpdateDecorator@@@@1V?$CDynamicPoolEx@VCTextureAnimationCWDecorator@NEffectUpdateDecorator@@@@A@@YAXXZ ENDP ; `dynamic initializer for 'CPooledObject<NEffectUpdateDecorator::CTextureAnimationCWDecorator>::ms_kPool''
text$di	ENDS
; Function compile flags: /Odspy
;	COMDAT ??__F?ms_kPool@?$CPooledObject@VCNullDecorator@NEffectUpdateDecorator@@@@1V?$CDynamicPoolEx@VCNullDecorator@NEffectUpdateDecorator@@@@A@@YAXXZ
text$yd	SEGMENT
??__F?ms_kPool@?$CPooledObject@VCNullDecorator@NEffectUpdateDecorator@@@@1V?$CDynamicPoolEx@VCNullDecorator@NEffectUpdateDecorator@@@@A@@YAXXZ PROC ; `dynamic atexit destructor for 'CPooledObject<NEffectUpdateDecorator::CNullDecorator>::ms_kPool'', COMDAT
  00000	55		 push	 ebp
  00001	8b ec		 mov	 ebp, esp
  00003	b9 00 00 00 00	 mov	 ecx, OFFSET ?ms_kPool@?$CPooledObject@VCNullDecorator@NEffectUpdateDecorator@@@@1V?$CDynamicPoolEx@VCNullDecorator@NEffectUpdateDecorator@@@@A ; CPooledObject<NEffectUpdateDecorator::CNullDecorator>::ms_kPool
  00008	e8 00 00 00 00	 call	 ??1?$CDynamicPoolEx@VCNullDecorator@NEffectUpdateDecorator@@@@UAE@XZ ; CDynamicPoolEx<NEffectUpdateDecorator::CNullDecorator>::~CDynamicPoolEx<NEffectUpdateDecorator::CNullDecorator>
  0000d	5d		 pop	 ebp
  0000e	c3		 ret	 0
??__F?ms_kPool@?$CPooledObject@VCNullDecorator@NEffectUpdateDecorator@@@@1V?$CDynamicPoolEx@VCNullDecorator@NEffectUpdateDecorator@@@@A@@YAXXZ ENDP ; `dynamic atexit destructor for 'CPooledObject<NEffectUpdateDecorator::CNullDecorator>::ms_kPool''
text$yd	ENDS
; Function compile flags: /Odspy
; File D:\Metin2 Server Files\mainline\SRC_2014\Metin2Client\eterLib\Pool.h
;	COMDAT ??__E?ms_kPool@?$CPooledObject@VCNullDecorator@NEffectUpdateDecorator@@@@1V?$CDynamicPoolEx@VCNullDecorator@NEffectUpdateDecorator@@@@A@@YAXXZ
text$di	SEGMENT
??__E?ms_kPool@?$CPooledObject@VCNullDecorator@NEffectUpdateDecorator@@@@1V?$CDynamicPoolEx@VCNullDecorator@NEffectUpdateDecorator@@@@A@@YAXXZ PROC ; `dynamic initializer for 'CPooledObject<NEffectUpdateDecorator::CNullDecorator>::ms_kPool'', COMDAT

; 272  : template <class T> CDynamicPoolEx<T> CPooledObject<T>::ms_kPool;

  00000	55		 push	 ebp
  00001	8b ec		 mov	 ebp, esp
  00003	b9 00 00 00 00	 mov	 ecx, OFFSET ?ms_kPool@?$CPooledObject@VCNullDecorator@NEffectUpdateDecorator@@@@1V?$CDynamicPoolEx@VCNullDecorator@NEffectUpdateDecorator@@@@A ; CPooledObject<NEffectUpdateDecorator::CNullDecorator>::ms_kPool
  00008	e8 00 00 00 00	 call	 ??0?$CDynamicPoolEx@VCNullDecorator@NEffectUpdateDecorator@@@@QAE@XZ ; CDynamicPoolEx<NEffectUpdateDecorator::CNullDecorator>::CDynamicPoolEx<NEffectUpdateDecorator::CNullDecorator>
  0000d	68 00 00 00 00	 push	 OFFSET ??__F?ms_kPool@?$CPooledObject@VCNullDecorator@NEffectUpdateDecorator@@@@1V?$CDynamicPoolEx@VCNullDecorator@NEffectUpdateDecorator@@@@A@@YAXXZ ; `dynamic atexit destructor for 'CPooledObject<NEffectUpdateDecorator::CNullDecorator>::ms_kPool''
  00012	e8 00 00 00 00	 call	 _atexit
  00017	59		 pop	 ecx
  00018	5d		 pop	 ebp
  00019	c3		 ret	 0
??__E?ms_kPool@?$CPooledObject@VCNullDecorator@NEffectUpdateDecorator@@@@1V?$CDynamicPoolEx@VCNullDecorator@NEffectUpdateDecorator@@@@A@@YAXXZ ENDP ; `dynamic initializer for 'CPooledObject<NEffectUpdateDecorator::CNullDecorator>::ms_kPool''
text$di	ENDS
; Function compile flags: /Odspy
;	COMDAT ??__F?ms_kPool@?$CPooledObject@VCHeaderDecorator@NEffectUpdateDecorator@@@@1V?$CDynamicPoolEx@VCHeaderDecorator@NEffectUpdateDecorator@@@@A@@YAXXZ
text$yd	SEGMENT
??__F?ms_kPool@?$CPooledObject@VCHeaderDecorator@NEffectUpdateDecorator@@@@1V?$CDynamicPoolEx@VCHeaderDecorator@NEffectUpdateDecorator@@@@A@@YAXXZ PROC ; `dynamic atexit destructor for 'CPooledObject<NEffectUpdateDecorator::CHeaderDecorator>::ms_kPool'', COMDAT
  00000	55		 push	 ebp
  00001	8b ec		 mov	 ebp, esp
  00003	b9 00 00 00 00	 mov	 ecx, OFFSET ?ms_kPool@?$CPooledObject@VCHeaderDecorator@NEffectUpdateDecorator@@@@1V?$CDynamicPoolEx@VCHeaderDecorator@NEffectUpdateDecorator@@@@A ; CPooledObject<NEffectUpdateDecorator::CHeaderDecorator>::ms_kPool
  00008	e8 00 00 00 00	 call	 ??1?$CDynamicPoolEx@VCHeaderDecorator@NEffectUpdateDecorator@@@@UAE@XZ ; CDynamicPoolEx<NEffectUpdateDecorator::CHeaderDecorator>::~CDynamicPoolEx<NEffectUpdateDecorator::CHeaderDecorator>
  0000d	5d		 pop	 ebp
  0000e	c3		 ret	 0
??__F?ms_kPool@?$CPooledObject@VCHeaderDecorator@NEffectUpdateDecorator@@@@1V?$CDynamicPoolEx@VCHeaderDecorator@NEffectUpdateDecorator@@@@A@@YAXXZ ENDP ; `dynamic atexit destructor for 'CPooledObject<NEffectUpdateDecorator::CHeaderDecorator>::ms_kPool''
text$yd	ENDS
; Function compile flags: /Odspy
; File D:\Metin2 Server Files\mainline\SRC_2014\Metin2Client\eterLib\Pool.h
;	COMDAT ??__E?ms_kPool@?$CPooledObject@VCHeaderDecorator@NEffectUpdateDecorator@@@@1V?$CDynamicPoolEx@VCHeaderDecorator@NEffectUpdateDecorator@@@@A@@YAXXZ
text$di	SEGMENT
??__E?ms_kPool@?$CPooledObject@VCHeaderDecorator@NEffectUpdateDecorator@@@@1V?$CDynamicPoolEx@VCHeaderDecorator@NEffectUpdateDecorator@@@@A@@YAXXZ PROC ; `dynamic initializer for 'CPooledObject<NEffectUpdateDecorator::CHeaderDecorator>::ms_kPool'', COMDAT

; 272  : template <class T> CDynamicPoolEx<T> CPooledObject<T>::ms_kPool;

  00000	55		 push	 ebp
  00001	8b ec		 mov	 ebp, esp
  00003	b9 00 00 00 00	 mov	 ecx, OFFSET ?ms_kPool@?$CPooledObject@VCHeaderDecorator@NEffectUpdateDecorator@@@@1V?$CDynamicPoolEx@VCHeaderDecorator@NEffectUpdateDecorator@@@@A ; CPooledObject<NEffectUpdateDecorator::CHeaderDecorator>::ms_kPool
  00008	e8 00 00 00 00	 call	 ??0?$CDynamicPoolEx@VCHeaderDecorator@NEffectUpdateDecorator@@@@QAE@XZ ; CDynamicPoolEx<NEffectUpdateDecorator::CHeaderDecorator>::CDynamicPoolEx<NEffectUpdateDecorator::CHeaderDecorator>
  0000d	68 00 00 00 00	 push	 OFFSET ??__F?ms_kPool@?$CPooledObject@VCHeaderDecorator@NEffectUpdateDecorator@@@@1V?$CDynamicPoolEx@VCHeaderDecorator@NEffectUpdateDecorator@@@@A@@YAXXZ ; `dynamic atexit destructor for 'CPooledObject<NEffectUpdateDecorator::CHeaderDecorator>::ms_kPool''
  00012	e8 00 00 00 00	 call	 _atexit
  00017	59		 pop	 ecx
  00018	5d		 pop	 ebp
  00019	c3		 ret	 0
??__E?ms_kPool@?$CPooledObject@VCHeaderDecorator@NEffectUpdateDecorator@@@@1V?$CDynamicPoolEx@VCHeaderDecorator@NEffectUpdateDecorator@@@@A@@YAXXZ ENDP ; `dynamic initializer for 'CPooledObject<NEffectUpdateDecorator::CHeaderDecorator>::ms_kPool''
text$di	ENDS
; Function compile flags: /Odspy
; File C:\Program Files (x86)\Microsoft Visual Studio\2019\Community\VC\Tools\MSVC\14.28.29333\include\xmemory
; File C:\Program Files (x86)\Microsoft Visual Studio\2019\Community\VC\Tools\MSVC\14.28.29333\include\xstddef
; File C:\Program Files (x86)\Microsoft Visual Studio\2019\Community\VC\Tools\MSVC\14.28.29333\include\xmemory
;	COMDAT ??$_Uninitialized_move@PAPAVCRaceMotionData@@V?$allocator@PAVCRaceMotionData@@@std@@@std@@YAPAPAVCRaceMotionData@@QAPAV1@0PAPAV1@AAV?$allocator@PAVCRaceMotionData@@@0@@Z
_TEXT	SEGMENT
$T1 = -12						; size = 4
__UFirst$ = -8						; size = 4
__ULast$ = -4						; size = 4
__First$ = 8						; size = 4
__Last$ = 12						; size = 4
__Dest$ = 16						; size = 4
__Al$ = 20						; size = 4
??$_Uninitialized_move@PAPAVCRaceMotionData@@V?$allocator@PAVCRaceMotionData@@@std@@@std@@YAPAPAVCRaceMotionData@@QAPAV1@0PAPAV1@AAV?$allocator@PAVCRaceMotionData@@@0@@Z PROC ; std::_Uninitialized_move<CRaceMotionData * *,std::allocator<CRaceMotionData *> >, COMDAT

; 1685 :     const _InIt _First, const _InIt _Last, _Alloc_ptr_t<_Alloc> _Dest, _Alloc& _Al) {

  00000	55		 push	 ebp
  00001	8b ec		 mov	 ebp, esp
  00003	83 ec 0c	 sub	 esp, 12			; 0000000cH

; 1686 :     // move [_First, _Last) to raw _Dest, using _Al
; 1687 :     // note: only called internally from elsewhere in the STL
; 1688 :     using _Ptrval     = typename _Alloc::value_type*;
; 1689 :     auto _UFirst      = _Get_unwrapped(_First);

  00006	8b 45 08	 mov	 eax, DWORD PTR __First$[ebp]
  00009	89 45 f8	 mov	 DWORD PTR __UFirst$[ebp], eax

; 1690 :     const auto _ULast = _Get_unwrapped(_Last);

  0000c	8b 45 0c	 mov	 eax, DWORD PTR __Last$[ebp]
  0000f	89 45 fc	 mov	 DWORD PTR __ULast$[ebp], eax
; File C:\Program Files (x86)\Microsoft Visual Studio\2019\Community\VC\Tools\MSVC\14.28.29333\include\xstddef

; 289  :     return _Ptr;

  00012	8b 45 10	 mov	 eax, DWORD PTR __Dest$[ebp]
  00015	89 45 f4	 mov	 DWORD PTR $T1[ebp], eax
; File C:\Program Files (x86)\Microsoft Visual Studio\2019\Community\VC\Tools\MSVC\14.28.29333\include\xmemory

; 1693 :         _Copy_memmove(_UFirst, _ULast, _Unfancy(_Dest));

  00018	ff 75 f4	 push	 DWORD PTR $T1[ebp]
  0001b	ff 75 fc	 push	 DWORD PTR __ULast$[ebp]
  0001e	ff 75 f8	 push	 DWORD PTR __UFirst$[ebp]
  00021	e8 00 00 00 00	 call	 ??$_Copy_memmove@PAPAVCRaceMotionData@@PAPAV1@@std@@YAPAPAVCRaceMotionData@@PAPAV1@00@Z ; std::_Copy_memmove<CRaceMotionData * *,CRaceMotionData * *>
  00026	83 c4 0c	 add	 esp, 12			; 0000000cH

; 1694 :         return _Dest + (_ULast - _UFirst);

  00029	8b 45 fc	 mov	 eax, DWORD PTR __ULast$[ebp]
  0002c	2b 45 f8	 sub	 eax, DWORD PTR __UFirst$[ebp]
  0002f	c1 f8 02	 sar	 eax, 2
  00032	8b 4d 10	 mov	 ecx, DWORD PTR __Dest$[ebp]
  00035	8d 04 81	 lea	 eax, DWORD PTR [ecx+eax*4]

; 1695 :     } else {
; 1696 :         _Uninitialized_backout_al<_Alloc> _Backout{_Dest, _Al};
; 1697 :         for (; _UFirst != _ULast; ++_UFirst) {
; 1698 :             _Backout._Emplace_back(_STD move(*_UFirst));
; 1699 :         }
; 1700 : 
; 1701 :         return _Backout._Release();
; 1702 :     }
; 1703 : }

  00038	c9		 leave
  00039	c3		 ret	 0
??$_Uninitialized_move@PAPAVCRaceMotionData@@V?$allocator@PAVCRaceMotionData@@@std@@@std@@YAPAPAVCRaceMotionData@@QAPAV1@0PAPAV1@AAV?$allocator@PAVCRaceMotionData@@@0@@Z ENDP ; std::_Uninitialized_move<CRaceMotionData * *,std::allocator<CRaceMotionData *> >
_TEXT	ENDS
; Function compile flags: /Odspy
; File C:\Program Files (x86)\Microsoft Visual Studio\2019\Community\VC\Tools\MSVC\14.28.29333\include\xmemory
;	COMDAT ??$_Destroy_range@V?$allocator@PAVCRotationDecorator@NEffectUpdateDecorator@@@std@@@std@@YAXPAPAVCRotationDecorator@NEffectUpdateDecorator@@QAPAV12@AAV?$allocator@PAVCRotationDecorator@NEffectUpdateDecorator@@@0@@Z
_TEXT	SEGMENT
__First$ = 8						; size = 4
__Last$ = 12						; size = 4
__Al$ = 16						; size = 4
??$_Destroy_range@V?$allocator@PAVCRotationDecorator@NEffectUpdateDecorator@@@std@@@std@@YAXPAPAVCRotationDecorator@NEffectUpdateDecorator@@QAPAV12@AAV?$allocator@PAVCRotationDecorator@NEffectUpdateDecorator@@@0@@Z PROC ; std::_Destroy_range<std::allocator<NEffectUpdateDecorator::CRotationDecorator *> >, COMDAT

; 962  :     _Alloc_ptr_t<_Alloc> _First, const _Alloc_ptr_t<_Alloc> _Last, _Alloc& _Al) noexcept {

  00000	55		 push	 ebp
  00001	8b ec		 mov	 ebp, esp

; 963  :     // note that this is an optimization for debug mode codegen; in release mode the BE removes all of this
; 964  :     using _Ty = typename _Alloc::value_type;
; 965  :     if _CONSTEXPR_IF (!conjunction_v<is_trivially_destructible<_Ty>, _Uses_default_destroy<_Alloc, _Ty*>>) {
; 966  :         for (; _First != _Last; ++_First) {
; 967  :             allocator_traits<_Alloc>::destroy(_Al, _Unfancy(_First));
; 968  :         }
; 969  :     }
; 970  : }

  00003	5d		 pop	 ebp
  00004	c3		 ret	 0
??$_Destroy_range@V?$allocator@PAVCRotationDecorator@NEffectUpdateDecorator@@@std@@@std@@YAXPAPAVCRotationDecorator@NEffectUpdateDecorator@@QAPAV12@AAV?$allocator@PAVCRotationDecorator@NEffectUpdateDecorator@@@0@@Z ENDP ; std::_Destroy_range<std::allocator<NEffectUpdateDecorator::CRotationDecorator *> >
_TEXT	ENDS
; Function compile flags: /Odspy
; File C:\Program Files (x86)\Microsoft Visual Studio\2019\Community\VC\Tools\MSVC\14.28.29333\include\xmemory
;	COMDAT ??$_Destroy_range@V?$allocator@PAVCGravityDecorator@NEffectUpdateDecorator@@@std@@@std@@YAXPAPAVCGravityDecorator@NEffectUpdateDecorator@@QAPAV12@AAV?$allocator@PAVCGravityDecorator@NEffectUpdateDecorator@@@0@@Z
_TEXT	SEGMENT
__First$ = 8						; size = 4
__Last$ = 12						; size = 4
__Al$ = 16						; size = 4
??$_Destroy_range@V?$allocator@PAVCGravityDecorator@NEffectUpdateDecorator@@@std@@@std@@YAXPAPAVCGravityDecorator@NEffectUpdateDecorator@@QAPAV12@AAV?$allocator@PAVCGravityDecorator@NEffectUpdateDecorator@@@0@@Z PROC ; std::_Destroy_range<std::allocator<NEffectUpdateDecorator::CGravityDecorator *> >, COMDAT

; 962  :     _Alloc_ptr_t<_Alloc> _First, const _Alloc_ptr_t<_Alloc> _Last, _Alloc& _Al) noexcept {

  00000	55		 push	 ebp
  00001	8b ec		 mov	 ebp, esp

; 963  :     // note that this is an optimization for debug mode codegen; in release mode the BE removes all of this
; 964  :     using _Ty = typename _Alloc::value_type;
; 965  :     if _CONSTEXPR_IF (!conjunction_v<is_trivially_destructible<_Ty>, _Uses_default_destroy<_Alloc, _Ty*>>) {
; 966  :         for (; _First != _Last; ++_First) {
; 967  :             allocator_traits<_Alloc>::destroy(_Al, _Unfancy(_First));
; 968  :         }
; 969  :     }
; 970  : }

  00003	5d		 pop	 ebp
  00004	c3		 ret	 0
??$_Destroy_range@V?$allocator@PAVCGravityDecorator@NEffectUpdateDecorator@@@std@@@std@@YAXPAPAVCGravityDecorator@NEffectUpdateDecorator@@QAPAV12@AAV?$allocator@PAVCGravityDecorator@NEffectUpdateDecorator@@@0@@Z ENDP ; std::_Destroy_range<std::allocator<NEffectUpdateDecorator::CGravityDecorator *> >
_TEXT	ENDS
; Function compile flags: /Odspy
; File C:\Program Files (x86)\Microsoft Visual Studio\2019\Community\VC\Tools\MSVC\14.28.29333\include\xmemory
;	COMDAT ??$_Destroy_range@V?$allocator@PAVCAirResistanceDecorator@NEffectUpdateDecorator@@@std@@@std@@YAXPAPAVCAirResistanceDecorator@NEffectUpdateDecorator@@QAPAV12@AAV?$allocator@PAVCAirResistanceDecorator@NEffectUpdateDecorator@@@0@@Z
_TEXT	SEGMENT
__First$ = 8						; size = 4
__Last$ = 12						; size = 4
__Al$ = 16						; size = 4
??$_Destroy_range@V?$allocator@PAVCAirResistanceDecorator@NEffectUpdateDecorator@@@std@@@std@@YAXPAPAVCAirResistanceDecorator@NEffectUpdateDecorator@@QAPAV12@AAV?$allocator@PAVCAirResistanceDecorator@NEffectUpdateDecorator@@@0@@Z PROC ; std::_Destroy_range<std::allocator<NEffectUpdateDecorator::CAirResistanceDecorator *> >, COMDAT

; 962  :     _Alloc_ptr_t<_Alloc> _First, const _Alloc_ptr_t<_Alloc> _Last, _Alloc& _Al) noexcept {

  00000	55		 push	 ebp
  00001	8b ec		 mov	 ebp, esp

; 963  :     // note that this is an optimization for debug mode codegen; in release mode the BE removes all of this
; 964  :     using _Ty = typename _Alloc::value_type;
; 965  :     if _CONSTEXPR_IF (!conjunction_v<is_trivially_destructible<_Ty>, _Uses_default_destroy<_Alloc, _Ty*>>) {
; 966  :         for (; _First != _Last; ++_First) {
; 967  :             allocator_traits<_Alloc>::destroy(_Al, _Unfancy(_First));
; 968  :         }
; 969  :     }
; 970  : }

  00003	5d		 pop	 ebp
  00004	c3		 ret	 0
??$_Destroy_range@V?$allocator@PAVCAirResistanceDecorator@NEffectUpdateDecorator@@@std@@@std@@YAXPAPAVCAirResistanceDecorator@NEffectUpdateDecorator@@QAPAV12@AAV?$allocator@PAVCAirResistanceDecorator@NEffectUpdateDecorator@@@0@@Z ENDP ; std::_Destroy_range<std::allocator<NEffectUpdateDecorator::CAirResistanceDecorator *> >
_TEXT	ENDS
; Function compile flags: /Odspy
; File C:\Program Files (x86)\Microsoft Visual Studio\2019\Community\VC\Tools\MSVC\14.28.29333\include\xmemory
;	COMDAT ??$_Destroy_range@V?$allocator@PAVCTextureAnimationRandomDecorator@NEffectUpdateDecorator@@@std@@@std@@YAXPAPAVCTextureAnimationRandomDecorator@NEffectUpdateDecorator@@QAPAV12@AAV?$allocator@PAVCTextureAnimationRandomDecorator@NEffectUpdateDecorator@@@0@@Z
_TEXT	SEGMENT
__First$ = 8						; size = 4
__Last$ = 12						; size = 4
__Al$ = 16						; size = 4
??$_Destroy_range@V?$allocator@PAVCTextureAnimationRandomDecorator@NEffectUpdateDecorator@@@std@@@std@@YAXPAPAVCTextureAnimationRandomDecorator@NEffectUpdateDecorator@@QAPAV12@AAV?$allocator@PAVCTextureAnimationRandomDecorator@NEffectUpdateDecorator@@@0@@Z PROC ; std::_Destroy_range<std::allocator<NEffectUpdateDecorator::CTextureAnimationRandomDecorator *> >, COMDAT

; 962  :     _Alloc_ptr_t<_Alloc> _First, const _Alloc_ptr_t<_Alloc> _Last, _Alloc& _Al) noexcept {

  00000	55		 push	 ebp
  00001	8b ec		 mov	 ebp, esp

