; Listing generated by Microsoft (R) Optimizing Compiler Version 19.28.29335.0 

	TITLE	D:\Metin2 Server Files\mainline\SRC_2014\Metin2Client\GameLib\SnowParticle.cpp
	.686P
	.XMM
	include listing.inc
	.model	flat

INCLUDELIB LIBCMT
INCLUDELIB OLDNAMES

PUBLIC	??0exception@std@@QAE@ABV01@@Z			; std::exception::exception
PUBLIC	?what@exception@std@@UBEPBDXZ			; std::exception::what
PUBLIC	??_Gexception@std@@UAEPAXI@Z			; std::exception::`scalar deleting destructor'
PUBLIC	??0bad_alloc@std@@QAE@ABV01@@Z			; std::bad_alloc::bad_alloc
PUBLIC	??_Gbad_alloc@std@@UAEPAXI@Z			; std::bad_alloc::`scalar deleting destructor'
PUBLIC	??0bad_array_new_length@std@@QAE@XZ		; std::bad_array_new_length::bad_array_new_length
PUBLIC	??1bad_array_new_length@std@@UAE@XZ		; std::bad_array_new_length::~bad_array_new_length
PUBLIC	??0bad_array_new_length@std@@QAE@ABV01@@Z	; std::bad_array_new_length::bad_array_new_length
PUBLIC	??_Gbad_array_new_length@std@@UAEPAXI@Z		; std::bad_array_new_length::`scalar deleting destructor'
PUBLIC	?_Throw_bad_array_new_length@std@@YAXXZ		; std::_Throw_bad_array_new_length
PUBLIC	?_Adjust_manually_vector_aligned@std@@YAXAAPAXAAI@Z ; std::_Adjust_manually_vector_aligned
PUBLIC	??$_Deallocate@$07$0A@@std@@YAXPAXI@Z		; std::_Deallocate<8,0>
PUBLIC	??$_Allocate@$07U_Default_allocate_traits@std@@$0A@@std@@YAPAXI@Z ; std::_Allocate<8,std::_Default_allocate_traits,0>
PUBLIC	??$_Allocate_manually_vector_aligned@U_Default_allocate_traits@std@@@std@@YAPAXI@Z ; std::_Allocate_manually_vector_aligned<std::_Default_allocate_traits>
PUBLIC	??0CSnowParticle@@QAE@XZ			; CSnowParticle::CSnowParticle
PUBLIC	??1CSnowParticle@@QAE@XZ			; CSnowParticle::~CSnowParticle
PUBLIC	?New@CSnowParticle@@SAPAV1@XZ			; CSnowParticle::New
PUBLIC	?Delete@CSnowParticle@@SAXPAV1@@Z		; CSnowParticle::Delete
PUBLIC	?DestroyPool@CSnowParticle@@SAXXZ		; CSnowParticle::DestroyPool
PUBLIC	?Init@CSnowParticle@@QAEXABUD3DXVECTOR3@@@Z	; CSnowParticle::Init
PUBLIC	?SetCameraVertex@CSnowParticle@@QAEXABUD3DXVECTOR3@@0@Z ; CSnowParticle::SetCameraVertex
PUBLIC	?IsActivate@CSnowParticle@@QAE_NXZ		; CSnowParticle::IsActivate
PUBLIC	?Update@CSnowParticle@@QAEXMABUD3DXVECTOR3@@@Z	; CSnowParticle::Update
PUBLIC	?GetVerticies@CSnowParticle@@QAEXAAUSParticleVertex@@000@Z ; CSnowParticle::GetVerticies
PUBLIC	?deallocate@?$allocator@PAVCSnowParticle@@@std@@QAEXQAPAVCSnowParticle@@I@Z ; std::allocator<CSnowParticle *>::deallocate
PUBLIC	??0?$vector@PAVCSnowParticle@@V?$allocator@PAVCSnowParticle@@@std@@@std@@QAE@XZ ; std::vector<CSnowParticle *,std::allocator<CSnowParticle *> >::vector<CSnowParticle *,std::allocator<CSnowParticle *> >
PUBLIC	?clear@?$vector@PAVCSnowParticle@@V?$allocator@PAVCSnowParticle@@@std@@@std@@QAEXXZ ; std::vector<CSnowParticle *,std::allocator<CSnowParticle *> >::clear
PUBLIC	?_Destroy@?$vector@PAVCSnowParticle@@V?$allocator@PAVCSnowParticle@@@std@@@std@@AAEXPAPAVCSnowParticle@@0@Z ; std::vector<CSnowParticle *,std::allocator<CSnowParticle *> >::_Destroy
PUBLIC	?_Calculate_growth@?$vector@PAVCSnowParticle@@V?$allocator@PAVCSnowParticle@@@std@@@std@@ABEII@Z ; std::vector<CSnowParticle *,std::allocator<CSnowParticle *> >::_Calculate_growth
PUBLIC	?_Change_array@?$vector@PAVCSnowParticle@@V?$allocator@PAVCSnowParticle@@@std@@@std@@AAEXQAPAVCSnowParticle@@II@Z ; std::vector<CSnowParticle *,std::allocator<CSnowParticle *> >::_Change_array
PUBLIC	?_Tidy@?$vector@PAVCSnowParticle@@V?$allocator@PAVCSnowParticle@@@std@@@std@@AAEXXZ ; std::vector<CSnowParticle *,std::allocator<CSnowParticle *> >::_Tidy
PUBLIC	?_Xlength@?$vector@PAVCSnowParticle@@V?$allocator@PAVCSnowParticle@@@std@@@std@@CAXXZ ; std::vector<CSnowParticle *,std::allocator<CSnowParticle *> >::_Xlength
PUBLIC	??$stl_wipe@V?$vector@PAVCSnowParticle@@V?$allocator@PAVCSnowParticle@@@std@@@std@@@@YAXAAV?$vector@PAVCSnowParticle@@V?$allocator@PAVCSnowParticle@@@std@@@std@@@Z ; stl_wipe<std::vector<CSnowParticle *,std::allocator<CSnowParticle *> > >
PUBLIC	??$emplace_back@ABQAVCSnowParticle@@@?$vector@PAVCSnowParticle@@V?$allocator@PAVCSnowParticle@@@std@@@std@@QAEXABQAVCSnowParticle@@@Z ; std::vector<CSnowParticle *,std::allocator<CSnowParticle *> >::emplace_back<CSnowParticle * const &>
PUBLIC	??$_Emplace_back_with_unused_capacity@ABQAVCSnowParticle@@@?$vector@PAVCSnowParticle@@V?$allocator@PAVCSnowParticle@@@std@@@std@@AAEXABQAVCSnowParticle@@@Z ; std::vector<CSnowParticle *,std::allocator<CSnowParticle *> >::_Emplace_back_with_unused_capacity<CSnowParticle * const &>
PUBLIC	??$_Emplace_reallocate@ABQAVCSnowParticle@@@?$vector@PAVCSnowParticle@@V?$allocator@PAVCSnowParticle@@@std@@@std@@QAEPAPAVCSnowParticle@@QAPAV2@ABQAV2@@Z ; std::vector<CSnowParticle *,std::allocator<CSnowParticle *> >::_Emplace_reallocate<CSnowParticle * const &>
PUBLIC	??$_Destroy_range@V?$allocator@PAVCSnowParticle@@@std@@@std@@YAXPAPAVCSnowParticle@@QAPAV1@AAV?$allocator@PAVCSnowParticle@@@0@@Z ; std::_Destroy_range<std::allocator<CSnowParticle *> >
PUBLIC	??$_Uninitialized_move@PAPAVCSnowParticle@@V?$allocator@PAVCSnowParticle@@@std@@@std@@YAPAPAVCSnowParticle@@QAPAV1@0PAPAV1@AAV?$allocator@PAVCSnowParticle@@@0@@Z ; std::_Uninitialized_move<CSnowParticle * *,std::allocator<CSnowParticle *> >
PUBLIC	??$_Copy_memmove@PAPAVCSnowParticle@@PAPAV1@@std@@YAPAPAVCSnowParticle@@PAPAV1@00@Z ; std::_Copy_memmove<CSnowParticle * *,CSnowParticle * *>
PUBLIC	??_7exception@std@@6B@				; std::exception::`vftable'
PUBLIC	??_C@_0BC@EOODALEL@Unknown?5exception@		; `string'
PUBLIC	??_7bad_alloc@std@@6B@				; std::bad_alloc::`vftable'
PUBLIC	??_7bad_array_new_length@std@@6B@		; std::bad_array_new_length::`vftable'
PUBLIC	??_C@_0BF@KINCDENJ@bad?5array?5new?5length@	; `string'
PUBLIC	__TI3?AVbad_array_new_length@std@@
PUBLIC	__CTA3?AVbad_array_new_length@std@@
PUBLIC	??_R0?AVbad_array_new_length@std@@@8		; std::bad_array_new_length `RTTI Type Descriptor'
PUBLIC	__CT??_R0?AVbad_array_new_length@std@@@8??0bad_array_new_length@std@@QAE@ABV01@@Z12
PUBLIC	??_R0?AVbad_alloc@std@@@8			; std::bad_alloc `RTTI Type Descriptor'
PUBLIC	__CT??_R0?AVbad_alloc@std@@@8??0bad_alloc@std@@QAE@ABV01@@Z12
PUBLIC	??_R0?AVexception@std@@@8			; std::exception `RTTI Type Descriptor'
PUBLIC	__CT??_R0?AVexception@std@@@8??0exception@std@@QAE@ABV01@@Z12
PUBLIC	??_R4exception@std@@6B@				; std::exception::`RTTI Complete Object Locator'
PUBLIC	??_R3exception@std@@8				; std::exception::`RTTI Class Hierarchy Descriptor'
PUBLIC	??_R2exception@std@@8				; std::exception::`RTTI Base Class Array'
PUBLIC	??_R1A@?0A@EA@exception@std@@8			; std::exception::`RTTI Base Class Descriptor at (0,-1,0,64)'
PUBLIC	??_R4bad_alloc@std@@6B@				; std::bad_alloc::`RTTI Complete Object Locator'
PUBLIC	??_R3bad_alloc@std@@8				; std::bad_alloc::`RTTI Class Hierarchy Descriptor'
PUBLIC	??_R2bad_alloc@std@@8				; std::bad_alloc::`RTTI Base Class Array'
PUBLIC	??_R1A@?0A@EA@bad_alloc@std@@8			; std::bad_alloc::`RTTI Base Class Descriptor at (0,-1,0,64)'
PUBLIC	??_R4bad_array_new_length@std@@6B@		; std::bad_array_new_length::`RTTI Complete Object Locator'
PUBLIC	??_R3bad_array_new_length@std@@8		; std::bad_array_new_length::`RTTI Class Hierarchy Descriptor'
PUBLIC	??_R2bad_array_new_length@std@@8		; std::bad_array_new_length::`RTTI Base Class Array'
PUBLIC	??_R1A@?0A@EA@bad_array_new_length@std@@8	; std::bad_array_new_length::`RTTI Base Class Descriptor at (0,-1,0,64)'
PUBLIC	?ms_kVct_SnowParticlePool@CSnowParticle@@2V?$vector@PAVCSnowParticle@@V?$allocator@PAVCSnowParticle@@@std@@@std@@A ; CSnowParticle::ms_kVct_SnowParticlePool
PUBLIC	??_C@_0BA@FOIKENOD@vector?5too?5long@		; `string'
PUBLIC	__real@3c8efa35
PUBLIC	__real@3f800000
PUBLIC	__real@3fc00000
PUBLIC	__real@3fcccccd
PUBLIC	__real@40000000
PUBLIC	__real@40400000
PUBLIC	__real@40a00000
PUBLIC	__real@40e00000
PUBLIC	__real@41200000
PUBLIC	__real@42c80000
PUBLIC	__real@43fa0000
PUBLIC	__real@44bb8000
PUBLIC	__real@44fa0000
PUBLIC	__real@470ca000
PUBLIC	__real@4788b800
PUBLIC	__real@bfcccccd
PUBLIC	__real@c2480000
PUBLIC	__real@c3480000
EXTRN	??2@YAPAXI@Z:PROC				; operator new
EXTRN	??3@YAXPAXI@Z:PROC				; operator delete
EXTRN	_atexit:PROC
EXTRN	__invalid_parameter_noinfo_noreturn:PROC
EXTRN	_memmove:PROC
EXTRN	_cos:PROC
EXTRN	_fabs:PROC
EXTRN	_sin:PROC
EXTRN	___std_exception_copy:PROC
EXTRN	___std_exception_destroy:PROC
EXTRN	??_Eexception@std@@UAEPAXI@Z:PROC		; std::exception::`vector deleting destructor'
EXTRN	??_Ebad_alloc@std@@UAEPAXI@Z:PROC		; std::bad_alloc::`vector deleting destructor'
EXTRN	??_Ebad_array_new_length@std@@UAEPAXI@Z:PROC	; std::bad_array_new_length::`vector deleting destructor'
EXTRN	?_Xlength_error@std@@YAXPBD@Z:PROC		; std::_Xlength_error
EXTRN	?frandom@@YAMMM@Z:PROC				; frandom
EXTRN	@__security_check_cookie@4:PROC
EXTRN	__CxxThrowException@8:PROC
EXTRN	___CxxFrameHandler3:PROC
EXTRN	??_7type_info@@6B@:QWORD			; type_info::`vftable'
EXTRN	___security_cookie:DWORD
EXTRN	__fltused:DWORD
_BSS	SEGMENT
?ms_kVct_SnowParticlePool@CSnowParticle@@2V?$vector@PAVCSnowParticle@@V?$allocator@PAVCSnowParticle@@@std@@@std@@A DB 0cH DUP (?) ; CSnowParticle::ms_kVct_SnowParticlePool
_BSS	ENDS
CRT$XCU	SEGMENT
??ms_kVct_SnowParticlePool$initializer$@CSnowParticle@@2P6AXXZA@@3P6AXXZA DD FLAT:??__E?ms_kVct_SnowParticlePool@CSnowParticle@@2V?$vector@PAVCSnowParticle@@V?$allocator@PAVCSnowParticle@@@std@@@std@@A@@YAXXZ ; ??ms_kVct_SnowParticlePool$initializer$@CSnowParticle@@2P6AXXZA@@3P6AXXZA
CRT$XCU	ENDS
;	COMDAT __real@c3480000
CONST	SEGMENT
__real@c3480000 DD 0c3480000r			; -200
CONST	ENDS
;	COMDAT __real@c2480000
CONST	SEGMENT
__real@c2480000 DD 0c2480000r			; -50
CONST	ENDS
;	COMDAT __real@bfcccccd
CONST	SEGMENT
__real@bfcccccd DD 0bfcccccdr			; -1.6
CONST	ENDS
;	COMDAT __real@4788b800
CONST	SEGMENT
__real@4788b800 DD 04788b800r			; 70000
CONST	ENDS
;	COMDAT __real@470ca000
CONST	SEGMENT
__real@470ca000 DD 0470ca000r			; 36000
CONST	ENDS
;	COMDAT __real@44fa0000
CONST	SEGMENT
__real@44fa0000 DD 044fa0000r			; 2000
CONST	ENDS
;	COMDAT __real@44bb8000
CONST	SEGMENT
__real@44bb8000 DD 044bb8000r			; 1500
CONST	ENDS
;	COMDAT __real@43fa0000
CONST	SEGMENT
__real@43fa0000 DD 043fa0000r			; 500
CONST	ENDS
;	COMDAT __real@42c80000
CONST	SEGMENT
__real@42c80000 DD 042c80000r			; 100
CONST	ENDS
;	COMDAT __real@41200000
CONST	SEGMENT
__real@41200000 DD 041200000r			; 10
CONST	ENDS
;	COMDAT __real@40e00000
CONST	SEGMENT
__real@40e00000 DD 040e00000r			; 7
CONST	ENDS
;	COMDAT __real@40a00000
CONST	SEGMENT
__real@40a00000 DD 040a00000r			; 5
CONST	ENDS
;	COMDAT __real@40400000
CONST	SEGMENT
__real@40400000 DD 040400000r			; 3
CONST	ENDS
;	COMDAT __real@40000000
CONST	SEGMENT
__real@40000000 DD 040000000r			; 2
CONST	ENDS
;	COMDAT __real@3fcccccd
CONST	SEGMENT
__real@3fcccccd DD 03fcccccdr			; 1.6
CONST	ENDS
;	COMDAT __real@3fc00000
CONST	SEGMENT
__real@3fc00000 DD 03fc00000r			; 1.5
CONST	ENDS
;	COMDAT __real@3f800000
CONST	SEGMENT
__real@3f800000 DD 03f800000r			; 1
CONST	ENDS
;	COMDAT __real@3c8efa35
CONST	SEGMENT
__real@3c8efa35 DD 03c8efa35r			; 0.0174533
CONST	ENDS
;	COMDAT ??_C@_0BA@FOIKENOD@vector?5too?5long@
CONST	SEGMENT
??_C@_0BA@FOIKENOD@vector?5too?5long@ DB 'vector too long', 00H ; `string'
CONST	ENDS
;	COMDAT ??_R1A@?0A@EA@bad_array_new_length@std@@8
rdata$r	SEGMENT
??_R1A@?0A@EA@bad_array_new_length@std@@8 DD FLAT:??_R0?AVbad_array_new_length@std@@@8 ; std::bad_array_new_length::`RTTI Base Class Descriptor at (0,-1,0,64)'
	DD	02H
	DD	00H
	DD	0ffffffffH
	DD	00H
	DD	040H
	DD	FLAT:??_R3bad_array_new_length@std@@8
rdata$r	ENDS
;	COMDAT ??_R2bad_array_new_length@std@@8
rdata$r	SEGMENT
??_R2bad_array_new_length@std@@8 DD FLAT:??_R1A@?0A@EA@bad_array_new_length@std@@8 ; std::bad_array_new_length::`RTTI Base Class Array'
	DD	FLAT:??_R1A@?0A@EA@bad_alloc@std@@8
	DD	FLAT:??_R1A@?0A@EA@exception@std@@8
rdata$r	ENDS
;	COMDAT ??_R3bad_array_new_length@std@@8
rdata$r	SEGMENT
??_R3bad_array_new_length@std@@8 DD 00H			; std::bad_array_new_length::`RTTI Class Hierarchy Descriptor'
	DD	00H
	DD	03H
	DD	FLAT:??_R2bad_array_new_length@std@@8
rdata$r	ENDS
;	COMDAT ??_R4bad_array_new_length@std@@6B@
rdata$r	SEGMENT
??_R4bad_array_new_length@std@@6B@ DD 00H		; std::bad_array_new_length::`RTTI Complete Object Locator'
	DD	00H
	DD	00H
	DD	FLAT:??_R0?AVbad_array_new_length@std@@@8
	DD	FLAT:??_R3bad_array_new_length@std@@8
rdata$r	ENDS
;	COMDAT ??_R1A@?0A@EA@bad_alloc@std@@8
rdata$r	SEGMENT
??_R1A@?0A@EA@bad_alloc@std@@8 DD FLAT:??_R0?AVbad_alloc@std@@@8 ; std::bad_alloc::`RTTI Base Class Descriptor at (0,-1,0,64)'
	DD	01H
	DD	00H
	DD	0ffffffffH
	DD	00H
	DD	040H
	DD	FLAT:??_R3bad_alloc@std@@8
rdata$r	ENDS
;	COMDAT ??_R2bad_alloc@std@@8
rdata$r	SEGMENT
??_R2bad_alloc@std@@8 DD FLAT:??_R1A@?0A@EA@bad_alloc@std@@8 ; std::bad_alloc::`RTTI Base Class Array'
	DD	FLAT:??_R1A@?0A@EA@exception@std@@8
rdata$r	ENDS
;	COMDAT ??_R3bad_alloc@std@@8
rdata$r	SEGMENT
??_R3bad_alloc@std@@8 DD 00H				; std::bad_alloc::`RTTI Class Hierarchy Descriptor'
	DD	00H
	DD	02H
	DD	FLAT:??_R2bad_alloc@std@@8
rdata$r	ENDS
;	COMDAT ??_R4bad_alloc@std@@6B@
rdata$r	SEGMENT
??_R4bad_alloc@std@@6B@ DD 00H				; std::bad_alloc::`RTTI Complete Object Locator'
	DD	00H
	DD	00H
	DD	FLAT:??_R0?AVbad_alloc@std@@@8
	DD	FLAT:??_R3bad_alloc@std@@8
rdata$r	ENDS
;	COMDAT ??_R1A@?0A@EA@exception@std@@8
rdata$r	SEGMENT
??_R1A@?0A@EA@exception@std@@8 DD FLAT:??_R0?AVexception@std@@@8 ; std::exception::`RTTI Base Class Descriptor at (0,-1,0,64)'
	DD	00H
	DD	00H
	DD	0ffffffffH
	DD	00H
	DD	040H
	DD	FLAT:??_R3exception@std@@8
rdata$r	ENDS
;	COMDAT ??_R2exception@std@@8
rdata$r	SEGMENT
??_R2exception@std@@8 DD FLAT:??_R1A@?0A@EA@exception@std@@8 ; std::exception::`RTTI Base Class Array'
rdata$r	ENDS
;	COMDAT ??_R3exception@std@@8
rdata$r	SEGMENT
??_R3exception@std@@8 DD 00H				; std::exception::`RTTI Class Hierarchy Descriptor'
	DD	00H
	DD	01H
	DD	FLAT:??_R2exception@std@@8
rdata$r	ENDS
;	COMDAT ??_R4exception@std@@6B@
rdata$r	SEGMENT
??_R4exception@std@@6B@ DD 00H				; std::exception::`RTTI Complete Object Locator'
	DD	00H
	DD	00H
	DD	FLAT:??_R0?AVexception@std@@@8
	DD	FLAT:??_R3exception@std@@8
rdata$r	ENDS
;	COMDAT __CT??_R0?AVexception@std@@@8??0exception@std@@QAE@ABV01@@Z12
xdata$x	SEGMENT
__CT??_R0?AVexception@std@@@8??0exception@std@@QAE@ABV01@@Z12 DD 00H
	DD	FLAT:??_R0?AVexception@std@@@8
	DD	00H
	DD	0ffffffffH
	ORG $+4
	DD	0cH
	DD	FLAT:??0exception@std@@QAE@ABV01@@Z
xdata$x	ENDS
;	COMDAT ??_R0?AVexception@std@@@8
data$r	SEGMENT
??_R0?AVexception@std@@@8 DD FLAT:??_7type_info@@6B@	; std::exception `RTTI Type Descriptor'
	DD	00H
	DB	'.?AVexception@std@@', 00H
data$r	ENDS
;	COMDAT __CT??_R0?AVbad_alloc@std@@@8??0bad_alloc@std@@QAE@ABV01@@Z12
xdata$x	SEGMENT
__CT??_R0?AVbad_alloc@std@@@8??0bad_alloc@std@@QAE@ABV01@@Z12 DD 010H
	DD	FLAT:??_R0?AVbad_alloc@std@@@8
	DD	00H
	DD	0ffffffffH
	ORG $+4
	DD	0cH
	DD	FLAT:??0bad_alloc@std@@QAE@ABV01@@Z
xdata$x	ENDS
;	COMDAT ??_R0?AVbad_alloc@std@@@8
data$r	SEGMENT
??_R0?AVbad_alloc@std@@@8 DD FLAT:??_7type_info@@6B@	; std::bad_alloc `RTTI Type Descriptor'
	DD	00H
	DB	'.?AVbad_alloc@std@@', 00H
data$r	ENDS
;	COMDAT __CT??_R0?AVbad_array_new_length@std@@@8??0bad_array_new_length@std@@QAE@ABV01@@Z12
xdata$x	SEGMENT
__CT??_R0?AVbad_array_new_length@std@@@8??0bad_array_new_length@std@@QAE@ABV01@@Z12 DD 00H
	DD	FLAT:??_R0?AVbad_array_new_length@std@@@8
	DD	00H
	DD	0ffffffffH
	ORG $+4
	DD	0cH
	DD	FLAT:??0bad_array_new_length@std@@QAE@ABV01@@Z
xdata$x	ENDS
;	COMDAT ??_R0?AVbad_array_new_length@std@@@8
data$r	SEGMENT
??_R0?AVbad_array_new_length@std@@@8 DD FLAT:??_7type_info@@6B@ ; std::bad_array_new_length `RTTI Type Descriptor'
	DD	00H
	DB	'.?AVbad_array_new_length@std@@', 00H
data$r	ENDS
;	COMDAT __CTA3?AVbad_array_new_length@std@@
xdata$x	SEGMENT
__CTA3?AVbad_array_new_length@std@@ DD 03H
	DD	FLAT:__CT??_R0?AVbad_array_new_length@std@@@8??0bad_array_new_length@std@@QAE@ABV01@@Z12
	DD	FLAT:__CT??_R0?AVbad_alloc@std@@@8??0bad_alloc@std@@QAE@ABV01@@Z12
	DD	FLAT:__CT??_R0?AVexception@std@@@8??0exception@std@@QAE@ABV01@@Z12
xdata$x	ENDS
;	COMDAT __TI3?AVbad_array_new_length@std@@
xdata$x	SEGMENT
__TI3?AVbad_array_new_length@std@@ DD 00H
	DD	FLAT:??1bad_array_new_length@std@@UAE@XZ
	DD	00H
	DD	FLAT:__CTA3?AVbad_array_new_length@std@@
xdata$x	ENDS
;	COMDAT ??_C@_0BF@KINCDENJ@bad?5array?5new?5length@
CONST	SEGMENT
??_C@_0BF@KINCDENJ@bad?5array?5new?5length@ DB 'bad array new length', 00H ; `string'
CONST	ENDS
;	COMDAT ??_7bad_array_new_length@std@@6B@
CONST	SEGMENT
??_7bad_array_new_length@std@@6B@ DD FLAT:??_R4bad_array_new_length@std@@6B@ ; std::bad_array_new_length::`vftable'
	DD	FLAT:??_Ebad_array_new_length@std@@UAEPAXI@Z
	DD	FLAT:?what@exception@std@@UBEPBDXZ
CONST	ENDS
;	COMDAT ??_7bad_alloc@std@@6B@
CONST	SEGMENT
??_7bad_alloc@std@@6B@ DD FLAT:??_R4bad_alloc@std@@6B@	; std::bad_alloc::`vftable'
	DD	FLAT:??_Ebad_alloc@std@@UAEPAXI@Z
	DD	FLAT:?what@exception@std@@UBEPBDXZ
CONST	ENDS
;	COMDAT ??_C@_0BC@EOODALEL@Unknown?5exception@
CONST	SEGMENT
??_C@_0BC@EOODALEL@Unknown?5exception@ DB 'Unknown exception', 00H ; `string'
CONST	ENDS
;	COMDAT ??_7exception@std@@6B@
CONST	SEGMENT
??_7exception@std@@6B@ DD FLAT:??_R4exception@std@@6B@	; std::exception::`vftable'
	DD	FLAT:??_Eexception@std@@UAEPAXI@Z
	DD	FLAT:?what@exception@std@@UBEPBDXZ
CONST	ENDS
;	COMDAT xdata$x
xdata$x	SEGMENT
__catchsym$??$_Emplace_reallocate@ABQAVCSnowParticle@@@?$vector@PAVCSnowParticle@@V?$allocator@PAVCSnowParticle@@@std@@@std@@QAEPAPAVCSnowParticle@@QAPAV2@ABQAV2@@Z$32 DD 040H
	DD	00H
	DD	00H
	DD	FLAT:__catch$??$_Emplace_reallocate@ABQAVCSnowParticle@@@?$vector@PAVCSnowParticle@@V?$allocator@PAVCSnowParticle@@@std@@@std@@QAEPAPAVCSnowParticle@@QAPAV2@ABQAV2@@Z$0
__unwindtable$??$_Emplace_reallocate@ABQAVCSnowParticle@@@?$vector@PAVCSnowParticle@@V?$allocator@PAVCSnowParticle@@@std@@@std@@QAEPAPAVCSnowParticle@@QAPAV2@ABQAV2@@Z DD 0ffffffffH
	DD	00H
	DD	0ffffffffH
	DD	00H
__tryblocktable$??$_Emplace_reallocate@ABQAVCSnowParticle@@@?$vector@PAVCSnowParticle@@V?$allocator@PAVCSnowParticle@@@std@@@std@@QAEPAPAVCSnowParticle@@QAPAV2@ABQAV2@@Z DD 00H
	DD	00H
	DD	01H
	DD	01H
	DD	FLAT:__catchsym$??$_Emplace_reallocate@ABQAVCSnowParticle@@@?$vector@PAVCSnowParticle@@V?$allocator@PAVCSnowParticle@@@std@@@std@@QAEPAPAVCSnowParticle@@QAPAV2@ABQAV2@@Z$32
__ehfuncinfo$??$_Emplace_reallocate@ABQAVCSnowParticle@@@?$vector@PAVCSnowParticle@@V?$allocator@PAVCSnowParticle@@@std@@@std@@QAEPAPAVCSnowParticle@@QAPAV2@ABQAV2@@Z DD 019930522H
	DD	02H
	DD	FLAT:__unwindtable$??$_Emplace_reallocate@ABQAVCSnowParticle@@@?$vector@PAVCSnowParticle@@V?$allocator@PAVCSnowParticle@@@std@@@std@@QAEPAPAVCSnowParticle@@QAPAV2@ABQAV2@@Z
	DD	01H
	DD	FLAT:__tryblocktable$??$_Emplace_reallocate@ABQAVCSnowParticle@@@?$vector@PAVCSnowParticle@@V?$allocator@PAVCSnowParticle@@@std@@@std@@QAEPAPAVCSnowParticle@@QAPAV2@ABQAV2@@Z
	DD	2 DUP(00H)
	DD	00H
	DD	01H
xdata$x	ENDS
;	COMDAT xdata$x
xdata$x	SEGMENT
__unwindtable$?New@CSnowParticle@@SAPAV1@XZ DD 0ffffffffH
	DD	FLAT:__unwindfunclet$?New@CSnowParticle@@SAPAV1@XZ$0
__ehfuncinfo$?New@CSnowParticle@@SAPAV1@XZ DD 019930522H
	DD	01H
	DD	FLAT:__unwindtable$?New@CSnowParticle@@SAPAV1@XZ
	DD	2 DUP(00H)
	DD	2 DUP(00H)
	DD	00H
	DD	01H
xdata$x	ENDS
;	COMDAT xdata$x
xdata$x	SEGMENT
__ehfuncinfo$??$_Deallocate@$07$0A@@std@@YAXPAXI@Z DD 019930522H
	DD	00H
	DD	00H
	DD	2 DUP(00H)
	DD	2 DUP(00H)
	DD	00H
	DD	05H
xdata$x	ENDS
; Function compile flags: /Odspy
; File C:\Program Files (x86)\Microsoft Visual Studio\2019\Community\VC\Tools\MSVC\14.28.29333\include\xutility
;	COMDAT ??$_Copy_memmove@PAPAVCSnowParticle@@PAPAV1@@std@@YAPAPAVCSnowParticle@@PAPAV1@00@Z
_TEXT	SEGMENT
__Last_ch$ = -16					; size = 4
__Count$ = -12						; size = 4
__Dest_ch$ = -8						; size = 4
__First_ch$ = -4					; size = 4
__First$ = 8						; size = 4
__Last$ = 12						; size = 4
__Dest$ = 16						; size = 4
??$_Copy_memmove@PAPAVCSnowParticle@@PAPAV1@@std@@YAPAPAVCSnowParticle@@PAPAV1@00@Z PROC ; std::_Copy_memmove<CSnowParticle * *,CSnowParticle * *>, COMDAT

; 4360 : _OutIt _Copy_memmove(_InIt _First, _InIt _Last, _OutIt _Dest) {

  00000	55		 push	 ebp
  00001	8b ec		 mov	 ebp, esp
  00003	83 ec 10	 sub	 esp, 16			; 00000010H

; 4361 :     const char* const _First_ch = const_cast<const char*>(reinterpret_cast<const volatile char*>(_First));

  00006	8b 45 08	 mov	 eax, DWORD PTR __First$[ebp]
  00009	89 45 fc	 mov	 DWORD PTR __First_ch$[ebp], eax

; 4362 :     const char* const _Last_ch  = const_cast<const char*>(reinterpret_cast<const volatile char*>(_Last));

  0000c	8b 45 0c	 mov	 eax, DWORD PTR __Last$[ebp]
  0000f	89 45 f0	 mov	 DWORD PTR __Last_ch$[ebp], eax

; 4363 :     char* const _Dest_ch        = const_cast<char*>(reinterpret_cast<volatile char*>(_Dest));

  00012	8b 45 10	 mov	 eax, DWORD PTR __Dest$[ebp]
  00015	89 45 f8	 mov	 DWORD PTR __Dest_ch$[ebp], eax

; 4364 :     const auto _Count           = static_cast<size_t>(_Last_ch - _First_ch);

  00018	8b 45 f0	 mov	 eax, DWORD PTR __Last_ch$[ebp]
  0001b	2b 45 fc	 sub	 eax, DWORD PTR __First_ch$[ebp]
  0001e	89 45 f4	 mov	 DWORD PTR __Count$[ebp], eax

; 4365 :     _CSTD memmove(_Dest_ch, _First_ch, _Count);

  00021	ff 75 f4	 push	 DWORD PTR __Count$[ebp]
  00024	ff 75 fc	 push	 DWORD PTR __First_ch$[ebp]
  00027	ff 75 f8	 push	 DWORD PTR __Dest_ch$[ebp]
  0002a	e8 00 00 00 00	 call	 _memmove
  0002f	83 c4 0c	 add	 esp, 12			; 0000000cH

; 4366 :     return reinterpret_cast<_OutIt>(_Dest_ch + _Count);

  00032	8b 45 f8	 mov	 eax, DWORD PTR __Dest_ch$[ebp]
  00035	03 45 f4	 add	 eax, DWORD PTR __Count$[ebp]

; 4367 : }

  00038	c9		 leave
  00039	c3		 ret	 0
??$_Copy_memmove@PAPAVCSnowParticle@@PAPAV1@@std@@YAPAPAVCSnowParticle@@PAPAV1@00@Z ENDP ; std::_Copy_memmove<CSnowParticle * *,CSnowParticle * *>
_TEXT	ENDS
; Function compile flags: /Odspy
; File C:\Program Files (x86)\Microsoft Visual Studio\2019\Community\VC\Tools\MSVC\14.28.29333\include\xmemory
; File C:\Program Files (x86)\Microsoft Visual Studio\2019\Community\VC\Tools\MSVC\14.28.29333\include\xstddef
; File C:\Program Files (x86)\Microsoft Visual Studio\2019\Community\VC\Tools\MSVC\14.28.29333\include\xmemory
;	COMDAT ??$_Uninitialized_move@PAPAVCSnowParticle@@V?$allocator@PAVCSnowParticle@@@std@@@std@@YAPAPAVCSnowParticle@@QAPAV1@0PAPAV1@AAV?$allocator@PAVCSnowParticle@@@0@@Z
_TEXT	SEGMENT
$T1 = -12						; size = 4
__UFirst$ = -8						; size = 4
__ULast$ = -4						; size = 4
__First$ = 8						; size = 4
__Last$ = 12						; size = 4
__Dest$ = 16						; size = 4
__Al$ = 20						; size = 4
??$_Uninitialized_move@PAPAVCSnowParticle@@V?$allocator@PAVCSnowParticle@@@std@@@std@@YAPAPAVCSnowParticle@@QAPAV1@0PAPAV1@AAV?$allocator@PAVCSnowParticle@@@0@@Z PROC ; std::_Uninitialized_move<CSnowParticle * *,std::allocator<CSnowParticle *> >, COMDAT

; 1685 :     const _InIt _First, const _InIt _Last, _Alloc_ptr_t<_Alloc> _Dest, _Alloc& _Al) {

  00000	55		 push	 ebp
  00001	8b ec		 mov	 ebp, esp
  00003	83 ec 0c	 sub	 esp, 12			; 0000000cH

; 1686 :     // move [_First, _Last) to raw _Dest, using _Al
; 1687 :     // note: only called internally from elsewhere in the STL
; 1688 :     using _Ptrval     = typename _Alloc::value_type*;
; 1689 :     auto _UFirst      = _Get_unwrapped(_First);

  00006	8b 45 08	 mov	 eax, DWORD PTR __First$[ebp]
  00009	89 45 f8	 mov	 DWORD PTR __UFirst$[ebp], eax

; 1690 :     const auto _ULast = _Get_unwrapped(_Last);

  0000c	8b 45 0c	 mov	 eax, DWORD PTR __Last$[ebp]
  0000f	89 45 fc	 mov	 DWORD PTR __ULast$[ebp], eax
; File C:\Program Files (x86)\Microsoft Visual Studio\2019\Community\VC\Tools\MSVC\14.28.29333\include\xstddef

; 289  :     return _Ptr;

  00012	8b 45 10	 mov	 eax, DWORD PTR __Dest$[ebp]
  00015	89 45 f4	 mov	 DWORD PTR $T1[ebp], eax
; File C:\Program Files (x86)\Microsoft Visual Studio\2019\Community\VC\Tools\MSVC\14.28.29333\include\xmemory

; 1693 :         _Copy_memmove(_UFirst, _ULast, _Unfancy(_Dest));

  00018	ff 75 f4	 push	 DWORD PTR $T1[ebp]
  0001b	ff 75 fc	 push	 DWORD PTR __ULast$[ebp]
  0001e	ff 75 f8	 push	 DWORD PTR __UFirst$[ebp]
  00021	e8 00 00 00 00	 call	 ??$_Copy_memmove@PAPAVCSnowParticle@@PAPAV1@@std@@YAPAPAVCSnowParticle@@PAPAV1@00@Z ; std::_Copy_memmove<CSnowParticle * *,CSnowParticle * *>
  00026	83 c4 0c	 add	 esp, 12			; 0000000cH

; 1694 :         return _Dest + (_ULast - _UFirst);

  00029	8b 45 fc	 mov	 eax, DWORD PTR __ULast$[ebp]
  0002c	2b 45 f8	 sub	 eax, DWORD PTR __UFirst$[ebp]
  0002f	c1 f8 02	 sar	 eax, 2
  00032	8b 4d 10	 mov	 ecx, DWORD PTR __Dest$[ebp]
  00035	8d 04 81	 lea	 eax, DWORD PTR [ecx+eax*4]

; 1695 :     } else {
; 1696 :         _Uninitialized_backout_al<_Alloc> _Backout{_Dest, _Al};
; 1697 :         for (; _UFirst != _ULast; ++_UFirst) {
; 1698 :             _Backout._Emplace_back(_STD move(*_UFirst));
; 1699 :         }
; 1700 : 
; 1701 :         return _Backout._Release();
; 1702 :     }
; 1703 : }

  00038	c9		 leave
  00039	c3		 ret	 0
??$_Uninitialized_move@PAPAVCSnowParticle@@V?$allocator@PAVCSnowParticle@@@std@@@std@@YAPAPAVCSnowParticle@@QAPAV1@0PAPAV1@AAV?$allocator@PAVCSnowParticle@@@0@@Z ENDP ; std::_Uninitialized_move<CSnowParticle * *,std::allocator<CSnowParticle *> >
_TEXT	ENDS
; Function compile flags: /Odspy
; File C:\Program Files (x86)\Microsoft Visual Studio\2019\Community\VC\Tools\MSVC\14.28.29333\include\xmemory
;	COMDAT ??$_Destroy_range@V?$allocator@PAVCSnowParticle@@@std@@@std@@YAXPAPAVCSnowParticle@@QAPAV1@AAV?$allocator@PAVCSnowParticle@@@0@@Z
_TEXT	SEGMENT
__First$ = 8						; size = 4
__Last$ = 12						; size = 4
__Al$ = 16						; size = 4
??$_Destroy_range@V?$allocator@PAVCSnowParticle@@@std@@@std@@YAXPAPAVCSnowParticle@@QAPAV1@AAV?$allocator@PAVCSnowParticle@@@0@@Z PROC ; std::_Destroy_range<std::allocator<CSnowParticle *> >, COMDAT

; 962  :     _Alloc_ptr_t<_Alloc> _First, const _Alloc_ptr_t<_Alloc> _Last, _Alloc& _Al) noexcept {

  00000	55		 push	 ebp
  00001	8b ec		 mov	 ebp, esp

; 963  :     // note that this is an optimization for debug mode codegen; in release mode the BE removes all of this
; 964  :     using _Ty = typename _Alloc::value_type;
; 965  :     if _CONSTEXPR_IF (!conjunction_v<is_trivially_destructible<_Ty>, _Uses_default_destroy<_Alloc, _Ty*>>) {
; 966  :         for (; _First != _Last; ++_First) {
; 967  :             allocator_traits<_Alloc>::destroy(_Al, _Unfancy(_First));
; 968  :         }
; 969  :     }
; 970  : }

  00003	5d		 pop	 ebp
  00004	c3		 ret	 0
??$_Destroy_range@V?$allocator@PAVCSnowParticle@@@std@@@std@@YAXPAPAVCSnowParticle@@QAPAV1@AAV?$allocator@PAVCSnowParticle@@@0@@Z ENDP ; std::_Destroy_range<std::allocator<CSnowParticle *> >
_TEXT	ENDS
; Function compile flags: /Odspy
; File C:\Program Files (x86)\Microsoft Visual Studio\2019\Community\VC\Tools\MSVC\14.28.29333\include\vector
; File C:\Program Files (x86)\Microsoft Visual Studio\2019\Community\VC\Tools\MSVC\14.28.29333\include\xmemory
; File C:\Program Files (x86)\Microsoft Visual Studio\2019\Community\VC\Tools\MSVC\14.28.29333\include\vector
; File C:\Program Files (x86)\Microsoft Visual Studio\2019\Community\VC\Tools\MSVC\14.28.29333\include\xmemory
; File C:\Program Files (x86)\Microsoft Visual Studio\2019\Community\VC\Tools\MSVC\14.28.29333\include\vector
; File C:\Program Files (x86)\Microsoft Visual Studio\2019\Community\VC\Tools\MSVC\14.28.29333\include\xmemory
; File C:\Program Files (x86)\Microsoft Visual Studio\2019\Community\VC\Tools\MSVC\14.28.29333\include\limits
; File C:\Program Files (x86)\Microsoft Visual Studio\2019\Community\VC\Tools\MSVC\14.28.29333\include\vector
; File C:\Program Files (x86)\Microsoft Visual Studio\2019\Community\VC\Tools\MSVC\14.28.29333\include\utility
; File C:\Program Files (x86)\Microsoft Visual Studio\2019\Community\VC\Tools\MSVC\14.28.29333\include\vector
; File C:\Program Files (x86)\Microsoft Visual Studio\2019\Community\VC\Tools\MSVC\14.28.29333\include\xmemory
; File C:\Program Files (x86)\Microsoft Visual Studio\2019\Community\VC\Tools\MSVC\14.28.29333\include\vector
; File C:\Program Files (x86)\Microsoft Visual Studio\2019\Community\VC\Tools\MSVC\14.28.29333\include\type_traits
; File C:\Program Files (x86)\Microsoft Visual Studio\2019\Community\VC\Tools\MSVC\14.28.29333\include\vector
; File C:\Program Files (x86)\Microsoft Visual Studio\2019\Community\VC\Tools\MSVC\14.28.29333\include\xstddef
; File C:\Program Files (x86)\Microsoft Visual Studio\2019\Community\VC\Tools\MSVC\14.28.29333\include\vcruntime_new.h
; File C:\Program Files (x86)\Microsoft Visual Studio\2019\Community\VC\Tools\MSVC\14.28.29333\include\type_traits
; File C:\Program Files (x86)\Microsoft Visual Studio\2019\Community\VC\Tools\MSVC\14.28.29333\include\xmemory
; File C:\Program Files (x86)\Microsoft Visual Studio\2019\Community\VC\Tools\MSVC\14.28.29333\include\vector
; File C:\Program Files (x86)\Microsoft Visual Studio\2019\Community\VC\Tools\MSVC\14.28.29333\include\xmemory
; File C:\Program Files (x86)\Microsoft Visual Studio\2019\Community\VC\Tools\MSVC\14.28.29333\include\vector
; File C:\Program Files (x86)\Microsoft Visual Studio\2019\Community\VC\Tools\MSVC\14.28.29333\include\xmemory
; File C:\Program Files (x86)\Microsoft Visual Studio\2019\Community\VC\Tools\MSVC\14.28.29333\include\vector
; File C:\Program Files (x86)\Microsoft Visual Studio\2019\Community\VC\Tools\MSVC\14.28.29333\include\xmemory
; File C:\Program Files (x86)\Microsoft Visual Studio\2019\Community\VC\Tools\MSVC\14.28.29333\include\vector
;	COMDAT ??$_Emplace_reallocate@ABQAVCSnowParticle@@@?$vector@PAVCSnowParticle@@V?$allocator@PAVCSnowParticle@@@std@@@std@@QAEPAPAVCSnowParticle@@QAPAV2@ABQAV2@@Z
_TEXT	SEGMENT
__Max_possible$2 = -68					; size = 4
$T3 = -64						; size = 4
__Al$ = -60						; size = 4
__Last$ = -56						; size = 4
$T4 = -52						; size = 4
$T5 = -48						; size = 4
__First$ = -44						; size = 4
$T6 = -40						; size = 4
$T7 = -36						; size = 4
__First$ = -32						; size = 4
__Last$ = -28						; size = 4
$T8 = -24						; size = 4
$T9 = -20						; size = 4
__$EHRec$ = -16						; size = 16
$T10 = 0						; size = 4
$T11 = 4						; size = 4
$T12 = 8						; size = 4
$T13 = 12						; size = 4
$T14 = 16						; size = 4
$T15 = 20						; size = 4
$T16 = 24						; size = 4
$T17 = 28						; size = 4
$T18 = 32						; size = 4
$T19 = 36						; size = 4
$T20 = 40						; size = 4
__Newsize$ = 44						; size = 4
__Constructed_last$ = 48				; size = 4
__Oldsize$ = 52						; size = 4
tv172 = 56						; size = 4
$T21 = 60						; size = 4
$T22 = 64						; size = 4
__My_data$ = 68						; size = 4
__Constructed_first$ = 72				; size = 4
___formal$ = 76						; size = 1
__Overflow_is_possible$23 = 83				; size = 1
__Newcapacity$ = 84					; size = 4
__Mylast$ = 88						; size = 4
__Myfirst$ = 92						; size = 4
__Whereoff$ = 96					; size = 4
$T24 = 103						; size = 1
_this$ = 104						; size = 4
__Newvec$ = 108						; size = 4
__Whereptr$ = 120					; size = 4
_<_Val_0>$ = 124					; size = 4
??$_Emplace_reallocate@ABQAVCSnowParticle@@@?$vector@PAVCSnowParticle@@V?$allocator@PAVCSnowParticle@@@std@@@std@@QAEPAPAVCSnowParticle@@QAPAV2@ABQAV2@@Z PROC ; std::vector<CSnowParticle *,std::allocator<CSnowParticle *> >::_Emplace_reallocate<CSnowParticle * const &>, COMDAT
; _this$ = ecx

; 725  :     pointer _Emplace_reallocate(const pointer _Whereptr, _Valty&&... _Val) {

  00000	55		 push	 ebp
  00001	8d 6c 24 90	 lea	 ebp, DWORD PTR [esp-112]
  00005	83 ec 70	 sub	 esp, 112		; 00000070H
  00008	6a ff		 push	 -1
  0000a	68 00 00 00 00	 push	 __ehhandler$??$_Emplace_reallocate@ABQAVCSnowParticle@@@?$vector@PAVCSnowParticle@@V?$allocator@PAVCSnowParticle@@@std@@@std@@QAEPAPAVCSnowParticle@@QAPAV2@ABQAV2@@Z
  0000f	64 a1 00 00 00
	00		 mov	 eax, DWORD PTR fs:0
  00015	50		 push	 eax
  00016	51		 push	 ecx
  00017	83 ec 34	 sub	 esp, 52			; 00000034H
  0001a	53		 push	 ebx
  0001b	56		 push	 esi
  0001c	57		 push	 edi
  0001d	a1 00 00 00 00	 mov	 eax, DWORD PTR ___security_cookie
  00022	33 c5		 xor	 eax, ebp
  00024	50		 push	 eax
  00025	8d 45 f4	 lea	 eax, DWORD PTR __$EHRec$[ebp+4]
  00028	64 a3 00 00 00
	00		 mov	 DWORD PTR fs:0, eax
  0002e	89 65 f0	 mov	 DWORD PTR __$EHRec$[ebp], esp
  00031	89 4d 68	 mov	 DWORD PTR _this$[ebp], ecx

; 1733 :         return _Mypair._Get_first();

  00034	8b 45 68	 mov	 eax, DWORD PTR _this$[ebp]
; File C:\Program Files (x86)\Microsoft Visual Studio\2019\Community\VC\Tools\MSVC\14.28.29333\include\xmemory

; 1347 :         return *this;

  00037	89 45 28	 mov	 DWORD PTR $T20[ebp], eax
; File C:\Program Files (x86)\Microsoft Visual Studio\2019\Community\VC\Tools\MSVC\14.28.29333\include\vector

; 1733 :         return _Mypair._Get_first();

  0003a	8b 45 28	 mov	 eax, DWORD PTR $T20[ebp]
  0003d	89 45 c4	 mov	 DWORD PTR __Al$[ebp], eax

; 726  :         // reallocate and insert by perfectly forwarding _Val at _Whereptr
; 727  :         _Alty& _Al        = _Getal();
; 728  :         auto& _My_data    = _Mypair._Myval2;

  00040	8b 45 68	 mov	 eax, DWORD PTR _this$[ebp]
  00043	89 45 44	 mov	 DWORD PTR __My_data$[ebp], eax

; 729  :         pointer& _Myfirst = _My_data._Myfirst;

  00046	8b 45 44	 mov	 eax, DWORD PTR __My_data$[ebp]
  00049	89 45 5c	 mov	 DWORD PTR __Myfirst$[ebp], eax

; 730  :         pointer& _Mylast  = _My_data._Mylast;

  0004c	8b 45 44	 mov	 eax, DWORD PTR __My_data$[ebp]
  0004f	83 c0 04	 add	 eax, 4
  00052	89 45 58	 mov	 DWORD PTR __Mylast$[ebp], eax

; 731  : 
; 732  :         _STL_INTERNAL_CHECK(_Mylast == _My_data._Myend); // check that we have no unused capacity
; 733  : 
; 734  :         const auto _Whereoff = static_cast<size_type>(_Whereptr - _Myfirst);

  00055	8b 45 5c	 mov	 eax, DWORD PTR __Myfirst$[ebp]
  00058	8b 4d 78	 mov	 ecx, DWORD PTR __Whereptr$[ebp]
  0005b	2b 08		 sub	 ecx, DWORD PTR [eax]
  0005d	c1 f9 02	 sar	 ecx, 2
  00060	89 4d 60	 mov	 DWORD PTR __Whereoff$[ebp], ecx

; 735  :         const auto _Oldsize  = static_cast<size_type>(_Mylast - _Myfirst);

  00063	8b 45 58	 mov	 eax, DWORD PTR __Mylast$[ebp]
  00066	8b 4d 5c	 mov	 ecx, DWORD PTR __Myfirst$[ebp]
  00069	8b 00		 mov	 eax, DWORD PTR [eax]
  0006b	2b 01		 sub	 eax, DWORD PTR [ecx]
  0006d	c1 f8 02	 sar	 eax, 2
  00070	89 45 34	 mov	 DWORD PTR __Oldsize$[ebp], eax

; 1737 :         return _Mypair._Get_first();

  00073	8b 45 68	 mov	 eax, DWORD PTR _this$[ebp]
; File C:\Program Files (x86)\Microsoft Visual Studio\2019\Community\VC\Tools\MSVC\14.28.29333\include\xmemory

; 1351 :         return *this;

  00076	89 45 24	 mov	 DWORD PTR $T19[ebp], eax
; File C:\Program Files (x86)\Microsoft Visual Studio\2019\Community\VC\Tools\MSVC\14.28.29333\include\vector

; 1737 :         return _Mypair._Get_first();

  00079	8b 45 24	 mov	 eax, DWORD PTR $T19[ebp]
  0007c	89 45 c0	 mov	 DWORD PTR $T3[ebp], eax
; File C:\Program Files (x86)\Microsoft Visual Studio\2019\Community\VC\Tools\MSVC\14.28.29333\include\xmemory

; 710  :         return static_cast<size_t>(-1) / sizeof(value_type);

  0007f	c7 45 40 ff ff
	ff 3f		 mov	 DWORD PTR $T22[ebp], 1073741823 ; 3fffffffH
; File C:\Program Files (x86)\Microsoft Visual Studio\2019\Community\VC\Tools\MSVC\14.28.29333\include\limits

; 557  :         return INT_MAX;

  00086	c7 45 20 ff ff
	ff 7f		 mov	 DWORD PTR $T18[ebp], 2147483647 ; 7fffffffH
; File C:\Program Files (x86)\Microsoft Visual Studio\2019\Community\VC\Tools\MSVC\14.28.29333\include\vector

; 1488 :         return (_STD min)(

  0008d	8b 45 20	 mov	 eax, DWORD PTR $T18[ebp]
  00090	89 45 3c	 mov	 DWORD PTR $T21[ebp], eax
; File C:\Program Files (x86)\Microsoft Visual Studio\2019\Community\VC\Tools\MSVC\14.28.29333\include\utility

; 68   :     return _Right < _Left ? _Right : _Left;

  00093	8b 45 40	 mov	 eax, DWORD PTR $T22[ebp]
  00096	3b 45 3c	 cmp	 eax, DWORD PTR $T21[ebp]
  00099	73 08		 jae	 SHORT $LN34@Emplace_re
  0009b	8d 45 40	 lea	 eax, DWORD PTR $T22[ebp]
  0009e	89 45 38	 mov	 DWORD PTR tv172[ebp], eax
  000a1	eb 06		 jmp	 SHORT $LN35@Emplace_re
$LN34@Emplace_re:
  000a3	8d 45 3c	 lea	 eax, DWORD PTR $T21[ebp]
  000a6	89 45 38	 mov	 DWORD PTR tv172[ebp], eax
$LN35@Emplace_re:
  000a9	8b 45 38	 mov	 eax, DWORD PTR tv172[ebp]
  000ac	89 45 1c	 mov	 DWORD PTR $T17[ebp], eax
  000af	8b 45 1c	 mov	 eax, DWORD PTR $T17[ebp]
  000b2	89 45 18	 mov	 DWORD PTR $T16[ebp], eax
; File C:\Program Files (x86)\Microsoft Visual Studio\2019\Community\VC\Tools\MSVC\14.28.29333\include\vector

; 1488 :         return (_STD min)(

  000b5	8b 45 18	 mov	 eax, DWORD PTR $T16[ebp]
  000b8	8b 00		 mov	 eax, DWORD PTR [eax]
  000ba	89 45 14	 mov	 DWORD PTR $T15[ebp], eax

; 736  : 
; 737  :         if (_Oldsize == max_size()) {

  000bd	8b 45 34	 mov	 eax, DWORD PTR __Oldsize$[ebp]
  000c0	3b 45 14	 cmp	 eax, DWORD PTR $T15[ebp]
  000c3	75 05		 jne	 SHORT $LN2@Emplace_re

; 738  :             _Xlength();

  000c5	e8 00 00 00 00	 call	 ?_Xlength@?$vector@PAVCSnowParticle@@V?$allocator@PAVCSnowParticle@@@std@@@std@@CAXXZ ; std::vector<CSnowParticle *,std::allocator<CSnowParticle *> >::_Xlength
$LN2@Emplace_re:

; 739  :         }
; 740  : 
; 741  :         const size_type _Newsize     = _Oldsize + 1;

  000ca	8b 45 34	 mov	 eax, DWORD PTR __Oldsize$[ebp]
  000cd	40		 inc	 eax
  000ce	89 45 2c	 mov	 DWORD PTR __Newsize$[ebp], eax

; 742  :         const size_type _Newcapacity = _Calculate_growth(_Newsize);

  000d1	ff 75 2c	 push	 DWORD PTR __Newsize$[ebp]
  000d4	8b 4d 68	 mov	 ecx, DWORD PTR _this$[ebp]
  000d7	e8 00 00 00 00	 call	 ?_Calculate_growth@?$vector@PAVCSnowParticle@@V?$allocator@PAVCSnowParticle@@@std@@@std@@ABEII@Z ; std::vector<CSnowParticle *,std::allocator<CSnowParticle *> >::_Calculate_growth
  000dc	89 45 54	 mov	 DWORD PTR __Newcapacity$[ebp], eax
; File C:\Program Files (x86)\Microsoft Visual Studio\2019\Community\VC\Tools\MSVC\14.28.29333\include\xmemory

; 56   :     constexpr bool _Overflow_is_possible = _Ty_size > 1;

  000df	c6 45 53 01	 mov	 BYTE PTR __Overflow_is_possible$23[ebp], 1

; 57   : 
; 58   :     if _CONSTEXPR_IF (_Overflow_is_possible) {
; 59   :         constexpr size_t _Max_possible = static_cast<size_t>(-1) / _Ty_size;

  000e3	c7 45 bc ff ff
	ff 3f		 mov	 DWORD PTR __Max_possible$2[ebp], 1073741823 ; 3fffffffH

; 60   :         if (_Count > _Max_possible) {

  000ea	81 7d 54 ff ff
	ff 3f		 cmp	 DWORD PTR __Newcapacity$[ebp], 1073741823 ; 3fffffffH
  000f1	76 05		 jbe	 SHORT $LN67@Emplace_re

; 61   :             _Throw_bad_array_new_length(); // multiply overflow

  000f3	e8 00 00 00 00	 call	 ?_Throw_bad_array_new_length@std@@YAXXZ ; std::_Throw_bad_array_new_length
$LN67@Emplace_re:

; 62   :         }
; 63   :     }
; 64   : 
; 65   :     return _Count * _Ty_size;

  000f8	8b 45 54	 mov	 eax, DWORD PTR __Newcapacity$[ebp]
  000fb	c1 e0 02	 shl	 eax, 2
  000fe	89 45 10	 mov	 DWORD PTR $T14[ebp], eax

; 814  :         return static_cast<_Ty*>(_Allocate<_New_alignof<_Ty>>(_Get_size_of_n<sizeof(_Ty)>(_Count)));

  00101	ff 75 10	 push	 DWORD PTR $T14[ebp]
  00104	e8 00 00 00 00	 call	 ??$_Allocate@$07U_Default_allocate_traits@std@@$0A@@std@@YAPAXI@Z ; std::_Allocate<8,std::_Default_allocate_traits,0>
  00109	59		 pop	 ecx
  0010a	89 45 6c	 mov	 DWORD PTR __Newvec$[ebp], eax
; File C:\Program Files (x86)\Microsoft Visual Studio\2019\Community\VC\Tools\MSVC\14.28.29333\include\vector

; 745  :         const pointer _Constructed_last = _Newvec + _Whereoff + 1;

  0010d	8b 45 60	 mov	 eax, DWORD PTR __Whereoff$[ebp]
  00110	8b 4d 6c	 mov	 ecx, DWORD PTR __Newvec$[ebp]
  00113	8d 44 81 04	 lea	 eax, DWORD PTR [ecx+eax*4+4]
  00117	89 45 30	 mov	 DWORD PTR __Constructed_last$[ebp], eax

; 746  :         pointer _Constructed_first      = _Constructed_last;

  0011a	8b 45 30	 mov	 eax, DWORD PTR __Constructed_last$[ebp]
  0011d	89 45 48	 mov	 DWORD PTR __Constructed_first$[ebp], eax

; 747  : 
; 748  :         _TRY_BEGIN

  00120	83 65 fc 00	 and	 DWORD PTR __$EHRec$[ebp+12], 0
; File C:\Program Files (x86)\Microsoft Visual Studio\2019\Community\VC\Tools\MSVC\14.28.29333\include\type_traits

; 1443 :     return static_cast<_Ty&&>(_Arg);

  00124	8b 45 7c	 mov	 eax, DWORD PTR _<_Val_0>$[ebp]
  00127	89 45 08	 mov	 DWORD PTR $T12[ebp], eax
; File C:\Program Files (x86)\Microsoft Visual Studio\2019\Community\VC\Tools\MSVC\14.28.29333\include\vector

; 749  :         _Alty_traits::construct(_Al, _Unfancy(_Newvec + _Whereoff), _STD forward<_Valty>(_Val)...);

  0012a	8b 45 60	 mov	 eax, DWORD PTR __Whereoff$[ebp]
  0012d	8b 4d 6c	 mov	 ecx, DWORD PTR __Newvec$[ebp]
  00130	8d 04 81	 lea	 eax, DWORD PTR [ecx+eax*4]
; File C:\Program Files (x86)\Microsoft Visual Studio\2019\Community\VC\Tools\MSVC\14.28.29333\include\xstddef

; 289  :     return _Ptr;

  00133	89 45 0c	 mov	 DWORD PTR $T13[ebp], eax
; File C:\Program Files (x86)\Microsoft Visual Studio\2019\Community\VC\Tools\MSVC\14.28.29333\include\vcruntime_new.h

; 169  :         return _Where;

  00136	8b 45 0c	 mov	 eax, DWORD PTR $T13[ebp]
  00139	89 45 04	 mov	 DWORD PTR $T11[ebp], eax
; File C:\Program Files (x86)\Microsoft Visual Studio\2019\Community\VC\Tools\MSVC\14.28.29333\include\type_traits

; 1443 :     return static_cast<_Ty&&>(_Arg);

  0013c	8b 45 08	 mov	 eax, DWORD PTR $T12[ebp]
  0013f	89 45 00	 mov	 DWORD PTR $T10[ebp], eax
; File C:\Program Files (x86)\Microsoft Visual Studio\2019\Community\VC\Tools\MSVC\14.28.29333\include\xmemory

; 701  :         ::new (const_cast<void*>(static_cast<const volatile void*>(_Ptr))) _Objty(_STD forward<_Types>(_Args)...);

  00142	8b 45 04	 mov	 eax, DWORD PTR $T11[ebp]
  00145	8b 4d 00	 mov	 ecx, DWORD PTR $T10[ebp]
  00148	8b 09		 mov	 ecx, DWORD PTR [ecx]
  0014a	89 08		 mov	 DWORD PTR [eax], ecx
; File C:\Program Files (x86)\Microsoft Visual Studio\2019\Community\VC\Tools\MSVC\14.28.29333\include\vector

; 750  :         _Constructed_first = _Newvec + _Whereoff;

  0014c	8b 45 60	 mov	 eax, DWORD PTR __Whereoff$[ebp]
  0014f	8b 4d 6c	 mov	 ecx, DWORD PTR __Newvec$[ebp]
  00152	8d 04 81	 lea	 eax, DWORD PTR [ecx+eax*4]
  00155	89 45 48	 mov	 DWORD PTR __Constructed_first$[ebp], eax

; 751  : 
; 752  :         if (_Whereptr == _Mylast) { // at back, provide strong guarantee

  00158	8b 45 58	 mov	 eax, DWORD PTR __Mylast$[ebp]
  0015b	8b 4d 78	 mov	 ecx, DWORD PTR __Whereptr$[ebp]
  0015e	3b 08		 cmp	 ecx, DWORD PTR [eax]
  00160	75 3d		 jne	 SHORT $LN4@Emplace_re

; 753  :             _Umove_if_noexcept(_Myfirst, _Mylast, _Newvec);

  00162	8b 45 58	 mov	 eax, DWORD PTR __Mylast$[ebp]
  00165	8b 00		 mov	 eax, DWORD PTR [eax]
  00167	89 45 e4	 mov	 DWORD PTR __Last$[ebp], eax
  0016a	8b 45 5c	 mov	 eax, DWORD PTR __Myfirst$[ebp]
  0016d	8b 00		 mov	 eax, DWORD PTR [eax]
  0016f	89 45 e0	 mov	 DWORD PTR __First$[ebp], eax

; 1607 :         _Umove_if_noexcept1(_First, _Last, _Dest,

  00172	33 c0		 xor	 eax, eax
  00174	88 45 67	 mov	 BYTE PTR $T24[ebp], al
  00177	8a 45 67	 mov	 al, BYTE PTR $T24[ebp]
  0017a	88 45 4c	 mov	 BYTE PTR ___formal$[ebp], al

; 1733 :         return _Mypair._Get_first();

  0017d	8b 45 68	 mov	 eax, DWORD PTR _this$[ebp]
; File C:\Program Files (x86)\Microsoft Visual Studio\2019\Community\VC\Tools\MSVC\14.28.29333\include\xmemory

; 1347 :         return *this;

  00180	89 45 ec	 mov	 DWORD PTR $T9[ebp], eax
; File C:\Program Files (x86)\Microsoft Visual Studio\2019\Community\VC\Tools\MSVC\14.28.29333\include\vector

; 1733 :         return _Mypair._Get_first();

  00183	8b 45 ec	 mov	 eax, DWORD PTR $T9[ebp]
  00186	89 45 e8	 mov	 DWORD PTR $T8[ebp], eax

; 1597 :         _Uninitialized_move(_First, _Last, _Dest, _Getal());

  00189	ff 75 e8	 push	 DWORD PTR $T8[ebp]
  0018c	ff 75 6c	 push	 DWORD PTR __Newvec$[ebp]
  0018f	ff 75 e4	 push	 DWORD PTR __Last$[ebp]
  00192	ff 75 e0	 push	 DWORD PTR __First$[ebp]
  00195	e8 00 00 00 00	 call	 ??$_Uninitialized_move@PAPAVCSnowParticle@@V?$allocator@PAVCSnowParticle@@@std@@@std@@YAPAPAVCSnowParticle@@QAPAV1@0PAPAV1@AAV?$allocator@PAVCSnowParticle@@@0@@Z ; std::_Uninitialized_move<CSnowParticle * *,std::allocator<CSnowParticle *> >
  0019a	83 c4 10	 add	 esp, 16			; 00000010H

; 754  :         } else { // provide basic guarantee

  0019d	eb 5e		 jmp	 SHORT $LN5@Emplace_re
$LN4@Emplace_re:

; 755  :             _Umove(_Myfirst, _Whereptr, _Newvec);

  0019f	8b 45 5c	 mov	 eax, DWORD PTR __Myfirst$[ebp]
  001a2	8b 00		 mov	 eax, DWORD PTR [eax]
  001a4	89 45 d4	 mov	 DWORD PTR __First$[ebp], eax

; 1733 :         return _Mypair._Get_first();

  001a7	8b 45 68	 mov	 eax, DWORD PTR _this$[ebp]
; File C:\Program Files (x86)\Microsoft Visual Studio\2019\Community\VC\Tools\MSVC\14.28.29333\include\xmemory

; 1347 :         return *this;

  001aa	89 45 dc	 mov	 DWORD PTR $T7[ebp], eax
; File C:\Program Files (x86)\Microsoft Visual Studio\2019\Community\VC\Tools\MSVC\14.28.29333\include\vector

; 1733 :         return _Mypair._Get_first();

  001ad	8b 45 dc	 mov	 eax, DWORD PTR $T7[ebp]
  001b0	89 45 d8	 mov	 DWORD PTR $T6[ebp], eax

; 1592 :         return _Uninitialized_move(_First, _Last, _Dest, _Getal());

  001b3	ff 75 d8	 push	 DWORD PTR $T6[ebp]
  001b6	ff 75 6c	 push	 DWORD PTR __Newvec$[ebp]
  001b9	ff 75 78	 push	 DWORD PTR __Whereptr$[ebp]
  001bc	ff 75 d4	 push	 DWORD PTR __First$[ebp]
  001bf	e8 00 00 00 00	 call	 ??$_Uninitialized_move@PAPAVCSnowParticle@@V?$allocator@PAVCSnowParticle@@@std@@@std@@YAPAPAVCSnowParticle@@QAPAV1@0PAPAV1@AAV?$allocator@PAVCSnowParticle@@@0@@Z ; std::_Uninitialized_move<CSnowParticle * *,std::allocator<CSnowParticle *> >
  001c4	83 c4 10	 add	 esp, 16			; 00000010H

; 756  :             _Constructed_first = _Newvec;

  001c7	8b 45 6c	 mov	 eax, DWORD PTR __Newvec$[ebp]
  001ca	89 45 48	 mov	 DWORD PTR __Constructed_first$[ebp], eax

; 757  :             _Umove(_Whereptr, _Mylast, _Newvec + _Whereoff + 1);

  001cd	8b 45 58	 mov	 eax, DWORD PTR __Mylast$[ebp]
  001d0	8b 00		 mov	 eax, DWORD PTR [eax]
  001d2	89 45 c8	 mov	 DWORD PTR __Last$[ebp], eax

; 1733 :         return _Mypair._Get_first();

  001d5	8b 45 68	 mov	 eax, DWORD PTR _this$[ebp]
; File C:\Program Files (x86)\Microsoft Visual Studio\2019\Community\VC\Tools\MSVC\14.28.29333\include\xmemory

; 1347 :         return *this;

  001d8	89 45 d0	 mov	 DWORD PTR $T5[ebp], eax
; File C:\Program Files (x86)\Microsoft Visual Studio\2019\Community\VC\Tools\MSVC\14.28.29333\include\vector

; 1733 :         return _Mypair._Get_first();

  001db	8b 45 d0	 mov	 eax, DWORD PTR $T5[ebp]
  001de	89 45 cc	 mov	 DWORD PTR $T4[ebp], eax

; 1592 :         return _Uninitialized_move(_First, _Last, _Dest, _Getal());

  001e1	ff 75 cc	 push	 DWORD PTR $T4[ebp]

; 757  :             _Umove(_Whereptr, _Mylast, _Newvec + _Whereoff + 1);

  001e4	8b 45 60	 mov	 eax, DWORD PTR __Whereoff$[ebp]
  001e7	8b 4d 6c	 mov	 ecx, DWORD PTR __Newvec$[ebp]
  001ea	8d 44 81 04	 lea	 eax, DWORD PTR [ecx+eax*4+4]

; 1592 :         return _Uninitialized_move(_First, _Last, _Dest, _Getal());

  001ee	50		 push	 eax
  001ef	ff 75 c8	 push	 DWORD PTR __Last$[ebp]
  001f2	ff 75 78	 push	 DWORD PTR __Whereptr$[ebp]
  001f5	e8 00 00 00 00	 call	 ??$_Uninitialized_move@PAPAVCSnowParticle@@V?$allocator@PAVCSnowParticle@@@std@@@std@@YAPAPAVCSnowParticle@@QAPAV1@0PAPAV1@AAV?$allocator@PAVCSnowParticle@@@0@@Z ; std::_Uninitialized_move<CSnowParticle * *,std::allocator<CSnowParticle *> >
  001fa	83 c4 10	 add	 esp, 16			; 00000010H
$LN5@Emplace_re:

; 757  :             _Umove(_Whereptr, _Mylast, _Newvec + _Whereoff + 1);

  001fd	eb 2b		 jmp	 SHORT $LN7@Emplace_re
__catch$??$_Emplace_reallocate@ABQAVCSnowParticle@@@?$vector@PAVCSnowParticle@@V?$allocator@PAVCSnowParticle@@@std@@@std@@QAEPAPAVCSnowParticle@@QAPAV2@ABQAV2@@Z$0:

; 758  :         }
; 759  :         _CATCH_ALL
; 760  :         _Destroy(_Constructed_first, _Constructed_last);

  001ff	ff 75 30	 push	 DWORD PTR __Constructed_last$[ebp]
  00202	ff 75 48	 push	 DWORD PTR __Constructed_first$[ebp]
  00205	8b 4d 68	 mov	 ecx, DWORD PTR _this$[ebp]
  00208	e8 00 00 00 00	 call	 ?_Destroy@?$vector@PAVCSnowParticle@@V?$allocator@PAVCSnowParticle@@@std@@@std@@AAEXPAPAVCSnowParticle@@0@Z ; std::vector<CSnowParticle *,std::allocator<CSnowParticle *> >::_Destroy

; 761  :         _Al.deallocate(_Newvec, _Newcapacity);

  0020d	ff 75 54	 push	 DWORD PTR __Newcapacity$[ebp]
  00210	ff 75 6c	 push	 DWORD PTR __Newvec$[ebp]
  00213	8b 4d c4	 mov	 ecx, DWORD PTR __Al$[ebp]
  00216	e8 00 00 00 00	 call	 ?deallocate@?$allocator@PAVCSnowParticle@@@std@@QAEXQAPAVCSnowParticle@@I@Z ; std::allocator<CSnowParticle *>::deallocate

; 762  :         _RERAISE;

  0021b	6a 00		 push	 0
  0021d	6a 00		 push	 0
  0021f	e8 00 00 00 00	 call	 __CxxThrowException@8

; 763  :         _CATCH_END

  00224	b8 00 00 00 00	 mov	 eax, $LN10@Emplace_re
  00229	c3		 ret	 0
$LN7@Emplace_re:
  0022a	83 4d fc ff	 or	 DWORD PTR __$EHRec$[ebp+12], -1
  0022e	eb 04		 jmp	 SHORT __tryend$??$_Emplace_reallocate@ABQAVCSnowParticle@@@?$vector@PAVCSnowParticle@@V?$allocator@PAVCSnowParticle@@@std@@@std@@QAEPAPAVCSnowParticle@@QAPAV2@ABQAV2@@Z$1
$LN10@Emplace_re:
; File C:\Program Files (x86)\Microsoft Visual Studio\2019\Community\VC\Tools\MSVC\14.28.29333\include\xmemory
  00230	83 4d fc ff	 or	 DWORD PTR __$EHRec$[ebp+12], -1
__tryend$??$_Emplace_reallocate@ABQAVCSnowParticle@@@?$vector@PAVCSnowParticle@@V?$allocator@PAVCSnowParticle@@@std@@@std@@QAEPAPAVCSnowParticle@@QAPAV2@ABQAV2@@Z$1:
; File C:\Program Files (x86)\Microsoft Visual Studio\2019\Community\VC\Tools\MSVC\14.28.29333\include\vector

; 764  : 
; 765  :         _Change_array(_Newvec, _Newsize, _Newcapacity);

  00234	ff 75 54	 push	 DWORD PTR __Newcapacity$[ebp]
  00237	ff 75 2c	 push	 DWORD PTR __Newsize$[ebp]
  0023a	ff 75 6c	 push	 DWORD PTR __Newvec$[ebp]
  0023d	8b 4d 68	 mov	 ecx, DWORD PTR _this$[ebp]
  00240	e8 00 00 00 00	 call	 ?_Change_array@?$vector@PAVCSnowParticle@@V?$allocator@PAVCSnowParticle@@@std@@@std@@AAEXQAPAVCSnowParticle@@II@Z ; std::vector<CSnowParticle *,std::allocator<CSnowParticle *> >::_Change_array

; 766  :         return _Newvec + _Whereoff;

  00245	8b 45 60	 mov	 eax, DWORD PTR __Whereoff$[ebp]
  00248	8b 4d 6c	 mov	 ecx, DWORD PTR __Newvec$[ebp]
  0024b	8d 04 81	 lea	 eax, DWORD PTR [ecx+eax*4]
$LN70@Emplace_re:

; 767  :     }

  0024e	8b 4d f4	 mov	 ecx, DWORD PTR __$EHRec$[ebp+4]
  00251	64 89 0d 00 00
	00 00		 mov	 DWORD PTR fs:0, ecx
  00258	59		 pop	 ecx
  00259	5f		 pop	 edi
  0025a	5e		 pop	 esi
  0025b	5b		 pop	 ebx
  0025c	83 c5 70	 add	 ebp, 112		; 00000070H
  0025f	c9		 leave
  00260	c2 08 00	 ret	 8
  00263	cc		 int	 3
  00264	cc		 int	 3
  00265	cc		 int	 3
  00266	cc		 int	 3
  00267	cc		 int	 3
_TEXT	ENDS
;	COMDAT text$x
text$x	SEGMENT
__ehhandler$??$_Emplace_reallocate@ABQAVCSnowParticle@@@?$vector@PAVCSnowParticle@@V?$allocator@PAVCSnowParticle@@@std@@@std@@QAEPAPAVCSnowParticle@@QAPAV2@ABQAV2@@Z:
  00000	90		 npad	 1
  00001	90		 npad	 1
  00002	8b 54 24 08	 mov	 edx, DWORD PTR [esp+8]
  00006	8d 42 0c	 lea	 eax, DWORD PTR [edx+12]
  00009	8b 4a b8	 mov	 ecx, DWORD PTR [edx-72]
  0000c	33 c8		 xor	 ecx, eax
  0000e	e8 00 00 00 00	 call	 @__security_check_cookie@4
  00013	b8 00 00 00 00	 mov	 eax, OFFSET __ehfuncinfo$??$_Emplace_reallocate@ABQAVCSnowParticle@@@?$vector@PAVCSnowParticle@@V?$allocator@PAVCSnowParticle@@@std@@@std@@QAEPAPAVCSnowParticle@@QAPAV2@ABQAV2@@Z
  00018	e9 00 00 00 00	 jmp	 ___CxxFrameHandler3
text$x	ENDS
??$_Emplace_reallocate@ABQAVCSnowParticle@@@?$vector@PAVCSnowParticle@@V?$allocator@PAVCSnowParticle@@@std@@@std@@QAEPAPAVCSnowParticle@@QAPAV2@ABQAV2@@Z ENDP ; std::vector<CSnowParticle *,std::allocator<CSnowParticle *> >::_Emplace_reallocate<CSnowParticle * const &>
; Function compile flags: /Odspy
; File C:\Program Files (x86)\Microsoft Visual Studio\2019\Community\VC\Tools\MSVC\14.28.29333\include\vector
; File C:\Program Files (x86)\Microsoft Visual Studio\2019\Community\VC\Tools\MSVC\14.28.29333\include\type_traits
; File C:\Program Files (x86)\Microsoft Visual Studio\2019\Community\VC\Tools\MSVC\14.28.29333\include\vector
; File C:\Program Files (x86)\Microsoft Visual Studio\2019\Community\VC\Tools\MSVC\14.28.29333\include\xstddef
; File C:\Program Files (x86)\Microsoft Visual Studio\2019\Community\VC\Tools\MSVC\14.28.29333\include\vector
; File C:\Program Files (x86)\Microsoft Visual Studio\2019\Community\VC\Tools\MSVC\14.28.29333\include\xmemory
; File C:\Program Files (x86)\Microsoft Visual Studio\2019\Community\VC\Tools\MSVC\14.28.29333\include\vector
; File C:\Program Files (x86)\Microsoft Visual Studio\2019\Community\VC\Tools\MSVC\14.28.29333\include\vcruntime_new.h
; File C:\Program Files (x86)\Microsoft Visual Studio\2019\Community\VC\Tools\MSVC\14.28.29333\include\type_traits
; File C:\Program Files (x86)\Microsoft Visual Studio\2019\Community\VC\Tools\MSVC\14.28.29333\include\xmemory
; File C:\Program Files (x86)\Microsoft Visual Studio\2019\Community\VC\Tools\MSVC\14.28.29333\include\vector
;	COMDAT ??$_Emplace_back_with_unused_capacity@ABQAVCSnowParticle@@@?$vector@PAVCSnowParticle@@V?$allocator@PAVCSnowParticle@@@std@@@std@@AAEXABQAVCSnowParticle@@@Z
_TEXT	SEGMENT
__Result$ = -44						; size = 4
$T1 = -40						; size = 4
$T2 = -36						; size = 4
$T3 = -32						; size = 4
$T4 = -28						; size = 4
$T5 = -24						; size = 4
$T6 = -20						; size = 4
__Ptr$ = -16						; size = 4
__My_data$ = -12					; size = 4
_this$ = -8						; size = 4
__Mylast$ = -4						; size = 4
_<_Val_0>$ = 8						; size = 4
??$_Emplace_back_with_unused_capacity@ABQAVCSnowParticle@@@?$vector@PAVCSnowParticle@@V?$allocator@PAVCSnowParticle@@@std@@@std@@AAEXABQAVCSnowParticle@@@Z PROC ; std::vector<CSnowParticle *,std::allocator<CSnowParticle *> >::_Emplace_back_with_unused_capacity<CSnowParticle * const &>, COMDAT
; _this$ = ecx

; 682  :     decltype(auto) _Emplace_back_with_unused_capacity(_Valty&&... _Val) {

  00000	55		 push	 ebp
  00001	8b ec		 mov	 ebp, esp
  00003	83 ec 2c	 sub	 esp, 44			; 0000002cH
  00006	89 4d f8	 mov	 DWORD PTR _this$[ebp], ecx

; 683  :         // insert by perfectly forwarding into element at end, provide strong guarantee
; 684  :         auto& _My_data   = _Mypair._Myval2;

  00009	8b 45 f8	 mov	 eax, DWORD PTR _this$[ebp]
  0000c	89 45 f4	 mov	 DWORD PTR __My_data$[ebp], eax

; 685  :         pointer& _Mylast = _My_data._Mylast;

  0000f	8b 45 f4	 mov	 eax, DWORD PTR __My_data$[ebp]
  00012	83 c0 04	 add	 eax, 4
  00015	89 45 fc	 mov	 DWORD PTR __Mylast$[ebp], eax
; File C:\Program Files (x86)\Microsoft Visual Studio\2019\Community\VC\Tools\MSVC\14.28.29333\include\type_traits

; 1443 :     return static_cast<_Ty&&>(_Arg);

  00018	8b 45 08	 mov	 eax, DWORD PTR _<_Val_0>$[ebp]
  0001b	89 45 e4	 mov	 DWORD PTR $T4[ebp], eax
; File C:\Program Files (x86)\Microsoft Visual Studio\2019\Community\VC\Tools\MSVC\14.28.29333\include\vector

; 687  :         _Alty_traits::construct(_Getal(), _Unfancy(_Mylast), _STD forward<_Valty>(_Val)...);

  0001e	8b 45 fc	 mov	 eax, DWORD PTR __Mylast$[ebp]
  00021	8b 00		 mov	 eax, DWORD PTR [eax]
  00023	89 45 f0	 mov	 DWORD PTR __Ptr$[ebp], eax
; File C:\Program Files (x86)\Microsoft Visual Studio\2019\Community\VC\Tools\MSVC\14.28.29333\include\xstddef

; 289  :     return _Ptr;

  00026	8b 45 f0	 mov	 eax, DWORD PTR __Ptr$[ebp]
  00029	89 45 e8	 mov	 DWORD PTR $T5[ebp], eax
; File C:\Program Files (x86)\Microsoft Visual Studio\2019\Community\VC\Tools\MSVC\14.28.29333\include\vector

; 1733 :         return _Mypair._Get_first();

  0002c	8b 45 f8	 mov	 eax, DWORD PTR _this$[ebp]
; File C:\Program Files (x86)\Microsoft Visual Studio\2019\Community\VC\Tools\MSVC\14.28.29333\include\xmemory

; 1347 :         return *this;

  0002f	89 45 ec	 mov	 DWORD PTR $T6[ebp], eax
; File C:\Program Files (x86)\Microsoft Visual Studio\2019\Community\VC\Tools\MSVC\14.28.29333\include\vector

; 1733 :         return _Mypair._Get_first();

  00032	8b 45 ec	 mov	 eax, DWORD PTR $T6[ebp]
  00035	89 45 d8	 mov	 DWORD PTR $T1[ebp], eax
; File C:\Program Files (x86)\Microsoft Visual Studio\2019\Community\VC\Tools\MSVC\14.28.29333\include\vcruntime_new.h

; 169  :         return _Where;

  00038	8b 45 e8	 mov	 eax, DWORD PTR $T5[ebp]
  0003b	89 45 e0	 mov	 DWORD PTR $T3[ebp], eax
; File C:\Program Files (x86)\Microsoft Visual Studio\2019\Community\VC\Tools\MSVC\14.28.29333\include\type_traits

; 1443 :     return static_cast<_Ty&&>(_Arg);

  0003e	8b 45 e4	 mov	 eax, DWORD PTR $T4[ebp]
  00041	89 45 dc	 mov	 DWORD PTR $T2[ebp], eax
; File C:\Program Files (x86)\Microsoft Visual Studio\2019\Community\VC\Tools\MSVC\14.28.29333\include\xmemory

; 701  :         ::new (const_cast<void*>(static_cast<const volatile void*>(_Ptr))) _Objty(_STD forward<_Types>(_Args)...);

  00044	8b 45 e0	 mov	 eax, DWORD PTR $T3[ebp]
  00047	8b 4d dc	 mov	 ecx, DWORD PTR $T2[ebp]
  0004a	8b 09		 mov	 ecx, DWORD PTR [ecx]
  0004c	89 08		 mov	 DWORD PTR [eax], ecx
; File C:\Program Files (x86)\Microsoft Visual Studio\2019\Community\VC\Tools\MSVC\14.28.29333\include\vector

; 689  :         _Ty& _Result = *_Mylast;

  0004e	8b 45 fc	 mov	 eax, DWORD PTR __Mylast$[ebp]
  00051	8b 00		 mov	 eax, DWORD PTR [eax]
  00053	89 45 d4	 mov	 DWORD PTR __Result$[ebp], eax

; 690  :         ++_Mylast;

  00056	8b 45 fc	 mov	 eax, DWORD PTR __Mylast$[ebp]
  00059	8b 00		 mov	 eax, DWORD PTR [eax]
  0005b	83 c0 04	 add	 eax, 4
  0005e	8b 4d fc	 mov	 ecx, DWORD PTR __Mylast$[ebp]
  00061	89 01		 mov	 DWORD PTR [ecx], eax

; 691  : #if _HAS_CXX17
; 692  :         return _Result;
; 693  : #else // ^^^ _HAS_CXX17 ^^^ // vvv !_HAS_CXX17 vvv
; 694  :         (void) _Result;
; 695  : #endif // _HAS_CXX17
; 696  :     }

  00063	c9		 leave
  00064	c2 04 00	 ret	 4
??$_Emplace_back_with_unused_capacity@ABQAVCSnowParticle@@@?$vector@PAVCSnowParticle@@V?$allocator@PAVCSnowParticle@@@std@@@std@@AAEXABQAVCSnowParticle@@@Z ENDP ; std::vector<CSnowParticle *,std::allocator<CSnowParticle *> >::_Emplace_back_with_unused_capacity<CSnowParticle * const &>
_TEXT	ENDS
; Function compile flags: /Odspy
; File C:\Program Files (x86)\Microsoft Visual Studio\2019\Community\VC\Tools\MSVC\14.28.29333\include\vector
; File C:\Program Files (x86)\Microsoft Visual Studio\2019\Community\VC\Tools\MSVC\14.28.29333\include\type_traits
; File C:\Program Files (x86)\Microsoft Visual Studio\2019\Community\VC\Tools\MSVC\14.28.29333\include\vector
; File C:\Program Files (x86)\Microsoft Visual Studio\2019\Community\VC\Tools\MSVC\14.28.29333\include\type_traits
; File C:\Program Files (x86)\Microsoft Visual Studio\2019\Community\VC\Tools\MSVC\14.28.29333\include\vector
;	COMDAT ??$emplace_back@ABQAVCSnowParticle@@@?$vector@PAVCSnowParticle@@V?$allocator@PAVCSnowParticle@@@std@@@std@@QAEXABQAVCSnowParticle@@@Z
_TEXT	SEGMENT
__Result$ = -24						; size = 4
$T1 = -20						; size = 4
$T2 = -16						; size = 4
__Mylast$ = -12						; size = 4
__My_data$ = -8						; size = 4
_this$ = -4						; size = 4
_<_Val_0>$ = 8						; size = 4
??$emplace_back@ABQAVCSnowParticle@@@?$vector@PAVCSnowParticle@@V?$allocator@PAVCSnowParticle@@@std@@@std@@QAEXABQAVCSnowParticle@@@Z PROC ; std::vector<CSnowParticle *,std::allocator<CSnowParticle *> >::emplace_back<CSnowParticle * const &>, COMDAT
; _this$ = ecx

; 700  :     decltype(auto) emplace_back(_Valty&&... _Val) {

  00000	55		 push	 ebp
  00001	8b ec		 mov	 ebp, esp
  00003	83 ec 18	 sub	 esp, 24			; 00000018H
  00006	89 4d fc	 mov	 DWORD PTR _this$[ebp], ecx

; 701  :         // insert by perfectly forwarding into element at end, provide strong guarantee
; 702  :         auto& _My_data   = _Mypair._Myval2;

  00009	8b 45 fc	 mov	 eax, DWORD PTR _this$[ebp]
  0000c	89 45 f8	 mov	 DWORD PTR __My_data$[ebp], eax

; 703  :         pointer& _Mylast = _My_data._Mylast;

  0000f	8b 45 f8	 mov	 eax, DWORD PTR __My_data$[ebp]
  00012	83 c0 04	 add	 eax, 4
  00015	89 45 f4	 mov	 DWORD PTR __Mylast$[ebp], eax

; 704  :         if (_Mylast != _My_data._Myend) {

  00018	8b 45 f4	 mov	 eax, DWORD PTR __Mylast$[ebp]
  0001b	8b 4d f8	 mov	 ecx, DWORD PTR __My_data$[ebp]
  0001e	8b 00		 mov	 eax, DWORD PTR [eax]
  00020	3b 41 08	 cmp	 eax, DWORD PTR [ecx+8]
  00023	74 13		 je	 SHORT $LN2@emplace_ba
; File C:\Program Files (x86)\Microsoft Visual Studio\2019\Community\VC\Tools\MSVC\14.28.29333\include\type_traits

; 1443 :     return static_cast<_Ty&&>(_Arg);

  00025	8b 45 08	 mov	 eax, DWORD PTR _<_Val_0>$[ebp]
  00028	89 45 f0	 mov	 DWORD PTR $T2[ebp], eax
; File C:\Program Files (x86)\Microsoft Visual Studio\2019\Community\VC\Tools\MSVC\14.28.29333\include\vector

; 705  :             return _Emplace_back_with_unused_capacity(_STD forward<_Valty>(_Val)...);

  0002b	ff 75 f0	 push	 DWORD PTR $T2[ebp]
  0002e	8b 4d fc	 mov	 ecx, DWORD PTR _this$[ebp]
  00031	e8 00 00 00 00	 call	 ??$_Emplace_back_with_unused_capacity@ABQAVCSnowParticle@@@?$vector@PAVCSnowParticle@@V?$allocator@PAVCSnowParticle@@@std@@@std@@AAEXABQAVCSnowParticle@@@Z ; std::vector<CSnowParticle *,std::allocator<CSnowParticle *> >::_Emplace_back_with_unused_capacity<CSnowParticle * const &>
  00036	eb 19		 jmp	 SHORT $LN1@emplace_ba
$LN2@emplace_ba:
; File C:\Program Files (x86)\Microsoft Visual Studio\2019\Community\VC\Tools\MSVC\14.28.29333\include\type_traits

; 1443 :     return static_cast<_Ty&&>(_Arg);

  00038	8b 45 08	 mov	 eax, DWORD PTR _<_Val_0>$[ebp]
  0003b	89 45 ec	 mov	 DWORD PTR $T1[ebp], eax
; File C:\Program Files (x86)\Microsoft Visual Studio\2019\Community\VC\Tools\MSVC\14.28.29333\include\vector

; 708  :         _Ty& _Result = *_Emplace_reallocate(_Mylast, _STD forward<_Valty>(_Val)...);

  0003e	ff 75 ec	 push	 DWORD PTR $T1[ebp]
  00041	8b 45 f4	 mov	 eax, DWORD PTR __Mylast$[ebp]
  00044	ff 30		 push	 DWORD PTR [eax]
  00046	8b 4d fc	 mov	 ecx, DWORD PTR _this$[ebp]
  00049	e8 00 00 00 00	 call	 ??$_Emplace_reallocate@ABQAVCSnowParticle@@@?$vector@PAVCSnowParticle@@V?$allocator@PAVCSnowParticle@@@std@@@std@@QAEPAPAVCSnowParticle@@QAPAV2@ABQAV2@@Z ; std::vector<CSnowParticle *,std::allocator<CSnowParticle *> >::_Emplace_reallocate<CSnowParticle * const &>
  0004e	89 45 e8	 mov	 DWORD PTR __Result$[ebp], eax
$LN1@emplace_ba:

; 709  : #if _HAS_CXX17
; 710  :         return _Result;
; 711  : #else // ^^^ _HAS_CXX17 ^^^ // vvv !_HAS_CXX17 vvv
; 712  :         (void) _Result;
; 713  : #endif // _HAS_CXX17
; 714  :     }

  00051	c9		 leave
  00052	c2 04 00	 ret	 4
??$emplace_back@ABQAVCSnowParticle@@@?$vector@PAVCSnowParticle@@V?$allocator@PAVCSnowParticle@@@std@@@std@@QAEXABQAVCSnowParticle@@@Z ENDP ; std::vector<CSnowParticle *,std::allocator<CSnowParticle *> >::emplace_back<CSnowParticle * const &>
_TEXT	ENDS
; Function compile flags: /Odspy
; File D:\Metin2 Server Files\mainline\SRC_2014\Metin2Client\eterBase\Stl.h
; File C:\Program Files (x86)\Microsoft Visual Studio\2019\Community\VC\Tools\MSVC\14.28.29333\include\vector
; File C:\Program Files (x86)\Microsoft Visual Studio\2019\Community\VC\Tools\MSVC\14.28.29333\include\xstddef
; File C:\Program Files (x86)\Microsoft Visual Studio\2019\Community\VC\Tools\MSVC\14.28.29333\include\vector
; File D:\Metin2 Server Files\mainline\SRC_2014\Metin2Client\eterBase\Stl.h
; File C:\Program Files (x86)\Microsoft Visual Studio\2019\Community\VC\Tools\MSVC\14.28.29333\include\vector
; File C:\Program Files (x86)\Microsoft Visual Studio\2019\Community\VC\Tools\MSVC\14.28.29333\include\xstddef
; File C:\Program Files (x86)\Microsoft Visual Studio\2019\Community\VC\Tools\MSVC\14.28.29333\include\vector
; File D:\Metin2 Server Files\mainline\SRC_2014\Metin2Client\eterBase\Stl.h
; File C:\Program Files (x86)\Microsoft Visual Studio\2019\Community\VC\Tools\MSVC\14.28.29333\include\vector
; File D:\Metin2 Server Files\mainline\SRC_2014\Metin2Client\eterBase\Stl.h
; File C:\Program Files (x86)\Microsoft Visual Studio\2019\Community\VC\Tools\MSVC\14.28.29333\include\vector
; File D:\Metin2 Server Files\mainline\SRC_2014\Metin2Client\eterBase\Stl.h
;	COMDAT ??$stl_wipe@V?$vector@PAVCSnowParticle@@V?$allocator@PAVCSnowParticle@@@std@@@std@@@@YAXAAV?$vector@PAVCSnowParticle@@V?$allocator@PAVCSnowParticle@@@std@@@std@@@Z
_TEXT	SEGMENT
$T1 = -76						; size = 4
$T2 = -72						; size = 4
$T3 = -68						; size = 4
$T4 = -64						; size = 4
$T5 = -60						; size = 4
$T6 = -56						; size = 4
$T7 = -52						; size = 4
$T8 = -48						; size = 4
$T9 = -44						; size = 4
___param0$ = -40					; size = 4
___param0$ = -36					; size = 4
tv89 = -32						; size = 4
tv167 = -28						; size = 4
tv181 = -24						; size = 4
__My_data$10 = -20					; size = 4
__My_data$11 = -16					; size = 4
$T12 = -12						; size = 4
_i$13 = -8						; size = 4
$T14 = -2						; size = 1
$T15 = -1						; size = 1
_container$ = 8						; size = 4
??$stl_wipe@V?$vector@PAVCSnowParticle@@V?$allocator@PAVCSnowParticle@@@std@@@std@@@@YAXAAV?$vector@PAVCSnowParticle@@V?$allocator@PAVCSnowParticle@@@std@@@std@@@Z PROC ; stl_wipe<std::vector<CSnowParticle *,std::allocator<CSnowParticle *> > >, COMDAT

; 94   : {

  00000	55		 push	 ebp
  00001	8b ec		 mov	 ebp, esp
  00003	83 ec 4c	 sub	 esp, 76			; 0000004cH
; File C:\Program Files (x86)\Microsoft Visual Studio\2019\Community\VC\Tools\MSVC\14.28.29333\include\vector

; 1410 :         auto& _My_data = _Mypair._Myval2;

  00006	8b 45 08	 mov	 eax, DWORD PTR _container$[ebp]
  00009	89 45 f0	 mov	 DWORD PTR __My_data$11[ebp], eax
; File C:\Program Files (x86)\Microsoft Visual Studio\2019\Community\VC\Tools\MSVC\14.28.29333\include\xstddef

; 275  :     return __builtin_addressof(_Val);

  0000c	8b 45 f0	 mov	 eax, DWORD PTR __My_data$11[ebp]
  0000f	89 45 bc	 mov	 DWORD PTR $T3[ebp], eax
; File C:\Program Files (x86)\Microsoft Visual Studio\2019\Community\VC\Tools\MSVC\14.28.29333\include\vector

; 1411 :         return iterator(_My_data._Myfirst, _STD addressof(_My_data));

  00012	8b 45 f0	 mov	 eax, DWORD PTR __My_data$11[ebp]
  00015	8b 00		 mov	 eax, DWORD PTR [eax]
  00017	89 45 dc	 mov	 DWORD PTR ___param0$[ebp], eax

; 42   :     _Vector_const_iterator(_Tptr _Parg, const _Container_base* _Pvector) noexcept : _Ptr(_Parg) {

  0001a	8b 45 dc	 mov	 eax, DWORD PTR ___param0$[ebp]
  0001d	89 45 f8	 mov	 DWORD PTR _i$13[ebp], eax
; File D:\Metin2 Server Files\mainline\SRC_2014\Metin2Client\eterBase\Stl.h

; 95   : 	for (TContainer::iterator i = container.begin(); i != container.end(); ++i)

  00020	eb 09		 jmp	 SHORT $LN4@stl_wipe
$LN2@stl_wipe:
; File C:\Program Files (x86)\Microsoft Visual Studio\2019\Community\VC\Tools\MSVC\14.28.29333\include\vector

; 75   :         ++_Ptr;

  00022	8b 45 f8	 mov	 eax, DWORD PTR _i$13[ebp]
  00025	83 c0 04	 add	 eax, 4
  00028	89 45 f8	 mov	 DWORD PTR _i$13[ebp], eax
$LN4@stl_wipe:

; 1420 :         auto& _My_data = _Mypair._Myval2;

  0002b	8b 45 08	 mov	 eax, DWORD PTR _container$[ebp]
  0002e	89 45 ec	 mov	 DWORD PTR __My_data$10[ebp], eax
; File C:\Program Files (x86)\Microsoft Visual Studio\2019\Community\VC\Tools\MSVC\14.28.29333\include\xstddef

; 275  :     return __builtin_addressof(_Val);

  00031	8b 45 ec	 mov	 eax, DWORD PTR __My_data$10[ebp]
  00034	89 45 b8	 mov	 DWORD PTR $T2[ebp], eax
; File C:\Program Files (x86)\Microsoft Visual Studio\2019\Community\VC\Tools\MSVC\14.28.29333\include\vector

; 1421 :         return iterator(_My_data._Mylast, _STD addressof(_My_data));

  00037	8b 45 ec	 mov	 eax, DWORD PTR __My_data$10[ebp]
  0003a	8b 40 04	 mov	 eax, DWORD PTR [eax+4]
  0003d	89 45 d8	 mov	 DWORD PTR ___param0$[ebp], eax

; 42   :     _Vector_const_iterator(_Tptr _Parg, const _Container_base* _Pvector) noexcept : _Ptr(_Parg) {

  00040	8b 45 d8	 mov	 eax, DWORD PTR ___param0$[ebp]
  00043	89 45 d4	 mov	 DWORD PTR $T9[ebp], eax

; 1421 :         return iterator(_My_data._Mylast, _STD addressof(_My_data));

  00046	8d 45 d4	 lea	 eax, DWORD PTR $T9[ebp]
  00049	89 45 d0	 mov	 DWORD PTR $T8[ebp], eax

; 149  :         return _Ptr == _Right._Ptr;

  0004c	8b 45 d0	 mov	 eax, DWORD PTR $T8[ebp]
  0004f	8b 4d f8	 mov	 ecx, DWORD PTR _i$13[ebp]
  00052	3b 08		 cmp	 ecx, DWORD PTR [eax]
  00054	75 09		 jne	 SHORT $LN51@stl_wipe
  00056	c7 45 e8 01 00
	00 00		 mov	 DWORD PTR tv181[ebp], 1
  0005d	eb 04		 jmp	 SHORT $LN52@stl_wipe
$LN51@stl_wipe:
  0005f	83 65 e8 00	 and	 DWORD PTR tv181[ebp], 0
$LN52@stl_wipe:
  00063	8a 45 e8	 mov	 al, BYTE PTR tv181[ebp]
  00066	88 45 ff	 mov	 BYTE PTR $T15[ebp], al

; 153  :         return !(*this == _Right);

  00069	0f b6 45 ff	 movzx	 eax, BYTE PTR $T15[ebp]
  0006d	85 c0		 test	 eax, eax
  0006f	75 09		 jne	 SHORT $LN46@stl_wipe
  00071	c7 45 e4 01 00
	00 00		 mov	 DWORD PTR tv167[ebp], 1
  00078	eb 04		 jmp	 SHORT $LN47@stl_wipe
$LN46@stl_wipe:
  0007a	83 65 e4 00	 and	 DWORD PTR tv167[ebp], 0
$LN47@stl_wipe:
  0007e	8a 45 e4	 mov	 al, BYTE PTR tv167[ebp]
  00081	88 45 fe	 mov	 BYTE PTR $T14[ebp], al
; File D:\Metin2 Server Files\mainline\SRC_2014\Metin2Client\eterBase\Stl.h

; 95   : 	for (TContainer::iterator i = container.begin(); i != container.end(); ++i)

  00084	0f b6 45 fe	 movzx	 eax, BYTE PTR $T14[ebp]
  00088	85 c0		 test	 eax, eax
  0008a	74 5f		 je	 SHORT $LN3@stl_wipe
; File C:\Program Files (x86)\Microsoft Visual Studio\2019\Community\VC\Tools\MSVC\14.28.29333\include\vector

; 54   :         return *_Ptr;

  0008c	8b 45 f8	 mov	 eax, DWORD PTR _i$13[ebp]
  0008f	89 45 cc	 mov	 DWORD PTR $T7[ebp], eax

; 252  :         return const_cast<reference>(_Mybase::operator*());

  00092	8b 45 cc	 mov	 eax, DWORD PTR $T7[ebp]
  00095	89 45 c8	 mov	 DWORD PTR $T6[ebp], eax
; File D:\Metin2 Server Files\mainline\SRC_2014\Metin2Client\eterBase\Stl.h

; 97   : 		delete *i;

  00098	8b 45 c8	 mov	 eax, DWORD PTR $T6[ebp]
  0009b	8b 00		 mov	 eax, DWORD PTR [eax]
  0009d	89 45 f4	 mov	 DWORD PTR $T12[ebp], eax
  000a0	83 7d f4 00	 cmp	 DWORD PTR $T12[ebp], 0
  000a4	74 2a		 je	 SHORT $LN6@stl_wipe
  000a6	8b 45 b4	 mov	 eax, DWORD PTR $T1[ebp]
  000a9	89 45 e0	 mov	 DWORD PTR tv89[ebp], eax
  000ac	8b 4d f4	 mov	 ecx, DWORD PTR $T12[ebp]
  000af	e8 00 00 00 00	 call	 ??1CSnowParticle@@QAE@XZ ; CSnowParticle::~CSnowParticle
  000b4	33 c0		 xor	 eax, eax
  000b6	40		 inc	 eax
  000b7	83 e0 01	 and	 eax, 1
  000ba	74 0c		 je	 SHORT $LN64@stl_wipe
  000bc	6a 48		 push	 72			; 00000048H
  000be	ff 75 f4	 push	 DWORD PTR $T12[ebp]
  000c1	e8 00 00 00 00	 call	 ??3@YAXPAXI@Z		; operator delete
  000c6	59		 pop	 ecx
  000c7	59		 pop	 ecx
$LN64@stl_wipe:
  000c8	8b 45 f4	 mov	 eax, DWORD PTR $T12[ebp]
  000cb	89 45 e0	 mov	 DWORD PTR tv89[ebp], eax
  000ce	eb 04		 jmp	 SHORT $LN7@stl_wipe
$LN6@stl_wipe:
  000d0	83 65 e0 00	 and	 DWORD PTR tv89[ebp], 0
$LN7@stl_wipe:
; File C:\Program Files (x86)\Microsoft Visual Studio\2019\Community\VC\Tools\MSVC\14.28.29333\include\vector

; 54   :         return *_Ptr;

  000d4	8b 45 f8	 mov	 eax, DWORD PTR _i$13[ebp]
  000d7	89 45 c4	 mov	 DWORD PTR $T5[ebp], eax

; 252  :         return const_cast<reference>(_Mybase::operator*());

  000da	8b 45 c4	 mov	 eax, DWORD PTR $T5[ebp]
  000dd	89 45 c0	 mov	 DWORD PTR $T4[ebp], eax
; File D:\Metin2 Server Files\mainline\SRC_2014\Metin2Client\eterBase\Stl.h

; 98   : 		*i = NULL;

  000e0	8b 45 c0	 mov	 eax, DWORD PTR $T4[ebp]
  000e3	83 20 00	 and	 DWORD PTR [eax], 0

; 99   : 	}

  000e6	e9 37 ff ff ff	 jmp	 $LN2@stl_wipe
$LN3@stl_wipe:

; 100  : 	
; 101  : 	container.clear();

  000eb	8b 4d 08	 mov	 ecx, DWORD PTR _container$[ebp]
  000ee	e8 00 00 00 00	 call	 ?clear@?$vector@PAVCSnowParticle@@V?$allocator@PAVCSnowParticle@@@std@@@std@@QAEXXZ ; std::vector<CSnowParticle *,std::allocator<CSnowParticle *> >::clear

; 102  : }

  000f3	c9		 leave
  000f4	c3		 ret	 0
??$stl_wipe@V?$vector@PAVCSnowParticle@@V?$allocator@PAVCSnowParticle@@@std@@@std@@@@YAXAAV?$vector@PAVCSnowParticle@@V?$allocator@PAVCSnowParticle@@@std@@@std@@@Z ENDP ; stl_wipe<std::vector<CSnowParticle *,std::allocator<CSnowParticle *> > >
_TEXT	ENDS
; Function compile flags: /Odspy
; File C:\Program Files (x86)\Microsoft Visual Studio\2019\Community\VC\Tools\MSVC\14.28.29333\include\vector
;	COMDAT ??__F?ms_kVct_SnowParticlePool@CSnowParticle@@2V?$vector@PAVCSnowParticle@@V?$allocator@PAVCSnowParticle@@@std@@@std@@A@@YAXXZ
text$yd	SEGMENT
??__F?ms_kVct_SnowParticlePool@CSnowParticle@@2V?$vector@PAVCSnowParticle@@V?$allocator@PAVCSnowParticle@@@std@@@std@@A@@YAXXZ PROC ; `dynamic atexit destructor for 'CSnowParticle::ms_kVct_SnowParticlePool'', COMDAT
  00000	55		 push	 ebp
  00001	8b ec		 mov	 ebp, esp

; 673  :         _Tidy();

  00003	b9 00 00 00 00	 mov	 ecx, OFFSET ?ms_kVct_SnowParticlePool@CSnowParticle@@2V?$vector@PAVCSnowParticle@@V?$allocator@PAVCSnowParticle@@@std@@@std@@A ; CSnowParticle::ms_kVct_SnowParticlePool
  00008	e8 00 00 00 00	 call	 ?_Tidy@?$vector@PAVCSnowParticle@@V?$allocator@PAVCSnowParticle@@@std@@@std@@AAEXXZ ; std::vector<CSnowParticle *,std::allocator<CSnowParticle *> >::_Tidy
  0000d	5d		 pop	 ebp
  0000e	c3		 ret	 0
??__F?ms_kVct_SnowParticlePool@CSnowParticle@@2V?$vector@PAVCSnowParticle@@V?$allocator@PAVCSnowParticle@@@std@@@std@@A@@YAXXZ ENDP ; `dynamic atexit destructor for 'CSnowParticle::ms_kVct_SnowParticlePool''
text$yd	ENDS
; Function compile flags: /Odspy
; File D:\Metin2 Server Files\mainline\SRC_2014\Metin2Client\GameLib\SnowParticle.cpp
;	COMDAT ??__E?ms_kVct_SnowParticlePool@CSnowParticle@@2V?$vector@PAVCSnowParticle@@V?$allocator@PAVCSnowParticle@@@std@@@std@@A@@YAXXZ
text$di	SEGMENT
??__E?ms_kVct_SnowParticlePool@CSnowParticle@@2V?$vector@PAVCSnowParticle@@V?$allocator@PAVCSnowParticle@@@std@@@std@@A@@YAXXZ PROC ; `dynamic initializer for 'CSnowParticle::ms_kVct_SnowParticlePool'', COMDAT

; 6    : std::vector<CSnowParticle*> CSnowParticle::ms_kVct_SnowParticlePool;

  00000	55		 push	 ebp
  00001	8b ec		 mov	 ebp, esp
  00003	b9 00 00 00 00	 mov	 ecx, OFFSET ?ms_kVct_SnowParticlePool@CSnowParticle@@2V?$vector@PAVCSnowParticle@@V?$allocator@PAVCSnowParticle@@@std@@@std@@A ; CSnowParticle::ms_kVct_SnowParticlePool
  00008	e8 00 00 00 00	 call	 ??0?$vector@PAVCSnowParticle@@V?$allocator@PAVCSnowParticle@@@std@@@std@@QAE@XZ ; std::vector<CSnowParticle *,std::allocator<CSnowParticle *> >::vector<CSnowParticle *,std::allocator<CSnowParticle *> >
  0000d	68 00 00 00 00	 push	 OFFSET ??__F?ms_kVct_SnowParticlePool@CSnowParticle@@2V?$vector@PAVCSnowParticle@@V?$allocator@PAVCSnowParticle@@@std@@@std@@A@@YAXXZ ; `dynamic atexit destructor for 'CSnowParticle::ms_kVct_SnowParticlePool''
  00012	e8 00 00 00 00	 call	 _atexit
  00017	59		 pop	 ecx
  00018	5d		 pop	 ebp
  00019	c3		 ret	 0
??__E?ms_kVct_SnowParticlePool@CSnowParticle@@2V?$vector@PAVCSnowParticle@@V?$allocator@PAVCSnowParticle@@@std@@@std@@A@@YAXXZ ENDP ; `dynamic initializer for 'CSnowParticle::ms_kVct_SnowParticlePool''
text$di	ENDS
; Function compile flags: /Odspy
; File C:\Program Files (x86)\Microsoft Visual Studio\2019\Community\VC\Tools\MSVC\14.28.29333\include\vector
;	COMDAT ?_Xlength@?$vector@PAVCSnowParticle@@V?$allocator@PAVCSnowParticle@@@std@@@std@@CAXXZ
_TEXT	SEGMENT
?_Xlength@?$vector@PAVCSnowParticle@@V?$allocator@PAVCSnowParticle@@@std@@@std@@CAXXZ PROC ; std::vector<CSnowParticle *,std::allocator<CSnowParticle *> >::_Xlength, COMDAT

; 1704 :     [[noreturn]] static void _Xlength() {

  00000	55		 push	 ebp
  00001	8b ec		 mov	 ebp, esp

; 1705 :         _Xlength_error("vector too long");

  00003	68 00 00 00 00	 push	 OFFSET ??_C@_0BA@FOIKENOD@vector?5too?5long@
  00008	e8 00 00 00 00	 call	 ?_Xlength_error@std@@YAXPBD@Z ; std::_Xlength_error
$LN2@Xlength:

; 1706 :     }

  0000d	5d		 pop	 ebp
  0000e	c3		 ret	 0
?_Xlength@?$vector@PAVCSnowParticle@@V?$allocator@PAVCSnowParticle@@@std@@@std@@CAXXZ ENDP ; std::vector<CSnowParticle *,std::allocator<CSnowParticle *> >::_Xlength
_TEXT	ENDS
; Function compile flags: /Odspy
; File C:\Program Files (x86)\Microsoft Visual Studio\2019\Community\VC\Tools\MSVC\14.28.29333\include\vector
; File C:\Program Files (x86)\Microsoft Visual Studio\2019\Community\VC\Tools\MSVC\14.28.29333\include\xmemory
; File C:\Program Files (x86)\Microsoft Visual Studio\2019\Community\VC\Tools\MSVC\14.28.29333\include\vector
; File C:\Program Files (x86)\Microsoft Visual Studio\2019\Community\VC\Tools\MSVC\14.28.29333\include\xmemory
; File C:\Program Files (x86)\Microsoft Visual Studio\2019\Community\VC\Tools\MSVC\14.28.29333\include\vector
; File C:\Program Files (x86)\Microsoft Visual Studio\2019\Community\VC\Tools\MSVC\14.28.29333\include\xmemory
; File C:\Program Files (x86)\Microsoft Visual Studio\2019\Community\VC\Tools\MSVC\14.28.29333\include\vector
;	COMDAT ?_Tidy@?$vector@PAVCSnowParticle@@V?$allocator@PAVCSnowParticle@@@std@@@std@@AAEXXZ
_TEXT	SEGMENT
$T1 = -52						; size = 4
__Ptr$ = -48						; size = 4
__Count$ = -44						; size = 4
$T2 = -40						; size = 4
__First$ = -36						; size = 4
__Last$ = -32						; size = 4
$T3 = -28						; size = 4
$T4 = -24						; size = 4
__Myend$ = -20						; size = 4
__Mylast$ = -16						; size = 4
_this$ = -12						; size = 4
__My_data$ = -8						; size = 4
__Myfirst$ = -4						; size = 4
?_Tidy@?$vector@PAVCSnowParticle@@V?$allocator@PAVCSnowParticle@@@std@@@std@@AAEXXZ PROC ; std::vector<CSnowParticle *,std::allocator<CSnowParticle *> >::_Tidy, COMDAT
; _this$ = ecx

; 1686 :     void _Tidy() noexcept { // free all storage

  00000	55		 push	 ebp
  00001	8b ec		 mov	 ebp, esp
  00003	83 ec 34	 sub	 esp, 52			; 00000034H
  00006	89 4d f4	 mov	 DWORD PTR _this$[ebp], ecx

; 1687 :         auto& _My_data    = _Mypair._Myval2;

  00009	8b 45 f4	 mov	 eax, DWORD PTR _this$[ebp]
  0000c	89 45 f8	 mov	 DWORD PTR __My_data$[ebp], eax

; 1688 :         pointer& _Myfirst = _My_data._Myfirst;

  0000f	8b 45 f8	 mov	 eax, DWORD PTR __My_data$[ebp]
  00012	89 45 fc	 mov	 DWORD PTR __Myfirst$[ebp], eax

; 1689 :         pointer& _Mylast  = _My_data._Mylast;

  00015	8b 45 f8	 mov	 eax, DWORD PTR __My_data$[ebp]
  00018	83 c0 04	 add	 eax, 4
  0001b	89 45 f0	 mov	 DWORD PTR __Mylast$[ebp], eax

; 1690 :         pointer& _Myend   = _My_data._Myend;

  0001e	8b 45 f8	 mov	 eax, DWORD PTR __My_data$[ebp]
  00021	83 c0 08	 add	 eax, 8
  00024	89 45 ec	 mov	 DWORD PTR __Myend$[ebp], eax

; 1691 : 
; 1692 :         _My_data._Orphan_all();
; 1693 : 
; 1694 :         if (_Myfirst) { // destroy and deallocate old array

  00027	8b 45 fc	 mov	 eax, DWORD PTR __Myfirst$[ebp]
  0002a	83 38 00	 cmp	 DWORD PTR [eax], 0
  0002d	74 74		 je	 SHORT $LN3@Tidy

; 1695 :             _Destroy(_Myfirst, _Mylast);

  0002f	8b 45 f0	 mov	 eax, DWORD PTR __Mylast$[ebp]
  00032	8b 00		 mov	 eax, DWORD PTR [eax]
  00034	89 45 e0	 mov	 DWORD PTR __Last$[ebp], eax
  00037	8b 45 fc	 mov	 eax, DWORD PTR __Myfirst$[ebp]
  0003a	8b 00		 mov	 eax, DWORD PTR [eax]
  0003c	89 45 dc	 mov	 DWORD PTR __First$[ebp], eax

; 1733 :         return _Mypair._Get_first();

  0003f	8b 45 f4	 mov	 eax, DWORD PTR _this$[ebp]
; File C:\Program Files (x86)\Microsoft Visual Studio\2019\Community\VC\Tools\MSVC\14.28.29333\include\xmemory

; 1347 :         return *this;

  00042	89 45 e8	 mov	 DWORD PTR $T4[ebp], eax
; File C:\Program Files (x86)\Microsoft Visual Studio\2019\Community\VC\Tools\MSVC\14.28.29333\include\vector

; 1733 :         return _Mypair._Get_first();

  00045	8b 45 e8	 mov	 eax, DWORD PTR $T4[ebp]
  00048	89 45 e4	 mov	 DWORD PTR $T3[ebp], eax

; 1612 :         _Destroy_range(_First, _Last, _Getal());

  0004b	ff 75 e4	 push	 DWORD PTR $T3[ebp]
  0004e	ff 75 e0	 push	 DWORD PTR __Last$[ebp]
  00051	ff 75 dc	 push	 DWORD PTR __First$[ebp]
  00054	e8 00 00 00 00	 call	 ??$_Destroy_range@V?$allocator@PAVCSnowParticle@@@std@@@std@@YAXPAPAVCSnowParticle@@QAPAV1@AAV?$allocator@PAVCSnowParticle@@@0@@Z ; std::_Destroy_range<std::allocator<CSnowParticle *> >
  00059	83 c4 0c	 add	 esp, 12			; 0000000cH

; 1733 :         return _Mypair._Get_first();

  0005c	8b 45 f4	 mov	 eax, DWORD PTR _this$[ebp]
; File C:\Program Files (x86)\Microsoft Visual Studio\2019\Community\VC\Tools\MSVC\14.28.29333\include\xmemory

; 1347 :         return *this;

  0005f	89 45 d8	 mov	 DWORD PTR $T2[ebp], eax
; File C:\Program Files (x86)\Microsoft Visual Studio\2019\Community\VC\Tools\MSVC\14.28.29333\include\vector

; 1733 :         return _Mypair._Get_first();

  00062	8b 45 d8	 mov	 eax, DWORD PTR $T2[ebp]
  00065	89 45 cc	 mov	 DWORD PTR $T1[ebp], eax

; 1696 :             _Getal().deallocate(_Myfirst, static_cast<size_type>(_Myend - _Myfirst));

  00068	8b 45 ec	 mov	 eax, DWORD PTR __Myend$[ebp]
  0006b	8b 4d fc	 mov	 ecx, DWORD PTR __Myfirst$[ebp]
  0006e	8b 00		 mov	 eax, DWORD PTR [eax]
  00070	2b 01		 sub	 eax, DWORD PTR [ecx]
  00072	c1 f8 02	 sar	 eax, 2
  00075	89 45 d4	 mov	 DWORD PTR __Count$[ebp], eax
  00078	8b 45 fc	 mov	 eax, DWORD PTR __Myfirst$[ebp]
  0007b	8b 00		 mov	 eax, DWORD PTR [eax]
  0007d	89 45 d0	 mov	 DWORD PTR __Ptr$[ebp], eax
; File C:\Program Files (x86)\Microsoft Visual Studio\2019\Community\VC\Tools\MSVC\14.28.29333\include\xmemory

; 810  :         _Deallocate<_New_alignof<_Ty>>(_Ptr, sizeof(_Ty) * _Count);

  00080	8b 45 d4	 mov	 eax, DWORD PTR __Count$[ebp]
  00083	c1 e0 02	 shl	 eax, 2
  00086	50		 push	 eax
  00087	ff 75 d0	 push	 DWORD PTR __Ptr$[ebp]
  0008a	e8 00 00 00 00	 call	 ??$_Deallocate@$07$0A@@std@@YAXPAXI@Z ; std::_Deallocate<8,0>
  0008f	59		 pop	 ecx
  00090	59		 pop	 ecx
; File C:\Program Files (x86)\Microsoft Visual Studio\2019\Community\VC\Tools\MSVC\14.28.29333\include\vector

; 1698 :             _Myfirst = pointer();

  00091	8b 45 fc	 mov	 eax, DWORD PTR __Myfirst$[ebp]
  00094	83 20 00	 and	 DWORD PTR [eax], 0

; 1699 :             _Mylast  = pointer();

  00097	8b 45 f0	 mov	 eax, DWORD PTR __Mylast$[ebp]
  0009a	83 20 00	 and	 DWORD PTR [eax], 0

; 1700 :             _Myend   = pointer();

  0009d	8b 45 ec	 mov	 eax, DWORD PTR __Myend$[ebp]
  000a0	83 20 00	 and	 DWORD PTR [eax], 0
$LN3@Tidy:

; 1701 :         }
; 1702 :     }

  000a3	c9		 leave
  000a4	c3		 ret	 0
?_Tidy@?$vector@PAVCSnowParticle@@V?$allocator@PAVCSnowParticle@@@std@@@std@@AAEXXZ ENDP ; std::vector<CSnowParticle *,std::allocator<CSnowParticle *> >::_Tidy
_TEXT	ENDS
; Function compile flags: /Odspy
; File C:\Program Files (x86)\Microsoft Visual Studio\2019\Community\VC\Tools\MSVC\14.28.29333\include\vector
; File C:\Program Files (x86)\Microsoft Visual Studio\2019\Community\VC\Tools\MSVC\14.28.29333\include\xmemory
; File C:\Program Files (x86)\Microsoft Visual Studio\2019\Community\VC\Tools\MSVC\14.28.29333\include\vector
; File C:\Program Files (x86)\Microsoft Visual Studio\2019\Community\VC\Tools\MSVC\14.28.29333\include\xmemory
; File C:\Program Files (x86)\Microsoft Visual Studio\2019\Community\VC\Tools\MSVC\14.28.29333\include\vector
; File C:\Program Files (x86)\Microsoft Visual Studio\2019\Community\VC\Tools\MSVC\14.28.29333\include\xmemory
; File C:\Program Files (x86)\Microsoft Visual Studio\2019\Community\VC\Tools\MSVC\14.28.29333\include\vector
;	COMDAT ?_Change_array@?$vector@PAVCSnowParticle@@V?$allocator@PAVCSnowParticle@@@std@@@std@@AAEXQAPAVCSnowParticle@@II@Z
_TEXT	SEGMENT
$T1 = -52						; size = 4
__Ptr$ = -48						; size = 4
__Count$ = -44						; size = 4
$T2 = -40						; size = 4
__First$ = -36						; size = 4
__Last$ = -32						; size = 4
$T3 = -28						; size = 4
$T4 = -24						; size = 4
__Myend$ = -20						; size = 4
__Mylast$ = -16						; size = 4
_this$ = -12						; size = 4
__My_data$ = -8						; size = 4
__Myfirst$ = -4						; size = 4
__Newvec$ = 8						; size = 4
__Newsize$ = 12						; size = 4
__Newcapacity$ = 16					; size = 4
?_Change_array@?$vector@PAVCSnowParticle@@V?$allocator@PAVCSnowParticle@@@std@@@std@@AAEXQAPAVCSnowParticle@@II@Z PROC ; std::vector<CSnowParticle *,std::allocator<CSnowParticle *> >::_Change_array, COMDAT
; _this$ = ecx

; 1667 :     void _Change_array(const pointer _Newvec, const size_type _Newsize, const size_type _Newcapacity) {

  00000	55		 push	 ebp
  00001	8b ec		 mov	 ebp, esp
  00003	83 ec 34	 sub	 esp, 52			; 00000034H
  00006	89 4d f4	 mov	 DWORD PTR _this$[ebp], ecx

; 1668 :         // orphan all iterators, discard old array, acquire new array
; 1669 :         auto& _My_data    = _Mypair._Myval2;

  00009	8b 45 f4	 mov	 eax, DWORD PTR _this$[ebp]
  0000c	89 45 f8	 mov	 DWORD PTR __My_data$[ebp], eax

; 1670 :         pointer& _Myfirst = _My_data._Myfirst;

  0000f	8b 45 f8	 mov	 eax, DWORD PTR __My_data$[ebp]
  00012	89 45 fc	 mov	 DWORD PTR __Myfirst$[ebp], eax

; 1671 :         pointer& _Mylast  = _My_data._Mylast;

  00015	8b 45 f8	 mov	 eax, DWORD PTR __My_data$[ebp]
  00018	83 c0 04	 add	 eax, 4
  0001b	89 45 f0	 mov	 DWORD PTR __Mylast$[ebp], eax

; 1672 :         pointer& _Myend   = _My_data._Myend;

  0001e	8b 45 f8	 mov	 eax, DWORD PTR __My_data$[ebp]
  00021	83 c0 08	 add	 eax, 8
  00024	89 45 ec	 mov	 DWORD PTR __Myend$[ebp], eax

; 1673 : 
; 1674 :         _My_data._Orphan_all();
; 1675 : 
; 1676 :         if (_Myfirst) { // destroy and deallocate old array

  00027	8b 45 fc	 mov	 eax, DWORD PTR __Myfirst$[ebp]
  0002a	83 38 00	 cmp	 DWORD PTR [eax], 0
  0002d	74 62		 je	 SHORT $LN2@Change_arr

; 1677 :             _Destroy(_Myfirst, _Mylast);

  0002f	8b 45 f0	 mov	 eax, DWORD PTR __Mylast$[ebp]
  00032	8b 00		 mov	 eax, DWORD PTR [eax]
  00034	89 45 e0	 mov	 DWORD PTR __Last$[ebp], eax
  00037	8b 45 fc	 mov	 eax, DWORD PTR __Myfirst$[ebp]
  0003a	8b 00		 mov	 eax, DWORD PTR [eax]
  0003c	89 45 dc	 mov	 DWORD PTR __First$[ebp], eax

; 1733 :         return _Mypair._Get_first();

  0003f	8b 45 f4	 mov	 eax, DWORD PTR _this$[ebp]
; File C:\Program Files (x86)\Microsoft Visual Studio\2019\Community\VC\Tools\MSVC\14.28.29333\include\xmemory

; 1347 :         return *this;

  00042	89 45 e8	 mov	 DWORD PTR $T4[ebp], eax
; File C:\Program Files (x86)\Microsoft Visual Studio\2019\Community\VC\Tools\MSVC\14.28.29333\include\vector

; 1733 :         return _Mypair._Get_first();

  00045	8b 45 e8	 mov	 eax, DWORD PTR $T4[ebp]
  00048	89 45 e4	 mov	 DWORD PTR $T3[ebp], eax

; 1612 :         _Destroy_range(_First, _Last, _Getal());

  0004b	ff 75 e4	 push	 DWORD PTR $T3[ebp]
  0004e	ff 75 e0	 push	 DWORD PTR __Last$[ebp]
  00051	ff 75 dc	 push	 DWORD PTR __First$[ebp]
  00054	e8 00 00 00 00	 call	 ??$_Destroy_range@V?$allocator@PAVCSnowParticle@@@std@@@std@@YAXPAPAVCSnowParticle@@QAPAV1@AAV?$allocator@PAVCSnowParticle@@@0@@Z ; std::_Destroy_range<std::allocator<CSnowParticle *> >
  00059	83 c4 0c	 add	 esp, 12			; 0000000cH

; 1733 :         return _Mypair._Get_first();

  0005c	8b 45 f4	 mov	 eax, DWORD PTR _this$[ebp]
; File C:\Program Files (x86)\Microsoft Visual Studio\2019\Community\VC\Tools\MSVC\14.28.29333\include\xmemory

; 1347 :         return *this;

  0005f	89 45 d8	 mov	 DWORD PTR $T2[ebp], eax
; File C:\Program Files (x86)\Microsoft Visual Studio\2019\Community\VC\Tools\MSVC\14.28.29333\include\vector

; 1733 :         return _Mypair._Get_first();

  00062	8b 45 d8	 mov	 eax, DWORD PTR $T2[ebp]
  00065	89 45 cc	 mov	 DWORD PTR $T1[ebp], eax

; 1678 :             _Getal().deallocate(_Myfirst, static_cast<size_type>(_Myend - _Myfirst));

  00068	8b 45 ec	 mov	 eax, DWORD PTR __Myend$[ebp]
  0006b	8b 4d fc	 mov	 ecx, DWORD PTR __Myfirst$[ebp]
  0006e	8b 00		 mov	 eax, DWORD PTR [eax]
  00070	2b 01		 sub	 eax, DWORD PTR [ecx]
  00072	c1 f8 02	 sar	 eax, 2
  00075	89 45 d4	 mov	 DWORD PTR __Count$[ebp], eax
  00078	8b 45 fc	 mov	 eax, DWORD PTR __Myfirst$[ebp]
  0007b	8b 00		 mov	 eax, DWORD PTR [eax]
  0007d	89 45 d0	 mov	 DWORD PTR __Ptr$[ebp], eax
; File C:\Program Files (x86)\Microsoft Visual Studio\2019\Community\VC\Tools\MSVC\14.28.29333\include\xmemory

; 810  :         _Deallocate<_New_alignof<_Ty>>(_Ptr, sizeof(_Ty) * _Count);

  00080	8b 45 d4	 mov	 eax, DWORD PTR __Count$[ebp]
  00083	c1 e0 02	 shl	 eax, 2
  00086	50		 push	 eax
  00087	ff 75 d0	 push	 DWORD PTR __Ptr$[ebp]
  0008a	e8 00 00 00 00	 call	 ??$_Deallocate@$07$0A@@std@@YAXPAXI@Z ; std::_Deallocate<8,0>
  0008f	59		 pop	 ecx
  00090	59		 pop	 ecx
$LN2@Change_arr:
; File C:\Program Files (x86)\Microsoft Visual Studio\2019\Community\VC\Tools\MSVC\14.28.29333\include\vector

; 1681 :         _Myfirst = _Newvec;

  00091	8b 45 fc	 mov	 eax, DWORD PTR __Myfirst$[ebp]
  00094	8b 4d 08	 mov	 ecx, DWORD PTR __Newvec$[ebp]
  00097	89 08		 mov	 DWORD PTR [eax], ecx

; 1682 :         _Mylast  = _Newvec + _Newsize;

  00099	8b 45 0c	 mov	 eax, DWORD PTR __Newsize$[ebp]
  0009c	8b 4d 08	 mov	 ecx, DWORD PTR __Newvec$[ebp]
  0009f	8d 04 81	 lea	 eax, DWORD PTR [ecx+eax*4]
  000a2	8b 4d f0	 mov	 ecx, DWORD PTR __Mylast$[ebp]
  000a5	89 01		 mov	 DWORD PTR [ecx], eax

; 1683 :         _Myend   = _Newvec + _Newcapacity;

  000a7	8b 45 10	 mov	 eax, DWORD PTR __Newcapacity$[ebp]
  000aa	8b 4d 08	 mov	 ecx, DWORD PTR __Newvec$[ebp]
  000ad	8d 04 81	 lea	 eax, DWORD PTR [ecx+eax*4]
  000b0	8b 4d ec	 mov	 ecx, DWORD PTR __Myend$[ebp]
  000b3	89 01		 mov	 DWORD PTR [ecx], eax

; 1684 :     }

  000b5	c9		 leave
  000b6	c2 0c 00	 ret	 12			; 0000000cH
?_Change_array@?$vector@PAVCSnowParticle@@V?$allocator@PAVCSnowParticle@@@std@@@std@@AAEXQAPAVCSnowParticle@@II@Z ENDP ; std::vector<CSnowParticle *,std::allocator<CSnowParticle *> >::_Change_array
_TEXT	ENDS
; Function compile flags: /Odspy
; File C:\Program Files (x86)\Microsoft Visual Studio\2019\Community\VC\Tools\MSVC\14.28.29333\include\vector
; File C:\Program Files (x86)\Microsoft Visual Studio\2019\Community\VC\Tools\MSVC\14.28.29333\include\xmemory
; File C:\Program Files (x86)\Microsoft Visual Studio\2019\Community\VC\Tools\MSVC\14.28.29333\include\vector
; File C:\Program Files (x86)\Microsoft Visual Studio\2019\Community\VC\Tools\MSVC\14.28.29333\include\xmemory
; File C:\Program Files (x86)\Microsoft Visual Studio\2019\Community\VC\Tools\MSVC\14.28.29333\include\limits
; File C:\Program Files (x86)\Microsoft Visual Studio\2019\Community\VC\Tools\MSVC\14.28.29333\include\vector
; File C:\Program Files (x86)\Microsoft Visual Studio\2019\Community\VC\Tools\MSVC\14.28.29333\include\utility
; File C:\Program Files (x86)\Microsoft Visual Studio\2019\Community\VC\Tools\MSVC\14.28.29333\include\vector
;	COMDAT ?_Calculate_growth@?$vector@PAVCSnowParticle@@V?$allocator@PAVCSnowParticle@@@std@@@std@@ABEII@Z
_TEXT	SEGMENT
$T1 = -52						; size = 4
$T2 = -48						; size = 4
$T3 = -44						; size = 4
$T4 = -40						; size = 4
$T5 = -36						; size = 4
__Geometric$ = -32					; size = 4
__Max$ = -28						; size = 4
tv82 = -24						; size = 4
$T6 = -20						; size = 4
$T7 = -16						; size = 4
_this$ = -12						; size = 4
__My_data$8 = -8					; size = 4
__Oldcapacity$ = -4					; size = 4
__Newsize$ = 8						; size = 4
?_Calculate_growth@?$vector@PAVCSnowParticle@@V?$allocator@PAVCSnowParticle@@@std@@@std@@ABEII@Z PROC ; std::vector<CSnowParticle *,std::allocator<CSnowParticle *> >::_Calculate_growth, COMDAT
; _this$ = ecx

; 1615 :     size_type _Calculate_growth(const size_type _Newsize) const {

  00000	55		 push	 ebp
  00001	8b ec		 mov	 ebp, esp
  00003	83 ec 34	 sub	 esp, 52			; 00000034H
  00006	89 4d f4	 mov	 DWORD PTR _this$[ebp], ecx

; 1493 :         auto& _My_data = _Mypair._Myval2;

  00009	8b 45 f4	 mov	 eax, DWORD PTR _this$[ebp]
  0000c	89 45 f8	 mov	 DWORD PTR __My_data$8[ebp], eax

; 1494 :         return static_cast<size_type>(_My_data._Myend - _My_data._Myfirst);

  0000f	8b 45 f8	 mov	 eax, DWORD PTR __My_data$8[ebp]
  00012	8b 4d f8	 mov	 ecx, DWORD PTR __My_data$8[ebp]
  00015	8b 40 08	 mov	 eax, DWORD PTR [eax+8]
  00018	2b 01		 sub	 eax, DWORD PTR [ecx]
  0001a	c1 f8 02	 sar	 eax, 2
  0001d	89 45 fc	 mov	 DWORD PTR __Oldcapacity$[ebp], eax

; 1737 :         return _Mypair._Get_first();

  00020	8b 45 f4	 mov	 eax, DWORD PTR _this$[ebp]
; File C:\Program Files (x86)\Microsoft Visual Studio\2019\Community\VC\Tools\MSVC\14.28.29333\include\xmemory

; 1351 :         return *this;

  00023	89 45 dc	 mov	 DWORD PTR $T5[ebp], eax
; File C:\Program Files (x86)\Microsoft Visual Studio\2019\Community\VC\Tools\MSVC\14.28.29333\include\vector

; 1737 :         return _Mypair._Get_first();

  00026	8b 45 dc	 mov	 eax, DWORD PTR $T5[ebp]
  00029	89 45 cc	 mov	 DWORD PTR $T1[ebp], eax
; File C:\Program Files (x86)\Microsoft Visual Studio\2019\Community\VC\Tools\MSVC\14.28.29333\include\xmemory

; 710  :         return static_cast<size_t>(-1) / sizeof(value_type);

  0002c	c7 45 f0 ff ff
	ff 3f		 mov	 DWORD PTR $T7[ebp], 1073741823 ; 3fffffffH
; File C:\Program Files (x86)\Microsoft Visual Studio\2019\Community\VC\Tools\MSVC\14.28.29333\include\limits

; 557  :         return INT_MAX;

  00033	c7 45 d8 ff ff
	ff 7f		 mov	 DWORD PTR $T4[ebp], 2147483647 ; 7fffffffH
; File C:\Program Files (x86)\Microsoft Visual Studio\2019\Community\VC\Tools\MSVC\14.28.29333\include\vector

; 1488 :         return (_STD min)(

  0003a	8b 45 d8	 mov	 eax, DWORD PTR $T4[ebp]
  0003d	89 45 ec	 mov	 DWORD PTR $T6[ebp], eax
; File C:\Program Files (x86)\Microsoft Visual Studio\2019\Community\VC\Tools\MSVC\14.28.29333\include\utility

; 68   :     return _Right < _Left ? _Right : _Left;

  00040	8b 45 f0	 mov	 eax, DWORD PTR $T7[ebp]
  00043	3b 45 ec	 cmp	 eax, DWORD PTR $T6[ebp]
  00046	73 08		 jae	 SHORT $LN25@Calculate_
  00048	8d 45 f0	 lea	 eax, DWORD PTR $T7[ebp]
  0004b	89 45 e8	 mov	 DWORD PTR tv82[ebp], eax
  0004e	eb 06		 jmp	 SHORT $LN26@Calculate_
$LN25@Calculate_:
  00050	8d 45 ec	 lea	 eax, DWORD PTR $T6[ebp]
  00053	89 45 e8	 mov	 DWORD PTR tv82[ebp], eax
$LN26@Calculate_:
  00056	8b 45 e8	 mov	 eax, DWORD PTR tv82[ebp]
  00059	89 45 d4	 mov	 DWORD PTR $T3[ebp], eax
  0005c	8b 45 d4	 mov	 eax, DWORD PTR $T3[ebp]
  0005f	89 45 d0	 mov	 DWORD PTR $T2[ebp], eax
; File C:\Program Files (x86)\Microsoft Visual Studio\2019\Community\VC\Tools\MSVC\14.28.29333\include\vector

; 1488 :         return (_STD min)(

  00062	8b 45 d0	 mov	 eax, DWORD PTR $T2[ebp]
  00065	8b 00		 mov	 eax, DWORD PTR [eax]
  00067	89 45 e4	 mov	 DWORD PTR __Max$[ebp], eax

; 1616 :         // given _Oldcapacity and _Newsize, calculate geometric growth
; 1617 :         const size_type _Oldcapacity = capacity();
; 1618 :         const auto _Max              = max_size();
; 1619 : 
; 1620 :         if (_Oldcapacity > _Max - _Oldcapacity / 2) {

  0006a	8b 45 fc	 mov	 eax, DWORD PTR __Oldcapacity$[ebp]
  0006d	d1 e8		 shr	 eax, 1
  0006f	8b 4d e4	 mov	 ecx, DWORD PTR __Max$[ebp]
  00072	2b c8		 sub	 ecx, eax
  00074	39 4d fc	 cmp	 DWORD PTR __Oldcapacity$[ebp], ecx
  00077	76 05		 jbe	 SHORT $LN2@Calculate_

; 1621 :             return _Max; // geometric growth would overflow

  00079	8b 45 e4	 mov	 eax, DWORD PTR __Max$[ebp]
  0007c	eb 1b		 jmp	 SHORT $LN1@Calculate_
$LN2@Calculate_:

; 1622 :         }
; 1623 : 
; 1624 :         const size_type _Geometric = _Oldcapacity + _Oldcapacity / 2;

  0007e	8b 45 fc	 mov	 eax, DWORD PTR __Oldcapacity$[ebp]
  00081	d1 e8		 shr	 eax, 1
  00083	03 45 fc	 add	 eax, DWORD PTR __Oldcapacity$[ebp]
  00086	89 45 e0	 mov	 DWORD PTR __Geometric$[ebp], eax

; 1625 : 
; 1626 :         if (_Geometric < _Newsize) {

  00089	8b 45 e0	 mov	 eax, DWORD PTR __Geometric$[ebp]
  0008c	3b 45 08	 cmp	 eax, DWORD PTR __Newsize$[ebp]
  0008f	73 05		 jae	 SHORT $LN3@Calculate_

; 1627 :             return _Newsize; // geometric growth would be insufficient

  00091	8b 45 08	 mov	 eax, DWORD PTR __Newsize$[ebp]
  00094	eb 03		 jmp	 SHORT $LN1@Calculate_
$LN3@Calculate_:

; 1628 :         }
; 1629 : 
; 1630 :         return _Geometric; // geometric growth is sufficient

  00096	8b 45 e0	 mov	 eax, DWORD PTR __Geometric$[ebp]
$LN1@Calculate_:

; 1631 :     }

  00099	c9		 leave
  0009a	c2 04 00	 ret	 4
?_Calculate_growth@?$vector@PAVCSnowParticle@@V?$allocator@PAVCSnowParticle@@@std@@@std@@ABEII@Z ENDP ; std::vector<CSnowParticle *,std::allocator<CSnowParticle *> >::_Calculate_growth
_TEXT	ENDS
; Function compile flags: /Odspy
; File C:\Program Files (x86)\Microsoft Visual Studio\2019\Community\VC\Tools\MSVC\14.28.29333\include\vector
; File C:\Program Files (x86)\Microsoft Visual Studio\2019\Community\VC\Tools\MSVC\14.28.29333\include\xmemory
; File C:\Program Files (x86)\Microsoft Visual Studio\2019\Community\VC\Tools\MSVC\14.28.29333\include\vector
;	COMDAT ?_Destroy@?$vector@PAVCSnowParticle@@V?$allocator@PAVCSnowParticle@@@std@@@std@@AAEXPAPAVCSnowParticle@@0@Z
_TEXT	SEGMENT
$T1 = -12						; size = 4
$T2 = -8						; size = 4
_this$ = -4						; size = 4
__First$ = 8						; size = 4
__Last$ = 12						; size = 4
?_Destroy@?$vector@PAVCSnowParticle@@V?$allocator@PAVCSnowParticle@@@std@@@std@@AAEXPAPAVCSnowParticle@@0@Z PROC ; std::vector<CSnowParticle *,std::allocator<CSnowParticle *> >::_Destroy, COMDAT
; _this$ = ecx

; 1611 :     void _Destroy(pointer _First, pointer _Last) { // destroy [_First, _Last) using allocator

  00000	55		 push	 ebp
  00001	8b ec		 mov	 ebp, esp
  00003	83 ec 0c	 sub	 esp, 12			; 0000000cH
  00006	89 4d fc	 mov	 DWORD PTR _this$[ebp], ecx

; 1733 :         return _Mypair._Get_first();

  00009	8b 45 fc	 mov	 eax, DWORD PTR _this$[ebp]
; File C:\Program Files (x86)\Microsoft Visual Studio\2019\Community\VC\Tools\MSVC\14.28.29333\include\xmemory

; 1347 :         return *this;

  0000c	89 45 f8	 mov	 DWORD PTR $T2[ebp], eax
; File C:\Program Files (x86)\Microsoft Visual Studio\2019\Community\VC\Tools\MSVC\14.28.29333\include\vector

; 1733 :         return _Mypair._Get_first();

  0000f	8b 45 f8	 mov	 eax, DWORD PTR $T2[ebp]
  00012	89 45 f4	 mov	 DWORD PTR $T1[ebp], eax

; 1612 :         _Destroy_range(_First, _Last, _Getal());

  00015	ff 75 f4	 push	 DWORD PTR $T1[ebp]
  00018	ff 75 0c	 push	 DWORD PTR __Last$[ebp]
  0001b	ff 75 08	 push	 DWORD PTR __First$[ebp]
  0001e	e8 00 00 00 00	 call	 ??$_Destroy_range@V?$allocator@PAVCSnowParticle@@@std@@@std@@YAXPAPAVCSnowParticle@@QAPAV1@AAV?$allocator@PAVCSnowParticle@@@0@@Z ; std::_Destroy_range<std::allocator<CSnowParticle *> >
  00023	83 c4 0c	 add	 esp, 12			; 0000000cH

; 1613 :     }

  00026	c9		 leave
  00027	c2 08 00	 ret	 8
?_Destroy@?$vector@PAVCSnowParticle@@V?$allocator@PAVCSnowParticle@@@std@@@std@@AAEXPAPAVCSnowParticle@@0@Z ENDP ; std::vector<CSnowParticle *,std::allocator<CSnowParticle *> >::_Destroy
_TEXT	ENDS
; Function compile flags: /Odspy
; File C:\Program Files (x86)\Microsoft Visual Studio\2019\Community\VC\Tools\MSVC\14.28.29333\include\vector
; File C:\Program Files (x86)\Microsoft Visual Studio\2019\Community\VC\Tools\MSVC\14.28.29333\include\xmemory
; File C:\Program Files (x86)\Microsoft Visual Studio\2019\Community\VC\Tools\MSVC\14.28.29333\include\vector
;	COMDAT ?clear@?$vector@PAVCSnowParticle@@V?$allocator@PAVCSnowParticle@@@std@@@std@@QAEXXZ
_TEXT	SEGMENT
__First$ = -32						; size = 4
__Last$ = -28						; size = 4
$T1 = -24						; size = 4
$T2 = -20						; size = 4
__Myfirst$ = -16					; size = 4
__Mylast$ = -12						; size = 4
_this$ = -8						; size = 4
__My_data$ = -4						; size = 4
?clear@?$vector@PAVCSnowParticle@@V?$allocator@PAVCSnowParticle@@@std@@@std@@QAEXXZ PROC ; std::vector<CSnowParticle *,std::allocator<CSnowParticle *> >::clear, COMDAT
; _this$ = ecx

; 1383 :     void clear() noexcept { // erase all

  00000	55		 push	 ebp
  00001	8b ec		 mov	 ebp, esp
  00003	83 ec 20	 sub	 esp, 32			; 00000020H
  00006	89 4d f8	 mov	 DWORD PTR _this$[ebp], ecx

; 1384 :         auto& _My_data    = _Mypair._Myval2;

  00009	8b 45 f8	 mov	 eax, DWORD PTR _this$[ebp]
  0000c	89 45 fc	 mov	 DWORD PTR __My_data$[ebp], eax

; 1385 :         pointer& _Myfirst = _My_data._Myfirst;

  0000f	8b 45 fc	 mov	 eax, DWORD PTR __My_data$[ebp]
  00012	89 45 f0	 mov	 DWORD PTR __Myfirst$[ebp], eax

; 1386 :         pointer& _Mylast  = _My_data._Mylast;

  00015	8b 45 fc	 mov	 eax, DWORD PTR __My_data$[ebp]
  00018	83 c0 04	 add	 eax, 4
  0001b	89 45 f4	 mov	 DWORD PTR __Mylast$[ebp], eax

; 1387 : 
; 1388 :         _My_data._Orphan_all();
; 1389 :         _Destroy(_Myfirst, _Mylast);

  0001e	8b 45 f4	 mov	 eax, DWORD PTR __Mylast$[ebp]
  00021	8b 00		 mov	 eax, DWORD PTR [eax]
  00023	89 45 e4	 mov	 DWORD PTR __Last$[ebp], eax
  00026	8b 45 f0	 mov	 eax, DWORD PTR __Myfirst$[ebp]
  00029	8b 00		 mov	 eax, DWORD PTR [eax]
  0002b	89 45 e0	 mov	 DWORD PTR __First$[ebp], eax

; 1733 :         return _Mypair._Get_first();

  0002e	8b 45 f8	 mov	 eax, DWORD PTR _this$[ebp]
; File C:\Program Files (x86)\Microsoft Visual Studio\2019\Community\VC\Tools\MSVC\14.28.29333\include\xmemory

; 1347 :         return *this;

  00031	89 45 ec	 mov	 DWORD PTR $T2[ebp], eax
; File C:\Program Files (x86)\Microsoft Visual Studio\2019\Community\VC\Tools\MSVC\14.28.29333\include\vector

; 1733 :         return _Mypair._Get_first();

  00034	8b 45 ec	 mov	 eax, DWORD PTR $T2[ebp]
  00037	89 45 e8	 mov	 DWORD PTR $T1[ebp], eax

; 1612 :         _Destroy_range(_First, _Last, _Getal());

  0003a	ff 75 e8	 push	 DWORD PTR $T1[ebp]
  0003d	ff 75 e4	 push	 DWORD PTR __Last$[ebp]
  00040	ff 75 e0	 push	 DWORD PTR __First$[ebp]
  00043	e8 00 00 00 00	 call	 ??$_Destroy_range@V?$allocator@PAVCSnowParticle@@@std@@@std@@YAXPAPAVCSnowParticle@@QAPAV1@AAV?$allocator@PAVCSnowParticle@@@0@@Z ; std::_Destroy_range<std::allocator<CSnowParticle *> >
  00048	83 c4 0c	 add	 esp, 12			; 0000000cH

; 1390 :         _Mylast = _Myfirst;

  0004b	8b 45 f4	 mov	 eax, DWORD PTR __Mylast$[ebp]
  0004e	8b 4d f0	 mov	 ecx, DWORD PTR __Myfirst$[ebp]
  00051	8b 09		 mov	 ecx, DWORD PTR [ecx]
  00053	89 08		 mov	 DWORD PTR [eax], ecx

; 1391 :     }

  00055	c9		 leave
  00056	c3		 ret	 0
?clear@?$vector@PAVCSnowParticle@@V?$allocator@PAVCSnowParticle@@@std@@@std@@QAEXXZ ENDP ; std::vector<CSnowParticle *,std::allocator<CSnowParticle *> >::clear
_TEXT	ENDS
; Function compile flags: /Odspy
; File C:\Program Files (x86)\Microsoft Visual Studio\2019\Community\VC\Tools\MSVC\14.28.29333\include\vector
; File C:\Program Files (x86)\Microsoft Visual Studio\2019\Community\VC\Tools\MSVC\14.28.29333\include\xmemory
; File C:\Program Files (x86)\Microsoft Visual Studio\2019\Community\VC\Tools\MSVC\14.28.29333\include\vector
;	COMDAT ??0?$vector@PAVCSnowParticle@@V?$allocator@PAVCSnowParticle@@@std@@@std@@QAE@XZ
_TEXT	SEGMENT
_this$ = -12						; size = 4
_this$ = -8						; size = 4
_this$ = -4						; size = 4
??0?$vector@PAVCSnowParticle@@V?$allocator@PAVCSnowParticle@@@std@@@std@@QAE@XZ PROC ; std::vector<CSnowParticle *,std::allocator<CSnowParticle *> >::vector<CSnowParticle *,std::allocator<CSnowParticle *> >, COMDAT
; _this$ = ecx

; 445  :     vector() noexcept(is_nothrow_default_constructible_v<_Alty>) : _Mypair(_Zero_then_variadic_args_t{}) {

  00000	55		 push	 ebp
  00001	8b ec		 mov	 ebp, esp
  00003	83 ec 0c	 sub	 esp, 12			; 0000000cH
  00006	89 4d f8	 mov	 DWORD PTR _this$[ebp], ecx
  00009	8b 45 f8	 mov	 eax, DWORD PTR _this$[ebp]
  0000c	89 45 f4	 mov	 DWORD PTR _this$[ebp], eax
; File C:\Program Files (x86)\Microsoft Visual Studio\2019\Community\VC\Tools\MSVC\14.28.29333\include\xmemory

; 1339 :         : _Ty1(), _Myval2(_STD forward<_Other2>(_Val2)...) {}

  0000f	8b 45 f4	 mov	 eax, DWORD PTR _this$[ebp]
  00012	89 45 fc	 mov	 DWORD PTR _this$[ebp], eax
; File C:\Program Files (x86)\Microsoft Visual Studio\2019\Community\VC\Tools\MSVC\14.28.29333\include\vector

; 375  :     _Vector_val() noexcept : _Myfirst(), _Mylast(), _Myend() {}

  00015	8b 45 fc	 mov	 eax, DWORD PTR _this$[ebp]
  00018	83 20 00	 and	 DWORD PTR [eax], 0
  0001b	8b 45 fc	 mov	 eax, DWORD PTR _this$[ebp]
  0001e	83 60 04 00	 and	 DWORD PTR [eax+4], 0
  00022	8b 45 fc	 mov	 eax, DWORD PTR _this$[ebp]
  00025	83 60 08 00	 and	 DWORD PTR [eax+8], 0

; 446  :         _Mypair._Myval2._Alloc_proxy(_GET_PROXY_ALLOCATOR(_Alty, _Getal()));
; 447  :     }

  00029	8b 45 f8	 mov	 eax, DWORD PTR _this$[ebp]
  0002c	c9		 leave
  0002d	c3		 ret	 0
??0?$vector@PAVCSnowParticle@@V?$allocator@PAVCSnowParticle@@@std@@@std@@QAE@XZ ENDP ; std::vector<CSnowParticle *,std::allocator<CSnowParticle *> >::vector<CSnowParticle *,std::allocator<CSnowParticle *> >
_TEXT	ENDS
; Function compile flags: /Odspy
; File C:\Program Files (x86)\Microsoft Visual Studio\2019\Community\VC\Tools\MSVC\14.28.29333\include\xmemory
;	COMDAT ?deallocate@?$allocator@PAVCSnowParticle@@@std@@QAEXQAPAVCSnowParticle@@I@Z
_TEXT	SEGMENT
_this$ = -4						; size = 4
__Ptr$ = 8						; size = 4
__Count$ = 12						; size = 4
?deallocate@?$allocator@PAVCSnowParticle@@@std@@QAEXQAPAVCSnowParticle@@I@Z PROC ; std::allocator<CSnowParticle *>::deallocate, COMDAT
; _this$ = ecx

; 808  :     void deallocate(_Ty* const _Ptr, const size_t _Count) {

  00000	55		 push	 ebp
  00001	8b ec		 mov	 ebp, esp
  00003	51		 push	 ecx
  00004	89 4d fc	 mov	 DWORD PTR _this$[ebp], ecx

; 809  :         // no overflow check on the following multiply; we assume _Allocate did that check
; 810  :         _Deallocate<_New_alignof<_Ty>>(_Ptr, sizeof(_Ty) * _Count);

  00007	8b 45 0c	 mov	 eax, DWORD PTR __Count$[ebp]
  0000a	c1 e0 02	 shl	 eax, 2
  0000d	50		 push	 eax
  0000e	ff 75 08	 push	 DWORD PTR __Ptr$[ebp]
  00011	e8 00 00 00 00	 call	 ??$_Deallocate@$07$0A@@std@@YAXPAXI@Z ; std::_Deallocate<8,0>
  00016	59		 pop	 ecx
  00017	59		 pop	 ecx

; 811  :     }

  00018	c9		 leave
  00019	c2 08 00	 ret	 8
?deallocate@?$allocator@PAVCSnowParticle@@@std@@QAEXQAPAVCSnowParticle@@I@Z ENDP ; std::allocator<CSnowParticle *>::deallocate
_TEXT	ENDS
; Function compile flags: /Odspy
; File D:\Metin2 Server Files\mainline\SRC_2014\Metin2Client\GameLib\SnowParticle.cpp
; File D:\Metin2 Server Files\mainline\SRC_2014\M2Data\include\d3dx8math.inl
; File D:\Metin2 Server Files\mainline\SRC_2014\Metin2Client\GameLib\SnowParticle.cpp
; File D:\Metin2 Server Files\mainline\SRC_2014\M2Data\include\d3dx8math.inl
; File D:\Metin2 Server Files\mainline\SRC_2014\Metin2Client\GameLib\SnowParticle.cpp
; File D:\Metin2 Server Files\mainline\SRC_2014\M2Data\include\d3dx8math.inl
; File D:\Metin2 Server Files\mainline\SRC_2014\Metin2Client\GameLib\SnowParticle.cpp
; File D:\Metin2 Server Files\mainline\SRC_2014\M2Data\include\d3dx8math.inl
; File D:\Metin2 Server Files\mainline\SRC_2014\Metin2Client\GameLib\SnowParticle.cpp
; File D:\Metin2 Server Files\mainline\SRC_2014\M2Data\include\d3dx8math.inl
; File D:\Metin2 Server Files\mainline\SRC_2014\Metin2Client\GameLib\SnowParticle.cpp
; File D:\Metin2 Server Files\mainline\SRC_2014\M2Data\include\d3dx8math.inl
; File D:\Metin2 Server Files\mainline\SRC_2014\Metin2Client\GameLib\SnowParticle.cpp
; File D:\Metin2 Server Files\mainline\SRC_2014\M2Data\include\d3dx8math.inl
; File D:\Metin2 Server Files\mainline\SRC_2014\Metin2Client\GameLib\SnowParticle.cpp
; File D:\Metin2 Server Files\mainline\SRC_2014\M2Data\include\d3dx8math.inl
; File D:\Metin2 Server Files\mainline\SRC_2014\Metin2Client\GameLib\SnowParticle.cpp
;	COMDAT ?GetVerticies@CSnowParticle@@QAEXAAUSParticleVertex@@000@Z
_TEXT	SEGMENT
_fx$ = -144						; size = 4
_fz$ = -140						; size = 4
_fx$ = -136						; size = 4
_fy$ = -132						; size = 4
_fz$ = -128						; size = 4
_fx$ = -124						; size = 4
_fx$ = -120						; size = 4
_fy$ = -116						; size = 4
_fz$ = -112						; size = 4
_fy$ = -108						; size = 4
_fz$ = -104						; size = 4
_fz$ = -100						; size = 4
_fy$ = -96						; size = 4
_fx$ = -92						; size = 4
_fz$ = -88						; size = 4
_fy$ = -84						; size = 4
_fx$ = -80						; size = 4
_fz$ = -76						; size = 4
_fy$ = -72						; size = 4
_fx$ = -68						; size = 4
_fz$ = -64						; size = 4
_fy$ = -60						; size = 4
_fy$ = -56						; size = 4
_fx$ = -52						; size = 4
_v$ = -48						; size = 4
_v$ = -44						; size = 4
_v$ = -40						; size = 4
_this$ = -36						; size = 4
_v$ = -32						; size = 4
_v$ = -28						; size = 4
_this$ = -24						; size = 4
_v$ = -20						; size = 4
_this$ = -16						; size = 4
_v$ = -12						; size = 4
_v$ = -8						; size = 4
_this$ = -4						; size = 4
_this$ = 0						; size = 4
$T1 = 4							; size = 12
$T2 = 16						; size = 12
$T3 = 28						; size = 12
$T4 = 40						; size = 12
$T5 = 52						; size = 12
$T6 = 64						; size = 12
$T7 = 76						; size = 12
$T8 = 88						; size = 12
__$ArrayPad$ = 100					; size = 4
_rv3Vertex1$ = 112					; size = 4
_rv3Vertex2$ = 116					; size = 4
_rv3Vertex3$ = 120					; size = 4
_rv3Vertex4$ = 124					; size = 4
?GetVerticies@CSnowParticle@@QAEXAAUSParticleVertex@@000@Z PROC ; CSnowParticle::GetVerticies, COMDAT
; _this$ = ecx

; 37   : {

  00000	55		 push	 ebp
  00001	8d 6c 24 98	 lea	 ebp, DWORD PTR [esp-104]
  00005	81 ec f8 00 00
	00		 sub	 esp, 248		; 000000f8H
  0000b	a1 00 00 00 00	 mov	 eax, DWORD PTR ___security_cookie
  00010	33 c5		 xor	 eax, ebp
  00012	89 45 64	 mov	 DWORD PTR __$ArrayPad$[ebp], eax
  00015	56		 push	 esi
  00016	57		 push	 edi
  00017	89 4d 00	 mov	 DWORD PTR _this$[ebp], ecx

; 38   : 	rv3Vertex1.v3Pos = m_v3Position - m_v3Cross - m_v3Up;

  0001a	8b 45 00	 mov	 eax, DWORD PTR _this$[ebp]
  0001d	83 c0 30	 add	 eax, 48			; 00000030H
  00020	89 45 f8	 mov	 DWORD PTR _v$[ebp], eax
  00023	8b 45 00	 mov	 eax, DWORD PTR _this$[ebp]
  00026	83 c0 18	 add	 eax, 24			; 00000018H
  00029	89 45 fc	 mov	 DWORD PTR _this$[ebp], eax
; File D:\Metin2 Server Files\mainline\SRC_2014\M2Data\include\d3dx8math.inl

; 263  :     return D3DXVECTOR3(x - v.x, y - v.y, z - v.z);

  0002c	8b 45 fc	 mov	 eax, DWORD PTR _this$[ebp]
  0002f	8b 4d f8	 mov	 ecx, DWORD PTR _v$[ebp]
  00032	f3 0f 10 00	 movss	 xmm0, DWORD PTR [eax]
  00036	f3 0f 5c 01	 subss	 xmm0, DWORD PTR [ecx]
  0003a	f3 0f 11 45 cc	 movss	 DWORD PTR _fx$[ebp], xmm0
  0003f	8b 45 fc	 mov	 eax, DWORD PTR _this$[ebp]
  00042	8b 4d f8	 mov	 ecx, DWORD PTR _v$[ebp]
  00045	f3 0f 10 40 04	 movss	 xmm0, DWORD PTR [eax+4]
  0004a	f3 0f 5c 41 04	 subss	 xmm0, DWORD PTR [ecx+4]
  0004f	f3 0f 11 45 c8	 movss	 DWORD PTR _fy$[ebp], xmm0
  00054	8b 45 fc	 mov	 eax, DWORD PTR _this$[ebp]
  00057	8b 4d f8	 mov	 ecx, DWORD PTR _v$[ebp]
  0005a	f3 0f 10 40 08	 movss	 xmm0, DWORD PTR [eax+8]
  0005f	f3 0f 5c 41 08	 subss	 xmm0, DWORD PTR [ecx+8]
  00064	f3 0f 11 85 74
	ff ff ff	 movss	 DWORD PTR _fz$[ebp], xmm0

; 180  :     x = fx;

  0006c	f3 0f 10 45 cc	 movss	 xmm0, DWORD PTR _fx$[ebp]
  00071	f3 0f 11 45 40	 movss	 DWORD PTR $T6[ebp], xmm0

; 181  :     y = fy;

  00076	f3 0f 10 45 c8	 movss	 xmm0, DWORD PTR _fy$[ebp]
  0007b	f3 0f 11 45 44	 movss	 DWORD PTR $T6[ebp+4], xmm0

; 182  :     z = fz;

  00080	f3 0f 10 85 74
	ff ff ff	 movss	 xmm0, DWORD PTR _fz$[ebp]
  00088	f3 0f 11 45 48	 movss	 DWORD PTR $T6[ebp+8], xmm0
; File D:\Metin2 Server Files\mainline\SRC_2014\Metin2Client\GameLib\SnowParticle.cpp

; 38   : 	rv3Vertex1.v3Pos = m_v3Position - m_v3Cross - m_v3Up;

  0008d	8b 45 00	 mov	 eax, DWORD PTR _this$[ebp]
  00090	83 c0 24	 add	 eax, 36			; 00000024H
  00093	89 45 f4	 mov	 DWORD PTR _v$[ebp], eax
; File D:\Metin2 Server Files\mainline\SRC_2014\M2Data\include\d3dx8math.inl

; 263  :     return D3DXVECTOR3(x - v.x, y - v.y, z - v.z);

  00096	8b 45 f4	 mov	 eax, DWORD PTR _v$[ebp]
  00099	f3 0f 10 45 40	 movss	 xmm0, DWORD PTR $T6[ebp]
  0009e	f3 0f 5c 00	 subss	 xmm0, DWORD PTR [eax]
  000a2	f3 0f 11 85 78
	ff ff ff	 movss	 DWORD PTR _fx$[ebp], xmm0
  000aa	8b 45 f4	 mov	 eax, DWORD PTR _v$[ebp]
  000ad	f3 0f 10 45 44	 movss	 xmm0, DWORD PTR $T6[ebp+4]
  000b2	f3 0f 5c 40 04	 subss	 xmm0, DWORD PTR [eax+4]
  000b7	f3 0f 11 85 7c
	ff ff ff	 movss	 DWORD PTR _fy$[ebp], xmm0
  000bf	8b 45 f4	 mov	 eax, DWORD PTR _v$[ebp]
  000c2	f3 0f 10 45 48	 movss	 xmm0, DWORD PTR $T6[ebp+8]
  000c7	f3 0f 5c 40 08	 subss	 xmm0, DWORD PTR [eax+8]
  000cc	f3 0f 11 45 80	 movss	 DWORD PTR _fz$[ebp], xmm0

; 180  :     x = fx;

  000d1	f3 0f 10 85 78
	ff ff ff	 movss	 xmm0, DWORD PTR _fx$[ebp]
  000d9	f3 0f 11 45 1c	 movss	 DWORD PTR $T3[ebp], xmm0

; 181  :     y = fy;

  000de	f3 0f 10 85 7c
	ff ff ff	 movss	 xmm0, DWORD PTR _fy$[ebp]
  000e6	f3 0f 11 45 20	 movss	 DWORD PTR $T3[ebp+4], xmm0

; 182  :     z = fz;

  000eb	f3 0f 10 45 80	 movss	 xmm0, DWORD PTR _fz$[ebp]
  000f0	f3 0f 11 45 24	 movss	 DWORD PTR $T3[ebp+8], xmm0
; File D:\Metin2 Server Files\mainline\SRC_2014\Metin2Client\GameLib\SnowParticle.cpp

; 38   : 	rv3Vertex1.v3Pos = m_v3Position - m_v3Cross - m_v3Up;

  000f5	8d 75 1c	 lea	 esi, DWORD PTR $T3[ebp]
  000f8	8b 7d 70	 mov	 edi, DWORD PTR _rv3Vertex1$[ebp]
  000fb	a5		 movsd
  000fc	a5		 movsd
  000fd	a5		 movsd

; 39   : 	rv3Vertex1.u = 0.0f;

  000fe	8b 45 70	 mov	 eax, DWORD PTR _rv3Vertex1$[ebp]
  00101	0f 57 c0	 xorps	 xmm0, xmm0
  00104	f3 0f 11 40 0c	 movss	 DWORD PTR [eax+12], xmm0

; 40   : 	rv3Vertex1.v = 0.0f;

  00109	8b 45 70	 mov	 eax, DWORD PTR _rv3Vertex1$[ebp]
  0010c	0f 57 c0	 xorps	 xmm0, xmm0
  0010f	f3 0f 11 40 10	 movss	 DWORD PTR [eax+16], xmm0

; 42   : 	rv3Vertex2.v3Pos = m_v3Position + m_v3Cross - m_v3Up;

  00114	8b 45 00	 mov	 eax, DWORD PTR _this$[ebp]
  00117	83 c0 30	 add	 eax, 48			; 00000030H
  0011a	89 45 d0	 mov	 DWORD PTR _v$[ebp], eax
  0011d	8b 45 00	 mov	 eax, DWORD PTR _this$[ebp]
  00120	83 c0 18	 add	 eax, 24			; 00000018H
  00123	89 45 f0	 mov	 DWORD PTR _this$[ebp], eax
; File D:\Metin2 Server Files\mainline\SRC_2014\M2Data\include\d3dx8math.inl

; 257  :     return D3DXVECTOR3(x + v.x, y + v.y, z + v.z);

  00126	8b 45 f0	 mov	 eax, DWORD PTR _this$[ebp]
  00129	8b 4d d0	 mov	 ecx, DWORD PTR _v$[ebp]
  0012c	f3 0f 10 00	 movss	 xmm0, DWORD PTR [eax]
  00130	f3 0f 58 01	 addss	 xmm0, DWORD PTR [ecx]
  00134	f3 0f 11 45 88	 movss	 DWORD PTR _fx$[ebp], xmm0
  00139	8b 45 f0	 mov	 eax, DWORD PTR _this$[ebp]
  0013c	8b 4d d0	 mov	 ecx, DWORD PTR _v$[ebp]
  0013f	f3 0f 10 40 04	 movss	 xmm0, DWORD PTR [eax+4]
  00144	f3 0f 58 41 04	 addss	 xmm0, DWORD PTR [ecx+4]
  00149	f3 0f 11 45 8c	 movss	 DWORD PTR _fy$[ebp], xmm0
  0014e	8b 45 f0	 mov	 eax, DWORD PTR _this$[ebp]
  00151	8b 4d d0	 mov	 ecx, DWORD PTR _v$[ebp]
  00154	f3 0f 10 40 08	 movss	 xmm0, DWORD PTR [eax+8]
  00159	f3 0f 58 41 08	 addss	 xmm0, DWORD PTR [ecx+8]
  0015e	f3 0f 11 45 98	 movss	 DWORD PTR _fz$[ebp], xmm0

; 180  :     x = fx;

  00163	f3 0f 10 45 88	 movss	 xmm0, DWORD PTR _fx$[ebp]
  00168	f3 0f 11 45 4c	 movss	 DWORD PTR $T7[ebp], xmm0

; 181  :     y = fy;

  0016d	f3 0f 10 45 8c	 movss	 xmm0, DWORD PTR _fy$[ebp]
  00172	f3 0f 11 45 50	 movss	 DWORD PTR $T7[ebp+4], xmm0

; 182  :     z = fz;

  00177	f3 0f 10 45 98	 movss	 xmm0, DWORD PTR _fz$[ebp]
  0017c	f3 0f 11 45 54	 movss	 DWORD PTR $T7[ebp+8], xmm0
; File D:\Metin2 Server Files\mainline\SRC_2014\Metin2Client\GameLib\SnowParticle.cpp

; 42   : 	rv3Vertex2.v3Pos = m_v3Position + m_v3Cross - m_v3Up;

  00181	8b 45 00	 mov	 eax, DWORD PTR _this$[ebp]
  00184	83 c0 24	 add	 eax, 36			; 00000024H
  00187	89 45 ec	 mov	 DWORD PTR _v$[ebp], eax
; File D:\Metin2 Server Files\mainline\SRC_2014\M2Data\include\d3dx8math.inl

; 263  :     return D3DXVECTOR3(x - v.x, y - v.y, z - v.z);

  0018a	8b 45 ec	 mov	 eax, DWORD PTR _v$[ebp]
  0018d	f3 0f 10 45 4c	 movss	 xmm0, DWORD PTR $T7[ebp]
  00192	f3 0f 5c 00	 subss	 xmm0, DWORD PTR [eax]
  00196	f3 0f 11 45 84	 movss	 DWORD PTR _fx$[ebp], xmm0
  0019b	8b 45 ec	 mov	 eax, DWORD PTR _v$[ebp]
  0019e	f3 0f 10 45 50	 movss	 xmm0, DWORD PTR $T7[ebp+4]
  001a3	f3 0f 5c 40 04	 subss	 xmm0, DWORD PTR [eax+4]
  001a8	f3 0f 11 45 c4	 movss	 DWORD PTR _fy$[ebp], xmm0
  001ad	8b 45 ec	 mov	 eax, DWORD PTR _v$[ebp]
  001b0	f3 0f 10 45 54	 movss	 xmm0, DWORD PTR $T7[ebp+8]
  001b5	f3 0f 5c 40 08	 subss	 xmm0, DWORD PTR [eax+8]
  001ba	f3 0f 11 45 c0	 movss	 DWORD PTR _fz$[ebp], xmm0

; 180  :     x = fx;

  001bf	f3 0f 10 45 84	 movss	 xmm0, DWORD PTR _fx$[ebp]
  001c4	f3 0f 11 45 28	 movss	 DWORD PTR $T4[ebp], xmm0

; 181  :     y = fy;

  001c9	f3 0f 10 45 c4	 movss	 xmm0, DWORD PTR _fy$[ebp]
  001ce	f3 0f 11 45 2c	 movss	 DWORD PTR $T4[ebp+4], xmm0

; 182  :     z = fz;

  001d3	f3 0f 10 45 c0	 movss	 xmm0, DWORD PTR _fz$[ebp]
  001d8	f3 0f 11 45 30	 movss	 DWORD PTR $T4[ebp+8], xmm0
; File D:\Metin2 Server Files\mainline\SRC_2014\Metin2Client\GameLib\SnowParticle.cpp

; 42   : 	rv3Vertex2.v3Pos = m_v3Position + m_v3Cross - m_v3Up;

  001dd	8d 75 28	 lea	 esi, DWORD PTR $T4[ebp]
  001e0	8b 7d 74	 mov	 edi, DWORD PTR _rv3Vertex2$[ebp]
  001e3	a5		 movsd
  001e4	a5		 movsd
  001e5	a5		 movsd

; 43   : 	rv3Vertex2.u = 1.0f;

  001e6	8b 45 74	 mov	 eax, DWORD PTR _rv3Vertex2$[ebp]
  001e9	f3 0f 10 05 00
	00 00 00	 movss	 xmm0, DWORD PTR __real@3f800000
  001f1	f3 0f 11 40 0c	 movss	 DWORD PTR [eax+12], xmm0

; 44   : 	rv3Vertex2.v = 0.0f;

  001f6	8b 45 74	 mov	 eax, DWORD PTR _rv3Vertex2$[ebp]
  001f9	0f 57 c0	 xorps	 xmm0, xmm0
  001fc	f3 0f 11 40 10	 movss	 DWORD PTR [eax+16], xmm0

; 46   : 	rv3Vertex3.v3Pos = m_v3Position - m_v3Cross + m_v3Up;

  00201	8b 45 00	 mov	 eax, DWORD PTR _this$[ebp]
  00204	83 c0 30	 add	 eax, 48			; 00000030H
  00207	89 45 e4	 mov	 DWORD PTR _v$[ebp], eax
  0020a	8b 45 00	 mov	 eax, DWORD PTR _this$[ebp]
  0020d	83 c0 18	 add	 eax, 24			; 00000018H
  00210	89 45 e8	 mov	 DWORD PTR _this$[ebp], eax
; File D:\Metin2 Server Files\mainline\SRC_2014\M2Data\include\d3dx8math.inl

; 263  :     return D3DXVECTOR3(x - v.x, y - v.y, z - v.z);

  00213	8b 45 e8	 mov	 eax, DWORD PTR _this$[ebp]
  00216	8b 4d e4	 mov	 ecx, DWORD PTR _v$[ebp]
  00219	f3 0f 10 00	 movss	 xmm0, DWORD PTR [eax]
  0021d	f3 0f 5c 01	 subss	 xmm0, DWORD PTR [ecx]
  00221	f3 0f 11 45 bc	 movss	 DWORD PTR _fx$[ebp], xmm0
  00226	8b 45 e8	 mov	 eax, DWORD PTR _this$[ebp]
  00229	8b 4d e4	 mov	 ecx, DWORD PTR _v$[ebp]
  0022c	f3 0f 10 40 04	 movss	 xmm0, DWORD PTR [eax+4]
  00231	f3 0f 5c 41 04	 subss	 xmm0, DWORD PTR [ecx+4]
  00236	f3 0f 11 45 b8	 movss	 DWORD PTR _fy$[ebp], xmm0
  0023b	8b 45 e8	 mov	 eax, DWORD PTR _this$[ebp]
  0023e	8b 4d e4	 mov	 ecx, DWORD PTR _v$[ebp]
  00241	f3 0f 10 40 08	 movss	 xmm0, DWORD PTR [eax+8]
  00246	f3 0f 5c 41 08	 subss	 xmm0, DWORD PTR [ecx+8]
  0024b	f3 0f 11 45 b4	 movss	 DWORD PTR _fz$[ebp], xmm0

; 180  :     x = fx;

  00250	f3 0f 10 45 bc	 movss	 xmm0, DWORD PTR _fx$[ebp]
  00255	f3 0f 11 45 34	 movss	 DWORD PTR $T5[ebp], xmm0

; 181  :     y = fy;

  0025a	f3 0f 10 45 b8	 movss	 xmm0, DWORD PTR _fy$[ebp]
  0025f	f3 0f 11 45 38	 movss	 DWORD PTR $T5[ebp+4], xmm0

; 182  :     z = fz;

  00264	f3 0f 10 45 b4	 movss	 xmm0, DWORD PTR _fz$[ebp]
  00269	f3 0f 11 45 3c	 movss	 DWORD PTR $T5[ebp+8], xmm0
; File D:\Metin2 Server Files\mainline\SRC_2014\Metin2Client\GameLib\SnowParticle.cpp

; 46   : 	rv3Vertex3.v3Pos = m_v3Position - m_v3Cross + m_v3Up;

  0026e	8b 45 00	 mov	 eax, DWORD PTR _this$[ebp]
  00271	83 c0 24	 add	 eax, 36			; 00000024H
  00274	89 45 e0	 mov	 DWORD PTR _v$[ebp], eax
; File D:\Metin2 Server Files\mainline\SRC_2014\M2Data\include\d3dx8math.inl

; 257  :     return D3DXVECTOR3(x + v.x, y + v.y, z + v.z);

  00277	8b 45 e0	 mov	 eax, DWORD PTR _v$[ebp]
  0027a	f3 0f 10 45 34	 movss	 xmm0, DWORD PTR $T5[ebp]
  0027f	f3 0f 58 00	 addss	 xmm0, DWORD PTR [eax]
  00283	f3 0f 11 45 b0	 movss	 DWORD PTR _fx$[ebp], xmm0
  00288	8b 45 e0	 mov	 eax, DWORD PTR _v$[ebp]
  0028b	f3 0f 10 45 38	 movss	 xmm0, DWORD PTR $T5[ebp+4]
  00290	f3 0f 58 40 04	 addss	 xmm0, DWORD PTR [eax+4]
  00295	f3 0f 11 45 ac	 movss	 DWORD PTR _fy$[ebp], xmm0
  0029a	8b 45 e0	 mov	 eax, DWORD PTR _v$[ebp]
  0029d	f3 0f 10 45 3c	 movss	 xmm0, DWORD PTR $T5[ebp+8]
  002a2	f3 0f 58 40 08	 addss	 xmm0, DWORD PTR [eax+8]
  002a7	f3 0f 11 45 a8	 movss	 DWORD PTR _fz$[ebp], xmm0

; 180  :     x = fx;

  002ac	f3 0f 10 45 b0	 movss	 xmm0, DWORD PTR _fx$[ebp]
  002b1	f3 0f 11 45 04	 movss	 DWORD PTR $T1[ebp], xmm0

; 181  :     y = fy;

  002b6	f3 0f 10 45 ac	 movss	 xmm0, DWORD PTR _fy$[ebp]
  002bb	f3 0f 11 45 08	 movss	 DWORD PTR $T1[ebp+4], xmm0

; 182  :     z = fz;

  002c0	f3 0f 10 45 a8	 movss	 xmm0, DWORD PTR _fz$[ebp]
  002c5	f3 0f 11 45 0c	 movss	 DWORD PTR $T1[ebp+8], xmm0
; File D:\Metin2 Server Files\mainline\SRC_2014\Metin2Client\GameLib\SnowParticle.cpp

; 46   : 	rv3Vertex3.v3Pos = m_v3Position - m_v3Cross + m_v3Up;

  002ca	8d 75 04	 lea	 esi, DWORD PTR $T1[ebp]
  002cd	8b 7d 78	 mov	 edi, DWORD PTR _rv3Vertex3$[ebp]
  002d0	a5		 movsd
  002d1	a5		 movsd
  002d2	a5		 movsd

; 47   : 	rv3Vertex3.u = 0.0f;

  002d3	8b 45 78	 mov	 eax, DWORD PTR _rv3Vertex3$[ebp]
  002d6	0f 57 c0	 xorps	 xmm0, xmm0
  002d9	f3 0f 11 40 0c	 movss	 DWORD PTR [eax+12], xmm0

; 48   : 	rv3Vertex3.v = 1.0f;

  002de	8b 45 78	 mov	 eax, DWORD PTR _rv3Vertex3$[ebp]
  002e1	f3 0f 10 05 00
	00 00 00	 movss	 xmm0, DWORD PTR __real@3f800000
  002e9	f3 0f 11 40 10	 movss	 DWORD PTR [eax+16], xmm0

; 50   : 	rv3Vertex4.v3Pos = m_v3Position + m_v3Cross + m_v3Up;

  002ee	8b 45 00	 mov	 eax, DWORD PTR _this$[ebp]
  002f1	83 c0 30	 add	 eax, 48			; 00000030H
  002f4	89 45 d8	 mov	 DWORD PTR _v$[ebp], eax
  002f7	8b 45 00	 mov	 eax, DWORD PTR _this$[ebp]
  002fa	83 c0 18	 add	 eax, 24			; 00000018H
  002fd	89 45 dc	 mov	 DWORD PTR _this$[ebp], eax
; File D:\Metin2 Server Files\mainline\SRC_2014\M2Data\include\d3dx8math.inl

; 257  :     return D3DXVECTOR3(x + v.x, y + v.y, z + v.z);

  00300	8b 45 dc	 mov	 eax, DWORD PTR _this$[ebp]
  00303	8b 4d d8	 mov	 ecx, DWORD PTR _v$[ebp]
  00306	f3 0f 10 00	 movss	 xmm0, DWORD PTR [eax]
  0030a	f3 0f 58 01	 addss	 xmm0, DWORD PTR [ecx]
  0030e	f3 0f 11 45 a4	 movss	 DWORD PTR _fx$[ebp], xmm0
  00313	8b 45 dc	 mov	 eax, DWORD PTR _this$[ebp]
  00316	8b 4d d8	 mov	 ecx, DWORD PTR _v$[ebp]
  00319	f3 0f 10 40 04	 movss	 xmm0, DWORD PTR [eax+4]
  0031e	f3 0f 58 41 04	 addss	 xmm0, DWORD PTR [ecx+4]
  00323	f3 0f 11 45 a0	 movss	 DWORD PTR _fy$[ebp], xmm0
  00328	8b 45 dc	 mov	 eax, DWORD PTR _this$[ebp]
  0032b	8b 4d d8	 mov	 ecx, DWORD PTR _v$[ebp]
  0032e	f3 0f 10 40 08	 movss	 xmm0, DWORD PTR [eax+8]
  00333	f3 0f 58 41 08	 addss	 xmm0, DWORD PTR [ecx+8]
  00338	f3 0f 11 45 9c	 movss	 DWORD PTR _fz$[ebp], xmm0

; 180  :     x = fx;

  0033d	f3 0f 10 45 a4	 movss	 xmm0, DWORD PTR _fx$[ebp]
  00342	f3 0f 11 45 58	 movss	 DWORD PTR $T8[ebp], xmm0

; 181  :     y = fy;

  00347	f3 0f 10 45 a0	 movss	 xmm0, DWORD PTR _fy$[ebp]
  0034c	f3 0f 11 45 5c	 movss	 DWORD PTR $T8[ebp+4], xmm0

; 182  :     z = fz;

  00351	f3 0f 10 45 9c	 movss	 xmm0, DWORD PTR _fz$[ebp]
  00356	f3 0f 11 45 60	 movss	 DWORD PTR $T8[ebp+8], xmm0
; File D:\Metin2 Server Files\mainline\SRC_2014\Metin2Client\GameLib\SnowParticle.cpp

; 50   : 	rv3Vertex4.v3Pos = m_v3Position + m_v3Cross + m_v3Up;

  0035b	8b 45 00	 mov	 eax, DWORD PTR _this$[ebp]
  0035e	83 c0 24	 add	 eax, 36			; 00000024H
  00361	89 45 d4	 mov	 DWORD PTR _v$[ebp], eax
; File D:\Metin2 Server Files\mainline\SRC_2014\M2Data\include\d3dx8math.inl

; 257  :     return D3DXVECTOR3(x + v.x, y + v.y, z + v.z);

  00364	8b 45 d4	 mov	 eax, DWORD PTR _v$[ebp]
  00367	f3 0f 10 45 58	 movss	 xmm0, DWORD PTR $T8[ebp]
  0036c	f3 0f 58 00	 addss	 xmm0, DWORD PTR [eax]
  00370	f3 0f 11 85 70
	ff ff ff	 movss	 DWORD PTR _fx$[ebp], xmm0
  00378	8b 45 d4	 mov	 eax, DWORD PTR _v$[ebp]
  0037b	f3 0f 10 45 5c	 movss	 xmm0, DWORD PTR $T8[ebp+4]
  00380	f3 0f 58 40 04	 addss	 xmm0, DWORD PTR [eax+4]
  00385	f3 0f 11 45 94	 movss	 DWORD PTR _fy$[ebp], xmm0
  0038a	8b 45 d4	 mov	 eax, DWORD PTR _v$[ebp]
  0038d	f3 0f 10 45 60	 movss	 xmm0, DWORD PTR $T8[ebp+8]
  00392	f3 0f 58 40 08	 addss	 xmm0, DWORD PTR [eax+8]
  00397	f3 0f 11 45 90	 movss	 DWORD PTR _fz$[ebp], xmm0

; 180  :     x = fx;

  0039c	f3 0f 10 85 70
	ff ff ff	 movss	 xmm0, DWORD PTR _fx$[ebp]
  003a4	f3 0f 11 45 10	 movss	 DWORD PTR $T2[ebp], xmm0

; 181  :     y = fy;

  003a9	f3 0f 10 45 94	 movss	 xmm0, DWORD PTR _fy$[ebp]
  003ae	f3 0f 11 45 14	 movss	 DWORD PTR $T2[ebp+4], xmm0

; 182  :     z = fz;

  003b3	f3 0f 10 45 90	 movss	 xmm0, DWORD PTR _fz$[ebp]
  003b8	f3 0f 11 45 18	 movss	 DWORD PTR $T2[ebp+8], xmm0
; File D:\Metin2 Server Files\mainline\SRC_2014\Metin2Client\GameLib\SnowParticle.cpp

; 50   : 	rv3Vertex4.v3Pos = m_v3Position + m_v3Cross + m_v3Up;

  003bd	8d 75 10	 lea	 esi, DWORD PTR $T2[ebp]
  003c0	8b 7d 7c	 mov	 edi, DWORD PTR _rv3Vertex4$[ebp]
  003c3	a5		 movsd
  003c4	a5		 movsd
  003c5	a5		 movsd

; 51   : 	rv3Vertex4.u = 1.0f;

  003c6	8b 45 7c	 mov	 eax, DWORD PTR _rv3Vertex4$[ebp]
  003c9	f3 0f 10 05 00
	00 00 00	 movss	 xmm0, DWORD PTR __real@3f800000
  003d1	f3 0f 11 40 0c	 movss	 DWORD PTR [eax+12], xmm0

; 52   : 	rv3Vertex4.v = 1.0f;

  003d6	8b 45 7c	 mov	 eax, DWORD PTR _rv3Vertex4$[ebp]
  003d9	f3 0f 10 05 00
	00 00 00	 movss	 xmm0, DWORD PTR __real@3f800000
  003e1	f3 0f 11 40 10	 movss	 DWORD PTR [eax+16], xmm0

; 53   : }

  003e6	5f		 pop	 edi
  003e7	5e		 pop	 esi
  003e8	8b 4d 64	 mov	 ecx, DWORD PTR __$ArrayPad$[ebp]
  003eb	33 cd		 xor	 ecx, ebp
  003ed	e8 00 00 00 00	 call	 @__security_check_cookie@4
  003f2	83 c5 68	 add	 ebp, 104		; 00000068H
  003f5	c9		 leave
  003f6	c2 10 00	 ret	 16			; 00000010H
?GetVerticies@CSnowParticle@@QAEXAAUSParticleVertex@@000@Z ENDP ; CSnowParticle::GetVerticies
_TEXT	ENDS
; Function compile flags: /Odspy
; File D:\Metin2 Server Files\mainline\SRC_2014\Metin2Client\GameLib\SnowParticle.cpp
; File D:\Metin2 Server Files\mainline\SRC_2014\M2Data\include\d3dx8math.inl
; File D:\Metin2 Server Files\mainline\SRC_2014\Metin2Client\GameLib\SnowParticle.cpp
; File D:\Metin2 Server Files\mainline\SRC_2014\M2Data\include\d3dx8math.inl
; File D:\Metin2 Server Files\mainline\SRC_2014\Metin2Client\GameLib\SnowParticle.cpp
; File C:\Program Files (x86)\Windows Kits\10\Include\10.0.18362.0\ucrt\corecrt_math.h
; File C:\Program Files (x86)\Microsoft Visual Studio\2019\Community\VC\Tools\MSVC\14.28.29333\include\cmath
; File D:\Metin2 Server Files\mainline\SRC_2014\Metin2Client\GameLib\SnowParticle.cpp
; File C:\Program Files (x86)\Windows Kits\10\Include\10.0.18362.0\ucrt\corecrt_math.h
; File C:\Program Files (x86)\Microsoft Visual Studio\2019\Community\VC\Tools\MSVC\14.28.29333\include\cmath
; File D:\Metin2 Server Files\mainline\SRC_2014\Metin2Client\GameLib\SnowParticle.cpp
; File C:\Program Files (x86)\Windows Kits\10\Include\10.0.18362.0\ucrt\corecrt_math.h
; File C:\Program Files (x86)\Microsoft Visual Studio\2019\Community\VC\Tools\MSVC\14.28.29333\include\cstdlib
; File D:\Metin2 Server Files\mainline\SRC_2014\Metin2Client\GameLib\SnowParticle.cpp
; File C:\Program Files (x86)\Windows Kits\10\Include\10.0.18362.0\ucrt\corecrt_math.h
; File C:\Program Files (x86)\Microsoft Visual Studio\2019\Community\VC\Tools\MSVC\14.28.29333\include\cstdlib
; File D:\Metin2 Server Files\mainline\SRC_2014\Metin2Client\GameLib\SnowParticle.cpp
;	COMDAT ?Update@CSnowParticle@@QAEXMABUD3DXVECTOR3@@@Z
_TEXT	SEGMENT
$T1 = -72						; size = 4
__Xx$ = -68						; size = 4
$T2 = -64						; size = 4
__Xx$ = -60						; size = 4
$T3 = -56						; size = 4
__Xx$ = -52						; size = 4
$T4 = -48						; size = 4
__Xx$ = -44						; size = 4
_fz$ = -40						; size = 4
_fy$ = -36						; size = 4
_fx$ = -32						; size = 4
_this$ = -28						; size = 4
_this$ = -24						; size = 4
_this$ = -20						; size = 4
$T5 = -16						; size = 12
__$ArrayPad$ = -4					; size = 4
_fElapsedTime$ = 8					; size = 4
_c_rv3Pos$ = 12						; size = 4
?Update@CSnowParticle@@QAEXMABUD3DXVECTOR3@@@Z PROC	; CSnowParticle::Update, COMDAT
; _this$ = ecx

; 20   : {

  00000	55		 push	 ebp
  00001	8b ec		 mov	 ebp, esp
  00003	83 ec 48	 sub	 esp, 72			; 00000048H
  00006	a1 00 00 00 00	 mov	 eax, DWORD PTR ___security_cookie
  0000b	33 c5		 xor	 eax, ebp
  0000d	89 45 fc	 mov	 DWORD PTR __$ArrayPad$[ebp], eax
  00010	89 4d ec	 mov	 DWORD PTR _this$[ebp], ecx

; 21   : 	m_v3Position += m_v3Velocity * fElapsedTime;

  00013	8b 45 ec	 mov	 eax, DWORD PTR _this$[ebp]
  00016	83 c0 0c	 add	 eax, 12			; 0000000cH
  00019	89 45 e4	 mov	 DWORD PTR _this$[ebp], eax
; File D:\Metin2 Server Files\mainline\SRC_2014\M2Data\include\d3dx8math.inl

; 269  :     return D3DXVECTOR3(x * f, y * f, z * f);

  0001c	8b 45 e4	 mov	 eax, DWORD PTR _this$[ebp]
  0001f	f3 0f 10 00	 movss	 xmm0, DWORD PTR [eax]
  00023	f3 0f 59 45 08	 mulss	 xmm0, DWORD PTR _fElapsedTime$[ebp]
  00028	f3 0f 11 45 e0	 movss	 DWORD PTR _fx$[ebp], xmm0
  0002d	8b 45 e4	 mov	 eax, DWORD PTR _this$[ebp]
  00030	f3 0f 10 40 04	 movss	 xmm0, DWORD PTR [eax+4]
  00035	f3 0f 59 45 08	 mulss	 xmm0, DWORD PTR _fElapsedTime$[ebp]
  0003a	f3 0f 11 45 dc	 movss	 DWORD PTR _fy$[ebp], xmm0
  0003f	8b 45 e4	 mov	 eax, DWORD PTR _this$[ebp]
  00042	f3 0f 10 40 08	 movss	 xmm0, DWORD PTR [eax+8]
  00047	f3 0f 59 45 08	 mulss	 xmm0, DWORD PTR _fElapsedTime$[ebp]
  0004c	f3 0f 11 45 d8	 movss	 DWORD PTR _fz$[ebp], xmm0

; 180  :     x = fx;

  00051	f3 0f 10 45 e0	 movss	 xmm0, DWORD PTR _fx$[ebp]
  00056	f3 0f 11 45 f0	 movss	 DWORD PTR $T5[ebp], xmm0

; 181  :     y = fy;

  0005b	f3 0f 10 45 dc	 movss	 xmm0, DWORD PTR _fy$[ebp]
  00060	f3 0f 11 45 f4	 movss	 DWORD PTR $T5[ebp+4], xmm0

; 182  :     z = fz;

  00065	f3 0f 10 45 d8	 movss	 xmm0, DWORD PTR _fz$[ebp]
  0006a	f3 0f 11 45 f8	 movss	 DWORD PTR $T5[ebp+8], xmm0
; File D:\Metin2 Server Files\mainline\SRC_2014\Metin2Client\GameLib\SnowParticle.cpp

; 21   : 	m_v3Position += m_v3Velocity * fElapsedTime;

  0006f	8b 45 ec	 mov	 eax, DWORD PTR _this$[ebp]
  00072	83 c0 18	 add	 eax, 24			; 00000018H
  00075	89 45 e8	 mov	 DWORD PTR _this$[ebp], eax
; File D:\Metin2 Server Files\mainline\SRC_2014\M2Data\include\d3dx8math.inl

; 204  :     x += v.x;

  00078	8b 45 e8	 mov	 eax, DWORD PTR _this$[ebp]
  0007b	f3 0f 10 00	 movss	 xmm0, DWORD PTR [eax]
  0007f	f3 0f 58 45 f0	 addss	 xmm0, DWORD PTR $T5[ebp]
  00084	8b 45 e8	 mov	 eax, DWORD PTR _this$[ebp]
  00087	f3 0f 11 00	 movss	 DWORD PTR [eax], xmm0

; 205  :     y += v.y;

  0008b	8b 45 e8	 mov	 eax, DWORD PTR _this$[ebp]
  0008e	f3 0f 10 40 04	 movss	 xmm0, DWORD PTR [eax+4]
  00093	f3 0f 58 45 f4	 addss	 xmm0, DWORD PTR $T5[ebp+4]
  00098	8b 45 e8	 mov	 eax, DWORD PTR _this$[ebp]
  0009b	f3 0f 11 40 04	 movss	 DWORD PTR [eax+4], xmm0

; 206  :     z += v.z;

  000a0	8b 45 e8	 mov	 eax, DWORD PTR _this$[ebp]
  000a3	f3 0f 10 40 08	 movss	 xmm0, DWORD PTR [eax+8]
  000a8	f3 0f 58 45 f8	 addss	 xmm0, DWORD PTR $T5[ebp+8]
  000ad	8b 45 e8	 mov	 eax, DWORD PTR _this$[ebp]
  000b0	f3 0f 11 40 08	 movss	 DWORD PTR [eax+8], xmm0
; File D:\Metin2 Server Files\mainline\SRC_2014\Metin2Client\GameLib\SnowParticle.cpp

; 23   : 	m_v3Position.x += m_v3Cross.x * sin(m_fcurRadian) / 10.0f;

  000b5	8b 45 ec	 mov	 eax, DWORD PTR _this$[ebp]
  000b8	f3 0f 10 40 40	 movss	 xmm0, DWORD PTR [eax+64]
  000bd	f3 0f 11 45 d4	 movss	 DWORD PTR __Xx$[ebp], xmm0
; File C:\Program Files (x86)\Windows Kits\10\Include\10.0.18362.0\ucrt\corecrt_math.h

; 750  :             return (float)sin(_X);

  000c2	f3 0f 5a 45 d4	 cvtss2sd xmm0, DWORD PTR __Xx$[ebp]
  000c7	51		 push	 ecx
  000c8	51		 push	 ecx
  000c9	f2 0f 11 04 24	 movsd	 QWORD PTR [esp], xmm0
  000ce	e8 00 00 00 00	 call	 _sin
  000d3	59		 pop	 ecx
  000d4	59		 pop	 ecx
; File C:\Program Files (x86)\Microsoft Visual Studio\2019\Community\VC\Tools\MSVC\14.28.29333\include\cmath

; 223  :     return _CSTD sinf(_Xx);

  000d5	d9 5d d0	 fstp	 DWORD PTR $T4[ebp]
; File D:\Metin2 Server Files\mainline\SRC_2014\Metin2Client\GameLib\SnowParticle.cpp

; 23   : 	m_v3Position.x += m_v3Cross.x * sin(m_fcurRadian) / 10.0f;

  000d8	8b 45 ec	 mov	 eax, DWORD PTR _this$[ebp]
  000db	f3 0f 10 40 30	 movss	 xmm0, DWORD PTR [eax+48]
  000e0	f3 0f 59 45 d0	 mulss	 xmm0, DWORD PTR $T4[ebp]
  000e5	f3 0f 5e 05 00
	00 00 00	 divss	 xmm0, DWORD PTR __real@41200000
  000ed	8b 45 ec	 mov	 eax, DWORD PTR _this$[ebp]
  000f0	f3 0f 58 40 18	 addss	 xmm0, DWORD PTR [eax+24]
  000f5	8b 45 ec	 mov	 eax, DWORD PTR _this$[ebp]
  000f8	f3 0f 11 40 18	 movss	 DWORD PTR [eax+24], xmm0

; 24   : 	m_v3Position.y += m_v3Cross.y * sin(m_fcurRadian) / 10.0f;

  000fd	8b 45 ec	 mov	 eax, DWORD PTR _this$[ebp]
  00100	f3 0f 10 40 40	 movss	 xmm0, DWORD PTR [eax+64]
  00105	f3 0f 11 45 cc	 movss	 DWORD PTR __Xx$[ebp], xmm0
; File C:\Program Files (x86)\Windows Kits\10\Include\10.0.18362.0\ucrt\corecrt_math.h

; 750  :             return (float)sin(_X);

  0010a	f3 0f 5a 45 cc	 cvtss2sd xmm0, DWORD PTR __Xx$[ebp]
  0010f	51		 push	 ecx
  00110	51		 push	 ecx
  00111	f2 0f 11 04 24	 movsd	 QWORD PTR [esp], xmm0
  00116	e8 00 00 00 00	 call	 _sin
  0011b	59		 pop	 ecx
  0011c	59		 pop	 ecx
; File C:\Program Files (x86)\Microsoft Visual Studio\2019\Community\VC\Tools\MSVC\14.28.29333\include\cmath

; 223  :     return _CSTD sinf(_Xx);

  0011d	d9 5d c8	 fstp	 DWORD PTR $T3[ebp]
; File D:\Metin2 Server Files\mainline\SRC_2014\Metin2Client\GameLib\SnowParticle.cpp

; 24   : 	m_v3Position.y += m_v3Cross.y * sin(m_fcurRadian) / 10.0f;

  00120	8b 45 ec	 mov	 eax, DWORD PTR _this$[ebp]
  00123	f3 0f 10 40 34	 movss	 xmm0, DWORD PTR [eax+52]
  00128	f3 0f 59 45 c8	 mulss	 xmm0, DWORD PTR $T3[ebp]
  0012d	f3 0f 5e 05 00
	00 00 00	 divss	 xmm0, DWORD PTR __real@41200000
  00135	8b 45 ec	 mov	 eax, DWORD PTR _this$[ebp]
  00138	f3 0f 58 40 1c	 addss	 xmm0, DWORD PTR [eax+28]
  0013d	8b 45 ec	 mov	 eax, DWORD PTR _this$[ebp]
  00140	f3 0f 11 40 1c	 movss	 DWORD PTR [eax+28], xmm0

; 25   : 	m_fcurRadian += m_fPeriod * fElapsedTime;

  00145	8b 45 ec	 mov	 eax, DWORD PTR _this$[ebp]
  00148	f3 0f 10 40 3c	 movss	 xmm0, DWORD PTR [eax+60]
  0014d	f3 0f 59 45 08	 mulss	 xmm0, DWORD PTR _fElapsedTime$[ebp]
  00152	8b 45 ec	 mov	 eax, DWORD PTR _this$[ebp]
  00155	f3 0f 58 40 40	 addss	 xmm0, DWORD PTR [eax+64]
  0015a	8b 45 ec	 mov	 eax, DWORD PTR _this$[ebp]
  0015d	f3 0f 11 40 40	 movss	 DWORD PTR [eax+64], xmm0

; 26   : 
; 27   : 	if (m_v3Position.z < c_rv3Pos.z - 500.0f)

  00162	8b 45 0c	 mov	 eax, DWORD PTR _c_rv3Pos$[ebp]
  00165	f3 0f 10 40 08	 movss	 xmm0, DWORD PTR [eax+8]
  0016a	f3 0f 5c 05 00
	00 00 00	 subss	 xmm0, DWORD PTR __real@43fa0000
  00172	8b 45 ec	 mov	 eax, DWORD PTR _this$[ebp]
  00175	0f 2f 40 20	 comiss	 xmm0, DWORD PTR [eax+32]
  00179	76 08		 jbe	 SHORT $LN2@Update

; 28   : 		m_bActivate = false;

  0017b	8b 45 ec	 mov	 eax, DWORD PTR _this$[ebp]
  0017e	c6 00 00	 mov	 BYTE PTR [eax], 0
  00181	eb 7f		 jmp	 SHORT $LN6@Update
$LN2@Update:

; 29   : 	else if (abs(m_v3Position.x - c_rv3Pos.x) > c_fSnowDistance)

  00183	8b 45 ec	 mov	 eax, DWORD PTR _this$[ebp]
  00186	8b 4d 0c	 mov	 ecx, DWORD PTR _c_rv3Pos$[ebp]
  00189	f3 0f 10 40 18	 movss	 xmm0, DWORD PTR [eax+24]
  0018e	f3 0f 5c 01	 subss	 xmm0, DWORD PTR [ecx]
  00192	f3 0f 11 45 c4	 movss	 DWORD PTR __Xx$[ebp], xmm0
; File C:\Program Files (x86)\Windows Kits\10\Include\10.0.18362.0\ucrt\corecrt_math.h

; 672  :             return (float)fabs(_X);

  00197	f3 0f 5a 45 c4	 cvtss2sd xmm0, DWORD PTR __Xx$[ebp]
  0019c	51		 push	 ecx
  0019d	51		 push	 ecx
  0019e	f2 0f 11 04 24	 movsd	 QWORD PTR [esp], xmm0
  001a3	e8 00 00 00 00	 call	 _fabs
  001a8	59		 pop	 ecx
  001a9	59		 pop	 ecx
; File C:\Program Files (x86)\Microsoft Visual Studio\2019\Community\VC\Tools\MSVC\14.28.29333\include\cstdlib

; 28   :     return _CSTD fabsf(_Xx);

  001aa	d9 5d c0	 fstp	 DWORD PTR $T2[ebp]
; File D:\Metin2 Server Files\mainline\SRC_2014\Metin2Client\GameLib\SnowParticle.cpp

; 29   : 	else if (abs(m_v3Position.x - c_rv3Pos.x) > c_fSnowDistance)

  001ad	f3 0f 10 45 c0	 movss	 xmm0, DWORD PTR $T2[ebp]
  001b2	0f 2f 05 00 00
	00 00		 comiss	 xmm0, DWORD PTR __real@4788b800
  001b9	76 08		 jbe	 SHORT $LN4@Update

; 30   : 		m_bActivate = false;

  001bb	8b 45 ec	 mov	 eax, DWORD PTR _this$[ebp]
  001be	c6 00 00	 mov	 BYTE PTR [eax], 0
  001c1	eb 3f		 jmp	 SHORT $LN6@Update
$LN4@Update:

; 31   : 	else if (abs(m_v3Position.y - c_rv3Pos.y) > c_fSnowDistance)

  001c3	8b 45 ec	 mov	 eax, DWORD PTR _this$[ebp]
  001c6	8b 4d 0c	 mov	 ecx, DWORD PTR _c_rv3Pos$[ebp]
  001c9	f3 0f 10 40 1c	 movss	 xmm0, DWORD PTR [eax+28]
  001ce	f3 0f 5c 41 04	 subss	 xmm0, DWORD PTR [ecx+4]
  001d3	f3 0f 11 45 bc	 movss	 DWORD PTR __Xx$[ebp], xmm0
; File C:\Program Files (x86)\Windows Kits\10\Include\10.0.18362.0\ucrt\corecrt_math.h

; 672  :             return (float)fabs(_X);

  001d8	f3 0f 5a 45 bc	 cvtss2sd xmm0, DWORD PTR __Xx$[ebp]
  001dd	51		 push	 ecx
  001de	51		 push	 ecx
  001df	f2 0f 11 04 24	 movsd	 QWORD PTR [esp], xmm0
  001e4	e8 00 00 00 00	 call	 _fabs
  001e9	59		 pop	 ecx
  001ea	59		 pop	 ecx
; File C:\Program Files (x86)\Microsoft Visual Studio\2019\Community\VC\Tools\MSVC\14.28.29333\include\cstdlib

; 28   :     return _CSTD fabsf(_Xx);

  001eb	d9 5d b8	 fstp	 DWORD PTR $T1[ebp]
; File D:\Metin2 Server Files\mainline\SRC_2014\Metin2Client\GameLib\SnowParticle.cpp

; 31   : 	else if (abs(m_v3Position.y - c_rv3Pos.y) > c_fSnowDistance)

  001ee	f3 0f 10 45 b8	 movss	 xmm0, DWORD PTR $T1[ebp]
  001f3	0f 2f 05 00 00
	00 00		 comiss	 xmm0, DWORD PTR __real@4788b800
  001fa	76 06		 jbe	 SHORT $LN6@Update

; 32   : 		m_bActivate = false;

  001fc	8b 45 ec	 mov	 eax, DWORD PTR _this$[ebp]
  001ff	c6 00 00	 mov	 BYTE PTR [eax], 0
$LN6@Update:

; 33   : }

  00202	8b 4d fc	 mov	 ecx, DWORD PTR __$ArrayPad$[ebp]
  00205	33 cd		 xor	 ecx, ebp
  00207	e8 00 00 00 00	 call	 @__security_check_cookie@4
  0020c	c9		 leave
  0020d	c2 08 00	 ret	 8
?Update@CSnowParticle@@QAEXMABUD3DXVECTOR3@@@Z ENDP	; CSnowParticle::Update
_TEXT	ENDS
; Function compile flags: /Odspy
; File D:\Metin2 Server Files\mainline\SRC_2014\Metin2Client\GameLib\SnowParticle.cpp
;	COMDAT ?IsActivate@CSnowParticle@@QAE_NXZ
_TEXT	SEGMENT
_this$ = -4						; size = 4
?IsActivate@CSnowParticle@@QAE_NXZ PROC			; CSnowParticle::IsActivate, COMDAT
; _this$ = ecx

; 15   : {

  00000	55		 push	 ebp
  00001	8b ec		 mov	 ebp, esp
  00003	51		 push	 ecx
  00004	89 4d fc	 mov	 DWORD PTR _this$[ebp], ecx

; 16   : 	return m_bActivate;

  00007	8b 45 fc	 mov	 eax, DWORD PTR _this$[ebp]
  0000a	8a 00		 mov	 al, BYTE PTR [eax]

; 17   : }

  0000c	c9		 leave
  0000d	c3		 ret	 0
?IsActivate@CSnowParticle@@QAE_NXZ ENDP			; CSnowParticle::IsActivate
_TEXT	ENDS
; Function compile flags: /Odspy
; File D:\Metin2 Server Files\mainline\SRC_2014\Metin2Client\GameLib\SnowParticle.cpp
; File D:\Metin2 Server Files\mainline\SRC_2014\M2Data\include\d3dx8math.inl
; File D:\Metin2 Server Files\mainline\SRC_2014\Metin2Client\GameLib\SnowParticle.cpp
; File D:\Metin2 Server Files\mainline\SRC_2014\M2Data\include\d3dx8math.inl
; File D:\Metin2 Server Files\mainline\SRC_2014\Metin2Client\GameLib\SnowParticle.cpp
;	COMDAT ?SetCameraVertex@CSnowParticle@@QAEXABUD3DXVECTOR3@@0@Z
_TEXT	SEGMENT
_fz$ = -64						; size = 4
_fy$ = -60						; size = 4
_fx$ = -56						; size = 4
_fz$ = -52						; size = 4
_fy$ = -48						; size = 4
_fx$ = -44						; size = 4
_f$ = -40						; size = 4
_f$ = -36						; size = 4
_this$ = -32						; size = 4
$T1 = -28						; size = 12
$T2 = -16						; size = 12
__$ArrayPad$ = -4					; size = 4
_rv3Up$ = 8						; size = 4
_rv3Cross$ = 12						; size = 4
?SetCameraVertex@CSnowParticle@@QAEXABUD3DXVECTOR3@@0@Z PROC ; CSnowParticle::SetCameraVertex, COMDAT
; _this$ = ecx

; 9    : {

  00000	55		 push	 ebp
  00001	8b ec		 mov	 ebp, esp
  00003	83 ec 40	 sub	 esp, 64			; 00000040H
  00006	a1 00 00 00 00	 mov	 eax, DWORD PTR ___security_cookie
  0000b	33 c5		 xor	 eax, ebp
  0000d	89 45 fc	 mov	 DWORD PTR __$ArrayPad$[ebp], eax
  00010	56		 push	 esi
  00011	57		 push	 edi
  00012	89 4d e0	 mov	 DWORD PTR _this$[ebp], ecx

; 10   : 	m_v3Up = rv3Up*m_fHalfWidth;

  00015	8b 45 e0	 mov	 eax, DWORD PTR _this$[ebp]
  00018	f3 0f 10 40 04	 movss	 xmm0, DWORD PTR [eax+4]
  0001d	f3 0f 11 45 dc	 movss	 DWORD PTR _f$[ebp], xmm0
; File D:\Metin2 Server Files\mainline\SRC_2014\M2Data\include\d3dx8math.inl

; 269  :     return D3DXVECTOR3(x * f, y * f, z * f);

  00022	8b 45 08	 mov	 eax, DWORD PTR _rv3Up$[ebp]
  00025	f3 0f 10 00	 movss	 xmm0, DWORD PTR [eax]
  00029	f3 0f 59 45 dc	 mulss	 xmm0, DWORD PTR _f$[ebp]
  0002e	f3 0f 11 45 d4	 movss	 DWORD PTR _fx$[ebp], xmm0
  00033	8b 45 08	 mov	 eax, DWORD PTR _rv3Up$[ebp]
  00036	f3 0f 10 40 04	 movss	 xmm0, DWORD PTR [eax+4]
  0003b	f3 0f 59 45 dc	 mulss	 xmm0, DWORD PTR _f$[ebp]
  00040	f3 0f 11 45 d0	 movss	 DWORD PTR _fy$[ebp], xmm0
  00045	8b 45 08	 mov	 eax, DWORD PTR _rv3Up$[ebp]
  00048	f3 0f 10 40 08	 movss	 xmm0, DWORD PTR [eax+8]
  0004d	f3 0f 59 45 dc	 mulss	 xmm0, DWORD PTR _f$[ebp]
  00052	f3 0f 11 45 cc	 movss	 DWORD PTR _fz$[ebp], xmm0

; 180  :     x = fx;

  00057	f3 0f 10 45 d4	 movss	 xmm0, DWORD PTR _fx$[ebp]
  0005c	f3 0f 11 45 f0	 movss	 DWORD PTR $T2[ebp], xmm0

; 181  :     y = fy;

  00061	f3 0f 10 45 d0	 movss	 xmm0, DWORD PTR _fy$[ebp]
  00066	f3 0f 11 45 f4	 movss	 DWORD PTR $T2[ebp+4], xmm0

; 182  :     z = fz;

  0006b	f3 0f 10 45 cc	 movss	 xmm0, DWORD PTR _fz$[ebp]
  00070	f3 0f 11 45 f8	 movss	 DWORD PTR $T2[ebp+8], xmm0
; File D:\Metin2 Server Files\mainline\SRC_2014\Metin2Client\GameLib\SnowParticle.cpp

; 10   : 	m_v3Up = rv3Up*m_fHalfWidth;

  00075	8b 7d e0	 mov	 edi, DWORD PTR _this$[ebp]
  00078	83 c7 24	 add	 edi, 36			; 00000024H
  0007b	8d 75 f0	 lea	 esi, DWORD PTR $T2[ebp]
  0007e	a5		 movsd
  0007f	a5		 movsd
  00080	a5		 movsd

; 11   : 	m_v3Cross = rv3Cross*m_fHalfHeight;

  00081	8b 45 e0	 mov	 eax, DWORD PTR _this$[ebp]
  00084	f3 0f 10 40 08	 movss	 xmm0, DWORD PTR [eax+8]
  00089	f3 0f 11 45 d8	 movss	 DWORD PTR _f$[ebp], xmm0
; File D:\Metin2 Server Files\mainline\SRC_2014\M2Data\include\d3dx8math.inl

; 269  :     return D3DXVECTOR3(x * f, y * f, z * f);

  0008e	8b 45 0c	 mov	 eax, DWORD PTR _rv3Cross$[ebp]
  00091	f3 0f 10 00	 movss	 xmm0, DWORD PTR [eax]
  00095	f3 0f 59 45 d8	 mulss	 xmm0, DWORD PTR _f$[ebp]
  0009a	f3 0f 11 45 c8	 movss	 DWORD PTR _fx$[ebp], xmm0
  0009f	8b 45 0c	 mov	 eax, DWORD PTR _rv3Cross$[ebp]
  000a2	f3 0f 10 40 04	 movss	 xmm0, DWORD PTR [eax+4]
  000a7	f3 0f 59 45 d8	 mulss	 xmm0, DWORD PTR _f$[ebp]
  000ac	f3 0f 11 45 c4	 movss	 DWORD PTR _fy$[ebp], xmm0
  000b1	8b 45 0c	 mov	 eax, DWORD PTR _rv3Cross$[ebp]
  000b4	f3 0f 10 40 08	 movss	 xmm0, DWORD PTR [eax+8]
  000b9	f3 0f 59 45 d8	 mulss	 xmm0, DWORD PTR _f$[ebp]
  000be	f3 0f 11 45 c0	 movss	 DWORD PTR _fz$[ebp], xmm0

; 180  :     x = fx;

  000c3	f3 0f 10 45 c8	 movss	 xmm0, DWORD PTR _fx$[ebp]
  000c8	f3 0f 11 45 e4	 movss	 DWORD PTR $T1[ebp], xmm0

; 181  :     y = fy;

  000cd	f3 0f 10 45 c4	 movss	 xmm0, DWORD PTR _fy$[ebp]
  000d2	f3 0f 11 45 e8	 movss	 DWORD PTR $T1[ebp+4], xmm0

; 182  :     z = fz;

  000d7	f3 0f 10 45 c0	 movss	 xmm0, DWORD PTR _fz$[ebp]
  000dc	f3 0f 11 45 ec	 movss	 DWORD PTR $T1[ebp+8], xmm0
; File D:\Metin2 Server Files\mainline\SRC_2014\Metin2Client\GameLib\SnowParticle.cpp

; 11   : 	m_v3Cross = rv3Cross*m_fHalfHeight;

  000e1	8b 7d e0	 mov	 edi, DWORD PTR _this$[ebp]
  000e4	83 c7 30	 add	 edi, 48			; 00000030H
  000e7	8d 75 e4	 lea	 esi, DWORD PTR $T1[ebp]
  000ea	a5		 movsd
  000eb	a5		 movsd
  000ec	a5		 movsd

; 12   : }

  000ed	5f		 pop	 edi
  000ee	5e		 pop	 esi
  000ef	8b 4d fc	 mov	 ecx, DWORD PTR __$ArrayPad$[ebp]
  000f2	33 cd		 xor	 ecx, ebp
  000f4	e8 00 00 00 00	 call	 @__security_check_cookie@4
  000f9	c9		 leave
  000fa	c2 08 00	 ret	 8
?SetCameraVertex@CSnowParticle@@QAEXABUD3DXVECTOR3@@0@Z ENDP ; CSnowParticle::SetCameraVertex
_TEXT	ENDS
; Function compile flags: /Odspy
; File D:\Metin2 Server Files\mainline\SRC_2014\Metin2Client\GameLib\SnowParticle.cpp
;	COMDAT ?Init@CSnowParticle@@QAEXABUD3DXVECTOR3@@@Z
_TEXT	SEGMENT
tv299 = -72						; size = 8
tv236 = -64						; size = 8
tv301 = -56						; size = 8
tv295 = -48						; size = 8
tv228 = -40						; size = 8
tv297 = -32						; size = 8
tv245 = -24						; size = 4
tv221 = -20						; size = 4
tv213 = -16						; size = 4
_fRot$ = -12						; size = 4
_fDistance$ = -8					; size = 4
_this$ = -4						; size = 4
_c_rv3Pos$ = 8						; size = 4
?Init@CSnowParticle@@QAEXABUD3DXVECTOR3@@@Z PROC	; CSnowParticle::Init, COMDAT
; _this$ = ecx

; 56   : {

  00000	55		 push	 ebp
  00001	8b ec		 mov	 ebp, esp
  00003	83 ec 48	 sub	 esp, 72			; 00000048H
  00006	89 4d fc	 mov	 DWORD PTR _this$[ebp], ecx

; 57   : 	float fRot = frandom(0.0f, 36000.0f) / 100.0f;

  00009	51		 push	 ecx
  0000a	f3 0f 10 05 00
	00 00 00	 movss	 xmm0, DWORD PTR __real@470ca000
  00012	f3 0f 11 04 24	 movss	 DWORD PTR [esp], xmm0
  00017	51		 push	 ecx
  00018	0f 57 c0	 xorps	 xmm0, xmm0
  0001b	f3 0f 11 04 24	 movss	 DWORD PTR [esp], xmm0
  00020	e8 00 00 00 00	 call	 ?frandom@@YAMMM@Z	; frandom
  00025	59		 pop	 ecx
  00026	59		 pop	 ecx
  00027	d9 5d f0	 fstp	 DWORD PTR tv213[ebp]
  0002a	f3 0f 10 45 f0	 movss	 xmm0, DWORD PTR tv213[ebp]
  0002f	f3 0f 5e 05 00
	00 00 00	 divss	 xmm0, DWORD PTR __real@42c80000
  00037	f3 0f 11 45 f4	 movss	 DWORD PTR _fRot$[ebp], xmm0

; 58   : 	float fDistance = frandom(0.0f, c_fSnowDistance) / 10.0f;

  0003c	51		 push	 ecx
  0003d	f3 0f 10 05 00
	00 00 00	 movss	 xmm0, DWORD PTR __real@4788b800
  00045	f3 0f 11 04 24	 movss	 DWORD PTR [esp], xmm0
  0004a	51		 push	 ecx
  0004b	0f 57 c0	 xorps	 xmm0, xmm0
  0004e	f3 0f 11 04 24	 movss	 DWORD PTR [esp], xmm0
  00053	e8 00 00 00 00	 call	 ?frandom@@YAMMM@Z	; frandom
  00058	59		 pop	 ecx
  00059	59		 pop	 ecx
  0005a	d9 5d ec	 fstp	 DWORD PTR tv221[ebp]
  0005d	f3 0f 10 45 ec	 movss	 xmm0, DWORD PTR tv221[ebp]
  00062	f3 0f 5e 05 00
	00 00 00	 divss	 xmm0, DWORD PTR __real@41200000
  0006a	f3 0f 11 45 f8	 movss	 DWORD PTR _fDistance$[ebp], xmm0

; 59   : 
; 60   : 	m_v3Position.x = c_rv3Pos.x + fDistance*sin((double)D3DXToRadian(fRot));

  0006f	8b 45 08	 mov	 eax, DWORD PTR _c_rv3Pos$[ebp]
  00072	f3 0f 5a 00	 cvtss2sd xmm0, DWORD PTR [eax]
  00076	f3 0f 5a 4d f8	 cvtss2sd xmm1, DWORD PTR _fDistance$[ebp]
  0007b	f3 0f 10 55 f4	 movss	 xmm2, DWORD PTR _fRot$[ebp]
  00080	f3 0f 59 15 00
	00 00 00	 mulss	 xmm2, DWORD PTR __real@3c8efa35
  00088	f3 0f 5a d2	 cvtss2sd xmm2, xmm2
  0008c	51		 push	 ecx
  0008d	51		 push	 ecx
  0008e	f2 0f 11 14 24	 movsd	 QWORD PTR [esp], xmm2
  00093	f2 0f 11 45 d0	 movsd	 QWORD PTR tv295[ebp], xmm0
  00098	f2 0f 11 4d e0	 movsd	 QWORD PTR tv297[ebp], xmm1
  0009d	e8 00 00 00 00	 call	 _sin
  000a2	59		 pop	 ecx
  000a3	59		 pop	 ecx
  000a4	dd 5d d8	 fstp	 QWORD PTR tv228[ebp]
  000a7	f2 0f 10 45 e0	 movsd	 xmm0, QWORD PTR tv297[ebp]
  000ac	f2 0f 59 45 d8	 mulsd	 xmm0, QWORD PTR tv228[ebp]
  000b1	f2 0f 10 4d d0	 movsd	 xmm1, QWORD PTR tv295[ebp]
  000b6	f2 0f 58 c8	 addsd	 xmm1, xmm0
  000ba	f2 0f 5a c1	 cvtsd2ss xmm0, xmm1
  000be	8b 45 fc	 mov	 eax, DWORD PTR _this$[ebp]
  000c1	f3 0f 11 40 18	 movss	 DWORD PTR [eax+24], xmm0

; 61   : 	m_v3Position.y = c_rv3Pos.y + fDistance*cos((double)D3DXToRadian(fRot));

  000c6	8b 45 08	 mov	 eax, DWORD PTR _c_rv3Pos$[ebp]
  000c9	f3 0f 5a 40 04	 cvtss2sd xmm0, DWORD PTR [eax+4]
  000ce	f3 0f 5a 4d f8	 cvtss2sd xmm1, DWORD PTR _fDistance$[ebp]
  000d3	f3 0f 10 55 f4	 movss	 xmm2, DWORD PTR _fRot$[ebp]
  000d8	f3 0f 59 15 00
	00 00 00	 mulss	 xmm2, DWORD PTR __real@3c8efa35
  000e0	f3 0f 5a d2	 cvtss2sd xmm2, xmm2
  000e4	51		 push	 ecx
  000e5	51		 push	 ecx
  000e6	f2 0f 11 14 24	 movsd	 QWORD PTR [esp], xmm2
  000eb	f2 0f 11 45 b8	 movsd	 QWORD PTR tv299[ebp], xmm0
  000f0	f2 0f 11 4d c8	 movsd	 QWORD PTR tv301[ebp], xmm1
  000f5	e8 00 00 00 00	 call	 _cos
  000fa	59		 pop	 ecx
  000fb	59		 pop	 ecx
  000fc	dd 5d c0	 fstp	 QWORD PTR tv236[ebp]
  000ff	f2 0f 10 45 c8	 movsd	 xmm0, QWORD PTR tv301[ebp]
  00104	f2 0f 59 45 c0	 mulsd	 xmm0, QWORD PTR tv236[ebp]
  00109	f2 0f 10 4d b8	 movsd	 xmm1, QWORD PTR tv299[ebp]
  0010e	f2 0f 58 c8	 addsd	 xmm1, xmm0
  00112	f2 0f 5a c1	 cvtsd2ss xmm0, xmm1
  00116	8b 45 fc	 mov	 eax, DWORD PTR _this$[ebp]
  00119	f3 0f 11 40 1c	 movss	 DWORD PTR [eax+28], xmm0

; 62   : 	m_v3Position.z = c_rv3Pos.z + frandom(1500.0f, 2000.0f);

  0011e	51		 push	 ecx
  0011f	f3 0f 10 05 00
	00 00 00	 movss	 xmm0, DWORD PTR __real@44fa0000
  00127	f3 0f 11 04 24	 movss	 DWORD PTR [esp], xmm0
  0012c	51		 push	 ecx
  0012d	f3 0f 10 05 00
	00 00 00	 movss	 xmm0, DWORD PTR __real@44bb8000
  00135	f3 0f 11 04 24	 movss	 DWORD PTR [esp], xmm0
  0013a	e8 00 00 00 00	 call	 ?frandom@@YAMMM@Z	; frandom
  0013f	59		 pop	 ecx
  00140	59		 pop	 ecx
  00141	d9 5d e8	 fstp	 DWORD PTR tv245[ebp]
  00144	8b 45 08	 mov	 eax, DWORD PTR _c_rv3Pos$[ebp]
  00147	f3 0f 10 45 e8	 movss	 xmm0, DWORD PTR tv245[ebp]
  0014c	f3 0f 58 40 08	 addss	 xmm0, DWORD PTR [eax+8]
  00151	8b 45 fc	 mov	 eax, DWORD PTR _this$[ebp]
  00154	f3 0f 11 40 20	 movss	 DWORD PTR [eax+32], xmm0

; 63   : 	m_v3Velocity.x = 0.0f;

  00159	8b 45 fc	 mov	 eax, DWORD PTR _this$[ebp]
  0015c	0f 57 c0	 xorps	 xmm0, xmm0
  0015f	f3 0f 11 40 0c	 movss	 DWORD PTR [eax+12], xmm0

; 64   : 	m_v3Velocity.y = 0.0f;

  00164	8b 45 fc	 mov	 eax, DWORD PTR _this$[ebp]
  00167	0f 57 c0	 xorps	 xmm0, xmm0
  0016a	f3 0f 11 40 10	 movss	 DWORD PTR [eax+16], xmm0

; 65   : 	m_v3Velocity.z = frandom(-50.0f, -200.0f);

  0016f	51		 push	 ecx
  00170	f3 0f 10 05 00
	00 00 00	 movss	 xmm0, DWORD PTR __real@c3480000
  00178	f3 0f 11 04 24	 movss	 DWORD PTR [esp], xmm0
  0017d	51		 push	 ecx
  0017e	f3 0f 10 05 00
	00 00 00	 movss	 xmm0, DWORD PTR __real@c2480000
  00186	f3 0f 11 04 24	 movss	 DWORD PTR [esp], xmm0
  0018b	e8 00 00 00 00	 call	 ?frandom@@YAMMM@Z	; frandom
  00190	59		 pop	 ecx
  00191	59		 pop	 ecx
  00192	8b 45 fc	 mov	 eax, DWORD PTR _this$[ebp]
  00195	d9 58 14	 fstp	 DWORD PTR [eax+20]

; 66   : 	m_fHalfWidth = frandom(2.0f, 7.0f);

  00198	51		 push	 ecx
  00199	f3 0f 10 05 00
	00 00 00	 movss	 xmm0, DWORD PTR __real@40e00000
  001a1	f3 0f 11 04 24	 movss	 DWORD PTR [esp], xmm0
  001a6	51		 push	 ecx
  001a7	f3 0f 10 05 00
	00 00 00	 movss	 xmm0, DWORD PTR __real@40000000
  001af	f3 0f 11 04 24	 movss	 DWORD PTR [esp], xmm0
  001b4	e8 00 00 00 00	 call	 ?frandom@@YAMMM@Z	; frandom
  001b9	59		 pop	 ecx
  001ba	59		 pop	 ecx
  001bb	8b 45 fc	 mov	 eax, DWORD PTR _this$[ebp]
  001be	d9 58 04	 fstp	 DWORD PTR [eax+4]

; 67   : 	m_fHalfHeight = m_fHalfWidth;

  001c1	8b 45 fc	 mov	 eax, DWORD PTR _this$[ebp]
  001c4	8b 4d fc	 mov	 ecx, DWORD PTR _this$[ebp]
  001c7	8b 49 04	 mov	 ecx, DWORD PTR [ecx+4]
  001ca	89 48 08	 mov	 DWORD PTR [eax+8], ecx

; 68   : 	m_bActivate = true;

  001cd	8b 45 fc	 mov	 eax, DWORD PTR _this$[ebp]
  001d0	c6 00 01	 mov	 BYTE PTR [eax], 1

; 69   : 	m_bChangedSize = false;

  001d3	8b 45 fc	 mov	 eax, DWORD PTR _this$[ebp]
  001d6	c6 40 01 00	 mov	 BYTE PTR [eax+1], 0

; 70   : 
; 71   : 	m_fPeriod = frandom(1.5f, 5.0f);

  001da	51		 push	 ecx
  001db	f3 0f 10 05 00
	00 00 00	 movss	 xmm0, DWORD PTR __real@40a00000
  001e3	f3 0f 11 04 24	 movss	 DWORD PTR [esp], xmm0
  001e8	51		 push	 ecx
  001e9	f3 0f 10 05 00
	00 00 00	 movss	 xmm0, DWORD PTR __real@3fc00000
  001f1	f3 0f 11 04 24	 movss	 DWORD PTR [esp], xmm0
  001f6	e8 00 00 00 00	 call	 ?frandom@@YAMMM@Z	; frandom
  001fb	59		 pop	 ecx
  001fc	59		 pop	 ecx
  001fd	8b 45 fc	 mov	 eax, DWORD PTR _this$[ebp]
  00200	d9 58 3c	 fstp	 DWORD PTR [eax+60]

; 72   : 	m_fcurRadian = frandom(-1.6f, 1.6f);

  00203	51		 push	 ecx
  00204	f3 0f 10 05 00
	00 00 00	 movss	 xmm0, DWORD PTR __real@3fcccccd
  0020c	f3 0f 11 04 24	 movss	 DWORD PTR [esp], xmm0
  00211	51		 push	 ecx
  00212	f3 0f 10 05 00
	00 00 00	 movss	 xmm0, DWORD PTR __real@bfcccccd
  0021a	f3 0f 11 04 24	 movss	 DWORD PTR [esp], xmm0
  0021f	e8 00 00 00 00	 call	 ?frandom@@YAMMM@Z	; frandom
  00224	59		 pop	 ecx
  00225	59		 pop	 ecx
  00226	8b 45 fc	 mov	 eax, DWORD PTR _this$[ebp]
  00229	d9 58 40	 fstp	 DWORD PTR [eax+64]

; 73   : 	m_fAmplitude = frandom(1.0f, 3.0f);

  0022c	51		 push	 ecx
  0022d	f3 0f 10 05 00
	00 00 00	 movss	 xmm0, DWORD PTR __real@40400000
  00235	f3 0f 11 04 24	 movss	 DWORD PTR [esp], xmm0
  0023a	51		 push	 ecx
  0023b	f3 0f 10 05 00
	00 00 00	 movss	 xmm0, DWORD PTR __real@3f800000
  00243	f3 0f 11 04 24	 movss	 DWORD PTR [esp], xmm0
  00248	e8 00 00 00 00	 call	 ?frandom@@YAMMM@Z	; frandom
  0024d	59		 pop	 ecx
  0024e	59		 pop	 ecx
  0024f	8b 45 fc	 mov	 eax, DWORD PTR _this$[ebp]
  00252	d9 58 44	 fstp	 DWORD PTR [eax+68]

; 74   : }

  00255	c9		 leave
  00256	c2 04 00	 ret	 4
?Init@CSnowParticle@@QAEXABUD3DXVECTOR3@@@Z ENDP	; CSnowParticle::Init
_TEXT	ENDS
; Function compile flags: /Odspy
; File D:\Metin2 Server Files\mainline\SRC_2014\Metin2Client\GameLib\SnowParticle.cpp
;	COMDAT ?DestroyPool@CSnowParticle@@SAXXZ
_TEXT	SEGMENT
?DestroyPool@CSnowParticle@@SAXXZ PROC			; CSnowParticle::DestroyPool, COMDAT

; 94   : {

  00000	55		 push	 ebp
  00001	8b ec		 mov	 ebp, esp

; 95   : 	stl_wipe(ms_kVct_SnowParticlePool);

  00003	68 00 00 00 00	 push	 OFFSET ?ms_kVct_SnowParticlePool@CSnowParticle@@2V?$vector@PAVCSnowParticle@@V?$allocator@PAVCSnowParticle@@@std@@@std@@A ; CSnowParticle::ms_kVct_SnowParticlePool
  00008	e8 00 00 00 00	 call	 ??$stl_wipe@V?$vector@PAVCSnowParticle@@V?$allocator@PAVCSnowParticle@@@std@@@std@@@@YAXAAV?$vector@PAVCSnowParticle@@V?$allocator@PAVCSnowParticle@@@std@@@std@@@Z ; stl_wipe<std::vector<CSnowParticle *,std::allocator<CSnowParticle *> > >
  0000d	59		 pop	 ecx

; 96   : }

  0000e	5d		 pop	 ebp
  0000f	c3		 ret	 0
?DestroyPool@CSnowParticle@@SAXXZ ENDP			; CSnowParticle::DestroyPool
_TEXT	ENDS
; Function compile flags: /Odspy
; File D:\Metin2 Server Files\mainline\SRC_2014\Metin2Client\GameLib\SnowParticle.cpp
; File C:\Program Files (x86)\Microsoft Visual Studio\2019\Community\VC\Tools\MSVC\14.28.29333\include\vector
; File D:\Metin2 Server Files\mainline\SRC_2014\Metin2Client\GameLib\SnowParticle.cpp
;	COMDAT ?Delete@CSnowParticle@@SAXPAV1@@Z
_TEXT	SEGMENT
_pSnowParticle$ = 8					; size = 4
?Delete@CSnowParticle@@SAXPAV1@@Z PROC			; CSnowParticle::Delete, COMDAT

; 89   : {

  00000	55		 push	 ebp
  00001	8b ec		 mov	 ebp, esp
; File C:\Program Files (x86)\Microsoft Visual Studio\2019\Community\VC\Tools\MSVC\14.28.29333\include\vector

; 717  :         emplace_back(_Val);

  00003	8d 45 08	 lea	 eax, DWORD PTR _pSnowParticle$[ebp]
  00006	50		 push	 eax
  00007	b9 00 00 00 00	 mov	 ecx, OFFSET ?ms_kVct_SnowParticlePool@CSnowParticle@@2V?$vector@PAVCSnowParticle@@V?$allocator@PAVCSnowParticle@@@std@@@std@@A ; CSnowParticle::ms_kVct_SnowParticlePool
  0000c	e8 00 00 00 00	 call	 ??$emplace_back@ABQAVCSnowParticle@@@?$vector@PAVCSnowParticle@@V?$allocator@PAVCSnowParticle@@@std@@@std@@QAEXABQAVCSnowParticle@@@Z ; std::vector<CSnowParticle *,std::allocator<CSnowParticle *> >::emplace_back<CSnowParticle * const &>
; File D:\Metin2 Server Files\mainline\SRC_2014\Metin2Client\GameLib\SnowParticle.cpp

; 91   : }

  00011	5d		 pop	 ebp
  00012	c3		 ret	 0
?Delete@CSnowParticle@@SAXPAV1@@Z ENDP			; CSnowParticle::Delete
_TEXT	ENDS
; Function compile flags: /Odspy
; File D:\Metin2 Server Files\mainline\SRC_2014\Metin2Client\GameLib\SnowParticle.cpp
; File C:\Program Files (x86)\Microsoft Visual Studio\2019\Community\VC\Tools\MSVC\14.28.29333\include\vector
; File D:\Metin2 Server Files\mainline\SRC_2014\Metin2Client\GameLib\SnowParticle.cpp
; File C:\Program Files (x86)\Microsoft Visual Studio\2019\Community\VC\Tools\MSVC\14.28.29333\include\vector
; File D:\Metin2 Server Files\mainline\SRC_2014\Metin2Client\GameLib\SnowParticle.cpp
; File C:\Program Files (x86)\Microsoft Visual Studio\2019\Community\VC\Tools\MSVC\14.28.29333\include\vector
; File C:\Program Files (x86)\Microsoft Visual Studio\2019\Community\VC\Tools\MSVC\14.28.29333\include\xstddef
; File C:\Program Files (x86)\Microsoft Visual Studio\2019\Community\VC\Tools\MSVC\14.28.29333\include\xmemory
; File C:\Program Files (x86)\Microsoft Visual Studio\2019\Community\VC\Tools\MSVC\14.28.29333\include\vector
; File D:\Metin2 Server Files\mainline\SRC_2014\Metin2Client\GameLib\SnowParticle.cpp
;	COMDAT ?New@CSnowParticle@@SAPAV1@XZ
_TEXT	SEGMENT
$T2 = -72						; size = 4
$T3 = -68						; size = 4
_pParticle$ = -64					; size = 4
$T4 = -60						; size = 4
__Ptr$ = -56						; size = 4
__My_data$5 = -52					; size = 4
$T6 = -48						; size = 4
__My_data$7 = -44					; size = 4
$T8 = -40						; size = 4
tv79 = -36						; size = 4
$T9 = -32						; size = 4
tv89 = -28						; size = 4
__My_data$10 = -24					; size = 4
__Mylast$11 = -20					; size = 4
$T12 = -13						; size = 1
__$EHRec$ = -12						; size = 12
?New@CSnowParticle@@SAPAV1@XZ PROC			; CSnowParticle::New, COMDAT

; 77   : {

  00000	55		 push	 ebp
  00001	8b ec		 mov	 ebp, esp
  00003	6a ff		 push	 -1
  00005	68 00 00 00 00	 push	 __ehhandler$?New@CSnowParticle@@SAPAV1@XZ
  0000a	64 a1 00 00 00
	00		 mov	 eax, DWORD PTR fs:0
  00010	50		 push	 eax
  00011	83 ec 3c	 sub	 esp, 60			; 0000003cH
  00014	a1 00 00 00 00	 mov	 eax, DWORD PTR ___security_cookie
  00019	33 c5		 xor	 eax, ebp
  0001b	50		 push	 eax
  0001c	8d 45 f4	 lea	 eax, DWORD PTR __$EHRec$[ebp]
  0001f	64 a3 00 00 00
	00		 mov	 DWORD PTR fs:0, eax
; File C:\Program Files (x86)\Microsoft Visual Studio\2019\Community\VC\Tools\MSVC\14.28.29333\include\vector

; 1478 :         auto& _My_data = _Mypair._Myval2;

  00025	c7 45 e8 00 00
	00 00		 mov	 DWORD PTR __My_data$10[ebp], OFFSET ?ms_kVct_SnowParticlePool@CSnowParticle@@2V?$vector@PAVCSnowParticle@@V?$allocator@PAVCSnowParticle@@@std@@@std@@A ; CSnowParticle::ms_kVct_SnowParticlePool

; 1479 :         return _My_data._Myfirst == _My_data._Mylast;

  0002c	8b 45 e8	 mov	 eax, DWORD PTR __My_data$10[ebp]
  0002f	8b 4d e8	 mov	 ecx, DWORD PTR __My_data$10[ebp]
  00032	8b 00		 mov	 eax, DWORD PTR [eax]
  00034	3b 41 04	 cmp	 eax, DWORD PTR [ecx+4]
  00037	75 09		 jne	 SHORT $LN9@New
  00039	c7 45 e4 01 00
	00 00		 mov	 DWORD PTR tv89[ebp], 1
  00040	eb 04		 jmp	 SHORT $LN10@New
$LN9@New:
  00042	83 65 e4 00	 and	 DWORD PTR tv89[ebp], 0
$LN10@New:
  00046	8a 45 e4	 mov	 al, BYTE PTR tv89[ebp]
  00049	88 45 f3	 mov	 BYTE PTR $T12[ebp], al
; File D:\Metin2 Server Files\mainline\SRC_2014\Metin2Client\GameLib\SnowParticle.cpp

; 78   : 	if (ms_kVct_SnowParticlePool.empty())

  0004c	0f b6 45 f3	 movzx	 eax, BYTE PTR $T12[ebp]
  00050	85 c0		 test	 eax, eax
  00052	74 35		 je	 SHORT $LN2@New

; 79   : 	{
; 80   : 		return new CSnowParticle;

  00054	6a 48		 push	 72			; 00000048H
  00056	e8 00 00 00 00	 call	 ??2@YAPAXI@Z		; operator new
  0005b	59		 pop	 ecx
  0005c	89 45 e0	 mov	 DWORD PTR $T9[ebp], eax
  0005f	83 65 fc 00	 and	 DWORD PTR __$EHRec$[ebp+8], 0
  00063	83 7d e0 00	 cmp	 DWORD PTR $T9[ebp], 0
  00067	74 0d		 je	 SHORT $LN4@New
  00069	8b 4d e0	 mov	 ecx, DWORD PTR $T9[ebp]
  0006c	e8 00 00 00 00	 call	 ??0CSnowParticle@@QAE@XZ ; CSnowParticle::CSnowParticle
  00071	89 45 dc	 mov	 DWORD PTR tv79[ebp], eax
  00074	eb 04		 jmp	 SHORT $LN5@New
$LN4@New:
  00076	83 65 dc 00	 and	 DWORD PTR tv79[ebp], 0
$LN5@New:
  0007a	8b 45 dc	 mov	 eax, DWORD PTR tv79[ebp]
  0007d	89 45 d8	 mov	 DWORD PTR $T8[ebp], eax
  00080	83 4d fc ff	 or	 DWORD PTR __$EHRec$[ebp+8], -1
  00084	8b 45 d8	 mov	 eax, DWORD PTR $T8[ebp]
  00087	eb 5c		 jmp	 SHORT $LN1@New
$LN2@New:
; File C:\Program Files (x86)\Microsoft Visual Studio\2019\Community\VC\Tools\MSVC\14.28.29333\include\vector

; 1554 :         auto& _My_data = _Mypair._Myval2;

  00089	c7 45 d4 00 00
	00 00		 mov	 DWORD PTR __My_data$7[ebp], OFFSET ?ms_kVct_SnowParticlePool@CSnowParticle@@2V?$vector@PAVCSnowParticle@@V?$allocator@PAVCSnowParticle@@@std@@@std@@A ; CSnowParticle::ms_kVct_SnowParticlePool

; 1555 : #if _CONTAINER_DEBUG_LEVEL > 0
; 1556 :         _STL_VERIFY(_My_data._Myfirst != _My_data._Mylast, "back() called on empty vector");
; 1557 : #endif // _CONTAINER_DEBUG_LEVEL > 0
; 1558 : 
; 1559 :         return _My_data._Mylast[-1];

  00090	6a 04		 push	 4
  00092	58		 pop	 eax
  00093	6b c0 ff	 imul	 eax, eax, -1
  00096	8b 4d d4	 mov	 ecx, DWORD PTR __My_data$7[ebp]
  00099	03 41 04	 add	 eax, DWORD PTR [ecx+4]
  0009c	89 45 d0	 mov	 DWORD PTR $T6[ebp], eax
; File D:\Metin2 Server Files\mainline\SRC_2014\Metin2Client\GameLib\SnowParticle.cpp

; 83   : 	CSnowParticle * pParticle = ms_kVct_SnowParticlePool.back();

  0009f	8b 45 d0	 mov	 eax, DWORD PTR $T6[ebp]
  000a2	8b 00		 mov	 eax, DWORD PTR [eax]
  000a4	89 45 c0	 mov	 DWORD PTR _pParticle$[ebp], eax
; File C:\Program Files (x86)\Microsoft Visual Studio\2019\Community\VC\Tools\MSVC\14.28.29333\include\vector

; 1329 :         auto& _My_data   = _Mypair._Myval2;

  000a7	c7 45 cc 00 00
	00 00		 mov	 DWORD PTR __My_data$5[ebp], OFFSET ?ms_kVct_SnowParticlePool@CSnowParticle@@2V?$vector@PAVCSnowParticle@@V?$allocator@PAVCSnowParticle@@@std@@@std@@A ; CSnowParticle::ms_kVct_SnowParticlePool

; 1330 :         pointer& _Mylast = _My_data._Mylast;

  000ae	8b 45 cc	 mov	 eax, DWORD PTR __My_data$5[ebp]
  000b1	83 c0 04	 add	 eax, 4
  000b4	89 45 ec	 mov	 DWORD PTR __Mylast$11[ebp], eax

; 1331 : 
; 1332 : #if _ITERATOR_DEBUG_LEVEL == 2
; 1333 :         _STL_VERIFY(_My_data._Myfirst != _Mylast, "vector empty before pop");
; 1334 :         _Orphan_range(_Mylast - 1, _Mylast);
; 1335 : #endif // _ITERATOR_DEBUG_LEVEL == 2
; 1336 : 
; 1337 :         _Alty_traits::destroy(_Getal(), _Unfancy(_Mylast - 1));

  000b7	8b 45 ec	 mov	 eax, DWORD PTR __Mylast$11[ebp]
  000ba	8b 00		 mov	 eax, DWORD PTR [eax]
  000bc	83 e8 04	 sub	 eax, 4
  000bf	89 45 c8	 mov	 DWORD PTR __Ptr$[ebp], eax
; File C:\Program Files (x86)\Microsoft Visual Studio\2019\Community\VC\Tools\MSVC\14.28.29333\include\xstddef

; 289  :     return _Ptr;

  000c2	8b 45 c8	 mov	 eax, DWORD PTR __Ptr$[ebp]
  000c5	89 45 bc	 mov	 DWORD PTR $T3[ebp], eax
; File C:\Program Files (x86)\Microsoft Visual Studio\2019\Community\VC\Tools\MSVC\14.28.29333\include\xmemory

; 1347 :         return *this;

  000c8	c7 45 c4 00 00
	00 00		 mov	 DWORD PTR $T4[ebp], OFFSET ?ms_kVct_SnowParticlePool@CSnowParticle@@2V?$vector@PAVCSnowParticle@@V?$allocator@PAVCSnowParticle@@@std@@@std@@A ; CSnowParticle::ms_kVct_SnowParticlePool
; File C:\Program Files (x86)\Microsoft Visual Studio\2019\Community\VC\Tools\MSVC\14.28.29333\include\vector

; 1733 :         return _Mypair._Get_first();

  000cf	8b 45 c4	 mov	 eax, DWORD PTR $T4[ebp]
  000d2	89 45 b8	 mov	 DWORD PTR $T2[ebp], eax

; 1338 :         --_Mylast;

  000d5	8b 45 ec	 mov	 eax, DWORD PTR __Mylast$11[ebp]
  000d8	8b 00		 mov	 eax, DWORD PTR [eax]
  000da	83 e8 04	 sub	 eax, 4
  000dd	8b 4d ec	 mov	 ecx, DWORD PTR __Mylast$11[ebp]
  000e0	89 01		 mov	 DWORD PTR [ecx], eax
; File D:\Metin2 Server Files\mainline\SRC_2014\Metin2Client\GameLib\SnowParticle.cpp

; 85   : 	return pParticle;

  000e2	8b 45 c0	 mov	 eax, DWORD PTR _pParticle$[ebp]
$LN1@New:

; 86   : }

  000e5	8b 4d f4	 mov	 ecx, DWORD PTR __$EHRec$[ebp]
  000e8	64 89 0d 00 00
	00 00		 mov	 DWORD PTR fs:0, ecx
  000ef	59		 pop	 ecx
  000f0	c9		 leave
  000f1	c3		 ret	 0
_TEXT	ENDS
;	COMDAT text$x
text$x	SEGMENT
__unwindfunclet$?New@CSnowParticle@@SAPAV1@XZ$0:
  00000	6a 48		 push	 72			; 00000048H
  00002	ff 75 e0	 push	 DWORD PTR $T9[ebp]
  00005	e8 00 00 00 00	 call	 ??3@YAXPAXI@Z		; operator delete
  0000a	59		 pop	 ecx
  0000b	59		 pop	 ecx
  0000c	c3		 ret	 0
  0000d	cc		 int	 3
  0000e	cc		 int	 3
  0000f	cc		 int	 3
  00010	cc		 int	 3
  00011	cc		 int	 3
__ehhandler$?New@CSnowParticle@@SAPAV1@XZ:
  00012	90		 npad	 1
  00013	90		 npad	 1
  00014	8b 54 24 08	 mov	 edx, DWORD PTR [esp+8]
  00018	8d 42 0c	 lea	 eax, DWORD PTR [edx+12]
  0001b	8b 4a c0	 mov	 ecx, DWORD PTR [edx-64]
  0001e	33 c8		 xor	 ecx, eax
  00020	e8 00 00 00 00	 call	 @__security_check_cookie@4
  00025	b8 00 00 00 00	 mov	 eax, OFFSET __ehfuncinfo$?New@CSnowParticle@@SAPAV1@XZ
  0002a	e9 00 00 00 00	 jmp	 ___CxxFrameHandler3
text$x	ENDS
?New@CSnowParticle@@SAPAV1@XZ ENDP			; CSnowParticle::New
; Function compile flags: /Odspy
; File D:\Metin2 Server Files\mainline\SRC_2014\Metin2Client\GameLib\SnowParticle.cpp
;	COMDAT ??1CSnowParticle@@QAE@XZ
_TEXT	SEGMENT
_this$ = -4						; size = 4
??1CSnowParticle@@QAE@XZ PROC				; CSnowParticle::~CSnowParticle, COMDAT
; _this$ = ecx

; 102  : {

  00000	55		 push	 ebp
  00001	8b ec		 mov	 ebp, esp
  00003	51		 push	 ecx
  00004	89 4d fc	 mov	 DWORD PTR _this$[ebp], ecx

; 103  : }

  00007	c9		 leave
  00008	c3		 ret	 0
??1CSnowParticle@@QAE@XZ ENDP				; CSnowParticle::~CSnowParticle
_TEXT	ENDS
; Function compile flags: /Odspy
; File D:\Metin2 Server Files\mainline\SRC_2014\Metin2Client\GameLib\SnowParticle.cpp
;	COMDAT ??0CSnowParticle@@QAE@XZ
_TEXT	SEGMENT
_this$ = -4						; size = 4
??0CSnowParticle@@QAE@XZ PROC				; CSnowParticle::CSnowParticle, COMDAT
; _this$ = ecx

; 99   : {

  00000	55		 push	 ebp
  00001	8b ec		 mov	 ebp, esp
  00003	51		 push	 ecx
  00004	89 4d fc	 mov	 DWORD PTR _this$[ebp], ecx

; 100  : }

  00007	8b 45 fc	 mov	 eax, DWORD PTR _this$[ebp]
  0000a	c9		 leave
  0000b	c3		 ret	 0
??0CSnowParticle@@QAE@XZ ENDP				; CSnowParticle::CSnowParticle
_TEXT	ENDS
; Function compile flags: /Odspy
; File C:\Program Files (x86)\Microsoft Visual Studio\2019\Community\VC\Tools\MSVC\14.28.29333\include\xmemory
;	COMDAT ??$_Allocate_manually_vector_aligned@U_Default_allocate_traits@std@@@std@@YAPAXI@Z
_TEXT	SEGMENT
__Ptr$ = -12						; size = 4
__Block_size$ = -8					; size = 4
__Ptr_container$ = -4					; size = 4
__Bytes$ = 8						; size = 4
??$_Allocate_manually_vector_aligned@U_Default_allocate_traits@std@@@std@@YAPAXI@Z PROC ; std::_Allocate_manually_vector_aligned<std::_Default_allocate_traits>, COMDAT

; 113  : __declspec(allocator) void* _Allocate_manually_vector_aligned(const size_t _Bytes) {

  00000	55		 push	 ebp
  00001	8b ec		 mov	 ebp, esp
  00003	83 ec 0c	 sub	 esp, 12			; 0000000cH

; 114  :     // allocate _Bytes manually aligned to at least _Big_allocation_alignment
; 115  :     const size_t _Block_size = _Non_user_size + _Bytes;

  00006	8b 45 08	 mov	 eax, DWORD PTR __Bytes$[ebp]
  00009	83 c0 23	 add	 eax, 35			; 00000023H
  0000c	89 45 f8	 mov	 DWORD PTR __Block_size$[ebp], eax

; 116  :     if (_Block_size <= _Bytes) {

  0000f	8b 45 f8	 mov	 eax, DWORD PTR __Block_size$[ebp]
  00012	3b 45 08	 cmp	 eax, DWORD PTR __Bytes$[ebp]
  00015	77 05		 ja	 SHORT $LN12@Allocate_m

; 117  :         _Throw_bad_array_new_length(); // add overflow

  00017	e8 00 00 00 00	 call	 ?_Throw_bad_array_new_length@std@@YAXXZ ; std::_Throw_bad_array_new_length
$LN12@Allocate_m:

; 77   :         return ::operator new(_Bytes);

  0001c	ff 75 f8	 push	 DWORD PTR __Block_size$[ebp]
  0001f	e8 00 00 00 00	 call	 ??2@YAPAXI@Z		; operator new
  00024	59		 pop	 ecx

; 118  :     }
; 119  : 
; 120  :     const uintptr_t _Ptr_container = reinterpret_cast<uintptr_t>(_Traits::_Allocate(_Block_size));

  00025	89 45 fc	 mov	 DWORD PTR __Ptr_container$[ebp], eax
$LN4@Allocate_m:

; 121  :     _STL_VERIFY(_Ptr_container != 0, "invalid argument"); // validate even in release since we're doing p[-1]

  00028	83 7d fc 00	 cmp	 DWORD PTR __Ptr_container$[ebp], 0
  0002c	74 02		 je	 SHORT $LN7@Allocate_m
  0002e	eb 09		 jmp	 SHORT $LN2@Allocate_m
$LN7@Allocate_m:
  00030	e8 00 00 00 00	 call	 __invalid_parameter_noinfo_noreturn
  00035	33 c0		 xor	 eax, eax
  00037	75 f7		 jne	 SHORT $LN7@Allocate_m
$LN2@Allocate_m:
  00039	33 c0		 xor	 eax, eax
  0003b	75 eb		 jne	 SHORT $LN4@Allocate_m

; 122  :     void* const _Ptr = reinterpret_cast<void*>((_Ptr_container + _Non_user_size) & ~(_Big_allocation_alignment - 1));

  0003d	8b 45 fc	 mov	 eax, DWORD PTR __Ptr_container$[ebp]
  00040	83 c0 23	 add	 eax, 35			; 00000023H
  00043	83 e0 e0	 and	 eax, -32		; ffffffe0H
  00046	89 45 f4	 mov	 DWORD PTR __Ptr$[ebp], eax

; 123  :     static_cast<uintptr_t*>(_Ptr)[-1] = _Ptr_container;

  00049	6a 04		 push	 4
  0004b	58		 pop	 eax
  0004c	6b c0 ff	 imul	 eax, eax, -1
  0004f	8b 4d f4	 mov	 ecx, DWORD PTR __Ptr$[ebp]
  00052	8b 55 fc	 mov	 edx, DWORD PTR __Ptr_container$[ebp]
  00055	89 14 01	 mov	 DWORD PTR [ecx+eax], edx

; 124  : 
; 125  : #ifdef _DEBUG
; 126  :     static_cast<uintptr_t*>(_Ptr)[-2] = _Big_allocation_sentinel;
; 127  : #endif // _DEBUG
; 128  :     return _Ptr;

  00058	8b 45 f4	 mov	 eax, DWORD PTR __Ptr$[ebp]
$LN11@Allocate_m:

; 129  : }

  0005b	c9		 leave
  0005c	c3		 ret	 0
??$_Allocate_manually_vector_aligned@U_Default_allocate_traits@std@@@std@@YAPAXI@Z ENDP ; std::_Allocate_manually_vector_aligned<std::_Default_allocate_traits>
_TEXT	ENDS
; Function compile flags: /Odspy
; File C:\Program Files (x86)\Microsoft Visual Studio\2019\Community\VC\Tools\MSVC\14.28.29333\include\xmemory
;	COMDAT ??$_Allocate@$07U_Default_allocate_traits@std@@$0A@@std@@YAPAXI@Z
_TEXT	SEGMENT
__Bytes$ = 8						; size = 4
??$_Allocate@$07U_Default_allocate_traits@std@@$0A@@std@@YAPAXI@Z PROC ; std::_Allocate<8,std::_Default_allocate_traits,0>, COMDAT

; 197  : __declspec(allocator) void* _Allocate(const size_t _Bytes) {

  00000	55		 push	 ebp
  00001	8b ec		 mov	 ebp, esp

; 198  :     // allocate _Bytes when !_HAS_ALIGNED_NEW || _Align <= __STDCPP_DEFAULT_NEW_ALIGNMENT__
; 199  : #if defined(_M_IX86) || defined(_M_X64)
; 200  :     if (_Bytes >= _Big_allocation_threshold) { // boost the alignment of big allocations to help autovectorization

  00003	81 7d 08 00 10
	00 00		 cmp	 DWORD PTR __Bytes$[ebp], 4096 ; 00001000H
  0000a	72 0b		 jb	 SHORT $LN2@Allocate

; 201  :         return _Allocate_manually_vector_aligned<_Traits>(_Bytes);

  0000c	ff 75 08	 push	 DWORD PTR __Bytes$[ebp]
  0000f	e8 00 00 00 00	 call	 ??$_Allocate_manually_vector_aligned@U_Default_allocate_traits@std@@@std@@YAPAXI@Z ; std::_Allocate_manually_vector_aligned<std::_Default_allocate_traits>
  00014	59		 pop	 ecx
  00015	eb 13		 jmp	 SHORT $LN1@Allocate
$LN2@Allocate:

; 202  :     }
; 203  : #endif // defined(_M_IX86) || defined(_M_X64)
; 204  : 
; 205  :     if (_Bytes != 0) {

  00017	83 7d 08 00	 cmp	 DWORD PTR __Bytes$[ebp], 0
  0001b	74 0b		 je	 SHORT $LN3@Allocate

; 77   :         return ::operator new(_Bytes);

  0001d	ff 75 08	 push	 DWORD PTR __Bytes$[ebp]
  00020	e8 00 00 00 00	 call	 ??2@YAPAXI@Z		; operator new
  00025	59		 pop	 ecx

; 206  :         return _Traits::_Allocate(_Bytes);

  00026	eb 02		 jmp	 SHORT $LN1@Allocate
$LN3@Allocate:

; 207  :     }
; 208  : 
; 209  :     return nullptr;

  00028	33 c0		 xor	 eax, eax
$LN1@Allocate:

; 210  : }

  0002a	5d		 pop	 ebp
  0002b	c3		 ret	 0
??$_Allocate@$07U_Default_allocate_traits@std@@$0A@@std@@YAPAXI@Z ENDP ; std::_Allocate<8,std::_Default_allocate_traits,0>
_TEXT	ENDS
; Function compile flags: /Odspy
; File C:\Program Files (x86)\Microsoft Visual Studio\2019\Community\VC\Tools\MSVC\14.28.29333\include\xmemory
;	COMDAT ??$_Deallocate@$07$0A@@std@@YAXPAXI@Z
_TEXT	SEGMENT
__$EHRec$ = -12						; size = 12
__Ptr$ = 8						; size = 4
__Bytes$ = 12						; size = 4
??$_Deallocate@$07$0A@@std@@YAXPAXI@Z PROC		; std::_Deallocate<8,0>, COMDAT

; 213  : void _Deallocate(void* _Ptr, size_t _Bytes) noexcept {

  00000	55		 push	 ebp
  00001	8b ec		 mov	 ebp, esp
  00003	6a ff		 push	 -1
  00005	68 00 00 00 00	 push	 __ehhandler$??$_Deallocate@$07$0A@@std@@YAXPAXI@Z
  0000a	64 a1 00 00 00
	00		 mov	 eax, DWORD PTR fs:0
  00010	50		 push	 eax
  00011	a1 00 00 00 00	 mov	 eax, DWORD PTR ___security_cookie
  00016	33 c5		 xor	 eax, ebp
  00018	50		 push	 eax
  00019	8d 45 f4	 lea	 eax, DWORD PTR __$EHRec$[ebp]
  0001c	64 a3 00 00 00
	00		 mov	 DWORD PTR fs:0, eax

; 214  :     // deallocate storage allocated by _Allocate when !_HAS_ALIGNED_NEW || _Align <= __STDCPP_DEFAULT_NEW_ALIGNMENT__
; 215  : #if defined(_M_IX86) || defined(_M_X64)
; 216  :     if (_Bytes >= _Big_allocation_threshold) { // boost the alignment of big allocations to help autovectorization

  00022	81 7d 0c 00 10
	00 00		 cmp	 DWORD PTR __Bytes$[ebp], 4096 ; 00001000H
  00029	72 0f		 jb	 SHORT $LN2@Deallocate

; 217  :         _Adjust_manually_vector_aligned(_Ptr, _Bytes);

  0002b	8d 45 0c	 lea	 eax, DWORD PTR __Bytes$[ebp]
  0002e	50		 push	 eax
  0002f	8d 45 08	 lea	 eax, DWORD PTR __Ptr$[ebp]
  00032	50		 push	 eax
  00033	e8 00 00 00 00	 call	 ?_Adjust_manually_vector_aligned@std@@YAXAAPAXAAI@Z ; std::_Adjust_manually_vector_aligned
  00038	59		 pop	 ecx
  00039	59		 pop	 ecx
$LN2@Deallocate:

; 218  :     }
; 219  : #endif // defined(_M_IX86) || defined(_M_X64)
; 220  : 
; 221  :     ::operator delete(_Ptr, _Bytes);

  0003a	ff 75 0c	 push	 DWORD PTR __Bytes$[ebp]
  0003d	ff 75 08	 push	 DWORD PTR __Ptr$[ebp]
  00040	e8 00 00 00 00	 call	 ??3@YAXPAXI@Z		; operator delete
  00045	59		 pop	 ecx
  00046	59		 pop	 ecx

; 222  : }

  00047	8b 4d f4	 mov	 ecx, DWORD PTR __$EHRec$[ebp]
  0004a	64 89 0d 00 00
	00 00		 mov	 DWORD PTR fs:0, ecx
  00051	59		 pop	 ecx
  00052	c9		 leave
  00053	c3		 ret	 0
  00054	cc		 int	 3
  00055	cc		 int	 3
  00056	cc		 int	 3
  00057	cc		 int	 3
  00058	cc		 int	 3
_TEXT	ENDS
;	COMDAT text$x
text$x	SEGMENT
__ehhandler$??$_Deallocate@$07$0A@@std@@YAXPAXI@Z:
  00000	90		 npad	 1
  00001	90		 npad	 1
  00002	8b 54 24 08	 mov	 edx, DWORD PTR [esp+8]
  00006	8d 42 0c	 lea	 eax, DWORD PTR [edx+12]
  00009	8b 4a fc	 mov	 ecx, DWORD PTR [edx-4]
  0000c	33 c8		 xor	 ecx, eax
  0000e	e8 00 00 00 00	 call	 @__security_check_cookie@4
  00013	b8 00 00 00 00	 mov	 eax, OFFSET __ehfuncinfo$??$_Deallocate@$07$0A@@std@@YAXPAXI@Z
  00018	e9 00 00 00 00	 jmp	 ___CxxFrameHandler3
text$x	ENDS
??$_Deallocate@$07$0A@@std@@YAXPAXI@Z ENDP		; std::_Deallocate<8,0>
; Function compile flags: /Odspy
; File C:\Program Files (x86)\Microsoft Visual Studio\2019\Community\VC\Tools\MSVC\14.28.29333\include\xmemory
;	COMDAT ?_Adjust_manually_vector_aligned@std@@YAXAAPAXAAI@Z
_TEXT	SEGMENT
__Min_back_shift$ = -16					; size = 4
__Ptr_user$ = -12					; size = 4
__Ptr_container$ = -8					; size = 4
__Back_shift$ = -4					; size = 4
__Ptr$ = 8						; size = 4
__Bytes$ = 12						; size = 4
?_Adjust_manually_vector_aligned@std@@YAXAAPAXAAI@Z PROC ; std::_Adjust_manually_vector_aligned, COMDAT

; 132  : inline void _Adjust_manually_vector_aligned(void*& _Ptr, size_t& _Bytes) {

  00000	55		 push	 ebp
  00001	8b ec		 mov	 ebp, esp
  00003	83 ec 10	 sub	 esp, 16			; 00000010H

; 133  :     // adjust parameters from _Allocate_manually_vector_aligned to pass to operator delete
; 134  :     _Bytes += _Non_user_size;

  00006	8b 45 0c	 mov	 eax, DWORD PTR __Bytes$[ebp]
  00009	8b 00		 mov	 eax, DWORD PTR [eax]
  0000b	83 c0 23	 add	 eax, 35			; 00000023H
  0000e	8b 4d 0c	 mov	 ecx, DWORD PTR __Bytes$[ebp]
  00011	89 01		 mov	 DWORD PTR [ecx], eax

; 135  : 
; 136  :     const uintptr_t* const _Ptr_user = reinterpret_cast<uintptr_t*>(_Ptr);

  00013	8b 45 08	 mov	 eax, DWORD PTR __Ptr$[ebp]
  00016	8b 00		 mov	 eax, DWORD PTR [eax]
  00018	89 45 f4	 mov	 DWORD PTR __Ptr_user$[ebp], eax

; 137  :     const uintptr_t _Ptr_container   = _Ptr_user[-1];

  0001b	6a 04		 push	 4
  0001d	58		 pop	 eax
  0001e	6b c0 ff	 imul	 eax, eax, -1
  00021	8b 4d f4	 mov	 ecx, DWORD PTR __Ptr_user$[ebp]
  00024	8b 04 01	 mov	 eax, DWORD PTR [ecx+eax]
  00027	89 45 f8	 mov	 DWORD PTR __Ptr_container$[ebp], eax

; 138  : 
; 139  :     // If the following asserts, it likely means that we are performing
; 140  :     // an aligned delete on memory coming from an unaligned allocation.
; 141  :     _STL_ASSERT(_Ptr_user[-2] == _Big_allocation_sentinel, "invalid argument");
; 142  : 
; 143  :     // Extra paranoia on aligned allocation/deallocation; ensure _Ptr_container is
; 144  :     // in range [_Min_back_shift, _Non_user_size]
; 145  : #ifdef _DEBUG
; 146  :     constexpr uintptr_t _Min_back_shift = 2 * sizeof(void*);
; 147  : #else // ^^^ _DEBUG ^^^ // vvv !_DEBUG vvv
; 148  :     constexpr uintptr_t _Min_back_shift = sizeof(void*);

  0002a	c7 45 f0 04 00
	00 00		 mov	 DWORD PTR __Min_back_shift$[ebp], 4

; 149  : #endif // _DEBUG
; 150  :     const uintptr_t _Back_shift = reinterpret_cast<uintptr_t>(_Ptr) - _Ptr_container;

  00031	8b 45 08	 mov	 eax, DWORD PTR __Ptr$[ebp]
  00034	8b 00		 mov	 eax, DWORD PTR [eax]
  00036	2b 45 f8	 sub	 eax, DWORD PTR __Ptr_container$[ebp]
  00039	89 45 fc	 mov	 DWORD PTR __Back_shift$[ebp], eax
$LN4@Adjust_man:

; 151  :     _STL_VERIFY(_Back_shift >= _Min_back_shift && _Back_shift <= _Non_user_size, "invalid argument");

  0003c	83 7d fc 04	 cmp	 DWORD PTR __Back_shift$[ebp], 4
  00040	72 08		 jb	 SHORT $LN7@Adjust_man
  00042	83 7d fc 23	 cmp	 DWORD PTR __Back_shift$[ebp], 35 ; 00000023H
  00046	77 02		 ja	 SHORT $LN7@Adjust_man
  00048	eb 09		 jmp	 SHORT $LN2@Adjust_man
$LN7@Adjust_man:
  0004a	e8 00 00 00 00	 call	 __invalid_parameter_noinfo_noreturn
  0004f	33 c0		 xor	 eax, eax
  00051	75 f7		 jne	 SHORT $LN7@Adjust_man
$LN2@Adjust_man:
  00053	33 c0		 xor	 eax, eax
  00055	75 e5		 jne	 SHORT $LN4@Adjust_man

; 152  :     _Ptr = reinterpret_cast<void*>(_Ptr_container);

  00057	8b 45 08	 mov	 eax, DWORD PTR __Ptr$[ebp]
  0005a	8b 4d f8	 mov	 ecx, DWORD PTR __Ptr_container$[ebp]
  0005d	89 08		 mov	 DWORD PTR [eax], ecx
$LN10@Adjust_man:

; 153  : }

  0005f	c9		 leave
  00060	c3		 ret	 0
?_Adjust_manually_vector_aligned@std@@YAXAAPAXAAI@Z ENDP ; std::_Adjust_manually_vector_aligned
_TEXT	ENDS
; Function compile flags: /Odspy
; File C:\Program Files (x86)\Microsoft Visual Studio\2019\Community\VC\Tools\MSVC\14.28.29333\include\exception
;	COMDAT ?_Throw_bad_array_new_length@std@@YAXXZ
_TEXT	SEGMENT
$T1 = -12						; size = 12
?_Throw_bad_array_new_length@std@@YAXXZ PROC		; std::_Throw_bad_array_new_length, COMDAT

; 320  : [[noreturn]] inline void _Throw_bad_array_new_length() {

  00000	55		 push	 ebp
  00001	8b ec		 mov	 ebp, esp
  00003	83 ec 0c	 sub	 esp, 12			; 0000000cH

; 321  :     _THROW(bad_array_new_length{});

  00006	8d 4d f4	 lea	 ecx, DWORD PTR $T1[ebp]
  00009	e8 00 00 00 00	 call	 ??0bad_array_new_length@std@@QAE@XZ ; std::bad_array_new_length::bad_array_new_length
  0000e	68 00 00 00 00	 push	 OFFSET __TI3?AVbad_array_new_length@std@@
  00013	8d 45 f4	 lea	 eax, DWORD PTR $T1[ebp]
  00016	50		 push	 eax
  00017	e8 00 00 00 00	 call	 __CxxThrowException@8
$LN2@Throw_bad_:

; 322  : }

  0001c	c9		 leave
  0001d	c3		 ret	 0
?_Throw_bad_array_new_length@std@@YAXXZ ENDP		; std::_Throw_bad_array_new_length
_TEXT	ENDS
; Function compile flags: /Odspy
; File C:\Program Files (x86)\Microsoft Visual Studio\2019\Community\VC\Tools\MSVC\14.28.29333\include\vcruntime_exception.h
;	COMDAT ??_Gbad_array_new_length@std@@UAEPAXI@Z
_TEXT	SEGMENT
_this$ = -4						; size = 4
___flags$ = 8						; size = 4
??_Gbad_array_new_length@std@@UAEPAXI@Z PROC		; std::bad_array_new_length::`scalar deleting destructor', COMDAT
; _this$ = ecx
  00000	55		 push	 ebp
  00001	8b ec		 mov	 ebp, esp
  00003	51		 push	 ecx
  00004	89 4d fc	 mov	 DWORD PTR _this$[ebp], ecx

; 89   :     {

  00007	8b 45 fc	 mov	 eax, DWORD PTR _this$[ebp]
  0000a	c7 00 00 00 00
	00		 mov	 DWORD PTR [eax], OFFSET ??_7exception@std@@6B@

; 90   :         __std_exception_destroy(&_Data);

  00010	8b 45 fc	 mov	 eax, DWORD PTR _this$[ebp]
  00013	83 c0 04	 add	 eax, 4
  00016	50		 push	 eax
  00017	e8 00 00 00 00	 call	 ___std_exception_destroy
  0001c	59		 pop	 ecx
  0001d	8b 45 08	 mov	 eax, DWORD PTR ___flags$[ebp]
  00020	83 e0 01	 and	 eax, 1
  00023	74 0c		 je	 SHORT $LN2@scalar
  00025	6a 0c		 push	 12			; 0000000cH
  00027	ff 75 fc	 push	 DWORD PTR _this$[ebp]
  0002a	e8 00 00 00 00	 call	 ??3@YAXPAXI@Z		; operator delete
  0002f	59		 pop	 ecx
  00030	59		 pop	 ecx
$LN2@scalar:
  00031	8b 45 fc	 mov	 eax, DWORD PTR _this$[ebp]
  00034	c9		 leave
  00035	c2 04 00	 ret	 4
??_Gbad_array_new_length@std@@UAEPAXI@Z ENDP		; std::bad_array_new_length::`scalar deleting destructor'
_TEXT	ENDS
; Function compile flags: /Odspy
;	COMDAT ??0bad_array_new_length@std@@QAE@ABV01@@Z
_TEXT	SEGMENT
_this$ = -4						; size = 4
___that$ = 8						; size = 4
??0bad_array_new_length@std@@QAE@ABV01@@Z PROC		; std::bad_array_new_length::bad_array_new_length, COMDAT
; _this$ = ecx
  00000	55		 push	 ebp
  00001	8b ec		 mov	 ebp, esp
  00003	51		 push	 ecx
  00004	89 4d fc	 mov	 DWORD PTR _this$[ebp], ecx
  00007	ff 75 08	 push	 DWORD PTR ___that$[ebp]
  0000a	8b 4d fc	 mov	 ecx, DWORD PTR _this$[ebp]
  0000d	e8 00 00 00 00	 call	 ??0exception@std@@QAE@ABV01@@Z ; std::exception::exception
  00012	8b 45 fc	 mov	 eax, DWORD PTR _this$[ebp]
  00015	c7 00 00 00 00
	00		 mov	 DWORD PTR [eax], OFFSET ??_7bad_alloc@std@@6B@
  0001b	8b 45 fc	 mov	 eax, DWORD PTR _this$[ebp]
  0001e	c7 00 00 00 00
	00		 mov	 DWORD PTR [eax], OFFSET ??_7bad_array_new_length@std@@6B@
  00024	8b 45 fc	 mov	 eax, DWORD PTR _this$[ebp]
  00027	c9		 leave
  00028	c2 04 00	 ret	 4
??0bad_array_new_length@std@@QAE@ABV01@@Z ENDP		; std::bad_array_new_length::bad_array_new_length
_TEXT	ENDS
; Function compile flags: /Odspy
; File C:\Program Files (x86)\Microsoft Visual Studio\2019\Community\VC\Tools\MSVC\14.28.29333\include\vcruntime_exception.h
;	COMDAT ??1bad_array_new_length@std@@UAE@XZ
_TEXT	SEGMENT
_this$ = -4						; size = 4
??1bad_array_new_length@std@@UAE@XZ PROC		; std::bad_array_new_length::~bad_array_new_length, COMDAT
; _this$ = ecx
  00000	55		 push	 ebp
  00001	8b ec		 mov	 ebp, esp
  00003	51		 push	 ecx
  00004	89 4d fc	 mov	 DWORD PTR _this$[ebp], ecx

; 89   :     {

  00007	8b 45 fc	 mov	 eax, DWORD PTR _this$[ebp]
  0000a	c7 00 00 00 00
	00		 mov	 DWORD PTR [eax], OFFSET ??_7exception@std@@6B@

; 90   :         __std_exception_destroy(&_Data);

  00010	8b 45 fc	 mov	 eax, DWORD PTR _this$[ebp]
  00013	83 c0 04	 add	 eax, 4
  00016	50		 push	 eax
  00017	e8 00 00 00 00	 call	 ___std_exception_destroy
  0001c	59		 pop	 ecx
  0001d	c9		 leave
  0001e	c3		 ret	 0
??1bad_array_new_length@std@@UAE@XZ ENDP		; std::bad_array_new_length::~bad_array_new_length
_TEXT	ENDS
; Function compile flags: /Odspy
; File C:\Program Files (x86)\Microsoft Visual Studio\2019\Community\VC\Tools\MSVC\14.28.29333\include\vcruntime_exception.h
;	COMDAT ??0bad_array_new_length@std@@QAE@XZ
_TEXT	SEGMENT
_this$ = -4						; size = 4
??0bad_array_new_length@std@@QAE@XZ PROC		; std::bad_array_new_length::bad_array_new_length, COMDAT
; _this$ = ecx

; 141  :     {

  00000	55		 push	 ebp
  00001	8b ec		 mov	 ebp, esp
  00003	51		 push	 ecx
  00004	89 4d fc	 mov	 DWORD PTR _this$[ebp], ecx

; 66   :     {

  00007	8b 45 fc	 mov	 eax, DWORD PTR _this$[ebp]
  0000a	c7 00 00 00 00
	00		 mov	 DWORD PTR [eax], OFFSET ??_7exception@std@@6B@

; 65   :         : _Data()

  00010	33 c0		 xor	 eax, eax
  00012	8b 4d fc	 mov	 ecx, DWORD PTR _this$[ebp]
  00015	83 c1 04	 add	 ecx, 4
  00018	89 01		 mov	 DWORD PTR [ecx], eax
  0001a	89 41 04	 mov	 DWORD PTR [ecx+4], eax

; 67   :         _Data._What = _Message;

  0001d	8b 45 fc	 mov	 eax, DWORD PTR _this$[ebp]
  00020	c7 40 04 00 00
	00 00		 mov	 DWORD PTR [eax+4], OFFSET ??_C@_0BF@KINCDENJ@bad?5array?5new?5length@

; 130  :     {

  00027	8b 45 fc	 mov	 eax, DWORD PTR _this$[ebp]
  0002a	c7 00 00 00 00
	00		 mov	 DWORD PTR [eax], OFFSET ??_7bad_alloc@std@@6B@

; 141  :     {

  00030	8b 45 fc	 mov	 eax, DWORD PTR _this$[ebp]
  00033	c7 00 00 00 00
	00		 mov	 DWORD PTR [eax], OFFSET ??_7bad_array_new_length@std@@6B@

; 142  :     }

  00039	8b 45 fc	 mov	 eax, DWORD PTR _this$[ebp]
  0003c	c9		 leave
  0003d	c3		 ret	 0
??0bad_array_new_length@std@@QAE@XZ ENDP		; std::bad_array_new_length::bad_array_new_length
_TEXT	ENDS
; Function compile flags: /Odspy
; File C:\Program Files (x86)\Microsoft Visual Studio\2019\Community\VC\Tools\MSVC\14.28.29333\include\vcruntime_exception.h
;	COMDAT ??_Gbad_alloc@std@@UAEPAXI@Z
_TEXT	SEGMENT
_this$ = -4						; size = 4
___flags$ = 8						; size = 4
??_Gbad_alloc@std@@UAEPAXI@Z PROC			; std::bad_alloc::`scalar deleting destructor', COMDAT
; _this$ = ecx
  00000	55		 push	 ebp
  00001	8b ec		 mov	 ebp, esp
  00003	51		 push	 ecx
  00004	89 4d fc	 mov	 DWORD PTR _this$[ebp], ecx

; 89   :     {

  00007	8b 45 fc	 mov	 eax, DWORD PTR _this$[ebp]
  0000a	c7 00 00 00 00
	00		 mov	 DWORD PTR [eax], OFFSET ??_7exception@std@@6B@

; 90   :         __std_exception_destroy(&_Data);

  00010	8b 45 fc	 mov	 eax, DWORD PTR _this$[ebp]
  00013	83 c0 04	 add	 eax, 4
  00016	50		 push	 eax
  00017	e8 00 00 00 00	 call	 ___std_exception_destroy
  0001c	59		 pop	 ecx
  0001d	8b 45 08	 mov	 eax, DWORD PTR ___flags$[ebp]
  00020	83 e0 01	 and	 eax, 1
  00023	74 0c		 je	 SHORT $LN2@scalar
  00025	6a 0c		 push	 12			; 0000000cH
  00027	ff 75 fc	 push	 DWORD PTR _this$[ebp]
  0002a	e8 00 00 00 00	 call	 ??3@YAXPAXI@Z		; operator delete
  0002f	59		 pop	 ecx
  00030	59		 pop	 ecx
$LN2@scalar:
  00031	8b 45 fc	 mov	 eax, DWORD PTR _this$[ebp]
  00034	c9		 leave
  00035	c2 04 00	 ret	 4
??_Gbad_alloc@std@@UAEPAXI@Z ENDP			; std::bad_alloc::`scalar deleting destructor'
_TEXT	ENDS
; Function compile flags: /Odspy
;	COMDAT ??0bad_alloc@std@@QAE@ABV01@@Z
_TEXT	SEGMENT
_this$ = -4						; size = 4
___that$ = 8						; size = 4
??0bad_alloc@std@@QAE@ABV01@@Z PROC			; std::bad_alloc::bad_alloc, COMDAT
; _this$ = ecx
  00000	55		 push	 ebp
  00001	8b ec		 mov	 ebp, esp
  00003	51		 push	 ecx
  00004	89 4d fc	 mov	 DWORD PTR _this$[ebp], ecx
  00007	ff 75 08	 push	 DWORD PTR ___that$[ebp]
  0000a	8b 4d fc	 mov	 ecx, DWORD PTR _this$[ebp]
  0000d	e8 00 00 00 00	 call	 ??0exception@std@@QAE@ABV01@@Z ; std::exception::exception
  00012	8b 45 fc	 mov	 eax, DWORD PTR _this$[ebp]
  00015	c7 00 00 00 00
	00		 mov	 DWORD PTR [eax], OFFSET ??_7bad_alloc@std@@6B@
  0001b	8b 45 fc	 mov	 eax, DWORD PTR _this$[ebp]
  0001e	c9		 leave
  0001f	c2 04 00	 ret	 4
??0bad_alloc@std@@QAE@ABV01@@Z ENDP			; std::bad_alloc::bad_alloc
_TEXT	ENDS
; Function compile flags: /Odspy
; File C:\Program Files (x86)\Microsoft Visual Studio\2019\Community\VC\Tools\MSVC\14.28.29333\include\vcruntime_exception.h
;	COMDAT ??_Gexception@std@@UAEPAXI@Z
_TEXT	SEGMENT
_this$ = -4						; size = 4
___flags$ = 8						; size = 4
??_Gexception@std@@UAEPAXI@Z PROC			; std::exception::`scalar deleting destructor', COMDAT
; _this$ = ecx
  00000	55		 push	 ebp
  00001	8b ec		 mov	 ebp, esp
  00003	51		 push	 ecx
  00004	89 4d fc	 mov	 DWORD PTR _this$[ebp], ecx

; 89   :     {

  00007	8b 45 fc	 mov	 eax, DWORD PTR _this$[ebp]
  0000a	c7 00 00 00 00
	00		 mov	 DWORD PTR [eax], OFFSET ??_7exception@std@@6B@

; 90   :         __std_exception_destroy(&_Data);

  00010	8b 45 fc	 mov	 eax, DWORD PTR _this$[ebp]
  00013	83 c0 04	 add	 eax, 4
  00016	50		 push	 eax
  00017	e8 00 00 00 00	 call	 ___std_exception_destroy
  0001c	59		 pop	 ecx
  0001d	8b 45 08	 mov	 eax, DWORD PTR ___flags$[ebp]
  00020	83 e0 01	 and	 eax, 1
  00023	74 0c		 je	 SHORT $LN2@scalar
  00025	6a 0c		 push	 12			; 0000000cH
  00027	ff 75 fc	 push	 DWORD PTR _this$[ebp]
  0002a	e8 00 00 00 00	 call	 ??3@YAXPAXI@Z		; operator delete
  0002f	59		 pop	 ecx
  00030	59		 pop	 ecx
$LN2@scalar:
  00031	8b 45 fc	 mov	 eax, DWORD PTR _this$[ebp]
  00034	c9		 leave
  00035	c2 04 00	 ret	 4
??_Gexception@std@@UAEPAXI@Z ENDP			; std::exception::`scalar deleting destructor'
_TEXT	ENDS
; Function compile flags: /Odspy
; File C:\Program Files (x86)\Microsoft Visual Studio\2019\Community\VC\Tools\MSVC\14.28.29333\include\vcruntime_exception.h
;	COMDAT ?what@exception@std@@UBEPBDXZ
_TEXT	SEGMENT
tv69 = -8						; size = 4
_this$ = -4						; size = 4
?what@exception@std@@UBEPBDXZ PROC			; std::exception::what, COMDAT
; _this$ = ecx

; 94   :     {

  00000	55		 push	 ebp
  00001	8b ec		 mov	 ebp, esp
  00003	51		 push	 ecx
  00004	51		 push	 ecx
  00005	89 4d fc	 mov	 DWORD PTR _this$[ebp], ecx

; 95   :         return _Data._What ? _Data._What : "Unknown exception";

  00008	8b 45 fc	 mov	 eax, DWORD PTR _this$[ebp]
  0000b	83 78 04 00	 cmp	 DWORD PTR [eax+4], 0
  0000f	74 0b		 je	 SHORT $LN3@what
  00011	8b 45 fc	 mov	 eax, DWORD PTR _this$[ebp]
  00014	8b 40 04	 mov	 eax, DWORD PTR [eax+4]
  00017	89 45 f8	 mov	 DWORD PTR tv69[ebp], eax
  0001a	eb 07		 jmp	 SHORT $LN4@what
$LN3@what:
  0001c	c7 45 f8 00 00
	00 00		 mov	 DWORD PTR tv69[ebp], OFFSET ??_C@_0BC@EOODALEL@Unknown?5exception@
$LN4@what:
  00023	8b 45 f8	 mov	 eax, DWORD PTR tv69[ebp]

; 96   :     }

  00026	c9		 leave
  00027	c3		 ret	 0
?what@exception@std@@UBEPBDXZ ENDP			; std::exception::what
_TEXT	ENDS
; Function compile flags: /Odspy
; File C:\Program Files (x86)\Microsoft Visual Studio\2019\Community\VC\Tools\MSVC\14.28.29333\include\vcruntime_exception.h
;	COMDAT ??0exception@std@@QAE@ABV01@@Z
_TEXT	SEGMENT
_this$ = -4						; size = 4
__Other$ = 8						; size = 4
??0exception@std@@QAE@ABV01@@Z PROC			; std::exception::exception, COMDAT
; _this$ = ecx

; 72   :     {

  00000	55		 push	 ebp
  00001	8b ec		 mov	 ebp, esp
  00003	51		 push	 ecx
  00004	89 4d fc	 mov	 DWORD PTR _this$[ebp], ecx
  00007	8b 45 fc	 mov	 eax, DWORD PTR _this$[ebp]
  0000a	c7 00 00 00 00
	00		 mov	 DWORD PTR [eax], OFFSET ??_7exception@std@@6B@

; 71   :         : _Data()

  00010	33 c0		 xor	 eax, eax
  00012	8b 4d fc	 mov	 ecx, DWORD PTR _this$[ebp]
  00015	83 c1 04	 add	 ecx, 4
  00018	89 01		 mov	 DWORD PTR [ecx], eax
  0001a	89 41 04	 mov	 DWORD PTR [ecx+4], eax

; 73   :         __std_exception_copy(&_Other._Data, &_Data);

  0001d	8b 45 fc	 mov	 eax, DWORD PTR _this$[ebp]
  00020	83 c0 04	 add	 eax, 4
  00023	50		 push	 eax
  00024	8b 45 08	 mov	 eax, DWORD PTR __Other$[ebp]
  00027	83 c0 04	 add	 eax, 4
  0002a	50		 push	 eax
  0002b	e8 00 00 00 00	 call	 ___std_exception_copy
  00030	59		 pop	 ecx
  00031	59		 pop	 ecx

; 74   :     }

  00032	8b 45 fc	 mov	 eax, DWORD PTR _this$[ebp]
  00035	c9		 leave
  00036	c2 04 00	 ret	 4
??0exception@std@@QAE@ABV01@@Z ENDP			; std::exception::exception
_TEXT	ENDS
END
