; Listing generated by Microsoft (R) Optimizing Compiler Version 19.28.29335.0 

	TITLE	D:\Metin2 Server Files\mainline\SRC_2014\Metin2Client\GameLib\SnowEnvironment.cpp
	.686P
	.XMM
	include listing.inc
	.model	flat

INCLUDELIB LIBCMT
INCLUDELIB OLDNAMES

PUBLIC	??_H@YGXPAXIIP6EPAX0@Z@Z			; `vector constructor iterator'
PUBLIC	??0exception@std@@QAE@ABV01@@Z			; std::exception::exception
PUBLIC	?what@exception@std@@UBEPBDXZ			; std::exception::what
PUBLIC	??_Gexception@std@@UAEPAXI@Z			; std::exception::`scalar deleting destructor'
PUBLIC	??0bad_alloc@std@@QAE@ABV01@@Z			; std::bad_alloc::bad_alloc
PUBLIC	??_Gbad_alloc@std@@UAEPAXI@Z			; std::bad_alloc::`scalar deleting destructor'
PUBLIC	??0bad_array_new_length@std@@QAE@XZ		; std::bad_array_new_length::bad_array_new_length
PUBLIC	??1bad_array_new_length@std@@UAE@XZ		; std::bad_array_new_length::~bad_array_new_length
PUBLIC	??0bad_array_new_length@std@@QAE@ABV01@@Z	; std::bad_array_new_length::bad_array_new_length
PUBLIC	??_Gbad_array_new_length@std@@UAEPAXI@Z		; std::bad_array_new_length::`scalar deleting destructor'
PUBLIC	?_Throw_bad_array_new_length@std@@YAXXZ		; std::_Throw_bad_array_new_length
PUBLIC	?_Adjust_manually_vector_aligned@std@@YAXAAPAXAAI@Z ; std::_Adjust_manually_vector_aligned
PUBLIC	??$_Deallocate@$07$0A@@std@@YAXPAXI@Z		; std::_Deallocate<8,0>
PUBLIC	??$_Allocate@$07U_Default_allocate_traits@std@@$0A@@std@@YAPAXI@Z ; std::_Allocate<8,std::_Default_allocate_traits,0>
PUBLIC	??$_Allocate_manually_vector_aligned@U_Default_allocate_traits@std@@@std@@YAPAXI@Z ; std::_Allocate_manually_vector_aligned<std::_Default_allocate_traits>
PUBLIC	??0CSnowEnvironment@@QAE@XZ			; CSnowEnvironment::CSnowEnvironment
PUBLIC	??1CSnowEnvironment@@UAE@XZ			; CSnowEnvironment::~CSnowEnvironment
PUBLIC	?Create@CSnowEnvironment@@QAE_NXZ		; CSnowEnvironment::Create
PUBLIC	?Destroy@CSnowEnvironment@@QAEXXZ		; CSnowEnvironment::Destroy
PUBLIC	?Enable@CSnowEnvironment@@QAEXXZ		; CSnowEnvironment::Enable
PUBLIC	?Disable@CSnowEnvironment@@QAEXXZ		; CSnowEnvironment::Disable
PUBLIC	?Update@CSnowEnvironment@@QAEXABUD3DXVECTOR3@@@Z ; CSnowEnvironment::Update
PUBLIC	?Deform@CSnowEnvironment@@QAEXXZ		; CSnowEnvironment::Deform
PUBLIC	?Render@CSnowEnvironment@@QAEXXZ		; CSnowEnvironment::Render
PUBLIC	?__Initialize@CSnowEnvironment@@IAEXXZ		; CSnowEnvironment::__Initialize
PUBLIC	?__CreateBlurTexture@CSnowEnvironment@@IAE_NXZ	; CSnowEnvironment::__CreateBlurTexture
PUBLIC	?__CreateGeometry@CSnowEnvironment@@IAE_NXZ	; CSnowEnvironment::__CreateGeometry
PUBLIC	?__BeginBlur@CSnowEnvironment@@IAEXXZ		; CSnowEnvironment::__BeginBlur
PUBLIC	?__ApplyBlur@CSnowEnvironment@@IAEXXZ		; CSnowEnvironment::__ApplyBlur
PUBLIC	?deallocate@?$allocator@PAVCSnowParticle@@@std@@QAEXQAPAVCSnowParticle@@I@Z ; std::allocator<CSnowParticle *>::deallocate
PUBLIC	??1?$vector@PAVCSnowParticle@@V?$allocator@PAVCSnowParticle@@@std@@@std@@QAE@XZ ; std::vector<CSnowParticle *,std::allocator<CSnowParticle *> >::~vector<CSnowParticle *,std::allocator<CSnowParticle *> >
PUBLIC	?_Reallocate_exactly@?$vector@PAVCSnowParticle@@V?$allocator@PAVCSnowParticle@@@std@@@std@@AAEXI@Z ; std::vector<CSnowParticle *,std::allocator<CSnowParticle *> >::_Reallocate_exactly
PUBLIC	?reserve@?$vector@PAVCSnowParticle@@V?$allocator@PAVCSnowParticle@@@std@@@std@@QAEXI@Z ; std::vector<CSnowParticle *,std::allocator<CSnowParticle *> >::reserve
PUBLIC	?erase@?$vector@PAVCSnowParticle@@V?$allocator@PAVCSnowParticle@@@std@@@std@@QAE?AV?$_Vector_iterator@V?$_Vector_val@U?$_Simple_types@PAVCSnowParticle@@@std@@@std@@@2@V?$_Vector_const_iterator@V?$_Vector_val@U?$_Simple_types@PAVCSnowParticle@@@std@@@std@@@2@@Z ; std::vector<CSnowParticle *,std::allocator<CSnowParticle *> >::erase
PUBLIC	?clear@?$vector@PAVCSnowParticle@@V?$allocator@PAVCSnowParticle@@@std@@@std@@QAEXXZ ; std::vector<CSnowParticle *,std::allocator<CSnowParticle *> >::clear
PUBLIC	?begin@?$vector@PAVCSnowParticle@@V?$allocator@PAVCSnowParticle@@@std@@@std@@QAE?AV?$_Vector_iterator@V?$_Vector_val@U?$_Simple_types@PAVCSnowParticle@@@std@@@std@@@2@XZ ; std::vector<CSnowParticle *,std::allocator<CSnowParticle *> >::begin
PUBLIC	?_Destroy@?$vector@PAVCSnowParticle@@V?$allocator@PAVCSnowParticle@@@std@@@std@@AAEXPAPAVCSnowParticle@@0@Z ; std::vector<CSnowParticle *,std::allocator<CSnowParticle *> >::_Destroy
PUBLIC	?_Calculate_growth@?$vector@PAVCSnowParticle@@V?$allocator@PAVCSnowParticle@@@std@@@std@@ABEII@Z ; std::vector<CSnowParticle *,std::allocator<CSnowParticle *> >::_Calculate_growth
PUBLIC	?_Change_array@?$vector@PAVCSnowParticle@@V?$allocator@PAVCSnowParticle@@@std@@@std@@AAEXQAPAVCSnowParticle@@II@Z ; std::vector<CSnowParticle *,std::allocator<CSnowParticle *> >::_Change_array
PUBLIC	?_Tidy@?$vector@PAVCSnowParticle@@V?$allocator@PAVCSnowParticle@@@std@@@std@@AAEXXZ ; std::vector<CSnowParticle *,std::allocator<CSnowParticle *> >::_Tidy
PUBLIC	?_Xlength@?$vector@PAVCSnowParticle@@V?$allocator@PAVCSnowParticle@@@std@@@std@@CAXXZ ; std::vector<CSnowParticle *,std::allocator<CSnowParticle *> >::_Xlength
PUBLIC	?_Getal@?$vector@PAVCSnowParticle@@V?$allocator@PAVCSnowParticle@@@std@@@std@@AAEAAV?$allocator@PAVCSnowParticle@@@2@XZ ; std::vector<CSnowParticle *,std::allocator<CSnowParticle *> >::_Getal
PUBLIC	??_GCSnowEnvironment@@UAEPAXI@Z			; CSnowEnvironment::`scalar deleting destructor'
PUBLIC	??1BlurVertex@@QAE@XZ				; BlurVertex::~BlurVertex
PUBLIC	??0?$_Vector_const_iterator@V?$_Vector_val@U?$_Simple_types@PAVCSnowParticle@@@std@@@std@@@std@@QAE@PAPAVCSnowParticle@@PBU_Container_base0@1@@Z ; std::_Vector_const_iterator<std::_Vector_val<std::_Simple_types<CSnowParticle *> > >::_Vector_const_iterator<std::_Vector_val<std::_Simple_types<CSnowParticle *> > >
PUBLIC	??$stl_wipe@V?$vector@PAVCSnowParticle@@V?$allocator@PAVCSnowParticle@@@std@@@std@@@@YAXAAV?$vector@PAVCSnowParticle@@V?$allocator@PAVCSnowParticle@@@std@@@std@@@Z ; stl_wipe<std::vector<CSnowParticle *,std::allocator<CSnowParticle *> > >
PUBLIC	??$emplace_back@ABQAVCSnowParticle@@@?$vector@PAVCSnowParticle@@V?$allocator@PAVCSnowParticle@@@std@@@std@@QAEXABQAVCSnowParticle@@@Z ; std::vector<CSnowParticle *,std::allocator<CSnowParticle *> >::emplace_back<CSnowParticle * const &>
PUBLIC	??$_Emplace_back_with_unused_capacity@ABQAVCSnowParticle@@@?$vector@PAVCSnowParticle@@V?$allocator@PAVCSnowParticle@@@std@@@std@@AAEXABQAVCSnowParticle@@@Z ; std::vector<CSnowParticle *,std::allocator<CSnowParticle *> >::_Emplace_back_with_unused_capacity<CSnowParticle * const &>
PUBLIC	??$_Emplace_reallocate@ABQAVCSnowParticle@@@?$vector@PAVCSnowParticle@@V?$allocator@PAVCSnowParticle@@@std@@@std@@QAEPAPAVCSnowParticle@@QAPAV2@ABQAV2@@Z ; std::vector<CSnowParticle *,std::allocator<CSnowParticle *> >::_Emplace_reallocate<CSnowParticle * const &>
PUBLIC	??$_Destroy_range@V?$allocator@PAVCSnowParticle@@@std@@@std@@YAXPAPAVCSnowParticle@@QAPAV1@AAV?$allocator@PAVCSnowParticle@@@0@@Z ; std::_Destroy_range<std::allocator<CSnowParticle *> >
PUBLIC	??$_Uninitialized_move@PAPAVCSnowParticle@@V?$allocator@PAVCSnowParticle@@@std@@@std@@YAPAPAVCSnowParticle@@QAPAV1@0PAPAV1@AAV?$allocator@PAVCSnowParticle@@@0@@Z ; std::_Uninitialized_move<CSnowParticle * *,std::allocator<CSnowParticle *> >
PUBLIC	??$_Copy_memmove@PAPAVCSnowParticle@@PAPAV1@@std@@YAPAPAVCSnowParticle@@PAPAV1@00@Z ; std::_Copy_memmove<CSnowParticle * *,CSnowParticle * *>
PUBLIC	??_7exception@std@@6B@				; std::exception::`vftable'
PUBLIC	??_C@_0BC@EOODALEL@Unknown?5exception@		; `string'
PUBLIC	??_7bad_alloc@std@@6B@				; std::bad_alloc::`vftable'
PUBLIC	??_7bad_array_new_length@std@@6B@		; std::bad_array_new_length::`vftable'
PUBLIC	??_C@_0BF@KINCDENJ@bad?5array?5new?5length@	; `string'
PUBLIC	__TI3?AVbad_array_new_length@std@@
PUBLIC	__CTA3?AVbad_array_new_length@std@@
PUBLIC	??_R0?AVbad_array_new_length@std@@@8		; std::bad_array_new_length `RTTI Type Descriptor'
PUBLIC	__CT??_R0?AVbad_array_new_length@std@@@8??0bad_array_new_length@std@@QAE@ABV01@@Z12
PUBLIC	??_R0?AVbad_alloc@std@@@8			; std::bad_alloc `RTTI Type Descriptor'
PUBLIC	__CT??_R0?AVbad_alloc@std@@@8??0bad_alloc@std@@QAE@ABV01@@Z12
PUBLIC	??_R0?AVexception@std@@@8			; std::exception `RTTI Type Descriptor'
PUBLIC	__CT??_R0?AVexception@std@@@8??0exception@std@@QAE@ABV01@@Z12
PUBLIC	?ms_singleton@?$CSingleton@VCTimer@@@@0PAVCTimer@@A ; CSingleton<CTimer>::ms_singleton
PUBLIC	??_R4exception@std@@6B@				; std::exception::`RTTI Complete Object Locator'
PUBLIC	??_R3exception@std@@8				; std::exception::`RTTI Class Hierarchy Descriptor'
PUBLIC	??_R2exception@std@@8				; std::exception::`RTTI Base Class Array'
PUBLIC	??_R1A@?0A@EA@exception@std@@8			; std::exception::`RTTI Base Class Descriptor at (0,-1,0,64)'
PUBLIC	??_R4bad_alloc@std@@6B@				; std::bad_alloc::`RTTI Complete Object Locator'
PUBLIC	??_R3bad_alloc@std@@8				; std::bad_alloc::`RTTI Class Hierarchy Descriptor'
PUBLIC	??_R2bad_alloc@std@@8				; std::bad_alloc::`RTTI Base Class Array'
PUBLIC	??_R1A@?0A@EA@bad_alloc@std@@8			; std::bad_alloc::`RTTI Base Class Descriptor at (0,-1,0,64)'
PUBLIC	??_R4bad_array_new_length@std@@6B@		; std::bad_array_new_length::`RTTI Complete Object Locator'
PUBLIC	??_R3bad_array_new_length@std@@8		; std::bad_array_new_length::`RTTI Class Hierarchy Descriptor'
PUBLIC	??_R2bad_array_new_length@std@@8		; std::bad_array_new_length::`RTTI Base Class Array'
PUBLIC	??_R1A@?0A@EA@bad_array_new_length@std@@8	; std::bad_array_new_length::`RTTI Base Class Descriptor at (0,-1,0,64)'
PUBLIC	??_7CSnowEnvironment@@6B@			; CSnowEnvironment::`vftable'
PUBLIC	?ms_singleton@?$CSingleton@VCStateManager@@@@0PAVCStateManager@@A ; CSingleton<CStateManager>::ms_singleton
PUBLIC	?ms_singleton@?$CSingleton@VCCameraManager@@@@0PAVCCameraManager@@A ; CSingleton<CCameraManager>::ms_singleton
PUBLIC	?ms_singleton@?$CSingleton@VCResourceManager@@@@0PAVCResourceManager@@A ; CSingleton<CResourceManager>::ms_singleton
PUBLIC	??_C@_0BO@KOAGJMMK@d?3?1ymir?5work?1special?1snow?4dds@ ; `string'
PUBLIC	??_C@_0BA@FOIKENOD@vector?5too?5long@		; `string'
PUBLIC	??_R4CSnowEnvironment@@6B@			; CSnowEnvironment::`RTTI Complete Object Locator'
PUBLIC	??_R0?AVCSnowEnvironment@@@8			; CSnowEnvironment `RTTI Type Descriptor'
PUBLIC	??_R3CSnowEnvironment@@8			; CSnowEnvironment::`RTTI Class Hierarchy Descriptor'
PUBLIC	??_R2CSnowEnvironment@@8			; CSnowEnvironment::`RTTI Base Class Array'
PUBLIC	??_R1A@?0A@EA@CSnowEnvironment@@8		; CSnowEnvironment::`RTTI Base Class Descriptor at (0,-1,0,64)'
PUBLIC	??_R1A@?0A@EA@CScreen@@8			; CScreen::`RTTI Base Class Descriptor at (0,-1,0,64)'
PUBLIC	??_R0?AVCScreen@@@8				; CScreen `RTTI Type Descriptor'
PUBLIC	??_R3CScreen@@8					; CScreen::`RTTI Class Hierarchy Descriptor'
PUBLIC	??_R2CScreen@@8					; CScreen::`RTTI Base Class Array'
PUBLIC	??_R1A@?0A@EA@CGraphicCollisionObject@@8	; CGraphicCollisionObject::`RTTI Base Class Descriptor at (0,-1,0,64)'
PUBLIC	??_R0?AVCGraphicCollisionObject@@@8		; CGraphicCollisionObject `RTTI Type Descriptor'
PUBLIC	??_R3CGraphicCollisionObject@@8			; CGraphicCollisionObject::`RTTI Class Hierarchy Descriptor'
PUBLIC	??_R2CGraphicCollisionObject@@8			; CGraphicCollisionObject::`RTTI Base Class Array'
PUBLIC	??_R1A@?0A@EA@CGraphicBase@@8			; CGraphicBase::`RTTI Base Class Descriptor at (0,-1,0,64)'
PUBLIC	??_R0?AVCGraphicBase@@@8			; CGraphicBase `RTTI Type Descriptor'
PUBLIC	??_R3CGraphicBase@@8				; CGraphicBase::`RTTI Class Hierarchy Descriptor'
PUBLIC	??_R2CGraphicBase@@8				; CGraphicBase::`RTTI Base Class Array'
PUBLIC	__real@3f800000
PUBLIC	__real@447a0000
PUBLIC	__real@455ac000
PUBLIC	__xmm@41f00000000000000000000000000000
EXTRN	??_M@YGXPAXIIP6EX0@Z@Z:PROC			; `eh vector destructor iterator'
EXTRN	??2@YAPAXI@Z:PROC				; operator new
EXTRN	??3@YAXPAXI@Z:PROC				; operator delete
EXTRN	__Init_thread_header:PROC
EXTRN	__Init_thread_abort:PROC
EXTRN	__Init_thread_footer:PROC
EXTRN	__invalid_parameter_noinfo_noreturn:PROC
EXTRN	_memmove:PROC
EXTRN	___std_exception_copy:PROC
EXTRN	___std_exception_destroy:PROC
EXTRN	??_Eexception@std@@UAEPAXI@Z:PROC		; std::exception::`vector deleting destructor'
EXTRN	??_Ebad_alloc@std@@UAEPAXI@Z:PROC		; std::bad_alloc::`vector deleting destructor'
EXTRN	??_Ebad_array_new_length@std@@UAEPAXI@Z:PROC	; std::bad_array_new_length::`vector deleting destructor'
EXTRN	?_Xlength_error@std@@YAXPBD@Z:PROC		; std::_Xlength_error
EXTRN	?GetCurrentMillisecond@CTimer@@QAEKXZ:PROC	; CTimer::GetCurrentMillisecond
EXTRN	??0CScreen@@QAE@XZ:PROC				; CScreen::CScreen
EXTRN	??1CScreen@@UAE@XZ:PROC				; CScreen::~CScreen
EXTRN	?SetTextureStage@CGraphicTexture@@QBEXH@Z:PROC	; CGraphicTexture::SetTextureStage
EXTRN	?GetTextureReference@CGraphicImage@@QBEABVCGraphicTexture@@XZ:PROC ; CGraphicImage::GetTextureReference
EXTRN	?SetImagePointer@CGraphicImageInstance@@QAEXPAVCGraphicImage@@@Z:PROC ; CGraphicImageInstance::SetImagePointer
EXTRN	?GetGraphicImagePointer@CGraphicImageInstance@@QAEPAVCGraphicImage@@XZ:PROC ; CGraphicImageInstance::GetGraphicImagePointer
EXTRN	?New@CGraphicImageInstance@@SAPAV1@XZ:PROC	; CGraphicImageInstance::New
EXTRN	?Delete@CGraphicImageInstance@@SAXPAV1@@Z:PROC	; CGraphicImageInstance::Delete
EXTRN	??_ECSnowEnvironment@@UAEPAXI@Z:PROC		; CSnowEnvironment::`vector deleting destructor'
EXTRN	?SaveRenderState@CStateManager@@QAEXW4_D3DRENDERSTATETYPE@@K@Z:PROC ; CStateManager::SaveRenderState
EXTRN	?RestoreRenderState@CStateManager@@QAEXW4_D3DRENDERSTATETYPE@@@Z:PROC ; CStateManager::RestoreRenderState
EXTRN	?SetRenderState@CStateManager@@QAEXW4_D3DRENDERSTATETYPE@@K@Z:PROC ; CStateManager::SetRenderState
EXTRN	?SetTexture@CStateManager@@QAEXKPAUIDirect3DBaseTexture8@@@Z:PROC ; CStateManager::SetTexture
EXTRN	?SetTextureStageState@CStateManager@@QAEXKW4_D3DTEXTURESTAGESTATETYPE@@K@Z:PROC ; CStateManager::SetTextureStageState
EXTRN	?SetVertexShader@CStateManager@@QAEXK@Z:PROC	; CStateManager::SetVertexShader
EXTRN	?SetStreamSource@CStateManager@@QAEXIPAUIDirect3DVertexBuffer8@@I@Z:PROC ; CStateManager::SetStreamSource
EXTRN	?SetIndices@CStateManager@@QAEXPAUIDirect3DIndexBuffer8@@I@Z:PROC ; CStateManager::SetIndices
EXTRN	?DrawPrimitiveUP@CStateManager@@QAEJW4_D3DPRIMITIVETYPE@@IPBXI@Z:PROC ; CStateManager::DrawPrimitiveUP
EXTRN	?DrawIndexedPrimitive@CStateManager@@QAEJW4_D3DPRIMITIVETYPE@@IIII@Z:PROC ; CStateManager::DrawIndexedPrimitive
EXTRN	?GetCurrentCamera@CCameraManager@@QAEPAVCCamera@@XZ:PROC ; CCameraManager::GetCurrentCamera
EXTRN	?GetResourcePointer@CResourceManager@@QAEPAVCResource@@PBD@Z:PROC ; CResourceManager::GetResourcePointer
EXTRN	??1CSnowParticle@@QAE@XZ:PROC			; CSnowParticle::~CSnowParticle
EXTRN	?New@CSnowParticle@@SAPAV1@XZ:PROC		; CSnowParticle::New
EXTRN	?Delete@CSnowParticle@@SAXPAV1@@Z:PROC		; CSnowParticle::Delete
EXTRN	?DestroyPool@CSnowParticle@@SAXXZ:PROC		; CSnowParticle::DestroyPool
EXTRN	?Init@CSnowParticle@@QAEXABUD3DXVECTOR3@@@Z:PROC ; CSnowParticle::Init
EXTRN	?SetCameraVertex@CSnowParticle@@QAEXABUD3DXVECTOR3@@0@Z:PROC ; CSnowParticle::SetCameraVertex
EXTRN	?IsActivate@CSnowParticle@@QAE_NXZ:PROC		; CSnowParticle::IsActivate
EXTRN	?Update@CSnowParticle@@QAEXMABUD3DXVECTOR3@@@Z:PROC ; CSnowParticle::Update
EXTRN	?GetVerticies@CSnowParticle@@QAEXAAUSParticleVertex@@000@Z:PROC ; CSnowParticle::GetVerticies
EXTRN	@__security_check_cookie@4:PROC
EXTRN	__CxxThrowException@8:PROC
EXTRN	___CxxFrameHandler3:PROC
EXTRN	__Init_thread_epoch:DWORD
EXTRN	??_7type_info@@6B@:QWORD			; type_info::`vftable'
EXTRN	?ms_lpd3dDevice@CGraphicBase@@1PAUIDirect3DDevice8@@A:DWORD ; CGraphicBase::ms_lpd3dDevice
EXTRN	___security_cookie:DWORD
EXTRN	__fltused:DWORD
EXTRN	__tls_array:DWORD
EXTRN	__tls_index:DWORD
;	COMDAT ?ms_singleton@?$CSingleton@VCTimer@@@@0PAVCTimer@@A
_BSS	SEGMENT
?ms_singleton@?$CSingleton@VCTimer@@@@0PAVCTimer@@A DD 01H DUP (?) ; CSingleton<CTimer>::ms_singleton
_BSS	ENDS
;	COMDAT ?ms_singleton@?$CSingleton@VCStateManager@@@@0PAVCStateManager@@A
_BSS	SEGMENT
?ms_singleton@?$CSingleton@VCStateManager@@@@0PAVCStateManager@@A DD 01H DUP (?) ; CSingleton<CStateManager>::ms_singleton
_BSS	ENDS
;	COMDAT ?ms_singleton@?$CSingleton@VCCameraManager@@@@0PAVCCameraManager@@A
_BSS	SEGMENT
?ms_singleton@?$CSingleton@VCCameraManager@@@@0PAVCCameraManager@@A DD 01H DUP (?) ; CSingleton<CCameraManager>::ms_singleton
_BSS	ENDS
;	COMDAT ?ms_singleton@?$CSingleton@VCResourceManager@@@@0PAVCResourceManager@@A
_BSS	SEGMENT
?ms_singleton@?$CSingleton@VCResourceManager@@@@0PAVCResourceManager@@A DD 01H DUP (?) ; CSingleton<CResourceManager>::ms_singleton
_BSS	ENDS
;	COMDAT ?s_lLastTime@?1??Deform@CSnowEnvironment@@QAEXXZ@4JA
_BSS	SEGMENT
?s_lLastTime@?1??Deform@CSnowEnvironment@@QAEXXZ@4JA DD 01H DUP (?) ; `CSnowEnvironment::Deform'::`2'::s_lLastTime
_BSS	ENDS
;	COMDAT ?$TSS0@?1??Deform@CSnowEnvironment@@QAEXXZ@4HA
_BSS	SEGMENT
?$TSS0@?1??Deform@CSnowEnvironment@@QAEXXZ@4HA DD 01H DUP (?) ; `CSnowEnvironment::Deform'::`2'::$TSS0
_BSS	ENDS
;	COMDAT __xmm@41f00000000000000000000000000000
CONST	SEGMENT
__xmm@41f00000000000000000000000000000 DB 00H, 00H, 00H, 00H, 00H, 00H, 00H
	DB	00H, 00H, 00H, 00H, 00H, 00H, 00H, 0f0H, 'A'
CONST	ENDS
;	COMDAT __real@455ac000
CONST	SEGMENT
__real@455ac000 DD 0455ac000r			; 3500
CONST	ENDS
;	COMDAT __real@447a0000
CONST	SEGMENT
__real@447a0000 DD 0447a0000r			; 1000
CONST	ENDS
;	COMDAT __real@3f800000
CONST	SEGMENT
__real@3f800000 DD 03f800000r			; 1
CONST	ENDS
;	COMDAT ??_R2CGraphicBase@@8
rdata$r	SEGMENT
??_R2CGraphicBase@@8 DD FLAT:??_R1A@?0A@EA@CGraphicBase@@8 ; CGraphicBase::`RTTI Base Class Array'
rdata$r	ENDS
;	COMDAT ??_R3CGraphicBase@@8
rdata$r	SEGMENT
??_R3CGraphicBase@@8 DD 00H				; CGraphicBase::`RTTI Class Hierarchy Descriptor'
	DD	00H
	DD	01H
	DD	FLAT:??_R2CGraphicBase@@8
rdata$r	ENDS
;	COMDAT ??_R0?AVCGraphicBase@@@8
data$rs	SEGMENT
??_R0?AVCGraphicBase@@@8 DD FLAT:??_7type_info@@6B@	; CGraphicBase `RTTI Type Descriptor'
	DD	00H
	DB	'.?AVCGraphicBase@@', 00H
data$rs	ENDS
;	COMDAT ??_R1A@?0A@EA@CGraphicBase@@8
rdata$r	SEGMENT
??_R1A@?0A@EA@CGraphicBase@@8 DD FLAT:??_R0?AVCGraphicBase@@@8 ; CGraphicBase::`RTTI Base Class Descriptor at (0,-1,0,64)'
	DD	00H
	DD	00H
	DD	0ffffffffH
	DD	00H
	DD	040H
	DD	FLAT:??_R3CGraphicBase@@8
rdata$r	ENDS
;	COMDAT ??_R2CGraphicCollisionObject@@8
rdata$r	SEGMENT
??_R2CGraphicCollisionObject@@8 DD FLAT:??_R1A@?0A@EA@CGraphicCollisionObject@@8 ; CGraphicCollisionObject::`RTTI Base Class Array'
	DD	FLAT:??_R1A@?0A@EA@CGraphicBase@@8
rdata$r	ENDS
;	COMDAT ??_R3CGraphicCollisionObject@@8
rdata$r	SEGMENT
??_R3CGraphicCollisionObject@@8 DD 00H			; CGraphicCollisionObject::`RTTI Class Hierarchy Descriptor'
	DD	00H
	DD	02H
	DD	FLAT:??_R2CGraphicCollisionObject@@8
rdata$r	ENDS
;	COMDAT ??_R0?AVCGraphicCollisionObject@@@8
data$rs	SEGMENT
??_R0?AVCGraphicCollisionObject@@@8 DD FLAT:??_7type_info@@6B@ ; CGraphicCollisionObject `RTTI Type Descriptor'
	DD	00H
	DB	'.?AVCGraphicCollisionObject@@', 00H
data$rs	ENDS
;	COMDAT ??_R1A@?0A@EA@CGraphicCollisionObject@@8
rdata$r	SEGMENT
??_R1A@?0A@EA@CGraphicCollisionObject@@8 DD FLAT:??_R0?AVCGraphicCollisionObject@@@8 ; CGraphicCollisionObject::`RTTI Base Class Descriptor at (0,-1,0,64)'
	DD	01H
	DD	00H
	DD	0ffffffffH
	DD	00H
	DD	040H
	DD	FLAT:??_R3CGraphicCollisionObject@@8
rdata$r	ENDS
;	COMDAT ??_R2CScreen@@8
rdata$r	SEGMENT
??_R2CScreen@@8 DD FLAT:??_R1A@?0A@EA@CScreen@@8	; CScreen::`RTTI Base Class Array'
	DD	FLAT:??_R1A@?0A@EA@CGraphicCollisionObject@@8
	DD	FLAT:??_R1A@?0A@EA@CGraphicBase@@8
rdata$r	ENDS
;	COMDAT ??_R3CScreen@@8
rdata$r	SEGMENT
??_R3CScreen@@8 DD 00H					; CScreen::`RTTI Class Hierarchy Descriptor'
	DD	00H
	DD	03H
	DD	FLAT:??_R2CScreen@@8
rdata$r	ENDS
;	COMDAT ??_R0?AVCScreen@@@8
data$rs	SEGMENT
??_R0?AVCScreen@@@8 DD FLAT:??_7type_info@@6B@		; CScreen `RTTI Type Descriptor'
	DD	00H
	DB	'.?AVCScreen@@', 00H
data$rs	ENDS
;	COMDAT ??_R1A@?0A@EA@CScreen@@8
rdata$r	SEGMENT
??_R1A@?0A@EA@CScreen@@8 DD FLAT:??_R0?AVCScreen@@@8	; CScreen::`RTTI Base Class Descriptor at (0,-1,0,64)'
	DD	02H
	DD	00H
	DD	0ffffffffH
	DD	00H
	DD	040H
	DD	FLAT:??_R3CScreen@@8
rdata$r	ENDS
;	COMDAT ??_R1A@?0A@EA@CSnowEnvironment@@8
rdata$r	SEGMENT
??_R1A@?0A@EA@CSnowEnvironment@@8 DD FLAT:??_R0?AVCSnowEnvironment@@@8 ; CSnowEnvironment::`RTTI Base Class Descriptor at (0,-1,0,64)'
	DD	03H
	DD	00H
	DD	0ffffffffH
	DD	00H
	DD	040H
	DD	FLAT:??_R3CSnowEnvironment@@8
rdata$r	ENDS
;	COMDAT ??_R2CSnowEnvironment@@8
rdata$r	SEGMENT
??_R2CSnowEnvironment@@8 DD FLAT:??_R1A@?0A@EA@CSnowEnvironment@@8 ; CSnowEnvironment::`RTTI Base Class Array'
	DD	FLAT:??_R1A@?0A@EA@CScreen@@8
	DD	FLAT:??_R1A@?0A@EA@CGraphicCollisionObject@@8
	DD	FLAT:??_R1A@?0A@EA@CGraphicBase@@8
rdata$r	ENDS
;	COMDAT ??_R3CSnowEnvironment@@8
rdata$r	SEGMENT
??_R3CSnowEnvironment@@8 DD 00H				; CSnowEnvironment::`RTTI Class Hierarchy Descriptor'
	DD	00H
	DD	04H
	DD	FLAT:??_R2CSnowEnvironment@@8
rdata$r	ENDS
;	COMDAT ??_R0?AVCSnowEnvironment@@@8
data$rs	SEGMENT
??_R0?AVCSnowEnvironment@@@8 DD FLAT:??_7type_info@@6B@	; CSnowEnvironment `RTTI Type Descriptor'
	DD	00H
	DB	'.?AVCSnowEnvironment@@', 00H
data$rs	ENDS
;	COMDAT ??_R4CSnowEnvironment@@6B@
rdata$r	SEGMENT
??_R4CSnowEnvironment@@6B@ DD 00H			; CSnowEnvironment::`RTTI Complete Object Locator'
	DD	00H
	DD	00H
	DD	FLAT:??_R0?AVCSnowEnvironment@@@8
	DD	FLAT:??_R3CSnowEnvironment@@8
rdata$r	ENDS
;	COMDAT ??_C@_0BA@FOIKENOD@vector?5too?5long@
CONST	SEGMENT
??_C@_0BA@FOIKENOD@vector?5too?5long@ DB 'vector too long', 00H ; `string'
CONST	ENDS
;	COMDAT ??_C@_0BO@KOAGJMMK@d?3?1ymir?5work?1special?1snow?4dds@
CONST	SEGMENT
??_C@_0BO@KOAGJMMK@d?3?1ymir?5work?1special?1snow?4dds@ DB 'd:/ymir work/'
	DB	'special/snow.dds', 00H			; `string'
CONST	ENDS
;	COMDAT ??_7CSnowEnvironment@@6B@
CONST	SEGMENT
??_7CSnowEnvironment@@6B@ DD FLAT:??_R4CSnowEnvironment@@6B@ ; CSnowEnvironment::`vftable'
	DD	FLAT:??_ECSnowEnvironment@@UAEPAXI@Z
CONST	ENDS
;	COMDAT ??_R1A@?0A@EA@bad_array_new_length@std@@8
rdata$r	SEGMENT
??_R1A@?0A@EA@bad_array_new_length@std@@8 DD FLAT:??_R0?AVbad_array_new_length@std@@@8 ; std::bad_array_new_length::`RTTI Base Class Descriptor at (0,-1,0,64)'
	DD	02H
	DD	00H
	DD	0ffffffffH
	DD	00H
	DD	040H
	DD	FLAT:??_R3bad_array_new_length@std@@8
rdata$r	ENDS
;	COMDAT ??_R2bad_array_new_length@std@@8
rdata$r	SEGMENT
??_R2bad_array_new_length@std@@8 DD FLAT:??_R1A@?0A@EA@bad_array_new_length@std@@8 ; std::bad_array_new_length::`RTTI Base Class Array'
	DD	FLAT:??_R1A@?0A@EA@bad_alloc@std@@8
	DD	FLAT:??_R1A@?0A@EA@exception@std@@8
rdata$r	ENDS
;	COMDAT ??_R3bad_array_new_length@std@@8
rdata$r	SEGMENT
??_R3bad_array_new_length@std@@8 DD 00H			; std::bad_array_new_length::`RTTI Class Hierarchy Descriptor'
	DD	00H
	DD	03H
	DD	FLAT:??_R2bad_array_new_length@std@@8
rdata$r	ENDS
;	COMDAT ??_R4bad_array_new_length@std@@6B@
rdata$r	SEGMENT
??_R4bad_array_new_length@std@@6B@ DD 00H		; std::bad_array_new_length::`RTTI Complete Object Locator'
	DD	00H
	DD	00H
	DD	FLAT:??_R0?AVbad_array_new_length@std@@@8
	DD	FLAT:??_R3bad_array_new_length@std@@8
rdata$r	ENDS
;	COMDAT ??_R1A@?0A@EA@bad_alloc@std@@8
rdata$r	SEGMENT
??_R1A@?0A@EA@bad_alloc@std@@8 DD FLAT:??_R0?AVbad_alloc@std@@@8 ; std::bad_alloc::`RTTI Base Class Descriptor at (0,-1,0,64)'
	DD	01H
	DD	00H
	DD	0ffffffffH
	DD	00H
	DD	040H
	DD	FLAT:??_R3bad_alloc@std@@8
rdata$r	ENDS
;	COMDAT ??_R2bad_alloc@std@@8
rdata$r	SEGMENT
??_R2bad_alloc@std@@8 DD FLAT:??_R1A@?0A@EA@bad_alloc@std@@8 ; std::bad_alloc::`RTTI Base Class Array'
	DD	FLAT:??_R1A@?0A@EA@exception@std@@8
rdata$r	ENDS
;	COMDAT ??_R3bad_alloc@std@@8
rdata$r	SEGMENT
??_R3bad_alloc@std@@8 DD 00H				; std::bad_alloc::`RTTI Class Hierarchy Descriptor'
	DD	00H
	DD	02H
	DD	FLAT:??_R2bad_alloc@std@@8
rdata$r	ENDS
;	COMDAT ??_R4bad_alloc@std@@6B@
rdata$r	SEGMENT
??_R4bad_alloc@std@@6B@ DD 00H				; std::bad_alloc::`RTTI Complete Object Locator'
	DD	00H
	DD	00H
	DD	FLAT:??_R0?AVbad_alloc@std@@@8
	DD	FLAT:??_R3bad_alloc@std@@8
rdata$r	ENDS
;	COMDAT ??_R1A@?0A@EA@exception@std@@8
rdata$r	SEGMENT
??_R1A@?0A@EA@exception@std@@8 DD FLAT:??_R0?AVexception@std@@@8 ; std::exception::`RTTI Base Class Descriptor at (0,-1,0,64)'
	DD	00H
	DD	00H
	DD	0ffffffffH
	DD	00H
	DD	040H
	DD	FLAT:??_R3exception@std@@8
rdata$r	ENDS
;	COMDAT ??_R2exception@std@@8
rdata$r	SEGMENT
??_R2exception@std@@8 DD FLAT:??_R1A@?0A@EA@exception@std@@8 ; std::exception::`RTTI Base Class Array'
rdata$r	ENDS
;	COMDAT ??_R3exception@std@@8
rdata$r	SEGMENT
??_R3exception@std@@8 DD 00H				; std::exception::`RTTI Class Hierarchy Descriptor'
	DD	00H
	DD	01H
	DD	FLAT:??_R2exception@std@@8
rdata$r	ENDS
;	COMDAT ??_R4exception@std@@6B@
rdata$r	SEGMENT
??_R4exception@std@@6B@ DD 00H				; std::exception::`RTTI Complete Object Locator'
	DD	00H
	DD	00H
	DD	FLAT:??_R0?AVexception@std@@@8
	DD	FLAT:??_R3exception@std@@8
rdata$r	ENDS
;	COMDAT __CT??_R0?AVexception@std@@@8??0exception@std@@QAE@ABV01@@Z12
xdata$x	SEGMENT
__CT??_R0?AVexception@std@@@8??0exception@std@@QAE@ABV01@@Z12 DD 00H
	DD	FLAT:??_R0?AVexception@std@@@8
	DD	00H
	DD	0ffffffffH
	ORG $+4
	DD	0cH
	DD	FLAT:??0exception@std@@QAE@ABV01@@Z
xdata$x	ENDS
;	COMDAT ??_R0?AVexception@std@@@8
data$r	SEGMENT
??_R0?AVexception@std@@@8 DD FLAT:??_7type_info@@6B@	; std::exception `RTTI Type Descriptor'
	DD	00H
	DB	'.?AVexception@std@@', 00H
data$r	ENDS
;	COMDAT __CT??_R0?AVbad_alloc@std@@@8??0bad_alloc@std@@QAE@ABV01@@Z12
xdata$x	SEGMENT
__CT??_R0?AVbad_alloc@std@@@8??0bad_alloc@std@@QAE@ABV01@@Z12 DD 010H
	DD	FLAT:??_R0?AVbad_alloc@std@@@8
	DD	00H
	DD	0ffffffffH
	ORG $+4
	DD	0cH
	DD	FLAT:??0bad_alloc@std@@QAE@ABV01@@Z
xdata$x	ENDS
;	COMDAT ??_R0?AVbad_alloc@std@@@8
data$r	SEGMENT
??_R0?AVbad_alloc@std@@@8 DD FLAT:??_7type_info@@6B@	; std::bad_alloc `RTTI Type Descriptor'
	DD	00H
	DB	'.?AVbad_alloc@std@@', 00H
data$r	ENDS
;	COMDAT __CT??_R0?AVbad_array_new_length@std@@@8??0bad_array_new_length@std@@QAE@ABV01@@Z12
xdata$x	SEGMENT
__CT??_R0?AVbad_array_new_length@std@@@8??0bad_array_new_length@std@@QAE@ABV01@@Z12 DD 00H
	DD	FLAT:??_R0?AVbad_array_new_length@std@@@8
	DD	00H
	DD	0ffffffffH
	ORG $+4
	DD	0cH
	DD	FLAT:??0bad_array_new_length@std@@QAE@ABV01@@Z
xdata$x	ENDS
;	COMDAT ??_R0?AVbad_array_new_length@std@@@8
data$r	SEGMENT
??_R0?AVbad_array_new_length@std@@@8 DD FLAT:??_7type_info@@6B@ ; std::bad_array_new_length `RTTI Type Descriptor'
	DD	00H
	DB	'.?AVbad_array_new_length@std@@', 00H
data$r	ENDS
;	COMDAT __CTA3?AVbad_array_new_length@std@@
xdata$x	SEGMENT
__CTA3?AVbad_array_new_length@std@@ DD 03H
	DD	FLAT:__CT??_R0?AVbad_array_new_length@std@@@8??0bad_array_new_length@std@@QAE@ABV01@@Z12
	DD	FLAT:__CT??_R0?AVbad_alloc@std@@@8??0bad_alloc@std@@QAE@ABV01@@Z12
	DD	FLAT:__CT??_R0?AVexception@std@@@8??0exception@std@@QAE@ABV01@@Z12
xdata$x	ENDS
;	COMDAT __TI3?AVbad_array_new_length@std@@
xdata$x	SEGMENT
__TI3?AVbad_array_new_length@std@@ DD 00H
	DD	FLAT:??1bad_array_new_length@std@@UAE@XZ
	DD	00H
	DD	FLAT:__CTA3?AVbad_array_new_length@std@@
xdata$x	ENDS
;	COMDAT ??_C@_0BF@KINCDENJ@bad?5array?5new?5length@
CONST	SEGMENT
??_C@_0BF@KINCDENJ@bad?5array?5new?5length@ DB 'bad array new length', 00H ; `string'
CONST	ENDS
;	COMDAT ??_7bad_array_new_length@std@@6B@
CONST	SEGMENT
??_7bad_array_new_length@std@@6B@ DD FLAT:??_R4bad_array_new_length@std@@6B@ ; std::bad_array_new_length::`vftable'
	DD	FLAT:??_Ebad_array_new_length@std@@UAEPAXI@Z
	DD	FLAT:?what@exception@std@@UBEPBDXZ
CONST	ENDS
;	COMDAT ??_7bad_alloc@std@@6B@
CONST	SEGMENT
??_7bad_alloc@std@@6B@ DD FLAT:??_R4bad_alloc@std@@6B@	; std::bad_alloc::`vftable'
	DD	FLAT:??_Ebad_alloc@std@@UAEPAXI@Z
	DD	FLAT:?what@exception@std@@UBEPBDXZ
CONST	ENDS
;	COMDAT ??_C@_0BC@EOODALEL@Unknown?5exception@
CONST	SEGMENT
??_C@_0BC@EOODALEL@Unknown?5exception@ DB 'Unknown exception', 00H ; `string'
CONST	ENDS
;	COMDAT ??_7exception@std@@6B@
CONST	SEGMENT
??_7exception@std@@6B@ DD FLAT:??_R4exception@std@@6B@	; std::exception::`vftable'
	DD	FLAT:??_Eexception@std@@UAEPAXI@Z
	DD	FLAT:?what@exception@std@@UBEPBDXZ
CONST	ENDS
;	COMDAT xdata$x
xdata$x	SEGMENT
__catchsym$??$_Emplace_reallocate@ABQAVCSnowParticle@@@?$vector@PAVCSnowParticle@@V?$allocator@PAVCSnowParticle@@@std@@@std@@QAEPAPAVCSnowParticle@@QAPAV2@ABQAV2@@Z$32 DD 040H
	DD	00H
	DD	00H
	DD	FLAT:__catch$??$_Emplace_reallocate@ABQAVCSnowParticle@@@?$vector@PAVCSnowParticle@@V?$allocator@PAVCSnowParticle@@@std@@@std@@QAEPAPAVCSnowParticle@@QAPAV2@ABQAV2@@Z$0
__unwindtable$??$_Emplace_reallocate@ABQAVCSnowParticle@@@?$vector@PAVCSnowParticle@@V?$allocator@PAVCSnowParticle@@@std@@@std@@QAEPAPAVCSnowParticle@@QAPAV2@ABQAV2@@Z DD 0ffffffffH
	DD	00H
	DD	0ffffffffH
	DD	00H
__tryblocktable$??$_Emplace_reallocate@ABQAVCSnowParticle@@@?$vector@PAVCSnowParticle@@V?$allocator@PAVCSnowParticle@@@std@@@std@@QAEPAPAVCSnowParticle@@QAPAV2@ABQAV2@@Z DD 00H
	DD	00H
	DD	01H
	DD	01H
	DD	FLAT:__catchsym$??$_Emplace_reallocate@ABQAVCSnowParticle@@@?$vector@PAVCSnowParticle@@V?$allocator@PAVCSnowParticle@@@std@@@std@@QAEPAPAVCSnowParticle@@QAPAV2@ABQAV2@@Z$32
__ehfuncinfo$??$_Emplace_reallocate@ABQAVCSnowParticle@@@?$vector@PAVCSnowParticle@@V?$allocator@PAVCSnowParticle@@@std@@@std@@QAEPAPAVCSnowParticle@@QAPAV2@ABQAV2@@Z DD 019930522H
	DD	02H
	DD	FLAT:__unwindtable$??$_Emplace_reallocate@ABQAVCSnowParticle@@@?$vector@PAVCSnowParticle@@V?$allocator@PAVCSnowParticle@@@std@@@std@@QAEPAPAVCSnowParticle@@QAPAV2@ABQAV2@@Z
	DD	01H
	DD	FLAT:__tryblocktable$??$_Emplace_reallocate@ABQAVCSnowParticle@@@?$vector@PAVCSnowParticle@@V?$allocator@PAVCSnowParticle@@@std@@@std@@QAEPAPAVCSnowParticle@@QAPAV2@ABQAV2@@Z
	DD	2 DUP(00H)
	DD	00H
	DD	01H
xdata$x	ENDS
;	COMDAT xdata$x
xdata$x	SEGMENT
__ehfuncinfo$?erase@?$vector@PAVCSnowParticle@@V?$allocator@PAVCSnowParticle@@@std@@@std@@QAE?AV?$_Vector_iterator@V?$_Vector_val@U?$_Simple_types@PAVCSnowParticle@@@std@@@std@@@2@V?$_Vector_const_iterator@V?$_Vector_val@U?$_Simple_types@PAVCSnowParticle@@@std@@@std@@@2@@Z DD 019930522H
	DD	00H
	DD	00H
	DD	2 DUP(00H)
	DD	2 DUP(00H)
	DD	00H
	DD	05H
xdata$x	ENDS
;	COMDAT xdata$x
xdata$x	SEGMENT
__catchsym$?_Reallocate_exactly@?$vector@PAVCSnowParticle@@V?$allocator@PAVCSnowParticle@@@std@@@std@@AAEXI@Z$11 DD 040H
	DD	00H
	DD	00H
	DD	FLAT:__catch$?_Reallocate_exactly@?$vector@PAVCSnowParticle@@V?$allocator@PAVCSnowParticle@@@std@@@std@@AAEXI@Z$0
__unwindtable$?_Reallocate_exactly@?$vector@PAVCSnowParticle@@V?$allocator@PAVCSnowParticle@@@std@@@std@@AAEXI@Z DD 0ffffffffH
	DD	00H
	DD	0ffffffffH
	DD	00H
__tryblocktable$?_Reallocate_exactly@?$vector@PAVCSnowParticle@@V?$allocator@PAVCSnowParticle@@@std@@@std@@AAEXI@Z DD 00H
	DD	00H
	DD	01H
	DD	01H
	DD	FLAT:__catchsym$?_Reallocate_exactly@?$vector@PAVCSnowParticle@@V?$allocator@PAVCSnowParticle@@@std@@@std@@AAEXI@Z$11
__ehfuncinfo$?_Reallocate_exactly@?$vector@PAVCSnowParticle@@V?$allocator@PAVCSnowParticle@@@std@@@std@@AAEXI@Z DD 019930522H
	DD	02H
	DD	FLAT:__unwindtable$?_Reallocate_exactly@?$vector@PAVCSnowParticle@@V?$allocator@PAVCSnowParticle@@@std@@@std@@AAEXI@Z
	DD	01H
	DD	FLAT:__tryblocktable$?_Reallocate_exactly@?$vector@PAVCSnowParticle@@V?$allocator@PAVCSnowParticle@@@std@@@std@@AAEXI@Z
	DD	2 DUP(00H)
	DD	00H
	DD	01H
xdata$x	ENDS
;	COMDAT xdata$x
xdata$x	SEGMENT
__unwindtable$?__ApplyBlur@CSnowEnvironment@@IAEXXZ DD 0ffffffffH
	DD	FLAT:__unwindfunclet$?__ApplyBlur@CSnowEnvironment@@IAEXXZ$4
__ehfuncinfo$?__ApplyBlur@CSnowEnvironment@@IAEXXZ DD 019930522H
	DD	01H
	DD	FLAT:__unwindtable$?__ApplyBlur@CSnowEnvironment@@IAEXXZ
	DD	2 DUP(00H)
	DD	2 DUP(00H)
	DD	00H
	DD	01H
xdata$x	ENDS
;	COMDAT xdata$x
xdata$x	SEGMENT
__unwindtable$?Deform@CSnowEnvironment@@QAEXXZ DD 0ffffffffH
	DD	FLAT:__unwindfunclet$?Deform@CSnowEnvironment@@QAEXXZ$0
__ehfuncinfo$?Deform@CSnowEnvironment@@QAEXXZ DD 019930522H
	DD	01H
	DD	FLAT:__unwindtable$?Deform@CSnowEnvironment@@QAEXXZ
	DD	2 DUP(00H)
	DD	2 DUP(00H)
	DD	00H
	DD	01H
xdata$x	ENDS
;	COMDAT xdata$x
xdata$x	SEGMENT
__ehfuncinfo$??1CSnowEnvironment@@UAE@XZ DD 019930522H
	DD	00H
	DD	00H
	DD	2 DUP(00H)
	DD	2 DUP(00H)
	DD	00H
	DD	05H
xdata$x	ENDS
;	COMDAT xdata$x
xdata$x	SEGMENT
__unwindtable$??0CSnowEnvironment@@QAE@XZ DD 0ffffffffH
	DD	FLAT:__unwindfunclet$??0CSnowEnvironment@@QAE@XZ$0
	DD	00H
	DD	FLAT:__unwindfunclet$??0CSnowEnvironment@@QAE@XZ$1
__ehfuncinfo$??0CSnowEnvironment@@QAE@XZ DD 019930522H
	DD	02H
	DD	FLAT:__unwindtable$??0CSnowEnvironment@@QAE@XZ
	DD	2 DUP(00H)
	DD	2 DUP(00H)
	DD	00H
	DD	01H
xdata$x	ENDS
;	COMDAT xdata$x
xdata$x	SEGMENT
__ehfuncinfo$??$_Deallocate@$07$0A@@std@@YAXPAXI@Z DD 019930522H
	DD	00H
	DD	00H
	DD	2 DUP(00H)
	DD	2 DUP(00H)
	DD	00H
	DD	05H
xdata$x	ENDS
; Function compile flags: /Odspy
; File C:\Program Files (x86)\Microsoft Visual Studio\2019\Community\VC\Tools\MSVC\14.28.29333\include\xutility
;	COMDAT ??$_Copy_memmove@PAPAVCSnowParticle@@PAPAV1@@std@@YAPAPAVCSnowParticle@@PAPAV1@00@Z
_TEXT	SEGMENT
__Last_ch$ = -16					; size = 4
__Count$ = -12						; size = 4
__Dest_ch$ = -8						; size = 4
__First_ch$ = -4					; size = 4
__First$ = 8						; size = 4
__Last$ = 12						; size = 4
__Dest$ = 16						; size = 4
??$_Copy_memmove@PAPAVCSnowParticle@@PAPAV1@@std@@YAPAPAVCSnowParticle@@PAPAV1@00@Z PROC ; std::_Copy_memmove<CSnowParticle * *,CSnowParticle * *>, COMDAT

; 4360 : _OutIt _Copy_memmove(_InIt _First, _InIt _Last, _OutIt _Dest) {

  00000	55		 push	 ebp
  00001	8b ec		 mov	 ebp, esp
  00003	83 ec 10	 sub	 esp, 16			; 00000010H

; 4361 :     const char* const _First_ch = const_cast<const char*>(reinterpret_cast<const volatile char*>(_First));

  00006	8b 45 08	 mov	 eax, DWORD PTR __First$[ebp]
  00009	89 45 fc	 mov	 DWORD PTR __First_ch$[ebp], eax

; 4362 :     const char* const _Last_ch  = const_cast<const char*>(reinterpret_cast<const volatile char*>(_Last));

  0000c	8b 45 0c	 mov	 eax, DWORD PTR __Last$[ebp]
  0000f	89 45 f0	 mov	 DWORD PTR __Last_ch$[ebp], eax

; 4363 :     char* const _Dest_ch        = const_cast<char*>(reinterpret_cast<volatile char*>(_Dest));

  00012	8b 45 10	 mov	 eax, DWORD PTR __Dest$[ebp]
  00015	89 45 f8	 mov	 DWORD PTR __Dest_ch$[ebp], eax

; 4364 :     const auto _Count           = static_cast<size_t>(_Last_ch - _First_ch);

  00018	8b 45 f0	 mov	 eax, DWORD PTR __Last_ch$[ebp]
  0001b	2b 45 fc	 sub	 eax, DWORD PTR __First_ch$[ebp]
  0001e	89 45 f4	 mov	 DWORD PTR __Count$[ebp], eax

; 4365 :     _CSTD memmove(_Dest_ch, _First_ch, _Count);

  00021	ff 75 f4	 push	 DWORD PTR __Count$[ebp]
  00024	ff 75 fc	 push	 DWORD PTR __First_ch$[ebp]
  00027	ff 75 f8	 push	 DWORD PTR __Dest_ch$[ebp]
  0002a	e8 00 00 00 00	 call	 _memmove
  0002f	83 c4 0c	 add	 esp, 12			; 0000000cH

; 4366 :     return reinterpret_cast<_OutIt>(_Dest_ch + _Count);

  00032	8b 45 f8	 mov	 eax, DWORD PTR __Dest_ch$[ebp]
  00035	03 45 f4	 add	 eax, DWORD PTR __Count$[ebp]

; 4367 : }

  00038	c9		 leave
  00039	c3		 ret	 0
??$_Copy_memmove@PAPAVCSnowParticle@@PAPAV1@@std@@YAPAPAVCSnowParticle@@PAPAV1@00@Z ENDP ; std::_Copy_memmove<CSnowParticle * *,CSnowParticle * *>
_TEXT	ENDS
; Function compile flags: /Odspy
; File C:\Program Files (x86)\Microsoft Visual Studio\2019\Community\VC\Tools\MSVC\14.28.29333\include\xmemory
; File C:\Program Files (x86)\Microsoft Visual Studio\2019\Community\VC\Tools\MSVC\14.28.29333\include\xstddef
; File C:\Program Files (x86)\Microsoft Visual Studio\2019\Community\VC\Tools\MSVC\14.28.29333\include\xmemory
;	COMDAT ??$_Uninitialized_move@PAPAVCSnowParticle@@V?$allocator@PAVCSnowParticle@@@std@@@std@@YAPAPAVCSnowParticle@@QAPAV1@0PAPAV1@AAV?$allocator@PAVCSnowParticle@@@0@@Z
_TEXT	SEGMENT
$T1 = -12						; size = 4
__UFirst$ = -8						; size = 4
__ULast$ = -4						; size = 4
__First$ = 8						; size = 4
__Last$ = 12						; size = 4
__Dest$ = 16						; size = 4
__Al$ = 20						; size = 4
??$_Uninitialized_move@PAPAVCSnowParticle@@V?$allocator@PAVCSnowParticle@@@std@@@std@@YAPAPAVCSnowParticle@@QAPAV1@0PAPAV1@AAV?$allocator@PAVCSnowParticle@@@0@@Z PROC ; std::_Uninitialized_move<CSnowParticle * *,std::allocator<CSnowParticle *> >, COMDAT

; 1685 :     const _InIt _First, const _InIt _Last, _Alloc_ptr_t<_Alloc> _Dest, _Alloc& _Al) {

  00000	55		 push	 ebp
  00001	8b ec		 mov	 ebp, esp
  00003	83 ec 0c	 sub	 esp, 12			; 0000000cH

; 1686 :     // move [_First, _Last) to raw _Dest, using _Al
; 1687 :     // note: only called internally from elsewhere in the STL
; 1688 :     using _Ptrval     = typename _Alloc::value_type*;
; 1689 :     auto _UFirst      = _Get_unwrapped(_First);

  00006	8b 45 08	 mov	 eax, DWORD PTR __First$[ebp]
  00009	89 45 f8	 mov	 DWORD PTR __UFirst$[ebp], eax

; 1690 :     const auto _ULast = _Get_unwrapped(_Last);

  0000c	8b 45 0c	 mov	 eax, DWORD PTR __Last$[ebp]
  0000f	89 45 fc	 mov	 DWORD PTR __ULast$[ebp], eax
; File C:\Program Files (x86)\Microsoft Visual Studio\2019\Community\VC\Tools\MSVC\14.28.29333\include\xstddef

; 289  :     return _Ptr;

  00012	8b 45 10	 mov	 eax, DWORD PTR __Dest$[ebp]
  00015	89 45 f4	 mov	 DWORD PTR $T1[ebp], eax
; File C:\Program Files (x86)\Microsoft Visual Studio\2019\Community\VC\Tools\MSVC\14.28.29333\include\xmemory

; 1693 :         _Copy_memmove(_UFirst, _ULast, _Unfancy(_Dest));

  00018	ff 75 f4	 push	 DWORD PTR $T1[ebp]
  0001b	ff 75 fc	 push	 DWORD PTR __ULast$[ebp]
  0001e	ff 75 f8	 push	 DWORD PTR __UFirst$[ebp]
  00021	e8 00 00 00 00	 call	 ??$_Copy_memmove@PAPAVCSnowParticle@@PAPAV1@@std@@YAPAPAVCSnowParticle@@PAPAV1@00@Z ; std::_Copy_memmove<CSnowParticle * *,CSnowParticle * *>
  00026	83 c4 0c	 add	 esp, 12			; 0000000cH

; 1694 :         return _Dest + (_ULast - _UFirst);

  00029	8b 45 fc	 mov	 eax, DWORD PTR __ULast$[ebp]
  0002c	2b 45 f8	 sub	 eax, DWORD PTR __UFirst$[ebp]
  0002f	c1 f8 02	 sar	 eax, 2
  00032	8b 4d 10	 mov	 ecx, DWORD PTR __Dest$[ebp]
  00035	8d 04 81	 lea	 eax, DWORD PTR [ecx+eax*4]

; 1695 :     } else {
; 1696 :         _Uninitialized_backout_al<_Alloc> _Backout{_Dest, _Al};
; 1697 :         for (; _UFirst != _ULast; ++_UFirst) {
; 1698 :             _Backout._Emplace_back(_STD move(*_UFirst));
; 1699 :         }
; 1700 : 
; 1701 :         return _Backout._Release();
; 1702 :     }
; 1703 : }

  00038	c9		 leave
  00039	c3		 ret	 0
??$_Uninitialized_move@PAPAVCSnowParticle@@V?$allocator@PAVCSnowParticle@@@std@@@std@@YAPAPAVCSnowParticle@@QAPAV1@0PAPAV1@AAV?$allocator@PAVCSnowParticle@@@0@@Z ENDP ; std::_Uninitialized_move<CSnowParticle * *,std::allocator<CSnowParticle *> >
_TEXT	ENDS
; Function compile flags: /Odspy
; File C:\Program Files (x86)\Microsoft Visual Studio\2019\Community\VC\Tools\MSVC\14.28.29333\include\xmemory
;	COMDAT ??$_Destroy_range@V?$allocator@PAVCSnowParticle@@@std@@@std@@YAXPAPAVCSnowParticle@@QAPAV1@AAV?$allocator@PAVCSnowParticle@@@0@@Z
_TEXT	SEGMENT
__First$ = 8						; size = 4
__Last$ = 12						; size = 4
__Al$ = 16						; size = 4
??$_Destroy_range@V?$allocator@PAVCSnowParticle@@@std@@@std@@YAXPAPAVCSnowParticle@@QAPAV1@AAV?$allocator@PAVCSnowParticle@@@0@@Z PROC ; std::_Destroy_range<std::allocator<CSnowParticle *> >, COMDAT

; 962  :     _Alloc_ptr_t<_Alloc> _First, const _Alloc_ptr_t<_Alloc> _Last, _Alloc& _Al) noexcept {

  00000	55		 push	 ebp
  00001	8b ec		 mov	 ebp, esp

; 963  :     // note that this is an optimization for debug mode codegen; in release mode the BE removes all of this
; 964  :     using _Ty = typename _Alloc::value_type;
; 965  :     if _CONSTEXPR_IF (!conjunction_v<is_trivially_destructible<_Ty>, _Uses_default_destroy<_Alloc, _Ty*>>) {
; 966  :         for (; _First != _Last; ++_First) {
; 967  :             allocator_traits<_Alloc>::destroy(_Al, _Unfancy(_First));
; 968  :         }
; 969  :     }
; 970  : }

  00003	5d		 pop	 ebp
  00004	c3		 ret	 0
??$_Destroy_range@V?$allocator@PAVCSnowParticle@@@std@@@std@@YAXPAPAVCSnowParticle@@QAPAV1@AAV?$allocator@PAVCSnowParticle@@@0@@Z ENDP ; std::_Destroy_range<std::allocator<CSnowParticle *> >
_TEXT	ENDS
; Function compile flags: /Odspy
; File C:\Program Files (x86)\Microsoft Visual Studio\2019\Community\VC\Tools\MSVC\14.28.29333\include\vector
; File C:\Program Files (x86)\Microsoft Visual Studio\2019\Community\VC\Tools\MSVC\14.28.29333\include\xmemory
; File C:\Program Files (x86)\Microsoft Visual Studio\2019\Community\VC\Tools\MSVC\14.28.29333\include\vector
; File C:\Program Files (x86)\Microsoft Visual Studio\2019\Community\VC\Tools\MSVC\14.28.29333\include\xmemory
; File C:\Program Files (x86)\Microsoft Visual Studio\2019\Community\VC\Tools\MSVC\14.28.29333\include\vector
; File C:\Program Files (x86)\Microsoft Visual Studio\2019\Community\VC\Tools\MSVC\14.28.29333\include\xmemory
; File C:\Program Files (x86)\Microsoft Visual Studio\2019\Community\VC\Tools\MSVC\14.28.29333\include\limits
; File C:\Program Files (x86)\Microsoft Visual Studio\2019\Community\VC\Tools\MSVC\14.28.29333\include\vector
; File C:\Program Files (x86)\Microsoft Visual Studio\2019\Community\VC\Tools\MSVC\14.28.29333\include\utility
; File C:\Program Files (x86)\Microsoft Visual Studio\2019\Community\VC\Tools\MSVC\14.28.29333\include\vector
; File C:\Program Files (x86)\Microsoft Visual Studio\2019\Community\VC\Tools\MSVC\14.28.29333\include\xmemory
; File C:\Program Files (x86)\Microsoft Visual Studio\2019\Community\VC\Tools\MSVC\14.28.29333\include\vector
; File C:\Program Files (x86)\Microsoft Visual Studio\2019\Community\VC\Tools\MSVC\14.28.29333\include\type_traits
; File C:\Program Files (x86)\Microsoft Visual Studio\2019\Community\VC\Tools\MSVC\14.28.29333\include\vector
; File C:\Program Files (x86)\Microsoft Visual Studio\2019\Community\VC\Tools\MSVC\14.28.29333\include\xstddef
; File C:\Program Files (x86)\Microsoft Visual Studio\2019\Community\VC\Tools\MSVC\14.28.29333\include\vcruntime_new.h
; File C:\Program Files (x86)\Microsoft Visual Studio\2019\Community\VC\Tools\MSVC\14.28.29333\include\type_traits
; File C:\Program Files (x86)\Microsoft Visual Studio\2019\Community\VC\Tools\MSVC\14.28.29333\include\xmemory
; File C:\Program Files (x86)\Microsoft Visual Studio\2019\Community\VC\Tools\MSVC\14.28.29333\include\vector
; File C:\Program Files (x86)\Microsoft Visual Studio\2019\Community\VC\Tools\MSVC\14.28.29333\include\xmemory
; File C:\Program Files (x86)\Microsoft Visual Studio\2019\Community\VC\Tools\MSVC\14.28.29333\include\vector
; File C:\Program Files (x86)\Microsoft Visual Studio\2019\Community\VC\Tools\MSVC\14.28.29333\include\xmemory
; File C:\Program Files (x86)\Microsoft Visual Studio\2019\Community\VC\Tools\MSVC\14.28.29333\include\vector
; File C:\Program Files (x86)\Microsoft Visual Studio\2019\Community\VC\Tools\MSVC\14.28.29333\include\xmemory
; File C:\Program Files (x86)\Microsoft Visual Studio\2019\Community\VC\Tools\MSVC\14.28.29333\include\vector
;	COMDAT ??$_Emplace_reallocate@ABQAVCSnowParticle@@@?$vector@PAVCSnowParticle@@V?$allocator@PAVCSnowParticle@@@std@@@std@@QAEPAPAVCSnowParticle@@QAPAV2@ABQAV2@@Z
_TEXT	SEGMENT
__Max_possible$2 = -68					; size = 4
$T3 = -64						; size = 4
__Al$ = -60						; size = 4
__Last$ = -56						; size = 4
$T4 = -52						; size = 4
$T5 = -48						; size = 4
__First$ = -44						; size = 4
$T6 = -40						; size = 4
$T7 = -36						; size = 4
__First$ = -32						; size = 4
__Last$ = -28						; size = 4
$T8 = -24						; size = 4
$T9 = -20						; size = 4
__$EHRec$ = -16						; size = 16
$T10 = 0						; size = 4
$T11 = 4						; size = 4
$T12 = 8						; size = 4
$T13 = 12						; size = 4
$T14 = 16						; size = 4
$T15 = 20						; size = 4
$T16 = 24						; size = 4
$T17 = 28						; size = 4
$T18 = 32						; size = 4
$T19 = 36						; size = 4
$T20 = 40						; size = 4
__Newsize$ = 44						; size = 4
__Constructed_last$ = 48				; size = 4
__Oldsize$ = 52						; size = 4
tv172 = 56						; size = 4
$T21 = 60						; size = 4
$T22 = 64						; size = 4
__My_data$ = 68						; size = 4
__Constructed_first$ = 72				; size = 4
___formal$ = 76						; size = 1
__Overflow_is_possible$23 = 83				; size = 1
__Newcapacity$ = 84					; size = 4
__Mylast$ = 88						; size = 4
__Myfirst$ = 92						; size = 4
__Whereoff$ = 96					; size = 4
$T24 = 103						; size = 1
_this$ = 104						; size = 4
__Newvec$ = 108						; size = 4
__Whereptr$ = 120					; size = 4
_<_Val_0>$ = 124					; size = 4
??$_Emplace_reallocate@ABQAVCSnowParticle@@@?$vector@PAVCSnowParticle@@V?$allocator@PAVCSnowParticle@@@std@@@std@@QAEPAPAVCSnowParticle@@QAPAV2@ABQAV2@@Z PROC ; std::vector<CSnowParticle *,std::allocator<CSnowParticle *> >::_Emplace_reallocate<CSnowParticle * const &>, COMDAT
; _this$ = ecx

; 725  :     pointer _Emplace_reallocate(const pointer _Whereptr, _Valty&&... _Val) {

  00000	55		 push	 ebp
  00001	8d 6c 24 90	 lea	 ebp, DWORD PTR [esp-112]
  00005	83 ec 70	 sub	 esp, 112		; 00000070H
  00008	6a ff		 push	 -1
  0000a	68 00 00 00 00	 push	 __ehhandler$??$_Emplace_reallocate@ABQAVCSnowParticle@@@?$vector@PAVCSnowParticle@@V?$allocator@PAVCSnowParticle@@@std@@@std@@QAEPAPAVCSnowParticle@@QAPAV2@ABQAV2@@Z
  0000f	64 a1 00 00 00
	00		 mov	 eax, DWORD PTR fs:0
  00015	50		 push	 eax
  00016	51		 push	 ecx
  00017	83 ec 34	 sub	 esp, 52			; 00000034H
  0001a	53		 push	 ebx
  0001b	56		 push	 esi
  0001c	57		 push	 edi
  0001d	a1 00 00 00 00	 mov	 eax, DWORD PTR ___security_cookie
  00022	33 c5		 xor	 eax, ebp
  00024	50		 push	 eax
  00025	8d 45 f4	 lea	 eax, DWORD PTR __$EHRec$[ebp+4]
  00028	64 a3 00 00 00
	00		 mov	 DWORD PTR fs:0, eax
  0002e	89 65 f0	 mov	 DWORD PTR __$EHRec$[ebp], esp
  00031	89 4d 68	 mov	 DWORD PTR _this$[ebp], ecx

; 1733 :         return _Mypair._Get_first();

  00034	8b 45 68	 mov	 eax, DWORD PTR _this$[ebp]
; File C:\Program Files (x86)\Microsoft Visual Studio\2019\Community\VC\Tools\MSVC\14.28.29333\include\xmemory

; 1347 :         return *this;

  00037	89 45 28	 mov	 DWORD PTR $T20[ebp], eax
; File C:\Program Files (x86)\Microsoft Visual Studio\2019\Community\VC\Tools\MSVC\14.28.29333\include\vector

; 1733 :         return _Mypair._Get_first();

  0003a	8b 45 28	 mov	 eax, DWORD PTR $T20[ebp]
  0003d	89 45 c4	 mov	 DWORD PTR __Al$[ebp], eax

; 726  :         // reallocate and insert by perfectly forwarding _Val at _Whereptr
; 727  :         _Alty& _Al        = _Getal();
; 728  :         auto& _My_data    = _Mypair._Myval2;

  00040	8b 45 68	 mov	 eax, DWORD PTR _this$[ebp]
  00043	89 45 44	 mov	 DWORD PTR __My_data$[ebp], eax

; 729  :         pointer& _Myfirst = _My_data._Myfirst;

  00046	8b 45 44	 mov	 eax, DWORD PTR __My_data$[ebp]
  00049	89 45 5c	 mov	 DWORD PTR __Myfirst$[ebp], eax

; 730  :         pointer& _Mylast  = _My_data._Mylast;

  0004c	8b 45 44	 mov	 eax, DWORD PTR __My_data$[ebp]
  0004f	83 c0 04	 add	 eax, 4
  00052	89 45 58	 mov	 DWORD PTR __Mylast$[ebp], eax

; 731  : 
; 732  :         _STL_INTERNAL_CHECK(_Mylast == _My_data._Myend); // check that we have no unused capacity
; 733  : 
; 734  :         const auto _Whereoff = static_cast<size_type>(_Whereptr - _Myfirst);

  00055	8b 45 5c	 mov	 eax, DWORD PTR __Myfirst$[ebp]
  00058	8b 4d 78	 mov	 ecx, DWORD PTR __Whereptr$[ebp]
  0005b	2b 08		 sub	 ecx, DWORD PTR [eax]
  0005d	c1 f9 02	 sar	 ecx, 2
  00060	89 4d 60	 mov	 DWORD PTR __Whereoff$[ebp], ecx

; 735  :         const auto _Oldsize  = static_cast<size_type>(_Mylast - _Myfirst);

  00063	8b 45 58	 mov	 eax, DWORD PTR __Mylast$[ebp]
  00066	8b 4d 5c	 mov	 ecx, DWORD PTR __Myfirst$[ebp]
  00069	8b 00		 mov	 eax, DWORD PTR [eax]
  0006b	2b 01		 sub	 eax, DWORD PTR [ecx]
  0006d	c1 f8 02	 sar	 eax, 2
  00070	89 45 34	 mov	 DWORD PTR __Oldsize$[ebp], eax

; 1737 :         return _Mypair._Get_first();

  00073	8b 45 68	 mov	 eax, DWORD PTR _this$[ebp]
; File C:\Program Files (x86)\Microsoft Visual Studio\2019\Community\VC\Tools\MSVC\14.28.29333\include\xmemory

; 1351 :         return *this;

  00076	89 45 24	 mov	 DWORD PTR $T19[ebp], eax
; File C:\Program Files (x86)\Microsoft Visual Studio\2019\Community\VC\Tools\MSVC\14.28.29333\include\vector

; 1737 :         return _Mypair._Get_first();

  00079	8b 45 24	 mov	 eax, DWORD PTR $T19[ebp]
  0007c	89 45 c0	 mov	 DWORD PTR $T3[ebp], eax
; File C:\Program Files (x86)\Microsoft Visual Studio\2019\Community\VC\Tools\MSVC\14.28.29333\include\xmemory

; 710  :         return static_cast<size_t>(-1) / sizeof(value_type);

  0007f	c7 45 40 ff ff
	ff 3f		 mov	 DWORD PTR $T22[ebp], 1073741823 ; 3fffffffH
; File C:\Program Files (x86)\Microsoft Visual Studio\2019\Community\VC\Tools\MSVC\14.28.29333\include\limits

; 557  :         return INT_MAX;

  00086	c7 45 20 ff ff
	ff 7f		 mov	 DWORD PTR $T18[ebp], 2147483647 ; 7fffffffH
; File C:\Program Files (x86)\Microsoft Visual Studio\2019\Community\VC\Tools\MSVC\14.28.29333\include\vector

; 1488 :         return (_STD min)(

  0008d	8b 45 20	 mov	 eax, DWORD PTR $T18[ebp]
  00090	89 45 3c	 mov	 DWORD PTR $T21[ebp], eax
; File C:\Program Files (x86)\Microsoft Visual Studio\2019\Community\VC\Tools\MSVC\14.28.29333\include\utility

; 68   :     return _Right < _Left ? _Right : _Left;

  00093	8b 45 40	 mov	 eax, DWORD PTR $T22[ebp]
  00096	3b 45 3c	 cmp	 eax, DWORD PTR $T21[ebp]
  00099	73 08		 jae	 SHORT $LN34@Emplace_re
  0009b	8d 45 40	 lea	 eax, DWORD PTR $T22[ebp]
  0009e	89 45 38	 mov	 DWORD PTR tv172[ebp], eax
  000a1	eb 06		 jmp	 SHORT $LN35@Emplace_re
$LN34@Emplace_re:
  000a3	8d 45 3c	 lea	 eax, DWORD PTR $T21[ebp]
  000a6	89 45 38	 mov	 DWORD PTR tv172[ebp], eax
$LN35@Emplace_re:
  000a9	8b 45 38	 mov	 eax, DWORD PTR tv172[ebp]
  000ac	89 45 1c	 mov	 DWORD PTR $T17[ebp], eax
  000af	8b 45 1c	 mov	 eax, DWORD PTR $T17[ebp]
  000b2	89 45 18	 mov	 DWORD PTR $T16[ebp], eax
; File C:\Program Files (x86)\Microsoft Visual Studio\2019\Community\VC\Tools\MSVC\14.28.29333\include\vector

; 1488 :         return (_STD min)(

  000b5	8b 45 18	 mov	 eax, DWORD PTR $T16[ebp]
  000b8	8b 00		 mov	 eax, DWORD PTR [eax]
  000ba	89 45 14	 mov	 DWORD PTR $T15[ebp], eax

; 736  : 
; 737  :         if (_Oldsize == max_size()) {

  000bd	8b 45 34	 mov	 eax, DWORD PTR __Oldsize$[ebp]
  000c0	3b 45 14	 cmp	 eax, DWORD PTR $T15[ebp]
  000c3	75 05		 jne	 SHORT $LN2@Emplace_re

; 738  :             _Xlength();

  000c5	e8 00 00 00 00	 call	 ?_Xlength@?$vector@PAVCSnowParticle@@V?$allocator@PAVCSnowParticle@@@std@@@std@@CAXXZ ; std::vector<CSnowParticle *,std::allocator<CSnowParticle *> >::_Xlength
$LN2@Emplace_re:

; 739  :         }
; 740  : 
; 741  :         const size_type _Newsize     = _Oldsize + 1;

  000ca	8b 45 34	 mov	 eax, DWORD PTR __Oldsize$[ebp]
  000cd	40		 inc	 eax
  000ce	89 45 2c	 mov	 DWORD PTR __Newsize$[ebp], eax

; 742  :         const size_type _Newcapacity = _Calculate_growth(_Newsize);

  000d1	ff 75 2c	 push	 DWORD PTR __Newsize$[ebp]
  000d4	8b 4d 68	 mov	 ecx, DWORD PTR _this$[ebp]
  000d7	e8 00 00 00 00	 call	 ?_Calculate_growth@?$vector@PAVCSnowParticle@@V?$allocator@PAVCSnowParticle@@@std@@@std@@ABEII@Z ; std::vector<CSnowParticle *,std::allocator<CSnowParticle *> >::_Calculate_growth
  000dc	89 45 54	 mov	 DWORD PTR __Newcapacity$[ebp], eax
; File C:\Program Files (x86)\Microsoft Visual Studio\2019\Community\VC\Tools\MSVC\14.28.29333\include\xmemory

; 56   :     constexpr bool _Overflow_is_possible = _Ty_size > 1;

  000df	c6 45 53 01	 mov	 BYTE PTR __Overflow_is_possible$23[ebp], 1

; 57   : 
; 58   :     if _CONSTEXPR_IF (_Overflow_is_possible) {
; 59   :         constexpr size_t _Max_possible = static_cast<size_t>(-1) / _Ty_size;

  000e3	c7 45 bc ff ff
	ff 3f		 mov	 DWORD PTR __Max_possible$2[ebp], 1073741823 ; 3fffffffH

; 60   :         if (_Count > _Max_possible) {

  000ea	81 7d 54 ff ff
	ff 3f		 cmp	 DWORD PTR __Newcapacity$[ebp], 1073741823 ; 3fffffffH
  000f1	76 05		 jbe	 SHORT $LN67@Emplace_re

; 61   :             _Throw_bad_array_new_length(); // multiply overflow

  000f3	e8 00 00 00 00	 call	 ?_Throw_bad_array_new_length@std@@YAXXZ ; std::_Throw_bad_array_new_length
$LN67@Emplace_re:

; 62   :         }
; 63   :     }
; 64   : 
; 65   :     return _Count * _Ty_size;

  000f8	8b 45 54	 mov	 eax, DWORD PTR __Newcapacity$[ebp]
  000fb	c1 e0 02	 shl	 eax, 2
  000fe	89 45 10	 mov	 DWORD PTR $T14[ebp], eax

; 814  :         return static_cast<_Ty*>(_Allocate<_New_alignof<_Ty>>(_Get_size_of_n<sizeof(_Ty)>(_Count)));

  00101	ff 75 10	 push	 DWORD PTR $T14[ebp]
  00104	e8 00 00 00 00	 call	 ??$_Allocate@$07U_Default_allocate_traits@std@@$0A@@std@@YAPAXI@Z ; std::_Allocate<8,std::_Default_allocate_traits,0>
  00109	59		 pop	 ecx
  0010a	89 45 6c	 mov	 DWORD PTR __Newvec$[ebp], eax
; File C:\Program Files (x86)\Microsoft Visual Studio\2019\Community\VC\Tools\MSVC\14.28.29333\include\vector

; 745  :         const pointer _Constructed_last = _Newvec + _Whereoff + 1;

  0010d	8b 45 60	 mov	 eax, DWORD PTR __Whereoff$[ebp]
  00110	8b 4d 6c	 mov	 ecx, DWORD PTR __Newvec$[ebp]
  00113	8d 44 81 04	 lea	 eax, DWORD PTR [ecx+eax*4+4]
  00117	89 45 30	 mov	 DWORD PTR __Constructed_last$[ebp], eax

; 746  :         pointer _Constructed_first      = _Constructed_last;

  0011a	8b 45 30	 mov	 eax, DWORD PTR __Constructed_last$[ebp]
  0011d	89 45 48	 mov	 DWORD PTR __Constructed_first$[ebp], eax

; 747  : 
; 748  :         _TRY_BEGIN

  00120	83 65 fc 00	 and	 DWORD PTR __$EHRec$[ebp+12], 0
; File C:\Program Files (x86)\Microsoft Visual Studio\2019\Community\VC\Tools\MSVC\14.28.29333\include\type_traits

; 1443 :     return static_cast<_Ty&&>(_Arg);

  00124	8b 45 7c	 mov	 eax, DWORD PTR _<_Val_0>$[ebp]
  00127	89 45 08	 mov	 DWORD PTR $T12[ebp], eax
; File C:\Program Files (x86)\Microsoft Visual Studio\2019\Community\VC\Tools\MSVC\14.28.29333\include\vector

; 749  :         _Alty_traits::construct(_Al, _Unfancy(_Newvec + _Whereoff), _STD forward<_Valty>(_Val)...);

  0012a	8b 45 60	 mov	 eax, DWORD PTR __Whereoff$[ebp]
  0012d	8b 4d 6c	 mov	 ecx, DWORD PTR __Newvec$[ebp]
  00130	8d 04 81	 lea	 eax, DWORD PTR [ecx+eax*4]
; File C:\Program Files (x86)\Microsoft Visual Studio\2019\Community\VC\Tools\MSVC\14.28.29333\include\xstddef

; 289  :     return _Ptr;

  00133	89 45 0c	 mov	 DWORD PTR $T13[ebp], eax
; File C:\Program Files (x86)\Microsoft Visual Studio\2019\Community\VC\Tools\MSVC\14.28.29333\include\vcruntime_new.h

; 169  :         return _Where;

  00136	8b 45 0c	 mov	 eax, DWORD PTR $T13[ebp]
  00139	89 45 04	 mov	 DWORD PTR $T11[ebp], eax
; File C:\Program Files (x86)\Microsoft Visual Studio\2019\Community\VC\Tools\MSVC\14.28.29333\include\type_traits

; 1443 :     return static_cast<_Ty&&>(_Arg);

  0013c	8b 45 08	 mov	 eax, DWORD PTR $T12[ebp]
  0013f	89 45 00	 mov	 DWORD PTR $T10[ebp], eax
; File C:\Program Files (x86)\Microsoft Visual Studio\2019\Community\VC\Tools\MSVC\14.28.29333\include\xmemory

; 701  :         ::new (const_cast<void*>(static_cast<const volatile void*>(_Ptr))) _Objty(_STD forward<_Types>(_Args)...);

  00142	8b 45 04	 mov	 eax, DWORD PTR $T11[ebp]
  00145	8b 4d 00	 mov	 ecx, DWORD PTR $T10[ebp]
  00148	8b 09		 mov	 ecx, DWORD PTR [ecx]
  0014a	89 08		 mov	 DWORD PTR [eax], ecx
; File C:\Program Files (x86)\Microsoft Visual Studio\2019\Community\VC\Tools\MSVC\14.28.29333\include\vector

; 750  :         _Constructed_first = _Newvec + _Whereoff;

  0014c	8b 45 60	 mov	 eax, DWORD PTR __Whereoff$[ebp]
  0014f	8b 4d 6c	 mov	 ecx, DWORD PTR __Newvec$[ebp]
  00152	8d 04 81	 lea	 eax, DWORD PTR [ecx+eax*4]
  00155	89 45 48	 mov	 DWORD PTR __Constructed_first$[ebp], eax

; 751  : 
; 752  :         if (_Whereptr == _Mylast) { // at back, provide strong guarantee

  00158	8b 45 58	 mov	 eax, DWORD PTR __Mylast$[ebp]
  0015b	8b 4d 78	 mov	 ecx, DWORD PTR __Whereptr$[ebp]
  0015e	3b 08		 cmp	 ecx, DWORD PTR [eax]
  00160	75 3d		 jne	 SHORT $LN4@Emplace_re

; 753  :             _Umove_if_noexcept(_Myfirst, _Mylast, _Newvec);

  00162	8b 45 58	 mov	 eax, DWORD PTR __Mylast$[ebp]
  00165	8b 00		 mov	 eax, DWORD PTR [eax]
  00167	89 45 e4	 mov	 DWORD PTR __Last$[ebp], eax
  0016a	8b 45 5c	 mov	 eax, DWORD PTR __Myfirst$[ebp]
  0016d	8b 00		 mov	 eax, DWORD PTR [eax]
  0016f	89 45 e0	 mov	 DWORD PTR __First$[ebp], eax

; 1607 :         _Umove_if_noexcept1(_First, _Last, _Dest,

  00172	33 c0		 xor	 eax, eax
  00174	88 45 67	 mov	 BYTE PTR $T24[ebp], al
  00177	8a 45 67	 mov	 al, BYTE PTR $T24[ebp]
  0017a	88 45 4c	 mov	 BYTE PTR ___formal$[ebp], al

; 1733 :         return _Mypair._Get_first();

  0017d	8b 45 68	 mov	 eax, DWORD PTR _this$[ebp]
; File C:\Program Files (x86)\Microsoft Visual Studio\2019\Community\VC\Tools\MSVC\14.28.29333\include\xmemory

; 1347 :         return *this;

  00180	89 45 ec	 mov	 DWORD PTR $T9[ebp], eax
; File C:\Program Files (x86)\Microsoft Visual Studio\2019\Community\VC\Tools\MSVC\14.28.29333\include\vector

; 1733 :         return _Mypair._Get_first();

  00183	8b 45 ec	 mov	 eax, DWORD PTR $T9[ebp]
  00186	89 45 e8	 mov	 DWORD PTR $T8[ebp], eax

; 1597 :         _Uninitialized_move(_First, _Last, _Dest, _Getal());

  00189	ff 75 e8	 push	 DWORD PTR $T8[ebp]
  0018c	ff 75 6c	 push	 DWORD PTR __Newvec$[ebp]
  0018f	ff 75 e4	 push	 DWORD PTR __Last$[ebp]
  00192	ff 75 e0	 push	 DWORD PTR __First$[ebp]
  00195	e8 00 00 00 00	 call	 ??$_Uninitialized_move@PAPAVCSnowParticle@@V?$allocator@PAVCSnowParticle@@@std@@@std@@YAPAPAVCSnowParticle@@QAPAV1@0PAPAV1@AAV?$allocator@PAVCSnowParticle@@@0@@Z ; std::_Uninitialized_move<CSnowParticle * *,std::allocator<CSnowParticle *> >
  0019a	83 c4 10	 add	 esp, 16			; 00000010H

; 754  :         } else { // provide basic guarantee

  0019d	eb 5e		 jmp	 SHORT $LN5@Emplace_re
$LN4@Emplace_re:

; 755  :             _Umove(_Myfirst, _Whereptr, _Newvec);

  0019f	8b 45 5c	 mov	 eax, DWORD PTR __Myfirst$[ebp]
  001a2	8b 00		 mov	 eax, DWORD PTR [eax]
  001a4	89 45 d4	 mov	 DWORD PTR __First$[ebp], eax

; 1733 :         return _Mypair._Get_first();

  001a7	8b 45 68	 mov	 eax, DWORD PTR _this$[ebp]
; File C:\Program Files (x86)\Microsoft Visual Studio\2019\Community\VC\Tools\MSVC\14.28.29333\include\xmemory

; 1347 :         return *this;

  001aa	89 45 dc	 mov	 DWORD PTR $T7[ebp], eax
; File C:\Program Files (x86)\Microsoft Visual Studio\2019\Community\VC\Tools\MSVC\14.28.29333\include\vector

; 1733 :         return _Mypair._Get_first();

  001ad	8b 45 dc	 mov	 eax, DWORD PTR $T7[ebp]
  001b0	89 45 d8	 mov	 DWORD PTR $T6[ebp], eax

; 1592 :         return _Uninitialized_move(_First, _Last, _Dest, _Getal());

  001b3	ff 75 d8	 push	 DWORD PTR $T6[ebp]
  001b6	ff 75 6c	 push	 DWORD PTR __Newvec$[ebp]
  001b9	ff 75 78	 push	 DWORD PTR __Whereptr$[ebp]
  001bc	ff 75 d4	 push	 DWORD PTR __First$[ebp]
  001bf	e8 00 00 00 00	 call	 ??$_Uninitialized_move@PAPAVCSnowParticle@@V?$allocator@PAVCSnowParticle@@@std@@@std@@YAPAPAVCSnowParticle@@QAPAV1@0PAPAV1@AAV?$allocator@PAVCSnowParticle@@@0@@Z ; std::_Uninitialized_move<CSnowParticle * *,std::allocator<CSnowParticle *> >
  001c4	83 c4 10	 add	 esp, 16			; 00000010H

; 756  :             _Constructed_first = _Newvec;

  001c7	8b 45 6c	 mov	 eax, DWORD PTR __Newvec$[ebp]
  001ca	89 45 48	 mov	 DWORD PTR __Constructed_first$[ebp], eax

; 757  :             _Umove(_Whereptr, _Mylast, _Newvec + _Whereoff + 1);

  001cd	8b 45 58	 mov	 eax, DWORD PTR __Mylast$[ebp]
  001d0	8b 00		 mov	 eax, DWORD PTR [eax]
  001d2	89 45 c8	 mov	 DWORD PTR __Last$[ebp], eax

; 1733 :         return _Mypair._Get_first();

  001d5	8b 45 68	 mov	 eax, DWORD PTR _this$[ebp]
; File C:\Program Files (x86)\Microsoft Visual Studio\2019\Community\VC\Tools\MSVC\14.28.29333\include\xmemory

; 1347 :         return *this;

  001d8	89 45 d0	 mov	 DWORD PTR $T5[ebp], eax
; File C:\Program Files (x86)\Microsoft Visual Studio\2019\Community\VC\Tools\MSVC\14.28.29333\include\vector

; 1733 :         return _Mypair._Get_first();

  001db	8b 45 d0	 mov	 eax, DWORD PTR $T5[ebp]
  001de	89 45 cc	 mov	 DWORD PTR $T4[ebp], eax

; 1592 :         return _Uninitialized_move(_First, _Last, _Dest, _Getal());

  001e1	ff 75 cc	 push	 DWORD PTR $T4[ebp]

; 757  :             _Umove(_Whereptr, _Mylast, _Newvec + _Whereoff + 1);

  001e4	8b 45 60	 mov	 eax, DWORD PTR __Whereoff$[ebp]
  001e7	8b 4d 6c	 mov	 ecx, DWORD PTR __Newvec$[ebp]
  001ea	8d 44 81 04	 lea	 eax, DWORD PTR [ecx+eax*4+4]

; 1592 :         return _Uninitialized_move(_First, _Last, _Dest, _Getal());

  001ee	50		 push	 eax
  001ef	ff 75 c8	 push	 DWORD PTR __Last$[ebp]
  001f2	ff 75 78	 push	 DWORD PTR __Whereptr$[ebp]
  001f5	e8 00 00 00 00	 call	 ??$_Uninitialized_move@PAPAVCSnowParticle@@V?$allocator@PAVCSnowParticle@@@std@@@std@@YAPAPAVCSnowParticle@@QAPAV1@0PAPAV1@AAV?$allocator@PAVCSnowParticle@@@0@@Z ; std::_Uninitialized_move<CSnowParticle * *,std::allocator<CSnowParticle *> >
  001fa	83 c4 10	 add	 esp, 16			; 00000010H
$LN5@Emplace_re:

; 757  :             _Umove(_Whereptr, _Mylast, _Newvec + _Whereoff + 1);

  001fd	eb 2b		 jmp	 SHORT $LN7@Emplace_re
__catch$??$_Emplace_reallocate@ABQAVCSnowParticle@@@?$vector@PAVCSnowParticle@@V?$allocator@PAVCSnowParticle@@@std@@@std@@QAEPAPAVCSnowParticle@@QAPAV2@ABQAV2@@Z$0:

; 758  :         }
; 759  :         _CATCH_ALL
; 760  :         _Destroy(_Constructed_first, _Constructed_last);

  001ff	ff 75 30	 push	 DWORD PTR __Constructed_last$[ebp]
  00202	ff 75 48	 push	 DWORD PTR __Constructed_first$[ebp]
  00205	8b 4d 68	 mov	 ecx, DWORD PTR _this$[ebp]
  00208	e8 00 00 00 00	 call	 ?_Destroy@?$vector@PAVCSnowParticle@@V?$allocator@PAVCSnowParticle@@@std@@@std@@AAEXPAPAVCSnowParticle@@0@Z ; std::vector<CSnowParticle *,std::allocator<CSnowParticle *> >::_Destroy

; 761  :         _Al.deallocate(_Newvec, _Newcapacity);

  0020d	ff 75 54	 push	 DWORD PTR __Newcapacity$[ebp]
  00210	ff 75 6c	 push	 DWORD PTR __Newvec$[ebp]
  00213	8b 4d c4	 mov	 ecx, DWORD PTR __Al$[ebp]
  00216	e8 00 00 00 00	 call	 ?deallocate@?$allocator@PAVCSnowParticle@@@std@@QAEXQAPAVCSnowParticle@@I@Z ; std::allocator<CSnowParticle *>::deallocate

; 762  :         _RERAISE;

  0021b	6a 00		 push	 0
  0021d	6a 00		 push	 0
  0021f	e8 00 00 00 00	 call	 __CxxThrowException@8

; 763  :         _CATCH_END

  00224	b8 00 00 00 00	 mov	 eax, $LN10@Emplace_re
  00229	c3		 ret	 0
$LN7@Emplace_re:
  0022a	83 4d fc ff	 or	 DWORD PTR __$EHRec$[ebp+12], -1
  0022e	eb 04		 jmp	 SHORT __tryend$??$_Emplace_reallocate@ABQAVCSnowParticle@@@?$vector@PAVCSnowParticle@@V?$allocator@PAVCSnowParticle@@@std@@@std@@QAEPAPAVCSnowParticle@@QAPAV2@ABQAV2@@Z$1
$LN10@Emplace_re:
; File C:\Program Files (x86)\Microsoft Visual Studio\2019\Community\VC\Tools\MSVC\14.28.29333\include\xmemory
  00230	83 4d fc ff	 or	 DWORD PTR __$EHRec$[ebp+12], -1
__tryend$??$_Emplace_reallocate@ABQAVCSnowParticle@@@?$vector@PAVCSnowParticle@@V?$allocator@PAVCSnowParticle@@@std@@@std@@QAEPAPAVCSnowParticle@@QAPAV2@ABQAV2@@Z$1:
; File C:\Program Files (x86)\Microsoft Visual Studio\2019\Community\VC\Tools\MSVC\14.28.29333\include\vector

; 764  : 
; 765  :         _Change_array(_Newvec, _Newsize, _Newcapacity);

  00234	ff 75 54	 push	 DWORD PTR __Newcapacity$[ebp]
  00237	ff 75 2c	 push	 DWORD PTR __Newsize$[ebp]
  0023a	ff 75 6c	 push	 DWORD PTR __Newvec$[ebp]
  0023d	8b 4d 68	 mov	 ecx, DWORD PTR _this$[ebp]
  00240	e8 00 00 00 00	 call	 ?_Change_array@?$vector@PAVCSnowParticle@@V?$allocator@PAVCSnowParticle@@@std@@@std@@AAEXQAPAVCSnowParticle@@II@Z ; std::vector<CSnowParticle *,std::allocator<CSnowParticle *> >::_Change_array

; 766  :         return _Newvec + _Whereoff;

  00245	8b 45 60	 mov	 eax, DWORD PTR __Whereoff$[ebp]
  00248	8b 4d 6c	 mov	 ecx, DWORD PTR __Newvec$[ebp]
  0024b	8d 04 81	 lea	 eax, DWORD PTR [ecx+eax*4]
$LN70@Emplace_re:

; 767  :     }

  0024e	8b 4d f4	 mov	 ecx, DWORD PTR __$EHRec$[ebp+4]
  00251	64 89 0d 00 00
	00 00		 mov	 DWORD PTR fs:0, ecx
  00258	59		 pop	 ecx
  00259	5f		 pop	 edi
  0025a	5e		 pop	 esi
  0025b	5b		 pop	 ebx
  0025c	83 c5 70	 add	 ebp, 112		; 00000070H
  0025f	c9		 leave
  00260	c2 08 00	 ret	 8
  00263	cc		 int	 3
  00264	cc		 int	 3
  00265	cc		 int	 3
  00266	cc		 int	 3
  00267	cc		 int	 3
_TEXT	ENDS
;	COMDAT text$x
text$x	SEGMENT
__ehhandler$??$_Emplace_reallocate@ABQAVCSnowParticle@@@?$vector@PAVCSnowParticle@@V?$allocator@PAVCSnowParticle@@@std@@@std@@QAEPAPAVCSnowParticle@@QAPAV2@ABQAV2@@Z:
  00000	90		 npad	 1
  00001	90		 npad	 1
  00002	8b 54 24 08	 mov	 edx, DWORD PTR [esp+8]
  00006	8d 42 0c	 lea	 eax, DWORD PTR [edx+12]
  00009	8b 4a b8	 mov	 ecx, DWORD PTR [edx-72]
  0000c	33 c8		 xor	 ecx, eax
  0000e	e8 00 00 00 00	 call	 @__security_check_cookie@4
  00013	b8 00 00 00 00	 mov	 eax, OFFSET __ehfuncinfo$??$_Emplace_reallocate@ABQAVCSnowParticle@@@?$vector@PAVCSnowParticle@@V?$allocator@PAVCSnowParticle@@@std@@@std@@QAEPAPAVCSnowParticle@@QAPAV2@ABQAV2@@Z
  00018	e9 00 00 00 00	 jmp	 ___CxxFrameHandler3
text$x	ENDS
??$_Emplace_reallocate@ABQAVCSnowParticle@@@?$vector@PAVCSnowParticle@@V?$allocator@PAVCSnowParticle@@@std@@@std@@QAEPAPAVCSnowParticle@@QAPAV2@ABQAV2@@Z ENDP ; std::vector<CSnowParticle *,std::allocator<CSnowParticle *> >::_Emplace_reallocate<CSnowParticle * const &>
; Function compile flags: /Odspy
; File C:\Program Files (x86)\Microsoft Visual Studio\2019\Community\VC\Tools\MSVC\14.28.29333\include\vector
; File C:\Program Files (x86)\Microsoft Visual Studio\2019\Community\VC\Tools\MSVC\14.28.29333\include\type_traits
; File C:\Program Files (x86)\Microsoft Visual Studio\2019\Community\VC\Tools\MSVC\14.28.29333\include\vector
; File C:\Program Files (x86)\Microsoft Visual Studio\2019\Community\VC\Tools\MSVC\14.28.29333\include\xstddef
; File C:\Program Files (x86)\Microsoft Visual Studio\2019\Community\VC\Tools\MSVC\14.28.29333\include\vector
; File C:\Program Files (x86)\Microsoft Visual Studio\2019\Community\VC\Tools\MSVC\14.28.29333\include\xmemory
; File C:\Program Files (x86)\Microsoft Visual Studio\2019\Community\VC\Tools\MSVC\14.28.29333\include\vector
; File C:\Program Files (x86)\Microsoft Visual Studio\2019\Community\VC\Tools\MSVC\14.28.29333\include\vcruntime_new.h
; File C:\Program Files (x86)\Microsoft Visual Studio\2019\Community\VC\Tools\MSVC\14.28.29333\include\type_traits
; File C:\Program Files (x86)\Microsoft Visual Studio\2019\Community\VC\Tools\MSVC\14.28.29333\include\xmemory
; File C:\Program Files (x86)\Microsoft Visual Studio\2019\Community\VC\Tools\MSVC\14.28.29333\include\vector
;	COMDAT ??$_Emplace_back_with_unused_capacity@ABQAVCSnowParticle@@@?$vector@PAVCSnowParticle@@V?$allocator@PAVCSnowParticle@@@std@@@std@@AAEXABQAVCSnowParticle@@@Z
_TEXT	SEGMENT
__Result$ = -44						; size = 4
$T1 = -40						; size = 4
$T2 = -36						; size = 4
$T3 = -32						; size = 4
$T4 = -28						; size = 4
$T5 = -24						; size = 4
$T6 = -20						; size = 4
__Ptr$ = -16						; size = 4
__My_data$ = -12					; size = 4
_this$ = -8						; size = 4
__Mylast$ = -4						; size = 4
_<_Val_0>$ = 8						; size = 4
??$_Emplace_back_with_unused_capacity@ABQAVCSnowParticle@@@?$vector@PAVCSnowParticle@@V?$allocator@PAVCSnowParticle@@@std@@@std@@AAEXABQAVCSnowParticle@@@Z PROC ; std::vector<CSnowParticle *,std::allocator<CSnowParticle *> >::_Emplace_back_with_unused_capacity<CSnowParticle * const &>, COMDAT
; _this$ = ecx

; 682  :     decltype(auto) _Emplace_back_with_unused_capacity(_Valty&&... _Val) {

  00000	55		 push	 ebp
  00001	8b ec		 mov	 ebp, esp
  00003	83 ec 2c	 sub	 esp, 44			; 0000002cH
  00006	89 4d f8	 mov	 DWORD PTR _this$[ebp], ecx

; 683  :         // insert by perfectly forwarding into element at end, provide strong guarantee
; 684  :         auto& _My_data   = _Mypair._Myval2;

  00009	8b 45 f8	 mov	 eax, DWORD PTR _this$[ebp]
  0000c	89 45 f4	 mov	 DWORD PTR __My_data$[ebp], eax

; 685  :         pointer& _Mylast = _My_data._Mylast;

  0000f	8b 45 f4	 mov	 eax, DWORD PTR __My_data$[ebp]
  00012	83 c0 04	 add	 eax, 4
  00015	89 45 fc	 mov	 DWORD PTR __Mylast$[ebp], eax
; File C:\Program Files (x86)\Microsoft Visual Studio\2019\Community\VC\Tools\MSVC\14.28.29333\include\type_traits

; 1443 :     return static_cast<_Ty&&>(_Arg);

  00018	8b 45 08	 mov	 eax, DWORD PTR _<_Val_0>$[ebp]
  0001b	89 45 e4	 mov	 DWORD PTR $T4[ebp], eax
; File C:\Program Files (x86)\Microsoft Visual Studio\2019\Community\VC\Tools\MSVC\14.28.29333\include\vector

; 687  :         _Alty_traits::construct(_Getal(), _Unfancy(_Mylast), _STD forward<_Valty>(_Val)...);

  0001e	8b 45 fc	 mov	 eax, DWORD PTR __Mylast$[ebp]
  00021	8b 00		 mov	 eax, DWORD PTR [eax]
  00023	89 45 f0	 mov	 DWORD PTR __Ptr$[ebp], eax
; File C:\Program Files (x86)\Microsoft Visual Studio\2019\Community\VC\Tools\MSVC\14.28.29333\include\xstddef

; 289  :     return _Ptr;

  00026	8b 45 f0	 mov	 eax, DWORD PTR __Ptr$[ebp]
  00029	89 45 e8	 mov	 DWORD PTR $T5[ebp], eax
; File C:\Program Files (x86)\Microsoft Visual Studio\2019\Community\VC\Tools\MSVC\14.28.29333\include\vector

; 1733 :         return _Mypair._Get_first();

  0002c	8b 45 f8	 mov	 eax, DWORD PTR _this$[ebp]
; File C:\Program Files (x86)\Microsoft Visual Studio\2019\Community\VC\Tools\MSVC\14.28.29333\include\xmemory

; 1347 :         return *this;

  0002f	89 45 ec	 mov	 DWORD PTR $T6[ebp], eax
; File C:\Program Files (x86)\Microsoft Visual Studio\2019\Community\VC\Tools\MSVC\14.28.29333\include\vector

; 1733 :         return _Mypair._Get_first();

  00032	8b 45 ec	 mov	 eax, DWORD PTR $T6[ebp]
  00035	89 45 d8	 mov	 DWORD PTR $T1[ebp], eax
; File C:\Program Files (x86)\Microsoft Visual Studio\2019\Community\VC\Tools\MSVC\14.28.29333\include\vcruntime_new.h

; 169  :         return _Where;

  00038	8b 45 e8	 mov	 eax, DWORD PTR $T5[ebp]
  0003b	89 45 e0	 mov	 DWORD PTR $T3[ebp], eax
; File C:\Program Files (x86)\Microsoft Visual Studio\2019\Community\VC\Tools\MSVC\14.28.29333\include\type_traits

; 1443 :     return static_cast<_Ty&&>(_Arg);

  0003e	8b 45 e4	 mov	 eax, DWORD PTR $T4[ebp]
  00041	89 45 dc	 mov	 DWORD PTR $T2[ebp], eax
; File C:\Program Files (x86)\Microsoft Visual Studio\2019\Community\VC\Tools\MSVC\14.28.29333\include\xmemory

; 701  :         ::new (const_cast<void*>(static_cast<const volatile void*>(_Ptr))) _Objty(_STD forward<_Types>(_Args)...);

  00044	8b 45 e0	 mov	 eax, DWORD PTR $T3[ebp]
  00047	8b 4d dc	 mov	 ecx, DWORD PTR $T2[ebp]
  0004a	8b 09		 mov	 ecx, DWORD PTR [ecx]
  0004c	89 08		 mov	 DWORD PTR [eax], ecx
; File C:\Program Files (x86)\Microsoft Visual Studio\2019\Community\VC\Tools\MSVC\14.28.29333\include\vector

; 689  :         _Ty& _Result = *_Mylast;

  0004e	8b 45 fc	 mov	 eax, DWORD PTR __Mylast$[ebp]
  00051	8b 00		 mov	 eax, DWORD PTR [eax]
  00053	89 45 d4	 mov	 DWORD PTR __Result$[ebp], eax

; 690  :         ++_Mylast;

  00056	8b 45 fc	 mov	 eax, DWORD PTR __Mylast$[ebp]
  00059	8b 00		 mov	 eax, DWORD PTR [eax]
  0005b	83 c0 04	 add	 eax, 4
  0005e	8b 4d fc	 mov	 ecx, DWORD PTR __Mylast$[ebp]
  00061	89 01		 mov	 DWORD PTR [ecx], eax

; 691  : #if _HAS_CXX17
; 692  :         return _Result;
; 693  : #else // ^^^ _HAS_CXX17 ^^^ // vvv !_HAS_CXX17 vvv
; 694  :         (void) _Result;
; 695  : #endif // _HAS_CXX17
; 696  :     }

  00063	c9		 leave
  00064	c2 04 00	 ret	 4
??$_Emplace_back_with_unused_capacity@ABQAVCSnowParticle@@@?$vector@PAVCSnowParticle@@V?$allocator@PAVCSnowParticle@@@std@@@std@@AAEXABQAVCSnowParticle@@@Z ENDP ; std::vector<CSnowParticle *,std::allocator<CSnowParticle *> >::_Emplace_back_with_unused_capacity<CSnowParticle * const &>
_TEXT	ENDS
; Function compile flags: /Odspy
; File C:\Program Files (x86)\Microsoft Visual Studio\2019\Community\VC\Tools\MSVC\14.28.29333\include\vector
; File C:\Program Files (x86)\Microsoft Visual Studio\2019\Community\VC\Tools\MSVC\14.28.29333\include\type_traits
; File C:\Program Files (x86)\Microsoft Visual Studio\2019\Community\VC\Tools\MSVC\14.28.29333\include\vector
; File C:\Program Files (x86)\Microsoft Visual Studio\2019\Community\VC\Tools\MSVC\14.28.29333\include\type_traits
; File C:\Program Files (x86)\Microsoft Visual Studio\2019\Community\VC\Tools\MSVC\14.28.29333\include\vector
;	COMDAT ??$emplace_back@ABQAVCSnowParticle@@@?$vector@PAVCSnowParticle@@V?$allocator@PAVCSnowParticle@@@std@@@std@@QAEXABQAVCSnowParticle@@@Z
_TEXT	SEGMENT
__Result$ = -24						; size = 4
$T1 = -20						; size = 4
$T2 = -16						; size = 4
__Mylast$ = -12						; size = 4
__My_data$ = -8						; size = 4
_this$ = -4						; size = 4
_<_Val_0>$ = 8						; size = 4
??$emplace_back@ABQAVCSnowParticle@@@?$vector@PAVCSnowParticle@@V?$allocator@PAVCSnowParticle@@@std@@@std@@QAEXABQAVCSnowParticle@@@Z PROC ; std::vector<CSnowParticle *,std::allocator<CSnowParticle *> >::emplace_back<CSnowParticle * const &>, COMDAT
; _this$ = ecx

; 700  :     decltype(auto) emplace_back(_Valty&&... _Val) {

  00000	55		 push	 ebp
  00001	8b ec		 mov	 ebp, esp
  00003	83 ec 18	 sub	 esp, 24			; 00000018H
  00006	89 4d fc	 mov	 DWORD PTR _this$[ebp], ecx

; 701  :         // insert by perfectly forwarding into element at end, provide strong guarantee
; 702  :         auto& _My_data   = _Mypair._Myval2;

  00009	8b 45 fc	 mov	 eax, DWORD PTR _this$[ebp]
  0000c	89 45 f8	 mov	 DWORD PTR __My_data$[ebp], eax

; 703  :         pointer& _Mylast = _My_data._Mylast;

  0000f	8b 45 f8	 mov	 eax, DWORD PTR __My_data$[ebp]
  00012	83 c0 04	 add	 eax, 4
  00015	89 45 f4	 mov	 DWORD PTR __Mylast$[ebp], eax

; 704  :         if (_Mylast != _My_data._Myend) {

  00018	8b 45 f4	 mov	 eax, DWORD PTR __Mylast$[ebp]
  0001b	8b 4d f8	 mov	 ecx, DWORD PTR __My_data$[ebp]
  0001e	8b 00		 mov	 eax, DWORD PTR [eax]
  00020	3b 41 08	 cmp	 eax, DWORD PTR [ecx+8]
  00023	74 13		 je	 SHORT $LN2@emplace_ba
; File C:\Program Files (x86)\Microsoft Visual Studio\2019\Community\VC\Tools\MSVC\14.28.29333\include\type_traits

; 1443 :     return static_cast<_Ty&&>(_Arg);

  00025	8b 45 08	 mov	 eax, DWORD PTR _<_Val_0>$[ebp]
  00028	89 45 f0	 mov	 DWORD PTR $T2[ebp], eax
; File C:\Program Files (x86)\Microsoft Visual Studio\2019\Community\VC\Tools\MSVC\14.28.29333\include\vector

; 705  :             return _Emplace_back_with_unused_capacity(_STD forward<_Valty>(_Val)...);

  0002b	ff 75 f0	 push	 DWORD PTR $T2[ebp]
  0002e	8b 4d fc	 mov	 ecx, DWORD PTR _this$[ebp]
  00031	e8 00 00 00 00	 call	 ??$_Emplace_back_with_unused_capacity@ABQAVCSnowParticle@@@?$vector@PAVCSnowParticle@@V?$allocator@PAVCSnowParticle@@@std@@@std@@AAEXABQAVCSnowParticle@@@Z ; std::vector<CSnowParticle *,std::allocator<CSnowParticle *> >::_Emplace_back_with_unused_capacity<CSnowParticle * const &>
  00036	eb 19		 jmp	 SHORT $LN1@emplace_ba
$LN2@emplace_ba:
; File C:\Program Files (x86)\Microsoft Visual Studio\2019\Community\VC\Tools\MSVC\14.28.29333\include\type_traits

; 1443 :     return static_cast<_Ty&&>(_Arg);

  00038	8b 45 08	 mov	 eax, DWORD PTR _<_Val_0>$[ebp]
  0003b	89 45 ec	 mov	 DWORD PTR $T1[ebp], eax
; File C:\Program Files (x86)\Microsoft Visual Studio\2019\Community\VC\Tools\MSVC\14.28.29333\include\vector

; 708  :         _Ty& _Result = *_Emplace_reallocate(_Mylast, _STD forward<_Valty>(_Val)...);

  0003e	ff 75 ec	 push	 DWORD PTR $T1[ebp]
  00041	8b 45 f4	 mov	 eax, DWORD PTR __Mylast$[ebp]
  00044	ff 30		 push	 DWORD PTR [eax]
  00046	8b 4d fc	 mov	 ecx, DWORD PTR _this$[ebp]
  00049	e8 00 00 00 00	 call	 ??$_Emplace_reallocate@ABQAVCSnowParticle@@@?$vector@PAVCSnowParticle@@V?$allocator@PAVCSnowParticle@@@std@@@std@@QAEPAPAVCSnowParticle@@QAPAV2@ABQAV2@@Z ; std::vector<CSnowParticle *,std::allocator<CSnowParticle *> >::_Emplace_reallocate<CSnowParticle * const &>
  0004e	89 45 e8	 mov	 DWORD PTR __Result$[ebp], eax
$LN1@emplace_ba:

; 709  : #if _HAS_CXX17
; 710  :         return _Result;
; 711  : #else // ^^^ _HAS_CXX17 ^^^ // vvv !_HAS_CXX17 vvv
; 712  :         (void) _Result;
; 713  : #endif // _HAS_CXX17
; 714  :     }

  00051	c9		 leave
  00052	c2 04 00	 ret	 4
??$emplace_back@ABQAVCSnowParticle@@@?$vector@PAVCSnowParticle@@V?$allocator@PAVCSnowParticle@@@std@@@std@@QAEXABQAVCSnowParticle@@@Z ENDP ; std::vector<CSnowParticle *,std::allocator<CSnowParticle *> >::emplace_back<CSnowParticle * const &>
_TEXT	ENDS
; Function compile flags: /Odspy
; File D:\Metin2 Server Files\mainline\SRC_2014\Metin2Client\eterBase\Stl.h
; File C:\Program Files (x86)\Microsoft Visual Studio\2019\Community\VC\Tools\MSVC\14.28.29333\include\vector
; File C:\Program Files (x86)\Microsoft Visual Studio\2019\Community\VC\Tools\MSVC\14.28.29333\include\xstddef
; File C:\Program Files (x86)\Microsoft Visual Studio\2019\Community\VC\Tools\MSVC\14.28.29333\include\vector
; File D:\Metin2 Server Files\mainline\SRC_2014\Metin2Client\eterBase\Stl.h
; File C:\Program Files (x86)\Microsoft Visual Studio\2019\Community\VC\Tools\MSVC\14.28.29333\include\vector
; File C:\Program Files (x86)\Microsoft Visual Studio\2019\Community\VC\Tools\MSVC\14.28.29333\include\xstddef
; File C:\Program Files (x86)\Microsoft Visual Studio\2019\Community\VC\Tools\MSVC\14.28.29333\include\vector
; File D:\Metin2 Server Files\mainline\SRC_2014\Metin2Client\eterBase\Stl.h
; File C:\Program Files (x86)\Microsoft Visual Studio\2019\Community\VC\Tools\MSVC\14.28.29333\include\vector
; File D:\Metin2 Server Files\mainline\SRC_2014\Metin2Client\eterBase\Stl.h
; File C:\Program Files (x86)\Microsoft Visual Studio\2019\Community\VC\Tools\MSVC\14.28.29333\include\vector
; File D:\Metin2 Server Files\mainline\SRC_2014\Metin2Client\eterBase\Stl.h
;	COMDAT ??$stl_wipe@V?$vector@PAVCSnowParticle@@V?$allocator@PAVCSnowParticle@@@std@@@std@@@@YAXAAV?$vector@PAVCSnowParticle@@V?$allocator@PAVCSnowParticle@@@std@@@std@@@Z
_TEXT	SEGMENT
$T1 = -76						; size = 4
$T2 = -72						; size = 4
$T3 = -68						; size = 4
$T4 = -64						; size = 4
$T5 = -60						; size = 4
$T6 = -56						; size = 4
$T7 = -52						; size = 4
$T8 = -48						; size = 4
$T9 = -44						; size = 4
___param0$ = -40					; size = 4
___param0$ = -36					; size = 4
tv89 = -32						; size = 4
tv167 = -28						; size = 4
tv181 = -24						; size = 4
__My_data$10 = -20					; size = 4
__My_data$11 = -16					; size = 4
$T12 = -12						; size = 4
_i$13 = -8						; size = 4
$T14 = -2						; size = 1
$T15 = -1						; size = 1
_container$ = 8						; size = 4
??$stl_wipe@V?$vector@PAVCSnowParticle@@V?$allocator@PAVCSnowParticle@@@std@@@std@@@@YAXAAV?$vector@PAVCSnowParticle@@V?$allocator@PAVCSnowParticle@@@std@@@std@@@Z PROC ; stl_wipe<std::vector<CSnowParticle *,std::allocator<CSnowParticle *> > >, COMDAT

; 94   : {

  00000	55		 push	 ebp
  00001	8b ec		 mov	 ebp, esp
  00003	83 ec 4c	 sub	 esp, 76			; 0000004cH
; File C:\Program Files (x86)\Microsoft Visual Studio\2019\Community\VC\Tools\MSVC\14.28.29333\include\vector

; 1410 :         auto& _My_data = _Mypair._Myval2;

  00006	8b 45 08	 mov	 eax, DWORD PTR _container$[ebp]
  00009	89 45 f0	 mov	 DWORD PTR __My_data$11[ebp], eax
; File C:\Program Files (x86)\Microsoft Visual Studio\2019\Community\VC\Tools\MSVC\14.28.29333\include\xstddef

; 275  :     return __builtin_addressof(_Val);

  0000c	8b 45 f0	 mov	 eax, DWORD PTR __My_data$11[ebp]
  0000f	89 45 bc	 mov	 DWORD PTR $T3[ebp], eax
; File C:\Program Files (x86)\Microsoft Visual Studio\2019\Community\VC\Tools\MSVC\14.28.29333\include\vector

; 1411 :         return iterator(_My_data._Myfirst, _STD addressof(_My_data));

  00012	8b 45 f0	 mov	 eax, DWORD PTR __My_data$11[ebp]
  00015	8b 00		 mov	 eax, DWORD PTR [eax]
  00017	89 45 dc	 mov	 DWORD PTR ___param0$[ebp], eax

; 42   :     _Vector_const_iterator(_Tptr _Parg, const _Container_base* _Pvector) noexcept : _Ptr(_Parg) {

  0001a	8b 45 dc	 mov	 eax, DWORD PTR ___param0$[ebp]
  0001d	89 45 f8	 mov	 DWORD PTR _i$13[ebp], eax
; File D:\Metin2 Server Files\mainline\SRC_2014\Metin2Client\eterBase\Stl.h

; 95   : 	for (TContainer::iterator i = container.begin(); i != container.end(); ++i)

  00020	eb 09		 jmp	 SHORT $LN4@stl_wipe
$LN2@stl_wipe:
; File C:\Program Files (x86)\Microsoft Visual Studio\2019\Community\VC\Tools\MSVC\14.28.29333\include\vector

; 75   :         ++_Ptr;

  00022	8b 45 f8	 mov	 eax, DWORD PTR _i$13[ebp]
  00025	83 c0 04	 add	 eax, 4
  00028	89 45 f8	 mov	 DWORD PTR _i$13[ebp], eax
$LN4@stl_wipe:

; 1420 :         auto& _My_data = _Mypair._Myval2;

  0002b	8b 45 08	 mov	 eax, DWORD PTR _container$[ebp]
  0002e	89 45 ec	 mov	 DWORD PTR __My_data$10[ebp], eax
; File C:\Program Files (x86)\Microsoft Visual Studio\2019\Community\VC\Tools\MSVC\14.28.29333\include\xstddef

; 275  :     return __builtin_addressof(_Val);

  00031	8b 45 ec	 mov	 eax, DWORD PTR __My_data$10[ebp]
  00034	89 45 b8	 mov	 DWORD PTR $T2[ebp], eax
; File C:\Program Files (x86)\Microsoft Visual Studio\2019\Community\VC\Tools\MSVC\14.28.29333\include\vector

; 1421 :         return iterator(_My_data._Mylast, _STD addressof(_My_data));

  00037	8b 45 ec	 mov	 eax, DWORD PTR __My_data$10[ebp]
  0003a	8b 40 04	 mov	 eax, DWORD PTR [eax+4]
  0003d	89 45 d8	 mov	 DWORD PTR ___param0$[ebp], eax

; 42   :     _Vector_const_iterator(_Tptr _Parg, const _Container_base* _Pvector) noexcept : _Ptr(_Parg) {

  00040	8b 45 d8	 mov	 eax, DWORD PTR ___param0$[ebp]
  00043	89 45 d4	 mov	 DWORD PTR $T9[ebp], eax

; 1421 :         return iterator(_My_data._Mylast, _STD addressof(_My_data));

  00046	8d 45 d4	 lea	 eax, DWORD PTR $T9[ebp]
  00049	89 45 d0	 mov	 DWORD PTR $T8[ebp], eax

; 149  :         return _Ptr == _Right._Ptr;

  0004c	8b 45 d0	 mov	 eax, DWORD PTR $T8[ebp]
  0004f	8b 4d f8	 mov	 ecx, DWORD PTR _i$13[ebp]
  00052	3b 08		 cmp	 ecx, DWORD PTR [eax]
  00054	75 09		 jne	 SHORT $LN51@stl_wipe
  00056	c7 45 e8 01 00
	00 00		 mov	 DWORD PTR tv181[ebp], 1
  0005d	eb 04		 jmp	 SHORT $LN52@stl_wipe
$LN51@stl_wipe:
  0005f	83 65 e8 00	 and	 DWORD PTR tv181[ebp], 0
$LN52@stl_wipe:
  00063	8a 45 e8	 mov	 al, BYTE PTR tv181[ebp]
  00066	88 45 ff	 mov	 BYTE PTR $T15[ebp], al

; 153  :         return !(*this == _Right);

  00069	0f b6 45 ff	 movzx	 eax, BYTE PTR $T15[ebp]
  0006d	85 c0		 test	 eax, eax
  0006f	75 09		 jne	 SHORT $LN46@stl_wipe
  00071	c7 45 e4 01 00
	00 00		 mov	 DWORD PTR tv167[ebp], 1
  00078	eb 04		 jmp	 SHORT $LN47@stl_wipe
$LN46@stl_wipe:
  0007a	83 65 e4 00	 and	 DWORD PTR tv167[ebp], 0
$LN47@stl_wipe:
  0007e	8a 45 e4	 mov	 al, BYTE PTR tv167[ebp]
  00081	88 45 fe	 mov	 BYTE PTR $T14[ebp], al
; File D:\Metin2 Server Files\mainline\SRC_2014\Metin2Client\eterBase\Stl.h

; 95   : 	for (TContainer::iterator i = container.begin(); i != container.end(); ++i)

  00084	0f b6 45 fe	 movzx	 eax, BYTE PTR $T14[ebp]
  00088	85 c0		 test	 eax, eax
  0008a	74 5f		 je	 SHORT $LN3@stl_wipe
; File C:\Program Files (x86)\Microsoft Visual Studio\2019\Community\VC\Tools\MSVC\14.28.29333\include\vector

; 54   :         return *_Ptr;

  0008c	8b 45 f8	 mov	 eax, DWORD PTR _i$13[ebp]
  0008f	89 45 cc	 mov	 DWORD PTR $T7[ebp], eax

; 252  :         return const_cast<reference>(_Mybase::operator*());

  00092	8b 45 cc	 mov	 eax, DWORD PTR $T7[ebp]
  00095	89 45 c8	 mov	 DWORD PTR $T6[ebp], eax
; File D:\Metin2 Server Files\mainline\SRC_2014\Metin2Client\eterBase\Stl.h

; 97   : 		delete *i;

  00098	8b 45 c8	 mov	 eax, DWORD PTR $T6[ebp]
  0009b	8b 00		 mov	 eax, DWORD PTR [eax]
  0009d	89 45 f4	 mov	 DWORD PTR $T12[ebp], eax
  000a0	83 7d f4 00	 cmp	 DWORD PTR $T12[ebp], 0
  000a4	74 2a		 je	 SHORT $LN6@stl_wipe
  000a6	8b 45 b4	 mov	 eax, DWORD PTR $T1[ebp]
  000a9	89 45 e0	 mov	 DWORD PTR tv89[ebp], eax
  000ac	8b 4d f4	 mov	 ecx, DWORD PTR $T12[ebp]
  000af	e8 00 00 00 00	 call	 ??1CSnowParticle@@QAE@XZ ; CSnowParticle::~CSnowParticle
  000b4	33 c0		 xor	 eax, eax
  000b6	40		 inc	 eax
  000b7	83 e0 01	 and	 eax, 1
  000ba	74 0c		 je	 SHORT $LN64@stl_wipe
  000bc	6a 48		 push	 72			; 00000048H
  000be	ff 75 f4	 push	 DWORD PTR $T12[ebp]
  000c1	e8 00 00 00 00	 call	 ??3@YAXPAXI@Z		; operator delete
  000c6	59		 pop	 ecx
  000c7	59		 pop	 ecx
$LN64@stl_wipe:
  000c8	8b 45 f4	 mov	 eax, DWORD PTR $T12[ebp]
  000cb	89 45 e0	 mov	 DWORD PTR tv89[ebp], eax
  000ce	eb 04		 jmp	 SHORT $LN7@stl_wipe
$LN6@stl_wipe:
  000d0	83 65 e0 00	 and	 DWORD PTR tv89[ebp], 0
$LN7@stl_wipe:
; File C:\Program Files (x86)\Microsoft Visual Studio\2019\Community\VC\Tools\MSVC\14.28.29333\include\vector

; 54   :         return *_Ptr;

  000d4	8b 45 f8	 mov	 eax, DWORD PTR _i$13[ebp]
  000d7	89 45 c4	 mov	 DWORD PTR $T5[ebp], eax

; 252  :         return const_cast<reference>(_Mybase::operator*());

  000da	8b 45 c4	 mov	 eax, DWORD PTR $T5[ebp]
  000dd	89 45 c0	 mov	 DWORD PTR $T4[ebp], eax
; File D:\Metin2 Server Files\mainline\SRC_2014\Metin2Client\eterBase\Stl.h

; 98   : 		*i = NULL;

  000e0	8b 45 c0	 mov	 eax, DWORD PTR $T4[ebp]
  000e3	83 20 00	 and	 DWORD PTR [eax], 0

; 99   : 	}

  000e6	e9 37 ff ff ff	 jmp	 $LN2@stl_wipe
$LN3@stl_wipe:

; 100  : 	
; 101  : 	container.clear();

  000eb	8b 4d 08	 mov	 ecx, DWORD PTR _container$[ebp]
  000ee	e8 00 00 00 00	 call	 ?clear@?$vector@PAVCSnowParticle@@V?$allocator@PAVCSnowParticle@@@std@@@std@@QAEXXZ ; std::vector<CSnowParticle *,std::allocator<CSnowParticle *> >::clear

; 102  : }

  000f3	c9		 leave
  000f4	c3		 ret	 0
??$stl_wipe@V?$vector@PAVCSnowParticle@@V?$allocator@PAVCSnowParticle@@@std@@@std@@@@YAXAAV?$vector@PAVCSnowParticle@@V?$allocator@PAVCSnowParticle@@@std@@@std@@@Z ENDP ; stl_wipe<std::vector<CSnowParticle *,std::allocator<CSnowParticle *> > >
_TEXT	ENDS
; Function compile flags: /Odspy
; File C:\Program Files (x86)\Microsoft Visual Studio\2019\Community\VC\Tools\MSVC\14.28.29333\include\vector
;	COMDAT ??0?$_Vector_const_iterator@V?$_Vector_val@U?$_Simple_types@PAVCSnowParticle@@@std@@@std@@@std@@QAE@PAPAVCSnowParticle@@PBU_Container_base0@1@@Z
_TEXT	SEGMENT
_this$ = -4						; size = 4
__Parg$ = 8						; size = 4
__Pvector$ = 12						; size = 4
??0?$_Vector_const_iterator@V?$_Vector_val@U?$_Simple_types@PAVCSnowParticle@@@std@@@std@@@std@@QAE@PAPAVCSnowParticle@@PBU_Container_base0@1@@Z PROC ; std::_Vector_const_iterator<std::_Vector_val<std::_Simple_types<CSnowParticle *> > >::_Vector_const_iterator<std::_Vector_val<std::_Simple_types<CSnowParticle *> > >, COMDAT
; _this$ = ecx

; 42   :     _Vector_const_iterator(_Tptr _Parg, const _Container_base* _Pvector) noexcept : _Ptr(_Parg) {

  00000	55		 push	 ebp
  00001	8b ec		 mov	 ebp, esp
  00003	51		 push	 ecx
  00004	89 4d fc	 mov	 DWORD PTR _this$[ebp], ecx
  00007	8b 45 fc	 mov	 eax, DWORD PTR _this$[ebp]
  0000a	8b 4d 08	 mov	 ecx, DWORD PTR __Parg$[ebp]
  0000d	89 08		 mov	 DWORD PTR [eax], ecx

; 43   :         this->_Adopt(_Pvector);
; 44   :     }

  0000f	8b 45 fc	 mov	 eax, DWORD PTR _this$[ebp]
  00012	c9		 leave
  00013	c2 08 00	 ret	 8
??0?$_Vector_const_iterator@V?$_Vector_val@U?$_Simple_types@PAVCSnowParticle@@@std@@@std@@@std@@QAE@PAPAVCSnowParticle@@PBU_Container_base0@1@@Z ENDP ; std::_Vector_const_iterator<std::_Vector_val<std::_Simple_types<CSnowParticle *> > >::_Vector_const_iterator<std::_Vector_val<std::_Simple_types<CSnowParticle *> > >
_TEXT	ENDS
; Function compile flags: /Odspy
; File D:\Metin2 Server Files\mainline\SRC_2014\Metin2Client\GameLib\SnowParticle.h
;	COMDAT ??1BlurVertex@@QAE@XZ
_TEXT	SEGMENT
_this$ = -4						; size = 4
??1BlurVertex@@QAE@XZ PROC				; BlurVertex::~BlurVertex, COMDAT
; _this$ = ecx

; 19   : 	~BlurVertex(){};

  00000	55		 push	 ebp
  00001	8b ec		 mov	 ebp, esp
  00003	51		 push	 ecx
  00004	89 4d fc	 mov	 DWORD PTR _this$[ebp], ecx
  00007	c9		 leave
  00008	c3		 ret	 0
??1BlurVertex@@QAE@XZ ENDP				; BlurVertex::~BlurVertex
_TEXT	ENDS
; Function compile flags: /Odspy
;	COMDAT ??_GCSnowEnvironment@@UAEPAXI@Z
_TEXT	SEGMENT
_this$ = -4						; size = 4
___flags$ = 8						; size = 4
??_GCSnowEnvironment@@UAEPAXI@Z PROC			; CSnowEnvironment::`scalar deleting destructor', COMDAT
; _this$ = ecx
  00000	55		 push	 ebp
  00001	8b ec		 mov	 ebp, esp
  00003	51		 push	 ecx
  00004	89 4d fc	 mov	 DWORD PTR _this$[ebp], ecx
  00007	8b 4d fc	 mov	 ecx, DWORD PTR _this$[ebp]
  0000a	e8 00 00 00 00	 call	 ??1CSnowEnvironment@@UAE@XZ ; CSnowEnvironment::~CSnowEnvironment
  0000f	8b 45 08	 mov	 eax, DWORD PTR ___flags$[ebp]
  00012	83 e0 01	 and	 eax, 1
  00015	74 0c		 je	 SHORT $LN2@scalar
  00017	6a 58		 push	 88			; 00000058H
  00019	ff 75 fc	 push	 DWORD PTR _this$[ebp]
  0001c	e8 00 00 00 00	 call	 ??3@YAXPAXI@Z		; operator delete
  00021	59		 pop	 ecx
  00022	59		 pop	 ecx
$LN2@scalar:
  00023	8b 45 fc	 mov	 eax, DWORD PTR _this$[ebp]
  00026	c9		 leave
  00027	c2 04 00	 ret	 4
??_GCSnowEnvironment@@UAEPAXI@Z ENDP			; CSnowEnvironment::`scalar deleting destructor'
_TEXT	ENDS
; Function compile flags: /Odspy
; File C:\Program Files (x86)\Microsoft Visual Studio\2019\Community\VC\Tools\MSVC\14.28.29333\include\vector
; File C:\Program Files (x86)\Microsoft Visual Studio\2019\Community\VC\Tools\MSVC\14.28.29333\include\xmemory
; File C:\Program Files (x86)\Microsoft Visual Studio\2019\Community\VC\Tools\MSVC\14.28.29333\include\vector
;	COMDAT ?_Getal@?$vector@PAVCSnowParticle@@V?$allocator@PAVCSnowParticle@@@std@@@std@@AAEAAV?$allocator@PAVCSnowParticle@@@2@XZ
_TEXT	SEGMENT
$T1 = -8						; size = 4
_this$ = -4						; size = 4
?_Getal@?$vector@PAVCSnowParticle@@V?$allocator@PAVCSnowParticle@@@std@@@std@@AAEAAV?$allocator@PAVCSnowParticle@@@2@XZ PROC ; std::vector<CSnowParticle *,std::allocator<CSnowParticle *> >::_Getal, COMDAT
; _this$ = ecx

; 1732 :     _Alty& _Getal() noexcept {

  00000	55		 push	 ebp
  00001	8b ec		 mov	 ebp, esp
  00003	51		 push	 ecx
  00004	51		 push	 ecx
  00005	89 4d fc	 mov	 DWORD PTR _this$[ebp], ecx

; 1733 :         return _Mypair._Get_first();

  00008	8b 45 fc	 mov	 eax, DWORD PTR _this$[ebp]
; File C:\Program Files (x86)\Microsoft Visual Studio\2019\Community\VC\Tools\MSVC\14.28.29333\include\xmemory

; 1347 :         return *this;

  0000b	89 45 f8	 mov	 DWORD PTR $T1[ebp], eax
; File C:\Program Files (x86)\Microsoft Visual Studio\2019\Community\VC\Tools\MSVC\14.28.29333\include\vector

; 1733 :         return _Mypair._Get_first();

  0000e	8b 45 f8	 mov	 eax, DWORD PTR $T1[ebp]

; 1734 :     }

  00011	c9		 leave
  00012	c3		 ret	 0
?_Getal@?$vector@PAVCSnowParticle@@V?$allocator@PAVCSnowParticle@@@std@@@std@@AAEAAV?$allocator@PAVCSnowParticle@@@2@XZ ENDP ; std::vector<CSnowParticle *,std::allocator<CSnowParticle *> >::_Getal
_TEXT	ENDS
; Function compile flags: /Odspy
; File C:\Program Files (x86)\Microsoft Visual Studio\2019\Community\VC\Tools\MSVC\14.28.29333\include\vector
;	COMDAT ?_Xlength@?$vector@PAVCSnowParticle@@V?$allocator@PAVCSnowParticle@@@std@@@std@@CAXXZ
_TEXT	SEGMENT
?_Xlength@?$vector@PAVCSnowParticle@@V?$allocator@PAVCSnowParticle@@@std@@@std@@CAXXZ PROC ; std::vector<CSnowParticle *,std::allocator<CSnowParticle *> >::_Xlength, COMDAT

; 1704 :     [[noreturn]] static void _Xlength() {

  00000	55		 push	 ebp
  00001	8b ec		 mov	 ebp, esp

; 1705 :         _Xlength_error("vector too long");

  00003	68 00 00 00 00	 push	 OFFSET ??_C@_0BA@FOIKENOD@vector?5too?5long@
  00008	e8 00 00 00 00	 call	 ?_Xlength_error@std@@YAXPBD@Z ; std::_Xlength_error
$LN2@Xlength:

; 1706 :     }

  0000d	5d		 pop	 ebp
  0000e	c3		 ret	 0
?_Xlength@?$vector@PAVCSnowParticle@@V?$allocator@PAVCSnowParticle@@@std@@@std@@CAXXZ ENDP ; std::vector<CSnowParticle *,std::allocator<CSnowParticle *> >::_Xlength
_TEXT	ENDS
; Function compile flags: /Odspy
; File C:\Program Files (x86)\Microsoft Visual Studio\2019\Community\VC\Tools\MSVC\14.28.29333\include\vector
; File C:\Program Files (x86)\Microsoft Visual Studio\2019\Community\VC\Tools\MSVC\14.28.29333\include\xmemory
; File C:\Program Files (x86)\Microsoft Visual Studio\2019\Community\VC\Tools\MSVC\14.28.29333\include\vector
; File C:\Program Files (x86)\Microsoft Visual Studio\2019\Community\VC\Tools\MSVC\14.28.29333\include\xmemory
; File C:\Program Files (x86)\Microsoft Visual Studio\2019\Community\VC\Tools\MSVC\14.28.29333\include\vector
; File C:\Program Files (x86)\Microsoft Visual Studio\2019\Community\VC\Tools\MSVC\14.28.29333\include\xmemory
; File C:\Program Files (x86)\Microsoft Visual Studio\2019\Community\VC\Tools\MSVC\14.28.29333\include\vector
;	COMDAT ?_Tidy@?$vector@PAVCSnowParticle@@V?$allocator@PAVCSnowParticle@@@std@@@std@@AAEXXZ
_TEXT	SEGMENT
$T1 = -52						; size = 4
__Ptr$ = -48						; size = 4
__Count$ = -44						; size = 4
$T2 = -40						; size = 4
__First$ = -36						; size = 4
__Last$ = -32						; size = 4
$T3 = -28						; size = 4
$T4 = -24						; size = 4
__Myend$ = -20						; size = 4
__Mylast$ = -16						; size = 4
_this$ = -12						; size = 4
__My_data$ = -8						; size = 4
__Myfirst$ = -4						; size = 4
?_Tidy@?$vector@PAVCSnowParticle@@V?$allocator@PAVCSnowParticle@@@std@@@std@@AAEXXZ PROC ; std::vector<CSnowParticle *,std::allocator<CSnowParticle *> >::_Tidy, COMDAT
; _this$ = ecx

; 1686 :     void _Tidy() noexcept { // free all storage

  00000	55		 push	 ebp
  00001	8b ec		 mov	 ebp, esp
  00003	83 ec 34	 sub	 esp, 52			; 00000034H
  00006	89 4d f4	 mov	 DWORD PTR _this$[ebp], ecx

; 1687 :         auto& _My_data    = _Mypair._Myval2;

  00009	8b 45 f4	 mov	 eax, DWORD PTR _this$[ebp]
  0000c	89 45 f8	 mov	 DWORD PTR __My_data$[ebp], eax

; 1688 :         pointer& _Myfirst = _My_data._Myfirst;

  0000f	8b 45 f8	 mov	 eax, DWORD PTR __My_data$[ebp]
  00012	89 45 fc	 mov	 DWORD PTR __Myfirst$[ebp], eax

; 1689 :         pointer& _Mylast  = _My_data._Mylast;

  00015	8b 45 f8	 mov	 eax, DWORD PTR __My_data$[ebp]
  00018	83 c0 04	 add	 eax, 4
  0001b	89 45 f0	 mov	 DWORD PTR __Mylast$[ebp], eax

; 1690 :         pointer& _Myend   = _My_data._Myend;

  0001e	8b 45 f8	 mov	 eax, DWORD PTR __My_data$[ebp]
  00021	83 c0 08	 add	 eax, 8
  00024	89 45 ec	 mov	 DWORD PTR __Myend$[ebp], eax

; 1691 : 
; 1692 :         _My_data._Orphan_all();
; 1693 : 
; 1694 :         if (_Myfirst) { // destroy and deallocate old array

  00027	8b 45 fc	 mov	 eax, DWORD PTR __Myfirst$[ebp]
  0002a	83 38 00	 cmp	 DWORD PTR [eax], 0
  0002d	74 74		 je	 SHORT $LN3@Tidy

; 1695 :             _Destroy(_Myfirst, _Mylast);

  0002f	8b 45 f0	 mov	 eax, DWORD PTR __Mylast$[ebp]
  00032	8b 00		 mov	 eax, DWORD PTR [eax]
  00034	89 45 e0	 mov	 DWORD PTR __Last$[ebp], eax
  00037	8b 45 fc	 mov	 eax, DWORD PTR __Myfirst$[ebp]
  0003a	8b 00		 mov	 eax, DWORD PTR [eax]
  0003c	89 45 dc	 mov	 DWORD PTR __First$[ebp], eax

; 1733 :         return _Mypair._Get_first();

  0003f	8b 45 f4	 mov	 eax, DWORD PTR _this$[ebp]
; File C:\Program Files (x86)\Microsoft Visual Studio\2019\Community\VC\Tools\MSVC\14.28.29333\include\xmemory

; 1347 :         return *this;

  00042	89 45 e8	 mov	 DWORD PTR $T4[ebp], eax
; File C:\Program Files (x86)\Microsoft Visual Studio\2019\Community\VC\Tools\MSVC\14.28.29333\include\vector

; 1733 :         return _Mypair._Get_first();

  00045	8b 45 e8	 mov	 eax, DWORD PTR $T4[ebp]
  00048	89 45 e4	 mov	 DWORD PTR $T3[ebp], eax

; 1612 :         _Destroy_range(_First, _Last, _Getal());

  0004b	ff 75 e4	 push	 DWORD PTR $T3[ebp]
  0004e	ff 75 e0	 push	 DWORD PTR __Last$[ebp]
  00051	ff 75 dc	 push	 DWORD PTR __First$[ebp]
  00054	e8 00 00 00 00	 call	 ??$_Destroy_range@V?$allocator@PAVCSnowParticle@@@std@@@std@@YAXPAPAVCSnowParticle@@QAPAV1@AAV?$allocator@PAVCSnowParticle@@@0@@Z ; std::_Destroy_range<std::allocator<CSnowParticle *> >
  00059	83 c4 0c	 add	 esp, 12			; 0000000cH

; 1733 :         return _Mypair._Get_first();

  0005c	8b 45 f4	 mov	 eax, DWORD PTR _this$[ebp]
; File C:\Program Files (x86)\Microsoft Visual Studio\2019\Community\VC\Tools\MSVC\14.28.29333\include\xmemory

; 1347 :         return *this;

  0005f	89 45 d8	 mov	 DWORD PTR $T2[ebp], eax
; File C:\Program Files (x86)\Microsoft Visual Studio\2019\Community\VC\Tools\MSVC\14.28.29333\include\vector

; 1733 :         return _Mypair._Get_first();

  00062	8b 45 d8	 mov	 eax, DWORD PTR $T2[ebp]
  00065	89 45 cc	 mov	 DWORD PTR $T1[ebp], eax

; 1696 :             _Getal().deallocate(_Myfirst, static_cast<size_type>(_Myend - _Myfirst));

  00068	8b 45 ec	 mov	 eax, DWORD PTR __Myend$[ebp]
  0006b	8b 4d fc	 mov	 ecx, DWORD PTR __Myfirst$[ebp]
  0006e	8b 00		 mov	 eax, DWORD PTR [eax]
  00070	2b 01		 sub	 eax, DWORD PTR [ecx]
  00072	c1 f8 02	 sar	 eax, 2
  00075	89 45 d4	 mov	 DWORD PTR __Count$[ebp], eax
  00078	8b 45 fc	 mov	 eax, DWORD PTR __Myfirst$[ebp]
  0007b	8b 00		 mov	 eax, DWORD PTR [eax]
  0007d	89 45 d0	 mov	 DWORD PTR __Ptr$[ebp], eax
; File C:\Program Files (x86)\Microsoft Visual Studio\2019\Community\VC\Tools\MSVC\14.28.29333\include\xmemory

; 810  :         _Deallocate<_New_alignof<_Ty>>(_Ptr, sizeof(_Ty) * _Count);

  00080	8b 45 d4	 mov	 eax, DWORD PTR __Count$[ebp]
  00083	c1 e0 02	 shl	 eax, 2
  00086	50		 push	 eax
  00087	ff 75 d0	 push	 DWORD PTR __Ptr$[ebp]
  0008a	e8 00 00 00 00	 call	 ??$_Deallocate@$07$0A@@std@@YAXPAXI@Z ; std::_Deallocate<8,0>
  0008f	59		 pop	 ecx
  00090	59		 pop	 ecx
; File C:\Program Files (x86)\Microsoft Visual Studio\2019\Community\VC\Tools\MSVC\14.28.29333\include\vector

; 1698 :             _Myfirst = pointer();

  00091	8b 45 fc	 mov	 eax, DWORD PTR __Myfirst$[ebp]
  00094	83 20 00	 and	 DWORD PTR [eax], 0

; 1699 :             _Mylast  = pointer();

  00097	8b 45 f0	 mov	 eax, DWORD PTR __Mylast$[ebp]
  0009a	83 20 00	 and	 DWORD PTR [eax], 0

; 1700 :             _Myend   = pointer();

  0009d	8b 45 ec	 mov	 eax, DWORD PTR __Myend$[ebp]
  000a0	83 20 00	 and	 DWORD PTR [eax], 0
$LN3@Tidy:

; 1701 :         }
; 1702 :     }

  000a3	c9		 leave
  000a4	c3		 ret	 0
?_Tidy@?$vector@PAVCSnowParticle@@V?$allocator@PAVCSnowParticle@@@std@@@std@@AAEXXZ ENDP ; std::vector<CSnowParticle *,std::allocator<CSnowParticle *> >::_Tidy
_TEXT	ENDS
; Function compile flags: /Odspy
; File C:\Program Files (x86)\Microsoft Visual Studio\2019\Community\VC\Tools\MSVC\14.28.29333\include\vector
; File C:\Program Files (x86)\Microsoft Visual Studio\2019\Community\VC\Tools\MSVC\14.28.29333\include\xmemory
; File C:\Program Files (x86)\Microsoft Visual Studio\2019\Community\VC\Tools\MSVC\14.28.29333\include\vector
; File C:\Program Files (x86)\Microsoft Visual Studio\2019\Community\VC\Tools\MSVC\14.28.29333\include\xmemory
; File C:\Program Files (x86)\Microsoft Visual Studio\2019\Community\VC\Tools\MSVC\14.28.29333\include\vector
; File C:\Program Files (x86)\Microsoft Visual Studio\2019\Community\VC\Tools\MSVC\14.28.29333\include\xmemory
; File C:\Program Files (x86)\Microsoft Visual Studio\2019\Community\VC\Tools\MSVC\14.28.29333\include\vector
;	COMDAT ?_Change_array@?$vector@PAVCSnowParticle@@V?$allocator@PAVCSnowParticle@@@std@@@std@@AAEXQAPAVCSnowParticle@@II@Z
_TEXT	SEGMENT
$T1 = -52						; size = 4
__Ptr$ = -48						; size = 4
__Count$ = -44						; size = 4
$T2 = -40						; size = 4
__First$ = -36						; size = 4
__Last$ = -32						; size = 4
$T3 = -28						; size = 4
$T4 = -24						; size = 4
__Myend$ = -20						; size = 4
__Mylast$ = -16						; size = 4
_this$ = -12						; size = 4
__My_data$ = -8						; size = 4
__Myfirst$ = -4						; size = 4
__Newvec$ = 8						; size = 4
__Newsize$ = 12						; size = 4
__Newcapacity$ = 16					; size = 4
?_Change_array@?$vector@PAVCSnowParticle@@V?$allocator@PAVCSnowParticle@@@std@@@std@@AAEXQAPAVCSnowParticle@@II@Z PROC ; std::vector<CSnowParticle *,std::allocator<CSnowParticle *> >::_Change_array, COMDAT
; _this$ = ecx

; 1667 :     void _Change_array(const pointer _Newvec, const size_type _Newsize, const size_type _Newcapacity) {

  00000	55		 push	 ebp
  00001	8b ec		 mov	 ebp, esp
  00003	83 ec 34	 sub	 esp, 52			; 00000034H
  00006	89 4d f4	 mov	 DWORD PTR _this$[ebp], ecx

; 1668 :         // orphan all iterators, discard old array, acquire new array
; 1669 :         auto& _My_data    = _Mypair._Myval2;

  00009	8b 45 f4	 mov	 eax, DWORD PTR _this$[ebp]
  0000c	89 45 f8	 mov	 DWORD PTR __My_data$[ebp], eax

; 1670 :         pointer& _Myfirst = _My_data._Myfirst;

  0000f	8b 45 f8	 mov	 eax, DWORD PTR __My_data$[ebp]
  00012	89 45 fc	 mov	 DWORD PTR __Myfirst$[ebp], eax

; 1671 :         pointer& _Mylast  = _My_data._Mylast;

  00015	8b 45 f8	 mov	 eax, DWORD PTR __My_data$[ebp]
  00018	83 c0 04	 add	 eax, 4
  0001b	89 45 f0	 mov	 DWORD PTR __Mylast$[ebp], eax

; 1672 :         pointer& _Myend   = _My_data._Myend;

  0001e	8b 45 f8	 mov	 eax, DWORD PTR __My_data$[ebp]
  00021	83 c0 08	 add	 eax, 8
  00024	89 45 ec	 mov	 DWORD PTR __Myend$[ebp], eax

; 1673 : 
; 1674 :         _My_data._Orphan_all();
; 1675 : 
; 1676 :         if (_Myfirst) { // destroy and deallocate old array

  00027	8b 45 fc	 mov	 eax, DWORD PTR __Myfirst$[ebp]
  0002a	83 38 00	 cmp	 DWORD PTR [eax], 0
  0002d	74 62		 je	 SHORT $LN2@Change_arr

; 1677 :             _Destroy(_Myfirst, _Mylast);

  0002f	8b 45 f0	 mov	 eax, DWORD PTR __Mylast$[ebp]
  00032	8b 00		 mov	 eax, DWORD PTR [eax]
  00034	89 45 e0	 mov	 DWORD PTR __Last$[ebp], eax
  00037	8b 45 fc	 mov	 eax, DWORD PTR __Myfirst$[ebp]
  0003a	8b 00		 mov	 eax, DWORD PTR [eax]
  0003c	89 45 dc	 mov	 DWORD PTR __First$[ebp], eax

; 1733 :         return _Mypair._Get_first();

  0003f	8b 45 f4	 mov	 eax, DWORD PTR _this$[ebp]
; File C:\Program Files (x86)\Microsoft Visual Studio\2019\Community\VC\Tools\MSVC\14.28.29333\include\xmemory

; 1347 :         return *this;

  00042	89 45 e8	 mov	 DWORD PTR $T4[ebp], eax
; File C:\Program Files (x86)\Microsoft Visual Studio\2019\Community\VC\Tools\MSVC\14.28.29333\include\vector

; 1733 :         return _Mypair._Get_first();

  00045	8b 45 e8	 mov	 eax, DWORD PTR $T4[ebp]
  00048	89 45 e4	 mov	 DWORD PTR $T3[ebp], eax

; 1612 :         _Destroy_range(_First, _Last, _Getal());

  0004b	ff 75 e4	 push	 DWORD PTR $T3[ebp]
  0004e	ff 75 e0	 push	 DWORD PTR __Last$[ebp]
  00051	ff 75 dc	 push	 DWORD PTR __First$[ebp]
  00054	e8 00 00 00 00	 call	 ??$_Destroy_range@V?$allocator@PAVCSnowParticle@@@std@@@std@@YAXPAPAVCSnowParticle@@QAPAV1@AAV?$allocator@PAVCSnowParticle@@@0@@Z ; std::_Destroy_range<std::allocator<CSnowParticle *> >
  00059	83 c4 0c	 add	 esp, 12			; 0000000cH

; 1733 :         return _Mypair._Get_first();

  0005c	8b 45 f4	 mov	 eax, DWORD PTR _this$[ebp]
; File C:\Program Files (x86)\Microsoft Visual Studio\2019\Community\VC\Tools\MSVC\14.28.29333\include\xmemory

; 1347 :         return *this;

  0005f	89 45 d8	 mov	 DWORD PTR $T2[ebp], eax
; File C:\Program Files (x86)\Microsoft Visual Studio\2019\Community\VC\Tools\MSVC\14.28.29333\include\vector

; 1733 :         return _Mypair._Get_first();

  00062	8b 45 d8	 mov	 eax, DWORD PTR $T2[ebp]
  00065	89 45 cc	 mov	 DWORD PTR $T1[ebp], eax

; 1678 :             _Getal().deallocate(_Myfirst, static_cast<size_type>(_Myend - _Myfirst));

  00068	8b 45 ec	 mov	 eax, DWORD PTR __Myend$[ebp]
  0006b	8b 4d fc	 mov	 ecx, DWORD PTR __Myfirst$[ebp]
  0006e	8b 00		 mov	 eax, DWORD PTR [eax]
  00070	2b 01		 sub	 eax, DWORD PTR [ecx]
  00072	c1 f8 02	 sar	 eax, 2
  00075	89 45 d4	 mov	 DWORD PTR __Count$[ebp], eax
  00078	8b 45 fc	 mov	 eax, DWORD PTR __Myfirst$[ebp]
  0007b	8b 00		 mov	 eax, DWORD PTR [eax]
  0007d	89 45 d0	 mov	 DWORD PTR __Ptr$[ebp], eax
; File C:\Program Files (x86)\Microsoft Visual Studio\2019\Community\VC\Tools\MSVC\14.28.29333\include\xmemory

; 810  :         _Deallocate<_New_alignof<_Ty>>(_Ptr, sizeof(_Ty) * _Count);

  00080	8b 45 d4	 mov	 eax, DWORD PTR __Count$[ebp]
  00083	c1 e0 02	 shl	 eax, 2
  00086	50		 push	 eax
  00087	ff 75 d0	 push	 DWORD PTR __Ptr$[ebp]
  0008a	e8 00 00 00 00	 call	 ??$_Deallocate@$07$0A@@std@@YAXPAXI@Z ; std::_Deallocate<8,0>
  0008f	59		 pop	 ecx
  00090	59		 pop	 ecx
$LN2@Change_arr:
; File C:\Program Files (x86)\Microsoft Visual Studio\2019\Community\VC\Tools\MSVC\14.28.29333\include\vector

; 1681 :         _Myfirst = _Newvec;

  00091	8b 45 fc	 mov	 eax, DWORD PTR __Myfirst$[ebp]
  00094	8b 4d 08	 mov	 ecx, DWORD PTR __Newvec$[ebp]
  00097	89 08		 mov	 DWORD PTR [eax], ecx

; 1682 :         _Mylast  = _Newvec + _Newsize;

  00099	8b 45 0c	 mov	 eax, DWORD PTR __Newsize$[ebp]
  0009c	8b 4d 08	 mov	 ecx, DWORD PTR __Newvec$[ebp]
  0009f	8d 04 81	 lea	 eax, DWORD PTR [ecx+eax*4]
  000a2	8b 4d f0	 mov	 ecx, DWORD PTR __Mylast$[ebp]
  000a5	89 01		 mov	 DWORD PTR [ecx], eax

; 1683 :         _Myend   = _Newvec + _Newcapacity;

  000a7	8b 45 10	 mov	 eax, DWORD PTR __Newcapacity$[ebp]
  000aa	8b 4d 08	 mov	 ecx, DWORD PTR __Newvec$[ebp]
  000ad	8d 04 81	 lea	 eax, DWORD PTR [ecx+eax*4]
  000b0	8b 4d ec	 mov	 ecx, DWORD PTR __Myend$[ebp]
  000b3	89 01		 mov	 DWORD PTR [ecx], eax

; 1684 :     }

  000b5	c9		 leave
  000b6	c2 0c 00	 ret	 12			; 0000000cH
?_Change_array@?$vector@PAVCSnowParticle@@V?$allocator@PAVCSnowParticle@@@std@@@std@@AAEXQAPAVCSnowParticle@@II@Z ENDP ; std::vector<CSnowParticle *,std::allocator<CSnowParticle *> >::_Change_array
_TEXT	ENDS
; Function compile flags: /Odspy
; File C:\Program Files (x86)\Microsoft Visual Studio\2019\Community\VC\Tools\MSVC\14.28.29333\include\vector
; File C:\Program Files (x86)\Microsoft Visual Studio\2019\Community\VC\Tools\MSVC\14.28.29333\include\xmemory
; File C:\Program Files (x86)\Microsoft Visual Studio\2019\Community\VC\Tools\MSVC\14.28.29333\include\vector
; File C:\Program Files (x86)\Microsoft Visual Studio\2019\Community\VC\Tools\MSVC\14.28.29333\include\xmemory
; File C:\Program Files (x86)\Microsoft Visual Studio\2019\Community\VC\Tools\MSVC\14.28.29333\include\limits
; File C:\Program Files (x86)\Microsoft Visual Studio\2019\Community\VC\Tools\MSVC\14.28.29333\include\vector
; File C:\Program Files (x86)\Microsoft Visual Studio\2019\Community\VC\Tools\MSVC\14.28.29333\include\utility
; File C:\Program Files (x86)\Microsoft Visual Studio\2019\Community\VC\Tools\MSVC\14.28.29333\include\vector
;	COMDAT ?_Calculate_growth@?$vector@PAVCSnowParticle@@V?$allocator@PAVCSnowParticle@@@std@@@std@@ABEII@Z
_TEXT	SEGMENT
$T1 = -52						; size = 4
$T2 = -48						; size = 4
$T3 = -44						; size = 4
$T4 = -40						; size = 4
$T5 = -36						; size = 4
__Geometric$ = -32					; size = 4
__Max$ = -28						; size = 4
tv82 = -24						; size = 4
$T6 = -20						; size = 4
$T7 = -16						; size = 4
_this$ = -12						; size = 4
__My_data$8 = -8					; size = 4
__Oldcapacity$ = -4					; size = 4
__Newsize$ = 8						; size = 4
?_Calculate_growth@?$vector@PAVCSnowParticle@@V?$allocator@PAVCSnowParticle@@@std@@@std@@ABEII@Z PROC ; std::vector<CSnowParticle *,std::allocator<CSnowParticle *> >::_Calculate_growth, COMDAT
; _this$ = ecx

; 1615 :     size_type _Calculate_growth(const size_type _Newsize) const {

  00000	55		 push	 ebp
  00001	8b ec		 mov	 ebp, esp
  00003	83 ec 34	 sub	 esp, 52			; 00000034H
  00006	89 4d f4	 mov	 DWORD PTR _this$[ebp], ecx

; 1493 :         auto& _My_data = _Mypair._Myval2;

  00009	8b 45 f4	 mov	 eax, DWORD PTR _this$[ebp]
  0000c	89 45 f8	 mov	 DWORD PTR __My_data$8[ebp], eax

; 1494 :         return static_cast<size_type>(_My_data._Myend - _My_data._Myfirst);

  0000f	8b 45 f8	 mov	 eax, DWORD PTR __My_data$8[ebp]
  00012	8b 4d f8	 mov	 ecx, DWORD PTR __My_data$8[ebp]
  00015	8b 40 08	 mov	 eax, DWORD PTR [eax+8]
  00018	2b 01		 sub	 eax, DWORD PTR [ecx]
  0001a	c1 f8 02	 sar	 eax, 2
  0001d	89 45 fc	 mov	 DWORD PTR __Oldcapacity$[ebp], eax

; 1737 :         return _Mypair._Get_first();

  00020	8b 45 f4	 mov	 eax, DWORD PTR _this$[ebp]
; File C:\Program Files (x86)\Microsoft Visual Studio\2019\Community\VC\Tools\MSVC\14.28.29333\include\xmemory

; 1351 :         return *this;

  00023	89 45 dc	 mov	 DWORD PTR $T5[ebp], eax
; File C:\Program Files (x86)\Microsoft Visual Studio\2019\Community\VC\Tools\MSVC\14.28.29333\include\vector

; 1737 :         return _Mypair._Get_first();

  00026	8b 45 dc	 mov	 eax, DWORD PTR $T5[ebp]
  00029	89 45 cc	 mov	 DWORD PTR $T1[ebp], eax
; File C:\Program Files (x86)\Microsoft Visual Studio\2019\Community\VC\Tools\MSVC\14.28.29333\include\xmemory

; 710  :         return static_cast<size_t>(-1) / sizeof(value_type);

  0002c	c7 45 f0 ff ff
	ff 3f		 mov	 DWORD PTR $T7[ebp], 1073741823 ; 3fffffffH
; File C:\Program Files (x86)\Microsoft Visual Studio\2019\Community\VC\Tools\MSVC\14.28.29333\include\limits

; 557  :         return INT_MAX;

  00033	c7 45 d8 ff ff
	ff 7f		 mov	 DWORD PTR $T4[ebp], 2147483647 ; 7fffffffH
; File C:\Program Files (x86)\Microsoft Visual Studio\2019\Community\VC\Tools\MSVC\14.28.29333\include\vector

; 1488 :         return (_STD min)(

  0003a	8b 45 d8	 mov	 eax, DWORD PTR $T4[ebp]
  0003d	89 45 ec	 mov	 DWORD PTR $T6[ebp], eax
; File C:\Program Files (x86)\Microsoft Visual Studio\2019\Community\VC\Tools\MSVC\14.28.29333\include\utility

; 68   :     return _Right < _Left ? _Right : _Left;

  00040	8b 45 f0	 mov	 eax, DWORD PTR $T7[ebp]
  00043	3b 45 ec	 cmp	 eax, DWORD PTR $T6[ebp]
  00046	73 08		 jae	 SHORT $LN25@Calculate_
  00048	8d 45 f0	 lea	 eax, DWORD PTR $T7[ebp]
  0004b	89 45 e8	 mov	 DWORD PTR tv82[ebp], eax
  0004e	eb 06		 jmp	 SHORT $LN26@Calculate_
$LN25@Calculate_:
  00050	8d 45 ec	 lea	 eax, DWORD PTR $T6[ebp]
  00053	89 45 e8	 mov	 DWORD PTR tv82[ebp], eax
$LN26@Calculate_:
  00056	8b 45 e8	 mov	 eax, DWORD PTR tv82[ebp]
  00059	89 45 d4	 mov	 DWORD PTR $T3[ebp], eax
  0005c	8b 45 d4	 mov	 eax, DWORD PTR $T3[ebp]
  0005f	89 45 d0	 mov	 DWORD PTR $T2[ebp], eax
; File C:\Program Files (x86)\Microsoft Visual Studio\2019\Community\VC\Tools\MSVC\14.28.29333\include\vector

; 1488 :         return (_STD min)(

  00062	8b 45 d0	 mov	 eax, DWORD PTR $T2[ebp]
  00065	8b 00		 mov	 eax, DWORD PTR [eax]
  00067	89 45 e4	 mov	 DWORD PTR __Max$[ebp], eax

; 1616 :         // given _Oldcapacity and _Newsize, calculate geometric growth
; 1617 :         const size_type _Oldcapacity = capacity();
; 1618 :         const auto _Max              = max_size();
; 1619 : 
; 1620 :         if (_Oldcapacity > _Max - _Oldcapacity / 2) {

  0006a	8b 45 fc	 mov	 eax, DWORD PTR __Oldcapacity$[ebp]
  0006d	d1 e8		 shr	 eax, 1
  0006f	8b 4d e4	 mov	 ecx, DWORD PTR __Max$[ebp]
  00072	2b c8		 sub	 ecx, eax
  00074	39 4d fc	 cmp	 DWORD PTR __Oldcapacity$[ebp], ecx
  00077	76 05		 jbe	 SHORT $LN2@Calculate_

; 1621 :             return _Max; // geometric growth would overflow

  00079	8b 45 e4	 mov	 eax, DWORD PTR __Max$[ebp]
  0007c	eb 1b		 jmp	 SHORT $LN1@Calculate_
$LN2@Calculate_:

; 1622 :         }
; 1623 : 
; 1624 :         const size_type _Geometric = _Oldcapacity + _Oldcapacity / 2;

  0007e	8b 45 fc	 mov	 eax, DWORD PTR __Oldcapacity$[ebp]
  00081	d1 e8		 shr	 eax, 1
  00083	03 45 fc	 add	 eax, DWORD PTR __Oldcapacity$[ebp]
  00086	89 45 e0	 mov	 DWORD PTR __Geometric$[ebp], eax

; 1625 : 
; 1626 :         if (_Geometric < _Newsize) {

  00089	8b 45 e0	 mov	 eax, DWORD PTR __Geometric$[ebp]
  0008c	3b 45 08	 cmp	 eax, DWORD PTR __Newsize$[ebp]
  0008f	73 05		 jae	 SHORT $LN3@Calculate_

; 1627 :             return _Newsize; // geometric growth would be insufficient

  00091	8b 45 08	 mov	 eax, DWORD PTR __Newsize$[ebp]
  00094	eb 03		 jmp	 SHORT $LN1@Calculate_
$LN3@Calculate_:

; 1628 :         }
; 1629 : 
; 1630 :         return _Geometric; // geometric growth is sufficient

  00096	8b 45 e0	 mov	 eax, DWORD PTR __Geometric$[ebp]
$LN1@Calculate_:

; 1631 :     }

  00099	c9		 leave
  0009a	c2 04 00	 ret	 4
?_Calculate_growth@?$vector@PAVCSnowParticle@@V?$allocator@PAVCSnowParticle@@@std@@@std@@ABEII@Z ENDP ; std::vector<CSnowParticle *,std::allocator<CSnowParticle *> >::_Calculate_growth
_TEXT	ENDS
; Function compile flags: /Odspy
; File C:\Program Files (x86)\Microsoft Visual Studio\2019\Community\VC\Tools\MSVC\14.28.29333\include\vector
; File C:\Program Files (x86)\Microsoft Visual Studio\2019\Community\VC\Tools\MSVC\14.28.29333\include\xmemory
; File C:\Program Files (x86)\Microsoft Visual Studio\2019\Community\VC\Tools\MSVC\14.28.29333\include\vector
;	COMDAT ?_Destroy@?$vector@PAVCSnowParticle@@V?$allocator@PAVCSnowParticle@@@std@@@std@@AAEXPAPAVCSnowParticle@@0@Z
_TEXT	SEGMENT
$T1 = -12						; size = 4
$T2 = -8						; size = 4
_this$ = -4						; size = 4
__First$ = 8						; size = 4
__Last$ = 12						; size = 4
?_Destroy@?$vector@PAVCSnowParticle@@V?$allocator@PAVCSnowParticle@@@std@@@std@@AAEXPAPAVCSnowParticle@@0@Z PROC ; std::vector<CSnowParticle *,std::allocator<CSnowParticle *> >::_Destroy, COMDAT
; _this$ = ecx

; 1611 :     void _Destroy(pointer _First, pointer _Last) { // destroy [_First, _Last) using allocator

  00000	55		 push	 ebp
  00001	8b ec		 mov	 ebp, esp
  00003	83 ec 0c	 sub	 esp, 12			; 0000000cH
  00006	89 4d fc	 mov	 DWORD PTR _this$[ebp], ecx

; 1733 :         return _Mypair._Get_first();

  00009	8b 45 fc	 mov	 eax, DWORD PTR _this$[ebp]
; File C:\Program Files (x86)\Microsoft Visual Studio\2019\Community\VC\Tools\MSVC\14.28.29333\include\xmemory

; 1347 :         return *this;

  0000c	89 45 f8	 mov	 DWORD PTR $T2[ebp], eax
; File C:\Program Files (x86)\Microsoft Visual Studio\2019\Community\VC\Tools\MSVC\14.28.29333\include\vector

; 1733 :         return _Mypair._Get_first();

  0000f	8b 45 f8	 mov	 eax, DWORD PTR $T2[ebp]
  00012	89 45 f4	 mov	 DWORD PTR $T1[ebp], eax

; 1612 :         _Destroy_range(_First, _Last, _Getal());

  00015	ff 75 f4	 push	 DWORD PTR $T1[ebp]
  00018	ff 75 0c	 push	 DWORD PTR __Last$[ebp]
  0001b	ff 75 08	 push	 DWORD PTR __First$[ebp]
  0001e	e8 00 00 00 00	 call	 ??$_Destroy_range@V?$allocator@PAVCSnowParticle@@@std@@@std@@YAXPAPAVCSnowParticle@@QAPAV1@AAV?$allocator@PAVCSnowParticle@@@0@@Z ; std::_Destroy_range<std::allocator<CSnowParticle *> >
  00023	83 c4 0c	 add	 esp, 12			; 0000000cH

; 1613 :     }

  00026	c9		 leave
  00027	c2 08 00	 ret	 8
?_Destroy@?$vector@PAVCSnowParticle@@V?$allocator@PAVCSnowParticle@@@std@@@std@@AAEXPAPAVCSnowParticle@@0@Z ENDP ; std::vector<CSnowParticle *,std::allocator<CSnowParticle *> >::_Destroy
_TEXT	ENDS
; Function compile flags: /Odspy
; File C:\Program Files (x86)\Microsoft Visual Studio\2019\Community\VC\Tools\MSVC\14.28.29333\include\vector
; File C:\Program Files (x86)\Microsoft Visual Studio\2019\Community\VC\Tools\MSVC\14.28.29333\include\xstddef
; File C:\Program Files (x86)\Microsoft Visual Studio\2019\Community\VC\Tools\MSVC\14.28.29333\include\vector
;	COMDAT ?begin@?$vector@PAVCSnowParticle@@V?$allocator@PAVCSnowParticle@@@std@@@std@@QAE?AV?$_Vector_iterator@V?$_Vector_val@U?$_Simple_types@PAVCSnowParticle@@@std@@@std@@@2@XZ
_TEXT	SEGMENT
$T1 = -16						; size = 4
___param0$ = -12					; size = 4
_this$ = -8						; size = 4
__My_data$ = -4						; size = 4
___$ReturnUdt$ = 8					; size = 4
?begin@?$vector@PAVCSnowParticle@@V?$allocator@PAVCSnowParticle@@@std@@@std@@QAE?AV?$_Vector_iterator@V?$_Vector_val@U?$_Simple_types@PAVCSnowParticle@@@std@@@std@@@2@XZ PROC ; std::vector<CSnowParticle *,std::allocator<CSnowParticle *> >::begin, COMDAT
; _this$ = ecx

; 1409 :     _NODISCARD iterator begin() noexcept {

  00000	55		 push	 ebp
  00001	8b ec		 mov	 ebp, esp
  00003	83 ec 10	 sub	 esp, 16			; 00000010H
  00006	89 4d f8	 mov	 DWORD PTR _this$[ebp], ecx

; 1410 :         auto& _My_data = _Mypair._Myval2;

  00009	8b 45 f8	 mov	 eax, DWORD PTR _this$[ebp]
  0000c	89 45 fc	 mov	 DWORD PTR __My_data$[ebp], eax
; File C:\Program Files (x86)\Microsoft Visual Studio\2019\Community\VC\Tools\MSVC\14.28.29333\include\xstddef

; 275  :     return __builtin_addressof(_Val);

  0000f	8b 45 fc	 mov	 eax, DWORD PTR __My_data$[ebp]
  00012	89 45 f0	 mov	 DWORD PTR $T1[ebp], eax
; File C:\Program Files (x86)\Microsoft Visual Studio\2019\Community\VC\Tools\MSVC\14.28.29333\include\vector

; 1411 :         return iterator(_My_data._Myfirst, _STD addressof(_My_data));

  00015	8b 45 fc	 mov	 eax, DWORD PTR __My_data$[ebp]
  00018	8b 00		 mov	 eax, DWORD PTR [eax]
  0001a	89 45 f4	 mov	 DWORD PTR ___param0$[ebp], eax

; 42   :     _Vector_const_iterator(_Tptr _Parg, const _Container_base* _Pvector) noexcept : _Ptr(_Parg) {

  0001d	8b 45 08	 mov	 eax, DWORD PTR ___$ReturnUdt$[ebp]
  00020	8b 4d f4	 mov	 ecx, DWORD PTR ___param0$[ebp]
  00023	89 08		 mov	 DWORD PTR [eax], ecx

; 1411 :         return iterator(_My_data._Myfirst, _STD addressof(_My_data));

  00025	8b 45 08	 mov	 eax, DWORD PTR ___$ReturnUdt$[ebp]

; 1412 :     }

  00028	c9		 leave
  00029	c2 04 00	 ret	 4
?begin@?$vector@PAVCSnowParticle@@V?$allocator@PAVCSnowParticle@@@std@@@std@@QAE?AV?$_Vector_iterator@V?$_Vector_val@U?$_Simple_types@PAVCSnowParticle@@@std@@@std@@@2@XZ ENDP ; std::vector<CSnowParticle *,std::allocator<CSnowParticle *> >::begin
_TEXT	ENDS
; Function compile flags: /Odspy
; File C:\Program Files (x86)\Microsoft Visual Studio\2019\Community\VC\Tools\MSVC\14.28.29333\include\vector
; File C:\Program Files (x86)\Microsoft Visual Studio\2019\Community\VC\Tools\MSVC\14.28.29333\include\xmemory
; File C:\Program Files (x86)\Microsoft Visual Studio\2019\Community\VC\Tools\MSVC\14.28.29333\include\vector
;	COMDAT ?clear@?$vector@PAVCSnowParticle@@V?$allocator@PAVCSnowParticle@@@std@@@std@@QAEXXZ
_TEXT	SEGMENT
__First$ = -32						; size = 4
__Last$ = -28						; size = 4
$T1 = -24						; size = 4
$T2 = -20						; size = 4
__Myfirst$ = -16					; size = 4
__Mylast$ = -12						; size = 4
_this$ = -8						; size = 4
__My_data$ = -4						; size = 4
?clear@?$vector@PAVCSnowParticle@@V?$allocator@PAVCSnowParticle@@@std@@@std@@QAEXXZ PROC ; std::vector<CSnowParticle *,std::allocator<CSnowParticle *> >::clear, COMDAT
; _this$ = ecx

; 1383 :     void clear() noexcept { // erase all

  00000	55		 push	 ebp
  00001	8b ec		 mov	 ebp, esp
  00003	83 ec 20	 sub	 esp, 32			; 00000020H
  00006	89 4d f8	 mov	 DWORD PTR _this$[ebp], ecx

; 1384 :         auto& _My_data    = _Mypair._Myval2;

  00009	8b 45 f8	 mov	 eax, DWORD PTR _this$[ebp]
  0000c	89 45 fc	 mov	 DWORD PTR __My_data$[ebp], eax

; 1385 :         pointer& _Myfirst = _My_data._Myfirst;

  0000f	8b 45 fc	 mov	 eax, DWORD PTR __My_data$[ebp]
  00012	89 45 f0	 mov	 DWORD PTR __Myfirst$[ebp], eax

; 1386 :         pointer& _Mylast  = _My_data._Mylast;

  00015	8b 45 fc	 mov	 eax, DWORD PTR __My_data$[ebp]
  00018	83 c0 04	 add	 eax, 4
  0001b	89 45 f4	 mov	 DWORD PTR __Mylast$[ebp], eax

; 1387 : 
; 1388 :         _My_data._Orphan_all();
; 1389 :         _Destroy(_Myfirst, _Mylast);

  0001e	8b 45 f4	 mov	 eax, DWORD PTR __Mylast$[ebp]
  00021	8b 00		 mov	 eax, DWORD PTR [eax]
  00023	89 45 e4	 mov	 DWORD PTR __Last$[ebp], eax
  00026	8b 45 f0	 mov	 eax, DWORD PTR __Myfirst$[ebp]
  00029	8b 00		 mov	 eax, DWORD PTR [eax]
  0002b	89 45 e0	 mov	 DWORD PTR __First$[ebp], eax

; 1733 :         return _Mypair._Get_first();

  0002e	8b 45 f8	 mov	 eax, DWORD PTR _this$[ebp]
; File C:\Program Files (x86)\Microsoft Visual Studio\2019\Community\VC\Tools\MSVC\14.28.29333\include\xmemory

; 1347 :         return *this;

  00031	89 45 ec	 mov	 DWORD PTR $T2[ebp], eax
; File C:\Program Files (x86)\Microsoft Visual Studio\2019\Community\VC\Tools\MSVC\14.28.29333\include\vector

; 1733 :         return _Mypair._Get_first();

  00034	8b 45 ec	 mov	 eax, DWORD PTR $T2[ebp]
  00037	89 45 e8	 mov	 DWORD PTR $T1[ebp], eax

; 1612 :         _Destroy_range(_First, _Last, _Getal());

  0003a	ff 75 e8	 push	 DWORD PTR $T1[ebp]
  0003d	ff 75 e4	 push	 DWORD PTR __Last$[ebp]
  00040	ff 75 e0	 push	 DWORD PTR __First$[ebp]
  00043	e8 00 00 00 00	 call	 ??$_Destroy_range@V?$allocator@PAVCSnowParticle@@@std@@@std@@YAXPAPAVCSnowParticle@@QAPAV1@AAV?$allocator@PAVCSnowParticle@@@0@@Z ; std::_Destroy_range<std::allocator<CSnowParticle *> >
  00048	83 c4 0c	 add	 esp, 12			; 0000000cH

; 1390 :         _Mylast = _Myfirst;

  0004b	8b 45 f4	 mov	 eax, DWORD PTR __Mylast$[ebp]
  0004e	8b 4d f0	 mov	 ecx, DWORD PTR __Myfirst$[ebp]
  00051	8b 09		 mov	 ecx, DWORD PTR [ecx]
  00053	89 08		 mov	 DWORD PTR [eax], ecx

; 1391 :     }

  00055	c9		 leave
  00056	c3		 ret	 0
?clear@?$vector@PAVCSnowParticle@@V?$allocator@PAVCSnowParticle@@@std@@@std@@QAEXXZ ENDP ; std::vector<CSnowParticle *,std::allocator<CSnowParticle *> >::clear
_TEXT	ENDS
; Function compile flags: /Odspy
; File C:\Program Files (x86)\Microsoft Visual Studio\2019\Community\VC\Tools\MSVC\14.28.29333\include\vector
; File C:\Program Files (x86)\Microsoft Visual Studio\2019\Community\VC\Tools\MSVC\14.28.29333\include\xutility
; File C:\Program Files (x86)\Microsoft Visual Studio\2019\Community\VC\Tools\MSVC\14.28.29333\include\type_traits
; File C:\Program Files (x86)\Microsoft Visual Studio\2019\Community\VC\Tools\MSVC\14.28.29333\include\xutility
; File C:\Program Files (x86)\Microsoft Visual Studio\2019\Community\VC\Tools\MSVC\14.28.29333\include\vector
; File C:\Program Files (x86)\Microsoft Visual Studio\2019\Community\VC\Tools\MSVC\14.28.29333\include\xstddef
; File C:\Program Files (x86)\Microsoft Visual Studio\2019\Community\VC\Tools\MSVC\14.28.29333\include\vector
; File C:\Program Files (x86)\Microsoft Visual Studio\2019\Community\VC\Tools\MSVC\14.28.29333\include\xmemory
; File C:\Program Files (x86)\Microsoft Visual Studio\2019\Community\VC\Tools\MSVC\14.28.29333\include\vector
; File C:\Program Files (x86)\Microsoft Visual Studio\2019\Community\VC\Tools\MSVC\14.28.29333\include\xstddef
; File C:\Program Files (x86)\Microsoft Visual Studio\2019\Community\VC\Tools\MSVC\14.28.29333\include\vector
;	COMDAT ?erase@?$vector@PAVCSnowParticle@@V?$allocator@PAVCSnowParticle@@@std@@@std@@QAE?AV?$_Vector_iterator@V?$_Vector_val@U?$_Simple_types@PAVCSnowParticle@@@std@@@std@@@2@V?$_Vector_const_iterator@V?$_Vector_val@U?$_Simple_types@PAVCSnowParticle@@@std@@@std@@@2@@Z
_TEXT	SEGMENT
$T2 = -64						; size = 4
$T3 = -60						; size = 4
$T4 = -56						; size = 4
$T5 = -52						; size = 4
__Ptr$ = -48						; size = 4
$T6 = -44						; size = 4
__My_data$ = -40					; size = 4
_this$ = -36						; size = 4
__Last$ = -32						; size = 4
__Whereptr$ = -28					; size = 4
__Mylast$ = -24						; size = 4
__Dest$ = -20						; size = 4
__First$ = -16						; size = 4
__$EHRec$ = -12						; size = 12
___$ReturnUdt$ = 8					; size = 4
__Where$ = 12						; size = 4
?erase@?$vector@PAVCSnowParticle@@V?$allocator@PAVCSnowParticle@@@std@@@std@@QAE?AV?$_Vector_iterator@V?$_Vector_val@U?$_Simple_types@PAVCSnowParticle@@@std@@@std@@@2@V?$_Vector_const_iterator@V?$_Vector_val@U?$_Simple_types@PAVCSnowParticle@@@std@@@std@@@2@@Z PROC ; std::vector<CSnowParticle *,std::allocator<CSnowParticle *> >::erase, COMDAT
; _this$ = ecx

; 1341 :     iterator erase(const_iterator _Where) noexcept(is_nothrow_move_assignable_v<value_type>) /* strengthened */ {

  00000	55		 push	 ebp
  00001	8b ec		 mov	 ebp, esp
  00003	6a ff		 push	 -1
  00005	68 00 00 00 00	 push	 __ehhandler$?erase@?$vector@PAVCSnowParticle@@V?$allocator@PAVCSnowParticle@@@std@@@std@@QAE?AV?$_Vector_iterator@V?$_Vector_val@U?$_Simple_types@PAVCSnowParticle@@@std@@@std@@@2@V?$_Vector_const_iterator@V?$_Vector_val@U?$_Simple_types@PAVCSnowParticle@@@std@@@std@@@2@@Z
  0000a	64 a1 00 00 00
	00		 mov	 eax, DWORD PTR fs:0
  00010	50		 push	 eax
  00011	83 ec 34	 sub	 esp, 52			; 00000034H
  00014	a1 00 00 00 00	 mov	 eax, DWORD PTR ___security_cookie
  00019	33 c5		 xor	 eax, ebp
  0001b	50		 push	 eax
  0001c	8d 45 f4	 lea	 eax, DWORD PTR __$EHRec$[ebp]
  0001f	64 a3 00 00 00
	00		 mov	 DWORD PTR fs:0, eax
  00025	89 4d dc	 mov	 DWORD PTR _this$[ebp], ecx

; 1342 :         const pointer _Whereptr = _Where._Ptr;

  00028	8b 45 0c	 mov	 eax, DWORD PTR __Where$[ebp]
  0002b	89 45 e4	 mov	 DWORD PTR __Whereptr$[ebp], eax

; 1343 :         auto& _My_data          = _Mypair._Myval2;

  0002e	8b 45 dc	 mov	 eax, DWORD PTR _this$[ebp]
  00031	89 45 d8	 mov	 DWORD PTR __My_data$[ebp], eax

; 1344 :         pointer& _Mylast        = _My_data._Mylast;

  00034	8b 45 d8	 mov	 eax, DWORD PTR __My_data$[ebp]
  00037	83 c0 04	 add	 eax, 4
  0003a	89 45 e8	 mov	 DWORD PTR __Mylast$[ebp], eax

; 1345 : 
; 1346 : #if _ITERATOR_DEBUG_LEVEL == 2
; 1347 :         _STL_VERIFY(
; 1348 :             _Where._Getcont() == _STD addressof(_My_data) && _Whereptr >= _My_data._Myfirst && _Mylast > _Whereptr,
; 1349 :             "vector erase iterator outside range");
; 1350 :         _Orphan_range(_Whereptr, _Mylast);
; 1351 : #endif // _ITERATOR_DEBUG_LEVEL == 2
; 1352 : 
; 1353 :         _Move_unchecked(_Whereptr + 1, _Mylast, _Whereptr);

  0003d	8b 45 e4	 mov	 eax, DWORD PTR __Whereptr$[ebp]
  00040	89 45 ec	 mov	 DWORD PTR __Dest$[ebp], eax
  00043	8b 45 e8	 mov	 eax, DWORD PTR __Mylast$[ebp]
  00046	8b 00		 mov	 eax, DWORD PTR [eax]
  00048	89 45 e0	 mov	 DWORD PTR __Last$[ebp], eax
  0004b	8b 45 e4	 mov	 eax, DWORD PTR __Whereptr$[ebp]
  0004e	83 c0 04	 add	 eax, 4
  00051	89 45 f0	 mov	 DWORD PTR __First$[ebp], eax
; File C:\Program Files (x86)\Microsoft Visual Studio\2019\Community\VC\Tools\MSVC\14.28.29333\include\xutility

; 4628 :             return _Copy_memmove(_First, _Last, _Dest);

  00054	ff 75 ec	 push	 DWORD PTR __Dest$[ebp]
  00057	ff 75 e0	 push	 DWORD PTR __Last$[ebp]
  0005a	ff 75 f0	 push	 DWORD PTR __First$[ebp]
  0005d	e8 00 00 00 00	 call	 ??$_Copy_memmove@PAPAVCSnowParticle@@PAPAV1@@std@@YAPAPAVCSnowParticle@@PAPAV1@00@Z ; std::_Copy_memmove<CSnowParticle * *,CSnowParticle * *>
  00062	83 c4 0c	 add	 esp, 12			; 0000000cH
  00065	eb 2e		 jmp	 SHORT $LN3@erase

; 4629 :         }
; 4630 :     }
; 4631 : 
; 4632 :     for (; _First != _Last; ++_Dest, (void) ++_First) {

  00067	eb 12		 jmp	 SHORT $LN6@erase
$LN4@erase:
  00069	8b 45 ec	 mov	 eax, DWORD PTR __Dest$[ebp]
  0006c	83 c0 04	 add	 eax, 4
  0006f	89 45 ec	 mov	 DWORD PTR __Dest$[ebp], eax
  00072	8b 45 f0	 mov	 eax, DWORD PTR __First$[ebp]
  00075	83 c0 04	 add	 eax, 4
  00078	89 45 f0	 mov	 DWORD PTR __First$[ebp], eax
$LN6@erase:
  0007b	8b 45 f0	 mov	 eax, DWORD PTR __First$[ebp]
  0007e	3b 45 e0	 cmp	 eax, DWORD PTR __Last$[ebp]
  00081	74 12		 je	 SHORT $LN3@erase
; File C:\Program Files (x86)\Microsoft Visual Studio\2019\Community\VC\Tools\MSVC\14.28.29333\include\type_traits

; 1455 :     return static_cast<remove_reference_t<_Ty>&&>(_Arg);

  00083	8b 45 f0	 mov	 eax, DWORD PTR __First$[ebp]
  00086	89 45 d4	 mov	 DWORD PTR $T6[ebp], eax
; File C:\Program Files (x86)\Microsoft Visual Studio\2019\Community\VC\Tools\MSVC\14.28.29333\include\xutility

; 4633 :         *_Dest = _STD move(*_First);

  00089	8b 45 ec	 mov	 eax, DWORD PTR __Dest$[ebp]
  0008c	8b 4d d4	 mov	 ecx, DWORD PTR $T6[ebp]
  0008f	8b 09		 mov	 ecx, DWORD PTR [ecx]
  00091	89 08		 mov	 DWORD PTR [eax], ecx

; 4634 :     }

  00093	eb d4		 jmp	 SHORT $LN4@erase
$LN3@erase:
; File C:\Program Files (x86)\Microsoft Visual Studio\2019\Community\VC\Tools\MSVC\14.28.29333\include\vector

; 1354 :         _Alty_traits::destroy(_Getal(), _Unfancy(_Mylast - 1));

  00095	8b 45 e8	 mov	 eax, DWORD PTR __Mylast$[ebp]
  00098	8b 00		 mov	 eax, DWORD PTR [eax]
  0009a	83 e8 04	 sub	 eax, 4
  0009d	89 45 d0	 mov	 DWORD PTR __Ptr$[ebp], eax
; File C:\Program Files (x86)\Microsoft Visual Studio\2019\Community\VC\Tools\MSVC\14.28.29333\include\xstddef

; 289  :     return _Ptr;

  000a0	8b 45 d0	 mov	 eax, DWORD PTR __Ptr$[ebp]
  000a3	89 45 c8	 mov	 DWORD PTR $T4[ebp], eax
; File C:\Program Files (x86)\Microsoft Visual Studio\2019\Community\VC\Tools\MSVC\14.28.29333\include\vector

; 1733 :         return _Mypair._Get_first();

  000a6	8b 45 dc	 mov	 eax, DWORD PTR _this$[ebp]
; File C:\Program Files (x86)\Microsoft Visual Studio\2019\Community\VC\Tools\MSVC\14.28.29333\include\xmemory

; 1347 :         return *this;

  000a9	89 45 cc	 mov	 DWORD PTR $T5[ebp], eax
; File C:\Program Files (x86)\Microsoft Visual Studio\2019\Community\VC\Tools\MSVC\14.28.29333\include\vector

; 1733 :         return _Mypair._Get_first();

  000ac	8b 45 cc	 mov	 eax, DWORD PTR $T5[ebp]
  000af	89 45 c4	 mov	 DWORD PTR $T3[ebp], eax

; 1355 :         --_Mylast;

  000b2	8b 45 e8	 mov	 eax, DWORD PTR __Mylast$[ebp]
  000b5	8b 00		 mov	 eax, DWORD PTR [eax]
  000b7	83 e8 04	 sub	 eax, 4
  000ba	8b 4d e8	 mov	 ecx, DWORD PTR __Mylast$[ebp]
  000bd	89 01		 mov	 DWORD PTR [ecx], eax
; File C:\Program Files (x86)\Microsoft Visual Studio\2019\Community\VC\Tools\MSVC\14.28.29333\include\xstddef

; 275  :     return __builtin_addressof(_Val);

  000bf	8b 45 d8	 mov	 eax, DWORD PTR __My_data$[ebp]
  000c2	89 45 c0	 mov	 DWORD PTR $T2[ebp], eax
; File C:\Program Files (x86)\Microsoft Visual Studio\2019\Community\VC\Tools\MSVC\14.28.29333\include\vector

; 42   :     _Vector_const_iterator(_Tptr _Parg, const _Container_base* _Pvector) noexcept : _Ptr(_Parg) {

  000c5	8b 45 08	 mov	 eax, DWORD PTR ___$ReturnUdt$[ebp]
  000c8	8b 4d e4	 mov	 ecx, DWORD PTR __Whereptr$[ebp]
  000cb	89 08		 mov	 DWORD PTR [eax], ecx

; 1356 :         return iterator(_Whereptr, _STD addressof(_My_data));

  000cd	8b 45 08	 mov	 eax, DWORD PTR ___$ReturnUdt$[ebp]

; 1357 :     }

  000d0	8b 4d f4	 mov	 ecx, DWORD PTR __$EHRec$[ebp]
  000d3	64 89 0d 00 00
	00 00		 mov	 DWORD PTR fs:0, ecx
  000da	59		 pop	 ecx
  000db	c9		 leave
  000dc	c2 08 00	 ret	 8
  000df	cc		 int	 3
  000e0	cc		 int	 3
  000e1	cc		 int	 3
  000e2	cc		 int	 3
  000e3	cc		 int	 3
_TEXT	ENDS
;	COMDAT text$x
text$x	SEGMENT
__ehhandler$?erase@?$vector@PAVCSnowParticle@@V?$allocator@PAVCSnowParticle@@@std@@@std@@QAE?AV?$_Vector_iterator@V?$_Vector_val@U?$_Simple_types@PAVCSnowParticle@@@std@@@std@@@2@V?$_Vector_const_iterator@V?$_Vector_val@U?$_Simple_types@PAVCSnowParticle@@@std@@@std@@@2@@Z:
  00000	90		 npad	 1
  00001	90		 npad	 1
  00002	8b 54 24 08	 mov	 edx, DWORD PTR [esp+8]
  00006	8d 42 0c	 lea	 eax, DWORD PTR [edx+12]
  00009	8b 4a c8	 mov	 ecx, DWORD PTR [edx-56]
  0000c	33 c8		 xor	 ecx, eax
  0000e	e8 00 00 00 00	 call	 @__security_check_cookie@4
  00013	b8 00 00 00 00	 mov	 eax, OFFSET __ehfuncinfo$?erase@?$vector@PAVCSnowParticle@@V?$allocator@PAVCSnowParticle@@@std@@@std@@QAE?AV?$_Vector_iterator@V?$_Vector_val@U?$_Simple_types@PAVCSnowParticle@@@std@@@std@@@2@V?$_Vector_const_iterator@V?$_Vector_val@U?$_Simple_types@PAVCSnowParticle@@@std@@@std@@@2@@Z
  00018	e9 00 00 00 00	 jmp	 ___CxxFrameHandler3
text$x	ENDS
?erase@?$vector@PAVCSnowParticle@@V?$allocator@PAVCSnowParticle@@@std@@@std@@QAE?AV?$_Vector_iterator@V?$_Vector_val@U?$_Simple_types@PAVCSnowParticle@@@std@@@std@@@2@V?$_Vector_const_iterator@V?$_Vector_val@U?$_Simple_types@PAVCSnowParticle@@@std@@@std@@@2@@Z ENDP ; std::vector<CSnowParticle *,std::allocator<CSnowParticle *> >::erase
; Function compile flags: /Odspy
; File C:\Program Files (x86)\Microsoft Visual Studio\2019\Community\VC\Tools\MSVC\14.28.29333\include\vector
; File C:\Program Files (x86)\Microsoft Visual Studio\2019\Community\VC\Tools\MSVC\14.28.29333\include\xmemory
; File C:\Program Files (x86)\Microsoft Visual Studio\2019\Community\VC\Tools\MSVC\14.28.29333\include\vector
; File C:\Program Files (x86)\Microsoft Visual Studio\2019\Community\VC\Tools\MSVC\14.28.29333\include\xmemory
; File C:\Program Files (x86)\Microsoft Visual Studio\2019\Community\VC\Tools\MSVC\14.28.29333\include\limits
; File C:\Program Files (x86)\Microsoft Visual Studio\2019\Community\VC\Tools\MSVC\14.28.29333\include\vector
; File C:\Program Files (x86)\Microsoft Visual Studio\2019\Community\VC\Tools\MSVC\14.28.29333\include\utility
; File C:\Program Files (x86)\Microsoft Visual Studio\2019\Community\VC\Tools\MSVC\14.28.29333\include\vector
;	COMDAT ?reserve@?$vector@PAVCSnowParticle@@V?$allocator@PAVCSnowParticle@@@std@@@std@@QAEXI@Z
_TEXT	SEGMENT
$T1 = -48						; size = 4
$T2 = -44						; size = 4
$T3 = -40						; size = 4
$T4 = -36						; size = 4
$T5 = -32						; size = 4
$T6 = -28						; size = 4
$T7 = -24						; size = 4
tv81 = -20						; size = 4
$T8 = -16						; size = 4
$T9 = -12						; size = 4
__My_data$10 = -8					; size = 4
_this$ = -4						; size = 4
__Newcapacity$ = 8					; size = 4
?reserve@?$vector@PAVCSnowParticle@@V?$allocator@PAVCSnowParticle@@@std@@@std@@QAEXI@Z PROC ; std::vector<CSnowParticle *,std::allocator<CSnowParticle *> >::reserve, COMDAT
; _this$ = ecx

; 1304 :     void reserve(_CRT_GUARDOVERFLOW const size_type _Newcapacity) {

  00000	55		 push	 ebp
  00001	8b ec		 mov	 ebp, esp
  00003	83 ec 30	 sub	 esp, 48			; 00000030H
  00006	89 4d fc	 mov	 DWORD PTR _this$[ebp], ecx

; 1493 :         auto& _My_data = _Mypair._Myval2;

  00009	8b 45 fc	 mov	 eax, DWORD PTR _this$[ebp]
  0000c	89 45 f8	 mov	 DWORD PTR __My_data$10[ebp], eax

; 1494 :         return static_cast<size_type>(_My_data._Myend - _My_data._Myfirst);

  0000f	8b 45 f8	 mov	 eax, DWORD PTR __My_data$10[ebp]
  00012	8b 4d f8	 mov	 ecx, DWORD PTR __My_data$10[ebp]
  00015	8b 40 08	 mov	 eax, DWORD PTR [eax+8]
  00018	2b 01		 sub	 eax, DWORD PTR [ecx]
  0001a	c1 f8 02	 sar	 eax, 2
  0001d	89 45 e8	 mov	 DWORD PTR $T7[ebp], eax

; 1305 :         // increase capacity to _Newcapacity (without geometric growth), provide strong guarantee
; 1306 :         if (_Newcapacity > capacity()) { // something to do (reserve() never shrinks)

  00020	8b 45 08	 mov	 eax, DWORD PTR __Newcapacity$[ebp]
  00023	3b 45 e8	 cmp	 eax, DWORD PTR $T7[ebp]
  00026	76 62		 jbe	 SHORT $LN4@reserve

; 1737 :         return _Mypair._Get_first();

  00028	8b 45 fc	 mov	 eax, DWORD PTR _this$[ebp]
; File C:\Program Files (x86)\Microsoft Visual Studio\2019\Community\VC\Tools\MSVC\14.28.29333\include\xmemory

; 1351 :         return *this;

  0002b	89 45 e4	 mov	 DWORD PTR $T6[ebp], eax
; File C:\Program Files (x86)\Microsoft Visual Studio\2019\Community\VC\Tools\MSVC\14.28.29333\include\vector

; 1737 :         return _Mypair._Get_first();

  0002e	8b 45 e4	 mov	 eax, DWORD PTR $T6[ebp]
  00031	89 45 d0	 mov	 DWORD PTR $T1[ebp], eax
; File C:\Program Files (x86)\Microsoft Visual Studio\2019\Community\VC\Tools\MSVC\14.28.29333\include\xmemory

; 710  :         return static_cast<size_t>(-1) / sizeof(value_type);

  00034	c7 45 f4 ff ff
	ff 3f		 mov	 DWORD PTR $T9[ebp], 1073741823 ; 3fffffffH
; File C:\Program Files (x86)\Microsoft Visual Studio\2019\Community\VC\Tools\MSVC\14.28.29333\include\limits

; 557  :         return INT_MAX;

  0003b	c7 45 e0 ff ff
	ff 7f		 mov	 DWORD PTR $T5[ebp], 2147483647 ; 7fffffffH
; File C:\Program Files (x86)\Microsoft Visual Studio\2019\Community\VC\Tools\MSVC\14.28.29333\include\vector

; 1488 :         return (_STD min)(

  00042	8b 45 e0	 mov	 eax, DWORD PTR $T5[ebp]
  00045	89 45 f0	 mov	 DWORD PTR $T8[ebp], eax
; File C:\Program Files (x86)\Microsoft Visual Studio\2019\Community\VC\Tools\MSVC\14.28.29333\include\utility

; 68   :     return _Right < _Left ? _Right : _Left;

  00048	8b 45 f4	 mov	 eax, DWORD PTR $T9[ebp]
  0004b	3b 45 f0	 cmp	 eax, DWORD PTR $T8[ebp]
  0004e	73 08		 jae	 SHORT $LN25@reserve
  00050	8d 45 f4	 lea	 eax, DWORD PTR $T9[ebp]
  00053	89 45 ec	 mov	 DWORD PTR tv81[ebp], eax
  00056	eb 06		 jmp	 SHORT $LN26@reserve
$LN25@reserve:
  00058	8d 45 f0	 lea	 eax, DWORD PTR $T8[ebp]
  0005b	89 45 ec	 mov	 DWORD PTR tv81[ebp], eax
$LN26@reserve:
  0005e	8b 45 ec	 mov	 eax, DWORD PTR tv81[ebp]
  00061	89 45 dc	 mov	 DWORD PTR $T4[ebp], eax
  00064	8b 45 dc	 mov	 eax, DWORD PTR $T4[ebp]
  00067	89 45 d8	 mov	 DWORD PTR $T3[ebp], eax
; File C:\Program Files (x86)\Microsoft Visual Studio\2019\Community\VC\Tools\MSVC\14.28.29333\include\vector

; 1488 :         return (_STD min)(

  0006a	8b 45 d8	 mov	 eax, DWORD PTR $T3[ebp]
  0006d	8b 00		 mov	 eax, DWORD PTR [eax]
  0006f	89 45 d4	 mov	 DWORD PTR $T2[ebp], eax

; 1307 :             if (_Newcapacity > max_size()) {

  00072	8b 45 08	 mov	 eax, DWORD PTR __Newcapacity$[ebp]
  00075	3b 45 d4	 cmp	 eax, DWORD PTR $T2[ebp]
  00078	76 05		 jbe	 SHORT $LN3@reserve

; 1308 :                 _Xlength();

  0007a	e8 00 00 00 00	 call	 ?_Xlength@?$vector@PAVCSnowParticle@@V?$allocator@PAVCSnowParticle@@@std@@@std@@CAXXZ ; std::vector<CSnowParticle *,std::allocator<CSnowParticle *> >::_Xlength
$LN3@reserve:

; 1309 :             }
; 1310 : 
; 1311 :             _Reallocate_exactly(_Newcapacity);

  0007f	ff 75 08	 push	 DWORD PTR __Newcapacity$[ebp]
  00082	8b 4d fc	 mov	 ecx, DWORD PTR _this$[ebp]
  00085	e8 00 00 00 00	 call	 ?_Reallocate_exactly@?$vector@PAVCSnowParticle@@V?$allocator@PAVCSnowParticle@@@std@@@std@@AAEXI@Z ; std::vector<CSnowParticle *,std::allocator<CSnowParticle *> >::_Reallocate_exactly
$LN4@reserve:

; 1312 :         }
; 1313 :     }

  0008a	c9		 leave
  0008b	c2 04 00	 ret	 4
?reserve@?$vector@PAVCSnowParticle@@V?$allocator@PAVCSnowParticle@@@std@@@std@@QAEXI@Z ENDP ; std::vector<CSnowParticle *,std::allocator<CSnowParticle *> >::reserve
_TEXT	ENDS
; Function compile flags: /Odspy
; File C:\Program Files (x86)\Microsoft Visual Studio\2019\Community\VC\Tools\MSVC\14.28.29333\include\vector
; File C:\Program Files (x86)\Microsoft Visual Studio\2019\Community\VC\Tools\MSVC\14.28.29333\include\xmemory
; File C:\Program Files (x86)\Microsoft Visual Studio\2019\Community\VC\Tools\MSVC\14.28.29333\include\vector
; File C:\Program Files (x86)\Microsoft Visual Studio\2019\Community\VC\Tools\MSVC\14.28.29333\include\xmemory
; File C:\Program Files (x86)\Microsoft Visual Studio\2019\Community\VC\Tools\MSVC\14.28.29333\include\vector
; File C:\Program Files (x86)\Microsoft Visual Studio\2019\Community\VC\Tools\MSVC\14.28.29333\include\xmemory
; File C:\Program Files (x86)\Microsoft Visual Studio\2019\Community\VC\Tools\MSVC\14.28.29333\include\vector
;	COMDAT ?_Reallocate_exactly@?$vector@PAVCSnowParticle@@V?$allocator@PAVCSnowParticle@@@std@@@std@@AAEXI@Z
_TEXT	SEGMENT
__Max_possible$2 = -80					; size = 4
$T3 = -76						; size = 4
__Size$ = -72						; size = 4
__First$ = -68						; size = 4
__Last$ = -64						; size = 4
$T4 = -60						; size = 4
$T5 = -56						; size = 4
$T6 = -52						; size = 4
$T7 = -48						; size = 4
__Myfirst$ = -44					; size = 4
__Mylast$ = -40						; size = 4
__My_data$ = -36					; size = 4
__Newvec$ = -32						; size = 4
_this$ = -28						; size = 4
___formal$ = -24					; size = 1
__Overflow_is_possible$8 = -18				; size = 1
$T9 = -17						; size = 1
__$EHRec$ = -16						; size = 16
__Newcapacity$ = 8					; size = 4
?_Reallocate_exactly@?$vector@PAVCSnowParticle@@V?$allocator@PAVCSnowParticle@@@std@@@std@@AAEXI@Z PROC ; std::vector<CSnowParticle *,std::allocator<CSnowParticle *> >::_Reallocate_exactly, COMDAT
; _this$ = ecx

; 1251 :     void _Reallocate_exactly(const size_type _Newcapacity) {

  00000	55		 push	 ebp
  00001	8b ec		 mov	 ebp, esp
  00003	6a ff		 push	 -1
  00005	68 00 00 00 00	 push	 __ehhandler$?_Reallocate_exactly@?$vector@PAVCSnowParticle@@V?$allocator@PAVCSnowParticle@@@std@@@std@@AAEXI@Z
  0000a	64 a1 00 00 00
	00		 mov	 eax, DWORD PTR fs:0
  00010	50		 push	 eax
  00011	51		 push	 ecx
  00012	83 ec 40	 sub	 esp, 64			; 00000040H
  00015	53		 push	 ebx
  00016	56		 push	 esi
  00017	57		 push	 edi
  00018	a1 00 00 00 00	 mov	 eax, DWORD PTR ___security_cookie
  0001d	33 c5		 xor	 eax, ebp
  0001f	50		 push	 eax
  00020	8d 45 f4	 lea	 eax, DWORD PTR __$EHRec$[ebp+4]
  00023	64 a3 00 00 00
	00		 mov	 DWORD PTR fs:0, eax
  00029	89 65 f0	 mov	 DWORD PTR __$EHRec$[ebp], esp
  0002c	89 4d e4	 mov	 DWORD PTR _this$[ebp], ecx

; 1252 :         // set capacity to _Newcapacity (without geometric growth), provide strong guarantee
; 1253 :         auto& _My_data    = _Mypair._Myval2;

  0002f	8b 45 e4	 mov	 eax, DWORD PTR _this$[ebp]
  00032	89 45 dc	 mov	 DWORD PTR __My_data$[ebp], eax

; 1254 :         pointer& _Myfirst = _My_data._Myfirst;

  00035	8b 45 dc	 mov	 eax, DWORD PTR __My_data$[ebp]
  00038	89 45 d4	 mov	 DWORD PTR __Myfirst$[ebp], eax

; 1255 :         pointer& _Mylast  = _My_data._Mylast;

  0003b	8b 45 dc	 mov	 eax, DWORD PTR __My_data$[ebp]
  0003e	83 c0 04	 add	 eax, 4
  00041	89 45 d8	 mov	 DWORD PTR __Mylast$[ebp], eax

; 1256 : 
; 1257 :         const auto _Size = static_cast<size_type>(_Mylast - _Myfirst);

  00044	8b 45 d8	 mov	 eax, DWORD PTR __Mylast$[ebp]
  00047	8b 4d d4	 mov	 ecx, DWORD PTR __Myfirst$[ebp]
  0004a	8b 00		 mov	 eax, DWORD PTR [eax]
  0004c	2b 01		 sub	 eax, DWORD PTR [ecx]
  0004e	c1 f8 02	 sar	 eax, 2
  00051	89 45 b8	 mov	 DWORD PTR __Size$[ebp], eax

; 1733 :         return _Mypair._Get_first();

  00054	8b 45 e4	 mov	 eax, DWORD PTR _this$[ebp]
; File C:\Program Files (x86)\Microsoft Visual Studio\2019\Community\VC\Tools\MSVC\14.28.29333\include\xmemory

; 1347 :         return *this;

  00057	89 45 d0	 mov	 DWORD PTR $T7[ebp], eax
; File C:\Program Files (x86)\Microsoft Visual Studio\2019\Community\VC\Tools\MSVC\14.28.29333\include\vector

; 1733 :         return _Mypair._Get_first();

  0005a	8b 45 d0	 mov	 eax, DWORD PTR $T7[ebp]
  0005d	89 45 b4	 mov	 DWORD PTR $T3[ebp], eax
; File C:\Program Files (x86)\Microsoft Visual Studio\2019\Community\VC\Tools\MSVC\14.28.29333\include\xmemory

; 56   :     constexpr bool _Overflow_is_possible = _Ty_size > 1;

  00060	c6 45 ee 01	 mov	 BYTE PTR __Overflow_is_possible$8[ebp], 1

; 57   : 
; 58   :     if _CONSTEXPR_IF (_Overflow_is_possible) {
; 59   :         constexpr size_t _Max_possible = static_cast<size_t>(-1) / _Ty_size;

  00064	c7 45 b0 ff ff
	ff 3f		 mov	 DWORD PTR __Max_possible$2[ebp], 1073741823 ; 3fffffffH

; 60   :         if (_Count > _Max_possible) {

  0006b	81 7d 08 ff ff
	ff 3f		 cmp	 DWORD PTR __Newcapacity$[ebp], 1073741823 ; 3fffffffH
  00072	76 05		 jbe	 SHORT $LN17@Reallocate

; 61   :             _Throw_bad_array_new_length(); // multiply overflow

  00074	e8 00 00 00 00	 call	 ?_Throw_bad_array_new_length@std@@YAXXZ ; std::_Throw_bad_array_new_length
$LN17@Reallocate:

; 62   :         }
; 63   :     }
; 64   : 
; 65   :     return _Count * _Ty_size;

  00079	8b 45 08	 mov	 eax, DWORD PTR __Newcapacity$[ebp]
  0007c	c1 e0 02	 shl	 eax, 2
  0007f	89 45 cc	 mov	 DWORD PTR $T6[ebp], eax

; 814  :         return static_cast<_Ty*>(_Allocate<_New_alignof<_Ty>>(_Get_size_of_n<sizeof(_Ty)>(_Count)));

  00082	ff 75 cc	 push	 DWORD PTR $T6[ebp]
  00085	e8 00 00 00 00	 call	 ??$_Allocate@$07U_Default_allocate_traits@std@@$0A@@std@@YAPAXI@Z ; std::_Allocate<8,std::_Default_allocate_traits,0>
  0008a	59		 pop	 ecx
  0008b	89 45 e0	 mov	 DWORD PTR __Newvec$[ebp], eax
; File C:\Program Files (x86)\Microsoft Visual Studio\2019\Community\VC\Tools\MSVC\14.28.29333\include\vector

; 1261 :         _TRY_BEGIN

  0008e	83 65 fc 00	 and	 DWORD PTR __$EHRec$[ebp+12], 0

; 1262 :         _Umove_if_noexcept(_Myfirst, _Mylast, _Newvec);

  00092	8b 45 d8	 mov	 eax, DWORD PTR __Mylast$[ebp]
  00095	8b 00		 mov	 eax, DWORD PTR [eax]
  00097	89 45 c0	 mov	 DWORD PTR __Last$[ebp], eax
  0009a	8b 45 d4	 mov	 eax, DWORD PTR __Myfirst$[ebp]
  0009d	8b 00		 mov	 eax, DWORD PTR [eax]
  0009f	89 45 bc	 mov	 DWORD PTR __First$[ebp], eax

; 1607 :         _Umove_if_noexcept1(_First, _Last, _Dest,

  000a2	33 c0		 xor	 eax, eax
  000a4	88 45 ef	 mov	 BYTE PTR $T9[ebp], al
  000a7	8a 45 ef	 mov	 al, BYTE PTR $T9[ebp]
  000aa	88 45 e8	 mov	 BYTE PTR ___formal$[ebp], al

; 1733 :         return _Mypair._Get_first();

  000ad	8b 45 e4	 mov	 eax, DWORD PTR _this$[ebp]
; File C:\Program Files (x86)\Microsoft Visual Studio\2019\Community\VC\Tools\MSVC\14.28.29333\include\xmemory

; 1347 :         return *this;

  000b0	89 45 c8	 mov	 DWORD PTR $T5[ebp], eax
; File C:\Program Files (x86)\Microsoft Visual Studio\2019\Community\VC\Tools\MSVC\14.28.29333\include\vector

; 1733 :         return _Mypair._Get_first();

  000b3	8b 45 c8	 mov	 eax, DWORD PTR $T5[ebp]
  000b6	89 45 c4	 mov	 DWORD PTR $T4[ebp], eax

; 1597 :         _Uninitialized_move(_First, _Last, _Dest, _Getal());

  000b9	ff 75 c4	 push	 DWORD PTR $T4[ebp]
  000bc	ff 75 e0	 push	 DWORD PTR __Newvec$[ebp]
  000bf	ff 75 c0	 push	 DWORD PTR __Last$[ebp]
  000c2	ff 75 bc	 push	 DWORD PTR __First$[ebp]
  000c5	e8 00 00 00 00	 call	 ??$_Uninitialized_move@PAPAVCSnowParticle@@V?$allocator@PAVCSnowParticle@@@std@@@std@@YAPAPAVCSnowParticle@@QAPAV1@0PAPAV1@AAV?$allocator@PAVCSnowParticle@@@0@@Z ; std::_Uninitialized_move<CSnowParticle * *,std::allocator<CSnowParticle *> >
  000ca	83 c4 10	 add	 esp, 16			; 00000010H

; 1262 :         _Umove_if_noexcept(_Myfirst, _Mylast, _Newvec);

  000cd	eb 24		 jmp	 SHORT $LN4@Reallocate
__catch$?_Reallocate_exactly@?$vector@PAVCSnowParticle@@V?$allocator@PAVCSnowParticle@@@std@@@std@@AAEXI@Z$0:

; 1263 :         _CATCH_ALL
; 1264 :         _Getal().deallocate(_Newvec, _Newcapacity);

  000cf	ff 75 08	 push	 DWORD PTR __Newcapacity$[ebp]
  000d2	ff 75 e0	 push	 DWORD PTR __Newvec$[ebp]
  000d5	8b 4d e4	 mov	 ecx, DWORD PTR _this$[ebp]
  000d8	e8 00 00 00 00	 call	 ?_Getal@?$vector@PAVCSnowParticle@@V?$allocator@PAVCSnowParticle@@@std@@@std@@AAEAAV?$allocator@PAVCSnowParticle@@@2@XZ ; std::vector<CSnowParticle *,std::allocator<CSnowParticle *> >::_Getal
  000dd	8b c8		 mov	 ecx, eax
  000df	e8 00 00 00 00	 call	 ?deallocate@?$allocator@PAVCSnowParticle@@@std@@QAEXQAPAVCSnowParticle@@I@Z ; std::allocator<CSnowParticle *>::deallocate

; 1265 :         _RERAISE;

  000e4	6a 00		 push	 0
  000e6	6a 00		 push	 0
  000e8	e8 00 00 00 00	 call	 __CxxThrowException@8

; 1266 :         _CATCH_END

  000ed	b8 00 00 00 00	 mov	 eax, $LN7@Reallocate
  000f2	c3		 ret	 0
$LN4@Reallocate:
  000f3	83 4d fc ff	 or	 DWORD PTR __$EHRec$[ebp+12], -1
  000f7	eb 04		 jmp	 SHORT __tryend$?_Reallocate_exactly@?$vector@PAVCSnowParticle@@V?$allocator@PAVCSnowParticle@@@std@@@std@@AAEXI@Z$1
$LN7@Reallocate:
; File C:\Program Files (x86)\Microsoft Visual Studio\2019\Community\VC\Tools\MSVC\14.28.29333\include\xmemory
  000f9	83 4d fc ff	 or	 DWORD PTR __$EHRec$[ebp+12], -1
__tryend$?_Reallocate_exactly@?$vector@PAVCSnowParticle@@V?$allocator@PAVCSnowParticle@@@std@@@std@@AAEXI@Z$1:
; File C:\Program Files (x86)\Microsoft Visual Studio\2019\Community\VC\Tools\MSVC\14.28.29333\include\vector

; 1267 : 
; 1268 :         _Change_array(_Newvec, _Size, _Newcapacity);

  000fd	ff 75 08	 push	 DWORD PTR __Newcapacity$[ebp]
  00100	ff 75 b8	 push	 DWORD PTR __Size$[ebp]
  00103	ff 75 e0	 push	 DWORD PTR __Newvec$[ebp]
  00106	8b 4d e4	 mov	 ecx, DWORD PTR _this$[ebp]
  00109	e8 00 00 00 00	 call	 ?_Change_array@?$vector@PAVCSnowParticle@@V?$allocator@PAVCSnowParticle@@@std@@@std@@AAEXQAPAVCSnowParticle@@II@Z ; std::vector<CSnowParticle *,std::allocator<CSnowParticle *> >::_Change_array
$LN20@Reallocate:

; 1269 :     }

  0010e	8b 4d f4	 mov	 ecx, DWORD PTR __$EHRec$[ebp+4]
  00111	64 89 0d 00 00
	00 00		 mov	 DWORD PTR fs:0, ecx
  00118	59		 pop	 ecx
  00119	5f		 pop	 edi
  0011a	5e		 pop	 esi
  0011b	5b		 pop	 ebx
  0011c	c9		 leave
  0011d	c2 04 00	 ret	 4
  00120	cc		 int	 3
  00121	cc		 int	 3
  00122	cc		 int	 3
  00123	cc		 int	 3
  00124	cc		 int	 3
_TEXT	ENDS
;	COMDAT text$x
text$x	SEGMENT
__ehhandler$?_Reallocate_exactly@?$vector@PAVCSnowParticle@@V?$allocator@PAVCSnowParticle@@@std@@@std@@AAEXI@Z:
  00000	90		 npad	 1
  00001	90		 npad	 1
  00002	8b 54 24 08	 mov	 edx, DWORD PTR [esp+8]
  00006	8d 42 0c	 lea	 eax, DWORD PTR [edx+12]
  00009	8b 4a ac	 mov	 ecx, DWORD PTR [edx-84]
  0000c	33 c8		 xor	 ecx, eax
  0000e	e8 00 00 00 00	 call	 @__security_check_cookie@4
  00013	b8 00 00 00 00	 mov	 eax, OFFSET __ehfuncinfo$?_Reallocate_exactly@?$vector@PAVCSnowParticle@@V?$allocator@PAVCSnowParticle@@@std@@@std@@AAEXI@Z
  00018	e9 00 00 00 00	 jmp	 ___CxxFrameHandler3
text$x	ENDS
?_Reallocate_exactly@?$vector@PAVCSnowParticle@@V?$allocator@PAVCSnowParticle@@@std@@@std@@AAEXI@Z ENDP ; std::vector<CSnowParticle *,std::allocator<CSnowParticle *> >::_Reallocate_exactly
; Function compile flags: /Odspy
; File C:\Program Files (x86)\Microsoft Visual Studio\2019\Community\VC\Tools\MSVC\14.28.29333\include\vector
;	COMDAT ??1?$vector@PAVCSnowParticle@@V?$allocator@PAVCSnowParticle@@@std@@@std@@QAE@XZ
_TEXT	SEGMENT
_this$ = -4						; size = 4
??1?$vector@PAVCSnowParticle@@V?$allocator@PAVCSnowParticle@@@std@@@std@@QAE@XZ PROC ; std::vector<CSnowParticle *,std::allocator<CSnowParticle *> >::~vector<CSnowParticle *,std::allocator<CSnowParticle *> >, COMDAT
; _this$ = ecx

; 672  :     ~vector() noexcept {

  00000	55		 push	 ebp
  00001	8b ec		 mov	 ebp, esp
  00003	51		 push	 ecx
  00004	89 4d fc	 mov	 DWORD PTR _this$[ebp], ecx

; 673  :         _Tidy();

  00007	8b 4d fc	 mov	 ecx, DWORD PTR _this$[ebp]
  0000a	e8 00 00 00 00	 call	 ?_Tidy@?$vector@PAVCSnowParticle@@V?$allocator@PAVCSnowParticle@@@std@@@std@@AAEXXZ ; std::vector<CSnowParticle *,std::allocator<CSnowParticle *> >::_Tidy

; 674  : #if _ITERATOR_DEBUG_LEVEL != 0
; 675  :         auto&& _Alproxy = _GET_PROXY_ALLOCATOR(_Alty, _Getal());
; 676  :         _Delete_plain_internal(_Alproxy, _STD exchange(_Mypair._Myval2._Myproxy, nullptr));
; 677  : #endif // _ITERATOR_DEBUG_LEVEL != 0
; 678  :     }

  0000f	c9		 leave
  00010	c3		 ret	 0
??1?$vector@PAVCSnowParticle@@V?$allocator@PAVCSnowParticle@@@std@@@std@@QAE@XZ ENDP ; std::vector<CSnowParticle *,std::allocator<CSnowParticle *> >::~vector<CSnowParticle *,std::allocator<CSnowParticle *> >
_TEXT	ENDS
; Function compile flags: /Odspy
; File C:\Program Files (x86)\Microsoft Visual Studio\2019\Community\VC\Tools\MSVC\14.28.29333\include\xmemory
;	COMDAT ?deallocate@?$allocator@PAVCSnowParticle@@@std@@QAEXQAPAVCSnowParticle@@I@Z
_TEXT	SEGMENT
_this$ = -4						; size = 4
__Ptr$ = 8						; size = 4
__Count$ = 12						; size = 4
?deallocate@?$allocator@PAVCSnowParticle@@@std@@QAEXQAPAVCSnowParticle@@I@Z PROC ; std::allocator<CSnowParticle *>::deallocate, COMDAT
; _this$ = ecx

; 808  :     void deallocate(_Ty* const _Ptr, const size_t _Count) {

  00000	55		 push	 ebp
  00001	8b ec		 mov	 ebp, esp
  00003	51		 push	 ecx
  00004	89 4d fc	 mov	 DWORD PTR _this$[ebp], ecx

; 809  :         // no overflow check on the following multiply; we assume _Allocate did that check
; 810  :         _Deallocate<_New_alignof<_Ty>>(_Ptr, sizeof(_Ty) * _Count);

  00007	8b 45 0c	 mov	 eax, DWORD PTR __Count$[ebp]
  0000a	c1 e0 02	 shl	 eax, 2
  0000d	50		 push	 eax
  0000e	ff 75 08	 push	 DWORD PTR __Ptr$[ebp]
  00011	e8 00 00 00 00	 call	 ??$_Deallocate@$07$0A@@std@@YAXPAXI@Z ; std::_Deallocate<8,0>
  00016	59		 pop	 ecx
  00017	59		 pop	 ecx

; 811  :     }

  00018	c9		 leave
  00019	c2 08 00	 ret	 8
?deallocate@?$allocator@PAVCSnowParticle@@@std@@QAEXQAPAVCSnowParticle@@I@Z ENDP ; std::allocator<CSnowParticle *>::deallocate
_TEXT	ENDS
; Function compile flags: /Odspy
; File D:\Metin2 Server Files\mainline\SRC_2014\Metin2Client\GameLib\SnowEnvironment.cpp
; File D:\Metin2 Server Files\mainline\SRC_2014\M2Data\include\d3dx8math.inl
; File D:\Metin2 Server Files\mainline\SRC_2014\Metin2Client\GameLib\SnowEnvironment.cpp
; File D:\Metin2 Server Files\mainline\SRC_2014\Metin2Client\GameLib\SnowParticle.h
; File D:\Metin2 Server Files\mainline\SRC_2014\M2Data\include\d3dx8math.inl
; File D:\Metin2 Server Files\mainline\SRC_2014\Metin2Client\GameLib\SnowEnvironment.cpp
; File D:\Metin2 Server Files\mainline\SRC_2014\Metin2Client\GameLib\SnowParticle.h
; File D:\Metin2 Server Files\mainline\SRC_2014\M2Data\include\d3dx8math.inl
; File D:\Metin2 Server Files\mainline\SRC_2014\Metin2Client\GameLib\SnowEnvironment.cpp
; File D:\Metin2 Server Files\mainline\SRC_2014\Metin2Client\GameLib\SnowParticle.h
; File D:\Metin2 Server Files\mainline\SRC_2014\M2Data\include\d3dx8math.inl
; File D:\Metin2 Server Files\mainline\SRC_2014\Metin2Client\GameLib\SnowEnvironment.cpp
; File D:\Metin2 Server Files\mainline\SRC_2014\Metin2Client\GameLib\SnowParticle.h
; File D:\Metin2 Server Files\mainline\SRC_2014\Metin2Client\GameLib\SnowEnvironment.cpp
;	COMDAT ?__ApplyBlur@CSnowEnvironment@@IAEXXZ
_TEXT	SEGMENT
tv312 = -48						; size = 8
tv303 = -40						; size = 8
_sy$2 = -32						; size = 4
_sx$3 = -28						; size = 4
tv308 = -24						; size = 4
tv299 = -20						; size = 4
_this$ = -16						; size = 4
__$EHRec$ = -12						; size = 12
_desc$4 = 0						; size = 32
_p$ = 32						; size = 12
_p$ = 44						; size = 12
_p$ = 56						; size = 12
_p$ = 68						; size = 12
$T5 = 80						; size = 12
$T6 = 92						; size = 12
$T7 = 104						; size = 12
$T8 = 116						; size = 12
_V$9 = 128						; size = 112
__$ArrayPad$ = 240					; size = 4
?__ApplyBlur@CSnowEnvironment@@IAEXXZ PROC		; CSnowEnvironment::__ApplyBlur, COMDAT
; _this$ = ecx

; 104  : {

  00000	55		 push	 ebp
  00001	8d ac 24 0c ff
	ff ff		 lea	 ebp, DWORD PTR [esp-244]
  00008	81 ec f4 00 00
	00		 sub	 esp, 244		; 000000f4H
  0000e	6a ff		 push	 -1
  00010	68 00 00 00 00	 push	 __ehhandler$?__ApplyBlur@CSnowEnvironment@@IAEXXZ
  00015	64 a1 00 00 00
	00		 mov	 eax, DWORD PTR fs:0
  0001b	50		 push	 eax
  0001c	83 ec 24	 sub	 esp, 36			; 00000024H
  0001f	a1 00 00 00 00	 mov	 eax, DWORD PTR ___security_cookie
  00024	33 c5		 xor	 eax, ebp
  00026	89 85 f0 00 00
	00		 mov	 DWORD PTR __$ArrayPad$[ebp], eax
  0002c	56		 push	 esi
  0002d	57		 push	 edi
  0002e	50		 push	 eax
  0002f	8d 45 f4	 lea	 eax, DWORD PTR __$EHRec$[ebp]
  00032	64 a3 00 00 00
	00		 mov	 DWORD PTR fs:0, eax
  00038	89 4d f0	 mov	 DWORD PTR _this$[ebp], ecx

; 105  : 	if (!m_bBlurEnable)

  0003b	8b 45 f0	 mov	 eax, DWORD PTR _this$[ebp]
  0003e	83 78 50 00	 cmp	 DWORD PTR [eax+80], 0
  00042	75 05		 jne	 SHORT $LN2@ApplyBlur

; 106  : 		return;

  00044	e9 bc 02 00 00	 jmp	 $LN1@ApplyBlur
$LN2@ApplyBlur:

; 107  : 
; 108  : //			{
; 109  : //				STATEMANAGER.SetRenderState( D3DRS_ALPHABLENDENABLE,   TRUE );
; 110  : //				STATEMANAGER.SetRenderState( D3DRS_SRCBLEND,  D3DBLEND_SRCALPHA );
; 111  : //				STATEMANAGER.SetRenderState( D3DRS_DESTBLEND, D3DBLEND_INVSRCALPHA );
; 112  : //				STATEMANAGER.SetRenderState( D3DRS_COLORVERTEX ,TRUE);
; 113  : //				STATEMANAGER.SetRenderState( D3DRS_DIFFUSEMATERIALSOURCE , D3DMCS_COLOR1 );
; 114  : //				STATEMANAGER.SetTextureStageState(0, D3DTSS_COLOROP, D3DTOP_MODULATE);
; 115  : //				STATEMANAGER.SetTextureStageState(0, D3DTSS_COLORARG1, D3DTA_TEXTURE);
; 116  : //				STATEMANAGER.SetTextureStageState(0, D3DTSS_COLORARG2, D3DTA_DIFFUSE);
; 117  : //				STATEMANAGER.SetTextureStageState(0, D3DTSS_ALPHAOP, D3DTOP_MODULATE);
; 118  : //				STATEMANAGER.SetTextureStageState(0, D3DTSS_ALPHAARG1, D3DTA_TEXTURE);
; 119  : //				STATEMANAGER.SetTextureStageState(0,  D3DTSS_ALPHAARG2, D3DTA_DIFFUSE);
; 120  : //				DWORD	alphaColor = 0xFFFFFF | ((DWORD)(0.6f*255.0f) << 24);
; 121  : //
; 122  : //				BlurVertex V[4] = { BlurVertex(D3DXVECTOR3(0.0f,0.0f,0.0f),1.0f,		alphaColor, 0,0) ,
; 123  : //									BlurVertex(D3DXVECTOR3(wTextureSize,0.0f,0.0f),1.0f,		alphaColor, 1,0) , 
; 124  : //									BlurVertex(D3DXVECTOR3(0.0f,wTextureSize,0.0f),1.0f,		alphaColor, 0,1) , 
; 125  : //									BlurVertex(D3DXVECTOR3(wTextureSize,wTextureSize,0.0f),1.0f,	alphaColor, 1,1) };
; 126  : //				//   .
; 127  : //				STATEMANAGER.SetTexture(0,m_lpAccumTexture);
; 128  : //				STATEMANAGER.SetVertexShader( D3DFVF_XYZRHW | D3DFVF_DIFFUSE|D3DFVF_TEX1 );
; 129  : //				STATEMANAGER.DrawPrimitiveUP(D3DPT_TRIANGLESTRIP,2,V,sizeof(BlurVertex));
; 130  : //			}
; 131  : //
; 132  : //			{
; 133  : //				STATEMANAGER.SetRenderTarget(m_lpAccumRenderTargetSurface, m_lpAccumDepthSurface);
; 134  : //
; 135  : //				BlurVertex V[4] = { BlurVertex(D3DXVECTOR3(0.0f,0.0f,0.0f),1.0f,		0xFFFFFF, 0,0) ,
; 136  : //									BlurVertex(D3DXVECTOR3(wTextureSize,0.0f,0.0f),1.0f,		0xFFFFFF, 1,0) , 
; 137  : //									BlurVertex(D3DXVECTOR3(0.0f,wTextureSize,0.0f),1.0f,		0xFFFFFF, 0,1) , 
; 138  : //									BlurVertex(D3DXVECTOR3(wTextureSize,wTextureSize,0.0f),1.0f,	0xFFFFFF, 1,1) };
; 139  : //
; 140  : //				STATEMANAGER.SetTexture(0,m_lpSnowTexture);
; 141  : //				STATEMANAGER.SetRenderState( D3DRS_ALPHABLENDENABLE,   FALSE);
; 142  : //				STATEMANAGER.SetVertexShader( D3DFVF_XYZRHW | D3DFVF_DIFFUSE|D3DFVF_TEX1 );
; 143  : //				STATEMANAGER.DrawPrimitiveUP(D3DPT_TRIANGLESTRIP,2,V,sizeof(BlurVertex));
; 144  : //			}
; 145  : 
; 146  : 	///////////////
; 147  : 	{
; 148  : 		ms_lpd3dDevice->SetRenderTarget(m_lpOldSurface, m_lpOldDepthStencilSurface);

  00049	8b 45 f0	 mov	 eax, DWORD PTR _this$[ebp]
  0004c	ff 70 08	 push	 DWORD PTR [eax+8]
  0004f	8b 45 f0	 mov	 eax, DWORD PTR _this$[ebp]
  00052	ff 70 04	 push	 DWORD PTR [eax+4]
  00055	a1 00 00 00 00	 mov	 eax, DWORD PTR ?ms_lpd3dDevice@CGraphicBase@@1PAUIDirect3DDevice8@@A ; CGraphicBase::ms_lpd3dDevice
  0005a	8b 00		 mov	 eax, DWORD PTR [eax]
  0005c	ff 35 00 00 00
	00		 push	 DWORD PTR ?ms_lpd3dDevice@CGraphicBase@@1PAUIDirect3DDevice8@@A ; CGraphicBase::ms_lpd3dDevice
  00062	ff 50 7c	 call	 DWORD PTR [eax+124]

; 149  : 
; 150  : 		STATEMANAGER.SetTexture(0,m_lpSnowTexture);

  00065	8b 45 f0	 mov	 eax, DWORD PTR _this$[ebp]
  00068	ff 70 0c	 push	 DWORD PTR [eax+12]
  0006b	6a 00		 push	 0
  0006d	8b 0d 00 00 00
	00		 mov	 ecx, DWORD PTR ?ms_singleton@?$CSingleton@VCStateManager@@@@0PAVCStateManager@@A ; CSingleton<CStateManager>::ms_singleton
  00073	e8 00 00 00 00	 call	 ?SetTexture@CStateManager@@QAEXKPAUIDirect3DBaseTexture8@@@Z ; CStateManager::SetTexture

; 151  : 		STATEMANAGER.SetRenderState( D3DRS_ALPHABLENDENABLE,   TRUE);

  00078	6a 01		 push	 1
  0007a	6a 1b		 push	 27			; 0000001bH
  0007c	8b 0d 00 00 00
	00		 mov	 ecx, DWORD PTR ?ms_singleton@?$CSingleton@VCStateManager@@@@0PAVCStateManager@@A ; CSingleton<CStateManager>::ms_singleton
  00082	e8 00 00 00 00	 call	 ?SetRenderState@CStateManager@@QAEXW4_D3DRENDERSTATETYPE@@K@Z ; CStateManager::SetRenderState

; 152  : 
; 153  : 		D3DSURFACE_DESC	desc;
; 154  : 		m_lpOldSurface->GetDesc(&desc);

  00087	8d 45 00	 lea	 eax, DWORD PTR _desc$4[ebp]
  0008a	50		 push	 eax
  0008b	8b 45 f0	 mov	 eax, DWORD PTR _this$[ebp]
  0008e	8b 40 04	 mov	 eax, DWORD PTR [eax+4]
  00091	8b 4d f0	 mov	 ecx, DWORD PTR _this$[ebp]
  00094	8b 00		 mov	 eax, DWORD PTR [eax]
  00096	ff 71 04	 push	 DWORD PTR [ecx+4]
  00099	ff 50 20	 call	 DWORD PTR [eax+32]

; 155  : 		float sx = (float)desc.Width ;

  0009c	8b 45 18	 mov	 eax, DWORD PTR _desc$4[ebp+24]
  0009f	89 45 ec	 mov	 DWORD PTR tv299[ebp], eax
  000a2	f2 0f 2a 45 ec	 cvtsi2sd xmm0, DWORD PTR tv299[ebp]
  000a7	8b 45 ec	 mov	 eax, DWORD PTR tv299[ebp]
  000aa	c1 e8 1f	 shr	 eax, 31			; 0000001fH
  000ad	f2 0f 58 04 c5
	00 00 00 00	 addsd	 xmm0, QWORD PTR __xmm@41f00000000000000000000000000000[eax*8]
  000b6	f2 0f 11 45 d8	 movsd	 QWORD PTR tv303[ebp], xmm0
  000bb	f2 0f 5a 45 d8	 cvtsd2ss xmm0, QWORD PTR tv303[ebp]
  000c0	f3 0f 11 45 e4	 movss	 DWORD PTR _sx$3[ebp], xmm0

; 156  : 		float sy = (float)desc.Height;

  000c5	8b 45 1c	 mov	 eax, DWORD PTR _desc$4[ebp+28]
  000c8	89 45 e8	 mov	 DWORD PTR tv308[ebp], eax
  000cb	f2 0f 2a 45 e8	 cvtsi2sd xmm0, DWORD PTR tv308[ebp]
  000d0	8b 45 e8	 mov	 eax, DWORD PTR tv308[ebp]
  000d3	c1 e8 1f	 shr	 eax, 31			; 0000001fH
  000d6	f2 0f 58 04 c5
	00 00 00 00	 addsd	 xmm0, QWORD PTR __xmm@41f00000000000000000000000000000[eax*8]
  000df	f2 0f 11 45 d0	 movsd	 QWORD PTR tv312[ebp], xmm0
  000e4	f2 0f 5a 45 d0	 cvtsd2ss xmm0, QWORD PTR tv312[ebp]
  000e9	f3 0f 11 45 e0	 movss	 DWORD PTR _sy$2[ebp], xmm0

; 157  : 		SAFE_RELEASE( m_lpOldSurface );

  000ee	8b 45 f0	 mov	 eax, DWORD PTR _this$[ebp]
  000f1	83 78 04 00	 cmp	 DWORD PTR [eax+4], 0
  000f5	74 18		 je	 SHORT $LN3@ApplyBlur
  000f7	8b 45 f0	 mov	 eax, DWORD PTR _this$[ebp]
  000fa	8b 40 04	 mov	 eax, DWORD PTR [eax+4]
  000fd	8b 4d f0	 mov	 ecx, DWORD PTR _this$[ebp]
  00100	8b 00		 mov	 eax, DWORD PTR [eax]
  00102	ff 71 04	 push	 DWORD PTR [ecx+4]
  00105	ff 50 08	 call	 DWORD PTR [eax+8]
  00108	8b 45 f0	 mov	 eax, DWORD PTR _this$[ebp]
  0010b	83 60 04 00	 and	 DWORD PTR [eax+4], 0
$LN3@ApplyBlur:

; 158  : 		SAFE_RELEASE( m_lpOldDepthStencilSurface );

  0010f	8b 45 f0	 mov	 eax, DWORD PTR _this$[ebp]
  00112	83 78 08 00	 cmp	 DWORD PTR [eax+8], 0
  00116	74 18		 je	 SHORT $LN4@ApplyBlur
  00118	8b 45 f0	 mov	 eax, DWORD PTR _this$[ebp]
  0011b	8b 40 08	 mov	 eax, DWORD PTR [eax+8]
  0011e	8b 4d f0	 mov	 ecx, DWORD PTR _this$[ebp]
  00121	8b 00		 mov	 eax, DWORD PTR [eax]
  00123	ff 71 08	 push	 DWORD PTR [ecx+8]
  00126	ff 50 08	 call	 DWORD PTR [eax+8]
  00129	8b 45 f0	 mov	 eax, DWORD PTR _this$[ebp]
  0012c	83 60 08 00	 and	 DWORD PTR [eax+8], 0
$LN4@ApplyBlur:
; File D:\Metin2 Server Files\mainline\SRC_2014\M2Data\include\d3dx8math.inl

; 180  :     x = fx;

  00130	0f 57 c0	 xorps	 xmm0, xmm0
  00133	f3 0f 11 45 74	 movss	 DWORD PTR $T8[ebp], xmm0

; 181  :     y = fy;

  00138	0f 57 c0	 xorps	 xmm0, xmm0
  0013b	f3 0f 11 45 78	 movss	 DWORD PTR $T8[ebp+4], xmm0

; 182  :     z = fz;

  00140	0f 57 c0	 xorps	 xmm0, xmm0
  00143	f3 0f 11 45 7c	 movss	 DWORD PTR $T8[ebp+8], xmm0
; File D:\Metin2 Server Files\mainline\SRC_2014\Metin2Client\GameLib\SnowEnvironment.cpp

; 160  : 		BlurVertex V[4] = {	BlurVertex(D3DXVECTOR3(0.0f,0.0f,0.0f),1.0f	,0xFFFFFF, 0,0) ,

  00148	8d 75 74	 lea	 esi, DWORD PTR $T8[ebp]
  0014b	8d 7d 44	 lea	 edi, DWORD PTR _p$[ebp]
  0014e	a5		 movsd
  0014f	a5		 movsd
  00150	a5		 movsd
; File D:\Metin2 Server Files\mainline\SRC_2014\Metin2Client\GameLib\SnowParticle.h

; 18   : 	BlurVertex(D3DXVECTOR3 p, float w,DWORD c,float u,float v):pos(p),rhw(w),color(c),tu(u),tv(v) {}

  00151	8d bd 80 00 00
	00		 lea	 edi, DWORD PTR _V$9[ebp]
  00157	8d 75 44	 lea	 esi, DWORD PTR _p$[ebp]
  0015a	a5		 movsd
  0015b	a5		 movsd
  0015c	a5		 movsd
  0015d	f3 0f 10 05 00
	00 00 00	 movss	 xmm0, DWORD PTR __real@3f800000
  00165	f3 0f 11 85 8c
	00 00 00	 movss	 DWORD PTR _V$9[ebp+12], xmm0
  0016d	c7 85 90 00 00
	00 ff ff ff 00	 mov	 DWORD PTR _V$9[ebp+16], 16777215 ; 00ffffffH
  00177	0f 57 c0	 xorps	 xmm0, xmm0
  0017a	f3 0f 11 85 94
	00 00 00	 movss	 DWORD PTR _V$9[ebp+20], xmm0
  00182	0f 57 c0	 xorps	 xmm0, xmm0
  00185	f3 0f 11 85 98
	00 00 00	 movss	 DWORD PTR _V$9[ebp+24], xmm0
; File D:\Metin2 Server Files\mainline\SRC_2014\M2Data\include\d3dx8math.inl

; 180  :     x = fx;

  0018d	f3 0f 10 45 e4	 movss	 xmm0, DWORD PTR _sx$3[ebp]
  00192	f3 0f 11 45 68	 movss	 DWORD PTR $T7[ebp], xmm0

; 181  :     y = fy;

  00197	0f 57 c0	 xorps	 xmm0, xmm0
  0019a	f3 0f 11 45 6c	 movss	 DWORD PTR $T7[ebp+4], xmm0

; 182  :     z = fz;

  0019f	0f 57 c0	 xorps	 xmm0, xmm0
  001a2	f3 0f 11 45 70	 movss	 DWORD PTR $T7[ebp+8], xmm0
; File D:\Metin2 Server Files\mainline\SRC_2014\Metin2Client\GameLib\SnowEnvironment.cpp

; 161  : 							BlurVertex(D3DXVECTOR3(sx,0.0f,0.0f),1.0f	,0xFFFFFF, 1,0) , 

  001a7	8d 75 68	 lea	 esi, DWORD PTR $T7[ebp]
  001aa	8d 7d 38	 lea	 edi, DWORD PTR _p$[ebp]
  001ad	a5		 movsd
  001ae	a5		 movsd
  001af	a5		 movsd
; File D:\Metin2 Server Files\mainline\SRC_2014\Metin2Client\GameLib\SnowParticle.h

; 18   : 	BlurVertex(D3DXVECTOR3 p, float w,DWORD c,float u,float v):pos(p),rhw(w),color(c),tu(u),tv(v) {}

  001b0	8d bd 9c 00 00
	00		 lea	 edi, DWORD PTR _V$9[ebp+28]
  001b6	8d 75 38	 lea	 esi, DWORD PTR _p$[ebp]
  001b9	a5		 movsd
  001ba	a5		 movsd
  001bb	a5		 movsd
  001bc	f3 0f 10 05 00
	00 00 00	 movss	 xmm0, DWORD PTR __real@3f800000
  001c4	f3 0f 11 85 a8
	00 00 00	 movss	 DWORD PTR _V$9[ebp+40], xmm0
  001cc	c7 85 ac 00 00
	00 ff ff ff 00	 mov	 DWORD PTR _V$9[ebp+44], 16777215 ; 00ffffffH
  001d6	f3 0f 10 05 00
	00 00 00	 movss	 xmm0, DWORD PTR __real@3f800000
  001de	f3 0f 11 85 b0
	00 00 00	 movss	 DWORD PTR _V$9[ebp+48], xmm0
  001e6	0f 57 c0	 xorps	 xmm0, xmm0
  001e9	f3 0f 11 85 b4
	00 00 00	 movss	 DWORD PTR _V$9[ebp+52], xmm0
; File D:\Metin2 Server Files\mainline\SRC_2014\M2Data\include\d3dx8math.inl

; 180  :     x = fx;

  001f1	0f 57 c0	 xorps	 xmm0, xmm0
  001f4	f3 0f 11 45 5c	 movss	 DWORD PTR $T6[ebp], xmm0

; 181  :     y = fy;

  001f9	f3 0f 10 45 e0	 movss	 xmm0, DWORD PTR _sy$2[ebp]
  001fe	f3 0f 11 45 60	 movss	 DWORD PTR $T6[ebp+4], xmm0

; 182  :     z = fz;

  00203	0f 57 c0	 xorps	 xmm0, xmm0
  00206	f3 0f 11 45 64	 movss	 DWORD PTR $T6[ebp+8], xmm0
; File D:\Metin2 Server Files\mainline\SRC_2014\Metin2Client\GameLib\SnowEnvironment.cpp

; 162  : 							BlurVertex(D3DXVECTOR3(0.0f,sy,0.0f),1.0f	,0xFFFFFF, 0,1) , 

  0020b	8d 75 5c	 lea	 esi, DWORD PTR $T6[ebp]
  0020e	8d 7d 2c	 lea	 edi, DWORD PTR _p$[ebp]
  00211	a5		 movsd
  00212	a5		 movsd
  00213	a5		 movsd
; File D:\Metin2 Server Files\mainline\SRC_2014\Metin2Client\GameLib\SnowParticle.h

; 18   : 	BlurVertex(D3DXVECTOR3 p, float w,DWORD c,float u,float v):pos(p),rhw(w),color(c),tu(u),tv(v) {}

  00214	8d bd b8 00 00
	00		 lea	 edi, DWORD PTR _V$9[ebp+56]
  0021a	8d 75 2c	 lea	 esi, DWORD PTR _p$[ebp]
  0021d	a5		 movsd
  0021e	a5		 movsd
  0021f	a5		 movsd
  00220	f3 0f 10 05 00
	00 00 00	 movss	 xmm0, DWORD PTR __real@3f800000
  00228	f3 0f 11 85 c4
	00 00 00	 movss	 DWORD PTR _V$9[ebp+68], xmm0
  00230	c7 85 c8 00 00
	00 ff ff ff 00	 mov	 DWORD PTR _V$9[ebp+72], 16777215 ; 00ffffffH
  0023a	0f 57 c0	 xorps	 xmm0, xmm0
  0023d	f3 0f 11 85 cc
	00 00 00	 movss	 DWORD PTR _V$9[ebp+76], xmm0
  00245	f3 0f 10 05 00
	00 00 00	 movss	 xmm0, DWORD PTR __real@3f800000
  0024d	f3 0f 11 85 d0
	00 00 00	 movss	 DWORD PTR _V$9[ebp+80], xmm0
; File D:\Metin2 Server Files\mainline\SRC_2014\M2Data\include\d3dx8math.inl

; 180  :     x = fx;

  00255	f3 0f 10 45 e4	 movss	 xmm0, DWORD PTR _sx$3[ebp]
  0025a	f3 0f 11 45 50	 movss	 DWORD PTR $T5[ebp], xmm0

; 181  :     y = fy;

  0025f	f3 0f 10 45 e0	 movss	 xmm0, DWORD PTR _sy$2[ebp]
  00264	f3 0f 11 45 54	 movss	 DWORD PTR $T5[ebp+4], xmm0

; 182  :     z = fz;

  00269	0f 57 c0	 xorps	 xmm0, xmm0
  0026c	f3 0f 11 45 58	 movss	 DWORD PTR $T5[ebp+8], xmm0
; File D:\Metin2 Server Files\mainline\SRC_2014\Metin2Client\GameLib\SnowEnvironment.cpp

; 163  : 							BlurVertex(D3DXVECTOR3(sx,sy,0.0f),1.0f		,0xFFFFFF, 1,1) };

  00271	8d 75 50	 lea	 esi, DWORD PTR $T5[ebp]
  00274	8d 7d 20	 lea	 edi, DWORD PTR _p$[ebp]
  00277	a5		 movsd
  00278	a5		 movsd
  00279	a5		 movsd
; File D:\Metin2 Server Files\mainline\SRC_2014\Metin2Client\GameLib\SnowParticle.h

; 18   : 	BlurVertex(D3DXVECTOR3 p, float w,DWORD c,float u,float v):pos(p),rhw(w),color(c),tu(u),tv(v) {}

  0027a	8d bd d4 00 00
	00		 lea	 edi, DWORD PTR _V$9[ebp+84]
  00280	8d 75 20	 lea	 esi, DWORD PTR _p$[ebp]
  00283	a5		 movsd
  00284	a5		 movsd
  00285	a5		 movsd
  00286	f3 0f 10 05 00
	00 00 00	 movss	 xmm0, DWORD PTR __real@3f800000
  0028e	f3 0f 11 85 e0
	00 00 00	 movss	 DWORD PTR _V$9[ebp+96], xmm0
  00296	c7 85 e4 00 00
	00 ff ff ff 00	 mov	 DWORD PTR _V$9[ebp+100], 16777215 ; 00ffffffH
  002a0	f3 0f 10 05 00
	00 00 00	 movss	 xmm0, DWORD PTR __real@3f800000
  002a8	f3 0f 11 85 e8
	00 00 00	 movss	 DWORD PTR _V$9[ebp+104], xmm0
  002b0	f3 0f 10 05 00
	00 00 00	 movss	 xmm0, DWORD PTR __real@3f800000
  002b8	f3 0f 11 85 ec
	00 00 00	 movss	 DWORD PTR _V$9[ebp+108], xmm0
; File D:\Metin2 Server Files\mainline\SRC_2014\Metin2Client\GameLib\SnowEnvironment.cpp

; 160  : 		BlurVertex V[4] = {	BlurVertex(D3DXVECTOR3(0.0f,0.0f,0.0f),1.0f	,0xFFFFFF, 0,0) ,

  002c0	83 65 fc 00	 and	 DWORD PTR __$EHRec$[ebp+8], 0

; 164  : 
; 165  : 		STATEMANAGER.SetVertexShader( D3DFVF_XYZRHW | D3DFVF_DIFFUSE|D3DFVF_TEX1 );

  002c4	68 44 01 00 00	 push	 324			; 00000144H
  002c9	8b 0d 00 00 00
	00		 mov	 ecx, DWORD PTR ?ms_singleton@?$CSingleton@VCStateManager@@@@0PAVCStateManager@@A ; CSingleton<CStateManager>::ms_singleton
  002cf	e8 00 00 00 00	 call	 ?SetVertexShader@CStateManager@@QAEXK@Z ; CStateManager::SetVertexShader

; 166  : 		STATEMANAGER.DrawPrimitiveUP(D3DPT_TRIANGLESTRIP,2,V,sizeof(BlurVertex));

  002d4	6a 1c		 push	 28			; 0000001cH
  002d6	8d 85 80 00 00
	00		 lea	 eax, DWORD PTR _V$9[ebp]
  002dc	50		 push	 eax
  002dd	6a 02		 push	 2
  002df	6a 05		 push	 5
  002e1	8b 0d 00 00 00
	00		 mov	 ecx, DWORD PTR ?ms_singleton@?$CSingleton@VCStateManager@@@@0PAVCStateManager@@A ; CSingleton<CStateManager>::ms_singleton
  002e7	e8 00 00 00 00	 call	 ?DrawPrimitiveUP@CStateManager@@QAEJW4_D3DPRIMITIVETYPE@@IPBXI@Z ; CStateManager::DrawPrimitiveUP

; 167  : 	}

  002ec	83 4d fc ff	 or	 DWORD PTR __$EHRec$[ebp+8], -1
  002f0	68 00 00 00 00	 push	 OFFSET ??1BlurVertex@@QAE@XZ ; BlurVertex::~BlurVertex
  002f5	6a 04		 push	 4
  002f7	6a 1c		 push	 28			; 0000001cH
  002f9	8d 85 80 00 00
	00		 lea	 eax, DWORD PTR _V$9[ebp]
  002ff	50		 push	 eax
  00300	e8 00 00 00 00	 call	 ??_M@YGXPAXIIP6EX0@Z@Z
$LN1@ApplyBlur:

; 168  : }

  00305	8b 4d f4	 mov	 ecx, DWORD PTR __$EHRec$[ebp]
  00308	64 89 0d 00 00
	00 00		 mov	 DWORD PTR fs:0, ecx
  0030f	59		 pop	 ecx
  00310	5f		 pop	 edi
  00311	5e		 pop	 esi
  00312	8b 8d f0 00 00
	00		 mov	 ecx, DWORD PTR __$ArrayPad$[ebp]
  00318	33 cd		 xor	 ecx, ebp
  0031a	e8 00 00 00 00	 call	 @__security_check_cookie@4
  0031f	81 c5 f4 00 00
	00		 add	 ebp, 244		; 000000f4H
  00325	c9		 leave
  00326	c3		 ret	 0
_TEXT	ENDS
;	COMDAT text$x
text$x	SEGMENT
__unwindfunclet$?__ApplyBlur@CSnowEnvironment@@IAEXXZ$4:
  00000	68 00 00 00 00	 push	 OFFSET ??1BlurVertex@@QAE@XZ ; BlurVertex::~BlurVertex
  00005	6a 04		 push	 4
  00007	6a 1c		 push	 28			; 0000001cH
  00009	8d 85 80 00 00
	00		 lea	 eax, DWORD PTR _V$9[ebp]
  0000f	50		 push	 eax
  00010	e8 00 00 00 00	 call	 ??_M@YGXPAXIIP6EX0@Z@Z
  00015	c3		 ret	 0
  00016	cc		 int	 3
  00017	cc		 int	 3
  00018	cc		 int	 3
  00019	cc		 int	 3
  0001a	cc		 int	 3
__ehhandler$?__ApplyBlur@CSnowEnvironment@@IAEXXZ:
  0001b	90		 npad	 1
  0001c	90		 npad	 1
  0001d	8b 54 24 08	 mov	 edx, DWORD PTR [esp+8]
  00021	8d 42 0c	 lea	 eax, DWORD PTR [edx+12]
  00024	8b 4a d0	 mov	 ecx, DWORD PTR [edx-48]
  00027	33 c8		 xor	 ecx, eax
  00029	e8 00 00 00 00	 call	 @__security_check_cookie@4
  0002e	8b 8a fc 00 00
	00		 mov	 ecx, DWORD PTR [edx+252]
  00034	33 c8		 xor	 ecx, eax
  00036	e8 00 00 00 00	 call	 @__security_check_cookie@4
  0003b	b8 00 00 00 00	 mov	 eax, OFFSET __ehfuncinfo$?__ApplyBlur@CSnowEnvironment@@IAEXXZ
  00040	e9 00 00 00 00	 jmp	 ___CxxFrameHandler3
text$x	ENDS
?__ApplyBlur@CSnowEnvironment@@IAEXXZ ENDP		; CSnowEnvironment::__ApplyBlur
; Function compile flags: /Odspy
; File D:\Metin2 Server Files\mainline\SRC_2014\Metin2Client\GameLib\SnowEnvironment.cpp
;	COMDAT ?__BeginBlur@CSnowEnvironment@@IAEXXZ
_TEXT	SEGMENT
_this$ = -4						; size = 4
?__BeginBlur@CSnowEnvironment@@IAEXXZ PROC		; CSnowEnvironment::__BeginBlur, COMDAT
; _this$ = ecx

; 89   : {

  00000	55		 push	 ebp
  00001	8b ec		 mov	 ebp, esp
  00003	51		 push	 ecx
  00004	89 4d fc	 mov	 DWORD PTR _this$[ebp], ecx

; 90   : 	if (!m_bBlurEnable)

  00007	8b 45 fc	 mov	 eax, DWORD PTR _this$[ebp]
  0000a	83 78 50 00	 cmp	 DWORD PTR [eax+80], 0
  0000e	75 05		 jne	 SHORT $LN2@BeginBlur

; 91   : 		return;

  00010	e9 a8 00 00 00	 jmp	 $LN1@BeginBlur
$LN2@BeginBlur:

; 92   : 
; 93   : 	ms_lpd3dDevice->GetRenderTarget(&m_lpOldSurface);

  00015	8b 45 fc	 mov	 eax, DWORD PTR _this$[ebp]
  00018	83 c0 04	 add	 eax, 4
  0001b	50		 push	 eax
  0001c	a1 00 00 00 00	 mov	 eax, DWORD PTR ?ms_lpd3dDevice@CGraphicBase@@1PAUIDirect3DDevice8@@A ; CGraphicBase::ms_lpd3dDevice
  00021	8b 00		 mov	 eax, DWORD PTR [eax]
  00023	ff 35 00 00 00
	00		 push	 DWORD PTR ?ms_lpd3dDevice@CGraphicBase@@1PAUIDirect3DDevice8@@A ; CGraphicBase::ms_lpd3dDevice
  00029	ff 90 80 00 00
	00		 call	 DWORD PTR [eax+128]

; 94   : 	ms_lpd3dDevice->GetDepthStencilSurface(&m_lpOldDepthStencilSurface);

  0002f	8b 45 fc	 mov	 eax, DWORD PTR _this$[ebp]
  00032	83 c0 08	 add	 eax, 8
  00035	50		 push	 eax
  00036	a1 00 00 00 00	 mov	 eax, DWORD PTR ?ms_lpd3dDevice@CGraphicBase@@1PAUIDirect3DDevice8@@A ; CGraphicBase::ms_lpd3dDevice
  0003b	8b 00		 mov	 eax, DWORD PTR [eax]
  0003d	ff 35 00 00 00
	00		 push	 DWORD PTR ?ms_lpd3dDevice@CGraphicBase@@1PAUIDirect3DDevice8@@A ; CGraphicBase::ms_lpd3dDevice
  00043	ff 90 84 00 00
	00		 call	 DWORD PTR [eax+132]

; 95   : 	ms_lpd3dDevice->SetRenderTarget(m_lpSnowRenderTargetSurface, m_lpSnowDepthSurface);

  00049	8b 45 fc	 mov	 eax, DWORD PTR _this$[ebp]
  0004c	ff 70 14	 push	 DWORD PTR [eax+20]
  0004f	8b 45 fc	 mov	 eax, DWORD PTR _this$[ebp]
  00052	ff 70 10	 push	 DWORD PTR [eax+16]
  00055	a1 00 00 00 00	 mov	 eax, DWORD PTR ?ms_lpd3dDevice@CGraphicBase@@1PAUIDirect3DDevice8@@A ; CGraphicBase::ms_lpd3dDevice
  0005a	8b 00		 mov	 eax, DWORD PTR [eax]
  0005c	ff 35 00 00 00
	00		 push	 DWORD PTR ?ms_lpd3dDevice@CGraphicBase@@1PAUIDirect3DDevice8@@A ; CGraphicBase::ms_lpd3dDevice
  00062	ff 50 7c	 call	 DWORD PTR [eax+124]

; 96   : 	ms_lpd3dDevice->Clear(0L, NULL, D3DCLEAR_TARGET|D3DCLEAR_ZBUFFER, 0x00000000, 1.0f, 0L);

  00065	6a 00		 push	 0
  00067	51		 push	 ecx
  00068	f3 0f 10 05 00
	00 00 00	 movss	 xmm0, DWORD PTR __real@3f800000
  00070	f3 0f 11 04 24	 movss	 DWORD PTR [esp], xmm0
  00075	6a 00		 push	 0
  00077	6a 03		 push	 3
  00079	6a 00		 push	 0
  0007b	6a 00		 push	 0
  0007d	a1 00 00 00 00	 mov	 eax, DWORD PTR ?ms_lpd3dDevice@CGraphicBase@@1PAUIDirect3DDevice8@@A ; CGraphicBase::ms_lpd3dDevice
  00082	8b 00		 mov	 eax, DWORD PTR [eax]
  00084	ff 35 00 00 00
	00		 push	 DWORD PTR ?ms_lpd3dDevice@CGraphicBase@@1PAUIDirect3DDevice8@@A ; CGraphicBase::ms_lpd3dDevice
  0008a	ff 90 90 00 00
	00		 call	 DWORD PTR [eax+144]

; 97   : 
; 98   : 	STATEMANAGER.SetRenderState(D3DRS_ALPHABLENDENABLE, TRUE);

  00090	6a 01		 push	 1
  00092	6a 1b		 push	 27			; 0000001bH
  00094	8b 0d 00 00 00
	00		 mov	 ecx, DWORD PTR ?ms_singleton@?$CSingleton@VCStateManager@@@@0PAVCStateManager@@A ; CSingleton<CStateManager>::ms_singleton
  0009a	e8 00 00 00 00	 call	 ?SetRenderState@CStateManager@@QAEXW4_D3DRENDERSTATETYPE@@K@Z ; CStateManager::SetRenderState

; 99   : 	STATEMANAGER.SetRenderState(D3DRS_SRCBLEND, D3DBLEND_SRCALPHA);

  0009f	6a 05		 push	 5
  000a1	6a 13		 push	 19			; 00000013H
  000a3	8b 0d 00 00 00
	00		 mov	 ecx, DWORD PTR ?ms_singleton@?$CSingleton@VCStateManager@@@@0PAVCStateManager@@A ; CSingleton<CStateManager>::ms_singleton
  000a9	e8 00 00 00 00	 call	 ?SetRenderState@CStateManager@@QAEXW4_D3DRENDERSTATETYPE@@K@Z ; CStateManager::SetRenderState

; 100  : 	STATEMANAGER.SetRenderState(D3DRS_DESTBLEND, D3DBLEND_DESTALPHA);

  000ae	6a 07		 push	 7
  000b0	6a 14		 push	 20			; 00000014H
  000b2	8b 0d 00 00 00
	00		 mov	 ecx, DWORD PTR ?ms_singleton@?$CSingleton@VCStateManager@@@@0PAVCStateManager@@A ; CSingleton<CStateManager>::ms_singleton
  000b8	e8 00 00 00 00	 call	 ?SetRenderState@CStateManager@@QAEXW4_D3DRENDERSTATETYPE@@K@Z ; CStateManager::SetRenderState
$LN1@BeginBlur:

; 101  : }

  000bd	c9		 leave
  000be	c3		 ret	 0
?__BeginBlur@CSnowEnvironment@@IAEXXZ ENDP		; CSnowEnvironment::__BeginBlur
_TEXT	ENDS
; Function compile flags: /Odspy
; File D:\Metin2 Server Files\mainline\SRC_2014\Metin2Client\GameLib\SnowEnvironment.cpp
;	COMDAT ?__CreateGeometry@CSnowEnvironment@@IAE_NXZ
_TEXT	SEGMENT
_dstIndices$ = -32					; size = 4
_j$1 = -28						; size = 4
_i$2 = -24						; size = 4
_this$ = -20						; size = 4
_c_awFillRectIndices$ = -16				; size = 12
__$ArrayPad$ = -4					; size = 4
?__CreateGeometry@CSnowEnvironment@@IAE_NXZ PROC	; CSnowEnvironment::__CreateGeometry, COMDAT
; _this$ = ecx

; 254  : {

  00000	55		 push	 ebp
  00001	8b ec		 mov	 ebp, esp
  00003	83 ec 20	 sub	 esp, 32			; 00000020H
  00006	a1 00 00 00 00	 mov	 eax, DWORD PTR ___security_cookie
  0000b	33 c5		 xor	 eax, ebp
  0000d	89 45 fc	 mov	 DWORD PTR __$ArrayPad$[ebp], eax
  00010	89 4d ec	 mov	 DWORD PTR _this$[ebp], ecx

; 255  : 	if (FAILED(ms_lpd3dDevice->CreateVertexBuffer(sizeof(SParticleVertex)*m_dwParticleMaxNum*4,

  00013	8b 45 ec	 mov	 eax, DWORD PTR _this$[ebp]
  00016	83 c0 24	 add	 eax, 36			; 00000024H
  00019	50		 push	 eax
  0001a	6a 02		 push	 2
  0001c	68 02 01 00 00	 push	 258			; 00000102H
  00021	68 08 02 00 00	 push	 520			; 00000208H
  00026	8b 45 ec	 mov	 eax, DWORD PTR _this$[ebp]
  00029	6b 40 4c 14	 imul	 eax, DWORD PTR [eax+76], 20
  0002d	c1 e0 02	 shl	 eax, 2
  00030	50		 push	 eax
  00031	a1 00 00 00 00	 mov	 eax, DWORD PTR ?ms_lpd3dDevice@CGraphicBase@@1PAUIDirect3DDevice8@@A ; CGraphicBase::ms_lpd3dDevice
  00036	8b 00		 mov	 eax, DWORD PTR [eax]
  00038	ff 35 00 00 00
	00		 push	 DWORD PTR ?ms_lpd3dDevice@CGraphicBase@@1PAUIDirect3DDevice8@@A ; CGraphicBase::ms_lpd3dDevice
  0003e	ff 50 5c	 call	 DWORD PTR [eax+92]
  00041	85 c0		 test	 eax, eax
  00043	7d 07		 jge	 SHORT $LN8@CreateGeom

; 256  : 											D3DUSAGE_DYNAMIC|D3DUSAGE_WRITEONLY,
; 257  : 											D3DFVF_XYZ | D3DFVF_TEX1,
; 258  : 											D3DPOOL_SYSTEMMEM,
; 259  : 											&m_pVB)))
; 260  : 		return false;

  00045	32 c0		 xor	 al, al
  00047	e9 eb 00 00 00	 jmp	 $LN1@CreateGeom
$LN8@CreateGeom:

; 261  : 
; 262  : 	if (FAILED(ms_lpd3dDevice->CreateIndexBuffer(sizeof(WORD)*m_dwParticleMaxNum*6,

  0004c	8b 45 ec	 mov	 eax, DWORD PTR _this$[ebp]
  0004f	83 c0 28	 add	 eax, 40			; 00000028H
  00052	50		 push	 eax
  00053	6a 01		 push	 1
  00055	6a 65		 push	 101			; 00000065H
  00057	6a 08		 push	 8
  00059	8b 45 ec	 mov	 eax, DWORD PTR _this$[ebp]
  0005c	8b 40 4c	 mov	 eax, DWORD PTR [eax+76]
  0005f	d1 e0		 shl	 eax, 1
  00061	6b c0 06	 imul	 eax, eax, 6
  00064	50		 push	 eax
  00065	a1 00 00 00 00	 mov	 eax, DWORD PTR ?ms_lpd3dDevice@CGraphicBase@@1PAUIDirect3DDevice8@@A ; CGraphicBase::ms_lpd3dDevice
  0006a	8b 00		 mov	 eax, DWORD PTR [eax]
  0006c	ff 35 00 00 00
	00		 push	 DWORD PTR ?ms_lpd3dDevice@CGraphicBase@@1PAUIDirect3DDevice8@@A ; CGraphicBase::ms_lpd3dDevice
  00072	ff 50 60	 call	 DWORD PTR [eax+96]
  00075	85 c0		 test	 eax, eax
  00077	7d 07		 jge	 SHORT $LN9@CreateGeom

; 263  : 										   D3DUSAGE_WRITEONLY, 
; 264  : 										   D3DFMT_INDEX16,
; 265  : 										   D3DPOOL_MANAGED,
; 266  : 										   &m_pIB)))
; 267  : 		return false;

  00079	32 c0		 xor	 al, al
  0007b	e9 b7 00 00 00	 jmp	 $LN1@CreateGeom
$LN9@CreateGeom:

; 268  : 
; 269  : 	WORD* dstIndices;
; 270  : 	if (FAILED(m_pIB->Lock(0, sizeof(WORD)*m_dwParticleMaxNum*6, (BYTE**)&dstIndices, 0)))

  00080	6a 00		 push	 0
  00082	8d 45 e0	 lea	 eax, DWORD PTR _dstIndices$[ebp]
  00085	50		 push	 eax
  00086	8b 45 ec	 mov	 eax, DWORD PTR _this$[ebp]
  00089	8b 40 4c	 mov	 eax, DWORD PTR [eax+76]
  0008c	d1 e0		 shl	 eax, 1
  0008e	6b c0 06	 imul	 eax, eax, 6
  00091	50		 push	 eax
  00092	6a 00		 push	 0
  00094	8b 45 ec	 mov	 eax, DWORD PTR _this$[ebp]
  00097	8b 40 28	 mov	 eax, DWORD PTR [eax+40]
  0009a	8b 4d ec	 mov	 ecx, DWORD PTR _this$[ebp]
  0009d	8b 00		 mov	 eax, DWORD PTR [eax]
  0009f	ff 71 28	 push	 DWORD PTR [ecx+40]
  000a2	ff 50 2c	 call	 DWORD PTR [eax+44]
  000a5	85 c0		 test	 eax, eax
  000a7	7d 07		 jge	 SHORT $LN10@CreateGeom

; 271  : 		return false;

  000a9	32 c0		 xor	 al, al
  000ab	e9 87 00 00 00	 jmp	 $LN1@CreateGeom
$LN10@CreateGeom:

; 272  : 
; 273  : 	const WORD c_awFillRectIndices[6] = { 0, 2, 1, 2, 3, 1, };

  000b0	33 c0		 xor	 eax, eax
  000b2	66 89 45 f0	 mov	 WORD PTR _c_awFillRectIndices$[ebp], ax
  000b6	6a 02		 push	 2
  000b8	58		 pop	 eax
  000b9	66 89 45 f2	 mov	 WORD PTR _c_awFillRectIndices$[ebp+2], ax
  000bd	33 c0		 xor	 eax, eax
  000bf	40		 inc	 eax
  000c0	66 89 45 f4	 mov	 WORD PTR _c_awFillRectIndices$[ebp+4], ax
  000c4	6a 02		 push	 2
  000c6	58		 pop	 eax
  000c7	66 89 45 f6	 mov	 WORD PTR _c_awFillRectIndices$[ebp+6], ax
  000cb	6a 03		 push	 3
  000cd	58		 pop	 eax
  000ce	66 89 45 f8	 mov	 WORD PTR _c_awFillRectIndices$[ebp+8], ax
  000d2	33 c0		 xor	 eax, eax
  000d4	40		 inc	 eax
  000d5	66 89 45 fa	 mov	 WORD PTR _c_awFillRectIndices$[ebp+10], ax

; 274  : 	for (int i = 0; i < m_dwParticleMaxNum; ++i)

  000d9	83 65 e8 00	 and	 DWORD PTR _i$2[ebp], 0
  000dd	eb 07		 jmp	 SHORT $LN4@CreateGeom
$LN2@CreateGeom:
  000df	8b 45 e8	 mov	 eax, DWORD PTR _i$2[ebp]
  000e2	40		 inc	 eax
  000e3	89 45 e8	 mov	 DWORD PTR _i$2[ebp], eax
$LN4@CreateGeom:
  000e6	8b 45 ec	 mov	 eax, DWORD PTR _this$[ebp]
  000e9	8b 4d e8	 mov	 ecx, DWORD PTR _i$2[ebp]
  000ec	3b 48 4c	 cmp	 ecx, DWORD PTR [eax+76]
  000ef	73 33		 jae	 SHORT $LN3@CreateGeom

; 275  : 	{
; 276  : 		for (int j = 0; j < 6; ++j)

  000f1	83 65 e4 00	 and	 DWORD PTR _j$1[ebp], 0
  000f5	eb 07		 jmp	 SHORT $LN7@CreateGeom
$LN5@CreateGeom:
  000f7	8b 45 e4	 mov	 eax, DWORD PTR _j$1[ebp]
  000fa	40		 inc	 eax
  000fb	89 45 e4	 mov	 DWORD PTR _j$1[ebp], eax
$LN7@CreateGeom:
  000fe	83 7d e4 06	 cmp	 DWORD PTR _j$1[ebp], 6
  00102	7d 1e		 jge	 SHORT $LN6@CreateGeom

; 277  : 		{
; 278  : 			dstIndices[i*6 + j] = i*4 + c_awFillRectIndices[j];

  00104	8b 45 e4	 mov	 eax, DWORD PTR _j$1[ebp]
  00107	0f b7 44 45 f0	 movzx	 eax, WORD PTR _c_awFillRectIndices$[ebp+eax*2]
  0010c	8b 4d e8	 mov	 ecx, DWORD PTR _i$2[ebp]
  0010f	8d 04 88	 lea	 eax, DWORD PTR [eax+ecx*4]
  00112	6b 4d e8 06	 imul	 ecx, DWORD PTR _i$2[ebp], 6
  00116	03 4d e4	 add	 ecx, DWORD PTR _j$1[ebp]
  00119	8b 55 e0	 mov	 edx, DWORD PTR _dstIndices$[ebp]
  0011c	66 89 04 4a	 mov	 WORD PTR [edx+ecx*2], ax

; 279  : 		}

  00120	eb d5		 jmp	 SHORT $LN5@CreateGeom
$LN6@CreateGeom:

; 280  : 	}

  00122	eb bb		 jmp	 SHORT $LN2@CreateGeom
$LN3@CreateGeom:

; 281  : 
; 282  : 	m_pIB->Unlock();

  00124	8b 45 ec	 mov	 eax, DWORD PTR _this$[ebp]
  00127	8b 40 28	 mov	 eax, DWORD PTR [eax+40]
  0012a	8b 4d ec	 mov	 ecx, DWORD PTR _this$[ebp]
  0012d	8b 00		 mov	 eax, DWORD PTR [eax]
  0012f	ff 71 28	 push	 DWORD PTR [ecx+40]
  00132	ff 50 30	 call	 DWORD PTR [eax+48]

; 283  : 	return true;

  00135	b0 01		 mov	 al, 1
$LN1@CreateGeom:

; 284  : }

  00137	8b 4d fc	 mov	 ecx, DWORD PTR __$ArrayPad$[ebp]
  0013a	33 cd		 xor	 ecx, ebp
  0013c	e8 00 00 00 00	 call	 @__security_check_cookie@4
  00141	c9		 leave
  00142	c3		 ret	 0
?__CreateGeometry@CSnowEnvironment@@IAE_NXZ ENDP	; CSnowEnvironment::__CreateGeometry
_TEXT	ENDS
; Function compile flags: /Odspy
; File D:\Metin2 Server Files\mainline\SRC_2014\Metin2Client\GameLib\SnowEnvironment.cpp
;	COMDAT ?__CreateBlurTexture@CSnowEnvironment@@IAE_NXZ
_TEXT	SEGMENT
_this$ = -4						; size = 4
?__CreateBlurTexture@CSnowEnvironment@@IAE_NXZ PROC	; CSnowEnvironment::__CreateBlurTexture, COMDAT
; _this$ = ecx

; 232  : {

  00000	55		 push	 ebp
  00001	8b ec		 mov	 ebp, esp
  00003	51		 push	 ecx
  00004	89 4d fc	 mov	 DWORD PTR _this$[ebp], ecx

; 233  : 	if (!m_bBlurEnable)

  00007	8b 45 fc	 mov	 eax, DWORD PTR _this$[ebp]
  0000a	83 78 50 00	 cmp	 DWORD PTR [eax+80], 0
  0000e	75 07		 jne	 SHORT $LN2@CreateBlur

; 234  : 		return true;

  00010	b0 01		 mov	 al, 1
  00012	e9 23 01 00 00	 jmp	 $LN1@CreateBlur
$LN2@CreateBlur:

; 235  : 
; 236  : 	if (FAILED(ms_lpd3dDevice->CreateTexture(m_wBlurTextureSize, m_wBlurTextureSize, 1, D3DUSAGE_RENDERTARGET, D3DFMT_X8R8G8B8, D3DPOOL_DEFAULT, &m_lpSnowTexture)))

  00017	8b 45 fc	 mov	 eax, DWORD PTR _this$[ebp]
  0001a	83 c0 0c	 add	 eax, 12			; 0000000cH
  0001d	50		 push	 eax
  0001e	6a 00		 push	 0
  00020	6a 16		 push	 22			; 00000016H
  00022	6a 01		 push	 1
  00024	6a 01		 push	 1
  00026	8b 45 fc	 mov	 eax, DWORD PTR _this$[ebp]
  00029	0f b7 40 38	 movzx	 eax, WORD PTR [eax+56]
  0002d	50		 push	 eax
  0002e	8b 45 fc	 mov	 eax, DWORD PTR _this$[ebp]
  00031	0f b7 40 38	 movzx	 eax, WORD PTR [eax+56]
  00035	50		 push	 eax
  00036	a1 00 00 00 00	 mov	 eax, DWORD PTR ?ms_lpd3dDevice@CGraphicBase@@1PAUIDirect3DDevice8@@A ; CGraphicBase::ms_lpd3dDevice
  0003b	8b 00		 mov	 eax, DWORD PTR [eax]
  0003d	ff 35 00 00 00
	00		 push	 DWORD PTR ?ms_lpd3dDevice@CGraphicBase@@1PAUIDirect3DDevice8@@A ; CGraphicBase::ms_lpd3dDevice
  00043	ff 50 50	 call	 DWORD PTR [eax+80]
  00046	85 c0		 test	 eax, eax
  00048	7d 07		 jge	 SHORT $LN3@CreateBlur

; 237  : 		return false;

  0004a	32 c0		 xor	 al, al
  0004c	e9 e9 00 00 00	 jmp	 $LN1@CreateBlur
$LN3@CreateBlur:

; 238  : 	if (FAILED(m_lpSnowTexture->GetSurfaceLevel(0, &m_lpSnowRenderTargetSurface)))

  00051	8b 45 fc	 mov	 eax, DWORD PTR _this$[ebp]
  00054	83 c0 10	 add	 eax, 16			; 00000010H
  00057	50		 push	 eax
  00058	6a 00		 push	 0
  0005a	8b 45 fc	 mov	 eax, DWORD PTR _this$[ebp]
  0005d	8b 40 0c	 mov	 eax, DWORD PTR [eax+12]
  00060	8b 4d fc	 mov	 ecx, DWORD PTR _this$[ebp]
  00063	8b 00		 mov	 eax, DWORD PTR [eax]
  00065	ff 71 0c	 push	 DWORD PTR [ecx+12]
  00068	ff 50 3c	 call	 DWORD PTR [eax+60]
  0006b	85 c0		 test	 eax, eax
  0006d	7d 07		 jge	 SHORT $LN4@CreateBlur

; 239  : 		return false;

  0006f	32 c0		 xor	 al, al
  00071	e9 c4 00 00 00	 jmp	 $LN1@CreateBlur
$LN4@CreateBlur:

; 240  : 	if (FAILED(ms_lpd3dDevice->CreateDepthStencilSurface(m_wBlurTextureSize, m_wBlurTextureSize, D3DFMT_D16, D3DMULTISAMPLE_NONE, &m_lpSnowDepthSurface)))

  00076	8b 45 fc	 mov	 eax, DWORD PTR _this$[ebp]
  00079	83 c0 14	 add	 eax, 20			; 00000014H
  0007c	50		 push	 eax
  0007d	6a 00		 push	 0
  0007f	6a 50		 push	 80			; 00000050H
  00081	8b 45 fc	 mov	 eax, DWORD PTR _this$[ebp]
  00084	0f b7 40 38	 movzx	 eax, WORD PTR [eax+56]
  00088	50		 push	 eax
  00089	8b 45 fc	 mov	 eax, DWORD PTR _this$[ebp]
  0008c	0f b7 40 38	 movzx	 eax, WORD PTR [eax+56]
  00090	50		 push	 eax
  00091	a1 00 00 00 00	 mov	 eax, DWORD PTR ?ms_lpd3dDevice@CGraphicBase@@1PAUIDirect3DDevice8@@A ; CGraphicBase::ms_lpd3dDevice
  00096	8b 00		 mov	 eax, DWORD PTR [eax]
  00098	ff 35 00 00 00
	00		 push	 DWORD PTR ?ms_lpd3dDevice@CGraphicBase@@1PAUIDirect3DDevice8@@A ; CGraphicBase::ms_lpd3dDevice
  0009e	ff 50 68	 call	 DWORD PTR [eax+104]
  000a1	85 c0		 test	 eax, eax
  000a3	7d 07		 jge	 SHORT $LN5@CreateBlur

; 241  : 		return false;

  000a5	32 c0		 xor	 al, al
  000a7	e9 8e 00 00 00	 jmp	 $LN1@CreateBlur
$LN5@CreateBlur:

; 242  : 
; 243  : 	if (FAILED(ms_lpd3dDevice->CreateTexture(m_wBlurTextureSize, m_wBlurTextureSize, 1, D3DUSAGE_RENDERTARGET, D3DFMT_X8R8G8B8, D3DPOOL_DEFAULT, &m_lpAccumTexture)))

  000ac	8b 45 fc	 mov	 eax, DWORD PTR _this$[ebp]
  000af	83 c0 18	 add	 eax, 24			; 00000018H
  000b2	50		 push	 eax
  000b3	6a 00		 push	 0
  000b5	6a 16		 push	 22			; 00000016H
  000b7	6a 01		 push	 1
  000b9	6a 01		 push	 1
  000bb	8b 45 fc	 mov	 eax, DWORD PTR _this$[ebp]
  000be	0f b7 40 38	 movzx	 eax, WORD PTR [eax+56]
  000c2	50		 push	 eax
  000c3	8b 45 fc	 mov	 eax, DWORD PTR _this$[ebp]
  000c6	0f b7 40 38	 movzx	 eax, WORD PTR [eax+56]
  000ca	50		 push	 eax
  000cb	a1 00 00 00 00	 mov	 eax, DWORD PTR ?ms_lpd3dDevice@CGraphicBase@@1PAUIDirect3DDevice8@@A ; CGraphicBase::ms_lpd3dDevice
  000d0	8b 00		 mov	 eax, DWORD PTR [eax]
  000d2	ff 35 00 00 00
	00		 push	 DWORD PTR ?ms_lpd3dDevice@CGraphicBase@@1PAUIDirect3DDevice8@@A ; CGraphicBase::ms_lpd3dDevice
  000d8	ff 50 50	 call	 DWORD PTR [eax+80]
  000db	85 c0		 test	 eax, eax
  000dd	7d 04		 jge	 SHORT $LN6@CreateBlur

; 244  : 		return false;

  000df	32 c0		 xor	 al, al
  000e1	eb 57		 jmp	 SHORT $LN1@CreateBlur
$LN6@CreateBlur:

; 245  : 	if (FAILED(m_lpAccumTexture->GetSurfaceLevel(0, &m_lpAccumRenderTargetSurface)))

  000e3	8b 45 fc	 mov	 eax, DWORD PTR _this$[ebp]
  000e6	83 c0 1c	 add	 eax, 28			; 0000001cH
  000e9	50		 push	 eax
  000ea	6a 00		 push	 0
  000ec	8b 45 fc	 mov	 eax, DWORD PTR _this$[ebp]
  000ef	8b 40 18	 mov	 eax, DWORD PTR [eax+24]
  000f2	8b 4d fc	 mov	 ecx, DWORD PTR _this$[ebp]
  000f5	8b 00		 mov	 eax, DWORD PTR [eax]
  000f7	ff 71 18	 push	 DWORD PTR [ecx+24]
  000fa	ff 50 3c	 call	 DWORD PTR [eax+60]
  000fd	85 c0		 test	 eax, eax
  000ff	7d 04		 jge	 SHORT $LN7@CreateBlur

; 246  : 		return false;

  00101	32 c0		 xor	 al, al
  00103	eb 35		 jmp	 SHORT $LN1@CreateBlur
$LN7@CreateBlur:

; 247  : 	if (FAILED(ms_lpd3dDevice->CreateDepthStencilSurface(m_wBlurTextureSize, m_wBlurTextureSize, D3DFMT_D16, D3DMULTISAMPLE_NONE, &m_lpAccumDepthSurface)))

  00105	8b 45 fc	 mov	 eax, DWORD PTR _this$[ebp]
  00108	83 c0 20	 add	 eax, 32			; 00000020H
  0010b	50		 push	 eax
  0010c	6a 00		 push	 0
  0010e	6a 50		 push	 80			; 00000050H
  00110	8b 45 fc	 mov	 eax, DWORD PTR _this$[ebp]
  00113	0f b7 40 38	 movzx	 eax, WORD PTR [eax+56]
  00117	50		 push	 eax
  00118	8b 45 fc	 mov	 eax, DWORD PTR _this$[ebp]
  0011b	0f b7 40 38	 movzx	 eax, WORD PTR [eax+56]
  0011f	50		 push	 eax
  00120	a1 00 00 00 00	 mov	 eax, DWORD PTR ?ms_lpd3dDevice@CGraphicBase@@1PAUIDirect3DDevice8@@A ; CGraphicBase::ms_lpd3dDevice
  00125	8b 00		 mov	 eax, DWORD PTR [eax]
  00127	ff 35 00 00 00
	00		 push	 DWORD PTR ?ms_lpd3dDevice@CGraphicBase@@1PAUIDirect3DDevice8@@A ; CGraphicBase::ms_lpd3dDevice
  0012d	ff 50 68	 call	 DWORD PTR [eax+104]
  00130	85 c0		 test	 eax, eax
  00132	7d 04		 jge	 SHORT $LN8@CreateBlur

; 248  : 		return false;

  00134	32 c0		 xor	 al, al
  00136	eb 02		 jmp	 SHORT $LN1@CreateBlur
$LN8@CreateBlur:

; 249  : 
; 250  : 	return true;

  00138	b0 01		 mov	 al, 1
$LN1@CreateBlur:

; 251  : }

  0013a	c9		 leave
  0013b	c3		 ret	 0
?__CreateBlurTexture@CSnowEnvironment@@IAE_NXZ ENDP	; CSnowEnvironment::__CreateBlurTexture
_TEXT	ENDS
; Function compile flags: /Odspy
; File D:\Metin2 Server Files\mainline\SRC_2014\Metin2Client\GameLib\SnowEnvironment.cpp
;	COMDAT ?__Initialize@CSnowEnvironment@@IAEXXZ
_TEXT	SEGMENT
_this$ = -4						; size = 4
?__Initialize@CSnowEnvironment@@IAEXXZ PROC		; CSnowEnvironment::__Initialize, COMDAT
; _this$ = ecx

; 327  : {

  00000	55		 push	 ebp
  00001	8b ec		 mov	 ebp, esp
  00003	51		 push	 ecx
  00004	89 4d fc	 mov	 DWORD PTR _this$[ebp], ecx

; 328  : 	m_bSnowEnable = FALSE;

  00007	8b 45 fc	 mov	 eax, DWORD PTR _this$[ebp]
  0000a	83 60 54 00	 and	 DWORD PTR [eax+84], 0

; 329  : 	m_lpSnowTexture = NULL;

  0000e	8b 45 fc	 mov	 eax, DWORD PTR _this$[ebp]
  00011	83 60 0c 00	 and	 DWORD PTR [eax+12], 0

; 330  : 	m_lpSnowRenderTargetSurface = NULL;

  00015	8b 45 fc	 mov	 eax, DWORD PTR _this$[ebp]
  00018	83 60 10 00	 and	 DWORD PTR [eax+16], 0

; 331  : 	m_lpSnowDepthSurface = NULL;

  0001c	8b 45 fc	 mov	 eax, DWORD PTR _this$[ebp]
  0001f	83 60 14 00	 and	 DWORD PTR [eax+20], 0

; 332  : 	m_lpAccumTexture = NULL;

  00023	8b 45 fc	 mov	 eax, DWORD PTR _this$[ebp]
  00026	83 60 18 00	 and	 DWORD PTR [eax+24], 0

; 333  : 	m_lpAccumRenderTargetSurface = NULL;

  0002a	8b 45 fc	 mov	 eax, DWORD PTR _this$[ebp]
  0002d	83 60 1c 00	 and	 DWORD PTR [eax+28], 0

; 334  : 	m_lpAccumDepthSurface = NULL;

  00031	8b 45 fc	 mov	 eax, DWORD PTR _this$[ebp]
  00034	83 60 20 00	 and	 DWORD PTR [eax+32], 0

; 335  : 	m_pVB = NULL;

  00038	8b 45 fc	 mov	 eax, DWORD PTR _this$[ebp]
  0003b	83 60 24 00	 and	 DWORD PTR [eax+36], 0

; 336  : 	m_pIB = NULL;

  0003f	8b 45 fc	 mov	 eax, DWORD PTR _this$[ebp]
  00042	83 60 28 00	 and	 DWORD PTR [eax+40], 0

; 337  : 	m_pImageInstance = NULL;

  00046	8b 45 fc	 mov	 eax, DWORD PTR _this$[ebp]
  00049	83 60 3c 00	 and	 DWORD PTR [eax+60], 0

; 338  : 
; 339  : 	m_kVct_pkParticleSnow.reserve(m_dwParticleMaxNum);

  0004d	8b 45 fc	 mov	 eax, DWORD PTR _this$[ebp]
  00050	ff 70 4c	 push	 DWORD PTR [eax+76]
  00053	8b 4d fc	 mov	 ecx, DWORD PTR _this$[ebp]
  00056	83 c1 40	 add	 ecx, 64			; 00000040H
  00059	e8 00 00 00 00	 call	 ?reserve@?$vector@PAVCSnowParticle@@V?$allocator@PAVCSnowParticle@@@std@@@std@@QAEXI@Z ; std::vector<CSnowParticle *,std::allocator<CSnowParticle *> >::reserve

; 340  : }

  0005e	c9		 leave
  0005f	c3		 ret	 0
?__Initialize@CSnowEnvironment@@IAEXXZ ENDP		; CSnowEnvironment::__Initialize
_TEXT	ENDS
; Function compile flags: /Odspy
; File D:\Metin2 Server Files\mainline\SRC_2014\Metin2Client\GameLib\SnowEnvironment.cpp
; File C:\Program Files (x86)\Microsoft Visual Studio\2019\Community\VC\Tools\MSVC\14.28.29333\include\vector
; File D:\Metin2 Server Files\mainline\SRC_2014\Metin2Client\GameLib\SnowEnvironment.cpp
; File C:\Program Files (x86)\Microsoft Visual Studio\2019\Community\VC\Tools\MSVC\14.28.29333\include\vector
; File D:\Metin2 Server Files\mainline\SRC_2014\Metin2Client\GameLib\SnowEnvironment.cpp
; File C:\Program Files (x86)\Microsoft Visual Studio\2019\Community\VC\Tools\MSVC\14.28.29333\include\vector
; File D:\Metin2 Server Files\mainline\SRC_2014\Metin2Client\GameLib\SnowEnvironment.cpp
; File D:\Metin2 Server Files\mainline\SRC_2014\Metin2Client\eterBase\Singleton.h
; File D:\Metin2 Server Files\mainline\SRC_2014\Metin2Client\GameLib\SnowEnvironment.cpp
; File D:\Metin2 Server Files\mainline\SRC_2014\Metin2Client\EterLib\Camera.h
; File D:\Metin2 Server Files\mainline\SRC_2014\Metin2Client\GameLib\SnowEnvironment.cpp
; File D:\Metin2 Server Files\mainline\SRC_2014\Metin2Client\EterLib\Camera.h
; File D:\Metin2 Server Files\mainline\SRC_2014\Metin2Client\GameLib\SnowEnvironment.cpp
; File C:\Program Files (x86)\Microsoft Visual Studio\2019\Community\VC\Tools\MSVC\14.28.29333\include\vector
; File D:\Metin2 Server Files\mainline\SRC_2014\Metin2Client\GameLib\SnowEnvironment.cpp
; File C:\Program Files (x86)\Microsoft Visual Studio\2019\Community\VC\Tools\MSVC\14.28.29333\include\vector
; File C:\Program Files (x86)\Microsoft Visual Studio\2019\Community\VC\Tools\MSVC\14.28.29333\include\xstddef
; File C:\Program Files (x86)\Microsoft Visual Studio\2019\Community\VC\Tools\MSVC\14.28.29333\include\vector
; File D:\Metin2 Server Files\mainline\SRC_2014\Metin2Client\GameLib\SnowEnvironment.cpp
; File C:\Program Files (x86)\Microsoft Visual Studio\2019\Community\VC\Tools\MSVC\14.28.29333\include\vector
; File D:\Metin2 Server Files\mainline\SRC_2014\Metin2Client\GameLib\SnowEnvironment.cpp
;	COMDAT ?Render@CSnowEnvironment@@QAEXXZ
_TEXT	SEGMENT
$T1 = -108						; size = 4
_c_rv3Up$ = -104					; size = 4
_c_rv3Cross$ = -100					; size = 4
$T2 = -96						; size = 4
$T3 = -92						; size = 4
$T4 = -88						; size = 4
$T5 = -84						; size = 4
___param0$ = -80					; size = 4
$T6 = -76						; size = 4
$T7 = -72						; size = 4
$T8 = -68						; size = 4
_pSnow$9 = -64						; size = 4
tv333 = -60						; size = 4
tv342 = -56						; size = 4
__My_data$10 = -52					; size = 4
__My_data$11 = -48					; size = 4
__My_data$12 = -44					; size = 4
tv292 = -40						; size = 4
__My_data$13 = -36					; size = 4
_pCamera$ = -32						; size = 4
tv81 = -28						; size = 4
_dwParticleCount$ = -24					; size = 4
_pv3Verticies$ = -20					; size = 4
_itor$14 = -16						; size = 4
_i$15 = -12						; size = 4
_this$ = -8						; size = 4
$T16 = -3						; size = 1
$T17 = -2						; size = 1
$T18 = -1						; size = 1
?Render@CSnowEnvironment@@QAEXXZ PROC			; CSnowEnvironment::Render, COMDAT
; _this$ = ecx

; 171  : {

  00000	55		 push	 ebp
  00001	8b ec		 mov	 ebp, esp
  00003	83 ec 6c	 sub	 esp, 108		; 0000006cH
  00006	89 4d f8	 mov	 DWORD PTR _this$[ebp], ecx

; 172  : 	if (!m_bSnowEnable)

  00009	8b 45 f8	 mov	 eax, DWORD PTR _this$[ebp]
  0000c	83 78 54 00	 cmp	 DWORD PTR [eax+84], 0
  00010	75 36		 jne	 SHORT $LN5@Render
; File C:\Program Files (x86)\Microsoft Visual Studio\2019\Community\VC\Tools\MSVC\14.28.29333\include\vector

; 1478 :         auto& _My_data = _Mypair._Myval2;

  00012	8b 45 f8	 mov	 eax, DWORD PTR _this$[ebp]
  00015	83 c0 40	 add	 eax, 64			; 00000040H
  00018	89 45 dc	 mov	 DWORD PTR __My_data$13[ebp], eax

; 1479 :         return _My_data._Myfirst == _My_data._Mylast;

  0001b	8b 45 dc	 mov	 eax, DWORD PTR __My_data$13[ebp]
  0001e	8b 4d dc	 mov	 ecx, DWORD PTR __My_data$13[ebp]
  00021	8b 00		 mov	 eax, DWORD PTR [eax]
  00023	3b 41 04	 cmp	 eax, DWORD PTR [ecx+4]
  00026	75 09		 jne	 SHORT $LN14@Render
  00028	c7 45 d8 01 00
	00 00		 mov	 DWORD PTR tv292[ebp], 1
  0002f	eb 04		 jmp	 SHORT $LN15@Render
$LN14@Render:
  00031	83 65 d8 00	 and	 DWORD PTR tv292[ebp], 0
$LN15@Render:
  00035	8a 45 d8	 mov	 al, BYTE PTR tv292[ebp]
  00038	88 45 ff	 mov	 BYTE PTR $T18[ebp], al
; File D:\Metin2 Server Files\mainline\SRC_2014\Metin2Client\GameLib\SnowEnvironment.cpp

; 174  : 		if (m_kVct_pkParticleSnow.empty())

  0003b	0f b6 45 ff	 movzx	 eax, BYTE PTR $T18[ebp]
  0003f	85 c0		 test	 eax, eax
  00041	74 05		 je	 SHORT $LN5@Render

; 175  : 			return;

  00043	e9 37 03 00 00	 jmp	 $LN1@Render
$LN5@Render:

; 176  : 	}
; 177  : 
; 178  : 	__BeginBlur();

  00048	8b 4d f8	 mov	 ecx, DWORD PTR _this$[ebp]
  0004b	e8 00 00 00 00	 call	 ?__BeginBlur@CSnowEnvironment@@IAEXXZ ; CSnowEnvironment::__BeginBlur
; File C:\Program Files (x86)\Microsoft Visual Studio\2019\Community\VC\Tools\MSVC\14.28.29333\include\vector

; 1483 :         auto& _My_data = _Mypair._Myval2;

  00050	8b 45 f8	 mov	 eax, DWORD PTR _this$[ebp]
  00053	83 c0 40	 add	 eax, 64			; 00000040H
  00056	89 45 d4	 mov	 DWORD PTR __My_data$12[ebp], eax

; 1484 :         return static_cast<size_type>(_My_data._Mylast - _My_data._Myfirst);

  00059	8b 45 d4	 mov	 eax, DWORD PTR __My_data$12[ebp]
  0005c	8b 4d d4	 mov	 ecx, DWORD PTR __My_data$12[ebp]
  0005f	8b 40 04	 mov	 eax, DWORD PTR [eax+4]
  00062	2b 01		 sub	 eax, DWORD PTR [ecx]
  00064	c1 f8 02	 sar	 eax, 2
  00067	89 45 bc	 mov	 DWORD PTR $T8[ebp], eax
; File D:\Metin2 Server Files\mainline\SRC_2014\Metin2Client\GameLib\SnowEnvironment.cpp

; 180  : 	DWORD dwParticleCount = min(m_dwParticleMaxNum, m_kVct_pkParticleSnow.size());

  0006a	8b 45 f8	 mov	 eax, DWORD PTR _this$[ebp]
  0006d	8b 40 4c	 mov	 eax, DWORD PTR [eax+76]
  00070	3b 45 bc	 cmp	 eax, DWORD PTR $T8[ebp]
  00073	73 0b		 jae	 SHORT $LN10@Render
  00075	8b 45 f8	 mov	 eax, DWORD PTR _this$[ebp]
  00078	8b 40 4c	 mov	 eax, DWORD PTR [eax+76]
  0007b	89 45 e4	 mov	 DWORD PTR tv81[ebp], eax
  0007e	eb 20		 jmp	 SHORT $LN11@Render
$LN10@Render:
  00080	8b 45 94	 mov	 eax, DWORD PTR $T1[ebp]
  00083	89 45 e4	 mov	 DWORD PTR tv81[ebp], eax
; File C:\Program Files (x86)\Microsoft Visual Studio\2019\Community\VC\Tools\MSVC\14.28.29333\include\vector

; 1483 :         auto& _My_data = _Mypair._Myval2;

  00086	8b 45 f8	 mov	 eax, DWORD PTR _this$[ebp]
  00089	83 c0 40	 add	 eax, 64			; 00000040H
  0008c	89 45 d0	 mov	 DWORD PTR __My_data$11[ebp], eax

; 1484 :         return static_cast<size_type>(_My_data._Mylast - _My_data._Myfirst);

  0008f	8b 45 d0	 mov	 eax, DWORD PTR __My_data$11[ebp]
  00092	8b 4d d0	 mov	 ecx, DWORD PTR __My_data$11[ebp]
  00095	8b 40 04	 mov	 eax, DWORD PTR [eax+4]
  00098	2b 01		 sub	 eax, DWORD PTR [ecx]
  0009a	c1 f8 02	 sar	 eax, 2
  0009d	89 45 e4	 mov	 DWORD PTR tv81[ebp], eax
$LN11@Render:
; File D:\Metin2 Server Files\mainline\SRC_2014\Metin2Client\GameLib\SnowEnvironment.cpp

; 180  : 	DWORD dwParticleCount = min(m_dwParticleMaxNum, m_kVct_pkParticleSnow.size());

  000a0	8b 45 e4	 mov	 eax, DWORD PTR tv81[ebp]
  000a3	89 45 e8	 mov	 DWORD PTR _dwParticleCount$[ebp], eax
; File D:\Metin2 Server Files\mainline\SRC_2014\Metin2Client\eterBase\Singleton.h

; 27   : 		return (*ms_singleton);

  000a6	a1 00 00 00 00	 mov	 eax, DWORD PTR ?ms_singleton@?$CSingleton@VCCameraManager@@@@0PAVCCameraManager@@A ; CSingleton<CCameraManager>::ms_singleton
  000ab	89 45 b8	 mov	 DWORD PTR $T7[ebp], eax
; File D:\Metin2 Server Files\mainline\SRC_2014\Metin2Client\GameLib\SnowEnvironment.cpp

; 182  : 	CCamera * pCamera = CCameraManager::Instance().GetCurrentCamera();

  000ae	8b 4d b8	 mov	 ecx, DWORD PTR $T7[ebp]
  000b1	e8 00 00 00 00	 call	 ?GetCurrentCamera@CCameraManager@@QAEPAVCCamera@@XZ ; CCameraManager::GetCurrentCamera
  000b6	89 45 e0	 mov	 DWORD PTR _pCamera$[ebp], eax

; 183  : 	if (!pCamera)

  000b9	83 7d e0 00	 cmp	 DWORD PTR _pCamera$[ebp], 0
  000bd	75 05		 jne	 SHORT $LN25@Render

; 184  : 		return;

  000bf	e9 bb 02 00 00	 jmp	 $LN1@Render
$LN25@Render:
; File D:\Metin2 Server Files\mainline\SRC_2014\Metin2Client\EterLib\Camera.h

; 170  : 		const D3DXVECTOR3 & GetUp() const		{ return m_v3Up; }

  000c4	8b 45 e0	 mov	 eax, DWORD PTR _pCamera$[ebp]
  000c7	83 c0 48	 add	 eax, 72			; 00000048H
; File D:\Metin2 Server Files\mainline\SRC_2014\Metin2Client\GameLib\SnowEnvironment.cpp

; 186  : 	const D3DXVECTOR3 & c_rv3Up = pCamera->GetUp();

  000ca	89 45 98	 mov	 DWORD PTR _c_rv3Up$[ebp], eax
; File D:\Metin2 Server Files\mainline\SRC_2014\Metin2Client\EterLib\Camera.h

; 172  : 		const D3DXVECTOR3 & GetCross() const	{ return m_v3Cross; }

  000cd	8b 45 e0	 mov	 eax, DWORD PTR _pCamera$[ebp]
  000d0	83 c0 60	 add	 eax, 96			; 00000060H
; File D:\Metin2 Server Files\mainline\SRC_2014\Metin2Client\GameLib\SnowEnvironment.cpp

; 187  : 	const D3DXVECTOR3 & c_rv3Cross = pCamera->GetCross();

  000d3	89 45 9c	 mov	 DWORD PTR _c_rv3Cross$[ebp], eax

; 188  : 
; 189  : 	SParticleVertex * pv3Verticies;
; 190  : 	if (SUCCEEDED(m_pVB->Lock(0, sizeof(SParticleVertex)*dwParticleCount*4, (BYTE **) &pv3Verticies, D3DLOCK_DISCARD)))

  000d6	68 00 20 00 00	 push	 8192			; 00002000H
  000db	8d 45 ec	 lea	 eax, DWORD PTR _pv3Verticies$[ebp]
  000de	50		 push	 eax
  000df	6b 45 e8 14	 imul	 eax, DWORD PTR _dwParticleCount$[ebp], 20
  000e3	c1 e0 02	 shl	 eax, 2
  000e6	50		 push	 eax
  000e7	6a 00		 push	 0
  000e9	8b 45 f8	 mov	 eax, DWORD PTR _this$[ebp]
  000ec	8b 40 24	 mov	 eax, DWORD PTR [eax+36]
  000ef	8b 4d f8	 mov	 ecx, DWORD PTR _this$[ebp]
  000f2	8b 00		 mov	 eax, DWORD PTR [eax]
  000f4	ff 71 24	 push	 DWORD PTR [ecx+36]
  000f7	ff 50 2c	 call	 DWORD PTR [eax+44]
  000fa	85 c0		 test	 eax, eax
  000fc	0f 8c 1d 01 00
	00		 jl	 $LN72@Render

; 191  : 	{
; 192  : 		int i = 0;

  00102	83 65 f4 00	 and	 DWORD PTR _i$15[ebp], 0

; 193  : 		std::vector<CSnowParticle*>::iterator itor = m_kVct_pkParticleSnow.begin();

  00106	8d 45 f0	 lea	 eax, DWORD PTR _itor$14[ebp]
  00109	50		 push	 eax
  0010a	8b 4d f8	 mov	 ecx, DWORD PTR _this$[ebp]
  0010d	83 c1 40	 add	 ecx, 64			; 00000040H
  00110	e8 00 00 00 00	 call	 ?begin@?$vector@PAVCSnowParticle@@V?$allocator@PAVCSnowParticle@@@std@@@std@@QAE?AV?$_Vector_iterator@V?$_Vector_val@U?$_Simple_types@PAVCSnowParticle@@@std@@@std@@@2@XZ ; std::vector<CSnowParticle *,std::allocator<CSnowParticle *> >::begin

; 194  : 		for (; i < dwParticleCount && itor != m_kVct_pkParticleSnow.end(); ++i, ++itor)

  00115	eb 10		 jmp	 SHORT $LN4@Render
$LN2@Render:
  00117	8b 45 f4	 mov	 eax, DWORD PTR _i$15[ebp]
  0011a	40		 inc	 eax
  0011b	89 45 f4	 mov	 DWORD PTR _i$15[ebp], eax
; File C:\Program Files (x86)\Microsoft Visual Studio\2019\Community\VC\Tools\MSVC\14.28.29333\include\vector

; 75   :         ++_Ptr;

  0011e	8b 45 f0	 mov	 eax, DWORD PTR _itor$14[ebp]
  00121	83 c0 04	 add	 eax, 4
  00124	89 45 f0	 mov	 DWORD PTR _itor$14[ebp], eax
$LN4@Render:
; File D:\Metin2 Server Files\mainline\SRC_2014\Metin2Client\GameLib\SnowEnvironment.cpp

; 194  : 		for (; i < dwParticleCount && itor != m_kVct_pkParticleSnow.end(); ++i, ++itor)

  00127	8b 45 f4	 mov	 eax, DWORD PTR _i$15[ebp]
  0012a	3b 45 e8	 cmp	 eax, DWORD PTR _dwParticleCount$[ebp]
  0012d	0f 83 db 00 00
	00		 jae	 $LN3@Render
; File C:\Program Files (x86)\Microsoft Visual Studio\2019\Community\VC\Tools\MSVC\14.28.29333\include\vector

; 1420 :         auto& _My_data = _Mypair._Myval2;

  00133	8b 45 f8	 mov	 eax, DWORD PTR _this$[ebp]
  00136	83 c0 40	 add	 eax, 64			; 00000040H
  00139	89 45 cc	 mov	 DWORD PTR __My_data$10[ebp], eax
; File C:\Program Files (x86)\Microsoft Visual Studio\2019\Community\VC\Tools\MSVC\14.28.29333\include\xstddef

; 275  :     return __builtin_addressof(_Val);

  0013c	8b 45 cc	 mov	 eax, DWORD PTR __My_data$10[ebp]
  0013f	89 45 b4	 mov	 DWORD PTR $T6[ebp], eax
; File C:\Program Files (x86)\Microsoft Visual Studio\2019\Community\VC\Tools\MSVC\14.28.29333\include\vector

; 1421 :         return iterator(_My_data._Mylast, _STD addressof(_My_data));

  00142	8b 45 cc	 mov	 eax, DWORD PTR __My_data$10[ebp]
  00145	8b 40 04	 mov	 eax, DWORD PTR [eax+4]
  00148	89 45 b0	 mov	 DWORD PTR ___param0$[ebp], eax
  0014b	ff 75 b4	 push	 DWORD PTR $T6[ebp]
  0014e	ff 75 b0	 push	 DWORD PTR ___param0$[ebp]
  00151	8d 4d ac	 lea	 ecx, DWORD PTR $T5[ebp]
  00154	e8 00 00 00 00	 call	 ??0?$_Vector_const_iterator@V?$_Vector_val@U?$_Simple_types@PAVCSnowParticle@@@std@@@std@@@std@@QAE@PAPAVCSnowParticle@@PBU_Container_base0@1@@Z ; std::_Vector_const_iterator<std::_Vector_val<std::_Simple_types<CSnowParticle *> > >::_Vector_const_iterator<std::_Vector_val<std::_Simple_types<CSnowParticle *> > >
  00159	8d 45 ac	 lea	 eax, DWORD PTR $T5[ebp]
  0015c	89 45 a8	 mov	 DWORD PTR $T4[ebp], eax

; 149  :         return _Ptr == _Right._Ptr;

  0015f	8b 45 a8	 mov	 eax, DWORD PTR $T4[ebp]
  00162	8b 4d f0	 mov	 ecx, DWORD PTR _itor$14[ebp]
  00165	3b 08		 cmp	 ecx, DWORD PTR [eax]
  00167	75 09		 jne	 SHORT $LN60@Render
  00169	c7 45 c8 01 00
	00 00		 mov	 DWORD PTR tv342[ebp], 1
  00170	eb 04		 jmp	 SHORT $LN61@Render
$LN60@Render:
  00172	83 65 c8 00	 and	 DWORD PTR tv342[ebp], 0
$LN61@Render:
  00176	8a 45 c8	 mov	 al, BYTE PTR tv342[ebp]
  00179	88 45 fe	 mov	 BYTE PTR $T17[ebp], al

; 153  :         return !(*this == _Right);

  0017c	0f b6 45 fe	 movzx	 eax, BYTE PTR $T17[ebp]
  00180	85 c0		 test	 eax, eax
  00182	75 09		 jne	 SHORT $LN55@Render
  00184	c7 45 c4 01 00
	00 00		 mov	 DWORD PTR tv333[ebp], 1
  0018b	eb 04		 jmp	 SHORT $LN56@Render
$LN55@Render:
  0018d	83 65 c4 00	 and	 DWORD PTR tv333[ebp], 0
$LN56@Render:
  00191	8a 45 c4	 mov	 al, BYTE PTR tv333[ebp]
  00194	88 45 fd	 mov	 BYTE PTR $T16[ebp], al
; File D:\Metin2 Server Files\mainline\SRC_2014\Metin2Client\GameLib\SnowEnvironment.cpp

; 194  : 		for (; i < dwParticleCount && itor != m_kVct_pkParticleSnow.end(); ++i, ++itor)

  00197	0f b6 45 fd	 movzx	 eax, BYTE PTR $T16[ebp]
  0019b	85 c0		 test	 eax, eax
  0019d	74 6f		 je	 SHORT $LN3@Render
; File C:\Program Files (x86)\Microsoft Visual Studio\2019\Community\VC\Tools\MSVC\14.28.29333\include\vector

; 54   :         return *_Ptr;

  0019f	8b 45 f0	 mov	 eax, DWORD PTR _itor$14[ebp]
  001a2	89 45 a4	 mov	 DWORD PTR $T3[ebp], eax

; 252  :         return const_cast<reference>(_Mybase::operator*());

  001a5	8b 45 a4	 mov	 eax, DWORD PTR $T3[ebp]
  001a8	89 45 a0	 mov	 DWORD PTR $T2[ebp], eax
; File D:\Metin2 Server Files\mainline\SRC_2014\Metin2Client\GameLib\SnowEnvironment.cpp

; 196  : 			CSnowParticle * pSnow = *itor;

  001ab	8b 45 a0	 mov	 eax, DWORD PTR $T2[ebp]
  001ae	8b 00		 mov	 eax, DWORD PTR [eax]
  001b0	89 45 c0	 mov	 DWORD PTR _pSnow$9[ebp], eax

; 197  : 			pSnow->SetCameraVertex(c_rv3Up, c_rv3Cross);

  001b3	ff 75 9c	 push	 DWORD PTR _c_rv3Cross$[ebp]
  001b6	ff 75 98	 push	 DWORD PTR _c_rv3Up$[ebp]
  001b9	8b 4d c0	 mov	 ecx, DWORD PTR _pSnow$9[ebp]
  001bc	e8 00 00 00 00	 call	 ?SetCameraVertex@CSnowParticle@@QAEXABUD3DXVECTOR3@@0@Z ; CSnowParticle::SetCameraVertex

; 198  : 			pSnow->GetVerticies(pv3Verticies[i*4+0],

  001c1	8b 45 f4	 mov	 eax, DWORD PTR _i$15[ebp]
  001c4	8d 04 85 03 00
	00 00		 lea	 eax, DWORD PTR [eax*4+3]
  001cb	6b c0 14	 imul	 eax, eax, 20
  001ce	03 45 ec	 add	 eax, DWORD PTR _pv3Verticies$[ebp]
  001d1	50		 push	 eax
  001d2	8b 45 f4	 mov	 eax, DWORD PTR _i$15[ebp]
  001d5	8d 04 85 02 00
	00 00		 lea	 eax, DWORD PTR [eax*4+2]
  001dc	6b c0 14	 imul	 eax, eax, 20
  001df	03 45 ec	 add	 eax, DWORD PTR _pv3Verticies$[ebp]
  001e2	50		 push	 eax
  001e3	8b 45 f4	 mov	 eax, DWORD PTR _i$15[ebp]
  001e6	8d 04 85 01 00
	00 00		 lea	 eax, DWORD PTR [eax*4+1]
  001ed	6b c0 14	 imul	 eax, eax, 20
  001f0	03 45 ec	 add	 eax, DWORD PTR _pv3Verticies$[ebp]
  001f3	50		 push	 eax
  001f4	8b 45 f4	 mov	 eax, DWORD PTR _i$15[ebp]
  001f7	c1 e0 02	 shl	 eax, 2
  001fa	6b c0 14	 imul	 eax, eax, 20
  001fd	03 45 ec	 add	 eax, DWORD PTR _pv3Verticies$[ebp]
  00200	50		 push	 eax
  00201	8b 4d c0	 mov	 ecx, DWORD PTR _pSnow$9[ebp]
  00204	e8 00 00 00 00	 call	 ?GetVerticies@CSnowParticle@@QAEXAAUSParticleVertex@@000@Z ; CSnowParticle::GetVerticies

; 199  : 								pv3Verticies[i*4+1],
; 200  : 								pv3Verticies[i*4+2],
; 201  : 								pv3Verticies[i*4+3]);
; 202  : 		}

  00209	e9 09 ff ff ff	 jmp	 $LN2@Render
$LN3@Render:

; 203  : 		m_pVB->Unlock();

  0020e	8b 45 f8	 mov	 eax, DWORD PTR _this$[ebp]
  00211	8b 40 24	 mov	 eax, DWORD PTR [eax+36]
  00214	8b 4d f8	 mov	 ecx, DWORD PTR _this$[ebp]
  00217	8b 00		 mov	 eax, DWORD PTR [eax]
  00219	ff 71 24	 push	 DWORD PTR [ecx+36]
  0021c	ff 50 30	 call	 DWORD PTR [eax+48]
$LN72@Render:

; 204  : 	}
; 205  : 
; 206  : 	STATEMANAGER.SaveRenderState(D3DRS_ZWRITEENABLE, FALSE);

  0021f	6a 00		 push	 0
  00221	6a 0e		 push	 14			; 0000000eH
  00223	8b 0d 00 00 00
	00		 mov	 ecx, DWORD PTR ?ms_singleton@?$CSingleton@VCStateManager@@@@0PAVCStateManager@@A ; CSingleton<CStateManager>::ms_singleton
  00229	e8 00 00 00 00	 call	 ?SaveRenderState@CStateManager@@QAEXW4_D3DRENDERSTATETYPE@@K@Z ; CStateManager::SaveRenderState

; 207  : 	STATEMANAGER.SaveRenderState(D3DRS_ALPHABLENDENABLE, TRUE);

  0022e	6a 01		 push	 1
  00230	6a 1b		 push	 27			; 0000001bH
  00232	8b 0d 00 00 00
	00		 mov	 ecx, DWORD PTR ?ms_singleton@?$CSingleton@VCStateManager@@@@0PAVCStateManager@@A ; CSingleton<CStateManager>::ms_singleton
  00238	e8 00 00 00 00	 call	 ?SaveRenderState@CStateManager@@QAEXW4_D3DRENDERSTATETYPE@@K@Z ; CStateManager::SaveRenderState

; 208  : 	STATEMANAGER.SaveRenderState(D3DRS_CULLMODE, D3DCULL_NONE);

  0023d	6a 01		 push	 1
  0023f	6a 16		 push	 22			; 00000016H
  00241	8b 0d 00 00 00
	00		 mov	 ecx, DWORD PTR ?ms_singleton@?$CSingleton@VCStateManager@@@@0PAVCStateManager@@A ; CSingleton<CStateManager>::ms_singleton
  00247	e8 00 00 00 00	 call	 ?SaveRenderState@CStateManager@@QAEXW4_D3DRENDERSTATETYPE@@K@Z ; CStateManager::SaveRenderState

; 209  : 	STATEMANAGER.SetRenderState(D3DRS_SRCBLEND,  D3DBLEND_SRCALPHA);

  0024c	6a 05		 push	 5
  0024e	6a 13		 push	 19			; 00000013H
  00250	8b 0d 00 00 00
	00		 mov	 ecx, DWORD PTR ?ms_singleton@?$CSingleton@VCStateManager@@@@0PAVCStateManager@@A ; CSingleton<CStateManager>::ms_singleton
  00256	e8 00 00 00 00	 call	 ?SetRenderState@CStateManager@@QAEXW4_D3DRENDERSTATETYPE@@K@Z ; CStateManager::SetRenderState

; 210  : 	STATEMANAGER.SetRenderState(D3DRS_DESTBLEND, D3DBLEND_INVSRCALPHA);

  0025b	6a 06		 push	 6
  0025d	6a 14		 push	 20			; 00000014H
  0025f	8b 0d 00 00 00
	00		 mov	 ecx, DWORD PTR ?ms_singleton@?$CSingleton@VCStateManager@@@@0PAVCStateManager@@A ; CSingleton<CStateManager>::ms_singleton
  00265	e8 00 00 00 00	 call	 ?SetRenderState@CStateManager@@QAEXW4_D3DRENDERSTATETYPE@@K@Z ; CStateManager::SetRenderState

; 211  : 	STATEMANAGER.SetTextureStageState(0, D3DTSS_COLORARG1, D3DTA_TEXTURE);

  0026a	6a 02		 push	 2
  0026c	6a 02		 push	 2
  0026e	6a 00		 push	 0
  00270	8b 0d 00 00 00
	00		 mov	 ecx, DWORD PTR ?ms_singleton@?$CSingleton@VCStateManager@@@@0PAVCStateManager@@A ; CSingleton<CStateManager>::ms_singleton
  00276	e8 00 00 00 00	 call	 ?SetTextureStageState@CStateManager@@QAEXKW4_D3DTEXTURESTAGESTATETYPE@@K@Z ; CStateManager::SetTextureStageState

; 212  : 	STATEMANAGER.SetTextureStageState(0, D3DTSS_COLOROP, D3DTOP_SELECTARG1);

  0027b	6a 02		 push	 2
  0027d	6a 01		 push	 1
  0027f	6a 00		 push	 0
  00281	8b 0d 00 00 00
	00		 mov	 ecx, DWORD PTR ?ms_singleton@?$CSingleton@VCStateManager@@@@0PAVCStateManager@@A ; CSingleton<CStateManager>::ms_singleton
  00287	e8 00 00 00 00	 call	 ?SetTextureStageState@CStateManager@@QAEXKW4_D3DTEXTURESTAGESTATETYPE@@K@Z ; CStateManager::SetTextureStageState

; 213  : 	STATEMANAGER.SetTextureStageState(0, D3DTSS_ALPHAARG1, D3DTA_TEXTURE);

  0028c	6a 02		 push	 2
  0028e	6a 05		 push	 5
  00290	6a 00		 push	 0
  00292	8b 0d 00 00 00
	00		 mov	 ecx, DWORD PTR ?ms_singleton@?$CSingleton@VCStateManager@@@@0PAVCStateManager@@A ; CSingleton<CStateManager>::ms_singleton
  00298	e8 00 00 00 00	 call	 ?SetTextureStageState@CStateManager@@QAEXKW4_D3DTEXTURESTAGESTATETYPE@@K@Z ; CStateManager::SetTextureStageState

; 214  : 	STATEMANAGER.SetTextureStageState(0, D3DTSS_ALPHAOP, D3DTOP_SELECTARG1);

  0029d	6a 02		 push	 2
  0029f	6a 04		 push	 4
  002a1	6a 00		 push	 0
  002a3	8b 0d 00 00 00
	00		 mov	 ecx, DWORD PTR ?ms_singleton@?$CSingleton@VCStateManager@@@@0PAVCStateManager@@A ; CSingleton<CStateManager>::ms_singleton
  002a9	e8 00 00 00 00	 call	 ?SetTextureStageState@CStateManager@@QAEXKW4_D3DTEXTURESTAGESTATETYPE@@K@Z ; CStateManager::SetTextureStageState

; 215  : 	STATEMANAGER.SetTexture(1, NULL);

  002ae	6a 00		 push	 0
  002b0	6a 01		 push	 1
  002b2	8b 0d 00 00 00
	00		 mov	 ecx, DWORD PTR ?ms_singleton@?$CSingleton@VCStateManager@@@@0PAVCStateManager@@A ; CSingleton<CStateManager>::ms_singleton
  002b8	e8 00 00 00 00	 call	 ?SetTexture@CStateManager@@QAEXKPAUIDirect3DBaseTexture8@@@Z ; CStateManager::SetTexture

; 216  : 	STATEMANAGER.SetTextureStageState(1, D3DTSS_COLOROP, D3DTOP_DISABLE);

  002bd	6a 01		 push	 1
  002bf	6a 01		 push	 1
  002c1	6a 01		 push	 1
  002c3	8b 0d 00 00 00
	00		 mov	 ecx, DWORD PTR ?ms_singleton@?$CSingleton@VCStateManager@@@@0PAVCStateManager@@A ; CSingleton<CStateManager>::ms_singleton
  002c9	e8 00 00 00 00	 call	 ?SetTextureStageState@CStateManager@@QAEXKW4_D3DTEXTURESTAGESTATETYPE@@K@Z ; CStateManager::SetTextureStageState

; 217  : 	STATEMANAGER.SetTextureStageState(1, D3DTSS_ALPHAOP, D3DTOP_DISABLE);

  002ce	6a 01		 push	 1
  002d0	6a 04		 push	 4
  002d2	6a 01		 push	 1
  002d4	8b 0d 00 00 00
	00		 mov	 ecx, DWORD PTR ?ms_singleton@?$CSingleton@VCStateManager@@@@0PAVCStateManager@@A ; CSingleton<CStateManager>::ms_singleton
  002da	e8 00 00 00 00	 call	 ?SetTextureStageState@CStateManager@@QAEXKW4_D3DTEXTURESTAGESTATETYPE@@K@Z ; CStateManager::SetTextureStageState

; 218  : 
; 219  : 	m_pImageInstance->GetGraphicImagePointer()->GetTextureReference().SetTextureStage(0);

  002df	6a 00		 push	 0
  002e1	8b 45 f8	 mov	 eax, DWORD PTR _this$[ebp]
  002e4	8b 48 3c	 mov	 ecx, DWORD PTR [eax+60]
  002e7	e8 00 00 00 00	 call	 ?GetGraphicImagePointer@CGraphicImageInstance@@QAEPAVCGraphicImage@@XZ ; CGraphicImageInstance::GetGraphicImagePointer
  002ec	8b c8		 mov	 ecx, eax
  002ee	e8 00 00 00 00	 call	 ?GetTextureReference@CGraphicImage@@QBEABVCGraphicTexture@@XZ ; CGraphicImage::GetTextureReference
  002f3	8b c8		 mov	 ecx, eax
  002f5	e8 00 00 00 00	 call	 ?SetTextureStage@CGraphicTexture@@QBEXH@Z ; CGraphicTexture::SetTextureStage

; 220  : 	STATEMANAGER.SetIndices(m_pIB, 0);

  002fa	6a 00		 push	 0
  002fc	8b 45 f8	 mov	 eax, DWORD PTR _this$[ebp]
  002ff	ff 70 28	 push	 DWORD PTR [eax+40]
  00302	8b 0d 00 00 00
	00		 mov	 ecx, DWORD PTR ?ms_singleton@?$CSingleton@VCStateManager@@@@0PAVCStateManager@@A ; CSingleton<CStateManager>::ms_singleton
  00308	e8 00 00 00 00	 call	 ?SetIndices@CStateManager@@QAEXPAUIDirect3DIndexBuffer8@@I@Z ; CStateManager::SetIndices

; 221  : 	STATEMANAGER.SetStreamSource(0, m_pVB, sizeof(SParticleVertex));

  0030d	6a 14		 push	 20			; 00000014H
  0030f	8b 45 f8	 mov	 eax, DWORD PTR _this$[ebp]
  00312	ff 70 24	 push	 DWORD PTR [eax+36]
  00315	6a 00		 push	 0
  00317	8b 0d 00 00 00
	00		 mov	 ecx, DWORD PTR ?ms_singleton@?$CSingleton@VCStateManager@@@@0PAVCStateManager@@A ; CSingleton<CStateManager>::ms_singleton
  0031d	e8 00 00 00 00	 call	 ?SetStreamSource@CStateManager@@QAEXIPAUIDirect3DVertexBuffer8@@I@Z ; CStateManager::SetStreamSource

; 222  : 	STATEMANAGER.SetVertexShader(D3DFVF_XYZ | D3DFVF_TEX1);

  00322	68 02 01 00 00	 push	 258			; 00000102H
  00327	8b 0d 00 00 00
	00		 mov	 ecx, DWORD PTR ?ms_singleton@?$CSingleton@VCStateManager@@@@0PAVCStateManager@@A ; CSingleton<CStateManager>::ms_singleton
  0032d	e8 00 00 00 00	 call	 ?SetVertexShader@CStateManager@@QAEXK@Z ; CStateManager::SetVertexShader

; 223  : 	STATEMANAGER.DrawIndexedPrimitive(D3DPT_TRIANGLELIST, 0, dwParticleCount*4, 0, dwParticleCount*2);

  00332	8b 45 e8	 mov	 eax, DWORD PTR _dwParticleCount$[ebp]
  00335	d1 e0		 shl	 eax, 1
  00337	50		 push	 eax
  00338	6a 00		 push	 0
  0033a	8b 45 e8	 mov	 eax, DWORD PTR _dwParticleCount$[ebp]
  0033d	c1 e0 02	 shl	 eax, 2
  00340	50		 push	 eax
  00341	6a 00		 push	 0
  00343	6a 04		 push	 4
  00345	8b 0d 00 00 00
	00		 mov	 ecx, DWORD PTR ?ms_singleton@?$CSingleton@VCStateManager@@@@0PAVCStateManager@@A ; CSingleton<CStateManager>::ms_singleton
  0034b	e8 00 00 00 00	 call	 ?DrawIndexedPrimitive@CStateManager@@QAEJW4_D3DPRIMITIVETYPE@@IIII@Z ; CStateManager::DrawIndexedPrimitive

; 224  : 	STATEMANAGER.RestoreRenderState(D3DRS_ALPHABLENDENABLE);

  00350	6a 1b		 push	 27			; 0000001bH
  00352	8b 0d 00 00 00
	00		 mov	 ecx, DWORD PTR ?ms_singleton@?$CSingleton@VCStateManager@@@@0PAVCStateManager@@A ; CSingleton<CStateManager>::ms_singleton
  00358	e8 00 00 00 00	 call	 ?RestoreRenderState@CStateManager@@QAEXW4_D3DRENDERSTATETYPE@@@Z ; CStateManager::RestoreRenderState

; 225  : 	STATEMANAGER.RestoreRenderState(D3DRS_ZWRITEENABLE);

  0035d	6a 0e		 push	 14			; 0000000eH
  0035f	8b 0d 00 00 00
	00		 mov	 ecx, DWORD PTR ?ms_singleton@?$CSingleton@VCStateManager@@@@0PAVCStateManager@@A ; CSingleton<CStateManager>::ms_singleton
  00365	e8 00 00 00 00	 call	 ?RestoreRenderState@CStateManager@@QAEXW4_D3DRENDERSTATETYPE@@@Z ; CStateManager::RestoreRenderState

; 226  : 	STATEMANAGER.RestoreRenderState(D3DRS_CULLMODE);

  0036a	6a 16		 push	 22			; 00000016H
  0036c	8b 0d 00 00 00
	00		 mov	 ecx, DWORD PTR ?ms_singleton@?$CSingleton@VCStateManager@@@@0PAVCStateManager@@A ; CSingleton<CStateManager>::ms_singleton
  00372	e8 00 00 00 00	 call	 ?RestoreRenderState@CStateManager@@QAEXW4_D3DRENDERSTATETYPE@@@Z ; CStateManager::RestoreRenderState

; 227  : 
; 228  : 	__ApplyBlur();

  00377	8b 4d f8	 mov	 ecx, DWORD PTR _this$[ebp]
  0037a	e8 00 00 00 00	 call	 ?__ApplyBlur@CSnowEnvironment@@IAEXXZ ; CSnowEnvironment::__ApplyBlur
$LN1@Render:

; 229  : }

  0037f	c9		 leave
  00380	c3		 ret	 0
?Render@CSnowEnvironment@@QAEXXZ ENDP			; CSnowEnvironment::Render
_TEXT	ENDS
; Function compile flags: /Odspy
; File D:\Metin2 Server Files\mainline\SRC_2014\Metin2Client\GameLib\SnowEnvironment.cpp
; File C:\Program Files (x86)\Microsoft Visual Studio\2019\Community\VC\Tools\MSVC\14.28.29333\include\vector
; File D:\Metin2 Server Files\mainline\SRC_2014\Metin2Client\GameLib\SnowEnvironment.cpp
; File D:\Metin2 Server Files\mainline\SRC_2014\Metin2Client\eterBase\Singleton.h
; File D:\Metin2 Server Files\mainline\SRC_2014\Metin2Client\GameLib\SnowEnvironment.cpp
; File D:\Metin2 Server Files\mainline\SRC_2014\Metin2Client\eterBase\Singleton.h
; File D:\Metin2 Server Files\mainline\SRC_2014\Metin2Client\GameLib\SnowEnvironment.cpp
; File D:\Metin2 Server Files\mainline\SRC_2014\Metin2Client\eterBase\Singleton.h
; File D:\Metin2 Server Files\mainline\SRC_2014\Metin2Client\GameLib\SnowEnvironment.cpp
; File D:\Metin2 Server Files\mainline\SRC_2014\Metin2Client\EterLib\Camera.h
; File D:\Metin2 Server Files\mainline\SRC_2014\Metin2Client\GameLib\SnowEnvironment.cpp
; File D:\Metin2 Server Files\mainline\SRC_2014\M2Data\include\d3dx8math.inl
; File D:\Metin2 Server Files\mainline\SRC_2014\Metin2Client\GameLib\SnowEnvironment.cpp
; File C:\Program Files (x86)\Microsoft Visual Studio\2019\Community\VC\Tools\MSVC\14.28.29333\include\vector
; File C:\Program Files (x86)\Microsoft Visual Studio\2019\Community\VC\Tools\MSVC\14.28.29333\include\xstddef
; File C:\Program Files (x86)\Microsoft Visual Studio\2019\Community\VC\Tools\MSVC\14.28.29333\include\vector
; File C:\Program Files (x86)\Microsoft Visual Studio\2019\Community\VC\Tools\MSVC\14.28.29333\include\xstddef
; File C:\Program Files (x86)\Microsoft Visual Studio\2019\Community\VC\Tools\MSVC\14.28.29333\include\vector
; File D:\Metin2 Server Files\mainline\SRC_2014\Metin2Client\GameLib\SnowEnvironment.cpp
; File C:\Program Files (x86)\Microsoft Visual Studio\2019\Community\VC\Tools\MSVC\14.28.29333\include\vector
; File D:\Metin2 Server Files\mainline\SRC_2014\Metin2Client\GameLib\SnowEnvironment.cpp
; File C:\Program Files (x86)\Microsoft Visual Studio\2019\Community\VC\Tools\MSVC\14.28.29333\include\vector
; File D:\Metin2 Server Files\mainline\SRC_2014\Metin2Client\GameLib\SnowEnvironment.cpp
; File C:\Program Files (x86)\Microsoft Visual Studio\2019\Community\VC\Tools\MSVC\14.28.29333\include\vector
; File D:\Metin2 Server Files\mainline\SRC_2014\Metin2Client\GameLib\SnowEnvironment.cpp
; File C:\Program Files (x86)\Microsoft Visual Studio\2019\Community\VC\Tools\MSVC\14.28.29333\include\vector
; File D:\Metin2 Server Files\mainline\SRC_2014\Metin2Client\GameLib\SnowEnvironment.cpp
; File C:\Program Files (x86)\Microsoft Visual Studio\2019\Community\VC\Tools\MSVC\14.28.29333\include\vector
; File D:\Metin2 Server Files\mainline\SRC_2014\Metin2Client\GameLib\SnowEnvironment.cpp
; File C:\Program Files (x86)\Microsoft Visual Studio\2019\Community\VC\Tools\MSVC\14.28.29333\include\vector
; File D:\Metin2 Server Files\mainline\SRC_2014\Metin2Client\GameLib\SnowEnvironment.cpp
;	COMDAT ?Deform@CSnowEnvironment@@QAEXXZ
_TEXT	SEGMENT
$T2 = -84						; size = 4
$T3 = -80						; size = 4
$T4 = -76						; size = 4
$T5 = -72						; size = 4
$T6 = -68						; size = 4
$T7 = -64						; size = 4
$T8 = -60						; size = 4
$T9 = -56						; size = 4
_fElapsedTime$ = -52					; size = 4
$T10 = -48						; size = 4
$T11 = -44						; size = 4
$T12 = -40						; size = 4
$T13 = -36						; size = 4
___param0$ = -32					; size = 4
___param0$ = -28					; size = 4
_fz$ = -24						; size = 4
_fy$ = -20						; size = 4
_fx$ = -16						; size = 4
__$EHRec$ = -12						; size = 12
_fz$ = 0						; size = 4
_fy$ = 4						; size = 4
_fx$ = 8						; size = 4
$T14 = 12						; size = 4
_pSnowParticle$15 = 16					; size = 4
tv199 = 20						; size = 4
__My_data$16 = 24					; size = 4
__My_data$17 = 28					; size = 4
tv365 = 32						; size = 4
tv379 = 36						; size = 4
__My_data$18 = 40					; size = 4
__My_data$19 = 44					; size = 4
_pCamera$ = 48						; size = 4
_lcurTime$ = 52						; size = 4
tv213 = 56						; size = 4
__My_data$20 = 60					; size = 4
_p$21 = 64						; size = 4
_pSnow$22 = 68						; size = 4
_c_rv3View$ = 72					; size = 4
_c_rv3Pos$ = 76						; size = 4
_itor$ = 80						; size = 4
$T23 = 85						; size = 1
$T24 = 86						; size = 1
$T25 = 87						; size = 1
_this$ = 88						; size = 4
$T26 = 92						; size = 12
_v3ChangedPos$ = 104					; size = 12
__$ArrayPad$ = 116					; size = 4
?Deform@CSnowEnvironment@@QAEXXZ PROC			; CSnowEnvironment::Deform, COMDAT
; _this$ = ecx

; 36   : {

  00000	55		 push	 ebp
  00001	8d 6c 24 88	 lea	 ebp, DWORD PTR [esp-120]
  00005	83 ec 78	 sub	 esp, 120		; 00000078H
  00008	6a ff		 push	 -1
  0000a	68 00 00 00 00	 push	 __ehhandler$?Deform@CSnowEnvironment@@QAEXXZ
  0000f	64 a1 00 00 00
	00		 mov	 eax, DWORD PTR fs:0
  00015	50		 push	 eax
  00016	83 ec 48	 sub	 esp, 72			; 00000048H
  00019	a1 00 00 00 00	 mov	 eax, DWORD PTR ___security_cookie
  0001e	33 c5		 xor	 eax, ebp
  00020	89 45 74	 mov	 DWORD PTR __$ArrayPad$[ebp], eax
  00023	50		 push	 eax
  00024	8d 45 f4	 lea	 eax, DWORD PTR __$EHRec$[ebp]
  00027	64 a3 00 00 00
	00		 mov	 DWORD PTR fs:0, eax
  0002d	89 4d 58	 mov	 DWORD PTR _this$[ebp], ecx

; 37   : 	if (!m_bSnowEnable)

  00030	8b 45 58	 mov	 eax, DWORD PTR _this$[ebp]
  00033	83 78 54 00	 cmp	 DWORD PTR [eax+84], 0
  00037	75 36		 jne	 SHORT $LN10@Deform
; File C:\Program Files (x86)\Microsoft Visual Studio\2019\Community\VC\Tools\MSVC\14.28.29333\include\vector

; 1478 :         auto& _My_data = _Mypair._Myval2;

  00039	8b 45 58	 mov	 eax, DWORD PTR _this$[ebp]
  0003c	83 c0 40	 add	 eax, 64			; 00000040H
  0003f	89 45 3c	 mov	 DWORD PTR __My_data$20[ebp], eax

; 1479 :         return _My_data._Myfirst == _My_data._Mylast;

  00042	8b 45 3c	 mov	 eax, DWORD PTR __My_data$20[ebp]
  00045	8b 4d 3c	 mov	 ecx, DWORD PTR __My_data$20[ebp]
  00048	8b 00		 mov	 eax, DWORD PTR [eax]
  0004a	3b 41 04	 cmp	 eax, DWORD PTR [ecx+4]
  0004d	75 09		 jne	 SHORT $LN21@Deform
  0004f	c7 45 38 01 00
	00 00		 mov	 DWORD PTR tv213[ebp], 1
  00056	eb 04		 jmp	 SHORT $LN22@Deform
$LN21@Deform:
  00058	83 65 38 00	 and	 DWORD PTR tv213[ebp], 0
$LN22@Deform:
  0005c	8a 45 38	 mov	 al, BYTE PTR tv213[ebp]
  0005f	88 45 57	 mov	 BYTE PTR $T25[ebp], al
; File D:\Metin2 Server Files\mainline\SRC_2014\Metin2Client\GameLib\SnowEnvironment.cpp

; 39   : 		if (m_kVct_pkParticleSnow.empty())

  00062	0f b6 45 57	 movzx	 eax, BYTE PTR $T25[ebp]
  00066	85 c0		 test	 eax, eax
  00068	74 05		 je	 SHORT $LN10@Deform

; 40   : 			return;

  0006a	e9 0c 03 00 00	 jmp	 $LN1@Deform
$LN10@Deform:

; 41   : 	}
; 42   : 
; 43   : 	const D3DXVECTOR3 & c_rv3Pos=m_v3Center;

  0006f	8b 45 58	 mov	 eax, DWORD PTR _this$[ebp]
  00072	83 c0 2c	 add	 eax, 44			; 0000002cH
  00075	89 45 4c	 mov	 DWORD PTR _c_rv3Pos$[ebp], eax

; 45   : 	static long s_lLastTime = CTimer::Instance().GetCurrentMillisecond();

  00078	a1 00 00 00 00	 mov	 eax, DWORD PTR __tls_index
  0007d	64 8b 0d 00 00
	00 00		 mov	 ecx, DWORD PTR fs:__tls_array
  00084	8b 04 81	 mov	 eax, DWORD PTR [ecx+eax*4]
  00087	8b 0d 00 00 00
	00		 mov	 ecx, DWORD PTR ?$TSS0@?1??Deform@CSnowEnvironment@@QAEXXZ@4HA
  0008d	3b 88 00 00 00
	00		 cmp	 ecx, DWORD PTR __Init_thread_epoch[eax]
  00093	7e 3c		 jle	 SHORT $LN2@Deform
  00095	68 00 00 00 00	 push	 OFFSET ?$TSS0@?1??Deform@CSnowEnvironment@@QAEXXZ@4HA
  0009a	e8 00 00 00 00	 call	 __Init_thread_header
  0009f	59		 pop	 ecx
  000a0	83 3d 00 00 00
	00 ff		 cmp	 DWORD PTR ?$TSS0@?1??Deform@CSnowEnvironment@@QAEXXZ@4HA, -1
  000a7	75 28		 jne	 SHORT $LN2@Deform
  000a9	83 65 fc 00	 and	 DWORD PTR __$EHRec$[ebp+8], 0
; File D:\Metin2 Server Files\mainline\SRC_2014\Metin2Client\eterBase\Singleton.h

; 27   : 		return (*ms_singleton);

  000ad	a1 00 00 00 00	 mov	 eax, DWORD PTR ?ms_singleton@?$CSingleton@VCTimer@@@@0PAVCTimer@@A ; CSingleton<CTimer>::ms_singleton
  000b2	89 45 d4	 mov	 DWORD PTR $T11[ebp], eax
; File D:\Metin2 Server Files\mainline\SRC_2014\Metin2Client\GameLib\SnowEnvironment.cpp

; 45   : 	static long s_lLastTime = CTimer::Instance().GetCurrentMillisecond();

  000b5	8b 4d d4	 mov	 ecx, DWORD PTR $T11[ebp]
  000b8	e8 00 00 00 00	 call	 ?GetCurrentMillisecond@CTimer@@QAEKXZ ; CTimer::GetCurrentMillisecond
  000bd	a3 00 00 00 00	 mov	 DWORD PTR ?s_lLastTime@?1??Deform@CSnowEnvironment@@QAEXXZ@4JA, eax
  000c2	83 4d fc ff	 or	 DWORD PTR __$EHRec$[ebp+8], -1
  000c6	68 00 00 00 00	 push	 OFFSET ?$TSS0@?1??Deform@CSnowEnvironment@@QAEXXZ@4HA
  000cb	e8 00 00 00 00	 call	 __Init_thread_footer
  000d0	59		 pop	 ecx
$LN2@Deform:
; File D:\Metin2 Server Files\mainline\SRC_2014\Metin2Client\eterBase\Singleton.h

; 27   : 		return (*ms_singleton);

  000d1	a1 00 00 00 00	 mov	 eax, DWORD PTR ?ms_singleton@?$CSingleton@VCTimer@@@@0PAVCTimer@@A ; CSingleton<CTimer>::ms_singleton
  000d6	89 45 bc	 mov	 DWORD PTR $T6[ebp], eax
; File D:\Metin2 Server Files\mainline\SRC_2014\Metin2Client\GameLib\SnowEnvironment.cpp

; 46   : 	long lcurTime = CTimer::Instance().GetCurrentMillisecond();

  000d9	8b 4d bc	 mov	 ecx, DWORD PTR $T6[ebp]
  000dc	e8 00 00 00 00	 call	 ?GetCurrentMillisecond@CTimer@@QAEKXZ ; CTimer::GetCurrentMillisecond
  000e1	89 45 34	 mov	 DWORD PTR _lcurTime$[ebp], eax

; 47   : 	float fElapsedTime = float(lcurTime - s_lLastTime) / 1000.0f;

  000e4	8b 45 34	 mov	 eax, DWORD PTR _lcurTime$[ebp]
  000e7	2b 05 00 00 00
	00		 sub	 eax, DWORD PTR ?s_lLastTime@?1??Deform@CSnowEnvironment@@QAEXXZ@4JA
  000ed	f3 0f 2a c0	 cvtsi2ss xmm0, eax
  000f1	f3 0f 5e 05 00
	00 00 00	 divss	 xmm0, DWORD PTR __real@447a0000
  000f9	f3 0f 11 45 cc	 movss	 DWORD PTR _fElapsedTime$[ebp], xmm0

; 48   : 	s_lLastTime = lcurTime;

  000fe	8b 45 34	 mov	 eax, DWORD PTR _lcurTime$[ebp]
  00101	a3 00 00 00 00	 mov	 DWORD PTR ?s_lLastTime@?1??Deform@CSnowEnvironment@@QAEXXZ@4JA, eax
; File D:\Metin2 Server Files\mainline\SRC_2014\Metin2Client\eterBase\Singleton.h

; 27   : 		return (*ms_singleton);

  00106	a1 00 00 00 00	 mov	 eax, DWORD PTR ?ms_singleton@?$CSingleton@VCCameraManager@@@@0PAVCCameraManager@@A ; CSingleton<CCameraManager>::ms_singleton
  0010b	89 45 0c	 mov	 DWORD PTR $T14[ebp], eax
; File D:\Metin2 Server Files\mainline\SRC_2014\Metin2Client\GameLib\SnowEnvironment.cpp

; 50   : 	CCamera * pCamera = CCameraManager::Instance().GetCurrentCamera();

  0010e	8b 4d 0c	 mov	 ecx, DWORD PTR $T14[ebp]
  00111	e8 00 00 00 00	 call	 ?GetCurrentCamera@CCameraManager@@QAEPAVCCamera@@XZ ; CCameraManager::GetCurrentCamera
  00116	89 45 30	 mov	 DWORD PTR _pCamera$[ebp], eax

; 51   : 	if (!pCamera)

  00119	83 7d 30 00	 cmp	 DWORD PTR _pCamera$[ebp], 0
  0011d	75 05		 jne	 SHORT $LN11@Deform

; 52   : 		return;

  0011f	e9 57 02 00 00	 jmp	 $LN1@Deform
$LN11@Deform:
; File D:\Metin2 Server Files\mainline\SRC_2014\Metin2Client\EterLib\Camera.h

; 171  : 		const D3DXVECTOR3 & GetView() const		{ return m_v3View; }

  00124	8b 45 30	 mov	 eax, DWORD PTR _pCamera$[ebp]
  00127	83 c0 54	 add	 eax, 84			; 00000054H
; File D:\Metin2 Server Files\mainline\SRC_2014\Metin2Client\GameLib\SnowEnvironment.cpp

; 54   : 	const D3DXVECTOR3 & c_rv3View = pCamera->GetView();

  0012a	89 45 48	 mov	 DWORD PTR _c_rv3View$[ebp], eax
; File D:\Metin2 Server Files\mainline\SRC_2014\M2Data\include\d3dx8math.inl

; 269  :     return D3DXVECTOR3(x * f, y * f, z * f);

  0012d	8b 45 48	 mov	 eax, DWORD PTR _c_rv3View$[ebp]
  00130	f3 0f 10 00	 movss	 xmm0, DWORD PTR [eax]
  00134	f3 0f 59 05 00
	00 00 00	 mulss	 xmm0, DWORD PTR __real@455ac000
  0013c	f3 0f 11 45 08	 movss	 DWORD PTR _fx$[ebp], xmm0
  00141	8b 45 48	 mov	 eax, DWORD PTR _c_rv3View$[ebp]
  00144	f3 0f 10 40 04	 movss	 xmm0, DWORD PTR [eax+4]
  00149	f3 0f 59 05 00
	00 00 00	 mulss	 xmm0, DWORD PTR __real@455ac000
  00151	f3 0f 11 45 04	 movss	 DWORD PTR _fy$[ebp], xmm0
  00156	8b 45 48	 mov	 eax, DWORD PTR _c_rv3View$[ebp]
  00159	f3 0f 10 40 08	 movss	 xmm0, DWORD PTR [eax+8]
  0015e	f3 0f 59 05 00
	00 00 00	 mulss	 xmm0, DWORD PTR __real@455ac000
  00166	f3 0f 11 45 00	 movss	 DWORD PTR _fz$[ebp], xmm0

; 180  :     x = fx;

  0016b	f3 0f 10 45 08	 movss	 xmm0, DWORD PTR _fx$[ebp]
  00170	f3 0f 11 45 5c	 movss	 DWORD PTR $T26[ebp], xmm0

; 181  :     y = fy;

  00175	f3 0f 10 45 04	 movss	 xmm0, DWORD PTR _fy$[ebp]
  0017a	f3 0f 11 45 60	 movss	 DWORD PTR $T26[ebp+4], xmm0

; 182  :     z = fz;

  0017f	f3 0f 10 45 00	 movss	 xmm0, DWORD PTR _fz$[ebp]
  00184	f3 0f 11 45 64	 movss	 DWORD PTR $T26[ebp+8], xmm0

; 257  :     return D3DXVECTOR3(x + v.x, y + v.y, z + v.z);

  00189	8b 45 4c	 mov	 eax, DWORD PTR _c_rv3Pos$[ebp]
  0018c	f3 0f 10 45 5c	 movss	 xmm0, DWORD PTR $T26[ebp]
  00191	f3 0f 58 00	 addss	 xmm0, DWORD PTR [eax]
  00195	f3 0f 11 45 f0	 movss	 DWORD PTR _fx$[ebp], xmm0
  0019a	8b 45 4c	 mov	 eax, DWORD PTR _c_rv3Pos$[ebp]
  0019d	f3 0f 10 45 60	 movss	 xmm0, DWORD PTR $T26[ebp+4]
  001a2	f3 0f 58 40 04	 addss	 xmm0, DWORD PTR [eax+4]
  001a7	f3 0f 11 45 ec	 movss	 DWORD PTR _fy$[ebp], xmm0
  001ac	8b 45 4c	 mov	 eax, DWORD PTR _c_rv3Pos$[ebp]
  001af	f3 0f 10 45 64	 movss	 xmm0, DWORD PTR $T26[ebp+8]
  001b4	f3 0f 58 40 08	 addss	 xmm0, DWORD PTR [eax+8]
  001b9	f3 0f 11 45 e8	 movss	 DWORD PTR _fz$[ebp], xmm0

; 180  :     x = fx;

  001be	f3 0f 10 45 f0	 movss	 xmm0, DWORD PTR _fx$[ebp]
  001c3	f3 0f 11 45 68	 movss	 DWORD PTR _v3ChangedPos$[ebp], xmm0

; 181  :     y = fy;

  001c8	f3 0f 10 45 ec	 movss	 xmm0, DWORD PTR _fy$[ebp]
  001cd	f3 0f 11 45 6c	 movss	 DWORD PTR _v3ChangedPos$[ebp+4], xmm0

; 182  :     z = fz;

  001d2	f3 0f 10 45 e8	 movss	 xmm0, DWORD PTR _fz$[ebp]
  001d7	f3 0f 11 45 70	 movss	 DWORD PTR _v3ChangedPos$[ebp+8], xmm0
; File D:\Metin2 Server Files\mainline\SRC_2014\Metin2Client\GameLib\SnowEnvironment.cpp

; 57   : 	v3ChangedPos.z = c_rv3Pos.z;

  001dc	8b 45 4c	 mov	 eax, DWORD PTR _c_rv3Pos$[ebp]
  001df	f3 0f 10 40 08	 movss	 xmm0, DWORD PTR [eax+8]
  001e4	f3 0f 11 45 70	 movss	 DWORD PTR _v3ChangedPos$[ebp+8], xmm0
; File C:\Program Files (x86)\Microsoft Visual Studio\2019\Community\VC\Tools\MSVC\14.28.29333\include\vector

; 1410 :         auto& _My_data = _Mypair._Myval2;

  001e9	8b 45 58	 mov	 eax, DWORD PTR _this$[ebp]
  001ec	83 c0 40	 add	 eax, 64			; 00000040H
  001ef	89 45 2c	 mov	 DWORD PTR __My_data$19[ebp], eax
; File C:\Program Files (x86)\Microsoft Visual Studio\2019\Community\VC\Tools\MSVC\14.28.29333\include\xstddef

; 275  :     return __builtin_addressof(_Val);

  001f2	8b 45 2c	 mov	 eax, DWORD PTR __My_data$19[ebp]
  001f5	89 45 b0	 mov	 DWORD PTR $T3[ebp], eax
; File C:\Program Files (x86)\Microsoft Visual Studio\2019\Community\VC\Tools\MSVC\14.28.29333\include\vector

; 1411 :         return iterator(_My_data._Myfirst, _STD addressof(_My_data));

  001f8	8b 45 2c	 mov	 eax, DWORD PTR __My_data$19[ebp]
  001fb	8b 00		 mov	 eax, DWORD PTR [eax]
  001fd	89 45 e4	 mov	 DWORD PTR ___param0$[ebp], eax

; 42   :     _Vector_const_iterator(_Tptr _Parg, const _Container_base* _Pvector) noexcept : _Ptr(_Parg) {

  00200	8b 45 e4	 mov	 eax, DWORD PTR ___param0$[ebp]
  00203	89 45 50	 mov	 DWORD PTR _itor$[ebp], eax
$LN3@Deform:

; 1420 :         auto& _My_data = _Mypair._Myval2;

  00206	8b 45 58	 mov	 eax, DWORD PTR _this$[ebp]
  00209	83 c0 40	 add	 eax, 64			; 00000040H
  0020c	89 45 28	 mov	 DWORD PTR __My_data$18[ebp], eax
; File C:\Program Files (x86)\Microsoft Visual Studio\2019\Community\VC\Tools\MSVC\14.28.29333\include\xstddef

; 275  :     return __builtin_addressof(_Val);

  0020f	8b 45 28	 mov	 eax, DWORD PTR __My_data$18[ebp]
  00212	89 45 ac	 mov	 DWORD PTR $T2[ebp], eax
; File C:\Program Files (x86)\Microsoft Visual Studio\2019\Community\VC\Tools\MSVC\14.28.29333\include\vector

; 1421 :         return iterator(_My_data._Mylast, _STD addressof(_My_data));

  00215	8b 45 28	 mov	 eax, DWORD PTR __My_data$18[ebp]
  00218	8b 40 04	 mov	 eax, DWORD PTR [eax+4]
  0021b	89 45 e0	 mov	 DWORD PTR ___param0$[ebp], eax

; 42   :     _Vector_const_iterator(_Tptr _Parg, const _Container_base* _Pvector) noexcept : _Ptr(_Parg) {

  0021e	8b 45 e0	 mov	 eax, DWORD PTR ___param0$[ebp]
  00221	89 45 dc	 mov	 DWORD PTR $T13[ebp], eax

; 1421 :         return iterator(_My_data._Mylast, _STD addressof(_My_data));

  00224	8d 45 dc	 lea	 eax, DWORD PTR $T13[ebp]
  00227	89 45 d8	 mov	 DWORD PTR $T12[ebp], eax

; 149  :         return _Ptr == _Right._Ptr;

  0022a	8b 45 d8	 mov	 eax, DWORD PTR $T12[ebp]
  0022d	8b 4d 50	 mov	 ecx, DWORD PTR _itor$[ebp]
  00230	3b 08		 cmp	 ecx, DWORD PTR [eax]
  00232	75 09		 jne	 SHORT $LN77@Deform
  00234	c7 45 24 01 00
	00 00		 mov	 DWORD PTR tv379[ebp], 1
  0023b	eb 04		 jmp	 SHORT $LN78@Deform
$LN77@Deform:
  0023d	83 65 24 00	 and	 DWORD PTR tv379[ebp], 0
$LN78@Deform:
  00241	8a 45 24	 mov	 al, BYTE PTR tv379[ebp]
  00244	88 45 56	 mov	 BYTE PTR $T24[ebp], al

; 153  :         return !(*this == _Right);

  00247	0f b6 45 56	 movzx	 eax, BYTE PTR $T24[ebp]
  0024b	85 c0		 test	 eax, eax
  0024d	75 09		 jne	 SHORT $LN72@Deform
  0024f	c7 45 20 01 00
	00 00		 mov	 DWORD PTR tv365[ebp], 1
  00256	eb 04		 jmp	 SHORT $LN73@Deform
$LN72@Deform:
  00258	83 65 20 00	 and	 DWORD PTR tv365[ebp], 0
$LN73@Deform:
  0025c	8a 45 20	 mov	 al, BYTE PTR tv365[ebp]
  0025f	88 45 55	 mov	 BYTE PTR $T23[ebp], al
; File D:\Metin2 Server Files\mainline\SRC_2014\Metin2Client\GameLib\SnowEnvironment.cpp

; 60   : 	for (; itor != m_kVct_pkParticleSnow.end();)

  00262	0f b6 45 55	 movzx	 eax, BYTE PTR $T23[ebp]
  00266	85 c0		 test	 eax, eax
  00268	74 70		 je	 SHORT $LN4@Deform
; File C:\Program Files (x86)\Microsoft Visual Studio\2019\Community\VC\Tools\MSVC\14.28.29333\include\vector

; 54   :         return *_Ptr;

  0026a	8b 45 50	 mov	 eax, DWORD PTR _itor$[ebp]
  0026d	89 45 c0	 mov	 DWORD PTR $T7[ebp], eax

; 252  :         return const_cast<reference>(_Mybase::operator*());

  00270	8b 45 c0	 mov	 eax, DWORD PTR $T7[ebp]
  00273	89 45 d0	 mov	 DWORD PTR $T10[ebp], eax
; File D:\Metin2 Server Files\mainline\SRC_2014\Metin2Client\GameLib\SnowEnvironment.cpp

; 62   : 		CSnowParticle * pSnow = *itor;

  00276	8b 45 d0	 mov	 eax, DWORD PTR $T10[ebp]
  00279	8b 00		 mov	 eax, DWORD PTR [eax]
  0027b	89 45 44	 mov	 DWORD PTR _pSnow$22[ebp], eax

; 63   : 		pSnow->Update(fElapsedTime, v3ChangedPos);

  0027e	8d 45 68	 lea	 eax, DWORD PTR _v3ChangedPos$[ebp]
  00281	50		 push	 eax
  00282	51		 push	 ecx
  00283	f3 0f 10 45 cc	 movss	 xmm0, DWORD PTR _fElapsedTime$[ebp]
  00288	f3 0f 11 04 24	 movss	 DWORD PTR [esp], xmm0
  0028d	8b 4d 44	 mov	 ecx, DWORD PTR _pSnow$22[ebp]
  00290	e8 00 00 00 00	 call	 ?Update@CSnowParticle@@QAEXMABUD3DXVECTOR3@@@Z ; CSnowParticle::Update

; 64   : 
; 65   : 		if (!pSnow->IsActivate())

  00295	8b 4d 44	 mov	 ecx, DWORD PTR _pSnow$22[ebp]
  00298	e8 00 00 00 00	 call	 ?IsActivate@CSnowParticle@@QAE_NXZ ; CSnowParticle::IsActivate
  0029d	0f b6 c0	 movzx	 eax, al
  002a0	85 c0		 test	 eax, eax
  002a2	75 28		 jne	 SHORT $LN12@Deform

; 66   : 		{
; 67   : 			CSnowParticle::Delete(pSnow);

  002a4	ff 75 44	 push	 DWORD PTR _pSnow$22[ebp]
  002a7	e8 00 00 00 00	 call	 ?Delete@CSnowParticle@@SAXPAV1@@Z ; CSnowParticle::Delete
  002ac	59		 pop	 ecx

; 68   : 
; 69   : 			itor = m_kVct_pkParticleSnow.erase(itor);

  002ad	8b 45 50	 mov	 eax, DWORD PTR _itor$[ebp]
  002b0	89 45 c8	 mov	 DWORD PTR $T9[ebp], eax
  002b3	ff 75 c8	 push	 DWORD PTR $T9[ebp]
  002b6	8d 45 b4	 lea	 eax, DWORD PTR $T4[ebp]
  002b9	50		 push	 eax
  002ba	8b 4d 58	 mov	 ecx, DWORD PTR _this$[ebp]
  002bd	83 c1 40	 add	 ecx, 64			; 00000040H
  002c0	e8 00 00 00 00	 call	 ?erase@?$vector@PAVCSnowParticle@@V?$allocator@PAVCSnowParticle@@@std@@@std@@QAE?AV?$_Vector_iterator@V?$_Vector_val@U?$_Simple_types@PAVCSnowParticle@@@std@@@std@@@2@V?$_Vector_const_iterator@V?$_Vector_val@U?$_Simple_types@PAVCSnowParticle@@@std@@@std@@@2@@Z ; std::vector<CSnowParticle *,std::allocator<CSnowParticle *> >::erase
  002c5	8b 00		 mov	 eax, DWORD PTR [eax]
  002c7	89 45 50	 mov	 DWORD PTR _itor$[ebp], eax

; 70   : 		}

  002ca	eb 09		 jmp	 SHORT $LN123@Deform
$LN12@Deform:
; File C:\Program Files (x86)\Microsoft Visual Studio\2019\Community\VC\Tools\MSVC\14.28.29333\include\vector

; 75   :         ++_Ptr;

  002cc	8b 45 50	 mov	 eax, DWORD PTR _itor$[ebp]
  002cf	83 c0 04	 add	 eax, 4
  002d2	89 45 50	 mov	 DWORD PTR _itor$[ebp], eax
$LN123@Deform:
; File D:\Metin2 Server Files\mainline\SRC_2014\Metin2Client\GameLib\SnowEnvironment.cpp

; 75   : 	}

  002d5	e9 2c ff ff ff	 jmp	 $LN3@Deform
$LN4@Deform:

; 76   : 
; 77   : 	if (m_bSnowEnable)

  002da	8b 45 58	 mov	 eax, DWORD PTR _this$[ebp]
  002dd	83 78 54 00	 cmp	 DWORD PTR [eax+84], 0
  002e1	0f 84 94 00 00
	00		 je	 $LN7@Deform

; 79   : 		for (int p = 0; p < min(10, m_dwParticleMaxNum - m_kVct_pkParticleSnow.size()); ++p)

  002e7	83 65 40 00	 and	 DWORD PTR _p$21[ebp], 0
  002eb	eb 07		 jmp	 SHORT $LN8@Deform
$LN6@Deform:
  002ed	8b 45 40	 mov	 eax, DWORD PTR _p$21[ebp]
  002f0	40		 inc	 eax
  002f1	89 45 40	 mov	 DWORD PTR _p$21[ebp], eax
$LN8@Deform:
; File C:\Program Files (x86)\Microsoft Visual Studio\2019\Community\VC\Tools\MSVC\14.28.29333\include\vector

; 1483 :         auto& _My_data = _Mypair._Myval2;

  002f4	8b 45 58	 mov	 eax, DWORD PTR _this$[ebp]
  002f7	83 c0 40	 add	 eax, 64			; 00000040H
  002fa	89 45 1c	 mov	 DWORD PTR __My_data$17[ebp], eax

; 1484 :         return static_cast<size_type>(_My_data._Mylast - _My_data._Myfirst);

  002fd	8b 45 1c	 mov	 eax, DWORD PTR __My_data$17[ebp]
  00300	8b 4d 1c	 mov	 ecx, DWORD PTR __My_data$17[ebp]
  00303	8b 40 04	 mov	 eax, DWORD PTR [eax+4]
  00306	2b 01		 sub	 eax, DWORD PTR [ecx]
  00308	c1 f8 02	 sar	 eax, 2
  0030b	89 45 c4	 mov	 DWORD PTR $T8[ebp], eax
; File D:\Metin2 Server Files\mainline\SRC_2014\Metin2Client\GameLib\SnowEnvironment.cpp

; 79   : 		for (int p = 0; p < min(10, m_dwParticleMaxNum - m_kVct_pkParticleSnow.size()); ++p)

  0030e	8b 45 58	 mov	 eax, DWORD PTR _this$[ebp]
  00311	8b 40 4c	 mov	 eax, DWORD PTR [eax+76]
  00314	2b 45 c4	 sub	 eax, DWORD PTR $T8[ebp]
  00317	83 f8 0a	 cmp	 eax, 10			; 0000000aH
  0031a	76 09		 jbe	 SHORT $LN16@Deform
  0031c	c7 45 14 0a 00
	00 00		 mov	 DWORD PTR tv199[ebp], 10 ; 0000000aH
  00323	eb 26		 jmp	 SHORT $LN17@Deform
$LN16@Deform:
; File C:\Program Files (x86)\Microsoft Visual Studio\2019\Community\VC\Tools\MSVC\14.28.29333\include\vector

; 1483 :         auto& _My_data = _Mypair._Myval2;

  00325	8b 45 58	 mov	 eax, DWORD PTR _this$[ebp]
  00328	83 c0 40	 add	 eax, 64			; 00000040H
  0032b	89 45 18	 mov	 DWORD PTR __My_data$16[ebp], eax

; 1484 :         return static_cast<size_type>(_My_data._Mylast - _My_data._Myfirst);

  0032e	8b 45 18	 mov	 eax, DWORD PTR __My_data$16[ebp]
  00331	8b 4d 18	 mov	 ecx, DWORD PTR __My_data$16[ebp]
  00334	8b 40 04	 mov	 eax, DWORD PTR [eax+4]
  00337	2b 01		 sub	 eax, DWORD PTR [ecx]
  00339	c1 f8 02	 sar	 eax, 2
  0033c	89 45 b8	 mov	 DWORD PTR $T5[ebp], eax
; File D:\Metin2 Server Files\mainline\SRC_2014\Metin2Client\GameLib\SnowEnvironment.cpp

; 79   : 		for (int p = 0; p < min(10, m_dwParticleMaxNum - m_kVct_pkParticleSnow.size()); ++p)

  0033f	8b 45 58	 mov	 eax, DWORD PTR _this$[ebp]
  00342	8b 40 4c	 mov	 eax, DWORD PTR [eax+76]
  00345	2b 45 b8	 sub	 eax, DWORD PTR $T5[ebp]
  00348	89 45 14	 mov	 DWORD PTR tv199[ebp], eax
$LN17@Deform:
  0034b	8b 45 40	 mov	 eax, DWORD PTR _p$21[ebp]
  0034e	3b 45 14	 cmp	 eax, DWORD PTR tv199[ebp]
  00351	73 28		 jae	 SHORT $LN7@Deform

; 80   : 		{
; 81   : 			CSnowParticle * pSnowParticle = CSnowParticle::New();

  00353	e8 00 00 00 00	 call	 ?New@CSnowParticle@@SAPAV1@XZ ; CSnowParticle::New
  00358	89 45 10	 mov	 DWORD PTR _pSnowParticle$15[ebp], eax

; 82   : 			pSnowParticle->Init(v3ChangedPos);

  0035b	8d 45 68	 lea	 eax, DWORD PTR _v3ChangedPos$[ebp]
  0035e	50		 push	 eax
  0035f	8b 4d 10	 mov	 ecx, DWORD PTR _pSnowParticle$15[ebp]
  00362	e8 00 00 00 00	 call	 ?Init@CSnowParticle@@QAEXABUD3DXVECTOR3@@@Z ; CSnowParticle::Init
; File C:\Program Files (x86)\Microsoft Visual Studio\2019\Community\VC\Tools\MSVC\14.28.29333\include\vector

; 717  :         emplace_back(_Val);

  00367	8d 45 10	 lea	 eax, DWORD PTR _pSnowParticle$15[ebp]
  0036a	50		 push	 eax
; File D:\Metin2 Server Files\mainline\SRC_2014\Metin2Client\GameLib\SnowEnvironment.cpp

; 83   : 			m_kVct_pkParticleSnow.push_back(pSnowParticle);

  0036b	8b 4d 58	 mov	 ecx, DWORD PTR _this$[ebp]
  0036e	83 c1 40	 add	 ecx, 64			; 00000040H
; File C:\Program Files (x86)\Microsoft Visual Studio\2019\Community\VC\Tools\MSVC\14.28.29333\include\vector

; 717  :         emplace_back(_Val);

  00371	e8 00 00 00 00	 call	 ??$emplace_back@ABQAVCSnowParticle@@@?$vector@PAVCSnowParticle@@V?$allocator@PAVCSnowParticle@@@std@@@std@@QAEXABQAVCSnowParticle@@@Z ; std::vector<CSnowParticle *,std::allocator<CSnowParticle *> >::emplace_back<CSnowParticle * const &>
; File D:\Metin2 Server Files\mainline\SRC_2014\Metin2Client\GameLib\SnowEnvironment.cpp

; 84   : 		}

  00376	e9 72 ff ff ff	 jmp	 $LN6@Deform
$LN7@Deform:
$LN1@Deform:

; 85   : 	}
; 86   : }

  0037b	8b 4d f4	 mov	 ecx, DWORD PTR __$EHRec$[ebp]
  0037e	64 89 0d 00 00
	00 00		 mov	 DWORD PTR fs:0, ecx
  00385	59		 pop	 ecx
  00386	8b 4d 74	 mov	 ecx, DWORD PTR __$ArrayPad$[ebp]
  00389	33 cd		 xor	 ecx, ebp
  0038b	e8 00 00 00 00	 call	 @__security_check_cookie@4
  00390	83 c5 78	 add	 ebp, 120		; 00000078H
  00393	c9		 leave
  00394	c3		 ret	 0
_TEXT	ENDS
;	COMDAT text$x
text$x	SEGMENT
__unwindfunclet$?Deform@CSnowEnvironment@@QAEXXZ$0:
  00000	68 00 00 00 00	 push	 OFFSET ?$TSS0@?1??Deform@CSnowEnvironment@@QAEXXZ@4HA
  00005	e8 00 00 00 00	 call	 __Init_thread_abort
  0000a	59		 pop	 ecx
  0000b	c3		 ret	 0
  0000c	cc		 int	 3
  0000d	cc		 int	 3
  0000e	cc		 int	 3
  0000f	cc		 int	 3
  00010	cc		 int	 3
__ehhandler$?Deform@CSnowEnvironment@@QAEXXZ:
  00011	90		 npad	 1
  00012	90		 npad	 1
  00013	8b 54 24 08	 mov	 edx, DWORD PTR [esp+8]
  00017	8d 42 0c	 lea	 eax, DWORD PTR [edx+12]
  0001a	8b 4a b4	 mov	 ecx, DWORD PTR [edx-76]
  0001d	33 c8		 xor	 ecx, eax
  0001f	e8 00 00 00 00	 call	 @__security_check_cookie@4
  00024	8b 8a 80 00 00
	00		 mov	 ecx, DWORD PTR [edx+128]
  0002a	33 c8		 xor	 ecx, eax
  0002c	e8 00 00 00 00	 call	 @__security_check_cookie@4
  00031	b8 00 00 00 00	 mov	 eax, OFFSET __ehfuncinfo$?Deform@CSnowEnvironment@@QAEXXZ
  00036	e9 00 00 00 00	 jmp	 ___CxxFrameHandler3
text$x	ENDS
?Deform@CSnowEnvironment@@QAEXXZ ENDP			; CSnowEnvironment::Deform
; Function compile flags: /Odspy
; File D:\Metin2 Server Files\mainline\SRC_2014\Metin2Client\GameLib\SnowEnvironment.cpp
; File C:\Program Files (x86)\Microsoft Visual Studio\2019\Community\VC\Tools\MSVC\14.28.29333\include\vector
; File D:\Metin2 Server Files\mainline\SRC_2014\Metin2Client\GameLib\SnowEnvironment.cpp
;	COMDAT ?Update@CSnowEnvironment@@QAEXABUD3DXVECTOR3@@@Z
_TEXT	SEGMENT
tv78 = -16						; size = 4
__My_data$1 = -12					; size = 4
_this$ = -8						; size = 4
$T2 = -1						; size = 1
_c_rv3Pos$ = 8						; size = 4
?Update@CSnowEnvironment@@QAEXABUD3DXVECTOR3@@@Z PROC	; CSnowEnvironment::Update, COMDAT
; _this$ = ecx

; 25   : {

  00000	55		 push	 ebp
  00001	8b ec		 mov	 ebp, esp
  00003	83 ec 10	 sub	 esp, 16			; 00000010H
  00006	56		 push	 esi
  00007	57		 push	 edi
  00008	89 4d f8	 mov	 DWORD PTR _this$[ebp], ecx

; 26   : 	if (!m_bSnowEnable)

  0000b	8b 45 f8	 mov	 eax, DWORD PTR _this$[ebp]
  0000e	83 78 54 00	 cmp	 DWORD PTR [eax+84], 0
  00012	75 33		 jne	 SHORT $LN2@Update
; File C:\Program Files (x86)\Microsoft Visual Studio\2019\Community\VC\Tools\MSVC\14.28.29333\include\vector

; 1478 :         auto& _My_data = _Mypair._Myval2;

  00014	8b 45 f8	 mov	 eax, DWORD PTR _this$[ebp]
  00017	83 c0 40	 add	 eax, 64			; 00000040H
  0001a	89 45 f4	 mov	 DWORD PTR __My_data$1[ebp], eax

; 1479 :         return _My_data._Myfirst == _My_data._Mylast;

  0001d	8b 45 f4	 mov	 eax, DWORD PTR __My_data$1[ebp]
  00020	8b 4d f4	 mov	 ecx, DWORD PTR __My_data$1[ebp]
  00023	8b 00		 mov	 eax, DWORD PTR [eax]
  00025	3b 41 04	 cmp	 eax, DWORD PTR [ecx+4]
  00028	75 09		 jne	 SHORT $LN7@Update
  0002a	c7 45 f0 01 00
	00 00		 mov	 DWORD PTR tv78[ebp], 1
  00031	eb 04		 jmp	 SHORT $LN8@Update
$LN7@Update:
  00033	83 65 f0 00	 and	 DWORD PTR tv78[ebp], 0
$LN8@Update:
  00037	8a 45 f0	 mov	 al, BYTE PTR tv78[ebp]
  0003a	88 45 ff	 mov	 BYTE PTR $T2[ebp], al
; File D:\Metin2 Server Files\mainline\SRC_2014\Metin2Client\GameLib\SnowEnvironment.cpp

; 28   : 		if (m_kVct_pkParticleSnow.empty())

  0003d	0f b6 45 ff	 movzx	 eax, BYTE PTR $T2[ebp]
  00041	85 c0		 test	 eax, eax
  00043	74 02		 je	 SHORT $LN2@Update

; 29   : 			return;

  00045	eb 0c		 jmp	 SHORT $LN1@Update
$LN2@Update:

; 30   : 	}
; 31   : 
; 32   : 	m_v3Center=c_rv3Pos;

  00047	8b 7d f8	 mov	 edi, DWORD PTR _this$[ebp]
  0004a	83 c7 2c	 add	 edi, 44			; 0000002cH
  0004d	8b 75 08	 mov	 esi, DWORD PTR _c_rv3Pos$[ebp]
  00050	a5		 movsd
  00051	a5		 movsd
  00052	a5		 movsd
$LN1@Update:

; 33   : }

  00053	5f		 pop	 edi
  00054	5e		 pop	 esi
  00055	c9		 leave
  00056	c2 04 00	 ret	 4
?Update@CSnowEnvironment@@QAEXABUD3DXVECTOR3@@@Z ENDP	; CSnowEnvironment::Update
_TEXT	ENDS
; Function compile flags: /Odspy
; File D:\Metin2 Server Files\mainline\SRC_2014\Metin2Client\GameLib\SnowEnvironment.cpp
;	COMDAT ?Disable@CSnowEnvironment@@QAEXXZ
_TEXT	SEGMENT
_this$ = -4						; size = 4
?Disable@CSnowEnvironment@@QAEXXZ PROC			; CSnowEnvironment::Disable, COMDAT
; _this$ = ecx

; 20   : {

  00000	55		 push	 ebp
  00001	8b ec		 mov	 ebp, esp
  00003	51		 push	 ecx
  00004	89 4d fc	 mov	 DWORD PTR _this$[ebp], ecx

; 21   : 	m_bSnowEnable = FALSE;

  00007	8b 45 fc	 mov	 eax, DWORD PTR _this$[ebp]
  0000a	83 60 54 00	 and	 DWORD PTR [eax+84], 0

; 22   : }

  0000e	c9		 leave
  0000f	c3		 ret	 0
?Disable@CSnowEnvironment@@QAEXXZ ENDP			; CSnowEnvironment::Disable
_TEXT	ENDS
; Function compile flags: /Odspy
; File D:\Metin2 Server Files\mainline\SRC_2014\Metin2Client\GameLib\SnowEnvironment.cpp
;	COMDAT ?Enable@CSnowEnvironment@@QAEXXZ
_TEXT	SEGMENT
_this$ = -4						; size = 4
?Enable@CSnowEnvironment@@QAEXXZ PROC			; CSnowEnvironment::Enable, COMDAT
; _this$ = ecx

; 10   : {

  00000	55		 push	 ebp
  00001	8b ec		 mov	 ebp, esp
  00003	51		 push	 ecx
  00004	89 4d fc	 mov	 DWORD PTR _this$[ebp], ecx

; 11   : 	if (!m_bSnowEnable)

  00007	8b 45 fc	 mov	 eax, DWORD PTR _this$[ebp]
  0000a	83 78 54 00	 cmp	 DWORD PTR [eax+84], 0
  0000e	75 08		 jne	 SHORT $LN2@Enable

; 12   : 	{
; 13   : 		Create();

  00010	8b 4d fc	 mov	 ecx, DWORD PTR _this$[ebp]
  00013	e8 00 00 00 00	 call	 ?Create@CSnowEnvironment@@QAE_NXZ ; CSnowEnvironment::Create
$LN2@Enable:

; 14   : 	}
; 15   : 
; 16   : 	m_bSnowEnable = TRUE;

  00018	8b 45 fc	 mov	 eax, DWORD PTR _this$[ebp]
  0001b	c7 40 54 01 00
	00 00		 mov	 DWORD PTR [eax+84], 1

; 17   : }

  00022	c9		 leave
  00023	c3		 ret	 0
?Enable@CSnowEnvironment@@QAEXXZ ENDP			; CSnowEnvironment::Enable
_TEXT	ENDS
; Function compile flags: /Odspy
; File D:\Metin2 Server Files\mainline\SRC_2014\Metin2Client\GameLib\SnowEnvironment.cpp
;	COMDAT ?Destroy@CSnowEnvironment@@QAEXXZ
_TEXT	SEGMENT
_this$ = -4						; size = 4
?Destroy@CSnowEnvironment@@QAEXXZ PROC			; CSnowEnvironment::Destroy, COMDAT
; _this$ = ecx

; 304  : {

  00000	55		 push	 ebp
  00001	8b ec		 mov	 ebp, esp
  00003	51		 push	 ecx
  00004	89 4d fc	 mov	 DWORD PTR _this$[ebp], ecx

; 305  : 	SAFE_RELEASE(m_lpSnowTexture);

  00007	8b 45 fc	 mov	 eax, DWORD PTR _this$[ebp]
  0000a	83 78 0c 00	 cmp	 DWORD PTR [eax+12], 0
  0000e	74 18		 je	 SHORT $LN2@Destroy
  00010	8b 45 fc	 mov	 eax, DWORD PTR _this$[ebp]
  00013	8b 40 0c	 mov	 eax, DWORD PTR [eax+12]
  00016	8b 4d fc	 mov	 ecx, DWORD PTR _this$[ebp]
  00019	8b 00		 mov	 eax, DWORD PTR [eax]
  0001b	ff 71 0c	 push	 DWORD PTR [ecx+12]
  0001e	ff 50 08	 call	 DWORD PTR [eax+8]
  00021	8b 45 fc	 mov	 eax, DWORD PTR _this$[ebp]
  00024	83 60 0c 00	 and	 DWORD PTR [eax+12], 0
$LN2@Destroy:

; 306  : 	SAFE_RELEASE(m_lpSnowRenderTargetSurface);

  00028	8b 45 fc	 mov	 eax, DWORD PTR _this$[ebp]
  0002b	83 78 10 00	 cmp	 DWORD PTR [eax+16], 0
  0002f	74 18		 je	 SHORT $LN3@Destroy
  00031	8b 45 fc	 mov	 eax, DWORD PTR _this$[ebp]
  00034	8b 40 10	 mov	 eax, DWORD PTR [eax+16]
  00037	8b 4d fc	 mov	 ecx, DWORD PTR _this$[ebp]
  0003a	8b 00		 mov	 eax, DWORD PTR [eax]
  0003c	ff 71 10	 push	 DWORD PTR [ecx+16]
  0003f	ff 50 08	 call	 DWORD PTR [eax+8]
  00042	8b 45 fc	 mov	 eax, DWORD PTR _this$[ebp]
  00045	83 60 10 00	 and	 DWORD PTR [eax+16], 0
$LN3@Destroy:

; 307  : 	SAFE_RELEASE(m_lpSnowDepthSurface);

  00049	8b 45 fc	 mov	 eax, DWORD PTR _this$[ebp]
  0004c	83 78 14 00	 cmp	 DWORD PTR [eax+20], 0
  00050	74 18		 je	 SHORT $LN4@Destroy
  00052	8b 45 fc	 mov	 eax, DWORD PTR _this$[ebp]
  00055	8b 40 14	 mov	 eax, DWORD PTR [eax+20]
  00058	8b 4d fc	 mov	 ecx, DWORD PTR _this$[ebp]
  0005b	8b 00		 mov	 eax, DWORD PTR [eax]
  0005d	ff 71 14	 push	 DWORD PTR [ecx+20]
  00060	ff 50 08	 call	 DWORD PTR [eax+8]
  00063	8b 45 fc	 mov	 eax, DWORD PTR _this$[ebp]
  00066	83 60 14 00	 and	 DWORD PTR [eax+20], 0
$LN4@Destroy:

; 308  : 	SAFE_RELEASE(m_lpAccumTexture);

  0006a	8b 45 fc	 mov	 eax, DWORD PTR _this$[ebp]
  0006d	83 78 18 00	 cmp	 DWORD PTR [eax+24], 0
  00071	74 18		 je	 SHORT $LN5@Destroy
  00073	8b 45 fc	 mov	 eax, DWORD PTR _this$[ebp]
  00076	8b 40 18	 mov	 eax, DWORD PTR [eax+24]
  00079	8b 4d fc	 mov	 ecx, DWORD PTR _this$[ebp]
  0007c	8b 00		 mov	 eax, DWORD PTR [eax]
  0007e	ff 71 18	 push	 DWORD PTR [ecx+24]
  00081	ff 50 08	 call	 DWORD PTR [eax+8]
  00084	8b 45 fc	 mov	 eax, DWORD PTR _this$[ebp]
  00087	83 60 18 00	 and	 DWORD PTR [eax+24], 0
$LN5@Destroy:

; 309  : 	SAFE_RELEASE(m_lpAccumRenderTargetSurface);

  0008b	8b 45 fc	 mov	 eax, DWORD PTR _this$[ebp]
  0008e	83 78 1c 00	 cmp	 DWORD PTR [eax+28], 0
  00092	74 18		 je	 SHORT $LN6@Destroy
  00094	8b 45 fc	 mov	 eax, DWORD PTR _this$[ebp]
  00097	8b 40 1c	 mov	 eax, DWORD PTR [eax+28]
  0009a	8b 4d fc	 mov	 ecx, DWORD PTR _this$[ebp]
  0009d	8b 00		 mov	 eax, DWORD PTR [eax]
  0009f	ff 71 1c	 push	 DWORD PTR [ecx+28]
  000a2	ff 50 08	 call	 DWORD PTR [eax+8]
  000a5	8b 45 fc	 mov	 eax, DWORD PTR _this$[ebp]
  000a8	83 60 1c 00	 and	 DWORD PTR [eax+28], 0
$LN6@Destroy:

; 310  : 	SAFE_RELEASE(m_lpAccumDepthSurface);

  000ac	8b 45 fc	 mov	 eax, DWORD PTR _this$[ebp]
  000af	83 78 20 00	 cmp	 DWORD PTR [eax+32], 0
  000b3	74 18		 je	 SHORT $LN7@Destroy
  000b5	8b 45 fc	 mov	 eax, DWORD PTR _this$[ebp]
  000b8	8b 40 20	 mov	 eax, DWORD PTR [eax+32]
  000bb	8b 4d fc	 mov	 ecx, DWORD PTR _this$[ebp]
