; Listing generated by Microsoft (R) Optimizing Compiler Version 19.28.29335.0 

	TITLE	D:\Metin2 Server Files\mainline\SRC_2014\Metin2Client\GameLib\TerrainDecal.cpp
	.686P
	.XMM
	include listing.inc
	.model	flat

INCLUDELIB LIBCMT
INCLUDELIB OLDNAMES

PUBLIC	??_H@YGXPAXIIP6EPAX0@Z@Z			; `vector constructor iterator'
PUBLIC	??0CTerrainDecal@@QAE@PAVCMapOutdoor@@@Z	; CTerrainDecal::CTerrainDecal
PUBLIC	??1CTerrainDecal@@UAE@XZ			; CTerrainDecal::~CTerrainDecal
PUBLIC	?Make@CTerrainDecal@@UAEXUD3DXVECTOR3@@00MMM@Z	; CTerrainDecal::Make
PUBLIC	?Render@CTerrainDecal@@UAEXXZ			; CTerrainDecal::Render
PUBLIC	?SearchAffectedTerrainMesh@CTerrainDecal@@IAEXMMMMPAKPAUD3DXVECTOR3@@1@Z ; CTerrainDecal::SearchAffectedTerrainMesh
PUBLIC	??_GCTerrainDecal@@UAEPAXI@Z			; CTerrainDecal::`scalar deleting destructor'
PUBLIC	?ms_singleton@?$CSingleton@VCStateManager@@@@0PAVCStateManager@@A ; CSingleton<CStateManager>::ms_singleton
PUBLIC	??_7CTerrainDecal@@6B@				; CTerrainDecal::`vftable'
PUBLIC	??_R4CTerrainDecal@@6B@				; CTerrainDecal::`RTTI Complete Object Locator'
PUBLIC	??_R0?AVCTerrainDecal@@@8			; CTerrainDecal `RTTI Type Descriptor'
PUBLIC	??_R3CTerrainDecal@@8				; CTerrainDecal::`RTTI Class Hierarchy Descriptor'
PUBLIC	??_R2CTerrainDecal@@8				; CTerrainDecal::`RTTI Base Class Array'
PUBLIC	??_R1A@?0A@EA@CTerrainDecal@@8			; CTerrainDecal::`RTTI Base Class Descriptor at (0,-1,0,64)'
PUBLIC	??_R1A@?0A@EA@CDecal@@8				; CDecal::`RTTI Base Class Descriptor at (0,-1,0,64)'
PUBLIC	??_R0?AVCDecal@@@8				; CDecal `RTTI Type Descriptor'
PUBLIC	??_R3CDecal@@8					; CDecal::`RTTI Class Hierarchy Descriptor'
PUBLIC	??_R2CDecal@@8					; CDecal::`RTTI Base Class Array'
PUBLIC	__real@3f000000
PUBLIC	__real@3f800000
PUBLIC	__xmm@80000000800000008000000080000000
EXTRN	??3@YAXPAXI@Z:PROC				; operator delete
EXTRN	_memset:PROC
EXTRN	_fabs:PROC
EXTRN	?fMAX@@YAMMM@Z:PROC				; fMAX
EXTRN	_D3DXVec3Normalize@8:PROC
EXTRN	?SaveRenderState@CStateManager@@QAEXW4_D3DRENDERSTATETYPE@@K@Z:PROC ; CStateManager::SaveRenderState
EXTRN	?RestoreRenderState@CStateManager@@QAEXW4_D3DRENDERSTATETYPE@@@Z:PROC ; CStateManager::RestoreRenderState
EXTRN	?SaveTextureStageState@CStateManager@@QAEXKW4_D3DTEXTURESTAGESTATETYPE@@K@Z:PROC ; CStateManager::SaveTextureStageState
EXTRN	?RestoreTextureStageState@CStateManager@@QAEXKW4_D3DTEXTURESTAGESTATETYPE@@@Z:PROC ; CStateManager::RestoreTextureStageState
EXTRN	?SetTextureStageState@CStateManager@@QAEXKW4_D3DTEXTURESTAGESTATETYPE@@K@Z:PROC ; CStateManager::SetTextureStageState
EXTRN	??0CDecal@@QAE@XZ:PROC				; CDecal::CDecal
EXTRN	??1CDecal@@UAE@XZ:PROC				; CDecal::~CDecal
EXTRN	?Clear@CDecal@@QAEXXZ:PROC			; CDecal::Clear
EXTRN	?Render@CDecal@@UAEXXZ:PROC			; CDecal::Render
EXTRN	?ClipMesh@CDecal@@IAEXKPBUD3DXVECTOR3@@0@Z:PROC	; CDecal::ClipMesh
EXTRN	??_ECTerrainDecal@@UAEPAXI@Z:PROC		; CTerrainDecal::`vector deleting destructor'
EXTRN	?GetHeight@CTerrain@@QAEMHH@Z:PROC		; CTerrain::GetHeight
EXTRN	?GetTerrainPointer@CMapOutdoor@@QAEHEPAPAVCTerrain@@@Z:PROC ; CMapOutdoor::GetTerrainPointer
EXTRN	?GetTerrainNumFromCoord@CMapOutdoor@@QAE_NGGPAE@Z:PROC ; CMapOutdoor::GetTerrainNumFromCoord
EXTRN	@__security_check_cookie@4:PROC
EXTRN	___CxxFrameHandler3:PROC
EXTRN	__chkstk:PROC
EXTRN	??_7type_info@@6B@:QWORD			; type_info::`vftable'
EXTRN	?PR_FCNV@@3MA:DWORD				; PR_FCNV
EXTRN	?PR_ICNV@@3JA:DWORD				; PR_ICNV
EXTRN	___security_cookie:DWORD
EXTRN	__fltused:DWORD
;	COMDAT ?ms_singleton@?$CSingleton@VCStateManager@@@@0PAVCStateManager@@A
_BSS	SEGMENT
?ms_singleton@?$CSingleton@VCStateManager@@@@0PAVCStateManager@@A DD 01H DUP (?) ; CSingleton<CStateManager>::ms_singleton
_BSS	ENDS
;	COMDAT __xmm@80000000800000008000000080000000
CONST	SEGMENT
__xmm@80000000800000008000000080000000 DB 00H, 00H, 00H, 080H, 00H, 00H, 00H
	DB	080H, 00H, 00H, 00H, 080H, 00H, 00H, 00H, 080H
CONST	ENDS
;	COMDAT __real@3f800000
CONST	SEGMENT
__real@3f800000 DD 03f800000r			; 1
CONST	ENDS
;	COMDAT __real@3f000000
CONST	SEGMENT
__real@3f000000 DD 03f000000r			; 0.5
CONST	ENDS
;	COMDAT ??_R2CDecal@@8
rdata$r	SEGMENT
??_R2CDecal@@8 DD FLAT:??_R1A@?0A@EA@CDecal@@8		; CDecal::`RTTI Base Class Array'
rdata$r	ENDS
;	COMDAT ??_R3CDecal@@8
rdata$r	SEGMENT
??_R3CDecal@@8 DD 00H					; CDecal::`RTTI Class Hierarchy Descriptor'
	DD	00H
	DD	01H
	DD	FLAT:??_R2CDecal@@8
rdata$r	ENDS
;	COMDAT ??_R0?AVCDecal@@@8
data$rs	SEGMENT
??_R0?AVCDecal@@@8 DD FLAT:??_7type_info@@6B@		; CDecal `RTTI Type Descriptor'
	DD	00H
	DB	'.?AVCDecal@@', 00H
data$rs	ENDS
;	COMDAT ??_R1A@?0A@EA@CDecal@@8
rdata$r	SEGMENT
??_R1A@?0A@EA@CDecal@@8 DD FLAT:??_R0?AVCDecal@@@8	; CDecal::`RTTI Base Class Descriptor at (0,-1,0,64)'
	DD	00H
	DD	00H
	DD	0ffffffffH
	DD	00H
	DD	040H
	DD	FLAT:??_R3CDecal@@8
rdata$r	ENDS
;	COMDAT ??_R1A@?0A@EA@CTerrainDecal@@8
rdata$r	SEGMENT
??_R1A@?0A@EA@CTerrainDecal@@8 DD FLAT:??_R0?AVCTerrainDecal@@@8 ; CTerrainDecal::`RTTI Base Class Descriptor at (0,-1,0,64)'
	DD	01H
	DD	00H
	DD	0ffffffffH
	DD	00H
	DD	040H
	DD	FLAT:??_R3CTerrainDecal@@8
rdata$r	ENDS
;	COMDAT ??_R2CTerrainDecal@@8
rdata$r	SEGMENT
??_R2CTerrainDecal@@8 DD FLAT:??_R1A@?0A@EA@CTerrainDecal@@8 ; CTerrainDecal::`RTTI Base Class Array'
	DD	FLAT:??_R1A@?0A@EA@CDecal@@8
rdata$r	ENDS
;	COMDAT ??_R3CTerrainDecal@@8
rdata$r	SEGMENT
??_R3CTerrainDecal@@8 DD 00H				; CTerrainDecal::`RTTI Class Hierarchy Descriptor'
	DD	00H
	DD	02H
	DD	FLAT:??_R2CTerrainDecal@@8
rdata$r	ENDS
;	COMDAT ??_R0?AVCTerrainDecal@@@8
data$rs	SEGMENT
??_R0?AVCTerrainDecal@@@8 DD FLAT:??_7type_info@@6B@	; CTerrainDecal `RTTI Type Descriptor'
	DD	00H
	DB	'.?AVCTerrainDecal@@', 00H
data$rs	ENDS
;	COMDAT ??_R4CTerrainDecal@@6B@
rdata$r	SEGMENT
??_R4CTerrainDecal@@6B@ DD 00H				; CTerrainDecal::`RTTI Complete Object Locator'
	DD	00H
	DD	00H
	DD	FLAT:??_R0?AVCTerrainDecal@@@8
	DD	FLAT:??_R3CTerrainDecal@@8
rdata$r	ENDS
;	COMDAT ??_7CTerrainDecal@@6B@
CONST	SEGMENT
??_7CTerrainDecal@@6B@ DD FLAT:??_R4CTerrainDecal@@6B@	; CTerrainDecal::`vftable'
	DD	FLAT:??_ECTerrainDecal@@UAEPAXI@Z
	DD	FLAT:?Make@CTerrainDecal@@UAEXUD3DXVECTOR3@@00MMM@Z
	DD	FLAT:?Render@CTerrainDecal@@UAEXXZ
CONST	ENDS
;	COMDAT xdata$x
xdata$x	SEGMENT
__ehfuncinfo$??1CTerrainDecal@@UAE@XZ DD 019930522H
	DD	00H
	DD	00H
	DD	2 DUP(00H)
	DD	2 DUP(00H)
	DD	00H
	DD	05H
xdata$x	ENDS
; Function compile flags: /Odspy
;	COMDAT ??_GCTerrainDecal@@UAEPAXI@Z
_TEXT	SEGMENT
_this$ = -4						; size = 4
___flags$ = 8						; size = 4
??_GCTerrainDecal@@UAEPAXI@Z PROC			; CTerrainDecal::`scalar deleting destructor', COMDAT
; _this$ = ecx
  00000	55		 push	 ebp
  00001	8b ec		 mov	 ebp, esp
  00003	51		 push	 ecx
  00004	89 4d fc	 mov	 DWORD PTR _this$[ebp], ecx
  00007	8b 4d fc	 mov	 ecx, DWORD PTR _this$[ebp]
  0000a	e8 00 00 00 00	 call	 ??1CTerrainDecal@@UAE@XZ ; CTerrainDecal::~CTerrainDecal
  0000f	8b 45 08	 mov	 eax, DWORD PTR ___flags$[ebp]
  00012	83 e0 01	 and	 eax, 1
  00015	74 0f		 je	 SHORT $LN2@scalar
  00017	68 98 1a 00 00	 push	 6808			; 00001a98H
  0001c	ff 75 fc	 push	 DWORD PTR _this$[ebp]
  0001f	e8 00 00 00 00	 call	 ??3@YAXPAXI@Z		; operator delete
  00024	59		 pop	 ecx
  00025	59		 pop	 ecx
$LN2@scalar:
  00026	8b 45 fc	 mov	 eax, DWORD PTR _this$[ebp]
  00029	c9		 leave
  0002a	c2 04 00	 ret	 4
??_GCTerrainDecal@@UAEPAXI@Z ENDP			; CTerrainDecal::`scalar deleting destructor'
_TEXT	ENDS
; Function compile flags: /Odspy
; File D:\Metin2 Server Files\mainline\SRC_2014\Metin2Client\GameLib\TerrainDecal.cpp
; File D:\Metin2 Server Files\mainline\SRC_2014\M2Data\include\d3dx8math.inl
; File D:\Metin2 Server Files\mainline\SRC_2014\Metin2Client\GameLib\TerrainDecal.cpp
; File D:\Metin2 Server Files\mainline\SRC_2014\M2Data\include\d3dx8math.inl
; File D:\Metin2 Server Files\mainline\SRC_2014\Metin2Client\GameLib\TerrainDecal.cpp
; File D:\Metin2 Server Files\mainline\SRC_2014\M2Data\include\d3dx8math.inl
; File D:\Metin2 Server Files\mainline\SRC_2014\Metin2Client\GameLib\TerrainDecal.cpp
; File D:\Metin2 Server Files\mainline\SRC_2014\M2Data\include\d3dx8math.inl
; File D:\Metin2 Server Files\mainline\SRC_2014\Metin2Client\GameLib\TerrainDecal.cpp
; File D:\Metin2 Server Files\mainline\SRC_2014\M2Data\include\d3dx8math.inl
; File D:\Metin2 Server Files\mainline\SRC_2014\Metin2Client\GameLib\TerrainDecal.cpp
; File D:\Metin2 Server Files\mainline\SRC_2014\M2Data\include\d3dx8math.inl
; File D:\Metin2 Server Files\mainline\SRC_2014\Metin2Client\GameLib\TerrainDecal.cpp
; File D:\Metin2 Server Files\mainline\SRC_2014\M2Data\include\d3dx8math.inl
; File D:\Metin2 Server Files\mainline\SRC_2014\Metin2Client\GameLib\TerrainDecal.cpp
; File D:\Metin2 Server Files\mainline\SRC_2014\M2Data\include\d3dx8math.inl
; File D:\Metin2 Server Files\mainline\SRC_2014\Metin2Client\GameLib\TerrainDecal.cpp
; File D:\Metin2 Server Files\mainline\SRC_2014\M2Data\include\d3dx8math.inl
; File D:\Metin2 Server Files\mainline\SRC_2014\Metin2Client\GameLib\TerrainDecal.cpp
; File D:\Metin2 Server Files\mainline\SRC_2014\M2Data\include\d3dx8math.inl
; File D:\Metin2 Server Files\mainline\SRC_2014\Metin2Client\GameLib\TerrainDecal.cpp
; File D:\Metin2 Server Files\mainline\SRC_2014\M2Data\include\d3dx8math.inl
; File D:\Metin2 Server Files\mainline\SRC_2014\Metin2Client\GameLib\TerrainDecal.cpp
; File D:\Metin2 Server Files\mainline\SRC_2014\M2Data\include\d3dx8math.inl
; File D:\Metin2 Server Files\mainline\SRC_2014\Metin2Client\GameLib\TerrainDecal.cpp
; File D:\Metin2 Server Files\mainline\SRC_2014\M2Data\include\d3dx8math.inl
; File D:\Metin2 Server Files\mainline\SRC_2014\Metin2Client\GameLib\TerrainDecal.cpp
; File D:\Metin2 Server Files\mainline\SRC_2014\M2Data\include\d3dx8math.inl
; File D:\Metin2 Server Files\mainline\SRC_2014\Metin2Client\GameLib\TerrainDecal.cpp
; File D:\Metin2 Server Files\mainline\SRC_2014\M2Data\include\d3dx8math.inl
; File D:\Metin2 Server Files\mainline\SRC_2014\Metin2Client\GameLib\TerrainDecal.cpp
; File D:\Metin2 Server Files\mainline\SRC_2014\M2Data\include\d3dx8math.inl
; File D:\Metin2 Server Files\mainline\SRC_2014\Metin2Client\GameLib\TerrainDecal.cpp
; File D:\Metin2 Server Files\mainline\SRC_2014\M2Data\include\d3dx8math.inl
; File D:\Metin2 Server Files\mainline\SRC_2014\Metin2Client\GameLib\TerrainDecal.cpp
; File D:\Metin2 Server Files\mainline\SRC_2014\M2Data\include\d3dx8math.inl
; File D:\Metin2 Server Files\mainline\SRC_2014\Metin2Client\GameLib\TerrainDecal.cpp
;	COMDAT ?SearchAffectedTerrainMesh@CTerrainDecal@@IAEXMMMMPAKPAUD3DXVECTOR3@@1@Z
_TEXT	SEGMENT
tv647 = -148						; size = 4
_wTerrainNumY$1 = -144					; size = 2
_wTerrainNumX$2 = -140					; size = 2
_byTerrainNum$3 = -136					; size = 1
_fHeightRB$4 = -132					; size = 4
_fHeightLT$5 = -128					; size = 4
tv666 = -124						; size = 4
tv659 = -120						; size = 4
tv653 = -116						; size = 4
tv69 = -112						; size = 4
tv73 = -108						; size = 4
tv77 = -104						; size = 4
tv81 = -100						; size = 4
_fHeightRT$6 = -96					; size = 4
_fHeightLB$7 = -92					; size = 4
_iMaxX$ = -88						; size = 4
_pTerrain$8 = -84					; size = 4
_iMinX$ = -80						; size = 4
_iMaxY$ = -76						; size = 4
_iMinY$ = -72						; size = 4
_this$ = -68						; size = 4
_ix$9 = -64						; size = 4
_iy$10 = -60						; size = 4
$T11 = -56						; size = 12
$T12 = -44						; size = 12
$T13 = -32						; size = 12
$T14 = -20						; size = 12
$T15 = -8						; size = 12
$T16 = 4						; size = 12
$T17 = 16						; size = 12
$T18 = 28						; size = 12
$T19 = 40						; size = 12
$T20 = 52						; size = 12
$T21 = 64						; size = 12
$T22 = 76						; size = 12
__$ArrayPad$ = 88					; size = 4
_fMinX$ = 100						; size = 4
_fMaxX$ = 104						; size = 4
_fMinY$ = 108						; size = 4
_fMaxY$ = 112						; size = 4
_pdwAffectedPrimitiveCount$ = 116			; size = 4
_pv3AffectedVertex$ = 120				; size = 4
_pv3AffectedNormal$ = 124				; size = 4
?SearchAffectedTerrainMesh@CTerrainDecal@@IAEXMMMMPAKPAUD3DXVECTOR3@@1@Z PROC ; CTerrainDecal::SearchAffectedTerrainMesh, COMDAT
; _this$ = ecx

; 126  : {

  00000	55		 push	 ebp
  00001	8d 6c 24 a4	 lea	 ebp, DWORD PTR [esp-92]
  00005	81 ec f0 00 00
	00		 sub	 esp, 240		; 000000f0H
  0000b	a1 00 00 00 00	 mov	 eax, DWORD PTR ___security_cookie
  00010	33 c5		 xor	 eax, ebp
  00012	89 45 58	 mov	 DWORD PTR __$ArrayPad$[ebp], eax
  00015	56		 push	 esi
  00016	57		 push	 edi
  00017	89 4d bc	 mov	 DWORD PTR _this$[ebp], ecx

; 127  : 	if (!m_pMapOutdoor)

  0001a	8b 45 bc	 mov	 eax, DWORD PTR _this$[ebp]
  0001d	83 b8 94 1a 00
	00 00		 cmp	 DWORD PTR [eax+6804], 0
  00024	75 05		 jne	 SHORT $LN8@SearchAffe

; 128  : 		return;

  00026	e9 5a 05 00 00	 jmp	 $LN1@SearchAffe
$LN8@SearchAffe:

; 129  : 	int iMinX, iMaxX, iMinY, iMaxY;
; 130  : 	PR_FLOAT_TO_INT(fMinX, iMinX);

  0002b	f3 0f 10 45 64	 movss	 xmm0, DWORD PTR _fMinX$[ebp]
  00030	f3 0f 11 05 00
	00 00 00	 movss	 DWORD PTR ?PR_FCNV@@3MA, xmm0
  00038	d9 05 00 00 00
	00		 fld	 DWORD PTR ?PR_FCNV@@3MA	; PR_FCNV
  0003e	db 1d 00 00 00
	00		 fistp	 DWORD PTR ?PR_ICNV@@3JA
  00044	f3 0f 2a 05 00
	00 00 00	 cvtsi2ss xmm0, DWORD PTR ?PR_ICNV@@3JA ; PR_ICNV
  0004c	0f 2f 05 00 00
	00 00		 comiss	 xmm0, DWORD PTR ?PR_FCNV@@3MA
  00053	76 0b		 jbe	 SHORT $LN14@SearchAffe
  00055	a1 00 00 00 00	 mov	 eax, DWORD PTR ?PR_ICNV@@3JA ; PR_ICNV
  0005a	48		 dec	 eax
  0005b	89 45 90	 mov	 DWORD PTR tv69[ebp], eax
  0005e	eb 08		 jmp	 SHORT $LN15@SearchAffe
$LN14@SearchAffe:
  00060	a1 00 00 00 00	 mov	 eax, DWORD PTR ?PR_ICNV@@3JA ; PR_ICNV
  00065	89 45 90	 mov	 DWORD PTR tv69[ebp], eax
$LN15@SearchAffe:
  00068	8b 45 90	 mov	 eax, DWORD PTR tv69[ebp]
  0006b	89 45 b0	 mov	 DWORD PTR _iMinX$[ebp], eax

; 131  : 	PR_FLOAT_TO_INT(fMaxX, iMaxX);

  0006e	f3 0f 10 45 68	 movss	 xmm0, DWORD PTR _fMaxX$[ebp]
  00073	f3 0f 11 05 00
	00 00 00	 movss	 DWORD PTR ?PR_FCNV@@3MA, xmm0
  0007b	d9 05 00 00 00
	00		 fld	 DWORD PTR ?PR_FCNV@@3MA	; PR_FCNV
  00081	db 1d 00 00 00
	00		 fistp	 DWORD PTR ?PR_ICNV@@3JA
  00087	f3 0f 2a 05 00
	00 00 00	 cvtsi2ss xmm0, DWORD PTR ?PR_ICNV@@3JA ; PR_ICNV
  0008f	0f 2f 05 00 00
	00 00		 comiss	 xmm0, DWORD PTR ?PR_FCNV@@3MA
  00096	76 0b		 jbe	 SHORT $LN16@SearchAffe
  00098	a1 00 00 00 00	 mov	 eax, DWORD PTR ?PR_ICNV@@3JA ; PR_ICNV
  0009d	48		 dec	 eax
  0009e	89 45 94	 mov	 DWORD PTR tv73[ebp], eax
  000a1	eb 08		 jmp	 SHORT $LN17@SearchAffe
$LN16@SearchAffe:
  000a3	a1 00 00 00 00	 mov	 eax, DWORD PTR ?PR_ICNV@@3JA ; PR_ICNV
  000a8	89 45 94	 mov	 DWORD PTR tv73[ebp], eax
$LN17@SearchAffe:
  000ab	8b 45 94	 mov	 eax, DWORD PTR tv73[ebp]
  000ae	89 45 a8	 mov	 DWORD PTR _iMaxX$[ebp], eax

; 132  : 	PR_FLOAT_TO_INT(fMinY, iMinY);

  000b1	f3 0f 10 45 6c	 movss	 xmm0, DWORD PTR _fMinY$[ebp]
  000b6	f3 0f 11 05 00
	00 00 00	 movss	 DWORD PTR ?PR_FCNV@@3MA, xmm0
  000be	d9 05 00 00 00
	00		 fld	 DWORD PTR ?PR_FCNV@@3MA	; PR_FCNV
  000c4	db 1d 00 00 00
	00		 fistp	 DWORD PTR ?PR_ICNV@@3JA
  000ca	f3 0f 2a 05 00
	00 00 00	 cvtsi2ss xmm0, DWORD PTR ?PR_ICNV@@3JA ; PR_ICNV
  000d2	0f 2f 05 00 00
	00 00		 comiss	 xmm0, DWORD PTR ?PR_FCNV@@3MA
  000d9	76 0b		 jbe	 SHORT $LN18@SearchAffe
  000db	a1 00 00 00 00	 mov	 eax, DWORD PTR ?PR_ICNV@@3JA ; PR_ICNV
  000e0	48		 dec	 eax
  000e1	89 45 98	 mov	 DWORD PTR tv77[ebp], eax
  000e4	eb 08		 jmp	 SHORT $LN19@SearchAffe
$LN18@SearchAffe:
  000e6	a1 00 00 00 00	 mov	 eax, DWORD PTR ?PR_ICNV@@3JA ; PR_ICNV
  000eb	89 45 98	 mov	 DWORD PTR tv77[ebp], eax
$LN19@SearchAffe:
  000ee	8b 45 98	 mov	 eax, DWORD PTR tv77[ebp]
  000f1	89 45 b8	 mov	 DWORD PTR _iMinY$[ebp], eax

; 133  : 	PR_FLOAT_TO_INT(fMaxY, iMaxY);

  000f4	f3 0f 10 45 70	 movss	 xmm0, DWORD PTR _fMaxY$[ebp]
  000f9	f3 0f 11 05 00
	00 00 00	 movss	 DWORD PTR ?PR_FCNV@@3MA, xmm0
  00101	d9 05 00 00 00
	00		 fld	 DWORD PTR ?PR_FCNV@@3MA	; PR_FCNV
  00107	db 1d 00 00 00
	00		 fistp	 DWORD PTR ?PR_ICNV@@3JA
  0010d	f3 0f 2a 05 00
	00 00 00	 cvtsi2ss xmm0, DWORD PTR ?PR_ICNV@@3JA ; PR_ICNV
  00115	0f 2f 05 00 00
	00 00		 comiss	 xmm0, DWORD PTR ?PR_FCNV@@3MA
  0011c	76 0b		 jbe	 SHORT $LN20@SearchAffe
  0011e	a1 00 00 00 00	 mov	 eax, DWORD PTR ?PR_ICNV@@3JA ; PR_ICNV
  00123	48		 dec	 eax
  00124	89 45 9c	 mov	 DWORD PTR tv81[ebp], eax
  00127	eb 08		 jmp	 SHORT $LN21@SearchAffe
$LN20@SearchAffe:
  00129	a1 00 00 00 00	 mov	 eax, DWORD PTR ?PR_ICNV@@3JA ; PR_ICNV
  0012e	89 45 9c	 mov	 DWORD PTR tv81[ebp], eax
$LN21@SearchAffe:
  00131	8b 45 9c	 mov	 eax, DWORD PTR tv81[ebp]
  00134	89 45 b4	 mov	 DWORD PTR _iMaxY$[ebp], eax

; 134  : 
; 135  : 	iMinX -= iMinX % CTerrainImpl::CELLSCALE; 

  00137	8b 45 b0	 mov	 eax, DWORD PTR _iMinX$[ebp]
  0013a	99		 cdq
  0013b	b9 c8 00 00 00	 mov	 ecx, 200		; 000000c8H
  00140	f7 f9		 idiv	 ecx
  00142	8b 45 b0	 mov	 eax, DWORD PTR _iMinX$[ebp]
  00145	2b c2		 sub	 eax, edx
  00147	89 45 b0	 mov	 DWORD PTR _iMinX$[ebp], eax

; 136  : 	iMaxX -= iMaxX % CTerrainImpl::CELLSCALE; 

  0014a	8b 45 a8	 mov	 eax, DWORD PTR _iMaxX$[ebp]
  0014d	99		 cdq
  0014e	b9 c8 00 00 00	 mov	 ecx, 200		; 000000c8H
  00153	f7 f9		 idiv	 ecx
  00155	8b 45 a8	 mov	 eax, DWORD PTR _iMaxX$[ebp]
  00158	2b c2		 sub	 eax, edx
  0015a	89 45 a8	 mov	 DWORD PTR _iMaxX$[ebp], eax

; 137  : 	iMinY -= iMinY % CTerrainImpl::CELLSCALE; 

  0015d	8b 45 b8	 mov	 eax, DWORD PTR _iMinY$[ebp]
  00160	99		 cdq
  00161	b9 c8 00 00 00	 mov	 ecx, 200		; 000000c8H
  00166	f7 f9		 idiv	 ecx
  00168	8b 45 b8	 mov	 eax, DWORD PTR _iMinY$[ebp]
  0016b	2b c2		 sub	 eax, edx
  0016d	89 45 b8	 mov	 DWORD PTR _iMinY$[ebp], eax

; 138  : 	iMaxY -= iMaxY % CTerrainImpl::CELLSCALE; 

  00170	8b 45 b4	 mov	 eax, DWORD PTR _iMaxY$[ebp]
  00173	99		 cdq
  00174	b9 c8 00 00 00	 mov	 ecx, 200		; 000000c8H
  00179	f7 f9		 idiv	 ecx
  0017b	8b 45 b4	 mov	 eax, DWORD PTR _iMaxY$[ebp]
  0017e	2b c2		 sub	 eax, edx
  00180	89 45 b4	 mov	 DWORD PTR _iMaxY$[ebp], eax

; 139  : 
; 140  : 	for(int iy = iMinY; iy <= iMaxY; iy += CTerrainImpl::CELLSCALE)

  00183	8b 45 b8	 mov	 eax, DWORD PTR _iMinY$[ebp]
  00186	89 45 c4	 mov	 DWORD PTR _iy$10[ebp], eax
  00189	eb 0b		 jmp	 SHORT $LN4@SearchAffe
$LN2@SearchAffe:
  0018b	8b 45 c4	 mov	 eax, DWORD PTR _iy$10[ebp]
  0018e	05 c8 00 00 00	 add	 eax, 200		; 000000c8H
  00193	89 45 c4	 mov	 DWORD PTR _iy$10[ebp], eax
$LN4@SearchAffe:
  00196	8b 45 c4	 mov	 eax, DWORD PTR _iy$10[ebp]
  00199	3b 45 b4	 cmp	 eax, DWORD PTR _iMaxY$[ebp]
  0019c	0f 8f e3 03 00
	00		 jg	 $LN3@SearchAffe

; 141  : 	{
; 142  : 		if (iy < 0)

  001a2	83 7d c4 00	 cmp	 DWORD PTR _iy$10[ebp], 0
  001a6	7d 02		 jge	 SHORT $LN9@SearchAffe

; 143  : 			continue;

  001a8	eb e1		 jmp	 SHORT $LN2@SearchAffe
$LN9@SearchAffe:

; 144  : 		WORD wTerrainNumY = iy / CTerrainImpl::TERRAIN_YSIZE;

  001aa	8b 45 c4	 mov	 eax, DWORD PTR _iy$10[ebp]
  001ad	99		 cdq
  001ae	b9 00 64 00 00	 mov	 ecx, 25600		; 00006400H
  001b3	f7 f9		 idiv	 ecx
  001b5	66 89 85 70 ff
	ff ff		 mov	 WORD PTR _wTerrainNumY$1[ebp], ax

; 145  : 		for(int ix = iMinX; ix <= iMaxX; ix += CTerrainImpl::CELLSCALE)

  001bc	8b 45 b0	 mov	 eax, DWORD PTR _iMinX$[ebp]
  001bf	89 45 c0	 mov	 DWORD PTR _ix$9[ebp], eax
  001c2	eb 0b		 jmp	 SHORT $LN7@SearchAffe
$LN5@SearchAffe:
  001c4	8b 45 c0	 mov	 eax, DWORD PTR _ix$9[ebp]
  001c7	05 c8 00 00 00	 add	 eax, 200		; 000000c8H
  001cc	89 45 c0	 mov	 DWORD PTR _ix$9[ebp], eax
$LN7@SearchAffe:
  001cf	8b 45 c0	 mov	 eax, DWORD PTR _ix$9[ebp]
  001d2	3b 45 a8	 cmp	 eax, DWORD PTR _iMaxX$[ebp]
  001d5	0f 8f a5 03 00
	00		 jg	 $LN6@SearchAffe

; 146  : 		{
; 147  : 			if (ix < 0)

  001db	83 7d c0 00	 cmp	 DWORD PTR _ix$9[ebp], 0
  001df	7d 02		 jge	 SHORT $LN10@SearchAffe

; 148  : 				continue;

  001e1	eb e1		 jmp	 SHORT $LN5@SearchAffe
$LN10@SearchAffe:

; 149  : 			WORD wTerrainNumX = ix / CTerrainImpl::TERRAIN_YSIZE;

  001e3	8b 45 c0	 mov	 eax, DWORD PTR _ix$9[ebp]
  001e6	99		 cdq
  001e7	b9 00 64 00 00	 mov	 ecx, 25600		; 00006400H
  001ec	f7 f9		 idiv	 ecx
  001ee	66 89 85 74 ff
	ff ff		 mov	 WORD PTR _wTerrainNumX$2[ebp], ax

; 150  : 			
; 151  : 			BYTE byTerrainNum;
; 152  : 			if (!m_pMapOutdoor->GetTerrainNumFromCoord(wTerrainNumX, wTerrainNumY, &byTerrainNum))

  001f5	8d 85 78 ff ff
	ff		 lea	 eax, DWORD PTR _byTerrainNum$3[ebp]
  001fb	50		 push	 eax
  001fc	ff b5 70 ff ff
	ff		 push	 DWORD PTR _wTerrainNumY$1[ebp]
  00202	ff b5 74 ff ff
	ff		 push	 DWORD PTR _wTerrainNumX$2[ebp]
  00208	8b 45 bc	 mov	 eax, DWORD PTR _this$[ebp]
  0020b	8b 88 94 1a 00
	00		 mov	 ecx, DWORD PTR [eax+6804]
  00211	e8 00 00 00 00	 call	 ?GetTerrainNumFromCoord@CMapOutdoor@@QAE_NGGPAE@Z ; CMapOutdoor::GetTerrainNumFromCoord
  00216	0f b6 c0	 movzx	 eax, al
  00219	85 c0		 test	 eax, eax
  0021b	75 02		 jne	 SHORT $LN11@SearchAffe

; 153  : 				continue;

  0021d	eb a5		 jmp	 SHORT $LN5@SearchAffe
$LN11@SearchAffe:

; 154  : 			CTerrain * pTerrain;
; 155  : 			if (!m_pMapOutdoor->GetTerrainPointer(byTerrainNum, &pTerrain))

  0021f	8d 45 ac	 lea	 eax, DWORD PTR _pTerrain$8[ebp]
  00222	50		 push	 eax
  00223	ff b5 78 ff ff
	ff		 push	 DWORD PTR _byTerrainNum$3[ebp]
  00229	8b 45 bc	 mov	 eax, DWORD PTR _this$[ebp]
  0022c	8b 88 94 1a 00
	00		 mov	 ecx, DWORD PTR [eax+6804]
  00232	e8 00 00 00 00	 call	 ?GetTerrainPointer@CMapOutdoor@@QAEHEPAPAVCTerrain@@@Z ; CMapOutdoor::GetTerrainPointer
  00237	85 c0		 test	 eax, eax
  00239	75 02		 jne	 SHORT $LN12@SearchAffe

; 156  : 				continue;

  0023b	eb 87		 jmp	 SHORT $LN5@SearchAffe
$LN12@SearchAffe:

; 157  : 
; 158  : 			float fHeightLT = pTerrain->GetHeight(ix, iy) + m_cfDecalEpsilon;

  0023d	ff 75 c4	 push	 DWORD PTR _iy$10[ebp]
  00240	ff 75 c0	 push	 DWORD PTR _ix$9[ebp]
  00243	8b 4d ac	 mov	 ecx, DWORD PTR _pTerrain$8[ebp]
  00246	e8 00 00 00 00	 call	 ?GetHeight@CTerrain@@QAEMHH@Z ; CTerrain::GetHeight
  0024b	d9 9d 6c ff ff
	ff		 fstp	 DWORD PTR tv647[ebp]
  00251	f3 0f 10 85 6c
	ff ff ff	 movss	 xmm0, DWORD PTR tv647[ebp]
  00259	8b 45 bc	 mov	 eax, DWORD PTR _this$[ebp]
  0025c	f3 0f 58 80 90
	1a 00 00	 addss	 xmm0, DWORD PTR [eax+6800]
  00264	f3 0f 11 45 80	 movss	 DWORD PTR _fHeightLT$5[ebp], xmm0

; 159  : 			float fHeightRT = pTerrain->GetHeight(ix + CTerrainImpl::CELLSCALE, iy) + m_cfDecalEpsilon;

  00269	ff 75 c4	 push	 DWORD PTR _iy$10[ebp]
  0026c	8b 45 c0	 mov	 eax, DWORD PTR _ix$9[ebp]
  0026f	05 c8 00 00 00	 add	 eax, 200		; 000000c8H
  00274	50		 push	 eax
  00275	8b 4d ac	 mov	 ecx, DWORD PTR _pTerrain$8[ebp]
  00278	e8 00 00 00 00	 call	 ?GetHeight@CTerrain@@QAEMHH@Z ; CTerrain::GetHeight
  0027d	d9 5d 8c	 fstp	 DWORD PTR tv653[ebp]
  00280	f3 0f 10 45 8c	 movss	 xmm0, DWORD PTR tv653[ebp]
  00285	8b 45 bc	 mov	 eax, DWORD PTR _this$[ebp]
  00288	f3 0f 58 80 90
	1a 00 00	 addss	 xmm0, DWORD PTR [eax+6800]
  00290	f3 0f 11 45 a0	 movss	 DWORD PTR _fHeightRT$6[ebp], xmm0

; 160  : 			float fHeightLB = pTerrain->GetHeight(ix, iy + CTerrainImpl::CELLSCALE) + m_cfDecalEpsilon;

  00295	8b 45 c4	 mov	 eax, DWORD PTR _iy$10[ebp]
  00298	05 c8 00 00 00	 add	 eax, 200		; 000000c8H
  0029d	50		 push	 eax
  0029e	ff 75 c0	 push	 DWORD PTR _ix$9[ebp]
  002a1	8b 4d ac	 mov	 ecx, DWORD PTR _pTerrain$8[ebp]
  002a4	e8 00 00 00 00	 call	 ?GetHeight@CTerrain@@QAEMHH@Z ; CTerrain::GetHeight
  002a9	d9 5d 88	 fstp	 DWORD PTR tv659[ebp]
  002ac	f3 0f 10 45 88	 movss	 xmm0, DWORD PTR tv659[ebp]
  002b1	8b 45 bc	 mov	 eax, DWORD PTR _this$[ebp]
  002b4	f3 0f 58 80 90
	1a 00 00	 addss	 xmm0, DWORD PTR [eax+6800]
  002bc	f3 0f 11 45 a4	 movss	 DWORD PTR _fHeightLB$7[ebp], xmm0

; 161  : 			float fHeightRB = pTerrain->GetHeight(ix + CTerrainImpl::CELLSCALE, iy + CTerrainImpl::CELLSCALE) + m_cfDecalEpsilon;

  002c1	8b 45 c4	 mov	 eax, DWORD PTR _iy$10[ebp]
  002c4	05 c8 00 00 00	 add	 eax, 200		; 000000c8H
  002c9	50		 push	 eax
  002ca	8b 45 c0	 mov	 eax, DWORD PTR _ix$9[ebp]
  002cd	05 c8 00 00 00	 add	 eax, 200		; 000000c8H
  002d2	50		 push	 eax
  002d3	8b 4d ac	 mov	 ecx, DWORD PTR _pTerrain$8[ebp]
  002d6	e8 00 00 00 00	 call	 ?GetHeight@CTerrain@@QAEMHH@Z ; CTerrain::GetHeight
  002db	d9 5d 84	 fstp	 DWORD PTR tv666[ebp]
  002de	f3 0f 10 45 84	 movss	 xmm0, DWORD PTR tv666[ebp]
  002e3	8b 45 bc	 mov	 eax, DWORD PTR _this$[ebp]
  002e6	f3 0f 58 80 90
	1a 00 00	 addss	 xmm0, DWORD PTR [eax+6800]
  002ee	f3 0f 11 85 7c
	ff ff ff	 movss	 DWORD PTR _fHeightRB$4[ebp], xmm0

; 162  : 
; 163  : 			*pdwAffectedPrimitiveCount += 2;

  002f6	8b 45 74	 mov	 eax, DWORD PTR _pdwAffectedPrimitiveCount$[ebp]
  002f9	8b 00		 mov	 eax, DWORD PTR [eax]
  002fb	40		 inc	 eax
  002fc	40		 inc	 eax
  002fd	8b 4d 74	 mov	 ecx, DWORD PTR _pdwAffectedPrimitiveCount$[ebp]
  00300	89 01		 mov	 DWORD PTR [ecx], eax

; 165  : 			*pv3AffectedVertex++ = D3DXVECTOR3((float)ix, (float)(-iy), fHeightLT);

  00302	f3 0f 2a 45 c0	 cvtsi2ss xmm0, DWORD PTR _ix$9[ebp]
; File D:\Metin2 Server Files\mainline\SRC_2014\M2Data\include\d3dx8math.inl

; 180  :     x = fx;

  00307	f3 0f 11 45 10	 movss	 DWORD PTR $T17[ebp], xmm0
; File D:\Metin2 Server Files\mainline\SRC_2014\Metin2Client\GameLib\TerrainDecal.cpp

; 165  : 			*pv3AffectedVertex++ = D3DXVECTOR3((float)ix, (float)(-iy), fHeightLT);

  0030c	8b 45 c4	 mov	 eax, DWORD PTR _iy$10[ebp]
  0030f	f7 d8		 neg	 eax
  00311	f3 0f 2a c0	 cvtsi2ss xmm0, eax
; File D:\Metin2 Server Files\mainline\SRC_2014\M2Data\include\d3dx8math.inl

; 181  :     y = fy;

  00315	f3 0f 11 45 14	 movss	 DWORD PTR $T17[ebp+4], xmm0

; 182  :     z = fz;

  0031a	f3 0f 10 45 80	 movss	 xmm0, DWORD PTR _fHeightLT$5[ebp]
  0031f	f3 0f 11 45 18	 movss	 DWORD PTR $T17[ebp+8], xmm0
; File D:\Metin2 Server Files\mainline\SRC_2014\Metin2Client\GameLib\TerrainDecal.cpp

; 165  : 			*pv3AffectedVertex++ = D3DXVECTOR3((float)ix, (float)(-iy), fHeightLT);

  00324	8d 75 10	 lea	 esi, DWORD PTR $T17[ebp]
  00327	8b 7d 78	 mov	 edi, DWORD PTR _pv3AffectedVertex$[ebp]
  0032a	a5		 movsd
  0032b	a5		 movsd
  0032c	a5		 movsd
  0032d	8b 45 78	 mov	 eax, DWORD PTR _pv3AffectedVertex$[ebp]
  00330	83 c0 0c	 add	 eax, 12			; 0000000cH
  00333	89 45 78	 mov	 DWORD PTR _pv3AffectedVertex$[ebp], eax

; 166  : 			*pv3AffectedVertex++ = D3DXVECTOR3((float)ix, (float)(-iy - CTerrainImpl::CELLSCALE), fHeightLB);

  00336	f3 0f 2a 45 c0	 cvtsi2ss xmm0, DWORD PTR _ix$9[ebp]
; File D:\Metin2 Server Files\mainline\SRC_2014\M2Data\include\d3dx8math.inl

; 180  :     x = fx;

  0033b	f3 0f 11 45 1c	 movss	 DWORD PTR $T18[ebp], xmm0
; File D:\Metin2 Server Files\mainline\SRC_2014\Metin2Client\GameLib\TerrainDecal.cpp

; 166  : 			*pv3AffectedVertex++ = D3DXVECTOR3((float)ix, (float)(-iy - CTerrainImpl::CELLSCALE), fHeightLB);

  00340	8b 45 c4	 mov	 eax, DWORD PTR _iy$10[ebp]
  00343	f7 d8		 neg	 eax
  00345	2d c8 00 00 00	 sub	 eax, 200		; 000000c8H
  0034a	f3 0f 2a c0	 cvtsi2ss xmm0, eax
; File D:\Metin2 Server Files\mainline\SRC_2014\M2Data\include\d3dx8math.inl

; 181  :     y = fy;

  0034e	f3 0f 11 45 20	 movss	 DWORD PTR $T18[ebp+4], xmm0

; 182  :     z = fz;

  00353	f3 0f 10 45 a4	 movss	 xmm0, DWORD PTR _fHeightLB$7[ebp]
  00358	f3 0f 11 45 24	 movss	 DWORD PTR $T18[ebp+8], xmm0
; File D:\Metin2 Server Files\mainline\SRC_2014\Metin2Client\GameLib\TerrainDecal.cpp

; 166  : 			*pv3AffectedVertex++ = D3DXVECTOR3((float)ix, (float)(-iy - CTerrainImpl::CELLSCALE), fHeightLB);

  0035d	8d 75 1c	 lea	 esi, DWORD PTR $T18[ebp]
  00360	8b 7d 78	 mov	 edi, DWORD PTR _pv3AffectedVertex$[ebp]
  00363	a5		 movsd
  00364	a5		 movsd
  00365	a5		 movsd
  00366	8b 45 78	 mov	 eax, DWORD PTR _pv3AffectedVertex$[ebp]
  00369	83 c0 0c	 add	 eax, 12			; 0000000cH
  0036c	89 45 78	 mov	 DWORD PTR _pv3AffectedVertex$[ebp], eax

; 167  : 			*pv3AffectedVertex++ = D3DXVECTOR3((float)(ix + CTerrainImpl::CELLSCALE), (float)(-iy), fHeightRT);

  0036f	8b 45 c0	 mov	 eax, DWORD PTR _ix$9[ebp]
  00372	05 c8 00 00 00	 add	 eax, 200		; 000000c8H
  00377	f3 0f 2a c0	 cvtsi2ss xmm0, eax
; File D:\Metin2 Server Files\mainline\SRC_2014\M2Data\include\d3dx8math.inl

; 180  :     x = fx;

  0037b	f3 0f 11 45 28	 movss	 DWORD PTR $T19[ebp], xmm0
; File D:\Metin2 Server Files\mainline\SRC_2014\Metin2Client\GameLib\TerrainDecal.cpp

; 167  : 			*pv3AffectedVertex++ = D3DXVECTOR3((float)(ix + CTerrainImpl::CELLSCALE), (float)(-iy), fHeightRT);

  00380	8b 45 c4	 mov	 eax, DWORD PTR _iy$10[ebp]
  00383	f7 d8		 neg	 eax
  00385	f3 0f 2a c0	 cvtsi2ss xmm0, eax
; File D:\Metin2 Server Files\mainline\SRC_2014\M2Data\include\d3dx8math.inl

; 181  :     y = fy;

  00389	f3 0f 11 45 2c	 movss	 DWORD PTR $T19[ebp+4], xmm0

; 182  :     z = fz;

  0038e	f3 0f 10 45 a0	 movss	 xmm0, DWORD PTR _fHeightRT$6[ebp]
  00393	f3 0f 11 45 30	 movss	 DWORD PTR $T19[ebp+8], xmm0
; File D:\Metin2 Server Files\mainline\SRC_2014\Metin2Client\GameLib\TerrainDecal.cpp

; 167  : 			*pv3AffectedVertex++ = D3DXVECTOR3((float)(ix + CTerrainImpl::CELLSCALE), (float)(-iy), fHeightRT);

  00398	8d 75 28	 lea	 esi, DWORD PTR $T19[ebp]
  0039b	8b 7d 78	 mov	 edi, DWORD PTR _pv3AffectedVertex$[ebp]
  0039e	a5		 movsd
  0039f	a5		 movsd
  003a0	a5		 movsd
  003a1	8b 45 78	 mov	 eax, DWORD PTR _pv3AffectedVertex$[ebp]
  003a4	83 c0 0c	 add	 eax, 12			; 0000000cH
  003a7	89 45 78	 mov	 DWORD PTR _pv3AffectedVertex$[ebp], eax

; 168  : 			*pv3AffectedVertex++ = D3DXVECTOR3((float)(ix + CTerrainImpl::CELLSCALE), (float)(-iy), fHeightRT);

  003aa	8b 45 c0	 mov	 eax, DWORD PTR _ix$9[ebp]
  003ad	05 c8 00 00 00	 add	 eax, 200		; 000000c8H
  003b2	f3 0f 2a c0	 cvtsi2ss xmm0, eax
; File D:\Metin2 Server Files\mainline\SRC_2014\M2Data\include\d3dx8math.inl

; 180  :     x = fx;

  003b6	f3 0f 11 45 34	 movss	 DWORD PTR $T20[ebp], xmm0
; File D:\Metin2 Server Files\mainline\SRC_2014\Metin2Client\GameLib\TerrainDecal.cpp

; 168  : 			*pv3AffectedVertex++ = D3DXVECTOR3((float)(ix + CTerrainImpl::CELLSCALE), (float)(-iy), fHeightRT);

  003bb	8b 45 c4	 mov	 eax, DWORD PTR _iy$10[ebp]
  003be	f7 d8		 neg	 eax
  003c0	f3 0f 2a c0	 cvtsi2ss xmm0, eax
; File D:\Metin2 Server Files\mainline\SRC_2014\M2Data\include\d3dx8math.inl

; 181  :     y = fy;

  003c4	f3 0f 11 45 38	 movss	 DWORD PTR $T20[ebp+4], xmm0

; 182  :     z = fz;

  003c9	f3 0f 10 45 a0	 movss	 xmm0, DWORD PTR _fHeightRT$6[ebp]
  003ce	f3 0f 11 45 3c	 movss	 DWORD PTR $T20[ebp+8], xmm0
; File D:\Metin2 Server Files\mainline\SRC_2014\Metin2Client\GameLib\TerrainDecal.cpp

; 168  : 			*pv3AffectedVertex++ = D3DXVECTOR3((float)(ix + CTerrainImpl::CELLSCALE), (float)(-iy), fHeightRT);

  003d3	8d 75 34	 lea	 esi, DWORD PTR $T20[ebp]
  003d6	8b 7d 78	 mov	 edi, DWORD PTR _pv3AffectedVertex$[ebp]
  003d9	a5		 movsd
  003da	a5		 movsd
  003db	a5		 movsd
  003dc	8b 45 78	 mov	 eax, DWORD PTR _pv3AffectedVertex$[ebp]
  003df	83 c0 0c	 add	 eax, 12			; 0000000cH
  003e2	89 45 78	 mov	 DWORD PTR _pv3AffectedVertex$[ebp], eax

; 169  : 			*pv3AffectedVertex++ = D3DXVECTOR3((float)ix, (float)(-iy - CTerrainImpl::CELLSCALE), fHeightLB);

  003e5	f3 0f 2a 45 c0	 cvtsi2ss xmm0, DWORD PTR _ix$9[ebp]
; File D:\Metin2 Server Files\mainline\SRC_2014\M2Data\include\d3dx8math.inl

; 180  :     x = fx;

  003ea	f3 0f 11 45 40	 movss	 DWORD PTR $T21[ebp], xmm0
; File D:\Metin2 Server Files\mainline\SRC_2014\Metin2Client\GameLib\TerrainDecal.cpp

; 169  : 			*pv3AffectedVertex++ = D3DXVECTOR3((float)ix, (float)(-iy - CTerrainImpl::CELLSCALE), fHeightLB);

  003ef	8b 45 c4	 mov	 eax, DWORD PTR _iy$10[ebp]
  003f2	f7 d8		 neg	 eax
  003f4	2d c8 00 00 00	 sub	 eax, 200		; 000000c8H
  003f9	f3 0f 2a c0	 cvtsi2ss xmm0, eax
; File D:\Metin2 Server Files\mainline\SRC_2014\M2Data\include\d3dx8math.inl

; 181  :     y = fy;

  003fd	f3 0f 11 45 44	 movss	 DWORD PTR $T21[ebp+4], xmm0

; 182  :     z = fz;

  00402	f3 0f 10 45 a4	 movss	 xmm0, DWORD PTR _fHeightLB$7[ebp]
  00407	f3 0f 11 45 48	 movss	 DWORD PTR $T21[ebp+8], xmm0
; File D:\Metin2 Server Files\mainline\SRC_2014\Metin2Client\GameLib\TerrainDecal.cpp

; 169  : 			*pv3AffectedVertex++ = D3DXVECTOR3((float)ix, (float)(-iy - CTerrainImpl::CELLSCALE), fHeightLB);

  0040c	8d 75 40	 lea	 esi, DWORD PTR $T21[ebp]
  0040f	8b 7d 78	 mov	 edi, DWORD PTR _pv3AffectedVertex$[ebp]
  00412	a5		 movsd
  00413	a5		 movsd
  00414	a5		 movsd
  00415	8b 45 78	 mov	 eax, DWORD PTR _pv3AffectedVertex$[ebp]
  00418	83 c0 0c	 add	 eax, 12			; 0000000cH
  0041b	89 45 78	 mov	 DWORD PTR _pv3AffectedVertex$[ebp], eax

; 170  : 			*pv3AffectedVertex++ = D3DXVECTOR3((float)(ix + CTerrainImpl::CELLSCALE), (float)(-iy - CTerrainImpl::CELLSCALE), fHeightRB);

  0041e	8b 45 c0	 mov	 eax, DWORD PTR _ix$9[ebp]
  00421	05 c8 00 00 00	 add	 eax, 200		; 000000c8H
  00426	f3 0f 2a c0	 cvtsi2ss xmm0, eax
; File D:\Metin2 Server Files\mainline\SRC_2014\M2Data\include\d3dx8math.inl

; 180  :     x = fx;

  0042a	f3 0f 11 45 c8	 movss	 DWORD PTR $T11[ebp], xmm0
; File D:\Metin2 Server Files\mainline\SRC_2014\Metin2Client\GameLib\TerrainDecal.cpp

; 170  : 			*pv3AffectedVertex++ = D3DXVECTOR3((float)(ix + CTerrainImpl::CELLSCALE), (float)(-iy - CTerrainImpl::CELLSCALE), fHeightRB);

  0042f	8b 45 c4	 mov	 eax, DWORD PTR _iy$10[ebp]
  00432	f7 d8		 neg	 eax
  00434	2d c8 00 00 00	 sub	 eax, 200		; 000000c8H
  00439	f3 0f 2a c0	 cvtsi2ss xmm0, eax
; File D:\Metin2 Server Files\mainline\SRC_2014\M2Data\include\d3dx8math.inl

; 181  :     y = fy;

  0043d	f3 0f 11 45 cc	 movss	 DWORD PTR $T11[ebp+4], xmm0

; 182  :     z = fz;

  00442	f3 0f 10 85 7c
	ff ff ff	 movss	 xmm0, DWORD PTR _fHeightRB$4[ebp]
  0044a	f3 0f 11 45 d0	 movss	 DWORD PTR $T11[ebp+8], xmm0
; File D:\Metin2 Server Files\mainline\SRC_2014\Metin2Client\GameLib\TerrainDecal.cpp

; 170  : 			*pv3AffectedVertex++ = D3DXVECTOR3((float)(ix + CTerrainImpl::CELLSCALE), (float)(-iy - CTerrainImpl::CELLSCALE), fHeightRB);

  0044f	8d 75 c8	 lea	 esi, DWORD PTR $T11[ebp]
  00452	8b 7d 78	 mov	 edi, DWORD PTR _pv3AffectedVertex$[ebp]
  00455	a5		 movsd
  00456	a5		 movsd
  00457	a5		 movsd
  00458	8b 45 78	 mov	 eax, DWORD PTR _pv3AffectedVertex$[ebp]
  0045b	83 c0 0c	 add	 eax, 12			; 0000000cH
  0045e	89 45 78	 mov	 DWORD PTR _pv3AffectedVertex$[ebp], eax
; File D:\Metin2 Server Files\mainline\SRC_2014\M2Data\include\d3dx8math.inl

; 180  :     x = fx;

  00461	0f 57 c0	 xorps	 xmm0, xmm0
  00464	f3 0f 11 45 d4	 movss	 DWORD PTR $T12[ebp], xmm0

; 181  :     y = fy;

  00469	0f 57 c0	 xorps	 xmm0, xmm0
  0046c	f3 0f 11 45 d8	 movss	 DWORD PTR $T12[ebp+4], xmm0

; 182  :     z = fz;

  00471	f3 0f 10 05 00
	00 00 00	 movss	 xmm0, DWORD PTR __real@3f800000
  00479	f3 0f 11 45 dc	 movss	 DWORD PTR $T12[ebp+8], xmm0
; File D:\Metin2 Server Files\mainline\SRC_2014\Metin2Client\GameLib\TerrainDecal.cpp

; 172  : 			*pv3AffectedNormal++ = D3DXVECTOR3(0.0f, 0.0f, 1.0f);

  0047e	8d 75 d4	 lea	 esi, DWORD PTR $T12[ebp]
  00481	8b 7d 7c	 mov	 edi, DWORD PTR _pv3AffectedNormal$[ebp]
  00484	a5		 movsd
  00485	a5		 movsd
  00486	a5		 movsd
  00487	8b 45 7c	 mov	 eax, DWORD PTR _pv3AffectedNormal$[ebp]
  0048a	83 c0 0c	 add	 eax, 12			; 0000000cH
  0048d	89 45 7c	 mov	 DWORD PTR _pv3AffectedNormal$[ebp], eax
; File D:\Metin2 Server Files\mainline\SRC_2014\M2Data\include\d3dx8math.inl

; 180  :     x = fx;

  00490	0f 57 c0	 xorps	 xmm0, xmm0
  00493	f3 0f 11 45 e0	 movss	 DWORD PTR $T13[ebp], xmm0

; 181  :     y = fy;

  00498	0f 57 c0	 xorps	 xmm0, xmm0
  0049b	f3 0f 11 45 e4	 movss	 DWORD PTR $T13[ebp+4], xmm0

; 182  :     z = fz;

  004a0	f3 0f 10 05 00
	00 00 00	 movss	 xmm0, DWORD PTR __real@3f800000
  004a8	f3 0f 11 45 e8	 movss	 DWORD PTR $T13[ebp+8], xmm0
; File D:\Metin2 Server Files\mainline\SRC_2014\Metin2Client\GameLib\TerrainDecal.cpp

; 173  : 			*pv3AffectedNormal++ = D3DXVECTOR3(0.0f, 0.0f, 1.0f);

  004ad	8d 75 e0	 lea	 esi, DWORD PTR $T13[ebp]
  004b0	8b 7d 7c	 mov	 edi, DWORD PTR _pv3AffectedNormal$[ebp]
  004b3	a5		 movsd
  004b4	a5		 movsd
  004b5	a5		 movsd
  004b6	8b 45 7c	 mov	 eax, DWORD PTR _pv3AffectedNormal$[ebp]
  004b9	83 c0 0c	 add	 eax, 12			; 0000000cH
  004bc	89 45 7c	 mov	 DWORD PTR _pv3AffectedNormal$[ebp], eax
; File D:\Metin2 Server Files\mainline\SRC_2014\M2Data\include\d3dx8math.inl

; 180  :     x = fx;

  004bf	0f 57 c0	 xorps	 xmm0, xmm0
  004c2	f3 0f 11 45 ec	 movss	 DWORD PTR $T14[ebp], xmm0

; 181  :     y = fy;

  004c7	0f 57 c0	 xorps	 xmm0, xmm0
  004ca	f3 0f 11 45 f0	 movss	 DWORD PTR $T14[ebp+4], xmm0

; 182  :     z = fz;

  004cf	f3 0f 10 05 00
	00 00 00	 movss	 xmm0, DWORD PTR __real@3f800000
  004d7	f3 0f 11 45 f4	 movss	 DWORD PTR $T14[ebp+8], xmm0
; File D:\Metin2 Server Files\mainline\SRC_2014\Metin2Client\GameLib\TerrainDecal.cpp

; 174  : 			*pv3AffectedNormal++ = D3DXVECTOR3(0.0f, 0.0f, 1.0f);

  004dc	8d 75 ec	 lea	 esi, DWORD PTR $T14[ebp]
  004df	8b 7d 7c	 mov	 edi, DWORD PTR _pv3AffectedNormal$[ebp]
  004e2	a5		 movsd
  004e3	a5		 movsd
  004e4	a5		 movsd
  004e5	8b 45 7c	 mov	 eax, DWORD PTR _pv3AffectedNormal$[ebp]
  004e8	83 c0 0c	 add	 eax, 12			; 0000000cH
  004eb	89 45 7c	 mov	 DWORD PTR _pv3AffectedNormal$[ebp], eax
; File D:\Metin2 Server Files\mainline\SRC_2014\M2Data\include\d3dx8math.inl

; 180  :     x = fx;

  004ee	0f 57 c0	 xorps	 xmm0, xmm0
  004f1	f3 0f 11 45 f8	 movss	 DWORD PTR $T15[ebp], xmm0

; 181  :     y = fy;

  004f6	0f 57 c0	 xorps	 xmm0, xmm0
  004f9	f3 0f 11 45 fc	 movss	 DWORD PTR $T15[ebp+4], xmm0

; 182  :     z = fz;

  004fe	f3 0f 10 05 00
	00 00 00	 movss	 xmm0, DWORD PTR __real@3f800000
  00506	f3 0f 11 45 00	 movss	 DWORD PTR $T15[ebp+8], xmm0
; File D:\Metin2 Server Files\mainline\SRC_2014\Metin2Client\GameLib\TerrainDecal.cpp

; 175  : 			*pv3AffectedNormal++ = D3DXVECTOR3(0.0f, 0.0f, 1.0f);

  0050b	8d 75 f8	 lea	 esi, DWORD PTR $T15[ebp]
  0050e	8b 7d 7c	 mov	 edi, DWORD PTR _pv3AffectedNormal$[ebp]
  00511	a5		 movsd
  00512	a5		 movsd
  00513	a5		 movsd
  00514	8b 45 7c	 mov	 eax, DWORD PTR _pv3AffectedNormal$[ebp]
  00517	83 c0 0c	 add	 eax, 12			; 0000000cH
  0051a	89 45 7c	 mov	 DWORD PTR _pv3AffectedNormal$[ebp], eax
; File D:\Metin2 Server Files\mainline\SRC_2014\M2Data\include\d3dx8math.inl

; 180  :     x = fx;

  0051d	0f 57 c0	 xorps	 xmm0, xmm0
  00520	f3 0f 11 45 04	 movss	 DWORD PTR $T16[ebp], xmm0

; 181  :     y = fy;

  00525	0f 57 c0	 xorps	 xmm0, xmm0
  00528	f3 0f 11 45 08	 movss	 DWORD PTR $T16[ebp+4], xmm0

; 182  :     z = fz;

  0052d	f3 0f 10 05 00
	00 00 00	 movss	 xmm0, DWORD PTR __real@3f800000
  00535	f3 0f 11 45 0c	 movss	 DWORD PTR $T16[ebp+8], xmm0
; File D:\Metin2 Server Files\mainline\SRC_2014\Metin2Client\GameLib\TerrainDecal.cpp

; 176  : 			*pv3AffectedNormal++ = D3DXVECTOR3(0.0f, 0.0f, 1.0f);

  0053a	8d 75 04	 lea	 esi, DWORD PTR $T16[ebp]
  0053d	8b 7d 7c	 mov	 edi, DWORD PTR _pv3AffectedNormal$[ebp]
  00540	a5		 movsd
  00541	a5		 movsd
  00542	a5		 movsd
  00543	8b 45 7c	 mov	 eax, DWORD PTR _pv3AffectedNormal$[ebp]
  00546	83 c0 0c	 add	 eax, 12			; 0000000cH
  00549	89 45 7c	 mov	 DWORD PTR _pv3AffectedNormal$[ebp], eax
; File D:\Metin2 Server Files\mainline\SRC_2014\M2Data\include\d3dx8math.inl

; 180  :     x = fx;

  0054c	0f 57 c0	 xorps	 xmm0, xmm0
  0054f	f3 0f 11 45 4c	 movss	 DWORD PTR $T22[ebp], xmm0

; 181  :     y = fy;

  00554	0f 57 c0	 xorps	 xmm0, xmm0
  00557	f3 0f 11 45 50	 movss	 DWORD PTR $T22[ebp+4], xmm0

; 182  :     z = fz;

  0055c	f3 0f 10 05 00
	00 00 00	 movss	 xmm0, DWORD PTR __real@3f800000
  00564	f3 0f 11 45 54	 movss	 DWORD PTR $T22[ebp+8], xmm0
; File D:\Metin2 Server Files\mainline\SRC_2014\Metin2Client\GameLib\TerrainDecal.cpp

; 177  : 			*pv3AffectedNormal++ = D3DXVECTOR3(0.0f, 0.0f, 1.0f);

  00569	8d 75 4c	 lea	 esi, DWORD PTR $T22[ebp]
  0056c	8b 7d 7c	 mov	 edi, DWORD PTR _pv3AffectedNormal$[ebp]
  0056f	a5		 movsd
  00570	a5		 movsd
  00571	a5		 movsd
  00572	8b 45 7c	 mov	 eax, DWORD PTR _pv3AffectedNormal$[ebp]
  00575	83 c0 0c	 add	 eax, 12			; 0000000cH
  00578	89 45 7c	 mov	 DWORD PTR _pv3AffectedNormal$[ebp], eax

; 178  : 		}

  0057b	e9 44 fc ff ff	 jmp	 $LN5@SearchAffe
$LN6@SearchAffe:

; 179  : 	}

  00580	e9 06 fc ff ff	 jmp	 $LN2@SearchAffe
$LN3@SearchAffe:
$LN1@SearchAffe:

; 180  : }

  00585	5f		 pop	 edi
  00586	5e		 pop	 esi
  00587	8b 4d 58	 mov	 ecx, DWORD PTR __$ArrayPad$[ebp]
  0058a	33 cd		 xor	 ecx, ebp
  0058c	e8 00 00 00 00	 call	 @__security_check_cookie@4
  00591	83 c5 5c	 add	 ebp, 92			; 0000005cH
  00594	c9		 leave
  00595	c2 1c 00	 ret	 28			; 0000001cH
?SearchAffectedTerrainMesh@CTerrainDecal@@IAEXMMMMPAKPAUD3DXVECTOR3@@1@Z ENDP ; CTerrainDecal::SearchAffectedTerrainMesh
_TEXT	ENDS
; Function compile flags: /Odspy
; File D:\Metin2 Server Files\mainline\SRC_2014\Metin2Client\GameLib\TerrainDecal.cpp
;	COMDAT ?Render@CTerrainDecal@@UAEXXZ
_TEXT	SEGMENT
_this$ = -4						; size = 4
?Render@CTerrainDecal@@UAEXXZ PROC			; CTerrainDecal::Render, COMDAT
; _this$ = ecx

; 93   : {

  00000	55		 push	 ebp
  00001	8b ec		 mov	 ebp, esp
  00003	51		 push	 ecx
  00004	89 4d fc	 mov	 DWORD PTR _this$[ebp], ecx

; 94   : 	STATEMANAGER.SaveRenderState(D3DRS_ALPHABLENDENABLE, TRUE);

  00007	6a 01		 push	 1
  00009	6a 1b		 push	 27			; 0000001bH
  0000b	8b 0d 00 00 00
	00		 mov	 ecx, DWORD PTR ?ms_singleton@?$CSingleton@VCStateManager@@@@0PAVCStateManager@@A ; CSingleton<CStateManager>::ms_singleton
  00011	e8 00 00 00 00	 call	 ?SaveRenderState@CStateManager@@QAEXW4_D3DRENDERSTATETYPE@@K@Z ; CStateManager::SaveRenderState

; 95   : 	
; 96   : 	STATEMANAGER.SaveTextureStageState(0, D3DTSS_TEXCOORDINDEX, 0);

  00016	6a 00		 push	 0
  00018	6a 0b		 push	 11			; 0000000bH
  0001a	6a 00		 push	 0
  0001c	8b 0d 00 00 00
	00		 mov	 ecx, DWORD PTR ?ms_singleton@?$CSingleton@VCStateManager@@@@0PAVCStateManager@@A ; CSingleton<CStateManager>::ms_singleton
  00022	e8 00 00 00 00	 call	 ?SaveTextureStageState@CStateManager@@QAEXKW4_D3DTEXTURESTAGESTATETYPE@@K@Z ; CStateManager::SaveTextureStageState

; 97   : 	STATEMANAGER.SaveTextureStageState(0, D3DTSS_TEXTURETRANSFORMFLAGS, D3DTTFF_DISABLE);

  00027	6a 00		 push	 0
  00029	6a 18		 push	 24			; 00000018H
  0002b	6a 00		 push	 0
  0002d	8b 0d 00 00 00
	00		 mov	 ecx, DWORD PTR ?ms_singleton@?$CSingleton@VCStateManager@@@@0PAVCStateManager@@A ; CSingleton<CStateManager>::ms_singleton
  00033	e8 00 00 00 00	 call	 ?SaveTextureStageState@CStateManager@@QAEXKW4_D3DTEXTURESTAGESTATETYPE@@K@Z ; CStateManager::SaveTextureStageState

; 98   : 	STATEMANAGER.SaveTextureStageState(0, D3DTSS_ADDRESSU, D3DTADDRESS_CLAMP);

  00038	6a 03		 push	 3
  0003a	6a 0d		 push	 13			; 0000000dH
  0003c	6a 00		 push	 0
  0003e	8b 0d 00 00 00
	00		 mov	 ecx, DWORD PTR ?ms_singleton@?$CSingleton@VCStateManager@@@@0PAVCStateManager@@A ; CSingleton<CStateManager>::ms_singleton
  00044	e8 00 00 00 00	 call	 ?SaveTextureStageState@CStateManager@@QAEXKW4_D3DTEXTURESTAGESTATETYPE@@K@Z ; CStateManager::SaveTextureStageState

; 99   : 	STATEMANAGER.SaveTextureStageState(0, D3DTSS_ADDRESSV, D3DTADDRESS_CLAMP);

  00049	6a 03		 push	 3
  0004b	6a 0e		 push	 14			; 0000000eH
  0004d	6a 00		 push	 0
  0004f	8b 0d 00 00 00
	00		 mov	 ecx, DWORD PTR ?ms_singleton@?$CSingleton@VCStateManager@@@@0PAVCStateManager@@A ; CSingleton<CStateManager>::ms_singleton
  00055	e8 00 00 00 00	 call	 ?SaveTextureStageState@CStateManager@@QAEXKW4_D3DTEXTURESTAGESTATETYPE@@K@Z ; CStateManager::SaveTextureStageState

; 100  : 	
; 101  : 	STATEMANAGER.SetTextureStageState(0, D3DTSS_COLORARG1,	D3DTA_TEXTURE);

  0005a	6a 02		 push	 2
  0005c	6a 02		 push	 2
  0005e	6a 00		 push	 0
  00060	8b 0d 00 00 00
	00		 mov	 ecx, DWORD PTR ?ms_singleton@?$CSingleton@VCStateManager@@@@0PAVCStateManager@@A ; CSingleton<CStateManager>::ms_singleton
  00066	e8 00 00 00 00	 call	 ?SetTextureStageState@CStateManager@@QAEXKW4_D3DTEXTURESTAGESTATETYPE@@K@Z ; CStateManager::SetTextureStageState

; 102  : 	STATEMANAGER.SetTextureStageState(0, D3DTSS_COLOROP,	D3DTOP_SELECTARG1);

  0006b	6a 02		 push	 2
  0006d	6a 01		 push	 1
  0006f	6a 00		 push	 0
  00071	8b 0d 00 00 00
	00		 mov	 ecx, DWORD PTR ?ms_singleton@?$CSingleton@VCStateManager@@@@0PAVCStateManager@@A ; CSingleton<CStateManager>::ms_singleton
  00077	e8 00 00 00 00	 call	 ?SetTextureStageState@CStateManager@@QAEXKW4_D3DTEXTURESTAGESTATETYPE@@K@Z ; CStateManager::SetTextureStageState

; 103  : 	STATEMANAGER.SetTextureStageState(0, D3DTSS_ALPHAARG1,	D3DTA_TEXTURE);

  0007c	6a 02		 push	 2
  0007e	6a 05		 push	 5
  00080	6a 00		 push	 0
  00082	8b 0d 00 00 00
	00		 mov	 ecx, DWORD PTR ?ms_singleton@?$CSingleton@VCStateManager@@@@0PAVCStateManager@@A ; CSingleton<CStateManager>::ms_singleton
  00088	e8 00 00 00 00	 call	 ?SetTextureStageState@CStateManager@@QAEXKW4_D3DTEXTURESTAGESTATETYPE@@K@Z ; CStateManager::SetTextureStageState

; 104  :  	STATEMANAGER.SetTextureStageState(0, D3DTSS_ALPHAOP,	D3DTOP_SELECTARG1);

  0008d	6a 02		 push	 2
  0008f	6a 04		 push	 4
  00091	6a 00		 push	 0
  00093	8b 0d 00 00 00
	00		 mov	 ecx, DWORD PTR ?ms_singleton@?$CSingleton@VCStateManager@@@@0PAVCStateManager@@A ; CSingleton<CStateManager>::ms_singleton
  00099	e8 00 00 00 00	 call	 ?SetTextureStageState@CStateManager@@QAEXKW4_D3DTEXTURESTAGESTATETYPE@@K@Z ; CStateManager::SetTextureStageState

; 105  : 
; 106  : 	STATEMANAGER.SetTextureStageState(1, D3DTSS_COLOROP, D3DTOP_DISABLE);

  0009e	6a 01		 push	 1
  000a0	6a 01		 push	 1
  000a2	6a 01		 push	 1
  000a4	8b 0d 00 00 00
	00		 mov	 ecx, DWORD PTR ?ms_singleton@?$CSingleton@VCStateManager@@@@0PAVCStateManager@@A ; CSingleton<CStateManager>::ms_singleton
  000aa	e8 00 00 00 00	 call	 ?SetTextureStageState@CStateManager@@QAEXKW4_D3DTEXTURESTAGESTATETYPE@@K@Z ; CStateManager::SetTextureStageState

; 107  : 	STATEMANAGER.SetTextureStageState(1, D3DTSS_ALPHAOP, D3DTOP_DISABLE);

  000af	6a 01		 push	 1
  000b1	6a 04		 push	 4
  000b3	6a 01		 push	 1
  000b5	8b 0d 00 00 00
	00		 mov	 ecx, DWORD PTR ?ms_singleton@?$CSingleton@VCStateManager@@@@0PAVCStateManager@@A ; CSingleton<CStateManager>::ms_singleton
  000bb	e8 00 00 00 00	 call	 ?SetTextureStageState@CStateManager@@QAEXKW4_D3DTEXTURESTAGESTATETYPE@@K@Z ; CStateManager::SetTextureStageState

; 108  : 
; 109  : 	CDecal::Render();

  000c0	8b 4d fc	 mov	 ecx, DWORD PTR _this$[ebp]
  000c3	e8 00 00 00 00	 call	 ?Render@CDecal@@UAEXXZ	; CDecal::Render

; 110  : 	
; 111  : 	STATEMANAGER.RestoreTextureStageState(0, D3DTSS_TEXCOORDINDEX);

  000c8	6a 0b		 push	 11			; 0000000bH
  000ca	6a 00		 push	 0
  000cc	8b 0d 00 00 00
	00		 mov	 ecx, DWORD PTR ?ms_singleton@?$CSingleton@VCStateManager@@@@0PAVCStateManager@@A ; CSingleton<CStateManager>::ms_singleton
  000d2	e8 00 00 00 00	 call	 ?RestoreTextureStageState@CStateManager@@QAEXKW4_D3DTEXTURESTAGESTATETYPE@@@Z ; CStateManager::RestoreTextureStageState

; 112  : 	STATEMANAGER.RestoreTextureStageState(0, D3DTSS_TEXTURETRANSFORMFLAGS);

  000d7	6a 18		 push	 24			; 00000018H
  000d9	6a 00		 push	 0
  000db	8b 0d 00 00 00
	00		 mov	 ecx, DWORD PTR ?ms_singleton@?$CSingleton@VCStateManager@@@@0PAVCStateManager@@A ; CSingleton<CStateManager>::ms_singleton
  000e1	e8 00 00 00 00	 call	 ?RestoreTextureStageState@CStateManager@@QAEXKW4_D3DTEXTURESTAGESTATETYPE@@@Z ; CStateManager::RestoreTextureStageState

; 113  : 	STATEMANAGER.RestoreTextureStageState(0, D3DTSS_ADDRESSU);

  000e6	6a 0d		 push	 13			; 0000000dH
  000e8	6a 00		 push	 0
  000ea	8b 0d 00 00 00
	00		 mov	 ecx, DWORD PTR ?ms_singleton@?$CSingleton@VCStateManager@@@@0PAVCStateManager@@A ; CSingleton<CStateManager>::ms_singleton
  000f0	e8 00 00 00 00	 call	 ?RestoreTextureStageState@CStateManager@@QAEXKW4_D3DTEXTURESTAGESTATETYPE@@@Z ; CStateManager::RestoreTextureStageState

; 114  : 	STATEMANAGER.RestoreTextureStageState(0, D3DTSS_ADDRESSV);

  000f5	6a 0e		 push	 14			; 0000000eH
  000f7	6a 00		 push	 0
  000f9	8b 0d 00 00 00
	00		 mov	 ecx, DWORD PTR ?ms_singleton@?$CSingleton@VCStateManager@@@@0PAVCStateManager@@A ; CSingleton<CStateManager>::ms_singleton
  000ff	e8 00 00 00 00	 call	 ?RestoreTextureStageState@CStateManager@@QAEXKW4_D3DTEXTURESTAGESTATETYPE@@@Z ; CStateManager::RestoreTextureStageState

; 115  : 
; 116  : 	STATEMANAGER.RestoreRenderState(D3DRS_ALPHABLENDENABLE);

  00104	6a 1b		 push	 27			; 0000001bH
  00106	8b 0d 00 00 00
	00		 mov	 ecx, DWORD PTR ?ms_singleton@?$CSingleton@VCStateManager@@@@0PAVCStateManager@@A ; CSingleton<CStateManager>::ms_singleton
  0010c	e8 00 00 00 00	 call	 ?RestoreRenderState@CStateManager@@QAEXW4_D3DRENDERSTATETYPE@@@Z ; CStateManager::RestoreRenderState

; 117  : }

  00111	c9		 leave
  00112	c3		 ret	 0
?Render@CTerrainDecal@@UAEXXZ ENDP			; CTerrainDecal::Render
_TEXT	ENDS
; Function compile flags: /Odspy
; File D:\Metin2 Server Files\mainline\SRC_2014\Metin2Client\GameLib\TerrainDecal.cpp
; File D:\Metin2 Server Files\mainline\SRC_2014\M2Data\include\d3dx8math.inl
; File D:\Metin2 Server Files\mainline\SRC_2014\Metin2Client\GameLib\TerrainDecal.cpp
; File D:\Metin2 Server Files\mainline\SRC_2014\M2Data\include\d3dx8math.inl
; File D:\Metin2 Server Files\mainline\SRC_2014\Metin2Client\GameLib\TerrainDecal.cpp
; File D:\Metin2 Server Files\mainline\SRC_2014\M2Data\include\d3dx8math.inl
; File D:\Metin2 Server Files\mainline\SRC_2014\Metin2Client\GameLib\TerrainDecal.cpp
; File D:\Metin2 Server Files\mainline\SRC_2014\M2Data\include\d3dx8math.inl
; File D:\Metin2 Server Files\mainline\SRC_2014\Metin2Client\GameLib\TerrainDecal.cpp
; File D:\Metin2 Server Files\mainline\SRC_2014\M2Data\include\d3dx8math.inl
; File D:\Metin2 Server Files\mainline\SRC_2014\Metin2Client\GameLib\TerrainDecal.cpp
; File D:\Metin2 Server Files\mainline\SRC_2014\M2Data\include\d3dx8math.inl
; File D:\Metin2 Server Files\mainline\SRC_2014\Metin2Client\GameLib\TerrainDecal.cpp
; File D:\Metin2 Server Files\mainline\SRC_2014\M2Data\include\d3dx8math.inl
; File D:\Metin2 Server Files\mainline\SRC_2014\Metin2Client\GameLib\TerrainDecal.cpp
; File D:\Metin2 Server Files\mainline\SRC_2014\M2Data\include\d3dx8math.inl
; File D:\Metin2 Server Files\mainline\SRC_2014\Metin2Client\GameLib\TerrainDecal.cpp
; File D:\Metin2 Server Files\mainline\SRC_2014\M2Data\include\d3dx8math.inl
; File D:\Metin2 Server Files\mainline\SRC_2014\Metin2Client\GameLib\TerrainDecal.cpp
; File D:\Metin2 Server Files\mainline\SRC_2014\M2Data\include\d3dx8math.inl
; File D:\Metin2 Server Files\mainline\SRC_2014\Metin2Client\GameLib\TerrainDecal.cpp
; File D:\Metin2 Server Files\mainline\SRC_2014\M2Data\include\d3dx8math.inl
; File D:\Metin2 Server Files\mainline\SRC_2014\Metin2Client\GameLib\TerrainDecal.cpp
; File D:\Metin2 Server Files\mainline\SRC_2014\M2Data\include\d3dx8math.inl
; File D:\Metin2 Server Files\mainline\SRC_2014\Metin2Client\GameLib\TerrainDecal.cpp
; File D:\Metin2 Server Files\mainline\SRC_2014\M2Data\include\d3dx8math.inl
; File D:\Metin2 Server Files\mainline\SRC_2014\Metin2Client\GameLib\TerrainDecal.cpp
; File D:\Metin2 Server Files\mainline\SRC_2014\M2Data\include\d3dx8math.inl
; File D:\Metin2 Server Files\mainline\SRC_2014\Metin2Client\GameLib\TerrainDecal.cpp
; File D:\Metin2 Server Files\mainline\SRC_2014\M2Data\include\d3dx8math.inl
; File D:\Metin2 Server Files\mainline\SRC_2014\Metin2Client\GameLib\TerrainDecal.cpp
; File D:\Metin2 Server Files\mainline\SRC_2014\M2Data\include\d3dx8math.inl
; File D:\Metin2 Server Files\mainline\SRC_2014\Metin2Client\GameLib\TerrainDecal.cpp
; File C:\Program Files (x86)\Windows Kits\10\Include\10.0.18362.0\ucrt\corecrt_math.h
; File C:\Program Files (x86)\Microsoft Visual Studio\2019\Community\VC\Tools\MSVC\14.28.29333\include\cmath
; File D:\Metin2 Server Files\mainline\SRC_2014\Metin2Client\GameLib\TerrainDecal.cpp
; File C:\Program Files (x86)\Windows Kits\10\Include\10.0.18362.0\ucrt\corecrt_math.h
; File C:\Program Files (x86)\Microsoft Visual Studio\2019\Community\VC\Tools\MSVC\14.28.29333\include\cmath
; File D:\Metin2 Server Files\mainline\SRC_2014\Metin2Client\GameLib\TerrainDecal.cpp
; File D:\Metin2 Server Files\mainline\SRC_2014\M2Data\include\d3dx8math.inl
; File D:\Metin2 Server Files\mainline\SRC_2014\Metin2Client\GameLib\TerrainDecal.cpp
; File D:\Metin2 Server Files\mainline\SRC_2014\M2Data\include\d3dx8math.inl
; File D:\Metin2 Server Files\mainline\SRC_2014\Metin2Client\GameLib\TerrainDecal.cpp
; File D:\Metin2 Server Files\mainline\SRC_2014\M2Data\include\d3dx8math.inl
; File D:\Metin2 Server Files\mainline\SRC_2014\Metin2Client\GameLib\TerrainDecal.cpp
;	COMDAT ?Make@CTerrainDecal@@UAEXUD3DXVECTOR3@@00MMM@Z
_TEXT	SEGMENT
$T1 = -24916						; size = 16
$T2 = -24900						; size = 16
$T3 = -24884						; size = 16
$T4 = -24868						; size = 16
$T5 = -24852						; size = 16
$T6 = -24836						; size = 16
_fb$ = -24820						; size = 4
_fOne_over_h$ = -24816					; size = 4
_fa$ = -24812						; size = 4
_fc$ = -24808						; size = 4
_fb$ = -24804						; size = 4
$T7 = -24800						; size = 8
_fv$8 = -24792						; size = 4
_fu$9 = -24788						; size = 4
_fa$ = -24784						; size = 4
_fOne_over_w$ = -24780					; size = 4
_fz$ = -24776						; size = 4
_fy$ = -24772						; size = 4
_fx$ = -24768						; size = 4
_fMinX$ = -24764					; size = 4
_fMaxX$ = -24760					; size = 4
_fMinY$ = -24756					; size = 4
_fMaxY$ = -24752					; size = 4
tv409 = -24748						; size = 4
tv742 = -24744						; size = 4
$T10 = -24740						; size = 4
$T11 = -24736						; size = 4
_fc$ = -24732						; size = 4
_fb$ = -24728						; size = 4
_fa$ = -24724						; size = 4
_fc$ = -24720						; size = 4
_fb$ = -24716						; size = 4
_fa$ = -24712						; size = 4
_fc$ = -24708						; size = 4
_fb$ = -24704						; size = 4
_fa$ = -24700						; size = 4
_fc$ = -24696						; size = 4
_fb$ = -24692						; size = 4
_fa$ = -24688						; size = 4
_fc$ = -24684						; size = 4
_dwAffectedPrimitiveCount$ = -24680			; size = 4
___t$ = -24676						; size = 4
___t$ = -24672						; size = 4
_v$ = -24668						; size = 4
_this$ = -24664						; size = 4
___n$ = -24660						; size = 4
___n$ = -24656						; size = 4
_pV2$ = -24652						; size = 4
_pV1$ = -24648						; size = 4
_pV1$ = -24644						; size = 4
_pV1$ = -24640						; size = 4
_fSearchRadius$ = -24636				; size = 4
_dwi$12 = -24632					; size = 4
_pV1$ = -24628						; size = 4
_fd$ = -24624						; size = 4
_this$ = -24620						; size = 4
_v3Binormal$ = -24616					; size = 12
_v$13 = -24604						; size = 12
_v3$14 = -24592						; size = 12
_v3AffectedNormal$ = -24580				; size = 12288
_v3AffectedVertex$ = -12292				; size = 12288
__$ArrayPad$ = -4					; size = 4
_v3Center$ = 8						; size = 12
_v3Normal$ = 20						; size = 12
_v3Tangent$ = 32					; size = 12
_fWidth$ = 44						; size = 4
_fHeight$ = 48						; size = 4
_fDepth$ = 52						; size = 4
?Make@CTerrainDecal@@UAEXUD3DXVECTOR3@@00MMM@Z PROC	; CTerrainDecal::Make, COMDAT
; _this$ = ecx

; 28   : {

  00000	55		 push	 ebp
  00001	8b ec		 mov	 ebp, esp
  00003	b8 54 61 00 00	 mov	 eax, 24916		; 00006154H
  00008	e8 00 00 00 00	 call	 __chkstk
  0000d	a1 00 00 00 00	 mov	 eax, DWORD PTR ___security_cookie
  00012	33 c5		 xor	 eax, ebp
  00014	89 45 fc	 mov	 DWORD PTR __$ArrayPad$[ebp], eax
  00017	56		 push	 esi
  00018	57		 push	 edi
  00019	89 8d d4 9f ff
	ff		 mov	 DWORD PTR _this$[ebp], ecx

; 29   : 	Clear();

  0001f	8b 8d d4 9f ff
	ff		 mov	 ecx, DWORD PTR _this$[ebp]
  00025	e8 00 00 00 00	 call	 ?Clear@CDecal@@QAEXXZ	; CDecal::Clear

; 30   : 	m_v3Center = v3Center;

  0002a	8b bd d4 9f ff
	ff		 mov	 edi, DWORD PTR _this$[ebp]
  00030	83 c7 04	 add	 edi, 4
  00033	8d 75 08	 lea	 esi, DWORD PTR _v3Center$[ebp]
  00036	a5		 movsd
  00037	a5		 movsd
  00038	a5		 movsd

; 31   : 	m_v3Normal = v3Normal;

  00039	8b bd d4 9f ff
	ff		 mov	 edi, DWORD PTR _this$[ebp]
  0003f	83 c7 10	 add	 edi, 16			; 00000010H
  00042	8d 75 14	 lea	 esi, DWORD PTR _v3Normal$[ebp]
  00045	a5		 movsd
  00046	a5		 movsd
  00047	a5		 movsd

; 32   : 	
; 33   : 	D3DXVECTOR3 v3Binormal;
; 34   : 	D3DXVec3Normalize(&v3Normal, &v3Normal);

  00048	8d 45 14	 lea	 eax, DWORD PTR _v3Normal$[ebp]
  0004b	50		 push	 eax
  0004c	8d 45 14	 lea	 eax, DWORD PTR _v3Normal$[ebp]
  0004f	50		 push	 eax
  00050	e8 00 00 00 00	 call	 _D3DXVec3Normalize@8

; 35   : 	D3DXVec3Normalize(&v3Tangent, &v3Tangent);

  00055	8d 45 20	 lea	 eax, DWORD PTR _v3Tangent$[ebp]
  00058	50		 push	 eax
  00059	8d 45 20	 lea	 eax, DWORD PTR _v3Tangent$[ebp]
  0005c	50		 push	 eax
  0005d	e8 00 00 00 00	 call	 _D3DXVec3Normalize@8

; 36   : 	D3DXVec3Cross(&v3Binormal, &m_v3Normal, &v3Tangent);

  00062	8b 85 d4 9f ff
	ff		 mov	 eax, DWORD PTR _this$[ebp]
  00068	83 c0 10	 add	 eax, 16			; 00000010H
  0006b	89 85 cc 9f ff
	ff		 mov	 DWORD PTR _pV1$[ebp], eax
; File D:\Metin2 Server Files\mainline\SRC_2014\M2Data\include\d3dx8math.inl

; 1277 :     v.x = pV1->y * pV2->z - pV1->z * pV2->y;

  00071	8b 85 cc 9f ff
	ff		 mov	 eax, DWORD PTR _pV1$[ebp]
  00077	f3 0f 10 40 04	 movss	 xmm0, DWORD PTR [eax+4]
  0007c	f3 0f 59 45 28	 mulss	 xmm0, DWORD PTR _v3Tangent$[ebp+8]
  00081	8b 85 cc 9f ff
	ff		 mov	 eax, DWORD PTR _pV1$[ebp]
  00087	f3 0f 10 48 08	 movss	 xmm1, DWORD PTR [eax+8]
  0008c	f3 0f 59 4d 24	 mulss	 xmm1, DWORD PTR _v3Tangent$[ebp+4]
  00091	f3 0f 5c c1	 subss	 xmm0, xmm1
  00095	f3 0f 11 85 e4
	9f ff ff	 movss	 DWORD PTR _v$13[ebp], xmm0

; 1278 :     v.y = pV1->z * pV2->x - pV1->x * pV2->z;

  0009d	8b 85 cc 9f ff
	ff		 mov	 eax, DWORD PTR _pV1$[ebp]
  000a3	f3 0f 10 40 08	 movss	 xmm0, DWORD PTR [eax+8]
  000a8	f3 0f 59 45 20	 mulss	 xmm0, DWORD PTR _v3Tangent$[ebp]
  000ad	8b 85 cc 9f ff
	ff		 mov	 eax, DWORD PTR _pV1$[ebp]
  000b3	f3 0f 10 08	 movss	 xmm1, DWORD PTR [eax]
  000b7	f3 0f 59 4d 28	 mulss	 xmm1, DWORD PTR _v3Tangent$[ebp+8]
  000bc	f3 0f 5c c1	 subss	 xmm0, xmm1
  000c0	f3 0f 11 85 e8
	9f ff ff	 movss	 DWORD PTR _v$13[ebp+4], xmm0

; 1279 :     v.z = pV1->x * pV2->y - pV1->y * pV2->x;

  000c8	8b 85 cc 9f ff
	ff		 mov	 eax, DWORD PTR _pV1$[ebp]
  000ce	f3 0f 10 00	 movss	 xmm0, DWORD PTR [eax]
  000d2	f3 0f 59 45 24	 mulss	 xmm0, DWORD PTR _v3Tangent$[ebp+4]
  000d7	8b 85 cc 9f ff
	ff		 mov	 eax, DWORD PTR _pV1$[ebp]
  000dd	f3 0f 10 48 04	 movss	 xmm1, DWORD PTR [eax+4]
  000e2	f3 0f 59 4d 20	 mulss	 xmm1, DWORD PTR _v3Tangent$[ebp]
  000e7	f3 0f 5c c1	 subss	 xmm0, xmm1
  000eb	f3 0f 11 85 ec
	9f ff ff	 movss	 DWORD PTR _v$13[ebp+8], xmm0

; 1280 : 
; 1281 :     *pOut = v;

  000f3	8d b5 e4 9f ff
	ff		 lea	 esi, DWORD PTR _v$13[ebp]
  000f9	8d bd d8 9f ff
	ff		 lea	 edi, DWORD PTR _v3Binormal$[ebp]
  000ff	a5		 movsd
  00100	a5		 movsd
  00101	a5		 movsd
; File D:\Metin2 Server Files\mainline\SRC_2014\Metin2Client\GameLib\TerrainDecal.cpp

; 37   : 	D3DXVec3Normalize(&v3Binormal, &v3Binormal);

  00102	8d 85 d8 9f ff
	ff		 lea	 eax, DWORD PTR _v3Binormal$[ebp]
  00108	50		 push	 eax
  00109	8d 85 d8 9f ff
	ff		 lea	 eax, DWORD PTR _v3Binormal$[ebp]
  0010f	50		 push	 eax
  00110	e8 00 00 00 00	 call	 _D3DXVec3Normalize@8

; 40   : 	float fd = D3DXVec3Dot(&m_v3Center, &v3Tangent);

  00115	8b 85 d4 9f ff
	ff		 mov	 eax, DWORD PTR _this$[ebp]
  0011b	83 c0 04	 add	 eax, 4
  0011e	89 85 c0 9f ff
	ff		 mov	 DWORD PTR _pV1$[ebp], eax
; File D:\Metin2 Server Files\mainline\SRC_2014\M2Data\include\d3dx8math.inl

; 1264 :     return pV1->x * pV2->x + pV1->y * pV2->y + pV1->z * pV2->z;

  00124	8b 85 c0 9f ff
	ff		 mov	 eax, DWORD PTR _pV1$[ebp]
  0012a	f3 0f 10 40 08	 movss	 xmm0, DWORD PTR [eax+8]
  0012f	f3 0f 59 45 28	 mulss	 xmm0, DWORD PTR _v3Tangent$[ebp+8]
  00134	8b 85 c0 9f ff
	ff		 mov	 eax, DWORD PTR _pV1$[ebp]
  0013a	f3 0f 10 48 04	 movss	 xmm1, DWORD PTR [eax+4]
  0013f	f3 0f 59 4d 24	 mulss	 xmm1, DWORD PTR _v3Tangent$[ebp+4]
  00144	8b 85 c0 9f ff
	ff		 mov	 eax, DWORD PTR _pV1$[ebp]
  0014a	f3 0f 10 10	 movss	 xmm2, DWORD PTR [eax]
  0014e	f3 0f 59 55 20	 mulss	 xmm2, DWORD PTR _v3Tangent$[ebp]
  00153	f3 0f 58 d1	 addss	 xmm2, xmm1
  00157	f3 0f 58 d0	 addss	 xmm2, xmm0
; File D:\Metin2 Server Files\mainline\SRC_2014\Metin2Client\GameLib\TerrainDecal.cpp

; 40   : 	float fd = D3DXVec3Dot(&m_v3Center, &v3Tangent);

  0015b	f3 0f 11 95 d0
	9f ff ff	 movss	 DWORD PTR _fd$[ebp], xmm2

; 41   : 	m_v4LeftPlane = D3DXPLANE(v3Tangent.x, v3Tangent.y, v3Tangent.z, fWidth * 0.5f - fd);

  00163	f3 0f 10 45 20	 movss	 xmm0, DWORD PTR _v3Tangent$[ebp]
  00168	f3 0f 11 85 30
	9f ff ff	 movss	 DWORD PTR _fa$[ebp], xmm0
  00170	f3 0f 10 45 24	 movss	 xmm0, DWORD PTR _v3Tangent$[ebp+4]
  00175	f3 0f 11 85 1c
	9f ff ff	 movss	 DWORD PTR _fb$[ebp], xmm0
  0017d	f3 0f 10 45 28	 movss	 xmm0, DWORD PTR _v3Tangent$[ebp+8]
  00182	f3 0f 11 85 18
	9f ff ff	 movss	 DWORD PTR _fc$[ebp], xmm0
; File D:\Metin2 Server Files\mainline\SRC_2014\M2Data\include\d3dx8math.inl

; 829  :     a = fa;

  0018a	f3 0f 10 85 30
	9f ff ff	 movss	 xmm0, DWORD PTR _fa$[ebp]
  00192	f3 0f 11 85 ac
	9e ff ff	 movss	 DWORD PTR $T1[ebp], xmm0

; 830  :     b = fb;

  0019a	f3 0f 10 85 1c
	9f ff ff	 movss	 xmm0, DWORD PTR _fb$[ebp]
  001a2	f3 0f 11 85 b0
	9e ff ff	 movss	 DWORD PTR $T1[ebp+4], xmm0

; 831  :     c = fc;

  001aa	f3 0f 10 85 18
	9f ff ff	 movss	 xmm0, DWORD PTR _fc$[ebp]
  001b2	f3 0f 11 85 b4
	9e ff ff	 movss	 DWORD PTR $T1[ebp+8], xmm0
; File D:\Metin2 Server Files\mainline\SRC_2014\Metin2Client\GameLib\TerrainDecal.cpp

; 41   : 	m_v4LeftPlane = D3DXPLANE(v3Tangent.x, v3Tangent.y, v3Tangent.z, fWidth * 0.5f - fd);

  001ba	f3 0f 10 45 2c	 movss	 xmm0, DWORD PTR _fWidth$[ebp]
  001bf	f3 0f 59 05 00
	00 00 00	 mulss	 xmm0, DWORD PTR __real@3f000000
  001c7	f3 0f 5c 85 d0
	9f ff ff	 subss	 xmm0, DWORD PTR _fd$[ebp]
; File D:\Metin2 Server Files\mainline\SRC_2014\M2Data\include\d3dx8math.inl

; 832  :     d = fd;

  001cf	f3 0f 11 85 b8
	9e ff ff	 movss	 DWORD PTR $T1[ebp+12], xmm0
; File D:\Metin2 Server Files\mainline\SRC_2014\Metin2Client\GameLib\TerrainDecal.cpp

; 41   : 	m_v4LeftPlane = D3DXPLANE(v3Tangent.x, v3Tangent.y, v3Tangent.z, fWidth * 0.5f - fd);

  001d7	8b bd d4 9f ff
	ff		 mov	 edi, DWORD PTR _this$[ebp]
  001dd	83 c7 1c	 add	 edi, 28			; 0000001cH
  001e0	8d b5 ac 9e ff
	ff		 lea	 esi, DWORD PTR $T1[ebp]
  001e6	a5		 movsd
  001e7	a5		 movsd
  001e8	a5		 movsd
  001e9	a5		 movsd

; 42   : 	m_v4RightPlane = D3DXPLANE(-v3Tangent.x, -v3Tangent.y, -v3Tangent.z, fWidth * 0.5f + fd);

  001ea	f3 0f 10 45 20	 movss	 xmm0, DWORD PTR _v3Tangent$[ebp]
  001ef	0f 57 05 00 00
	00 00		 xorps	 xmm0, DWORD PTR __xmm@80000000800000008000000080000000
  001f6	f3 0f 11 85 14
	9f ff ff	 movss	 DWORD PTR _fa$[ebp], xmm0
  001fe	f3 0f 10 45 24	 movss	 xmm0, DWORD PTR _v3Tangent$[ebp+4]
  00203	0f 57 05 00 00
	00 00		 xorps	 xmm0, DWORD PTR __xmm@80000000800000008000000080000000
  0020a	f3 0f 11 85 0c
	9f ff ff	 movss	 DWORD PTR _fb$[ebp], xmm0
  00212	f3 0f 10 45 28	 movss	 xmm0, DWORD PTR _v3Tangent$[ebp+8]
  00217	0f 57 05 00 00
	00 00		 xorps	 xmm0, DWORD PTR __xmm@80000000800000008000000080000000
  0021e	f3 0f 11 85 94
	9f ff ff	 movss	 DWORD PTR _fc$[ebp], xmm0
; File D:\Metin2 Server Files\mainline\SRC_2014\M2Data\include\d3dx8math.inl

; 829  :     a = fa;

  00226	f3 0f 10 85 14
	9f ff ff	 movss	 xmm0, DWORD PTR _fa$[ebp]
  0022e	f3 0f 11 85 bc
	9e ff ff	 movss	 DWORD PTR $T2[ebp], xmm0

; 830  :     b = fb;

  00236	f3 0f 10 85 0c
	9f ff ff	 movss	 xmm0, DWORD PTR _fb$[ebp]
  0023e	f3 0f 11 85 c0
	9e ff ff	 movss	 DWORD PTR $T2[ebp+4], xmm0

; 831  :     c = fc;

  00246	f3 0f 10 85 94
	9f ff ff	 movss	 xmm0, DWORD PTR _fc$[ebp]
  0024e	f3 0f 11 85 c4
	9e ff ff	 movss	 DWORD PTR $T2[ebp+8], xmm0
; File D:\Metin2 Server Files\mainline\SRC_2014\Metin2Client\GameLib\TerrainDecal.cpp

; 42   : 	m_v4RightPlane = D3DXPLANE(-v3Tangent.x, -v3Tangent.y, -v3Tangent.z, fWidth * 0.5f + fd);

  00256	f3 0f 10 45 2c	 movss	 xmm0, DWORD PTR _fWidth$[ebp]
  0025b	f3 0f 59 05 00
	00 00 00	 mulss	 xmm0, DWORD PTR __real@3f000000
  00263	f3 0f 58 85 d0
	9f ff ff	 addss	 xmm0, DWORD PTR _fd$[ebp]
; File D:\Metin2 Server Files\mainline\SRC_2014\M2Data\include\d3dx8math.inl

; 832  :     d = fd;

  0026b	f3 0f 11 85 c8
	9e ff ff	 movss	 DWORD PTR $T2[ebp+12], xmm0
; File D:\Metin2 Server Files\mainline\SRC_2014\Metin2Client\GameLib\TerrainDecal.cpp

; 42   : 	m_v4RightPlane = D3DXPLANE(-v3Tangent.x, -v3Tangent.y, -v3Tangent.z, fWidth * 0.5f + fd);

  00273	8b bd d4 9f ff
	ff		 mov	 edi, DWORD PTR _this$[ebp]
  00279	83 c7 2c	 add	 edi, 44			; 0000002cH
  0027c	8d b5 bc 9e ff
	ff		 lea	 esi, DWORD PTR $T2[ebp]
  00282	a5		 movsd
  00283	a5		 movsd
  00284	a5		 movsd
  00285	a5		 movsd

; 44   : 	fd = D3DXVec3Dot(&m_v3Center, &v3Binormal);

  00286	8b 85 d4 9f ff
	ff		 mov	 eax, DWORD PTR _this$[ebp]
  0028c	83 c0 04	 add	 eax, 4
  0028f	89 85 bc 9f ff
	ff		 mov	 DWORD PTR _pV1$[ebp], eax
; File D:\Metin2 Server Files\mainline\SRC_2014\M2Data\include\d3dx8math.inl

; 1264 :     return pV1->x * pV2->x + pV1->y * pV2->y + pV1->z * pV2->z;

  00295	8b 85 bc 9f ff
	ff		 mov	 eax, DWORD PTR _pV1$[ebp]
  0029b	f3 0f 10 40 08	 movss	 xmm0, DWORD PTR [eax+8]
  002a0	f3 0f 59 85 e0
	9f ff ff	 mulss	 xmm0, DWORD PTR _v3Binormal$[ebp+8]
  002a8	8b 85 bc 9f ff
	ff		 mov	 eax, DWORD PTR _pV1$[ebp]
  002ae	f3 0f 10 48 04	 movss	 xmm1, DWORD PTR [eax+4]
  002b3	f3 0f 59 8d dc
	9f ff ff	 mulss	 xmm1, DWORD PTR _v3Binormal$[ebp+4]
  002bb	8b 85 bc 9f ff
	ff		 mov	 eax, DWORD PTR _pV1$[ebp]
  002c1	f3 0f 10 10	 movss	 xmm2, DWORD PTR [eax]
  002c5	f3 0f 59 95 d8
	9f ff ff	 mulss	 xmm2, DWORD PTR _v3Binormal$[ebp]
  002cd	f3 0f 58 d1	 addss	 xmm2, xmm1
  002d1	f3 0f 58 d0	 addss	 xmm2, xmm0
; File D:\Metin2 Server Files\mainline\SRC_2014\Metin2Client\GameLib\TerrainDecal.cpp

; 44   : 	fd = D3DXVec3Dot(&m_v3Center, &v3Binormal);

  002d5	f3 0f 11 95 d0
	9f ff ff	 movss	 DWORD PTR _fd$[ebp], xmm2

; 45   : 	m_v4BottomPlane = D3DXPLANE(v3Binormal.x, v3Binormal.y, v3Binormal.z, fHeight * 0.5f - fd);

  002dd	f3 0f 10 85 d8
	9f ff ff	 movss	 xmm0, DWORD PTR _v3Binormal$[ebp]
  002e5	f3 0f 11 85 90
	9f ff ff	 movss	 DWORD PTR _fa$[ebp], xmm0
  002ed	f3 0f 10 85 dc
	9f ff ff	 movss	 xmm0, DWORD PTR _v3Binormal$[ebp+4]
  002f5	f3 0f 11 85 8c
	9f ff ff	 movss	 DWORD PTR _fb$[ebp], xmm0
  002fd	f3 0f 10 85 e0
	9f ff ff	 movss	 xmm0, DWORD PTR _v3Binormal$[ebp+8]
  00305	f3 0f 11 85 88
	9f ff ff	 movss	 DWORD PTR _fc$[ebp], xmm0
; File D:\Metin2 Server Files\mainline\SRC_2014\M2Data\include\d3dx8math.inl

; 829  :     a = fa;

  0030d	f3 0f 10 85 90
	9f ff ff	 movss	 xmm0, DWORD PTR _fa$[ebp]
  00315	f3 0f 11 85 fc
	9e ff ff	 movss	 DWORD PTR $T6[ebp], xmm0

; 830  :     b = fb;

  0031d	f3 0f 10 85 8c
	9f ff ff	 movss	 xmm0, DWORD PTR _fb$[ebp]
  00325	f3 0f 11 85 00
	9f ff ff	 movss	 DWORD PTR $T6[ebp+4], xmm0

; 831  :     c = fc;

  0032d	f3 0f 10 85 88
	9f ff ff	 movss	 xmm0, DWORD PTR _fc$[ebp]
  00335	f3 0f 11 85 04
	9f ff ff	 movss	 DWORD PTR $T6[ebp+8], xmm0
; File D:\Metin2 Server Files\mainline\SRC_2014\Metin2Client\GameLib\TerrainDecal.cpp

; 45   : 	m_v4BottomPlane = D3DXPLANE(v3Binormal.x, v3Binormal.y, v3Binormal.z, fHeight * 0.5f - fd);

  0033d	f3 0f 10 45 30	 movss	 xmm0, DWORD PTR _fHeight$[ebp]
  00342	f3 0f 59 05 00
	00 00 00	 mulss	 xmm0, DWORD PTR __real@3f000000
  0034a	f3 0f 5c 85 d0
	9f ff ff	 subss	 xmm0, DWORD PTR _fd$[ebp]
; File D:\Metin2 Server Files\mainline\SRC_2014\M2Data\include\d3dx8math.inl

; 832  :     d = fd;

  00352	f3 0f 11 85 08
	9f ff ff	 movss	 DWORD PTR $T6[ebp+12], xmm0
; File D:\Metin2 Server Files\mainline\SRC_2014\Metin2Client\GameLib\TerrainDecal.cpp

; 45   : 	m_v4BottomPlane = D3DXPLANE(v3Binormal.x, v3Binormal.y, v3Binormal.z, fHeight * 0.5f - fd);

  0035a	8b bd d4 9f ff
	ff		 mov	 edi, DWORD PTR _this$[ebp]
  00360	83 c7 3c	 add	 edi, 60			; 0000003cH
  00363	8d b5 fc 9e ff
	ff		 lea	 esi, DWORD PTR $T6[ebp]
  00369	a5		 movsd
  0036a	a5		 movsd
  0036b	a5		 movsd
  0036c	a5		 movsd

; 46   : 	m_v4TopPlane = D3DXPLANE(-v3Binormal.x, -v3Binormal.y, -v3Binormal.z, fHeight * 0.5f + fd);

  0036d	f3 0f 10 85 d8
	9f ff ff	 movss	 xmm0, DWORD PTR _v3Binormal$[ebp]
  00375	0f 57 05 00 00
	00 00		 xorps	 xmm0, DWORD PTR __xmm@80000000800000008000000080000000
  0037c	f3 0f 11 85 84
	9f ff ff	 movss	 DWORD PTR _fa$[ebp], xmm0
  00384	f3 0f 10 85 dc
	9f ff ff	 movss	 xmm0, DWORD PTR _v3Binormal$[ebp+4]
  0038c	0f 57 05 00 00
	00 00		 xorps	 xmm0, DWORD PTR __xmm@80000000800000008000000080000000
  00393	f3 0f 11 85 80
	9f ff ff	 movss	 DWORD PTR _fb$[ebp], xmm0
  0039b	f3 0f 10 85 e0
	9f ff ff	 movss	 xmm0, DWORD PTR _v3Binormal$[ebp+8]
  003a3	0f 57 05 00 00
	00 00		 xorps	 xmm0, DWORD PTR __xmm@80000000800000008000000080000000
  003aa	f3 0f 11 85 7c
	9f ff ff	 movss	 DWORD PTR _fc$[ebp], xmm0
; File D:\Metin2 Server Files\mainline\SRC_2014\M2Data\include\d3dx8math.inl

; 829  :     a = fa;

  003b2	f3 0f 10 85 84
	9f ff ff	 movss	 xmm0, DWORD PTR _fa$[ebp]
  003ba	f3 0f 11 85 ec
	9e ff ff	 movss	 DWORD PTR $T5[ebp], xmm0

; 830  :     b = fb;

  003c2	f3 0f 10 85 80
	9f ff ff	 movss	 xmm0, DWORD PTR _fb$[ebp]
  003ca	f3 0f 11 85 f0
	9e ff ff	 movss	 DWORD PTR $T5[ebp+4], xmm0

; 831  :     c = fc;

  003d2	f3 0f 10 85 7c
	9f ff ff	 movss	 xmm0, DWORD PTR _fc$[ebp]
  003da	f3 0f 11 85 f4
	9e ff ff	 movss	 DWORD PTR $T5[ebp+8], xmm0
; File D:\Metin2 Server Files\mainline\SRC_2014\Metin2Client\GameLib\TerrainDecal.cpp

; 46   : 	m_v4TopPlane = D3DXPLANE(-v3Binormal.x, -v3Binormal.y, -v3Binormal.z, fHeight * 0.5f + fd);

  003e2	f3 0f 10 45 30	 movss	 xmm0, DWORD PTR _fHeight$[ebp]
  003e7	f3 0f 59 05 00
	00 00 00	 mulss	 xmm0, DWORD PTR __real@3f000000
  003ef	f3 0f 58 85 d0
	9f ff ff	 addss	 xmm0, DWORD PTR _fd$[ebp]
; File D:\Metin2 Server Files\mainline\SRC_2014\M2Data\include\d3dx8math.inl

; 832  :     d = fd;

  003f7	f3 0f 11 85 f8
	9e ff ff	 movss	 DWORD PTR $T5[ebp+12], xmm0
; File D:\Metin2 Server Files\mainline\SRC_2014\Metin2Client\GameLib\TerrainDecal.cpp

; 46   : 	m_v4TopPlane = D3DXPLANE(-v3Binormal.x, -v3Binormal.y, -v3Binormal.z, fHeight * 0.5f + fd);

  003ff	8b bd d4 9f ff
	ff		 mov	 edi, DWORD PTR _this$[ebp]
  00405	83 c7 4c	 add	 edi, 76			; 0000004cH
  00408	8d b5 ec 9e ff
	ff		 lea	 esi, DWORD PTR $T5[ebp]
  0040e	a5		 movsd
  0040f	a5		 movsd
  00410	a5		 movsd
  00411	a5		 movsd

; 48   : 	fd = D3DXVec3Dot(&m_v3Center, &m_v3Normal);

  00412	8b 85 d4 9f ff
	ff		 mov	 eax, DWORD PTR _this$[ebp]
  00418	83 c0 10	 add	 eax, 16			; 00000010H
  0041b	89 85 b4 9f ff
	ff		 mov	 DWORD PTR _pV2$[ebp], eax
  00421	8b 85 d4 9f ff
	ff		 mov	 eax, DWORD PTR _this$[ebp]
  00427	83 c0 04	 add	 eax, 4
  0042a	89 85 b8 9f ff
	ff		 mov	 DWORD PTR _pV1$[ebp], eax
; File D:\Metin2 Server Files\mainline\SRC_2014\M2Data\include\d3dx8math.inl

; 1264 :     return pV1->x * pV2->x + pV1->y * pV2->y + pV1->z * pV2->z;

  00430	8b 85 b8 9f ff
	ff		 mov	 eax, DWORD PTR _pV1$[ebp]
  00436	8b 8d b4 9f ff
	ff		 mov	 ecx, DWORD PTR _pV2$[ebp]
  0043c	f3 0f 10 40 08	 movss	 xmm0, DWORD PTR [eax+8]
  00441	f3 0f 59 41 08	 mulss	 xmm0, DWORD PTR [ecx+8]
  00446	8b 85 b8 9f ff
	ff		 mov	 eax, DWORD PTR _pV1$[ebp]
  0044c	8b 8d b4 9f ff
	ff		 mov	 ecx, DWORD PTR _pV2$[ebp]
  00452	f3 0f 10 48 04	 movss	 xmm1, DWORD PTR [eax+4]
  00457	f3 0f 59 49 04	 mulss	 xmm1, DWORD PTR [ecx+4]
  0045c	8b 85 b8 9f ff
	ff		 mov	 eax, DWORD PTR _pV1$[ebp]
  00462	8b 8d b4 9f ff
	ff		 mov	 ecx, DWORD PTR _pV2$[ebp]
  00468	f3 0f 10 10	 movss	 xmm2, DWORD PTR [eax]
  0046c	f3 0f 59 11	 mulss	 xmm2, DWORD PTR [ecx]
  00470	f3 0f 58 d1	 addss	 xmm2, xmm1
  00474	f3 0f 58 d0	 addss	 xmm2, xmm0
; File D:\Metin2 Server Files\mainline\SRC_2014\Metin2Client\GameLib\TerrainDecal.cpp

; 48   : 	fd = D3DXVec3Dot(&m_v3Center, &m_v3Normal);

  00478	f3 0f 11 95 d0
	9f ff ff	 movss	 DWORD PTR _fd$[ebp], xmm2

; 49   : 	m_v4FrontPlane = D3DXPLANE(-m_v3Normal.x, -m_v3Normal.y, -m_v3Normal.z, fDepth + fd);

  00480	8b 85 d4 9f ff
	ff		 mov	 eax, DWORD PTR _this$[ebp]
  00486	f3 0f 10 40 10	 movss	 xmm0, DWORD PTR [eax+16]
  0048b	0f 57 05 00 00
	00 00		 xorps	 xmm0, DWORD PTR __xmm@80000000800000008000000080000000
  00492	f3 0f 11 85 78
	9f ff ff	 movss	 DWORD PTR _fa$[ebp], xmm0
  0049a	8b 85 d4 9f ff
	ff		 mov	 eax, DWORD PTR _this$[ebp]
  004a0	f3 0f 10 40 14	 movss	 xmm0, DWORD PTR [eax+20]
  004a5	0f 57 05 00 00
	00 00		 xorps	 xmm0, DWORD PTR __xmm@80000000800000008000000080000000
  004ac	f3 0f 11 85 74
	9f ff ff	 movss	 DWORD PTR _fb$[ebp], xmm0
  004b4	8b 85 d4 9f ff
	ff		 mov	 eax, DWORD PTR _this$[ebp]
  004ba	f3 0f 10 40 18	 movss	 xmm0, DWORD PTR [eax+24]
  004bf	0f 57 05 00 00
	00 00		 xorps	 xmm0, DWORD PTR __xmm@80000000800000008000000080000000
  004c6	f3 0f 11 85 70
	9f ff ff	 movss	 DWORD PTR _fc$[ebp], xmm0
; File D:\Metin2 Server Files\mainline\SRC_2014\M2Data\include\d3dx8math.inl

; 829  :     a = fa;

  004ce	f3 0f 10 85 78
	9f ff ff	 movss	 xmm0, DWORD PTR _fa$[ebp]
  004d6	f3 0f 11 85 dc
	9e ff ff	 movss	 DWORD PTR $T4[ebp], xmm0

; 830  :     b = fb;

  004de	f3 0f 10 85 74
	9f ff ff	 movss	 xmm0, DWORD PTR _fb$[ebp]
  004e6	f3 0f 11 85 e0
	9e ff ff	 movss	 DWORD PTR $T4[ebp+4], xmm0

; 831  :     c = fc;

  004ee	f3 0f 10 85 70
	9f ff ff	 movss	 xmm0, DWORD PTR _fc$[ebp]
  004f6	f3 0f 11 85 e4
	9e ff ff	 movss	 DWORD PTR $T4[ebp+8], xmm0
; File D:\Metin2 Server Files\mainline\SRC_2014\Metin2Client\GameLib\TerrainDecal.cpp

; 49   : 	m_v4FrontPlane = D3DXPLANE(-m_v3Normal.x, -m_v3Normal.y, -m_v3Normal.z, fDepth + fd);

  004fe	f3 0f 10 45 34	 movss	 xmm0, DWORD PTR _fDepth$[ebp]
  00503	f3 0f 58 85 d0
	9f ff ff	 addss	 xmm0, DWORD PTR _fd$[ebp]
; File D:\Metin2 Server Files\mainline\SRC_2014\M2Data\include\d3dx8math.inl

; 832  :     d = fd;

  0050b	f3 0f 11 85 e8
	9e ff ff	 movss	 DWORD PTR $T4[ebp+12], xmm0
; File D:\Metin2 Server Files\mainline\SRC_2014\Metin2Client\GameLib\TerrainDecal.cpp

; 49   : 	m_v4FrontPlane = D3DXPLANE(-m_v3Normal.x, -m_v3Normal.y, -m_v3Normal.z, fDepth + fd);

  00513	8b bd d4 9f ff
	ff		 mov	 edi, DWORD PTR _this$[ebp]
  00519	83 c7 5c	 add	 edi, 92			; 0000005cH
  0051c	8d b5 dc 9e ff
	ff		 lea	 esi, DWORD PTR $T4[ebp]
  00522	a5		 movsd
  00523	a5		 movsd
  00524	a5		 movsd
  00525	a5		 movsd

; 50   : 	m_v4BackPlane = D3DXPLANE(m_v3Normal.x, m_v3Normal.y, m_v3Normal.z, fDepth - fd);

  00526	8b 85 d4 9f ff
	ff		 mov	 eax, DWORD PTR _this$[ebp]
  0052c	f3 0f 10 40 10	 movss	 xmm0, DWORD PTR [eax+16]
  00531	f3 0f 11 85 6c
	9f ff ff	 movss	 DWORD PTR _fa$[ebp], xmm0
  00539	8b 85 d4 9f ff
	ff		 mov	 eax, DWORD PTR _this$[ebp]
  0053f	f3 0f 10 40 14	 movss	 xmm0, DWORD PTR [eax+20]
  00544	f3 0f 11 85 68
	9f ff ff	 movss	 DWORD PTR _fb$[ebp], xmm0
  0054c	8b 85 d4 9f ff
	ff		 mov	 eax, DWORD PTR _this$[ebp]
  00552	f3 0f 10 40 18	 movss	 xmm0, DWORD PTR [eax+24]
  00557	f3 0f 11 85 64
	9f ff ff	 movss	 DWORD PTR _fc$[ebp], xmm0
; File D:\Metin2 Server Files\mainline\SRC_2014\M2Data\include\d3dx8math.inl

; 829  :     a = fa;

  0055f	f3 0f 10 85 6c
	9f ff ff	 movss	 xmm0, DWORD PTR _fa$[ebp]
  00567	f3 0f 11 85 cc
	9e ff ff	 movss	 DWORD PTR $T3[ebp], xmm0

; 830  :     b = fb;

  0056f	f3 0f 10 85 68
	9f ff ff	 movss	 xmm0, DWORD PTR _fb$[ebp]
  00577	f3 0f 11 85 d0
	9e ff ff	 movss	 DWORD PTR $T3[ebp+4], xmm0

; 831  :     c = fc;

  0057f	f3 0f 10 85 64
	9f ff ff	 movss	 xmm0, DWORD PTR _fc$[ebp]
  00587	f3 0f 11 85 d4
	9e ff ff	 movss	 DWORD PTR $T3[ebp+8], xmm0
; File D:\Metin2 Server Files\mainline\SRC_2014\Metin2Client\GameLib\TerrainDecal.cpp

; 50   : 	m_v4BackPlane = D3DXPLANE(m_v3Normal.x, m_v3Normal.y, m_v3Normal.z, fDepth - fd);

  0058f	f3 0f 10 45 34	 movss	 xmm0, DWORD PTR _fDepth$[ebp]
  00594	f3 0f 5c 85 d0
	9f ff ff	 subss	 xmm0, DWORD PTR _fd$[ebp]
; File D:\Metin2 Server Files\mainline\SRC_2014\M2Data\include\d3dx8math.inl

; 832  :     d = fd;

  0059c	f3 0f 11 85 d8
	9e ff ff	 movss	 DWORD PTR $T3[ebp+12], xmm0
; File D:\Metin2 Server Files\mainline\SRC_2014\Metin2Client\GameLib\TerrainDecal.cpp

; 50   : 	m_v4BackPlane = D3DXPLANE(m_v3Normal.x, m_v3Normal.y, m_v3Normal.z, fDepth - fd);

  005a4	8b bd d4 9f ff
	ff		 mov	 edi, DWORD PTR _this$[ebp]
  005aa	83 c7 6c	 add	 edi, 108		; 0000006cH
  005ad	8d b5 cc 9e ff
	ff		 lea	 esi, DWORD PTR $T3[ebp]
  005b3	a5		 movsd
  005b4	a5		 movsd
  005b5	a5		 movsd
  005b6	a5		 movsd

; 51   : 	
; 52   : 	// Begin with empty mesh
; 53   : 	m_dwVertexCount = 0;

  005b7	8b 85 d4 9f ff
	ff		 mov	 eax, DWORD PTR _this$[ebp]
  005bd	83 60 7c 00	 and	 DWORD PTR [eax+124], 0

; 54   : 	m_dwPrimitiveCount = 0;

  005c1	8b 85 d4 9f ff
	ff		 mov	 eax, DWORD PTR _this$[ebp]
  005c7	83 a0 80 00 00
	00 00		 and	 DWORD PTR [eax+128], 0

; 55   : 	
; 56   : 	// Add this point, determine which surfaces may be affected by this decal and call ClipMesh().
; 57   : 
; 58   : 	float fSearchRadius = fMAX(fWidth, fHeight);// 0.75f >= sqrtf(2)/2;

  005ce	51		 push	 ecx
  005cf	f3 0f 10 45 30	 movss	 xmm0, DWORD PTR _fHeight$[ebp]
  005d4	f3 0f 11 04 24	 movss	 DWORD PTR [esp], xmm0
  005d9	51		 push	 ecx
  005da	f3 0f 10 45 2c	 movss	 xmm0, DWORD PTR _fWidth$[ebp]
  005df	f3 0f 11 04 24	 movss	 DWORD PTR [esp], xmm0
  005e4	e8 00 00 00 00	 call	 ?fMAX@@YAMMM@Z		; fMAX
  005e9	59		 pop	 ecx
  005ea	59		 pop	 ecx
  005eb	d9 9d c4 9f ff
	ff		 fstp	 DWORD PTR _fSearchRadius$[ebp]

; 59   : 	float fMinX = v3Center.x - fSearchRadius;

  005f1	f3 0f 10 45 08	 movss	 xmm0, DWORD PTR _v3Center$[ebp]
  005f6	f3 0f 5c 85 c4
	9f ff ff	 subss	 xmm0, DWORD PTR _fSearchRadius$[ebp]
  005fe	f3 0f 11 85 44
	9f ff ff	 movss	 DWORD PTR _fMinX$[ebp], xmm0

; 60   : 	float fMaxX = v3Center.x + fSearchRadius;

  00606	f3 0f 10 45 08	 movss	 xmm0, DWORD PTR _v3Center$[ebp]
  0060b	f3 0f 58 85 c4
	9f ff ff	 addss	 xmm0, DWORD PTR _fSearchRadius$[ebp]
  00613	f3 0f 11 85 48
	9f ff ff	 movss	 DWORD PTR _fMaxX$[ebp], xmm0
; File C:\Program Files (x86)\Windows Kits\10\Include\10.0.18362.0\ucrt\corecrt_math.h

; 672  :             return (float)fabs(_X);

  0061b	f3 0f 5a 45 0c	 cvtss2sd xmm0, DWORD PTR _v3Center$[ebp+4]
  00620	51		 push	 ecx
  00621	51		 push	 ecx
  00622	f2 0f 11 04 24	 movsd	 QWORD PTR [esp], xmm0
  00627	e8 00 00 00 00	 call	 _fabs
  0062c	59		 pop	 ecx
  0062d	59		 pop	 ecx
; File C:\Program Files (x86)\Microsoft Visual Studio\2019\Community\VC\Tools\MSVC\14.28.29333\include\cmath

; 95   :     return _CSTD fabsf(_Xx);

  0062e	d9 9d 60 9f ff
	ff		 fstp	 DWORD PTR $T11[ebp]
; File D:\Metin2 Server Files\mainline\SRC_2014\Metin2Client\GameLib\TerrainDecal.cpp

; 61   : 	float fMinY = fabs(v3Center.y) - fSearchRadius;

  00634	f3 0f 10 85 60
	9f ff ff	 movss	 xmm0, DWORD PTR $T11[ebp]
  0063c	f3 0f 5c 85 c4
	9f ff ff	 subss	 xmm0, DWORD PTR _fSearchRadius$[ebp]
  00644	f3 0f 11 85 4c
	9f ff ff	 movss	 DWORD PTR _fMinY$[ebp], xmm0
; File C:\Program Files (x86)\Windows Kits\10\Include\10.0.18362.0\ucrt\corecrt_math.h

; 672  :             return (float)fabs(_X);

  0064c	f3 0f 5a 45 0c	 cvtss2sd xmm0, DWORD PTR _v3Center$[ebp+4]
  00651	51		 push	 ecx
  00652	51		 push	 ecx
  00653	f2 0f 11 04 24	 movsd	 QWORD PTR [esp], xmm0
  00658	e8 00 00 00 00	 call	 _fabs
  0065d	59		 pop	 ecx
  0065e	59		 pop	 ecx
; File C:\Program Files (x86)\Microsoft Visual Studio\2019\Community\VC\Tools\MSVC\14.28.29333\include\cmath

; 95   :     return _CSTD fabsf(_Xx);

  0065f	d9 9d 5c 9f ff
	ff		 fstp	 DWORD PTR $T10[ebp]
; File D:\Metin2 Server Files\mainline\SRC_2014\Metin2Client\GameLib\TerrainDecal.cpp

; 62   : 	float fMaxY = fabs(v3Center.y) + fSearchRadius;

  00665	f3 0f 10 85 5c
	9f ff ff	 movss	 xmm0, DWORD PTR $T10[ebp]
  0066d	f3 0f 58 85 c4
	9f ff ff	 addss	 xmm0, DWORD PTR _fSearchRadius$[ebp]
  00675	f3 0f 11 85 50
	9f ff ff	 movss	 DWORD PTR _fMaxY$[ebp], xmm0

; 63   : 
; 64   : 	DWORD dwAffectedPrimitiveCount = 0;

  0067d	83 a5 98 9f ff
	ff 00		 and	 DWORD PTR _dwAffectedPrimitiveCount$[ebp], 0

; 65   : 	D3DXVECTOR3 v3AffectedVertex[MAX_SEARCH_VERTICES];

  00684	c7 85 b0 9f ff
	ff 00 04 00 00	 mov	 DWORD PTR ___n$[ebp], 1024 ; 00000400H
  0068e	8d 85 fc cf ff
	ff		 lea	 eax, DWORD PTR _v3AffectedVertex$[ebp]
  00694	89 85 a0 9f ff
	ff		 mov	 DWORD PTR ___t$[ebp], eax
$LN41@Make:
  0069a	8b 85 b0 9f ff
	ff		 mov	 eax, DWORD PTR ___n$[ebp]
  006a0	89 85 58 9f ff
	ff		 mov	 DWORD PTR tv742[ebp], eax
  006a6	8b 85 b0 9f ff
	ff		 mov	 eax, DWORD PTR ___n$[ebp]
  006ac	48		 dec	 eax
  006ad	89 85 b0 9f ff
	ff		 mov	 DWORD PTR ___n$[ebp], eax
  006b3	83 bd 58 9f ff
	ff 00		 cmp	 DWORD PTR tv742[ebp], 0
  006ba	76 11		 jbe	 SHORT $LN42@Make
  006bc	8b 85 a0 9f ff
	ff		 mov	 eax, DWORD PTR ___t$[ebp]
  006c2	83 c0 0c	 add	 eax, 12			; 0000000cH
  006c5	89 85 a0 9f ff
	ff		 mov	 DWORD PTR ___t$[ebp], eax
  006cb	eb cd		 jmp	 SHORT $LN41@Make
$LN42@Make:

; 66   : 	D3DXVECTOR3 v3AffectedNormal[MAX_SEARCH_VERTICES];

  006cd	c7 85 ac 9f ff
	ff 00 04 00 00	 mov	 DWORD PTR ___n$[ebp], 1024 ; 00000400H
  006d7	8d 85 fc 9f ff
	ff		 lea	 eax, DWORD PTR _v3AffectedNormal$[ebp]
  006dd	89 85 9c 9f ff
	ff		 mov	 DWORD PTR ___t$[ebp], eax
$LN47@Make:
  006e3	8b 85 ac 9f ff
	ff		 mov	 eax, DWORD PTR ___n$[ebp]
  006e9	89 85 54 9f ff
	ff		 mov	 DWORD PTR tv409[ebp], eax
  006ef	8b 85 ac 9f ff
	ff		 mov	 eax, DWORD PTR ___n$[ebp]
  006f5	48		 dec	 eax
  006f6	89 85 ac 9f ff
	ff		 mov	 DWORD PTR ___n$[ebp], eax
  006fc	83 bd 54 9f ff
	ff 00		 cmp	 DWORD PTR tv409[ebp], 0
  00703	76 11		 jbe	 SHORT $LN48@Make
  00705	8b 85 9c 9f ff
	ff		 mov	 eax, DWORD PTR ___t$[ebp]
  0070b	83 c0 0c	 add	 eax, 12			; 0000000cH
  0070e	89 85 9c 9f ff
	ff		 mov	 DWORD PTR ___t$[ebp], eax
  00714	eb cd		 jmp	 SHORT $LN47@Make
$LN48@Make:

; 67   : 	memset(v3AffectedVertex, 0, sizeof(v3AffectedVertex));

  00716	68 00 30 00 00	 push	 12288			; 00003000H
  0071b	6a 00		 push	 0
  0071d	8d 85 fc cf ff
	ff		 lea	 eax, DWORD PTR _v3AffectedVertex$[ebp]
  00723	50		 push	 eax
  00724	e8 00 00 00 00	 call	 _memset
  00729	83 c4 0c	 add	 esp, 12			; 0000000cH

; 68   : 	memset(v3AffectedNormal, 0, sizeof(v3AffectedNormal));

  0072c	68 00 30 00 00	 push	 12288			; 00003000H
  00731	6a 00		 push	 0
  00733	8d 85 fc 9f ff
	ff		 lea	 eax, DWORD PTR _v3AffectedNormal$[ebp]
  00739	50		 push	 eax
  0073a	e8 00 00 00 00	 call	 _memset
  0073f	83 c4 0c	 add	 esp, 12			; 0000000cH

; 69   : 
; 70   : 	SearchAffectedTerrainMesh(fMinX, fMaxX, fMinY, fMaxY, &dwAffectedPrimitiveCount, v3AffectedVertex, v3AffectedNormal);

  00742	8d 85 fc 9f ff
	ff		 lea	 eax, DWORD PTR _v3AffectedNormal$[ebp]
  00748	50		 push	 eax
  00749	8d 85 fc cf ff
	ff		 lea	 eax, DWORD PTR _v3AffectedVertex$[ebp]
  0074f	50		 push	 eax
  00750	8d 85 98 9f ff
	ff		 lea	 eax, DWORD PTR _dwAffectedPrimitiveCount$[ebp]
  00756	50		 push	 eax
  00757	51		 push	 ecx
  00758	f3 0f 10 85 50
	9f ff ff	 movss	 xmm0, DWORD PTR _fMaxY$[ebp]
  00760	f3 0f 11 04 24	 movss	 DWORD PTR [esp], xmm0
  00765	51		 push	 ecx
  00766	f3 0f 10 85 4c
	9f ff ff	 movss	 xmm0, DWORD PTR _fMinY$[ebp]
  0076e	f3 0f 11 04 24	 movss	 DWORD PTR [esp], xmm0
  00773	51		 push	 ecx
  00774	f3 0f 10 85 48
	9f ff ff	 movss	 xmm0, DWORD PTR _fMaxX$[ebp]
  0077c	f3 0f 11 04 24	 movss	 DWORD PTR [esp], xmm0
  00781	51		 push	 ecx
  00782	f3 0f 10 85 44
	9f ff ff	 movss	 xmm0, DWORD PTR _fMinX$[ebp]
  0078a	f3 0f 11 04 24	 movss	 DWORD PTR [esp], xmm0
  0078f	8b 8d d4 9f ff
	ff		 mov	 ecx, DWORD PTR _this$[ebp]
  00795	e8 00 00 00 00	 call	 ?SearchAffectedTerrainMesh@CTerrainDecal@@IAEXMMMMPAKPAUD3DXVECTOR3@@1@Z ; CTerrainDecal::SearchAffectedTerrainMesh

; 71   : 	
; 72   :  	ClipMesh(dwAffectedPrimitiveCount, v3AffectedVertex, v3AffectedNormal);

  0079a	8d 85 fc 9f ff
	ff		 lea	 eax, DWORD PTR _v3AffectedNormal$[ebp]
  007a0	50		 push	 eax
  007a1	8d 85 fc cf ff
	ff		 lea	 eax, DWORD PTR _v3AffectedVertex$[ebp]
  007a7	50		 push	 eax
  007a8	ff b5 98 9f ff
	ff		 push	 DWORD PTR _dwAffectedPrimitiveCount$[ebp]
  007ae	8b 8d d4 9f ff
	ff		 mov	 ecx, DWORD PTR _this$[ebp]
  007b4	e8 00 00 00 00	 call	 ?ClipMesh@CDecal@@IAEXKPBUD3DXVECTOR3@@0@Z ; CDecal::ClipMesh

; 73   : 	
; 74   : 	// Assign texture mapping coordinates
; 75   : 	float fOne_over_w = 1.0f / fWidth;

  007b9	f3 0f 10 05 00
	00 00 00	 movss	 xmm0, DWORD PTR __real@3f800000
  007c1	f3 0f 5e 45 2c	 divss	 xmm0, DWORD PTR _fWidth$[ebp]
  007c6	f3 0f 11 85 34
	9f ff ff	 movss	 DWORD PTR _fOne_over_w$[ebp], xmm0

; 76   : 	float fOne_over_h = 1.0f / fHeight;

  007ce	f3 0f 10 05 00
	00 00 00	 movss	 xmm0, DWORD PTR __real@3f800000
  007d6	f3 0f 5e 45 30	 divss	 xmm0, DWORD PTR _fHeight$[ebp]
  007db	f3 0f 11 85 10
	9f ff ff	 movss	 DWORD PTR _fOne_over_h$[ebp], xmm0

; 77   : 	for (DWORD dwi = 0; dwi < m_dwVertexCount; ++dwi)

  007e3	83 a5 c8 9f ff
	ff 00		 and	 DWORD PTR _dwi$12[ebp], 0
  007ea	eb 0d		 jmp	 SHORT $LN4@Make
$LN2@Make:
  007ec	8b 85 c8 9f ff
	ff		 mov	 eax, DWORD PTR _dwi$12[ebp]
  007f2	40		 inc	 eax
  007f3	89 85 c8 9f ff
	ff		 mov	 DWORD PTR _dwi$12[ebp], eax
$LN4@Make:
  007f9	8b 85 d4 9f ff
	ff		 mov	 eax, DWORD PTR _this$[ebp]
  007ff	8b 8d c8 9f ff
	ff		 mov	 ecx, DWORD PTR _dwi$12[ebp]
  00805	3b 48 7c	 cmp	 ecx, DWORD PTR [eax+124]
  00808	0f 83 a2 01 00
	00		 jae	 $LN3@Make

; 78   : 	{
; 79   : 		D3DXVECTOR3 v3 = m_Vertices[dwi].position - m_v3Center;

  0080e	8b 85 d4 9f ff
	ff		 mov	 eax, DWORD PTR _this$[ebp]
  00814	83 c0 04	 add	 eax, 4
  00817	89 85 a4 9f ff
	ff		 mov	 DWORD PTR _v$[ebp], eax
  0081d	6b 85 c8 9f ff
	ff 18		 imul	 eax, DWORD PTR _dwi$12[ebp], 24
  00824	8b 8d d4 9f ff
	ff		 mov	 ecx, DWORD PTR _this$[ebp]
  0082a	8d 84 01 90 00
	00 00		 lea	 eax, DWORD PTR [ecx+eax+144]
  00831	89 85 a8 9f ff
	ff		 mov	 DWORD PTR _this$[ebp], eax
; File D:\Metin2 Server Files\mainline\SRC_2014\M2Data\include\d3dx8math.inl

; 263  :     return D3DXVECTOR3(x - v.x, y - v.y, z - v.z);

  00837	8b 85 a8 9f ff
	ff		 mov	 eax, DWORD PTR _this$[ebp]
  0083d	8b 8d a4 9f ff
	ff		 mov	 ecx, DWORD PTR _v$[ebp]
  00843	f3 0f 10 00	 movss	 xmm0, DWORD PTR [eax]
  00847	f3 0f 5c 01	 subss	 xmm0, DWORD PTR [ecx]
  0084b	f3 0f 11 85 40
	9f ff ff	 movss	 DWORD PTR _fx$[ebp], xmm0
  00853	8b 85 a8 9f ff
	ff		 mov	 eax, DWORD PTR _this$[ebp]
  00859	8b 8d a4 9f ff
	ff		 mov	 ecx, DWORD PTR _v$[ebp]
  0085f	f3 0f 10 40 04	 movss	 xmm0, DWORD PTR [eax+4]
  00864	f3 0f 5c 41 04	 subss	 xmm0, DWORD PTR [ecx+4]
  00869	f3 0f 11 85 3c
	9f ff ff	 movss	 DWORD PTR _fy$[ebp], xmm0
  00871	8b 85 a8 9f ff
	ff		 mov	 eax, DWORD PTR _this$[ebp]
  00877	8b 8d a4 9f ff
	ff		 mov	 ecx, DWORD PTR _v$[ebp]
  0087d	f3 0f 10 40 08	 movss	 xmm0, DWORD PTR [eax+8]
  00882	f3 0f 5c 41 08	 subss	 xmm0, DWORD PTR [ecx+8]
  00887	f3 0f 11 85 38
	9f ff ff	 movss	 DWORD PTR _fz$[ebp], xmm0

; 180  :     x = fx;

  0088f	f3 0f 10 85 40
	9f ff ff	 movss	 xmm0, DWORD PTR _fx$[ebp]
  00897	f3 0f 11 85 f0
	9f ff ff	 movss	 DWORD PTR _v3$14[ebp], xmm0

; 181  :     y = fy;

  0089f	f3 0f 10 85 3c
	9f ff ff	 movss	 xmm0, DWORD PTR _fy$[ebp]
  008a7	f3 0f 11 85 f4
	9f ff ff	 movss	 DWORD PTR _v3$14[ebp+4], xmm0

; 182  :     z = fz;

  008af	f3 0f 10 85 38
	9f ff ff	 movss	 xmm0, DWORD PTR _fz$[ebp]
  008b7	f3 0f 11 85 f8
	9f ff ff	 movss	 DWORD PTR _v3$14[ebp+8], xmm0

; 1264 :     return pV1->x * pV2->x + pV1->y * pV2->y + pV1->z * pV2->z;

  008bf	f3 0f 10 85 f8
	9f ff ff	 movss	 xmm0, DWORD PTR _v3$14[ebp+8]
  008c7	f3 0f 59 85 e0
	9f ff ff	 mulss	 xmm0, DWORD PTR _v3Binormal$[ebp+8]
  008cf	f3 0f 10 8d f4
	9f ff ff	 movss	 xmm1, DWORD PTR _v3$14[ebp+4]
  008d7	f3 0f 59 8d dc
	9f ff ff	 mulss	 xmm1, DWORD PTR _v3Binormal$[ebp+4]
  008df	f3 0f 10 95 f0
	9f ff ff	 movss	 xmm2, DWORD PTR _v3$14[ebp]
  008e7	f3 0f 59 95 d8
	9f ff ff	 mulss	 xmm2, DWORD PTR _v3Binormal$[ebp]
  008ef	f3 0f 58 d1	 addss	 xmm2, xmm1
  008f3	f3 0f 58 d0	 addss	 xmm2, xmm0
; File D:\Metin2 Server Files\mainline\SRC_2014\Metin2Client\GameLib\TerrainDecal.cpp

; 80   : 		float fu = -D3DXVec3Dot(&v3, &v3Binormal) * fOne_over_w + 0.5f;

  008f7	0f 57 15 00 00
	00 00		 xorps	 xmm2, DWORD PTR __xmm@80000000800000008000000080000000
  008fe	f3 0f 59 95 34
	9f ff ff	 mulss	 xmm2, DWORD PTR _fOne_over_w$[ebp]
  00906	f3 0f 58 15 00
	00 00 00	 addss	 xmm2, DWORD PTR __real@3f000000
  0090e	f3 0f 11 95 2c
	9f ff ff	 movss	 DWORD PTR _fu$9[ebp], xmm2
; File D:\Metin2 Server Files\mainline\SRC_2014\M2Data\include\d3dx8math.inl

; 1264 :     return pV1->x * pV2->x + pV1->y * pV2->y + pV1->z * pV2->z;

  00916	f3 0f 10 85 f8
	9f ff ff	 movss	 xmm0, DWORD PTR _v3$14[ebp+8]
  0091e	f3 0f 59 45 28	 mulss	 xmm0, DWORD PTR _v3Tangent$[ebp+8]
  00923	f3 0f 10 8d f4
	9f ff ff	 movss	 xmm1, DWORD PTR _v3$14[ebp+4]
  0092b	f3 0f 59 4d 24	 mulss	 xmm1, DWORD PTR _v3Tangent$[ebp+4]
  00930	f3 0f 10 95 f0
	9f ff ff	 movss	 xmm2, DWORD PTR _v3$14[ebp]
  00938	f3 0f 59 55 20	 mulss	 xmm2, DWORD PTR _v3Tangent$[ebp]
  0093d	f3 0f 58 d1	 addss	 xmm2, xmm1
  00941	f3 0f 58 d0	 addss	 xmm2, xmm0
; File D:\Metin2 Server Files\mainline\SRC_2014\Metin2Client\GameLib\TerrainDecal.cpp

; 81   : 		float fv = -D3DXVec3Dot(&v3, &v3Tangent) * fOne_over_h + 0.5f;

  00945	0f 57 15 00 00
	00 00		 xorps	 xmm2, DWORD PTR __xmm@80000000800000008000000080000000
  0094c	f3 0f 59 95 10
	9f ff ff	 mulss	 xmm2, DWORD PTR _fOne_over_h$[ebp]
  00954	f3 0f 58 15 00
	00 00 00	 addss	 xmm2, DWORD PTR __real@3f000000
  0095c	f3 0f 11 95 28
	9f ff ff	 movss	 DWORD PTR _fv$8[ebp], xmm2
; File D:\Metin2 Server Files\mainline\SRC_2014\M2Data\include\d3dx8math.inl

; 41   :     x = fx;

  00964	f3 0f 10 85 2c
	9f ff ff	 movss	 xmm0, DWORD PTR _fu$9[ebp]
  0096c	f3 0f 11 85 20
	9f ff ff	 movss	 DWORD PTR $T7[ebp], xmm0

; 42   :     y = fy;

  00974	f3 0f 10 85 28
	9f ff ff	 movss	 xmm0, DWORD PTR _fv$8[ebp]
  0097c	f3 0f 11 85 24
	9f ff ff	 movss	 DWORD PTR $T7[ebp+4], xmm0
; File D:\Metin2 Server Files\mainline\SRC_2014\Metin2Client\GameLib\TerrainDecal.cpp

; 82   : 		m_Vertices[dwi].texCoord = D3DXVECTOR2(fu, fv);

  00984	8b 85 20 9f ff
	ff		 mov	 eax, DWORD PTR $T7[ebp]
  0098a	8b 8d 24 9f ff
	ff		 mov	 ecx, DWORD PTR $T7[ebp+4]
  00990	6b 95 c8 9f ff
	ff 18		 imul	 edx, DWORD PTR _dwi$12[ebp], 24
  00997	8b b5 d4 9f ff
	ff		 mov	 esi, DWORD PTR _this$[ebp]
  0099d	89 84 16 a0 00
	00 00		 mov	 DWORD PTR [esi+edx+160], eax
  009a4	89 8c 16 a4 00
	00 00		 mov	 DWORD PTR [esi+edx+164], ecx

; 83   : 	}

  009ab	e9 3c fe ff ff	 jmp	 $LN2@Make
$LN3@Make:

; 84   : }

  009b0	5f		 pop	 edi
  009b1	5e		 pop	 esi
  009b2	8b 4d fc	 mov	 ecx, DWORD PTR __$ArrayPad$[ebp]
  009b5	33 cd		 xor	 ecx, ebp
  009b7	e8 00 00 00 00	 call	 @__security_check_cookie@4
  009bc	c9		 leave
  009bd	c2 30 00	 ret	 48			; 00000030H
?Make@CTerrainDecal@@UAEXUD3DXVECTOR3@@00MMM@Z ENDP	; CTerrainDecal::Make
_TEXT	ENDS
; Function compile flags: /Odspy
; File D:\Metin2 Server Files\mainline\SRC_2014\Metin2Client\GameLib\TerrainDecal.cpp
;	COMDAT ??1CTerrainDecal@@UAE@XZ
_TEXT	SEGMENT
_this$ = -16						; size = 4
__$EHRec$ = -12						; size = 12
??1CTerrainDecal@@UAE@XZ PROC				; CTerrainDecal::~CTerrainDecal, COMDAT
; _this$ = ecx

; 23   : {

  00000	55		 push	 ebp
  00001	8b ec		 mov	 ebp, esp
  00003	6a ff		 push	 -1
  00005	68 00 00 00 00	 push	 __ehhandler$??1CTerrainDecal@@UAE@XZ
  0000a	64 a1 00 00 00
	00		 mov	 eax, DWORD PTR fs:0
  00010	50		 push	 eax
  00011	51		 push	 ecx
  00012	a1 00 00 00 00	 mov	 eax, DWORD PTR ___security_cookie
  00017	33 c5		 xor	 eax, ebp
  00019	50		 push	 eax
  0001a	8d 45 f4	 lea	 eax, DWORD PTR __$EHRec$[ebp]
  0001d	64 a3 00 00 00
	00		 mov	 DWORD PTR fs:0, eax
  00023	89 4d f0	 mov	 DWORD PTR _this$[ebp], ecx
  00026	8b 45 f0	 mov	 eax, DWORD PTR _this$[ebp]
  00029	c7 00 00 00 00
	00		 mov	 DWORD PTR [eax], OFFSET ??_7CTerrainDecal@@6B@

; 24   : 	CDecal::Clear();

  0002f	8b 4d f0	 mov	 ecx, DWORD PTR _this$[ebp]
  00032	e8 00 00 00 00	 call	 ?Clear@CDecal@@QAEXXZ	; CDecal::Clear

; 25   : }

  00037	8b 4d f0	 mov	 ecx, DWORD PTR _this$[ebp]
  0003a	e8 00 00 00 00	 call	 ??1CDecal@@UAE@XZ	; CDecal::~CDecal
  0003f	8b 4d f4	 mov	 ecx, DWORD PTR __$EHRec$[ebp]
  00042	64 89 0d 00 00
	00 00		 mov	 DWORD PTR fs:0, ecx
  00049	59		 pop	 ecx
  0004a	c9		 leave
  0004b	c3		 ret	 0
  0004c	cc		 int	 3
  0004d	cc		 int	 3
  0004e	cc		 int	 3
  0004f	cc		 int	 3
  00050	cc		 int	 3
_TEXT	ENDS
;	COMDAT text$x
text$x	SEGMENT
__ehhandler$??1CTerrainDecal@@UAE@XZ:
  00000	90		 npad	 1
  00001	90		 npad	 1
  00002	8b 54 24 08	 mov	 edx, DWORD PTR [esp+8]
  00006	8d 42 0c	 lea	 eax, DWORD PTR [edx+12]
  00009	8b 4a f8	 mov	 ecx, DWORD PTR [edx-8]
  0000c	33 c8		 xor	 ecx, eax
  0000e	e8 00 00 00 00	 call	 @__security_check_cookie@4
  00013	b8 00 00 00 00	 mov	 eax, OFFSET __ehfuncinfo$??1CTerrainDecal@@UAE@XZ
  00018	e9 00 00 00 00	 jmp	 ___CxxFrameHandler3
text$x	ENDS
??1CTerrainDecal@@UAE@XZ ENDP				; CTerrainDecal::~CTerrainDecal
; Function compile flags: /Odspy
; File D:\Metin2 Server Files\mainline\SRC_2014\Metin2Client\GameLib\TerrainDecal.cpp
;	COMDAT ??0CTerrainDecal@@QAE@PAVCMapOutdoor@@@Z
_TEXT	SEGMENT
_this$ = -4						; size = 4
_pMapOutdoor$ = 8					; size = 4
??0CTerrainDecal@@QAE@PAVCMapOutdoor@@@Z PROC		; CTerrainDecal::CTerrainDecal, COMDAT
; _this$ = ecx

; 18   : {

  00000	55		 push	 ebp
  00001	8b ec		 mov	 ebp, esp
  00003	51		 push	 ecx
  00004	89 4d fc	 mov	 DWORD PTR _this$[ebp], ecx
  00007	8b 4d fc	 mov	 ecx, DWORD PTR _this$[ebp]
  0000a	e8 00 00 00 00	 call	 ??0CDecal@@QAE@XZ	; CDecal::CDecal
  0000f	8b 45 fc	 mov	 eax, DWORD PTR _this$[ebp]
  00012	c7 00 00 00 00
	00		 mov	 DWORD PTR [eax], OFFSET ??_7CTerrainDecal@@6B@

; 17   : CTerrainDecal::CTerrainDecal(CMapOutdoor * pMapOutdoor):m_pMapOutdoor(pMapOutdoor)

  00018	8b 45 fc	 mov	 eax, DWORD PTR _this$[ebp]
  0001b	8b 4d 08	 mov	 ecx, DWORD PTR _pMapOutdoor$[ebp]
  0001e	89 88 94 1a 00
	00		 mov	 DWORD PTR [eax+6804], ecx

; 19   : 
; 20   : }

  00024	8b 45 fc	 mov	 eax, DWORD PTR _this$[ebp]
  00027	c9		 leave
  00028	c2 04 00	 ret	 4
??0CTerrainDecal@@QAE@PAVCMapOutdoor@@@Z ENDP		; CTerrainDecal::CTerrainDecal
_TEXT	ENDS
; Function compile flags: /Odspy
;	COMDAT ??_H@YGXPAXIIP6EPAX0@Z@Z
_TEXT	SEGMENT
tv66 = -4						; size = 4
___t$ = 8						; size = 4
___s$ = 12						; size = 4
___n$ = 16						; size = 4
___f$ = 20						; size = 4
??_H@YGXPAXIIP6EPAX0@Z@Z PROC				; `vector constructor iterator', COMDAT
  00000	55		 push	 ebp
  00001	8b ec		 mov	 ebp, esp
  00003	51		 push	 ecx
$LN2@vector:
  00004	8b 45 10	 mov	 eax, DWORD PTR ___n$[ebp]
  00007	89 45 fc	 mov	 DWORD PTR tv66[ebp], eax
  0000a	8b 45 10	 mov	 eax, DWORD PTR ___n$[ebp]
  0000d	48		 dec	 eax
  0000e	89 45 10	 mov	 DWORD PTR ___n$[ebp], eax
  00011	83 7d fc 00	 cmp	 DWORD PTR tv66[ebp], 0
  00015	76 11		 jbe	 SHORT $LN1@vector
  00017	8b 4d 08	 mov	 ecx, DWORD PTR ___t$[ebp]
  0001a	ff 55 14	 call	 DWORD PTR ___f$[ebp]
  0001d	8b 45 08	 mov	 eax, DWORD PTR ___t$[ebp]
  00020	03 45 0c	 add	 eax, DWORD PTR ___s$[ebp]
  00023	89 45 08	 mov	 DWORD PTR ___t$[ebp], eax
  00026	eb dc		 jmp	 SHORT $LN2@vector
$LN1@vector:
  00028	c9		 leave
  00029	c2 10 00	 ret	 16			; 00000010H
??_H@YGXPAXIIP6EPAX0@Z@Z ENDP				; `vector constructor iterator'
_TEXT	ENDS
END
