; Listing generated by Microsoft (R) Optimizing Compiler Version 19.28.29335.0 

	TITLE	D:\Metin2 Server Files\mainline\SRC_2014\Metin2Client\GameLib\TerrainQuadtree.cpp
	.686P
	.XMM
	include listing.inc
	.model	flat

INCLUDELIB LIBCMT
INCLUDELIB OLDNAMES

PUBLIC	??0CTerrainQuadtreeNode@@QAE@XZ			; CTerrainQuadtreeNode::CTerrainQuadtreeNode
PUBLIC	??1CTerrainQuadtreeNode@@UAE@XZ			; CTerrainQuadtreeNode::~CTerrainQuadtreeNode
PUBLIC	??_GCTerrainQuadtreeNode@@UAEPAXI@Z		; CTerrainQuadtreeNode::`scalar deleting destructor'
PUBLIC	??_7CTerrainQuadtreeNode@@6B@			; CTerrainQuadtreeNode::`vftable'
PUBLIC	??_R4CTerrainQuadtreeNode@@6B@			; CTerrainQuadtreeNode::`RTTI Complete Object Locator'
PUBLIC	??_R0?AVCTerrainQuadtreeNode@@@8		; CTerrainQuadtreeNode `RTTI Type Descriptor'
PUBLIC	??_R3CTerrainQuadtreeNode@@8			; CTerrainQuadtreeNode::`RTTI Class Hierarchy Descriptor'
PUBLIC	??_R2CTerrainQuadtreeNode@@8			; CTerrainQuadtreeNode::`RTTI Base Class Array'
PUBLIC	??_R1A@?0A@EA@CTerrainQuadtreeNode@@8		; CTerrainQuadtreeNode::`RTTI Base Class Descriptor at (0,-1,0,64)'
PUBLIC	__real@bf800000
EXTRN	??3@YAXPAXI@Z:PROC				; operator delete
EXTRN	??_ECTerrainQuadtreeNode@@UAEPAXI@Z:PROC	; CTerrainQuadtreeNode::`vector deleting destructor'
EXTRN	??_7type_info@@6B@:QWORD			; type_info::`vftable'
EXTRN	__fltused:DWORD
;	COMDAT __real@bf800000
CONST	SEGMENT
__real@bf800000 DD 0bf800000r			; -1
CONST	ENDS
;	COMDAT ??_R1A@?0A@EA@CTerrainQuadtreeNode@@8
rdata$r	SEGMENT
??_R1A@?0A@EA@CTerrainQuadtreeNode@@8 DD FLAT:??_R0?AVCTerrainQuadtreeNode@@@8 ; CTerrainQuadtreeNode::`RTTI Base Class Descriptor at (0,-1,0,64)'
	DD	00H
	DD	00H
	DD	0ffffffffH
	DD	00H
	DD	040H
	DD	FLAT:??_R3CTerrainQuadtreeNode@@8
rdata$r	ENDS
;	COMDAT ??_R2CTerrainQuadtreeNode@@8
rdata$r	SEGMENT
??_R2CTerrainQuadtreeNode@@8 DD FLAT:??_R1A@?0A@EA@CTerrainQuadtreeNode@@8 ; CTerrainQuadtreeNode::`RTTI Base Class Array'
rdata$r	ENDS
;	COMDAT ??_R3CTerrainQuadtreeNode@@8
rdata$r	SEGMENT
??_R3CTerrainQuadtreeNode@@8 DD 00H			; CTerrainQuadtreeNode::`RTTI Class Hierarchy Descriptor'
	DD	00H
	DD	01H
	DD	FLAT:??_R2CTerrainQuadtreeNode@@8
rdata$r	ENDS
;	COMDAT ??_R0?AVCTerrainQuadtreeNode@@@8
data$rs	SEGMENT
??_R0?AVCTerrainQuadtreeNode@@@8 DD FLAT:??_7type_info@@6B@ ; CTerrainQuadtreeNode `RTTI Type Descriptor'
	DD	00H
	DB	'.?AVCTerrainQuadtreeNode@@', 00H
data$rs	ENDS
;	COMDAT ??_R4CTerrainQuadtreeNode@@6B@
rdata$r	SEGMENT
??_R4CTerrainQuadtreeNode@@6B@ DD 00H			; CTerrainQuadtreeNode::`RTTI Complete Object Locator'
	DD	00H
	DD	00H
	DD	FLAT:??_R0?AVCTerrainQuadtreeNode@@@8
	DD	FLAT:??_R3CTerrainQuadtreeNode@@8
rdata$r	ENDS
;	COMDAT ??_7CTerrainQuadtreeNode@@6B@
CONST	SEGMENT
??_7CTerrainQuadtreeNode@@6B@ DD FLAT:??_R4CTerrainQuadtreeNode@@6B@ ; CTerrainQuadtreeNode::`vftable'
	DD	FLAT:??_ECTerrainQuadtreeNode@@UAEPAXI@Z
CONST	ENDS
; Function compile flags: /Odspy
;	COMDAT ??_GCTerrainQuadtreeNode@@UAEPAXI@Z
_TEXT	SEGMENT
_this$ = -4						; size = 4
___flags$ = 8						; size = 4
??_GCTerrainQuadtreeNode@@UAEPAXI@Z PROC		; CTerrainQuadtreeNode::`scalar deleting destructor', COMDAT
; _this$ = ecx
  00000	55		 push	 ebp
  00001	8b ec		 mov	 ebp, esp
  00003	51		 push	 ecx
  00004	89 4d fc	 mov	 DWORD PTR _this$[ebp], ecx
  00007	8b 4d fc	 mov	 ecx, DWORD PTR _this$[ebp]
  0000a	e8 00 00 00 00	 call	 ??1CTerrainQuadtreeNode@@UAE@XZ ; CTerrainQuadtreeNode::~CTerrainQuadtreeNode
  0000f	8b 45 08	 mov	 eax, DWORD PTR ___flags$[ebp]
  00012	83 e0 01	 and	 eax, 1
  00015	74 0c		 je	 SHORT $LN2@scalar
  00017	6a 40		 push	 64			; 00000040H
  00019	ff 75 fc	 push	 DWORD PTR _this$[ebp]
  0001c	e8 00 00 00 00	 call	 ??3@YAXPAXI@Z		; operator delete
  00021	59		 pop	 ecx
  00022	59		 pop	 ecx
$LN2@scalar:
  00023	8b 45 fc	 mov	 eax, DWORD PTR _this$[ebp]
  00026	c9		 leave
  00027	c2 04 00	 ret	 4
??_GCTerrainQuadtreeNode@@UAEPAXI@Z ENDP		; CTerrainQuadtreeNode::`scalar deleting destructor'
_TEXT	ENDS
; Function compile flags: /Odspy
; File D:\Metin2 Server Files\mainline\SRC_2014\Metin2Client\GameLib\TerrainQuadtree.cpp
;	COMDAT ??1CTerrainQuadtreeNode@@UAE@XZ
_TEXT	SEGMENT
tv139 = -36						; size = 4
tv128 = -32						; size = 4
tv85 = -28						; size = 4
tv74 = -24						; size = 4
$T1 = -20						; size = 4
$T2 = -16						; size = 4
$T3 = -12						; size = 4
$T4 = -8						; size = 4
_this$ = -4						; size = 4
??1CTerrainQuadtreeNode@@UAE@XZ PROC			; CTerrainQuadtreeNode::~CTerrainQuadtreeNode, COMDAT
; _this$ = ecx

; 25   : {

  00000	55		 push	 ebp
  00001	8b ec		 mov	 ebp, esp
  00003	83 ec 24	 sub	 esp, 36			; 00000024H
  00006	89 4d fc	 mov	 DWORD PTR _this$[ebp], ecx
  00009	8b 45 fc	 mov	 eax, DWORD PTR _this$[ebp]
  0000c	c7 00 00 00 00
	00		 mov	 DWORD PTR [eax], OFFSET ??_7CTerrainQuadtreeNode@@6B@

; 26   : 	if (NW_Node)

  00012	8b 45 fc	 mov	 eax, DWORD PTR _this$[ebp]
  00015	83 78 14 00	 cmp	 DWORD PTR [eax+20], 0
  00019	74 2b		 je	 SHORT $LN2@CTerrainQu

; 27   : 	{
; 28   : 		delete NW_Node;

  0001b	8b 45 fc	 mov	 eax, DWORD PTR _this$[ebp]
  0001e	8b 40 14	 mov	 eax, DWORD PTR [eax+20]
  00021	89 45 f8	 mov	 DWORD PTR $T4[ebp], eax
  00024	83 7d f8 00	 cmp	 DWORD PTR $T4[ebp], 0
  00028	74 11		 je	 SHORT $LN7@CTerrainQu
  0002a	6a 01		 push	 1
  0002c	8b 45 f8	 mov	 eax, DWORD PTR $T4[ebp]
  0002f	8b 00		 mov	 eax, DWORD PTR [eax]
  00031	8b 4d f8	 mov	 ecx, DWORD PTR $T4[ebp]
  00034	ff 10		 call	 DWORD PTR [eax]
  00036	89 45 e8	 mov	 DWORD PTR tv74[ebp], eax
  00039	eb 04		 jmp	 SHORT $LN8@CTerrainQu
$LN7@CTerrainQu:
  0003b	83 65 e8 00	 and	 DWORD PTR tv74[ebp], 0
$LN8@CTerrainQu:

; 29   : 		NW_Node = NULL;

  0003f	8b 45 fc	 mov	 eax, DWORD PTR _this$[ebp]
  00042	83 60 14 00	 and	 DWORD PTR [eax+20], 0
$LN2@CTerrainQu:

; 30   : 	}
; 31   : 	if (NE_Node)

  00046	8b 45 fc	 mov	 eax, DWORD PTR _this$[ebp]
  00049	83 78 18 00	 cmp	 DWORD PTR [eax+24], 0
  0004d	74 2b		 je	 SHORT $LN3@CTerrainQu

; 32   : 	{
; 33   : 		delete NE_Node;

  0004f	8b 45 fc	 mov	 eax, DWORD PTR _this$[ebp]
  00052	8b 40 18	 mov	 eax, DWORD PTR [eax+24]
  00055	89 45 f4	 mov	 DWORD PTR $T3[ebp], eax
  00058	83 7d f4 00	 cmp	 DWORD PTR $T3[ebp], 0
  0005c	74 11		 je	 SHORT $LN9@CTerrainQu
  0005e	6a 01		 push	 1
  00060	8b 45 f4	 mov	 eax, DWORD PTR $T3[ebp]
  00063	8b 00		 mov	 eax, DWORD PTR [eax]
  00065	8b 4d f4	 mov	 ecx, DWORD PTR $T3[ebp]
  00068	ff 10		 call	 DWORD PTR [eax]
  0006a	89 45 e4	 mov	 DWORD PTR tv85[ebp], eax
  0006d	eb 04		 jmp	 SHORT $LN10@CTerrainQu
$LN9@CTerrainQu:
  0006f	83 65 e4 00	 and	 DWORD PTR tv85[ebp], 0
$LN10@CTerrainQu:

; 34   : 		NE_Node = NULL;

  00073	8b 45 fc	 mov	 eax, DWORD PTR _this$[ebp]
  00076	83 60 18 00	 and	 DWORD PTR [eax+24], 0
$LN3@CTerrainQu:

; 35   : 	}
; 36   : 	if (SW_Node)

  0007a	8b 45 fc	 mov	 eax, DWORD PTR _this$[ebp]
  0007d	83 78 1c 00	 cmp	 DWORD PTR [eax+28], 0
  00081	74 2b		 je	 SHORT $LN4@CTerrainQu

; 37   : 	{
; 38   : 		delete SW_Node;

  00083	8b 45 fc	 mov	 eax, DWORD PTR _this$[ebp]
  00086	8b 40 1c	 mov	 eax, DWORD PTR [eax+28]
  00089	89 45 f0	 mov	 DWORD PTR $T2[ebp], eax
  0008c	83 7d f0 00	 cmp	 DWORD PTR $T2[ebp], 0
  00090	74 11		 je	 SHORT $LN11@CTerrainQu
  00092	6a 01		 push	 1
  00094	8b 45 f0	 mov	 eax, DWORD PTR $T2[ebp]
  00097	8b 00		 mov	 eax, DWORD PTR [eax]
  00099	8b 4d f0	 mov	 ecx, DWORD PTR $T2[ebp]
  0009c	ff 10		 call	 DWORD PTR [eax]
  0009e	89 45 e0	 mov	 DWORD PTR tv128[ebp], eax
  000a1	eb 04		 jmp	 SHORT $LN12@CTerrainQu
$LN11@CTerrainQu:
  000a3	83 65 e0 00	 and	 DWORD PTR tv128[ebp], 0
$LN12@CTerrainQu:

; 39   : 		SW_Node = NULL;

  000a7	8b 45 fc	 mov	 eax, DWORD PTR _this$[ebp]
  000aa	83 60 1c 00	 and	 DWORD PTR [eax+28], 0
$LN4@CTerrainQu:

; 40   : 	}
; 41   : 	if (SE_Node)

  000ae	8b 45 fc	 mov	 eax, DWORD PTR _this$[ebp]
  000b1	83 78 20 00	 cmp	 DWORD PTR [eax+32], 0
  000b5	74 2b		 je	 SHORT $LN6@CTerrainQu

; 42   : 	{
; 43   : 		delete SE_Node;

  000b7	8b 45 fc	 mov	 eax, DWORD PTR _this$[ebp]
  000ba	8b 40 20	 mov	 eax, DWORD PTR [eax+32]
  000bd	89 45 ec	 mov	 DWORD PTR $T1[ebp], eax
  000c0	83 7d ec 00	 cmp	 DWORD PTR $T1[ebp], 0
  000c4	74 11		 je	 SHORT $LN13@CTerrainQu
  000c6	6a 01		 push	 1
  000c8	8b 45 ec	 mov	 eax, DWORD PTR $T1[ebp]
  000cb	8b 00		 mov	 eax, DWORD PTR [eax]
  000cd	8b 4d ec	 mov	 ecx, DWORD PTR $T1[ebp]
  000d0	ff 10		 call	 DWORD PTR [eax]
  000d2	89 45 dc	 mov	 DWORD PTR tv139[ebp], eax
  000d5	eb 04		 jmp	 SHORT $LN14@CTerrainQu
$LN13@CTerrainQu:
  000d7	83 65 dc 00	 and	 DWORD PTR tv139[ebp], 0
$LN14@CTerrainQu:

; 44   : 		SE_Node = NULL;

  000db	8b 45 fc	 mov	 eax, DWORD PTR _this$[ebp]
  000de	83 60 20 00	 and	 DWORD PTR [eax+32], 0
$LN6@CTerrainQu:

; 45   : 	}
; 46   : }

  000e2	c9		 leave
  000e3	c3		 ret	 0
??1CTerrainQuadtreeNode@@UAE@XZ ENDP			; CTerrainQuadtreeNode::~CTerrainQuadtreeNode
_TEXT	ENDS
; Function compile flags: /Odspy
; File D:\Metin2 Server Files\mainline\SRC_2014\Metin2Client\GameLib\TerrainQuadtree.cpp
; File D:\Metin2 Server Files\mainline\SRC_2014\M2Data\include\d3dx8math.inl
; File D:\Metin2 Server Files\mainline\SRC_2014\Metin2Client\GameLib\TerrainQuadtree.cpp
;	COMDAT ??0CTerrainQuadtreeNode@@QAE@XZ
_TEXT	SEGMENT
_this$ = -8						; size = 4
_this$ = -4						; size = 4
??0CTerrainQuadtreeNode@@QAE@XZ PROC			; CTerrainQuadtreeNode::CTerrainQuadtreeNode, COMDAT
; _this$ = ecx

; 16   : {

  00000	55		 push	 ebp
  00001	8b ec		 mov	 ebp, esp
  00003	51		 push	 ecx
  00004	51		 push	 ecx
  00005	89 4d fc	 mov	 DWORD PTR _this$[ebp], ecx
  00008	8b 45 fc	 mov	 eax, DWORD PTR _this$[ebp]
  0000b	c7 00 00 00 00
	00		 mov	 DWORD PTR [eax], OFFSET ??_7CTerrainQuadtreeNode@@6B@

; 15   : CTerrainQuadtreeNode::CTerrainQuadtreeNode():NW_Node(NULL), NE_Node(NULL), SW_Node(NULL), SE_Node(NULL), center(-1.0f, -1.0f, -1.0f)

  00011	8b 45 fc	 mov	 eax, DWORD PTR _this$[ebp]
  00014	83 60 14 00	 and	 DWORD PTR [eax+20], 0
  00018	8b 45 fc	 mov	 eax, DWORD PTR _this$[ebp]
  0001b	83 60 18 00	 and	 DWORD PTR [eax+24], 0
  0001f	8b 45 fc	 mov	 eax, DWORD PTR _this$[ebp]
  00022	83 60 1c 00	 and	 DWORD PTR [eax+28], 0
  00026	8b 45 fc	 mov	 eax, DWORD PTR _this$[ebp]
  00029	83 60 20 00	 and	 DWORD PTR [eax+32], 0
  0002d	8b 45 fc	 mov	 eax, DWORD PTR _this$[ebp]
  00030	83 c0 2c	 add	 eax, 44			; 0000002cH
  00033	89 45 f8	 mov	 DWORD PTR _this$[ebp], eax
; File D:\Metin2 Server Files\mainline\SRC_2014\M2Data\include\d3dx8math.inl

; 180  :     x = fx;

  00036	8b 45 f8	 mov	 eax, DWORD PTR _this$[ebp]
  00039	f3 0f 10 05 00
	00 00 00	 movss	 xmm0, DWORD PTR __real@bf800000
  00041	f3 0f 11 00	 movss	 DWORD PTR [eax], xmm0

; 181  :     y = fy;

  00045	8b 45 f8	 mov	 eax, DWORD PTR _this$[ebp]
  00048	f3 0f 10 05 00
	00 00 00	 movss	 xmm0, DWORD PTR __real@bf800000
  00050	f3 0f 11 40 04	 movss	 DWORD PTR [eax+4], xmm0

; 182  :     z = fz;

  00055	8b 45 f8	 mov	 eax, DWORD PTR _this$[ebp]
  00058	f3 0f 10 05 00
	00 00 00	 movss	 xmm0, DWORD PTR __real@bf800000
  00060	f3 0f 11 40 08	 movss	 DWORD PTR [eax+8], xmm0
; File D:\Metin2 Server Files\mainline\SRC_2014\Metin2Client\GameLib\TerrainQuadtree.cpp

; 17   : 	x0 = y0 = x1 = y1 = 0;

  00065	8b 45 fc	 mov	 eax, DWORD PTR _this$[ebp]
  00068	83 60 10 00	 and	 DWORD PTR [eax+16], 0
  0006c	8b 45 fc	 mov	 eax, DWORD PTR _this$[ebp]
  0006f	83 60 0c 00	 and	 DWORD PTR [eax+12], 0
  00073	8b 45 fc	 mov	 eax, DWORD PTR _this$[ebp]
  00076	83 60 08 00	 and	 DWORD PTR [eax+8], 0
  0007a	8b 45 fc	 mov	 eax, DWORD PTR _this$[ebp]
  0007d	83 60 04 00	 and	 DWORD PTR [eax+4], 0

; 18   : 	Size = 0;

  00081	8b 45 fc	 mov	 eax, DWORD PTR _this$[ebp]
  00084	83 60 24 00	 and	 DWORD PTR [eax+36], 0

; 19   : 	PatchNum = 0;

  00088	8b 45 fc	 mov	 eax, DWORD PTR _this$[ebp]
  0008b	83 60 28 00	 and	 DWORD PTR [eax+40], 0

; 20   : 	radius = 0.0f;

  0008f	8b 45 fc	 mov	 eax, DWORD PTR _this$[ebp]
  00092	0f 57 c0	 xorps	 xmm0, xmm0
  00095	f3 0f 11 40 38	 movss	 DWORD PTR [eax+56], xmm0

; 21   : 	m_byLODLevel = 0;

  0009a	8b 45 fc	 mov	 eax, DWORD PTR _this$[ebp]
  0009d	c6 40 3c 00	 mov	 BYTE PTR [eax+60], 0

; 22   : }

  000a1	8b 45 fc	 mov	 eax, DWORD PTR _this$[ebp]
  000a4	c9		 leave
  000a5	c3		 ret	 0
??0CTerrainQuadtreeNode@@QAE@XZ ENDP			; CTerrainQuadtreeNode::CTerrainQuadtreeNode
_TEXT	ENDS
END
