; Listing generated by Microsoft (R) Optimizing Compiler Version 19.28.29335.0 

	TITLE	D:\Metin2 Server Files\mainline\SRC_2014\Metin2Client\GameLib\WeaponTrace.cpp
	.686P
	.XMM
	include listing.inc
	.model	flat

INCLUDELIB LIBCMT
INCLUDELIB OLDNAMES

PUBLIC	??_H@YGXPAXIIP6EPAX0@Z@Z			; `vector constructor iterator'
PUBLIC	??0exception@std@@QAE@ABV01@@Z			; std::exception::exception
PUBLIC	?what@exception@std@@UBEPBDXZ			; std::exception::what
PUBLIC	??_Gexception@std@@UAEPAXI@Z			; std::exception::`scalar deleting destructor'
PUBLIC	??0bad_alloc@std@@QAE@ABV01@@Z			; std::bad_alloc::bad_alloc
PUBLIC	??_Gbad_alloc@std@@UAEPAXI@Z			; std::bad_alloc::`scalar deleting destructor'
PUBLIC	??0bad_array_new_length@std@@QAE@XZ		; std::bad_array_new_length::bad_array_new_length
PUBLIC	??1bad_array_new_length@std@@UAE@XZ		; std::bad_array_new_length::~bad_array_new_length
PUBLIC	??0bad_array_new_length@std@@QAE@ABV01@@Z	; std::bad_array_new_length::bad_array_new_length
PUBLIC	??_Gbad_array_new_length@std@@UAEPAXI@Z		; std::bad_array_new_length::`scalar deleting destructor'
PUBLIC	?_Throw_bad_array_new_length@std@@YAXXZ		; std::_Throw_bad_array_new_length
PUBLIC	?_Adjust_manually_vector_aligned@std@@YAXAAPAXAAI@Z ; std::_Adjust_manually_vector_aligned
PUBLIC	??0_Iterator_base12@std@@QAE@ABU01@@Z		; std::_Iterator_base12::_Iterator_base12
PUBLIC	??4_Iterator_base12@std@@QAEAAU01@ABU01@@Z	; std::_Iterator_base12::operator=
PUBLIC	??$_Deallocate@$07$0A@@std@@YAXPAXI@Z		; std::_Deallocate<8,0>
PUBLIC	??$_Allocate@$07U_Default_allocate_traits@std@@$0A@@std@@YAPAXI@Z ; std::_Allocate<8,std::_Default_allocate_traits,0>
PUBLIC	??$_Allocate_manually_vector_aligned@U_Default_allocate_traits@std@@@std@@YAPAXI@Z ; std::_Allocate_manually_vector_aligned<std::_Default_allocate_traits>
PUBLIC	?DestroySystem@CWeaponTrace@@SAXXZ		; CWeaponTrace::DestroySystem
PUBLIC	?Delete@CWeaponTrace@@SAXPAV1@@Z		; CWeaponTrace::Delete
PUBLIC	?New@CWeaponTrace@@SAPAV1@XZ			; CWeaponTrace::New
PUBLIC	??0CWeaponTrace@@QAE@XZ				; CWeaponTrace::CWeaponTrace
PUBLIC	??1CWeaponTrace@@UAE@XZ				; CWeaponTrace::~CWeaponTrace
PUBLIC	?Clear@CWeaponTrace@@QAEXXZ			; CWeaponTrace::Clear
PUBLIC	?TurnOn@CWeaponTrace@@QAEXXZ			; CWeaponTrace::TurnOn
PUBLIC	?TurnOff@CWeaponTrace@@QAEXXZ			; CWeaponTrace::TurnOff
PUBLIC	?UseAlpha@CWeaponTrace@@QAEXXZ			; CWeaponTrace::UseAlpha
PUBLIC	?UseTexture@CWeaponTrace@@QAEXXZ		; CWeaponTrace::UseTexture
PUBLIC	?SetTexture@CWeaponTrace@@QAEXPBD@Z		; CWeaponTrace::SetTexture
PUBLIC	?SetWeaponInstance@CWeaponTrace@@QAE_NPAVCGraphicThingInstance@@KPBD@Z ; CWeaponTrace::SetWeaponInstance
PUBLIC	?SetPosition@CWeaponTrace@@QAEXMMM@Z		; CWeaponTrace::SetPosition
PUBLIC	?SetRotation@CWeaponTrace@@QAEXM@Z		; CWeaponTrace::SetRotation
PUBLIC	?SetLifeTime@CWeaponTrace@@QAEXM@Z		; CWeaponTrace::SetLifeTime
PUBLIC	?SetSamplingTime@CWeaponTrace@@QAEXM@Z		; CWeaponTrace::SetSamplingTime
PUBLIC	?Update@CWeaponTrace@@QAEXM@Z			; CWeaponTrace::Update
PUBLIC	?Render@CWeaponTrace@@QAEXXZ			; CWeaponTrace::Render
PUBLIC	?Initialize@CWeaponTrace@@QAEXXZ		; CWeaponTrace::Initialize
PUBLIC	?BuildVertex@CWeaponTrace@@IAE_NXZ		; CWeaponTrace::BuildVertex
PUBLIC	??0?$deque@U?$pair@MUD3DXVECTOR3@@@std@@V?$allocator@U?$pair@MUD3DXVECTOR3@@@std@@@2@@std@@QAE@XZ ; std::deque<std::pair<float,D3DXVECTOR3>,std::allocator<std::pair<float,D3DXVECTOR3> > >::deque<std::pair<float,D3DXVECTOR3>,std::allocator<std::pair<float,D3DXVECTOR3> > >
PUBLIC	?push_front@?$deque@U?$pair@MUD3DXVECTOR3@@@std@@V?$allocator@U?$pair@MUD3DXVECTOR3@@@std@@@2@@std@@QAEX$$QAU?$pair@MUD3DXVECTOR3@@@2@@Z ; std::deque<std::pair<float,D3DXVECTOR3>,std::allocator<std::pair<float,D3DXVECTOR3> > >::push_front
PUBLIC	??1?$deque@U?$pair@MUD3DXVECTOR3@@@std@@V?$allocator@U?$pair@MUD3DXVECTOR3@@@std@@@2@@std@@QAE@XZ ; std::deque<std::pair<float,D3DXVECTOR3>,std::allocator<std::pair<float,D3DXVECTOR3> > >::~deque<std::pair<float,D3DXVECTOR3>,std::allocator<std::pair<float,D3DXVECTOR3> > >
PUBLIC	?begin@?$deque@U?$pair@MUD3DXVECTOR3@@@std@@V?$allocator@U?$pair@MUD3DXVECTOR3@@@std@@@2@@std@@QAE?AV?$_Deque_iterator@V?$_Deque_val@U?$_Deque_simple_types@U?$pair@MUD3DXVECTOR3@@@std@@@std@@@std@@@2@XZ ; std::deque<std::pair<float,D3DXVECTOR3>,std::allocator<std::pair<float,D3DXVECTOR3> > >::begin
PUBLIC	?end@?$deque@U?$pair@MUD3DXVECTOR3@@@std@@V?$allocator@U?$pair@MUD3DXVECTOR3@@@std@@@2@@std@@QAE?AV?$_Deque_iterator@V?$_Deque_val@U?$_Deque_simple_types@U?$pair@MUD3DXVECTOR3@@@std@@@std@@@std@@@2@XZ ; std::deque<std::pair<float,D3DXVECTOR3>,std::allocator<std::pair<float,D3DXVECTOR3> > >::end
PUBLIC	?_Unchecked_end@?$deque@U?$pair@MUD3DXVECTOR3@@@std@@V?$allocator@U?$pair@MUD3DXVECTOR3@@@std@@@2@@std@@QAE?AV?$_Deque_unchecked_iterator@V?$_Deque_val@U?$_Deque_simple_types@U?$pair@MUD3DXVECTOR3@@@std@@@std@@@std@@@2@XZ ; std::deque<std::pair<float,D3DXVECTOR3>,std::allocator<std::pair<float,D3DXVECTOR3> > >::_Unchecked_end
PUBLIC	??A?$deque@U?$pair@MUD3DXVECTOR3@@@std@@V?$allocator@U?$pair@MUD3DXVECTOR3@@@std@@@2@@std@@QAEAAU?$pair@MUD3DXVECTOR3@@@1@I@Z ; std::deque<std::pair<float,D3DXVECTOR3>,std::allocator<std::pair<float,D3DXVECTOR3> > >::operator[]
PUBLIC	?back@?$deque@U?$pair@MUD3DXVECTOR3@@@std@@V?$allocator@U?$pair@MUD3DXVECTOR3@@@std@@@2@@std@@QAEAAU?$pair@MUD3DXVECTOR3@@@2@XZ ; std::deque<std::pair<float,D3DXVECTOR3>,std::allocator<std::pair<float,D3DXVECTOR3> > >::back
PUBLIC	?pop_front@?$deque@U?$pair@MUD3DXVECTOR3@@@std@@V?$allocator@U?$pair@MUD3DXVECTOR3@@@std@@@2@@std@@QAEXXZ ; std::deque<std::pair<float,D3DXVECTOR3>,std::allocator<std::pair<float,D3DXVECTOR3> > >::pop_front
PUBLIC	?pop_back@?$deque@U?$pair@MUD3DXVECTOR3@@@std@@V?$allocator@U?$pair@MUD3DXVECTOR3@@@std@@@2@@std@@QAEXXZ ; std::deque<std::pair<float,D3DXVECTOR3>,std::allocator<std::pair<float,D3DXVECTOR3> > >::pop_back
PUBLIC	?erase@?$deque@U?$pair@MUD3DXVECTOR3@@@std@@V?$allocator@U?$pair@MUD3DXVECTOR3@@@std@@@2@@std@@QAE?AV?$_Deque_iterator@V?$_Deque_val@U?$_Deque_simple_types@U?$pair@MUD3DXVECTOR3@@@std@@@std@@@std@@@2@V?$_Deque_const_iterator@V?$_Deque_val@U?$_Deque_simple_types@U?$pair@MUD3DXVECTOR3@@@std@@@std@@@std@@@2@0@Z ; std::deque<std::pair<float,D3DXVECTOR3>,std::allocator<std::pair<float,D3DXVECTOR3> > >::erase
PUBLIC	?_Xlen@?$deque@U?$pair@MUD3DXVECTOR3@@@std@@V?$allocator@U?$pair@MUD3DXVECTOR3@@@std@@@2@@std@@ABEXXZ ; std::deque<std::pair<float,D3DXVECTOR3>,std::allocator<std::pair<float,D3DXVECTOR3> > >::_Xlen
PUBLIC	?_Growmap@?$deque@U?$pair@MUD3DXVECTOR3@@@std@@V?$allocator@U?$pair@MUD3DXVECTOR3@@@std@@@2@@std@@AAEXI@Z ; std::deque<std::pair<float,D3DXVECTOR3>,std::allocator<std::pair<float,D3DXVECTOR3> > >::_Growmap
PUBLIC	?_Tidy@?$deque@U?$pair@MUD3DXVECTOR3@@@std@@V?$allocator@U?$pair@MUD3DXVECTOR3@@@std@@@2@@std@@AAEXXZ ; std::deque<std::pair<float,D3DXVECTOR3>,std::allocator<std::pair<float,D3DXVECTOR3> > >::_Tidy
PUBLIC	??0?$_Deque_val@U?$_Deque_simple_types@U?$pair@MUD3DXVECTOR3@@@std@@@std@@@std@@QAE@XZ ; std::_Deque_val<std::_Deque_simple_types<std::pair<float,D3DXVECTOR3> > >::_Deque_val<std::_Deque_simple_types<std::pair<float,D3DXVECTOR3> > >
PUBLIC	?deallocate@?$allocator@USPDTVertex@@@std@@QAEXQAUSPDTVertex@@I@Z ; std::allocator<SPDTVertex>::deallocate
PUBLIC	??1?$vector@USPDTVertex@@V?$allocator@USPDTVertex@@@std@@@std@@QAE@XZ ; std::vector<SPDTVertex,std::allocator<SPDTVertex> >::~vector<SPDTVertex,std::allocator<SPDTVertex> >
PUBLIC	?clear@?$vector@USPDTVertex@@V?$allocator@USPDTVertex@@@std@@@std@@QAEXXZ ; std::vector<SPDTVertex,std::allocator<SPDTVertex> >::clear
PUBLIC	?_Destroy@?$vector@USPDTVertex@@V?$allocator@USPDTVertex@@@std@@@std@@AAEXPAUSPDTVertex@@0@Z ; std::vector<SPDTVertex,std::allocator<SPDTVertex> >::_Destroy
PUBLIC	?_Calculate_growth@?$vector@USPDTVertex@@V?$allocator@USPDTVertex@@@std@@@std@@ABEII@Z ; std::vector<SPDTVertex,std::allocator<SPDTVertex> >::_Calculate_growth
PUBLIC	?_Change_array@?$vector@USPDTVertex@@V?$allocator@USPDTVertex@@@std@@@std@@AAEXQAUSPDTVertex@@II@Z ; std::vector<SPDTVertex,std::allocator<SPDTVertex> >::_Change_array
PUBLIC	?_Tidy@?$vector@USPDTVertex@@V?$allocator@USPDTVertex@@@std@@@std@@AAEXXZ ; std::vector<SPDTVertex,std::allocator<SPDTVertex> >::_Tidy
PUBLIC	?_Xlength@?$vector@USPDTVertex@@V?$allocator@USPDTVertex@@@std@@@std@@CAXXZ ; std::vector<SPDTVertex,std::allocator<SPDTVertex> >::_Xlength
PUBLIC	??0?$_Vector_val@U?$_Simple_types@USPDTVertex@@@std@@@std@@QAE@XZ ; std::_Vector_val<std::_Simple_types<SPDTVertex> >::_Vector_val<std::_Simple_types<SPDTVertex> >
PUBLIC	??_GCWeaponTrace@@UAEPAXI@Z			; CWeaponTrace::`scalar deleting destructor'
PUBLIC	??0?$CDynamicPool@VCWeaponTrace@@@@QAE@XZ	; CDynamicPool<CWeaponTrace>::CDynamicPool<CWeaponTrace>
PUBLIC	??1?$CDynamicPool@VCWeaponTrace@@@@UAE@XZ	; CDynamicPool<CWeaponTrace>::~CDynamicPool<CWeaponTrace>
PUBLIC	?Destroy@?$CDynamicPool@VCWeaponTrace@@@@QAEXXZ	; CDynamicPool<CWeaponTrace>::Destroy
PUBLIC	?Alloc@?$CDynamicPool@VCWeaponTrace@@@@QAEPAVCWeaponTrace@@XZ ; CDynamicPool<CWeaponTrace>::Alloc
PUBLIC	?Delete@?$CDynamicPool@VCWeaponTrace@@@@KAXPAVCWeaponTrace@@@Z ; CDynamicPool<CWeaponTrace>::Delete
PUBLIC	?deallocate@?$allocator@PAVCWeaponTrace@@@std@@QAEXQAPAVCWeaponTrace@@I@Z ; std::allocator<CWeaponTrace *>::deallocate
PUBLIC	?clear@?$vector@PAVCWeaponTrace@@V?$allocator@PAVCWeaponTrace@@@std@@@std@@QAEXXZ ; std::vector<CWeaponTrace *,std::allocator<CWeaponTrace *> >::clear
PUBLIC	?_Destroy@?$vector@PAVCWeaponTrace@@V?$allocator@PAVCWeaponTrace@@@std@@@std@@AAEXPAPAVCWeaponTrace@@0@Z ; std::vector<CWeaponTrace *,std::allocator<CWeaponTrace *> >::_Destroy
PUBLIC	?_Calculate_growth@?$vector@PAVCWeaponTrace@@V?$allocator@PAVCWeaponTrace@@@std@@@std@@ABEII@Z ; std::vector<CWeaponTrace *,std::allocator<CWeaponTrace *> >::_Calculate_growth
PUBLIC	?_Change_array@?$vector@PAVCWeaponTrace@@V?$allocator@PAVCWeaponTrace@@@std@@@std@@AAEXQAPAVCWeaponTrace@@II@Z ; std::vector<CWeaponTrace *,std::allocator<CWeaponTrace *> >::_Change_array
PUBLIC	?_Tidy@?$vector@PAVCWeaponTrace@@V?$allocator@PAVCWeaponTrace@@@std@@@std@@AAEXXZ ; std::vector<CWeaponTrace *,std::allocator<CWeaponTrace *> >::_Tidy
PUBLIC	?_Xlength@?$vector@PAVCWeaponTrace@@V?$allocator@PAVCWeaponTrace@@@std@@@std@@CAXXZ ; std::vector<CWeaponTrace *,std::allocator<CWeaponTrace *> >::_Xlength
PUBLIC	??_G?$CDynamicPool@VCWeaponTrace@@@@UAEPAXI@Z	; CDynamicPool<CWeaponTrace>::`scalar deleting destructor'
PUBLIC	??0?$_Deque_const_iterator@V?$_Deque_val@U?$_Deque_simple_types@U?$pair@MUD3DXVECTOR3@@@std@@@std@@@std@@@std@@QAE@XZ ; std::_Deque_const_iterator<std::_Deque_val<std::_Deque_simple_types<std::pair<float,D3DXVECTOR3> > > >::_Deque_const_iterator<std::_Deque_val<std::_Deque_simple_types<std::pair<float,D3DXVECTOR3> > > >
PUBLIC	??D?$_Deque_const_iterator@V?$_Deque_val@U?$_Deque_simple_types@U?$pair@MUD3DXVECTOR3@@@std@@@std@@@std@@@std@@QBEABU?$pair@MUD3DXVECTOR3@@@1@XZ ; std::_Deque_const_iterator<std::_Deque_val<std::_Deque_simple_types<std::pair<float,D3DXVECTOR3> > > >::operator*
PUBLIC	??0?$_Deque_const_iterator@V?$_Deque_val@U?$_Deque_simple_types@U?$pair@MUD3DXVECTOR3@@@std@@@std@@@std@@@std@@QAE@ABV01@@Z ; std::_Deque_const_iterator<std::_Deque_val<std::_Deque_simple_types<std::pair<float,D3DXVECTOR3> > > >::_Deque_const_iterator<std::_Deque_val<std::_Deque_simple_types<std::pair<float,D3DXVECTOR3> > > >
PUBLIC	??0?$_Deque_const_iterator@V?$_Deque_val@U?$_Deque_simple_types@U?$pair@MUD3DXVECTOR3@@@std@@@std@@@std@@@std@@QAE@$$QAV01@@Z ; std::_Deque_const_iterator<std::_Deque_val<std::_Deque_simple_types<std::pair<float,D3DXVECTOR3> > > >::_Deque_const_iterator<std::_Deque_val<std::_Deque_simple_types<std::pair<float,D3DXVECTOR3> > > >
PUBLIC	??4?$_Deque_const_iterator@V?$_Deque_val@U?$_Deque_simple_types@U?$pair@MUD3DXVECTOR3@@@std@@@std@@@std@@@std@@QAEAAV01@$$QAV01@@Z ; std::_Deque_const_iterator<std::_Deque_val<std::_Deque_simple_types<std::pair<float,D3DXVECTOR3> > > >::operator=
PUBLIC	??E?$_Deque_iterator@V?$_Deque_val@U?$_Deque_simple_types@U?$pair@MUD3DXVECTOR3@@@std@@@std@@@std@@@std@@QAE?AV01@H@Z ; std::_Deque_iterator<std::_Deque_val<std::_Deque_simple_types<std::pair<float,D3DXVECTOR3> > > >::operator++
PUBLIC	??H?$_Deque_iterator@V?$_Deque_val@U?$_Deque_simple_types@U?$pair@MUD3DXVECTOR3@@@std@@@std@@@std@@@std@@QBE?AV01@H@Z ; std::_Deque_iterator<std::_Deque_val<std::_Deque_simple_types<std::pair<float,D3DXVECTOR3> > > >::operator+
PUBLIC	??1?$_Deque_iterator@V?$_Deque_val@U?$_Deque_simple_types@U?$pair@MUD3DXVECTOR3@@@std@@@std@@@std@@@std@@QAE@XZ ; std::_Deque_iterator<std::_Deque_val<std::_Deque_simple_types<std::pair<float,D3DXVECTOR3> > > >::~_Deque_iterator<std::_Deque_val<std::_Deque_simple_types<std::pair<float,D3DXVECTOR3> > > >
PUBLIC	??0?$_Deque_iterator@V?$_Deque_val@U?$_Deque_simple_types@U?$pair@MUD3DXVECTOR3@@@std@@@std@@@std@@@std@@QAE@IPBU_Container_base12@1@@Z ; std::_Deque_iterator<std::_Deque_val<std::_Deque_simple_types<std::pair<float,D3DXVECTOR3> > > >::_Deque_iterator<std::_Deque_val<std::_Deque_simple_types<std::pair<float,D3DXVECTOR3> > > >
PUBLIC	??$for_each@V?$_Vector_iterator@V?$_Vector_val@U?$_Simple_types@PAVCWeaponTrace@@@std@@@std@@@std@@P6AXPAVCWeaponTrace@@@Z@std@@YAP6AXPAVCWeaponTrace@@@ZV?$_Vector_iterator@V?$_Vector_val@U?$_Simple_types@PAVCWeaponTrace@@@std@@@std@@@0@1P6AX0@Z@Z ; std::for_each<std::_Vector_iterator<std::_Vector_val<std::_Simple_types<CWeaponTrace *> > >,void (__cdecl*)(CWeaponTrace *)>
PUBLIC	??$emplace_back@ABUSPDTVertex@@@?$vector@USPDTVertex@@V?$allocator@USPDTVertex@@@std@@@std@@QAEXABUSPDTVertex@@@Z ; std::vector<SPDTVertex,std::allocator<SPDTVertex> >::emplace_back<SPDTVertex const &>
PUBLIC	??$_Emplace_reallocate@ABUSPDTVertex@@@?$vector@USPDTVertex@@V?$allocator@USPDTVertex@@@std@@@std@@QAEPAUSPDTVertex@@QAU2@ABU2@@Z ; std::vector<SPDTVertex,std::allocator<SPDTVertex> >::_Emplace_reallocate<SPDTVertex const &>
PUBLIC	??$move_backward@V?$_Deque_iterator@V?$_Deque_val@U?$_Deque_simple_types@U?$pair@MUD3DXVECTOR3@@@std@@@std@@@std@@@std@@V12@@std@@YA?AV?$_Deque_iterator@V?$_Deque_val@U?$_Deque_simple_types@U?$pair@MUD3DXVECTOR3@@@std@@@std@@@std@@@0@V10@00@Z ; std::move_backward<std::_Deque_iterator<std::_Deque_val<std::_Deque_simple_types<std::pair<float,D3DXVECTOR3> > > >,std::_Deque_iterator<std::_Deque_val<std::_Deque_simple_types<std::pair<float,D3DXVECTOR3> > > > >
PUBLIC	??$move@V?$_Deque_iterator@V?$_Deque_val@U?$_Deque_simple_types@U?$pair@MUD3DXVECTOR3@@@std@@@std@@@std@@@std@@V12@@std@@YA?AV?$_Deque_iterator@V?$_Deque_val@U?$_Deque_simple_types@U?$pair@MUD3DXVECTOR3@@@std@@@std@@@std@@@0@V10@00@Z ; std::move<std::_Deque_iterator<std::_Deque_val<std::_Deque_simple_types<std::pair<float,D3DXVECTOR3> > > >,std::_Deque_iterator<std::_Deque_val<std::_Deque_simple_types<std::pair<float,D3DXVECTOR3> > > > >
PUBLIC	??D?$_Deque_unchecked_const_iterator@V?$_Deque_val@U?$_Deque_simple_types@U?$pair@MUD3DXVECTOR3@@@std@@@std@@@std@@@std@@QBEABU?$pair@MUD3DXVECTOR3@@@1@XZ ; std::_Deque_unchecked_const_iterator<std::_Deque_val<std::_Deque_simple_types<std::pair<float,D3DXVECTOR3> > > >::operator*
PUBLIC	??$_Delete_plain_internal@V?$allocator@U_Container_proxy@std@@@std@@@std@@YAXAAV?$allocator@U_Container_proxy@std@@@0@QAU_Container_proxy@0@@Z ; std::_Delete_plain_internal<std::allocator<std::_Container_proxy> >
PUBLIC	??$_Alloc_proxy@V?$allocator@U_Container_proxy@std@@@std@@@_Container_base12@std@@QAEX$$QAV?$allocator@U_Container_proxy@std@@@1@@Z ; std::_Container_base12::_Alloc_proxy<std::allocator<std::_Container_proxy> >
PUBLIC	??$emplace_back@ABQAVCWeaponTrace@@@?$vector@PAVCWeaponTrace@@V?$allocator@PAVCWeaponTrace@@@std@@@std@@QAEXABQAVCWeaponTrace@@@Z ; std::vector<CWeaponTrace *,std::allocator<CWeaponTrace *> >::emplace_back<CWeaponTrace * const &>
PUBLIC	??$_Emplace_back_with_unused_capacity@ABQAVCWeaponTrace@@@?$vector@PAVCWeaponTrace@@V?$allocator@PAVCWeaponTrace@@@std@@@std@@AAEXABQAVCWeaponTrace@@@Z ; std::vector<CWeaponTrace *,std::allocator<CWeaponTrace *> >::_Emplace_back_with_unused_capacity<CWeaponTrace * const &>
PUBLIC	??$_Emplace_reallocate@ABQAVCWeaponTrace@@@?$vector@PAVCWeaponTrace@@V?$allocator@PAVCWeaponTrace@@@std@@@std@@QAEPAPAVCWeaponTrace@@QAPAV2@ABQAV2@@Z ; std::vector<CWeaponTrace *,std::allocator<CWeaponTrace *> >::_Emplace_reallocate<CWeaponTrace * const &>
PUBLIC	??$_Destroy_range@V?$allocator@USPDTVertex@@@std@@@std@@YAXPAUSPDTVertex@@QAU1@AAV?$allocator@USPDTVertex@@@0@@Z ; std::_Destroy_range<std::allocator<SPDTVertex> >
PUBLIC	??$_Destroy_in_place@PAU?$pair@MUD3DXVECTOR3@@@std@@@std@@YAXAAPAU?$pair@MUD3DXVECTOR3@@@0@@Z ; std::_Destroy_in_place<std::pair<float,D3DXVECTOR3> *>
PUBLIC	??$uninitialized_copy@PAPAU?$pair@MUD3DXVECTOR3@@@std@@PAPAU12@@std@@YAPAPAU?$pair@MUD3DXVECTOR3@@@0@QAPAU10@0PAPAU10@@Z ; std::uninitialized_copy<std::pair<float,D3DXVECTOR3> * *,std::pair<float,D3DXVECTOR3> * *>
PUBLIC	??$_Uninitialized_value_construct_n_unchecked1@PAPAU?$pair@MUD3DXVECTOR3@@@std@@I@std@@YAPAPAU?$pair@MUD3DXVECTOR3@@@0@PAPAU10@I@Z ; std::_Uninitialized_value_construct_n_unchecked1<std::pair<float,D3DXVECTOR3> * *,unsigned int>
PUBLIC	??$_Destroy_range@PAPAU?$pair@MUD3DXVECTOR3@@@std@@PAPAU12@@std@@YAXPAPAU?$pair@MUD3DXVECTOR3@@@0@QAPAU10@@Z ; std::_Destroy_range<std::pair<float,D3DXVECTOR3> * *,std::pair<float,D3DXVECTOR3> * *>
PUBLIC	??$_Destroy_range@V?$allocator@PAVCWeaponTrace@@@std@@@std@@YAXPAPAVCWeaponTrace@@QAPAV1@AAV?$allocator@PAVCWeaponTrace@@@0@@Z ; std::_Destroy_range<std::allocator<CWeaponTrace *> >
PUBLIC	??$_Move_backward_unchecked@V?$_Deque_unchecked_iterator@V?$_Deque_val@U?$_Deque_simple_types@U?$pair@MUD3DXVECTOR3@@@std@@@std@@@std@@@std@@V12@@std@@YA?AV?$_Deque_unchecked_iterator@V?$_Deque_val@U?$_Deque_simple_types@U?$pair@MUD3DXVECTOR3@@@std@@@std@@@std@@@0@V10@00@Z ; std::_Move_backward_unchecked<std::_Deque_unchecked_iterator<std::_Deque_val<std::_Deque_simple_types<std::pair<float,D3DXVECTOR3> > > >,std::_Deque_unchecked_iterator<std::_Deque_val<std::_Deque_simple_types<std::pair<float,D3DXVECTOR3> > > > >
PUBLIC	??$_Move_unchecked@V?$_Deque_unchecked_iterator@V?$_Deque_val@U?$_Deque_simple_types@U?$pair@MUD3DXVECTOR3@@@std@@@std@@@std@@@std@@V12@@std@@YA?AV?$_Deque_unchecked_iterator@V?$_Deque_val@U?$_Deque_simple_types@U?$pair@MUD3DXVECTOR3@@@std@@@std@@@std@@@0@V10@00@Z ; std::_Move_unchecked<std::_Deque_unchecked_iterator<std::_Deque_val<std::_Deque_simple_types<std::pair<float,D3DXVECTOR3> > > >,std::_Deque_unchecked_iterator<std::_Deque_val<std::_Deque_simple_types<std::pair<float,D3DXVECTOR3> > > > >
PUBLIC	??$_Deallocate_plain@V?$allocator@U_Container_proxy@std@@@std@@@std@@YAXAAV?$allocator@U_Container_proxy@std@@@0@QAU_Container_proxy@0@@Z ; std::_Deallocate_plain<std::allocator<std::_Container_proxy> >
PUBLIC	??$_Construct_in_place@U_Container_proxy@std@@PAU_Container_base12@2@@std@@YAXAAU_Container_proxy@0@$$QAPAU_Container_base12@0@@Z ; std::_Construct_in_place<std::_Container_proxy,std::_Container_base12 *>
PUBLIC	??$_Copy_memmove@PAPAU?$pair@MUD3DXVECTOR3@@@std@@PAPAU12@@std@@YAPAPAU?$pair@MUD3DXVECTOR3@@@0@PAPAU10@00@Z ; std::_Copy_memmove<std::pair<float,D3DXVECTOR3> * *,std::pair<float,D3DXVECTOR3> * *>
PUBLIC	??$_Zero_range@PAPAU?$pair@MUD3DXVECTOR3@@@std@@@std@@YAPAPAU?$pair@MUD3DXVECTOR3@@@0@QAPAU10@0@Z ; std::_Zero_range<std::pair<float,D3DXVECTOR3> * *>
PUBLIC	??$_Uninitialized_move@PAPAVCWeaponTrace@@V?$allocator@PAVCWeaponTrace@@@std@@@std@@YAPAPAVCWeaponTrace@@QAPAV1@0PAPAV1@AAV?$allocator@PAVCWeaponTrace@@@0@@Z ; std::_Uninitialized_move<CWeaponTrace * *,std::allocator<CWeaponTrace *> >
PUBLIC	??$_Uninitialized_move@PAUSPDTVertex@@V?$allocator@USPDTVertex@@@std@@@std@@YAPAUSPDTVertex@@QAU1@0PAU1@AAV?$allocator@USPDTVertex@@@0@@Z ; std::_Uninitialized_move<SPDTVertex *,std::allocator<SPDTVertex> >
PUBLIC	??$_Copy_memmove@PAPAVCWeaponTrace@@PAPAV1@@std@@YAPAPAVCWeaponTrace@@PAPAV1@00@Z ; std::_Copy_memmove<CWeaponTrace * *,CWeaponTrace * *>
PUBLIC	??_7exception@std@@6B@				; std::exception::`vftable'
PUBLIC	??_C@_0BC@EOODALEL@Unknown?5exception@		; `string'
PUBLIC	??_7bad_alloc@std@@6B@				; std::bad_alloc::`vftable'
PUBLIC	??_7bad_array_new_length@std@@6B@		; std::bad_array_new_length::`vftable'
PUBLIC	??_C@_0BF@KINCDENJ@bad?5array?5new?5length@	; `string'
PUBLIC	__TI3?AVbad_array_new_length@std@@
PUBLIC	__CTA3?AVbad_array_new_length@std@@
PUBLIC	??_R0?AVbad_array_new_length@std@@@8		; std::bad_array_new_length `RTTI Type Descriptor'
PUBLIC	__CT??_R0?AVbad_array_new_length@std@@@8??0bad_array_new_length@std@@QAE@ABV01@@Z12
PUBLIC	??_R0?AVbad_alloc@std@@@8			; std::bad_alloc `RTTI Type Descriptor'
PUBLIC	__CT??_R0?AVbad_alloc@std@@@8??0bad_alloc@std@@QAE@ABV01@@Z12
PUBLIC	??_R0?AVexception@std@@@8			; std::exception `RTTI Type Descriptor'
PUBLIC	__CT??_R0?AVexception@std@@@8??0exception@std@@QAE@ABV01@@Z12
PUBLIC	?ms_singleton@?$CSingleton@VCTimer@@@@0PAVCTimer@@A ; CSingleton<CTimer>::ms_singleton
PUBLIC	??_R4exception@std@@6B@				; std::exception::`RTTI Complete Object Locator'
PUBLIC	??_R3exception@std@@8				; std::exception::`RTTI Class Hierarchy Descriptor'
PUBLIC	??_R2exception@std@@8				; std::exception::`RTTI Base Class Array'
PUBLIC	??_R1A@?0A@EA@exception@std@@8			; std::exception::`RTTI Base Class Descriptor at (0,-1,0,64)'
PUBLIC	??_R4bad_alloc@std@@6B@				; std::bad_alloc::`RTTI Complete Object Locator'
PUBLIC	??_R3bad_alloc@std@@8				; std::bad_alloc::`RTTI Class Hierarchy Descriptor'
PUBLIC	??_R2bad_alloc@std@@8				; std::bad_alloc::`RTTI Base Class Array'
PUBLIC	??_R1A@?0A@EA@bad_alloc@std@@8			; std::bad_alloc::`RTTI Base Class Descriptor at (0,-1,0,64)'
PUBLIC	??_R4bad_array_new_length@std@@6B@		; std::bad_array_new_length::`RTTI Complete Object Locator'
PUBLIC	??_R3bad_array_new_length@std@@8		; std::bad_array_new_length::`RTTI Class Hierarchy Descriptor'
PUBLIC	??_R2bad_array_new_length@std@@8		; std::bad_array_new_length::`RTTI Base Class Array'
PUBLIC	??_R1A@?0A@EA@bad_array_new_length@std@@8	; std::bad_array_new_length::`RTTI Base Class Descriptor at (0,-1,0,64)'
PUBLIC	?ms_singleton@?$CSingleton@VCResourceManager@@@@0PAVCResourceManager@@A ; CSingleton<CResourceManager>::ms_singleton
PUBLIC	?ms_singleton@?$CSingleton@VCStateManager@@@@0PAVCStateManager@@A ; CSingleton<CStateManager>::ms_singleton
PUBLIC	?ms_kPool@CWeaponTrace@@1V?$CDynamicPool@VCWeaponTrace@@@@A ; CWeaponTrace::ms_kPool
PUBLIC	??_7CWeaponTrace@@6B@				; CWeaponTrace::`vftable'
PUBLIC	??_7?$CDynamicPool@VCWeaponTrace@@@@6B@		; CDynamicPool<CWeaponTrace>::`vftable'
PUBLIC	??_C@_0BA@NCBBOAJD@lot_ade10?92?4tga@		; `string'
PUBLIC	??_C@_0BC@KBDMBKEH@deque?$DMT?$DO?5too?5long@	; `string'
PUBLIC	??_C@_0BA@FOIKENOD@vector?5too?5long@		; `string'
PUBLIC	??_R4CWeaponTrace@@6B@				; CWeaponTrace::`RTTI Complete Object Locator'
PUBLIC	??_R0?AVCWeaponTrace@@@8			; CWeaponTrace `RTTI Type Descriptor'
PUBLIC	??_R3CWeaponTrace@@8				; CWeaponTrace::`RTTI Class Hierarchy Descriptor'
PUBLIC	??_R2CWeaponTrace@@8				; CWeaponTrace::`RTTI Base Class Array'
PUBLIC	??_R1A@?0A@EA@CWeaponTrace@@8			; CWeaponTrace::`RTTI Base Class Descriptor at (0,-1,0,64)'
PUBLIC	??_R4?$CDynamicPool@VCWeaponTrace@@@@6B@	; CDynamicPool<CWeaponTrace>::`RTTI Complete Object Locator'
PUBLIC	??_R0?AV?$CDynamicPool@VCWeaponTrace@@@@@8	; CDynamicPool<CWeaponTrace> `RTTI Type Descriptor'
PUBLIC	??_R3?$CDynamicPool@VCWeaponTrace@@@@8		; CDynamicPool<CWeaponTrace>::`RTTI Class Hierarchy Descriptor'
PUBLIC	??_R2?$CDynamicPool@VCWeaponTrace@@@@8		; CDynamicPool<CWeaponTrace>::`RTTI Base Class Array'
PUBLIC	??_R1A@?0A@EA@?$CDynamicPool@VCWeaponTrace@@@@8	; CDynamicPool<CWeaponTrace>::`RTTI Base Class Descriptor at (0,-1,0,64)'
PUBLIC	__real@00000000
PUBLIC	__real@0000000000000000
PUBLIC	__real@38d1b717
PUBLIC	__real@3b449ba6
PUBLIC	__real@3c8efa35
PUBLIC	__real@3e3851ec
PUBLIC	__real@3e99999a
PUBLIC	__real@3f000000
PUBLIC	__real@3f4ccccd
PUBLIC	__real@3f800000
PUBLIC	__real@3fb99999a0000000
PUBLIC	__real@3ff0000000000000
PUBLIC	__real@40000000
PUBLIC	__real@4004000000000000
PUBLIC	__real@40400000
PUBLIC	__real@40800000
PUBLIC	__real@437f0000
PUBLIC	__real@c0000000
EXTRN	??2@YAPAXI@Z:PROC				; operator new
EXTRN	??3@YAXPAXI@Z:PROC				; operator delete
EXTRN	_atexit:PROC
EXTRN	__invalid_parameter_noinfo_noreturn:PROC
EXTRN	_memmove:PROC
EXTRN	_memset:PROC
EXTRN	_sqrt:PROC
EXTRN	___std_exception_copy:PROC
EXTRN	___std_exception_destroy:PROC
EXTRN	??_Eexception@std@@UAEPAXI@Z:PROC		; std::exception::`vector deleting destructor'
EXTRN	??_Ebad_alloc@std@@UAEPAXI@Z:PROC		; std::bad_alloc::`vector deleting destructor'
EXTRN	??_Ebad_array_new_length@std@@UAEPAXI@Z:PROC	; std::bad_array_new_length::`vector deleting destructor'
EXTRN	?_Xlength_error@std@@YAXPBD@Z:PROC		; std::_Xlength_error
EXTRN	?fMAX@@YAMMM@Z:PROC				; fMAX
EXTRN	_D3DXMatrixMultiply@12:PROC
EXTRN	_D3DXMatrixTranslation@16:PROC
EXTRN	_D3DXMatrixRotationZ@8:PROC
EXTRN	?GetCurrentSecond@CTimer@@QAEMXZ:PROC		; CTimer::GetCurrentSecond
EXTRN	??0CGraphicImageInstance@@QAE@XZ:PROC		; CGraphicImageInstance::CGraphicImageInstance
EXTRN	??1CGraphicImageInstance@@UAE@XZ:PROC		; CGraphicImageInstance::~CGraphicImageInstance
EXTRN	?SetImagePointer@CGraphicImageInstance@@QAEXPAVCGraphicImage@@@Z:PROC ; CGraphicImageInstance::SetImagePointer
EXTRN	?GetResourcePointer@CResourceManager@@QAEPAVCResource@@PBD@Z:PROC ; CResourceManager::GetResourcePointer
EXTRN	?SaveRenderState@CStateManager@@QAEXW4_D3DRENDERSTATETYPE@@K@Z:PROC ; CStateManager::SaveRenderState
EXTRN	?RestoreRenderState@CStateManager@@QAEXW4_D3DRENDERSTATETYPE@@@Z:PROC ; CStateManager::RestoreRenderState
EXTRN	?SetRenderState@CStateManager@@QAEXW4_D3DRENDERSTATETYPE@@K@Z:PROC ; CStateManager::SetRenderState
EXTRN	?SetTexture@CStateManager@@QAEXKPAUIDirect3DBaseTexture8@@@Z:PROC ; CStateManager::SetTexture
EXTRN	?SetTextureStageState@CStateManager@@QAEXKW4_D3DTEXTURESTAGESTATETYPE@@K@Z:PROC ; CStateManager::SetTextureStageState
EXTRN	?SaveVertexShader@CStateManager@@QAEXK@Z:PROC	; CStateManager::SaveVertexShader
EXTRN	?RestoreVertexShader@CStateManager@@QAEXXZ:PROC	; CStateManager::RestoreVertexShader
EXTRN	?SaveTransform@CStateManager@@QAEXW4_D3DTRANSFORMSTATETYPE@@PBU_D3DMATRIX@@@Z:PROC ; CStateManager::SaveTransform
EXTRN	?RestoreTransform@CStateManager@@QAEXW4_D3DTRANSFORMSTATETYPE@@@Z:PROC ; CStateManager::RestoreTransform
EXTRN	?DrawPrimitiveUP@CStateManager@@QAEJW4_D3DPRIMITIVETYPE@@IPBXI@Z:PROC ; CStateManager::DrawPrimitiveUP
EXTRN	?Update@CGraphicObjectInstance@@QAEXXZ:PROC	; CGraphicObjectInstance::Update
EXTRN	?DeformNoSkin@CGraphicThingInstance@@QAEXXZ:PROC ; CGraphicThingInstance::DeformNoSkin
EXTRN	?GetBoundBox@CGraphicThingInstance@@QAEHKPAUD3DXVECTOR3@@0@Z:PROC ; CGraphicThingInstance::GetBoundBox
EXTRN	?GetBoneMatrix@CGraphicThingInstance@@QAEHKKPAPAUD3DXMATRIX@@@Z:PROC ; CGraphicThingInstance::GetBoneMatrix
EXTRN	?GetCompositeBoneMatrix@CGraphicThingInstance@@QAEHKKPAPAUD3DXMATRIX@@@Z:PROC ; CGraphicThingInstance::GetCompositeBoneMatrix
EXTRN	??_ECWeaponTrace@@UAEPAXI@Z:PROC		; CWeaponTrace::`vector deleting destructor'
EXTRN	??_E?$CDynamicPool@VCWeaponTrace@@@@UAEPAXI@Z:PROC ; CDynamicPool<CWeaponTrace>::`vector deleting destructor'
EXTRN	@__security_check_cookie@4:PROC
EXTRN	__CxxThrowException@8:PROC
EXTRN	___CxxFrameHandler3:PROC
EXTRN	__chkstk:PROC
EXTRN	__ftoui3:PROC
EXTRN	??_7type_info@@6B@:QWORD			; type_info::`vftable'
EXTRN	___security_cookie:DWORD
EXTRN	__fltused:DWORD
;	COMDAT ?ms_singleton@?$CSingleton@VCTimer@@@@0PAVCTimer@@A
_BSS	SEGMENT
?ms_singleton@?$CSingleton@VCTimer@@@@0PAVCTimer@@A DD 01H DUP (?) ; CSingleton<CTimer>::ms_singleton
_BSS	ENDS
;	COMDAT ?ms_singleton@?$CSingleton@VCResourceManager@@@@0PAVCResourceManager@@A
_BSS	SEGMENT
?ms_singleton@?$CSingleton@VCResourceManager@@@@0PAVCResourceManager@@A DD 01H DUP (?) ; CSingleton<CResourceManager>::ms_singleton
_BSS	ENDS
;	COMDAT ?ms_singleton@?$CSingleton@VCStateManager@@@@0PAVCStateManager@@A
_BSS	SEGMENT
?ms_singleton@?$CSingleton@VCStateManager@@@@0PAVCStateManager@@A DD 01H DUP (?) ; CSingleton<CStateManager>::ms_singleton
_BSS	ENDS
_BSS	SEGMENT
?ms_kPool@CWeaponTrace@@1V?$CDynamicPool@VCWeaponTrace@@@@A DB 024H DUP (?) ; CWeaponTrace::ms_kPool
_BSS	ENDS
CRT$XCU	SEGMENT
??ms_kPool$initializer$@CWeaponTrace@@1P6AXXZA@@3P6AXXZA DD FLAT:??__E?ms_kPool@CWeaponTrace@@1V?$CDynamicPool@VCWeaponTrace@@@@A@@YAXXZ ; ??ms_kPool$initializer$@CWeaponTrace@@1P6AXXZA@@3P6AXXZA
CRT$XCU	ENDS
;	COMDAT __real@c0000000
CONST	SEGMENT
__real@c0000000 DD 0c0000000r			; -2
CONST	ENDS
;	COMDAT __real@437f0000
CONST	SEGMENT
__real@437f0000 DD 0437f0000r			; 255
CONST	ENDS
;	COMDAT __real@40800000
CONST	SEGMENT
__real@40800000 DD 040800000r			; 4
CONST	ENDS
;	COMDAT __real@40400000
CONST	SEGMENT
__real@40400000 DD 040400000r			; 3
CONST	ENDS
;	COMDAT __real@4004000000000000
CONST	SEGMENT
__real@4004000000000000 DQ 04004000000000000r	; 2.5
CONST	ENDS
;	COMDAT __real@40000000
CONST	SEGMENT
__real@40000000 DD 040000000r			; 2
CONST	ENDS
;	COMDAT __real@3ff0000000000000
CONST	SEGMENT
__real@3ff0000000000000 DQ 03ff0000000000000r	; 1
CONST	ENDS
;	COMDAT __real@3fb99999a0000000
CONST	SEGMENT
__real@3fb99999a0000000 DQ 03fb99999a0000000r	; 0.1
CONST	ENDS
;	COMDAT __real@3f800000
CONST	SEGMENT
__real@3f800000 DD 03f800000r			; 1
CONST	ENDS
;	COMDAT __real@3f4ccccd
CONST	SEGMENT
__real@3f4ccccd DD 03f4ccccdr			; 0.8
CONST	ENDS
;	COMDAT __real@3f000000
CONST	SEGMENT
__real@3f000000 DD 03f000000r			; 0.5
CONST	ENDS
;	COMDAT __real@3e99999a
CONST	SEGMENT
__real@3e99999a DD 03e99999ar			; 0.3
CONST	ENDS
;	COMDAT __real@3e3851ec
CONST	SEGMENT
__real@3e3851ec DD 03e3851ecr			; 0.18
CONST	ENDS
;	COMDAT __real@3c8efa35
CONST	SEGMENT
__real@3c8efa35 DD 03c8efa35r			; 0.0174533
CONST	ENDS
;	COMDAT __real@3b449ba6
CONST	SEGMENT
__real@3b449ba6 DD 03b449ba6r			; 0.003
CONST	ENDS
;	COMDAT __real@38d1b717
CONST	SEGMENT
__real@38d1b717 DD 038d1b717r			; 0.0001
CONST	ENDS
;	COMDAT __real@0000000000000000
CONST	SEGMENT
__real@0000000000000000 DQ 00000000000000000r	; 0
CONST	ENDS
;	COMDAT __real@00000000
CONST	SEGMENT
__real@00000000 DD 000000000r			; 0
CONST	ENDS
;	COMDAT ??_R1A@?0A@EA@?$CDynamicPool@VCWeaponTrace@@@@8
rdata$r	SEGMENT
??_R1A@?0A@EA@?$CDynamicPool@VCWeaponTrace@@@@8 DD FLAT:??_R0?AV?$CDynamicPool@VCWeaponTrace@@@@@8 ; CDynamicPool<CWeaponTrace>::`RTTI Base Class Descriptor at (0,-1,0,64)'
	DD	00H
	DD	00H
	DD	0ffffffffH
	DD	00H
	DD	040H
	DD	FLAT:??_R3?$CDynamicPool@VCWeaponTrace@@@@8
rdata$r	ENDS
;	COMDAT ??_R2?$CDynamicPool@VCWeaponTrace@@@@8
rdata$r	SEGMENT
??_R2?$CDynamicPool@VCWeaponTrace@@@@8 DD FLAT:??_R1A@?0A@EA@?$CDynamicPool@VCWeaponTrace@@@@8 ; CDynamicPool<CWeaponTrace>::`RTTI Base Class Array'
rdata$r	ENDS
;	COMDAT ??_R3?$CDynamicPool@VCWeaponTrace@@@@8
rdata$r	SEGMENT
??_R3?$CDynamicPool@VCWeaponTrace@@@@8 DD 00H		; CDynamicPool<CWeaponTrace>::`RTTI Class Hierarchy Descriptor'
	DD	00H
	DD	01H
	DD	FLAT:??_R2?$CDynamicPool@VCWeaponTrace@@@@8
rdata$r	ENDS
;	COMDAT ??_R0?AV?$CDynamicPool@VCWeaponTrace@@@@@8
data$rs	SEGMENT
??_R0?AV?$CDynamicPool@VCWeaponTrace@@@@@8 DD FLAT:??_7type_info@@6B@ ; CDynamicPool<CWeaponTrace> `RTTI Type Descriptor'
	DD	00H
	DB	'.?AV?$CDynamicPool@VCWeaponTrace@@@@', 00H
data$rs	ENDS
;	COMDAT ??_R4?$CDynamicPool@VCWeaponTrace@@@@6B@
rdata$r	SEGMENT
??_R4?$CDynamicPool@VCWeaponTrace@@@@6B@ DD 00H		; CDynamicPool<CWeaponTrace>::`RTTI Complete Object Locator'
	DD	00H
	DD	00H
	DD	FLAT:??_R0?AV?$CDynamicPool@VCWeaponTrace@@@@@8
	DD	FLAT:??_R3?$CDynamicPool@VCWeaponTrace@@@@8
rdata$r	ENDS
;	COMDAT ??_R1A@?0A@EA@CWeaponTrace@@8
rdata$r	SEGMENT
??_R1A@?0A@EA@CWeaponTrace@@8 DD FLAT:??_R0?AVCWeaponTrace@@@8 ; CWeaponTrace::`RTTI Base Class Descriptor at (0,-1,0,64)'
	DD	00H
	DD	00H
	DD	0ffffffffH
	DD	00H
	DD	040H
	DD	FLAT:??_R3CWeaponTrace@@8
rdata$r	ENDS
;	COMDAT ??_R2CWeaponTrace@@8
rdata$r	SEGMENT
??_R2CWeaponTrace@@8 DD FLAT:??_R1A@?0A@EA@CWeaponTrace@@8 ; CWeaponTrace::`RTTI Base Class Array'
rdata$r	ENDS
;	COMDAT ??_R3CWeaponTrace@@8
rdata$r	SEGMENT
??_R3CWeaponTrace@@8 DD 00H				; CWeaponTrace::`RTTI Class Hierarchy Descriptor'
	DD	00H
	DD	01H
	DD	FLAT:??_R2CWeaponTrace@@8
rdata$r	ENDS
;	COMDAT ??_R0?AVCWeaponTrace@@@8
data$rs	SEGMENT
??_R0?AVCWeaponTrace@@@8 DD FLAT:??_7type_info@@6B@	; CWeaponTrace `RTTI Type Descriptor'
	DD	00H
	DB	'.?AVCWeaponTrace@@', 00H
data$rs	ENDS
;	COMDAT ??_R4CWeaponTrace@@6B@
rdata$r	SEGMENT
??_R4CWeaponTrace@@6B@ DD 00H				; CWeaponTrace::`RTTI Complete Object Locator'
	DD	00H
	DD	00H
	DD	FLAT:??_R0?AVCWeaponTrace@@@8
	DD	FLAT:??_R3CWeaponTrace@@8
rdata$r	ENDS
;	COMDAT ??_C@_0BA@FOIKENOD@vector?5too?5long@
CONST	SEGMENT
??_C@_0BA@FOIKENOD@vector?5too?5long@ DB 'vector too long', 00H ; `string'
CONST	ENDS
;	COMDAT ??_C@_0BC@KBDMBKEH@deque?$DMT?$DO?5too?5long@
CONST	SEGMENT
??_C@_0BC@KBDMBKEH@deque?$DMT?$DO?5too?5long@ DB 'deque<T> too long', 00H ; `string'
CONST	ENDS
;	COMDAT ??_C@_0BA@NCBBOAJD@lot_ade10?92?4tga@
CONST	SEGMENT
??_C@_0BA@NCBBOAJD@lot_ade10?92?4tga@ DB 'lot_ade10-2.tga', 00H ; `string'
CONST	ENDS
;	COMDAT ??_7?$CDynamicPool@VCWeaponTrace@@@@6B@
CONST	SEGMENT
??_7?$CDynamicPool@VCWeaponTrace@@@@6B@ DD FLAT:??_R4?$CDynamicPool@VCWeaponTrace@@@@6B@ ; CDynamicPool<CWeaponTrace>::`vftable'
	DD	FLAT:??_E?$CDynamicPool@VCWeaponTrace@@@@UAEPAXI@Z
CONST	ENDS
;	COMDAT ??_7CWeaponTrace@@6B@
CONST	SEGMENT
??_7CWeaponTrace@@6B@ DD FLAT:??_R4CWeaponTrace@@6B@	; CWeaponTrace::`vftable'
	DD	FLAT:??_ECWeaponTrace@@UAEPAXI@Z
CONST	ENDS
;	COMDAT ??_R1A@?0A@EA@bad_array_new_length@std@@8
rdata$r	SEGMENT
??_R1A@?0A@EA@bad_array_new_length@std@@8 DD FLAT:??_R0?AVbad_array_new_length@std@@@8 ; std::bad_array_new_length::`RTTI Base Class Descriptor at (0,-1,0,64)'
	DD	02H
	DD	00H
	DD	0ffffffffH
	DD	00H
	DD	040H
	DD	FLAT:??_R3bad_array_new_length@std@@8
rdata$r	ENDS
;	COMDAT ??_R2bad_array_new_length@std@@8
rdata$r	SEGMENT
??_R2bad_array_new_length@std@@8 DD FLAT:??_R1A@?0A@EA@bad_array_new_length@std@@8 ; std::bad_array_new_length::`RTTI Base Class Array'
	DD	FLAT:??_R1A@?0A@EA@bad_alloc@std@@8
	DD	FLAT:??_R1A@?0A@EA@exception@std@@8
rdata$r	ENDS
;	COMDAT ??_R3bad_array_new_length@std@@8
rdata$r	SEGMENT
??_R3bad_array_new_length@std@@8 DD 00H			; std::bad_array_new_length::`RTTI Class Hierarchy Descriptor'
	DD	00H
	DD	03H
	DD	FLAT:??_R2bad_array_new_length@std@@8
rdata$r	ENDS
;	COMDAT ??_R4bad_array_new_length@std@@6B@
rdata$r	SEGMENT
??_R4bad_array_new_length@std@@6B@ DD 00H		; std::bad_array_new_length::`RTTI Complete Object Locator'
	DD	00H
	DD	00H
	DD	FLAT:??_R0?AVbad_array_new_length@std@@@8
	DD	FLAT:??_R3bad_array_new_length@std@@8
rdata$r	ENDS
;	COMDAT ??_R1A@?0A@EA@bad_alloc@std@@8
rdata$r	SEGMENT
??_R1A@?0A@EA@bad_alloc@std@@8 DD FLAT:??_R0?AVbad_alloc@std@@@8 ; std::bad_alloc::`RTTI Base Class Descriptor at (0,-1,0,64)'
	DD	01H
	DD	00H
	DD	0ffffffffH
	DD	00H
	DD	040H
	DD	FLAT:??_R3bad_alloc@std@@8
rdata$r	ENDS
;	COMDAT ??_R2bad_alloc@std@@8
rdata$r	SEGMENT
??_R2bad_alloc@std@@8 DD FLAT:??_R1A@?0A@EA@bad_alloc@std@@8 ; std::bad_alloc::`RTTI Base Class Array'
	DD	FLAT:??_R1A@?0A@EA@exception@std@@8
rdata$r	ENDS
;	COMDAT ??_R3bad_alloc@std@@8
rdata$r	SEGMENT
??_R3bad_alloc@std@@8 DD 00H				; std::bad_alloc::`RTTI Class Hierarchy Descriptor'
	DD	00H
	DD	02H
	DD	FLAT:??_R2bad_alloc@std@@8
rdata$r	ENDS
;	COMDAT ??_R4bad_alloc@std@@6B@
rdata$r	SEGMENT
??_R4bad_alloc@std@@6B@ DD 00H				; std::bad_alloc::`RTTI Complete Object Locator'
	DD	00H
	DD	00H
	DD	FLAT:??_R0?AVbad_alloc@std@@@8
	DD	FLAT:??_R3bad_alloc@std@@8
rdata$r	ENDS
;	COMDAT ??_R1A@?0A@EA@exception@std@@8
rdata$r	SEGMENT
??_R1A@?0A@EA@exception@std@@8 DD FLAT:??_R0?AVexception@std@@@8 ; std::exception::`RTTI Base Class Descriptor at (0,-1,0,64)'
	DD	00H
	DD	00H
	DD	0ffffffffH
	DD	00H
	DD	040H
	DD	FLAT:??_R3exception@std@@8
rdata$r	ENDS
;	COMDAT ??_R2exception@std@@8
rdata$r	SEGMENT
??_R2exception@std@@8 DD FLAT:??_R1A@?0A@EA@exception@std@@8 ; std::exception::`RTTI Base Class Array'
rdata$r	ENDS
;	COMDAT ??_R3exception@std@@8
rdata$r	SEGMENT
??_R3exception@std@@8 DD 00H				; std::exception::`RTTI Class Hierarchy Descriptor'
	DD	00H
	DD	01H
	DD	FLAT:??_R2exception@std@@8
rdata$r	ENDS
;	COMDAT ??_R4exception@std@@6B@
rdata$r	SEGMENT
??_R4exception@std@@6B@ DD 00H				; std::exception::`RTTI Complete Object Locator'
	DD	00H
	DD	00H
	DD	FLAT:??_R0?AVexception@std@@@8
	DD	FLAT:??_R3exception@std@@8
rdata$r	ENDS
;	COMDAT __CT??_R0?AVexception@std@@@8??0exception@std@@QAE@ABV01@@Z12
xdata$x	SEGMENT
__CT??_R0?AVexception@std@@@8??0exception@std@@QAE@ABV01@@Z12 DD 00H
	DD	FLAT:??_R0?AVexception@std@@@8
	DD	00H
	DD	0ffffffffH
	ORG $+4
	DD	0cH
	DD	FLAT:??0exception@std@@QAE@ABV01@@Z
xdata$x	ENDS
;	COMDAT ??_R0?AVexception@std@@@8
data$r	SEGMENT
??_R0?AVexception@std@@@8 DD FLAT:??_7type_info@@6B@	; std::exception `RTTI Type Descriptor'
	DD	00H
	DB	'.?AVexception@std@@', 00H
data$r	ENDS
;	COMDAT __CT??_R0?AVbad_alloc@std@@@8??0bad_alloc@std@@QAE@ABV01@@Z12
xdata$x	SEGMENT
__CT??_R0?AVbad_alloc@std@@@8??0bad_alloc@std@@QAE@ABV01@@Z12 DD 010H
	DD	FLAT:??_R0?AVbad_alloc@std@@@8
	DD	00H
	DD	0ffffffffH
	ORG $+4
	DD	0cH
	DD	FLAT:??0bad_alloc@std@@QAE@ABV01@@Z
xdata$x	ENDS
;	COMDAT ??_R0?AVbad_alloc@std@@@8
data$r	SEGMENT
??_R0?AVbad_alloc@std@@@8 DD FLAT:??_7type_info@@6B@	; std::bad_alloc `RTTI Type Descriptor'
	DD	00H
	DB	'.?AVbad_alloc@std@@', 00H
data$r	ENDS
;	COMDAT __CT??_R0?AVbad_array_new_length@std@@@8??0bad_array_new_length@std@@QAE@ABV01@@Z12
xdata$x	SEGMENT
__CT??_R0?AVbad_array_new_length@std@@@8??0bad_array_new_length@std@@QAE@ABV01@@Z12 DD 00H
	DD	FLAT:??_R0?AVbad_array_new_length@std@@@8
	DD	00H
	DD	0ffffffffH
	ORG $+4
	DD	0cH
	DD	FLAT:??0bad_array_new_length@std@@QAE@ABV01@@Z
xdata$x	ENDS
;	COMDAT ??_R0?AVbad_array_new_length@std@@@8
data$r	SEGMENT
??_R0?AVbad_array_new_length@std@@@8 DD FLAT:??_7type_info@@6B@ ; std::bad_array_new_length `RTTI Type Descriptor'
	DD	00H
	DB	'.?AVbad_array_new_length@std@@', 00H
data$r	ENDS
;	COMDAT __CTA3?AVbad_array_new_length@std@@
xdata$x	SEGMENT
__CTA3?AVbad_array_new_length@std@@ DD 03H
	DD	FLAT:__CT??_R0?AVbad_array_new_length@std@@@8??0bad_array_new_length@std@@QAE@ABV01@@Z12
	DD	FLAT:__CT??_R0?AVbad_alloc@std@@@8??0bad_alloc@std@@QAE@ABV01@@Z12
	DD	FLAT:__CT??_R0?AVexception@std@@@8??0exception@std@@QAE@ABV01@@Z12
xdata$x	ENDS
;	COMDAT __TI3?AVbad_array_new_length@std@@
xdata$x	SEGMENT
__TI3?AVbad_array_new_length@std@@ DD 00H
	DD	FLAT:??1bad_array_new_length@std@@UAE@XZ
	DD	00H
	DD	FLAT:__CTA3?AVbad_array_new_length@std@@
xdata$x	ENDS
;	COMDAT ??_C@_0BF@KINCDENJ@bad?5array?5new?5length@
CONST	SEGMENT
??_C@_0BF@KINCDENJ@bad?5array?5new?5length@ DB 'bad array new length', 00H ; `string'
CONST	ENDS
;	COMDAT ??_7bad_array_new_length@std@@6B@
CONST	SEGMENT
??_7bad_array_new_length@std@@6B@ DD FLAT:??_R4bad_array_new_length@std@@6B@ ; std::bad_array_new_length::`vftable'
	DD	FLAT:??_Ebad_array_new_length@std@@UAEPAXI@Z
	DD	FLAT:?what@exception@std@@UBEPBDXZ
CONST	ENDS
;	COMDAT ??_7bad_alloc@std@@6B@
CONST	SEGMENT
??_7bad_alloc@std@@6B@ DD FLAT:??_R4bad_alloc@std@@6B@	; std::bad_alloc::`vftable'
	DD	FLAT:??_Ebad_alloc@std@@UAEPAXI@Z
	DD	FLAT:?what@exception@std@@UBEPBDXZ
CONST	ENDS
;	COMDAT ??_C@_0BC@EOODALEL@Unknown?5exception@
CONST	SEGMENT
??_C@_0BC@EOODALEL@Unknown?5exception@ DB 'Unknown exception', 00H ; `string'
CONST	ENDS
;	COMDAT ??_7exception@std@@6B@
CONST	SEGMENT
??_7exception@std@@6B@ DD FLAT:??_R4exception@std@@6B@	; std::exception::`vftable'
	DD	FLAT:??_Eexception@std@@UAEPAXI@Z
	DD	FLAT:?what@exception@std@@UBEPBDXZ
CONST	ENDS
;	COMDAT xdata$x
xdata$x	SEGMENT
__catchsym$??$_Emplace_reallocate@ABQAVCWeaponTrace@@@?$vector@PAVCWeaponTrace@@V?$allocator@PAVCWeaponTrace@@@std@@@std@@QAEPAPAVCWeaponTrace@@QAPAV2@ABQAV2@@Z$32 DD 040H
	DD	00H
	DD	00H
	DD	FLAT:__catch$??$_Emplace_reallocate@ABQAVCWeaponTrace@@@?$vector@PAVCWeaponTrace@@V?$allocator@PAVCWeaponTrace@@@std@@@std@@QAEPAPAVCWeaponTrace@@QAPAV2@ABQAV2@@Z$0
__unwindtable$??$_Emplace_reallocate@ABQAVCWeaponTrace@@@?$vector@PAVCWeaponTrace@@V?$allocator@PAVCWeaponTrace@@@std@@@std@@QAEPAPAVCWeaponTrace@@QAPAV2@ABQAV2@@Z DD 0ffffffffH
	DD	00H
	DD	0ffffffffH
	DD	00H
__tryblocktable$??$_Emplace_reallocate@ABQAVCWeaponTrace@@@?$vector@PAVCWeaponTrace@@V?$allocator@PAVCWeaponTrace@@@std@@@std@@QAEPAPAVCWeaponTrace@@QAPAV2@ABQAV2@@Z DD 00H
	DD	00H
	DD	01H
	DD	01H
	DD	FLAT:__catchsym$??$_Emplace_reallocate@ABQAVCWeaponTrace@@@?$vector@PAVCWeaponTrace@@V?$allocator@PAVCWeaponTrace@@@std@@@std@@QAEPAPAVCWeaponTrace@@QAPAV2@ABQAV2@@Z$32
__ehfuncinfo$??$_Emplace_reallocate@ABQAVCWeaponTrace@@@?$vector@PAVCWeaponTrace@@V?$allocator@PAVCWeaponTrace@@@std@@@std@@QAEPAPAVCWeaponTrace@@QAPAV2@ABQAV2@@Z DD 019930522H
	DD	02H
	DD	FLAT:__unwindtable$??$_Emplace_reallocate@ABQAVCWeaponTrace@@@?$vector@PAVCWeaponTrace@@V?$allocator@PAVCWeaponTrace@@@std@@@std@@QAEPAPAVCWeaponTrace@@QAPAV2@ABQAV2@@Z
	DD	01H
	DD	FLAT:__tryblocktable$??$_Emplace_reallocate@ABQAVCWeaponTrace@@@?$vector@PAVCWeaponTrace@@V?$allocator@PAVCWeaponTrace@@@std@@@std@@QAEPAPAVCWeaponTrace@@QAPAV2@ABQAV2@@Z
	DD	2 DUP(00H)
	DD	00H
	DD	01H
xdata$x	ENDS
;	COMDAT xdata$x
xdata$x	SEGMENT
__unwindtable$??$move@V?$_Deque_iterator@V?$_Deque_val@U?$_Deque_simple_types@U?$pair@MUD3DXVECTOR3@@@std@@@std@@@std@@@std@@V12@@std@@YA?AV?$_Deque_iterator@V?$_Deque_val@U?$_Deque_simple_types@U?$pair@MUD3DXVECTOR3@@@std@@@std@@@std@@@0@V10@00@Z DD 0ffffffffH
	DD	FLAT:__unwindfunclet$??$move@V?$_Deque_iterator@V?$_Deque_val@U?$_Deque_simple_types@U?$pair@MUD3DXVECTOR3@@@std@@@std@@@std@@@std@@V12@@std@@YA?AV?$_Deque_iterator@V?$_Deque_val@U?$_Deque_simple_types@U?$pair@MUD3DXVECTOR3@@@std@@@std@@@std@@@0@V10@00@Z$0
	DD	00H
	DD	FLAT:__unwindfunclet$??$move@V?$_Deque_iterator@V?$_Deque_val@U?$_Deque_simple_types@U?$pair@MUD3DXVECTOR3@@@std@@@std@@@std@@@std@@V12@@std@@YA?AV?$_Deque_iterator@V?$_Deque_val@U?$_Deque_simple_types@U?$pair@MUD3DXVECTOR3@@@std@@@std@@@std@@@0@V10@00@Z$1
	DD	01H
	DD	FLAT:__unwindfunclet$??$move@V?$_Deque_iterator@V?$_Deque_val@U?$_Deque_simple_types@U?$pair@MUD3DXVECTOR3@@@std@@@std@@@std@@@std@@V12@@std@@YA?AV?$_Deque_iterator@V?$_Deque_val@U?$_Deque_simple_types@U?$pair@MUD3DXVECTOR3@@@std@@@std@@@std@@@0@V10@00@Z$2
__ehfuncinfo$??$move@V?$_Deque_iterator@V?$_Deque_val@U?$_Deque_simple_types@U?$pair@MUD3DXVECTOR3@@@std@@@std@@@std@@@std@@V12@@std@@YA?AV?$_Deque_iterator@V?$_Deque_val@U?$_Deque_simple_types@U?$pair@MUD3DXVECTOR3@@@std@@@std@@@std@@@0@V10@00@Z DD 019930522H
	DD	03H
	DD	FLAT:__unwindtable$??$move@V?$_Deque_iterator@V?$_Deque_val@U?$_Deque_simple_types@U?$pair@MUD3DXVECTOR3@@@std@@@std@@@std@@@std@@V12@@std@@YA?AV?$_Deque_iterator@V?$_Deque_val@U?$_Deque_simple_types@U?$pair@MUD3DXVECTOR3@@@std@@@std@@@std@@@0@V10@00@Z
	DD	2 DUP(00H)
	DD	2 DUP(00H)
	DD	00H
	DD	01H
xdata$x	ENDS
;	COMDAT xdata$x
xdata$x	SEGMENT
__unwindtable$??$move_backward@V?$_Deque_iterator@V?$_Deque_val@U?$_Deque_simple_types@U?$pair@MUD3DXVECTOR3@@@std@@@std@@@std@@@std@@V12@@std@@YA?AV?$_Deque_iterator@V?$_Deque_val@U?$_Deque_simple_types@U?$pair@MUD3DXVECTOR3@@@std@@@std@@@std@@@0@V10@00@Z DD 0ffffffffH
	DD	FLAT:__unwindfunclet$??$move_backward@V?$_Deque_iterator@V?$_Deque_val@U?$_Deque_simple_types@U?$pair@MUD3DXVECTOR3@@@std@@@std@@@std@@@std@@V12@@std@@YA?AV?$_Deque_iterator@V?$_Deque_val@U?$_Deque_simple_types@U?$pair@MUD3DXVECTOR3@@@std@@@std@@@std@@@0@V10@00@Z$0
	DD	00H
	DD	FLAT:__unwindfunclet$??$move_backward@V?$_Deque_iterator@V?$_Deque_val@U?$_Deque_simple_types@U?$pair@MUD3DXVECTOR3@@@std@@@std@@@std@@@std@@V12@@std@@YA?AV?$_Deque_iterator@V?$_Deque_val@U?$_Deque_simple_types@U?$pair@MUD3DXVECTOR3@@@std@@@std@@@std@@@0@V10@00@Z$1
	DD	01H
	DD	FLAT:__unwindfunclet$??$move_backward@V?$_Deque_iterator@V?$_Deque_val@U?$_Deque_simple_types@U?$pair@MUD3DXVECTOR3@@@std@@@std@@@std@@@std@@V12@@std@@YA?AV?$_Deque_iterator@V?$_Deque_val@U?$_Deque_simple_types@U?$pair@MUD3DXVECTOR3@@@std@@@std@@@std@@@0@V10@00@Z$2
__ehfuncinfo$??$move_backward@V?$_Deque_iterator@V?$_Deque_val@U?$_Deque_simple_types@U?$pair@MUD3DXVECTOR3@@@std@@@std@@@std@@@std@@V12@@std@@YA?AV?$_Deque_iterator@V?$_Deque_val@U?$_Deque_simple_types@U?$pair@MUD3DXVECTOR3@@@std@@@std@@@std@@@0@V10@00@Z DD 019930522H
	DD	03H
	DD	FLAT:__unwindtable$??$move_backward@V?$_Deque_iterator@V?$_Deque_val@U?$_Deque_simple_types@U?$pair@MUD3DXVECTOR3@@@std@@@std@@@std@@@std@@V12@@std@@YA?AV?$_Deque_iterator@V?$_Deque_val@U?$_Deque_simple_types@U?$pair@MUD3DXVECTOR3@@@std@@@std@@@std@@@0@V10@00@Z
	DD	2 DUP(00H)
	DD	2 DUP(00H)
	DD	00H
	DD	01H
xdata$x	ENDS
;	COMDAT xdata$x
xdata$x	SEGMENT
__catchsym$??$_Emplace_reallocate@ABUSPDTVertex@@@?$vector@USPDTVertex@@V?$allocator@USPDTVertex@@@std@@@std@@QAEPAUSPDTVertex@@QAU2@ABU2@@Z$32 DD 040H
	DD	00H
	DD	00H
	DD	FLAT:__catch$??$_Emplace_reallocate@ABUSPDTVertex@@@?$vector@USPDTVertex@@V?$allocator@USPDTVertex@@@std@@@std@@QAEPAUSPDTVertex@@QAU2@ABU2@@Z$0
__unwindtable$??$_Emplace_reallocate@ABUSPDTVertex@@@?$vector@USPDTVertex@@V?$allocator@USPDTVertex@@@std@@@std@@QAEPAUSPDTVertex@@QAU2@ABU2@@Z DD 0ffffffffH
	DD	00H
	DD	0ffffffffH
	DD	00H
__tryblocktable$??$_Emplace_reallocate@ABUSPDTVertex@@@?$vector@USPDTVertex@@V?$allocator@USPDTVertex@@@std@@@std@@QAEPAUSPDTVertex@@QAU2@ABU2@@Z DD 00H
	DD	00H
	DD	01H
	DD	01H
	DD	FLAT:__catchsym$??$_Emplace_reallocate@ABUSPDTVertex@@@?$vector@USPDTVertex@@V?$allocator@USPDTVertex@@@std@@@std@@QAEPAUSPDTVertex@@QAU2@ABU2@@Z$32
__ehfuncinfo$??$_Emplace_reallocate@ABUSPDTVertex@@@?$vector@USPDTVertex@@V?$allocator@USPDTVertex@@@std@@@std@@QAEPAUSPDTVertex@@QAU2@ABU2@@Z DD 019930522H
	DD	02H
	DD	FLAT:__unwindtable$??$_Emplace_reallocate@ABUSPDTVertex@@@?$vector@USPDTVertex@@V?$allocator@USPDTVertex@@@std@@@std@@QAEPAUSPDTVertex@@QAU2@ABU2@@Z
	DD	01H
	DD	FLAT:__tryblocktable$??$_Emplace_reallocate@ABUSPDTVertex@@@?$vector@USPDTVertex@@V?$allocator@USPDTVertex@@@std@@@std@@QAEPAUSPDTVertex@@QAU2@ABU2@@Z
	DD	2 DUP(00H)
	DD	00H
	DD	01H
xdata$x	ENDS
;	COMDAT xdata$x
xdata$x	SEGMENT
__unwindtable$?Alloc@?$CDynamicPool@VCWeaponTrace@@@@QAEPAVCWeaponTrace@@XZ DD 0ffffffffH
	DD	FLAT:__unwindfunclet$?Alloc@?$CDynamicPool@VCWeaponTrace@@@@QAEPAVCWeaponTrace@@XZ$0
__ehfuncinfo$?Alloc@?$CDynamicPool@VCWeaponTrace@@@@QAEPAVCWeaponTrace@@XZ DD 019930522H
	DD	01H
	DD	FLAT:__unwindtable$?Alloc@?$CDynamicPool@VCWeaponTrace@@@@QAEPAVCWeaponTrace@@XZ
	DD	2 DUP(00H)
	DD	2 DUP(00H)
	DD	00H
	DD	01H
xdata$x	ENDS
;	COMDAT xdata$x
xdata$x	SEGMENT
__ehfuncinfo$?erase@?$deque@U?$pair@MUD3DXVECTOR3@@@std@@V?$allocator@U?$pair@MUD3DXVECTOR3@@@std@@@2@@std@@QAE?AV?$_Deque_iterator@V?$_Deque_val@U?$_Deque_simple_types@U?$pair@MUD3DXVECTOR3@@@std@@@std@@@std@@@2@V?$_Deque_const_iterator@V?$_Deque_val@U?$_Deque_simple_types@U?$pair@MUD3DXVECTOR3@@@std@@@std@@@std@@@2@0@Z DD 019930522H
	DD	00H
	DD	00H
	DD	2 DUP(00H)
	DD	2 DUP(00H)
	DD	00H
	DD	05H
xdata$x	ENDS
;	COMDAT xdata$x
xdata$x	SEGMENT
__unwindtable$?BuildVertex@CWeaponTrace@@IAE_NXZ DD 0ffffffffH
	DD	FLAT:__unwindfunclet$?BuildVertex@CWeaponTrace@@IAE_NXZ$0
	DD	00H
	DD	FLAT:__unwindfunclet$?BuildVertex@CWeaponTrace@@IAE_NXZ$1
	DD	01H
	DD	FLAT:__unwindfunclet$?BuildVertex@CWeaponTrace@@IAE_NXZ$2
__ehfuncinfo$?BuildVertex@CWeaponTrace@@IAE_NXZ DD 019930522H
	DD	03H
	DD	FLAT:__unwindtable$?BuildVertex@CWeaponTrace@@IAE_NXZ
	DD	2 DUP(00H)
	DD	2 DUP(00H)
	DD	00H
	DD	01H
xdata$x	ENDS
;	COMDAT xdata$x
xdata$x	SEGMENT
__unwindtable$??0CWeaponTrace@@QAE@XZ DD 0ffffffffH
	DD	FLAT:__unwindfunclet$??0CWeaponTrace@@QAE@XZ$0
	DD	00H
	DD	FLAT:__unwindfunclet$??0CWeaponTrace@@QAE@XZ$1
	DD	01H
	DD	FLAT:__unwindfunclet$??0CWeaponTrace@@QAE@XZ$2
	DD	02H
	DD	FLAT:__unwindfunclet$??0CWeaponTrace@@QAE@XZ$3
__ehfuncinfo$??0CWeaponTrace@@QAE@XZ DD 019930522H
	DD	04H
	DD	FLAT:__unwindtable$??0CWeaponTrace@@QAE@XZ
	DD	2 DUP(00H)
	DD	2 DUP(00H)
	DD	00H
	DD	01H
xdata$x	ENDS
;	COMDAT xdata$x
xdata$x	SEGMENT
__ehfuncinfo$??$_Deallocate@$07$0A@@std@@YAXPAXI@Z DD 019930522H
	DD	00H
	DD	00H
	DD	2 DUP(00H)
	DD	2 DUP(00H)
	DD	00H
	DD	05H
xdata$x	ENDS
; Function compile flags: /Odspy
; File C:\Program Files (x86)\Microsoft Visual Studio\2019\Community\VC\Tools\MSVC\14.28.29333\include\xutility
;	COMDAT ??$_Copy_memmove@PAPAVCWeaponTrace@@PAPAV1@@std@@YAPAPAVCWeaponTrace@@PAPAV1@00@Z
_TEXT	SEGMENT
__Last_ch$ = -16					; size = 4
__Count$ = -12						; size = 4
__Dest_ch$ = -8						; size = 4
__First_ch$ = -4					; size = 4
__First$ = 8						; size = 4
__Last$ = 12						; size = 4
__Dest$ = 16						; size = 4
??$_Copy_memmove@PAPAVCWeaponTrace@@PAPAV1@@std@@YAPAPAVCWeaponTrace@@PAPAV1@00@Z PROC ; std::_Copy_memmove<CWeaponTrace * *,CWeaponTrace * *>, COMDAT

; 4360 : _OutIt _Copy_memmove(_InIt _First, _InIt _Last, _OutIt _Dest) {

  00000	55		 push	 ebp
  00001	8b ec		 mov	 ebp, esp
  00003	83 ec 10	 sub	 esp, 16			; 00000010H

; 4361 :     const char* const _First_ch = const_cast<const char*>(reinterpret_cast<const volatile char*>(_First));

  00006	8b 45 08	 mov	 eax, DWORD PTR __First$[ebp]
  00009	89 45 fc	 mov	 DWORD PTR __First_ch$[ebp], eax

; 4362 :     const char* const _Last_ch  = const_cast<const char*>(reinterpret_cast<const volatile char*>(_Last));

  0000c	8b 45 0c	 mov	 eax, DWORD PTR __Last$[ebp]
  0000f	89 45 f0	 mov	 DWORD PTR __Last_ch$[ebp], eax

; 4363 :     char* const _Dest_ch        = const_cast<char*>(reinterpret_cast<volatile char*>(_Dest));

  00012	8b 45 10	 mov	 eax, DWORD PTR __Dest$[ebp]
  00015	89 45 f8	 mov	 DWORD PTR __Dest_ch$[ebp], eax

; 4364 :     const auto _Count           = static_cast<size_t>(_Last_ch - _First_ch);

  00018	8b 45 f0	 mov	 eax, DWORD PTR __Last_ch$[ebp]
  0001b	2b 45 fc	 sub	 eax, DWORD PTR __First_ch$[ebp]
  0001e	89 45 f4	 mov	 DWORD PTR __Count$[ebp], eax

; 4365 :     _CSTD memmove(_Dest_ch, _First_ch, _Count);

  00021	ff 75 f4	 push	 DWORD PTR __Count$[ebp]
  00024	ff 75 fc	 push	 DWORD PTR __First_ch$[ebp]
  00027	ff 75 f8	 push	 DWORD PTR __Dest_ch$[ebp]
  0002a	e8 00 00 00 00	 call	 _memmove
  0002f	83 c4 0c	 add	 esp, 12			; 0000000cH

; 4366 :     return reinterpret_cast<_OutIt>(_Dest_ch + _Count);

  00032	8b 45 f8	 mov	 eax, DWORD PTR __Dest_ch$[ebp]
  00035	03 45 f4	 add	 eax, DWORD PTR __Count$[ebp]

; 4367 : }

  00038	c9		 leave
  00039	c3		 ret	 0
??$_Copy_memmove@PAPAVCWeaponTrace@@PAPAV1@@std@@YAPAPAVCWeaponTrace@@PAPAV1@00@Z ENDP ; std::_Copy_memmove<CWeaponTrace * *,CWeaponTrace * *>
_TEXT	ENDS
; Function compile flags: /Odspy
; File C:\Program Files (x86)\Microsoft Visual Studio\2019\Community\VC\Tools\MSVC\14.28.29333\include\xmemory
; File C:\Program Files (x86)\Microsoft Visual Studio\2019\Community\VC\Tools\MSVC\14.28.29333\include\type_traits
; File C:\Program Files (x86)\Microsoft Visual Studio\2019\Community\VC\Tools\MSVC\14.28.29333\include\xmemory
; File C:\Program Files (x86)\Microsoft Visual Studio\2019\Community\VC\Tools\MSVC\14.28.29333\include\xstddef
; File C:\Program Files (x86)\Microsoft Visual Studio\2019\Community\VC\Tools\MSVC\14.28.29333\include\xmemory
; File C:\Program Files (x86)\Microsoft Visual Studio\2019\Community\VC\Tools\MSVC\14.28.29333\include\vcruntime_new.h
; File C:\Program Files (x86)\Microsoft Visual Studio\2019\Community\VC\Tools\MSVC\14.28.29333\include\type_traits
; File C:\Program Files (x86)\Microsoft Visual Studio\2019\Community\VC\Tools\MSVC\14.28.29333\include\xmemory
;	COMDAT ??$_Uninitialized_move@PAUSPDTVertex@@V?$allocator@USPDTVertex@@@std@@@std@@YAPAUSPDTVertex@@QAU1@0PAU1@AAV?$allocator@USPDTVertex@@@0@@Z
_TEXT	SEGMENT
__Backout$1 = -52					; size = 12
___formal$ = -40					; size = 4
$T2 = -36						; size = 4
$T3 = -32						; size = 4
$T4 = -28						; size = 4
$T5 = -24						; size = 4
$T6 = -20						; size = 4
__Ptr$ = -16						; size = 4
$T7 = -12						; size = 4
__ULast$ = -8						; size = 4
__UFirst$ = -4						; size = 4
__First$ = 8						; size = 4
__Last$ = 12						; size = 4
__Dest$ = 16						; size = 4
__Al$ = 20						; size = 4
??$_Uninitialized_move@PAUSPDTVertex@@V?$allocator@USPDTVertex@@@std@@@std@@YAPAUSPDTVertex@@QAU1@0PAU1@AAV?$allocator@USPDTVertex@@@0@@Z PROC ; std::_Uninitialized_move<SPDTVertex *,std::allocator<SPDTVertex> >, COMDAT

; 1685 :     const _InIt _First, const _InIt _Last, _Alloc_ptr_t<_Alloc> _Dest, _Alloc& _Al) {

  00000	55		 push	 ebp
  00001	8b ec		 mov	 ebp, esp
  00003	83 ec 34	 sub	 esp, 52			; 00000034H
  00006	56		 push	 esi
  00007	57		 push	 edi

; 1686 :     // move [_First, _Last) to raw _Dest, using _Al
; 1687 :     // note: only called internally from elsewhere in the STL
; 1688 :     using _Ptrval     = typename _Alloc::value_type*;
; 1689 :     auto _UFirst      = _Get_unwrapped(_First);

  00008	8b 45 08	 mov	 eax, DWORD PTR __First$[ebp]
  0000b	89 45 fc	 mov	 DWORD PTR __UFirst$[ebp], eax

; 1690 :     const auto _ULast = _Get_unwrapped(_Last);

  0000e	8b 45 0c	 mov	 eax, DWORD PTR __Last$[ebp]
  00011	89 45 f8	 mov	 DWORD PTR __ULast$[ebp], eax

; 1535 :     _Uninitialized_backout_al(pointer _Dest, _Alloc& _Al_) : _First(_Dest), _Last(_Dest), _Al(_Al_) {}

  00014	8b 45 10	 mov	 eax, DWORD PTR __Dest$[ebp]
  00017	89 45 cc	 mov	 DWORD PTR __Backout$1[ebp], eax
  0001a	8b 45 10	 mov	 eax, DWORD PTR __Dest$[ebp]
  0001d	89 45 d0	 mov	 DWORD PTR __Backout$1[ebp+4], eax
  00020	8b 45 14	 mov	 eax, DWORD PTR __Al$[ebp]
  00023	89 45 d4	 mov	 DWORD PTR __Backout$1[ebp+8], eax

; 1691 :     if constexpr (conjunction_v<bool_constant<_Ptr_move_cat<decltype(_UFirst), _Ptrval>::_Really_trivial>,
; 1692 :                       _Uses_default_construct<_Alloc, _Ptrval, decltype(_STD move(*_UFirst))>>) {
; 1693 :         _Copy_memmove(_UFirst, _ULast, _Unfancy(_Dest));
; 1694 :         return _Dest + (_ULast - _UFirst);
; 1695 :     } else {
; 1696 :         _Uninitialized_backout_al<_Alloc> _Backout{_Dest, _Al};
; 1697 :         for (; _UFirst != _ULast; ++_UFirst) {

  00026	eb 09		 jmp	 SHORT $LN4@Uninitiali
$LN2@Uninitiali:
  00028	8b 45 fc	 mov	 eax, DWORD PTR __UFirst$[ebp]
  0002b	83 c0 18	 add	 eax, 24			; 00000018H
  0002e	89 45 fc	 mov	 DWORD PTR __UFirst$[ebp], eax
$LN4@Uninitiali:
  00031	8b 45 fc	 mov	 eax, DWORD PTR __UFirst$[ebp]
  00034	3b 45 f8	 cmp	 eax, DWORD PTR __ULast$[ebp]
  00037	74 40		 je	 SHORT $LN3@Uninitiali
; File C:\Program Files (x86)\Microsoft Visual Studio\2019\Community\VC\Tools\MSVC\14.28.29333\include\type_traits

; 1455 :     return static_cast<remove_reference_t<_Ty>&&>(_Arg);

  00039	8b 45 fc	 mov	 eax, DWORD PTR __UFirst$[ebp]
  0003c	89 45 f4	 mov	 DWORD PTR $T7[ebp], eax

; 1443 :     return static_cast<_Ty&&>(_Arg);

  0003f	8b 45 f4	 mov	 eax, DWORD PTR $T7[ebp]
  00042	89 45 e8	 mov	 DWORD PTR $T5[ebp], eax
; File C:\Program Files (x86)\Microsoft Visual Studio\2019\Community\VC\Tools\MSVC\14.28.29333\include\xmemory

; 1546 :         allocator_traits<_Alloc>::construct(_Al, _Unfancy(_Last), _STD forward<_Types>(_Vals)...);

  00045	8b 45 d0	 mov	 eax, DWORD PTR __Backout$1[ebp+4]
  00048	89 45 f0	 mov	 DWORD PTR __Ptr$[ebp], eax
; File C:\Program Files (x86)\Microsoft Visual Studio\2019\Community\VC\Tools\MSVC\14.28.29333\include\xstddef

; 289  :     return _Ptr;

  0004b	8b 45 f0	 mov	 eax, DWORD PTR __Ptr$[ebp]
  0004e	89 45 ec	 mov	 DWORD PTR $T6[ebp], eax
; File C:\Program Files (x86)\Microsoft Visual Studio\2019\Community\VC\Tools\MSVC\14.28.29333\include\xmemory

; 1546 :         allocator_traits<_Alloc>::construct(_Al, _Unfancy(_Last), _STD forward<_Types>(_Vals)...);

  00051	8b 45 d4	 mov	 eax, DWORD PTR __Backout$1[ebp+8]
  00054	89 45 d8	 mov	 DWORD PTR ___formal$[ebp], eax
; File C:\Program Files (x86)\Microsoft Visual Studio\2019\Community\VC\Tools\MSVC\14.28.29333\include\vcruntime_new.h

; 169  :         return _Where;

  00057	8b 45 ec	 mov	 eax, DWORD PTR $T6[ebp]
  0005a	89 45 e0	 mov	 DWORD PTR $T3[ebp], eax
; File C:\Program Files (x86)\Microsoft Visual Studio\2019\Community\VC\Tools\MSVC\14.28.29333\include\type_traits

; 1443 :     return static_cast<_Ty&&>(_Arg);

  0005d	8b 45 e8	 mov	 eax, DWORD PTR $T5[ebp]
  00060	89 45 e4	 mov	 DWORD PTR $T4[ebp], eax
; File C:\Program Files (x86)\Microsoft Visual Studio\2019\Community\VC\Tools\MSVC\14.28.29333\include\xmemory

; 701  :         ::new (const_cast<void*>(static_cast<const volatile void*>(_Ptr))) _Objty(_STD forward<_Types>(_Args)...);

  00063	6a 06		 push	 6
  00065	59		 pop	 ecx
  00066	8b 75 e4	 mov	 esi, DWORD PTR $T4[ebp]
  00069	8b 7d e0	 mov	 edi, DWORD PTR $T3[ebp]
  0006c	f3 a5		 rep movsd

; 1547 :         ++_Last;

  0006e	8b 45 d0	 mov	 eax, DWORD PTR __Backout$1[ebp+4]
  00071	83 c0 18	 add	 eax, 24			; 00000018H
  00074	89 45 d0	 mov	 DWORD PTR __Backout$1[ebp+4], eax

; 1698 :             _Backout._Emplace_back(_STD move(*_UFirst));
; 1699 :         }

  00077	eb af		 jmp	 SHORT $LN2@Uninitiali
$LN3@Uninitiali:

; 1551 :         _First = _Last;

  00079	8b 45 d0	 mov	 eax, DWORD PTR __Backout$1[ebp+4]
  0007c	89 45 cc	 mov	 DWORD PTR __Backout$1[ebp], eax

; 1552 :         return _Last;

  0007f	8b 45 d0	 mov	 eax, DWORD PTR __Backout$1[ebp+4]
  00082	89 45 dc	 mov	 DWORD PTR $T2[ebp], eax

; 1541 :         _Destroy_range(_First, _Last, _Al);

  00085	ff 75 d4	 push	 DWORD PTR __Backout$1[ebp+8]
  00088	ff 75 d0	 push	 DWORD PTR __Backout$1[ebp+4]
  0008b	ff 75 cc	 push	 DWORD PTR __Backout$1[ebp]
  0008e	e8 00 00 00 00	 call	 ??$_Destroy_range@V?$allocator@USPDTVertex@@@std@@@std@@YAXPAUSPDTVertex@@QAU1@AAV?$allocator@USPDTVertex@@@0@@Z ; std::_Destroy_range<std::allocator<SPDTVertex> >
  00093	83 c4 0c	 add	 esp, 12			; 0000000cH

; 1700 : 
; 1701 :         return _Backout._Release();

  00096	8b 45 dc	 mov	 eax, DWORD PTR $T2[ebp]

; 1702 :     }
; 1703 : }

  00099	5f		 pop	 edi
  0009a	5e		 pop	 esi
  0009b	c9		 leave
  0009c	c3		 ret	 0
??$_Uninitialized_move@PAUSPDTVertex@@V?$allocator@USPDTVertex@@@std@@@std@@YAPAUSPDTVertex@@QAU1@0PAU1@AAV?$allocator@USPDTVertex@@@0@@Z ENDP ; std::_Uninitialized_move<SPDTVertex *,std::allocator<SPDTVertex> >
_TEXT	ENDS
; Function compile flags: /Odspy
; File C:\Program Files (x86)\Microsoft Visual Studio\2019\Community\VC\Tools\MSVC\14.28.29333\include\xmemory
; File C:\Program Files (x86)\Microsoft Visual Studio\2019\Community\VC\Tools\MSVC\14.28.29333\include\xstddef
; File C:\Program Files (x86)\Microsoft Visual Studio\2019\Community\VC\Tools\MSVC\14.28.29333\include\xmemory
;	COMDAT ??$_Uninitialized_move@PAPAVCWeaponTrace@@V?$allocator@PAVCWeaponTrace@@@std@@@std@@YAPAPAVCWeaponTrace@@QAPAV1@0PAPAV1@AAV?$allocator@PAVCWeaponTrace@@@0@@Z
_TEXT	SEGMENT
$T1 = -12						; size = 4
__UFirst$ = -8						; size = 4
__ULast$ = -4						; size = 4
__First$ = 8						; size = 4
__Last$ = 12						; size = 4
__Dest$ = 16						; size = 4
__Al$ = 20						; size = 4
??$_Uninitialized_move@PAPAVCWeaponTrace@@V?$allocator@PAVCWeaponTrace@@@std@@@std@@YAPAPAVCWeaponTrace@@QAPAV1@0PAPAV1@AAV?$allocator@PAVCWeaponTrace@@@0@@Z PROC ; std::_Uninitialized_move<CWeaponTrace * *,std::allocator<CWeaponTrace *> >, COMDAT

; 1685 :     const _InIt _First, const _InIt _Last, _Alloc_ptr_t<_Alloc> _Dest, _Alloc& _Al) {

  00000	55		 push	 ebp
  00001	8b ec		 mov	 ebp, esp
  00003	83 ec 0c	 sub	 esp, 12			; 0000000cH

; 1686 :     // move [_First, _Last) to raw _Dest, using _Al
; 1687 :     // note: only called internally from elsewhere in the STL
; 1688 :     using _Ptrval     = typename _Alloc::value_type*;
; 1689 :     auto _UFirst      = _Get_unwrapped(_First);

  00006	8b 45 08	 mov	 eax, DWORD PTR __First$[ebp]
  00009	89 45 f8	 mov	 DWORD PTR __UFirst$[ebp], eax

; 1690 :     const auto _ULast = _Get_unwrapped(_Last);

  0000c	8b 45 0c	 mov	 eax, DWORD PTR __Last$[ebp]
  0000f	89 45 fc	 mov	 DWORD PTR __ULast$[ebp], eax
; File C:\Program Files (x86)\Microsoft Visual Studio\2019\Community\VC\Tools\MSVC\14.28.29333\include\xstddef

; 289  :     return _Ptr;

  00012	8b 45 10	 mov	 eax, DWORD PTR __Dest$[ebp]
  00015	89 45 f4	 mov	 DWORD PTR $T1[ebp], eax
; File C:\Program Files (x86)\Microsoft Visual Studio\2019\Community\VC\Tools\MSVC\14.28.29333\include\xmemory

; 1693 :         _Copy_memmove(_UFirst, _ULast, _Unfancy(_Dest));

  00018	ff 75 f4	 push	 DWORD PTR $T1[ebp]
  0001b	ff 75 fc	 push	 DWORD PTR __ULast$[ebp]
  0001e	ff 75 f8	 push	 DWORD PTR __UFirst$[ebp]
  00021	e8 00 00 00 00	 call	 ??$_Copy_memmove@PAPAVCWeaponTrace@@PAPAV1@@std@@YAPAPAVCWeaponTrace@@PAPAV1@00@Z ; std::_Copy_memmove<CWeaponTrace * *,CWeaponTrace * *>
  00026	83 c4 0c	 add	 esp, 12			; 0000000cH

; 1694 :         return _Dest + (_ULast - _UFirst);

  00029	8b 45 fc	 mov	 eax, DWORD PTR __ULast$[ebp]
  0002c	2b 45 f8	 sub	 eax, DWORD PTR __UFirst$[ebp]
  0002f	c1 f8 02	 sar	 eax, 2
  00032	8b 4d 10	 mov	 ecx, DWORD PTR __Dest$[ebp]
  00035	8d 04 81	 lea	 eax, DWORD PTR [ecx+eax*4]

; 1695 :     } else {
; 1696 :         _Uninitialized_backout_al<_Alloc> _Backout{_Dest, _Al};
; 1697 :         for (; _UFirst != _ULast; ++_UFirst) {
; 1698 :             _Backout._Emplace_back(_STD move(*_UFirst));
; 1699 :         }
; 1700 : 
; 1701 :         return _Backout._Release();
; 1702 :     }
; 1703 : }

  00038	c9		 leave
  00039	c3		 ret	 0
??$_Uninitialized_move@PAPAVCWeaponTrace@@V?$allocator@PAVCWeaponTrace@@@std@@@std@@YAPAPAVCWeaponTrace@@QAPAV1@0PAPAV1@AAV?$allocator@PAVCWeaponTrace@@@0@@Z ENDP ; std::_Uninitialized_move<CWeaponTrace * *,std::allocator<CWeaponTrace *> >
_TEXT	ENDS
; Function compile flags: /Odspy
; File C:\Program Files (x86)\Microsoft Visual Studio\2019\Community\VC\Tools\MSVC\14.28.29333\include\xmemory
;	COMDAT ??$_Zero_range@PAPAU?$pair@MUD3DXVECTOR3@@@std@@@std@@YAPAPAU?$pair@MUD3DXVECTOR3@@@0@QAPAU10@0@Z
_TEXT	SEGMENT
__Last_ch$ = -8						; size = 4
__First_ch$ = -4					; size = 4
__First$ = 8						; size = 4
__Last$ = 12						; size = 4
??$_Zero_range@PAPAU?$pair@MUD3DXVECTOR3@@@std@@@std@@YAPAPAU?$pair@MUD3DXVECTOR3@@@0@QAPAU10@0@Z PROC ; std::_Zero_range<std::pair<float,D3DXVECTOR3> * *>, COMDAT

; 1852 : _Ptr _Zero_range(const _Ptr _First, const _Ptr _Last) { // fill [_First, _Last) with zeroes

  00000	55		 push	 ebp
  00001	8b ec		 mov	 ebp, esp
  00003	51		 push	 ecx
  00004	51		 push	 ecx

; 1853 :     char* const _First_ch = reinterpret_cast<char*>(_First);

  00005	8b 45 08	 mov	 eax, DWORD PTR __First$[ebp]
  00008	89 45 fc	 mov	 DWORD PTR __First_ch$[ebp], eax

; 1854 :     char* const _Last_ch  = reinterpret_cast<char*>(_Last);

  0000b	8b 45 0c	 mov	 eax, DWORD PTR __Last$[ebp]
  0000e	89 45 f8	 mov	 DWORD PTR __Last_ch$[ebp], eax

; 1855 :     _CSTD memset(_First_ch, 0, static_cast<size_t>(_Last_ch - _First_ch));

  00011	8b 45 f8	 mov	 eax, DWORD PTR __Last_ch$[ebp]
  00014	2b 45 fc	 sub	 eax, DWORD PTR __First_ch$[ebp]
  00017	50		 push	 eax
  00018	6a 00		 push	 0
  0001a	ff 75 fc	 push	 DWORD PTR __First_ch$[ebp]
  0001d	e8 00 00 00 00	 call	 _memset
  00022	83 c4 0c	 add	 esp, 12			; 0000000cH

; 1856 :     return _Last;

  00025	8b 45 0c	 mov	 eax, DWORD PTR __Last$[ebp]

; 1857 : }

  00028	c9		 leave
  00029	c3		 ret	 0
??$_Zero_range@PAPAU?$pair@MUD3DXVECTOR3@@@std@@@std@@YAPAPAU?$pair@MUD3DXVECTOR3@@@0@QAPAU10@0@Z ENDP ; std::_Zero_range<std::pair<float,D3DXVECTOR3> * *>
_TEXT	ENDS
; Function compile flags: /Odspy
; File C:\Program Files (x86)\Microsoft Visual Studio\2019\Community\VC\Tools\MSVC\14.28.29333\include\xutility
;	COMDAT ??$_Copy_memmove@PAPAU?$pair@MUD3DXVECTOR3@@@std@@PAPAU12@@std@@YAPAPAU?$pair@MUD3DXVECTOR3@@@0@PAPAU10@00@Z
_TEXT	SEGMENT
__Last_ch$ = -16					; size = 4
__Count$ = -12						; size = 4
__Dest_ch$ = -8						; size = 4
__First_ch$ = -4					; size = 4
__First$ = 8						; size = 4
__Last$ = 12						; size = 4
__Dest$ = 16						; size = 4
??$_Copy_memmove@PAPAU?$pair@MUD3DXVECTOR3@@@std@@PAPAU12@@std@@YAPAPAU?$pair@MUD3DXVECTOR3@@@0@PAPAU10@00@Z PROC ; std::_Copy_memmove<std::pair<float,D3DXVECTOR3> * *,std::pair<float,D3DXVECTOR3> * *>, COMDAT

; 4360 : _OutIt _Copy_memmove(_InIt _First, _InIt _Last, _OutIt _Dest) {

  00000	55		 push	 ebp
  00001	8b ec		 mov	 ebp, esp
  00003	83 ec 10	 sub	 esp, 16			; 00000010H

; 4361 :     const char* const _First_ch = const_cast<const char*>(reinterpret_cast<const volatile char*>(_First));

  00006	8b 45 08	 mov	 eax, DWORD PTR __First$[ebp]
  00009	89 45 fc	 mov	 DWORD PTR __First_ch$[ebp], eax

; 4362 :     const char* const _Last_ch  = const_cast<const char*>(reinterpret_cast<const volatile char*>(_Last));

  0000c	8b 45 0c	 mov	 eax, DWORD PTR __Last$[ebp]
  0000f	89 45 f0	 mov	 DWORD PTR __Last_ch$[ebp], eax

; 4363 :     char* const _Dest_ch        = const_cast<char*>(reinterpret_cast<volatile char*>(_Dest));

  00012	8b 45 10	 mov	 eax, DWORD PTR __Dest$[ebp]
  00015	89 45 f8	 mov	 DWORD PTR __Dest_ch$[ebp], eax

; 4364 :     const auto _Count           = static_cast<size_t>(_Last_ch - _First_ch);

  00018	8b 45 f0	 mov	 eax, DWORD PTR __Last_ch$[ebp]
  0001b	2b 45 fc	 sub	 eax, DWORD PTR __First_ch$[ebp]
  0001e	89 45 f4	 mov	 DWORD PTR __Count$[ebp], eax

; 4365 :     _CSTD memmove(_Dest_ch, _First_ch, _Count);

  00021	ff 75 f4	 push	 DWORD PTR __Count$[ebp]
  00024	ff 75 fc	 push	 DWORD PTR __First_ch$[ebp]
  00027	ff 75 f8	 push	 DWORD PTR __Dest_ch$[ebp]
  0002a	e8 00 00 00 00	 call	 _memmove
  0002f	83 c4 0c	 add	 esp, 12			; 0000000cH

; 4366 :     return reinterpret_cast<_OutIt>(_Dest_ch + _Count);

  00032	8b 45 f8	 mov	 eax, DWORD PTR __Dest_ch$[ebp]
  00035	03 45 f4	 add	 eax, DWORD PTR __Count$[ebp]

; 4367 : }

  00038	c9		 leave
  00039	c3		 ret	 0
??$_Copy_memmove@PAPAU?$pair@MUD3DXVECTOR3@@@std@@PAPAU12@@std@@YAPAPAU?$pair@MUD3DXVECTOR3@@@0@PAPAU10@00@Z ENDP ; std::_Copy_memmove<std::pair<float,D3DXVECTOR3> * *,std::pair<float,D3DXVECTOR3> * *>
_TEXT	ENDS
; Function compile flags: /Odspy
; File C:\Program Files (x86)\Microsoft Visual Studio\2019\Community\VC\Tools\MSVC\14.28.29333\include\xmemory
; File C:\Program Files (x86)\Microsoft Visual Studio\2019\Community\VC\Tools\MSVC\14.28.29333\include\xstddef
; File C:\Program Files (x86)\Microsoft Visual Studio\2019\Community\VC\Tools\MSVC\14.28.29333\include\vcruntime_new.h
; File C:\Program Files (x86)\Microsoft Visual Studio\2019\Community\VC\Tools\MSVC\14.28.29333\include\type_traits
; File C:\Program Files (x86)\Microsoft Visual Studio\2019\Community\VC\Tools\MSVC\14.28.29333\include\xmemory
;	COMDAT ??$_Construct_in_place@U_Container_proxy@std@@PAU_Container_base12@2@@std@@YAXAAU_Container_proxy@0@$$QAPAU_Container_base12@0@@Z
_TEXT	SEGMENT
__Mycont_$ = -16					; size = 4
$T1 = -12						; size = 4
$T2 = -8						; size = 4
$T3 = -4						; size = 4
__Obj$ = 8						; size = 4
_<_Args_0>$ = 12					; size = 4
??$_Construct_in_place@U_Container_proxy@std@@PAU_Container_base12@2@@std@@YAXAAU_Container_proxy@0@$$QAPAU_Container_base12@0@@Z PROC ; std::_Construct_in_place<std::_Container_proxy,std::_Container_base12 *>, COMDAT

; 228  : void _Construct_in_place(_Ty& _Obj, _Types&&... _Args) noexcept(is_nothrow_constructible_v<_Ty, _Types...>) {

  00000	55		 push	 ebp
  00001	8b ec		 mov	 ebp, esp
  00003	83 ec 10	 sub	 esp, 16			; 00000010H
; File C:\Program Files (x86)\Microsoft Visual Studio\2019\Community\VC\Tools\MSVC\14.28.29333\include\xstddef

; 275  :     return __builtin_addressof(_Val);

  00006	8b 45 08	 mov	 eax, DWORD PTR __Obj$[ebp]
  00009	89 45 f8	 mov	 DWORD PTR $T2[ebp], eax
; File C:\Program Files (x86)\Microsoft Visual Studio\2019\Community\VC\Tools\MSVC\14.28.29333\include\vcruntime_new.h

; 169  :         return _Where;

  0000c	8b 45 f8	 mov	 eax, DWORD PTR $T2[ebp]
  0000f	89 45 fc	 mov	 DWORD PTR $T3[ebp], eax
; File C:\Program Files (x86)\Microsoft Visual Studio\2019\Community\VC\Tools\MSVC\14.28.29333\include\type_traits

; 1443 :     return static_cast<_Ty&&>(_Arg);

  00012	8b 45 0c	 mov	 eax, DWORD PTR _<_Args_0>$[ebp]
  00015	89 45 f4	 mov	 DWORD PTR $T1[ebp], eax
; File C:\Program Files (x86)\Microsoft Visual Studio\2019\Community\VC\Tools\MSVC\14.28.29333\include\xmemory

; 229  :     ::new (const_cast<void*>(static_cast<const volatile void*>(_STD addressof(_Obj))))

  00018	8b 45 f4	 mov	 eax, DWORD PTR $T1[ebp]
  0001b	8b 00		 mov	 eax, DWORD PTR [eax]
  0001d	89 45 f0	 mov	 DWORD PTR __Mycont_$[ebp], eax

; 1089 :     _Container_proxy(_Container_base12* _Mycont_) noexcept : _Mycont(_Mycont_), _Myfirstiter(nullptr) {}

  00020	8b 45 fc	 mov	 eax, DWORD PTR $T3[ebp]
  00023	8b 4d f0	 mov	 ecx, DWORD PTR __Mycont_$[ebp]
  00026	89 08		 mov	 DWORD PTR [eax], ecx
  00028	8b 45 fc	 mov	 eax, DWORD PTR $T3[ebp]
  0002b	83 60 04 00	 and	 DWORD PTR [eax+4], 0

; 230  :         _Ty(_STD forward<_Types>(_Args)...);
; 231  : }

  0002f	c9		 leave
  00030	c3		 ret	 0
??$_Construct_in_place@U_Container_proxy@std@@PAU_Container_base12@2@@std@@YAXAAU_Container_proxy@0@$$QAPAU_Container_base12@0@@Z ENDP ; std::_Construct_in_place<std::_Container_proxy,std::_Container_base12 *>
_TEXT	ENDS
; Function compile flags: /Odspy
; File C:\Program Files (x86)\Microsoft Visual Studio\2019\Community\VC\Tools\MSVC\14.28.29333\include\xmemory
;	COMDAT ??$_Deallocate_plain@V?$allocator@U_Container_proxy@std@@@std@@@std@@YAXAAV?$allocator@U_Container_proxy@std@@@0@QAU_Container_proxy@0@@Z
_TEXT	SEGMENT
__Al$ = 8						; size = 4
__Ptr$ = 12						; size = 4
??$_Deallocate_plain@V?$allocator@U_Container_proxy@std@@@std@@@std@@YAXAAV?$allocator@U_Container_proxy@std@@@0@QAU_Container_proxy@0@@Z PROC ; std::_Deallocate_plain<std::allocator<std::_Container_proxy> >, COMDAT

; 1003 : void _Deallocate_plain(_Alloc& _Al, typename _Alloc::value_type* const _Ptr) noexcept {

  00000	55		 push	 ebp
  00001	8b ec		 mov	 ebp, esp

; 696  :         _Deallocate<_New_alignof<value_type>>(_Ptr, sizeof(value_type) * _Count);

  00003	33 c0		 xor	 eax, eax
  00005	40		 inc	 eax
  00006	c1 e0 03	 shl	 eax, 3
  00009	50		 push	 eax
  0000a	ff 75 0c	 push	 DWORD PTR __Ptr$[ebp]
  0000d	e8 00 00 00 00	 call	 ??$_Deallocate@$07$0A@@std@@YAXPAXI@Z ; std::_Deallocate<8,0>
  00012	59		 pop	 ecx
  00013	59		 pop	 ecx

; 1004 :     // deallocate a plain pointer using an allocator
; 1005 :     using _Alloc_traits = allocator_traits<_Alloc>;
; 1006 :     if constexpr (is_same_v<_Alloc_ptr_t<_Alloc>, typename _Alloc::value_type*>) {
; 1007 :         _Alloc_traits::deallocate(_Al, _Ptr, 1);
; 1008 :     } else {
; 1009 :         using _Ptr_traits = pointer_traits<_Alloc_ptr_t<_Alloc>>;
; 1010 :         _Alloc_traits::deallocate(_Al, _Ptr_traits::pointer_to(*_Ptr), 1);
; 1011 :     }
; 1012 : }

  00014	5d		 pop	 ebp
  00015	c3		 ret	 0
??$_Deallocate_plain@V?$allocator@U_Container_proxy@std@@@std@@@std@@YAXAAV?$allocator@U_Container_proxy@std@@@0@QAU_Container_proxy@0@@Z ENDP ; std::_Deallocate_plain<std::allocator<std::_Container_proxy> >
_TEXT	ENDS
; Function compile flags: /Odspy
; File C:\Program Files (x86)\Microsoft Visual Studio\2019\Community\VC\Tools\MSVC\14.28.29333\include\xutility
; File C:\Program Files (x86)\Microsoft Visual Studio\2019\Community\VC\Tools\MSVC\14.28.29333\include\deque
; File C:\Program Files (x86)\Microsoft Visual Studio\2019\Community\VC\Tools\MSVC\14.28.29333\include\xutility
; File C:\Program Files (x86)\Microsoft Visual Studio\2019\Community\VC\Tools\MSVC\14.28.29333\include\deque
; File C:\Program Files (x86)\Microsoft Visual Studio\2019\Community\VC\Tools\MSVC\14.28.29333\include\type_traits
; File C:\Program Files (x86)\Microsoft Visual Studio\2019\Community\VC\Tools\MSVC\14.28.29333\include\deque
; File C:\Program Files (x86)\Microsoft Visual Studio\2019\Community\VC\Tools\MSVC\14.28.29333\include\utility
; File C:\Program Files (x86)\Microsoft Visual Studio\2019\Community\VC\Tools\MSVC\14.28.29333\include\type_traits
; File C:\Program Files (x86)\Microsoft Visual Studio\2019\Community\VC\Tools\MSVC\14.28.29333\include\utility
; File C:\Program Files (x86)\Microsoft Visual Studio\2019\Community\VC\Tools\MSVC\14.28.29333\include\type_traits
; File C:\Program Files (x86)\Microsoft Visual Studio\2019\Community\VC\Tools\MSVC\14.28.29333\include\utility
; File C:\Program Files (x86)\Microsoft Visual Studio\2019\Community\VC\Tools\MSVC\14.28.29333\include\xutility
;	COMDAT ??$_Move_unchecked@V?$_Deque_unchecked_iterator@V?$_Deque_val@U?$_Deque_simple_types@U?$pair@MUD3DXVECTOR3@@@std@@@std@@@std@@@std@@V12@@std@@YA?AV?$_Deque_unchecked_iterator@V?$_Deque_val@U?$_Deque_simple_types@U?$pair@MUD3DXVECTOR3@@@std@@@std@@@std@@@0@V10@00@Z
_TEXT	SEGMENT
$T1 = -32						; size = 4
$T2 = -28						; size = 4
$T3 = -24						; size = 4
$T4 = -20						; size = 4
$T5 = -16						; size = 4
tv136 = -12						; size = 4
tv141 = -8						; size = 4
$T6 = -2						; size = 1
$T7 = -1						; size = 1
___$ReturnUdt$ = 8					; size = 4
__First$ = 12						; size = 8
__Last$ = 20						; size = 8
__Dest$ = 28						; size = 8
??$_Move_unchecked@V?$_Deque_unchecked_iterator@V?$_Deque_val@U?$_Deque_simple_types@U?$pair@MUD3DXVECTOR3@@@std@@@std@@@std@@@std@@V12@@std@@YA?AV?$_Deque_unchecked_iterator@V?$_Deque_val@U?$_Deque_simple_types@U?$pair@MUD3DXVECTOR3@@@std@@@std@@@std@@@0@V10@00@Z PROC ; std::_Move_unchecked<std::_Deque_unchecked_iterator<std::_Deque_val<std::_Deque_simple_types<std::pair<float,D3DXVECTOR3> > > >,std::_Deque_unchecked_iterator<std::_Deque_val<std::_Deque_simple_types<std::pair<float,D3DXVECTOR3> > > > >, COMDAT

; 4620 : _CONSTEXPR20 _OutIt _Move_unchecked(_InIt _First, _InIt _Last, _OutIt _Dest) {

  00000	55		 push	 ebp
  00001	8b ec		 mov	 ebp, esp
  00003	83 ec 20	 sub	 esp, 32			; 00000020H
  00006	56		 push	 esi
  00007	57		 push	 edi

; 4632 :     for (; _First != _Last; ++_Dest, (void) ++_First) {

  00008	eb 0e		 jmp	 SHORT $LN12@Move_unche
$LN2@Move_unche:
; File C:\Program Files (x86)\Microsoft Visual Studio\2019\Community\VC\Tools\MSVC\14.28.29333\include\deque

; 65   :         ++_Myoff;

  0000a	8b 45 20	 mov	 eax, DWORD PTR __Dest$[ebp+4]
  0000d	40		 inc	 eax
  0000e	89 45 20	 mov	 DWORD PTR __Dest$[ebp+4], eax
  00011	8b 45 10	 mov	 eax, DWORD PTR __First$[ebp+4]
  00014	40		 inc	 eax
  00015	89 45 10	 mov	 DWORD PTR __First$[ebp+4], eax
$LN12@Move_unche:

; 115  :         return _Myoff == _Right._Myoff;

  00018	8b 45 10	 mov	 eax, DWORD PTR __First$[ebp+4]
  0001b	3b 45 18	 cmp	 eax, DWORD PTR __Last$[ebp+4]
  0001e	75 09		 jne	 SHORT $LN25@Move_unche
  00020	c7 45 f8 01 00
	00 00		 mov	 DWORD PTR tv141[ebp], 1
  00027	eb 04		 jmp	 SHORT $LN26@Move_unche
$LN25@Move_unche:
  00029	83 65 f8 00	 and	 DWORD PTR tv141[ebp], 0
$LN26@Move_unche:
  0002d	8a 45 f8	 mov	 al, BYTE PTR tv141[ebp]
  00030	88 45 ff	 mov	 BYTE PTR $T7[ebp], al

; 119  :         return !(*this == _Right);

  00033	0f b6 45 ff	 movzx	 eax, BYTE PTR $T7[ebp]
  00037	85 c0		 test	 eax, eax
  00039	75 09		 jne	 SHORT $LN20@Move_unche
  0003b	c7 45 f4 01 00
	00 00		 mov	 DWORD PTR tv136[ebp], 1
  00042	eb 04		 jmp	 SHORT $LN21@Move_unche
$LN20@Move_unche:
  00044	83 65 f4 00	 and	 DWORD PTR tv136[ebp], 0
$LN21@Move_unche:
  00048	8a 45 f4	 mov	 al, BYTE PTR tv136[ebp]
  0004b	88 45 fe	 mov	 BYTE PTR $T6[ebp], al
; File C:\Program Files (x86)\Microsoft Visual Studio\2019\Community\VC\Tools\MSVC\14.28.29333\include\xutility

; 4632 :     for (; _First != _Last; ++_Dest, (void) ++_First) {

  0004e	0f b6 45 fe	 movzx	 eax, BYTE PTR $T6[ebp]
  00052	85 c0		 test	 eax, eax
  00054	74 46		 je	 SHORT $LN3@Move_unche
; File C:\Program Files (x86)\Microsoft Visual Studio\2019\Community\VC\Tools\MSVC\14.28.29333\include\deque

; 171  :         return const_cast<reference>(_Mybase::operator*());

  00056	8d 4d 0c	 lea	 ecx, DWORD PTR __First$[ebp]
  00059	e8 00 00 00 00	 call	 ??D?$_Deque_unchecked_const_iterator@V?$_Deque_val@U?$_Deque_simple_types@U?$pair@MUD3DXVECTOR3@@@std@@@std@@@std@@@std@@QBEABU?$pair@MUD3DXVECTOR3@@@1@XZ ; std::_Deque_unchecked_const_iterator<std::_Deque_val<std::_Deque_simple_types<std::pair<float,D3DXVECTOR3> > > >::operator*
  0005e	89 45 e8	 mov	 DWORD PTR $T3[ebp], eax
; File C:\Program Files (x86)\Microsoft Visual Studio\2019\Community\VC\Tools\MSVC\14.28.29333\include\type_traits

; 1455 :     return static_cast<remove_reference_t<_Ty>&&>(_Arg);

  00061	8b 45 e8	 mov	 eax, DWORD PTR $T3[ebp]
  00064	89 45 f0	 mov	 DWORD PTR $T5[ebp], eax
; File C:\Program Files (x86)\Microsoft Visual Studio\2019\Community\VC\Tools\MSVC\14.28.29333\include\deque

; 171  :         return const_cast<reference>(_Mybase::operator*());

  00067	8d 4d 1c	 lea	 ecx, DWORD PTR __Dest$[ebp]
  0006a	e8 00 00 00 00	 call	 ??D?$_Deque_unchecked_const_iterator@V?$_Deque_val@U?$_Deque_simple_types@U?$pair@MUD3DXVECTOR3@@@std@@@std@@@std@@@std@@QBEABU?$pair@MUD3DXVECTOR3@@@1@XZ ; std::_Deque_unchecked_const_iterator<std::_Deque_val<std::_Deque_simple_types<std::pair<float,D3DXVECTOR3> > > >::operator*
  0006f	89 45 ec	 mov	 DWORD PTR $T4[ebp], eax
; File C:\Program Files (x86)\Microsoft Visual Studio\2019\Community\VC\Tools\MSVC\14.28.29333\include\utility

; 290  :         first  = _STD forward<_Ty1>(_Right.first);

  00072	8b 45 f0	 mov	 eax, DWORD PTR $T5[ebp]
; File C:\Program Files (x86)\Microsoft Visual Studio\2019\Community\VC\Tools\MSVC\14.28.29333\include\type_traits

; 1443 :     return static_cast<_Ty&&>(_Arg);

  00075	89 45 e4	 mov	 DWORD PTR $T2[ebp], eax
; File C:\Program Files (x86)\Microsoft Visual Studio\2019\Community\VC\Tools\MSVC\14.28.29333\include\utility

; 290  :         first  = _STD forward<_Ty1>(_Right.first);

  00078	8b 45 ec	 mov	 eax, DWORD PTR $T4[ebp]
  0007b	8b 4d e4	 mov	 ecx, DWORD PTR $T2[ebp]
  0007e	8b 09		 mov	 ecx, DWORD PTR [ecx]
  00080	89 08		 mov	 DWORD PTR [eax], ecx

; 291  :         second = _STD forward<_Ty2>(_Right.second);

  00082	8b 45 f0	 mov	 eax, DWORD PTR $T5[ebp]
  00085	83 c0 04	 add	 eax, 4
; File C:\Program Files (x86)\Microsoft Visual Studio\2019\Community\VC\Tools\MSVC\14.28.29333\include\type_traits

; 1443 :     return static_cast<_Ty&&>(_Arg);

  00088	89 45 e0	 mov	 DWORD PTR $T1[ebp], eax
; File C:\Program Files (x86)\Microsoft Visual Studio\2019\Community\VC\Tools\MSVC\14.28.29333\include\utility

; 291  :         second = _STD forward<_Ty2>(_Right.second);

  0008b	8b 7d ec	 mov	 edi, DWORD PTR $T4[ebp]
  0008e	83 c7 04	 add	 edi, 4
  00091	8b 75 e0	 mov	 esi, DWORD PTR $T1[ebp]
  00094	a5		 movsd
  00095	a5		 movsd
  00096	a5		 movsd
; File C:\Program Files (x86)\Microsoft Visual Studio\2019\Community\VC\Tools\MSVC\14.28.29333\include\xutility

; 4634 :     }

  00097	e9 6e ff ff ff	 jmp	 $LN2@Move_unche
$LN3@Move_unche:

; 4635 : 
; 4636 :     return _Dest;

  0009c	8b 45 08	 mov	 eax, DWORD PTR ___$ReturnUdt$[ebp]
  0009f	8b 4d 1c	 mov	 ecx, DWORD PTR __Dest$[ebp]
  000a2	8b 55 20	 mov	 edx, DWORD PTR __Dest$[ebp+4]
  000a5	89 08		 mov	 DWORD PTR [eax], ecx
  000a7	89 50 04	 mov	 DWORD PTR [eax+4], edx
  000aa	8b 45 08	 mov	 eax, DWORD PTR ___$ReturnUdt$[ebp]

; 4637 : }

  000ad	5f		 pop	 edi
  000ae	5e		 pop	 esi
  000af	c9		 leave
  000b0	c3		 ret	 0
??$_Move_unchecked@V?$_Deque_unchecked_iterator@V?$_Deque_val@U?$_Deque_simple_types@U?$pair@MUD3DXVECTOR3@@@std@@@std@@@std@@@std@@V12@@std@@YA?AV?$_Deque_unchecked_iterator@V?$_Deque_val@U?$_Deque_simple_types@U?$pair@MUD3DXVECTOR3@@@std@@@std@@@std@@@0@V10@00@Z ENDP ; std::_Move_unchecked<std::_Deque_unchecked_iterator<std::_Deque_val<std::_Deque_simple_types<std::pair<float,D3DXVECTOR3> > > >,std::_Deque_unchecked_iterator<std::_Deque_val<std::_Deque_simple_types<std::pair<float,D3DXVECTOR3> > > > >
_TEXT	ENDS
; Function compile flags: /Odspy
; File C:\Program Files (x86)\Microsoft Visual Studio\2019\Community\VC\Tools\MSVC\14.28.29333\include\xutility
; File C:\Program Files (x86)\Microsoft Visual Studio\2019\Community\VC\Tools\MSVC\14.28.29333\include\deque
; File C:\Program Files (x86)\Microsoft Visual Studio\2019\Community\VC\Tools\MSVC\14.28.29333\include\xutility
; File C:\Program Files (x86)\Microsoft Visual Studio\2019\Community\VC\Tools\MSVC\14.28.29333\include\deque
; File C:\Program Files (x86)\Microsoft Visual Studio\2019\Community\VC\Tools\MSVC\14.28.29333\include\type_traits
; File C:\Program Files (x86)\Microsoft Visual Studio\2019\Community\VC\Tools\MSVC\14.28.29333\include\deque
; File C:\Program Files (x86)\Microsoft Visual Studio\2019\Community\VC\Tools\MSVC\14.28.29333\include\utility
; File C:\Program Files (x86)\Microsoft Visual Studio\2019\Community\VC\Tools\MSVC\14.28.29333\include\type_traits
; File C:\Program Files (x86)\Microsoft Visual Studio\2019\Community\VC\Tools\MSVC\14.28.29333\include\utility
; File C:\Program Files (x86)\Microsoft Visual Studio\2019\Community\VC\Tools\MSVC\14.28.29333\include\type_traits
; File C:\Program Files (x86)\Microsoft Visual Studio\2019\Community\VC\Tools\MSVC\14.28.29333\include\utility
; File C:\Program Files (x86)\Microsoft Visual Studio\2019\Community\VC\Tools\MSVC\14.28.29333\include\xutility
;	COMDAT ??$_Move_backward_unchecked@V?$_Deque_unchecked_iterator@V?$_Deque_val@U?$_Deque_simple_types@U?$pair@MUD3DXVECTOR3@@@std@@@std@@@std@@@std@@V12@@std@@YA?AV?$_Deque_unchecked_iterator@V?$_Deque_val@U?$_Deque_simple_types@U?$pair@MUD3DXVECTOR3@@@std@@@std@@@std@@@0@V10@00@Z
_TEXT	SEGMENT
$T1 = -40						; size = 4
$T2 = -36						; size = 4
$T3 = -32						; size = 4
$T4 = -28						; size = 4
$T5 = -24						; size = 4
$T6 = -20						; size = 4
$T7 = -16						; size = 4
tv94 = -12						; size = 4
tv131 = -8						; size = 4
$T8 = -2						; size = 1
$T9 = -1						; size = 1
___$ReturnUdt$ = 8					; size = 4
__First$ = 12						; size = 8
__Last$ = 20						; size = 8
__Dest$ = 28						; size = 8
??$_Move_backward_unchecked@V?$_Deque_unchecked_iterator@V?$_Deque_val@U?$_Deque_simple_types@U?$pair@MUD3DXVECTOR3@@@std@@@std@@@std@@@std@@V12@@std@@YA?AV?$_Deque_unchecked_iterator@V?$_Deque_val@U?$_Deque_simple_types@U?$pair@MUD3DXVECTOR3@@@std@@@std@@@std@@@0@V10@00@Z PROC ; std::_Move_backward_unchecked<std::_Deque_unchecked_iterator<std::_Deque_val<std::_Deque_simple_types<std::pair<float,D3DXVECTOR3> > > >,std::_Deque_unchecked_iterator<std::_Deque_val<std::_Deque_simple_types<std::pair<float,D3DXVECTOR3> > > > >, COMDAT

; 4688 : _CONSTEXPR20 _BidIt2 _Move_backward_unchecked(_BidIt1 _First, _BidIt1 _Last, _BidIt2 _Dest) {

  00000	55		 push	 ebp
  00001	8b ec		 mov	 ebp, esp
  00003	83 ec 28	 sub	 esp, 40			; 00000028H
  00006	56		 push	 esi
  00007	57		 push	 edi
$LN2@Move_backw:
; File C:\Program Files (x86)\Microsoft Visual Studio\2019\Community\VC\Tools\MSVC\14.28.29333\include\deque

; 115  :         return _Myoff == _Right._Myoff;

  00008	8b 45 10	 mov	 eax, DWORD PTR __First$[ebp+4]
  0000b	3b 45 18	 cmp	 eax, DWORD PTR __Last$[ebp+4]
  0000e	75 09		 jne	 SHORT $LN12@Move_backw
  00010	c7 45 f8 01 00
	00 00		 mov	 DWORD PTR tv131[ebp], 1
  00017	eb 04		 jmp	 SHORT $LN13@Move_backw
$LN12@Move_backw:
  00019	83 65 f8 00	 and	 DWORD PTR tv131[ebp], 0
$LN13@Move_backw:
  0001d	8a 45 f8	 mov	 al, BYTE PTR tv131[ebp]
  00020	88 45 ff	 mov	 BYTE PTR $T9[ebp], al

; 119  :         return !(*this == _Right);

  00023	0f b6 45 ff	 movzx	 eax, BYTE PTR $T9[ebp]
  00027	85 c0		 test	 eax, eax
  00029	75 09		 jne	 SHORT $LN7@Move_backw
  0002b	c7 45 f4 01 00
	00 00		 mov	 DWORD PTR tv94[ebp], 1
  00032	eb 04		 jmp	 SHORT $LN8@Move_backw
$LN7@Move_backw:
  00034	83 65 f4 00	 and	 DWORD PTR tv94[ebp], 0
$LN8@Move_backw:
  00038	8a 45 f4	 mov	 al, BYTE PTR tv94[ebp]
  0003b	88 45 fe	 mov	 BYTE PTR $T8[ebp], al
; File C:\Program Files (x86)\Microsoft Visual Studio\2019\Community\VC\Tools\MSVC\14.28.29333\include\xutility

; 4700 :     while (_First != _Last) {

  0003e	0f b6 45 fe	 movzx	 eax, BYTE PTR $T8[ebp]
  00042	85 c0		 test	 eax, eax
  00044	74 60		 je	 SHORT $LN3@Move_backw
; File C:\Program Files (x86)\Microsoft Visual Studio\2019\Community\VC\Tools\MSVC\14.28.29333\include\deque

; 76   :         --_Myoff;

  00046	8b 45 18	 mov	 eax, DWORD PTR __Last$[ebp+4]
  00049	48		 dec	 eax
  0004a	89 45 18	 mov	 DWORD PTR __Last$[ebp+4], eax

; 191  :         return *this;

  0004d	8d 45 14	 lea	 eax, DWORD PTR __Last$[ebp]
  00050	89 45 e8	 mov	 DWORD PTR $T5[ebp], eax

; 171  :         return const_cast<reference>(_Mybase::operator*());

  00053	8b 4d e8	 mov	 ecx, DWORD PTR $T5[ebp]
  00056	e8 00 00 00 00	 call	 ??D?$_Deque_unchecked_const_iterator@V?$_Deque_val@U?$_Deque_simple_types@U?$pair@MUD3DXVECTOR3@@@std@@@std@@@std@@@std@@QBEABU?$pair@MUD3DXVECTOR3@@@1@XZ ; std::_Deque_unchecked_const_iterator<std::_Deque_val<std::_Deque_simple_types<std::pair<float,D3DXVECTOR3> > > >::operator*
  0005b	89 45 e4	 mov	 DWORD PTR $T4[ebp], eax
; File C:\Program Files (x86)\Microsoft Visual Studio\2019\Community\VC\Tools\MSVC\14.28.29333\include\type_traits

; 1455 :     return static_cast<remove_reference_t<_Ty>&&>(_Arg);

  0005e	8b 45 e4	 mov	 eax, DWORD PTR $T4[ebp]
  00061	89 45 f0	 mov	 DWORD PTR $T7[ebp], eax
; File C:\Program Files (x86)\Microsoft Visual Studio\2019\Community\VC\Tools\MSVC\14.28.29333\include\deque

; 76   :         --_Myoff;

  00064	8b 45 20	 mov	 eax, DWORD PTR __Dest$[ebp+4]
  00067	48		 dec	 eax
  00068	89 45 20	 mov	 DWORD PTR __Dest$[ebp+4], eax

; 191  :         return *this;

  0006b	8d 45 1c	 lea	 eax, DWORD PTR __Dest$[ebp]
  0006e	89 45 e0	 mov	 DWORD PTR $T3[ebp], eax

; 171  :         return const_cast<reference>(_Mybase::operator*());

  00071	8b 4d e0	 mov	 ecx, DWORD PTR $T3[ebp]
  00074	e8 00 00 00 00	 call	 ??D?$_Deque_unchecked_const_iterator@V?$_Deque_val@U?$_Deque_simple_types@U?$pair@MUD3DXVECTOR3@@@std@@@std@@@std@@@std@@QBEABU?$pair@MUD3DXVECTOR3@@@1@XZ ; std::_Deque_unchecked_const_iterator<std::_Deque_val<std::_Deque_simple_types<std::pair<float,D3DXVECTOR3> > > >::operator*
  00079	89 45 ec	 mov	 DWORD PTR $T6[ebp], eax
; File C:\Program Files (x86)\Microsoft Visual Studio\2019\Community\VC\Tools\MSVC\14.28.29333\include\utility

; 290  :         first  = _STD forward<_Ty1>(_Right.first);

  0007c	8b 45 f0	 mov	 eax, DWORD PTR $T7[ebp]
; File C:\Program Files (x86)\Microsoft Visual Studio\2019\Community\VC\Tools\MSVC\14.28.29333\include\type_traits

; 1443 :     return static_cast<_Ty&&>(_Arg);

  0007f	89 45 dc	 mov	 DWORD PTR $T2[ebp], eax
; File C:\Program Files (x86)\Microsoft Visual Studio\2019\Community\VC\Tools\MSVC\14.28.29333\include\utility

; 290  :         first  = _STD forward<_Ty1>(_Right.first);

  00082	8b 45 ec	 mov	 eax, DWORD PTR $T6[ebp]
  00085	8b 4d dc	 mov	 ecx, DWORD PTR $T2[ebp]
  00088	8b 09		 mov	 ecx, DWORD PTR [ecx]
  0008a	89 08		 mov	 DWORD PTR [eax], ecx

; 291  :         second = _STD forward<_Ty2>(_Right.second);

  0008c	8b 45 f0	 mov	 eax, DWORD PTR $T7[ebp]
  0008f	83 c0 04	 add	 eax, 4
; File C:\Program Files (x86)\Microsoft Visual Studio\2019\Community\VC\Tools\MSVC\14.28.29333\include\type_traits

; 1443 :     return static_cast<_Ty&&>(_Arg);

  00092	89 45 d8	 mov	 DWORD PTR $T1[ebp], eax
; File C:\Program Files (x86)\Microsoft Visual Studio\2019\Community\VC\Tools\MSVC\14.28.29333\include\utility

; 291  :         second = _STD forward<_Ty2>(_Right.second);

  00095	8b 7d ec	 mov	 edi, DWORD PTR $T6[ebp]
  00098	83 c7 04	 add	 edi, 4
  0009b	8b 75 d8	 mov	 esi, DWORD PTR $T1[ebp]
  0009e	a5		 movsd
  0009f	a5		 movsd
  000a0	a5		 movsd
; File C:\Program Files (x86)\Microsoft Visual Studio\2019\Community\VC\Tools\MSVC\14.28.29333\include\xutility

; 4702 :     }

  000a1	e9 62 ff ff ff	 jmp	 $LN2@Move_backw
$LN3@Move_backw:

; 4703 : 
; 4704 :     return _Dest;

  000a6	8b 45 08	 mov	 eax, DWORD PTR ___$ReturnUdt$[ebp]
  000a9	8b 4d 1c	 mov	 ecx, DWORD PTR __Dest$[ebp]
  000ac	8b 55 20	 mov	 edx, DWORD PTR __Dest$[ebp+4]
  000af	89 08		 mov	 DWORD PTR [eax], ecx
  000b1	89 50 04	 mov	 DWORD PTR [eax+4], edx
  000b4	8b 45 08	 mov	 eax, DWORD PTR ___$ReturnUdt$[ebp]

; 4705 : }

  000b7	5f		 pop	 edi
  000b8	5e		 pop	 esi
  000b9	c9		 leave
  000ba	c3		 ret	 0
??$_Move_backward_unchecked@V?$_Deque_unchecked_iterator@V?$_Deque_val@U?$_Deque_simple_types@U?$pair@MUD3DXVECTOR3@@@std@@@std@@@std@@@std@@V12@@std@@YA?AV?$_Deque_unchecked_iterator@V?$_Deque_val@U?$_Deque_simple_types@U?$pair@MUD3DXVECTOR3@@@std@@@std@@@std@@@0@V10@00@Z ENDP ; std::_Move_backward_unchecked<std::_Deque_unchecked_iterator<std::_Deque_val<std::_Deque_simple_types<std::pair<float,D3DXVECTOR3> > > >,std::_Deque_unchecked_iterator<std::_Deque_val<std::_Deque_simple_types<std::pair<float,D3DXVECTOR3> > > > >
_TEXT	ENDS
; Function compile flags: /Odspy
; File C:\Program Files (x86)\Microsoft Visual Studio\2019\Community\VC\Tools\MSVC\14.28.29333\include\xmemory
;	COMDAT ??$_Destroy_range@V?$allocator@PAVCWeaponTrace@@@std@@@std@@YAXPAPAVCWeaponTrace@@QAPAV1@AAV?$allocator@PAVCWeaponTrace@@@0@@Z
_TEXT	SEGMENT
__First$ = 8						; size = 4
__Last$ = 12						; size = 4
__Al$ = 16						; size = 4
??$_Destroy_range@V?$allocator@PAVCWeaponTrace@@@std@@@std@@YAXPAPAVCWeaponTrace@@QAPAV1@AAV?$allocator@PAVCWeaponTrace@@@0@@Z PROC ; std::_Destroy_range<std::allocator<CWeaponTrace *> >, COMDAT

; 962  :     _Alloc_ptr_t<_Alloc> _First, const _Alloc_ptr_t<_Alloc> _Last, _Alloc& _Al) noexcept {

  00000	55		 push	 ebp
  00001	8b ec		 mov	 ebp, esp

; 963  :     // note that this is an optimization for debug mode codegen; in release mode the BE removes all of this
; 964  :     using _Ty = typename _Alloc::value_type;
; 965  :     if _CONSTEXPR_IF (!conjunction_v<is_trivially_destructible<_Ty>, _Uses_default_destroy<_Alloc, _Ty*>>) {
; 966  :         for (; _First != _Last; ++_First) {
; 967  :             allocator_traits<_Alloc>::destroy(_Al, _Unfancy(_First));
; 968  :         }
; 969  :     }
; 970  : }

  00003	5d		 pop	 ebp
  00004	c3		 ret	 0
??$_Destroy_range@V?$allocator@PAVCWeaponTrace@@@std@@@std@@YAXPAPAVCWeaponTrace@@QAPAV1@AAV?$allocator@PAVCWeaponTrace@@@0@@Z ENDP ; std::_Destroy_range<std::allocator<CWeaponTrace *> >
_TEXT	ENDS
; Function compile flags: /Odspy
; File C:\Program Files (x86)\Microsoft Visual Studio\2019\Community\VC\Tools\MSVC\14.28.29333\include\xmemory
;	COMDAT ??$_Destroy_range@PAPAU?$pair@MUD3DXVECTOR3@@@std@@PAPAU12@@std@@YAXPAPAU?$pair@MUD3DXVECTOR3@@@0@QAPAU10@@Z
_TEXT	SEGMENT
__First$ = 8						; size = 4
__Last$ = 12						; size = 4
??$_Destroy_range@PAPAU?$pair@MUD3DXVECTOR3@@@std@@PAPAU12@@std@@YAXPAPAU?$pair@MUD3DXVECTOR3@@@0@QAPAU10@@Z PROC ; std::_Destroy_range<std::pair<float,D3DXVECTOR3> * *,std::pair<float,D3DXVECTOR3> * *>, COMDAT

; 974  : /* _CONSTEXPR20_DYNALLOC */ void _Destroy_range(_NoThrowFwdIt _First, const _NoThrowSentinel _Last) noexcept {

  00000	55		 push	 ebp
  00001	8b ec		 mov	 ebp, esp

; 975  :     // note that this is an optimization for debug mode codegen; in release mode the BE removes all of this
; 976  :     if _CONSTEXPR_IF (!is_trivially_destructible_v<_Iter_value_t<_NoThrowFwdIt>>) {
; 977  :         for (; _First != _Last; ++_First) {
; 978  :             _Destroy_in_place(*_First);
; 979  :         }
; 980  :     }
; 981  : }

  00003	5d		 pop	 ebp
  00004	c3		 ret	 0
??$_Destroy_range@PAPAU?$pair@MUD3DXVECTOR3@@@std@@PAPAU12@@std@@YAXPAPAU?$pair@MUD3DXVECTOR3@@@0@QAPAU10@@Z ENDP ; std::_Destroy_range<std::pair<float,D3DXVECTOR3> * *,std::pair<float,D3DXVECTOR3> * *>
_TEXT	ENDS
; Function compile flags: /Odspy
; File C:\Program Files (x86)\Microsoft Visual Studio\2019\Community\VC\Tools\MSVC\14.28.29333\include\xmemory
;	COMDAT ??$_Uninitialized_value_construct_n_unchecked1@PAPAU?$pair@MUD3DXVECTOR3@@@std@@I@std@@YAPAPAU?$pair@MUD3DXVECTOR3@@@0@PAPAU10@I@Z
_TEXT	SEGMENT
__UFirst$ = 8						; size = 4
__Count$ = 12						; size = 4
??$_Uninitialized_value_construct_n_unchecked1@PAPAU?$pair@MUD3DXVECTOR3@@@std@@I@std@@YAPAPAU?$pair@MUD3DXVECTOR3@@@0@PAPAU10@I@Z PROC ; std::_Uninitialized_value_construct_n_unchecked1<std::pair<float,D3DXVECTOR3> * *,unsigned int>, COMDAT

; 1912 : _NoThrowFwdIt _Uninitialized_value_construct_n_unchecked1(_NoThrowFwdIt _UFirst, _Diff _Count) {

  00000	55		 push	 ebp
  00001	8b ec		 mov	 ebp, esp

; 1913 :     // value-initialize all elements in [_UFirst, _UFirst + _Count_raw)
; 1914 :     _STL_INTERNAL_CHECK(_Count >= 0);
; 1915 :     if constexpr (_Use_memset_value_construct_v<_NoThrowFwdIt>) {
; 1916 :         return _Zero_range(_UFirst, _UFirst + _Count);

  00003	8b 45 0c	 mov	 eax, DWORD PTR __Count$[ebp]
  00006	8b 4d 08	 mov	 ecx, DWORD PTR __UFirst$[ebp]
  00009	8d 04 81	 lea	 eax, DWORD PTR [ecx+eax*4]
  0000c	50		 push	 eax
  0000d	ff 75 08	 push	 DWORD PTR __UFirst$[ebp]
  00010	e8 00 00 00 00	 call	 ??$_Zero_range@PAPAU?$pair@MUD3DXVECTOR3@@@std@@@std@@YAPAPAU?$pair@MUD3DXVECTOR3@@@0@QAPAU10@0@Z ; std::_Zero_range<std::pair<float,D3DXVECTOR3> * *>
  00015	59		 pop	 ecx
  00016	59		 pop	 ecx

; 1917 :     } else {
; 1918 :         _Uninitialized_backout<_NoThrowFwdIt> _Backout{_UFirst};
; 1919 :         for (; 0 < _Count; --_Count) {
; 1920 :             _Backout._Emplace_back();
; 1921 :         }
; 1922 : 
; 1923 :         return _Backout._Release();
; 1924 :     }
; 1925 : }

  00017	5d		 pop	 ebp
  00018	c3		 ret	 0
??$_Uninitialized_value_construct_n_unchecked1@PAPAU?$pair@MUD3DXVECTOR3@@@std@@I@std@@YAPAPAU?$pair@MUD3DXVECTOR3@@@0@PAPAU10@I@Z ENDP ; std::_Uninitialized_value_construct_n_unchecked1<std::pair<float,D3DXVECTOR3> * *,unsigned int>
_TEXT	ENDS
; Function compile flags: /Odspy
; File C:\Program Files (x86)\Microsoft Visual Studio\2019\Community\VC\Tools\MSVC\14.28.29333\include\xmemory
; File C:\Program Files (x86)\Microsoft Visual Studio\2019\Community\VC\Tools\MSVC\14.28.29333\include\xutility
; File C:\Program Files (x86)\Microsoft Visual Studio\2019\Community\VC\Tools\MSVC\14.28.29333\include\xmemory
; File C:\Program Files (x86)\Microsoft Visual Studio\2019\Community\VC\Tools\MSVC\14.28.29333\include\xutility
; File C:\Program Files (x86)\Microsoft Visual Studio\2019\Community\VC\Tools\MSVC\14.28.29333\include\xmemory
;	COMDAT ??$uninitialized_copy@PAPAU?$pair@MUD3DXVECTOR3@@@std@@PAPAU12@@std@@YAPAPAU?$pair@MUD3DXVECTOR3@@@0@QAPAU10@0PAPAU10@@Z
_TEXT	SEGMENT
$T1 = -16						; size = 4
__UFirst$ = -12						; size = 4
__ULast$ = -8						; size = 4
__UDest$ = -4						; size = 4
__First$ = 8						; size = 4
__Last$ = 12						; size = 4
__Dest$ = 16						; size = 4
??$uninitialized_copy@PAPAU?$pair@MUD3DXVECTOR3@@@std@@PAPAU12@@std@@YAPAPAU?$pair@MUD3DXVECTOR3@@@0@QAPAU10@0PAPAU10@@Z PROC ; std::uninitialized_copy<std::pair<float,D3DXVECTOR3> * *,std::pair<float,D3DXVECTOR3> * *>, COMDAT

; 1629 : _NoThrowFwdIt uninitialized_copy(const _InIt _First, const _InIt _Last, _NoThrowFwdIt _Dest) {

  00000	55		 push	 ebp
  00001	8b ec		 mov	 ebp, esp
  00003	83 ec 10	 sub	 esp, 16			; 00000010H

; 1630 :     // copy [_First, _Last) to raw [_Dest, ...)
; 1631 :     _Adl_verify_range(_First, _Last);
; 1632 :     auto _UFirst      = _Get_unwrapped(_First);

  00006	8b 45 08	 mov	 eax, DWORD PTR __First$[ebp]
  00009	89 45 f4	 mov	 DWORD PTR __UFirst$[ebp], eax

; 1633 :     const auto _ULast = _Get_unwrapped(_Last);

  0000c	8b 45 0c	 mov	 eax, DWORD PTR __Last$[ebp]
  0000f	89 45 f8	 mov	 DWORD PTR __ULast$[ebp], eax
; File C:\Program Files (x86)\Microsoft Visual Studio\2019\Community\VC\Tools\MSVC\14.28.29333\include\xutility

; 1557 :         return static_cast<_Iter_diff_t<_Checked>>(_Last - _First);

  00012	8b 45 f8	 mov	 eax, DWORD PTR __ULast$[ebp]
  00015	2b 45 f4	 sub	 eax, DWORD PTR __UFirst$[ebp]
  00018	c1 f8 02	 sar	 eax, 2
  0001b	89 45 f0	 mov	 DWORD PTR $T1[ebp], eax
; File C:\Program Files (x86)\Microsoft Visual Studio\2019\Community\VC\Tools\MSVC\14.28.29333\include\xmemory

; 1634 :     auto _UDest       = _Get_unwrapped_n(_Dest, _Idl_distance<_InIt>(_UFirst, _ULast));

  0001e	8b 45 10	 mov	 eax, DWORD PTR __Dest$[ebp]
  00021	89 45 fc	 mov	 DWORD PTR __UDest$[ebp], eax

; 1635 :     if constexpr (_Ptr_copy_cat<decltype(_UFirst), decltype(_UDest)>::_Really_trivial) {
; 1636 :         _UDest = _Copy_memmove(_UFirst, _ULast, _UDest);

  00024	ff 75 fc	 push	 DWORD PTR __UDest$[ebp]
  00027	ff 75 f8	 push	 DWORD PTR __ULast$[ebp]
  0002a	ff 75 f4	 push	 DWORD PTR __UFirst$[ebp]
  0002d	e8 00 00 00 00	 call	 ??$_Copy_memmove@PAPAU?$pair@MUD3DXVECTOR3@@@std@@PAPAU12@@std@@YAPAPAU?$pair@MUD3DXVECTOR3@@@0@PAPAU10@00@Z ; std::_Copy_memmove<std::pair<float,D3DXVECTOR3> * *,std::pair<float,D3DXVECTOR3> * *>
  00032	83 c4 0c	 add	 esp, 12			; 0000000cH
  00035	89 45 fc	 mov	 DWORD PTR __UDest$[ebp], eax
; File C:\Program Files (x86)\Microsoft Visual Studio\2019\Community\VC\Tools\MSVC\14.28.29333\include\xutility

; 1492 :         _It = static_cast<_UIter&&>(_UIt);

  00038	8b 45 fc	 mov	 eax, DWORD PTR __UDest$[ebp]
  0003b	89 45 10	 mov	 DWORD PTR __Dest$[ebp], eax
; File C:\Program Files (x86)\Microsoft Visual Studio\2019\Community\VC\Tools\MSVC\14.28.29333\include\xmemory

; 1647 :     return _Dest;

  0003e	8b 45 10	 mov	 eax, DWORD PTR __Dest$[ebp]

; 1648 : }

  00041	c9		 leave
  00042	c3		 ret	 0
??$uninitialized_copy@PAPAU?$pair@MUD3DXVECTOR3@@@std@@PAPAU12@@std@@YAPAPAU?$pair@MUD3DXVECTOR3@@@0@QAPAU10@0PAPAU10@@Z ENDP ; std::uninitialized_copy<std::pair<float,D3DXVECTOR3> * *,std::pair<float,D3DXVECTOR3> * *>
_TEXT	ENDS
; Function compile flags: /Odspy
; File C:\Program Files (x86)\Microsoft Visual Studio\2019\Community\VC\Tools\MSVC\14.28.29333\include\xmemory
;	COMDAT ??$_Destroy_in_place@PAU?$pair@MUD3DXVECTOR3@@@std@@@std@@YAXAAPAU?$pair@MUD3DXVECTOR3@@@0@@Z
_TEXT	SEGMENT
__Obj$ = 8						; size = 4
??$_Destroy_in_place@PAU?$pair@MUD3DXVECTOR3@@@std@@@std@@YAXAAPAU?$pair@MUD3DXVECTOR3@@@0@@Z PROC ; std::_Destroy_in_place<std::pair<float,D3DXVECTOR3> *>, COMDAT

; 270  : /* _CONSTEXPR20_DYNALLOC */ void _Destroy_in_place(_Ty& _Obj) noexcept {

  00000	55		 push	 ebp
  00001	8b ec		 mov	 ebp, esp

; 271  : #if _HAS_IF_CONSTEXPR
; 272  :     if constexpr (is_array_v<_Ty>) {
; 273  :         _Destroy_range(_Obj, _Obj + extent_v<_Ty>);
; 274  :     } else
; 275  : #endif // _HAS_IF_CONSTEXPR
; 276  :     {
; 277  :         _Obj.~_Ty();
; 278  :     }
; 279  : }

  00003	5d		 pop	 ebp
  00004	c3		 ret	 0
??$_Destroy_in_place@PAU?$pair@MUD3DXVECTOR3@@@std@@@std@@YAXAAPAU?$pair@MUD3DXVECTOR3@@@0@@Z ENDP ; std::_Destroy_in_place<std::pair<float,D3DXVECTOR3> *>
_TEXT	ENDS
; Function compile flags: /Odspy
; File C:\Program Files (x86)\Microsoft Visual Studio\2019\Community\VC\Tools\MSVC\14.28.29333\include\xmemory
;	COMDAT ??$_Destroy_range@V?$allocator@USPDTVertex@@@std@@@std@@YAXPAUSPDTVertex@@QAU1@AAV?$allocator@USPDTVertex@@@0@@Z
_TEXT	SEGMENT
__First$ = 8						; size = 4
__Last$ = 12						; size = 4
__Al$ = 16						; size = 4
??$_Destroy_range@V?$allocator@USPDTVertex@@@std@@@std@@YAXPAUSPDTVertex@@QAU1@AAV?$allocator@USPDTVertex@@@0@@Z PROC ; std::_Destroy_range<std::allocator<SPDTVertex> >, COMDAT

; 962  :     _Alloc_ptr_t<_Alloc> _First, const _Alloc_ptr_t<_Alloc> _Last, _Alloc& _Al) noexcept {

  00000	55		 push	 ebp
  00001	8b ec		 mov	 ebp, esp

; 963  :     // note that this is an optimization for debug mode codegen; in release mode the BE removes all of this
; 964  :     using _Ty = typename _Alloc::value_type;
; 965  :     if _CONSTEXPR_IF (!conjunction_v<is_trivially_destructible<_Ty>, _Uses_default_destroy<_Alloc, _Ty*>>) {
; 966  :         for (; _First != _Last; ++_First) {
; 967  :             allocator_traits<_Alloc>::destroy(_Al, _Unfancy(_First));
; 968  :         }
; 969  :     }
; 970  : }

  00003	5d		 pop	 ebp
  00004	c3		 ret	 0
??$_Destroy_range@V?$allocator@USPDTVertex@@@std@@@std@@YAXPAUSPDTVertex@@QAU1@AAV?$allocator@USPDTVertex@@@0@@Z ENDP ; std::_Destroy_range<std::allocator<SPDTVertex> >
_TEXT	ENDS
; Function compile flags: /Odspy
; File C:\Program Files (x86)\Microsoft Visual Studio\2019\Community\VC\Tools\MSVC\14.28.29333\include\vector
; File C:\Program Files (x86)\Microsoft Visual Studio\2019\Community\VC\Tools\MSVC\14.28.29333\include\xmemory
; File C:\Program Files (x86)\Microsoft Visual Studio\2019\Community\VC\Tools\MSVC\14.28.29333\include\vector
; File C:\Program Files (x86)\Microsoft Visual Studio\2019\Community\VC\Tools\MSVC\14.28.29333\include\xmemory
; File C:\Program Files (x86)\Microsoft Visual Studio\2019\Community\VC\Tools\MSVC\14.28.29333\include\vector
; File C:\Program Files (x86)\Microsoft Visual Studio\2019\Community\VC\Tools\MSVC\14.28.29333\include\xmemory
; File C:\Program Files (x86)\Microsoft Visual Studio\2019\Community\VC\Tools\MSVC\14.28.29333\include\limits
; File C:\Program Files (x86)\Microsoft Visual Studio\2019\Community\VC\Tools\MSVC\14.28.29333\include\vector
; File C:\Program Files (x86)\Microsoft Visual Studio\2019\Community\VC\Tools\MSVC\14.28.29333\include\utility
; File C:\Program Files (x86)\Microsoft Visual Studio\2019\Community\VC\Tools\MSVC\14.28.29333\include\vector
; File C:\Program Files (x86)\Microsoft Visual Studio\2019\Community\VC\Tools\MSVC\14.28.29333\include\xmemory
; File C:\Program Files (x86)\Microsoft Visual Studio\2019\Community\VC\Tools\MSVC\14.28.29333\include\vector
; File C:\Program Files (x86)\Microsoft Visual Studio\2019\Community\VC\Tools\MSVC\14.28.29333\include\type_traits
; File C:\Program Files (x86)\Microsoft Visual Studio\2019\Community\VC\Tools\MSVC\14.28.29333\include\vector
; File C:\Program Files (x86)\Microsoft Visual Studio\2019\Community\VC\Tools\MSVC\14.28.29333\include\xstddef
; File C:\Program Files (x86)\Microsoft Visual Studio\2019\Community\VC\Tools\MSVC\14.28.29333\include\vcruntime_new.h
; File C:\Program Files (x86)\Microsoft Visual Studio\2019\Community\VC\Tools\MSVC\14.28.29333\include\type_traits
; File C:\Program Files (x86)\Microsoft Visual Studio\2019\Community\VC\Tools\MSVC\14.28.29333\include\xmemory
; File C:\Program Files (x86)\Microsoft Visual Studio\2019\Community\VC\Tools\MSVC\14.28.29333\include\vector
; File C:\Program Files (x86)\Microsoft Visual Studio\2019\Community\VC\Tools\MSVC\14.28.29333\include\xmemory
; File C:\Program Files (x86)\Microsoft Visual Studio\2019\Community\VC\Tools\MSVC\14.28.29333\include\vector
; File C:\Program Files (x86)\Microsoft Visual Studio\2019\Community\VC\Tools\MSVC\14.28.29333\include\xmemory
; File C:\Program Files (x86)\Microsoft Visual Studio\2019\Community\VC\Tools\MSVC\14.28.29333\include\vector
; File C:\Program Files (x86)\Microsoft Visual Studio\2019\Community\VC\Tools\MSVC\14.28.29333\include\xmemory
; File C:\Program Files (x86)\Microsoft Visual Studio\2019\Community\VC\Tools\MSVC\14.28.29333\include\vector
;	COMDAT ??$_Emplace_reallocate@ABQAVCWeaponTrace@@@?$vector@PAVCWeaponTrace@@V?$allocator@PAVCWeaponTrace@@@std@@@std@@QAEPAPAVCWeaponTrace@@QAPAV2@ABQAV2@@Z
_TEXT	SEGMENT
__Max_possible$2 = -68					; size = 4
$T3 = -64						; size = 4
__Al$ = -60						; size = 4
__Last$ = -56						; size = 4
$T4 = -52						; size = 4
$T5 = -48						; size = 4
__First$ = -44						; size = 4
$T6 = -40						; size = 4
$T7 = -36						; size = 4
__First$ = -32						; size = 4
__Last$ = -28						; size = 4
$T8 = -24						; size = 4
$T9 = -20						; size = 4
__$EHRec$ = -16						; size = 16
$T10 = 0						; size = 4
$T11 = 4						; size = 4
$T12 = 8						; size = 4
$T13 = 12						; size = 4
$T14 = 16						; size = 4
$T15 = 20						; size = 4
$T16 = 24						; size = 4
$T17 = 28						; size = 4
$T18 = 32						; size = 4
$T19 = 36						; size = 4
$T20 = 40						; size = 4
__Newsize$ = 44						; size = 4
__Constructed_last$ = 48				; size = 4
__Oldsize$ = 52						; size = 4
tv172 = 56						; size = 4
$T21 = 60						; size = 4
$T22 = 64						; size = 4
__My_data$ = 68						; size = 4
__Constructed_first$ = 72				; size = 4
___formal$ = 76						; size = 1
__Overflow_is_possible$23 = 83				; size = 1
__Newcapacity$ = 84					; size = 4
__Mylast$ = 88						; size = 4
__Myfirst$ = 92						; size = 4
__Whereoff$ = 96					; size = 4
$T24 = 103						; size = 1
_this$ = 104						; size = 4
__Newvec$ = 108						; size = 4
__Whereptr$ = 120					; size = 4
_<_Val_0>$ = 124					; size = 4
??$_Emplace_reallocate@ABQAVCWeaponTrace@@@?$vector@PAVCWeaponTrace@@V?$allocator@PAVCWeaponTrace@@@std@@@std@@QAEPAPAVCWeaponTrace@@QAPAV2@ABQAV2@@Z PROC ; std::vector<CWeaponTrace *,std::allocator<CWeaponTrace *> >::_Emplace_reallocate<CWeaponTrace * const &>, COMDAT
; _this$ = ecx

; 725  :     pointer _Emplace_reallocate(const pointer _Whereptr, _Valty&&... _Val) {

  00000	55		 push	 ebp
  00001	8d 6c 24 90	 lea	 ebp, DWORD PTR [esp-112]
  00005	83 ec 70	 sub	 esp, 112		; 00000070H
  00008	6a ff		 push	 -1
  0000a	68 00 00 00 00	 push	 __ehhandler$??$_Emplace_reallocate@ABQAVCWeaponTrace@@@?$vector@PAVCWeaponTrace@@V?$allocator@PAVCWeaponTrace@@@std@@@std@@QAEPAPAVCWeaponTrace@@QAPAV2@ABQAV2@@Z
  0000f	64 a1 00 00 00
	00		 mov	 eax, DWORD PTR fs:0
  00015	50		 push	 eax
  00016	51		 push	 ecx
  00017	83 ec 34	 sub	 esp, 52			; 00000034H
  0001a	53		 push	 ebx
  0001b	56		 push	 esi
  0001c	57		 push	 edi
  0001d	a1 00 00 00 00	 mov	 eax, DWORD PTR ___security_cookie
  00022	33 c5		 xor	 eax, ebp
  00024	50		 push	 eax
  00025	8d 45 f4	 lea	 eax, DWORD PTR __$EHRec$[ebp+4]
  00028	64 a3 00 00 00
	00		 mov	 DWORD PTR fs:0, eax
  0002e	89 65 f0	 mov	 DWORD PTR __$EHRec$[ebp], esp
  00031	89 4d 68	 mov	 DWORD PTR _this$[ebp], ecx

; 1733 :         return _Mypair._Get_first();

  00034	8b 45 68	 mov	 eax, DWORD PTR _this$[ebp]
; File C:\Program Files (x86)\Microsoft Visual Studio\2019\Community\VC\Tools\MSVC\14.28.29333\include\xmemory

; 1347 :         return *this;

  00037	89 45 28	 mov	 DWORD PTR $T20[ebp], eax
; File C:\Program Files (x86)\Microsoft Visual Studio\2019\Community\VC\Tools\MSVC\14.28.29333\include\vector

; 1733 :         return _Mypair._Get_first();

  0003a	8b 45 28	 mov	 eax, DWORD PTR $T20[ebp]
  0003d	89 45 c4	 mov	 DWORD PTR __Al$[ebp], eax

; 726  :         // reallocate and insert by perfectly forwarding _Val at _Whereptr
; 727  :         _Alty& _Al        = _Getal();
; 728  :         auto& _My_data    = _Mypair._Myval2;

  00040	8b 45 68	 mov	 eax, DWORD PTR _this$[ebp]
  00043	89 45 44	 mov	 DWORD PTR __My_data$[ebp], eax

; 729  :         pointer& _Myfirst = _My_data._Myfirst;

  00046	8b 45 44	 mov	 eax, DWORD PTR __My_data$[ebp]
  00049	89 45 5c	 mov	 DWORD PTR __Myfirst$[ebp], eax

; 730  :         pointer& _Mylast  = _My_data._Mylast;

  0004c	8b 45 44	 mov	 eax, DWORD PTR __My_data$[ebp]
  0004f	83 c0 04	 add	 eax, 4
  00052	89 45 58	 mov	 DWORD PTR __Mylast$[ebp], eax

; 731  : 
; 732  :         _STL_INTERNAL_CHECK(_Mylast == _My_data._Myend); // check that we have no unused capacity
; 733  : 
; 734  :         const auto _Whereoff = static_cast<size_type>(_Whereptr - _Myfirst);

  00055	8b 45 5c	 mov	 eax, DWORD PTR __Myfirst$[ebp]
  00058	8b 4d 78	 mov	 ecx, DWORD PTR __Whereptr$[ebp]
  0005b	2b 08		 sub	 ecx, DWORD PTR [eax]
  0005d	c1 f9 02	 sar	 ecx, 2
  00060	89 4d 60	 mov	 DWORD PTR __Whereoff$[ebp], ecx

; 735  :         const auto _Oldsize  = static_cast<size_type>(_Mylast - _Myfirst);

  00063	8b 45 58	 mov	 eax, DWORD PTR __Mylast$[ebp]
  00066	8b 4d 5c	 mov	 ecx, DWORD PTR __Myfirst$[ebp]
  00069	8b 00		 mov	 eax, DWORD PTR [eax]
  0006b	2b 01		 sub	 eax, DWORD PTR [ecx]
  0006d	c1 f8 02	 sar	 eax, 2
  00070	89 45 34	 mov	 DWORD PTR __Oldsize$[ebp], eax

; 1737 :         return _Mypair._Get_first();

  00073	8b 45 68	 mov	 eax, DWORD PTR _this$[ebp]
; File C:\Program Files (x86)\Microsoft Visual Studio\2019\Community\VC\Tools\MSVC\14.28.29333\include\xmemory

; 1351 :         return *this;

  00076	89 45 24	 mov	 DWORD PTR $T19[ebp], eax
; File C:\Program Files (x86)\Microsoft Visual Studio\2019\Community\VC\Tools\MSVC\14.28.29333\include\vector

; 1737 :         return _Mypair._Get_first();

  00079	8b 45 24	 mov	 eax, DWORD PTR $T19[ebp]
  0007c	89 45 c0	 mov	 DWORD PTR $T3[ebp], eax
; File C:\Program Files (x86)\Microsoft Visual Studio\2019\Community\VC\Tools\MSVC\14.28.29333\include\xmemory

; 710  :         return static_cast<size_t>(-1) / sizeof(value_type);

  0007f	c7 45 40 ff ff
	ff 3f		 mov	 DWORD PTR $T22[ebp], 1073741823 ; 3fffffffH
; File C:\Program Files (x86)\Microsoft Visual Studio\2019\Community\VC\Tools\MSVC\14.28.29333\include\limits

; 557  :         return INT_MAX;

  00086	c7 45 20 ff ff
	ff 7f		 mov	 DWORD PTR $T18[ebp], 2147483647 ; 7fffffffH
; File C:\Program Files (x86)\Microsoft Visual Studio\2019\Community\VC\Tools\MSVC\14.28.29333\include\vector

; 1488 :         return (_STD min)(

  0008d	8b 45 20	 mov	 eax, DWORD PTR $T18[ebp]
  00090	89 45 3c	 mov	 DWORD PTR $T21[ebp], eax
; File C:\Program Files (x86)\Microsoft Visual Studio\2019\Community\VC\Tools\MSVC\14.28.29333\include\utility

; 68   :     return _Right < _Left ? _Right : _Left;

  00093	8b 45 40	 mov	 eax, DWORD PTR $T22[ebp]
  00096	3b 45 3c	 cmp	 eax, DWORD PTR $T21[ebp]
  00099	73 08		 jae	 SHORT $LN34@Emplace_re
  0009b	8d 45 40	 lea	 eax, DWORD PTR $T22[ebp]
  0009e	89 45 38	 mov	 DWORD PTR tv172[ebp], eax
  000a1	eb 06		 jmp	 SHORT $LN35@Emplace_re
$LN34@Emplace_re:
  000a3	8d 45 3c	 lea	 eax, DWORD PTR $T21[ebp]
  000a6	89 45 38	 mov	 DWORD PTR tv172[ebp], eax
$LN35@Emplace_re:
  000a9	8b 45 38	 mov	 eax, DWORD PTR tv172[ebp]
  000ac	89 45 1c	 mov	 DWORD PTR $T17[ebp], eax
  000af	8b 45 1c	 mov	 eax, DWORD PTR $T17[ebp]
  000b2	89 45 18	 mov	 DWORD PTR $T16[ebp], eax
; File C:\Program Files (x86)\Microsoft Visual Studio\2019\Community\VC\Tools\MSVC\14.28.29333\include\vector

; 1488 :         return (_STD min)(

  000b5	8b 45 18	 mov	 eax, DWORD PTR $T16[ebp]
  000b8	8b 00		 mov	 eax, DWORD PTR [eax]
  000ba	89 45 14	 mov	 DWORD PTR $T15[ebp], eax

; 736  : 
; 737  :         if (_Oldsize == max_size()) {

  000bd	8b 45 34	 mov	 eax, DWORD PTR __Oldsize$[ebp]
  000c0	3b 45 14	 cmp	 eax, DWORD PTR $T15[ebp]
  000c3	75 05		 jne	 SHORT $LN2@Emplace_re

; 738  :             _Xlength();

  000c5	e8 00 00 00 00	 call	 ?_Xlength@?$vector@PAVCWeaponTrace@@V?$allocator@PAVCWeaponTrace@@@std@@@std@@CAXXZ ; std::vector<CWeaponTrace *,std::allocator<CWeaponTrace *> >::_Xlength
$LN2@Emplace_re:

; 739  :         }
; 740  : 
; 741  :         const size_type _Newsize     = _Oldsize + 1;

  000ca	8b 45 34	 mov	 eax, DWORD PTR __Oldsize$[ebp]
  000cd	40		 inc	 eax
  000ce	89 45 2c	 mov	 DWORD PTR __Newsize$[ebp], eax

; 742  :         const size_type _Newcapacity = _Calculate_growth(_Newsize);

  000d1	ff 75 2c	 push	 DWORD PTR __Newsize$[ebp]
  000d4	8b 4d 68	 mov	 ecx, DWORD PTR _this$[ebp]
  000d7	e8 00 00 00 00	 call	 ?_Calculate_growth@?$vector@PAVCWeaponTrace@@V?$allocator@PAVCWeaponTrace@@@std@@@std@@ABEII@Z ; std::vector<CWeaponTrace *,std::allocator<CWeaponTrace *> >::_Calculate_growth
  000dc	89 45 54	 mov	 DWORD PTR __Newcapacity$[ebp], eax
; File C:\Program Files (x86)\Microsoft Visual Studio\2019\Community\VC\Tools\MSVC\14.28.29333\include\xmemory

; 56   :     constexpr bool _Overflow_is_possible = _Ty_size > 1;

  000df	c6 45 53 01	 mov	 BYTE PTR __Overflow_is_possible$23[ebp], 1

; 57   : 
; 58   :     if _CONSTEXPR_IF (_Overflow_is_possible) {
; 59   :         constexpr size_t _Max_possible = static_cast<size_t>(-1) / _Ty_size;

  000e3	c7 45 bc ff ff
	ff 3f		 mov	 DWORD PTR __Max_possible$2[ebp], 1073741823 ; 3fffffffH

; 60   :         if (_Count > _Max_possible) {

  000ea	81 7d 54 ff ff
	ff 3f		 cmp	 DWORD PTR __Newcapacity$[ebp], 1073741823 ; 3fffffffH
  000f1	76 05		 jbe	 SHORT $LN67@Emplace_re

; 61   :             _Throw_bad_array_new_length(); // multiply overflow

  000f3	e8 00 00 00 00	 call	 ?_Throw_bad_array_new_length@std@@YAXXZ ; std::_Throw_bad_array_new_length
$LN67@Emplace_re:

; 62   :         }
; 63   :     }
; 64   : 
; 65   :     return _Count * _Ty_size;

  000f8	8b 45 54	 mov	 eax, DWORD PTR __Newcapacity$[ebp]
  000fb	c1 e0 02	 shl	 eax, 2
  000fe	89 45 10	 mov	 DWORD PTR $T14[ebp], eax

; 814  :         return static_cast<_Ty*>(_Allocate<_New_alignof<_Ty>>(_Get_size_of_n<sizeof(_Ty)>(_Count)));

  00101	ff 75 10	 push	 DWORD PTR $T14[ebp]
  00104	e8 00 00 00 00	 call	 ??$_Allocate@$07U_Default_allocate_traits@std@@$0A@@std@@YAPAXI@Z ; std::_Allocate<8,std::_Default_allocate_traits,0>
  00109	59		 pop	 ecx
  0010a	89 45 6c	 mov	 DWORD PTR __Newvec$[ebp], eax
; File C:\Program Files (x86)\Microsoft Visual Studio\2019\Community\VC\Tools\MSVC\14.28.29333\include\vector

; 745  :         const pointer _Constructed_last = _Newvec + _Whereoff + 1;

  0010d	8b 45 60	 mov	 eax, DWORD PTR __Whereoff$[ebp]
  00110	8b 4d 6c	 mov	 ecx, DWORD PTR __Newvec$[ebp]
  00113	8d 44 81 04	 lea	 eax, DWORD PTR [ecx+eax*4+4]
  00117	89 45 30	 mov	 DWORD PTR __Constructed_last$[ebp], eax

; 746  :         pointer _Constructed_first      = _Constructed_last;

  0011a	8b 45 30	 mov	 eax, DWORD PTR __Constructed_last$[ebp]
  0011d	89 45 48	 mov	 DWORD PTR __Constructed_first$[ebp], eax

; 747  : 
; 748  :         _TRY_BEGIN

  00120	83 65 fc 00	 and	 DWORD PTR __$EHRec$[ebp+12], 0
; File C:\Program Files (x86)\Microsoft Visual Studio\2019\Community\VC\Tools\MSVC\14.28.29333\include\type_traits

; 1443 :     return static_cast<_Ty&&>(_Arg);

  00124	8b 45 7c	 mov	 eax, DWORD PTR _<_Val_0>$[ebp]
  00127	89 45 08	 mov	 DWORD PTR $T12[ebp], eax
; File C:\Program Files (x86)\Microsoft Visual Studio\2019\Community\VC\Tools\MSVC\14.28.29333\include\vector

; 749  :         _Alty_traits::construct(_Al, _Unfancy(_Newvec + _Whereoff), _STD forward<_Valty>(_Val)...);

  0012a	8b 45 60	 mov	 eax, DWORD PTR __Whereoff$[ebp]
  0012d	8b 4d 6c	 mov	 ecx, DWORD PTR __Newvec$[ebp]
  00130	8d 04 81	 lea	 eax, DWORD PTR [ecx+eax*4]
; File C:\Program Files (x86)\Microsoft Visual Studio\2019\Community\VC\Tools\MSVC\14.28.29333\include\xstddef

; 289  :     return _Ptr;

  00133	89 45 0c	 mov	 DWORD PTR $T13[ebp], eax
; File C:\Program Files (x86)\Microsoft Visual Studio\2019\Community\VC\Tools\MSVC\14.28.29333\include\vcruntime_new.h

; 169  :         return _Where;

  00136	8b 45 0c	 mov	 eax, DWORD PTR $T13[ebp]
  00139	89 45 04	 mov	 DWORD PTR $T11[ebp], eax
; File C:\Program Files (x86)\Microsoft Visual Studio\2019\Community\VC\Tools\MSVC\14.28.29333\include\type_traits

; 1443 :     return static_cast<_Ty&&>(_Arg);

  0013c	8b 45 08	 mov	 eax, DWORD PTR $T12[ebp]
  0013f	89 45 00	 mov	 DWORD PTR $T10[ebp], eax
; File C:\Program Files (x86)\Microsoft Visual Studio\2019\Community\VC\Tools\MSVC\14.28.29333\include\xmemory

; 701  :         ::new (const_cast<void*>(static_cast<const volatile void*>(_Ptr))) _Objty(_STD forward<_Types>(_Args)...);

  00142	8b 45 04	 mov	 eax, DWORD PTR $T11[ebp]
  00145	8b 4d 00	 mov	 ecx, DWORD PTR $T10[ebp]
  00148	8b 09		 mov	 ecx, DWORD PTR [ecx]
  0014a	89 08		 mov	 DWORD PTR [eax], ecx
; File C:\Program Files (x86)\Microsoft Visual Studio\2019\Community\VC\Tools\MSVC\14.28.29333\include\vector

; 750  :         _Constructed_first = _Newvec + _Whereoff;

  0014c	8b 45 60	 mov	 eax, DWORD PTR __Whereoff$[ebp]
  0014f	8b 4d 6c	 mov	 ecx, DWORD PTR __Newvec$[ebp]
  00152	8d 04 81	 lea	 eax, DWORD PTR [ecx+eax*4]
  00155	89 45 48	 mov	 DWORD PTR __Constructed_first$[ebp], eax

; 751  : 
; 752  :         if (_Whereptr == _Mylast) { // at back, provide strong guarantee

  00158	8b 45 58	 mov	 eax, DWORD PTR __Mylast$[ebp]
  0015b	8b 4d 78	 mov	 ecx, DWORD PTR __Whereptr$[ebp]
  0015e	3b 08		 cmp	 ecx, DWORD PTR [eax]
  00160	75 3d		 jne	 SHORT $LN4@Emplace_re

; 753  :             _Umove_if_noexcept(_Myfirst, _Mylast, _Newvec);

  00162	8b 45 58	 mov	 eax, DWORD PTR __Mylast$[ebp]
  00165	8b 00		 mov	 eax, DWORD PTR [eax]
  00167	89 45 e4	 mov	 DWORD PTR __Last$[ebp], eax
  0016a	8b 45 5c	 mov	 eax, DWORD PTR __Myfirst$[ebp]
  0016d	8b 00		 mov	 eax, DWORD PTR [eax]
  0016f	89 45 e0	 mov	 DWORD PTR __First$[ebp], eax

; 1607 :         _Umove_if_noexcept1(_First, _Last, _Dest,

  00172	33 c0		 xor	 eax, eax
  00174	88 45 67	 mov	 BYTE PTR $T24[ebp], al
  00177	8a 45 67	 mov	 al, BYTE PTR $T24[ebp]
  0017a	88 45 4c	 mov	 BYTE PTR ___formal$[ebp], al

; 1733 :         return _Mypair._Get_first();

  0017d	8b 45 68	 mov	 eax, DWORD PTR _this$[ebp]
; File C:\Program Files (x86)\Microsoft Visual Studio\2019\Community\VC\Tools\MSVC\14.28.29333\include\xmemory

; 1347 :         return *this;

  00180	89 45 ec	 mov	 DWORD PTR $T9[ebp], eax
; File C:\Program Files (x86)\Microsoft Visual Studio\2019\Community\VC\Tools\MSVC\14.28.29333\include\vector

; 1733 :         return _Mypair._Get_first();

  00183	8b 45 ec	 mov	 eax, DWORD PTR $T9[ebp]
  00186	89 45 e8	 mov	 DWORD PTR $T8[ebp], eax

; 1597 :         _Uninitialized_move(_First, _Last, _Dest, _Getal());

  00189	ff 75 e8	 push	 DWORD PTR $T8[ebp]
  0018c	ff 75 6c	 push	 DWORD PTR __Newvec$[ebp]
  0018f	ff 75 e4	 push	 DWORD PTR __Last$[ebp]
  00192	ff 75 e0	 push	 DWORD PTR __First$[ebp]
  00195	e8 00 00 00 00	 call	 ??$_Uninitialized_move@PAPAVCWeaponTrace@@V?$allocator@PAVCWeaponTrace@@@std@@@std@@YAPAPAVCWeaponTrace@@QAPAV1@0PAPAV1@AAV?$allocator@PAVCWeaponTrace@@@0@@Z ; std::_Uninitialized_move<CWeaponTrace * *,std::allocator<CWeaponTrace *> >
  0019a	83 c4 10	 add	 esp, 16			; 00000010H

; 754  :         } else { // provide basic guarantee

  0019d	eb 5e		 jmp	 SHORT $LN5@Emplace_re
$LN4@Emplace_re:

; 755  :             _Umove(_Myfirst, _Whereptr, _Newvec);

  0019f	8b 45 5c	 mov	 eax, DWORD PTR __Myfirst$[ebp]
  001a2	8b 00		 mov	 eax, DWORD PTR [eax]
  001a4	89 45 d4	 mov	 DWORD PTR __First$[ebp], eax

; 1733 :         return _Mypair._Get_first();

  001a7	8b 45 68	 mov	 eax, DWORD PTR _this$[ebp]
; File C:\Program Files (x86)\Microsoft Visual Studio\2019\Community\VC\Tools\MSVC\14.28.29333\include\xmemory

; 1347 :         return *this;

  001aa	89 45 dc	 mov	 DWORD PTR $T7[ebp], eax
; File C:\Program Files (x86)\Microsoft Visual Studio\2019\Community\VC\Tools\MSVC\14.28.29333\include\vector

; 1733 :         return _Mypair._Get_first();

  001ad	8b 45 dc	 mov	 eax, DWORD PTR $T7[ebp]
  001b0	89 45 d8	 mov	 DWORD PTR $T6[ebp], eax

; 1592 :         return _Uninitialized_move(_First, _Last, _Dest, _Getal());

  001b3	ff 75 d8	 push	 DWORD PTR $T6[ebp]
  001b6	ff 75 6c	 push	 DWORD PTR __Newvec$[ebp]
  001b9	ff 75 78	 push	 DWORD PTR __Whereptr$[ebp]
  001bc	ff 75 d4	 push	 DWORD PTR __First$[ebp]
  001bf	e8 00 00 00 00	 call	 ??$_Uninitialized_move@PAPAVCWeaponTrace@@V?$allocator@PAVCWeaponTrace@@@std@@@std@@YAPAPAVCWeaponTrace@@QAPAV1@0PAPAV1@AAV?$allocator@PAVCWeaponTrace@@@0@@Z ; std::_Uninitialized_move<CWeaponTrace * *,std::allocator<CWeaponTrace *> >
  001c4	83 c4 10	 add	 esp, 16			; 00000010H

; 756  :             _Constructed_first = _Newvec;

  001c7	8b 45 6c	 mov	 eax, DWORD PTR __Newvec$[ebp]
  001ca	89 45 48	 mov	 DWORD PTR __Constructed_first$[ebp], eax

; 757  :             _Umove(_Whereptr, _Mylast, _Newvec + _Whereoff + 1);

  001cd	8b 45 58	 mov	 eax, DWORD PTR __Mylast$[ebp]
  001d0	8b 00		 mov	 eax, DWORD PTR [eax]
  001d2	89 45 c8	 mov	 DWORD PTR __Last$[ebp], eax

; 1733 :         return _Mypair._Get_first();

  001d5	8b 45 68	 mov	 eax, DWORD PTR _this$[ebp]
; File C:\Program Files (x86)\Microsoft Visual Studio\2019\Community\VC\Tools\MSVC\14.28.29333\include\xmemory

; 1347 :         return *this;

  001d8	89 45 d0	 mov	 DWORD PTR $T5[ebp], eax
; File C:\Program Files (x86)\Microsoft Visual Studio\2019\Community\VC\Tools\MSVC\14.28.29333\include\vector

; 1733 :         return _Mypair._Get_first();

  001db	8b 45 d0	 mov	 eax, DWORD PTR $T5[ebp]
  001de	89 45 cc	 mov	 DWORD PTR $T4[ebp], eax

; 1592 :         return _Uninitialized_move(_First, _Last, _Dest, _Getal());

  001e1	ff 75 cc	 push	 DWORD PTR $T4[ebp]

; 757  :             _Umove(_Whereptr, _Mylast, _Newvec + _Whereoff + 1);

  001e4	8b 45 60	 mov	 eax, DWORD PTR __Whereoff$[ebp]
  001e7	8b 4d 6c	 mov	 ecx, DWORD PTR __Newvec$[ebp]
  001ea	8d 44 81 04	 lea	 eax, DWORD PTR [ecx+eax*4+4]

; 1592 :         return _Uninitialized_move(_First, _Last, _Dest, _Getal());

  001ee	50		 push	 eax
  001ef	ff 75 c8	 push	 DWORD PTR __Last$[ebp]
  001f2	ff 75 78	 push	 DWORD PTR __Whereptr$[ebp]
  001f5	e8 00 00 00 00	 call	 ??$_Uninitialized_move@PAPAVCWeaponTrace@@V?$allocator@PAVCWeaponTrace@@@std@@@std@@YAPAPAVCWeaponTrace@@QAPAV1@0PAPAV1@AAV?$allocator@PAVCWeaponTrace@@@0@@Z ; std::_Uninitialized_move<CWeaponTrace * *,std::allocator<CWeaponTrace *> >
  001fa	83 c4 10	 add	 esp, 16			; 00000010H
$LN5@Emplace_re:

; 757  :             _Umove(_Whereptr, _Mylast, _Newvec + _Whereoff + 1);

  001fd	eb 2b		 jmp	 SHORT $LN7@Emplace_re
__catch$??$_Emplace_reallocate@ABQAVCWeaponTrace@@@?$vector@PAVCWeaponTrace@@V?$allocator@PAVCWeaponTrace@@@std@@@std@@QAEPAPAVCWeaponTrace@@QAPAV2@ABQAV2@@Z$0:

; 758  :         }
; 759  :         _CATCH_ALL
; 760  :         _Destroy(_Constructed_first, _Constructed_last);

  001ff	ff 75 30	 push	 DWORD PTR __Constructed_last$[ebp]
  00202	ff 75 48	 push	 DWORD PTR __Constructed_first$[ebp]
  00205	8b 4d 68	 mov	 ecx, DWORD PTR _this$[ebp]
  00208	e8 00 00 00 00	 call	 ?_Destroy@?$vector@PAVCWeaponTrace@@V?$allocator@PAVCWeaponTrace@@@std@@@std@@AAEXPAPAVCWeaponTrace@@0@Z ; std::vector<CWeaponTrace *,std::allocator<CWeaponTrace *> >::_Destroy

; 761  :         _Al.deallocate(_Newvec, _Newcapacity);

  0020d	ff 75 54	 push	 DWORD PTR __Newcapacity$[ebp]
  00210	ff 75 6c	 push	 DWORD PTR __Newvec$[ebp]
  00213	8b 4d c4	 mov	 ecx, DWORD PTR __Al$[ebp]
  00216	e8 00 00 00 00	 call	 ?deallocate@?$allocator@PAVCWeaponTrace@@@std@@QAEXQAPAVCWeaponTrace@@I@Z ; std::allocator<CWeaponTrace *>::deallocate

; 762  :         _RERAISE;

  0021b	6a 00		 push	 0
  0021d	6a 00		 push	 0
  0021f	e8 00 00 00 00	 call	 __CxxThrowException@8

; 763  :         _CATCH_END

  00224	b8 00 00 00 00	 mov	 eax, $LN10@Emplace_re
  00229	c3		 ret	 0
$LN7@Emplace_re:
  0022a	83 4d fc ff	 or	 DWORD PTR __$EHRec$[ebp+12], -1
  0022e	eb 04		 jmp	 SHORT __tryend$??$_Emplace_reallocate@ABQAVCWeaponTrace@@@?$vector@PAVCWeaponTrace@@V?$allocator@PAVCWeaponTrace@@@std@@@std@@QAEPAPAVCWeaponTrace@@QAPAV2@ABQAV2@@Z$1
$LN10@Emplace_re:
; File C:\Program Files (x86)\Microsoft Visual Studio\2019\Community\VC\Tools\MSVC\14.28.29333\include\xmemory
  00230	83 4d fc ff	 or	 DWORD PTR __$EHRec$[ebp+12], -1
__tryend$??$_Emplace_reallocate@ABQAVCWeaponTrace@@@?$vector@PAVCWeaponTrace@@V?$allocator@PAVCWeaponTrace@@@std@@@std@@QAEPAPAVCWeaponTrace@@QAPAV2@ABQAV2@@Z$1:
; File C:\Program Files (x86)\Microsoft Visual Studio\2019\Community\VC\Tools\MSVC\14.28.29333\include\vector

; 764  : 
; 765  :         _Change_array(_Newvec, _Newsize, _Newcapacity);

  00234	ff 75 54	 push	 DWORD PTR __Newcapacity$[ebp]
  00237	ff 75 2c	 push	 DWORD PTR __Newsize$[ebp]
  0023a	ff 75 6c	 push	 DWORD PTR __Newvec$[ebp]
  0023d	8b 4d 68	 mov	 ecx, DWORD PTR _this$[ebp]
  00240	e8 00 00 00 00	 call	 ?_Change_array@?$vector@PAVCWeaponTrace@@V?$allocator@PAVCWeaponTrace@@@std@@@std@@AAEXQAPAVCWeaponTrace@@II@Z ; std::vector<CWeaponTrace *,std::allocator<CWeaponTrace *> >::_Change_array

; 766  :         return _Newvec + _Whereoff;

  00245	8b 45 60	 mov	 eax, DWORD PTR __Whereoff$[ebp]
  00248	8b 4d 6c	 mov	 ecx, DWORD PTR __Newvec$[ebp]
  0024b	8d 04 81	 lea	 eax, DWORD PTR [ecx+eax*4]
$LN70@Emplace_re:

; 767  :     }

  0024e	8b 4d f4	 mov	 ecx, DWORD PTR __$EHRec$[ebp+4]
  00251	64 89 0d 00 00
	00 00		 mov	 DWORD PTR fs:0, ecx
  00258	59		 pop	 ecx
  00259	5f		 pop	 edi
  0025a	5e		 pop	 esi
  0025b	5b		 pop	 ebx
  0025c	83 c5 70	 add	 ebp, 112		; 00000070H
  0025f	c9		 leave
  00260	c2 08 00	 ret	 8
  00263	cc		 int	 3
  00264	cc		 int	 3
  00265	cc		 int	 3
  00266	cc		 int	 3
  00267	cc		 int	 3
_TEXT	ENDS
;	COMDAT text$x
text$x	SEGMENT
__ehhandler$??$_Emplace_reallocate@ABQAVCWeaponTrace@@@?$vector@PAVCWeaponTrace@@V?$allocator@PAVCWeaponTrace@@@std@@@std@@QAEPAPAVCWeaponTrace@@QAPAV2@ABQAV2@@Z:
  00000	90		 npad	 1
  00001	90		 npad	 1
  00002	8b 54 24 08	 mov	 edx, DWORD PTR [esp+8]
  00006	8d 42 0c	 lea	 eax, DWORD PTR [edx+12]
  00009	8b 4a b8	 mov	 ecx, DWORD PTR [edx-72]
  0000c	33 c8		 xor	 ecx, eax
  0000e	e8 00 00 00 00	 call	 @__security_check_cookie@4
  00013	b8 00 00 00 00	 mov	 eax, OFFSET __ehfuncinfo$??$_Emplace_reallocate@ABQAVCWeaponTrace@@@?$vector@PAVCWeaponTrace@@V?$allocator@PAVCWeaponTrace@@@std@@@std@@QAEPAPAVCWeaponTrace@@QAPAV2@ABQAV2@@Z
  00018	e9 00 00 00 00	 jmp	 ___CxxFrameHandler3
text$x	ENDS
??$_Emplace_reallocate@ABQAVCWeaponTrace@@@?$vector@PAVCWeaponTrace@@V?$allocator@PAVCWeaponTrace@@@std@@@std@@QAEPAPAVCWeaponTrace@@QAPAV2@ABQAV2@@Z ENDP ; std::vector<CWeaponTrace *,std::allocator<CWeaponTrace *> >::_Emplace_reallocate<CWeaponTrace * const &>
; Function compile flags: /Odspy
; File C:\Program Files (x86)\Microsoft Visual Studio\2019\Community\VC\Tools\MSVC\14.28.29333\include\vector
; File C:\Program Files (x86)\Microsoft Visual Studio\2019\Community\VC\Tools\MSVC\14.28.29333\include\type_traits
; File C:\Program Files (x86)\Microsoft Visual Studio\2019\Community\VC\Tools\MSVC\14.28.29333\include\vector
; File C:\Program Files (x86)\Microsoft Visual Studio\2019\Community\VC\Tools\MSVC\14.28.29333\include\xstddef
; File C:\Program Files (x86)\Microsoft Visual Studio\2019\Community\VC\Tools\MSVC\14.28.29333\include\vector
; File C:\Program Files (x86)\Microsoft Visual Studio\2019\Community\VC\Tools\MSVC\14.28.29333\include\xmemory
; File C:\Program Files (x86)\Microsoft Visual Studio\2019\Community\VC\Tools\MSVC\14.28.29333\include\vector
; File C:\Program Files (x86)\Microsoft Visual Studio\2019\Community\VC\Tools\MSVC\14.28.29333\include\vcruntime_new.h
; File C:\Program Files (x86)\Microsoft Visual Studio\2019\Community\VC\Tools\MSVC\14.28.29333\include\type_traits
; File C:\Program Files (x86)\Microsoft Visual Studio\2019\Community\VC\Tools\MSVC\14.28.29333\include\xmemory
; File C:\Program Files (x86)\Microsoft Visual Studio\2019\Community\VC\Tools\MSVC\14.28.29333\include\vector
;	COMDAT ??$_Emplace_back_with_unused_capacity@ABQAVCWeaponTrace@@@?$vector@PAVCWeaponTrace@@V?$allocator@PAVCWeaponTrace@@@std@@@std@@AAEXABQAVCWeaponTrace@@@Z
_TEXT	SEGMENT
__Result$ = -44						; size = 4
$T1 = -40						; size = 4
$T2 = -36						; size = 4
$T3 = -32						; size = 4
$T4 = -28						; size = 4
$T5 = -24						; size = 4
$T6 = -20						; size = 4
__Ptr$ = -16						; size = 4
__My_data$ = -12					; size = 4
_this$ = -8						; size = 4
__Mylast$ = -4						; size = 4
_<_Val_0>$ = 8						; size = 4
??$_Emplace_back_with_unused_capacity@ABQAVCWeaponTrace@@@?$vector@PAVCWeaponTrace@@V?$allocator@PAVCWeaponTrace@@@std@@@std@@AAEXABQAVCWeaponTrace@@@Z PROC ; std::vector<CWeaponTrace *,std::allocator<CWeaponTrace *> >::_Emplace_back_with_unused_capacity<CWeaponTrace * const &>, COMDAT
; _this$ = ecx

; 682  :     decltype(auto) _Emplace_back_with_unused_capacity(_Valty&&... _Val) {

  00000	55		 push	 ebp
  00001	8b ec		 mov	 ebp, esp
  00003	83 ec 2c	 sub	 esp, 44			; 0000002cH
  00006	89 4d f8	 mov	 DWORD PTR _this$[ebp], ecx

; 683  :         // insert by perfectly forwarding into element at end, provide strong guarantee
; 684  :         auto& _My_data   = _Mypair._Myval2;

  00009	8b 45 f8	 mov	 eax, DWORD PTR _this$[ebp]
  0000c	89 45 f4	 mov	 DWORD PTR __My_data$[ebp], eax

; 685  :         pointer& _Mylast = _My_data._Mylast;

  0000f	8b 45 f4	 mov	 eax, DWORD PTR __My_data$[ebp]
  00012	83 c0 04	 add	 eax, 4
  00015	89 45 fc	 mov	 DWORD PTR __Mylast$[ebp], eax
; File C:\Program Files (x86)\Microsoft Visual Studio\2019\Community\VC\Tools\MSVC\14.28.29333\include\type_traits

; 1443 :     return static_cast<_Ty&&>(_Arg);

  00018	8b 45 08	 mov	 eax, DWORD PTR _<_Val_0>$[ebp]
  0001b	89 45 e4	 mov	 DWORD PTR $T4[ebp], eax
; File C:\Program Files (x86)\Microsoft Visual Studio\2019\Community\VC\Tools\MSVC\14.28.29333\include\vector

; 687  :         _Alty_traits::construct(_Getal(), _Unfancy(_Mylast), _STD forward<_Valty>(_Val)...);

  0001e	8b 45 fc	 mov	 eax, DWORD PTR __Mylast$[ebp]
  00021	8b 00		 mov	 eax, DWORD PTR [eax]
  00023	89 45 f0	 mov	 DWORD PTR __Ptr$[ebp], eax
; File C:\Program Files (x86)\Microsoft Visual Studio\2019\Community\VC\Tools\MSVC\14.28.29333\include\xstddef

; 289  :     return _Ptr;

  00026	8b 45 f0	 mov	 eax, DWORD PTR __Ptr$[ebp]
  00029	89 45 e8	 mov	 DWORD PTR $T5[ebp], eax
; File C:\Program Files (x86)\Microsoft Visual Studio\2019\Community\VC\Tools\MSVC\14.28.29333\include\vector

; 1733 :         return _Mypair._Get_first();

  0002c	8b 45 f8	 mov	 eax, DWORD PTR _this$[ebp]
; File C:\Program Files (x86)\Microsoft Visual Studio\2019\Community\VC\Tools\MSVC\14.28.29333\include\xmemory

; 1347 :         return *this;

  0002f	89 45 ec	 mov	 DWORD PTR $T6[ebp], eax
; File C:\Program Files (x86)\Microsoft Visual Studio\2019\Community\VC\Tools\MSVC\14.28.29333\include\vector

; 1733 :         return _Mypair._Get_first();

  00032	8b 45 ec	 mov	 eax, DWORD PTR $T6[ebp]
  00035	89 45 d8	 mov	 DWORD PTR $T1[ebp], eax
; File C:\Program Files (x86)\Microsoft Visual Studio\2019\Community\VC\Tools\MSVC\14.28.29333\include\vcruntime_new.h

; 169  :         return _Where;

  00038	8b 45 e8	 mov	 eax, DWORD PTR $T5[ebp]
  0003b	89 45 e0	 mov	 DWORD PTR $T3[ebp], eax
; File C:\Program Files (x86)\Microsoft Visual Studio\2019\Community\VC\Tools\MSVC\14.28.29333\include\type_traits

; 1443 :     return static_cast<_Ty&&>(_Arg);

  0003e	8b 45 e4	 mov	 eax, DWORD PTR $T4[ebp]
  00041	89 45 dc	 mov	 DWORD PTR $T2[ebp], eax
; File C:\Program Files (x86)\Microsoft Visual Studio\2019\Community\VC\Tools\MSVC\14.28.29333\include\xmemory

; 701  :         ::new (const_cast<void*>(static_cast<const volatile void*>(_Ptr))) _Objty(_STD forward<_Types>(_Args)...);

  00044	8b 45 e0	 mov	 eax, DWORD PTR $T3[ebp]
  00047	8b 4d dc	 mov	 ecx, DWORD PTR $T2[ebp]
  0004a	8b 09		 mov	 ecx, DWORD PTR [ecx]
  0004c	89 08		 mov	 DWORD PTR [eax], ecx
; File C:\Program Files (x86)\Microsoft Visual Studio\2019\Community\VC\Tools\MSVC\14.28.29333\include\vector

; 689  :         _Ty& _Result = *_Mylast;

  0004e	8b 45 fc	 mov	 eax, DWORD PTR __Mylast$[ebp]
  00051	8b 00		 mov	 eax, DWORD PTR [eax]
  00053	89 45 d4	 mov	 DWORD PTR __Result$[ebp], eax

; 690  :         ++_Mylast;

  00056	8b 45 fc	 mov	 eax, DWORD PTR __Mylast$[ebp]
  00059	8b 00		 mov	 eax, DWORD PTR [eax]
  0005b	83 c0 04	 add	 eax, 4
  0005e	8b 4d fc	 mov	 ecx, DWORD PTR __Mylast$[ebp]
  00061	89 01		 mov	 DWORD PTR [ecx], eax

; 691  : #if _HAS_CXX17
; 692  :         return _Result;
; 693  : #else // ^^^ _HAS_CXX17 ^^^ // vvv !_HAS_CXX17 vvv
; 694  :         (void) _Result;
; 695  : #endif // _HAS_CXX17
; 696  :     }

  00063	c9		 leave
  00064	c2 04 00	 ret	 4
??$_Emplace_back_with_unused_capacity@ABQAVCWeaponTrace@@@?$vector@PAVCWeaponTrace@@V?$allocator@PAVCWeaponTrace@@@std@@@std@@AAEXABQAVCWeaponTrace@@@Z ENDP ; std::vector<CWeaponTrace *,std::allocator<CWeaponTrace *> >::_Emplace_back_with_unused_capacity<CWeaponTrace * const &>
_TEXT	ENDS
; Function compile flags: /Odspy
; File C:\Program Files (x86)\Microsoft Visual Studio\2019\Community\VC\Tools\MSVC\14.28.29333\include\vector
; File C:\Program Files (x86)\Microsoft Visual Studio\2019\Community\VC\Tools\MSVC\14.28.29333\include\type_traits
; File C:\Program Files (x86)\Microsoft Visual Studio\2019\Community\VC\Tools\MSVC\14.28.29333\include\vector
; File C:\Program Files (x86)\Microsoft Visual Studio\2019\Community\VC\Tools\MSVC\14.28.29333\include\type_traits
; File C:\Program Files (x86)\Microsoft Visual Studio\2019\Community\VC\Tools\MSVC\14.28.29333\include\vector
;	COMDAT ??$emplace_back@ABQAVCWeaponTrace@@@?$vector@PAVCWeaponTrace@@V?$allocator@PAVCWeaponTrace@@@std@@@std@@QAEXABQAVCWeaponTrace@@@Z
_TEXT	SEGMENT
__Result$ = -24						; size = 4
$T1 = -20						; size = 4
$T2 = -16						; size = 4
__Mylast$ = -12						; size = 4
__My_data$ = -8						; size = 4
_this$ = -4						; size = 4
_<_Val_0>$ = 8						; size = 4
??$emplace_back@ABQAVCWeaponTrace@@@?$vector@PAVCWeaponTrace@@V?$allocator@PAVCWeaponTrace@@@std@@@std@@QAEXABQAVCWeaponTrace@@@Z PROC ; std::vector<CWeaponTrace *,std::allocator<CWeaponTrace *> >::emplace_back<CWeaponTrace * const &>, COMDAT
; _this$ = ecx

; 700  :     decltype(auto) emplace_back(_Valty&&... _Val) {

  00000	55		 push	 ebp
  00001	8b ec		 mov	 ebp, esp
  00003	83 ec 18	 sub	 esp, 24			; 00000018H
  00006	89 4d fc	 mov	 DWORD PTR _this$[ebp], ecx

; 701  :         // insert by perfectly forwarding into element at end, provide strong guarantee
; 702  :         auto& _My_data   = _Mypair._Myval2;

  00009	8b 45 fc	 mov	 eax, DWORD PTR _this$[ebp]
  0000c	89 45 f8	 mov	 DWORD PTR __My_data$[ebp], eax

; 703  :         pointer& _Mylast = _My_data._Mylast;

  0000f	8b 45 f8	 mov	 eax, DWORD PTR __My_data$[ebp]
  00012	83 c0 04	 add	 eax, 4
  00015	89 45 f4	 mov	 DWORD PTR __Mylast$[ebp], eax

; 704  :         if (_Mylast != _My_data._Myend) {

  00018	8b 45 f4	 mov	 eax, DWORD PTR __Mylast$[ebp]
  0001b	8b 4d f8	 mov	 ecx, DWORD PTR __My_data$[ebp]
  0001e	8b 00		 mov	 eax, DWORD PTR [eax]
  00020	3b 41 08	 cmp	 eax, DWORD PTR [ecx+8]
  00023	74 13		 je	 SHORT $LN2@emplace_ba
; File C:\Program Files (x86)\Microsoft Visual Studio\2019\Community\VC\Tools\MSVC\14.28.29333\include\type_traits

; 1443 :     return static_cast<_Ty&&>(_Arg);

  00025	8b 45 08	 mov	 eax, DWORD PTR _<_Val_0>$[ebp]
  00028	89 45 f0	 mov	 DWORD PTR $T2[ebp], eax
; File C:\Program Files (x86)\Microsoft Visual Studio\2019\Community\VC\Tools\MSVC\14.28.29333\include\vector

; 705  :             return _Emplace_back_with_unused_capacity(_STD forward<_Valty>(_Val)...);

  0002b	ff 75 f0	 push	 DWORD PTR $T2[ebp]
  0002e	8b 4d fc	 mov	 ecx, DWORD PTR _this$[ebp]
  00031	e8 00 00 00 00	 call	 ??$_Emplace_back_with_unused_capacity@ABQAVCWeaponTrace@@@?$vector@PAVCWeaponTrace@@V?$allocator@PAVCWeaponTrace@@@std@@@std@@AAEXABQAVCWeaponTrace@@@Z ; std::vector<CWeaponTrace *,std::allocator<CWeaponTrace *> >::_Emplace_back_with_unused_capacity<CWeaponTrace * const &>
  00036	eb 19		 jmp	 SHORT $LN1@emplace_ba
$LN2@emplace_ba:
; File C:\Program Files (x86)\Microsoft Visual Studio\2019\Community\VC\Tools\MSVC\14.28.29333\include\type_traits

; 1443 :     return static_cast<_Ty&&>(_Arg);

  00038	8b 45 08	 mov	 eax, DWORD PTR _<_Val_0>$[ebp]
  0003b	89 45 ec	 mov	 DWORD PTR $T1[ebp], eax
; File C:\Program Files (x86)\Microsoft Visual Studio\2019\Community\VC\Tools\MSVC\14.28.29333\include\vector

; 708  :         _Ty& _Result = *_Emplace_reallocate(_Mylast, _STD forward<_Valty>(_Val)...);

  0003e	ff 75 ec	 push	 DWORD PTR $T1[ebp]
  00041	8b 45 f4	 mov	 eax, DWORD PTR __Mylast$[ebp]
  00044	ff 30		 push	 DWORD PTR [eax]
  00046	8b 4d fc	 mov	 ecx, DWORD PTR _this$[ebp]
  00049	e8 00 00 00 00	 call	 ??$_Emplace_reallocate@ABQAVCWeaponTrace@@@?$vector@PAVCWeaponTrace@@V?$allocator@PAVCWeaponTrace@@@std@@@std@@QAEPAPAVCWeaponTrace@@QAPAV2@ABQAV2@@Z ; std::vector<CWeaponTrace *,std::allocator<CWeaponTrace *> >::_Emplace_reallocate<CWeaponTrace * const &>
  0004e	89 45 e8	 mov	 DWORD PTR __Result$[ebp], eax
$LN1@emplace_ba:

; 709  : #if _HAS_CXX17
; 710  :         return _Result;
; 711  : #else // ^^^ _HAS_CXX17 ^^^ // vvv !_HAS_CXX17 vvv
; 712  :         (void) _Result;
; 713  : #endif // _HAS_CXX17
; 714  :     }

  00051	c9		 leave
  00052	c2 04 00	 ret	 4
??$emplace_back@ABQAVCWeaponTrace@@@?$vector@PAVCWeaponTrace@@V?$allocator@PAVCWeaponTrace@@@std@@@std@@QAEXABQAVCWeaponTrace@@@Z ENDP ; std::vector<CWeaponTrace *,std::allocator<CWeaponTrace *> >::emplace_back<CWeaponTrace * const &>
_TEXT	ENDS
; Function compile flags: /Odspy
; File C:\Program Files (x86)\Microsoft Visual Studio\2019\Community\VC\Tools\MSVC\14.28.29333\include\xmemory
; File C:\Program Files (x86)\Microsoft Visual Studio\2019\Community\VC\Tools\MSVC\14.28.29333\include\xstddef
; File C:\Program Files (x86)\Microsoft Visual Studio\2019\Community\VC\Tools\MSVC\14.28.29333\include\xmemory
;	COMDAT ??$_Alloc_proxy@V?$allocator@U_Container_proxy@std@@@std@@@_Container_base12@std@@QAEX$$QAV?$allocator@U_Container_proxy@std@@@1@@Z
_TEXT	SEGMENT
__Max_possible$1 = -28					; size = 4
$T2 = -24						; size = 4
$T3 = -20						; size = 4
$T4 = -16						; size = 4
_this$ = -12						; size = 4
__New_proxy$ = -8					; size = 4
__Overflow_is_possible$5 = -1				; size = 1
__Al$ = 8						; size = 4
??$_Alloc_proxy@V?$allocator@U_Container_proxy@std@@@std@@@_Container_base12@std@@QAEX$$QAV?$allocator@U_Container_proxy@std@@@1@@Z PROC ; std::_Container_base12::_Alloc_proxy<std::allocator<std::_Container_proxy> >, COMDAT
; _this$ = ecx

; 1106 :     void _Alloc_proxy(_Alloc&& _Al) {

  00000	55		 push	 ebp
  00001	8b ec		 mov	 ebp, esp
  00003	83 ec 1c	 sub	 esp, 28			; 0000001cH
  00006	89 4d f4	 mov	 DWORD PTR _this$[ebp], ecx

; 56   :     constexpr bool _Overflow_is_possible = _Ty_size > 1;

  00009	c6 45 ff 01	 mov	 BYTE PTR __Overflow_is_possible$5[ebp], 1

; 57   : 
; 58   :     if _CONSTEXPR_IF (_Overflow_is_possible) {
; 59   :         constexpr size_t _Max_possible = static_cast<size_t>(-1) / _Ty_size;

  0000d	c7 45 e4 ff ff
	ff 1f		 mov	 DWORD PTR __Max_possible$1[ebp], 536870911 ; 1fffffffH

; 60   :         if (_Count > _Max_possible) {

  00014	33 c0		 xor	 eax, eax
  00016	40		 inc	 eax
  00017	3d ff ff ff 1f	 cmp	 eax, 536870911		; 1fffffffH
  0001c	76 05		 jbe	 SHORT $LN6@Alloc_prox

; 61   :             _Throw_bad_array_new_length(); // multiply overflow

  0001e	e8 00 00 00 00	 call	 ?_Throw_bad_array_new_length@std@@YAXXZ ; std::_Throw_bad_array_new_length
$LN6@Alloc_prox:

; 62   :         }
; 63   :     }
; 64   : 
; 65   :     return _Count * _Ty_size;

  00023	33 c0		 xor	 eax, eax
  00025	40		 inc	 eax
  00026	c1 e0 03	 shl	 eax, 3
  00029	89 45 f0	 mov	 DWORD PTR $T4[ebp], eax

; 814  :         return static_cast<_Ty*>(_Allocate<_New_alignof<_Ty>>(_Get_size_of_n<sizeof(_Ty)>(_Count)));

  0002c	ff 75 f0	 push	 DWORD PTR $T4[ebp]
  0002f	e8 00 00 00 00	 call	 ??$_Allocate@$07U_Default_allocate_traits@std@@$0A@@std@@YAPAXI@Z ; std::_Allocate<8,std::_Default_allocate_traits,0>
  00034	59		 pop	 ecx
  00035	89 45 ec	 mov	 DWORD PTR $T3[ebp], eax
; File C:\Program Files (x86)\Microsoft Visual Studio\2019\Community\VC\Tools\MSVC\14.28.29333\include\xstddef

; 289  :     return _Ptr;

  00038	8b 45 ec	 mov	 eax, DWORD PTR $T3[ebp]
  0003b	89 45 f8	 mov	 DWORD PTR __New_proxy$[ebp], eax
; File C:\Program Files (x86)\Microsoft Visual Studio\2019\Community\VC\Tools\MSVC\14.28.29333\include\xmemory

; 1108 :         _Construct_in_place(*_New_proxy, this);

  0003e	8b 45 f4	 mov	 eax, DWORD PTR _this$[ebp]
  00041	89 45 e8	 mov	 DWORD PTR $T2[ebp], eax
  00044	8d 45 e8	 lea	 eax, DWORD PTR $T2[ebp]
  00047	50		 push	 eax
  00048	ff 75 f8	 push	 DWORD PTR __New_proxy$[ebp]
  0004b	e8 00 00 00 00	 call	 ??$_Construct_in_place@U_Container_proxy@std@@PAU_Container_base12@2@@std@@YAXAAU_Container_proxy@0@$$QAPAU_Container_base12@0@@Z ; std::_Construct_in_place<std::_Container_proxy,std::_Container_base12 *>
  00050	59		 pop	 ecx
  00051	59		 pop	 ecx

; 1109 :         _Myproxy            = _New_proxy;

  00052	8b 45 f4	 mov	 eax, DWORD PTR _this$[ebp]
  00055	8b 4d f8	 mov	 ecx, DWORD PTR __New_proxy$[ebp]
  00058	89 08		 mov	 DWORD PTR [eax], ecx

; 1110 :         _New_proxy->_Mycont = this;

  0005a	8b 45 f8	 mov	 eax, DWORD PTR __New_proxy$[ebp]
  0005d	8b 4d f4	 mov	 ecx, DWORD PTR _this$[ebp]
  00060	89 08		 mov	 DWORD PTR [eax], ecx
$LN9@Alloc_prox:

; 1111 :     }

  00062	c9		 leave
  00063	c2 04 00	 ret	 4
??$_Alloc_proxy@V?$allocator@U_Container_proxy@std@@@std@@@_Container_base12@std@@QAEX$$QAV?$allocator@U_Container_proxy@std@@@1@@Z ENDP ; std::_Container_base12::_Alloc_proxy<std::allocator<std::_Container_proxy> >
_TEXT	ENDS
; Function compile flags: /Odspy
; File C:\Program Files (x86)\Microsoft Visual Studio\2019\Community\VC\Tools\MSVC\14.28.29333\include\xmemory
;	COMDAT ??$_Delete_plain_internal@V?$allocator@U_Container_proxy@std@@@std@@@std@@YAXAAV?$allocator@U_Container_proxy@std@@@0@QAU_Container_proxy@0@@Z
_TEXT	SEGMENT
__Al$ = 8						; size = 4
__Ptr$ = 12						; size = 4
??$_Delete_plain_internal@V?$allocator@U_Container_proxy@std@@@std@@@std@@YAXAAV?$allocator@U_Container_proxy@std@@@0@QAU_Container_proxy@0@@Z PROC ; std::_Delete_plain_internal<std::allocator<std::_Container_proxy> >, COMDAT

; 1031 : void _Delete_plain_internal(_Alloc& _Al, typename _Alloc::value_type* const _Ptr) noexcept {

  00000	55		 push	 ebp
  00001	8b ec		 mov	 ebp, esp

; 1032 :     // destroy *_Ptr in place, then deallocate _Ptr using _Al; used for internal container types the user didn't name
; 1033 :     using _Ty = typename _Alloc::value_type;
; 1034 :     _Ptr->~_Ty();
; 1035 :     _Deallocate_plain(_Al, _Ptr);

  00003	ff 75 0c	 push	 DWORD PTR __Ptr$[ebp]
  00006	ff 75 08	 push	 DWORD PTR __Al$[ebp]
  00009	e8 00 00 00 00	 call	 ??$_Deallocate_plain@V?$allocator@U_Container_proxy@std@@@std@@@std@@YAXAAV?$allocator@U_Container_proxy@std@@@0@QAU_Container_proxy@0@@Z ; std::_Deallocate_plain<std::allocator<std::_Container_proxy> >
  0000e	59		 pop	 ecx
  0000f	59		 pop	 ecx

; 1036 : }

  00010	5d		 pop	 ebp
  00011	c3		 ret	 0
??$_Delete_plain_internal@V?$allocator@U_Container_proxy@std@@@std@@@std@@YAXAAV?$allocator@U_Container_proxy@std@@@0@QAU_Container_proxy@0@@Z ENDP ; std::_Delete_plain_internal<std::allocator<std::_Container_proxy> >
_TEXT	ENDS
; Function compile flags: /Odspy
; File C:\Program Files (x86)\Microsoft Visual Studio\2019\Community\VC\Tools\MSVC\14.28.29333\include\deque
;	COMDAT ??D?$_Deque_unchecked_const_iterator@V?$_Deque_val@U?$_Deque_simple_types@U?$pair@MUD3DXVECTOR3@@@std@@@std@@@std@@@std@@QBEABU?$pair@MUD3DXVECTOR3@@@1@XZ
_TEXT	SEGMENT
__Block$ = -20						; size = 4
__Off$ = -16						; size = 4
__Off$ = -12						; size = 4
_this$ = -8						; size = 4
_this$ = -4						; size = 4
??D?$_Deque_unchecked_const_iterator@V?$_Deque_val@U?$_Deque_simple_types@U?$pair@MUD3DXVECTOR3@@@std@@@std@@@std@@@std@@QBEABU?$pair@MUD3DXVECTOR3@@@1@XZ PROC ; std::_Deque_unchecked_const_iterator<std::_Deque_val<std::_Deque_simple_types<std::pair<float,D3DXVECTOR3> > > >::operator*, COMDAT
; _this$ = ecx

; 54   :     _NODISCARD reference operator*() const noexcept {

  00000	55		 push	 ebp
  00001	8b ec		 mov	 ebp, esp
  00003	83 ec 14	 sub	 esp, 20			; 00000014H
  00006	89 4d fc	 mov	 DWORD PTR _this$[ebp], ecx

; 55   :         _Size_type _Block = _Mycont->_Getblock(_Myoff);

  00009	8b 45 fc	 mov	 eax, DWORD PTR _this$[ebp]
  0000c	8b 40 04	 mov	 eax, DWORD PTR [eax+4]
  0000f	89 45 f4	 mov	 DWORD PTR __Off$[ebp], eax
  00012	8b 45 fc	 mov	 eax, DWORD PTR _this$[ebp]
  00015	8b 00		 mov	 eax, DWORD PTR [eax]
  00017	89 45 f8	 mov	 DWORD PTR _this$[ebp], eax

; 548  :         return (_Off / _DEQUESIZ) & (_Mapsize - 1);

  0001a	8b 45 f8	 mov	 eax, DWORD PTR _this$[ebp]
  0001d	8b 40 08	 mov	 eax, DWORD PTR [eax+8]
  00020	48		 dec	 eax
  00021	23 45 f4	 and	 eax, DWORD PTR __Off$[ebp]
  00024	89 45 ec	 mov	 DWORD PTR __Block$[ebp], eax

; 56   :         _Size_type _Off   = _Myoff % _DEQUESIZ;

  00027	8b 45 fc	 mov	 eax, DWORD PTR _this$[ebp]
  0002a	8b 40 04	 mov	 eax, DWORD PTR [eax+4]
  0002d	33 d2		 xor	 edx, edx
  0002f	33 c9		 xor	 ecx, ecx
  00031	41		 inc	 ecx
  00032	f7 f1		 div	 ecx
  00034	89 55 f0	 mov	 DWORD PTR __Off$[ebp], edx

; 57   :         return _Mycont->_Map[_Block][_Off];

  00037	8b 45 fc	 mov	 eax, DWORD PTR _this$[ebp]
  0003a	8b 00		 mov	 eax, DWORD PTR [eax]
  0003c	8b 40 04	 mov	 eax, DWORD PTR [eax+4]
  0003f	8b 4d f0	 mov	 ecx, DWORD PTR __Off$[ebp]
  00042	c1 e1 04	 shl	 ecx, 4
  00045	8b 55 ec	 mov	 edx, DWORD PTR __Block$[ebp]
  00048	03 0c 90	 add	 ecx, DWORD PTR [eax+edx*4]
  0004b	8b c1		 mov	 eax, ecx

; 58   :     }

  0004d	c9		 leave
  0004e	c3		 ret	 0
??D?$_Deque_unchecked_const_iterator@V?$_Deque_val@U?$_Deque_simple_types@U?$pair@MUD3DXVECTOR3@@@std@@@std@@@std@@@std@@QBEABU?$pair@MUD3DXVECTOR3@@@1@XZ ENDP ; std::_Deque_unchecked_const_iterator<std::_Deque_val<std::_Deque_simple_types<std::pair<float,D3DXVECTOR3> > > >::operator*
_TEXT	ENDS
; Function compile flags: /Odspy
; File C:\Program Files (x86)\Microsoft Visual Studio\2019\Community\VC\Tools\MSVC\14.28.29333\include\xutility
; File C:\Program Files (x86)\Microsoft Visual Studio\2019\Community\VC\Tools\MSVC\14.28.29333\include\deque
; File C:\Program Files (x86)\Microsoft Visual Studio\2019\Community\VC\Tools\MSVC\14.28.29333\include\xmemory
; File C:\Program Files (x86)\Microsoft Visual Studio\2019\Community\VC\Tools\MSVC\14.28.29333\include\deque
; File C:\Program Files (x86)\Microsoft Visual Studio\2019\Community\VC\Tools\MSVC\14.28.29333\include\xmemory
; File C:\Program Files (x86)\Microsoft Visual Studio\2019\Community\VC\Tools\MSVC\14.28.29333\include\deque
; File C:\Program Files (x86)\Microsoft Visual Studio\2019\Community\VC\Tools\MSVC\14.28.29333\include\xutility
; File C:\Program Files (x86)\Microsoft Visual Studio\2019\Community\VC\Tools\MSVC\14.28.29333\include\deque
; File C:\Program Files (x86)\Microsoft Visual Studio\2019\Community\VC\Tools\MSVC\14.28.29333\include\xmemory
; File C:\Program Files (x86)\Microsoft Visual Studio\2019\Community\VC\Tools\MSVC\14.28.29333\include\deque
; File C:\Program Files (x86)\Microsoft Visual Studio\2019\Community\VC\Tools\MSVC\14.28.29333\include\xutility
; File C:\Program Files (x86)\Microsoft Visual Studio\2019\Community\VC\Tools\MSVC\14.28.29333\include\deque
; File C:\Program Files (x86)\Microsoft Visual Studio\2019\Community\VC\Tools\MSVC\14.28.29333\include\xutility
;	COMDAT ??$move@V?$_Deque_iterator@V?$_Deque_val@U?$_Deque_simple_types@U?$pair@MUD3DXVECTOR3@@@std@@@std@@@std@@@std@@V12@@std@@YA?AV?$_Deque_iterator@V?$_Deque_val@U?$_Deque_simple_types@U?$pair@MUD3DXVECTOR3@@@std@@@std@@@std@@@0@V10@00@Z
_TEXT	SEGMENT
$T2 = -112						; size = 8
__UDest$ = -104						; size = 8
__UFirst$ = -96						; size = 8
__ULast$ = -88						; size = 8
$T3 = -80						; size = 4
__COff$4 = -76						; size = 4
$T5 = -72						; size = 4
$T6 = -68						; size = 4
__UIt$ = -64						; size = 4
$T7 = -60						; size = 4
$T8 = -56						; size = 4
$T9 = -52						; size = 4
$T10 = -48						; size = 4
$T11 = -44						; size = 4
$T12 = -40						; size = 4
$T13 = -36						; size = 4
tv221 = -32						; size = 4
$T14 = -28						; size = 4
tv180 = -24						; size = 4
$T15 = -20						; size = 4
tv154 = -16						; size = 4
__$EHRec$ = -12						; size = 12
___$ReturnUdt$ = 8					; size = 4
__First$ = 12						; size = 12
__Last$ = 24						; size = 12
__Dest$ = 36						; size = 12
??$move@V?$_Deque_iterator@V?$_Deque_val@U?$_Deque_simple_types@U?$pair@MUD3DXVECTOR3@@@std@@@std@@@std@@@std@@V12@@std@@YA?AV?$_Deque_iterator@V?$_Deque_val@U?$_Deque_simple_types@U?$pair@MUD3DXVECTOR3@@@std@@@std@@@std@@@0@V10@00@Z PROC ; std::move<std::_Deque_iterator<std::_Deque_val<std::_Deque_simple_types<std::pair<float,D3DXVECTOR3> > > >,std::_Deque_iterator<std::_Deque_val<std::_Deque_simple_types<std::pair<float,D3DXVECTOR3> > > > >, COMDAT

; 4664 : _CONSTEXPR20 _OutIt move(_InIt _First, _InIt _Last, _OutIt _Dest) {

  00000	55		 push	 ebp
  00001	8b ec		 mov	 ebp, esp
  00003	6a ff		 push	 -1
  00005	68 00 00 00 00	 push	 __ehhandler$??$move@V?$_Deque_iterator@V?$_Deque_val@U?$_Deque_simple_types@U?$pair@MUD3DXVECTOR3@@@std@@@std@@@std@@@std@@V12@@std@@YA?AV?$_Deque_iterator@V?$_Deque_val@U?$_Deque_simple_types@U?$pair@MUD3DXVECTOR3@@@std@@@std@@@std@@@0@V10@00@Z
  0000a	64 a1 00 00 00
	00		 mov	 eax, DWORD PTR fs:0
  00010	50		 push	 eax
  00011	83 ec 64	 sub	 esp, 100		; 00000064H
  00014	a1 00 00 00 00	 mov	 eax, DWORD PTR ___security_cookie
  00019	33 c5		 xor	 eax, ebp
  0001b	50		 push	 eax
  0001c	8d 45 f4	 lea	 eax, DWORD PTR __$EHRec$[ebp]
  0001f	64 a3 00 00 00
	00		 mov	 DWORD PTR fs:0, eax
  00025	83 65 d8 00	 and	 DWORD PTR $T12[ebp], 0
  00029	c7 45 fc 02 00
	00 00		 mov	 DWORD PTR __$EHRec$[ebp+8], 2
; File C:\Program Files (x86)\Microsoft Visual Studio\2019\Community\VC\Tools\MSVC\14.28.29333\include\deque

; 504  :         return {this->_Myoff, this->_Getcont()};

  00030	8b 45 14	 mov	 eax, DWORD PTR __First$[ebp+8]
  00033	89 45 d4	 mov	 DWORD PTR $T11[ebp], eax
  00036	8b 45 bc	 mov	 eax, DWORD PTR $T6[ebp]
  00039	89 45 ec	 mov	 DWORD PTR $T15[ebp], eax
; File C:\Program Files (x86)\Microsoft Visual Studio\2019\Community\VC\Tools\MSVC\14.28.29333\include\xmemory

; 1185 :         return _Myproxy ? _Myproxy->_Mycont : nullptr;

  0003c	83 7d 0c 00	 cmp	 DWORD PTR __First$[ebp], 0
  00040	74 0a		 je	 SHORT $LN17@move
  00042	8b 45 0c	 mov	 eax, DWORD PTR __First$[ebp]
  00045	8b 00		 mov	 eax, DWORD PTR [eax]
  00047	89 45 f0	 mov	 DWORD PTR tv154[ebp], eax
  0004a	eb 04		 jmp	 SHORT $LN18@move
$LN17@move:
  0004c	83 65 f0 00	 and	 DWORD PTR tv154[ebp], 0
$LN18@move:
  00050	8b 45 f0	 mov	 eax, DWORD PTR tv154[ebp]
  00053	89 45 ec	 mov	 DWORD PTR $T15[ebp], eax
; File C:\Program Files (x86)\Microsoft Visual Studio\2019\Community\VC\Tools\MSVC\14.28.29333\include\deque

; 52   :         : _Mycont(static_cast<const _Mydeque*>(_Pdeque)), _Myoff(_Off) {}

  00056	8b 45 ec	 mov	 eax, DWORD PTR $T15[ebp]
  00059	89 45 a0	 mov	 DWORD PTR __UFirst$[ebp], eax
  0005c	8b 45 d4	 mov	 eax, DWORD PTR $T11[ebp]
  0005f	89 45 a4	 mov	 DWORD PTR __UFirst$[ebp+4], eax

; 504  :         return {this->_Myoff, this->_Getcont()};

  00062	8b 45 20	 mov	 eax, DWORD PTR __Last$[ebp+8]
  00065	89 45 d0	 mov	 DWORD PTR $T10[ebp], eax
  00068	8b 45 b8	 mov	 eax, DWORD PTR $T5[ebp]
  0006b	89 45 e4	 mov	 DWORD PTR $T14[ebp], eax
; File C:\Program Files (x86)\Microsoft Visual Studio\2019\Community\VC\Tools\MSVC\14.28.29333\include\xmemory

; 1185 :         return _Myproxy ? _Myproxy->_Mycont : nullptr;

  0006e	83 7d 18 00	 cmp	 DWORD PTR __Last$[ebp], 0
  00072	74 0a		 je	 SHORT $LN33@move
  00074	8b 45 18	 mov	 eax, DWORD PTR __Last$[ebp]
  00077	8b 00		 mov	 eax, DWORD PTR [eax]
  00079	89 45 e8	 mov	 DWORD PTR tv180[ebp], eax
  0007c	eb 04		 jmp	 SHORT $LN34@move
$LN33@move:
  0007e	83 65 e8 00	 and	 DWORD PTR tv180[ebp], 0
$LN34@move:
  00082	8b 45 e8	 mov	 eax, DWORD PTR tv180[ebp]
  00085	89 45 e4	 mov	 DWORD PTR $T14[ebp], eax
; File C:\Program Files (x86)\Microsoft Visual Studio\2019\Community\VC\Tools\MSVC\14.28.29333\include\deque

; 52   :         : _Mycont(static_cast<const _Mydeque*>(_Pdeque)), _Myoff(_Off) {}

  00088	8b 45 e4	 mov	 eax, DWORD PTR $T14[ebp]
  0008b	89 45 a8	 mov	 DWORD PTR __ULast$[ebp], eax
  0008e	8b 45 d0	 mov	 eax, DWORD PTR $T10[ebp]
  00091	89 45 ac	 mov	 DWORD PTR __ULast$[ebp+4], eax

; 107  :         return static_cast<difference_type>(_Myoff - _Right._Myoff);

  00094	8b 45 ac	 mov	 eax, DWORD PTR __ULast$[ebp+4]
  00097	2b 45 a4	 sub	 eax, DWORD PTR __UFirst$[ebp+4]
  0009a	89 45 cc	 mov	 DWORD PTR $T9[ebp], eax

; 221  :         return _Mybase::operator-(_Right);

  0009d	8b 45 cc	 mov	 eax, DWORD PTR $T9[ebp]
  000a0	89 45 c8	 mov	 DWORD PTR $T8[ebp], eax
; File C:\Program Files (x86)\Microsoft Visual Studio\2019\Community\VC\Tools\MSVC\14.28.29333\include\xutility

; 1413 :         const auto _COff = static_cast<_CDiff>(_Off);

  000a3	8b 45 c8	 mov	 eax, DWORD PTR $T8[ebp]
  000a6	89 45 b4	 mov	 DWORD PTR __COff$4[ebp], eax
; File C:\Program Files (x86)\Microsoft Visual Studio\2019\Community\VC\Tools\MSVC\14.28.29333\include\deque

; 504  :         return {this->_Myoff, this->_Getcont()};

  000a9	8b 45 2c	 mov	 eax, DWORD PTR __Dest$[ebp+8]
  000ac	89 45 c4	 mov	 DWORD PTR $T7[ebp], eax
  000af	8b 45 b0	 mov	 eax, DWORD PTR $T3[ebp]
  000b2	89 45 dc	 mov	 DWORD PTR $T13[ebp], eax
; File C:\Program Files (x86)\Microsoft Visual Studio\2019\Community\VC\Tools\MSVC\14.28.29333\include\xmemory

; 1185 :         return _Myproxy ? _Myproxy->_Mycont : nullptr;

  000b5	83 7d 24 00	 cmp	 DWORD PTR __Dest$[ebp], 0
  000b9	74 0a		 je	 SHORT $LN60@move
  000bb	8b 45 24	 mov	 eax, DWORD PTR __Dest$[ebp]
  000be	8b 00		 mov	 eax, DWORD PTR [eax]
  000c0	89 45 e0	 mov	 DWORD PTR tv221[ebp], eax
  000c3	eb 04		 jmp	 SHORT $LN61@move
$LN60@move:
  000c5	83 65 e0 00	 and	 DWORD PTR tv221[ebp], 0
$LN61@move:
  000c9	8b 45 e0	 mov	 eax, DWORD PTR tv221[ebp]
  000cc	89 45 dc	 mov	 DWORD PTR $T13[ebp], eax
; File C:\Program Files (x86)\Microsoft Visual Studio\2019\Community\VC\Tools\MSVC\14.28.29333\include\deque

; 52   :         : _Mycont(static_cast<const _Mydeque*>(_Pdeque)), _Myoff(_Off) {}

  000cf	8b 45 dc	 mov	 eax, DWORD PTR $T13[ebp]
  000d2	89 45 98	 mov	 DWORD PTR __UDest$[ebp], eax
  000d5	8b 45 c4	 mov	 eax, DWORD PTR $T7[ebp]
  000d8	89 45 9c	 mov	 DWORD PTR __UDest$[ebp+4], eax
; File C:\Program Files (x86)\Microsoft Visual Studio\2019\Community\VC\Tools\MSVC\14.28.29333\include\xutility

; 4670 :     _Seek_wrapped(_Dest, _Move_unchecked(_UFirst, _ULast, _UDest));

  000db	ff 75 9c	 push	 DWORD PTR __UDest$[ebp+4]
  000de	ff 75 98	 push	 DWORD PTR __UDest$[ebp]
  000e1	ff 75 ac	 push	 DWORD PTR __ULast$[ebp+4]
  000e4	ff 75 a8	 push	 DWORD PTR __ULast$[ebp]
  000e7	ff 75 a4	 push	 DWORD PTR __UFirst$[ebp+4]
  000ea	ff 75 a0	 push	 DWORD PTR __UFirst$[ebp]
  000ed	8d 45 90	 lea	 eax, DWORD PTR $T2[ebp]
  000f0	50		 push	 eax
  000f1	e8 00 00 00 00	 call	 ??$_Move_unchecked@V?$_Deque_unchecked_iterator@V?$_Deque_val@U?$_Deque_simple_types@U?$pair@MUD3DXVECTOR3@@@std@@@std@@@std@@@std@@V12@@std@@YA?AV?$_Deque_unchecked_iterator@V?$_Deque_val@U?$_Deque_simple_types@U?$pair@MUD3DXVECTOR3@@@std@@@std@@@std@@@0@V10@00@Z ; std::_Move_unchecked<std::_Deque_unchecked_iterator<std::_Deque_val<std::_Deque_simple_types<std::pair<float,D3DXVECTOR3> > > >,std::_Deque_unchecked_iterator<std::_Deque_val<std::_Deque_simple_types<std::pair<float,D3DXVECTOR3> > > > >
  000f6	83 c4 1c	 add	 esp, 28			; 0000001cH
  000f9	89 45 c0	 mov	 DWORD PTR __UIt$[ebp], eax
; File C:\Program Files (x86)\Microsoft Visual Studio\2019\Community\VC\Tools\MSVC\14.28.29333\include\deque

; 415  :         _Myoff = _UIt._Myoff;

  000fc	8b 45 c0	 mov	 eax, DWORD PTR __UIt$[ebp]
  000ff	8b 40 04	 mov	 eax, DWORD PTR [eax+4]
  00102	89 45 2c	 mov	 DWORD PTR __Dest$[ebp+8], eax
  00105	8d 45 24	 lea	 eax, DWORD PTR __Dest$[ebp]
  00108	50		 push	 eax
  00109	8b 4d 08	 mov	 ecx, DWORD PTR ___$ReturnUdt$[ebp]
  0010c	e8 00 00 00 00	 call	 ??0_Iterator_base12@std@@QAE@ABU01@@Z ; std::_Iterator_base12::_Iterator_base12
  00111	8b 45 08	 mov	 eax, DWORD PTR ___$ReturnUdt$[ebp]
  00114	8b 4d 2c	 mov	 ecx, DWORD PTR __Dest$[ebp+8]
  00117	89 48 08	 mov	 DWORD PTR [eax+8], ecx
; File C:\Program Files (x86)\Microsoft Visual Studio\2019\Community\VC\Tools\MSVC\14.28.29333\include\xutility

; 4671 :     return _Dest;

  0011a	8b 45 d8	 mov	 eax, DWORD PTR $T12[ebp]
  0011d	83 c8 01	 or	 eax, 1
  00120	89 45 d8	 mov	 DWORD PTR $T12[ebp], eax
  00123	c6 45 fc 01	 mov	 BYTE PTR __$EHRec$[ebp+8], 1
  00127	c6 45 fc 00	 mov	 BYTE PTR __$EHRec$[ebp+8], 0
  0012b	83 4d fc ff	 or	 DWORD PTR __$EHRec$[ebp+8], -1
  0012f	8b 45 08	 mov	 eax, DWORD PTR ___$ReturnUdt$[ebp]

; 4672 : }

  00132	8b 4d f4	 mov	 ecx, DWORD PTR __$EHRec$[ebp]
  00135	64 89 0d 00 00
	00 00		 mov	 DWORD PTR fs:0, ecx
  0013c	59		 pop	 ecx
  0013d	c9		 leave
  0013e	c3		 ret	 0
_TEXT	ENDS
;	COMDAT text$x
text$x	SEGMENT
__unwindfunclet$??$move@V?$_Deque_iterator@V?$_Deque_val@U?$_Deque_simple_types@U?$pair@MUD3DXVECTOR3@@@std@@@std@@@std@@@std@@V12@@std@@YA?AV?$_Deque_iterator@V?$_Deque_val@U?$_Deque_simple_types@U?$pair@MUD3DXVECTOR3@@@std@@@std@@@std@@@0@V10@00@Z$0:
  00000	8d 4d 24	 lea	 ecx, DWORD PTR __Dest$[ebp]
  00003	e9 00 00 00 00	 jmp	 ??1?$_Deque_iterator@V?$_Deque_val@U?$_Deque_simple_types@U?$pair@MUD3DXVECTOR3@@@std@@@std@@@std@@@std@@QAE@XZ
__unwindfunclet$??$move@V?$_Deque_iterator@V?$_Deque_val@U?$_Deque_simple_types@U?$pair@MUD3DXVECTOR3@@@std@@@std@@@std@@@std@@V12@@std@@YA?AV?$_Deque_iterator@V?$_Deque_val@U?$_Deque_simple_types@U?$pair@MUD3DXVECTOR3@@@std@@@std@@@std@@@0@V10@00@Z$1:
  00008	8d 4d 18	 lea	 ecx, DWORD PTR __Last$[ebp]
  0000b	e9 00 00 00 00	 jmp	 ??1?$_Deque_iterator@V?$_Deque_val@U?$_Deque_simple_types@U?$pair@MUD3DXVECTOR3@@@std@@@std@@@std@@@std@@QAE@XZ
__unwindfunclet$??$move@V?$_Deque_iterator@V?$_Deque_val@U?$_Deque_simple_types@U?$pair@MUD3DXVECTOR3@@@std@@@std@@@std@@@std@@V12@@std@@YA?AV?$_Deque_iterator@V?$_Deque_val@U?$_Deque_simple_types@U?$pair@MUD3DXVECTOR3@@@std@@@std@@@std@@@0@V10@00@Z$2:
  00010	8d 4d 0c	 lea	 ecx, DWORD PTR __First$[ebp]
  00013	e9 00 00 00 00	 jmp	 ??1?$_Deque_iterator@V?$_Deque_val@U?$_Deque_simple_types@U?$pair@MUD3DXVECTOR3@@@std@@@std@@@std@@@std@@QAE@XZ
  00018	cc		 int	 3
  00019	cc		 int	 3
  0001a	cc		 int	 3
  0001b	cc		 int	 3
  0001c	cc		 int	 3
__ehhandler$??$move@V?$_Deque_iterator@V?$_Deque_val@U?$_Deque_simple_types@U?$pair@MUD3DXVECTOR3@@@std@@@std@@@std@@@std@@V12@@std@@YA?AV?$_Deque_iterator@V?$_Deque_val@U?$_Deque_simple_types@U?$pair@MUD3DXVECTOR3@@@std@@@std@@@std@@@0@V10@00@Z:
  0001d	90		 npad	 1
  0001e	90		 npad	 1
  0001f	8b 54 24 08	 mov	 edx, DWORD PTR [esp+8]
  00023	8d 42 0c	 lea	 eax, DWORD PTR [edx+12]
  00026	8b 4a 98	 mov	 ecx, DWORD PTR [edx-104]
  00029	33 c8		 xor	 ecx, eax
  0002b	e8 00 00 00 00	 call	 @__security_check_cookie@4
  00030	b8 00 00 00 00	 mov	 eax, OFFSET __ehfuncinfo$??$move@V?$_Deque_iterator@V?$_Deque_val@U?$_Deque_simple_types@U?$pair@MUD3DXVECTOR3@@@std@@@std@@@std@@@std@@V12@@std@@YA?AV?$_Deque_iterator@V?$_Deque_val@U?$_Deque_simple_types@U?$pair@MUD3DXVECTOR3@@@std@@@std@@@std@@@0@V10@00@Z
  00035	e9 00 00 00 00	 jmp	 ___CxxFrameHandler3
text$x	ENDS
??$move@V?$_Deque_iterator@V?$_Deque_val@U?$_Deque_simple_types@U?$pair@MUD3DXVECTOR3@@@std@@@std@@@std@@@std@@V12@@std@@YA?AV?$_Deque_iterator@V?$_Deque_val@U?$_Deque_simple_types@U?$pair@MUD3DXVECTOR3@@@std@@@std@@@std@@@0@V10@00@Z ENDP ; std::move<std::_Deque_iterator<std::_Deque_val<std::_Deque_simple_types<std::pair<float,D3DXVECTOR3> > > >,std::_Deque_iterator<std::_Deque_val<std::_Deque_simple_types<std::pair<float,D3DXVECTOR3> > > > >
; Function compile flags: /Odspy
; File C:\Program Files (x86)\Microsoft Visual Studio\2019\Community\VC\Tools\MSVC\14.28.29333\include\xutility
; File C:\Program Files (x86)\Microsoft Visual Studio\2019\Community\VC\Tools\MSVC\14.28.29333\include\deque
; File C:\Program Files (x86)\Microsoft Visual Studio\2019\Community\VC\Tools\MSVC\14.28.29333\include\xmemory
; File C:\Program Files (x86)\Microsoft Visual Studio\2019\Community\VC\Tools\MSVC\14.28.29333\include\deque
; File C:\Program Files (x86)\Microsoft Visual Studio\2019\Community\VC\Tools\MSVC\14.28.29333\include\xmemory
; File C:\Program Files (x86)\Microsoft Visual Studio\2019\Community\VC\Tools\MSVC\14.28.29333\include\deque
; File C:\Program Files (x86)\Microsoft Visual Studio\2019\Community\VC\Tools\MSVC\14.28.29333\include\xutility
; File C:\Program Files (x86)\Microsoft Visual Studio\2019\Community\VC\Tools\MSVC\14.28.29333\include\deque
; File C:\Program Files (x86)\Microsoft Visual Studio\2019\Community\VC\Tools\MSVC\14.28.29333\include\xmemory
; File C:\Program Files (x86)\Microsoft Visual Studio\2019\Community\VC\Tools\MSVC\14.28.29333\include\deque
; File C:\Program Files (x86)\Microsoft Visual Studio\2019\Community\VC\Tools\MSVC\14.28.29333\include\xutility
; File C:\Program Files (x86)\Microsoft Visual Studio\2019\Community\VC\Tools\MSVC\14.28.29333\include\deque
; File C:\Program Files (x86)\Microsoft Visual Studio\2019\Community\VC\Tools\MSVC\14.28.29333\include\xutility
;	COMDAT ??$move_backward@V?$_Deque_iterator@V?$_Deque_val@U?$_Deque_simple_types@U?$pair@MUD3DXVECTOR3@@@std@@@std@@@std@@@std@@V12@@std@@YA?AV?$_Deque_iterator@V?$_Deque_val@U?$_Deque_simple_types@U?$pair@MUD3DXVECTOR3@@@std@@@std@@@std@@@0@V10@00@Z
_TEXT	SEGMENT
$T2 = -112						; size = 8
__UDest$ = -104						; size = 8
__UFirst$ = -96						; size = 8
__ULast$ = -88						; size = 8
$T3 = -80						; size = 4
__COff$4 = -76						; size = 4
$T5 = -72						; size = 4
$T6 = -68						; size = 4
__UIt$ = -64						; size = 4
$T7 = -60						; size = 4
$T8 = -56						; size = 4
$T9 = -52						; size = 4
$T10 = -48						; size = 4
$T11 = -44						; size = 4
$T12 = -40						; size = 4
$T13 = -36						; size = 4
tv222 = -32						; size = 4
$T14 = -28						; size = 4
tv181 = -24						; size = 4
$T15 = -20						; size = 4
tv155 = -16						; size = 4
__$EHRec$ = -12						; size = 12
___$ReturnUdt$ = 8					; size = 4
__First$ = 12						; size = 12
__Last$ = 24						; size = 12
__Dest$ = 36						; size = 12
??$move_backward@V?$_Deque_iterator@V?$_Deque_val@U?$_Deque_simple_types@U?$pair@MUD3DXVECTOR3@@@std@@@std@@@std@@@std@@V12@@std@@YA?AV?$_Deque_iterator@V?$_Deque_val@U?$_Deque_simple_types@U?$pair@MUD3DXVECTOR3@@@std@@@std@@@std@@@0@V10@00@Z PROC ; std::move_backward<std::_Deque_iterator<std::_Deque_val<std::_Deque_simple_types<std::pair<float,D3DXVECTOR3> > > >,std::_Deque_iterator<std::_Deque_val<std::_Deque_simple_types<std::pair<float,D3DXVECTOR3> > > > >, COMDAT

; 4733 : _CONSTEXPR20 _BidIt2 move_backward(_BidIt1 _First, _BidIt1 _Last, _BidIt2 _Dest) {

  00000	55		 push	 ebp
  00001	8b ec		 mov	 ebp, esp
  00003	6a ff		 push	 -1
  00005	68 00 00 00 00	 push	 __ehhandler$??$move_backward@V?$_Deque_iterator@V?$_Deque_val@U?$_Deque_simple_types@U?$pair@MUD3DXVECTOR3@@@std@@@std@@@std@@@std@@V12@@std@@YA?AV?$_Deque_iterator@V?$_Deque_val@U?$_Deque_simple_types@U?$pair@MUD3DXVECTOR3@@@std@@@std@@@std@@@0@V10@00@Z
  0000a	64 a1 00 00 00
	00		 mov	 eax, DWORD PTR fs:0
  00010	50		 push	 eax
  00011	83 ec 64	 sub	 esp, 100		; 00000064H
  00014	a1 00 00 00 00	 mov	 eax, DWORD PTR ___security_cookie
  00019	33 c5		 xor	 eax, ebp
  0001b	50		 push	 eax
  0001c	8d 45 f4	 lea	 eax, DWORD PTR __$EHRec$[ebp]
  0001f	64 a3 00 00 00
	00		 mov	 DWORD PTR fs:0, eax
  00025	83 65 d8 00	 and	 DWORD PTR $T12[ebp], 0
  00029	c7 45 fc 02 00
	00 00		 mov	 DWORD PTR __$EHRec$[ebp+8], 2
; File C:\Program Files (x86)\Microsoft Visual Studio\2019\Community\VC\Tools\MSVC\14.28.29333\include\deque

; 504  :         return {this->_Myoff, this->_Getcont()};

  00030	8b 45 14	 mov	 eax, DWORD PTR __First$[ebp+8]
  00033	89 45 d4	 mov	 DWORD PTR $T11[ebp], eax
  00036	8b 45 bc	 mov	 eax, DWORD PTR $T6[ebp]
  00039	89 45 ec	 mov	 DWORD PTR $T15[ebp], eax
; File C:\Program Files (x86)\Microsoft Visual Studio\2019\Community\VC\Tools\MSVC\14.28.29333\include\xmemory

; 1185 :         return _Myproxy ? _Myproxy->_Mycont : nullptr;

  0003c	83 7d 0c 00	 cmp	 DWORD PTR __First$[ebp], 0
  00040	74 0a		 je	 SHORT $LN17@move_backw
  00042	8b 45 0c	 mov	 eax, DWORD PTR __First$[ebp]
  00045	8b 00		 mov	 eax, DWORD PTR [eax]
  00047	89 45 f0	 mov	 DWORD PTR tv155[ebp], eax
  0004a	eb 04		 jmp	 SHORT $LN18@move_backw
$LN17@move_backw:
  0004c	83 65 f0 00	 and	 DWORD PTR tv155[ebp], 0
$LN18@move_backw:
  00050	8b 45 f0	 mov	 eax, DWORD PTR tv155[ebp]
  00053	89 45 ec	 mov	 DWORD PTR $T15[ebp], eax
; File C:\Program Files (x86)\Microsoft Visual Studio\2019\Community\VC\Tools\MSVC\14.28.29333\include\deque

; 52   :         : _Mycont(static_cast<const _Mydeque*>(_Pdeque)), _Myoff(_Off) {}

  00056	8b 45 ec	 mov	 eax, DWORD PTR $T15[ebp]
  00059	89 45 a0	 mov	 DWORD PTR __UFirst$[ebp], eax
  0005c	8b 45 d4	 mov	 eax, DWORD PTR $T11[ebp]
  0005f	89 45 a4	 mov	 DWORD PTR __UFirst$[ebp+4], eax

; 504  :         return {this->_Myoff, this->_Getcont()};

  00062	8b 45 20	 mov	 eax, DWORD PTR __Last$[ebp+8]
  00065	89 45 d0	 mov	 DWORD PTR $T10[ebp], eax
  00068	8b 45 b8	 mov	 eax, DWORD PTR $T5[ebp]
  0006b	89 45 e4	 mov	 DWORD PTR $T14[ebp], eax
; File C:\Program Files (x86)\Microsoft Visual Studio\2019\Community\VC\Tools\MSVC\14.28.29333\include\xmemory

; 1185 :         return _Myproxy ? _Myproxy->_Mycont : nullptr;

  0006e	83 7d 18 00	 cmp	 DWORD PTR __Last$[ebp], 0
  00072	74 0a		 je	 SHORT $LN33@move_backw
  00074	8b 45 18	 mov	 eax, DWORD PTR __Last$[ebp]
  00077	8b 00		 mov	 eax, DWORD PTR [eax]
  00079	89 45 e8	 mov	 DWORD PTR tv181[ebp], eax
  0007c	eb 04		 jmp	 SHORT $LN34@move_backw
$LN33@move_backw:
  0007e	83 65 e8 00	 and	 DWORD PTR tv181[ebp], 0
$LN34@move_backw:
  00082	8b 45 e8	 mov	 eax, DWORD PTR tv181[ebp]
  00085	89 45 e4	 mov	 DWORD PTR $T14[ebp], eax
; File C:\Program Files (x86)\Microsoft Visual Studio\2019\Community\VC\Tools\MSVC\14.28.29333\include\deque

; 52   :         : _Mycont(static_cast<const _Mydeque*>(_Pdeque)), _Myoff(_Off) {}

  00088	8b 45 e4	 mov	 eax, DWORD PTR $T14[ebp]
  0008b	89 45 a8	 mov	 DWORD PTR __ULast$[ebp], eax
  0008e	8b 45 d0	 mov	 eax, DWORD PTR $T10[ebp]
  00091	89 45 ac	 mov	 DWORD PTR __ULast$[ebp+4], eax

; 107  :         return static_cast<difference_type>(_Myoff - _Right._Myoff);

  00094	8b 45 ac	 mov	 eax, DWORD PTR __ULast$[ebp+4]
  00097	2b 45 a4	 sub	 eax, DWORD PTR __UFirst$[ebp+4]
  0009a	89 45 cc	 mov	 DWORD PTR $T9[ebp], eax

; 221  :         return _Mybase::operator-(_Right);

  0009d	8b 45 cc	 mov	 eax, DWORD PTR $T9[ebp]
  000a0	89 45 c8	 mov	 DWORD PTR $T8[ebp], eax
; File C:\Program Files (x86)\Microsoft Visual Studio\2019\Community\VC\Tools\MSVC\14.28.29333\include\xutility

; 4738 :     const auto _UDest  = _Get_unwrapped_n(_Dest, -_Idl_distance<_BidIt1>(_UFirst, _ULast));

  000a3	8b 45 c8	 mov	 eax, DWORD PTR $T8[ebp]
  000a6	f7 d8		 neg	 eax

; 1413 :         const auto _COff = static_cast<_CDiff>(_Off);

  000a8	89 45 b4	 mov	 DWORD PTR __COff$4[ebp], eax
; File C:\Program Files (x86)\Microsoft Visual Studio\2019\Community\VC\Tools\MSVC\14.28.29333\include\deque

; 504  :         return {this->_Myoff, this->_Getcont()};

  000ab	8b 45 2c	 mov	 eax, DWORD PTR __Dest$[ebp+8]
  000ae	89 45 c4	 mov	 DWORD PTR $T7[ebp], eax
  000b1	8b 45 b0	 mov	 eax, DWORD PTR $T3[ebp]
  000b4	89 45 dc	 mov	 DWORD PTR $T13[ebp], eax
; File C:\Program Files (x86)\Microsoft Visual Studio\2019\Community\VC\Tools\MSVC\14.28.29333\include\xmemory

; 1185 :         return _Myproxy ? _Myproxy->_Mycont : nullptr;

  000b7	83 7d 24 00	 cmp	 DWORD PTR __Dest$[ebp], 0
  000bb	74 0a		 je	 SHORT $LN60@move_backw
  000bd	8b 45 24	 mov	 eax, DWORD PTR __Dest$[ebp]
  000c0	8b 00		 mov	 eax, DWORD PTR [eax]
  000c2	89 45 e0	 mov	 DWORD PTR tv222[ebp], eax
  000c5	eb 04		 jmp	 SHORT $LN61@move_backw
$LN60@move_backw:
  000c7	83 65 e0 00	 and	 DWORD PTR tv222[ebp], 0
$LN61@move_backw:
  000cb	8b 45 e0	 mov	 eax, DWORD PTR tv222[ebp]
  000ce	89 45 dc	 mov	 DWORD PTR $T13[ebp], eax
; File C:\Program Files (x86)\Microsoft Visual Studio\2019\Community\VC\Tools\MSVC\14.28.29333\include\deque

; 52   :         : _Mycont(static_cast<const _Mydeque*>(_Pdeque)), _Myoff(_Off) {}

  000d1	8b 45 dc	 mov	 eax, DWORD PTR $T13[ebp]
  000d4	89 45 98	 mov	 DWORD PTR __UDest$[ebp], eax
  000d7	8b 45 c4	 mov	 eax, DWORD PTR $T7[ebp]
  000da	89 45 9c	 mov	 DWORD PTR __UDest$[ebp+4], eax
; File C:\Program Files (x86)\Microsoft Visual Studio\2019\Community\VC\Tools\MSVC\14.28.29333\include\xutility

; 4739 :     _Seek_wrapped(_Dest, _Move_backward_unchecked(_UFirst, _ULast, _UDest));

  000dd	ff 75 9c	 push	 DWORD PTR __UDest$[ebp+4]
  000e0	ff 75 98	 push	 DWORD PTR __UDest$[ebp]
  000e3	ff 75 ac	 push	 DWORD PTR __ULast$[ebp+4]
  000e6	ff 75 a8	 push	 DWORD PTR __ULast$[ebp]
  000e9	ff 75 a4	 push	 DWORD PTR __UFirst$[ebp+4]
  000ec	ff 75 a0	 push	 DWORD PTR __UFirst$[ebp]
  000ef	8d 45 90	 lea	 eax, DWORD PTR $T2[ebp]
  000f2	50		 push	 eax
  000f3	e8 00 00 00 00	 call	 ??$_Move_backward_unchecked@V?$_Deque_unchecked_iterator@V?$_Deque_val@U?$_Deque_simple_types@U?$pair@MUD3DXVECTOR3@@@std@@@std@@@std@@@std@@V12@@std@@YA?AV?$_Deque_unchecked_iterator@V?$_Deque_val@U?$_Deque_simple_types@U?$pair@MUD3DXVECTOR3@@@std@@@std@@@std@@@0@V10@00@Z ; std::_Move_backward_unchecked<std::_Deque_unchecked_iterator<std::_Deque_val<std::_Deque_simple_types<std::pair<float,D3DXVECTOR3> > > >,std::_Deque_unchecked_iterator<std::_Deque_val<std::_Deque_simple_types<std::pair<float,D3DXVECTOR3> > > > >
  000f8	83 c4 1c	 add	 esp, 28			; 0000001cH
  000fb	89 45 c0	 mov	 DWORD PTR __UIt$[ebp], eax
; File C:\Program Files (x86)\Microsoft Visual Studio\2019\Community\VC\Tools\MSVC\14.28.29333\include\deque

; 415  :         _Myoff = _UIt._Myoff;

  000fe	8b 45 c0	 mov	 eax, DWORD PTR __UIt$[ebp]
  00101	8b 40 04	 mov	 eax, DWORD PTR [eax+4]
  00104	89 45 2c	 mov	 DWORD PTR __Dest$[ebp+8], eax
  00107	8d 45 24	 lea	 eax, DWORD PTR __Dest$[ebp]
  0010a	50		 push	 eax
  0010b	8b 4d 08	 mov	 ecx, DWORD PTR ___$ReturnUdt$[ebp]
  0010e	e8 00 00 00 00	 call	 ??0_Iterator_base12@std@@QAE@ABU01@@Z ; std::_Iterator_base12::_Iterator_base12
  00113	8b 45 08	 mov	 eax, DWORD PTR ___$ReturnUdt$[ebp]
  00116	8b 4d 2c	 mov	 ecx, DWORD PTR __Dest$[ebp+8]
  00119	89 48 08	 mov	 DWORD PTR [eax+8], ecx
; File C:\Program Files (x86)\Microsoft Visual Studio\2019\Community\VC\Tools\MSVC\14.28.29333\include\xutility

; 4740 :     return _Dest;

  0011c	8b 45 d8	 mov	 eax, DWORD PTR $T12[ebp]
  0011f	83 c8 01	 or	 eax, 1
  00122	89 45 d8	 mov	 DWORD PTR $T12[ebp], eax
  00125	c6 45 fc 01	 mov	 BYTE PTR __$EHRec$[ebp+8], 1
  00129	c6 45 fc 00	 mov	 BYTE PTR __$EHRec$[ebp+8], 0
  0012d	83 4d fc ff	 or	 DWORD PTR __$EHRec$[ebp+8], -1
  00131	8b 45 08	 mov	 eax, DWORD PTR ___$ReturnUdt$[ebp]

; 4741 : }

  00134	8b 4d f4	 mov	 ecx, DWORD PTR __$EHRec$[ebp]
  00137	64 89 0d 00 00
	00 00		 mov	 DWORD PTR fs:0, ecx
  0013e	59		 pop	 ecx
  0013f	c9		 leave
  00140	c3		 ret	 0
_TEXT	ENDS
;	COMDAT text$x
text$x	SEGMENT
__unwindfunclet$??$move_backward@V?$_Deque_iterator@V?$_Deque_val@U?$_Deque_simple_types@U?$pair@MUD3DXVECTOR3@@@std@@@std@@@std@@@std@@V12@@std@@YA?AV?$_Deque_iterator@V?$_Deque_val@U?$_Deque_simple_types@U?$pair@MUD3DXVECTOR3@@@std@@@std@@@std@@@0@V10@00@Z$0:
  00000	8d 4d 24	 lea	 ecx, DWORD PTR __Dest$[ebp]
  00003	e9 00 00 00 00	 jmp	 ??1?$_Deque_iterator@V?$_Deque_val@U?$_Deque_simple_types@U?$pair@MUD3DXVECTOR3@@@std@@@std@@@std@@@std@@QAE@XZ
__unwindfunclet$??$move_backward@V?$_Deque_iterator@V?$_Deque_val@U?$_Deque_simple_types@U?$pair@MUD3DXVECTOR3@@@std@@@std@@@std@@@std@@V12@@std@@YA?AV?$_Deque_iterator@V?$_Deque_val@U?$_Deque_simple_types@U?$pair@MUD3DXVECTOR3@@@std@@@std@@@std@@@0@V10@00@Z$1:
  00008	8d 4d 18	 lea	 ecx, DWORD PTR __Last$[ebp]
  0000b	e9 00 00 00 00	 jmp	 ??1?$_Deque_iterator@V?$_Deque_val@U?$_Deque_simple_types@U?$pair@MUD3DXVECTOR3@@@std@@@std@@@std@@@std@@QAE@XZ
__unwindfunclet$??$move_backward@V?$_Deque_iterator@V?$_Deque_val@U?$_Deque_simple_types@U?$pair@MUD3DXVECTOR3@@@std@@@std@@@std@@@std@@V12@@std@@YA?AV?$_Deque_iterator@V?$_Deque_val@U?$_Deque_simple_types@U?$pair@MUD3DXVECTOR3@@@std@@@std@@@std@@@0@V10@00@Z$2:
  00010	8d 4d 0c	 lea	 ecx, DWORD PTR __First$[ebp]
  00013	e9 00 00 00 00	 jmp	 ??1?$_Deque_iterator@V?$_Deque_val@U?$_Deque_simple_types@U?$pair@MUD3DXVECTOR3@@@std@@@std@@@std@@@std@@QAE@XZ
  00018	cc		 int	 3
  00019	cc		 int	 3
  0001a	cc		 int	 3
  0001b	cc		 int	 3
  0001c	cc		 int	 3
__ehhandler$??$move_backward@V?$_Deque_iterator@V?$_Deque_val@U?$_Deque_simple_types@U?$pair@MUD3DXVECTOR3@@@std@@@std@@@std@@@std@@V12@@std@@YA?AV?$_Deque_iterator@V?$_Deque_val@U?$_Deque_simple_types@U?$pair@MUD3DXVECTOR3@@@std@@@std@@@std@@@0@V10@00@Z:
  0001d	90		 npad	 1
  0001e	90		 npad	 1
  0001f	8b 54 24 08	 mov	 edx, DWORD PTR [esp+8]
  00023	8d 42 0c	 lea	 eax, DWORD PTR [edx+12]
  00026	8b 4a 98	 mov	 ecx, DWORD PTR [edx-104]
  00029	33 c8		 xor	 ecx, eax
  0002b	e8 00 00 00 00	 call	 @__security_check_cookie@4
  00030	b8 00 00 00 00	 mov	 eax, OFFSET __ehfuncinfo$??$move_backward@V?$_Deque_iterator@V?$_Deque_val@U?$_Deque_simple_types@U?$pair@MUD3DXVECTOR3@@@std@@@std@@@std@@@std@@V12@@std@@YA?AV?$_Deque_iterator@V?$_Deque_val@U?$_Deque_simple_types@U?$pair@MUD3DXVECTOR3@@@std@@@std@@@std@@@0@V10@00@Z
  00035	e9 00 00 00 00	 jmp	 ___CxxFrameHandler3
text$x	ENDS
??$move_backward@V?$_Deque_iterator@V?$_Deque_val@U?$_Deque_simple_types@U?$pair@MUD3DXVECTOR3@@@std@@@std@@@std@@@std@@V12@@std@@YA?AV?$_Deque_iterator@V?$_Deque_val@U?$_Deque_simple_types@U?$pair@MUD3DXVECTOR3@@@std@@@std@@@std@@@0@V10@00@Z ENDP ; std::move_backward<std::_Deque_iterator<std::_Deque_val<std::_Deque_simple_types<std::pair<float,D3DXVECTOR3> > > >,std::_Deque_iterator<std::_Deque_val<std::_Deque_simple_types<std::pair<float,D3DXVECTOR3> > > > >
; Function compile flags: /Odspy
; File C:\Program Files (x86)\Microsoft Visual Studio\2019\Community\VC\Tools\MSVC\14.28.29333\include\vector
; File C:\Program Files (x86)\Microsoft Visual Studio\2019\Community\VC\Tools\MSVC\14.28.29333\include\xmemory
; File C:\Program Files (x86)\Microsoft Visual Studio\2019\Community\VC\Tools\MSVC\14.28.29333\include\vector
; File C:\Program Files (x86)\Microsoft Visual Studio\2019\Community\VC\Tools\MSVC\14.28.29333\include\xmemory
; File C:\Program Files (x86)\Microsoft Visual Studio\2019\Community\VC\Tools\MSVC\14.28.29333\include\vector
; File C:\Program Files (x86)\Microsoft Visual Studio\2019\Community\VC\Tools\MSVC\14.28.29333\include\xmemory
; File C:\Program Files (x86)\Microsoft Visual Studio\2019\Community\VC\Tools\MSVC\14.28.29333\include\limits
; File C:\Program Files (x86)\Microsoft Visual Studio\2019\Community\VC\Tools\MSVC\14.28.29333\include\vector
; File C:\Program Files (x86)\Microsoft Visual Studio\2019\Community\VC\Tools\MSVC\14.28.29333\include\utility
; File C:\Program Files (x86)\Microsoft Visual Studio\2019\Community\VC\Tools\MSVC\14.28.29333\include\vector
; File C:\Program Files (x86)\Microsoft Visual Studio\2019\Community\VC\Tools\MSVC\14.28.29333\include\xmemory
; File C:\Program Files (x86)\Microsoft Visual Studio\2019\Community\VC\Tools\MSVC\14.28.29333\include\vector
; File C:\Program Files (x86)\Microsoft Visual Studio\2019\Community\VC\Tools\MSVC\14.28.29333\include\type_traits
; File C:\Program Files (x86)\Microsoft Visual Studio\2019\Community\VC\Tools\MSVC\14.28.29333\include\vector
; File C:\Program Files (x86)\Microsoft Visual Studio\2019\Community\VC\Tools\MSVC\14.28.29333\include\xstddef
; File C:\Program Files (x86)\Microsoft Visual Studio\2019\Community\VC\Tools\MSVC\14.28.29333\include\vcruntime_new.h
; File C:\Program Files (x86)\Microsoft Visual Studio\2019\Community\VC\Tools\MSVC\14.28.29333\include\type_traits
; File C:\Program Files (x86)\Microsoft Visual Studio\2019\Community\VC\Tools\MSVC\14.28.29333\include\xmemory
; File C:\Program Files (x86)\Microsoft Visual Studio\2019\Community\VC\Tools\MSVC\14.28.29333\include\vector
; File C:\Program Files (x86)\Microsoft Visual Studio\2019\Community\VC\Tools\MSVC\14.28.29333\include\xmemory
; File C:\Program Files (x86)\Microsoft Visual Studio\2019\Community\VC\Tools\MSVC\14.28.29333\include\vector
; File C:\Program Files (x86)\Microsoft Visual Studio\2019\Community\VC\Tools\MSVC\14.28.29333\include\xmemory
; File C:\Program Files (x86)\Microsoft Visual Studio\2019\Community\VC\Tools\MSVC\14.28.29333\include\vector
; File C:\Program Files (x86)\Microsoft Visual Studio\2019\Community\VC\Tools\MSVC\14.28.29333\include\xmemory
; File C:\Program Files (x86)\Microsoft Visual Studio\2019\Community\VC\Tools\MSVC\14.28.29333\include\vector
;	COMDAT ??$_Emplace_reallocate@ABUSPDTVertex@@@?$vector@USPDTVertex@@V?$allocator@USPDTVertex@@@std@@@std@@QAEPAUSPDTVertex@@QAU2@ABU2@@Z
_TEXT	SEGMENT
__Max_possible$2 = -68					; size = 4
$T3 = -64						; size = 4
__Al$ = -60						; size = 4
__Last$ = -56						; size = 4
$T4 = -52						; size = 4
$T5 = -48						; size = 4
__First$ = -44						; size = 4
$T6 = -40						; size = 4
$T7 = -36						; size = 4
__First$ = -32						; size = 4
__Last$ = -28						; size = 4
$T8 = -24						; size = 4
$T9 = -20						; size = 4
__$EHRec$ = -16						; size = 16
$T10 = 0						; size = 4
$T11 = 4						; size = 4
$T12 = 8						; size = 4
$T13 = 12						; size = 4
$T14 = 16						; size = 4
$T15 = 20						; size = 4
$T16 = 24						; size = 4
$T17 = 28						; size = 4
$T18 = 32						; size = 4
$T19 = 36						; size = 4
$T20 = 40						; size = 4
__Newsize$ = 44						; size = 4
__Constructed_last$ = 48				; size = 4
__Oldsize$ = 52						; size = 4
tv172 = 56						; size = 4
$T21 = 60						; size = 4
$T22 = 64						; size = 4
__My_data$ = 68						; size = 4
__Constructed_first$ = 72				; size = 4
___formal$ = 76						; size = 1
__Overflow_is_possible$23 = 83				; size = 1
__Newcapacity$ = 84					; size = 4
__Mylast$ = 88						; size = 4
__Myfirst$ = 92						; size = 4
__Whereoff$ = 96					; size = 4
$T24 = 103						; size = 1
_this$ = 104						; size = 4
__Newvec$ = 108						; size = 4
__Whereptr$ = 120					; size = 4
_<_Val_0>$ = 124					; size = 4
??$_Emplace_reallocate@ABUSPDTVertex@@@?$vector@USPDTVertex@@V?$allocator@USPDTVertex@@@std@@@std@@QAEPAUSPDTVertex@@QAU2@ABU2@@Z PROC ; std::vector<SPDTVertex,std::allocator<SPDTVertex> >::_Emplace_reallocate<SPDTVertex const &>, COMDAT
; _this$ = ecx

; 725  :     pointer _Emplace_reallocate(const pointer _Whereptr, _Valty&&... _Val) {

  00000	55		 push	 ebp
  00001	8d 6c 24 90	 lea	 ebp, DWORD PTR [esp-112]
  00005	83 ec 70	 sub	 esp, 112		; 00000070H
  00008	6a ff		 push	 -1
  0000a	68 00 00 00 00	 push	 __ehhandler$??$_Emplace_reallocate@ABUSPDTVertex@@@?$vector@USPDTVertex@@V?$allocator@USPDTVertex@@@std@@@std@@QAEPAUSPDTVertex@@QAU2@ABU2@@Z
  0000f	64 a1 00 00 00
	00		 mov	 eax, DWORD PTR fs:0
  00015	50		 push	 eax
  00016	51		 push	 ecx
  00017	83 ec 34	 sub	 esp, 52			; 00000034H
  0001a	53		 push	 ebx
  0001b	56		 push	 esi
  0001c	57		 push	 edi
  0001d	a1 00 00 00 00	 mov	 eax, DWORD PTR ___security_cookie
  00022	33 c5		 xor	 eax, ebp
  00024	50		 push	 eax
  00025	8d 45 f4	 lea	 eax, DWORD PTR __$EHRec$[ebp+4]
  00028	64 a3 00 00 00
	00		 mov	 DWORD PTR fs:0, eax
  0002e	89 65 f0	 mov	 DWORD PTR __$EHRec$[ebp], esp
  00031	89 4d 68	 mov	 DWORD PTR _this$[ebp], ecx

; 1733 :         return _Mypair._Get_first();

  00034	8b 45 68	 mov	 eax, DWORD PTR _this$[ebp]
; File C:\Program Files (x86)\Microsoft Visual Studio\2019\Community\VC\Tools\MSVC\14.28.29333\include\xmemory

; 1347 :         return *this;

  00037	89 45 28	 mov	 DWORD PTR $T20[ebp], eax
; File C:\Program Files (x86)\Microsoft Visual Studio\2019\Community\VC\Tools\MSVC\14.28.29333\include\vector

; 1733 :         return _Mypair._Get_first();

  0003a	8b 45 28	 mov	 eax, DWORD PTR $T20[ebp]
  0003d	89 45 c4	 mov	 DWORD PTR __Al$[ebp], eax

; 726  :         // reallocate and insert by perfectly forwarding _Val at _Whereptr
; 727  :         _Alty& _Al        = _Getal();
; 728  :         auto& _My_data    = _Mypair._Myval2;

  00040	8b 45 68	 mov	 eax, DWORD PTR _this$[ebp]
  00043	89 45 44	 mov	 DWORD PTR __My_data$[ebp], eax

; 729  :         pointer& _Myfirst = _My_data._Myfirst;

  00046	8b 45 44	 mov	 eax, DWORD PTR __My_data$[ebp]
  00049	89 45 5c	 mov	 DWORD PTR __Myfirst$[ebp], eax

; 730  :         pointer& _Mylast  = _My_data._Mylast;

  0004c	8b 45 44	 mov	 eax, DWORD PTR __My_data$[ebp]
  0004f	83 c0 04	 add	 eax, 4
  00052	89 45 58	 mov	 DWORD PTR __Mylast$[ebp], eax

; 731  : 
; 732  :         _STL_INTERNAL_CHECK(_Mylast == _My_data._Myend); // check that we have no unused capacity
; 733  : 
; 734  :         const auto _Whereoff = static_cast<size_type>(_Whereptr - _Myfirst);

  00055	8b 45 5c	 mov	 eax, DWORD PTR __Myfirst$[ebp]
  00058	8b 4d 78	 mov	 ecx, DWORD PTR __Whereptr$[ebp]
  0005b	2b 08		 sub	 ecx, DWORD PTR [eax]
  0005d	8b c1		 mov	 eax, ecx
  0005f	99		 cdq
  00060	6a 18		 push	 24			; 00000018H
  00062	59		 pop	 ecx
  00063	f7 f9		 idiv	 ecx
  00065	89 45 60	 mov	 DWORD PTR __Whereoff$[ebp], eax

; 735  :         const auto _Oldsize  = static_cast<size_type>(_Mylast - _Myfirst);

  00068	8b 45 58	 mov	 eax, DWORD PTR __Mylast$[ebp]
  0006b	8b 4d 5c	 mov	 ecx, DWORD PTR __Myfirst$[ebp]
  0006e	8b 00		 mov	 eax, DWORD PTR [eax]
  00070	2b 01		 sub	 eax, DWORD PTR [ecx]
  00072	99		 cdq
  00073	6a 18		 push	 24			; 00000018H
  00075	59		 pop	 ecx
  00076	f7 f9		 idiv	 ecx
  00078	89 45 34	 mov	 DWORD PTR __Oldsize$[ebp], eax

; 1737 :         return _Mypair._Get_first();

  0007b	8b 45 68	 mov	 eax, DWORD PTR _this$[ebp]
; File C:\Program Files (x86)\Microsoft Visual Studio\2019\Community\VC\Tools\MSVC\14.28.29333\include\xmemory

; 1351 :         return *this;

  0007e	89 45 24	 mov	 DWORD PTR $T19[ebp], eax
; File C:\Program Files (x86)\Microsoft Visual Studio\2019\Community\VC\Tools\MSVC\14.28.29333\include\vector

; 1737 :         return _Mypair._Get_first();

  00081	8b 45 24	 mov	 eax, DWORD PTR $T19[ebp]
  00084	89 45 c0	 mov	 DWORD PTR $T3[ebp], eax
; File C:\Program Files (x86)\Microsoft Visual Studio\2019\Community\VC\Tools\MSVC\14.28.29333\include\xmemory

; 710  :         return static_cast<size_t>(-1) / sizeof(value_type);

  00087	c7 45 40 aa aa
	aa 0a		 mov	 DWORD PTR $T22[ebp], 178956970 ; 0aaaaaaaH
; File C:\Program Files (x86)\Microsoft Visual Studio\2019\Community\VC\Tools\MSVC\14.28.29333\include\limits

; 557  :         return INT_MAX;

  0008e	c7 45 20 ff ff
	ff 7f		 mov	 DWORD PTR $T18[ebp], 2147483647 ; 7fffffffH
; File C:\Program Files (x86)\Microsoft Visual Studio\2019\Community\VC\Tools\MSVC\14.28.29333\include\vector

; 1488 :         return (_STD min)(

  00095	8b 45 20	 mov	 eax, DWORD PTR $T18[ebp]
  00098	89 45 3c	 mov	 DWORD PTR $T21[ebp], eax
; File C:\Program Files (x86)\Microsoft Visual Studio\2019\Community\VC\Tools\MSVC\14.28.29333\include\utility

; 68   :     return _Right < _Left ? _Right : _Left;

  0009b	8b 45 40	 mov	 eax, DWORD PTR $T22[ebp]
  0009e	3b 45 3c	 cmp	 eax, DWORD PTR $T21[ebp]
  000a1	73 08		 jae	 SHORT $LN34@Emplace_re
  000a3	8d 45 40	 lea	 eax, DWORD PTR $T22[ebp]
  000a6	89 45 38	 mov	 DWORD PTR tv172[ebp], eax
  000a9	eb 06		 jmp	 SHORT $LN35@Emplace_re
$LN34@Emplace_re:
  000ab	8d 45 3c	 lea	 eax, DWORD PTR $T21[ebp]
  000ae	89 45 38	 mov	 DWORD PTR tv172[ebp], eax
$LN35@Emplace_re:
  000b1	8b 45 38	 mov	 eax, DWORD PTR tv172[ebp]
  000b4	89 45 1c	 mov	 DWORD PTR $T17[ebp], eax
  000b7	8b 45 1c	 mov	 eax, DWORD PTR $T17[ebp]
  000ba	89 45 18	 mov	 DWORD PTR $T16[ebp], eax
; File C:\Program Files (x86)\Microsoft Visual Studio\2019\Community\VC\Tools\MSVC\14.28.29333\include\vector

; 1488 :         return (_STD min)(

  000bd	8b 45 18	 mov	 eax, DWORD PTR $T16[ebp]
  000c0	8b 00		 mov	 eax, DWORD PTR [eax]
  000c2	89 45 14	 mov	 DWORD PTR $T15[ebp], eax

; 736  : 
; 737  :         if (_Oldsize == max_size()) {

  000c5	8b 45 34	 mov	 eax, DWORD PTR __Oldsize$[ebp]
  000c8	3b 45 14	 cmp	 eax, DWORD PTR $T15[ebp]
  000cb	75 05		 jne	 SHORT $LN2@Emplace_re

; 738  :             _Xlength();

  000cd	e8 00 00 00 00	 call	 ?_Xlength@?$vector@USPDTVertex@@V?$allocator@USPDTVertex@@@std@@@std@@CAXXZ ; std::vector<SPDTVertex,std::allocator<SPDTVertex> >::_Xlength
$LN2@Emplace_re:

; 739  :         }
; 740  : 
; 741  :         const size_type _Newsize     = _Oldsize + 1;

  000d2	8b 45 34	 mov	 eax, DWORD PTR __Oldsize$[ebp]
  000d5	40		 inc	 eax
  000d6	89 45 2c	 mov	 DWORD PTR __Newsize$[ebp], eax

; 742  :         const size_type _Newcapacity = _Calculate_growth(_Newsize);

  000d9	ff 75 2c	 push	 DWORD PTR __Newsize$[ebp]
  000dc	8b 4d 68	 mov	 ecx, DWORD PTR _this$[ebp]
  000df	e8 00 00 00 00	 call	 ?_Calculate_growth@?$vector@USPDTVertex@@V?$allocator@USPDTVertex@@@std@@@std@@ABEII@Z ; std::vector<SPDTVertex,std::allocator<SPDTVertex> >::_Calculate_growth
  000e4	89 45 54	 mov	 DWORD PTR __Newcapacity$[ebp], eax
; File C:\Program Files (x86)\Microsoft Visual Studio\2019\Community\VC\Tools\MSVC\14.28.29333\include\xmemory

; 56   :     constexpr bool _Overflow_is_possible = _Ty_size > 1;

  000e7	c6 45 53 01	 mov	 BYTE PTR __Overflow_is_possible$23[ebp], 1

; 57   : 
; 58   :     if _CONSTEXPR_IF (_Overflow_is_possible) {
; 59   :         constexpr size_t _Max_possible = static_cast<size_t>(-1) / _Ty_size;

  000eb	c7 45 bc aa aa
	aa 0a		 mov	 DWORD PTR __Max_possible$2[ebp], 178956970 ; 0aaaaaaaH

; 60   :         if (_Count > _Max_possible) {

  000f2	81 7d 54 aa aa
	aa 0a		 cmp	 DWORD PTR __Newcapacity$[ebp], 178956970 ; 0aaaaaaaH
  000f9	76 05		 jbe	 SHORT $LN67@Emplace_re

; 61   :             _Throw_bad_array_new_length(); // multiply overflow

  000fb	e8 00 00 00 00	 call	 ?_Throw_bad_array_new_length@std@@YAXXZ ; std::_Throw_bad_array_new_length
$LN67@Emplace_re:

; 62   :         }
; 63   :     }
; 64   : 
; 65   :     return _Count * _Ty_size;

  00100	6b 45 54 18	 imul	 eax, DWORD PTR __Newcapacity$[ebp], 24
  00104	89 45 10	 mov	 DWORD PTR $T14[ebp], eax

; 814  :         return static_cast<_Ty*>(_Allocate<_New_alignof<_Ty>>(_Get_size_of_n<sizeof(_Ty)>(_Count)));

  00107	ff 75 10	 push	 DWORD PTR $T14[ebp]
  0010a	e8 00 00 00 00	 call	 ??$_Allocate@$07U_Default_allocate_traits@std@@$0A@@std@@YAPAXI@Z ; std::_Allocate<8,std::_Default_allocate_traits,0>
  0010f	59		 pop	 ecx
  00110	89 45 6c	 mov	 DWORD PTR __Newvec$[ebp], eax
; File C:\Program Files (x86)\Microsoft Visual Studio\2019\Community\VC\Tools\MSVC\14.28.29333\include\vector

; 745  :         const pointer _Constructed_last = _Newvec + _Whereoff + 1;

  00113	6b 45 60 18	 imul	 eax, DWORD PTR __Whereoff$[ebp], 24
  00117	8b 4d 6c	 mov	 ecx, DWORD PTR __Newvec$[ebp]
  0011a	8d 44 01 18	 lea	 eax, DWORD PTR [ecx+eax+24]
  0011e	89 45 30	 mov	 DWORD PTR __Constructed_last$[ebp], eax

; 746  :         pointer _Constructed_first      = _Constructed_last;

  00121	8b 45 30	 mov	 eax, DWORD PTR __Constructed_last$[ebp]
  00124	89 45 48	 mov	 DWORD PTR __Constructed_first$[ebp], eax

; 747  : 
; 748  :         _TRY_BEGIN

  00127	83 65 fc 00	 and	 DWORD PTR __$EHRec$[ebp+12], 0
; File C:\Program Files (x86)\Microsoft Visual Studio\2019\Community\VC\Tools\MSVC\14.28.29333\include\type_traits

; 1443 :     return static_cast<_Ty&&>(_Arg);

  0012b	8b 45 7c	 mov	 eax, DWORD PTR _<_Val_0>$[ebp]
  0012e	89 45 08	 mov	 DWORD PTR $T12[ebp], eax
; File C:\Program Files (x86)\Microsoft Visual Studio\2019\Community\VC\Tools\MSVC\14.28.29333\include\vector

; 749  :         _Alty_traits::construct(_Al, _Unfancy(_Newvec + _Whereoff), _STD forward<_Valty>(_Val)...);

  00131	6b 45 60 18	 imul	 eax, DWORD PTR __Whereoff$[ebp], 24
  00135	03 45 6c	 add	 eax, DWORD PTR __Newvec$[ebp]
; File C:\Program Files (x86)\Microsoft Visual Studio\2019\Community\VC\Tools\MSVC\14.28.29333\include\xstddef

; 289  :     return _Ptr;

  00138	89 45 0c	 mov	 DWORD PTR $T13[ebp], eax
; File C:\Program Files (x86)\Microsoft Visual Studio\2019\Community\VC\Tools\MSVC\14.28.29333\include\vcruntime_new.h

; 169  :         return _Where;

  0013b	8b 45 0c	 mov	 eax, DWORD PTR $T13[ebp]
  0013e	89 45 00	 mov	 DWORD PTR $T10[ebp], eax
; File C:\Program Files (x86)\Microsoft Visual Studio\2019\Community\VC\Tools\MSVC\14.28.29333\include\type_traits

; 1443 :     return static_cast<_Ty&&>(_Arg);

  00141	8b 45 08	 mov	 eax, DWORD PTR $T12[ebp]
  00144	89 45 04	 mov	 DWORD PTR $T11[ebp], eax
; File C:\Program Files (x86)\Microsoft Visual Studio\2019\Community\VC\Tools\MSVC\14.28.29333\include\xmemory

; 701  :         ::new (const_cast<void*>(static_cast<const volatile void*>(_Ptr))) _Objty(_STD forward<_Types>(_Args)...);

  00147	6a 06		 push	 6
  00149	59		 pop	 ecx
  0014a	8b 75 04	 mov	 esi, DWORD PTR $T11[ebp]
  0014d	8b 7d 00	 mov	 edi, DWORD PTR $T10[ebp]
  00150	f3 a5		 rep movsd
; File C:\Program Files (x86)\Microsoft Visual Studio\2019\Community\VC\Tools\MSVC\14.28.29333\include\vector

; 750  :         _Constructed_first = _Newvec + _Whereoff;

  00152	6b 45 60 18	 imul	 eax, DWORD PTR __Whereoff$[ebp], 24
  00156	03 45 6c	 add	 eax, DWORD PTR __Newvec$[ebp]
  00159	89 45 48	 mov	 DWORD PTR __Constructed_first$[ebp], eax

; 751  : 
; 752  :         if (_Whereptr == _Mylast) { // at back, provide strong guarantee

  0015c	8b 45 58	 mov	 eax, DWORD PTR __Mylast$[ebp]
  0015f	8b 4d 78	 mov	 ecx, DWORD PTR __Whereptr$[ebp]
  00162	3b 08		 cmp	 ecx, DWORD PTR [eax]
  00164	75 3d		 jne	 SHORT $LN4@Emplace_re

; 753  :             _Umove_if_noexcept(_Myfirst, _Mylast, _Newvec);

  00166	8b 45 58	 mov	 eax, DWORD PTR __Mylast$[ebp]
  00169	8b 00		 mov	 eax, DWORD PTR [eax]
  0016b	89 45 e4	 mov	 DWORD PTR __Last$[ebp], eax
  0016e	8b 45 5c	 mov	 eax, DWORD PTR __Myfirst$[ebp]
  00171	8b 00		 mov	 eax, DWORD PTR [eax]
  00173	89 45 e0	 mov	 DWORD PTR __First$[ebp], eax

; 1607 :         _Umove_if_noexcept1(_First, _Last, _Dest,

  00176	33 c0		 xor	 eax, eax
  00178	88 45 67	 mov	 BYTE PTR $T24[ebp], al
  0017b	8a 45 67	 mov	 al, BYTE PTR $T24[ebp]
  0017e	88 45 4c	 mov	 BYTE PTR ___formal$[ebp], al

; 1733 :         return _Mypair._Get_first();

  00181	8b 45 68	 mov	 eax, DWORD PTR _this$[ebp]
; File C:\Program Files (x86)\Microsoft Visual Studio\2019\Community\VC\Tools\MSVC\14.28.29333\include\xmemory

; 1347 :         return *this;

  00184	89 45 ec	 mov	 DWORD PTR $T9[ebp], eax
; File C:\Program Files (x86)\Microsoft Visual Studio\2019\Community\VC\Tools\MSVC\14.28.29333\include\vector

; 1733 :         return _Mypair._Get_first();

  00187	8b 45 ec	 mov	 eax, DWORD PTR $T9[ebp]
  0018a	89 45 e8	 mov	 DWORD PTR $T8[ebp], eax

; 1597 :         _Uninitialized_move(_First, _Last, _Dest, _Getal());

  0018d	ff 75 e8	 push	 DWORD PTR $T8[ebp]
  00190	ff 75 6c	 push	 DWORD PTR __Newvec$[ebp]
  00193	ff 75 e4	 push	 DWORD PTR __Last$[ebp]
  00196	ff 75 e0	 push	 DWORD PTR __First$[ebp]
  00199	e8 00 00 00 00	 call	 ??$_Uninitialized_move@PAUSPDTVertex@@V?$allocator@USPDTVertex@@@std@@@std@@YAPAUSPDTVertex@@QAU1@0PAU1@AAV?$allocator@USPDTVertex@@@0@@Z ; std::_Uninitialized_move<SPDTVertex *,std::allocator<SPDTVertex> >
  0019e	83 c4 10	 add	 esp, 16			; 00000010H

; 754  :         } else { // provide basic guarantee

  001a1	eb 5f		 jmp	 SHORT $LN5@Emplace_re
$LN4@Emplace_re:

; 755  :             _Umove(_Myfirst, _Whereptr, _Newvec);

  001a3	8b 45 5c	 mov	 eax, DWORD PTR __Myfirst$[ebp]
  001a6	8b 00		 mov	 eax, DWORD PTR [eax]
  001a8	89 45 d4	 mov	 DWORD PTR __First$[ebp], eax

; 1733 :         return _Mypair._Get_first();

  001ab	8b 45 68	 mov	 eax, DWORD PTR _this$[ebp]
; File C:\Program Files (x86)\Microsoft Visual Studio\2019\Community\VC\Tools\MSVC\14.28.29333\include\xmemory

; 1347 :         return *this;

  001ae	89 45 dc	 mov	 DWORD PTR $T7[ebp], eax
; File C:\Program Files (x86)\Microsoft Visual Studio\2019\Community\VC\Tools\MSVC\14.28.29333\include\vector

; 1733 :         return _Mypair._Get_first();

  001b1	8b 45 dc	 mov	 eax, DWORD PTR $T7[ebp]
  001b4	89 45 d8	 mov	 DWORD PTR $T6[ebp], eax

; 1592 :         return _Uninitialized_move(_First, _Last, _Dest, _Getal());

  001b7	ff 75 d8	 push	 DWORD PTR $T6[ebp]
  001ba	ff 75 6c	 push	 DWORD PTR __Newvec$[ebp]
  001bd	ff 75 78	 push	 DWORD PTR __Whereptr$[ebp]
  001c0	ff 75 d4	 push	 DWORD PTR __First$[ebp]
  001c3	e8 00 00 00 00	 call	 ??$_Uninitialized_move@PAUSPDTVertex@@V?$allocator@USPDTVertex@@@std@@@std@@YAPAUSPDTVertex@@QAU1@0PAU1@AAV?$allocator@USPDTVertex@@@0@@Z ; std::_Uninitialized_move<SPDTVertex *,std::allocator<SPDTVertex> >
  001c8	83 c4 10	 add	 esp, 16			; 00000010H

; 756  :             _Constructed_first = _Newvec;

  001cb	8b 45 6c	 mov	 eax, DWORD PTR __Newvec$[ebp]
  001ce	89 45 48	 mov	 DWORD PTR __Constructed_first$[ebp], eax

; 757  :             _Umove(_Whereptr, _Mylast, _Newvec + _Whereoff + 1);

  001d1	8b 45 58	 mov	 eax, DWORD PTR __Mylast$[ebp]
  001d4	8b 00		 mov	 eax, DWORD PTR [eax]
  001d6	89 45 c8	 mov	 DWORD PTR __Last$[ebp], eax

; 1733 :         return _Mypair._Get_first();

  001d9	8b 45 68	 mov	 eax, DWORD PTR _this$[ebp]
; File C:\Program Files (x86)\Microsoft Visual Studio\2019\Community\VC\Tools\MSVC\14.28.29333\include\xmemory

; 1347 :         return *this;

  001dc	89 45 d0	 mov	 DWORD PTR $T5[ebp], eax
; File C:\Program Files (x86)\Microsoft Visual Studio\2019\Community\VC\Tools\MSVC\14.28.29333\include\vector

; 1733 :         return _Mypair._Get_first();

  001df	8b 45 d0	 mov	 eax, DWORD PTR $T5[ebp]
  001e2	89 45 cc	 mov	 DWORD PTR $T4[ebp], eax

; 1592 :         return _Uninitialized_move(_First, _Last, _Dest, _Getal());

  001e5	ff 75 cc	 push	 DWORD PTR $T4[ebp]

; 757  :             _Umove(_Whereptr, _Mylast, _Newvec + _Whereoff + 1);

  001e8	6b 45 60 18	 imul	 eax, DWORD PTR __Whereoff$[ebp], 24
  001ec	8b 4d 6c	 mov	 ecx, DWORD PTR __Newvec$[ebp]
  001ef	8d 44 01 18	 lea	 eax, DWORD PTR [ecx+eax+24]

; 1592 :         return _Uninitialized_move(_First, _Last, _Dest, _Getal());

  001f3	50		 push	 eax
  001f4	ff 75 c8	 push	 DWORD PTR __Last$[ebp]
  001f7	ff 75 78	 push	 DWORD PTR __Whereptr$[ebp]
  001fa	e8 00 00 00 00	 call	 ??$_Uninitialized_move@PAUSPDTVertex@@V?$allocator@USPDTVertex@@@std@@@std@@YAPAUSPDTVertex@@QAU1@0PAU1@AAV?$allocator@USPDTVertex@@@0@@Z ; std::_Uninitialized_move<SPDTVertex *,std::allocator<SPDTVertex> >
  001ff	83 c4 10	 add	 esp, 16			; 00000010H
$LN5@Emplace_re:

; 757  :             _Umove(_Whereptr, _Mylast, _Newvec + _Whereoff + 1);

  00202	eb 2b		 jmp	 SHORT $LN7@Emplace_re
__catch$??$_Emplace_reallocate@ABUSPDTVertex@@@?$vector@USPDTVertex@@V?$allocator@USPDTVertex@@@std@@@std@@QAEPAUSPDTVertex@@QAU2@ABU2@@Z$0:

; 758  :         }
; 759  :         _CATCH_ALL
; 760  :         _Destroy(_Constructed_first, _Constructed_last);

  00204	ff 75 30	 push	 DWORD PTR __Constructed_last$[ebp]
  00207	ff 75 48	 push	 DWORD PTR __Constructed_first$[ebp]
  0020a	8b 4d 68	 mov	 ecx, DWORD PTR _this$[ebp]
  0020d	e8 00 00 00 00	 call	 ?_Destroy@?$vector@USPDTVertex@@V?$allocator@USPDTVertex@@@std@@@std@@AAEXPAUSPDTVertex@@0@Z ; std::vector<SPDTVertex,std::allocator<SPDTVertex> >::_Destroy

; 761  :         _Al.deallocate(_Newvec, _Newcapacity);

  00212	ff 75 54	 push	 DWORD PTR __Newcapacity$[ebp]
  00215	ff 75 6c	 push	 DWORD PTR __Newvec$[ebp]
  00218	8b 4d c4	 mov	 ecx, DWORD PTR __Al$[ebp]
  0021b	e8 00 00 00 00	 call	 ?deallocate@?$allocator@USPDTVertex@@@std@@QAEXQAUSPDTVertex@@I@Z ; std::allocator<SPDTVertex>::deallocate

; 762  :         _RERAISE;

  00220	6a 00		 push	 0
  00222	6a 00		 push	 0
  00224	e8 00 00 00 00	 call	 __CxxThrowException@8

; 763  :         _CATCH_END

  00229	b8 00 00 00 00	 mov	 eax, $LN10@Emplace_re
  0022e	c3		 ret	 0
$LN7@Emplace_re:
  0022f	83 4d fc ff	 or	 DWORD PTR __$EHRec$[ebp+12], -1
  00233	eb 04		 jmp	 SHORT __tryend$??$_Emplace_reallocate@ABUSPDTVertex@@@?$vector@USPDTVertex@@V?$allocator@USPDTVertex@@@std@@@std@@QAEPAUSPDTVertex@@QAU2@ABU2@@Z$1
$LN10@Emplace_re:
; File C:\Program Files (x86)\Microsoft Visual Studio\2019\Community\VC\Tools\MSVC\14.28.29333\include\xmemory
  00235	83 4d fc ff	 or	 DWORD PTR __$EHRec$[ebp+12], -1
__tryend$??$_Emplace_reallocate@ABUSPDTVertex@@@?$vector@USPDTVertex@@V?$allocator@USPDTVertex@@@std@@@std@@QAEPAUSPDTVertex@@QAU2@ABU2@@Z$1:
; File C:\Program Files (x86)\Microsoft Visual Studio\2019\Community\VC\Tools\MSVC\14.28.29333\include\vector

; 764  : 
; 765  :         _Change_array(_Newvec, _Newsize, _Newcapacity);

  00239	ff 75 54	 push	 DWORD PTR __Newcapacity$[ebp]
  0023c	ff 75 2c	 push	 DWORD PTR __Newsize$[ebp]
  0023f	ff 75 6c	 push	 DWORD PTR __Newvec$[ebp]
  00242	8b 4d 68	 mov	 ecx, DWORD PTR _this$[ebp]
  00245	e8 00 00 00 00	 call	 ?_Change_array@?$vector@USPDTVertex@@V?$allocator@USPDTVertex@@@std@@@std@@AAEXQAUSPDTVertex@@II@Z ; std::vector<SPDTVertex,std::allocator<SPDTVertex> >::_Change_array

; 766  :         return _Newvec + _Whereoff;

  0024a	6b 45 60 18	 imul	 eax, DWORD PTR __Whereoff$[ebp], 24
  0024e	03 45 6c	 add	 eax, DWORD PTR __Newvec$[ebp]
$LN70@Emplace_re:

; 767  :     }

  00251	8b 4d f4	 mov	 ecx, DWORD PTR __$EHRec$[ebp+4]
  00254	64 89 0d 00 00
	00 00		 mov	 DWORD PTR fs:0, ecx
  0025b	59		 pop	 ecx
  0025c	5f		 pop	 edi
  0025d	5e		 pop	 esi
  0025e	5b		 pop	 ebx
  0025f	83 c5 70	 add	 ebp, 112		; 00000070H
  00262	c9		 leave
  00263	c2 08 00	 ret	 8
  00266	cc		 int	 3
  00267	cc		 int	 3
  00268	cc		 int	 3
  00269	cc		 int	 3
  0026a	cc		 int	 3
_TEXT	ENDS
;	COMDAT text$x
text$x	SEGMENT
__ehhandler$??$_Emplace_reallocate@ABUSPDTVertex@@@?$vector@USPDTVertex@@V?$allocator@USPDTVertex@@@std@@@std@@QAEPAUSPDTVertex@@QAU2@ABU2@@Z:
  00000	90		 npad	 1
  00001	90		 npad	 1
  00002	8b 54 24 08	 mov	 edx, DWORD PTR [esp+8]
  00006	8d 42 0c	 lea	 eax, DWORD PTR [edx+12]
  00009	8b 4a b8	 mov	 ecx, DWORD PTR [edx-72]
  0000c	33 c8		 xor	 ecx, eax
  0000e	e8 00 00 00 00	 call	 @__security_check_cookie@4
  00013	b8 00 00 00 00	 mov	 eax, OFFSET __ehfuncinfo$??$_Emplace_reallocate@ABUSPDTVertex@@@?$vector@USPDTVertex@@V?$allocator@USPDTVertex@@@std@@@std@@QAEPAUSPDTVertex@@QAU2@ABU2@@Z
  00018	e9 00 00 00 00	 jmp	 ___CxxFrameHandler3
text$x	ENDS
??$_Emplace_reallocate@ABUSPDTVertex@@@?$vector@USPDTVertex@@V?$allocator@USPDTVertex@@@std@@@std@@QAEPAUSPDTVertex@@QAU2@ABU2@@Z ENDP ; std::vector<SPDTVertex,std::allocator<SPDTVertex> >::_Emplace_reallocate<SPDTVertex const &>
; Function compile flags: /Odspy
; File C:\Program Files (x86)\Microsoft Visual Studio\2019\Community\VC\Tools\MSVC\14.28.29333\include\vector
; File C:\Program Files (x86)\Microsoft Visual Studio\2019\Community\VC\Tools\MSVC\14.28.29333\include\type_traits
; File C:\Program Files (x86)\Microsoft Visual Studio\2019\Community\VC\Tools\MSVC\14.28.29333\include\vector
; File C:\Program Files (x86)\Microsoft Visual Studio\2019\Community\VC\Tools\MSVC\14.28.29333\include\type_traits
; File C:\Program Files (x86)\Microsoft Visual Studio\2019\Community\VC\Tools\MSVC\14.28.29333\include\vector
; File C:\Program Files (x86)\Microsoft Visual Studio\2019\Community\VC\Tools\MSVC\14.28.29333\include\xstddef
; File C:\Program Files (x86)\Microsoft Visual Studio\2019\Community\VC\Tools\MSVC\14.28.29333\include\vector
; File C:\Program Files (x86)\Microsoft Visual Studio\2019\Community\VC\Tools\MSVC\14.28.29333\include\xmemory
; File C:\Program Files (x86)\Microsoft Visual Studio\2019\Community\VC\Tools\MSVC\14.28.29333\include\vector
; File C:\Program Files (x86)\Microsoft Visual Studio\2019\Community\VC\Tools\MSVC\14.28.29333\include\vcruntime_new.h
; File C:\Program Files (x86)\Microsoft Visual Studio\2019\Community\VC\Tools\MSVC\14.28.29333\include\type_traits
; File C:\Program Files (x86)\Microsoft Visual Studio\2019\Community\VC\Tools\MSVC\14.28.29333\include\xmemory
; File C:\Program Files (x86)\Microsoft Visual Studio\2019\Community\VC\Tools\MSVC\14.28.29333\include\vector
; File C:\Program Files (x86)\Microsoft Visual Studio\2019\Community\VC\Tools\MSVC\14.28.29333\include\type_traits
; File C:\Program Files (x86)\Microsoft Visual Studio\2019\Community\VC\Tools\MSVC\14.28.29333\include\vector
;	COMDAT ??$emplace_back@ABUSPDTVertex@@@?$vector@USPDTVertex@@V?$allocator@USPDTVertex@@@std@@@std@@QAEXABUSPDTVertex@@@Z
_TEXT	SEGMENT
__Result$ = -64						; size = 4
__Result$1 = -60					; size = 4
$T2 = -56						; size = 4
$T3 = -52						; size = 4
$T4 = -48						; size = 4
$T5 = -44						; size = 4
$T6 = -40						; size = 4
$T7 = -36						; size = 4
$T8 = -32						; size = 4
__Ptr$ = -28						; size = 4
$T9 = -24						; size = 4
__My_data$10 = -20					; size = 4
__Mylast$ = -16						; size = 4
__My_data$ = -12					; size = 4
_this$ = -8						; size = 4
__Mylast$11 = -4					; size = 4
_<_Val_0>$ = 8						; size = 4
??$emplace_back@ABUSPDTVertex@@@?$vector@USPDTVertex@@V?$allocator@USPDTVertex@@@std@@@std@@QAEXABUSPDTVertex@@@Z PROC ; std::vector<SPDTVertex,std::allocator<SPDTVertex> >::emplace_back<SPDTVertex const &>, COMDAT
; _this$ = ecx

; 700  :     decltype(auto) emplace_back(_Valty&&... _Val) {

  00000	55		 push	 ebp
  00001	8b ec		 mov	 ebp, esp
  00003	83 ec 40	 sub	 esp, 64			; 00000040H
  00006	56		 push	 esi
  00007	57		 push	 edi
  00008	89 4d f8	 mov	 DWORD PTR _this$[ebp], ecx

; 701  :         // insert by perfectly forwarding into element at end, provide strong guarantee
; 702  :         auto& _My_data   = _Mypair._Myval2;

  0000b	8b 45 f8	 mov	 eax, DWORD PTR _this$[ebp]
  0000e	89 45 f4	 mov	 DWORD PTR __My_data$[ebp], eax

; 703  :         pointer& _Mylast = _My_data._Mylast;

  00011	8b 45 f4	 mov	 eax, DWORD PTR __My_data$[ebp]
  00014	83 c0 04	 add	 eax, 4
  00017	89 45 f0	 mov	 DWORD PTR __Mylast$[ebp], eax

; 704  :         if (_Mylast != _My_data._Myend) {

  0001a	8b 45 f0	 mov	 eax, DWORD PTR __Mylast$[ebp]
  0001d	8b 4d f4	 mov	 ecx, DWORD PTR __My_data$[ebp]
  00020	8b 00		 mov	 eax, DWORD PTR [eax]
  00022	3b 41 08	 cmp	 eax, DWORD PTR [ecx+8]
  00025	74 63		 je	 SHORT $LN2@emplace_ba
; File C:\Program Files (x86)\Microsoft Visual Studio\2019\Community\VC\Tools\MSVC\14.28.29333\include\type_traits

; 1443 :     return static_cast<_Ty&&>(_Arg);

  00027	8b 45 08	 mov	 eax, DWORD PTR _<_Val_0>$[ebp]
  0002a	89 45 e8	 mov	 DWORD PTR $T9[ebp], eax
; File C:\Program Files (x86)\Microsoft Visual Studio\2019\Community\VC\Tools\MSVC\14.28.29333\include\vector

; 684  :         auto& _My_data   = _Mypair._Myval2;

  0002d	8b 45 f8	 mov	 eax, DWORD PTR _this$[ebp]
  00030	89 45 ec	 mov	 DWORD PTR __My_data$10[ebp], eax

; 685  :         pointer& _Mylast = _My_data._Mylast;

  00033	8b 45 ec	 mov	 eax, DWORD PTR __My_data$10[ebp]
  00036	83 c0 04	 add	 eax, 4
  00039	89 45 fc	 mov	 DWORD PTR __Mylast$11[ebp], eax
; File C:\Program Files (x86)\Microsoft Visual Studio\2019\Community\VC\Tools\MSVC\14.28.29333\include\type_traits

; 1443 :     return static_cast<_Ty&&>(_Arg);

  0003c	8b 45 e8	 mov	 eax, DWORD PTR $T9[ebp]
  0003f	89 45 d8	 mov	 DWORD PTR $T6[ebp], eax
; File C:\Program Files (x86)\Microsoft Visual Studio\2019\Community\VC\Tools\MSVC\14.28.29333\include\vector

; 687  :         _Alty_traits::construct(_Getal(), _Unfancy(_Mylast), _STD forward<_Valty>(_Val)...);

  00042	8b 45 fc	 mov	 eax, DWORD PTR __Mylast$11[ebp]
  00045	8b 00		 mov	 eax, DWORD PTR [eax]
  00047	89 45 e4	 mov	 DWORD PTR __Ptr$[ebp], eax
; File C:\Program Files (x86)\Microsoft Visual Studio\2019\Community\VC\Tools\MSVC\14.28.29333\include\xstddef

; 289  :     return _Ptr;

  0004a	8b 45 e4	 mov	 eax, DWORD PTR __Ptr$[ebp]
  0004d	89 45 dc	 mov	 DWORD PTR $T7[ebp], eax
; File C:\Program Files (x86)\Microsoft Visual Studio\2019\Community\VC\Tools\MSVC\14.28.29333\include\vector

; 1733 :         return _Mypair._Get_first();

  00050	8b 45 f8	 mov	 eax, DWORD PTR _this$[ebp]
; File C:\Program Files (x86)\Microsoft Visual Studio\2019\Community\VC\Tools\MSVC\14.28.29333\include\xmemory

; 1347 :         return *this;

  00053	89 45 e0	 mov	 DWORD PTR $T8[ebp], eax
; File C:\Program Files (x86)\Microsoft Visual Studio\2019\Community\VC\Tools\MSVC\14.28.29333\include\vector

; 1733 :         return _Mypair._Get_first();

  00056	8b 45 e0	 mov	 eax, DWORD PTR $T8[ebp]
  00059	89 45 c8	 mov	 DWORD PTR $T2[ebp], eax
; File C:\Program Files (x86)\Microsoft Visual Studio\2019\Community\VC\Tools\MSVC\14.28.29333\include\vcruntime_new.h

; 169  :         return _Where;

  0005c	8b 45 dc	 mov	 eax, DWORD PTR $T7[ebp]
  0005f	89 45 d0	 mov	 DWORD PTR $T4[ebp], eax
; File C:\Program Files (x86)\Microsoft Visual Studio\2019\Community\VC\Tools\MSVC\14.28.29333\include\type_traits

; 1443 :     return static_cast<_Ty&&>(_Arg);

  00062	8b 45 d8	 mov	 eax, DWORD PTR $T6[ebp]
  00065	89 45 d4	 mov	 DWORD PTR $T5[ebp], eax
; File C:\Program Files (x86)\Microsoft Visual Studio\2019\Community\VC\Tools\MSVC\14.28.29333\include\xmemory

; 701  :         ::new (const_cast<void*>(static_cast<const volatile void*>(_Ptr))) _Objty(_STD forward<_Types>(_Args)...);

  00068	6a 06		 push	 6
  0006a	59		 pop	 ecx
  0006b	8b 75 d4	 mov	 esi, DWORD PTR $T5[ebp]
  0006e	8b 7d d0	 mov	 edi, DWORD PTR $T4[ebp]
  00071	f3 a5		 rep movsd
; File C:\Program Files (x86)\Microsoft Visual Studio\2019\Community\VC\Tools\MSVC\14.28.29333\include\vector

; 689  :         _Ty& _Result = *_Mylast;

  00073	8b 45 fc	 mov	 eax, DWORD PTR __Mylast$11[ebp]
  00076	8b 00		 mov	 eax, DWORD PTR [eax]
  00078	89 45 c4	 mov	 DWORD PTR __Result$1[ebp], eax

; 690  :         ++_Mylast;

  0007b	8b 45 fc	 mov	 eax, DWORD PTR __Mylast$11[ebp]
  0007e	8b 00		 mov	 eax, DWORD PTR [eax]
  00080	83 c0 18	 add	 eax, 24			; 00000018H
  00083	8b 4d fc	 mov	 ecx, DWORD PTR __Mylast$11[ebp]
  00086	89 01		 mov	 DWORD PTR [ecx], eax

; 705  :             return _Emplace_back_with_unused_capacity(_STD forward<_Valty>(_Val)...);

  00088	eb 19		 jmp	 SHORT $LN1@emplace_ba
$LN2@emplace_ba:
; File C:\Program Files (x86)\Microsoft Visual Studio\2019\Community\VC\Tools\MSVC\14.28.29333\include\type_traits

; 1443 :     return static_cast<_Ty&&>(_Arg);

  0008a	8b 45 08	 mov	 eax, DWORD PTR _<_Val_0>$[ebp]
  0008d	89 45 cc	 mov	 DWORD PTR $T3[ebp], eax
; File C:\Program Files (x86)\Microsoft Visual Studio\2019\Community\VC\Tools\MSVC\14.28.29333\include\vector

; 708  :         _Ty& _Result = *_Emplace_reallocate(_Mylast, _STD forward<_Valty>(_Val)...);

  00090	ff 75 cc	 push	 DWORD PTR $T3[ebp]
  00093	8b 45 f0	 mov	 eax, DWORD PTR __Mylast$[ebp]
  00096	ff 30		 push	 DWORD PTR [eax]
  00098	8b 4d f8	 mov	 ecx, DWORD PTR _this$[ebp]
  0009b	e8 00 00 00 00	 call	 ??$_Emplace_reallocate@ABUSPDTVertex@@@?$vector@USPDTVertex@@V?$allocator@USPDTVertex@@@std@@@std@@QAEPAUSPDTVertex@@QAU2@ABU2@@Z ; std::vector<SPDTVertex,std::allocator<SPDTVertex> >::_Emplace_reallocate<SPDTVertex const &>
  000a0	89 45 c0	 mov	 DWORD PTR __Result$[ebp], eax
$LN1@emplace_ba:

; 709  : #if _HAS_CXX17
; 710  :         return _Result;
; 711  : #else // ^^^ _HAS_CXX17 ^^^ // vvv !_HAS_CXX17 vvv
; 712  :         (void) _Result;
; 713  : #endif // _HAS_CXX17
; 714  :     }

  000a3	5f		 pop	 edi
  000a4	5e		 pop	 esi
  000a5	c9		 leave
  000a6	c2 04 00	 ret	 4
??$emplace_back@ABUSPDTVertex@@@?$vector@USPDTVertex@@V?$allocator@USPDTVertex@@@std@@@std@@QAEXABUSPDTVertex@@@Z ENDP ; std::vector<SPDTVertex,std::allocator<SPDTVertex> >::emplace_back<SPDTVertex const &>
_TEXT	ENDS
; Function compile flags: /Odspy
; File C:\Program Files (x86)\Microsoft Visual Studio\2019\Community\VC\Tools\MSVC\14.28.29333\include\algorithm
; File C:\Program Files (x86)\Microsoft Visual Studio\2019\Community\VC\Tools\MSVC\14.28.29333\include\vector
; File C:\Program Files (x86)\Microsoft Visual Studio\2019\Community\VC\Tools\MSVC\14.28.29333\include\xstddef
; File C:\Program Files (x86)\Microsoft Visual Studio\2019\Community\VC\Tools\MSVC\14.28.29333\include\vector
; File C:\Program Files (x86)\Microsoft Visual Studio\2019\Community\VC\Tools\MSVC\14.28.29333\include\algorithm
; File C:\Program Files (x86)\Microsoft Visual Studio\2019\Community\VC\Tools\MSVC\14.28.29333\include\vector
; File C:\Program Files (x86)\Microsoft Visual Studio\2019\Community\VC\Tools\MSVC\14.28.29333\include\xstddef
; File C:\Program Files (x86)\Microsoft Visual Studio\2019\Community\VC\Tools\MSVC\14.28.29333\include\vector
; File C:\Program Files (x86)\Microsoft Visual Studio\2019\Community\VC\Tools\MSVC\14.28.29333\include\algorithm
;	COMDAT ??$for_each@V?$_Vector_iterator@V?$_Vector_val@U?$_Simple_types@PAVCWeaponTrace@@@std@@@std@@@std@@P6AXPAVCWeaponTrace@@@Z@std@@YAP6AXPAVCWeaponTrace@@@ZV?$_Vector_iterator@V?$_Vector_val@U?$_Simple_types@PAVCWeaponTrace@@@std@@@std@@@0@1P6AX0@Z@Z
_TEXT	SEGMENT
__ULast$ = -32						; size = 4
$T1 = -28						; size = 4
$T2 = -24						; size = 4
__Ptr$3 = -20						; size = 4
$T4 = -16						; size = 4
$T5 = -12						; size = 4
__Ptr$6 = -8						; size = 4
__UFirst$ = -4						; size = 4
__First$ = 8						; size = 4
__Last$ = 12						; size = 4
__Func$ = 16						; size = 4
??$for_each@V?$_Vector_iterator@V?$_Vector_val@U?$_Simple_types@PAVCWeaponTrace@@@std@@@std@@@std@@P6AXPAVCWeaponTrace@@@Z@std@@YAP6AXPAVCWeaponTrace@@@ZV?$_Vector_iterator@V?$_Vector_val@U?$_Simple_types@PAVCWeaponTrace@@@std@@@std@@@0@1P6AX0@Z@Z PROC ; std::for_each<std::_Vector_iterator<std::_Vector_val<std::_Simple_types<CWeaponTrace *> > >,void (__cdecl*)(CWeaponTrace *)>, COMDAT

; 303  : _CONSTEXPR20 _Fn for_each(_InIt _First, _InIt _Last, _Fn _Func) { // perform function for each element [_First, _Last)

  00000	55		 push	 ebp
  00001	8b ec		 mov	 ebp, esp
  00003	83 ec 20	 sub	 esp, 32			; 00000020H
; File C:\Program Files (x86)\Microsoft Visual Studio\2019\Community\VC\Tools\MSVC\14.28.29333\include\vector

; 310  :         return _Unfancy(this->_Ptr);

  00006	8b 45 08	 mov	 eax, DWORD PTR __First$[ebp]
  00009	89 45 f8	 mov	 DWORD PTR __Ptr$6[ebp], eax
; File C:\Program Files (x86)\Microsoft Visual Studio\2019\Community\VC\Tools\MSVC\14.28.29333\include\xstddef

; 289  :     return _Ptr;

  0000c	8b 45 f8	 mov	 eax, DWORD PTR __Ptr$6[ebp]
  0000f	89 45 f4	 mov	 DWORD PTR $T5[ebp], eax
; File C:\Program Files (x86)\Microsoft Visual Studio\2019\Community\VC\Tools\MSVC\14.28.29333\include\vector

; 310  :         return _Unfancy(this->_Ptr);

  00012	8b 45 f4	 mov	 eax, DWORD PTR $T5[ebp]
  00015	89 45 f0	 mov	 DWORD PTR $T4[ebp], eax
; File C:\Program Files (x86)\Microsoft Visual Studio\2019\Community\VC\Tools\MSVC\14.28.29333\include\algorithm

; 305  :     auto _UFirst      = _Get_unwrapped(_First);

  00018	8b 45 f0	 mov	 eax, DWORD PTR $T4[ebp]
  0001b	89 45 fc	 mov	 DWORD PTR __UFirst$[ebp], eax
; File C:\Program Files (x86)\Microsoft Visual Studio\2019\Community\VC\Tools\MSVC\14.28.29333\include\vector

; 310  :         return _Unfancy(this->_Ptr);

  0001e	8b 45 0c	 mov	 eax, DWORD PTR __Last$[ebp]
  00021	89 45 ec	 mov	 DWORD PTR __Ptr$3[ebp], eax
; File C:\Program Files (x86)\Microsoft Visual Studio\2019\Community\VC\Tools\MSVC\14.28.29333\include\xstddef

; 289  :     return _Ptr;

  00024	8b 45 ec	 mov	 eax, DWORD PTR __Ptr$3[ebp]
  00027	89 45 e8	 mov	 DWORD PTR $T2[ebp], eax
; File C:\Program Files (x86)\Microsoft Visual Studio\2019\Community\VC\Tools\MSVC\14.28.29333\include\vector

; 310  :         return _Unfancy(this->_Ptr);

  0002a	8b 45 e8	 mov	 eax, DWORD PTR $T2[ebp]
  0002d	89 45 e4	 mov	 DWORD PTR $T1[ebp], eax
; File C:\Program Files (x86)\Microsoft Visual Studio\2019\Community\VC\Tools\MSVC\14.28.29333\include\algorithm

; 306  :     const auto _ULast = _Get_unwrapped(_Last);

  00030	8b 45 e4	 mov	 eax, DWORD PTR $T1[ebp]
  00033	89 45 e0	 mov	 DWORD PTR __ULast$[ebp], eax

; 307  :     for (; _UFirst != _ULast; ++_UFirst) {

  00036	eb 09		 jmp	 SHORT $LN4@for_each
$LN2@for_each:
  00038	8b 45 fc	 mov	 eax, DWORD PTR __UFirst$[ebp]
  0003b	83 c0 04	 add	 eax, 4
  0003e	89 45 fc	 mov	 DWORD PTR __UFirst$[ebp], eax
$LN4@for_each:
  00041	8b 45 fc	 mov	 eax, DWORD PTR __UFirst$[ebp]
  00044	3b 45 e0	 cmp	 eax, DWORD PTR __ULast$[ebp]
  00047	74 0b		 je	 SHORT $LN3@for_each

; 308  :         _Func(*_UFirst);

  00049	8b 45 fc	 mov	 eax, DWORD PTR __UFirst$[ebp]
  0004c	ff 30		 push	 DWORD PTR [eax]
  0004e	ff 55 10	 call	 DWORD PTR __Func$[ebp]
  00051	59		 pop	 ecx

; 309  :     }

  00052	eb e4		 jmp	 SHORT $LN2@for_each
$LN3@for_each:

; 310  : 
; 311  :     return _Func;

  00054	8b 45 10	 mov	 eax, DWORD PTR __Func$[ebp]

; 312  : }

  00057	c9		 leave
  00058	c3		 ret	 0
??$for_each@V?$_Vector_iterator@V?$_Vector_val@U?$_Simple_types@PAVCWeaponTrace@@@std@@@std@@@std@@P6AXPAVCWeaponTrace@@@Z@std@@YAP6AXPAVCWeaponTrace@@@ZV?$_Vector_iterator@V?$_Vector_val@U?$_Simple_types@PAVCWeaponTrace@@@std@@@std@@@0@1P6AX0@Z@Z ENDP ; std::for_each<std::_Vector_iterator<std::_Vector_val<std::_Simple_types<CWeaponTrace *> > >,void (__cdecl*)(CWeaponTrace *)>
_TEXT	ENDS
; Function compile flags: /Odspy
; File C:\Program Files (x86)\Microsoft Visual Studio\2019\Community\VC\Tools\MSVC\14.28.29333\include\xmemory
; File C:\Program Files (x86)\Microsoft Visual Studio\2019\Community\VC\Tools\MSVC\14.28.29333\include\deque
; File C:\Program Files (x86)\Microsoft Visual Studio\2019\Community\VC\Tools\MSVC\14.28.29333\include\xmemory
;	COMDAT ??0?$_Deque_iterator@V?$_Deque_val@U?$_Deque_simple_types@U?$pair@MUD3DXVECTOR3@@@std@@@std@@@std@@@std@@QAE@IPBU_Container_base12@1@@Z
_TEXT	SEGMENT
__Parent_proxy$1 = -8					; size = 4
_this$ = -4						; size = 4
___param0$ = 8						; size = 4
___param1$ = 12						; size = 4
??0?$_Deque_iterator@V?$_Deque_val@U?$_Deque_simple_types@U?$pair@MUD3DXVECTOR3@@@std@@@std@@@std@@@std@@QAE@IPBU_Container_base12@1@@Z PROC ; std::_Deque_iterator<std::_Deque_val<std::_Deque_simple_types<std::pair<float,D3DXVECTOR3> > > >::_Deque_iterator<std::_Deque_val<std::_Deque_simple_types<std::pair<float,D3DXVECTOR3> > > >, COMDAT
; _this$ = ecx
  00000	55		 push	 ebp
  00001	8b ec		 mov	 ebp, esp
  00003	51		 push	 ecx
  00004	51		 push	 ecx
  00005	89 4d fc	 mov	 DWORD PTR _this$[ebp], ecx

; 1126 :     _Iterator_base12() noexcept : _Myproxy(nullptr), _Mynextiter(nullptr) {} // construct orphaned iterator

  00008	8b 45 fc	 mov	 eax, DWORD PTR _this$[ebp]
  0000b	83 20 00	 and	 DWORD PTR [eax], 0
  0000e	8b 45 fc	 mov	 eax, DWORD PTR _this$[ebp]
  00011	83 60 04 00	 and	 DWORD PTR [eax+4], 0
; File C:\Program Files (x86)\Microsoft Visual Studio\2019\Community\VC\Tools\MSVC\14.28.29333\include\deque

; 256  :     _Deque_const_iterator(_Size_type _Off, const _Container_base12* _Pdeque) noexcept : _Myoff(_Off) {

  00015	8b 45 fc	 mov	 eax, DWORD PTR _this$[ebp]
  00018	8b 4d 08	 mov	 ecx, DWORD PTR ___param0$[ebp]
  0001b	89 48 08	 mov	 DWORD PTR [eax+8], ecx
; File C:\Program Files (x86)\Microsoft Visual Studio\2019\Community\VC\Tools\MSVC\14.28.29333\include\xmemory

; 1157 :         if (_Parent) {

  0001e	83 7d 0c 00	 cmp	 DWORD PTR ___param1$[ebp], 0
  00022	74 12		 je	 SHORT $LN13@Deque_iter

; 1158 :             // have a parent, do adoption
; 1159 :             _Container_proxy* _Parent_proxy = _Parent->_Myproxy;

  00024	8b 45 0c	 mov	 eax, DWORD PTR ___param1$[ebp]
  00027	8b 00		 mov	 eax, DWORD PTR [eax]
  00029	89 45 f8	 mov	 DWORD PTR __Parent_proxy$1[ebp], eax

; 1160 : 
; 1161 : #if _ITERATOR_DEBUG_LEVEL == 2
; 1162 :             if (_Myproxy != _Parent_proxy) { // change parentage
; 1163 :                 _Lockit _Lock(_LOCK_DEBUG);
; 1164 :                 _Orphan_me();
; 1165 :                 _Mynextiter                 = _Parent_proxy->_Myfirstiter;
; 1166 :                 _Parent_proxy->_Myfirstiter = this;
; 1167 :                 _Myproxy                    = _Parent_proxy;
; 1168 :             }
; 1169 : 
; 1170 : #else // _ITERATOR_DEBUG_LEVEL == 2
; 1171 :             _Myproxy = _Parent_proxy;

  0002c	8b 45 fc	 mov	 eax, DWORD PTR _this$[ebp]
  0002f	8b 4d f8	 mov	 ecx, DWORD PTR __Parent_proxy$1[ebp]
  00032	89 08		 mov	 DWORD PTR [eax], ecx

; 1172 : #endif // _ITERATOR_DEBUG_LEVEL == 2
; 1173 :         } else {

  00034	eb 06		 jmp	 SHORT $LN1@Deque_iter
$LN13@Deque_iter:

; 1174 :             // no future parent, just disown current parent
; 1175 : #if _ITERATOR_DEBUG_LEVEL == 2
; 1176 :             _Lockit _Lock(_LOCK_DEBUG);
; 1177 :             _Orphan_me();
; 1178 : #else // _ITERATOR_DEBUG_LEVEL == 2
; 1179 :             _Myproxy = nullptr;

  00036	8b 45 fc	 mov	 eax, DWORD PTR _this$[ebp]
  00039	83 20 00	 and	 DWORD PTR [eax], 0
$LN1@Deque_iter:
  0003c	8b 45 fc	 mov	 eax, DWORD PTR _this$[ebp]
  0003f	c9		 leave
  00040	c2 08 00	 ret	 8
??0?$_Deque_iterator@V?$_Deque_val@U?$_Deque_simple_types@U?$pair@MUD3DXVECTOR3@@@std@@@std@@@std@@@std@@QAE@IPBU_Container_base12@1@@Z ENDP ; std::_Deque_iterator<std::_Deque_val<std::_Deque_simple_types<std::pair<float,D3DXVECTOR3> > > >::_Deque_iterator<std::_Deque_val<std::_Deque_simple_types<std::pair<float,D3DXVECTOR3> > > >
_TEXT	ENDS
; Function compile flags: /Odspy
;	COMDAT ??1?$_Deque_iterator@V?$_Deque_val@U?$_Deque_simple_types@U?$pair@MUD3DXVECTOR3@@@std@@@std@@@std@@@std@@QAE@XZ
_TEXT	SEGMENT
_this$ = -4						; size = 4
??1?$_Deque_iterator@V?$_Deque_val@U?$_Deque_simple_types@U?$pair@MUD3DXVECTOR3@@@std@@@std@@@std@@@std@@QAE@XZ PROC ; std::_Deque_iterator<std::_Deque_val<std::_Deque_simple_types<std::pair<float,D3DXVECTOR3> > > >::~_Deque_iterator<std::_Deque_val<std::_Deque_simple_types<std::pair<float,D3DXVECTOR3> > > >, COMDAT
; _this$ = ecx
  00000	55		 push	 ebp
  00001	8b ec		 mov	 ebp, esp
  00003	51		 push	 ecx
  00004	89 4d fc	 mov	 DWORD PTR _this$[ebp], ecx
  00007	c9		 leave
  00008	c3		 ret	 0
??1?$_Deque_iterator@V?$_Deque_val@U?$_Deque_simple_types@U?$pair@MUD3DXVECTOR3@@@std@@@std@@@std@@@std@@QAE@XZ ENDP ; std::_Deque_iterator<std::_Deque_val<std::_Deque_simple_types<std::pair<float,D3DXVECTOR3> > > >::~_Deque_iterator<std::_Deque_val<std::_Deque_simple_types<std::pair<float,D3DXVECTOR3> > > >
_TEXT	ENDS
; Function compile flags: /Odspy
; File C:\Program Files (x86)\Microsoft Visual Studio\2019\Community\VC\Tools\MSVC\14.28.29333\include\deque
;	COMDAT ??H?$_Deque_iterator@V?$_Deque_val@U?$_Deque_simple_types@U?$pair@MUD3DXVECTOR3@@@std@@@std@@@std@@@std@@QBE?AV01@H@Z
_TEXT	SEGMENT
__Tmp$ = -20						; size = 12
$T1 = -8						; size = 4
_this$ = -4						; size = 4
___$ReturnUdt$ = 8					; size = 4
__Off$ = 12						; size = 4
??H?$_Deque_iterator@V?$_Deque_val@U?$_Deque_simple_types@U?$pair@MUD3DXVECTOR3@@@std@@@std@@@std@@@std@@QBE?AV01@H@Z PROC ; std::_Deque_iterator<std::_Deque_val<std::_Deque_simple_types<std::pair<float,D3DXVECTOR3> > > >::operator+, COMDAT
; _this$ = ecx

; 480  :     _NODISCARD _Deque_iterator operator+(const difference_type _Off) const noexcept {

  00000	55		 push	 ebp
  00001	8b ec		 mov	 ebp, esp
  00003	83 ec 14	 sub	 esp, 20			; 00000014H
  00006	89 4d fc	 mov	 DWORD PTR _this$[ebp], ecx
  00009	ff 75 fc	 push	 DWORD PTR _this$[ebp]
  0000c	8d 4d ec	 lea	 ecx, DWORD PTR __Tmp$[ebp]
  0000f	e8 00 00 00 00	 call	 ??0_Iterator_base12@std@@QAE@ABU01@@Z ; std::_Iterator_base12::_Iterator_base12
  00014	8b 45 fc	 mov	 eax, DWORD PTR _this$[ebp]
  00017	8b 40 08	 mov	 eax, DWORD PTR [eax+8]
  0001a	89 45 f4	 mov	 DWORD PTR __Tmp$[ebp+8], eax

; 322  :         _Myoff += _Off;

  0001d	8b 45 f4	 mov	 eax, DWORD PTR __Tmp$[ebp+8]
  00020	03 45 0c	 add	 eax, DWORD PTR __Off$[ebp]
  00023	89 45 f4	 mov	 DWORD PTR __Tmp$[ebp+8], eax

; 477  :         return *this;

  00026	8d 45 ec	 lea	 eax, DWORD PTR __Tmp$[ebp]
  00029	89 45 f8	 mov	 DWORD PTR $T1[ebp], eax
  0002c	ff 75 f8	 push	 DWORD PTR $T1[ebp]
  0002f	8b 4d 08	 mov	 ecx, DWORD PTR ___$ReturnUdt$[ebp]
  00032	e8 00 00 00 00	 call	 ??0_Iterator_base12@std@@QAE@ABU01@@Z ; std::_Iterator_base12::_Iterator_base12
  00037	8b 45 08	 mov	 eax, DWORD PTR ___$ReturnUdt$[ebp]
  0003a	8b 4d f8	 mov	 ecx, DWORD PTR $T1[ebp]
  0003d	8b 49 08	 mov	 ecx, DWORD PTR [ecx+8]
  00040	89 48 08	 mov	 DWORD PTR [eax+8], ecx

; 481  :         _Deque_iterator _Tmp = *this;
; 482  :         return _Tmp += _Off;

  00043	8b 45 08	 mov	 eax, DWORD PTR ___$ReturnUdt$[ebp]

; 483  :     }

  00046	c9		 leave
  00047	c2 08 00	 ret	 8
??H?$_Deque_iterator@V?$_Deque_val@U?$_Deque_simple_types@U?$pair@MUD3DXVECTOR3@@@std@@@std@@@std@@@std@@QBE?AV01@H@Z ENDP ; std::_Deque_iterator<std::_Deque_val<std::_Deque_simple_types<std::pair<float,D3DXVECTOR3> > > >::operator+
_TEXT	ENDS
; Function compile flags: /Odspy
; File C:\Program Files (x86)\Microsoft Visual Studio\2019\Community\VC\Tools\MSVC\14.28.29333\include\deque
;	COMDAT ??E?$_Deque_iterator@V?$_Deque_val@U?$_Deque_simple_types@U?$pair@MUD3DXVECTOR3@@@std@@@std@@@std@@@std@@QAE?AV01@H@Z
_TEXT	SEGMENT
__Tmp$ = -16						; size = 12
_this$ = -4						; size = 4
___$ReturnUdt$ = 8					; size = 4
___formal$ = 12						; size = 4
??E?$_Deque_iterator@V?$_Deque_val@U?$_Deque_simple_types@U?$pair@MUD3DXVECTOR3@@@std@@@std@@@std@@@std@@QAE?AV01@H@Z PROC ; std::_Deque_iterator<std::_Deque_val<std::_Deque_simple_types<std::pair<float,D3DXVECTOR3> > > >::operator++, COMDAT
; _this$ = ecx

; 458  :     _Deque_iterator operator++(int) noexcept {

  00000	55		 push	 ebp
  00001	8b ec		 mov	 ebp, esp
  00003	83 ec 10	 sub	 esp, 16			; 00000010H
  00006	89 4d fc	 mov	 DWORD PTR _this$[ebp], ecx
  00009	ff 75 fc	 push	 DWORD PTR _this$[ebp]
  0000c	8d 4d f0	 lea	 ecx, DWORD PTR __Tmp$[ebp]
  0000f	e8 00 00 00 00	 call	 ??0_Iterator_base12@std@@QAE@ABU01@@Z ; std::_Iterator_base12::_Iterator_base12
  00014	8b 45 fc	 mov	 eax, DWORD PTR _this$[ebp]
  00017	8b 40 08	 mov	 eax, DWORD PTR [eax+8]
  0001a	89 45 f8	 mov	 DWORD PTR __Tmp$[ebp+8], eax

; 284  :         ++_Myoff;

  0001d	8b 45 fc	 mov	 eax, DWORD PTR _this$[ebp]
  00020	8b 40 08	 mov	 eax, DWORD PTR [eax+8]
  00023	40		 inc	 eax
  00024	8b 4d fc	 mov	 ecx, DWORD PTR _this$[ebp]
  00027	89 41 08	 mov	 DWORD PTR [ecx+8], eax
  0002a	8d 45 f0	 lea	 eax, DWORD PTR __Tmp$[ebp]
  0002d	50		 push	 eax
  0002e	8b 4d 08	 mov	 ecx, DWORD PTR ___$ReturnUdt$[ebp]
  00031	e8 00 00 00 00	 call	 ??0_Iterator_base12@std@@QAE@ABU01@@Z ; std::_Iterator_base12::_Iterator_base12
  00036	8b 45 08	 mov	 eax, DWORD PTR ___$ReturnUdt$[ebp]
  00039	8b 4d f8	 mov	 ecx, DWORD PTR __Tmp$[ebp+8]
  0003c	89 48 08	 mov	 DWORD PTR [eax+8], ecx

; 459  :         _Deque_iterator _Tmp = *this;
; 460  :         _Mybase::operator++();
; 461  :         return _Tmp;

  0003f	8b 45 08	 mov	 eax, DWORD PTR ___$ReturnUdt$[ebp]

; 462  :     }

  00042	c9		 leave
  00043	c2 08 00	 ret	 8
??E?$_Deque_iterator@V?$_Deque_val@U?$_Deque_simple_types@U?$pair@MUD3DXVECTOR3@@@std@@@std@@@std@@@std@@QAE?AV01@H@Z ENDP ; std::_Deque_iterator<std::_Deque_val<std::_Deque_simple_types<std::pair<float,D3DXVECTOR3> > > >::operator++
_TEXT	ENDS
; Function compile flags: /Odspy
; File C:\Program Files (x86)\Microsoft Visual Studio\2019\Community\VC\Tools\MSVC\14.28.29333\include\xmemory
;	COMDAT ??4?$_Deque_const_iterator@V?$_Deque_val@U?$_Deque_simple_types@U?$pair@MUD3DXVECTOR3@@@std@@@std@@@std@@@std@@QAEAAV01@$$QAV01@@Z
_TEXT	SEGMENT
__Parent_proxy$1 = -12					; size = 4
__Parent$ = -8						; size = 4
_this$ = -4						; size = 4
___that$ = 8						; size = 4
??4?$_Deque_const_iterator@V?$_Deque_val@U?$_Deque_simple_types@U?$pair@MUD3DXVECTOR3@@@std@@@std@@@std@@@std@@QAEAAV01@$$QAV01@@Z PROC ; std::_Deque_const_iterator<std::_Deque_val<std::_Deque_simple_types<std::pair<float,D3DXVECTOR3> > > >::operator=, COMDAT
; _this$ = ecx
  00000	55		 push	 ebp
  00001	8b ec		 mov	 ebp, esp
  00003	83 ec 0c	 sub	 esp, 12			; 0000000cH
  00006	89 4d fc	 mov	 DWORD PTR _this$[ebp], ecx

; 1133 :         if (_Myproxy != _Right._Myproxy) {

  00009	8b 45 fc	 mov	 eax, DWORD PTR _this$[ebp]
  0000c	8b 4d 08	 mov	 ecx, DWORD PTR ___that$[ebp]
  0000f	8b 00		 mov	 eax, DWORD PTR [eax]
  00011	3b 01		 cmp	 eax, DWORD PTR [ecx]
  00013	74 38		 je	 SHORT $LN7@operator

; 1134 :             if (_Right._Myproxy) {

  00015	8b 45 08	 mov	 eax, DWORD PTR ___that$[ebp]
  00018	83 38 00	 cmp	 DWORD PTR [eax], 0
  0001b	74 2a		 je	 SHORT $LN5@operator

; 1135 :                 _Adopt(_Right._Myproxy->_Mycont);

  0001d	8b 45 08	 mov	 eax, DWORD PTR ___that$[ebp]
  00020	8b 00		 mov	 eax, DWORD PTR [eax]
  00022	8b 00		 mov	 eax, DWORD PTR [eax]
  00024	89 45 f8	 mov	 DWORD PTR __Parent$[ebp], eax

; 1157 :         if (_Parent) {

  00027	83 7d f8 00	 cmp	 DWORD PTR __Parent$[ebp], 0
  0002b	74 12		 je	 SHORT $LN10@operator

; 1158 :             // have a parent, do adoption
; 1159 :             _Container_proxy* _Parent_proxy = _Parent->_Myproxy;

  0002d	8b 45 f8	 mov	 eax, DWORD PTR __Parent$[ebp]
  00030	8b 00		 mov	 eax, DWORD PTR [eax]
  00032	89 45 f4	 mov	 DWORD PTR __Parent_proxy$1[ebp], eax

; 1160 : 
; 1161 : #if _ITERATOR_DEBUG_LEVEL == 2
; 1162 :             if (_Myproxy != _Parent_proxy) { // change parentage
; 1163 :                 _Lockit _Lock(_LOCK_DEBUG);
; 1164 :                 _Orphan_me();
; 1165 :                 _Mynextiter                 = _Parent_proxy->_Myfirstiter;
; 1166 :                 _Parent_proxy->_Myfirstiter = this;
; 1167 :                 _Myproxy                    = _Parent_proxy;
; 1168 :             }
; 1169 : 
; 1170 : #else // _ITERATOR_DEBUG_LEVEL == 2
; 1171 :             _Myproxy = _Parent_proxy;

  00035	8b 45 fc	 mov	 eax, DWORD PTR _this$[ebp]
  00038	8b 4d f4	 mov	 ecx, DWORD PTR __Parent_proxy$1[ebp]
  0003b	89 08		 mov	 DWORD PTR [eax], ecx

; 1172 : #endif // _ITERATOR_DEBUG_LEVEL == 2
; 1173 :         } else {

  0003d	eb 06		 jmp	 SHORT $LN12@operator
$LN10@operator:

; 1174 :             // no future parent, just disown current parent
; 1175 : #if _ITERATOR_DEBUG_LEVEL == 2
; 1176 :             _Lockit _Lock(_LOCK_DEBUG);
; 1177 :             _Orphan_me();
; 1178 : #else // _ITERATOR_DEBUG_LEVEL == 2
; 1179 :             _Myproxy = nullptr;

  0003f	8b 45 fc	 mov	 eax, DWORD PTR _this$[ebp]
  00042	83 20 00	 and	 DWORD PTR [eax], 0
$LN12@operator:

; 1136 :             } else { // becoming invalid, disown current parent

  00045	eb 06		 jmp	 SHORT $LN7@operator
$LN5@operator:

; 1137 : #if _ITERATOR_DEBUG_LEVEL == 2
; 1138 :                 _Lockit _Lock(_LOCK_DEBUG);
; 1139 :                 _Orphan_me();
; 1140 : #else // _ITERATOR_DEBUG_LEVEL == 2
; 1141 :                 _Myproxy = nullptr;

  00047	8b 45 fc	 mov	 eax, DWORD PTR _this$[ebp]
  0004a	83 20 00	 and	 DWORD PTR [eax], 0
$LN7@operator:
  0004d	8b 45 fc	 mov	 eax, DWORD PTR _this$[ebp]
  00050	8b 4d 08	 mov	 ecx, DWORD PTR ___that$[ebp]
  00053	8b 49 08	 mov	 ecx, DWORD PTR [ecx+8]
  00056	89 48 08	 mov	 DWORD PTR [eax+8], ecx
  00059	8b 45 fc	 mov	 eax, DWORD PTR _this$[ebp]
  0005c	c9		 leave
  0005d	c2 04 00	 ret	 4
??4?$_Deque_const_iterator@V?$_Deque_val@U?$_Deque_simple_types@U?$pair@MUD3DXVECTOR3@@@std@@@std@@@std@@@std@@QAEAAV01@$$QAV01@@Z ENDP ; std::_Deque_const_iterator<std::_Deque_val<std::_Deque_simple_types<std::pair<float,D3DXVECTOR3> > > >::operator=
_TEXT	ENDS
; Function compile flags: /Odspy
;	COMDAT ??0?$_Deque_const_iterator@V?$_Deque_val@U?$_Deque_simple_types@U?$pair@MUD3DXVECTOR3@@@std@@@std@@@std@@@std@@QAE@$$QAV01@@Z
_TEXT	SEGMENT
_this$ = -4						; size = 4
___that$ = 8						; size = 4
??0?$_Deque_const_iterator@V?$_Deque_val@U?$_Deque_simple_types@U?$pair@MUD3DXVECTOR3@@@std@@@std@@@std@@@std@@QAE@$$QAV01@@Z PROC ; std::_Deque_const_iterator<std::_Deque_val<std::_Deque_simple_types<std::pair<float,D3DXVECTOR3> > > >::_Deque_const_iterator<std::_Deque_val<std::_Deque_simple_types<std::pair<float,D3DXVECTOR3> > > >, COMDAT
; _this$ = ecx
  00000	55		 push	 ebp
  00001	8b ec		 mov	 ebp, esp
  00003	51		 push	 ecx
  00004	89 4d fc	 mov	 DWORD PTR _this$[ebp], ecx
  00007	ff 75 08	 push	 DWORD PTR ___that$[ebp]
  0000a	8b 4d fc	 mov	 ecx, DWORD PTR _this$[ebp]
  0000d	e8 00 00 00 00	 call	 ??0_Iterator_base12@std@@QAE@ABU01@@Z ; std::_Iterator_base12::_Iterator_base12
  00012	8b 45 fc	 mov	 eax, DWORD PTR _this$[ebp]
  00015	8b 4d 08	 mov	 ecx, DWORD PTR ___that$[ebp]
  00018	8b 49 08	 mov	 ecx, DWORD PTR [ecx+8]
  0001b	89 48 08	 mov	 DWORD PTR [eax+8], ecx
  0001e	8b 45 fc	 mov	 eax, DWORD PTR _this$[ebp]
  00021	c9		 leave
  00022	c2 04 00	 ret	 4
??0?$_Deque_const_iterator@V?$_Deque_val@U?$_Deque_simple_types@U?$pair@MUD3DXVECTOR3@@@std@@@std@@@std@@@std@@QAE@$$QAV01@@Z ENDP ; std::_Deque_const_iterator<std::_Deque_val<std::_Deque_simple_types<std::pair<float,D3DXVECTOR3> > > >::_Deque_const_iterator<std::_Deque_val<std::_Deque_simple_types<std::pair<float,D3DXVECTOR3> > > >
_TEXT	ENDS
; Function compile flags: /Odspy
;	COMDAT ??0?$_Deque_const_iterator@V?$_Deque_val@U?$_Deque_simple_types@U?$pair@MUD3DXVECTOR3@@@std@@@std@@@std@@@std@@QAE@ABV01@@Z
_TEXT	SEGMENT
_this$ = -4						; size = 4
___that$ = 8						; size = 4
??0?$_Deque_const_iterator@V?$_Deque_val@U?$_Deque_simple_types@U?$pair@MUD3DXVECTOR3@@@std@@@std@@@std@@@std@@QAE@ABV01@@Z PROC ; std::_Deque_const_iterator<std::_Deque_val<std::_Deque_simple_types<std::pair<float,D3DXVECTOR3> > > >::_Deque_const_iterator<std::_Deque_val<std::_Deque_simple_types<std::pair<float,D3DXVECTOR3> > > >, COMDAT
; _this$ = ecx
  00000	55		 push	 ebp
  00001	8b ec		 mov	 ebp, esp
  00003	51		 push	 ecx
  00004	89 4d fc	 mov	 DWORD PTR _this$[ebp], ecx
  00007	ff 75 08	 push	 DWORD PTR ___that$[ebp]
  0000a	8b 4d fc	 mov	 ecx, DWORD PTR _this$[ebp]
  0000d	e8 00 00 00 00	 call	 ??0_Iterator_base12@std@@QAE@ABU01@@Z ; std::_Iterator_base12::_Iterator_base12
  00012	8b 45 fc	 mov	 eax, DWORD PTR _this$[ebp]
  00015	8b 4d 08	 mov	 ecx, DWORD PTR ___that$[ebp]
  00018	8b 49 08	 mov	 ecx, DWORD PTR [ecx+8]
  0001b	89 48 08	 mov	 DWORD PTR [eax+8], ecx
  0001e	8b 45 fc	 mov	 eax, DWORD PTR _this$[ebp]
  00021	c9		 leave
  00022	c2 04 00	 ret	 4
??0?$_Deque_const_iterator@V?$_Deque_val@U?$_Deque_simple_types@U?$pair@MUD3DXVECTOR3@@@std@@@std@@@std@@@std@@QAE@ABV01@@Z ENDP ; std::_Deque_const_iterator<std::_Deque_val<std::_Deque_simple_types<std::pair<float,D3DXVECTOR3> > > >::_Deque_const_iterator<std::_Deque_val<std::_Deque_simple_types<std::pair<float,D3DXVECTOR3> > > >
_TEXT	ENDS
; Function compile flags: /Odspy
; File C:\Program Files (x86)\Microsoft Visual Studio\2019\Community\VC\Tools\MSVC\14.28.29333\include\deque
; File C:\Program Files (x86)\Microsoft Visual Studio\2019\Community\VC\Tools\MSVC\14.28.29333\include\xmemory
; File C:\Program Files (x86)\Microsoft Visual Studio\2019\Community\VC\Tools\MSVC\14.28.29333\include\deque
;	COMDAT ??D?$_Deque_const_iterator@V?$_Deque_val@U?$_Deque_simple_types@U?$pair@MUD3DXVECTOR3@@@std@@@std@@@std@@@std@@QBEABU?$pair@MUD3DXVECTOR3@@@1@XZ
_TEXT	SEGMENT
__Block$ = -24						; size = 4
__Off$ = -20						; size = 4
__Off$ = -16						; size = 4
__Mycont$ = -12						; size = 4
tv89 = -8						; size = 4
_this$ = -4						; size = 4
??D?$_Deque_const_iterator@V?$_Deque_val@U?$_Deque_simple_types@U?$pair@MUD3DXVECTOR3@@@std@@@std@@@std@@@std@@QBEABU?$pair@MUD3DXVECTOR3@@@1@XZ PROC ; std::_Deque_const_iterator<std::_Deque_val<std::_Deque_simple_types<std::pair<float,D3DXVECTOR3> > > >::operator*, COMDAT
; _this$ = ecx

; 260  :     _NODISCARD reference operator*() const noexcept {

  00000	55		 push	 ebp
  00001	8b ec		 mov	 ebp, esp
  00003	83 ec 18	 sub	 esp, 24			; 00000018H
  00006	89 4d fc	 mov	 DWORD PTR _this$[ebp], ecx
; File C:\Program Files (x86)\Microsoft Visual Studio\2019\Community\VC\Tools\MSVC\14.28.29333\include\xmemory

; 1185 :         return _Myproxy ? _Myproxy->_Mycont : nullptr;

  00009	8b 45 fc	 mov	 eax, DWORD PTR _this$[ebp]
  0000c	83 38 00	 cmp	 DWORD PTR [eax], 0
  0000f	74 0c		 je	 SHORT $LN5@operator
  00011	8b 45 fc	 mov	 eax, DWORD PTR _this$[ebp]
  00014	8b 00		 mov	 eax, DWORD PTR [eax]
  00016	8b 00		 mov	 eax, DWORD PTR [eax]
  00018	89 45 f8	 mov	 DWORD PTR tv89[ebp], eax
  0001b	eb 04		 jmp	 SHORT $LN6@operator
$LN5@operator:
  0001d	83 65 f8 00	 and	 DWORD PTR tv89[ebp], 0
$LN6@operator:
  00021	8b 45 f8	 mov	 eax, DWORD PTR tv89[ebp]
  00024	89 45 f4	 mov	 DWORD PTR __Mycont$[ebp], eax
; File C:\Program Files (x86)\Microsoft Visual Studio\2019\Community\VC\Tools\MSVC\14.28.29333\include\deque

; 268  :         _Size_type _Block = _Mycont->_Getblock(_Myoff);

  00027	8b 45 fc	 mov	 eax, DWORD PTR _this$[ebp]
  0002a	8b 40 08	 mov	 eax, DWORD PTR [eax+8]
  0002d	89 45 f0	 mov	 DWORD PTR __Off$[ebp], eax

; 548  :         return (_Off / _DEQUESIZ) & (_Mapsize - 1);

  00030	8b 45 f4	 mov	 eax, DWORD PTR __Mycont$[ebp]
  00033	8b 40 08	 mov	 eax, DWORD PTR [eax+8]
  00036	48		 dec	 eax
  00037	23 45 f0	 and	 eax, DWORD PTR __Off$[ebp]
  0003a	89 45 e8	 mov	 DWORD PTR __Block$[ebp], eax

; 269  :         _Size_type _Off   = _Myoff % _DEQUESIZ;

  0003d	8b 45 fc	 mov	 eax, DWORD PTR _this$[ebp]
  00040	8b 40 08	 mov	 eax, DWORD PTR [eax+8]
  00043	33 d2		 xor	 edx, edx
  00045	33 c9		 xor	 ecx, ecx
  00047	41		 inc	 ecx
  00048	f7 f1		 div	 ecx
  0004a	89 55 ec	 mov	 DWORD PTR __Off$[ebp], edx

; 270  :         return _Mycont->_Map[_Block][_Off];

  0004d	8b 45 f4	 mov	 eax, DWORD PTR __Mycont$[ebp]
  00050	8b 40 04	 mov	 eax, DWORD PTR [eax+4]
  00053	8b 4d ec	 mov	 ecx, DWORD PTR __Off$[ebp]
  00056	c1 e1 04	 shl	 ecx, 4
  00059	8b 55 e8	 mov	 edx, DWORD PTR __Block$[ebp]
  0005c	03 0c 90	 add	 ecx, DWORD PTR [eax+edx*4]
  0005f	8b c1		 mov	 eax, ecx

; 271  :     }

  00061	c9		 leave
  00062	c3		 ret	 0
??D?$_Deque_const_iterator@V?$_Deque_val@U?$_Deque_simple_types@U?$pair@MUD3DXVECTOR3@@@std@@@std@@@std@@@std@@QBEABU?$pair@MUD3DXVECTOR3@@@1@XZ ENDP ; std::_Deque_const_iterator<std::_Deque_val<std::_Deque_simple_types<std::pair<float,D3DXVECTOR3> > > >::operator*
_TEXT	ENDS
; Function compile flags: /Odspy
; File C:\Program Files (x86)\Microsoft Visual Studio\2019\Community\VC\Tools\MSVC\14.28.29333\include\deque
; File C:\Program Files (x86)\Microsoft Visual Studio\2019\Community\VC\Tools\MSVC\14.28.29333\include\xmemory
; File C:\Program Files (x86)\Microsoft Visual Studio\2019\Community\VC\Tools\MSVC\14.28.29333\include\deque
; File C:\Program Files (x86)\Microsoft Visual Studio\2019\Community\VC\Tools\MSVC\14.28.29333\include\xmemory
; File C:\Program Files (x86)\Microsoft Visual Studio\2019\Community\VC\Tools\MSVC\14.28.29333\include\deque
;	COMDAT ??0?$_Deque_const_iterator@V?$_Deque_val@U?$_Deque_simple_types@U?$pair@MUD3DXVECTOR3@@@std@@@std@@@std@@@std@@QAE@XZ
_TEXT	SEGMENT
__Parent_proxy$1 = -8					; size = 4
_this$ = -4						; size = 4
??0?$_Deque_const_iterator@V?$_Deque_val@U?$_Deque_simple_types@U?$pair@MUD3DXVECTOR3@@@std@@@std@@@std@@@std@@QAE@XZ PROC ; std::_Deque_const_iterator<std::_Deque_val<std::_Deque_simple_types<std::pair<float,D3DXVECTOR3> > > >::_Deque_const_iterator<std::_Deque_val<std::_Deque_simple_types<std::pair<float,D3DXVECTOR3> > > >, COMDAT
; _this$ = ecx

; 252  :     _Deque_const_iterator() noexcept : _Myoff(0) {

  00000	55		 push	 ebp
  00001	8b ec		 mov	 ebp, esp
  00003	51		 push	 ecx
  00004	51		 push	 ecx
  00005	89 4d fc	 mov	 DWORD PTR _this$[ebp], ecx
; File C:\Program Files (x86)\Microsoft Visual Studio\2019\Community\VC\Tools\MSVC\14.28.29333\include\xmemory

; 1126 :     _Iterator_base12() noexcept : _Myproxy(nullptr), _Mynextiter(nullptr) {} // construct orphaned iterator

  00008	8b 45 fc	 mov	 eax, DWORD PTR _this$[ebp]
  0000b	83 20 00	 and	 DWORD PTR [eax], 0
  0000e	8b 45 fc	 mov	 eax, DWORD PTR _this$[ebp]
  00011	83 60 04 00	 and	 DWORD PTR [eax+4], 0
; File C:\Program Files (x86)\Microsoft Visual Studio\2019\Community\VC\Tools\MSVC\14.28.29333\include\deque

; 252  :     _Deque_const_iterator() noexcept : _Myoff(0) {

  00015	8b 45 fc	 mov	 eax, DWORD PTR _this$[ebp]
  00018	83 60 08 00	 and	 DWORD PTR [eax+8], 0
; File C:\Program Files (x86)\Microsoft Visual Studio\2019\Community\VC\Tools\MSVC\14.28.29333\include\xmemory

; 1157 :         if (_Parent) {

  0001c	33 c0		 xor	 eax, eax
  0001e	74 11		 je	 SHORT $LN10@Deque_cons

; 1158 :             // have a parent, do adoption
; 1159 :             _Container_proxy* _Parent_proxy = _Parent->_Myproxy;

  00020	33 c0		 xor	 eax, eax
  00022	8b 00		 mov	 eax, DWORD PTR [eax]
  00024	89 45 f8	 mov	 DWORD PTR __Parent_proxy$1[ebp], eax

; 1160 : 
; 1161 : #if _ITERATOR_DEBUG_LEVEL == 2
; 1162 :             if (_Myproxy != _Parent_proxy) { // change parentage
; 1163 :                 _Lockit _Lock(_LOCK_DEBUG);
; 1164 :                 _Orphan_me();
; 1165 :                 _Mynextiter                 = _Parent_proxy->_Myfirstiter;
; 1166 :                 _Parent_proxy->_Myfirstiter = this;
; 1167 :                 _Myproxy                    = _Parent_proxy;
; 1168 :             }
; 1169 : 
; 1170 : #else // _ITERATOR_DEBUG_LEVEL == 2
; 1171 :             _Myproxy = _Parent_proxy;

  00027	8b 45 fc	 mov	 eax, DWORD PTR _this$[ebp]
  0002a	8b 4d f8	 mov	 ecx, DWORD PTR __Parent_proxy$1[ebp]
  0002d	89 08		 mov	 DWORD PTR [eax], ecx

; 1172 : #endif // _ITERATOR_DEBUG_LEVEL == 2
; 1173 :         } else {

  0002f	eb 06		 jmp	 SHORT $LN1@Deque_cons
$LN10@Deque_cons:

; 1174 :             // no future parent, just disown current parent
; 1175 : #if _ITERATOR_DEBUG_LEVEL == 2
; 1176 :             _Lockit _Lock(_LOCK_DEBUG);
; 1177 :             _Orphan_me();
; 1178 : #else // _ITERATOR_DEBUG_LEVEL == 2
; 1179 :             _Myproxy = nullptr;

  00031	8b 45 fc	 mov	 eax, DWORD PTR _this$[ebp]
  00034	83 20 00	 and	 DWORD PTR [eax], 0
$LN1@Deque_cons:
; File C:\Program Files (x86)\Microsoft Visual Studio\2019\Community\VC\Tools\MSVC\14.28.29333\include\deque

; 254  :     }

  00037	8b 45 fc	 mov	 eax, DWORD PTR _this$[ebp]
  0003a	c9		 leave
  0003b	c3		 ret	 0
??0?$_Deque_const_iterator@V?$_Deque_val@U?$_Deque_simple_types@U?$pair@MUD3DXVECTOR3@@@std@@@std@@@std@@@std@@QAE@XZ ENDP ; std::_Deque_const_iterator<std::_Deque_val<std::_Deque_simple_types<std::pair<float,D3DXVECTOR3> > > >::_Deque_const_iterator<std::_Deque_val<std::_Deque_simple_types<std::pair<float,D3DXVECTOR3> > > >
_TEXT	ENDS
; Function compile flags: /Odspy
;	COMDAT ??__F?ms_kPool@CWeaponTrace@@1V?$CDynamicPool@VCWeaponTrace@@@@A@@YAXXZ
text$yd	SEGMENT
??__F?ms_kPool@CWeaponTrace@@1V?$CDynamicPool@VCWeaponTrace@@@@A@@YAXXZ PROC ; `dynamic atexit destructor for 'CWeaponTrace::ms_kPool'', COMDAT
  00000	55		 push	 ebp
  00001	8b ec		 mov	 ebp, esp
  00003	b9 00 00 00 00	 mov	 ecx, OFFSET ?ms_kPool@CWeaponTrace@@1V?$CDynamicPool@VCWeaponTrace@@@@A ; CWeaponTrace::ms_kPool
  00008	e8 00 00 00 00	 call	 ??1?$CDynamicPool@VCWeaponTrace@@@@UAE@XZ ; CDynamicPool<CWeaponTrace>::~CDynamicPool<CWeaponTrace>
  0000d	5d		 pop	 ebp
  0000e	c3		 ret	 0
??__F?ms_kPool@CWeaponTrace@@1V?$CDynamicPool@VCWeaponTrace@@@@A@@YAXXZ ENDP ; `dynamic atexit destructor for 'CWeaponTrace::ms_kPool''
text$yd	ENDS
; Function compile flags: /Odspy
; File D:\Metin2 Server Files\mainline\SRC_2014\Metin2Client\GameLib\WeaponTrace.cpp
;	COMDAT ??__E?ms_kPool@CWeaponTrace@@1V?$CDynamicPool@VCWeaponTrace@@@@A@@YAXXZ
text$di	SEGMENT
??__E?ms_kPool@CWeaponTrace@@1V?$CDynamicPool@VCWeaponTrace@@@@A@@YAXXZ PROC ; `dynamic initializer for 'CWeaponTrace::ms_kPool'', COMDAT

; 7    : CDynamicPool<CWeaponTrace> CWeaponTrace::ms_kPool;

  00000	55		 push	 ebp
  00001	8b ec		 mov	 ebp, esp
  00003	b9 00 00 00 00	 mov	 ecx, OFFSET ?ms_kPool@CWeaponTrace@@1V?$CDynamicPool@VCWeaponTrace@@@@A ; CWeaponTrace::ms_kPool
  00008	e8 00 00 00 00	 call	 ??0?$CDynamicPool@VCWeaponTrace@@@@QAE@XZ ; CDynamicPool<CWeaponTrace>::CDynamicPool<CWeaponTrace>
  0000d	68 00 00 00 00	 push	 OFFSET ??__F?ms_kPool@CWeaponTrace@@1V?$CDynamicPool@VCWeaponTrace@@@@A@@YAXXZ ; `dynamic atexit destructor for 'CWeaponTrace::ms_kPool''
  00012	e8 00 00 00 00	 call	 _atexit
  00017	59		 pop	 ecx
  00018	5d		 pop	 ebp
  00019	c3		 ret	 0
??__E?ms_kPool@CWeaponTrace@@1V?$CDynamicPool@VCWeaponTrace@@@@A@@YAXXZ ENDP ; `dynamic initializer for 'CWeaponTrace::ms_kPool''
text$di	ENDS
; Function compile flags: /Odspy
;	COMDAT ??_G?$CDynamicPool@VCWeaponTrace@@@@UAEPAXI@Z
_TEXT	SEGMENT
_this$ = -4						; size = 4
___flags$ = 8						; size = 4
??_G?$CDynamicPool@VCWeaponTrace@@@@UAEPAXI@Z PROC	; CDynamicPool<CWeaponTrace>::`scalar deleting destructor', COMDAT
; _this$ = ecx
  00000	55		 push	 ebp
  00001	8b ec		 mov	 ebp, esp
  00003	51		 push	 ecx
  00004	89 4d fc	 mov	 DWORD PTR _this$[ebp], ecx
  00007	8b 4d fc	 mov	 ecx, DWORD PTR _this$[ebp]
  0000a	e8 00 00 00 00	 call	 ??1?$CDynamicPool@VCWeaponTrace@@@@UAE@XZ ; CDynamicPool<CWeaponTrace>::~CDynamicPool<CWeaponTrace>
  0000f	8b 45 08	 mov	 eax, DWORD PTR ___flags$[ebp]
  00012	83 e0 01	 and	 eax, 1
  00015	74 0c		 je	 SHORT $LN2@scalar
  00017	6a 24		 push	 36			; 00000024H
  00019	ff 75 fc	 push	 DWORD PTR _this$[ebp]
  0001c	e8 00 00 00 00	 call	 ??3@YAXPAXI@Z		; operator delete
  00021	59		 pop	 ecx
  00022	59		 pop	 ecx
$LN2@scalar:
  00023	8b 45 fc	 mov	 eax, DWORD PTR _this$[ebp]
  00026	c9		 leave
  00027	c2 04 00	 ret	 4
??_G?$CDynamicPool@VCWeaponTrace@@@@UAEPAXI@Z ENDP	; CDynamicPool<CWeaponTrace>::`scalar deleting destructor'
_TEXT	ENDS
; Function compile flags: /Odspy
; File C:\Program Files (x86)\Microsoft Visual Studio\2019\Community\VC\Tools\MSVC\14.28.29333\include\vector
;	COMDAT ?_Xlength@?$vector@PAVCWeaponTrace@@V?$allocator@PAVCWeaponTrace@@@std@@@std@@CAXXZ
_TEXT	SEGMENT
?_Xlength@?$vector@PAVCWeaponTrace@@V?$allocator@PAVCWeaponTrace@@@std@@@std@@CAXXZ PROC ; std::vector<CWeaponTrace *,std::allocator<CWeaponTrace *> >::_Xlength, COMDAT

; 1704 :     [[noreturn]] static void _Xlength() {

  00000	55		 push	 ebp
  00001	8b ec		 mov	 ebp, esp

; 1705 :         _Xlength_error("vector too long");

  00003	68 00 00 00 00	 push	 OFFSET ??_C@_0BA@FOIKENOD@vector?5too?5long@
  00008	e8 00 00 00 00	 call	 ?_Xlength_error@std@@YAXPBD@Z ; std::_Xlength_error
$LN2@Xlength:

; 1706 :     }

  0000d	5d		 pop	 ebp
  0000e	c3		 ret	 0
?_Xlength@?$vector@PAVCWeaponTrace@@V?$allocator@PAVCWeaponTrace@@@std@@@std@@CAXXZ ENDP ; std::vector<CWeaponTrace *,std::allocator<CWeaponTrace *> >::_Xlength
_TEXT	ENDS
; Function compile flags: /Odspy
; File C:\Program Files (x86)\Microsoft Visual Studio\2019\Community\VC\Tools\MSVC\14.28.29333\include\vector
; File C:\Program Files (x86)\Microsoft Visual Studio\2019\Community\VC\Tools\MSVC\14.28.29333\include\xmemory
; File C:\Program Files (x86)\Microsoft Visual Studio\2019\Community\VC\Tools\MSVC\14.28.29333\include\vector
; File C:\Program Files (x86)\Microsoft Visual Studio\2019\Community\VC\Tools\MSVC\14.28.29333\include\xmemory
; File C:\Program Files (x86)\Microsoft Visual Studio\2019\Community\VC\Tools\MSVC\14.28.29333\include\vector
; File C:\Program Files (x86)\Microsoft Visual Studio\2019\Community\VC\Tools\MSVC\14.28.29333\include\xmemory
; File C:\Program Files (x86)\Microsoft Visual Studio\2019\Community\VC\Tools\MSVC\14.28.29333\include\vector
;	COMDAT ?_Tidy@?$vector@PAVCWeaponTrace@@V?$allocator@PAVCWeaponTrace@@@std@@@std@@AAEXXZ
_TEXT	SEGMENT
$T1 = -52						; size = 4
__Ptr$ = -48						; size = 4
__Count$ = -44						; size = 4
$T2 = -40						; size = 4
__First$ = -36						; size = 4
__Last$ = -32						; size = 4
$T3 = -28						; size = 4
$T4 = -24						; size = 4
__Myend$ = -20						; size = 4
__Mylast$ = -16						; size = 4
_this$ = -12						; size = 4
__My_data$ = -8						; size = 4
__Myfirst$ = -4						; size = 4
?_Tidy@?$vector@PAVCWeaponTrace@@V?$allocator@PAVCWeaponTrace@@@std@@@std@@AAEXXZ PROC ; std::vector<CWeaponTrace *,std::allocator<CWeaponTrace *> >::_Tidy, COMDAT
; _this$ = ecx

; 1686 :     void _Tidy() noexcept { // free all storage

  00000	55		 push	 ebp
  00001	8b ec		 mov	 ebp, esp
  00003	83 ec 34	 sub	 esp, 52			; 00000034H
  00006	89 4d f4	 mov	 DWORD PTR _this$[ebp], ecx

; 1687 :         auto& _My_data    = _Mypair._Myval2;

  00009	8b 45 f4	 mov	 eax, DWORD PTR _this$[ebp]
  0000c	89 45 f8	 mov	 DWORD PTR __My_data$[ebp], eax

; 1688 :         pointer& _Myfirst = _My_data._Myfirst;

  0000f	8b 45 f8	 mov	 eax, DWORD PTR __My_data$[ebp]
  00012	89 45 fc	 mov	 DWORD PTR __Myfirst$[ebp], eax

; 1689 :         pointer& _Mylast  = _My_data._Mylast;

  00015	8b 45 f8	 mov	 eax, DWORD PTR __My_data$[ebp]
  00018	83 c0 04	 add	 eax, 4
  0001b	89 45 f0	 mov	 DWORD PTR __Mylast$[ebp], eax

; 1690 :         pointer& _Myend   = _My_data._Myend;

  0001e	8b 45 f8	 mov	 eax, DWORD PTR __My_data$[ebp]
  00021	83 c0 08	 add	 eax, 8
  00024	89 45 ec	 mov	 DWORD PTR __Myend$[ebp], eax

; 1691 : 
; 1692 :         _My_data._Orphan_all();
; 1693 : 
; 1694 :         if (_Myfirst) { // destroy and deallocate old array

  00027	8b 45 fc	 mov	 eax, DWORD PTR __Myfirst$[ebp]
  0002a	83 38 00	 cmp	 DWORD PTR [eax], 0
  0002d	74 74		 je	 SHORT $LN3@Tidy

; 1695 :             _Destroy(_Myfirst, _Mylast);

  0002f	8b 45 f0	 mov	 eax, DWORD PTR __Mylast$[ebp]
  00032	8b 00		 mov	 eax, DWORD PTR [eax]
  00034	89 45 e0	 mov	 DWORD PTR __Last$[ebp], eax
  00037	8b 45 fc	 mov	 eax, DWORD PTR __Myfirst$[ebp]
  0003a	8b 00		 mov	 eax, DWORD PTR [eax]
  0003c	89 45 dc	 mov	 DWORD PTR __First$[ebp], eax

; 1733 :         return _Mypair._Get_first();

  0003f	8b 45 f4	 mov	 eax, DWORD PTR _this$[ebp]
; File C:\Program Files (x86)\Microsoft Visual Studio\2019\Community\VC\Tools\MSVC\14.28.29333\include\xmemory

; 1347 :         return *this;

  00042	89 45 e8	 mov	 DWORD PTR $T4[ebp], eax
; File C:\Program Files (x86)\Microsoft Visual Studio\2019\Community\VC\Tools\MSVC\14.28.29333\include\vector

; 1733 :         return _Mypair._Get_first();

  00045	8b 45 e8	 mov	 eax, DWORD PTR $T4[ebp]
  00048	89 45 e4	 mov	 DWORD PTR $T3[ebp], eax

; 1612 :         _Destroy_range(_First, _Last, _Getal());

  0004b	ff 75 e4	 push	 DWORD PTR $T3[ebp]
  0004e	ff 75 e0	 push	 DWORD PTR __Last$[ebp]
  00051	ff 75 dc	 push	 DWORD PTR __First$[ebp]
  00054	e8 00 00 00 00	 call	 ??$_Destroy_range@V?$allocator@PAVCWeaponTrace@@@std@@@std@@YAXPAPAVCWeaponTrace@@QAPAV1@AAV?$allocator@PAVCWeaponTrace@@@0@@Z ; std::_Destroy_range<std::allocator<CWeaponTrace *> >
  00059	83 c4 0c	 add	 esp, 12			; 0000000cH

; 1733 :         return _Mypair._Get_first();

  0005c	8b 45 f4	 mov	 eax, DWORD PTR _this$[ebp]
; File C:\Program Files (x86)\Microsoft Visual Studio\2019\Community\VC\Tools\MSVC\14.28.29333\include\xmemory

; 1347 :         return *this;

  0005f	89 45 d8	 mov	 DWORD PTR $T2[ebp], eax
; File C:\Program Files (x86)\Microsoft Visual Studio\2019\Community\VC\Tools\MSVC\14.28.29333\include\vector

; 1733 :         return _Mypair._Get_first();

  00062	8b 45 d8	 mov	 eax, DWORD PTR $T2[ebp]
  00065	89 45 cc	 mov	 DWORD PTR $T1[ebp], eax

; 1696 :             _Getal().deallocate(_Myfirst, static_cast<size_type>(_Myend - _Myfirst));

  00068	8b 45 ec	 mov	 eax, DWORD PTR __Myend$[ebp]
  0006b	8b 4d fc	 mov	 ecx, DWORD PTR __Myfirst$[ebp]
  0006e	8b 00		 mov	 eax, DWORD PTR [eax]
  00070	2b 01		 sub	 eax, DWORD PTR [ecx]
  00072	c1 f8 02	 sar	 eax, 2
  00075	89 45 d4	 mov	 DWORD PTR __Count$[ebp], eax
  00078	8b 45 fc	 mov	 eax, DWORD PTR __Myfirst$[ebp]
  0007b	8b 00		 mov	 eax, DWORD PTR [eax]
  0007d	89 45 d0	 mov	 DWORD PTR __Ptr$[ebp], eax
; File C:\Program Files (x86)\Microsoft Visual Studio\2019\Community\VC\Tools\MSVC\14.28.29333\include\xmemory

; 810  :         _Deallocate<_New_alignof<_Ty>>(_Ptr, sizeof(_Ty) * _Count);

  00080	8b 45 d4	 mov	 eax, DWORD PTR __Count$[ebp]
  00083	c1 e0 02	 shl	 eax, 2
  00086	50		 push	 eax
  00087	ff 75 d0	 push	 DWORD PTR __Ptr$[ebp]
  0008a	e8 00 00 00 00	 call	 ??$_Deallocate@$07$0A@@std@@YAXPAXI@Z ; std::_Deallocate<8,0>
  0008f	59		 pop	 ecx
  00090	59		 pop	 ecx
; File C:\Program Files (x86)\Microsoft Visual Studio\2019\Community\VC\Tools\MSVC\14.28.29333\include\vector

; 1698 :             _Myfirst = pointer();

  00091	8b 45 fc	 mov	 eax, DWORD PTR __Myfirst$[ebp]
  00094	83 20 00	 and	 DWORD PTR [eax], 0

; 1699 :             _Mylast  = pointer();

  00097	8b 45 f0	 mov	 eax, DWORD PTR __Mylast$[ebp]
  0009a	83 20 00	 and	 DWORD PTR [eax], 0

; 1700 :             _Myend   = pointer();

  0009d	8b 45 ec	 mov	 eax, DWORD PTR __Myend$[ebp]
  000a0	83 20 00	 and	 DWORD PTR [eax], 0
$LN3@Tidy:

; 1701 :         }
; 1702 :     }

  000a3	c9		 leave
  000a4	c3		 ret	 0
?_Tidy@?$vector@PAVCWeaponTrace@@V?$allocator@PAVCWeaponTrace@@@std@@@std@@AAEXXZ ENDP ; std::vector<CWeaponTrace *,std::allocator<CWeaponTrace *> >::_Tidy
_TEXT	ENDS
; Function compile flags: /Odspy
; File C:\Program Files (x86)\Microsoft Visual Studio\2019\Community\VC\Tools\MSVC\14.28.29333\include\vector
; File C:\Program Files (x86)\Microsoft Visual Studio\2019\Community\VC\Tools\MSVC\14.28.29333\include\xmemory
; File C:\Program Files (x86)\Microsoft Visual Studio\2019\Community\VC\Tools\MSVC\14.28.29333\include\vector
; File C:\Program Files (x86)\Microsoft Visual Studio\2019\Community\VC\Tools\MSVC\14.28.29333\include\xmemory
; File C:\Program Files (x86)\Microsoft Visual Studio\2019\Community\VC\Tools\MSVC\14.28.29333\include\vector
; File C:\Program Files (x86)\Microsoft Visual Studio\2019\Community\VC\Tools\MSVC\14.28.29333\include\xmemory
; File C:\Program Files (x86)\Microsoft Visual Studio\2019\Community\VC\Tools\MSVC\14.28.29333\include\vector
;	COMDAT ?_Change_array@?$vector@PAVCWeaponTrace@@V?$allocator@PAVCWeaponTrace@@@std@@@std@@AAEXQAPAVCWeaponTrace@@II@Z
_TEXT	SEGMENT
$T1 = -52						; size = 4
__Ptr$ = -48						; size = 4
__Count$ = -44						; size = 4
$T2 = -40						; size = 4
__First$ = -36						; size = 4
__Last$ = -32						; size = 4
$T3 = -28						; size = 4
$T4 = -24						; size = 4
__Myend$ = -20						; size = 4
__Mylast$ = -16						; size = 4
_this$ = -12						; size = 4
__My_data$ = -8						; size = 4
__Myfirst$ = -4						; size = 4
__Newvec$ = 8						; size = 4
__Newsize$ = 12						; size = 4
__Newcapacity$ = 16					; size = 4
?_Change_array@?$vector@PAVCWeaponTrace@@V?$allocator@PAVCWeaponTrace@@@std@@@std@@AAEXQAPAVCWeaponTrace@@II@Z PROC ; std::vector<CWeaponTrace *,std::allocator<CWeaponTrace *> >::_Change_array, COMDAT
; _this$ = ecx

; 1667 :     void _Change_array(const pointer _Newvec, const size_type _Newsize, const size_type _Newcapacity) {

  00000	55		 push	 ebp
  00001	8b ec		 mov	 ebp, esp
  00003	83 ec 34	 sub	 esp, 52			; 00000034H
  00006	89 4d f4	 mov	 DWORD PTR _this$[ebp], ecx

; 1668 :         // orphan all iterators, discard old array, acquire new array
; 1669 :         auto& _My_data    = _Mypair._Myval2;

  00009	8b 45 f4	 mov	 eax, DWORD PTR _this$[ebp]
  0000c	89 45 f8	 mov	 DWORD PTR __My_data$[ebp], eax

; 1670 :         pointer& _Myfirst = _My_data._Myfirst;

  0000f	8b 45 f8	 mov	 eax, DWORD PTR __My_data$[ebp]
  00012	89 45 fc	 mov	 DWORD PTR __Myfirst$[ebp], eax

; 1671 :         pointer& _Mylast  = _My_data._Mylast;

  00015	8b 45 f8	 mov	 eax, DWORD PTR __My_data$[ebp]
  00018	83 c0 04	 add	 eax, 4
  0001b	89 45 f0	 mov	 DWORD PTR __Mylast$[ebp], eax

; 1672 :         pointer& _Myend   = _My_data._Myend;

  0001e	8b 45 f8	 mov	 eax, DWORD PTR __My_data$[ebp]
  00021	83 c0 08	 add	 eax, 8
  00024	89 45 ec	 mov	 DWORD PTR __Myend$[ebp], eax

; 1673 : 
; 1674 :         _My_data._Orphan_all();
; 1675 : 
; 1676 :         if (_Myfirst) { // destroy and deallocate old array

  00027	8b 45 fc	 mov	 eax, DWORD PTR __Myfirst$[ebp]
  0002a	83 38 00	 cmp	 DWORD PTR [eax], 0
  0002d	74 62		 je	 SHORT $LN2@Change_arr

; 1677 :             _Destroy(_Myfirst, _Mylast);

  0002f	8b 45 f0	 mov	 eax, DWORD PTR __Mylast$[ebp]
  00032	8b 00		 mov	 eax, DWORD PTR [eax]
  00034	89 45 e0	 mov	 DWORD PTR __Last$[ebp], eax
  00037	8b 45 fc	 mov	 eax, DWORD PTR __Myfirst$[ebp]
  0003a	8b 00		 mov	 eax, DWORD PTR [eax]
  0003c	89 45 dc	 mov	 DWORD PTR __First$[ebp], eax

; 1733 :         return _Mypair._Get_first();

  0003f	8b 45 f4	 mov	 eax, DWORD PTR _this$[ebp]
; File C:\Program Files (x86)\Microsoft Visual Studio\2019\Community\VC\Tools\MSVC\14.28.29333\include\xmemory

; 1347 :         return *this;

  00042	89 45 e8	 mov	 DWORD PTR $T4[ebp], eax
; File C:\Program Files (x86)\Microsoft Visual Studio\2019\Community\VC\Tools\MSVC\14.28.29333\include\vector

; 1733 :         return _Mypair._Get_first();

  00045	8b 45 e8	 mov	 eax, DWORD PTR $T4[ebp]
  00048	89 45 e4	 mov	 DWORD PTR $T3[ebp], eax

; 1612 :         _Destroy_range(_First, _Last, _Getal());

  0004b	ff 75 e4	 push	 DWORD PTR $T3[ebp]
  0004e	ff 75 e0	 push	 DWORD PTR __Last$[ebp]
  00051	ff 75 dc	 push	 DWORD PTR __First$[ebp]
  00054	e8 00 00 00 00	 call	 ??$_Destroy_range@V?$allocator@PAVCWeaponTrace@@@std@@@std@@YAXPAPAVCWeaponTrace@@QAPAV1@AAV?$allocator@PAVCWeaponTrace@@@0@@Z ; std::_Destroy_range<std::allocator<CWeaponTrace *> >
  00059	83 c4 0c	 add	 esp, 12			; 0000000cH

; 1733 :         return _Mypair._Get_first();

  0005c	8b 45 f4	 mov	 eax, DWORD PTR _this$[ebp]
; File C:\Program Files (x86)\Microsoft Visual Studio\2019\Community\VC\Tools\MSVC\14.28.29333\include\xmemory

; 1347 :         return *this;

  0005f	89 45 d8	 mov	 DWORD PTR $T2[ebp], eax
; File C:\Program Files (x86)\Microsoft Visual Studio\2019\Community\VC\Tools\MSVC\14.28.29333\include\vector

; 1733 :         return _Mypair._Get_first();

  00062	8b 45 d8	 mov	 eax, DWORD PTR $T2[ebp]
  00065	89 45 cc	 mov	 DWORD PTR $T1[ebp], eax

; 1678 :             _Getal().deallocate(_Myfirst, static_cast<size_type>(_Myend - _Myfirst));

  00068	8b 45 ec	 mov	 eax, DWORD PTR __Myend$[ebp]
  0006b	8b 4d fc	 mov	 ecx, DWORD PTR __Myfirst$[ebp]
  0006e	8b 00		 mov	 eax, DWORD PTR [eax]
  00070	2b 01		 sub	 eax, DWORD PTR [ecx]
  00072	c1 f8 02	 sar	 eax, 2
  00075	89 45 d4	 mov	 DWORD PTR __Count$[ebp], eax
  00078	8b 45 fc	 mov	 eax, DWORD PTR __Myfirst$[ebp]
  0007b	8b 00		 mov	 eax, DWORD PTR [eax]
  0007d	89 45 d0	 mov	 DWORD PTR __Ptr$[ebp], eax
; File C:\Program Files (x86)\Microsoft Visual Studio\2019\Community\VC\Tools\MSVC\14.28.29333\include\xmemory

; 810  :         _Deallocate<_New_alignof<_Ty>>(_Ptr, sizeof(_Ty) * _Count);

  00080	8b 45 d4	 mov	 eax, DWORD PTR __Count$[ebp]
  00083	c1 e0 02	 shl	 eax, 2
  00086	50		 push	 eax
  00087	ff 75 d0	 push	 DWORD PTR __Ptr$[ebp]
  0008a	e8 00 00 00 00	 call	 ??$_Deallocate@$07$0A@@std@@YAXPAXI@Z ; std::_Deallocate<8,0>
  0008f	59		 pop	 ecx
  00090	59		 pop	 ecx
$LN2@Change_arr:
; File C:\Program Files (x86)\Microsoft Visual Studio\2019\Community\VC\Tools\MSVC\14.28.29333\include\vector

; 1681 :         _Myfirst = _Newvec;

  00091	8b 45 fc	 mov	 eax, DWORD PTR __Myfirst$[ebp]
  00094	8b 4d 08	 mov	 ecx, DWORD PTR __Newvec$[ebp]
  00097	89 08		 mov	 DWORD PTR [eax], ecx

; 1682 :         _Mylast  = _Newvec + _Newsize;

  00099	8b 45 0c	 mov	 eax, DWORD PTR __Newsize$[ebp]
  0009c	8b 4d 08	 mov	 ecx, DWORD PTR __Newvec$[ebp]
  0009f	8d 04 81	 lea	 eax, DWORD PTR [ecx+eax*4]
  000a2	8b 4d f0	 mov	 ecx, DWORD PTR __Mylast$[ebp]
  000a5	89 01		 mov	 DWORD PTR [ecx], eax

; 1683 :         _Myend   = _Newvec + _Newcapacity;

  000a7	8b 45 10	 mov	 eax, DWORD PTR __Newcapacity$[ebp]
  000aa	8b 4d 08	 mov	 ecx, DWORD PTR __Newvec$[ebp]
  000ad	8d 04 81	 lea	 eax, DWORD PTR [ecx+eax*4]
  000b0	8b 4d ec	 mov	 ecx, DWORD PTR __Myend$[ebp]
  000b3	89 01		 mov	 DWORD PTR [ecx], eax

; 1684 :     }

  000b5	c9		 leave
  000b6	c2 0c 00	 ret	 12			; 0000000cH
?_Change_array@?$vector@PAVCWeaponTrace@@V?$allocator@PAVCWeaponTrace@@@std@@@std@@AAEXQAPAVCWeaponTrace@@II@Z ENDP ; std::vector<CWeaponTrace *,std::allocator<CWeaponTrace *> >::_Change_array
_TEXT	ENDS
; Function compile flags: /Odspy
; File C:\Program Files (x86)\Microsoft Visual Studio\2019\Community\VC\Tools\MSVC\14.28.29333\include\vector
; File C:\Program Files (x86)\Microsoft Visual Studio\2019\Community\VC\Tools\MSVC\14.28.29333\include\xmemory
; File C:\Program Files (x86)\Microsoft Visual Studio\2019\Community\VC\Tools\MSVC\14.28.29333\include\vector
; File C:\Program Files (x86)\Microsoft Visual Studio\2019\Community\VC\Tools\MSVC\14.28.29333\include\xmemory
; File C:\Program Files (x86)\Microsoft Visual Studio\2019\Community\VC\Tools\MSVC\14.28.29333\include\limits
; File C:\Program Files (x86)\Microsoft Visual Studio\2019\Community\VC\Tools\MSVC\14.28.29333\include\vector
; File C:\Program Files (x86)\Microsoft Visual Studio\2019\Community\VC\Tools\MSVC\14.28.29333\include\utility
; File C:\Program Files (x86)\Microsoft Visual Studio\2019\Community\VC\Tools\MSVC\14.28.29333\include\vector
;	COMDAT ?_Calculate_growth@?$vector@PAVCWeaponTrace@@V?$allocator@PAVCWeaponTrace@@@std@@@std@@ABEII@Z
_TEXT	SEGMENT
$T1 = -52						; size = 4
$T2 = -48						; size = 4
$T3 = -44						; size = 4
$T4 = -40						; size = 4
$T5 = -36						; size = 4
__Geometric$ = -32					; size = 4
__Max$ = -28						; size = 4
tv82 = -24						; size = 4
$T6 = -20						; size = 4
$T7 = -16						; size = 4
_this$ = -12						; size = 4
__My_data$8 = -8					; size = 4
__Oldcapacity$ = -4					; size = 4
__Newsize$ = 8						; size = 4
?_Calculate_growth@?$vector@PAVCWeaponTrace@@V?$allocator@PAVCWeaponTrace@@@std@@@std@@ABEII@Z PROC ; std::vector<CWeaponTrace *,std::allocator<CWeaponTrace *> >::_Calculate_growth, COMDAT
; _this$ = ecx

; 1615 :     size_type _Calculate_growth(const size_type _Newsize) const {

  00000	55		 push	 ebp
  00001	8b ec		 mov	 ebp, esp
  00003	83 ec 34	 sub	 esp, 52			; 00000034H
  00006	89 4d f4	 mov	 DWORD PTR _this$[ebp], ecx

; 1493 :         auto& _My_data = _Mypair._Myval2;

  00009	8b 45 f4	 mov	 eax, DWORD PTR _this$[ebp]
  0000c	89 45 f8	 mov	 DWORD PTR __My_data$8[ebp], eax

; 1494 :         return static_cast<size_type>(_My_data._Myend - _My_data._Myfirst);

  0000f	8b 45 f8	 mov	 eax, DWORD PTR __My_data$8[ebp]
  00012	8b 4d f8	 mov	 ecx, DWORD PTR __My_data$8[ebp]
  00015	8b 40 08	 mov	 eax, DWORD PTR [eax+8]
  00018	2b 01		 sub	 eax, DWORD PTR [ecx]
  0001a	c1 f8 02	 sar	 eax, 2
  0001d	89 45 fc	 mov	 DWORD PTR __Oldcapacity$[ebp], eax

; 1737 :         return _Mypair._Get_first();

  00020	8b 45 f4	 mov	 eax, DWORD PTR _this$[ebp]
; File C:\Program Files (x86)\Microsoft Visual Studio\2019\Community\VC\Tools\MSVC\14.28.29333\include\xmemory

; 1351 :         return *this;

  00023	89 45 dc	 mov	 DWORD PTR $T5[ebp], eax
; File C:\Program Files (x86)\Microsoft Visual Studio\2019\Community\VC\Tools\MSVC\14.28.29333\include\vector

; 1737 :         return _Mypair._Get_first();

  00026	8b 45 dc	 mov	 eax, DWORD PTR $T5[ebp]
  00029	89 45 cc	 mov	 DWORD PTR $T1[ebp], eax
; File C:\Program Files (x86)\Microsoft Visual Studio\2019\Community\VC\Tools\MSVC\14.28.29333\include\xmemory

; 710  :         return static_cast<size_t>(-1) / sizeof(value_type);

  0002c	c7 45 f0 ff ff
	ff 3f		 mov	 DWORD PTR $T7[ebp], 1073741823 ; 3fffffffH
; File C:\Program Files (x86)\Microsoft Visual Studio\2019\Community\VC\Tools\MSVC\14.28.29333\include\limits

; 557  :         return INT_MAX;

  00033	c7 45 d8 ff ff
	ff 7f		 mov	 DWORD PTR $T4[ebp], 2147483647 ; 7fffffffH
; File C:\Program Files (x86)\Microsoft Visual Studio\2019\Community\VC\Tools\MSVC\14.28.29333\include\vector

; 1488 :         return (_STD min)(

  0003a	8b 45 d8	 mov	 eax, DWORD PTR $T4[ebp]
  0003d	89 45 ec	 mov	 DWORD PTR $T6[ebp], eax
; File C:\Program Files (x86)\Microsoft Visual Studio\2019\Community\VC\Tools\MSVC\14.28.29333\include\utility

; 68   :     return _Right < _Left ? _Right : _Left;

  00040	8b 45 f0	 mov	 eax, DWORD PTR $T7[ebp]
  00043	3b 45 ec	 cmp	 eax, DWORD PTR $T6[ebp]
  00046	73 08		 jae	 SHORT $LN25@Calculate_
  00048	8d 45 f0	 lea	 eax, DWORD PTR $T7[ebp]
  0004b	89 45 e8	 mov	 DWORD PTR tv82[ebp], eax
  0004e	eb 06		 jmp	 SHORT $LN26@Calculate_
$LN25@Calculate_:
  00050	8d 45 ec	 lea	 eax, DWORD PTR $T6[ebp]
  00053	89 45 e8	 mov	 DWORD PTR tv82[ebp], eax
$LN26@Calculate_:
  00056	8b 45 e8	 mov	 eax, DWORD PTR tv82[ebp]
  00059	89 45 d4	 mov	 DWORD PTR $T3[ebp], eax
  0005c	8b 45 d4	 mov	 eax, DWORD PTR $T3[ebp]
  0005f	89 45 d0	 mov	 DWORD PTR $T2[ebp], eax
; File C:\Program Files (x86)\Microsoft Visual Studio\2019\Community\VC\Tools\MSVC\14.28.29333\include\vector

; 1488 :         return (_STD min)(

  00062	8b 45 d0	 mov	 eax, DWORD PTR $T2[ebp]
  00065	8b 00		 mov	 eax, DWORD PTR [eax]
  00067	89 45 e4	 mov	 DWORD PTR __Max$[ebp], eax

; 1616 :         // given _Oldcapacity and _Newsize, calculate geometric growth
; 1617 :         const size_type _Oldcapacity = capacity();
; 1618 :         const auto _Max              = max_size();
; 1619 : 
; 1620 :         if (_Oldcapacity > _Max - _Oldcapacity / 2) {

  0006a	8b 45 fc	 mov	 eax, DWORD PTR __Oldcapacity$[ebp]
  0006d	d1 e8		 shr	 eax, 1
  0006f	8b 4d e4	 mov	 ecx, DWORD PTR __Max$[ebp]
  00072	2b c8		 sub	 ecx, eax
  00074	39 4d fc	 cmp	 DWORD PTR __Oldcapacity$[ebp], ecx
  00077	76 05		 jbe	 SHORT $LN2@Calculate_

; 1621 :             return _Max; // geometric growth would overflow

  00079	8b 45 e4	 mov	 eax, DWORD PTR __Max$[ebp]
  0007c	eb 1b		 jmp	 SHORT $LN1@Calculate_
$LN2@Calculate_:

; 1622 :         }
; 1623 : 
; 1624 :         const size_type _Geometric = _Oldcapacity + _Oldcapacity / 2;

  0007e	8b 45 fc	 mov	 eax, DWORD PTR __Oldcapacity$[ebp]
  00081	d1 e8		 shr	 eax, 1
  00083	03 45 fc	 add	 eax, DWORD PTR __Oldcapacity$[ebp]
  00086	89 45 e0	 mov	 DWORD PTR __Geometric$[ebp], eax

; 1625 : 
; 1626 :         if (_Geometric < _Newsize) {

  00089	8b 45 e0	 mov	 eax, DWORD PTR __Geometric$[ebp]
  0008c	3b 45 08	 cmp	 eax, DWORD PTR __Newsize$[ebp]
  0008f	73 05		 jae	 SHORT $LN3@Calculate_

; 1627 :             return _Newsize; // geometric growth would be insufficient

  00091	8b 45 08	 mov	 eax, DWORD PTR __Newsize$[ebp]
  00094	eb 03		 jmp	 SHORT $LN1@Calculate_
$LN3@Calculate_:

; 1628 :         }
; 1629 : 
; 1630 :         return _Geometric; // geometric growth is sufficient

  00096	8b 45 e0	 mov	 eax, DWORD PTR __Geometric$[ebp]
$LN1@Calculate_:

; 1631 :     }

  00099	c9		 leave
  0009a	c2 04 00	 ret	 4
?_Calculate_growth@?$vector@PAVCWeaponTrace@@V?$allocator@PAVCWeaponTrace@@@std@@@std@@ABEII@Z ENDP ; std::vector<CWeaponTrace *,std::allocator<CWeaponTrace *> >::_Calculate_growth
_TEXT	ENDS
; Function compile flags: /Odspy
; File C:\Program Files (x86)\Microsoft Visual Studio\2019\Community\VC\Tools\MSVC\14.28.29333\include\vector
; File C:\Program Files (x86)\Microsoft Visual Studio\2019\Community\VC\Tools\MSVC\14.28.29333\include\xmemory
; File C:\Program Files (x86)\Microsoft Visual Studio\2019\Community\VC\Tools\MSVC\14.28.29333\include\vector
;	COMDAT ?_Destroy@?$vector@PAVCWeaponTrace@@V?$allocator@PAVCWeaponTrace@@@std@@@std@@AAEXPAPAVCWeaponTrace@@0@Z
_TEXT	SEGMENT
$T1 = -12						; size = 4
$T2 = -8						; size = 4
_this$ = -4						; size = 4
__First$ = 8						; size = 4
__Last$ = 12						; size = 4
?_Destroy@?$vector@PAVCWeaponTrace@@V?$allocator@PAVCWeaponTrace@@@std@@@std@@AAEXPAPAVCWeaponTrace@@0@Z PROC ; std::vector<CWeaponTrace *,std::allocator<CWeaponTrace *> >::_Destroy, COMDAT
; _this$ = ecx

; 1611 :     void _Destroy(pointer _First, pointer _Last) { // destroy [_First, _Last) using allocator

  00000	55		 push	 ebp
  00001	8b ec		 mov	 ebp, esp
  00003	83 ec 0c	 sub	 esp, 12			; 0000000cH
  00006	89 4d fc	 mov	 DWORD PTR _this$[ebp], ecx

; 1733 :         return _Mypair._Get_first();

  00009	8b 45 fc	 mov	 eax, DWORD PTR _this$[ebp]
; File C:\Program Files (x86)\Microsoft Visual Studio\2019\Community\VC\Tools\MSVC\14.28.29333\include\xmemory

; 1347 :         return *this;

  0000c	89 45 f8	 mov	 DWORD PTR $T2[ebp], eax
; File C:\Program Files (x86)\Microsoft Visual Studio\2019\Community\VC\Tools\MSVC\14.28.29333\include\vector

; 1733 :         return _Mypair._Get_first();

  0000f	8b 45 f8	 mov	 eax, DWORD PTR $T2[ebp]
  00012	89 45 f4	 mov	 DWORD PTR $T1[ebp], eax

; 1612 :         _Destroy_range(_First, _Last, _Getal());

  00015	ff 75 f4	 push	 DWORD PTR $T1[ebp]
  00018	ff 75 0c	 push	 DWORD PTR __Last$[ebp]
  0001b	ff 75 08	 push	 DWORD PTR __First$[ebp]
  0001e	e8 00 00 00 00	 call	 ??$_Destroy_range@V?$allocator@PAVCWeaponTrace@@@std@@@std@@YAXPAPAVCWeaponTrace@@QAPAV1@AAV?$allocator@PAVCWeaponTrace@@@0@@Z ; std::_Destroy_range<std::allocator<CWeaponTrace *> >
  00023	83 c4 0c	 add	 esp, 12			; 0000000cH

; 1613 :     }

  00026	c9		 leave
  00027	c2 08 00	 ret	 8
?_Destroy@?$vector@PAVCWeaponTrace@@V?$allocator@PAVCWeaponTrace@@@std@@@std@@AAEXPAPAVCWeaponTrace@@0@Z ENDP ; std::vector<CWeaponTrace *,std::allocator<CWeaponTrace *> >::_Destroy
_TEXT	ENDS
; Function compile flags: /Odspy
; File C:\Program Files (x86)\Microsoft Visual Studio\2019\Community\VC\Tools\MSVC\14.28.29333\include\vector
; File C:\Program Files (x86)\Microsoft Visual Studio\2019\Community\VC\Tools\MSVC\14.28.29333\include\xmemory
; File C:\Program Files (x86)\Microsoft Visual Studio\2019\Community\VC\Tools\MSVC\14.28.29333\include\vector
;	COMDAT ?clear@?$vector@PAVCWeaponTrace@@V?$allocator@PAVCWeaponTrace@@@std@@@std@@QAEXXZ
_TEXT	SEGMENT
__First$ = -32						; size = 4
__Last$ = -28						; size = 4
$T1 = -24						; size = 4
$T2 = -20						; size = 4
__Myfirst$ = -16					; size = 4
__Mylast$ = -12						; size = 4
_this$ = -8						; size = 4
__My_data$ = -4						; size = 4
?clear@?$vector@PAVCWeaponTrace@@V?$allocator@PAVCWeaponTrace@@@std@@@std@@QAEXXZ PROC ; std::vector<CWeaponTrace *,std::allocator<CWeaponTrace *> >::clear, COMDAT
; _this$ = ecx

; 1383 :     void clear() noexcept { // erase all

  00000	55		 push	 ebp
  00001	8b ec		 mov	 ebp, esp
  00003	83 ec 20	 sub	 esp, 32			; 00000020H
  00006	89 4d f8	 mov	 DWORD PTR _this$[ebp], ecx

; 1384 :         auto& _My_data    = _Mypair._Myval2;

  00009	8b 45 f8	 mov	 eax, DWORD PTR _this$[ebp]
  0000c	89 45 fc	 mov	 DWORD PTR __My_data$[ebp], eax

; 1385 :         pointer& _Myfirst = _My_data._Myfirst;

  0000f	8b 45 fc	 mov	 eax, DWORD PTR __My_data$[ebp]
  00012	89 45 f0	 mov	 DWORD PTR __Myfirst$[ebp], eax

; 1386 :         pointer& _Mylast  = _My_data._Mylast;

  00015	8b 45 fc	 mov	 eax, DWORD PTR __My_data$[ebp]
  00018	83 c0 04	 add	 eax, 4
  0001b	89 45 f4	 mov	 DWORD PTR __Mylast$[ebp], eax

; 1387 : 
; 1388 :         _My_data._Orphan_all();
; 1389 :         _Destroy(_Myfirst, _Mylast);

  0001e	8b 45 f4	 mov	 eax, DWORD PTR __Mylast$[ebp]
  00021	8b 00		 mov	 eax, DWORD PTR [eax]
  00023	89 45 e4	 mov	 DWORD PTR __Last$[ebp], eax
  00026	8b 45 f0	 mov	 eax, DWORD PTR __Myfirst$[ebp]
  00029	8b 00		 mov	 eax, DWORD PTR [eax]
  0002b	89 45 e0	 mov	 DWORD PTR __First$[ebp], eax

; 1733 :         return _Mypair._Get_first();

  0002e	8b 45 f8	 mov	 eax, DWORD PTR _this$[ebp]
; File C:\Program Files (x86)\Microsoft Visual Studio\2019\Community\VC\Tools\MSVC\14.28.29333\include\xmemory

; 1347 :         return *this;

  00031	89 45 ec	 mov	 DWORD PTR $T2[ebp], eax
; File C:\Program Files (x86)\Microsoft Visual Studio\2019\Community\VC\Tools\MSVC\14.28.29333\include\vector

; 1733 :         return _Mypair._Get_first();

  00034	8b 45 ec	 mov	 eax, DWORD PTR $T2[ebp]
  00037	89 45 e8	 mov	 DWORD PTR $T1[ebp], eax

; 1612 :         _Destroy_range(_First, _Last, _Getal());

  0003a	ff 75 e8	 push	 DWORD PTR $T1[ebp]
  0003d	ff 75 e4	 push	 DWORD PTR __Last$[ebp]
  00040	ff 75 e0	 push	 DWORD PTR __First$[ebp]
  00043	e8 00 00 00 00	 call	 ??$_Destroy_range@V?$allocator@PAVCWeaponTrace@@@std@@@std@@YAXPAPAVCWeaponTrace@@QAPAV1@AAV?$allocator@PAVCWeaponTrace@@@0@@Z ; std::_Destroy_range<std::allocator<CWeaponTrace *> >
  00048	83 c4 0c	 add	 esp, 12			; 0000000cH

; 1390 :         _Mylast = _Myfirst;

  0004b	8b 45 f4	 mov	 eax, DWORD PTR __Mylast$[ebp]
  0004e	8b 4d f0	 mov	 ecx, DWORD PTR __Myfirst$[ebp]
  00051	8b 09		 mov	 ecx, DWORD PTR [ecx]
  00053	89 08		 mov	 DWORD PTR [eax], ecx

; 1391 :     }

  00055	c9		 leave
  00056	c3		 ret	 0
?clear@?$vector@PAVCWeaponTrace@@V?$allocator@PAVCWeaponTrace@@@std@@@std@@QAEXXZ ENDP ; std::vector<CWeaponTrace *,std::allocator<CWeaponTrace *> >::clear
_TEXT	ENDS
; Function compile flags: /Odspy
; File C:\Program Files (x86)\Microsoft Visual Studio\2019\Community\VC\Tools\MSVC\14.28.29333\include\xmemory
;	COMDAT ?deallocate@?$allocator@PAVCWeaponTrace@@@std@@QAEXQAPAVCWeaponTrace@@I@Z
_TEXT	SEGMENT
_this$ = -4						; size = 4
__Ptr$ = 8						; size = 4
__Count$ = 12						; size = 4
?deallocate@?$allocator@PAVCWeaponTrace@@@std@@QAEXQAPAVCWeaponTrace@@I@Z PROC ; std::allocator<CWeaponTrace *>::deallocate, COMDAT
; _this$ = ecx

; 808  :     void deallocate(_Ty* const _Ptr, const size_t _Count) {

  00000	55		 push	 ebp
  00001	8b ec		 mov	 ebp, esp
  00003	51		 push	 ecx
  00004	89 4d fc	 mov	 DWORD PTR _this$[ebp], ecx

; 809  :         // no overflow check on the following multiply; we assume _Allocate did that check
; 810  :         _Deallocate<_New_alignof<_Ty>>(_Ptr, sizeof(_Ty) * _Count);

  00007	8b 45 0c	 mov	 eax, DWORD PTR __Count$[ebp]
  0000a	c1 e0 02	 shl	 eax, 2
  0000d	50		 push	 eax
  0000e	ff 75 08	 push	 DWORD PTR __Ptr$[ebp]
  00011	e8 00 00 00 00	 call	 ??$_Deallocate@$07$0A@@std@@YAXPAXI@Z ; std::_Deallocate<8,0>
  00016	59		 pop	 ecx
  00017	59		 pop	 ecx

; 811  :     }

  00018	c9		 leave
  00019	c2 08 00	 ret	 8
?deallocate@?$allocator@PAVCWeaponTrace@@@std@@QAEXQAPAVCWeaponTrace@@I@Z ENDP ; std::allocator<CWeaponTrace *>::deallocate
_TEXT	ENDS
; Function compile flags: /Odspy
; File D:\Metin2 Server Files\mainline\SRC_2014\Metin2Client\eterLib\Pool.h
;	COMDAT ?Delete@?$CDynamicPool@VCWeaponTrace@@@@KAXPAVCWeaponTrace@@@Z
_TEXT	SEGMENT
tv70 = -8						; size = 4
$T1 = -4						; size = 4
_pkData$ = 8						; size = 4
?Delete@?$CDynamicPool@VCWeaponTrace@@@@KAXPAVCWeaponTrace@@@Z PROC ; CDynamicPool<CWeaponTrace>::Delete, COMDAT

; 109  : 		{

  00000	55		 push	 ebp
  00001	8b ec		 mov	 ebp, esp
  00003	51		 push	 ecx
  00004	51		 push	 ecx

; 110  : 			delete pkData;

  00005	8b 45 08	 mov	 eax, DWORD PTR _pkData$[ebp]
  00008	89 45 fc	 mov	 DWORD PTR $T1[ebp], eax
  0000b	83 7d fc 00	 cmp	 DWORD PTR $T1[ebp], 0
  0000f	74 11		 je	 SHORT $LN3@Delete
  00011	6a 01		 push	 1
  00013	8b 45 fc	 mov	 eax, DWORD PTR $T1[ebp]
  00016	8b 00		 mov	 eax, DWORD PTR [eax]
  00018	8b 4d fc	 mov	 ecx, DWORD PTR $T1[ebp]
  0001b	ff 10		 call	 DWORD PTR [eax]
  0001d	89 45 f8	 mov	 DWORD PTR tv70[ebp], eax
  00020	eb 04		 jmp	 SHORT $LN1@Delete
$LN3@Delete:
  00022	83 65 f8 00	 and	 DWORD PTR tv70[ebp], 0
$LN1@Delete:

; 111  : 		}

  00026	c9		 leave
  00027	c3		 ret	 0
?Delete@?$CDynamicPool@VCWeaponTrace@@@@KAXPAVCWeaponTrace@@@Z ENDP ; CDynamicPool<CWeaponTrace>::Delete
_TEXT	ENDS
; Function compile flags: /Odspy
; File D:\Metin2 Server Files\mainline\SRC_2014\Metin2Client\eterLib\Pool.h
; File C:\Program Files (x86)\Microsoft Visual Studio\2019\Community\VC\Tools\MSVC\14.28.29333\include\vector
; File D:\Metin2 Server Files\mainline\SRC_2014\Metin2Client\eterLib\Pool.h
; File C:\Program Files (x86)\Microsoft Visual Studio\2019\Community\VC\Tools\MSVC\14.28.29333\include\vector
; File D:\Metin2 Server Files\mainline\SRC_2014\Metin2Client\eterLib\Pool.h
; File C:\Program Files (x86)\Microsoft Visual Studio\2019\Community\VC\Tools\MSVC\14.28.29333\include\vector
; File D:\Metin2 Server Files\mainline\SRC_2014\Metin2Client\eterLib\Pool.h
; File C:\Program Files (x86)\Microsoft Visual Studio\2019\Community\VC\Tools\MSVC\14.28.29333\include\vector
; File D:\Metin2 Server Files\mainline\SRC_2014\Metin2Client\eterLib\Pool.h
; File C:\Program Files (x86)\Microsoft Visual Studio\2019\Community\VC\Tools\MSVC\14.28.29333\include\vector
; File C:\Program Files (x86)\Microsoft Visual Studio\2019\Community\VC\Tools\MSVC\14.28.29333\include\xstddef
; File C:\Program Files (x86)\Microsoft Visual Studio\2019\Community\VC\Tools\MSVC\14.28.29333\include\vector
; File C:\Program Files (x86)\Microsoft Visual Studio\2019\Community\VC\Tools\MSVC\14.28.29333\include\xmemory
; File C:\Program Files (x86)\Microsoft Visual Studio\2019\Community\VC\Tools\MSVC\14.28.29333\include\vector
; File D:\Metin2 Server Files\mainline\SRC_2014\Metin2Client\eterLib\Pool.h
;	COMDAT ?Alloc@?$CDynamicPool@VCWeaponTrace@@@@QAEPAVCWeaponTrace@@XZ
_TEXT	SEGMENT
$T2 = -84						; size = 4
$T3 = -80						; size = 4
_pkFreeData$ = -76					; size = 4
$T4 = -72						; size = 4
__Ptr$ = -68						; size = 4
__My_data$5 = -64					; size = 4
$T6 = -60						; size = 4
__My_data$7 = -56					; size = 4
$T8 = -52						; size = 4
_this$ = -48						; size = 4
_pkNewData$9 = -44					; size = 4
tv80 = -40						; size = 4
$T10 = -36						; size = 4
tv130 = -32						; size = 4
__My_data$11 = -28					; size = 4
__Mylast$12 = -24					; size = 4
_this$ = -20						; size = 4
$T13 = -13						; size = 1
__$EHRec$ = -12						; size = 12
?Alloc@?$CDynamicPool@VCWeaponTrace@@@@QAEPAVCWeaponTrace@@XZ PROC ; CDynamicPool<CWeaponTrace>::Alloc, COMDAT
; _this$ = ecx

; 62   : 		{

  00000	55		 push	 ebp
  00001	8b ec		 mov	 ebp, esp
  00003	6a ff		 push	 -1
  00005	68 00 00 00 00	 push	 __ehhandler$?Alloc@?$CDynamicPool@VCWeaponTrace@@@@QAEPAVCWeaponTrace@@XZ
  0000a	64 a1 00 00 00
	00		 mov	 eax, DWORD PTR fs:0
  00010	50		 push	 eax
  00011	83 ec 48	 sub	 esp, 72			; 00000048H
  00014	a1 00 00 00 00	 mov	 eax, DWORD PTR ___security_cookie
  00019	33 c5		 xor	 eax, ebp
  0001b	50		 push	 eax
  0001c	8d 45 f4	 lea	 eax, DWORD PTR __$EHRec$[ebp]
  0001f	64 a3 00 00 00
	00		 mov	 DWORD PTR fs:0, eax
  00025	89 4d ec	 mov	 DWORD PTR _this$[ebp], ecx
; File C:\Program Files (x86)\Microsoft Visual Studio\2019\Community\VC\Tools\MSVC\14.28.29333\include\vector

; 1478 :         auto& _My_data = _Mypair._Myval2;

  00028	8b 45 ec	 mov	 eax, DWORD PTR _this$[ebp]
  0002b	83 c0 10	 add	 eax, 16			; 00000010H
  0002e	89 45 e4	 mov	 DWORD PTR __My_data$11[ebp], eax

; 1479 :         return _My_data._Myfirst == _My_data._Mylast;

  00031	8b 45 e4	 mov	 eax, DWORD PTR __My_data$11[ebp]
  00034	8b 4d e4	 mov	 ecx, DWORD PTR __My_data$11[ebp]
  00037	8b 00		 mov	 eax, DWORD PTR [eax]
  00039	3b 41 04	 cmp	 eax, DWORD PTR [ecx+4]
  0003c	75 09		 jne	 SHORT $LN9@Alloc
  0003e	c7 45 e0 01 00
	00 00		 mov	 DWORD PTR tv130[ebp], 1
  00045	eb 04		 jmp	 SHORT $LN10@Alloc
$LN9@Alloc:
  00047	83 65 e0 00	 and	 DWORD PTR tv130[ebp], 0
$LN10@Alloc:
  0004b	8a 45 e0	 mov	 al, BYTE PTR tv130[ebp]
  0004e	88 45 f3	 mov	 BYTE PTR $T13[ebp], al
; File D:\Metin2 Server Files\mainline\SRC_2014\Metin2Client\eterLib\Pool.h

; 63   : 			if (m_kVct_pkFree.empty())

  00051	0f b6 45 f3	 movzx	 eax, BYTE PTR $T13[ebp]
  00055	85 c0		 test	 eax, eax
  00057	74 5a		 je	 SHORT $LN2@Alloc

; 64   : 			{
; 65   : 				T* pkNewData=new T;

  00059	68 8c 00 00 00	 push	 140			; 0000008cH
  0005e	e8 00 00 00 00	 call	 ??2@YAPAXI@Z		; operator new
  00063	59		 pop	 ecx
  00064	89 45 dc	 mov	 DWORD PTR $T10[ebp], eax
  00067	83 65 fc 00	 and	 DWORD PTR __$EHRec$[ebp+8], 0
  0006b	83 7d dc 00	 cmp	 DWORD PTR $T10[ebp], 0
  0006f	74 0d		 je	 SHORT $LN4@Alloc
  00071	8b 4d dc	 mov	 ecx, DWORD PTR $T10[ebp]
  00074	e8 00 00 00 00	 call	 ??0CWeaponTrace@@QAE@XZ	; CWeaponTrace::CWeaponTrace
  00079	89 45 d8	 mov	 DWORD PTR tv80[ebp], eax
  0007c	eb 04		 jmp	 SHORT $LN5@Alloc
$LN4@Alloc:
  0007e	83 65 d8 00	 and	 DWORD PTR tv80[ebp], 0
$LN5@Alloc:
  00082	8b 45 d8	 mov	 eax, DWORD PTR tv80[ebp]
  00085	89 45 cc	 mov	 DWORD PTR $T8[ebp], eax
  00088	83 4d fc ff	 or	 DWORD PTR __$EHRec$[ebp+8], -1
  0008c	8b 45 cc	 mov	 eax, DWORD PTR $T8[ebp]
  0008f	89 45 d4	 mov	 DWORD PTR _pkNewData$9[ebp], eax
; File C:\Program Files (x86)\Microsoft Visual Studio\2019\Community\VC\Tools\MSVC\14.28.29333\include\vector

; 717  :         emplace_back(_Val);

  00092	8d 45 d4	 lea	 eax, DWORD PTR _pkNewData$9[ebp]
  00095	50		 push	 eax
; File D:\Metin2 Server Files\mainline\SRC_2014\Metin2Client\eterLib\Pool.h

; 66   : 				m_kVct_pkData.push_back(pkNewData);

  00096	8b 4d ec	 mov	 ecx, DWORD PTR _this$[ebp]
  00099	83 c1 04	 add	 ecx, 4
; File C:\Program Files (x86)\Microsoft Visual Studio\2019\Community\VC\Tools\MSVC\14.28.29333\include\vector

; 717  :         emplace_back(_Val);

  0009c	e8 00 00 00 00	 call	 ??$emplace_back@ABQAVCWeaponTrace@@@?$vector@PAVCWeaponTrace@@V?$allocator@PAVCWeaponTrace@@@std@@@std@@QAEXABQAVCWeaponTrace@@@Z ; std::vector<CWeaponTrace *,std::allocator<CWeaponTrace *> >::emplace_back<CWeaponTrace * const &>
; File D:\Metin2 Server Files\mainline\SRC_2014\Metin2Client\eterLib\Pool.h

; 67   : 				++m_uUsedCapacity;

  000a1	8b 45 ec	 mov	 eax, DWORD PTR _this$[ebp]
  000a4	8b 40 20	 mov	 eax, DWORD PTR [eax+32]
  000a7	40		 inc	 eax
  000a8	8b 4d ec	 mov	 ecx, DWORD PTR _this$[ebp]
  000ab	89 41 20	 mov	 DWORD PTR [ecx+32], eax

; 68   : 				return pkNewData;

  000ae	8b 45 d4	 mov	 eax, DWORD PTR _pkNewData$9[ebp]
  000b1	eb 65		 jmp	 SHORT $LN1@Alloc
$LN2@Alloc:
; File C:\Program Files (x86)\Microsoft Visual Studio\2019\Community\VC\Tools\MSVC\14.28.29333\include\vector

; 1554 :         auto& _My_data = _Mypair._Myval2;

  000b3	8b 45 ec	 mov	 eax, DWORD PTR _this$[ebp]
  000b6	83 c0 10	 add	 eax, 16			; 00000010H
  000b9	89 45 c8	 mov	 DWORD PTR __My_data$7[ebp], eax

; 1555 : #if _CONTAINER_DEBUG_LEVEL > 0
; 1556 :         _STL_VERIFY(_My_data._Myfirst != _My_data._Mylast, "back() called on empty vector");
; 1557 : #endif // _CONTAINER_DEBUG_LEVEL > 0
; 1558 : 
; 1559 :         return _My_data._Mylast[-1];

  000bc	6a 04		 push	 4
  000be	58		 pop	 eax
  000bf	6b c0 ff	 imul	 eax, eax, -1
  000c2	8b 4d c8	 mov	 ecx, DWORD PTR __My_data$7[ebp]
  000c5	03 41 04	 add	 eax, DWORD PTR [ecx+4]
  000c8	89 45 c4	 mov	 DWORD PTR $T6[ebp], eax
; File D:\Metin2 Server Files\mainline\SRC_2014\Metin2Client\eterLib\Pool.h

; 71   : 			T* pkFreeData=m_kVct_pkFree.back();

  000cb	8b 45 c4	 mov	 eax, DWORD PTR $T6[ebp]
  000ce	8b 00		 mov	 eax, DWORD PTR [eax]
  000d0	89 45 b4	 mov	 DWORD PTR _pkFreeData$[ebp], eax

; 72   : 			m_kVct_pkFree.pop_back();

  000d3	8b 45 ec	 mov	 eax, DWORD PTR _this$[ebp]
  000d6	83 c0 10	 add	 eax, 16			; 00000010H
  000d9	89 45 d0	 mov	 DWORD PTR _this$[ebp], eax
; File C:\Program Files (x86)\Microsoft Visual Studio\2019\Community\VC\Tools\MSVC\14.28.29333\include\vector

; 1329 :         auto& _My_data   = _Mypair._Myval2;

  000dc	8b 45 d0	 mov	 eax, DWORD PTR _this$[ebp]
  000df	89 45 c0	 mov	 DWORD PTR __My_data$5[ebp], eax

; 1330 :         pointer& _Mylast = _My_data._Mylast;

  000e2	8b 45 c0	 mov	 eax, DWORD PTR __My_data$5[ebp]
  000e5	83 c0 04	 add	 eax, 4
  000e8	89 45 e8	 mov	 DWORD PTR __Mylast$12[ebp], eax

; 1331 : 
; 1332 : #if _ITERATOR_DEBUG_LEVEL == 2
; 1333 :         _STL_VERIFY(_My_data._Myfirst != _Mylast, "vector empty before pop");
; 1334 :         _Orphan_range(_Mylast - 1, _Mylast);
; 1335 : #endif // _ITERATOR_DEBUG_LEVEL == 2
; 1336 : 
; 1337 :         _Alty_traits::destroy(_Getal(), _Unfancy(_Mylast - 1));

  000eb	8b 45 e8	 mov	 eax, DWORD PTR __Mylast$12[ebp]
  000ee	8b 00		 mov	 eax, DWORD PTR [eax]
  000f0	83 e8 04	 sub	 eax, 4
  000f3	89 45 bc	 mov	 DWORD PTR __Ptr$[ebp], eax
; File C:\Program Files (x86)\Microsoft Visual Studio\2019\Community\VC\Tools\MSVC\14.28.29333\include\xstddef

; 289  :     return _Ptr;

  000f6	8b 45 bc	 mov	 eax, DWORD PTR __Ptr$[ebp]
  000f9	89 45 b0	 mov	 DWORD PTR $T3[ebp], eax
; File C:\Program Files (x86)\Microsoft Visual Studio\2019\Community\VC\Tools\MSVC\14.28.29333\include\vector

; 1733 :         return _Mypair._Get_first();

  000fc	8b 45 d0	 mov	 eax, DWORD PTR _this$[ebp]
; File C:\Program Files (x86)\Microsoft Visual Studio\2019\Community\VC\Tools\MSVC\14.28.29333\include\xmemory

; 1347 :         return *this;

  000ff	89 45 b8	 mov	 DWORD PTR $T4[ebp], eax
; File C:\Program Files (x86)\Microsoft Visual Studio\2019\Community\VC\Tools\MSVC\14.28.29333\include\vector

; 1733 :         return _Mypair._Get_first();

  00102	8b 45 b8	 mov	 eax, DWORD PTR $T4[ebp]
  00105	89 45 ac	 mov	 DWORD PTR $T2[ebp], eax

; 1338 :         --_Mylast;

  00108	8b 45 e8	 mov	 eax, DWORD PTR __Mylast$12[ebp]
  0010b	8b 00		 mov	 eax, DWORD PTR [eax]
  0010d	83 e8 04	 sub	 eax, 4
  00110	8b 4d e8	 mov	 ecx, DWORD PTR __Mylast$12[ebp]
  00113	89 01		 mov	 DWORD PTR [ecx], eax
; File D:\Metin2 Server Files\mainline\SRC_2014\Metin2Client\eterLib\Pool.h

; 73   : 			return pkFreeData;

  00115	8b 45 b4	 mov	 eax, DWORD PTR _pkFreeData$[ebp]
$LN1@Alloc:

; 74   : 		}

  00118	8b 4d f4	 mov	 ecx, DWORD PTR __$EHRec$[ebp]
  0011b	64 89 0d 00 00
	00 00		 mov	 DWORD PTR fs:0, ecx
  00122	59		 pop	 ecx
  00123	c9		 leave
  00124	c3		 ret	 0
_TEXT	ENDS
;	COMDAT text$x
text$x	SEGMENT
__unwindfunclet$?Alloc@?$CDynamicPool@VCWeaponTrace@@@@QAEPAVCWeaponTrace@@XZ$0:
  00000	68 8c 00 00 00	 push	 140			; 0000008cH
  00005	ff 75 dc	 push	 DWORD PTR $T10[ebp]
  00008	e8 00 00 00 00	 call	 ??3@YAXPAXI@Z		; operator delete
  0000d	59		 pop	 ecx
  0000e	59		 pop	 ecx
  0000f	c3		 ret	 0
  00010	cc		 int	 3
  00011	cc		 int	 3
  00012	cc		 int	 3
  00013	cc		 int	 3
  00014	cc		 int	 3
__ehhandler$?Alloc@?$CDynamicPool@VCWeaponTrace@@@@QAEPAVCWeaponTrace@@XZ:
  00015	90		 npad	 1
  00016	90		 npad	 1
  00017	8b 54 24 08	 mov	 edx, DWORD PTR [esp+8]
  0001b	8d 42 0c	 lea	 eax, DWORD PTR [edx+12]
  0001e	8b 4a b4	 mov	 ecx, DWORD PTR [edx-76]
  00021	33 c8		 xor	 ecx, eax
  00023	e8 00 00 00 00	 call	 @__security_check_cookie@4
  00028	b8 00 00 00 00	 mov	 eax, OFFSET __ehfuncinfo$?Alloc@?$CDynamicPool@VCWeaponTrace@@@@QAEPAVCWeaponTrace@@XZ
  0002d	e9 00 00 00 00	 jmp	 ___CxxFrameHandler3
text$x	ENDS
?Alloc@?$CDynamicPool@VCWeaponTrace@@@@QAEPAVCWeaponTrace@@XZ ENDP ; CDynamicPool<CWeaponTrace>::Alloc
; Function compile flags: /Odspy
; File D:\Metin2 Server Files\mainline\SRC_2014\Metin2Client\eterLib\Pool.h
; File C:\Program Files (x86)\Microsoft Visual Studio\2019\Community\VC\Tools\MSVC\14.28.29333\include\vector
; File C:\Program Files (x86)\Microsoft Visual Studio\2019\Community\VC\Tools\MSVC\14.28.29333\include\xstddef
; File C:\Program Files (x86)\Microsoft Visual Studio\2019\Community\VC\Tools\MSVC\14.28.29333\include\vector
; File C:\Program Files (x86)\Microsoft Visual Studio\2019\Community\VC\Tools\MSVC\14.28.29333\include\xstddef
; File C:\Program Files (x86)\Microsoft Visual Studio\2019\Community\VC\Tools\MSVC\14.28.29333\include\vector
; File D:\Metin2 Server Files\mainline\SRC_2014\Metin2Client\eterLib\Pool.h
;	COMDAT ?Destroy@?$CDynamicPool@VCWeaponTrace@@@@QAEXXZ
_TEXT	SEGMENT
$T1 = -44						; size = 4
$T2 = -40						; size = 4
$T3 = -36						; size = 4
$T4 = -32						; size = 4
$T5 = -28						; size = 4
___param0$ = -24					; size = 4
$T6 = -20						; size = 4
___param0$ = -16					; size = 4
__My_data$7 = -12					; size = 4
__My_data$8 = -8					; size = 4
_this$ = -4						; size = 4
?Destroy@?$CDynamicPool@VCWeaponTrace@@@@QAEXXZ PROC	; CDynamicPool<CWeaponTrace>::Destroy, COMDAT
; _this$ = ecx

; 38   : 		{

  00000	55		 push	 ebp
  00001	8b ec		 mov	 ebp, esp
  00003	83 ec 2c	 sub	 esp, 44			; 0000002cH
  00006	89 4d fc	 mov	 DWORD PTR _this$[ebp], ecx
; File C:\Program Files (x86)\Microsoft Visual Studio\2019\Community\VC\Tools\MSVC\14.28.29333\include\vector

; 1420 :         auto& _My_data = _Mypair._Myval2;

  00009	8b 45 fc	 mov	 eax, DWORD PTR _this$[ebp]
  0000c	83 c0 04	 add	 eax, 4
  0000f	89 45 f8	 mov	 DWORD PTR __My_data$8[ebp], eax
; File C:\Program Files (x86)\Microsoft Visual Studio\2019\Community\VC\Tools\MSVC\14.28.29333\include\xstddef

; 275  :     return __builtin_addressof(_Val);

  00012	8b 45 f8	 mov	 eax, DWORD PTR __My_data$8[ebp]
  00015	89 45 d8	 mov	 DWORD PTR $T2[ebp], eax
; File C:\Program Files (x86)\Microsoft Visual Studio\2019\Community\VC\Tools\MSVC\14.28.29333\include\vector

; 1421 :         return iterator(_My_data._Mylast, _STD addressof(_My_data));

  00018	8b 45 f8	 mov	 eax, DWORD PTR __My_data$8[ebp]
  0001b	8b 40 04	 mov	 eax, DWORD PTR [eax+4]
  0001e	89 45 f0	 mov	 DWORD PTR ___param0$[ebp], eax

; 42   :     _Vector_const_iterator(_Tptr _Parg, const _Container_base* _Pvector) noexcept : _Ptr(_Parg) {

  00021	8b 45 f0	 mov	 eax, DWORD PTR ___param0$[ebp]
  00024	89 45 ec	 mov	 DWORD PTR $T6[ebp], eax

; 1421 :         return iterator(_My_data._Mylast, _STD addressof(_My_data));

  00027	8d 45 ec	 lea	 eax, DWORD PTR $T6[ebp]
  0002a	89 45 e0	 mov	 DWORD PTR $T4[ebp], eax

; 1410 :         auto& _My_data = _Mypair._Myval2;

  0002d	8b 45 fc	 mov	 eax, DWORD PTR _this$[ebp]
  00030	83 c0 04	 add	 eax, 4
  00033	89 45 f4	 mov	 DWORD PTR __My_data$7[ebp], eax
; File C:\Program Files (x86)\Microsoft Visual Studio\2019\Community\VC\Tools\MSVC\14.28.29333\include\xstddef

; 275  :     return __builtin_addressof(_Val);

  00036	8b 45 f4	 mov	 eax, DWORD PTR __My_data$7[ebp]
  00039	89 45 d4	 mov	 DWORD PTR $T1[ebp], eax
; File C:\Program Files (x86)\Microsoft Visual Studio\2019\Community\VC\Tools\MSVC\14.28.29333\include\vector

; 1411 :         return iterator(_My_data._Myfirst, _STD addressof(_My_data));

  0003c	8b 45 f4	 mov	 eax, DWORD PTR __My_data$7[ebp]
  0003f	8b 00		 mov	 eax, DWORD PTR [eax]
  00041	89 45 e8	 mov	 DWORD PTR ___param0$[ebp], eax

; 42   :     _Vector_const_iterator(_Tptr _Parg, const _Container_base* _Pvector) noexcept : _Ptr(_Parg) {

  00044	8b 45 e8	 mov	 eax, DWORD PTR ___param0$[ebp]
  00047	89 45 e4	 mov	 DWORD PTR $T5[ebp], eax

; 1411 :         return iterator(_My_data._Myfirst, _STD addressof(_My_data));

  0004a	8d 45 e4	 lea	 eax, DWORD PTR $T5[ebp]
  0004d	89 45 dc	 mov	 DWORD PTR $T3[ebp], eax
; File D:\Metin2 Server Files\mainline\SRC_2014\Metin2Client\eterLib\Pool.h

; 50   : 			std::for_each(m_kVct_pkData.begin(), m_kVct_pkData.end(), Delete);

  00050	68 00 00 00 00	 push	 OFFSET ?Delete@?$CDynamicPool@VCWeaponTrace@@@@KAXPAVCWeaponTrace@@@Z ; CDynamicPool<CWeaponTrace>::Delete
  00055	8b 45 e0	 mov	 eax, DWORD PTR $T4[ebp]
  00058	ff 30		 push	 DWORD PTR [eax]
  0005a	8b 45 dc	 mov	 eax, DWORD PTR $T3[ebp]
  0005d	ff 30		 push	 DWORD PTR [eax]
  0005f	e8 00 00 00 00	 call	 ??$for_each@V?$_Vector_iterator@V?$_Vector_val@U?$_Simple_types@PAVCWeaponTrace@@@std@@@std@@@std@@P6AXPAVCWeaponTrace@@@Z@std@@YAP6AXPAVCWeaponTrace@@@ZV?$_Vector_iterator@V?$_Vector_val@U?$_Simple_types@PAVCWeaponTrace@@@std@@@std@@@0@1P6AX0@Z@Z ; std::for_each<std::_Vector_iterator<std::_Vector_val<std::_Simple_types<CWeaponTrace *> > >,void (__cdecl*)(CWeaponTrace *)>
  00064	83 c4 0c	 add	 esp, 12			; 0000000cH

; 51   : 			m_kVct_pkData.clear();

  00067	8b 4d fc	 mov	 ecx, DWORD PTR _this$[ebp]
  0006a	83 c1 04	 add	 ecx, 4
  0006d	e8 00 00 00 00	 call	 ?clear@?$vector@PAVCWeaponTrace@@V?$allocator@PAVCWeaponTrace@@@std@@@std@@QAEXXZ ; std::vector<CWeaponTrace *,std::allocator<CWeaponTrace *> >::clear

; 52   : 			m_kVct_pkFree.clear();

  00072	8b 4d fc	 mov	 ecx, DWORD PTR _this$[ebp]
  00075	83 c1 10	 add	 ecx, 16			; 00000010H
  00078	e8 00 00 00 00	 call	 ?clear@?$vector@PAVCWeaponTrace@@V?$allocator@PAVCWeaponTrace@@@std@@@std@@QAEXXZ ; std::vector<CWeaponTrace *,std::allocator<CWeaponTrace *> >::clear

; 53   : 		}

  0007d	c9		 leave
  0007e	c3		 ret	 0
?Destroy@?$CDynamicPool@VCWeaponTrace@@@@QAEXXZ ENDP	; CDynamicPool<CWeaponTrace>::Destroy
_TEXT	ENDS
; Function compile flags: /Odspy
; File D:\Metin2 Server Files\mainline\SRC_2014\Metin2Client\eterLib\Pool.h
; File C:\Program Files (x86)\Microsoft Visual Studio\2019\Community\VC\Tools\MSVC\14.28.29333\include\vector
; File D:\Metin2 Server Files\mainline\SRC_2014\Metin2Client\eterLib\Pool.h
; File C:\Program Files (x86)\Microsoft Visual Studio\2019\Community\VC\Tools\MSVC\14.28.29333\include\vector
; File D:\Metin2 Server Files\mainline\SRC_2014\Metin2Client\eterLib\Pool.h
;	COMDAT ??1?$CDynamicPool@VCWeaponTrace@@@@UAE@XZ
_TEXT	SEGMENT
_this$ = -4						; size = 4
??1?$CDynamicPool@VCWeaponTrace@@@@UAE@XZ PROC		; CDynamicPool<CWeaponTrace>::~CDynamicPool<CWeaponTrace>, COMDAT
; _this$ = ecx

; 18   : 		{

  00000	55		 push	 ebp
  00001	8b ec		 mov	 ebp, esp
  00003	51		 push	 ecx
  00004	89 4d fc	 mov	 DWORD PTR _this$[ebp], ecx
  00007	8b 45 fc	 mov	 eax, DWORD PTR _this$[ebp]
  0000a	c7 00 00 00 00
	00		 mov	 DWORD PTR [eax], OFFSET ??_7?$CDynamicPool@VCWeaponTrace@@@@6B@

; 26   : 		}

  00010	8b 4d fc	 mov	 ecx, DWORD PTR _this$[ebp]
  00013	83 c1 10	 add	 ecx, 16			; 00000010H
; File C:\Program Files (x86)\Microsoft Visual Studio\2019\Community\VC\Tools\MSVC\14.28.29333\include\vector

; 673  :         _Tidy();

  00016	e8 00 00 00 00	 call	 ?_Tidy@?$vector@PAVCWeaponTrace@@V?$allocator@PAVCWeaponTrace@@@std@@@std@@AAEXXZ ; std::vector<CWeaponTrace *,std::allocator<CWeaponTrace *> >::_Tidy
; File D:\Metin2 Server Files\mainline\SRC_2014\Metin2Client\eterLib\Pool.h

; 26   : 		}

  0001b	8b 4d fc	 mov	 ecx, DWORD PTR _this$[ebp]
  0001e	83 c1 04	 add	 ecx, 4
; File C:\Program Files (x86)\Microsoft Visual Studio\2019\Community\VC\Tools\MSVC\14.28.29333\include\vector

; 673  :         _Tidy();

  00021	e8 00 00 00 00	 call	 ?_Tidy@?$vector@PAVCWeaponTrace@@V?$allocator@PAVCWeaponTrace@@@std@@@std@@AAEXXZ ; std::vector<CWeaponTrace *,std::allocator<CWeaponTrace *> >::_Tidy
; File D:\Metin2 Server Files\mainline\SRC_2014\Metin2Client\eterLib\Pool.h

; 26   : 		}

  00026	c9		 leave
  00027	c3		 ret	 0
??1?$CDynamicPool@VCWeaponTrace@@@@UAE@XZ ENDP		; CDynamicPool<CWeaponTrace>::~CDynamicPool<CWeaponTrace>
_TEXT	ENDS
; Function compile flags: /Odspy
; File D:\Metin2 Server Files\mainline\SRC_2014\Metin2Client\eterLib\Pool.h
; File C:\Program Files (x86)\Microsoft Visual Studio\2019\Community\VC\Tools\MSVC\14.28.29333\include\vector
; File C:\Program Files (x86)\Microsoft Visual Studio\2019\Community\VC\Tools\MSVC\14.28.29333\include\xmemory
; File C:\Program Files (x86)\Microsoft Visual Studio\2019\Community\VC\Tools\MSVC\14.28.29333\include\vector
; File D:\Metin2 Server Files\mainline\SRC_2014\Metin2Client\eterLib\Pool.h
; File C:\Program Files (x86)\Microsoft Visual Studio\2019\Community\VC\Tools\MSVC\14.28.29333\include\vector
; File C:\Program Files (x86)\Microsoft Visual Studio\2019\Community\VC\Tools\MSVC\14.28.29333\include\xmemory
; File C:\Program Files (x86)\Microsoft Visual Studio\2019\Community\VC\Tools\MSVC\14.28.29333\include\vector
; File D:\Metin2 Server Files\mainline\SRC_2014\Metin2Client\eterLib\Pool.h
;	COMDAT ??0?$CDynamicPool@VCWeaponTrace@@@@QAE@XZ
_TEXT	SEGMENT
_this$ = -28						; size = 4
_this$ = -24						; size = 4
_this$ = -20						; size = 4
_this$ = -16						; size = 4
_this$1 = -12						; size = 4
_this$2 = -8						; size = 4
_this$ = -4						; size = 4
??0?$CDynamicPool@VCWeaponTrace@@@@QAE@XZ PROC		; CDynamicPool<CWeaponTrace>::CDynamicPool<CWeaponTrace>, COMDAT
; _this$ = ecx

; 11   : 		CDynamicPool()

  00000	55		 push	 ebp
  00001	8b ec		 mov	 ebp, esp
  00003	83 ec 1c	 sub	 esp, 28			; 0000001cH
  00006	89 4d fc	 mov	 DWORD PTR _this$[ebp], ecx

; 12   : 		{

  00009	8b 45 fc	 mov	 eax, DWORD PTR _this$[ebp]
  0000c	c7 00 00 00 00
	00		 mov	 DWORD PTR [eax], OFFSET ??_7?$CDynamicPool@VCWeaponTrace@@@@6B@
  00012	8b 45 fc	 mov	 eax, DWORD PTR _this$[ebp]
  00015	83 c0 04	 add	 eax, 4
  00018	89 45 f0	 mov	 DWORD PTR _this$[ebp], eax
; File C:\Program Files (x86)\Microsoft Visual Studio\2019\Community\VC\Tools\MSVC\14.28.29333\include\vector

; 445  :     vector() noexcept(is_nothrow_default_constructible_v<_Alty>) : _Mypair(_Zero_then_variadic_args_t{}) {

  0001b	8b 45 f0	 mov	 eax, DWORD PTR _this$[ebp]
  0001e	89 45 ec	 mov	 DWORD PTR _this$[ebp], eax
; File C:\Program Files (x86)\Microsoft Visual Studio\2019\Community\VC\Tools\MSVC\14.28.29333\include\xmemory

; 1339 :         : _Ty1(), _Myval2(_STD forward<_Other2>(_Val2)...) {}

  00021	8b 45 ec	 mov	 eax, DWORD PTR _this$[ebp]
  00024	89 45 f8	 mov	 DWORD PTR _this$2[ebp], eax
; File C:\Program Files (x86)\Microsoft Visual Studio\2019\Community\VC\Tools\MSVC\14.28.29333\include\vector

; 375  :     _Vector_val() noexcept : _Myfirst(), _Mylast(), _Myend() {}

  00027	8b 45 f8	 mov	 eax, DWORD PTR _this$2[ebp]
  0002a	83 20 00	 and	 DWORD PTR [eax], 0
  0002d	8b 45 f8	 mov	 eax, DWORD PTR _this$2[ebp]
  00030	83 60 04 00	 and	 DWORD PTR [eax+4], 0
  00034	8b 45 f8	 mov	 eax, DWORD PTR _this$2[ebp]
  00037	83 60 08 00	 and	 DWORD PTR [eax+8], 0
; File D:\Metin2 Server Files\mainline\SRC_2014\Metin2Client\eterLib\Pool.h

; 12   : 		{

  0003b	8b 45 fc	 mov	 eax, DWORD PTR _this$[ebp]
  0003e	83 c0 10	 add	 eax, 16			; 00000010H
  00041	89 45 e8	 mov	 DWORD PTR _this$[ebp], eax
; File C:\Program Files (x86)\Microsoft Visual Studio\2019\Community\VC\Tools\MSVC\14.28.29333\include\vector

; 445  :     vector() noexcept(is_nothrow_default_constructible_v<_Alty>) : _Mypair(_Zero_then_variadic_args_t{}) {

  00044	8b 45 e8	 mov	 eax, DWORD PTR _this$[ebp]
  00047	89 45 e4	 mov	 DWORD PTR _this$[ebp], eax
; File C:\Program Files (x86)\Microsoft Visual Studio\2019\Community\VC\Tools\MSVC\14.28.29333\include\xmemory

; 1339 :         : _Ty1(), _Myval2(_STD forward<_Other2>(_Val2)...) {}

  0004a	8b 45 e4	 mov	 eax, DWORD PTR _this$[ebp]
  0004d	89 45 f4	 mov	 DWORD PTR _this$1[ebp], eax
; File C:\Program Files (x86)\Microsoft Visual Studio\2019\Community\VC\Tools\MSVC\14.28.29333\include\vector

; 375  :     _Vector_val() noexcept : _Myfirst(), _Mylast(), _Myend() {}

  00050	8b 45 f4	 mov	 eax, DWORD PTR _this$1[ebp]
  00053	83 20 00	 and	 DWORD PTR [eax], 0
  00056	8b 45 f4	 mov	 eax, DWORD PTR _this$1[ebp]
  00059	83 60 04 00	 and	 DWORD PTR [eax+4], 0
  0005d	8b 45 f4	 mov	 eax, DWORD PTR _this$1[ebp]
  00060	83 60 08 00	 and	 DWORD PTR [eax+8], 0
; File D:\Metin2 Server Files\mainline\SRC_2014\Metin2Client\eterLib\Pool.h

; 14   : 			m_uInitCapacity=0;

  00064	8b 45 fc	 mov	 eax, DWORD PTR _this$[ebp]
  00067	83 60 1c 00	 and	 DWORD PTR [eax+28], 0

; 15   : 			m_uUsedCapacity=0;

  0006b	8b 45 fc	 mov	 eax, DWORD PTR _this$[ebp]
  0006e	83 60 20 00	 and	 DWORD PTR [eax+32], 0

; 16   : 		}

  00072	8b 45 fc	 mov	 eax, DWORD PTR _this$[ebp]
  00075	c9		 leave
  00076	c3		 ret	 0
??0?$CDynamicPool@VCWeaponTrace@@@@QAE@XZ ENDP		; CDynamicPool<CWeaponTrace>::CDynamicPool<CWeaponTrace>
_TEXT	ENDS
; Function compile flags: /Odspy
;	COMDAT ??_GCWeaponTrace@@UAEPAXI@Z
_TEXT	SEGMENT
_this$ = -4						; size = 4
___flags$ = 8						; size = 4
??_GCWeaponTrace@@UAEPAXI@Z PROC			; CWeaponTrace::`scalar deleting destructor', COMDAT
; _this$ = ecx
  00000	55		 push	 ebp
  00001	8b ec		 mov	 ebp, esp
  00003	51		 push	 ecx
  00004	89 4d fc	 mov	 DWORD PTR _this$[ebp], ecx
  00007	8b 4d fc	 mov	 ecx, DWORD PTR _this$[ebp]
  0000a	e8 00 00 00 00	 call	 ??1CWeaponTrace@@UAE@XZ	; CWeaponTrace::~CWeaponTrace
  0000f	8b 45 08	 mov	 eax, DWORD PTR ___flags$[ebp]
  00012	83 e0 01	 and	 eax, 1
  00015	74 0f		 je	 SHORT $LN2@scalar
  00017	68 8c 00 00 00	 push	 140			; 0000008cH
  0001c	ff 75 fc	 push	 DWORD PTR _this$[ebp]
  0001f	e8 00 00 00 00	 call	 ??3@YAXPAXI@Z		; operator delete
  00024	59		 pop	 ecx
  00025	59		 pop	 ecx
$LN2@scalar:
  00026	8b 45 fc	 mov	 eax, DWORD PTR _this$[ebp]
  00029	c9		 leave
  0002a	c2 04 00	 ret	 4
??_GCWeaponTrace@@UAEPAXI@Z ENDP			; CWeaponTrace::`scalar deleting destructor'
_TEXT	ENDS
; Function compile flags: /Odspy
; File C:\Program Files (x86)\Microsoft Visual Studio\2019\Community\VC\Tools\MSVC\14.28.29333\include\vector
;	COMDAT ??0?$_Vector_val@U?$_Simple_types@USPDTVertex@@@std@@@std@@QAE@XZ
_TEXT	SEGMENT
_this$ = -4						; size = 4
??0?$_Vector_val@U?$_Simple_types@USPDTVertex@@@std@@@std@@QAE@XZ PROC ; std::_Vector_val<std::_Simple_types<SPDTVertex> >::_Vector_val<std::_Simple_types<SPDTVertex> >, COMDAT
; _this$ = ecx

; 375  :     _Vector_val() noexcept : _Myfirst(), _Mylast(), _Myend() {}

  00000	55		 push	 ebp
  00001	8b ec		 mov	 ebp, esp
  00003	51		 push	 ecx
  00004	89 4d fc	 mov	 DWORD PTR _this$[ebp], ecx
  00007	8b 45 fc	 mov	 eax, DWORD PTR _this$[ebp]
  0000a	83 20 00	 and	 DWORD PTR [eax], 0
  0000d	8b 45 fc	 mov	 eax, DWORD PTR _this$[ebp]
  00010	83 60 04 00	 and	 DWORD PTR [eax+4], 0
  00014	8b 45 fc	 mov	 eax, DWORD PTR _this$[ebp]
  00017	83 60 08 00	 and	 DWORD PTR [eax+8], 0
  0001b	8b 45 fc	 mov	 eax, DWORD PTR _this$[ebp]
  0001e	c9		 leave
  0001f	c3		 ret	 0
??0?$_Vector_val@U?$_Simple_types@USPDTVertex@@@std@@@std@@QAE@XZ ENDP ; std::_Vector_val<std::_Simple_types<SPDTVertex> >::_Vector_val<std::_Simple_types<SPDTVertex> >
_TEXT	ENDS
; Function compile flags: /Odspy
; File C:\Program Files (x86)\Microsoft Visual Studio\2019\Community\VC\Tools\MSVC\14.28.29333\include\vector
;	COMDAT ?_Xlength@?$vector@USPDTVertex@@V?$allocator@USPDTVertex@@@std@@@std@@CAXXZ
_TEXT	SEGMENT
?_Xlength@?$vector@USPDTVertex@@V?$allocator@USPDTVertex@@@std@@@std@@CAXXZ PROC ; std::vector<SPDTVertex,std::allocator<SPDTVertex> >::_Xlength, COMDAT

; 1704 :     [[noreturn]] static void _Xlength() {

  00000	55		 push	 ebp
  00001	8b ec		 mov	 ebp, esp

; 1705 :         _Xlength_error("vector too long");

  00003	68 00 00 00 00	 push	 OFFSET ??_C@_0BA@FOIKENOD@vector?5too?5long@
  00008	e8 00 00 00 00	 call	 ?_Xlength_error@std@@YAXPBD@Z ; std::_Xlength_error
$LN2@Xlength:

; 1706 :     }

  0000d	5d		 pop	 ebp
  0000e	c3		 ret	 0
?_Xlength@?$vector@USPDTVertex@@V?$allocator@USPDTVertex@@@std@@@std@@CAXXZ ENDP ; std::vector<SPDTVertex,std::allocator<SPDTVertex> >::_Xlength
_TEXT	ENDS
; Function compile flags: /Odspy
; File C:\Program Files (x86)\Microsoft Visual Studio\2019\Community\VC\Tools\MSVC\14.28.29333\include\vector
; File C:\Program Files (x86)\Microsoft Visual Studio\2019\Community\VC\Tools\MSVC\14.28.29333\include\xmemory
; File C:\Program Files (x86)\Microsoft Visual Studio\2019\Community\VC\Tools\MSVC\14.28.29333\include\vector
; File C:\Program Files (x86)\Microsoft Visual Studio\2019\Community\VC\Tools\MSVC\14.28.29333\include\xmemory
; File C:\Program Files (x86)\Microsoft Visual Studio\2019\Community\VC\Tools\MSVC\14.28.29333\include\vector
; File C:\Program Files (x86)\Microsoft Visual Studio\2019\Community\VC\Tools\MSVC\14.28.29333\include\xmemory
; File C:\Program Files (x86)\Microsoft Visual Studio\2019\Community\VC\Tools\MSVC\14.28.29333\include\vector
;	COMDAT ?_Tidy@?$vector@USPDTVertex@@V?$allocator@USPDTVertex@@@std@@@std@@AAEXXZ
_TEXT	SEGMENT
$T1 = -52						; size = 4
__Ptr$ = -48						; size = 4
__Count$ = -44						; size = 4
$T2 = -40						; size = 4
__First$ = -36						; size = 4
__Last$ = -32						; size = 4
$T3 = -28						; size = 4
$T4 = -24						; size = 4
__Myend$ = -20						; size = 4
__Mylast$ = -16						; size = 4
_this$ = -12						; size = 4
__My_data$ = -8						; size = 4
__Myfirst$ = -4						; size = 4
?_Tidy@?$vector@USPDTVertex@@V?$allocator@USPDTVertex@@@std@@@std@@AAEXXZ PROC ; std::vector<SPDTVertex,std::allocator<SPDTVertex> >::_Tidy, COMDAT
; _this$ = ecx

; 1686 :     void _Tidy() noexcept { // free all storage

  00000	55		 push	 ebp
  00001	8b ec		 mov	 ebp, esp
  00003	83 ec 34	 sub	 esp, 52			; 00000034H
  00006	89 4d f4	 mov	 DWORD PTR _this$[ebp], ecx

; 1687 :         auto& _My_data    = _Mypair._Myval2;

  00009	8b 45 f4	 mov	 eax, DWORD PTR _this$[ebp]
  0000c	89 45 f8	 mov	 DWORD PTR __My_data$[ebp], eax

; 1688 :         pointer& _Myfirst = _My_data._Myfirst;

  0000f	8b 45 f8	 mov	 eax, DWORD PTR __My_data$[ebp]
  00012	89 45 fc	 mov	 DWORD PTR __Myfirst$[ebp], eax

; 1689 :         pointer& _Mylast  = _My_data._Mylast;

  00015	8b 45 f8	 mov	 eax, DWORD PTR __My_data$[ebp]
  00018	83 c0 04	 add	 eax, 4
  0001b	89 45 f0	 mov	 DWORD PTR __Mylast$[ebp], eax

; 1690 :         pointer& _Myend   = _My_data._Myend;

  0001e	8b 45 f8	 mov	 eax, DWORD PTR __My_data$[ebp]
  00021	83 c0 08	 add	 eax, 8
  00024	89 45 ec	 mov	 DWORD PTR __Myend$[ebp], eax

; 1691 : 
; 1692 :         _My_data._Orphan_all();
; 1693 : 
; 1694 :         if (_Myfirst) { // destroy and deallocate old array

  00027	8b 45 fc	 mov	 eax, DWORD PTR __Myfirst$[ebp]
  0002a	83 38 00	 cmp	 DWORD PTR [eax], 0
  0002d	74 75		 je	 SHORT $LN3@Tidy

; 1695 :             _Destroy(_Myfirst, _Mylast);

  0002f	8b 45 f0	 mov	 eax, DWORD PTR __Mylast$[ebp]
  00032	8b 00		 mov	 eax, DWORD PTR [eax]
  00034	89 45 e0	 mov	 DWORD PTR __Last$[ebp], eax
  00037	8b 45 fc	 mov	 eax, DWORD PTR __Myfirst$[ebp]
  0003a	8b 00		 mov	 eax, DWORD PTR [eax]
  0003c	89 45 dc	 mov	 DWORD PTR __First$[ebp], eax

; 1733 :         return _Mypair._Get_first();

  0003f	8b 45 f4	 mov	 eax, DWORD PTR _this$[ebp]
; File C:\Program Files (x86)\Microsoft Visual Studio\2019\Community\VC\Tools\MSVC\14.28.29333\include\xmemory

; 1347 :         return *this;

  00042	89 45 e8	 mov	 DWORD PTR $T4[ebp], eax
; File C:\Program Files (x86)\Microsoft Visual Studio\2019\Community\VC\Tools\MSVC\14.28.29333\include\vector

; 1733 :         return _Mypair._Get_first();

  00045	8b 45 e8	 mov	 eax, DWORD PTR $T4[ebp]
  00048	89 45 e4	 mov	 DWORD PTR $T3[ebp], eax

; 1612 :         _Destroy_range(_First, _Last, _Getal());

  0004b	ff 75 e4	 push	 DWORD PTR $T3[ebp]
  0004e	ff 75 e0	 push	 DWORD PTR __Last$[ebp]
  00051	ff 75 dc	 push	 DWORD PTR __First$[ebp]
  00054	e8 00 00 00 00	 call	 ??$_Destroy_range@V?$allocator@USPDTVertex@@@std@@@std@@YAXPAUSPDTVertex@@QAU1@AAV?$allocator@USPDTVertex@@@0@@Z ; std::_Destroy_range<std::allocator<SPDTVertex> >
  00059	83 c4 0c	 add	 esp, 12			; 0000000cH

; 1733 :         return _Mypair._Get_first();

  0005c	8b 45 f4	 mov	 eax, DWORD PTR _this$[ebp]
; File C:\Program Files (x86)\Microsoft Visual Studio\2019\Community\VC\Tools\MSVC\14.28.29333\include\xmemory

; 1347 :         return *this;

  0005f	89 45 d8	 mov	 DWORD PTR $T2[ebp], eax
; File C:\Program Files (x86)\Microsoft Visual Studio\2019\Community\VC\Tools\MSVC\14.28.29333\include\vector

; 1733 :         return _Mypair._Get_first();

  00062	8b 45 d8	 mov	 eax, DWORD PTR $T2[ebp]
  00065	89 45 cc	 mov	 DWORD PTR $T1[ebp], eax

; 1696 :             _Getal().deallocate(_Myfirst, static_cast<size_type>(_Myend - _Myfirst));

  00068	8b 45 ec	 mov	 eax, DWORD PTR __Myend$[ebp]
  0006b	8b 4d fc	 mov	 ecx, DWORD PTR __Myfirst$[ebp]
  0006e	8b 00		 mov	 eax, DWORD PTR [eax]
  00070	2b 01		 sub	 eax, DWORD PTR [ecx]
  00072	99		 cdq
  00073	6a 18		 push	 24			; 00000018H
  00075	59		 pop	 ecx
  00076	f7 f9		 idiv	 ecx
  00078	89 45 d4	 mov	 DWORD PTR __Count$[ebp], eax
  0007b	8b 45 fc	 mov	 eax, DWORD PTR __Myfirst$[ebp]
  0007e	8b 00		 mov	 eax, DWORD PTR [eax]
  00080	89 45 d0	 mov	 DWORD PTR __Ptr$[ebp], eax
; File C:\Program Files (x86)\Microsoft Visual Studio\2019\Community\VC\Tools\MSVC\14.28.29333\include\xmemory

; 810  :         _Deallocate<_New_alignof<_Ty>>(_Ptr, sizeof(_Ty) * _Count);

  00083	6b 45 d4 18	 imul	 eax, DWORD PTR __Count$[ebp], 24
  00087	50		 push	 eax
  00088	ff 75 d0	 push	 DWORD PTR __Ptr$[ebp]
  0008b	e8 00 00 00 00	 call	 ??$_Deallocate@$07$0A@@std@@YAXPAXI@Z ; std::_Deallocate<8,0>
  00090	59		 pop	 ecx
  00091	59		 pop	 ecx
; File C:\Program Files (x86)\Microsoft Visual Studio\2019\Community\VC\Tools\MSVC\14.28.29333\include\vector

; 1698 :             _Myfirst = pointer();

  00092	8b 45 fc	 mov	 eax, DWORD PTR __Myfirst$[ebp]
  00095	83 20 00	 and	 DWORD PTR [eax], 0

; 1699 :             _Mylast  = pointer();

  00098	8b 45 f0	 mov	 eax, DWORD PTR __Mylast$[ebp]
  0009b	83 20 00	 and	 DWORD PTR [eax], 0

; 1700 :             _Myend   = pointer();

  0009e	8b 45 ec	 mov	 eax, DWORD PTR __Myend$[ebp]
  000a1	83 20 00	 and	 DWORD PTR [eax], 0
$LN3@Tidy:

; 1701 :         }
; 1702 :     }

  000a4	c9		 leave
  000a5	c3		 ret	 0
?_Tidy@?$vector@USPDTVertex@@V?$allocator@USPDTVertex@@@std@@@std@@AAEXXZ ENDP ; std::vector<SPDTVertex,std::allocator<SPDTVertex> >::_Tidy
_TEXT	ENDS
; Function compile flags: /Odspy
; File C:\Program Files (x86)\Microsoft Visual Studio\2019\Community\VC\Tools\MSVC\14.28.29333\include\vector
; File C:\Program Files (x86)\Microsoft Visual Studio\2019\Community\VC\Tools\MSVC\14.28.29333\include\xmemory
; File C:\Program Files (x86)\Microsoft Visual Studio\2019\Community\VC\Tools\MSVC\14.28.29333\include\vector
; File C:\Program Files (x86)\Microsoft Visual Studio\2019\Community\VC\Tools\MSVC\14.28.29333\include\xmemory
; File C:\Program Files (x86)\Microsoft Visual Studio\2019\Community\VC\Tools\MSVC\14.28.29333\include\vector
; File C:\Program Files (x86)\Microsoft Visual Studio\2019\Community\VC\Tools\MSVC\14.28.29333\include\xmemory
; File C:\Program Files (x86)\Microsoft Visual Studio\2019\Community\VC\Tools\MSVC\14.28.29333\include\vector
;	COMDAT ?_Change_array@?$vector@USPDTVertex@@V?$allocator@USPDTVertex@@@std@@@std@@AAEXQAUSPDTVertex@@II@Z
_TEXT	SEGMENT
$T1 = -52						; size = 4
__Ptr$ = -48						; size = 4
__Count$ = -44						; size = 4
$T2 = -40						; size = 4
__First$ = -36						; size = 4
__Last$ = -32						; size = 4
$T3 = -28						; size = 4
$T4 = -24						; size = 4
__Myend$ = -20						; size = 4
__Mylast$ = -16						; size = 4
_this$ = -12						; size = 4
__My_data$ = -8						; size = 4
__Myfirst$ = -4						; size = 4
__Newvec$ = 8						; size = 4
__Newsize$ = 12						; size = 4
__Newcapacity$ = 16					; size = 4
?_Change_array@?$vector@USPDTVertex@@V?$allocator@USPDTVertex@@@std@@@std@@AAEXQAUSPDTVertex@@II@Z PROC ; std::vector<SPDTVertex,std::allocator<SPDTVertex> >::_Change_array, COMDAT
; _this$ = ecx

; 1667 :     void _Change_array(const pointer _Newvec, const size_type _Newsize, const size_type _Newcapacity) {

  00000	55		 push	 ebp
  00001	8b ec		 mov	 ebp, esp
  00003	83 ec 34	 sub	 esp, 52			; 00000034H
  00006	89 4d f4	 mov	 DWORD PTR _this$[ebp], ecx

; 1668 :         // orphan all iterators, discard old array, acquire new array
; 1669 :         auto& _My_data    = _Mypair._Myval2;

  00009	8b 45 f4	 mov	 eax, DWORD PTR _this$[ebp]
  0000c	89 45 f8	 mov	 DWORD PTR __My_data$[ebp], eax

; 1670 :         pointer& _Myfirst = _My_data._Myfirst;

  0000f	8b 45 f8	 mov	 eax, DWORD PTR __My_data$[ebp]
  00012	89 45 fc	 mov	 DWORD PTR __Myfirst$[ebp], eax

; 1671 :         pointer& _Mylast  = _My_data._Mylast;

  00015	8b 45 f8	 mov	 eax, DWORD PTR __My_data$[ebp]
  00018	83 c0 04	 add	 eax, 4
  0001b	89 45 f0	 mov	 DWORD PTR __Mylast$[ebp], eax

; 1672 :         pointer& _Myend   = _My_data._Myend;

  0001e	8b 45 f8	 mov	 eax, DWORD PTR __My_data$[ebp]
  00021	83 c0 08	 add	 eax, 8
  00024	89 45 ec	 mov	 DWORD PTR __Myend$[ebp], eax

; 1673 : 
; 1674 :         _My_data._Orphan_all();
; 1675 : 
; 1676 :         if (_Myfirst) { // destroy and deallocate old array

  00027	8b 45 fc	 mov	 eax, DWORD PTR __Myfirst$[ebp]
  0002a	83 38 00	 cmp	 DWORD PTR [eax], 0
  0002d	74 63		 je	 SHORT $LN2@Change_arr

; 1677 :             _Destroy(_Myfirst, _Mylast);

  0002f	8b 45 f0	 mov	 eax, DWORD PTR __Mylast$[ebp]
  00032	8b 00		 mov	 eax, DWORD PTR [eax]
  00034	89 45 e0	 mov	 DWORD PTR __Last$[ebp], eax
  00037	8b 45 fc	 mov	 eax, DWORD PTR __Myfirst$[ebp]
  0003a	8b 00		 mov	 eax, DWORD PTR [eax]
  0003c	89 45 dc	 mov	 DWORD PTR __First$[ebp], eax

; 1733 :         return _Mypair._Get_first();

  0003f	8b 45 f4	 mov	 eax, DWORD PTR _this$[ebp]
; File C:\Program Files (x86)\Microsoft Visual Studio\2019\Community\VC\Tools\MSVC\14.28.29333\include\xmemory

; 1347 :         return *this;

  00042	89 45 e8	 mov	 DWORD PTR $T4[ebp], eax
; File C:\Program Files (x86)\Microsoft Visual Studio\2019\Community\VC\Tools\MSVC\14.28.29333\include\vector

; 1733 :         return _Mypair._Get_first();

  00045	8b 45 e8	 mov	 eax, DWORD PTR $T4[ebp]
  00048	89 45 e4	 mov	 DWORD PTR $T3[ebp], eax

; 1612 :         _Destroy_range(_First, _Last, _Getal());

  0004b	ff 75 e4	 push	 DWORD PTR $T3[ebp]
  0004e	ff 75 e0	 push	 DWORD PTR __Last$[ebp]
  00051	ff 75 dc	 push	 DWORD PTR __First$[ebp]
  00054	e8 00 00 00 00	 call	 ??$_Destroy_range@V?$allocator@USPDTVertex@@@std@@@std@@YAXPAUSPDTVertex@@QAU1@AAV?$allocator@USPDTVertex@@@0@@Z ; std::_Destroy_range<std::allocator<SPDTVertex> >
  00059	83 c4 0c	 add	 esp, 12			; 0000000cH

; 1733 :         return _Mypair._Get_first();

  0005c	8b 45 f4	 mov	 eax, DWORD PTR _this$[ebp]
; File C:\Program Files (x86)\Microsoft Visual Studio\2019\Community\VC\Tools\MSVC\14.28.29333\include\xmemory

; 1347 :         return *this;

  0005f	89 45 d8	 mov	 DWORD PTR $T2[ebp], eax
; File C:\Program Files (x86)\Microsoft Visual Studio\2019\Community\VC\Tools\MSVC\14.28.29333\include\vector

; 1733 :         return _Mypair._Get_first();

  00062	8b 45 d8	 mov	 eax, DWORD PTR $T2[ebp]
  00065	89 45 cc	 mov	 DWORD PTR $T1[ebp], eax

; 1678 :             _Getal().deallocate(_Myfirst, static_cast<size_type>(_Myend - _Myfirst));

  00068	8b 45 ec	 mov	 eax, DWORD PTR __Myend$[ebp]
  0006b	8b 4d fc	 mov	 ecx, DWORD PTR __Myfirst$[ebp]
  0006e	8b 00		 mov	 eax, DWORD PTR [eax]
  00070	2b 01		 sub	 eax, DWORD PTR [ecx]
  00072	99		 cdq
  00073	6a 18		 push	 24			; 00000018H
  00075	59		 pop	 ecx
  00076	f7 f9		 idiv	 ecx
  00078	89 45 d4	 mov	 DWORD PTR __Count$[ebp], eax
  0007b	8b 45 fc	 mov	 eax, DWORD PTR __Myfirst$[ebp]
  0007e	8b 00		 mov	 eax, DWORD PTR [eax]
  00080	89 45 d0	 mov	 DWORD PTR __Ptr$[ebp], eax
; File C:\Program Files (x86)\Microsoft Visual Studio\2019\Community\VC\Tools\MSVC\14.28.29333\include\xmemory

; 810  :         _Deallocate<_New_alignof<_Ty>>(_Ptr, sizeof(_Ty) * _Count);

  00083	6b 45 d4 18	 imul	 eax, DWORD PTR __Count$[ebp], 24
  00087	50		 push	 eax
  00088	ff 75 d0	 push	 DWORD PTR __Ptr$[ebp]
  0008b	e8 00 00 00 00	 call	 ??$_Deallocate@$07$0A@@std@@YAXPAXI@Z ; std::_Deallocate<8,0>
  00090	59		 pop	 ecx
  00091	59		 pop	 ecx
$LN2@Change_arr:
; File C:\Program Files (x86)\Microsoft Visual Studio\2019\Community\VC\Tools\MSVC\14.28.29333\include\vector

; 1681 :         _Myfirst = _Newvec;

  00092	8b 45 fc	 mov	 eax, DWORD PTR __Myfirst$[ebp]
  00095	8b 4d 08	 mov	 ecx, DWORD PTR __Newvec$[ebp]
  00098	89 08		 mov	 DWORD PTR [eax], ecx

; 1682 :         _Mylast  = _Newvec + _Newsize;

  0009a	6b 45 0c 18	 imul	 eax, DWORD PTR __Newsize$[ebp], 24
  0009e	03 45 08	 add	 eax, DWORD PTR __Newvec$[ebp]
  000a1	8b 4d f0	 mov	 ecx, DWORD PTR __Mylast$[ebp]
  000a4	89 01		 mov	 DWORD PTR [ecx], eax

; 1683 :         _Myend   = _Newvec + _Newcapacity;

  000a6	6b 45 10 18	 imul	 eax, DWORD PTR __Newcapacity$[ebp], 24
  000aa	03 45 08	 add	 eax, DWORD PTR __Newvec$[ebp]
  000ad	8b 4d ec	 mov	 ecx, DWORD PTR __Myend$[ebp]
  000b0	89 01		 mov	 DWORD PTR [ecx], eax

; 1684 :     }

  000b2	c9		 leave
  000b3	c2 0c 00	 ret	 12			; 0000000cH
?_Change_array@?$vector@USPDTVertex@@V?$allocator@USPDTVertex@@@std@@@std@@AAEXQAUSPDTVertex@@II@Z ENDP ; std::vector<SPDTVertex,std::allocator<SPDTVertex> >::_Change_array
_TEXT	ENDS
; Function compile flags: /Odspy
; File C:\Program Files (x86)\Microsoft Visual Studio\2019\Community\VC\Tools\MSVC\14.28.29333\include\vector
; File C:\Program Files (x86)\Microsoft Visual Studio\2019\Community\VC\Tools\MSVC\14.28.29333\include\xmemory
; File C:\Program Files (x86)\Microsoft Visual Studio\2019\Community\VC\Tools\MSVC\14.28.29333\include\vector
; File C:\Program Files (x86)\Microsoft Visual Studio\2019\Community\VC\Tools\MSVC\14.28.29333\include\xmemory
; File C:\Program Files (x86)\Microsoft Visual Studio\2019\Community\VC\Tools\MSVC\14.28.29333\include\limits
; File C:\Program Files (x86)\Microsoft Visual Studio\2019\Community\VC\Tools\MSVC\14.28.29333\include\vector
; File C:\Program Files (x86)\Microsoft Visual Studio\2019\Community\VC\Tools\MSVC\14.28.29333\include\utility
; File C:\Program Files (x86)\Microsoft Visual Studio\2019\Community\VC\Tools\MSVC\14.28.29333\include\vector
;	COMDAT ?_Calculate_growth@?$vector@USPDTVertex@@V?$allocator@USPDTVertex@@@std@@@std@@ABEII@Z
_TEXT	SEGMENT
$T1 = -52						; size = 4
$T2 = -48						; size = 4
$T3 = -44						; size = 4
$T4 = -40						; size = 4
$T5 = -36						; size = 4
__Geometric$ = -32					; size = 4
__Max$ = -28						; size = 4
tv82 = -24						; size = 4
$T6 = -20						; size = 4
$T7 = -16						; size = 4
_this$ = -12						; size = 4
__My_data$8 = -8					; size = 4
__Oldcapacity$ = -4					; size = 4
__Newsize$ = 8						; size = 4
?_Calculate_growth@?$vector@USPDTVertex@@V?$allocator@USPDTVertex@@@std@@@std@@ABEII@Z PROC ; std::vector<SPDTVertex,std::allocator<SPDTVertex> >::_Calculate_growth, COMDAT
; _this$ = ecx

; 1615 :     size_type _Calculate_growth(const size_type _Newsize) const {

  00000	55		 push	 ebp
  00001	8b ec		 mov	 ebp, esp
  00003	83 ec 34	 sub	 esp, 52			; 00000034H
  00006	89 4d f4	 mov	 DWORD PTR _this$[ebp], ecx

; 1493 :         auto& _My_data = _Mypair._Myval2;

  00009	8b 45 f4	 mov	 eax, DWORD PTR _this$[ebp]
  0000c	89 45 f8	 mov	 DWORD PTR __My_data$8[ebp], eax

; 1494 :         return static_cast<size_type>(_My_data._Myend - _My_data._Myfirst);

  0000f	8b 45 f8	 mov	 eax, DWORD PTR __My_data$8[ebp]
  00012	8b 4d f8	 mov	 ecx, DWORD PTR __My_data$8[ebp]
  00015	8b 40 08	 mov	 eax, DWORD PTR [eax+8]
  00018	2b 01		 sub	 eax, DWORD PTR [ecx]
  0001a	99		 cdq
  0001b	6a 18		 push	 24			; 00000018H
  0001d	59		 pop	 ecx
  0001e	f7 f9		 idiv	 ecx
  00020	89 45 fc	 mov	 DWORD PTR __Oldcapacity$[ebp], eax

; 1737 :         return _Mypair._Get_first();

  00023	8b 45 f4	 mov	 eax, DWORD PTR _this$[ebp]
; File C:\Program Files (x86)\Microsoft Visual Studio\2019\Community\VC\Tools\MSVC\14.28.29333\include\xmemory

; 1351 :         return *this;

  00026	89 45 dc	 mov	 DWORD PTR $T5[ebp], eax
; File C:\Program Files (x86)\Microsoft Visual Studio\2019\Community\VC\Tools\MSVC\14.28.29333\include\vector

; 1737 :         return _Mypair._Get_first();

  00029	8b 45 dc	 mov	 eax, DWORD PTR $T5[ebp]
  0002c	89 45 cc	 mov	 DWORD PTR $T1[ebp], eax
; File C:\Program Files (x86)\Microsoft Visual Studio\2019\Community\VC\Tools\MSVC\14.28.29333\include\xmemory

; 710  :         return static_cast<size_t>(-1) / sizeof(value_type);

  0002f	c7 45 f0 aa aa
	aa 0a		 mov	 DWORD PTR $T7[ebp], 178956970 ; 0aaaaaaaH
; File C:\Program Files (x86)\Microsoft Visual Studio\2019\Community\VC\Tools\MSVC\14.28.29333\include\limits

; 557  :         return INT_MAX;

  00036	c7 45 d8 ff ff
	ff 7f		 mov	 DWORD PTR $T4[ebp], 2147483647 ; 7fffffffH
; File C:\Program Files (x86)\Microsoft Visual Studio\2019\Community\VC\Tools\MSVC\14.28.29333\include\vector

; 1488 :         return (_STD min)(

  0003d	8b 45 d8	 mov	 eax, DWORD PTR $T4[ebp]
  00040	89 45 ec	 mov	 DWORD PTR $T6[ebp], eax
; File C:\Program Files (x86)\Microsoft Visual Studio\2019\Community\VC\Tools\MSVC\14.28.29333\include\utility

; 68   :     return _Right < _Left ? _Right : _Left;

  00043	8b 45 f0	 mov	 eax, DWORD PTR $T7[ebp]
  00046	3b 45 ec	 cmp	 eax, DWORD PTR $T6[ebp]
  00049	73 08		 jae	 SHORT $LN25@Calculate_
  0004b	8d 45 f0	 lea	 eax, DWORD PTR $T7[ebp]
  0004e	89 45 e8	 mov	 DWORD PTR tv82[ebp], eax
  00051	eb 06		 jmp	 SHORT $LN26@Calculate_
$LN25@Calculate_:
  00053	8d 45 ec	 lea	 eax, DWORD PTR $T6[ebp]
  00056	89 45 e8	 mov	 DWORD PTR tv82[ebp], eax
$LN26@Calculate_:
  00059	8b 45 e8	 mov	 eax, DWORD PTR tv82[ebp]
  0005c	89 45 d4	 mov	 DWORD PTR $T3[ebp], eax
  0005f	8b 45 d4	 mov	 eax, DWORD PTR $T3[ebp]
  00062	89 45 d0	 mov	 DWORD PTR $T2[ebp], eax
; File C:\Program Files (x86)\Microsoft Visual Studio\2019\Community\VC\Tools\MSVC\14.28.29333\include\vector

; 1488 :         return (_STD min)(

  00065	8b 45 d0	 mov	 eax, DWORD PTR $T2[ebp]
  00068	8b 00		 mov	 eax, DWORD PTR [eax]
  0006a	89 45 e4	 mov	 DWORD PTR __Max$[ebp], eax

; 1616 :         // given _Oldcapacity and _Newsize, calculate geometric growth
; 1617 :         const size_type _Oldcapacity = capacity();
; 1618 :         const auto _Max              = max_size();
; 1619 : 
; 1620 :         if (_Oldcapacity > _Max - _Oldcapacity / 2) {

  0006d	8b 45 fc	 mov	 eax, DWORD PTR __Oldcapacity$[ebp]
  00070	d1 e8		 shr	 eax, 1
  00072	8b 4d e4	 mov	 ecx, DWORD PTR __Max$[ebp]
  00075	2b c8		 sub	 ecx, eax
  00077	39 4d fc	 cmp	 DWORD PTR __Oldcapacity$[ebp], ecx
  0007a	76 05		 jbe	 SHORT $LN2@Calculate_

; 1621 :             return _Max; // geometric growth would overflow

  0007c	8b 45 e4	 mov	 eax, DWORD PTR __Max$[ebp]
  0007f	eb 1b		 jmp	 SHORT $LN1@Calculate_
$LN2@Calculate_:

; 1622 :         }
; 1623 : 
; 1624 :         const size_type _Geometric = _Oldcapacity + _Oldcapacity / 2;

  00081	8b 45 fc	 mov	 eax, DWORD PTR __Oldcapacity$[ebp]
  00084	d1 e8		 shr	 eax, 1
  00086	03 45 fc	 add	 eax, DWORD PTR __Oldcapacity$[ebp]
  00089	89 45 e0	 mov	 DWORD PTR __Geometric$[ebp], eax

; 1625 : 
; 1626 :         if (_Geometric < _Newsize) {

  0008c	8b 45 e0	 mov	 eax, DWORD PTR __Geometric$[ebp]
  0008f	3b 45 08	 cmp	 eax, DWORD PTR __Newsize$[ebp]
  00092	73 05		 jae	 SHORT $LN3@Calculate_

; 1627 :             return _Newsize; // geometric growth would be insufficient

  00094	8b 45 08	 mov	 eax, DWORD PTR __Newsize$[ebp]
  00097	eb 03		 jmp	 SHORT $LN1@Calculate_
$LN3@Calculate_:

; 1628 :         }
; 1629 : 
; 1630 :         return _Geometric; // geometric growth is sufficient

  00099	8b 45 e0	 mov	 eax, DWORD PTR __Geometric$[ebp]
$LN1@Calculate_:

; 1631 :     }

  0009c	c9		 leave
  0009d	c2 04 00	 ret	 4
?_Calculate_growth@?$vector@USPDTVertex@@V?$allocator@USPDTVertex@@@std@@@std@@ABEII@Z ENDP ; std::vector<SPDTVertex,std::allocator<SPDTVertex> >::_Calculate_growth
_TEXT	ENDS
; Function compile flags: /Odspy
; File C:\Program Files (x86)\Microsoft Visual Studio\2019\Community\VC\Tools\MSVC\14.28.29333\include\vector
; File C:\Program Files (x86)\Microsoft Visual Studio\2019\Community\VC\Tools\MSVC\14.28.29333\include\xmemory
; File C:\Program Files (x86)\Microsoft Visual Studio\2019\Community\VC\Tools\MSVC\14.28.29333\include\vector
;	COMDAT ?_Destroy@?$vector@USPDTVertex@@V?$allocator@USPDTVertex@@@std@@@std@@AAEXPAUSPDTVertex@@0@Z
_TEXT	SEGMENT
$T1 = -12						; size = 4
$T2 = -8						; size = 4
_this$ = -4						; size = 4
__First$ = 8						; size = 4
__Last$ = 12						; size = 4
?_Destroy@?$vector@USPDTVertex@@V?$allocator@USPDTVertex@@@std@@@std@@AAEXPAUSPDTVertex@@0@Z PROC ; std::vector<SPDTVertex,std::allocator<SPDTVertex> >::_Destroy, COMDAT
; _this$ = ecx

; 1611 :     void _Destroy(pointer _First, pointer _Last) { // destroy [_First, _Last) using allocator

  00000	55		 push	 ebp
  00001	8b ec		 mov	 ebp, esp
  00003	83 ec 0c	 sub	 esp, 12			; 0000000cH
  00006	89 4d fc	 mov	 DWORD PTR _this$[ebp], ecx

; 1733 :         return _Mypair._Get_first();

  00009	8b 45 fc	 mov	 eax, DWORD PTR _this$[ebp]
; File C:\Program Files (x86)\Microsoft Visual Studio\2019\Community\VC\Tools\MSVC\14.28.29333\include\xmemory

; 1347 :         return *this;

  0000c	89 45 f8	 mov	 DWORD PTR $T2[ebp], eax
; File C:\Program Files (x86)\Microsoft Visual Studio\2019\Community\VC\Tools\MSVC\14.28.29333\include\vector

; 1733 :         return _Mypair._Get_first();

  0000f	8b 45 f8	 mov	 eax, DWORD PTR $T2[ebp]
  00012	89 45 f4	 mov	 DWORD PTR $T1[ebp], eax

; 1612 :         _Destroy_range(_First, _Last, _Getal());

  00015	ff 75 f4	 push	 DWORD PTR $T1[ebp]
  00018	ff 75 0c	 push	 DWORD PTR __Last$[ebp]
  0001b	ff 75 08	 push	 DWORD PTR __First$[ebp]
  0001e	e8 00 00 00 00	 call	 ??$_Destroy_range@V?$allocator@USPDTVertex@@@std@@@std@@YAXPAUSPDTVertex@@QAU1@AAV?$allocator@USPDTVertex@@@0@@Z ; std::_Destroy_range<std::allocator<SPDTVertex> >
  00023	83 c4 0c	 add	 esp, 12			; 0000000cH

; 1613 :     }

  00026	c9		 leave
  00027	c2 08 00	 ret	 8
?_Destroy@?$vector@USPDTVertex@@V?$allocator@USPDTVertex@@@std@@@std@@AAEXPAUSPDTVertex@@0@Z ENDP ; std::vector<SPDTVertex,std::allocator<SPDTVertex> >::_Destroy
_TEXT	ENDS
; Function compile flags: /Odspy
; File C:\Program Files (x86)\Microsoft Visual Studio\2019\Community\VC\Tools\MSVC\14.28.29333\include\vector
; File C:\Program Files (x86)\Microsoft Visual Studio\2019\Community\VC\Tools\MSVC\14.28.29333\include\xmemory
; File C:\Program Files (x86)\Microsoft Visual Studio\2019\Community\VC\Tools\MSVC\14.28.29333\include\vector
;	COMDAT ?clear@?$vector@USPDTVertex@@V?$allocator@USPDTVertex@@@std@@@std@@QAEXXZ
_TEXT	SEGMENT
__First$ = -32						; size = 4
__Last$ = -28						; size = 4
$T1 = -24						; size = 4
$T2 = -20						; size = 4
__Myfirst$ = -16					; size = 4
__Mylast$ = -12						; size = 4
_this$ = -8						; size = 4
__My_data$ = -4						; size = 4
?clear@?$vector@USPDTVertex@@V?$allocator@USPDTVertex@@@std@@@std@@QAEXXZ PROC ; std::vector<SPDTVertex,std::allocator<SPDTVertex> >::clear, COMDAT
; _this$ = ecx

; 1383 :     void clear() noexcept { // erase all

  00000	55		 push	 ebp
  00001	8b ec		 mov	 ebp, esp
  00003	83 ec 20	 sub	 esp, 32			; 00000020H
  00006	89 4d f8	 mov	 DWORD PTR _this$[ebp], ecx

; 1384 :         auto& _My_data    = _Mypair._Myval2;

  00009	8b 45 f8	 mov	 eax, DWORD PTR _this$[ebp]
  0000c	89 45 fc	 mov	 DWORD PTR __My_data$[ebp], eax

; 1385 :         pointer& _Myfirst = _My_data._Myfirst;

  0000f	8b 45 fc	 mov	 eax, DWORD PTR __My_data$[ebp]
  00012	89 45 f0	 mov	 DWORD PTR __Myfirst$[ebp], eax

; 1386 :         pointer& _Mylast  = _My_data._Mylast;

  00015	8b 45 fc	 mov	 eax, DWORD PTR __My_data$[ebp]
  00018	83 c0 04	 add	 eax, 4
  0001b	89 45 f4	 mov	 DWORD PTR __Mylast$[ebp], eax

; 1387 : 
; 1388 :         _My_data._Orphan_all();
; 1389 :         _Destroy(_Myfirst, _Mylast);

  0001e	8b 45 f4	 mov	 eax, DWORD PTR __Mylast$[ebp]
  00021	8b 00		 mov	 eax, DWORD PTR [eax]
  00023	89 45 e4	 mov	 DWORD PTR __Last$[ebp], eax
  00026	8b 45 f0	 mov	 eax, DWORD PTR __Myfirst$[ebp]
  00029	8b 00		 mov	 eax, DWORD PTR [eax]
  0002b	89 45 e0	 mov	 DWORD PTR __First$[ebp], eax

; 1733 :         return _Mypair._Get_first();

  0002e	8b 45 f8	 mov	 eax, DWORD PTR _this$[ebp]
; File C:\Program Files (x86)\Microsoft Visual Studio\2019\Community\VC\Tools\MSVC\14.28.29333\include\xmemory

; 1347 :         return *this;

  00031	89 45 ec	 mov	 DWORD PTR $T2[ebp], eax
; File C:\Program Files (x86)\Microsoft Visual Studio\2019\Community\VC\Tools\MSVC\14.28.29333\include\vector

; 1733 :         return _Mypair._Get_first();

  00034	8b 45 ec	 mov	 eax, DWORD PTR $T2[ebp]
  00037	89 45 e8	 mov	 DWORD PTR $T1[ebp], eax

; 1612 :         _Destroy_range(_First, _Last, _Getal());

  0003a	ff 75 e8	 push	 DWORD PTR $T1[ebp]
  0003d	ff 75 e4	 push	 DWORD PTR __Last$[ebp]
  00040	ff 75 e0	 push	 DWORD PTR __First$[ebp]
  00043	e8 00 00 00 00	 call	 ??$_Destroy_range@V?$allocator@USPDTVertex@@@std@@@std@@YAXPAUSPDTVertex@@QAU1@AAV?$allocator@USPDTVertex@@@0@@Z ; std::_Destroy_range<std::allocator<SPDTVertex> >
  00048	83 c4 0c	 add	 esp, 12			; 0000000cH

; 1390 :         _Mylast = _Myfirst;

  0004b	8b 45 f4	 mov	 eax, DWORD PTR __Mylast$[ebp]
  0004e	8b 4d f0	 mov	 ecx, DWORD PTR __Myfirst$[ebp]
  00051	8b 09		 mov	 ecx, DWORD PTR [ecx]
  00053	89 08		 mov	 DWORD PTR [eax], ecx

; 1391 :     }

  00055	c9		 leave
  00056	c3		 ret	 0
?clear@?$vector@USPDTVertex@@V?$allocator@USPDTVertex@@@std@@@std@@QAEXXZ ENDP ; std::vector<SPDTVertex,std::allocator<SPDTVertex> >::clear
_TEXT	ENDS
; Function compile flags: /Odspy
; File C:\Program Files (x86)\Microsoft Visual Studio\2019\Community\VC\Tools\MSVC\14.28.29333\include\vector
;	COMDAT ??1?$vector@USPDTVertex@@V?$allocator@USPDTVertex@@@std@@@std@@QAE@XZ
_TEXT	SEGMENT
_this$ = -4						; size = 4
??1?$vector@USPDTVertex@@V?$allocator@USPDTVertex@@@std@@@std@@QAE@XZ PROC ; std::vector<SPDTVertex,std::allocator<SPDTVertex> >::~vector<SPDTVertex,std::allocator<SPDTVertex> >, COMDAT
; _this$ = ecx

; 672  :     ~vector() noexcept {

  00000	55		 push	 ebp
  00001	8b ec		 mov	 ebp, esp
  00003	51		 push	 ecx
  00004	89 4d fc	 mov	 DWORD PTR _this$[ebp], ecx

; 673  :         _Tidy();

  00007	8b 4d fc	 mov	 ecx, DWORD PTR _this$[ebp]
  0000a	e8 00 00 00 00	 call	 ?_Tidy@?$vector@USPDTVertex@@V?$allocator@USPDTVertex@@@std@@@std@@AAEXXZ ; std::vector<SPDTVertex,std::allocator<SPDTVertex> >::_Tidy

; 674  : #if _ITERATOR_DEBUG_LEVEL != 0
; 675  :         auto&& _Alproxy = _GET_PROXY_ALLOCATOR(_Alty, _Getal());
; 676  :         _Delete_plain_internal(_Alproxy, _STD exchange(_Mypair._Myval2._Myproxy, nullptr));
; 677  : #endif // _ITERATOR_DEBUG_LEVEL != 0
; 678  :     }

  0000f	c9		 leave
  00010	c3		 ret	 0
??1?$vector@USPDTVertex@@V?$allocator@USPDTVertex@@@std@@@std@@QAE@XZ ENDP ; std::vector<SPDTVertex,std::allocator<SPDTVertex> >::~vector<SPDTVertex,std::allocator<SPDTVertex> >
_TEXT	ENDS
; Function compile flags: /Odspy
; File C:\Program Files (x86)\Microsoft Visual Studio\2019\Community\VC\Tools\MSVC\14.28.29333\include\xmemory
;	COMDAT ?deallocate@?$allocator@USPDTVertex@@@std@@QAEXQAUSPDTVertex@@I@Z
_TEXT	SEGMENT
_this$ = -4						; size = 4
__Ptr$ = 8						; size = 4
__Count$ = 12						; size = 4
?deallocate@?$allocator@USPDTVertex@@@std@@QAEXQAUSPDTVertex@@I@Z PROC ; std::allocator<SPDTVertex>::deallocate, COMDAT
; _this$ = ecx

; 808  :     void deallocate(_Ty* const _Ptr, const size_t _Count) {

  00000	55		 push	 ebp
  00001	8b ec		 mov	 ebp, esp
  00003	51		 push	 ecx
  00004	89 4d fc	 mov	 DWORD PTR _this$[ebp], ecx

; 809  :         // no overflow check on the following multiply; we assume _Allocate did that check
; 810  :         _Deallocate<_New_alignof<_Ty>>(_Ptr, sizeof(_Ty) * _Count);

  00007	6b 45 0c 18	 imul	 eax, DWORD PTR __Count$[ebp], 24
  0000b	50		 push	 eax
  0000c	ff 75 08	 push	 DWORD PTR __Ptr$[ebp]
  0000f	e8 00 00 00 00	 call	 ??$_Deallocate@$07$0A@@std@@YAXPAXI@Z ; std::_Deallocate<8,0>
  00014	59		 pop	 ecx
  00015	59		 pop	 ecx

; 811  :     }

  00016	c9		 leave
  00017	c2 08 00	 ret	 8
?deallocate@?$allocator@USPDTVertex@@@std@@QAEXQAUSPDTVertex@@I@Z ENDP ; std::allocator<SPDTVertex>::deallocate
_TEXT	ENDS
; Function compile flags: /Odspy
; File C:\Program Files (x86)\Microsoft Visual Studio\2019\Community\VC\Tools\MSVC\14.28.29333\include\deque
; File C:\Program Files (x86)\Microsoft Visual Studio\2019\Community\VC\Tools\MSVC\14.28.29333\include\xmemory
; File C:\Program Files (x86)\Microsoft Visual Studio\2019\Community\VC\Tools\MSVC\14.28.29333\include\deque
;	COMDAT ??0?$_Deque_val@U?$_Deque_simple_types@U?$pair@MUD3DXVECTOR3@@@std@@@std@@@std@@QAE@XZ
_TEXT	SEGMENT
_this$ = -4						; size = 4
??0?$_Deque_val@U?$_Deque_simple_types@U?$pair@MUD3DXVECTOR3@@@std@@@std@@@std@@QAE@XZ PROC ; std::_Deque_val<std::_Deque_simple_types<std::pair<float,D3DXVECTOR3> > >::_Deque_val<std::_Deque_simple_types<std::pair<float,D3DXVECTOR3> > >, COMDAT
; _this$ = ecx

; 544  :     _Deque_val() noexcept : _Map(), _Mapsize(0), _Myoff(0), _Mysize(0) {}

  00000	55		 push	 ebp
  00001	8b ec		 mov	 ebp, esp
  00003	51		 push	 ecx
  00004	89 4d fc	 mov	 DWORD PTR _this$[ebp], ecx
; File C:\Program Files (x86)\Microsoft Visual Studio\2019\Community\VC\Tools\MSVC\14.28.29333\include\xmemory

; 1097 :     _Container_base12() noexcept : _Myproxy(nullptr) {}

  00007	8b 45 fc	 mov	 eax, DWORD PTR _this$[ebp]
  0000a	83 20 00	 and	 DWORD PTR [eax], 0
; File C:\Program Files (x86)\Microsoft Visual Studio\2019\Community\VC\Tools\MSVC\14.28.29333\include\deque

; 544  :     _Deque_val() noexcept : _Map(), _Mapsize(0), _Myoff(0), _Mysize(0) {}

  0000d	8b 45 fc	 mov	 eax, DWORD PTR _this$[ebp]
  00010	83 60 04 00	 and	 DWORD PTR [eax+4], 0
  00014	8b 45 fc	 mov	 eax, DWORD PTR _this$[ebp]
  00017	83 60 08 00	 and	 DWORD PTR [eax+8], 0
  0001b	8b 45 fc	 mov	 eax, DWORD PTR _this$[ebp]
  0001e	83 60 0c 00	 and	 DWORD PTR [eax+12], 0
  00022	8b 45 fc	 mov	 eax, DWORD PTR _this$[ebp]
  00025	83 60 10 00	 and	 DWORD PTR [eax+16], 0
  00029	8b 45 fc	 mov	 eax, DWORD PTR _this$[ebp]
  0002c	c9		 leave
  0002d	c3		 ret	 0
??0?$_Deque_val@U?$_Deque_simple_types@U?$pair@MUD3DXVECTOR3@@@std@@@std@@@std@@QAE@XZ ENDP ; std::_Deque_val<std::_Deque_simple_types<std::pair<float,D3DXVECTOR3> > >::_Deque_val<std::_Deque_simple_types<std::pair<float,D3DXVECTOR3> > >
_TEXT	ENDS
; Function compile flags: /Odspy
; File C:\Program Files (x86)\Microsoft Visual Studio\2019\Community\VC\Tools\MSVC\14.28.29333\include\deque
; File C:\Program Files (x86)\Microsoft Visual Studio\2019\Community\VC\Tools\MSVC\14.28.29333\include\xmemory
; File C:\Program Files (x86)\Microsoft Visual Studio\2019\Community\VC\Tools\MSVC\14.28.29333\include\deque
; File C:\Program Files (x86)\Microsoft Visual Studio\2019\Community\VC\Tools\MSVC\14.28.29333\include\xmemory
; File C:\Program Files (x86)\Microsoft Visual Studio\2019\Community\VC\Tools\MSVC\14.28.29333\include\deque
; File C:\Program Files (x86)\Microsoft Visual Studio\2019\Community\VC\Tools\MSVC\14.28.29333\include\xmemory
; File C:\Program Files (x86)\Microsoft Visual Studio\2019\Community\VC\Tools\MSVC\14.28.29333\include\deque
; File C:\Program Files (x86)\Microsoft Visual Studio\2019\Community\VC\Tools\MSVC\14.28.29333\include\xmemory
; File C:\Program Files (x86)\Microsoft Visual Studio\2019\Community\VC\Tools\MSVC\14.28.29333\include\deque
;	COMDAT ?_Tidy@?$deque@U?$pair@MUD3DXVECTOR3@@@std@@V?$allocator@U?$pair@MUD3DXVECTOR3@@@std@@@2@@std@@AAEXXZ
_TEXT	SEGMENT
$T1 = -128						; size = 4
$T2 = -124						; size = 4
$T3 = -120						; size = 4
$T4 = -116						; size = 4
$T5 = -112						; size = 4
$T6 = -108						; size = 4
$T7 = -104						; size = 4
__Ptr$ = -100						; size = 4
__Count$ = -96						; size = 4
$T8 = -92						; size = 4
$T9 = -88						; size = 4
$T10 = -84						; size = 4
$T11 = -80						; size = 4
$T12 = -76						; size = 4
$T13 = -72						; size = 4
$T14 = -68						; size = 4
$T15 = -64						; size = 4
__Ptr$ = -60						; size = 4
$T16 = -56						; size = 4
$T17 = -52						; size = 4
$T18 = -48						; size = 4
$T19 = -44						; size = 4
$T20 = -40						; size = 4
$T21 = -36						; size = 4
$T22 = -32						; size = 4
$T23 = -28						; size = 4
$T24 = -24						; size = 4
$T25 = -20						; size = 4
tv149 = -16						; size = 4
__Block$26 = -12					; size = 4
_this$ = -8						; size = 4
$T27 = -1						; size = 1
?_Tidy@?$deque@U?$pair@MUD3DXVECTOR3@@@std@@V?$allocator@U?$pair@MUD3DXVECTOR3@@@std@@@2@@std@@AAEXXZ PROC ; std::deque<std::pair<float,D3DXVECTOR3>,std::allocator<std::pair<float,D3DXVECTOR3> > >::_Tidy, COMDAT
; _this$ = ecx

; 1469 :     void _Tidy() noexcept { // free all storage

  00000	55		 push	 ebp
  00001	8b ec		 mov	 ebp, esp
  00003	81 ec 80 00 00
	00		 sub	 esp, 128		; 00000080H
  00009	89 4d f8	 mov	 DWORD PTR _this$[ebp], ecx

; 1530 :         return _Mypair._Myval2;

  0000c	8b 45 f8	 mov	 eax, DWORD PTR _this$[ebp]
  0000f	89 45 88	 mov	 DWORD PTR $T3[ebp], eax

; 1522 :         return _Mypair._Get_first();

  00012	8b 45 f8	 mov	 eax, DWORD PTR _this$[ebp]
; File C:\Program Files (x86)\Microsoft Visual Studio\2019\Community\VC\Tools\MSVC\14.28.29333\include\xmemory

; 1347 :         return *this;

  00015	89 45 ec	 mov	 DWORD PTR $T25[ebp], eax
; File C:\Program Files (x86)\Microsoft Visual Studio\2019\Community\VC\Tools\MSVC\14.28.29333\include\deque

; 1522 :         return _Mypair._Get_first();

  00018	8b 45 ec	 mov	 eax, DWORD PTR $T25[ebp]
  0001b	89 45 84	 mov	 DWORD PTR $T2[ebp], eax
$LN2@Tidy:

; 1534 :         return _Mypair._Myval2;

  0001e	8b 45 f8	 mov	 eax, DWORD PTR _this$[ebp]
  00021	89 45 e8	 mov	 DWORD PTR $T24[ebp], eax

; 1566 :         return _Get_data()._Mysize;

  00024	8b 45 e8	 mov	 eax, DWORD PTR $T24[ebp]
  00027	83 c0 10	 add	 eax, 16			; 00000010H
  0002a	89 45 e4	 mov	 DWORD PTR $T23[ebp], eax

; 1010 :         return _Mysize() == 0;

  0002d	8b 45 e4	 mov	 eax, DWORD PTR $T23[ebp]
  00030	83 38 00	 cmp	 DWORD PTR [eax], 0
  00033	75 09		 jne	 SHORT $LN30@Tidy
  00035	c7 45 f0 01 00
	00 00		 mov	 DWORD PTR tv149[ebp], 1
  0003c	eb 04		 jmp	 SHORT $LN31@Tidy
$LN30@Tidy:
  0003e	83 65 f0 00	 and	 DWORD PTR tv149[ebp], 0
$LN31@Tidy:
  00042	8a 45 f0	 mov	 al, BYTE PTR tv149[ebp]
  00045	88 45 ff	 mov	 BYTE PTR $T27[ebp], al

; 1470 :         _Orphan_all();
; 1471 : 
; 1472 :         _Alpty _Almap(_Getal());
; 1473 :         while (!empty()) {

  00048	0f b6 45 ff	 movzx	 eax, BYTE PTR $T27[ebp]
  0004c	85 c0		 test	 eax, eax
  0004e	75 0a		 jne	 SHORT $LN3@Tidy

; 1474 :             pop_back();

  00050	8b 4d f8	 mov	 ecx, DWORD PTR _this$[ebp]
  00053	e8 00 00 00 00	 call	 ?pop_back@?$deque@U?$pair@MUD3DXVECTOR3@@@std@@V?$allocator@U?$pair@MUD3DXVECTOR3@@@std@@@2@@std@@QAEXXZ ; std::deque<std::pair<float,D3DXVECTOR3>,std::allocator<std::pair<float,D3DXVECTOR3> > >::pop_back

; 1475 :         }

  00058	eb c4		 jmp	 SHORT $LN2@Tidy
$LN3@Tidy:

; 1530 :         return _Mypair._Myval2;

  0005a	8b 45 f8	 mov	 eax, DWORD PTR _this$[ebp]
  0005d	89 45 e0	 mov	 DWORD PTR $T22[ebp], eax

; 1546 :         return _Get_data()._Mapsize;

  00060	8b 45 e0	 mov	 eax, DWORD PTR $T22[ebp]
  00063	83 c0 08	 add	 eax, 8
  00066	89 45 dc	 mov	 DWORD PTR $T21[ebp], eax

; 1476 : 
; 1477 :         for (size_type _Block = _Mapsize(); 0 < _Block;) { // free storage for a block and destroy pointer

  00069	8b 45 dc	 mov	 eax, DWORD PTR $T21[ebp]
  0006c	8b 00		 mov	 eax, DWORD PTR [eax]
  0006e	89 45 f4	 mov	 DWORD PTR __Block$26[ebp], eax
$LN6@Tidy:
  00071	83 7d f4 00	 cmp	 DWORD PTR __Block$26[ebp], 0
  00075	0f 86 84 00 00
	00		 jbe	 $LN5@Tidy

; 1478 :             if (_Map()[--_Block]) { // free block and destroy its pointer

  0007b	8b 45 f4	 mov	 eax, DWORD PTR __Block$26[ebp]
  0007e	48		 dec	 eax
  0007f	89 45 f4	 mov	 DWORD PTR __Block$26[ebp], eax

; 1530 :         return _Mypair._Myval2;

  00082	8b 45 f8	 mov	 eax, DWORD PTR _this$[ebp]
  00085	89 45 d8	 mov	 DWORD PTR $T20[ebp], eax

; 1538 :         return _Get_data()._Map;

  00088	8b 45 d8	 mov	 eax, DWORD PTR $T20[ebp]
  0008b	83 c0 04	 add	 eax, 4
  0008e	89 45 d4	 mov	 DWORD PTR $T19[ebp], eax

; 1478 :             if (_Map()[--_Block]) { // free block and destroy its pointer

  00091	8b 45 d4	 mov	 eax, DWORD PTR $T19[ebp]
  00094	8b 00		 mov	 eax, DWORD PTR [eax]
  00096	8b 4d f4	 mov	 ecx, DWORD PTR __Block$26[ebp]
  00099	83 3c 88 00	 cmp	 DWORD PTR [eax+ecx*4], 0
  0009d	74 5b		 je	 SHORT $LN7@Tidy

; 1530 :         return _Mypair._Myval2;

  0009f	8b 45 f8	 mov	 eax, DWORD PTR _this$[ebp]
  000a2	89 45 d0	 mov	 DWORD PTR $T18[ebp], eax

; 1538 :         return _Get_data()._Map;

  000a5	8b 45 d0	 mov	 eax, DWORD PTR $T18[ebp]
  000a8	83 c0 04	 add	 eax, 4
  000ab	89 45 c8	 mov	 DWORD PTR $T16[ebp], eax

; 1522 :         return _Mypair._Get_first();

  000ae	8b 45 f8	 mov	 eax, DWORD PTR _this$[ebp]
; File C:\Program Files (x86)\Microsoft Visual Studio\2019\Community\VC\Tools\MSVC\14.28.29333\include\xmemory

; 1347 :         return *this;

  000b1	89 45 cc	 mov	 DWORD PTR $T17[ebp], eax
; File C:\Program Files (x86)\Microsoft Visual Studio\2019\Community\VC\Tools\MSVC\14.28.29333\include\deque

; 1522 :         return _Mypair._Get_first();

  000b4	8b 45 cc	 mov	 eax, DWORD PTR $T17[ebp]
  000b7	89 45 80	 mov	 DWORD PTR $T1[ebp], eax

; 1479 :                 _Getal().deallocate(_Map()[_Block], _DEQUESIZ);

  000ba	8b 45 c8	 mov	 eax, DWORD PTR $T16[ebp]
  000bd	8b 00		 mov	 eax, DWORD PTR [eax]
  000bf	8b 4d f4	 mov	 ecx, DWORD PTR __Block$26[ebp]
  000c2	8b 04 88	 mov	 eax, DWORD PTR [eax+ecx*4]
  000c5	89 45 c4	 mov	 DWORD PTR __Ptr$[ebp], eax
; File C:\Program Files (x86)\Microsoft Visual Studio\2019\Community\VC\Tools\MSVC\14.28.29333\include\xmemory

; 810  :         _Deallocate<_New_alignof<_Ty>>(_Ptr, sizeof(_Ty) * _Count);

  000c8	33 c0		 xor	 eax, eax
  000ca	40		 inc	 eax
  000cb	c1 e0 04	 shl	 eax, 4
  000ce	50		 push	 eax
  000cf	ff 75 c4	 push	 DWORD PTR __Ptr$[ebp]
  000d2	e8 00 00 00 00	 call	 ??$_Deallocate@$07$0A@@std@@YAXPAXI@Z ; std::_Deallocate<8,0>
  000d7	59		 pop	 ecx
  000d8	59		 pop	 ecx
; File C:\Program Files (x86)\Microsoft Visual Studio\2019\Community\VC\Tools\MSVC\14.28.29333\include\deque

; 1530 :         return _Mypair._Myval2;

  000d9	8b 45 f8	 mov	 eax, DWORD PTR _this$[ebp]
  000dc	89 45 c0	 mov	 DWORD PTR $T15[ebp], eax

; 1538 :         return _Get_data()._Map;

  000df	8b 45 c0	 mov	 eax, DWORD PTR $T15[ebp]
  000e2	83 c0 04	 add	 eax, 4
  000e5	89 45 bc	 mov	 DWORD PTR $T14[ebp], eax

; 1480 :                 _Destroy_in_place(_Map()[_Block]);

  000e8	8b 45 bc	 mov	 eax, DWORD PTR $T14[ebp]
  000eb	8b 00		 mov	 eax, DWORD PTR [eax]
  000ed	8b 4d f4	 mov	 ecx, DWORD PTR __Block$26[ebp]
  000f0	8d 04 88	 lea	 eax, DWORD PTR [eax+ecx*4]
  000f3	50		 push	 eax
  000f4	e8 00 00 00 00	 call	 ??$_Destroy_in_place@PAU?$pair@MUD3DXVECTOR3@@@std@@@std@@YAXAAPAU?$pair@MUD3DXVECTOR3@@@0@@Z ; std::_Destroy_in_place<std::pair<float,D3DXVECTOR3> *>
  000f9	59		 pop	 ecx
$LN7@Tidy:

; 1481 :             }
; 1482 :         }

  000fa	e9 72 ff ff ff	 jmp	 $LN6@Tidy
$LN5@Tidy:

; 1530 :         return _Mypair._Myval2;

  000ff	8b 45 f8	 mov	 eax, DWORD PTR _this$[ebp]
  00102	89 45 b8	 mov	 DWORD PTR $T13[ebp], eax

; 1538 :         return _Get_data()._Map;

  00105	8b 45 b8	 mov	 eax, DWORD PTR $T13[ebp]
  00108	83 c0 04	 add	 eax, 4
  0010b	89 45 b4	 mov	 DWORD PTR $T12[ebp], eax

; 1483 : 
; 1484 :         if (_Map() != _Mapptr()) {

  0010e	8b 45 b4	 mov	 eax, DWORD PTR $T12[ebp]
  00111	83 38 00	 cmp	 DWORD PTR [eax], 0
  00114	74 3f		 je	 SHORT $LN8@Tidy

; 1530 :         return _Mypair._Myval2;

  00116	8b 45 f8	 mov	 eax, DWORD PTR _this$[ebp]
  00119	89 45 b0	 mov	 DWORD PTR $T11[ebp], eax

; 1546 :         return _Get_data()._Mapsize;

  0011c	8b 45 b0	 mov	 eax, DWORD PTR $T11[ebp]
  0011f	83 c0 08	 add	 eax, 8
  00122	89 45 a8	 mov	 DWORD PTR $T9[ebp], eax

; 1530 :         return _Mypair._Myval2;

  00125	8b 45 f8	 mov	 eax, DWORD PTR _this$[ebp]
  00128	89 45 ac	 mov	 DWORD PTR $T10[ebp], eax

; 1538 :         return _Get_data()._Map;

  0012b	8b 45 ac	 mov	 eax, DWORD PTR $T10[ebp]
  0012e	83 c0 04	 add	 eax, 4
  00131	89 45 a4	 mov	 DWORD PTR $T8[ebp], eax

; 1485 :             _Almap.deallocate(_Map(), _Mapsize()); // free storage for map

  00134	8b 45 a8	 mov	 eax, DWORD PTR $T9[ebp]
  00137	8b 00		 mov	 eax, DWORD PTR [eax]
  00139	89 45 a0	 mov	 DWORD PTR __Count$[ebp], eax
  0013c	8b 45 a4	 mov	 eax, DWORD PTR $T8[ebp]
  0013f	8b 00		 mov	 eax, DWORD PTR [eax]
  00141	89 45 9c	 mov	 DWORD PTR __Ptr$[ebp], eax
; File C:\Program Files (x86)\Microsoft Visual Studio\2019\Community\VC\Tools\MSVC\14.28.29333\include\xmemory

; 810  :         _Deallocate<_New_alignof<_Ty>>(_Ptr, sizeof(_Ty) * _Count);

  00144	8b 45 a0	 mov	 eax, DWORD PTR __Count$[ebp]
  00147	c1 e0 02	 shl	 eax, 2
  0014a	50		 push	 eax
  0014b	ff 75 9c	 push	 DWORD PTR __Ptr$[ebp]
  0014e	e8 00 00 00 00	 call	 ??$_Deallocate@$07$0A@@std@@YAXPAXI@Z ; std::_Deallocate<8,0>
  00153	59		 pop	 ecx
  00154	59		 pop	 ecx
$LN8@Tidy:
; File C:\Program Files (x86)\Microsoft Visual Studio\2019\Community\VC\Tools\MSVC\14.28.29333\include\deque

; 1530 :         return _Mypair._Myval2;

  00155	8b 45 f8	 mov	 eax, DWORD PTR _this$[ebp]
  00158	89 45 98	 mov	 DWORD PTR $T7[ebp], eax

; 1546 :         return _Get_data()._Mapsize;

  0015b	8b 45 98	 mov	 eax, DWORD PTR $T7[ebp]
  0015e	83 c0 08	 add	 eax, 8
  00161	89 45 94	 mov	 DWORD PTR $T6[ebp], eax

; 1486 :         }
; 1487 : 
; 1488 :         _Mapsize() = 0;

  00164	8b 45 94	 mov	 eax, DWORD PTR $T6[ebp]
  00167	83 20 00	 and	 DWORD PTR [eax], 0

; 1530 :         return _Mypair._Myval2;

  0016a	8b 45 f8	 mov	 eax, DWORD PTR _this$[ebp]
  0016d	89 45 90	 mov	 DWORD PTR $T5[ebp], eax

; 1538 :         return _Get_data()._Map;

  00170	8b 45 90	 mov	 eax, DWORD PTR $T5[ebp]
  00173	83 c0 04	 add	 eax, 4
  00176	89 45 8c	 mov	 DWORD PTR $T4[ebp], eax

; 1489 :         _Map()     = _Mapptr();

  00179	8b 45 8c	 mov	 eax, DWORD PTR $T4[ebp]
  0017c	83 20 00	 and	 DWORD PTR [eax], 0

; 1490 :     }

  0017f	c9		 leave
  00180	c3		 ret	 0
?_Tidy@?$deque@U?$pair@MUD3DXVECTOR3@@@std@@V?$allocator@U?$pair@MUD3DXVECTOR3@@@std@@@2@@std@@AAEXXZ ENDP ; std::deque<std::pair<float,D3DXVECTOR3>,std::allocator<std::pair<float,D3DXVECTOR3> > >::_Tidy
_TEXT	ENDS
; Function compile flags: /Odspy
; File C:\Program Files (x86)\Microsoft Visual Studio\2019\Community\VC\Tools\MSVC\14.28.29333\include\deque
; File C:\Program Files (x86)\Microsoft Visual Studio\2019\Community\VC\Tools\MSVC\14.28.29333\include\xmemory
; File C:\Program Files (x86)\Microsoft Visual Studio\2019\Community\VC\Tools\MSVC\14.28.29333\include\deque
; File C:\Program Files (x86)\Microsoft Visual Studio\2019\Community\VC\Tools\MSVC\14.28.29333\include\xmemory
; File C:\Program Files (x86)\Microsoft Visual Studio\2019\Community\VC\Tools\MSVC\14.28.29333\include\deque
; File C:\Program Files (x86)\Microsoft Visual Studio\2019\Community\VC\Tools\MSVC\14.28.29333\include\xmemory
; File C:\Program Files (x86)\Microsoft Visual Studio\2019\Community\VC\Tools\MSVC\14.28.29333\include\limits
; File C:\Program Files (x86)\Microsoft Visual Studio\2019\Community\VC\Tools\MSVC\14.28.29333\include\deque
; File C:\Program Files (x86)\Microsoft Visual Studio\2019\Community\VC\Tools\MSVC\14.28.29333\include\utility
; File C:\Program Files (x86)\Microsoft Visual Studio\2019\Community\VC\Tools\MSVC\14.28.29333\include\deque
; File C:\Program Files (x86)\Microsoft Visual Studio\2019\Community\VC\Tools\MSVC\14.28.29333\include\xmemory
; File C:\Program Files (x86)\Microsoft Visual Studio\2019\Community\VC\Tools\MSVC\14.28.29333\include\deque
; File C:\Program Files (x86)\Microsoft Visual Studio\2019\Community\VC\Tools\MSVC\14.28.29333\include\xmemory
; File C:\Program Files (x86)\Microsoft Visual Studio\2019\Community\VC\Tools\MSVC\14.28.29333\include\deque
;	COMDAT ?_Growmap@?$deque@U?$pair@MUD3DXVECTOR3@@@std@@V?$allocator@U?$pair@MUD3DXVECTOR3@@@std@@@2@@std@@AAEXI@Z
_TEXT	SEGMENT
$T1 = -164						; size = 4
__Max_possible$2 = -160					; size = 4
$T3 = -156						; size = 4
$T4 = -152						; size = 4
$T5 = -148						; size = 4
$T6 = -144						; size = 4
$T7 = -140						; size = 4
__Ptr$ = -136						; size = 4
__Count$ = -132						; size = 4
$T8 = -128						; size = 4
$T9 = -124						; size = 4
$T10 = -120						; size = 4
$T11 = -116						; size = 4
$T12 = -112						; size = 4
$T13 = -108						; size = 4
$T14 = -104						; size = 4
$T15 = -100						; size = 4
$T16 = -96						; size = 4
$T17 = -92						; size = 4
$T18 = -88						; size = 4
$T19 = -84						; size = 4
$T20 = -80						; size = 4
$T21 = -76						; size = 4
$T22 = -72						; size = 4
$T23 = -68						; size = 4
$T24 = -64						; size = 4
$T25 = -60						; size = 4
$T26 = -56						; size = 4
$T27 = -52						; size = 4
$T28 = -48						; size = 4
$T29 = -44						; size = 4
$T30 = -40						; size = 4
$T31 = -36						; size = 4
$T32 = -32						; size = 4
$T33 = -28						; size = 4
$T34 = -24						; size = 4
$T35 = -20						; size = 4
$T36 = -16						; size = 4
$T37 = -12						; size = 4
$T38 = -8						; size = 4
$T39 = -4						; size = 4
$T40 = 0						; size = 4
$T41 = 4						; size = 4
$T42 = 8						; size = 4
$T43 = 12						; size = 4
$T44 = 16						; size = 4
$T45 = 20						; size = 4
$T46 = 24						; size = 4
$T47 = 28						; size = 4
$T48 = 32						; size = 4
$T49 = 36						; size = 4
$T50 = 40						; size = 4
$T51 = 44						; size = 4
$T52 = 48						; size = 4
$T53 = 52						; size = 4
$T54 = 56						; size = 4
$T55 = 60						; size = 4
$T56 = 64						; size = 4
__Count$ = 68						; size = 4
tv230 = 72						; size = 4
$T57 = 76						; size = 4
$T58 = 80						; size = 4
tv73 = 84						; size = 4
tv212 = 88						; size = 4
__Overflow_is_possible$59 = 95				; size = 1
__Newmap$ = 96						; size = 4
__Newsize$ = 100					; size = 4
__Myboff$ = 104						; size = 4
__Myptr$ = 108						; size = 4
_this$ = 112						; size = 4
__Count$ = 124						; size = 4
?_Growmap@?$deque@U?$pair@MUD3DXVECTOR3@@@std@@V?$allocator@U?$pair@MUD3DXVECTOR3@@@std@@@2@@std@@AAEXI@Z PROC ; std::deque<std::pair<float,D3DXVECTOR3>,std::allocator<std::pair<float,D3DXVECTOR3> > >::_Growmap, COMDAT
; _this$ = ecx

; 1430 :     void _Growmap(size_type _Count) { // grow map by at least _Count pointers, _Mapsize() a power of 2

  00000	55		 push	 ebp
  00001	8d 6c 24 8c	 lea	 ebp, DWORD PTR [esp-116]
  00005	81 ec 18 01 00
	00		 sub	 esp, 280		; 00000118H
  0000b	89 4d 70	 mov	 DWORD PTR _this$[ebp], ecx

; 1522 :         return _Mypair._Get_first();

  0000e	8b 45 70	 mov	 eax, DWORD PTR _this$[ebp]
; File C:\Program Files (x86)\Microsoft Visual Studio\2019\Community\VC\Tools\MSVC\14.28.29333\include\xmemory

; 1347 :         return *this;

  00011	89 45 40	 mov	 DWORD PTR $T56[ebp], eax
; File C:\Program Files (x86)\Microsoft Visual Studio\2019\Community\VC\Tools\MSVC\14.28.29333\include\deque

; 1522 :         return _Mypair._Get_first();

  00014	8b 45 40	 mov	 eax, DWORD PTR $T56[ebp]
  00017	89 85 68 ff ff
	ff		 mov	 DWORD PTR $T4[ebp], eax

; 1530 :         return _Mypair._Myval2;

  0001d	8b 45 70	 mov	 eax, DWORD PTR _this$[ebp]
  00020	89 45 3c	 mov	 DWORD PTR $T55[ebp], eax

; 1546 :         return _Get_data()._Mapsize;

  00023	8b 45 3c	 mov	 eax, DWORD PTR $T55[ebp]
  00026	83 c0 08	 add	 eax, 8
  00029	89 45 38	 mov	 DWORD PTR $T54[ebp], eax

; 1431 :         static_assert(1 < _DEQUEMAPSIZ, "The _Xlen() test should always be performed.");
; 1432 : 
; 1433 :         _Alpty _Almap(_Getal());
; 1434 :         size_type _Newsize = 0 < _Mapsize() ? _Mapsize() : 1;

  0002c	8b 45 38	 mov	 eax, DWORD PTR $T54[ebp]
  0002f	83 38 00	 cmp	 DWORD PTR [eax], 0
  00032	76 19		 jbe	 SHORT $LN10@Growmap

; 1530 :         return _Mypair._Myval2;

  00034	8b 45 70	 mov	 eax, DWORD PTR _this$[ebp]
  00037	89 45 34	 mov	 DWORD PTR $T53[ebp], eax

; 1546 :         return _Get_data()._Mapsize;

  0003a	8b 45 34	 mov	 eax, DWORD PTR $T53[ebp]
  0003d	83 c0 08	 add	 eax, 8
  00040	89 45 30	 mov	 DWORD PTR $T52[ebp], eax

; 1431 :         static_assert(1 < _DEQUEMAPSIZ, "The _Xlen() test should always be performed.");
; 1432 : 
; 1433 :         _Alpty _Almap(_Getal());
; 1434 :         size_type _Newsize = 0 < _Mapsize() ? _Mapsize() : 1;

  00043	8b 45 30	 mov	 eax, DWORD PTR $T52[ebp]
  00046	8b 00		 mov	 eax, DWORD PTR [eax]
  00048	89 45 54	 mov	 DWORD PTR tv73[ebp], eax
  0004b	eb 07		 jmp	 SHORT $LN11@Growmap
$LN10@Growmap:
  0004d	c7 45 54 01 00
	00 00		 mov	 DWORD PTR tv73[ebp], 1
$LN11@Growmap:
  00054	8b 45 54	 mov	 eax, DWORD PTR tv73[ebp]
  00057	89 45 64	 mov	 DWORD PTR __Newsize$[ebp], eax
$LN2@Growmap:

; 1530 :         return _Mypair._Myval2;

  0005a	8b 45 70	 mov	 eax, DWORD PTR _this$[ebp]
  0005d	89 45 2c	 mov	 DWORD PTR $T51[ebp], eax

; 1546 :         return _Get_data()._Mapsize;

  00060	8b 45 2c	 mov	 eax, DWORD PTR $T51[ebp]
  00063	83 c0 08	 add	 eax, 8
  00066	89 45 28	 mov	 DWORD PTR $T50[ebp], eax

; 1435 :         while (_Newsize - _Mapsize() < _Count || _Newsize < _DEQUEMAPSIZ) {

  00069	8b 45 28	 mov	 eax, DWORD PTR $T50[ebp]
  0006c	8b 4d 64	 mov	 ecx, DWORD PTR __Newsize$[ebp]
  0006f	2b 08		 sub	 ecx, DWORD PTR [eax]
  00071	3b 4d 7c	 cmp	 ecx, DWORD PTR __Count$[ebp]
  00074	72 06		 jb	 SHORT $LN4@Growmap
  00076	83 7d 64 08	 cmp	 DWORD PTR __Newsize$[ebp], 8
  0007a	73 6d		 jae	 SHORT $LN3@Growmap
$LN4@Growmap:

; 1526 :         return _Mypair._Get_first();

  0007c	8b 45 70	 mov	 eax, DWORD PTR _this$[ebp]
; File C:\Program Files (x86)\Microsoft Visual Studio\2019\Community\VC\Tools\MSVC\14.28.29333\include\xmemory

; 1351 :         return *this;

  0007f	89 45 24	 mov	 DWORD PTR $T49[ebp], eax
; File C:\Program Files (x86)\Microsoft Visual Studio\2019\Community\VC\Tools\MSVC\14.28.29333\include\deque

; 1526 :         return _Mypair._Get_first();

  00082	8b 45 24	 mov	 eax, DWORD PTR $T49[ebp]
  00085	89 85 64 ff ff
	ff		 mov	 DWORD PTR $T3[ebp], eax
; File C:\Program Files (x86)\Microsoft Visual Studio\2019\Community\VC\Tools\MSVC\14.28.29333\include\xmemory

; 710  :         return static_cast<size_t>(-1) / sizeof(value_type);

  0008b	c7 45 50 ff ff
	ff 0f		 mov	 DWORD PTR $T58[ebp], 268435455 ; 0fffffffH
; File C:\Program Files (x86)\Microsoft Visual Studio\2019\Community\VC\Tools\MSVC\14.28.29333\include\limits

; 557  :         return INT_MAX;

  00092	c7 45 20 ff ff
	ff 7f		 mov	 DWORD PTR $T48[ebp], 2147483647 ; 7fffffffH
; File C:\Program Files (x86)\Microsoft Visual Studio\2019\Community\VC\Tools\MSVC\14.28.29333\include\deque

; 1005 :         return (_STD min)(

  00099	8b 45 20	 mov	 eax, DWORD PTR $T48[ebp]
  0009c	89 45 4c	 mov	 DWORD PTR $T57[ebp], eax
; File C:\Program Files (x86)\Microsoft Visual Studio\2019\Community\VC\Tools\MSVC\14.28.29333\include\utility

; 68   :     return _Right < _Left ? _Right : _Left;

  0009f	8b 45 50	 mov	 eax, DWORD PTR $T58[ebp]
  000a2	3b 45 4c	 cmp	 eax, DWORD PTR $T57[ebp]
  000a5	73 08		 jae	 SHORT $LN56@Growmap
  000a7	8d 45 50	 lea	 eax, DWORD PTR $T58[ebp]
  000aa	89 45 48	 mov	 DWORD PTR tv230[ebp], eax
  000ad	eb 06		 jmp	 SHORT $LN57@Growmap
$LN56@Growmap:
  000af	8d 45 4c	 lea	 eax, DWORD PTR $T57[ebp]
  000b2	89 45 48	 mov	 DWORD PTR tv230[ebp], eax
$LN57@Growmap:
  000b5	8b 45 48	 mov	 eax, DWORD PTR tv230[ebp]
  000b8	89 45 1c	 mov	 DWORD PTR $T47[ebp], eax
  000bb	8b 45 1c	 mov	 eax, DWORD PTR $T47[ebp]
  000be	89 45 18	 mov	 DWORD PTR $T46[ebp], eax
; File C:\Program Files (x86)\Microsoft Visual Studio\2019\Community\VC\Tools\MSVC\14.28.29333\include\deque

; 1005 :         return (_STD min)(

  000c1	8b 45 18	 mov	 eax, DWORD PTR $T46[ebp]
  000c4	8b 00		 mov	 eax, DWORD PTR [eax]
  000c6	89 45 14	 mov	 DWORD PTR $T45[ebp], eax

; 1436 :             // scale _Newsize to 2^N >= _Mapsize() + _Count
; 1437 :             if (max_size() / _DEQUESIZ - _Newsize < _Newsize) {

  000c9	8b 45 14	 mov	 eax, DWORD PTR $T45[ebp]
  000cc	2b 45 64	 sub	 eax, DWORD PTR __Newsize$[ebp]
  000cf	3b 45 64	 cmp	 eax, DWORD PTR __Newsize$[ebp]
  000d2	73 08		 jae	 SHORT $LN5@Growmap

; 1438 :                 _Xlen(); // result too long

  000d4	8b 4d 70	 mov	 ecx, DWORD PTR _this$[ebp]
  000d7	e8 00 00 00 00	 call	 ?_Xlen@?$deque@U?$pair@MUD3DXVECTOR3@@@std@@V?$allocator@U?$pair@MUD3DXVECTOR3@@@std@@@2@@std@@ABEXXZ ; std::deque<std::pair<float,D3DXVECTOR3>,std::allocator<std::pair<float,D3DXVECTOR3> > >::_Xlen
$LN5@Growmap:

; 1439 :             }
; 1440 : 
; 1441 :             _Newsize *= 2;

  000dc	8b 45 64	 mov	 eax, DWORD PTR __Newsize$[ebp]
  000df	d1 e0		 shl	 eax, 1
  000e1	89 45 64	 mov	 DWORD PTR __Newsize$[ebp], eax

; 1442 :         }

  000e4	e9 71 ff ff ff	 jmp	 $LN2@Growmap
$LN3@Growmap:

; 1530 :         return _Mypair._Myval2;

  000e9	8b 45 70	 mov	 eax, DWORD PTR _this$[ebp]
  000ec	89 45 10	 mov	 DWORD PTR $T44[ebp], eax

; 1546 :         return _Get_data()._Mapsize;

  000ef	8b 45 10	 mov	 eax, DWORD PTR $T44[ebp]
  000f2	83 c0 08	 add	 eax, 8
  000f5	89 45 0c	 mov	 DWORD PTR $T43[ebp], eax

; 1443 :         _Count = _Newsize - _Mapsize();

  000f8	8b 45 0c	 mov	 eax, DWORD PTR $T43[ebp]
  000fb	8b 4d 64	 mov	 ecx, DWORD PTR __Newsize$[ebp]
  000fe	2b 08		 sub	 ecx, DWORD PTR [eax]
  00100	89 4d 7c	 mov	 DWORD PTR __Count$[ebp], ecx

; 1530 :         return _Mypair._Myval2;

  00103	8b 45 70	 mov	 eax, DWORD PTR _this$[ebp]
  00106	89 45 08	 mov	 DWORD PTR $T42[ebp], eax

; 1554 :         return _Get_data()._Myoff;

  00109	8b 45 08	 mov	 eax, DWORD PTR $T42[ebp]
  0010c	83 c0 0c	 add	 eax, 12			; 0000000cH
  0010f	89 45 04	 mov	 DWORD PTR $T41[ebp], eax

; 1444 : 
; 1445 :         size_type _Myboff = _Myoff() / _DEQUESIZ;

  00112	8b 45 04	 mov	 eax, DWORD PTR $T41[ebp]
  00115	8b 00		 mov	 eax, DWORD PTR [eax]
  00117	89 45 68	 mov	 DWORD PTR __Myboff$[ebp], eax

; 1530 :         return _Mypair._Myval2;

  0011a	8b 45 70	 mov	 eax, DWORD PTR _this$[ebp]
  0011d	89 45 00	 mov	 DWORD PTR $T40[ebp], eax

; 1546 :         return _Get_data()._Mapsize;

  00120	8b 45 00	 mov	 eax, DWORD PTR $T40[ebp]
  00123	83 c0 08	 add	 eax, 8
  00126	89 45 fc	 mov	 DWORD PTR $T39[ebp], eax

; 1446 :         _Mapptr _Newmap   = _Almap.allocate(_Mapsize() + _Count);

  00129	8b 45 fc	 mov	 eax, DWORD PTR $T39[ebp]
  0012c	8b 00		 mov	 eax, DWORD PTR [eax]
  0012e	03 45 7c	 add	 eax, DWORD PTR __Count$[ebp]
  00131	89 45 44	 mov	 DWORD PTR __Count$[ebp], eax
; File C:\Program Files (x86)\Microsoft Visual Studio\2019\Community\VC\Tools\MSVC\14.28.29333\include\xmemory

; 56   :     constexpr bool _Overflow_is_possible = _Ty_size > 1;

  00134	c6 45 5f 01	 mov	 BYTE PTR __Overflow_is_possible$59[ebp], 1

; 57   : 
; 58   :     if _CONSTEXPR_IF (_Overflow_is_possible) {
; 59   :         constexpr size_t _Max_possible = static_cast<size_t>(-1) / _Ty_size;

  00138	c7 85 60 ff ff
	ff ff ff ff 3f	 mov	 DWORD PTR __Max_possible$2[ebp], 1073741823 ; 3fffffffH

; 60   :         if (_Count > _Max_possible) {

  00142	81 7d 44 ff ff
	ff 3f		 cmp	 DWORD PTR __Count$[ebp], 1073741823 ; 3fffffffH
  00149	76 05		 jbe	 SHORT $LN80@Growmap

; 61   :             _Throw_bad_array_new_length(); // multiply overflow

  0014b	e8 00 00 00 00	 call	 ?_Throw_bad_array_new_length@std@@YAXXZ ; std::_Throw_bad_array_new_length
$LN80@Growmap:

; 62   :         }
; 63   :     }
; 64   : 
; 65   :     return _Count * _Ty_size;

  00150	8b 45 44	 mov	 eax, DWORD PTR __Count$[ebp]
  00153	c1 e0 02	 shl	 eax, 2
  00156	89 45 f8	 mov	 DWORD PTR $T38[ebp], eax

; 814  :         return static_cast<_Ty*>(_Allocate<_New_alignof<_Ty>>(_Get_size_of_n<sizeof(_Ty)>(_Count)));

  00159	ff 75 f8	 push	 DWORD PTR $T38[ebp]
  0015c	e8 00 00 00 00	 call	 ??$_Allocate@$07U_Default_allocate_traits@std@@$0A@@std@@YAPAXI@Z ; std::_Allocate<8,std::_Default_allocate_traits,0>
  00161	59		 pop	 ecx
  00162	89 45 60	 mov	 DWORD PTR __Newmap$[ebp], eax
; File C:\Program Files (x86)\Microsoft Visual Studio\2019\Community\VC\Tools\MSVC\14.28.29333\include\deque

; 1447 :         _Mapptr _Myptr    = _Newmap + _Myboff;

  00165	8b 45 68	 mov	 eax, DWORD PTR __Myboff$[ebp]
  00168	8b 4d 60	 mov	 ecx, DWORD PTR __Newmap$[ebp]
  0016b	8d 04 81	 lea	 eax, DWORD PTR [ecx+eax*4]
  0016e	89 45 6c	 mov	 DWORD PTR __Myptr$[ebp], eax

; 1530 :         return _Mypair._Myval2;

  00171	8b 45 70	 mov	 eax, DWORD PTR _this$[ebp]
  00174	89 45 f4	 mov	 DWORD PTR $T37[ebp], eax

; 1538 :         return _Get_data()._Map;

  00177	8b 45 f4	 mov	 eax, DWORD PTR $T37[ebp]
  0017a	83 c0 04	 add	 eax, 4
  0017d	89 45 e4	 mov	 DWORD PTR $T33[ebp], eax

; 1530 :         return _Mypair._Myval2;

  00180	8b 45 70	 mov	 eax, DWORD PTR _this$[ebp]
  00183	89 45 f0	 mov	 DWORD PTR $T36[ebp], eax

; 1546 :         return _Get_data()._Mapsize;

  00186	8b 45 f0	 mov	 eax, DWORD PTR $T36[ebp]
  00189	83 c0 08	 add	 eax, 8
  0018c	89 45 e8	 mov	 DWORD PTR $T34[ebp], eax

; 1530 :         return _Mypair._Myval2;

  0018f	8b 45 70	 mov	 eax, DWORD PTR _this$[ebp]
  00192	89 45 ec	 mov	 DWORD PTR $T35[ebp], eax

; 1538 :         return _Get_data()._Map;

  00195	8b 45 ec	 mov	 eax, DWORD PTR $T35[ebp]
  00198	83 c0 04	 add	 eax, 4
  0019b	89 45 e0	 mov	 DWORD PTR $T32[ebp], eax

; 1448 : 
; 1449 :         _Myptr = _STD uninitialized_copy(_Map() + _Myboff, _Map() + _Mapsize(), _Myptr); // copy initial to end

  0019e	ff 75 6c	 push	 DWORD PTR __Myptr$[ebp]
  001a1	8b 45 e8	 mov	 eax, DWORD PTR $T34[ebp]
  001a4	8b 00		 mov	 eax, DWORD PTR [eax]
  001a6	8b 4d e4	 mov	 ecx, DWORD PTR $T33[ebp]
  001a9	8b 09		 mov	 ecx, DWORD PTR [ecx]
  001ab	8d 04 81	 lea	 eax, DWORD PTR [ecx+eax*4]
  001ae	50		 push	 eax
  001af	8b 45 e0	 mov	 eax, DWORD PTR $T32[ebp]
  001b2	8b 00		 mov	 eax, DWORD PTR [eax]
  001b4	8b 4d 68	 mov	 ecx, DWORD PTR __Myboff$[ebp]
  001b7	8d 04 88	 lea	 eax, DWORD PTR [eax+ecx*4]
  001ba	50		 push	 eax
  001bb	e8 00 00 00 00	 call	 ??$uninitialized_copy@PAPAU?$pair@MUD3DXVECTOR3@@@std@@PAPAU12@@std@@YAPAPAU?$pair@MUD3DXVECTOR3@@@0@QAPAU10@0PAPAU10@@Z ; std::uninitialized_copy<std::pair<float,D3DXVECTOR3> * *,std::pair<float,D3DXVECTOR3> * *>
  001c0	83 c4 0c	 add	 esp, 12			; 0000000cH
  001c3	89 45 6c	 mov	 DWORD PTR __Myptr$[ebp], eax

; 1450 :         if (_Myboff <= _Count) { // increment greater than offset of initial block

  001c6	8b 45 68	 mov	 eax, DWORD PTR __Myboff$[ebp]
  001c9	3b 45 7c	 cmp	 eax, DWORD PTR __Count$[ebp]
  001cc	77 60		 ja	 SHORT $LN6@Growmap

; 1530 :         return _Mypair._Myval2;

  001ce	8b 45 70	 mov	 eax, DWORD PTR _this$[ebp]
  001d1	89 45 dc	 mov	 DWORD PTR $T31[ebp], eax

; 1538 :         return _Get_data()._Map;

  001d4	8b 45 dc	 mov	 eax, DWORD PTR $T31[ebp]
  001d7	83 c0 04	 add	 eax, 4
  001da	89 45 d4	 mov	 DWORD PTR $T29[ebp], eax

; 1530 :         return _Mypair._Myval2;

  001dd	8b 45 70	 mov	 eax, DWORD PTR _this$[ebp]
  001e0	89 45 d8	 mov	 DWORD PTR $T30[ebp], eax

; 1538 :         return _Get_data()._Map;

  001e3	8b 45 d8	 mov	 eax, DWORD PTR $T30[ebp]
  001e6	83 c0 04	 add	 eax, 4
  001e9	89 45 d0	 mov	 DWORD PTR $T28[ebp], eax

; 1451 :             _Myptr = _STD uninitialized_copy(_Map(), _Map() + _Myboff, _Myptr); // copy rest of old

  001ec	ff 75 6c	 push	 DWORD PTR __Myptr$[ebp]
  001ef	8b 45 d4	 mov	 eax, DWORD PTR $T29[ebp]
  001f2	8b 00		 mov	 eax, DWORD PTR [eax]
  001f4	8b 4d 68	 mov	 ecx, DWORD PTR __Myboff$[ebp]
  001f7	8d 04 88	 lea	 eax, DWORD PTR [eax+ecx*4]
  001fa	50		 push	 eax
  001fb	8b 45 d0	 mov	 eax, DWORD PTR $T28[ebp]
  001fe	ff 30		 push	 DWORD PTR [eax]
  00200	e8 00 00 00 00	 call	 ??$uninitialized_copy@PAPAU?$pair@MUD3DXVECTOR3@@@std@@PAPAU12@@std@@YAPAPAU?$pair@MUD3DXVECTOR3@@@0@QAPAU10@0PAPAU10@@Z ; std::uninitialized_copy<std::pair<float,D3DXVECTOR3> * *,std::pair<float,D3DXVECTOR3> * *>
  00205	83 c4 0c	 add	 esp, 12			; 0000000cH
  00208	89 45 6c	 mov	 DWORD PTR __Myptr$[ebp], eax

; 1452 :             _Uninitialized_value_construct_n_unchecked1(_Myptr, _Count - _Myboff); // clear suffix of new

  0020b	8b 45 7c	 mov	 eax, DWORD PTR __Count$[ebp]
  0020e	2b 45 68	 sub	 eax, DWORD PTR __Myboff$[ebp]
  00211	50		 push	 eax
  00212	ff 75 6c	 push	 DWORD PTR __Myptr$[ebp]
  00215	e8 00 00 00 00	 call	 ??$_Uninitialized_value_construct_n_unchecked1@PAPAU?$pair@MUD3DXVECTOR3@@@std@@I@std@@YAPAPAU?$pair@MUD3DXVECTOR3@@@0@PAPAU10@I@Z ; std::_Uninitialized_value_construct_n_unchecked1<std::pair<float,D3DXVECTOR3> * *,unsigned int>
  0021a	59		 pop	 ecx
  0021b	59		 pop	 ecx

; 1453 :             _Uninitialized_value_construct_n_unchecked1(_Newmap, _Myboff); // clear prefix of new

  0021c	ff 75 68	 push	 DWORD PTR __Myboff$[ebp]
  0021f	ff 75 60	 push	 DWORD PTR __Newmap$[ebp]
  00222	e8 00 00 00 00	 call	 ??$_Uninitialized_value_construct_n_unchecked1@PAPAU?$pair@MUD3DXVECTOR3@@@std@@I@std@@YAPAPAU?$pair@MUD3DXVECTOR3@@@0@PAPAU10@I@Z ; std::_Uninitialized_value_construct_n_unchecked1<std::pair<float,D3DXVECTOR3> * *,unsigned int>
  00227	59		 pop	 ecx
  00228	59		 pop	 ecx

; 1454 :         } else { // increment not greater than offset of initial block

  00229	e9 8b 00 00 00	 jmp	 $LN7@Growmap
$LN6@Growmap:

; 1530 :         return _Mypair._Myval2;

  0022e	8b 45 70	 mov	 eax, DWORD PTR _this$[ebp]
  00231	89 45 cc	 mov	 DWORD PTR $T27[ebp], eax

; 1538 :         return _Get_data()._Map;

  00234	8b 45 cc	 mov	 eax, DWORD PTR $T27[ebp]
  00237	83 c0 04	 add	 eax, 4
  0023a	89 45 c4	 mov	 DWORD PTR $T25[ebp], eax

; 1530 :         return _Mypair._Myval2;

  0023d	8b 45 70	 mov	 eax, DWORD PTR _this$[ebp]
  00240	89 45 c8	 mov	 DWORD PTR $T26[ebp], eax

; 1538 :         return _Get_data()._Map;

  00243	8b 45 c8	 mov	 eax, DWORD PTR $T26[ebp]
  00246	83 c0 04	 add	 eax, 4
  00249	89 45 c0	 mov	 DWORD PTR $T24[ebp], eax

; 1455 :             _STD uninitialized_copy(_Map(), _Map() + _Count, _Myptr); // copy more old

  0024c	ff 75 6c	 push	 DWORD PTR __Myptr$[ebp]
  0024f	8b 45 c4	 mov	 eax, DWORD PTR $T25[ebp]
  00252	8b 00		 mov	 eax, DWORD PTR [eax]
  00254	8b 4d 7c	 mov	 ecx, DWORD PTR __Count$[ebp]
  00257	8d 04 88	 lea	 eax, DWORD PTR [eax+ecx*4]
  0025a	50		 push	 eax
  0025b	8b 45 c0	 mov	 eax, DWORD PTR $T24[ebp]
  0025e	ff 30		 push	 DWORD PTR [eax]
  00260	e8 00 00 00 00	 call	 ??$uninitialized_copy@PAPAU?$pair@MUD3DXVECTOR3@@@std@@PAPAU12@@std@@YAPAPAU?$pair@MUD3DXVECTOR3@@@0@QAPAU10@0PAPAU10@@Z ; std::uninitialized_copy<std::pair<float,D3DXVECTOR3> * *,std::pair<float,D3DXVECTOR3> * *>
  00265	83 c4 0c	 add	 esp, 12			; 0000000cH

; 1530 :         return _Mypair._Myval2;

  00268	8b 45 70	 mov	 eax, DWORD PTR _this$[ebp]
  0026b	89 45 bc	 mov	 DWORD PTR $T23[ebp], eax

; 1538 :         return _Get_data()._Map;

  0026e	8b 45 bc	 mov	 eax, DWORD PTR $T23[ebp]
  00271	83 c0 04	 add	 eax, 4
  00274	89 45 b4	 mov	 DWORD PTR $T21[ebp], eax

; 1530 :         return _Mypair._Myval2;

  00277	8b 45 70	 mov	 eax, DWORD PTR _this$[ebp]
  0027a	89 45 b8	 mov	 DWORD PTR $T22[ebp], eax

; 1538 :         return _Get_data()._Map;

  0027d	8b 45 b8	 mov	 eax, DWORD PTR $T22[ebp]
  00280	83 c0 04	 add	 eax, 4
  00283	89 45 b0	 mov	 DWORD PTR $T20[ebp], eax

; 1456 :             _Myptr = _STD uninitialized_copy(_Map() + _Count, _Map() + _Myboff, _Newmap); // copy rest of old

  00286	ff 75 60	 push	 DWORD PTR __Newmap$[ebp]
  00289	8b 45 b4	 mov	 eax, DWORD PTR $T21[ebp]
  0028c	8b 00		 mov	 eax, DWORD PTR [eax]
  0028e	8b 4d 68	 mov	 ecx, DWORD PTR __Myboff$[ebp]
  00291	8d 04 88	 lea	 eax, DWORD PTR [eax+ecx*4]
  00294	50		 push	 eax
  00295	8b 45 b0	 mov	 eax, DWORD PTR $T20[ebp]
  00298	8b 00		 mov	 eax, DWORD PTR [eax]
  0029a	8b 4d 7c	 mov	 ecx, DWORD PTR __Count$[ebp]
  0029d	8d 04 88	 lea	 eax, DWORD PTR [eax+ecx*4]
  002a0	50		 push	 eax
  002a1	e8 00 00 00 00	 call	 ??$uninitialized_copy@PAPAU?$pair@MUD3DXVECTOR3@@@std@@PAPAU12@@std@@YAPAPAU?$pair@MUD3DXVECTOR3@@@0@QAPAU10@0PAPAU10@@Z ; std::uninitialized_copy<std::pair<float,D3DXVECTOR3> * *,std::pair<float,D3DXVECTOR3> * *>
  002a6	83 c4 0c	 add	 esp, 12			; 0000000cH
  002a9	89 45 6c	 mov	 DWORD PTR __Myptr$[ebp], eax

; 1457 :             _Uninitialized_value_construct_n_unchecked1(_Myptr, _Count); // clear rest to initial block

  002ac	ff 75 7c	 push	 DWORD PTR __Count$[ebp]
  002af	ff 75 6c	 push	 DWORD PTR __Myptr$[ebp]
  002b2	e8 00 00 00 00	 call	 ??$_Uninitialized_value_construct_n_unchecked1@PAPAU?$pair@MUD3DXVECTOR3@@@std@@I@std@@YAPAPAU?$pair@MUD3DXVECTOR3@@@0@PAPAU10@I@Z ; std::_Uninitialized_value_construct_n_unchecked1<std::pair<float,D3DXVECTOR3> * *,unsigned int>
  002b7	59		 pop	 ecx
  002b8	59		 pop	 ecx
$LN7@Growmap:

; 1530 :         return _Mypair._Myval2;

  002b9	8b 45 70	 mov	 eax, DWORD PTR _this$[ebp]
  002bc	89 45 ac	 mov	 DWORD PTR $T19[ebp], eax

; 1538 :         return _Get_data()._Map;

  002bf	8b 45 ac	 mov	 eax, DWORD PTR $T19[ebp]
  002c2	83 c0 04	 add	 eax, 4
  002c5	89 45 9c	 mov	 DWORD PTR $T15[ebp], eax

; 1530 :         return _Mypair._Myval2;

  002c8	8b 45 70	 mov	 eax, DWORD PTR _this$[ebp]
  002cb	89 45 a8	 mov	 DWORD PTR $T18[ebp], eax

; 1546 :         return _Get_data()._Mapsize;

  002ce	8b 45 a8	 mov	 eax, DWORD PTR $T18[ebp]
  002d1	83 c0 08	 add	 eax, 8
  002d4	89 45 a0	 mov	 DWORD PTR $T16[ebp], eax

; 1530 :         return _Mypair._Myval2;

  002d7	8b 45 70	 mov	 eax, DWORD PTR _this$[ebp]
  002da	89 45 a4	 mov	 DWORD PTR $T17[ebp], eax

; 1538 :         return _Get_data()._Map;

  002dd	8b 45 a4	 mov	 eax, DWORD PTR $T17[ebp]
  002e0	83 c0 04	 add	 eax, 4
  002e3	89 45 98	 mov	 DWORD PTR $T14[ebp], eax

; 1458 :         }
; 1459 : 
; 1460 :         _Destroy_range(_Map() + _Myboff, _Map() + _Mapsize());

  002e6	8b 45 a0	 mov	 eax, DWORD PTR $T16[ebp]
  002e9	8b 00		 mov	 eax, DWORD PTR [eax]
  002eb	8b 4d 9c	 mov	 ecx, DWORD PTR $T15[ebp]
  002ee	8b 09		 mov	 ecx, DWORD PTR [ecx]
  002f0	8d 04 81	 lea	 eax, DWORD PTR [ecx+eax*4]
  002f3	50		 push	 eax
  002f4	8b 45 98	 mov	 eax, DWORD PTR $T14[ebp]
  002f7	8b 00		 mov	 eax, DWORD PTR [eax]
  002f9	8b 4d 68	 mov	 ecx, DWORD PTR __Myboff$[ebp]
  002fc	8d 04 88	 lea	 eax, DWORD PTR [eax+ecx*4]
  002ff	50		 push	 eax
  00300	e8 00 00 00 00	 call	 ??$_Destroy_range@PAPAU?$pair@MUD3DXVECTOR3@@@std@@PAPAU12@@std@@YAXPAPAU?$pair@MUD3DXVECTOR3@@@0@QAPAU10@@Z ; std::_Destroy_range<std::pair<float,D3DXVECTOR3> * *,std::pair<float,D3DXVECTOR3> * *>
  00305	59		 pop	 ecx
  00306	59		 pop	 ecx

; 1530 :         return _Mypair._Myval2;

  00307	8b 45 70	 mov	 eax, DWORD PTR _this$[ebp]
  0030a	89 45 94	 mov	 DWORD PTR $T13[ebp], eax

; 1538 :         return _Get_data()._Map;

  0030d	8b 45 94	 mov	 eax, DWORD PTR $T13[ebp]
  00310	83 c0 04	 add	 eax, 4
  00313	89 45 90	 mov	 DWORD PTR $T12[ebp], eax

; 1461 :         if (_Map() != _Mapptr()) {

  00316	8b 45 90	 mov	 eax, DWORD PTR $T12[ebp]
  00319	83 38 00	 cmp	 DWORD PTR [eax], 0
  0031c	74 4b		 je	 SHORT $LN8@Growmap

; 1530 :         return _Mypair._Myval2;

  0031e	8b 45 70	 mov	 eax, DWORD PTR _this$[ebp]
  00321	89 45 8c	 mov	 DWORD PTR $T11[ebp], eax

; 1546 :         return _Get_data()._Mapsize;

  00324	8b 45 8c	 mov	 eax, DWORD PTR $T11[ebp]
  00327	83 c0 08	 add	 eax, 8
  0032a	89 45 84	 mov	 DWORD PTR $T9[ebp], eax

; 1530 :         return _Mypair._Myval2;

  0032d	8b 45 70	 mov	 eax, DWORD PTR _this$[ebp]
  00330	89 45 88	 mov	 DWORD PTR $T10[ebp], eax

; 1538 :         return _Get_data()._Map;

  00333	8b 45 88	 mov	 eax, DWORD PTR $T10[ebp]
  00336	83 c0 04	 add	 eax, 4
  00339	89 45 80	 mov	 DWORD PTR $T8[ebp], eax

; 1462 :             _Almap.deallocate(_Map(), _Mapsize()); // free storage for old

  0033c	8b 45 84	 mov	 eax, DWORD PTR $T9[ebp]
  0033f	8b 00		 mov	 eax, DWORD PTR [eax]
  00341	89 85 7c ff ff
	ff		 mov	 DWORD PTR __Count$[ebp], eax
  00347	8b 45 80	 mov	 eax, DWORD PTR $T8[ebp]
  0034a	8b 00		 mov	 eax, DWORD PTR [eax]
  0034c	89 85 78 ff ff
	ff		 mov	 DWORD PTR __Ptr$[ebp], eax
; File C:\Program Files (x86)\Microsoft Visual Studio\2019\Community\VC\Tools\MSVC\14.28.29333\include\xmemory

; 810  :         _Deallocate<_New_alignof<_Ty>>(_Ptr, sizeof(_Ty) * _Count);

  00352	8b 85 7c ff ff
	ff		 mov	 eax, DWORD PTR __Count$[ebp]
  00358	c1 e0 02	 shl	 eax, 2
  0035b	50		 push	 eax
  0035c	ff b5 78 ff ff
	ff		 push	 DWORD PTR __Ptr$[ebp]
  00362	e8 00 00 00 00	 call	 ??$_Deallocate@$07$0A@@std@@YAXPAXI@Z ; std::_Deallocate<8,0>
  00367	59		 pop	 ecx
  00368	59		 pop	 ecx
$LN8@Growmap:
; File C:\Program Files (x86)\Microsoft Visual Studio\2019\Community\VC\Tools\MSVC\14.28.29333\include\deque

; 1530 :         return _Mypair._Myval2;

  00369	8b 45 70	 mov	 eax, DWORD PTR _this$[ebp]
  0036c	89 85 74 ff ff
	ff		 mov	 DWORD PTR $T7[ebp], eax

; 1538 :         return _Get_data()._Map;

  00372	8b 85 74 ff ff
	ff		 mov	 eax, DWORD PTR $T7[ebp]
  00378	83 c0 04	 add	 eax, 4
  0037b	89 85 70 ff ff
	ff		 mov	 DWORD PTR $T6[ebp], eax

; 1463 :         }
; 1464 : 
; 1465 :         _Map() = _Newmap; // point at new

  00381	8b 85 70 ff ff
	ff		 mov	 eax, DWORD PTR $T6[ebp]
  00387	8b 4d 60	 mov	 ecx, DWORD PTR __Newmap$[ebp]
  0038a	89 08		 mov	 DWORD PTR [eax], ecx

; 1466 :         _Mapsize() += _Count;

  0038c	8b 85 5c ff ff
	ff		 mov	 eax, DWORD PTR $T1[ebp]
  00392	89 45 58	 mov	 DWORD PTR tv212[ebp], eax

; 1530 :         return _Mypair._Myval2;

  00395	8b 45 70	 mov	 eax, DWORD PTR _this$[ebp]
  00398	89 85 6c ff ff
	ff		 mov	 DWORD PTR $T5[ebp], eax

; 1546 :         return _Get_data()._Mapsize;

  0039e	8b 85 6c ff ff
	ff		 mov	 eax, DWORD PTR $T5[ebp]
  003a4	83 c0 08	 add	 eax, 8
  003a7	89 45 58	 mov	 DWORD PTR tv212[ebp], eax

; 1466 :         _Mapsize() += _Count;

  003aa	8b 45 58	 mov	 eax, DWORD PTR tv212[ebp]
  003ad	8b 00		 mov	 eax, DWORD PTR [eax]
  003af	03 45 7c	 add	 eax, DWORD PTR __Count$[ebp]
  003b2	8b 4d 58	 mov	 ecx, DWORD PTR tv212[ebp]
  003b5	89 01		 mov	 DWORD PTR [ecx], eax
$LN83@Growmap:

; 1467 :     }

  003b7	83 c5 74	 add	 ebp, 116		; 00000074H
  003ba	c9		 leave
  003bb	c2 04 00	 ret	 4
?_Growmap@?$deque@U?$pair@MUD3DXVECTOR3@@@std@@V?$allocator@U?$pair@MUD3DXVECTOR3@@@std@@@2@@std@@AAEXI@Z ENDP ; std::deque<std::pair<float,D3DXVECTOR3>,std::allocator<std::pair<float,D3DXVECTOR3> > >::_Growmap
_TEXT	ENDS
; Function compile flags: /Odspy
; File C:\Program Files (x86)\Microsoft Visual Studio\2019\Community\VC\Tools\MSVC\14.28.29333\include\deque
;	COMDAT ?_Xlen@?$deque@U?$pair@MUD3DXVECTOR3@@@std@@V?$allocator@U?$pair@MUD3DXVECTOR3@@@std@@@2@@std@@ABEXXZ
_TEXT	SEGMENT
_this$ = -4						; size = 4
?_Xlen@?$deque@U?$pair@MUD3DXVECTOR3@@@std@@V?$allocator@U?$pair@MUD3DXVECTOR3@@@std@@@2@@std@@ABEXXZ PROC ; std::deque<std::pair<float,D3DXVECTOR3>,std::allocator<std::pair<float,D3DXVECTOR3> > >::_Xlen, COMDAT
; _this$ = ecx

; 1422 :     [[noreturn]] void _Xlen() const {

  00000	55		 push	 ebp
  00001	8b ec		 mov	 ebp, esp
  00003	51		 push	 ecx
  00004	89 4d fc	 mov	 DWORD PTR _this$[ebp], ecx

; 1423 :         _Xlength_error("deque<T> too long");

  00007	68 00 00 00 00	 push	 OFFSET ??_C@_0BC@KBDMBKEH@deque?$DMT?$DO?5too?5long@
  0000c	e8 00 00 00 00	 call	 ?_Xlength_error@std@@YAXPBD@Z ; std::_Xlength_error
$LN2@Xlen:

; 1424 :     }

  00011	c9		 leave
  00012	c3		 ret	 0
?_Xlen@?$deque@U?$pair@MUD3DXVECTOR3@@@std@@V?$allocator@U?$pair@MUD3DXVECTOR3@@@std@@@2@@std@@ABEXXZ ENDP ; std::deque<std::pair<float,D3DXVECTOR3>,std::allocator<std::pair<float,D3DXVECTOR3> > >::_Xlen
_TEXT	ENDS
; Function compile flags: /Odspy
; File C:\Program Files (x86)\Microsoft Visual Studio\2019\Community\VC\Tools\MSVC\14.28.29333\include\deque
; File C:\Program Files (x86)\Microsoft Visual Studio\2019\Community\VC\Tools\MSVC\14.28.29333\include\xmemory
; File C:\Program Files (x86)\Microsoft Visual Studio\2019\Community\VC\Tools\MSVC\14.28.29333\include\deque
; File C:\Program Files (x86)\Microsoft Visual Studio\2019\Community\VC\Tools\MSVC\14.28.29333\include\xstddef
; File C:\Program Files (x86)\Microsoft Visual Studio\2019\Community\VC\Tools\MSVC\14.28.29333\include\deque
; File C:\Program Files (x86)\Microsoft Visual Studio\2019\Community\VC\Tools\MSVC\14.28.29333\include\xmemory
; File C:\Program Files (x86)\Microsoft Visual Studio\2019\Community\VC\Tools\MSVC\14.28.29333\include\deque
; File C:\Program Files (x86)\Microsoft Visual Studio\2019\Community\VC\Tools\MSVC\14.28.29333\include\xstddef
; File C:\Program Files (x86)\Microsoft Visual Studio\2019\Community\VC\Tools\MSVC\14.28.29333\include\deque
;	COMDAT ?erase@?$deque@U?$pair@MUD3DXVECTOR3@@@std@@V?$allocator@U?$pair@MUD3DXVECTOR3@@@std@@@2@@std@@QAE?AV?$_Deque_iterator@V?$_Deque_val@U?$_Deque_simple_types@U?$pair@MUD3DXVECTOR3@@@std@@@std@@@std@@@2@V?$_Deque_const_iterator@V?$_Deque_val@U?$_Deque_simple_types@U?$pair@MUD3DXVECTOR3@@@std@@@std@@@std@@@2@0@Z
_TEXT	SEGMENT
$T2 = -132						; size = 12
$T3 = -120						; size = 12
$T4 = -108						; size = 12
$T5 = -96						; size = 12
$T6 = -84						; size = 12
$T7 = -72						; size = 12
$T8 = -60						; size = 12
$T9 = -48						; size = 4
$T10 = -44						; size = 4
$T11 = -40						; size = 4
$T12 = -36						; size = 4
$T13 = -32						; size = 4
$T14 = -28						; size = 4
__Last$ = -24						; size = 12
__$EHRec$ = -12						; size = 12
__First$ = 0						; size = 12
_this$ = 12						; size = 4
_this$ = 16						; size = 4
_this$ = 20						; size = 4
_this$ = 24						; size = 4
$T15 = 28						; size = 4
_this$ = 32						; size = 4
$T16 = 36						; size = 4
$T17 = 40						; size = 4
__Right$ = 44						; size = 4
$T18 = 48						; size = 4
$T19 = 52						; size = 4
$T20 = 56						; size = 4
$T21 = 60						; size = 4
__Off$ = 64						; size = 4
tv181 = 68						; size = 4
_this$ = 72						; size = 4
_this$ = 76						; size = 4
__Count$ = 80						; size = 4
$T22 = 87						; size = 1
_this$ = 88						; size = 4
___$ReturnUdt$ = 100					; size = 4
__First_arg$ = 104					; size = 12
__Last_arg$ = 116					; size = 12
?erase@?$deque@U?$pair@MUD3DXVECTOR3@@@std@@V?$allocator@U?$pair@MUD3DXVECTOR3@@@std@@@2@@std@@QAE?AV?$_Deque_iterator@V?$_Deque_val@U?$_Deque_simple_types@U?$pair@MUD3DXVECTOR3@@@std@@@std@@@std@@@2@V?$_Deque_const_iterator@V?$_Deque_val@U?$_Deque_simple_types@U?$pair@MUD3DXVECTOR3@@@std@@@std@@@std@@@2@0@Z PROC ; std::deque<std::pair<float,D3DXVECTOR3>,std::allocator<std::pair<float,D3DXVECTOR3> > >::erase, COMDAT
; _this$ = ecx

; 1279 :         is_nothrow_move_assignable_v<value_type>) /* strengthened */ {

  00000	55		 push	 ebp
  00001	8d 6c 24 a4	 lea	 ebp, DWORD PTR [esp-92]
  00005	83 ec 5c	 sub	 esp, 92			; 0000005cH
  00008	6a ff		 push	 -1
  0000a	68 00 00 00 00	 push	 __ehhandler$?erase@?$deque@U?$pair@MUD3DXVECTOR3@@@std@@V?$allocator@U?$pair@MUD3DXVECTOR3@@@std@@@2@@std@@QAE?AV?$_Deque_iterator@V?$_Deque_val@U?$_Deque_simple_types@U?$pair@MUD3DXVECTOR3@@@std@@@std@@@std@@@2@V?$_Deque_const_iterator@V?$_Deque_val@U?$_Deque_simple_types@U?$pair@MUD3DXVECTOR3@@@std@@@std@@@std@@@2@0@Z
  0000f	64 a1 00 00 00
	00		 mov	 eax, DWORD PTR fs:0
  00015	50		 push	 eax
  00016	83 ec 78	 sub	 esp, 120		; 00000078H
  00019	a1 00 00 00 00	 mov	 eax, DWORD PTR ___security_cookie
  0001e	33 c5		 xor	 eax, ebp
  00020	50		 push	 eax
  00021	8d 45 f4	 lea	 eax, DWORD PTR __$EHRec$[ebp]
  00024	64 a3 00 00 00
	00		 mov	 DWORD PTR fs:0, eax
  0002a	89 4d 58	 mov	 DWORD PTR _this$[ebp], ecx

; 1280 :         iterator _First = _Make_iter(_First_arg);

  0002d	8d 45 c4	 lea	 eax, DWORD PTR $T8[ebp]
  00030	89 45 4c	 mov	 DWORD PTR _this$[ebp], eax
; File C:\Program Files (x86)\Microsoft Visual Studio\2019\Community\VC\Tools\MSVC\14.28.29333\include\xmemory

; 1128 :     _Iterator_base12(const _Iterator_base12& _Right) noexcept : _Myproxy(nullptr), _Mynextiter(nullptr) {

  00033	8b 45 4c	 mov	 eax, DWORD PTR _this$[ebp]
  00036	83 20 00	 and	 DWORD PTR [eax], 0
  00039	8b 45 4c	 mov	 eax, DWORD PTR _this$[ebp]
  0003c	83 60 04 00	 and	 DWORD PTR [eax+4], 0

; 1129 :         *this = _Right;

  00040	8d 45 68	 lea	 eax, DWORD PTR __First_arg$[ebp]
  00043	50		 push	 eax
  00044	8b 4d 4c	 mov	 ecx, DWORD PTR _this$[ebp]
  00047	e8 00 00 00 00	 call	 ??4_Iterator_base12@std@@QAEAAU01@ABU01@@Z ; std::_Iterator_base12::operator=
  0004c	8b 45 4c	 mov	 eax, DWORD PTR _this$[ebp]
  0004f	8b 4d 70	 mov	 ecx, DWORD PTR __First_arg$[ebp+8]
  00052	89 48 08	 mov	 DWORD PTR [eax+8], ecx
; File C:\Program Files (x86)\Microsoft Visual Studio\2019\Community\VC\Tools\MSVC\14.28.29333\include\deque

; 1534 :         return _Mypair._Myval2;

  00055	8b 45 58	 mov	 eax, DWORD PTR _this$[ebp]
  00058	89 45 3c	 mov	 DWORD PTR $T21[ebp], eax
; File C:\Program Files (x86)\Microsoft Visual Studio\2019\Community\VC\Tools\MSVC\14.28.29333\include\xstddef

; 275  :     return __builtin_addressof(_Val);

  0005b	8b 45 3c	 mov	 eax, DWORD PTR $T21[ebp]
  0005e	89 45 38	 mov	 DWORD PTR $T20[ebp], eax
; File C:\Program Files (x86)\Microsoft Visual Studio\2019\Community\VC\Tools\MSVC\14.28.29333\include\deque

; 930  :         return iterator(_Where._Myoff, _STD addressof(_Get_data()));

  00061	ff 75 38	 push	 DWORD PTR $T20[ebp]
  00064	ff 75 cc	 push	 DWORD PTR $T8[ebp+8]
  00067	8d 4d 00	 lea	 ecx, DWORD PTR __First$[ebp]
  0006a	e8 00 00 00 00	 call	 ??0?$_Deque_iterator@V?$_Deque_val@U?$_Deque_simple_types@U?$pair@MUD3DXVECTOR3@@@std@@@std@@@std@@@std@@QAE@IPBU_Container_base12@1@@Z

; 1281 :         iterator _Last  = _Make_iter(_Last_arg);

  0006f	8d 45 b8	 lea	 eax, DWORD PTR $T7[ebp]
  00072	89 45 48	 mov	 DWORD PTR _this$[ebp], eax
; File C:\Program Files (x86)\Microsoft Visual Studio\2019\Community\VC\Tools\MSVC\14.28.29333\include\xmemory

; 1128 :     _Iterator_base12(const _Iterator_base12& _Right) noexcept : _Myproxy(nullptr), _Mynextiter(nullptr) {

  00075	8b 45 48	 mov	 eax, DWORD PTR _this$[ebp]
  00078	83 20 00	 and	 DWORD PTR [eax], 0
  0007b	8b 45 48	 mov	 eax, DWORD PTR _this$[ebp]
  0007e	83 60 04 00	 and	 DWORD PTR [eax+4], 0

; 1129 :         *this = _Right;

  00082	8d 45 74	 lea	 eax, DWORD PTR __Last_arg$[ebp]
  00085	50		 push	 eax
  00086	8b 4d 48	 mov	 ecx, DWORD PTR _this$[ebp]
  00089	e8 00 00 00 00	 call	 ??4_Iterator_base12@std@@QAEAAU01@ABU01@@Z ; std::_Iterator_base12::operator=
  0008e	8b 45 48	 mov	 eax, DWORD PTR _this$[ebp]
  00091	8b 4d 7c	 mov	 ecx, DWORD PTR __Last_arg$[ebp+8]
  00094	89 48 08	 mov	 DWORD PTR [eax+8], ecx
; File C:\Program Files (x86)\Microsoft Visual Studio\2019\Community\VC\Tools\MSVC\14.28.29333\include\deque

; 1534 :         return _Mypair._Myval2;

  00097	8b 45 58	 mov	 eax, DWORD PTR _this$[ebp]
  0009a	89 45 34	 mov	 DWORD PTR $T19[ebp], eax
; File C:\Program Files (x86)\Microsoft Visual Studio\2019\Community\VC\Tools\MSVC\14.28.29333\include\xstddef

; 275  :     return __builtin_addressof(_Val);

  0009d	8b 45 34	 mov	 eax, DWORD PTR $T19[ebp]
  000a0	89 45 30	 mov	 DWORD PTR $T18[ebp], eax
; File C:\Program Files (x86)\Microsoft Visual Studio\2019\Community\VC\Tools\MSVC\14.28.29333\include\deque

; 930  :         return iterator(_Where._Myoff, _STD addressof(_Get_data()));

  000a3	ff 75 30	 push	 DWORD PTR $T18[ebp]
  000a6	ff 75 c0	 push	 DWORD PTR $T7[ebp+8]
  000a9	8d 4d e8	 lea	 ecx, DWORD PTR __Last$[ebp]
  000ac	e8 00 00 00 00	 call	 ??0?$_Deque_iterator@V?$_Deque_val@U?$_Deque_simple_types@U?$pair@MUD3DXVECTOR3@@@std@@@std@@@std@@@std@@QAE@IPBU_Container_base12@1@@Z

; 1282 : 
; 1283 : #if _ITERATOR_DEBUG_LEVEL == 2
; 1284 :         _STL_VERIFY(_First <= _Last && begin() <= _First && _Last <= end(), "deque erase iterator outside range");
; 1285 :         _Adl_verify_range(_First, _Last);
; 1286 : 
; 1287 :         auto _Off   = static_cast<size_type>(_First - begin());
; 1288 :         auto _Count = static_cast<size_type>(_Last - _First);
; 1289 :         bool _Moved = 0 < _Off && _Off + _Count < _Mysize();
; 1290 : 
; 1291 : #else // _ITERATOR_DEBUG_LEVEL == 2
; 1292 :         auto _Off   = static_cast<size_type>(_First - begin());

  000b1	8d 45 ac	 lea	 eax, DWORD PTR $T6[ebp]
  000b4	50		 push	 eax
  000b5	8b 4d 58	 mov	 ecx, DWORD PTR _this$[ebp]
  000b8	e8 00 00 00 00	 call	 ?begin@?$deque@U?$pair@MUD3DXVECTOR3@@@std@@V?$allocator@U?$pair@MUD3DXVECTOR3@@@std@@@2@@std@@QAE?AV?$_Deque_iterator@V?$_Deque_val@U?$_Deque_simple_types@U?$pair@MUD3DXVECTOR3@@@std@@@std@@@std@@@2@XZ ; std::deque<std::pair<float,D3DXVECTOR3>,std::allocator<std::pair<float,D3DXVECTOR3> > >::begin
  000bd	89 45 2c	 mov	 DWORD PTR __Right$[ebp], eax

; 342  :         return static_cast<difference_type>(this->_Myoff - _Right._Myoff);

  000c0	8b 45 2c	 mov	 eax, DWORD PTR __Right$[ebp]
  000c3	8b 4d 08	 mov	 ecx, DWORD PTR __First$[ebp+8]
  000c6	2b 48 08	 sub	 ecx, DWORD PTR [eax+8]
  000c9	89 4d 28	 mov	 DWORD PTR $T17[ebp], ecx

; 1282 : 
; 1283 : #if _ITERATOR_DEBUG_LEVEL == 2
; 1284 :         _STL_VERIFY(_First <= _Last && begin() <= _First && _Last <= end(), "deque erase iterator outside range");
; 1285 :         _Adl_verify_range(_First, _Last);
; 1286 : 
; 1287 :         auto _Off   = static_cast<size_type>(_First - begin());
; 1288 :         auto _Count = static_cast<size_type>(_Last - _First);
; 1289 :         bool _Moved = 0 < _Off && _Off + _Count < _Mysize();
; 1290 : 
; 1291 : #else // _ITERATOR_DEBUG_LEVEL == 2
; 1292 :         auto _Off   = static_cast<size_type>(_First - begin());

  000cc	8b 45 28	 mov	 eax, DWORD PTR $T17[ebp]
  000cf	89 45 40	 mov	 DWORD PTR __Off$[ebp], eax

; 342  :         return static_cast<difference_type>(this->_Myoff - _Right._Myoff);

  000d2	8b 45 f0	 mov	 eax, DWORD PTR __Last$[ebp+8]
  000d5	2b 45 08	 sub	 eax, DWORD PTR __First$[ebp+8]
  000d8	89 45 24	 mov	 DWORD PTR $T16[ebp], eax

; 1293 :         auto _Count = static_cast<size_type>(_Last - _First);

  000db	8b 45 24	 mov	 eax, DWORD PTR $T16[ebp]
  000de	89 45 50	 mov	 DWORD PTR __Count$[ebp], eax

; 1294 : #endif // _ITERATOR_DEBUG_LEVEL == 2
; 1295 : 
; 1296 :         if (_Count == 0) {

  000e1	83 7d 50 00	 cmp	 DWORD PTR __Count$[ebp], 0
  000e5	75 14		 jne	 SHORT $LN8@erase
  000e7	8d 45 00	 lea	 eax, DWORD PTR __First$[ebp]
  000ea	50		 push	 eax
  000eb	8b 4d 64	 mov	 ecx, DWORD PTR ___$ReturnUdt$[ebp]
  000ee	e8 00 00 00 00	 call	 ??0?$_Deque_const_iterator@V?$_Deque_val@U?$_Deque_simple_types@U?$pair@MUD3DXVECTOR3@@@std@@@std@@@std@@@std@@QAE@$$QAV01@@Z

; 1297 :             return _First;

  000f3	8b 45 64	 mov	 eax, DWORD PTR ___$ReturnUdt$[ebp]
  000f6	e9 27 01 00 00	 jmp	 $LN11@erase
$LN8@erase:

; 1298 :         }
; 1299 : 
; 1300 :         if (_Off < static_cast<size_type>(end() - _Last)) { // closer to front

  000fb	8d 45 a0	 lea	 eax, DWORD PTR $T5[ebp]
  000fe	50		 push	 eax
  000ff	8b 4d 58	 mov	 ecx, DWORD PTR _this$[ebp]
  00102	e8 00 00 00 00	 call	 ?end@?$deque@U?$pair@MUD3DXVECTOR3@@@std@@V?$allocator@U?$pair@MUD3DXVECTOR3@@@std@@@2@@std@@QAE?AV?$_Deque_iterator@V?$_Deque_val@U?$_Deque_simple_types@U?$pair@MUD3DXVECTOR3@@@std@@@std@@@std@@@2@XZ ; std::deque<std::pair<float,D3DXVECTOR3>,std::allocator<std::pair<float,D3DXVECTOR3> > >::end
  00107	89 45 20	 mov	 DWORD PTR _this$[ebp], eax

; 342  :         return static_cast<difference_type>(this->_Myoff - _Right._Myoff);

  0010a	8b 45 20	 mov	 eax, DWORD PTR _this$[ebp]
  0010d	8b 40 08	 mov	 eax, DWORD PTR [eax+8]
  00110	2b 45 f0	 sub	 eax, DWORD PTR __Last$[ebp+8]
  00113	89 45 1c	 mov	 DWORD PTR $T15[ebp], eax

; 1298 :         }
; 1299 : 
; 1300 :         if (_Off < static_cast<size_type>(end() - _Last)) { // closer to front

  00116	8b 45 40	 mov	 eax, DWORD PTR __Off$[ebp]
  00119	3b 45 1c	 cmp	 eax, DWORD PTR $T15[ebp]
  0011c	73 09		 jae	 SHORT $LN12@erase
  0011e	c7 45 44 01 00
	00 00		 mov	 DWORD PTR tv181[ebp], 1
  00125	eb 04		 jmp	 SHORT $LN13@erase
$LN12@erase:
  00127	83 65 44 00	 and	 DWORD PTR tv181[ebp], 0
$LN13@erase:
  0012b	8a 45 44	 mov	 al, BYTE PTR tv181[ebp]
  0012e	88 45 57	 mov	 BYTE PTR $T22[ebp], al
  00131	0f b6 45 57	 movzx	 eax, BYTE PTR $T22[ebp]
  00135	85 c0		 test	 eax, eax
  00137	74 66		 je	 SHORT $LN9@erase

; 1301 :             _STD move_backward(begin(), _First, _Last); // copy over hole

  00139	83 ec 0c	 sub	 esp, 12			; 0000000cH
  0013c	8b c4		 mov	 eax, esp
  0013e	89 65 d0	 mov	 DWORD PTR $T9[ebp], esp
  00141	89 45 18	 mov	 DWORD PTR _this$[ebp], eax
  00144	8d 45 e8	 lea	 eax, DWORD PTR __Last$[ebp]
  00147	50		 push	 eax
  00148	8b 4d 18	 mov	 ecx, DWORD PTR _this$[ebp]
  0014b	e8 00 00 00 00	 call	 ??0?$_Deque_const_iterator@V?$_Deque_val@U?$_Deque_simple_types@U?$pair@MUD3DXVECTOR3@@@std@@@std@@@std@@@std@@QAE@ABV01@@Z
  00150	83 ec 0c	 sub	 esp, 12			; 0000000cH
  00153	8b c4		 mov	 eax, esp
  00155	89 65 e4	 mov	 DWORD PTR $T14[ebp], esp
  00158	89 45 14	 mov	 DWORD PTR _this$[ebp], eax
  0015b	8d 45 00	 lea	 eax, DWORD PTR __First$[ebp]
  0015e	50		 push	 eax
  0015f	8b 4d 14	 mov	 ecx, DWORD PTR _this$[ebp]
  00162	e8 00 00 00 00	 call	 ??0?$_Deque_const_iterator@V?$_Deque_val@U?$_Deque_simple_types@U?$pair@MUD3DXVECTOR3@@@std@@@std@@@std@@@std@@QAE@ABV01@@Z
  00167	83 ec 0c	 sub	 esp, 12			; 0000000cH
  0016a	8b c4		 mov	 eax, esp
  0016c	89 65 e0	 mov	 DWORD PTR $T13[ebp], esp
  0016f	50		 push	 eax
  00170	8b 4d 58	 mov	 ecx, DWORD PTR _this$[ebp]
  00173	e8 00 00 00 00	 call	 ?begin@?$deque@U?$pair@MUD3DXVECTOR3@@@std@@V?$allocator@U?$pair@MUD3DXVECTOR3@@@std@@@2@@std@@QAE?AV?$_Deque_iterator@V?$_Deque_val@U?$_Deque_simple_types@U?$pair@MUD3DXVECTOR3@@@std@@@std@@@std@@@2@XZ ; std::deque<std::pair<float,D3DXVECTOR3>,std::allocator<std::pair<float,D3DXVECTOR3> > >::begin
  00178	8d 45 94	 lea	 eax, DWORD PTR $T4[ebp]
  0017b	50		 push	 eax
  0017c	e8 00 00 00 00	 call	 ??$move_backward@V?$_Deque_iterator@V?$_Deque_val@U?$_Deque_simple_types@U?$pair@MUD3DXVECTOR3@@@std@@@std@@@std@@@std@@V12@@std@@YA?AV?$_Deque_iterator@V?$_Deque_val@U?$_Deque_simple_types@U?$pair@MUD3DXVECTOR3@@@std@@@std@@@std@@@0@V10@00@Z ; std::move_backward<std::_Deque_iterator<std::_Deque_val<std::_Deque_simple_types<std::pair<float,D3DXVECTOR3> > > >,std::_Deque_iterator<std::_Deque_val<std::_Deque_simple_types<std::pair<float,D3DXVECTOR3> > > > >
  00181	83 c4 28	 add	 esp, 40			; 00000028H

; 1302 :             for (; 0 < _Count; --_Count) {

  00184	eb 07		 jmp	 SHORT $LN4@erase
$LN2@erase:
  00186	8b 45 50	 mov	 eax, DWORD PTR __Count$[ebp]
  00189	48		 dec	 eax
  0018a	89 45 50	 mov	 DWORD PTR __Count$[ebp], eax
$LN4@erase:
  0018d	83 7d 50 00	 cmp	 DWORD PTR __Count$[ebp], 0
  00191	76 0a		 jbe	 SHORT $LN3@erase

; 1303 :                 pop_front(); // pop copied elements

  00193	8b 4d 58	 mov	 ecx, DWORD PTR _this$[ebp]
  00196	e8 00 00 00 00	 call	 ?pop_front@?$deque@U?$pair@MUD3DXVECTOR3@@@std@@V?$allocator@U?$pair@MUD3DXVECTOR3@@@std@@@2@@std@@QAEXXZ ; std::deque<std::pair<float,D3DXVECTOR3>,std::allocator<std::pair<float,D3DXVECTOR3> > >::pop_front

; 1304 :             }

  0019b	eb e9		 jmp	 SHORT $LN2@erase
$LN3@erase:

; 1305 :         } else { // closer to back

  0019d	eb 64		 jmp	 SHORT $LN10@erase
$LN9@erase:

; 1306 :             _STD move(_Last, end(), _First); // copy over hole

  0019f	83 ec 0c	 sub	 esp, 12			; 0000000cH
  001a2	8b c4		 mov	 eax, esp
  001a4	89 65 dc	 mov	 DWORD PTR $T12[ebp], esp
  001a7	89 45 10	 mov	 DWORD PTR _this$[ebp], eax
  001aa	8d 45 00	 lea	 eax, DWORD PTR __First$[ebp]
  001ad	50		 push	 eax
  001ae	8b 4d 10	 mov	 ecx, DWORD PTR _this$[ebp]
  001b1	e8 00 00 00 00	 call	 ??0?$_Deque_const_iterator@V?$_Deque_val@U?$_Deque_simple_types@U?$pair@MUD3DXVECTOR3@@@std@@@std@@@std@@@std@@QAE@ABV01@@Z
  001b6	83 ec 0c	 sub	 esp, 12			; 0000000cH
  001b9	8b c4		 mov	 eax, esp
  001bb	89 65 d8	 mov	 DWORD PTR $T11[ebp], esp
  001be	50		 push	 eax
  001bf	8b 4d 58	 mov	 ecx, DWORD PTR _this$[ebp]
  001c2	e8 00 00 00 00	 call	 ?end@?$deque@U?$pair@MUD3DXVECTOR3@@@std@@V?$allocator@U?$pair@MUD3DXVECTOR3@@@std@@@2@@std@@QAE?AV?$_Deque_iterator@V?$_Deque_val@U?$_Deque_simple_types@U?$pair@MUD3DXVECTOR3@@@std@@@std@@@std@@@2@XZ ; std::deque<std::pair<float,D3DXVECTOR3>,std::allocator<std::pair<float,D3DXVECTOR3> > >::end
  001c7	83 ec 0c	 sub	 esp, 12			; 0000000cH
  001ca	8b c4		 mov	 eax, esp
  001cc	89 65 d4	 mov	 DWORD PTR $T10[ebp], esp
  001cf	89 45 0c	 mov	 DWORD PTR _this$[ebp], eax
  001d2	8d 45 e8	 lea	 eax, DWORD PTR __Last$[ebp]
  001d5	50		 push	 eax
  001d6	8b 4d 0c	 mov	 ecx, DWORD PTR _this$[ebp]
  001d9	e8 00 00 00 00	 call	 ??0?$_Deque_const_iterator@V?$_Deque_val@U?$_Deque_simple_types@U?$pair@MUD3DXVECTOR3@@@std@@@std@@@std@@@std@@QAE@ABV01@@Z
  001de	8d 45 88	 lea	 eax, DWORD PTR $T3[ebp]
  001e1	50		 push	 eax
  001e2	e8 00 00 00 00	 call	 ??$move@V?$_Deque_iterator@V?$_Deque_val@U?$_Deque_simple_types@U?$pair@MUD3DXVECTOR3@@@std@@@std@@@std@@@std@@V12@@std@@YA?AV?$_Deque_iterator@V?$_Deque_val@U?$_Deque_simple_types@U?$pair@MUD3DXVECTOR3@@@std@@@std@@@std@@@0@V10@00@Z ; std::move<std::_Deque_iterator<std::_Deque_val<std::_Deque_simple_types<std::pair<float,D3DXVECTOR3> > > >,std::_Deque_iterator<std::_Deque_val<std::_Deque_simple_types<std::pair<float,D3DXVECTOR3> > > > >
  001e7	83 c4 28	 add	 esp, 40			; 00000028H

; 1307 :             for (; 0 < _Count; --_Count) {

  001ea	eb 07		 jmp	 SHORT $LN7@erase
$LN5@erase:
  001ec	8b 45 50	 mov	 eax, DWORD PTR __Count$[ebp]
  001ef	48		 dec	 eax
  001f0	89 45 50	 mov	 DWORD PTR __Count$[ebp], eax
$LN7@erase:
  001f3	83 7d 50 00	 cmp	 DWORD PTR __Count$[ebp], 0
  001f7	76 0a		 jbe	 SHORT $LN10@erase

; 1308 :                 pop_back(); // pop copied elements

  001f9	8b 4d 58	 mov	 ecx, DWORD PTR _this$[ebp]
  001fc	e8 00 00 00 00	 call	 ?pop_back@?$deque@U?$pair@MUD3DXVECTOR3@@@std@@V?$allocator@U?$pair@MUD3DXVECTOR3@@@std@@@2@@std@@QAEXXZ ; std::deque<std::pair<float,D3DXVECTOR3>,std::allocator<std::pair<float,D3DXVECTOR3> > >::pop_back

; 1309 :             }

  00201	eb e9		 jmp	 SHORT $LN5@erase
$LN10@erase:

; 1310 :         }
; 1311 : 
; 1312 : #if _ITERATOR_DEBUG_LEVEL == 2
; 1313 :         if (_Moved) {
; 1314 :             _Orphan_all();
; 1315 :         }
; 1316 : #endif // _ITERATOR_DEBUG_LEVEL == 2
; 1317 : 
; 1318 :         return begin() + static_cast<difference_type>(_Off);

  00203	ff 75 40	 push	 DWORD PTR __Off$[ebp]
  00206	ff 75 64	 push	 DWORD PTR ___$ReturnUdt$[ebp]
  00209	8d 85 7c ff ff
	ff		 lea	 eax, DWORD PTR $T2[ebp]
  0020f	50		 push	 eax
  00210	8b 4d 58	 mov	 ecx, DWORD PTR _this$[ebp]
  00213	e8 00 00 00 00	 call	 ?begin@?$deque@U?$pair@MUD3DXVECTOR3@@@std@@V?$allocator@U?$pair@MUD3DXVECTOR3@@@std@@@2@@std@@QAE?AV?$_Deque_iterator@V?$_Deque_val@U?$_Deque_simple_types@U?$pair@MUD3DXVECTOR3@@@std@@@std@@@std@@@2@XZ ; std::deque<std::pair<float,D3DXVECTOR3>,std::allocator<std::pair<float,D3DXVECTOR3> > >::begin
  00218	8b c8		 mov	 ecx, eax
  0021a	e8 00 00 00 00	 call	 ??H?$_Deque_iterator@V?$_Deque_val@U?$_Deque_simple_types@U?$pair@MUD3DXVECTOR3@@@std@@@std@@@std@@@std@@QBE?AV01@H@Z ; std::_Deque_iterator<std::_Deque_val<std::_Deque_simple_types<std::pair<float,D3DXVECTOR3> > > >::operator+
  0021f	8b 45 64	 mov	 eax, DWORD PTR ___$ReturnUdt$[ebp]
$LN11@erase:

; 1319 :     }

  00222	8b 4d f4	 mov	 ecx, DWORD PTR __$EHRec$[ebp]
  00225	64 89 0d 00 00
	00 00		 mov	 DWORD PTR fs:0, ecx
  0022c	59		 pop	 ecx
  0022d	83 c5 5c	 add	 ebp, 92			; 0000005cH
  00230	c9		 leave
  00231	c2 1c 00	 ret	 28			; 0000001cH
  00234	cc		 int	 3
  00235	cc		 int	 3
  00236	cc		 int	 3
  00237	cc		 int	 3
  00238	cc		 int	 3
_TEXT	ENDS
;	COMDAT text$x
text$x	SEGMENT
__ehhandler$?erase@?$deque@U?$pair@MUD3DXVECTOR3@@@std@@V?$allocator@U?$pair@MUD3DXVECTOR3@@@std@@@2@@std@@QAE?AV?$_Deque_iterator@V?$_Deque_val@U?$_Deque_simple_types@U?$pair@MUD3DXVECTOR3@@@std@@@std@@@std@@@2@V?$_Deque_const_iterator@V?$_Deque_val@U?$_Deque_simple_types@U?$pair@MUD3DXVECTOR3@@@std@@@std@@@std@@@2@0@Z:
  00000	90		 npad	 1
  00001	90		 npad	 1
  00002	8b 54 24 08	 mov	 edx, DWORD PTR [esp+8]
  00006	8d 42 0c	 lea	 eax, DWORD PTR [edx+12]
  00009	8b 4a 84	 mov	 ecx, DWORD PTR [edx-124]
  0000c	33 c8		 xor	 ecx, eax
  0000e	e8 00 00 00 00	 call	 @__security_check_cookie@4
  00013	b8 00 00 00 00	 mov	 eax, OFFSET __ehfuncinfo$?erase@?$deque@U?$pair@MUD3DXVECTOR3@@@std@@V?$allocator@U?$pair@MUD3DXVECTOR3@@@std@@@2@@std@@QAE?AV?$_Deque_iterator@V?$_Deque_val@U?$_Deque_simple_types@U?$pair@MUD3DXVECTOR3@@@std@@@std@@@std@@@2@V?$_Deque_const_iterator@V?$_Deque_val@U?$_Deque_simple_types@U?$pair@MUD3DXVECTOR3@@@std@@@std@@@std@@@2@0@Z
  00018	e9 00 00 00 00	 jmp	 ___CxxFrameHandler3
text$x	ENDS
?erase@?$deque@U?$pair@MUD3DXVECTOR3@@@std@@V?$allocator@U?$pair@MUD3DXVECTOR3@@@std@@@2@@std@@QAE?AV?$_Deque_iterator@V?$_Deque_val@U?$_Deque_simple_types@U?$pair@MUD3DXVECTOR3@@@std@@@std@@@std@@@2@V?$_Deque_const_iterator@V?$_Deque_val@U?$_Deque_simple_types@U?$pair@MUD3DXVECTOR3@@@std@@@std@@@std@@@2@0@Z ENDP ; std::deque<std::pair<float,D3DXVECTOR3>,std::allocator<std::pair<float,D3DXVECTOR3> > >::erase
; Function compile flags: /Odspy
; File C:\Program Files (x86)\Microsoft Visual Studio\2019\Community\VC\Tools\MSVC\14.28.29333\include\deque
; File C:\Program Files (x86)\Microsoft Visual Studio\2019\Community\VC\Tools\MSVC\14.28.29333\include\xstddef
; File C:\Program Files (x86)\Microsoft Visual Studio\2019\Community\VC\Tools\MSVC\14.28.29333\include\deque
; File C:\Program Files (x86)\Microsoft Visual Studio\2019\Community\VC\Tools\MSVC\14.28.29333\include\xmemory
; File C:\Program Files (x86)\Microsoft Visual Studio\2019\Community\VC\Tools\MSVC\14.28.29333\include\deque
;	COMDAT ?pop_back@?$deque@U?$pair@MUD3DXVECTOR3@@@std@@V?$allocator@U?$pair@MUD3DXVECTOR3@@@std@@@2@@std@@QAEXXZ
_TEXT	SEGMENT
$T1 = -80						; size = 4
$T2 = -76						; size = 4
$T3 = -72						; size = 4
$T4 = -68						; size = 4
$T5 = -64						; size = 4
$T6 = -60						; size = 4
$T7 = -56						; size = 4
__Ptr$ = -52						; size = 4
__Block$ = -48						; size = 4
$T8 = -44						; size = 4
$T9 = -40						; size = 4
$T10 = -36						; size = 4
$T11 = -32						; size = 4
$T12 = -28						; size = 4
$T13 = -24						; size = 4
$T14 = -20						; size = 4
$T15 = -16						; size = 4
__Newoff$ = -12						; size = 4
tv88 = -8						; size = 4
_this$ = -4						; size = 4
?pop_back@?$deque@U?$pair@MUD3DXVECTOR3@@@std@@V?$allocator@U?$pair@MUD3DXVECTOR3@@@std@@@2@@std@@QAEXXZ PROC ; std::deque<std::pair<float,D3DXVECTOR3>,std::allocator<std::pair<float,D3DXVECTOR3> > >::pop_back, COMDAT
; _this$ = ecx

; 1126 :     void pop_back() noexcept /* strengthened */ {

  00000	55		 push	 ebp
  00001	8b ec		 mov	 ebp, esp
  00003	83 ec 50	 sub	 esp, 80			; 00000050H
  00006	89 4d fc	 mov	 DWORD PTR _this$[ebp], ecx

; 1530 :         return _Mypair._Myval2;

  00009	8b 45 fc	 mov	 eax, DWORD PTR _this$[ebp]
  0000c	89 45 f0	 mov	 DWORD PTR $T15[ebp], eax

; 1554 :         return _Get_data()._Myoff;

  0000f	8b 45 f0	 mov	 eax, DWORD PTR $T15[ebp]
  00012	83 c0 0c	 add	 eax, 12			; 0000000cH
  00015	89 45 e8	 mov	 DWORD PTR $T13[ebp], eax

; 1530 :         return _Mypair._Myval2;

  00018	8b 45 fc	 mov	 eax, DWORD PTR _this$[ebp]
  0001b	89 45 ec	 mov	 DWORD PTR $T14[ebp], eax

; 1562 :         return _Get_data()._Mysize;

  0001e	8b 45 ec	 mov	 eax, DWORD PTR $T14[ebp]
  00021	83 c0 10	 add	 eax, 16			; 00000010H
  00024	89 45 e4	 mov	 DWORD PTR $T12[ebp], eax

; 1127 : #if _ITERATOR_DEBUG_LEVEL == 2
; 1128 :         if (empty()) {
; 1129 :             _STL_REPORT_ERROR("deque empty before pop");
; 1130 :         } else { // something to erase, do it
; 1131 :             size_type _Newoff = _Myoff() + _Mysize() - 1;
; 1132 :             _Orphan_off(_Newoff);
; 1133 :             size_type _Block = _Getblock(_Newoff);
; 1134 :             _Alty_traits::destroy(_Getal(), _Unfancy(_Map()[_Block] + _Newoff % _DEQUESIZ));
; 1135 :             if (--_Mysize() == 0) {
; 1136 :                 _Myoff() = 0;
; 1137 :             }
; 1138 :         }
; 1139 : 
; 1140 : #else // _ITERATOR_DEBUG_LEVEL == 2
; 1141 :         size_type _Newoff = _Myoff() + _Mysize() - 1;

  00027	8b 45 e8	 mov	 eax, DWORD PTR $T13[ebp]
  0002a	8b 00		 mov	 eax, DWORD PTR [eax]
  0002c	8b 4d e4	 mov	 ecx, DWORD PTR $T12[ebp]
  0002f	8b 09		 mov	 ecx, DWORD PTR [ecx]
  00031	8d 44 08 ff	 lea	 eax, DWORD PTR [eax+ecx-1]
  00035	89 45 f4	 mov	 DWORD PTR __Newoff$[ebp], eax

; 1534 :         return _Mypair._Myval2;

  00038	8b 45 fc	 mov	 eax, DWORD PTR _this$[ebp]
  0003b	89 45 e0	 mov	 DWORD PTR $T11[ebp], eax

; 548  :         return (_Off / _DEQUESIZ) & (_Mapsize - 1);

  0003e	8b 45 e0	 mov	 eax, DWORD PTR $T11[ebp]
  00041	8b 40 08	 mov	 eax, DWORD PTR [eax+8]
  00044	48		 dec	 eax
  00045	23 45 f4	 and	 eax, DWORD PTR __Newoff$[ebp]
  00048	89 45 dc	 mov	 DWORD PTR $T10[ebp], eax

; 1514 :         return _Get_data()._Getblock(_Off);

  0004b	8b 45 dc	 mov	 eax, DWORD PTR $T10[ebp]
  0004e	89 45 d0	 mov	 DWORD PTR __Block$[ebp], eax

; 1530 :         return _Mypair._Myval2;

  00051	8b 45 fc	 mov	 eax, DWORD PTR _this$[ebp]
  00054	89 45 d8	 mov	 DWORD PTR $T9[ebp], eax

; 1538 :         return _Get_data()._Map;

  00057	8b 45 d8	 mov	 eax, DWORD PTR $T9[ebp]
  0005a	83 c0 04	 add	 eax, 4
  0005d	89 45 d4	 mov	 DWORD PTR $T8[ebp], eax

; 1142 :         size_type _Block  = _Getblock(_Newoff);
; 1143 :         _Alty_traits::destroy(_Getal(), _Unfancy(_Map()[_Block] + _Newoff % _DEQUESIZ));

  00060	8b 45 f4	 mov	 eax, DWORD PTR __Newoff$[ebp]
  00063	33 d2		 xor	 edx, edx
  00065	33 c9		 xor	 ecx, ecx
  00067	41		 inc	 ecx
  00068	f7 f1		 div	 ecx
  0006a	c1 e2 04	 shl	 edx, 4
  0006d	8b 45 d4	 mov	 eax, DWORD PTR $T8[ebp]
  00070	8b 00		 mov	 eax, DWORD PTR [eax]
  00072	8b 4d d0	 mov	 ecx, DWORD PTR __Block$[ebp]
  00075	03 14 88	 add	 edx, DWORD PTR [eax+ecx*4]
  00078	89 55 cc	 mov	 DWORD PTR __Ptr$[ebp], edx
; File C:\Program Files (x86)\Microsoft Visual Studio\2019\Community\VC\Tools\MSVC\14.28.29333\include\xstddef

; 289  :     return _Ptr;

  0007b	8b 45 cc	 mov	 eax, DWORD PTR __Ptr$[ebp]
  0007e	89 45 b8	 mov	 DWORD PTR $T3[ebp], eax
; File C:\Program Files (x86)\Microsoft Visual Studio\2019\Community\VC\Tools\MSVC\14.28.29333\include\deque

; 1522 :         return _Mypair._Get_first();

  00081	8b 45 fc	 mov	 eax, DWORD PTR _this$[ebp]
; File C:\Program Files (x86)\Microsoft Visual Studio\2019\Community\VC\Tools\MSVC\14.28.29333\include\xmemory

; 1347 :         return *this;

  00084	89 45 c8	 mov	 DWORD PTR $T7[ebp], eax
; File C:\Program Files (x86)\Microsoft Visual Studio\2019\Community\VC\Tools\MSVC\14.28.29333\include\deque

; 1522 :         return _Mypair._Get_first();

  00087	8b 45 c8	 mov	 eax, DWORD PTR $T7[ebp]
  0008a	89 45 b4	 mov	 DWORD PTR $T2[ebp], eax

; 1144 :         if (--_Mysize() == 0) {

  0008d	8b 45 b0	 mov	 eax, DWORD PTR $T1[ebp]
  00090	89 45 f8	 mov	 DWORD PTR tv88[ebp], eax

; 1530 :         return _Mypair._Myval2;

  00093	8b 45 fc	 mov	 eax, DWORD PTR _this$[ebp]
  00096	89 45 c4	 mov	 DWORD PTR $T6[ebp], eax

; 1562 :         return _Get_data()._Mysize;

  00099	8b 45 c4	 mov	 eax, DWORD PTR $T6[ebp]
  0009c	83 c0 10	 add	 eax, 16			; 00000010H
  0009f	89 45 f8	 mov	 DWORD PTR tv88[ebp], eax

; 1144 :         if (--_Mysize() == 0) {

  000a2	8b 45 f8	 mov	 eax, DWORD PTR tv88[ebp]
  000a5	8b 00		 mov	 eax, DWORD PTR [eax]
  000a7	48		 dec	 eax
  000a8	8b 4d f8	 mov	 ecx, DWORD PTR tv88[ebp]
  000ab	89 01		 mov	 DWORD PTR [ecx], eax
  000ad	8b 45 f8	 mov	 eax, DWORD PTR tv88[ebp]
  000b0	83 38 00	 cmp	 DWORD PTR [eax], 0
  000b3	75 15		 jne	 SHORT $LN3@pop_back

; 1530 :         return _Mypair._Myval2;

  000b5	8b 45 fc	 mov	 eax, DWORD PTR _this$[ebp]
  000b8	89 45 c0	 mov	 DWORD PTR $T5[ebp], eax

; 1554 :         return _Get_data()._Myoff;

  000bb	8b 45 c0	 mov	 eax, DWORD PTR $T5[ebp]
  000be	83 c0 0c	 add	 eax, 12			; 0000000cH
  000c1	89 45 bc	 mov	 DWORD PTR $T4[ebp], eax

; 1145 :             _Myoff() = 0;

  000c4	8b 45 bc	 mov	 eax, DWORD PTR $T4[ebp]
  000c7	83 20 00	 and	 DWORD PTR [eax], 0
$LN3@pop_back:

; 1146 :         }
; 1147 : #endif // _ITERATOR_DEBUG_LEVEL == 2
; 1148 :     }

  000ca	c9		 leave
  000cb	c3		 ret	 0
?pop_back@?$deque@U?$pair@MUD3DXVECTOR3@@@std@@V?$allocator@U?$pair@MUD3DXVECTOR3@@@std@@@2@@std@@QAEXXZ ENDP ; std::deque<std::pair<float,D3DXVECTOR3>,std::allocator<std::pair<float,D3DXVECTOR3> > >::pop_back
_TEXT	ENDS
; Function compile flags: /Odspy
; File C:\Program Files (x86)\Microsoft Visual Studio\2019\Community\VC\Tools\MSVC\14.28.29333\include\deque
; File C:\Program Files (x86)\Microsoft Visual Studio\2019\Community\VC\Tools\MSVC\14.28.29333\include\xstddef
; File C:\Program Files (x86)\Microsoft Visual Studio\2019\Community\VC\Tools\MSVC\14.28.29333\include\deque
; File C:\Program Files (x86)\Microsoft Visual Studio\2019\Community\VC\Tools\MSVC\14.28.29333\include\xmemory
; File C:\Program Files (x86)\Microsoft Visual Studio\2019\Community\VC\Tools\MSVC\14.28.29333\include\deque
;	COMDAT ?pop_front@?$deque@U?$pair@MUD3DXVECTOR3@@@std@@V?$allocator@U?$pair@MUD3DXVECTOR3@@@std@@@2@@std@@QAEXXZ
_TEXT	SEGMENT
$T1 = -92						; size = 4
$T2 = -88						; size = 4
$T3 = -84						; size = 4
$T4 = -80						; size = 4
$T5 = -76						; size = 4
$T6 = -72						; size = 4
$T7 = -68						; size = 4
$T8 = -64						; size = 4
$T9 = -60						; size = 4
__Ptr$ = -56						; size = 4
__Block$ = -52						; size = 4
$T10 = -48						; size = 4
$T11 = -44						; size = 4
$T12 = -40						; size = 4
$T13 = -36						; size = 4
$T14 = -32						; size = 4
__Off$ = -28						; size = 4
$T15 = -24						; size = 4
$T16 = -20						; size = 4
$T17 = -16						; size = 4
tv93 = -12						; size = 4
tv86 = -8						; size = 4
_this$ = -4						; size = 4
?pop_front@?$deque@U?$pair@MUD3DXVECTOR3@@@std@@V?$allocator@U?$pair@MUD3DXVECTOR3@@@std@@@2@@std@@QAEXXZ PROC ; std::deque<std::pair<float,D3DXVECTOR3>,std::allocator<std::pair<float,D3DXVECTOR3> > >::pop_front, COMDAT
; _this$ = ecx

; 1086 :     void pop_front() noexcept /* strengthened */ {

  00000	55		 push	 ebp
  00001	8b ec		 mov	 ebp, esp
  00003	83 ec 5c	 sub	 esp, 92			; 0000005cH
  00006	89 4d fc	 mov	 DWORD PTR _this$[ebp], ecx

; 1530 :         return _Mypair._Myval2;

  00009	8b 45 fc	 mov	 eax, DWORD PTR _this$[ebp]
  0000c	89 45 f0	 mov	 DWORD PTR $T17[ebp], eax

; 1554 :         return _Get_data()._Myoff;

  0000f	8b 45 f0	 mov	 eax, DWORD PTR $T17[ebp]
  00012	83 c0 0c	 add	 eax, 12			; 0000000cH
  00015	89 45 ec	 mov	 DWORD PTR $T16[ebp], eax

; 1087 : #if _ITERATOR_DEBUG_LEVEL == 2
; 1088 :         if (empty()) {
; 1089 :             _STL_REPORT_ERROR("deque empty before pop");
; 1090 :         } else { // something to erase, do it
; 1091 :             _Orphan_off(_Myoff());
; 1092 :             size_type _Block = _Getblock(_Myoff());
; 1093 :             _Alty_traits::destroy(_Getal(), _Unfancy(_Map()[_Block] + _Myoff() % _DEQUESIZ));
; 1094 :             if (--_Mysize() == 0) {
; 1095 :                 _Myoff() = 0;
; 1096 :             } else {
; 1097 :                 ++_Myoff();
; 1098 :             }
; 1099 :         }
; 1100 : 
; 1101 : #else // _ITERATOR_DEBUG_LEVEL == 2
; 1102 :         size_type _Block = _Getblock(_Myoff());

  00018	8b 45 ec	 mov	 eax, DWORD PTR $T16[ebp]
  0001b	8b 00		 mov	 eax, DWORD PTR [eax]
  0001d	89 45 e4	 mov	 DWORD PTR __Off$[ebp], eax

; 1534 :         return _Mypair._Myval2;

  00020	8b 45 fc	 mov	 eax, DWORD PTR _this$[ebp]
  00023	89 45 e8	 mov	 DWORD PTR $T15[ebp], eax

; 548  :         return (_Off / _DEQUESIZ) & (_Mapsize - 1);

  00026	8b 45 e8	 mov	 eax, DWORD PTR $T15[ebp]
  00029	8b 40 08	 mov	 eax, DWORD PTR [eax+8]
  0002c	48		 dec	 eax
  0002d	23 45 e4	 and	 eax, DWORD PTR __Off$[ebp]
  00030	89 45 e0	 mov	 DWORD PTR $T14[ebp], eax

; 1514 :         return _Get_data()._Getblock(_Off);

  00033	8b 45 e0	 mov	 eax, DWORD PTR $T14[ebp]
  00036	89 45 cc	 mov	 DWORD PTR __Block$[ebp], eax

; 1530 :         return _Mypair._Myval2;

  00039	8b 45 fc	 mov	 eax, DWORD PTR _this$[ebp]
  0003c	89 45 dc	 mov	 DWORD PTR $T13[ebp], eax

; 1538 :         return _Get_data()._Map;

  0003f	8b 45 dc	 mov	 eax, DWORD PTR $T13[ebp]
  00042	83 c0 04	 add	 eax, 4
  00045	89 45 d0	 mov	 DWORD PTR $T10[ebp], eax

; 1530 :         return _Mypair._Myval2;

  00048	8b 45 fc	 mov	 eax, DWORD PTR _this$[ebp]
  0004b	89 45 d8	 mov	 DWORD PTR $T12[ebp], eax

; 1554 :         return _Get_data()._Myoff;

  0004e	8b 45 d8	 mov	 eax, DWORD PTR $T12[ebp]
  00051	83 c0 0c	 add	 eax, 12			; 0000000cH
  00054	89 45 d4	 mov	 DWORD PTR $T11[ebp], eax

; 1103 :         _Alty_traits::destroy(_Getal(), _Unfancy(_Map()[_Block] + _Myoff() % _DEQUESIZ));

  00057	8b 45 d4	 mov	 eax, DWORD PTR $T11[ebp]
  0005a	8b 00		 mov	 eax, DWORD PTR [eax]
  0005c	33 d2		 xor	 edx, edx
  0005e	33 c9		 xor	 ecx, ecx
  00060	41		 inc	 ecx
  00061	f7 f1		 div	 ecx
  00063	c1 e2 04	 shl	 edx, 4
  00066	8b 45 d0	 mov	 eax, DWORD PTR $T10[ebp]
  00069	8b 00		 mov	 eax, DWORD PTR [eax]
  0006b	8b 4d cc	 mov	 ecx, DWORD PTR __Block$[ebp]
  0006e	03 14 88	 add	 edx, DWORD PTR [eax+ecx*4]
  00071	89 55 c8	 mov	 DWORD PTR __Ptr$[ebp], edx
; File C:\Program Files (x86)\Microsoft Visual Studio\2019\Community\VC\Tools\MSVC\14.28.29333\include\xstddef

; 289  :     return _Ptr;

  00074	8b 45 c8	 mov	 eax, DWORD PTR __Ptr$[ebp]
  00077	89 45 b0	 mov	 DWORD PTR $T4[ebp], eax
; File C:\Program Files (x86)\Microsoft Visual Studio\2019\Community\VC\Tools\MSVC\14.28.29333\include\deque

; 1522 :         return _Mypair._Get_first();

  0007a	8b 45 fc	 mov	 eax, DWORD PTR _this$[ebp]
; File C:\Program Files (x86)\Microsoft Visual Studio\2019\Community\VC\Tools\MSVC\14.28.29333\include\xmemory

; 1347 :         return *this;

  0007d	89 45 c4	 mov	 DWORD PTR $T9[ebp], eax
; File C:\Program Files (x86)\Microsoft Visual Studio\2019\Community\VC\Tools\MSVC\14.28.29333\include\deque

; 1522 :         return _Mypair._Get_first();

  00080	8b 45 c4	 mov	 eax, DWORD PTR $T9[ebp]
  00083	89 45 ac	 mov	 DWORD PTR $T3[ebp], eax

; 1104 :         if (--_Mysize() == 0) {

  00086	8b 45 a8	 mov	 eax, DWORD PTR $T2[ebp]
  00089	89 45 f8	 mov	 DWORD PTR tv86[ebp], eax

; 1530 :         return _Mypair._Myval2;

  0008c	8b 45 fc	 mov	 eax, DWORD PTR _this$[ebp]
  0008f	89 45 c0	 mov	 DWORD PTR $T8[ebp], eax

; 1562 :         return _Get_data()._Mysize;

  00092	8b 45 c0	 mov	 eax, DWORD PTR $T8[ebp]
  00095	83 c0 10	 add	 eax, 16			; 00000010H
  00098	89 45 f8	 mov	 DWORD PTR tv86[ebp], eax

; 1104 :         if (--_Mysize() == 0) {

  0009b	8b 45 f8	 mov	 eax, DWORD PTR tv86[ebp]
  0009e	8b 00		 mov	 eax, DWORD PTR [eax]
  000a0	48		 dec	 eax
  000a1	8b 4d f8	 mov	 ecx, DWORD PTR tv86[ebp]
  000a4	89 01		 mov	 DWORD PTR [ecx], eax
  000a6	8b 45 f8	 mov	 eax, DWORD PTR tv86[ebp]
  000a9	83 38 00	 cmp	 DWORD PTR [eax], 0
  000ac	75 17		 jne	 SHORT $LN2@pop_front

; 1530 :         return _Mypair._Myval2;

  000ae	8b 45 fc	 mov	 eax, DWORD PTR _this$[ebp]
  000b1	89 45 bc	 mov	 DWORD PTR $T7[ebp], eax

; 1554 :         return _Get_data()._Myoff;

  000b4	8b 45 bc	 mov	 eax, DWORD PTR $T7[ebp]
  000b7	83 c0 0c	 add	 eax, 12			; 0000000cH
  000ba	89 45 b8	 mov	 DWORD PTR $T6[ebp], eax

; 1105 :             _Myoff() = 0;

  000bd	8b 45 b8	 mov	 eax, DWORD PTR $T6[ebp]
  000c0	83 20 00	 and	 DWORD PTR [eax], 0

; 1106 :         } else {

  000c3	eb 20		 jmp	 SHORT $LN4@pop_front
$LN2@pop_front:

; 1107 :             ++_Myoff();

  000c5	8b 45 a4	 mov	 eax, DWORD PTR $T1[ebp]
  000c8	89 45 f4	 mov	 DWORD PTR tv93[ebp], eax

; 1530 :         return _Mypair._Myval2;

  000cb	8b 45 fc	 mov	 eax, DWORD PTR _this$[ebp]
  000ce	89 45 b4	 mov	 DWORD PTR $T5[ebp], eax

; 1554 :         return _Get_data()._Myoff;

  000d1	8b 45 b4	 mov	 eax, DWORD PTR $T5[ebp]
  000d4	83 c0 0c	 add	 eax, 12			; 0000000cH
  000d7	89 45 f4	 mov	 DWORD PTR tv93[ebp], eax

; 1107 :             ++_Myoff();

  000da	8b 45 f4	 mov	 eax, DWORD PTR tv93[ebp]
  000dd	8b 00		 mov	 eax, DWORD PTR [eax]
  000df	40		 inc	 eax
  000e0	8b 4d f4	 mov	 ecx, DWORD PTR tv93[ebp]
  000e3	89 01		 mov	 DWORD PTR [ecx], eax
$LN4@pop_front:

; 1108 :         }
; 1109 : #endif // _ITERATOR_DEBUG_LEVEL == 2
; 1110 :     }

  000e5	c9		 leave
  000e6	c3		 ret	 0
?pop_front@?$deque@U?$pair@MUD3DXVECTOR3@@@std@@V?$allocator@U?$pair@MUD3DXVECTOR3@@@std@@@2@@std@@QAEXXZ ENDP ; std::deque<std::pair<float,D3DXVECTOR3>,std::allocator<std::pair<float,D3DXVECTOR3> > >::pop_front
_TEXT	ENDS
; Function compile flags: /Odspy
; File C:\Program Files (x86)\Microsoft Visual Studio\2019\Community\VC\Tools\MSVC\14.28.29333\include\deque
; File C:\Program Files (x86)\Microsoft Visual Studio\2019\Community\VC\Tools\MSVC\14.28.29333\include\xutility
; File C:\Program Files (x86)\Microsoft Visual Studio\2019\Community\VC\Tools\MSVC\14.28.29333\include\deque
;	COMDAT ?back@?$deque@U?$pair@MUD3DXVECTOR3@@@std@@V?$allocator@U?$pair@MUD3DXVECTOR3@@@std@@@2@@std@@QAEAAU?$pair@MUD3DXVECTOR3@@@2@XZ
_TEXT	SEGMENT
$T1 = -36						; size = 8
$T2 = -28						; size = 8
__First$ = -20						; size = 8
$T3 = -12						; size = 4
$T4 = -8						; size = 4
_this$ = -4						; size = 4
?back@?$deque@U?$pair@MUD3DXVECTOR3@@@std@@V?$allocator@U?$pair@MUD3DXVECTOR3@@@std@@@2@@std@@QAEAAU?$pair@MUD3DXVECTOR3@@@2@XZ PROC ; std::deque<std::pair<float,D3DXVECTOR3>,std::allocator<std::pair<float,D3DXVECTOR3> > >::back, COMDAT
; _this$ = ecx

; 1063 :     _NODISCARD reference back() noexcept /* strengthened */ {

  00000	55		 push	 ebp
  00001	8b ec		 mov	 ebp, esp
  00003	83 ec 24	 sub	 esp, 36			; 00000024H
  00006	89 4d fc	 mov	 DWORD PTR _this$[ebp], ecx

; 1064 : #if _CONTAINER_DEBUG_LEVEL > 0
; 1065 :         _STL_VERIFY(!empty(), "back() called on empty deque");
; 1066 : #endif // _CONTAINER_DEBUG_LEVEL > 0
; 1067 : 
; 1068 :         return *_Prev_iter(_Unchecked_end());

  00009	8d 45 dc	 lea	 eax, DWORD PTR $T1[ebp]
  0000c	50		 push	 eax
  0000d	8b 4d fc	 mov	 ecx, DWORD PTR _this$[ebp]
  00010	e8 00 00 00 00	 call	 ?_Unchecked_end@?$deque@U?$pair@MUD3DXVECTOR3@@@std@@V?$allocator@U?$pair@MUD3DXVECTOR3@@@std@@@2@@std@@QAE?AV?$_Deque_unchecked_iterator@V?$_Deque_val@U?$_Deque_simple_types@U?$pair@MUD3DXVECTOR3@@@std@@@std@@@std@@@2@XZ ; std::deque<std::pair<float,D3DXVECTOR3>,std::allocator<std::pair<float,D3DXVECTOR3> > >::_Unchecked_end
  00015	8b 08		 mov	 ecx, DWORD PTR [eax]
  00017	8b 40 04	 mov	 eax, DWORD PTR [eax+4]
  0001a	89 4d ec	 mov	 DWORD PTR __First$[ebp], ecx
  0001d	89 45 f0	 mov	 DWORD PTR __First$[ebp+4], eax

; 76   :         --_Myoff;

  00020	8b 45 f0	 mov	 eax, DWORD PTR __First$[ebp+4]
  00023	48		 dec	 eax
  00024	89 45 f0	 mov	 DWORD PTR __First$[ebp+4], eax

; 191  :         return *this;

  00027	8d 45 ec	 lea	 eax, DWORD PTR __First$[ebp]
  0002a	89 45 f8	 mov	 DWORD PTR $T4[ebp], eax
; File C:\Program Files (x86)\Microsoft Visual Studio\2019\Community\VC\Tools\MSVC\14.28.29333\include\xutility

; 1852 :     return --_First;

  0002d	8b 45 f8	 mov	 eax, DWORD PTR $T4[ebp]
  00030	8b 08		 mov	 ecx, DWORD PTR [eax]
  00032	8b 40 04	 mov	 eax, DWORD PTR [eax+4]
  00035	89 4d e4	 mov	 DWORD PTR $T2[ebp], ecx
  00038	89 45 e8	 mov	 DWORD PTR $T2[ebp+4], eax
; File C:\Program Files (x86)\Microsoft Visual Studio\2019\Community\VC\Tools\MSVC\14.28.29333\include\deque

; 171  :         return const_cast<reference>(_Mybase::operator*());

  0003b	8d 4d e4	 lea	 ecx, DWORD PTR $T2[ebp]
  0003e	e8 00 00 00 00	 call	 ??D?$_Deque_unchecked_const_iterator@V?$_Deque_val@U?$_Deque_simple_types@U?$pair@MUD3DXVECTOR3@@@std@@@std@@@std@@@std@@QBEABU?$pair@MUD3DXVECTOR3@@@1@XZ ; std::_Deque_unchecked_const_iterator<std::_Deque_val<std::_Deque_simple_types<std::pair<float,D3DXVECTOR3> > > >::operator*
  00043	89 45 f4	 mov	 DWORD PTR $T3[ebp], eax

; 1064 : #if _CONTAINER_DEBUG_LEVEL > 0
; 1065 :         _STL_VERIFY(!empty(), "back() called on empty deque");
; 1066 : #endif // _CONTAINER_DEBUG_LEVEL > 0
; 1067 : 
; 1068 :         return *_Prev_iter(_Unchecked_end());

  00046	8b 45 f4	 mov	 eax, DWORD PTR $T3[ebp]

; 1069 :     }

  00049	c9		 leave
  0004a	c3		 ret	 0
?back@?$deque@U?$pair@MUD3DXVECTOR3@@@std@@V?$allocator@U?$pair@MUD3DXVECTOR3@@@std@@@2@@std@@QAEAAU?$pair@MUD3DXVECTOR3@@@2@XZ ENDP ; std::deque<std::pair<float,D3DXVECTOR3>,std::allocator<std::pair<float,D3DXVECTOR3> > >::back
_TEXT	ENDS
; Function compile flags: /Odspy
; File C:\Program Files (x86)\Microsoft Visual Studio\2019\Community\VC\Tools\MSVC\14.28.29333\include\deque
; File C:\Program Files (x86)\Microsoft Visual Studio\2019\Community\VC\Tools\MSVC\14.28.29333\include\xstddef
; File C:\Program Files (x86)\Microsoft Visual Studio\2019\Community\VC\Tools\MSVC\14.28.29333\include\deque
;	COMDAT ??A?$deque@U?$pair@MUD3DXVECTOR3@@@std@@V?$allocator@U?$pair@MUD3DXVECTOR3@@@std@@@2@@std@@QAEAAU?$pair@MUD3DXVECTOR3@@@1@I@Z
_TEXT	SEGMENT
$T1 = -64						; size = 8
$T2 = -56						; size = 8
__Tmp$3 = -48						; size = 8
$T4 = -40						; size = 4
$T5 = -36						; size = 4
$T6 = -32						; size = 4
$T7 = -28						; size = 4
___param0$ = -24					; size = 4
$T8 = -20						; size = 4
$T9 = -16						; size = 4
$T10 = -12						; size = 4
$T11 = -8						; size = 4
_this$ = -4						; size = 4
__Pos$ = 8						; size = 4
??A?$deque@U?$pair@MUD3DXVECTOR3@@@std@@V?$allocator@U?$pair@MUD3DXVECTOR3@@@std@@@2@@std@@QAEAAU?$pair@MUD3DXVECTOR3@@@1@I@Z PROC ; std::deque<std::pair<float,D3DXVECTOR3>,std::allocator<std::pair<float,D3DXVECTOR3> > >::operator[], COMDAT
; _this$ = ecx

; 1039 :     _NODISCARD reference operator[](size_type _Pos) noexcept /* strengthened */ {

  00000	55		 push	 ebp
  00001	8b ec		 mov	 ebp, esp
  00003	83 ec 40	 sub	 esp, 64			; 00000040H
  00006	89 4d fc	 mov	 DWORD PTR _this$[ebp], ecx

; 1530 :         return _Mypair._Myval2;

  00009	8b 45 fc	 mov	 eax, DWORD PTR _this$[ebp]
  0000c	89 45 f8	 mov	 DWORD PTR $T11[ebp], eax
; File C:\Program Files (x86)\Microsoft Visual Studio\2019\Community\VC\Tools\MSVC\14.28.29333\include\xstddef

; 275  :     return __builtin_addressof(_Val);

  0000f	8b 45 f8	 mov	 eax, DWORD PTR $T11[ebp]
  00012	89 45 ec	 mov	 DWORD PTR $T8[ebp], eax
; File C:\Program Files (x86)\Microsoft Visual Studio\2019\Community\VC\Tools\MSVC\14.28.29333\include\deque

; 1530 :         return _Mypair._Myval2;

  00015	8b 45 fc	 mov	 eax, DWORD PTR _this$[ebp]
  00018	89 45 f4	 mov	 DWORD PTR $T10[ebp], eax

; 1554 :         return _Get_data()._Myoff;

  0001b	8b 45 f4	 mov	 eax, DWORD PTR $T10[ebp]
  0001e	83 c0 0c	 add	 eax, 12			; 0000000cH
  00021	89 45 f0	 mov	 DWORD PTR $T9[ebp], eax

; 914  :         return _Unchecked_iterator(_Myoff(), _STD addressof(_Get_data()));

  00024	8b 45 f0	 mov	 eax, DWORD PTR $T9[ebp]
  00027	8b 00		 mov	 eax, DWORD PTR [eax]
  00029	89 45 e8	 mov	 DWORD PTR ___param0$[ebp], eax

; 52   :         : _Mycont(static_cast<const _Mydeque*>(_Pdeque)), _Myoff(_Off) {}

  0002c	8b 45 ec	 mov	 eax, DWORD PTR $T8[ebp]
  0002f	89 45 c8	 mov	 DWORD PTR $T2[ebp], eax
  00032	8b 45 e8	 mov	 eax, DWORD PTR ___param0$[ebp]
  00035	89 45 cc	 mov	 DWORD PTR $T2[ebp+4], eax

; 914  :         return _Unchecked_iterator(_Myoff(), _STD addressof(_Get_data()));

  00038	8d 45 c8	 lea	 eax, DWORD PTR $T2[ebp]
  0003b	89 45 e4	 mov	 DWORD PTR $T7[ebp], eax

; 206  :         _Deque_unchecked_iterator _Tmp = *this;

  0003e	8b 45 e4	 mov	 eax, DWORD PTR $T7[ebp]
  00041	8b 08		 mov	 ecx, DWORD PTR [eax]
  00043	8b 40 04	 mov	 eax, DWORD PTR [eax+4]
  00046	89 4d d0	 mov	 DWORD PTR __Tmp$3[ebp], ecx
  00049	89 45 d4	 mov	 DWORD PTR __Tmp$3[ebp+4], eax

; 87   :         _Myoff += _Off;

  0004c	8b 45 d4	 mov	 eax, DWORD PTR __Tmp$3[ebp+4]
  0004f	03 45 08	 add	 eax, DWORD PTR __Pos$[ebp]
  00052	89 45 d4	 mov	 DWORD PTR __Tmp$3[ebp+4], eax

; 202  :         return *this;

  00055	8d 45 d0	 lea	 eax, DWORD PTR __Tmp$3[ebp]
  00058	89 45 e0	 mov	 DWORD PTR $T6[ebp], eax

; 207  :         return _Tmp += _Off;

  0005b	8b 45 e0	 mov	 eax, DWORD PTR $T6[ebp]
  0005e	8b 08		 mov	 ecx, DWORD PTR [eax]
  00060	8b 40 04	 mov	 eax, DWORD PTR [eax+4]
  00063	89 4d c0	 mov	 DWORD PTR $T1[ebp], ecx
  00066	89 45 c4	 mov	 DWORD PTR $T1[ebp+4], eax
  00069	8d 45 c0	 lea	 eax, DWORD PTR $T1[ebp]
  0006c	89 45 dc	 mov	 DWORD PTR $T5[ebp], eax

; 171  :         return const_cast<reference>(_Mybase::operator*());

  0006f	8b 4d dc	 mov	 ecx, DWORD PTR $T5[ebp]
  00072	e8 00 00 00 00	 call	 ??D?$_Deque_unchecked_const_iterator@V?$_Deque_val@U?$_Deque_simple_types@U?$pair@MUD3DXVECTOR3@@@std@@@std@@@std@@@std@@QBEABU?$pair@MUD3DXVECTOR3@@@1@XZ ; std::_Deque_unchecked_const_iterator<std::_Deque_val<std::_Deque_simple_types<std::pair<float,D3DXVECTOR3> > > >::operator*
  00077	89 45 d8	 mov	 DWORD PTR $T4[ebp], eax

; 1040 : #if _CONTAINER_DEBUG_LEVEL > 0
; 1041 :         _STL_VERIFY(_Pos < _Mysize(), "deque subscript out of range");
; 1042 : #endif // _CONTAINER_DEBUG_LEVEL > 0
; 1043 : 
; 1044 :         return *(_Unchecked_begin() + static_cast<difference_type>(_Pos));

  0007a	8b 45 d8	 mov	 eax, DWORD PTR $T4[ebp]

; 1045 :     }

  0007d	c9		 leave
  0007e	c2 04 00	 ret	 4
??A?$deque@U?$pair@MUD3DXVECTOR3@@@std@@V?$allocator@U?$pair@MUD3DXVECTOR3@@@std@@@2@@std@@QAEAAU?$pair@MUD3DXVECTOR3@@@1@I@Z ENDP ; std::deque<std::pair<float,D3DXVECTOR3>,std::allocator<std::pair<float,D3DXVECTOR3> > >::operator[]
_TEXT	ENDS
; Function compile flags: /Odspy
; File C:\Program Files (x86)\Microsoft Visual Studio\2019\Community\VC\Tools\MSVC\14.28.29333\include\deque
; File C:\Program Files (x86)\Microsoft Visual Studio\2019\Community\VC\Tools\MSVC\14.28.29333\include\xstddef
; File C:\Program Files (x86)\Microsoft Visual Studio\2019\Community\VC\Tools\MSVC\14.28.29333\include\deque
;	COMDAT ?_Unchecked_end@?$deque@U?$pair@MUD3DXVECTOR3@@@std@@V?$allocator@U?$pair@MUD3DXVECTOR3@@@std@@@2@@std@@QAE?AV?$_Deque_unchecked_iterator@V?$_Deque_val@U?$_Deque_simple_types@U?$pair@MUD3DXVECTOR3@@@std@@@std@@@std@@@2@XZ
_TEXT	SEGMENT
___param0$ = -32					; size = 4
$T1 = -28						; size = 4
$T2 = -24						; size = 4
$T3 = -20						; size = 4
$T4 = -16						; size = 4
$T5 = -12						; size = 4
$T6 = -8						; size = 4
_this$ = -4						; size = 4
___$ReturnUdt$ = 8					; size = 4
?_Unchecked_end@?$deque@U?$pair@MUD3DXVECTOR3@@@std@@V?$allocator@U?$pair@MUD3DXVECTOR3@@@std@@@2@@std@@QAE?AV?$_Deque_unchecked_iterator@V?$_Deque_val@U?$_Deque_simple_types@U?$pair@MUD3DXVECTOR3@@@std@@@std@@@std@@@2@XZ PROC ; std::deque<std::pair<float,D3DXVECTOR3>,std::allocator<std::pair<float,D3DXVECTOR3> > >::_Unchecked_end, COMDAT
; _this$ = ecx

; 921  :     _Unchecked_iterator _Unchecked_end() noexcept {

  00000	55		 push	 ebp
  00001	8b ec		 mov	 ebp, esp
  00003	83 ec 20	 sub	 esp, 32			; 00000020H
  00006	89 4d fc	 mov	 DWORD PTR _this$[ebp], ecx

; 1530 :         return _Mypair._Myval2;

  00009	8b 45 fc	 mov	 eax, DWORD PTR _this$[ebp]
  0000c	89 45 f8	 mov	 DWORD PTR $T6[ebp], eax
; File C:\Program Files (x86)\Microsoft Visual Studio\2019\Community\VC\Tools\MSVC\14.28.29333\include\xstddef

; 275  :     return __builtin_addressof(_Val);

  0000f	8b 45 f8	 mov	 eax, DWORD PTR $T6[ebp]
  00012	89 45 e4	 mov	 DWORD PTR $T1[ebp], eax
; File C:\Program Files (x86)\Microsoft Visual Studio\2019\Community\VC\Tools\MSVC\14.28.29333\include\deque

; 1530 :         return _Mypair._Myval2;

  00015	8b 45 fc	 mov	 eax, DWORD PTR _this$[ebp]
  00018	89 45 f4	 mov	 DWORD PTR $T5[ebp], eax

; 1554 :         return _Get_data()._Myoff;

  0001b	8b 45 f4	 mov	 eax, DWORD PTR $T5[ebp]
  0001e	83 c0 0c	 add	 eax, 12			; 0000000cH
  00021	89 45 ec	 mov	 DWORD PTR $T3[ebp], eax

; 1530 :         return _Mypair._Myval2;

  00024	8b 45 fc	 mov	 eax, DWORD PTR _this$[ebp]
  00027	89 45 f0	 mov	 DWORD PTR $T4[ebp], eax

; 1562 :         return _Get_data()._Mysize;

  0002a	8b 45 f0	 mov	 eax, DWORD PTR $T4[ebp]
  0002d	83 c0 10	 add	 eax, 16			; 00000010H
  00030	89 45 e8	 mov	 DWORD PTR $T2[ebp], eax

; 922  :         return _Unchecked_iterator(_Myoff() + _Mysize(), _STD addressof(_Get_data()));

  00033	8b 45 ec	 mov	 eax, DWORD PTR $T3[ebp]
  00036	8b 00		 mov	 eax, DWORD PTR [eax]
  00038	8b 4d e8	 mov	 ecx, DWORD PTR $T2[ebp]
  0003b	03 01		 add	 eax, DWORD PTR [ecx]
  0003d	89 45 e0	 mov	 DWORD PTR ___param0$[ebp], eax

; 52   :         : _Mycont(static_cast<const _Mydeque*>(_Pdeque)), _Myoff(_Off) {}

  00040	8b 45 08	 mov	 eax, DWORD PTR ___$ReturnUdt$[ebp]
  00043	8b 4d e4	 mov	 ecx, DWORD PTR $T1[ebp]
  00046	89 08		 mov	 DWORD PTR [eax], ecx
  00048	8b 45 08	 mov	 eax, DWORD PTR ___$ReturnUdt$[ebp]
  0004b	8b 4d e0	 mov	 ecx, DWORD PTR ___param0$[ebp]
  0004e	89 48 04	 mov	 DWORD PTR [eax+4], ecx

; 922  :         return _Unchecked_iterator(_Myoff() + _Mysize(), _STD addressof(_Get_data()));

  00051	8b 45 08	 mov	 eax, DWORD PTR ___$ReturnUdt$[ebp]

; 923  :     }

  00054	c9		 leave
  00055	c2 04 00	 ret	 4
?_Unchecked_end@?$deque@U?$pair@MUD3DXVECTOR3@@@std@@V?$allocator@U?$pair@MUD3DXVECTOR3@@@std@@@2@@std@@QAE?AV?$_Deque_unchecked_iterator@V?$_Deque_val@U?$_Deque_simple_types@U?$pair@MUD3DXVECTOR3@@@std@@@std@@@std@@@2@XZ ENDP ; std::deque<std::pair<float,D3DXVECTOR3>,std::allocator<std::pair<float,D3DXVECTOR3> > >::_Unchecked_end
_TEXT	ENDS
; Function compile flags: /Odspy
; File C:\Program Files (x86)\Microsoft Visual Studio\2019\Community\VC\Tools\MSVC\14.28.29333\include\deque
; File C:\Program Files (x86)\Microsoft Visual Studio\2019\Community\VC\Tools\MSVC\14.28.29333\include\xstddef
; File C:\Program Files (x86)\Microsoft Visual Studio\2019\Community\VC\Tools\MSVC\14.28.29333\include\deque
; File C:\Program Files (x86)\Microsoft Visual Studio\2019\Community\VC\Tools\MSVC\14.28.29333\include\xmemory
; File C:\Program Files (x86)\Microsoft Visual Studio\2019\Community\VC\Tools\MSVC\14.28.29333\include\deque
; File C:\Program Files (x86)\Microsoft Visual Studio\2019\Community\VC\Tools\MSVC\14.28.29333\include\xmemory
; File C:\Program Files (x86)\Microsoft Visual Studio\2019\Community\VC\Tools\MSVC\14.28.29333\include\deque
;	COMDAT ?end@?$deque@U?$pair@MUD3DXVECTOR3@@@std@@V?$allocator@U?$pair@MUD3DXVECTOR3@@@std@@@2@@std@@QAE?AV?$_Deque_iterator@V?$_Deque_val@U?$_Deque_simple_types@U?$pair@MUD3DXVECTOR3@@@std@@@std@@@std@@@2@XZ
_TEXT	SEGMENT
__Parent_proxy$1 = -36					; size = 4
___param0$ = -32					; size = 4
$T2 = -28						; size = 4
$T3 = -24						; size = 4
$T4 = -20						; size = 4
$T5 = -16						; size = 4
$T6 = -12						; size = 4
$T7 = -8						; size = 4
_this$ = -4						; size = 4
___$ReturnUdt$ = 8					; size = 4
?end@?$deque@U?$pair@MUD3DXVECTOR3@@@std@@V?$allocator@U?$pair@MUD3DXVECTOR3@@@std@@@2@@std@@QAE?AV?$_Deque_iterator@V?$_Deque_val@U?$_Deque_simple_types@U?$pair@MUD3DXVECTOR3@@@std@@@std@@@std@@@2@XZ PROC ; std::deque<std::pair<float,D3DXVECTOR3>,std::allocator<std::pair<float,D3DXVECTOR3> > >::end, COMDAT
; _this$ = ecx

; 905  :     _NODISCARD iterator end() noexcept {

  00000	55		 push	 ebp
  00001	8b ec		 mov	 ebp, esp
  00003	83 ec 24	 sub	 esp, 36			; 00000024H
  00006	89 4d fc	 mov	 DWORD PTR _this$[ebp], ecx

; 1530 :         return _Mypair._Myval2;

  00009	8b 45 fc	 mov	 eax, DWORD PTR _this$[ebp]
  0000c	89 45 f4	 mov	 DWORD PTR $T6[ebp], eax
; File C:\Program Files (x86)\Microsoft Visual Studio\2019\Community\VC\Tools\MSVC\14.28.29333\include\xstddef

; 275  :     return __builtin_addressof(_Val);

  0000f	8b 45 f4	 mov	 eax, DWORD PTR $T6[ebp]
  00012	89 45 f8	 mov	 DWORD PTR $T7[ebp], eax
; File C:\Program Files (x86)\Microsoft Visual Studio\2019\Community\VC\Tools\MSVC\14.28.29333\include\deque

; 1530 :         return _Mypair._Myval2;

  00015	8b 45 fc	 mov	 eax, DWORD PTR _this$[ebp]
  00018	89 45 f0	 mov	 DWORD PTR $T5[ebp], eax

; 1554 :         return _Get_data()._Myoff;

  0001b	8b 45 f0	 mov	 eax, DWORD PTR $T5[ebp]
  0001e	83 c0 0c	 add	 eax, 12			; 0000000cH
  00021	89 45 e8	 mov	 DWORD PTR $T3[ebp], eax

; 1530 :         return _Mypair._Myval2;

  00024	8b 45 fc	 mov	 eax, DWORD PTR _this$[ebp]
  00027	89 45 ec	 mov	 DWORD PTR $T4[ebp], eax

; 1562 :         return _Get_data()._Mysize;

  0002a	8b 45 ec	 mov	 eax, DWORD PTR $T4[ebp]
  0002d	83 c0 10	 add	 eax, 16			; 00000010H
  00030	89 45 e4	 mov	 DWORD PTR $T2[ebp], eax

; 906  :         return iterator(_Myoff() + _Mysize(), _STD addressof(_Get_data()));

  00033	8b 45 e8	 mov	 eax, DWORD PTR $T3[ebp]
  00036	8b 00		 mov	 eax, DWORD PTR [eax]
  00038	8b 4d e4	 mov	 ecx, DWORD PTR $T2[ebp]
  0003b	03 01		 add	 eax, DWORD PTR [ecx]
  0003d	89 45 e0	 mov	 DWORD PTR ___param0$[ebp], eax
; File C:\Program Files (x86)\Microsoft Visual Studio\2019\Community\VC\Tools\MSVC\14.28.29333\include\xmemory

; 1126 :     _Iterator_base12() noexcept : _Myproxy(nullptr), _Mynextiter(nullptr) {} // construct orphaned iterator

  00040	8b 45 08	 mov	 eax, DWORD PTR ___$ReturnUdt$[ebp]
  00043	83 20 00	 and	 DWORD PTR [eax], 0
  00046	8b 45 08	 mov	 eax, DWORD PTR ___$ReturnUdt$[ebp]
  00049	83 60 04 00	 and	 DWORD PTR [eax+4], 0
; File C:\Program Files (x86)\Microsoft Visual Studio\2019\Community\VC\Tools\MSVC\14.28.29333\include\deque

; 256  :     _Deque_const_iterator(_Size_type _Off, const _Container_base12* _Pdeque) noexcept : _Myoff(_Off) {

  0004d	8b 45 08	 mov	 eax, DWORD PTR ___$ReturnUdt$[ebp]
  00050	8b 4d e0	 mov	 ecx, DWORD PTR ___param0$[ebp]
  00053	89 48 08	 mov	 DWORD PTR [eax+8], ecx
; File C:\Program Files (x86)\Microsoft Visual Studio\2019\Community\VC\Tools\MSVC\14.28.29333\include\xmemory

; 1157 :         if (_Parent) {

  00056	83 7d f8 00	 cmp	 DWORD PTR $T7[ebp], 0
  0005a	74 12		 je	 SHORT $LN34@end

; 1158 :             // have a parent, do adoption
; 1159 :             _Container_proxy* _Parent_proxy = _Parent->_Myproxy;

  0005c	8b 45 f8	 mov	 eax, DWORD PTR $T7[ebp]
  0005f	8b 00		 mov	 eax, DWORD PTR [eax]
  00061	89 45 dc	 mov	 DWORD PTR __Parent_proxy$1[ebp], eax

; 1160 : 
; 1161 : #if _ITERATOR_DEBUG_LEVEL == 2
; 1162 :             if (_Myproxy != _Parent_proxy) { // change parentage
; 1163 :                 _Lockit _Lock(_LOCK_DEBUG);
; 1164 :                 _Orphan_me();
; 1165 :                 _Mynextiter                 = _Parent_proxy->_Myfirstiter;
; 1166 :                 _Parent_proxy->_Myfirstiter = this;
; 1167 :                 _Myproxy                    = _Parent_proxy;
; 1168 :             }
; 1169 : 
; 1170 : #else // _ITERATOR_DEBUG_LEVEL == 2
; 1171 :             _Myproxy = _Parent_proxy;

  00064	8b 45 08	 mov	 eax, DWORD PTR ___$ReturnUdt$[ebp]
  00067	8b 4d dc	 mov	 ecx, DWORD PTR __Parent_proxy$1[ebp]
  0006a	89 08		 mov	 DWORD PTR [eax], ecx

; 1172 : #endif // _ITERATOR_DEBUG_LEVEL == 2
; 1173 :         } else {

  0006c	eb 06		 jmp	 SHORT $LN22@end
$LN34@end:

; 1174 :             // no future parent, just disown current parent
; 1175 : #if _ITERATOR_DEBUG_LEVEL == 2
; 1176 :             _Lockit _Lock(_LOCK_DEBUG);
; 1177 :             _Orphan_me();
; 1178 : #else // _ITERATOR_DEBUG_LEVEL == 2
; 1179 :             _Myproxy = nullptr;

  0006e	8b 45 08	 mov	 eax, DWORD PTR ___$ReturnUdt$[ebp]
  00071	83 20 00	 and	 DWORD PTR [eax], 0
$LN22@end:
; File C:\Program Files (x86)\Microsoft Visual Studio\2019\Community\VC\Tools\MSVC\14.28.29333\include\deque

; 906  :         return iterator(_Myoff() + _Mysize(), _STD addressof(_Get_data()));

  00074	8b 45 08	 mov	 eax, DWORD PTR ___$ReturnUdt$[ebp]

; 907  :     }

  00077	c9		 leave
  00078	c2 04 00	 ret	 4
?end@?$deque@U?$pair@MUD3DXVECTOR3@@@std@@V?$allocator@U?$pair@MUD3DXVECTOR3@@@std@@@2@@std@@QAE?AV?$_Deque_iterator@V?$_Deque_val@U?$_Deque_simple_types@U?$pair@MUD3DXVECTOR3@@@std@@@std@@@std@@@2@XZ ENDP ; std::deque<std::pair<float,D3DXVECTOR3>,std::allocator<std::pair<float,D3DXVECTOR3> > >::end
_TEXT	ENDS
; Function compile flags: /Odspy
; File C:\Program Files (x86)\Microsoft Visual Studio\2019\Community\VC\Tools\MSVC\14.28.29333\include\deque
; File C:\Program Files (x86)\Microsoft Visual Studio\2019\Community\VC\Tools\MSVC\14.28.29333\include\xstddef
; File C:\Program Files (x86)\Microsoft Visual Studio\2019\Community\VC\Tools\MSVC\14.28.29333\include\deque
; File C:\Program Files (x86)\Microsoft Visual Studio\2019\Community\VC\Tools\MSVC\14.28.29333\include\xmemory
; File C:\Program Files (x86)\Microsoft Visual Studio\2019\Community\VC\Tools\MSVC\14.28.29333\include\deque
; File C:\Program Files (x86)\Microsoft Visual Studio\2019\Community\VC\Tools\MSVC\14.28.29333\include\xmemory
; File C:\Program Files (x86)\Microsoft Visual Studio\2019\Community\VC\Tools\MSVC\14.28.29333\include\deque
;	COMDAT ?begin@?$deque@U?$pair@MUD3DXVECTOR3@@@std@@V?$allocator@U?$pair@MUD3DXVECTOR3@@@std@@@2@@std@@QAE?AV?$_Deque_iterator@V?$_Deque_val@U?$_Deque_simple_types@U?$pair@MUD3DXVECTOR3@@@std@@@std@@@std@@@2@XZ
_TEXT	SEGMENT
__Parent_proxy$1 = -28					; size = 4
___param0$ = -24					; size = 4
$T2 = -20						; size = 4
$T3 = -16						; size = 4
$T4 = -12						; size = 4
$T5 = -8						; size = 4
_this$ = -4						; size = 4
___$ReturnUdt$ = 8					; size = 4
?begin@?$deque@U?$pair@MUD3DXVECTOR3@@@std@@V?$allocator@U?$pair@MUD3DXVECTOR3@@@std@@@2@@std@@QAE?AV?$_Deque_iterator@V?$_Deque_val@U?$_Deque_simple_types@U?$pair@MUD3DXVECTOR3@@@std@@@std@@@std@@@2@XZ PROC ; std::deque<std::pair<float,D3DXVECTOR3>,std::allocator<std::pair<float,D3DXVECTOR3> > >::begin, COMDAT
; _this$ = ecx

; 897  :     _NODISCARD iterator begin() noexcept {

  00000	55		 push	 ebp
  00001	8b ec		 mov	 ebp, esp
  00003	83 ec 1c	 sub	 esp, 28			; 0000001cH
  00006	89 4d fc	 mov	 DWORD PTR _this$[ebp], ecx

; 1530 :         return _Mypair._Myval2;

  00009	8b 45 fc	 mov	 eax, DWORD PTR _this$[ebp]
  0000c	89 45 f4	 mov	 DWORD PTR $T4[ebp], eax
; File C:\Program Files (x86)\Microsoft Visual Studio\2019\Community\VC\Tools\MSVC\14.28.29333\include\xstddef

; 275  :     return __builtin_addressof(_Val);

  0000f	8b 45 f4	 mov	 eax, DWORD PTR $T4[ebp]
  00012	89 45 f8	 mov	 DWORD PTR $T5[ebp], eax
; File C:\Program Files (x86)\Microsoft Visual Studio\2019\Community\VC\Tools\MSVC\14.28.29333\include\deque

; 1530 :         return _Mypair._Myval2;

  00015	8b 45 fc	 mov	 eax, DWORD PTR _this$[ebp]
  00018	89 45 f0	 mov	 DWORD PTR $T3[ebp], eax

; 1554 :         return _Get_data()._Myoff;

  0001b	8b 45 f0	 mov	 eax, DWORD PTR $T3[ebp]
  0001e	83 c0 0c	 add	 eax, 12			; 0000000cH
  00021	89 45 ec	 mov	 DWORD PTR $T2[ebp], eax

; 898  :         return iterator(_Myoff(), _STD addressof(_Get_data()));

  00024	8b 45 ec	 mov	 eax, DWORD PTR $T2[ebp]
  00027	8b 00		 mov	 eax, DWORD PTR [eax]
  00029	89 45 e8	 mov	 DWORD PTR ___param0$[ebp], eax
; File C:\Program Files (x86)\Microsoft Visual Studio\2019\Community\VC\Tools\MSVC\14.28.29333\include\xmemory

; 1126 :     _Iterator_base12() noexcept : _Myproxy(nullptr), _Mynextiter(nullptr) {} // construct orphaned iterator

  0002c	8b 45 08	 mov	 eax, DWORD PTR ___$ReturnUdt$[ebp]
  0002f	83 20 00	 and	 DWORD PTR [eax], 0
  00032	8b 45 08	 mov	 eax, DWORD PTR ___$ReturnUdt$[ebp]
  00035	83 60 04 00	 and	 DWORD PTR [eax+4], 0
; File C:\Program Files (x86)\Microsoft Visual Studio\2019\Community\VC\Tools\MSVC\14.28.29333\include\deque

; 256  :     _Deque_const_iterator(_Size_type _Off, const _Container_base12* _Pdeque) noexcept : _Myoff(_Off) {

  00039	8b 45 08	 mov	 eax, DWORD PTR ___$ReturnUdt$[ebp]
  0003c	8b 4d e8	 mov	 ecx, DWORD PTR ___param0$[ebp]
  0003f	89 48 08	 mov	 DWORD PTR [eax+8], ecx
; File C:\Program Files (x86)\Microsoft Visual Studio\2019\Community\VC\Tools\MSVC\14.28.29333\include\xmemory

; 1157 :         if (_Parent) {

  00042	83 7d f8 00	 cmp	 DWORD PTR $T5[ebp], 0
  00046	74 12		 je	 SHORT $LN28@begin

; 1158 :             // have a parent, do adoption
; 1159 :             _Container_proxy* _Parent_proxy = _Parent->_Myproxy;

  00048	8b 45 f8	 mov	 eax, DWORD PTR $T5[ebp]
  0004b	8b 00		 mov	 eax, DWORD PTR [eax]
  0004d	89 45 e4	 mov	 DWORD PTR __Parent_proxy$1[ebp], eax

; 1160 : 
; 1161 : #if _ITERATOR_DEBUG_LEVEL == 2
; 1162 :             if (_Myproxy != _Parent_proxy) { // change parentage
; 1163 :                 _Lockit _Lock(_LOCK_DEBUG);
; 1164 :                 _Orphan_me();
; 1165 :                 _Mynextiter                 = _Parent_proxy->_Myfirstiter;
; 1166 :                 _Parent_proxy->_Myfirstiter = this;
; 1167 :                 _Myproxy                    = _Parent_proxy;
; 1168 :             }
; 1169 : 
; 1170 : #else // _ITERATOR_DEBUG_LEVEL == 2
; 1171 :             _Myproxy = _Parent_proxy;

  00050	8b 45 08	 mov	 eax, DWORD PTR ___$ReturnUdt$[ebp]
  00053	8b 4d e4	 mov	 ecx, DWORD PTR __Parent_proxy$1[ebp]
  00056	89 08		 mov	 DWORD PTR [eax], ecx

; 1172 : #endif // _ITERATOR_DEBUG_LEVEL == 2
; 1173 :         } else {

  00058	eb 06		 jmp	 SHORT $LN16@begin
$LN28@begin:

; 1174 :             // no future parent, just disown current parent
; 1175 : #if _ITERATOR_DEBUG_LEVEL == 2
; 1176 :             _Lockit _Lock(_LOCK_DEBUG);
; 1177 :             _Orphan_me();
; 1178 : #else // _ITERATOR_DEBUG_LEVEL == 2
; 1179 :             _Myproxy = nullptr;

  0005a	8b 45 08	 mov	 eax, DWORD PTR ___$ReturnUdt$[ebp]
  0005d	83 20 00	 and	 DWORD PTR [eax], 0
$LN16@begin:
; File C:\Program Files (x86)\Microsoft Visual Studio\2019\Community\VC\Tools\MSVC\14.28.29333\include\deque

; 898  :         return iterator(_Myoff(), _STD addressof(_Get_data()));

  00060	8b 45 08	 mov	 eax, DWORD PTR ___$ReturnUdt$[ebp]

; 899  :     }

  00063	c9		 leave
  00064	c2 04 00	 ret	 4
?begin@?$deque@U?$pair@MUD3DXVECTOR3@@@std@@V?$allocator@U?$pair@MUD3DXVECTOR3@@@std@@@2@@std@@QAE?AV?$_Deque_iterator@V?$_Deque_val@U?$_Deque_simple_types@U?$pair@MUD3DXVECTOR3@@@std@@@std@@@std@@@2@XZ ENDP ; std::deque<std::pair<float,D3DXVECTOR3>,std::allocator<std::pair<float,D3DXVECTOR3> > >::begin
_TEXT	ENDS
; Function compile flags: /Odspy
; File C:\Program Files (x86)\Microsoft Visual Studio\2019\Community\VC\Tools\MSVC\14.28.29333\include\deque
; File C:\Program Files (x86)\Microsoft Visual Studio\2019\Community\VC\Tools\MSVC\14.28.29333\include\xmemory
; File C:\Program Files (x86)\Microsoft Visual Studio\2019\Community\VC\Tools\MSVC\14.28.29333\include\deque
; File C:\Program Files (x86)\Microsoft Visual Studio\2019\Community\VC\Tools\MSVC\14.28.29333\include\utility
; File C:\Program Files (x86)\Microsoft Visual Studio\2019\Community\VC\Tools\MSVC\14.28.29333\include\deque
;	COMDAT ??1?$deque@U?$pair@MUD3DXVECTOR3@@@std@@V?$allocator@U?$pair@MUD3DXVECTOR3@@@std@@@2@@std@@QAE@XZ
_TEXT	SEGMENT
$T1 = -32						; size = 4
$T2 = -28						; size = 4
__Old_val$3 = -24					; size = 4
$T4 = -20						; size = 4
$T5 = -16						; size = 4
$T6 = -12						; size = 4
_this$ = -8						; size = 4
__Proxy_allocator$ = -1					; size = 1
??1?$deque@U?$pair@MUD3DXVECTOR3@@@std@@V?$allocator@U?$pair@MUD3DXVECTOR3@@@std@@@2@@std@@QAE@XZ PROC ; std::deque<std::pair<float,D3DXVECTOR3>,std::allocator<std::pair<float,D3DXVECTOR3> > >::~deque<std::pair<float,D3DXVECTOR3>,std::allocator<std::pair<float,D3DXVECTOR3> > >, COMDAT
; _this$ = ecx

; 869  :     ~deque() noexcept {

  00000	55		 push	 ebp
  00001	8b ec		 mov	 ebp, esp
  00003	83 ec 20	 sub	 esp, 32			; 00000020H
  00006	89 4d f8	 mov	 DWORD PTR _this$[ebp], ecx

; 870  :         _Tidy();

  00009	8b 4d f8	 mov	 ecx, DWORD PTR _this$[ebp]
  0000c	e8 00 00 00 00	 call	 ?_Tidy@?$deque@U?$pair@MUD3DXVECTOR3@@@std@@V?$allocator@U?$pair@MUD3DXVECTOR3@@@std@@@2@@std@@AAEXXZ ; std::deque<std::pair<float,D3DXVECTOR3>,std::allocator<std::pair<float,D3DXVECTOR3> > >::_Tidy

; 1522 :         return _Mypair._Get_first();

  00011	8b 45 f8	 mov	 eax, DWORD PTR _this$[ebp]
; File C:\Program Files (x86)\Microsoft Visual Studio\2019\Community\VC\Tools\MSVC\14.28.29333\include\xmemory

; 1347 :         return *this;

  00014	89 45 f0	 mov	 DWORD PTR $T5[ebp], eax
; File C:\Program Files (x86)\Microsoft Visual Studio\2019\Community\VC\Tools\MSVC\14.28.29333\include\deque

; 1522 :         return _Mypair._Get_first();

  00017	8b 45 f0	 mov	 eax, DWORD PTR $T5[ebp]
  0001a	89 45 e0	 mov	 DWORD PTR $T1[ebp], eax

; 872  :         _Delete_plain_internal(_Proxy_allocator, _STD exchange(_Get_data()._Myproxy, nullptr));

  0001d	83 65 ec 00	 and	 DWORD PTR $T4[ebp], 0

; 1530 :         return _Mypair._Myval2;

  00021	8b 45 f8	 mov	 eax, DWORD PTR _this$[ebp]
  00024	89 45 f4	 mov	 DWORD PTR $T6[ebp], eax
; File C:\Program Files (x86)\Microsoft Visual Studio\2019\Community\VC\Tools\MSVC\14.28.29333\include\utility

; 598  :     _Ty _Old_val = static_cast<_Ty&&>(_Val);

  00027	8b 45 f4	 mov	 eax, DWORD PTR $T6[ebp]
  0002a	8b 00		 mov	 eax, DWORD PTR [eax]
  0002c	89 45 e8	 mov	 DWORD PTR __Old_val$3[ebp], eax

; 599  :     _Val         = static_cast<_Other&&>(_New_val);

  0002f	8b 45 f4	 mov	 eax, DWORD PTR $T6[ebp]
  00032	8b 4d ec	 mov	 ecx, DWORD PTR $T4[ebp]
  00035	89 08		 mov	 DWORD PTR [eax], ecx

; 600  :     return _Old_val;

  00037	8b 45 e8	 mov	 eax, DWORD PTR __Old_val$3[ebp]
  0003a	89 45 e4	 mov	 DWORD PTR $T2[ebp], eax
; File C:\Program Files (x86)\Microsoft Visual Studio\2019\Community\VC\Tools\MSVC\14.28.29333\include\deque

; 872  :         _Delete_plain_internal(_Proxy_allocator, _STD exchange(_Get_data()._Myproxy, nullptr));

  0003d	ff 75 e4	 push	 DWORD PTR $T2[ebp]
  00040	8d 45 ff	 lea	 eax, DWORD PTR __Proxy_allocator$[ebp]
  00043	50		 push	 eax
  00044	e8 00 00 00 00	 call	 ??$_Delete_plain_internal@V?$allocator@U_Container_proxy@std@@@std@@@std@@YAXAAV?$allocator@U_Container_proxy@std@@@0@QAU_Container_proxy@0@@Z ; std::_Delete_plain_internal<std::allocator<std::_Container_proxy> >
  00049	59		 pop	 ecx
  0004a	59		 pop	 ecx

; 873  :     }

  0004b	c9		 leave
  0004c	c3		 ret	 0
??1?$deque@U?$pair@MUD3DXVECTOR3@@@std@@V?$allocator@U?$pair@MUD3DXVECTOR3@@@std@@@2@@std@@QAE@XZ ENDP ; std::deque<std::pair<float,D3DXVECTOR3>,std::allocator<std::pair<float,D3DXVECTOR3> > >::~deque<std::pair<float,D3DXVECTOR3>,std::allocator<std::pair<float,D3DXVECTOR3> > >
_TEXT	ENDS
; Function compile flags: /Odspy
; File C:\Program Files (x86)\Microsoft Visual Studio\2019\Community\VC\Tools\MSVC\14.28.29333\include\deque
; File C:\Program Files (x86)\Microsoft Visual Studio\2019\Community\VC\Tools\MSVC\14.28.29333\include\xmemory
; File C:\Program Files (x86)\Microsoft Visual Studio\2019\Community\VC\Tools\MSVC\14.28.29333\include\deque
; File C:\Program Files (x86)\Microsoft Visual Studio\2019\Community\VC\Tools\MSVC\14.28.29333\include\xmemory
; File C:\Program Files (x86)\Microsoft Visual Studio\2019\Community\VC\Tools\MSVC\14.28.29333\include\deque
; File C:\Program Files (x86)\Microsoft Visual Studio\2019\Community\VC\Tools\MSVC\14.28.29333\include\type_traits
; File C:\Program Files (x86)\Microsoft Visual Studio\2019\Community\VC\Tools\MSVC\14.28.29333\include\deque
; File C:\Program Files (x86)\Microsoft Visual Studio\2019\Community\VC\Tools\MSVC\14.28.29333\include\xstddef
; File C:\Program Files (x86)\Microsoft Visual Studio\2019\Community\VC\Tools\MSVC\14.28.29333\include\deque
; File C:\Program Files (x86)\Microsoft Visual Studio\2019\Community\VC\Tools\MSVC\14.28.29333\include\xmemory
; File C:\Program Files (x86)\Microsoft Visual Studio\2019\Community\VC\Tools\MSVC\14.28.29333\include\deque
; File C:\Program Files (x86)\Microsoft Visual Studio\2019\Community\VC\Tools\MSVC\14.28.29333\include\vcruntime_new.h
; File C:\Program Files (x86)\Microsoft Visual Studio\2019\Community\VC\Tools\MSVC\14.28.29333\include\type_traits
; File C:\Program Files (x86)\Microsoft Visual Studio\2019\Community\VC\Tools\MSVC\14.28.29333\include\xmemory
; File C:\Program Files (x86)\Microsoft Visual Studio\2019\Community\VC\Tools\MSVC\14.28.29333\include\deque
;	COMDAT ?push_front@?$deque@U?$pair@MUD3DXVECTOR3@@@std@@V?$allocator@U?$pair@MUD3DXVECTOR3@@@std@@@2@@std@@QAEX$$QAU?$pair@MUD3DXVECTOR3@@@2@@Z
_TEXT	SEGMENT
$T1 = -76						; size = 4
$T2 = -72						; size = 4
__Max_possible$3 = -68					; size = 4
$T4 = -64						; size = 4
$T5 = -60						; size = 4
$T6 = -56						; size = 4
$T7 = -52						; size = 4
$T8 = -48						; size = 4
$T9 = -44						; size = 4
$T10 = -40						; size = 4
$T11 = -36						; size = 4
$T12 = -32						; size = 4
$T13 = -28						; size = 4
$T14 = -24						; size = 4
__Ptr$ = -20						; size = 4
$T15 = -16						; size = 4
$T16 = -12						; size = 4
$T17 = -8						; size = 4
$T18 = -4						; size = 4
$T19 = 0						; size = 4
$T20 = 4						; size = 4
$T21 = 8						; size = 4
$T22 = 12						; size = 4
$T23 = 16						; size = 4
$T24 = 20						; size = 4
$T25 = 24						; size = 4
$T26 = 28						; size = 4
$T27 = 32						; size = 4
$T28 = 36						; size = 4
$T29 = 40						; size = 4
$T30 = 44						; size = 4
$T31 = 48						; size = 4
$T32 = 52						; size = 4
$T33 = 56						; size = 4
$T34 = 60						; size = 4
$T35 = 64						; size = 4
$T36 = 68						; size = 4
$T37 = 72						; size = 4
$T38 = 76						; size = 4
$T39 = 80						; size = 4
$T40 = 84						; size = 4
tv91 = 88						; size = 4
tv165 = 92						; size = 4
__Block$ = 96						; size = 4
tv82 = 100						; size = 4
__Overflow_is_possible$41 = 107				; size = 1
__Newoff$ = 108						; size = 4
_this$ = 112						; size = 4
__Val$ = 124						; size = 4
?push_front@?$deque@U?$pair@MUD3DXVECTOR3@@@std@@V?$allocator@U?$pair@MUD3DXVECTOR3@@@std@@@2@@std@@QAEX$$QAU?$pair@MUD3DXVECTOR3@@@2@@Z PROC ; std::deque<std::pair<float,D3DXVECTOR3>,std::allocator<std::pair<float,D3DXVECTOR3> > >::push_front, COMDAT
; _this$ = ecx

; 788  :     void push_front(_Ty&& _Val) {

  00000	55		 push	 ebp
  00001	8d 6c 24 8c	 lea	 ebp, DWORD PTR [esp-116]
  00005	81 ec c0 00 00
	00		 sub	 esp, 192		; 000000c0H
  0000b	56		 push	 esi
  0000c	57		 push	 edi
  0000d	89 4d 70	 mov	 DWORD PTR _this$[ebp], ecx

; 1530 :         return _Mypair._Myval2;

  00010	8b 45 70	 mov	 eax, DWORD PTR _this$[ebp]
  00013	89 45 c8	 mov	 DWORD PTR $T6[ebp], eax
  00016	8b 45 70	 mov	 eax, DWORD PTR _this$[ebp]
  00019	89 45 54	 mov	 DWORD PTR $T40[ebp], eax

; 1554 :         return _Get_data()._Myoff;

  0001c	8b 45 54	 mov	 eax, DWORD PTR $T40[ebp]
  0001f	83 c0 0c	 add	 eax, 12			; 0000000cH
  00022	89 45 50	 mov	 DWORD PTR $T39[ebp], eax

; 789  :         _Orphan_all();
; 790  :         _PUSH_FRONT_BEGIN;

  00025	8b 45 50	 mov	 eax, DWORD PTR $T39[ebp]
  00028	8b 00		 mov	 eax, DWORD PTR [eax]
  0002a	33 d2		 xor	 edx, edx
  0002c	33 c9		 xor	 ecx, ecx
  0002e	41		 inc	 ecx
  0002f	f7 f1		 div	 ecx
  00031	85 d2		 test	 edx, edx
  00033	75 35		 jne	 SHORT $LN2@push_front

; 1530 :         return _Mypair._Myval2;

  00035	8b 45 70	 mov	 eax, DWORD PTR _this$[ebp]
  00038	89 45 4c	 mov	 DWORD PTR $T38[ebp], eax

; 1546 :         return _Get_data()._Mapsize;

  0003b	8b 45 4c	 mov	 eax, DWORD PTR $T38[ebp]
  0003e	83 c0 08	 add	 eax, 8
  00041	89 45 40	 mov	 DWORD PTR $T35[ebp], eax

; 1530 :         return _Mypair._Myval2;

  00044	8b 45 70	 mov	 eax, DWORD PTR _this$[ebp]
  00047	89 45 48	 mov	 DWORD PTR $T37[ebp], eax

; 1562 :         return _Get_data()._Mysize;

  0004a	8b 45 48	 mov	 eax, DWORD PTR $T37[ebp]
  0004d	83 c0 10	 add	 eax, 16			; 00000010H
  00050	89 45 44	 mov	 DWORD PTR $T36[ebp], eax

; 789  :         _Orphan_all();
; 790  :         _PUSH_FRONT_BEGIN;

  00053	8b 45 44	 mov	 eax, DWORD PTR $T36[ebp]
  00056	8b 00		 mov	 eax, DWORD PTR [eax]
  00058	40		 inc	 eax
  00059	8b 4d 40	 mov	 ecx, DWORD PTR $T35[ebp]
  0005c	39 01		 cmp	 DWORD PTR [ecx], eax
  0005e	77 0a		 ja	 SHORT $LN2@push_front
  00060	6a 01		 push	 1
  00062	8b 4d 70	 mov	 ecx, DWORD PTR _this$[ebp]
  00065	e8 00 00 00 00	 call	 ?_Growmap@?$deque@U?$pair@MUD3DXVECTOR3@@@std@@V?$allocator@U?$pair@MUD3DXVECTOR3@@@std@@@2@@std@@AAEXI@Z ; std::deque<std::pair<float,D3DXVECTOR3>,std::allocator<std::pair<float,D3DXVECTOR3> > >::_Growmap
$LN2@push_front:
  0006a	8b 45 c4	 mov	 eax, DWORD PTR $T5[ebp]
  0006d	89 45 64	 mov	 DWORD PTR tv82[ebp], eax

; 1530 :         return _Mypair._Myval2;

  00070	8b 45 70	 mov	 eax, DWORD PTR _this$[ebp]
  00073	89 45 3c	 mov	 DWORD PTR $T34[ebp], eax

; 1554 :         return _Get_data()._Myoff;

  00076	8b 45 3c	 mov	 eax, DWORD PTR $T34[ebp]
  00079	83 c0 0c	 add	 eax, 12			; 0000000cH
  0007c	89 45 64	 mov	 DWORD PTR tv82[ebp], eax

; 1530 :         return _Mypair._Myval2;

  0007f	8b 45 70	 mov	 eax, DWORD PTR _this$[ebp]
  00082	89 45 38	 mov	 DWORD PTR $T33[ebp], eax

; 1546 :         return _Get_data()._Mapsize;

  00085	8b 45 38	 mov	 eax, DWORD PTR $T33[ebp]
  00088	83 c0 08	 add	 eax, 8
  0008b	89 45 34	 mov	 DWORD PTR $T32[ebp], eax

; 789  :         _Orphan_all();
; 790  :         _PUSH_FRONT_BEGIN;

  0008e	8b 45 34	 mov	 eax, DWORD PTR $T32[ebp]
  00091	8b 00		 mov	 eax, DWORD PTR [eax]
  00093	48		 dec	 eax
  00094	8b 4d 64	 mov	 ecx, DWORD PTR tv82[ebp]
  00097	23 01		 and	 eax, DWORD PTR [ecx]
  00099	8b 4d 64	 mov	 ecx, DWORD PTR tv82[ebp]
  0009c	89 01		 mov	 DWORD PTR [ecx], eax

; 1530 :         return _Mypair._Myval2;

  0009e	8b 45 70	 mov	 eax, DWORD PTR _this$[ebp]
  000a1	89 45 30	 mov	 DWORD PTR $T31[ebp], eax

; 1554 :         return _Get_data()._Myoff;

  000a4	8b 45 30	 mov	 eax, DWORD PTR $T31[ebp]
  000a7	83 c0 0c	 add	 eax, 12			; 0000000cH
  000aa	89 45 2c	 mov	 DWORD PTR $T30[ebp], eax

; 789  :         _Orphan_all();
; 790  :         _PUSH_FRONT_BEGIN;

  000ad	8b 45 2c	 mov	 eax, DWORD PTR $T30[ebp]
  000b0	83 38 00	 cmp	 DWORD PTR [eax], 0
  000b3	74 19		 je	 SHORT $LN5@push_front

; 1530 :         return _Mypair._Myval2;

  000b5	8b 45 70	 mov	 eax, DWORD PTR _this$[ebp]
  000b8	89 45 28	 mov	 DWORD PTR $T29[ebp], eax

; 1554 :         return _Get_data()._Myoff;

  000bb	8b 45 28	 mov	 eax, DWORD PTR $T29[ebp]
  000be	83 c0 0c	 add	 eax, 12			; 0000000cH
  000c1	89 45 24	 mov	 DWORD PTR $T28[ebp], eax

; 789  :         _Orphan_all();
; 790  :         _PUSH_FRONT_BEGIN;

  000c4	8b 45 24	 mov	 eax, DWORD PTR $T28[ebp]
  000c7	8b 00		 mov	 eax, DWORD PTR [eax]
  000c9	89 45 58	 mov	 DWORD PTR tv91[ebp], eax
  000cc	eb 17		 jmp	 SHORT $LN6@push_front
$LN5@push_front:

; 1530 :         return _Mypair._Myval2;

  000ce	8b 45 70	 mov	 eax, DWORD PTR _this$[ebp]
  000d1	89 45 20	 mov	 DWORD PTR $T27[ebp], eax

; 1546 :         return _Get_data()._Mapsize;

  000d4	8b 45 20	 mov	 eax, DWORD PTR $T27[ebp]
  000d7	83 c0 08	 add	 eax, 8
  000da	89 45 1c	 mov	 DWORD PTR $T26[ebp], eax

; 789  :         _Orphan_all();
; 790  :         _PUSH_FRONT_BEGIN;

  000dd	8b 45 1c	 mov	 eax, DWORD PTR $T26[ebp]
  000e0	8b 00		 mov	 eax, DWORD PTR [eax]
  000e2	89 45 58	 mov	 DWORD PTR tv91[ebp], eax
$LN6@push_front:
  000e5	8b 45 58	 mov	 eax, DWORD PTR tv91[ebp]
  000e8	89 45 6c	 mov	 DWORD PTR __Newoff$[ebp], eax
  000eb	8b 45 6c	 mov	 eax, DWORD PTR __Newoff$[ebp]
  000ee	48		 dec	 eax
  000ef	89 45 6c	 mov	 DWORD PTR __Newoff$[ebp], eax

; 1534 :         return _Mypair._Myval2;

  000f2	8b 45 70	 mov	 eax, DWORD PTR _this$[ebp]
  000f5	89 45 18	 mov	 DWORD PTR $T25[ebp], eax

; 548  :         return (_Off / _DEQUESIZ) & (_Mapsize - 1);

  000f8	8b 45 18	 mov	 eax, DWORD PTR $T25[ebp]
  000fb	8b 40 08	 mov	 eax, DWORD PTR [eax+8]
  000fe	48		 dec	 eax
  000ff	23 45 6c	 and	 eax, DWORD PTR __Newoff$[ebp]
  00102	89 45 14	 mov	 DWORD PTR $T24[ebp], eax

; 1514 :         return _Get_data()._Getblock(_Off);

  00105	8b 45 14	 mov	 eax, DWORD PTR $T24[ebp]
  00108	89 45 60	 mov	 DWORD PTR __Block$[ebp], eax

; 1530 :         return _Mypair._Myval2;

  0010b	8b 45 70	 mov	 eax, DWORD PTR _this$[ebp]
  0010e	89 45 10	 mov	 DWORD PTR $T23[ebp], eax

; 1538 :         return _Get_data()._Map;

  00111	8b 45 10	 mov	 eax, DWORD PTR $T23[ebp]
  00114	83 c0 04	 add	 eax, 4
  00117	89 45 0c	 mov	 DWORD PTR $T22[ebp], eax

; 789  :         _Orphan_all();
; 790  :         _PUSH_FRONT_BEGIN;

  0011a	8b 45 0c	 mov	 eax, DWORD PTR $T22[ebp]
  0011d	8b 00		 mov	 eax, DWORD PTR [eax]
  0011f	8b 4d 60	 mov	 ecx, DWORD PTR __Block$[ebp]
  00122	83 3c 88 00	 cmp	 DWORD PTR [eax+ecx*4], 0
  00126	75 58		 jne	 SHORT $LN3@push_front

; 1522 :         return _Mypair._Get_first();

  00128	8b 45 70	 mov	 eax, DWORD PTR _this$[ebp]
; File C:\Program Files (x86)\Microsoft Visual Studio\2019\Community\VC\Tools\MSVC\14.28.29333\include\xmemory

; 1347 :         return *this;

  0012b	89 45 08	 mov	 DWORD PTR $T21[ebp], eax
; File C:\Program Files (x86)\Microsoft Visual Studio\2019\Community\VC\Tools\MSVC\14.28.29333\include\deque

; 1522 :         return _Mypair._Get_first();

  0012e	8b 45 08	 mov	 eax, DWORD PTR $T21[ebp]
  00131	89 45 c0	 mov	 DWORD PTR $T4[ebp], eax
; File C:\Program Files (x86)\Microsoft Visual Studio\2019\Community\VC\Tools\MSVC\14.28.29333\include\xmemory

; 56   :     constexpr bool _Overflow_is_possible = _Ty_size > 1;

  00134	c6 45 6b 01	 mov	 BYTE PTR __Overflow_is_possible$41[ebp], 1

; 57   : 
; 58   :     if _CONSTEXPR_IF (_Overflow_is_possible) {
; 59   :         constexpr size_t _Max_possible = static_cast<size_t>(-1) / _Ty_size;

  00138	c7 45 bc ff ff
	ff 0f		 mov	 DWORD PTR __Max_possible$3[ebp], 268435455 ; 0fffffffH

; 60   :         if (_Count > _Max_possible) {

  0013f	33 c0		 xor	 eax, eax
  00141	40		 inc	 eax
  00142	3d ff ff ff 0f	 cmp	 eax, 268435455		; 0fffffffH
  00147	76 05		 jbe	 SHORT $LN88@push_front

; 61   :             _Throw_bad_array_new_length(); // multiply overflow

  00149	e8 00 00 00 00	 call	 ?_Throw_bad_array_new_length@std@@YAXXZ ; std::_Throw_bad_array_new_length
$LN88@push_front:

; 62   :         }
; 63   :     }
; 64   : 
; 65   :     return _Count * _Ty_size;

  0014e	33 c0		 xor	 eax, eax
  00150	40		 inc	 eax
  00151	c1 e0 04	 shl	 eax, 4
  00154	89 45 04	 mov	 DWORD PTR $T20[ebp], eax

; 814  :         return static_cast<_Ty*>(_Allocate<_New_alignof<_Ty>>(_Get_size_of_n<sizeof(_Ty)>(_Count)));

  00157	ff 75 04	 push	 DWORD PTR $T20[ebp]
  0015a	e8 00 00 00 00	 call	 ??$_Allocate@$07U_Default_allocate_traits@std@@$0A@@std@@YAPAXI@Z ; std::_Allocate<8,std::_Default_allocate_traits,0>
  0015f	59		 pop	 ecx
  00160	89 45 f8	 mov	 DWORD PTR $T17[ebp], eax
; File C:\Program Files (x86)\Microsoft Visual Studio\2019\Community\VC\Tools\MSVC\14.28.29333\include\deque

; 1530 :         return _Mypair._Myval2;

  00163	8b 45 70	 mov	 eax, DWORD PTR _this$[ebp]
  00166	89 45 00	 mov	 DWORD PTR $T19[ebp], eax

; 1538 :         return _Get_data()._Map;

  00169	8b 45 00	 mov	 eax, DWORD PTR $T19[ebp]
  0016c	83 c0 04	 add	 eax, 4
  0016f	89 45 fc	 mov	 DWORD PTR $T18[ebp], eax

; 789  :         _Orphan_all();
; 790  :         _PUSH_FRONT_BEGIN;

  00172	8b 45 fc	 mov	 eax, DWORD PTR $T18[ebp]
  00175	8b 00		 mov	 eax, DWORD PTR [eax]
  00177	8b 4d 60	 mov	 ecx, DWORD PTR __Block$[ebp]
  0017a	8b 55 f8	 mov	 edx, DWORD PTR $T17[ebp]
  0017d	89 14 88	 mov	 DWORD PTR [eax+ecx*4], edx
$LN3@push_front:
; File C:\Program Files (x86)\Microsoft Visual Studio\2019\Community\VC\Tools\MSVC\14.28.29333\include\type_traits

; 1455 :     return static_cast<remove_reference_t<_Ty>&&>(_Arg);

  00180	8b 45 7c	 mov	 eax, DWORD PTR __Val$[ebp]
  00183	89 45 e0	 mov	 DWORD PTR $T12[ebp], eax
; File C:\Program Files (x86)\Microsoft Visual Studio\2019\Community\VC\Tools\MSVC\14.28.29333\include\deque

; 1530 :         return _Mypair._Myval2;

  00186	8b 45 70	 mov	 eax, DWORD PTR _this$[ebp]
  00189	89 45 f4	 mov	 DWORD PTR $T16[ebp], eax

; 1538 :         return _Get_data()._Map;

  0018c	8b 45 f4	 mov	 eax, DWORD PTR $T16[ebp]
  0018f	83 c0 04	 add	 eax, 4
  00192	89 45 f0	 mov	 DWORD PTR $T15[ebp], eax

; 791  :         _Alty_traits::construct(_Getal(), _Unfancy(_Map()[_Block] + _Newoff % _DEQUESIZ), _STD move(_Val));

  00195	8b 45 6c	 mov	 eax, DWORD PTR __Newoff$[ebp]
  00198	33 d2		 xor	 edx, edx
  0019a	33 c9		 xor	 ecx, ecx
  0019c	41		 inc	 ecx
  0019d	f7 f1		 div	 ecx
  0019f	c1 e2 04	 shl	 edx, 4
  001a2	8b 45 f0	 mov	 eax, DWORD PTR $T15[ebp]
  001a5	8b 00		 mov	 eax, DWORD PTR [eax]
  001a7	8b 4d 60	 mov	 ecx, DWORD PTR __Block$[ebp]
  001aa	03 14 88	 add	 edx, DWORD PTR [eax+ecx*4]
  001ad	89 55 ec	 mov	 DWORD PTR __Ptr$[ebp], edx
; File C:\Program Files (x86)\Microsoft Visual Studio\2019\Community\VC\Tools\MSVC\14.28.29333\include\xstddef

; 289  :     return _Ptr;

  001b0	8b 45 ec	 mov	 eax, DWORD PTR __Ptr$[ebp]
  001b3	89 45 e4	 mov	 DWORD PTR $T13[ebp], eax
; File C:\Program Files (x86)\Microsoft Visual Studio\2019\Community\VC\Tools\MSVC\14.28.29333\include\deque

; 1522 :         return _Mypair._Get_first();

  001b6	8b 45 70	 mov	 eax, DWORD PTR _this$[ebp]
; File C:\Program Files (x86)\Microsoft Visual Studio\2019\Community\VC\Tools\MSVC\14.28.29333\include\xmemory

; 1347 :         return *this;

  001b9	89 45 e8	 mov	 DWORD PTR $T14[ebp], eax
; File C:\Program Files (x86)\Microsoft Visual Studio\2019\Community\VC\Tools\MSVC\14.28.29333\include\deque

; 1522 :         return _Mypair._Get_first();

  001bc	8b 45 e8	 mov	 eax, DWORD PTR $T14[ebp]
  001bf	89 45 b8	 mov	 DWORD PTR $T2[ebp], eax
; File C:\Program Files (x86)\Microsoft Visual Studio\2019\Community\VC\Tools\MSVC\14.28.29333\include\vcruntime_new.h

; 169  :         return _Where;

  001c2	8b 45 e4	 mov	 eax, DWORD PTR $T13[ebp]
  001c5	89 45 d8	 mov	 DWORD PTR $T10[ebp], eax
; File C:\Program Files (x86)\Microsoft Visual Studio\2019\Community\VC\Tools\MSVC\14.28.29333\include\type_traits

; 1443 :     return static_cast<_Ty&&>(_Arg);

  001c8	8b 45 e0	 mov	 eax, DWORD PTR $T12[ebp]
  001cb	89 45 dc	 mov	 DWORD PTR $T11[ebp], eax
; File C:\Program Files (x86)\Microsoft Visual Studio\2019\Community\VC\Tools\MSVC\14.28.29333\include\xmemory

; 701  :         ::new (const_cast<void*>(static_cast<const volatile void*>(_Ptr))) _Objty(_STD forward<_Types>(_Args)...);

  001ce	8b 75 dc	 mov	 esi, DWORD PTR $T11[ebp]
  001d1	8b 7d d8	 mov	 edi, DWORD PTR $T10[ebp]
  001d4	a5		 movsd
  001d5	a5		 movsd
  001d6	a5		 movsd
  001d7	a5		 movsd
; File C:\Program Files (x86)\Microsoft Visual Studio\2019\Community\VC\Tools\MSVC\14.28.29333\include\deque

; 1530 :         return _Mypair._Myval2;

  001d8	8b 45 70	 mov	 eax, DWORD PTR _this$[ebp]
  001db	89 45 d4	 mov	 DWORD PTR $T9[ebp], eax

; 1554 :         return _Get_data()._Myoff;

  001de	8b 45 d4	 mov	 eax, DWORD PTR $T9[ebp]
  001e1	83 c0 0c	 add	 eax, 12			; 0000000cH
  001e4	89 45 d0	 mov	 DWORD PTR $T8[ebp], eax

; 792  :         _PUSH_FRONT_END;

  001e7	8b 45 d0	 mov	 eax, DWORD PTR $T8[ebp]
  001ea	8b 4d 6c	 mov	 ecx, DWORD PTR __Newoff$[ebp]
  001ed	89 08		 mov	 DWORD PTR [eax], ecx
  001ef	8b 45 b4	 mov	 eax, DWORD PTR $T1[ebp]
  001f2	89 45 5c	 mov	 DWORD PTR tv165[ebp], eax

; 1530 :         return _Mypair._Myval2;

  001f5	8b 45 70	 mov	 eax, DWORD PTR _this$[ebp]
  001f8	89 45 cc	 mov	 DWORD PTR $T7[ebp], eax

; 1562 :         return _Get_data()._Mysize;

  001fb	8b 45 cc	 mov	 eax, DWORD PTR $T7[ebp]
  001fe	83 c0 10	 add	 eax, 16			; 00000010H
  00201	89 45 5c	 mov	 DWORD PTR tv165[ebp], eax

; 792  :         _PUSH_FRONT_END;

  00204	8b 45 5c	 mov	 eax, DWORD PTR tv165[ebp]
  00207	8b 00		 mov	 eax, DWORD PTR [eax]
  00209	40		 inc	 eax
  0020a	8b 4d 5c	 mov	 ecx, DWORD PTR tv165[ebp]
  0020d	89 01		 mov	 DWORD PTR [ecx], eax
$LN91@push_front:

; 793  :     }

  0020f	5f		 pop	 edi
  00210	5e		 pop	 esi
  00211	83 c5 74	 add	 ebp, 116		; 00000074H
  00214	c9		 leave
  00215	c2 04 00	 ret	 4
?push_front@?$deque@U?$pair@MUD3DXVECTOR3@@@std@@V?$allocator@U?$pair@MUD3DXVECTOR3@@@std@@@2@@std@@QAEX$$QAU?$pair@MUD3DXVECTOR3@@@2@@Z ENDP ; std::deque<std::pair<float,D3DXVECTOR3>,std::allocator<std::pair<float,D3DXVECTOR3> > >::push_front
_TEXT	ENDS
; Function compile flags: /Odspy
; File C:\Program Files (x86)\Microsoft Visual Studio\2019\Community\VC\Tools\MSVC\14.28.29333\include\deque
; File C:\Program Files (x86)\Microsoft Visual Studio\2019\Community\VC\Tools\MSVC\14.28.29333\include\xmemory
; File C:\Program Files (x86)\Microsoft Visual Studio\2019\Community\VC\Tools\MSVC\14.28.29333\include\deque
; File C:\Program Files (x86)\Microsoft Visual Studio\2019\Community\VC\Tools\MSVC\14.28.29333\include\xmemory
; File C:\Program Files (x86)\Microsoft Visual Studio\2019\Community\VC\Tools\MSVC\14.28.29333\include\deque
;	COMDAT ??0?$deque@U?$pair@MUD3DXVECTOR3@@@std@@V?$allocator@U?$pair@MUD3DXVECTOR3@@@std@@@2@@std@@QAE@XZ
_TEXT	SEGMENT
$T1 = -24						; size = 4
$T2 = -20						; size = 4
$T3 = -16						; size = 4
_this$ = -12						; size = 4
_this$ = -8						; size = 4
$T4 = -1						; size = 1
??0?$deque@U?$pair@MUD3DXVECTOR3@@@std@@V?$allocator@U?$pair@MUD3DXVECTOR3@@@std@@@2@@std@@QAE@XZ PROC ; std::deque<std::pair<float,D3DXVECTOR3>,std::allocator<std::pair<float,D3DXVECTOR3> > >::deque<std::pair<float,D3DXVECTOR3>,std::allocator<std::pair<float,D3DXVECTOR3> > >, COMDAT
; _this$ = ecx

; 596  :     deque() : _Mypair(_Zero_then_variadic_args_t{}) {

  00000	55		 push	 ebp
  00001	8b ec		 mov	 ebp, esp
  00003	83 ec 18	 sub	 esp, 24			; 00000018H
  00006	89 4d f8	 mov	 DWORD PTR _this$[ebp], ecx
  00009	8b 45 f8	 mov	 eax, DWORD PTR _this$[ebp]
  0000c	89 45 f4	 mov	 DWORD PTR _this$[ebp], eax
; File C:\Program Files (x86)\Microsoft Visual Studio\2019\Community\VC\Tools\MSVC\14.28.29333\include\xmemory

; 1339 :         : _Ty1(), _Myval2(_STD forward<_Other2>(_Val2)...) {}

  0000f	8b 4d f4	 mov	 ecx, DWORD PTR _this$[ebp]
  00012	e8 00 00 00 00	 call	 ??0?$_Deque_val@U?$_Deque_simple_types@U?$pair@MUD3DXVECTOR3@@@std@@@std@@@std@@QAE@XZ ; std::_Deque_val<std::_Deque_simple_types<std::pair<float,D3DXVECTOR3> > >::_Deque_val<std::_Deque_simple_types<std::pair<float,D3DXVECTOR3> > >
; File C:\Program Files (x86)\Microsoft Visual Studio\2019\Community\VC\Tools\MSVC\14.28.29333\include\deque

; 1522 :         return _Mypair._Get_first();

  00017	8b 45 f8	 mov	 eax, DWORD PTR _this$[ebp]
; File C:\Program Files (x86)\Microsoft Visual Studio\2019\Community\VC\Tools\MSVC\14.28.29333\include\xmemory

; 1347 :         return *this;

  0001a	89 45 f0	 mov	 DWORD PTR $T3[ebp], eax
; File C:\Program Files (x86)\Microsoft Visual Studio\2019\Community\VC\Tools\MSVC\14.28.29333\include\deque

; 1522 :         return _Mypair._Get_first();

  0001d	8b 45 f0	 mov	 eax, DWORD PTR $T3[ebp]
  00020	89 45 e8	 mov	 DWORD PTR $T1[ebp], eax

; 1530 :         return _Mypair._Myval2;

  00023	8b 45 f8	 mov	 eax, DWORD PTR _this$[ebp]
  00026	89 45 ec	 mov	 DWORD PTR $T2[ebp], eax

; 597  :         _Get_data()._Alloc_proxy(static_cast<_Alproxy_ty>(_Getal()));

  00029	8d 45 ff	 lea	 eax, DWORD PTR $T4[ebp]
  0002c	50		 push	 eax
  0002d	8b 4d ec	 mov	 ecx, DWORD PTR $T2[ebp]
  00030	e8 00 00 00 00	 call	 ??$_Alloc_proxy@V?$allocator@U_Container_proxy@std@@@std@@@_Container_base12@std@@QAEX$$QAV?$allocator@U_Container_proxy@std@@@1@@Z ; std::_Container_base12::_Alloc_proxy<std::allocator<std::_Container_proxy> >

; 598  :     }

  00035	8b 45 f8	 mov	 eax, DWORD PTR _this$[ebp]
  00038	c9		 leave
  00039	c3		 ret	 0
??0?$deque@U?$pair@MUD3DXVECTOR3@@@std@@V?$allocator@U?$pair@MUD3DXVECTOR3@@@std@@@2@@std@@QAE@XZ ENDP ; std::deque<std::pair<float,D3DXVECTOR3>,std::allocator<std::pair<float,D3DXVECTOR3> > >::deque<std::pair<float,D3DXVECTOR3>,std::allocator<std::pair<float,D3DXVECTOR3> > >
_TEXT	ENDS
; Function compile flags: /Odspy
; File D:\Metin2 Server Files\mainline\SRC_2014\Metin2Client\GameLib\WeaponTrace.cpp
; File C:\Program Files (x86)\Microsoft Visual Studio\2019\Community\VC\Tools\MSVC\14.28.29333\include\deque
; File D:\Metin2 Server Files\mainline\SRC_2014\Metin2Client\GameLib\WeaponTrace.cpp
; File C:\Program Files (x86)\Microsoft Visual Studio\2019\Community\VC\Tools\MSVC\14.28.29333\include\vector
; File C:\Program Files (x86)\Microsoft Visual Studio\2019\Community\VC\Tools\MSVC\14.28.29333\include\xmemory
; File D:\Metin2 Server Files\mainline\SRC_2014\Metin2Client\GameLib\WeaponTrace.cpp
; File C:\Program Files (x86)\Microsoft Visual Studio\2019\Community\VC\Tools\MSVC\14.28.29333\include\vector
; File C:\Program Files (x86)\Microsoft Visual Studio\2019\Community\VC\Tools\MSVC\14.28.29333\include\xmemory
; File D:\Metin2 Server Files\mainline\SRC_2014\Metin2Client\GameLib\WeaponTrace.cpp
; File C:\Program Files (x86)\Microsoft Visual Studio\2019\Community\VC\Tools\MSVC\14.28.29333\include\deque
; File D:\Metin2 Server Files\mainline\SRC_2014\Metin2Client\GameLib\WeaponTrace.cpp
; File D:\Metin2 Server Files\mainline\SRC_2014\M2Data\include\d3dx8math.inl
; File D:\Metin2 Server Files\mainline\SRC_2014\Metin2Client\GameLib\WeaponTrace.cpp
; File D:\Metin2 Server Files\mainline\SRC_2014\M2Data\include\d3dx8math.inl
; File D:\Metin2 Server Files\mainline\SRC_2014\Metin2Client\GameLib\WeaponTrace.cpp
; File D:\Metin2 Server Files\mainline\SRC_2014\M2Data\include\d3dx8math.inl
; File D:\Metin2 Server Files\mainline\SRC_2014\Metin2Client\GameLib\WeaponTrace.cpp
; File D:\Metin2 Server Files\mainline\SRC_2014\M2Data\include\d3dx8math.inl
; File D:\Metin2 Server Files\mainline\SRC_2014\Metin2Client\GameLib\WeaponTrace.cpp
; File D:\Metin2 Server Files\mainline\SRC_2014\M2Data\include\d3dx8math.inl
; File D:\Metin2 Server Files\mainline\SRC_2014\Metin2Client\GameLib\WeaponTrace.cpp
; File D:\Metin2 Server Files\mainline\SRC_2014\M2Data\include\d3dx8math.inl
; File D:\Metin2 Server Files\mainline\SRC_2014\Metin2Client\GameLib\WeaponTrace.cpp
; File D:\Metin2 Server Files\mainline\SRC_2014\M2Data\include\d3dx8math.inl
; File D:\Metin2 Server Files\mainline\SRC_2014\Metin2Client\GameLib\WeaponTrace.cpp
; File D:\Metin2 Server Files\mainline\SRC_2014\M2Data\include\d3dx8math.inl
; File D:\Metin2 Server Files\mainline\SRC_2014\Metin2Client\GameLib\WeaponTrace.cpp
; File D:\Metin2 Server Files\mainline\SRC_2014\M2Data\include\d3dx8math.inl
; File D:\Metin2 Server Files\mainline\SRC_2014\Metin2Client\GameLib\WeaponTrace.cpp
; File D:\Metin2 Server Files\mainline\SRC_2014\M2Data\include\d3dx8math.inl
; File D:\Metin2 Server Files\mainline\SRC_2014\Metin2Client\GameLib\WeaponTrace.cpp
; File D:\Metin2 Server Files\mainline\SRC_2014\M2Data\include\d3dx8math.inl
; File D:\Metin2 Server Files\mainline\SRC_2014\Metin2Client\GameLib\WeaponTrace.cpp
; File D:\Metin2 Server Files\mainline\SRC_2014\M2Data\include\d3dx8math.inl
; File D:\Metin2 Server Files\mainline\SRC_2014\Metin2Client\GameLib\WeaponTrace.cpp
; File D:\Metin2 Server Files\mainline\SRC_2014\M2Data\include\d3dx8math.inl
; File D:\Metin2 Server Files\mainline\SRC_2014\Metin2Client\GameLib\WeaponTrace.cpp
; File D:\Metin2 Server Files\mainline\SRC_2014\M2Data\include\d3dx8math.inl
; File D:\Metin2 Server Files\mainline\SRC_2014\Metin2Client\GameLib\WeaponTrace.cpp
; File D:\Metin2 Server Files\mainline\SRC_2014\M2Data\include\d3dx8math.inl
; File D:\Metin2 Server Files\mainline\SRC_2014\Metin2Client\GameLib\WeaponTrace.cpp
; File D:\Metin2 Server Files\mainline\SRC_2014\M2Data\include\d3dx8math.inl
; File D:\Metin2 Server Files\mainline\SRC_2014\Metin2Client\GameLib\WeaponTrace.cpp
; File D:\Metin2 Server Files\mainline\SRC_2014\M2Data\include\d3dx8math.inl
; File D:\Metin2 Server Files\mainline\SRC_2014\Metin2Client\GameLib\WeaponTrace.cpp
; File D:\Metin2 Server Files\mainline\SRC_2014\M2Data\include\d3dx8math.inl
; File D:\Metin2 Server Files\mainline\SRC_2014\Metin2Client\GameLib\WeaponTrace.cpp
; File D:\Metin2 Server Files\mainline\SRC_2014\M2Data\include\d3dx8math.inl
; File D:\Metin2 Server Files\mainline\SRC_2014\Metin2Client\GameLib\WeaponTrace.cpp
; File D:\Metin2 Server Files\mainline\SRC_2014\M2Data\include\d3dx8math.inl
; File D:\Metin2 Server Files\mainline\SRC_2014\Metin2Client\GameLib\WeaponTrace.cpp
; File D:\Metin2 Server Files\mainline\SRC_2014\M2Data\include\d3dx8math.inl
; File D:\Metin2 Server Files\mainline\SRC_2014\Metin2Client\GameLib\WeaponTrace.cpp
; File D:\Metin2 Server Files\mainline\SRC_2014\M2Data\include\d3dx8math.inl
; File D:\Metin2 Server Files\mainline\SRC_2014\Metin2Client\GameLib\WeaponTrace.cpp
; File D:\Metin2 Server Files\mainline\SRC_2014\M2Data\include\d3dx8math.inl
; File D:\Metin2 Server Files\mainline\SRC_2014\Metin2Client\GameLib\WeaponTrace.cpp
; File D:\Metin2 Server Files\mainline\SRC_2014\M2Data\include\d3dx8math.inl
; File D:\Metin2 Server Files\mainline\SRC_2014\Metin2Client\GameLib\WeaponTrace.cpp
; File D:\Metin2 Server Files\mainline\SRC_2014\M2Data\include\d3dx8math.inl
; File D:\Metin2 Server Files\mainline\SRC_2014\Metin2Client\GameLib\WeaponTrace.cpp
; File D:\Metin2 Server Files\mainline\SRC_2014\M2Data\include\d3dx8math.inl
; File D:\Metin2 Server Files\mainline\SRC_2014\Metin2Client\GameLib\WeaponTrace.cpp
; File D:\Metin2 Server Files\mainline\SRC_2014\M2Data\include\d3dx8math.inl
; File D:\Metin2 Server Files\mainline\SRC_2014\Metin2Client\GameLib\WeaponTrace.cpp
; File D:\Metin2 Server Files\mainline\SRC_2014\M2Data\include\d3dx8math.inl
; File D:\Metin2 Server Files\mainline\SRC_2014\Metin2Client\GameLib\WeaponTrace.cpp
; File C:\Program Files (x86)\Microsoft Visual Studio\2019\Community\VC\Tools\MSVC\14.28.29333\include\vector
; File D:\Metin2 Server Files\mainline\SRC_2014\Metin2Client\GameLib\WeaponTrace.cpp
; File C:\Program Files (x86)\Microsoft Visual Studio\2019\Community\VC\Tools\MSVC\14.28.29333\include\vector
; File C:\Program Files (x86)\Microsoft Visual Studio\2019\Community\VC\Tools\MSVC\14.28.29333\include\xstddef
; File C:\Program Files (x86)\Microsoft Visual Studio\2019\Community\VC\Tools\MSVC\14.28.29333\include\vector
; File D:\Metin2 Server Files\mainline\SRC_2014\Metin2Client\GameLib\WeaponTrace.cpp
; File C:\Program Files (x86)\Microsoft Visual Studio\2019\Community\VC\Tools\MSVC\14.28.29333\include\vector
; File C:\Program Files (x86)\Microsoft Visual Studio\2019\Community\VC\Tools\MSVC\14.28.29333\include\xstddef
; File C:\Program Files (x86)\Microsoft Visual Studio\2019\Community\VC\Tools\MSVC\14.28.29333\include\vector
; File D:\Metin2 Server Files\mainline\SRC_2014\Metin2Client\GameLib\WeaponTrace.cpp
; File C:\Program Files (x86)\Microsoft Visual Studio\2019\Community\VC\Tools\MSVC\14.28.29333\include\vector
; File C:\Program Files (x86)\Microsoft Visual Studio\2019\Community\VC\Tools\MSVC\14.28.29333\include\xstddef
; File C:\Program Files (x86)\Microsoft Visual Studio\2019\Community\VC\Tools\MSVC\14.28.29333\include\vector
; File D:\Metin2 Server Files\mainline\SRC_2014\Metin2Client\GameLib\WeaponTrace.cpp
; File C:\Program Files (x86)\Microsoft Visual Studio\2019\Community\VC\Tools\MSVC\14.28.29333\include\vector
; File D:\Metin2 Server Files\mainline\SRC_2014\Metin2Client\GameLib\WeaponTrace.cpp
; File C:\Program Files (x86)\Microsoft Visual Studio\2019\Community\VC\Tools\MSVC\14.28.29333\include\vector
; File D:\Metin2 Server Files\mainline\SRC_2014\Metin2Client\GameLib\WeaponTrace.cpp
; File C:\Program Files (x86)\Microsoft Visual Studio\2019\Community\VC\Tools\MSVC\14.28.29333\include\vector
; File D:\Metin2 Server Files\mainline\SRC_2014\Metin2Client\GameLib\WeaponTrace.cpp
; File C:\Program Files (x86)\Microsoft Visual Studio\2019\Community\VC\Tools\MSVC\14.28.29333\include\vector
; File D:\Metin2 Server Files\mainline\SRC_2014\Metin2Client\GameLib\WeaponTrace.cpp
; File C:\Program Files (x86)\Microsoft Visual Studio\2019\Community\VC\Tools\MSVC\14.28.29333\include\vector
; File D:\Metin2 Server Files\mainline\SRC_2014\Metin2Client\GameLib\WeaponTrace.cpp
;	COMDAT ?BuildVertex@CWeaponTrace@@IAE_NXZ
_TEXT	SEGMENT
_it$2 = -932						; size = 12
$T3 = -920						; size = 4
_max_size$ = -916					; size = 4
$T4 = -912						; size = 4
$T5 = -908						; size = 4
_m_ShortVertexVector$ = -904				; size = 12
tv567 = -892						; size = 8
tv565 = -884						; size = 8
tv564 = -876						; size = 8
tv549 = -868						; size = 8
_m_LongVertexVector$ = -860				; size = 12
$T6 = -848						; size = 4
_fy$ = -844						; size = 4
_fz$ = -840						; size = 4
_fx$ = -836						; size = 4
_fy$ = -832						; size = 4
_fy$ = -828						; size = 4
_fz$ = -824						; size = 4
_fx$ = -820						; size = 4
_fy$ = -816						; size = 4
_fz$ = -812						; size = 4
_fx$ = -808						; size = 4
_fy$ = -804						; size = 4
_fz$ = -800						; size = 4
_fx$ = -796						; size = 4
_fy$ = -792						; size = 4
_fz$ = -788						; size = 4
_fx$ = -784						; size = 4
_fy$ = -780						; size = 4
_fz$ = -776						; size = 4
_fx$ = -772						; size = 4
_fy$ = -768						; size = 4
_fz$ = -764						; size = 4
_fx$ = -760						; size = 4
_fy$ = -756						; size = 4
_fz$ = -752						; size = 4
_fx$ = -748						; size = 4
_fy$ = -744						; size = 4
_fz$ = -740						; size = 4
_fx$ = -736						; size = 4
_fx$ = -732						; size = 4
_fy$ = -728						; size = 4
_fz$ = -724						; size = 4
_fx$ = -720						; size = 4
_fy$ = -716						; size = 4
_fz$ = -712						; size = 4
_fx$ = -708						; size = 4
_fy$ = -704						; size = 4
_fz$ = -700						; size = 4
_fx$ = -696						; size = 4
_fy$ = -692						; size = 4
_fz$ = -688						; size = 4
_fx$ = -684						; size = 4
_fy$ = -680						; size = 4
$T7 = -676						; size = 4
$T8 = -672						; size = 4
$T9 = -668						; size = 4
$T10 = -664						; size = 4
$T11 = -660						; size = 4
$T12 = -656						; size = 4
___param0$ = -652					; size = 4
$T13 = -648						; size = 4
$T14 = -644						; size = 4
___param0$ = -640					; size = 4
_fz$ = -636						; size = 4
$T15 = -632						; size = 4
___param0$ = -628					; size = 4
_Output$16 = -624					; size = 4
_fz$ = -620						; size = 4
_fy$ = -616						; size = 4
_fx$ = -612						; size = 4
_fz$ = -608						; size = 4
_fy$ = -604						; size = 4
_fx$ = -600						; size = 4
_fz$ = -596						; size = 4
_fy$ = -592						; size = 4
_fx$ = -588						; size = 4
_fz$ = -584						; size = 4
_fy$ = -580						; size = 4
_fx$ = -576						; size = 4
_fz$ = -572						; size = 4
_fy$ = -568						; size = 4
_fx$ = -564						; size = 4
_fz$ = -560						; size = 4
_fy$ = -556						; size = 4
_fx$ = -552						; size = 4
_dwB$17 = -548						; size = 4
_dwA$18 = -544						; size = 4
_dwR$19 = -540						; size = 4
_dwG$20 = -536						; size = 4
_fz$ = -532						; size = 4
_fy$ = -528						; size = 4
_fx$ = -524						; size = 4
_fz$ = -520						; size = 4
_fy$ = -516						; size = 4
_fx$ = -512						; size = 4
_fz$ = -508						; size = 4
_fy$ = -504						; size = 4
_fx$ = -500						; size = 4
_fz$ = -496						; size = 4
_fy$ = -492						; size = 4
_fx$ = -488						; size = 4
_fz$ = -484						; size = 4
_fy$ = -480						; size = 4
_fx$ = -476						; size = 4
_fz$ = -472						; size = 4
_fy$ = -468						; size = 4
_fx$ = -464						; size = 4
_fz$ = -460						; size = 4
_fy$ = -456						; size = 4
_fx$ = -452						; size = 4
_fz$ = -448						; size = 4
_fy$ = -444						; size = 4
_fx$ = -440						; size = 4
_fz$ = -436						; size = 4
_fy$ = -432						; size = 4
_fx$ = -428						; size = 4
_fz$ = -424						; size = 4
_fy$ = -420						; size = 4
_fx$ = -416						; size = 4
_fz$ = -412						; size = 4
_fy$ = -408						; size = 4
_fx$ = -404						; size = 4
_fz$ = -400						; size = 4
_fy$ = -396						; size = 4
_fx$ = -392						; size = 4
_length$ = -388						; size = 4
_dt$21 = -384						; size = 4
_fz$ = -380						; size = 4
_fx$ = -376						; size = 4
$T22 = -372						; size = 4
$T23 = -368						; size = 4
$T24 = -364						; size = 4
$T25 = -360						; size = 4
$T26 = -356						; size = 4
_this$ = -352						; size = 4
_this$ = -348						; size = 4
$T27 = -344						; size = 4
$T28 = -340						; size = 4
$T29 = -336						; size = 4
tv687 = -332						; size = 4
tv3006 = -328						; size = 4
tv3020 = -324						; size = 4
__My_data$30 = -320					; size = 4
__My_data$31 = -316					; size = 4
__My_data$32 = -312					; size = 4
tv603 = -308						; size = 4
tv2605 = -304						; size = 4
tv2604 = -300						; size = 4
tv2594 = -296						; size = 4
tv2579 = -292						; size = 4
tv2585 = -288						; size = 4
tv2586 = -284						; size = 4
tv2564 = -280						; size = 4
tv2551 = -276						; size = 4
tv533 = -272						; size = 4
tv532 = -268						; size = 4
tv515 = -264						; size = 4
_timebase$33 = -260					; size = 4
tv133 = -256						; size = 4
tv131 = -252						; size = 4
tv89 = -248						; size = 4
___t$ = -244						; size = 4
$T34 = -240						; size = 16
_f$ = -224						; size = 4
_f$ = -220						; size = 4
_f$ = -216						; size = 4
_v$ = -212						; size = 4
_this$ = -208						; size = 4
_f$ = -204						; size = 4
_f$ = -200						; size = 4
_this$ = -196						; size = 4
_f$ = -192						; size = 4
_v$ = -188						; size = 4
_v$ = -184						; size = 4
_this$ = -180						; size = 4
_f$ = -176						; size = 4
_f$ = -172						; size = 4
_v$ = -168						; size = 4
_this$ = -164						; size = 4
_f$ = -160						; size = 4
_f$ = -156						; size = 4
_this$ = -152						; size = 4
_f$ = -148						; size = 4
_v$ = -144						; size = 4
_v$ = -140						; size = 4
_this$ = -136						; size = 4
_v$ = -132						; size = 4
_v$ = -128						; size = 4
_v$ = -124						; size = 4
_v$ = -120						; size = 4
_f$ = -116						; size = 4
_v$ = -112						; size = 4
_this$ = -108						; size = 4
___n$ = -104						; size = 4
_timenext$35 = -100					; size = 4
_sit$ = -96						; size = 4
_lit$ = -92						; size = 4
_this$ = -88						; size = 4
_this$ = -84						; size = 4
_this$ = -80						; size = 4
_this$ = -76						; size = 4
_this$ = -72						; size = 4
_this$ = -68						; size = 4
_this$ = -64						; size = 4
$T36 = -59						; size = 1
$T37 = -58						; size = 1
$T38 = -57						; size = 1
_ttt$39 = -56						; size = 4
_sp$ = -52						; size = 4
_cc$40 = -48						; size = 4
_loop$41 = -44						; size = 4
_n$ = -40						; size = 4
_t$42 = -36						; size = 4
_rate$43 = -32						; size = 4
_Input$44 = -28						; size = 4
_this$ = -24						; size = 4
_i$45 = -20						; size = 4
_base$46 = -16						; size = 4
__$EHRec$ = -12						; size = 12
_v$47 = 0						; size = 24
$T48 = 24						; size = 12
$T49 = 36						; size = 12
$T50 = 48						; size = 12
$T51 = 60						; size = 12
$T52 = 72						; size = 12
$T53 = 84						; size = 12
$T54 = 96						; size = 12
_a$55 = 108						; size = 12
_b$56 = 120						; size = 12
_c$57 = 132						; size = 12
_d$58 = 144						; size = 12
$T59 = 156						; size = 12
$T60 = 168						; size = 12
$T61 = 180						; size = 12
$T62 = 192						; size = 12
$T63 = 204						; size = 12
$T64 = 216						; size = 12
$T65 = 228						; size = 12
$T66 = 240						; size = 12
$T67 = 252						; size = 12
$T68 = 264						; size = 12
$T69 = 276						; size = 12
$T70 = 288						; size = 12
$T71 = 300						; size = 12
$T72 = 312						; size = 12
$T73 = 324						; size = 12
$T74 = 336						; size = 12
$T75 = 348						; size = 12
$T76 = 360						; size = 12
$T77 = 372						; size = 12
$T78 = 384						; size = 12
$T79 = 396						; size = 12
$T80 = 408						; size = 12
$T81 = 420						; size = 12
$T82 = 432						; size = 12
$T83 = 444						; size = 12
_v3Tmp$84 = 456						; size = 12
_v3Tmp$85 = 468						; size = 12
_stk$ = 480						; size = 1200
_r$ = 1680						; size = 3600
_h$ = 5280						; size = 1200
__$ArrayPad$ = 6480					; size = 4
?BuildVertex@CWeaponTrace@@IAE_NXZ PROC			; CWeaponTrace::BuildVertex, COMDAT
; _this$ = ecx

; 124  : {

  00000	55		 push	 ebp
  00001	8d ac 24 ac e6
	ff ff		 lea	 ebp, DWORD PTR [esp-6484]
  00008	b8 54 19 00 00	 mov	 eax, 6484		; 00001954H
  0000d	e8 00 00 00 00	 call	 __chkstk
  00012	6a ff		 push	 -1
  00014	68 00 00 00 00	 push	 __ehhandler$?BuildVertex@CWeaponTrace@@IAE_NXZ
  00019	64 a1 00 00 00
	00		 mov	 eax, DWORD PTR fs:0
  0001f	50		 push	 eax
  00020	81 ec 98 03 00
	00		 sub	 esp, 920		; 00000398H
  00026	a1 00 00 00 00	 mov	 eax, DWORD PTR ___security_cookie
  0002b	33 c5		 xor	 eax, ebp
  0002d	89 85 50 19 00
	00		 mov	 DWORD PTR __$ArrayPad$[ebp], eax
  00033	56		 push	 esi
  00034	57		 push	 edi
  00035	50		 push	 eax
  00036	8d 45 f4	 lea	 eax, DWORD PTR __$EHRec$[ebp]
  00039	64 a3 00 00 00
	00		 mov	 DWORD PTR fs:0, eax
  0003f	89 4d e8	 mov	 DWORD PTR _this$[ebp], ecx

; 125  : 	const int max_size = 300;

  00042	c7 85 6c fc ff
	ff 2c 01 00 00	 mov	 DWORD PTR _max_size$[ebp], 300 ; 0000012cH

; 126  : 	// calculate speed
; 127  : 	float h[max_size];
; 128  : 	float stk[max_size];
; 129  : 	int sp=0;

  0004c	83 65 cc 00	 and	 DWORD PTR _sp$[ebp], 0

; 130  : 	D3DXVECTOR3 r[max_size];

  00050	c7 45 98 2c 01
	00 00		 mov	 DWORD PTR ___n$[ebp], 300 ; 0000012cH
  00057	8d 85 90 06 00
	00		 lea	 eax, DWORD PTR _r$[ebp]
  0005d	89 85 0c ff ff
	ff		 mov	 DWORD PTR ___t$[ebp], eax
$LN57@BuildVerte:
  00063	8b 45 98	 mov	 eax, DWORD PTR ___n$[ebp]
  00066	89 85 b4 fe ff
	ff		 mov	 DWORD PTR tv687[ebp], eax
  0006c	8b 45 98	 mov	 eax, DWORD PTR ___n$[ebp]
  0006f	48		 dec	 eax
  00070	89 45 98	 mov	 DWORD PTR ___n$[ebp], eax
  00073	83 bd b4 fe ff
	ff 00		 cmp	 DWORD PTR tv687[ebp], 0
  0007a	76 11		 jbe	 SHORT $LN58@BuildVerte
  0007c	8b 85 0c ff ff
	ff		 mov	 eax, DWORD PTR ___t$[ebp]
  00082	83 c0 0c	 add	 eax, 12			; 0000000cH
  00085	89 85 0c ff ff
	ff		 mov	 DWORD PTR ___t$[ebp], eax
  0008b	eb d6		 jmp	 SHORT $LN57@BuildVerte
$LN58@BuildVerte:
; File C:\Program Files (x86)\Microsoft Visual Studio\2019\Community\VC\Tools\MSVC\14.28.29333\include\deque

; 1534 :         return _Mypair._Myval2;

  0008d	8b 45 e8	 mov	 eax, DWORD PTR _this$[ebp]
  00090	83 c0 1c	 add	 eax, 28			; 0000001cH
  00093	89 85 b0 fe ff
	ff		 mov	 DWORD PTR $T29[ebp], eax

; 1566 :         return _Get_data()._Mysize;

  00099	8b 85 b0 fe ff
	ff		 mov	 eax, DWORD PTR $T29[ebp]
  0009f	83 c0 10	 add	 eax, 16			; 00000010H
  000a2	89 85 ac fe ff
	ff		 mov	 DWORD PTR $T28[ebp], eax

; 1001 :         return _Mysize();

  000a8	8b 85 ac fe ff
	ff		 mov	 eax, DWORD PTR $T28[ebp]
  000ae	8b 00		 mov	 eax, DWORD PTR [eax]
  000b0	89 85 a8 fe ff
	ff		 mov	 DWORD PTR $T27[ebp], eax
; File D:\Metin2 Server Files\mainline\SRC_2014\Metin2Client\GameLib\WeaponTrace.cpp

; 132  : 	if (m_LongTimePointList.size()<=1) 

  000b6	83 bd a8 fe ff
	ff 01		 cmp	 DWORD PTR $T27[ebp], 1
  000bd	77 07		 ja	 SHORT $LN25@BuildVerte

; 133  : 		return false;

  000bf	32 c0		 xor	 al, al
  000c1	e9 f8 1e 00 00	 jmp	 $LN1@BuildVerte
$LN25@BuildVerte:
; File C:\Program Files (x86)\Microsoft Visual Studio\2019\Community\VC\Tools\MSVC\14.28.29333\include\vector

; 445  :     vector() noexcept(is_nothrow_default_constructible_v<_Alty>) : _Mypair(_Zero_then_variadic_args_t{}) {

  000c6	8d 85 78 fc ff
	ff		 lea	 eax, DWORD PTR _m_ShortVertexVector$[ebp]
  000cc	89 85 a4 fe ff
	ff		 mov	 DWORD PTR _this$[ebp], eax
; File C:\Program Files (x86)\Microsoft Visual Studio\2019\Community\VC\Tools\MSVC\14.28.29333\include\xmemory

; 1339 :         : _Ty1(), _Myval2(_STD forward<_Other2>(_Val2)...) {}

  000d2	8b 8d a4 fe ff
	ff		 mov	 ecx, DWORD PTR _this$[ebp]
  000d8	e8 00 00 00 00	 call	 ??0?$_Vector_val@U?$_Simple_types@USPDTVertex@@@std@@@std@@QAE@XZ ; std::_Vector_val<std::_Simple_types<SPDTVertex> >::_Vector_val<std::_Simple_types<SPDTVertex> >
; File D:\Metin2 Server Files\mainline\SRC_2014\Metin2Client\GameLib\WeaponTrace.cpp

; 146  : 	std::vector<TPDTVertex> m_ShortVertexVector, m_LongVertexVector;

  000dd	83 65 fc 00	 and	 DWORD PTR __$EHRec$[ebp+8], 0
; File C:\Program Files (x86)\Microsoft Visual Studio\2019\Community\VC\Tools\MSVC\14.28.29333\include\vector

; 445  :     vector() noexcept(is_nothrow_default_constructible_v<_Alty>) : _Mypair(_Zero_then_variadic_args_t{}) {

  000e1	8d 85 a4 fc ff
	ff		 lea	 eax, DWORD PTR _m_LongVertexVector$[ebp]
  000e7	89 85 a0 fe ff
	ff		 mov	 DWORD PTR _this$[ebp], eax
; File C:\Program Files (x86)\Microsoft Visual Studio\2019\Community\VC\Tools\MSVC\14.28.29333\include\xmemory

; 1339 :         : _Ty1(), _Myval2(_STD forward<_Other2>(_Val2)...) {}

  000ed	8b 8d a0 fe ff
	ff		 mov	 ecx, DWORD PTR _this$[ebp]
  000f3	e8 00 00 00 00	 call	 ??0?$_Vector_val@U?$_Simple_types@USPDTVertex@@@std@@@std@@QAE@XZ ; std::_Vector_val<std::_Simple_types<SPDTVertex> >::_Vector_val<std::_Simple_types<SPDTVertex> >
; File D:\Metin2 Server Files\mainline\SRC_2014\Metin2Client\GameLib\WeaponTrace.cpp

; 146  : 	std::vector<TPDTVertex> m_ShortVertexVector, m_LongVertexVector;

  000f8	c6 45 fc 01	 mov	 BYTE PTR __$EHRec$[ebp+8], 1

; 147  : 	
; 148  : 	float length = min(m_fLifeTime, m_LongTimePointList.back().first);

  000fc	8b 4d e8	 mov	 ecx, DWORD PTR _this$[ebp]
  000ff	83 c1 1c	 add	 ecx, 28			; 0000001cH
  00102	e8 00 00 00 00	 call	 ?back@?$deque@U?$pair@MUD3DXVECTOR3@@@std@@V?$allocator@U?$pair@MUD3DXVECTOR3@@@std@@@2@@std@@QAEAAU?$pair@MUD3DXVECTOR3@@@2@XZ ; std::deque<std::pair<float,D3DXVECTOR3>,std::allocator<std::pair<float,D3DXVECTOR3> > >::back
  00107	8b 4d e8	 mov	 ecx, DWORD PTR _this$[ebp]
  0010a	f3 0f 10 00	 movss	 xmm0, DWORD PTR [eax]
  0010e	0f 2f 41 3c	 comiss	 xmm0, DWORD PTR [ecx+60]
  00112	76 12		 jbe	 SHORT $LN31@BuildVerte
  00114	8b 45 e8	 mov	 eax, DWORD PTR _this$[ebp]
  00117	f3 0f 10 40 3c	 movss	 xmm0, DWORD PTR [eax+60]
  0011c	f3 0f 11 85 08
	ff ff ff	 movss	 DWORD PTR tv89[ebp], xmm0
  00124	eb 17		 jmp	 SHORT $LN32@BuildVerte
$LN31@BuildVerte:
  00126	8b 4d e8	 mov	 ecx, DWORD PTR _this$[ebp]
  00129	83 c1 1c	 add	 ecx, 28			; 0000001cH
  0012c	e8 00 00 00 00	 call	 ?back@?$deque@U?$pair@MUD3DXVECTOR3@@@std@@V?$allocator@U?$pair@MUD3DXVECTOR3@@@std@@@2@@std@@QAEAAU?$pair@MUD3DXVECTOR3@@@2@XZ ; std::deque<std::pair<float,D3DXVECTOR3>,std::allocator<std::pair<float,D3DXVECTOR3> > >::back
  00131	f3 0f 10 00	 movss	 xmm0, DWORD PTR [eax]
  00135	f3 0f 11 85 08
	ff ff ff	 movss	 DWORD PTR tv89[ebp], xmm0
$LN32@BuildVerte:
  0013d	f3 0f 10 85 08
	ff ff ff	 movss	 xmm0, DWORD PTR tv89[ebp]
  00145	f3 0f 11 85 7c
	fe ff ff	 movss	 DWORD PTR _length$[ebp], xmm0
; File C:\Program Files (x86)\Microsoft Visual Studio\2019\Community\VC\Tools\MSVC\14.28.29333\include\deque

; 1534 :         return _Mypair._Myval2;

  0014d	8b 45 e8	 mov	 eax, DWORD PTR _this$[ebp]
  00150	83 c0 1c	 add	 eax, 28			; 0000001cH
  00153	89 85 9c fe ff
	ff		 mov	 DWORD PTR $T26[ebp], eax

; 1566 :         return _Get_data()._Mysize;

  00159	8b 85 9c fe ff
	ff		 mov	 eax, DWORD PTR $T26[ebp]
  0015f	83 c0 10	 add	 eax, 16			; 00000010H
  00162	89 85 98 fe ff
	ff		 mov	 DWORD PTR $T25[ebp], eax

; 1001 :         return _Mysize();

  00168	8b 85 98 fe ff
	ff		 mov	 eax, DWORD PTR $T25[ebp]
  0016e	8b 00		 mov	 eax, DWORD PTR [eax]
  00170	89 85 94 fe ff
	ff		 mov	 DWORD PTR $T24[ebp], eax
; File D:\Metin2 Server Files\mainline\SRC_2014\Metin2Client\GameLib\WeaponTrace.cpp

; 150  : 	int n = m_LongTimePointList.size()-1;

  00176	8b 85 94 fe ff
	ff		 mov	 eax, DWORD PTR $T24[ebp]
  0017c	48		 dec	 eax
  0017d	89 45 d8	 mov	 DWORD PTR _n$[ebp], eax

; 151  : 	assert(n<max_size-1);
; 152  : 
; 153  : 	// cubic spline
; 154  : 
; 155  : 	for(int loop = 0; loop<=1; ++loop)

  00180	83 65 d4 00	 and	 DWORD PTR _loop$41[ebp], 0
  00184	eb 07		 jmp	 SHORT $LN4@BuildVerte
$LN2@BuildVerte:
  00186	8b 45 d4	 mov	 eax, DWORD PTR _loop$41[ebp]
  00189	40		 inc	 eax
  0018a	89 45 d4	 mov	 DWORD PTR _loop$41[ebp], eax
$LN4@BuildVerte:
  0018d	83 7d d4 01	 cmp	 DWORD PTR _loop$41[ebp], 1
  00191	0f 8f 64 1c 00
	00		 jg	 $LN3@BuildVerte

; 156  : 	{
; 157  : 		TTimePointList & Input = (loop) ? m_LongTimePointList : m_ShortTimePointList;

  00197	83 7d d4 00	 cmp	 DWORD PTR _loop$41[ebp], 0
  0019b	74 0e		 je	 SHORT $LN33@BuildVerte
  0019d	8b 45 e8	 mov	 eax, DWORD PTR _this$[ebp]
  001a0	83 c0 1c	 add	 eax, 28			; 0000001cH
  001a3	89 85 04 ff ff
	ff		 mov	 DWORD PTR tv131[ebp], eax
  001a9	eb 0c		 jmp	 SHORT $LN34@BuildVerte
$LN33@BuildVerte:
  001ab	8b 45 e8	 mov	 eax, DWORD PTR _this$[ebp]
  001ae	83 c0 08	 add	 eax, 8
  001b1	89 85 04 ff ff
	ff		 mov	 DWORD PTR tv131[ebp], eax
$LN34@BuildVerte:
  001b7	8b 85 04 ff ff
	ff		 mov	 eax, DWORD PTR tv131[ebp]
  001bd	89 85 90 fe ff
	ff		 mov	 DWORD PTR $T23[ebp], eax
  001c3	8b 85 90 fe ff
	ff		 mov	 eax, DWORD PTR $T23[ebp]
  001c9	89 45 e4	 mov	 DWORD PTR _Input$44[ebp], eax

; 158  : 		std::vector<TPDTVertex> & Output = (loop) ? m_LongVertexVector : m_ShortVertexVector;

  001cc	83 7d d4 00	 cmp	 DWORD PTR _loop$41[ebp], 0
  001d0	74 0e		 je	 SHORT $LN35@BuildVerte
  001d2	8d 85 a4 fc ff
	ff		 lea	 eax, DWORD PTR _m_LongVertexVector$[ebp]
  001d8	89 85 00 ff ff
	ff		 mov	 DWORD PTR tv133[ebp], eax
  001de	eb 0c		 jmp	 SHORT $LN36@BuildVerte
$LN35@BuildVerte:
  001e0	8d 85 78 fc ff
	ff		 lea	 eax, DWORD PTR _m_ShortVertexVector$[ebp]
  001e6	89 85 00 ff ff
	ff		 mov	 DWORD PTR tv133[ebp], eax
$LN36@BuildVerte:
  001ec	8b 85 00 ff ff
	ff		 mov	 eax, DWORD PTR tv133[ebp]
  001f2	89 85 8c fe ff
	ff		 mov	 DWORD PTR $T22[ebp], eax
  001f8	8b 85 8c fe ff
	ff		 mov	 eax, DWORD PTR $T22[ebp]
  001fe	89 85 90 fd ff
	ff		 mov	 DWORD PTR _Output$16[ebp], eax
  00204	8d 8d 5c fc ff
	ff		 lea	 ecx, DWORD PTR _it$2[ebp]
  0020a	e8 00 00 00 00	 call	 ??0?$_Deque_const_iterator@V?$_Deque_val@U?$_Deque_simple_types@U?$pair@MUD3DXVECTOR3@@@std@@@std@@@std@@@std@@QAE@XZ ; std::_Deque_const_iterator<std::_Deque_val<std::_Deque_simple_types<std::pair<float,D3DXVECTOR3> > > >::_Deque_const_iterator<std::_Deque_val<std::_Deque_simple_types<std::pair<float,D3DXVECTOR3> > > >

; 159  : 		TTimePointList::iterator it;

  0020f	c6 45 fc 02	 mov	 BYTE PTR __$EHRec$[ebp+8], 2

; 160  : 		int i;
; 161  : 		
; 162  : 		for(i=0;i<n;++i)

  00213	83 65 ec 00	 and	 DWORD PTR _i$45[ebp], 0
  00217	eb 07		 jmp	 SHORT $LN7@BuildVerte
$LN5@BuildVerte:
  00219	8b 45 ec	 mov	 eax, DWORD PTR _i$45[ebp]
  0021c	40		 inc	 eax
  0021d	89 45 ec	 mov	 DWORD PTR _i$45[ebp], eax
$LN7@BuildVerte:
  00220	8b 45 ec	 mov	 eax, DWORD PTR _i$45[ebp]
  00223	3b 45 d8	 cmp	 eax, DWORD PTR _n$[ebp]
  00226	0f 8d 5d 01 00
	00		 jge	 $LN6@BuildVerte

; 163  : 		{
; 164  : 			h[i] = Input[i+1].first - Input[i].first;

  0022c	8b 45 ec	 mov	 eax, DWORD PTR _i$45[ebp]
  0022f	40		 inc	 eax
  00230	50		 push	 eax
  00231	8b 4d e4	 mov	 ecx, DWORD PTR _Input$44[ebp]
  00234	e8 00 00 00 00	 call	 ??A?$deque@U?$pair@MUD3DXVECTOR3@@@std@@V?$allocator@U?$pair@MUD3DXVECTOR3@@@std@@@2@@std@@QAEAAU?$pair@MUD3DXVECTOR3@@@1@I@Z ; std::deque<std::pair<float,D3DXVECTOR3>,std::allocator<std::pair<float,D3DXVECTOR3> > >::operator[]
  00239	8b f0		 mov	 esi, eax
  0023b	ff 75 ec	 push	 DWORD PTR _i$45[ebp]
  0023e	8b 4d e4	 mov	 ecx, DWORD PTR _Input$44[ebp]
  00241	e8 00 00 00 00	 call	 ??A?$deque@U?$pair@MUD3DXVECTOR3@@@std@@V?$allocator@U?$pair@MUD3DXVECTOR3@@@std@@@2@@std@@QAEAAU?$pair@MUD3DXVECTOR3@@@1@I@Z ; std::deque<std::pair<float,D3DXVECTOR3>,std::allocator<std::pair<float,D3DXVECTOR3> > >::operator[]
  00246	f3 0f 10 06	 movss	 xmm0, DWORD PTR [esi]
  0024a	f3 0f 5c 00	 subss	 xmm0, DWORD PTR [eax]
  0024e	8b 45 ec	 mov	 eax, DWORD PTR _i$45[ebp]
  00251	f3 0f 11 84 85
	a0 14 00 00	 movss	 DWORD PTR _h$[ebp+eax*4], xmm0

; 165  : 			r[i] = (Input[i+1].second - Input[i].second)*(3/h[i]);

  0025a	ff 75 ec	 push	 DWORD PTR _i$45[ebp]
  0025d	8b 4d e4	 mov	 ecx, DWORD PTR _Input$44[ebp]
  00260	e8 00 00 00 00	 call	 ??A?$deque@U?$pair@MUD3DXVECTOR3@@@std@@V?$allocator@U?$pair@MUD3DXVECTOR3@@@std@@@2@@std@@QAEAAU?$pair@MUD3DXVECTOR3@@@1@I@Z ; std::deque<std::pair<float,D3DXVECTOR3>,std::allocator<std::pair<float,D3DXVECTOR3> > >::operator[]
  00265	83 c0 04	 add	 eax, 4
  00268	89 45 90	 mov	 DWORD PTR _v$[ebp], eax
  0026b	8b 45 ec	 mov	 eax, DWORD PTR _i$45[ebp]
  0026e	40		 inc	 eax
  0026f	50		 push	 eax
  00270	8b 4d e4	 mov	 ecx, DWORD PTR _Input$44[ebp]
  00273	e8 00 00 00 00	 call	 ??A?$deque@U?$pair@MUD3DXVECTOR3@@@std@@V?$allocator@U?$pair@MUD3DXVECTOR3@@@std@@@2@@std@@QAEAAU?$pair@MUD3DXVECTOR3@@@1@I@Z ; std::deque<std::pair<float,D3DXVECTOR3>,std::allocator<std::pair<float,D3DXVECTOR3> > >::operator[]
  00278	83 c0 04	 add	 eax, 4
  0027b	89 45 94	 mov	 DWORD PTR _this$[ebp], eax
; File D:\Metin2 Server Files\mainline\SRC_2014\M2Data\include\d3dx8math.inl

; 263  :     return D3DXVECTOR3(x - v.x, y - v.y, z - v.z);

  0027e	8b 45 94	 mov	 eax, DWORD PTR _this$[ebp]
  00281	8b 4d 90	 mov	 ecx, DWORD PTR _v$[ebp]
  00284	f3 0f 10 00	 movss	 xmm0, DWORD PTR [eax]
  00288	f3 0f 5c 01	 subss	 xmm0, DWORD PTR [ecx]
  0028c	f3 0f 11 85 88
	fe ff ff	 movss	 DWORD PTR _fx$[ebp], xmm0
  00294	8b 45 94	 mov	 eax, DWORD PTR _this$[ebp]
  00297	8b 4d 90	 mov	 ecx, DWORD PTR _v$[ebp]
  0029a	f3 0f 10 40 04	 movss	 xmm0, DWORD PTR [eax+4]
  0029f	f3 0f 5c 41 04	 subss	 xmm0, DWORD PTR [ecx+4]
  002a4	f3 0f 11 85 b4
	fc ff ff	 movss	 DWORD PTR _fy$[ebp], xmm0
  002ac	8b 45 94	 mov	 eax, DWORD PTR _this$[ebp]
  002af	8b 4d 90	 mov	 ecx, DWORD PTR _v$[ebp]
  002b2	f3 0f 10 40 08	 movss	 xmm0, DWORD PTR [eax+8]
  002b7	f3 0f 5c 41 08	 subss	 xmm0, DWORD PTR [ecx+8]
  002bc	f3 0f 11 85 b8
	fc ff ff	 movss	 DWORD PTR _fz$[ebp], xmm0

; 180  :     x = fx;

  002c4	f3 0f 10 85 88
	fe ff ff	 movss	 xmm0, DWORD PTR _fx$[ebp]
  002cc	f3 0f 11 85 08
	01 00 00	 movss	 DWORD PTR $T68[ebp], xmm0

; 181  :     y = fy;

  002d4	f3 0f 10 85 b4
	fc ff ff	 movss	 xmm0, DWORD PTR _fy$[ebp]
  002dc	f3 0f 11 85 0c
	01 00 00	 movss	 DWORD PTR $T68[ebp+4], xmm0

; 182  :     z = fz;

  002e4	f3 0f 10 85 b8
	fc ff ff	 movss	 xmm0, DWORD PTR _fz$[ebp]
  002ec	f3 0f 11 85 10
	01 00 00	 movss	 DWORD PTR $T68[ebp+8], xmm0
; File D:\Metin2 Server Files\mainline\SRC_2014\Metin2Client\GameLib\WeaponTrace.cpp

; 165  : 			r[i] = (Input[i+1].second - Input[i].second)*(3/h[i]);

  002f4	8b 45 ec	 mov	 eax, DWORD PTR _i$45[ebp]
  002f7	f3 0f 10 05 00
	00 00 00	 movss	 xmm0, DWORD PTR __real@40400000
  002ff	f3 0f 5e 84 85
	a0 14 00 00	 divss	 xmm0, DWORD PTR _h$[ebp+eax*4]
  00308	f3 0f 11 45 8c	 movss	 DWORD PTR _f$[ebp], xmm0
; File D:\Metin2 Server Files\mainline\SRC_2014\M2Data\include\d3dx8math.inl

; 269  :     return D3DXVECTOR3(x * f, y * f, z * f);

  0030d	f3 0f 10 85 08
	01 00 00	 movss	 xmm0, DWORD PTR $T68[ebp]
  00315	f3 0f 59 45 8c	 mulss	 xmm0, DWORD PTR _f$[ebp]
  0031a	f3 0f 11 85 bc
	fc ff ff	 movss	 DWORD PTR _fx$[ebp], xmm0
  00322	f3 0f 10 85 0c
	01 00 00	 movss	 xmm0, DWORD PTR $T68[ebp+4]
  0032a	f3 0f 59 45 8c	 mulss	 xmm0, DWORD PTR _f$[ebp]
  0032f	f3 0f 11 85 c4
	fc ff ff	 movss	 DWORD PTR _fy$[ebp], xmm0
  00337	f3 0f 10 85 10
	01 00 00	 movss	 xmm0, DWORD PTR $T68[ebp+8]
  0033f	f3 0f 59 45 8c	 mulss	 xmm0, DWORD PTR _f$[ebp]
  00344	f3 0f 11 85 c8
	fc ff ff	 movss	 DWORD PTR _fz$[ebp], xmm0

; 180  :     x = fx;

  0034c	f3 0f 10 85 bc
	fc ff ff	 movss	 xmm0, DWORD PTR _fx$[ebp]
  00354	f3 0f 11 45 60	 movss	 DWORD PTR $T54[ebp], xmm0

; 181  :     y = fy;

  00359	f3 0f 10 85 c4
	fc ff ff	 movss	 xmm0, DWORD PTR _fy$[ebp]
  00361	f3 0f 11 45 64	 movss	 DWORD PTR $T54[ebp+4], xmm0

; 182  :     z = fz;

  00366	f3 0f 10 85 c8
	fc ff ff	 movss	 xmm0, DWORD PTR _fz$[ebp]
  0036e	f3 0f 11 45 68	 movss	 DWORD PTR $T54[ebp+8], xmm0
; File D:\Metin2 Server Files\mainline\SRC_2014\Metin2Client\GameLib\WeaponTrace.cpp

; 165  : 			r[i] = (Input[i+1].second - Input[i].second)*(3/h[i]);

  00373	6b 45 ec 0c	 imul	 eax, DWORD PTR _i$45[ebp], 12
  00377	8d bc 05 90 06
	00 00		 lea	 edi, DWORD PTR _r$[ebp+eax]
  0037e	8d 75 60	 lea	 esi, DWORD PTR $T54[ebp]
  00381	a5		 movsd
  00382	a5		 movsd
  00383	a5		 movsd

; 166  : 		}

  00384	e9 90 fe ff ff	 jmp	 $LN5@BuildVerte
$LN6@BuildVerte:
; File D:\Metin2 Server Files\mainline\SRC_2014\M2Data\include\d3dx8math.inl

; 180  :     x = fx;

  00389	0f 57 c0	 xorps	 xmm0, xmm0
  0038c	f3 0f 11 45 54	 movss	 DWORD PTR $T53[ebp], xmm0

; 181  :     y = fy;

  00391	0f 57 c0	 xorps	 xmm0, xmm0
  00394	f3 0f 11 45 58	 movss	 DWORD PTR $T53[ebp+4], xmm0

; 182  :     z = fz;

  00399	0f 57 c0	 xorps	 xmm0, xmm0
  0039c	f3 0f 11 45 5c	 movss	 DWORD PTR $T53[ebp+8], xmm0
; File D:\Metin2 Server Files\mainline\SRC_2014\Metin2Client\GameLib\WeaponTrace.cpp

; 167  : 		r[n] = D3DXVECTOR3(0.0f,0.0f,0.0f);

  003a1	6b 45 d8 0c	 imul	 eax, DWORD PTR _n$[ebp], 12
  003a5	8d bc 05 90 06
	00 00		 lea	 edi, DWORD PTR _r$[ebp+eax]
  003ac	8d 75 54	 lea	 esi, DWORD PTR $T53[ebp]
  003af	a5		 movsd
  003b0	a5		 movsd
  003b1	a5		 movsd

; 168  : 		for(i=n;i>0;i--)

  003b2	8b 45 d8	 mov	 eax, DWORD PTR _n$[ebp]
  003b5	89 45 ec	 mov	 DWORD PTR _i$45[ebp], eax
  003b8	eb 07		 jmp	 SHORT $LN10@BuildVerte
$LN8@BuildVerte:
  003ba	8b 45 ec	 mov	 eax, DWORD PTR _i$45[ebp]
  003bd	48		 dec	 eax
  003be	89 45 ec	 mov	 DWORD PTR _i$45[ebp], eax
$LN10@BuildVerte:
  003c1	83 7d ec 00	 cmp	 DWORD PTR _i$45[ebp], 0
  003c5	7e 66		 jle	 SHORT $LN9@BuildVerte

; 169  : 		{
; 170  : 			r[i]+=r[i-1];

  003c7	8b 45 ec	 mov	 eax, DWORD PTR _i$45[ebp]
  003ca	48		 dec	 eax
  003cb	6b c0 0c	 imul	 eax, eax, 12
  003ce	8d 84 05 90 06
	00 00		 lea	 eax, DWORD PTR _r$[ebp+eax]
  003d5	89 45 88	 mov	 DWORD PTR _v$[ebp], eax
  003d8	6b 45 ec 0c	 imul	 eax, DWORD PTR _i$45[ebp], 12
  003dc	8d 84 05 90 06
	00 00		 lea	 eax, DWORD PTR _r$[ebp+eax]
  003e3	89 45 ac	 mov	 DWORD PTR _this$[ebp], eax
; File D:\Metin2 Server Files\mainline\SRC_2014\M2Data\include\d3dx8math.inl

; 204  :     x += v.x;

  003e6	8b 45 ac	 mov	 eax, DWORD PTR _this$[ebp]
  003e9	8b 4d 88	 mov	 ecx, DWORD PTR _v$[ebp]
  003ec	f3 0f 10 00	 movss	 xmm0, DWORD PTR [eax]
  003f0	f3 0f 58 01	 addss	 xmm0, DWORD PTR [ecx]
  003f4	8b 45 ac	 mov	 eax, DWORD PTR _this$[ebp]
  003f7	f3 0f 11 00	 movss	 DWORD PTR [eax], xmm0

; 205  :     y += v.y;

  003fb	8b 45 ac	 mov	 eax, DWORD PTR _this$[ebp]
  003fe	8b 4d 88	 mov	 ecx, DWORD PTR _v$[ebp]
  00401	f3 0f 10 40 04	 movss	 xmm0, DWORD PTR [eax+4]
  00406	f3 0f 58 41 04	 addss	 xmm0, DWORD PTR [ecx+4]
  0040b	8b 45 ac	 mov	 eax, DWORD PTR _this$[ebp]
  0040e	f3 0f 11 40 04	 movss	 DWORD PTR [eax+4], xmm0

; 206  :     z += v.z;

  00413	8b 45 ac	 mov	 eax, DWORD PTR _this$[ebp]
  00416	8b 4d 88	 mov	 ecx, DWORD PTR _v$[ebp]
  00419	f3 0f 10 40 08	 movss	 xmm0, DWORD PTR [eax+8]
  0041e	f3 0f 58 41 08	 addss	 xmm0, DWORD PTR [ecx+8]
  00423	8b 45 ac	 mov	 eax, DWORD PTR _this$[ebp]
  00426	f3 0f 11 40 08	 movss	 DWORD PTR [eax+8], xmm0
; File D:\Metin2 Server Files\mainline\SRC_2014\Metin2Client\GameLib\WeaponTrace.cpp

; 171  : 		}

  0042b	eb 8d		 jmp	 SHORT $LN8@BuildVerte
$LN9@BuildVerte:

; 172  : 
; 173  : 		float rate = 0.5f;

  0042d	f3 0f 10 05 00
	00 00 00	 movss	 xmm0, DWORD PTR __real@3f000000
  00435	f3 0f 11 45 e0	 movss	 DWORD PTR _rate$43[ebp], xmm0

; 174  : 		r[0] *= 0.5f;

  0043a	6a 0c		 push	 12			; 0000000cH
  0043c	58		 pop	 eax
  0043d	6b c0 00	 imul	 eax, eax, 0
  00440	8d 84 05 90 06
	00 00		 lea	 eax, DWORD PTR _r$[ebp+eax]
  00447	89 45 b0	 mov	 DWORD PTR _this$[ebp], eax
; File D:\Metin2 Server Files\mainline\SRC_2014\M2Data\include\d3dx8math.inl

; 222  :     x *= f;

  0044a	8b 45 b0	 mov	 eax, DWORD PTR _this$[ebp]
  0044d	f3 0f 10 00	 movss	 xmm0, DWORD PTR [eax]
  00451	f3 0f 59 05 00
	00 00 00	 mulss	 xmm0, DWORD PTR __real@3f000000
  00459	8b 45 b0	 mov	 eax, DWORD PTR _this$[ebp]
  0045c	f3 0f 11 00	 movss	 DWORD PTR [eax], xmm0

; 223  :     y *= f;

  00460	8b 45 b0	 mov	 eax, DWORD PTR _this$[ebp]
  00463	f3 0f 10 40 04	 movss	 xmm0, DWORD PTR [eax+4]
  00468	f3 0f 59 05 00
	00 00 00	 mulss	 xmm0, DWORD PTR __real@3f000000
  00470	8b 45 b0	 mov	 eax, DWORD PTR _this$[ebp]
  00473	f3 0f 11 40 04	 movss	 DWORD PTR [eax+4], xmm0

; 224  :     z *= f;

  00478	8b 45 b0	 mov	 eax, DWORD PTR _this$[ebp]
  0047b	f3 0f 10 40 08	 movss	 xmm0, DWORD PTR [eax+8]
  00480	f3 0f 59 05 00
	00 00 00	 mulss	 xmm0, DWORD PTR __real@3f000000
  00488	8b 45 b0	 mov	 eax, DWORD PTR _this$[ebp]
  0048b	f3 0f 11 40 08	 movss	 DWORD PTR [eax+8], xmm0
; File D:\Metin2 Server Files\mainline\SRC_2014\Metin2Client\GameLib\WeaponTrace.cpp

; 175  : 		stk[sp++] = rate;

  00490	8b 45 cc	 mov	 eax, DWORD PTR _sp$[ebp]
  00493	f3 0f 10 45 e0	 movss	 xmm0, DWORD PTR _rate$43[ebp]
  00498	f3 0f 11 84 85
	e0 01 00 00	 movss	 DWORD PTR _stk$[ebp+eax*4], xmm0
  004a1	8b 45 cc	 mov	 eax, DWORD PTR _sp$[ebp]
  004a4	40		 inc	 eax
  004a5	89 45 cc	 mov	 DWORD PTR _sp$[ebp], eax

; 176  : 		for(i=1;i<n;i++)

  004a8	c7 45 ec 01 00
	00 00		 mov	 DWORD PTR _i$45[ebp], 1
  004af	eb 07		 jmp	 SHORT $LN13@BuildVerte
$LN11@BuildVerte:
  004b1	8b 45 ec	 mov	 eax, DWORD PTR _i$45[ebp]
  004b4	40		 inc	 eax
  004b5	89 45 ec	 mov	 DWORD PTR _i$45[ebp], eax
$LN13@BuildVerte:
  004b8	8b 45 ec	 mov	 eax, DWORD PTR _i$45[ebp]
  004bb	3b 45 d8	 cmp	 eax, DWORD PTR _n$[ebp]
  004be	0f 8d ea 00 00
	00		 jge	 $LN12@BuildVerte

; 177  : 		{
; 178  : 			r[i]-=r[i-1];

  004c4	8b 45 ec	 mov	 eax, DWORD PTR _i$45[ebp]
  004c7	48		 dec	 eax
  004c8	6b c0 0c	 imul	 eax, eax, 12
  004cb	8d 84 05 90 06
	00 00		 lea	 eax, DWORD PTR _r$[ebp+eax]
  004d2	89 45 84	 mov	 DWORD PTR _v$[ebp], eax
  004d5	6b 45 ec 0c	 imul	 eax, DWORD PTR _i$45[ebp], 12
  004d9	8d 84 05 90 06
	00 00		 lea	 eax, DWORD PTR _r$[ebp+eax]
  004e0	89 45 b4	 mov	 DWORD PTR _this$[ebp], eax
; File D:\Metin2 Server Files\mainline\SRC_2014\M2Data\include\d3dx8math.inl

; 213  :     x -= v.x;

  004e3	8b 45 b4	 mov	 eax, DWORD PTR _this$[ebp]
  004e6	8b 4d 84	 mov	 ecx, DWORD PTR _v$[ebp]
  004e9	f3 0f 10 00	 movss	 xmm0, DWORD PTR [eax]
  004ed	f3 0f 5c 01	 subss	 xmm0, DWORD PTR [ecx]
  004f1	8b 45 b4	 mov	 eax, DWORD PTR _this$[ebp]
  004f4	f3 0f 11 00	 movss	 DWORD PTR [eax], xmm0

; 214  :     y -= v.y;

  004f8	8b 45 b4	 mov	 eax, DWORD PTR _this$[ebp]
  004fb	8b 4d 84	 mov	 ecx, DWORD PTR _v$[ebp]
  004fe	f3 0f 10 40 04	 movss	 xmm0, DWORD PTR [eax+4]
  00503	f3 0f 5c 41 04	 subss	 xmm0, DWORD PTR [ecx+4]
  00508	8b 45 b4	 mov	 eax, DWORD PTR _this$[ebp]
  0050b	f3 0f 11 40 04	 movss	 DWORD PTR [eax+4], xmm0

; 215  :     z -= v.z;

  00510	8b 45 b4	 mov	 eax, DWORD PTR _this$[ebp]
  00513	8b 4d 84	 mov	 ecx, DWORD PTR _v$[ebp]
  00516	f3 0f 10 40 08	 movss	 xmm0, DWORD PTR [eax+8]
  0051b	f3 0f 5c 41 08	 subss	 xmm0, DWORD PTR [ecx+8]
  00520	8b 45 b4	 mov	 eax, DWORD PTR _this$[ebp]
  00523	f3 0f 11 40 08	 movss	 DWORD PTR [eax+8], xmm0
; File D:\Metin2 Server Files\mainline\SRC_2014\Metin2Client\GameLib\WeaponTrace.cpp

; 179  : 			rate = 1/(4-rate);

  00528	f3 0f 10 05 00
	00 00 00	 movss	 xmm0, DWORD PTR __real@40800000
  00530	f3 0f 5c 45 e0	 subss	 xmm0, DWORD PTR _rate$43[ebp]
  00535	f3 0f 10 0d 00
	00 00 00	 movss	 xmm1, DWORD PTR __real@3f800000
  0053d	f3 0f 5e c8	 divss	 xmm1, xmm0
  00541	f3 0f 11 4d e0	 movss	 DWORD PTR _rate$43[ebp], xmm1

; 180  : 			r[i] *= rate;

  00546	6b 45 ec 0c	 imul	 eax, DWORD PTR _i$45[ebp], 12
  0054a	8d 84 05 90 06
	00 00		 lea	 eax, DWORD PTR _r$[ebp+eax]
  00551	89 45 b8	 mov	 DWORD PTR _this$[ebp], eax
; File D:\Metin2 Server Files\mainline\SRC_2014\M2Data\include\d3dx8math.inl

; 222  :     x *= f;

  00554	8b 45 b8	 mov	 eax, DWORD PTR _this$[ebp]
  00557	f3 0f 10 00	 movss	 xmm0, DWORD PTR [eax]
  0055b	f3 0f 59 45 e0	 mulss	 xmm0, DWORD PTR _rate$43[ebp]
  00560	8b 45 b8	 mov	 eax, DWORD PTR _this$[ebp]
  00563	f3 0f 11 00	 movss	 DWORD PTR [eax], xmm0

; 223  :     y *= f;

  00567	8b 45 b8	 mov	 eax, DWORD PTR _this$[ebp]
  0056a	f3 0f 10 40 04	 movss	 xmm0, DWORD PTR [eax+4]
  0056f	f3 0f 59 45 e0	 mulss	 xmm0, DWORD PTR _rate$43[ebp]
  00574	8b 45 b8	 mov	 eax, DWORD PTR _this$[ebp]
  00577	f3 0f 11 40 04	 movss	 DWORD PTR [eax+4], xmm0

; 224  :     z *= f;

  0057c	8b 45 b8	 mov	 eax, DWORD PTR _this$[ebp]
  0057f	f3 0f 10 40 08	 movss	 xmm0, DWORD PTR [eax+8]
  00584	f3 0f 59 45 e0	 mulss	 xmm0, DWORD PTR _rate$43[ebp]
  00589	8b 45 b8	 mov	 eax, DWORD PTR _this$[ebp]
  0058c	f3 0f 11 40 08	 movss	 DWORD PTR [eax+8], xmm0
; File D:\Metin2 Server Files\mainline\SRC_2014\Metin2Client\GameLib\WeaponTrace.cpp

; 181  : 			stk[sp++]=rate;

  00591	8b 45 cc	 mov	 eax, DWORD PTR _sp$[ebp]
  00594	f3 0f 10 45 e0	 movss	 xmm0, DWORD PTR _rate$43[ebp]
  00599	f3 0f 11 84 85
	e0 01 00 00	 movss	 DWORD PTR _stk$[ebp+eax*4], xmm0
  005a2	8b 45 cc	 mov	 eax, DWORD PTR _sp$[ebp]
  005a5	40		 inc	 eax
  005a6	89 45 cc	 mov	 DWORD PTR _sp$[ebp], eax

; 182  : 		}

  005a9	e9 03 ff ff ff	 jmp	 $LN11@BuildVerte
$LN12@BuildVerte:

; 183  : 		r[n]-=r[n-1];

  005ae	8b 45 d8	 mov	 eax, DWORD PTR _n$[ebp]
  005b1	48		 dec	 eax
  005b2	6b c0 0c	 imul	 eax, eax, 12
  005b5	8d 84 05 90 06
	00 00		 lea	 eax, DWORD PTR _r$[ebp+eax]
  005bc	89 45 80	 mov	 DWORD PTR _v$[ebp], eax
  005bf	6b 45 d8 0c	 imul	 eax, DWORD PTR _n$[ebp], 12
  005c3	8d 84 05 90 06
	00 00		 lea	 eax, DWORD PTR _r$[ebp+eax]
  005ca	89 45 bc	 mov	 DWORD PTR _this$[ebp], eax
; File D:\Metin2 Server Files\mainline\SRC_2014\M2Data\include\d3dx8math.inl

; 213  :     x -= v.x;

  005cd	8b 45 bc	 mov	 eax, DWORD PTR _this$[ebp]
  005d0	8b 4d 80	 mov	 ecx, DWORD PTR _v$[ebp]
  005d3	f3 0f 10 00	 movss	 xmm0, DWORD PTR [eax]
  005d7	f3 0f 5c 01	 subss	 xmm0, DWORD PTR [ecx]
  005db	8b 45 bc	 mov	 eax, DWORD PTR _this$[ebp]
  005de	f3 0f 11 00	 movss	 DWORD PTR [eax], xmm0

; 214  :     y -= v.y;

  005e2	8b 45 bc	 mov	 eax, DWORD PTR _this$[ebp]
  005e5	8b 4d 80	 mov	 ecx, DWORD PTR _v$[ebp]
  005e8	f3 0f 10 40 04	 movss	 xmm0, DWORD PTR [eax+4]
  005ed	f3 0f 5c 41 04	 subss	 xmm0, DWORD PTR [ecx+4]
  005f2	8b 45 bc	 mov	 eax, DWORD PTR _this$[ebp]
  005f5	f3 0f 11 40 04	 movss	 DWORD PTR [eax+4], xmm0

; 215  :     z -= v.z;

  005fa	8b 45 bc	 mov	 eax, DWORD PTR _this$[ebp]
  005fd	8b 4d 80	 mov	 ecx, DWORD PTR _v$[ebp]
  00600	f3 0f 10 40 08	 movss	 xmm0, DWORD PTR [eax+8]
  00605	f3 0f 5c 41 08	 subss	 xmm0, DWORD PTR [ecx+8]
  0060a	8b 45 bc	 mov	 eax, DWORD PTR _this$[ebp]
  0060d	f3 0f 11 40 08	 movss	 DWORD PTR [eax+8], xmm0
; File D:\Metin2 Server Files\mainline\SRC_2014\Metin2Client\GameLib\WeaponTrace.cpp

; 184  : 		rate = 1/(2-rate);

  00612	f3 0f 10 05 00
	00 00 00	 movss	 xmm0, DWORD PTR __real@40000000
  0061a	f3 0f 5c 45 e0	 subss	 xmm0, DWORD PTR _rate$43[ebp]
  0061f	f3 0f 10 0d 00
	00 00 00	 movss	 xmm1, DWORD PTR __real@3f800000
  00627	f3 0f 5e c8	 divss	 xmm1, xmm0
  0062b	f3 0f 11 4d e0	 movss	 DWORD PTR _rate$43[ebp], xmm1

; 185  : 		r[n]*=rate;

  00630	6b 45 d8 0c	 imul	 eax, DWORD PTR _n$[ebp], 12
  00634	8d 84 05 90 06
	00 00		 lea	 eax, DWORD PTR _r$[ebp+eax]
  0063b	89 45 c0	 mov	 DWORD PTR _this$[ebp], eax
; File D:\Metin2 Server Files\mainline\SRC_2014\M2Data\include\d3dx8math.inl

; 222  :     x *= f;

  0063e	8b 45 c0	 mov	 eax, DWORD PTR _this$[ebp]
  00641	f3 0f 10 00	 movss	 xmm0, DWORD PTR [eax]
  00645	f3 0f 59 45 e0	 mulss	 xmm0, DWORD PTR _rate$43[ebp]
  0064a	8b 45 c0	 mov	 eax, DWORD PTR _this$[ebp]
  0064d	f3 0f 11 00	 movss	 DWORD PTR [eax], xmm0

; 223  :     y *= f;

  00651	8b 45 c0	 mov	 eax, DWORD PTR _this$[ebp]
  00654	f3 0f 10 40 04	 movss	 xmm0, DWORD PTR [eax+4]
  00659	f3 0f 59 45 e0	 mulss	 xmm0, DWORD PTR _rate$43[ebp]
  0065e	8b 45 c0	 mov	 eax, DWORD PTR _this$[ebp]
  00661	f3 0f 11 40 04	 movss	 DWORD PTR [eax+4], xmm0

; 224  :     z *= f;

  00666	8b 45 c0	 mov	 eax, DWORD PTR _this$[ebp]
  00669	f3 0f 10 40 08	 movss	 xmm0, DWORD PTR [eax+8]
  0066e	f3 0f 59 45 e0	 mulss	 xmm0, DWORD PTR _rate$43[ebp]
  00673	8b 45 c0	 mov	 eax, DWORD PTR _this$[ebp]
  00676	f3 0f 11 40 08	 movss	 DWORD PTR [eax+8], xmm0
; File D:\Metin2 Server Files\mainline\SRC_2014\Metin2Client\GameLib\WeaponTrace.cpp

; 187  : 		for(i=n-1;i>=0;i--)

  0067b	8b 45 d8	 mov	 eax, DWORD PTR _n$[ebp]
  0067e	48		 dec	 eax
  0067f	89 45 ec	 mov	 DWORD PTR _i$45[ebp], eax
  00682	eb 07		 jmp	 SHORT $LN16@BuildVerte
$LN14@BuildVerte:
  00684	8b 45 ec	 mov	 eax, DWORD PTR _i$45[ebp]
  00687	48		 dec	 eax
  00688	89 45 ec	 mov	 DWORD PTR _i$45[ebp], eax
$LN16@BuildVerte:
  0068b	83 7d ec 00	 cmp	 DWORD PTR _i$45[ebp], 0
  0068f	0f 8c 08 01 00
	00		 jl	 $LN15@BuildVerte

; 189  : 			r[i] -= stk[--sp] * r[i+1];

  00695	8b 45 cc	 mov	 eax, DWORD PTR _sp$[ebp]
  00698	48		 dec	 eax
  00699	89 45 cc	 mov	 DWORD PTR _sp$[ebp], eax
  0069c	8b 45 ec	 mov	 eax, DWORD PTR _i$45[ebp]
  0069f	40		 inc	 eax
  006a0	6b c0 0c	 imul	 eax, eax, 12
  006a3	8d 84 05 90 06
	00 00		 lea	 eax, DWORD PTR _r$[ebp+eax]
  006aa	89 85 7c ff ff
	ff		 mov	 DWORD PTR _v$[ebp], eax
  006b0	8b 45 cc	 mov	 eax, DWORD PTR _sp$[ebp]
  006b3	f3 0f 10 84 85
	e0 01 00 00	 movss	 xmm0, DWORD PTR _stk$[ebp+eax*4]
  006bc	f3 0f 11 85 20
	ff ff ff	 movss	 DWORD PTR _f$[ebp], xmm0
; File D:\Metin2 Server Files\mainline\SRC_2014\M2Data\include\d3dx8math.inl

; 283  :     return D3DXVECTOR3(f * v.x, f * v.y, f * v.z);

  006c4	8b 85 7c ff ff
	ff		 mov	 eax, DWORD PTR _v$[ebp]
  006ca	f3 0f 10 85 20
	ff ff ff	 movss	 xmm0, DWORD PTR _f$[ebp]
  006d2	f3 0f 59 00	 mulss	 xmm0, DWORD PTR [eax]
  006d6	f3 0f 11 85 cc
	fc ff ff	 movss	 DWORD PTR _fx$[ebp], xmm0
  006de	8b 85 7c ff ff
	ff		 mov	 eax, DWORD PTR _v$[ebp]
  006e4	f3 0f 10 85 20
	ff ff ff	 movss	 xmm0, DWORD PTR _f$[ebp]
  006ec	f3 0f 59 40 04	 mulss	 xmm0, DWORD PTR [eax+4]
  006f1	f3 0f 11 85 d0
	fc ff ff	 movss	 DWORD PTR _fy$[ebp], xmm0
  006f9	8b 85 7c ff ff
	ff		 mov	 eax, DWORD PTR _v$[ebp]
  006ff	f3 0f 10 85 20
	ff ff ff	 movss	 xmm0, DWORD PTR _f$[ebp]
  00707	f3 0f 59 40 08	 mulss	 xmm0, DWORD PTR [eax+8]
  0070c	f3 0f 11 85 d4
	fc ff ff	 movss	 DWORD PTR _fz$[ebp], xmm0

; 180  :     x = fx;

  00714	f3 0f 10 85 cc
	fc ff ff	 movss	 xmm0, DWORD PTR _fx$[ebp]
  0071c	f3 0f 11 85 14
	01 00 00	 movss	 DWORD PTR $T69[ebp], xmm0

; 181  :     y = fy;

  00724	f3 0f 10 85 d0
	fc ff ff	 movss	 xmm0, DWORD PTR _fy$[ebp]
  0072c	f3 0f 11 85 18
	01 00 00	 movss	 DWORD PTR $T69[ebp+4], xmm0

; 182  :     z = fz;

  00734	f3 0f 10 85 d4
	fc ff ff	 movss	 xmm0, DWORD PTR _fz$[ebp]
  0073c	f3 0f 11 85 1c
	01 00 00	 movss	 DWORD PTR $T69[ebp+8], xmm0
; File D:\Metin2 Server Files\mainline\SRC_2014\Metin2Client\GameLib\WeaponTrace.cpp

; 189  : 			r[i] -= stk[--sp] * r[i+1];

  00744	6b 45 ec 0c	 imul	 eax, DWORD PTR _i$45[ebp], 12
  00748	8d 84 05 90 06
	00 00		 lea	 eax, DWORD PTR _r$[ebp+eax]
  0074f	89 45 a8	 mov	 DWORD PTR _this$[ebp], eax
; File D:\Metin2 Server Files\mainline\SRC_2014\M2Data\include\d3dx8math.inl

; 213  :     x -= v.x;

  00752	8b 45 a8	 mov	 eax, DWORD PTR _this$[ebp]
  00755	f3 0f 10 00	 movss	 xmm0, DWORD PTR [eax]
  00759	f3 0f 5c 85 14
	01 00 00	 subss	 xmm0, DWORD PTR $T69[ebp]
  00761	8b 45 a8	 mov	 eax, DWORD PTR _this$[ebp]
  00764	f3 0f 11 00	 movss	 DWORD PTR [eax], xmm0

; 214  :     y -= v.y;

  00768	8b 45 a8	 mov	 eax, DWORD PTR _this$[ebp]
  0076b	f3 0f 10 40 04	 movss	 xmm0, DWORD PTR [eax+4]
  00770	f3 0f 5c 85 18
	01 00 00	 subss	 xmm0, DWORD PTR $T69[ebp+4]
  00778	8b 45 a8	 mov	 eax, DWORD PTR _this$[ebp]
  0077b	f3 0f 11 40 04	 movss	 DWORD PTR [eax+4], xmm0

; 215  :     z -= v.z;

  00780	8b 45 a8	 mov	 eax, DWORD PTR _this$[ebp]
  00783	f3 0f 10 40 08	 movss	 xmm0, DWORD PTR [eax+8]
  00788	f3 0f 5c 85 1c
	01 00 00	 subss	 xmm0, DWORD PTR $T69[ebp+8]
  00790	8b 45 a8	 mov	 eax, DWORD PTR _this$[ebp]
  00793	f3 0f 11 40 08	 movss	 DWORD PTR [eax+8], xmm0
; File D:\Metin2 Server Files\mainline\SRC_2014\Metin2Client\GameLib\WeaponTrace.cpp

; 190  : 		}

  00798	e9 e7 fe ff ff	 jmp	 $LN14@BuildVerte
$LN15@BuildVerte:

; 191  : 		
; 192  : 		int base = 0;

  0079d	83 65 f0 00	 and	 DWORD PTR _base$46[ebp], 0

; 193  : 		D3DXVECTOR3 a,b,c,d;
; 194  : 		D3DXVECTOR3 v3Tmp = Input[base+1].second-Input[base].second;

  007a1	ff 75 f0	 push	 DWORD PTR _base$46[ebp]
  007a4	8b 4d e4	 mov	 ecx, DWORD PTR _Input$44[ebp]
  007a7	e8 00 00 00 00	 call	 ??A?$deque@U?$pair@MUD3DXVECTOR3@@@std@@V?$allocator@U?$pair@MUD3DXVECTOR3@@@std@@@2@@std@@QAEAAU?$pair@MUD3DXVECTOR3@@@1@I@Z ; std::deque<std::pair<float,D3DXVECTOR3>,std::allocator<std::pair<float,D3DXVECTOR3> > >::operator[]
  007ac	83 c0 04	 add	 eax, 4
  007af	89 85 74 ff ff
	ff		 mov	 DWORD PTR _v$[ebp], eax
  007b5	8b 45 f0	 mov	 eax, DWORD PTR _base$46[ebp]
  007b8	40		 inc	 eax
  007b9	50		 push	 eax
  007ba	8b 4d e4	 mov	 ecx, DWORD PTR _Input$44[ebp]
  007bd	e8 00 00 00 00	 call	 ??A?$deque@U?$pair@MUD3DXVECTOR3@@@std@@V?$allocator@U?$pair@MUD3DXVECTOR3@@@std@@@2@@std@@QAEAAU?$pair@MUD3DXVECTOR3@@@1@I@Z ; std::deque<std::pair<float,D3DXVECTOR3>,std::allocator<std::pair<float,D3DXVECTOR3> > >::operator[]
  007c2	83 c0 04	 add	 eax, 4
  007c5	89 85 78 ff ff
	ff		 mov	 DWORD PTR _this$[ebp], eax
; File D:\Metin2 Server Files\mainline\SRC_2014\M2Data\include\d3dx8math.inl

; 263  :     return D3DXVECTOR3(x - v.x, y - v.y, z - v.z);

  007cb	8b 85 78 ff ff
	ff		 mov	 eax, DWORD PTR _this$[ebp]
  007d1	8b 8d 74 ff ff
	ff		 mov	 ecx, DWORD PTR _v$[ebp]
  007d7	f3 0f 10 00	 movss	 xmm0, DWORD PTR [eax]
  007db	f3 0f 5c 01	 subss	 xmm0, DWORD PTR [ecx]
  007df	f3 0f 11 85 d8
	fc ff ff	 movss	 DWORD PTR _fx$[ebp], xmm0
  007e7	8b 85 78 ff ff
	ff		 mov	 eax, DWORD PTR _this$[ebp]
  007ed	8b 8d 74 ff ff
	ff		 mov	 ecx, DWORD PTR _v$[ebp]
  007f3	f3 0f 10 40 04	 movss	 xmm0, DWORD PTR [eax+4]
  007f8	f3 0f 5c 41 04	 subss	 xmm0, DWORD PTR [ecx+4]
  007fd	f3 0f 11 85 dc
	fc ff ff	 movss	 DWORD PTR _fy$[ebp], xmm0
  00805	8b 85 78 ff ff
	ff		 mov	 eax, DWORD PTR _this$[ebp]
  0080b	8b 8d 74 ff ff
	ff		 mov	 ecx, DWORD PTR _v$[ebp]
  00811	f3 0f 10 40 08	 movss	 xmm0, DWORD PTR [eax+8]
  00816	f3 0f 5c 41 08	 subss	 xmm0, DWORD PTR [ecx+8]
  0081b	f3 0f 11 85 e0
	fc ff ff	 movss	 DWORD PTR _fz$[ebp], xmm0

; 180  :     x = fx;

  00823	f3 0f 10 85 d8
	fc ff ff	 movss	 xmm0, DWORD PTR _fx$[ebp]
  0082b	f3 0f 11 85 d4
	01 00 00	 movss	 DWORD PTR _v3Tmp$85[ebp], xmm0

; 181  :     y = fy;

  00833	f3 0f 10 85 dc
	fc ff ff	 movss	 xmm0, DWORD PTR _fy$[ebp]
  0083b	f3 0f 11 85 d8
	01 00 00	 movss	 DWORD PTR _v3Tmp$85[ebp+4], xmm0

; 182  :     z = fz;

  00843	f3 0f 10 85 e0
	fc ff ff	 movss	 xmm0, DWORD PTR _fz$[ebp]
  0084b	f3 0f 11 85 dc
	01 00 00	 movss	 DWORD PTR _v3Tmp$85[ebp+8], xmm0
; File D:\Metin2 Server Files\mainline\SRC_2014\Metin2Client\GameLib\WeaponTrace.cpp

; 195  : 		float timebase=0,timenext=h[base], dt=m_fSamplingTime;

  00853	0f 57 c0	 xorps	 xmm0, xmm0
  00856	f3 0f 11 85 fc
	fe ff ff	 movss	 DWORD PTR _timebase$33[ebp], xmm0
  0085e	8b 45 f0	 mov	 eax, DWORD PTR _base$46[ebp]
  00861	f3 0f 10 84 85
	a0 14 00 00	 movss	 xmm0, DWORD PTR _h$[ebp+eax*4]
  0086a	f3 0f 11 45 9c	 movss	 DWORD PTR _timenext$35[ebp], xmm0
  0086f	8b 45 e8	 mov	 eax, DWORD PTR _this$[ebp]
  00872	f3 0f 10 40 40	 movss	 xmm0, DWORD PTR [eax+64]
  00877	f3 0f 11 85 80
	fe ff ff	 movss	 DWORD PTR _dt$21[ebp], xmm0

; 196  : 		a = Input[base].second;

  0087f	ff 75 f0	 push	 DWORD PTR _base$46[ebp]
  00882	8b 4d e4	 mov	 ecx, DWORD PTR _Input$44[ebp]
  00885	e8 00 00 00 00	 call	 ??A?$deque@U?$pair@MUD3DXVECTOR3@@@std@@V?$allocator@U?$pair@MUD3DXVECTOR3@@@std@@@2@@std@@QAEAAU?$pair@MUD3DXVECTOR3@@@1@I@Z ; std::deque<std::pair<float,D3DXVECTOR3>,std::allocator<std::pair<float,D3DXVECTOR3> > >::operator[]
  0088a	83 c0 04	 add	 eax, 4
  0088d	8b f0		 mov	 esi, eax
  0088f	8d 7d 6c	 lea	 edi, DWORD PTR _a$55[ebp]
  00892	a5		 movsd
  00893	a5		 movsd
  00894	a5		 movsd

; 197  : 		b = r[base];

  00895	6b 45 f0 0c	 imul	 eax, DWORD PTR _base$46[ebp], 12
  00899	8d b4 05 90 06
	00 00		 lea	 esi, DWORD PTR _r$[ebp+eax]
  008a0	8d 7d 78	 lea	 edi, DWORD PTR _b$56[ebp]
  008a3	a5		 movsd
  008a4	a5		 movsd
  008a5	a5		 movsd

; 198  : 		c = ( 3*v3Tmp - r[base+1]*h[base] - (2*h[base])*r[base] )

  008a6	6b 45 f0 0c	 imul	 eax, DWORD PTR _base$46[ebp], 12
  008aa	8d 84 05 90 06
	00 00		 lea	 eax, DWORD PTR _r$[ebp+eax]
  008b1	89 85 70 ff ff
	ff		 mov	 DWORD PTR _v$[ebp], eax
  008b7	8b 45 f0	 mov	 eax, DWORD PTR _base$46[ebp]
  008ba	f3 0f 10 05 00
	00 00 00	 movss	 xmm0, DWORD PTR __real@40000000
  008c2	f3 0f 59 84 85
	a0 14 00 00	 mulss	 xmm0, DWORD PTR _h$[ebp+eax*4]
  008cb	f3 0f 11 85 6c
	ff ff ff	 movss	 DWORD PTR _f$[ebp], xmm0
; File D:\Metin2 Server Files\mainline\SRC_2014\M2Data\include\d3dx8math.inl

; 283  :     return D3DXVECTOR3(f * v.x, f * v.y, f * v.z);

  008d3	8b 85 70 ff ff
	ff		 mov	 eax, DWORD PTR _v$[ebp]
  008d9	f3 0f 10 85 6c
	ff ff ff	 movss	 xmm0, DWORD PTR _f$[ebp]
  008e1	f3 0f 59 00	 mulss	 xmm0, DWORD PTR [eax]
  008e5	f3 0f 11 85 e4
	fc ff ff	 movss	 DWORD PTR _fx$[ebp], xmm0
  008ed	8b 85 70 ff ff
	ff		 mov	 eax, DWORD PTR _v$[ebp]
  008f3	f3 0f 10 85 6c
	ff ff ff	 movss	 xmm0, DWORD PTR _f$[ebp]
  008fb	f3 0f 59 40 04	 mulss	 xmm0, DWORD PTR [eax+4]
  00900	f3 0f 11 85 e8
	fc ff ff	 movss	 DWORD PTR _fy$[ebp], xmm0
  00908	8b 85 70 ff ff
	ff		 mov	 eax, DWORD PTR _v$[ebp]
  0090e	f3 0f 10 85 6c
	ff ff ff	 movss	 xmm0, DWORD PTR _f$[ebp]
  00916	f3 0f 59 40 08	 mulss	 xmm0, DWORD PTR [eax+8]
  0091b	f3 0f 11 85 ec
	fc ff ff	 movss	 DWORD PTR _fz$[ebp], xmm0

; 180  :     x = fx;

  00923	f3 0f 10 85 e4
	fc ff ff	 movss	 xmm0, DWORD PTR _fx$[ebp]
  0092b	f3 0f 11 85 44
	01 00 00	 movss	 DWORD PTR $T73[ebp], xmm0

; 181  :     y = fy;

  00933	f3 0f 10 85 e8
	fc ff ff	 movss	 xmm0, DWORD PTR _fy$[ebp]
  0093b	f3 0f 11 85 48
	01 00 00	 movss	 DWORD PTR $T73[ebp+4], xmm0

; 182  :     z = fz;

  00943	f3 0f 10 85 ec
	fc ff ff	 movss	 xmm0, DWORD PTR _fz$[ebp]
  0094b	f3 0f 11 85 4c
	01 00 00	 movss	 DWORD PTR $T73[ebp+8], xmm0
; File D:\Metin2 Server Files\mainline\SRC_2014\Metin2Client\GameLib\WeaponTrace.cpp

; 198  : 		c = ( 3*v3Tmp - r[base+1]*h[base] - (2*h[base])*r[base] )

  00953	8b 45 f0	 mov	 eax, DWORD PTR _base$46[ebp]
  00956	f3 0f 10 84 85
	a0 14 00 00	 movss	 xmm0, DWORD PTR _h$[ebp+eax*4]
  0095f	f3 0f 11 85 64
	ff ff ff	 movss	 DWORD PTR _f$[ebp], xmm0
  00967	8b 45 f0	 mov	 eax, DWORD PTR _base$46[ebp]
  0096a	40		 inc	 eax
  0096b	6b c0 0c	 imul	 eax, eax, 12
  0096e	8d 84 05 90 06
	00 00		 lea	 eax, DWORD PTR _r$[ebp+eax]
  00975	89 85 68 ff ff
	ff		 mov	 DWORD PTR _this$[ebp], eax
; File D:\Metin2 Server Files\mainline\SRC_2014\M2Data\include\d3dx8math.inl

; 269  :     return D3DXVECTOR3(x * f, y * f, z * f);

  0097b	8b 85 68 ff ff
	ff		 mov	 eax, DWORD PTR _this$[ebp]
  00981	f3 0f 10 00	 movss	 xmm0, DWORD PTR [eax]
  00985	f3 0f 59 85 64
	ff ff ff	 mulss	 xmm0, DWORD PTR _f$[ebp]
  0098d	f3 0f 11 85 f0
	fc ff ff	 movss	 DWORD PTR _fx$[ebp], xmm0
  00995	8b 85 68 ff ff
	ff		 mov	 eax, DWORD PTR _this$[ebp]
  0099b	f3 0f 10 40 04	 movss	 xmm0, DWORD PTR [eax+4]
  009a0	f3 0f 59 85 64
	ff ff ff	 mulss	 xmm0, DWORD PTR _f$[ebp]
  009a8	f3 0f 11 85 f4
	fc ff ff	 movss	 DWORD PTR _fy$[ebp], xmm0
  009b0	8b 85 68 ff ff
	ff		 mov	 eax, DWORD PTR _this$[ebp]
  009b6	f3 0f 10 40 08	 movss	 xmm0, DWORD PTR [eax+8]
  009bb	f3 0f 59 85 64
	ff ff ff	 mulss	 xmm0, DWORD PTR _f$[ebp]
  009c3	f3 0f 11 85 f8
	fc ff ff	 movss	 DWORD PTR _fz$[ebp], xmm0

; 180  :     x = fx;

  009cb	f3 0f 10 85 f0
	fc ff ff	 movss	 xmm0, DWORD PTR _fx$[ebp]
  009d3	f3 0f 11 85 2c
	01 00 00	 movss	 DWORD PTR $T71[ebp], xmm0

; 181  :     y = fy;

  009db	f3 0f 10 85 f4
	fc ff ff	 movss	 xmm0, DWORD PTR _fy$[ebp]
  009e3	f3 0f 11 85 30
	01 00 00	 movss	 DWORD PTR $T71[ebp+4], xmm0

; 182  :     z = fz;

  009eb	f3 0f 10 85 f8
	fc ff ff	 movss	 xmm0, DWORD PTR _fz$[ebp]
  009f3	f3 0f 11 85 34
	01 00 00	 movss	 DWORD PTR $T71[ebp+8], xmm0

; 283  :     return D3DXVECTOR3(f * v.x, f * v.y, f * v.z);

  009fb	f3 0f 10 05 00
	00 00 00	 movss	 xmm0, DWORD PTR __real@40400000
  00a03	f3 0f 59 85 d4
	01 00 00	 mulss	 xmm0, DWORD PTR _v3Tmp$85[ebp]
  00a0b	f3 0f 11 85 fc
	fc ff ff	 movss	 DWORD PTR _fx$[ebp], xmm0
  00a13	f3 0f 10 05 00
	00 00 00	 movss	 xmm0, DWORD PTR __real@40400000
  00a1b	f3 0f 59 85 d8
	01 00 00	 mulss	 xmm0, DWORD PTR _v3Tmp$85[ebp+4]
  00a23	f3 0f 11 85 00
	fd ff ff	 movss	 DWORD PTR _fy$[ebp], xmm0
  00a2b	f3 0f 10 05 00
	00 00 00	 movss	 xmm0, DWORD PTR __real@40400000
  00a33	f3 0f 59 85 dc
	01 00 00	 mulss	 xmm0, DWORD PTR _v3Tmp$85[ebp+8]
  00a3b	f3 0f 11 85 04
	fd ff ff	 movss	 DWORD PTR _fz$[ebp], xmm0

; 180  :     x = fx;

  00a43	f3 0f 10 85 fc
	fc ff ff	 movss	 xmm0, DWORD PTR _fx$[ebp]
  00a4b	f3 0f 11 85 20
	01 00 00	 movss	 DWORD PTR $T70[ebp], xmm0

; 181  :     y = fy;

  00a53	f3 0f 10 85 00
	fd ff ff	 movss	 xmm0, DWORD PTR _fy$[ebp]
  00a5b	f3 0f 11 85 24
	01 00 00	 movss	 DWORD PTR $T70[ebp+4], xmm0

; 182  :     z = fz;

  00a63	f3 0f 10 85 04
	fd ff ff	 movss	 xmm0, DWORD PTR _fz$[ebp]
  00a6b	f3 0f 11 85 28
	01 00 00	 movss	 DWORD PTR $T70[ebp+8], xmm0

; 263  :     return D3DXVECTOR3(x - v.x, y - v.y, z - v.z);

  00a73	f3 0f 10 85 20
	01 00 00	 movss	 xmm0, DWORD PTR $T70[ebp]
  00a7b	f3 0f 5c 85 2c
	01 00 00	 subss	 xmm0, DWORD PTR $T71[ebp]
  00a83	f3 0f 11 85 08
	fd ff ff	 movss	 DWORD PTR _fx$[ebp], xmm0
  00a8b	f3 0f 10 85 24
	01 00 00	 movss	 xmm0, DWORD PTR $T70[ebp+4]
  00a93	f3 0f 5c 85 30
	01 00 00	 subss	 xmm0, DWORD PTR $T71[ebp+4]
  00a9b	f3 0f 11 85 0c
	fd ff ff	 movss	 DWORD PTR _fy$[ebp], xmm0
  00aa3	f3 0f 10 85 28
	01 00 00	 movss	 xmm0, DWORD PTR $T70[ebp+8]
  00aab	f3 0f 5c 85 34
	01 00 00	 subss	 xmm0, DWORD PTR $T71[ebp+8]
  00ab3	f3 0f 11 85 10
	fd ff ff	 movss	 DWORD PTR _fz$[ebp], xmm0

; 180  :     x = fx;

  00abb	f3 0f 10 85 08
	fd ff ff	 movss	 xmm0, DWORD PTR _fx$[ebp]
  00ac3	f3 0f 11 85 38
	01 00 00	 movss	 DWORD PTR $T72[ebp], xmm0

; 181  :     y = fy;

  00acb	f3 0f 10 85 0c
	fd ff ff	 movss	 xmm0, DWORD PTR _fy$[ebp]
  00ad3	f3 0f 11 85 3c
	01 00 00	 movss	 DWORD PTR $T72[ebp+4], xmm0

; 182  :     z = fz;

  00adb	f3 0f 10 85 10
	fd ff ff	 movss	 xmm0, DWORD PTR _fz$[ebp]
  00ae3	f3 0f 11 85 40
	01 00 00	 movss	 DWORD PTR $T72[ebp+8], xmm0

; 263  :     return D3DXVECTOR3(x - v.x, y - v.y, z - v.z);

  00aeb	f3 0f 10 85 38
	01 00 00	 movss	 xmm0, DWORD PTR $T72[ebp]
  00af3	f3 0f 5c 85 44
	01 00 00	 subss	 xmm0, DWORD PTR $T73[ebp]
  00afb	f3 0f 11 85 14
	fd ff ff	 movss	 DWORD PTR _fx$[ebp], xmm0
  00b03	f3 0f 10 85 3c
	01 00 00	 movss	 xmm0, DWORD PTR $T72[ebp+4]
  00b0b	f3 0f 5c 85 48
	01 00 00	 subss	 xmm0, DWORD PTR $T73[ebp+4]
  00b13	f3 0f 11 85 18
	fd ff ff	 movss	 DWORD PTR _fy$[ebp], xmm0
  00b1b	f3 0f 10 85 40
	01 00 00	 movss	 xmm0, DWORD PTR $T72[ebp+8]
  00b23	f3 0f 5c 85 4c
	01 00 00	 subss	 xmm0, DWORD PTR $T73[ebp+8]
  00b2b	f3 0f 11 85 1c
	fd ff ff	 movss	 DWORD PTR _fz$[ebp], xmm0

; 180  :     x = fx;

  00b33	f3 0f 10 85 14
	fd ff ff	 movss	 xmm0, DWORD PTR _fx$[ebp]
  00b3b	f3 0f 11 85 50
	01 00 00	 movss	 DWORD PTR $T74[ebp], xmm0

; 181  :     y = fy;

  00b43	f3 0f 10 85 18
	fd ff ff	 movss	 xmm0, DWORD PTR _fy$[ebp]
  00b4b	f3 0f 11 85 54
	01 00 00	 movss	 DWORD PTR $T74[ebp+4], xmm0

; 182  :     z = fz;

  00b53	f3 0f 10 85 1c
	fd ff ff	 movss	 xmm0, DWORD PTR _fz$[ebp]
  00b5b	f3 0f 11 85 58
	01 00 00	 movss	 DWORD PTR $T74[ebp+8], xmm0
; File D:\Metin2 Server Files\mainline\SRC_2014\Metin2Client\GameLib\WeaponTrace.cpp

; 198  : 		c = ( 3*v3Tmp - r[base+1]*h[base] - (2*h[base])*r[base] )

  00b63	8b 45 f0	 mov	 eax, DWORD PTR _base$46[ebp]
  00b66	8b 4d f0	 mov	 ecx, DWORD PTR _base$46[ebp]
  00b69	f3 0f 10 84 85
	a0 14 00 00	 movss	 xmm0, DWORD PTR _h$[ebp+eax*4]
  00b72	f3 0f 59 84 8d
	a0 14 00 00	 mulss	 xmm0, DWORD PTR _h$[ebp+ecx*4]
  00b7b	f3 0f 10 0d 00
	00 00 00	 movss	 xmm1, DWORD PTR __real@3f800000
  00b83	f3 0f 5e c8	 divss	 xmm1, xmm0
  00b87	f3 0f 11 8d 60
	ff ff ff	 movss	 DWORD PTR _f$[ebp], xmm1
; File D:\Metin2 Server Files\mainline\SRC_2014\M2Data\include\d3dx8math.inl

; 269  :     return D3DXVECTOR3(x * f, y * f, z * f);

  00b8f	f3 0f 10 85 50
	01 00 00	 movss	 xmm0, DWORD PTR $T74[ebp]
  00b97	f3 0f 59 85 60
	ff ff ff	 mulss	 xmm0, DWORD PTR _f$[ebp]
  00b9f	f3 0f 11 85 20
	fd ff ff	 movss	 DWORD PTR _fx$[ebp], xmm0
  00ba7	f3 0f 10 85 54
	01 00 00	 movss	 xmm0, DWORD PTR $T74[ebp+4]
  00baf	f3 0f 59 85 60
	ff ff ff	 mulss	 xmm0, DWORD PTR _f$[ebp]
  00bb7	f3 0f 11 85 28
	fd ff ff	 movss	 DWORD PTR _fy$[ebp], xmm0
  00bbf	f3 0f 10 85 58
	01 00 00	 movss	 xmm0, DWORD PTR $T74[ebp+8]
  00bc7	f3 0f 59 85 60
	ff ff ff	 mulss	 xmm0, DWORD PTR _f$[ebp]
  00bcf	f3 0f 11 85 2c
	fd ff ff	 movss	 DWORD PTR _fz$[ebp], xmm0

; 180  :     x = fx;

  00bd7	f3 0f 10 85 20
	fd ff ff	 movss	 xmm0, DWORD PTR _fx$[ebp]
  00bdf	f3 0f 11 45 48	 movss	 DWORD PTR $T52[ebp], xmm0

; 181  :     y = fy;

  00be4	f3 0f 10 85 28
	fd ff ff	 movss	 xmm0, DWORD PTR _fy$[ebp]
  00bec	f3 0f 11 45 4c	 movss	 DWORD PTR $T52[ebp+4], xmm0

; 182  :     z = fz;

  00bf1	f3 0f 10 85 2c
	fd ff ff	 movss	 xmm0, DWORD PTR _fz$[ebp]
  00bf9	f3 0f 11 45 50	 movss	 DWORD PTR $T52[ebp+8], xmm0
; File D:\Metin2 Server Files\mainline\SRC_2014\Metin2Client\GameLib\WeaponTrace.cpp

; 198  : 		c = ( 3*v3Tmp - r[base+1]*h[base] - (2*h[base])*r[base] )

  00bfe	8d 75 48	 lea	 esi, DWORD PTR $T52[ebp]
  00c01	8d bd 84 00 00
	00		 lea	 edi, DWORD PTR _c$57[ebp]
  00c07	a5		 movsd
  00c08	a5		 movsd
  00c09	a5		 movsd

; 200  : 		d = ( -2*v3Tmp + (r[base+1]+r[base])*h[base])

  00c0a	6b 45 f0 0c	 imul	 eax, DWORD PTR _base$46[ebp], 12
  00c0e	8d 84 05 90 06
	00 00		 lea	 eax, DWORD PTR _r$[ebp+eax]
  00c15	89 85 58 ff ff
	ff		 mov	 DWORD PTR _v$[ebp], eax
  00c1b	8b 45 f0	 mov	 eax, DWORD PTR _base$46[ebp]
  00c1e	40		 inc	 eax
  00c1f	6b c0 0c	 imul	 eax, eax, 12
  00c22	8d 84 05 90 06
	00 00		 lea	 eax, DWORD PTR _r$[ebp+eax]
  00c29	89 85 5c ff ff
	ff		 mov	 DWORD PTR _this$[ebp], eax
; File D:\Metin2 Server Files\mainline\SRC_2014\M2Data\include\d3dx8math.inl

; 257  :     return D3DXVECTOR3(x + v.x, y + v.y, z + v.z);

  00c2f	8b 85 5c ff ff
	ff		 mov	 eax, DWORD PTR _this$[ebp]
  00c35	8b 8d 58 ff ff
	ff		 mov	 ecx, DWORD PTR _v$[ebp]
  00c3b	f3 0f 10 00	 movss	 xmm0, DWORD PTR [eax]
  00c3f	f3 0f 58 01	 addss	 xmm0, DWORD PTR [ecx]
  00c43	f3 0f 11 85 30
	fd ff ff	 movss	 DWORD PTR _fx$[ebp], xmm0
  00c4b	8b 85 5c ff ff
	ff		 mov	 eax, DWORD PTR _this$[ebp]
  00c51	8b 8d 58 ff ff
	ff		 mov	 ecx, DWORD PTR _v$[ebp]
  00c57	f3 0f 10 40 04	 movss	 xmm0, DWORD PTR [eax+4]
  00c5c	f3 0f 58 41 04	 addss	 xmm0, DWORD PTR [ecx+4]
  00c61	f3 0f 11 85 34
	fd ff ff	 movss	 DWORD PTR _fy$[ebp], xmm0
  00c69	8b 85 5c ff ff
	ff		 mov	 eax, DWORD PTR _this$[ebp]
  00c6f	8b 8d 58 ff ff
	ff		 mov	 ecx, DWORD PTR _v$[ebp]
  00c75	f3 0f 10 40 08	 movss	 xmm0, DWORD PTR [eax+8]
  00c7a	f3 0f 58 41 08	 addss	 xmm0, DWORD PTR [ecx+8]
  00c7f	f3 0f 11 85 38
	fd ff ff	 movss	 DWORD PTR _fz$[ebp], xmm0

; 180  :     x = fx;

  00c87	f3 0f 10 85 30
	fd ff ff	 movss	 xmm0, DWORD PTR _fx$[ebp]
  00c8f	f3 0f 11 85 68
	01 00 00	 movss	 DWORD PTR $T76[ebp], xmm0

; 181  :     y = fy;

  00c97	f3 0f 10 85 34
	fd ff ff	 movss	 xmm0, DWORD PTR _fy$[ebp]
  00c9f	f3 0f 11 85 6c
	01 00 00	 movss	 DWORD PTR $T76[ebp+4], xmm0

; 182  :     z = fz;

  00ca7	f3 0f 10 85 38
	fd ff ff	 movss	 xmm0, DWORD PTR _fz$[ebp]
  00caf	f3 0f 11 85 70
	01 00 00	 movss	 DWORD PTR $T76[ebp+8], xmm0
; File D:\Metin2 Server Files\mainline\SRC_2014\Metin2Client\GameLib\WeaponTrace.cpp

; 200  : 		d = ( -2*v3Tmp + (r[base+1]+r[base])*h[base])

  00cb7	8b 45 f0	 mov	 eax, DWORD PTR _base$46[ebp]
  00cba	f3 0f 10 84 85
	a0 14 00 00	 movss	 xmm0, DWORD PTR _h$[ebp+eax*4]
  00cc3	f3 0f 11 85 54
	ff ff ff	 movss	 DWORD PTR _f$[ebp], xmm0
; File D:\Metin2 Server Files\mainline\SRC_2014\M2Data\include\d3dx8math.inl

; 269  :     return D3DXVECTOR3(x * f, y * f, z * f);

  00ccb	f3 0f 10 85 68
	01 00 00	 movss	 xmm0, DWORD PTR $T76[ebp]
  00cd3	f3 0f 59 85 54
	ff ff ff	 mulss	 xmm0, DWORD PTR _f$[ebp]
  00cdb	f3 0f 11 85 3c
	fd ff ff	 movss	 DWORD PTR _fx$[ebp], xmm0
  00ce3	f3 0f 10 85 6c
	01 00 00	 movss	 xmm0, DWORD PTR $T76[ebp+4]
  00ceb	f3 0f 59 85 54
	ff ff ff	 mulss	 xmm0, DWORD PTR _f$[ebp]
  00cf3	f3 0f 11 85 40
	fd ff ff	 movss	 DWORD PTR _fy$[ebp], xmm0
  00cfb	f3 0f 10 85 70
	01 00 00	 movss	 xmm0, DWORD PTR $T76[ebp+8]
  00d03	f3 0f 59 85 54
	ff ff ff	 mulss	 xmm0, DWORD PTR _f$[ebp]
  00d0b	f3 0f 11 85 44
	fd ff ff	 movss	 DWORD PTR _fz$[ebp], xmm0

; 180  :     x = fx;

  00d13	f3 0f 10 85 3c
	fd ff ff	 movss	 xmm0, DWORD PTR _fx$[ebp]
  00d1b	f3 0f 11 85 80
	01 00 00	 movss	 DWORD PTR $T78[ebp], xmm0

; 181  :     y = fy;

  00d23	f3 0f 10 85 40
	fd ff ff	 movss	 xmm0, DWORD PTR _fy$[ebp]
  00d2b	f3 0f 11 85 84
	01 00 00	 movss	 DWORD PTR $T78[ebp+4], xmm0

; 182  :     z = fz;

  00d33	f3 0f 10 85 44
	fd ff ff	 movss	 xmm0, DWORD PTR _fz$[ebp]
  00d3b	f3 0f 11 85 88
	01 00 00	 movss	 DWORD PTR $T78[ebp+8], xmm0

; 283  :     return D3DXVECTOR3(f * v.x, f * v.y, f * v.z);

  00d43	f3 0f 10 05 00
	00 00 00	 movss	 xmm0, DWORD PTR __real@c0000000
  00d4b	f3 0f 59 85 d4
	01 00 00	 mulss	 xmm0, DWORD PTR _v3Tmp$85[ebp]
  00d53	f3 0f 11 85 48
	fd ff ff	 movss	 DWORD PTR _fx$[ebp], xmm0
  00d5b	f3 0f 10 05 00
	00 00 00	 movss	 xmm0, DWORD PTR __real@c0000000
  00d63	f3 0f 59 85 d8
	01 00 00	 mulss	 xmm0, DWORD PTR _v3Tmp$85[ebp+4]
  00d6b	f3 0f 11 85 4c
	fd ff ff	 movss	 DWORD PTR _fy$[ebp], xmm0
  00d73	f3 0f 10 05 00
	00 00 00	 movss	 xmm0, DWORD PTR __real@c0000000
  00d7b	f3 0f 59 85 dc
	01 00 00	 mulss	 xmm0, DWORD PTR _v3Tmp$85[ebp+8]
  00d83	f3 0f 11 85 50
	fd ff ff	 movss	 DWORD PTR _fz$[ebp], xmm0

; 180  :     x = fx;

  00d8b	f3 0f 10 85 48
	fd ff ff	 movss	 xmm0, DWORD PTR _fx$[ebp]
  00d93	f3 0f 11 85 74
	01 00 00	 movss	 DWORD PTR $T77[ebp], xmm0

; 181  :     y = fy;

  00d9b	f3 0f 10 85 4c
	fd ff ff	 movss	 xmm0, DWORD PTR _fy$[ebp]
  00da3	f3 0f 11 85 78
	01 00 00	 movss	 DWORD PTR $T77[ebp+4], xmm0

; 182  :     z = fz;

  00dab	f3 0f 10 85 50
	fd ff ff	 movss	 xmm0, DWORD PTR _fz$[ebp]
  00db3	f3 0f 11 85 7c
	01 00 00	 movss	 DWORD PTR $T77[ebp+8], xmm0

; 257  :     return D3DXVECTOR3(x + v.x, y + v.y, z + v.z);

  00dbb	f3 0f 10 85 74
	01 00 00	 movss	 xmm0, DWORD PTR $T77[ebp]
  00dc3	f3 0f 58 85 80
	01 00 00	 addss	 xmm0, DWORD PTR $T78[ebp]
  00dcb	f3 0f 11 85 54
	fd ff ff	 movss	 DWORD PTR _fx$[ebp], xmm0
  00dd3	f3 0f 10 85 78
	01 00 00	 movss	 xmm0, DWORD PTR $T77[ebp+4]
  00ddb	f3 0f 58 85 84
	01 00 00	 addss	 xmm0, DWORD PTR $T78[ebp+4]
  00de3	f3 0f 11 85 58
	fd ff ff	 movss	 DWORD PTR _fy$[ebp], xmm0
  00deb	f3 0f 10 85 7c
	01 00 00	 movss	 xmm0, DWORD PTR $T77[ebp+8]
  00df3	f3 0f 58 85 88
	01 00 00	 addss	 xmm0, DWORD PTR $T78[ebp+8]
  00dfb	f3 0f 11 85 84
	fd ff ff	 movss	 DWORD PTR _fz$[ebp], xmm0

; 180  :     x = fx;

  00e03	f3 0f 10 85 54
	fd ff ff	 movss	 xmm0, DWORD PTR _fx$[ebp]
  00e0b	f3 0f 11 85 8c
	01 00 00	 movss	 DWORD PTR $T79[ebp], xmm0

; 181  :     y = fy;

  00e13	f3 0f 10 85 58
	fd ff ff	 movss	 xmm0, DWORD PTR _fy$[ebp]
  00e1b	f3 0f 11 85 90
	01 00 00	 movss	 DWORD PTR $T79[ebp+4], xmm0

; 182  :     z = fz;

  00e23	f3 0f 10 85 84
	fd ff ff	 movss	 xmm0, DWORD PTR _fz$[ebp]
  00e2b	f3 0f 11 85 94
	01 00 00	 movss	 DWORD PTR $T79[ebp+8], xmm0
; File D:\Metin2 Server Files\mainline\SRC_2014\Metin2Client\GameLib\WeaponTrace.cpp

; 200  : 		d = ( -2*v3Tmp + (r[base+1]+r[base])*h[base])

  00e33	8b 45 f0	 mov	 eax, DWORD PTR _base$46[ebp]
  00e36	8b 4d f0	 mov	 ecx, DWORD PTR _base$46[ebp]
  00e39	f3 0f 10 84 85
	a0 14 00 00	 movss	 xmm0, DWORD PTR _h$[ebp+eax*4]
  00e42	f3 0f 59 84 8d
	a0 14 00 00	 mulss	 xmm0, DWORD PTR _h$[ebp+ecx*4]
  00e4b	8b 45 f0	 mov	 eax, DWORD PTR _base$46[ebp]
  00e4e	f3 0f 59 84 85
	a0 14 00 00	 mulss	 xmm0, DWORD PTR _h$[ebp+eax*4]
  00e57	f3 0f 10 0d 00
	00 00 00	 movss	 xmm1, DWORD PTR __real@3f800000
  00e5f	f3 0f 5e c8	 divss	 xmm1, xmm0
  00e63	f3 0f 11 8d 50
	ff ff ff	 movss	 DWORD PTR _f$[ebp], xmm1
; File D:\Metin2 Server Files\mainline\SRC_2014\M2Data\include\d3dx8math.inl

; 269  :     return D3DXVECTOR3(x * f, y * f, z * f);

  00e6b	f3 0f 10 85 8c
	01 00 00	 movss	 xmm0, DWORD PTR $T79[ebp]
  00e73	f3 0f 59 85 50
	ff ff ff	 mulss	 xmm0, DWORD PTR _f$[ebp]
  00e7b	f3 0f 11 85 24
	fd ff ff	 movss	 DWORD PTR _fx$[ebp], xmm0
  00e83	f3 0f 10 85 90
	01 00 00	 movss	 xmm0, DWORD PTR $T79[ebp+4]
  00e8b	f3 0f 59 85 50
	ff ff ff	 mulss	 xmm0, DWORD PTR _f$[ebp]
  00e93	f3 0f 11 85 c0
	fc ff ff	 movss	 DWORD PTR _fy$[ebp], xmm0
  00e9b	f3 0f 10 85 94
	01 00 00	 movss	 xmm0, DWORD PTR $T79[ebp+8]
  00ea3	f3 0f 59 85 50
	ff ff ff	 mulss	 xmm0, DWORD PTR _f$[ebp]
  00eab	f3 0f 11 85 84
	fe ff ff	 movss	 DWORD PTR _fz$[ebp], xmm0

; 180  :     x = fx;

  00eb3	f3 0f 10 85 24
	fd ff ff	 movss	 xmm0, DWORD PTR _fx$[ebp]
  00ebb	f3 0f 11 45 3c	 movss	 DWORD PTR $T51[ebp], xmm0

; 181  :     y = fy;

  00ec0	f3 0f 10 85 c0
	fc ff ff	 movss	 xmm0, DWORD PTR _fy$[ebp]
  00ec8	f3 0f 11 45 40	 movss	 DWORD PTR $T51[ebp+4], xmm0

; 182  :     z = fz;

  00ecd	f3 0f 10 85 84
	fe ff ff	 movss	 xmm0, DWORD PTR _fz$[ebp]
  00ed5	f3 0f 11 45 44	 movss	 DWORD PTR $T51[ebp+8], xmm0
; File D:\Metin2 Server Files\mainline\SRC_2014\Metin2Client\GameLib\WeaponTrace.cpp

; 200  : 		d = ( -2*v3Tmp + (r[base+1]+r[base])*h[base])

  00eda	8d 75 3c	 lea	 esi, DWORD PTR $T51[ebp]
  00edd	8d bd 90 00 00
	00		 lea	 edi, DWORD PTR _d$58[ebp]
  00ee3	a5		 movsd
  00ee4	a5		 movsd
  00ee5	a5		 movsd

; 201  : 			* (1/(h[base]*h[base]*h[base]));
; 202  : 
; 203  : 		for(float t = 0; t<=length; t+=dt)

  00ee6	0f 57 c0	 xorps	 xmm0, xmm0
  00ee9	f3 0f 11 45 dc	 movss	 DWORD PTR _t$42[ebp], xmm0
  00eee	eb 12		 jmp	 SHORT $LN19@BuildVerte
$LN17@BuildVerte:
  00ef0	f3 0f 10 45 dc	 movss	 xmm0, DWORD PTR _t$42[ebp]
  00ef5	f3 0f 58 85 80
	fe ff ff	 addss	 xmm0, DWORD PTR _dt$21[ebp]
  00efd	f3 0f 11 45 dc	 movss	 DWORD PTR _t$42[ebp], xmm0
$LN19@BuildVerte:
  00f02	f3 0f 10 85 7c
	fe ff ff	 movss	 xmm0, DWORD PTR _length$[ebp]
  00f0a	0f 2f 45 dc	 comiss	 xmm0, DWORD PTR _t$42[ebp]
  00f0e	0f 82 de 0e 00
	00		 jb	 $LN18@BuildVerte
$LN20@BuildVerte:

; 204  : 		{
; 205  : 			while (t>timenext)

  00f14	f3 0f 10 45 dc	 movss	 xmm0, DWORD PTR _t$42[ebp]
  00f19	0f 2f 45 9c	 comiss	 xmm0, DWORD PTR _timenext$35[ebp]
  00f1d	0f 86 55 07 00
	00		 jbe	 $LN21@BuildVerte

; 206  : 			{
; 207  : 				timebase = timenext;

  00f23	f3 0f 10 45 9c	 movss	 xmm0, DWORD PTR _timenext$35[ebp]
  00f28	f3 0f 11 85 fc
	fe ff ff	 movss	 DWORD PTR _timebase$33[ebp], xmm0

; 208  : 				base++;

  00f30	8b 45 f0	 mov	 eax, DWORD PTR _base$46[ebp]
  00f33	40		 inc	 eax
  00f34	89 45 f0	 mov	 DWORD PTR _base$46[ebp], eax

; 209  : 				if (base>=n) break;

  00f37	8b 45 f0	 mov	 eax, DWORD PTR _base$46[ebp]
  00f3a	3b 45 d8	 cmp	 eax, DWORD PTR _n$[ebp]
  00f3d	7c 05		 jl	 SHORT $LN26@BuildVerte
  00f3f	e9 34 07 00 00	 jmp	 $LN21@BuildVerte
$LN26@BuildVerte:

; 210  : 				D3DXVECTOR3 v3Tmp = Input[base+1].second-Input[base].second;

  00f44	ff 75 f0	 push	 DWORD PTR _base$46[ebp]
  00f47	8b 4d e4	 mov	 ecx, DWORD PTR _Input$44[ebp]
  00f4a	e8 00 00 00 00	 call	 ??A?$deque@U?$pair@MUD3DXVECTOR3@@@std@@V?$allocator@U?$pair@MUD3DXVECTOR3@@@std@@@2@@std@@QAEAAU?$pair@MUD3DXVECTOR3@@@1@I@Z ; std::deque<std::pair<float,D3DXVECTOR3>,std::allocator<std::pair<float,D3DXVECTOR3> > >::operator[]
  00f4f	83 c0 04	 add	 eax, 4
  00f52	89 85 48 ff ff
	ff		 mov	 DWORD PTR _v$[ebp], eax
  00f58	8b 45 f0	 mov	 eax, DWORD PTR _base$46[ebp]
  00f5b	40		 inc	 eax
  00f5c	50		 push	 eax
  00f5d	8b 4d e4	 mov	 ecx, DWORD PTR _Input$44[ebp]
  00f60	e8 00 00 00 00	 call	 ??A?$deque@U?$pair@MUD3DXVECTOR3@@@std@@V?$allocator@U?$pair@MUD3DXVECTOR3@@@std@@@2@@std@@QAEAAU?$pair@MUD3DXVECTOR3@@@1@I@Z ; std::deque<std::pair<float,D3DXVECTOR3>,std::allocator<std::pair<float,D3DXVECTOR3> > >::operator[]
  00f65	83 c0 04	 add	 eax, 4
  00f68	89 85 4c ff ff
	ff		 mov	 DWORD PTR _this$[ebp], eax
; File D:\Metin2 Server Files\mainline\SRC_2014\M2Data\include\d3dx8math.inl

; 263  :     return D3DXVECTOR3(x - v.x, y - v.y, z - v.z);

  00f6e	8b 85 4c ff ff
	ff		 mov	 eax, DWORD PTR _this$[ebp]
  00f74	8b 8d 48 ff ff
	ff		 mov	 ecx, DWORD PTR _v$[ebp]
  00f7a	f3 0f 10 00	 movss	 xmm0, DWORD PTR [eax]
  00f7e	f3 0f 5c 01	 subss	 xmm0, DWORD PTR [ecx]
  00f82	f3 0f 11 85 78
	fe ff ff	 movss	 DWORD PTR _fx$[ebp], xmm0
  00f8a	8b 85 4c ff ff
	ff		 mov	 eax, DWORD PTR _this$[ebp]
  00f90	8b 8d 48 ff ff
	ff		 mov	 ecx, DWORD PTR _v$[ebp]
  00f96	f3 0f 10 40 04	 movss	 xmm0, DWORD PTR [eax+4]
  00f9b	f3 0f 5c 41 04	 subss	 xmm0, DWORD PTR [ecx+4]
  00fa0	f3 0f 11 85 74
	fe ff ff	 movss	 DWORD PTR _fy$[ebp], xmm0
  00fa8	8b 85 4c ff ff
	ff		 mov	 eax, DWORD PTR _this$[ebp]
  00fae	8b 8d 48 ff ff
	ff		 mov	 ecx, DWORD PTR _v$[ebp]
  00fb4	f3 0f 10 40 08	 movss	 xmm0, DWORD PTR [eax+8]
  00fb9	f3 0f 5c 41 08	 subss	 xmm0, DWORD PTR [ecx+8]
  00fbe	f3 0f 11 85 70
	fe ff ff	 movss	 DWORD PTR _fz$[ebp], xmm0

; 180  :     x = fx;

  00fc6	f3 0f 10 85 78
	fe ff ff	 movss	 xmm0, DWORD PTR _fx$[ebp]
  00fce	f3 0f 11 85 c8
	01 00 00	 movss	 DWORD PTR _v3Tmp$84[ebp], xmm0

; 181  :     y = fy;

  00fd6	f3 0f 10 85 74
	fe ff ff	 movss	 xmm0, DWORD PTR _fy$[ebp]
  00fde	f3 0f 11 85 cc
	01 00 00	 movss	 DWORD PTR _v3Tmp$84[ebp+4], xmm0

; 182  :     z = fz;

  00fe6	f3 0f 10 85 70
	fe ff ff	 movss	 xmm0, DWORD PTR _fz$[ebp]
  00fee	f3 0f 11 85 d0
	01 00 00	 movss	 DWORD PTR _v3Tmp$84[ebp+8], xmm0
; File D:\Metin2 Server Files\mainline\SRC_2014\Metin2Client\GameLib\WeaponTrace.cpp

; 211  : 				a = Input[base].second;

  00ff6	ff 75 f0	 push	 DWORD PTR _base$46[ebp]
  00ff9	8b 4d e4	 mov	 ecx, DWORD PTR _Input$44[ebp]
  00ffc	e8 00 00 00 00	 call	 ??A?$deque@U?$pair@MUD3DXVECTOR3@@@std@@V?$allocator@U?$pair@MUD3DXVECTOR3@@@std@@@2@@std@@QAEAAU?$pair@MUD3DXVECTOR3@@@1@I@Z ; std::deque<std::pair<float,D3DXVECTOR3>,std::allocator<std::pair<float,D3DXVECTOR3> > >::operator[]
  01001	83 c0 04	 add	 eax, 4
  01004	8b f0		 mov	 esi, eax
  01006	8d 7d 6c	 lea	 edi, DWORD PTR _a$55[ebp]
  01009	a5		 movsd
  0100a	a5		 movsd
  0100b	a5		 movsd

; 212  : 				b = r[base];

  0100c	6b 45 f0 0c	 imul	 eax, DWORD PTR _base$46[ebp], 12
  01010	8d b4 05 90 06
	00 00		 lea	 esi, DWORD PTR _r$[ebp+eax]
  01017	8d 7d 78	 lea	 edi, DWORD PTR _b$56[ebp]
  0101a	a5		 movsd
  0101b	a5		 movsd
  0101c	a5		 movsd

; 213  : 				c = ( 3*v3Tmp - r[base+1]*h[base] - (2*h[base])*r[base] )

  0101d	6b 45 f0 0c	 imul	 eax, DWORD PTR _base$46[ebp], 12
  01021	8d 84 05 90 06
	00 00		 lea	 eax, DWORD PTR _r$[ebp+eax]
  01028	89 85 44 ff ff
	ff		 mov	 DWORD PTR _v$[ebp], eax
  0102e	8b 45 f0	 mov	 eax, DWORD PTR _base$46[ebp]
  01031	f3 0f 10 05 00
	00 00 00	 movss	 xmm0, DWORD PTR __real@40000000
  01039	f3 0f 59 84 85
	a0 14 00 00	 mulss	 xmm0, DWORD PTR _h$[ebp+eax*4]
  01042	f3 0f 11 85 40
	ff ff ff	 movss	 DWORD PTR _f$[ebp], xmm0
; File D:\Metin2 Server Files\mainline\SRC_2014\M2Data\include\d3dx8math.inl

; 283  :     return D3DXVECTOR3(f * v.x, f * v.y, f * v.z);

  0104a	8b 85 44 ff ff
	ff		 mov	 eax, DWORD PTR _v$[ebp]
  01050	f3 0f 10 85 40
	ff ff ff	 movss	 xmm0, DWORD PTR _f$[ebp]
  01058	f3 0f 59 00	 mulss	 xmm0, DWORD PTR [eax]
  0105c	f3 0f 11 85 6c
	fe ff ff	 movss	 DWORD PTR _fx$[ebp], xmm0
  01064	8b 85 44 ff ff
	ff		 mov	 eax, DWORD PTR _v$[ebp]
  0106a	f3 0f 10 85 40
	ff ff ff	 movss	 xmm0, DWORD PTR _f$[ebp]
  01072	f3 0f 59 40 04	 mulss	 xmm0, DWORD PTR [eax+4]
  01077	f3 0f 11 85 68
	fe ff ff	 movss	 DWORD PTR _fy$[ebp], xmm0
  0107f	8b 85 44 ff ff
	ff		 mov	 eax, DWORD PTR _v$[ebp]
  01085	f3 0f 10 85 40
	ff ff ff	 movss	 xmm0, DWORD PTR _f$[ebp]
  0108d	f3 0f 59 40 08	 mulss	 xmm0, DWORD PTR [eax+8]
  01092	f3 0f 11 85 64
	fe ff ff	 movss	 DWORD PTR _fz$[ebp], xmm0

; 180  :     x = fx;

  0109a	f3 0f 10 85 6c
	fe ff ff	 movss	 xmm0, DWORD PTR _fx$[ebp]
  010a2	f3 0f 11 85 bc
	01 00 00	 movss	 DWORD PTR $T83[ebp], xmm0

; 181  :     y = fy;

  010aa	f3 0f 10 85 68
	fe ff ff	 movss	 xmm0, DWORD PTR _fy$[ebp]
  010b2	f3 0f 11 85 c0
	01 00 00	 movss	 DWORD PTR $T83[ebp+4], xmm0

; 182  :     z = fz;

  010ba	f3 0f 10 85 64
	fe ff ff	 movss	 xmm0, DWORD PTR _fz$[ebp]
  010c2	f3 0f 11 85 c4
	01 00 00	 movss	 DWORD PTR $T83[ebp+8], xmm0
; File D:\Metin2 Server Files\mainline\SRC_2014\Metin2Client\GameLib\WeaponTrace.cpp

; 213  : 				c = ( 3*v3Tmp - r[base+1]*h[base] - (2*h[base])*r[base] )

  010ca	8b 45 f0	 mov	 eax, DWORD PTR _base$46[ebp]
  010cd	f3 0f 10 84 85
	a0 14 00 00	 movss	 xmm0, DWORD PTR _h$[ebp+eax*4]
  010d6	f3 0f 11 85 38
	ff ff ff	 movss	 DWORD PTR _f$[ebp], xmm0
  010de	8b 45 f0	 mov	 eax, DWORD PTR _base$46[ebp]
  010e1	40		 inc	 eax
  010e2	6b c0 0c	 imul	 eax, eax, 12
  010e5	8d 84 05 90 06
	00 00		 lea	 eax, DWORD PTR _r$[ebp+eax]
  010ec	89 85 3c ff ff
	ff		 mov	 DWORD PTR _this$[ebp], eax
; File D:\Metin2 Server Files\mainline\SRC_2014\M2Data\include\d3dx8math.inl

; 269  :     return D3DXVECTOR3(x * f, y * f, z * f);

  010f2	8b 85 3c ff ff
	ff		 mov	 eax, DWORD PTR _this$[ebp]
  010f8	f3 0f 10 00	 movss	 xmm0, DWORD PTR [eax]
  010fc	f3 0f 59 85 38
	ff ff ff	 mulss	 xmm0, DWORD PTR _f$[ebp]
  01104	f3 0f 11 85 60
	fe ff ff	 movss	 DWORD PTR _fx$[ebp], xmm0
  0110c	8b 85 3c ff ff
	ff		 mov	 eax, DWORD PTR _this$[ebp]
  01112	f3 0f 10 40 04	 movss	 xmm0, DWORD PTR [eax+4]
  01117	f3 0f 59 85 38
	ff ff ff	 mulss	 xmm0, DWORD PTR _f$[ebp]
  0111f	f3 0f 11 85 5c
	fe ff ff	 movss	 DWORD PTR _fy$[ebp], xmm0
  01127	8b 85 3c ff ff
	ff		 mov	 eax, DWORD PTR _this$[ebp]
  0112d	f3 0f 10 40 08	 movss	 xmm0, DWORD PTR [eax+8]
  01132	f3 0f 59 85 38
	ff ff ff	 mulss	 xmm0, DWORD PTR _f$[ebp]
  0113a	f3 0f 11 85 58
	fe ff ff	 movss	 DWORD PTR _fz$[ebp], xmm0

; 180  :     x = fx;

  01142	f3 0f 10 85 60
	fe ff ff	 movss	 xmm0, DWORD PTR _fx$[ebp]
  0114a	f3 0f 11 85 5c
	01 00 00	 movss	 DWORD PTR $T75[ebp], xmm0

; 181  :     y = fy;

  01152	f3 0f 10 85 5c
	fe ff ff	 movss	 xmm0, DWORD PTR _fy$[ebp]
  0115a	f3 0f 11 85 60
	01 00 00	 movss	 DWORD PTR $T75[ebp+4], xmm0

; 182  :     z = fz;

  01162	f3 0f 10 85 58
	fe ff ff	 movss	 xmm0, DWORD PTR _fz$[ebp]
  0116a	f3 0f 11 85 64
	01 00 00	 movss	 DWORD PTR $T75[ebp+8], xmm0

; 283  :     return D3DXVECTOR3(f * v.x, f * v.y, f * v.z);

  01172	f3 0f 10 05 00
	00 00 00	 movss	 xmm0, DWORD PTR __real@40400000
  0117a	f3 0f 59 85 c8
	01 00 00	 mulss	 xmm0, DWORD PTR _v3Tmp$84[ebp]
  01182	f3 0f 11 85 54
	fe ff ff	 movss	 DWORD PTR _fx$[ebp], xmm0
  0118a	f3 0f 10 05 00
	00 00 00	 movss	 xmm0, DWORD PTR __real@40400000
  01192	f3 0f 59 85 cc
	01 00 00	 mulss	 xmm0, DWORD PTR _v3Tmp$84[ebp+4]
  0119a	f3 0f 11 85 50
	fe ff ff	 movss	 DWORD PTR _fy$[ebp], xmm0
  011a2	f3 0f 10 05 00
	00 00 00	 movss	 xmm0, DWORD PTR __real@40400000
  011aa	f3 0f 59 85 d0
	01 00 00	 mulss	 xmm0, DWORD PTR _v3Tmp$84[ebp+8]
  011b2	f3 0f 11 85 4c
	fe ff ff	 movss	 DWORD PTR _fz$[ebp], xmm0

; 180  :     x = fx;

  011ba	f3 0f 10 85 54
	fe ff ff	 movss	 xmm0, DWORD PTR _fx$[ebp]
  011c2	f3 0f 11 85 a4
	01 00 00	 movss	 DWORD PTR $T81[ebp], xmm0

; 181  :     y = fy;

  011ca	f3 0f 10 85 50
	fe ff ff	 movss	 xmm0, DWORD PTR _fy$[ebp]
  011d2	f3 0f 11 85 a8
	01 00 00	 movss	 DWORD PTR $T81[ebp+4], xmm0

; 182  :     z = fz;

  011da	f3 0f 10 85 4c
	fe ff ff	 movss	 xmm0, DWORD PTR _fz$[ebp]
  011e2	f3 0f 11 85 ac
	01 00 00	 movss	 DWORD PTR $T81[ebp+8], xmm0

; 263  :     return D3DXVECTOR3(x - v.x, y - v.y, z - v.z);

  011ea	f3 0f 10 85 a4
	01 00 00	 movss	 xmm0, DWORD PTR $T81[ebp]
  011f2	f3 0f 5c 85 5c
	01 00 00	 subss	 xmm0, DWORD PTR $T75[ebp]
  011fa	f3 0f 11 85 48
	fe ff ff	 movss	 DWORD PTR _fx$[ebp], xmm0
  01202	f3 0f 10 85 a8
	01 00 00	 movss	 xmm0, DWORD PTR $T81[ebp+4]
  0120a	f3 0f 5c 85 60
	01 00 00	 subss	 xmm0, DWORD PTR $T75[ebp+4]
  01212	f3 0f 11 85 44
	fe ff ff	 movss	 DWORD PTR _fy$[ebp], xmm0
  0121a	f3 0f 10 85 ac
	01 00 00	 movss	 xmm0, DWORD PTR $T81[ebp+8]
  01222	f3 0f 5c 85 64
	01 00 00	 subss	 xmm0, DWORD PTR $T75[ebp+8]
  0122a	f3 0f 11 85 40
	fe ff ff	 movss	 DWORD PTR _fz$[ebp], xmm0

; 180  :     x = fx;

  01232	f3 0f 10 85 48
	fe ff ff	 movss	 xmm0, DWORD PTR _fx$[ebp]
  0123a	f3 0f 11 85 b0
	01 00 00	 movss	 DWORD PTR $T82[ebp], xmm0

; 181  :     y = fy;

  01242	f3 0f 10 85 44
	fe ff ff	 movss	 xmm0, DWORD PTR _fy$[ebp]
  0124a	f3 0f 11 85 b4
	01 00 00	 movss	 DWORD PTR $T82[ebp+4], xmm0

; 182  :     z = fz;

  01252	f3 0f 10 85 40
	fe ff ff	 movss	 xmm0, DWORD PTR _fz$[ebp]
  0125a	f3 0f 11 85 b8
	01 00 00	 movss	 DWORD PTR $T82[ebp+8], xmm0

; 263  :     return D3DXVECTOR3(x - v.x, y - v.y, z - v.z);

  01262	f3 0f 10 85 b0
	01 00 00	 movss	 xmm0, DWORD PTR $T82[ebp]
  0126a	f3 0f 5c 85 bc
	01 00 00	 subss	 xmm0, DWORD PTR $T83[ebp]
  01272	f3 0f 11 85 3c
	fe ff ff	 movss	 DWORD PTR _fx$[ebp], xmm0
  0127a	f3 0f 10 85 b4
	01 00 00	 movss	 xmm0, DWORD PTR $T82[ebp+4]
  01282	f3 0f 5c 85 c0
	01 00 00	 subss	 xmm0, DWORD PTR $T83[ebp+4]
  0128a	f3 0f 11 85 38
	fe ff ff	 movss	 DWORD PTR _fy$[ebp], xmm0
  01292	f3 0f 10 85 b8
	01 00 00	 movss	 xmm0, DWORD PTR $T82[ebp+8]
  0129a	f3 0f 5c 85 c4
	01 00 00	 subss	 xmm0, DWORD PTR $T83[ebp+8]
  012a2	f3 0f 11 85 34
	fe ff ff	 movss	 DWORD PTR _fz$[ebp], xmm0

; 180  :     x = fx;

  012aa	f3 0f 10 85 3c
	fe ff ff	 movss	 xmm0, DWORD PTR _fx$[ebp]
  012b2	f3 0f 11 85 9c
	00 00 00	 movss	 DWORD PTR $T59[ebp], xmm0

; 181  :     y = fy;

  012ba	f3 0f 10 85 38
	fe ff ff	 movss	 xmm0, DWORD PTR _fy$[ebp]
  012c2	f3 0f 11 85 a0
	00 00 00	 movss	 DWORD PTR $T59[ebp+4], xmm0

; 182  :     z = fz;

  012ca	f3 0f 10 85 34
	fe ff ff	 movss	 xmm0, DWORD PTR _fz$[ebp]
  012d2	f3 0f 11 85 a4
	00 00 00	 movss	 DWORD PTR $T59[ebp+8], xmm0
; File D:\Metin2 Server Files\mainline\SRC_2014\Metin2Client\GameLib\WeaponTrace.cpp

; 213  : 				c = ( 3*v3Tmp - r[base+1]*h[base] - (2*h[base])*r[base] )

  012da	8b 45 f0	 mov	 eax, DWORD PTR _base$46[ebp]
  012dd	8b 4d f0	 mov	 ecx, DWORD PTR _base$46[ebp]
  012e0	f3 0f 10 84 85
	a0 14 00 00	 movss	 xmm0, DWORD PTR _h$[ebp+eax*4]
  012e9	f3 0f 59 84 8d
	a0 14 00 00	 mulss	 xmm0, DWORD PTR _h$[ebp+ecx*4]
  012f2	f3 0f 10 0d 00
	00 00 00	 movss	 xmm1, DWORD PTR __real@3f800000
  012fa	f3 0f 5e c8	 divss	 xmm1, xmm0
  012fe	f3 0f 11 8d 34
	ff ff ff	 movss	 DWORD PTR _f$[ebp], xmm1
; File D:\Metin2 Server Files\mainline\SRC_2014\M2Data\include\d3dx8math.inl

; 269  :     return D3DXVECTOR3(x * f, y * f, z * f);

  01306	f3 0f 10 85 9c
	00 00 00	 movss	 xmm0, DWORD PTR $T59[ebp]
  0130e	f3 0f 59 85 34
	ff ff ff	 mulss	 xmm0, DWORD PTR _f$[ebp]
  01316	f3 0f 11 85 30
	fe ff ff	 movss	 DWORD PTR _fx$[ebp], xmm0
  0131e	f3 0f 10 85 a0
	00 00 00	 movss	 xmm0, DWORD PTR $T59[ebp+4]
  01326	f3 0f 59 85 34
	ff ff ff	 mulss	 xmm0, DWORD PTR _f$[ebp]
  0132e	f3 0f 11 85 2c
	fe ff ff	 movss	 DWORD PTR _fy$[ebp], xmm0
  01336	f3 0f 10 85 a4
	00 00 00	 movss	 xmm0, DWORD PTR $T59[ebp+8]
  0133e	f3 0f 59 85 34
	ff ff ff	 mulss	 xmm0, DWORD PTR _f$[ebp]
  01346	f3 0f 11 85 28
	fe ff ff	 movss	 DWORD PTR _fz$[ebp], xmm0

; 180  :     x = fx;

  0134e	f3 0f 10 85 30
	fe ff ff	 movss	 xmm0, DWORD PTR _fx$[ebp]
  01356	f3 0f 11 45 30	 movss	 DWORD PTR $T50[ebp], xmm0

; 181  :     y = fy;

  0135b	f3 0f 10 85 2c
	fe ff ff	 movss	 xmm0, DWORD PTR _fy$[ebp]
  01363	f3 0f 11 45 34	 movss	 DWORD PTR $T50[ebp+4], xmm0

; 182  :     z = fz;

  01368	f3 0f 10 85 28
	fe ff ff	 movss	 xmm0, DWORD PTR _fz$[ebp]
  01370	f3 0f 11 45 38	 movss	 DWORD PTR $T50[ebp+8], xmm0
; File D:\Metin2 Server Files\mainline\SRC_2014\Metin2Client\GameLib\WeaponTrace.cpp

; 213  : 				c = ( 3*v3Tmp - r[base+1]*h[base] - (2*h[base])*r[base] )

  01375	8d 75 30	 lea	 esi, DWORD PTR $T50[ebp]
  01378	8d bd 84 00 00
	00		 lea	 edi, DWORD PTR _c$57[ebp]
  0137e	a5		 movsd
  0137f	a5		 movsd
  01380	a5		 movsd

; 215  : 				d = ( -2*v3Tmp + (r[base+1]+r[base])*h[base])

  01381	6b 45 f0 0c	 imul	 eax, DWORD PTR _base$46[ebp], 12
  01385	8d 84 05 90 06
	00 00		 lea	 eax, DWORD PTR _r$[ebp+eax]
  0138c	89 85 2c ff ff
	ff		 mov	 DWORD PTR _v$[ebp], eax
  01392	8b 45 f0	 mov	 eax, DWORD PTR _base$46[ebp]
  01395	40		 inc	 eax
  01396	6b c0 0c	 imul	 eax, eax, 12
  01399	8d 84 05 90 06
	00 00		 lea	 eax, DWORD PTR _r$[ebp+eax]
  013a0	89 85 30 ff ff
	ff		 mov	 DWORD PTR _this$[ebp], eax
; File D:\Metin2 Server Files\mainline\SRC_2014\M2Data\include\d3dx8math.inl

; 257  :     return D3DXVECTOR3(x + v.x, y + v.y, z + v.z);

  013a6	8b 85 30 ff ff
	ff		 mov	 eax, DWORD PTR _this$[ebp]
  013ac	8b 8d 2c ff ff
	ff		 mov	 ecx, DWORD PTR _v$[ebp]
  013b2	f3 0f 10 00	 movss	 xmm0, DWORD PTR [eax]
  013b6	f3 0f 58 01	 addss	 xmm0, DWORD PTR [ecx]
  013ba	f3 0f 11 85 24
	fe ff ff	 movss	 DWORD PTR _fx$[ebp], xmm0
  013c2	8b 85 30 ff ff
	ff		 mov	 eax, DWORD PTR _this$[ebp]
  013c8	8b 8d 2c ff ff
	ff		 mov	 ecx, DWORD PTR _v$[ebp]
  013ce	f3 0f 10 40 04	 movss	 xmm0, DWORD PTR [eax+4]
  013d3	f3 0f 58 41 04	 addss	 xmm0, DWORD PTR [ecx+4]
  013d8	f3 0f 11 85 20
	fe ff ff	 movss	 DWORD PTR _fy$[ebp], xmm0
  013e0	8b 85 30 ff ff
	ff		 mov	 eax, DWORD PTR _this$[ebp]
  013e6	8b 8d 2c ff ff
	ff		 mov	 ecx, DWORD PTR _v$[ebp]
  013ec	f3 0f 10 40 08	 movss	 xmm0, DWORD PTR [eax+8]
  013f1	f3 0f 58 41 08	 addss	 xmm0, DWORD PTR [ecx+8]
  013f6	f3 0f 11 85 1c
	fe ff ff	 movss	 DWORD PTR _fz$[ebp], xmm0

; 180  :     x = fx;

  013fe	f3 0f 10 85 24
	fe ff ff	 movss	 xmm0, DWORD PTR _fx$[ebp]
  01406	f3 0f 11 85 a8
	00 00 00	 movss	 DWORD PTR $T60[ebp], xmm0

; 181  :     y = fy;

  0140e	f3 0f 10 85 20
	fe ff ff	 movss	 xmm0, DWORD PTR _fy$[ebp]
  01416	f3 0f 11 85 ac
	00 00 00	 movss	 DWORD PTR $T60[ebp+4], xmm0

; 182  :     z = fz;

  0141e	f3 0f 10 85 1c
	fe ff ff	 movss	 xmm0, DWORD PTR _fz$[ebp]
  01426	f3 0f 11 85 b0
	00 00 00	 movss	 DWORD PTR $T60[ebp+8], xmm0
; File D:\Metin2 Server Files\mainline\SRC_2014\Metin2Client\GameLib\WeaponTrace.cpp

; 215  : 				d = ( -2*v3Tmp + (r[base+1]+r[base])*h[base])

  0142e	8b 45 f0	 mov	 eax, DWORD PTR _base$46[ebp]
  01431	f3 0f 10 84 85
	a0 14 00 00	 movss	 xmm0, DWORD PTR _h$[ebp+eax*4]
  0143a	f3 0f 11 85 28
	ff ff ff	 movss	 DWORD PTR _f$[ebp], xmm0
; File D:\Metin2 Server Files\mainline\SRC_2014\M2Data\include\d3dx8math.inl

; 269  :     return D3DXVECTOR3(x * f, y * f, z * f);

  01442	f3 0f 10 85 a8
	00 00 00	 movss	 xmm0, DWORD PTR $T60[ebp]
  0144a	f3 0f 59 85 28
	ff ff ff	 mulss	 xmm0, DWORD PTR _f$[ebp]
  01452	f3 0f 11 85 18
	fe ff ff	 movss	 DWORD PTR _fx$[ebp], xmm0
  0145a	f3 0f 10 85 ac
	00 00 00	 movss	 xmm0, DWORD PTR $T60[ebp+4]
  01462	f3 0f 59 85 28
	ff ff ff	 mulss	 xmm0, DWORD PTR _f$[ebp]
  0146a	f3 0f 11 85 14
	fe ff ff	 movss	 DWORD PTR _fy$[ebp], xmm0
  01472	f3 0f 10 85 b0
	00 00 00	 movss	 xmm0, DWORD PTR $T60[ebp+8]
  0147a	f3 0f 59 85 28
	ff ff ff	 mulss	 xmm0, DWORD PTR _f$[ebp]
  01482	f3 0f 11 85 10
	fe ff ff	 movss	 DWORD PTR _fz$[ebp], xmm0

; 180  :     x = fx;

  0148a	f3 0f 10 85 18
	fe ff ff	 movss	 xmm0, DWORD PTR _fx$[ebp]
  01492	f3 0f 11 85 c0
	00 00 00	 movss	 DWORD PTR $T62[ebp], xmm0

; 181  :     y = fy;

  0149a	f3 0f 10 85 14
	fe ff ff	 movss	 xmm0, DWORD PTR _fy$[ebp]
  014a2	f3 0f 11 85 c4
	00 00 00	 movss	 DWORD PTR $T62[ebp+4], xmm0

; 182  :     z = fz;

  014aa	f3 0f 10 85 10
	fe ff ff	 movss	 xmm0, DWORD PTR _fz$[ebp]
  014b2	f3 0f 11 85 c8
	00 00 00	 movss	 DWORD PTR $T62[ebp+8], xmm0

; 283  :     return D3DXVECTOR3(f * v.x, f * v.y, f * v.z);

  014ba	f3 0f 10 05 00
	00 00 00	 movss	 xmm0, DWORD PTR __real@c0000000
  014c2	f3 0f 59 85 c8
	01 00 00	 mulss	 xmm0, DWORD PTR _v3Tmp$84[ebp]
  014ca	f3 0f 11 85 0c
	fe ff ff	 movss	 DWORD PTR _fx$[ebp], xmm0
  014d2	f3 0f 10 05 00
	00 00 00	 movss	 xmm0, DWORD PTR __real@c0000000
  014da	f3 0f 59 85 cc
	01 00 00	 mulss	 xmm0, DWORD PTR _v3Tmp$84[ebp+4]
  014e2	f3 0f 11 85 08
	fe ff ff	 movss	 DWORD PTR _fy$[ebp], xmm0
  014ea	f3 0f 10 05 00
	00 00 00	 movss	 xmm0, DWORD PTR __real@c0000000
  014f2	f3 0f 59 85 d0
	01 00 00	 mulss	 xmm0, DWORD PTR _v3Tmp$84[ebp+8]
  014fa	f3 0f 11 85 04
	fe ff ff	 movss	 DWORD PTR _fz$[ebp], xmm0

; 180  :     x = fx;

  01502	f3 0f 10 85 0c
	fe ff ff	 movss	 xmm0, DWORD PTR _fx$[ebp]
  0150a	f3 0f 11 85 b4
	00 00 00	 movss	 DWORD PTR $T61[ebp], xmm0

; 181  :     y = fy;

  01512	f3 0f 10 85 08
	fe ff ff	 movss	 xmm0, DWORD PTR _fy$[ebp]
  0151a	f3 0f 11 85 b8
	00 00 00	 movss	 DWORD PTR $T61[ebp+4], xmm0

; 182  :     z = fz;

  01522	f3 0f 10 85 04
	fe ff ff	 movss	 xmm0, DWORD PTR _fz$[ebp]
  0152a	f3 0f 11 85 bc
	00 00 00	 movss	 DWORD PTR $T61[ebp+8], xmm0

; 257  :     return D3DXVECTOR3(x + v.x, y + v.y, z + v.z);

  01532	f3 0f 10 85 b4
	00 00 00	 movss	 xmm0, DWORD PTR $T61[ebp]
  0153a	f3 0f 58 85 c0
	00 00 00	 addss	 xmm0, DWORD PTR $T62[ebp]
  01542	f3 0f 11 85 00
	fe ff ff	 movss	 DWORD PTR _fx$[ebp], xmm0
  0154a	f3 0f 10 85 b8
	00 00 00	 movss	 xmm0, DWORD PTR $T61[ebp+4]
  01552	f3 0f 58 85 c4
	00 00 00	 addss	 xmm0, DWORD PTR $T62[ebp+4]
  0155a	f3 0f 11 85 fc
	fd ff ff	 movss	 DWORD PTR _fy$[ebp], xmm0
  01562	f3 0f 10 85 bc
	00 00 00	 movss	 xmm0, DWORD PTR $T61[ebp+8]
  0156a	f3 0f 58 85 c8
	00 00 00	 addss	 xmm0, DWORD PTR $T62[ebp+8]
  01572	f3 0f 11 85 f8
	fd ff ff	 movss	 DWORD PTR _fz$[ebp], xmm0

; 180  :     x = fx;

  0157a	f3 0f 10 85 00
	fe ff ff	 movss	 xmm0, DWORD PTR _fx$[ebp]
  01582	f3 0f 11 85 cc
	00 00 00	 movss	 DWORD PTR $T63[ebp], xmm0

; 181  :     y = fy;

  0158a	f3 0f 10 85 fc
	fd ff ff	 movss	 xmm0, DWORD PTR _fy$[ebp]
  01592	f3 0f 11 85 d0
	00 00 00	 movss	 DWORD PTR $T63[ebp+4], xmm0

; 182  :     z = fz;

  0159a	f3 0f 10 85 f8
	fd ff ff	 movss	 xmm0, DWORD PTR _fz$[ebp]
  015a2	f3 0f 11 85 d4
	00 00 00	 movss	 DWORD PTR $T63[ebp+8], xmm0
; File D:\Metin2 Server Files\mainline\SRC_2014\Metin2Client\GameLib\WeaponTrace.cpp

; 215  : 				d = ( -2*v3Tmp + (r[base+1]+r[base])*h[base])

  015aa	8b 45 f0	 mov	 eax, DWORD PTR _base$46[ebp]
  015ad	8b 4d f0	 mov	 ecx, DWORD PTR _base$46[ebp]
  015b0	f3 0f 10 84 85
	a0 14 00 00	 movss	 xmm0, DWORD PTR _h$[ebp+eax*4]
  015b9	f3 0f 59 84 8d
	a0 14 00 00	 mulss	 xmm0, DWORD PTR _h$[ebp+ecx*4]
  015c2	8b 45 f0	 mov	 eax, DWORD PTR _base$46[ebp]
  015c5	f3 0f 59 84 85
	a0 14 00 00	 mulss	 xmm0, DWORD PTR _h$[ebp+eax*4]
  015ce	f3 0f 10 0d 00
	00 00 00	 movss	 xmm1, DWORD PTR __real@3f800000
  015d6	f3 0f 5e c8	 divss	 xmm1, xmm0
  015da	f3 0f 11 8d 24
	ff ff ff	 movss	 DWORD PTR _f$[ebp], xmm1
; File D:\Metin2 Server Files\mainline\SRC_2014\M2Data\include\d3dx8math.inl

; 269  :     return D3DXVECTOR3(x * f, y * f, z * f);

  015e2	f3 0f 10 85 cc
	00 00 00	 movss	 xmm0, DWORD PTR $T63[ebp]
  015ea	f3 0f 59 85 24
	ff ff ff	 mulss	 xmm0, DWORD PTR _f$[ebp]
  015f2	f3 0f 11 85 f4
	fd ff ff	 movss	 DWORD PTR _fx$[ebp], xmm0
  015fa	f3 0f 10 85 d0
	00 00 00	 movss	 xmm0, DWORD PTR $T63[ebp+4]
  01602	f3 0f 59 85 24
	ff ff ff	 mulss	 xmm0, DWORD PTR _f$[ebp]
  0160a	f3 0f 11 85 f0
	fd ff ff	 movss	 DWORD PTR _fy$[ebp], xmm0
  01612	f3 0f 10 85 d4
	00 00 00	 movss	 xmm0, DWORD PTR $T63[ebp+8]
  0161a	f3 0f 59 85 24
	ff ff ff	 mulss	 xmm0, DWORD PTR _f$[ebp]
  01622	f3 0f 11 85 ec
	fd ff ff	 movss	 DWORD PTR _fz$[ebp], xmm0

; 180  :     x = fx;

  0162a	f3 0f 10 85 f4
	fd ff ff	 movss	 xmm0, DWORD PTR _fx$[ebp]
  01632	f3 0f 11 45 24	 movss	 DWORD PTR $T49[ebp], xmm0

; 181  :     y = fy;

  01637	f3 0f 10 85 f0
	fd ff ff	 movss	 xmm0, DWORD PTR _fy$[ebp]
  0163f	f3 0f 11 45 28	 movss	 DWORD PTR $T49[ebp+4], xmm0

; 182  :     z = fz;

  01644	f3 0f 10 85 ec
	fd ff ff	 movss	 xmm0, DWORD PTR _fz$[ebp]
  0164c	f3 0f 11 45 2c	 movss	 DWORD PTR $T49[ebp+8], xmm0
; File D:\Metin2 Server Files\mainline\SRC_2014\Metin2Client\GameLib\WeaponTrace.cpp

; 215  : 				d = ( -2*v3Tmp + (r[base+1]+r[base])*h[base])

  01651	8d 75 24	 lea	 esi, DWORD PTR $T49[ebp]
  01654	8d bd 90 00 00
	00		 lea	 edi, DWORD PTR _d$58[ebp]
  0165a	a5		 movsd
  0165b	a5		 movsd
  0165c	a5		 movsd

; 216  : 					* (1/(h[base]*h[base]*h[base]));
; 217  : 				
; 218  : 				timenext+=h[base];

  0165d	8b 45 f0	 mov	 eax, DWORD PTR _base$46[ebp]
  01660	f3 0f 10 45 9c	 movss	 xmm0, DWORD PTR _timenext$35[ebp]
  01665	f3 0f 58 84 85
	a0 14 00 00	 addss	 xmm0, DWORD PTR _h$[ebp+eax*4]
  0166e	f3 0f 11 45 9c	 movss	 DWORD PTR _timenext$35[ebp], xmm0

; 219  : 				if (loop) 
; 220  : 				{
; 221  : 					//Tracef("%f:%f %f %f\n",Input[base].first,Input[base].second.x,Input[base].second.y,Input[base].second.z);
; 222  : 				}
; 223  : 			}

  01673	e9 9c f8 ff ff	 jmp	 $LN20@BuildVerte
$LN21@BuildVerte:

; 224  : 			if (base>n) break;

  01678	8b 45 f0	 mov	 eax, DWORD PTR _base$46[ebp]
  0167b	3b 45 d8	 cmp	 eax, DWORD PTR _n$[ebp]
  0167e	7e 05		 jle	 SHORT $LN28@BuildVerte
  01680	e9 6d 07 00 00	 jmp	 $LN18@BuildVerte
$LN28@BuildVerte:

; 225  : 			float cc = t - timebase;

  01685	f3 0f 10 45 dc	 movss	 xmm0, DWORD PTR _t$42[ebp]
  0168a	f3 0f 5c 85 fc
	fe ff ff	 subss	 xmm0, DWORD PTR _timebase$33[ebp]
  01692	f3 0f 11 45 d0	 movss	 DWORD PTR _cc$40[ebp], xmm0

; 226  : 			
; 227  : 			TPDTVertex v;
; 228  : 			//v.diffuse = D3DXCOLOR(0.3f,0.8f,1.0f, (loop)?max(1.0f-(t/m_fLifeTime),0.0f)/2:0.0f );
; 229  : 			float ttt = min(max((t+Input[0].first)/m_fLifeTime,0.0f),1.0f);

  01697	6a 00		 push	 0
  01699	8b 4d e4	 mov	 ecx, DWORD PTR _Input$44[ebp]
  0169c	e8 00 00 00 00	 call	 ??A?$deque@U?$pair@MUD3DXVECTOR3@@@std@@V?$allocator@U?$pair@MUD3DXVECTOR3@@@std@@@2@@std@@QAEAAU?$pair@MUD3DXVECTOR3@@@1@I@Z ; std::deque<std::pair<float,D3DXVECTOR3>,std::allocator<std::pair<float,D3DXVECTOR3> > >::operator[]
  016a1	f3 0f 10 45 dc	 movss	 xmm0, DWORD PTR _t$42[ebp]
  016a6	f3 0f 58 00	 addss	 xmm0, DWORD PTR [eax]
  016aa	8b 45 e8	 mov	 eax, DWORD PTR _this$[ebp]
  016ad	f3 0f 5e 40 3c	 divss	 xmm0, DWORD PTR [eax+60]
  016b2	0f 2f 05 00 00
	00 00		 comiss	 xmm0, DWORD PTR __real@00000000
  016b9	76 25		 jbe	 SHORT $LN37@BuildVerte
  016bb	6a 00		 push	 0
  016bd	8b 4d e4	 mov	 ecx, DWORD PTR _Input$44[ebp]
  016c0	e8 00 00 00 00	 call	 ??A?$deque@U?$pair@MUD3DXVECTOR3@@@std@@V?$allocator@U?$pair@MUD3DXVECTOR3@@@std@@@2@@std@@QAEAAU?$pair@MUD3DXVECTOR3@@@1@I@Z ; std::deque<std::pair<float,D3DXVECTOR3>,std::allocator<std::pair<float,D3DXVECTOR3> > >::operator[]
  016c5	f3 0f 10 45 dc	 movss	 xmm0, DWORD PTR _t$42[ebp]
  016ca	f3 0f 58 00	 addss	 xmm0, DWORD PTR [eax]
  016ce	8b 45 e8	 mov	 eax, DWORD PTR _this$[ebp]
  016d1	f3 0f 5e 40 3c	 divss	 xmm0, DWORD PTR [eax+60]
  016d6	f3 0f 11 85 f8
	fe ff ff	 movss	 DWORD PTR tv515[ebp], xmm0
  016de	eb 0b		 jmp	 SHORT $LN38@BuildVerte
$LN37@BuildVerte:
  016e0	0f 57 c0	 xorps	 xmm0, xmm0
  016e3	f3 0f 11 85 f8
	fe ff ff	 movss	 DWORD PTR tv515[ebp], xmm0
$LN38@BuildVerte:
  016eb	f3 0f 10 05 00
	00 00 00	 movss	 xmm0, DWORD PTR __real@3f800000
  016f3	0f 2f 85 f8 fe
	ff ff		 comiss	 xmm0, DWORD PTR tv515[ebp]
  016fa	76 66		 jbe	 SHORT $LN41@BuildVerte
  016fc	6a 00		 push	 0
  016fe	8b 4d e4	 mov	 ecx, DWORD PTR _Input$44[ebp]
  01701	e8 00 00 00 00	 call	 ??A?$deque@U?$pair@MUD3DXVECTOR3@@@std@@V?$allocator@U?$pair@MUD3DXVECTOR3@@@std@@@2@@std@@QAEAAU?$pair@MUD3DXVECTOR3@@@1@I@Z ; std::deque<std::pair<float,D3DXVECTOR3>,std::allocator<std::pair<float,D3DXVECTOR3> > >::operator[]
  01706	f3 0f 10 45 dc	 movss	 xmm0, DWORD PTR _t$42[ebp]
  0170b	f3 0f 58 00	 addss	 xmm0, DWORD PTR [eax]
  0170f	8b 45 e8	 mov	 eax, DWORD PTR _this$[ebp]
  01712	f3 0f 5e 40 3c	 divss	 xmm0, DWORD PTR [eax+60]
  01717	0f 2f 05 00 00
	00 00		 comiss	 xmm0, DWORD PTR __real@00000000
  0171e	76 25		 jbe	 SHORT $LN39@BuildVerte
  01720	6a 00		 push	 0
  01722	8b 4d e4	 mov	 ecx, DWORD PTR _Input$44[ebp]
  01725	e8 00 00 00 00	 call	 ??A?$deque@U?$pair@MUD3DXVECTOR3@@@std@@V?$allocator@U?$pair@MUD3DXVECTOR3@@@std@@@2@@std@@QAEAAU?$pair@MUD3DXVECTOR3@@@1@I@Z ; std::deque<std::pair<float,D3DXVECTOR3>,std::allocator<std::pair<float,D3DXVECTOR3> > >::operator[]
  0172a	f3 0f 10 45 dc	 movss	 xmm0, DWORD PTR _t$42[ebp]
  0172f	f3 0f 58 00	 addss	 xmm0, DWORD PTR [eax]
  01733	8b 45 e8	 mov	 eax, DWORD PTR _this$[ebp]
  01736	f3 0f 5e 40 3c	 divss	 xmm0, DWORD PTR [eax+60]
  0173b	f3 0f 11 85 f4
	fe ff ff	 movss	 DWORD PTR tv532[ebp], xmm0
  01743	eb 0b		 jmp	 SHORT $LN40@BuildVerte
$LN39@BuildVerte:
  01745	0f 57 c0	 xorps	 xmm0, xmm0
  01748	f3 0f 11 85 f4
	fe ff ff	 movss	 DWORD PTR tv532[ebp], xmm0
$LN40@BuildVerte:
  01750	f3 0f 10 85 f4
	fe ff ff	 movss	 xmm0, DWORD PTR tv532[ebp]
  01758	f3 0f 11 85 f0
	fe ff ff	 movss	 DWORD PTR tv533[ebp], xmm0
  01760	eb 10		 jmp	 SHORT $LN42@BuildVerte
$LN41@BuildVerte:
  01762	f3 0f 10 05 00
	00 00 00	 movss	 xmm0, DWORD PTR __real@3f800000
  0176a	f3 0f 11 85 f0
	fe ff ff	 movss	 DWORD PTR tv533[ebp], xmm0
$LN42@BuildVerte:
  01772	f3 0f 10 85 f0
	fe ff ff	 movss	 xmm0, DWORD PTR tv533[ebp]
  0177a	f3 0f 11 45 c8	 movss	 DWORD PTR _ttt$39[ebp], xmm0

; 230  : 			v.diffuse = D3DXCOLOR(0.3f,0.8f,1.0f, (loop)?min(max((1.0f-ttt)*(1.0f-ttt)/2.5-0.1f,0.0f),1.0f):0.0f );

  0177f	83 7d d4 00	 cmp	 DWORD PTR _loop$41[ebp], 0
  01783	0f 84 50 01 00
	00		 je	 $LN49@BuildVerte
  01789	f3 0f 10 05 00
	00 00 00	 movss	 xmm0, DWORD PTR __real@3f800000
  01791	f3 0f 5c 45 c8	 subss	 xmm0, DWORD PTR _ttt$39[ebp]
  01796	f3 0f 10 0d 00
	00 00 00	 movss	 xmm1, DWORD PTR __real@3f800000
  0179e	f3 0f 5c 4d c8	 subss	 xmm1, DWORD PTR _ttt$39[ebp]
  017a3	f3 0f 59 c1	 mulss	 xmm0, xmm1
  017a7	f3 0f 5a c0	 cvtss2sd xmm0, xmm0
  017ab	f2 0f 5e 05 00
	00 00 00	 divsd	 xmm0, QWORD PTR __real@4004000000000000
  017b3	f2 0f 5c 05 00
	00 00 00	 subsd	 xmm0, QWORD PTR __real@3fb99999a0000000
  017bb	66 0f 2f 05 00
	00 00 00	 comisd	 xmm0, QWORD PTR __real@0000000000000000
  017c3	76 3c		 jbe	 SHORT $LN43@BuildVerte
  017c5	f3 0f 10 05 00
	00 00 00	 movss	 xmm0, DWORD PTR __real@3f800000
  017cd	f3 0f 5c 45 c8	 subss	 xmm0, DWORD PTR _ttt$39[ebp]
  017d2	f3 0f 10 0d 00
	00 00 00	 movss	 xmm1, DWORD PTR __real@3f800000
  017da	f3 0f 5c 4d c8	 subss	 xmm1, DWORD PTR _ttt$39[ebp]
  017df	f3 0f 59 c1	 mulss	 xmm0, xmm1
  017e3	f3 0f 5a c0	 cvtss2sd xmm0, xmm0
  017e7	f2 0f 5e 05 00
	00 00 00	 divsd	 xmm0, QWORD PTR __real@4004000000000000
  017ef	f2 0f 5c 05 00
	00 00 00	 subsd	 xmm0, QWORD PTR __real@3fb99999a0000000
  017f7	f2 0f 11 85 9c
	fc ff ff	 movsd	 QWORD PTR tv549[ebp], xmm0
  017ff	eb 0b		 jmp	 SHORT $LN44@BuildVerte
$LN43@BuildVerte:
  01801	0f 57 c0	 xorps	 xmm0, xmm0
  01804	f2 0f 11 85 9c
	fc ff ff	 movsd	 QWORD PTR tv549[ebp], xmm0
$LN44@BuildVerte:
  0180c	f2 0f 10 05 00
	00 00 00	 movsd	 xmm0, QWORD PTR __real@3ff0000000000000
  01814	66 0f 2f 85 9c
	fc ff ff	 comisd	 xmm0, QWORD PTR tv549[ebp]
  0181c	0f 86 95 00 00
	00		 jbe	 $LN47@BuildVerte
  01822	f3 0f 10 05 00
	00 00 00	 movss	 xmm0, DWORD PTR __real@3f800000
  0182a	f3 0f 5c 45 c8	 subss	 xmm0, DWORD PTR _ttt$39[ebp]
  0182f	f3 0f 10 0d 00
	00 00 00	 movss	 xmm1, DWORD PTR __real@3f800000
  01837	f3 0f 5c 4d c8	 subss	 xmm1, DWORD PTR _ttt$39[ebp]
  0183c	f3 0f 59 c1	 mulss	 xmm0, xmm1
  01840	f3 0f 5a c0	 cvtss2sd xmm0, xmm0
  01844	f2 0f 5e 05 00
	00 00 00	 divsd	 xmm0, QWORD PTR __real@4004000000000000
  0184c	f2 0f 5c 05 00
	00 00 00	 subsd	 xmm0, QWORD PTR __real@3fb99999a0000000
  01854	66 0f 2f 05 00
	00 00 00	 comisd	 xmm0, QWORD PTR __real@0000000000000000
  0185c	76 3c		 jbe	 SHORT $LN45@BuildVerte
  0185e	f3 0f 10 05 00
	00 00 00	 movss	 xmm0, DWORD PTR __real@3f800000
  01866	f3 0f 5c 45 c8	 subss	 xmm0, DWORD PTR _ttt$39[ebp]
  0186b	f3 0f 10 0d 00
	00 00 00	 movss	 xmm1, DWORD PTR __real@3f800000
  01873	f3 0f 5c 4d c8	 subss	 xmm1, DWORD PTR _ttt$39[ebp]
  01878	f3 0f 59 c1	 mulss	 xmm0, xmm1
  0187c	f3 0f 5a c0	 cvtss2sd xmm0, xmm0
  01880	f2 0f 5e 05 00
	00 00 00	 divsd	 xmm0, QWORD PTR __real@4004000000000000
  01888	f2 0f 5c 05 00
	00 00 00	 subsd	 xmm0, QWORD PTR __real@3fb99999a0000000
  01890	f2 0f 11 85 94
	fc ff ff	 movsd	 QWORD PTR tv564[ebp], xmm0
  01898	eb 0b		 jmp	 SHORT $LN46@BuildVerte
$LN45@BuildVerte:
  0189a	0f 57 c0	 xorps	 xmm0, xmm0
  0189d	f2 0f 11 85 94
	fc ff ff	 movsd	 QWORD PTR tv564[ebp], xmm0
$LN46@BuildVerte:
  018a5	f2 0f 10 85 94
	fc ff ff	 movsd	 xmm0, QWORD PTR tv564[ebp]
  018ad	f2 0f 11 85 8c
	fc ff ff	 movsd	 QWORD PTR tv565[ebp], xmm0
  018b5	eb 10		 jmp	 SHORT $LN48@BuildVerte
$LN47@BuildVerte:
  018b7	f2 0f 10 05 00
	00 00 00	 movsd	 xmm0, QWORD PTR __real@3ff0000000000000
  018bf	f2 0f 11 85 8c
	fc ff ff	 movsd	 QWORD PTR tv565[ebp], xmm0
$LN48@BuildVerte:
  018c7	f2 0f 10 85 8c
	fc ff ff	 movsd	 xmm0, QWORD PTR tv565[ebp]
  018cf	f2 0f 11 85 84
	fc ff ff	 movsd	 QWORD PTR tv567[ebp], xmm0
  018d7	eb 0b		 jmp	 SHORT $LN50@BuildVerte
$LN49@BuildVerte:
  018d9	0f 57 c0	 xorps	 xmm0, xmm0
  018dc	f2 0f 11 85 84
	fc ff ff	 movsd	 QWORD PTR tv567[ebp], xmm0
$LN50@BuildVerte:
; File D:\Metin2 Server Files\mainline\SRC_2014\M2Data\include\d3dx8math.inl

; 920  :     r = fr;

  018e4	f3 0f 10 05 00
	00 00 00	 movss	 xmm0, DWORD PTR __real@3e99999a
  018ec	f3 0f 11 85 10
	ff ff ff	 movss	 DWORD PTR $T34[ebp], xmm0

; 921  :     g = fg;

  018f4	f3 0f 10 05 00
	00 00 00	 movss	 xmm0, DWORD PTR __real@3f4ccccd
  018fc	f3 0f 11 85 14
	ff ff ff	 movss	 DWORD PTR $T34[ebp+4], xmm0

; 922  :     b = fb;

  01904	f3 0f 10 05 00
	00 00 00	 movss	 xmm0, DWORD PTR __real@3f800000
  0190c	f3 0f 11 85 18
	ff ff ff	 movss	 DWORD PTR $T34[ebp+8], xmm0
; File D:\Metin2 Server Files\mainline\SRC_2014\Metin2Client\GameLib\WeaponTrace.cpp

; 230  : 			v.diffuse = D3DXCOLOR(0.3f,0.8f,1.0f, (loop)?min(max((1.0f-ttt)*(1.0f-ttt)/2.5-0.1f,0.0f),1.0f):0.0f );

  01914	f2 0f 5a 85 84
	fc ff ff	 cvtsd2ss xmm0, QWORD PTR tv567[ebp]
; File D:\Metin2 Server Files\mainline\SRC_2014\M2Data\include\d3dx8math.inl

; 923  :     a = fa;

  0191c	f3 0f 11 85 1c
	ff ff ff	 movss	 DWORD PTR $T34[ebp+12], xmm0

; 931  :     DWORD dwR = r >= 1.0f ? 0xff : r <= 0.0f ? 0x00 : (DWORD) (r * 255.0f + 0.5f);

  01924	f3 0f 10 85 10
	ff ff ff	 movss	 xmm0, DWORD PTR $T34[ebp]
  0192c	0f 2f 05 00 00
	00 00		 comiss	 xmm0, DWORD PTR __real@3f800000
  01933	72 0c		 jb	 SHORT $LN717@BuildVerte
  01935	c7 85 e8 fe ff
	ff ff 00 00 00	 mov	 DWORD PTR tv2564[ebp], 255 ; 000000ffH
  0193f	eb 44		 jmp	 SHORT $LN718@BuildVerte
$LN717@BuildVerte:
  01941	0f 57 c0	 xorps	 xmm0, xmm0
  01944	0f 2f 85 10 ff
	ff ff		 comiss	 xmm0, DWORD PTR $T34[ebp]
  0194b	72 09		 jb	 SHORT $LN715@BuildVerte
  0194d	83 a5 ec fe ff
	ff 00		 and	 DWORD PTR tv2551[ebp], 0
  01954	eb 23		 jmp	 SHORT $LN716@BuildVerte
$LN715@BuildVerte:
  01956	f3 0f 10 85 10
	ff ff ff	 movss	 xmm0, DWORD PTR $T34[ebp]
  0195e	f3 0f 59 05 00
	00 00 00	 mulss	 xmm0, DWORD PTR __real@437f0000
  01966	f3 0f 58 05 00
	00 00 00	 addss	 xmm0, DWORD PTR __real@3f000000
  0196e	e8 00 00 00 00	 call	 __ftoui3
  01973	89 85 ec fe ff
	ff		 mov	 DWORD PTR tv2551[ebp], eax
$LN716@BuildVerte:
  01979	8b 85 ec fe ff
	ff		 mov	 eax, DWORD PTR tv2551[ebp]
  0197f	89 85 e8 fe ff
	ff		 mov	 DWORD PTR tv2564[ebp], eax
$LN718@BuildVerte:
  01985	8b 85 e8 fe ff
	ff		 mov	 eax, DWORD PTR tv2564[ebp]
  0198b	89 85 e4 fd ff
	ff		 mov	 DWORD PTR _dwR$19[ebp], eax

; 932  :     DWORD dwG = g >= 1.0f ? 0xff : g <= 0.0f ? 0x00 : (DWORD) (g * 255.0f + 0.5f);

  01991	f3 0f 10 85 14
	ff ff ff	 movss	 xmm0, DWORD PTR $T34[ebp+4]
  01999	0f 2f 05 00 00
	00 00		 comiss	 xmm0, DWORD PTR __real@3f800000
  019a0	72 0c		 jb	 SHORT $LN721@BuildVerte
  019a2	c7 85 e0 fe ff
	ff ff 00 00 00	 mov	 DWORD PTR tv2585[ebp], 255 ; 000000ffH
  019ac	eb 44		 jmp	 SHORT $LN722@BuildVerte
$LN721@BuildVerte:
  019ae	0f 57 c0	 xorps	 xmm0, xmm0
  019b1	0f 2f 85 14 ff
	ff ff		 comiss	 xmm0, DWORD PTR $T34[ebp+4]
  019b8	72 09		 jb	 SHORT $LN719@BuildVerte
  019ba	83 a5 e4 fe ff
	ff 00		 and	 DWORD PTR tv2586[ebp], 0
  019c1	eb 23		 jmp	 SHORT $LN720@BuildVerte
$LN719@BuildVerte:
  019c3	f3 0f 10 85 14
	ff ff ff	 movss	 xmm0, DWORD PTR $T34[ebp+4]
  019cb	f3 0f 59 05 00
	00 00 00	 mulss	 xmm0, DWORD PTR __real@437f0000
  019d3	f3 0f 58 05 00
	00 00 00	 addss	 xmm0, DWORD PTR __real@3f000000
  019db	e8 00 00 00 00	 call	 __ftoui3
  019e0	89 85 e4 fe ff
	ff		 mov	 DWORD PTR tv2586[ebp], eax
$LN720@BuildVerte:
  019e6	8b 85 e4 fe ff
	ff		 mov	 eax, DWORD PTR tv2586[ebp]
  019ec	89 85 e0 fe ff
	ff		 mov	 DWORD PTR tv2585[ebp], eax
$LN722@BuildVerte:
  019f2	8b 85 e0 fe ff
	ff		 mov	 eax, DWORD PTR tv2585[ebp]
  019f8	89 85 e8 fd ff
	ff		 mov	 DWORD PTR _dwG$20[ebp], eax

; 933  :     DWORD dwB = b >= 1.0f ? 0xff : b <= 0.0f ? 0x00 : (DWORD) (b * 255.0f + 0.5f);

  019fe	f3 0f 10 85 18
	ff ff ff	 movss	 xmm0, DWORD PTR $T34[ebp+8]
  01a06	0f 2f 05 00 00
	00 00		 comiss	 xmm0, DWORD PTR __real@3f800000
  01a0d	72 0c		 jb	 SHORT $LN725@BuildVerte
  01a0f	c7 85 d8 fe ff
	ff ff 00 00 00	 mov	 DWORD PTR tv2594[ebp], 255 ; 000000ffH
  01a19	eb 44		 jmp	 SHORT $LN726@BuildVerte
$LN725@BuildVerte:
  01a1b	0f 57 c0	 xorps	 xmm0, xmm0
  01a1e	0f 2f 85 18 ff
	ff ff		 comiss	 xmm0, DWORD PTR $T34[ebp+8]
  01a25	72 09		 jb	 SHORT $LN723@BuildVerte
  01a27	83 a5 dc fe ff
	ff 00		 and	 DWORD PTR tv2579[ebp], 0
  01a2e	eb 23		 jmp	 SHORT $LN724@BuildVerte
$LN723@BuildVerte:
  01a30	f3 0f 10 85 18
	ff ff ff	 movss	 xmm0, DWORD PTR $T34[ebp+8]
  01a38	f3 0f 59 05 00
	00 00 00	 mulss	 xmm0, DWORD PTR __real@437f0000
  01a40	f3 0f 58 05 00
	00 00 00	 addss	 xmm0, DWORD PTR __real@3f000000
  01a48	e8 00 00 00 00	 call	 __ftoui3
  01a4d	89 85 dc fe ff
	ff		 mov	 DWORD PTR tv2579[ebp], eax
$LN724@BuildVerte:
  01a53	8b 85 dc fe ff
	ff		 mov	 eax, DWORD PTR tv2579[ebp]
  01a59	89 85 d8 fe ff
	ff		 mov	 DWORD PTR tv2594[ebp], eax
$LN726@BuildVerte:
  01a5f	8b 85 d8 fe ff
	ff		 mov	 eax, DWORD PTR tv2594[ebp]
  01a65	89 85 dc fd ff
	ff		 mov	 DWORD PTR _dwB$17[ebp], eax

; 934  :     DWORD dwA = a >= 1.0f ? 0xff : a <= 0.0f ? 0x00 : (DWORD) (a * 255.0f + 0.5f);

  01a6b	f3 0f 10 85 1c
	ff ff ff	 movss	 xmm0, DWORD PTR $T34[ebp+12]
  01a73	0f 2f 05 00 00
	00 00		 comiss	 xmm0, DWORD PTR __real@3f800000
  01a7a	72 0c		 jb	 SHORT $LN729@BuildVerte
  01a7c	c7 85 d0 fe ff
	ff ff 00 00 00	 mov	 DWORD PTR tv2605[ebp], 255 ; 000000ffH
  01a86	eb 44		 jmp	 SHORT $LN730@BuildVerte
$LN729@BuildVerte:
  01a88	0f 57 c0	 xorps	 xmm0, xmm0
  01a8b	0f 2f 85 1c ff
	ff ff		 comiss	 xmm0, DWORD PTR $T34[ebp+12]
  01a92	72 09		 jb	 SHORT $LN727@BuildVerte
  01a94	83 a5 d4 fe ff
	ff 00		 and	 DWORD PTR tv2604[ebp], 0
  01a9b	eb 23		 jmp	 SHORT $LN728@BuildVerte
$LN727@BuildVerte:
  01a9d	f3 0f 10 85 1c
	ff ff ff	 movss	 xmm0, DWORD PTR $T34[ebp+12]
  01aa5	f3 0f 59 05 00
	00 00 00	 mulss	 xmm0, DWORD PTR __real@437f0000
  01aad	f3 0f 58 05 00
	00 00 00	 addss	 xmm0, DWORD PTR __real@3f000000
  01ab5	e8 00 00 00 00	 call	 __ftoui3
  01aba	89 85 d4 fe ff
	ff		 mov	 DWORD PTR tv2604[ebp], eax
$LN728@BuildVerte:
  01ac0	8b 85 d4 fe ff
	ff		 mov	 eax, DWORD PTR tv2604[ebp]
  01ac6	89 85 d0 fe ff
	ff		 mov	 DWORD PTR tv2605[ebp], eax
$LN730@BuildVerte:
  01acc	8b 85 d0 fe ff
	ff		 mov	 eax, DWORD PTR tv2605[ebp]
  01ad2	89 85 e0 fd ff
	ff		 mov	 DWORD PTR _dwA$18[ebp], eax

; 935  : 
; 936  :     return (dwA << 24) | (dwR << 16) | (dwG << 8) | dwB;

  01ad8	8b 85 e8 fd ff
	ff		 mov	 eax, DWORD PTR _dwG$20[ebp]
  01ade	c1 e0 08	 shl	 eax, 8
  01ae1	8b 8d e4 fd ff
	ff		 mov	 ecx, DWORD PTR _dwR$19[ebp]
  01ae7	c1 e1 10	 shl	 ecx, 16			; 00000010H
  01aea	8b 95 e0 fd ff
	ff		 mov	 edx, DWORD PTR _dwA$18[ebp]
  01af0	c1 e2 18	 shl	 edx, 24			; 00000018H
  01af3	0b d1		 or	 edx, ecx
  01af5	0b d0		 or	 edx, eax
  01af7	0b 95 dc fd ff
	ff		 or	 edx, DWORD PTR _dwB$17[ebp]
; File D:\Metin2 Server Files\mainline\SRC_2014\Metin2Client\GameLib\WeaponTrace.cpp

; 230  : 			v.diffuse = D3DXCOLOR(0.3f,0.8f,1.0f, (loop)?min(max((1.0f-ttt)*(1.0f-ttt)/2.5-0.1f,0.0f),1.0f):0.0f );

  01afd	89 55 0c	 mov	 DWORD PTR _v$47[ebp+12], edx
; File D:\Metin2 Server Files\mainline\SRC_2014\M2Data\include\d3dx8math.inl

; 283  :     return D3DXVECTOR3(f * v.x, f * v.y, f * v.z);

  01b00	f3 0f 10 45 d0	 movss	 xmm0, DWORD PTR _cc$40[ebp]
  01b05	f3 0f 59 85 90
	00 00 00	 mulss	 xmm0, DWORD PTR _d$58[ebp]
  01b0d	f3 0f 11 85 d8
	fd ff ff	 movss	 DWORD PTR _fx$[ebp], xmm0
  01b15	f3 0f 10 45 d0	 movss	 xmm0, DWORD PTR _cc$40[ebp]
  01b1a	f3 0f 59 85 94
	00 00 00	 mulss	 xmm0, DWORD PTR _d$58[ebp+4]
  01b22	f3 0f 11 85 d4
	fd ff ff	 movss	 DWORD PTR _fy$[ebp], xmm0
  01b2a	f3 0f 10 45 d0	 movss	 xmm0, DWORD PTR _cc$40[ebp]
  01b2f	f3 0f 59 85 98
	00 00 00	 mulss	 xmm0, DWORD PTR _d$58[ebp+8]
  01b37	f3 0f 11 85 d0
	fd ff ff	 movss	 DWORD PTR _fz$[ebp], xmm0

; 180  :     x = fx;

  01b3f	f3 0f 10 85 d8
	fd ff ff	 movss	 xmm0, DWORD PTR _fx$[ebp]
  01b47	f3 0f 11 85 d8
	00 00 00	 movss	 DWORD PTR $T64[ebp], xmm0

; 181  :     y = fy;

  01b4f	f3 0f 10 85 d4
	fd ff ff	 movss	 xmm0, DWORD PTR _fy$[ebp]
  01b57	f3 0f 11 85 dc
	00 00 00	 movss	 DWORD PTR $T64[ebp+4], xmm0

; 182  :     z = fz;

  01b5f	f3 0f 10 85 d0
	fd ff ff	 movss	 xmm0, DWORD PTR _fz$[ebp]
  01b67	f3 0f 11 85 e0
	00 00 00	 movss	 DWORD PTR $T64[ebp+8], xmm0

; 257  :     return D3DXVECTOR3(x + v.x, y + v.y, z + v.z);

  01b6f	f3 0f 10 85 84
	00 00 00	 movss	 xmm0, DWORD PTR _c$57[ebp]
  01b77	f3 0f 58 85 d8
	00 00 00	 addss	 xmm0, DWORD PTR $T64[ebp]
  01b7f	f3 0f 11 85 cc
	fd ff ff	 movss	 DWORD PTR _fx$[ebp], xmm0
  01b87	f3 0f 10 85 88
	00 00 00	 movss	 xmm0, DWORD PTR _c$57[ebp+4]
  01b8f	f3 0f 58 85 dc
	00 00 00	 addss	 xmm0, DWORD PTR $T64[ebp+4]
  01b97	f3 0f 11 85 c8
	fd ff ff	 movss	 DWORD PTR _fy$[ebp], xmm0
  01b9f	f3 0f 10 85 8c
	00 00 00	 movss	 xmm0, DWORD PTR _c$57[ebp+8]
  01ba7	f3 0f 58 85 e0
	00 00 00	 addss	 xmm0, DWORD PTR $T64[ebp+8]
  01baf	f3 0f 11 85 c4
	fd ff ff	 movss	 DWORD PTR _fz$[ebp], xmm0

; 180  :     x = fx;

  01bb7	f3 0f 10 85 cc
	fd ff ff	 movss	 xmm0, DWORD PTR _fx$[ebp]
  01bbf	f3 0f 11 85 98
	01 00 00	 movss	 DWORD PTR $T80[ebp], xmm0

; 181  :     y = fy;

  01bc7	f3 0f 10 85 c8
	fd ff ff	 movss	 xmm0, DWORD PTR _fy$[ebp]
  01bcf	f3 0f 11 85 9c
	01 00 00	 movss	 DWORD PTR $T80[ebp+4], xmm0

; 182  :     z = fz;

  01bd7	f3 0f 10 85 c4
	fd ff ff	 movss	 xmm0, DWORD PTR _fz$[ebp]
  01bdf	f3 0f 11 85 a0
	01 00 00	 movss	 DWORD PTR $T80[ebp+8], xmm0

; 283  :     return D3DXVECTOR3(f * v.x, f * v.y, f * v.z);

  01be7	f3 0f 10 45 d0	 movss	 xmm0, DWORD PTR _cc$40[ebp]
  01bec	f3 0f 59 85 98
	01 00 00	 mulss	 xmm0, DWORD PTR $T80[ebp]
  01bf4	f3 0f 11 85 c0
	fd ff ff	 movss	 DWORD PTR _fx$[ebp], xmm0
  01bfc	f3 0f 10 45 d0	 movss	 xmm0, DWORD PTR _cc$40[ebp]
  01c01	f3 0f 59 85 9c
	01 00 00	 mulss	 xmm0, DWORD PTR $T80[ebp+4]
  01c09	f3 0f 11 85 bc
	fd ff ff	 movss	 DWORD PTR _fy$[ebp], xmm0
  01c11	f3 0f 10 45 d0	 movss	 xmm0, DWORD PTR _cc$40[ebp]
  01c16	f3 0f 59 85 a0
	01 00 00	 mulss	 xmm0, DWORD PTR $T80[ebp+8]
  01c1e	f3 0f 11 85 b8
	fd ff ff	 movss	 DWORD PTR _fz$[ebp], xmm0

; 180  :     x = fx;

  01c26	f3 0f 10 85 c0
	fd ff ff	 movss	 xmm0, DWORD PTR _fx$[ebp]
  01c2e	f3 0f 11 85 e4
	00 00 00	 movss	 DWORD PTR $T65[ebp], xmm0

; 181  :     y = fy;

  01c36	f3 0f 10 85 bc
	fd ff ff	 movss	 xmm0, DWORD PTR _fy$[ebp]
  01c3e	f3 0f 11 85 e8
	00 00 00	 movss	 DWORD PTR $T65[ebp+4], xmm0

; 182  :     z = fz;

  01c46	f3 0f 10 85 b8
	fd ff ff	 movss	 xmm0, DWORD PTR _fz$[ebp]
  01c4e	f3 0f 11 85 ec
	00 00 00	 movss	 DWORD PTR $T65[ebp+8], xmm0

; 257  :     return D3DXVECTOR3(x + v.x, y + v.y, z + v.z);

  01c56	f3 0f 10 45 78	 movss	 xmm0, DWORD PTR _b$56[ebp]
  01c5b	f3 0f 58 85 e4
	00 00 00	 addss	 xmm0, DWORD PTR $T65[ebp]
  01c63	f3 0f 11 85 b4
	fd ff ff	 movss	 DWORD PTR _fx$[ebp], xmm0
  01c6b	f3 0f 10 45 7c	 movss	 xmm0, DWORD PTR _b$56[ebp+4]
  01c70	f3 0f 58 85 e8
	00 00 00	 addss	 xmm0, DWORD PTR $T65[ebp+4]
  01c78	f3 0f 11 85 b0
	fd ff ff	 movss	 DWORD PTR _fy$[ebp], xmm0
  01c80	f3 0f 10 85 80
	00 00 00	 movss	 xmm0, DWORD PTR _b$56[ebp+8]
  01c88	f3 0f 58 85 ec
	00 00 00	 addss	 xmm0, DWORD PTR $T65[ebp+8]
  01c90	f3 0f 11 85 ac
	fd ff ff	 movss	 DWORD PTR _fz$[ebp], xmm0

; 180  :     x = fx;

  01c98	f3 0f 10 85 b4
	fd ff ff	 movss	 xmm0, DWORD PTR _fx$[ebp]
  01ca0	f3 0f 11 85 f0
	00 00 00	 movss	 DWORD PTR $T66[ebp], xmm0

; 181  :     y = fy;

  01ca8	f3 0f 10 85 b0
	fd ff ff	 movss	 xmm0, DWORD PTR _fy$[ebp]
  01cb0	f3 0f 11 85 f4
	00 00 00	 movss	 DWORD PTR $T66[ebp+4], xmm0

; 182  :     z = fz;

  01cb8	f3 0f 10 85 ac
	fd ff ff	 movss	 xmm0, DWORD PTR _fz$[ebp]
  01cc0	f3 0f 11 85 f8
	00 00 00	 movss	 DWORD PTR $T66[ebp+8], xmm0

; 283  :     return D3DXVECTOR3(f * v.x, f * v.y, f * v.z);

  01cc8	f3 0f 10 45 d0	 movss	 xmm0, DWORD PTR _cc$40[ebp]
  01ccd	f3 0f 59 85 f0
	00 00 00	 mulss	 xmm0, DWORD PTR $T66[ebp]
  01cd5	f3 0f 11 85 a8
	fd ff ff	 movss	 DWORD PTR _fx$[ebp], xmm0
  01cdd	f3 0f 10 45 d0	 movss	 xmm0, DWORD PTR _cc$40[ebp]
  01ce2	f3 0f 59 85 f4
	00 00 00	 mulss	 xmm0, DWORD PTR $T66[ebp+4]
  01cea	f3 0f 11 85 a4
	fd ff ff	 movss	 DWORD PTR _fy$[ebp], xmm0
  01cf2	f3 0f 10 45 d0	 movss	 xmm0, DWORD PTR _cc$40[ebp]
  01cf7	f3 0f 59 85 f8
	00 00 00	 mulss	 xmm0, DWORD PTR $T66[ebp+8]
  01cff	f3 0f 11 85 a0
	fd ff ff	 movss	 DWORD PTR _fz$[ebp], xmm0

; 180  :     x = fx;

  01d07	f3 0f 10 85 a8
	fd ff ff	 movss	 xmm0, DWORD PTR _fx$[ebp]
  01d0f	f3 0f 11 85 fc
	00 00 00	 movss	 DWORD PTR $T67[ebp], xmm0

; 181  :     y = fy;

  01d17	f3 0f 10 85 a4
	fd ff ff	 movss	 xmm0, DWORD PTR _fy$[ebp]
  01d1f	f3 0f 11 85 00
	01 00 00	 movss	 DWORD PTR $T67[ebp+4], xmm0

; 182  :     z = fz;

  01d27	f3 0f 10 85 a0
	fd ff ff	 movss	 xmm0, DWORD PTR _fz$[ebp]
  01d2f	f3 0f 11 85 04
	01 00 00	 movss	 DWORD PTR $T67[ebp+8], xmm0

; 257  :     return D3DXVECTOR3(x + v.x, y + v.y, z + v.z);

  01d37	f3 0f 10 45 6c	 movss	 xmm0, DWORD PTR _a$55[ebp]
  01d3c	f3 0f 58 85 fc
	00 00 00	 addss	 xmm0, DWORD PTR $T67[ebp]
  01d44	f3 0f 11 85 9c
	fd ff ff	 movss	 DWORD PTR _fx$[ebp], xmm0
  01d4c	f3 0f 10 45 70	 movss	 xmm0, DWORD PTR _a$55[ebp+4]
  01d51	f3 0f 58 85 00
	01 00 00	 addss	 xmm0, DWORD PTR $T67[ebp+4]
  01d59	f3 0f 11 85 98
	fd ff ff	 movss	 DWORD PTR _fy$[ebp], xmm0
  01d61	f3 0f 10 45 74	 movss	 xmm0, DWORD PTR _a$55[ebp+8]
  01d66	f3 0f 58 85 04
	01 00 00	 addss	 xmm0, DWORD PTR $T67[ebp+8]
  01d6e	f3 0f 11 85 94
	fd ff ff	 movss	 DWORD PTR _fz$[ebp], xmm0

; 180  :     x = fx;

  01d76	f3 0f 10 85 9c
	fd ff ff	 movss	 xmm0, DWORD PTR _fx$[ebp]
  01d7e	f3 0f 11 45 18	 movss	 DWORD PTR $T48[ebp], xmm0

; 181  :     y = fy;

  01d83	f3 0f 10 85 98
	fd ff ff	 movss	 xmm0, DWORD PTR _fy$[ebp]
  01d8b	f3 0f 11 45 1c	 movss	 DWORD PTR $T48[ebp+4], xmm0

; 182  :     z = fz;

  01d90	f3 0f 10 85 94
	fd ff ff	 movss	 xmm0, DWORD PTR _fz$[ebp]
  01d98	f3 0f 11 45 20	 movss	 DWORD PTR $T48[ebp+8], xmm0
; File D:\Metin2 Server Files\mainline\SRC_2014\Metin2Client\GameLib\WeaponTrace.cpp

; 233  : 			v.position = a+cc*(b+cc*(c+cc*d));	// next position 

  01d9d	8d 75 18	 lea	 esi, DWORD PTR $T48[ebp]
  01da0	8d 7d 00	 lea	 edi, DWORD PTR _v$47[ebp]
  01da3	a5		 movsd
  01da4	a5		 movsd
  01da5	a5		 movsd

; 234  : 			v.texCoord.x = t/m_fLifeTime;

  01da6	8b 45 e8	 mov	 eax, DWORD PTR _this$[ebp]
  01da9	f3 0f 10 45 dc	 movss	 xmm0, DWORD PTR _t$42[ebp]
  01dae	f3 0f 5e 40 3c	 divss	 xmm0, DWORD PTR [eax+60]
  01db3	f3 0f 11 45 10	 movss	 DWORD PTR _v$47[ebp+16], xmm0

; 235  : 			v.texCoord.y = loop ? 0 : 1;

  01db8	83 7d d4 00	 cmp	 DWORD PTR _loop$41[ebp], 0
  01dbc	74 09		 je	 SHORT $LN51@BuildVerte
  01dbe	83 a5 cc fe ff
	ff 00		 and	 DWORD PTR tv603[ebp], 0
  01dc5	eb 0a		 jmp	 SHORT $LN52@BuildVerte
$LN51@BuildVerte:
  01dc7	c7 85 cc fe ff
	ff 01 00 00 00	 mov	 DWORD PTR tv603[ebp], 1
$LN52@BuildVerte:
  01dd1	f3 0f 2a 85 cc
	fe ff ff	 cvtsi2ss xmm0, DWORD PTR tv603[ebp]
  01dd9	f3 0f 11 45 14	 movss	 DWORD PTR _v$47[ebp+20], xmm0
; File C:\Program Files (x86)\Microsoft Visual Studio\2019\Community\VC\Tools\MSVC\14.28.29333\include\vector

; 717  :         emplace_back(_Val);

  01dde	8d 45 00	 lea	 eax, DWORD PTR _v$47[ebp]
  01de1	50		 push	 eax
  01de2	8b 8d 90 fd ff
	ff		 mov	 ecx, DWORD PTR _Output$16[ebp]
  01de8	e8 00 00 00 00	 call	 ??$emplace_back@ABUSPDTVertex@@@?$vector@USPDTVertex@@V?$allocator@USPDTVertex@@@std@@@std@@QAEXABUSPDTVertex@@@Z ; std::vector<SPDTVertex,std::allocator<SPDTVertex> >::emplace_back<SPDTVertex const &>
; File D:\Metin2 Server Files\mainline\SRC_2014\Metin2Client\GameLib\WeaponTrace.cpp

; 248  : 		}

  01ded	e9 fe f0 ff ff	 jmp	 $LN17@BuildVerte
$LN18@BuildVerte:

; 249  : 	}

  01df2	c6 45 fc 01	 mov	 BYTE PTR __$EHRec$[ebp+8], 1
  01df6	e9 8b e3 ff ff	 jmp	 $LN2@BuildVerte
$LN3@BuildVerte:

; 250  : 
; 251  : 	// build vertex
; 252  : 
; 253  : 	m_PDTVertexVector.clear();

  01dfb	8b 4d e8	 mov	 ecx, DWORD PTR _this$[ebp]
  01dfe	83 c1 30	 add	 ecx, 48			; 00000030H
  01e01	e8 00 00 00 00	 call	 ?clear@?$vector@USPDTVertex@@V?$allocator@USPDTVertex@@@std@@@std@@QAEXXZ ; std::vector<SPDTVertex,std::allocator<SPDTVertex> >::clear
; File C:\Program Files (x86)\Microsoft Visual Studio\2019\Community\VC\Tools\MSVC\14.28.29333\include\vector

; 40   :     _Vector_const_iterator() noexcept : _Ptr() {}

  01e06	83 65 a4 00	 and	 DWORD PTR _lit$[ebp], 0
  01e0a	83 65 a0 00	 and	 DWORD PTR _sit$[ebp], 0

; 1410 :         auto& _My_data = _Mypair._Myval2;

  01e0e	8d 85 a4 fc ff
	ff		 lea	 eax, DWORD PTR _m_LongVertexVector$[ebp]
  01e14	89 85 c8 fe ff
	ff		 mov	 DWORD PTR __My_data$32[ebp], eax
; File C:\Program Files (x86)\Microsoft Visual Studio\2019\Community\VC\Tools\MSVC\14.28.29333\include\xstddef

; 275  :     return __builtin_addressof(_Val);

  01e1a	8b 85 c8 fe ff
	ff		 mov	 eax, DWORD PTR __My_data$32[ebp]
  01e20	89 85 68 fc ff
	ff		 mov	 DWORD PTR $T3[ebp], eax
; File C:\Program Files (x86)\Microsoft Visual Studio\2019\Community\VC\Tools\MSVC\14.28.29333\include\vector

; 1411 :         return iterator(_My_data._Myfirst, _STD addressof(_My_data));

  01e26	8b 85 c8 fe ff
	ff		 mov	 eax, DWORD PTR __My_data$32[ebp]
  01e2c	8b 00		 mov	 eax, DWORD PTR [eax]
  01e2e	89 85 8c fd ff
	ff		 mov	 DWORD PTR ___param0$[ebp], eax

; 42   :     _Vector_const_iterator(_Tptr _Parg, const _Container_base* _Pvector) noexcept : _Ptr(_Parg) {

  01e34	8b 85 8c fd ff
	ff		 mov	 eax, DWORD PTR ___param0$[ebp]
  01e3a	89 85 88 fd ff
	ff		 mov	 DWORD PTR $T15[ebp], eax

; 1411 :         return iterator(_My_data._Myfirst, _STD addressof(_My_data));

  01e40	8d 85 88 fd ff
	ff		 lea	 eax, DWORD PTR $T15[ebp]
  01e46	89 85 b0 fc ff
	ff		 mov	 DWORD PTR $T6[ebp], eax
; File D:\Metin2 Server Files\mainline\SRC_2014\Metin2Client\GameLib\WeaponTrace.cpp

; 265  : 	for(lit = m_LongVertexVector.begin(), sit = m_ShortVertexVector.begin();

  01e4c	8b 85 b0 fc ff
	ff		 mov	 eax, DWORD PTR $T6[ebp]
  01e52	8b 00		 mov	 eax, DWORD PTR [eax]
  01e54	89 45 a4	 mov	 DWORD PTR _lit$[ebp], eax
; File C:\Program Files (x86)\Microsoft Visual Studio\2019\Community\VC\Tools\MSVC\14.28.29333\include\vector

; 1410 :         auto& _My_data = _Mypair._Myval2;

  01e57	8d 85 78 fc ff
	ff		 lea	 eax, DWORD PTR _m_ShortVertexVector$[ebp]
  01e5d	89 85 c4 fe ff
	ff		 mov	 DWORD PTR __My_data$31[ebp], eax
; File C:\Program Files (x86)\Microsoft Visual Studio\2019\Community\VC\Tools\MSVC\14.28.29333\include\xstddef

; 275  :     return __builtin_addressof(_Val);

  01e63	8b 85 c4 fe ff
	ff		 mov	 eax, DWORD PTR __My_data$31[ebp]
  01e69	89 85 74 fc ff
	ff		 mov	 DWORD PTR $T5[ebp], eax
; File C:\Program Files (x86)\Microsoft Visual Studio\2019\Community\VC\Tools\MSVC\14.28.29333\include\vector

; 1411 :         return iterator(_My_data._Myfirst, _STD addressof(_My_data));

  01e6f	8b 85 c4 fe ff
	ff		 mov	 eax, DWORD PTR __My_data$31[ebp]
  01e75	8b 00		 mov	 eax, DWORD PTR [eax]
  01e77	89 85 80 fd ff
	ff		 mov	 DWORD PTR ___param0$[ebp], eax

; 42   :     _Vector_const_iterator(_Tptr _Parg, const _Container_base* _Pvector) noexcept : _Ptr(_Parg) {

  01e7d	8b 85 80 fd ff
	ff		 mov	 eax, DWORD PTR ___param0$[ebp]
  01e83	89 85 7c fd ff
	ff		 mov	 DWORD PTR $T14[ebp], eax

; 1411 :         return iterator(_My_data._Myfirst, _STD addressof(_My_data));

  01e89	8d 85 7c fd ff
	ff		 lea	 eax, DWORD PTR $T14[ebp]
  01e8f	89 85 78 fd ff
	ff		 mov	 DWORD PTR $T13[ebp], eax
; File D:\Metin2 Server Files\mainline\SRC_2014\Metin2Client\GameLib\WeaponTrace.cpp

; 265  : 	for(lit = m_LongVertexVector.begin(), sit = m_ShortVertexVector.begin();

  01e95	8b 85 78 fd ff
	ff		 mov	 eax, DWORD PTR $T13[ebp]
  01e9b	8b 00		 mov	 eax, DWORD PTR [eax]
  01e9d	89 45 a0	 mov	 DWORD PTR _sit$[ebp], eax
  01ea0	eb 12		 jmp	 SHORT $LN861@BuildVerte
$LN22@BuildVerte:
; File C:\Program Files (x86)\Microsoft Visual Studio\2019\Community\VC\Tools\MSVC\14.28.29333\include\vector

; 75   :         ++_Ptr;

  01ea2	8b 45 a4	 mov	 eax, DWORD PTR _lit$[ebp]
  01ea5	83 c0 18	 add	 eax, 24			; 00000018H
  01ea8	89 45 a4	 mov	 DWORD PTR _lit$[ebp], eax
  01eab	8b 45 a0	 mov	 eax, DWORD PTR _sit$[ebp]
  01eae	83 c0 18	 add	 eax, 24			; 00000018H
  01eb1	89 45 a0	 mov	 DWORD PTR _sit$[ebp], eax
$LN861@BuildVerte:

; 1420 :         auto& _My_data = _Mypair._Myval2;

  01eb4	8d 85 a4 fc ff
	ff		 lea	 eax, DWORD PTR _m_LongVertexVector$[ebp]
  01eba	89 85 c0 fe ff
	ff		 mov	 DWORD PTR __My_data$30[ebp], eax
; File C:\Program Files (x86)\Microsoft Visual Studio\2019\Community\VC\Tools\MSVC\14.28.29333\include\xstddef

; 275  :     return __builtin_addressof(_Val);

  01ec0	8b 85 c0 fe ff
	ff		 mov	 eax, DWORD PTR __My_data$30[ebp]
  01ec6	89 85 70 fc ff
	ff		 mov	 DWORD PTR $T4[ebp], eax
; File C:\Program Files (x86)\Microsoft Visual Studio\2019\Community\VC\Tools\MSVC\14.28.29333\include\vector

; 1421 :         return iterator(_My_data._Mylast, _STD addressof(_My_data));

  01ecc	8b 85 c0 fe ff
	ff		 mov	 eax, DWORD PTR __My_data$30[ebp]
  01ed2	8b 40 04	 mov	 eax, DWORD PTR [eax+4]
  01ed5	89 85 74 fd ff
	ff		 mov	 DWORD PTR ___param0$[ebp], eax

; 42   :     _Vector_const_iterator(_Tptr _Parg, const _Container_base* _Pvector) noexcept : _Ptr(_Parg) {

  01edb	8b 85 74 fd ff
	ff		 mov	 eax, DWORD PTR ___param0$[ebp]
  01ee1	89 85 70 fd ff
	ff		 mov	 DWORD PTR $T12[ebp], eax

; 1421 :         return iterator(_My_data._Mylast, _STD addressof(_My_data));

  01ee7	8d 85 70 fd ff
	ff		 lea	 eax, DWORD PTR $T12[ebp]
  01eed	89 85 6c fd ff
	ff		 mov	 DWORD PTR $T11[ebp], eax

; 149  :         return _Ptr == _Right._Ptr;

  01ef3	8b 85 6c fd ff
	ff		 mov	 eax, DWORD PTR $T11[ebp]
  01ef9	8b 4d a4	 mov	 ecx, DWORD PTR _lit$[ebp]
  01efc	3b 08		 cmp	 ecx, DWORD PTR [eax]
  01efe	75 0c		 jne	 SHORT $LN889@BuildVerte
  01f00	c7 85 bc fe ff
	ff 01 00 00 00	 mov	 DWORD PTR tv3020[ebp], 1
  01f0a	eb 07		 jmp	 SHORT $LN890@BuildVerte
$LN889@BuildVerte:
  01f0c	83 a5 bc fe ff
	ff 00		 and	 DWORD PTR tv3020[ebp], 0
$LN890@BuildVerte:
  01f13	8a 85 bc fe ff
	ff		 mov	 al, BYTE PTR tv3020[ebp]
  01f19	88 45 c7	 mov	 BYTE PTR $T38[ebp], al

; 153  :         return !(*this == _Right);

  01f1c	0f b6 45 c7	 movzx	 eax, BYTE PTR $T38[ebp]
  01f20	85 c0		 test	 eax, eax
  01f22	75 0c		 jne	 SHORT $LN884@BuildVerte
  01f24	c7 85 b8 fe ff
	ff 01 00 00 00	 mov	 DWORD PTR tv3006[ebp], 1
  01f2e	eb 07		 jmp	 SHORT $LN885@BuildVerte
$LN884@BuildVerte:
  01f30	83 a5 b8 fe ff
	ff 00		 and	 DWORD PTR tv3006[ebp], 0
$LN885@BuildVerte:
  01f37	8a 85 b8 fe ff
	ff		 mov	 al, BYTE PTR tv3006[ebp]
  01f3d	88 45 c5	 mov	 BYTE PTR $T36[ebp], al
; File D:\Metin2 Server Files\mainline\SRC_2014\Metin2Client\GameLib\WeaponTrace.cpp

; 266  : 		lit != m_LongVertexVector.end();

  01f40	0f b6 45 c5	 movzx	 eax, BYTE PTR $T36[ebp]
  01f44	85 c0		 test	 eax, eax
  01f46	74 51		 je	 SHORT $LN23@BuildVerte
; File C:\Program Files (x86)\Microsoft Visual Studio\2019\Community\VC\Tools\MSVC\14.28.29333\include\vector

; 54   :         return *_Ptr;

  01f48	8b 45 a4	 mov	 eax, DWORD PTR _lit$[ebp]
  01f4b	89 85 68 fd ff
	ff		 mov	 DWORD PTR $T10[ebp], eax

; 252  :         return const_cast<reference>(_Mybase::operator*());

  01f51	8b 85 68 fd ff
	ff		 mov	 eax, DWORD PTR $T10[ebp]
  01f57	89 85 64 fd ff
	ff		 mov	 DWORD PTR $T9[ebp], eax

; 717  :         emplace_back(_Val);

  01f5d	ff b5 64 fd ff
	ff		 push	 DWORD PTR $T9[ebp]
; File D:\Metin2 Server Files\mainline\SRC_2014\Metin2Client\GameLib\WeaponTrace.cpp

; 269  : 			m_PDTVertexVector.push_back(*lit);

  01f63	8b 4d e8	 mov	 ecx, DWORD PTR _this$[ebp]
  01f66	83 c1 30	 add	 ecx, 48			; 00000030H
; File C:\Program Files (x86)\Microsoft Visual Studio\2019\Community\VC\Tools\MSVC\14.28.29333\include\vector

; 717  :         emplace_back(_Val);

  01f69	e8 00 00 00 00	 call	 ??$emplace_back@ABUSPDTVertex@@@?$vector@USPDTVertex@@V?$allocator@USPDTVertex@@@std@@@std@@QAEXABUSPDTVertex@@@Z ; std::vector<SPDTVertex,std::allocator<SPDTVertex> >::emplace_back<SPDTVertex const &>

; 54   :         return *_Ptr;

  01f6e	8b 45 a0	 mov	 eax, DWORD PTR _sit$[ebp]
  01f71	89 85 60 fd ff
	ff		 mov	 DWORD PTR $T8[ebp], eax

; 252  :         return const_cast<reference>(_Mybase::operator*());

  01f77	8b 85 60 fd ff
	ff		 mov	 eax, DWORD PTR $T8[ebp]
  01f7d	89 85 5c fd ff
	ff		 mov	 DWORD PTR $T7[ebp], eax

; 717  :         emplace_back(_Val);

  01f83	ff b5 5c fd ff
	ff		 push	 DWORD PTR $T7[ebp]
; File D:\Metin2 Server Files\mainline\SRC_2014\Metin2Client\GameLib\WeaponTrace.cpp

; 270  : 			m_PDTVertexVector.push_back(*sit);

  01f89	8b 4d e8	 mov	 ecx, DWORD PTR _this$[ebp]
  01f8c	83 c1 30	 add	 ecx, 48			; 00000030H
; File C:\Program Files (x86)\Microsoft Visual Studio\2019\Community\VC\Tools\MSVC\14.28.29333\include\vector

; 717  :         emplace_back(_Val);

  01f8f	e8 00 00 00 00	 call	 ??$emplace_back@ABUSPDTVertex@@@?$vector@USPDTVertex@@V?$allocator@USPDTVertex@@@std@@@std@@QAEXABUSPDTVertex@@@Z ; std::vector<SPDTVertex,std::allocator<SPDTVertex> >::emplace_back<SPDTVertex const &>
; File D:\Metin2 Server Files\mainline\SRC_2014\Metin2Client\GameLib\WeaponTrace.cpp

; 274  : 		}

  01f94	e9 09 ff ff ff	 jmp	 $LN22@BuildVerte
$LN23@BuildVerte:

; 276  : 	return true;

  01f99	c6 45 c6 01	 mov	 BYTE PTR $T37[ebp], 1
  01f9d	c6 45 fc 00	 mov	 BYTE PTR __$EHRec$[ebp+8], 0
; File C:\Program Files (x86)\Microsoft Visual Studio\2019\Community\VC\Tools\MSVC\14.28.29333\include\vector

; 673  :         _Tidy();

  01fa1	8d 8d a4 fc ff
	ff		 lea	 ecx, DWORD PTR _m_LongVertexVector$[ebp]
  01fa7	e8 00 00 00 00	 call	 ?_Tidy@?$vector@USPDTVertex@@V?$allocator@USPDTVertex@@@std@@@std@@AAEXXZ ; std::vector<SPDTVertex,std::allocator<SPDTVertex> >::_Tidy
; File D:\Metin2 Server Files\mainline\SRC_2014\Metin2Client\GameLib\WeaponTrace.cpp

; 276  : 	return true;

  01fac	83 4d fc ff	 or	 DWORD PTR __$EHRec$[ebp+8], -1
; File C:\Program Files (x86)\Microsoft Visual Studio\2019\Community\VC\Tools\MSVC\14.28.29333\include\vector

; 673  :         _Tidy();

  01fb0	8d 8d 78 fc ff
	ff		 lea	 ecx, DWORD PTR _m_ShortVertexVector$[ebp]
  01fb6	e8 00 00 00 00	 call	 ?_Tidy@?$vector@USPDTVertex@@V?$allocator@USPDTVertex@@@std@@@std@@AAEXXZ ; std::vector<SPDTVertex,std::allocator<SPDTVertex> >::_Tidy
; File D:\Metin2 Server Files\mainline\SRC_2014\Metin2Client\GameLib\WeaponTrace.cpp

; 276  : 	return true;

  01fbb	8a 45 c6	 mov	 al, BYTE PTR $T37[ebp]
$LN1@BuildVerte:

; 277  : }

  01fbe	8b 4d f4	 mov	 ecx, DWORD PTR __$EHRec$[ebp]
  01fc1	64 89 0d 00 00
	00 00		 mov	 DWORD PTR fs:0, ecx
  01fc8	59		 pop	 ecx
  01fc9	5f		 pop	 edi
  01fca	5e		 pop	 esi
  01fcb	8b 8d 50 19 00
	00		 mov	 ecx, DWORD PTR __$ArrayPad$[ebp]
  01fd1	33 cd		 xor	 ecx, ebp
  01fd3	e8 00 00 00 00	 call	 @__security_check_cookie@4
  01fd8	81 c5 54 19 00
	00		 add	 ebp, 6484		; 00001954H
  01fde	c9		 leave
  01fdf	c3		 ret	 0
_TEXT	ENDS
;	COMDAT text$x
text$x	SEGMENT
__unwindfunclet$?BuildVertex@CWeaponTrace@@IAE_NXZ$0:
  00000	8d 8d 78 fc ff
	ff		 lea	 ecx, DWORD PTR _m_ShortVertexVector$[ebp]
  00006	e9 00 00 00 00	 jmp	 ??1?$vector@USPDTVertex@@V?$allocator@USPDTVertex@@@std@@@std@@QAE@XZ ; std::vector<SPDTVertex,std::allocator<SPDTVertex> >::~vector<SPDTVertex,std::allocator<SPDTVertex> >
__unwindfunclet$?BuildVertex@CWeaponTrace@@IAE_NXZ$1:
  0000b	8d 8d a4 fc ff
	ff		 lea	 ecx, DWORD PTR _m_LongVertexVector$[ebp]
  00011	e9 00 00 00 00	 jmp	 ??1?$vector@USPDTVertex@@V?$allocator@USPDTVertex@@@std@@@std@@QAE@XZ ; std::vector<SPDTVertex,std::allocator<SPDTVertex> >::~vector<SPDTVertex,std::allocator<SPDTVertex> >
__unwindfunclet$?BuildVertex@CWeaponTrace@@IAE_NXZ$2:
  00016	8d 8d 5c fc ff
	ff		 lea	 ecx, DWORD PTR _it$2[ebp]
  0001c	e9 00 00 00 00	 jmp	 ??1?$_Deque_iterator@V?$_Deque_val@U?$_Deque_simple_types@U?$pair@MUD3DXVECTOR3@@@std@@@std@@@std@@@std@@QAE@XZ
  00021	cc		 int	 3
  00022	cc		 int	 3
  00023	cc		 int	 3
  00024	cc		 int	 3
  00025	cc		 int	 3
__ehhandler$?BuildVertex@CWeaponTrace@@IAE_NXZ:
  00026	90		 npad	 1
  00027	90		 npad	 1
  00028	8b 54 24 08	 mov	 edx, DWORD PTR [esp+8]
  0002c	8d 42 0c	 lea	 eax, DWORD PTR [edx+12]
  0002f	8b 8a 5c fc ff
	ff		 mov	 ecx, DWORD PTR [edx-932]
  00035	33 c8		 xor	 ecx, eax
  00037	e8 00 00 00 00	 call	 @__security_check_cookie@4
  0003c	8b 8a 5c 19 00
	00		 mov	 ecx, DWORD PTR [edx+6492]
  00042	33 c8		 xor	 ecx, eax
  00044	e8 00 00 00 00	 call	 @__security_check_cookie@4
  00049	b8 00 00 00 00	 mov	 eax, OFFSET __ehfuncinfo$?BuildVertex@CWeaponTrace@@IAE_NXZ
  0004e	e9 00 00 00 00	 jmp	 ___CxxFrameHandler3
text$x	ENDS
?BuildVertex@CWeaponTrace@@IAE_NXZ ENDP			; CWeaponTrace::BuildVertex
; Function compile flags: /Odspy
; File D:\Metin2 Server Files\mainline\SRC_2014\Metin2Client\GameLib\WeaponTrace.cpp
; File D:\Metin2 Server Files\mainline\SRC_2014\Metin2Client\eterBase\Singleton.h
; File D:\Metin2 Server Files\mainline\SRC_2014\Metin2Client\GameLib\WeaponTrace.cpp
;	COMDAT ?Initialize@CWeaponTrace@@QAEXXZ
_TEXT	SEGMENT
$T1 = -8						; size = 4
_this$ = -4						; size = 4
?Initialize@CWeaponTrace@@QAEXXZ PROC			; CWeaponTrace::Initialize, COMDAT
; _this$ = ecx

; 444  : {

  00000	55		 push	 ebp
  00001	8b ec		 mov	 ebp, esp
  00003	51		 push	 ecx
  00004	51		 push	 ecx
  00005	89 4d fc	 mov	 DWORD PTR _this$[ebp], ecx

; 445  : 	m_pInstance = NULL;

  00008	8b 45 fc	 mov	 eax, DWORD PTR _this$[ebp]
  0000b	83 60 44 00	 and	 DWORD PTR [eax+68], 0

; 446  : 	m_dwModelInstanceIndex = 0;

  0000f	8b 45 fc	 mov	 eax, DWORD PTR _this$[ebp]
  00012	83 60 48 00	 and	 DWORD PTR [eax+72], 0

; 447  : 	
; 448  : 	m_fx = 0.0f;

  00016	8b 45 fc	 mov	 eax, DWORD PTR _this$[ebp]
  00019	0f 57 c0	 xorps	 xmm0, xmm0
  0001c	f3 0f 11 40 6c	 movss	 DWORD PTR [eax+108], xmm0

; 449  : 	m_fy = 0.0f;

  00021	8b 45 fc	 mov	 eax, DWORD PTR _this$[ebp]
  00024	0f 57 c0	 xorps	 xmm0, xmm0
  00027	f3 0f 11 40 70	 movss	 DWORD PTR [eax+112], xmm0

; 450  : 	m_fz = 0.0f;

  0002c	8b 45 fc	 mov	 eax, DWORD PTR _this$[ebp]
  0002f	0f 57 c0	 xorps	 xmm0, xmm0
  00032	f3 0f 11 40 74	 movss	 DWORD PTR [eax+116], xmm0

; 451  : 	m_fRotation = 0.0f;

  00037	8b 45 fc	 mov	 eax, DWORD PTR _this$[ebp]
  0003a	0f 57 c0	 xorps	 xmm0, xmm0
  0003d	f3 0f 11 40 78	 movss	 DWORD PTR [eax+120], xmm0

; 452  : 	
; 453  : 	m_fLifeTime = 0.18f;

  00042	8b 45 fc	 mov	 eax, DWORD PTR _this$[ebp]
  00045	f3 0f 10 05 00
	00 00 00	 movss	 xmm0, DWORD PTR __real@3e3851ec
  0004d	f3 0f 11 40 3c	 movss	 DWORD PTR [eax+60], xmm0

; 454  : 	//m_fLifeTime = 3.0f;
; 455  : 	m_fSamplingTime = 0.003f;

  00052	8b 45 fc	 mov	 eax, DWORD PTR _this$[ebp]
  00055	f3 0f 10 05 00
	00 00 00	 movss	 xmm0, DWORD PTR __real@3b449ba6
  0005d	f3 0f 11 40 40	 movss	 DWORD PTR [eax+64], xmm0

; 456  : 	//m_fLifeTime = 3.0f;
; 457  : 	//m_fSamplingTime = 0.003f;
; 458  : 	
; 459  : 	m_isPlaying = FALSE;

  00062	8b 45 fc	 mov	 eax, DWORD PTR _this$[ebp]
  00065	83 a0 80 00 00
	00 00		 and	 DWORD PTR [eax+128], 0

; 460  : 	
; 461  : 	m_bUseTexture = false;

  0006c	8b 45 fc	 mov	 eax, DWORD PTR _this$[ebp]
  0006f	c6 80 84 00 00
	00 00		 mov	 BYTE PTR [eax+132], 0

; 462  : 	
; 463  : 	m_iBoneIndex = 0;

  00076	8b 45 fc	 mov	 eax, DWORD PTR _this$[ebp]
  00079	83 a0 88 00 00
	00 00		 and	 DWORD PTR [eax+136], 0
; File D:\Metin2 Server Files\mainline\SRC_2014\Metin2Client\eterBase\Singleton.h

; 27   : 		return (*ms_singleton);

  00080	a1 00 00 00 00	 mov	 eax, DWORD PTR ?ms_singleton@?$CSingleton@VCTimer@@@@0PAVCTimer@@A ; CSingleton<CTimer>::ms_singleton
  00085	89 45 f8	 mov	 DWORD PTR $T1[ebp], eax
; File D:\Metin2 Server Files\mainline\SRC_2014\Metin2Client\GameLib\WeaponTrace.cpp

; 465  : 	m_fLastUpdate = CTimer::Instance().GetCurrentSecond();

  00088	8b 4d f8	 mov	 ecx, DWORD PTR $T1[ebp]
  0008b	e8 00 00 00 00	 call	 ?GetCurrentSecond@CTimer@@QAEMXZ ; CTimer::GetCurrentSecond
  00090	8b 45 fc	 mov	 eax, DWORD PTR _this$[ebp]
  00093	d9 58 04	 fstp	 DWORD PTR [eax+4]

; 466  : 	///////////////////////////////////////////////////////////////////////
; 467  : 	
; 468  : 	//const int c_iSplineCount = 8;
; 469  : 	//m_SplineValueVector.clear();
; 470  : 	//m_SplineValueVector.resize(c_iSplineCount);
; 471  : 	
; 472  : 	//for (int i = 0; i < c_iSplineCount; ++i)
; 473  : 	//{
; 474  : 	//	float fValue = float(i) / float(c_iSplineCount);
; 475  : 	//	m_SplineValueVector[i].fValue1 = fValue;
; 476  : 	//	m_SplineValueVector[i].fValue2 = fValue * fValue;
; 477  : 	//	m_SplineValueVector[i].fValue3 = fValue * fValue * fValue;
; 478  : 	//}
; 479  : 
; 480  : }

  00096	c9		 leave
  00097	c3		 ret	 0
?Initialize@CWeaponTrace@@QAEXXZ ENDP			; CWeaponTrace::Initialize
_TEXT	ENDS
; Function compile flags: /Odspy
; File D:\Metin2 Server Files\mainline\SRC_2014\Metin2Client\GameLib\WeaponTrace.cpp
; File C:\Program Files (x86)\Microsoft Visual Studio\2019\Community\VC\Tools\MSVC\14.28.29333\include\vector
; File D:\Metin2 Server Files\mainline\SRC_2014\Metin2Client\GameLib\WeaponTrace.cpp
; File D:\Metin2 Server Files\mainline\SRC_2014\M2Data\include\d3dx8math.inl
; File D:\Metin2 Server Files\mainline\SRC_2014\Metin2Client\GameLib\WeaponTrace.cpp
; File C:\Program Files (x86)\Microsoft Visual Studio\2019\Community\VC\Tools\MSVC\14.28.29333\include\vector
; File D:\Metin2 Server Files\mainline\SRC_2014\Metin2Client\GameLib\WeaponTrace.cpp
;	COMDAT ?Render@CWeaponTrace@@QAEXXZ
_TEXT	SEGMENT
$T1 = -108						; size = 4
$T2 = -104						; size = 4
__My_data$3 = -100					; size = 4
_lpTexture$ = -96					; size = 4
$T4 = -92						; size = 4
__My_data$5 = -88					; size = 4
tv191 = -84						; size = 4
tv172 = -80						; size = 4
__My_data$6 = -76					; size = 4
_this$ = -72						; size = 4
_matWorld$ = -68					; size = 64
__$ArrayPad$ = -4					; size = 4
?Render@CWeaponTrace@@QAEXXZ PROC			; CWeaponTrace::Render, COMDAT
; _this$ = ecx

; 280  : {

  00000	55		 push	 ebp
  00001	8b ec		 mov	 ebp, esp
  00003	83 ec 6c	 sub	 esp, 108		; 0000006cH
  00006	a1 00 00 00 00	 mov	 eax, DWORD PTR ___security_cookie
  0000b	33 c5		 xor	 eax, ebp
  0000d	89 45 fc	 mov	 DWORD PTR __$ArrayPad$[ebp], eax
  00010	89 4d b8	 mov	 DWORD PTR _this$[ebp], ecx

; 281  : 	//if (!m_isPlaying)
; 282  : 	//	return;
; 283  : 	//if (m_CurvingTraceVector.size() < 4)
; 284  : 	//	return;
; 285  : 
; 286  : 	if (!BuildVertex())

  00013	8b 4d b8	 mov	 ecx, DWORD PTR _this$[ebp]
  00016	e8 00 00 00 00	 call	 ?BuildVertex@CWeaponTrace@@IAE_NXZ ; CWeaponTrace::BuildVertex
  0001b	0f b6 c0	 movzx	 eax, al
  0001e	85 c0		 test	 eax, eax
  00020	75 05		 jne	 SHORT $LN2@Render

; 287  : 		return;

  00022	e9 63 04 00 00	 jmp	 $LN1@Render
$LN2@Render:
; File C:\Program Files (x86)\Microsoft Visual Studio\2019\Community\VC\Tools\MSVC\14.28.29333\include\vector

; 1483 :         auto& _My_data = _Mypair._Myval2;

  00027	8b 45 b8	 mov	 eax, DWORD PTR _this$[ebp]
  0002a	83 c0 30	 add	 eax, 48			; 00000030H
  0002d	89 45 b4	 mov	 DWORD PTR __My_data$6[ebp], eax

; 1484 :         return static_cast<size_type>(_My_data._Mylast - _My_data._Myfirst);

  00030	8b 45 b4	 mov	 eax, DWORD PTR __My_data$6[ebp]
  00033	8b 4d b4	 mov	 ecx, DWORD PTR __My_data$6[ebp]
  00036	8b 40 04	 mov	 eax, DWORD PTR [eax+4]
  00039	2b 01		 sub	 eax, DWORD PTR [ecx]
  0003b	99		 cdq
  0003c	6a 18		 push	 24			; 00000018H
  0003e	59		 pop	 ecx
  0003f	f7 f9		 idiv	 ecx
  00041	89 45 a4	 mov	 DWORD PTR $T4[ebp], eax
; File D:\Metin2 Server Files\mainline\SRC_2014\Metin2Client\GameLib\WeaponTrace.cpp

; 289  : 	if (m_PDTVertexVector.size()<4) 

  00044	83 7d a4 04	 cmp	 DWORD PTR $T4[ebp], 4
  00048	73 05		 jae	 SHORT $LN3@Render

; 290  : 		return;

  0004a	e9 3b 04 00 00	 jmp	 $LN1@Render
$LN3@Render:

; 291  : 
; 292  : 
; 293  : 	LPDIRECT3DTEXTURE8 lpTexture=NULL;

  0004f	83 65 a0 00	 and	 DWORD PTR _lpTexture$[ebp], 0
; File D:\Metin2 Server Files\mainline\SRC_2014\M2Data\include\d3dx8math.inl

; 1516 :     pOut->m[0][1] = pOut->m[0][2] = pOut->m[0][3] =

  00053	6a 10		 push	 16			; 00000010H
  00055	58		 pop	 eax
  00056	6b c0 03	 imul	 eax, eax, 3
  00059	8d 44 05 bc	 lea	 eax, DWORD PTR _matWorld$[ebp+eax]
  0005d	6a 04		 push	 4
  0005f	59		 pop	 ecx
  00060	d1 e1		 shl	 ecx, 1
  00062	0f 57 c0	 xorps	 xmm0, xmm0
  00065	f3 0f 11 04 08	 movss	 DWORD PTR [eax+ecx], xmm0
  0006a	6a 10		 push	 16			; 00000010H
  0006c	58		 pop	 eax
  0006d	6b c0 03	 imul	 eax, eax, 3
  00070	8d 44 05 bc	 lea	 eax, DWORD PTR _matWorld$[ebp+eax]
  00074	6a 04		 push	 4
  00076	59		 pop	 ecx
  00077	c1 e1 00	 shl	 ecx, 0
  0007a	0f 57 c0	 xorps	 xmm0, xmm0
  0007d	f3 0f 11 04 08	 movss	 DWORD PTR [eax+ecx], xmm0
  00082	6a 10		 push	 16			; 00000010H
  00084	58		 pop	 eax
  00085	6b c0 03	 imul	 eax, eax, 3
  00088	8d 44 05 bc	 lea	 eax, DWORD PTR _matWorld$[ebp+eax]
  0008c	6a 04		 push	 4
  0008e	59		 pop	 ecx
  0008f	6b c9 00	 imul	 ecx, ecx, 0
  00092	0f 57 c0	 xorps	 xmm0, xmm0
  00095	f3 0f 11 04 08	 movss	 DWORD PTR [eax+ecx], xmm0
  0009a	6a 10		 push	 16			; 00000010H
  0009c	58		 pop	 eax
  0009d	d1 e0		 shl	 eax, 1
  0009f	8d 44 05 bc	 lea	 eax, DWORD PTR _matWorld$[ebp+eax]
  000a3	6a 04		 push	 4
  000a5	59		 pop	 ecx
  000a6	6b c9 03	 imul	 ecx, ecx, 3
  000a9	0f 57 c0	 xorps	 xmm0, xmm0
  000ac	f3 0f 11 04 08	 movss	 DWORD PTR [eax+ecx], xmm0
  000b1	6a 10		 push	 16			; 00000010H
  000b3	58		 pop	 eax
  000b4	d1 e0		 shl	 eax, 1
  000b6	8d 44 05 bc	 lea	 eax, DWORD PTR _matWorld$[ebp+eax]
  000ba	6a 04		 push	 4
  000bc	59		 pop	 ecx
  000bd	c1 e1 00	 shl	 ecx, 0
  000c0	0f 57 c0	 xorps	 xmm0, xmm0
  000c3	f3 0f 11 04 08	 movss	 DWORD PTR [eax+ecx], xmm0
  000c8	6a 10		 push	 16			; 00000010H
  000ca	58		 pop	 eax
  000cb	d1 e0		 shl	 eax, 1
  000cd	8d 44 05 bc	 lea	 eax, DWORD PTR _matWorld$[ebp+eax]
  000d1	6a 04		 push	 4
  000d3	59		 pop	 ecx
  000d4	6b c9 00	 imul	 ecx, ecx, 0
  000d7	0f 57 c0	 xorps	 xmm0, xmm0
  000da	f3 0f 11 04 08	 movss	 DWORD PTR [eax+ecx], xmm0
  000df	6a 10		 push	 16			; 00000010H
  000e1	58		 pop	 eax
  000e2	c1 e0 00	 shl	 eax, 0
  000e5	8d 44 05 bc	 lea	 eax, DWORD PTR _matWorld$[ebp+eax]
  000e9	6a 04		 push	 4
  000eb	59		 pop	 ecx
  000ec	6b c9 03	 imul	 ecx, ecx, 3
  000ef	0f 57 c0	 xorps	 xmm0, xmm0
  000f2	f3 0f 11 04 08	 movss	 DWORD PTR [eax+ecx], xmm0
  000f7	6a 10		 push	 16			; 00000010H
  000f9	58		 pop	 eax
  000fa	c1 e0 00	 shl	 eax, 0
  000fd	8d 44 05 bc	 lea	 eax, DWORD PTR _matWorld$[ebp+eax]
  00101	6a 04		 push	 4
  00103	59		 pop	 ecx
  00104	d1 e1		 shl	 ecx, 1
  00106	0f 57 c0	 xorps	 xmm0, xmm0
  00109	f3 0f 11 04 08	 movss	 DWORD PTR [eax+ecx], xmm0
  0010e	6a 10		 push	 16			; 00000010H
  00110	58		 pop	 eax
  00111	c1 e0 00	 shl	 eax, 0
  00114	8d 44 05 bc	 lea	 eax, DWORD PTR _matWorld$[ebp+eax]
  00118	6a 04		 push	 4
  0011a	59		 pop	 ecx
  0011b	6b c9 00	 imul	 ecx, ecx, 0
  0011e	0f 57 c0	 xorps	 xmm0, xmm0
  00121	f3 0f 11 04 08	 movss	 DWORD PTR [eax+ecx], xmm0
  00126	6a 10		 push	 16			; 00000010H
  00128	58		 pop	 eax
  00129	6b c0 00	 imul	 eax, eax, 0
  0012c	8d 44 05 bc	 lea	 eax, DWORD PTR _matWorld$[ebp+eax]
  00130	6a 04		 push	 4
  00132	59		 pop	 ecx
  00133	6b c9 03	 imul	 ecx, ecx, 3
  00136	0f 57 c0	 xorps	 xmm0, xmm0
  00139	f3 0f 11 04 08	 movss	 DWORD PTR [eax+ecx], xmm0
  0013e	6a 10		 push	 16			; 00000010H
  00140	58		 pop	 eax
  00141	6b c0 00	 imul	 eax, eax, 0
  00144	8d 44 05 bc	 lea	 eax, DWORD PTR _matWorld$[ebp+eax]
  00148	6a 04		 push	 4
  0014a	59		 pop	 ecx
  0014b	d1 e1		 shl	 ecx, 1
  0014d	0f 57 c0	 xorps	 xmm0, xmm0
  00150	f3 0f 11 04 08	 movss	 DWORD PTR [eax+ecx], xmm0
  00155	6a 10		 push	 16			; 00000010H
  00157	58		 pop	 eax
  00158	6b c0 00	 imul	 eax, eax, 0
  0015b	8d 44 05 bc	 lea	 eax, DWORD PTR _matWorld$[ebp+eax]
  0015f	6a 04		 push	 4
  00161	59		 pop	 ecx
  00162	c1 e1 00	 shl	 ecx, 0
  00165	0f 57 c0	 xorps	 xmm0, xmm0
  00168	f3 0f 11 04 08	 movss	 DWORD PTR [eax+ecx], xmm0

; 1517 :     pOut->m[1][0] = pOut->m[1][2] = pOut->m[1][3] =
; 1518 :     pOut->m[2][0] = pOut->m[2][1] = pOut->m[2][3] =
; 1519 :     pOut->m[3][0] = pOut->m[3][1] = pOut->m[3][2] = 0.0f;
; 1520 : 
; 1521 :     pOut->m[0][0] = pOut->m[1][1] = pOut->m[2][2] = pOut->m[3][3] = 1.0f;

  0016d	6a 10		 push	 16			; 00000010H
  0016f	58		 pop	 eax
  00170	6b c0 03	 imul	 eax, eax, 3
  00173	8d 44 05 bc	 lea	 eax, DWORD PTR _matWorld$[ebp+eax]
  00177	6a 04		 push	 4
  00179	59		 pop	 ecx
  0017a	6b c9 03	 imul	 ecx, ecx, 3
  0017d	f3 0f 10 05 00
	00 00 00	 movss	 xmm0, DWORD PTR __real@3f800000
  00185	f3 0f 11 04 08	 movss	 DWORD PTR [eax+ecx], xmm0
  0018a	6a 10		 push	 16			; 00000010H
  0018c	58		 pop	 eax
  0018d	d1 e0		 shl	 eax, 1
  0018f	8d 44 05 bc	 lea	 eax, DWORD PTR _matWorld$[ebp+eax]
  00193	6a 04		 push	 4
  00195	59		 pop	 ecx
  00196	d1 e1		 shl	 ecx, 1
  00198	f3 0f 10 05 00
	00 00 00	 movss	 xmm0, DWORD PTR __real@3f800000
  001a0	f3 0f 11 04 08	 movss	 DWORD PTR [eax+ecx], xmm0
  001a5	6a 10		 push	 16			; 00000010H
  001a7	58		 pop	 eax
  001a8	c1 e0 00	 shl	 eax, 0
  001ab	8d 44 05 bc	 lea	 eax, DWORD PTR _matWorld$[ebp+eax]
  001af	6a 04		 push	 4
  001b1	59		 pop	 ecx
  001b2	c1 e1 00	 shl	 ecx, 0
  001b5	f3 0f 10 05 00
	00 00 00	 movss	 xmm0, DWORD PTR __real@3f800000
  001bd	f3 0f 11 04 08	 movss	 DWORD PTR [eax+ecx], xmm0
  001c2	6a 10		 push	 16			; 00000010H
  001c4	58		 pop	 eax
  001c5	6b c0 00	 imul	 eax, eax, 0
  001c8	8d 44 05 bc	 lea	 eax, DWORD PTR _matWorld$[ebp+eax]
  001cc	6a 04		 push	 4
  001ce	59		 pop	 ecx
  001cf	6b c9 00	 imul	 ecx, ecx, 0
  001d2	f3 0f 10 05 00
	00 00 00	 movss	 xmm0, DWORD PTR __real@3f800000
  001da	f3 0f 11 04 08	 movss	 DWORD PTR [eax+ecx], xmm0
; File D:\Metin2 Server Files\mainline\SRC_2014\Metin2Client\GameLib\WeaponTrace.cpp

; 299  : 	STATEMANAGER.SaveTransform(D3DTS_WORLD, &matWorld);

  001df	8d 45 bc	 lea	 eax, DWORD PTR _matWorld$[ebp]
  001e2	50		 push	 eax
  001e3	68 00 01 00 00	 push	 256			; 00000100H
  001e8	8b 0d 00 00 00
	00		 mov	 ecx, DWORD PTR ?ms_singleton@?$CSingleton@VCStateManager@@@@0PAVCStateManager@@A ; CSingleton<CStateManager>::ms_singleton
  001ee	e8 00 00 00 00	 call	 ?SaveTransform@CStateManager@@QAEXW4_D3DTRANSFORMSTATETYPE@@PBU_D3DMATRIX@@@Z ; CStateManager::SaveTransform

; 300  : 	STATEMANAGER.SaveVertexShader(D3DFVF_XYZ | D3DFVF_DIFFUSE | D3DFVF_TEX1);

  001f3	68 42 01 00 00	 push	 322			; 00000142H
  001f8	8b 0d 00 00 00
	00		 mov	 ecx, DWORD PTR ?ms_singleton@?$CSingleton@VCStateManager@@@@0PAVCStateManager@@A ; CSingleton<CStateManager>::ms_singleton
  001fe	e8 00 00 00 00	 call	 ?SaveVertexShader@CStateManager@@QAEXK@Z ; CStateManager::SaveVertexShader

; 301  : 	STATEMANAGER.SaveRenderState(D3DRS_CULLMODE, D3DCULL_NONE);

  00203	6a 01		 push	 1
  00205	6a 16		 push	 22			; 00000016H
  00207	8b 0d 00 00 00
	00		 mov	 ecx, DWORD PTR ?ms_singleton@?$CSingleton@VCStateManager@@@@0PAVCStateManager@@A ; CSingleton<CStateManager>::ms_singleton
  0020d	e8 00 00 00 00	 call	 ?SaveRenderState@CStateManager@@QAEXW4_D3DRENDERSTATETYPE@@K@Z ; CStateManager::SaveRenderState

; 302  : 
; 303  : 	STATEMANAGER.SaveRenderState(D3DRS_ALPHABLENDENABLE, TRUE);

  00212	6a 01		 push	 1
  00214	6a 1b		 push	 27			; 0000001bH
  00216	8b 0d 00 00 00
	00		 mov	 ecx, DWORD PTR ?ms_singleton@?$CSingleton@VCStateManager@@@@0PAVCStateManager@@A ; CSingleton<CStateManager>::ms_singleton
  0021c	e8 00 00 00 00	 call	 ?SaveRenderState@CStateManager@@QAEXW4_D3DRENDERSTATETYPE@@K@Z ; CStateManager::SaveRenderState

; 304  : 	STATEMANAGER.SaveRenderState(D3DRS_SRCBLEND, D3DBLEND_SRCALPHA);

  00221	6a 05		 push	 5
  00223	6a 13		 push	 19			; 00000013H
  00225	8b 0d 00 00 00
	00		 mov	 ecx, DWORD PTR ?ms_singleton@?$CSingleton@VCStateManager@@@@0PAVCStateManager@@A ; CSingleton<CStateManager>::ms_singleton
  0022b	e8 00 00 00 00	 call	 ?SaveRenderState@CStateManager@@QAEXW4_D3DRENDERSTATETYPE@@K@Z ; CStateManager::SaveRenderState

; 305  : 	STATEMANAGER.SaveRenderState(D3DRS_DESTBLEND, D3DBLEND_INVSRCALPHA);

  00230	6a 06		 push	 6
  00232	6a 14		 push	 20			; 00000014H
  00234	8b 0d 00 00 00
	00		 mov	 ecx, DWORD PTR ?ms_singleton@?$CSingleton@VCStateManager@@@@0PAVCStateManager@@A ; CSingleton<CStateManager>::ms_singleton
  0023a	e8 00 00 00 00	 call	 ?SaveRenderState@CStateManager@@QAEXW4_D3DRENDERSTATETYPE@@K@Z ; CStateManager::SaveRenderState

; 306  : 
; 307  : 	STATEMANAGER.SaveRenderState(D3DRS_ALPHATESTENABLE, FALSE);

  0023f	6a 00		 push	 0
  00241	6a 0f		 push	 15			; 0000000fH
  00243	8b 0d 00 00 00
	00		 mov	 ecx, DWORD PTR ?ms_singleton@?$CSingleton@VCStateManager@@@@0PAVCStateManager@@A ; CSingleton<CStateManager>::ms_singleton
  00249	e8 00 00 00 00	 call	 ?SaveRenderState@CStateManager@@QAEXW4_D3DRENDERSTATETYPE@@K@Z ; CStateManager::SaveRenderState

; 308  : 	STATEMANAGER.SaveRenderState(D3DRS_ALPHAREF, 0x00000011);

  0024e	6a 11		 push	 17			; 00000011H
  00250	6a 18		 push	 24			; 00000018H
  00252	8b 0d 00 00 00
	00		 mov	 ecx, DWORD PTR ?ms_singleton@?$CSingleton@VCStateManager@@@@0PAVCStateManager@@A ; CSingleton<CStateManager>::ms_singleton
  00258	e8 00 00 00 00	 call	 ?SaveRenderState@CStateManager@@QAEXW4_D3DRENDERSTATETYPE@@K@Z ; CStateManager::SaveRenderState

; 309  : 	STATEMANAGER.SaveRenderState(D3DRS_ALPHAFUNC, D3DCMP_GREATER);

  0025d	6a 05		 push	 5
  0025f	6a 19		 push	 25			; 00000019H
  00261	8b 0d 00 00 00
	00		 mov	 ecx, DWORD PTR ?ms_singleton@?$CSingleton@VCStateManager@@@@0PAVCStateManager@@A ; CSingleton<CStateManager>::ms_singleton
  00267	e8 00 00 00 00	 call	 ?SaveRenderState@CStateManager@@QAEXW4_D3DRENDERSTATETYPE@@K@Z ; CStateManager::SaveRenderState

; 310  : 
; 311  : 	STATEMANAGER.SaveRenderState(D3DRS_ZENABLE, TRUE);

  0026c	6a 01		 push	 1
  0026e	6a 07		 push	 7
  00270	8b 0d 00 00 00
	00		 mov	 ecx, DWORD PTR ?ms_singleton@?$CSingleton@VCStateManager@@@@0PAVCStateManager@@A ; CSingleton<CStateManager>::ms_singleton
  00276	e8 00 00 00 00	 call	 ?SaveRenderState@CStateManager@@QAEXW4_D3DRENDERSTATETYPE@@K@Z ; CStateManager::SaveRenderState

; 312  : 	STATEMANAGER.SaveRenderState(D3DRS_ZFUNC, D3DCMP_LESSEQUAL);

  0027b	6a 04		 push	 4
  0027d	6a 17		 push	 23			; 00000017H
  0027f	8b 0d 00 00 00
	00		 mov	 ecx, DWORD PTR ?ms_singleton@?$CSingleton@VCStateManager@@@@0PAVCStateManager@@A ; CSingleton<CStateManager>::ms_singleton
  00285	e8 00 00 00 00	 call	 ?SaveRenderState@CStateManager@@QAEXW4_D3DRENDERSTATETYPE@@K@Z ; CStateManager::SaveRenderState

; 313  : 	STATEMANAGER.SaveRenderState(D3DRS_ZWRITEENABLE, FALSE);

  0028a	6a 00		 push	 0
  0028c	6a 0e		 push	 14			; 0000000eH
  0028e	8b 0d 00 00 00
	00		 mov	 ecx, DWORD PTR ?ms_singleton@?$CSingleton@VCStateManager@@@@0PAVCStateManager@@A ; CSingleton<CStateManager>::ms_singleton
  00294	e8 00 00 00 00	 call	 ?SaveRenderState@CStateManager@@QAEXW4_D3DRENDERSTATETYPE@@K@Z ; CStateManager::SaveRenderState

; 314  : 
; 315  : 	STATEMANAGER.SetTextureStageState(0, D3DTSS_COLORARG1, D3DTA_DIFFUSE);

  00299	6a 00		 push	 0
  0029b	6a 02		 push	 2
  0029d	6a 00		 push	 0
  0029f	8b 0d 00 00 00
	00		 mov	 ecx, DWORD PTR ?ms_singleton@?$CSingleton@VCStateManager@@@@0PAVCStateManager@@A ; CSingleton<CStateManager>::ms_singleton
  002a5	e8 00 00 00 00	 call	 ?SetTextureStageState@CStateManager@@QAEXKW4_D3DTEXTURESTAGESTATETYPE@@K@Z ; CStateManager::SetTextureStageState

; 316  : 	STATEMANAGER.SetTextureStageState(0, D3DTSS_COLORARG2, D3DTA_TEXTURE);

  002aa	6a 02		 push	 2
  002ac	6a 03		 push	 3
  002ae	6a 00		 push	 0
  002b0	8b 0d 00 00 00
	00		 mov	 ecx, DWORD PTR ?ms_singleton@?$CSingleton@VCStateManager@@@@0PAVCStateManager@@A ; CSingleton<CStateManager>::ms_singleton
  002b6	e8 00 00 00 00	 call	 ?SetTextureStageState@CStateManager@@QAEXKW4_D3DTEXTURESTAGESTATETYPE@@K@Z ; CStateManager::SetTextureStageState

; 317  : 	STATEMANAGER.SetTextureStageState(0, D3DTSS_COLOROP, (m_bUseTexture)?D3DTOP_SELECTARG2:D3DTOP_SELECTARG1);

  002bb	8b 45 b8	 mov	 eax, DWORD PTR _this$[ebp]
  002be	0f b6 80 84 00
	00 00		 movzx	 eax, BYTE PTR [eax+132]
  002c5	85 c0		 test	 eax, eax
  002c7	74 09		 je	 SHORT $LN5@Render
  002c9	c7 45 b0 03 00
	00 00		 mov	 DWORD PTR tv172[ebp], 3
  002d0	eb 07		 jmp	 SHORT $LN6@Render
$LN5@Render:
  002d2	c7 45 b0 02 00
	00 00		 mov	 DWORD PTR tv172[ebp], 2
$LN6@Render:
  002d9	ff 75 b0	 push	 DWORD PTR tv172[ebp]
  002dc	6a 01		 push	 1
  002de	6a 00		 push	 0
  002e0	8b 0d 00 00 00
	00		 mov	 ecx, DWORD PTR ?ms_singleton@?$CSingleton@VCStateManager@@@@0PAVCStateManager@@A ; CSingleton<CStateManager>::ms_singleton
  002e6	e8 00 00 00 00	 call	 ?SetTextureStageState@CStateManager@@QAEXKW4_D3DTEXTURESTAGESTATETYPE@@K@Z ; CStateManager::SetTextureStageState

; 318  : 	//STATEMANAGER.SetTextureStageState(0, D3DTSS_COLOROP, D3DTOP_SELECTARG1);
; 319  : 	//STATEMANAGER.SetTextureStageState(0, D3DTSS_COLOROP, D3DTOP_MODULATE);
; 320  : 	STATEMANAGER.SetTextureStageState(0, D3DTSS_ALPHAARG1, D3DTA_DIFFUSE);

  002eb	6a 00		 push	 0
  002ed	6a 05		 push	 5
  002ef	6a 00		 push	 0
  002f1	8b 0d 00 00 00
	00		 mov	 ecx, DWORD PTR ?ms_singleton@?$CSingleton@VCStateManager@@@@0PAVCStateManager@@A ; CSingleton<CStateManager>::ms_singleton
  002f7	e8 00 00 00 00	 call	 ?SetTextureStageState@CStateManager@@QAEXKW4_D3DTEXTURESTAGESTATETYPE@@K@Z ; CStateManager::SetTextureStageState

; 321  : 	STATEMANAGER.SetTextureStageState(0, D3DTSS_ALPHAARG2, D3DTA_TEXTURE);

  002fc	6a 02		 push	 2
  002fe	6a 06		 push	 6
  00300	6a 00		 push	 0
  00302	8b 0d 00 00 00
	00		 mov	 ecx, DWORD PTR ?ms_singleton@?$CSingleton@VCStateManager@@@@0PAVCStateManager@@A ; CSingleton<CStateManager>::ms_singleton
  00308	e8 00 00 00 00	 call	 ?SetTextureStageState@CStateManager@@QAEXKW4_D3DTEXTURESTAGESTATETYPE@@K@Z ; CStateManager::SetTextureStageState

; 322  : 	//STATEMANAGER.SetTextureStageState(0, D3DTSS_ALPHAOP, D3DTOP_MODULATE);
; 323  : 	STATEMANAGER.SetTextureStageState(0, D3DTSS_ALPHAOP, (m_bUseTexture)?D3DTOP_SELECTARG2:D3DTOP_SELECTARG1);

  0030d	8b 45 b8	 mov	 eax, DWORD PTR _this$[ebp]
  00310	0f b6 80 84 00
	00 00		 movzx	 eax, BYTE PTR [eax+132]
  00317	85 c0		 test	 eax, eax
  00319	74 09		 je	 SHORT $LN7@Render
  0031b	c7 45 ac 03 00
	00 00		 mov	 DWORD PTR tv191[ebp], 3
  00322	eb 07		 jmp	 SHORT $LN8@Render
$LN7@Render:
  00324	c7 45 ac 02 00
	00 00		 mov	 DWORD PTR tv191[ebp], 2
$LN8@Render:
  0032b	ff 75 ac	 push	 DWORD PTR tv191[ebp]
  0032e	6a 04		 push	 4
  00330	6a 00		 push	 0
  00332	8b 0d 00 00 00
	00		 mov	 ecx, DWORD PTR ?ms_singleton@?$CSingleton@VCStateManager@@@@0PAVCStateManager@@A ; CSingleton<CStateManager>::ms_singleton
  00338	e8 00 00 00 00	 call	 ?SetTextureStageState@CStateManager@@QAEXKW4_D3DTEXTURESTAGESTATETYPE@@K@Z ; CStateManager::SetTextureStageState

; 324  : 	STATEMANAGER.SetTextureStageState(1, D3DTSS_COLOROP, D3DTOP_DISABLE);

  0033d	6a 01		 push	 1
  0033f	6a 01		 push	 1
  00341	6a 01		 push	 1
  00343	8b 0d 00 00 00
	00		 mov	 ecx, DWORD PTR ?ms_singleton@?$CSingleton@VCStateManager@@@@0PAVCStateManager@@A ; CSingleton<CStateManager>::ms_singleton
  00349	e8 00 00 00 00	 call	 ?SetTextureStageState@CStateManager@@QAEXKW4_D3DTEXTURESTAGESTATETYPE@@K@Z ; CStateManager::SetTextureStageState

; 325  : 	STATEMANAGER.SetTextureStageState(1, D3DTSS_ALPHAOP, D3DTOP_DISABLE);

  0034e	6a 01		 push	 1
  00350	6a 04		 push	 4
  00352	6a 01		 push	 1
  00354	8b 0d 00 00 00
	00		 mov	 ecx, DWORD PTR ?ms_singleton@?$CSingleton@VCStateManager@@@@0PAVCStateManager@@A ; CSingleton<CStateManager>::ms_singleton
  0035a	e8 00 00 00 00	 call	 ?SetTextureStageState@CStateManager@@QAEXKW4_D3DTEXTURESTAGESTATETYPE@@K@Z ; CStateManager::SetTextureStageState

; 326  : 	STATEMANAGER.SetRenderState(D3DRS_LIGHTING, FALSE);

  0035f	6a 00		 push	 0
  00361	68 89 00 00 00	 push	 137			; 00000089H
  00366	8b 0d 00 00 00
	00		 mov	 ecx, DWORD PTR ?ms_singleton@?$CSingleton@VCStateManager@@@@0PAVCStateManager@@A ; CSingleton<CStateManager>::ms_singleton
  0036c	e8 00 00 00 00	 call	 ?SetRenderState@CStateManager@@QAEXW4_D3DRENDERSTATETYPE@@K@Z ; CStateManager::SetRenderState

; 327  : 	STATEMANAGER.SetTexture(0, lpTexture);

  00371	ff 75 a0	 push	 DWORD PTR _lpTexture$[ebp]
  00374	6a 00		 push	 0
  00376	8b 0d 00 00 00
	00		 mov	 ecx, DWORD PTR ?ms_singleton@?$CSingleton@VCStateManager@@@@0PAVCStateManager@@A ; CSingleton<CStateManager>::ms_singleton
  0037c	e8 00 00 00 00	 call	 ?SetTexture@CStateManager@@QAEXKPAUIDirect3DBaseTexture8@@@Z ; CStateManager::SetTexture

; 328  : 	STATEMANAGER.SetTexture(1, NULL);

  00381	6a 00		 push	 0
  00383	6a 01		 push	 1
  00385	8b 0d 00 00 00
	00		 mov	 ecx, DWORD PTR ?ms_singleton@?$CSingleton@VCStateManager@@@@0PAVCStateManager@@A ; CSingleton<CStateManager>::ms_singleton
  0038b	e8 00 00 00 00	 call	 ?SetTexture@CStateManager@@QAEXKPAUIDirect3DBaseTexture8@@@Z ; CStateManager::SetTexture
; File C:\Program Files (x86)\Microsoft Visual Studio\2019\Community\VC\Tools\MSVC\14.28.29333\include\vector

; 1498 :         auto& _My_data = _Mypair._Myval2;

  00390	8b 45 b8	 mov	 eax, DWORD PTR _this$[ebp]
  00393	83 c0 30	 add	 eax, 48			; 00000030H
  00396	89 45 9c	 mov	 DWORD PTR __My_data$3[ebp], eax

; 1499 : #if _CONTAINER_DEBUG_LEVEL > 0
; 1500 :         _STL_VERIFY(
; 1501 :             _Pos < static_cast<size_type>(_My_data._Mylast - _My_data._Myfirst), "vector subscript out of range");
; 1502 : #endif // _CONTAINER_DEBUG_LEVEL > 0
; 1503 : 
; 1504 :         return _My_data._Myfirst[_Pos];

  00399	33 c0		 xor	 eax, eax
  0039b	6b c0 18	 imul	 eax, eax, 24
  0039e	8b 4d 9c	 mov	 ecx, DWORD PTR __My_data$3[ebp]
  003a1	03 01		 add	 eax, DWORD PTR [ecx]
  003a3	89 45 98	 mov	 DWORD PTR $T2[ebp], eax

; 1483 :         auto& _My_data = _Mypair._Myval2;

  003a6	8b 45 b8	 mov	 eax, DWORD PTR _this$[ebp]
  003a9	83 c0 30	 add	 eax, 48			; 00000030H
  003ac	89 45 a8	 mov	 DWORD PTR __My_data$5[ebp], eax

; 1484 :         return static_cast<size_type>(_My_data._Mylast - _My_data._Myfirst);

  003af	8b 45 a8	 mov	 eax, DWORD PTR __My_data$5[ebp]
  003b2	8b 4d a8	 mov	 ecx, DWORD PTR __My_data$5[ebp]
  003b5	8b 40 04	 mov	 eax, DWORD PTR [eax+4]
  003b8	2b 01		 sub	 eax, DWORD PTR [ecx]
  003ba	99		 cdq
  003bb	6a 18		 push	 24			; 00000018H
  003bd	59		 pop	 ecx
  003be	f7 f9		 idiv	 ecx
  003c0	89 45 94	 mov	 DWORD PTR $T1[ebp], eax
; File D:\Metin2 Server Files\mainline\SRC_2014\Metin2Client\GameLib\WeaponTrace.cpp

; 329  : 	STATEMANAGER.DrawPrimitiveUP(D3DPT_TRIANGLESTRIP,

  003c3	6a 18		 push	 24			; 00000018H
  003c5	ff 75 98	 push	 DWORD PTR $T2[ebp]
  003c8	8b 45 94	 mov	 eax, DWORD PTR $T1[ebp]
  003cb	48		 dec	 eax
  003cc	48		 dec	 eax
  003cd	50		 push	 eax
  003ce	6a 05		 push	 5
  003d0	8b 0d 00 00 00
	00		 mov	 ecx, DWORD PTR ?ms_singleton@?$CSingleton@VCStateManager@@@@0PAVCStateManager@@A ; CSingleton<CStateManager>::ms_singleton
  003d6	e8 00 00 00 00	 call	 ?DrawPrimitiveUP@CStateManager@@QAEJW4_D3DPRIMITIVETYPE@@IPBXI@Z ; CStateManager::DrawPrimitiveUP

; 330  : 								 int(m_PDTVertexVector.size() - 2),
; 331  : 								 &m_PDTVertexVector[0],
; 332  : 								 sizeof(TPDTVertex));
; 333  : 	
; 334  : 	STATEMANAGER.SetRenderState(D3DRS_LIGHTING, TRUE);

  003db	6a 01		 push	 1
  003dd	68 89 00 00 00	 push	 137			; 00000089H
  003e2	8b 0d 00 00 00
	00		 mov	 ecx, DWORD PTR ?ms_singleton@?$CSingleton@VCStateManager@@@@0PAVCStateManager@@A ; CSingleton<CStateManager>::ms_singleton
  003e8	e8 00 00 00 00	 call	 ?SetRenderState@CStateManager@@QAEXW4_D3DRENDERSTATETYPE@@K@Z ; CStateManager::SetRenderState

; 335  : 
; 336  : 	STATEMANAGER.RestoreRenderState(D3DRS_ZENABLE);

  003ed	6a 07		 push	 7
  003ef	8b 0d 00 00 00
	00		 mov	 ecx, DWORD PTR ?ms_singleton@?$CSingleton@VCStateManager@@@@0PAVCStateManager@@A ; CSingleton<CStateManager>::ms_singleton
  003f5	e8 00 00 00 00	 call	 ?RestoreRenderState@CStateManager@@QAEXW4_D3DRENDERSTATETYPE@@@Z ; CStateManager::RestoreRenderState

; 337  : 	STATEMANAGER.RestoreRenderState(D3DRS_ZFUNC);

  003fa	6a 17		 push	 23			; 00000017H
  003fc	8b 0d 00 00 00
	00		 mov	 ecx, DWORD PTR ?ms_singleton@?$CSingleton@VCStateManager@@@@0PAVCStateManager@@A ; CSingleton<CStateManager>::ms_singleton
  00402	e8 00 00 00 00	 call	 ?RestoreRenderState@CStateManager@@QAEXW4_D3DRENDERSTATETYPE@@@Z ; CStateManager::RestoreRenderState

; 338  : 	STATEMANAGER.RestoreRenderState(D3DRS_ZWRITEENABLE);

  00407	6a 0e		 push	 14			; 0000000eH
  00409	8b 0d 00 00 00
	00		 mov	 ecx, DWORD PTR ?ms_singleton@?$CSingleton@VCStateManager@@@@0PAVCStateManager@@A ; CSingleton<CStateManager>::ms_singleton
  0040f	e8 00 00 00 00	 call	 ?RestoreRenderState@CStateManager@@QAEXW4_D3DRENDERSTATETYPE@@@Z ; CStateManager::RestoreRenderState

; 339  : 
; 340  : 	STATEMANAGER.RestoreRenderState(D3DRS_ALPHATESTENABLE);

  00414	6a 0f		 push	 15			; 0000000fH
  00416	8b 0d 00 00 00
	00		 mov	 ecx, DWORD PTR ?ms_singleton@?$CSingleton@VCStateManager@@@@0PAVCStateManager@@A ; CSingleton<CStateManager>::ms_singleton
  0041c	e8 00 00 00 00	 call	 ?RestoreRenderState@CStateManager@@QAEXW4_D3DRENDERSTATETYPE@@@Z ; CStateManager::RestoreRenderState

; 341  : 	STATEMANAGER.RestoreRenderState(D3DRS_ALPHAREF);

  00421	6a 18		 push	 24			; 00000018H
  00423	8b 0d 00 00 00
	00		 mov	 ecx, DWORD PTR ?ms_singleton@?$CSingleton@VCStateManager@@@@0PAVCStateManager@@A ; CSingleton<CStateManager>::ms_singleton
  00429	e8 00 00 00 00	 call	 ?RestoreRenderState@CStateManager@@QAEXW4_D3DRENDERSTATETYPE@@@Z ; CStateManager::RestoreRenderState

; 342  : 	STATEMANAGER.RestoreRenderState(D3DRS_ALPHAFUNC);

  0042e	6a 19		 push	 25			; 00000019H
  00430	8b 0d 00 00 00
	00		 mov	 ecx, DWORD PTR ?ms_singleton@?$CSingleton@VCStateManager@@@@0PAVCStateManager@@A ; CSingleton<CStateManager>::ms_singleton
  00436	e8 00 00 00 00	 call	 ?RestoreRenderState@CStateManager@@QAEXW4_D3DRENDERSTATETYPE@@@Z ; CStateManager::RestoreRenderState

; 343  : 
; 344  : 	STATEMANAGER.RestoreRenderState(D3DRS_ALPHABLENDENABLE);

  0043b	6a 1b		 push	 27			; 0000001bH
  0043d	8b 0d 00 00 00
	00		 mov	 ecx, DWORD PTR ?ms_singleton@?$CSingleton@VCStateManager@@@@0PAVCStateManager@@A ; CSingleton<CStateManager>::ms_singleton
  00443	e8 00 00 00 00	 call	 ?RestoreRenderState@CStateManager@@QAEXW4_D3DRENDERSTATETYPE@@@Z ; CStateManager::RestoreRenderState

; 345  : 	STATEMANAGER.RestoreRenderState(D3DRS_SRCBLEND);

  00448	6a 13		 push	 19			; 00000013H
  0044a	8b 0d 00 00 00
	00		 mov	 ecx, DWORD PTR ?ms_singleton@?$CSingleton@VCStateManager@@@@0PAVCStateManager@@A ; CSingleton<CStateManager>::ms_singleton
  00450	e8 00 00 00 00	 call	 ?RestoreRenderState@CStateManager@@QAEXW4_D3DRENDERSTATETYPE@@@Z ; CStateManager::RestoreRenderState

; 346  : 	STATEMANAGER.RestoreRenderState(D3DRS_DESTBLEND);

  00455	6a 14		 push	 20			; 00000014H
  00457	8b 0d 00 00 00
	00		 mov	 ecx, DWORD PTR ?ms_singleton@?$CSingleton@VCStateManager@@@@0PAVCStateManager@@A ; CSingleton<CStateManager>::ms_singleton
  0045d	e8 00 00 00 00	 call	 ?RestoreRenderState@CStateManager@@QAEXW4_D3DRENDERSTATETYPE@@@Z ; CStateManager::RestoreRenderState

; 347  : 
; 348  : 	STATEMANAGER.RestoreTransform(D3DTS_WORLD);

  00462	68 00 01 00 00	 push	 256			; 00000100H
  00467	8b 0d 00 00 00
	00		 mov	 ecx, DWORD PTR ?ms_singleton@?$CSingleton@VCStateManager@@@@0PAVCStateManager@@A ; CSingleton<CStateManager>::ms_singleton
  0046d	e8 00 00 00 00	 call	 ?RestoreTransform@CStateManager@@QAEXW4_D3DTRANSFORMSTATETYPE@@@Z ; CStateManager::RestoreTransform

; 349  : 	STATEMANAGER.RestoreVertexShader();

  00472	8b 0d 00 00 00
	00		 mov	 ecx, DWORD PTR ?ms_singleton@?$CSingleton@VCStateManager@@@@0PAVCStateManager@@A ; CSingleton<CStateManager>::ms_singleton
  00478	e8 00 00 00 00	 call	 ?RestoreVertexShader@CStateManager@@QAEXXZ ; CStateManager::RestoreVertexShader

; 350  : 	STATEMANAGER.RestoreRenderState(D3DRS_CULLMODE);

  0047d	6a 16		 push	 22			; 00000016H
  0047f	8b 0d 00 00 00
	00		 mov	 ecx, DWORD PTR ?ms_singleton@?$CSingleton@VCStateManager@@@@0PAVCStateManager@@A ; CSingleton<CStateManager>::ms_singleton
  00485	e8 00 00 00 00	 call	 ?RestoreRenderState@CStateManager@@QAEXW4_D3DRENDERSTATETYPE@@@Z ; CStateManager::RestoreRenderState
$LN1@Render:

; 351  : }

  0048a	8b 4d fc	 mov	 ecx, DWORD PTR __$ArrayPad$[ebp]
  0048d	33 cd		 xor	 ecx, ebp
  0048f	e8 00 00 00 00	 call	 @__security_check_cookie@4
  00494	c9		 leave
  00495	c3		 ret	 0
?Render@CWeaponTrace@@QAEXXZ ENDP			; CWeaponTrace::Render
_TEXT	ENDS
; Function compile flags: /Odspy
; File D:\Metin2 Server Files\mainline\SRC_2014\Metin2Client\GameLib\WeaponTrace.cpp
; File D:\Metin2 Server Files\mainline\SRC_2014\Metin2Client\eterBase\Singleton.h
; File D:\Metin2 Server Files\mainline\SRC_2014\Metin2Client\GameLib\WeaponTrace.cpp
; File D:\Metin2 Server Files\mainline\SRC_2014\Metin2Client\eterBase\Singleton.h
; File D:\Metin2 Server Files\mainline\SRC_2014\Metin2Client\GameLib\WeaponTrace.cpp
; File C:\Program Files (x86)\Microsoft Visual Studio\2019\Community\VC\Tools\MSVC\14.28.29333\include\deque
; File D:\Metin2 Server Files\mainline\SRC_2014\Metin2Client\GameLib\WeaponTrace.cpp
; File C:\Program Files (x86)\Microsoft Visual Studio\2019\Community\VC\Tools\MSVC\14.28.29333\include\deque
; File D:\Metin2 Server Files\mainline\SRC_2014\Metin2Client\GameLib\WeaponTrace.cpp
; File C:\Program Files (x86)\Microsoft Visual Studio\2019\Community\VC\Tools\MSVC\14.28.29333\include\deque
; File C:\Program Files (x86)\Microsoft Visual Studio\2019\Community\VC\Tools\MSVC\14.28.29333\include\xstddef
; File C:\Program Files (x86)\Microsoft Visual Studio\2019\Community\VC\Tools\MSVC\14.28.29333\include\xutility
; File C:\Program Files (x86)\Microsoft Visual Studio\2019\Community\VC\Tools\MSVC\14.28.29333\include\deque
; File D:\Metin2 Server Files\mainline\SRC_2014\Metin2Client\GameLib\WeaponTrace.cpp
; File C:\Program Files (x86)\Microsoft Visual Studio\2019\Community\VC\Tools\MSVC\14.28.29333\include\deque
; File C:\Program Files (x86)\Microsoft Visual Studio\2019\Community\VC\Tools\MSVC\14.28.29333\include\xstddef
; File C:\Program Files (x86)\Microsoft Visual Studio\2019\Community\VC\Tools\MSVC\14.28.29333\include\xutility
; File C:\Program Files (x86)\Microsoft Visual Studio\2019\Community\VC\Tools\MSVC\14.28.29333\include\deque
; File D:\Metin2 Server Files\mainline\SRC_2014\Metin2Client\GameLib\WeaponTrace.cpp
; File C:\Program Files (x86)\Microsoft Visual Studio\2019\Community\VC\Tools\MSVC\14.28.29333\include\deque
; File D:\Metin2 Server Files\mainline\SRC_2014\Metin2Client\GameLib\WeaponTrace.cpp
; File C:\Program Files (x86)\Microsoft Visual Studio\2019\Community\VC\Tools\MSVC\14.28.29333\include\deque
; File D:\Metin2 Server Files\mainline\SRC_2014\Metin2Client\GameLib\WeaponTrace.cpp
; File C:\Program Files (x86)\Microsoft Visual Studio\2019\Community\VC\Tools\MSVC\14.28.29333\include\deque
; File D:\Metin2 Server Files\mainline\SRC_2014\Metin2Client\GameLib\WeaponTrace.cpp
; File C:\Program Files (x86)\Microsoft Visual Studio\2019\Community\VC\Tools\MSVC\14.28.29333\include\deque
; File C:\Program Files (x86)\Microsoft Visual Studio\2019\Community\VC\Tools\MSVC\14.28.29333\include\xstddef
; File C:\Program Files (x86)\Microsoft Visual Studio\2019\Community\VC\Tools\MSVC\14.28.29333\include\xutility
; File C:\Program Files (x86)\Microsoft Visual Studio\2019\Community\VC\Tools\MSVC\14.28.29333\include\deque
; File D:\Metin2 Server Files\mainline\SRC_2014\Metin2Client\GameLib\WeaponTrace.cpp
; File C:\Program Files (x86)\Microsoft Visual Studio\2019\Community\VC\Tools\MSVC\14.28.29333\include\deque
; File C:\Program Files (x86)\Microsoft Visual Studio\2019\Community\VC\Tools\MSVC\14.28.29333\include\xstddef
; File C:\Program Files (x86)\Microsoft Visual Studio\2019\Community\VC\Tools\MSVC\14.28.29333\include\xutility
; File C:\Program Files (x86)\Microsoft Visual Studio\2019\Community\VC\Tools\MSVC\14.28.29333\include\deque
; File D:\Metin2 Server Files\mainline\SRC_2014\Metin2Client\GameLib\WeaponTrace.cpp
; File C:\Program Files (x86)\Microsoft Visual Studio\2019\Community\VC\Tools\MSVC\14.28.29333\include\deque
; File D:\Metin2 Server Files\mainline\SRC_2014\Metin2Client\GameLib\WeaponTrace.cpp
; File D:\Metin2 Server Files\mainline\SRC_2014\M2Data\include\d3dx8math.inl
; File D:\Metin2 Server Files\mainline\SRC_2014\Metin2Client\GameLib\WeaponTrace.cpp
; File D:\Metin2 Server Files\mainline\SRC_2014\M2Data\include\d3dx8math.inl
; File C:\Program Files (x86)\Microsoft Visual Studio\2019\Community\VC\Tools\MSVC\14.28.29333\include\type_traits
; File C:\Program Files (x86)\Microsoft Visual Studio\2019\Community\VC\Tools\MSVC\14.28.29333\include\utility
; File C:\Program Files (x86)\Microsoft Visual Studio\2019\Community\VC\Tools\MSVC\14.28.29333\include\type_traits
; File C:\Program Files (x86)\Microsoft Visual Studio\2019\Community\VC\Tools\MSVC\14.28.29333\include\utility
; File D:\Metin2 Server Files\mainline\SRC_2014\Metin2Client\GameLib\WeaponTrace.cpp
; File D:\Metin2 Server Files\mainline\SRC_2014\M2Data\include\d3dx8math.inl
; File D:\Metin2 Server Files\mainline\SRC_2014\Metin2Client\GameLib\WeaponTrace.cpp
; File D:\Metin2 Server Files\mainline\SRC_2014\M2Data\include\d3dx8math.inl
; File C:\Program Files (x86)\Microsoft Visual Studio\2019\Community\VC\Tools\MSVC\14.28.29333\include\type_traits
; File C:\Program Files (x86)\Microsoft Visual Studio\2019\Community\VC\Tools\MSVC\14.28.29333\include\utility
; File C:\Program Files (x86)\Microsoft Visual Studio\2019\Community\VC\Tools\MSVC\14.28.29333\include\type_traits
; File C:\Program Files (x86)\Microsoft Visual Studio\2019\Community\VC\Tools\MSVC\14.28.29333\include\utility
; File D:\Metin2 Server Files\mainline\SRC_2014\Metin2Client\GameLib\WeaponTrace.cpp
;	COMDAT ?Update@CWeaponTrace@@QAEXM@Z
_TEXT	SEGMENT
$T1 = -284						; size = 12
$T2 = -272						; size = 12
$T3 = -260						; size = 12
$T4 = -248						; size = 12
$T5 = -236						; size = 12
$T6 = -224						; size = 12
$T7 = -212						; size = 12
$T8 = -200						; size = 12
$T9 = -188						; size = 12
$T10 = -176						; size = 12
$T11 = -164						; size = 12
$T12 = -152						; size = 12
$T13 = -140						; size = 4
$T14 = -136						; size = 4
tv527 = -132						; size = 4
tv511 = -128						; size = 4
$T15 = -124						; size = 4
$T16 = -120						; size = 4
$T17 = -116						; size = 4
$T18 = -112						; size = 4
$T19 = -108						; size = 4
$T20 = -104						; size = 4
$T21 = -100						; size = 4
$T22 = -96						; size = 4
$T23 = -92						; size = 4
$T24 = -88						; size = 4
$T25 = -84						; size = 4
$T26 = -80						; size = 4
$T27 = -76						; size = 4
$T28 = -72						; size = 4
$T29 = -68						; size = 4
$T30 = -64						; size = 4
$T31 = -60						; size = 4
$T32 = -56						; size = 4
_fz$ = -52						; size = 4
_fy$ = -48						; size = 4
_fx$ = -44						; size = 4
$T33 = -40						; size = 4
$T34 = -36						; size = 4
$T35 = -32						; size = 4
_fz$ = -28						; size = 4
_fy$ = -24						; size = 4
_fx$ = -20						; size = 4
_pMatrix$36 = -16					; size = 4
$T37 = -12						; size = 4
$T38 = -8						; size = 4
$T39 = -4						; size = 4
$T40 = 0						; size = 4
$T41 = 4						; size = 4
$T42 = 8						; size = 4
$T43 = 12						; size = 4
$T44 = 16						; size = 4
$T45 = 20						; size = 4
tv495 = 24						; size = 4
$T46 = 28						; size = 4
tv141 = 32						; size = 4
_this$ = 36						; size = 4
$T47 = 40						; size = 4
_this$ = 44						; size = 4
tv911 = 48						; size = 4
tv897 = 52						; size = 4
tv249 = 56						; size = 4
_fElapsedTime$ = 60					; size = 4
tv827 = 64						; size = 4
tv813 = 68						; size = 4
$T48 = 72						; size = 4
_this$ = 76						; size = 4
$T49 = 80						; size = 4
_this$ = 84						; size = 4
tv689 = 88						; size = 4
tv678 = 92						; size = 4
tv595 = 96						; size = 4
tv584 = 100						; size = 4
_pBoneMat$50 = 104					; size = 4
_it$51 = 108						; size = 12
$T52 = 120						; size = 1
$T53 = 121						; size = 1
$T54 = 122						; size = 1
$T55 = 123						; size = 1
$T56 = 124						; size = 1
$T57 = 125						; size = 1
$T58 = 126						; size = 1
$T59 = 127						; size = 1
_this$ = 128						; size = 4
_matPoint$60 = 132					; size = 64
_matRotation$61 = 196					; size = 64
_matT$62 = 260						; size = 64
$T63 = 324						; size = 64
_matTranslation$64 = 388				; size = 64
_matT$65 = 452						; size = 64
$T66 = 516						; size = 64
_mat$67 = 580						; size = 64
$T68 = 644						; size = 16
$T69 = 660						; size = 16
$T70 = 676						; size = 12
$T71 = 688						; size = 12
__$ArrayPad$ = 700					; size = 4
_fReachScale$ = 712					; size = 4
?Update@CWeaponTrace@@QAEXM@Z PROC			; CWeaponTrace::Update, COMDAT
; _this$ = ecx

; 28   : {

  00000	55		 push	 ebp
  00001	8d ac 24 40 fd
	ff ff		 lea	 ebp, DWORD PTR [esp-704]
  00008	81 ec dc 03 00
	00		 sub	 esp, 988		; 000003dcH
  0000e	a1 00 00 00 00	 mov	 eax, DWORD PTR ___security_cookie
  00013	33 c5		 xor	 eax, ebp
  00015	89 85 bc 02 00
	00		 mov	 DWORD PTR __$ArrayPad$[ebp], eax
  0001b	56		 push	 esi
  0001c	57		 push	 edi
  0001d	89 8d 80 00 00
	00		 mov	 DWORD PTR _this$[ebp], ecx
; File D:\Metin2 Server Files\mainline\SRC_2014\Metin2Client\eterBase\Singleton.h

; 27   : 		return (*ms_singleton);

  00023	a1 00 00 00 00	 mov	 eax, DWORD PTR ?ms_singleton@?$CSingleton@VCTimer@@@@0PAVCTimer@@A ; CSingleton<CTimer>::ms_singleton
  00028	89 45 1c	 mov	 DWORD PTR $T46[ebp], eax
; File D:\Metin2 Server Files\mainline\SRC_2014\Metin2Client\GameLib\WeaponTrace.cpp

; 29   : 	float fElapsedTime = CTimer::Instance().GetCurrentSecond() - m_fLastUpdate;

  0002b	8b 4d 1c	 mov	 ecx, DWORD PTR $T46[ebp]
  0002e	e8 00 00 00 00	 call	 ?GetCurrentSecond@CTimer@@QAEMXZ ; CTimer::GetCurrentSecond
  00033	d9 5d 18	 fstp	 DWORD PTR tv495[ebp]
  00036	f3 0f 10 45 18	 movss	 xmm0, DWORD PTR tv495[ebp]
  0003b	8b 85 80 00 00
	00		 mov	 eax, DWORD PTR _this$[ebp]
  00041	f3 0f 5c 40 04	 subss	 xmm0, DWORD PTR [eax+4]
  00046	f3 0f 11 45 3c	 movss	 DWORD PTR _fElapsedTime$[ebp], xmm0
; File D:\Metin2 Server Files\mainline\SRC_2014\Metin2Client\eterBase\Singleton.h

; 27   : 		return (*ms_singleton);

  0004b	a1 00 00 00 00	 mov	 eax, DWORD PTR ?ms_singleton@?$CSingleton@VCTimer@@@@0PAVCTimer@@A ; CSingleton<CTimer>::ms_singleton
  00050	89 45 14	 mov	 DWORD PTR $T45[ebp], eax
; File D:\Metin2 Server Files\mainline\SRC_2014\Metin2Client\GameLib\WeaponTrace.cpp

; 30   : 	m_fLastUpdate = CTimer::Instance().GetCurrentSecond();

  00053	8b 4d 14	 mov	 ecx, DWORD PTR $T45[ebp]
  00056	e8 00 00 00 00	 call	 ?GetCurrentSecond@CTimer@@QAEMXZ ; CTimer::GetCurrentSecond
  0005b	8b 85 80 00 00
	00		 mov	 eax, DWORD PTR _this$[ebp]
  00061	d9 58 04	 fstp	 DWORD PTR [eax+4]

; 31   : 	
; 32   : 	if (!m_pInstance)

  00064	8b 85 80 00 00
	00		 mov	 eax, DWORD PTR _this$[ebp]
  0006a	83 78 44 00	 cmp	 DWORD PTR [eax+68], 0
  0006e	75 05		 jne	 SHORT $LN8@Update

; 33   : 		return;

  00070	e9 b5 06 00 00	 jmp	 $LN1@Update
$LN8@Update:
  00075	8d 4d 6c	 lea	 ecx, DWORD PTR _it$51[ebp]
  00078	e8 00 00 00 00	 call	 ??0?$_Deque_const_iterator@V?$_Deque_val@U?$_Deque_simple_types@U?$pair@MUD3DXVECTOR3@@@std@@@std@@@std@@@std@@QAE@XZ ; std::_Deque_const_iterator<std::_Deque_val<std::_Deque_simple_types<std::pair<float,D3DXVECTOR3> > > >::_Deque_const_iterator<std::_Deque_val<std::_Deque_simple_types<std::pair<float,D3DXVECTOR3> > > >

; 37   : 		for(it=m_ShortTimePointList.begin();it!=m_ShortTimePointList.end();++it)

  0007d	8d 85 38 ff ff
	ff		 lea	 eax, DWORD PTR $T8[ebp]
  00083	50		 push	 eax
  00084	8b 8d 80 00 00
	00		 mov	 ecx, DWORD PTR _this$[ebp]
  0008a	83 c1 08	 add	 ecx, 8
  0008d	e8 00 00 00 00	 call	 ?begin@?$deque@U?$pair@MUD3DXVECTOR3@@@std@@V?$allocator@U?$pair@MUD3DXVECTOR3@@@std@@@2@@std@@QAE?AV?$_Deque_iterator@V?$_Deque_val@U?$_Deque_simple_types@U?$pair@MUD3DXVECTOR3@@@std@@@std@@@std@@@2@XZ ; std::deque<std::pair<float,D3DXVECTOR3>,std::allocator<std::pair<float,D3DXVECTOR3> > >::begin
  00092	89 45 10	 mov	 DWORD PTR $T44[ebp], eax
  00095	ff 75 10	 push	 DWORD PTR $T44[ebp]
  00098	8d 4d 6c	 lea	 ecx, DWORD PTR _it$51[ebp]
  0009b	e8 00 00 00 00	 call	 ??4?$_Deque_const_iterator@V?$_Deque_val@U?$_Deque_simple_types@U?$pair@MUD3DXVECTOR3@@@std@@@std@@@std@@@std@@QAEAAV01@$$QAV01@@Z
  000a0	eb 07		 jmp	 SHORT $LN67@Update
$LN2@Update:
; File C:\Program Files (x86)\Microsoft Visual Studio\2019\Community\VC\Tools\MSVC\14.28.29333\include\deque

; 284  :         ++_Myoff;

  000a2	8b 45 74	 mov	 eax, DWORD PTR _it$51[ebp+8]
  000a5	40		 inc	 eax
  000a6	89 45 74	 mov	 DWORD PTR _it$51[ebp+8], eax
$LN67@Update:
; File D:\Metin2 Server Files\mainline\SRC_2014\Metin2Client\GameLib\WeaponTrace.cpp

; 37   : 		for(it=m_ShortTimePointList.begin();it!=m_ShortTimePointList.end();++it)

  000a9	8d 85 2c ff ff
	ff		 lea	 eax, DWORD PTR $T7[ebp]
  000af	50		 push	 eax
  000b0	8b 8d 80 00 00
	00		 mov	 ecx, DWORD PTR _this$[ebp]
  000b6	83 c1 08	 add	 ecx, 8
  000b9	e8 00 00 00 00	 call	 ?end@?$deque@U?$pair@MUD3DXVECTOR3@@@std@@V?$allocator@U?$pair@MUD3DXVECTOR3@@@std@@@2@@std@@QAE?AV?$_Deque_iterator@V?$_Deque_val@U?$_Deque_simple_types@U?$pair@MUD3DXVECTOR3@@@std@@@std@@@std@@@2@XZ ; std::deque<std::pair<float,D3DXVECTOR3>,std::allocator<std::pair<float,D3DXVECTOR3> > >::end
  000be	89 45 0c	 mov	 DWORD PTR $T43[ebp], eax
; File C:\Program Files (x86)\Microsoft Visual Studio\2019\Community\VC\Tools\MSVC\14.28.29333\include\deque

; 351  :         return this->_Myoff == _Right._Myoff;

  000c1	8b 45 0c	 mov	 eax, DWORD PTR $T43[ebp]
  000c4	8b 4d 74	 mov	 ecx, DWORD PTR _it$51[ebp+8]
  000c7	3b 48 08	 cmp	 ecx, DWORD PTR [eax+8]
  000ca	75 09		 jne	 SHORT $LN101@Update
  000cc	c7 45 64 01 00
	00 00		 mov	 DWORD PTR tv584[ebp], 1
  000d3	eb 04		 jmp	 SHORT $LN102@Update
$LN101@Update:
  000d5	83 65 64 00	 and	 DWORD PTR tv584[ebp], 0
$LN102@Update:
  000d9	8a 45 64	 mov	 al, BYTE PTR tv584[ebp]
  000dc	88 45 7f	 mov	 BYTE PTR $T59[ebp], al

; 355  :         return !(*this == _Right);

  000df	0f b6 45 7f	 movzx	 eax, BYTE PTR $T59[ebp]
  000e3	85 c0		 test	 eax, eax
  000e5	75 09		 jne	 SHORT $LN96@Update
  000e7	c7 45 60 01 00
	00 00		 mov	 DWORD PTR tv595[ebp], 1
  000ee	eb 04		 jmp	 SHORT $LN97@Update
$LN96@Update:
  000f0	83 65 60 00	 and	 DWORD PTR tv595[ebp], 0
$LN97@Update:
  000f4	8a 45 60	 mov	 al, BYTE PTR tv595[ebp]
  000f7	88 45 7e	 mov	 BYTE PTR $T58[ebp], al
; File D:\Metin2 Server Files\mainline\SRC_2014\Metin2Client\GameLib\WeaponTrace.cpp

; 37   : 		for(it=m_ShortTimePointList.begin();it!=m_ShortTimePointList.end();++it)

  000fa	0f b6 45 7e	 movzx	 eax, BYTE PTR $T58[ebp]
  000fe	85 c0		 test	 eax, eax
  00100	74 7e		 je	 SHORT $LN3@Update
; File C:\Program Files (x86)\Microsoft Visual Studio\2019\Community\VC\Tools\MSVC\14.28.29333\include\deque

; 446  :         return const_cast<reference>(_Mybase::operator*());

  00102	8d 4d 6c	 lea	 ecx, DWORD PTR _it$51[ebp]
  00105	e8 00 00 00 00	 call	 ??D?$_Deque_const_iterator@V?$_Deque_val@U?$_Deque_simple_types@U?$pair@MUD3DXVECTOR3@@@std@@@std@@@std@@@std@@QBEABU?$pair@MUD3DXVECTOR3@@@1@XZ ; std::_Deque_const_iterator<std::_Deque_val<std::_Deque_simple_types<std::pair<float,D3DXVECTOR3> > > >::operator*
  0010a	89 45 08	 mov	 DWORD PTR $T42[ebp], eax
; File C:\Program Files (x86)\Microsoft Visual Studio\2019\Community\VC\Tools\MSVC\14.28.29333\include\xstddef

; 275  :     return __builtin_addressof(_Val);

  0010d	8b 45 08	 mov	 eax, DWORD PTR $T42[ebp]
  00110	89 45 04	 mov	 DWORD PTR $T41[ebp], eax
; File C:\Program Files (x86)\Microsoft Visual Studio\2019\Community\VC\Tools\MSVC\14.28.29333\include\xutility

; 151  :         return _STD addressof(_Val);

  00113	8b 45 04	 mov	 eax, DWORD PTR $T41[ebp]
  00116	89 45 00	 mov	 DWORD PTR $T40[ebp], eax
; File C:\Program Files (x86)\Microsoft Visual Studio\2019\Community\VC\Tools\MSVC\14.28.29333\include\deque

; 450  :         return pointer_traits<pointer>::pointer_to(**this);

  00119	8b 45 00	 mov	 eax, DWORD PTR $T40[ebp]
  0011c	89 45 b4	 mov	 DWORD PTR $T27[ebp], eax
; File D:\Metin2 Server Files\mainline\SRC_2014\Metin2Client\GameLib\WeaponTrace.cpp

; 39   : 			it->first += fElapsedTime;

  0011f	8b 45 b4	 mov	 eax, DWORD PTR $T27[ebp]
  00122	89 45 20	 mov	 DWORD PTR tv141[ebp], eax
  00125	8b 45 20	 mov	 eax, DWORD PTR tv141[ebp]
  00128	f3 0f 10 00	 movss	 xmm0, DWORD PTR [eax]
  0012c	f3 0f 58 45 3c	 addss	 xmm0, DWORD PTR _fElapsedTime$[ebp]
  00131	8b 45 20	 mov	 eax, DWORD PTR tv141[ebp]
  00134	f3 0f 11 00	 movss	 DWORD PTR [eax], xmm0
; File C:\Program Files (x86)\Microsoft Visual Studio\2019\Community\VC\Tools\MSVC\14.28.29333\include\deque

; 446  :         return const_cast<reference>(_Mybase::operator*());

  00138	8d 4d 6c	 lea	 ecx, DWORD PTR _it$51[ebp]
  0013b	e8 00 00 00 00	 call	 ??D?$_Deque_const_iterator@V?$_Deque_val@U?$_Deque_simple_types@U?$pair@MUD3DXVECTOR3@@@std@@@std@@@std@@@std@@QBEABU?$pair@MUD3DXVECTOR3@@@1@XZ ; std::_Deque_const_iterator<std::_Deque_val<std::_Deque_simple_types<std::pair<float,D3DXVECTOR3> > > >::operator*
  00140	89 45 b8	 mov	 DWORD PTR $T28[ebp], eax
; File C:\Program Files (x86)\Microsoft Visual Studio\2019\Community\VC\Tools\MSVC\14.28.29333\include\xstddef

; 275  :     return __builtin_addressof(_Val);

  00143	8b 45 b8	 mov	 eax, DWORD PTR $T28[ebp]
  00146	89 45 bc	 mov	 DWORD PTR $T29[ebp], eax
; File C:\Program Files (x86)\Microsoft Visual Studio\2019\Community\VC\Tools\MSVC\14.28.29333\include\xutility

; 151  :         return _STD addressof(_Val);

  00149	8b 45 bc	 mov	 eax, DWORD PTR $T29[ebp]
  0014c	89 45 8c	 mov	 DWORD PTR $T17[ebp], eax
; File C:\Program Files (x86)\Microsoft Visual Studio\2019\Community\VC\Tools\MSVC\14.28.29333\include\deque

; 450  :         return pointer_traits<pointer>::pointer_to(**this);

  0014f	8b 45 8c	 mov	 eax, DWORD PTR $T17[ebp]
  00152	89 45 90	 mov	 DWORD PTR $T18[ebp], eax
; File D:\Metin2 Server Files\mainline\SRC_2014\Metin2Client\GameLib\WeaponTrace.cpp

; 40   : 			if (it->first>m_fLifeTime)

  00155	8b 45 90	 mov	 eax, DWORD PTR $T18[ebp]
  00158	8b 8d 80 00 00
	00		 mov	 ecx, DWORD PTR _this$[ebp]
  0015e	f3 0f 10 00	 movss	 xmm0, DWORD PTR [eax]
  00162	0f 2f 41 3c	 comiss	 xmm0, DWORD PTR [ecx+60]
  00166	76 13		 jbe	 SHORT $LN9@Update

; 41   : 			{
; 42   : 				it++;

  00168	6a 00		 push	 0
  0016a	8d 85 20 ff ff
	ff		 lea	 eax, DWORD PTR $T6[ebp]
  00170	50		 push	 eax
  00171	8d 4d 6c	 lea	 ecx, DWORD PTR _it$51[ebp]
  00174	e8 00 00 00 00	 call	 ??E?$_Deque_iterator@V?$_Deque_val@U?$_Deque_simple_types@U?$pair@MUD3DXVECTOR3@@@std@@@std@@@std@@@std@@QAE?AV01@H@Z ; std::_Deque_iterator<std::_Deque_val<std::_Deque_simple_types<std::pair<float,D3DXVECTOR3> > > >::operator++

; 43   : 				break;

  00179	eb 05		 jmp	 SHORT $LN3@Update
$LN9@Update:

; 44   : 			}
; 45   : 		}

  0017b	e9 22 ff ff ff	 jmp	 $LN2@Update
$LN3@Update:

; 46   : 		if (it!=m_ShortTimePointList.end())

  00180	8d 85 14 ff ff
	ff		 lea	 eax, DWORD PTR $T5[ebp]
  00186	50		 push	 eax
  00187	8b 8d 80 00 00
	00		 mov	 ecx, DWORD PTR _this$[ebp]
  0018d	83 c1 08	 add	 ecx, 8
  00190	e8 00 00 00 00	 call	 ?end@?$deque@U?$pair@MUD3DXVECTOR3@@@std@@V?$allocator@U?$pair@MUD3DXVECTOR3@@@std@@@2@@std@@QAE?AV?$_Deque_iterator@V?$_Deque_val@U?$_Deque_simple_types@U?$pair@MUD3DXVECTOR3@@@std@@@std@@@std@@@2@XZ ; std::deque<std::pair<float,D3DXVECTOR3>,std::allocator<std::pair<float,D3DXVECTOR3> > >::end
  00195	89 45 b0	 mov	 DWORD PTR $T26[ebp], eax
; File C:\Program Files (x86)\Microsoft Visual Studio\2019\Community\VC\Tools\MSVC\14.28.29333\include\deque

; 351  :         return this->_Myoff == _Right._Myoff;

  00198	8b 45 b0	 mov	 eax, DWORD PTR $T26[ebp]
  0019b	8b 4d 74	 mov	 ecx, DWORD PTR _it$51[ebp+8]
  0019e	3b 48 08	 cmp	 ecx, DWORD PTR [eax+8]
  001a1	75 09		 jne	 SHORT $LN192@Update
  001a3	c7 45 5c 01 00
	00 00		 mov	 DWORD PTR tv678[ebp], 1
  001aa	eb 04		 jmp	 SHORT $LN193@Update
$LN192@Update:
  001ac	83 65 5c 00	 and	 DWORD PTR tv678[ebp], 0
$LN193@Update:
  001b0	8a 45 5c	 mov	 al, BYTE PTR tv678[ebp]
  001b3	88 45 7d	 mov	 BYTE PTR $T57[ebp], al

; 355  :         return !(*this == _Right);

  001b6	0f b6 45 7d	 movzx	 eax, BYTE PTR $T57[ebp]
  001ba	85 c0		 test	 eax, eax
  001bc	75 09		 jne	 SHORT $LN187@Update
  001be	c7 45 58 01 00
	00 00		 mov	 DWORD PTR tv689[ebp], 1
  001c5	eb 04		 jmp	 SHORT $LN188@Update
$LN187@Update:
  001c7	83 65 58 00	 and	 DWORD PTR tv689[ebp], 0
$LN188@Update:
  001cb	8a 45 58	 mov	 al, BYTE PTR tv689[ebp]
  001ce	88 45 7c	 mov	 BYTE PTR $T56[ebp], al
; File D:\Metin2 Server Files\mainline\SRC_2014\Metin2Client\GameLib\WeaponTrace.cpp

; 46   : 		if (it!=m_ShortTimePointList.end())

  001d1	0f b6 45 7c	 movzx	 eax, BYTE PTR $T56[ebp]
  001d5	85 c0		 test	 eax, eax
  001d7	74 72		 je	 SHORT $LN280@Update

; 47   : 		m_ShortTimePointList.erase(it,m_ShortTimePointList.end());

  001d9	8d 85 08 ff ff
	ff		 lea	 eax, DWORD PTR $T4[ebp]
  001df	50		 push	 eax
  001e0	8b 8d 80 00 00
	00		 mov	 ecx, DWORD PTR _this$[ebp]
  001e6	83 c1 08	 add	 ecx, 8
  001e9	e8 00 00 00 00	 call	 ?end@?$deque@U?$pair@MUD3DXVECTOR3@@@std@@V?$allocator@U?$pair@MUD3DXVECTOR3@@@std@@@2@@std@@QAE?AV?$_Deque_iterator@V?$_Deque_val@U?$_Deque_simple_types@U?$pair@MUD3DXVECTOR3@@@std@@@std@@@std@@@2@XZ ; std::deque<std::pair<float,D3DXVECTOR3>,std::allocator<std::pair<float,D3DXVECTOR3> > >::end
  001ee	89 45 50	 mov	 DWORD PTR $T49[ebp], eax
  001f1	83 ec 0c	 sub	 esp, 12			; 0000000cH
  001f4	8b c4		 mov	 eax, esp
  001f6	89 65 88	 mov	 DWORD PTR $T16[ebp], esp
  001f9	89 45 54	 mov	 DWORD PTR _this$[ebp], eax
  001fc	ff 75 50	 push	 DWORD PTR $T49[ebp]
  001ff	8b 4d 54	 mov	 ecx, DWORD PTR _this$[ebp]
  00202	e8 00 00 00 00	 call	 ??0_Iterator_base12@std@@QAE@ABU01@@Z ; std::_Iterator_base12::_Iterator_base12
  00207	8b 45 54	 mov	 eax, DWORD PTR _this$[ebp]
  0020a	8b 4d 50	 mov	 ecx, DWORD PTR $T49[ebp]
  0020d	8b 49 08	 mov	 ecx, DWORD PTR [ecx+8]
  00210	89 48 08	 mov	 DWORD PTR [eax+8], ecx
  00213	83 ec 0c	 sub	 esp, 12			; 0000000cH
  00216	8b c4		 mov	 eax, esp
  00218	89 65 84	 mov	 DWORD PTR $T15[ebp], esp
  0021b	89 45 4c	 mov	 DWORD PTR _this$[ebp], eax
  0021e	8d 45 6c	 lea	 eax, DWORD PTR _it$51[ebp]
  00221	50		 push	 eax
  00222	8b 4d 4c	 mov	 ecx, DWORD PTR _this$[ebp]
  00225	e8 00 00 00 00	 call	 ??0_Iterator_base12@std@@QAE@ABU01@@Z ; std::_Iterator_base12::_Iterator_base12
  0022a	8b 45 4c	 mov	 eax, DWORD PTR _this$[ebp]
  0022d	8b 4d 74	 mov	 ecx, DWORD PTR _it$51[ebp+8]
  00230	89 48 08	 mov	 DWORD PTR [eax+8], ecx
  00233	8d 85 fc fe ff
	ff		 lea	 eax, DWORD PTR $T3[ebp]
  00239	50		 push	 eax
  0023a	8b 8d 80 00 00
	00		 mov	 ecx, DWORD PTR _this$[ebp]
  00240	83 c1 08	 add	 ecx, 8
  00243	e8 00 00 00 00	 call	 ?erase@?$deque@U?$pair@MUD3DXVECTOR3@@@std@@V?$allocator@U?$pair@MUD3DXVECTOR3@@@std@@@2@@std@@QAE?AV?$_Deque_iterator@V?$_Deque_val@U?$_Deque_simple_types@U?$pair@MUD3DXVECTOR3@@@std@@@std@@@std@@@2@V?$_Deque_const_iterator@V?$_Deque_val@U?$_Deque_simple_types@U?$pair@MUD3DXVECTOR3@@@std@@@std@@@std@@@2@0@Z ; std::deque<std::pair<float,D3DXVECTOR3>,std::allocator<std::pair<float,D3DXVECTOR3> > >::erase
  00248	89 45 80	 mov	 DWORD PTR tv511[ebp], eax
$LN280@Update:

; 48   : 		for(it=m_LongTimePointList.begin();it!=m_LongTimePointList.end();++it)

  0024b	8d 85 f0 fe ff
	ff		 lea	 eax, DWORD PTR $T2[ebp]
  00251	50		 push	 eax
  00252	8b 8d 80 00 00
	00		 mov	 ecx, DWORD PTR _this$[ebp]
  00258	83 c1 1c	 add	 ecx, 28			; 0000001cH
  0025b	e8 00 00 00 00	 call	 ?begin@?$deque@U?$pair@MUD3DXVECTOR3@@@std@@V?$allocator@U?$pair@MUD3DXVECTOR3@@@std@@@2@@std@@QAE?AV?$_Deque_iterator@V?$_Deque_val@U?$_Deque_simple_types@U?$pair@MUD3DXVECTOR3@@@std@@@std@@@std@@@2@XZ ; std::deque<std::pair<float,D3DXVECTOR3>,std::allocator<std::pair<float,D3DXVECTOR3> > >::begin
  00260	89 45 48	 mov	 DWORD PTR $T48[ebp], eax
  00263	ff 75 48	 push	 DWORD PTR $T48[ebp]
  00266	8d 4d 6c	 lea	 ecx, DWORD PTR _it$51[ebp]
  00269	e8 00 00 00 00	 call	 ??4_Iterator_base12@std@@QAEAAU01@ABU01@@Z ; std::_Iterator_base12::operator=
  0026e	8b 45 48	 mov	 eax, DWORD PTR $T48[ebp]
  00271	8b 40 08	 mov	 eax, DWORD PTR [eax+8]
  00274	89 45 74	 mov	 DWORD PTR _it$51[ebp+8], eax
  00277	eb 07		 jmp	 SHORT $LN316@Update
$LN5@Update:
; File C:\Program Files (x86)\Microsoft Visual Studio\2019\Community\VC\Tools\MSVC\14.28.29333\include\deque

; 284  :         ++_Myoff;

  00279	8b 45 74	 mov	 eax, DWORD PTR _it$51[ebp+8]
  0027c	40		 inc	 eax
  0027d	89 45 74	 mov	 DWORD PTR _it$51[ebp+8], eax
$LN316@Update:
; File D:\Metin2 Server Files\mainline\SRC_2014\Metin2Client\GameLib\WeaponTrace.cpp

; 48   : 		for(it=m_LongTimePointList.begin();it!=m_LongTimePointList.end();++it)

  00280	8d 85 68 ff ff
	ff		 lea	 eax, DWORD PTR $T12[ebp]
  00286	50		 push	 eax
  00287	8b 8d 80 00 00
	00		 mov	 ecx, DWORD PTR _this$[ebp]
  0028d	83 c1 1c	 add	 ecx, 28			; 0000001cH
  00290	e8 00 00 00 00	 call	 ?end@?$deque@U?$pair@MUD3DXVECTOR3@@@std@@V?$allocator@U?$pair@MUD3DXVECTOR3@@@std@@@2@@std@@QAE?AV?$_Deque_iterator@V?$_Deque_val@U?$_Deque_simple_types@U?$pair@MUD3DXVECTOR3@@@std@@@std@@@std@@@2@XZ ; std::deque<std::pair<float,D3DXVECTOR3>,std::allocator<std::pair<float,D3DXVECTOR3> > >::end
  00295	89 45 94	 mov	 DWORD PTR $T19[ebp], eax
; File C:\Program Files (x86)\Microsoft Visual Studio\2019\Community\VC\Tools\MSVC\14.28.29333\include\deque

; 351  :         return this->_Myoff == _Right._Myoff;

  00298	8b 45 94	 mov	 eax, DWORD PTR $T19[ebp]
  0029b	8b 4d 74	 mov	 ecx, DWORD PTR _it$51[ebp+8]
  0029e	3b 48 08	 cmp	 ecx, DWORD PTR [eax+8]
  002a1	75 09		 jne	 SHORT $LN353@Update
  002a3	c7 45 44 01 00
	00 00		 mov	 DWORD PTR tv813[ebp], 1
  002aa	eb 04		 jmp	 SHORT $LN354@Update
$LN353@Update:
  002ac	83 65 44 00	 and	 DWORD PTR tv813[ebp], 0
$LN354@Update:
  002b0	8a 45 44	 mov	 al, BYTE PTR tv813[ebp]
  002b3	88 45 7b	 mov	 BYTE PTR $T55[ebp], al

; 355  :         return !(*this == _Right);

  002b6	0f b6 45 7b	 movzx	 eax, BYTE PTR $T55[ebp]
  002ba	85 c0		 test	 eax, eax
  002bc	75 09		 jne	 SHORT $LN348@Update
  002be	c7 45 40 01 00
	00 00		 mov	 DWORD PTR tv827[ebp], 1
  002c5	eb 04		 jmp	 SHORT $LN349@Update
$LN348@Update:
  002c7	83 65 40 00	 and	 DWORD PTR tv827[ebp], 0
$LN349@Update:
  002cb	8a 45 40	 mov	 al, BYTE PTR tv827[ebp]
  002ce	88 45 7a	 mov	 BYTE PTR $T54[ebp], al
; File D:\Metin2 Server Files\mainline\SRC_2014\Metin2Client\GameLib\WeaponTrace.cpp

; 48   : 		for(it=m_LongTimePointList.begin();it!=m_LongTimePointList.end();++it)

  002d1	0f b6 45 7a	 movzx	 eax, BYTE PTR $T54[ebp]
  002d5	85 c0		 test	 eax, eax
  002d7	74 7e		 je	 SHORT $LN6@Update
; File C:\Program Files (x86)\Microsoft Visual Studio\2019\Community\VC\Tools\MSVC\14.28.29333\include\deque

; 446  :         return const_cast<reference>(_Mybase::operator*());

  002d9	8d 4d 6c	 lea	 ecx, DWORD PTR _it$51[ebp]
  002dc	e8 00 00 00 00	 call	 ??D?$_Deque_const_iterator@V?$_Deque_val@U?$_Deque_simple_types@U?$pair@MUD3DXVECTOR3@@@std@@@std@@@std@@@std@@QBEABU?$pair@MUD3DXVECTOR3@@@1@XZ ; std::_Deque_const_iterator<std::_Deque_val<std::_Deque_simple_types<std::pair<float,D3DXVECTOR3> > > >::operator*
  002e1	89 45 98	 mov	 DWORD PTR $T20[ebp], eax
; File C:\Program Files (x86)\Microsoft Visual Studio\2019\Community\VC\Tools\MSVC\14.28.29333\include\xstddef

; 275  :     return __builtin_addressof(_Val);

  002e4	8b 45 98	 mov	 eax, DWORD PTR $T20[ebp]
  002e7	89 45 9c	 mov	 DWORD PTR $T21[ebp], eax
; File C:\Program Files (x86)\Microsoft Visual Studio\2019\Community\VC\Tools\MSVC\14.28.29333\include\xutility

; 151  :         return _STD addressof(_Val);

  002ea	8b 45 9c	 mov	 eax, DWORD PTR $T21[ebp]
  002ed	89 45 a4	 mov	 DWORD PTR $T23[ebp], eax
; File C:\Program Files (x86)\Microsoft Visual Studio\2019\Community\VC\Tools\MSVC\14.28.29333\include\deque

; 450  :         return pointer_traits<pointer>::pointer_to(**this);

  002f0	8b 45 a4	 mov	 eax, DWORD PTR $T23[ebp]
  002f3	89 45 a8	 mov	 DWORD PTR $T24[ebp], eax
; File D:\Metin2 Server Files\mainline\SRC_2014\Metin2Client\GameLib\WeaponTrace.cpp

; 50   : 			it->first += fElapsedTime;

  002f6	8b 45 a8	 mov	 eax, DWORD PTR $T24[ebp]
  002f9	89 45 38	 mov	 DWORD PTR tv249[ebp], eax
  002fc	8b 45 38	 mov	 eax, DWORD PTR tv249[ebp]
  002ff	f3 0f 10 00	 movss	 xmm0, DWORD PTR [eax]
  00303	f3 0f 58 45 3c	 addss	 xmm0, DWORD PTR _fElapsedTime$[ebp]
  00308	8b 45 38	 mov	 eax, DWORD PTR tv249[ebp]
  0030b	f3 0f 11 00	 movss	 DWORD PTR [eax], xmm0
; File C:\Program Files (x86)\Microsoft Visual Studio\2019\Community\VC\Tools\MSVC\14.28.29333\include\deque

; 446  :         return const_cast<reference>(_Mybase::operator*());

  0030f	8d 4d 6c	 lea	 ecx, DWORD PTR _it$51[ebp]
  00312	e8 00 00 00 00	 call	 ??D?$_Deque_const_iterator@V?$_Deque_val@U?$_Deque_simple_types@U?$pair@MUD3DXVECTOR3@@@std@@@std@@@std@@@std@@QBEABU?$pair@MUD3DXVECTOR3@@@1@XZ ; std::_Deque_const_iterator<std::_Deque_val<std::_Deque_simple_types<std::pair<float,D3DXVECTOR3> > > >::operator*
  00317	89 45 ac	 mov	 DWORD PTR $T25[ebp], eax
; File C:\Program Files (x86)\Microsoft Visual Studio\2019\Community\VC\Tools\MSVC\14.28.29333\include\xstddef

; 275  :     return __builtin_addressof(_Val);

  0031a	8b 45 ac	 mov	 eax, DWORD PTR $T25[ebp]
  0031d	89 45 a0	 mov	 DWORD PTR $T22[ebp], eax
; File C:\Program Files (x86)\Microsoft Visual Studio\2019\Community\VC\Tools\MSVC\14.28.29333\include\xutility

; 151  :         return _STD addressof(_Val);

  00320	8b 45 a0	 mov	 eax, DWORD PTR $T22[ebp]
  00323	89 45 fc	 mov	 DWORD PTR $T39[ebp], eax
; File C:\Program Files (x86)\Microsoft Visual Studio\2019\Community\VC\Tools\MSVC\14.28.29333\include\deque

; 450  :         return pointer_traits<pointer>::pointer_to(**this);

  00326	8b 45 fc	 mov	 eax, DWORD PTR $T39[ebp]
  00329	89 45 f8	 mov	 DWORD PTR $T38[ebp], eax
; File D:\Metin2 Server Files\mainline\SRC_2014\Metin2Client\GameLib\WeaponTrace.cpp

; 51   : 			if (it->first>m_fLifeTime)

  0032c	8b 45 f8	 mov	 eax, DWORD PTR $T38[ebp]
  0032f	8b 8d 80 00 00
	00		 mov	 ecx, DWORD PTR _this$[ebp]
  00335	f3 0f 10 00	 movss	 xmm0, DWORD PTR [eax]
  00339	0f 2f 41 3c	 comiss	 xmm0, DWORD PTR [ecx+60]
  0033d	76 13		 jbe	 SHORT $LN11@Update

; 52   : 			{
; 53   : 				it++;

  0033f	6a 00		 push	 0
  00341	8d 85 5c ff ff
	ff		 lea	 eax, DWORD PTR $T11[ebp]
  00347	50		 push	 eax
  00348	8d 4d 6c	 lea	 ecx, DWORD PTR _it$51[ebp]
  0034b	e8 00 00 00 00	 call	 ??E?$_Deque_iterator@V?$_Deque_val@U?$_Deque_simple_types@U?$pair@MUD3DXVECTOR3@@@std@@@std@@@std@@@std@@QAE?AV01@H@Z ; std::_Deque_iterator<std::_Deque_val<std::_Deque_simple_types<std::pair<float,D3DXVECTOR3> > > >::operator++

; 54   : 				break;

  00350	eb 05		 jmp	 SHORT $LN6@Update
$LN11@Update:

; 55   : 			}
; 56   : 		}

  00352	e9 22 ff ff ff	 jmp	 $LN5@Update
$LN6@Update:

; 57   : 		if (it!=m_LongTimePointList.end())

  00357	8d 85 e4 fe ff
	ff		 lea	 eax, DWORD PTR $T1[ebp]
  0035d	50		 push	 eax
  0035e	8b 8d 80 00 00
	00		 mov	 ecx, DWORD PTR _this$[ebp]
  00364	83 c1 1c	 add	 ecx, 28			; 0000001cH
  00367	e8 00 00 00 00	 call	 ?end@?$deque@U?$pair@MUD3DXVECTOR3@@@std@@V?$allocator@U?$pair@MUD3DXVECTOR3@@@std@@@2@@std@@QAE?AV?$_Deque_iterator@V?$_Deque_val@U?$_Deque_simple_types@U?$pair@MUD3DXVECTOR3@@@std@@@std@@@std@@@2@XZ ; std::deque<std::pair<float,D3DXVECTOR3>,std::allocator<std::pair<float,D3DXVECTOR3> > >::end
  0036c	89 45 f4	 mov	 DWORD PTR $T37[ebp], eax
; File C:\Program Files (x86)\Microsoft Visual Studio\2019\Community\VC\Tools\MSVC\14.28.29333\include\deque

; 351  :         return this->_Myoff == _Right._Myoff;

  0036f	8b 45 f4	 mov	 eax, DWORD PTR $T37[ebp]
  00372	8b 4d 74	 mov	 ecx, DWORD PTR _it$51[ebp+8]
  00375	3b 48 08	 cmp	 ecx, DWORD PTR [eax+8]
  00378	75 09		 jne	 SHORT $LN450@Update
  0037a	c7 45 34 01 00
	00 00		 mov	 DWORD PTR tv897[ebp], 1
  00381	eb 04		 jmp	 SHORT $LN451@Update
$LN450@Update:
  00383	83 65 34 00	 and	 DWORD PTR tv897[ebp], 0
$LN451@Update:
  00387	8a 45 34	 mov	 al, BYTE PTR tv897[ebp]
  0038a	88 45 79	 mov	 BYTE PTR $T53[ebp], al

; 355  :         return !(*this == _Right);

  0038d	0f b6 45 79	 movzx	 eax, BYTE PTR $T53[ebp]
  00391	85 c0		 test	 eax, eax
  00393	75 09		 jne	 SHORT $LN445@Update
  00395	c7 45 30 01 00
	00 00		 mov	 DWORD PTR tv911[ebp], 1
  0039c	eb 04		 jmp	 SHORT $LN446@Update
$LN445@Update:
  0039e	83 65 30 00	 and	 DWORD PTR tv911[ebp], 0
$LN446@Update:
  003a2	8a 45 30	 mov	 al, BYTE PTR tv911[ebp]
  003a5	88 45 78	 mov	 BYTE PTR $T52[ebp], al
; File D:\Metin2 Server Files\mainline\SRC_2014\Metin2Client\GameLib\WeaponTrace.cpp

; 57   : 		if (it!=m_LongTimePointList.end())

  003a8	0f b6 45 78	 movzx	 eax, BYTE PTR $T52[ebp]
  003ac	85 c0		 test	 eax, eax
  003ae	74 7b		 je	 SHORT $LN538@Update

; 58   : 			m_LongTimePointList.erase(it, m_LongTimePointList.end());

  003b0	8d 85 50 ff ff
	ff		 lea	 eax, DWORD PTR $T10[ebp]
  003b6	50		 push	 eax
  003b7	8b 8d 80 00 00
	00		 mov	 ecx, DWORD PTR _this$[ebp]
  003bd	83 c1 1c	 add	 ecx, 28			; 0000001cH
  003c0	e8 00 00 00 00	 call	 ?end@?$deque@U?$pair@MUD3DXVECTOR3@@@std@@V?$allocator@U?$pair@MUD3DXVECTOR3@@@std@@@2@@std@@QAE?AV?$_Deque_iterator@V?$_Deque_val@U?$_Deque_simple_types@U?$pair@MUD3DXVECTOR3@@@std@@@std@@@std@@@2@XZ ; std::deque<std::pair<float,D3DXVECTOR3>,std::allocator<std::pair<float,D3DXVECTOR3> > >::end
  003c5	89 45 28	 mov	 DWORD PTR $T47[ebp], eax
  003c8	83 ec 0c	 sub	 esp, 12			; 0000000cH
  003cb	8b c4		 mov	 eax, esp
  003cd	89 a5 74 ff ff
	ff		 mov	 DWORD PTR $T13[ebp], esp
  003d3	89 45 2c	 mov	 DWORD PTR _this$[ebp], eax
  003d6	ff 75 28	 push	 DWORD PTR $T47[ebp]
  003d9	8b 4d 2c	 mov	 ecx, DWORD PTR _this$[ebp]
  003dc	e8 00 00 00 00	 call	 ??0_Iterator_base12@std@@QAE@ABU01@@Z ; std::_Iterator_base12::_Iterator_base12
  003e1	8b 45 2c	 mov	 eax, DWORD PTR _this$[ebp]
  003e4	8b 4d 28	 mov	 ecx, DWORD PTR $T47[ebp]
  003e7	8b 49 08	 mov	 ecx, DWORD PTR [ecx+8]
  003ea	89 48 08	 mov	 DWORD PTR [eax+8], ecx
  003ed	83 ec 0c	 sub	 esp, 12			; 0000000cH
  003f0	8b c4		 mov	 eax, esp
  003f2	89 a5 78 ff ff
	ff		 mov	 DWORD PTR $T14[ebp], esp
  003f8	89 45 24	 mov	 DWORD PTR _this$[ebp], eax
  003fb	8d 45 6c	 lea	 eax, DWORD PTR _it$51[ebp]
  003fe	50		 push	 eax
  003ff	8b 4d 24	 mov	 ecx, DWORD PTR _this$[ebp]
  00402	e8 00 00 00 00	 call	 ??0_Iterator_base12@std@@QAE@ABU01@@Z ; std::_Iterator_base12::_Iterator_base12
  00407	8b 45 24	 mov	 eax, DWORD PTR _this$[ebp]
  0040a	8b 4d 74	 mov	 ecx, DWORD PTR _it$51[ebp+8]
  0040d	89 48 08	 mov	 DWORD PTR [eax+8], ecx
  00410	8d 85 44 ff ff
	ff		 lea	 eax, DWORD PTR $T9[ebp]
  00416	50		 push	 eax
  00417	8b 8d 80 00 00
	00		 mov	 ecx, DWORD PTR _this$[ebp]
  0041d	83 c1 1c	 add	 ecx, 28			; 0000001cH
  00420	e8 00 00 00 00	 call	 ?erase@?$deque@U?$pair@MUD3DXVECTOR3@@@std@@V?$allocator@U?$pair@MUD3DXVECTOR3@@@std@@@2@@std@@QAE?AV?$_Deque_iterator@V?$_Deque_val@U?$_Deque_simple_types@U?$pair@MUD3DXVECTOR3@@@std@@@std@@@std@@@2@V?$_Deque_const_iterator@V?$_Deque_val@U?$_Deque_simple_types@U?$pair@MUD3DXVECTOR3@@@std@@@std@@@std@@@2@0@Z ; std::deque<std::pair<float,D3DXVECTOR3>,std::allocator<std::pair<float,D3DXVECTOR3> > >::erase
  00425	89 85 7c ff ff
	ff		 mov	 DWORD PTR tv527[ebp], eax
$LN538@Update:

; 59   : 	}
; 60   : 
; 61   : 	if (m_isPlaying && m_fz>=0.0001f)

  0042b	8b 85 80 00 00
	00		 mov	 eax, DWORD PTR _this$[ebp]
  00431	83 b8 80 00 00
	00 00		 cmp	 DWORD PTR [eax+128], 0
  00438	0f 84 ec 02 00
	00		 je	 $LN14@Update
  0043e	8b 85 80 00 00
	00		 mov	 eax, DWORD PTR _this$[ebp]
  00444	f3 0f 10 40 74	 movss	 xmm0, DWORD PTR [eax+116]
  00449	0f 2f 05 00 00
	00 00		 comiss	 xmm0, DWORD PTR __real@38d1b717
  00450	0f 82 d4 02 00
	00		 jb	 $LN14@Update

; 62   : 	{
; 63   : 		D3DXMATRIX * pMatrix;
; 64   : 		if (m_pInstance->GetCompositeBoneMatrix(m_dwModelInstanceIndex, m_iBoneIndex, &pMatrix))

  00456	8d 45 f0	 lea	 eax, DWORD PTR _pMatrix$36[ebp]
  00459	50		 push	 eax
  0045a	8b 85 80 00 00
	00		 mov	 eax, DWORD PTR _this$[ebp]
  00460	ff b0 88 00 00
	00		 push	 DWORD PTR [eax+136]
  00466	8b 85 80 00 00
	00		 mov	 eax, DWORD PTR _this$[ebp]
  0046c	ff 70 48	 push	 DWORD PTR [eax+72]
  0046f	8b 85 80 00 00
	00		 mov	 eax, DWORD PTR _this$[ebp]
  00475	8b 48 44	 mov	 ecx, DWORD PTR [eax+68]
  00478	e8 00 00 00 00	 call	 ?GetCompositeBoneMatrix@CGraphicThingInstance@@QAEHKKPAPAUD3DXMATRIX@@@Z ; CGraphicThingInstance::GetCompositeBoneMatrix
  0047d	85 c0		 test	 eax, eax
  0047f	0f 84 a5 02 00
	00		 je	 $LN14@Update

; 65   : 		{
; 66   : 			D3DXMATRIX * pBoneMat;
; 67   : 			m_pInstance->GetBoneMatrix(m_dwModelInstanceIndex, m_iBoneIndex, &pBoneMat);

  00485	8d 45 68	 lea	 eax, DWORD PTR _pBoneMat$50[ebp]
  00488	50		 push	 eax
  00489	8b 85 80 00 00
	00		 mov	 eax, DWORD PTR _this$[ebp]
  0048f	ff b0 88 00 00
	00		 push	 DWORD PTR [eax+136]
  00495	8b 85 80 00 00
	00		 mov	 eax, DWORD PTR _this$[ebp]
  0049b	ff 70 48	 push	 DWORD PTR [eax+72]
  0049e	8b 85 80 00 00
	00		 mov	 eax, DWORD PTR _this$[ebp]
  004a4	8b 48 44	 mov	 ecx, DWORD PTR [eax+68]
  004a7	e8 00 00 00 00	 call	 ?GetBoneMatrix@CGraphicThingInstance@@QAEHKKPAPAUD3DXMATRIX@@@Z ; CGraphicThingInstance::GetBoneMatrix

; 68   : 			D3DXMATRIX mat = *pMatrix;

  004ac	6a 10		 push	 16			; 00000010H
  004ae	59		 pop	 ecx
  004af	8b 75 f0	 mov	 esi, DWORD PTR _pMatrix$36[ebp]
  004b2	8d bd 44 02 00
	00		 lea	 edi, DWORD PTR _mat$67[ebp]
  004b8	f3 a5		 rep movsd

; 69   : 			mat._41 = pBoneMat->_41;

  004ba	8b 45 68	 mov	 eax, DWORD PTR _pBoneMat$50[ebp]
  004bd	f3 0f 10 40 30	 movss	 xmm0, DWORD PTR [eax+48]
  004c2	f3 0f 11 85 74
	02 00 00	 movss	 DWORD PTR _mat$67[ebp+48], xmm0

; 70   : 			mat._42 = pBoneMat->_42;

  004ca	8b 45 68	 mov	 eax, DWORD PTR _pBoneMat$50[ebp]
  004cd	f3 0f 10 40 34	 movss	 xmm0, DWORD PTR [eax+52]
  004d2	f3 0f 11 85 78
	02 00 00	 movss	 DWORD PTR _mat$67[ebp+52], xmm0

; 71   : 			mat._43 = pBoneMat->_43;

  004da	8b 45 68	 mov	 eax, DWORD PTR _pBoneMat$50[ebp]
  004dd	f3 0f 10 40 38	 movss	 xmm0, DWORD PTR [eax+56]
  004e2	f3 0f 11 85 7c
	02 00 00	 movss	 DWORD PTR _mat$67[ebp+56], xmm0

; 72   : 			//   .
; 73   : 			D3DXMATRIX matPoint;
; 74   : 			D3DXMATRIX matTranslation;
; 75   : 			D3DXMATRIX matRotation;
; 76   : 
; 77   : 			//D3DXMatrixTranslation(&matTranslation, 0.0f, m_fLength, 0.0f);
; 78   : 			D3DXMatrixTranslation(&matTranslation, 0.0f, 0.0f, m_fLength*fReachScale);

  004ea	8b 85 80 00 00
	00		 mov	 eax, DWORD PTR _this$[ebp]
  004f0	f3 0f 10 40 7c	 movss	 xmm0, DWORD PTR [eax+124]
  004f5	f3 0f 59 85 c8
	02 00 00	 mulss	 xmm0, DWORD PTR _fReachScale$[ebp]
  004fd	51		 push	 ecx
  004fe	f3 0f 11 04 24	 movss	 DWORD PTR [esp], xmm0
  00503	51		 push	 ecx
  00504	0f 57 c0	 xorps	 xmm0, xmm0
  00507	f3 0f 11 04 24	 movss	 DWORD PTR [esp], xmm0
  0050c	51		 push	 ecx
  0050d	0f 57 c0	 xorps	 xmm0, xmm0
  00510	f3 0f 11 04 24	 movss	 DWORD PTR [esp], xmm0
  00515	8d 85 84 01 00
	00		 lea	 eax, DWORD PTR _matTranslation$64[ebp]
  0051b	50		 push	 eax
  0051c	e8 00 00 00 00	 call	 _D3DXMatrixTranslation@16

; 79   : 			D3DXMatrixRotationZ(&matRotation, D3DXToRadian(m_fRotation));

  00521	8b 85 80 00 00
	00		 mov	 eax, DWORD PTR _this$[ebp]
  00527	f3 0f 10 40 78	 movss	 xmm0, DWORD PTR [eax+120]
  0052c	f3 0f 59 05 00
	00 00 00	 mulss	 xmm0, DWORD PTR __real@3c8efa35
  00534	51		 push	 ecx
  00535	f3 0f 11 04 24	 movss	 DWORD PTR [esp], xmm0
  0053a	8d 85 c4 00 00
	00		 lea	 eax, DWORD PTR _matRotation$61[ebp]
  00540	50		 push	 eax
  00541	e8 00 00 00 00	 call	 _D3DXMatrixRotationZ@8
; File D:\Metin2 Server Files\mainline\SRC_2014\M2Data\include\d3dx8math.inl

; 580  :     D3DXMatrixMultiply(&matT, this, &mat);

  00546	8d 85 c4 00 00
	00		 lea	 eax, DWORD PTR _matRotation$61[ebp]
  0054c	50		 push	 eax
  0054d	8d 85 44 02 00
	00		 lea	 eax, DWORD PTR _mat$67[ebp]
  00553	50		 push	 eax
  00554	8d 85 04 01 00
	00		 lea	 eax, DWORD PTR _matT$62[ebp]
  0055a	50		 push	 eax
  0055b	e8 00 00 00 00	 call	 _D3DXMatrixMultiply@12

; 581  :     return matT;

  00560	6a 10		 push	 16			; 00000010H
  00562	59		 pop	 ecx
  00563	8d b5 04 01 00
	00		 lea	 esi, DWORD PTR _matT$62[ebp]
  00569	8d bd 44 01 00
	00		 lea	 edi, DWORD PTR $T63[ebp]
  0056f	f3 a5		 rep movsd
; File D:\Metin2 Server Files\mainline\SRC_2014\Metin2Client\GameLib\WeaponTrace.cpp

; 82   : 			matPoint = /**pMatrix*/mat * matRotation;

  00571	6a 10		 push	 16			; 00000010H
  00573	59		 pop	 ecx
  00574	8d b5 44 01 00
	00		 lea	 esi, DWORD PTR $T63[ebp]
  0057a	8d bd 84 00 00
	00		 lea	 edi, DWORD PTR _matPoint$60[ebp]
  00580	f3 a5		 rep movsd

; 89   : 			m_ShortTimePointList.push_front(

  00582	0f 57 c0	 xorps	 xmm0, xmm0
  00585	f3 0f 11 45 e0	 movss	 DWORD PTR $T35[ebp], xmm0
  0058a	8b 85 80 00 00
	00		 mov	 eax, DWORD PTR _this$[ebp]
  00590	f3 0f 10 40 74	 movss	 xmm0, DWORD PTR [eax+116]
  00595	f3 0f 58 85 bc
	00 00 00	 addss	 xmm0, DWORD PTR _matPoint$60[ebp+56]
  0059d	f3 0f 11 45 e4	 movss	 DWORD PTR _fz$[ebp], xmm0
  005a2	8b 85 80 00 00
	00		 mov	 eax, DWORD PTR _this$[ebp]
  005a8	f3 0f 10 40 70	 movss	 xmm0, DWORD PTR [eax+112]
  005ad	f3 0f 58 85 b8
	00 00 00	 addss	 xmm0, DWORD PTR _matPoint$60[ebp+52]
  005b5	f3 0f 11 45 e8	 movss	 DWORD PTR _fy$[ebp], xmm0
  005ba	8b 85 80 00 00
	00		 mov	 eax, DWORD PTR _this$[ebp]
  005c0	f3 0f 10 40 6c	 movss	 xmm0, DWORD PTR [eax+108]
  005c5	f3 0f 58 85 b4
	00 00 00	 addss	 xmm0, DWORD PTR _matPoint$60[ebp+48]
  005cd	f3 0f 11 45 ec	 movss	 DWORD PTR _fx$[ebp], xmm0
; File D:\Metin2 Server Files\mainline\SRC_2014\M2Data\include\d3dx8math.inl

; 180  :     x = fx;

  005d2	f3 0f 10 45 ec	 movss	 xmm0, DWORD PTR _fx$[ebp]
  005d7	f3 0f 11 85 a4
	02 00 00	 movss	 DWORD PTR $T70[ebp], xmm0

; 181  :     y = fy;

  005df	f3 0f 10 45 e8	 movss	 xmm0, DWORD PTR _fy$[ebp]
  005e4	f3 0f 11 85 a8
	02 00 00	 movss	 DWORD PTR $T70[ebp+4], xmm0

; 182  :     z = fz;

  005ec	f3 0f 10 45 e4	 movss	 xmm0, DWORD PTR _fz$[ebp]
  005f1	f3 0f 11 85 ac
	02 00 00	 movss	 DWORD PTR $T70[ebp+8], xmm0
; File C:\Program Files (x86)\Microsoft Visual Studio\2019\Community\VC\Tools\MSVC\14.28.29333\include\type_traits

; 1443 :     return static_cast<_Ty&&>(_Arg);

  005f9	8d 45 e0	 lea	 eax, DWORD PTR $T35[ebp]
  005fc	89 45 dc	 mov	 DWORD PTR $T34[ebp], eax
; File C:\Program Files (x86)\Microsoft Visual Studio\2019\Community\VC\Tools\MSVC\14.28.29333\include\utility

; 190  :         : first(_STD forward<_Other1>(_Val1)), second(_STD forward<_Other2>(_Val2)) {}

  005ff	8b 45 dc	 mov	 eax, DWORD PTR $T34[ebp]
  00602	f3 0f 10 00	 movss	 xmm0, DWORD PTR [eax]
  00606	f3 0f 11 85 84
	02 00 00	 movss	 DWORD PTR $T68[ebp], xmm0
; File C:\Program Files (x86)\Microsoft Visual Studio\2019\Community\VC\Tools\MSVC\14.28.29333\include\type_traits

; 1443 :     return static_cast<_Ty&&>(_Arg);

  0060e	8d 85 a4 02 00
	00		 lea	 eax, DWORD PTR $T70[ebp]
  00614	89 45 d8	 mov	 DWORD PTR $T33[ebp], eax
; File C:\Program Files (x86)\Microsoft Visual Studio\2019\Community\VC\Tools\MSVC\14.28.29333\include\utility

; 190  :         : first(_STD forward<_Other1>(_Val1)), second(_STD forward<_Other2>(_Val2)) {}

  00617	8d bd 88 02 00
	00		 lea	 edi, DWORD PTR $T68[ebp+4]
  0061d	8b 75 d8	 mov	 esi, DWORD PTR $T33[ebp]
  00620	a5		 movsd
  00621	a5		 movsd
  00622	a5		 movsd
; File D:\Metin2 Server Files\mainline\SRC_2014\Metin2Client\GameLib\WeaponTrace.cpp

; 89   : 			m_ShortTimePointList.push_front(

  00623	8d 85 84 02 00
	00		 lea	 eax, DWORD PTR $T68[ebp]
  00629	50		 push	 eax
  0062a	8b 8d 80 00 00
	00		 mov	 ecx, DWORD PTR _this$[ebp]
  00630	83 c1 08	 add	 ecx, 8
  00633	e8 00 00 00 00	 call	 ?push_front@?$deque@U?$pair@MUD3DXVECTOR3@@@std@@V?$allocator@U?$pair@MUD3DXVECTOR3@@@std@@@2@@std@@QAEX$$QAU?$pair@MUD3DXVECTOR3@@@2@@Z ; std::deque<std::pair<float,D3DXVECTOR3>,std::allocator<std::pair<float,D3DXVECTOR3> > >::push_front
; File D:\Metin2 Server Files\mainline\SRC_2014\M2Data\include\d3dx8math.inl

; 580  :     D3DXMatrixMultiply(&matT, this, &mat);

  00638	8d 85 84 00 00
	00		 lea	 eax, DWORD PTR _matPoint$60[ebp]
  0063e	50		 push	 eax
  0063f	8d 85 84 01 00
	00		 lea	 eax, DWORD PTR _matTranslation$64[ebp]
  00645	50		 push	 eax
  00646	8d 85 c4 01 00
	00		 lea	 eax, DWORD PTR _matT$65[ebp]
  0064c	50		 push	 eax
  0064d	e8 00 00 00 00	 call	 _D3DXMatrixMultiply@12

; 581  :     return matT;

  00652	6a 10		 push	 16			; 00000010H
  00654	59		 pop	 ecx
  00655	8d b5 c4 01 00
	00		 lea	 esi, DWORD PTR _matT$65[ebp]
  0065b	8d bd 04 02 00
	00		 lea	 edi, DWORD PTR $T66[ebp]
  00661	f3 a5		 rep movsd
; File D:\Metin2 Server Files\mainline\SRC_2014\Metin2Client\GameLib\WeaponTrace.cpp

; 100  : 			matPoint = matTranslation * matPoint;

  00663	6a 10		 push	 16			; 00000010H
  00665	59		 pop	 ecx
  00666	8d b5 04 02 00
	00		 lea	 esi, DWORD PTR $T66[ebp]
  0066c	8d bd 84 00 00
	00		 lea	 edi, DWORD PTR _matPoint$60[ebp]
  00672	f3 a5		 rep movsd

; 106  : 			m_LongTimePointList.push_front(

  00674	0f 57 c0	 xorps	 xmm0, xmm0
  00677	f3 0f 11 45 c8	 movss	 DWORD PTR $T32[ebp], xmm0
  0067c	8b 85 80 00 00
	00		 mov	 eax, DWORD PTR _this$[ebp]
  00682	f3 0f 10 40 74	 movss	 xmm0, DWORD PTR [eax+116]
  00687	f3 0f 58 85 bc
	00 00 00	 addss	 xmm0, DWORD PTR _matPoint$60[ebp+56]
  0068f	f3 0f 11 45 cc	 movss	 DWORD PTR _fz$[ebp], xmm0
  00694	8b 85 80 00 00
	00		 mov	 eax, DWORD PTR _this$[ebp]
  0069a	f3 0f 10 40 70	 movss	 xmm0, DWORD PTR [eax+112]
  0069f	f3 0f 58 85 b8
	00 00 00	 addss	 xmm0, DWORD PTR _matPoint$60[ebp+52]
  006a7	f3 0f 11 45 d0	 movss	 DWORD PTR _fy$[ebp], xmm0
  006ac	8b 85 80 00 00
	00		 mov	 eax, DWORD PTR _this$[ebp]
  006b2	f3 0f 10 40 6c	 movss	 xmm0, DWORD PTR [eax+108]
  006b7	f3 0f 58 85 b4
	00 00 00	 addss	 xmm0, DWORD PTR _matPoint$60[ebp+48]
  006bf	f3 0f 11 45 d4	 movss	 DWORD PTR _fx$[ebp], xmm0
; File D:\Metin2 Server Files\mainline\SRC_2014\M2Data\include\d3dx8math.inl

; 180  :     x = fx;

  006c4	f3 0f 10 45 d4	 movss	 xmm0, DWORD PTR _fx$[ebp]
  006c9	f3 0f 11 85 b0
	02 00 00	 movss	 DWORD PTR $T71[ebp], xmm0

; 181  :     y = fy;

  006d1	f3 0f 10 45 d0	 movss	 xmm0, DWORD PTR _fy$[ebp]
  006d6	f3 0f 11 85 b4
	02 00 00	 movss	 DWORD PTR $T71[ebp+4], xmm0

; 182  :     z = fz;

  006de	f3 0f 10 45 cc	 movss	 xmm0, DWORD PTR _fz$[ebp]
  006e3	f3 0f 11 85 b8
	02 00 00	 movss	 DWORD PTR $T71[ebp+8], xmm0
; File C:\Program Files (x86)\Microsoft Visual Studio\2019\Community\VC\Tools\MSVC\14.28.29333\include\type_traits

; 1443 :     return static_cast<_Ty&&>(_Arg);

  006eb	8d 45 c8	 lea	 eax, DWORD PTR $T32[ebp]
  006ee	89 45 c4	 mov	 DWORD PTR $T31[ebp], eax
; File C:\Program Files (x86)\Microsoft Visual Studio\2019\Community\VC\Tools\MSVC\14.28.29333\include\utility

; 190  :         : first(_STD forward<_Other1>(_Val1)), second(_STD forward<_Other2>(_Val2)) {}

  006f1	8b 45 c4	 mov	 eax, DWORD PTR $T31[ebp]
  006f4	f3 0f 10 00	 movss	 xmm0, DWORD PTR [eax]
  006f8	f3 0f 11 85 94
	02 00 00	 movss	 DWORD PTR $T69[ebp], xmm0
; File C:\Program Files (x86)\Microsoft Visual Studio\2019\Community\VC\Tools\MSVC\14.28.29333\include\type_traits

; 1443 :     return static_cast<_Ty&&>(_Arg);

  00700	8d 85 b0 02 00
	00		 lea	 eax, DWORD PTR $T71[ebp]
  00706	89 45 c0	 mov	 DWORD PTR $T30[ebp], eax
; File C:\Program Files (x86)\Microsoft Visual Studio\2019\Community\VC\Tools\MSVC\14.28.29333\include\utility

; 190  :         : first(_STD forward<_Other1>(_Val1)), second(_STD forward<_Other2>(_Val2)) {}

  00709	8d bd 98 02 00
	00		 lea	 edi, DWORD PTR $T69[ebp+4]
  0070f	8b 75 c0	 mov	 esi, DWORD PTR $T30[ebp]
  00712	a5		 movsd
  00713	a5		 movsd
  00714	a5		 movsd
; File D:\Metin2 Server Files\mainline\SRC_2014\Metin2Client\GameLib\WeaponTrace.cpp

; 106  : 			m_LongTimePointList.push_front(

  00715	8d 85 94 02 00
	00		 lea	 eax, DWORD PTR $T69[ebp]
  0071b	50		 push	 eax
  0071c	8b 8d 80 00 00
	00		 mov	 ecx, DWORD PTR _this$[ebp]
  00722	83 c1 1c	 add	 ecx, 28			; 0000001cH
  00725	e8 00 00 00 00	 call	 ?push_front@?$deque@U?$pair@MUD3DXVECTOR3@@@std@@V?$allocator@U?$pair@MUD3DXVECTOR3@@@std@@@2@@std@@QAEX$$QAU?$pair@MUD3DXVECTOR3@@@2@@Z ; std::deque<std::pair<float,D3DXVECTOR3>,std::allocator<std::pair<float,D3DXVECTOR3> > >::push_front
$LN14@Update:
$LN1@Update:

; 107  : 				TTimePoint(
; 108  : 					0.0f,
; 109  : 					D3DXVECTOR3(
; 110  : 						m_fx + matPoint._41,
; 111  : 						m_fy + matPoint._42,
; 112  : 						m_fz + matPoint._43
; 113  : 						)
; 114  : 					)
; 115  : 				);
; 116  : 		}
; 117  : 	}
; 118  : 
; 119  : 	//if (!BuildVertex())
; 120  : 	//	return;
; 121  : }

  0072a	5f		 pop	 edi
  0072b	5e		 pop	 esi
  0072c	8b 8d bc 02 00
	00		 mov	 ecx, DWORD PTR __$ArrayPad$[ebp]
  00732	33 cd		 xor	 ecx, ebp
  00734	e8 00 00 00 00	 call	 @__security_check_cookie@4
  00739	81 c5 c0 02 00
	00		 add	 ebp, 704		; 000002c0H
  0073f	c9		 leave
  00740	c2 04 00	 ret	 4
?Update@CWeaponTrace@@QAEXM@Z ENDP			; CWeaponTrace::Update
_TEXT	ENDS
; Function compile flags: /Odspy
; File D:\Metin2 Server Files\mainline\SRC_2014\Metin2Client\GameLib\WeaponTrace.cpp
;	COMDAT ?SetSamplingTime@CWeaponTrace@@QAEXM@Z
_TEXT	SEGMENT
_this$ = -4						; size = 4
_fSamplingTime$ = 8					; size = 4
?SetSamplingTime@CWeaponTrace@@QAEXM@Z PROC		; CWeaponTrace::SetSamplingTime, COMDAT
; _this$ = ecx

; 419  : {

  00000	55		 push	 ebp
  00001	8b ec		 mov	 ebp, esp
  00003	51		 push	 ecx
  00004	89 4d fc	 mov	 DWORD PTR _this$[ebp], ecx

; 420  : 	m_fSamplingTime = fSamplingTime;

  00007	8b 45 fc	 mov	 eax, DWORD PTR _this$[ebp]
  0000a	f3 0f 10 45 08	 movss	 xmm0, DWORD PTR _fSamplingTime$[ebp]
  0000f	f3 0f 11 40 40	 movss	 DWORD PTR [eax+64], xmm0

; 421  : }

  00014	c9		 leave
  00015	c2 04 00	 ret	 4
?SetSamplingTime@CWeaponTrace@@QAEXM@Z ENDP		; CWeaponTrace::SetSamplingTime
_TEXT	ENDS
; Function compile flags: /Odspy
; File D:\Metin2 Server Files\mainline\SRC_2014\Metin2Client\GameLib\WeaponTrace.cpp
;	COMDAT ?SetLifeTime@CWeaponTrace@@QAEXM@Z
_TEXT	SEGMENT
_this$ = -4						; size = 4
_fLifeTime$ = 8						; size = 4
?SetLifeTime@CWeaponTrace@@QAEXM@Z PROC			; CWeaponTrace::SetLifeTime, COMDAT
; _this$ = ecx

; 414  : {

  00000	55		 push	 ebp
  00001	8b ec		 mov	 ebp, esp
  00003	51		 push	 ecx
  00004	89 4d fc	 mov	 DWORD PTR _this$[ebp], ecx

; 415  : 	m_fLifeTime = fLifeTime;

  00007	8b 45 fc	 mov	 eax, DWORD PTR _this$[ebp]
  0000a	f3 0f 10 45 08	 movss	 xmm0, DWORD PTR _fLifeTime$[ebp]
  0000f	f3 0f 11 40 3c	 movss	 DWORD PTR [eax+60], xmm0

; 416  : }

  00014	c9		 leave
  00015	c2 04 00	 ret	 4
?SetLifeTime@CWeaponTrace@@QAEXM@Z ENDP			; CWeaponTrace::SetLifeTime
_TEXT	ENDS
; Function compile flags: /Odspy
; File D:\Metin2 Server Files\mainline\SRC_2014\Metin2Client\GameLib\WeaponTrace.cpp
;	COMDAT ?SetRotation@CWeaponTrace@@QAEXM@Z
_TEXT	SEGMENT
_this$ = -4						; size = 4
_fRotation$ = 8						; size = 4
?SetRotation@CWeaponTrace@@QAEXM@Z PROC			; CWeaponTrace::SetRotation, COMDAT
; _this$ = ecx

; 409  : {

  00000	55		 push	 ebp
  00001	8b ec		 mov	 ebp, esp
  00003	51		 push	 ecx
  00004	89 4d fc	 mov	 DWORD PTR _this$[ebp], ecx

; 410  : 	m_fRotation = fRotation;

  00007	8b 45 fc	 mov	 eax, DWORD PTR _this$[ebp]
  0000a	f3 0f 10 45 08	 movss	 xmm0, DWORD PTR _fRotation$[ebp]
  0000f	f3 0f 11 40 78	 movss	 DWORD PTR [eax+120], xmm0

; 411  : }

  00014	c9		 leave
  00015	c2 04 00	 ret	 4
?SetRotation@CWeaponTrace@@QAEXM@Z ENDP			; CWeaponTrace::SetRotation
_TEXT	ENDS
; Function compile flags: /Odspy
; File D:\Metin2 Server Files\mainline\SRC_2014\Metin2Client\GameLib\WeaponTrace.cpp
;	COMDAT ?SetPosition@CWeaponTrace@@QAEXMMM@Z
_TEXT	SEGMENT
_this$ = -4						; size = 4
_fx$ = 8						; size = 4
_fy$ = 12						; size = 4
_fz$ = 16						; size = 4
?SetPosition@CWeaponTrace@@QAEXMMM@Z PROC		; CWeaponTrace::SetPosition, COMDAT
; _this$ = ecx

; 402  : {

  00000	55		 push	 ebp
  00001	8b ec		 mov	 ebp, esp
  00003	51		 push	 ecx
  00004	89 4d fc	 mov	 DWORD PTR _this$[ebp], ecx

; 403  : 	m_fx = fx;

  00007	8b 45 fc	 mov	 eax, DWORD PTR _this$[ebp]
  0000a	f3 0f 10 45 08	 movss	 xmm0, DWORD PTR _fx$[ebp]
  0000f	f3 0f 11 40 6c	 movss	 DWORD PTR [eax+108], xmm0

; 404  : 	m_fy = fy;

  00014	8b 45 fc	 mov	 eax, DWORD PTR _this$[ebp]
  00017	f3 0f 10 45 0c	 movss	 xmm0, DWORD PTR _fy$[ebp]
  0001c	f3 0f 11 40 70	 movss	 DWORD PTR [eax+112], xmm0

; 405  : 	m_fz = fz;

  00021	8b 45 fc	 mov	 eax, DWORD PTR _this$[ebp]
  00024	f3 0f 10 45 10	 movss	 xmm0, DWORD PTR _fz$[ebp]
  00029	f3 0f 11 40 74	 movss	 DWORD PTR [eax+116], xmm0

; 406  : }

  0002e	c9		 leave
  0002f	c2 0c 00	 ret	 12			; 0000000cH
?SetPosition@CWeaponTrace@@QAEXMMM@Z ENDP		; CWeaponTrace::SetPosition
_TEXT	ENDS
; Function compile flags: /Odspy
; File D:\Metin2 Server Files\mainline\SRC_2014\Metin2Client\GameLib\WeaponTrace.cpp
; File D:\Metin2 Server Files\mainline\SRC_2014\M2Data\include\d3dx8math.inl
; File D:\Metin2 Server Files\mainline\SRC_2014\Metin2Client\GameLib\WeaponTrace.cpp
; File C:\Program Files (x86)\Windows Kits\10\Include\10.0.18362.0\ucrt\corecrt_math.h
; File D:\Metin2 Server Files\mainline\SRC_2014\Metin2Client\GameLib\WeaponTrace.cpp
;	COMDAT ?SetWeaponInstance@CWeaponTrace@@QAE_NPAVCGraphicThingInstance@@KPBD@Z
_TEXT	SEGMENT
__X$ = -120						; size = 4
$T1 = -116						; size = 4
$T2 = -112						; size = 4
_fz$ = -108						; size = 4
_fy$ = -104						; size = 4
_fx$ = -100						; size = 4
_fz$ = -96						; size = 4
_fy$ = -92						; size = 4
_fx$ = -88						; size = 4
_fz$ = -84						; size = 4
_fy$ = -80						; size = 4
_fx$ = -76						; size = 4
_pmat$ = -72						; size = 4
_this$ = -68						; size = 4
_v3Min$ = -64						; size = 12
_v3Max$ = -52						; size = 12
$T3 = -40						; size = 12
_v3Bone$ = -28						; size = 12
$T4 = -16						; size = 12
__$ArrayPad$ = -4					; size = 4
_pInstance$ = 8						; size = 4
_dwModelIndex$ = 12					; size = 4
_c_szBoneName$ = 16					; size = 4
?SetWeaponInstance@CWeaponTrace@@QAE_NPAVCGraphicThingInstance@@KPBD@Z PROC ; CWeaponTrace::SetWeaponInstance, COMDAT
; _this$ = ecx

; 373  : {

  00000	55		 push	 ebp
  00001	8b ec		 mov	 ebp, esp
  00003	83 ec 78	 sub	 esp, 120		; 00000078H
  00006	a1 00 00 00 00	 mov	 eax, DWORD PTR ___security_cookie
  0000b	33 c5		 xor	 eax, ebp
  0000d	89 45 fc	 mov	 DWORD PTR __$ArrayPad$[ebp], eax
  00010	89 4d bc	 mov	 DWORD PTR _this$[ebp], ecx

; 374  : 	pInstance->Update();

  00013	8b 4d 08	 mov	 ecx, DWORD PTR _pInstance$[ebp]
  00016	e8 00 00 00 00	 call	 ?Update@CGraphicObjectInstance@@QAEXXZ ; CGraphicObjectInstance::Update

; 375  : 	pInstance->DeformNoSkin();

  0001b	8b 4d 08	 mov	 ecx, DWORD PTR _pInstance$[ebp]
  0001e	e8 00 00 00 00	 call	 ?DeformNoSkin@CGraphicThingInstance@@QAEXXZ ; CGraphicThingInstance::DeformNoSkin

; 376  : 
; 377  : 	D3DXVECTOR3 v3Min;
; 378  : 	D3DXVECTOR3 v3Max;
; 379  : 	if (!pInstance->GetBoundBox(dwModelIndex, &v3Min, &v3Max))

  00023	8d 45 cc	 lea	 eax, DWORD PTR _v3Max$[ebp]
  00026	50		 push	 eax
  00027	8d 45 c0	 lea	 eax, DWORD PTR _v3Min$[ebp]
  0002a	50		 push	 eax
  0002b	ff 75 0c	 push	 DWORD PTR _dwModelIndex$[ebp]
  0002e	8b 4d 08	 mov	 ecx, DWORD PTR _pInstance$[ebp]
  00031	e8 00 00 00 00	 call	 ?GetBoundBox@CGraphicThingInstance@@QAEHKPAUD3DXVECTOR3@@0@Z ; CGraphicThingInstance::GetBoundBox
  00036	85 c0		 test	 eax, eax
  00038	75 07		 jne	 SHORT $LN2@SetWeaponI

; 380  : 		return false;

  0003a	32 c0		 xor	 al, al
  0003c	e9 99 01 00 00	 jmp	 $LN1@SetWeaponI
$LN2@SetWeaponI:

; 381  : 
; 382  : 	m_iBoneIndex = 0;

  00041	8b 45 bc	 mov	 eax, DWORD PTR _this$[ebp]
  00044	83 a0 88 00 00
	00 00		 and	 DWORD PTR [eax+136], 0

; 383  : 	m_dwModelInstanceIndex = dwModelIndex;

  0004b	8b 45 bc	 mov	 eax, DWORD PTR _this$[ebp]
  0004e	8b 4d 0c	 mov	 ecx, DWORD PTR _dwModelIndex$[ebp]
  00051	89 48 48	 mov	 DWORD PTR [eax+72], ecx

; 384  : 
; 385  : 	m_pInstance = pInstance;

  00054	8b 45 bc	 mov	 eax, DWORD PTR _this$[ebp]
  00057	8b 4d 08	 mov	 ecx, DWORD PTR _pInstance$[ebp]
  0005a	89 48 44	 mov	 DWORD PTR [eax+68], ecx

; 386  : 	D3DXMATRIX * pmat;
; 387  : 	pInstance->GetBoneMatrix(dwModelIndex, 0, &pmat);

  0005d	8d 45 b8	 lea	 eax, DWORD PTR _pmat$[ebp]
  00060	50		 push	 eax
  00061	6a 00		 push	 0
  00063	ff 75 0c	 push	 DWORD PTR _dwModelIndex$[ebp]
  00066	8b 4d 08	 mov	 ecx, DWORD PTR _pInstance$[ebp]
  00069	e8 00 00 00 00	 call	 ?GetBoneMatrix@CGraphicThingInstance@@QAEHKKPAPAUD3DXMATRIX@@@Z ; CGraphicThingInstance::GetBoneMatrix

; 388  : 	D3DXVECTOR3 v3Bone(pmat->_41,pmat->_42,pmat->_43);

  0006e	8b 45 b8	 mov	 eax, DWORD PTR _pmat$[ebp]
  00071	f3 0f 10 40 30	 movss	 xmm0, DWORD PTR [eax+48]
  00076	f3 0f 11 45 b4	 movss	 DWORD PTR _fx$[ebp], xmm0
  0007b	8b 45 b8	 mov	 eax, DWORD PTR _pmat$[ebp]
  0007e	f3 0f 10 40 34	 movss	 xmm0, DWORD PTR [eax+52]
  00083	f3 0f 11 45 b0	 movss	 DWORD PTR _fy$[ebp], xmm0
  00088	8b 45 b8	 mov	 eax, DWORD PTR _pmat$[ebp]
  0008b	f3 0f 10 40 38	 movss	 xmm0, DWORD PTR [eax+56]
  00090	f3 0f 11 45 ac	 movss	 DWORD PTR _fz$[ebp], xmm0
; File D:\Metin2 Server Files\mainline\SRC_2014\M2Data\include\d3dx8math.inl

; 180  :     x = fx;

  00095	f3 0f 10 45 b4	 movss	 xmm0, DWORD PTR _fx$[ebp]
  0009a	f3 0f 11 45 e4	 movss	 DWORD PTR _v3Bone$[ebp], xmm0

; 181  :     y = fy;

  0009f	f3 0f 10 45 b0	 movss	 xmm0, DWORD PTR _fy$[ebp]
  000a4	f3 0f 11 45 e8	 movss	 DWORD PTR _v3Bone$[ebp+4], xmm0

; 182  :     z = fz;

  000a9	f3 0f 10 45 ac	 movss	 xmm0, DWORD PTR _fz$[ebp]
  000ae	f3 0f 11 45 ec	 movss	 DWORD PTR _v3Bone$[ebp+8], xmm0

; 263  :     return D3DXVECTOR3(x - v.x, y - v.y, z - v.z);

  000b3	f3 0f 10 45 e4	 movss	 xmm0, DWORD PTR _v3Bone$[ebp]
  000b8	f3 0f 5c 45 cc	 subss	 xmm0, DWORD PTR _v3Max$[ebp]
  000bd	f3 0f 11 45 a8	 movss	 DWORD PTR _fx$[ebp], xmm0
  000c2	f3 0f 10 45 e8	 movss	 xmm0, DWORD PTR _v3Bone$[ebp+4]
  000c7	f3 0f 5c 45 d0	 subss	 xmm0, DWORD PTR _v3Max$[ebp+4]
  000cc	f3 0f 11 45 a4	 movss	 DWORD PTR _fy$[ebp], xmm0
  000d1	f3 0f 10 45 ec	 movss	 xmm0, DWORD PTR _v3Bone$[ebp+8]
  000d6	f3 0f 5c 45 d4	 subss	 xmm0, DWORD PTR _v3Max$[ebp+8]
  000db	f3 0f 11 45 a0	 movss	 DWORD PTR _fz$[ebp], xmm0

; 180  :     x = fx;

  000e0	f3 0f 10 45 a8	 movss	 xmm0, DWORD PTR _fx$[ebp]
  000e5	f3 0f 11 45 f0	 movss	 DWORD PTR $T4[ebp], xmm0

; 181  :     y = fy;

  000ea	f3 0f 10 45 a4	 movss	 xmm0, DWORD PTR _fy$[ebp]
  000ef	f3 0f 11 45 f4	 movss	 DWORD PTR $T4[ebp+4], xmm0

; 182  :     z = fz;

  000f4	f3 0f 10 45 a0	 movss	 xmm0, DWORD PTR _fz$[ebp]
  000f9	f3 0f 11 45 f8	 movss	 DWORD PTR $T4[ebp+8], xmm0

; 1253 :     return pV->x * pV->x + pV->y * pV->y + pV->z * pV->z;

  000fe	f3 0f 10 45 f0	 movss	 xmm0, DWORD PTR $T4[ebp]
  00103	f3 0f 59 45 f0	 mulss	 xmm0, DWORD PTR $T4[ebp]
  00108	f3 0f 10 4d f4	 movss	 xmm1, DWORD PTR $T4[ebp+4]
  0010d	f3 0f 59 4d f4	 mulss	 xmm1, DWORD PTR $T4[ebp+4]
  00112	f3 0f 58 c1	 addss	 xmm0, xmm1
  00116	f3 0f 10 4d f8	 movss	 xmm1, DWORD PTR $T4[ebp+8]
  0011b	f3 0f 59 4d f8	 mulss	 xmm1, DWORD PTR $T4[ebp+8]
  00120	f3 0f 58 c1	 addss	 xmm0, xmm1
  00124	f3 0f 11 45 90	 movss	 DWORD PTR $T2[ebp], xmm0

; 263  :     return D3DXVECTOR3(x - v.x, y - v.y, z - v.z);

  00129	f3 0f 10 45 e4	 movss	 xmm0, DWORD PTR _v3Bone$[ebp]
  0012e	f3 0f 5c 45 c0	 subss	 xmm0, DWORD PTR _v3Min$[ebp]
  00133	f3 0f 11 45 9c	 movss	 DWORD PTR _fx$[ebp], xmm0
  00138	f3 0f 10 45 e8	 movss	 xmm0, DWORD PTR _v3Bone$[ebp+4]
  0013d	f3 0f 5c 45 c4	 subss	 xmm0, DWORD PTR _v3Min$[ebp+4]
  00142	f3 0f 11 45 98	 movss	 DWORD PTR _fy$[ebp], xmm0
  00147	f3 0f 10 45 ec	 movss	 xmm0, DWORD PTR _v3Bone$[ebp+8]
  0014c	f3 0f 5c 45 c8	 subss	 xmm0, DWORD PTR _v3Min$[ebp+8]
  00151	f3 0f 11 45 94	 movss	 DWORD PTR _fz$[ebp], xmm0

; 180  :     x = fx;

  00156	f3 0f 10 45 9c	 movss	 xmm0, DWORD PTR _fx$[ebp]
  0015b	f3 0f 11 45 d8	 movss	 DWORD PTR $T3[ebp], xmm0

; 181  :     y = fy;

  00160	f3 0f 10 45 98	 movss	 xmm0, DWORD PTR _fy$[ebp]
  00165	f3 0f 11 45 dc	 movss	 DWORD PTR $T3[ebp+4], xmm0

; 182  :     z = fz;

  0016a	f3 0f 10 45 94	 movss	 xmm0, DWORD PTR _fz$[ebp]
  0016f	f3 0f 11 45 e0	 movss	 DWORD PTR $T3[ebp+8], xmm0

; 1253 :     return pV->x * pV->x + pV->y * pV->y + pV->z * pV->z;

  00174	f3 0f 10 45 d8	 movss	 xmm0, DWORD PTR $T3[ebp]
  00179	f3 0f 59 45 d8	 mulss	 xmm0, DWORD PTR $T3[ebp]
  0017e	f3 0f 10 4d dc	 movss	 xmm1, DWORD PTR $T3[ebp+4]
  00183	f3 0f 59 4d dc	 mulss	 xmm1, DWORD PTR $T3[ebp+4]
  00188	f3 0f 58 c1	 addss	 xmm0, xmm1
  0018c	f3 0f 10 4d e0	 movss	 xmm1, DWORD PTR $T3[ebp+8]
  00191	f3 0f 59 4d e0	 mulss	 xmm1, DWORD PTR $T3[ebp+8]
  00196	f3 0f 58 c1	 addss	 xmm0, xmm1
  0019a	f3 0f 11 45 8c	 movss	 DWORD PTR $T1[ebp], xmm0
; File D:\Metin2 Server Files\mainline\SRC_2014\Metin2Client\GameLib\WeaponTrace.cpp

; 390  : 	m_fLength = 

  0019f	51		 push	 ecx
  001a0	f3 0f 10 45 90	 movss	 xmm0, DWORD PTR $T2[ebp]
  001a5	f3 0f 11 04 24	 movss	 DWORD PTR [esp], xmm0
  001aa	51		 push	 ecx
  001ab	f3 0f 10 45 8c	 movss	 xmm0, DWORD PTR $T1[ebp]
  001b0	f3 0f 11 04 24	 movss	 DWORD PTR [esp], xmm0
  001b5	e8 00 00 00 00	 call	 ?fMAX@@YAMMM@Z		; fMAX
  001ba	59		 pop	 ecx
  001bb	59		 pop	 ecx
  001bc	d9 5d 88	 fstp	 DWORD PTR __X$[ebp]
; File C:\Program Files (x86)\Windows Kits\10\Include\10.0.18362.0\ucrt\corecrt_math.h

; 760  :             return (float)sqrt(_X);

  001bf	f3 0f 5a 45 88	 cvtss2sd xmm0, DWORD PTR __X$[ebp]
  001c4	51		 push	 ecx
  001c5	51		 push	 ecx
  001c6	f2 0f 11 04 24	 movsd	 QWORD PTR [esp], xmm0
  001cb	e8 00 00 00 00	 call	 _sqrt
  001d0	59		 pop	 ecx
  001d1	59		 pop	 ecx
; File D:\Metin2 Server Files\mainline\SRC_2014\Metin2Client\GameLib\WeaponTrace.cpp

; 390  : 	m_fLength = 

  001d2	8b 45 bc	 mov	 eax, DWORD PTR _this$[ebp]
  001d5	d9 58 7c	 fstp	 DWORD PTR [eax+124]

; 391  : 		sqrtf(
; 392  : 			fMAX(
; 393  : 				D3DXVec3LengthSq(&(v3Bone-v3Min)),
; 394  : 				D3DXVec3LengthSq(&(v3Bone-v3Max))
; 395  : 				)
; 396  : 			); 
; 397  : 
; 398  : 	return true;

  001d8	b0 01		 mov	 al, 1
$LN1@SetWeaponI:

; 399  : }

  001da	8b 4d fc	 mov	 ecx, DWORD PTR __$ArrayPad$[ebp]
  001dd	33 cd		 xor	 ecx, ebp
  001df	e8 00 00 00 00	 call	 @__security_check_cookie@4
  001e4	c9		 leave
  001e5	c2 0c 00	 ret	 12			; 0000000cH
?SetWeaponInstance@CWeaponTrace@@QAE_NPAVCGraphicThingInstance@@KPBD@Z ENDP ; CWeaponTrace::SetWeaponInstance
_TEXT	ENDS
; Function compile flags: /Odspy
; File D:\Metin2 Server Files\mainline\SRC_2014\Metin2Client\GameLib\WeaponTrace.cpp
; File D:\Metin2 Server Files\mainline\SRC_2014\Metin2Client\eterBase\Singleton.h
; File D:\Metin2 Server Files\mainline\SRC_2014\Metin2Client\GameLib\WeaponTrace.cpp
;	COMDAT ?SetTexture@CWeaponTrace@@QAEXPBD@Z
_TEXT	SEGMENT
_this$ = -12						; size = 4
_pImage$ = -8						; size = 4
$T1 = -4						; size = 4
_c_szFileName$ = 8					; size = 4
?SetTexture@CWeaponTrace@@QAEXPBD@Z PROC		; CWeaponTrace::SetTexture, COMDAT
; _this$ = ecx

; 364  : {

  00000	55		 push	 ebp
  00001	8b ec		 mov	 ebp, esp
  00003	83 ec 0c	 sub	 esp, 12			; 0000000cH
  00006	89 4d f4	 mov	 DWORD PTR _this$[ebp], ecx
; File D:\Metin2 Server Files\mainline\SRC_2014\Metin2Client\eterBase\Singleton.h

; 27   : 		return (*ms_singleton);

  00009	a1 00 00 00 00	 mov	 eax, DWORD PTR ?ms_singleton@?$CSingleton@VCResourceManager@@@@0PAVCResourceManager@@A ; CSingleton<CResourceManager>::ms_singleton
  0000e	89 45 fc	 mov	 DWORD PTR $T1[ebp], eax
; File D:\Metin2 Server Files\mainline\SRC_2014\Metin2Client\GameLib\WeaponTrace.cpp

; 365  : 	CGraphicImage * pImage = (CGraphicImage *)CResourceManager::Instance().GetResourcePointer("lot_ade10-2.tga");

  00011	68 00 00 00 00	 push	 OFFSET ??_C@_0BA@NCBBOAJD@lot_ade10?92?4tga@
  00016	8b 4d fc	 mov	 ecx, DWORD PTR $T1[ebp]
  00019	e8 00 00 00 00	 call	 ?GetResourcePointer@CResourceManager@@QAEPAVCResource@@PBD@Z ; CResourceManager::GetResourcePointer
  0001e	89 45 f8	 mov	 DWORD PTR _pImage$[ebp], eax

; 366  : 	m_ImageInstance.SetImagePointer(pImage);

  00021	ff 75 f8	 push	 DWORD PTR _pImage$[ebp]
  00024	8b 4d f4	 mov	 ecx, DWORD PTR _this$[ebp]
  00027	83 c1 4c	 add	 ecx, 76			; 0000004cH
  0002a	e8 00 00 00 00	 call	 ?SetImagePointer@CGraphicImageInstance@@QAEXPAVCGraphicImage@@@Z ; CGraphicImageInstance::SetImagePointer

; 367  : 
; 368  : 	//CGraphicTexture * pTexture = m_ImageInstance.GetTexturePointer();
; 369  : 	//m_lpTexture = pTexture->GetD3DTexture();
; 370  : }

  0002f	c9		 leave
  00030	c2 04 00	 ret	 4
?SetTexture@CWeaponTrace@@QAEXPBD@Z ENDP		; CWeaponTrace::SetTexture
_TEXT	ENDS
; Function compile flags: /Odspy
; File D:\Metin2 Server Files\mainline\SRC_2014\Metin2Client\GameLib\WeaponTrace.cpp
;	COMDAT ?UseTexture@CWeaponTrace@@QAEXXZ
_TEXT	SEGMENT
_this$ = -4						; size = 4
?UseTexture@CWeaponTrace@@QAEXXZ PROC			; CWeaponTrace::UseTexture, COMDAT
; _this$ = ecx

; 359  : {

  00000	55		 push	 ebp
  00001	8b ec		 mov	 ebp, esp
  00003	51		 push	 ecx
  00004	89 4d fc	 mov	 DWORD PTR _this$[ebp], ecx

; 360  : 	m_bUseTexture = true;

  00007	8b 45 fc	 mov	 eax, DWORD PTR _this$[ebp]
  0000a	c6 80 84 00 00
	00 01		 mov	 BYTE PTR [eax+132], 1

; 361  : }

  00011	c9		 leave
  00012	c3		 ret	 0
?UseTexture@CWeaponTrace@@QAEXXZ ENDP			; CWeaponTrace::UseTexture
_TEXT	ENDS
; Function compile flags: /Odspy
; File D:\Metin2 Server Files\mainline\SRC_2014\Metin2Client\GameLib\WeaponTrace.cpp
;	COMDAT ?UseAlpha@CWeaponTrace@@QAEXXZ
_TEXT	SEGMENT
_this$ = -4						; size = 4
?UseAlpha@CWeaponTrace@@QAEXXZ PROC			; CWeaponTrace::UseAlpha, COMDAT
; _this$ = ecx

; 354  : {

  00000	55		 push	 ebp
  00001	8b ec		 mov	 ebp, esp
  00003	51		 push	 ecx
  00004	89 4d fc	 mov	 DWORD PTR _this$[ebp], ecx

; 355  : 	m_bUseTexture = false;

  00007	8b 45 fc	 mov	 eax, DWORD PTR _this$[ebp]
  0000a	c6 80 84 00 00
	00 00		 mov	 BYTE PTR [eax+132], 0

; 356  : }

  00011	c9		 leave
  00012	c3		 ret	 0
?UseAlpha@CWeaponTrace@@QAEXXZ ENDP			; CWeaponTrace::UseAlpha
_TEXT	ENDS
; Function compile flags: /Odspy
; File D:\Metin2 Server Files\mainline\SRC_2014\Metin2Client\GameLib\WeaponTrace.cpp
;	COMDAT ?TurnOff@CWeaponTrace@@QAEXXZ
_TEXT	SEGMENT
_this$ = -4						; size = 4
?TurnOff@CWeaponTrace@@QAEXXZ PROC			; CWeaponTrace::TurnOff, COMDAT
; _this$ = ecx

; 428  : {

  00000	55		 push	 ebp
  00001	8b ec		 mov	 ebp, esp
  00003	51		 push	 ecx
  00004	89 4d fc	 mov	 DWORD PTR _this$[ebp], ecx

; 429  : 	m_isPlaying = FALSE;

  00007	8b 45 fc	 mov	 eax, DWORD PTR _this$[ebp]
  0000a	83 a0 80 00 00
	00 00		 and	 DWORD PTR [eax+128], 0

; 430  : 	//Clear();
; 431  : }

  00011	c9		 leave
  00012	c3		 ret	 0
?TurnOff@CWeaponTrace@@QAEXXZ ENDP			; CWeaponTrace::TurnOff
_TEXT	ENDS
; Function compile flags: /Odspy
; File D:\Metin2 Server Files\mainline\SRC_2014\Metin2Client\GameLib\WeaponTrace.cpp
;	COMDAT ?TurnOn@CWeaponTrace@@QAEXXZ
_TEXT	SEGMENT
_this$ = -4						; size = 4
?TurnOn@CWeaponTrace@@QAEXXZ PROC			; CWeaponTrace::TurnOn, COMDAT
; _this$ = ecx

; 424  : {

  00000	55		 push	 ebp
  00001	8b ec		 mov	 ebp, esp
  00003	51		 push	 ecx
  00004	89 4d fc	 mov	 DWORD PTR _this$[ebp], ecx

; 425  : 	m_isPlaying = TRUE;

  00007	8b 45 fc	 mov	 eax, DWORD PTR _this$[ebp]
  0000a	c7 80 80 00 00
	00 01 00 00 00	 mov	 DWORD PTR [eax+128], 1

; 426  : }

  00014	c9		 leave
  00015	c3		 ret	 0
?TurnOn@CWeaponTrace@@QAEXXZ ENDP			; CWeaponTrace::TurnOn
_TEXT	ENDS
; Function compile flags: /Odspy
; File D:\Metin2 Server Files\mainline\SRC_2014\Metin2Client\GameLib\WeaponTrace.cpp
; File C:\Program Files (x86)\Microsoft Visual Studio\2019\Community\VC\Tools\MSVC\14.28.29333\include\deque
; File D:\Metin2 Server Files\mainline\SRC_2014\Metin2Client\GameLib\WeaponTrace.cpp
; File C:\Program Files (x86)\Microsoft Visual Studio\2019\Community\VC\Tools\MSVC\14.28.29333\include\deque
; File D:\Metin2 Server Files\mainline\SRC_2014\Metin2Client\GameLib\WeaponTrace.cpp
;	COMDAT ?Clear@CWeaponTrace@@QAEXXZ
_TEXT	SEGMENT
_this$ = -4						; size = 4
?Clear@CWeaponTrace@@QAEXXZ PROC			; CWeaponTrace::Clear, COMDAT
; _this$ = ecx

; 434  : {

  00000	55		 push	 ebp
  00001	8b ec		 mov	 ebp, esp
  00003	51		 push	 ecx
  00004	89 4d fc	 mov	 DWORD PTR _this$[ebp], ecx

; 435  : 	//m_PDTVertexVector.clear();
; 436  : 	//m_CurvingTraceVector.clear();
; 437  : 
; 438  : 	m_ShortTimePointList.clear();

  00007	8b 4d fc	 mov	 ecx, DWORD PTR _this$[ebp]
  0000a	83 c1 08	 add	 ecx, 8
; File C:\Program Files (x86)\Microsoft Visual Studio\2019\Community\VC\Tools\MSVC\14.28.29333\include\deque

; 1330 :         _Tidy();

  0000d	e8 00 00 00 00	 call	 ?_Tidy@?$deque@U?$pair@MUD3DXVECTOR3@@@std@@V?$allocator@U?$pair@MUD3DXVECTOR3@@@std@@@2@@std@@AAEXXZ ; std::deque<std::pair<float,D3DXVECTOR3>,std::allocator<std::pair<float,D3DXVECTOR3> > >::_Tidy
; File D:\Metin2 Server Files\mainline\SRC_2014\Metin2Client\GameLib\WeaponTrace.cpp

; 439  : 	m_LongTimePointList.clear();

  00012	8b 4d fc	 mov	 ecx, DWORD PTR _this$[ebp]
  00015	83 c1 1c	 add	 ecx, 28			; 0000001cH
; File C:\Program Files (x86)\Microsoft Visual Studio\2019\Community\VC\Tools\MSVC\14.28.29333\include\deque

; 1330 :         _Tidy();

  00018	e8 00 00 00 00	 call	 ?_Tidy@?$deque@U?$pair@MUD3DXVECTOR3@@@std@@V?$allocator@U?$pair@MUD3DXVECTOR3@@@std@@@2@@std@@AAEXXZ ; std::deque<std::pair<float,D3DXVECTOR3>,std::allocator<std::pair<float,D3DXVECTOR3> > >::_Tidy
; File D:\Metin2 Server Files\mainline\SRC_2014\Metin2Client\GameLib\WeaponTrace.cpp

; 440  : 	Initialize();

  0001d	8b 4d fc	 mov	 ecx, DWORD PTR _this$[ebp]
  00020	e8 00 00 00 00	 call	 ?Initialize@CWeaponTrace@@QAEXXZ ; CWeaponTrace::Initialize

; 441  : }

  00025	c9		 leave
  00026	c3		 ret	 0
?Clear@CWeaponTrace@@QAEXXZ ENDP			; CWeaponTrace::Clear
_TEXT	ENDS
; Function compile flags: /Odspy
; File D:\Metin2 Server Files\mainline\SRC_2014\Metin2Client\GameLib\WeaponTrace.cpp
; File C:\Program Files (x86)\Microsoft Visual Studio\2019\Community\VC\Tools\MSVC\14.28.29333\include\vector
; File D:\Metin2 Server Files\mainline\SRC_2014\Metin2Client\GameLib\WeaponTrace.cpp
;	COMDAT ??1CWeaponTrace@@UAE@XZ
_TEXT	SEGMENT
_this$ = -4						; size = 4
??1CWeaponTrace@@UAE@XZ PROC				; CWeaponTrace::~CWeaponTrace, COMDAT
; _this$ = ecx

; 487  : {

  00000	55		 push	 ebp
  00001	8b ec		 mov	 ebp, esp
  00003	51		 push	 ecx
  00004	89 4d fc	 mov	 DWORD PTR _this$[ebp], ecx
  00007	8b 45 fc	 mov	 eax, DWORD PTR _this$[ebp]
  0000a	c7 00 00 00 00
	00		 mov	 DWORD PTR [eax], OFFSET ??_7CWeaponTrace@@6B@

; 488  : }

  00010	8b 4d fc	 mov	 ecx, DWORD PTR _this$[ebp]
  00013	83 c1 4c	 add	 ecx, 76			; 0000004cH
  00016	e8 00 00 00 00	 call	 ??1CGraphicImageInstance@@UAE@XZ ; CGraphicImageInstance::~CGraphicImageInstance
  0001b	8b 4d fc	 mov	 ecx, DWORD PTR _this$[ebp]
  0001e	83 c1 30	 add	 ecx, 48			; 00000030H
; File C:\Program Files (x86)\Microsoft Visual Studio\2019\Community\VC\Tools\MSVC\14.28.29333\include\vector

; 673  :         _Tidy();

  00021	e8 00 00 00 00	 call	 ?_Tidy@?$vector@USPDTVertex@@V?$allocator@USPDTVertex@@@std@@@std@@AAEXXZ ; std::vector<SPDTVertex,std::allocator<SPDTVertex> >::_Tidy
; File D:\Metin2 Server Files\mainline\SRC_2014\Metin2Client\GameLib\WeaponTrace.cpp

; 488  : }

  00026	8b 4d fc	 mov	 ecx, DWORD PTR _this$[ebp]
  00029	83 c1 1c	 add	 ecx, 28			; 0000001cH
  0002c	e8 00 00 00 00	 call	 ??1?$deque@U?$pair@MUD3DXVECTOR3@@@std@@V?$allocator@U?$pair@MUD3DXVECTOR3@@@std@@@2@@std@@QAE@XZ ; std::deque<std::pair<float,D3DXVECTOR3>,std::allocator<std::pair<float,D3DXVECTOR3> > >::~deque<std::pair<float,D3DXVECTOR3>,std::allocator<std::pair<float,D3DXVECTOR3> > >
  00031	8b 4d fc	 mov	 ecx, DWORD PTR _this$[ebp]
  00034	83 c1 08	 add	 ecx, 8
  00037	e8 00 00 00 00	 call	 ??1?$deque@U?$pair@MUD3DXVECTOR3@@@std@@V?$allocator@U?$pair@MUD3DXVECTOR3@@@std@@@2@@std@@QAE@XZ ; std::deque<std::pair<float,D3DXVECTOR3>,std::allocator<std::pair<float,D3DXVECTOR3> > >::~deque<std::pair<float,D3DXVECTOR3>,std::allocator<std::pair<float,D3DXVECTOR3> > >
  0003c	c9		 leave
  0003d	c3		 ret	 0
??1CWeaponTrace@@UAE@XZ ENDP				; CWeaponTrace::~CWeaponTrace
_TEXT	ENDS
; Function compile flags: /Odspy
; File D:\Metin2 Server Files\mainline\SRC_2014\Metin2Client\GameLib\WeaponTrace.cpp
; File C:\Program Files (x86)\Microsoft Visual Studio\2019\Community\VC\Tools\MSVC\14.28.29333\include\vector
; File C:\Program Files (x86)\Microsoft Visual Studio\2019\Community\VC\Tools\MSVC\14.28.29333\include\xmemory
; File C:\Program Files (x86)\Microsoft Visual Studio\2019\Community\VC\Tools\MSVC\14.28.29333\include\vector
; File D:\Metin2 Server Files\mainline\SRC_2014\Metin2Client\GameLib\WeaponTrace.cpp
;	COMDAT ??0CWeaponTrace@@QAE@XZ
_TEXT	SEGMENT
_this$ = -28						; size = 4
_this$ = -24						; size = 4
_this$2 = -20						; size = 4
_this$ = -16						; size = 4
__$EHRec$ = -12						; size = 12
??0CWeaponTrace@@QAE@XZ PROC				; CWeaponTrace::CWeaponTrace, COMDAT
; _this$ = ecx

; 483  : {

  00000	55		 push	 ebp
  00001	8b ec		 mov	 ebp, esp
  00003	6a ff		 push	 -1
  00005	68 00 00 00 00	 push	 __ehhandler$??0CWeaponTrace@@QAE@XZ
  0000a	64 a1 00 00 00
	00		 mov	 eax, DWORD PTR fs:0
  00010	50		 push	 eax
  00011	83 ec 10	 sub	 esp, 16			; 00000010H
  00014	a1 00 00 00 00	 mov	 eax, DWORD PTR ___security_cookie
  00019	33 c5		 xor	 eax, ebp
  0001b	50		 push	 eax
  0001c	8d 45 f4	 lea	 eax, DWORD PTR __$EHRec$[ebp]
  0001f	64 a3 00 00 00
	00		 mov	 DWORD PTR fs:0, eax
  00025	89 4d f0	 mov	 DWORD PTR _this$[ebp], ecx
  00028	8b 45 f0	 mov	 eax, DWORD PTR _this$[ebp]
  0002b	c7 00 00 00 00
	00		 mov	 DWORD PTR [eax], OFFSET ??_7CWeaponTrace@@6B@
  00031	8b 4d f0	 mov	 ecx, DWORD PTR _this$[ebp]
  00034	83 c1 08	 add	 ecx, 8
  00037	e8 00 00 00 00	 call	 ??0?$deque@U?$pair@MUD3DXVECTOR3@@@std@@V?$allocator@U?$pair@MUD3DXVECTOR3@@@std@@@2@@std@@QAE@XZ ; std::deque<std::pair<float,D3DXVECTOR3>,std::allocator<std::pair<float,D3DXVECTOR3> > >::deque<std::pair<float,D3DXVECTOR3>,std::allocator<std::pair<float,D3DXVECTOR3> > >
  0003c	83 65 fc 00	 and	 DWORD PTR __$EHRec$[ebp+8], 0
  00040	8b 4d f0	 mov	 ecx, DWORD PTR _this$[ebp]
  00043	83 c1 1c	 add	 ecx, 28			; 0000001cH
  00046	e8 00 00 00 00	 call	 ??0?$deque@U?$pair@MUD3DXVECTOR3@@@std@@V?$allocator@U?$pair@MUD3DXVECTOR3@@@std@@@2@@std@@QAE@XZ ; std::deque<std::pair<float,D3DXVECTOR3>,std::allocator<std::pair<float,D3DXVECTOR3> > >::deque<std::pair<float,D3DXVECTOR3>,std::allocator<std::pair<float,D3DXVECTOR3> > >
  0004b	c6 45 fc 01	 mov	 BYTE PTR __$EHRec$[ebp+8], 1
  0004f	8b 45 f0	 mov	 eax, DWORD PTR _this$[ebp]
  00052	83 c0 30	 add	 eax, 48			; 00000030H
  00055	89 45 e8	 mov	 DWORD PTR _this$[ebp], eax
; File C:\Program Files (x86)\Microsoft Visual Studio\2019\Community\VC\Tools\MSVC\14.28.29333\include\vector

; 445  :     vector() noexcept(is_nothrow_default_constructible_v<_Alty>) : _Mypair(_Zero_then_variadic_args_t{}) {

  00058	8b 45 e8	 mov	 eax, DWORD PTR _this$[ebp]
  0005b	89 45 e4	 mov	 DWORD PTR _this$[ebp], eax
; File C:\Program Files (x86)\Microsoft Visual Studio\2019\Community\VC\Tools\MSVC\14.28.29333\include\xmemory

; 1339 :         : _Ty1(), _Myval2(_STD forward<_Other2>(_Val2)...) {}

  0005e	8b 45 e4	 mov	 eax, DWORD PTR _this$[ebp]
  00061	89 45 ec	 mov	 DWORD PTR _this$2[ebp], eax
; File C:\Program Files (x86)\Microsoft Visual Studio\2019\Community\VC\Tools\MSVC\14.28.29333\include\vector

; 375  :     _Vector_val() noexcept : _Myfirst(), _Mylast(), _Myend() {}

  00064	8b 45 ec	 mov	 eax, DWORD PTR _this$2[ebp]
  00067	83 20 00	 and	 DWORD PTR [eax], 0
  0006a	8b 45 ec	 mov	 eax, DWORD PTR _this$2[ebp]
  0006d	83 60 04 00	 and	 DWORD PTR [eax+4], 0
  00071	8b 45 ec	 mov	 eax, DWORD PTR _this$2[ebp]
  00074	83 60 08 00	 and	 DWORD PTR [eax+8], 0
; File D:\Metin2 Server Files\mainline\SRC_2014\Metin2Client\GameLib\WeaponTrace.cpp

; 483  : {

  00078	c6 45 fc 02	 mov	 BYTE PTR __$EHRec$[ebp+8], 2
  0007c	8b 4d f0	 mov	 ecx, DWORD PTR _this$[ebp]
  0007f	83 c1 4c	 add	 ecx, 76			; 0000004cH
  00082	e8 00 00 00 00	 call	 ??0CGraphicImageInstance@@QAE@XZ ; CGraphicImageInstance::CGraphicImageInstance
  00087	c6 45 fc 03	 mov	 BYTE PTR __$EHRec$[ebp+8], 3

; 484  : 	Initialize();

  0008b	8b 4d f0	 mov	 ecx, DWORD PTR _this$[ebp]
  0008e	e8 00 00 00 00	 call	 ?Initialize@CWeaponTrace@@QAEXXZ ; CWeaponTrace::Initialize

; 485  : }

  00093	83 4d fc ff	 or	 DWORD PTR __$EHRec$[ebp+8], -1
  00097	8b 45 f0	 mov	 eax, DWORD PTR _this$[ebp]
  0009a	8b 4d f4	 mov	 ecx, DWORD PTR __$EHRec$[ebp]
  0009d	64 89 0d 00 00
	00 00		 mov	 DWORD PTR fs:0, ecx
  000a4	59		 pop	 ecx
  000a5	c9		 leave
  000a6	c3		 ret	 0
_TEXT	ENDS
;	COMDAT text$x
text$x	SEGMENT
__unwindfunclet$??0CWeaponTrace@@QAE@XZ$0:
  00000	8b 4d f0	 mov	 ecx, DWORD PTR _this$[ebp]
  00003	83 c1 08	 add	 ecx, 8
  00006	e9 00 00 00 00	 jmp	 ??1?$deque@U?$pair@MUD3DXVECTOR3@@@std@@V?$allocator@U?$pair@MUD3DXVECTOR3@@@std@@@2@@std@@QAE@XZ ; std::deque<std::pair<float,D3DXVECTOR3>,std::allocator<std::pair<float,D3DXVECTOR3> > >::~deque<std::pair<float,D3DXVECTOR3>,std::allocator<std::pair<float,D3DXVECTOR3> > >
__unwindfunclet$??0CWeaponTrace@@QAE@XZ$1:
  0000b	8b 4d f0	 mov	 ecx, DWORD PTR _this$[ebp]
  0000e	83 c1 1c	 add	 ecx, 28			; 0000001cH
  00011	e9 00 00 00 00	 jmp	 ??1?$deque@U?$pair@MUD3DXVECTOR3@@@std@@V?$allocator@U?$pair@MUD3DXVECTOR3@@@std@@@2@@std@@QAE@XZ ; std::deque<std::pair<float,D3DXVECTOR3>,std::allocator<std::pair<float,D3DXVECTOR3> > >::~deque<std::pair<float,D3DXVECTOR3>,std::allocator<std::pair<float,D3DXVECTOR3> > >
__unwindfunclet$??0CWeaponTrace@@QAE@XZ$2:
  00016	8b 4d f0	 mov	 ecx, DWORD PTR _this$[ebp]
  00019	83 c1 30	 add	 ecx, 48			; 00000030H
  0001c	e9 00 00 00 00	 jmp	 ??1?$vector@USPDTVertex@@V?$allocator@USPDTVertex@@@std@@@std@@QAE@XZ ; std::vector<SPDTVertex,std::allocator<SPDTVertex> >::~vector<SPDTVertex,std::allocator<SPDTVertex> >
__unwindfunclet$??0CWeaponTrace@@QAE@XZ$3:
  00021	8b 4d f0	 mov	 ecx, DWORD PTR _this$[ebp]
  00024	83 c1 4c	 add	 ecx, 76			; 0000004cH
  00027	e9 00 00 00 00	 jmp	 ??1CGraphicImageInstance@@UAE@XZ ; CGraphicImageInstance::~CGraphicImageInstance
  0002c	cc		 int	 3
  0002d	cc		 int	 3
  0002e	cc		 int	 3
  0002f	cc		 int	 3
  00030	cc		 int	 3
__ehhandler$??0CWeaponTrace@@QAE@XZ:
  00031	90		 npad	 1
  00032	90		 npad	 1
  00033	8b 54 24 08	 mov	 edx, DWORD PTR [esp+8]
  00037	8d 42 0c	 lea	 eax, DWORD PTR [edx+12]
  0003a	8b 4a ec	 mov	 ecx, DWORD PTR [edx-20]
  0003d	33 c8		 xor	 ecx, eax
  0003f	e8 00 00 00 00	 call	 @__security_check_cookie@4
  00044	b8 00 00 00 00	 mov	 eax, OFFSET __ehfuncinfo$??0CWeaponTrace@@QAE@XZ
  00049	e9 00 00 00 00	 jmp	 ___CxxFrameHandler3
text$x	ENDS
??0CWeaponTrace@@QAE@XZ ENDP				; CWeaponTrace::CWeaponTrace
; Function compile flags: /Odspy
; File D:\Metin2 Server Files\mainline\SRC_2014\Metin2Client\GameLib\WeaponTrace.cpp
;	COMDAT ?New@CWeaponTrace@@SAPAV1@XZ
_TEXT	SEGMENT
?New@CWeaponTrace@@SAPAV1@XZ PROC			; CWeaponTrace::New, COMDAT

; 23   : {

  00000	55		 push	 ebp
  00001	8b ec		 mov	 ebp, esp

; 24   : 	return ms_kPool.Alloc();

  00003	b9 00 00 00 00	 mov	 ecx, OFFSET ?ms_kPool@CWeaponTrace@@1V?$CDynamicPool@VCWeaponTrace@@@@A ; CWeaponTrace::ms_kPool
  00008	e8 00 00 00 00	 call	 ?Alloc@?$CDynamicPool@VCWeaponTrace@@@@QAEPAVCWeaponTrace@@XZ ; CDynamicPool<CWeaponTrace>::Alloc

; 25   : }

  0000d	5d		 pop	 ebp
  0000e	c3		 ret	 0
?New@CWeaponTrace@@SAPAV1@XZ ENDP			; CWeaponTrace::New
_TEXT	ENDS
; Function compile flags: /Odspy
; File D:\Metin2 Server Files\mainline\SRC_2014\Metin2Client\GameLib\WeaponTrace.cpp
; File C:\Program Files (x86)\Microsoft Visual Studio\2019\Community\VC\Tools\MSVC\14.28.29333\include\vector
; File D:\Metin2 Server Files\mainline\SRC_2014\Metin2Client\GameLib\WeaponTrace.cpp
;	COMDAT ?Delete@CWeaponTrace@@SAXPAV1@@Z
_TEXT	SEGMENT
_pkData$ = -4						; size = 4
_pkWTDel$ = 8						; size = 4
?Delete@CWeaponTrace@@SAXPAV1@@Z PROC			; CWeaponTrace::Delete, COMDAT

; 15   : {

  00000	55		 push	 ebp
  00001	8b ec		 mov	 ebp, esp
  00003	51		 push	 ecx

; 16   : 	assert(pkWTDel!=NULL && "CWeaponTrace::Delete");
; 17   : 
; 18   : 	pkWTDel->Clear();

  00004	8b 4d 08	 mov	 ecx, DWORD PTR _pkWTDel$[ebp]
  00007	e8 00 00 00 00	 call	 ?Clear@CWeaponTrace@@QAEXXZ ; CWeaponTrace::Clear

; 19   : 	ms_kPool.Free(pkWTDel);

  0000c	8b 45 08	 mov	 eax, DWORD PTR _pkWTDel$[ebp]
  0000f	89 45 fc	 mov	 DWORD PTR _pkData$[ebp], eax
; File C:\Program Files (x86)\Microsoft Visual Studio\2019\Community\VC\Tools\MSVC\14.28.29333\include\vector

; 717  :         emplace_back(_Val);

  00012	8d 45 fc	 lea	 eax, DWORD PTR _pkData$[ebp]
  00015	50		 push	 eax
  00016	b9 10 00 00 00	 mov	 ecx, OFFSET ?ms_kPool@CWeaponTrace@@1V?$CDynamicPool@VCWeaponTrace@@@@A+16
  0001b	e8 00 00 00 00	 call	 ??$emplace_back@ABQAVCWeaponTrace@@@?$vector@PAVCWeaponTrace@@V?$allocator@PAVCWeaponTrace@@@std@@@std@@QAEXABQAVCWeaponTrace@@@Z ; std::vector<CWeaponTrace *,std::allocator<CWeaponTrace *> >::emplace_back<CWeaponTrace * const &>
; File D:\Metin2 Server Files\mainline\SRC_2014\Metin2Client\GameLib\WeaponTrace.cpp

; 20   : }

  00020	c9		 leave
  00021	c3		 ret	 0
?Delete@CWeaponTrace@@SAXPAV1@@Z ENDP			; CWeaponTrace::Delete
_TEXT	ENDS
; Function compile flags: /Odspy
; File D:\Metin2 Server Files\mainline\SRC_2014\Metin2Client\GameLib\WeaponTrace.cpp
;	COMDAT ?DestroySystem@CWeaponTrace@@SAXXZ
_TEXT	SEGMENT
?DestroySystem@CWeaponTrace@@SAXXZ PROC			; CWeaponTrace::DestroySystem, COMDAT

; 10   : {

  00000	55		 push	 ebp
  00001	8b ec		 mov	 ebp, esp

; 11   : 	ms_kPool.Destroy();

  00003	b9 00 00 00 00	 mov	 ecx, OFFSET ?ms_kPool@CWeaponTrace@@1V?$CDynamicPool@VCWeaponTrace@@@@A ; CWeaponTrace::ms_kPool
  00008	e8 00 00 00 00	 call	 ?Destroy@?$CDynamicPool@VCWeaponTrace@@@@QAEXXZ ; CDynamicPool<CWeaponTrace>::Destroy

; 12   : }

  0000d	5d		 pop	 ebp
  0000e	c3		 ret	 0
?DestroySystem@CWeaponTrace@@SAXXZ ENDP			; CWeaponTrace::DestroySystem
_TEXT	ENDS
; Function compile flags: /Odspy
; File C:\Program Files (x86)\Microsoft Visual Studio\2019\Community\VC\Tools\MSVC\14.28.29333\include\xmemory
;	COMDAT ??$_Allocate_manually_vector_aligned@U_Default_allocate_traits@std@@@std@@YAPAXI@Z
_TEXT	SEGMENT
__Ptr$ = -12						; size = 4
__Block_size$ = -8					; size = 4
__Ptr_container$ = -4					; size = 4
__Bytes$ = 8						; size = 4
??$_Allocate_manually_vector_aligned@U_Default_allocate_traits@std@@@std@@YAPAXI@Z PROC ; std::_Allocate_manually_vector_aligned<std::_Default_allocate_traits>, COMDAT

; 113  : __declspec(allocator) void* _Allocate_manually_vector_aligned(const size_t _Bytes) {

  00000	55		 push	 ebp
  00001	8b ec		 mov	 ebp, esp
  00003	83 ec 0c	 sub	 esp, 12			; 0000000cH

; 114  :     // allocate _Bytes manually aligned to at least _Big_allocation_alignment
; 115  :     const size_t _Block_size = _Non_user_size + _Bytes;

  00006	8b 45 08	 mov	 eax, DWORD PTR __Bytes$[ebp]
  00009	83 c0 23	 add	 eax, 35			; 00000023H
  0000c	89 45 f8	 mov	 DWORD PTR __Block_size$[ebp], eax

; 116  :     if (_Block_size <= _Bytes) {

  0000f	8b 45 f8	 mov	 eax, DWORD PTR __Block_size$[ebp]
  00012	3b 45 08	 cmp	 eax, DWORD PTR __Bytes$[ebp]
  00015	77 05		 ja	 SHORT $LN12@Allocate_m

; 117  :         _Throw_bad_array_new_length(); // add overflow

  00017	e8 00 00 00 00	 call	 ?_Throw_bad_array_new_length@std@@YAXXZ ; std::_Throw_bad_array_new_length
$LN12@Allocate_m:

; 77   :         return ::operator new(_Bytes);

  0001c	ff 75 f8	 push	 DWORD PTR __Block_size$[ebp]
  0001f	e8 00 00 00 00	 call	 ??2@YAPAXI@Z		; operator new
  00024	59		 pop	 ecx

; 118  :     }
; 119  : 
; 120  :     const uintptr_t _Ptr_container = reinterpret_cast<uintptr_t>(_Traits::_Allocate(_Block_size));

  00025	89 45 fc	 mov	 DWORD PTR __Ptr_container$[ebp], eax
$LN4@Allocate_m:

; 121  :     _STL_VERIFY(_Ptr_container != 0, "invalid argument"); // validate even in release since we're doing p[-1]

  00028	83 7d fc 00	 cmp	 DWORD PTR __Ptr_container$[ebp], 0
  0002c	74 02		 je	 SHORT $LN7@Allocate_m
  0002e	eb 09		 jmp	 SHORT $LN2@Allocate_m
$LN7@Allocate_m:
  00030	e8 00 00 00 00	 call	 __invalid_parameter_noinfo_noreturn
  00035	33 c0		 xor	 eax, eax
  00037	75 f7		 jne	 SHORT $LN7@Allocate_m
$LN2@Allocate_m:
  00039	33 c0		 xor	 eax, eax
  0003b	75 eb		 jne	 SHORT $LN4@Allocate_m

; 122  :     void* const _Ptr = reinterpret_cast<void*>((_Ptr_container + _Non_user_size) & ~(_Big_allocation_alignment - 1));

  0003d	8b 45 fc	 mov	 eax, DWORD PTR __Ptr_container$[ebp]
  00040	83 c0 23	 add	 eax, 35			; 00000023H
  00043	83 e0 e0	 and	 eax, -32		; ffffffe0H
  00046	89 45 f4	 mov	 DWORD PTR __Ptr$[ebp], eax

; 123  :     static_cast<uintptr_t*>(_Ptr)[-1] = _Ptr_container;

  00049	6a 04		 push	 4
  0004b	58		 pop	 eax
  0004c	6b c0 ff	 imul	 eax, eax, -1
  0004f	8b 4d f4	 mov	 ecx, DWORD PTR __Ptr$[ebp]
  00052	8b 55 fc	 mov	 edx, DWORD PTR __Ptr_container$[ebp]
  00055	89 14 01	 mov	 DWORD PTR [ecx+eax], edx

; 124  : 
; 125  : #ifdef _DEBUG
; 126  :     static_cast<uintptr_t*>(_Ptr)[-2] = _Big_allocation_sentinel;
; 127  : #endif // _DEBUG
; 128  :     return _Ptr;

  00058	8b 45 f4	 mov	 eax, DWORD PTR __Ptr$[ebp]
$LN11@Allocate_m:

; 129  : }

  0005b	c9		 leave
  0005c	c3		 ret	 0
??$_Allocate_manually_vector_aligned@U_Default_allocate_traits@std@@@std@@YAPAXI@Z ENDP ; std::_Allocate_manually_vector_aligned<std::_Default_allocate_traits>
_TEXT	ENDS
; Function compile flags: /Odspy
; File C:\Program Files (x86)\Microsoft Visual Studio\2019\Community\VC\Tools\MSVC\14.28.29333\include\xmemory
;	COMDAT ??$_Allocate@$07U_Default_allocate_traits@std@@$0A@@std@@YAPAXI@Z
_TEXT	SEGMENT
__Bytes$ = 8						; size = 4
??$_Allocate@$07U_Default_allocate_traits@std@@$0A@@std@@YAPAXI@Z PROC ; std::_Allocate<8,std::_Default_allocate_traits,0>, COMDAT

; 197  : __declspec(allocator) void* _Allocate(const size_t _Bytes) {

  00000	55		 push	 ebp
  00001	8b ec		 mov	 ebp, esp

; 198  :     // allocate _Bytes when !_HAS_ALIGNED_NEW || _Align <= __STDCPP_DEFAULT_NEW_ALIGNMENT__
; 199  : #if defined(_M_IX86) || defined(_M_X64)
; 200  :     if (_Bytes >= _Big_allocation_threshold) { // boost the alignment of big allocations to help autovectorization

  00003	81 7d 08 00 10
	00 00		 cmp	 DWORD PTR __Bytes$[ebp], 4096 ; 00001000H
  0000a	72 0b		 jb	 SHORT $LN2@Allocate

; 201  :         return _Allocate_manually_vector_aligned<_Traits>(_Bytes);

  0000c	ff 75 08	 push	 DWORD PTR __Bytes$[ebp]
  0000f	e8 00 00 00 00	 call	 ??$_Allocate_manually_vector_aligned@U_Default_allocate_traits@std@@@std@@YAPAXI@Z ; std::_Allocate_manually_vector_aligned<std::_Default_allocate_traits>
  00014	59		 pop	 ecx
  00015	eb 13		 jmp	 SHORT $LN1@Allocate
$LN2@Allocate:

; 202  :     }
; 203  : #endif // defined(_M_IX86) || defined(_M_X64)
; 204  : 
; 205  :     if (_Bytes != 0) {

  00017	83 7d 08 00	 cmp	 DWORD PTR __Bytes$[ebp], 0
  0001b	74 0b		 je	 SHORT $LN3@Allocate

; 77   :         return ::operator new(_Bytes);

  0001d	ff 75 08	 push	 DWORD PTR __Bytes$[ebp]
  00020	e8 00 00 00 00	 call	 ??2@YAPAXI@Z		; operator new
  00025	59		 pop	 ecx

; 206  :         return _Traits::_Allocate(_Bytes);

  00026	eb 02		 jmp	 SHORT $LN1@Allocate
$LN3@Allocate:

; 207  :     }
; 208  : 
; 209  :     return nullptr;

  00028	33 c0		 xor	 eax, eax
$LN1@Allocate:

; 210  : }

  0002a	5d		 pop	 ebp
  0002b	c3		 ret	 0
??$_Allocate@$07U_Default_allocate_traits@std@@$0A@@std@@YAPAXI@Z ENDP ; std::_Allocate<8,std::_Default_allocate_traits,0>
_TEXT	ENDS
; Function compile flags: /Odspy
; File C:\Program Files (x86)\Microsoft Visual Studio\2019\Community\VC\Tools\MSVC\14.28.29333\include\xmemory
;	COMDAT ??$_Deallocate@$07$0A@@std@@YAXPAXI@Z
_TEXT	SEGMENT
__$EHRec$ = -12						; size = 12
__Ptr$ = 8						; size = 4
__Bytes$ = 12						; size = 4
??$_Deallocate@$07$0A@@std@@YAXPAXI@Z PROC		; std::_Deallocate<8,0>, COMDAT

; 213  : void _Deallocate(void* _Ptr, size_t _Bytes) noexcept {

  00000	55		 push	 ebp
  00001	8b ec		 mov	 ebp, esp
  00003	6a ff		 push	 -1
  00005	68 00 00 00 00	 push	 __ehhandler$??$_Deallocate@$07$0A@@std@@YAXPAXI@Z
  0000a	64 a1 00 00 00
	00		 mov	 eax, DWORD PTR fs:0
  00010	50		 push	 eax
  00011	a1 00 00 00 00	 mov	 eax, DWORD PTR ___security_cookie
  00016	33 c5		 xor	 eax, ebp
  00018	50		 push	 eax
  00019	8d 45 f4	 lea	 eax, DWORD PTR __$EHRec$[ebp]
  0001c	64 a3 00 00 00
	00		 mov	 DWORD PTR fs:0, eax

; 214  :     // deallocate storage allocated by _Allocate when !_HAS_ALIGNED_NEW || _Align <= __STDCPP_DEFAULT_NEW_ALIGNMENT__
; 215  : #if defined(_M_IX86) || defined(_M_X64)
; 216  :     if (_Bytes >= _Big_allocation_threshold) { // boost the alignment of big allocations to help autovectorization

  00022	81 7d 0c 00 10
	00 00		 cmp	 DWORD PTR __Bytes$[ebp], 4096 ; 00001000H
  00029	72 0f		 jb	 SHORT $LN2@Deallocate

; 217  :         _Adjust_manually_vector_aligned(_Ptr, _Bytes);

  0002b	8d 45 0c	 lea	 eax, DWORD PTR __Bytes$[ebp]
  0002e	50		 push	 eax
  0002f	8d 45 08	 lea	 eax, DWORD PTR __Ptr$[ebp]
  00032	50		 push	 eax
  00033	e8 00 00 00 00	 call	 ?_Adjust_manually_vector_aligned@std@@YAXAAPAXAAI@Z ; std::_Adjust_manually_vector_aligned
  00038	59		 pop	 ecx
  00039	59		 pop	 ecx
$LN2@Deallocate:

; 218  :     }
; 219  : #endif // defined(_M_IX86) || defined(_M_X64)
; 220  : 
; 221  :     ::operator delete(_Ptr, _Bytes);

  0003a	ff 75 0c	 push	 DWORD PTR __Bytes$[ebp]
  0003d	ff 75 08	 push	 DWORD PTR __Ptr$[ebp]
  00040	e8 00 00 00 00	 call	 ??3@YAXPAXI@Z		; operator delete
  00045	59		 pop	 ecx
  00046	59		 pop	 ecx

; 222  : }

  00047	8b 4d f4	 mov	 ecx, DWORD PTR __$EHRec$[ebp]
  0004a	64 89 0d 00 00
	00 00		 mov	 DWORD PTR fs:0, ecx
  00051	59		 pop	 ecx
  00052	c9		 leave
  00053	c3		 ret	 0
  00054	cc		 int	 3
  00055	cc		 int	 3
  00056	cc		 int	 3
  00057	cc		 int	 3
  00058	cc		 int	 3
_TEXT	ENDS
;	COMDAT text$x
text$x	SEGMENT
__ehhandler$??$_Deallocate@$07$0A@@std@@YAXPAXI@Z:
  00000	90		 npad	 1
  00001	90		 npad	 1
  00002	8b 54 24 08	 mov	 edx, DWORD PTR [esp+8]
  00006	8d 42 0c	 lea	 eax, DWORD PTR [edx+12]
  00009	8b 4a fc	 mov	 ecx, DWORD PTR [edx-4]
  0000c	33 c8		 xor	 ecx, eax
  0000e	e8 00 00 00 00	 call	 @__security_check_cookie@4
  00013	b8 00 00 00 00	 mov	 eax, OFFSET __ehfuncinfo$??$_Deallocate@$07$0A@@std@@YAXPAXI@Z
  00018	e9 00 00 00 00	 jmp	 ___CxxFrameHandler3
text$x	ENDS
??$_Deallocate@$07$0A@@std@@YAXPAXI@Z ENDP		; std::_Deallocate<8,0>
; Function compile flags: /Odspy
; File C:\Program Files (x86)\Microsoft Visual Studio\2019\Community\VC\Tools\MSVC\14.28.29333\include\xmemory
;	COMDAT ??4_Iterator_base12@std@@QAEAAU01@ABU01@@Z
_TEXT	SEGMENT
__Parent_proxy$1 = -12					; size = 4
__Parent$ = -8						; size = 4
_this$ = -4						; size = 4
__Right$ = 8						; size = 4
??4_Iterator_base12@std@@QAEAAU01@ABU01@@Z PROC		; std::_Iterator_base12::operator=, COMDAT
; _this$ = ecx

; 1132 :     _Iterator_base12& operator=(const _Iterator_base12& _Right) noexcept {

  00000	55		 push	 ebp
  00001	8b ec		 mov	 ebp, esp
  00003	83 ec 0c	 sub	 esp, 12			; 0000000cH
  00006	89 4d fc	 mov	 DWORD PTR _this$[ebp], ecx

; 1133 :         if (_Myproxy != _Right._Myproxy) {

  00009	8b 45 fc	 mov	 eax, DWORD PTR _this$[ebp]
  0000c	8b 4d 08	 mov	 ecx, DWORD PTR __Right$[ebp]
  0000f	8b 00		 mov	 eax, DWORD PTR [eax]
  00011	3b 01		 cmp	 eax, DWORD PTR [ecx]
  00013	74 38		 je	 SHORT $LN2@operator

; 1134 :             if (_Right._Myproxy) {

  00015	8b 45 08	 mov	 eax, DWORD PTR __Right$[ebp]
  00018	83 38 00	 cmp	 DWORD PTR [eax], 0
  0001b	74 2a		 je	 SHORT $LN3@operator

; 1135 :                 _Adopt(_Right._Myproxy->_Mycont);

  0001d	8b 45 08	 mov	 eax, DWORD PTR __Right$[ebp]
  00020	8b 00		 mov	 eax, DWORD PTR [eax]
  00022	8b 00		 mov	 eax, DWORD PTR [eax]
  00024	89 45 f8	 mov	 DWORD PTR __Parent$[ebp], eax

; 1157 :         if (_Parent) {

  00027	83 7d f8 00	 cmp	 DWORD PTR __Parent$[ebp], 0
  0002b	74 12		 je	 SHORT $LN7@operator

; 1158 :             // have a parent, do adoption
; 1159 :             _Container_proxy* _Parent_proxy = _Parent->_Myproxy;

  0002d	8b 45 f8	 mov	 eax, DWORD PTR __Parent$[ebp]
  00030	8b 00		 mov	 eax, DWORD PTR [eax]
  00032	89 45 f4	 mov	 DWORD PTR __Parent_proxy$1[ebp], eax

; 1160 : 
; 1161 : #if _ITERATOR_DEBUG_LEVEL == 2
; 1162 :             if (_Myproxy != _Parent_proxy) { // change parentage
; 1163 :                 _Lockit _Lock(_LOCK_DEBUG);
; 1164 :                 _Orphan_me();
; 1165 :                 _Mynextiter                 = _Parent_proxy->_Myfirstiter;
; 1166 :                 _Parent_proxy->_Myfirstiter = this;
; 1167 :                 _Myproxy                    = _Parent_proxy;
; 1168 :             }
; 1169 : 
; 1170 : #else // _ITERATOR_DEBUG_LEVEL == 2
; 1171 :             _Myproxy = _Parent_proxy;

  00035	8b 45 fc	 mov	 eax, DWORD PTR _this$[ebp]
  00038	8b 4d f4	 mov	 ecx, DWORD PTR __Parent_proxy$1[ebp]
  0003b	89 08		 mov	 DWORD PTR [eax], ecx

; 1172 : #endif // _ITERATOR_DEBUG_LEVEL == 2
; 1173 :         } else {

  0003d	eb 06		 jmp	 SHORT $LN9@operator
$LN7@operator:

; 1174 :             // no future parent, just disown current parent
; 1175 : #if _ITERATOR_DEBUG_LEVEL == 2
; 1176 :             _Lockit _Lock(_LOCK_DEBUG);
; 1177 :             _Orphan_me();
; 1178 : #else // _ITERATOR_DEBUG_LEVEL == 2
; 1179 :             _Myproxy = nullptr;

  0003f	8b 45 fc	 mov	 eax, DWORD PTR _this$[ebp]
  00042	83 20 00	 and	 DWORD PTR [eax], 0
$LN9@operator:

; 1136 :             } else { // becoming invalid, disown current parent

  00045	eb 06		 jmp	 SHORT $LN2@operator
$LN3@operator:

; 1137 : #if _ITERATOR_DEBUG_LEVEL == 2
; 1138 :                 _Lockit _Lock(_LOCK_DEBUG);
; 1139 :                 _Orphan_me();
; 1140 : #else // _ITERATOR_DEBUG_LEVEL == 2
; 1141 :                 _Myproxy = nullptr;

  00047	8b 45 fc	 mov	 eax, DWORD PTR _this$[ebp]
  0004a	83 20 00	 and	 DWORD PTR [eax], 0
$LN2@operator:

; 1142 : #endif // _ITERATOR_DEBUG_LEVEL == 2
; 1143 :             }
; 1144 :         }
; 1145 : 
; 1146 :         return *this;

  0004d	8b 45 fc	 mov	 eax, DWORD PTR _this$[ebp]

; 1147 :     }

  00050	c9		 leave
  00051	c2 04 00	 ret	 4
??4_Iterator_base12@std@@QAEAAU01@ABU01@@Z ENDP		; std::_Iterator_base12::operator=
_TEXT	ENDS
; Function compile flags: /Odspy
; File C:\Program Files (x86)\Microsoft Visual Studio\2019\Community\VC\Tools\MSVC\14.28.29333\include\xmemory
;	COMDAT ??0_Iterator_base12@std@@QAE@ABU01@@Z
_TEXT	SEGMENT
__Parent_proxy$1 = -12					; size = 4
__Parent$ = -8						; size = 4
_this$ = -4						; size = 4
__Right$ = 8						; size = 4
??0_Iterator_base12@std@@QAE@ABU01@@Z PROC		; std::_Iterator_base12::_Iterator_base12, COMDAT
; _this$ = ecx

; 1128 :     _Iterator_base12(const _Iterator_base12& _Right) noexcept : _Myproxy(nullptr), _Mynextiter(nullptr) {

  00000	55		 push	 ebp
  00001	8b ec		 mov	 ebp, esp
  00003	83 ec 0c	 sub	 esp, 12			; 0000000cH
  00006	89 4d fc	 mov	 DWORD PTR _this$[ebp], ecx
  00009	8b 45 fc	 mov	 eax, DWORD PTR _this$[ebp]
  0000c	83 20 00	 and	 DWORD PTR [eax], 0
  0000f	8b 45 fc	 mov	 eax, DWORD PTR _this$[ebp]
  00012	83 60 04 00	 and	 DWORD PTR [eax+4], 0

; 1133 :         if (_Myproxy != _Right._Myproxy) {

  00016	8b 45 fc	 mov	 eax, DWORD PTR _this$[ebp]
  00019	8b 4d 08	 mov	 ecx, DWORD PTR __Right$[ebp]
  0001c	8b 00		 mov	 eax, DWORD PTR [eax]
  0001e	3b 01		 cmp	 eax, DWORD PTR [ecx]
  00020	74 38		 je	 SHORT $LN1@Iterator_b

; 1134 :             if (_Right._Myproxy) {

  00022	8b 45 08	 mov	 eax, DWORD PTR __Right$[ebp]
  00025	83 38 00	 cmp	 DWORD PTR [eax], 0
  00028	74 2a		 je	 SHORT $LN5@Iterator_b

; 1135 :                 _Adopt(_Right._Myproxy->_Mycont);

  0002a	8b 45 08	 mov	 eax, DWORD PTR __Right$[ebp]
  0002d	8b 00		 mov	 eax, DWORD PTR [eax]
  0002f	8b 00		 mov	 eax, DWORD PTR [eax]
  00031	89 45 f8	 mov	 DWORD PTR __Parent$[ebp], eax

; 1157 :         if (_Parent) {

  00034	83 7d f8 00	 cmp	 DWORD PTR __Parent$[ebp], 0
  00038	74 12		 je	 SHORT $LN10@Iterator_b

; 1158 :             // have a parent, do adoption
; 1159 :             _Container_proxy* _Parent_proxy = _Parent->_Myproxy;

  0003a	8b 45 f8	 mov	 eax, DWORD PTR __Parent$[ebp]
  0003d	8b 00		 mov	 eax, DWORD PTR [eax]
  0003f	89 45 f4	 mov	 DWORD PTR __Parent_proxy$1[ebp], eax

; 1160 : 
; 1161 : #if _ITERATOR_DEBUG_LEVEL == 2
; 1162 :             if (_Myproxy != _Parent_proxy) { // change parentage
; 1163 :                 _Lockit _Lock(_LOCK_DEBUG);
; 1164 :                 _Orphan_me();
; 1165 :                 _Mynextiter                 = _Parent_proxy->_Myfirstiter;
; 1166 :                 _Parent_proxy->_Myfirstiter = this;
; 1167 :                 _Myproxy                    = _Parent_proxy;
; 1168 :             }
; 1169 : 
; 1170 : #else // _ITERATOR_DEBUG_LEVEL == 2
; 1171 :             _Myproxy = _Parent_proxy;

  00042	8b 45 fc	 mov	 eax, DWORD PTR _this$[ebp]
  00045	8b 4d f4	 mov	 ecx, DWORD PTR __Parent_proxy$1[ebp]
  00048	89 08		 mov	 DWORD PTR [eax], ecx

; 1172 : #endif // _ITERATOR_DEBUG_LEVEL == 2
; 1173 :         } else {

  0004a	eb 06		 jmp	 SHORT $LN12@Iterator_b
$LN10@Iterator_b:

; 1174 :             // no future parent, just disown current parent
; 1175 : #if _ITERATOR_DEBUG_LEVEL == 2
; 1176 :             _Lockit _Lock(_LOCK_DEBUG);
; 1177 :             _Orphan_me();
; 1178 : #else // _ITERATOR_DEBUG_LEVEL == 2
; 1179 :             _Myproxy = nullptr;

  0004c	8b 45 fc	 mov	 eax, DWORD PTR _this$[ebp]
  0004f	83 20 00	 and	 DWORD PTR [eax], 0
$LN12@Iterator_b:

; 1136 :             } else { // becoming invalid, disown current parent

  00052	eb 06		 jmp	 SHORT $LN1@Iterator_b
$LN5@Iterator_b:

; 1137 : #if _ITERATOR_DEBUG_LEVEL == 2
; 1138 :                 _Lockit _Lock(_LOCK_DEBUG);
; 1139 :                 _Orphan_me();
; 1140 : #else // _ITERATOR_DEBUG_LEVEL == 2
; 1141 :                 _Myproxy = nullptr;

  00054	8b 45 fc	 mov	 eax, DWORD PTR _this$[ebp]
  00057	83 20 00	 and	 DWORD PTR [eax], 0
$LN1@Iterator_b:

; 1129 :         *this = _Right;
; 1130 :     }

  0005a	8b 45 fc	 mov	 eax, DWORD PTR _this$[ebp]
  0005d	c9		 leave
  0005e	c2 04 00	 ret	 4
??0_Iterator_base12@std@@QAE@ABU01@@Z ENDP		; std::_Iterator_base12::_Iterator_base12
_TEXT	ENDS
; Function compile flags: /Odspy
; File C:\Program Files (x86)\Microsoft Visual Studio\2019\Community\VC\Tools\MSVC\14.28.29333\include\xmemory
;	COMDAT ?_Adjust_manually_vector_aligned@std@@YAXAAPAXAAI@Z
_TEXT	SEGMENT
__Min_back_shift$ = -16					; size = 4
__Ptr_user$ = -12					; size = 4
__Ptr_container$ = -8					; size = 4
__Back_shift$ = -4					; size = 4
__Ptr$ = 8						; size = 4
__Bytes$ = 12						; size = 4
?_Adjust_manually_vector_aligned@std@@YAXAAPAXAAI@Z PROC ; std::_Adjust_manually_vector_aligned, COMDAT

; 132  : inline void _Adjust_manually_vector_aligned(void*& _Ptr, size_t& _Bytes) {

  00000	55		 push	 ebp
  00001	8b ec		 mov	 ebp, esp
  00003	83 ec 10	 sub	 esp, 16			; 00000010H

; 133  :     // adjust parameters from _Allocate_manually_vector_aligned to pass to operator delete
; 134  :     _Bytes += _Non_user_size;

  00006	8b 45 0c	 mov	 eax, DWORD PTR __Bytes$[ebp]
  00009	8b 00		 mov	 eax, DWORD PTR [eax]
  0000b	83 c0 23	 add	 eax, 35			; 00000023H
  0000e	8b 4d 0c	 mov	 ecx, DWORD PTR __Bytes$[ebp]
  00011	89 01		 mov	 DWORD PTR [ecx], eax

; 135  : 
; 136  :     const uintptr_t* const _Ptr_user = reinterpret_cast<uintptr_t*>(_Ptr);

  00013	8b 45 08	 mov	 eax, DWORD PTR __Ptr$[ebp]
  00016	8b 00		 mov	 eax, DWORD PTR [eax]
  00018	89 45 f4	 mov	 DWORD PTR __Ptr_user$[ebp], eax

; 137  :     const uintptr_t _Ptr_container   = _Ptr_user[-1];

  0001b	6a 04		 push	 4
  0001d	58		 pop	 eax
  0001e	6b c0 ff	 imul	 eax, eax, -1
  00021	8b 4d f4	 mov	 ecx, DWORD PTR __Ptr_user$[ebp]
  00024	8b 04 01	 mov	 eax, DWORD PTR [ecx+eax]
  00027	89 45 f8	 mov	 DWORD PTR __Ptr_container$[ebp], eax

; 138  : 
; 139  :     // If the following asserts, it likely means that we are performing
; 140  :     // an aligned delete on memory coming from an unaligned allocation.
; 141  :     _STL_ASSERT(_Ptr_user[-2] == _Big_allocation_sentinel, "invalid argument");
; 142  : 
; 143  :     // Extra paranoia on aligned allocation/deallocation; ensure _Ptr_container is
; 144  :     // in range [_Min_back_shift, _Non_user_size]
; 145  : #ifdef _DEBUG
; 146  :     constexpr uintptr_t _Min_back_shift = 2 * sizeof(void*);
; 147  : #else // ^^^ _DEBUG ^^^ // vvv !_DEBUG vvv
; 148  :     constexpr uintptr_t _Min_back_shift = sizeof(void*);

  0002a	c7 45 f0 04 00
	00 00		 mov	 DWORD PTR __Min_back_shift$[ebp], 4

; 149  : #endif // _DEBUG
; 150  :     const uintptr_t _Back_shift = reinterpret_cast<uintptr_t>(_Ptr) - _Ptr_container;

  00031	8b 45 08	 mov	 eax, DWORD PTR __Ptr$[ebp]
  00034	8b 00		 mov	 eax, DWORD PTR [eax]
  00036	2b 45 f8	 sub	 eax, DWORD PTR __Ptr_container$[ebp]
  00039	89 45 fc	 mov	 DWORD PTR __Back_shift$[ebp], eax
$LN4@Adjust_man:

; 151  :     _STL_VERIFY(_Back_shift >= _Min_back_shift && _Back_shift <= _Non_user_size, "invalid argument");

  0003c	83 7d fc 04	 cmp	 DWORD PTR __Back_shift$[ebp], 4
  00040	72 08		 jb	 SHORT $LN7@Adjust_man
  00042	83 7d fc 23	 cmp	 DWORD PTR __Back_shift$[ebp], 35 ; 00000023H
  00046	77 02		 ja	 SHORT $LN7@Adjust_man
  00048	eb 09		 jmp	 SHORT $LN2@Adjust_man
$LN7@Adjust_man:
  0004a	e8 00 00 00 00	 call	 __invalid_parameter_noinfo_noreturn
  0004f	33 c0		 xor	 eax, eax
  00051	75 f7		 jne	 SHORT $LN7@Adjust_man
$LN2@Adjust_man:
  00053	33 c0		 xor	 eax, eax
  00055	75 e5		 jne	 SHORT $LN4@Adjust_man

; 152  :     _Ptr = reinterpret_cast<void*>(_Ptr_container);

  00057	8b 45 08	 mov	 eax, DWORD PTR __Ptr$[ebp]
  0005a	8b 4d f8	 mov	 ecx, DWORD PTR __Ptr_container$[ebp]
  0005d	89 08		 mov	 DWORD PTR [eax], ecx
$LN10@Adjust_man:

; 153  : }

  0005f	c9		 leave
  00060	c3		 ret	 0
?_Adjust_manually_vector_aligned@std@@YAXAAPAXAAI@Z ENDP ; std::_Adjust_manually_vector_aligned
_TEXT	ENDS
; Function compile flags: /Odspy
; File C:\Program Files (x86)\Microsoft Visual Studio\2019\Community\VC\Tools\MSVC\14.28.29333\include\exception
;	COMDAT ?_Throw_bad_array_new_length@std@@YAXXZ
_TEXT	SEGMENT
$T1 = -12						; size = 12
?_Throw_bad_array_new_length@std@@YAXXZ PROC		; std::_Throw_bad_array_new_length, COMDAT

; 320  : [[noreturn]] inline void _Throw_bad_array_new_length() {

  00000	55		 push	 ebp
  00001	8b ec		 mov	 ebp, esp
  00003	83 ec 0c	 sub	 esp, 12			; 0000000cH

; 321  :     _THROW(bad_array_new_length{});

  00006	8d 4d f4	 lea	 ecx, DWORD PTR $T1[ebp]
  00009	e8 00 00 00 00	 call	 ??0bad_array_new_length@std@@QAE@XZ ; std::bad_array_new_length::bad_array_new_length
  0000e	68 00 00 00 00	 push	 OFFSET __TI3?AVbad_array_new_length@std@@
  00013	8d 45 f4	 lea	 eax, DWORD PTR $T1[ebp]
  00016	50		 push	 eax
  00017	e8 00 00 00 00	 call	 __CxxThrowException@8
$LN2@Throw_bad_:

; 322  : }

  0001c	c9		 leave
  0001d	c3		 ret	 0
?_Throw_bad_array_new_length@std@@YAXXZ ENDP		; std::_Throw_bad_array_new_length
_TEXT	ENDS
; Function compile flags: /Odspy
; File C:\Program Files (x86)\Microsoft Visual Studio\2019\Community\VC\Tools\MSVC\14.28.29333\include\vcruntime_exception.h
;	COMDAT ??_Gbad_array_new_length@std@@UAEPAXI@Z
_TEXT	SEGMENT
_this$ = -4						; size = 4
___flags$ = 8						; size = 4
??_Gbad_array_new_length@std@@UAEPAXI@Z PROC		; std::bad_array_new_length::`scalar deleting destructor', COMDAT
; _this$ = ecx
  00000	55		 push	 ebp
  00001	8b ec		 mov	 ebp, esp
  00003	51		 push	 ecx
  00004	89 4d fc	 mov	 DWORD PTR _this$[ebp], ecx

; 89   :     {

  00007	8b 45 fc	 mov	 eax, DWORD PTR _this$[ebp]
  0000a	c7 00 00 00 00
	00		 mov	 DWORD PTR [eax], OFFSET ??_7exception@std@@6B@

; 90   :         __std_exception_destroy(&_Data);

  00010	8b 45 fc	 mov	 eax, DWORD PTR _this$[ebp]
  00013	83 c0 04	 add	 eax, 4
  00016	50		 push	 eax
  00017	e8 00 00 00 00	 call	 ___std_exception_destroy
  0001c	59		 pop	 ecx
  0001d	8b 45 08	 mov	 eax, DWORD PTR ___flags$[ebp]
  00020	83 e0 01	 and	 eax, 1
  00023	74 0c		 je	 SHORT $LN2@scalar
  00025	6a 0c		 push	 12			; 0000000cH
  00027	ff 75 fc	 push	 DWORD PTR _this$[ebp]
  0002a	e8 00 00 00 00	 call	 ??3@YAXPAXI@Z		; operator delete
  0002f	59		 pop	 ecx
  00030	59		 pop	 ecx
$LN2@scalar:
  00031	8b 45 fc	 mov	 eax, DWORD PTR _this$[ebp]
  00034	c9		 leave
  00035	c2 04 00	 ret	 4
??_Gbad_array_new_length@std@@UAEPAXI@Z ENDP		; std::bad_array_new_length::`scalar deleting destructor'
_TEXT	ENDS
; Function compile flags: /Odspy
;	COMDAT ??0bad_array_new_length@std@@QAE@ABV01@@Z
_TEXT	SEGMENT
_this$ = -4						; size = 4
___that$ = 8						; size = 4
??0bad_array_new_length@std@@QAE@ABV01@@Z PROC		; std::bad_array_new_length::bad_array_new_length, COMDAT
; _this$ = ecx
  00000	55		 push	 ebp
  00001	8b ec		 mov	 ebp, esp
  00003	51		 push	 ecx
  00004	89 4d fc	 mov	 DWORD PTR _this$[ebp], ecx
  00007	ff 75 08	 push	 DWORD PTR ___that$[ebp]
  0000a	8b 4d fc	 mov	 ecx, DWORD PTR _this$[ebp]
  0000d	e8 00 00 00 00	 call	 ??0exception@std@@QAE@ABV01@@Z ; std::exception::exception
  00012	8b 45 fc	 mov	 eax, DWORD PTR _this$[ebp]
  00015	c7 00 00 00 00
	00		 mov	 DWORD PTR [eax], OFFSET ??_7bad_alloc@std@@6B@
  0001b	8b 45 fc	 mov	 eax, DWORD PTR _this$[ebp]
  0001e	c7 00 00 00 00
	00		 mov	 DWORD PTR [eax], OFFSET ??_7bad_array_new_length@std@@6B@
  00024	8b 45 fc	 mov	 eax, DWORD PTR _this$[ebp]
  00027	c9		 leave
  00028	c2 04 00	 ret	 4
??0bad_array_new_length@std@@QAE@ABV01@@Z ENDP		; std::bad_array_new_length::bad_array_new_length
_TEXT	ENDS
; Function compile flags: /Odspy
; File C:\Program Files (x86)\Microsoft Visual Studio\2019\Community\VC\Tools\MSVC\14.28.29333\include\vcruntime_exception.h
;	COMDAT ??1bad_array_new_length@std@@UAE@XZ
_TEXT	SEGMENT
_this$ = -4						; size = 4
??1bad_array_new_length@std@@UAE@XZ PROC		; std::bad_array_new_length::~bad_array_new_length, COMDAT
; _this$ = ecx
  00000	55		 push	 ebp
  00001	8b ec		 mov	 ebp, esp
  00003	51		 push	 ecx
  00004	89 4d fc	 mov	 DWORD PTR _this$[ebp], ecx

; 89   :     {

  00007	8b 45 fc	 mov	 eax, DWORD PTR _this$[ebp]
  0000a	c7 00 00 00 00
	00		 mov	 DWORD PTR [eax], OFFSET ??_7exception@std@@6B@

; 90   :         __std_exception_destroy(&_Data);

  00010	8b 45 fc	 mov	 eax, DWORD PTR _this$[ebp]
  00013	83 c0 04	 add	 eax, 4
  00016	50		 push	 eax
  00017	e8 00 00 00 00	 call	 ___std_exception_destroy
  0001c	59		 pop	 ecx
  0001d	c9		 leave
  0001e	c3		 ret	 0
??1bad_array_new_length@std@@UAE@XZ ENDP		; std::bad_array_new_length::~bad_array_new_length
_TEXT	ENDS
; Function compile flags: /Odspy
; File C:\Program Files (x86)\Microsoft Visual Studio\2019\Community\VC\Tools\MSVC\14.28.29333\include\vcruntime_exception.h
;	COMDAT ??0bad_array_new_length@std@@QAE@XZ
_TEXT	SEGMENT
_this$ = -4						; size = 4
??0bad_array_new_length@std@@QAE@XZ PROC		; std::bad_array_new_length::bad_array_new_length, COMDAT
; _this$ = ecx

; 141  :     {

  00000	55		 push	 ebp
  00001	8b ec		 mov	 ebp, esp
  00003	51		 push	 ecx
  00004	89 4d fc	 mov	 DWORD PTR _this$[ebp], ecx

; 66   :     {

  00007	8b 45 fc	 mov	 eax, DWORD PTR _this$[ebp]
  0000a	c7 00 00 00 00
	00		 mov	 DWORD PTR [eax], OFFSET ??_7exception@std@@6B@

; 65   :         : _Data()

  00010	33 c0		 xor	 eax, eax
  00012	8b 4d fc	 mov	 ecx, DWORD PTR _this$[ebp]
  00015	83 c1 04	 add	 ecx, 4
  00018	89 01		 mov	 DWORD PTR [ecx], eax
  0001a	89 41 04	 mov	 DWORD PTR [ecx+4], eax

; 67   :         _Data._What = _Message;

  0001d	8b 45 fc	 mov	 eax, DWORD PTR _this$[ebp]
  00020	c7 40 04 00 00
	00 00		 mov	 DWORD PTR [eax+4], OFFSET ??_C@_0BF@KINCDENJ@bad?5array?5new?5length@

; 130  :     {

  00027	8b 45 fc	 mov	 eax, DWORD PTR _this$[ebp]
  0002a	c7 00 00 00 00
	00		 mov	 DWORD PTR [eax], OFFSET ??_7bad_alloc@std@@6B@

; 141  :     {

  00030	8b 45 fc	 mov	 eax, DWORD PTR _this$[ebp]
  00033	c7 00 00 00 00
	00		 mov	 DWORD PTR [eax], OFFSET ??_7bad_array_new_length@std@@6B@

; 142  :     }

  00039	8b 45 fc	 mov	 eax, DWORD PTR _this$[ebp]
  0003c	c9		 leave
  0003d	c3		 ret	 0
??0bad_array_new_length@std@@QAE@XZ ENDP		; std::bad_array_new_length::bad_array_new_length
_TEXT	ENDS
; Function compile flags: /Odspy
; File C:\Program Files (x86)\Microsoft Visual Studio\2019\Community\VC\Tools\MSVC\14.28.29333\include\vcruntime_exception.h
;	COMDAT ??_Gbad_alloc@std@@UAEPAXI@Z
_TEXT	SEGMENT
_this$ = -4						; size = 4
___flags$ = 8						; size = 4
??_Gbad_alloc@std@@UAEPAXI@Z PROC			; std::bad_alloc::`scalar deleting destructor', COMDAT
; _this$ = ecx
  00000	55		 push	 ebp
  00001	8b ec		 mov	 ebp, esp
  00003	51		 push	 ecx
  00004	89 4d fc	 mov	 DWORD PTR _this$[ebp], ecx

; 89   :     {

  00007	8b 45 fc	 mov	 eax, DWORD PTR _this$[ebp]
  0000a	c7 00 00 00 00
	00		 mov	 DWORD PTR [eax], OFFSET ??_7exception@std@@6B@

; 90   :         __std_exception_destroy(&_Data);

  00010	8b 45 fc	 mov	 eax, DWORD PTR _this$[ebp]
  00013	83 c0 04	 add	 eax, 4
  00016	50		 push	 eax
  00017	e8 00 00 00 00	 call	 ___std_exception_destroy
  0001c	59		 pop	 ecx
  0001d	8b 45 08	 mov	 eax, DWORD PTR ___flags$[ebp]
  00020	83 e0 01	 and	 eax, 1
  00023	74 0c		 je	 SHORT $LN2@scalar
  00025	6a 0c		 push	 12			; 0000000cH
  00027	ff 75 fc	 push	 DWORD PTR _this$[ebp]
  0002a	e8 00 00 00 00	 call	 ??3@YAXPAXI@Z		; operator delete
  0002f	59		 pop	 ecx
  00030	59		 pop	 ecx
$LN2@scalar:
  00031	8b 45 fc	 mov	 eax, DWORD PTR _this$[ebp]
  00034	c9		 leave
  00035	c2 04 00	 ret	 4
??_Gbad_alloc@std@@UAEPAXI@Z ENDP			; std::bad_alloc::`scalar deleting destructor'
_TEXT	ENDS
; Function compile flags: /Odspy
;	COMDAT ??0bad_alloc@std@@QAE@ABV01@@Z
_TEXT	SEGMENT
_this$ = -4						; size = 4
___that$ = 8						; size = 4
??0bad_alloc@std@@QAE@ABV01@@Z PROC			; std::bad_alloc::bad_alloc, COMDAT
; _this$ = ecx
  00000	55		 push	 ebp
  00001	8b ec		 mov	 ebp, esp
  00003	51		 push	 ecx
  00004	89 4d fc	 mov	 DWORD PTR _this$[ebp], ecx
  00007	ff 75 08	 push	 DWORD PTR ___that$[ebp]
  0000a	8b 4d fc	 mov	 ecx, DWORD PTR _this$[ebp]
  0000d	e8 00 00 00 00	 call	 ??0exception@std@@QAE@ABV01@@Z ; std::exception::exception
  00012	8b 45 fc	 mov	 eax, DWORD PTR _this$[ebp]
  00015	c7 00 00 00 00
	00		 mov	 DWORD PTR [eax], OFFSET ??_7bad_alloc@std@@6B@
  0001b	8b 45 fc	 mov	 eax, DWORD PTR _this$[ebp]
  0001e	c9		 leave
  0001f	c2 04 00	 ret	 4
??0bad_alloc@std@@QAE@ABV01@@Z ENDP			; std::bad_alloc::bad_alloc
_TEXT	ENDS
; Function compile flags: /Odspy
; File C:\Program Files (x86)\Microsoft Visual Studio\2019\Community\VC\Tools\MSVC\14.28.29333\include\vcruntime_exception.h
;	COMDAT ??_Gexception@std@@UAEPAXI@Z
_TEXT	SEGMENT
_this$ = -4						; size = 4
___flags$ = 8						; size = 4
??_Gexception@std@@UAEPAXI@Z PROC			; std::exception::`scalar deleting destructor', COMDAT
; _this$ = ecx
  00000	55		 push	 ebp
  00001	8b ec		 mov	 ebp, esp
  00003	51		 push	 ecx
  00004	89 4d fc	 mov	 DWORD PTR _this$[ebp], ecx

; 89   :     {

  00007	8b 45 fc	 mov	 eax, DWORD PTR _this$[ebp]
  0000a	c7 00 00 00 00
	00		 mov	 DWORD PTR [eax], OFFSET ??_7exception@std@@6B@

; 90   :         __std_exception_destroy(&_Data);

  00010	8b 45 fc	 mov	 eax, DWORD PTR _this$[ebp]
  00013	83 c0 04	 add	 eax, 4
  00016	50		 push	 eax
  00017	e8 00 00 00 00	 call	 ___std_exception_destroy
  0001c	59		 pop	 ecx
  0001d	8b 45 08	 mov	 eax, DWORD PTR ___flags$[ebp]
  00020	83 e0 01	 and	 eax, 1
  00023	74 0c		 je	 SHORT $LN2@scalar
  00025	6a 0c		 push	 12			; 0000000cH
  00027	ff 75 fc	 push	 DWORD PTR _this$[ebp]
  0002a	e8 00 00 00 00	 call	 ??3@YAXPAXI@Z		; operator delete
  0002f	59		 pop	 ecx
  00030	59		 pop	 ecx
$LN2@scalar:
  00031	8b 45 fc	 mov	 eax, DWORD PTR _this$[ebp]
  00034	c9		 leave
  00035	c2 04 00	 ret	 4
??_Gexception@std@@UAEPAXI@Z ENDP			; std::exception::`scalar deleting destructor'
_TEXT	ENDS
; Function compile flags: /Odspy
; File C:\Program Files (x86)\Microsoft Visual Studio\2019\Community\VC\Tools\MSVC\14.28.29333\include\vcruntime_exception.h
;	COMDAT ?what@exception@std@@UBEPBDXZ
_TEXT	SEGMENT
tv69 = -8						; size = 4
_this$ = -4						; size = 4
?what@exception@std@@UBEPBDXZ PROC			; std::exception::what, COMDAT
; _this$ = ecx

; 94   :     {

  00000	55		 push	 ebp
  00001	8b ec		 mov	 ebp, esp
  00003	51		 push	 ecx
  00004	51		 push	 ecx
  00005	89 4d fc	 mov	 DWORD PTR _this$[ebp], ecx

; 95   :         return _Data._What ? _Data._What : "Unknown exception";

  00008	8b 45 fc	 mov	 eax, DWORD PTR _this$[ebp]
  0000b	83 78 04 00	 cmp	 DWORD PTR [eax+4], 0
  0000f	74 0b		 je	 SHORT $LN3@what
  00011	8b 45 fc	 mov	 eax, DWORD PTR _this$[ebp]
  00014	8b 40 04	 mov	 eax, DWORD PTR [eax+4]
  00017	89 45 f8	 mov	 DWORD PTR tv69[ebp], eax
  0001a	eb 07		 jmp	 SHORT $LN4@what
$LN3@what:
  0001c	c7 45 f8 00 00
	00 00		 mov	 DWORD PTR tv69[ebp], OFFSET ??_C@_0BC@EOODALEL@Unknown?5exception@
$LN4@what:
  00023	8b 45 f8	 mov	 eax, DWORD PTR tv69[ebp]

; 96   :     }

  00026	c9		 leave
  00027	c3		 ret	 0
?what@exception@std@@UBEPBDXZ ENDP			; std::exception::what
_TEXT	ENDS
; Function compile flags: /Odspy
; File C:\Program Files (x86)\Microsoft Visual Studio\2019\Community\VC\Tools\MSVC\14.28.29333\include\vcruntime_exception.h
;	COMDAT ??0exception@std@@QAE@ABV01@@Z
_TEXT	SEGMENT
_this$ = -4						; size = 4
__Other$ = 8						; size = 4
??0exception@std@@QAE@ABV01@@Z PROC			; std::exception::exception, COMDAT
; _this$ = ecx

; 72   :     {

  00000	55		 push	 ebp
  00001	8b ec		 mov	 ebp, esp
  00003	51		 push	 ecx
  00004	89 4d fc	 mov	 DWORD PTR _this$[ebp], ecx
  00007	8b 45 fc	 mov	 eax, DWORD PTR _this$[ebp]
  0000a	c7 00 00 00 00
	00		 mov	 DWORD PTR [eax], OFFSET ??_7exception@std@@6B@

; 71   :         : _Data()

  00010	33 c0		 xor	 eax, eax
  00012	8b 4d fc	 mov	 ecx, DWORD PTR _this$[ebp]
  00015	83 c1 04	 add	 ecx, 4
  00018	89 01		 mov	 DWORD PTR [ecx], eax
  0001a	89 41 04	 mov	 DWORD PTR [ecx+4], eax

; 73   :         __std_exception_copy(&_Other._Data, &_Data);

  0001d	8b 45 fc	 mov	 eax, DWORD PTR _this$[ebp]
  00020	83 c0 04	 add	 eax, 4
  00023	50		 push	 eax
  00024	8b 45 08	 mov	 eax, DWORD PTR __Other$[ebp]
  00027	83 c0 04	 add	 eax, 4
  0002a	50		 push	 eax
  0002b	e8 00 00 00 00	 call	 ___std_exception_copy
  00030	59		 pop	 ecx
  00031	59		 pop	 ecx

; 74   :     }

  00032	8b 45 fc	 mov	 eax, DWORD PTR _this$[ebp]
  00035	c9		 leave
  00036	c2 04 00	 ret	 4
??0exception@std@@QAE@ABV01@@Z ENDP			; std::exception::exception
_TEXT	ENDS
; Function compile flags: /Odspy
;	COMDAT ??_H@YGXPAXIIP6EPAX0@Z@Z
_TEXT	SEGMENT
tv66 = -4						; size = 4
___t$ = 8						; size = 4
___s$ = 12						; size = 4
___n$ = 16						; size = 4
___f$ = 20						; size = 4
??_H@YGXPAXIIP6EPAX0@Z@Z PROC				; `vector constructor iterator', COMDAT
  00000	55		 push	 ebp
  00001	8b ec		 mov	 ebp, esp
  00003	51		 push	 ecx
$LN2@vector:
  00004	8b 45 10	 mov	 eax, DWORD PTR ___n$[ebp]
  00007	89 45 fc	 mov	 DWORD PTR tv66[ebp], eax
  0000a	8b 45 10	 mov	 eax, DWORD PTR ___n$[ebp]
  0000d	48		 dec	 eax
  0000e	89 45 10	 mov	 DWORD PTR ___n$[ebp], eax
  00011	83 7d fc 00	 cmp	 DWORD PTR tv66[ebp], 0
  00015	76 11		 jbe	 SHORT $LN1@vector
  00017	8b 4d 08	 mov	 ecx, DWORD PTR ___t$[ebp]
  0001a	ff 55 14	 call	 DWORD PTR ___f$[ebp]
  0001d	8b 45 08	 mov	 eax, DWORD PTR ___t$[ebp]
  00020	03 45 0c	 add	 eax, DWORD PTR ___s$[ebp]
  00023	89 45 08	 mov	 DWORD PTR ___t$[ebp], eax
  00026	eb dc		 jmp	 SHORT $LN2@vector
$LN1@vector:
  00028	c9		 leave
  00029	c2 10 00	 ret	 16			; 00000010H
??_H@YGXPAXIIP6EPAX0@Z@Z ENDP				; `vector constructor iterator'
_TEXT	ENDS
END
