; Listing generated by Microsoft (R) Optimizing Compiler Version 19.28.29335.0 

	TITLE	D:\Metin2 Server Files\mainline\SRC_2014\Metin2Client\UserInterface\MarkImage.cpp
	.686P
	.XMM
	include listing.inc
	.model	flat

INCLUDELIB LIBCMT
INCLUDELIB OLDNAMES

PUBLIC	___local_stdio_printf_options
PUBLIC	_printf
PUBLIC	??0exception@std@@QAE@ABV01@@Z			; std::exception::exception
PUBLIC	?what@exception@std@@UBEPBDXZ			; std::exception::what
PUBLIC	??_Gexception@std@@UAEPAXI@Z			; std::exception::`scalar deleting destructor'
PUBLIC	??0bad_alloc@std@@QAE@ABV01@@Z			; std::bad_alloc::bad_alloc
PUBLIC	??_Gbad_alloc@std@@UAEPAXI@Z			; std::bad_alloc::`scalar deleting destructor'
PUBLIC	??0bad_array_new_length@std@@QAE@XZ		; std::bad_array_new_length::bad_array_new_length
PUBLIC	??1bad_array_new_length@std@@UAE@XZ		; std::bad_array_new_length::~bad_array_new_length
PUBLIC	??0bad_array_new_length@std@@QAE@ABV01@@Z	; std::bad_array_new_length::bad_array_new_length
PUBLIC	??_Gbad_array_new_length@std@@UAEPAXI@Z		; std::bad_array_new_length::`scalar deleting destructor'
PUBLIC	?_Throw_bad_array_new_length@std@@YAXXZ		; std::_Throw_bad_array_new_length
PUBLIC	?_Adjust_manually_vector_aligned@std@@YAXAAPAXAAI@Z ; std::_Adjust_manually_vector_aligned
PUBLIC	?_Throw_tree_length_error@std@@YAXXZ		; std::_Throw_tree_length_error
PUBLIC	??$_Deallocate@$07$0A@@std@@YAXPAXI@Z		; std::_Deallocate<8,0>
PUBLIC	??$_Allocate@$07U_Default_allocate_traits@std@@$0A@@std@@YAPAXI@Z ; std::_Allocate<8,std::_Default_allocate_traits,0>
PUBLIC	??$_Allocate_manually_vector_aligned@U_Default_allocate_traits@std@@@std@@YAPAXI@Z ; std::_Allocate_manually_vector_aligned<std::_Default_allocate_traits>
PUBLIC	?Clear@SGuildMark@@QAEXXZ			; SGuildMark::Clear
PUBLIC	?IsEmpty@SGuildMark@@QAE_NXZ			; SGuildMark::IsEmpty
PUBLIC	?GetCRC@SGuildMarkBlock@@QBEKXZ			; SGuildMarkBlock::GetCRC
PUBLIC	?CopyFrom@SGuildMarkBlock@@QAEXPBEKK@Z		; SGuildMarkBlock::CopyFrom
PUBLIC	?Compress@SGuildMarkBlock@@QAEXPBK@Z		; SGuildMarkBlock::Compress
PUBLIC	??0CGuildMarkImage@@QAE@XZ			; CGuildMarkImage::CGuildMarkImage
PUBLIC	??1CGuildMarkImage@@UAE@XZ			; CGuildMarkImage::~CGuildMarkImage
PUBLIC	?Create@CGuildMarkImage@@QAEXXZ			; CGuildMarkImage::Create
PUBLIC	?Destroy@CGuildMarkImage@@QAEXXZ		; CGuildMarkImage::Destroy
PUBLIC	?Build@CGuildMarkImage@@QAE_NPBD@Z		; CGuildMarkImage::Build
PUBLIC	?Save@CGuildMarkImage@@QAE_NPBD@Z		; CGuildMarkImage::Save
PUBLIC	?Load@CGuildMarkImage@@QAE_NPBD@Z		; CGuildMarkImage::Load
PUBLIC	?PutData@CGuildMarkImage@@QAEXIIIIPAX@Z		; CGuildMarkImage::PutData
PUBLIC	?GetData@CGuildMarkImage@@QAEXIIIIPAX@Z		; CGuildMarkImage::GetData
PUBLIC	?SaveMark@CGuildMarkImage@@QAE_NKPAE@Z		; CGuildMarkImage::SaveMark
PUBLIC	?DeleteMark@CGuildMarkImage@@QAE_NK@Z		; CGuildMarkImage::DeleteMark
PUBLIC	?SaveBlockFromCompressedData@CGuildMarkImage@@QAE_NKPBEK@Z ; CGuildMarkImage::SaveBlockFromCompressedData
PUBLIC	?GetEmptyPosition@CGuildMarkImage@@QAEKXZ	; CGuildMarkImage::GetEmptyPosition
PUBLIC	?GetBlockCRCList@CGuildMarkImage@@QAEXPAK@Z	; CGuildMarkImage::GetBlockCRCList
PUBLIC	?GetDiffBlocks@CGuildMarkImage@@QAEXPBKAAV?$map@EPBUSGuildMarkBlock@@U?$less@E@std@@V?$allocator@U?$pair@$$CBEPBUSGuildMarkBlock@@@std@@@3@@std@@@Z ; CGuildMarkImage::GetDiffBlocks
PUBLIC	?BuildAllBlocks@CGuildMarkImage@@AAEXXZ		; CGuildMarkImage::BuildAllBlocks
PUBLIC	??_GCGuildMarkImage@@UAEPAXI@Z			; CGuildMarkImage::`scalar deleting destructor'
PUBLIC	?NewMarkImage@@YAPAVCGuildMarkImage@@XZ		; NewMarkImage
PUBLIC	?DeleteMarkImage@@YAXPAVCGuildMarkImage@@@Z	; DeleteMarkImage
PUBLIC	?max_size@?$_Tree@V?$_Tmap_traits@EPBUSGuildMarkBlock@@U?$less@E@std@@V?$allocator@U?$pair@$$CBEPBUSGuildMarkBlock@@@std@@@3@$0A@@std@@@std@@QBEIXZ ; std::_Tree<std::_Tmap_traits<unsigned char,SGuildMarkBlock const *,std::less<unsigned char>,std::allocator<std::pair<unsigned char const ,SGuildMarkBlock const *> >,0> >::max_size
PUBLIC	?_Check_grow_by_1@?$_Tree@V?$_Tmap_traits@EPBUSGuildMarkBlock@@U?$less@E@std@@V?$allocator@U?$pair@$$CBEPBUSGuildMarkBlock@@@std@@@3@$0A@@std@@@std@@IAEXXZ ; std::_Tree<std::_Tmap_traits<unsigned char,SGuildMarkBlock const *,std::less<unsigned char>,std::allocator<std::pair<unsigned char const ,SGuildMarkBlock const *> >,0> >::_Check_grow_by_1
PUBLIC	?_Lrotate@?$_Tree_val@U?$_Tree_simple_types@U?$pair@$$CBEPBUSGuildMarkBlock@@@std@@@std@@@std@@QAEXPAU?$_Tree_node@U?$pair@$$CBEPBUSGuildMarkBlock@@@std@@PAX@2@@Z ; std::_Tree_val<std::_Tree_simple_types<std::pair<unsigned char const ,SGuildMarkBlock const *> > >::_Lrotate
PUBLIC	?_Rrotate@?$_Tree_val@U?$_Tree_simple_types@U?$pair@$$CBEPBUSGuildMarkBlock@@@std@@@std@@@std@@QAEXPAU?$_Tree_node@U?$pair@$$CBEPBUSGuildMarkBlock@@@std@@PAX@2@@Z ; std::_Tree_val<std::_Tree_simple_types<std::pair<unsigned char const ,SGuildMarkBlock const *> > >::_Rrotate
PUBLIC	?_Insert_node@?$_Tree_val@U?$_Tree_simple_types@U?$pair@$$CBEPBUSGuildMarkBlock@@@std@@@std@@@std@@QAEPAU?$_Tree_node@U?$pair@$$CBEPBUSGuildMarkBlock@@@std@@PAX@2@U?$_Tree_id@PAU?$_Tree_node@U?$pair@$$CBEPBUSGuildMarkBlock@@@std@@PAX@std@@@2@QAU32@@Z ; std::_Tree_val<std::_Tree_simple_types<std::pair<unsigned char const ,SGuildMarkBlock const *> > >::_Insert_node
PUBLIC	??$insert@$0A@$0A@@?$_Tree@V?$_Tmap_traits@EPBUSGuildMarkBlock@@U?$less@E@std@@V?$allocator@U?$pair@$$CBEPBUSGuildMarkBlock@@@std@@@3@$0A@@std@@@std@@QAE?AU?$pair@V?$_Tree_iterator@V?$_Tree_val@U?$_Tree_simple_types@U?$pair@$$CBEPBUSGuildMarkBlock@@@std@@@std@@@std@@@std@@_N@1@$$QAU?$pair@$$CBEPBUSGuildMarkBlock@@@1@@Z ; std::_Tree<std::_Tmap_traits<unsigned char,SGuildMarkBlock const *,std::less<unsigned char>,std::allocator<std::pair<unsigned char const ,SGuildMarkBlock const *> >,0> >::insert<0,0>
PUBLIC	??$_Emplace@U?$pair@$$CBEPBUSGuildMarkBlock@@@std@@@?$_Tree@V?$_Tmap_traits@EPBUSGuildMarkBlock@@U?$less@E@std@@V?$allocator@U?$pair@$$CBEPBUSGuildMarkBlock@@@std@@@3@$0A@@std@@@std@@IAE?AU?$pair@PAU?$_Tree_node@U?$pair@$$CBEPBUSGuildMarkBlock@@@std@@PAX@std@@_N@1@$$QAU?$pair@$$CBEPBUSGuildMarkBlock@@@1@@Z ; std::_Tree<std::_Tmap_traits<unsigned char,SGuildMarkBlock const *,std::less<unsigned char>,std::allocator<std::pair<unsigned char const ,SGuildMarkBlock const *> >,0> >::_Emplace<std::pair<unsigned char const ,SGuildMarkBlock const *> >
PUBLIC	??$_Find_lower_bound@E@?$_Tree@V?$_Tmap_traits@EPBUSGuildMarkBlock@@U?$less@E@std@@V?$allocator@U?$pair@$$CBEPBUSGuildMarkBlock@@@std@@@3@$0A@@std@@@std@@IBE?AU?$_Tree_find_result@PAU?$_Tree_node@U?$pair@$$CBEPBUSGuildMarkBlock@@@std@@PAX@std@@@1@ABE@Z ; std::_Tree<std::_Tmap_traits<unsigned char,SGuildMarkBlock const *,std::less<unsigned char>,std::allocator<std::pair<unsigned char const ,SGuildMarkBlock const *> >,0> >::_Find_lower_bound<unsigned char>
PUBLIC	?_Allocate@?$_Alloc_construct_ptr@V?$allocator@U?$_Tree_node@U?$pair@$$CBEPBUSGuildMarkBlock@@@std@@PAX@std@@@std@@@std@@QAEXXZ ; std::_Alloc_construct_ptr<std::allocator<std::_Tree_node<std::pair<unsigned char const ,SGuildMarkBlock const *>,void *> > >::_Allocate
PUBLIC	??1?$_Alloc_construct_ptr@V?$allocator@U?$_Tree_node@U?$pair@$$CBEPBUSGuildMarkBlock@@@std@@PAX@std@@@std@@@std@@QAE@XZ ; std::_Alloc_construct_ptr<std::allocator<std::_Tree_node<std::pair<unsigned char const ,SGuildMarkBlock const *>,void *> > >::~_Alloc_construct_ptr<std::allocator<std::_Tree_node<std::pair<unsigned char const ,SGuildMarkBlock const *>,void *> > >
PUBLIC	??1?$_Tree_temp_node@V?$allocator@U?$_Tree_node@U?$pair@$$CBEPBUSGuildMarkBlock@@@std@@PAX@std@@@std@@@std@@QAE@XZ ; std::_Tree_temp_node<std::allocator<std::_Tree_node<std::pair<unsigned char const ,SGuildMarkBlock const *>,void *> > >::~_Tree_temp_node<std::allocator<std::_Tree_node<std::pair<unsigned char const ,SGuildMarkBlock const *>,void *> > >
PUBLIC	??$?0U?$pair@$$CBEPBUSGuildMarkBlock@@@std@@@?$_Tree_temp_node@V?$allocator@U?$_Tree_node@U?$pair@$$CBEPBUSGuildMarkBlock@@@std@@PAX@std@@@std@@@std@@QAE@AAV?$allocator@U?$_Tree_node@U?$pair@$$CBEPBUSGuildMarkBlock@@@std@@PAX@std@@@1@PAU?$_Tree_node@U?$pair@$$CBEPBUSGuildMarkBlock@@@std@@PAX@1@$$QAU?$pair@$$CBEPBUSGuildMarkBlock@@@1@@Z ; std::_Tree_temp_node<std::allocator<std::_Tree_node<std::pair<unsigned char const ,SGuildMarkBlock const *>,void *> > >::_Tree_temp_node<std::allocator<std::_Tree_node<std::pair<unsigned char const ,SGuildMarkBlock const *>,void *> > ><std::pair<unsigned char const ,SGuildMarkBlock const *> >
PUBLIC	??$_Destroy_in_place@PAU?$_Tree_node@U?$pair@$$CBEPBUSGuildMarkBlock@@@std@@PAX@std@@@std@@YAXAAPAU?$_Tree_node@U?$pair@$$CBEPBUSGuildMarkBlock@@@std@@PAX@0@@Z ; std::_Destroy_in_place<std::_Tree_node<std::pair<unsigned char const ,SGuildMarkBlock const *>,void *> *>
PUBLIC	??$_Construct_in_place@PAU?$_Tree_node@U?$pair@$$CBEPBUSGuildMarkBlock@@@std@@PAX@std@@AAPAU12@@std@@YAXAAPAU?$_Tree_node@U?$pair@$$CBEPBUSGuildMarkBlock@@@std@@PAX@0@0@Z ; std::_Construct_in_place<std::_Tree_node<std::pair<unsigned char const ,SGuildMarkBlock const *>,void *> *,std::_Tree_node<std::pair<unsigned char const ,SGuildMarkBlock const *>,void *> * &>
PUBLIC	?_OptionsStorage@?1??__local_stdio_printf_options@@9@4_KA ; `__local_stdio_printf_options'::`2'::_OptionsStorage
PUBLIC	??_7exception@std@@6B@				; std::exception::`vftable'
PUBLIC	??_C@_0BC@EOODALEL@Unknown?5exception@		; `string'
PUBLIC	??_7bad_alloc@std@@6B@				; std::bad_alloc::`vftable'
PUBLIC	??_7bad_array_new_length@std@@6B@		; std::bad_array_new_length::`vftable'
PUBLIC	??_C@_0BF@KINCDENJ@bad?5array?5new?5length@	; `string'
PUBLIC	__TI3?AVbad_array_new_length@std@@
PUBLIC	__CTA3?AVbad_array_new_length@std@@
PUBLIC	??_R0?AVbad_array_new_length@std@@@8		; std::bad_array_new_length `RTTI Type Descriptor'
PUBLIC	__CT??_R0?AVbad_array_new_length@std@@@8??0bad_array_new_length@std@@QAE@ABV01@@Z12
PUBLIC	??_R0?AVbad_alloc@std@@@8			; std::bad_alloc `RTTI Type Descriptor'
PUBLIC	__CT??_R0?AVbad_alloc@std@@@8??0bad_alloc@std@@QAE@ABV01@@Z12
PUBLIC	??_R0?AVexception@std@@@8			; std::exception `RTTI Type Descriptor'
PUBLIC	__CT??_R0?AVexception@std@@@8??0exception@std@@QAE@ABV01@@Z12
PUBLIC	??_C@_0BB@GCADKGJO@map?1set?5too?5long@		; `string'
PUBLIC	?ms_singleton@?$CSingleton@VCLZO@@@@0PAVCLZO@@A	; CSingleton<CLZO>::ms_singleton
PUBLIC	??_R4exception@std@@6B@				; std::exception::`RTTI Complete Object Locator'
PUBLIC	??_R3exception@std@@8				; std::exception::`RTTI Class Hierarchy Descriptor'
PUBLIC	??_R2exception@std@@8				; std::exception::`RTTI Base Class Array'
PUBLIC	??_R1A@?0A@EA@exception@std@@8			; std::exception::`RTTI Base Class Descriptor at (0,-1,0,64)'
PUBLIC	??_R4bad_alloc@std@@6B@				; std::bad_alloc::`RTTI Complete Object Locator'
PUBLIC	??_R3bad_alloc@std@@8				; std::bad_alloc::`RTTI Class Hierarchy Descriptor'
PUBLIC	??_R2bad_alloc@std@@8				; std::bad_alloc::`RTTI Base Class Array'
PUBLIC	??_R1A@?0A@EA@bad_alloc@std@@8			; std::bad_alloc::`RTTI Base Class Descriptor at (0,-1,0,64)'
PUBLIC	??_R4bad_array_new_length@std@@6B@		; std::bad_array_new_length::`RTTI Complete Object Locator'
PUBLIC	??_R3bad_array_new_length@std@@8		; std::bad_array_new_length::`RTTI Class Hierarchy Descriptor'
PUBLIC	??_R2bad_array_new_length@std@@8		; std::bad_array_new_length::`RTTI Base Class Array'
PUBLIC	??_R1A@?0A@EA@bad_array_new_length@std@@8	; std::bad_array_new_length::`RTTI Base Class Descriptor at (0,-1,0,64)'
PUBLIC	??_7CGuildMarkImage@@6B@			; CGuildMarkImage::`vftable'
PUBLIC	??_C@_0CJ@CFLIGMKO@CGuildMarkImage?3?5cannot?5initial@ ; `string'
PUBLIC	??_C@_0DB@LCKJIDBG@CGuildMarkImage?3?5cannot?5open?5fi@ ; `string'
PUBLIC	??_C@_0CF@POGBMAHP@CGuildMarkImage?3?5?$CFs?5width?5must?5@ ; `string'
PUBLIC	??_C@_0CG@ENKENEAG@CGuildMarkImage?3?5?$CFs?5height?5must@ ; `string'
PUBLIC	??_C@_0DM@NNKMJGHN@CGuildMarkImage?3?3CopyMarkFromDa@ ; `string'
PUBLIC	??_C@_0BG@PFKANOHB@PutMark?5pos?5?$CFu?5?$CFux?$CFu?6@ ; `string'
PUBLIC	??_C@_0FG@IJMAAEIA@CGuildMarkImage?3?3CopyBlockFromC@ ; `string'
PUBLIC	??_C@_0FG@JNKKBOCL@CGuildMarkImage?3?3CopyBlockFromC@ ; `string'
PUBLIC	??_C@_0CK@BGEKGKPD@SGuildMarkBlock?3?3Compress?3?5Erro@ ; `string'
PUBLIC	??_R4CGuildMarkImage@@6B@			; CGuildMarkImage::`RTTI Complete Object Locator'
PUBLIC	??_R0?AVCGuildMarkImage@@@8			; CGuildMarkImage `RTTI Type Descriptor'
PUBLIC	??_R3CGuildMarkImage@@8				; CGuildMarkImage::`RTTI Class Hierarchy Descriptor'
PUBLIC	??_R2CGuildMarkImage@@8				; CGuildMarkImage::`RTTI Base Class Array'
PUBLIC	??_R1A@?0A@EA@CGuildMarkImage@@8		; CGuildMarkImage::`RTTI Base Class Descriptor at (0,-1,0,64)'
EXTRN	??2@YAPAXI@Z:PROC				; operator new
EXTRN	??3@YAXPAXI@Z:PROC				; operator delete
EXTRN	__invalid_parameter_noinfo_noreturn:PROC
EXTRN	_free:PROC
EXTRN	_malloc:PROC
EXTRN	_memcpy:PROC
EXTRN	_memset:PROC
EXTRN	___acrt_iob_func:PROC
EXTRN	___stdio_common_vfprintf:PROC
EXTRN	___std_exception_copy:PROC
EXTRN	___std_exception_destroy:PROC
EXTRN	??_Eexception@std@@UAEPAXI@Z:PROC		; std::exception::`vector deleting destructor'
EXTRN	??_Ebad_alloc@std@@UAEPAXI@Z:PROC		; std::bad_alloc::`vector deleting destructor'
EXTRN	??_Ebad_array_new_length@std@@UAEPAXI@Z:PROC	; std::bad_array_new_length::`vector deleting destructor'
EXTRN	?_Xlength_error@std@@YAXPBD@Z:PROC		; std::_Xlength_error
EXTRN	?TraceError@@YAXPBDZZ:PROC			; TraceError
EXTRN	?GetCRC32@@YAKPBDI@Z:PROC			; GetCRC32
EXTRN	_lzo1x_decompress_safe:PROC
EXTRN	_lzo1x_999_compress:PROC
EXTRN	?GetWorkMemory@CLZO@@QAEPAEXZ:PROC		; CLZO::GetWorkMemory
EXTRN	__imp__ilBindImage@4:PROC
EXTRN	__imp__ilConvertImage@8:PROC
EXTRN	__imp__ilCopyPixels@36:PROC
EXTRN	__imp__ilDeleteImages@8:PROC
EXTRN	__imp__ilEnable@4:PROC
EXTRN	__imp__ilGenImages@8:PROC
EXTRN	__imp__ilGetInteger@4:PROC
EXTRN	__imp__ilLoad@8:PROC
EXTRN	__imp__ilOriginFunc@4:PROC
EXTRN	__imp__ilSave@8:PROC
EXTRN	__imp__ilSetPixels@36:PROC
EXTRN	__imp__ilTexImage@28:PROC
EXTRN	??_ECGuildMarkImage@@UAEPAXI@Z:PROC		; CGuildMarkImage::`vector deleting destructor'
EXTRN	@__security_check_cookie@4:PROC
EXTRN	__CxxThrowException@8:PROC
EXTRN	___CxxFrameHandler3:PROC
EXTRN	__chkstk:PROC
EXTRN	??_7type_info@@6B@:QWORD			; type_info::`vftable'
EXTRN	___security_cookie:DWORD
;	COMDAT ?_OptionsStorage@?1??__local_stdio_printf_options@@9@4_KA
_BSS	SEGMENT
?_OptionsStorage@?1??__local_stdio_printf_options@@9@4_KA DQ 01H DUP (?) ; `__local_stdio_printf_options'::`2'::_OptionsStorage
_BSS	ENDS
;	COMDAT ?ms_singleton@?$CSingleton@VCLZO@@@@0PAVCLZO@@A
_BSS	SEGMENT
?ms_singleton@?$CSingleton@VCLZO@@@@0PAVCLZO@@A DD 01H DUP (?) ; CSingleton<CLZO>::ms_singleton
_BSS	ENDS
;	COMDAT ??_R1A@?0A@EA@CGuildMarkImage@@8
rdata$r	SEGMENT
??_R1A@?0A@EA@CGuildMarkImage@@8 DD FLAT:??_R0?AVCGuildMarkImage@@@8 ; CGuildMarkImage::`RTTI Base Class Descriptor at (0,-1,0,64)'
	DD	00H
	DD	00H
	DD	0ffffffffH
	DD	00H
	DD	040H
	DD	FLAT:??_R3CGuildMarkImage@@8
rdata$r	ENDS
;	COMDAT ??_R2CGuildMarkImage@@8
rdata$r	SEGMENT
??_R2CGuildMarkImage@@8 DD FLAT:??_R1A@?0A@EA@CGuildMarkImage@@8 ; CGuildMarkImage::`RTTI Base Class Array'
rdata$r	ENDS
;	COMDAT ??_R3CGuildMarkImage@@8
rdata$r	SEGMENT
??_R3CGuildMarkImage@@8 DD 00H				; CGuildMarkImage::`RTTI Class Hierarchy Descriptor'
	DD	00H
	DD	01H
	DD	FLAT:??_R2CGuildMarkImage@@8
rdata$r	ENDS
;	COMDAT ??_R0?AVCGuildMarkImage@@@8
data$rs	SEGMENT
??_R0?AVCGuildMarkImage@@@8 DD FLAT:??_7type_info@@6B@	; CGuildMarkImage `RTTI Type Descriptor'
	DD	00H
	DB	'.?AVCGuildMarkImage@@', 00H
data$rs	ENDS
;	COMDAT ??_R4CGuildMarkImage@@6B@
rdata$r	SEGMENT
??_R4CGuildMarkImage@@6B@ DD 00H			; CGuildMarkImage::`RTTI Complete Object Locator'
	DD	00H
	DD	00H
	DD	FLAT:??_R0?AVCGuildMarkImage@@@8
	DD	FLAT:??_R3CGuildMarkImage@@8
rdata$r	ENDS
;	COMDAT ??_C@_0CK@BGEKGKPD@SGuildMarkBlock?3?3Compress?3?5Erro@
CONST	SEGMENT
??_C@_0CK@BGEKGKPD@SGuildMarkBlock?3?3Compress?3?5Erro@ DB 'SGuildMarkBlo'
	DB	'ck::Compress: Error! %u > %u', 00H		; `string'
CONST	ENDS
;	COMDAT ??_C@_0FG@JNKKBOCL@CGuildMarkImage?3?3CopyBlockFromC@
CONST	SEGMENT
??_C@_0FG@JNKKBOCL@CGuildMarkImage?3?3CopyBlockFromC@ DB 'CGuildMarkImage'
	DB	'::CopyBlockFromCompressedData: image corrupted, decompressed '
	DB	'size = %u', 00H				; `string'
CONST	ENDS
;	COMDAT ??_C@_0FG@IJMAAEIA@CGuildMarkImage?3?3CopyBlockFromC@
CONST	SEGMENT
??_C@_0FG@IJMAAEIA@CGuildMarkImage?3?3CopyBlockFromC@ DB 'CGuildMarkImage'
	DB	'::CopyBlockFromCompressedData: cannot decompress, compressed '
	DB	'size = %u', 00H				; `string'
CONST	ENDS
;	COMDAT ??_C@_0BG@PFKANOHB@PutMark?5pos?5?$CFu?5?$CFux?$CFu?6@
CONST	SEGMENT
??_C@_0BG@PFKANOHB@PutMark?5pos?5?$CFu?5?$CFux?$CFu?6@ DB 'PutMark pos %u'
	DB	' %ux%u', 0aH, 00H				; `string'
CONST	ENDS
;	COMDAT ??_C@_0DM@NNKMJGHN@CGuildMarkImage?3?3CopyMarkFromDa@
CONST	SEGMENT
??_C@_0DM@NNKMJGHN@CGuildMarkImage?3?3CopyMarkFromDa@ DB 'CGuildMarkImage'
	DB	'::CopyMarkFromData: Invalid mark position %u', 00H ; `string'
CONST	ENDS
;	COMDAT ??_C@_0CG@ENKENEAG@CGuildMarkImage?3?5?$CFs?5height?5must@
CONST	SEGMENT
??_C@_0CG@ENKENEAG@CGuildMarkImage?3?5?$CFs?5height?5must@ DB 'CGuildMark'
	DB	'Image: %s height must be %u', 00H		; `string'
CONST	ENDS
;	COMDAT ??_C@_0CF@POGBMAHP@CGuildMarkImage?3?5?$CFs?5width?5must?5@
CONST	SEGMENT
??_C@_0CF@POGBMAHP@CGuildMarkImage?3?5?$CFs?5width?5must?5@ DB 'CGuildMar'
	DB	'kImage: %s width must be %u', 00H		; `string'
CONST	ENDS
;	COMDAT ??_C@_0DB@LCKJIDBG@CGuildMarkImage?3?5cannot?5open?5fi@
CONST	SEGMENT
??_C@_0DB@LCKJIDBG@CGuildMarkImage?3?5cannot?5open?5fi@ DB 'CGuildMarkIma'
	DB	'ge: cannot open file for writing %s', 00H	; `string'
CONST	ENDS
;	COMDAT ??_C@_0CJ@CFLIGMKO@CGuildMarkImage?3?5cannot?5initial@
CONST	SEGMENT
??_C@_0CJ@CFLIGMKO@CGuildMarkImage?3?5cannot?5initial@ DB 'CGuildMarkImag'
	DB	'e: cannot initialize image', 00H		; `string'
CONST	ENDS
;	COMDAT ??_7CGuildMarkImage@@6B@
CONST	SEGMENT
??_7CGuildMarkImage@@6B@ DD FLAT:??_R4CGuildMarkImage@@6B@ ; CGuildMarkImage::`vftable'
	DD	FLAT:??_ECGuildMarkImage@@UAEPAXI@Z
CONST	ENDS
;	COMDAT ??_R1A@?0A@EA@bad_array_new_length@std@@8
rdata$r	SEGMENT
??_R1A@?0A@EA@bad_array_new_length@std@@8 DD FLAT:??_R0?AVbad_array_new_length@std@@@8 ; std::bad_array_new_length::`RTTI Base Class Descriptor at (0,-1,0,64)'
	DD	02H
	DD	00H
	DD	0ffffffffH
	DD	00H
	DD	040H
	DD	FLAT:??_R3bad_array_new_length@std@@8
rdata$r	ENDS
;	COMDAT ??_R2bad_array_new_length@std@@8
rdata$r	SEGMENT
??_R2bad_array_new_length@std@@8 DD FLAT:??_R1A@?0A@EA@bad_array_new_length@std@@8 ; std::bad_array_new_length::`RTTI Base Class Array'
	DD	FLAT:??_R1A@?0A@EA@bad_alloc@std@@8
	DD	FLAT:??_R1A@?0A@EA@exception@std@@8
rdata$r	ENDS
;	COMDAT ??_R3bad_array_new_length@std@@8
rdata$r	SEGMENT
??_R3bad_array_new_length@std@@8 DD 00H			; std::bad_array_new_length::`RTTI Class Hierarchy Descriptor'
	DD	00H
	DD	03H
	DD	FLAT:??_R2bad_array_new_length@std@@8
rdata$r	ENDS
;	COMDAT ??_R4bad_array_new_length@std@@6B@
rdata$r	SEGMENT
??_R4bad_array_new_length@std@@6B@ DD 00H		; std::bad_array_new_length::`RTTI Complete Object Locator'
	DD	00H
	DD	00H
	DD	FLAT:??_R0?AVbad_array_new_length@std@@@8
	DD	FLAT:??_R3bad_array_new_length@std@@8
rdata$r	ENDS
;	COMDAT ??_R1A@?0A@EA@bad_alloc@std@@8
rdata$r	SEGMENT
??_R1A@?0A@EA@bad_alloc@std@@8 DD FLAT:??_R0?AVbad_alloc@std@@@8 ; std::bad_alloc::`RTTI Base Class Descriptor at (0,-1,0,64)'
	DD	01H
	DD	00H
	DD	0ffffffffH
	DD	00H
	DD	040H
	DD	FLAT:??_R3bad_alloc@std@@8
rdata$r	ENDS
;	COMDAT ??_R2bad_alloc@std@@8
rdata$r	SEGMENT
??_R2bad_alloc@std@@8 DD FLAT:??_R1A@?0A@EA@bad_alloc@std@@8 ; std::bad_alloc::`RTTI Base Class Array'
	DD	FLAT:??_R1A@?0A@EA@exception@std@@8
rdata$r	ENDS
;	COMDAT ??_R3bad_alloc@std@@8
rdata$r	SEGMENT
??_R3bad_alloc@std@@8 DD 00H				; std::bad_alloc::`RTTI Class Hierarchy Descriptor'
	DD	00H
	DD	02H
	DD	FLAT:??_R2bad_alloc@std@@8
rdata$r	ENDS
;	COMDAT ??_R4bad_alloc@std@@6B@
rdata$r	SEGMENT
??_R4bad_alloc@std@@6B@ DD 00H				; std::bad_alloc::`RTTI Complete Object Locator'
	DD	00H
	DD	00H
	DD	FLAT:??_R0?AVbad_alloc@std@@@8
	DD	FLAT:??_R3bad_alloc@std@@8
rdata$r	ENDS
;	COMDAT ??_R1A@?0A@EA@exception@std@@8
rdata$r	SEGMENT
??_R1A@?0A@EA@exception@std@@8 DD FLAT:??_R0?AVexception@std@@@8 ; std::exception::`RTTI Base Class Descriptor at (0,-1,0,64)'
	DD	00H
	DD	00H
	DD	0ffffffffH
	DD	00H
	DD	040H
	DD	FLAT:??_R3exception@std@@8
rdata$r	ENDS
;	COMDAT ??_R2exception@std@@8
rdata$r	SEGMENT
??_R2exception@std@@8 DD FLAT:??_R1A@?0A@EA@exception@std@@8 ; std::exception::`RTTI Base Class Array'
rdata$r	ENDS
;	COMDAT ??_R3exception@std@@8
rdata$r	SEGMENT
??_R3exception@std@@8 DD 00H				; std::exception::`RTTI Class Hierarchy Descriptor'
	DD	00H
	DD	01H
	DD	FLAT:??_R2exception@std@@8
rdata$r	ENDS
;	COMDAT ??_R4exception@std@@6B@
rdata$r	SEGMENT
??_R4exception@std@@6B@ DD 00H				; std::exception::`RTTI Complete Object Locator'
	DD	00H
	DD	00H
	DD	FLAT:??_R0?AVexception@std@@@8
	DD	FLAT:??_R3exception@std@@8
rdata$r	ENDS
;	COMDAT ??_C@_0BB@GCADKGJO@map?1set?5too?5long@
CONST	SEGMENT
??_C@_0BB@GCADKGJO@map?1set?5too?5long@ DB 'map/set too long', 00H ; `string'
CONST	ENDS
;	COMDAT __CT??_R0?AVexception@std@@@8??0exception@std@@QAE@ABV01@@Z12
xdata$x	SEGMENT
__CT??_R0?AVexception@std@@@8??0exception@std@@QAE@ABV01@@Z12 DD 00H
	DD	FLAT:??_R0?AVexception@std@@@8
	DD	00H
	DD	0ffffffffH
	ORG $+4
	DD	0cH
	DD	FLAT:??0exception@std@@QAE@ABV01@@Z
xdata$x	ENDS
;	COMDAT ??_R0?AVexception@std@@@8
data$r	SEGMENT
??_R0?AVexception@std@@@8 DD FLAT:??_7type_info@@6B@	; std::exception `RTTI Type Descriptor'
	DD	00H
	DB	'.?AVexception@std@@', 00H
data$r	ENDS
;	COMDAT __CT??_R0?AVbad_alloc@std@@@8??0bad_alloc@std@@QAE@ABV01@@Z12
xdata$x	SEGMENT
__CT??_R0?AVbad_alloc@std@@@8??0bad_alloc@std@@QAE@ABV01@@Z12 DD 010H
	DD	FLAT:??_R0?AVbad_alloc@std@@@8
	DD	00H
	DD	0ffffffffH
	ORG $+4
	DD	0cH
	DD	FLAT:??0bad_alloc@std@@QAE@ABV01@@Z
xdata$x	ENDS
;	COMDAT ??_R0?AVbad_alloc@std@@@8
data$r	SEGMENT
??_R0?AVbad_alloc@std@@@8 DD FLAT:??_7type_info@@6B@	; std::bad_alloc `RTTI Type Descriptor'
	DD	00H
	DB	'.?AVbad_alloc@std@@', 00H
data$r	ENDS
;	COMDAT __CT??_R0?AVbad_array_new_length@std@@@8??0bad_array_new_length@std@@QAE@ABV01@@Z12
xdata$x	SEGMENT
__CT??_R0?AVbad_array_new_length@std@@@8??0bad_array_new_length@std@@QAE@ABV01@@Z12 DD 00H
	DD	FLAT:??_R0?AVbad_array_new_length@std@@@8
	DD	00H
	DD	0ffffffffH
	ORG $+4
	DD	0cH
	DD	FLAT:??0bad_array_new_length@std@@QAE@ABV01@@Z
xdata$x	ENDS
;	COMDAT ??_R0?AVbad_array_new_length@std@@@8
data$r	SEGMENT
??_R0?AVbad_array_new_length@std@@@8 DD FLAT:??_7type_info@@6B@ ; std::bad_array_new_length `RTTI Type Descriptor'
	DD	00H
	DB	'.?AVbad_array_new_length@std@@', 00H
data$r	ENDS
;	COMDAT __CTA3?AVbad_array_new_length@std@@
xdata$x	SEGMENT
__CTA3?AVbad_array_new_length@std@@ DD 03H
	DD	FLAT:__CT??_R0?AVbad_array_new_length@std@@@8??0bad_array_new_length@std@@QAE@ABV01@@Z12
	DD	FLAT:__CT??_R0?AVbad_alloc@std@@@8??0bad_alloc@std@@QAE@ABV01@@Z12
	DD	FLAT:__CT??_R0?AVexception@std@@@8??0exception@std@@QAE@ABV01@@Z12
xdata$x	ENDS
;	COMDAT __TI3?AVbad_array_new_length@std@@
xdata$x	SEGMENT
__TI3?AVbad_array_new_length@std@@ DD 00H
	DD	FLAT:??1bad_array_new_length@std@@UAE@XZ
	DD	00H
	DD	FLAT:__CTA3?AVbad_array_new_length@std@@
xdata$x	ENDS
;	COMDAT ??_C@_0BF@KINCDENJ@bad?5array?5new?5length@
CONST	SEGMENT
??_C@_0BF@KINCDENJ@bad?5array?5new?5length@ DB 'bad array new length', 00H ; `string'
CONST	ENDS
;	COMDAT ??_7bad_array_new_length@std@@6B@
CONST	SEGMENT
??_7bad_array_new_length@std@@6B@ DD FLAT:??_R4bad_array_new_length@std@@6B@ ; std::bad_array_new_length::`vftable'
	DD	FLAT:??_Ebad_array_new_length@std@@UAEPAXI@Z
	DD	FLAT:?what@exception@std@@UBEPBDXZ
CONST	ENDS
;	COMDAT ??_7bad_alloc@std@@6B@
CONST	SEGMENT
??_7bad_alloc@std@@6B@ DD FLAT:??_R4bad_alloc@std@@6B@	; std::bad_alloc::`vftable'
	DD	FLAT:??_Ebad_alloc@std@@UAEPAXI@Z
	DD	FLAT:?what@exception@std@@UBEPBDXZ
CONST	ENDS
;	COMDAT ??_C@_0BC@EOODALEL@Unknown?5exception@
CONST	SEGMENT
??_C@_0BC@EOODALEL@Unknown?5exception@ DB 'Unknown exception', 00H ; `string'
CONST	ENDS
;	COMDAT ??_7exception@std@@6B@
CONST	SEGMENT
??_7exception@std@@6B@ DD FLAT:??_R4exception@std@@6B@	; std::exception::`vftable'
	DD	FLAT:??_Eexception@std@@UAEPAXI@Z
	DD	FLAT:?what@exception@std@@UBEPBDXZ
CONST	ENDS
;	COMDAT xdata$x
xdata$x	SEGMENT
__unwindtable$??$?0U?$pair@$$CBEPBUSGuildMarkBlock@@@std@@@?$_Tree_temp_node@V?$allocator@U?$_Tree_node@U?$pair@$$CBEPBUSGuildMarkBlock@@@std@@PAX@std@@@std@@@std@@QAE@AAV?$allocator@U?$_Tree_node@U?$pair@$$CBEPBUSGuildMarkBlock@@@std@@PAX@std@@@1@PAU?$_Tree_node@U?$pair@$$CBEPBUSGuildMarkBlock@@@std@@PAX@1@$$QAU?$pair@$$CBEPBUSGuildMarkBlock@@@1@@Z DD 0ffffffffH
	DD	FLAT:__unwindfunclet$??$?0U?$pair@$$CBEPBUSGuildMarkBlock@@@std@@@?$_Tree_temp_node@V?$allocator@U?$_Tree_node@U?$pair@$$CBEPBUSGuildMarkBlock@@@std@@PAX@std@@@std@@@std@@QAE@AAV?$allocator@U?$_Tree_node@U?$pair@$$CBEPBUSGuildMarkBlock@@@std@@PAX@std@@@1@PAU?$_Tree_node@U?$pair@$$CBEPBUSGuildMarkBlock@@@std@@PAX@1@$$QAU?$pair@$$CBEPBUSGuildMarkBlock@@@1@@Z$1
__ehfuncinfo$??$?0U?$pair@$$CBEPBUSGuildMarkBlock@@@std@@@?$_Tree_temp_node@V?$allocator@U?$_Tree_node@U?$pair@$$CBEPBUSGuildMarkBlock@@@std@@PAX@std@@@std@@@std@@QAE@AAV?$allocator@U?$_Tree_node@U?$pair@$$CBEPBUSGuildMarkBlock@@@std@@PAX@std@@@1@PAU?$_Tree_node@U?$pair@$$CBEPBUSGuildMarkBlock@@@std@@PAX@1@$$QAU?$pair@$$CBEPBUSGuildMarkBlock@@@1@@Z DD 019930522H
	DD	01H
	DD	FLAT:__unwindtable$??$?0U?$pair@$$CBEPBUSGuildMarkBlock@@@std@@@?$_Tree_temp_node@V?$allocator@U?$_Tree_node@U?$pair@$$CBEPBUSGuildMarkBlock@@@std@@PAX@std@@@std@@@std@@QAE@AAV?$allocator@U?$_Tree_node@U?$pair@$$CBEPBUSGuildMarkBlock@@@std@@PAX@std@@@1@PAU?$_Tree_node@U?$pair@$$CBEPBUSGuildMarkBlock@@@std@@PAX@1@$$QAU?$pair@$$CBEPBUSGuildMarkBlock@@@1@@Z
	DD	2 DUP(00H)
	DD	2 DUP(00H)
	DD	00H
	DD	01H
xdata$x	ENDS
;	COMDAT xdata$x
xdata$x	SEGMENT
__unwindtable$?NewMarkImage@@YAPAVCGuildMarkImage@@XZ DD 0ffffffffH
	DD	FLAT:__unwindfunclet$?NewMarkImage@@YAPAVCGuildMarkImage@@XZ$0
__ehfuncinfo$?NewMarkImage@@YAPAVCGuildMarkImage@@XZ DD 019930522H
	DD	01H
	DD	FLAT:__unwindtable$?NewMarkImage@@YAPAVCGuildMarkImage@@XZ
	DD	2 DUP(00H)
	DD	2 DUP(00H)
	DD	00H
	DD	01H
xdata$x	ENDS
;	COMDAT xdata$x
xdata$x	SEGMENT
__ehfuncinfo$??1CGuildMarkImage@@UAE@XZ DD 019930522H
	DD	00H
	DD	00H
	DD	2 DUP(00H)
	DD	2 DUP(00H)
	DD	00H
	DD	05H
xdata$x	ENDS
;	COMDAT xdata$x
xdata$x	SEGMENT
__ehfuncinfo$??$_Deallocate@$07$0A@@std@@YAXPAXI@Z DD 019930522H
	DD	00H
	DD	00H
	DD	2 DUP(00H)
	DD	2 DUP(00H)
	DD	00H
	DD	05H
xdata$x	ENDS
; Function compile flags: /Odspy
; File C:\Program Files (x86)\Microsoft Visual Studio\2019\Community\VC\Tools\MSVC\14.28.29333\include\xmemory
; File C:\Program Files (x86)\Microsoft Visual Studio\2019\Community\VC\Tools\MSVC\14.28.29333\include\xstddef
; File C:\Program Files (x86)\Microsoft Visual Studio\2019\Community\VC\Tools\MSVC\14.28.29333\include\vcruntime_new.h
; File C:\Program Files (x86)\Microsoft Visual Studio\2019\Community\VC\Tools\MSVC\14.28.29333\include\type_traits
; File C:\Program Files (x86)\Microsoft Visual Studio\2019\Community\VC\Tools\MSVC\14.28.29333\include\xmemory
;	COMDAT ??$_Construct_in_place@PAU?$_Tree_node@U?$pair@$$CBEPBUSGuildMarkBlock@@@std@@PAX@std@@AAPAU12@@std@@YAXAAPAU?$_Tree_node@U?$pair@$$CBEPBUSGuildMarkBlock@@@std@@PAX@0@0@Z
_TEXT	SEGMENT
$T1 = -12						; size = 4
$T2 = -8						; size = 4
$T3 = -4						; size = 4
__Obj$ = 8						; size = 4
_<_Args_0>$ = 12					; size = 4
??$_Construct_in_place@PAU?$_Tree_node@U?$pair@$$CBEPBUSGuildMarkBlock@@@std@@PAX@std@@AAPAU12@@std@@YAXAAPAU?$_Tree_node@U?$pair@$$CBEPBUSGuildMarkBlock@@@std@@PAX@0@0@Z PROC ; std::_Construct_in_place<std::_Tree_node<std::pair<unsigned char const ,SGuildMarkBlock const *>,void *> *,std::_Tree_node<std::pair<unsigned char const ,SGuildMarkBlock const *>,void *> * &>, COMDAT

; 228  : void _Construct_in_place(_Ty& _Obj, _Types&&... _Args) noexcept(is_nothrow_constructible_v<_Ty, _Types...>) {

  00000	55		 push	 ebp
  00001	8b ec		 mov	 ebp, esp
  00003	83 ec 0c	 sub	 esp, 12			; 0000000cH
; File C:\Program Files (x86)\Microsoft Visual Studio\2019\Community\VC\Tools\MSVC\14.28.29333\include\xstddef

; 275  :     return __builtin_addressof(_Val);

  00006	8b 45 08	 mov	 eax, DWORD PTR __Obj$[ebp]
  00009	89 45 fc	 mov	 DWORD PTR $T3[ebp], eax
; File C:\Program Files (x86)\Microsoft Visual Studio\2019\Community\VC\Tools\MSVC\14.28.29333\include\vcruntime_new.h

; 169  :         return _Where;

  0000c	8b 45 fc	 mov	 eax, DWORD PTR $T3[ebp]
  0000f	89 45 f8	 mov	 DWORD PTR $T2[ebp], eax
; File C:\Program Files (x86)\Microsoft Visual Studio\2019\Community\VC\Tools\MSVC\14.28.29333\include\type_traits

; 1443 :     return static_cast<_Ty&&>(_Arg);

  00012	8b 45 0c	 mov	 eax, DWORD PTR _<_Args_0>$[ebp]
  00015	89 45 f4	 mov	 DWORD PTR $T1[ebp], eax
; File C:\Program Files (x86)\Microsoft Visual Studio\2019\Community\VC\Tools\MSVC\14.28.29333\include\xmemory

; 229  :     ::new (const_cast<void*>(static_cast<const volatile void*>(_STD addressof(_Obj))))

  00018	8b 45 f8	 mov	 eax, DWORD PTR $T2[ebp]
  0001b	8b 4d f4	 mov	 ecx, DWORD PTR $T1[ebp]
  0001e	8b 09		 mov	 ecx, DWORD PTR [ecx]
  00020	89 08		 mov	 DWORD PTR [eax], ecx

; 230  :         _Ty(_STD forward<_Types>(_Args)...);
; 231  : }

  00022	c9		 leave
  00023	c3		 ret	 0
??$_Construct_in_place@PAU?$_Tree_node@U?$pair@$$CBEPBUSGuildMarkBlock@@@std@@PAX@std@@AAPAU12@@std@@YAXAAPAU?$_Tree_node@U?$pair@$$CBEPBUSGuildMarkBlock@@@std@@PAX@0@0@Z ENDP ; std::_Construct_in_place<std::_Tree_node<std::pair<unsigned char const ,SGuildMarkBlock const *>,void *> *,std::_Tree_node<std::pair<unsigned char const ,SGuildMarkBlock const *>,void *> * &>
_TEXT	ENDS
; Function compile flags: /Odspy
; File C:\Program Files (x86)\Microsoft Visual Studio\2019\Community\VC\Tools\MSVC\14.28.29333\include\xmemory
;	COMDAT ??$_Destroy_in_place@PAU?$_Tree_node@U?$pair@$$CBEPBUSGuildMarkBlock@@@std@@PAX@std@@@std@@YAXAAPAU?$_Tree_node@U?$pair@$$CBEPBUSGuildMarkBlock@@@std@@PAX@0@@Z
_TEXT	SEGMENT
__Obj$ = 8						; size = 4
??$_Destroy_in_place@PAU?$_Tree_node@U?$pair@$$CBEPBUSGuildMarkBlock@@@std@@PAX@std@@@std@@YAXAAPAU?$_Tree_node@U?$pair@$$CBEPBUSGuildMarkBlock@@@std@@PAX@0@@Z PROC ; std::_Destroy_in_place<std::_Tree_node<std::pair<unsigned char const ,SGuildMarkBlock const *>,void *> *>, COMDAT

; 270  : /* _CONSTEXPR20_DYNALLOC */ void _Destroy_in_place(_Ty& _Obj) noexcept {

  00000	55		 push	 ebp
  00001	8b ec		 mov	 ebp, esp

; 271  : #if _HAS_IF_CONSTEXPR
; 272  :     if constexpr (is_array_v<_Ty>) {
; 273  :         _Destroy_range(_Obj, _Obj + extent_v<_Ty>);
; 274  :     } else
; 275  : #endif // _HAS_IF_CONSTEXPR
; 276  :     {
; 277  :         _Obj.~_Ty();
; 278  :     }
; 279  : }

  00003	5d		 pop	 ebp
  00004	c3		 ret	 0
??$_Destroy_in_place@PAU?$_Tree_node@U?$pair@$$CBEPBUSGuildMarkBlock@@@std@@PAX@std@@@std@@YAXAAPAU?$_Tree_node@U?$pair@$$CBEPBUSGuildMarkBlock@@@std@@PAX@0@@Z ENDP ; std::_Destroy_in_place<std::_Tree_node<std::pair<unsigned char const ,SGuildMarkBlock const *>,void *> *>
_TEXT	ENDS
; Function compile flags: /Odspy
; File C:\Program Files (x86)\Microsoft Visual Studio\2019\Community\VC\Tools\MSVC\14.28.29333\include\xtree
; File C:\Program Files (x86)\Microsoft Visual Studio\2019\Community\VC\Tools\MSVC\14.28.29333\include\xmemory
; File C:\Program Files (x86)\Microsoft Visual Studio\2019\Community\VC\Tools\MSVC\14.28.29333\include\xtree
; File C:\Program Files (x86)\Microsoft Visual Studio\2019\Community\VC\Tools\MSVC\14.28.29333\include\type_traits
; File C:\Program Files (x86)\Microsoft Visual Studio\2019\Community\VC\Tools\MSVC\14.28.29333\include\xtree
; File C:\Program Files (x86)\Microsoft Visual Studio\2019\Community\VC\Tools\MSVC\14.28.29333\include\xstddef
; File C:\Program Files (x86)\Microsoft Visual Studio\2019\Community\VC\Tools\MSVC\14.28.29333\include\xtree
; File C:\Program Files (x86)\Microsoft Visual Studio\2019\Community\VC\Tools\MSVC\14.28.29333\include\vcruntime_new.h
; File C:\Program Files (x86)\Microsoft Visual Studio\2019\Community\VC\Tools\MSVC\14.28.29333\include\type_traits
; File C:\Program Files (x86)\Microsoft Visual Studio\2019\Community\VC\Tools\MSVC\14.28.29333\include\xmemory
; File C:\Program Files (x86)\Microsoft Visual Studio\2019\Community\VC\Tools\MSVC\14.28.29333\include\xtree
;	COMDAT ??$?0U?$pair@$$CBEPBUSGuildMarkBlock@@@std@@@?$_Tree_temp_node@V?$allocator@U?$_Tree_node@U?$pair@$$CBEPBUSGuildMarkBlock@@@std@@PAX@std@@@std@@@std@@QAE@AAV?$allocator@U?$_Tree_node@U?$pair@$$CBEPBUSGuildMarkBlock@@@std@@PAX@std@@@1@PAU?$_Tree_node@U?$pair@$$CBEPBUSGuildMarkBlock@@@std@@PAX@1@$$QAU?$pair@$$CBEPBUSGuildMarkBlock@@@1@@Z
_TEXT	SEGMENT
___formal$ = -40					; size = 4
$T2 = -36						; size = 4
$T3 = -32						; size = 4
$T4 = -28						; size = 4
$T5 = -24						; size = 4
__Val$ = -20						; size = 4
_this$ = -16						; size = 4
__$EHRec$ = -12						; size = 12
__Al_$ = 8						; size = 4
__Myhead$ = 12						; size = 4
_<_Vals_0>$ = 16					; size = 4
??$?0U?$pair@$$CBEPBUSGuildMarkBlock@@@std@@@?$_Tree_temp_node@V?$allocator@U?$_Tree_node@U?$pair@$$CBEPBUSGuildMarkBlock@@@std@@PAX@std@@@std@@@std@@QAE@AAV?$allocator@U?$_Tree_node@U?$pair@$$CBEPBUSGuildMarkBlock@@@std@@PAX@std@@@1@PAU?$_Tree_node@U?$pair@$$CBEPBUSGuildMarkBlock@@@std@@PAX@1@$$QAU?$pair@$$CBEPBUSGuildMarkBlock@@@1@@Z PROC ; std::_Tree_temp_node<std::allocator<std::_Tree_node<std::pair<unsigned char const ,SGuildMarkBlock const *>,void *> > >::_Tree_temp_node<std::allocator<std::_Tree_node<std::pair<unsigned char const ,SGuildMarkBlock const *>,void *> > ><std::pair<unsigned char const ,SGuildMarkBlock const *> >, COMDAT
; _this$ = ecx

; 805  :         : _Tree_temp_node_alloc<_Alnode>(_Al_) {

  00000	55		 push	 ebp
  00001	8b ec		 mov	 ebp, esp
  00003	6a ff		 push	 -1
  00005	68 00 00 00 00	 push	 __ehhandler$??$?0U?$pair@$$CBEPBUSGuildMarkBlock@@@std@@@?$_Tree_temp_node@V?$allocator@U?$_Tree_node@U?$pair@$$CBEPBUSGuildMarkBlock@@@std@@PAX@std@@@std@@@std@@QAE@AAV?$allocator@U?$_Tree_node@U?$pair@$$CBEPBUSGuildMarkBlock@@@std@@PAX@std@@@1@PAU?$_Tree_node@U?$pair@$$CBEPBUSGuildMarkBlock@@@std@@PAX@1@$$QAU?$pair@$$CBEPBUSGuildMarkBlock@@@1@@Z
  0000a	64 a1 00 00 00
	00		 mov	 eax, DWORD PTR fs:0
  00010	50		 push	 eax
  00011	83 ec 1c	 sub	 esp, 28			; 0000001cH
  00014	a1 00 00 00 00	 mov	 eax, DWORD PTR ___security_cookie
  00019	33 c5		 xor	 eax, ebp
  0001b	50		 push	 eax
  0001c	8d 45 f4	 lea	 eax, DWORD PTR __$EHRec$[ebp]
  0001f	64 a3 00 00 00
	00		 mov	 DWORD PTR fs:0, eax
  00025	89 4d f0	 mov	 DWORD PTR _this$[ebp], ecx
; File C:\Program Files (x86)\Microsoft Visual Studio\2019\Community\VC\Tools\MSVC\14.28.29333\include\xmemory

; 1045 :     explicit _Alloc_construct_ptr(_Alloc& _Al_) : _Al(_Al_), _Ptr(nullptr) {}

  00028	8b 45 f0	 mov	 eax, DWORD PTR _this$[ebp]
  0002b	8b 4d 08	 mov	 ecx, DWORD PTR __Al_$[ebp]
  0002e	89 08		 mov	 DWORD PTR [eax], ecx
  00030	8b 45 f0	 mov	 eax, DWORD PTR _this$[ebp]
  00033	83 60 04 00	 and	 DWORD PTR [eax+4], 0
; File C:\Program Files (x86)\Microsoft Visual Studio\2019\Community\VC\Tools\MSVC\14.28.29333\include\xtree

; 784  :     explicit _Tree_temp_node_alloc(_Alnode& _Al_) : _Alloc_construct_ptr<_Alnode>(_Al_) {

  00037	83 65 fc 00	 and	 DWORD PTR __$EHRec$[ebp+8], 0

; 785  :         _Alloc_construct_ptr<_Alnode>::_Allocate();

  0003b	8b 4d f0	 mov	 ecx, DWORD PTR _this$[ebp]
  0003e	e8 00 00 00 00	 call	 ?_Allocate@?$_Alloc_construct_ptr@V?$allocator@U?$_Tree_node@U?$pair@$$CBEPBUSGuildMarkBlock@@@std@@PAX@std@@@std@@@std@@QAEXXZ ; std::_Alloc_construct_ptr<std::allocator<std::_Tree_node<std::pair<unsigned char const ,SGuildMarkBlock const *>,void *> > >::_Allocate

; 786  :     }

  00043	83 4d fc ff	 or	 DWORD PTR __$EHRec$[ebp+8], -1
; File C:\Program Files (x86)\Microsoft Visual Studio\2019\Community\VC\Tools\MSVC\14.28.29333\include\type_traits

; 1443 :     return static_cast<_Ty&&>(_Arg);

  00047	8b 45 10	 mov	 eax, DWORD PTR _<_Vals_0>$[ebp]
  0004a	89 45 e4	 mov	 DWORD PTR $T4[ebp], eax
; File C:\Program Files (x86)\Microsoft Visual Studio\2019\Community\VC\Tools\MSVC\14.28.29333\include\xtree

; 806  :         _Alnode_traits::construct(this->_Al, _STD addressof(this->_Ptr->_Myval), _STD forward<_Valtys>(_Vals)...);

  0004d	8b 45 f0	 mov	 eax, DWORD PTR _this$[ebp]
  00050	8b 40 04	 mov	 eax, DWORD PTR [eax+4]
  00053	83 c0 10	 add	 eax, 16			; 00000010H
  00056	89 45 ec	 mov	 DWORD PTR __Val$[ebp], eax
; File C:\Program Files (x86)\Microsoft Visual Studio\2019\Community\VC\Tools\MSVC\14.28.29333\include\xstddef

; 275  :     return __builtin_addressof(_Val);

  00059	8b 45 ec	 mov	 eax, DWORD PTR __Val$[ebp]
  0005c	89 45 e8	 mov	 DWORD PTR $T5[ebp], eax
; File C:\Program Files (x86)\Microsoft Visual Studio\2019\Community\VC\Tools\MSVC\14.28.29333\include\xtree

; 806  :         _Alnode_traits::construct(this->_Al, _STD addressof(this->_Ptr->_Myval), _STD forward<_Valtys>(_Vals)...);

  0005f	8b 45 f0	 mov	 eax, DWORD PTR _this$[ebp]
  00062	8b 00		 mov	 eax, DWORD PTR [eax]
  00064	89 45 d8	 mov	 DWORD PTR ___formal$[ebp], eax
; File C:\Program Files (x86)\Microsoft Visual Studio\2019\Community\VC\Tools\MSVC\14.28.29333\include\vcruntime_new.h

; 169  :         return _Where;

  00067	8b 45 e8	 mov	 eax, DWORD PTR $T5[ebp]
  0006a	89 45 dc	 mov	 DWORD PTR $T2[ebp], eax
; File C:\Program Files (x86)\Microsoft Visual Studio\2019\Community\VC\Tools\MSVC\14.28.29333\include\type_traits

; 1443 :     return static_cast<_Ty&&>(_Arg);

  0006d	8b 45 e4	 mov	 eax, DWORD PTR $T4[ebp]
  00070	89 45 e0	 mov	 DWORD PTR $T3[ebp], eax
; File C:\Program Files (x86)\Microsoft Visual Studio\2019\Community\VC\Tools\MSVC\14.28.29333\include\xmemory

; 701  :         ::new (const_cast<void*>(static_cast<const volatile void*>(_Ptr))) _Objty(_STD forward<_Types>(_Args)...);

  00073	8b 45 e0	 mov	 eax, DWORD PTR $T3[ebp]
  00076	8b 08		 mov	 ecx, DWORD PTR [eax]
  00078	8b 40 04	 mov	 eax, DWORD PTR [eax+4]
  0007b	8b 55 dc	 mov	 edx, DWORD PTR $T2[ebp]
  0007e	89 0a		 mov	 DWORD PTR [edx], ecx
  00080	89 42 04	 mov	 DWORD PTR [edx+4], eax
; File C:\Program Files (x86)\Microsoft Visual Studio\2019\Community\VC\Tools\MSVC\14.28.29333\include\xtree

; 807  :         _Construct_in_place(this->_Ptr->_Left, _Myhead);

  00083	8d 45 0c	 lea	 eax, DWORD PTR __Myhead$[ebp]
  00086	50		 push	 eax
  00087	8b 45 f0	 mov	 eax, DWORD PTR _this$[ebp]
  0008a	ff 70 04	 push	 DWORD PTR [eax+4]
  0008d	e8 00 00 00 00	 call	 ??$_Construct_in_place@PAU?$_Tree_node@U?$pair@$$CBEPBUSGuildMarkBlock@@@std@@PAX@std@@AAPAU12@@std@@YAXAAPAU?$_Tree_node@U?$pair@$$CBEPBUSGuildMarkBlock@@@std@@PAX@0@0@Z ; std::_Construct_in_place<std::_Tree_node<std::pair<unsigned char const ,SGuildMarkBlock const *>,void *> *,std::_Tree_node<std::pair<unsigned char const ,SGuildMarkBlock const *>,void *> * &>
  00092	59		 pop	 ecx
  00093	59		 pop	 ecx

; 808  :         _Construct_in_place(this->_Ptr->_Parent, _Myhead);

  00094	8d 45 0c	 lea	 eax, DWORD PTR __Myhead$[ebp]
  00097	50		 push	 eax
  00098	8b 45 f0	 mov	 eax, DWORD PTR _this$[ebp]
  0009b	8b 40 04	 mov	 eax, DWORD PTR [eax+4]
  0009e	83 c0 04	 add	 eax, 4
  000a1	50		 push	 eax
  000a2	e8 00 00 00 00	 call	 ??$_Construct_in_place@PAU?$_Tree_node@U?$pair@$$CBEPBUSGuildMarkBlock@@@std@@PAX@std@@AAPAU12@@std@@YAXAAPAU?$_Tree_node@U?$pair@$$CBEPBUSGuildMarkBlock@@@std@@PAX@0@0@Z ; std::_Construct_in_place<std::_Tree_node<std::pair<unsigned char const ,SGuildMarkBlock const *>,void *> *,std::_Tree_node<std::pair<unsigned char const ,SGuildMarkBlock const *>,void *> * &>
  000a7	59		 pop	 ecx
  000a8	59		 pop	 ecx

; 809  :         _Construct_in_place(this->_Ptr->_Right, _Myhead);

  000a9	8d 45 0c	 lea	 eax, DWORD PTR __Myhead$[ebp]
  000ac	50		 push	 eax
  000ad	8b 45 f0	 mov	 eax, DWORD PTR _this$[ebp]
  000b0	8b 40 04	 mov	 eax, DWORD PTR [eax+4]
  000b3	83 c0 08	 add	 eax, 8
  000b6	50		 push	 eax
  000b7	e8 00 00 00 00	 call	 ??$_Construct_in_place@PAU?$_Tree_node@U?$pair@$$CBEPBUSGuildMarkBlock@@@std@@PAX@std@@AAPAU12@@std@@YAXAAPAU?$_Tree_node@U?$pair@$$CBEPBUSGuildMarkBlock@@@std@@PAX@0@0@Z ; std::_Construct_in_place<std::_Tree_node<std::pair<unsigned char const ,SGuildMarkBlock const *>,void *> *,std::_Tree_node<std::pair<unsigned char const ,SGuildMarkBlock const *>,void *> * &>
  000bc	59		 pop	 ecx
  000bd	59		 pop	 ecx

; 810  :         this->_Ptr->_Color = _Red;

  000be	8b 45 f0	 mov	 eax, DWORD PTR _this$[ebp]
  000c1	8b 40 04	 mov	 eax, DWORD PTR [eax+4]
  000c4	c6 40 0c 00	 mov	 BYTE PTR [eax+12], 0

; 811  :         this->_Ptr->_Isnil = false;

  000c8	8b 45 f0	 mov	 eax, DWORD PTR _this$[ebp]
  000cb	8b 40 04	 mov	 eax, DWORD PTR [eax+4]
  000ce	c6 40 0d 00	 mov	 BYTE PTR [eax+13], 0

; 812  :     }

  000d2	8b 45 f0	 mov	 eax, DWORD PTR _this$[ebp]
  000d5	8b 4d f4	 mov	 ecx, DWORD PTR __$EHRec$[ebp]
  000d8	64 89 0d 00 00
	00 00		 mov	 DWORD PTR fs:0, ecx
  000df	59		 pop	 ecx
  000e0	c9		 leave
  000e1	c2 0c 00	 ret	 12			; 0000000cH
_TEXT	ENDS
;	COMDAT text$x
text$x	SEGMENT
__unwindfunclet$??$?0U?$pair@$$CBEPBUSGuildMarkBlock@@@std@@@?$_Tree_temp_node@V?$allocator@U?$_Tree_node@U?$pair@$$CBEPBUSGuildMarkBlock@@@std@@PAX@std@@@std@@@std@@QAE@AAV?$allocator@U?$_Tree_node@U?$pair@$$CBEPBUSGuildMarkBlock@@@std@@PAX@std@@@1@PAU?$_Tree_node@U?$pair@$$CBEPBUSGuildMarkBlock@@@std@@PAX@1@$$QAU?$pair@$$CBEPBUSGuildMarkBlock@@@1@@Z$1:
  00000	8b 4d f0	 mov	 ecx, DWORD PTR _this$[ebp]
  00003	e9 00 00 00 00	 jmp	 ??1?$_Alloc_construct_ptr@V?$allocator@U?$_Tree_node@U?$pair@$$CBEPBUSGuildMarkBlock@@@std@@PAX@std@@@std@@@std@@QAE@XZ ; std::_Alloc_construct_ptr<std::allocator<std::_Tree_node<std::pair<unsigned char const ,SGuildMarkBlock const *>,void *> > >::~_Alloc_construct_ptr<std::allocator<std::_Tree_node<std::pair<unsigned char const ,SGuildMarkBlock const *>,void *> > >
  00008	cc		 int	 3
  00009	cc		 int	 3
  0000a	cc		 int	 3
  0000b	cc		 int	 3
  0000c	cc		 int	 3
__ehhandler$??$?0U?$pair@$$CBEPBUSGuildMarkBlock@@@std@@@?$_Tree_temp_node@V?$allocator@U?$_Tree_node@U?$pair@$$CBEPBUSGuildMarkBlock@@@std@@PAX@std@@@std@@@std@@QAE@AAV?$allocator@U?$_Tree_node@U?$pair@$$CBEPBUSGuildMarkBlock@@@std@@PAX@std@@@1@PAU?$_Tree_node@U?$pair@$$CBEPBUSGuildMarkBlock@@@std@@PAX@1@$$QAU?$pair@$$CBEPBUSGuildMarkBlock@@@1@@Z:
  0000d	90		 npad	 1
  0000e	90		 npad	 1
  0000f	8b 54 24 08	 mov	 edx, DWORD PTR [esp+8]
  00013	8d 42 0c	 lea	 eax, DWORD PTR [edx+12]
  00016	8b 4a e0	 mov	 ecx, DWORD PTR [edx-32]
  00019	33 c8		 xor	 ecx, eax
  0001b	e8 00 00 00 00	 call	 @__security_check_cookie@4
  00020	b8 00 00 00 00	 mov	 eax, OFFSET __ehfuncinfo$??$?0U?$pair@$$CBEPBUSGuildMarkBlock@@@std@@@?$_Tree_temp_node@V?$allocator@U?$_Tree_node@U?$pair@$$CBEPBUSGuildMarkBlock@@@std@@PAX@std@@@std@@@std@@QAE@AAV?$allocator@U?$_Tree_node@U?$pair@$$CBEPBUSGuildMarkBlock@@@std@@PAX@std@@@1@PAU?$_Tree_node@U?$pair@$$CBEPBUSGuildMarkBlock@@@std@@PAX@1@$$QAU?$pair@$$CBEPBUSGuildMarkBlock@@@1@@Z
  00025	e9 00 00 00 00	 jmp	 ___CxxFrameHandler3
text$x	ENDS
??$?0U?$pair@$$CBEPBUSGuildMarkBlock@@@std@@@?$_Tree_temp_node@V?$allocator@U?$_Tree_node@U?$pair@$$CBEPBUSGuildMarkBlock@@@std@@PAX@std@@@std@@@std@@QAE@AAV?$allocator@U?$_Tree_node@U?$pair@$$CBEPBUSGuildMarkBlock@@@std@@PAX@std@@@1@PAU?$_Tree_node@U?$pair@$$CBEPBUSGuildMarkBlock@@@std@@PAX@1@$$QAU?$pair@$$CBEPBUSGuildMarkBlock@@@1@@Z ENDP ; std::_Tree_temp_node<std::allocator<std::_Tree_node<std::pair<unsigned char const ,SGuildMarkBlock const *>,void *> > >::_Tree_temp_node<std::allocator<std::_Tree_node<std::pair<unsigned char const ,SGuildMarkBlock const *>,void *> > ><std::pair<unsigned char const ,SGuildMarkBlock const *> >
; Function compile flags: /Odspy
; File C:\Program Files (x86)\Microsoft Visual Studio\2019\Community\VC\Tools\MSVC\14.28.29333\include\xtree
; File C:\Program Files (x86)\Microsoft Visual Studio\2019\Community\VC\Tools\MSVC\14.28.29333\include\xstddef
; File C:\Program Files (x86)\Microsoft Visual Studio\2019\Community\VC\Tools\MSVC\14.28.29333\include\xtree
;	COMDAT ??1?$_Tree_temp_node@V?$allocator@U?$_Tree_node@U?$pair@$$CBEPBUSGuildMarkBlock@@@std@@PAX@std@@@std@@@std@@QAE@XZ
_TEXT	SEGMENT
$T1 = -12						; size = 4
__Val$ = -8						; size = 4
_this$ = -4						; size = 4
??1?$_Tree_temp_node@V?$allocator@U?$_Tree_node@U?$pair@$$CBEPBUSGuildMarkBlock@@@std@@PAX@std@@@std@@@std@@QAE@XZ PROC ; std::_Tree_temp_node<std::allocator<std::_Tree_node<std::pair<unsigned char const ,SGuildMarkBlock const *>,void *> > >::~_Tree_temp_node<std::allocator<std::_Tree_node<std::pair<unsigned char const ,SGuildMarkBlock const *>,void *> > >, COMDAT
; _this$ = ecx

; 817  :     ~_Tree_temp_node() {

  00000	55		 push	 ebp
  00001	8b ec		 mov	 ebp, esp
  00003	83 ec 0c	 sub	 esp, 12			; 0000000cH
  00006	89 4d fc	 mov	 DWORD PTR _this$[ebp], ecx

; 818  :         if (this->_Ptr) {

  00009	8b 45 fc	 mov	 eax, DWORD PTR _this$[ebp]
  0000c	83 78 04 00	 cmp	 DWORD PTR [eax+4], 0
  00010	74 3e		 je	 SHORT $LN9@Tree_temp_

; 819  :             _Destroy_in_place(this->_Ptr->_Left);

  00012	8b 45 fc	 mov	 eax, DWORD PTR _this$[ebp]
  00015	ff 70 04	 push	 DWORD PTR [eax+4]
  00018	e8 00 00 00 00	 call	 ??$_Destroy_in_place@PAU?$_Tree_node@U?$pair@$$CBEPBUSGuildMarkBlock@@@std@@PAX@std@@@std@@YAXAAPAU?$_Tree_node@U?$pair@$$CBEPBUSGuildMarkBlock@@@std@@PAX@0@@Z ; std::_Destroy_in_place<std::_Tree_node<std::pair<unsigned char const ,SGuildMarkBlock const *>,void *> *>
  0001d	59		 pop	 ecx

; 820  :             _Destroy_in_place(this->_Ptr->_Parent);

  0001e	8b 45 fc	 mov	 eax, DWORD PTR _this$[ebp]
  00021	8b 40 04	 mov	 eax, DWORD PTR [eax+4]
  00024	83 c0 04	 add	 eax, 4
  00027	50		 push	 eax
  00028	e8 00 00 00 00	 call	 ??$_Destroy_in_place@PAU?$_Tree_node@U?$pair@$$CBEPBUSGuildMarkBlock@@@std@@PAX@std@@@std@@YAXAAPAU?$_Tree_node@U?$pair@$$CBEPBUSGuildMarkBlock@@@std@@PAX@0@@Z ; std::_Destroy_in_place<std::_Tree_node<std::pair<unsigned char const ,SGuildMarkBlock const *>,void *> *>
  0002d	59		 pop	 ecx

; 821  :             _Destroy_in_place(this->_Ptr->_Right);

  0002e	8b 45 fc	 mov	 eax, DWORD PTR _this$[ebp]
  00031	8b 40 04	 mov	 eax, DWORD PTR [eax+4]
  00034	83 c0 08	 add	 eax, 8
  00037	50		 push	 eax
  00038	e8 00 00 00 00	 call	 ??$_Destroy_in_place@PAU?$_Tree_node@U?$pair@$$CBEPBUSGuildMarkBlock@@@std@@PAX@std@@@std@@YAXAAPAU?$_Tree_node@U?$pair@$$CBEPBUSGuildMarkBlock@@@std@@PAX@0@@Z ; std::_Destroy_in_place<std::_Tree_node<std::pair<unsigned char const ,SGuildMarkBlock const *>,void *> *>
  0003d	59		 pop	 ecx

; 822  :             _Alnode_traits::destroy(this->_Al, _STD addressof(this->_Ptr->_Myval));

  0003e	8b 45 fc	 mov	 eax, DWORD PTR _this$[ebp]
  00041	8b 40 04	 mov	 eax, DWORD PTR [eax+4]
  00044	83 c0 10	 add	 eax, 16			; 00000010H
  00047	89 45 f8	 mov	 DWORD PTR __Val$[ebp], eax
; File C:\Program Files (x86)\Microsoft Visual Studio\2019\Community\VC\Tools\MSVC\14.28.29333\include\xstddef

; 275  :     return __builtin_addressof(_Val);

  0004a	8b 45 f8	 mov	 eax, DWORD PTR __Val$[ebp]
  0004d	89 45 f4	 mov	 DWORD PTR $T1[ebp], eax
$LN9@Tree_temp_:
  00050	8b 4d fc	 mov	 ecx, DWORD PTR _this$[ebp]
  00053	e8 00 00 00 00	 call	 ??1?$_Alloc_construct_ptr@V?$allocator@U?$_Tree_node@U?$pair@$$CBEPBUSGuildMarkBlock@@@std@@PAX@std@@@std@@@std@@QAE@XZ ; std::_Alloc_construct_ptr<std::allocator<std::_Tree_node<std::pair<unsigned char const ,SGuildMarkBlock const *>,void *> > >::~_Alloc_construct_ptr<std::allocator<std::_Tree_node<std::pair<unsigned char const ,SGuildMarkBlock const *>,void *> > >
; File C:\Program Files (x86)\Microsoft Visual Studio\2019\Community\VC\Tools\MSVC\14.28.29333\include\xtree

; 824  :     }

  00058	c9		 leave
  00059	c3		 ret	 0
??1?$_Tree_temp_node@V?$allocator@U?$_Tree_node@U?$pair@$$CBEPBUSGuildMarkBlock@@@std@@PAX@std@@@std@@@std@@QAE@XZ ENDP ; std::_Tree_temp_node<std::allocator<std::_Tree_node<std::pair<unsigned char const ,SGuildMarkBlock const *>,void *> > >::~_Tree_temp_node<std::allocator<std::_Tree_node<std::pair<unsigned char const ,SGuildMarkBlock const *>,void *> > >
_TEXT	ENDS
; Function compile flags: /Odspy
; File C:\Program Files (x86)\Microsoft Visual Studio\2019\Community\VC\Tools\MSVC\14.28.29333\include\xmemory
;	COMDAT ??1?$_Alloc_construct_ptr@V?$allocator@U?$_Tree_node@U?$pair@$$CBEPBUSGuildMarkBlock@@@std@@PAX@std@@@std@@@std@@QAE@XZ
_TEXT	SEGMENT
_this$ = -12						; size = 4
__Ptr$ = -8						; size = 4
_this$ = -4						; size = 4
??1?$_Alloc_construct_ptr@V?$allocator@U?$_Tree_node@U?$pair@$$CBEPBUSGuildMarkBlock@@@std@@PAX@std@@@std@@@std@@QAE@XZ PROC ; std::_Alloc_construct_ptr<std::allocator<std::_Tree_node<std::pair<unsigned char const ,SGuildMarkBlock const *>,void *> > >::~_Alloc_construct_ptr<std::allocator<std::_Tree_node<std::pair<unsigned char const ,SGuildMarkBlock const *>,void *> > >, COMDAT
; _this$ = ecx

; 1056 :     ~_Alloc_construct_ptr() { // if this instance is engaged, deallocate storage

  00000	55		 push	 ebp
  00001	8b ec		 mov	 ebp, esp
  00003	83 ec 0c	 sub	 esp, 12			; 0000000cH
  00006	89 4d fc	 mov	 DWORD PTR _this$[ebp], ecx

; 1057 :         if (_Ptr) {

  00009	8b 45 fc	 mov	 eax, DWORD PTR _this$[ebp]
  0000c	83 78 04 00	 cmp	 DWORD PTR [eax+4], 0
  00010	74 22		 je	 SHORT $LN3@Alloc_cons

; 1058 :             _Al.deallocate(_Ptr, 1);

  00012	8b 45 fc	 mov	 eax, DWORD PTR _this$[ebp]
  00015	8b 40 04	 mov	 eax, DWORD PTR [eax+4]
  00018	89 45 f8	 mov	 DWORD PTR __Ptr$[ebp], eax
  0001b	8b 45 fc	 mov	 eax, DWORD PTR _this$[ebp]
  0001e	8b 00		 mov	 eax, DWORD PTR [eax]
  00020	89 45 f4	 mov	 DWORD PTR _this$[ebp], eax

; 810  :         _Deallocate<_New_alignof<_Ty>>(_Ptr, sizeof(_Ty) * _Count);

  00023	33 c0		 xor	 eax, eax
  00025	40		 inc	 eax
  00026	6b c0 18	 imul	 eax, eax, 24
  00029	50		 push	 eax
  0002a	ff 75 f8	 push	 DWORD PTR __Ptr$[ebp]
  0002d	e8 00 00 00 00	 call	 ??$_Deallocate@$07$0A@@std@@YAXPAXI@Z ; std::_Deallocate<8,0>
  00032	59		 pop	 ecx
  00033	59		 pop	 ecx
$LN3@Alloc_cons:

; 1059 :         }
; 1060 :     }

  00034	c9		 leave
  00035	c3		 ret	 0
??1?$_Alloc_construct_ptr@V?$allocator@U?$_Tree_node@U?$pair@$$CBEPBUSGuildMarkBlock@@@std@@PAX@std@@@std@@@std@@QAE@XZ ENDP ; std::_Alloc_construct_ptr<std::allocator<std::_Tree_node<std::pair<unsigned char const ,SGuildMarkBlock const *>,void *> > >::~_Alloc_construct_ptr<std::allocator<std::_Tree_node<std::pair<unsigned char const ,SGuildMarkBlock const *>,void *> > >
_TEXT	ENDS
; Function compile flags: /Odspy
; File C:\Program Files (x86)\Microsoft Visual Studio\2019\Community\VC\Tools\MSVC\14.28.29333\include\xmemory
;	COMDAT ?_Allocate@?$_Alloc_construct_ptr@V?$allocator@U?$_Tree_node@U?$pair@$$CBEPBUSGuildMarkBlock@@@std@@PAX@std@@@std@@@std@@QAEXXZ
_TEXT	SEGMENT
__Max_possible$1 = -24					; size = 4
_this$ = -20						; size = 4
$T2 = -16						; size = 4
$T3 = -12						; size = 4
_this$ = -8						; size = 4
__Overflow_is_possible$4 = -1				; size = 1
?_Allocate@?$_Alloc_construct_ptr@V?$allocator@U?$_Tree_node@U?$pair@$$CBEPBUSGuildMarkBlock@@@std@@PAX@std@@@std@@@std@@QAEXXZ PROC ; std::_Alloc_construct_ptr<std::allocator<std::_Tree_node<std::pair<unsigned char const ,SGuildMarkBlock const *>,void *> > >::_Allocate, COMDAT
; _this$ = ecx

; 1051 :     void _Allocate() { // disengage *this, then allocate a new memory block

  00000	55		 push	 ebp
  00001	8b ec		 mov	 ebp, esp
  00003	83 ec 18	 sub	 esp, 24			; 00000018H
  00006	89 4d f8	 mov	 DWORD PTR _this$[ebp], ecx

; 1052 :         _Ptr = nullptr; // if allocate throws, prevents double-free

  00009	8b 45 f8	 mov	 eax, DWORD PTR _this$[ebp]
  0000c	83 60 04 00	 and	 DWORD PTR [eax+4], 0

; 1053 :         _Ptr = _Al.allocate(1);

  00010	8b 45 f8	 mov	 eax, DWORD PTR _this$[ebp]
  00013	8b 00		 mov	 eax, DWORD PTR [eax]
  00015	89 45 ec	 mov	 DWORD PTR _this$[ebp], eax

; 56   :     constexpr bool _Overflow_is_possible = _Ty_size > 1;

  00018	c6 45 ff 01	 mov	 BYTE PTR __Overflow_is_possible$4[ebp], 1

; 57   : 
; 58   :     if _CONSTEXPR_IF (_Overflow_is_possible) {
; 59   :         constexpr size_t _Max_possible = static_cast<size_t>(-1) / _Ty_size;

  0001c	c7 45 e8 aa aa
	aa 0a		 mov	 DWORD PTR __Max_possible$1[ebp], 178956970 ; 0aaaaaaaH

; 60   :         if (_Count > _Max_possible) {

  00023	33 c0		 xor	 eax, eax
  00025	40		 inc	 eax
  00026	3d aa aa aa 0a	 cmp	 eax, 178956970		; 0aaaaaaaH
  0002b	76 05		 jbe	 SHORT $LN6@Allocate

; 61   :             _Throw_bad_array_new_length(); // multiply overflow

  0002d	e8 00 00 00 00	 call	 ?_Throw_bad_array_new_length@std@@YAXXZ ; std::_Throw_bad_array_new_length
$LN6@Allocate:

; 62   :         }
; 63   :     }
; 64   : 
; 65   :     return _Count * _Ty_size;

  00032	33 c0		 xor	 eax, eax
  00034	40		 inc	 eax
  00035	6b c0 18	 imul	 eax, eax, 24
  00038	89 45 f4	 mov	 DWORD PTR $T3[ebp], eax

; 814  :         return static_cast<_Ty*>(_Allocate<_New_alignof<_Ty>>(_Get_size_of_n<sizeof(_Ty)>(_Count)));

  0003b	ff 75 f4	 push	 DWORD PTR $T3[ebp]
  0003e	e8 00 00 00 00	 call	 ??$_Allocate@$07U_Default_allocate_traits@std@@$0A@@std@@YAPAXI@Z ; std::_Allocate<8,std::_Default_allocate_traits,0>
  00043	59		 pop	 ecx
  00044	89 45 f0	 mov	 DWORD PTR $T2[ebp], eax

; 1053 :         _Ptr = _Al.allocate(1);

  00047	8b 45 f8	 mov	 eax, DWORD PTR _this$[ebp]
  0004a	8b 4d f0	 mov	 ecx, DWORD PTR $T2[ebp]
  0004d	89 48 04	 mov	 DWORD PTR [eax+4], ecx
$LN9@Allocate:

; 1054 :     }

  00050	c9		 leave
  00051	c3		 ret	 0
?_Allocate@?$_Alloc_construct_ptr@V?$allocator@U?$_Tree_node@U?$pair@$$CBEPBUSGuildMarkBlock@@@std@@PAX@std@@@std@@@std@@QAEXXZ ENDP ; std::_Alloc_construct_ptr<std::allocator<std::_Tree_node<std::pair<unsigned char const ,SGuildMarkBlock const *>,void *> > >::_Allocate
_TEXT	ENDS
; Function compile flags: /Odspy
; File C:\Program Files (x86)\Microsoft Visual Studio\2019\Community\VC\Tools\MSVC\14.28.29333\include\xtree
; File C:\Program Files (x86)\Microsoft Visual Studio\2019\Community\VC\Tools\MSVC\14.28.29333\include\xstddef
; File C:\Program Files (x86)\Microsoft Visual Studio\2019\Community\VC\Tools\MSVC\14.28.29333\include\xtree
; File C:\Program Files (x86)\Microsoft Visual Studio\2019\Community\VC\Tools\MSVC\14.28.29333\include\xmemory
; File C:\Program Files (x86)\Microsoft Visual Studio\2019\Community\VC\Tools\MSVC\14.28.29333\include\xtree
; File C:\Program Files (x86)\Microsoft Visual Studio\2019\Community\VC\Tools\MSVC\14.28.29333\include\xstddef
; File C:\Program Files (x86)\Microsoft Visual Studio\2019\Community\VC\Tools\MSVC\14.28.29333\include\xtree
;	COMDAT ??$_Find_lower_bound@E@?$_Tree@V?$_Tmap_traits@EPBUSGuildMarkBlock@@U?$less@E@std@@V?$allocator@U?$pair@$$CBEPBUSGuildMarkBlock@@@std@@@3@$0A@@std@@@std@@IBE?AU?$_Tree_find_result@PAU?$_Tree_node@U?$pair@$$CBEPBUSGuildMarkBlock@@@std@@PAX@std@@@1@ABE@Z
_TEXT	SEGMENT
__Result$ = -40						; size = 12
$T1 = -28						; size = 4
$T2 = -24						; size = 4
$T3 = -20						; size = 4
tv95 = -16						; size = 4
_this$ = -12						; size = 4
__Scary$ = -8						; size = 4
__Trynode$ = -4						; size = 4
___$ReturnUdt$ = 8					; size = 4
__Keyval$ = 12						; size = 4
??$_Find_lower_bound@E@?$_Tree@V?$_Tmap_traits@EPBUSGuildMarkBlock@@U?$less@E@std@@V?$allocator@U?$pair@$$CBEPBUSGuildMarkBlock@@@std@@@3@$0A@@std@@@std@@IBE?AU?$_Tree_find_result@PAU?$_Tree_node@U?$pair@$$CBEPBUSGuildMarkBlock@@@std@@PAX@std@@@1@ABE@Z PROC ; std::_Tree<std::_Tmap_traits<unsigned char,SGuildMarkBlock const *,std::less<unsigned char>,std::allocator<std::pair<unsigned char const ,SGuildMarkBlock const *> >,0> >::_Find_lower_bound<unsigned char>, COMDAT
; _this$ = ecx

; 1699 :     _Tree_find_result<_Nodeptr> _Find_lower_bound(const _Keyty& _Keyval) const {

  00000	55		 push	 ebp
  00001	8b ec		 mov	 ebp, esp
  00003	83 ec 28	 sub	 esp, 40			; 00000028H
  00006	56		 push	 esi
  00007	57		 push	 edi
  00008	89 4d f4	 mov	 DWORD PTR _this$[ebp], ecx

; 2051 :         return _STD addressof(_Mypair._Myval2._Myval2);

  0000b	8b 45 f4	 mov	 eax, DWORD PTR _this$[ebp]
; File C:\Program Files (x86)\Microsoft Visual Studio\2019\Community\VC\Tools\MSVC\14.28.29333\include\xstddef

; 275  :     return __builtin_addressof(_Val);

  0000e	89 45 ec	 mov	 DWORD PTR $T3[ebp], eax
; File C:\Program Files (x86)\Microsoft Visual Studio\2019\Community\VC\Tools\MSVC\14.28.29333\include\xtree

; 2051 :         return _STD addressof(_Mypair._Myval2._Myval2);

  00011	8b 45 ec	 mov	 eax, DWORD PTR $T3[ebp]
  00014	89 45 f8	 mov	 DWORD PTR __Scary$[ebp], eax

; 1700 :         const auto _Scary = _Get_scary();
; 1701 :         _Tree_find_result<_Nodeptr> _Result{{_Scary->_Myhead->_Parent, _Tree_child::_Right}, _Scary->_Myhead};

  00017	8b 45 f8	 mov	 eax, DWORD PTR __Scary$[ebp]
  0001a	8b 00		 mov	 eax, DWORD PTR [eax]
  0001c	8b 40 04	 mov	 eax, DWORD PTR [eax+4]
  0001f	89 45 d8	 mov	 DWORD PTR __Result$[ebp], eax
  00022	83 65 dc 00	 and	 DWORD PTR __Result$[ebp+4], 0
  00026	8b 45 f8	 mov	 eax, DWORD PTR __Scary$[ebp]
  00029	8b 00		 mov	 eax, DWORD PTR [eax]
  0002b	89 45 e0	 mov	 DWORD PTR __Result$[ebp+8], eax

; 1702 :         _Nodeptr _Trynode = _Result._Location._Parent;

  0002e	8b 45 d8	 mov	 eax, DWORD PTR __Result$[ebp]
  00031	89 45 fc	 mov	 DWORD PTR __Trynode$[ebp], eax
$LN2@Find_lower:

; 1703 :         while (!_Trynode->_Isnil) {

  00034	8b 45 fc	 mov	 eax, DWORD PTR __Trynode$[ebp]
  00037	0f be 40 0d	 movsx	 eax, BYTE PTR [eax+13]
  0003b	85 c0		 test	 eax, eax
  0003d	75 5e		 jne	 SHORT $LN3@Find_lower

; 1704 :             _Result._Location._Parent = _Trynode;

  0003f	8b 45 fc	 mov	 eax, DWORD PTR __Trynode$[ebp]
  00042	89 45 d8	 mov	 DWORD PTR __Result$[ebp], eax

; 2035 :         return _Mypair._Get_first();

  00045	8b 45 f4	 mov	 eax, DWORD PTR _this$[ebp]
; File C:\Program Files (x86)\Microsoft Visual Studio\2019\Community\VC\Tools\MSVC\14.28.29333\include\xmemory

; 1351 :         return *this;

  00048	89 45 e8	 mov	 DWORD PTR $T2[ebp], eax
; File C:\Program Files (x86)\Microsoft Visual Studio\2019\Community\VC\Tools\MSVC\14.28.29333\include\xtree

; 2035 :         return _Mypair._Get_first();

  0004b	8b 45 e8	 mov	 eax, DWORD PTR $T2[ebp]
  0004e	89 45 e4	 mov	 DWORD PTR $T1[ebp], eax
; File C:\Program Files (x86)\Microsoft Visual Studio\2019\Community\VC\Tools\MSVC\14.28.29333\include\xstddef

; 127  :         return _Left < _Right;

  00051	8b 45 fc	 mov	 eax, DWORD PTR __Trynode$[ebp]
  00054	0f b6 40 10	 movzx	 eax, BYTE PTR [eax+16]
  00058	8b 4d 0c	 mov	 ecx, DWORD PTR __Keyval$[ebp]
  0005b	0f b6 09	 movzx	 ecx, BYTE PTR [ecx]
  0005e	3b c1		 cmp	 eax, ecx
  00060	7d 09		 jge	 SHORT $LN23@Find_lower
  00062	c7 45 f0 01 00
	00 00		 mov	 DWORD PTR tv95[ebp], 1
  00069	eb 04		 jmp	 SHORT $LN21@Find_lower
$LN23@Find_lower:
  0006b	83 65 f0 00	 and	 DWORD PTR tv95[ebp], 0
$LN21@Find_lower:
; File C:\Program Files (x86)\Microsoft Visual Studio\2019\Community\VC\Tools\MSVC\14.28.29333\include\xtree

; 1705 :             if (_DEBUG_LT_PRED(_Getcomp(), _Traits::_Kfn(_Trynode->_Myval), _Keyval)) {

  0006f	0f b6 45 f0	 movzx	 eax, BYTE PTR tv95[ebp]
  00073	85 c0		 test	 eax, eax
  00075	74 0f		 je	 SHORT $LN4@Find_lower

; 1706 :                 _Result._Location._Child = _Tree_child::_Right;

  00077	83 65 dc 00	 and	 DWORD PTR __Result$[ebp+4], 0

; 1707 :                 _Trynode                 = _Trynode->_Right;

  0007b	8b 45 fc	 mov	 eax, DWORD PTR __Trynode$[ebp]
  0007e	8b 40 08	 mov	 eax, DWORD PTR [eax+8]
  00081	89 45 fc	 mov	 DWORD PTR __Trynode$[ebp], eax

; 1708 :             } else {

  00084	eb 15		 jmp	 SHORT $LN5@Find_lower
$LN4@Find_lower:

; 1709 :                 _Result._Location._Child = _Tree_child::_Left;

  00086	c7 45 dc 01 00
	00 00		 mov	 DWORD PTR __Result$[ebp+4], 1

; 1710 :                 _Result._Bound           = _Trynode;

  0008d	8b 45 fc	 mov	 eax, DWORD PTR __Trynode$[ebp]
  00090	89 45 e0	 mov	 DWORD PTR __Result$[ebp+8], eax

; 1711 :                 _Trynode                 = _Trynode->_Left;

  00093	8b 45 fc	 mov	 eax, DWORD PTR __Trynode$[ebp]
  00096	8b 00		 mov	 eax, DWORD PTR [eax]
  00098	89 45 fc	 mov	 DWORD PTR __Trynode$[ebp], eax
$LN5@Find_lower:

; 1712 :             }
; 1713 :         }

  0009b	eb 97		 jmp	 SHORT $LN2@Find_lower
$LN3@Find_lower:

; 1714 : 
; 1715 :         return _Result;

  0009d	8d 75 d8	 lea	 esi, DWORD PTR __Result$[ebp]
  000a0	8b 7d 08	 mov	 edi, DWORD PTR ___$ReturnUdt$[ebp]
  000a3	a5		 movsd
  000a4	a5		 movsd
  000a5	a5		 movsd
  000a6	8b 45 08	 mov	 eax, DWORD PTR ___$ReturnUdt$[ebp]

; 1716 :     }

  000a9	5f		 pop	 edi
  000aa	5e		 pop	 esi
  000ab	c9		 leave
  000ac	c2 08 00	 ret	 8
??$_Find_lower_bound@E@?$_Tree@V?$_Tmap_traits@EPBUSGuildMarkBlock@@U?$less@E@std@@V?$allocator@U?$pair@$$CBEPBUSGuildMarkBlock@@@std@@@3@$0A@@std@@@std@@IBE?AU?$_Tree_find_result@PAU?$_Tree_node@U?$pair@$$CBEPBUSGuildMarkBlock@@@std@@PAX@std@@@1@ABE@Z ENDP ; std::_Tree<std::_Tmap_traits<unsigned char,SGuildMarkBlock const *,std::less<unsigned char>,std::allocator<std::pair<unsigned char const ,SGuildMarkBlock const *> >,0> >::_Find_lower_bound<unsigned char>
_TEXT	ENDS
; Function compile flags: /Odspy
; File C:\Program Files (x86)\Microsoft Visual Studio\2019\Community\VC\Tools\MSVC\14.28.29333\include\xtree
; File C:\Program Files (x86)\Microsoft Visual Studio\2019\Community\VC\Tools\MSVC\14.28.29333\include\xstddef
; File C:\Program Files (x86)\Microsoft Visual Studio\2019\Community\VC\Tools\MSVC\14.28.29333\include\xtree
; File C:\Program Files (x86)\Microsoft Visual Studio\2019\Community\VC\Tools\MSVC\14.28.29333\include\xmemory
; File C:\Program Files (x86)\Microsoft Visual Studio\2019\Community\VC\Tools\MSVC\14.28.29333\include\xtree
; File C:\Program Files (x86)\Microsoft Visual Studio\2019\Community\VC\Tools\MSVC\14.28.29333\include\xmemory
; File C:\Program Files (x86)\Microsoft Visual Studio\2019\Community\VC\Tools\MSVC\14.28.29333\include\xtree
; File C:\Program Files (x86)\Microsoft Visual Studio\2019\Community\VC\Tools\MSVC\14.28.29333\include\xstddef
; File C:\Program Files (x86)\Microsoft Visual Studio\2019\Community\VC\Tools\MSVC\14.28.29333\include\xtree
; File C:\Program Files (x86)\Microsoft Visual Studio\2019\Community\VC\Tools\MSVC\14.28.29333\include\type_traits
; File C:\Program Files (x86)\Microsoft Visual Studio\2019\Community\VC\Tools\MSVC\14.28.29333\include\utility
; File C:\Program Files (x86)\Microsoft Visual Studio\2019\Community\VC\Tools\MSVC\14.28.29333\include\type_traits
; File C:\Program Files (x86)\Microsoft Visual Studio\2019\Community\VC\Tools\MSVC\14.28.29333\include\utility
; File C:\Program Files (x86)\Microsoft Visual Studio\2019\Community\VC\Tools\MSVC\14.28.29333\include\xtree
; File C:\Program Files (x86)\Microsoft Visual Studio\2019\Community\VC\Tools\MSVC\14.28.29333\include\type_traits
; File C:\Program Files (x86)\Microsoft Visual Studio\2019\Community\VC\Tools\MSVC\14.28.29333\include\xtree
; File C:\Program Files (x86)\Microsoft Visual Studio\2019\Community\VC\Tools\MSVC\14.28.29333\include\xmemory
; File C:\Program Files (x86)\Microsoft Visual Studio\2019\Community\VC\Tools\MSVC\14.28.29333\include\xtree
; File C:\Program Files (x86)\Microsoft Visual Studio\2019\Community\VC\Tools\MSVC\14.28.29333\include\xmemory
; File C:\Program Files (x86)\Microsoft Visual Studio\2019\Community\VC\Tools\MSVC\14.28.29333\include\utility
; File C:\Program Files (x86)\Microsoft Visual Studio\2019\Community\VC\Tools\MSVC\14.28.29333\include\xmemory
; File C:\Program Files (x86)\Microsoft Visual Studio\2019\Community\VC\Tools\MSVC\14.28.29333\include\xtree
; File C:\Program Files (x86)\Microsoft Visual Studio\2019\Community\VC\Tools\MSVC\14.28.29333\include\type_traits
; File C:\Program Files (x86)\Microsoft Visual Studio\2019\Community\VC\Tools\MSVC\14.28.29333\include\utility
; File C:\Program Files (x86)\Microsoft Visual Studio\2019\Community\VC\Tools\MSVC\14.28.29333\include\type_traits
; File C:\Program Files (x86)\Microsoft Visual Studio\2019\Community\VC\Tools\MSVC\14.28.29333\include\utility
; File C:\Program Files (x86)\Microsoft Visual Studio\2019\Community\VC\Tools\MSVC\14.28.29333\include\xtree
;	COMDAT ??$_Emplace@U?$pair@$$CBEPBUSGuildMarkBlock@@@std@@@?$_Tree@V?$_Tmap_traits@EPBUSGuildMarkBlock@@U?$less@E@std@@V?$allocator@U?$pair@$$CBEPBUSGuildMarkBlock@@@std@@@3@$0A@@std@@@std@@IAE?AU?$pair@PAU?$_Tree_node@U?$pair@$$CBEPBUSGuildMarkBlock@@@std@@PAX@std@@_N@1@$$QAU?$pair@$$CBEPBUSGuildMarkBlock@@@1@@Z
_TEXT	SEGMENT
$T1 = -128						; size = 12
$T2 = -116						; size = 8
$T3 = -108						; size = 4
__Loc$ = -104						; size = 12
$T4 = -92						; size = 4
$T5 = -88						; size = 4
$T6 = -84						; size = 4
__Inserted$ = -80					; size = 4
$T7 = -76						; size = 4
__Old_val$8 = -72					; size = 4
$T9 = -68						; size = 4
$T10 = -64						; size = 4
$T11 = -60						; size = 4
$T12 = -56						; size = 4
$T13 = -52						; size = 4
$T14 = -48						; size = 4
$T15 = -44						; size = 4
$T16 = -40						; size = 4
$T17 = -36						; size = 4
__Scary$ = -32						; size = 4
__Val$ = -28						; size = 4
tv149 = -24						; size = 4
tv177 = -20						; size = 4
__Bound$ = -16						; size = 4
__Keyval$18 = -12					; size = 4
_this$ = -8						; size = 4
$T19 = -2						; size = 1
$T20 = -1						; size = 1
___$ReturnUdt$ = 8					; size = 4
_<_Vals_0>$ = 12					; size = 4
??$_Emplace@U?$pair@$$CBEPBUSGuildMarkBlock@@@std@@@?$_Tree@V?$_Tmap_traits@EPBUSGuildMarkBlock@@U?$less@E@std@@V?$allocator@U?$pair@$$CBEPBUSGuildMarkBlock@@@std@@@3@$0A@@std@@@std@@IAE?AU?$pair@PAU?$_Tree_node@U?$pair@$$CBEPBUSGuildMarkBlock@@@std@@PAX@std@@_N@1@$$QAU?$pair@$$CBEPBUSGuildMarkBlock@@@1@@Z PROC ; std::_Tree<std::_Tmap_traits<unsigned char,SGuildMarkBlock const *,std::less<unsigned char>,std::allocator<std::pair<unsigned char const ,SGuildMarkBlock const *> >,0> >::_Emplace<std::pair<unsigned char const ,SGuildMarkBlock const *> >, COMDAT
; _this$ = ecx

; 1002 :     pair<_Nodeptr, bool> _Emplace(_Valtys&&... _Vals) {

  00000	55		 push	 ebp
  00001	8b ec		 mov	 ebp, esp
  00003	81 ec 80 00 00
	00		 sub	 esp, 128		; 00000080H
  00009	56		 push	 esi
  0000a	57		 push	 edi
  0000b	89 4d f8	 mov	 DWORD PTR _this$[ebp], ecx

; 2047 :         return _STD addressof(_Mypair._Myval2._Myval2);

  0000e	8b 45 f8	 mov	 eax, DWORD PTR _this$[ebp]
; File C:\Program Files (x86)\Microsoft Visual Studio\2019\Community\VC\Tools\MSVC\14.28.29333\include\xstddef

; 275  :     return __builtin_addressof(_Val);

  00011	89 45 dc	 mov	 DWORD PTR $T17[ebp], eax
; File C:\Program Files (x86)\Microsoft Visual Studio\2019\Community\VC\Tools\MSVC\14.28.29333\include\xtree

; 2047 :         return _STD addressof(_Mypair._Myval2._Myval2);

  00014	8b 45 dc	 mov	 eax, DWORD PTR $T17[ebp]
  00017	89 45 e0	 mov	 DWORD PTR __Scary$[ebp], eax
; File C:\Program Files (x86)\Microsoft Visual Studio\2019\Community\VC\Tools\MSVC\14.28.29333\include\xmemory

; 2000 :         return _Val.first;

  0001a	8b 45 0c	 mov	 eax, DWORD PTR _<_Vals_0>$[ebp]
; File C:\Program Files (x86)\Microsoft Visual Studio\2019\Community\VC\Tools\MSVC\14.28.29333\include\xtree

; 1008 :             const auto& _Keyval = _In_place_key_extractor::_Extract(_Vals...);

  0001d	89 45 f4	 mov	 DWORD PTR __Keyval$18[ebp], eax

; 1009 :             _Loc                = _Find_lower_bound(_Keyval);

  00020	ff 75 f4	 push	 DWORD PTR __Keyval$18[ebp]
  00023	8d 45 80	 lea	 eax, DWORD PTR $T1[ebp]
  00026	50		 push	 eax
  00027	8b 4d f8	 mov	 ecx, DWORD PTR _this$[ebp]
  0002a	e8 00 00 00 00	 call	 ??$_Find_lower_bound@E@?$_Tree@V?$_Tmap_traits@EPBUSGuildMarkBlock@@U?$less@E@std@@V?$allocator@U?$pair@$$CBEPBUSGuildMarkBlock@@@std@@@3@$0A@@std@@@std@@IBE?AU?$_Tree_find_result@PAU?$_Tree_node@U?$pair@$$CBEPBUSGuildMarkBlock@@@std@@PAX@std@@@1@ABE@Z ; std::_Tree<std::_Tmap_traits<unsigned char,SGuildMarkBlock const *,std::less<unsigned char>,std::allocator<std::pair<unsigned char const ,SGuildMarkBlock const *> >,0> >::_Find_lower_bound<unsigned char>
  0002f	8b f0		 mov	 esi, eax
  00031	8d 7d 98	 lea	 edi, DWORD PTR __Loc$[ebp]
  00034	a5		 movsd
  00035	a5		 movsd
  00036	a5		 movsd

; 1010 :             if (_Lower_bound_duplicate(_Loc._Bound, _Keyval)) {

  00037	8b 45 a0	 mov	 eax, DWORD PTR __Loc$[ebp+8]
  0003a	89 45 f0	 mov	 DWORD PTR __Bound$[ebp], eax

; 1695 :         return !_Bound->_Isnil && !_DEBUG_LT_PRED(_Getcomp(), _Keyval, _Traits::_Kfn(_Bound->_Myval));

  0003d	8b 45 f0	 mov	 eax, DWORD PTR __Bound$[ebp]
  00040	0f be 40 0d	 movsx	 eax, BYTE PTR [eax+13]
  00044	85 c0		 test	 eax, eax
  00046	75 3b		 jne	 SHORT $LN39@Emplace

; 2035 :         return _Mypair._Get_first();

  00048	8b 45 f8	 mov	 eax, DWORD PTR _this$[ebp]
; File C:\Program Files (x86)\Microsoft Visual Studio\2019\Community\VC\Tools\MSVC\14.28.29333\include\xmemory

; 1351 :         return *this;

  0004b	89 45 d8	 mov	 DWORD PTR $T16[ebp], eax
; File C:\Program Files (x86)\Microsoft Visual Studio\2019\Community\VC\Tools\MSVC\14.28.29333\include\xtree

; 2035 :         return _Mypair._Get_first();

  0004e	8b 45 d8	 mov	 eax, DWORD PTR $T16[ebp]
  00051	89 45 94	 mov	 DWORD PTR $T3[ebp], eax
; File C:\Program Files (x86)\Microsoft Visual Studio\2019\Community\VC\Tools\MSVC\14.28.29333\include\xstddef

; 127  :         return _Left < _Right;

  00054	8b 45 f4	 mov	 eax, DWORD PTR __Keyval$18[ebp]
  00057	0f b6 00	 movzx	 eax, BYTE PTR [eax]
  0005a	8b 4d f0	 mov	 ecx, DWORD PTR __Bound$[ebp]
  0005d	0f b6 49 10	 movzx	 ecx, BYTE PTR [ecx+16]
  00061	3b c1		 cmp	 eax, ecx
  00063	7d 09		 jge	 SHORT $LN51@Emplace
  00065	c7 45 ec 01 00
	00 00		 mov	 DWORD PTR tv177[ebp], 1
  0006c	eb 04		 jmp	 SHORT $LN49@Emplace
$LN51@Emplace:
  0006e	83 65 ec 00	 and	 DWORD PTR tv177[ebp], 0
$LN49@Emplace:
; File C:\Program Files (x86)\Microsoft Visual Studio\2019\Community\VC\Tools\MSVC\14.28.29333\include\xtree

; 1695 :         return !_Bound->_Isnil && !_DEBUG_LT_PRED(_Getcomp(), _Keyval, _Traits::_Kfn(_Bound->_Myval));

  00072	0f b6 45 ec	 movzx	 eax, BYTE PTR tv177[ebp]
  00076	85 c0		 test	 eax, eax
  00078	75 09		 jne	 SHORT $LN39@Emplace
  0007a	c7 45 e8 01 00
	00 00		 mov	 DWORD PTR tv149[ebp], 1
  00081	eb 04		 jmp	 SHORT $LN37@Emplace
$LN39@Emplace:
  00083	83 65 e8 00	 and	 DWORD PTR tv149[ebp], 0
$LN37@Emplace:

; 1010 :             if (_Lower_bound_duplicate(_Loc._Bound, _Keyval)) {

  00087	0f b6 45 e8	 movzx	 eax, BYTE PTR tv149[ebp]
  0008b	85 c0		 test	 eax, eax
  0008d	74 2d		 je	 SHORT $LN2@Emplace

; 1011 :                 return {_Loc._Bound, false};

  0008f	c6 45 ff 00	 mov	 BYTE PTR $T20[ebp], 0
; File C:\Program Files (x86)\Microsoft Visual Studio\2019\Community\VC\Tools\MSVC\14.28.29333\include\type_traits

; 1443 :     return static_cast<_Ty&&>(_Arg);

  00093	8d 45 a0	 lea	 eax, DWORD PTR __Loc$[ebp+8]
  00096	89 45 d4	 mov	 DWORD PTR $T15[ebp], eax
; File C:\Program Files (x86)\Microsoft Visual Studio\2019\Community\VC\Tools\MSVC\14.28.29333\include\utility

; 190  :         : first(_STD forward<_Other1>(_Val1)), second(_STD forward<_Other2>(_Val2)) {}

  00099	8b 45 08	 mov	 eax, DWORD PTR ___$ReturnUdt$[ebp]
  0009c	8b 4d d4	 mov	 ecx, DWORD PTR $T15[ebp]
  0009f	8b 09		 mov	 ecx, DWORD PTR [ecx]
  000a1	89 08		 mov	 DWORD PTR [eax], ecx
; File C:\Program Files (x86)\Microsoft Visual Studio\2019\Community\VC\Tools\MSVC\14.28.29333\include\type_traits

; 1443 :     return static_cast<_Ty&&>(_Arg);

  000a3	8d 45 ff	 lea	 eax, DWORD PTR $T20[ebp]
  000a6	89 45 d0	 mov	 DWORD PTR $T14[ebp], eax
; File C:\Program Files (x86)\Microsoft Visual Studio\2019\Community\VC\Tools\MSVC\14.28.29333\include\utility

; 190  :         : first(_STD forward<_Other1>(_Val1)), second(_STD forward<_Other2>(_Val2)) {}

  000a9	8b 45 08	 mov	 eax, DWORD PTR ___$ReturnUdt$[ebp]
  000ac	8b 4d d0	 mov	 ecx, DWORD PTR $T14[ebp]
  000af	8a 09		 mov	 cl, BYTE PTR [ecx]
  000b1	88 48 04	 mov	 BYTE PTR [eax+4], cl
; File C:\Program Files (x86)\Microsoft Visual Studio\2019\Community\VC\Tools\MSVC\14.28.29333\include\xtree

; 1011 :                 return {_Loc._Bound, false};

  000b4	8b 45 08	 mov	 eax, DWORD PTR ___$ReturnUdt$[ebp]
  000b7	e9 9d 00 00 00	 jmp	 $LN1@Emplace
$LN2@Emplace:

; 1012 :             }
; 1013 : 
; 1014 :             _Check_grow_by_1();

  000bc	8b 4d f8	 mov	 ecx, DWORD PTR _this$[ebp]
  000bf	e8 00 00 00 00	 call	 ?_Check_grow_by_1@?$_Tree@V?$_Tmap_traits@EPBUSGuildMarkBlock@@U?$less@E@std@@V?$allocator@U?$pair@$$CBEPBUSGuildMarkBlock@@@std@@@3@$0A@@std@@@std@@IAEXXZ ; std::_Tree<std::_Tmap_traits<unsigned char,SGuildMarkBlock const *,std::less<unsigned char>,std::allocator<std::pair<unsigned char const ,SGuildMarkBlock const *> >,0> >::_Check_grow_by_1
; File C:\Program Files (x86)\Microsoft Visual Studio\2019\Community\VC\Tools\MSVC\14.28.29333\include\type_traits

; 1443 :     return static_cast<_Ty&&>(_Arg);

  000c4	8b 45 0c	 mov	 eax, DWORD PTR _<_Vals_0>$[ebp]
  000c7	89 45 c8	 mov	 DWORD PTR $T12[ebp], eax
; File C:\Program Files (x86)\Microsoft Visual Studio\2019\Community\VC\Tools\MSVC\14.28.29333\include\xtree

; 2039 :         return _Mypair._Myval2._Get_first();

  000ca	8b 45 f8	 mov	 eax, DWORD PTR _this$[ebp]
; File C:\Program Files (x86)\Microsoft Visual Studio\2019\Community\VC\Tools\MSVC\14.28.29333\include\xmemory

; 1347 :         return *this;

  000cd	89 45 cc	 mov	 DWORD PTR $T13[ebp], eax
; File C:\Program Files (x86)\Microsoft Visual Studio\2019\Community\VC\Tools\MSVC\14.28.29333\include\xtree

; 2039 :         return _Mypair._Myval2._Get_first();

  000d0	8b 45 cc	 mov	 eax, DWORD PTR $T13[ebp]
  000d3	89 45 c4	 mov	 DWORD PTR $T11[ebp], eax

; 1015 :             _Inserted = _Tree_temp_node<_Alnode>(_Getal(), _Scary->_Myhead, _STD forward<_Valtys>(_Vals)...)._Release();

  000d6	ff 75 c8	 push	 DWORD PTR $T12[ebp]
  000d9	8b 45 e0	 mov	 eax, DWORD PTR __Scary$[ebp]
  000dc	ff 30		 push	 DWORD PTR [eax]
  000de	ff 75 c4	 push	 DWORD PTR $T11[ebp]
  000e1	8d 4d 8c	 lea	 ecx, DWORD PTR $T2[ebp]
  000e4	e8 00 00 00 00	 call	 ??$?0U?$pair@$$CBEPBUSGuildMarkBlock@@@std@@@?$_Tree_temp_node@V?$allocator@U?$_Tree_node@U?$pair@$$CBEPBUSGuildMarkBlock@@@std@@PAX@std@@@std@@@std@@QAE@AAV?$allocator@U?$_Tree_node@U?$pair@$$CBEPBUSGuildMarkBlock@@@std@@PAX@std@@@1@PAU?$_Tree_node@U?$pair@$$CBEPBUSGuildMarkBlock@@@std@@PAX@1@$$QAU?$pair@$$CBEPBUSGuildMarkBlock@@@1@@Z ; std::_Tree_temp_node<std::allocator<std::_Tree_node<std::pair<unsigned char const ,SGuildMarkBlock const *>,void *> > >::_Tree_temp_node<std::allocator<std::_Tree_node<std::pair<unsigned char const ,SGuildMarkBlock const *>,void *> > ><std::pair<unsigned char const ,SGuildMarkBlock const *> >
  000e9	89 45 c0	 mov	 DWORD PTR $T10[ebp], eax
; File C:\Program Files (x86)\Microsoft Visual Studio\2019\Community\VC\Tools\MSVC\14.28.29333\include\xmemory

; 1048 :         return _STD exchange(_Ptr, nullptr);

  000ec	83 65 bc 00	 and	 DWORD PTR $T9[ebp], 0
  000f0	8b 45 c0	 mov	 eax, DWORD PTR $T10[ebp]
  000f3	83 c0 04	 add	 eax, 4
  000f6	89 45 e4	 mov	 DWORD PTR __Val$[ebp], eax
; File C:\Program Files (x86)\Microsoft Visual Studio\2019\Community\VC\Tools\MSVC\14.28.29333\include\utility

; 598  :     _Ty _Old_val = static_cast<_Ty&&>(_Val);

  000f9	8b 45 e4	 mov	 eax, DWORD PTR __Val$[ebp]
  000fc	8b 00		 mov	 eax, DWORD PTR [eax]
  000fe	89 45 b8	 mov	 DWORD PTR __Old_val$8[ebp], eax

; 599  :     _Val         = static_cast<_Other&&>(_New_val);

  00101	8b 45 e4	 mov	 eax, DWORD PTR __Val$[ebp]
  00104	8b 4d bc	 mov	 ecx, DWORD PTR $T9[ebp]
  00107	89 08		 mov	 DWORD PTR [eax], ecx

; 600  :     return _Old_val;

  00109	8b 45 b8	 mov	 eax, DWORD PTR __Old_val$8[ebp]
  0010c	89 45 b4	 mov	 DWORD PTR $T7[ebp], eax
; File C:\Program Files (x86)\Microsoft Visual Studio\2019\Community\VC\Tools\MSVC\14.28.29333\include\xmemory

; 1048 :         return _STD exchange(_Ptr, nullptr);

  0010f	8b 45 b4	 mov	 eax, DWORD PTR $T7[ebp]
  00112	89 45 b0	 mov	 DWORD PTR __Inserted$[ebp], eax
; File C:\Program Files (x86)\Microsoft Visual Studio\2019\Community\VC\Tools\MSVC\14.28.29333\include\xtree

; 1015 :             _Inserted = _Tree_temp_node<_Alnode>(_Getal(), _Scary->_Myhead, _STD forward<_Valtys>(_Vals)...)._Release();

  00115	8d 4d 8c	 lea	 ecx, DWORD PTR $T2[ebp]
  00118	e8 00 00 00 00	 call	 ??1?$_Tree_temp_node@V?$allocator@U?$_Tree_node@U?$pair@$$CBEPBUSGuildMarkBlock@@@std@@PAX@std@@@std@@@std@@QAE@XZ ; std::_Tree_temp_node<std::allocator<std::_Tree_node<std::pair<unsigned char const ,SGuildMarkBlock const *>,void *> > >::~_Tree_temp_node<std::allocator<std::_Tree_node<std::pair<unsigned char const ,SGuildMarkBlock const *>,void *> > >

; 1034 :         return {_Scary->_Insert_node(_Loc._Location, _Inserted), true};

  0011d	ff 75 b0	 push	 DWORD PTR __Inserted$[ebp]
  00120	ff 75 9c	 push	 DWORD PTR __Loc$[ebp+4]
  00123	ff 75 98	 push	 DWORD PTR __Loc$[ebp]
  00126	8b 4d e0	 mov	 ecx, DWORD PTR __Scary$[ebp]
  00129	e8 00 00 00 00	 call	 ?_Insert_node@?$_Tree_val@U?$_Tree_simple_types@U?$pair@$$CBEPBUSGuildMarkBlock@@@std@@@std@@@std@@QAEPAU?$_Tree_node@U?$pair@$$CBEPBUSGuildMarkBlock@@@std@@PAX@2@U?$_Tree_id@PAU?$_Tree_node@U?$pair@$$CBEPBUSGuildMarkBlock@@@std@@PAX@std@@@2@QAU32@@Z ; std::_Tree_val<std::_Tree_simple_types<std::pair<unsigned char const ,SGuildMarkBlock const *> > >::_Insert_node
  0012e	89 45 ac	 mov	 DWORD PTR $T6[ebp], eax
  00131	c6 45 fe 01	 mov	 BYTE PTR $T19[ebp], 1
; File C:\Program Files (x86)\Microsoft Visual Studio\2019\Community\VC\Tools\MSVC\14.28.29333\include\type_traits

; 1443 :     return static_cast<_Ty&&>(_Arg);

  00135	8d 45 ac	 lea	 eax, DWORD PTR $T6[ebp]
  00138	89 45 a8	 mov	 DWORD PTR $T5[ebp], eax
; File C:\Program Files (x86)\Microsoft Visual Studio\2019\Community\VC\Tools\MSVC\14.28.29333\include\utility

; 190  :         : first(_STD forward<_Other1>(_Val1)), second(_STD forward<_Other2>(_Val2)) {}

  0013b	8b 45 08	 mov	 eax, DWORD PTR ___$ReturnUdt$[ebp]
  0013e	8b 4d a8	 mov	 ecx, DWORD PTR $T5[ebp]
  00141	8b 09		 mov	 ecx, DWORD PTR [ecx]
  00143	89 08		 mov	 DWORD PTR [eax], ecx
; File C:\Program Files (x86)\Microsoft Visual Studio\2019\Community\VC\Tools\MSVC\14.28.29333\include\type_traits

; 1443 :     return static_cast<_Ty&&>(_Arg);

  00145	8d 45 fe	 lea	 eax, DWORD PTR $T19[ebp]
  00148	89 45 a4	 mov	 DWORD PTR $T4[ebp], eax
; File C:\Program Files (x86)\Microsoft Visual Studio\2019\Community\VC\Tools\MSVC\14.28.29333\include\utility

; 190  :         : first(_STD forward<_Other1>(_Val1)), second(_STD forward<_Other2>(_Val2)) {}

  0014b	8b 45 08	 mov	 eax, DWORD PTR ___$ReturnUdt$[ebp]
  0014e	8b 4d a4	 mov	 ecx, DWORD PTR $T4[ebp]
  00151	8a 09		 mov	 cl, BYTE PTR [ecx]
  00153	88 48 04	 mov	 BYTE PTR [eax+4], cl
; File C:\Program Files (x86)\Microsoft Visual Studio\2019\Community\VC\Tools\MSVC\14.28.29333\include\xtree

; 1034 :         return {_Scary->_Insert_node(_Loc._Location, _Inserted), true};

  00156	8b 45 08	 mov	 eax, DWORD PTR ___$ReturnUdt$[ebp]
$LN1@Emplace:

; 1035 :     }

  00159	5f		 pop	 edi
  0015a	5e		 pop	 esi
  0015b	c9		 leave
  0015c	c2 08 00	 ret	 8
??$_Emplace@U?$pair@$$CBEPBUSGuildMarkBlock@@@std@@@?$_Tree@V?$_Tmap_traits@EPBUSGuildMarkBlock@@U?$less@E@std@@V?$allocator@U?$pair@$$CBEPBUSGuildMarkBlock@@@std@@@3@$0A@@std@@@std@@IAE?AU?$pair@PAU?$_Tree_node@U?$pair@$$CBEPBUSGuildMarkBlock@@@std@@PAX@std@@_N@1@$$QAU?$pair@$$CBEPBUSGuildMarkBlock@@@1@@Z ENDP ; std::_Tree<std::_Tmap_traits<unsigned char,SGuildMarkBlock const *,std::less<unsigned char>,std::allocator<std::pair<unsigned char const ,SGuildMarkBlock const *> >,0> >::_Emplace<std::pair<unsigned char const ,SGuildMarkBlock const *> >
_TEXT	ENDS
; Function compile flags: /Odspy
; File C:\Program Files (x86)\Microsoft Visual Studio\2019\Community\VC\Tools\MSVC\14.28.29333\include\xtree
; File C:\Program Files (x86)\Microsoft Visual Studio\2019\Community\VC\Tools\MSVC\14.28.29333\include\type_traits
; File C:\Program Files (x86)\Microsoft Visual Studio\2019\Community\VC\Tools\MSVC\14.28.29333\include\xtree
; File C:\Program Files (x86)\Microsoft Visual Studio\2019\Community\VC\Tools\MSVC\14.28.29333\include\xstddef
; File C:\Program Files (x86)\Microsoft Visual Studio\2019\Community\VC\Tools\MSVC\14.28.29333\include\xtree
; File C:\Program Files (x86)\Microsoft Visual Studio\2019\Community\VC\Tools\MSVC\14.28.29333\include\type_traits
; File C:\Program Files (x86)\Microsoft Visual Studio\2019\Community\VC\Tools\MSVC\14.28.29333\include\utility
; File C:\Program Files (x86)\Microsoft Visual Studio\2019\Community\VC\Tools\MSVC\14.28.29333\include\type_traits
; File C:\Program Files (x86)\Microsoft Visual Studio\2019\Community\VC\Tools\MSVC\14.28.29333\include\utility
; File C:\Program Files (x86)\Microsoft Visual Studio\2019\Community\VC\Tools\MSVC\14.28.29333\include\xtree
;	COMDAT ??$insert@$0A@$0A@@?$_Tree@V?$_Tmap_traits@EPBUSGuildMarkBlock@@U?$less@E@std@@V?$allocator@U?$pair@$$CBEPBUSGuildMarkBlock@@@std@@@3@$0A@@std@@@std@@QAE?AU?$pair@V?$_Tree_iterator@V?$_Tree_val@U?$_Tree_simple_types@U?$pair@$$CBEPBUSGuildMarkBlock@@@std@@@std@@@std@@@std@@_N@1@$$QAU?$pair@$$CBEPBUSGuildMarkBlock@@@1@@Z
_TEXT	SEGMENT
__Result$ = -40						; size = 8
$T1 = -32						; size = 4
$T2 = -28						; size = 4
$T3 = -24						; size = 4
$T4 = -20						; size = 4
___param0$ = -16					; size = 4
$T5 = -12						; size = 4
$T6 = -8						; size = 4
_this$ = -4						; size = 4
___$ReturnUdt$ = 8					; size = 4
__Val$ = 12						; size = 4
??$insert@$0A@$0A@@?$_Tree@V?$_Tmap_traits@EPBUSGuildMarkBlock@@U?$less@E@std@@V?$allocator@U?$pair@$$CBEPBUSGuildMarkBlock@@@std@@@3@$0A@@std@@@std@@QAE?AU?$pair@V?$_Tree_iterator@V?$_Tree_val@U?$_Tree_simple_types@U?$pair@$$CBEPBUSGuildMarkBlock@@@std@@@std@@@std@@@std@@_N@1@$$QAU?$pair@$$CBEPBUSGuildMarkBlock@@@1@@Z PROC ; std::_Tree<std::_Tmap_traits<unsigned char,SGuildMarkBlock const *,std::less<unsigned char>,std::allocator<std::pair<unsigned char const ,SGuildMarkBlock const *> >,0> >::insert<0,0>, COMDAT
; _this$ = ecx

; 1343 :     pair<iterator, bool> insert(value_type&& _Val) {

  00000	55		 push	 ebp
  00001	8b ec		 mov	 ebp, esp
  00003	83 ec 28	 sub	 esp, 40			; 00000028H
  00006	89 4d fc	 mov	 DWORD PTR _this$[ebp], ecx
; File C:\Program Files (x86)\Microsoft Visual Studio\2019\Community\VC\Tools\MSVC\14.28.29333\include\type_traits

; 1455 :     return static_cast<remove_reference_t<_Ty>&&>(_Arg);

  00009	8b 45 0c	 mov	 eax, DWORD PTR __Val$[ebp]
  0000c	89 45 f8	 mov	 DWORD PTR $T6[ebp], eax
; File C:\Program Files (x86)\Microsoft Visual Studio\2019\Community\VC\Tools\MSVC\14.28.29333\include\xtree

; 1344 :         const auto _Result = _Emplace(_STD move(_Val));

  0000f	ff 75 f8	 push	 DWORD PTR $T6[ebp]
  00012	8d 45 d8	 lea	 eax, DWORD PTR __Result$[ebp]
  00015	50		 push	 eax
  00016	8b 4d fc	 mov	 ecx, DWORD PTR _this$[ebp]
  00019	e8 00 00 00 00	 call	 ??$_Emplace@U?$pair@$$CBEPBUSGuildMarkBlock@@@std@@@?$_Tree@V?$_Tmap_traits@EPBUSGuildMarkBlock@@U?$less@E@std@@V?$allocator@U?$pair@$$CBEPBUSGuildMarkBlock@@@std@@@3@$0A@@std@@@std@@IAE?AU?$pair@PAU?$_Tree_node@U?$pair@$$CBEPBUSGuildMarkBlock@@@std@@PAX@std@@_N@1@$$QAU?$pair@$$CBEPBUSGuildMarkBlock@@@1@@Z ; std::_Tree<std::_Tmap_traits<unsigned char,SGuildMarkBlock const *,std::less<unsigned char>,std::allocator<std::pair<unsigned char const ,SGuildMarkBlock const *> >,0> >::_Emplace<std::pair<unsigned char const ,SGuildMarkBlock const *> >

; 2047 :         return _STD addressof(_Mypair._Myval2._Myval2);

  0001e	8b 45 fc	 mov	 eax, DWORD PTR _this$[ebp]
; File C:\Program Files (x86)\Microsoft Visual Studio\2019\Community\VC\Tools\MSVC\14.28.29333\include\xstddef

; 275  :     return __builtin_addressof(_Val);

  00021	89 45 f4	 mov	 DWORD PTR $T5[ebp], eax
; File C:\Program Files (x86)\Microsoft Visual Studio\2019\Community\VC\Tools\MSVC\14.28.29333\include\xtree

; 2047 :         return _STD addressof(_Mypair._Myval2._Myval2);

  00024	8b 45 f4	 mov	 eax, DWORD PTR $T5[ebp]
  00027	89 45 e0	 mov	 DWORD PTR $T1[ebp], eax

; 1345 :         return {iterator(_Result.first, _Get_scary()), _Result.second};

  0002a	8b 45 d8	 mov	 eax, DWORD PTR __Result$[ebp]
  0002d	89 45 f0	 mov	 DWORD PTR ___param0$[ebp], eax

; 39   :     _Tree_unchecked_const_iterator(_Nodeptr _Pnode, const _Mytree* _Plist) noexcept : _Ptr(_Pnode) {

  00030	8b 45 f0	 mov	 eax, DWORD PTR ___param0$[ebp]
  00033	89 45 ec	 mov	 DWORD PTR $T4[ebp], eax
; File C:\Program Files (x86)\Microsoft Visual Studio\2019\Community\VC\Tools\MSVC\14.28.29333\include\type_traits

; 1443 :     return static_cast<_Ty&&>(_Arg);

  00036	8d 45 ec	 lea	 eax, DWORD PTR $T4[ebp]
  00039	89 45 e8	 mov	 DWORD PTR $T3[ebp], eax
; File C:\Program Files (x86)\Microsoft Visual Studio\2019\Community\VC\Tools\MSVC\14.28.29333\include\utility

; 190  :         : first(_STD forward<_Other1>(_Val1)), second(_STD forward<_Other2>(_Val2)) {}

  0003c	8b 45 e8	 mov	 eax, DWORD PTR $T3[ebp]
  0003f	8b 00		 mov	 eax, DWORD PTR [eax]
  00041	8b 4d 08	 mov	 ecx, DWORD PTR ___$ReturnUdt$[ebp]
  00044	89 01		 mov	 DWORD PTR [ecx], eax
; File C:\Program Files (x86)\Microsoft Visual Studio\2019\Community\VC\Tools\MSVC\14.28.29333\include\type_traits

; 1443 :     return static_cast<_Ty&&>(_Arg);

  00046	8d 45 dc	 lea	 eax, DWORD PTR __Result$[ebp+4]
  00049	89 45 e4	 mov	 DWORD PTR $T2[ebp], eax
; File C:\Program Files (x86)\Microsoft Visual Studio\2019\Community\VC\Tools\MSVC\14.28.29333\include\utility

; 190  :         : first(_STD forward<_Other1>(_Val1)), second(_STD forward<_Other2>(_Val2)) {}

  0004c	8b 45 08	 mov	 eax, DWORD PTR ___$ReturnUdt$[ebp]
  0004f	8b 4d e4	 mov	 ecx, DWORD PTR $T2[ebp]
  00052	8a 09		 mov	 cl, BYTE PTR [ecx]
  00054	88 48 04	 mov	 BYTE PTR [eax+4], cl
; File C:\Program Files (x86)\Microsoft Visual Studio\2019\Community\VC\Tools\MSVC\14.28.29333\include\xtree

; 1345 :         return {iterator(_Result.first, _Get_scary()), _Result.second};

  00057	8b 45 08	 mov	 eax, DWORD PTR ___$ReturnUdt$[ebp]

; 1346 :     }

  0005a	c9		 leave
  0005b	c2 08 00	 ret	 8
??$insert@$0A@$0A@@?$_Tree@V?$_Tmap_traits@EPBUSGuildMarkBlock@@U?$less@E@std@@V?$allocator@U?$pair@$$CBEPBUSGuildMarkBlock@@@std@@@3@$0A@@std@@@std@@QAE?AU?$pair@V?$_Tree_iterator@V?$_Tree_val@U?$_Tree_simple_types@U?$pair@$$CBEPBUSGuildMarkBlock@@@std@@@std@@@std@@@std@@_N@1@$$QAU?$pair@$$CBEPBUSGuildMarkBlock@@@1@@Z ENDP ; std::_Tree<std::_Tmap_traits<unsigned char,SGuildMarkBlock const *,std::less<unsigned char>,std::allocator<std::pair<unsigned char const ,SGuildMarkBlock const *> >,0> >::insert<0,0>
_TEXT	ENDS
; Function compile flags: /Odspy
; File C:\Program Files (x86)\Microsoft Visual Studio\2019\Community\VC\Tools\MSVC\14.28.29333\include\xtree
;	COMDAT ?_Insert_node@?$_Tree_val@U?$_Tree_simple_types@U?$pair@$$CBEPBUSGuildMarkBlock@@@std@@@std@@@std@@QAEPAU?$_Tree_node@U?$pair@$$CBEPBUSGuildMarkBlock@@@std@@PAX@2@U?$_Tree_id@PAU?$_Tree_node@U?$pair@$$CBEPBUSGuildMarkBlock@@@std@@PAX@std@@@2@QAU32@@Z
_TEXT	SEGMENT
__Parent_sibling$1 = -20				; size = 4
__Parent_sibling$2 = -16				; size = 4
_this$ = -12						; size = 4
__Head$ = -8						; size = 4
__Pnode$3 = -4						; size = 4
__Loc$ = 8						; size = 8
__Newnode$ = 16						; size = 4
?_Insert_node@?$_Tree_val@U?$_Tree_simple_types@U?$pair@$$CBEPBUSGuildMarkBlock@@@std@@@std@@@std@@QAEPAU?$_Tree_node@U?$pair@$$CBEPBUSGuildMarkBlock@@@std@@PAX@2@U?$_Tree_id@PAU?$_Tree_node@U?$pair@$$CBEPBUSGuildMarkBlock@@@std@@PAX@std@@@2@QAU32@@Z PROC ; std::_Tree_val<std::_Tree_simple_types<std::pair<unsigned char const ,SGuildMarkBlock const *> > >::_Insert_node, COMDAT
; _this$ = ecx

; 644  :     _Nodeptr _Insert_node(const _Tree_id<_Nodeptr> _Loc, const _Nodeptr _Newnode) noexcept {

  00000	55		 push	 ebp
  00001	8b ec		 mov	 ebp, esp
  00003	83 ec 14	 sub	 esp, 20			; 00000014H
  00006	89 4d f4	 mov	 DWORD PTR _this$[ebp], ecx

; 645  :         ++_Mysize;

  00009	8b 45 f4	 mov	 eax, DWORD PTR _this$[ebp]
  0000c	8b 40 04	 mov	 eax, DWORD PTR [eax+4]
  0000f	40		 inc	 eax
  00010	8b 4d f4	 mov	 ecx, DWORD PTR _this$[ebp]
  00013	89 41 04	 mov	 DWORD PTR [ecx+4], eax

; 646  :         const auto _Head  = _Myhead;

  00016	8b 45 f4	 mov	 eax, DWORD PTR _this$[ebp]
  00019	8b 00		 mov	 eax, DWORD PTR [eax]
  0001b	89 45 f8	 mov	 DWORD PTR __Head$[ebp], eax

; 647  :         _Newnode->_Parent = _Loc._Parent;

  0001e	8b 45 10	 mov	 eax, DWORD PTR __Newnode$[ebp]
  00021	8b 4d 08	 mov	 ecx, DWORD PTR __Loc$[ebp]
  00024	89 48 04	 mov	 DWORD PTR [eax+4], ecx

; 648  :         if (_Loc._Parent == _Head) { // first node in tree, just set head values

  00027	8b 45 08	 mov	 eax, DWORD PTR __Loc$[ebp]
  0002a	3b 45 f8	 cmp	 eax, DWORD PTR __Head$[ebp]
  0002d	75 29		 jne	 SHORT $LN5@Insert_nod

; 649  :             _Head->_Left     = _Newnode;

  0002f	8b 45 f8	 mov	 eax, DWORD PTR __Head$[ebp]
  00032	8b 4d 10	 mov	 ecx, DWORD PTR __Newnode$[ebp]
  00035	89 08		 mov	 DWORD PTR [eax], ecx

; 650  :             _Head->_Parent   = _Newnode;

  00037	8b 45 f8	 mov	 eax, DWORD PTR __Head$[ebp]
  0003a	8b 4d 10	 mov	 ecx, DWORD PTR __Newnode$[ebp]
  0003d	89 48 04	 mov	 DWORD PTR [eax+4], ecx

; 651  :             _Head->_Right    = _Newnode;

  00040	8b 45 f8	 mov	 eax, DWORD PTR __Head$[ebp]
  00043	8b 4d 10	 mov	 ecx, DWORD PTR __Newnode$[ebp]
  00046	89 48 08	 mov	 DWORD PTR [eax+8], ecx

; 652  :             _Newnode->_Color = _Black; // the root is black

  00049	8b 45 10	 mov	 eax, DWORD PTR __Newnode$[ebp]
  0004c	c6 40 0c 01	 mov	 BYTE PTR [eax+12], 1

; 653  :             return _Newnode;

  00050	8b 45 10	 mov	 eax, DWORD PTR __Newnode$[ebp]
  00053	e9 a3 01 00 00	 jmp	 $LN18@Insert_nod
$LN5@Insert_nod:

; 654  :         }
; 655  : 
; 656  :         _STL_INTERNAL_CHECK(_Loc._Child != _Tree_child::_Unused);
; 657  :         if (_Loc._Child == _Tree_child::_Right) { // add to right of _Loc._Parent

  00058	83 7d 0c 00	 cmp	 DWORD PTR __Loc$[ebp+4], 0
  0005c	75 1f		 jne	 SHORT $LN6@Insert_nod

; 658  :             _STL_INTERNAL_CHECK(_Loc._Parent->_Right->_Isnil);
; 659  :             _Loc._Parent->_Right = _Newnode;

  0005e	8b 45 08	 mov	 eax, DWORD PTR __Loc$[ebp]
  00061	8b 4d 10	 mov	 ecx, DWORD PTR __Newnode$[ebp]
  00064	89 48 08	 mov	 DWORD PTR [eax+8], ecx

; 660  :             if (_Loc._Parent == _Head->_Right) { // remember rightmost node

  00067	8b 45 f8	 mov	 eax, DWORD PTR __Head$[ebp]
  0006a	8b 4d 08	 mov	 ecx, DWORD PTR __Loc$[ebp]
  0006d	3b 48 08	 cmp	 ecx, DWORD PTR [eax+8]
  00070	75 09		 jne	 SHORT $LN8@Insert_nod

; 661  :                 _Head->_Right = _Newnode;

  00072	8b 45 f8	 mov	 eax, DWORD PTR __Head$[ebp]
  00075	8b 4d 10	 mov	 ecx, DWORD PTR __Newnode$[ebp]
  00078	89 48 08	 mov	 DWORD PTR [eax+8], ecx
$LN8@Insert_nod:

; 662  :             }
; 663  :         } else { // add to left of _Loc._Parent

  0007b	eb 1a		 jmp	 SHORT $LN7@Insert_nod
$LN6@Insert_nod:

; 664  :             _STL_INTERNAL_CHECK(_Loc._Parent->_Left->_Isnil);
; 665  :             _Loc._Parent->_Left = _Newnode;

  0007d	8b 45 08	 mov	 eax, DWORD PTR __Loc$[ebp]
  00080	8b 4d 10	 mov	 ecx, DWORD PTR __Newnode$[ebp]
  00083	89 08		 mov	 DWORD PTR [eax], ecx

; 666  :             if (_Loc._Parent == _Head->_Left) { // remember leftmost node

  00085	8b 45 f8	 mov	 eax, DWORD PTR __Head$[ebp]
  00088	8b 4d 08	 mov	 ecx, DWORD PTR __Loc$[ebp]
  0008b	3b 08		 cmp	 ecx, DWORD PTR [eax]
  0008d	75 08		 jne	 SHORT $LN7@Insert_nod

; 667  :                 _Head->_Left = _Newnode;

  0008f	8b 45 f8	 mov	 eax, DWORD PTR __Head$[ebp]
  00092	8b 4d 10	 mov	 ecx, DWORD PTR __Newnode$[ebp]
  00095	89 08		 mov	 DWORD PTR [eax], ecx
$LN7@Insert_nod:

; 668  :             }
; 669  :         }
; 670  : 
; 671  :         for (_Nodeptr _Pnode = _Newnode; _Pnode->_Parent->_Color == _Red;) {

  00097	8b 45 10	 mov	 eax, DWORD PTR __Newnode$[ebp]
  0009a	89 45 fc	 mov	 DWORD PTR __Pnode$3[ebp], eax
$LN4@Insert_nod:
  0009d	8b 45 fc	 mov	 eax, DWORD PTR __Pnode$3[ebp]
  000a0	8b 40 04	 mov	 eax, DWORD PTR [eax+4]
  000a3	0f be 40 0c	 movsx	 eax, BYTE PTR [eax+12]
  000a7	85 c0		 test	 eax, eax
  000a9	0f 85 3f 01 00
	00		 jne	 $LN3@Insert_nod

; 672  :             if (_Pnode->_Parent == _Pnode->_Parent->_Parent->_Left) { // fixup red-red in left subtree

  000af	8b 45 fc	 mov	 eax, DWORD PTR __Pnode$3[ebp]
  000b2	8b 40 04	 mov	 eax, DWORD PTR [eax+4]
  000b5	8b 40 04	 mov	 eax, DWORD PTR [eax+4]
  000b8	8b 4d fc	 mov	 ecx, DWORD PTR __Pnode$3[ebp]
  000bb	8b 49 04	 mov	 ecx, DWORD PTR [ecx+4]
  000be	3b 08		 cmp	 ecx, DWORD PTR [eax]
  000c0	0f 85 95 00 00
	00		 jne	 $LN10@Insert_nod

; 673  :                 const auto _Parent_sibling = _Pnode->_Parent->_Parent->_Right;

  000c6	8b 45 fc	 mov	 eax, DWORD PTR __Pnode$3[ebp]
  000c9	8b 40 04	 mov	 eax, DWORD PTR [eax+4]
  000cc	8b 40 04	 mov	 eax, DWORD PTR [eax+4]
  000cf	8b 40 08	 mov	 eax, DWORD PTR [eax+8]
  000d2	89 45 f0	 mov	 DWORD PTR __Parent_sibling$2[ebp], eax

; 674  :                 if (_Parent_sibling->_Color == _Red) { // parent's sibling has two red children, blacken both

  000d5	8b 45 f0	 mov	 eax, DWORD PTR __Parent_sibling$2[ebp]
  000d8	0f be 40 0c	 movsx	 eax, BYTE PTR [eax+12]
  000dc	85 c0		 test	 eax, eax
  000de	75 2c		 jne	 SHORT $LN12@Insert_nod

; 675  :                     _Pnode->_Parent->_Color          = _Black;

  000e0	8b 45 fc	 mov	 eax, DWORD PTR __Pnode$3[ebp]
  000e3	8b 40 04	 mov	 eax, DWORD PTR [eax+4]
  000e6	c6 40 0c 01	 mov	 BYTE PTR [eax+12], 1

; 676  :                     _Parent_sibling->_Color          = _Black;

  000ea	8b 45 f0	 mov	 eax, DWORD PTR __Parent_sibling$2[ebp]
  000ed	c6 40 0c 01	 mov	 BYTE PTR [eax+12], 1

; 677  :                     _Pnode->_Parent->_Parent->_Color = _Red;

  000f1	8b 45 fc	 mov	 eax, DWORD PTR __Pnode$3[ebp]
  000f4	8b 40 04	 mov	 eax, DWORD PTR [eax+4]
  000f7	8b 40 04	 mov	 eax, DWORD PTR [eax+4]
  000fa	c6 40 0c 00	 mov	 BYTE PTR [eax+12], 0

; 678  :                     _Pnode                           = _Pnode->_Parent->_Parent;

  000fe	8b 45 fc	 mov	 eax, DWORD PTR __Pnode$3[ebp]
  00101	8b 40 04	 mov	 eax, DWORD PTR [eax+4]
  00104	8b 40 04	 mov	 eax, DWORD PTR [eax+4]
  00107	89 45 fc	 mov	 DWORD PTR __Pnode$3[ebp], eax

; 679  :                 } else { // parent's sibling has red and black children

  0010a	eb 4a		 jmp	 SHORT $LN13@Insert_nod
$LN12@Insert_nod:

; 680  :                     if (_Pnode == _Pnode->_Parent->_Right) { // rotate right child to left

  0010c	8b 45 fc	 mov	 eax, DWORD PTR __Pnode$3[ebp]
  0010f	8b 40 04	 mov	 eax, DWORD PTR [eax+4]
  00112	8b 4d fc	 mov	 ecx, DWORD PTR __Pnode$3[ebp]
  00115	3b 48 08	 cmp	 ecx, DWORD PTR [eax+8]
  00118	75 14		 jne	 SHORT $LN14@Insert_nod

; 681  :                         _Pnode = _Pnode->_Parent;

  0011a	8b 45 fc	 mov	 eax, DWORD PTR __Pnode$3[ebp]
  0011d	8b 40 04	 mov	 eax, DWORD PTR [eax+4]
  00120	89 45 fc	 mov	 DWORD PTR __Pnode$3[ebp], eax

; 682  :                         _Lrotate(_Pnode);

  00123	ff 75 fc	 push	 DWORD PTR __Pnode$3[ebp]
  00126	8b 4d f4	 mov	 ecx, DWORD PTR _this$[ebp]
  00129	e8 00 00 00 00	 call	 ?_Lrotate@?$_Tree_val@U?$_Tree_simple_types@U?$pair@$$CBEPBUSGuildMarkBlock@@@std@@@std@@@std@@QAEXPAU?$_Tree_node@U?$pair@$$CBEPBUSGuildMarkBlock@@@std@@PAX@2@@Z ; std::_Tree_val<std::_Tree_simple_types<std::pair<unsigned char const ,SGuildMarkBlock const *> > >::_Lrotate
$LN14@Insert_nod:

; 683  :                     }
; 684  : 
; 685  :                     _Pnode->_Parent->_Color          = _Black; // propagate red up

  0012e	8b 45 fc	 mov	 eax, DWORD PTR __Pnode$3[ebp]
  00131	8b 40 04	 mov	 eax, DWORD PTR [eax+4]
  00134	c6 40 0c 01	 mov	 BYTE PTR [eax+12], 1

; 686  :                     _Pnode->_Parent->_Parent->_Color = _Red;

  00138	8b 45 fc	 mov	 eax, DWORD PTR __Pnode$3[ebp]
  0013b	8b 40 04	 mov	 eax, DWORD PTR [eax+4]
  0013e	8b 40 04	 mov	 eax, DWORD PTR [eax+4]
  00141	c6 40 0c 00	 mov	 BYTE PTR [eax+12], 0

; 687  :                     _Rrotate(_Pnode->_Parent->_Parent);

  00145	8b 45 fc	 mov	 eax, DWORD PTR __Pnode$3[ebp]
  00148	8b 40 04	 mov	 eax, DWORD PTR [eax+4]
  0014b	ff 70 04	 push	 DWORD PTR [eax+4]
  0014e	8b 4d f4	 mov	 ecx, DWORD PTR _this$[ebp]
  00151	e8 00 00 00 00	 call	 ?_Rrotate@?$_Tree_val@U?$_Tree_simple_types@U?$pair@$$CBEPBUSGuildMarkBlock@@@std@@@std@@@std@@QAEXPAU?$_Tree_node@U?$pair@$$CBEPBUSGuildMarkBlock@@@std@@PAX@2@@Z ; std::_Tree_val<std::_Tree_simple_types<std::pair<unsigned char const ,SGuildMarkBlock const *> > >::_Rrotate
$LN13@Insert_nod:

; 688  :                 }
; 689  :             } else { // fixup red-red in right subtree

  00156	e9 8e 00 00 00	 jmp	 $LN11@Insert_nod
$LN10@Insert_nod:

; 690  :                 const auto _Parent_sibling = _Pnode->_Parent->_Parent->_Left;

  0015b	8b 45 fc	 mov	 eax, DWORD PTR __Pnode$3[ebp]
  0015e	8b 40 04	 mov	 eax, DWORD PTR [eax+4]
  00161	8b 40 04	 mov	 eax, DWORD PTR [eax+4]
  00164	8b 00		 mov	 eax, DWORD PTR [eax]
  00166	89 45 ec	 mov	 DWORD PTR __Parent_sibling$1[ebp], eax

; 691  :                 if (_Parent_sibling->_Color == _Red) { // parent's sibling has two red children, blacken both

  00169	8b 45 ec	 mov	 eax, DWORD PTR __Parent_sibling$1[ebp]
  0016c	0f be 40 0c	 movsx	 eax, BYTE PTR [eax+12]
  00170	85 c0		 test	 eax, eax
  00172	75 2c		 jne	 SHORT $LN15@Insert_nod

; 692  :                     _Pnode->_Parent->_Color          = _Black;

  00174	8b 45 fc	 mov	 eax, DWORD PTR __Pnode$3[ebp]
  00177	8b 40 04	 mov	 eax, DWORD PTR [eax+4]
  0017a	c6 40 0c 01	 mov	 BYTE PTR [eax+12], 1

; 693  :                     _Parent_sibling->_Color          = _Black;

  0017e	8b 45 ec	 mov	 eax, DWORD PTR __Parent_sibling$1[ebp]
  00181	c6 40 0c 01	 mov	 BYTE PTR [eax+12], 1

; 694  :                     _Pnode->_Parent->_Parent->_Color = _Red;

  00185	8b 45 fc	 mov	 eax, DWORD PTR __Pnode$3[ebp]
  00188	8b 40 04	 mov	 eax, DWORD PTR [eax+4]
  0018b	8b 40 04	 mov	 eax, DWORD PTR [eax+4]
  0018e	c6 40 0c 00	 mov	 BYTE PTR [eax+12], 0

; 695  :                     _Pnode                           = _Pnode->_Parent->_Parent;

  00192	8b 45 fc	 mov	 eax, DWORD PTR __Pnode$3[ebp]
  00195	8b 40 04	 mov	 eax, DWORD PTR [eax+4]
  00198	8b 40 04	 mov	 eax, DWORD PTR [eax+4]
  0019b	89 45 fc	 mov	 DWORD PTR __Pnode$3[ebp], eax

; 696  :                 } else { // parent's sibling has red and black children

  0019e	eb 49		 jmp	 SHORT $LN11@Insert_nod
$LN15@Insert_nod:

; 697  :                     if (_Pnode == _Pnode->_Parent->_Left) { // rotate left child to right

  001a0	8b 45 fc	 mov	 eax, DWORD PTR __Pnode$3[ebp]
  001a3	8b 40 04	 mov	 eax, DWORD PTR [eax+4]
  001a6	8b 4d fc	 mov	 ecx, DWORD PTR __Pnode$3[ebp]
  001a9	3b 08		 cmp	 ecx, DWORD PTR [eax]
  001ab	75 14		 jne	 SHORT $LN17@Insert_nod

; 698  :                         _Pnode = _Pnode->_Parent;

  001ad	8b 45 fc	 mov	 eax, DWORD PTR __Pnode$3[ebp]
  001b0	8b 40 04	 mov	 eax, DWORD PTR [eax+4]
  001b3	89 45 fc	 mov	 DWORD PTR __Pnode$3[ebp], eax

; 699  :                         _Rrotate(_Pnode);

  001b6	ff 75 fc	 push	 DWORD PTR __Pnode$3[ebp]
  001b9	8b 4d f4	 mov	 ecx, DWORD PTR _this$[ebp]
  001bc	e8 00 00 00 00	 call	 ?_Rrotate@?$_Tree_val@U?$_Tree_simple_types@U?$pair@$$CBEPBUSGuildMarkBlock@@@std@@@std@@@std@@QAEXPAU?$_Tree_node@U?$pair@$$CBEPBUSGuildMarkBlock@@@std@@PAX@2@@Z ; std::_Tree_val<std::_Tree_simple_types<std::pair<unsigned char const ,SGuildMarkBlock const *> > >::_Rrotate
$LN17@Insert_nod:

; 700  :                     }
; 701  : 
; 702  :                     _Pnode->_Parent->_Color          = _Black; // propagate red up

  001c1	8b 45 fc	 mov	 eax, DWORD PTR __Pnode$3[ebp]
  001c4	8b 40 04	 mov	 eax, DWORD PTR [eax+4]
  001c7	c6 40 0c 01	 mov	 BYTE PTR [eax+12], 1

; 703  :                     _Pnode->_Parent->_Parent->_Color = _Red;

  001cb	8b 45 fc	 mov	 eax, DWORD PTR __Pnode$3[ebp]
  001ce	8b 40 04	 mov	 eax, DWORD PTR [eax+4]
  001d1	8b 40 04	 mov	 eax, DWORD PTR [eax+4]
  001d4	c6 40 0c 00	 mov	 BYTE PTR [eax+12], 0

; 704  :                     _Lrotate(_Pnode->_Parent->_Parent);

  001d8	8b 45 fc	 mov	 eax, DWORD PTR __Pnode$3[ebp]
  001db	8b 40 04	 mov	 eax, DWORD PTR [eax+4]
  001de	ff 70 04	 push	 DWORD PTR [eax+4]
  001e1	8b 4d f4	 mov	 ecx, DWORD PTR _this$[ebp]
  001e4	e8 00 00 00 00	 call	 ?_Lrotate@?$_Tree_val@U?$_Tree_simple_types@U?$pair@$$CBEPBUSGuildMarkBlock@@@std@@@std@@@std@@QAEXPAU?$_Tree_node@U?$pair@$$CBEPBUSGuildMarkBlock@@@std@@PAX@2@@Z ; std::_Tree_val<std::_Tree_simple_types<std::pair<unsigned char const ,SGuildMarkBlock const *> > >::_Lrotate
$LN11@Insert_nod:

; 705  :                 }
; 706  :             }
; 707  :         }

  001e9	e9 af fe ff ff	 jmp	 $LN4@Insert_nod
$LN3@Insert_nod:

; 708  : 
; 709  :         _Head->_Parent->_Color = _Black; // root is always black

  001ee	8b 45 f8	 mov	 eax, DWORD PTR __Head$[ebp]
  001f1	8b 40 04	 mov	 eax, DWORD PTR [eax+4]
  001f4	c6 40 0c 01	 mov	 BYTE PTR [eax+12], 1

; 710  :         return _Newnode;

  001f8	8b 45 10	 mov	 eax, DWORD PTR __Newnode$[ebp]
$LN18@Insert_nod:

; 711  :     }

  001fb	c9		 leave
  001fc	c2 0c 00	 ret	 12			; 0000000cH
?_Insert_node@?$_Tree_val@U?$_Tree_simple_types@U?$pair@$$CBEPBUSGuildMarkBlock@@@std@@@std@@@std@@QAEPAU?$_Tree_node@U?$pair@$$CBEPBUSGuildMarkBlock@@@std@@PAX@2@U?$_Tree_id@PAU?$_Tree_node@U?$pair@$$CBEPBUSGuildMarkBlock@@@std@@PAX@std@@@2@QAU32@@Z ENDP ; std::_Tree_val<std::_Tree_simple_types<std::pair<unsigned char const ,SGuildMarkBlock const *> > >::_Insert_node
_TEXT	ENDS
; Function compile flags: /Odspy
; File C:\Program Files (x86)\Microsoft Visual Studio\2019\Community\VC\Tools\MSVC\14.28.29333\include\xtree
;	COMDAT ?_Rrotate@?$_Tree_val@U?$_Tree_simple_types@U?$pair@$$CBEPBUSGuildMarkBlock@@@std@@@std@@@std@@QAEXPAU?$_Tree_node@U?$pair@$$CBEPBUSGuildMarkBlock@@@std@@PAX@2@@Z
_TEXT	SEGMENT
_this$ = -8						; size = 4
__Pnode$ = -4						; size = 4
__Wherenode$ = 8					; size = 4
?_Rrotate@?$_Tree_val@U?$_Tree_simple_types@U?$pair@$$CBEPBUSGuildMarkBlock@@@std@@@std@@@std@@QAEXPAU?$_Tree_node@U?$pair@$$CBEPBUSGuildMarkBlock@@@std@@PAX@2@@Z PROC ; std::_Tree_val<std::_Tree_simple_types<std::pair<unsigned char const ,SGuildMarkBlock const *> > >::_Rrotate, COMDAT
; _this$ = ecx

; 480  :     void _Rrotate(_Nodeptr _Wherenode) noexcept { // promote left node to root of subtree

  00000	55		 push	 ebp
  00001	8b ec		 mov	 ebp, esp
  00003	51		 push	 ecx
  00004	51		 push	 ecx
  00005	89 4d f8	 mov	 DWORD PTR _this$[ebp], ecx

; 481  :         _Nodeptr _Pnode   = _Wherenode->_Left;

  00008	8b 45 08	 mov	 eax, DWORD PTR __Wherenode$[ebp]
  0000b	8b 00		 mov	 eax, DWORD PTR [eax]
  0000d	89 45 fc	 mov	 DWORD PTR __Pnode$[ebp], eax

; 482  :         _Wherenode->_Left = _Pnode->_Right;

  00010	8b 45 08	 mov	 eax, DWORD PTR __Wherenode$[ebp]
  00013	8b 4d fc	 mov	 ecx, DWORD PTR __Pnode$[ebp]
  00016	8b 49 08	 mov	 ecx, DWORD PTR [ecx+8]
  00019	89 08		 mov	 DWORD PTR [eax], ecx

; 483  : 
; 484  :         if (!_Pnode->_Right->_Isnil) {

  0001b	8b 45 fc	 mov	 eax, DWORD PTR __Pnode$[ebp]
  0001e	8b 40 08	 mov	 eax, DWORD PTR [eax+8]
  00021	0f be 40 0d	 movsx	 eax, BYTE PTR [eax+13]
  00025	85 c0		 test	 eax, eax
  00027	75 0c		 jne	 SHORT $LN2@Rrotate

; 485  :             _Pnode->_Right->_Parent = _Wherenode;

  00029	8b 45 fc	 mov	 eax, DWORD PTR __Pnode$[ebp]
  0002c	8b 40 08	 mov	 eax, DWORD PTR [eax+8]
  0002f	8b 4d 08	 mov	 ecx, DWORD PTR __Wherenode$[ebp]
  00032	89 48 04	 mov	 DWORD PTR [eax+4], ecx
$LN2@Rrotate:

; 486  :         }
; 487  : 
; 488  :         _Pnode->_Parent = _Wherenode->_Parent;

  00035	8b 45 fc	 mov	 eax, DWORD PTR __Pnode$[ebp]
  00038	8b 4d 08	 mov	 ecx, DWORD PTR __Wherenode$[ebp]
  0003b	8b 49 04	 mov	 ecx, DWORD PTR [ecx+4]
  0003e	89 48 04	 mov	 DWORD PTR [eax+4], ecx

; 489  : 
; 490  :         if (_Wherenode == _Myhead->_Parent) {

  00041	8b 45 f8	 mov	 eax, DWORD PTR _this$[ebp]
  00044	8b 00		 mov	 eax, DWORD PTR [eax]
  00046	8b 4d 08	 mov	 ecx, DWORD PTR __Wherenode$[ebp]
  00049	3b 48 04	 cmp	 ecx, DWORD PTR [eax+4]
  0004c	75 0d		 jne	 SHORT $LN3@Rrotate

; 491  :             _Myhead->_Parent = _Pnode;

  0004e	8b 45 f8	 mov	 eax, DWORD PTR _this$[ebp]
  00051	8b 00		 mov	 eax, DWORD PTR [eax]
  00053	8b 4d fc	 mov	 ecx, DWORD PTR __Pnode$[ebp]
  00056	89 48 04	 mov	 DWORD PTR [eax+4], ecx
  00059	eb 27		 jmp	 SHORT $LN4@Rrotate
$LN3@Rrotate:

; 492  :         } else if (_Wherenode == _Wherenode->_Parent->_Right) {

  0005b	8b 45 08	 mov	 eax, DWORD PTR __Wherenode$[ebp]
  0005e	8b 40 04	 mov	 eax, DWORD PTR [eax+4]
  00061	8b 4d 08	 mov	 ecx, DWORD PTR __Wherenode$[ebp]
  00064	3b 48 08	 cmp	 ecx, DWORD PTR [eax+8]
  00067	75 0e		 jne	 SHORT $LN5@Rrotate

; 493  :             _Wherenode->_Parent->_Right = _Pnode;

  00069	8b 45 08	 mov	 eax, DWORD PTR __Wherenode$[ebp]
  0006c	8b 40 04	 mov	 eax, DWORD PTR [eax+4]
  0006f	8b 4d fc	 mov	 ecx, DWORD PTR __Pnode$[ebp]
  00072	89 48 08	 mov	 DWORD PTR [eax+8], ecx

; 494  :         } else {

  00075	eb 0b		 jmp	 SHORT $LN4@Rrotate
$LN5@Rrotate:

; 495  :             _Wherenode->_Parent->_Left = _Pnode;

  00077	8b 45 08	 mov	 eax, DWORD PTR __Wherenode$[ebp]
  0007a	8b 40 04	 mov	 eax, DWORD PTR [eax+4]
  0007d	8b 4d fc	 mov	 ecx, DWORD PTR __Pnode$[ebp]
  00080	89 08		 mov	 DWORD PTR [eax], ecx
$LN4@Rrotate:

; 496  :         }
; 497  : 
; 498  :         _Pnode->_Right      = _Wherenode;

  00082	8b 45 fc	 mov	 eax, DWORD PTR __Pnode$[ebp]
  00085	8b 4d 08	 mov	 ecx, DWORD PTR __Wherenode$[ebp]
  00088	89 48 08	 mov	 DWORD PTR [eax+8], ecx

; 499  :         _Wherenode->_Parent = _Pnode;

  0008b	8b 45 08	 mov	 eax, DWORD PTR __Wherenode$[ebp]
  0008e	8b 4d fc	 mov	 ecx, DWORD PTR __Pnode$[ebp]
  00091	89 48 04	 mov	 DWORD PTR [eax+4], ecx

; 500  :     }

  00094	c9		 leave
  00095	c2 04 00	 ret	 4
?_Rrotate@?$_Tree_val@U?$_Tree_simple_types@U?$pair@$$CBEPBUSGuildMarkBlock@@@std@@@std@@@std@@QAEXPAU?$_Tree_node@U?$pair@$$CBEPBUSGuildMarkBlock@@@std@@PAX@2@@Z ENDP ; std::_Tree_val<std::_Tree_simple_types<std::pair<unsigned char const ,SGuildMarkBlock const *> > >::_Rrotate
_TEXT	ENDS
; Function compile flags: /Odspy
; File C:\Program Files (x86)\Microsoft Visual Studio\2019\Community\VC\Tools\MSVC\14.28.29333\include\xtree
;	COMDAT ?_Lrotate@?$_Tree_val@U?$_Tree_simple_types@U?$pair@$$CBEPBUSGuildMarkBlock@@@std@@@std@@@std@@QAEXPAU?$_Tree_node@U?$pair@$$CBEPBUSGuildMarkBlock@@@std@@PAX@2@@Z
_TEXT	SEGMENT
_this$ = -8						; size = 4
__Pnode$ = -4						; size = 4
__Wherenode$ = 8					; size = 4
?_Lrotate@?$_Tree_val@U?$_Tree_simple_types@U?$pair@$$CBEPBUSGuildMarkBlock@@@std@@@std@@@std@@QAEXPAU?$_Tree_node@U?$pair@$$CBEPBUSGuildMarkBlock@@@std@@PAX@2@@Z PROC ; std::_Tree_val<std::_Tree_simple_types<std::pair<unsigned char const ,SGuildMarkBlock const *> > >::_Lrotate, COMDAT
; _this$ = ecx

; 458  :     void _Lrotate(_Nodeptr _Wherenode) noexcept { // promote right node to root of subtree

  00000	55		 push	 ebp
  00001	8b ec		 mov	 ebp, esp
  00003	51		 push	 ecx
  00004	51		 push	 ecx
  00005	89 4d f8	 mov	 DWORD PTR _this$[ebp], ecx

; 459  :         _Nodeptr _Pnode    = _Wherenode->_Right;

  00008	8b 45 08	 mov	 eax, DWORD PTR __Wherenode$[ebp]
  0000b	8b 40 08	 mov	 eax, DWORD PTR [eax+8]
  0000e	89 45 fc	 mov	 DWORD PTR __Pnode$[ebp], eax

; 460  :         _Wherenode->_Right = _Pnode->_Left;

  00011	8b 45 08	 mov	 eax, DWORD PTR __Wherenode$[ebp]
  00014	8b 4d fc	 mov	 ecx, DWORD PTR __Pnode$[ebp]
  00017	8b 09		 mov	 ecx, DWORD PTR [ecx]
  00019	89 48 08	 mov	 DWORD PTR [eax+8], ecx

; 461  : 
; 462  :         if (!_Pnode->_Left->_Isnil) {

  0001c	8b 45 fc	 mov	 eax, DWORD PTR __Pnode$[ebp]
  0001f	8b 00		 mov	 eax, DWORD PTR [eax]
  00021	0f be 40 0d	 movsx	 eax, BYTE PTR [eax+13]
  00025	85 c0		 test	 eax, eax
  00027	75 0b		 jne	 SHORT $LN2@Lrotate

; 463  :             _Pnode->_Left->_Parent = _Wherenode;

  00029	8b 45 fc	 mov	 eax, DWORD PTR __Pnode$[ebp]
  0002c	8b 00		 mov	 eax, DWORD PTR [eax]
  0002e	8b 4d 08	 mov	 ecx, DWORD PTR __Wherenode$[ebp]
  00031	89 48 04	 mov	 DWORD PTR [eax+4], ecx
$LN2@Lrotate:

; 464  :         }
; 465  : 
; 466  :         _Pnode->_Parent = _Wherenode->_Parent;

  00034	8b 45 fc	 mov	 eax, DWORD PTR __Pnode$[ebp]
  00037	8b 4d 08	 mov	 ecx, DWORD PTR __Wherenode$[ebp]
  0003a	8b 49 04	 mov	 ecx, DWORD PTR [ecx+4]
  0003d	89 48 04	 mov	 DWORD PTR [eax+4], ecx

; 467  : 
; 468  :         if (_Wherenode == _Myhead->_Parent) {

  00040	8b 45 f8	 mov	 eax, DWORD PTR _this$[ebp]
  00043	8b 00		 mov	 eax, DWORD PTR [eax]
  00045	8b 4d 08	 mov	 ecx, DWORD PTR __Wherenode$[ebp]
  00048	3b 48 04	 cmp	 ecx, DWORD PTR [eax+4]
  0004b	75 0d		 jne	 SHORT $LN3@Lrotate

; 469  :             _Myhead->_Parent = _Pnode;

  0004d	8b 45 f8	 mov	 eax, DWORD PTR _this$[ebp]
  00050	8b 00		 mov	 eax, DWORD PTR [eax]
  00052	8b 4d fc	 mov	 ecx, DWORD PTR __Pnode$[ebp]
  00055	89 48 04	 mov	 DWORD PTR [eax+4], ecx
  00058	eb 26		 jmp	 SHORT $LN4@Lrotate
$LN3@Lrotate:

; 470  :         } else if (_Wherenode == _Wherenode->_Parent->_Left) {

  0005a	8b 45 08	 mov	 eax, DWORD PTR __Wherenode$[ebp]
  0005d	8b 40 04	 mov	 eax, DWORD PTR [eax+4]
  00060	8b 4d 08	 mov	 ecx, DWORD PTR __Wherenode$[ebp]
  00063	3b 08		 cmp	 ecx, DWORD PTR [eax]
  00065	75 0d		 jne	 SHORT $LN5@Lrotate

; 471  :             _Wherenode->_Parent->_Left = _Pnode;

  00067	8b 45 08	 mov	 eax, DWORD PTR __Wherenode$[ebp]
  0006a	8b 40 04	 mov	 eax, DWORD PTR [eax+4]
  0006d	8b 4d fc	 mov	 ecx, DWORD PTR __Pnode$[ebp]
  00070	89 08		 mov	 DWORD PTR [eax], ecx

; 472  :         } else {

  00072	eb 0c		 jmp	 SHORT $LN4@Lrotate
$LN5@Lrotate:

; 473  :             _Wherenode->_Parent->_Right = _Pnode;

  00074	8b 45 08	 mov	 eax, DWORD PTR __Wherenode$[ebp]
  00077	8b 40 04	 mov	 eax, DWORD PTR [eax+4]
  0007a	8b 4d fc	 mov	 ecx, DWORD PTR __Pnode$[ebp]
  0007d	89 48 08	 mov	 DWORD PTR [eax+8], ecx
$LN4@Lrotate:

; 474  :         }
; 475  : 
; 476  :         _Pnode->_Left       = _Wherenode;

  00080	8b 45 fc	 mov	 eax, DWORD PTR __Pnode$[ebp]
  00083	8b 4d 08	 mov	 ecx, DWORD PTR __Wherenode$[ebp]
  00086	89 08		 mov	 DWORD PTR [eax], ecx

; 477  :         _Wherenode->_Parent = _Pnode;

  00088	8b 45 08	 mov	 eax, DWORD PTR __Wherenode$[ebp]
  0008b	8b 4d fc	 mov	 ecx, DWORD PTR __Pnode$[ebp]
  0008e	89 48 04	 mov	 DWORD PTR [eax+4], ecx

; 478  :     }

  00091	c9		 leave
  00092	c2 04 00	 ret	 4
?_Lrotate@?$_Tree_val@U?$_Tree_simple_types@U?$pair@$$CBEPBUSGuildMarkBlock@@@std@@@std@@@std@@QAEXPAU?$_Tree_node@U?$pair@$$CBEPBUSGuildMarkBlock@@@std@@PAX@2@@Z ENDP ; std::_Tree_val<std::_Tree_simple_types<std::pair<unsigned char const ,SGuildMarkBlock const *> > >::_Lrotate
_TEXT	ENDS
; Function compile flags: /Odspy
; File C:\Program Files (x86)\Microsoft Visual Studio\2019\Community\VC\Tools\MSVC\14.28.29333\include\xtree
; File C:\Program Files (x86)\Microsoft Visual Studio\2019\Community\VC\Tools\MSVC\14.28.29333\include\xstddef
; File C:\Program Files (x86)\Microsoft Visual Studio\2019\Community\VC\Tools\MSVC\14.28.29333\include\xtree
;	COMDAT ?_Check_grow_by_1@?$_Tree@V?$_Tmap_traits@EPBUSGuildMarkBlock@@U?$less@E@std@@V?$allocator@U?$pair@$$CBEPBUSGuildMarkBlock@@@std@@@3@$0A@@std@@@std@@IAEXXZ
_TEXT	SEGMENT
$T1 = -12						; size = 4
$T2 = -8						; size = 4
_this$ = -4						; size = 4
?_Check_grow_by_1@?$_Tree@V?$_Tmap_traits@EPBUSGuildMarkBlock@@U?$less@E@std@@V?$allocator@U?$pair@$$CBEPBUSGuildMarkBlock@@@std@@@3@$0A@@std@@@std@@IAEXXZ PROC ; std::_Tree<std::_Tmap_traits<unsigned char,SGuildMarkBlock const *,std::less<unsigned char>,std::allocator<std::pair<unsigned char const ,SGuildMarkBlock const *> >,0> >::_Check_grow_by_1, COMDAT
; _this$ = ecx

; 1718 :     void _Check_grow_by_1() {

  00000	55		 push	 ebp
  00001	8b ec		 mov	 ebp, esp
  00003	83 ec 0c	 sub	 esp, 12			; 0000000cH
  00006	89 4d fc	 mov	 DWORD PTR _this$[ebp], ecx

; 2047 :         return _STD addressof(_Mypair._Myval2._Myval2);

  00009	8b 45 fc	 mov	 eax, DWORD PTR _this$[ebp]
; File C:\Program Files (x86)\Microsoft Visual Studio\2019\Community\VC\Tools\MSVC\14.28.29333\include\xstddef

; 275  :     return __builtin_addressof(_Val);

  0000c	89 45 f8	 mov	 DWORD PTR $T2[ebp], eax
; File C:\Program Files (x86)\Microsoft Visual Studio\2019\Community\VC\Tools\MSVC\14.28.29333\include\xtree

; 2047 :         return _STD addressof(_Mypair._Myval2._Myval2);

  0000f	8b 45 f8	 mov	 eax, DWORD PTR $T2[ebp]
  00012	89 45 f4	 mov	 DWORD PTR $T1[ebp], eax

; 1719 :         if (max_size() == _Get_scary()->_Mysize) {

  00015	8b 4d fc	 mov	 ecx, DWORD PTR _this$[ebp]
  00018	e8 00 00 00 00	 call	 ?max_size@?$_Tree@V?$_Tmap_traits@EPBUSGuildMarkBlock@@U?$less@E@std@@V?$allocator@U?$pair@$$CBEPBUSGuildMarkBlock@@@std@@@3@$0A@@std@@@std@@QBEIXZ ; std::_Tree<std::_Tmap_traits<unsigned char,SGuildMarkBlock const *,std::less<unsigned char>,std::allocator<std::pair<unsigned char const ,SGuildMarkBlock const *> >,0> >::max_size
  0001d	8b 4d f4	 mov	 ecx, DWORD PTR $T1[ebp]
  00020	3b 41 04	 cmp	 eax, DWORD PTR [ecx+4]
  00023	75 05		 jne	 SHORT $LN3@Check_grow

; 1720 :             _Throw_tree_length_error();

  00025	e8 00 00 00 00	 call	 ?_Throw_tree_length_error@std@@YAXXZ ; std::_Throw_tree_length_error
$LN3@Check_grow:

; 1721 :         }
; 1722 :     }

  0002a	c9		 leave
  0002b	c3		 ret	 0
?_Check_grow_by_1@?$_Tree@V?$_Tmap_traits@EPBUSGuildMarkBlock@@U?$less@E@std@@V?$allocator@U?$pair@$$CBEPBUSGuildMarkBlock@@@std@@@3@$0A@@std@@@std@@IAEXXZ ENDP ; std::_Tree<std::_Tmap_traits<unsigned char,SGuildMarkBlock const *,std::less<unsigned char>,std::allocator<std::pair<unsigned char const ,SGuildMarkBlock const *> >,0> >::_Check_grow_by_1
_TEXT	ENDS
; Function compile flags: /Odspy
; File C:\Program Files (x86)\Microsoft Visual Studio\2019\Community\VC\Tools\MSVC\14.28.29333\include\xtree
; File C:\Program Files (x86)\Microsoft Visual Studio\2019\Community\VC\Tools\MSVC\14.28.29333\include\xmemory
; File C:\Program Files (x86)\Microsoft Visual Studio\2019\Community\VC\Tools\MSVC\14.28.29333\include\xtree
; File C:\Program Files (x86)\Microsoft Visual Studio\2019\Community\VC\Tools\MSVC\14.28.29333\include\xmemory
; File C:\Program Files (x86)\Microsoft Visual Studio\2019\Community\VC\Tools\MSVC\14.28.29333\include\limits
; File C:\Program Files (x86)\Microsoft Visual Studio\2019\Community\VC\Tools\MSVC\14.28.29333\include\xtree
; File C:\Program Files (x86)\Microsoft Visual Studio\2019\Community\VC\Tools\MSVC\14.28.29333\include\utility
; File C:\Program Files (x86)\Microsoft Visual Studio\2019\Community\VC\Tools\MSVC\14.28.29333\include\xtree
;	COMDAT ?max_size@?$_Tree@V?$_Tmap_traits@EPBUSGuildMarkBlock@@U?$less@E@std@@V?$allocator@U?$pair@$$CBEPBUSGuildMarkBlock@@@std@@@3@$0A@@std@@@std@@QBEIXZ
_TEXT	SEGMENT
$T1 = -36						; size = 4
$T2 = -32						; size = 4
$T3 = -28						; size = 4
$T4 = -24						; size = 4
$T5 = -20						; size = 4
_this$ = -16						; size = 4
tv68 = -12						; size = 4
$T6 = -8						; size = 4
$T7 = -4						; size = 4
?max_size@?$_Tree@V?$_Tmap_traits@EPBUSGuildMarkBlock@@U?$less@E@std@@V?$allocator@U?$pair@$$CBEPBUSGuildMarkBlock@@@std@@@3@$0A@@std@@@std@@QBEIXZ PROC ; std::_Tree<std::_Tmap_traits<unsigned char,SGuildMarkBlock const *,std::less<unsigned char>,std::allocator<std::pair<unsigned char const ,SGuildMarkBlock const *> >,0> >::max_size, COMDAT
; _this$ = ecx

; 1310 :     _NODISCARD size_type max_size() const noexcept {

  00000	55		 push	 ebp
  00001	8b ec		 mov	 ebp, esp
  00003	83 ec 24	 sub	 esp, 36			; 00000024H
  00006	89 4d f0	 mov	 DWORD PTR _this$[ebp], ecx

; 2043 :         return _Mypair._Myval2._Get_first();

  00009	8b 45 f0	 mov	 eax, DWORD PTR _this$[ebp]
; File C:\Program Files (x86)\Microsoft Visual Studio\2019\Community\VC\Tools\MSVC\14.28.29333\include\xmemory

; 1351 :         return *this;

  0000c	89 45 ec	 mov	 DWORD PTR $T5[ebp], eax
; File C:\Program Files (x86)\Microsoft Visual Studio\2019\Community\VC\Tools\MSVC\14.28.29333\include\xtree

; 2043 :         return _Mypair._Myval2._Get_first();

  0000f	8b 45 ec	 mov	 eax, DWORD PTR $T5[ebp]
  00012	89 45 dc	 mov	 DWORD PTR $T1[ebp], eax
; File C:\Program Files (x86)\Microsoft Visual Studio\2019\Community\VC\Tools\MSVC\14.28.29333\include\xmemory

; 710  :         return static_cast<size_t>(-1) / sizeof(value_type);

  00015	c7 45 fc aa aa
	aa 0a		 mov	 DWORD PTR $T7[ebp], 178956970 ; 0aaaaaaaH
; File C:\Program Files (x86)\Microsoft Visual Studio\2019\Community\VC\Tools\MSVC\14.28.29333\include\limits

; 557  :         return INT_MAX;

  0001c	c7 45 e8 ff ff
	ff 7f		 mov	 DWORD PTR $T4[ebp], 2147483647 ; 7fffffffH
; File C:\Program Files (x86)\Microsoft Visual Studio\2019\Community\VC\Tools\MSVC\14.28.29333\include\xtree

; 1311 :         return (_STD min)(

  00023	8b 45 e8	 mov	 eax, DWORD PTR $T4[ebp]
  00026	89 45 f8	 mov	 DWORD PTR $T6[ebp], eax
; File C:\Program Files (x86)\Microsoft Visual Studio\2019\Community\VC\Tools\MSVC\14.28.29333\include\utility

; 68   :     return _Right < _Left ? _Right : _Left;

  00029	8b 45 fc	 mov	 eax, DWORD PTR $T7[ebp]
  0002c	3b 45 f8	 cmp	 eax, DWORD PTR $T6[ebp]
  0002f	73 08		 jae	 SHORT $LN17@max_size
  00031	8d 45 fc	 lea	 eax, DWORD PTR $T7[ebp]
  00034	89 45 f4	 mov	 DWORD PTR tv68[ebp], eax
  00037	eb 06		 jmp	 SHORT $LN18@max_size
$LN17@max_size:
  00039	8d 45 f8	 lea	 eax, DWORD PTR $T6[ebp]
  0003c	89 45 f4	 mov	 DWORD PTR tv68[ebp], eax
$LN18@max_size:
  0003f	8b 45 f4	 mov	 eax, DWORD PTR tv68[ebp]
  00042	89 45 e4	 mov	 DWORD PTR $T3[ebp], eax
  00045	8b 45 e4	 mov	 eax, DWORD PTR $T3[ebp]
  00048	89 45 e0	 mov	 DWORD PTR $T2[ebp], eax
; File C:\Program Files (x86)\Microsoft Visual Studio\2019\Community\VC\Tools\MSVC\14.28.29333\include\xtree

; 1311 :         return (_STD min)(

  0004b	8b 45 e0	 mov	 eax, DWORD PTR $T2[ebp]
  0004e	8b 00		 mov	 eax, DWORD PTR [eax]

; 1312 :             static_cast<size_type>((numeric_limits<difference_type>::max)()), _Alnode_traits::max_size(_Getal()));
; 1313 :     }

  00050	c9		 leave
  00051	c3		 ret	 0
?max_size@?$_Tree@V?$_Tmap_traits@EPBUSGuildMarkBlock@@U?$less@E@std@@V?$allocator@U?$pair@$$CBEPBUSGuildMarkBlock@@@std@@@3@$0A@@std@@@std@@QBEIXZ ENDP ; std::_Tree<std::_Tmap_traits<unsigned char,SGuildMarkBlock const *,std::less<unsigned char>,std::allocator<std::pair<unsigned char const ,SGuildMarkBlock const *> >,0> >::max_size
_TEXT	ENDS
; Function compile flags: /Odspy
; File D:\Metin2 Server Files\mainline\SRC_2014\Metin2Client\UserInterface\MarkImage.cpp
;	COMDAT ?DeleteMarkImage@@YAXPAVCGuildMarkImage@@@Z
_TEXT	SEGMENT
tv70 = -8						; size = 4
$T1 = -4						; size = 4
_pkImage$ = 8						; size = 4
?DeleteMarkImage@@YAXPAVCGuildMarkImage@@@Z PROC	; DeleteMarkImage, COMDAT

; 23   : {

  00000	55		 push	 ebp
  00001	8b ec		 mov	 ebp, esp
  00003	51		 push	 ecx
  00004	51		 push	 ecx

; 24   : 	delete pkImage;

  00005	8b 45 08	 mov	 eax, DWORD PTR _pkImage$[ebp]
  00008	89 45 fc	 mov	 DWORD PTR $T1[ebp], eax
  0000b	83 7d fc 00	 cmp	 DWORD PTR $T1[ebp], 0
  0000f	74 11		 je	 SHORT $LN3@DeleteMark
  00011	6a 01		 push	 1
  00013	8b 45 fc	 mov	 eax, DWORD PTR $T1[ebp]
  00016	8b 00		 mov	 eax, DWORD PTR [eax]
  00018	8b 4d fc	 mov	 ecx, DWORD PTR $T1[ebp]
  0001b	ff 10		 call	 DWORD PTR [eax]
  0001d	89 45 f8	 mov	 DWORD PTR tv70[ebp], eax
  00020	eb 04		 jmp	 SHORT $LN1@DeleteMark
$LN3@DeleteMark:
  00022	83 65 f8 00	 and	 DWORD PTR tv70[ebp], 0
$LN1@DeleteMark:

; 25   : }

  00026	c9		 leave
  00027	c3		 ret	 0
?DeleteMarkImage@@YAXPAVCGuildMarkImage@@@Z ENDP	; DeleteMarkImage
_TEXT	ENDS
; Function compile flags: /Odspy
; File D:\Metin2 Server Files\mainline\SRC_2014\Metin2Client\UserInterface\MarkImage.cpp
;	COMDAT ?NewMarkImage@@YAPAVCGuildMarkImage@@XZ
_TEXT	SEGMENT
$T2 = -24						; size = 4
tv75 = -20						; size = 4
$T3 = -16						; size = 4
__$EHRec$ = -12						; size = 12
?NewMarkImage@@YAPAVCGuildMarkImage@@XZ PROC		; NewMarkImage, COMDAT

; 18   : {

  00000	55		 push	 ebp
  00001	8b ec		 mov	 ebp, esp
  00003	6a ff		 push	 -1
  00005	68 00 00 00 00	 push	 __ehhandler$?NewMarkImage@@YAPAVCGuildMarkImage@@XZ
  0000a	64 a1 00 00 00
	00		 mov	 eax, DWORD PTR fs:0
  00010	50		 push	 eax
  00011	83 ec 0c	 sub	 esp, 12			; 0000000cH
  00014	a1 00 00 00 00	 mov	 eax, DWORD PTR ___security_cookie
  00019	33 c5		 xor	 eax, ebp
  0001b	50		 push	 eax
  0001c	8d 45 f4	 lea	 eax, DWORD PTR __$EHRec$[ebp]
  0001f	64 a3 00 00 00
	00		 mov	 DWORD PTR fs:0, eax

; 19   : 	return new CGuildMarkImage;

  00025	68 c8 07 5f 00	 push	 6227912			; 005f07c8H
  0002a	e8 00 00 00 00	 call	 ??2@YAPAXI@Z		; operator new
  0002f	59		 pop	 ecx
  00030	89 45 f0	 mov	 DWORD PTR $T3[ebp], eax
  00033	83 65 fc 00	 and	 DWORD PTR __$EHRec$[ebp+8], 0
  00037	83 7d f0 00	 cmp	 DWORD PTR $T3[ebp], 0
  0003b	74 0d		 je	 SHORT $LN3@NewMarkIma
  0003d	8b 4d f0	 mov	 ecx, DWORD PTR $T3[ebp]
  00040	e8 00 00 00 00	 call	 ??0CGuildMarkImage@@QAE@XZ ; CGuildMarkImage::CGuildMarkImage
  00045	89 45 ec	 mov	 DWORD PTR tv75[ebp], eax
  00048	eb 04		 jmp	 SHORT $LN4@NewMarkIma
$LN3@NewMarkIma:
  0004a	83 65 ec 00	 and	 DWORD PTR tv75[ebp], 0
$LN4@NewMarkIma:
  0004e	8b 45 ec	 mov	 eax, DWORD PTR tv75[ebp]
  00051	89 45 e8	 mov	 DWORD PTR $T2[ebp], eax
  00054	83 4d fc ff	 or	 DWORD PTR __$EHRec$[ebp+8], -1
  00058	8b 45 e8	 mov	 eax, DWORD PTR $T2[ebp]

; 20   : }

  0005b	8b 4d f4	 mov	 ecx, DWORD PTR __$EHRec$[ebp]
  0005e	64 89 0d 00 00
	00 00		 mov	 DWORD PTR fs:0, ecx
  00065	59		 pop	 ecx
  00066	c9		 leave
  00067	c3		 ret	 0
_TEXT	ENDS
;	COMDAT text$x
text$x	SEGMENT
__unwindfunclet$?NewMarkImage@@YAPAVCGuildMarkImage@@XZ$0:
  00000	68 c8 07 5f 00	 push	 6227912			; 005f07c8H
  00005	ff 75 f0	 push	 DWORD PTR $T3[ebp]
  00008	e8 00 00 00 00	 call	 ??3@YAXPAXI@Z		; operator delete
  0000d	59		 pop	 ecx
  0000e	59		 pop	 ecx
  0000f	c3		 ret	 0
  00010	cc		 int	 3
  00011	cc		 int	 3
  00012	cc		 int	 3
  00013	cc		 int	 3
  00014	cc		 int	 3
__ehhandler$?NewMarkImage@@YAPAVCGuildMarkImage@@XZ:
  00015	90		 npad	 1
  00016	90		 npad	 1
  00017	8b 54 24 08	 mov	 edx, DWORD PTR [esp+8]
  0001b	8d 42 0c	 lea	 eax, DWORD PTR [edx+12]
  0001e	8b 4a f0	 mov	 ecx, DWORD PTR [edx-16]
  00021	33 c8		 xor	 ecx, eax
  00023	e8 00 00 00 00	 call	 @__security_check_cookie@4
  00028	b8 00 00 00 00	 mov	 eax, OFFSET __ehfuncinfo$?NewMarkImage@@YAPAVCGuildMarkImage@@XZ
  0002d	e9 00 00 00 00	 jmp	 ___CxxFrameHandler3
text$x	ENDS
?NewMarkImage@@YAPAVCGuildMarkImage@@XZ ENDP		; NewMarkImage
; Function compile flags: /Odspy
;	COMDAT ??_GCGuildMarkImage@@UAEPAXI@Z
_TEXT	SEGMENT
_this$ = -4						; size = 4
___flags$ = 8						; size = 4
??_GCGuildMarkImage@@UAEPAXI@Z PROC			; CGuildMarkImage::`scalar deleting destructor', COMDAT
; _this$ = ecx
  00000	55		 push	 ebp
  00001	8b ec		 mov	 ebp, esp
  00003	51		 push	 ecx
  00004	89 4d fc	 mov	 DWORD PTR _this$[ebp], ecx
  00007	8b 4d fc	 mov	 ecx, DWORD PTR _this$[ebp]
  0000a	e8 00 00 00 00	 call	 ??1CGuildMarkImage@@UAE@XZ ; CGuildMarkImage::~CGuildMarkImage
  0000f	8b 45 08	 mov	 eax, DWORD PTR ___flags$[ebp]
  00012	83 e0 01	 and	 eax, 1
  00015	74 0f		 je	 SHORT $LN2@scalar
  00017	68 c8 07 5f 00	 push	 6227912			; 005f07c8H
  0001c	ff 75 fc	 push	 DWORD PTR _this$[ebp]
  0001f	e8 00 00 00 00	 call	 ??3@YAXPAXI@Z		; operator delete
  00024	59		 pop	 ecx
  00025	59		 pop	 ecx
$LN2@scalar:
  00026	8b 45 fc	 mov	 eax, DWORD PTR _this$[ebp]
  00029	c9		 leave
  0002a	c2 04 00	 ret	 4
??_GCGuildMarkImage@@UAEPAXI@Z ENDP			; CGuildMarkImage::`scalar deleting destructor'
_TEXT	ENDS
; Function compile flags: /Odspy
; File D:\Metin2 Server Files\mainline\SRC_2014\Metin2Client\UserInterface\MarkImage.cpp
;	COMDAT ?BuildAllBlocks@CGuildMarkImage@@AAEXXZ
_TEXT	SEGMENT
_this$ = -128						; size = 4
_col$1 = -124						; size = 4
_row$2 = -120						; size = 4
_apxBuf$ = -116						; size = 12288
__$ArrayPad$ = 12172					; size = 4
?BuildAllBlocks@CGuildMarkImage@@AAEXXZ PROC		; CGuildMarkImage::BuildAllBlocks, COMDAT
; _this$ = ecx

; 212  : {

  00000	55		 push	 ebp
  00001	8d ac 24 70 d0
	ff ff		 lea	 ebp, DWORD PTR [esp-12176]
  00008	b8 10 30 00 00	 mov	 eax, 12304		; 00003010H
  0000d	e8 00 00 00 00	 call	 __chkstk
  00012	a1 00 00 00 00	 mov	 eax, DWORD PTR ___security_cookie
  00017	33 c5		 xor	 eax, ebp
  00019	89 85 8c 2f 00
	00		 mov	 DWORD PTR __$ArrayPad$[ebp], eax
  0001f	89 4d 80	 mov	 DWORD PTR _this$[ebp], ecx

; 213  : 	Pixel apxBuf[SGuildMarkBlock::SIZE];
; 214  : 	sys_log(0, "CGuildMarkImage::BuildAllBlocks");
; 215  : 
; 216  : 	for (UINT row = 0; row < BLOCK_ROW_COUNT; ++row)

  00022	83 65 88 00	 and	 DWORD PTR _row$2[ebp], 0
  00026	eb 07		 jmp	 SHORT $LN4@BuildAllBl
$LN2@BuildAllBl:
  00028	8b 45 88	 mov	 eax, DWORD PTR _row$2[ebp]
  0002b	40		 inc	 eax
  0002c	89 45 88	 mov	 DWORD PTR _row$2[ebp], eax
$LN4@BuildAllBl:
  0002f	83 7d 88 0a	 cmp	 DWORD PTR _row$2[ebp], 10 ; 0000000aH
  00033	73 53		 jae	 SHORT $LN1@BuildAllBl

; 217  : 		for (UINT col = 0; col < BLOCK_COL_COUNT; ++col)

  00035	83 65 84 00	 and	 DWORD PTR _col$1[ebp], 0
  00039	eb 07		 jmp	 SHORT $LN7@BuildAllBl
$LN5@BuildAllBl:
  0003b	8b 45 84	 mov	 eax, DWORD PTR _col$1[ebp]
  0003e	40		 inc	 eax
  0003f	89 45 84	 mov	 DWORD PTR _col$1[ebp], eax
$LN7@BuildAllBl:
  00042	83 7d 84 08	 cmp	 DWORD PTR _col$1[ebp], 8
  00046	73 3e		 jae	 SHORT $LN6@BuildAllBl

; 218  : 		{
; 219  : 			GetData(col * SGuildMarkBlock::WIDTH, row * SGuildMarkBlock::HEIGHT, SGuildMarkBlock::WIDTH, SGuildMarkBlock::HEIGHT, apxBuf);

  00048	8d 45 8c	 lea	 eax, DWORD PTR _apxBuf$[ebp]
  0004b	50		 push	 eax
  0004c	6a 30		 push	 48			; 00000030H
  0004e	6a 40		 push	 64			; 00000040H
  00050	6b 45 88 30	 imul	 eax, DWORD PTR _row$2[ebp], 48
  00054	50		 push	 eax
  00055	8b 45 84	 mov	 eax, DWORD PTR _col$1[ebp]
  00058	c1 e0 06	 shl	 eax, 6
  0005b	50		 push	 eax
  0005c	8b 4d 80	 mov	 ecx, DWORD PTR _this$[ebp]
  0005f	e8 00 00 00 00	 call	 ?GetData@CGuildMarkImage@@QAEXIIIIPAX@Z ; CGuildMarkImage::GetData

; 220  : 			m_aakBlock[row][col].Compress(apxBuf);

  00064	8d 45 8c	 lea	 eax, DWORD PTR _apxBuf$[ebp]
  00067	50		 push	 eax
  00068	69 45 88 60 1a
	03 00		 imul	 eax, DWORD PTR _row$2[ebp], 203360
  0006f	8b 4d 80	 mov	 ecx, DWORD PTR _this$[ebp]
  00072	8d 4c 01 04	 lea	 ecx, DWORD PTR [ecx+eax+4]
  00076	69 45 84 4c 63
	00 00		 imul	 eax, DWORD PTR _col$1[ebp], 25420
  0007d	03 c8		 add	 ecx, eax
  0007f	e8 00 00 00 00	 call	 ?Compress@SGuildMarkBlock@@QAEXPBK@Z ; SGuildMarkBlock::Compress

; 221  : 		}

  00084	eb b5		 jmp	 SHORT $LN5@BuildAllBl
$LN6@BuildAllBl:
  00086	eb a0		 jmp	 SHORT $LN2@BuildAllBl
$LN1@BuildAllBl:

; 222  : }

  00088	8b 8d 8c 2f 00
	00		 mov	 ecx, DWORD PTR __$ArrayPad$[ebp]
  0008e	33 cd		 xor	 ecx, ebp
  00090	e8 00 00 00 00	 call	 @__security_check_cookie@4
  00095	81 c5 90 2f 00
	00		 add	 ebp, 12176		; 00002f90H
  0009b	c9		 leave
  0009c	c3		 ret	 0
?BuildAllBlocks@CGuildMarkImage@@AAEXXZ ENDP		; CGuildMarkImage::BuildAllBlocks
_TEXT	ENDS
; Function compile flags: /Odspy
; File D:\Metin2 Server Files\mainline\SRC_2014\Metin2Client\UserInterface\MarkImage.cpp
; File C:\Program Files (x86)\Microsoft Visual Studio\2019\Community\VC\Tools\MSVC\14.28.29333\include\type_traits
; File C:\Program Files (x86)\Microsoft Visual Studio\2019\Community\VC\Tools\MSVC\14.28.29333\include\utility
; File C:\Program Files (x86)\Microsoft Visual Studio\2019\Community\VC\Tools\MSVC\14.28.29333\include\type_traits
; File C:\Program Files (x86)\Microsoft Visual Studio\2019\Community\VC\Tools\MSVC\14.28.29333\include\utility
; File D:\Metin2 Server Files\mainline\SRC_2014\Metin2Client\UserInterface\MarkImage.cpp
;	COMDAT ?GetDiffBlocks@CGuildMarkImage@@QAEXPBKAAV?$map@EPBUSGuildMarkBlock@@U?$less@E@std@@V?$allocator@U?$pair@$$CBEPBUSGuildMarkBlock@@@std@@@3@@std@@@Z
_TEXT	SEGMENT
$T1 = -44						; size = 8
$T2 = -36						; size = 8
$T3 = -28						; size = 4
$T4 = -24						; size = 4
$T5 = -20						; size = 4
_this$ = -16						; size = 4
_col$6 = -12						; size = 4
_row$7 = -8						; size = 4
_posBlock$ = -1						; size = 1
_crcList$ = 8						; size = 4
_mapDiffBlocks$ = 12					; size = 4
?GetDiffBlocks@CGuildMarkImage@@QAEXPBKAAV?$map@EPBUSGuildMarkBlock@@U?$less@E@std@@V?$allocator@U?$pair@$$CBEPBUSGuildMarkBlock@@@std@@@3@@std@@@Z PROC ; CGuildMarkImage::GetDiffBlocks, COMDAT
; _this$ = ecx

; 243  : {

  00000	55		 push	 ebp
  00001	8b ec		 mov	 ebp, esp
  00003	83 ec 2c	 sub	 esp, 44			; 0000002cH
  00006	89 4d f0	 mov	 DWORD PTR _this$[ebp], ecx

; 244  : 	BYTE posBlock = 0;

  00009	c6 45 ff 00	 mov	 BYTE PTR _posBlock$[ebp], 0

; 245  : 
; 246  : 	for (DWORD row = 0; row < BLOCK_ROW_COUNT; ++row)

  0000d	83 65 f8 00	 and	 DWORD PTR _row$7[ebp], 0
  00011	eb 07		 jmp	 SHORT $LN4@GetDiffBlo
$LN2@GetDiffBlo:
  00013	8b 45 f8	 mov	 eax, DWORD PTR _row$7[ebp]
  00016	40		 inc	 eax
  00017	89 45 f8	 mov	 DWORD PTR _row$7[ebp], eax
$LN4@GetDiffBlo:
  0001a	83 7d f8 0a	 cmp	 DWORD PTR _row$7[ebp], 10 ; 0000000aH
  0001e	0f 83 97 00 00
	00		 jae	 $LN1@GetDiffBlo

; 247  : 		for (DWORD col = 0; col < BLOCK_COL_COUNT; ++col)

  00024	83 65 f4 00	 and	 DWORD PTR _col$6[ebp], 0
  00028	eb 07		 jmp	 SHORT $LN7@GetDiffBlo
$LN5@GetDiffBlo:
  0002a	8b 45 f4	 mov	 eax, DWORD PTR _col$6[ebp]
  0002d	40		 inc	 eax
  0002e	89 45 f4	 mov	 DWORD PTR _col$6[ebp], eax
$LN7@GetDiffBlo:
  00031	83 7d f4 08	 cmp	 DWORD PTR _col$6[ebp], 8
  00035	73 7f		 jae	 SHORT $LN6@GetDiffBlo

; 248  : 		{
; 249  : 			if (m_aakBlock[row][col].m_crc != *crcList)

  00037	69 45 f8 60 1a
	03 00		 imul	 eax, DWORD PTR _row$7[ebp], 203360
  0003e	8b 4d f0	 mov	 ecx, DWORD PTR _this$[ebp]
  00041	8d 44 01 04	 lea	 eax, DWORD PTR [ecx+eax+4]
  00045	69 4d f4 4c 63
	00 00		 imul	 ecx, DWORD PTR _col$6[ebp], 25420
  0004c	8b 55 08	 mov	 edx, DWORD PTR _crcList$[ebp]
  0004f	8b 84 08 48 63
	00 00		 mov	 eax, DWORD PTR [eax+ecx+25416]
  00056	3b 02		 cmp	 eax, DWORD PTR [edx]
  00058	74 46		 je	 SHORT $LN8@GetDiffBlo

; 251  : 				mapDiffBlocks.insert(std::map<BYTE, const SGuildMarkBlock *>::value_type(posBlock, &m_aakBlock[row][col]));

  0005a	69 45 f8 60 1a
	03 00		 imul	 eax, DWORD PTR _row$7[ebp], 203360
  00061	8b 4d f0	 mov	 ecx, DWORD PTR _this$[ebp]
  00064	8d 44 01 04	 lea	 eax, DWORD PTR [ecx+eax+4]
  00068	69 4d f4 4c 63
	00 00		 imul	 ecx, DWORD PTR _col$6[ebp], 25420
  0006f	03 c1		 add	 eax, ecx
  00071	89 45 e8	 mov	 DWORD PTR $T4[ebp], eax
; File C:\Program Files (x86)\Microsoft Visual Studio\2019\Community\VC\Tools\MSVC\14.28.29333\include\type_traits

; 1443 :     return static_cast<_Ty&&>(_Arg);

  00074	8d 45 ff	 lea	 eax, DWORD PTR _posBlock$[ebp]
  00077	89 45 ec	 mov	 DWORD PTR $T5[ebp], eax
; File C:\Program Files (x86)\Microsoft Visual Studio\2019\Community\VC\Tools\MSVC\14.28.29333\include\utility

; 190  :         : first(_STD forward<_Other1>(_Val1)), second(_STD forward<_Other2>(_Val2)) {}

  0007a	8b 45 ec	 mov	 eax, DWORD PTR $T5[ebp]
  0007d	8a 00		 mov	 al, BYTE PTR [eax]
  0007f	88 45 dc	 mov	 BYTE PTR $T2[ebp], al
; File C:\Program Files (x86)\Microsoft Visual Studio\2019\Community\VC\Tools\MSVC\14.28.29333\include\type_traits

; 1443 :     return static_cast<_Ty&&>(_Arg);

  00082	8d 45 e8	 lea	 eax, DWORD PTR $T4[ebp]
  00085	89 45 e4	 mov	 DWORD PTR $T3[ebp], eax
; File C:\Program Files (x86)\Microsoft Visual Studio\2019\Community\VC\Tools\MSVC\14.28.29333\include\utility

; 190  :         : first(_STD forward<_Other1>(_Val1)), second(_STD forward<_Other2>(_Val2)) {}

  00088	8b 45 e4	 mov	 eax, DWORD PTR $T3[ebp]
  0008b	8b 00		 mov	 eax, DWORD PTR [eax]
  0008d	89 45 e0	 mov	 DWORD PTR $T2[ebp+4], eax
; File D:\Metin2 Server Files\mainline\SRC_2014\Metin2Client\UserInterface\MarkImage.cpp

; 251  : 				mapDiffBlocks.insert(std::map<BYTE, const SGuildMarkBlock *>::value_type(posBlock, &m_aakBlock[row][col]));

  00090	8d 45 dc	 lea	 eax, DWORD PTR $T2[ebp]
  00093	50		 push	 eax
  00094	8d 45 d4	 lea	 eax, DWORD PTR $T1[ebp]
  00097	50		 push	 eax
  00098	8b 4d 0c	 mov	 ecx, DWORD PTR _mapDiffBlocks$[ebp]
  0009b	e8 00 00 00 00	 call	 ??$insert@$0A@$0A@@?$_Tree@V?$_Tmap_traits@EPBUSGuildMarkBlock@@U?$less@E@std@@V?$allocator@U?$pair@$$CBEPBUSGuildMarkBlock@@@std@@@3@$0A@@std@@@std@@QAE?AU?$pair@V?$_Tree_iterator@V?$_Tree_val@U?$_Tree_simple_types@U?$pair@$$CBEPBUSGuildMarkBlock@@@std@@@std@@@std@@@std@@_N@1@$$QAU?$pair@$$CBEPBUSGuildMarkBlock@@@1@@Z ; std::_Tree<std::_Tmap_traits<unsigned char,SGuildMarkBlock const *,std::less<unsigned char>,std::allocator<std::pair<unsigned char const ,SGuildMarkBlock const *> >,0> >::insert<0,0>
$LN8@GetDiffBlo:

; 252  : 			}
; 253  : 			++crcList;

  000a0	8b 45 08	 mov	 eax, DWORD PTR _crcList$[ebp]
  000a3	83 c0 04	 add	 eax, 4
  000a6	89 45 08	 mov	 DWORD PTR _crcList$[ebp], eax

; 254  : 			++posBlock;

  000a9	8a 45 ff	 mov	 al, BYTE PTR _posBlock$[ebp]
  000ac	04 01		 add	 al, 1
  000ae	88 45 ff	 mov	 BYTE PTR _posBlock$[ebp], al

; 255  : 		}

  000b1	e9 74 ff ff ff	 jmp	 $LN5@GetDiffBlo
$LN6@GetDiffBlo:
  000b6	e9 58 ff ff ff	 jmp	 $LN2@GetDiffBlo
$LN1@GetDiffBlo:

; 256  : }

  000bb	c9		 leave
  000bc	c2 08 00	 ret	 8
?GetDiffBlocks@CGuildMarkImage@@QAEXPBKAAV?$map@EPBUSGuildMarkBlock@@U?$less@E@std@@V?$allocator@U?$pair@$$CBEPBUSGuildMarkBlock@@@std@@@3@@std@@@Z ENDP ; CGuildMarkImage::GetDiffBlocks
_TEXT	ENDS
; Function compile flags: /Odspy
; File D:\Metin2 Server Files\mainline\SRC_2014\Metin2Client\UserInterface\MarkImage.cpp
;	COMDAT ?GetBlockCRCList@CGuildMarkImage@@QAEXPAK@Z
_TEXT	SEGMENT
_this$ = -12						; size = 4
_col$1 = -8						; size = 4
_row$2 = -4						; size = 4
_crcList$ = 8						; size = 4
?GetBlockCRCList@CGuildMarkImage@@QAEXPAK@Z PROC	; CGuildMarkImage::GetBlockCRCList, COMDAT
; _this$ = ecx

; 259  : {

  00000	55		 push	 ebp
  00001	8b ec		 mov	 ebp, esp
  00003	83 ec 0c	 sub	 esp, 12			; 0000000cH
  00006	89 4d f4	 mov	 DWORD PTR _this$[ebp], ecx

; 260  : 	for (DWORD row = 0; row < BLOCK_ROW_COUNT; ++row)

  00009	83 65 fc 00	 and	 DWORD PTR _row$2[ebp], 0
  0000d	eb 07		 jmp	 SHORT $LN4@GetBlockCR
$LN2@GetBlockCR:
  0000f	8b 45 fc	 mov	 eax, DWORD PTR _row$2[ebp]
  00012	40		 inc	 eax
  00013	89 45 fc	 mov	 DWORD PTR _row$2[ebp], eax
$LN4@GetBlockCR:
  00016	83 7d fc 0a	 cmp	 DWORD PTR _row$2[ebp], 10 ; 0000000aH
  0001a	73 41		 jae	 SHORT $LN1@GetBlockCR

; 261  : 		for (DWORD col = 0; col < BLOCK_COL_COUNT; ++col)

  0001c	83 65 f8 00	 and	 DWORD PTR _col$1[ebp], 0
  00020	eb 07		 jmp	 SHORT $LN7@GetBlockCR
$LN5@GetBlockCR:
  00022	8b 45 f8	 mov	 eax, DWORD PTR _col$1[ebp]
  00025	40		 inc	 eax
  00026	89 45 f8	 mov	 DWORD PTR _col$1[ebp], eax
$LN7@GetBlockCR:
  00029	83 7d f8 08	 cmp	 DWORD PTR _col$1[ebp], 8
  0002d	73 2c		 jae	 SHORT $LN6@GetBlockCR

; 262  : 			*(crcList++) = m_aakBlock[row][col].GetCRC();

  0002f	69 45 fc 60 1a
	03 00		 imul	 eax, DWORD PTR _row$2[ebp], 203360
  00036	8b 4d f4	 mov	 ecx, DWORD PTR _this$[ebp]
  00039	8d 4c 01 04	 lea	 ecx, DWORD PTR [ecx+eax+4]
  0003d	69 45 f8 4c 63
	00 00		 imul	 eax, DWORD PTR _col$1[ebp], 25420
  00044	03 c8		 add	 ecx, eax
  00046	e8 00 00 00 00	 call	 ?GetCRC@SGuildMarkBlock@@QBEKXZ ; SGuildMarkBlock::GetCRC
  0004b	8b 4d 08	 mov	 ecx, DWORD PTR _crcList$[ebp]
  0004e	89 01		 mov	 DWORD PTR [ecx], eax
  00050	8b 45 08	 mov	 eax, DWORD PTR _crcList$[ebp]
  00053	83 c0 04	 add	 eax, 4
  00056	89 45 08	 mov	 DWORD PTR _crcList$[ebp], eax
  00059	eb c7		 jmp	 SHORT $LN5@GetBlockCR
$LN6@GetBlockCR:
  0005b	eb b2		 jmp	 SHORT $LN2@GetBlockCR
$LN1@GetBlockCR:

; 263  : }

  0005d	c9		 leave
  0005e	c2 04 00	 ret	 4
?GetBlockCRCList@CGuildMarkImage@@QAEXPAK@Z ENDP	; CGuildMarkImage::GetBlockCRCList
_TEXT	ENDS
; Function compile flags: /Odspy
; File D:\Metin2 Server Files\mainline\SRC_2014\Metin2Client\UserInterface\MarkImage.cpp
;	COMDAT ?GetEmptyPosition@CGuildMarkImage@@QAEKXZ
_TEXT	SEGMENT
_this$ = -128						; size = 4
_col$1 = -124						; size = 4
_row$2 = -120						; size = 4
_kMark$ = -116						; size = 768
__$ArrayPad$ = 652					; size = 4
?GetEmptyPosition@CGuildMarkImage@@QAEKXZ PROC		; CGuildMarkImage::GetEmptyPosition, COMDAT
; _this$ = ecx

; 225  : {

  00000	55		 push	 ebp
  00001	8d ac 24 70 fd
	ff ff		 lea	 ebp, DWORD PTR [esp-656]
  00008	81 ec 10 03 00
	00		 sub	 esp, 784		; 00000310H
  0000e	a1 00 00 00 00	 mov	 eax, DWORD PTR ___security_cookie
  00013	33 c5		 xor	 eax, ebp
  00015	89 85 8c 02 00
	00		 mov	 DWORD PTR __$ArrayPad$[ebp], eax
  0001b	89 4d 80	 mov	 DWORD PTR _this$[ebp], ecx

; 226  : 	SGuildMark kMark;
; 227  : 
; 228  : 	for (DWORD row = 0; row < MARK_ROW_COUNT; ++row)

  0001e	83 65 88 00	 and	 DWORD PTR _row$2[ebp], 0
  00022	eb 07		 jmp	 SHORT $LN4@GetEmptyPo
$LN2@GetEmptyPo:
  00024	8b 45 88	 mov	 eax, DWORD PTR _row$2[ebp]
  00027	40		 inc	 eax
  00028	89 45 88	 mov	 DWORD PTR _row$2[ebp], eax
$LN4@GetEmptyPo:
  0002b	83 7d 88 28	 cmp	 DWORD PTR _row$2[ebp], 40 ; 00000028H
  0002f	73 4d		 jae	 SHORT $LN3@GetEmptyPo

; 229  : 	{
; 230  : 		for (DWORD col = 0; col < MARK_COL_COUNT; ++col)

  00031	83 65 84 00	 and	 DWORD PTR _col$1[ebp], 0
  00035	eb 07		 jmp	 SHORT $LN7@GetEmptyPo
$LN5@GetEmptyPo:
  00037	8b 45 84	 mov	 eax, DWORD PTR _col$1[ebp]
  0003a	40		 inc	 eax
  0003b	89 45 84	 mov	 DWORD PTR _col$1[ebp], eax
$LN7@GetEmptyPo:
  0003e	83 7d 84 20	 cmp	 DWORD PTR _col$1[ebp], 32 ; 00000020H
  00042	73 38		 jae	 SHORT $LN6@GetEmptyPo

; 231  : 		{
; 232  : 			GetData(col * SGuildMark::WIDTH, row * SGuildMark::HEIGHT, SGuildMark::WIDTH, SGuildMark::HEIGHT, kMark.m_apxBuf);

  00044	8d 45 8c	 lea	 eax, DWORD PTR _kMark$[ebp]
  00047	50		 push	 eax
  00048	6a 0c		 push	 12			; 0000000cH
  0004a	6a 10		 push	 16			; 00000010H
  0004c	6b 45 88 0c	 imul	 eax, DWORD PTR _row$2[ebp], 12
  00050	50		 push	 eax
  00051	8b 45 84	 mov	 eax, DWORD PTR _col$1[ebp]
  00054	c1 e0 04	 shl	 eax, 4
  00057	50		 push	 eax
  00058	8b 4d 80	 mov	 ecx, DWORD PTR _this$[ebp]
  0005b	e8 00 00 00 00	 call	 ?GetData@CGuildMarkImage@@QAEXIIIIPAX@Z ; CGuildMarkImage::GetData

; 233  : 
; 234  : 			if (kMark.IsEmpty())

  00060	8d 4d 8c	 lea	 ecx, DWORD PTR _kMark$[ebp]
  00063	e8 00 00 00 00	 call	 ?IsEmpty@SGuildMark@@QAE_NXZ ; SGuildMark::IsEmpty
  00068	0f b6 c0	 movzx	 eax, al
  0006b	85 c0		 test	 eax, eax
  0006d	74 0b		 je	 SHORT $LN8@GetEmptyPo

; 235  : 				return (row * MARK_COL_COUNT + col);

  0006f	8b 45 88	 mov	 eax, DWORD PTR _row$2[ebp]
  00072	c1 e0 05	 shl	 eax, 5
  00075	03 45 84	 add	 eax, DWORD PTR _col$1[ebp]
  00078	eb 07		 jmp	 SHORT $LN1@GetEmptyPo
$LN8@GetEmptyPo:

; 236  : 		}

  0007a	eb bb		 jmp	 SHORT $LN5@GetEmptyPo
$LN6@GetEmptyPo:

; 237  : 	}

  0007c	eb a6		 jmp	 SHORT $LN2@GetEmptyPo
$LN3@GetEmptyPo:

; 238  : 
; 239  : 	return INVALID_MARK_POSITION;

  0007e	83 c8 ff	 or	 eax, -1
$LN1@GetEmptyPo:

; 240  : }

  00081	8b 8d 8c 02 00
	00		 mov	 ecx, DWORD PTR __$ArrayPad$[ebp]
  00087	33 cd		 xor	 ecx, ebp
  00089	e8 00 00 00 00	 call	 @__security_check_cookie@4
  0008e	81 c5 90 02 00
	00		 add	 ebp, 656		; 00000290H
  00094	c9		 leave
  00095	c3		 ret	 0
?GetEmptyPosition@CGuildMarkImage@@QAEKXZ ENDP		; CGuildMarkImage::GetEmptyPosition
_TEXT	ENDS
; Function compile flags: /Odspy
; File D:\Metin2 Server Files\mainline\SRC_2014\Metin2Client\UserInterface\MarkImage.cpp
; File D:\Metin2 Server Files\mainline\SRC_2014\Metin2Client\eterBase\Singleton.h
; File D:\Metin2 Server Files\mainline\SRC_2014\Metin2Client\UserInterface\MarkImage.cpp
;	COMDAT ?SaveBlockFromCompressedData@CGuildMarkImage@@QAE_NKPBEK@Z
_TEXT	SEGMENT
$T1 = -128						; size = 4
_colBlock$ = -124					; size = 4
_this$ = -120						; size = 4
_rowBlock$ = -116					; size = 4
_sizeBuf$ = -112					; size = 4
_apxBuf$ = -108						; size = 12288
__$ArrayPad$ = 12180					; size = 4
_posBlock$ = 12192					; size = 4
_pbComp$ = 12196					; size = 4
_dwCompSize$ = 12200					; size = 4
?SaveBlockFromCompressedData@CGuildMarkImage@@QAE_NKPBEK@Z PROC ; CGuildMarkImage::SaveBlockFromCompressedData, COMDAT
; _this$ = ecx

; 183  : {

  00000	55		 push	 ebp
  00001	8d ac 24 68 d0
	ff ff		 lea	 ebp, DWORD PTR [esp-12184]
  00008	b8 18 30 00 00	 mov	 eax, 12312		; 00003018H
  0000d	e8 00 00 00 00	 call	 __chkstk
  00012	a1 00 00 00 00	 mov	 eax, DWORD PTR ___security_cookie
  00017	33 c5		 xor	 eax, ebp
  00019	89 85 94 2f 00
	00		 mov	 DWORD PTR __$ArrayPad$[ebp], eax
  0001f	89 4d 88	 mov	 DWORD PTR _this$[ebp], ecx

; 184  : 	if (posBlock >= BLOCK_TOTAL_COUNT)

  00022	83 bd a0 2f 00
	00 50		 cmp	 DWORD PTR _posBlock$[ebp], 80 ; 00000050H
  00029	72 07		 jb	 SHORT $LN2@SaveBlockF

; 185  : 		return false;

  0002b	32 c0		 xor	 al, al
  0002d	e9 e0 00 00 00	 jmp	 $LN1@SaveBlockF
$LN2@SaveBlockF:

; 186  : 
; 187  : 	Pixel apxBuf[SGuildMarkBlock::SIZE];
; 188  : 	size_t sizeBuf = sizeof(apxBuf);

  00032	c7 45 90 00 30
	00 00		 mov	 DWORD PTR _sizeBuf$[ebp], 12288 ; 00003000H
; File D:\Metin2 Server Files\mainline\SRC_2014\Metin2Client\eterBase\Singleton.h

; 27   : 		return (*ms_singleton);

  00039	a1 00 00 00 00	 mov	 eax, DWORD PTR ?ms_singleton@?$CSingleton@VCLZO@@@@0PAVCLZO@@A ; CSingleton<CLZO>::ms_singleton
  0003e	89 45 80	 mov	 DWORD PTR $T1[ebp], eax
; File D:\Metin2 Server Files\mainline\SRC_2014\Metin2Client\UserInterface\MarkImage.cpp

; 190  : 	if (LZO_E_OK != lzo1x_decompress_safe(pbComp, dwCompSize, (BYTE *) apxBuf, (lzo_uint*) &sizeBuf, CLZO::Instance().GetWorkMemory()))

  00041	8b 4d 80	 mov	 ecx, DWORD PTR $T1[ebp]
  00044	e8 00 00 00 00	 call	 ?GetWorkMemory@CLZO@@QAEPAEXZ ; CLZO::GetWorkMemory
  00049	50		 push	 eax
  0004a	8d 45 90	 lea	 eax, DWORD PTR _sizeBuf$[ebp]
  0004d	50		 push	 eax
  0004e	8d 45 94	 lea	 eax, DWORD PTR _apxBuf$[ebp]
  00051	50		 push	 eax
  00052	ff b5 a8 2f 00
	00		 push	 DWORD PTR _dwCompSize$[ebp]
  00058	ff b5 a4 2f 00
	00		 push	 DWORD PTR _pbComp$[ebp]
  0005e	e8 00 00 00 00	 call	 _lzo1x_decompress_safe
  00063	83 c4 14	 add	 esp, 20			; 00000014H
  00066	85 c0		 test	 eax, eax
  00068	74 19		 je	 SHORT $LN3@SaveBlockF

; 191  : 	{
; 192  : 		sys_err("CGuildMarkImage::CopyBlockFromCompressedData: cannot decompress, compressed size = %u", dwCompSize);

  0006a	ff b5 a8 2f 00
	00		 push	 DWORD PTR _dwCompSize$[ebp]
  00070	68 00 00 00 00	 push	 OFFSET ??_C@_0FG@IJMAAEIA@CGuildMarkImage?3?3CopyBlockFromC@
  00075	e8 00 00 00 00	 call	 ?TraceError@@YAXPBDZZ	; TraceError
  0007a	59		 pop	 ecx
  0007b	59		 pop	 ecx

; 193  : 		return false;

  0007c	32 c0		 xor	 al, al
  0007e	e9 8f 00 00 00	 jmp	 $LN1@SaveBlockF
$LN3@SaveBlockF:

; 194  : 	}
; 195  : 
; 196  : 	if (sizeBuf != sizeof(apxBuf))

  00083	81 7d 90 00 30
	00 00		 cmp	 DWORD PTR _sizeBuf$[ebp], 12288 ; 00003000H
  0008a	74 13		 je	 SHORT $LN4@SaveBlockF

; 197  : 	{
; 198  : 		sys_err("CGuildMarkImage::CopyBlockFromCompressedData: image corrupted, decompressed size = %u", sizeBuf);

  0008c	ff 75 90	 push	 DWORD PTR _sizeBuf$[ebp]
  0008f	68 00 00 00 00	 push	 OFFSET ??_C@_0FG@JNKKBOCL@CGuildMarkImage?3?3CopyBlockFromC@
  00094	e8 00 00 00 00	 call	 ?TraceError@@YAXPBDZZ	; TraceError
  00099	59		 pop	 ecx
  0009a	59		 pop	 ecx

; 199  : 		return false;

  0009b	32 c0		 xor	 al, al
  0009d	eb 73		 jmp	 SHORT $LN1@SaveBlockF
$LN4@SaveBlockF:

; 200  : 	}
; 201  : 
; 202  : 	DWORD rowBlock = posBlock / BLOCK_COL_COUNT;

  0009f	8b 85 a0 2f 00
	00		 mov	 eax, DWORD PTR _posBlock$[ebp]
  000a5	c1 e8 03	 shr	 eax, 3
  000a8	89 45 8c	 mov	 DWORD PTR _rowBlock$[ebp], eax

; 203  : 	DWORD colBlock = posBlock % BLOCK_COL_COUNT;

  000ab	8b 85 a0 2f 00
	00		 mov	 eax, DWORD PTR _posBlock$[ebp]
  000b1	33 d2		 xor	 edx, edx
  000b3	6a 08		 push	 8
  000b5	59		 pop	 ecx
  000b6	f7 f1		 div	 ecx
  000b8	89 55 84	 mov	 DWORD PTR _colBlock$[ebp], edx

; 204  : 
; 205  : 	PutData(colBlock * SGuildMarkBlock::WIDTH, rowBlock * SGuildMarkBlock::HEIGHT, SGuildMarkBlock::WIDTH, SGuildMarkBlock::HEIGHT, apxBuf);

  000bb	8d 45 94	 lea	 eax, DWORD PTR _apxBuf$[ebp]
  000be	50		 push	 eax
  000bf	6a 30		 push	 48			; 00000030H
  000c1	6a 40		 push	 64			; 00000040H
  000c3	6b 45 8c 30	 imul	 eax, DWORD PTR _rowBlock$[ebp], 48
  000c7	50		 push	 eax
  000c8	8b 45 84	 mov	 eax, DWORD PTR _colBlock$[ebp]
  000cb	c1 e0 06	 shl	 eax, 6
  000ce	50		 push	 eax
  000cf	8b 4d 88	 mov	 ecx, DWORD PTR _this$[ebp]
  000d2	e8 00 00 00 00	 call	 ?PutData@CGuildMarkImage@@QAEXIIIIPAX@Z ; CGuildMarkImage::PutData

; 206  : 
; 207  : 	m_aakBlock[rowBlock][colBlock].CopyFrom(pbComp, dwCompSize, GetCRC32((const char *) apxBuf, sizeof(Pixel) * SGuildMarkBlock::SIZE));

  000d7	68 00 30 00 00	 push	 12288			; 00003000H
  000dc	8d 45 94	 lea	 eax, DWORD PTR _apxBuf$[ebp]
  000df	50		 push	 eax
  000e0	e8 00 00 00 00	 call	 ?GetCRC32@@YAKPBDI@Z	; GetCRC32
  000e5	59		 pop	 ecx
  000e6	59		 pop	 ecx
  000e7	50		 push	 eax
  000e8	ff b5 a8 2f 00
	00		 push	 DWORD PTR _dwCompSize$[ebp]
  000ee	ff b5 a4 2f 00
	00		 push	 DWORD PTR _pbComp$[ebp]
  000f4	69 45 8c 60 1a
	03 00		 imul	 eax, DWORD PTR _rowBlock$[ebp], 203360
  000fb	8b 4d 88	 mov	 ecx, DWORD PTR _this$[ebp]
  000fe	8d 4c 01 04	 lea	 ecx, DWORD PTR [ecx+eax+4]
  00102	69 45 84 4c 63
	00 00		 imul	 eax, DWORD PTR _colBlock$[ebp], 25420
  00109	03 c8		 add	 ecx, eax
  0010b	e8 00 00 00 00	 call	 ?CopyFrom@SGuildMarkBlock@@QAEXPBEKK@Z ; SGuildMarkBlock::CopyFrom

; 208  : 	return true;

  00110	b0 01		 mov	 al, 1
$LN1@SaveBlockF:

; 209  : }

  00112	8b 8d 94 2f 00
	00		 mov	 ecx, DWORD PTR __$ArrayPad$[ebp]
  00118	33 cd		 xor	 ecx, ebp
  0011a	e8 00 00 00 00	 call	 @__security_check_cookie@4
  0011f	81 c5 98 2f 00
	00		 add	 ebp, 12184		; 00002f98H
  00125	c9		 leave
  00126	c2 0c 00	 ret	 12			; 0000000cH
?SaveBlockFromCompressedData@CGuildMarkImage@@QAE_NKPBEK@Z ENDP ; CGuildMarkImage::SaveBlockFromCompressedData
_TEXT	ENDS
; Function compile flags: /Odspy
; File D:\Metin2 Server Files\mainline\SRC_2014\Metin2Client\UserInterface\MarkImage.cpp
;	COMDAT ?DeleteMark@CGuildMarkImage@@QAE_NK@Z
_TEXT	SEGMENT
_this$ = -776						; size = 4
_image$ = -772						; size = 768
__$ArrayPad$ = -4					; size = 4
_posMark$ = 8						; size = 4
?DeleteMark@CGuildMarkImage@@QAE_NK@Z PROC		; CGuildMarkImage::DeleteMark, COMDAT
; _this$ = ecx

; 175  : {

  00000	55		 push	 ebp
  00001	8b ec		 mov	 ebp, esp
  00003	81 ec 08 03 00
	00		 sub	 esp, 776		; 00000308H
  00009	a1 00 00 00 00	 mov	 eax, DWORD PTR ___security_cookie
  0000e	33 c5		 xor	 eax, ebp
  00010	89 45 fc	 mov	 DWORD PTR __$ArrayPad$[ebp], eax
  00013	89 8d f8 fc ff
	ff		 mov	 DWORD PTR _this$[ebp], ecx

; 176  : 	Pixel image[SGuildMark::SIZE];
; 177  : 	memset(&image, 0, sizeof(image));

  00019	68 00 03 00 00	 push	 768			; 00000300H
  0001e	6a 00		 push	 0
  00020	8d 85 fc fc ff
	ff		 lea	 eax, DWORD PTR _image$[ebp]
  00026	50		 push	 eax
  00027	e8 00 00 00 00	 call	 _memset
  0002c	83 c4 0c	 add	 esp, 12			; 0000000cH

; 178  : 	return SaveMark(posMark, (BYTE *) &image);

  0002f	8d 85 fc fc ff
	ff		 lea	 eax, DWORD PTR _image$[ebp]
  00035	50		 push	 eax
  00036	ff 75 08	 push	 DWORD PTR _posMark$[ebp]
  00039	8b 8d f8 fc ff
	ff		 mov	 ecx, DWORD PTR _this$[ebp]
  0003f	e8 00 00 00 00	 call	 ?SaveMark@CGuildMarkImage@@QAE_NKPAE@Z ; CGuildMarkImage::SaveMark

; 179  : }

  00044	8b 4d fc	 mov	 ecx, DWORD PTR __$ArrayPad$[ebp]
  00047	33 cd		 xor	 ecx, ebp
  00049	e8 00 00 00 00	 call	 @__security_check_cookie@4
  0004e	c9		 leave
  0004f	c2 04 00	 ret	 4
?DeleteMark@CGuildMarkImage@@QAE_NK@Z ENDP		; CGuildMarkImage::DeleteMark
_TEXT	ENDS
; Function compile flags: /Odspy
; File D:\Metin2 Server Files\mainline\SRC_2014\Metin2Client\UserInterface\MarkImage.cpp
;	COMDAT ?SaveMark@CGuildMarkImage@@QAE_NKPAE@Z
_TEXT	SEGMENT
_colBlock$ = -128					; size = 4
_rowBlock$ = -124					; size = 4
_this$ = -120						; size = 4
_colMark$ = -116					; size = 4
_rowMark$ = -112					; size = 4
_apxBuf$ = -108						; size = 12288
__$ArrayPad$ = 12180					; size = 4
_posMark$ = 12192					; size = 4
_pbImage$ = 12196					; size = 4
?SaveMark@CGuildMarkImage@@QAE_NKPAE@Z PROC		; CGuildMarkImage::SaveMark, COMDAT
; _this$ = ecx

; 150  : {

  00000	55		 push	 ebp
  00001	8d ac 24 68 d0
	ff ff		 lea	 ebp, DWORD PTR [esp-12184]
  00008	b8 18 30 00 00	 mov	 eax, 12312		; 00003018H
  0000d	e8 00 00 00 00	 call	 __chkstk
  00012	a1 00 00 00 00	 mov	 eax, DWORD PTR ___security_cookie
  00017	33 c5		 xor	 eax, ebp
  00019	89 85 94 2f 00
	00		 mov	 DWORD PTR __$ArrayPad$[ebp], eax
  0001f	89 4d 88	 mov	 DWORD PTR _this$[ebp], ecx

; 151  : 	if (posMark >= MARK_TOTAL_COUNT)

  00022	81 bd a0 2f 00
	00 00 05 00 00	 cmp	 DWORD PTR _posMark$[ebp], 1280 ; 00000500H
  0002c	72 19		 jb	 SHORT $LN2@SaveMark

; 152  : 	{
; 153  : 		sys_err("CGuildMarkImage::CopyMarkFromData: Invalid mark position %u", posMark);

  0002e	ff b5 a0 2f 00
	00		 push	 DWORD PTR _posMark$[ebp]
  00034	68 00 00 00 00	 push	 OFFSET ??_C@_0DM@NNKMJGHN@CGuildMarkImage?3?3CopyMarkFromDa@
  00039	e8 00 00 00 00	 call	 ?TraceError@@YAXPBDZZ	; TraceError
  0003e	59		 pop	 ecx
  0003f	59		 pop	 ecx

; 154  : 		return false;

  00040	32 c0		 xor	 al, al
  00042	e9 a9 00 00 00	 jmp	 $LN1@SaveMark
$LN2@SaveMark:

; 155  : 	}
; 156  : 
; 157  : 	//    .
; 158  : 	DWORD colMark = posMark % MARK_COL_COUNT;

  00047	8b 85 a0 2f 00
	00		 mov	 eax, DWORD PTR _posMark$[ebp]
  0004d	33 d2		 xor	 edx, edx
  0004f	6a 20		 push	 32			; 00000020H
  00051	59		 pop	 ecx
  00052	f7 f1		 div	 ecx
  00054	89 55 8c	 mov	 DWORD PTR _colMark$[ebp], edx

; 159  : 	DWORD rowMark = posMark / MARK_COL_COUNT;

  00057	8b 85 a0 2f 00
	00		 mov	 eax, DWORD PTR _posMark$[ebp]
  0005d	c1 e8 05	 shr	 eax, 5
  00060	89 45 90	 mov	 DWORD PTR _rowMark$[ebp], eax

; 160  : 
; 161  : 	printf("PutMark pos %u %ux%u\n", posMark, colMark * SGuildMark::WIDTH, rowMark * SGuildMark::HEIGHT);

  00063	6b 45 90 0c	 imul	 eax, DWORD PTR _rowMark$[ebp], 12
  00067	50		 push	 eax
  00068	8b 45 8c	 mov	 eax, DWORD PTR _colMark$[ebp]
  0006b	c1 e0 04	 shl	 eax, 4
  0006e	50		 push	 eax
  0006f	ff b5 a0 2f 00
	00		 push	 DWORD PTR _posMark$[ebp]
  00075	68 00 00 00 00	 push	 OFFSET ??_C@_0BG@PFKANOHB@PutMark?5pos?5?$CFu?5?$CFux?$CFu?6@
  0007a	e8 00 00 00 00	 call	 _printf
  0007f	83 c4 10	 add	 esp, 16			; 00000010H

; 162  : 	PutData(colMark * SGuildMark::WIDTH, rowMark * SGuildMark::HEIGHT, SGuildMark::WIDTH, SGuildMark::HEIGHT, pbImage);

  00082	ff b5 a4 2f 00
	00		 push	 DWORD PTR _pbImage$[ebp]
  00088	6a 0c		 push	 12			; 0000000cH
  0008a	6a 10		 push	 16			; 00000010H
  0008c	6b 45 90 0c	 imul	 eax, DWORD PTR _rowMark$[ebp], 12
  00090	50		 push	 eax
  00091	8b 45 8c	 mov	 eax, DWORD PTR _colMark$[ebp]
  00094	c1 e0 04	 shl	 eax, 4
  00097	50		 push	 eax
  00098	8b 4d 88	 mov	 ecx, DWORD PTR _this$[ebp]
  0009b	e8 00 00 00 00	 call	 ?PutData@CGuildMarkImage@@QAEXIIIIPAX@Z ; CGuildMarkImage::PutData

; 163  : 
; 164  : 	//    
; 165  : 	DWORD rowBlock = rowMark / SGuildMarkBlock::MARK_PER_BLOCK_HEIGHT;

  000a0	8b 45 90	 mov	 eax, DWORD PTR _rowMark$[ebp]
  000a3	c1 e8 02	 shr	 eax, 2
  000a6	89 45 84	 mov	 DWORD PTR _rowBlock$[ebp], eax

; 166  : 	DWORD colBlock = colMark / SGuildMarkBlock::MARK_PER_BLOCK_WIDTH;

  000a9	8b 45 8c	 mov	 eax, DWORD PTR _colMark$[ebp]
  000ac	c1 e8 02	 shr	 eax, 2
  000af	89 45 80	 mov	 DWORD PTR _colBlock$[ebp], eax

; 167  : 
; 168  : 	Pixel apxBuf[SGuildMarkBlock::SIZE];
; 169  : 	GetData(colBlock * SGuildMarkBlock::WIDTH, rowBlock * SGuildMarkBlock::HEIGHT, SGuildMarkBlock::WIDTH, SGuildMarkBlock::HEIGHT, apxBuf);

  000b2	8d 45 94	 lea	 eax, DWORD PTR _apxBuf$[ebp]
  000b5	50		 push	 eax
  000b6	6a 30		 push	 48			; 00000030H
  000b8	6a 40		 push	 64			; 00000040H
  000ba	6b 45 84 30	 imul	 eax, DWORD PTR _rowBlock$[ebp], 48
  000be	50		 push	 eax
  000bf	8b 45 80	 mov	 eax, DWORD PTR _colBlock$[ebp]
  000c2	c1 e0 06	 shl	 eax, 6
  000c5	50		 push	 eax
  000c6	8b 4d 88	 mov	 ecx, DWORD PTR _this$[ebp]
  000c9	e8 00 00 00 00	 call	 ?GetData@CGuildMarkImage@@QAEXIIIIPAX@Z ; CGuildMarkImage::GetData

; 170  : 	m_aakBlock[rowBlock][colBlock].Compress(apxBuf);

  000ce	8d 45 94	 lea	 eax, DWORD PTR _apxBuf$[ebp]
  000d1	50		 push	 eax
  000d2	69 45 84 60 1a
	03 00		 imul	 eax, DWORD PTR _rowBlock$[ebp], 203360
  000d9	8b 4d 88	 mov	 ecx, DWORD PTR _this$[ebp]
  000dc	8d 4c 01 04	 lea	 ecx, DWORD PTR [ecx+eax+4]
  000e0	69 45 80 4c 63
	00 00		 imul	 eax, DWORD PTR _colBlock$[ebp], 25420
  000e7	03 c8		 add	 ecx, eax
  000e9	e8 00 00 00 00	 call	 ?Compress@SGuildMarkBlock@@QAEXPBK@Z ; SGuildMarkBlock::Compress

; 171  : 	return true;

  000ee	b0 01		 mov	 al, 1
$LN1@SaveMark:

; 172  : }

  000f0	8b 8d 94 2f 00
	00		 mov	 ecx, DWORD PTR __$ArrayPad$[ebp]
  000f6	33 cd		 xor	 ecx, ebp
  000f8	e8 00 00 00 00	 call	 @__security_check_cookie@4
  000fd	81 c5 98 2f 00
	00		 add	 ebp, 12184		; 00002f98H
  00103	c9		 leave
  00104	c2 08 00	 ret	 8
?SaveMark@CGuildMarkImage@@QAE_NKPAE@Z ENDP		; CGuildMarkImage::SaveMark
_TEXT	ENDS
; Function compile flags: /Odspy
; File D:\Metin2 Server Files\mainline\SRC_2014\Metin2Client\UserInterface\MarkImage.cpp
;	COMDAT ?GetData@CGuildMarkImage@@QAEXIIIIPAX@Z
_TEXT	SEGMENT
_this$ = -4						; size = 4
_x$ = 8							; size = 4
_y$ = 12						; size = 4
_width$ = 16						; size = 4
_height$ = 20						; size = 4
_data$ = 24						; size = 4
?GetData@CGuildMarkImage@@QAEXIIIIPAX@Z PROC		; CGuildMarkImage::GetData, COMDAT
; _this$ = ecx

; 138  : {

  00000	55		 push	 ebp
  00001	8b ec		 mov	 ebp, esp
  00003	51		 push	 ecx
  00004	89 4d fc	 mov	 DWORD PTR _this$[ebp], ecx

; 139  : 	ilBindImage(m_uImg);

  00007	8b 45 fc	 mov	 eax, DWORD PTR _this$[ebp]
  0000a	ff b0 c4 07 5f
	00		 push	 DWORD PTR [eax+6227908]
  00010	ff 15 00 00 00
	00		 call	 DWORD PTR __imp__ilBindImage@4

; 140  : 	ilCopyPixels(x, y, 0, width, height, 1, IL_BGRA, IL_UNSIGNED_BYTE, data);	

  00016	ff 75 18	 push	 DWORD PTR _data$[ebp]
  00019	68 01 14 00 00	 push	 5121			; 00001401H
  0001e	68 e1 80 00 00	 push	 32993			; 000080e1H
  00023	6a 01		 push	 1
  00025	ff 75 14	 push	 DWORD PTR _height$[ebp]
  00028	ff 75 10	 push	 DWORD PTR _width$[ebp]
  0002b	6a 00		 push	 0
  0002d	ff 75 0c	 push	 DWORD PTR _y$[ebp]
  00030	ff 75 08	 push	 DWORD PTR _x$[ebp]
  00033	ff 15 00 00 00
	00		 call	 DWORD PTR __imp__ilCopyPixels@36

; 141  : }

  00039	c9		 leave
  0003a	c2 14 00	 ret	 20			; 00000014H
?GetData@CGuildMarkImage@@QAEXIIIIPAX@Z ENDP		; CGuildMarkImage::GetData
_TEXT	ENDS
; Function compile flags: /Odspy
; File D:\Metin2 Server Files\mainline\SRC_2014\Metin2Client\UserInterface\MarkImage.cpp
;	COMDAT ?PutData@CGuildMarkImage@@QAEXIIIIPAX@Z
_TEXT	SEGMENT
_this$ = -4						; size = 4
_x$ = 8							; size = 4
_y$ = 12						; size = 4
_width$ = 16						; size = 4
_height$ = 20						; size = 4
_data$ = 24						; size = 4
?PutData@CGuildMarkImage@@QAEXIIIIPAX@Z PROC		; CGuildMarkImage::PutData, COMDAT
; _this$ = ecx

; 132  : {

  00000	55		 push	 ebp
  00001	8b ec		 mov	 ebp, esp
  00003	51		 push	 ecx
  00004	89 4d fc	 mov	 DWORD PTR _this$[ebp], ecx

; 133  : 	ilBindImage(m_uImg);

  00007	8b 45 fc	 mov	 eax, DWORD PTR _this$[ebp]
  0000a	ff b0 c4 07 5f
	00		 push	 DWORD PTR [eax+6227908]
  00010	ff 15 00 00 00
	00		 call	 DWORD PTR __imp__ilBindImage@4

; 134  : 	ilSetPixels(x, y, 0, width, height, 1, IL_BGRA, IL_UNSIGNED_BYTE, data);

  00016	ff 75 18	 push	 DWORD PTR _data$[ebp]
  00019	68 01 14 00 00	 push	 5121			; 00001401H
  0001e	68 e1 80 00 00	 push	 32993			; 000080e1H
  00023	6a 01		 push	 1
  00025	ff 75 14	 push	 DWORD PTR _height$[ebp]
  00028	ff 75 10	 push	 DWORD PTR _width$[ebp]
  0002b	6a 00		 push	 0
  0002d	ff 75 0c	 push	 DWORD PTR _y$[ebp]
  00030	ff 75 08	 push	 DWORD PTR _x$[ebp]
  00033	ff 15 00 00 00
	00		 call	 DWORD PTR __imp__ilSetPixels@36

; 135  : }

  00039	c9		 leave
  0003a	c2 14 00	 ret	 20			; 00000014H
?PutData@CGuildMarkImage@@QAEXIIIIPAX@Z ENDP		; CGuildMarkImage::PutData
_TEXT	ENDS
; Function compile flags: /Odspy
; File D:\Metin2 Server Files\mainline\SRC_2014\Metin2Client\UserInterface\MarkImage.cpp
;	COMDAT ?Load@CGuildMarkImage@@QAE_NPBD@Z
_TEXT	SEGMENT
_this$ = -4						; size = 4
_c_szFileName$ = 8					; size = 4
?Load@CGuildMarkImage@@QAE_NPBD@Z PROC			; CGuildMarkImage::Load, COMDAT
; _this$ = ecx

; 94   : {

  00000	55		 push	 ebp
  00001	8b ec		 mov	 ebp, esp
  00003	51		 push	 ecx
  00004	89 4d fc	 mov	 DWORD PTR _this$[ebp], ecx

; 95   : 	Destroy();

  00007	8b 4d fc	 mov	 ecx, DWORD PTR _this$[ebp]
  0000a	e8 00 00 00 00	 call	 ?Destroy@CGuildMarkImage@@QAEXXZ ; CGuildMarkImage::Destroy

; 96   : 	Create();	

  0000f	8b 4d fc	 mov	 ecx, DWORD PTR _this$[ebp]
  00012	e8 00 00 00 00	 call	 ?Create@CGuildMarkImage@@QAEXXZ ; CGuildMarkImage::Create

; 97   : 
; 98   : 	ilBindImage(m_uImg);

  00017	8b 45 fc	 mov	 eax, DWORD PTR _this$[ebp]
  0001a	ff b0 c4 07 5f
	00		 push	 DWORD PTR [eax+6227908]
  00020	ff 15 00 00 00
	00		 call	 DWORD PTR __imp__ilBindImage@4

; 99   : 	ilEnable(IL_ORIGIN_SET);

  00026	68 00 06 00 00	 push	 1536			; 00000600H
  0002b	ff 15 00 00 00
	00		 call	 DWORD PTR __imp__ilEnable@4

; 100  : 	ilOriginFunc(IL_ORIGIN_UPPER_LEFT);

  00031	68 02 06 00 00	 push	 1538			; 00000602H
  00036	ff 15 00 00 00
	00		 call	 DWORD PTR __imp__ilOriginFunc@4

; 101  : 
; 102  : 	if (!ilLoad(IL_TYPE_UNKNOWN, (const ILstring) c_szFileName))

  0003c	ff 75 08	 push	 DWORD PTR _c_szFileName$[ebp]
  0003f	6a 00		 push	 0
  00041	ff 15 00 00 00
	00		 call	 DWORD PTR __imp__ilLoad@8
  00047	0f b6 c0	 movzx	 eax, al
  0004a	85 c0		 test	 eax, eax
  0004c	75 30		 jne	 SHORT $LN2@Load

; 103  : 	{
; 104  : 		Build(c_szFileName);

  0004e	ff 75 08	 push	 DWORD PTR _c_szFileName$[ebp]
  00051	8b 4d fc	 mov	 ecx, DWORD PTR _this$[ebp]
  00054	e8 00 00 00 00	 call	 ?Build@CGuildMarkImage@@QAE_NPBD@Z ; CGuildMarkImage::Build

; 105  : 		
; 106  : 		if (!Load(c_szFileName))

  00059	ff 75 08	 push	 DWORD PTR _c_szFileName$[ebp]
  0005c	8b 4d fc	 mov	 ecx, DWORD PTR _this$[ebp]
  0005f	e8 00 00 00 00	 call	 ?Load@CGuildMarkImage@@QAE_NPBD@Z ; CGuildMarkImage::Load
  00064	0f b6 c0	 movzx	 eax, al
  00067	85 c0		 test	 eax, eax
  00069	75 13		 jne	 SHORT $LN2@Load

; 107  : 		{
; 108  : 			sys_err("CGuildMarkImage: cannot open file for writing %s", c_szFileName);

  0006b	ff 75 08	 push	 DWORD PTR _c_szFileName$[ebp]
  0006e	68 00 00 00 00	 push	 OFFSET ??_C@_0DB@LCKJIDBG@CGuildMarkImage?3?5cannot?5open?5fi@
  00073	e8 00 00 00 00	 call	 ?TraceError@@YAXPBDZZ	; TraceError
  00078	59		 pop	 ecx
  00079	59		 pop	 ecx

; 109  : 			return false;

  0007a	32 c0		 xor	 al, al
  0007c	eb 70		 jmp	 SHORT $LN1@Load
$LN2@Load:

; 110  : 		}
; 111  : 	}
; 112  : 
; 113  : 	if (ilGetInteger(IL_IMAGE_WIDTH) != WIDTH)	

  0007e	68 e4 0d 00 00	 push	 3556			; 00000de4H
  00083	ff 15 00 00 00
	00		 call	 DWORD PTR __imp__ilGetInteger@4
  00089	3d 00 02 00 00	 cmp	 eax, 512		; 00000200H
  0008e	74 19		 je	 SHORT $LN4@Load

; 114  : 	{
; 115  : 		sys_err("CGuildMarkImage: %s width must be %u", c_szFileName, WIDTH);

  00090	68 00 02 00 00	 push	 512			; 00000200H
  00095	ff 75 08	 push	 DWORD PTR _c_szFileName$[ebp]
  00098	68 00 00 00 00	 push	 OFFSET ??_C@_0CF@POGBMAHP@CGuildMarkImage?3?5?$CFs?5width?5must?5@
  0009d	e8 00 00 00 00	 call	 ?TraceError@@YAXPBDZZ	; TraceError
  000a2	83 c4 0c	 add	 esp, 12			; 0000000cH

; 116  : 		return false;

  000a5	32 c0		 xor	 al, al
  000a7	eb 45		 jmp	 SHORT $LN1@Load
$LN4@Load:

; 117  : 	}
; 118  : 
; 119  : 	if (ilGetInteger(IL_IMAGE_HEIGHT) != HEIGHT)

  000a9	68 e5 0d 00 00	 push	 3557			; 00000de5H
  000ae	ff 15 00 00 00
	00		 call	 DWORD PTR __imp__ilGetInteger@4
  000b4	3d 00 02 00 00	 cmp	 eax, 512		; 00000200H
  000b9	74 19		 je	 SHORT $LN5@Load

; 120  : 	{
; 121  : 		sys_err("CGuildMarkImage: %s height must be %u", c_szFileName, HEIGHT);

  000bb	68 00 02 00 00	 push	 512			; 00000200H
  000c0	ff 75 08	 push	 DWORD PTR _c_szFileName$[ebp]
  000c3	68 00 00 00 00	 push	 OFFSET ??_C@_0CG@ENKENEAG@CGuildMarkImage?3?5?$CFs?5height?5must@
  000c8	e8 00 00 00 00	 call	 ?TraceError@@YAXPBDZZ	; TraceError
  000cd	83 c4 0c	 add	 esp, 12			; 0000000cH

; 122  : 		return false;

  000d0	32 c0		 xor	 al, al
  000d2	eb 1a		 jmp	 SHORT $LN1@Load
$LN5@Load:

; 123  : 	}
; 124  : 
; 125  : 	ilConvertImage(IL_BGRA, IL_UNSIGNED_BYTE);

  000d4	68 01 14 00 00	 push	 5121			; 00001401H
  000d9	68 e1 80 00 00	 push	 32993			; 000080e1H
  000de	ff 15 00 00 00
	00		 call	 DWORD PTR __imp__ilConvertImage@8

; 126  : 
; 127  : 	BuildAllBlocks();

  000e4	8b 4d fc	 mov	 ecx, DWORD PTR _this$[ebp]
  000e7	e8 00 00 00 00	 call	 ?BuildAllBlocks@CGuildMarkImage@@AAEXXZ ; CGuildMarkImage::BuildAllBlocks

; 128  : 	return true;

  000ec	b0 01		 mov	 al, 1
$LN1@Load:

; 129  : }

  000ee	c9		 leave
  000ef	c2 04 00	 ret	 4
?Load@CGuildMarkImage@@QAE_NPBD@Z ENDP			; CGuildMarkImage::Load
_TEXT	ENDS
; Function compile flags: /Odspy
; File D:\Metin2 Server Files\mainline\SRC_2014\Metin2Client\UserInterface\MarkImage.cpp
;	COMDAT ?Save@CGuildMarkImage@@QAE_NPBD@Z
_TEXT	SEGMENT
_this$ = -4						; size = 4
_c_szFileName$ = 8					; size = 4
?Save@CGuildMarkImage@@QAE_NPBD@Z PROC			; CGuildMarkImage::Save, COMDAT
; _this$ = ecx

; 55   : {

  00000	55		 push	 ebp
  00001	8b ec		 mov	 ebp, esp
  00003	51		 push	 ecx
  00004	89 4d fc	 mov	 DWORD PTR _this$[ebp], ecx

; 56   : 	ilEnable(IL_FILE_OVERWRITE);

  00007	68 20 06 00 00	 push	 1568			; 00000620H
  0000c	ff 15 00 00 00
	00		 call	 DWORD PTR __imp__ilEnable@4

; 57   : 	ilBindImage(m_uImg);

  00012	8b 45 fc	 mov	 eax, DWORD PTR _this$[ebp]
  00015	ff b0 c4 07 5f
	00		 push	 DWORD PTR [eax+6227908]
  0001b	ff 15 00 00 00
	00		 call	 DWORD PTR __imp__ilBindImage@4

; 58   : 
; 59   : 	if (!ilSave(IL_TGA, (const ILstring)c_szFileName))

  00021	ff 75 08	 push	 DWORD PTR _c_szFileName$[ebp]
  00024	68 2d 04 00 00	 push	 1069			; 0000042dH
  00029	ff 15 00 00 00
	00		 call	 DWORD PTR __imp__ilSave@8
  0002f	0f b6 c0	 movzx	 eax, al
  00032	85 c0		 test	 eax, eax
  00034	75 04		 jne	 SHORT $LN2@Save

; 60   : 		return false;

  00036	32 c0		 xor	 al, al
  00038	eb 02		 jmp	 SHORT $LN1@Save
$LN2@Save:

; 61   : 
; 62   : 	return true;

  0003a	b0 01		 mov	 al, 1
$LN1@Save:

; 63   : }

  0003c	c9		 leave
  0003d	c2 04 00	 ret	 4
?Save@CGuildMarkImage@@QAE_NPBD@Z ENDP			; CGuildMarkImage::Save
_TEXT	ENDS
; Function compile flags: /Odspy
; File D:\Metin2 Server Files\mainline\SRC_2014\Metin2Client\UserInterface\MarkImage.cpp
;	COMDAT ?Build@CGuildMarkImage@@QAE_NPBD@Z
_TEXT	SEGMENT
_data$ = -8						; size = 4
_this$ = -4						; size = 4
_c_szFileName$ = 8					; size = 4
?Build@CGuildMarkImage@@QAE_NPBD@Z PROC			; CGuildMarkImage::Build, COMDAT
; _this$ = ecx

; 66   : {

  00000	55		 push	 ebp
  00001	8b ec		 mov	 ebp, esp
  00003	51		 push	 ecx
  00004	51		 push	 ecx
  00005	89 4d fc	 mov	 DWORD PTR _this$[ebp], ecx

; 67   : 	Destroy();

  00008	8b 4d fc	 mov	 ecx, DWORD PTR _this$[ebp]
  0000b	e8 00 00 00 00	 call	 ?Destroy@CGuildMarkImage@@QAEXXZ ; CGuildMarkImage::Destroy

; 68   : 	Create();

  00010	8b 4d fc	 mov	 ecx, DWORD PTR _this$[ebp]
  00013	e8 00 00 00 00	 call	 ?Create@CGuildMarkImage@@QAEXXZ ; CGuildMarkImage::Create

; 69   : 
; 70   : 	ilBindImage(m_uImg);

  00018	8b 45 fc	 mov	 eax, DWORD PTR _this$[ebp]
  0001b	ff b0 c4 07 5f
	00		 push	 DWORD PTR [eax+6227908]
  00021	ff 15 00 00 00
	00		 call	 DWORD PTR __imp__ilBindImage@4

; 71   : 	ilEnable(IL_ORIGIN_SET);

  00027	68 00 06 00 00	 push	 1536			; 00000600H
  0002c	ff 15 00 00 00
	00		 call	 DWORD PTR __imp__ilEnable@4

; 72   : 	ilOriginFunc(IL_ORIGIN_UPPER_LEFT);

  00032	68 02 06 00 00	 push	 1538			; 00000602H
  00037	ff 15 00 00 00
	00		 call	 DWORD PTR __imp__ilOriginFunc@4

; 73   : 
; 74   : 	BYTE * data = (BYTE *) malloc(sizeof(Pixel) * WIDTH * HEIGHT);

  0003d	68 00 00 10 00	 push	 1048576			; 00100000H
  00042	e8 00 00 00 00	 call	 _malloc
  00047	59		 pop	 ecx
  00048	89 45 f8	 mov	 DWORD PTR _data$[ebp], eax

; 75   : 	memset(data, 0, sizeof(Pixel) * WIDTH * HEIGHT);

  0004b	68 00 00 10 00	 push	 1048576			; 00100000H
  00050	6a 00		 push	 0
  00052	ff 75 f8	 push	 DWORD PTR _data$[ebp]
  00055	e8 00 00 00 00	 call	 _memset
  0005a	83 c4 0c	 add	 esp, 12			; 0000000cH

; 76   : 
; 77   : 	if (!ilTexImage(WIDTH, HEIGHT, 1, 4, IL_BGRA, IL_UNSIGNED_BYTE, data))

  0005d	ff 75 f8	 push	 DWORD PTR _data$[ebp]
  00060	68 01 14 00 00	 push	 5121			; 00001401H
  00065	68 e1 80 00 00	 push	 32993			; 000080e1H
  0006a	6a 04		 push	 4
  0006c	6a 01		 push	 1
  0006e	68 00 02 00 00	 push	 512			; 00000200H
  00073	68 00 02 00 00	 push	 512			; 00000200H
  00078	ff 15 00 00 00
	00		 call	 DWORD PTR __imp__ilTexImage@28
  0007e	0f b6 c0	 movzx	 eax, al
  00081	85 c0		 test	 eax, eax
  00083	75 0f		 jne	 SHORT $LN2@Build

; 78   : 	{
; 79   : 		sys_err("CGuildMarkImage: cannot initialize image");

  00085	68 00 00 00 00	 push	 OFFSET ??_C@_0CJ@CFLIGMKO@CGuildMarkImage?3?5cannot?5initial@
  0008a	e8 00 00 00 00	 call	 ?TraceError@@YAXPBDZZ	; TraceError
  0008f	59		 pop	 ecx

; 80   : 		return false;

  00090	32 c0		 xor	 al, al
  00092	eb 2f		 jmp	 SHORT $LN1@Build
$LN2@Build:

; 81   : 	}
; 82   : 
; 83   : 	free(data);

  00094	ff 75 f8	 push	 DWORD PTR _data$[ebp]
  00097	e8 00 00 00 00	 call	 _free
  0009c	59		 pop	 ecx

; 84   : 
; 85   : 	ilEnable(IL_FILE_OVERWRITE);

  0009d	68 20 06 00 00	 push	 1568			; 00000620H
  000a2	ff 15 00 00 00
	00		 call	 DWORD PTR __imp__ilEnable@4

; 86   : 
; 87   : 	if (!ilSave(IL_TGA, (const ILstring)c_szFileName))

  000a8	ff 75 08	 push	 DWORD PTR _c_szFileName$[ebp]
  000ab	68 2d 04 00 00	 push	 1069			; 0000042dH
  000b0	ff 15 00 00 00
	00		 call	 DWORD PTR __imp__ilSave@8
  000b6	0f b6 c0	 movzx	 eax, al
  000b9	85 c0		 test	 eax, eax
  000bb	75 04		 jne	 SHORT $LN3@Build

; 88   : 		return false;

  000bd	32 c0		 xor	 al, al
  000bf	eb 02		 jmp	 SHORT $LN1@Build
$LN3@Build:

; 89   : 
; 90   : 	return true;

  000c1	b0 01		 mov	 al, 1
$LN1@Build:

; 91   : }

  000c3	c9		 leave
  000c4	c2 04 00	 ret	 4
?Build@CGuildMarkImage@@QAE_NPBD@Z ENDP			; CGuildMarkImage::Build
_TEXT	ENDS
; Function compile flags: /Odspy
; File D:\Metin2 Server Files\mainline\SRC_2014\Metin2Client\UserInterface\MarkImage.cpp
;	COMDAT ?Destroy@CGuildMarkImage@@QAEXXZ
_TEXT	SEGMENT
_this$ = -4						; size = 4
?Destroy@CGuildMarkImage@@QAEXXZ PROC			; CGuildMarkImage::Destroy, COMDAT
; _this$ = ecx

; 38   : {

  00000	55		 push	 ebp
  00001	8b ec		 mov	 ebp, esp
  00003	51		 push	 ecx
  00004	89 4d fc	 mov	 DWORD PTR _this$[ebp], ecx

; 39   : 	if (INVALID_HANDLE == m_uImg)

  00007	8b 45 fc	 mov	 eax, DWORD PTR _this$[ebp]
  0000a	83 b8 c4 07 5f
	00 ff		 cmp	 DWORD PTR [eax+6227908], -1
  00011	75 02		 jne	 SHORT $LN2@Destroy

; 40   : 		return;

  00013	eb 1b		 jmp	 SHORT $LN1@Destroy
$LN2@Destroy:

; 41   : 
; 42   : 	ilDeleteImages(1, &m_uImg);

  00015	8b 45 fc	 mov	 eax, DWORD PTR _this$[ebp]
  00018	05 c4 07 5f 00	 add	 eax, 6227908		; 005f07c4H
  0001d	50		 push	 eax
  0001e	6a 01		 push	 1
  00020	ff 15 00 00 00
	00		 call	 DWORD PTR __imp__ilDeleteImages@8

; 43   : 	m_uImg = INVALID_HANDLE;

  00026	8b 45 fc	 mov	 eax, DWORD PTR _this$[ebp]
  00029	83 88 c4 07 5f
	00 ff		 or	 DWORD PTR [eax+6227908], -1
$LN1@Destroy:

; 44   : }

  00030	c9		 leave
  00031	c3		 ret	 0
?Destroy@CGuildMarkImage@@QAEXXZ ENDP			; CGuildMarkImage::Destroy
_TEXT	ENDS
; Function compile flags: /Odspy
; File D:\Metin2 Server Files\mainline\SRC_2014\Metin2Client\UserInterface\MarkImage.cpp
;	COMDAT ?Create@CGuildMarkImage@@QAEXXZ
_TEXT	SEGMENT
_this$ = -4						; size = 4
?Create@CGuildMarkImage@@QAEXXZ PROC			; CGuildMarkImage::Create, COMDAT
; _this$ = ecx

; 47   : {

  00000	55		 push	 ebp
  00001	8b ec		 mov	 ebp, esp
  00003	51		 push	 ecx
  00004	89 4d fc	 mov	 DWORD PTR _this$[ebp], ecx

; 48   : 	if (INVALID_HANDLE != m_uImg)

  00007	8b 45 fc	 mov	 eax, DWORD PTR _this$[ebp]
  0000a	83 b8 c4 07 5f
	00 ff		 cmp	 DWORD PTR [eax+6227908], -1
  00011	74 02		 je	 SHORT $LN2@Create

; 49   : 		return;

  00013	eb 11		 jmp	 SHORT $LN1@Create
$LN2@Create:

; 50   : 
; 51   : 	ilGenImages(1, &m_uImg);

  00015	8b 45 fc	 mov	 eax, DWORD PTR _this$[ebp]
  00018	05 c4 07 5f 00	 add	 eax, 6227908		; 005f07c4H
  0001d	50		 push	 eax
  0001e	6a 01		 push	 1
  00020	ff 15 00 00 00
	00		 call	 DWORD PTR __imp__ilGenImages@8
$LN1@Create:

; 52   : }

  00026	c9		 leave
  00027	c3		 ret	 0
?Create@CGuildMarkImage@@QAEXXZ ENDP			; CGuildMarkImage::Create
_TEXT	ENDS
; Function compile flags: /Odspy
; File D:\Metin2 Server Files\mainline\SRC_2014\Metin2Client\UserInterface\MarkImage.cpp
;	COMDAT ??1CGuildMarkImage@@UAE@XZ
_TEXT	SEGMENT
_this$ = -16						; size = 4
__$EHRec$ = -12						; size = 12
??1CGuildMarkImage@@UAE@XZ PROC				; CGuildMarkImage::~CGuildMarkImage, COMDAT
; _this$ = ecx

; 33   : {

  00000	55		 push	 ebp
  00001	8b ec		 mov	 ebp, esp
  00003	6a ff		 push	 -1
  00005	68 00 00 00 00	 push	 __ehhandler$??1CGuildMarkImage@@UAE@XZ
  0000a	64 a1 00 00 00
	00		 mov	 eax, DWORD PTR fs:0
  00010	50		 push	 eax
  00011	51		 push	 ecx
  00012	a1 00 00 00 00	 mov	 eax, DWORD PTR ___security_cookie
  00017	33 c5		 xor	 eax, ebp
  00019	50		 push	 eax
  0001a	8d 45 f4	 lea	 eax, DWORD PTR __$EHRec$[ebp]
  0001d	64 a3 00 00 00
	00		 mov	 DWORD PTR fs:0, eax
  00023	89 4d f0	 mov	 DWORD PTR _this$[ebp], ecx
  00026	8b 45 f0	 mov	 eax, DWORD PTR _this$[ebp]
  00029	c7 00 00 00 00
	00		 mov	 DWORD PTR [eax], OFFSET ??_7CGuildMarkImage@@6B@

; 34   : 	Destroy();

  0002f	8b 4d f0	 mov	 ecx, DWORD PTR _this$[ebp]
  00032	e8 00 00 00 00	 call	 ?Destroy@CGuildMarkImage@@QAEXXZ ; CGuildMarkImage::Destroy

; 35   : }

  00037	8b 4d f4	 mov	 ecx, DWORD PTR __$EHRec$[ebp]
  0003a	64 89 0d 00 00
	00 00		 mov	 DWORD PTR fs:0, ecx
  00041	59		 pop	 ecx
  00042	c9		 leave
  00043	c3		 ret	 0
  00044	cc		 int	 3
  00045	cc		 int	 3
  00046	cc		 int	 3
  00047	cc		 int	 3
  00048	cc		 int	 3
_TEXT	ENDS
;	COMDAT text$x
text$x	SEGMENT
__ehhandler$??1CGuildMarkImage@@UAE@XZ:
  00000	90		 npad	 1
  00001	90		 npad	 1
  00002	8b 54 24 08	 mov	 edx, DWORD PTR [esp+8]
  00006	8d 42 0c	 lea	 eax, DWORD PTR [edx+12]
  00009	8b 4a f8	 mov	 ecx, DWORD PTR [edx-8]
  0000c	33 c8		 xor	 ecx, eax
  0000e	e8 00 00 00 00	 call	 @__security_check_cookie@4
  00013	b8 00 00 00 00	 mov	 eax, OFFSET __ehfuncinfo$??1CGuildMarkImage@@UAE@XZ
  00018	e9 00 00 00 00	 jmp	 ___CxxFrameHandler3
text$x	ENDS
??1CGuildMarkImage@@UAE@XZ ENDP				; CGuildMarkImage::~CGuildMarkImage
; Function compile flags: /Odspy
; File D:\Metin2 Server Files\mainline\SRC_2014\Metin2Client\UserInterface\MarkImage.cpp
;	COMDAT ??0CGuildMarkImage@@QAE@XZ
_TEXT	SEGMENT
_this$ = -4						; size = 4
??0CGuildMarkImage@@QAE@XZ PROC				; CGuildMarkImage::CGuildMarkImage, COMDAT
; _this$ = ecx

; 28   : {

  00000	55		 push	 ebp
  00001	8b ec		 mov	 ebp, esp
  00003	51		 push	 ecx
  00004	89 4d fc	 mov	 DWORD PTR _this$[ebp], ecx
  00007	8b 45 fc	 mov	 eax, DWORD PTR _this$[ebp]
  0000a	c7 00 00 00 00
	00		 mov	 DWORD PTR [eax], OFFSET ??_7CGuildMarkImage@@6B@

; 29   : 	m_uImg = INVALID_HANDLE;

  00010	8b 45 fc	 mov	 eax, DWORD PTR _this$[ebp]
  00013	83 88 c4 07 5f
	00 ff		 or	 DWORD PTR [eax+6227908], -1

; 30   : }

  0001a	8b 45 fc	 mov	 eax, DWORD PTR _this$[ebp]
  0001d	c9		 leave
  0001e	c3		 ret	 0
??0CGuildMarkImage@@QAE@XZ ENDP				; CGuildMarkImage::CGuildMarkImage
_TEXT	ENDS
; Function compile flags: /Odspy
; File D:\Metin2 Server Files\mainline\SRC_2014\Metin2Client\UserInterface\MarkImage.cpp
; File D:\Metin2 Server Files\mainline\SRC_2014\Metin2Client\eterBase\Singleton.h
; File D:\Metin2 Server Files\mainline\SRC_2014\Metin2Client\UserInterface\MarkImage.cpp
;	COMDAT ?Compress@SGuildMarkBlock@@QAEXPBK@Z
_TEXT	SEGMENT
$T1 = -8						; size = 4
_this$ = -4						; size = 4
_pxBuf$ = 8						; size = 4
?Compress@SGuildMarkBlock@@QAEXPBK@Z PROC		; SGuildMarkBlock::Compress, COMDAT
; _this$ = ecx

; 299  : {

  00000	55		 push	 ebp
  00001	8b ec		 mov	 ebp, esp
  00003	51		 push	 ecx
  00004	51		 push	 ecx
  00005	89 4d fc	 mov	 DWORD PTR _this$[ebp], ecx

; 300  : 	m_sizeCompBuf = MAX_COMP_SIZE;

  00008	8b 45 fc	 mov	 eax, DWORD PTR _this$[ebp]
  0000b	c7 80 44 63 00
	00 43 33 00 00	 mov	 DWORD PTR [eax+25412], 13123 ; 00003343H
; File D:\Metin2 Server Files\mainline\SRC_2014\Metin2Client\eterBase\Singleton.h

; 27   : 		return (*ms_singleton);

  00015	a1 00 00 00 00	 mov	 eax, DWORD PTR ?ms_singleton@?$CSingleton@VCLZO@@@@0PAVCLZO@@A ; CSingleton<CLZO>::ms_singleton
  0001a	89 45 f8	 mov	 DWORD PTR $T1[ebp], eax
; File D:\Metin2 Server Files\mainline\SRC_2014\Metin2Client\UserInterface\MarkImage.cpp

; 302  : 	if (LZO_E_OK != lzo1x_999_compress((const BYTE *) pxBuf,

  0001d	8b 4d f8	 mov	 ecx, DWORD PTR $T1[ebp]
  00020	e8 00 00 00 00	 call	 ?GetWorkMemory@CLZO@@QAEPAEXZ ; CLZO::GetWorkMemory
  00025	50		 push	 eax
  00026	8b 45 fc	 mov	 eax, DWORD PTR _this$[ebp]
  00029	05 44 63 00 00	 add	 eax, 25412		; 00006344H
  0002e	50		 push	 eax
  0002f	8b 45 fc	 mov	 eax, DWORD PTR _this$[ebp]
  00032	05 00 30 00 00	 add	 eax, 12288		; 00003000H
  00037	50		 push	 eax
  00038	68 00 30 00 00	 push	 12288			; 00003000H
  0003d	ff 75 08	 push	 DWORD PTR _pxBuf$[ebp]
  00040	e8 00 00 00 00	 call	 _lzo1x_999_compress
  00045	83 c4 14	 add	 esp, 20			; 00000014H
  00048	85 c0		 test	 eax, eax
  0004a	74 1d		 je	 SHORT $LN2@Compress

; 303  : 		sizeof(Pixel) * SGuildMarkBlock::SIZE, m_abCompBuf,
; 304  : 		(lzo_uint*) &m_sizeCompBuf,
; 305  : 		CLZO::Instance().GetWorkMemory()))
; 306  : 	{
; 307  : 		sys_err("SGuildMarkBlock::Compress: Error! %u > %u", sizeof(Pixel) * SGuildMarkBlock::SIZE, m_sizeCompBuf);

  0004c	8b 45 fc	 mov	 eax, DWORD PTR _this$[ebp]
  0004f	ff b0 44 63 00
	00		 push	 DWORD PTR [eax+25412]
  00055	68 00 30 00 00	 push	 12288			; 00003000H
  0005a	68 00 00 00 00	 push	 OFFSET ??_C@_0CK@BGEKGKPD@SGuildMarkBlock?3?3Compress?3?5Erro@
  0005f	e8 00 00 00 00	 call	 ?TraceError@@YAXPBDZZ	; TraceError
  00064	83 c4 0c	 add	 esp, 12			; 0000000cH

; 308  : 		return;

  00067	eb 18		 jmp	 SHORT $LN1@Compress
$LN2@Compress:

; 309  : 	}
; 310  : 
; 311  : 	//sys_log(0, "SGuildMarkBlock::Compress %u > %u", sizeof(Pixel) * SGuildMarkBlock::SIZE, m_sizeCompBuf);
; 312  : 	m_crc = GetCRC32((const char *) pxBuf, sizeof(Pixel) * SGuildMarkBlock::SIZE);

  00069	68 00 30 00 00	 push	 12288			; 00003000H
  0006e	ff 75 08	 push	 DWORD PTR _pxBuf$[ebp]
  00071	e8 00 00 00 00	 call	 ?GetCRC32@@YAKPBDI@Z	; GetCRC32
  00076	59		 pop	 ecx
  00077	59		 pop	 ecx
  00078	8b 4d fc	 mov	 ecx, DWORD PTR _this$[ebp]
  0007b	89 81 48 63 00
	00		 mov	 DWORD PTR [ecx+25416], eax
$LN1@Compress:

; 313  : }

  00081	c9		 leave
  00082	c2 04 00	 ret	 4
?Compress@SGuildMarkBlock@@QAEXPBK@Z ENDP		; SGuildMarkBlock::Compress
_TEXT	ENDS
; Function compile flags: /Odspy
; File D:\Metin2 Server Files\mainline\SRC_2014\Metin2Client\UserInterface\MarkImage.cpp
;	COMDAT ?CopyFrom@SGuildMarkBlock@@QAEXPBEKK@Z
_TEXT	SEGMENT
_this$ = -4						; size = 4
_pbCompBuf$ = 8						; size = 4
_dwCompSize$ = 12					; size = 4
_crc$ = 16						; size = 4
?CopyFrom@SGuildMarkBlock@@QAEXPBEKK@Z PROC		; SGuildMarkBlock::CopyFrom, COMDAT
; _this$ = ecx

; 288  : {

  00000	55		 push	 ebp
  00001	8b ec		 mov	 ebp, esp
  00003	51		 push	 ecx
  00004	89 4d fc	 mov	 DWORD PTR _this$[ebp], ecx

; 289  : 	if (dwCompSize > MAX_COMP_SIZE)

  00007	81 7d 0c 43 33
	00 00		 cmp	 DWORD PTR _dwCompSize$[ebp], 13123 ; 00003343H
  0000e	76 02		 jbe	 SHORT $LN2@CopyFrom

; 290  : 		return;

  00010	eb 2f		 jmp	 SHORT $LN1@CopyFrom
$LN2@CopyFrom:

; 291  : 
; 292  : 	m_sizeCompBuf = dwCompSize;

  00012	8b 45 fc	 mov	 eax, DWORD PTR _this$[ebp]
  00015	8b 4d 0c	 mov	 ecx, DWORD PTR _dwCompSize$[ebp]
  00018	89 88 44 63 00
	00		 mov	 DWORD PTR [eax+25412], ecx

; 293  : 	thecore_memcpy(m_abCompBuf, pbCompBuf, dwCompSize);

  0001e	ff 75 0c	 push	 DWORD PTR _dwCompSize$[ebp]
  00021	ff 75 08	 push	 DWORD PTR _pbCompBuf$[ebp]
  00024	8b 45 fc	 mov	 eax, DWORD PTR _this$[ebp]
  00027	05 00 30 00 00	 add	 eax, 12288		; 00003000H
  0002c	50		 push	 eax
  0002d	e8 00 00 00 00	 call	 _memcpy
  00032	83 c4 0c	 add	 esp, 12			; 0000000cH

; 294  : 	m_crc = crc;

  00035	8b 45 fc	 mov	 eax, DWORD PTR _this$[ebp]
  00038	8b 4d 10	 mov	 ecx, DWORD PTR _crc$[ebp]
  0003b	89 88 48 63 00
	00		 mov	 DWORD PTR [eax+25416], ecx
$LN1@CopyFrom:

; 295  : 	//printf("SGuildMarkBlock::CopyFrom: %u > %u crc %u\n", sizeof(Pixel) * SGuildMarkBlock::SIZE, m_sizeCompBuf, m_crc);
; 296  : }

  00041	c9		 leave
  00042	c2 0c 00	 ret	 12			; 0000000cH
?CopyFrom@SGuildMarkBlock@@QAEXPBEKK@Z ENDP		; SGuildMarkBlock::CopyFrom
_TEXT	ENDS
; Function compile flags: /Odspy
; File D:\Metin2 Server Files\mainline\SRC_2014\Metin2Client\UserInterface\MarkImage.cpp
;	COMDAT ?GetCRC@SGuildMarkBlock@@QBEKXZ
_TEXT	SEGMENT
_this$ = -4						; size = 4
?GetCRC@SGuildMarkBlock@@QBEKXZ PROC			; SGuildMarkBlock::GetCRC, COMDAT
; _this$ = ecx

; 283  : {

  00000	55		 push	 ebp
  00001	8b ec		 mov	 ebp, esp
  00003	51		 push	 ecx
  00004	89 4d fc	 mov	 DWORD PTR _this$[ebp], ecx

; 284  : 	return m_crc;

  00007	8b 45 fc	 mov	 eax, DWORD PTR _this$[ebp]
  0000a	8b 80 48 63 00
	00		 mov	 eax, DWORD PTR [eax+25416]

; 285  : }

  00010	c9		 leave
  00011	c3		 ret	 0
?GetCRC@SGuildMarkBlock@@QBEKXZ ENDP			; SGuildMarkBlock::GetCRC
_TEXT	ENDS
; Function compile flags: /Odspy
; File D:\Metin2 Server Files\mainline\SRC_2014\Metin2Client\UserInterface\MarkImage.cpp
;	COMDAT ?IsEmpty@SGuildMark@@QAE_NXZ
_TEXT	SEGMENT
_this$ = -8						; size = 4
_iPixel$1 = -4						; size = 4
?IsEmpty@SGuildMark@@QAE_NXZ PROC			; SGuildMark::IsEmpty, COMDAT
; _this$ = ecx

; 273  : {

  00000	55		 push	 ebp
  00001	8b ec		 mov	 ebp, esp
  00003	51		 push	 ecx
  00004	51		 push	 ecx
  00005	89 4d f8	 mov	 DWORD PTR _this$[ebp], ecx

; 274  : 	for (DWORD iPixel = 0; iPixel < SIZE; ++iPixel)

  00008	83 65 fc 00	 and	 DWORD PTR _iPixel$1[ebp], 0
  0000c	eb 07		 jmp	 SHORT $LN4@IsEmpty
$LN2@IsEmpty:
  0000e	8b 45 fc	 mov	 eax, DWORD PTR _iPixel$1[ebp]
  00011	40		 inc	 eax
  00012	89 45 fc	 mov	 DWORD PTR _iPixel$1[ebp], eax
$LN4@IsEmpty:
  00015	81 7d fc c0 00
	00 00		 cmp	 DWORD PTR _iPixel$1[ebp], 192 ; 000000c0H
  0001c	73 12		 jae	 SHORT $LN3@IsEmpty

; 275  : 		if (m_apxBuf[iPixel] != 0x00000000)

  0001e	8b 45 fc	 mov	 eax, DWORD PTR _iPixel$1[ebp]
  00021	8b 4d f8	 mov	 ecx, DWORD PTR _this$[ebp]
  00024	83 3c 81 00	 cmp	 DWORD PTR [ecx+eax*4], 0
  00028	74 04		 je	 SHORT $LN5@IsEmpty

; 276  : 			return false;

  0002a	32 c0		 xor	 al, al
  0002c	eb 04		 jmp	 SHORT $LN1@IsEmpty
$LN5@IsEmpty:
  0002e	eb de		 jmp	 SHORT $LN2@IsEmpty
$LN3@IsEmpty:

; 277  : 
; 278  : 	return true;

  00030	b0 01		 mov	 al, 1
$LN1@IsEmpty:

; 279  : }

  00032	c9		 leave
  00033	c3		 ret	 0
?IsEmpty@SGuildMark@@QAE_NXZ ENDP			; SGuildMark::IsEmpty
_TEXT	ENDS
; Function compile flags: /Odspy
; File D:\Metin2 Server Files\mainline\SRC_2014\Metin2Client\UserInterface\MarkImage.cpp
;	COMDAT ?Clear@SGuildMark@@QAEXXZ
_TEXT	SEGMENT
_this$ = -8						; size = 4
_iPixel$1 = -4						; size = 4
?Clear@SGuildMark@@QAEXXZ PROC				; SGuildMark::Clear, COMDAT
; _this$ = ecx

; 267  : {

  00000	55		 push	 ebp
  00001	8b ec		 mov	 ebp, esp
  00003	51		 push	 ecx
  00004	51		 push	 ecx
  00005	89 4d f8	 mov	 DWORD PTR _this$[ebp], ecx

; 268  : 	for (DWORD iPixel = 0; iPixel < SIZE; ++iPixel)

  00008	83 65 fc 00	 and	 DWORD PTR _iPixel$1[ebp], 0
  0000c	eb 07		 jmp	 SHORT $LN4@Clear
$LN2@Clear:
  0000e	8b 45 fc	 mov	 eax, DWORD PTR _iPixel$1[ebp]
  00011	40		 inc	 eax
  00012	89 45 fc	 mov	 DWORD PTR _iPixel$1[ebp], eax
$LN4@Clear:
  00015	81 7d fc c0 00
	00 00		 cmp	 DWORD PTR _iPixel$1[ebp], 192 ; 000000c0H
  0001c	73 0f		 jae	 SHORT $LN1@Clear

; 269  : 		m_apxBuf[iPixel] = 0xff000000;	

  0001e	8b 45 fc	 mov	 eax, DWORD PTR _iPixel$1[ebp]
  00021	8b 4d f8	 mov	 ecx, DWORD PTR _this$[ebp]
  00024	c7 04 81 00 00
	00 ff		 mov	 DWORD PTR [ecx+eax*4], -16777216 ; ff000000H
  0002b	eb e1		 jmp	 SHORT $LN2@Clear
$LN1@Clear:

; 270  : }

  0002d	c9		 leave
  0002e	c3		 ret	 0
?Clear@SGuildMark@@QAEXXZ ENDP				; SGuildMark::Clear
_TEXT	ENDS
; Function compile flags: /Odspy
; File C:\Program Files (x86)\Microsoft Visual Studio\2019\Community\VC\Tools\MSVC\14.28.29333\include\xmemory
;	COMDAT ??$_Allocate_manually_vector_aligned@U_Default_allocate_traits@std@@@std@@YAPAXI@Z
_TEXT	SEGMENT
__Ptr$ = -12						; size = 4
__Block_size$ = -8					; size = 4
__Ptr_container$ = -4					; size = 4
__Bytes$ = 8						; size = 4
??$_Allocate_manually_vector_aligned@U_Default_allocate_traits@std@@@std@@YAPAXI@Z PROC ; std::_Allocate_manually_vector_aligned<std::_Default_allocate_traits>, COMDAT

; 113  : __declspec(allocator) void* _Allocate_manually_vector_aligned(const size_t _Bytes) {

  00000	55		 push	 ebp
  00001	8b ec		 mov	 ebp, esp
  00003	83 ec 0c	 sub	 esp, 12			; 0000000cH

; 114  :     // allocate _Bytes manually aligned to at least _Big_allocation_alignment
; 115  :     const size_t _Block_size = _Non_user_size + _Bytes;

  00006	8b 45 08	 mov	 eax, DWORD PTR __Bytes$[ebp]
  00009	83 c0 23	 add	 eax, 35			; 00000023H
  0000c	89 45 f8	 mov	 DWORD PTR __Block_size$[ebp], eax

; 116  :     if (_Block_size <= _Bytes) {

  0000f	8b 45 f8	 mov	 eax, DWORD PTR __Block_size$[ebp]
  00012	3b 45 08	 cmp	 eax, DWORD PTR __Bytes$[ebp]
  00015	77 05		 ja	 SHORT $LN12@Allocate_m

; 117  :         _Throw_bad_array_new_length(); // add overflow

  00017	e8 00 00 00 00	 call	 ?_Throw_bad_array_new_length@std@@YAXXZ ; std::_Throw_bad_array_new_length
$LN12@Allocate_m:

; 77   :         return ::operator new(_Bytes);

  0001c	ff 75 f8	 push	 DWORD PTR __Block_size$[ebp]
  0001f	e8 00 00 00 00	 call	 ??2@YAPAXI@Z		; operator new
  00024	59		 pop	 ecx

; 118  :     }
; 119  : 
; 120  :     const uintptr_t _Ptr_container = reinterpret_cast<uintptr_t>(_Traits::_Allocate(_Block_size));

  00025	89 45 fc	 mov	 DWORD PTR __Ptr_container$[ebp], eax
$LN4@Allocate_m:

; 121  :     _STL_VERIFY(_Ptr_container != 0, "invalid argument"); // validate even in release since we're doing p[-1]

  00028	83 7d fc 00	 cmp	 DWORD PTR __Ptr_container$[ebp], 0
  0002c	74 02		 je	 SHORT $LN7@Allocate_m
  0002e	eb 09		 jmp	 SHORT $LN2@Allocate_m
$LN7@Allocate_m:
  00030	e8 00 00 00 00	 call	 __invalid_parameter_noinfo_noreturn
  00035	33 c0		 xor	 eax, eax
  00037	75 f7		 jne	 SHORT $LN7@Allocate_m
$LN2@Allocate_m:
  00039	33 c0		 xor	 eax, eax
  0003b	75 eb		 jne	 SHORT $LN4@Allocate_m

; 122  :     void* const _Ptr = reinterpret_cast<void*>((_Ptr_container + _Non_user_size) & ~(_Big_allocation_alignment - 1));

  0003d	8b 45 fc	 mov	 eax, DWORD PTR __Ptr_container$[ebp]
  00040	83 c0 23	 add	 eax, 35			; 00000023H
  00043	83 e0 e0	 and	 eax, -32		; ffffffe0H
  00046	89 45 f4	 mov	 DWORD PTR __Ptr$[ebp], eax

; 123  :     static_cast<uintptr_t*>(_Ptr)[-1] = _Ptr_container;

  00049	6a 04		 push	 4
  0004b	58		 pop	 eax
  0004c	6b c0 ff	 imul	 eax, eax, -1
  0004f	8b 4d f4	 mov	 ecx, DWORD PTR __Ptr$[ebp]
  00052	8b 55 fc	 mov	 edx, DWORD PTR __Ptr_container$[ebp]
  00055	89 14 01	 mov	 DWORD PTR [ecx+eax], edx

; 124  : 
; 125  : #ifdef _DEBUG
; 126  :     static_cast<uintptr_t*>(_Ptr)[-2] = _Big_allocation_sentinel;
; 127  : #endif // _DEBUG
; 128  :     return _Ptr;

  00058	8b 45 f4	 mov	 eax, DWORD PTR __Ptr$[ebp]
$LN11@Allocate_m:

; 129  : }

  0005b	c9		 leave
  0005c	c3		 ret	 0
??$_Allocate_manually_vector_aligned@U_Default_allocate_traits@std@@@std@@YAPAXI@Z ENDP ; std::_Allocate_manually_vector_aligned<std::_Default_allocate_traits>
_TEXT	ENDS
; Function compile flags: /Odspy
; File C:\Program Files (x86)\Microsoft Visual Studio\2019\Community\VC\Tools\MSVC\14.28.29333\include\xmemory
;	COMDAT ??$_Allocate@$07U_Default_allocate_traits@std@@$0A@@std@@YAPAXI@Z
_TEXT	SEGMENT
__Bytes$ = 8						; size = 4
??$_Allocate@$07U_Default_allocate_traits@std@@$0A@@std@@YAPAXI@Z PROC ; std::_Allocate<8,std::_Default_allocate_traits,0>, COMDAT

; 197  : __declspec(allocator) void* _Allocate(const size_t _Bytes) {

  00000	55		 push	 ebp
  00001	8b ec		 mov	 ebp, esp

; 198  :     // allocate _Bytes when !_HAS_ALIGNED_NEW || _Align <= __STDCPP_DEFAULT_NEW_ALIGNMENT__
; 199  : #if defined(_M_IX86) || defined(_M_X64)
; 200  :     if (_Bytes >= _Big_allocation_threshold) { // boost the alignment of big allocations to help autovectorization

  00003	81 7d 08 00 10
	00 00		 cmp	 DWORD PTR __Bytes$[ebp], 4096 ; 00001000H
  0000a	72 0b		 jb	 SHORT $LN2@Allocate

; 201  :         return _Allocate_manually_vector_aligned<_Traits>(_Bytes);

  0000c	ff 75 08	 push	 DWORD PTR __Bytes$[ebp]
  0000f	e8 00 00 00 00	 call	 ??$_Allocate_manually_vector_aligned@U_Default_allocate_traits@std@@@std@@YAPAXI@Z ; std::_Allocate_manually_vector_aligned<std::_Default_allocate_traits>
  00014	59		 pop	 ecx
  00015	eb 13		 jmp	 SHORT $LN1@Allocate
$LN2@Allocate:

; 202  :     }
; 203  : #endif // defined(_M_IX86) || defined(_M_X64)
; 204  : 
; 205  :     if (_Bytes != 0) {

  00017	83 7d 08 00	 cmp	 DWORD PTR __Bytes$[ebp], 0
  0001b	74 0b		 je	 SHORT $LN3@Allocate

; 77   :         return ::operator new(_Bytes);

  0001d	ff 75 08	 push	 DWORD PTR __Bytes$[ebp]
  00020	e8 00 00 00 00	 call	 ??2@YAPAXI@Z		; operator new
  00025	59		 pop	 ecx

; 206  :         return _Traits::_Allocate(_Bytes);

  00026	eb 02		 jmp	 SHORT $LN1@Allocate
$LN3@Allocate:

; 207  :     }
; 208  : 
; 209  :     return nullptr;

  00028	33 c0		 xor	 eax, eax
$LN1@Allocate:

; 210  : }

  0002a	5d		 pop	 ebp
  0002b	c3		 ret	 0
??$_Allocate@$07U_Default_allocate_traits@std@@$0A@@std@@YAPAXI@Z ENDP ; std::_Allocate<8,std::_Default_allocate_traits,0>
_TEXT	ENDS
; Function compile flags: /Odspy
; File C:\Program Files (x86)\Microsoft Visual Studio\2019\Community\VC\Tools\MSVC\14.28.29333\include\xmemory
;	COMDAT ??$_Deallocate@$07$0A@@std@@YAXPAXI@Z
_TEXT	SEGMENT
__$EHRec$ = -12						; size = 12
__Ptr$ = 8						; size = 4
__Bytes$ = 12						; size = 4
??$_Deallocate@$07$0A@@std@@YAXPAXI@Z PROC		; std::_Deallocate<8,0>, COMDAT

; 213  : void _Deallocate(void* _Ptr, size_t _Bytes) noexcept {

  00000	55		 push	 ebp
  00001	8b ec		 mov	 ebp, esp
  00003	6a ff		 push	 -1
  00005	68 00 00 00 00	 push	 __ehhandler$??$_Deallocate@$07$0A@@std@@YAXPAXI@Z
  0000a	64 a1 00 00 00
	00		 mov	 eax, DWORD PTR fs:0
  00010	50		 push	 eax
  00011	a1 00 00 00 00	 mov	 eax, DWORD PTR ___security_cookie
  00016	33 c5		 xor	 eax, ebp
  00018	50		 push	 eax
  00019	8d 45 f4	 lea	 eax, DWORD PTR __$EHRec$[ebp]
  0001c	64 a3 00 00 00
	00		 mov	 DWORD PTR fs:0, eax

; 214  :     // deallocate storage allocated by _Allocate when !_HAS_ALIGNED_NEW || _Align <= __STDCPP_DEFAULT_NEW_ALIGNMENT__
; 215  : #if defined(_M_IX86) || defined(_M_X64)
; 216  :     if (_Bytes >= _Big_allocation_threshold) { // boost the alignment of big allocations to help autovectorization

  00022	81 7d 0c 00 10
	00 00		 cmp	 DWORD PTR __Bytes$[ebp], 4096 ; 00001000H
  00029	72 0f		 jb	 SHORT $LN2@Deallocate

; 217  :         _Adjust_manually_vector_aligned(_Ptr, _Bytes);

  0002b	8d 45 0c	 lea	 eax, DWORD PTR __Bytes$[ebp]
  0002e	50		 push	 eax
  0002f	8d 45 08	 lea	 eax, DWORD PTR __Ptr$[ebp]
  00032	50		 push	 eax
  00033	e8 00 00 00 00	 call	 ?_Adjust_manually_vector_aligned@std@@YAXAAPAXAAI@Z ; std::_Adjust_manually_vector_aligned
  00038	59		 pop	 ecx
  00039	59		 pop	 ecx
$LN2@Deallocate:

; 218  :     }
; 219  : #endif // defined(_M_IX86) || defined(_M_X64)
; 220  : 
; 221  :     ::operator delete(_Ptr, _Bytes);

  0003a	ff 75 0c	 push	 DWORD PTR __Bytes$[ebp]
  0003d	ff 75 08	 push	 DWORD PTR __Ptr$[ebp]
  00040	e8 00 00 00 00	 call	 ??3@YAXPAXI@Z		; operator delete
  00045	59		 pop	 ecx
  00046	59		 pop	 ecx

; 222  : }

  00047	8b 4d f4	 mov	 ecx, DWORD PTR __$EHRec$[ebp]
  0004a	64 89 0d 00 00
	00 00		 mov	 DWORD PTR fs:0, ecx
  00051	59		 pop	 ecx
  00052	c9		 leave
  00053	c3		 ret	 0
  00054	cc		 int	 3
  00055	cc		 int	 3
  00056	cc		 int	 3
  00057	cc		 int	 3
  00058	cc		 int	 3
_TEXT	ENDS
;	COMDAT text$x
text$x	SEGMENT
__ehhandler$??$_Deallocate@$07$0A@@std@@YAXPAXI@Z:
  00000	90		 npad	 1
  00001	90		 npad	 1
  00002	8b 54 24 08	 mov	 edx, DWORD PTR [esp+8]
  00006	8d 42 0c	 lea	 eax, DWORD PTR [edx+12]
  00009	8b 4a fc	 mov	 ecx, DWORD PTR [edx-4]
  0000c	33 c8		 xor	 ecx, eax
  0000e	e8 00 00 00 00	 call	 @__security_check_cookie@4
  00013	b8 00 00 00 00	 mov	 eax, OFFSET __ehfuncinfo$??$_Deallocate@$07$0A@@std@@YAXPAXI@Z
  00018	e9 00 00 00 00	 jmp	 ___CxxFrameHandler3
text$x	ENDS
??$_Deallocate@$07$0A@@std@@YAXPAXI@Z ENDP		; std::_Deallocate<8,0>
; Function compile flags: /Odspy
; File C:\Program Files (x86)\Microsoft Visual Studio\2019\Community\VC\Tools\MSVC\14.28.29333\include\xtree
;	COMDAT ?_Throw_tree_length_error@std@@YAXXZ
_TEXT	SEGMENT
?_Throw_tree_length_error@std@@YAXXZ PROC		; std::_Throw_tree_length_error, COMDAT

; 414  : [[noreturn]] inline void _Throw_tree_length_error() {

  00000	55		 push	 ebp
  00001	8b ec		 mov	 ebp, esp

; 415  :     _Xlength_error("map/set too long");

  00003	68 00 00 00 00	 push	 OFFSET ??_C@_0BB@GCADKGJO@map?1set?5too?5long@
  00008	e8 00 00 00 00	 call	 ?_Xlength_error@std@@YAXPBD@Z ; std::_Xlength_error
$LN2@Throw_tree:

; 416  : }

  0000d	5d		 pop	 ebp
  0000e	c3		 ret	 0
?_Throw_tree_length_error@std@@YAXXZ ENDP		; std::_Throw_tree_length_error
_TEXT	ENDS
; Function compile flags: /Odspy
; File C:\Program Files (x86)\Microsoft Visual Studio\2019\Community\VC\Tools\MSVC\14.28.29333\include\xmemory
;	COMDAT ?_Adjust_manually_vector_aligned@std@@YAXAAPAXAAI@Z
_TEXT	SEGMENT
__Min_back_shift$ = -16					; size = 4
__Ptr_user$ = -12					; size = 4
__Ptr_container$ = -8					; size = 4
__Back_shift$ = -4					; size = 4
__Ptr$ = 8						; size = 4
__Bytes$ = 12						; size = 4
?_Adjust_manually_vector_aligned@std@@YAXAAPAXAAI@Z PROC ; std::_Adjust_manually_vector_aligned, COMDAT

; 132  : inline void _Adjust_manually_vector_aligned(void*& _Ptr, size_t& _Bytes) {

  00000	55		 push	 ebp
  00001	8b ec		 mov	 ebp, esp
  00003	83 ec 10	 sub	 esp, 16			; 00000010H

; 133  :     // adjust parameters from _Allocate_manually_vector_aligned to pass to operator delete
; 134  :     _Bytes += _Non_user_size;

  00006	8b 45 0c	 mov	 eax, DWORD PTR __Bytes$[ebp]
  00009	8b 00		 mov	 eax, DWORD PTR [eax]
  0000b	83 c0 23	 add	 eax, 35			; 00000023H
  0000e	8b 4d 0c	 mov	 ecx, DWORD PTR __Bytes$[ebp]
  00011	89 01		 mov	 DWORD PTR [ecx], eax

; 135  : 
; 136  :     const uintptr_t* const _Ptr_user = reinterpret_cast<uintptr_t*>(_Ptr);

  00013	8b 45 08	 mov	 eax, DWORD PTR __Ptr$[ebp]
  00016	8b 00		 mov	 eax, DWORD PTR [eax]
  00018	89 45 f4	 mov	 DWORD PTR __Ptr_user$[ebp], eax

; 137  :     const uintptr_t _Ptr_container   = _Ptr_user[-1];

  0001b	6a 04		 push	 4
  0001d	58		 pop	 eax
  0001e	6b c0 ff	 imul	 eax, eax, -1
  00021	8b 4d f4	 mov	 ecx, DWORD PTR __Ptr_user$[ebp]
  00024	8b 04 01	 mov	 eax, DWORD PTR [ecx+eax]
  00027	89 45 f8	 mov	 DWORD PTR __Ptr_container$[ebp], eax

; 138  : 
; 139  :     // If the following asserts, it likely means that we are performing
; 140  :     // an aligned delete on memory coming from an unaligned allocation.
; 141  :     _STL_ASSERT(_Ptr_user[-2] == _Big_allocation_sentinel, "invalid argument");
; 142  : 
; 143  :     // Extra paranoia on aligned allocation/deallocation; ensure _Ptr_container is
; 144  :     // in range [_Min_back_shift, _Non_user_size]
; 145  : #ifdef _DEBUG
; 146  :     constexpr uintptr_t _Min_back_shift = 2 * sizeof(void*);
; 147  : #else // ^^^ _DEBUG ^^^ // vvv !_DEBUG vvv
; 148  :     constexpr uintptr_t _Min_back_shift = sizeof(void*);

  0002a	c7 45 f0 04 00
	00 00		 mov	 DWORD PTR __Min_back_shift$[ebp], 4

; 149  : #endif // _DEBUG
; 150  :     const uintptr_t _Back_shift = reinterpret_cast<uintptr_t>(_Ptr) - _Ptr_container;

  00031	8b 45 08	 mov	 eax, DWORD PTR __Ptr$[ebp]
  00034	8b 00		 mov	 eax, DWORD PTR [eax]
  00036	2b 45 f8	 sub	 eax, DWORD PTR __Ptr_container$[ebp]
  00039	89 45 fc	 mov	 DWORD PTR __Back_shift$[ebp], eax
$LN4@Adjust_man:

; 151  :     _STL_VERIFY(_Back_shift >= _Min_back_shift && _Back_shift <= _Non_user_size, "invalid argument");

  0003c	83 7d fc 04	 cmp	 DWORD PTR __Back_shift$[ebp], 4
  00040	72 08		 jb	 SHORT $LN7@Adjust_man
  00042	83 7d fc 23	 cmp	 DWORD PTR __Back_shift$[ebp], 35 ; 00000023H
  00046	77 02		 ja	 SHORT $LN7@Adjust_man
  00048	eb 09		 jmp	 SHORT $LN2@Adjust_man
$LN7@Adjust_man:
  0004a	e8 00 00 00 00	 call	 __invalid_parameter_noinfo_noreturn
  0004f	33 c0		 xor	 eax, eax
  00051	75 f7		 jne	 SHORT $LN7@Adjust_man
$LN2@Adjust_man:
  00053	33 c0		 xor	 eax, eax
  00055	75 e5		 jne	 SHORT $LN4@Adjust_man

; 152  :     _Ptr = reinterpret_cast<void*>(_Ptr_container);

  00057	8b 45 08	 mov	 eax, DWORD PTR __Ptr$[ebp]
  0005a	8b 4d f8	 mov	 ecx, DWORD PTR __Ptr_container$[ebp]
  0005d	89 08		 mov	 DWORD PTR [eax], ecx
$LN10@Adjust_man:

; 153  : }

  0005f	c9		 leave
  00060	c3		 ret	 0
?_Adjust_manually_vector_aligned@std@@YAXAAPAXAAI@Z ENDP ; std::_Adjust_manually_vector_aligned
_TEXT	ENDS
; Function compile flags: /Odspy
; File C:\Program Files (x86)\Microsoft Visual Studio\2019\Community\VC\Tools\MSVC\14.28.29333\include\exception
;	COMDAT ?_Throw_bad_array_new_length@std@@YAXXZ
_TEXT	SEGMENT
$T1 = -12						; size = 12
?_Throw_bad_array_new_length@std@@YAXXZ PROC		; std::_Throw_bad_array_new_length, COMDAT

; 320  : [[noreturn]] inline void _Throw_bad_array_new_length() {

  00000	55		 push	 ebp
  00001	8b ec		 mov	 ebp, esp
  00003	83 ec 0c	 sub	 esp, 12			; 0000000cH

; 321  :     _THROW(bad_array_new_length{});

  00006	8d 4d f4	 lea	 ecx, DWORD PTR $T1[ebp]
  00009	e8 00 00 00 00	 call	 ??0bad_array_new_length@std@@QAE@XZ ; std::bad_array_new_length::bad_array_new_length
  0000e	68 00 00 00 00	 push	 OFFSET __TI3?AVbad_array_new_length@std@@
  00013	8d 45 f4	 lea	 eax, DWORD PTR $T1[ebp]
  00016	50		 push	 eax
  00017	e8 00 00 00 00	 call	 __CxxThrowException@8
$LN2@Throw_bad_:

; 322  : }

  0001c	c9		 leave
  0001d	c3		 ret	 0
?_Throw_bad_array_new_length@std@@YAXXZ ENDP		; std::_Throw_bad_array_new_length
_TEXT	ENDS
; Function compile flags: /Odspy
; File C:\Program Files (x86)\Microsoft Visual Studio\2019\Community\VC\Tools\MSVC\14.28.29333\include\vcruntime_exception.h
;	COMDAT ??_Gbad_array_new_length@std@@UAEPAXI@Z
_TEXT	SEGMENT
_this$ = -4						; size = 4
___flags$ = 8						; size = 4
??_Gbad_array_new_length@std@@UAEPAXI@Z PROC		; std::bad_array_new_length::`scalar deleting destructor', COMDAT
; _this$ = ecx
  00000	55		 push	 ebp
  00001	8b ec		 mov	 ebp, esp
  00003	51		 push	 ecx
  00004	89 4d fc	 mov	 DWORD PTR _this$[ebp], ecx

; 89   :     {

  00007	8b 45 fc	 mov	 eax, DWORD PTR _this$[ebp]
  0000a	c7 00 00 00 00
	00		 mov	 DWORD PTR [eax], OFFSET ??_7exception@std@@6B@

; 90   :         __std_exception_destroy(&_Data);

  00010	8b 45 fc	 mov	 eax, DWORD PTR _this$[ebp]
  00013	83 c0 04	 add	 eax, 4
  00016	50		 push	 eax
  00017	e8 00 00 00 00	 call	 ___std_exception_destroy
  0001c	59		 pop	 ecx
  0001d	8b 45 08	 mov	 eax, DWORD PTR ___flags$[ebp]
  00020	83 e0 01	 and	 eax, 1
  00023	74 0c		 je	 SHORT $LN2@scalar
  00025	6a 0c		 push	 12			; 0000000cH
  00027	ff 75 fc	 push	 DWORD PTR _this$[ebp]
  0002a	e8 00 00 00 00	 call	 ??3@YAXPAXI@Z		; operator delete
  0002f	59		 pop	 ecx
  00030	59		 pop	 ecx
$LN2@scalar:
  00031	8b 45 fc	 mov	 eax, DWORD PTR _this$[ebp]
  00034	c9		 leave
  00035	c2 04 00	 ret	 4
??_Gbad_array_new_length@std@@UAEPAXI@Z ENDP		; std::bad_array_new_length::`scalar deleting destructor'
_TEXT	ENDS
; Function compile flags: /Odspy
;	COMDAT ??0bad_array_new_length@std@@QAE@ABV01@@Z
_TEXT	SEGMENT
_this$ = -4						; size = 4
___that$ = 8						; size = 4
??0bad_array_new_length@std@@QAE@ABV01@@Z PROC		; std::bad_array_new_length::bad_array_new_length, COMDAT
; _this$ = ecx
  00000	55		 push	 ebp
  00001	8b ec		 mov	 ebp, esp
  00003	51		 push	 ecx
  00004	89 4d fc	 mov	 DWORD PTR _this$[ebp], ecx
  00007	ff 75 08	 push	 DWORD PTR ___that$[ebp]
  0000a	8b 4d fc	 mov	 ecx, DWORD PTR _this$[ebp]
  0000d	e8 00 00 00 00	 call	 ??0exception@std@@QAE@ABV01@@Z ; std::exception::exception
  00012	8b 45 fc	 mov	 eax, DWORD PTR _this$[ebp]
  00015	c7 00 00 00 00
	00		 mov	 DWORD PTR [eax], OFFSET ??_7bad_alloc@std@@6B@
  0001b	8b 45 fc	 mov	 eax, DWORD PTR _this$[ebp]
  0001e	c7 00 00 00 00
	00		 mov	 DWORD PTR [eax], OFFSET ??_7bad_array_new_length@std@@6B@
  00024	8b 45 fc	 mov	 eax, DWORD PTR _this$[ebp]
  00027	c9		 leave
  00028	c2 04 00	 ret	 4
??0bad_array_new_length@std@@QAE@ABV01@@Z ENDP		; std::bad_array_new_length::bad_array_new_length
_TEXT	ENDS
; Function compile flags: /Odspy
; File C:\Program Files (x86)\Microsoft Visual Studio\2019\Community\VC\Tools\MSVC\14.28.29333\include\vcruntime_exception.h
;	COMDAT ??1bad_array_new_length@std@@UAE@XZ
_TEXT	SEGMENT
_this$ = -4						; size = 4
??1bad_array_new_length@std@@UAE@XZ PROC		; std::bad_array_new_length::~bad_array_new_length, COMDAT
; _this$ = ecx
  00000	55		 push	 ebp
  00001	8b ec		 mov	 ebp, esp
  00003	51		 push	 ecx
  00004	89 4d fc	 mov	 DWORD PTR _this$[ebp], ecx

; 89   :     {

  00007	8b 45 fc	 mov	 eax, DWORD PTR _this$[ebp]
  0000a	c7 00 00 00 00
	00		 mov	 DWORD PTR [eax], OFFSET ??_7exception@std@@6B@

; 90   :         __std_exception_destroy(&_Data);

  00010	8b 45 fc	 mov	 eax, DWORD PTR _this$[ebp]
  00013	83 c0 04	 add	 eax, 4
  00016	50		 push	 eax
  00017	e8 00 00 00 00	 call	 ___std_exception_destroy
  0001c	59		 pop	 ecx
  0001d	c9		 leave
  0001e	c3		 ret	 0
??1bad_array_new_length@std@@UAE@XZ ENDP		; std::bad_array_new_length::~bad_array_new_length
_TEXT	ENDS
; Function compile flags: /Odspy
; File C:\Program Files (x86)\Microsoft Visual Studio\2019\Community\VC\Tools\MSVC\14.28.29333\include\vcruntime_exception.h
;	COMDAT ??0bad_array_new_length@std@@QAE@XZ
_TEXT	SEGMENT
_this$ = -4						; size = 4
??0bad_array_new_length@std@@QAE@XZ PROC		; std::bad_array_new_length::bad_array_new_length, COMDAT
; _this$ = ecx

; 141  :     {

  00000	55		 push	 ebp
  00001	8b ec		 mov	 ebp, esp
  00003	51		 push	 ecx
  00004	89 4d fc	 mov	 DWORD PTR _this$[ebp], ecx

; 66   :     {

  00007	8b 45 fc	 mov	 eax, DWORD PTR _this$[ebp]
  0000a	c7 00 00 00 00
	00		 mov	 DWORD PTR [eax], OFFSET ??_7exception@std@@6B@

; 65   :         : _Data()

  00010	33 c0		 xor	 eax, eax
  00012	8b 4d fc	 mov	 ecx, DWORD PTR _this$[ebp]
  00015	83 c1 04	 add	 ecx, 4
  00018	89 01		 mov	 DWORD PTR [ecx], eax
  0001a	89 41 04	 mov	 DWORD PTR [ecx+4], eax

; 67   :         _Data._What = _Message;

  0001d	8b 45 fc	 mov	 eax, DWORD PTR _this$[ebp]
  00020	c7 40 04 00 00
	00 00		 mov	 DWORD PTR [eax+4], OFFSET ??_C@_0BF@KINCDENJ@bad?5array?5new?5length@

; 130  :     {

  00027	8b 45 fc	 mov	 eax, DWORD PTR _this$[ebp]
  0002a	c7 00 00 00 00
	00		 mov	 DWORD PTR [eax], OFFSET ??_7bad_alloc@std@@6B@

; 141  :     {

  00030	8b 45 fc	 mov	 eax, DWORD PTR _this$[ebp]
  00033	c7 00 00 00 00
	00		 mov	 DWORD PTR [eax], OFFSET ??_7bad_array_new_length@std@@6B@

; 142  :     }

  00039	8b 45 fc	 mov	 eax, DWORD PTR _this$[ebp]
  0003c	c9		 leave
  0003d	c3		 ret	 0
??0bad_array_new_length@std@@QAE@XZ ENDP		; std::bad_array_new_length::bad_array_new_length
_TEXT	ENDS
; Function compile flags: /Odspy
; File C:\Program Files (x86)\Microsoft Visual Studio\2019\Community\VC\Tools\MSVC\14.28.29333\include\vcruntime_exception.h
;	COMDAT ??_Gbad_alloc@std@@UAEPAXI@Z
_TEXT	SEGMENT
_this$ = -4						; size = 4
___flags$ = 8						; size = 4
??_Gbad_alloc@std@@UAEPAXI@Z PROC			; std::bad_alloc::`scalar deleting destructor', COMDAT
; _this$ = ecx
  00000	55		 push	 ebp
  00001	8b ec		 mov	 ebp, esp
  00003	51		 push	 ecx
  00004	89 4d fc	 mov	 DWORD PTR _this$[ebp], ecx

; 89   :     {

  00007	8b 45 fc	 mov	 eax, DWORD PTR _this$[ebp]
  0000a	c7 00 00 00 00
	00		 mov	 DWORD PTR [eax], OFFSET ??_7exception@std@@6B@

; 90   :         __std_exception_destroy(&_Data);

  00010	8b 45 fc	 mov	 eax, DWORD PTR _this$[ebp]
  00013	83 c0 04	 add	 eax, 4
  00016	50		 push	 eax
  00017	e8 00 00 00 00	 call	 ___std_exception_destroy
  0001c	59		 pop	 ecx
  0001d	8b 45 08	 mov	 eax, DWORD PTR ___flags$[ebp]
  00020	83 e0 01	 and	 eax, 1
  00023	74 0c		 je	 SHORT $LN2@scalar
  00025	6a 0c		 push	 12			; 0000000cH
  00027	ff 75 fc	 push	 DWORD PTR _this$[ebp]
  0002a	e8 00 00 00 00	 call	 ??3@YAXPAXI@Z		; operator delete
  0002f	59		 pop	 ecx
  00030	59		 pop	 ecx
$LN2@scalar:
  00031	8b 45 fc	 mov	 eax, DWORD PTR _this$[ebp]
  00034	c9		 leave
  00035	c2 04 00	 ret	 4
??_Gbad_alloc@std@@UAEPAXI@Z ENDP			; std::bad_alloc::`scalar deleting destructor'
_TEXT	ENDS
; Function compile flags: /Odspy
;	COMDAT ??0bad_alloc@std@@QAE@ABV01@@Z
_TEXT	SEGMENT
_this$ = -4						; size = 4
___that$ = 8						; size = 4
??0bad_alloc@std@@QAE@ABV01@@Z PROC			; std::bad_alloc::bad_alloc, COMDAT
; _this$ = ecx
  00000	55		 push	 ebp
  00001	8b ec		 mov	 ebp, esp
  00003	51		 push	 ecx
  00004	89 4d fc	 mov	 DWORD PTR _this$[ebp], ecx
  00007	ff 75 08	 push	 DWORD PTR ___that$[ebp]
  0000a	8b 4d fc	 mov	 ecx, DWORD PTR _this$[ebp]
  0000d	e8 00 00 00 00	 call	 ??0exception@std@@QAE@ABV01@@Z ; std::exception::exception
  00012	8b 45 fc	 mov	 eax, DWORD PTR _this$[ebp]
  00015	c7 00 00 00 00
	00		 mov	 DWORD PTR [eax], OFFSET ??_7bad_alloc@std@@6B@
  0001b	8b 45 fc	 mov	 eax, DWORD PTR _this$[ebp]
  0001e	c9		 leave
  0001f	c2 04 00	 ret	 4
??0bad_alloc@std@@QAE@ABV01@@Z ENDP			; std::bad_alloc::bad_alloc
_TEXT	ENDS
; Function compile flags: /Odspy
; File C:\Program Files (x86)\Microsoft Visual Studio\2019\Community\VC\Tools\MSVC\14.28.29333\include\vcruntime_exception.h
;	COMDAT ??_Gexception@std@@UAEPAXI@Z
_TEXT	SEGMENT
_this$ = -4						; size = 4
___flags$ = 8						; size = 4
??_Gexception@std@@UAEPAXI@Z PROC			; std::exception::`scalar deleting destructor', COMDAT
; _this$ = ecx
  00000	55		 push	 ebp
  00001	8b ec		 mov	 ebp, esp
  00003	51		 push	 ecx
  00004	89 4d fc	 mov	 DWORD PTR _this$[ebp], ecx

; 89   :     {

  00007	8b 45 fc	 mov	 eax, DWORD PTR _this$[ebp]
  0000a	c7 00 00 00 00
	00		 mov	 DWORD PTR [eax], OFFSET ??_7exception@std@@6B@

; 90   :         __std_exception_destroy(&_Data);

  00010	8b 45 fc	 mov	 eax, DWORD PTR _this$[ebp]
  00013	83 c0 04	 add	 eax, 4
  00016	50		 push	 eax
  00017	e8 00 00 00 00	 call	 ___std_exception_destroy
  0001c	59		 pop	 ecx
  0001d	8b 45 08	 mov	 eax, DWORD PTR ___flags$[ebp]
  00020	83 e0 01	 and	 eax, 1
  00023	74 0c		 je	 SHORT $LN2@scalar
  00025	6a 0c		 push	 12			; 0000000cH
  00027	ff 75 fc	 push	 DWORD PTR _this$[ebp]
  0002a	e8 00 00 00 00	 call	 ??3@YAXPAXI@Z		; operator delete
  0002f	59		 pop	 ecx
  00030	59		 pop	 ecx
$LN2@scalar:
  00031	8b 45 fc	 mov	 eax, DWORD PTR _this$[ebp]
  00034	c9		 leave
  00035	c2 04 00	 ret	 4
??_Gexception@std@@UAEPAXI@Z ENDP			; std::exception::`scalar deleting destructor'
_TEXT	ENDS
; Function compile flags: /Odspy
; File C:\Program Files (x86)\Microsoft Visual Studio\2019\Community\VC\Tools\MSVC\14.28.29333\include\vcruntime_exception.h
;	COMDAT ?what@exception@std@@UBEPBDXZ
_TEXT	SEGMENT
tv69 = -8						; size = 4
_this$ = -4						; size = 4
?what@exception@std@@UBEPBDXZ PROC			; std::exception::what, COMDAT
; _this$ = ecx

; 94   :     {

  00000	55		 push	 ebp
  00001	8b ec		 mov	 ebp, esp
  00003	51		 push	 ecx
  00004	51		 push	 ecx
  00005	89 4d fc	 mov	 DWORD PTR _this$[ebp], ecx

; 95   :         return _Data._What ? _Data._What : "Unknown exception";

  00008	8b 45 fc	 mov	 eax, DWORD PTR _this$[ebp]
  0000b	83 78 04 00	 cmp	 DWORD PTR [eax+4], 0
  0000f	74 0b		 je	 SHORT $LN3@what
  00011	8b 45 fc	 mov	 eax, DWORD PTR _this$[ebp]
  00014	8b 40 04	 mov	 eax, DWORD PTR [eax+4]
  00017	89 45 f8	 mov	 DWORD PTR tv69[ebp], eax
  0001a	eb 07		 jmp	 SHORT $LN4@what
$LN3@what:
  0001c	c7 45 f8 00 00
	00 00		 mov	 DWORD PTR tv69[ebp], OFFSET ??_C@_0BC@EOODALEL@Unknown?5exception@
$LN4@what:
  00023	8b 45 f8	 mov	 eax, DWORD PTR tv69[ebp]

; 96   :     }

  00026	c9		 leave
  00027	c3		 ret	 0
?what@exception@std@@UBEPBDXZ ENDP			; std::exception::what
_TEXT	ENDS
; Function compile flags: /Odspy
; File C:\Program Files (x86)\Microsoft Visual Studio\2019\Community\VC\Tools\MSVC\14.28.29333\include\vcruntime_exception.h
;	COMDAT ??0exception@std@@QAE@ABV01@@Z
_TEXT	SEGMENT
_this$ = -4						; size = 4
__Other$ = 8						; size = 4
??0exception@std@@QAE@ABV01@@Z PROC			; std::exception::exception, COMDAT
; _this$ = ecx

; 72   :     {

  00000	55		 push	 ebp
  00001	8b ec		 mov	 ebp, esp
  00003	51		 push	 ecx
  00004	89 4d fc	 mov	 DWORD PTR _this$[ebp], ecx
  00007	8b 45 fc	 mov	 eax, DWORD PTR _this$[ebp]
  0000a	c7 00 00 00 00
	00		 mov	 DWORD PTR [eax], OFFSET ??_7exception@std@@6B@

; 71   :         : _Data()

  00010	33 c0		 xor	 eax, eax
  00012	8b 4d fc	 mov	 ecx, DWORD PTR _this$[ebp]
  00015	83 c1 04	 add	 ecx, 4
  00018	89 01		 mov	 DWORD PTR [ecx], eax
  0001a	89 41 04	 mov	 DWORD PTR [ecx+4], eax

; 73   :         __std_exception_copy(&_Other._Data, &_Data);

  0001d	8b 45 fc	 mov	 eax, DWORD PTR _this$[ebp]
  00020	83 c0 04	 add	 eax, 4
  00023	50		 push	 eax
  00024	8b 45 08	 mov	 eax, DWORD PTR __Other$[ebp]
  00027	83 c0 04	 add	 eax, 4
  0002a	50		 push	 eax
  0002b	e8 00 00 00 00	 call	 ___std_exception_copy
  00030	59		 pop	 ecx
  00031	59		 pop	 ecx

; 74   :     }

  00032	8b 45 fc	 mov	 eax, DWORD PTR _this$[ebp]
  00035	c9		 leave
  00036	c2 04 00	 ret	 4
??0exception@std@@QAE@ABV01@@Z ENDP			; std::exception::exception
_TEXT	ENDS
; Function compile flags: /Odspy
; File C:\Program Files (x86)\Windows Kits\10\Include\10.0.18362.0\ucrt\stdio.h
;	COMDAT _printf
_TEXT	SEGMENT
__Result$ = -16						; size = 4
__Stream$ = -12						; size = 4
__Format$ = -8						; size = 4
__ArgList$ = -4						; size = 4
__Format$ = 8						; size = 4
_printf	PROC						; COMDAT

; 954  :     {

  00000	55		 push	 ebp
  00001	8b ec		 mov	 ebp, esp
  00003	83 ec 10	 sub	 esp, 16			; 00000010H

; 955  :         int _Result;
; 956  :         va_list _ArgList;
; 957  :         __crt_va_start(_ArgList, _Format);

  00006	8d 45 0c	 lea	 eax, DWORD PTR __Format$[ebp+4]
  00009	89 45 fc	 mov	 DWORD PTR __ArgList$[ebp], eax

; 958  :         _Result = _vfprintf_l(stdout, _Format, NULL, _ArgList);

  0000c	8b 45 08	 mov	 eax, DWORD PTR __Format$[ebp]
  0000f	89 45 f8	 mov	 DWORD PTR __Format$[ebp], eax
  00012	6a 01		 push	 1
  00014	e8 00 00 00 00	 call	 ___acrt_iob_func
  00019	59		 pop	 ecx
  0001a	89 45 f4	 mov	 DWORD PTR __Stream$[ebp], eax

; 643  :         return __stdio_common_vfprintf(_CRT_INTERNAL_LOCAL_PRINTF_OPTIONS, _Stream, _Format, _Locale, _ArgList);

  0001d	ff 75 fc	 push	 DWORD PTR __ArgList$[ebp]
  00020	6a 00		 push	 0
  00022	ff 75 f8	 push	 DWORD PTR __Format$[ebp]
  00025	ff 75 f4	 push	 DWORD PTR __Stream$[ebp]
  00028	e8 00 00 00 00	 call	 ___local_stdio_printf_options
  0002d	ff 70 04	 push	 DWORD PTR [eax+4]
  00030	ff 30		 push	 DWORD PTR [eax]
  00032	e8 00 00 00 00	 call	 ___stdio_common_vfprintf
  00037	83 c4 18	 add	 esp, 24			; 00000018H

; 958  :         _Result = _vfprintf_l(stdout, _Format, NULL, _ArgList);

  0003a	89 45 f0	 mov	 DWORD PTR __Result$[ebp], eax

; 959  :         __crt_va_end(_ArgList);

  0003d	83 65 fc 00	 and	 DWORD PTR __ArgList$[ebp], 0

; 960  :         return _Result;

  00041	8b 45 f0	 mov	 eax, DWORD PTR __Result$[ebp]

; 961  :     }

  00044	c9		 leave
  00045	c3		 ret	 0
_printf	ENDP
_TEXT	ENDS
; Function compile flags: /Odspy
; File C:\Program Files (x86)\Windows Kits\10\Include\10.0.18362.0\ucrt\corecrt_stdio_config.h
;	COMDAT ___local_stdio_printf_options
_TEXT	SEGMENT
___local_stdio_printf_options PROC			; COMDAT

; 86   :     {

  00000	55		 push	 ebp
  00001	8b ec		 mov	 ebp, esp

; 87   :         static unsigned __int64 _OptionsStorage;
; 88   :         return &_OptionsStorage;

  00003	b8 00 00 00 00	 mov	 eax, OFFSET ?_OptionsStorage@?1??__local_stdio_printf_options@@9@4_KA ; `__local_stdio_printf_options'::`2'::_OptionsStorage

; 89   :     }

  00008	5d		 pop	 ebp
  00009	c3		 ret	 0
___local_stdio_printf_options ENDP
_TEXT	ENDS
END
