; Listing generated by Microsoft (R) Optimizing Compiler Version 19.28.29335.0 

	TITLE	D:\Metin2 Server Files\mainline\SRC_2014\Metin2Client\UserInterface\PythonApplicationModule.cpp
	.686P
	.XMM
	include listing.inc
	.model	flat

INCLUDELIB LIBCMT
INCLUDELIB OLDNAMES

PUBLIC	?bVisibleNotice@@3HA				; bVisibleNotice
PUBLIC	?bTestServerFlag@@3HA				; bTestServerFlag
PUBLIC	?TWOHANDED_WEWAPON_ATT_SPEED_DECREASE_VALUE@@3HA ; TWOHANDED_WEWAPON_ATT_SPEED_DECREASE_VALUE
_BSS	SEGMENT
?bTestServerFlag@@3HA DD 01H DUP (?)			; bTestServerFlag
?TWOHANDED_WEWAPON_ATT_SPEED_DECREASE_VALUE@@3HA DD 01H DUP (?) ; TWOHANDED_WEWAPON_ATT_SPEED_DECREASE_VALUE
_BSS	ENDS
_DATA	SEGMENT
?bVisibleNotice@@3HA DD 01H				; bVisibleNotice
_DATA	ENDS
PUBLIC	??_H@YGXPAXIIP6EPAX0@Z@Z			; `vector constructor iterator'
PUBLIC	?__empty_global_delete@@YAXPAX@Z		; __empty_global_delete
PUBLIC	?__empty_global_delete@@YAXPAXI@Z		; __empty_global_delete
PUBLIC	?_Adjust_manually_vector_aligned@std@@YAXAAPAXAAI@Z ; std::_Adjust_manually_vector_aligned
PUBLIC	?_Myptr@?$_String_val@U?$_Simple_types@D@std@@@std@@QBEPBDXZ ; std::_String_val<std::_Simple_types<char> >::_Myptr
PUBLIC	??0?$basic_string@DU?$char_traits@D@std@@V?$allocator@D@2@@std@@QAE@XZ ; std::basic_string<char,std::char_traits<char>,std::allocator<char> >::basic_string<char,std::char_traits<char>,std::allocator<char> >
PUBLIC	??1?$basic_string@DU?$char_traits@D@std@@V?$allocator@D@2@@std@@QAE@XZ ; std::basic_string<char,std::char_traits<char>,std::allocator<char> >::~basic_string<char,std::char_traits<char>,std::allocator<char> >
PUBLIC	?c_str@?$basic_string@DU?$char_traits@D@std@@V?$allocator@D@2@@std@@QBEPBDXZ ; std::basic_string<char,std::char_traits<char>,std::allocator<char> >::c_str
PUBLIC	?_Tidy_init@?$basic_string@DU?$char_traits@D@std@@V?$allocator@D@2@@std@@AAEXXZ ; std::basic_string<char,std::char_traits<char>,std::allocator<char> >::_Tidy_init
PUBLIC	?_Tidy_deallocate@?$basic_string@DU?$char_traits@D@std@@V?$allocator@D@2@@std@@AAEXXZ ; std::basic_string<char,std::char_traits<char>,std::allocator<char> >::_Tidy_deallocate
PUBLIC	?initapp@@YAXXZ					; initapp
PUBLIC	??$_Destroy_in_place@PAD@std@@YAXAAPAD@Z	; std::_Destroy_in_place<char *>
PUBLIC	??$_Deallocate@$07$0A@@std@@YAXPAXI@Z		; std::_Deallocate<8,0>
PUBLIC	??0SCameraSetting@IAbstractApplication@@QAE@XZ	; IAbstractApplication::SCameraSetting::SCameraSetting
PUBLIC	?appShowWebPage@@YAPAU_object@@PAU1@0@Z		; appShowWebPage
PUBLIC	?appMoveWebPage@@YAPAU_object@@PAU1@0@Z		; appMoveWebPage
PUBLIC	?appHideWebPage@@YAPAU_object@@PAU1@0@Z		; appHideWebPage
PUBLIC	?appIsWebPageMode@@YAPAU_object@@PAU1@0@Z	; appIsWebPageMode
PUBLIC	?appEnablePerformanceTime@@YAPAU_object@@PAU1@0@Z ; appEnablePerformanceTime
PUBLIC	?appSetTextTailLivingTime@@YAPAU_object@@PAU1@0@Z ; appSetTextTailLivingTime
PUBLIC	?appSetHairColorEnable@@YAPAU_object@@PAU1@0@Z	; appSetHairColorEnable
PUBLIC	?appSetArmorSpecularEnable@@YAPAU_object@@PAU1@0@Z ; appSetArmorSpecularEnable
PUBLIC	?appSetWeaponSpecularEnable@@YAPAU_object@@PAU1@0@Z ; appSetWeaponSpecularEnable
PUBLIC	?appSetSkillEffectUpgradeEnable@@YAPAU_object@@PAU1@0@Z ; appSetSkillEffectUpgradeEnable
PUBLIC	?SetTwoHandedWeaponAttSpeedDecreaseValue@@YAPAU_object@@PAU1@0@Z ; SetTwoHandedWeaponAttSpeedDecreaseValue
PUBLIC	?appSetRideHorseEnable@@YAPAU_object@@PAU1@0@Z	; appSetRideHorseEnable
PUBLIC	?appSetCameraMaxDistance@@YAPAU_object@@PAU1@0@Z ; appSetCameraMaxDistance
PUBLIC	?appSetControlFP@@YAPAU_object@@PAU1@0@Z	; appSetControlFP
PUBLIC	?appSetSpecularSpeed@@YAPAU_object@@PAU1@0@Z	; appSetSpecularSpeed
PUBLIC	?appSetMinFog@@YAPAU_object@@PAU1@0@Z		; appSetMinFog
PUBLIC	?appSetFrameSkip@@YAPAU_object@@PAU1@0@Z	; appSetFrameSkip
PUBLIC	?appForceSetLocale@@YAPAU_object@@PAU1@0@Z	; appForceSetLocale
PUBLIC	?appGetLocaleServiceName@@YAPAU_object@@PAU1@0@Z ; appGetLocaleServiceName
PUBLIC	?appSetCHEONMA@@YAPAU_object@@PAU1@0@Z		; appSetCHEONMA
PUBLIC	?appIsCHEONMA@@YAPAU_object@@PAU1@0@Z		; appIsCHEONMA
PUBLIC	?appLoadLocaleAddr@@YAPAU_object@@PAU1@0@Z	; appLoadLocaleAddr
PUBLIC	?appLoadLocaleData@@YAPAU_object@@PAU1@0@Z	; appLoadLocaleData
PUBLIC	?appGetLocaleName@@YAPAU_object@@PAU1@0@Z	; appGetLocaleName
PUBLIC	?appGetLocalePath@@YAPAU_object@@PAU1@0@Z	; appGetLocalePath
PUBLIC	?appGetDefaultCodePage@@YAPAU_object@@PAU1@0@Z	; appGetDefaultCodePage
PUBLIC	?appGetImageInfo@@YAPAU_object@@PAU1@0@Z	; appGetImageInfo
PUBLIC	?appIsExistFile@@YAPAU_object@@PAU1@0@Z		; appIsExistFile
PUBLIC	?appGetFileList@@YAPAU_object@@PAU1@0@Z		; appGetFileList
PUBLIC	?appUpdateGame@@YAPAU_object@@PAU1@0@Z		; appUpdateGame
PUBLIC	?appRenderGame@@YAPAU_object@@PAU1@0@Z		; appRenderGame
PUBLIC	?appSetMouseHandler@@YAPAU_object@@PAU1@0@Z	; appSetMouseHandler
PUBLIC	?appCreate@@YAPAU_object@@PAU1@0@Z		; appCreate
PUBLIC	?appLoop@@YAPAU_object@@PAU1@0@Z		; appLoop
PUBLIC	?appGetInfo@@YAPAU_object@@PAU1@0@Z		; appGetInfo
PUBLIC	?appProcess@@YAPAU_object@@PAU1@0@Z		; appProcess
PUBLIC	?appAbort@@YAPAU_object@@PAU1@0@Z		; appAbort
PUBLIC	?appExit@@YAPAU_object@@PAU1@0@Z		; appExit
PUBLIC	?appSetCamera@@YAPAU_object@@PAU1@0@Z		; appSetCamera
PUBLIC	?appGetCamera@@YAPAU_object@@PAU1@0@Z		; appGetCamera
PUBLIC	?appGetCameraPitch@@YAPAU_object@@PAU1@0@Z	; appGetCameraPitch
PUBLIC	?appGetCameraRotation@@YAPAU_object@@PAU1@0@Z	; appGetCameraRotation
PUBLIC	?appGetTime@@YAPAU_object@@PAU1@0@Z		; appGetTime
PUBLIC	?appGetGlobalTime@@YAPAU_object@@PAU1@0@Z	; appGetGlobalTime
PUBLIC	?appGetGlobalTimeStamp@@YAPAU_object@@PAU1@0@Z	; appGetGlobalTimeStamp
PUBLIC	?appGetUpdateFPS@@YAPAU_object@@PAU1@0@Z	; appGetUpdateFPS
PUBLIC	?appGetRenderFPS@@YAPAU_object@@PAU1@0@Z	; appGetRenderFPS
PUBLIC	?appRotateCamera@@YAPAU_object@@PAU1@0@Z	; appRotateCamera
PUBLIC	?appPitchCamera@@YAPAU_object@@PAU1@0@Z		; appPitchCamera
PUBLIC	?appZoomCamera@@YAPAU_object@@PAU1@0@Z		; appZoomCamera
PUBLIC	?appMovieRotateCamera@@YAPAU_object@@PAU1@0@Z	; appMovieRotateCamera
PUBLIC	?appMoviePitchCamera@@YAPAU_object@@PAU1@0@Z	; appMoviePitchCamera
PUBLIC	?appMovieZoomCamera@@YAPAU_object@@PAU1@0@Z	; appMovieZoomCamera
PUBLIC	?appMovieResetCamera@@YAPAU_object@@PAU1@0@Z	; appMovieResetCamera
PUBLIC	?appGetFaceSpeed@@YAPAU_object@@PAU1@0@Z	; appGetFaceSpeed
PUBLIC	?appGetRenderTime@@YAPAU_object@@PAU1@0@Z	; appGetRenderTime
PUBLIC	?appGetUpdateTime@@YAPAU_object@@PAU1@0@Z	; appGetUpdateTime
PUBLIC	?appGetLoad@@YAPAU_object@@PAU1@0@Z		; appGetLoad
PUBLIC	?appGetFaceCount@@YAPAU_object@@PAU1@0@Z	; appGetFaceCount
PUBLIC	?appGetAvaiableTextureMememory@@YAPAU_object@@PAU1@0@Z ; appGetAvaiableTextureMememory
PUBLIC	?appSetFPS@@YAPAU_object@@PAU1@0@Z		; appSetFPS
PUBLIC	?appSetGlobalCenterPosition@@YAPAU_object@@PAU1@0@Z ; appSetGlobalCenterPosition
PUBLIC	?appSetCenterPosition@@YAPAU_object@@PAU1@0@Z	; appSetCenterPosition
PUBLIC	?appGetCursorPosition@@YAPAU_object@@PAU1@0@Z	; appGetCursorPosition
PUBLIC	?appRunPythonFile@@YAPAU_object@@PAU1@0@Z	; appRunPythonFile
PUBLIC	?appIsPressed@@YAPAU_object@@PAU1@0@Z		; appIsPressed
PUBLIC	?appSetCursor@@YAPAU_object@@PAU1@0@Z		; appSetCursor
PUBLIC	?appGetCursor@@YAPAU_object@@PAU1@0@Z		; appGetCursor
PUBLIC	?appShowCursor@@YAPAU_object@@PAU1@0@Z		; appShowCursor
PUBLIC	?appHideCursor@@YAPAU_object@@PAU1@0@Z		; appHideCursor
PUBLIC	?appIsShowCursor@@YAPAU_object@@PAU1@0@Z	; appIsShowCursor
PUBLIC	?appIsLiarCursorOn@@YAPAU_object@@PAU1@0@Z	; appIsLiarCursorOn
PUBLIC	?appSetSoftwareCursor@@YAPAU_object@@PAU1@0@Z	; appSetSoftwareCursor
PUBLIC	?appSetHardwareCursor@@YAPAU_object@@PAU1@0@Z	; appSetHardwareCursor
PUBLIC	?appSetConnectData@@YAPAU_object@@PAU1@0@Z	; appSetConnectData
PUBLIC	?appGetConnectData@@YAPAU_object@@PAU1@0@Z	; appGetConnectData
PUBLIC	?appGetRandom@@YAPAU_object@@PAU1@0@Z		; appGetRandom
PUBLIC	?appGetRotatingDirection@@YAPAU_object@@PAU1@0@Z ; appGetRotatingDirection
PUBLIC	?appGetDegreeDifference@@YAPAU_object@@PAU1@0@Z	; appGetDegreeDifference
PUBLIC	?appSleep@@YAPAU_object@@PAU1@0@Z		; appSleep
PUBLIC	?appSetDefaultFontName@@YAPAU_object@@PAU1@0@Z	; appSetDefaultFontName
PUBLIC	?appSetGuildSymbolPath@@YAPAU_object@@PAU1@0@Z	; appSetGuildSymbolPath
PUBLIC	?appEnableSpecialCameraMode@@YAPAU_object@@PAU1@0@Z ; appEnableSpecialCameraMode
PUBLIC	?appSetCameraSpeed@@YAPAU_object@@PAU1@0@Z	; appSetCameraSpeed
PUBLIC	?appIsFileExist@@YAPAU_object@@PAU1@0@Z		; appIsFileExist
PUBLIC	?appSetCameraSetting@@YAPAU_object@@PAU1@0@Z	; appSetCameraSetting
PUBLIC	?appSaveCameraSetting@@YAPAU_object@@PAU1@0@Z	; appSaveCameraSetting
PUBLIC	?appLoadCameraSetting@@YAPAU_object@@PAU1@0@Z	; appLoadCameraSetting
PUBLIC	?appSetDefaultCamera@@YAPAU_object@@PAU1@0@Z	; appSetDefaultCamera
PUBLIC	?appSetSightRange@@YAPAU_object@@PAU1@0@Z	; appSetSightRange
PUBLIC	?apptestGetAccumulationTime@@YAPAU_object@@PAU1@0@Z ; apptestGetAccumulationTime
PUBLIC	?apptestResetAccumulationTime@@YAPAU_object@@PAU1@0@Z ; apptestResetAccumulationTime
PUBLIC	?apptestSetSpecularColor@@YAPAU_object@@PAU1@0@Z ; apptestSetSpecularColor
PUBLIC	?appSetVisibleNotice@@YAPAU_object@@PAU1@0@Z	; appSetVisibleNotice
PUBLIC	?appIsVisibleNotice@@YAPAU_object@@PAU1@0@Z	; appIsVisibleNotice
PUBLIC	?appEnableTestServerFlag@@YAPAU_object@@PAU1@0@Z ; appEnableTestServerFlag
PUBLIC	?appIsEnableTestServerFlag@@YAPAU_object@@PAU1@0@Z ; appIsEnableTestServerFlag
PUBLIC	??0CTextLineLoader@@QAE@PBD@Z			; CTextLineLoader::CTextLineLoader
PUBLIC	?GetLine@CTextLineLoader@@QAEPBDK@Z		; CTextLineLoader::GetLine
PUBLIC	?appOpenTextFile@@YAPAU_object@@PAU1@0@Z	; appOpenTextFile
PUBLIC	?appCloseTextFile@@YAPAU_object@@PAU1@0@Z	; appCloseTextFile
PUBLIC	?appGetTextFileLineCount@@YAPAU_object@@PAU1@0@Z ; appGetTextFileLineCount
PUBLIC	?appGetTextFileLine@@YAPAU_object@@PAU1@0@Z	; appGetTextFileLine
PUBLIC	?appSetGuildMarkPath@@YAPAU_object@@PAU1@0@Z	; appSetGuildMarkPath
PUBLIC	?appIsDevStage@@YAPAU_object@@PAU1@0@Z		; appIsDevStage
PUBLIC	?appIsTestStage@@YAPAU_object@@PAU1@0@Z		; appIsTestStage
PUBLIC	?appIsLiveStage@@YAPAU_object@@PAU1@0@Z		; appIsLiveStage
PUBLIC	?appLogoOpen@@YAPAU_object@@PAU1@0@Z		; appLogoOpen
PUBLIC	?appLogoUpdate@@YAPAU_object@@PAU1@0@Z		; appLogoUpdate
PUBLIC	?appLogoRender@@YAPAU_object@@PAU1@0@Z		; appLogoRender
PUBLIC	?appLogoClose@@YAPAU_object@@PAU1@0@Z		; appLogoClose
PUBLIC	??0?$CDynamicPoolEx@VCRotationDecorator@NEffectUpdateDecorator@@@@QAE@XZ ; CDynamicPoolEx<NEffectUpdateDecorator::CRotationDecorator>::CDynamicPoolEx<NEffectUpdateDecorator::CRotationDecorator>
PUBLIC	??1?$CDynamicPoolEx@VCRotationDecorator@NEffectUpdateDecorator@@@@UAE@XZ ; CDynamicPoolEx<NEffectUpdateDecorator::CRotationDecorator>::~CDynamicPoolEx<NEffectUpdateDecorator::CRotationDecorator>
PUBLIC	?Destroy@?$CDynamicPoolEx@VCRotationDecorator@NEffectUpdateDecorator@@@@QAEXXZ ; CDynamicPoolEx<NEffectUpdateDecorator::CRotationDecorator>::Destroy
PUBLIC	?Delete@?$CDynamicPoolEx@VCRotationDecorator@NEffectUpdateDecorator@@@@KAXPAVCRotationDecorator@NEffectUpdateDecorator@@@Z ; CDynamicPoolEx<NEffectUpdateDecorator::CRotationDecorator>::Delete
PUBLIC	?clear@?$vector@PAVCRotationDecorator@NEffectUpdateDecorator@@V?$allocator@PAVCRotationDecorator@NEffectUpdateDecorator@@@std@@@std@@QAEXXZ ; std::vector<NEffectUpdateDecorator::CRotationDecorator *,std::allocator<NEffectUpdateDecorator::CRotationDecorator *> >::clear
PUBLIC	?_Tidy@?$vector@PAVCRotationDecorator@NEffectUpdateDecorator@@V?$allocator@PAVCRotationDecorator@NEffectUpdateDecorator@@@std@@@std@@AAEXXZ ; std::vector<NEffectUpdateDecorator::CRotationDecorator *,std::allocator<NEffectUpdateDecorator::CRotationDecorator *> >::_Tidy
PUBLIC	??_G?$CDynamicPoolEx@VCRotationDecorator@NEffectUpdateDecorator@@@@UAEPAXI@Z ; CDynamicPoolEx<NEffectUpdateDecorator::CRotationDecorator>::`scalar deleting destructor'
PUBLIC	??0?$CDynamicPoolEx@VCGravityDecorator@NEffectUpdateDecorator@@@@QAE@XZ ; CDynamicPoolEx<NEffectUpdateDecorator::CGravityDecorator>::CDynamicPoolEx<NEffectUpdateDecorator::CGravityDecorator>
PUBLIC	??1?$CDynamicPoolEx@VCGravityDecorator@NEffectUpdateDecorator@@@@UAE@XZ ; CDynamicPoolEx<NEffectUpdateDecorator::CGravityDecorator>::~CDynamicPoolEx<NEffectUpdateDecorator::CGravityDecorator>
PUBLIC	?Destroy@?$CDynamicPoolEx@VCGravityDecorator@NEffectUpdateDecorator@@@@QAEXXZ ; CDynamicPoolEx<NEffectUpdateDecorator::CGravityDecorator>::Destroy
PUBLIC	?Delete@?$CDynamicPoolEx@VCGravityDecorator@NEffectUpdateDecorator@@@@KAXPAVCGravityDecorator@NEffectUpdateDecorator@@@Z ; CDynamicPoolEx<NEffectUpdateDecorator::CGravityDecorator>::Delete
PUBLIC	?clear@?$vector@PAVCGravityDecorator@NEffectUpdateDecorator@@V?$allocator@PAVCGravityDecorator@NEffectUpdateDecorator@@@std@@@std@@QAEXXZ ; std::vector<NEffectUpdateDecorator::CGravityDecorator *,std::allocator<NEffectUpdateDecorator::CGravityDecorator *> >::clear
PUBLIC	?_Tidy@?$vector@PAVCGravityDecorator@NEffectUpdateDecorator@@V?$allocator@PAVCGravityDecorator@NEffectUpdateDecorator@@@std@@@std@@AAEXXZ ; std::vector<NEffectUpdateDecorator::CGravityDecorator *,std::allocator<NEffectUpdateDecorator::CGravityDecorator *> >::_Tidy
PUBLIC	??_G?$CDynamicPoolEx@VCGravityDecorator@NEffectUpdateDecorator@@@@UAEPAXI@Z ; CDynamicPoolEx<NEffectUpdateDecorator::CGravityDecorator>::`scalar deleting destructor'
PUBLIC	??0?$CDynamicPoolEx@VCAirResistanceDecorator@NEffectUpdateDecorator@@@@QAE@XZ ; CDynamicPoolEx<NEffectUpdateDecorator::CAirResistanceDecorator>::CDynamicPoolEx<NEffectUpdateDecorator::CAirResistanceDecorator>
PUBLIC	??1?$CDynamicPoolEx@VCAirResistanceDecorator@NEffectUpdateDecorator@@@@UAE@XZ ; CDynamicPoolEx<NEffectUpdateDecorator::CAirResistanceDecorator>::~CDynamicPoolEx<NEffectUpdateDecorator::CAirResistanceDecorator>
PUBLIC	?Destroy@?$CDynamicPoolEx@VCAirResistanceDecorator@NEffectUpdateDecorator@@@@QAEXXZ ; CDynamicPoolEx<NEffectUpdateDecorator::CAirResistanceDecorator>::Destroy
PUBLIC	?Delete@?$CDynamicPoolEx@VCAirResistanceDecorator@NEffectUpdateDecorator@@@@KAXPAVCAirResistanceDecorator@NEffectUpdateDecorator@@@Z ; CDynamicPoolEx<NEffectUpdateDecorator::CAirResistanceDecorator>::Delete
PUBLIC	?clear@?$vector@PAVCAirResistanceDecorator@NEffectUpdateDecorator@@V?$allocator@PAVCAirResistanceDecorator@NEffectUpdateDecorator@@@std@@@std@@QAEXXZ ; std::vector<NEffectUpdateDecorator::CAirResistanceDecorator *,std::allocator<NEffectUpdateDecorator::CAirResistanceDecorator *> >::clear
PUBLIC	?_Tidy@?$vector@PAVCAirResistanceDecorator@NEffectUpdateDecorator@@V?$allocator@PAVCAirResistanceDecorator@NEffectUpdateDecorator@@@std@@@std@@AAEXXZ ; std::vector<NEffectUpdateDecorator::CAirResistanceDecorator *,std::allocator<NEffectUpdateDecorator::CAirResistanceDecorator *> >::_Tidy
PUBLIC	??_G?$CDynamicPoolEx@VCAirResistanceDecorator@NEffectUpdateDecorator@@@@UAEPAXI@Z ; CDynamicPoolEx<NEffectUpdateDecorator::CAirResistanceDecorator>::`scalar deleting destructor'
PUBLIC	??0?$CDynamicPoolEx@VCTextureAnimationRandomDecorator@NEffectUpdateDecorator@@@@QAE@XZ ; CDynamicPoolEx<NEffectUpdateDecorator::CTextureAnimationRandomDecorator>::CDynamicPoolEx<NEffectUpdateDecorator::CTextureAnimationRandomDecorator>
PUBLIC	??1?$CDynamicPoolEx@VCTextureAnimationRandomDecorator@NEffectUpdateDecorator@@@@UAE@XZ ; CDynamicPoolEx<NEffectUpdateDecorator::CTextureAnimationRandomDecorator>::~CDynamicPoolEx<NEffectUpdateDecorator::CTextureAnimationRandomDecorator>
PUBLIC	?Destroy@?$CDynamicPoolEx@VCTextureAnimationRandomDecorator@NEffectUpdateDecorator@@@@QAEXXZ ; CDynamicPoolEx<NEffectUpdateDecorator::CTextureAnimationRandomDecorator>::Destroy
PUBLIC	?Delete@?$CDynamicPoolEx@VCTextureAnimationRandomDecorator@NEffectUpdateDecorator@@@@KAXPAVCTextureAnimationRandomDecorator@NEffectUpdateDecorator@@@Z ; CDynamicPoolEx<NEffectUpdateDecorator::CTextureAnimationRandomDecorator>::Delete
PUBLIC	?clear@?$vector@PAVCTextureAnimationRandomDecorator@NEffectUpdateDecorator@@V?$allocator@PAVCTextureAnimationRandomDecorator@NEffectUpdateDecorator@@@std@@@std@@QAEXXZ ; std::vector<NEffectUpdateDecorator::CTextureAnimationRandomDecorator *,std::allocator<NEffectUpdateDecorator::CTextureAnimationRandomDecorator *> >::clear
PUBLIC	?_Tidy@?$vector@PAVCTextureAnimationRandomDecorator@NEffectUpdateDecorator@@V?$allocator@PAVCTextureAnimationRandomDecorator@NEffectUpdateDecorator@@@std@@@std@@AAEXXZ ; std::vector<NEffectUpdateDecorator::CTextureAnimationRandomDecorator *,std::allocator<NEffectUpdateDecorator::CTextureAnimationRandomDecorator *> >::_Tidy
PUBLIC	??_G?$CDynamicPoolEx@VCTextureAnimationRandomDecorator@NEffectUpdateDecorator@@@@UAEPAXI@Z ; CDynamicPoolEx<NEffectUpdateDecorator::CTextureAnimationRandomDecorator>::`scalar deleting destructor'
PUBLIC	??0?$CDynamicPoolEx@VCTextureAnimationCCWDecorator@NEffectUpdateDecorator@@@@QAE@XZ ; CDynamicPoolEx<NEffectUpdateDecorator::CTextureAnimationCCWDecorator>::CDynamicPoolEx<NEffectUpdateDecorator::CTextureAnimationCCWDecorator>
PUBLIC	??1?$CDynamicPoolEx@VCTextureAnimationCCWDecorator@NEffectUpdateDecorator@@@@UAE@XZ ; CDynamicPoolEx<NEffectUpdateDecorator::CTextureAnimationCCWDecorator>::~CDynamicPoolEx<NEffectUpdateDecorator::CTextureAnimationCCWDecorator>
PUBLIC	?Destroy@?$CDynamicPoolEx@VCTextureAnimationCCWDecorator@NEffectUpdateDecorator@@@@QAEXXZ ; CDynamicPoolEx<NEffectUpdateDecorator::CTextureAnimationCCWDecorator>::Destroy
PUBLIC	?Delete@?$CDynamicPoolEx@VCTextureAnimationCCWDecorator@NEffectUpdateDecorator@@@@KAXPAVCTextureAnimationCCWDecorator@NEffectUpdateDecorator@@@Z ; CDynamicPoolEx<NEffectUpdateDecorator::CTextureAnimationCCWDecorator>::Delete
PUBLIC	?clear@?$vector@PAVCTextureAnimationCCWDecorator@NEffectUpdateDecorator@@V?$allocator@PAVCTextureAnimationCCWDecorator@NEffectUpdateDecorator@@@std@@@std@@QAEXXZ ; std::vector<NEffectUpdateDecorator::CTextureAnimationCCWDecorator *,std::allocator<NEffectUpdateDecorator::CTextureAnimationCCWDecorator *> >::clear
PUBLIC	?_Tidy@?$vector@PAVCTextureAnimationCCWDecorator@NEffectUpdateDecorator@@V?$allocator@PAVCTextureAnimationCCWDecorator@NEffectUpdateDecorator@@@std@@@std@@AAEXXZ ; std::vector<NEffectUpdateDecorator::CTextureAnimationCCWDecorator *,std::allocator<NEffectUpdateDecorator::CTextureAnimationCCWDecorator *> >::_Tidy
PUBLIC	??_G?$CDynamicPoolEx@VCTextureAnimationCCWDecorator@NEffectUpdateDecorator@@@@UAEPAXI@Z ; CDynamicPoolEx<NEffectUpdateDecorator::CTextureAnimationCCWDecorator>::`scalar deleting destructor'
PUBLIC	??0?$CDynamicPoolEx@VCTextureAnimationCWDecorator@NEffectUpdateDecorator@@@@QAE@XZ ; CDynamicPoolEx<NEffectUpdateDecorator::CTextureAnimationCWDecorator>::CDynamicPoolEx<NEffectUpdateDecorator::CTextureAnimationCWDecorator>
PUBLIC	??1?$CDynamicPoolEx@VCTextureAnimationCWDecorator@NEffectUpdateDecorator@@@@UAE@XZ ; CDynamicPoolEx<NEffectUpdateDecorator::CTextureAnimationCWDecorator>::~CDynamicPoolEx<NEffectUpdateDecorator::CTextureAnimationCWDecorator>
PUBLIC	?Destroy@?$CDynamicPoolEx@VCTextureAnimationCWDecorator@NEffectUpdateDecorator@@@@QAEXXZ ; CDynamicPoolEx<NEffectUpdateDecorator::CTextureAnimationCWDecorator>::Destroy
PUBLIC	?Delete@?$CDynamicPoolEx@VCTextureAnimationCWDecorator@NEffectUpdateDecorator@@@@KAXPAVCTextureAnimationCWDecorator@NEffectUpdateDecorator@@@Z ; CDynamicPoolEx<NEffectUpdateDecorator::CTextureAnimationCWDecorator>::Delete
PUBLIC	?clear@?$vector@PAVCTextureAnimationCWDecorator@NEffectUpdateDecorator@@V?$allocator@PAVCTextureAnimationCWDecorator@NEffectUpdateDecorator@@@std@@@std@@QAEXXZ ; std::vector<NEffectUpdateDecorator::CTextureAnimationCWDecorator *,std::allocator<NEffectUpdateDecorator::CTextureAnimationCWDecorator *> >::clear
PUBLIC	?_Tidy@?$vector@PAVCTextureAnimationCWDecorator@NEffectUpdateDecorator@@V?$allocator@PAVCTextureAnimationCWDecorator@NEffectUpdateDecorator@@@std@@@std@@AAEXXZ ; std::vector<NEffectUpdateDecorator::CTextureAnimationCWDecorator *,std::allocator<NEffectUpdateDecorator::CTextureAnimationCWDecorator *> >::_Tidy
PUBLIC	??_G?$CDynamicPoolEx@VCTextureAnimationCWDecorator@NEffectUpdateDecorator@@@@UAEPAXI@Z ; CDynamicPoolEx<NEffectUpdateDecorator::CTextureAnimationCWDecorator>::`scalar deleting destructor'
PUBLIC	??0?$CDynamicPoolEx@VCNullDecorator@NEffectUpdateDecorator@@@@QAE@XZ ; CDynamicPoolEx<NEffectUpdateDecorator::CNullDecorator>::CDynamicPoolEx<NEffectUpdateDecorator::CNullDecorator>
PUBLIC	??1?$CDynamicPoolEx@VCNullDecorator@NEffectUpdateDecorator@@@@UAE@XZ ; CDynamicPoolEx<NEffectUpdateDecorator::CNullDecorator>::~CDynamicPoolEx<NEffectUpdateDecorator::CNullDecorator>
PUBLIC	?Destroy@?$CDynamicPoolEx@VCNullDecorator@NEffectUpdateDecorator@@@@QAEXXZ ; CDynamicPoolEx<NEffectUpdateDecorator::CNullDecorator>::Destroy
PUBLIC	?Delete@?$CDynamicPoolEx@VCNullDecorator@NEffectUpdateDecorator@@@@KAXPAVCNullDecorator@NEffectUpdateDecorator@@@Z ; CDynamicPoolEx<NEffectUpdateDecorator::CNullDecorator>::Delete
PUBLIC	?clear@?$vector@PAVCNullDecorator@NEffectUpdateDecorator@@V?$allocator@PAVCNullDecorator@NEffectUpdateDecorator@@@std@@@std@@QAEXXZ ; std::vector<NEffectUpdateDecorator::CNullDecorator *,std::allocator<NEffectUpdateDecorator::CNullDecorator *> >::clear
PUBLIC	?_Tidy@?$vector@PAVCNullDecorator@NEffectUpdateDecorator@@V?$allocator@PAVCNullDecorator@NEffectUpdateDecorator@@@std@@@std@@AAEXXZ ; std::vector<NEffectUpdateDecorator::CNullDecorator *,std::allocator<NEffectUpdateDecorator::CNullDecorator *> >::_Tidy
PUBLIC	??_G?$CDynamicPoolEx@VCNullDecorator@NEffectUpdateDecorator@@@@UAEPAXI@Z ; CDynamicPoolEx<NEffectUpdateDecorator::CNullDecorator>::`scalar deleting destructor'
PUBLIC	??0?$CDynamicPoolEx@VCHeaderDecorator@NEffectUpdateDecorator@@@@QAE@XZ ; CDynamicPoolEx<NEffectUpdateDecorator::CHeaderDecorator>::CDynamicPoolEx<NEffectUpdateDecorator::CHeaderDecorator>
PUBLIC	??1?$CDynamicPoolEx@VCHeaderDecorator@NEffectUpdateDecorator@@@@UAE@XZ ; CDynamicPoolEx<NEffectUpdateDecorator::CHeaderDecorator>::~CDynamicPoolEx<NEffectUpdateDecorator::CHeaderDecorator>
PUBLIC	?Destroy@?$CDynamicPoolEx@VCHeaderDecorator@NEffectUpdateDecorator@@@@QAEXXZ ; CDynamicPoolEx<NEffectUpdateDecorator::CHeaderDecorator>::Destroy
PUBLIC	?Delete@?$CDynamicPoolEx@VCHeaderDecorator@NEffectUpdateDecorator@@@@KAXPAVCHeaderDecorator@NEffectUpdateDecorator@@@Z ; CDynamicPoolEx<NEffectUpdateDecorator::CHeaderDecorator>::Delete
PUBLIC	?clear@?$vector@PAVCHeaderDecorator@NEffectUpdateDecorator@@V?$allocator@PAVCHeaderDecorator@NEffectUpdateDecorator@@@std@@@std@@QAEXXZ ; std::vector<NEffectUpdateDecorator::CHeaderDecorator *,std::allocator<NEffectUpdateDecorator::CHeaderDecorator *> >::clear
PUBLIC	?_Tidy@?$vector@PAVCHeaderDecorator@NEffectUpdateDecorator@@V?$allocator@PAVCHeaderDecorator@NEffectUpdateDecorator@@@std@@@std@@AAEXXZ ; std::vector<NEffectUpdateDecorator::CHeaderDecorator *,std::allocator<NEffectUpdateDecorator::CHeaderDecorator *> >::_Tidy
PUBLIC	??_G?$CDynamicPoolEx@VCHeaderDecorator@NEffectUpdateDecorator@@@@UAEPAXI@Z ; CDynamicPoolEx<NEffectUpdateDecorator::CHeaderDecorator>::`scalar deleting destructor'
PUBLIC	??$for_each@V?$_Vector_iterator@V?$_Vector_val@U?$_Simple_types@PAVCHeaderDecorator@NEffectUpdateDecorator@@@std@@@std@@@std@@P6AXPAVCHeaderDecorator@NEffectUpdateDecorator@@@Z@std@@YAP6AXPAVCHeaderDecorator@NEffectUpdateDecorator@@@ZV?$_Vector_iterator@V?$_Vector_val@U?$_Simple_types@PAVCHeaderDecorator@NEffectUpdateDecorator@@@std@@@std@@@0@1P6AX0@Z@Z ; std::for_each<std::_Vector_iterator<std::_Vector_val<std::_Simple_types<NEffectUpdateDecorator::CHeaderDecorator *> > >,void (__cdecl*)(NEffectUpdateDecorator::CHeaderDecorator *)>
PUBLIC	??$for_each@V?$_Vector_iterator@V?$_Vector_val@U?$_Simple_types@PAVCNullDecorator@NEffectUpdateDecorator@@@std@@@std@@@std@@P6AXPAVCNullDecorator@NEffectUpdateDecorator@@@Z@std@@YAP6AXPAVCNullDecorator@NEffectUpdateDecorator@@@ZV?$_Vector_iterator@V?$_Vector_val@U?$_Simple_types@PAVCNullDecorator@NEffectUpdateDecorator@@@std@@@std@@@0@1P6AX0@Z@Z ; std::for_each<std::_Vector_iterator<std::_Vector_val<std::_Simple_types<NEffectUpdateDecorator::CNullDecorator *> > >,void (__cdecl*)(NEffectUpdateDecorator::CNullDecorator *)>
PUBLIC	??$for_each@V?$_Vector_iterator@V?$_Vector_val@U?$_Simple_types@PAVCTextureAnimationCWDecorator@NEffectUpdateDecorator@@@std@@@std@@@std@@P6AXPAVCTextureAnimationCWDecorator@NEffectUpdateDecorator@@@Z@std@@YAP6AXPAVCTextureAnimationCWDecorator@NEffectUpdateDecorator@@@ZV?$_Vector_iterator@V?$_Vector_val@U?$_Simple_types@PAVCTextureAnimationCWDecorator@NEffectUpdateDecorator@@@std@@@std@@@0@1P6AX0@Z@Z ; std::for_each<std::_Vector_iterator<std::_Vector_val<std::_Simple_types<NEffectUpdateDecorator::CTextureAnimationCWDecorator *> > >,void (__cdecl*)(NEffectUpdateDecorator::CTextureAnimationCWDecorator *)>
PUBLIC	??$for_each@V?$_Vector_iterator@V?$_Vector_val@U?$_Simple_types@PAVCTextureAnimationCCWDecorator@NEffectUpdateDecorator@@@std@@@std@@@std@@P6AXPAVCTextureAnimationCCWDecorator@NEffectUpdateDecorator@@@Z@std@@YAP6AXPAVCTextureAnimationCCWDecorator@NEffectUpdateDecorator@@@ZV?$_Vector_iterator@V?$_Vector_val@U?$_Simple_types@PAVCTextureAnimationCCWDecorator@NEffectUpdateDecorator@@@std@@@std@@@0@1P6AX0@Z@Z ; std::for_each<std::_Vector_iterator<std::_Vector_val<std::_Simple_types<NEffectUpdateDecorator::CTextureAnimationCCWDecorator *> > >,void (__cdecl*)(NEffectUpdateDecorator::CTextureAnimationCCWDecorator *)>
PUBLIC	??$for_each@V?$_Vector_iterator@V?$_Vector_val@U?$_Simple_types@PAVCTextureAnimationRandomDecorator@NEffectUpdateDecorator@@@std@@@std@@@std@@P6AXPAVCTextureAnimationRandomDecorator@NEffectUpdateDecorator@@@Z@std@@YAP6AXPAVCTextureAnimationRandomDecorator@NEffectUpdateDecorator@@@ZV?$_Vector_iterator@V?$_Vector_val@U?$_Simple_types@PAVCTextureAnimationRandomDecorator@NEffectUpdateDecorator@@@std@@@std@@@0@1P6AX0@Z@Z ; std::for_each<std::_Vector_iterator<std::_Vector_val<std::_Simple_types<NEffectUpdateDecorator::CTextureAnimationRandomDecorator *> > >,void (__cdecl*)(NEffectUpdateDecorator::CTextureAnimationRandomDecorator *)>
PUBLIC	??$for_each@V?$_Vector_iterator@V?$_Vector_val@U?$_Simple_types@PAVCAirResistanceDecorator@NEffectUpdateDecorator@@@std@@@std@@@std@@P6AXPAVCAirResistanceDecorator@NEffectUpdateDecorator@@@Z@std@@YAP6AXPAVCAirResistanceDecorator@NEffectUpdateDecorator@@@ZV?$_Vector_iterator@V?$_Vector_val@U?$_Simple_types@PAVCAirResistanceDecorator@NEffectUpdateDecorator@@@std@@@std@@@0@1P6AX0@Z@Z ; std::for_each<std::_Vector_iterator<std::_Vector_val<std::_Simple_types<NEffectUpdateDecorator::CAirResistanceDecorator *> > >,void (__cdecl*)(NEffectUpdateDecorator::CAirResistanceDecorator *)>
PUBLIC	??$for_each@V?$_Vector_iterator@V?$_Vector_val@U?$_Simple_types@PAVCGravityDecorator@NEffectUpdateDecorator@@@std@@@std@@@std@@P6AXPAVCGravityDecorator@NEffectUpdateDecorator@@@Z@std@@YAP6AXPAVCGravityDecorator@NEffectUpdateDecorator@@@ZV?$_Vector_iterator@V?$_Vector_val@U?$_Simple_types@PAVCGravityDecorator@NEffectUpdateDecorator@@@std@@@std@@@0@1P6AX0@Z@Z ; std::for_each<std::_Vector_iterator<std::_Vector_val<std::_Simple_types<NEffectUpdateDecorator::CGravityDecorator *> > >,void (__cdecl*)(NEffectUpdateDecorator::CGravityDecorator *)>
PUBLIC	??$for_each@V?$_Vector_iterator@V?$_Vector_val@U?$_Simple_types@PAVCRotationDecorator@NEffectUpdateDecorator@@@std@@@std@@@std@@P6AXPAVCRotationDecorator@NEffectUpdateDecorator@@@Z@std@@YAP6AXPAVCRotationDecorator@NEffectUpdateDecorator@@@ZV?$_Vector_iterator@V?$_Vector_val@U?$_Simple_types@PAVCRotationDecorator@NEffectUpdateDecorator@@@std@@@std@@@0@1P6AX0@Z@Z ; std::for_each<std::_Vector_iterator<std::_Vector_val<std::_Simple_types<NEffectUpdateDecorator::CRotationDecorator *> > >,void (__cdecl*)(NEffectUpdateDecorator::CRotationDecorator *)>
PUBLIC	??$_Destroy_range@V?$allocator@PAVCHeaderDecorator@NEffectUpdateDecorator@@@std@@@std@@YAXPAPAVCHeaderDecorator@NEffectUpdateDecorator@@QAPAV12@AAV?$allocator@PAVCHeaderDecorator@NEffectUpdateDecorator@@@0@@Z ; std::_Destroy_range<std::allocator<NEffectUpdateDecorator::CHeaderDecorator *> >
PUBLIC	??$_Destroy_range@V?$allocator@PAVCNullDecorator@NEffectUpdateDecorator@@@std@@@std@@YAXPAPAVCNullDecorator@NEffectUpdateDecorator@@QAPAV12@AAV?$allocator@PAVCNullDecorator@NEffectUpdateDecorator@@@0@@Z ; std::_Destroy_range<std::allocator<NEffectUpdateDecorator::CNullDecorator *> >
PUBLIC	??$_Destroy_range@V?$allocator@PAVCTextureAnimationCWDecorator@NEffectUpdateDecorator@@@std@@@std@@YAXPAPAVCTextureAnimationCWDecorator@NEffectUpdateDecorator@@QAPAV12@AAV?$allocator@PAVCTextureAnimationCWDecorator@NEffectUpdateDecorator@@@0@@Z ; std::_Destroy_range<std::allocator<NEffectUpdateDecorator::CTextureAnimationCWDecorator *> >
PUBLIC	??$_Destroy_range@V?$allocator@PAVCTextureAnimationCCWDecorator@NEffectUpdateDecorator@@@std@@@std@@YAXPAPAVCTextureAnimationCCWDecorator@NEffectUpdateDecorator@@QAPAV12@AAV?$allocator@PAVCTextureAnimationCCWDecorator@NEffectUpdateDecorator@@@0@@Z ; std::_Destroy_range<std::allocator<NEffectUpdateDecorator::CTextureAnimationCCWDecorator *> >
PUBLIC	??$_Destroy_range@V?$allocator@PAVCTextureAnimationRandomDecorator@NEffectUpdateDecorator@@@std@@@std@@YAXPAPAVCTextureAnimationRandomDecorator@NEffectUpdateDecorator@@QAPAV12@AAV?$allocator@PAVCTextureAnimationRandomDecorator@NEffectUpdateDecorator@@@0@@Z ; std::_Destroy_range<std::allocator<NEffectUpdateDecorator::CTextureAnimationRandomDecorator *> >
PUBLIC	??$_Destroy_range@V?$allocator@PAVCAirResistanceDecorator@NEffectUpdateDecorator@@@std@@@std@@YAXPAPAVCAirResistanceDecorator@NEffectUpdateDecorator@@QAPAV12@AAV?$allocator@PAVCAirResistanceDecorator@NEffectUpdateDecorator@@@0@@Z ; std::_Destroy_range<std::allocator<NEffectUpdateDecorator::CAirResistanceDecorator *> >
PUBLIC	??$_Destroy_range@V?$allocator@PAVCGravityDecorator@NEffectUpdateDecorator@@@std@@@std@@YAXPAPAVCGravityDecorator@NEffectUpdateDecorator@@QAPAV12@AAV?$allocator@PAVCGravityDecorator@NEffectUpdateDecorator@@@0@@Z ; std::_Destroy_range<std::allocator<NEffectUpdateDecorator::CGravityDecorator *> >
PUBLIC	??$_Destroy_range@V?$allocator@PAVCRotationDecorator@NEffectUpdateDecorator@@@std@@@std@@YAXPAPAVCRotationDecorator@NEffectUpdateDecorator@@QAPAV12@AAV?$allocator@PAVCRotationDecorator@NEffectUpdateDecorator@@@0@@Z ; std::_Destroy_range<std::allocator<NEffectUpdateDecorator::CRotationDecorator *> >
PUBLIC	??_C@_00CNPNBAHC@@				; `string'
PUBLIC	?ms_singleton@?$CSingleton@VCPythonLauncher@@@@0PAVCPythonLauncher@@A ; CSingleton<CPythonLauncher>::ms_singleton
PUBLIC	?ms_singleton@?$CSingleton@VCWindowManager@UI@@@@0PAVCWindowManager@UI@@A ; CSingleton<UI::CWindowManager>::ms_singleton
PUBLIC	?ms_kPool@?$CPooledObject@VCHeaderDecorator@NEffectUpdateDecorator@@@@1V?$CDynamicPoolEx@VCHeaderDecorator@NEffectUpdateDecorator@@@@A ; CPooledObject<NEffectUpdateDecorator::CHeaderDecorator>::ms_kPool
PUBLIC	?ms_kPool@?$CPooledObject@VCNullDecorator@NEffectUpdateDecorator@@@@1V?$CDynamicPoolEx@VCNullDecorator@NEffectUpdateDecorator@@@@A ; CPooledObject<NEffectUpdateDecorator::CNullDecorator>::ms_kPool
PUBLIC	?ms_kPool@?$CPooledObject@VCTextureAnimationCWDecorator@NEffectUpdateDecorator@@@@1V?$CDynamicPoolEx@VCTextureAnimationCWDecorator@NEffectUpdateDecorator@@@@A ; CPooledObject<NEffectUpdateDecorator::CTextureAnimationCWDecorator>::ms_kPool
PUBLIC	?ms_kPool@?$CPooledObject@VCTextureAnimationCCWDecorator@NEffectUpdateDecorator@@@@1V?$CDynamicPoolEx@VCTextureAnimationCCWDecorator@NEffectUpdateDecorator@@@@A ; CPooledObject<NEffectUpdateDecorator::CTextureAnimationCCWDecorator>::ms_kPool
PUBLIC	?ms_kPool@?$CPooledObject@VCTextureAnimationRandomDecorator@NEffectUpdateDecorator@@@@1V?$CDynamicPoolEx@VCTextureAnimationRandomDecorator@NEffectUpdateDecorator@@@@A ; CPooledObject<NEffectUpdateDecorator::CTextureAnimationRandomDecorator>::ms_kPool
PUBLIC	?ms_kPool@?$CPooledObject@VCAirResistanceDecorator@NEffectUpdateDecorator@@@@1V?$CDynamicPoolEx@VCAirResistanceDecorator@NEffectUpdateDecorator@@@@A ; CPooledObject<NEffectUpdateDecorator::CAirResistanceDecorator>::ms_kPool
PUBLIC	?ms_kPool@?$CPooledObject@VCGravityDecorator@NEffectUpdateDecorator@@@@1V?$CDynamicPoolEx@VCGravityDecorator@NEffectUpdateDecorator@@@@A ; CPooledObject<NEffectUpdateDecorator::CGravityDecorator>::ms_kPool
PUBLIC	?ms_kPool@?$CPooledObject@VCRotationDecorator@NEffectUpdateDecorator@@@@1V?$CDynamicPoolEx@VCRotationDecorator@NEffectUpdateDecorator@@@@A ; CPooledObject<NEffectUpdateDecorator::CRotationDecorator>::ms_kPool
PUBLIC	?ms_singleton@?$singleton@VCGuildMarkManager@@@@0PAVCGuildMarkManager@@A ; singleton<CGuildMarkManager>::ms_singleton
PUBLIC	?ms_singleton@?$CSingleton@VCMovieMan@@@@0PAVCMovieMan@@A ; CSingleton<CMovieMan>::ms_singleton
PUBLIC	?ms_singleton@?$CSingleton@VCCameraManager@@@@0PAVCCameraManager@@A ; CSingleton<CCameraManager>::ms_singleton
PUBLIC	??_C@_01KBJDNOO@i@				; `string'
PUBLIC	??_C@_0M@OEKALNFB@RENDER_GAME@			; `string'
PUBLIC	??_C@_01LKDEMHDF@s@				; `string'
PUBLIC	??_C@_02JDPG@rb@				; `string'
PUBLIC	??_C@_02OIKAIHIF@s?$CD@				; `string'
PUBLIC	??_C@_03GLKMLICL@iii@				; `string'
PUBLIC	?ms_singleton@?$CSingleton@VCEterPackManager@@@@0PAVCEterPackManager@@A ; CSingleton<CEterPackManager>::ms_singleton
PUBLIC	??_C@_04EOBPFJGD@ffff@				; `string'
PUBLIC	??_C@_01INIBCBCB@f@				; `string'
PUBLIC	??_C@_02PINLEBJB@fi@				; `string'
PUBLIC	??_C@_02PDIHAGKM@ii@				; `string'
PUBLIC	??_C@_0BH@GNAGLJEE@Wrong?5Cursor?5Name?5?$FL?$CFd?$FN@ ; `string'
PUBLIC	??_C@_02OCDGCAAK@si@				; `string'
PUBLIC	??_C@_04JCAPCJAP@?4tga@				; `string'
PUBLIC	??_C@_0L@OAAOKAFA@IsDevStage@			; `string'
PUBLIC	??_C@_0M@ICBDOOOG@IsTestStage@			; `string'
PUBLIC	??_C@_0M@NJBHEFPA@IsLiveStage@			; `string'
PUBLIC	??_C@_0BG@EOCGHNJF@SetTextTailLivingTime@	; `string'
PUBLIC	??_C@_0BG@DEJFIMMP@EnablePerformanceTime@	; `string'
PUBLIC	??_C@_0BD@PILPKKLH@SetHairColorEnable@		; `string'
PUBLIC	??_C@_0BH@PJOFIHBE@SetArmorSpecularEnable@	; `string'
PUBLIC	??_C@_0BI@ONHBEMJA@SetWeaponSpecularEnable@	; `string'
PUBLIC	??_C@_0BM@CMPMDOBN@SetSkillEffectUpgradeEnable@	; `string'
PUBLIC	??_C@_0CI@KEKBEMLJ@SetTwoHandedWeaponAttSpeedDecre@ ; `string'
PUBLIC	??_C@_0BD@CPFDKOFJ@SetRideHorseEnable@		; `string'
PUBLIC	??_C@_0BF@CEAHHILA@SetCameraMaxDistance@	; `string'
PUBLIC	??_C@_09ILNFAENI@SetMinFog@			; `string'
PUBLIC	??_C@_0N@KCIEBLLG@SetFrameSkip@			; `string'
PUBLIC	??_C@_0N@CLLAGICL@GetImageInfo@			; `string'
PUBLIC	??_C@_07NAJNLNAF@GetInfo@			; `string'
PUBLIC	??_C@_0L@HMEHDBP@UpdateGame@			; `string'
PUBLIC	??_C@_0L@ONMMANJD@RenderGame@			; `string'
PUBLIC	??_C@_04KLCPKPBE@Loop@				; `string'
PUBLIC	??_C@_06MIKANEJK@Create@			; `string'
PUBLIC	??_C@_07MNGBFJEN@Process@			; `string'
PUBLIC	??_C@_04LBABLPF@Exit@				; `string'
PUBLIC	??_C@_05BGKIEECB@Abort@				; `string'
PUBLIC	??_C@_0BA@PPCHHCMN@SetMouseHandler@		; `string'
PUBLIC	??_C@_0M@DHIFKLBN@IsExistFile@			; `string'
PUBLIC	??_C@_0M@KODKGGCI@GetFileList@			; `string'
PUBLIC	??_C@_09IADKBAEN@SetCamera@			; `string'
PUBLIC	??_C@_09KOHPDBNP@GetCamera@			; `string'
PUBLIC	??_C@_0P@LHFPHHJA@GetCameraPitch@		; `string'
PUBLIC	??_C@_0BC@JICDJDCH@GetCameraRotation@		; `string'
PUBLIC	??_C@_07CDIANBOE@GetTime@			; `string'
PUBLIC	??_C@_0O@JKNDJHIN@GetGlobalTime@		; `string'
PUBLIC	??_C@_0BD@HGCMJHC@GetGlobalTimeStamp@		; `string'
PUBLIC	??_C@_0N@JKLFODAC@GetUpdateFPS@			; `string'
PUBLIC	??_C@_0N@EHIMFGIG@GetRenderFPS@			; `string'
PUBLIC	??_C@_0N@HGIDFLAJ@RotateCamera@			; `string'
PUBLIC	??_C@_0M@PKAIAJKC@PitchCamera@			; `string'
PUBLIC	??_C@_0L@BGDDIOFP@ZoomCamera@			; `string'
PUBLIC	??_C@_0BC@FCGIGAKD@MovieRotateCamera@		; `string'
PUBLIC	??_C@_0BB@KFJAAFFB@MoviePitchCamera@		; `string'
PUBLIC	??_C@_0BA@ILLHHFGG@MovieZoomCamera@		; `string'
PUBLIC	??_C@_0BB@PJGDEPJO@MovieResetCamera@		; `string'
PUBLIC	??_C@_0BK@PBNANFFG@GetAvailableTextureMemory@	; `string'
PUBLIC	??_C@_0O@KFOAIOPC@GetRenderTime@		; `string'
PUBLIC	??_C@_0O@EPOIPAHO@GetUpdateTime@		; `string'
PUBLIC	??_C@_07EGHKJKFO@GetLoad@			; `string'
PUBLIC	??_C@_0N@KBJEAIDC@GetFaceSpeed@			; `string'
PUBLIC	??_C@_0N@FGHMKANF@GetFaceCount@			; `string'
PUBLIC	??_C@_06GHJACMIL@SetFPS@			; `string'
PUBLIC	??_C@_0BI@BPPNOEKE@SetGlobalCenterPosition@	; `string'
PUBLIC	??_C@_0BC@MCKFCFLJ@SetCenterPosition@		; `string'
PUBLIC	??_C@_0BC@DJJGDMOB@GetCursorPosition@		; `string'
PUBLIC	??_C@_09CIIBMEDP@GetRandom@			; `string'
PUBLIC	??_C@_0O@NFOAEJMI@RunPythonFile@		; `string'
PUBLIC	??_C@_0O@JGKOEJBF@IsWebPageMode@		; `string'
PUBLIC	??_C@_0M@LMDMBNNG@ShowWebPage@			; `string'
PUBLIC	??_C@_0M@CJKDPGGC@MoveWebPage@			; `string'
PUBLIC	??_C@_0M@HKOOBKOE@HideWebPage@			; `string'
PUBLIC	??_C@_09EJGJNKNL@IsPressed@			; `string'
PUBLIC	??_C@_09PKKOCJGB@SetCursor@			; `string'
PUBLIC	??_C@_09NEOLAIPD@GetCursor@			; `string'
PUBLIC	??_C@_0L@BIENLPGM@ShowCursor@			; `string'
PUBLIC	??_C@_0L@MGJDDPFG@HideCursor@			; `string'
PUBLIC	??_C@_0N@BFHCIAEF@IsShowCursor@			; `string'
PUBLIC	??_C@_0P@FMIDHOAE@IsLiarCursorOn@		; `string'
PUBLIC	??_C@_0BC@IDNDDKLI@SetSoftwareCursor@		; `string'
PUBLIC	??_C@_0BC@KKHIHHDJ@SetHardwareCursor@		; `string'
PUBLIC	??_C@_0P@KJLEKPPL@SetConnectData@		; `string'
PUBLIC	??_C@_0P@GHKKFFNH@GetConnectData@		; `string'
PUBLIC	??_C@_0BF@IMHAMDDH@GetRotatingDirection@	; `string'
PUBLIC	??_C@_0BE@JKNPCCAK@GetDegreeDifference@		; `string'
PUBLIC	??_C@_05PFDOMJEF@Sleep@				; `string'
PUBLIC	??_C@_0BD@CKMKHHJC@SetDefaultFontName@		; `string'
PUBLIC	??_C@_0BD@CENDFAOC@SetGuildSymbolPath@		; `string'
PUBLIC	??_C@_0BI@LNMJCGJN@EnableSpecialCameraMode@	; `string'
PUBLIC	??_C@_0P@NCLIAJKF@SetCameraSpeed@		; `string'
PUBLIC	??_C@_0BC@JPDLAHCD@SaveCameraSetting@		; `string'
PUBLIC	??_C@_0BC@KEOGBKMG@LoadCameraSetting@		; `string'
PUBLIC	??_C@_0BB@IPPGJFKO@SetDefaultCamera@		; `string'
PUBLIC	??_C@_0BB@JANPDNEC@SetCameraSetting@		; `string'
PUBLIC	??_C@_0O@MFMELJAK@SetSightRange@		; `string'
PUBLIC	??_C@_0M@LOHDPEAO@IsFileExist@			; `string'
PUBLIC	??_C@_0N@JAMKKFFG@OpenTextFile@			; `string'
PUBLIC	??_C@_0O@LNEGOIPA@CloseTextFile@		; `string'
PUBLIC	??_C@_0BF@BNHHEKFO@GetTextFileLineCount@	; `string'
PUBLIC	??_C@_0BA@HHNFKANE@GetTextFileLine@		; `string'
PUBLIC	??_C@_0BF@PBACFPCP@GetLocaleServiceName@	; `string'
PUBLIC	??_C@_0O@JDECMIPJ@GetLocaleName@		; `string'
PUBLIC	??_C@_0O@OKMLAHKI@GetLocalePath@		; `string'
PUBLIC	??_C@_0P@KMAINBBA@ForceSetLocale@		; `string'
PUBLIC	??_C@_0P@JHGEFJDO@LoadLocaleAddr@		; `string'
PUBLIC	??_C@_0P@BFJDMEJO@LoadLocaleData@		; `string'
PUBLIC	??_C@_0L@FAIOENFF@SetCHEONMA@			; `string'
PUBLIC	??_C@_09INPKBHN@IsCHEONMA@			; `string'
PUBLIC	??_C@_0BD@CEMKCGHA@GetDefaultCodePage@		; `string'
PUBLIC	??_C@_0N@HDAEMEAH@SetControlFP@			; `string'
PUBLIC	??_C@_0BB@IFMAFIHG@SetSpecularSpeed@		; `string'
PUBLIC	??_C@_0BI@DNKBNLNC@testGetAccumulationTime@	; `string'
PUBLIC	??_C@_0BK@PLDHJGMN@testResetAccumulationTime@	; `string'
PUBLIC	??_C@_0BF@KHKICLKO@testSetSpecularColor@	; `string'
PUBLIC	??_C@_0BB@MMPIECKB@SetVisibleNotice@		; `string'
PUBLIC	??_C@_0BA@NLDNPIOL@IsVisibleNotice@		; `string'
PUBLIC	??_C@_0BF@BOMOCGIP@EnableTestServerFlag@	; `string'
PUBLIC	??_C@_0BH@GBDECBIH@IsEnableTestServerFlag@	; `string'
PUBLIC	??_C@_0BB@DLDOCGLL@SetGuildMarkPath@		; `string'
PUBLIC	??_C@_0N@LIPHBNAO@OnLogoUpdate@			; `string'
PUBLIC	??_C@_0N@ELECBFOK@OnLogoRender@			; `string'
PUBLIC	??_C@_0L@JMMGDKPP@OnLogoOpen@			; `string'
PUBLIC	??_C@_0M@JMIFNMOK@OnLogoClose@			; `string'
PUBLIC	??_C@_03CGOPKBCD@app@				; `string'
PUBLIC	??_C@_09OKOJMLAA@INFO_ITEM@			; `string'
PUBLIC	??_C@_0L@FNNFPLHG@INFO_ACTOR@			; `string'
PUBLIC	??_C@_0M@KLBHMBMD@INFO_EFFECT@			; `string'
PUBLIC	??_C@_0O@FAGLOALJ@INFO_TEXTTAIL@		; `string'
PUBLIC	??_C@_0BG@KEIJCHNJ@DEGREE_DIRECTION_SAME@	; `string'
PUBLIC	??_C@_0BH@LNDFJAFE@DEGREE_DIRECTION_RIGHT@	; `string'
PUBLIC	??_C@_0BG@JGNHHMCM@DEGREE_DIRECTION_LEFT@	; `string'
PUBLIC	??_C@_07CJEJDFBD@VK_LEFT@			; `string'
PUBLIC	??_C@_08LOMCDCA@VK_RIGHT@			; `string'
PUBLIC	??_C@_05PIGLHCBF@VK_UP@				; `string'
PUBLIC	??_C@_07NLENKNCK@VK_DOWN@			; `string'
PUBLIC	??_C@_07OMPILPEG@VK_HOME@			; `string'
PUBLIC	??_C@_06LPJBNMHN@VK_END@			; `string'
PUBLIC	??_C@_09EABNPHOI@VK_DELETE@			; `string'
PUBLIC	??_C@_0L@BOHNMBC@DIK_ESCAPE@			; `string'
PUBLIC	??_C@_07CACBFKLO@DIK_ESC@			; `string'
PUBLIC	??_C@_05GCLPJNBN@DIK_1@				; `string'
PUBLIC	??_C@_05EJJCMONO@DIK_2@				; `string'
PUBLIC	??_C@_05FAIJPPJP@DIK_3@				; `string'
PUBLIC	??_C@_05BPMIGJFI@DIK_4@				; `string'
PUBLIC	??_C@_05GNDFIBJ@DIK_5@				; `string'
PUBLIC	??_C@_05CNPOALNK@DIK_6@				; `string'
PUBLIC	??_C@_05DEOFDKJL@DIK_7@				; `string'
PUBLIC	??_C@_05LDHNCGFE@DIK_8@				; `string'
PUBLIC	??_C@_05KKGGBHBF@DIK_9@				; `string'
PUBLIC	??_C@_05HLKEKMFM@DIK_0@				; `string'
PUBLIC	??_C@_09DOHACMKC@DIK_MINUS@			; `string'
PUBLIC	??_C@_0L@KKCLPAPI@DIK_EQUALS@			; `string'
PUBLIC	??_C@_08HHEEGKBL@DIK_BACK@			; `string'
PUBLIC	??_C@_07MODNCMBL@DIK_TAB@			; `string'
PUBLIC	??_C@_05HECPGLK@DIK_Q@				; `string'
PUBLIC	??_C@_05FBBIFBDM@DIK_W@				; `string'
PUBLIC	??_C@_05CJOMCBOP@DIK_E@				; `string'
PUBLIC	??_C@_05CMGPKFHJ@DIK_R@				; `string'
PUBLIC	??_C@_05HKDFACPP@DIK_T@				; `string'
PUBLIC	??_C@_05MPJLHMLC@DIK_Y@				; `string'
PUBLIC	??_C@_05GDCODDLO@DIK_U@				; `string'
PUBLIC	??_C@_05IFFJGOOD@DIK_I@				; `string'
PUBLIC	??_C@_05NDADMJGF@DIK_O@				; `string'
PUBLIC	??_C@_05BOFJMHPL@DIK_P@				; `string'
PUBLIC	??_C@_0N@EFJDLCEF@DIK_LBRACKET@			; `string'
PUBLIC	??_C@_0N@CBJBCLKG@DIK_RBRACKET@			; `string'
PUBLIC	??_C@_0L@JLNKBJCL@DIK_RETURN@			; `string'
PUBLIC	??_C@_0N@ODLLDAI@DIK_LCONTROL@			; `string'
PUBLIC	??_C@_05ENIAOEOL@DIK_A@				; `string'
PUBLIC	??_C@_05DFHEJEDI@DIK_S@				; `string'
PUBLIC	??_C@_05DAPHBAKO@DIK_D@				; `string'
PUBLIC	??_C@_05CMBHCCM@DIK_F@				; `string'
PUBLIC	??_C@_05BLNKEDGN@DIK_G@				; `string'
PUBLIC	??_C@_05JMECFPKC@DIK_H@				; `string'
PUBLIC	??_C@_05KOHEDNCA@DIK_J@				; `string'
PUBLIC	??_C@_05LHGPAMGB@DIK_K@				; `string'
PUBLIC	??_C@_05PICOJKKG@DIK_L@				; `string'
PUBLIC	??_C@_0O@NEECDLLB@DIK_SEMICOLON@		; `string'
PUBLIC	??_C@_0P@JDEKLKAM@DIK_APOSTROPHE@		; `string'
PUBLIC	??_C@_09MOGGLCIP@DIK_GRAVE@			; `string'
PUBLIC	??_C@_0L@GNGJHMON@DIK_LSHIFT@			; `string'
PUBLIC	??_C@_0O@DGKNNOHE@DIK_BACKSLASH@		; `string'
PUBLIC	??_C@_05OELGCPHB@DIK_Z@				; `string'
PUBLIC	??_C@_05NGIAENPD@DIK_X@				; `string'
PUBLIC	??_C@_05HPLGIGGJ@DIK_C@				; `string'
PUBLIC	??_C@_05EIADGAHN@DIK_V@				; `string'
PUBLIC	??_C@_05GGKNLHCI@DIK_B@				; `string'
PUBLIC	??_C@_05MKBIPICE@DIK_N@				; `string'
PUBLIC	??_C@_05OBDFKLOH@DIK_M@				; `string'
PUBLIC	??_C@_09PDEOJFIH@DIK_COMMA@			; `string'
PUBLIC	??_C@_0L@HHNLMNCM@DIK_PERIOD@			; `string'
PUBLIC	??_C@_09DKJEGHEH@DIK_SLASH@			; `string'
PUBLIC	??_C@_0L@FKIIJLHO@DIK_RSHIFT@			; `string'
PUBLIC	??_C@_0N@DHLLGHHC@DIK_MULTIPLY@			; `string'
PUBLIC	??_C@_08OHCJNNJ@DIK_LALT@			; `string'
PUBLIC	??_C@_09DGAMMAPJ@DIK_SPACE@			; `string'
PUBLIC	??_C@_0M@KEADBGIC@DIK_CAPITAL@			; `string'
PUBLIC	??_C@_06PEIHKKCD@DIK_F1@			; `string'
PUBLIC	??_C@_06NPKKPJOA@DIK_F2@			; `string'
PUBLIC	??_C@_06MGLBMIKB@DIK_F3@			; `string'
PUBLIC	??_C@_06IJPAFOGG@DIK_F4@			; `string'
PUBLIC	??_C@_06JAOLGPCH@DIK_F5@			; `string'
PUBLIC	??_C@_06LLMGDMOE@DIK_F6@			; `string'
PUBLIC	??_C@_06KCNNANKF@DIK_F7@			; `string'
PUBLIC	??_C@_06CFEFBBGK@DIK_F8@			; `string'
PUBLIC	??_C@_06DMFOCACL@DIK_F9@			; `string'
PUBLIC	??_C@_07HNNFMACL@DIK_F10@			; `string'
PUBLIC	??_C@_0M@BAOCLHIM@DIK_NUMLOCK@			; `string'
PUBLIC	??_C@_0L@HPJOFPCB@DIK_SCROLL@			; `string'
PUBLIC	??_C@_0M@NDOIJKED@DIK_NUMPAD7@			; `string'
PUBLIC	??_C@_0M@FEHAIGIM@DIK_NUMPAD8@			; `string'
PUBLIC	??_C@_0M@ENGLLHMN@DIK_NUMPAD9@			; `string'
PUBLIC	??_C@_0N@ECOBCKNF@DIK_SUBTRACT@			; `string'
PUBLIC	??_C@_0M@PIMFMJIA@DIK_NUMPAD4@			; `string'
PUBLIC	??_C@_0M@OBNOPIMB@DIK_NUMPAD5@			; `string'
PUBLIC	??_C@_0M@MKPDKLAC@DIK_NUMPAD6@			; `string'
PUBLIC	??_C@_07PJGLOONL@DIK_ADD@			; `string'
PUBLIC	??_C@_0M@IFLCDNMF@DIK_NUMPAD1@			; `string'
PUBLIC	??_C@_0M@KOJPGOAG@DIK_NUMPAD2@			; `string'
PUBLIC	??_C@_0M@LHIEFPEH@DIK_NUMPAD3@			; `string'
PUBLIC	??_C@_0M@JMKJAMIE@DIK_NUMPAD0@			; `string'
PUBLIC	??_C@_0M@PCNKFDKI@DIK_DECIMAL@			; `string'
PUBLIC	??_C@_07GEMOPBGK@DIK_F11@			; `string'
PUBLIC	??_C@_07EPODKCKJ@DIK_F12@			; `string'
PUBLIC	??_C@_0O@DEOEEHEE@DIK_NEXTTRACK@		; `string'
PUBLIC	??_C@_0BA@OLMCJCJF@DIK_NUMPADENTER@		; `string'
PUBLIC	??_C@_0N@GKDJCKOL@DIK_RCONTROL@			; `string'
PUBLIC	??_C@_08KNIFKFHJ@DIK_MUTE@			; `string'
PUBLIC	??_C@_0P@OJEJDHIP@DIK_CALCULATOR@		; `string'
PUBLIC	??_C@_0O@ECAMOKPG@DIK_PLAYPAUSE@		; `string'
PUBLIC	??_C@_0O@FLFOAKOG@DIK_MEDIASTOP@		; `string'
PUBLIC	??_C@_0P@FKHBCEAD@DIK_VOLUMEDOWN@		; `string'
PUBLIC	??_C@_0N@GPHLGHED@DIK_VOLUMEUP@			; `string'
PUBLIC	??_C@_0M@IEADBFND@DIK_WEBHOME@			; `string'
PUBLIC	??_C@_0BA@ECBGFAAH@DIK_NUMPADCOMMA@		; `string'
PUBLIC	??_C@_0L@HDEGMNOK@DIK_DIVIDE@			; `string'
PUBLIC	??_C@_09PCEGCDIO@DIK_SYSRQ@			; `string'
PUBLIC	??_C@_08NBKCLEDK@DIK_RALT@			; `string'
PUBLIC	??_C@_09COEFGPNN@DIK_PAUSE@			; `string'
PUBLIC	??_C@_08EJDGAFAN@DIK_HOME@			; `string'
PUBLIC	??_C@_06JGABONOM@DIK_UP@			; `string'
PUBLIC	??_C@_08PJJCOFHN@DIK_PGUP@			; `string'
PUBLIC	??_C@_08IMIHIPFI@DIK_LEFT@			; `string'
PUBLIC	??_C@_09OKEHHFIC@DIK_RIGHT@			; `string'
PUBLIC	??_C@_07HLJOPMFK@DIK_END@			; `string'
PUBLIC	??_C@_08HOIDBHGB@DIK_DOWN@			; `string'
PUBLIC	??_C@_08DADHBDOF@DIK_PGDN@			; `string'
PUBLIC	??_C@_0L@MGNAFAII@DIK_INSERT@			; `string'
PUBLIC	??_C@_0L@HICEJOHK@DIK_DELETE@			; `string'
PUBLIC	??_C@_08MNOGKNKK@DIK_LWIN@			; `string'
PUBLIC	??_C@_08BCDGIEEJ@DIK_RWIN@			; `string'
PUBLIC	??_C@_08EEDKKFEB@DIK_APPS@			; `string'
PUBLIC	??_C@_06IOJAGNKJ@NORMAL@			; `string'
PUBLIC	??_C@_06JIJKOHKJ@ATTACK@			; `string'
PUBLIC	??_C@_06JNJLBPLI@TARGET@			; `string'
PUBLIC	??_C@_04LNOLLMNL@TALK@				; `string'
PUBLIC	??_C@_07LGCIEODJ@CANT_GO@			; `string'
PUBLIC	??_C@_04IGIDHFMJ@PICK@				; `string'
PUBLIC	??_C@_04KEJCELCL@DOOR@				; `string'
PUBLIC	??_C@_05HLBMIDNH@CHAIR@				; `string'
PUBLIC	??_C@_05DKLEPMBK@MAGIC@				; `string'
PUBLIC	??_C@_03OOKILKBD@BUY@				; `string'
PUBLIC	??_C@_04MPOIGBFL@SELL@				; `string'
PUBLIC	??_C@_0O@MAJOJEIM@CAMERA_ROTATE@		; `string'
PUBLIC	??_C@_05NILMGENH@HSIZE@				; `string'
PUBLIC	??_C@_05OBGAAHDM@VSIZE@				; `string'
PUBLIC	??_C@_06LKCKECPP@HVSIZE@			; `string'
PUBLIC	??_C@_0BD@BFBNCJCC@CAMERA_TO_POSITIVE@		; `string'
PUBLIC	??_C@_0BD@JPBNJGLJ@CAMERA_TO_NEGATIVE@		; `string'
PUBLIC	??_C@_0M@NJFGNKPE@CAMERA_STOP@			; `string'
PUBLIC	??_C@_0BG@NNONEOJP@ENABLE_COSTUME_SYSTEM@	; `string'
PUBLIC	??_C@_0BF@JNPGDOCA@ENABLE_ENERGY_SYSTEM@	; `string'
PUBLIC	??_C@_0BK@MHKPDOOB@ENABLE_DRAGON_SOUL_SYSTEM@	; `string'
PUBLIC	??_C@_0BM@LNFCINHP@ENABLE_NEW_EQUIPMENT_SYSTEM@	; `string'
PUBLIC	??_C@_0L@GJPKGMAC@USE_OPENID@			; `string'
PUBLIC	??_C@_0M@HKJKCDHH@OPENID_TEST@			; `string'
PUBLIC	??_7?$CDynamicPoolEx@VCRotationDecorator@NEffectUpdateDecorator@@@@6B@ ; CDynamicPoolEx<NEffectUpdateDecorator::CRotationDecorator>::`vftable'
PUBLIC	??_7?$CDynamicPoolEx@VCGravityDecorator@NEffectUpdateDecorator@@@@6B@ ; CDynamicPoolEx<NEffectUpdateDecorator::CGravityDecorator>::`vftable'
PUBLIC	??_7?$CDynamicPoolEx@VCAirResistanceDecorator@NEffectUpdateDecorator@@@@6B@ ; CDynamicPoolEx<NEffectUpdateDecorator::CAirResistanceDecorator>::`vftable'
PUBLIC	??_7?$CDynamicPoolEx@VCTextureAnimationRandomDecorator@NEffectUpdateDecorator@@@@6B@ ; CDynamicPoolEx<NEffectUpdateDecorator::CTextureAnimationRandomDecorator>::`vftable'
PUBLIC	??_7?$CDynamicPoolEx@VCTextureAnimationCCWDecorator@NEffectUpdateDecorator@@@@6B@ ; CDynamicPoolEx<NEffectUpdateDecorator::CTextureAnimationCCWDecorator>::`vftable'
PUBLIC	??_7?$CDynamicPoolEx@VCTextureAnimationCWDecorator@NEffectUpdateDecorator@@@@6B@ ; CDynamicPoolEx<NEffectUpdateDecorator::CTextureAnimationCWDecorator>::`vftable'
PUBLIC	??_7?$CDynamicPoolEx@VCNullDecorator@NEffectUpdateDecorator@@@@6B@ ; CDynamicPoolEx<NEffectUpdateDecorator::CNullDecorator>::`vftable'
PUBLIC	??_7?$CDynamicPoolEx@VCHeaderDecorator@NEffectUpdateDecorator@@@@6B@ ; CDynamicPoolEx<NEffectUpdateDecorator::CHeaderDecorator>::`vftable'
PUBLIC	??_R4?$CDynamicPoolEx@VCHeaderDecorator@NEffectUpdateDecorator@@@@6B@ ; CDynamicPoolEx<NEffectUpdateDecorator::CHeaderDecorator>::`RTTI Complete Object Locator'
PUBLIC	??_R0?AV?$CDynamicPoolEx@VCHeaderDecorator@NEffectUpdateDecorator@@@@@8 ; CDynamicPoolEx<NEffectUpdateDecorator::CHeaderDecorator> `RTTI Type Descriptor'
PUBLIC	??_R3?$CDynamicPoolEx@VCHeaderDecorator@NEffectUpdateDecorator@@@@8 ; CDynamicPoolEx<NEffectUpdateDecorator::CHeaderDecorator>::`RTTI Class Hierarchy Descriptor'
PUBLIC	??_R2?$CDynamicPoolEx@VCHeaderDecorator@NEffectUpdateDecorator@@@@8 ; CDynamicPoolEx<NEffectUpdateDecorator::CHeaderDecorator>::`RTTI Base Class Array'
PUBLIC	??_R1A@?0A@EA@?$CDynamicPoolEx@VCHeaderDecorator@NEffectUpdateDecorator@@@@8 ; CDynamicPoolEx<NEffectUpdateDecorator::CHeaderDecorator>::`RTTI Base Class Descriptor at (0,-1,0,64)'
PUBLIC	??_R4?$CDynamicPoolEx@VCNullDecorator@NEffectUpdateDecorator@@@@6B@ ; CDynamicPoolEx<NEffectUpdateDecorator::CNullDecorator>::`RTTI Complete Object Locator'
PUBLIC	??_R0?AV?$CDynamicPoolEx@VCNullDecorator@NEffectUpdateDecorator@@@@@8 ; CDynamicPoolEx<NEffectUpdateDecorator::CNullDecorator> `RTTI Type Descriptor'
PUBLIC	??_R3?$CDynamicPoolEx@VCNullDecorator@NEffectUpdateDecorator@@@@8 ; CDynamicPoolEx<NEffectUpdateDecorator::CNullDecorator>::`RTTI Class Hierarchy Descriptor'
PUBLIC	??_R2?$CDynamicPoolEx@VCNullDecorator@NEffectUpdateDecorator@@@@8 ; CDynamicPoolEx<NEffectUpdateDecorator::CNullDecorator>::`RTTI Base Class Array'
PUBLIC	??_R1A@?0A@EA@?$CDynamicPoolEx@VCNullDecorator@NEffectUpdateDecorator@@@@8 ; CDynamicPoolEx<NEffectUpdateDecorator::CNullDecorator>::`RTTI Base Class Descriptor at (0,-1,0,64)'
PUBLIC	??_R4?$CDynamicPoolEx@VCTextureAnimationCWDecorator@NEffectUpdateDecorator@@@@6B@ ; CDynamicPoolEx<NEffectUpdateDecorator::CTextureAnimationCWDecorator>::`RTTI Complete Object Locator'
PUBLIC	??_R0?AV?$CDynamicPoolEx@VCTextureAnimationCWDecorator@NEffectUpdateDecorator@@@@@8 ; CDynamicPoolEx<NEffectUpdateDecorator::CTextureAnimationCWDecorator> `RTTI Type Descriptor'
PUBLIC	??_R3?$CDynamicPoolEx@VCTextureAnimationCWDecorator@NEffectUpdateDecorator@@@@8 ; CDynamicPoolEx<NEffectUpdateDecorator::CTextureAnimationCWDecorator>::`RTTI Class Hierarchy Descriptor'
PUBLIC	??_R2?$CDynamicPoolEx@VCTextureAnimationCWDecorator@NEffectUpdateDecorator@@@@8 ; CDynamicPoolEx<NEffectUpdateDecorator::CTextureAnimationCWDecorator>::`RTTI Base Class Array'
PUBLIC	??_R1A@?0A@EA@?$CDynamicPoolEx@VCTextureAnimationCWDecorator@NEffectUpdateDecorator@@@@8 ; CDynamicPoolEx<NEffectUpdateDecorator::CTextureAnimationCWDecorator>::`RTTI Base Class Descriptor at (0,-1,0,64)'
PUBLIC	??_R4?$CDynamicPoolEx@VCTextureAnimationCCWDecorator@NEffectUpdateDecorator@@@@6B@ ; CDynamicPoolEx<NEffectUpdateDecorator::CTextureAnimationCCWDecorator>::`RTTI Complete Object Locator'
PUBLIC	??_R0?AV?$CDynamicPoolEx@VCTextureAnimationCCWDecorator@NEffectUpdateDecorator@@@@@8 ; CDynamicPoolEx<NEffectUpdateDecorator::CTextureAnimationCCWDecorator> `RTTI Type Descriptor'
PUBLIC	??_R3?$CDynamicPoolEx@VCTextureAnimationCCWDecorator@NEffectUpdateDecorator@@@@8 ; CDynamicPoolEx<NEffectUpdateDecorator::CTextureAnimationCCWDecorator>::`RTTI Class Hierarchy Descriptor'
PUBLIC	??_R2?$CDynamicPoolEx@VCTextureAnimationCCWDecorator@NEffectUpdateDecorator@@@@8 ; CDynamicPoolEx<NEffectUpdateDecorator::CTextureAnimationCCWDecorator>::`RTTI Base Class Array'
PUBLIC	??_R1A@?0A@EA@?$CDynamicPoolEx@VCTextureAnimationCCWDecorator@NEffectUpdateDecorator@@@@8 ; CDynamicPoolEx<NEffectUpdateDecorator::CTextureAnimationCCWDecorator>::`RTTI Base Class Descriptor at (0,-1,0,64)'
PUBLIC	??_R4?$CDynamicPoolEx@VCTextureAnimationRandomDecorator@NEffectUpdateDecorator@@@@6B@ ; CDynamicPoolEx<NEffectUpdateDecorator::CTextureAnimationRandomDecorator>::`RTTI Complete Object Locator'
PUBLIC	??_R0?AV?$CDynamicPoolEx@VCTextureAnimationRandomDecorator@NEffectUpdateDecorator@@@@@8 ; CDynamicPoolEx<NEffectUpdateDecorator::CTextureAnimationRandomDecorator> `RTTI Type Descriptor'
PUBLIC	??_R3?$CDynamicPoolEx@VCTextureAnimationRandomDecorator@NEffectUpdateDecorator@@@@8 ; CDynamicPoolEx<NEffectUpdateDecorator::CTextureAnimationRandomDecorator>::`RTTI Class Hierarchy Descriptor'
PUBLIC	??_R2?$CDynamicPoolEx@VCTextureAnimationRandomDecorator@NEffectUpdateDecorator@@@@8 ; CDynamicPoolEx<NEffectUpdateDecorator::CTextureAnimationRandomDecorator>::`RTTI Base Class Array'
PUBLIC	??_R1A@?0A@EA@?$CDynamicPoolEx@VCTextureAnimationRandomDecorator@NEffectUpdateDecorator@@@@8 ; CDynamicPoolEx<NEffectUpdateDecorator::CTextureAnimationRandomDecorator>::`RTTI Base Class Descriptor at (0,-1,0,64)'
PUBLIC	??_R4?$CDynamicPoolEx@VCAirResistanceDecorator@NEffectUpdateDecorator@@@@6B@ ; CDynamicPoolEx<NEffectUpdateDecorator::CAirResistanceDecorator>::`RTTI Complete Object Locator'
PUBLIC	??_R0?AV?$CDynamicPoolEx@VCAirResistanceDecorator@NEffectUpdateDecorator@@@@@8 ; CDynamicPoolEx<NEffectUpdateDecorator::CAirResistanceDecorator> `RTTI Type Descriptor'
PUBLIC	??_R3?$CDynamicPoolEx@VCAirResistanceDecorator@NEffectUpdateDecorator@@@@8 ; CDynamicPoolEx<NEffectUpdateDecorator::CAirResistanceDecorator>::`RTTI Class Hierarchy Descriptor'
PUBLIC	??_R2?$CDynamicPoolEx@VCAirResistanceDecorator@NEffectUpdateDecorator@@@@8 ; CDynamicPoolEx<NEffectUpdateDecorator::CAirResistanceDecorator>::`RTTI Base Class Array'
PUBLIC	??_R1A@?0A@EA@?$CDynamicPoolEx@VCAirResistanceDecorator@NEffectUpdateDecorator@@@@8 ; CDynamicPoolEx<NEffectUpdateDecorator::CAirResistanceDecorator>::`RTTI Base Class Descriptor at (0,-1,0,64)'
PUBLIC	??_R4?$CDynamicPoolEx@VCGravityDecorator@NEffectUpdateDecorator@@@@6B@ ; CDynamicPoolEx<NEffectUpdateDecorator::CGravityDecorator>::`RTTI Complete Object Locator'
PUBLIC	??_R0?AV?$CDynamicPoolEx@VCGravityDecorator@NEffectUpdateDecorator@@@@@8 ; CDynamicPoolEx<NEffectUpdateDecorator::CGravityDecorator> `RTTI Type Descriptor'
PUBLIC	??_R3?$CDynamicPoolEx@VCGravityDecorator@NEffectUpdateDecorator@@@@8 ; CDynamicPoolEx<NEffectUpdateDecorator::CGravityDecorator>::`RTTI Class Hierarchy Descriptor'
PUBLIC	??_R2?$CDynamicPoolEx@VCGravityDecorator@NEffectUpdateDecorator@@@@8 ; CDynamicPoolEx<NEffectUpdateDecorator::CGravityDecorator>::`RTTI Base Class Array'
PUBLIC	??_R1A@?0A@EA@?$CDynamicPoolEx@VCGravityDecorator@NEffectUpdateDecorator@@@@8 ; CDynamicPoolEx<NEffectUpdateDecorator::CGravityDecorator>::`RTTI Base Class Descriptor at (0,-1,0,64)'
PUBLIC	??_R4?$CDynamicPoolEx@VCRotationDecorator@NEffectUpdateDecorator@@@@6B@ ; CDynamicPoolEx<NEffectUpdateDecorator::CRotationDecorator>::`RTTI Complete Object Locator'
PUBLIC	??_R0?AV?$CDynamicPoolEx@VCRotationDecorator@NEffectUpdateDecorator@@@@@8 ; CDynamicPoolEx<NEffectUpdateDecorator::CRotationDecorator> `RTTI Type Descriptor'
PUBLIC	??_R3?$CDynamicPoolEx@VCRotationDecorator@NEffectUpdateDecorator@@@@8 ; CDynamicPoolEx<NEffectUpdateDecorator::CRotationDecorator>::`RTTI Class Hierarchy Descriptor'
PUBLIC	??_R2?$CDynamicPoolEx@VCRotationDecorator@NEffectUpdateDecorator@@@@8 ; CDynamicPoolEx<NEffectUpdateDecorator::CRotationDecorator>::`RTTI Base Class Array'
PUBLIC	??_R1A@?0A@EA@?$CDynamicPoolEx@VCRotationDecorator@NEffectUpdateDecorator@@@@8 ; CDynamicPoolEx<NEffectUpdateDecorator::CRotationDecorator>::`RTTI Base Class Descriptor at (0,-1,0,64)'
PUBLIC	__real@3f800000
PUBLIC	__real@42c80000
PUBLIC	__real@447a0000
PUBLIC	__xmm@80000000800000008000000080000000
EXTRN	??2@YAPAXI@Z:PROC				; operator new
EXTRN	??3@YAXPAX@Z:PROC				; operator delete
EXTRN	??3@YAXPAXI@Z:PROC				; operator delete
EXTRN	_atexit:PROC
EXTRN	___report_rangecheckfailure:PROC
EXTRN	__invalid_parameter_noinfo_noreturn:PROC
EXTRN	_memset:PROC
EXTRN	_strstr:PROC
EXTRN	_strcmp:PROC
EXTRN	_strncpy:PROC
EXTRN	__imp__FindClose@4:PROC
EXTRN	__imp__FindFirstFileA@8:PROC
EXTRN	__imp__FindNextFileA@8:PROC
EXTRN	__imp__Sleep@4:PROC
EXTRN	__controlfp:PROC
EXTRN	_fclose:PROC
EXTRN	_fopen:PROC
EXTRN	_fread:PROC
EXTRN	_fseek:PROC
EXTRN	_ftell:PROC
EXTRN	__access:PROC
EXTRN	__imp__PyInt_AsLong:PROC
EXTRN	__imp__PyString_FromString:PROC
EXTRN	__imp__PyTuple_GetItem:PROC
EXTRN	__imp__PyList_New:PROC
EXTRN	__imp__PyList_Append:PROC
EXTRN	__imp__Py_BuildValue:PROC
EXTRN	__imp__PyModule_AddIntConstant:PROC
EXTRN	__imp__Py_InitModule4:PROC
EXTRN	?PyTuple_GetString@@YA_NPAU_object@@HPAPAD@Z:PROC ; PyTuple_GetString
EXTRN	?PyTuple_GetInteger@@YA_NPAU_object@@HPAH@Z:PROC ; PyTuple_GetInteger
EXTRN	?PyTuple_GetFloat@@YA_NPAU_object@@HPAM@Z:PROC	; PyTuple_GetFloat
EXTRN	?PyTuple_GetObject@@YA_NPAU_object@@HPAPAU1@@Z:PROC ; PyTuple_GetObject
EXTRN	?Py_BuildException@@YAPAU_object@@PBDZZ:PROC	; Py_BuildException
EXTRN	?Py_BuildNone@@YAPAU_object@@XZ:PROC		; Py_BuildNone
EXTRN	?RunFile@CPythonLauncher@@QAE_NPBD@Z:PROC	; CPythonLauncher::RunFile
EXTRN	??0CMemoryTextFileLoader@@QAE@XZ:PROC		; CMemoryTextFileLoader::CMemoryTextFileLoader
EXTRN	??1CMemoryTextFileLoader@@UAE@XZ:PROC		; CMemoryTextFileLoader::~CMemoryTextFileLoader
EXTRN	?Bind@CMemoryTextFileLoader@@QAEXHPBX@Z:PROC	; CMemoryTextFileLoader::Bind
EXTRN	?GetLineCount@CMemoryTextFileLoader@@QAEKXZ:PROC ; CMemoryTextFileLoader::GetLineCount
EXTRN	?GetLineString@CMemoryTextFileLoader@@QAEABV?$basic_string@DU?$char_traits@D@std@@V?$allocator@D@2@@std@@K@Z:PROC ; CMemoryTextFileLoader::GetLineString
EXTRN	??0CMappedFile@@QAE@XZ:PROC			; CMappedFile::CMappedFile
EXTRN	??1CMappedFile@@UAE@XZ:PROC			; CMappedFile::~CMappedFile
EXTRN	?Size@CMappedFile@@QAEKXZ:PROC			; CMappedFile::Size
EXTRN	?GetAvailableTextureMemory@CGraphicBase@@SAKXZ:PROC ; CGraphicBase::GetAvailableTextureMemory
EXTRN	?GetMousePosition@CWindowManager@UI@@QAEXAAJ0@Z:PROC ; UI::CWindowManager::GetMousePosition
EXTRN	?random_range@@YAJJJ@Z:PROC			; random_range
EXTRN	?GetDegreeDifference@@YAMMM@Z:PROC		; GetDegreeDifference
EXTRN	?GetRotatingDirection@@YAHMM@Z:PROC		; GetRotatingDirection
EXTRN	?LocaleService_GetCodePage@@YAIXZ:PROC		; LocaleService_GetCodePage
EXTRN	?LocaleService_GetName@@YAPBDXZ:PROC		; LocaleService_GetName
EXTRN	?LocaleService_GetLocaleName@@YAPBDXZ:PROC	; LocaleService_GetLocaleName
EXTRN	?LocaleService_GetLocalePath@@YAPBDXZ:PROC	; LocaleService_GetLocalePath
EXTRN	?LocaleService_ForceSetLocale@@YAXPBD0@Z:PROC	; LocaleService_ForceSetLocale
EXTRN	?LocaleService_SetCHEONMA@@YAX_N@Z:PROC		; LocaleService_SetCHEONMA
EXTRN	?LocaleService_IsCHEONMA@@YA_NXZ:PROC		; LocaleService_IsCHEONMA
EXTRN	?DefaultFont_SetName@@YAXPBD@Z:PROC		; DefaultFont_SetName
EXTRN	?SetGuildSymbolPath@@YAXPBD@Z:PROC		; SetGuildSymbolPath
EXTRN	?IsPressed@CInputKeyboard@@QAE_NH@Z:PROC	; CInputKeyboard::IsPressed
EXTRN	_tea_decrypt:PROC
EXTRN	?SetMarkPathPrefix@CGuildMarkManager@@QAEXPBD@Z:PROC ; CGuildMarkManager::SetMarkPathPrefix
EXTRN	?PlayLogo@CMovieMan@@QAEXPBD@Z:PROC		; CMovieMan::PlayLogo
EXTRN	?ShowWebPage@CPythonApplication@@QAEXPBDABUtagRECT@@@Z:PROC ; CPythonApplication::ShowWebPage
EXTRN	?MoveWebPage@CPythonApplication@@QAEXABUtagRECT@@@Z:PROC ; CPythonApplication::MoveWebPage
EXTRN	?HideWebPage@CPythonApplication@@QAEXXZ:PROC	; CPythonApplication::HideWebPage
EXTRN	?IsWebPageMode@CPythonApplication@@QAE_NXZ:PROC	; CPythonApplication::IsWebPageMode
EXTRN	?GetInfo@CPythonApplication@@QAEXIPAV?$basic_string@DU?$char_traits@D@std@@V?$allocator@D@2@@std@@@Z:PROC ; CPythonApplication::GetInfo
EXTRN	?Loop@CPythonApplication@@QAEXXZ:PROC		; CPythonApplication::Loop
EXTRN	?Exit@CPythonApplication@@QAEXXZ:PROC		; CPythonApplication::Exit
EXTRN	?Abort@CPythonApplication@@QAEXXZ:PROC		; CPythonApplication::Abort
EXTRN	?SetMinFog@CPythonApplication@@QAEXM@Z:PROC	; CPythonApplication::SetMinFog
EXTRN	?SetFrameSkip@CPythonApplication@@QAEX_N@Z:PROC	; CPythonApplication::SetFrameSkip
EXTRN	?Create@CPythonApplication@@QAE_NPAU_object@@PBDHHH@Z:PROC ; CPythonApplication::Create
EXTRN	?UpdateGame@CPythonApplication@@QAEXXZ:PROC	; CPythonApplication::UpdateGame
EXTRN	?RenderGame@CPythonApplication@@QAEXXZ:PROC	; CPythonApplication::RenderGame
EXTRN	?Process@CPythonApplication@@QAE_NXZ:PROC	; CPythonApplication::Process
EXTRN	?SetCursorNum@CPythonApplication@@QAEHH@Z:PROC	; CPythonApplication::SetCursorNum
EXTRN	?SetCursorVisible@CPythonApplication@@QAEXH_N@Z:PROC ; CPythonApplication::SetCursorVisible
EXTRN	?GetCursorVisible@CPythonApplication@@QAEHXZ:PROC ; CPythonApplication::GetCursorVisible
EXTRN	?GetLiarCursorOn@CPythonApplication@@QAE_NXZ:PROC ; CPythonApplication::GetLiarCursorOn
EXTRN	?SetCursorMode@CPythonApplication@@QAEXH@Z:PROC	; CPythonApplication::SetCursorMode
EXTRN	?SetMouseHandler@CPythonApplication@@QAEXPAU_object@@@Z:PROC ; CPythonApplication::SetMouseHandler
EXTRN	?SetGlobalCenterPosition@CPythonApplication@@QAEXJJ@Z:PROC ; CPythonApplication::SetGlobalCenterPosition
EXTRN	?SetCamera@CPythonApplication@@QAEXMMMM@Z:PROC	; CPythonApplication::SetCamera
EXTRN	?GetCamera@CPythonApplication@@QAEXPAM000@Z:PROC ; CPythonApplication::GetCamera
EXTRN	?RotateCamera@CPythonApplication@@QAEXH@Z:PROC	; CPythonApplication::RotateCamera
EXTRN	?PitchCamera@CPythonApplication@@QAEXH@Z:PROC	; CPythonApplication::PitchCamera
EXTRN	?ZoomCamera@CPythonApplication@@QAEXH@Z:PROC	; CPythonApplication::ZoomCamera
EXTRN	?MovieRotateCamera@CPythonApplication@@QAEXH@Z:PROC ; CPythonApplication::MovieRotateCamera
EXTRN	?MoviePitchCamera@CPythonApplication@@QAEXH@Z:PROC ; CPythonApplication::MoviePitchCamera
EXTRN	?MovieZoomCamera@CPythonApplication@@QAEXH@Z:PROC ; CPythonApplication::MovieZoomCamera
EXTRN	?MovieResetCamera@CPythonApplication@@QAEXXZ:PROC ; CPythonApplication::MovieResetCamera
EXTRN	?GetRotation@CPythonApplication@@QAEMXZ:PROC	; CPythonApplication::GetRotation
EXTRN	?GetPitch@CPythonApplication@@QAEMXZ:PROC	; CPythonApplication::GetPitch
EXTRN	?SetFPS@CPythonApplication@@QAEXH@Z:PROC	; CPythonApplication::SetFPS
EXTRN	?GetServerTime@CPythonApplication@@QAEJXZ:PROC	; CPythonApplication::GetServerTime
EXTRN	?GetServerTimeStamp@CPythonApplication@@QAEJXZ:PROC ; CPythonApplication::GetServerTimeStamp
EXTRN	?SetConnectData@CPythonApplication@@QAEXPBDH@Z:PROC ; CPythonApplication::SetConnectData
EXTRN	?GetConnectData@CPythonApplication@@QAEXAAV?$basic_string@DU?$char_traits@D@std@@V?$allocator@D@2@@std@@AAH@Z:PROC ; CPythonApplication::GetConnectData
EXTRN	?EnableSpecialCameraMode@CPythonApplication@@QAEXXZ:PROC ; CPythonApplication::EnableSpecialCameraMode
EXTRN	?SetCameraSpeed@CPythonApplication@@QAEXH@Z:PROC ; CPythonApplication::SetCameraSpeed
EXTRN	?SaveCameraSetting@CPythonApplication@@QAEXPBD@Z:PROC ; CPythonApplication::SaveCameraSetting
EXTRN	?LoadCameraSetting@CPythonApplication@@QAE_NPBD@Z:PROC ; CPythonApplication::LoadCameraSetting
EXTRN	?SetForceSightRange@CPythonApplication@@QAEXH@Z:PROC ; CPythonApplication::SetForceSightRange
EXTRN	?SetCameraMaxDistance@CCamera@@SAXM@Z:PROC	; CCamera::SetCameraMaxDistance
EXTRN	?SetResistance@CCamera@@QAEXM@Z:PROC		; CCamera::SetResistance
EXTRN	?GetCurrentCamera@CCameraManager@@QAEPAVCCamera@@XZ:PROC ; CCameraManager::GetCurrentCamera
EXTRN	?TextTail_SetLivingTime@@YAXJ@Z:PROC		; TextTail_SetLivingTime
EXTRN	?LoadLocaleData@@YA_NPBD@Z:PROC			; LoadLocaleData
EXTRN	?Get@CEterPackManager@@QAE_NAAVCMappedFile@@PBDPAPBX@Z:PROC ; CEterPackManager::Get
EXTRN	?isExist@CEterPackManager@@QAE_NPBD@Z:PROC	; CEterPackManager::isExist
EXTRN	??_E?$CDynamicPoolEx@VCRotationDecorator@NEffectUpdateDecorator@@@@UAEPAXI@Z:PROC ; CDynamicPoolEx<NEffectUpdateDecorator::CRotationDecorator>::`vector deleting destructor'
EXTRN	??_E?$CDynamicPoolEx@VCGravityDecorator@NEffectUpdateDecorator@@@@UAEPAXI@Z:PROC ; CDynamicPoolEx<NEffectUpdateDecorator::CGravityDecorator>::`vector deleting destructor'
EXTRN	??_E?$CDynamicPoolEx@VCAirResistanceDecorator@NEffectUpdateDecorator@@@@UAEPAXI@Z:PROC ; CDynamicPoolEx<NEffectUpdateDecorator::CAirResistanceDecorator>::`vector deleting destructor'
EXTRN	??_E?$CDynamicPoolEx@VCTextureAnimationRandomDecorator@NEffectUpdateDecorator@@@@UAEPAXI@Z:PROC ; CDynamicPoolEx<NEffectUpdateDecorator::CTextureAnimationRandomDecorator>::`vector deleting destructor'
EXTRN	??_E?$CDynamicPoolEx@VCTextureAnimationCCWDecorator@NEffectUpdateDecorator@@@@UAEPAXI@Z:PROC ; CDynamicPoolEx<NEffectUpdateDecorator::CTextureAnimationCCWDecorator>::`vector deleting destructor'
EXTRN	??_E?$CDynamicPoolEx@VCTextureAnimationCWDecorator@NEffectUpdateDecorator@@@@UAEPAXI@Z:PROC ; CDynamicPoolEx<NEffectUpdateDecorator::CTextureAnimationCWDecorator>::`vector deleting destructor'
EXTRN	??_E?$CDynamicPoolEx@VCNullDecorator@NEffectUpdateDecorator@@@@UAEPAXI@Z:PROC ; CDynamicPoolEx<NEffectUpdateDecorator::CNullDecorator>::`vector deleting destructor'
EXTRN	??_E?$CDynamicPoolEx@VCHeaderDecorator@NEffectUpdateDecorator@@@@UAEPAXI@Z:PROC ; CDynamicPoolEx<NEffectUpdateDecorator::CHeaderDecorator>::`vector deleting destructor'
EXTRN	@__security_check_cookie@4:PROC
EXTRN	___CxxFrameHandler3:PROC
EXTRN	__alloca_probe_16:PROC
EXTRN	??_7type_info@@6B@:QWORD			; type_info::`vftable'
EXTRN	?ms_pInstance@CPythonApplication@@1PAV1@A:DWORD	; CPythonApplication::ms_pInstance
EXTRN	?PERF_CHECKER_RENDER_GAME@@3_NA:BYTE		; PERF_CHECKER_RENDER_GAME
EXTRN	?g_fSpecularColor@@3UD3DXCOLOR@@A:BYTE		; g_fSpecularColor
EXTRN	?HAIR_COLOR_ENABLE@@3HA:DWORD			; HAIR_COLOR_ENABLE
EXTRN	?USE_ARMOR_SPECULAR@@3HA:DWORD			; USE_ARMOR_SPECULAR
EXTRN	?USE_WEAPON_SPECULAR@@3HA:DWORD			; USE_WEAPON_SPECULAR
EXTRN	?SKILL_EFFECT_UPGRADE_ENABLE@@3HA:DWORD		; SKILL_EFFECT_UPGRADE_ENABLE
EXTRN	?RIDE_HORSE_ENABLE@@3HA:DWORD			; RIDE_HORSE_ENABLE
EXTRN	?g_specularSpd@@3NA:QWORD			; g_specularSpd
EXTRN	?g_iAccumulationTime@@3HA:DWORD			; g_iAccumulationTime
EXTRN	___security_cookie:DWORD
EXTRN	__fltused:DWORD
;	COMDAT ?ms_singleton@?$CSingleton@VCPythonLauncher@@@@0PAVCPythonLauncher@@A
_BSS	SEGMENT
?ms_singleton@?$CSingleton@VCPythonLauncher@@@@0PAVCPythonLauncher@@A DD 01H DUP (?) ; CSingleton<CPythonLauncher>::ms_singleton
_BSS	ENDS
;	COMDAT ?ms_singleton@?$CSingleton@VCWindowManager@UI@@@@0PAVCWindowManager@UI@@A
_BSS	SEGMENT
?ms_singleton@?$CSingleton@VCWindowManager@UI@@@@0PAVCWindowManager@UI@@A DD 01H DUP (?) ; CSingleton<UI::CWindowManager>::ms_singleton
_BSS	ENDS
;	COMDAT ?ms_kPool@?$CPooledObject@VCHeaderDecorator@NEffectUpdateDecorator@@@@1V?$CDynamicPoolEx@VCHeaderDecorator@NEffectUpdateDecorator@@@@A
_BSS	SEGMENT
?ms_kPool@?$CPooledObject@VCHeaderDecorator@NEffectUpdateDecorator@@@@1V?$CDynamicPoolEx@VCHeaderDecorator@NEffectUpdateDecorator@@@@A DB 024H DUP (?) ; CPooledObject<NEffectUpdateDecorator::CHeaderDecorator>::ms_kPool
_BSS	ENDS
;	COMDAT ?ms_kPool@?$CPooledObject@VCNullDecorator@NEffectUpdateDecorator@@@@1V?$CDynamicPoolEx@VCNullDecorator@NEffectUpdateDecorator@@@@A
_BSS	SEGMENT
?ms_kPool@?$CPooledObject@VCNullDecorator@NEffectUpdateDecorator@@@@1V?$CDynamicPoolEx@VCNullDecorator@NEffectUpdateDecorator@@@@A DB 024H DUP (?) ; CPooledObject<NEffectUpdateDecorator::CNullDecorator>::ms_kPool
_BSS	ENDS
;	COMDAT ?ms_kPool@?$CPooledObject@VCTextureAnimationCWDecorator@NEffectUpdateDecorator@@@@1V?$CDynamicPoolEx@VCTextureAnimationCWDecorator@NEffectUpdateDecorator@@@@A
_BSS	SEGMENT
?ms_kPool@?$CPooledObject@VCTextureAnimationCWDecorator@NEffectUpdateDecorator@@@@1V?$CDynamicPoolEx@VCTextureAnimationCWDecorator@NEffectUpdateDecorator@@@@A DB 024H DUP (?) ; CPooledObject<NEffectUpdateDecorator::CTextureAnimationCWDecorator>::ms_kPool
_BSS	ENDS
;	COMDAT ?ms_kPool@?$CPooledObject@VCTextureAnimationCCWDecorator@NEffectUpdateDecorator@@@@1V?$CDynamicPoolEx@VCTextureAnimationCCWDecorator@NEffectUpdateDecorator@@@@A
_BSS	SEGMENT
?ms_kPool@?$CPooledObject@VCTextureAnimationCCWDecorator@NEffectUpdateDecorator@@@@1V?$CDynamicPoolEx@VCTextureAnimationCCWDecorator@NEffectUpdateDecorator@@@@A DB 024H DUP (?) ; CPooledObject<NEffectUpdateDecorator::CTextureAnimationCCWDecorator>::ms_kPool
_BSS	ENDS
;	COMDAT ?ms_kPool@?$CPooledObject@VCTextureAnimationRandomDecorator@NEffectUpdateDecorator@@@@1V?$CDynamicPoolEx@VCTextureAnimationRandomDecorator@NEffectUpdateDecorator@@@@A
_BSS	SEGMENT
?ms_kPool@?$CPooledObject@VCTextureAnimationRandomDecorator@NEffectUpdateDecorator@@@@1V?$CDynamicPoolEx@VCTextureAnimationRandomDecorator@NEffectUpdateDecorator@@@@A DB 024H DUP (?) ; CPooledObject<NEffectUpdateDecorator::CTextureAnimationRandomDecorator>::ms_kPool
_BSS	ENDS
;	COMDAT ?ms_kPool@?$CPooledObject@VCAirResistanceDecorator@NEffectUpdateDecorator@@@@1V?$CDynamicPoolEx@VCAirResistanceDecorator@NEffectUpdateDecorator@@@@A
_BSS	SEGMENT
?ms_kPool@?$CPooledObject@VCAirResistanceDecorator@NEffectUpdateDecorator@@@@1V?$CDynamicPoolEx@VCAirResistanceDecorator@NEffectUpdateDecorator@@@@A DB 024H DUP (?) ; CPooledObject<NEffectUpdateDecorator::CAirResistanceDecorator>::ms_kPool
_BSS	ENDS
;	COMDAT ?ms_kPool@?$CPooledObject@VCGravityDecorator@NEffectUpdateDecorator@@@@1V?$CDynamicPoolEx@VCGravityDecorator@NEffectUpdateDecorator@@@@A
_BSS	SEGMENT
?ms_kPool@?$CPooledObject@VCGravityDecorator@NEffectUpdateDecorator@@@@1V?$CDynamicPoolEx@VCGravityDecorator@NEffectUpdateDecorator@@@@A DB 024H DUP (?) ; CPooledObject<NEffectUpdateDecorator::CGravityDecorator>::ms_kPool
_BSS	ENDS
;	COMDAT ?ms_kPool@?$CPooledObject@VCRotationDecorator@NEffectUpdateDecorator@@@@1V?$CDynamicPoolEx@VCRotationDecorator@NEffectUpdateDecorator@@@@A
_BSS	SEGMENT
?ms_kPool@?$CPooledObject@VCRotationDecorator@NEffectUpdateDecorator@@@@1V?$CDynamicPoolEx@VCRotationDecorator@NEffectUpdateDecorator@@@@A DB 024H DUP (?) ; CPooledObject<NEffectUpdateDecorator::CRotationDecorator>::ms_kPool
_BSS	ENDS
;	COMDAT ?ms_singleton@?$singleton@VCGuildMarkManager@@@@0PAVCGuildMarkManager@@A
_BSS	SEGMENT
?ms_singleton@?$singleton@VCGuildMarkManager@@@@0PAVCGuildMarkManager@@A DD 01H DUP (?) ; singleton<CGuildMarkManager>::ms_singleton
_BSS	ENDS
;	COMDAT ?ms_singleton@?$CSingleton@VCMovieMan@@@@0PAVCMovieMan@@A
_BSS	SEGMENT
?ms_singleton@?$CSingleton@VCMovieMan@@@@0PAVCMovieMan@@A DD 01H DUP (?) ; CSingleton<CMovieMan>::ms_singleton
_BSS	ENDS
;	COMDAT ?ms_singleton@?$CSingleton@VCCameraManager@@@@0PAVCCameraManager@@A
_BSS	SEGMENT
?ms_singleton@?$CSingleton@VCCameraManager@@@@0PAVCCameraManager@@A DD 01H DUP (?) ; CSingleton<CCameraManager>::ms_singleton
_BSS	ENDS
;	COMDAT ?ms_singleton@?$CSingleton@VCEterPackManager@@@@0PAVCEterPackManager@@A
_BSS	SEGMENT
?ms_singleton@?$CSingleton@VCEterPackManager@@@@0PAVCEterPackManager@@A DD 01H DUP (?) ; CSingleton<CEterPackManager>::ms_singleton
_BSS	ENDS
;	COMDAT CRT$XCU
CRT$XCU	SEGMENT
??ms_kPool$initializer$@?$CPooledObject@VCHeaderDecorator@NEffectUpdateDecorator@@@@1P6AXXZA@@3P6AXXZA DD FLAT:??__E?ms_kPool@?$CPooledObject@VCHeaderDecorator@NEffectUpdateDecorator@@@@1V?$CDynamicPoolEx@VCHeaderDecorator@NEffectUpdateDecorator@@@@A@@YAXXZ ; ??ms_kPool$initializer$@?$CPooledObject@VCHeaderDecorator@NEffectUpdateDecorator@@@@1P6AXXZA@@3P6AXXZA
CRT$XCU	ENDS
;	COMDAT __xmm@80000000800000008000000080000000
CONST	SEGMENT
__xmm@80000000800000008000000080000000 DB 00H, 00H, 00H, 080H, 00H, 00H, 00H
	DB	080H, 00H, 00H, 00H, 080H, 00H, 00H, 00H, 080H
CONST	ENDS
;	COMDAT __real@447a0000
CONST	SEGMENT
__real@447a0000 DD 0447a0000r			; 1000
CONST	ENDS
;	COMDAT __real@42c80000
CONST	SEGMENT
__real@42c80000 DD 042c80000r			; 100
CONST	ENDS
;	COMDAT __real@3f800000
CONST	SEGMENT
__real@3f800000 DD 03f800000r			; 1
CONST	ENDS
;	COMDAT ??_R1A@?0A@EA@?$CDynamicPoolEx@VCRotationDecorator@NEffectUpdateDecorator@@@@8
rdata$r	SEGMENT
??_R1A@?0A@EA@?$CDynamicPoolEx@VCRotationDecorator@NEffectUpdateDecorator@@@@8 DD FLAT:??_R0?AV?$CDynamicPoolEx@VCRotationDecorator@NEffectUpdateDecorator@@@@@8 ; CDynamicPoolEx<NEffectUpdateDecorator::CRotationDecorator>::`RTTI Base Class Descriptor at (0,-1,0,64)'
	DD	00H
	DD	00H
	DD	0ffffffffH
	DD	00H
	DD	040H
	DD	FLAT:??_R3?$CDynamicPoolEx@VCRotationDecorator@NEffectUpdateDecorator@@@@8
rdata$r	ENDS
;	COMDAT ??_R2?$CDynamicPoolEx@VCRotationDecorator@NEffectUpdateDecorator@@@@8
rdata$r	SEGMENT
??_R2?$CDynamicPoolEx@VCRotationDecorator@NEffectUpdateDecorator@@@@8 DD FLAT:??_R1A@?0A@EA@?$CDynamicPoolEx@VCRotationDecorator@NEffectUpdateDecorator@@@@8 ; CDynamicPoolEx<NEffectUpdateDecorator::CRotationDecorator>::`RTTI Base Class Array'
rdata$r	ENDS
;	COMDAT ??_R3?$CDynamicPoolEx@VCRotationDecorator@NEffectUpdateDecorator@@@@8
rdata$r	SEGMENT
??_R3?$CDynamicPoolEx@VCRotationDecorator@NEffectUpdateDecorator@@@@8 DD 00H ; CDynamicPoolEx<NEffectUpdateDecorator::CRotationDecorator>::`RTTI Class Hierarchy Descriptor'
	DD	00H
	DD	01H
	DD	FLAT:??_R2?$CDynamicPoolEx@VCRotationDecorator@NEffectUpdateDecorator@@@@8
rdata$r	ENDS
;	COMDAT ??_R0?AV?$CDynamicPoolEx@VCRotationDecorator@NEffectUpdateDecorator@@@@@8
data$rs	SEGMENT
??_R0?AV?$CDynamicPoolEx@VCRotationDecorator@NEffectUpdateDecorator@@@@@8 DD FLAT:??_7type_info@@6B@ ; CDynamicPoolEx<NEffectUpdateDecorator::CRotationDecorator> `RTTI Type Descriptor'
	DD	00H
	DB	'.?AV?$CDynamicPoolEx@VCRotationDecorator@NEffectUpdateDe'
	DB	'corator@@@@', 00H
data$rs	ENDS
;	COMDAT ??_R4?$CDynamicPoolEx@VCRotationDecorator@NEffectUpdateDecorator@@@@6B@
rdata$r	SEGMENT
??_R4?$CDynamicPoolEx@VCRotationDecorator@NEffectUpdateDecorator@@@@6B@ DD 00H ; CDynamicPoolEx<NEffectUpdateDecorator::CRotationDecorator>::`RTTI Complete Object Locator'
	DD	00H
	DD	00H
	DD	FLAT:??_R0?AV?$CDynamicPoolEx@VCRotationDecorator@NEffectUpdateDecorator@@@@@8
	DD	FLAT:??_R3?$CDynamicPoolEx@VCRotationDecorator@NEffectUpdateDecorator@@@@8
rdata$r	ENDS
;	COMDAT ??_R1A@?0A@EA@?$CDynamicPoolEx@VCGravityDecorator@NEffectUpdateDecorator@@@@8
rdata$r	SEGMENT
??_R1A@?0A@EA@?$CDynamicPoolEx@VCGravityDecorator@NEffectUpdateDecorator@@@@8 DD FLAT:??_R0?AV?$CDynamicPoolEx@VCGravityDecorator@NEffectUpdateDecorator@@@@@8 ; CDynamicPoolEx<NEffectUpdateDecorator::CGravityDecorator>::`RTTI Base Class Descriptor at (0,-1,0,64)'
	DD	00H
	DD	00H
	DD	0ffffffffH
	DD	00H
	DD	040H
	DD	FLAT:??_R3?$CDynamicPoolEx@VCGravityDecorator@NEffectUpdateDecorator@@@@8
rdata$r	ENDS
;	COMDAT ??_R2?$CDynamicPoolEx@VCGravityDecorator@NEffectUpdateDecorator@@@@8
rdata$r	SEGMENT
??_R2?$CDynamicPoolEx@VCGravityDecorator@NEffectUpdateDecorator@@@@8 DD FLAT:??_R1A@?0A@EA@?$CDynamicPoolEx@VCGravityDecorator@NEffectUpdateDecorator@@@@8 ; CDynamicPoolEx<NEffectUpdateDecorator::CGravityDecorator>::`RTTI Base Class Array'
rdata$r	ENDS
;	COMDAT ??_R3?$CDynamicPoolEx@VCGravityDecorator@NEffectUpdateDecorator@@@@8
rdata$r	SEGMENT
??_R3?$CDynamicPoolEx@VCGravityDecorator@NEffectUpdateDecorator@@@@8 DD 00H ; CDynamicPoolEx<NEffectUpdateDecorator::CGravityDecorator>::`RTTI Class Hierarchy Descriptor'
	DD	00H
	DD	01H
	DD	FLAT:??_R2?$CDynamicPoolEx@VCGravityDecorator@NEffectUpdateDecorator@@@@8
rdata$r	ENDS
;	COMDAT ??_R0?AV?$CDynamicPoolEx@VCGravityDecorator@NEffectUpdateDecorator@@@@@8
data$rs	SEGMENT
??_R0?AV?$CDynamicPoolEx@VCGravityDecorator@NEffectUpdateDecorator@@@@@8 DD FLAT:??_7type_info@@6B@ ; CDynamicPoolEx<NEffectUpdateDecorator::CGravityDecorator> `RTTI Type Descriptor'
	DD	00H
	DB	'.?AV?$CDynamicPoolEx@VCGravityDecorator@NEffectUpdateDec'
	DB	'orator@@@@', 00H
data$rs	ENDS
;	COMDAT ??_R4?$CDynamicPoolEx@VCGravityDecorator@NEffectUpdateDecorator@@@@6B@
rdata$r	SEGMENT
??_R4?$CDynamicPoolEx@VCGravityDecorator@NEffectUpdateDecorator@@@@6B@ DD 00H ; CDynamicPoolEx<NEffectUpdateDecorator::CGravityDecorator>::`RTTI Complete Object Locator'
	DD	00H
	DD	00H
	DD	FLAT:??_R0?AV?$CDynamicPoolEx@VCGravityDecorator@NEffectUpdateDecorator@@@@@8
	DD	FLAT:??_R3?$CDynamicPoolEx@VCGravityDecorator@NEffectUpdateDecorator@@@@8
rdata$r	ENDS
;	COMDAT ??_R1A@?0A@EA@?$CDynamicPoolEx@VCAirResistanceDecorator@NEffectUpdateDecorator@@@@8
rdata$r	SEGMENT
??_R1A@?0A@EA@?$CDynamicPoolEx@VCAirResistanceDecorator@NEffectUpdateDecorator@@@@8 DD FLAT:??_R0?AV?$CDynamicPoolEx@VCAirResistanceDecorator@NEffectUpdateDecorator@@@@@8 ; CDynamicPoolEx<NEffectUpdateDecorator::CAirResistanceDecorator>::`RTTI Base Class Descriptor at (0,-1,0,64)'
	DD	00H
	DD	00H
	DD	0ffffffffH
	DD	00H
	DD	040H
	DD	FLAT:??_R3?$CDynamicPoolEx@VCAirResistanceDecorator@NEffectUpdateDecorator@@@@8
rdata$r	ENDS
;	COMDAT ??_R2?$CDynamicPoolEx@VCAirResistanceDecorator@NEffectUpdateDecorator@@@@8
rdata$r	SEGMENT
??_R2?$CDynamicPoolEx@VCAirResistanceDecorator@NEffectUpdateDecorator@@@@8 DD FLAT:??_R1A@?0A@EA@?$CDynamicPoolEx@VCAirResistanceDecorator@NEffectUpdateDecorator@@@@8 ; CDynamicPoolEx<NEffectUpdateDecorator::CAirResistanceDecorator>::`RTTI Base Class Array'
rdata$r	ENDS
;	COMDAT ??_R3?$CDynamicPoolEx@VCAirResistanceDecorator@NEffectUpdateDecorator@@@@8
rdata$r	SEGMENT
??_R3?$CDynamicPoolEx@VCAirResistanceDecorator@NEffectUpdateDecorator@@@@8 DD 00H ; CDynamicPoolEx<NEffectUpdateDecorator::CAirResistanceDecorator>::`RTTI Class Hierarchy Descriptor'
	DD	00H
	DD	01H
	DD	FLAT:??_R2?$CDynamicPoolEx@VCAirResistanceDecorator@NEffectUpdateDecorator@@@@8
rdata$r	ENDS
;	COMDAT ??_R0?AV?$CDynamicPoolEx@VCAirResistanceDecorator@NEffectUpdateDecorator@@@@@8
data$rs	SEGMENT
??_R0?AV?$CDynamicPoolEx@VCAirResistanceDecorator@NEffectUpdateDecorator@@@@@8 DD FLAT:??_7type_info@@6B@ ; CDynamicPoolEx<NEffectUpdateDecorator::CAirResistanceDecorator> `RTTI Type Descriptor'
	DD	00H
	DB	'.?AV?$CDynamicPoolEx@VCAirResistanceDecorator@NEffectUpd'
	DB	'ateDecorator@@@@', 00H
data$rs	ENDS
;	COMDAT ??_R4?$CDynamicPoolEx@VCAirResistanceDecorator@NEffectUpdateDecorator@@@@6B@
rdata$r	SEGMENT
??_R4?$CDynamicPoolEx@VCAirResistanceDecorator@NEffectUpdateDecorator@@@@6B@ DD 00H ; CDynamicPoolEx<NEffectUpdateDecorator::CAirResistanceDecorator>::`RTTI Complete Object Locator'
	DD	00H
	DD	00H
	DD	FLAT:??_R0?AV?$CDynamicPoolEx@VCAirResistanceDecorator@NEffectUpdateDecorator@@@@@8
	DD	FLAT:??_R3?$CDynamicPoolEx@VCAirResistanceDecorator@NEffectUpdateDecorator@@@@8
rdata$r	ENDS
;	COMDAT ??_R1A@?0A@EA@?$CDynamicPoolEx@VCTextureAnimationRandomDecorator@NEffectUpdateDecorator@@@@8
rdata$r	SEGMENT
??_R1A@?0A@EA@?$CDynamicPoolEx@VCTextureAnimationRandomDecorator@NEffectUpdateDecorator@@@@8 DD FLAT:??_R0?AV?$CDynamicPoolEx@VCTextureAnimationRandomDecorator@NEffectUpdateDecorator@@@@@8 ; CDynamicPoolEx<NEffectUpdateDecorator::CTextureAnimationRandomDecorator>::`RTTI Base Class Descriptor at (0,-1,0,64)'
	DD	00H
	DD	00H
	DD	0ffffffffH
	DD	00H
	DD	040H
	DD	FLAT:??_R3?$CDynamicPoolEx@VCTextureAnimationRandomDecorator@NEffectUpdateDecorator@@@@8
rdata$r	ENDS
;	COMDAT ??_R2?$CDynamicPoolEx@VCTextureAnimationRandomDecorator@NEffectUpdateDecorator@@@@8
rdata$r	SEGMENT
??_R2?$CDynamicPoolEx@VCTextureAnimationRandomDecorator@NEffectUpdateDecorator@@@@8 DD FLAT:??_R1A@?0A@EA@?$CDynamicPoolEx@VCTextureAnimationRandomDecorator@NEffectUpdateDecorator@@@@8 ; CDynamicPoolEx<NEffectUpdateDecorator::CTextureAnimationRandomDecorator>::`RTTI Base Class Array'
rdata$r	ENDS
;	COMDAT ??_R3?$CDynamicPoolEx@VCTextureAnimationRandomDecorator@NEffectUpdateDecorator@@@@8
rdata$r	SEGMENT
??_R3?$CDynamicPoolEx@VCTextureAnimationRandomDecorator@NEffectUpdateDecorator@@@@8 DD 00H ; CDynamicPoolEx<NEffectUpdateDecorator::CTextureAnimationRandomDecorator>::`RTTI Class Hierarchy Descriptor'
	DD	00H
	DD	01H
	DD	FLAT:??_R2?$CDynamicPoolEx@VCTextureAnimationRandomDecorator@NEffectUpdateDecorator@@@@8
rdata$r	ENDS
;	COMDAT ??_R0?AV?$CDynamicPoolEx@VCTextureAnimationRandomDecorator@NEffectUpdateDecorator@@@@@8
data$rs	SEGMENT
??_R0?AV?$CDynamicPoolEx@VCTextureAnimationRandomDecorator@NEffectUpdateDecorator@@@@@8 DD FLAT:??_7type_info@@6B@ ; CDynamicPoolEx<NEffectUpdateDecorator::CTextureAnimationRandomDecorator> `RTTI Type Descriptor'
	DD	00H
	DB	'.?AV?$CDynamicPoolEx@VCTextureAnimationRandomDecorator@N'
	DB	'EffectUpdateDecorator@@@@', 00H
data$rs	ENDS
;	COMDAT ??_R4?$CDynamicPoolEx@VCTextureAnimationRandomDecorator@NEffectUpdateDecorator@@@@6B@
rdata$r	SEGMENT
??_R4?$CDynamicPoolEx@VCTextureAnimationRandomDecorator@NEffectUpdateDecorator@@@@6B@ DD 00H ; CDynamicPoolEx<NEffectUpdateDecorator::CTextureAnimationRandomDecorator>::`RTTI Complete Object Locator'
	DD	00H
	DD	00H
	DD	FLAT:??_R0?AV?$CDynamicPoolEx@VCTextureAnimationRandomDecorator@NEffectUpdateDecorator@@@@@8
	DD	FLAT:??_R3?$CDynamicPoolEx@VCTextureAnimationRandomDecorator@NEffectUpdateDecorator@@@@8
rdata$r	ENDS
;	COMDAT ??_R1A@?0A@EA@?$CDynamicPoolEx@VCTextureAnimationCCWDecorator@NEffectUpdateDecorator@@@@8
rdata$r	SEGMENT
??_R1A@?0A@EA@?$CDynamicPoolEx@VCTextureAnimationCCWDecorator@NEffectUpdateDecorator@@@@8 DD FLAT:??_R0?AV?$CDynamicPoolEx@VCTextureAnimationCCWDecorator@NEffectUpdateDecorator@@@@@8 ; CDynamicPoolEx<NEffectUpdateDecorator::CTextureAnimationCCWDecorator>::`RTTI Base Class Descriptor at (0,-1,0,64)'
	DD	00H
	DD	00H
	DD	0ffffffffH
	DD	00H
	DD	040H
	DD	FLAT:??_R3?$CDynamicPoolEx@VCTextureAnimationCCWDecorator@NEffectUpdateDecorator@@@@8
rdata$r	ENDS
;	COMDAT ??_R2?$CDynamicPoolEx@VCTextureAnimationCCWDecorator@NEffectUpdateDecorator@@@@8
rdata$r	SEGMENT
??_R2?$CDynamicPoolEx@VCTextureAnimationCCWDecorator@NEffectUpdateDecorator@@@@8 DD FLAT:??_R1A@?0A@EA@?$CDynamicPoolEx@VCTextureAnimationCCWDecorator@NEffectUpdateDecorator@@@@8 ; CDynamicPoolEx<NEffectUpdateDecorator::CTextureAnimationCCWDecorator>::`RTTI Base Class Array'
rdata$r	ENDS
;	COMDAT ??_R3?$CDynamicPoolEx@VCTextureAnimationCCWDecorator@NEffectUpdateDecorator@@@@8
rdata$r	SEGMENT
??_R3?$CDynamicPoolEx@VCTextureAnimationCCWDecorator@NEffectUpdateDecorator@@@@8 DD 00H ; CDynamicPoolEx<NEffectUpdateDecorator::CTextureAnimationCCWDecorator>::`RTTI Class Hierarchy Descriptor'
	DD	00H
	DD	01H
	DD	FLAT:??_R2?$CDynamicPoolEx@VCTextureAnimationCCWDecorator@NEffectUpdateDecorator@@@@8
rdata$r	ENDS
;	COMDAT ??_R0?AV?$CDynamicPoolEx@VCTextureAnimationCCWDecorator@NEffectUpdateDecorator@@@@@8
data$rs	SEGMENT
??_R0?AV?$CDynamicPoolEx@VCTextureAnimationCCWDecorator@NEffectUpdateDecorator@@@@@8 DD FLAT:??_7type_info@@6B@ ; CDynamicPoolEx<NEffectUpdateDecorator::CTextureAnimationCCWDecorator> `RTTI Type Descriptor'
	DD	00H
	DB	'.?AV?$CDynamicPoolEx@VCTextureAnimationCCWDecorator@NEff'
	DB	'ectUpdateDecorator@@@@', 00H
data$rs	ENDS
;	COMDAT ??_R4?$CDynamicPoolEx@VCTextureAnimationCCWDecorator@NEffectUpdateDecorator@@@@6B@
rdata$r	SEGMENT
??_R4?$CDynamicPoolEx@VCTextureAnimationCCWDecorator@NEffectUpdateDecorator@@@@6B@ DD 00H ; CDynamicPoolEx<NEffectUpdateDecorator::CTextureAnimationCCWDecorator>::`RTTI Complete Object Locator'
	DD	00H
	DD	00H
	DD	FLAT:??_R0?AV?$CDynamicPoolEx@VCTextureAnimationCCWDecorator@NEffectUpdateDecorator@@@@@8
	DD	FLAT:??_R3?$CDynamicPoolEx@VCTextureAnimationCCWDecorator@NEffectUpdateDecorator@@@@8
rdata$r	ENDS
;	COMDAT ??_R1A@?0A@EA@?$CDynamicPoolEx@VCTextureAnimationCWDecorator@NEffectUpdateDecorator@@@@8
rdata$r	SEGMENT
??_R1A@?0A@EA@?$CDynamicPoolEx@VCTextureAnimationCWDecorator@NEffectUpdateDecorator@@@@8 DD FLAT:??_R0?AV?$CDynamicPoolEx@VCTextureAnimationCWDecorator@NEffectUpdateDecorator@@@@@8 ; CDynamicPoolEx<NEffectUpdateDecorator::CTextureAnimationCWDecorator>::`RTTI Base Class Descriptor at (0,-1,0,64)'
	DD	00H
	DD	00H
	DD	0ffffffffH
	DD	00H
	DD	040H
	DD	FLAT:??_R3?$CDynamicPoolEx@VCTextureAnimationCWDecorator@NEffectUpdateDecorator@@@@8
rdata$r	ENDS
;	COMDAT ??_R2?$CDynamicPoolEx@VCTextureAnimationCWDecorator@NEffectUpdateDecorator@@@@8
rdata$r	SEGMENT
??_R2?$CDynamicPoolEx@VCTextureAnimationCWDecorator@NEffectUpdateDecorator@@@@8 DD FLAT:??_R1A@?0A@EA@?$CDynamicPoolEx@VCTextureAnimationCWDecorator@NEffectUpdateDecorator@@@@8 ; CDynamicPoolEx<NEffectUpdateDecorator::CTextureAnimationCWDecorator>::`RTTI Base Class Array'
rdata$r	ENDS
;	COMDAT ??_R3?$CDynamicPoolEx@VCTextureAnimationCWDecorator@NEffectUpdateDecorator@@@@8
rdata$r	SEGMENT
??_R3?$CDynamicPoolEx@VCTextureAnimationCWDecorator@NEffectUpdateDecorator@@@@8 DD 00H ; CDynamicPoolEx<NEffectUpdateDecorator::CTextureAnimationCWDecorator>::`RTTI Class Hierarchy Descriptor'
	DD	00H
	DD	01H
	DD	FLAT:??_R2?$CDynamicPoolEx@VCTextureAnimationCWDecorator@NEffectUpdateDecorator@@@@8
rdata$r	ENDS
;	COMDAT ??_R0?AV?$CDynamicPoolEx@VCTextureAnimationCWDecorator@NEffectUpdateDecorator@@@@@8
data$rs	SEGMENT
??_R0?AV?$CDynamicPoolEx@VCTextureAnimationCWDecorator@NEffectUpdateDecorator@@@@@8 DD FLAT:??_7type_info@@6B@ ; CDynamicPoolEx<NEffectUpdateDecorator::CTextureAnimationCWDecorator> `RTTI Type Descriptor'
	DD	00H
	DB	'.?AV?$CDynamicPoolEx@VCTextureAnimationCWDecorator@NEffe'
	DB	'ctUpdateDecorator@@@@', 00H
data$rs	ENDS
;	COMDAT ??_R4?$CDynamicPoolEx@VCTextureAnimationCWDecorator@NEffectUpdateDecorator@@@@6B@
rdata$r	SEGMENT
??_R4?$CDynamicPoolEx@VCTextureAnimationCWDecorator@NEffectUpdateDecorator@@@@6B@ DD 00H ; CDynamicPoolEx<NEffectUpdateDecorator::CTextureAnimationCWDecorator>::`RTTI Complete Object Locator'
	DD	00H
	DD	00H
	DD	FLAT:??_R0?AV?$CDynamicPoolEx@VCTextureAnimationCWDecorator@NEffectUpdateDecorator@@@@@8
	DD	FLAT:??_R3?$CDynamicPoolEx@VCTextureAnimationCWDecorator@NEffectUpdateDecorator@@@@8
rdata$r	ENDS
;	COMDAT ??_R1A@?0A@EA@?$CDynamicPoolEx@VCNullDecorator@NEffectUpdateDecorator@@@@8
rdata$r	SEGMENT
??_R1A@?0A@EA@?$CDynamicPoolEx@VCNullDecorator@NEffectUpdateDecorator@@@@8 DD FLAT:??_R0?AV?$CDynamicPoolEx@VCNullDecorator@NEffectUpdateDecorator@@@@@8 ; CDynamicPoolEx<NEffectUpdateDecorator::CNullDecorator>::`RTTI Base Class Descriptor at (0,-1,0,64)'
	DD	00H
	DD	00H
	DD	0ffffffffH
	DD	00H
	DD	040H
	DD	FLAT:??_R3?$CDynamicPoolEx@VCNullDecorator@NEffectUpdateDecorator@@@@8
rdata$r	ENDS
;	COMDAT ??_R2?$CDynamicPoolEx@VCNullDecorator@NEffectUpdateDecorator@@@@8
rdata$r	SEGMENT
??_R2?$CDynamicPoolEx@VCNullDecorator@NEffectUpdateDecorator@@@@8 DD FLAT:??_R1A@?0A@EA@?$CDynamicPoolEx@VCNullDecorator@NEffectUpdateDecorator@@@@8 ; CDynamicPoolEx<NEffectUpdateDecorator::CNullDecorator>::`RTTI Base Class Array'
rdata$r	ENDS
;	COMDAT ??_R3?$CDynamicPoolEx@VCNullDecorator@NEffectUpdateDecorator@@@@8
rdata$r	SEGMENT
??_R3?$CDynamicPoolEx@VCNullDecorator@NEffectUpdateDecorator@@@@8 DD 00H ; CDynamicPoolEx<NEffectUpdateDecorator::CNullDecorator>::`RTTI Class Hierarchy Descriptor'
	DD	00H
	DD	01H
	DD	FLAT:??_R2?$CDynamicPoolEx@VCNullDecorator@NEffectUpdateDecorator@@@@8
rdata$r	ENDS
;	COMDAT ??_R0?AV?$CDynamicPoolEx@VCNullDecorator@NEffectUpdateDecorator@@@@@8
data$rs	SEGMENT
??_R0?AV?$CDynamicPoolEx@VCNullDecorator@NEffectUpdateDecorator@@@@@8 DD FLAT:??_7type_info@@6B@ ; CDynamicPoolEx<NEffectUpdateDecorator::CNullDecorator> `RTTI Type Descriptor'
	DD	00H
	DB	'.?AV?$CDynamicPoolEx@VCNullDecorator@NEffectUpdateDecora'
	DB	'tor@@@@', 00H
data$rs	ENDS
;	COMDAT ??_R4?$CDynamicPoolEx@VCNullDecorator@NEffectUpdateDecorator@@@@6B@
rdata$r	SEGMENT
??_R4?$CDynamicPoolEx@VCNullDecorator@NEffectUpdateDecorator@@@@6B@ DD 00H ; CDynamicPoolEx<NEffectUpdateDecorator::CNullDecorator>::`RTTI Complete Object Locator'
	DD	00H
	DD	00H
	DD	FLAT:??_R0?AV?$CDynamicPoolEx@VCNullDecorator@NEffectUpdateDecorator@@@@@8
	DD	FLAT:??_R3?$CDynamicPoolEx@VCNullDecorator@NEffectUpdateDecorator@@@@8
rdata$r	ENDS
;	COMDAT ??_R1A@?0A@EA@?$CDynamicPoolEx@VCHeaderDecorator@NEffectUpdateDecorator@@@@8
rdata$r	SEGMENT
??_R1A@?0A@EA@?$CDynamicPoolEx@VCHeaderDecorator@NEffectUpdateDecorator@@@@8 DD FLAT:??_R0?AV?$CDynamicPoolEx@VCHeaderDecorator@NEffectUpdateDecorator@@@@@8 ; CDynamicPoolEx<NEffectUpdateDecorator::CHeaderDecorator>::`RTTI Base Class Descriptor at (0,-1,0,64)'
	DD	00H
	DD	00H
	DD	0ffffffffH
	DD	00H
	DD	040H
	DD	FLAT:??_R3?$CDynamicPoolEx@VCHeaderDecorator@NEffectUpdateDecorator@@@@8
rdata$r	ENDS
;	COMDAT ??_R2?$CDynamicPoolEx@VCHeaderDecorator@NEffectUpdateDecorator@@@@8
rdata$r	SEGMENT
??_R2?$CDynamicPoolEx@VCHeaderDecorator@NEffectUpdateDecorator@@@@8 DD FLAT:??_R1A@?0A@EA@?$CDynamicPoolEx@VCHeaderDecorator@NEffectUpdateDecorator@@@@8 ; CDynamicPoolEx<NEffectUpdateDecorator::CHeaderDecorator>::`RTTI Base Class Array'
rdata$r	ENDS
;	COMDAT ??_R3?$CDynamicPoolEx@VCHeaderDecorator@NEffectUpdateDecorator@@@@8
rdata$r	SEGMENT
??_R3?$CDynamicPoolEx@VCHeaderDecorator@NEffectUpdateDecorator@@@@8 DD 00H ; CDynamicPoolEx<NEffectUpdateDecorator::CHeaderDecorator>::`RTTI Class Hierarchy Descriptor'
	DD	00H
	DD	01H
	DD	FLAT:??_R2?$CDynamicPoolEx@VCHeaderDecorator@NEffectUpdateDecorator@@@@8
rdata$r	ENDS
;	COMDAT ??_R0?AV?$CDynamicPoolEx@VCHeaderDecorator@NEffectUpdateDecorator@@@@@8
data$rs	SEGMENT
??_R0?AV?$CDynamicPoolEx@VCHeaderDecorator@NEffectUpdateDecorator@@@@@8 DD FLAT:??_7type_info@@6B@ ; CDynamicPoolEx<NEffectUpdateDecorator::CHeaderDecorator> `RTTI Type Descriptor'
	DD	00H
	DB	'.?AV?$CDynamicPoolEx@VCHeaderDecorator@NEffectUpdateDeco'
	DB	'rator@@@@', 00H
data$rs	ENDS
;	COMDAT ??_R4?$CDynamicPoolEx@VCHeaderDecorator@NEffectUpdateDecorator@@@@6B@
rdata$r	SEGMENT
??_R4?$CDynamicPoolEx@VCHeaderDecorator@NEffectUpdateDecorator@@@@6B@ DD 00H ; CDynamicPoolEx<NEffectUpdateDecorator::CHeaderDecorator>::`RTTI Complete Object Locator'
	DD	00H
	DD	00H
	DD	FLAT:??_R0?AV?$CDynamicPoolEx@VCHeaderDecorator@NEffectUpdateDecorator@@@@@8
	DD	FLAT:??_R3?$CDynamicPoolEx@VCHeaderDecorator@NEffectUpdateDecorator@@@@8
rdata$r	ENDS
;	COMDAT ??_7?$CDynamicPoolEx@VCHeaderDecorator@NEffectUpdateDecorator@@@@6B@
CONST	SEGMENT
??_7?$CDynamicPoolEx@VCHeaderDecorator@NEffectUpdateDecorator@@@@6B@ DD FLAT:??_R4?$CDynamicPoolEx@VCHeaderDecorator@NEffectUpdateDecorator@@@@6B@ ; CDynamicPoolEx<NEffectUpdateDecorator::CHeaderDecorator>::`vftable'
	DD	FLAT:??_E?$CDynamicPoolEx@VCHeaderDecorator@NEffectUpdateDecorator@@@@UAEPAXI@Z
CONST	ENDS
;	COMDAT ??_7?$CDynamicPoolEx@VCNullDecorator@NEffectUpdateDecorator@@@@6B@
CONST	SEGMENT
??_7?$CDynamicPoolEx@VCNullDecorator@NEffectUpdateDecorator@@@@6B@ DD FLAT:??_R4?$CDynamicPoolEx@VCNullDecorator@NEffectUpdateDecorator@@@@6B@ ; CDynamicPoolEx<NEffectUpdateDecorator::CNullDecorator>::`vftable'
	DD	FLAT:??_E?$CDynamicPoolEx@VCNullDecorator@NEffectUpdateDecorator@@@@UAEPAXI@Z
CONST	ENDS
;	COMDAT ??_7?$CDynamicPoolEx@VCTextureAnimationCWDecorator@NEffectUpdateDecorator@@@@6B@
CONST	SEGMENT
??_7?$CDynamicPoolEx@VCTextureAnimationCWDecorator@NEffectUpdateDecorator@@@@6B@ DD FLAT:??_R4?$CDynamicPoolEx@VCTextureAnimationCWDecorator@NEffectUpdateDecorator@@@@6B@ ; CDynamicPoolEx<NEffectUpdateDecorator::CTextureAnimationCWDecorator>::`vftable'
	DD	FLAT:??_E?$CDynamicPoolEx@VCTextureAnimationCWDecorator@NEffectUpdateDecorator@@@@UAEPAXI@Z
CONST	ENDS
;	COMDAT ??_7?$CDynamicPoolEx@VCTextureAnimationCCWDecorator@NEffectUpdateDecorator@@@@6B@
CONST	SEGMENT
??_7?$CDynamicPoolEx@VCTextureAnimationCCWDecorator@NEffectUpdateDecorator@@@@6B@ DD FLAT:??_R4?$CDynamicPoolEx@VCTextureAnimationCCWDecorator@NEffectUpdateDecorator@@@@6B@ ; CDynamicPoolEx<NEffectUpdateDecorator::CTextureAnimationCCWDecorator>::`vftable'
	DD	FLAT:??_E?$CDynamicPoolEx@VCTextureAnimationCCWDecorator@NEffectUpdateDecorator@@@@UAEPAXI@Z
CONST	ENDS
;	COMDAT ??_7?$CDynamicPoolEx@VCTextureAnimationRandomDecorator@NEffectUpdateDecorator@@@@6B@
CONST	SEGMENT
??_7?$CDynamicPoolEx@VCTextureAnimationRandomDecorator@NEffectUpdateDecorator@@@@6B@ DD FLAT:??_R4?$CDynamicPoolEx@VCTextureAnimationRandomDecorator@NEffectUpdateDecorator@@@@6B@ ; CDynamicPoolEx<NEffectUpdateDecorator::CTextureAnimationRandomDecorator>::`vftable'
	DD	FLAT:??_E?$CDynamicPoolEx@VCTextureAnimationRandomDecorator@NEffectUpdateDecorator@@@@UAEPAXI@Z
CONST	ENDS
;	COMDAT ??_7?$CDynamicPoolEx@VCAirResistanceDecorator@NEffectUpdateDecorator@@@@6B@
CONST	SEGMENT
??_7?$CDynamicPoolEx@VCAirResistanceDecorator@NEffectUpdateDecorator@@@@6B@ DD FLAT:??_R4?$CDynamicPoolEx@VCAirResistanceDecorator@NEffectUpdateDecorator@@@@6B@ ; CDynamicPoolEx<NEffectUpdateDecorator::CAirResistanceDecorator>::`vftable'
	DD	FLAT:??_E?$CDynamicPoolEx@VCAirResistanceDecorator@NEffectUpdateDecorator@@@@UAEPAXI@Z
CONST	ENDS
;	COMDAT ??_7?$CDynamicPoolEx@VCGravityDecorator@NEffectUpdateDecorator@@@@6B@
CONST	SEGMENT
??_7?$CDynamicPoolEx@VCGravityDecorator@NEffectUpdateDecorator@@@@6B@ DD FLAT:??_R4?$CDynamicPoolEx@VCGravityDecorator@NEffectUpdateDecorator@@@@6B@ ; CDynamicPoolEx<NEffectUpdateDecorator::CGravityDecorator>::`vftable'
	DD	FLAT:??_E?$CDynamicPoolEx@VCGravityDecorator@NEffectUpdateDecorator@@@@UAEPAXI@Z
CONST	ENDS
;	COMDAT ??_7?$CDynamicPoolEx@VCRotationDecorator@NEffectUpdateDecorator@@@@6B@
CONST	SEGMENT
??_7?$CDynamicPoolEx@VCRotationDecorator@NEffectUpdateDecorator@@@@6B@ DD FLAT:??_R4?$CDynamicPoolEx@VCRotationDecorator@NEffectUpdateDecorator@@@@6B@ ; CDynamicPoolEx<NEffectUpdateDecorator::CRotationDecorator>::`vftable'
	DD	FLAT:??_E?$CDynamicPoolEx@VCRotationDecorator@NEffectUpdateDecorator@@@@UAEPAXI@Z
CONST	ENDS
;	COMDAT ??_C@_0M@HKJKCDHH@OPENID_TEST@
CONST	SEGMENT
??_C@_0M@HKJKCDHH@OPENID_TEST@ DB 'OPENID_TEST', 00H	; `string'
CONST	ENDS
;	COMDAT ??_C@_0L@GJPKGMAC@USE_OPENID@
CONST	SEGMENT
??_C@_0L@GJPKGMAC@USE_OPENID@ DB 'USE_OPENID', 00H	; `string'
CONST	ENDS
;	COMDAT ??_C@_0BM@LNFCINHP@ENABLE_NEW_EQUIPMENT_SYSTEM@
CONST	SEGMENT
??_C@_0BM@LNFCINHP@ENABLE_NEW_EQUIPMENT_SYSTEM@ DB 'ENABLE_NEW_EQUIPMENT_'
	DB	'SYSTEM', 00H				; `string'
CONST	ENDS
;	COMDAT ??_C@_0BK@MHKPDOOB@ENABLE_DRAGON_SOUL_SYSTEM@
CONST	SEGMENT
??_C@_0BK@MHKPDOOB@ENABLE_DRAGON_SOUL_SYSTEM@ DB 'ENABLE_DRAGON_SOUL_SYST'
	DB	'EM', 00H					; `string'
CONST	ENDS
;	COMDAT ??_C@_0BF@JNPGDOCA@ENABLE_ENERGY_SYSTEM@
CONST	SEGMENT
??_C@_0BF@JNPGDOCA@ENABLE_ENERGY_SYSTEM@ DB 'ENABLE_ENERGY_SYSTEM', 00H ; `string'
CONST	ENDS
;	COMDAT ??_C@_0BG@NNONEOJP@ENABLE_COSTUME_SYSTEM@
CONST	SEGMENT
??_C@_0BG@NNONEOJP@ENABLE_COSTUME_SYSTEM@ DB 'ENABLE_COSTUME_SYSTEM', 00H ; `string'
CONST	ENDS
;	COMDAT ??_C@_0M@NJFGNKPE@CAMERA_STOP@
CONST	SEGMENT
??_C@_0M@NJFGNKPE@CAMERA_STOP@ DB 'CAMERA_STOP', 00H	; `string'
CONST	ENDS
;	COMDAT ??_C@_0BD@JPBNJGLJ@CAMERA_TO_NEGATIVE@
CONST	SEGMENT
??_C@_0BD@JPBNJGLJ@CAMERA_TO_NEGATIVE@ DB 'CAMERA_TO_NEGATIVE', 00H ; `string'
CONST	ENDS
;	COMDAT ??_C@_0BD@BFBNCJCC@CAMERA_TO_POSITIVE@
CONST	SEGMENT
??_C@_0BD@BFBNCJCC@CAMERA_TO_POSITIVE@ DB 'CAMERA_TO_POSITIVE', 00H ; `string'
CONST	ENDS
;	COMDAT ??_C@_06LKCKECPP@HVSIZE@
CONST	SEGMENT
??_C@_06LKCKECPP@HVSIZE@ DB 'HVSIZE', 00H		; `string'
CONST	ENDS
;	COMDAT ??_C@_05OBGAAHDM@VSIZE@
CONST	SEGMENT
??_C@_05OBGAAHDM@VSIZE@ DB 'VSIZE', 00H			; `string'
CONST	ENDS
;	COMDAT ??_C@_05NILMGENH@HSIZE@
CONST	SEGMENT
??_C@_05NILMGENH@HSIZE@ DB 'HSIZE', 00H			; `string'
CONST	ENDS
;	COMDAT ??_C@_0O@MAJOJEIM@CAMERA_ROTATE@
CONST	SEGMENT
??_C@_0O@MAJOJEIM@CAMERA_ROTATE@ DB 'CAMERA_ROTATE', 00H ; `string'
CONST	ENDS
;	COMDAT ??_C@_04MPOIGBFL@SELL@
CONST	SEGMENT
??_C@_04MPOIGBFL@SELL@ DB 'SELL', 00H			; `string'
CONST	ENDS
;	COMDAT ??_C@_03OOKILKBD@BUY@
CONST	SEGMENT
??_C@_03OOKILKBD@BUY@ DB 'BUY', 00H			; `string'
CONST	ENDS
;	COMDAT ??_C@_05DKLEPMBK@MAGIC@
CONST	SEGMENT
??_C@_05DKLEPMBK@MAGIC@ DB 'MAGIC', 00H			; `string'
CONST	ENDS
;	COMDAT ??_C@_05HLBMIDNH@CHAIR@
CONST	SEGMENT
??_C@_05HLBMIDNH@CHAIR@ DB 'CHAIR', 00H			; `string'
CONST	ENDS
;	COMDAT ??_C@_04KEJCELCL@DOOR@
CONST	SEGMENT
??_C@_04KEJCELCL@DOOR@ DB 'DOOR', 00H			; `string'
CONST	ENDS
;	COMDAT ??_C@_04IGIDHFMJ@PICK@
CONST	SEGMENT
??_C@_04IGIDHFMJ@PICK@ DB 'PICK', 00H			; `string'
CONST	ENDS
;	COMDAT ??_C@_07LGCIEODJ@CANT_GO@
CONST	SEGMENT
??_C@_07LGCIEODJ@CANT_GO@ DB 'CANT_GO', 00H		; `string'
CONST	ENDS
;	COMDAT ??_C@_04LNOLLMNL@TALK@
CONST	SEGMENT
??_C@_04LNOLLMNL@TALK@ DB 'TALK', 00H			; `string'
CONST	ENDS
;	COMDAT ??_C@_06JNJLBPLI@TARGET@
CONST	SEGMENT
??_C@_06JNJLBPLI@TARGET@ DB 'TARGET', 00H		; `string'
CONST	ENDS
;	COMDAT ??_C@_06JIJKOHKJ@ATTACK@
CONST	SEGMENT
??_C@_06JIJKOHKJ@ATTACK@ DB 'ATTACK', 00H		; `string'
CONST	ENDS
;	COMDAT ??_C@_06IOJAGNKJ@NORMAL@
CONST	SEGMENT
??_C@_06IOJAGNKJ@NORMAL@ DB 'NORMAL', 00H		; `string'
CONST	ENDS
;	COMDAT ??_C@_08EEDKKFEB@DIK_APPS@
CONST	SEGMENT
??_C@_08EEDKKFEB@DIK_APPS@ DB 'DIK_APPS', 00H		; `string'
CONST	ENDS
;	COMDAT ??_C@_08BCDGIEEJ@DIK_RWIN@
CONST	SEGMENT
??_C@_08BCDGIEEJ@DIK_RWIN@ DB 'DIK_RWIN', 00H		; `string'
CONST	ENDS
;	COMDAT ??_C@_08MNOGKNKK@DIK_LWIN@
CONST	SEGMENT
??_C@_08MNOGKNKK@DIK_LWIN@ DB 'DIK_LWIN', 00H		; `string'
CONST	ENDS
;	COMDAT ??_C@_0L@HICEJOHK@DIK_DELETE@
CONST	SEGMENT
??_C@_0L@HICEJOHK@DIK_DELETE@ DB 'DIK_DELETE', 00H	; `string'
CONST	ENDS
;	COMDAT ??_C@_0L@MGNAFAII@DIK_INSERT@
CONST	SEGMENT
??_C@_0L@MGNAFAII@DIK_INSERT@ DB 'DIK_INSERT', 00H	; `string'
CONST	ENDS
;	COMDAT ??_C@_08DADHBDOF@DIK_PGDN@
CONST	SEGMENT
??_C@_08DADHBDOF@DIK_PGDN@ DB 'DIK_PGDN', 00H		; `string'
CONST	ENDS
;	COMDAT ??_C@_08HOIDBHGB@DIK_DOWN@
CONST	SEGMENT
??_C@_08HOIDBHGB@DIK_DOWN@ DB 'DIK_DOWN', 00H		; `string'
CONST	ENDS
;	COMDAT ??_C@_07HLJOPMFK@DIK_END@
CONST	SEGMENT
??_C@_07HLJOPMFK@DIK_END@ DB 'DIK_END', 00H		; `string'
CONST	ENDS
;	COMDAT ??_C@_09OKEHHFIC@DIK_RIGHT@
CONST	SEGMENT
??_C@_09OKEHHFIC@DIK_RIGHT@ DB 'DIK_RIGHT', 00H		; `string'
CONST	ENDS
;	COMDAT ??_C@_08IMIHIPFI@DIK_LEFT@
CONST	SEGMENT
??_C@_08IMIHIPFI@DIK_LEFT@ DB 'DIK_LEFT', 00H		; `string'
CONST	ENDS
;	COMDAT ??_C@_08PJJCOFHN@DIK_PGUP@
CONST	SEGMENT
??_C@_08PJJCOFHN@DIK_PGUP@ DB 'DIK_PGUP', 00H		; `string'
CONST	ENDS
;	COMDAT ??_C@_06JGABONOM@DIK_UP@
CONST	SEGMENT
??_C@_06JGABONOM@DIK_UP@ DB 'DIK_UP', 00H		; `string'
CONST	ENDS
;	COMDAT ??_C@_08EJDGAFAN@DIK_HOME@
CONST	SEGMENT
??_C@_08EJDGAFAN@DIK_HOME@ DB 'DIK_HOME', 00H		; `string'
CONST	ENDS
;	COMDAT ??_C@_09COEFGPNN@DIK_PAUSE@
CONST	SEGMENT
??_C@_09COEFGPNN@DIK_PAUSE@ DB 'DIK_PAUSE', 00H		; `string'
CONST	ENDS
;	COMDAT ??_C@_08NBKCLEDK@DIK_RALT@
CONST	SEGMENT
??_C@_08NBKCLEDK@DIK_RALT@ DB 'DIK_RALT', 00H		; `string'
CONST	ENDS
;	COMDAT ??_C@_09PCEGCDIO@DIK_SYSRQ@
CONST	SEGMENT
??_C@_09PCEGCDIO@DIK_SYSRQ@ DB 'DIK_SYSRQ', 00H		; `string'
CONST	ENDS
;	COMDAT ??_C@_0L@HDEGMNOK@DIK_DIVIDE@
CONST	SEGMENT
??_C@_0L@HDEGMNOK@DIK_DIVIDE@ DB 'DIK_DIVIDE', 00H	; `string'
CONST	ENDS
;	COMDAT ??_C@_0BA@ECBGFAAH@DIK_NUMPADCOMMA@
CONST	SEGMENT
??_C@_0BA@ECBGFAAH@DIK_NUMPADCOMMA@ DB 'DIK_NUMPADCOMMA', 00H ; `string'
CONST	ENDS
;	COMDAT ??_C@_0M@IEADBFND@DIK_WEBHOME@
CONST	SEGMENT
??_C@_0M@IEADBFND@DIK_WEBHOME@ DB 'DIK_WEBHOME', 00H	; `string'
CONST	ENDS
;	COMDAT ??_C@_0N@GPHLGHED@DIK_VOLUMEUP@
CONST	SEGMENT
??_C@_0N@GPHLGHED@DIK_VOLUMEUP@ DB 'DIK_VOLUMEUP', 00H	; `string'
CONST	ENDS
;	COMDAT ??_C@_0P@FKHBCEAD@DIK_VOLUMEDOWN@
CONST	SEGMENT
??_C@_0P@FKHBCEAD@DIK_VOLUMEDOWN@ DB 'DIK_VOLUMEDOWN', 00H ; `string'
CONST	ENDS
;	COMDAT ??_C@_0O@FLFOAKOG@DIK_MEDIASTOP@
CONST	SEGMENT
??_C@_0O@FLFOAKOG@DIK_MEDIASTOP@ DB 'DIK_MEDIASTOP', 00H ; `string'
CONST	ENDS
;	COMDAT ??_C@_0O@ECAMOKPG@DIK_PLAYPAUSE@
CONST	SEGMENT
??_C@_0O@ECAMOKPG@DIK_PLAYPAUSE@ DB 'DIK_PLAYPAUSE', 00H ; `string'
CONST	ENDS
;	COMDAT ??_C@_0P@OJEJDHIP@DIK_CALCULATOR@
CONST	SEGMENT
??_C@_0P@OJEJDHIP@DIK_CALCULATOR@ DB 'DIK_CALCULATOR', 00H ; `string'
CONST	ENDS
;	COMDAT ??_C@_08KNIFKFHJ@DIK_MUTE@
CONST	SEGMENT
??_C@_08KNIFKFHJ@DIK_MUTE@ DB 'DIK_MUTE', 00H		; `string'
CONST	ENDS
;	COMDAT ??_C@_0N@GKDJCKOL@DIK_RCONTROL@
CONST	SEGMENT
??_C@_0N@GKDJCKOL@DIK_RCONTROL@ DB 'DIK_RCONTROL', 00H	; `string'
CONST	ENDS
;	COMDAT ??_C@_0BA@OLMCJCJF@DIK_NUMPADENTER@
CONST	SEGMENT
??_C@_0BA@OLMCJCJF@DIK_NUMPADENTER@ DB 'DIK_NUMPADENTER', 00H ; `string'
CONST	ENDS
;	COMDAT ??_C@_0O@DEOEEHEE@DIK_NEXTTRACK@
CONST	SEGMENT
??_C@_0O@DEOEEHEE@DIK_NEXTTRACK@ DB 'DIK_NEXTTRACK', 00H ; `string'
CONST	ENDS
;	COMDAT ??_C@_07EPODKCKJ@DIK_F12@
CONST	SEGMENT
??_C@_07EPODKCKJ@DIK_F12@ DB 'DIK_F12', 00H		; `string'
CONST	ENDS
;	COMDAT ??_C@_07GEMOPBGK@DIK_F11@
CONST	SEGMENT
??_C@_07GEMOPBGK@DIK_F11@ DB 'DIK_F11', 00H		; `string'
CONST	ENDS
;	COMDAT ??_C@_0M@PCNKFDKI@DIK_DECIMAL@
CONST	SEGMENT
??_C@_0M@PCNKFDKI@DIK_DECIMAL@ DB 'DIK_DECIMAL', 00H	; `string'
CONST	ENDS
;	COMDAT ??_C@_0M@JMKJAMIE@DIK_NUMPAD0@
CONST	SEGMENT
??_C@_0M@JMKJAMIE@DIK_NUMPAD0@ DB 'DIK_NUMPAD0', 00H	; `string'
CONST	ENDS
;	COMDAT ??_C@_0M@LHIEFPEH@DIK_NUMPAD3@
CONST	SEGMENT
??_C@_0M@LHIEFPEH@DIK_NUMPAD3@ DB 'DIK_NUMPAD3', 00H	; `string'
CONST	ENDS
;	COMDAT ??_C@_0M@KOJPGOAG@DIK_NUMPAD2@
CONST	SEGMENT
??_C@_0M@KOJPGOAG@DIK_NUMPAD2@ DB 'DIK_NUMPAD2', 00H	; `string'
CONST	ENDS
;	COMDAT ??_C@_0M@IFLCDNMF@DIK_NUMPAD1@
CONST	SEGMENT
??_C@_0M@IFLCDNMF@DIK_NUMPAD1@ DB 'DIK_NUMPAD1', 00H	; `string'
CONST	ENDS
;	COMDAT ??_C@_07PJGLOONL@DIK_ADD@
CONST	SEGMENT
??_C@_07PJGLOONL@DIK_ADD@ DB 'DIK_ADD', 00H		; `string'
CONST	ENDS
;	COMDAT ??_C@_0M@MKPDKLAC@DIK_NUMPAD6@
CONST	SEGMENT
??_C@_0M@MKPDKLAC@DIK_NUMPAD6@ DB 'DIK_NUMPAD6', 00H	; `string'
CONST	ENDS
;	COMDAT ??_C@_0M@OBNOPIMB@DIK_NUMPAD5@
CONST	SEGMENT
??_C@_0M@OBNOPIMB@DIK_NUMPAD5@ DB 'DIK_NUMPAD5', 00H	; `string'
CONST	ENDS
;	COMDAT ??_C@_0M@PIMFMJIA@DIK_NUMPAD4@
CONST	SEGMENT
??_C@_0M@PIMFMJIA@DIK_NUMPAD4@ DB 'DIK_NUMPAD4', 00H	; `string'
CONST	ENDS
;	COMDAT ??_C@_0N@ECOBCKNF@DIK_SUBTRACT@
CONST	SEGMENT
??_C@_0N@ECOBCKNF@DIK_SUBTRACT@ DB 'DIK_SUBTRACT', 00H	; `string'
CONST	ENDS
;	COMDAT ??_C@_0M@ENGLLHMN@DIK_NUMPAD9@
CONST	SEGMENT
??_C@_0M@ENGLLHMN@DIK_NUMPAD9@ DB 'DIK_NUMPAD9', 00H	; `string'
CONST	ENDS
;	COMDAT ??_C@_0M@FEHAIGIM@DIK_NUMPAD8@
CONST	SEGMENT
??_C@_0M@FEHAIGIM@DIK_NUMPAD8@ DB 'DIK_NUMPAD8', 00H	; `string'
CONST	ENDS
;	COMDAT ??_C@_0M@NDOIJKED@DIK_NUMPAD7@
CONST	SEGMENT
??_C@_0M@NDOIJKED@DIK_NUMPAD7@ DB 'DIK_NUMPAD7', 00H	; `string'
CONST	ENDS
;	COMDAT ??_C@_0L@HPJOFPCB@DIK_SCROLL@
CONST	SEGMENT
??_C@_0L@HPJOFPCB@DIK_SCROLL@ DB 'DIK_SCROLL', 00H	; `string'
CONST	ENDS
;	COMDAT ??_C@_0M@BAOCLHIM@DIK_NUMLOCK@
CONST	SEGMENT
??_C@_0M@BAOCLHIM@DIK_NUMLOCK@ DB 'DIK_NUMLOCK', 00H	; `string'
CONST	ENDS
;	COMDAT ??_C@_07HNNFMACL@DIK_F10@
CONST	SEGMENT
??_C@_07HNNFMACL@DIK_F10@ DB 'DIK_F10', 00H		; `string'
CONST	ENDS
;	COMDAT ??_C@_06DMFOCACL@DIK_F9@
CONST	SEGMENT
??_C@_06DMFOCACL@DIK_F9@ DB 'DIK_F9', 00H		; `string'
CONST	ENDS
;	COMDAT ??_C@_06CFEFBBGK@DIK_F8@
CONST	SEGMENT
??_C@_06CFEFBBGK@DIK_F8@ DB 'DIK_F8', 00H		; `string'
CONST	ENDS
;	COMDAT ??_C@_06KCNNANKF@DIK_F7@
CONST	SEGMENT
??_C@_06KCNNANKF@DIK_F7@ DB 'DIK_F7', 00H		; `string'
CONST	ENDS
;	COMDAT ??_C@_06LLMGDMOE@DIK_F6@
CONST	SEGMENT
??_C@_06LLMGDMOE@DIK_F6@ DB 'DIK_F6', 00H		; `string'
CONST	ENDS
;	COMDAT ??_C@_06JAOLGPCH@DIK_F5@
CONST	SEGMENT
??_C@_06JAOLGPCH@DIK_F5@ DB 'DIK_F5', 00H		; `string'
CONST	ENDS
;	COMDAT ??_C@_06IJPAFOGG@DIK_F4@
CONST	SEGMENT
??_C@_06IJPAFOGG@DIK_F4@ DB 'DIK_F4', 00H		; `string'
CONST	ENDS
;	COMDAT ??_C@_06MGLBMIKB@DIK_F3@
CONST	SEGMENT
??_C@_06MGLBMIKB@DIK_F3@ DB 'DIK_F3', 00H		; `string'
CONST	ENDS
;	COMDAT ??_C@_06NPKKPJOA@DIK_F2@
CONST	SEGMENT
??_C@_06NPKKPJOA@DIK_F2@ DB 'DIK_F2', 00H		; `string'
CONST	ENDS
;	COMDAT ??_C@_06PEIHKKCD@DIK_F1@
CONST	SEGMENT
??_C@_06PEIHKKCD@DIK_F1@ DB 'DIK_F1', 00H		; `string'
CONST	ENDS
;	COMDAT ??_C@_0M@KEADBGIC@DIK_CAPITAL@
CONST	SEGMENT
??_C@_0M@KEADBGIC@DIK_CAPITAL@ DB 'DIK_CAPITAL', 00H	; `string'
CONST	ENDS
;	COMDAT ??_C@_09DGAMMAPJ@DIK_SPACE@
CONST	SEGMENT
??_C@_09DGAMMAPJ@DIK_SPACE@ DB 'DIK_SPACE', 00H		; `string'
CONST	ENDS
;	COMDAT ??_C@_08OHCJNNJ@DIK_LALT@
CONST	SEGMENT
??_C@_08OHCJNNJ@DIK_LALT@ DB 'DIK_LALT', 00H		; `string'
CONST	ENDS
;	COMDAT ??_C@_0N@DHLLGHHC@DIK_MULTIPLY@
CONST	SEGMENT
??_C@_0N@DHLLGHHC@DIK_MULTIPLY@ DB 'DIK_MULTIPLY', 00H	; `string'
CONST	ENDS
;	COMDAT ??_C@_0L@FKIIJLHO@DIK_RSHIFT@
CONST	SEGMENT
??_C@_0L@FKIIJLHO@DIK_RSHIFT@ DB 'DIK_RSHIFT', 00H	; `string'
CONST	ENDS
;	COMDAT ??_C@_09DKJEGHEH@DIK_SLASH@
CONST	SEGMENT
??_C@_09DKJEGHEH@DIK_SLASH@ DB 'DIK_SLASH', 00H		; `string'
CONST	ENDS
;	COMDAT ??_C@_0L@HHNLMNCM@DIK_PERIOD@
CONST	SEGMENT
??_C@_0L@HHNLMNCM@DIK_PERIOD@ DB 'DIK_PERIOD', 00H	; `string'
CONST	ENDS
;	COMDAT ??_C@_09PDEOJFIH@DIK_COMMA@
CONST	SEGMENT
??_C@_09PDEOJFIH@DIK_COMMA@ DB 'DIK_COMMA', 00H		; `string'
CONST	ENDS
;	COMDAT ??_C@_05OBDFKLOH@DIK_M@
CONST	SEGMENT
??_C@_05OBDFKLOH@DIK_M@ DB 'DIK_M', 00H			; `string'
CONST	ENDS
;	COMDAT ??_C@_05MKBIPICE@DIK_N@
CONST	SEGMENT
??_C@_05MKBIPICE@DIK_N@ DB 'DIK_N', 00H			; `string'
CONST	ENDS
;	COMDAT ??_C@_05GGKNLHCI@DIK_B@
CONST	SEGMENT
??_C@_05GGKNLHCI@DIK_B@ DB 'DIK_B', 00H			; `string'
CONST	ENDS
;	COMDAT ??_C@_05EIADGAHN@DIK_V@
CONST	SEGMENT
??_C@_05EIADGAHN@DIK_V@ DB 'DIK_V', 00H			; `string'
CONST	ENDS
;	COMDAT ??_C@_05HPLGIGGJ@DIK_C@
CONST	SEGMENT
??_C@_05HPLGIGGJ@DIK_C@ DB 'DIK_C', 00H			; `string'
CONST	ENDS
;	COMDAT ??_C@_05NGIAENPD@DIK_X@
CONST	SEGMENT
??_C@_05NGIAENPD@DIK_X@ DB 'DIK_X', 00H			; `string'
CONST	ENDS
;	COMDAT ??_C@_05OELGCPHB@DIK_Z@
CONST	SEGMENT
??_C@_05OELGCPHB@DIK_Z@ DB 'DIK_Z', 00H			; `string'
CONST	ENDS
;	COMDAT ??_C@_0O@DGKNNOHE@DIK_BACKSLASH@
CONST	SEGMENT
??_C@_0O@DGKNNOHE@DIK_BACKSLASH@ DB 'DIK_BACKSLASH', 00H ; `string'
CONST	ENDS
;	COMDAT ??_C@_0L@GNGJHMON@DIK_LSHIFT@
CONST	SEGMENT
??_C@_0L@GNGJHMON@DIK_LSHIFT@ DB 'DIK_LSHIFT', 00H	; `string'
CONST	ENDS
;	COMDAT ??_C@_09MOGGLCIP@DIK_GRAVE@
CONST	SEGMENT
??_C@_09MOGGLCIP@DIK_GRAVE@ DB 'DIK_GRAVE', 00H		; `string'
CONST	ENDS
;	COMDAT ??_C@_0P@JDEKLKAM@DIK_APOSTROPHE@
CONST	SEGMENT
??_C@_0P@JDEKLKAM@DIK_APOSTROPHE@ DB 'DIK_APOSTROPHE', 00H ; `string'
CONST	ENDS
;	COMDAT ??_C@_0O@NEECDLLB@DIK_SEMICOLON@
CONST	SEGMENT
??_C@_0O@NEECDLLB@DIK_SEMICOLON@ DB 'DIK_SEMICOLON', 00H ; `string'
CONST	ENDS
;	COMDAT ??_C@_05PICOJKKG@DIK_L@
CONST	SEGMENT
??_C@_05PICOJKKG@DIK_L@ DB 'DIK_L', 00H			; `string'
CONST	ENDS
;	COMDAT ??_C@_05LHGPAMGB@DIK_K@
CONST	SEGMENT
??_C@_05LHGPAMGB@DIK_K@ DB 'DIK_K', 00H			; `string'
CONST	ENDS
;	COMDAT ??_C@_05KOHEDNCA@DIK_J@
CONST	SEGMENT
??_C@_05KOHEDNCA@DIK_J@ DB 'DIK_J', 00H			; `string'
CONST	ENDS
;	COMDAT ??_C@_05JMECFPKC@DIK_H@
CONST	SEGMENT
??_C@_05JMECFPKC@DIK_H@ DB 'DIK_H', 00H			; `string'
CONST	ENDS
;	COMDAT ??_C@_05BLNKEDGN@DIK_G@
CONST	SEGMENT
??_C@_05BLNKEDGN@DIK_G@ DB 'DIK_G', 00H			; `string'
CONST	ENDS
;	COMDAT ??_C@_05CMBHCCM@DIK_F@
CONST	SEGMENT
??_C@_05CMBHCCM@DIK_F@ DB 'DIK_F', 00H			; `string'
CONST	ENDS
;	COMDAT ??_C@_05DAPHBAKO@DIK_D@
CONST	SEGMENT
??_C@_05DAPHBAKO@DIK_D@ DB 'DIK_D', 00H			; `string'
CONST	ENDS
;	COMDAT ??_C@_05DFHEJEDI@DIK_S@
CONST	SEGMENT
??_C@_05DFHEJEDI@DIK_S@ DB 'DIK_S', 00H			; `string'
CONST	ENDS
;	COMDAT ??_C@_05ENIAOEOL@DIK_A@
CONST	SEGMENT
??_C@_05ENIAOEOL@DIK_A@ DB 'DIK_A', 00H			; `string'
CONST	ENDS
;	COMDAT ??_C@_0N@ODLLDAI@DIK_LCONTROL@
CONST	SEGMENT
??_C@_0N@ODLLDAI@DIK_LCONTROL@ DB 'DIK_LCONTROL', 00H	; `string'
CONST	ENDS
;	COMDAT ??_C@_0L@JLNKBJCL@DIK_RETURN@
CONST	SEGMENT
??_C@_0L@JLNKBJCL@DIK_RETURN@ DB 'DIK_RETURN', 00H	; `string'
CONST	ENDS
;	COMDAT ??_C@_0N@CBJBCLKG@DIK_RBRACKET@
CONST	SEGMENT
??_C@_0N@CBJBCLKG@DIK_RBRACKET@ DB 'DIK_RBRACKET', 00H	; `string'
CONST	ENDS
;	COMDAT ??_C@_0N@EFJDLCEF@DIK_LBRACKET@
CONST	SEGMENT
??_C@_0N@EFJDLCEF@DIK_LBRACKET@ DB 'DIK_LBRACKET', 00H	; `string'
CONST	ENDS
;	COMDAT ??_C@_05BOFJMHPL@DIK_P@
CONST	SEGMENT
??_C@_05BOFJMHPL@DIK_P@ DB 'DIK_P', 00H			; `string'
CONST	ENDS
;	COMDAT ??_C@_05NDADMJGF@DIK_O@
CONST	SEGMENT
??_C@_05NDADMJGF@DIK_O@ DB 'DIK_O', 00H			; `string'
CONST	ENDS
;	COMDAT ??_C@_05IFFJGOOD@DIK_I@
CONST	SEGMENT
??_C@_05IFFJGOOD@DIK_I@ DB 'DIK_I', 00H			; `string'
CONST	ENDS
;	COMDAT ??_C@_05GDCODDLO@DIK_U@
CONST	SEGMENT
??_C@_05GDCODDLO@DIK_U@ DB 'DIK_U', 00H			; `string'
CONST	ENDS
;	COMDAT ??_C@_05MPJLHMLC@DIK_Y@
CONST	SEGMENT
??_C@_05MPJLHMLC@DIK_Y@ DB 'DIK_Y', 00H			; `string'
CONST	ENDS
;	COMDAT ??_C@_05HKDFACPP@DIK_T@
CONST	SEGMENT
??_C@_05HKDFACPP@DIK_T@ DB 'DIK_T', 00H			; `string'
CONST	ENDS
;	COMDAT ??_C@_05CMGPKFHJ@DIK_R@
CONST	SEGMENT
??_C@_05CMGPKFHJ@DIK_R@ DB 'DIK_R', 00H			; `string'
CONST	ENDS
;	COMDAT ??_C@_05CJOMCBOP@DIK_E@
CONST	SEGMENT
??_C@_05CJOMCBOP@DIK_E@ DB 'DIK_E', 00H			; `string'
CONST	ENDS
;	COMDAT ??_C@_05FBBIFBDM@DIK_W@
CONST	SEGMENT
??_C@_05FBBIFBDM@DIK_W@ DB 'DIK_W', 00H			; `string'
CONST	ENDS
;	COMDAT ??_C@_05HECPGLK@DIK_Q@
CONST	SEGMENT
??_C@_05HECPGLK@DIK_Q@ DB 'DIK_Q', 00H			; `string'
CONST	ENDS
;	COMDAT ??_C@_07MODNCMBL@DIK_TAB@
CONST	SEGMENT
??_C@_07MODNCMBL@DIK_TAB@ DB 'DIK_TAB', 00H		; `string'
CONST	ENDS
;	COMDAT ??_C@_08HHEEGKBL@DIK_BACK@
CONST	SEGMENT
??_C@_08HHEEGKBL@DIK_BACK@ DB 'DIK_BACK', 00H		; `string'
CONST	ENDS
;	COMDAT ??_C@_0L@KKCLPAPI@DIK_EQUALS@
CONST	SEGMENT
??_C@_0L@KKCLPAPI@DIK_EQUALS@ DB 'DIK_EQUALS', 00H	; `string'
CONST	ENDS
;	COMDAT ??_C@_09DOHACMKC@DIK_MINUS@
CONST	SEGMENT
??_C@_09DOHACMKC@DIK_MINUS@ DB 'DIK_MINUS', 00H		; `string'
CONST	ENDS
;	COMDAT ??_C@_05HLKEKMFM@DIK_0@
CONST	SEGMENT
??_C@_05HLKEKMFM@DIK_0@ DB 'DIK_0', 00H			; `string'
CONST	ENDS
;	COMDAT ??_C@_05KKGGBHBF@DIK_9@
CONST	SEGMENT
??_C@_05KKGGBHBF@DIK_9@ DB 'DIK_9', 00H			; `string'
CONST	ENDS
;	COMDAT ??_C@_05LDHNCGFE@DIK_8@
CONST	SEGMENT
??_C@_05LDHNCGFE@DIK_8@ DB 'DIK_8', 00H			; `string'
CONST	ENDS
;	COMDAT ??_C@_05DEOFDKJL@DIK_7@
CONST	SEGMENT
??_C@_05DEOFDKJL@DIK_7@ DB 'DIK_7', 00H			; `string'
CONST	ENDS
;	COMDAT ??_C@_05CNPOALNK@DIK_6@
CONST	SEGMENT
??_C@_05CNPOALNK@DIK_6@ DB 'DIK_6', 00H			; `string'
CONST	ENDS
;	COMDAT ??_C@_05GNDFIBJ@DIK_5@
CONST	SEGMENT
??_C@_05GNDFIBJ@DIK_5@ DB 'DIK_5', 00H			; `string'
CONST	ENDS
;	COMDAT ??_C@_05BPMIGJFI@DIK_4@
CONST	SEGMENT
??_C@_05BPMIGJFI@DIK_4@ DB 'DIK_4', 00H			; `string'
CONST	ENDS
;	COMDAT ??_C@_05FAIJPPJP@DIK_3@
CONST	SEGMENT
??_C@_05FAIJPPJP@DIK_3@ DB 'DIK_3', 00H			; `string'
CONST	ENDS
;	COMDAT ??_C@_05EJJCMONO@DIK_2@
CONST	SEGMENT
??_C@_05EJJCMONO@DIK_2@ DB 'DIK_2', 00H			; `string'
CONST	ENDS
;	COMDAT ??_C@_05GCLPJNBN@DIK_1@
CONST	SEGMENT
??_C@_05GCLPJNBN@DIK_1@ DB 'DIK_1', 00H			; `string'
CONST	ENDS
;	COMDAT ??_C@_07CACBFKLO@DIK_ESC@
CONST	SEGMENT
??_C@_07CACBFKLO@DIK_ESC@ DB 'DIK_ESC', 00H		; `string'
CONST	ENDS
;	COMDAT ??_C@_0L@BOHNMBC@DIK_ESCAPE@
CONST	SEGMENT
??_C@_0L@BOHNMBC@DIK_ESCAPE@ DB 'DIK_ESCAPE', 00H	; `string'
CONST	ENDS
;	COMDAT ??_C@_09EABNPHOI@VK_DELETE@
CONST	SEGMENT
??_C@_09EABNPHOI@VK_DELETE@ DB 'VK_DELETE', 00H		; `string'
CONST	ENDS
;	COMDAT ??_C@_06LPJBNMHN@VK_END@
CONST	SEGMENT
??_C@_06LPJBNMHN@VK_END@ DB 'VK_END', 00H		; `string'
CONST	ENDS
;	COMDAT ??_C@_07OMPILPEG@VK_HOME@
CONST	SEGMENT
??_C@_07OMPILPEG@VK_HOME@ DB 'VK_HOME', 00H		; `string'
CONST	ENDS
;	COMDAT ??_C@_07NLENKNCK@VK_DOWN@
CONST	SEGMENT
??_C@_07NLENKNCK@VK_DOWN@ DB 'VK_DOWN', 00H		; `string'
CONST	ENDS
;	COMDAT ??_C@_05PIGLHCBF@VK_UP@
CONST	SEGMENT
??_C@_05PIGLHCBF@VK_UP@ DB 'VK_UP', 00H			; `string'
CONST	ENDS
;	COMDAT ??_C@_08LOMCDCA@VK_RIGHT@
CONST	SEGMENT
??_C@_08LOMCDCA@VK_RIGHT@ DB 'VK_RIGHT', 00H		; `string'
CONST	ENDS
;	COMDAT ??_C@_07CJEJDFBD@VK_LEFT@
CONST	SEGMENT
??_C@_07CJEJDFBD@VK_LEFT@ DB 'VK_LEFT', 00H		; `string'
CONST	ENDS
;	COMDAT ??_C@_0BG@JGNHHMCM@DEGREE_DIRECTION_LEFT@
CONST	SEGMENT
??_C@_0BG@JGNHHMCM@DEGREE_DIRECTION_LEFT@ DB 'DEGREE_DIRECTION_LEFT', 00H ; `string'
CONST	ENDS
;	COMDAT ??_C@_0BH@LNDFJAFE@DEGREE_DIRECTION_RIGHT@
CONST	SEGMENT
??_C@_0BH@LNDFJAFE@DEGREE_DIRECTION_RIGHT@ DB 'DEGREE_DIRECTION_RIGHT', 00H ; `string'
CONST	ENDS
;	COMDAT ??_C@_0BG@KEIJCHNJ@DEGREE_DIRECTION_SAME@
CONST	SEGMENT
??_C@_0BG@KEIJCHNJ@DEGREE_DIRECTION_SAME@ DB 'DEGREE_DIRECTION_SAME', 00H ; `string'
CONST	ENDS
;	COMDAT ??_C@_0O@FAGLOALJ@INFO_TEXTTAIL@
CONST	SEGMENT
??_C@_0O@FAGLOALJ@INFO_TEXTTAIL@ DB 'INFO_TEXTTAIL', 00H ; `string'
CONST	ENDS
;	COMDAT ??_C@_0M@KLBHMBMD@INFO_EFFECT@
CONST	SEGMENT
??_C@_0M@KLBHMBMD@INFO_EFFECT@ DB 'INFO_EFFECT', 00H	; `string'
CONST	ENDS
;	COMDAT ??_C@_0L@FNNFPLHG@INFO_ACTOR@
CONST	SEGMENT
??_C@_0L@FNNFPLHG@INFO_ACTOR@ DB 'INFO_ACTOR', 00H	; `string'
CONST	ENDS
;	COMDAT ??_C@_09OKOJMLAA@INFO_ITEM@
CONST	SEGMENT
??_C@_09OKOJMLAA@INFO_ITEM@ DB 'INFO_ITEM', 00H		; `string'
CONST	ENDS
;	COMDAT ??_C@_03CGOPKBCD@app@
CONST	SEGMENT
??_C@_03CGOPKBCD@app@ DB 'app', 00H			; `string'
CONST	ENDS
;	COMDAT ??_C@_0M@JMIFNMOK@OnLogoClose@
CONST	SEGMENT
??_C@_0M@JMIFNMOK@OnLogoClose@ DB 'OnLogoClose', 00H	; `string'
CONST	ENDS
;	COMDAT ??_C@_0L@JMMGDKPP@OnLogoOpen@
CONST	SEGMENT
??_C@_0L@JMMGDKPP@OnLogoOpen@ DB 'OnLogoOpen', 00H	; `string'
CONST	ENDS
;	COMDAT ??_C@_0N@ELECBFOK@OnLogoRender@
CONST	SEGMENT
??_C@_0N@ELECBFOK@OnLogoRender@ DB 'OnLogoRender', 00H	; `string'
CONST	ENDS
;	COMDAT ??_C@_0N@LIPHBNAO@OnLogoUpdate@
CONST	SEGMENT
??_C@_0N@LIPHBNAO@OnLogoUpdate@ DB 'OnLogoUpdate', 00H	; `string'
CONST	ENDS
;	COMDAT ??_C@_0BB@DLDOCGLL@SetGuildMarkPath@
CONST	SEGMENT
??_C@_0BB@DLDOCGLL@SetGuildMarkPath@ DB 'SetGuildMarkPath', 00H ; `string'
CONST	ENDS
;	COMDAT ??_C@_0BH@GBDECBIH@IsEnableTestServerFlag@
CONST	SEGMENT
??_C@_0BH@GBDECBIH@IsEnableTestServerFlag@ DB 'IsEnableTestServerFlag', 00H ; `string'
CONST	ENDS
;	COMDAT ??_C@_0BF@BOMOCGIP@EnableTestServerFlag@
CONST	SEGMENT
??_C@_0BF@BOMOCGIP@EnableTestServerFlag@ DB 'EnableTestServerFlag', 00H ; `string'
CONST	ENDS
;	COMDAT ??_C@_0BA@NLDNPIOL@IsVisibleNotice@
CONST	SEGMENT
??_C@_0BA@NLDNPIOL@IsVisibleNotice@ DB 'IsVisibleNotice', 00H ; `string'
CONST	ENDS
;	COMDAT ??_C@_0BB@MMPIECKB@SetVisibleNotice@
CONST	SEGMENT
??_C@_0BB@MMPIECKB@SetVisibleNotice@ DB 'SetVisibleNotice', 00H ; `string'
CONST	ENDS
;	COMDAT ??_C@_0BF@KHKICLKO@testSetSpecularColor@
CONST	SEGMENT
??_C@_0BF@KHKICLKO@testSetSpecularColor@ DB 'testSetSpecularColor', 00H ; `string'
CONST	ENDS
;	COMDAT ??_C@_0BK@PLDHJGMN@testResetAccumulationTime@
CONST	SEGMENT
??_C@_0BK@PLDHJGMN@testResetAccumulationTime@ DB 'testResetAccumulationTi'
	DB	'me', 00H					; `string'
CONST	ENDS
;	COMDAT ??_C@_0BI@DNKBNLNC@testGetAccumulationTime@
CONST	SEGMENT
??_C@_0BI@DNKBNLNC@testGetAccumulationTime@ DB 'testGetAccumulationTime', 00H ; `string'
CONST	ENDS
;	COMDAT ??_C@_0BB@IFMAFIHG@SetSpecularSpeed@
CONST	SEGMENT
??_C@_0BB@IFMAFIHG@SetSpecularSpeed@ DB 'SetSpecularSpeed', 00H ; `string'
CONST	ENDS
;	COMDAT ??_C@_0N@HDAEMEAH@SetControlFP@
CONST	SEGMENT
??_C@_0N@HDAEMEAH@SetControlFP@ DB 'SetControlFP', 00H	; `string'
CONST	ENDS
;	COMDAT ??_C@_0BD@CEMKCGHA@GetDefaultCodePage@
CONST	SEGMENT
??_C@_0BD@CEMKCGHA@GetDefaultCodePage@ DB 'GetDefaultCodePage', 00H ; `string'
CONST	ENDS
;	COMDAT ??_C@_09INPKBHN@IsCHEONMA@
CONST	SEGMENT
??_C@_09INPKBHN@IsCHEONMA@ DB 'IsCHEONMA', 00H		; `string'
CONST	ENDS
;	COMDAT ??_C@_0L@FAIOENFF@SetCHEONMA@
CONST	SEGMENT
??_C@_0L@FAIOENFF@SetCHEONMA@ DB 'SetCHEONMA', 00H	; `string'
CONST	ENDS
;	COMDAT ??_C@_0P@BFJDMEJO@LoadLocaleData@
CONST	SEGMENT
??_C@_0P@BFJDMEJO@LoadLocaleData@ DB 'LoadLocaleData', 00H ; `string'
CONST	ENDS
;	COMDAT ??_C@_0P@JHGEFJDO@LoadLocaleAddr@
CONST	SEGMENT
??_C@_0P@JHGEFJDO@LoadLocaleAddr@ DB 'LoadLocaleAddr', 00H ; `string'
CONST	ENDS
;	COMDAT ??_C@_0P@KMAINBBA@ForceSetLocale@
CONST	SEGMENT
??_C@_0P@KMAINBBA@ForceSetLocale@ DB 'ForceSetLocale', 00H ; `string'
CONST	ENDS
;	COMDAT ??_C@_0O@OKMLAHKI@GetLocalePath@
CONST	SEGMENT
??_C@_0O@OKMLAHKI@GetLocalePath@ DB 'GetLocalePath', 00H ; `string'
CONST	ENDS
;	COMDAT ??_C@_0O@JDECMIPJ@GetLocaleName@
CONST	SEGMENT
??_C@_0O@JDECMIPJ@GetLocaleName@ DB 'GetLocaleName', 00H ; `string'
CONST	ENDS
;	COMDAT ??_C@_0BF@PBACFPCP@GetLocaleServiceName@
CONST	SEGMENT
??_C@_0BF@PBACFPCP@GetLocaleServiceName@ DB 'GetLocaleServiceName', 00H ; `string'
CONST	ENDS
;	COMDAT ??_C@_0BA@HHNFKANE@GetTextFileLine@
CONST	SEGMENT
??_C@_0BA@HHNFKANE@GetTextFileLine@ DB 'GetTextFileLine', 00H ; `string'
CONST	ENDS
;	COMDAT ??_C@_0BF@BNHHEKFO@GetTextFileLineCount@
CONST	SEGMENT
??_C@_0BF@BNHHEKFO@GetTextFileLineCount@ DB 'GetTextFileLineCount', 00H ; `string'
CONST	ENDS
;	COMDAT ??_C@_0O@LNEGOIPA@CloseTextFile@
CONST	SEGMENT
??_C@_0O@LNEGOIPA@CloseTextFile@ DB 'CloseTextFile', 00H ; `string'
CONST	ENDS
;	COMDAT ??_C@_0N@JAMKKFFG@OpenTextFile@
CONST	SEGMENT
??_C@_0N@JAMKKFFG@OpenTextFile@ DB 'OpenTextFile', 00H	; `string'
CONST	ENDS
;	COMDAT ??_C@_0M@LOHDPEAO@IsFileExist@
CONST	SEGMENT
??_C@_0M@LOHDPEAO@IsFileExist@ DB 'IsFileExist', 00H	; `string'
CONST	ENDS
;	COMDAT ??_C@_0O@MFMELJAK@SetSightRange@
CONST	SEGMENT
??_C@_0O@MFMELJAK@SetSightRange@ DB 'SetSightRange', 00H ; `string'
CONST	ENDS
;	COMDAT ??_C@_0BB@JANPDNEC@SetCameraSetting@
CONST	SEGMENT
??_C@_0BB@JANPDNEC@SetCameraSetting@ DB 'SetCameraSetting', 00H ; `string'
CONST	ENDS
;	COMDAT ??_C@_0BB@IPPGJFKO@SetDefaultCamera@
CONST	SEGMENT
??_C@_0BB@IPPGJFKO@SetDefaultCamera@ DB 'SetDefaultCamera', 00H ; `string'
CONST	ENDS
;	COMDAT ??_C@_0BC@KEOGBKMG@LoadCameraSetting@
CONST	SEGMENT
??_C@_0BC@KEOGBKMG@LoadCameraSetting@ DB 'LoadCameraSetting', 00H ; `string'
CONST	ENDS
;	COMDAT ??_C@_0BC@JPDLAHCD@SaveCameraSetting@
CONST	SEGMENT
??_C@_0BC@JPDLAHCD@SaveCameraSetting@ DB 'SaveCameraSetting', 00H ; `string'
CONST	ENDS
;	COMDAT ??_C@_0P@NCLIAJKF@SetCameraSpeed@
CONST	SEGMENT
??_C@_0P@NCLIAJKF@SetCameraSpeed@ DB 'SetCameraSpeed', 00H ; `string'
CONST	ENDS
;	COMDAT ??_C@_0BI@LNMJCGJN@EnableSpecialCameraMode@
CONST	SEGMENT
??_C@_0BI@LNMJCGJN@EnableSpecialCameraMode@ DB 'EnableSpecialCameraMode', 00H ; `string'
CONST	ENDS
;	COMDAT ??_C@_0BD@CENDFAOC@SetGuildSymbolPath@
CONST	SEGMENT
??_C@_0BD@CENDFAOC@SetGuildSymbolPath@ DB 'SetGuildSymbolPath', 00H ; `string'
CONST	ENDS
;	COMDAT ??_C@_0BD@CKMKHHJC@SetDefaultFontName@
CONST	SEGMENT
??_C@_0BD@CKMKHHJC@SetDefaultFontName@ DB 'SetDefaultFontName', 00H ; `string'
CONST	ENDS
;	COMDAT ??_C@_05PFDOMJEF@Sleep@
CONST	SEGMENT
??_C@_05PFDOMJEF@Sleep@ DB 'Sleep', 00H			; `string'
CONST	ENDS
;	COMDAT ??_C@_0BE@JKNPCCAK@GetDegreeDifference@
CONST	SEGMENT
??_C@_0BE@JKNPCCAK@GetDegreeDifference@ DB 'GetDegreeDifference', 00H ; `string'
CONST	ENDS
;	COMDAT ??_C@_0BF@IMHAMDDH@GetRotatingDirection@
CONST	SEGMENT
??_C@_0BF@IMHAMDDH@GetRotatingDirection@ DB 'GetRotatingDirection', 00H ; `string'
CONST	ENDS
;	COMDAT ??_C@_0P@GHKKFFNH@GetConnectData@
CONST	SEGMENT
??_C@_0P@GHKKFFNH@GetConnectData@ DB 'GetConnectData', 00H ; `string'
CONST	ENDS
;	COMDAT ??_C@_0P@KJLEKPPL@SetConnectData@
CONST	SEGMENT
??_C@_0P@KJLEKPPL@SetConnectData@ DB 'SetConnectData', 00H ; `string'
CONST	ENDS
;	COMDAT ??_C@_0BC@KKHIHHDJ@SetHardwareCursor@
CONST	SEGMENT
??_C@_0BC@KKHIHHDJ@SetHardwareCursor@ DB 'SetHardwareCursor', 00H ; `string'
CONST	ENDS
;	COMDAT ??_C@_0BC@IDNDDKLI@SetSoftwareCursor@
CONST	SEGMENT
??_C@_0BC@IDNDDKLI@SetSoftwareCursor@ DB 'SetSoftwareCursor', 00H ; `string'
CONST	ENDS
;	COMDAT ??_C@_0P@FMIDHOAE@IsLiarCursorOn@
CONST	SEGMENT
??_C@_0P@FMIDHOAE@IsLiarCursorOn@ DB 'IsLiarCursorOn', 00H ; `string'
CONST	ENDS
;	COMDAT ??_C@_0N@BFHCIAEF@IsShowCursor@
CONST	SEGMENT
??_C@_0N@BFHCIAEF@IsShowCursor@ DB 'IsShowCursor', 00H	; `string'
CONST	ENDS
;	COMDAT ??_C@_0L@MGJDDPFG@HideCursor@
CONST	SEGMENT
??_C@_0L@MGJDDPFG@HideCursor@ DB 'HideCursor', 00H	; `string'
CONST	ENDS
;	COMDAT ??_C@_0L@BIENLPGM@ShowCursor@
CONST	SEGMENT
??_C@_0L@BIENLPGM@ShowCursor@ DB 'ShowCursor', 00H	; `string'
CONST	ENDS
;	COMDAT ??_C@_09NEOLAIPD@GetCursor@
CONST	SEGMENT
??_C@_09NEOLAIPD@GetCursor@ DB 'GetCursor', 00H		; `string'
CONST	ENDS
;	COMDAT ??_C@_09PKKOCJGB@SetCursor@
CONST	SEGMENT
??_C@_09PKKOCJGB@SetCursor@ DB 'SetCursor', 00H		; `string'
CONST	ENDS
;	COMDAT ??_C@_09EJGJNKNL@IsPressed@
CONST	SEGMENT
??_C@_09EJGJNKNL@IsPressed@ DB 'IsPressed', 00H		; `string'
CONST	ENDS
;	COMDAT ??_C@_0M@HKOOBKOE@HideWebPage@
CONST	SEGMENT
??_C@_0M@HKOOBKOE@HideWebPage@ DB 'HideWebPage', 00H	; `string'
CONST	ENDS
;	COMDAT ??_C@_0M@CJKDPGGC@MoveWebPage@
CONST	SEGMENT
??_C@_0M@CJKDPGGC@MoveWebPage@ DB 'MoveWebPage', 00H	; `string'
CONST	ENDS
;	COMDAT ??_C@_0M@LMDMBNNG@ShowWebPage@
CONST	SEGMENT
??_C@_0M@LMDMBNNG@ShowWebPage@ DB 'ShowWebPage', 00H	; `string'
CONST	ENDS
;	COMDAT ??_C@_0O@JGKOEJBF@IsWebPageMode@
CONST	SEGMENT
??_C@_0O@JGKOEJBF@IsWebPageMode@ DB 'IsWebPageMode', 00H ; `string'
CONST	ENDS
;	COMDAT ??_C@_0O@NFOAEJMI@RunPythonFile@
CONST	SEGMENT
??_C@_0O@NFOAEJMI@RunPythonFile@ DB 'RunPythonFile', 00H ; `string'
CONST	ENDS
;	COMDAT ??_C@_09CIIBMEDP@GetRandom@
CONST	SEGMENT
??_C@_09CIIBMEDP@GetRandom@ DB 'GetRandom', 00H		; `string'
CONST	ENDS
;	COMDAT ??_C@_0BC@DJJGDMOB@GetCursorPosition@
CONST	SEGMENT
??_C@_0BC@DJJGDMOB@GetCursorPosition@ DB 'GetCursorPosition', 00H ; `string'
CONST	ENDS
;	COMDAT ??_C@_0BC@MCKFCFLJ@SetCenterPosition@
CONST	SEGMENT
??_C@_0BC@MCKFCFLJ@SetCenterPosition@ DB 'SetCenterPosition', 00H ; `string'
CONST	ENDS
;	COMDAT ??_C@_0BI@BPPNOEKE@SetGlobalCenterPosition@
CONST	SEGMENT
??_C@_0BI@BPPNOEKE@SetGlobalCenterPosition@ DB 'SetGlobalCenterPosition', 00H ; `string'
CONST	ENDS
;	COMDAT ??_C@_06GHJACMIL@SetFPS@
CONST	SEGMENT
??_C@_06GHJACMIL@SetFPS@ DB 'SetFPS', 00H		; `string'
CONST	ENDS
;	COMDAT ??_C@_0N@FGHMKANF@GetFaceCount@
CONST	SEGMENT
??_C@_0N@FGHMKANF@GetFaceCount@ DB 'GetFaceCount', 00H	; `string'
CONST	ENDS
;	COMDAT ??_C@_0N@KBJEAIDC@GetFaceSpeed@
CONST	SEGMENT
??_C@_0N@KBJEAIDC@GetFaceSpeed@ DB 'GetFaceSpeed', 00H	; `string'
CONST	ENDS
;	COMDAT ??_C@_07EGHKJKFO@GetLoad@
CONST	SEGMENT
??_C@_07EGHKJKFO@GetLoad@ DB 'GetLoad', 00H		; `string'
CONST	ENDS
;	COMDAT ??_C@_0O@EPOIPAHO@GetUpdateTime@
CONST	SEGMENT
??_C@_0O@EPOIPAHO@GetUpdateTime@ DB 'GetUpdateTime', 00H ; `string'
CONST	ENDS
;	COMDAT ??_C@_0O@KFOAIOPC@GetRenderTime@
CONST	SEGMENT
??_C@_0O@KFOAIOPC@GetRenderTime@ DB 'GetRenderTime', 00H ; `string'
CONST	ENDS
;	COMDAT ??_C@_0BK@PBNANFFG@GetAvailableTextureMemory@
CONST	SEGMENT
??_C@_0BK@PBNANFFG@GetAvailableTextureMemory@ DB 'GetAvailableTextureMemo'
	DB	'ry', 00H					; `string'
CONST	ENDS
;	COMDAT ??_C@_0BB@PJGDEPJO@MovieResetCamera@
CONST	SEGMENT
??_C@_0BB@PJGDEPJO@MovieResetCamera@ DB 'MovieResetCamera', 00H ; `string'
CONST	ENDS
;	COMDAT ??_C@_0BA@ILLHHFGG@MovieZoomCamera@
CONST	SEGMENT
??_C@_0BA@ILLHHFGG@MovieZoomCamera@ DB 'MovieZoomCamera', 00H ; `string'
CONST	ENDS
;	COMDAT ??_C@_0BB@KFJAAFFB@MoviePitchCamera@
CONST	SEGMENT
??_C@_0BB@KFJAAFFB@MoviePitchCamera@ DB 'MoviePitchCamera', 00H ; `string'
CONST	ENDS
;	COMDAT ??_C@_0BC@FCGIGAKD@MovieRotateCamera@
CONST	SEGMENT
??_C@_0BC@FCGIGAKD@MovieRotateCamera@ DB 'MovieRotateCamera', 00H ; `string'
CONST	ENDS
;	COMDAT ??_C@_0L@BGDDIOFP@ZoomCamera@
CONST	SEGMENT
??_C@_0L@BGDDIOFP@ZoomCamera@ DB 'ZoomCamera', 00H	; `string'
CONST	ENDS
;	COMDAT ??_C@_0M@PKAIAJKC@PitchCamera@
CONST	SEGMENT
??_C@_0M@PKAIAJKC@PitchCamera@ DB 'PitchCamera', 00H	; `string'
CONST	ENDS
;	COMDAT ??_C@_0N@HGIDFLAJ@RotateCamera@
CONST	SEGMENT
??_C@_0N@HGIDFLAJ@RotateCamera@ DB 'RotateCamera', 00H	; `string'
CONST	ENDS
;	COMDAT ??_C@_0N@EHIMFGIG@GetRenderFPS@
CONST	SEGMENT
??_C@_0N@EHIMFGIG@GetRenderFPS@ DB 'GetRenderFPS', 00H	; `string'
CONST	ENDS
;	COMDAT ??_C@_0N@JKLFODAC@GetUpdateFPS@
CONST	SEGMENT
??_C@_0N@JKLFODAC@GetUpdateFPS@ DB 'GetUpdateFPS', 00H	; `string'
CONST	ENDS
;	COMDAT ??_C@_0BD@HGCMJHC@GetGlobalTimeStamp@
CONST	SEGMENT
??_C@_0BD@HGCMJHC@GetGlobalTimeStamp@ DB 'GetGlobalTimeStamp', 00H ; `string'
CONST	ENDS
;	COMDAT ??_C@_0O@JKNDJHIN@GetGlobalTime@
CONST	SEGMENT
??_C@_0O@JKNDJHIN@GetGlobalTime@ DB 'GetGlobalTime', 00H ; `string'
CONST	ENDS
;	COMDAT ??_C@_07CDIANBOE@GetTime@
CONST	SEGMENT
??_C@_07CDIANBOE@GetTime@ DB 'GetTime', 00H		; `string'
CONST	ENDS
;	COMDAT ??_C@_0BC@JICDJDCH@GetCameraRotation@
CONST	SEGMENT
??_C@_0BC@JICDJDCH@GetCameraRotation@ DB 'GetCameraRotation', 00H ; `string'
CONST	ENDS
;	COMDAT ??_C@_0P@LHFPHHJA@GetCameraPitch@
CONST	SEGMENT
??_C@_0P@LHFPHHJA@GetCameraPitch@ DB 'GetCameraPitch', 00H ; `string'
CONST	ENDS
;	COMDAT ??_C@_09KOHPDBNP@GetCamera@
CONST	SEGMENT
??_C@_09KOHPDBNP@GetCamera@ DB 'GetCamera', 00H		; `string'
CONST	ENDS
;	COMDAT ??_C@_09IADKBAEN@SetCamera@
CONST	SEGMENT
??_C@_09IADKBAEN@SetCamera@ DB 'SetCamera', 00H		; `string'
CONST	ENDS
;	COMDAT ??_C@_0M@KODKGGCI@GetFileList@
CONST	SEGMENT
??_C@_0M@KODKGGCI@GetFileList@ DB 'GetFileList', 00H	; `string'
CONST	ENDS
;	COMDAT ??_C@_0M@DHIFKLBN@IsExistFile@
CONST	SEGMENT
??_C@_0M@DHIFKLBN@IsExistFile@ DB 'IsExistFile', 00H	; `string'
CONST	ENDS
;	COMDAT ??_C@_0BA@PPCHHCMN@SetMouseHandler@
CONST	SEGMENT
??_C@_0BA@PPCHHCMN@SetMouseHandler@ DB 'SetMouseHandler', 00H ; `string'
CONST	ENDS
;	COMDAT ??_C@_05BGKIEECB@Abort@
CONST	SEGMENT
??_C@_05BGKIEECB@Abort@ DB 'Abort', 00H			; `string'
CONST	ENDS
;	COMDAT ??_C@_04LBABLPF@Exit@
CONST	SEGMENT
??_C@_04LBABLPF@Exit@ DB 'Exit', 00H			; `string'
CONST	ENDS
;	COMDAT ??_C@_07MNGBFJEN@Process@
CONST	SEGMENT
??_C@_07MNGBFJEN@Process@ DB 'Process', 00H		; `string'
CONST	ENDS
;	COMDAT ??_C@_06MIKANEJK@Create@
CONST	SEGMENT
??_C@_06MIKANEJK@Create@ DB 'Create', 00H		; `string'
CONST	ENDS
;	COMDAT ??_C@_04KLCPKPBE@Loop@
CONST	SEGMENT
??_C@_04KLCPKPBE@Loop@ DB 'Loop', 00H			; `string'
CONST	ENDS
;	COMDAT ??_C@_0L@ONMMANJD@RenderGame@
CONST	SEGMENT
??_C@_0L@ONMMANJD@RenderGame@ DB 'RenderGame', 00H	; `string'
CONST	ENDS
;	COMDAT ??_C@_0L@HMEHDBP@UpdateGame@
CONST	SEGMENT
??_C@_0L@HMEHDBP@UpdateGame@ DB 'UpdateGame', 00H	; `string'
CONST	ENDS
;	COMDAT ??_C@_07NAJNLNAF@GetInfo@
CONST	SEGMENT
??_C@_07NAJNLNAF@GetInfo@ DB 'GetInfo', 00H		; `string'
CONST	ENDS
;	COMDAT ??_C@_0N@CLLAGICL@GetImageInfo@
CONST	SEGMENT
??_C@_0N@CLLAGICL@GetImageInfo@ DB 'GetImageInfo', 00H	; `string'
CONST	ENDS
;	COMDAT ??_C@_0N@KCIEBLLG@SetFrameSkip@
CONST	SEGMENT
??_C@_0N@KCIEBLLG@SetFrameSkip@ DB 'SetFrameSkip', 00H	; `string'
CONST	ENDS
;	COMDAT ??_C@_09ILNFAENI@SetMinFog@
CONST	SEGMENT
??_C@_09ILNFAENI@SetMinFog@ DB 'SetMinFog', 00H		; `string'
CONST	ENDS
;	COMDAT ??_C@_0BF@CEAHHILA@SetCameraMaxDistance@
CONST	SEGMENT
??_C@_0BF@CEAHHILA@SetCameraMaxDistance@ DB 'SetCameraMaxDistance', 00H ; `string'
CONST	ENDS
;	COMDAT ??_C@_0BD@CPFDKOFJ@SetRideHorseEnable@
CONST	SEGMENT
??_C@_0BD@CPFDKOFJ@SetRideHorseEnable@ DB 'SetRideHorseEnable', 00H ; `string'
CONST	ENDS
;	COMDAT ??_C@_0CI@KEKBEMLJ@SetTwoHandedWeaponAttSpeedDecre@
CONST	SEGMENT
??_C@_0CI@KEKBEMLJ@SetTwoHandedWeaponAttSpeedDecre@ DB 'SetTwoHandedWeapo'
	DB	'nAttSpeedDecreaseValue', 00H		; `string'
CONST	ENDS
;	COMDAT ??_C@_0BM@CMPMDOBN@SetSkillEffectUpgradeEnable@
CONST	SEGMENT
??_C@_0BM@CMPMDOBN@SetSkillEffectUpgradeEnable@ DB 'SetSkillEffectUpgrade'
	DB	'Enable', 00H				; `string'
CONST	ENDS
;	COMDAT ??_C@_0BI@ONHBEMJA@SetWeaponSpecularEnable@
CONST	SEGMENT
??_C@_0BI@ONHBEMJA@SetWeaponSpecularEnable@ DB 'SetWeaponSpecularEnable', 00H ; `string'
CONST	ENDS
;	COMDAT ??_C@_0BH@PJOFIHBE@SetArmorSpecularEnable@
CONST	SEGMENT
??_C@_0BH@PJOFIHBE@SetArmorSpecularEnable@ DB 'SetArmorSpecularEnable', 00H ; `string'
CONST	ENDS
;	COMDAT ??_C@_0BD@PILPKKLH@SetHairColorEnable@
CONST	SEGMENT
??_C@_0BD@PILPKKLH@SetHairColorEnable@ DB 'SetHairColorEnable', 00H ; `string'
CONST	ENDS
;	COMDAT ??_C@_0BG@DEJFIMMP@EnablePerformanceTime@
CONST	SEGMENT
??_C@_0BG@DEJFIMMP@EnablePerformanceTime@ DB 'EnablePerformanceTime', 00H ; `string'
CONST	ENDS
;	COMDAT ??_C@_0BG@EOCGHNJF@SetTextTailLivingTime@
CONST	SEGMENT
??_C@_0BG@EOCGHNJF@SetTextTailLivingTime@ DB 'SetTextTailLivingTime', 00H ; `string'
CONST	ENDS
;	COMDAT ??_C@_0M@NJBHEFPA@IsLiveStage@
CONST	SEGMENT
??_C@_0M@NJBHEFPA@IsLiveStage@ DB 'IsLiveStage', 00H	; `string'
CONST	ENDS
;	COMDAT ??_C@_0M@ICBDOOOG@IsTestStage@
CONST	SEGMENT
??_C@_0M@ICBDOOOG@IsTestStage@ DB 'IsTestStage', 00H	; `string'
CONST	ENDS
;	COMDAT ??_C@_0L@OAAOKAFA@IsDevStage@
CONST	SEGMENT
??_C@_0L@OAAOKAFA@IsDevStage@ DB 'IsDevStage', 00H	; `string'
CONST	ENDS
;	COMDAT ?s_methods@?1??initapp@@YAXXZ@4PAUPyMethodDef@@A
_DATA	SEGMENT
?s_methods@?1??initapp@@YAXXZ@4PAUPyMethodDef@@A DD FLAT:??_C@_0L@OAAOKAFA@IsDevStage@ ; `initapp'::`2'::s_methods
	DD	FLAT:?appIsDevStage@@YAPAU_object@@PAU1@0@Z
	DD	01H
	ORG $+4
	DD	FLAT:??_C@_0M@ICBDOOOG@IsTestStage@
	DD	FLAT:?appIsTestStage@@YAPAU_object@@PAU1@0@Z
	DD	01H
	ORG $+4
	DD	FLAT:??_C@_0M@NJBHEFPA@IsLiveStage@
	DD	FLAT:?appIsLiveStage@@YAPAU_object@@PAU1@0@Z
	DD	01H
	ORG $+4
	DD	FLAT:??_C@_0BG@EOCGHNJF@SetTextTailLivingTime@
	DD	FLAT:?appSetTextTailLivingTime@@YAPAU_object@@PAU1@0@Z
	DD	01H
	ORG $+4
	DD	FLAT:??_C@_0BG@DEJFIMMP@EnablePerformanceTime@
	DD	FLAT:?appEnablePerformanceTime@@YAPAU_object@@PAU1@0@Z
	DD	01H
	ORG $+4
	DD	FLAT:??_C@_0BD@PILPKKLH@SetHairColorEnable@
	DD	FLAT:?appSetHairColorEnable@@YAPAU_object@@PAU1@0@Z
	DD	01H
	ORG $+4
	DD	FLAT:??_C@_0BH@PJOFIHBE@SetArmorSpecularEnable@
	DD	FLAT:?appSetArmorSpecularEnable@@YAPAU_object@@PAU1@0@Z
	DD	01H
	ORG $+4
	DD	FLAT:??_C@_0BI@ONHBEMJA@SetWeaponSpecularEnable@
	DD	FLAT:?appSetWeaponSpecularEnable@@YAPAU_object@@PAU1@0@Z
	DD	01H
	ORG $+4
	DD	FLAT:??_C@_0BM@CMPMDOBN@SetSkillEffectUpgradeEnable@
	DD	FLAT:?appSetSkillEffectUpgradeEnable@@YAPAU_object@@PAU1@0@Z
	DD	01H
	ORG $+4
	DD	FLAT:??_C@_0CI@KEKBEMLJ@SetTwoHandedWeaponAttSpeedDecre@
	DD	FLAT:?SetTwoHandedWeaponAttSpeedDecreaseValue@@YAPAU_object@@PAU1@0@Z
	DD	01H
	ORG $+4
	DD	FLAT:??_C@_0BD@CPFDKOFJ@SetRideHorseEnable@
	DD	FLAT:?appSetRideHorseEnable@@YAPAU_object@@PAU1@0@Z
	DD	01H
	ORG $+4
	DD	FLAT:??_C@_0BF@CEAHHILA@SetCameraMaxDistance@
	DD	FLAT:?appSetCameraMaxDistance@@YAPAU_object@@PAU1@0@Z
	DD	01H
	ORG $+4
	DD	FLAT:??_C@_09ILNFAENI@SetMinFog@
	DD	FLAT:?appSetMinFog@@YAPAU_object@@PAU1@0@Z
	DD	01H
	ORG $+4
	DD	FLAT:??_C@_0N@KCIEBLLG@SetFrameSkip@
	DD	FLAT:?appSetFrameSkip@@YAPAU_object@@PAU1@0@Z
	DD	01H
	ORG $+4
	DD	FLAT:??_C@_0N@CLLAGICL@GetImageInfo@
	DD	FLAT:?appGetImageInfo@@YAPAU_object@@PAU1@0@Z
	DD	01H
	ORG $+4
	DD	FLAT:??_C@_07NAJNLNAF@GetInfo@
	DD	FLAT:?appGetInfo@@YAPAU_object@@PAU1@0@Z
	DD	01H
	ORG $+4
	DD	FLAT:??_C@_0L@HMEHDBP@UpdateGame@
	DD	FLAT:?appUpdateGame@@YAPAU_object@@PAU1@0@Z
	DD	01H
	ORG $+4
	DD	FLAT:??_C@_0L@ONMMANJD@RenderGame@
	DD	FLAT:?appRenderGame@@YAPAU_object@@PAU1@0@Z
	DD	01H
	ORG $+4
	DD	FLAT:??_C@_04KLCPKPBE@Loop@
	DD	FLAT:?appLoop@@YAPAU_object@@PAU1@0@Z
	DD	01H
	ORG $+4
	DD	FLAT:??_C@_06MIKANEJK@Create@
	DD	FLAT:?appCreate@@YAPAU_object@@PAU1@0@Z
	DD	01H
	ORG $+4
	DD	FLAT:??_C@_07MNGBFJEN@Process@
	DD	FLAT:?appProcess@@YAPAU_object@@PAU1@0@Z
	DD	01H
	ORG $+4
	DD	FLAT:??_C@_04LBABLPF@Exit@
	DD	FLAT:?appExit@@YAPAU_object@@PAU1@0@Z
	DD	01H
	ORG $+4
	DD	FLAT:??_C@_05BGKIEECB@Abort@
	DD	FLAT:?appAbort@@YAPAU_object@@PAU1@0@Z
	DD	01H
	ORG $+4
	DD	FLAT:??_C@_0BA@PPCHHCMN@SetMouseHandler@
	DD	FLAT:?appSetMouseHandler@@YAPAU_object@@PAU1@0@Z
	DD	01H
	ORG $+4
	DD	FLAT:??_C@_0M@DHIFKLBN@IsExistFile@
	DD	FLAT:?appIsExistFile@@YAPAU_object@@PAU1@0@Z
	DD	01H
	ORG $+4
	DD	FLAT:??_C@_0M@KODKGGCI@GetFileList@
	DD	FLAT:?appGetFileList@@YAPAU_object@@PAU1@0@Z
	DD	01H
	ORG $+4
	DD	FLAT:??_C@_09IADKBAEN@SetCamera@
	DD	FLAT:?appSetCamera@@YAPAU_object@@PAU1@0@Z
	DD	01H
	ORG $+4
	DD	FLAT:??_C@_09KOHPDBNP@GetCamera@
	DD	FLAT:?appGetCamera@@YAPAU_object@@PAU1@0@Z
	DD	01H
	ORG $+4
	DD	FLAT:??_C@_0P@LHFPHHJA@GetCameraPitch@
	DD	FLAT:?appGetCameraPitch@@YAPAU_object@@PAU1@0@Z
	DD	01H
	ORG $+4
	DD	FLAT:??_C@_0BC@JICDJDCH@GetCameraRotation@
	DD	FLAT:?appGetCameraRotation@@YAPAU_object@@PAU1@0@Z
	DD	01H
	ORG $+4
	DD	FLAT:??_C@_07CDIANBOE@GetTime@
	DD	FLAT:?appGetTime@@YAPAU_object@@PAU1@0@Z
	DD	01H
	ORG $+4
	DD	FLAT:??_C@_0O@JKNDJHIN@GetGlobalTime@
	DD	FLAT:?appGetGlobalTime@@YAPAU_object@@PAU1@0@Z
	DD	01H
	ORG $+4
	DD	FLAT:??_C@_0BD@HGCMJHC@GetGlobalTimeStamp@
	DD	FLAT:?appGetGlobalTimeStamp@@YAPAU_object@@PAU1@0@Z
	DD	01H
	ORG $+4
	DD	FLAT:??_C@_0N@JKLFODAC@GetUpdateFPS@
	DD	FLAT:?appGetUpdateFPS@@YAPAU_object@@PAU1@0@Z
	DD	01H
	ORG $+4
	DD	FLAT:??_C@_0N@EHIMFGIG@GetRenderFPS@
	DD	FLAT:?appGetRenderFPS@@YAPAU_object@@PAU1@0@Z
	DD	01H
	ORG $+4
	DD	FLAT:??_C@_0N@HGIDFLAJ@RotateCamera@
	DD	FLAT:?appRotateCamera@@YAPAU_object@@PAU1@0@Z
	DD	01H
	ORG $+4
	DD	FLAT:??_C@_0M@PKAIAJKC@PitchCamera@
	DD	FLAT:?appPitchCamera@@YAPAU_object@@PAU1@0@Z
	DD	01H
	ORG $+4
	DD	FLAT:??_C@_0L@BGDDIOFP@ZoomCamera@
	DD	FLAT:?appZoomCamera@@YAPAU_object@@PAU1@0@Z
	DD	01H
	ORG $+4
	DD	FLAT:??_C@_0BC@FCGIGAKD@MovieRotateCamera@
	DD	FLAT:?appMovieRotateCamera@@YAPAU_object@@PAU1@0@Z
	DD	01H
	ORG $+4
	DD	FLAT:??_C@_0BB@KFJAAFFB@MoviePitchCamera@
	DD	FLAT:?appMoviePitchCamera@@YAPAU_object@@PAU1@0@Z
	DD	01H
	ORG $+4
	DD	FLAT:??_C@_0BA@ILLHHFGG@MovieZoomCamera@
	DD	FLAT:?appMovieZoomCamera@@YAPAU_object@@PAU1@0@Z
	DD	01H
	ORG $+4
	DD	FLAT:??_C@_0BB@PJGDEPJO@MovieResetCamera@
	DD	FLAT:?appMovieResetCamera@@YAPAU_object@@PAU1@0@Z
	DD	01H
	ORG $+4
	DD	FLAT:??_C@_0BK@PBNANFFG@GetAvailableTextureMemory@
	DD	FLAT:?appGetAvaiableTextureMememory@@YAPAU_object@@PAU1@0@Z
	DD	01H
	ORG $+4
	DD	FLAT:??_C@_0O@KFOAIOPC@GetRenderTime@
	DD	FLAT:?appGetRenderTime@@YAPAU_object@@PAU1@0@Z
	DD	01H
	ORG $+4
	DD	FLAT:??_C@_0O@EPOIPAHO@GetUpdateTime@
	DD	FLAT:?appGetUpdateTime@@YAPAU_object@@PAU1@0@Z
	DD	01H
	ORG $+4
	DD	FLAT:??_C@_07EGHKJKFO@GetLoad@
	DD	FLAT:?appGetLoad@@YAPAU_object@@PAU1@0@Z
	DD	01H
	ORG $+4
	DD	FLAT:??_C@_0N@KBJEAIDC@GetFaceSpeed@
	DD	FLAT:?appGetFaceSpeed@@YAPAU_object@@PAU1@0@Z
	DD	01H
	ORG $+4
	DD	FLAT:??_C@_0N@FGHMKANF@GetFaceCount@
	DD	FLAT:?appGetFaceCount@@YAPAU_object@@PAU1@0@Z
	DD	01H
	ORG $+4
	DD	FLAT:??_C@_06GHJACMIL@SetFPS@
	DD	FLAT:?appSetFPS@@YAPAU_object@@PAU1@0@Z
	DD	01H
	ORG $+4
	DD	FLAT:??_C@_0BI@BPPNOEKE@SetGlobalCenterPosition@
	DD	FLAT:?appSetGlobalCenterPosition@@YAPAU_object@@PAU1@0@Z
	DD	01H
	ORG $+4
	DD	FLAT:??_C@_0BC@MCKFCFLJ@SetCenterPosition@
	DD	FLAT:?appSetCenterPosition@@YAPAU_object@@PAU1@0@Z
	DD	01H
	ORG $+4
	DD	FLAT:??_C@_0BC@DJJGDMOB@GetCursorPosition@
	DD	FLAT:?appGetCursorPosition@@YAPAU_object@@PAU1@0@Z
	DD	01H
	ORG $+4
	DD	FLAT:??_C@_09CIIBMEDP@GetRandom@
	DD	FLAT:?appGetRandom@@YAPAU_object@@PAU1@0@Z
	DD	01H
	ORG $+4
	DD	FLAT:??_C@_0O@NFOAEJMI@RunPythonFile@
	DD	FLAT:?appRunPythonFile@@YAPAU_object@@PAU1@0@Z
	DD	01H
	ORG $+4
	DD	FLAT:??_C@_0O@JGKOEJBF@IsWebPageMode@
	DD	FLAT:?appIsWebPageMode@@YAPAU_object@@PAU1@0@Z
	DD	01H
	ORG $+4
	DD	FLAT:??_C@_0M@LMDMBNNG@ShowWebPage@
	DD	FLAT:?appShowWebPage@@YAPAU_object@@PAU1@0@Z
	DD	01H
	ORG $+4
	DD	FLAT:??_C@_0M@CJKDPGGC@MoveWebPage@
	DD	FLAT:?appMoveWebPage@@YAPAU_object@@PAU1@0@Z
	DD	01H
	ORG $+4
	DD	FLAT:??_C@_0M@HKOOBKOE@HideWebPage@
	DD	FLAT:?appHideWebPage@@YAPAU_object@@PAU1@0@Z
	DD	01H
	ORG $+4
	DD	FLAT:??_C@_09EJGJNKNL@IsPressed@
	DD	FLAT:?appIsPressed@@YAPAU_object@@PAU1@0@Z
	DD	01H
	ORG $+4
	DD	FLAT:??_C@_09PKKOCJGB@SetCursor@
	DD	FLAT:?appSetCursor@@YAPAU_object@@PAU1@0@Z
	DD	01H
	ORG $+4
	DD	FLAT:??_C@_09NEOLAIPD@GetCursor@
	DD	FLAT:?appGetCursor@@YAPAU_object@@PAU1@0@Z
	DD	01H
	ORG $+4
	DD	FLAT:??_C@_0L@BIENLPGM@ShowCursor@
	DD	FLAT:?appShowCursor@@YAPAU_object@@PAU1@0@Z
	DD	01H
	ORG $+4
	DD	FLAT:??_C@_0L@MGJDDPFG@HideCursor@
	DD	FLAT:?appHideCursor@@YAPAU_object@@PAU1@0@Z
	DD	01H
	ORG $+4
	DD	FLAT:??_C@_0N@BFHCIAEF@IsShowCursor@
	DD	FLAT:?appIsShowCursor@@YAPAU_object@@PAU1@0@Z
	DD	01H
	ORG $+4
	DD	FLAT:??_C@_0P@FMIDHOAE@IsLiarCursorOn@
	DD	FLAT:?appIsLiarCursorOn@@YAPAU_object@@PAU1@0@Z
	DD	01H
	ORG $+4
	DD	FLAT:??_C@_0BC@IDNDDKLI@SetSoftwareCursor@
	DD	FLAT:?appSetSoftwareCursor@@YAPAU_object@@PAU1@0@Z
	DD	01H
	ORG $+4
	DD	FLAT:??_C@_0BC@KKHIHHDJ@SetHardwareCursor@
	DD	FLAT:?appSetHardwareCursor@@YAPAU_object@@PAU1@0@Z
	DD	01H
	ORG $+4
	DD	FLAT:??_C@_0P@KJLEKPPL@SetConnectData@
	DD	FLAT:?appSetConnectData@@YAPAU_object@@PAU1@0@Z
	DD	01H
	ORG $+4
	DD	FLAT:??_C@_0P@GHKKFFNH@GetConnectData@
	DD	FLAT:?appGetConnectData@@YAPAU_object@@PAU1@0@Z
	DD	01H
	ORG $+4
	DD	FLAT:??_C@_0BF@IMHAMDDH@GetRotatingDirection@
	DD	FLAT:?appGetRotatingDirection@@YAPAU_object@@PAU1@0@Z
	DD	01H
	ORG $+4
	DD	FLAT:??_C@_0BE@JKNPCCAK@GetDegreeDifference@
	DD	FLAT:?appGetDegreeDifference@@YAPAU_object@@PAU1@0@Z
	DD	01H
	ORG $+4
	DD	FLAT:??_C@_05PFDOMJEF@Sleep@
	DD	FLAT:?appSleep@@YAPAU_object@@PAU1@0@Z
	DD	01H
	ORG $+4
	DD	FLAT:??_C@_0BD@CKMKHHJC@SetDefaultFontName@
	DD	FLAT:?appSetDefaultFontName@@YAPAU_object@@PAU1@0@Z
	DD	01H
	ORG $+4
	DD	FLAT:??_C@_0BD@CENDFAOC@SetGuildSymbolPath@
	DD	FLAT:?appSetGuildSymbolPath@@YAPAU_object@@PAU1@0@Z
	DD	01H
	ORG $+4
	DD	FLAT:??_C@_0BI@LNMJCGJN@EnableSpecialCameraMode@
	DD	FLAT:?appEnableSpecialCameraMode@@YAPAU_object@@PAU1@0@Z
	DD	01H
	ORG $+4
	DD	FLAT:??_C@_0P@NCLIAJKF@SetCameraSpeed@
	DD	FLAT:?appSetCameraSpeed@@YAPAU_object@@PAU1@0@Z
	DD	01H
	ORG $+4
	DD	FLAT:??_C@_0BC@JPDLAHCD@SaveCameraSetting@
	DD	FLAT:?appSaveCameraSetting@@YAPAU_object@@PAU1@0@Z
	DD	01H
	ORG $+4
	DD	FLAT:??_C@_0BC@KEOGBKMG@LoadCameraSetting@
	DD	FLAT:?appLoadCameraSetting@@YAPAU_object@@PAU1@0@Z
	DD	01H
	ORG $+4
	DD	FLAT:??_C@_0BB@IPPGJFKO@SetDefaultCamera@
	DD	FLAT:?appSetDefaultCamera@@YAPAU_object@@PAU1@0@Z
	DD	01H
	ORG $+4
	DD	FLAT:??_C@_0BB@JANPDNEC@SetCameraSetting@
	DD	FLAT:?appSetCameraSetting@@YAPAU_object@@PAU1@0@Z
	DD	01H
	ORG $+4
	DD	FLAT:??_C@_0O@MFMELJAK@SetSightRange@
	DD	FLAT:?appSetSightRange@@YAPAU_object@@PAU1@0@Z
	DD	01H
	ORG $+4
	DD	FLAT:??_C@_0M@LOHDPEAO@IsFileExist@
	DD	FLAT:?appIsFileExist@@YAPAU_object@@PAU1@0@Z
	DD	01H
	ORG $+4
	DD	FLAT:??_C@_0N@JAMKKFFG@OpenTextFile@
	DD	FLAT:?appOpenTextFile@@YAPAU_object@@PAU1@0@Z
	DD	01H
	ORG $+4
	DD	FLAT:??_C@_0O@LNEGOIPA@CloseTextFile@
	DD	FLAT:?appCloseTextFile@@YAPAU_object@@PAU1@0@Z
	DD	01H
	ORG $+4
	DD	FLAT:??_C@_0BF@BNHHEKFO@GetTextFileLineCount@
	DD	FLAT:?appGetTextFileLineCount@@YAPAU_object@@PAU1@0@Z
	DD	01H
	ORG $+4
	DD	FLAT:??_C@_0BA@HHNFKANE@GetTextFileLine@
	DD	FLAT:?appGetTextFileLine@@YAPAU_object@@PAU1@0@Z
	DD	01H
	ORG $+4
	DD	FLAT:??_C@_0BF@PBACFPCP@GetLocaleServiceName@
	DD	FLAT:?appGetLocaleServiceName@@YAPAU_object@@PAU1@0@Z
	DD	01H
	ORG $+4
	DD	FLAT:??_C@_0O@JDECMIPJ@GetLocaleName@
	DD	FLAT:?appGetLocaleName@@YAPAU_object@@PAU1@0@Z
	DD	01H
	ORG $+4
	DD	FLAT:??_C@_0O@OKMLAHKI@GetLocalePath@
	DD	FLAT:?appGetLocalePath@@YAPAU_object@@PAU1@0@Z
	DD	01H
	ORG $+4
	DD	FLAT:??_C@_0P@KMAINBBA@ForceSetLocale@
	DD	FLAT:?appForceSetLocale@@YAPAU_object@@PAU1@0@Z
	DD	01H
	ORG $+4
	DD	FLAT:??_C@_0P@JHGEFJDO@LoadLocaleAddr@
	DD	FLAT:?appLoadLocaleAddr@@YAPAU_object@@PAU1@0@Z
	DD	01H
	ORG $+4
	DD	FLAT:??_C@_0P@BFJDMEJO@LoadLocaleData@
	DD	FLAT:?appLoadLocaleData@@YAPAU_object@@PAU1@0@Z
	DD	01H
	ORG $+4
	DD	FLAT:??_C@_0L@FAIOENFF@SetCHEONMA@
	DD	FLAT:?appSetCHEONMA@@YAPAU_object@@PAU1@0@Z
	DD	01H
	ORG $+4
	DD	FLAT:??_C@_09INPKBHN@IsCHEONMA@
	DD	FLAT:?appIsCHEONMA@@YAPAU_object@@PAU1@0@Z
	DD	01H
	ORG $+4
	DD	FLAT:??_C@_0BD@CEMKCGHA@GetDefaultCodePage@
	DD	FLAT:?appGetDefaultCodePage@@YAPAU_object@@PAU1@0@Z
	DD	01H
	ORG $+4
	DD	FLAT:??_C@_0N@HDAEMEAH@SetControlFP@
	DD	FLAT:?appSetControlFP@@YAPAU_object@@PAU1@0@Z
	DD	01H
	ORG $+4
	DD	FLAT:??_C@_0BB@IFMAFIHG@SetSpecularSpeed@
	DD	FLAT:?appSetSpecularSpeed@@YAPAU_object@@PAU1@0@Z
	DD	01H
	ORG $+4
	DD	FLAT:??_C@_0BI@DNKBNLNC@testGetAccumulationTime@
	DD	FLAT:?apptestGetAccumulationTime@@YAPAU_object@@PAU1@0@Z
	DD	01H
	ORG $+4
	DD	FLAT:??_C@_0BK@PLDHJGMN@testResetAccumulationTime@
	DD	FLAT:?apptestResetAccumulationTime@@YAPAU_object@@PAU1@0@Z
	DD	01H
	ORG $+4
	DD	FLAT:??_C@_0BF@KHKICLKO@testSetSpecularColor@
	DD	FLAT:?apptestSetSpecularColor@@YAPAU_object@@PAU1@0@Z
	DD	01H
	ORG $+4
	DD	FLAT:??_C@_0BB@MMPIECKB@SetVisibleNotice@
	DD	FLAT:?appSetVisibleNotice@@YAPAU_object@@PAU1@0@Z
	DD	01H
	ORG $+4
	DD	FLAT:??_C@_0BA@NLDNPIOL@IsVisibleNotice@
	DD	FLAT:?appIsVisibleNotice@@YAPAU_object@@PAU1@0@Z
	DD	01H
	ORG $+4
	DD	FLAT:??_C@_0BF@BOMOCGIP@EnableTestServerFlag@
	DD	FLAT:?appEnableTestServerFlag@@YAPAU_object@@PAU1@0@Z
	DD	01H
	ORG $+4
	DD	FLAT:??_C@_0BH@GBDECBIH@IsEnableTestServerFlag@
	DD	FLAT:?appIsEnableTestServerFlag@@YAPAU_object@@PAU1@0@Z
	DD	01H
	ORG $+4
	DD	FLAT:??_C@_0BB@DLDOCGLL@SetGuildMarkPath@
	DD	FLAT:?appSetGuildMarkPath@@YAPAU_object@@PAU1@0@Z
	DD	01H
	ORG $+4
	DD	FLAT:??_C@_0N@LIPHBNAO@OnLogoUpdate@
	DD	FLAT:?appLogoUpdate@@YAPAU_object@@PAU1@0@Z
	DD	01H
	ORG $+4
	DD	FLAT:??_C@_0N@ELECBFOK@OnLogoRender@
	DD	FLAT:?appLogoRender@@YAPAU_object@@PAU1@0@Z
	DD	01H
	ORG $+4
	DD	FLAT:??_C@_0L@JMMGDKPP@OnLogoOpen@
	DD	FLAT:?appLogoOpen@@YAPAU_object@@PAU1@0@Z
	DD	01H
	ORG $+4
	DD	FLAT:??_C@_0M@JMIFNMOK@OnLogoClose@
	DD	FLAT:?appLogoClose@@YAPAU_object@@PAU1@0@Z
	DD	01H
	ORG $+4
	DD	00H
	DD	00H
	ORG $+8
_DATA	ENDS
;	COMDAT ??_C@_04JCAPCJAP@?4tga@
CONST	SEGMENT
??_C@_04JCAPCJAP@?4tga@ DB '.tga', 00H			; `string'
CONST	ENDS
;	COMDAT ??_C@_02OCDGCAAK@si@
CONST	SEGMENT
??_C@_02OCDGCAAK@si@ DB 'si', 00H			; `string'
CONST	ENDS
;	COMDAT ??_C@_0BH@GNAGLJEE@Wrong?5Cursor?5Name?5?$FL?$CFd?$FN@
CONST	SEGMENT
??_C@_0BH@GNAGLJEE@Wrong?5Cursor?5Name?5?$FL?$CFd?$FN@ DB 'Wrong Cursor N'
	DB	'ame [%d]', 00H				; `string'
CONST	ENDS
;	COMDAT ??_C@_02PDIHAGKM@ii@
CONST	SEGMENT
??_C@_02PDIHAGKM@ii@ DB 'ii', 00H			; `string'
CONST	ENDS
;	COMDAT ??_C@_02PINLEBJB@fi@
CONST	SEGMENT
??_C@_02PINLEBJB@fi@ DB 'fi', 00H			; `string'
CONST	ENDS
;	COMDAT ??_C@_01INIBCBCB@f@
CONST	SEGMENT
??_C@_01INIBCBCB@f@ DB 'f', 00H				; `string'
CONST	ENDS
;	COMDAT ??_C@_04EOBPFJGD@ffff@
CONST	SEGMENT
??_C@_04EOBPFJGD@ffff@ DB 'ffff', 00H			; `string'
CONST	ENDS
;	COMDAT ??_C@_03GLKMLICL@iii@
CONST	SEGMENT
??_C@_03GLKMLICL@iii@ DB 'iii', 00H			; `string'
CONST	ENDS
;	COMDAT ??_C@_02OIKAIHIF@s?$CD@
CONST	SEGMENT
??_C@_02OIKAIHIF@s?$CD@ DB 's#', 00H			; `string'
CONST	ENDS
;	COMDAT ??_C@_02JDPG@rb@
CONST	SEGMENT
??_C@_02JDPG@rb@ DB 'rb', 00H				; `string'
CONST	ENDS
;	COMDAT ?key@?1??appLoadLocaleAddr@@YAPAU_object@@PAU2@0@Z@4QBEB
CONST	SEGMENT
?key@?1??appLoadLocaleAddr@@YAPAU_object@@PAU2@0@Z@4QBEB DB 082H ; `appLoadLocaleAddr'::`2'::key
	DB	01bH
	DB	034H
	DB	0aeH
	DB	012H
	DB	03bH
	DB	0fbH
	DB	017H
	DB	0d7H
	DB	02cH
	DB	039H
	DB	0aeH
	DB	041H
	DB	098H
	DB	0f1H
	DB	063H
CONST	ENDS
;	COMDAT ??_C@_01LKDEMHDF@s@
CONST	SEGMENT
??_C@_01LKDEMHDF@s@ DB 's', 00H				; `string'
CONST	ENDS
;	COMDAT ??_C@_0M@OEKALNFB@RENDER_GAME@
CONST	SEGMENT
??_C@_0M@OEKALNFB@RENDER_GAME@ DB 'RENDER_GAME', 00H	; `string'
CONST	ENDS
;	COMDAT ??_C@_01KBJDNOO@i@
CONST	SEGMENT
??_C@_01KBJDNOO@i@ DB 'i', 00H				; `string'
CONST	ENDS
;	COMDAT ??_C@_00CNPNBAHC@@
CONST	SEGMENT
??_C@_00CNPNBAHC@@ DB 00H				; `string'
CONST	ENDS
;	COMDAT xdata$x
xdata$x	SEGMENT
__ehfuncinfo$??1?$CDynamicPoolEx@VCHeaderDecorator@NEffectUpdateDecorator@@@@UAE@XZ DD 019930522H
	DD	00H
	DD	00H
	DD	2 DUP(00H)
	DD	2 DUP(00H)
	DD	00H
	DD	05H
xdata$x	ENDS
;	COMDAT xdata$x
xdata$x	SEGMENT
__ehfuncinfo$??1?$CDynamicPoolEx@VCNullDecorator@NEffectUpdateDecorator@@@@UAE@XZ DD 019930522H
	DD	00H
	DD	00H
	DD	2 DUP(00H)
	DD	2 DUP(00H)
	DD	00H
	DD	05H
xdata$x	ENDS
;	COMDAT xdata$x
xdata$x	SEGMENT
__ehfuncinfo$??1?$CDynamicPoolEx@VCTextureAnimationCWDecorator@NEffectUpdateDecorator@@@@UAE@XZ DD 019930522H
	DD	00H
	DD	00H
	DD	2 DUP(00H)
	DD	2 DUP(00H)
	DD	00H
	DD	05H
xdata$x	ENDS
;	COMDAT xdata$x
xdata$x	SEGMENT
__ehfuncinfo$??1?$CDynamicPoolEx@VCTextureAnimationCCWDecorator@NEffectUpdateDecorator@@@@UAE@XZ DD 019930522H
	DD	00H
	DD	00H
	DD	2 DUP(00H)
	DD	2 DUP(00H)
	DD	00H
	DD	05H
xdata$x	ENDS
;	COMDAT xdata$x
xdata$x	SEGMENT
__ehfuncinfo$??1?$CDynamicPoolEx@VCTextureAnimationRandomDecorator@NEffectUpdateDecorator@@@@UAE@XZ DD 019930522H
	DD	00H
	DD	00H
	DD	2 DUP(00H)
	DD	2 DUP(00H)
	DD	00H
	DD	05H
xdata$x	ENDS
;	COMDAT xdata$x
xdata$x	SEGMENT
__ehfuncinfo$??1?$CDynamicPoolEx@VCAirResistanceDecorator@NEffectUpdateDecorator@@@@UAE@XZ DD 019930522H
	DD	00H
	DD	00H
	DD	2 DUP(00H)
	DD	2 DUP(00H)
	DD	00H
	DD	05H
xdata$x	ENDS
;	COMDAT xdata$x
xdata$x	SEGMENT
__ehfuncinfo$??1?$CDynamicPoolEx@VCGravityDecorator@NEffectUpdateDecorator@@@@UAE@XZ DD 019930522H
	DD	00H
	DD	00H
	DD	2 DUP(00H)
	DD	2 DUP(00H)
	DD	00H
	DD	05H
xdata$x	ENDS
;	COMDAT xdata$x
xdata$x	SEGMENT
__ehfuncinfo$??1?$CDynamicPoolEx@VCRotationDecorator@NEffectUpdateDecorator@@@@UAE@XZ DD 019930522H
	DD	00H
	DD	00H
	DD	2 DUP(00H)
	DD	2 DUP(00H)
	DD	00H
	DD	05H
xdata$x	ENDS
;	COMDAT xdata$x
xdata$x	SEGMENT
__unwindtable$?appOpenTextFile@@YAPAU_object@@PAU1@0@Z DD 0ffffffffH
	DD	FLAT:__unwindfunclet$?appOpenTextFile@@YAPAU_object@@PAU1@0@Z$0
__ehfuncinfo$?appOpenTextFile@@YAPAU_object@@PAU1@0@Z DD 019930522H
	DD	01H
	DD	FLAT:__unwindtable$?appOpenTextFile@@YAPAU_object@@PAU1@0@Z
	DD	2 DUP(00H)
	DD	2 DUP(00H)
	DD	00H
	DD	01H
xdata$x	ENDS
;	COMDAT xdata$x
xdata$x	SEGMENT
__unwindtable$??0CTextLineLoader@@QAE@PBD@Z DD 0ffffffffH
	DD	FLAT:__unwindfunclet$??0CTextLineLoader@@QAE@PBD@Z$0
	DD	00H
	DD	FLAT:__unwindfunclet$??0CTextLineLoader@@QAE@PBD@Z$1
__ehfuncinfo$??0CTextLineLoader@@QAE@PBD@Z DD 019930522H
	DD	02H
	DD	FLAT:__unwindtable$??0CTextLineLoader@@QAE@PBD@Z
	DD	2 DUP(00H)
	DD	2 DUP(00H)
	DD	00H
	DD	01H
xdata$x	ENDS
;	COMDAT xdata$x
xdata$x	SEGMENT
__unwindtable$?appGetConnectData@@YAPAU_object@@PAU1@0@Z DD 0ffffffffH
	DD	FLAT:__unwindfunclet$?appGetConnectData@@YAPAU_object@@PAU1@0@Z$0
__ehfuncinfo$?appGetConnectData@@YAPAU_object@@PAU1@0@Z DD 019930522H
	DD	01H
	DD	FLAT:__unwindtable$?appGetConnectData@@YAPAU_object@@PAU1@0@Z
	DD	2 DUP(00H)
	DD	2 DUP(00H)
	DD	00H
	DD	01H
xdata$x	ENDS
;	COMDAT xdata$x
xdata$x	SEGMENT
__unwindtable$?appGetInfo@@YAPAU_object@@PAU1@0@Z DD 0ffffffffH
	DD	FLAT:__unwindfunclet$?appGetInfo@@YAPAU_object@@PAU1@0@Z$0
__ehfuncinfo$?appGetInfo@@YAPAU_object@@PAU1@0@Z DD 019930522H
	DD	01H
	DD	FLAT:__unwindtable$?appGetInfo@@YAPAU_object@@PAU1@0@Z
	DD	2 DUP(00H)
	DD	2 DUP(00H)
	DD	00H
	DD	01H
xdata$x	ENDS
;	COMDAT xdata$x
xdata$x	SEGMENT
__ehfuncinfo$??$_Deallocate@$07$0A@@std@@YAXPAXI@Z DD 019930522H
	DD	00H
	DD	00H
	DD	2 DUP(00H)
	DD	2 DUP(00H)
	DD	00H
	DD	05H
xdata$x	ENDS
;	COMDAT CRT$XCU
CRT$XCU	SEGMENT
??ms_kPool$initializer$@?$CPooledObject@VCNullDecorator@NEffectUpdateDecorator@@@@1P6AXXZA@@3P6AXXZA DD FLAT:??__E?ms_kPool@?$CPooledObject@VCNullDecorator@NEffectUpdateDecorator@@@@1V?$CDynamicPoolEx@VCNullDecorator@NEffectUpdateDecorator@@@@A@@YAXXZ ; ??ms_kPool$initializer$@?$CPooledObject@VCNullDecorator@NEffectUpdateDecorator@@@@1P6AXXZA@@3P6AXXZA
CRT$XCU	ENDS
;	COMDAT CRT$XCU
CRT$XCU	SEGMENT
??ms_kPool$initializer$@?$CPooledObject@VCTextureAnimationCWDecorator@NEffectUpdateDecorator@@@@1P6AXXZA@@3P6AXXZA DD FLAT:??__E?ms_kPool@?$CPooledObject@VCTextureAnimationCWDecorator@NEffectUpdateDecorator@@@@1V?$CDynamicPoolEx@VCTextureAnimationCWDecorator@NEffectUpdateDecorator@@@@A@@YAXXZ ; ??ms_kPool$initializer$@?$CPooledObject@VCTextureAnimationCWDecorator@NEffectUpdateDecorator@@@@1P6AXXZA@@3P6AXXZA
CRT$XCU	ENDS
;	COMDAT CRT$XCU
CRT$XCU	SEGMENT
??ms_kPool$initializer$@?$CPooledObject@VCTextureAnimationCCWDecorator@NEffectUpdateDecorator@@@@1P6AXXZA@@3P6AXXZA DD FLAT:??__E?ms_kPool@?$CPooledObject@VCTextureAnimationCCWDecorator@NEffectUpdateDecorator@@@@1V?$CDynamicPoolEx@VCTextureAnimationCCWDecorator@NEffectUpdateDecorator@@@@A@@YAXXZ ; ??ms_kPool$initializer$@?$CPooledObject@VCTextureAnimationCCWDecorator@NEffectUpdateDecorator@@@@1P6AXXZA@@3P6AXXZA
CRT$XCU	ENDS
;	COMDAT CRT$XCU
CRT$XCU	SEGMENT
??ms_kPool$initializer$@?$CPooledObject@VCTextureAnimationRandomDecorator@NEffectUpdateDecorator@@@@1P6AXXZA@@3P6AXXZA DD FLAT:??__E?ms_kPool@?$CPooledObject@VCTextureAnimationRandomDecorator@NEffectUpdateDecorator@@@@1V?$CDynamicPoolEx@VCTextureAnimationRandomDecorator@NEffectUpdateDecorator@@@@A@@YAXXZ ; ??ms_kPool$initializer$@?$CPooledObject@VCTextureAnimationRandomDecorator@NEffectUpdateDecorator@@@@1P6AXXZA@@3P6AXXZA
CRT$XCU	ENDS
;	COMDAT CRT$XCU
CRT$XCU	SEGMENT
??ms_kPool$initializer$@?$CPooledObject@VCAirResistanceDecorator@NEffectUpdateDecorator@@@@1P6AXXZA@@3P6AXXZA DD FLAT:??__E?ms_kPool@?$CPooledObject@VCAirResistanceDecorator@NEffectUpdateDecorator@@@@1V?$CDynamicPoolEx@VCAirResistanceDecorator@NEffectUpdateDecorator@@@@A@@YAXXZ ; ??ms_kPool$initializer$@?$CPooledObject@VCAirResistanceDecorator@NEffectUpdateDecorator@@@@1P6AXXZA@@3P6AXXZA
CRT$XCU	ENDS
;	COMDAT CRT$XCU
CRT$XCU	SEGMENT
??ms_kPool$initializer$@?$CPooledObject@VCGravityDecorator@NEffectUpdateDecorator@@@@1P6AXXZA@@3P6AXXZA DD FLAT:??__E?ms_kPool@?$CPooledObject@VCGravityDecorator@NEffectUpdateDecorator@@@@1V?$CDynamicPoolEx@VCGravityDecorator@NEffectUpdateDecorator@@@@A@@YAXXZ ; ??ms_kPool$initializer$@?$CPooledObject@VCGravityDecorator@NEffectUpdateDecorator@@@@1P6AXXZA@@3P6AXXZA
CRT$XCU	ENDS
;	COMDAT CRT$XCU
CRT$XCU	SEGMENT
??ms_kPool$initializer$@?$CPooledObject@VCRotationDecorator@NEffectUpdateDecorator@@@@1P6AXXZA@@3P6AXXZA DD FLAT:??__E?ms_kPool@?$CPooledObject@VCRotationDecorator@NEffectUpdateDecorator@@@@1V?$CDynamicPoolEx@VCRotationDecorator@NEffectUpdateDecorator@@@@A@@YAXXZ ; ??ms_kPool$initializer$@?$CPooledObject@VCRotationDecorator@NEffectUpdateDecorator@@@@1P6AXXZA@@3P6AXXZA
CRT$XCU	ENDS
; Function compile flags: /Odspy
;	COMDAT ??__F?ms_kPool@?$CPooledObject@VCRotationDecorator@NEffectUpdateDecorator@@@@1V?$CDynamicPoolEx@VCRotationDecorator@NEffectUpdateDecorator@@@@A@@YAXXZ
text$yd	SEGMENT
??__F?ms_kPool@?$CPooledObject@VCRotationDecorator@NEffectUpdateDecorator@@@@1V?$CDynamicPoolEx@VCRotationDecorator@NEffectUpdateDecorator@@@@A@@YAXXZ PROC ; `dynamic atexit destructor for 'CPooledObject<NEffectUpdateDecorator::CRotationDecorator>::ms_kPool'', COMDAT
  00000	55		 push	 ebp
  00001	8b ec		 mov	 ebp, esp
  00003	b9 00 00 00 00	 mov	 ecx, OFFSET ?ms_kPool@?$CPooledObject@VCRotationDecorator@NEffectUpdateDecorator@@@@1V?$CDynamicPoolEx@VCRotationDecorator@NEffectUpdateDecorator@@@@A ; CPooledObject<NEffectUpdateDecorator::CRotationDecorator>::ms_kPool
  00008	e8 00 00 00 00	 call	 ??1?$CDynamicPoolEx@VCRotationDecorator@NEffectUpdateDecorator@@@@UAE@XZ ; CDynamicPoolEx<NEffectUpdateDecorator::CRotationDecorator>::~CDynamicPoolEx<NEffectUpdateDecorator::CRotationDecorator>
  0000d	5d		 pop	 ebp
  0000e	c3		 ret	 0
??__F?ms_kPool@?$CPooledObject@VCRotationDecorator@NEffectUpdateDecorator@@@@1V?$CDynamicPoolEx@VCRotationDecorator@NEffectUpdateDecorator@@@@A@@YAXXZ ENDP ; `dynamic atexit destructor for 'CPooledObject<NEffectUpdateDecorator::CRotationDecorator>::ms_kPool''
text$yd	ENDS
; Function compile flags: /Odspy
; File D:\Metin2 Server Files\mainline\SRC_2014\Metin2Client\eterLib\Pool.h
;	COMDAT ??__E?ms_kPool@?$CPooledObject@VCRotationDecorator@NEffectUpdateDecorator@@@@1V?$CDynamicPoolEx@VCRotationDecorator@NEffectUpdateDecorator@@@@A@@YAXXZ
text$di	SEGMENT
??__E?ms_kPool@?$CPooledObject@VCRotationDecorator@NEffectUpdateDecorator@@@@1V?$CDynamicPoolEx@VCRotationDecorator@NEffectUpdateDecorator@@@@A@@YAXXZ PROC ; `dynamic initializer for 'CPooledObject<NEffectUpdateDecorator::CRotationDecorator>::ms_kPool'', COMDAT

; 272  : template <class T> CDynamicPoolEx<T> CPooledObject<T>::ms_kPool;

  00000	55		 push	 ebp
  00001	8b ec		 mov	 ebp, esp
  00003	b9 00 00 00 00	 mov	 ecx, OFFSET ?ms_kPool@?$CPooledObject@VCRotationDecorator@NEffectUpdateDecorator@@@@1V?$CDynamicPoolEx@VCRotationDecorator@NEffectUpdateDecorator@@@@A ; CPooledObject<NEffectUpdateDecorator::CRotationDecorator>::ms_kPool
  00008	e8 00 00 00 00	 call	 ??0?$CDynamicPoolEx@VCRotationDecorator@NEffectUpdateDecorator@@@@QAE@XZ ; CDynamicPoolEx<NEffectUpdateDecorator::CRotationDecorator>::CDynamicPoolEx<NEffectUpdateDecorator::CRotationDecorator>
  0000d	68 00 00 00 00	 push	 OFFSET ??__F?ms_kPool@?$CPooledObject@VCRotationDecorator@NEffectUpdateDecorator@@@@1V?$CDynamicPoolEx@VCRotationDecorator@NEffectUpdateDecorator@@@@A@@YAXXZ ; `dynamic atexit destructor for 'CPooledObject<NEffectUpdateDecorator::CRotationDecorator>::ms_kPool''
  00012	e8 00 00 00 00	 call	 _atexit
  00017	59		 pop	 ecx
  00018	5d		 pop	 ebp
  00019	c3		 ret	 0
??__E?ms_kPool@?$CPooledObject@VCRotationDecorator@NEffectUpdateDecorator@@@@1V?$CDynamicPoolEx@VCRotationDecorator@NEffectUpdateDecorator@@@@A@@YAXXZ ENDP ; `dynamic initializer for 'CPooledObject<NEffectUpdateDecorator::CRotationDecorator>::ms_kPool''
text$di	ENDS
; Function compile flags: /Odspy
;	COMDAT ??__F?ms_kPool@?$CPooledObject@VCGravityDecorator@NEffectUpdateDecorator@@@@1V?$CDynamicPoolEx@VCGravityDecorator@NEffectUpdateDecorator@@@@A@@YAXXZ
text$yd	SEGMENT
??__F?ms_kPool@?$CPooledObject@VCGravityDecorator@NEffectUpdateDecorator@@@@1V?$CDynamicPoolEx@VCGravityDecorator@NEffectUpdateDecorator@@@@A@@YAXXZ PROC ; `dynamic atexit destructor for 'CPooledObject<NEffectUpdateDecorator::CGravityDecorator>::ms_kPool'', COMDAT
  00000	55		 push	 ebp
  00001	8b ec		 mov	 ebp, esp
  00003	b9 00 00 00 00	 mov	 ecx, OFFSET ?ms_kPool@?$CPooledObject@VCGravityDecorator@NEffectUpdateDecorator@@@@1V?$CDynamicPoolEx@VCGravityDecorator@NEffectUpdateDecorator@@@@A ; CPooledObject<NEffectUpdateDecorator::CGravityDecorator>::ms_kPool
  00008	e8 00 00 00 00	 call	 ??1?$CDynamicPoolEx@VCGravityDecorator@NEffectUpdateDecorator@@@@UAE@XZ ; CDynamicPoolEx<NEffectUpdateDecorator::CGravityDecorator>::~CDynamicPoolEx<NEffectUpdateDecorator::CGravityDecorator>
  0000d	5d		 pop	 ebp
  0000e	c3		 ret	 0
??__F?ms_kPool@?$CPooledObject@VCGravityDecorator@NEffectUpdateDecorator@@@@1V?$CDynamicPoolEx@VCGravityDecorator@NEffectUpdateDecorator@@@@A@@YAXXZ ENDP ; `dynamic atexit destructor for 'CPooledObject<NEffectUpdateDecorator::CGravityDecorator>::ms_kPool''
text$yd	ENDS
; Function compile flags: /Odspy
; File D:\Metin2 Server Files\mainline\SRC_2014\Metin2Client\eterLib\Pool.h
;	COMDAT ??__E?ms_kPool@?$CPooledObject@VCGravityDecorator@NEffectUpdateDecorator@@@@1V?$CDynamicPoolEx@VCGravityDecorator@NEffectUpdateDecorator@@@@A@@YAXXZ
text$di	SEGMENT
??__E?ms_kPool@?$CPooledObject@VCGravityDecorator@NEffectUpdateDecorator@@@@1V?$CDynamicPoolEx@VCGravityDecorator@NEffectUpdateDecorator@@@@A@@YAXXZ PROC ; `dynamic initializer for 'CPooledObject<NEffectUpdateDecorator::CGravityDecorator>::ms_kPool'', COMDAT

; 272  : template <class T> CDynamicPoolEx<T> CPooledObject<T>::ms_kPool;

  00000	55		 push	 ebp
  00001	8b ec		 mov	 ebp, esp
  00003	b9 00 00 00 00	 mov	 ecx, OFFSET ?ms_kPool@?$CPooledObject@VCGravityDecorator@NEffectUpdateDecorator@@@@1V?$CDynamicPoolEx@VCGravityDecorator@NEffectUpdateDecorator@@@@A ; CPooledObject<NEffectUpdateDecorator::CGravityDecorator>::ms_kPool
  00008	e8 00 00 00 00	 call	 ??0?$CDynamicPoolEx@VCGravityDecorator@NEffectUpdateDecorator@@@@QAE@XZ ; CDynamicPoolEx<NEffectUpdateDecorator::CGravityDecorator>::CDynamicPoolEx<NEffectUpdateDecorator::CGravityDecorator>
  0000d	68 00 00 00 00	 push	 OFFSET ??__F?ms_kPool@?$CPooledObject@VCGravityDecorator@NEffectUpdateDecorator@@@@1V?$CDynamicPoolEx@VCGravityDecorator@NEffectUpdateDecorator@@@@A@@YAXXZ ; `dynamic atexit destructor for 'CPooledObject<NEffectUpdateDecorator::CGravityDecorator>::ms_kPool''
  00012	e8 00 00 00 00	 call	 _atexit
  00017	59		 pop	 ecx
  00018	5d		 pop	 ebp
  00019	c3		 ret	 0
??__E?ms_kPool@?$CPooledObject@VCGravityDecorator@NEffectUpdateDecorator@@@@1V?$CDynamicPoolEx@VCGravityDecorator@NEffectUpdateDecorator@@@@A@@YAXXZ ENDP ; `dynamic initializer for 'CPooledObject<NEffectUpdateDecorator::CGravityDecorator>::ms_kPool''
text$di	ENDS
; Function compile flags: /Odspy
;	COMDAT ??__F?ms_kPool@?$CPooledObject@VCAirResistanceDecorator@NEffectUpdateDecorator@@@@1V?$CDynamicPoolEx@VCAirResistanceDecorator@NEffectUpdateDecorator@@@@A@@YAXXZ
text$yd	SEGMENT
??__F?ms_kPool@?$CPooledObject@VCAirResistanceDecorator@NEffectUpdateDecorator@@@@1V?$CDynamicPoolEx@VCAirResistanceDecorator@NEffectUpdateDecorator@@@@A@@YAXXZ PROC ; `dynamic atexit destructor for 'CPooledObject<NEffectUpdateDecorator::CAirResistanceDecorator>::ms_kPool'', COMDAT
  00000	55		 push	 ebp
  00001	8b ec		 mov	 ebp, esp
  00003	b9 00 00 00 00	 mov	 ecx, OFFSET ?ms_kPool@?$CPooledObject@VCAirResistanceDecorator@NEffectUpdateDecorator@@@@1V?$CDynamicPoolEx@VCAirResistanceDecorator@NEffectUpdateDecorator@@@@A ; CPooledObject<NEffectUpdateDecorator::CAirResistanceDecorator>::ms_kPool
  00008	e8 00 00 00 00	 call	 ??1?$CDynamicPoolEx@VCAirResistanceDecorator@NEffectUpdateDecorator@@@@UAE@XZ ; CDynamicPoolEx<NEffectUpdateDecorator::CAirResistanceDecorator>::~CDynamicPoolEx<NEffectUpdateDecorator::CAirResistanceDecorator>
  0000d	5d		 pop	 ebp
  0000e	c3		 ret	 0
??__F?ms_kPool@?$CPooledObject@VCAirResistanceDecorator@NEffectUpdateDecorator@@@@1V?$CDynamicPoolEx@VCAirResistanceDecorator@NEffectUpdateDecorator@@@@A@@YAXXZ ENDP ; `dynamic atexit destructor for 'CPooledObject<NEffectUpdateDecorator::CAirResistanceDecorator>::ms_kPool''
text$yd	ENDS
; Function compile flags: /Odspy
; File D:\Metin2 Server Files\mainline\SRC_2014\Metin2Client\eterLib\Pool.h
;	COMDAT ??__E?ms_kPool@?$CPooledObject@VCAirResistanceDecorator@NEffectUpdateDecorator@@@@1V?$CDynamicPoolEx@VCAirResistanceDecorator@NEffectUpdateDecorator@@@@A@@YAXXZ
text$di	SEGMENT
??__E?ms_kPool@?$CPooledObject@VCAirResistanceDecorator@NEffectUpdateDecorator@@@@1V?$CDynamicPoolEx@VCAirResistanceDecorator@NEffectUpdateDecorator@@@@A@@YAXXZ PROC ; `dynamic initializer for 'CPooledObject<NEffectUpdateDecorator::CAirResistanceDecorator>::ms_kPool'', COMDAT

; 272  : template <class T> CDynamicPoolEx<T> CPooledObject<T>::ms_kPool;

  00000	55		 push	 ebp
  00001	8b ec		 mov	 ebp, esp
  00003	b9 00 00 00 00	 mov	 ecx, OFFSET ?ms_kPool@?$CPooledObject@VCAirResistanceDecorator@NEffectUpdateDecorator@@@@1V?$CDynamicPoolEx@VCAirResistanceDecorator@NEffectUpdateDecorator@@@@A ; CPooledObject<NEffectUpdateDecorator::CAirResistanceDecorator>::ms_kPool
  00008	e8 00 00 00 00	 call	 ??0?$CDynamicPoolEx@VCAirResistanceDecorator@NEffectUpdateDecorator@@@@QAE@XZ ; CDynamicPoolEx<NEffectUpdateDecorator::CAirResistanceDecorator>::CDynamicPoolEx<NEffectUpdateDecorator::CAirResistanceDecorator>
  0000d	68 00 00 00 00	 push	 OFFSET ??__F?ms_kPool@?$CPooledObject@VCAirResistanceDecorator@NEffectUpdateDecorator@@@@1V?$CDynamicPoolEx@VCAirResistanceDecorator@NEffectUpdateDecorator@@@@A@@YAXXZ ; `dynamic atexit destructor for 'CPooledObject<NEffectUpdateDecorator::CAirResistanceDecorator>::ms_kPool''
  00012	e8 00 00 00 00	 call	 _atexit
  00017	59		 pop	 ecx
  00018	5d		 pop	 ebp
  00019	c3		 ret	 0
??__E?ms_kPool@?$CPooledObject@VCAirResistanceDecorator@NEffectUpdateDecorator@@@@1V?$CDynamicPoolEx@VCAirResistanceDecorator@NEffectUpdateDecorator@@@@A@@YAXXZ ENDP ; `dynamic initializer for 'CPooledObject<NEffectUpdateDecorator::CAirResistanceDecorator>::ms_kPool''
text$di	ENDS
; Function compile flags: /Odspy
;	COMDAT ??__F?ms_kPool@?$CPooledObject@VCTextureAnimationRandomDecorator@NEffectUpdateDecorator@@@@1V?$CDynamicPoolEx@VCTextureAnimationRandomDecorator@NEffectUpdateDecorator@@@@A@@YAXXZ
text$yd	SEGMENT
??__F?ms_kPool@?$CPooledObject@VCTextureAnimationRandomDecorator@NEffectUpdateDecorator@@@@1V?$CDynamicPoolEx@VCTextureAnimationRandomDecorator@NEffectUpdateDecorator@@@@A@@YAXXZ PROC ; `dynamic atexit destructor for 'CPooledObject<NEffectUpdateDecorator::CTextureAnimationRandomDecorator>::ms_kPool'', COMDAT
  00000	55		 push	 ebp
  00001	8b ec		 mov	 ebp, esp
  00003	b9 00 00 00 00	 mov	 ecx, OFFSET ?ms_kPool@?$CPooledObject@VCTextureAnimationRandomDecorator@NEffectUpdateDecorator@@@@1V?$CDynamicPoolEx@VCTextureAnimationRandomDecorator@NEffectUpdateDecorator@@@@A ; CPooledObject<NEffectUpdateDecorator::CTextureAnimationRandomDecorator>::ms_kPool
  00008	e8 00 00 00 00	 call	 ??1?$CDynamicPoolEx@VCTextureAnimationRandomDecorator@NEffectUpdateDecorator@@@@UAE@XZ ; CDynamicPoolEx<NEffectUpdateDecorator::CTextureAnimationRandomDecorator>::~CDynamicPoolEx<NEffectUpdateDecorator::CTextureAnimationRandomDecorator>
  0000d	5d		 pop	 ebp
  0000e	c3		 ret	 0
??__F?ms_kPool@?$CPooledObject@VCTextureAnimationRandomDecorator@NEffectUpdateDecorator@@@@1V?$CDynamicPoolEx@VCTextureAnimationRandomDecorator@NEffectUpdateDecorator@@@@A@@YAXXZ ENDP ; `dynamic atexit destructor for 'CPooledObject<NEffectUpdateDecorator::CTextureAnimationRandomDecorator>::ms_kPool''
text$yd	ENDS
; Function compile flags: /Odspy
; File D:\Metin2 Server Files\mainline\SRC_2014\Metin2Client\eterLib\Pool.h
;	COMDAT ??__E?ms_kPool@?$CPooledObject@VCTextureAnimationRandomDecorator@NEffectUpdateDecorator@@@@1V?$CDynamicPoolEx@VCTextureAnimationRandomDecorator@NEffectUpdateDecorator@@@@A@@YAXXZ
text$di	SEGMENT
??__E?ms_kPool@?$CPooledObject@VCTextureAnimationRandomDecorator@NEffectUpdateDecorator@@@@1V?$CDynamicPoolEx@VCTextureAnimationRandomDecorator@NEffectUpdateDecorator@@@@A@@YAXXZ PROC ; `dynamic initializer for 'CPooledObject<NEffectUpdateDecorator::CTextureAnimationRandomDecorator>::ms_kPool'', COMDAT

; 272  : template <class T> CDynamicPoolEx<T> CPooledObject<T>::ms_kPool;

  00000	55		 push	 ebp
  00001	8b ec		 mov	 ebp, esp
  00003	b9 00 00 00 00	 mov	 ecx, OFFSET ?ms_kPool@?$CPooledObject@VCTextureAnimationRandomDecorator@NEffectUpdateDecorator@@@@1V?$CDynamicPoolEx@VCTextureAnimationRandomDecorator@NEffectUpdateDecorator@@@@A ; CPooledObject<NEffectUpdateDecorator::CTextureAnimationRandomDecorator>::ms_kPool
  00008	e8 00 00 00 00	 call	 ??0?$CDynamicPoolEx@VCTextureAnimationRandomDecorator@NEffectUpdateDecorator@@@@QAE@XZ ; CDynamicPoolEx<NEffectUpdateDecorator::CTextureAnimationRandomDecorator>::CDynamicPoolEx<NEffectUpdateDecorator::CTextureAnimationRandomDecorator>
  0000d	68 00 00 00 00	 push	 OFFSET ??__F?ms_kPool@?$CPooledObject@VCTextureAnimationRandomDecorator@NEffectUpdateDecorator@@@@1V?$CDynamicPoolEx@VCTextureAnimationRandomDecorator@NEffectUpdateDecorator@@@@A@@YAXXZ ; `dynamic atexit destructor for 'CPooledObject<NEffectUpdateDecorator::CTextureAnimationRandomDecorator>::ms_kPool''
  00012	e8 00 00 00 00	 call	 _atexit
  00017	59		 pop	 ecx
  00018	5d		 pop	 ebp
  00019	c3		 ret	 0
??__E?ms_kPool@?$CPooledObject@VCTextureAnimationRandomDecorator@NEffectUpdateDecorator@@@@1V?$CDynamicPoolEx@VCTextureAnimationRandomDecorator@NEffectUpdateDecorator@@@@A@@YAXXZ ENDP ; `dynamic initializer for 'CPooledObject<NEffectUpdateDecorator::CTextureAnimationRandomDecorator>::ms_kPool''
text$di	ENDS
; Function compile flags: /Odspy
;	COMDAT ??__F?ms_kPool@?$CPooledObject@VCTextureAnimationCCWDecorator@NEffectUpdateDecorator@@@@1V?$CDynamicPoolEx@VCTextureAnimationCCWDecorator@NEffectUpdateDecorator@@@@A@@YAXXZ
text$yd	SEGMENT
??__F?ms_kPool@?$CPooledObject@VCTextureAnimationCCWDecorator@NEffectUpdateDecorator@@@@1V?$CDynamicPoolEx@VCTextureAnimationCCWDecorator@NEffectUpdateDecorator@@@@A@@YAXXZ PROC ; `dynamic atexit destructor for 'CPooledObject<NEffectUpdateDecorator::CTextureAnimationCCWDecorator>::ms_kPool'', COMDAT
  00000	55		 push	 ebp
  00001	8b ec		 mov	 ebp, esp
  00003	b9 00 00 00 00	 mov	 ecx, OFFSET ?ms_kPool@?$CPooledObject@VCTextureAnimationCCWDecorator@NEffectUpdateDecorator@@@@1V?$CDynamicPoolEx@VCTextureAnimationCCWDecorator@NEffectUpdateDecorator@@@@A ; CPooledObject<NEffectUpdateDecorator::CTextureAnimationCCWDecorator>::ms_kPool
  00008	e8 00 00 00 00	 call	 ??1?$CDynamicPoolEx@VCTextureAnimationCCWDecorator@NEffectUpdateDecorator@@@@UAE@XZ ; CDynamicPoolEx<NEffectUpdateDecorator::CTextureAnimationCCWDecorator>::~CDynamicPoolEx<NEffectUpdateDecorator::CTextureAnimationCCWDecorator>
  0000d	5d		 pop	 ebp
  0000e	c3		 ret	 0
??__F?ms_kPool@?$CPooledObject@VCTextureAnimationCCWDecorator@NEffectUpdateDecorator@@@@1V?$CDynamicPoolEx@VCTextureAnimationCCWDecorator@NEffectUpdateDecorator@@@@A@@YAXXZ ENDP ; `dynamic atexit destructor for 'CPooledObject<NEffectUpdateDecorator::CTextureAnimationCCWDecorator>::ms_kPool''
text$yd	ENDS
; Function compile flags: /Odspy
; File D:\Metin2 Server Files\mainline\SRC_2014\Metin2Client\eterLib\Pool.h
;	COMDAT ??__E?ms_kPool@?$CPooledObject@VCTextureAnimationCCWDecorator@NEffectUpdateDecorator@@@@1V?$CDynamicPoolEx@VCTextureAnimationCCWDecorator@NEffectUpdateDecorator@@@@A@@YAXXZ
text$di	SEGMENT
??__E?ms_kPool@?$CPooledObject@VCTextureAnimationCCWDecorator@NEffectUpdateDecorator@@@@1V?$CDynamicPoolEx@VCTextureAnimationCCWDecorator@NEffectUpdateDecorator@@@@A@@YAXXZ PROC ; `dynamic initializer for 'CPooledObject<NEffectUpdateDecorator::CTextureAnimationCCWDecorator>::ms_kPool'', COMDAT

; 272  : template <class T> CDynamicPoolEx<T> CPooledObject<T>::ms_kPool;

  00000	55		 push	 ebp
  00001	8b ec		 mov	 ebp, esp
  00003	b9 00 00 00 00	 mov	 ecx, OFFSET ?ms_kPool@?$CPooledObject@VCTextureAnimationCCWDecorator@NEffectUpdateDecorator@@@@1V?$CDynamicPoolEx@VCTextureAnimationCCWDecorator@NEffectUpdateDecorator@@@@A ; CPooledObject<NEffectUpdateDecorator::CTextureAnimationCCWDecorator>::ms_kPool
  00008	e8 00 00 00 00	 call	 ??0?$CDynamicPoolEx@VCTextureAnimationCCWDecorator@NEffectUpdateDecorator@@@@QAE@XZ ; CDynamicPoolEx<NEffectUpdateDecorator::CTextureAnimationCCWDecorator>::CDynamicPoolEx<NEffectUpdateDecorator::CTextureAnimationCCWDecorator>
  0000d	68 00 00 00 00	 push	 OFFSET ??__F?ms_kPool@?$CPooledObject@VCTextureAnimationCCWDecorator@NEffectUpdateDecorator@@@@1V?$CDynamicPoolEx@VCTextureAnimationCCWDecorator@NEffectUpdateDecorator@@@@A@@YAXXZ ; `dynamic atexit destructor for 'CPooledObject<NEffectUpdateDecorator::CTextureAnimationCCWDecorator>::ms_kPool''
  00012	e8 00 00 00 00	 call	 _atexit
  00017	59		 pop	 ecx
  00018	5d		 pop	 ebp
  00019	c3		 ret	 0
??__E?ms_kPool@?$CPooledObject@VCTextureAnimationCCWDecorator@NEffectUpdateDecorator@@@@1V?$CDynamicPoolEx@VCTextureAnimationCCWDecorator@NEffectUpdateDecorator@@@@A@@YAXXZ ENDP ; `dynamic initializer for 'CPooledObject<NEffectUpdateDecorator::CTextureAnimationCCWDecorator>::ms_kPool''
text$di	ENDS
; Function compile flags: /Odspy
;	COMDAT ??__F?ms_kPool@?$CPooledObject@VCTextureAnimationCWDecorator@NEffectUpdateDecorator@@@@1V?$CDynamicPoolEx@VCTextureAnimationCWDecorator@NEffectUpdateDecorator@@@@A@@YAXXZ
text$yd	SEGMENT
??__F?ms_kPool@?$CPooledObject@VCTextureAnimationCWDecorator@NEffectUpdateDecorator@@@@1V?$CDynamicPoolEx@VCTextureAnimationCWDecorator@NEffectUpdateDecorator@@@@A@@YAXXZ PROC ; `dynamic atexit destructor for 'CPooledObject<NEffectUpdateDecorator::CTextureAnimationCWDecorator>::ms_kPool'', COMDAT
  00000	55		 push	 ebp
  00001	8b ec		 mov	 ebp, esp
  00003	b9 00 00 00 00	 mov	 ecx, OFFSET ?ms_kPool@?$CPooledObject@VCTextureAnimationCWDecorator@NEffectUpdateDecorator@@@@1V?$CDynamicPoolEx@VCTextureAnimationCWDecorator@NEffectUpdateDecorator@@@@A ; CPooledObject<NEffectUpdateDecorator::CTextureAnimationCWDecorator>::ms_kPool
  00008	e8 00 00 00 00	 call	 ??1?$CDynamicPoolEx@VCTextureAnimationCWDecorator@NEffectUpdateDecorator@@@@UAE@XZ ; CDynamicPoolEx<NEffectUpdateDecorator::CTextureAnimationCWDecorator>::~CDynamicPoolEx<NEffectUpdateDecorator::CTextureAnimationCWDecorator>
  0000d	5d		 pop	 ebp
  0000e	c3		 ret	 0
??__F?ms_kPool@?$CPooledObject@VCTextureAnimationCWDecorator@NEffectUpdateDecorator@@@@1V?$CDynamicPoolEx@VCTextureAnimationCWDecorator@NEffectUpdateDecorator@@@@A@@YAXXZ ENDP ; `dynamic atexit destructor for 'CPooledObject<NEffectUpdateDecorator::CTextureAnimationCWDecorator>::ms_kPool''
text$yd	ENDS
; Function compile flags: /Odspy
; File D:\Metin2 Server Files\mainline\SRC_2014\Metin2Client\eterLib\Pool.h
;	COMDAT ??__E?ms_kPool@?$CPooledObject@VCTextureAnimationCWDecorator@NEffectUpdateDecorator@@@@1V?$CDynamicPoolEx@VCTextureAnimationCWDecorator@NEffectUpdateDecorator@@@@A@@YAXXZ
text$di	SEGMENT
??__E?ms_kPool@?$CPooledObject@VCTextureAnimationCWDecorator@NEffectUpdateDecorator@@@@1V?$CDynamicPoolEx@VCTextureAnimationCWDecorator@NEffectUpdateDecorator@@@@A@@YAXXZ PROC ; `dynamic initializer for 'CPooledObject<NEffectUpdateDecorator::CTextureAnimationCWDecorator>::ms_kPool'', COMDAT

; 272  : template <class T> CDynamicPoolEx<T> CPooledObject<T>::ms_kPool;

  00000	55		 push	 ebp
  00001	8b ec		 mov	 ebp, esp
  00003	b9 00 00 00 00	 mov	 ecx, OFFSET ?ms_kPool@?$CPooledObject@VCTextureAnimationCWDecorator@NEffectUpdateDecorator@@@@1V?$CDynamicPoolEx@VCTextureAnimationCWDecorator@NEffectUpdateDecorator@@@@A ; CPooledObject<NEffectUpdateDecorator::CTextureAnimationCWDecorator>::ms_kPool
  00008	e8 00 00 00 00	 call	 ??0?$CDynamicPoolEx@VCTextureAnimationCWDecorator@NEffectUpdateDecorator@@@@QAE@XZ ; CDynamicPoolEx<NEffectUpdateDecorator::CTextureAnimationCWDecorator>::CDynamicPoolEx<NEffectUpdateDecorator::CTextureAnimationCWDecorator>
  0000d	68 00 00 00 00	 push	 OFFSET ??__F?ms_kPool@?$CPooledObject@VCTextureAnimationCWDecorator@NEffectUpdateDecorator@@@@1V?$CDynamicPoolEx@VCTextureAnimationCWDecorator@NEffectUpdateDecorator@@@@A@@YAXXZ ; `dynamic atexit destructor for 'CPooledObject<NEffectUpdateDecorator::CTextureAnimationCWDecorator>::ms_kPool''
  00012	e8 00 00 00 00	 call	 _atexit
  00017	59		 pop	 ecx
  00018	5d		 pop	 ebp
  00019	c3		 ret	 0
??__E?ms_kPool@?$CPooledObject@VCTextureAnimationCWDecorator@NEffectUpdateDecorator@@@@1V?$CDynamicPoolEx@VCTextureAnimationCWDecorator@NEffectUpdateDecorator@@@@A@@YAXXZ ENDP ; `dynamic initializer for 'CPooledObject<NEffectUpdateDecorator::CTextureAnimationCWDecorator>::ms_kPool''
text$di	ENDS
; Function compile flags: /Odspy
;	COMDAT ??__F?ms_kPool@?$CPooledObject@VCNullDecorator@NEffectUpdateDecorator@@@@1V?$CDynamicPoolEx@VCNullDecorator@NEffectUpdateDecorator@@@@A@@YAXXZ
text$yd	SEGMENT
??__F?ms_kPool@?$CPooledObject@VCNullDecorator@NEffectUpdateDecorator@@@@1V?$CDynamicPoolEx@VCNullDecorator@NEffectUpdateDecorator@@@@A@@YAXXZ PROC ; `dynamic atexit destructor for 'CPooledObject<NEffectUpdateDecorator::CNullDecorator>::ms_kPool'', COMDAT
  00000	55		 push	 ebp
  00001	8b ec		 mov	 ebp, esp
  00003	b9 00 00 00 00	 mov	 ecx, OFFSET ?ms_kPool@?$CPooledObject@VCNullDecorator@NEffectUpdateDecorator@@@@1V?$CDynamicPoolEx@VCNullDecorator@NEffectUpdateDecorator@@@@A ; CPooledObject<NEffectUpdateDecorator::CNullDecorator>::ms_kPool
  00008	e8 00 00 00 00	 call	 ??1?$CDynamicPoolEx@VCNullDecorator@NEffectUpdateDecorator@@@@UAE@XZ ; CDynamicPoolEx<NEffectUpdateDecorator::CNullDecorator>::~CDynamicPoolEx<NEffectUpdateDecorator::CNullDecorator>
  0000d	5d		 pop	 ebp
  0000e	c3		 ret	 0
??__F?ms_kPool@?$CPooledObject@VCNullDecorator@NEffectUpdateDecorator@@@@1V?$CDynamicPoolEx@VCNullDecorator@NEffectUpdateDecorator@@@@A@@YAXXZ ENDP ; `dynamic atexit destructor for 'CPooledObject<NEffectUpdateDecorator::CNullDecorator>::ms_kPool''
text$yd	ENDS
; Function compile flags: /Odspy
; File D:\Metin2 Server Files\mainline\SRC_2014\Metin2Client\eterLib\Pool.h
;	COMDAT ??__E?ms_kPool@?$CPooledObject@VCNullDecorator@NEffectUpdateDecorator@@@@1V?$CDynamicPoolEx@VCNullDecorator@NEffectUpdateDecorator@@@@A@@YAXXZ
text$di	SEGMENT
??__E?ms_kPool@?$CPooledObject@VCNullDecorator@NEffectUpdateDecorator@@@@1V?$CDynamicPoolEx@VCNullDecorator@NEffectUpdateDecorator@@@@A@@YAXXZ PROC ; `dynamic initializer for 'CPooledObject<NEffectUpdateDecorator::CNullDecorator>::ms_kPool'', COMDAT

; 272  : template <class T> CDynamicPoolEx<T> CPooledObject<T>::ms_kPool;

  00000	55		 push	 ebp
  00001	8b ec		 mov	 ebp, esp
  00003	b9 00 00 00 00	 mov	 ecx, OFFSET ?ms_kPool@?$CPooledObject@VCNullDecorator@NEffectUpdateDecorator@@@@1V?$CDynamicPoolEx@VCNullDecorator@NEffectUpdateDecorator@@@@A ; CPooledObject<NEffectUpdateDecorator::CNullDecorator>::ms_kPool
  00008	e8 00 00 00 00	 call	 ??0?$CDynamicPoolEx@VCNullDecorator@NEffectUpdateDecorator@@@@QAE@XZ ; CDynamicPoolEx<NEffectUpdateDecorator::CNullDecorator>::CDynamicPoolEx<NEffectUpdateDecorator::CNullDecorator>
  0000d	68 00 00 00 00	 push	 OFFSET ??__F?ms_kPool@?$CPooledObject@VCNullDecorator@NEffectUpdateDecorator@@@@1V?$CDynamicPoolEx@VCNullDecorator@NEffectUpdateDecorator@@@@A@@YAXXZ ; `dynamic atexit destructor for 'CPooledObject<NEffectUpdateDecorator::CNullDecorator>::ms_kPool''
  00012	e8 00 00 00 00	 call	 _atexit
  00017	59		 pop	 ecx
  00018	5d		 pop	 ebp
  00019	c3		 ret	 0
??__E?ms_kPool@?$CPooledObject@VCNullDecorator@NEffectUpdateDecorator@@@@1V?$CDynamicPoolEx@VCNullDecorator@NEffectUpdateDecorator@@@@A@@YAXXZ ENDP ; `dynamic initializer for 'CPooledObject<NEffectUpdateDecorator::CNullDecorator>::ms_kPool''
text$di	ENDS
; Function compile flags: /Odspy
;	COMDAT ??__F?ms_kPool@?$CPooledObject@VCHeaderDecorator@NEffectUpdateDecorator@@@@1V?$CDynamicPoolEx@VCHeaderDecorator@NEffectUpdateDecorator@@@@A@@YAXXZ
text$yd	SEGMENT
??__F?ms_kPool@?$CPooledObject@VCHeaderDecorator@NEffectUpdateDecorator@@@@1V?$CDynamicPoolEx@VCHeaderDecorator@NEffectUpdateDecorator@@@@A@@YAXXZ PROC ; `dynamic atexit destructor for 'CPooledObject<NEffectUpdateDecorator::CHeaderDecorator>::ms_kPool'', COMDAT
  00000	55		 push	 ebp
  00001	8b ec		 mov	 ebp, esp
  00003	b9 00 00 00 00	 mov	 ecx, OFFSET ?ms_kPool@?$CPooledObject@VCHeaderDecorator@NEffectUpdateDecorator@@@@1V?$CDynamicPoolEx@VCHeaderDecorator@NEffectUpdateDecorator@@@@A ; CPooledObject<NEffectUpdateDecorator::CHeaderDecorator>::ms_kPool
  00008	e8 00 00 00 00	 call	 ??1?$CDynamicPoolEx@VCHeaderDecorator@NEffectUpdateDecorator@@@@UAE@XZ ; CDynamicPoolEx<NEffectUpdateDecorator::CHeaderDecorator>::~CDynamicPoolEx<NEffectUpdateDecorator::CHeaderDecorator>
  0000d	5d		 pop	 ebp
  0000e	c3		 ret	 0
??__F?ms_kPool@?$CPooledObject@VCHeaderDecorator@NEffectUpdateDecorator@@@@1V?$CDynamicPoolEx@VCHeaderDecorator@NEffectUpdateDecorator@@@@A@@YAXXZ ENDP ; `dynamic atexit destructor for 'CPooledObject<NEffectUpdateDecorator::CHeaderDecorator>::ms_kPool''
text$yd	ENDS
; Function compile flags: /Odspy
; File D:\Metin2 Server Files\mainline\SRC_2014\Metin2Client\eterLib\Pool.h
;	COMDAT ??__E?ms_kPool@?$CPooledObject@VCHeaderDecorator@NEffectUpdateDecorator@@@@1V?$CDynamicPoolEx@VCHeaderDecorator@NEffectUpdateDecorator@@@@A@@YAXXZ
text$di	SEGMENT
??__E?ms_kPool@?$CPooledObject@VCHeaderDecorator@NEffectUpdateDecorator@@@@1V?$CDynamicPoolEx@VCHeaderDecorator@NEffectUpdateDecorator@@@@A@@YAXXZ PROC ; `dynamic initializer for 'CPooledObject<NEffectUpdateDecorator::CHeaderDecorator>::ms_kPool'', COMDAT

; 272  : template <class T> CDynamicPoolEx<T> CPooledObject<T>::ms_kPool;

  00000	55		 push	 ebp
  00001	8b ec		 mov	 ebp, esp
  00003	b9 00 00 00 00	 mov	 ecx, OFFSET ?ms_kPool@?$CPooledObject@VCHeaderDecorator@NEffectUpdateDecorator@@@@1V?$CDynamicPoolEx@VCHeaderDecorator@NEffectUpdateDecorator@@@@A ; CPooledObject<NEffectUpdateDecorator::CHeaderDecorator>::ms_kPool
  00008	e8 00 00 00 00	 call	 ??0?$CDynamicPoolEx@VCHeaderDecorator@NEffectUpdateDecorator@@@@QAE@XZ ; CDynamicPoolEx<NEffectUpdateDecorator::CHeaderDecorator>::CDynamicPoolEx<NEffectUpdateDecorator::CHeaderDecorator>
  0000d	68 00 00 00 00	 push	 OFFSET ??__F?ms_kPool@?$CPooledObject@VCHeaderDecorator@NEffectUpdateDecorator@@@@1V?$CDynamicPoolEx@VCHeaderDecorator@NEffectUpdateDecorator@@@@A@@YAXXZ ; `dynamic atexit destructor for 'CPooledObject<NEffectUpdateDecorator::CHeaderDecorator>::ms_kPool''
  00012	e8 00 00 00 00	 call	 _atexit
  00017	59		 pop	 ecx
  00018	5d		 pop	 ebp
  00019	c3		 ret	 0
??__E?ms_kPool@?$CPooledObject@VCHeaderDecorator@NEffectUpdateDecorator@@@@1V?$CDynamicPoolEx@VCHeaderDecorator@NEffectUpdateDecorator@@@@A@@YAXXZ ENDP ; `dynamic initializer for 'CPooledObject<NEffectUpdateDecorator::CHeaderDecorator>::ms_kPool''
text$di	ENDS
; Function compile flags: /Odspy
; File C:\Program Files (x86)\Microsoft Visual Studio\2019\Community\VC\Tools\MSVC\14.28.29333\include\xmemory
;	COMDAT ??$_Destroy_range@V?$allocator@PAVCRotationDecorator@NEffectUpdateDecorator@@@std@@@std@@YAXPAPAVCRotationDecorator@NEffectUpdateDecorator@@QAPAV12@AAV?$allocator@PAVCRotationDecorator@NEffectUpdateDecorator@@@0@@Z
_TEXT	SEGMENT
__First$ = 8						; size = 4
__Last$ = 12						; size = 4
__Al$ = 16						; size = 4
??$_Destroy_range@V?$allocator@PAVCRotationDecorator@NEffectUpdateDecorator@@@std@@@std@@YAXPAPAVCRotationDecorator@NEffectUpdateDecorator@@QAPAV12@AAV?$allocator@PAVCRotationDecorator@NEffectUpdateDecorator@@@0@@Z PROC ; std::_Destroy_range<std::allocator<NEffectUpdateDecorator::CRotationDecorator *> >, COMDAT

; 962  :     _Alloc_ptr_t<_Alloc> _First, const _Alloc_ptr_t<_Alloc> _Last, _Alloc& _Al) noexcept {

  00000	55		 push	 ebp
  00001	8b ec		 mov	 ebp, esp

; 963  :     // note that this is an optimization for debug mode codegen; in release mode the BE removes all of this
; 964  :     using _Ty = typename _Alloc::value_type;
; 965  :     if _CONSTEXPR_IF (!conjunction_v<is_trivially_destructible<_Ty>, _Uses_default_destroy<_Alloc, _Ty*>>) {
; 966  :         for (; _First != _Last; ++_First) {
; 967  :             allocator_traits<_Alloc>::destroy(_Al, _Unfancy(_First));
; 968  :         }
; 969  :     }
; 970  : }

  00003	5d		 pop	 ebp
  00004	c3		 ret	 0
??$_Destroy_range@V?$allocator@PAVCRotationDecorator@NEffectUpdateDecorator@@@std@@@std@@YAXPAPAVCRotationDecorator@NEffectUpdateDecorator@@QAPAV12@AAV?$allocator@PAVCRotationDecorator@NEffectUpdateDecorator@@@0@@Z ENDP ; std::_Destroy_range<std::allocator<NEffectUpdateDecorator::CRotationDecorator *> >
_TEXT	ENDS
; Function compile flags: /Odspy
; File C:\Program Files (x86)\Microsoft Visual Studio\2019\Community\VC\Tools\MSVC\14.28.29333\include\xmemory
;	COMDAT ??$_Destroy_range@V?$allocator@PAVCGravityDecorator@NEffectUpdateDecorator@@@std@@@std@@YAXPAPAVCGravityDecorator@NEffectUpdateDecorator@@QAPAV12@AAV?$allocator@PAVCGravityDecorator@NEffectUpdateDecorator@@@0@@Z
_TEXT	SEGMENT
__First$ = 8						; size = 4
__Last$ = 12						; size = 4
__Al$ = 16						; size = 4
??$_Destroy_range@V?$allocator@PAVCGravityDecorator@NEffectUpdateDecorator@@@std@@@std@@YAXPAPAVCGravityDecorator@NEffectUpdateDecorator@@QAPAV12@AAV?$allocator@PAVCGravityDecorator@NEffectUpdateDecorator@@@0@@Z PROC ; std::_Destroy_range<std::allocator<NEffectUpdateDecorator::CGravityDecorator *> >, COMDAT

; 962  :     _Alloc_ptr_t<_Alloc> _First, const _Alloc_ptr_t<_Alloc> _Last, _Alloc& _Al) noexcept {

  00000	55		 push	 ebp
  00001	8b ec		 mov	 ebp, esp

; 963  :     // note that this is an optimization for debug mode codegen; in release mode the BE removes all of this
; 964  :     using _Ty = typename _Alloc::value_type;
; 965  :     if _CONSTEXPR_IF (!conjunction_v<is_trivially_destructible<_Ty>, _Uses_default_destroy<_Alloc, _Ty*>>) {
; 966  :         for (; _First != _Last; ++_First) {
; 967  :             allocator_traits<_Alloc>::destroy(_Al, _Unfancy(_First));
; 968  :         }
; 969  :     }
; 970  : }

  00003	5d		 pop	 ebp
  00004	c3		 ret	 0
??$_Destroy_range@V?$allocator@PAVCGravityDecorator@NEffectUpdateDecorator@@@std@@@std@@YAXPAPAVCGravityDecorator@NEffectUpdateDecorator@@QAPAV12@AAV?$allocator@PAVCGravityDecorator@NEffectUpdateDecorator@@@0@@Z ENDP ; std::_Destroy_range<std::allocator<NEffectUpdateDecorator::CGravityDecorator *> >
_TEXT	ENDS
; Function compile flags: /Odspy
; File C:\Program Files (x86)\Microsoft Visual Studio\2019\Community\VC\Tools\MSVC\14.28.29333\include\xmemory
;	COMDAT ??$_Destroy_range@V?$allocator@PAVCAirResistanceDecorator@NEffectUpdateDecorator@@@std@@@std@@YAXPAPAVCAirResistanceDecorator@NEffectUpdateDecorator@@QAPAV12@AAV?$allocator@PAVCAirResistanceDecorator@NEffectUpdateDecorator@@@0@@Z
_TEXT	SEGMENT
__First$ = 8						; size = 4
__Last$ = 12						; size = 4
__Al$ = 16						; size = 4
??$_Destroy_range@V?$allocator@PAVCAirResistanceDecorator@NEffectUpdateDecorator@@@std@@@std@@YAXPAPAVCAirResistanceDecorator@NEffectUpdateDecorator@@QAPAV12@AAV?$allocator@PAVCAirResistanceDecorator@NEffectUpdateDecorator@@@0@@Z PROC ; std::_Destroy_range<std::allocator<NEffectUpdateDecorator::CAirResistanceDecorator *> >, COMDAT

; 962  :     _Alloc_ptr_t<_Alloc> _First, const _Alloc_ptr_t<_Alloc> _Last, _Alloc& _Al) noexcept {

  00000	55		 push	 ebp
  00001	8b ec		 mov	 ebp, esp

; 963  :     // note that this is an optimization for debug mode codegen; in release mode the BE removes all of this
; 964  :     using _Ty = typename _Alloc::value_type;
; 965  :     if _CONSTEXPR_IF (!conjunction_v<is_trivially_destructible<_Ty>, _Uses_default_destroy<_Alloc, _Ty*>>) {
; 966  :         for (; _First != _Last; ++_First) {
; 967  :             allocator_traits<_Alloc>::destroy(_Al, _Unfancy(_First));
; 968  :         }
; 969  :     }
; 970  : }

  00003	5d		 pop	 ebp
  00004	c3		 ret	 0
??$_Destroy_range@V?$allocator@PAVCAirResistanceDecorator@NEffectUpdateDecorator@@@std@@@std@@YAXPAPAVCAirResistanceDecorator@NEffectUpdateDecorator@@QAPAV12@AAV?$allocator@PAVCAirResistanceDecorator@NEffectUpdateDecorator@@@0@@Z ENDP ; std::_Destroy_range<std::allocator<NEffectUpdateDecorator::CAirResistanceDecorator *> >
_TEXT	ENDS
; Function compile flags: /Odspy
; File C:\Program Files (x86)\Microsoft Visual Studio\2019\Community\VC\Tools\MSVC\14.28.29333\include\xmemory
;	COMDAT ??$_Destroy_range@V?$allocator@PAVCTextureAnimationRandomDecorator@NEffectUpdateDecorator@@@std@@@std@@YAXPAPAVCTextureAnimationRandomDecorator@NEffectUpdateDecorator@@QAPAV12@AAV?$allocator@PAVCTextureAnimationRandomDecorator@NEffectUpdateDecorator@@@0@@Z
_TEXT	SEGMENT
__First$ = 8						; size = 4
__Last$ = 12						; size = 4
__Al$ = 16						; size = 4
??$_Destroy_range@V?$allocator@PAVCTextureAnimationRandomDecorator@NEffectUpdateDecorator@@@std@@@std@@YAXPAPAVCTextureAnimationRandomDecorator@NEffectUpdateDecorator@@QAPAV12@AAV?$allocator@PAVCTextureAnimationRandomDecorator@NEffectUpdateDecorator@@@0@@Z PROC ; std::_Destroy_range<std::allocator<NEffectUpdateDecorator::CTextureAnimationRandomDecorator *> >, COMDAT

; 962  :     _Alloc_ptr_t<_Alloc> _First, const _Alloc_ptr_t<_Alloc> _Last, _Alloc& _Al) noexcept {

  00000	55		 push	 ebp
  00001	8b ec		 mov	 ebp, esp

; 963  :     // note that this is an optimization for debug mode codegen; in release mode the BE removes all of this
; 964  :     using _Ty = typename _Alloc::value_type;
; 965  :     if _CONSTEXPR_IF (!conjunction_v<is_trivially_destructible<_Ty>, _Uses_default_destroy<_Alloc, _Ty*>>) {
; 966  :         for (; _First != _Last; ++_First) {
; 967  :             allocator_traits<_Alloc>::destroy(_Al, _Unfancy(_First));
; 968  :         }
; 969  :     }
; 970  : }

  00003	5d		 pop	 ebp
  00004	c3		 ret	 0
??$_Destroy_range@V?$allocator@PAVCTextureAnimationRandomDecorator@NEffectUpdateDecorator@@@std@@@std@@YAXPAPAVCTextureAnimationRandomDecorator@NEffectUpdateDecorator@@QAPAV12@AAV?$allocator@PAVCTextureAnimationRandomDecorator@NEffectUpdateDecorator@@@0@@Z ENDP ; std::_Destroy_range<std::allocator<NEffectUpdateDecorator::CTextureAnimationRandomDecorator *> >
_TEXT	ENDS
; Function compile flags: /Odspy
; File C:\Program Files (x86)\Microsoft Visual Studio\2019\Community\VC\Tools\MSVC\14.28.29333\include\xmemory
;	COMDAT ??$_Destroy_range@V?$allocator@PAVCTextureAnimationCCWDecorator@NEffectUpdateDecorator@@@std@@@std@@YAXPAPAVCTextureAnimationCCWDecorator@NEffectUpdateDecorator@@QAPAV12@AAV?$allocator@PAVCTextureAnimationCCWDecorator@NEffectUpdateDecorator@@@0@@Z
_TEXT	SEGMENT
__First$ = 8						; size = 4
__Last$ = 12						; size = 4
__Al$ = 16						; size = 4
??$_Destroy_range@V?$allocator@PAVCTextureAnimationCCWDecorator@NEffectUpdateDecorator@@@std@@@std@@YAXPAPAVCTextureAnimationCCWDecorator@NEffectUpdateDecorator@@QAPAV12@AAV?$allocator@PAVCTextureAnimationCCWDecorator@NEffectUpdateDecorator@@@0@@Z PROC ; std::_Destroy_range<std::allocator<NEffectUpdateDecorator::CTextureAnimationCCWDecorator *> >, COMDAT

; 962  :     _Alloc_ptr_t<_Alloc> _First, const _Alloc_ptr_t<_Alloc> _Last, _Alloc& _Al) noexcept {

  00000	55		 push	 ebp
  00001	8b ec		 mov	 ebp, esp

; 963  :     // note that this is an optimization for debug mode codegen; in release mode the BE removes all of this
; 964  :     using _Ty = typename _Alloc::value_type;
; 965  :     if _CONSTEXPR_IF (!conjunction_v<is_trivially_destructible<_Ty>, _Uses_default_destroy<_Alloc, _Ty*>>) {
; 966  :         for (; _First != _Last; ++_First) {
; 967  :             allocator_traits<_Alloc>::destroy(_Al, _Unfancy(_First));
; 968  :         }
; 969  :     }
; 970  : }

  00003	5d		 pop	 ebp
  00004	c3		 ret	 0
??$_Destroy_range@V?$allocator@PAVCTextureAnimationCCWDecorator@NEffectUpdateDecorator@@@std@@@std@@YAXPAPAVCTextureAnimationCCWDecorator@NEffectUpdateDecorator@@QAPAV12@AAV?$allocator@PAVCTextureAnimationCCWDecorator@NEffectUpdateDecorator@@@0@@Z ENDP ; std::_Destroy_range<std::allocator<NEffectUpdateDecorator::CTextureAnimationCCWDecorator *> >
_TEXT	ENDS
; Function compile flags: /Odspy
; File C:\Program Files (x86)\Microsoft Visual Studio\2019\Community\VC\Tools\MSVC\14.28.29333\include\xmemory
;	COMDAT ??$_Destroy_range@V?$allocator@PAVCTextureAnimationCWDecorator@NEffectUpdateDecorator@@@std@@@std@@YAXPAPAVCTextureAnimationCWDecorator@NEffectUpdateDecorator@@QAPAV12@AAV?$allocator@PAVCTextureAnimationCWDecorator@NEffectUpdateDecorator@@@0@@Z
_TEXT	SEGMENT
__First$ = 8						; size = 4
__Last$ = 12						; size = 4
__Al$ = 16						; size = 4
??$_Destroy_range@V?$allocator@PAVCTextureAnimationCWDecorator@NEffectUpdateDecorator@@@std@@@std@@YAXPAPAVCTextureAnimationCWDecorator@NEffectUpdateDecorator@@QAPAV12@AAV?$allocator@PAVCTextureAnimationCWDecorator@NEffectUpdateDecorator@@@0@@Z PROC ; std::_Destroy_range<std::allocator<NEffectUpdateDecorator::CTextureAnimationCWDecorator *> >, COMDAT

; 962  :     _Alloc_ptr_t<_Alloc> _First, const _Alloc_ptr_t<_Alloc> _Last, _Alloc& _Al) noexcept {

  00000	55		 push	 ebp
  00001	8b ec		 mov	 ebp, esp

; 963  :     // note that this is an optimization for debug mode codegen; in release mode the BE removes all of this
; 964  :     using _Ty = typename _Alloc::value_type;
; 965  :     if _CONSTEXPR_IF (!conjunction_v<is_trivially_destructible<_Ty>, _Uses_default_destroy<_Alloc, _Ty*>>) {
; 966  :         for (; _First != _Last; ++_First) {
; 967  :             allocator_traits<_Alloc>::destroy(_Al, _Unfancy(_First));
; 968  :         }
; 969  :     }
; 970  : }

  00003	5d		 pop	 ebp
  00004	c3		 ret	 0
??$_Destroy_range@V?$allocator@PAVCTextureAnimationCWDecorator@NEffectUpdateDecorator@@@std@@@std@@YAXPAPAVCTextureAnimationCWDecorator@NEffectUpdateDecorator@@QAPAV12@AAV?$allocator@PAVCTextureAnimationCWDecorator@NEffectUpdateDecorator@@@0@@Z ENDP ; std::_Destroy_range<std::allocator<NEffectUpdateDecorator::CTextureAnimationCWDecorator *> >
_TEXT	ENDS
; Function compile flags: /Odspy
; File C:\Program Files (x86)\Microsoft Visual Studio\2019\Community\VC\Tools\MSVC\14.28.29333\include\xmemory
;	COMDAT ??$_Destroy_range@V?$allocator@PAVCNullDecorator@NEffectUpdateDecorator@@@std@@@std@@YAXPAPAVCNullDecorator@NEffectUpdateDecorator@@QAPAV12@AAV?$allocator@PAVCNullDecorator@NEffectUpdateDecorator@@@0@@Z
_TEXT	SEGMENT
__First$ = 8						; size = 4
__Last$ = 12						; size = 4
__Al$ = 16						; size = 4
??$_Destroy_range@V?$allocator@PAVCNullDecorator@NEffectUpdateDecorator@@@std@@@std@@YAXPAPAVCNullDecorator@NEffectUpdateDecorator@@QAPAV12@AAV?$allocator@PAVCNullDecorator@NEffectUpdateDecorator@@@0@@Z PROC ; std::_Destroy_range<std::allocator<NEffectUpdateDecorator::CNullDecorator *> >, COMDAT

; 962  :     _Alloc_ptr_t<_Alloc> _First, const _Alloc_ptr_t<_Alloc> _Last, _Alloc& _Al) noexcept {

  00000	55		 push	 ebp
  00001	8b ec		 mov	 ebp, esp

; 963  :     // note that this is an optimization for debug mode codegen; in release mode the BE removes all of this
; 964  :     using _Ty = typename _Alloc::value_type;
; 965  :     if _CONSTEXPR_IF (!conjunction_v<is_trivially_destructible<_Ty>, _Uses_default_destroy<_Alloc, _Ty*>>) {
; 966  :         for (; _First != _Last; ++_First) {
; 967  :             allocator_traits<_Alloc>::destroy(_Al, _Unfancy(_First));
; 968  :         }
; 969  :     }
; 970  : }

  00003	5d		 pop	 ebp
  00004	c3		 ret	 0
??$_Destroy_range@V?$allocator@PAVCNullDecorator@NEffectUpdateDecorator@@@std@@@std@@YAXPAPAVCNullDecorator@NEffectUpdateDecorator@@QAPAV12@AAV?$allocator@PAVCNullDecorator@NEffectUpdateDecorator@@@0@@Z ENDP ; std::_Destroy_range<std::allocator<NEffectUpdateDecorator::CNullDecorator *> >
_TEXT	ENDS
; Function compile flags: /Odspy
; File C:\Program Files (x86)\Microsoft Visual Studio\2019\Community\VC\Tools\MSVC\14.28.29333\include\xmemory
;	COMDAT ??$_Destroy_range@V?$allocator@PAVCHeaderDecorator@NEffectUpdateDecorator@@@std@@@std@@YAXPAPAVCHeaderDecorator@NEffectUpdateDecorator@@QAPAV12@AAV?$allocator@PAVCHeaderDecorator@NEffectUpdateDecorator@@@0@@Z
_TEXT	SEGMENT
__First$ = 8						; size = 4
__Last$ = 12						; size = 4
__Al$ = 16						; size = 4
??$_Destroy_range@V?$allocator@PAVCHeaderDecorator@NEffectUpdateDecorator@@@std@@@std@@YAXPAPAVCHeaderDecorator@NEffectUpdateDecorator@@QAPAV12@AAV?$allocator@PAVCHeaderDecorator@NEffectUpdateDecorator@@@0@@Z PROC ; std::_Destroy_range<std::allocator<NEffectUpdateDecorator::CHeaderDecorator *> >, COMDAT

; 962  :     _Alloc_ptr_t<_Alloc> _First, const _Alloc_ptr_t<_Alloc> _Last, _Alloc& _Al) noexcept {

  00000	55		 push	 ebp
  00001	8b ec		 mov	 ebp, esp

; 963  :     // note that this is an optimization for debug mode codegen; in release mode the BE removes all of this
; 964  :     using _Ty = typename _Alloc::value_type;
; 965  :     if _CONSTEXPR_IF (!conjunction_v<is_trivially_destructible<_Ty>, _Uses_default_destroy<_Alloc, _Ty*>>) {
; 966  :         for (; _First != _Last; ++_First) {
; 967  :             allocator_traits<_Alloc>::destroy(_Al, _Unfancy(_First));
; 968  :         }
; 969  :     }
; 970  : }

  00003	5d		 pop	 ebp
  00004	c3		 ret	 0
??$_Destroy_range@V?$allocator@PAVCHeaderDecorator@NEffectUpdateDecorator@@@std@@@std@@YAXPAPAVCHeaderDecorator@NEffectUpdateDecorator@@QAPAV12@AAV?$allocator@PAVCHeaderDecorator@NEffectUpdateDecorator@@@0@@Z ENDP ; std::_Destroy_range<std::allocator<NEffectUpdateDecorator::CHeaderDecorator *> >
_TEXT	ENDS
; Function compile flags: /Odspy
; File C:\Program Files (x86)\Microsoft Visual Studio\2019\Community\VC\Tools\MSVC\14.28.29333\include\algorithm
; File C:\Program Files (x86)\Microsoft Visual Studio\2019\Community\VC\Tools\MSVC\14.28.29333\include\vector
; File C:\Program Files (x86)\Microsoft Visual Studio\2019\Community\VC\Tools\MSVC\14.28.29333\include\xstddef
; File C:\Program Files (x86)\Microsoft Visual Studio\2019\Community\VC\Tools\MSVC\14.28.29333\include\vector
; File C:\Program Files (x86)\Microsoft Visual Studio\2019\Community\VC\Tools\MSVC\14.28.29333\include\algorithm
; File C:\Program Files (x86)\Microsoft Visual Studio\2019\Community\VC\Tools\MSVC\14.28.29333\include\vector
; File C:\Program Files (x86)\Microsoft Visual Studio\2019\Community\VC\Tools\MSVC\14.28.29333\include\xstddef
; File C:\Program Files (x86)\Microsoft Visual Studio\2019\Community\VC\Tools\MSVC\14.28.29333\include\vector
; File C:\Program Files (x86)\Microsoft Visual Studio\2019\Community\VC\Tools\MSVC\14.28.29333\include\algorithm
;	COMDAT ??$for_each@V?$_Vector_iterator@V?$_Vector_val@U?$_Simple_types@PAVCRotationDecorator@NEffectUpdateDecorator@@@std@@@std@@@std@@P6AXPAVCRotationDecorator@NEffectUpdateDecorator@@@Z@std@@YAP6AXPAVCRotationDecorator@NEffectUpdateDecorator@@@ZV?$_Vector_iterator@V?$_Vector_val@U?$_Simple_types@PAVCRotationDecorator@NEffectUpdateDecorator@@@std@@@std@@@0@1P6AX0@Z@Z
_TEXT	SEGMENT
__ULast$ = -32						; size = 4
$T1 = -28						; size = 4
$T2 = -24						; size = 4
__Ptr$3 = -20						; size = 4
$T4 = -16						; size = 4
$T5 = -12						; size = 4
__Ptr$6 = -8						; size = 4
__UFirst$ = -4						; size = 4
__First$ = 8						; size = 4
__Last$ = 12						; size = 4
__Func$ = 16						; size = 4
??$for_each@V?$_Vector_iterator@V?$_Vector_val@U?$_Simple_types@PAVCRotationDecorator@NEffectUpdateDecorator@@@std@@@std@@@std@@P6AXPAVCRotationDecorator@NEffectUpdateDecorator@@@Z@std@@YAP6AXPAVCRotationDecorator@NEffectUpdateDecorator@@@ZV?$_Vector_iterator@V?$_Vector_val@U?$_Simple_types@PAVCRotationDecorator@NEffectUpdateDecorator@@@std@@@std@@@0@1P6AX0@Z@Z PROC ; std::for_each<std::_Vector_iterator<std::_Vector_val<std::_Simple_types<NEffectUpdateDecorator::CRotationDecorator *> > >,void (__cdecl*)(NEffectUpdateDecorator::CRotationDecorator *)>, COMDAT

; 303  : _CONSTEXPR20 _Fn for_each(_InIt _First, _InIt _Last, _Fn _Func) { // perform function for each element [_First, _Last)

  00000	55		 push	 ebp
  00001	8b ec		 mov	 ebp, esp
  00003	83 ec 20	 sub	 esp, 32			; 00000020H
; File C:\Program Files (x86)\Microsoft Visual Studio\2019\Community\VC\Tools\MSVC\14.28.29333\include\vector

; 310  :         return _Unfancy(this->_Ptr);

  00006	8b 45 08	 mov	 eax, DWORD PTR __First$[ebp]
  00009	89 45 f8	 mov	 DWORD PTR __Ptr$6[ebp], eax
; File C:\Program Files (x86)\Microsoft Visual Studio\2019\Community\VC\Tools\MSVC\14.28.29333\include\xstddef

; 289  :     return _Ptr;

  0000c	8b 45 f8	 mov	 eax, DWORD PTR __Ptr$6[ebp]
  0000f	89 45 f4	 mov	 DWORD PTR $T5[ebp], eax
; File C:\Program Files (x86)\Microsoft Visual Studio\2019\Community\VC\Tools\MSVC\14.28.29333\include\vector

; 310  :         return _Unfancy(this->_Ptr);

  00012	8b 45 f4	 mov	 eax, DWORD PTR $T5[ebp]
  00015	89 45 f0	 mov	 DWORD PTR $T4[ebp], eax
; File C:\Program Files (x86)\Microsoft Visual Studio\2019\Community\VC\Tools\MSVC\14.28.29333\include\algorithm

; 305  :     auto _UFirst      = _Get_unwrapped(_First);

  00018	8b 45 f0	 mov	 eax, DWORD PTR $T4[ebp]
  0001b	89 45 fc	 mov	 DWORD PTR __UFirst$[ebp], eax
; File C:\Program Files (x86)\Microsoft Visual Studio\2019\Community\VC\Tools\MSVC\14.28.29333\include\vector

; 310  :         return _Unfancy(this->_Ptr);

  0001e	8b 45 0c	 mov	 eax, DWORD PTR __Last$[ebp]
  00021	89 45 ec	 mov	 DWORD PTR __Ptr$3[ebp], eax
; File C:\Program Files (x86)\Microsoft Visual Studio\2019\Community\VC\Tools\MSVC\14.28.29333\include\xstddef

; 289  :     return _Ptr;

  00024	8b 45 ec	 mov	 eax, DWORD PTR __Ptr$3[ebp]
  00027	89 45 e8	 mov	 DWORD PTR $T2[ebp], eax
; File C:\Program Files (x86)\Microsoft Visual Studio\2019\Community\VC\Tools\MSVC\14.28.29333\include\vector

; 310  :         return _Unfancy(this->_Ptr);

  0002a	8b 45 e8	 mov	 eax, DWORD PTR $T2[ebp]
  0002d	89 45 e4	 mov	 DWORD PTR $T1[ebp], eax
; File C:\Program Files (x86)\Microsoft Visual Studio\2019\Community\VC\Tools\MSVC\14.28.29333\include\algorithm

; 306  :     const auto _ULast = _Get_unwrapped(_Last);

  00030	8b 45 e4	 mov	 eax, DWORD PTR $T1[ebp]
  00033	89 45 e0	 mov	 DWORD PTR __ULast$[ebp], eax

; 307  :     for (; _UFirst != _ULast; ++_UFirst) {

  00036	eb 09		 jmp	 SHORT $LN4@for_each
$LN2@for_each:
  00038	8b 45 fc	 mov	 eax, DWORD PTR __UFirst$[ebp]
  0003b	83 c0 04	 add	 eax, 4
  0003e	89 45 fc	 mov	 DWORD PTR __UFirst$[ebp], eax
$LN4@for_each:
  00041	8b 45 fc	 mov	 eax, DWORD PTR __UFirst$[ebp]
  00044	3b 45 e0	 cmp	 eax, DWORD PTR __ULast$[ebp]
  00047	74 0b		 je	 SHORT $LN3@for_each

; 308  :         _Func(*_UFirst);

  00049	8b 45 fc	 mov	 eax, DWORD PTR __UFirst$[ebp]
  0004c	ff 30		 push	 DWORD PTR [eax]
  0004e	ff 55 10	 call	 DWORD PTR __Func$[ebp]
  00051	59		 pop	 ecx

; 309  :     }

  00052	eb e4		 jmp	 SHORT $LN2@for_each
$LN3@for_each:

; 310  : 
; 311  :     return _Func;

  00054	8b 45 10	 mov	 eax, DWORD PTR __Func$[ebp]

; 312  : }

  00057	c9		 leave
  00058	c3		 ret	 0
??$for_each@V?$_Vector_iterator@V?$_Vector_val@U?$_Simple_types@PAVCRotationDecorator@NEffectUpdateDecorator@@@std@@@std@@@std@@P6AXPAVCRotationDecorator@NEffectUpdateDecorator@@@Z@std@@YAP6AXPAVCRotationDecorator@NEffectUpdateDecorator@@@ZV?$_Vector_iterator@V?$_Vector_val@U?$_Simple_types@PAVCRotationDecorator@NEffectUpdateDecorator@@@std@@@std@@@0@1P6AX0@Z@Z ENDP ; std::for_each<std::_Vector_iterator<std::_Vector_val<std::_Simple_types<NEffectUpdateDecorator::CRotationDecorator *> > >,void (__cdecl*)(NEffectUpdateDecorator::CRotationDecorator *)>
_TEXT	ENDS
; Function compile flags: /Odspy
; File C:\Program Files (x86)\Microsoft Visual Studio\2019\Community\VC\Tools\MSVC\14.28.29333\include\algorithm
; File C:\Program Files (x86)\Microsoft Visual Studio\2019\Community\VC\Tools\MSVC\14.28.29333\include\vector
; File C:\Program Files (x86)\Microsoft Visual Studio\2019\Community\VC\Tools\MSVC\14.28.29333\include\xstddef
; File C:\Program Files (x86)\Microsoft Visual Studio\2019\Community\VC\Tools\MSVC\14.28.29333\include\vector
; File C:\Program Files (x86)\Microsoft Visual Studio\2019\Community\VC\Tools\MSVC\14.28.29333\include\algorithm
; File C:\Program Files (x86)\Microsoft Visual Studio\2019\Community\VC\Tools\MSVC\14.28.29333\include\vector
; File C:\Program Files (x86)\Microsoft Visual Studio\2019\Community\VC\Tools\MSVC\14.28.29333\include\xstddef
; File C:\Program Files (x86)\Microsoft Visual Studio\2019\Community\VC\Tools\MSVC\14.28.29333\include\vector
; File C:\Program Files (x86)\Microsoft Visual Studio\2019\Community\VC\Tools\MSVC\14.28.29333\include\algorithm
;	COMDAT ??$for_each@V?$_Vector_iterator@V?$_Vector_val@U?$_Simple_types@PAVCGravityDecorator@NEffectUpdateDecorator@@@std@@@std@@@std@@P6AXPAVCGravityDecorator@NEffectUpdateDecorator@@@Z@std@@YAP6AXPAVCGravityDecorator@NEffectUpdateDecorator@@@ZV?$_Vector_iterator@V?$_Vector_val@U?$_Simple_types@PAVCGravityDecorator@NEffectUpdateDecorator@@@std@@@std@@@0@1P6AX0@Z@Z
_TEXT	SEGMENT
__ULast$ = -32						; size = 4
$T1 = -28						; size = 4
$T2 = -24						; size = 4
__Ptr$3 = -20						; size = 4
$T4 = -16						; size = 4
$T5 = -12						; size = 4
__Ptr$6 = -8						; size = 4
__UFirst$ = -4						; size = 4
__First$ = 8						; size = 4
__Last$ = 12						; size = 4
__Func$ = 16						; size = 4
??$for_each@V?$_Vector_iterator@V?$_Vector_val@U?$_Simple_types@PAVCGravityDecorator@NEffectUpdateDecorator@@@std@@@std@@@std@@P6AXPAVCGravityDecorator@NEffectUpdateDecorator@@@Z@std@@YAP6AXPAVCGravityDecorator@NEffectUpdateDecorator@@@ZV?$_Vector_iterator@V?$_Vector_val@U?$_Simple_types@PAVCGravityDecorator@NEffectUpdateDecorator@@@std@@@std@@@0@1P6AX0@Z@Z PROC ; std::for_each<std::_Vector_iterator<std::_Vector_val<std::_Simple_types<NEffectUpdateDecorator::CGravityDecorator *> > >,void (__cdecl*)(NEffectUpdateDecorator::CGravityDecorator *)>, COMDAT

; 303  : _CONSTEXPR20 _Fn for_each(_InIt _First, _InIt _Last, _Fn _Func) { // perform function for each element [_First, _Last)

  00000	55		 push	 ebp
  00001	8b ec		 mov	 ebp, esp
  00003	83 ec 20	 sub	 esp, 32			; 00000020H
; File C:\Program Files (x86)\Microsoft Visual Studio\2019\Community\VC\Tools\MSVC\14.28.29333\include\vector

; 310  :         return _Unfancy(this->_Ptr);

  00006	8b 45 08	 mov	 eax, DWORD PTR __First$[ebp]
  00009	89 45 f8	 mov	 DWORD PTR __Ptr$6[ebp], eax
; File C:\Program Files (x86)\Microsoft Visual Studio\2019\Community\VC\Tools\MSVC\14.28.29333\include\xstddef

; 289  :     return _Ptr;

  0000c	8b 45 f8	 mov	 eax, DWORD PTR __Ptr$6[ebp]
  0000f	89 45 f4	 mov	 DWORD PTR $T5[ebp], eax
; File C:\Program Files (x86)\Microsoft Visual Studio\2019\Community\VC\Tools\MSVC\14.28.29333\include\vector

; 310  :         return _Unfancy(this->_Ptr);

  00012	8b 45 f4	 mov	 eax, DWORD PTR $T5[ebp]
  00015	89 45 f0	 mov	 DWORD PTR $T4[ebp], eax
; File C:\Program Files (x86)\Microsoft Visual Studio\2019\Community\VC\Tools\MSVC\14.28.29333\include\algorithm

; 305  :     auto _UFirst      = _Get_unwrapped(_First);

  00018	8b 45 f0	 mov	 eax, DWORD PTR $T4[ebp]
  0001b	89 45 fc	 mov	 DWORD PTR __UFirst$[ebp], eax
; File C:\Program Files (x86)\Microsoft Visual Studio\2019\Community\VC\Tools\MSVC\14.28.29333\include\vector

; 310  :         return _Unfancy(this->_Ptr);

  0001e	8b 45 0c	 mov	 eax, DWORD PTR __Last$[ebp]
  00021	89 45 ec	 mov	 DWORD PTR __Ptr$3[ebp], eax
; File C:\Program Files (x86)\Microsoft Visual Studio\2019\Community\VC\Tools\MSVC\14.28.29333\include\xstddef

; 289  :     return _Ptr;

  00024	8b 45 ec	 mov	 eax, DWORD PTR __Ptr$3[ebp]
  00027	89 45 e8	 mov	 DWORD PTR $T2[ebp], eax
; File C:\Program Files (x86)\Microsoft Visual Studio\2019\Community\VC\Tools\MSVC\14.28.29333\include\vector

; 310  :         return _Unfancy(this->_Ptr);

  0002a	8b 45 e8	 mov	 eax, DWORD PTR $T2[ebp]
  0002d	89 45 e4	 mov	 DWORD PTR $T1[ebp], eax
; File C:\Program Files (x86)\Microsoft Visual Studio\2019\Community\VC\Tools\MSVC\14.28.29333\include\algorithm

; 306  :     const auto _ULast = _Get_unwrapped(_Last);

  00030	8b 45 e4	 mov	 eax, DWORD PTR $T1[ebp]
  00033	89 45 e0	 mov	 DWORD PTR __ULast$[ebp], eax

; 307  :     for (; _UFirst != _ULast; ++_UFirst) {

  00036	eb 09		 jmp	 SHORT $LN4@for_each
$LN2@for_each:
  00038	8b 45 fc	 mov	 eax, DWORD PTR __UFirst$[ebp]
  0003b	83 c0 04	 add	 eax, 4
  0003e	89 45 fc	 mov	 DWORD PTR __UFirst$[ebp], eax
$LN4@for_each:
  00041	8b 45 fc	 mov	 eax, DWORD PTR __UFirst$[ebp]
  00044	3b 45 e0	 cmp	 eax, DWORD PTR __ULast$[ebp]
  00047	74 0b		 je	 SHORT $LN3@for_each

; 308  :         _Func(*_UFirst);

  00049	8b 45 fc	 mov	 eax, DWORD PTR __UFirst$[ebp]
  0004c	ff 30		 push	 DWORD PTR [eax]
  0004e	ff 55 10	 call	 DWORD PTR __Func$[ebp]
  00051	59		 pop	 ecx

; 309  :     }

  00052	eb e4		 jmp	 SHORT $LN2@for_each
$LN3@for_each:

; 310  : 
; 311  :     return _Func;

  00054	8b 45 10	 mov	 eax, DWORD PTR __Func$[ebp]

; 312  : }

  00057	c9		 leave
  00058	c3		 ret	 0
??$for_each@V?$_Vector_iterator@V?$_Vector_val@U?$_Simple_types@PAVCGravityDecorator@NEffectUpdateDecorator@@@std@@@std@@@std@@P6AXPAVCGravityDecorator@NEffectUpdateDecorator@@@Z@std@@YAP6AXPAVCGravityDecorator@NEffectUpdateDecorator@@@ZV?$_Vector_iterator@V?$_Vector_val@U?$_Simple_types@PAVCGravityDecorator@NEffectUpdateDecorator@@@std@@@std@@@0@1P6AX0@Z@Z ENDP ; std::for_each<std::_Vector_iterator<std::_Vector_val<std::_Simple_types<NEffectUpdateDecorator::CGravityDecorator *> > >,void (__cdecl*)(NEffectUpdateDecorator::CGravityDecorator *)>
_TEXT	ENDS
; Function compile flags: /Odspy
; File C:\Program Files (x86)\Microsoft Visual Studio\2019\Community\VC\Tools\MSVC\14.28.29333\include\algorithm
; File C:\Program Files (x86)\Microsoft Visual Studio\2019\Community\VC\Tools\MSVC\14.28.29333\include\vector
; File C:\Program Files (x86)\Microsoft Visual Studio\2019\Community\VC\Tools\MSVC\14.28.29333\include\xstddef
; File C:\Program Files (x86)\Microsoft Visual Studio\2019\Community\VC\Tools\MSVC\14.28.29333\include\vector
; File C:\Program Files (x86)\Microsoft Visual Studio\2019\Community\VC\Tools\MSVC\14.28.29333\include\algorithm
; File C:\Program Files (x86)\Microsoft Visual Studio\2019\Community\VC\Tools\MSVC\14.28.29333\include\vector
; File C:\Program Files (x86)\Microsoft Visual Studio\2019\Community\VC\Tools\MSVC\14.28.29333\include\xstddef
; File C:\Program Files (x86)\Microsoft Visual Studio\2019\Community\VC\Tools\MSVC\14.28.29333\include\vector
; File C:\Program Files (x86)\Microsoft Visual Studio\2019\Community\VC\Tools\MSVC\14.28.29333\include\algorithm
;	COMDAT ??$for_each@V?$_Vector_iterator@V?$_Vector_val@U?$_Simple_types@PAVCAirResistanceDecorator@NEffectUpdateDecorator@@@std@@@std@@@std@@P6AXPAVCAirResistanceDecorator@NEffectUpdateDecorator@@@Z@std@@YAP6AXPAVCAirResistanceDecorator@NEffectUpdateDecorator@@@ZV?$_Vector_iterator@V?$_Vector_val@U?$_Simple_types@PAVCAirResistanceDecorator@NEffectUpdateDecorator@@@std@@@std@@@0@1P6AX0@Z@Z
_TEXT	SEGMENT
__ULast$ = -32						; size = 4
$T1 = -28						; size = 4
$T2 = -24						; size = 4
__Ptr$3 = -20						; size = 4
$T4 = -16						; size = 4
$T5 = -12						; size = 4
__Ptr$6 = -8						; size = 4
__UFirst$ = -4						; size = 4
__First$ = 8						; size = 4
__Last$ = 12						; size = 4
__Func$ = 16						; size = 4
??$for_each@V?$_Vector_iterator@V?$_Vector_val@U?$_Simple_types@PAVCAirResistanceDecorator@NEffectUpdateDecorator@@@std@@@std@@@std@@P6AXPAVCAirResistanceDecorator@NEffectUpdateDecorator@@@Z@std@@YAP6AXPAVCAirResistanceDecorator@NEffectUpdateDecorator@@@ZV?$_Vector_iterator@V?$_Vector_val@U?$_Simple_types@PAVCAirResistanceDecorator@NEffectUpdateDecorator@@@std@@@std@@@0@1P6AX0@Z@Z PROC ; std::for_each<std::_Vector_iterator<std::_Vector_val<std::_Simple_types<NEffectUpdateDecorator::CAirResistanceDecorator *> > >,void (__cdecl*)(NEffectUpdateDecorator::CAirResistanceDecorator *)>, COMDAT

; 303  : _CONSTEXPR20 _Fn for_each(_InIt _First, _InIt _Last, _Fn _Func) { // perform function for each element [_First, _Last)

  00000	55		 push	 ebp
  00001	8b ec		 mov	 ebp, esp
  00003	83 ec 20	 sub	 esp, 32			; 00000020H
; File C:\Program Files (x86)\Microsoft Visual Studio\2019\Community\VC\Tools\MSVC\14.28.29333\include\vector

; 310  :         return _Unfancy(this->_Ptr);

  00006	8b 45 08	 mov	 eax, DWORD PTR __First$[ebp]
  00009	89 45 f8	 mov	 DWORD PTR __Ptr$6[ebp], eax
; File C:\Program Files (x86)\Microsoft Visual Studio\2019\Community\VC\Tools\MSVC\14.28.29333\include\xstddef

; 289  :     return _Ptr;

  0000c	8b 45 f8	 mov	 eax, DWORD PTR __Ptr$6[ebp]
  0000f	89 45 f4	 mov	 DWORD PTR $T5[ebp], eax
; File C:\Program Files (x86)\Microsoft Visual Studio\2019\Community\VC\Tools\MSVC\14.28.29333\include\vector

; 310  :         return _Unfancy(this->_Ptr);

  00012	8b 45 f4	 mov	 eax, DWORD PTR $T5[ebp]
  00015	89 45 f0	 mov	 DWORD PTR $T4[ebp], eax
; File C:\Program Files (x86)\Microsoft Visual Studio\2019\Community\VC\Tools\MSVC\14.28.29333\include\algorithm

; 305  :     auto _UFirst      = _Get_unwrapped(_First);

  00018	8b 45 f0	 mov	 eax, DWORD PTR $T4[ebp]
  0001b	89 45 fc	 mov	 DWORD PTR __UFirst$[ebp], eax
; File C:\Program Files (x86)\Microsoft Visual Studio\2019\Community\VC\Tools\MSVC\14.28.29333\include\vector

; 310  :         return _Unfancy(this->_Ptr);

  0001e	8b 45 0c	 mov	 eax, DWORD PTR __Last$[ebp]
  00021	89 45 ec	 mov	 DWORD PTR __Ptr$3[ebp], eax
; File C:\Program Files (x86)\Microsoft Visual Studio\2019\Community\VC\Tools\MSVC\14.28.29333\include\xstddef

; 289  :     return _Ptr;

  00024	8b 45 ec	 mov	 eax, DWORD PTR __Ptr$3[ebp]
  00027	89 45 e8	 mov	 DWORD PTR $T2[ebp], eax
; File C:\Program Files (x86)\Microsoft Visual Studio\2019\Community\VC\Tools\MSVC\14.28.29333\include\vector

; 310  :         return _Unfancy(this->_Ptr);

  0002a	8b 45 e8	 mov	 eax, DWORD PTR $T2[ebp]
  0002d	89 45 e4	 mov	 DWORD PTR $T1[ebp], eax
; File C:\Program Files (x86)\Microsoft Visual Studio\2019\Community\VC\Tools\MSVC\14.28.29333\include\algorithm

; 306  :     const auto _ULast = _Get_unwrapped(_Last);

  00030	8b 45 e4	 mov	 eax, DWORD PTR $T1[ebp]
  00033	89 45 e0	 mov	 DWORD PTR __ULast$[ebp], eax

; 307  :     for (; _UFirst != _ULast; ++_UFirst) {

  00036	eb 09		 jmp	 SHORT $LN4@for_each
$LN2@for_each:
  00038	8b 45 fc	 mov	 eax, DWORD PTR __UFirst$[ebp]
  0003b	83 c0 04	 add	 eax, 4
  0003e	89 45 fc	 mov	 DWORD PTR __UFirst$[ebp], eax
$LN4@for_each:
  00041	8b 45 fc	 mov	 eax, DWORD PTR __UFirst$[ebp]
  00044	3b 45 e0	 cmp	 eax, DWORD PTR __ULast$[ebp]
  00047	74 0b		 je	 SHORT $LN3@for_each

; 308  :         _Func(*_UFirst);

  00049	8b 45 fc	 mov	 eax, DWORD PTR __UFirst$[ebp]
  0004c	ff 30		 push	 DWORD PTR [eax]
  0004e	ff 55 10	 call	 DWORD PTR __Func$[ebp]
  00051	59		 pop	 ecx

; 309  :     }

  00052	eb e4		 jmp	 SHORT $LN2@for_each
$LN3@for_each:

; 310  : 
; 311  :     return _Func;

  00054	8b 45 10	 mov	 eax, DWORD PTR __Func$[ebp]

; 312  : }

  00057	c9		 leave
  00058	c3		 ret	 0
??$for_each@V?$_Vector_iterator@V?$_Vector_val@U?$_Simple_types@PAVCAirResistanceDecorator@NEffectUpdateDecorator@@@std@@@std@@@std@@P6AXPAVCAirResistanceDecorator@NEffectUpdateDecorator@@@Z@std@@YAP6AXPAVCAirResistanceDecorator@NEffectUpdateDecorator@@@ZV?$_Vector_iterator@V?$_Vector_val@U?$_Simple_types@PAVCAirResistanceDecorator@NEffectUpdateDecorator@@@std@@@std@@@0@1P6AX0@Z@Z ENDP ; std::for_each<std::_Vector_iterator<std::_Vector_val<std::_Simple_types<NEffectUpdateDecorator::CAirResistanceDecorator *> > >,void (__cdecl*)(NEffectUpdateDecorator::CAirResistanceDecorator *)>
_TEXT	ENDS
; Function compile flags: /Odspy
; File C:\Program Files (x86)\Microsoft Visual Studio\2019\Community\VC\Tools\MSVC\14.28.29333\include\algorithm
; File C:\Program Files (x86)\Microsoft Visual Studio\2019\Community\VC\Tools\MSVC\14.28.29333\include\vector
; File C:\Program Files (x86)\Microsoft Visual Studio\2019\Community\VC\Tools\MSVC\14.28.29333\include\xstddef
; File C:\Program Files (x86)\Microsoft Visual Studio\2019\Community\VC\Tools\MSVC\14.28.29333\include\vector
; File C:\Program Files (x86)\Microsoft Visual Studio\2019\Community\VC\Tools\MSVC\14.28.29333\include\algorithm
; File C:\Program Files (x86)\Microsoft Visual Studio\2019\Community\VC\Tools\MSVC\14.28.29333\include\vector
; File C:\Program Files (x86)\Microsoft Visual Studio\2019\Community\VC\Tools\MSVC\14.28.29333\include\xstddef
; File C:\Program Files (x86)\Microsoft Visual Studio\2019\Community\VC\Tools\MSVC\14.28.29333\include\vector
; File C:\Program Files (x86)\Microsoft Visual Studio\2019\Community\VC\Tools\MSVC\14.28.29333\include\algorithm
;	COMDAT ??$for_each@V?$_Vector_iterator@V?$_Vector_val@U?$_Simple_types@PAVCTextureAnimationRandomDecorator@NEffectUpdateDecorator@@@std@@@std@@@std@@P6AXPAVCTextureAnimationRandomDecorator@NEffectUpdateDecorator@@@Z@std@@YAP6AXPAVCTextureAnimationRandomDecorator@NEffectUpdateDecorator@@@ZV?$_Vector_iterator@V?$_Vector_val@U?$_Simple_types@PAVCTextureAnimationRandomDecorator@NEffectUpdateDecorator@@@std@@@std@@@0@1P6AX0@Z@Z
_TEXT	SEGMENT
__ULast$ = -32						; size = 4
$T1 = -28						; size = 4
$T2 = -24						; size = 4
__Ptr$3 = -20						; size = 4
$T4 = -16						; size = 4
$T5 = -12						; size = 4
__Ptr$6 = -8						; size = 4
__UFirst$ = -4						; size = 4
__First$ = 8						; size = 4
__Last$ = 12						; size = 4
__Func$ = 16						; size = 4
??$for_each@V?$_Vector_iterator@V?$_Vector_val@U?$_Simple_types@PAVCTextureAnimationRandomDecorator@NEffectUpdateDecorator@@@std@@@std@@@std@@P6AXPAVCTextureAnimationRandomDecorator@NEffectUpdateDecorator@@@Z@std@@YAP6AXPAVCTextureAnimationRandomDecorator@NEffectUpdateDecorator@@@ZV?$_Vector_iterator@V?$_Vector_val@U?$_Simple_types@PAVCTextureAnimationRandomDecorator@NEffectUpdateDecorator@@@std@@@std@@@0@1P6AX0@Z@Z PROC ; std::for_each<std::_Vector_iterator<std::_Vector_val<std::_Simple_types<NEffectUpdateDecorator::CTextureAnimationRandomDecorator *> > >,void (__cdecl*)(NEffectUpdateDecorator::CTextureAnimationRandomDecorator *)>, COMDAT

; 303  : _CONSTEXPR20 _Fn for_each(_InIt _First, _InIt _Last, _Fn _Func) { // perform function for each element [_First, _Last)

  00000	55		 push	 ebp
  00001	8b ec		 mov	 ebp, esp
  00003	83 ec 20	 sub	 esp, 32			; 00000020H
; File C:\Program Files (x86)\Microsoft Visual Studio\2019\Community\VC\Tools\MSVC\14.28.29333\include\vector

; 310  :         return _Unfancy(this->_Ptr);

  00006	8b 45 08	 mov	 eax, DWORD PTR __First$[ebp]
  00009	89 45 f8	 mov	 DWORD PTR __Ptr$6[ebp], eax
; File C:\Program Files (x86)\Microsoft Visual Studio\2019\Community\VC\Tools\MSVC\14.28.29333\include\xstddef

; 289  :     return _Ptr;

  0000c	8b 45 f8	 mov	 eax, DWORD PTR __Ptr$6[ebp]
  0000f	89 45 f4	 mov	 DWORD PTR $T5[ebp], eax
; File C:\Program Files (x86)\Microsoft Visual Studio\2019\Community\VC\Tools\MSVC\14.28.29333\include\vector

; 310  :         return _Unfancy(this->_Ptr);

  00012	8b 45 f4	 mov	 eax, DWORD PTR $T5[ebp]
  00015	89 45 f0	 mov	 DWORD PTR $T4[ebp], eax
; File C:\Program Files (x86)\Microsoft Visual Studio\2019\Community\VC\Tools\MSVC\14.28.29333\include\algorithm

; 305  :     auto _UFirst      = _Get_unwrapped(_First);

  00018	8b 45 f0	 mov	 eax, DWORD PTR $T4[ebp]
  0001b	89 45 fc	 mov	 DWORD PTR __UFirst$[ebp], eax
; File C:\Program Files (x86)\Microsoft Visual Studio\2019\Community\VC\Tools\MSVC\14.28.29333\include\vector

; 310  :         return _Unfancy(this->_Ptr);

  0001e	8b 45 0c	 mov	 eax, DWORD PTR __Last$[ebp]
  00021	89 45 ec	 mov	 DWORD PTR __Ptr$3[ebp], eax
; File C:\Program Files (x86)\Microsoft Visual Studio\2019\Community\VC\Tools\MSVC\14.28.29333\include\xstddef

; 289  :     return _Ptr;

  00024	8b 45 ec	 mov	 eax, DWORD PTR __Ptr$3[ebp]
  00027	89 45 e8	 mov	 DWORD PTR $T2[ebp], eax
; File C:\Program Files (x86)\Microsoft Visual Studio\2019\Community\VC\Tools\MSVC\14.28.29333\include\vector

; 310  :         return _Unfancy(this->_Ptr);

  0002a	8b 45 e8	 mov	 eax, DWORD PTR $T2[ebp]
  0002d	89 45 e4	 mov	 DWORD PTR $T1[ebp], eax
; File C:\Program Files (x86)\Microsoft Visual Studio\2019\Community\VC\Tools\MSVC\14.28.29333\include\algorithm

; 306  :     const auto _ULast = _Get_unwrapped(_Last);

  00030	8b 45 e4	 mov	 eax, DWORD PTR $T1[ebp]
  00033	89 45 e0	 mov	 DWORD PTR __ULast$[ebp], eax

; 307  :     for (; _UFirst != _ULast; ++_UFirst) {

  00036	eb 09		 jmp	 SHORT $LN4@for_each
$LN2@for_each:
  00038	8b 45 fc	 mov	 eax, DWORD PTR __UFirst$[ebp]
  0003b	83 c0 04	 add	 eax, 4
  0003e	89 45 fc	 mov	 DWORD PTR __UFirst$[ebp], eax
$LN4@for_each:
  00041	8b 45 fc	 mov	 eax, DWORD PTR __UFirst$[ebp]
  00044	3b 45 e0	 cmp	 eax, DWORD PTR __ULast$[ebp]
  00047	74 0b		 je	 SHORT $LN3@for_each

; 308  :         _Func(*_UFirst);

  00049	8b 45 fc	 mov	 eax, DWORD PTR __UFirst$[ebp]
  0004c	ff 30		 push	 DWORD PTR [eax]
  0004e	ff 55 10	 call	 DWORD PTR __Func$[ebp]
  00051	59		 pop	 ecx

; 309  :     }

  00052	eb e4		 jmp	 SHORT $LN2@for_each
$LN3@for_each:

; 310  : 
; 311  :     return _Func;

  00054	8b 45 10	 mov	 eax, DWORD PTR __Func$[ebp]

; 312  : }

  00057	c9		 leave
  00058	c3		 ret	 0
??$for_each@V?$_Vector_iterator@V?$_Vector_val@U?$_Simple_types@PAVCTextureAnimationRandomDecorator@NEffectUpdateDecorator@@@std@@@std@@@std@@P6AXPAVCTextureAnimationRandomDecorator@NEffectUpdateDecorator@@@Z@std@@YAP6AXPAVCTextureAnimationRandomDecorator@NEffectUpdateDecorator@@@ZV?$_Vector_iterator@V?$_Vector_val@U?$_Simple_types@PAVCTextureAnimationRandomDecorator@NEffectUpdateDecorator@@@std@@@std@@@0@1P6AX0@Z@Z ENDP ; std::for_each<std::_Vector_iterator<std::_Vector_val<std::_Simple_types<NEffectUpdateDecorator::CTextureAnimationRandomDecorator *> > >,void (__cdecl*)(NEffectUpdateDecorator::CTextureAnimationRandomDecorator *)>
_TEXT	ENDS
; Function compile flags: /Odspy
; File C:\Program Files (x86)\Microsoft Visual Studio\2019\Community\VC\Tools\MSVC\14.28.29333\include\algorithm
; File C:\Program Files (x86)\Microsoft Visual Studio\2019\Community\VC\Tools\MSVC\14.28.29333\include\vector
; File C:\Program Files (x86)\Microsoft Visual Studio\2019\Community\VC\Tools\MSVC\14.28.29333\include\xstddef
; File C:\Program Files (x86)\Microsoft Visual Studio\2019\Community\VC\Tools\MSVC\14.28.29333\include\vector
; File C:\Program Files (x86)\Microsoft Visual Studio\2019\Community\VC\Tools\MSVC\14.28.29333\include\algorithm
; File C:\Program Files (x86)\Microsoft Visual Studio\2019\Community\VC\Tools\MSVC\14.28.29333\include\vector
; File C:\Program Files (x86)\Microsoft Visual Studio\2019\Community\VC\Tools\MSVC\14.28.29333\include\xstddef
; File C:\Program Files (x86)\Microsoft Visual Studio\2019\Community\VC\Tools\MSVC\14.28.29333\include\vector
; File C:\Program Files (x86)\Microsoft Visual Studio\2019\Community\VC\Tools\MSVC\14.28.29333\include\algorithm
;	COMDAT ??$for_each@V?$_Vector_iterator@V?$_Vector_val@U?$_Simple_types@PAVCTextureAnimationCCWDecorator@NEffectUpdateDecorator@@@std@@@std@@@std@@P6AXPAVCTextureAnimationCCWDecorator@NEffectUpdateDecorator@@@Z@std@@YAP6AXPAVCTextureAnimationCCWDecorator@NEffectUpdateDecorator@@@ZV?$_Vector_iterator@V?$_Vector_val@U?$_Simple_types@PAVCTextureAnimationCCWDecorator@NEffectUpdateDecorator@@@std@@@std@@@0@1P6AX0@Z@Z
_TEXT	SEGMENT
__ULast$ = -32						; size = 4
$T1 = -28						; size = 4
$T2 = -24						; size = 4
__Ptr$3 = -20						; size = 4
$T4 = -16						; size = 4
$T5 = -12						; size = 4
__Ptr$6 = -8						; size = 4
__UFirst$ = -4						; size = 4
__First$ = 8						; size = 4
__Last$ = 12						; size = 4
__Func$ = 16						; size = 4
??$for_each@V?$_Vector_iterator@V?$_Vector_val@U?$_Simple_types@PAVCTextureAnimationCCWDecorator@NEffectUpdateDecorator@@@std@@@std@@@std@@P6AXPAVCTextureAnimationCCWDecorator@NEffectUpdateDecorator@@@Z@std@@YAP6AXPAVCTextureAnimationCCWDecorator@NEffectUpdateDecorator@@@ZV?$_Vector_iterator@V?$_Vector_val@U?$_Simple_types@PAVCTextureAnimationCCWDecorator@NEffectUpdateDecorator@@@std@@@std@@@0@1P6AX0@Z@Z PROC ; std::for_each<std::_Vector_iterator<std::_Vector_val<std::_Simple_types<NEffectUpdateDecorator::CTextureAnimationCCWDecorator *> > >,void (__cdecl*)(NEffectUpdateDecorator::CTextureAnimationCCWDecorator *)>, COMDAT

; 303  : _CONSTEXPR20 _Fn for_each(_InIt _First, _InIt _Last, _Fn _Func) { // perform function for each element [_First, _Last)

  00000	55		 push	 ebp
  00001	8b ec		 mov	 ebp, esp
  00003	83 ec 20	 sub	 esp, 32			; 00000020H
; File C:\Program Files (x86)\Microsoft Visual Studio\2019\Community\VC\Tools\MSVC\14.28.29333\include\vector

; 310  :         return _Unfancy(this->_Ptr);

  00006	8b 45 08	 mov	 eax, DWORD PTR __First$[ebp]
  00009	89 45 f8	 mov	 DWORD PTR __Ptr$6[ebp], eax
; File C:\Program Files (x86)\Microsoft Visual Studio\2019\Community\VC\Tools\MSVC\14.28.29333\include\xstddef

; 289  :     return _Ptr;

  0000c	8b 45 f8	 mov	 eax, DWORD PTR __Ptr$6[ebp]
  0000f	89 45 f4	 mov	 DWORD PTR $T5[ebp], eax
; File C:\Program Files (x86)\Microsoft Visual Studio\2019\Community\VC\Tools\MSVC\14.28.29333\include\vector

; 310  :         return _Unfancy(this->_Ptr);

  00012	8b 45 f4	 mov	 eax, DWORD PTR $T5[ebp]
  00015	89 45 f0	 mov	 DWORD PTR $T4[ebp], eax
; File C:\Program Files (x86)\Microsoft Visual Studio\2019\Community\VC\Tools\MSVC\14.28.29333\include\algorithm

; 305  :     auto _UFirst      = _Get_unwrapped(_First);

  00018	8b 45 f0	 mov	 eax, DWORD PTR $T4[ebp]
  0001b	89 45 fc	 mov	 DWORD PTR __UFirst$[ebp], eax
; File C:\Program Files (x86)\Microsoft Visual Studio\2019\Community\VC\Tools\MSVC\14.28.29333\include\vector

; 310  :         return _Unfancy(this->_Ptr);

  0001e	8b 45 0c	 mov	 eax, DWORD PTR __Last$[ebp]
  00021	89 45 ec	 mov	 DWORD PTR __Ptr$3[ebp], eax
; File C:\Program Files (x86)\Microsoft Visual Studio\2019\Community\VC\Tools\MSVC\14.28.29333\include\xstddef

; 289  :     return _Ptr;

  00024	8b 45 ec	 mov	 eax, DWORD PTR __Ptr$3[ebp]
  00027	89 45 e8	 mov	 DWORD PTR $T2[ebp], eax
; File C:\Program Files (x86)\Microsoft Visual Studio\2019\Community\VC\Tools\MSVC\14.28.29333\include\vector

; 310  :         return _Unfancy(this->_Ptr);

  0002a	8b 45 e8	 mov	 eax, DWORD PTR $T2[ebp]
  0002d	89 45 e4	 mov	 DWORD PTR $T1[ebp], eax
; File C:\Program Files (x86)\Microsoft Visual Studio\2019\Community\VC\Tools\MSVC\14.28.29333\include\algorithm

; 306  :     const auto _ULast = _Get_unwrapped(_Last);

  00030	8b 45 e4	 mov	 eax, DWORD PTR $T1[ebp]
  00033	89 45 e0	 mov	 DWORD PTR __ULast$[ebp], eax

; 307  :     for (; _UFirst != _ULast; ++_UFirst) {

  00036	eb 09		 jmp	 SHORT $LN4@for_each
$LN2@for_each:
  00038	8b 45 fc	 mov	 eax, DWORD PTR __UFirst$[ebp]
  0003b	83 c0 04	 add	 eax, 4
  0003e	89 45 fc	 mov	 DWORD PTR __UFirst$[ebp], eax
$LN4@for_each:
  00041	8b 45 fc	 mov	 eax, DWORD PTR __UFirst$[ebp]
  00044	3b 45 e0	 cmp	 eax, DWORD PTR __ULast$[ebp]
  00047	74 0b		 je	 SHORT $LN3@for_each

; 308  :         _Func(*_UFirst);

  00049	8b 45 fc	 mov	 eax, DWORD PTR __UFirst$[ebp]
  0004c	ff 30		 push	 DWORD PTR [eax]
  0004e	ff 55 10	 call	 DWORD PTR __Func$[ebp]
  00051	59		 pop	 ecx

; 309  :     }

  00052	eb e4		 jmp	 SHORT $LN2@for_each
$LN3@for_each:

; 310  : 
; 311  :     return _Func;

  00054	8b 45 10	 mov	 eax, DWORD PTR __Func$[ebp]

; 312  : }

  00057	c9		 leave
  00058	c3		 ret	 0
??$for_each@V?$_Vector_iterator@V?$_Vector_val@U?$_Simple_types@PAVCTextureAnimationCCWDecorator@NEffectUpdateDecorator@@@std@@@std@@@std@@P6AXPAVCTextureAnimationCCWDecorator@NEffectUpdateDecorator@@@Z@std@@YAP6AXPAVCTextureAnimationCCWDecorator@NEffectUpdateDecorator@@@ZV?$_Vector_iterator@V?$_Vector_val@U?$_Simple_types@PAVCTextureAnimationCCWDecorator@NEffectUpdateDecorator@@@std@@@std@@@0@1P6AX0@Z@Z ENDP ; std::for_each<std::_Vector_iterator<std::_Vector_val<std::_Simple_types<NEffectUpdateDecorator::CTextureAnimationCCWDecorator *> > >,void (__cdecl*)(NEffectUpdateDecorator::CTextureAnimationCCWDecorator *)>
_TEXT	ENDS
; Function compile flags: /Odspy
; File C:\Program Files (x86)\Microsoft Visual Studio\2019\Community\VC\Tools\MSVC\14.28.29333\include\algorithm
; File C:\Program Files (x86)\Microsoft Visual Studio\2019\Community\VC\Tools\MSVC\14.28.29333\include\vector
; File C:\Program Files (x86)\Microsoft Visual Studio\2019\Community\VC\Tools\MSVC\14.28.29333\include\xstddef
; File C:\Program Files (x86)\Microsoft Visual Studio\2019\Community\VC\Tools\MSVC\14.28.29333\include\vector
; File C:\Program Files (x86)\Microsoft Visual Studio\2019\Community\VC\Tools\MSVC\14.28.29333\include\algorithm
; File C:\Program Files (x86)\Microsoft Visual Studio\2019\Community\VC\Tools\MSVC\14.28.29333\include\vector
; File C:\Program Files (x86)\Microsoft Visual Studio\2019\Community\VC\Tools\MSVC\14.28.29333\include\xstddef
; File C:\Program Files (x86)\Microsoft Visual Studio\2019\Community\VC\Tools\MSVC\14.28.29333\include\vector
; File C:\Program Files (x86)\Microsoft Visual Studio\2019\Community\VC\Tools\MSVC\14.28.29333\include\algorithm
;	COMDAT ??$for_each@V?$_Vector_iterator@V?$_Vector_val@U?$_Simple_types@PAVCTextureAnimationCWDecorator@NEffectUpdateDecorator@@@std@@@std@@@std@@P6AXPAVCTextureAnimationCWDecorator@NEffectUpdateDecorator@@@Z@std@@YAP6AXPAVCTextureAnimationCWDecorator@NEffectUpdateDecorator@@@ZV?$_Vector_iterator@V?$_Vector_val@U?$_Simple_types@PAVCTextureAnimationCWDecorator@NEffectUpdateDecorator@@@std@@@std@@@0@1P6AX0@Z@Z
_TEXT	SEGMENT
__ULast$ = -32						; size = 4
$T1 = -28						; size = 4
$T2 = -24						; size = 4
__Ptr$3 = -20						; size = 4
$T4 = -16						; size = 4
$T5 = -12						; size = 4
__Ptr$6 = -8						; size = 4
__UFirst$ = -4						; size = 4
__First$ = 8						; size = 4
__Last$ = 12						; size = 4
__Func$ = 16						; size = 4
??$for_each@V?$_Vector_iterator@V?$_Vector_val@U?$_Simple_types@PAVCTextureAnimationCWDecorator@NEffectUpdateDecorator@@@std@@@std@@@std@@P6AXPAVCTextureAnimationCWDecorator@NEffectUpdateDecorator@@@Z@std@@YAP6AXPAVCTextureAnimationCWDecorator@NEffectUpdateDecorator@@@ZV?$_Vector_iterator@V?$_Vector_val@U?$_Simple_types@PAVCTextureAnimationCWDecorator@NEffectUpdateDecorator@@@std@@@std@@@0@1P6AX0@Z@Z PROC ; std::for_each<std::_Vector_iterator<std::_Vector_val<std::_Simple_types<NEffectUpdateDecorator::CTextureAnimationCWDecorator *> > >,void (__cdecl*)(NEffectUpdateDecorator::CTextureAnimationCWDecorator *)>, COMDAT

; 303  : _CONSTEXPR20 _Fn for_each(_InIt _First, _InIt _Last, _Fn _Func) { // perform function for each element [_First, _Last)

  00000	55		 push	 ebp
  00001	8b ec		 mov	 ebp, esp
  00003	83 ec 20	 sub	 esp, 32			; 00000020H
; File C:\Program Files (x86)\Microsoft Visual Studio\2019\Community\VC\Tools\MSVC\14.28.29333\include\vector

; 310  :         return _Unfancy(this->_Ptr);

  00006	8b 45 08	 mov	 eax, DWORD PTR __First$[ebp]
  00009	89 45 f8	 mov	 DWORD PTR __Ptr$6[ebp], eax
; File C:\Program Files (x86)\Microsoft Visual Studio\2019\Community\VC\Tools\MSVC\14.28.29333\include\xstddef

; 289  :     return _Ptr;

  0000c	8b 45 f8	 mov	 eax, DWORD PTR __Ptr$6[ebp]
  0000f	89 45 f4	 mov	 DWORD PTR $T5[ebp], eax
; File C:\Program Files (x86)\Microsoft Visual Studio\2019\Community\VC\Tools\MSVC\14.28.29333\include\vector

; 310  :         return _Unfancy(this->_Ptr);

  00012	8b 45 f4	 mov	 eax, DWORD PTR $T5[ebp]
  00015	89 45 f0	 mov	 DWORD PTR $T4[ebp], eax
; File C:\Program Files (x86)\Microsoft Visual Studio\2019\Community\VC\Tools\MSVC\14.28.29333\include\algorithm

; 305  :     auto _UFirst      = _Get_unwrapped(_First);

  00018	8b 45 f0	 mov	 eax, DWORD PTR $T4[ebp]
  0001b	89 45 fc	 mov	 DWORD PTR __UFirst$[ebp], eax
; File C:\Program Files (x86)\Microsoft Visual Studio\2019\Community\VC\Tools\MSVC\14.28.29333\include\vector

; 310  :         return _Unfancy(this->_Ptr);

  0001e	8b 45 0c	 mov	 eax, DWORD PTR __Last$[ebp]
  00021	89 45 ec	 mov	 DWORD PTR __Ptr$3[ebp], eax
; File C:\Program Files (x86)\Microsoft Visual Studio\2019\Community\VC\Tools\MSVC\14.28.29333\include\xstddef

; 289  :     return _Ptr;

  00024	8b 45 ec	 mov	 eax, DWORD PTR __Ptr$3[ebp]
  00027	89 45 e8	 mov	 DWORD PTR $T2[ebp], eax
; File C:\Program Files (x86)\Microsoft Visual Studio\2019\Community\VC\Tools\MSVC\14.28.29333\include\vector

; 310  :         return _Unfancy(this->_Ptr);

  0002a	8b 45 e8	 mov	 eax, DWORD PTR $T2[ebp]
  0002d	89 45 e4	 mov	 DWORD PTR $T1[ebp], eax
; File C:\Program Files (x86)\Microsoft Visual Studio\2019\Community\VC\Tools\MSVC\14.28.29333\include\algorithm

; 306  :     const auto _ULast = _Get_unwrapped(_Last);

  00030	8b 45 e4	 mov	 eax, DWORD PTR $T1[ebp]
  00033	89 45 e0	 mov	 DWORD PTR __ULast$[ebp], eax

; 307  :     for (; _UFirst != _ULast; ++_UFirst) {

  00036	eb 09		 jmp	 SHORT $LN4@for_each
$LN2@for_each:
  00038	8b 45 fc	 mov	 eax, DWORD PTR __UFirst$[ebp]
  0003b	83 c0 04	 add	 eax, 4
  0003e	89 45 fc	 mov	 DWORD PTR __UFirst$[ebp], eax
$LN4@for_each:
  00041	8b 45 fc	 mov	 eax, DWORD PTR __UFirst$[ebp]
  00044	3b 45 e0	 cmp	 eax, DWORD PTR __ULast$[ebp]
  00047	74 0b		 je	 SHORT $LN3@for_each

; 308  :         _Func(*_UFirst);

  00049	8b 45 fc	 mov	 eax, DWORD PTR __UFirst$[ebp]
  0004c	ff 30		 push	 DWORD PTR [eax]
  0004e	ff 55 10	 call	 DWORD PTR __Func$[ebp]
  00051	59		 pop	 ecx

; 309  :     }

  00052	eb e4		 jmp	 SHORT $LN2@for_each
$LN3@for_each:

; 310  : 
; 311  :     return _Func;

  00054	8b 45 10	 mov	 eax, DWORD PTR __Func$[ebp]

; 312  : }

  00057	c9		 leave
  00058	c3		 ret	 0
??$for_each@V?$_Vector_iterator@V?$_Vector_val@U?$_Simple_types@PAVCTextureAnimationCWDecorator@NEffectUpdateDecorator@@@std@@@std@@@std@@P6AXPAVCTextureAnimationCWDecorator@NEffectUpdateDecorator@@@Z@std@@YAP6AXPAVCTextureAnimationCWDecorator@NEffectUpdateDecorator@@@ZV?$_Vector_iterator@V?$_Vector_val@U?$_Simple_types@PAVCTextureAnimationCWDecorator@NEffectUpdateDecorator@@@std@@@std@@@0@1P6AX0@Z@Z ENDP ; std::for_each<std::_Vector_iterator<std::_Vector_val<std::_Simple_types<NEffectUpdateDecorator::CTextureAnimationCWDecorator *> > >,void (__cdecl*)(NEffectUpdateDecorator::CTextureAnimationCWDecorator *)>
_TEXT	ENDS
; Function compile flags: /Odspy
; File C:\Program Files (x86)\Microsoft Visual Studio\2019\Community\VC\Tools\MSVC\14.28.29333\include\algorithm
; File C:\Program Files (x86)\Microsoft Visual Studio\2019\Community\VC\Tools\MSVC\14.28.29333\include\vector
; File C:\Program Files (x86)\Microsoft Visual Studio\2019\Community\VC\Tools\MSVC\14.28.29333\include\xstddef
; File C:\Program Files (x86)\Microsoft Visual Studio\2019\Community\VC\Tools\MSVC\14.28.29333\include\vector
; File C:\Program Files (x86)\Microsoft Visual Studio\2019\Community\VC\Tools\MSVC\14.28.29333\include\algorithm
; File C:\Program Files (x86)\Microsoft Visual Studio\2019\Community\VC\Tools\MSVC\14.28.29333\include\vector
; File C:\Program Files (x86)\Microsoft Visual Studio\2019\Community\VC\Tools\MSVC\14.28.29333\include\xstddef
; File C:\Program Files (x86)\Microsoft Visual Studio\2019\Community\VC\Tools\MSVC\14.28.29333\include\vector
; File C:\Program Files (x86)\Microsoft Visual Studio\2019\Community\VC\Tools\MSVC\14.28.29333\include\algorithm
;	COMDAT ??$for_each@V?$_Vector_iterator@V?$_Vector_val@U?$_Simple_types@PAVCNullDecorator@NEffectUpdateDecorator@@@std@@@std@@@std@@P6AXPAVCNullDecorator@NEffectUpdateDecorator@@@Z@std@@YAP6AXPAVCNullDecorator@NEffectUpdateDecorator@@@ZV?$_Vector_iterator@V?$_Vector_val@U?$_Simple_types@PAVCNullDecorator@NEffectUpdateDecorator@@@std@@@std@@@0@1P6AX0@Z@Z
_TEXT	SEGMENT
__ULast$ = -32						; size = 4
$T1 = -28						; size = 4
$T2 = -24						; size = 4
__Ptr$3 = -20						; size = 4
$T4 = -16						; size = 4
$T5 = -12						; size = 4
__Ptr$6 = -8						; size = 4
__UFirst$ = -4						; size = 4
__First$ = 8						; size = 4
__Last$ = 12						; size = 4
__Func$ = 16						; size = 4
??$for_each@V?$_Vector_iterator@V?$_Vector_val@U?$_Simple_types@PAVCNullDecorator@NEffectUpdateDecorator@@@std@@@std@@@std@@P6AXPAVCNullDecorator@NEffectUpdateDecorator@@@Z@std@@YAP6AXPAVCNullDecorator@NEffectUpdateDecorator@@@ZV?$_Vector_iterator@V?$_Vector_val@U?$_Simple_types@PAVCNullDecorator@NEffectUpdateDecorator@@@std@@@std@@@0@1P6AX0@Z@Z PROC ; std::for_each<std::_Vector_iterator<std::_Vector_val<std::_Simple_types<NEffectUpdateDecorator::CNullDecorator *> > >,void (__cdecl*)(NEffectUpdateDecorator::CNullDecorator *)>, COMDAT

; 303  : _CONSTEXPR20 _Fn for_each(_InIt _First, _InIt _Last, _Fn _Func) { // perform function for each element [_First, _Last)

  00000	55		 push	 ebp
  00001	8b ec		 mov	 ebp, esp
  00003	83 ec 20	 sub	 esp, 32			; 00000020H
; File C:\Program Files (x86)\Microsoft Visual Studio\2019\Community\VC\Tools\MSVC\14.28.29333\include\vector

; 310  :         return _Unfancy(this->_Ptr);

  00006	8b 45 08	 mov	 eax, DWORD PTR __First$[ebp]
  00009	89 45 f8	 mov	 DWORD PTR __Ptr$6[ebp], eax
; File C:\Program Files (x86)\Microsoft Visual Studio\2019\Community\VC\Tools\MSVC\14.28.29333\include\xstddef

; 289  :     return _Ptr;

  0000c	8b 45 f8	 mov	 eax, DWORD PTR __Ptr$6[ebp]
  0000f	89 45 f4	 mov	 DWORD PTR $T5[ebp], eax
; File C:\Program Files (x86)\Microsoft Visual Studio\2019\Community\VC\Tools\MSVC\14.28.29333\include\vector

; 310  :         return _Unfancy(this->_Ptr);

  00012	8b 45 f4	 mov	 eax, DWORD PTR $T5[ebp]
  00015	89 45 f0	 mov	 DWORD PTR $T4[ebp], eax
; File C:\Program Files (x86)\Microsoft Visual Studio\2019\Community\VC\Tools\MSVC\14.28.29333\include\algorithm

; 305  :     auto _UFirst      = _Get_unwrapped(_First);

  00018	8b 45 f0	 mov	 eax, DWORD PTR $T4[ebp]
  0001b	89 45 fc	 mov	 DWORD PTR __UFirst$[ebp], eax
; File C:\Program Files (x86)\Microsoft Visual Studio\2019\Community\VC\Tools\MSVC\14.28.29333\include\vector

; 310  :         return _Unfancy(this->_Ptr);

  0001e	8b 45 0c	 mov	 eax, DWORD PTR __Last$[ebp]
  00021	89 45 ec	 mov	 DWORD PTR __Ptr$3[ebp], eax
; File C:\Program Files (x86)\Microsoft Visual Studio\2019\Community\VC\Tools\MSVC\14.28.29333\include\xstddef

; 289  :     return _Ptr;

  00024	8b 45 ec	 mov	 eax, DWORD PTR __Ptr$3[ebp]
  00027	89 45 e8	 mov	 DWORD PTR $T2[ebp], eax
; File C:\Program Files (x86)\Microsoft Visual Studio\2019\Community\VC\Tools\MSVC\14.28.29333\include\vector

; 310  :         return _Unfancy(this->_Ptr);

  0002a	8b 45 e8	 mov	 eax, DWORD PTR $T2[ebp]
  0002d	89 45 e4	 mov	 DWORD PTR $T1[ebp], eax
; File C:\Program Files (x86)\Microsoft Visual Studio\2019\Community\VC\Tools\MSVC\14.28.29333\include\algorithm

; 306  :     const auto _ULast = _Get_unwrapped(_Last);

  00030	8b 45 e4	 mov	 eax, DWORD PTR $T1[ebp]
  00033	89 45 e0	 mov	 DWORD PTR __ULast$[ebp], eax

; 307  :     for (; _UFirst != _ULast; ++_UFirst) {

  00036	eb 09		 jmp	 SHORT $LN4@for_each
$LN2@for_each:
  00038	8b 45 fc	 mov	 eax, DWORD PTR __UFirst$[ebp]
  0003b	83 c0 04	 add	 eax, 4
  0003e	89 45 fc	 mov	 DWORD PTR __UFirst$[ebp], eax
$LN4@for_each:
  00041	8b 45 fc	 mov	 eax, DWORD PTR __UFirst$[ebp]
  00044	3b 45 e0	 cmp	 eax, DWORD PTR __ULast$[ebp]
  00047	74 0b		 je	 SHORT $LN3@for_each

; 308  :         _Func(*_UFirst);

  00049	8b 45 fc	 mov	 eax, DWORD PTR __UFirst$[ebp]
  0004c	ff 30		 push	 DWORD PTR [eax]
  0004e	ff 55 10	 call	 DWORD PTR __Func$[ebp]
  00051	59		 pop	 ecx

; 309  :     }

  00052	eb e4		 jmp	 SHORT $LN2@for_each
$LN3@for_each:

; 310  : 
; 311  :     return _Func;

  00054	8b 45 10	 mov	 eax, DWORD PTR __Func$[ebp]

; 312  : }

  00057	c9		 leave
  00058	c3		 ret	 0
??$for_each@V?$_Vector_iterator@V?$_Vector_val@U?$_Simple_types@PAVCNullDecorator@NEffectUpdateDecorator@@@std@@@std@@@std@@P6AXPAVCNullDecorator@NEffectUpdateDecorator@@@Z@std@@YAP6AXPAVCNullDecorator@NEffectUpdateDecorator@@@ZV?$_Vector_iterator@V?$_Vector_val@U?$_Simple_types@PAVCNullDecorator@NEffectUpdateDecorator@@@std@@@std@@@0@1P6AX0@Z@Z ENDP ; std::for_each<std::_Vector_iterator<std::_Vector_val<std::_Simple_types<NEffectUpdateDecorator::CNullDecorator *> > >,void (__cdecl*)(NEffectUpdateDecorator::CNullDecorator *)>
_TEXT	ENDS
; Function compile flags: /Odspy
; File C:\Program Files (x86)\Microsoft Visual Studio\2019\Community\VC\Tools\MSVC\14.28.29333\include\algorithm
; File C:\Program Files (x86)\Microsoft Visual Studio\2019\Community\VC\Tools\MSVC\14.28.29333\include\vector
; File C:\Program Files (x86)\Microsoft Visual Studio\2019\Community\VC\Tools\MSVC\14.28.29333\include\xstddef
; File C:\Program Files (x86)\Microsoft Visual Studio\2019\Community\VC\Tools\MSVC\14.28.29333\include\vector
; File C:\Program Files (x86)\Microsoft Visual Studio\2019\Community\VC\Tools\MSVC\14.28.29333\include\algorithm
; File C:\Program Files (x86)\Microsoft Visual Studio\2019\Community\VC\Tools\MSVC\14.28.29333\include\vector
; File C:\Program Files (x86)\Microsoft Visual Studio\2019\Community\VC\Tools\MSVC\14.28.29333\include\xstddef
; File C:\Program Files (x86)\Microsoft Visual Studio\2019\Community\VC\Tools\MSVC\14.28.29333\include\vector
; File C:\Program Files (x86)\Microsoft Visual Studio\2019\Community\VC\Tools\MSVC\14.28.29333\include\algorithm
;	COMDAT ??$for_each@V?$_Vector_iterator@V?$_Vector_val@U?$_Simple_types@PAVCHeaderDecorator@NEffectUpdateDecorator@@@std@@@std@@@std@@P6AXPAVCHeaderDecorator@NEffectUpdateDecorator@@@Z@std@@YAP6AXPAVCHeaderDecorator@NEffectUpdateDecorator@@@ZV?$_Vector_iterator@V?$_Vector_val@U?$_Simple_types@PAVCHeaderDecorator@NEffectUpdateDecorator@@@std@@@std@@@0@1P6AX0@Z@Z
_TEXT	SEGMENT
__ULast$ = -32						; size = 4
$T1 = -28						; size = 4
$T2 = -24						; size = 4
__Ptr$3 = -20						; size = 4
$T4 = -16						; size = 4
$T5 = -12						; size = 4
__Ptr$6 = -8						; size = 4
__UFirst$ = -4						; size = 4
__First$ = 8						; size = 4
__Last$ = 12						; size = 4
__Func$ = 16						; size = 4
??$for_each@V?$_Vector_iterator@V?$_Vector_val@U?$_Simple_types@PAVCHeaderDecorator@NEffectUpdateDecorator@@@std@@@std@@@std@@P6AXPAVCHeaderDecorator@NEffectUpdateDecorator@@@Z@std@@YAP6AXPAVCHeaderDecorator@NEffectUpdateDecorator@@@ZV?$_Vector_iterator@V?$_Vector_val@U?$_Simple_types@PAVCHeaderDecorator@NEffectUpdateDecorator@@@std@@@std@@@0@1P6AX0@Z@Z PROC ; std::for_each<std::_Vector_iterator<std::_Vector_val<std::_Simple_types<NEffectUpdateDecorator::CHeaderDecorator *> > >,void (__cdecl*)(NEffectUpdateDecorator::CHeaderDecorator *)>, COMDAT

; 303  : _CONSTEXPR20 _Fn for_each(_InIt _First, _InIt _Last, _Fn _Func) { // perform function for each element [_First, _Last)

  00000	55		 push	 ebp
  00001	8b ec		 mov	 ebp, esp
  00003	83 ec 20	 sub	 esp, 32			; 00000020H
; File C:\Program Files (x86)\Microsoft Visual Studio\2019\Community\VC\Tools\MSVC\14.28.29333\include\vector

; 310  :         return _Unfancy(this->_Ptr);

  00006	8b 45 08	 mov	 eax, DWORD PTR __First$[ebp]
  00009	89 45 f8	 mov	 DWORD PTR __Ptr$6[ebp], eax
; File C:\Program Files (x86)\Microsoft Visual Studio\2019\Community\VC\Tools\MSVC\14.28.29333\include\xstddef

; 289  :     return _Ptr;

  0000c	8b 45 f8	 mov	 eax, DWORD PTR __Ptr$6[ebp]
  0000f	89 45 f4	 mov	 DWORD PTR $T5[ebp], eax
; File C:\Program Files (x86)\Microsoft Visual Studio\2019\Community\VC\Tools\MSVC\14.28.29333\include\vector

; 310  :         return _Unfancy(this->_Ptr);

  00012	8b 45 f4	 mov	 eax, DWORD PTR $T5[ebp]
  00015	89 45 f0	 mov	 DWORD PTR $T4[ebp], eax
; File C:\Program Files (x86)\Microsoft Visual Studio\2019\Community\VC\Tools\MSVC\14.28.29333\include\algorithm

; 305  :     auto _UFirst      = _Get_unwrapped(_First);

  00018	8b 45 f0	 mov	 eax, DWORD PTR $T4[ebp]
  0001b	89 45 fc	 mov	 DWORD PTR __UFirst$[ebp], eax
; File C:\Program Files (x86)\Microsoft Visual Studio\2019\Community\VC\Tools\MSVC\14.28.29333\include\vector

; 310  :         return _Unfancy(this->_Ptr);

  0001e	8b 45 0c	 mov	 eax, DWORD PTR __Last$[ebp]
  00021	89 45 ec	 mov	 DWORD PTR __Ptr$3[ebp], eax
; File C:\Program Files (x86)\Microsoft Visual Studio\2019\Community\VC\Tools\MSVC\14.28.29333\include\xstddef

; 289  :     return _Ptr;

  00024	8b 45 ec	 mov	 eax, DWORD PTR __Ptr$3[ebp]
  00027	89 45 e8	 mov	 DWORD PTR $T2[ebp], eax
; File C:\Program Files (x86)\Microsoft Visual Studio\2019\Community\VC\Tools\MSVC\14.28.29333\include\vector

; 310  :         return _Unfancy(this->_Ptr);

  0002a	8b 45 e8	 mov	 eax, DWORD PTR $T2[ebp]
  0002d	89 45 e4	 mov	 DWORD PTR $T1[ebp], eax
; File C:\Program Files (x86)\Microsoft Visual Studio\2019\Community\VC\Tools\MSVC\14.28.29333\include\algorithm

; 306  :     const auto _ULast = _Get_unwrapped(_Last);

  00030	8b 45 e4	 mov	 eax, DWORD PTR $T1[ebp]
  00033	89 45 e0	 mov	 DWORD PTR __ULast$[ebp], eax

; 307  :     for (; _UFirst != _ULast; ++_UFirst) {

  00036	eb 09		 jmp	 SHORT $LN4@for_each
$LN2@for_each:
  00038	8b 45 fc	 mov	 eax, DWORD PTR __UFirst$[ebp]
  0003b	83 c0 04	 add	 eax, 4
  0003e	89 45 fc	 mov	 DWORD PTR __UFirst$[ebp], eax
$LN4@for_each:
  00041	8b 45 fc	 mov	 eax, DWORD PTR __UFirst$[ebp]
  00044	3b 45 e0	 cmp	 eax, DWORD PTR __ULast$[ebp]
  00047	74 0b		 je	 SHORT $LN3@for_each

; 308  :         _Func(*_UFirst);

  00049	8b 45 fc	 mov	 eax, DWORD PTR __UFirst$[ebp]
  0004c	ff 30		 push	 DWORD PTR [eax]
  0004e	ff 55 10	 call	 DWORD PTR __Func$[ebp]
  00051	59		 pop	 ecx

; 309  :     }

  00052	eb e4		 jmp	 SHORT $LN2@for_each
$LN3@for_each:

; 310  : 
; 311  :     return _Func;

  00054	8b 45 10	 mov	 eax, DWORD PTR __Func$[ebp]

; 312  : }

  00057	c9		 leave
  00058	c3		 ret	 0
??$for_each@V?$_Vector_iterator@V?$_Vector_val@U?$_Simple_types@PAVCHeaderDecorator@NEffectUpdateDecorator@@@std@@@std@@@std@@P6AXPAVCHeaderDecorator@NEffectUpdateDecorator@@@Z@std@@YAP6AXPAVCHeaderDecorator@NEffectUpdateDecorator@@@ZV?$_Vector_iterator@V?$_Vector_val@U?$_Simple_types@PAVCHeaderDecorator@NEffectUpdateDecorator@@@std@@@std@@@0@1P6AX0@Z@Z ENDP ; std::for_each<std::_Vector_iterator<std::_Vector_val<std::_Simple_types<NEffectUpdateDecorator::CHeaderDecorator *> > >,void (__cdecl*)(NEffectUpdateDecorator::CHeaderDecorator *)>
_TEXT	ENDS
; Function compile flags: /Odspy
;	COMDAT ??_G?$CDynamicPoolEx@VCHeaderDecorator@NEffectUpdateDecorator@@@@UAEPAXI@Z
_TEXT	SEGMENT
_this$ = -4						; size = 4
___flags$ = 8						; size = 4
??_G?$CDynamicPoolEx@VCHeaderDecorator@NEffectUpdateDecorator@@@@UAEPAXI@Z PROC ; CDynamicPoolEx<NEffectUpdateDecorator::CHeaderDecorator>::`scalar deleting destructor', COMDAT
; _this$ = ecx
  00000	55		 push	 ebp
  00001	8b ec		 mov	 ebp, esp
  00003	51		 push	 ecx
  00004	89 4d fc	 mov	 DWORD PTR _this$[ebp], ecx
  00007	8b 4d fc	 mov	 ecx, DWORD PTR _this$[ebp]
  0000a	e8 00 00 00 00	 call	 ??1?$CDynamicPoolEx@VCHeaderDecorator@NEffectUpdateDecorator@@@@UAE@XZ ; CDynamicPoolEx<NEffectUpdateDecorator::CHeaderDecorator>::~CDynamicPoolEx<NEffectUpdateDecorator::CHeaderDecorator>
  0000f	8b 45 08	 mov	 eax, DWORD PTR ___flags$[ebp]
  00012	83 e0 01	 and	 eax, 1
  00015	74 0c		 je	 SHORT $LN2@scalar
  00017	6a 24		 push	 36			; 00000024H
  00019	ff 75 fc	 push	 DWORD PTR _this$[ebp]
  0001c	e8 00 00 00 00	 call	 ??3@YAXPAXI@Z		; operator delete
  00021	59		 pop	 ecx
  00022	59		 pop	 ecx
$LN2@scalar:
  00023	8b 45 fc	 mov	 eax, DWORD PTR _this$[ebp]
  00026	c9		 leave
  00027	c2 04 00	 ret	 4
??_G?$CDynamicPoolEx@VCHeaderDecorator@NEffectUpdateDecorator@@@@UAEPAXI@Z ENDP ; CDynamicPoolEx<NEffectUpdateDecorator::CHeaderDecorator>::`scalar deleting destructor'
_TEXT	ENDS
; Function compile flags: /Odspy
; File C:\Program Files (x86)\Microsoft Visual Studio\2019\Community\VC\Tools\MSVC\14.28.29333\include\vector
; File C:\Program Files (x86)\Microsoft Visual Studio\2019\Community\VC\Tools\MSVC\14.28.29333\include\xmemory
; File C:\Program Files (x86)\Microsoft Visual Studio\2019\Community\VC\Tools\MSVC\14.28.29333\include\vector
; File C:\Program Files (x86)\Microsoft Visual Studio\2019\Community\VC\Tools\MSVC\14.28.29333\include\xmemory
; File C:\Program Files (x86)\Microsoft Visual Studio\2019\Community\VC\Tools\MSVC\14.28.29333\include\vector
; File C:\Program Files (x86)\Microsoft Visual Studio\2019\Community\VC\Tools\MSVC\14.28.29333\include\xmemory
; File C:\Program Files (x86)\Microsoft Visual Studio\2019\Community\VC\Tools\MSVC\14.28.29333\include\vector
;	COMDAT ?_Tidy@?$vector@PAVCHeaderDecorator@NEffectUpdateDecorator@@V?$allocator@PAVCHeaderDecorator@NEffectUpdateDecorator@@@std@@@std@@AAEXXZ
_TEXT	SEGMENT
$T1 = -52						; size = 4
__Ptr$ = -48						; size = 4
__Count$ = -44						; size = 4
$T2 = -40						; size = 4
__First$ = -36						; size = 4
__Last$ = -32						; size = 4
$T3 = -28						; size = 4
$T4 = -24						; size = 4
__Myend$ = -20						; size = 4
__Mylast$ = -16						; size = 4
_this$ = -12						; size = 4
__My_data$ = -8						; size = 4
__Myfirst$ = -4						; size = 4
?_Tidy@?$vector@PAVCHeaderDecorator@NEffectUpdateDecorator@@V?$allocator@PAVCHeaderDecorator@NEffectUpdateDecorator@@@std@@@std@@AAEXXZ PROC ; std::vector<NEffectUpdateDecorator::CHeaderDecorator *,std::allocator<NEffectUpdateDecorator::CHeaderDecorator *> >::_Tidy, COMDAT
; _this$ = ecx

; 1686 :     void _Tidy() noexcept { // free all storage

  00000	55		 push	 ebp
  00001	8b ec		 mov	 ebp, esp
  00003	83 ec 34	 sub	 esp, 52			; 00000034H
  00006	89 4d f4	 mov	 DWORD PTR _this$[ebp], ecx

; 1687 :         auto& _My_data    = _Mypair._Myval2;

  00009	8b 45 f4	 mov	 eax, DWORD PTR _this$[ebp]
  0000c	89 45 f8	 mov	 DWORD PTR __My_data$[ebp], eax

; 1688 :         pointer& _Myfirst = _My_data._Myfirst;

  0000f	8b 45 f8	 mov	 eax, DWORD PTR __My_data$[ebp]
  00012	89 45 fc	 mov	 DWORD PTR __Myfirst$[ebp], eax

; 1689 :         pointer& _Mylast  = _My_data._Mylast;

  00015	8b 45 f8	 mov	 eax, DWORD PTR __My_data$[ebp]
  00018	83 c0 04	 add	 eax, 4
  0001b	89 45 f0	 mov	 DWORD PTR __Mylast$[ebp], eax

; 1690 :         pointer& _Myend   = _My_data._Myend;

  0001e	8b 45 f8	 mov	 eax, DWORD PTR __My_data$[ebp]
  00021	83 c0 08	 add	 eax, 8
  00024	89 45 ec	 mov	 DWORD PTR __Myend$[ebp], eax

; 1691 : 
; 1692 :         _My_data._Orphan_all();
; 1693 : 
; 1694 :         if (_Myfirst) { // destroy and deallocate old array

  00027	8b 45 fc	 mov	 eax, DWORD PTR __Myfirst$[ebp]
  0002a	83 38 00	 cmp	 DWORD PTR [eax], 0
  0002d	74 74		 je	 SHORT $LN3@Tidy

; 1695 :             _Destroy(_Myfirst, _Mylast);

  0002f	8b 45 f0	 mov	 eax, DWORD PTR __Mylast$[ebp]
  00032	8b 00		 mov	 eax, DWORD PTR [eax]
  00034	89 45 e0	 mov	 DWORD PTR __Last$[ebp], eax
  00037	8b 45 fc	 mov	 eax, DWORD PTR __Myfirst$[ebp]
  0003a	8b 00		 mov	 eax, DWORD PTR [eax]
  0003c	89 45 dc	 mov	 DWORD PTR __First$[ebp], eax

; 1733 :         return _Mypair._Get_first();

  0003f	8b 45 f4	 mov	 eax, DWORD PTR _this$[ebp]
; File C:\Program Files (x86)\Microsoft Visual Studio\2019\Community\VC\Tools\MSVC\14.28.29333\include\xmemory

; 1347 :         return *this;

  00042	89 45 e8	 mov	 DWORD PTR $T4[ebp], eax
; File C:\Program Files (x86)\Microsoft Visual Studio\2019\Community\VC\Tools\MSVC\14.28.29333\include\vector

; 1733 :         return _Mypair._Get_first();

  00045	8b 45 e8	 mov	 eax, DWORD PTR $T4[ebp]
  00048	89 45 e4	 mov	 DWORD PTR $T3[ebp], eax

; 1612 :         _Destroy_range(_First, _Last, _Getal());

  0004b	ff 75 e4	 push	 DWORD PTR $T3[ebp]
  0004e	ff 75 e0	 push	 DWORD PTR __Last$[ebp]
  00051	ff 75 dc	 push	 DWORD PTR __First$[ebp]
  00054	e8 00 00 00 00	 call	 ??$_Destroy_range@V?$allocator@PAVCHeaderDecorator@NEffectUpdateDecorator@@@std@@@std@@YAXPAPAVCHeaderDecorator@NEffectUpdateDecorator@@QAPAV12@AAV?$allocator@PAVCHeaderDecorator@NEffectUpdateDecorator@@@0@@Z ; std::_Destroy_range<std::allocator<NEffectUpdateDecorator::CHeaderDecorator *> >
  00059	83 c4 0c	 add	 esp, 12			; 0000000cH

; 1733 :         return _Mypair._Get_first();

  0005c	8b 45 f4	 mov	 eax, DWORD PTR _this$[ebp]
; File C:\Program Files (x86)\Microsoft Visual Studio\2019\Community\VC\Tools\MSVC\14.28.29333\include\xmemory

; 1347 :         return *this;

  0005f	89 45 d8	 mov	 DWORD PTR $T2[ebp], eax
; File C:\Program Files (x86)\Microsoft Visual Studio\2019\Community\VC\Tools\MSVC\14.28.29333\include\vector

; 1733 :         return _Mypair._Get_first();

  00062	8b 45 d8	 mov	 eax, DWORD PTR $T2[ebp]
  00065	89 45 cc	 mov	 DWORD PTR $T1[ebp], eax

; 1696 :             _Getal().deallocate(_Myfirst, static_cast<size_type>(_Myend - _Myfirst));

  00068	8b 45 ec	 mov	 eax, DWORD PTR __Myend$[ebp]
  0006b	8b 4d fc	 mov	 ecx, DWORD PTR __Myfirst$[ebp]
  0006e	8b 00		 mov	 eax, DWORD PTR [eax]
  00070	2b 01		 sub	 eax, DWORD PTR [ecx]
  00072	c1 f8 02	 sar	 eax, 2
  00075	89 45 d4	 mov	 DWORD PTR __Count$[ebp], eax
  00078	8b 45 fc	 mov	 eax, DWORD PTR __Myfirst$[ebp]
  0007b	8b 00		 mov	 eax, DWORD PTR [eax]
  0007d	89 45 d0	 mov	 DWORD PTR __Ptr$[ebp], eax
; File C:\Program Files (x86)\Microsoft Visual Studio\2019\Community\VC\Tools\MSVC\14.28.29333\include\xmemory

; 810  :         _Deallocate<_New_alignof<_Ty>>(_Ptr, sizeof(_Ty) * _Count);

  00080	8b 45 d4	 mov	 eax, DWORD PTR __Count$[ebp]
  00083	c1 e0 02	 shl	 eax, 2
  00086	50		 push	 eax
  00087	ff 75 d0	 push	 DWORD PTR __Ptr$[ebp]
  0008a	e8 00 00 00 00	 call	 ??$_Deallocate@$07$0A@@std@@YAXPAXI@Z ; std::_Deallocate<8,0>
  0008f	59		 pop	 ecx
  00090	59		 pop	 ecx
; File C:\Program Files (x86)\Microsoft Visual Studio\2019\Community\VC\Tools\MSVC\14.28.29333\include\vector

; 1698 :             _Myfirst = pointer();

  00091	8b 45 fc	 mov	 eax, DWORD PTR __Myfirst$[ebp]
  00094	83 20 00	 and	 DWORD PTR [eax], 0

; 1699 :             _Mylast  = pointer();

  00097	8b 45 f0	 mov	 eax, DWORD PTR __Mylast$[ebp]
  0009a	83 20 00	 and	 DWORD PTR [eax], 0

; 1700 :             _Myend   = pointer();

  0009d	8b 45 ec	 mov	 eax, DWORD PTR __Myend$[ebp]
  000a0	83 20 00	 and	 DWORD PTR [eax], 0
$LN3@Tidy:

; 1701 :         }
; 1702 :     }

  000a3	c9		 leave
  000a4	c3		 ret	 0
?_Tidy@?$vector@PAVCHeaderDecorator@NEffectUpdateDecorator@@V?$allocator@PAVCHeaderDecorator@NEffectUpdateDecorator@@@std@@@std@@AAEXXZ ENDP ; std::vector<NEffectUpdateDecorator::CHeaderDecorator *,std::allocator<NEffectUpdateDecorator::CHeaderDecorator *> >::_Tidy
_TEXT	ENDS
; Function compile flags: /Odspy
; File C:\Program Files (x86)\Microsoft Visual Studio\2019\Community\VC\Tools\MSVC\14.28.29333\include\vector
; File C:\Program Files (x86)\Microsoft Visual Studio\2019\Community\VC\Tools\MSVC\14.28.29333\include\xmemory
; File C:\Program Files (x86)\Microsoft Visual Studio\2019\Community\VC\Tools\MSVC\14.28.29333\include\vector
;	COMDAT ?clear@?$vector@PAVCHeaderDecorator@NEffectUpdateDecorator@@V?$allocator@PAVCHeaderDecorator@NEffectUpdateDecorator@@@std@@@std@@QAEXXZ
_TEXT	SEGMENT
__First$ = -32						; size = 4
__Last$ = -28						; size = 4
$T1 = -24						; size = 4
$T2 = -20						; size = 4
__Myfirst$ = -16					; size = 4
__Mylast$ = -12						; size = 4
_this$ = -8						; size = 4
__My_data$ = -4						; size = 4
?clear@?$vector@PAVCHeaderDecorator@NEffectUpdateDecorator@@V?$allocator@PAVCHeaderDecorator@NEffectUpdateDecorator@@@std@@@std@@QAEXXZ PROC ; std::vector<NEffectUpdateDecorator::CHeaderDecorator *,std::allocator<NEffectUpdateDecorator::CHeaderDecorator *> >::clear, COMDAT
; _this$ = ecx

; 1383 :     void clear() noexcept { // erase all

  00000	55		 push	 ebp
  00001	8b ec		 mov	 ebp, esp
  00003	83 ec 20	 sub	 esp, 32			; 00000020H
  00006	89 4d f8	 mov	 DWORD PTR _this$[ebp], ecx

; 1384 :         auto& _My_data    = _Mypair._Myval2;

  00009	8b 45 f8	 mov	 eax, DWORD PTR _this$[ebp]
  0000c	89 45 fc	 mov	 DWORD PTR __My_data$[ebp], eax

; 1385 :         pointer& _Myfirst = _My_data._Myfirst;

  0000f	8b 45 fc	 mov	 eax, DWORD PTR __My_data$[ebp]
  00012	89 45 f0	 mov	 DWORD PTR __Myfirst$[ebp], eax

; 1386 :         pointer& _Mylast  = _My_data._Mylast;

  00015	8b 45 fc	 mov	 eax, DWORD PTR __My_data$[ebp]
  00018	83 c0 04	 add	 eax, 4
  0001b	89 45 f4	 mov	 DWORD PTR __Mylast$[ebp], eax

; 1387 : 
; 1388 :         _My_data._Orphan_all();
; 1389 :         _Destroy(_Myfirst, _Mylast);

  0001e	8b 45 f4	 mov	 eax, DWORD PTR __Mylast$[ebp]
  00021	8b 00		 mov	 eax, DWORD PTR [eax]
  00023	89 45 e4	 mov	 DWORD PTR __Last$[ebp], eax
  00026	8b 45 f0	 mov	 eax, DWORD PTR __Myfirst$[ebp]
  00029	8b 00		 mov	 eax, DWORD PTR [eax]
  0002b	89 45 e0	 mov	 DWORD PTR __First$[ebp], eax

; 1733 :         return _Mypair._Get_first();

  0002e	8b 45 f8	 mov	 eax, DWORD PTR _this$[ebp]
; File C:\Program Files (x86)\Microsoft Visual Studio\2019\Community\VC\Tools\MSVC\14.28.29333\include\xmemory

; 1347 :         return *this;

  00031	89 45 ec	 mov	 DWORD PTR $T2[ebp], eax
; File C:\Program Files (x86)\Microsoft Visual Studio\2019\Community\VC\Tools\MSVC\14.28.29333\include\vector

; 1733 :         return _Mypair._Get_first();

  00034	8b 45 ec	 mov	 eax, DWORD PTR $T2[ebp]
  00037	89 45 e8	 mov	 DWORD PTR $T1[ebp], eax

; 1612 :         _Destroy_range(_First, _Last, _Getal());

  0003a	ff 75 e8	 push	 DWORD PTR $T1[ebp]
  0003d	ff 75 e4	 push	 DWORD PTR __Last$[ebp]
  00040	ff 75 e0	 push	 DWORD PTR __First$[ebp]
  00043	e8 00 00 00 00	 call	 ??$_Destroy_range@V?$allocator@PAVCHeaderDecorator@NEffectUpdateDecorator@@@std@@@std@@YAXPAPAVCHeaderDecorator@NEffectUpdateDecorator@@QAPAV12@AAV?$allocator@PAVCHeaderDecorator@NEffectUpdateDecorator@@@0@@Z ; std::_Destroy_range<std::allocator<NEffectUpdateDecorator::CHeaderDecorator *> >
  00048	83 c4 0c	 add	 esp, 12			; 0000000cH

; 1390 :         _Mylast = _Myfirst;

  0004b	8b 45 f4	 mov	 eax, DWORD PTR __Mylast$[ebp]
  0004e	8b 4d f0	 mov	 ecx, DWORD PTR __Myfirst$[ebp]
  00051	8b 09		 mov	 ecx, DWORD PTR [ecx]
  00053	89 08		 mov	 DWORD PTR [eax], ecx

; 1391 :     }

  00055	c9		 leave
  00056	c3		 ret	 0
?clear@?$vector@PAVCHeaderDecorator@NEffectUpdateDecorator@@V?$allocator@PAVCHeaderDecorator@NEffectUpdateDecorator@@@std@@@std@@QAEXXZ ENDP ; std::vector<NEffectUpdateDecorator::CHeaderDecorator *,std::allocator<NEffectUpdateDecorator::CHeaderDecorator *> >::clear
_TEXT	ENDS
; Function compile flags: /Odspy
; File D:\Metin2 Server Files\mainline\SRC_2014\Metin2Client\eterLib\Pool.h
;	COMDAT ?Delete@?$CDynamicPoolEx@VCHeaderDecorator@NEffectUpdateDecorator@@@@KAXPAVCHeaderDecorator@NEffectUpdateDecorator@@@Z
_TEXT	SEGMENT
_pkData$ = 8						; size = 4
?Delete@?$CDynamicPoolEx@VCHeaderDecorator@NEffectUpdateDecorator@@@@KAXPAVCHeaderDecorator@NEffectUpdateDecorator@@@Z PROC ; CDynamicPoolEx<NEffectUpdateDecorator::CHeaderDecorator>::Delete, COMDAT

; 223  : 		{

  00000	55		 push	 ebp
  00001	8b ec		 mov	 ebp, esp

; 224  : 			::operator delete(pkData);

  00003	ff 75 08	 push	 DWORD PTR _pkData$[ebp]
  00006	e8 00 00 00 00	 call	 ??3@YAXPAX@Z		; operator delete
  0000b	59		 pop	 ecx

; 225  : 		}

  0000c	5d		 pop	 ebp
  0000d	c3		 ret	 0
?Delete@?$CDynamicPoolEx@VCHeaderDecorator@NEffectUpdateDecorator@@@@KAXPAVCHeaderDecorator@NEffectUpdateDecorator@@@Z ENDP ; CDynamicPoolEx<NEffectUpdateDecorator::CHeaderDecorator>::Delete
_TEXT	ENDS
; Function compile flags: /Odspy
; File D:\Metin2 Server Files\mainline\SRC_2014\Metin2Client\eterLib\Pool.h
; File C:\Program Files (x86)\Microsoft Visual Studio\2019\Community\VC\Tools\MSVC\14.28.29333\include\vector
; File C:\Program Files (x86)\Microsoft Visual Studio\2019\Community\VC\Tools\MSVC\14.28.29333\include\xstddef
; File C:\Program Files (x86)\Microsoft Visual Studio\2019\Community\VC\Tools\MSVC\14.28.29333\include\vector
; File C:\Program Files (x86)\Microsoft Visual Studio\2019\Community\VC\Tools\MSVC\14.28.29333\include\xstddef
; File C:\Program Files (x86)\Microsoft Visual Studio\2019\Community\VC\Tools\MSVC\14.28.29333\include\vector
; File D:\Metin2 Server Files\mainline\SRC_2014\Metin2Client\eterLib\Pool.h
;	COMDAT ?Destroy@?$CDynamicPoolEx@VCHeaderDecorator@NEffectUpdateDecorator@@@@QAEXXZ
_TEXT	SEGMENT
$T1 = -44						; size = 4
$T2 = -40						; size = 4
$T3 = -36						; size = 4
$T4 = -32						; size = 4
$T5 = -28						; size = 4
___param0$ = -24					; size = 4
$T6 = -20						; size = 4
___param0$ = -16					; size = 4
__My_data$7 = -12					; size = 4
__My_data$8 = -8					; size = 4
_this$ = -4						; size = 4
?Destroy@?$CDynamicPoolEx@VCHeaderDecorator@NEffectUpdateDecorator@@@@QAEXXZ PROC ; CDynamicPoolEx<NEffectUpdateDecorator::CHeaderDecorator>::Destroy, COMDAT
; _this$ = ecx

; 150  : 		{

  00000	55		 push	 ebp
  00001	8b ec		 mov	 ebp, esp
  00003	83 ec 2c	 sub	 esp, 44			; 0000002cH
  00006	89 4d fc	 mov	 DWORD PTR _this$[ebp], ecx
; File C:\Program Files (x86)\Microsoft Visual Studio\2019\Community\VC\Tools\MSVC\14.28.29333\include\vector

; 1420 :         auto& _My_data = _Mypair._Myval2;

  00009	8b 45 fc	 mov	 eax, DWORD PTR _this$[ebp]
  0000c	83 c0 04	 add	 eax, 4
  0000f	89 45 f8	 mov	 DWORD PTR __My_data$8[ebp], eax
; File C:\Program Files (x86)\Microsoft Visual Studio\2019\Community\VC\Tools\MSVC\14.28.29333\include\xstddef

; 275  :     return __builtin_addressof(_Val);

  00012	8b 45 f8	 mov	 eax, DWORD PTR __My_data$8[ebp]
  00015	89 45 d8	 mov	 DWORD PTR $T2[ebp], eax
; File C:\Program Files (x86)\Microsoft Visual Studio\2019\Community\VC\Tools\MSVC\14.28.29333\include\vector

