; Listing generated by Microsoft (R) Optimizing Compiler Version 19.28.29335.0 

	TITLE	D:\Metin2 Server Files\mainline\SRC_2014\Metin2Client\UserInterface\PythonItemModule.cpp
	.686P
	.XMM
	include listing.inc
	.model	flat

INCLUDELIB LIBCMT
INCLUDELIB OLDNAMES

PUBLIC	??_H@YGXPAXIIP6EPAX0@Z@Z			; `vector constructor iterator'
PUBLIC	?__empty_global_delete@@YAXPAX@Z		; __empty_global_delete
PUBLIC	?__empty_global_delete@@YAXPAXI@Z		; __empty_global_delete
PUBLIC	??0exception@std@@QAE@ABV01@@Z			; std::exception::exception
PUBLIC	?what@exception@std@@UBEPBDXZ			; std::exception::what
PUBLIC	??_Gexception@std@@UAEPAXI@Z			; std::exception::`scalar deleting destructor'
PUBLIC	??0bad_alloc@std@@QAE@ABV01@@Z			; std::bad_alloc::bad_alloc
PUBLIC	??_Gbad_alloc@std@@UAEPAXI@Z			; std::bad_alloc::`scalar deleting destructor'
PUBLIC	??0bad_array_new_length@std@@QAE@XZ		; std::bad_array_new_length::bad_array_new_length
PUBLIC	??1bad_array_new_length@std@@UAE@XZ		; std::bad_array_new_length::~bad_array_new_length
PUBLIC	??0bad_array_new_length@std@@QAE@ABV01@@Z	; std::bad_array_new_length::bad_array_new_length
PUBLIC	??_Gbad_array_new_length@std@@UAEPAXI@Z		; std::bad_array_new_length::`scalar deleting destructor'
PUBLIC	?_Throw_bad_array_new_length@std@@YAXXZ		; std::_Throw_bad_array_new_length
PUBLIC	?_Adjust_manually_vector_aligned@std@@YAXAAPAXAAI@Z ; std::_Adjust_manually_vector_aligned
PUBLIC	?_Xlen_string@std@@YAXXZ			; std::_Xlen_string
PUBLIC	?_Myptr@?$_String_val@U?$_Simple_types@D@std@@@std@@QAEPADXZ ; std::_String_val<std::_Simple_types<char> >::_Myptr
PUBLIC	?_Myptr@?$_String_val@U?$_Simple_types@D@std@@@std@@QBEPBDXZ ; std::_String_val<std::_Simple_types<char> >::_Myptr
PUBLIC	??0?$basic_string@DU?$char_traits@D@std@@V?$allocator@D@2@@std@@QAE@QBD@Z ; std::basic_string<char,std::char_traits<char>,std::allocator<char> >::basic_string<char,std::char_traits<char>,std::allocator<char> >
PUBLIC	??1?$basic_string@DU?$char_traits@D@std@@V?$allocator@D@2@@std@@QAE@XZ ; std::basic_string<char,std::char_traits<char>,std::allocator<char> >::~basic_string<char,std::char_traits<char>,std::allocator<char> >
PUBLIC	?assign@?$basic_string@DU?$char_traits@D@std@@V?$allocator@D@2@@std@@QAEAAV12@QBDI@Z ; std::basic_string<char,std::char_traits<char>,std::allocator<char> >::assign
PUBLIC	?max_size@?$basic_string@DU?$char_traits@D@std@@V?$allocator@D@2@@std@@QBEIXZ ; std::basic_string<char,std::char_traits<char>,std::allocator<char> >::max_size
PUBLIC	?_Calculate_growth@?$basic_string@DU?$char_traits@D@std@@V?$allocator@D@2@@std@@ABEII@Z ; std::basic_string<char,std::char_traits<char>,std::allocator<char> >::_Calculate_growth
PUBLIC	?_Tidy_init@?$basic_string@DU?$char_traits@D@std@@V?$allocator@D@2@@std@@AAEXXZ ; std::basic_string<char,std::char_traits<char>,std::allocator<char> >::_Tidy_init
PUBLIC	?_Tidy_deallocate@?$basic_string@DU?$char_traits@D@std@@V?$allocator@D@2@@std@@AAEXXZ ; std::basic_string<char,std::char_traits<char>,std::allocator<char> >::_Tidy_deallocate
PUBLIC	??1?$_Compressed_pair@V?$allocator@D@std@@V?$_String_val@U?$_Simple_types@D@std@@@2@$00@std@@QAE@XZ ; std::_Compressed_pair<std::allocator<char>,std::_String_val<std::_Simple_types<char> >,1>::~_Compressed_pair<std::allocator<char>,std::_String_val<std::_Simple_types<char> >,1>
PUBLIC	?initItem@@YAXXZ				; initItem
PUBLIC	??$_Destroy_in_place@PAD@std@@YAXAAPAD@Z	; std::_Destroy_in_place<char *>
PUBLIC	??$_Reallocate_for@V<lambda_9366063389c5f42a00a5088cf24e69de>@@PBD@?$basic_string@DU?$char_traits@D@std@@V?$allocator@D@2@@std@@AAEAAV01@IV<lambda_9366063389c5f42a00a5088cf24e69de>@@PBD@Z ; std::basic_string<char,std::char_traits<char>,std::allocator<char> >::_Reallocate_for<<lambda_9366063389c5f42a00a5088cf24e69de>,char const *>
PUBLIC	??$_Construct_in_place@PADABQAD@std@@YAXAAPADABQAD@Z ; std::_Construct_in_place<char *,char * const &>
PUBLIC	??$_Deallocate@$07$0A@@std@@YAXPAXI@Z		; std::_Deallocate<8,0>
PUBLIC	??$_Allocate@$07U_Default_allocate_traits@std@@$0A@@std@@YAPAXI@Z ; std::_Allocate<8,std::_Default_allocate_traits,0>
PUBLIC	??$_Allocate_manually_vector_aligned@U_Default_allocate_traits@std@@@std@@YAPAXI@Z ; std::_Allocate_manually_vector_aligned<std::_Default_allocate_traits>
PUBLIC	?itemSetUseSoundFileName@@YAPAU_object@@PAU1@0@Z ; itemSetUseSoundFileName
PUBLIC	?itemSetDropSoundFileName@@YAPAU_object@@PAU1@0@Z ; itemSetDropSoundFileName
PUBLIC	?itemSelectItem@@YAPAU_object@@PAU1@0@Z		; itemSelectItem
PUBLIC	?itemGetItemName@@YAPAU_object@@PAU1@0@Z	; itemGetItemName
PUBLIC	?itemGetItemDescription@@YAPAU_object@@PAU1@0@Z	; itemGetItemDescription
PUBLIC	?itemGetItemSummary@@YAPAU_object@@PAU1@0@Z	; itemGetItemSummary
PUBLIC	?itemGetIconImage@@YAPAU_object@@PAU1@0@Z	; itemGetIconImage
PUBLIC	?itemGetIconImageFileName@@YAPAU_object@@PAU1@0@Z ; itemGetIconImageFileName
PUBLIC	?itemGetItemSize@@YAPAU_object@@PAU1@0@Z	; itemGetItemSize
PUBLIC	?itemGetItemType@@YAPAU_object@@PAU1@0@Z	; itemGetItemType
PUBLIC	?itemGetItemSubType@@YAPAU_object@@PAU1@0@Z	; itemGetItemSubType
PUBLIC	?itemGetIBuyItemPrice@@YAPAU_object@@PAU1@0@Z	; itemGetIBuyItemPrice
PUBLIC	?itemGetISellItemPrice@@YAPAU_object@@PAU1@0@Z	; itemGetISellItemPrice
PUBLIC	?itemIsAntiFlag@@YAPAU_object@@PAU1@0@Z		; itemIsAntiFlag
PUBLIC	?itemIsFlag@@YAPAU_object@@PAU1@0@Z		; itemIsFlag
PUBLIC	?itemIsWearableFlag@@YAPAU_object@@PAU1@0@Z	; itemIsWearableFlag
PUBLIC	?itemIs1GoldItem@@YAPAU_object@@PAU1@0@Z	; itemIs1GoldItem
PUBLIC	?itemGetLimit@@YAPAU_object@@PAU1@0@Z		; itemGetLimit
PUBLIC	?itemGetAffect@@YAPAU_object@@PAU1@0@Z		; itemGetAffect
PUBLIC	?itemGetValue@@YAPAU_object@@PAU1@0@Z		; itemGetValue
PUBLIC	?itemGetSocket@@YAPAU_object@@PAU1@0@Z		; itemGetSocket
PUBLIC	?itemGetIconInstance@@YAPAU_object@@PAU1@0@Z	; itemGetIconInstance
PUBLIC	?itemDeleteIconInstance@@YAPAU_object@@PAU1@0@Z	; itemDeleteIconInstance
PUBLIC	?itemIsEquipmentVID@@YAPAU_object@@PAU1@0@Z	; itemIsEquipmentVID
PUBLIC	?itemGetUseType@@YAPAU_object@@PAU1@0@Z		; itemGetUseType
PUBLIC	?itemIsRefineScroll@@YAPAU_object@@PAU1@0@Z	; itemIsRefineScroll
PUBLIC	?itemIsDetachScroll@@YAPAU_object@@PAU1@0@Z	; itemIsDetachScroll
PUBLIC	?itemCanAddToQuickSlotItem@@YAPAU_object@@PAU1@0@Z ; itemCanAddToQuickSlotItem
PUBLIC	?itemIsKey@@YAPAU_object@@PAU1@0@Z		; itemIsKey
PUBLIC	?itemIsMetin@@YAPAU_object@@PAU1@0@Z		; itemIsMetin
PUBLIC	?itemRender@@YAPAU_object@@PAU1@0@Z		; itemRender
PUBLIC	?itemUpdate@@YAPAU_object@@PAU1@0@Z		; itemUpdate
PUBLIC	?itemCreateItem@@YAPAU_object@@PAU1@0@Z		; itemCreateItem
PUBLIC	?itemDeleteItem@@YAPAU_object@@PAU1@0@Z		; itemDeleteItem
PUBLIC	?itemPick@@YAPAU_object@@PAU1@0@Z		; itemPick
PUBLIC	?itemLoadItemTable@@YAPAU_object@@PAU1@0@Z	; itemLoadItemTable
PUBLIC	??0?$CDynamicPoolEx@VCRotationDecorator@NEffectUpdateDecorator@@@@QAE@XZ ; CDynamicPoolEx<NEffectUpdateDecorator::CRotationDecorator>::CDynamicPoolEx<NEffectUpdateDecorator::CRotationDecorator>
PUBLIC	??1?$CDynamicPoolEx@VCRotationDecorator@NEffectUpdateDecorator@@@@UAE@XZ ; CDynamicPoolEx<NEffectUpdateDecorator::CRotationDecorator>::~CDynamicPoolEx<NEffectUpdateDecorator::CRotationDecorator>
PUBLIC	?Destroy@?$CDynamicPoolEx@VCRotationDecorator@NEffectUpdateDecorator@@@@QAEXXZ ; CDynamicPoolEx<NEffectUpdateDecorator::CRotationDecorator>::Destroy
PUBLIC	?Delete@?$CDynamicPoolEx@VCRotationDecorator@NEffectUpdateDecorator@@@@KAXPAVCRotationDecorator@NEffectUpdateDecorator@@@Z ; CDynamicPoolEx<NEffectUpdateDecorator::CRotationDecorator>::Delete
PUBLIC	?clear@?$vector@PAVCRotationDecorator@NEffectUpdateDecorator@@V?$allocator@PAVCRotationDecorator@NEffectUpdateDecorator@@@std@@@std@@QAEXXZ ; std::vector<NEffectUpdateDecorator::CRotationDecorator *,std::allocator<NEffectUpdateDecorator::CRotationDecorator *> >::clear
PUBLIC	?_Tidy@?$vector@PAVCRotationDecorator@NEffectUpdateDecorator@@V?$allocator@PAVCRotationDecorator@NEffectUpdateDecorator@@@std@@@std@@AAEXXZ ; std::vector<NEffectUpdateDecorator::CRotationDecorator *,std::allocator<NEffectUpdateDecorator::CRotationDecorator *> >::_Tidy
PUBLIC	??_G?$CDynamicPoolEx@VCRotationDecorator@NEffectUpdateDecorator@@@@UAEPAXI@Z ; CDynamicPoolEx<NEffectUpdateDecorator::CRotationDecorator>::`scalar deleting destructor'
PUBLIC	??0?$CDynamicPoolEx@VCGravityDecorator@NEffectUpdateDecorator@@@@QAE@XZ ; CDynamicPoolEx<NEffectUpdateDecorator::CGravityDecorator>::CDynamicPoolEx<NEffectUpdateDecorator::CGravityDecorator>
PUBLIC	??1?$CDynamicPoolEx@VCGravityDecorator@NEffectUpdateDecorator@@@@UAE@XZ ; CDynamicPoolEx<NEffectUpdateDecorator::CGravityDecorator>::~CDynamicPoolEx<NEffectUpdateDecorator::CGravityDecorator>
PUBLIC	?Destroy@?$CDynamicPoolEx@VCGravityDecorator@NEffectUpdateDecorator@@@@QAEXXZ ; CDynamicPoolEx<NEffectUpdateDecorator::CGravityDecorator>::Destroy
PUBLIC	?Delete@?$CDynamicPoolEx@VCGravityDecorator@NEffectUpdateDecorator@@@@KAXPAVCGravityDecorator@NEffectUpdateDecorator@@@Z ; CDynamicPoolEx<NEffectUpdateDecorator::CGravityDecorator>::Delete
PUBLIC	?clear@?$vector@PAVCGravityDecorator@NEffectUpdateDecorator@@V?$allocator@PAVCGravityDecorator@NEffectUpdateDecorator@@@std@@@std@@QAEXXZ ; std::vector<NEffectUpdateDecorator::CGravityDecorator *,std::allocator<NEffectUpdateDecorator::CGravityDecorator *> >::clear
PUBLIC	?_Tidy@?$vector@PAVCGravityDecorator@NEffectUpdateDecorator@@V?$allocator@PAVCGravityDecorator@NEffectUpdateDecorator@@@std@@@std@@AAEXXZ ; std::vector<NEffectUpdateDecorator::CGravityDecorator *,std::allocator<NEffectUpdateDecorator::CGravityDecorator *> >::_Tidy
PUBLIC	??_G?$CDynamicPoolEx@VCGravityDecorator@NEffectUpdateDecorator@@@@UAEPAXI@Z ; CDynamicPoolEx<NEffectUpdateDecorator::CGravityDecorator>::`scalar deleting destructor'
PUBLIC	??0?$CDynamicPoolEx@VCAirResistanceDecorator@NEffectUpdateDecorator@@@@QAE@XZ ; CDynamicPoolEx<NEffectUpdateDecorator::CAirResistanceDecorator>::CDynamicPoolEx<NEffectUpdateDecorator::CAirResistanceDecorator>
PUBLIC	??1?$CDynamicPoolEx@VCAirResistanceDecorator@NEffectUpdateDecorator@@@@UAE@XZ ; CDynamicPoolEx<NEffectUpdateDecorator::CAirResistanceDecorator>::~CDynamicPoolEx<NEffectUpdateDecorator::CAirResistanceDecorator>
PUBLIC	?Destroy@?$CDynamicPoolEx@VCAirResistanceDecorator@NEffectUpdateDecorator@@@@QAEXXZ ; CDynamicPoolEx<NEffectUpdateDecorator::CAirResistanceDecorator>::Destroy
PUBLIC	?Delete@?$CDynamicPoolEx@VCAirResistanceDecorator@NEffectUpdateDecorator@@@@KAXPAVCAirResistanceDecorator@NEffectUpdateDecorator@@@Z ; CDynamicPoolEx<NEffectUpdateDecorator::CAirResistanceDecorator>::Delete
PUBLIC	?clear@?$vector@PAVCAirResistanceDecorator@NEffectUpdateDecorator@@V?$allocator@PAVCAirResistanceDecorator@NEffectUpdateDecorator@@@std@@@std@@QAEXXZ ; std::vector<NEffectUpdateDecorator::CAirResistanceDecorator *,std::allocator<NEffectUpdateDecorator::CAirResistanceDecorator *> >::clear
PUBLIC	?_Tidy@?$vector@PAVCAirResistanceDecorator@NEffectUpdateDecorator@@V?$allocator@PAVCAirResistanceDecorator@NEffectUpdateDecorator@@@std@@@std@@AAEXXZ ; std::vector<NEffectUpdateDecorator::CAirResistanceDecorator *,std::allocator<NEffectUpdateDecorator::CAirResistanceDecorator *> >::_Tidy
PUBLIC	??_G?$CDynamicPoolEx@VCAirResistanceDecorator@NEffectUpdateDecorator@@@@UAEPAXI@Z ; CDynamicPoolEx<NEffectUpdateDecorator::CAirResistanceDecorator>::`scalar deleting destructor'
PUBLIC	??0?$CDynamicPoolEx@VCTextureAnimationRandomDecorator@NEffectUpdateDecorator@@@@QAE@XZ ; CDynamicPoolEx<NEffectUpdateDecorator::CTextureAnimationRandomDecorator>::CDynamicPoolEx<NEffectUpdateDecorator::CTextureAnimationRandomDecorator>
PUBLIC	??1?$CDynamicPoolEx@VCTextureAnimationRandomDecorator@NEffectUpdateDecorator@@@@UAE@XZ ; CDynamicPoolEx<NEffectUpdateDecorator::CTextureAnimationRandomDecorator>::~CDynamicPoolEx<NEffectUpdateDecorator::CTextureAnimationRandomDecorator>
PUBLIC	?Destroy@?$CDynamicPoolEx@VCTextureAnimationRandomDecorator@NEffectUpdateDecorator@@@@QAEXXZ ; CDynamicPoolEx<NEffectUpdateDecorator::CTextureAnimationRandomDecorator>::Destroy
PUBLIC	?Delete@?$CDynamicPoolEx@VCTextureAnimationRandomDecorator@NEffectUpdateDecorator@@@@KAXPAVCTextureAnimationRandomDecorator@NEffectUpdateDecorator@@@Z ; CDynamicPoolEx<NEffectUpdateDecorator::CTextureAnimationRandomDecorator>::Delete
PUBLIC	?clear@?$vector@PAVCTextureAnimationRandomDecorator@NEffectUpdateDecorator@@V?$allocator@PAVCTextureAnimationRandomDecorator@NEffectUpdateDecorator@@@std@@@std@@QAEXXZ ; std::vector<NEffectUpdateDecorator::CTextureAnimationRandomDecorator *,std::allocator<NEffectUpdateDecorator::CTextureAnimationRandomDecorator *> >::clear
PUBLIC	?_Tidy@?$vector@PAVCTextureAnimationRandomDecorator@NEffectUpdateDecorator@@V?$allocator@PAVCTextureAnimationRandomDecorator@NEffectUpdateDecorator@@@std@@@std@@AAEXXZ ; std::vector<NEffectUpdateDecorator::CTextureAnimationRandomDecorator *,std::allocator<NEffectUpdateDecorator::CTextureAnimationRandomDecorator *> >::_Tidy
PUBLIC	??_G?$CDynamicPoolEx@VCTextureAnimationRandomDecorator@NEffectUpdateDecorator@@@@UAEPAXI@Z ; CDynamicPoolEx<NEffectUpdateDecorator::CTextureAnimationRandomDecorator>::`scalar deleting destructor'
PUBLIC	??0?$CDynamicPoolEx@VCTextureAnimationCCWDecorator@NEffectUpdateDecorator@@@@QAE@XZ ; CDynamicPoolEx<NEffectUpdateDecorator::CTextureAnimationCCWDecorator>::CDynamicPoolEx<NEffectUpdateDecorator::CTextureAnimationCCWDecorator>
PUBLIC	??1?$CDynamicPoolEx@VCTextureAnimationCCWDecorator@NEffectUpdateDecorator@@@@UAE@XZ ; CDynamicPoolEx<NEffectUpdateDecorator::CTextureAnimationCCWDecorator>::~CDynamicPoolEx<NEffectUpdateDecorator::CTextureAnimationCCWDecorator>
PUBLIC	?Destroy@?$CDynamicPoolEx@VCTextureAnimationCCWDecorator@NEffectUpdateDecorator@@@@QAEXXZ ; CDynamicPoolEx<NEffectUpdateDecorator::CTextureAnimationCCWDecorator>::Destroy
PUBLIC	?Delete@?$CDynamicPoolEx@VCTextureAnimationCCWDecorator@NEffectUpdateDecorator@@@@KAXPAVCTextureAnimationCCWDecorator@NEffectUpdateDecorator@@@Z ; CDynamicPoolEx<NEffectUpdateDecorator::CTextureAnimationCCWDecorator>::Delete
PUBLIC	?clear@?$vector@PAVCTextureAnimationCCWDecorator@NEffectUpdateDecorator@@V?$allocator@PAVCTextureAnimationCCWDecorator@NEffectUpdateDecorator@@@std@@@std@@QAEXXZ ; std::vector<NEffectUpdateDecorator::CTextureAnimationCCWDecorator *,std::allocator<NEffectUpdateDecorator::CTextureAnimationCCWDecorator *> >::clear
PUBLIC	?_Tidy@?$vector@PAVCTextureAnimationCCWDecorator@NEffectUpdateDecorator@@V?$allocator@PAVCTextureAnimationCCWDecorator@NEffectUpdateDecorator@@@std@@@std@@AAEXXZ ; std::vector<NEffectUpdateDecorator::CTextureAnimationCCWDecorator *,std::allocator<NEffectUpdateDecorator::CTextureAnimationCCWDecorator *> >::_Tidy
PUBLIC	??_G?$CDynamicPoolEx@VCTextureAnimationCCWDecorator@NEffectUpdateDecorator@@@@UAEPAXI@Z ; CDynamicPoolEx<NEffectUpdateDecorator::CTextureAnimationCCWDecorator>::`scalar deleting destructor'
PUBLIC	??0?$CDynamicPoolEx@VCTextureAnimationCWDecorator@NEffectUpdateDecorator@@@@QAE@XZ ; CDynamicPoolEx<NEffectUpdateDecorator::CTextureAnimationCWDecorator>::CDynamicPoolEx<NEffectUpdateDecorator::CTextureAnimationCWDecorator>
PUBLIC	??1?$CDynamicPoolEx@VCTextureAnimationCWDecorator@NEffectUpdateDecorator@@@@UAE@XZ ; CDynamicPoolEx<NEffectUpdateDecorator::CTextureAnimationCWDecorator>::~CDynamicPoolEx<NEffectUpdateDecorator::CTextureAnimationCWDecorator>
PUBLIC	?Destroy@?$CDynamicPoolEx@VCTextureAnimationCWDecorator@NEffectUpdateDecorator@@@@QAEXXZ ; CDynamicPoolEx<NEffectUpdateDecorator::CTextureAnimationCWDecorator>::Destroy
PUBLIC	?Delete@?$CDynamicPoolEx@VCTextureAnimationCWDecorator@NEffectUpdateDecorator@@@@KAXPAVCTextureAnimationCWDecorator@NEffectUpdateDecorator@@@Z ; CDynamicPoolEx<NEffectUpdateDecorator::CTextureAnimationCWDecorator>::Delete
PUBLIC	?clear@?$vector@PAVCTextureAnimationCWDecorator@NEffectUpdateDecorator@@V?$allocator@PAVCTextureAnimationCWDecorator@NEffectUpdateDecorator@@@std@@@std@@QAEXXZ ; std::vector<NEffectUpdateDecorator::CTextureAnimationCWDecorator *,std::allocator<NEffectUpdateDecorator::CTextureAnimationCWDecorator *> >::clear
PUBLIC	?_Tidy@?$vector@PAVCTextureAnimationCWDecorator@NEffectUpdateDecorator@@V?$allocator@PAVCTextureAnimationCWDecorator@NEffectUpdateDecorator@@@std@@@std@@AAEXXZ ; std::vector<NEffectUpdateDecorator::CTextureAnimationCWDecorator *,std::allocator<NEffectUpdateDecorator::CTextureAnimationCWDecorator *> >::_Tidy
PUBLIC	??_G?$CDynamicPoolEx@VCTextureAnimationCWDecorator@NEffectUpdateDecorator@@@@UAEPAXI@Z ; CDynamicPoolEx<NEffectUpdateDecorator::CTextureAnimationCWDecorator>::`scalar deleting destructor'
PUBLIC	??0?$CDynamicPoolEx@VCNullDecorator@NEffectUpdateDecorator@@@@QAE@XZ ; CDynamicPoolEx<NEffectUpdateDecorator::CNullDecorator>::CDynamicPoolEx<NEffectUpdateDecorator::CNullDecorator>
PUBLIC	??1?$CDynamicPoolEx@VCNullDecorator@NEffectUpdateDecorator@@@@UAE@XZ ; CDynamicPoolEx<NEffectUpdateDecorator::CNullDecorator>::~CDynamicPoolEx<NEffectUpdateDecorator::CNullDecorator>
PUBLIC	?Destroy@?$CDynamicPoolEx@VCNullDecorator@NEffectUpdateDecorator@@@@QAEXXZ ; CDynamicPoolEx<NEffectUpdateDecorator::CNullDecorator>::Destroy
PUBLIC	?Delete@?$CDynamicPoolEx@VCNullDecorator@NEffectUpdateDecorator@@@@KAXPAVCNullDecorator@NEffectUpdateDecorator@@@Z ; CDynamicPoolEx<NEffectUpdateDecorator::CNullDecorator>::Delete
PUBLIC	?clear@?$vector@PAVCNullDecorator@NEffectUpdateDecorator@@V?$allocator@PAVCNullDecorator@NEffectUpdateDecorator@@@std@@@std@@QAEXXZ ; std::vector<NEffectUpdateDecorator::CNullDecorator *,std::allocator<NEffectUpdateDecorator::CNullDecorator *> >::clear
PUBLIC	?_Tidy@?$vector@PAVCNullDecorator@NEffectUpdateDecorator@@V?$allocator@PAVCNullDecorator@NEffectUpdateDecorator@@@std@@@std@@AAEXXZ ; std::vector<NEffectUpdateDecorator::CNullDecorator *,std::allocator<NEffectUpdateDecorator::CNullDecorator *> >::_Tidy
PUBLIC	??_G?$CDynamicPoolEx@VCNullDecorator@NEffectUpdateDecorator@@@@UAEPAXI@Z ; CDynamicPoolEx<NEffectUpdateDecorator::CNullDecorator>::`scalar deleting destructor'
PUBLIC	??0?$CDynamicPoolEx@VCHeaderDecorator@NEffectUpdateDecorator@@@@QAE@XZ ; CDynamicPoolEx<NEffectUpdateDecorator::CHeaderDecorator>::CDynamicPoolEx<NEffectUpdateDecorator::CHeaderDecorator>
PUBLIC	??1?$CDynamicPoolEx@VCHeaderDecorator@NEffectUpdateDecorator@@@@UAE@XZ ; CDynamicPoolEx<NEffectUpdateDecorator::CHeaderDecorator>::~CDynamicPoolEx<NEffectUpdateDecorator::CHeaderDecorator>
PUBLIC	?Destroy@?$CDynamicPoolEx@VCHeaderDecorator@NEffectUpdateDecorator@@@@QAEXXZ ; CDynamicPoolEx<NEffectUpdateDecorator::CHeaderDecorator>::Destroy
PUBLIC	?Delete@?$CDynamicPoolEx@VCHeaderDecorator@NEffectUpdateDecorator@@@@KAXPAVCHeaderDecorator@NEffectUpdateDecorator@@@Z ; CDynamicPoolEx<NEffectUpdateDecorator::CHeaderDecorator>::Delete
PUBLIC	?clear@?$vector@PAVCHeaderDecorator@NEffectUpdateDecorator@@V?$allocator@PAVCHeaderDecorator@NEffectUpdateDecorator@@@std@@@std@@QAEXXZ ; std::vector<NEffectUpdateDecorator::CHeaderDecorator *,std::allocator<NEffectUpdateDecorator::CHeaderDecorator *> >::clear
PUBLIC	?_Tidy@?$vector@PAVCHeaderDecorator@NEffectUpdateDecorator@@V?$allocator@PAVCHeaderDecorator@NEffectUpdateDecorator@@@std@@@std@@AAEXXZ ; std::vector<NEffectUpdateDecorator::CHeaderDecorator *,std::allocator<NEffectUpdateDecorator::CHeaderDecorator *> >::_Tidy
PUBLIC	??_G?$CDynamicPoolEx@VCHeaderDecorator@NEffectUpdateDecorator@@@@UAEPAXI@Z ; CDynamicPoolEx<NEffectUpdateDecorator::CHeaderDecorator>::`scalar deleting destructor'
PUBLIC	??$for_each@V?$_Vector_iterator@V?$_Vector_val@U?$_Simple_types@PAVCHeaderDecorator@NEffectUpdateDecorator@@@std@@@std@@@std@@P6AXPAVCHeaderDecorator@NEffectUpdateDecorator@@@Z@std@@YAP6AXPAVCHeaderDecorator@NEffectUpdateDecorator@@@ZV?$_Vector_iterator@V?$_Vector_val@U?$_Simple_types@PAVCHeaderDecorator@NEffectUpdateDecorator@@@std@@@std@@@0@1P6AX0@Z@Z ; std::for_each<std::_Vector_iterator<std::_Vector_val<std::_Simple_types<NEffectUpdateDecorator::CHeaderDecorator *> > >,void (__cdecl*)(NEffectUpdateDecorator::CHeaderDecorator *)>
PUBLIC	??$for_each@V?$_Vector_iterator@V?$_Vector_val@U?$_Simple_types@PAVCNullDecorator@NEffectUpdateDecorator@@@std@@@std@@@std@@P6AXPAVCNullDecorator@NEffectUpdateDecorator@@@Z@std@@YAP6AXPAVCNullDecorator@NEffectUpdateDecorator@@@ZV?$_Vector_iterator@V?$_Vector_val@U?$_Simple_types@PAVCNullDecorator@NEffectUpdateDecorator@@@std@@@std@@@0@1P6AX0@Z@Z ; std::for_each<std::_Vector_iterator<std::_Vector_val<std::_Simple_types<NEffectUpdateDecorator::CNullDecorator *> > >,void (__cdecl*)(NEffectUpdateDecorator::CNullDecorator *)>
PUBLIC	??$for_each@V?$_Vector_iterator@V?$_Vector_val@U?$_Simple_types@PAVCTextureAnimationCWDecorator@NEffectUpdateDecorator@@@std@@@std@@@std@@P6AXPAVCTextureAnimationCWDecorator@NEffectUpdateDecorator@@@Z@std@@YAP6AXPAVCTextureAnimationCWDecorator@NEffectUpdateDecorator@@@ZV?$_Vector_iterator@V?$_Vector_val@U?$_Simple_types@PAVCTextureAnimationCWDecorator@NEffectUpdateDecorator@@@std@@@std@@@0@1P6AX0@Z@Z ; std::for_each<std::_Vector_iterator<std::_Vector_val<std::_Simple_types<NEffectUpdateDecorator::CTextureAnimationCWDecorator *> > >,void (__cdecl*)(NEffectUpdateDecorator::CTextureAnimationCWDecorator *)>
PUBLIC	??$for_each@V?$_Vector_iterator@V?$_Vector_val@U?$_Simple_types@PAVCTextureAnimationCCWDecorator@NEffectUpdateDecorator@@@std@@@std@@@std@@P6AXPAVCTextureAnimationCCWDecorator@NEffectUpdateDecorator@@@Z@std@@YAP6AXPAVCTextureAnimationCCWDecorator@NEffectUpdateDecorator@@@ZV?$_Vector_iterator@V?$_Vector_val@U?$_Simple_types@PAVCTextureAnimationCCWDecorator@NEffectUpdateDecorator@@@std@@@std@@@0@1P6AX0@Z@Z ; std::for_each<std::_Vector_iterator<std::_Vector_val<std::_Simple_types<NEffectUpdateDecorator::CTextureAnimationCCWDecorator *> > >,void (__cdecl*)(NEffectUpdateDecorator::CTextureAnimationCCWDecorator *)>
PUBLIC	??$for_each@V?$_Vector_iterator@V?$_Vector_val@U?$_Simple_types@PAVCTextureAnimationRandomDecorator@NEffectUpdateDecorator@@@std@@@std@@@std@@P6AXPAVCTextureAnimationRandomDecorator@NEffectUpdateDecorator@@@Z@std@@YAP6AXPAVCTextureAnimationRandomDecorator@NEffectUpdateDecorator@@@ZV?$_Vector_iterator@V?$_Vector_val@U?$_Simple_types@PAVCTextureAnimationRandomDecorator@NEffectUpdateDecorator@@@std@@@std@@@0@1P6AX0@Z@Z ; std::for_each<std::_Vector_iterator<std::_Vector_val<std::_Simple_types<NEffectUpdateDecorator::CTextureAnimationRandomDecorator *> > >,void (__cdecl*)(NEffectUpdateDecorator::CTextureAnimationRandomDecorator *)>
PUBLIC	??$for_each@V?$_Vector_iterator@V?$_Vector_val@U?$_Simple_types@PAVCAirResistanceDecorator@NEffectUpdateDecorator@@@std@@@std@@@std@@P6AXPAVCAirResistanceDecorator@NEffectUpdateDecorator@@@Z@std@@YAP6AXPAVCAirResistanceDecorator@NEffectUpdateDecorator@@@ZV?$_Vector_iterator@V?$_Vector_val@U?$_Simple_types@PAVCAirResistanceDecorator@NEffectUpdateDecorator@@@std@@@std@@@0@1P6AX0@Z@Z ; std::for_each<std::_Vector_iterator<std::_Vector_val<std::_Simple_types<NEffectUpdateDecorator::CAirResistanceDecorator *> > >,void (__cdecl*)(NEffectUpdateDecorator::CAirResistanceDecorator *)>
PUBLIC	??$for_each@V?$_Vector_iterator@V?$_Vector_val@U?$_Simple_types@PAVCGravityDecorator@NEffectUpdateDecorator@@@std@@@std@@@std@@P6AXPAVCGravityDecorator@NEffectUpdateDecorator@@@Z@std@@YAP6AXPAVCGravityDecorator@NEffectUpdateDecorator@@@ZV?$_Vector_iterator@V?$_Vector_val@U?$_Simple_types@PAVCGravityDecorator@NEffectUpdateDecorator@@@std@@@std@@@0@1P6AX0@Z@Z ; std::for_each<std::_Vector_iterator<std::_Vector_val<std::_Simple_types<NEffectUpdateDecorator::CGravityDecorator *> > >,void (__cdecl*)(NEffectUpdateDecorator::CGravityDecorator *)>
PUBLIC	??$for_each@V?$_Vector_iterator@V?$_Vector_val@U?$_Simple_types@PAVCRotationDecorator@NEffectUpdateDecorator@@@std@@@std@@@std@@P6AXPAVCRotationDecorator@NEffectUpdateDecorator@@@Z@std@@YAP6AXPAVCRotationDecorator@NEffectUpdateDecorator@@@ZV?$_Vector_iterator@V?$_Vector_val@U?$_Simple_types@PAVCRotationDecorator@NEffectUpdateDecorator@@@std@@@std@@@0@1P6AX0@Z@Z ; std::for_each<std::_Vector_iterator<std::_Vector_val<std::_Simple_types<NEffectUpdateDecorator::CRotationDecorator *> > >,void (__cdecl*)(NEffectUpdateDecorator::CRotationDecorator *)>
PUBLIC	??$_Destroy_range@V?$allocator@PAVCHeaderDecorator@NEffectUpdateDecorator@@@std@@@std@@YAXPAPAVCHeaderDecorator@NEffectUpdateDecorator@@QAPAV12@AAV?$allocator@PAVCHeaderDecorator@NEffectUpdateDecorator@@@0@@Z ; std::_Destroy_range<std::allocator<NEffectUpdateDecorator::CHeaderDecorator *> >
PUBLIC	??$_Destroy_range@V?$allocator@PAVCNullDecorator@NEffectUpdateDecorator@@@std@@@std@@YAXPAPAVCNullDecorator@NEffectUpdateDecorator@@QAPAV12@AAV?$allocator@PAVCNullDecorator@NEffectUpdateDecorator@@@0@@Z ; std::_Destroy_range<std::allocator<NEffectUpdateDecorator::CNullDecorator *> >
PUBLIC	??$_Destroy_range@V?$allocator@PAVCTextureAnimationCWDecorator@NEffectUpdateDecorator@@@std@@@std@@YAXPAPAVCTextureAnimationCWDecorator@NEffectUpdateDecorator@@QAPAV12@AAV?$allocator@PAVCTextureAnimationCWDecorator@NEffectUpdateDecorator@@@0@@Z ; std::_Destroy_range<std::allocator<NEffectUpdateDecorator::CTextureAnimationCWDecorator *> >
PUBLIC	??$_Destroy_range@V?$allocator@PAVCTextureAnimationCCWDecorator@NEffectUpdateDecorator@@@std@@@std@@YAXPAPAVCTextureAnimationCCWDecorator@NEffectUpdateDecorator@@QAPAV12@AAV?$allocator@PAVCTextureAnimationCCWDecorator@NEffectUpdateDecorator@@@0@@Z ; std::_Destroy_range<std::allocator<NEffectUpdateDecorator::CTextureAnimationCCWDecorator *> >
PUBLIC	??$_Destroy_range@V?$allocator@PAVCTextureAnimationRandomDecorator@NEffectUpdateDecorator@@@std@@@std@@YAXPAPAVCTextureAnimationRandomDecorator@NEffectUpdateDecorator@@QAPAV12@AAV?$allocator@PAVCTextureAnimationRandomDecorator@NEffectUpdateDecorator@@@0@@Z ; std::_Destroy_range<std::allocator<NEffectUpdateDecorator::CTextureAnimationRandomDecorator *> >
PUBLIC	??$_Destroy_range@V?$allocator@PAVCAirResistanceDecorator@NEffectUpdateDecorator@@@std@@@std@@YAXPAPAVCAirResistanceDecorator@NEffectUpdateDecorator@@QAPAV12@AAV?$allocator@PAVCAirResistanceDecorator@NEffectUpdateDecorator@@@0@@Z ; std::_Destroy_range<std::allocator<NEffectUpdateDecorator::CAirResistanceDecorator *> >
PUBLIC	??$_Destroy_range@V?$allocator@PAVCGravityDecorator@NEffectUpdateDecorator@@@std@@@std@@YAXPAPAVCGravityDecorator@NEffectUpdateDecorator@@QAPAV12@AAV?$allocator@PAVCGravityDecorator@NEffectUpdateDecorator@@@0@@Z ; std::_Destroy_range<std::allocator<NEffectUpdateDecorator::CGravityDecorator *> >
PUBLIC	??$_Destroy_range@V?$allocator@PAVCRotationDecorator@NEffectUpdateDecorator@@@std@@@std@@YAXPAPAVCRotationDecorator@NEffectUpdateDecorator@@QAPAV12@AAV?$allocator@PAVCRotationDecorator@NEffectUpdateDecorator@@@0@@Z ; std::_Destroy_range<std::allocator<NEffectUpdateDecorator::CRotationDecorator *> >
PUBLIC	??_7exception@std@@6B@				; std::exception::`vftable'
PUBLIC	??_C@_0BC@EOODALEL@Unknown?5exception@		; `string'
PUBLIC	??_7bad_alloc@std@@6B@				; std::bad_alloc::`vftable'
PUBLIC	??_7bad_array_new_length@std@@6B@		; std::bad_array_new_length::`vftable'
PUBLIC	??_C@_0BF@KINCDENJ@bad?5array?5new?5length@	; `string'
PUBLIC	__TI3?AVbad_array_new_length@std@@
PUBLIC	__CTA3?AVbad_array_new_length@std@@
PUBLIC	??_R0?AVbad_array_new_length@std@@@8		; std::bad_array_new_length `RTTI Type Descriptor'
PUBLIC	__CT??_R0?AVbad_array_new_length@std@@@8??0bad_array_new_length@std@@QAE@ABV01@@Z12
PUBLIC	??_R0?AVbad_alloc@std@@@8			; std::bad_alloc `RTTI Type Descriptor'
PUBLIC	__CT??_R0?AVbad_alloc@std@@@8??0bad_alloc@std@@QAE@ABV01@@Z12
PUBLIC	??_R0?AVexception@std@@@8			; std::exception `RTTI Type Descriptor'
PUBLIC	__CT??_R0?AVexception@std@@@8??0exception@std@@QAE@ABV01@@Z12
PUBLIC	??_C@_0BA@JFNIOLAK@string?5too?5long@		; `string'
PUBLIC	??_R4exception@std@@6B@				; std::exception::`RTTI Complete Object Locator'
PUBLIC	??_R3exception@std@@8				; std::exception::`RTTI Class Hierarchy Descriptor'
PUBLIC	??_R2exception@std@@8				; std::exception::`RTTI Base Class Array'
PUBLIC	??_R1A@?0A@EA@exception@std@@8			; std::exception::`RTTI Base Class Descriptor at (0,-1,0,64)'
PUBLIC	??_R4bad_alloc@std@@6B@				; std::bad_alloc::`RTTI Complete Object Locator'
PUBLIC	??_R3bad_alloc@std@@8				; std::bad_alloc::`RTTI Class Hierarchy Descriptor'
PUBLIC	??_R2bad_alloc@std@@8				; std::bad_alloc::`RTTI Base Class Array'
PUBLIC	??_R1A@?0A@EA@bad_alloc@std@@8			; std::bad_alloc::`RTTI Base Class Descriptor at (0,-1,0,64)'
PUBLIC	??_R4bad_array_new_length@std@@6B@		; std::bad_array_new_length::`RTTI Complete Object Locator'
PUBLIC	??_R3bad_array_new_length@std@@8		; std::bad_array_new_length::`RTTI Class Hierarchy Descriptor'
PUBLIC	??_R2bad_array_new_length@std@@8		; std::bad_array_new_length::`RTTI Base Class Array'
PUBLIC	??_R1A@?0A@EA@bad_array_new_length@std@@8	; std::bad_array_new_length::`RTTI Base Class Descriptor at (0,-1,0,64)'
PUBLIC	?ms_singleton@?$CSingleton@VCPythonItem@@@@0PAVCPythonItem@@A ; CSingleton<CPythonItem>::ms_singleton
PUBLIC	?ms_singleton@?$CSingleton@VCItemManager@@@@0PAVCItemManager@@A ; CSingleton<CItemManager>::ms_singleton
PUBLIC	?ms_kPool@?$CPooledObject@VCHeaderDecorator@NEffectUpdateDecorator@@@@1V?$CDynamicPoolEx@VCHeaderDecorator@NEffectUpdateDecorator@@@@A ; CPooledObject<NEffectUpdateDecorator::CHeaderDecorator>::ms_kPool
PUBLIC	?ms_kPool@?$CPooledObject@VCNullDecorator@NEffectUpdateDecorator@@@@1V?$CDynamicPoolEx@VCNullDecorator@NEffectUpdateDecorator@@@@A ; CPooledObject<NEffectUpdateDecorator::CNullDecorator>::ms_kPool
PUBLIC	?ms_kPool@?$CPooledObject@VCTextureAnimationCWDecorator@NEffectUpdateDecorator@@@@1V?$CDynamicPoolEx@VCTextureAnimationCWDecorator@NEffectUpdateDecorator@@@@A ; CPooledObject<NEffectUpdateDecorator::CTextureAnimationCWDecorator>::ms_kPool
PUBLIC	?ms_kPool@?$CPooledObject@VCTextureAnimationCCWDecorator@NEffectUpdateDecorator@@@@1V?$CDynamicPoolEx@VCTextureAnimationCCWDecorator@NEffectUpdateDecorator@@@@A ; CPooledObject<NEffectUpdateDecorator::CTextureAnimationCCWDecorator>::ms_kPool
PUBLIC	?ms_kPool@?$CPooledObject@VCTextureAnimationRandomDecorator@NEffectUpdateDecorator@@@@1V?$CDynamicPoolEx@VCTextureAnimationRandomDecorator@NEffectUpdateDecorator@@@@A ; CPooledObject<NEffectUpdateDecorator::CTextureAnimationRandomDecorator>::ms_kPool
PUBLIC	?ms_kPool@?$CPooledObject@VCAirResistanceDecorator@NEffectUpdateDecorator@@@@1V?$CDynamicPoolEx@VCAirResistanceDecorator@NEffectUpdateDecorator@@@@A ; CPooledObject<NEffectUpdateDecorator::CAirResistanceDecorator>::ms_kPool
PUBLIC	?ms_kPool@?$CPooledObject@VCGravityDecorator@NEffectUpdateDecorator@@@@1V?$CDynamicPoolEx@VCGravityDecorator@NEffectUpdateDecorator@@@@A ; CPooledObject<NEffectUpdateDecorator::CGravityDecorator>::ms_kPool
PUBLIC	?ms_kPool@?$CPooledObject@VCRotationDecorator@NEffectUpdateDecorator@@@@1V?$CDynamicPoolEx@VCRotationDecorator@NEffectUpdateDecorator@@@@A ; CPooledObject<NEffectUpdateDecorator::CRotationDecorator>::ms_kPool
PUBLIC	?ms_singleton@?$TAbstractSingleton@VIAbstractApplication@@@@0PAVIAbstractApplication@@A ; TAbstractSingleton<IAbstractApplication>::ms_singleton
PUBLIC	??_C@_0BH@EOAFOHJK@Cannot?5find?5item?5by?5?$CFd@ ; `string'
PUBLIC	??_C@_0BG@LNOAJHHG@no?5selected?5item?5data@	; `string'
PUBLIC	??_C@_01LKDEMHDF@s@				; `string'
PUBLIC	??_C@_01KBJDNOO@i@				; `string'
PUBLIC	??_C@_06HCBIANPB@Noname@			; `string'
PUBLIC	??_C@_04INACLLOK@?$CIii?$CJ@			; `string'
PUBLIC	??_C@_0BJ@FJOAFFCG@Not?5yet?5select?5item?5data@ ; `string'
PUBLIC	??_C@_02PDIHAGKM@ii@				; `string'
PUBLIC	??_C@_0BM@MLEHJLDK@Cannot?5get?5icon?5image?5by?5?$CFd@ ; `string'
PUBLIC	??_C@_0BM@KPLEGEEH@Can?8t?5find?5select?5item?5data@ ; `string'
PUBLIC	??_C@_0BE@HKKEFMIC@SetUseSoundFileName@		; `string'
PUBLIC	??_C@_0BF@BODGENI@SetDropSoundFileName@		; `string'
PUBLIC	??_C@_0L@GFKKOOBA@SelectItem@			; `string'
PUBLIC	??_C@_0M@BFODJMFI@GetItemName@			; `string'
PUBLIC	??_C@_0BD@GLEOJONA@GetItemDescription@		; `string'
PUBLIC	??_C@_0P@OIBFDAMI@GetItemSummary@		; `string'
PUBLIC	??_C@_0N@IEABDKDK@GetIconImage@			; `string'
PUBLIC	??_C@_0BF@NNPLLIOE@GetIconImageFileName@	; `string'
PUBLIC	??_C@_0M@FBEOFCHB@GetItemSize@			; `string'
PUBLIC	??_C@_0M@LOOAFMCI@GetItemType@			; `string'
PUBLIC	??_C@_0P@MFCMKOKJ@GetItemSubType@		; `string'
PUBLIC	??_C@_0BB@KJGHJKGD@GetIBuyItemPrice@		; `string'
PUBLIC	??_C@_0BC@OKNBBEMG@GetISellItemPrice@		; `string'
PUBLIC	??_C@_0L@NKLNOBKA@IsAntiFlag@			; `string'
PUBLIC	??_C@_06PLFMNGGB@IsFlag@			; `string'
PUBLIC	??_C@_0P@KNFGADIE@IsWearableFlag@		; `string'
PUBLIC	??_C@_0M@IKKLMPND@Is1GoldItem@			; `string'
PUBLIC	??_C@_08KIIGDNA@GetLimit@			; `string'
PUBLIC	??_C@_09HJGEAOAM@GetAffect@			; `string'
PUBLIC	??_C@_08GGOMBHIN@GetValue@			; `string'
PUBLIC	??_C@_09ICJIFGNC@GetSocket@			; `string'
PUBLIC	??_C@_0BA@PMLMLIHH@GetIconInstance@		; `string'
PUBLIC	??_C@_0L@POCKMHMA@GetUseType@			; `string'
PUBLIC	??_C@_0BD@BNBIIKMM@DeleteIconInstance@		; `string'
PUBLIC	??_C@_0P@OGDGGJFE@IsEquipmentVID@		; `string'
PUBLIC	??_C@_0P@LGDKNEFF@IsRefineScroll@		; `string'
PUBLIC	??_C@_0P@CNNPGCCK@IsDetachScroll@		; `string'
PUBLIC	??_C@_05CEOMILKP@IsKey@				; `string'
PUBLIC	??_C@_07MLLOFDCE@IsMetin@			; `string'
PUBLIC	??_C@_0BG@FEGHIHDK@CanAddToQuickSlotItem@	; `string'
PUBLIC	??_C@_06LMAGPFNF@Update@			; `string'
PUBLIC	??_C@_06EPLDPNDB@Render@			; `string'
PUBLIC	??_C@_0L@EMDEHLJF@CreateItem@			; `string'
PUBLIC	??_C@_0L@IIJEEMCG@DeleteItem@			; `string'
PUBLIC	??_C@_04ILHILILF@Pick@				; `string'
PUBLIC	??_C@_0O@HJNOJBCJ@LoadItemTable@		; `string'
PUBLIC	??_C@_04NHONDGDE@item@				; `string'
PUBLIC	??_C@_0BD@MEKMBKPM@USESOUND_ACCESSORY@		; `string'
PUBLIC	??_C@_0P@ENGKPPPD@USESOUND_ARMOR@		; `string'
PUBLIC	??_C@_0N@MDIFIDON@USESOUND_BOW@			; `string'
PUBLIC	??_C@_0BB@BHHNCGFC@USESOUND_DEFAULT@		; `string'
PUBLIC	??_C@_0BA@IJKKKKOO@USESOUND_WEAPON@		; `string'
PUBLIC	??_C@_0BA@GIIHLHOB@USESOUND_POTION@		; `string'
PUBLIC	??_C@_0BA@HNBMICIL@USESOUND_PORTAL@		; `string'
PUBLIC	??_C@_0BE@PBPPNIPJ@DROPSOUND_ACCESSORY@		; `string'
PUBLIC	??_C@_0BA@PCCDLKKO@DROPSOUND_ARMOR@		; `string'
PUBLIC	??_C@_0O@OOJPAKOO@DROPSOUND_BOW@		; `string'
PUBLIC	??_C@_0BC@BONOAPBN@DROPSOUND_DEFAULT@		; `string'
PUBLIC	??_C@_0BB@JMMPMOOC@DROPSOUND_WEAPON@		; `string'
PUBLIC	??_C@_0BA@KJELJAII@EQUIPMENT_COUNT@		; `string'
PUBLIC	??_C@_0P@GCJFHMFC@EQUIPMENT_HEAD@		; `string'
PUBLIC	??_C@_0P@LODPCKGA@EQUIPMENT_BODY@		; `string'
PUBLIC	??_C@_0BB@IKOPOEMN@EQUIPMENT_WEAPON@		; `string'
PUBLIC	??_C@_0BA@KHENFLDC@EQUIPMENT_WRIST@		; `string'
PUBLIC	??_C@_0BA@GEANIANO@EQUIPMENT_SHOES@		; `string'
PUBLIC	??_C@_0P@GJMJEBFD@EQUIPMENT_NECK@		; `string'
PUBLIC	??_C@_0O@KNFMDJEG@EQUIPMENT_EAR@		; `string'
PUBLIC	??_C@_0BC@IBOCPGBL@EQUIPMENT_UNIQUE1@		; `string'
PUBLIC	??_C@_0BC@KKMPKFNI@EQUIPMENT_UNIQUE2@		; `string'
PUBLIC	??_C@_0BA@MLMLGDPN@EQUIPMENT_ARROW@		; `string'
PUBLIC	??_C@_0BA@HOMCMAOF@EQUIPMENT_RING1@		; `string'
PUBLIC	??_C@_0BA@FFOPJDCG@EQUIPMENT_RING2@		; `string'
PUBLIC	??_C@_0P@GKDPOFPB@EQUIPMENT_BELT@		; `string'
PUBLIC	??_C@_0P@EMFHBOCE@ITEM_TYPE_NONE@		; `string'
PUBLIC	??_C@_0BB@KIJBPCOD@ITEM_TYPE_WEAPON@		; `string'
PUBLIC	??_C@_0BA@MCMGEHMH@ITEM_TYPE_ARMOR@		; `string'
PUBLIC	??_C@_0O@EJGIJMHP@ITEM_TYPE_USE@		; `string'
PUBLIC	??_C@_0BC@PDFOCJLB@ITEM_TYPE_AUTOUSE@		; `string'
PUBLIC	??_C@_0BD@NFIKPBKO@ITEM_TYPE_MATERIAL@		; `string'
PUBLIC	??_C@_0BC@EGCNCIAP@ITEM_TYPE_SPECIAL@		; `string'
PUBLIC	??_C@_0P@LGAHEAHJ@ITEM_TYPE_TOOL@		; `string'
PUBLIC	??_C@_0BC@LGJDJIG@ITEM_TYPE_LOTTERY@		; `string'
PUBLIC	??_C@_0O@JAIIACCD@ITEM_TYPE_ELK@		; `string'
PUBLIC	??_C@_0BA@KICPPFNE@ITEM_TYPE_METIN@		; `string'
PUBLIC	??_C@_0BE@JBBPDBJM@ITEM_TYPE_CONTAINER@		; `string'
PUBLIC	??_C@_0P@PIBMEEFH@ITEM_TYPE_FISH@		; `string'
PUBLIC	??_C@_0O@NIJIMPJD@ITEM_TYPE_ROD@		; `string'
PUBLIC	??_C@_0BD@KBPLAMLF@ITEM_TYPE_RESOURCE@		; `string'
PUBLIC	??_C@_0BD@OGNHPHCL@ITEM_TYPE_CAMPFIRE@		; `string'
PUBLIC	??_C@_0BB@CPEAMAMA@ITEM_TYPE_UNIQUE@		; `string'
PUBLIC	??_C@_0BE@FAMMFDKM@ITEM_TYPE_SKILLBOOK@		; `string'
PUBLIC	??_C@_0BA@PFOCEMDB@ITEM_TYPE_QUEST@		; `string'
PUBLIC	??_C@_0BE@DGPJCLHG@ITEM_TYPE_POLYMORPH@		; `string'
PUBLIC	??_C@_0BH@MPEMDLLF@ITEM_TYPE_TREASURE_BOX@	; `string'
PUBLIC	??_C@_0BH@KGMIMAKI@ITEM_TYPE_TREASURE_KEY@	; `string'
PUBLIC	??_C@_0P@CALHNGMG@ITEM_TYPE_PICK@		; `string'
PUBLIC	??_C@_0BA@EDGMOLIF@ITEM_TYPE_BLEND@		; `string'
PUBLIC	??_C@_0N@BKIJEOLO@ITEM_TYPE_DS@			; `string'
PUBLIC	??_C@_0BF@GGLFIBNL@ITEM_TYPE_SPECIAL_DS@	; `string'
PUBLIC	??_C@_0P@POBKFJPJ@ITEM_TYPE_RING@		; `string'
PUBLIC	??_C@_0P@LGEHOEDP@ITEM_TYPE_BELT@		; `string'
PUBLIC	??_C@_0BC@GOFIPFBN@ITEM_TYPE_COSTUME@		; `string'
PUBLIC	??_C@_0BC@IBLNMJBH@COSTUME_TYPE_BODY@		; `string'
PUBLIC	??_C@_0BC@MAPOOMBN@COSTUME_TYPE_HAIR@		; `string'
PUBLIC	??_C@_0BD@JCGACLBK@COSTUME_SLOT_START@		; `string'
PUBLIC	??_C@_0BD@EMMBBFMO@COSTUME_SLOT_COUNT@		; `string'
PUBLIC	??_C@_0BC@OBAEGBKN@COSTUME_SLOT_BODY@		; `string'
PUBLIC	??_C@_0BC@KAEHEEKH@COSTUME_SLOT_HAIR@		; `string'
PUBLIC	??_C@_0BB@IEFLAOJF@COSTUME_SLOT_END@		; `string'
PUBLIC	??_C@_0BK@JAICDGKA@BELT_INVENTORY_SLOT_START@	; `string'
PUBLIC	??_C@_0BK@EOCDAIHE@BELT_INVENTORY_SLOT_COUNT@	; `string'
PUBLIC	??_C@_0BI@GPHFDCEJ@BELT_INVENTORY_SLOT_END@	; `string'
PUBLIC	??_C@_0N@FCLCNMLC@WEAPON_SWORD@			; `string'
PUBLIC	??_C@_0O@IMDDJKDH@WEAPON_DAGGER@		; `string'
PUBLIC	??_C@_0L@KDNCAJJM@WEAPON_BOW@			; `string'
PUBLIC	??_C@_0BC@OILJBHHK@WEAPON_TWO_HANDED@		; `string'
PUBLIC	??_C@_0M@NKBIKBJK@WEAPON_BELL@			; `string'
PUBLIC	??_C@_0L@LNCOBKNJ@WEAPON_FAN@			; `string'
PUBLIC	??_C@_0N@DCOAOKB@WEAPON_ARROW@			; `string'
PUBLIC	??_C@_0BB@KFDFBDPL@WEAPON_NUM_TYPES@		; `string'
PUBLIC	??_C@_0L@DENJCCNI@USE_POTION@			; `string'
PUBLIC	??_C@_0N@CINBPLKM@USE_TALISMAN@			; `string'
PUBLIC	??_C@_0L@JIILHJGL@USE_TUNING@			; `string'
PUBLIC	??_C@_08JHFKMGGA@USE_MOVE@			; `string'
PUBLIC	??_C@_0BB@BBPDKOFG@USE_TREASURE_BOX@		; `string'
PUBLIC	??_C@_0N@BOHEHPFI@USE_MONEYBAG@			; `string'
PUBLIC	??_C@_08LBHGOBNP@USE_BAIT@			; `string'
PUBLIC	??_C@_0P@JBLCKFGE@USE_ABILITY_UP@		; `string'
PUBLIC	??_C@_0L@DLLOJMIP@USE_AFFECT@			; `string'
PUBLIC	??_C@_0BB@PBBDNJH@USE_CREATE_STONE@		; `string'
PUBLIC	??_C@_0M@GHOELJHH@USE_SPECIAL@			; `string'
PUBLIC	??_C@_0BD@MMDEHJ@USE_POTION_NODELAY@		; `string'
PUBLIC	??_C@_09PNKHEPEF@USE_CLEAR@			; `string'
PUBLIC	??_C@_0BB@NCIEFOD@USE_INVISIBILITY@		; `string'
PUBLIC	??_C@_0P@MKAMDACK@USE_DETACHMENT@		; `string'
PUBLIC	??_C@_0BE@NEAJJELI@USE_TIME_CHARGE_PER@		; `string'
PUBLIC	??_C@_0BE@FCIOINBF@USE_TIME_CHARGE_FIX@		; `string'
PUBLIC	??_C@_0BK@FFJFCNLF@MATERIAL_DS_REFINE_NORMAL@	; `string'
PUBLIC	??_C@_0BL@HNMOOIKG@MATERIAL_DS_REFINE_BLESSED@	; `string'
PUBLIC	??_C@_0BJ@KCHKGND@MATERIAL_DS_REFINE_HOLLY@	; `string'
PUBLIC	??_C@_0N@HOHHHOFD@METIN_NORMAL@			; `string'
PUBLIC	??_C@_0L@MFIGJJDC@METIN_GOLD@			; `string'
PUBLIC	??_C@_0L@MKHGBGII@LIMIT_NONE@			; `string'
PUBLIC	??_C@_0M@CNLALLNH@LIMIT_LEVEL@			; `string'
PUBLIC	??_C@_09JOBFCJGA@LIMIT_STR@			; `string'
PUBLIC	??_C@_09LENAGHIL@LIMIT_DEX@			; `string'
PUBLIC	??_C@_09OGFKBPLL@LIMIT_INT@			; `string'
PUBLIC	??_C@_09DIAIGPDD@LIMIT_CON@			; `string'
PUBLIC	??_C@_0N@MIADEJNC@LIMIT_PCBANG@			; `string'
PUBLIC	??_C@_0BA@FCJCAFPM@LIMIT_REAL_TIME@		; `string'
PUBLIC	??_C@_0CA@KECNELOI@LIMIT_REAL_TIME_START_FIRST_USE@ ; `string'
PUBLIC	??_C@_0BK@DKGMKHOA@LIMIT_TIMER_BASED_ON_WEAR@	; `string'
PUBLIC	??_C@_0BD@JIAJEJNL@LIMIT_TYPE_MAX_NUM@		; `string'
PUBLIC	??_C@_0O@DPNMMLCK@LIMIT_MAX_NUM@		; `string'
PUBLIC	??_C@_0BF@DFHLBKDO@ITEM_ANTIFLAG_FEMALE@	; `string'
PUBLIC	??_C@_0BD@DBFGLDPM@ITEM_ANTIFLAG_MALE@		; `string'
PUBLIC	??_C@_0BG@OCAOGEDJ@ITEM_ANTIFLAG_WARRIOR@	; `string'
PUBLIC	??_C@_0BH@NDIALJFO@ITEM_ANTIFLAG_ASSASSIN@	; `string'
PUBLIC	??_C@_0BD@EDCJBBKJ@ITEM_ANTIFLAG_SURA@		; `string'
PUBLIC	??_C@_0BF@NIAJKCKI@ITEM_ANTIFLAG_SHAMAN@	; `string'
PUBLIC	??_C@_0BC@NECEHGFA@ITEM_ANTIFLAG_GET@		; `string'
PUBLIC	??_C@_0BD@ELBJHBLB@ITEM_ANTIFLAG_DROP@		; `string'
PUBLIC	??_C@_0BD@LACGLGAB@ITEM_ANTIFLAG_SELL@		; `string'
PUBLIC	??_C@_0BH@ONMHLBEF@ITEM_ANTIFLAG_EMPIRE_A@	; `string'
PUBLIC	??_C@_0BH@MGOKOCIG@ITEM_ANTIFLAG_EMPIRE_B@	; `string'
PUBLIC	??_C@_0BH@IMCIPANH@ITEM_ANTIFLAG_EMPIRE_R@	; `string'
PUBLIC	??_C@_0BD@PPDHLMLJ@ITEM_ANTIFLAG_SAVE@		; `string'
PUBLIC	??_C@_0BD@KPODKFBE@ITEM_ANTIFLAG_GIVE@		; `string'
PUBLIC	??_C@_0BF@HBDABAPH@ITEM_ANTIFLAG_PKDROP@	; `string'
PUBLIC	??_C@_0BE@MAIMKBDM@ITEM_ANTIFLAG_STACK@		; `string'
PUBLIC	??_C@_0BF@NEEDLCAA@ITEM_ANTIFLAG_MYSHOP@	; `string'
PUBLIC	??_C@_0P@POCGDPPH@ITEM_FLAG_RARE@		; `string'
PUBLIC	??_C@_0BB@PGFIBJHK@ITEM_FLAG_UNIQUE@		; `string'
PUBLIC	??_C@_0BL@IPKGPKMA@ITEM_FLAG_CONFIRM_WHEN_USE@	; `string'
PUBLIC	??_C@_0BA@PLOPKCNG@ANTIFLAG_FEMALE@		; `string'
PUBLIC	??_C@_0O@GCOFJDKL@ANTIFLAG_MALE@		; `string'
PUBLIC	??_C@_0BB@EMBBJKML@ANTIFLAG_WARRIOR@		; `string'
PUBLIC	??_C@_0BC@IAJNDFJA@ANTIFLAG_ASSASSIN@		; `string'
PUBLIC	??_C@_0O@BAJKDBPO@ANTIFLAG_SURA@		; `string'
PUBLIC	??_C@_0BA@BGJNBKEA@ANTIFLAG_SHAMAN@		; `string'
PUBLIC	??_C@_0N@NEJHBBKC@ANTIFLAG_GET@			; `string'
PUBLIC	??_C@_0O@BIKKFBOG@ANTIFLAG_DROP@		; `string'
PUBLIC	??_C@_0O@ODJFJGFG@ANTIFLAG_SELL@		; `string'
PUBLIC	??_C@_0BC@LONKDNIL@ANTIFLAG_EMPIRE_A@		; `string'
PUBLIC	??_C@_0BC@JFPHGOEI@ANTIFLAG_EMPIRE_B@		; `string'
PUBLIC	??_C@_0BC@NPDFHMBJ@ANTIFLAG_EMPIRE_R@		; `string'
PUBLIC	??_C@_0O@KMIEJMOO@ANTIFLAG_SAVE@		; `string'
PUBLIC	??_C@_0O@PMFAIFED@ANTIFLAG_GIVE@		; `string'
PUBLIC	??_C@_0BA@LPKEKIBP@ANTIFLAG_PKDROP@		; `string'
PUBLIC	??_C@_0P@DFNANGEL@ANTIFLAG_STACK@		; `string'
PUBLIC	??_C@_0BA@BKNHAKOI@ANTIFLAG_MYSHOP@		; `string'
PUBLIC	??_C@_0O@KOFPKKKF@WEARABLE_BODY@		; `string'
PUBLIC	??_C@_0O@HCPFPMJH@WEARABLE_HEAD@		; `string'
PUBLIC	??_C@_0P@HDMMFABO@WEARABLE_FOOTS@		; `string'
PUBLIC	??_C@_0P@EMFDANIN@WEARABLE_WRIST@		; `string'
PUBLIC	??_C@_0BA@NBNKFEIG@WEARABLE_WEAPON@		; `string'
PUBLIC	??_C@_0O@HJKJMBJG@WEARABLE_NECK@		; `string'
PUBLIC	??_C@_0N@BHKGKGNM@WEARABLE_EAR@			; `string'
PUBLIC	??_C@_0BA@FGALGGKF@WEARABLE_UNIQUE@		; `string'
PUBLIC	??_C@_0BA@DGBFNJPE@WEARABLE_SHIELD@		; `string'
PUBLIC	??_C@_0P@CANFDFEC@WEARABLE_ARROW@		; `string'
PUBLIC	??_C@_0L@FFADCIKH@ARMOR_BODY@			; `string'
PUBLIC	??_C@_0L@IJKJHOJF@ARMOR_HEAD@			; `string'
PUBLIC	??_C@_0N@HJFKCCG@ARMOR_SHIELD@			; `string'
PUBLIC	??_C@_0M@KCKGDACD@ARMOR_WRIST@			; `string'
PUBLIC	??_C@_0M@JNDJGNLA@ARMOR_FOOTS@			; `string'
PUBLIC	??_C@_0L@ICPFEDJE@ARMOR_NECK@			; `string'
PUBLIC	??_C@_09JPGIMBID@ARMOR_EAR@			; `string'
PUBLIC	??_C@_0BD@POBJPMPE@ITEM_APPLY_MAX_NUM@		; `string'
PUBLIC	??_C@_0BE@PABFDMOM@ITEM_SOCKET_MAX_NUM@		; `string'
PUBLIC	??_C@_0L@KOOBDLCP@APPLY_NONE@			; `string'
PUBLIC	??_C@_09GCJAEOHJ@APPLY_STR@			; `string'
PUBLIC	??_C@_09EIFFAAJC@APPLY_DEX@			; `string'
PUBLIC	??_C@_09MEINAICK@APPLY_CON@			; `string'
PUBLIC	??_C@_09BKNPHIKC@APPLY_INT@			; `string'
PUBLIC	??_C@_0N@LMMDFALA@APPLY_MAX_HP@			; `string'
PUBLIC	??_C@_0N@KMLABMCB@APPLY_MAX_SP@			; `string'
PUBLIC	??_C@_0P@CBOEJMBC@APPLY_HP_REGEN@		; `string'
PUBLIC	??_C@_0P@PHBEALO@APPLY_SP_REGEN@		; `string'
PUBLIC	??_C@_0BG@DJGIDNN@APPLY_DEF_GRADE_BONUS@	; `string'
PUBLIC	??_C@_0BG@DIKOCKN@APPLY_ATT_GRADE_BONUS@	; `string'
PUBLIC	??_C@_0BA@PBNDFNHA@APPLY_ATT_SPEED@		; `string'
PUBLIC	??_C@_0BA@IHFPGGCP@APPLY_MOV_SPEED@		; `string'
PUBLIC	??_C@_0BB@IMPHMAIN@APPLY_CAST_SPEED@		; `string'
PUBLIC	??_C@_0BG@JIJNNLOL@APPLY_MAGIC_ATT_GRADE@	; `string'
PUBLIC	??_C@_0BG@PLJBHAML@APPLY_MAGIC_DEF_GRADE@	; `string'
PUBLIC	??_C@_0M@CPHNGINI@APPLY_SKILL@			; `string'
PUBLIC	??_C@_0BG@FCHNFPKG@APPLY_ATTBONUS_ANIMAL@	; `string'
PUBLIC	??_C@_0BG@DEBBIBCN@APPLY_ATTBONUS_UNDEAD@	; `string'
PUBLIC	??_C@_0BF@PHBHKMPC@APPLY_ATTBONUS_DEVIL@	; `string'
PUBLIC	??_C@_0BF@FLAIBIKP@APPLY_ATTBONUS_HUMAN@	; `string'
PUBLIC	??_C@_0BD@DGLENODO@APPLY_BOW_DISTANCE@		; `string'
PUBLIC	??_C@_0BB@KEIAGOOG@APPLY_RESIST_BOW@		; `string'
PUBLIC	??_C@_0BC@BCODEHJE@APPLY_RESIST_FIRE@		; `string'
PUBLIC	??_C@_0BC@CNKONPAF@APPLY_RESIST_ELEC@		; `string'
PUBLIC	??_C@_0BD@BIEOENBH@APPLY_RESIST_MAGIC@		; `string'
PUBLIC	??_C@_0BB@OFEPEABG@APPLY_POISON_PCT@		; `string'
PUBLIC	??_C@_0P@EAEIAPML@APPLY_SLOW_PCT@		; `string'
PUBLIC	??_C@_0P@IGBLFIG@APPLY_STUN_PCT@		; `string'
PUBLIC	??_C@_0BD@DOHBCDEC@APPLY_CRITICAL_PCT@		; `string'
PUBLIC	??_C@_0BE@MIHOPHBF@APPLY_PENETRATE_PCT@		; `string'
PUBLIC	??_C@_0BD@GHNBCFFK@APPLY_ATTBONUS_ORC@		; `string'
PUBLIC	??_C@_0BG@BGJNMLHF@APPLY_ATTBONUS_MILGYO@	; `string'
PUBLIC	??_C@_0P@IJPDEMHM@APPLY_STEAL_HP@		; `string'
PUBLIC	??_C@_0P@JJIAAAON@APPLY_STEAL_SP@		; `string'
PUBLIC	??_C@_0BE@MMJAOBJI@APPLY_MANA_BURN_PCT@		; `string'
PUBLIC	??_C@_0BI@CNPFJGMF@APPLY_DAMAGE_SP_RECOVER@	; `string'
PUBLIC	??_C@_0M@DEKBOLNA@APPLY_BLOCK@			; `string'
PUBLIC	??_C@_0M@OLNDHAEO@APPLY_DODGE@			; `string'
PUBLIC	??_C@_0BD@FELELOGH@APPLY_RESIST_SWORD@		; `string'
PUBLIC	??_C@_0BF@PPDPGLJM@APPLY_RESIST_TWOHAND@	; `string'
PUBLIC	??_C@_0BE@HKIMLKAO@APPLY_RESIST_DAGGER@		; `string'
PUBLIC	??_C@_0BC@GKMPGLNP@APPLY_RESIST_BELL@		; `string'
PUBLIC	??_C@_0BB@LKHMHNKD@APPLY_RESIST_FAN@		; `string'
PUBLIC	??_C@_0BC@EDEEJCPD@APPLY_RESIST_WIND@		; `string'
PUBLIC	??_C@_0BE@JKECBGFJ@APPLY_REFLECT_MELEE@		; `string'
PUBLIC	??_C@_0BE@GIMFBPMF@APPLY_REFLECT_CURSE@		; `string'
PUBLIC	??_C@_0BE@CMJGNONM@APPLY_POISON_REDUCE@		; `string'
PUBLIC	??_C@_0BG@NAAMOKGC@APPLY_KILL_SP_RECOVER@	; `string'
PUBLIC	??_C@_0BH@BOFCHNGC@APPLY_EXP_DOUBLE_BONUS@	; `string'
PUBLIC	??_C@_0BI@CPGCKKHM@APPLY_GOLD_DOUBLE_BONUS@	; `string'
PUBLIC	??_C@_0BG@GJLPLNJK@APPLY_ITEM_DROP_BONUS@	; `string'
PUBLIC	??_C@_0BD@HAABJCED@APPLY_POTION_BONUS@		; `string'
PUBLIC	??_C@_0BG@FNNLKJON@APPLY_KILL_HP_RECOVER@	; `string'
PUBLIC	??_C@_0BC@GMOGAEGD@APPLY_IMMUNE_STUN@		; `string'
PUBLIC	??_C@_0BC@HDPKPEKN@APPLY_IMMUNE_SLOW@		; `string'
PUBLIC	??_C@_0BC@ICOAEBEB@APPLY_IMMUNE_FALL@		; `string'
PUBLIC	??_C@_0BC@MENAELHN@APPLY_MAX_STAMINA@		; `string'
PUBLIC	??_C@_0BH@LHKFGIKM@APPLY_ATTBONUS_WARRIOR@	; `string'
PUBLIC	??_C@_0BI@FDLAHFJJ@APPLY_ATTBONUS_ASSASSIN@	; `string'
PUBLIC	??_C@_0BE@EHJIJMPG@APPLY_ATTBONUS_SURA@		; `string'
PUBLIC	??_C@_0BG@HGCDBIBP@APPLY_ATTBONUS_SHAMAN@	; `string'
PUBLIC	??_C@_0BH@OMHBNPNG@APPLY_ATTBONUS_MONSTER@	; `string'
PUBLIC	??_C@_0BE@INMGAFDB@APPLY_MALL_ATTBONUS@		; `string'
PUBLIC	??_C@_0BE@IHABPMCM@APPLY_MALL_DEFBONUS@		; `string'
PUBLIC	??_C@_0BE@HDMKGFGB@APPLY_MALL_EXPBONUS@		; `string'
PUBLIC	??_C@_0BF@JHCAFPEC@APPLY_MALL_ITEMBONUS@	; `string'
PUBLIC	??_C@_0BF@CNKLONKF@APPLY_MALL_GOLDBONUS@	; `string'
PUBLIC	??_C@_0BB@IOILOHHB@APPLY_MAX_HP_PCT@		; `string'
PUBLIC	??_C@_0BB@OLFCCPEF@APPLY_MAX_SP_PCT@		; `string'
PUBLIC	??_C@_0BJ@ILJOEJMP@APPLY_SKILL_DAMAGE_BONUS@	; `string'
PUBLIC	??_C@_0BO@KJDLNPKH@APPLY_NORMAL_HIT_DAMAGE_BONUS@ ; `string'
PUBLIC	??_C@_0BJ@MCFLODEL@APPLY_SKILL_DEFEND_BONUS@	; `string'
PUBLIC	??_C@_0BO@OAPOHFCD@APPLY_NORMAL_HIT_DEFEND_BONUS@ ; `string'
PUBLIC	??_C@_0BI@MMJMNMDE@APPLY_PC_BANG_EXP_BONUS@	; `string'
PUBLIC	??_C@_0BJ@MIHJNNLH@APPLY_PC_BANG_DROP_BONUS@	; `string'
PUBLIC	??_C@_0BF@DIEIKMOC@APPLY_RESIST_WARRIOR@	; `string'
PUBLIC	??_C@_0BG@MCFLPEMK@APPLY_RESIST_ASSASSIN@	; `string'
PUBLIC	??_C@_0BC@MEEAHCEF@APPLY_RESIST_SURA@		; `string'
PUBLIC	??_C@_0BE@POHJKJMD@APPLY_RESIST_SHAMAN@		; `string'
PUBLIC	??_C@_0N@MOPONLJI@APPLY_ENERGY@			; `string'
PUBLIC	??_C@_0BJ@IGOAELFN@APPLY_COSTUME_ATTR_BONUS@	; `string'
PUBLIC	??_C@_0BJ@JJJKDKFC@APPLY_MAGIC_ATTBONUS_PER@	; `string'
PUBLIC	??_C@_0BP@MGKGKJGA@APPLY_MELEE_MAGIC_ATTBONUS_PER@ ; `string'
PUBLIC	??_C@_0BB@CGPGAFA@APPLY_RESIST_ICE@		; `string'
PUBLIC	??_C@_0BD@GENAIBDP@APPLY_RESIST_EARTH@		; `string'
PUBLIC	??_C@_0BC@DDBEBBJF@APPLY_RESIST_DARK@		; `string'
PUBLIC	??_C@_0BI@KIMFHHIO@APPLY_ANTI_CRITICAL_PCT@	; `string'
PUBLIC	??_C@_0BJ@FKDKMNNK@APPLY_ANTI_PENETRATE_PCT@	; `string'
PUBLIC	??_7?$CDynamicPoolEx@VCRotationDecorator@NEffectUpdateDecorator@@@@6B@ ; CDynamicPoolEx<NEffectUpdateDecorator::CRotationDecorator>::`vftable'
PUBLIC	??_7?$CDynamicPoolEx@VCGravityDecorator@NEffectUpdateDecorator@@@@6B@ ; CDynamicPoolEx<NEffectUpdateDecorator::CGravityDecorator>::`vftable'
PUBLIC	??_7?$CDynamicPoolEx@VCAirResistanceDecorator@NEffectUpdateDecorator@@@@6B@ ; CDynamicPoolEx<NEffectUpdateDecorator::CAirResistanceDecorator>::`vftable'
PUBLIC	??_7?$CDynamicPoolEx@VCTextureAnimationRandomDecorator@NEffectUpdateDecorator@@@@6B@ ; CDynamicPoolEx<NEffectUpdateDecorator::CTextureAnimationRandomDecorator>::`vftable'
PUBLIC	??_7?$CDynamicPoolEx@VCTextureAnimationCCWDecorator@NEffectUpdateDecorator@@@@6B@ ; CDynamicPoolEx<NEffectUpdateDecorator::CTextureAnimationCCWDecorator>::`vftable'
PUBLIC	??_7?$CDynamicPoolEx@VCTextureAnimationCWDecorator@NEffectUpdateDecorator@@@@6B@ ; CDynamicPoolEx<NEffectUpdateDecorator::CTextureAnimationCWDecorator>::`vftable'
PUBLIC	??_7?$CDynamicPoolEx@VCNullDecorator@NEffectUpdateDecorator@@@@6B@ ; CDynamicPoolEx<NEffectUpdateDecorator::CNullDecorator>::`vftable'
PUBLIC	??_7?$CDynamicPoolEx@VCHeaderDecorator@NEffectUpdateDecorator@@@@6B@ ; CDynamicPoolEx<NEffectUpdateDecorator::CHeaderDecorator>::`vftable'
PUBLIC	??_R4?$CDynamicPoolEx@VCHeaderDecorator@NEffectUpdateDecorator@@@@6B@ ; CDynamicPoolEx<NEffectUpdateDecorator::CHeaderDecorator>::`RTTI Complete Object Locator'
PUBLIC	??_R0?AV?$CDynamicPoolEx@VCHeaderDecorator@NEffectUpdateDecorator@@@@@8 ; CDynamicPoolEx<NEffectUpdateDecorator::CHeaderDecorator> `RTTI Type Descriptor'
PUBLIC	??_R3?$CDynamicPoolEx@VCHeaderDecorator@NEffectUpdateDecorator@@@@8 ; CDynamicPoolEx<NEffectUpdateDecorator::CHeaderDecorator>::`RTTI Class Hierarchy Descriptor'
PUBLIC	??_R2?$CDynamicPoolEx@VCHeaderDecorator@NEffectUpdateDecorator@@@@8 ; CDynamicPoolEx<NEffectUpdateDecorator::CHeaderDecorator>::`RTTI Base Class Array'
PUBLIC	??_R1A@?0A@EA@?$CDynamicPoolEx@VCHeaderDecorator@NEffectUpdateDecorator@@@@8 ; CDynamicPoolEx<NEffectUpdateDecorator::CHeaderDecorator>::`RTTI Base Class Descriptor at (0,-1,0,64)'
PUBLIC	??_R4?$CDynamicPoolEx@VCNullDecorator@NEffectUpdateDecorator@@@@6B@ ; CDynamicPoolEx<NEffectUpdateDecorator::CNullDecorator>::`RTTI Complete Object Locator'
PUBLIC	??_R0?AV?$CDynamicPoolEx@VCNullDecorator@NEffectUpdateDecorator@@@@@8 ; CDynamicPoolEx<NEffectUpdateDecorator::CNullDecorator> `RTTI Type Descriptor'
PUBLIC	??_R3?$CDynamicPoolEx@VCNullDecorator@NEffectUpdateDecorator@@@@8 ; CDynamicPoolEx<NEffectUpdateDecorator::CNullDecorator>::`RTTI Class Hierarchy Descriptor'
PUBLIC	??_R2?$CDynamicPoolEx@VCNullDecorator@NEffectUpdateDecorator@@@@8 ; CDynamicPoolEx<NEffectUpdateDecorator::CNullDecorator>::`RTTI Base Class Array'
PUBLIC	??_R1A@?0A@EA@?$CDynamicPoolEx@VCNullDecorator@NEffectUpdateDecorator@@@@8 ; CDynamicPoolEx<NEffectUpdateDecorator::CNullDecorator>::`RTTI Base Class Descriptor at (0,-1,0,64)'
PUBLIC	??_R4?$CDynamicPoolEx@VCTextureAnimationCWDecorator@NEffectUpdateDecorator@@@@6B@ ; CDynamicPoolEx<NEffectUpdateDecorator::CTextureAnimationCWDecorator>::`RTTI Complete Object Locator'
PUBLIC	??_R0?AV?$CDynamicPoolEx@VCTextureAnimationCWDecorator@NEffectUpdateDecorator@@@@@8 ; CDynamicPoolEx<NEffectUpdateDecorator::CTextureAnimationCWDecorator> `RTTI Type Descriptor'
PUBLIC	??_R3?$CDynamicPoolEx@VCTextureAnimationCWDecorator@NEffectUpdateDecorator@@@@8 ; CDynamicPoolEx<NEffectUpdateDecorator::CTextureAnimationCWDecorator>::`RTTI Class Hierarchy Descriptor'
PUBLIC	??_R2?$CDynamicPoolEx@VCTextureAnimationCWDecorator@NEffectUpdateDecorator@@@@8 ; CDynamicPoolEx<NEffectUpdateDecorator::CTextureAnimationCWDecorator>::`RTTI Base Class Array'
PUBLIC	??_R1A@?0A@EA@?$CDynamicPoolEx@VCTextureAnimationCWDecorator@NEffectUpdateDecorator@@@@8 ; CDynamicPoolEx<NEffectUpdateDecorator::CTextureAnimationCWDecorator>::`RTTI Base Class Descriptor at (0,-1,0,64)'
PUBLIC	??_R4?$CDynamicPoolEx@VCTextureAnimationCCWDecorator@NEffectUpdateDecorator@@@@6B@ ; CDynamicPoolEx<NEffectUpdateDecorator::CTextureAnimationCCWDecorator>::`RTTI Complete Object Locator'
PUBLIC	??_R0?AV?$CDynamicPoolEx@VCTextureAnimationCCWDecorator@NEffectUpdateDecorator@@@@@8 ; CDynamicPoolEx<NEffectUpdateDecorator::CTextureAnimationCCWDecorator> `RTTI Type Descriptor'
PUBLIC	??_R3?$CDynamicPoolEx@VCTextureAnimationCCWDecorator@NEffectUpdateDecorator@@@@8 ; CDynamicPoolEx<NEffectUpdateDecorator::CTextureAnimationCCWDecorator>::`RTTI Class Hierarchy Descriptor'
PUBLIC	??_R2?$CDynamicPoolEx@VCTextureAnimationCCWDecorator@NEffectUpdateDecorator@@@@8 ; CDynamicPoolEx<NEffectUpdateDecorator::CTextureAnimationCCWDecorator>::`RTTI Base Class Array'
PUBLIC	??_R1A@?0A@EA@?$CDynamicPoolEx@VCTextureAnimationCCWDecorator@NEffectUpdateDecorator@@@@8 ; CDynamicPoolEx<NEffectUpdateDecorator::CTextureAnimationCCWDecorator>::`RTTI Base Class Descriptor at (0,-1,0,64)'
PUBLIC	??_R4?$CDynamicPoolEx@VCTextureAnimationRandomDecorator@NEffectUpdateDecorator@@@@6B@ ; CDynamicPoolEx<NEffectUpdateDecorator::CTextureAnimationRandomDecorator>::`RTTI Complete Object Locator'
PUBLIC	??_R0?AV?$CDynamicPoolEx@VCTextureAnimationRandomDecorator@NEffectUpdateDecorator@@@@@8 ; CDynamicPoolEx<NEffectUpdateDecorator::CTextureAnimationRandomDecorator> `RTTI Type Descriptor'
PUBLIC	??_R3?$CDynamicPoolEx@VCTextureAnimationRandomDecorator@NEffectUpdateDecorator@@@@8 ; CDynamicPoolEx<NEffectUpdateDecorator::CTextureAnimationRandomDecorator>::`RTTI Class Hierarchy Descriptor'
PUBLIC	??_R2?$CDynamicPoolEx@VCTextureAnimationRandomDecorator@NEffectUpdateDecorator@@@@8 ; CDynamicPoolEx<NEffectUpdateDecorator::CTextureAnimationRandomDecorator>::`RTTI Base Class Array'
PUBLIC	??_R1A@?0A@EA@?$CDynamicPoolEx@VCTextureAnimationRandomDecorator@NEffectUpdateDecorator@@@@8 ; CDynamicPoolEx<NEffectUpdateDecorator::CTextureAnimationRandomDecorator>::`RTTI Base Class Descriptor at (0,-1,0,64)'
PUBLIC	??_R4?$CDynamicPoolEx@VCAirResistanceDecorator@NEffectUpdateDecorator@@@@6B@ ; CDynamicPoolEx<NEffectUpdateDecorator::CAirResistanceDecorator>::`RTTI Complete Object Locator'
PUBLIC	??_R0?AV?$CDynamicPoolEx@VCAirResistanceDecorator@NEffectUpdateDecorator@@@@@8 ; CDynamicPoolEx<NEffectUpdateDecorator::CAirResistanceDecorator> `RTTI Type Descriptor'
PUBLIC	??_R3?$CDynamicPoolEx@VCAirResistanceDecorator@NEffectUpdateDecorator@@@@8 ; CDynamicPoolEx<NEffectUpdateDecorator::CAirResistanceDecorator>::`RTTI Class Hierarchy Descriptor'
PUBLIC	??_R2?$CDynamicPoolEx@VCAirResistanceDecorator@NEffectUpdateDecorator@@@@8 ; CDynamicPoolEx<NEffectUpdateDecorator::CAirResistanceDecorator>::`RTTI Base Class Array'
PUBLIC	??_R1A@?0A@EA@?$CDynamicPoolEx@VCAirResistanceDecorator@NEffectUpdateDecorator@@@@8 ; CDynamicPoolEx<NEffectUpdateDecorator::CAirResistanceDecorator>::`RTTI Base Class Descriptor at (0,-1,0,64)'
PUBLIC	??_R4?$CDynamicPoolEx@VCGravityDecorator@NEffectUpdateDecorator@@@@6B@ ; CDynamicPoolEx<NEffectUpdateDecorator::CGravityDecorator>::`RTTI Complete Object Locator'
PUBLIC	??_R0?AV?$CDynamicPoolEx@VCGravityDecorator@NEffectUpdateDecorator@@@@@8 ; CDynamicPoolEx<NEffectUpdateDecorator::CGravityDecorator> `RTTI Type Descriptor'
PUBLIC	??_R3?$CDynamicPoolEx@VCGravityDecorator@NEffectUpdateDecorator@@@@8 ; CDynamicPoolEx<NEffectUpdateDecorator::CGravityDecorator>::`RTTI Class Hierarchy Descriptor'
PUBLIC	??_R2?$CDynamicPoolEx@VCGravityDecorator@NEffectUpdateDecorator@@@@8 ; CDynamicPoolEx<NEffectUpdateDecorator::CGravityDecorator>::`RTTI Base Class Array'
PUBLIC	??_R1A@?0A@EA@?$CDynamicPoolEx@VCGravityDecorator@NEffectUpdateDecorator@@@@8 ; CDynamicPoolEx<NEffectUpdateDecorator::CGravityDecorator>::`RTTI Base Class Descriptor at (0,-1,0,64)'
PUBLIC	??_R4?$CDynamicPoolEx@VCRotationDecorator@NEffectUpdateDecorator@@@@6B@ ; CDynamicPoolEx<NEffectUpdateDecorator::CRotationDecorator>::`RTTI Complete Object Locator'
PUBLIC	??_R0?AV?$CDynamicPoolEx@VCRotationDecorator@NEffectUpdateDecorator@@@@@8 ; CDynamicPoolEx<NEffectUpdateDecorator::CRotationDecorator> `RTTI Type Descriptor'
PUBLIC	??_R3?$CDynamicPoolEx@VCRotationDecorator@NEffectUpdateDecorator@@@@8 ; CDynamicPoolEx<NEffectUpdateDecorator::CRotationDecorator>::`RTTI Class Hierarchy Descriptor'
PUBLIC	??_R2?$CDynamicPoolEx@VCRotationDecorator@NEffectUpdateDecorator@@@@8 ; CDynamicPoolEx<NEffectUpdateDecorator::CRotationDecorator>::`RTTI Base Class Array'
PUBLIC	??_R1A@?0A@EA@?$CDynamicPoolEx@VCRotationDecorator@NEffectUpdateDecorator@@@@8 ; CDynamicPoolEx<NEffectUpdateDecorator::CRotationDecorator>::`RTTI Base Class Descriptor at (0,-1,0,64)'
EXTRN	??2@YAPAXI@Z:PROC				; operator new
EXTRN	??3@YAXPAX@Z:PROC				; operator delete
EXTRN	??3@YAXPAXI@Z:PROC				; operator delete
EXTRN	_atexit:PROC
EXTRN	__invalid_parameter_noinfo_noreturn:PROC
EXTRN	_memcpy:PROC
EXTRN	_memmove:PROC
EXTRN	_strlen:PROC
EXTRN	___std_exception_copy:PROC
EXTRN	___std_exception_destroy:PROC
EXTRN	??_Eexception@std@@UAEPAXI@Z:PROC		; std::exception::`vector deleting destructor'
EXTRN	??_Ebad_alloc@std@@UAEPAXI@Z:PROC		; std::bad_alloc::`vector deleting destructor'
EXTRN	??_Ebad_array_new_length@std@@UAEPAXI@Z:PROC	; std::bad_array_new_length::`vector deleting destructor'
EXTRN	?_Xlength_error@std@@YAXPBD@Z:PROC		; std::_Xlength_error
EXTRN	?TraceError@@YAXPBDZZ:PROC			; TraceError
EXTRN	__imp__Py_BuildValue:PROC
EXTRN	__imp__PyModule_AddIntConstant:PROC
EXTRN	__imp__Py_InitModule4:PROC
EXTRN	?PyTuple_GetString@@YA_NPAU_object@@HPAPAD@Z:PROC ; PyTuple_GetString
EXTRN	?PyTuple_GetInteger@@YA_NPAU_object@@HPAH@Z:PROC ; PyTuple_GetInteger
EXTRN	?PyTuple_GetFloat@@YA_NPAU_object@@HPAM@Z:PROC	; PyTuple_GetFloat
EXTRN	?PyTuple_GetBoolean@@YA_NPAU_object@@HPA_N@Z:PROC ; PyTuple_GetBoolean
EXTRN	?Py_BuildException@@YAPAU_object@@PBDZZ:PROC	; Py_BuildException
EXTRN	?Py_BadArgument@@YAPAU_object@@XZ:PROC		; Py_BadArgument
EXTRN	?Py_BuildNone@@YAPAU_object@@XZ:PROC		; Py_BuildNone
EXTRN	?SetImagePointer@CGraphicImageInstance@@QAEXPAVCGraphicImage@@@Z:PROC ; CGraphicImageInstance::SetImagePointer
EXTRN	?New@CGraphicImageInstance@@SAPAV1@XZ:PROC	; CGraphicImageInstance::New
EXTRN	?Delete@CGraphicImageInstance@@SAXPAV1@@Z:PROC	; CGraphicImageInstance::Delete
EXTRN	?GetIconImage@CItemData@@QAEPAVCGraphicSubImage@@XZ:PROC ; CItemData::GetIconImage
EXTRN	?GetIndex@CItemData@@QBEKXZ:PROC		; CItemData::GetIndex
EXTRN	?GetName@CItemData@@QBEPBDXZ:PROC		; CItemData::GetName
EXTRN	?GetDescription@CItemData@@QBEPBDXZ:PROC	; CItemData::GetDescription
EXTRN	?GetSummary@CItemData@@QBEPBDXZ:PROC		; CItemData::GetSummary
EXTRN	?GetType@CItemData@@QBEEXZ:PROC			; CItemData::GetType
EXTRN	?GetSubType@CItemData@@QBEEXZ:PROC		; CItemData::GetSubType
EXTRN	?GetUseTypeString@CItemData@@QBEPBDXZ:PROC	; CItemData::GetUseTypeString
EXTRN	?GetSize@CItemData@@QBEEXZ:PROC			; CItemData::GetSize
EXTRN	?IsAntiFlag@CItemData@@QBEHK@Z:PROC		; CItemData::IsAntiFlag
EXTRN	?IsFlag@CItemData@@QBEHK@Z:PROC			; CItemData::IsFlag
EXTRN	?IsWearableFlag@CItemData@@QBEHK@Z:PROC		; CItemData::IsWearableFlag
EXTRN	?GetIBuyItemPrice@CItemData@@QBEKXZ:PROC	; CItemData::GetIBuyItemPrice
EXTRN	?GetISellItemPrice@CItemData@@QBEKXZ:PROC	; CItemData::GetISellItemPrice
EXTRN	?GetLimit@CItemData@@QBEHEPAUSItemLimit@1@@Z:PROC ; CItemData::GetLimit
EXTRN	?GetApply@CItemData@@QBEHEPAUSItemApply@1@@Z:PROC ; CItemData::GetApply
EXTRN	?GetValue@CItemData@@QBEJE@Z:PROC		; CItemData::GetValue
EXTRN	?GetSocket@CItemData@@QBEJE@Z:PROC		; CItemData::GetSocket
EXTRN	?IsEquipment@CItemData@@QBEHXZ:PROC		; CItemData::IsEquipment
EXTRN	?SetUseSoundFileName@CPythonItem@@QAEXKABV?$basic_string@DU?$char_traits@D@std@@V?$allocator@D@2@@std@@@Z:PROC ; CPythonItem::SetUseSoundFileName
EXTRN	?SetDropSoundFileName@CPythonItem@@QAEXKABV?$basic_string@DU?$char_traits@D@std@@V?$allocator@D@2@@std@@@Z:PROC ; CPythonItem::SetDropSoundFileName
EXTRN	?Render@CPythonItem@@QAEXXZ:PROC		; CPythonItem::Render
EXTRN	?Update@CPythonItem@@QAEXABUtagPOINT@@@Z:PROC	; CPythonItem::Update
EXTRN	?CreateItem@CPythonItem@@QAEXKKMMM_N@Z:PROC	; CPythonItem::CreateItem
EXTRN	?DeleteItem@CPythonItem@@QAEXK@Z:PROC		; CPythonItem::DeleteItem
EXTRN	?GetPickedItemID@CPythonItem@@QAE_NPAK@Z:PROC	; CPythonItem::GetPickedItemID
EXTRN	?SelectItemData@CItemManager@@QAEHK@Z:PROC	; CItemManager::SelectItemData
EXTRN	?GetSelectedItemDataPointer@CItemManager@@QAEPAVCItemData@@XZ:PROC ; CItemManager::GetSelectedItemDataPointer
EXTRN	?LoadItemTable@CItemManager@@QAE_NPBD@Z:PROC	; CItemManager::LoadItemTable
EXTRN	??_E?$CDynamicPoolEx@VCRotationDecorator@NEffectUpdateDecorator@@@@UAEPAXI@Z:PROC ; CDynamicPoolEx<NEffectUpdateDecorator::CRotationDecorator>::`vector deleting destructor'
EXTRN	??_E?$CDynamicPoolEx@VCGravityDecorator@NEffectUpdateDecorator@@@@UAEPAXI@Z:PROC ; CDynamicPoolEx<NEffectUpdateDecorator::CGravityDecorator>::`vector deleting destructor'
EXTRN	??_E?$CDynamicPoolEx@VCAirResistanceDecorator@NEffectUpdateDecorator@@@@UAEPAXI@Z:PROC ; CDynamicPoolEx<NEffectUpdateDecorator::CAirResistanceDecorator>::`vector deleting destructor'
EXTRN	??_E?$CDynamicPoolEx@VCTextureAnimationRandomDecorator@NEffectUpdateDecorator@@@@UAEPAXI@Z:PROC ; CDynamicPoolEx<NEffectUpdateDecorator::CTextureAnimationRandomDecorator>::`vector deleting destructor'
EXTRN	??_E?$CDynamicPoolEx@VCTextureAnimationCCWDecorator@NEffectUpdateDecorator@@@@UAEPAXI@Z:PROC ; CDynamicPoolEx<NEffectUpdateDecorator::CTextureAnimationCCWDecorator>::`vector deleting destructor'
EXTRN	??_E?$CDynamicPoolEx@VCTextureAnimationCWDecorator@NEffectUpdateDecorator@@@@UAEPAXI@Z:PROC ; CDynamicPoolEx<NEffectUpdateDecorator::CTextureAnimationCWDecorator>::`vector deleting destructor'
EXTRN	??_E?$CDynamicPoolEx@VCNullDecorator@NEffectUpdateDecorator@@@@UAEPAXI@Z:PROC ; CDynamicPoolEx<NEffectUpdateDecorator::CNullDecorator>::`vector deleting destructor'
EXTRN	??_E?$CDynamicPoolEx@VCHeaderDecorator@NEffectUpdateDecorator@@@@UAEPAXI@Z:PROC ; CDynamicPoolEx<NEffectUpdateDecorator::CHeaderDecorator>::`vector deleting destructor'
EXTRN	@__security_check_cookie@4:PROC
EXTRN	__CxxThrowException@8:PROC
EXTRN	___CxxFrameHandler3:PROC
EXTRN	??_7type_info@@6B@:QWORD			; type_info::`vftable'
EXTRN	?TWOHANDED_WEWAPON_ATT_SPEED_DECREASE_VALUE@@3HA:DWORD ; TWOHANDED_WEWAPON_ATT_SPEED_DECREASE_VALUE
EXTRN	___security_cookie:DWORD
EXTRN	__fltused:DWORD
;	COMDAT ?ms_singleton@?$CSingleton@VCPythonItem@@@@0PAVCPythonItem@@A
_BSS	SEGMENT
?ms_singleton@?$CSingleton@VCPythonItem@@@@0PAVCPythonItem@@A DD 01H DUP (?) ; CSingleton<CPythonItem>::ms_singleton
_BSS	ENDS
;	COMDAT ?ms_singleton@?$CSingleton@VCItemManager@@@@0PAVCItemManager@@A
_BSS	SEGMENT
?ms_singleton@?$CSingleton@VCItemManager@@@@0PAVCItemManager@@A DD 01H DUP (?) ; CSingleton<CItemManager>::ms_singleton
_BSS	ENDS
;	COMDAT ?ms_kPool@?$CPooledObject@VCHeaderDecorator@NEffectUpdateDecorator@@@@1V?$CDynamicPoolEx@VCHeaderDecorator@NEffectUpdateDecorator@@@@A
_BSS	SEGMENT
?ms_kPool@?$CPooledObject@VCHeaderDecorator@NEffectUpdateDecorator@@@@1V?$CDynamicPoolEx@VCHeaderDecorator@NEffectUpdateDecorator@@@@A DB 024H DUP (?) ; CPooledObject<NEffectUpdateDecorator::CHeaderDecorator>::ms_kPool
_BSS	ENDS
;	COMDAT ?ms_kPool@?$CPooledObject@VCNullDecorator@NEffectUpdateDecorator@@@@1V?$CDynamicPoolEx@VCNullDecorator@NEffectUpdateDecorator@@@@A
_BSS	SEGMENT
?ms_kPool@?$CPooledObject@VCNullDecorator@NEffectUpdateDecorator@@@@1V?$CDynamicPoolEx@VCNullDecorator@NEffectUpdateDecorator@@@@A DB 024H DUP (?) ; CPooledObject<NEffectUpdateDecorator::CNullDecorator>::ms_kPool
_BSS	ENDS
;	COMDAT ?ms_kPool@?$CPooledObject@VCTextureAnimationCWDecorator@NEffectUpdateDecorator@@@@1V?$CDynamicPoolEx@VCTextureAnimationCWDecorator@NEffectUpdateDecorator@@@@A
_BSS	SEGMENT
?ms_kPool@?$CPooledObject@VCTextureAnimationCWDecorator@NEffectUpdateDecorator@@@@1V?$CDynamicPoolEx@VCTextureAnimationCWDecorator@NEffectUpdateDecorator@@@@A DB 024H DUP (?) ; CPooledObject<NEffectUpdateDecorator::CTextureAnimationCWDecorator>::ms_kPool
_BSS	ENDS
;	COMDAT ?ms_kPool@?$CPooledObject@VCTextureAnimationCCWDecorator@NEffectUpdateDecorator@@@@1V?$CDynamicPoolEx@VCTextureAnimationCCWDecorator@NEffectUpdateDecorator@@@@A
_BSS	SEGMENT
?ms_kPool@?$CPooledObject@VCTextureAnimationCCWDecorator@NEffectUpdateDecorator@@@@1V?$CDynamicPoolEx@VCTextureAnimationCCWDecorator@NEffectUpdateDecorator@@@@A DB 024H DUP (?) ; CPooledObject<NEffectUpdateDecorator::CTextureAnimationCCWDecorator>::ms_kPool
_BSS	ENDS
;	COMDAT ?ms_kPool@?$CPooledObject@VCTextureAnimationRandomDecorator@NEffectUpdateDecorator@@@@1V?$CDynamicPoolEx@VCTextureAnimationRandomDecorator@NEffectUpdateDecorator@@@@A
_BSS	SEGMENT
?ms_kPool@?$CPooledObject@VCTextureAnimationRandomDecorator@NEffectUpdateDecorator@@@@1V?$CDynamicPoolEx@VCTextureAnimationRandomDecorator@NEffectUpdateDecorator@@@@A DB 024H DUP (?) ; CPooledObject<NEffectUpdateDecorator::CTextureAnimationRandomDecorator>::ms_kPool
_BSS	ENDS
;	COMDAT ?ms_kPool@?$CPooledObject@VCAirResistanceDecorator@NEffectUpdateDecorator@@@@1V?$CDynamicPoolEx@VCAirResistanceDecorator@NEffectUpdateDecorator@@@@A
_BSS	SEGMENT
?ms_kPool@?$CPooledObject@VCAirResistanceDecorator@NEffectUpdateDecorator@@@@1V?$CDynamicPoolEx@VCAirResistanceDecorator@NEffectUpdateDecorator@@@@A DB 024H DUP (?) ; CPooledObject<NEffectUpdateDecorator::CAirResistanceDecorator>::ms_kPool
_BSS	ENDS
;	COMDAT ?ms_kPool@?$CPooledObject@VCGravityDecorator@NEffectUpdateDecorator@@@@1V?$CDynamicPoolEx@VCGravityDecorator@NEffectUpdateDecorator@@@@A
_BSS	SEGMENT
?ms_kPool@?$CPooledObject@VCGravityDecorator@NEffectUpdateDecorator@@@@1V?$CDynamicPoolEx@VCGravityDecorator@NEffectUpdateDecorator@@@@A DB 024H DUP (?) ; CPooledObject<NEffectUpdateDecorator::CGravityDecorator>::ms_kPool
_BSS	ENDS
;	COMDAT ?ms_kPool@?$CPooledObject@VCRotationDecorator@NEffectUpdateDecorator@@@@1V?$CDynamicPoolEx@VCRotationDecorator@NEffectUpdateDecorator@@@@A
_BSS	SEGMENT
?ms_kPool@?$CPooledObject@VCRotationDecorator@NEffectUpdateDecorator@@@@1V?$CDynamicPoolEx@VCRotationDecorator@NEffectUpdateDecorator@@@@A DB 024H DUP (?) ; CPooledObject<NEffectUpdateDecorator::CRotationDecorator>::ms_kPool
_BSS	ENDS
;	COMDAT ?ms_singleton@?$TAbstractSingleton@VIAbstractApplication@@@@0PAVIAbstractApplication@@A
_BSS	SEGMENT
?ms_singleton@?$TAbstractSingleton@VIAbstractApplication@@@@0PAVIAbstractApplication@@A DD 01H DUP (?) ; TAbstractSingleton<IAbstractApplication>::ms_singleton
_BSS	ENDS
;	COMDAT CRT$XCU
CRT$XCU	SEGMENT
??ms_kPool$initializer$@?$CPooledObject@VCHeaderDecorator@NEffectUpdateDecorator@@@@1P6AXXZA@@3P6AXXZA DD FLAT:??__E?ms_kPool@?$CPooledObject@VCHeaderDecorator@NEffectUpdateDecorator@@@@1V?$CDynamicPoolEx@VCHeaderDecorator@NEffectUpdateDecorator@@@@A@@YAXXZ ; ??ms_kPool$initializer$@?$CPooledObject@VCHeaderDecorator@NEffectUpdateDecorator@@@@1P6AXXZA@@3P6AXXZA
CRT$XCU	ENDS
;	COMDAT ??_R1A@?0A@EA@?$CDynamicPoolEx@VCRotationDecorator@NEffectUpdateDecorator@@@@8
rdata$r	SEGMENT
??_R1A@?0A@EA@?$CDynamicPoolEx@VCRotationDecorator@NEffectUpdateDecorator@@@@8 DD FLAT:??_R0?AV?$CDynamicPoolEx@VCRotationDecorator@NEffectUpdateDecorator@@@@@8 ; CDynamicPoolEx<NEffectUpdateDecorator::CRotationDecorator>::`RTTI Base Class Descriptor at (0,-1,0,64)'
	DD	00H
	DD	00H
	DD	0ffffffffH
	DD	00H
	DD	040H
	DD	FLAT:??_R3?$CDynamicPoolEx@VCRotationDecorator@NEffectUpdateDecorator@@@@8
rdata$r	ENDS
;	COMDAT ??_R2?$CDynamicPoolEx@VCRotationDecorator@NEffectUpdateDecorator@@@@8
rdata$r	SEGMENT
??_R2?$CDynamicPoolEx@VCRotationDecorator@NEffectUpdateDecorator@@@@8 DD FLAT:??_R1A@?0A@EA@?$CDynamicPoolEx@VCRotationDecorator@NEffectUpdateDecorator@@@@8 ; CDynamicPoolEx<NEffectUpdateDecorator::CRotationDecorator>::`RTTI Base Class Array'
rdata$r	ENDS
;	COMDAT ??_R3?$CDynamicPoolEx@VCRotationDecorator@NEffectUpdateDecorator@@@@8
rdata$r	SEGMENT
??_R3?$CDynamicPoolEx@VCRotationDecorator@NEffectUpdateDecorator@@@@8 DD 00H ; CDynamicPoolEx<NEffectUpdateDecorator::CRotationDecorator>::`RTTI Class Hierarchy Descriptor'
	DD	00H
	DD	01H
	DD	FLAT:??_R2?$CDynamicPoolEx@VCRotationDecorator@NEffectUpdateDecorator@@@@8
rdata$r	ENDS
;	COMDAT ??_R0?AV?$CDynamicPoolEx@VCRotationDecorator@NEffectUpdateDecorator@@@@@8
data$rs	SEGMENT
??_R0?AV?$CDynamicPoolEx@VCRotationDecorator@NEffectUpdateDecorator@@@@@8 DD FLAT:??_7type_info@@6B@ ; CDynamicPoolEx<NEffectUpdateDecorator::CRotationDecorator> `RTTI Type Descriptor'
	DD	00H
	DB	'.?AV?$CDynamicPoolEx@VCRotationDecorator@NEffectUpdateDe'
	DB	'corator@@@@', 00H
data$rs	ENDS
;	COMDAT ??_R4?$CDynamicPoolEx@VCRotationDecorator@NEffectUpdateDecorator@@@@6B@
rdata$r	SEGMENT
??_R4?$CDynamicPoolEx@VCRotationDecorator@NEffectUpdateDecorator@@@@6B@ DD 00H ; CDynamicPoolEx<NEffectUpdateDecorator::CRotationDecorator>::`RTTI Complete Object Locator'
	DD	00H
	DD	00H
	DD	FLAT:??_R0?AV?$CDynamicPoolEx@VCRotationDecorator@NEffectUpdateDecorator@@@@@8
	DD	FLAT:??_R3?$CDynamicPoolEx@VCRotationDecorator@NEffectUpdateDecorator@@@@8
rdata$r	ENDS
;	COMDAT ??_R1A@?0A@EA@?$CDynamicPoolEx@VCGravityDecorator@NEffectUpdateDecorator@@@@8
rdata$r	SEGMENT
??_R1A@?0A@EA@?$CDynamicPoolEx@VCGravityDecorator@NEffectUpdateDecorator@@@@8 DD FLAT:??_R0?AV?$CDynamicPoolEx@VCGravityDecorator@NEffectUpdateDecorator@@@@@8 ; CDynamicPoolEx<NEffectUpdateDecorator::CGravityDecorator>::`RTTI Base Class Descriptor at (0,-1,0,64)'
	DD	00H
	DD	00H
	DD	0ffffffffH
	DD	00H
	DD	040H
	DD	FLAT:??_R3?$CDynamicPoolEx@VCGravityDecorator@NEffectUpdateDecorator@@@@8
rdata$r	ENDS
;	COMDAT ??_R2?$CDynamicPoolEx@VCGravityDecorator@NEffectUpdateDecorator@@@@8
rdata$r	SEGMENT
??_R2?$CDynamicPoolEx@VCGravityDecorator@NEffectUpdateDecorator@@@@8 DD FLAT:??_R1A@?0A@EA@?$CDynamicPoolEx@VCGravityDecorator@NEffectUpdateDecorator@@@@8 ; CDynamicPoolEx<NEffectUpdateDecorator::CGravityDecorator>::`RTTI Base Class Array'
rdata$r	ENDS
;	COMDAT ??_R3?$CDynamicPoolEx@VCGravityDecorator@NEffectUpdateDecorator@@@@8
rdata$r	SEGMENT
??_R3?$CDynamicPoolEx@VCGravityDecorator@NEffectUpdateDecorator@@@@8 DD 00H ; CDynamicPoolEx<NEffectUpdateDecorator::CGravityDecorator>::`RTTI Class Hierarchy Descriptor'
	DD	00H
	DD	01H
	DD	FLAT:??_R2?$CDynamicPoolEx@VCGravityDecorator@NEffectUpdateDecorator@@@@8
rdata$r	ENDS
;	COMDAT ??_R0?AV?$CDynamicPoolEx@VCGravityDecorator@NEffectUpdateDecorator@@@@@8
data$rs	SEGMENT
??_R0?AV?$CDynamicPoolEx@VCGravityDecorator@NEffectUpdateDecorator@@@@@8 DD FLAT:??_7type_info@@6B@ ; CDynamicPoolEx<NEffectUpdateDecorator::CGravityDecorator> `RTTI Type Descriptor'
	DD	00H
	DB	'.?AV?$CDynamicPoolEx@VCGravityDecorator@NEffectUpdateDec'
	DB	'orator@@@@', 00H
data$rs	ENDS
;	COMDAT ??_R4?$CDynamicPoolEx@VCGravityDecorator@NEffectUpdateDecorator@@@@6B@
rdata$r	SEGMENT
??_R4?$CDynamicPoolEx@VCGravityDecorator@NEffectUpdateDecorator@@@@6B@ DD 00H ; CDynamicPoolEx<NEffectUpdateDecorator::CGravityDecorator>::`RTTI Complete Object Locator'
	DD	00H
	DD	00H
	DD	FLAT:??_R0?AV?$CDynamicPoolEx@VCGravityDecorator@NEffectUpdateDecorator@@@@@8
	DD	FLAT:??_R3?$CDynamicPoolEx@VCGravityDecorator@NEffectUpdateDecorator@@@@8
rdata$r	ENDS
;	COMDAT ??_R1A@?0A@EA@?$CDynamicPoolEx@VCAirResistanceDecorator@NEffectUpdateDecorator@@@@8
rdata$r	SEGMENT
??_R1A@?0A@EA@?$CDynamicPoolEx@VCAirResistanceDecorator@NEffectUpdateDecorator@@@@8 DD FLAT:??_R0?AV?$CDynamicPoolEx@VCAirResistanceDecorator@NEffectUpdateDecorator@@@@@8 ; CDynamicPoolEx<NEffectUpdateDecorator::CAirResistanceDecorator>::`RTTI Base Class Descriptor at (0,-1,0,64)'
	DD	00H
	DD	00H
	DD	0ffffffffH
	DD	00H
	DD	040H
	DD	FLAT:??_R3?$CDynamicPoolEx@VCAirResistanceDecorator@NEffectUpdateDecorator@@@@8
rdata$r	ENDS
;	COMDAT ??_R2?$CDynamicPoolEx@VCAirResistanceDecorator@NEffectUpdateDecorator@@@@8
rdata$r	SEGMENT
??_R2?$CDynamicPoolEx@VCAirResistanceDecorator@NEffectUpdateDecorator@@@@8 DD FLAT:??_R1A@?0A@EA@?$CDynamicPoolEx@VCAirResistanceDecorator@NEffectUpdateDecorator@@@@8 ; CDynamicPoolEx<NEffectUpdateDecorator::CAirResistanceDecorator>::`RTTI Base Class Array'
rdata$r	ENDS
;	COMDAT ??_R3?$CDynamicPoolEx@VCAirResistanceDecorator@NEffectUpdateDecorator@@@@8
rdata$r	SEGMENT
??_R3?$CDynamicPoolEx@VCAirResistanceDecorator@NEffectUpdateDecorator@@@@8 DD 00H ; CDynamicPoolEx<NEffectUpdateDecorator::CAirResistanceDecorator>::`RTTI Class Hierarchy Descriptor'
	DD	00H
	DD	01H
	DD	FLAT:??_R2?$CDynamicPoolEx@VCAirResistanceDecorator@NEffectUpdateDecorator@@@@8
rdata$r	ENDS
;	COMDAT ??_R0?AV?$CDynamicPoolEx@VCAirResistanceDecorator@NEffectUpdateDecorator@@@@@8
data$rs	SEGMENT
??_R0?AV?$CDynamicPoolEx@VCAirResistanceDecorator@NEffectUpdateDecorator@@@@@8 DD FLAT:??_7type_info@@6B@ ; CDynamicPoolEx<NEffectUpdateDecorator::CAirResistanceDecorator> `RTTI Type Descriptor'
	DD	00H
	DB	'.?AV?$CDynamicPoolEx@VCAirResistanceDecorator@NEffectUpd'
	DB	'ateDecorator@@@@', 00H
data$rs	ENDS
;	COMDAT ??_R4?$CDynamicPoolEx@VCAirResistanceDecorator@NEffectUpdateDecorator@@@@6B@
rdata$r	SEGMENT
??_R4?$CDynamicPoolEx@VCAirResistanceDecorator@NEffectUpdateDecorator@@@@6B@ DD 00H ; CDynamicPoolEx<NEffectUpdateDecorator::CAirResistanceDecorator>::`RTTI Complete Object Locator'
	DD	00H
	DD	00H
	DD	FLAT:??_R0?AV?$CDynamicPoolEx@VCAirResistanceDecorator@NEffectUpdateDecorator@@@@@8
	DD	FLAT:??_R3?$CDynamicPoolEx@VCAirResistanceDecorator@NEffectUpdateDecorator@@@@8
rdata$r	ENDS
;	COMDAT ??_R1A@?0A@EA@?$CDynamicPoolEx@VCTextureAnimationRandomDecorator@NEffectUpdateDecorator@@@@8
rdata$r	SEGMENT
??_R1A@?0A@EA@?$CDynamicPoolEx@VCTextureAnimationRandomDecorator@NEffectUpdateDecorator@@@@8 DD FLAT:??_R0?AV?$CDynamicPoolEx@VCTextureAnimationRandomDecorator@NEffectUpdateDecorator@@@@@8 ; CDynamicPoolEx<NEffectUpdateDecorator::CTextureAnimationRandomDecorator>::`RTTI Base Class Descriptor at (0,-1,0,64)'
	DD	00H
	DD	00H
	DD	0ffffffffH
	DD	00H
	DD	040H
	DD	FLAT:??_R3?$CDynamicPoolEx@VCTextureAnimationRandomDecorator@NEffectUpdateDecorator@@@@8
rdata$r	ENDS
;	COMDAT ??_R2?$CDynamicPoolEx@VCTextureAnimationRandomDecorator@NEffectUpdateDecorator@@@@8
rdata$r	SEGMENT
??_R2?$CDynamicPoolEx@VCTextureAnimationRandomDecorator@NEffectUpdateDecorator@@@@8 DD FLAT:??_R1A@?0A@EA@?$CDynamicPoolEx@VCTextureAnimationRandomDecorator@NEffectUpdateDecorator@@@@8 ; CDynamicPoolEx<NEffectUpdateDecorator::CTextureAnimationRandomDecorator>::`RTTI Base Class Array'
rdata$r	ENDS
;	COMDAT ??_R3?$CDynamicPoolEx@VCTextureAnimationRandomDecorator@NEffectUpdateDecorator@@@@8
rdata$r	SEGMENT
??_R3?$CDynamicPoolEx@VCTextureAnimationRandomDecorator@NEffectUpdateDecorator@@@@8 DD 00H ; CDynamicPoolEx<NEffectUpdateDecorator::CTextureAnimationRandomDecorator>::`RTTI Class Hierarchy Descriptor'
	DD	00H
	DD	01H
	DD	FLAT:??_R2?$CDynamicPoolEx@VCTextureAnimationRandomDecorator@NEffectUpdateDecorator@@@@8
rdata$r	ENDS
;	COMDAT ??_R0?AV?$CDynamicPoolEx@VCTextureAnimationRandomDecorator@NEffectUpdateDecorator@@@@@8
data$rs	SEGMENT
??_R0?AV?$CDynamicPoolEx@VCTextureAnimationRandomDecorator@NEffectUpdateDecorator@@@@@8 DD FLAT:??_7type_info@@6B@ ; CDynamicPoolEx<NEffectUpdateDecorator::CTextureAnimationRandomDecorator> `RTTI Type Descriptor'
	DD	00H
	DB	'.?AV?$CDynamicPoolEx@VCTextureAnimationRandomDecorator@N'
	DB	'EffectUpdateDecorator@@@@', 00H
data$rs	ENDS
;	COMDAT ??_R4?$CDynamicPoolEx@VCTextureAnimationRandomDecorator@NEffectUpdateDecorator@@@@6B@
rdata$r	SEGMENT
??_R4?$CDynamicPoolEx@VCTextureAnimationRandomDecorator@NEffectUpdateDecorator@@@@6B@ DD 00H ; CDynamicPoolEx<NEffectUpdateDecorator::CTextureAnimationRandomDecorator>::`RTTI Complete Object Locator'
	DD	00H
	DD	00H
	DD	FLAT:??_R0?AV?$CDynamicPoolEx@VCTextureAnimationRandomDecorator@NEffectUpdateDecorator@@@@@8
	DD	FLAT:??_R3?$CDynamicPoolEx@VCTextureAnimationRandomDecorator@NEffectUpdateDecorator@@@@8
rdata$r	ENDS
;	COMDAT ??_R1A@?0A@EA@?$CDynamicPoolEx@VCTextureAnimationCCWDecorator@NEffectUpdateDecorator@@@@8
rdata$r	SEGMENT
??_R1A@?0A@EA@?$CDynamicPoolEx@VCTextureAnimationCCWDecorator@NEffectUpdateDecorator@@@@8 DD FLAT:??_R0?AV?$CDynamicPoolEx@VCTextureAnimationCCWDecorator@NEffectUpdateDecorator@@@@@8 ; CDynamicPoolEx<NEffectUpdateDecorator::CTextureAnimationCCWDecorator>::`RTTI Base Class Descriptor at (0,-1,0,64)'
	DD	00H
	DD	00H
	DD	0ffffffffH
	DD	00H
	DD	040H
	DD	FLAT:??_R3?$CDynamicPoolEx@VCTextureAnimationCCWDecorator@NEffectUpdateDecorator@@@@8
rdata$r	ENDS
;	COMDAT ??_R2?$CDynamicPoolEx@VCTextureAnimationCCWDecorator@NEffectUpdateDecorator@@@@8
rdata$r	SEGMENT
??_R2?$CDynamicPoolEx@VCTextureAnimationCCWDecorator@NEffectUpdateDecorator@@@@8 DD FLAT:??_R1A@?0A@EA@?$CDynamicPoolEx@VCTextureAnimationCCWDecorator@NEffectUpdateDecorator@@@@8 ; CDynamicPoolEx<NEffectUpdateDecorator::CTextureAnimationCCWDecorator>::`RTTI Base Class Array'
rdata$r	ENDS
;	COMDAT ??_R3?$CDynamicPoolEx@VCTextureAnimationCCWDecorator@NEffectUpdateDecorator@@@@8
rdata$r	SEGMENT
??_R3?$CDynamicPoolEx@VCTextureAnimationCCWDecorator@NEffectUpdateDecorator@@@@8 DD 00H ; CDynamicPoolEx<NEffectUpdateDecorator::CTextureAnimationCCWDecorator>::`RTTI Class Hierarchy Descriptor'
	DD	00H
	DD	01H
	DD	FLAT:??_R2?$CDynamicPoolEx@VCTextureAnimationCCWDecorator@NEffectUpdateDecorator@@@@8
rdata$r	ENDS
;	COMDAT ??_R0?AV?$CDynamicPoolEx@VCTextureAnimationCCWDecorator@NEffectUpdateDecorator@@@@@8
data$rs	SEGMENT
??_R0?AV?$CDynamicPoolEx@VCTextureAnimationCCWDecorator@NEffectUpdateDecorator@@@@@8 DD FLAT:??_7type_info@@6B@ ; CDynamicPoolEx<NEffectUpdateDecorator::CTextureAnimationCCWDecorator> `RTTI Type Descriptor'
	DD	00H
	DB	'.?AV?$CDynamicPoolEx@VCTextureAnimationCCWDecorator@NEff'
	DB	'ectUpdateDecorator@@@@', 00H
data$rs	ENDS
;	COMDAT ??_R4?$CDynamicPoolEx@VCTextureAnimationCCWDecorator@NEffectUpdateDecorator@@@@6B@
rdata$r	SEGMENT
??_R4?$CDynamicPoolEx@VCTextureAnimationCCWDecorator@NEffectUpdateDecorator@@@@6B@ DD 00H ; CDynamicPoolEx<NEffectUpdateDecorator::CTextureAnimationCCWDecorator>::`RTTI Complete Object Locator'
	DD	00H
	DD	00H
	DD	FLAT:??_R0?AV?$CDynamicPoolEx@VCTextureAnimationCCWDecorator@NEffectUpdateDecorator@@@@@8
	DD	FLAT:??_R3?$CDynamicPoolEx@VCTextureAnimationCCWDecorator@NEffectUpdateDecorator@@@@8
rdata$r	ENDS
;	COMDAT ??_R1A@?0A@EA@?$CDynamicPoolEx@VCTextureAnimationCWDecorator@NEffectUpdateDecorator@@@@8
rdata$r	SEGMENT
??_R1A@?0A@EA@?$CDynamicPoolEx@VCTextureAnimationCWDecorator@NEffectUpdateDecorator@@@@8 DD FLAT:??_R0?AV?$CDynamicPoolEx@VCTextureAnimationCWDecorator@NEffectUpdateDecorator@@@@@8 ; CDynamicPoolEx<NEffectUpdateDecorator::CTextureAnimationCWDecorator>::`RTTI Base Class Descriptor at (0,-1,0,64)'
	DD	00H
	DD	00H
	DD	0ffffffffH
	DD	00H
	DD	040H
	DD	FLAT:??_R3?$CDynamicPoolEx@VCTextureAnimationCWDecorator@NEffectUpdateDecorator@@@@8
rdata$r	ENDS
;	COMDAT ??_R2?$CDynamicPoolEx@VCTextureAnimationCWDecorator@NEffectUpdateDecorator@@@@8
rdata$r	SEGMENT
??_R2?$CDynamicPoolEx@VCTextureAnimationCWDecorator@NEffectUpdateDecorator@@@@8 DD FLAT:??_R1A@?0A@EA@?$CDynamicPoolEx@VCTextureAnimationCWDecorator@NEffectUpdateDecorator@@@@8 ; CDynamicPoolEx<NEffectUpdateDecorator::CTextureAnimationCWDecorator>::`RTTI Base Class Array'
rdata$r	ENDS
;	COMDAT ??_R3?$CDynamicPoolEx@VCTextureAnimationCWDecorator@NEffectUpdateDecorator@@@@8
rdata$r	SEGMENT
??_R3?$CDynamicPoolEx@VCTextureAnimationCWDecorator@NEffectUpdateDecorator@@@@8 DD 00H ; CDynamicPoolEx<NEffectUpdateDecorator::CTextureAnimationCWDecorator>::`RTTI Class Hierarchy Descriptor'
	DD	00H
	DD	01H
	DD	FLAT:??_R2?$CDynamicPoolEx@VCTextureAnimationCWDecorator@NEffectUpdateDecorator@@@@8
rdata$r	ENDS
;	COMDAT ??_R0?AV?$CDynamicPoolEx@VCTextureAnimationCWDecorator@NEffectUpdateDecorator@@@@@8
data$rs	SEGMENT
??_R0?AV?$CDynamicPoolEx@VCTextureAnimationCWDecorator@NEffectUpdateDecorator@@@@@8 DD FLAT:??_7type_info@@6B@ ; CDynamicPoolEx<NEffectUpdateDecorator::CTextureAnimationCWDecorator> `RTTI Type Descriptor'
	DD	00H
	DB	'.?AV?$CDynamicPoolEx@VCTextureAnimationCWDecorator@NEffe'
	DB	'ctUpdateDecorator@@@@', 00H
data$rs	ENDS
;	COMDAT ??_R4?$CDynamicPoolEx@VCTextureAnimationCWDecorator@NEffectUpdateDecorator@@@@6B@
rdata$r	SEGMENT
??_R4?$CDynamicPoolEx@VCTextureAnimationCWDecorator@NEffectUpdateDecorator@@@@6B@ DD 00H ; CDynamicPoolEx<NEffectUpdateDecorator::CTextureAnimationCWDecorator>::`RTTI Complete Object Locator'
	DD	00H
	DD	00H
	DD	FLAT:??_R0?AV?$CDynamicPoolEx@VCTextureAnimationCWDecorator@NEffectUpdateDecorator@@@@@8
	DD	FLAT:??_R3?$CDynamicPoolEx@VCTextureAnimationCWDecorator@NEffectUpdateDecorator@@@@8
rdata$r	ENDS
;	COMDAT ??_R1A@?0A@EA@?$CDynamicPoolEx@VCNullDecorator@NEffectUpdateDecorator@@@@8
rdata$r	SEGMENT
??_R1A@?0A@EA@?$CDynamicPoolEx@VCNullDecorator@NEffectUpdateDecorator@@@@8 DD FLAT:??_R0?AV?$CDynamicPoolEx@VCNullDecorator@NEffectUpdateDecorator@@@@@8 ; CDynamicPoolEx<NEffectUpdateDecorator::CNullDecorator>::`RTTI Base Class Descriptor at (0,-1,0,64)'
	DD	00H
	DD	00H
	DD	0ffffffffH
	DD	00H
	DD	040H
	DD	FLAT:??_R3?$CDynamicPoolEx@VCNullDecorator@NEffectUpdateDecorator@@@@8
rdata$r	ENDS
;	COMDAT ??_R2?$CDynamicPoolEx@VCNullDecorator@NEffectUpdateDecorator@@@@8
rdata$r	SEGMENT
??_R2?$CDynamicPoolEx@VCNullDecorator@NEffectUpdateDecorator@@@@8 DD FLAT:??_R1A@?0A@EA@?$CDynamicPoolEx@VCNullDecorator@NEffectUpdateDecorator@@@@8 ; CDynamicPoolEx<NEffectUpdateDecorator::CNullDecorator>::`RTTI Base Class Array'
rdata$r	ENDS
;	COMDAT ??_R3?$CDynamicPoolEx@VCNullDecorator@NEffectUpdateDecorator@@@@8
rdata$r	SEGMENT
??_R3?$CDynamicPoolEx@VCNullDecorator@NEffectUpdateDecorator@@@@8 DD 00H ; CDynamicPoolEx<NEffectUpdateDecorator::CNullDecorator>::`RTTI Class Hierarchy Descriptor'
	DD	00H
	DD	01H
	DD	FLAT:??_R2?$CDynamicPoolEx@VCNullDecorator@NEffectUpdateDecorator@@@@8
rdata$r	ENDS
;	COMDAT ??_R0?AV?$CDynamicPoolEx@VCNullDecorator@NEffectUpdateDecorator@@@@@8
data$rs	SEGMENT
??_R0?AV?$CDynamicPoolEx@VCNullDecorator@NEffectUpdateDecorator@@@@@8 DD FLAT:??_7type_info@@6B@ ; CDynamicPoolEx<NEffectUpdateDecorator::CNullDecorator> `RTTI Type Descriptor'
	DD	00H
	DB	'.?AV?$CDynamicPoolEx@VCNullDecorator@NEffectUpdateDecora'
	DB	'tor@@@@', 00H
data$rs	ENDS
;	COMDAT ??_R4?$CDynamicPoolEx@VCNullDecorator@NEffectUpdateDecorator@@@@6B@
rdata$r	SEGMENT
??_R4?$CDynamicPoolEx@VCNullDecorator@NEffectUpdateDecorator@@@@6B@ DD 00H ; CDynamicPoolEx<NEffectUpdateDecorator::CNullDecorator>::`RTTI Complete Object Locator'
	DD	00H
	DD	00H
	DD	FLAT:??_R0?AV?$CDynamicPoolEx@VCNullDecorator@NEffectUpdateDecorator@@@@@8
	DD	FLAT:??_R3?$CDynamicPoolEx@VCNullDecorator@NEffectUpdateDecorator@@@@8
rdata$r	ENDS
;	COMDAT ??_R1A@?0A@EA@?$CDynamicPoolEx@VCHeaderDecorator@NEffectUpdateDecorator@@@@8
rdata$r	SEGMENT
??_R1A@?0A@EA@?$CDynamicPoolEx@VCHeaderDecorator@NEffectUpdateDecorator@@@@8 DD FLAT:??_R0?AV?$CDynamicPoolEx@VCHeaderDecorator@NEffectUpdateDecorator@@@@@8 ; CDynamicPoolEx<NEffectUpdateDecorator::CHeaderDecorator>::`RTTI Base Class Descriptor at (0,-1,0,64)'
	DD	00H
	DD	00H
	DD	0ffffffffH
	DD	00H
	DD	040H
	DD	FLAT:??_R3?$CDynamicPoolEx@VCHeaderDecorator@NEffectUpdateDecorator@@@@8
rdata$r	ENDS
;	COMDAT ??_R2?$CDynamicPoolEx@VCHeaderDecorator@NEffectUpdateDecorator@@@@8
rdata$r	SEGMENT
??_R2?$CDynamicPoolEx@VCHeaderDecorator@NEffectUpdateDecorator@@@@8 DD FLAT:??_R1A@?0A@EA@?$CDynamicPoolEx@VCHeaderDecorator@NEffectUpdateDecorator@@@@8 ; CDynamicPoolEx<NEffectUpdateDecorator::CHeaderDecorator>::`RTTI Base Class Array'
rdata$r	ENDS
;	COMDAT ??_R3?$CDynamicPoolEx@VCHeaderDecorator@NEffectUpdateDecorator@@@@8
rdata$r	SEGMENT
??_R3?$CDynamicPoolEx@VCHeaderDecorator@NEffectUpdateDecorator@@@@8 DD 00H ; CDynamicPoolEx<NEffectUpdateDecorator::CHeaderDecorator>::`RTTI Class Hierarchy Descriptor'
	DD	00H
	DD	01H
	DD	FLAT:??_R2?$CDynamicPoolEx@VCHeaderDecorator@NEffectUpdateDecorator@@@@8
rdata$r	ENDS
;	COMDAT ??_R0?AV?$CDynamicPoolEx@VCHeaderDecorator@NEffectUpdateDecorator@@@@@8
data$rs	SEGMENT
??_R0?AV?$CDynamicPoolEx@VCHeaderDecorator@NEffectUpdateDecorator@@@@@8 DD FLAT:??_7type_info@@6B@ ; CDynamicPoolEx<NEffectUpdateDecorator::CHeaderDecorator> `RTTI Type Descriptor'
	DD	00H
	DB	'.?AV?$CDynamicPoolEx@VCHeaderDecorator@NEffectUpdateDeco'
	DB	'rator@@@@', 00H
data$rs	ENDS
;	COMDAT ??_R4?$CDynamicPoolEx@VCHeaderDecorator@NEffectUpdateDecorator@@@@6B@
rdata$r	SEGMENT
??_R4?$CDynamicPoolEx@VCHeaderDecorator@NEffectUpdateDecorator@@@@6B@ DD 00H ; CDynamicPoolEx<NEffectUpdateDecorator::CHeaderDecorator>::`RTTI Complete Object Locator'
	DD	00H
	DD	00H
	DD	FLAT:??_R0?AV?$CDynamicPoolEx@VCHeaderDecorator@NEffectUpdateDecorator@@@@@8
	DD	FLAT:??_R3?$CDynamicPoolEx@VCHeaderDecorator@NEffectUpdateDecorator@@@@8
rdata$r	ENDS
;	COMDAT ??_7?$CDynamicPoolEx@VCHeaderDecorator@NEffectUpdateDecorator@@@@6B@
CONST	SEGMENT
??_7?$CDynamicPoolEx@VCHeaderDecorator@NEffectUpdateDecorator@@@@6B@ DD FLAT:??_R4?$CDynamicPoolEx@VCHeaderDecorator@NEffectUpdateDecorator@@@@6B@ ; CDynamicPoolEx<NEffectUpdateDecorator::CHeaderDecorator>::`vftable'
	DD	FLAT:??_E?$CDynamicPoolEx@VCHeaderDecorator@NEffectUpdateDecorator@@@@UAEPAXI@Z
CONST	ENDS
;	COMDAT ??_7?$CDynamicPoolEx@VCNullDecorator@NEffectUpdateDecorator@@@@6B@
CONST	SEGMENT
??_7?$CDynamicPoolEx@VCNullDecorator@NEffectUpdateDecorator@@@@6B@ DD FLAT:??_R4?$CDynamicPoolEx@VCNullDecorator@NEffectUpdateDecorator@@@@6B@ ; CDynamicPoolEx<NEffectUpdateDecorator::CNullDecorator>::`vftable'
	DD	FLAT:??_E?$CDynamicPoolEx@VCNullDecorator@NEffectUpdateDecorator@@@@UAEPAXI@Z
CONST	ENDS
;	COMDAT ??_7?$CDynamicPoolEx@VCTextureAnimationCWDecorator@NEffectUpdateDecorator@@@@6B@
CONST	SEGMENT
??_7?$CDynamicPoolEx@VCTextureAnimationCWDecorator@NEffectUpdateDecorator@@@@6B@ DD FLAT:??_R4?$CDynamicPoolEx@VCTextureAnimationCWDecorator@NEffectUpdateDecorator@@@@6B@ ; CDynamicPoolEx<NEffectUpdateDecorator::CTextureAnimationCWDecorator>::`vftable'
	DD	FLAT:??_E?$CDynamicPoolEx@VCTextureAnimationCWDecorator@NEffectUpdateDecorator@@@@UAEPAXI@Z
CONST	ENDS
;	COMDAT ??_7?$CDynamicPoolEx@VCTextureAnimationCCWDecorator@NEffectUpdateDecorator@@@@6B@
CONST	SEGMENT
??_7?$CDynamicPoolEx@VCTextureAnimationCCWDecorator@NEffectUpdateDecorator@@@@6B@ DD FLAT:??_R4?$CDynamicPoolEx@VCTextureAnimationCCWDecorator@NEffectUpdateDecorator@@@@6B@ ; CDynamicPoolEx<NEffectUpdateDecorator::CTextureAnimationCCWDecorator>::`vftable'
	DD	FLAT:??_E?$CDynamicPoolEx@VCTextureAnimationCCWDecorator@NEffectUpdateDecorator@@@@UAEPAXI@Z
CONST	ENDS
;	COMDAT ??_7?$CDynamicPoolEx@VCTextureAnimationRandomDecorator@NEffectUpdateDecorator@@@@6B@
CONST	SEGMENT
??_7?$CDynamicPoolEx@VCTextureAnimationRandomDecorator@NEffectUpdateDecorator@@@@6B@ DD FLAT:??_R4?$CDynamicPoolEx@VCTextureAnimationRandomDecorator@NEffectUpdateDecorator@@@@6B@ ; CDynamicPoolEx<NEffectUpdateDecorator::CTextureAnimationRandomDecorator>::`vftable'
	DD	FLAT:??_E?$CDynamicPoolEx@VCTextureAnimationRandomDecorator@NEffectUpdateDecorator@@@@UAEPAXI@Z
CONST	ENDS
;	COMDAT ??_7?$CDynamicPoolEx@VCAirResistanceDecorator@NEffectUpdateDecorator@@@@6B@
CONST	SEGMENT
??_7?$CDynamicPoolEx@VCAirResistanceDecorator@NEffectUpdateDecorator@@@@6B@ DD FLAT:??_R4?$CDynamicPoolEx@VCAirResistanceDecorator@NEffectUpdateDecorator@@@@6B@ ; CDynamicPoolEx<NEffectUpdateDecorator::CAirResistanceDecorator>::`vftable'
	DD	FLAT:??_E?$CDynamicPoolEx@VCAirResistanceDecorator@NEffectUpdateDecorator@@@@UAEPAXI@Z
CONST	ENDS
;	COMDAT ??_7?$CDynamicPoolEx@VCGravityDecorator@NEffectUpdateDecorator@@@@6B@
CONST	SEGMENT
??_7?$CDynamicPoolEx@VCGravityDecorator@NEffectUpdateDecorator@@@@6B@ DD FLAT:??_R4?$CDynamicPoolEx@VCGravityDecorator@NEffectUpdateDecorator@@@@6B@ ; CDynamicPoolEx<NEffectUpdateDecorator::CGravityDecorator>::`vftable'
	DD	FLAT:??_E?$CDynamicPoolEx@VCGravityDecorator@NEffectUpdateDecorator@@@@UAEPAXI@Z
CONST	ENDS
;	COMDAT ??_7?$CDynamicPoolEx@VCRotationDecorator@NEffectUpdateDecorator@@@@6B@
CONST	SEGMENT
??_7?$CDynamicPoolEx@VCRotationDecorator@NEffectUpdateDecorator@@@@6B@ DD FLAT:??_R4?$CDynamicPoolEx@VCRotationDecorator@NEffectUpdateDecorator@@@@6B@ ; CDynamicPoolEx<NEffectUpdateDecorator::CRotationDecorator>::`vftable'
	DD	FLAT:??_E?$CDynamicPoolEx@VCRotationDecorator@NEffectUpdateDecorator@@@@UAEPAXI@Z
CONST	ENDS
;	COMDAT ??_C@_0BJ@FKDKMNNK@APPLY_ANTI_PENETRATE_PCT@
CONST	SEGMENT
??_C@_0BJ@FKDKMNNK@APPLY_ANTI_PENETRATE_PCT@ DB 'APPLY_ANTI_PENETRATE_PCT'
	DB	00H						; `string'
CONST	ENDS
;	COMDAT ??_C@_0BI@KIMFHHIO@APPLY_ANTI_CRITICAL_PCT@
CONST	SEGMENT
??_C@_0BI@KIMFHHIO@APPLY_ANTI_CRITICAL_PCT@ DB 'APPLY_ANTI_CRITICAL_PCT', 00H ; `string'
CONST	ENDS
;	COMDAT ??_C@_0BC@DDBEBBJF@APPLY_RESIST_DARK@
CONST	SEGMENT
??_C@_0BC@DDBEBBJF@APPLY_RESIST_DARK@ DB 'APPLY_RESIST_DARK', 00H ; `string'
CONST	ENDS
;	COMDAT ??_C@_0BD@GENAIBDP@APPLY_RESIST_EARTH@
CONST	SEGMENT
??_C@_0BD@GENAIBDP@APPLY_RESIST_EARTH@ DB 'APPLY_RESIST_EARTH', 00H ; `string'
CONST	ENDS
;	COMDAT ??_C@_0BB@CGPGAFA@APPLY_RESIST_ICE@
CONST	SEGMENT
??_C@_0BB@CGPGAFA@APPLY_RESIST_ICE@ DB 'APPLY_RESIST_ICE', 00H ; `string'
CONST	ENDS
;	COMDAT ??_C@_0BP@MGKGKJGA@APPLY_MELEE_MAGIC_ATTBONUS_PER@
CONST	SEGMENT
??_C@_0BP@MGKGKJGA@APPLY_MELEE_MAGIC_ATTBONUS_PER@ DB 'APPLY_MELEE_MAGIC_'
	DB	'ATTBONUS_PER', 00H				; `string'
CONST	ENDS
;	COMDAT ??_C@_0BJ@JJJKDKFC@APPLY_MAGIC_ATTBONUS_PER@
CONST	SEGMENT
??_C@_0BJ@JJJKDKFC@APPLY_MAGIC_ATTBONUS_PER@ DB 'APPLY_MAGIC_ATTBONUS_PER'
	DB	00H						; `string'
CONST	ENDS
;	COMDAT ??_C@_0BJ@IGOAELFN@APPLY_COSTUME_ATTR_BONUS@
CONST	SEGMENT
??_C@_0BJ@IGOAELFN@APPLY_COSTUME_ATTR_BONUS@ DB 'APPLY_COSTUME_ATTR_BONUS'
	DB	00H						; `string'
CONST	ENDS
;	COMDAT ??_C@_0N@MOPONLJI@APPLY_ENERGY@
CONST	SEGMENT
??_C@_0N@MOPONLJI@APPLY_ENERGY@ DB 'APPLY_ENERGY', 00H	; `string'
CONST	ENDS
;	COMDAT ??_C@_0BE@POHJKJMD@APPLY_RESIST_SHAMAN@
CONST	SEGMENT
??_C@_0BE@POHJKJMD@APPLY_RESIST_SHAMAN@ DB 'APPLY_RESIST_SHAMAN', 00H ; `string'
CONST	ENDS
;	COMDAT ??_C@_0BC@MEEAHCEF@APPLY_RESIST_SURA@
CONST	SEGMENT
??_C@_0BC@MEEAHCEF@APPLY_RESIST_SURA@ DB 'APPLY_RESIST_SURA', 00H ; `string'
CONST	ENDS
;	COMDAT ??_C@_0BG@MCFLPEMK@APPLY_RESIST_ASSASSIN@
CONST	SEGMENT
??_C@_0BG@MCFLPEMK@APPLY_RESIST_ASSASSIN@ DB 'APPLY_RESIST_ASSASSIN', 00H ; `string'
CONST	ENDS
;	COMDAT ??_C@_0BF@DIEIKMOC@APPLY_RESIST_WARRIOR@
CONST	SEGMENT
??_C@_0BF@DIEIKMOC@APPLY_RESIST_WARRIOR@ DB 'APPLY_RESIST_WARRIOR', 00H ; `string'
CONST	ENDS
;	COMDAT ??_C@_0BJ@MIHJNNLH@APPLY_PC_BANG_DROP_BONUS@
CONST	SEGMENT
??_C@_0BJ@MIHJNNLH@APPLY_PC_BANG_DROP_BONUS@ DB 'APPLY_PC_BANG_DROP_BONUS'
	DB	00H						; `string'
CONST	ENDS
;	COMDAT ??_C@_0BI@MMJMNMDE@APPLY_PC_BANG_EXP_BONUS@
CONST	SEGMENT
??_C@_0BI@MMJMNMDE@APPLY_PC_BANG_EXP_BONUS@ DB 'APPLY_PC_BANG_EXP_BONUS', 00H ; `string'
CONST	ENDS
;	COMDAT ??_C@_0BO@OAPOHFCD@APPLY_NORMAL_HIT_DEFEND_BONUS@
CONST	SEGMENT
??_C@_0BO@OAPOHFCD@APPLY_NORMAL_HIT_DEFEND_BONUS@ DB 'APPLY_NORMAL_HIT_DE'
	DB	'FEND_BONUS', 00H				; `string'
CONST	ENDS
;	COMDAT ??_C@_0BJ@MCFLODEL@APPLY_SKILL_DEFEND_BONUS@
CONST	SEGMENT
??_C@_0BJ@MCFLODEL@APPLY_SKILL_DEFEND_BONUS@ DB 'APPLY_SKILL_DEFEND_BONUS'
	DB	00H						; `string'
CONST	ENDS
;	COMDAT ??_C@_0BO@KJDLNPKH@APPLY_NORMAL_HIT_DAMAGE_BONUS@
CONST	SEGMENT
??_C@_0BO@KJDLNPKH@APPLY_NORMAL_HIT_DAMAGE_BONUS@ DB 'APPLY_NORMAL_HIT_DA'
	DB	'MAGE_BONUS', 00H				; `string'
CONST	ENDS
;	COMDAT ??_C@_0BJ@ILJOEJMP@APPLY_SKILL_DAMAGE_BONUS@
CONST	SEGMENT
??_C@_0BJ@ILJOEJMP@APPLY_SKILL_DAMAGE_BONUS@ DB 'APPLY_SKILL_DAMAGE_BONUS'
	DB	00H						; `string'
CONST	ENDS
;	COMDAT ??_C@_0BB@OLFCCPEF@APPLY_MAX_SP_PCT@
CONST	SEGMENT
??_C@_0BB@OLFCCPEF@APPLY_MAX_SP_PCT@ DB 'APPLY_MAX_SP_PCT', 00H ; `string'
CONST	ENDS
;	COMDAT ??_C@_0BB@IOILOHHB@APPLY_MAX_HP_PCT@
CONST	SEGMENT
??_C@_0BB@IOILOHHB@APPLY_MAX_HP_PCT@ DB 'APPLY_MAX_HP_PCT', 00H ; `string'
CONST	ENDS
;	COMDAT ??_C@_0BF@CNKLONKF@APPLY_MALL_GOLDBONUS@
CONST	SEGMENT
??_C@_0BF@CNKLONKF@APPLY_MALL_GOLDBONUS@ DB 'APPLY_MALL_GOLDBONUS', 00H ; `string'
CONST	ENDS
;	COMDAT ??_C@_0BF@JHCAFPEC@APPLY_MALL_ITEMBONUS@
CONST	SEGMENT
??_C@_0BF@JHCAFPEC@APPLY_MALL_ITEMBONUS@ DB 'APPLY_MALL_ITEMBONUS', 00H ; `string'
CONST	ENDS
;	COMDAT ??_C@_0BE@HDMKGFGB@APPLY_MALL_EXPBONUS@
CONST	SEGMENT
??_C@_0BE@HDMKGFGB@APPLY_MALL_EXPBONUS@ DB 'APPLY_MALL_EXPBONUS', 00H ; `string'
CONST	ENDS
;	COMDAT ??_C@_0BE@IHABPMCM@APPLY_MALL_DEFBONUS@
CONST	SEGMENT
??_C@_0BE@IHABPMCM@APPLY_MALL_DEFBONUS@ DB 'APPLY_MALL_DEFBONUS', 00H ; `string'
CONST	ENDS
;	COMDAT ??_C@_0BE@INMGAFDB@APPLY_MALL_ATTBONUS@
CONST	SEGMENT
??_C@_0BE@INMGAFDB@APPLY_MALL_ATTBONUS@ DB 'APPLY_MALL_ATTBONUS', 00H ; `string'
CONST	ENDS
;	COMDAT ??_C@_0BH@OMHBNPNG@APPLY_ATTBONUS_MONSTER@
CONST	SEGMENT
??_C@_0BH@OMHBNPNG@APPLY_ATTBONUS_MONSTER@ DB 'APPLY_ATTBONUS_MONSTER', 00H ; `string'
CONST	ENDS
;	COMDAT ??_C@_0BG@HGCDBIBP@APPLY_ATTBONUS_SHAMAN@
CONST	SEGMENT
??_C@_0BG@HGCDBIBP@APPLY_ATTBONUS_SHAMAN@ DB 'APPLY_ATTBONUS_SHAMAN', 00H ; `string'
CONST	ENDS
;	COMDAT ??_C@_0BE@EHJIJMPG@APPLY_ATTBONUS_SURA@
CONST	SEGMENT
??_C@_0BE@EHJIJMPG@APPLY_ATTBONUS_SURA@ DB 'APPLY_ATTBONUS_SURA', 00H ; `string'
CONST	ENDS
;	COMDAT ??_C@_0BI@FDLAHFJJ@APPLY_ATTBONUS_ASSASSIN@
CONST	SEGMENT
??_C@_0BI@FDLAHFJJ@APPLY_ATTBONUS_ASSASSIN@ DB 'APPLY_ATTBONUS_ASSASSIN', 00H ; `string'
CONST	ENDS
;	COMDAT ??_C@_0BH@LHKFGIKM@APPLY_ATTBONUS_WARRIOR@
CONST	SEGMENT
??_C@_0BH@LHKFGIKM@APPLY_ATTBONUS_WARRIOR@ DB 'APPLY_ATTBONUS_WARRIOR', 00H ; `string'
CONST	ENDS
;	COMDAT ??_C@_0BC@MENAELHN@APPLY_MAX_STAMINA@
CONST	SEGMENT
??_C@_0BC@MENAELHN@APPLY_MAX_STAMINA@ DB 'APPLY_MAX_STAMINA', 00H ; `string'
CONST	ENDS
;	COMDAT ??_C@_0BC@ICOAEBEB@APPLY_IMMUNE_FALL@
CONST	SEGMENT
??_C@_0BC@ICOAEBEB@APPLY_IMMUNE_FALL@ DB 'APPLY_IMMUNE_FALL', 00H ; `string'
CONST	ENDS
;	COMDAT ??_C@_0BC@HDPKPEKN@APPLY_IMMUNE_SLOW@
CONST	SEGMENT
??_C@_0BC@HDPKPEKN@APPLY_IMMUNE_SLOW@ DB 'APPLY_IMMUNE_SLOW', 00H ; `string'
CONST	ENDS
;	COMDAT ??_C@_0BC@GMOGAEGD@APPLY_IMMUNE_STUN@
CONST	SEGMENT
??_C@_0BC@GMOGAEGD@APPLY_IMMUNE_STUN@ DB 'APPLY_IMMUNE_STUN', 00H ; `string'
CONST	ENDS
;	COMDAT ??_C@_0BG@FNNLKJON@APPLY_KILL_HP_RECOVER@
CONST	SEGMENT
??_C@_0BG@FNNLKJON@APPLY_KILL_HP_RECOVER@ DB 'APPLY_KILL_HP_RECOVER', 00H ; `string'
CONST	ENDS
;	COMDAT ??_C@_0BD@HAABJCED@APPLY_POTION_BONUS@
CONST	SEGMENT
??_C@_0BD@HAABJCED@APPLY_POTION_BONUS@ DB 'APPLY_POTION_BONUS', 00H ; `string'
CONST	ENDS
;	COMDAT ??_C@_0BG@GJLPLNJK@APPLY_ITEM_DROP_BONUS@
CONST	SEGMENT
??_C@_0BG@GJLPLNJK@APPLY_ITEM_DROP_BONUS@ DB 'APPLY_ITEM_DROP_BONUS', 00H ; `string'
CONST	ENDS
;	COMDAT ??_C@_0BI@CPGCKKHM@APPLY_GOLD_DOUBLE_BONUS@
CONST	SEGMENT
??_C@_0BI@CPGCKKHM@APPLY_GOLD_DOUBLE_BONUS@ DB 'APPLY_GOLD_DOUBLE_BONUS', 00H ; `string'
CONST	ENDS
;	COMDAT ??_C@_0BH@BOFCHNGC@APPLY_EXP_DOUBLE_BONUS@
CONST	SEGMENT
??_C@_0BH@BOFCHNGC@APPLY_EXP_DOUBLE_BONUS@ DB 'APPLY_EXP_DOUBLE_BONUS', 00H ; `string'
CONST	ENDS
;	COMDAT ??_C@_0BG@NAAMOKGC@APPLY_KILL_SP_RECOVER@
CONST	SEGMENT
??_C@_0BG@NAAMOKGC@APPLY_KILL_SP_RECOVER@ DB 'APPLY_KILL_SP_RECOVER', 00H ; `string'
CONST	ENDS
;	COMDAT ??_C@_0BE@CMJGNONM@APPLY_POISON_REDUCE@
CONST	SEGMENT
??_C@_0BE@CMJGNONM@APPLY_POISON_REDUCE@ DB 'APPLY_POISON_REDUCE', 00H ; `string'
CONST	ENDS
;	COMDAT ??_C@_0BE@GIMFBPMF@APPLY_REFLECT_CURSE@
CONST	SEGMENT
??_C@_0BE@GIMFBPMF@APPLY_REFLECT_CURSE@ DB 'APPLY_REFLECT_CURSE', 00H ; `string'
CONST	ENDS
;	COMDAT ??_C@_0BE@JKECBGFJ@APPLY_REFLECT_MELEE@
CONST	SEGMENT
??_C@_0BE@JKECBGFJ@APPLY_REFLECT_MELEE@ DB 'APPLY_REFLECT_MELEE', 00H ; `string'
CONST	ENDS
;	COMDAT ??_C@_0BC@EDEEJCPD@APPLY_RESIST_WIND@
CONST	SEGMENT
??_C@_0BC@EDEEJCPD@APPLY_RESIST_WIND@ DB 'APPLY_RESIST_WIND', 00H ; `string'
CONST	ENDS
;	COMDAT ??_C@_0BB@LKHMHNKD@APPLY_RESIST_FAN@
CONST	SEGMENT
??_C@_0BB@LKHMHNKD@APPLY_RESIST_FAN@ DB 'APPLY_RESIST_FAN', 00H ; `string'
CONST	ENDS
;	COMDAT ??_C@_0BC@GKMPGLNP@APPLY_RESIST_BELL@
CONST	SEGMENT
??_C@_0BC@GKMPGLNP@APPLY_RESIST_BELL@ DB 'APPLY_RESIST_BELL', 00H ; `string'
CONST	ENDS
;	COMDAT ??_C@_0BE@HKIMLKAO@APPLY_RESIST_DAGGER@
CONST	SEGMENT
??_C@_0BE@HKIMLKAO@APPLY_RESIST_DAGGER@ DB 'APPLY_RESIST_DAGGER', 00H ; `string'
CONST	ENDS
;	COMDAT ??_C@_0BF@PPDPGLJM@APPLY_RESIST_TWOHAND@
CONST	SEGMENT
??_C@_0BF@PPDPGLJM@APPLY_RESIST_TWOHAND@ DB 'APPLY_RESIST_TWOHAND', 00H ; `string'
CONST	ENDS
;	COMDAT ??_C@_0BD@FELELOGH@APPLY_RESIST_SWORD@
CONST	SEGMENT
??_C@_0BD@FELELOGH@APPLY_RESIST_SWORD@ DB 'APPLY_RESIST_SWORD', 00H ; `string'
CONST	ENDS
;	COMDAT ??_C@_0M@OLNDHAEO@APPLY_DODGE@
CONST	SEGMENT
??_C@_0M@OLNDHAEO@APPLY_DODGE@ DB 'APPLY_DODGE', 00H	; `string'
CONST	ENDS
;	COMDAT ??_C@_0M@DEKBOLNA@APPLY_BLOCK@
CONST	SEGMENT
??_C@_0M@DEKBOLNA@APPLY_BLOCK@ DB 'APPLY_BLOCK', 00H	; `string'
CONST	ENDS
;	COMDAT ??_C@_0BI@CNPFJGMF@APPLY_DAMAGE_SP_RECOVER@
CONST	SEGMENT
??_C@_0BI@CNPFJGMF@APPLY_DAMAGE_SP_RECOVER@ DB 'APPLY_DAMAGE_SP_RECOVER', 00H ; `string'
CONST	ENDS
;	COMDAT ??_C@_0BE@MMJAOBJI@APPLY_MANA_BURN_PCT@
CONST	SEGMENT
??_C@_0BE@MMJAOBJI@APPLY_MANA_BURN_PCT@ DB 'APPLY_MANA_BURN_PCT', 00H ; `string'
CONST	ENDS
;	COMDAT ??_C@_0P@JJIAAAON@APPLY_STEAL_SP@
CONST	SEGMENT
??_C@_0P@JJIAAAON@APPLY_STEAL_SP@ DB 'APPLY_STEAL_SP', 00H ; `string'
CONST	ENDS
;	COMDAT ??_C@_0P@IJPDEMHM@APPLY_STEAL_HP@
CONST	SEGMENT
??_C@_0P@IJPDEMHM@APPLY_STEAL_HP@ DB 'APPLY_STEAL_HP', 00H ; `string'
CONST	ENDS
;	COMDAT ??_C@_0BG@BGJNMLHF@APPLY_ATTBONUS_MILGYO@
CONST	SEGMENT
??_C@_0BG@BGJNMLHF@APPLY_ATTBONUS_MILGYO@ DB 'APPLY_ATTBONUS_MILGYO', 00H ; `string'
CONST	ENDS
;	COMDAT ??_C@_0BD@GHNBCFFK@APPLY_ATTBONUS_ORC@
CONST	SEGMENT
??_C@_0BD@GHNBCFFK@APPLY_ATTBONUS_ORC@ DB 'APPLY_ATTBONUS_ORC', 00H ; `string'
CONST	ENDS
;	COMDAT ??_C@_0BE@MIHOPHBF@APPLY_PENETRATE_PCT@
CONST	SEGMENT
??_C@_0BE@MIHOPHBF@APPLY_PENETRATE_PCT@ DB 'APPLY_PENETRATE_PCT', 00H ; `string'
CONST	ENDS
;	COMDAT ??_C@_0BD@DOHBCDEC@APPLY_CRITICAL_PCT@
CONST	SEGMENT
??_C@_0BD@DOHBCDEC@APPLY_CRITICAL_PCT@ DB 'APPLY_CRITICAL_PCT', 00H ; `string'
CONST	ENDS
;	COMDAT ??_C@_0P@IGBLFIG@APPLY_STUN_PCT@
CONST	SEGMENT
??_C@_0P@IGBLFIG@APPLY_STUN_PCT@ DB 'APPLY_STUN_PCT', 00H ; `string'
CONST	ENDS
;	COMDAT ??_C@_0P@EAEIAPML@APPLY_SLOW_PCT@
CONST	SEGMENT
??_C@_0P@EAEIAPML@APPLY_SLOW_PCT@ DB 'APPLY_SLOW_PCT', 00H ; `string'
CONST	ENDS
;	COMDAT ??_C@_0BB@OFEPEABG@APPLY_POISON_PCT@
CONST	SEGMENT
??_C@_0BB@OFEPEABG@APPLY_POISON_PCT@ DB 'APPLY_POISON_PCT', 00H ; `string'
CONST	ENDS
;	COMDAT ??_C@_0BD@BIEOENBH@APPLY_RESIST_MAGIC@
CONST	SEGMENT
??_C@_0BD@BIEOENBH@APPLY_RESIST_MAGIC@ DB 'APPLY_RESIST_MAGIC', 00H ; `string'
CONST	ENDS
;	COMDAT ??_C@_0BC@CNKONPAF@APPLY_RESIST_ELEC@
CONST	SEGMENT
??_C@_0BC@CNKONPAF@APPLY_RESIST_ELEC@ DB 'APPLY_RESIST_ELEC', 00H ; `string'
CONST	ENDS
;	COMDAT ??_C@_0BC@BCODEHJE@APPLY_RESIST_FIRE@
CONST	SEGMENT
??_C@_0BC@BCODEHJE@APPLY_RESIST_FIRE@ DB 'APPLY_RESIST_FIRE', 00H ; `string'
CONST	ENDS
;	COMDAT ??_C@_0BB@KEIAGOOG@APPLY_RESIST_BOW@
CONST	SEGMENT
??_C@_0BB@KEIAGOOG@APPLY_RESIST_BOW@ DB 'APPLY_RESIST_BOW', 00H ; `string'
CONST	ENDS
;	COMDAT ??_C@_0BD@DGLENODO@APPLY_BOW_DISTANCE@
CONST	SEGMENT
??_C@_0BD@DGLENODO@APPLY_BOW_DISTANCE@ DB 'APPLY_BOW_DISTANCE', 00H ; `string'
CONST	ENDS
;	COMDAT ??_C@_0BF@FLAIBIKP@APPLY_ATTBONUS_HUMAN@
CONST	SEGMENT
??_C@_0BF@FLAIBIKP@APPLY_ATTBONUS_HUMAN@ DB 'APPLY_ATTBONUS_HUMAN', 00H ; `string'
CONST	ENDS
;	COMDAT ??_C@_0BF@PHBHKMPC@APPLY_ATTBONUS_DEVIL@
CONST	SEGMENT
??_C@_0BF@PHBHKMPC@APPLY_ATTBONUS_DEVIL@ DB 'APPLY_ATTBONUS_DEVIL', 00H ; `string'
CONST	ENDS
;	COMDAT ??_C@_0BG@DEBBIBCN@APPLY_ATTBONUS_UNDEAD@
CONST	SEGMENT
??_C@_0BG@DEBBIBCN@APPLY_ATTBONUS_UNDEAD@ DB 'APPLY_ATTBONUS_UNDEAD', 00H ; `string'
CONST	ENDS
;	COMDAT ??_C@_0BG@FCHNFPKG@APPLY_ATTBONUS_ANIMAL@
CONST	SEGMENT
??_C@_0BG@FCHNFPKG@APPLY_ATTBONUS_ANIMAL@ DB 'APPLY_ATTBONUS_ANIMAL', 00H ; `string'
CONST	ENDS
;	COMDAT ??_C@_0M@CPHNGINI@APPLY_SKILL@
CONST	SEGMENT
??_C@_0M@CPHNGINI@APPLY_SKILL@ DB 'APPLY_SKILL', 00H	; `string'
CONST	ENDS
;	COMDAT ??_C@_0BG@PLJBHAML@APPLY_MAGIC_DEF_GRADE@
CONST	SEGMENT
??_C@_0BG@PLJBHAML@APPLY_MAGIC_DEF_GRADE@ DB 'APPLY_MAGIC_DEF_GRADE', 00H ; `string'
CONST	ENDS
;	COMDAT ??_C@_0BG@JIJNNLOL@APPLY_MAGIC_ATT_GRADE@
CONST	SEGMENT
??_C@_0BG@JIJNNLOL@APPLY_MAGIC_ATT_GRADE@ DB 'APPLY_MAGIC_ATT_GRADE', 00H ; `string'
CONST	ENDS
;	COMDAT ??_C@_0BB@IMPHMAIN@APPLY_CAST_SPEED@
CONST	SEGMENT
??_C@_0BB@IMPHMAIN@APPLY_CAST_SPEED@ DB 'APPLY_CAST_SPEED', 00H ; `string'
CONST	ENDS
;	COMDAT ??_C@_0BA@IHFPGGCP@APPLY_MOV_SPEED@
CONST	SEGMENT
??_C@_0BA@IHFPGGCP@APPLY_MOV_SPEED@ DB 'APPLY_MOV_SPEED', 00H ; `string'
CONST	ENDS
;	COMDAT ??_C@_0BA@PBNDFNHA@APPLY_ATT_SPEED@
CONST	SEGMENT
??_C@_0BA@PBNDFNHA@APPLY_ATT_SPEED@ DB 'APPLY_ATT_SPEED', 00H ; `string'
CONST	ENDS
;	COMDAT ??_C@_0BG@DIKOCKN@APPLY_ATT_GRADE_BONUS@
CONST	SEGMENT
??_C@_0BG@DIKOCKN@APPLY_ATT_GRADE_BONUS@ DB 'APPLY_ATT_GRADE_BONUS', 00H ; `string'
CONST	ENDS
;	COMDAT ??_C@_0BG@DJGIDNN@APPLY_DEF_GRADE_BONUS@
CONST	SEGMENT
??_C@_0BG@DJGIDNN@APPLY_DEF_GRADE_BONUS@ DB 'APPLY_DEF_GRADE_BONUS', 00H ; `string'
CONST	ENDS
;	COMDAT ??_C@_0P@PHBEALO@APPLY_SP_REGEN@
CONST	SEGMENT
??_C@_0P@PHBEALO@APPLY_SP_REGEN@ DB 'APPLY_SP_REGEN', 00H ; `string'
CONST	ENDS
;	COMDAT ??_C@_0P@CBOEJMBC@APPLY_HP_REGEN@
CONST	SEGMENT
??_C@_0P@CBOEJMBC@APPLY_HP_REGEN@ DB 'APPLY_HP_REGEN', 00H ; `string'
CONST	ENDS
;	COMDAT ??_C@_0N@KMLABMCB@APPLY_MAX_SP@
CONST	SEGMENT
??_C@_0N@KMLABMCB@APPLY_MAX_SP@ DB 'APPLY_MAX_SP', 00H	; `string'
CONST	ENDS
;	COMDAT ??_C@_0N@LMMDFALA@APPLY_MAX_HP@
CONST	SEGMENT
??_C@_0N@LMMDFALA@APPLY_MAX_HP@ DB 'APPLY_MAX_HP', 00H	; `string'
CONST	ENDS
;	COMDAT ??_C@_09BKNPHIKC@APPLY_INT@
CONST	SEGMENT
??_C@_09BKNPHIKC@APPLY_INT@ DB 'APPLY_INT', 00H		; `string'
CONST	ENDS
;	COMDAT ??_C@_09MEINAICK@APPLY_CON@
CONST	SEGMENT
??_C@_09MEINAICK@APPLY_CON@ DB 'APPLY_CON', 00H		; `string'
CONST	ENDS
;	COMDAT ??_C@_09EIFFAAJC@APPLY_DEX@
CONST	SEGMENT
??_C@_09EIFFAAJC@APPLY_DEX@ DB 'APPLY_DEX', 00H		; `string'
CONST	ENDS
;	COMDAT ??_C@_09GCJAEOHJ@APPLY_STR@
CONST	SEGMENT
??_C@_09GCJAEOHJ@APPLY_STR@ DB 'APPLY_STR', 00H		; `string'
CONST	ENDS
;	COMDAT ??_C@_0L@KOOBDLCP@APPLY_NONE@
CONST	SEGMENT
??_C@_0L@KOOBDLCP@APPLY_NONE@ DB 'APPLY_NONE', 00H	; `string'
CONST	ENDS
;	COMDAT ??_C@_0BE@PABFDMOM@ITEM_SOCKET_MAX_NUM@
CONST	SEGMENT
??_C@_0BE@PABFDMOM@ITEM_SOCKET_MAX_NUM@ DB 'ITEM_SOCKET_MAX_NUM', 00H ; `string'
CONST	ENDS
;	COMDAT ??_C@_0BD@POBJPMPE@ITEM_APPLY_MAX_NUM@
CONST	SEGMENT
??_C@_0BD@POBJPMPE@ITEM_APPLY_MAX_NUM@ DB 'ITEM_APPLY_MAX_NUM', 00H ; `string'
CONST	ENDS
;	COMDAT ??_C@_09JPGIMBID@ARMOR_EAR@
CONST	SEGMENT
??_C@_09JPGIMBID@ARMOR_EAR@ DB 'ARMOR_EAR', 00H		; `string'
CONST	ENDS
;	COMDAT ??_C@_0L@ICPFEDJE@ARMOR_NECK@
CONST	SEGMENT
??_C@_0L@ICPFEDJE@ARMOR_NECK@ DB 'ARMOR_NECK', 00H	; `string'
CONST	ENDS
;	COMDAT ??_C@_0M@JNDJGNLA@ARMOR_FOOTS@
CONST	SEGMENT
??_C@_0M@JNDJGNLA@ARMOR_FOOTS@ DB 'ARMOR_FOOTS', 00H	; `string'
CONST	ENDS
;	COMDAT ??_C@_0M@KCKGDACD@ARMOR_WRIST@
CONST	SEGMENT
??_C@_0M@KCKGDACD@ARMOR_WRIST@ DB 'ARMOR_WRIST', 00H	; `string'
CONST	ENDS
;	COMDAT ??_C@_0N@HJFKCCG@ARMOR_SHIELD@
CONST	SEGMENT
??_C@_0N@HJFKCCG@ARMOR_SHIELD@ DB 'ARMOR_SHIELD', 00H	; `string'
CONST	ENDS
;	COMDAT ??_C@_0L@IJKJHOJF@ARMOR_HEAD@
CONST	SEGMENT
??_C@_0L@IJKJHOJF@ARMOR_HEAD@ DB 'ARMOR_HEAD', 00H	; `string'
CONST	ENDS
;	COMDAT ??_C@_0L@FFADCIKH@ARMOR_BODY@
CONST	SEGMENT
??_C@_0L@FFADCIKH@ARMOR_BODY@ DB 'ARMOR_BODY', 00H	; `string'
CONST	ENDS
;	COMDAT ??_C@_0P@CANFDFEC@WEARABLE_ARROW@
CONST	SEGMENT
??_C@_0P@CANFDFEC@WEARABLE_ARROW@ DB 'WEARABLE_ARROW', 00H ; `string'
CONST	ENDS
;	COMDAT ??_C@_0BA@DGBFNJPE@WEARABLE_SHIELD@
CONST	SEGMENT
??_C@_0BA@DGBFNJPE@WEARABLE_SHIELD@ DB 'WEARABLE_SHIELD', 00H ; `string'
CONST	ENDS
;	COMDAT ??_C@_0BA@FGALGGKF@WEARABLE_UNIQUE@
CONST	SEGMENT
??_C@_0BA@FGALGGKF@WEARABLE_UNIQUE@ DB 'WEARABLE_UNIQUE', 00H ; `string'
CONST	ENDS
;	COMDAT ??_C@_0N@BHKGKGNM@WEARABLE_EAR@
CONST	SEGMENT
??_C@_0N@BHKGKGNM@WEARABLE_EAR@ DB 'WEARABLE_EAR', 00H	; `string'
CONST	ENDS
;	COMDAT ??_C@_0O@HJKJMBJG@WEARABLE_NECK@
CONST	SEGMENT
??_C@_0O@HJKJMBJG@WEARABLE_NECK@ DB 'WEARABLE_NECK', 00H ; `string'
CONST	ENDS
;	COMDAT ??_C@_0BA@NBNKFEIG@WEARABLE_WEAPON@
CONST	SEGMENT
??_C@_0BA@NBNKFEIG@WEARABLE_WEAPON@ DB 'WEARABLE_WEAPON', 00H ; `string'
CONST	ENDS
;	COMDAT ??_C@_0P@EMFDANIN@WEARABLE_WRIST@
CONST	SEGMENT
??_C@_0P@EMFDANIN@WEARABLE_WRIST@ DB 'WEARABLE_WRIST', 00H ; `string'
CONST	ENDS
;	COMDAT ??_C@_0P@HDMMFABO@WEARABLE_FOOTS@
CONST	SEGMENT
??_C@_0P@HDMMFABO@WEARABLE_FOOTS@ DB 'WEARABLE_FOOTS', 00H ; `string'
CONST	ENDS
;	COMDAT ??_C@_0O@HCPFPMJH@WEARABLE_HEAD@
CONST	SEGMENT
??_C@_0O@HCPFPMJH@WEARABLE_HEAD@ DB 'WEARABLE_HEAD', 00H ; `string'
CONST	ENDS
;	COMDAT ??_C@_0O@KOFPKKKF@WEARABLE_BODY@
CONST	SEGMENT
??_C@_0O@KOFPKKKF@WEARABLE_BODY@ DB 'WEARABLE_BODY', 00H ; `string'
CONST	ENDS
;	COMDAT ??_C@_0BA@BKNHAKOI@ANTIFLAG_MYSHOP@
CONST	SEGMENT
??_C@_0BA@BKNHAKOI@ANTIFLAG_MYSHOP@ DB 'ANTIFLAG_MYSHOP', 00H ; `string'
CONST	ENDS
;	COMDAT ??_C@_0P@DFNANGEL@ANTIFLAG_STACK@
CONST	SEGMENT
??_C@_0P@DFNANGEL@ANTIFLAG_STACK@ DB 'ANTIFLAG_STACK', 00H ; `string'
CONST	ENDS
;	COMDAT ??_C@_0BA@LPKEKIBP@ANTIFLAG_PKDROP@
CONST	SEGMENT
??_C@_0BA@LPKEKIBP@ANTIFLAG_PKDROP@ DB 'ANTIFLAG_PKDROP', 00H ; `string'
CONST	ENDS
;	COMDAT ??_C@_0O@PMFAIFED@ANTIFLAG_GIVE@
CONST	SEGMENT
??_C@_0O@PMFAIFED@ANTIFLAG_GIVE@ DB 'ANTIFLAG_GIVE', 00H ; `string'
CONST	ENDS
;	COMDAT ??_C@_0O@KMIEJMOO@ANTIFLAG_SAVE@
CONST	SEGMENT
??_C@_0O@KMIEJMOO@ANTIFLAG_SAVE@ DB 'ANTIFLAG_SAVE', 00H ; `string'
CONST	ENDS
;	COMDAT ??_C@_0BC@NPDFHMBJ@ANTIFLAG_EMPIRE_R@
CONST	SEGMENT
??_C@_0BC@NPDFHMBJ@ANTIFLAG_EMPIRE_R@ DB 'ANTIFLAG_EMPIRE_R', 00H ; `string'
CONST	ENDS
;	COMDAT ??_C@_0BC@JFPHGOEI@ANTIFLAG_EMPIRE_B@
CONST	SEGMENT
??_C@_0BC@JFPHGOEI@ANTIFLAG_EMPIRE_B@ DB 'ANTIFLAG_EMPIRE_B', 00H ; `string'
CONST	ENDS
;	COMDAT ??_C@_0BC@LONKDNIL@ANTIFLAG_EMPIRE_A@
CONST	SEGMENT
??_C@_0BC@LONKDNIL@ANTIFLAG_EMPIRE_A@ DB 'ANTIFLAG_EMPIRE_A', 00H ; `string'
CONST	ENDS
;	COMDAT ??_C@_0O@ODJFJGFG@ANTIFLAG_SELL@
CONST	SEGMENT
??_C@_0O@ODJFJGFG@ANTIFLAG_SELL@ DB 'ANTIFLAG_SELL', 00H ; `string'
CONST	ENDS
;	COMDAT ??_C@_0O@BIKKFBOG@ANTIFLAG_DROP@
CONST	SEGMENT
??_C@_0O@BIKKFBOG@ANTIFLAG_DROP@ DB 'ANTIFLAG_DROP', 00H ; `string'
CONST	ENDS
;	COMDAT ??_C@_0N@NEJHBBKC@ANTIFLAG_GET@
CONST	SEGMENT
??_C@_0N@NEJHBBKC@ANTIFLAG_GET@ DB 'ANTIFLAG_GET', 00H	; `string'
CONST	ENDS
;	COMDAT ??_C@_0BA@BGJNBKEA@ANTIFLAG_SHAMAN@
CONST	SEGMENT
??_C@_0BA@BGJNBKEA@ANTIFLAG_SHAMAN@ DB 'ANTIFLAG_SHAMAN', 00H ; `string'
CONST	ENDS
;	COMDAT ??_C@_0O@BAJKDBPO@ANTIFLAG_SURA@
CONST	SEGMENT
??_C@_0O@BAJKDBPO@ANTIFLAG_SURA@ DB 'ANTIFLAG_SURA', 00H ; `string'
CONST	ENDS
;	COMDAT ??_C@_0BC@IAJNDFJA@ANTIFLAG_ASSASSIN@
CONST	SEGMENT
??_C@_0BC@IAJNDFJA@ANTIFLAG_ASSASSIN@ DB 'ANTIFLAG_ASSASSIN', 00H ; `string'
CONST	ENDS
;	COMDAT ??_C@_0BB@EMBBJKML@ANTIFLAG_WARRIOR@
CONST	SEGMENT
??_C@_0BB@EMBBJKML@ANTIFLAG_WARRIOR@ DB 'ANTIFLAG_WARRIOR', 00H ; `string'
CONST	ENDS
;	COMDAT ??_C@_0O@GCOFJDKL@ANTIFLAG_MALE@
CONST	SEGMENT
??_C@_0O@GCOFJDKL@ANTIFLAG_MALE@ DB 'ANTIFLAG_MALE', 00H ; `string'
CONST	ENDS
;	COMDAT ??_C@_0BA@PLOPKCNG@ANTIFLAG_FEMALE@
CONST	SEGMENT
??_C@_0BA@PLOPKCNG@ANTIFLAG_FEMALE@ DB 'ANTIFLAG_FEMALE', 00H ; `string'
CONST	ENDS
;	COMDAT ??_C@_0BL@IPKGPKMA@ITEM_FLAG_CONFIRM_WHEN_USE@
CONST	SEGMENT
??_C@_0BL@IPKGPKMA@ITEM_FLAG_CONFIRM_WHEN_USE@ DB 'ITEM_FLAG_CONFIRM_WHEN'
	DB	'_USE', 00H					; `string'
CONST	ENDS
;	COMDAT ??_C@_0BB@PGFIBJHK@ITEM_FLAG_UNIQUE@
CONST	SEGMENT
??_C@_0BB@PGFIBJHK@ITEM_FLAG_UNIQUE@ DB 'ITEM_FLAG_UNIQUE', 00H ; `string'
CONST	ENDS
;	COMDAT ??_C@_0P@POCGDPPH@ITEM_FLAG_RARE@
CONST	SEGMENT
??_C@_0P@POCGDPPH@ITEM_FLAG_RARE@ DB 'ITEM_FLAG_RARE', 00H ; `string'
CONST	ENDS
;	COMDAT ??_C@_0BF@NEEDLCAA@ITEM_ANTIFLAG_MYSHOP@
CONST	SEGMENT
??_C@_0BF@NEEDLCAA@ITEM_ANTIFLAG_MYSHOP@ DB 'ITEM_ANTIFLAG_MYSHOP', 00H ; `string'
CONST	ENDS
;	COMDAT ??_C@_0BE@MAIMKBDM@ITEM_ANTIFLAG_STACK@
CONST	SEGMENT
??_C@_0BE@MAIMKBDM@ITEM_ANTIFLAG_STACK@ DB 'ITEM_ANTIFLAG_STACK', 00H ; `string'
CONST	ENDS
;	COMDAT ??_C@_0BF@HBDABAPH@ITEM_ANTIFLAG_PKDROP@
CONST	SEGMENT
??_C@_0BF@HBDABAPH@ITEM_ANTIFLAG_PKDROP@ DB 'ITEM_ANTIFLAG_PKDROP', 00H ; `string'
CONST	ENDS
;	COMDAT ??_C@_0BD@KPODKFBE@ITEM_ANTIFLAG_GIVE@
CONST	SEGMENT
??_C@_0BD@KPODKFBE@ITEM_ANTIFLAG_GIVE@ DB 'ITEM_ANTIFLAG_GIVE', 00H ; `string'
CONST	ENDS
;	COMDAT ??_C@_0BD@PPDHLMLJ@ITEM_ANTIFLAG_SAVE@
CONST	SEGMENT
??_C@_0BD@PPDHLMLJ@ITEM_ANTIFLAG_SAVE@ DB 'ITEM_ANTIFLAG_SAVE', 00H ; `string'
CONST	ENDS
;	COMDAT ??_C@_0BH@IMCIPANH@ITEM_ANTIFLAG_EMPIRE_R@
CONST	SEGMENT
??_C@_0BH@IMCIPANH@ITEM_ANTIFLAG_EMPIRE_R@ DB 'ITEM_ANTIFLAG_EMPIRE_R', 00H ; `string'
CONST	ENDS
;	COMDAT ??_C@_0BH@MGOKOCIG@ITEM_ANTIFLAG_EMPIRE_B@
CONST	SEGMENT
??_C@_0BH@MGOKOCIG@ITEM_ANTIFLAG_EMPIRE_B@ DB 'ITEM_ANTIFLAG_EMPIRE_B', 00H ; `string'
CONST	ENDS
;	COMDAT ??_C@_0BH@ONMHLBEF@ITEM_ANTIFLAG_EMPIRE_A@
CONST	SEGMENT
??_C@_0BH@ONMHLBEF@ITEM_ANTIFLAG_EMPIRE_A@ DB 'ITEM_ANTIFLAG_EMPIRE_A', 00H ; `string'
CONST	ENDS
;	COMDAT ??_C@_0BD@LACGLGAB@ITEM_ANTIFLAG_SELL@
CONST	SEGMENT
??_C@_0BD@LACGLGAB@ITEM_ANTIFLAG_SELL@ DB 'ITEM_ANTIFLAG_SELL', 00H ; `string'
CONST	ENDS
;	COMDAT ??_C@_0BD@ELBJHBLB@ITEM_ANTIFLAG_DROP@
CONST	SEGMENT
??_C@_0BD@ELBJHBLB@ITEM_ANTIFLAG_DROP@ DB 'ITEM_ANTIFLAG_DROP', 00H ; `string'
CONST	ENDS
;	COMDAT ??_C@_0BC@NECEHGFA@ITEM_ANTIFLAG_GET@
CONST	SEGMENT
??_C@_0BC@NECEHGFA@ITEM_ANTIFLAG_GET@ DB 'ITEM_ANTIFLAG_GET', 00H ; `string'
CONST	ENDS
;	COMDAT ??_C@_0BF@NIAJKCKI@ITEM_ANTIFLAG_SHAMAN@
CONST	SEGMENT
??_C@_0BF@NIAJKCKI@ITEM_ANTIFLAG_SHAMAN@ DB 'ITEM_ANTIFLAG_SHAMAN', 00H ; `string'
CONST	ENDS
;	COMDAT ??_C@_0BD@EDCJBBKJ@ITEM_ANTIFLAG_SURA@
CONST	SEGMENT
??_C@_0BD@EDCJBBKJ@ITEM_ANTIFLAG_SURA@ DB 'ITEM_ANTIFLAG_SURA', 00H ; `string'
CONST	ENDS
;	COMDAT ??_C@_0BH@NDIALJFO@ITEM_ANTIFLAG_ASSASSIN@
CONST	SEGMENT
??_C@_0BH@NDIALJFO@ITEM_ANTIFLAG_ASSASSIN@ DB 'ITEM_ANTIFLAG_ASSASSIN', 00H ; `string'
CONST	ENDS
;	COMDAT ??_C@_0BG@OCAOGEDJ@ITEM_ANTIFLAG_WARRIOR@
CONST	SEGMENT
??_C@_0BG@OCAOGEDJ@ITEM_ANTIFLAG_WARRIOR@ DB 'ITEM_ANTIFLAG_WARRIOR', 00H ; `string'
CONST	ENDS
;	COMDAT ??_C@_0BD@DBFGLDPM@ITEM_ANTIFLAG_MALE@
CONST	SEGMENT
??_C@_0BD@DBFGLDPM@ITEM_ANTIFLAG_MALE@ DB 'ITEM_ANTIFLAG_MALE', 00H ; `string'
CONST	ENDS
;	COMDAT ??_C@_0BF@DFHLBKDO@ITEM_ANTIFLAG_FEMALE@
CONST	SEGMENT
??_C@_0BF@DFHLBKDO@ITEM_ANTIFLAG_FEMALE@ DB 'ITEM_ANTIFLAG_FEMALE', 00H ; `string'
CONST	ENDS
;	COMDAT ??_C@_0O@DPNMMLCK@LIMIT_MAX_NUM@
CONST	SEGMENT
??_C@_0O@DPNMMLCK@LIMIT_MAX_NUM@ DB 'LIMIT_MAX_NUM', 00H ; `string'
CONST	ENDS
;	COMDAT ??_C@_0BD@JIAJEJNL@LIMIT_TYPE_MAX_NUM@
CONST	SEGMENT
??_C@_0BD@JIAJEJNL@LIMIT_TYPE_MAX_NUM@ DB 'LIMIT_TYPE_MAX_NUM', 00H ; `string'
CONST	ENDS
;	COMDAT ??_C@_0BK@DKGMKHOA@LIMIT_TIMER_BASED_ON_WEAR@
CONST	SEGMENT
??_C@_0BK@DKGMKHOA@LIMIT_TIMER_BASED_ON_WEAR@ DB 'LIMIT_TIMER_BASED_ON_WE'
	DB	'AR', 00H					; `string'
CONST	ENDS
;	COMDAT ??_C@_0CA@KECNELOI@LIMIT_REAL_TIME_START_FIRST_USE@
CONST	SEGMENT
??_C@_0CA@KECNELOI@LIMIT_REAL_TIME_START_FIRST_USE@ DB 'LIMIT_REAL_TIME_S'
	DB	'TART_FIRST_USE', 00H			; `string'
CONST	ENDS
;	COMDAT ??_C@_0BA@FCJCAFPM@LIMIT_REAL_TIME@
CONST	SEGMENT
??_C@_0BA@FCJCAFPM@LIMIT_REAL_TIME@ DB 'LIMIT_REAL_TIME', 00H ; `string'
CONST	ENDS
;	COMDAT ??_C@_0N@MIADEJNC@LIMIT_PCBANG@
CONST	SEGMENT
??_C@_0N@MIADEJNC@LIMIT_PCBANG@ DB 'LIMIT_PCBANG', 00H	; `string'
CONST	ENDS
;	COMDAT ??_C@_09DIAIGPDD@LIMIT_CON@
CONST	SEGMENT
??_C@_09DIAIGPDD@LIMIT_CON@ DB 'LIMIT_CON', 00H		; `string'
CONST	ENDS
;	COMDAT ??_C@_09OGFKBPLL@LIMIT_INT@
CONST	SEGMENT
??_C@_09OGFKBPLL@LIMIT_INT@ DB 'LIMIT_INT', 00H		; `string'
CONST	ENDS
;	COMDAT ??_C@_09LENAGHIL@LIMIT_DEX@
CONST	SEGMENT
??_C@_09LENAGHIL@LIMIT_DEX@ DB 'LIMIT_DEX', 00H		; `string'
CONST	ENDS
;	COMDAT ??_C@_09JOBFCJGA@LIMIT_STR@
CONST	SEGMENT
??_C@_09JOBFCJGA@LIMIT_STR@ DB 'LIMIT_STR', 00H		; `string'
CONST	ENDS
;	COMDAT ??_C@_0M@CNLALLNH@LIMIT_LEVEL@
CONST	SEGMENT
??_C@_0M@CNLALLNH@LIMIT_LEVEL@ DB 'LIMIT_LEVEL', 00H	; `string'
CONST	ENDS
;	COMDAT ??_C@_0L@MKHGBGII@LIMIT_NONE@
CONST	SEGMENT
??_C@_0L@MKHGBGII@LIMIT_NONE@ DB 'LIMIT_NONE', 00H	; `string'
CONST	ENDS
;	COMDAT ??_C@_0L@MFIGJJDC@METIN_GOLD@
CONST	SEGMENT
??_C@_0L@MFIGJJDC@METIN_GOLD@ DB 'METIN_GOLD', 00H	; `string'
CONST	ENDS
;	COMDAT ??_C@_0N@HOHHHOFD@METIN_NORMAL@
CONST	SEGMENT
??_C@_0N@HOHHHOFD@METIN_NORMAL@ DB 'METIN_NORMAL', 00H	; `string'
CONST	ENDS
;	COMDAT ??_C@_0BJ@KCHKGND@MATERIAL_DS_REFINE_HOLLY@
CONST	SEGMENT
??_C@_0BJ@KCHKGND@MATERIAL_DS_REFINE_HOLLY@ DB 'MATERIAL_DS_REFINE_HOLLY', 00H ; `string'
CONST	ENDS
;	COMDAT ??_C@_0BL@HNMOOIKG@MATERIAL_DS_REFINE_BLESSED@
CONST	SEGMENT
??_C@_0BL@HNMOOIKG@MATERIAL_DS_REFINE_BLESSED@ DB 'MATERIAL_DS_REFINE_BLE'
	DB	'SSED', 00H					; `string'
CONST	ENDS
;	COMDAT ??_C@_0BK@FFJFCNLF@MATERIAL_DS_REFINE_NORMAL@
CONST	SEGMENT
??_C@_0BK@FFJFCNLF@MATERIAL_DS_REFINE_NORMAL@ DB 'MATERIAL_DS_REFINE_NORM'
	DB	'AL', 00H					; `string'
CONST	ENDS
;	COMDAT ??_C@_0BE@FCIOINBF@USE_TIME_CHARGE_FIX@
CONST	SEGMENT
??_C@_0BE@FCIOINBF@USE_TIME_CHARGE_FIX@ DB 'USE_TIME_CHARGE_FIX', 00H ; `string'
CONST	ENDS
;	COMDAT ??_C@_0BE@NEAJJELI@USE_TIME_CHARGE_PER@
CONST	SEGMENT
??_C@_0BE@NEAJJELI@USE_TIME_CHARGE_PER@ DB 'USE_TIME_CHARGE_PER', 00H ; `string'
CONST	ENDS
;	COMDAT ??_C@_0P@MKAMDACK@USE_DETACHMENT@
CONST	SEGMENT
??_C@_0P@MKAMDACK@USE_DETACHMENT@ DB 'USE_DETACHMENT', 00H ; `string'
CONST	ENDS
;	COMDAT ??_C@_0BB@NCIEFOD@USE_INVISIBILITY@
CONST	SEGMENT
??_C@_0BB@NCIEFOD@USE_INVISIBILITY@ DB 'USE_INVISIBILITY', 00H ; `string'
CONST	ENDS
;	COMDAT ??_C@_09PNKHEPEF@USE_CLEAR@
CONST	SEGMENT
??_C@_09PNKHEPEF@USE_CLEAR@ DB 'USE_CLEAR', 00H		; `string'
CONST	ENDS
;	COMDAT ??_C@_0BD@MMDEHJ@USE_POTION_NODELAY@
CONST	SEGMENT
??_C@_0BD@MMDEHJ@USE_POTION_NODELAY@ DB 'USE_POTION_NODELAY', 00H ; `string'
CONST	ENDS
;	COMDAT ??_C@_0M@GHOELJHH@USE_SPECIAL@
CONST	SEGMENT
??_C@_0M@GHOELJHH@USE_SPECIAL@ DB 'USE_SPECIAL', 00H	; `string'
CONST	ENDS
;	COMDAT ??_C@_0BB@PBBDNJH@USE_CREATE_STONE@
CONST	SEGMENT
??_C@_0BB@PBBDNJH@USE_CREATE_STONE@ DB 'USE_CREATE_STONE', 00H ; `string'
CONST	ENDS
;	COMDAT ??_C@_0L@DLLOJMIP@USE_AFFECT@
CONST	SEGMENT
??_C@_0L@DLLOJMIP@USE_AFFECT@ DB 'USE_AFFECT', 00H	; `string'
CONST	ENDS
;	COMDAT ??_C@_0P@JBLCKFGE@USE_ABILITY_UP@
CONST	SEGMENT
??_C@_0P@JBLCKFGE@USE_ABILITY_UP@ DB 'USE_ABILITY_UP', 00H ; `string'
CONST	ENDS
;	COMDAT ??_C@_08LBHGOBNP@USE_BAIT@
CONST	SEGMENT
??_C@_08LBHGOBNP@USE_BAIT@ DB 'USE_BAIT', 00H		; `string'
CONST	ENDS
;	COMDAT ??_C@_0N@BOHEHPFI@USE_MONEYBAG@
CONST	SEGMENT
??_C@_0N@BOHEHPFI@USE_MONEYBAG@ DB 'USE_MONEYBAG', 00H	; `string'
CONST	ENDS
;	COMDAT ??_C@_0BB@BBPDKOFG@USE_TREASURE_BOX@
CONST	SEGMENT
??_C@_0BB@BBPDKOFG@USE_TREASURE_BOX@ DB 'USE_TREASURE_BOX', 00H ; `string'
CONST	ENDS
;	COMDAT ??_C@_08JHFKMGGA@USE_MOVE@
CONST	SEGMENT
??_C@_08JHFKMGGA@USE_MOVE@ DB 'USE_MOVE', 00H		; `string'
CONST	ENDS
;	COMDAT ??_C@_0L@JIILHJGL@USE_TUNING@
CONST	SEGMENT
??_C@_0L@JIILHJGL@USE_TUNING@ DB 'USE_TUNING', 00H	; `string'
CONST	ENDS
;	COMDAT ??_C@_0N@CINBPLKM@USE_TALISMAN@
CONST	SEGMENT
??_C@_0N@CINBPLKM@USE_TALISMAN@ DB 'USE_TALISMAN', 00H	; `string'
CONST	ENDS
;	COMDAT ??_C@_0L@DENJCCNI@USE_POTION@
CONST	SEGMENT
??_C@_0L@DENJCCNI@USE_POTION@ DB 'USE_POTION', 00H	; `string'
CONST	ENDS
;	COMDAT ??_C@_0BB@KFDFBDPL@WEAPON_NUM_TYPES@
CONST	SEGMENT
??_C@_0BB@KFDFBDPL@WEAPON_NUM_TYPES@ DB 'WEAPON_NUM_TYPES', 00H ; `string'
CONST	ENDS
;	COMDAT ??_C@_0N@DCOAOKB@WEAPON_ARROW@
CONST	SEGMENT
??_C@_0N@DCOAOKB@WEAPON_ARROW@ DB 'WEAPON_ARROW', 00H	; `string'
CONST	ENDS
;	COMDAT ??_C@_0L@LNCOBKNJ@WEAPON_FAN@
CONST	SEGMENT
??_C@_0L@LNCOBKNJ@WEAPON_FAN@ DB 'WEAPON_FAN', 00H	; `string'
CONST	ENDS
;	COMDAT ??_C@_0M@NKBIKBJK@WEAPON_BELL@
CONST	SEGMENT
??_C@_0M@NKBIKBJK@WEAPON_BELL@ DB 'WEAPON_BELL', 00H	; `string'
CONST	ENDS
;	COMDAT ??_C@_0BC@OILJBHHK@WEAPON_TWO_HANDED@
CONST	SEGMENT
??_C@_0BC@OILJBHHK@WEAPON_TWO_HANDED@ DB 'WEAPON_TWO_HANDED', 00H ; `string'
CONST	ENDS
;	COMDAT ??_C@_0L@KDNCAJJM@WEAPON_BOW@
CONST	SEGMENT
??_C@_0L@KDNCAJJM@WEAPON_BOW@ DB 'WEAPON_BOW', 00H	; `string'
CONST	ENDS
;	COMDAT ??_C@_0O@IMDDJKDH@WEAPON_DAGGER@
CONST	SEGMENT
??_C@_0O@IMDDJKDH@WEAPON_DAGGER@ DB 'WEAPON_DAGGER', 00H ; `string'
CONST	ENDS
;	COMDAT ??_C@_0N@FCLCNMLC@WEAPON_SWORD@
CONST	SEGMENT
??_C@_0N@FCLCNMLC@WEAPON_SWORD@ DB 'WEAPON_SWORD', 00H	; `string'
CONST	ENDS
;	COMDAT ??_C@_0BI@GPHFDCEJ@BELT_INVENTORY_SLOT_END@
CONST	SEGMENT
??_C@_0BI@GPHFDCEJ@BELT_INVENTORY_SLOT_END@ DB 'BELT_INVENTORY_SLOT_END', 00H ; `string'
CONST	ENDS
;	COMDAT ??_C@_0BK@EOCDAIHE@BELT_INVENTORY_SLOT_COUNT@
CONST	SEGMENT
??_C@_0BK@EOCDAIHE@BELT_INVENTORY_SLOT_COUNT@ DB 'BELT_INVENTORY_SLOT_COU'
	DB	'NT', 00H					; `string'
CONST	ENDS
;	COMDAT ??_C@_0BK@JAICDGKA@BELT_INVENTORY_SLOT_START@
CONST	SEGMENT
??_C@_0BK@JAICDGKA@BELT_INVENTORY_SLOT_START@ DB 'BELT_INVENTORY_SLOT_STA'
	DB	'RT', 00H					; `string'
CONST	ENDS
;	COMDAT ??_C@_0BB@IEFLAOJF@COSTUME_SLOT_END@
CONST	SEGMENT
??_C@_0BB@IEFLAOJF@COSTUME_SLOT_END@ DB 'COSTUME_SLOT_END', 00H ; `string'
CONST	ENDS
;	COMDAT ??_C@_0BC@KAEHEEKH@COSTUME_SLOT_HAIR@
CONST	SEGMENT
??_C@_0BC@KAEHEEKH@COSTUME_SLOT_HAIR@ DB 'COSTUME_SLOT_HAIR', 00H ; `string'
CONST	ENDS
;	COMDAT ??_C@_0BC@OBAEGBKN@COSTUME_SLOT_BODY@
CONST	SEGMENT
??_C@_0BC@OBAEGBKN@COSTUME_SLOT_BODY@ DB 'COSTUME_SLOT_BODY', 00H ; `string'
CONST	ENDS
;	COMDAT ??_C@_0BD@EMMBBFMO@COSTUME_SLOT_COUNT@
CONST	SEGMENT
??_C@_0BD@EMMBBFMO@COSTUME_SLOT_COUNT@ DB 'COSTUME_SLOT_COUNT', 00H ; `string'
CONST	ENDS
;	COMDAT ??_C@_0BD@JCGACLBK@COSTUME_SLOT_START@
CONST	SEGMENT
??_C@_0BD@JCGACLBK@COSTUME_SLOT_START@ DB 'COSTUME_SLOT_START', 00H ; `string'
CONST	ENDS
;	COMDAT ??_C@_0BC@MAPOOMBN@COSTUME_TYPE_HAIR@
CONST	SEGMENT
??_C@_0BC@MAPOOMBN@COSTUME_TYPE_HAIR@ DB 'COSTUME_TYPE_HAIR', 00H ; `string'
CONST	ENDS
;	COMDAT ??_C@_0BC@IBLNMJBH@COSTUME_TYPE_BODY@
CONST	SEGMENT
??_C@_0BC@IBLNMJBH@COSTUME_TYPE_BODY@ DB 'COSTUME_TYPE_BODY', 00H ; `string'
CONST	ENDS
;	COMDAT ??_C@_0BC@GOFIPFBN@ITEM_TYPE_COSTUME@
CONST	SEGMENT
??_C@_0BC@GOFIPFBN@ITEM_TYPE_COSTUME@ DB 'ITEM_TYPE_COSTUME', 00H ; `string'
CONST	ENDS
;	COMDAT ??_C@_0P@LGEHOEDP@ITEM_TYPE_BELT@
CONST	SEGMENT
??_C@_0P@LGEHOEDP@ITEM_TYPE_BELT@ DB 'ITEM_TYPE_BELT', 00H ; `string'
CONST	ENDS
;	COMDAT ??_C@_0P@POBKFJPJ@ITEM_TYPE_RING@
CONST	SEGMENT
??_C@_0P@POBKFJPJ@ITEM_TYPE_RING@ DB 'ITEM_TYPE_RING', 00H ; `string'
CONST	ENDS
;	COMDAT ??_C@_0BF@GGLFIBNL@ITEM_TYPE_SPECIAL_DS@
CONST	SEGMENT
??_C@_0BF@GGLFIBNL@ITEM_TYPE_SPECIAL_DS@ DB 'ITEM_TYPE_SPECIAL_DS', 00H ; `string'
CONST	ENDS
;	COMDAT ??_C@_0N@BKIJEOLO@ITEM_TYPE_DS@
CONST	SEGMENT
??_C@_0N@BKIJEOLO@ITEM_TYPE_DS@ DB 'ITEM_TYPE_DS', 00H	; `string'
CONST	ENDS
;	COMDAT ??_C@_0BA@EDGMOLIF@ITEM_TYPE_BLEND@
CONST	SEGMENT
??_C@_0BA@EDGMOLIF@ITEM_TYPE_BLEND@ DB 'ITEM_TYPE_BLEND', 00H ; `string'
CONST	ENDS
;	COMDAT ??_C@_0P@CALHNGMG@ITEM_TYPE_PICK@
CONST	SEGMENT
??_C@_0P@CALHNGMG@ITEM_TYPE_PICK@ DB 'ITEM_TYPE_PICK', 00H ; `string'
CONST	ENDS
;	COMDAT ??_C@_0BH@KGMIMAKI@ITEM_TYPE_TREASURE_KEY@
CONST	SEGMENT
??_C@_0BH@KGMIMAKI@ITEM_TYPE_TREASURE_KEY@ DB 'ITEM_TYPE_TREASURE_KEY', 00H ; `string'
CONST	ENDS
;	COMDAT ??_C@_0BH@MPEMDLLF@ITEM_TYPE_TREASURE_BOX@
CONST	SEGMENT
??_C@_0BH@MPEMDLLF@ITEM_TYPE_TREASURE_BOX@ DB 'ITEM_TYPE_TREASURE_BOX', 00H ; `string'
CONST	ENDS
;	COMDAT ??_C@_0BE@DGPJCLHG@ITEM_TYPE_POLYMORPH@
CONST	SEGMENT
??_C@_0BE@DGPJCLHG@ITEM_TYPE_POLYMORPH@ DB 'ITEM_TYPE_POLYMORPH', 00H ; `string'
CONST	ENDS
;	COMDAT ??_C@_0BA@PFOCEMDB@ITEM_TYPE_QUEST@
CONST	SEGMENT
??_C@_0BA@PFOCEMDB@ITEM_TYPE_QUEST@ DB 'ITEM_TYPE_QUEST', 00H ; `string'
CONST	ENDS
;	COMDAT ??_C@_0BE@FAMMFDKM@ITEM_TYPE_SKILLBOOK@
CONST	SEGMENT
??_C@_0BE@FAMMFDKM@ITEM_TYPE_SKILLBOOK@ DB 'ITEM_TYPE_SKILLBOOK', 00H ; `string'
CONST	ENDS
;	COMDAT ??_C@_0BB@CPEAMAMA@ITEM_TYPE_UNIQUE@
CONST	SEGMENT
??_C@_0BB@CPEAMAMA@ITEM_TYPE_UNIQUE@ DB 'ITEM_TYPE_UNIQUE', 00H ; `string'
CONST	ENDS
;	COMDAT ??_C@_0BD@OGNHPHCL@ITEM_TYPE_CAMPFIRE@
CONST	SEGMENT
??_C@_0BD@OGNHPHCL@ITEM_TYPE_CAMPFIRE@ DB 'ITEM_TYPE_CAMPFIRE', 00H ; `string'
CONST	ENDS
;	COMDAT ??_C@_0BD@KBPLAMLF@ITEM_TYPE_RESOURCE@
CONST	SEGMENT
??_C@_0BD@KBPLAMLF@ITEM_TYPE_RESOURCE@ DB 'ITEM_TYPE_RESOURCE', 00H ; `string'
CONST	ENDS
;	COMDAT ??_C@_0O@NIJIMPJD@ITEM_TYPE_ROD@
CONST	SEGMENT
??_C@_0O@NIJIMPJD@ITEM_TYPE_ROD@ DB 'ITEM_TYPE_ROD', 00H ; `string'
CONST	ENDS
;	COMDAT ??_C@_0P@PIBMEEFH@ITEM_TYPE_FISH@
CONST	SEGMENT
??_C@_0P@PIBMEEFH@ITEM_TYPE_FISH@ DB 'ITEM_TYPE_FISH', 00H ; `string'
CONST	ENDS
;	COMDAT ??_C@_0BE@JBBPDBJM@ITEM_TYPE_CONTAINER@
CONST	SEGMENT
??_C@_0BE@JBBPDBJM@ITEM_TYPE_CONTAINER@ DB 'ITEM_TYPE_CONTAINER', 00H ; `string'
CONST	ENDS
;	COMDAT ??_C@_0BA@KICPPFNE@ITEM_TYPE_METIN@
CONST	SEGMENT
??_C@_0BA@KICPPFNE@ITEM_TYPE_METIN@ DB 'ITEM_TYPE_METIN', 00H ; `string'
CONST	ENDS
;	COMDAT ??_C@_0O@JAIIACCD@ITEM_TYPE_ELK@
CONST	SEGMENT
??_C@_0O@JAIIACCD@ITEM_TYPE_ELK@ DB 'ITEM_TYPE_ELK', 00H ; `string'
CONST	ENDS
;	COMDAT ??_C@_0BC@LGJDJIG@ITEM_TYPE_LOTTERY@
CONST	SEGMENT
??_C@_0BC@LGJDJIG@ITEM_TYPE_LOTTERY@ DB 'ITEM_TYPE_LOTTERY', 00H ; `string'
CONST	ENDS
;	COMDAT ??_C@_0P@LGAHEAHJ@ITEM_TYPE_TOOL@
CONST	SEGMENT
??_C@_0P@LGAHEAHJ@ITEM_TYPE_TOOL@ DB 'ITEM_TYPE_TOOL', 00H ; `string'
CONST	ENDS
;	COMDAT ??_C@_0BC@EGCNCIAP@ITEM_TYPE_SPECIAL@
CONST	SEGMENT
??_C@_0BC@EGCNCIAP@ITEM_TYPE_SPECIAL@ DB 'ITEM_TYPE_SPECIAL', 00H ; `string'
CONST	ENDS
;	COMDAT ??_C@_0BD@NFIKPBKO@ITEM_TYPE_MATERIAL@
CONST	SEGMENT
??_C@_0BD@NFIKPBKO@ITEM_TYPE_MATERIAL@ DB 'ITEM_TYPE_MATERIAL', 00H ; `string'
CONST	ENDS
;	COMDAT ??_C@_0BC@PDFOCJLB@ITEM_TYPE_AUTOUSE@
CONST	SEGMENT
??_C@_0BC@PDFOCJLB@ITEM_TYPE_AUTOUSE@ DB 'ITEM_TYPE_AUTOUSE', 00H ; `string'
CONST	ENDS
;	COMDAT ??_C@_0O@EJGIJMHP@ITEM_TYPE_USE@
CONST	SEGMENT
??_C@_0O@EJGIJMHP@ITEM_TYPE_USE@ DB 'ITEM_TYPE_USE', 00H ; `string'
CONST	ENDS
;	COMDAT ??_C@_0BA@MCMGEHMH@ITEM_TYPE_ARMOR@
CONST	SEGMENT
??_C@_0BA@MCMGEHMH@ITEM_TYPE_ARMOR@ DB 'ITEM_TYPE_ARMOR', 00H ; `string'
CONST	ENDS
;	COMDAT ??_C@_0BB@KIJBPCOD@ITEM_TYPE_WEAPON@
CONST	SEGMENT
??_C@_0BB@KIJBPCOD@ITEM_TYPE_WEAPON@ DB 'ITEM_TYPE_WEAPON', 00H ; `string'
CONST	ENDS
;	COMDAT ??_C@_0P@EMFHBOCE@ITEM_TYPE_NONE@
CONST	SEGMENT
??_C@_0P@EMFHBOCE@ITEM_TYPE_NONE@ DB 'ITEM_TYPE_NONE', 00H ; `string'
CONST	ENDS
;	COMDAT ??_C@_0P@GKDPOFPB@EQUIPMENT_BELT@
CONST	SEGMENT
??_C@_0P@GKDPOFPB@EQUIPMENT_BELT@ DB 'EQUIPMENT_BELT', 00H ; `string'
CONST	ENDS
;	COMDAT ??_C@_0BA@FFOPJDCG@EQUIPMENT_RING2@
CONST	SEGMENT
??_C@_0BA@FFOPJDCG@EQUIPMENT_RING2@ DB 'EQUIPMENT_RING2', 00H ; `string'
CONST	ENDS
;	COMDAT ??_C@_0BA@HOMCMAOF@EQUIPMENT_RING1@
CONST	SEGMENT
??_C@_0BA@HOMCMAOF@EQUIPMENT_RING1@ DB 'EQUIPMENT_RING1', 00H ; `string'
CONST	ENDS
;	COMDAT ??_C@_0BA@MLMLGDPN@EQUIPMENT_ARROW@
CONST	SEGMENT
??_C@_0BA@MLMLGDPN@EQUIPMENT_ARROW@ DB 'EQUIPMENT_ARROW', 00H ; `string'
CONST	ENDS
;	COMDAT ??_C@_0BC@KKMPKFNI@EQUIPMENT_UNIQUE2@
CONST	SEGMENT
??_C@_0BC@KKMPKFNI@EQUIPMENT_UNIQUE2@ DB 'EQUIPMENT_UNIQUE2', 00H ; `string'
CONST	ENDS
;	COMDAT ??_C@_0BC@IBOCPGBL@EQUIPMENT_UNIQUE1@
CONST	SEGMENT
??_C@_0BC@IBOCPGBL@EQUIPMENT_UNIQUE1@ DB 'EQUIPMENT_UNIQUE1', 00H ; `string'
CONST	ENDS
;	COMDAT ??_C@_0O@KNFMDJEG@EQUIPMENT_EAR@
CONST	SEGMENT
??_C@_0O@KNFMDJEG@EQUIPMENT_EAR@ DB 'EQUIPMENT_EAR', 00H ; `string'
CONST	ENDS
;	COMDAT ??_C@_0P@GJMJEBFD@EQUIPMENT_NECK@
CONST	SEGMENT
??_C@_0P@GJMJEBFD@EQUIPMENT_NECK@ DB 'EQUIPMENT_NECK', 00H ; `string'
CONST	ENDS
;	COMDAT ??_C@_0BA@GEANIANO@EQUIPMENT_SHOES@
CONST	SEGMENT
??_C@_0BA@GEANIANO@EQUIPMENT_SHOES@ DB 'EQUIPMENT_SHOES', 00H ; `string'
CONST	ENDS
;	COMDAT ??_C@_0BA@KHENFLDC@EQUIPMENT_WRIST@
CONST	SEGMENT
??_C@_0BA@KHENFLDC@EQUIPMENT_WRIST@ DB 'EQUIPMENT_WRIST', 00H ; `string'
CONST	ENDS
;	COMDAT ??_C@_0BB@IKOPOEMN@EQUIPMENT_WEAPON@
CONST	SEGMENT
??_C@_0BB@IKOPOEMN@EQUIPMENT_WEAPON@ DB 'EQUIPMENT_WEAPON', 00H ; `string'
CONST	ENDS
;	COMDAT ??_C@_0P@LODPCKGA@EQUIPMENT_BODY@
CONST	SEGMENT
??_C@_0P@LODPCKGA@EQUIPMENT_BODY@ DB 'EQUIPMENT_BODY', 00H ; `string'
CONST	ENDS
;	COMDAT ??_C@_0P@GCJFHMFC@EQUIPMENT_HEAD@
CONST	SEGMENT
??_C@_0P@GCJFHMFC@EQUIPMENT_HEAD@ DB 'EQUIPMENT_HEAD', 00H ; `string'
CONST	ENDS
;	COMDAT ??_C@_0BA@KJELJAII@EQUIPMENT_COUNT@
CONST	SEGMENT
??_C@_0BA@KJELJAII@EQUIPMENT_COUNT@ DB 'EQUIPMENT_COUNT', 00H ; `string'
CONST	ENDS
;	COMDAT ??_C@_0BB@JMMPMOOC@DROPSOUND_WEAPON@
CONST	SEGMENT
??_C@_0BB@JMMPMOOC@DROPSOUND_WEAPON@ DB 'DROPSOUND_WEAPON', 00H ; `string'
CONST	ENDS
;	COMDAT ??_C@_0BC@BONOAPBN@DROPSOUND_DEFAULT@
CONST	SEGMENT
??_C@_0BC@BONOAPBN@DROPSOUND_DEFAULT@ DB 'DROPSOUND_DEFAULT', 00H ; `string'
CONST	ENDS
;	COMDAT ??_C@_0O@OOJPAKOO@DROPSOUND_BOW@
CONST	SEGMENT
??_C@_0O@OOJPAKOO@DROPSOUND_BOW@ DB 'DROPSOUND_BOW', 00H ; `string'
CONST	ENDS
;	COMDAT ??_C@_0BA@PCCDLKKO@DROPSOUND_ARMOR@
CONST	SEGMENT
??_C@_0BA@PCCDLKKO@DROPSOUND_ARMOR@ DB 'DROPSOUND_ARMOR', 00H ; `string'
CONST	ENDS
;	COMDAT ??_C@_0BE@PBPPNIPJ@DROPSOUND_ACCESSORY@
CONST	SEGMENT
??_C@_0BE@PBPPNIPJ@DROPSOUND_ACCESSORY@ DB 'DROPSOUND_ACCESSORY', 00H ; `string'
CONST	ENDS
;	COMDAT ??_C@_0BA@HNBMICIL@USESOUND_PORTAL@
CONST	SEGMENT
??_C@_0BA@HNBMICIL@USESOUND_PORTAL@ DB 'USESOUND_PORTAL', 00H ; `string'
CONST	ENDS
;	COMDAT ??_C@_0BA@GIIHLHOB@USESOUND_POTION@
CONST	SEGMENT
??_C@_0BA@GIIHLHOB@USESOUND_POTION@ DB 'USESOUND_POTION', 00H ; `string'
CONST	ENDS
;	COMDAT ??_C@_0BA@IJKKKKOO@USESOUND_WEAPON@
CONST	SEGMENT
??_C@_0BA@IJKKKKOO@USESOUND_WEAPON@ DB 'USESOUND_WEAPON', 00H ; `string'
CONST	ENDS
;	COMDAT ??_C@_0BB@BHHNCGFC@USESOUND_DEFAULT@
CONST	SEGMENT
??_C@_0BB@BHHNCGFC@USESOUND_DEFAULT@ DB 'USESOUND_DEFAULT', 00H ; `string'
CONST	ENDS
;	COMDAT ??_C@_0N@MDIFIDON@USESOUND_BOW@
CONST	SEGMENT
??_C@_0N@MDIFIDON@USESOUND_BOW@ DB 'USESOUND_BOW', 00H	; `string'
CONST	ENDS
;	COMDAT ??_C@_0P@ENGKPPPD@USESOUND_ARMOR@
CONST	SEGMENT
??_C@_0P@ENGKPPPD@USESOUND_ARMOR@ DB 'USESOUND_ARMOR', 00H ; `string'
CONST	ENDS
;	COMDAT ??_C@_0BD@MEKMBKPM@USESOUND_ACCESSORY@
CONST	SEGMENT
??_C@_0BD@MEKMBKPM@USESOUND_ACCESSORY@ DB 'USESOUND_ACCESSORY', 00H ; `string'
CONST	ENDS
;	COMDAT ??_C@_04NHONDGDE@item@
CONST	SEGMENT
??_C@_04NHONDGDE@item@ DB 'item', 00H			; `string'
CONST	ENDS
;	COMDAT ??_C@_0O@HJNOJBCJ@LoadItemTable@
CONST	SEGMENT
??_C@_0O@HJNOJBCJ@LoadItemTable@ DB 'LoadItemTable', 00H ; `string'
CONST	ENDS
;	COMDAT ??_C@_04ILHILILF@Pick@
CONST	SEGMENT
??_C@_04ILHILILF@Pick@ DB 'Pick', 00H			; `string'
CONST	ENDS
;	COMDAT ??_C@_0L@IIJEEMCG@DeleteItem@
CONST	SEGMENT
??_C@_0L@IIJEEMCG@DeleteItem@ DB 'DeleteItem', 00H	; `string'
CONST	ENDS
;	COMDAT ??_C@_0L@EMDEHLJF@CreateItem@
CONST	SEGMENT
??_C@_0L@EMDEHLJF@CreateItem@ DB 'CreateItem', 00H	; `string'
CONST	ENDS
;	COMDAT ??_C@_06EPLDPNDB@Render@
CONST	SEGMENT
??_C@_06EPLDPNDB@Render@ DB 'Render', 00H		; `string'
CONST	ENDS
;	COMDAT ??_C@_06LMAGPFNF@Update@
CONST	SEGMENT
??_C@_06LMAGPFNF@Update@ DB 'Update', 00H		; `string'
CONST	ENDS
;	COMDAT ??_C@_0BG@FEGHIHDK@CanAddToQuickSlotItem@
CONST	SEGMENT
??_C@_0BG@FEGHIHDK@CanAddToQuickSlotItem@ DB 'CanAddToQuickSlotItem', 00H ; `string'
CONST	ENDS
;	COMDAT ??_C@_07MLLOFDCE@IsMetin@
CONST	SEGMENT
??_C@_07MLLOFDCE@IsMetin@ DB 'IsMetin', 00H		; `string'
CONST	ENDS
;	COMDAT ??_C@_05CEOMILKP@IsKey@
CONST	SEGMENT
??_C@_05CEOMILKP@IsKey@ DB 'IsKey', 00H			; `string'
CONST	ENDS
;	COMDAT ??_C@_0P@CNNPGCCK@IsDetachScroll@
CONST	SEGMENT
??_C@_0P@CNNPGCCK@IsDetachScroll@ DB 'IsDetachScroll', 00H ; `string'
CONST	ENDS
;	COMDAT ??_C@_0P@LGDKNEFF@IsRefineScroll@
CONST	SEGMENT
??_C@_0P@LGDKNEFF@IsRefineScroll@ DB 'IsRefineScroll', 00H ; `string'
CONST	ENDS
;	COMDAT ??_C@_0P@OGDGGJFE@IsEquipmentVID@
CONST	SEGMENT
??_C@_0P@OGDGGJFE@IsEquipmentVID@ DB 'IsEquipmentVID', 00H ; `string'
CONST	ENDS
;	COMDAT ??_C@_0BD@BNBIIKMM@DeleteIconInstance@
CONST	SEGMENT
??_C@_0BD@BNBIIKMM@DeleteIconInstance@ DB 'DeleteIconInstance', 00H ; `string'
CONST	ENDS
;	COMDAT ??_C@_0L@POCKMHMA@GetUseType@
CONST	SEGMENT
??_C@_0L@POCKMHMA@GetUseType@ DB 'GetUseType', 00H	; `string'
CONST	ENDS
;	COMDAT ??_C@_0BA@PMLMLIHH@GetIconInstance@
CONST	SEGMENT
??_C@_0BA@PMLMLIHH@GetIconInstance@ DB 'GetIconInstance', 00H ; `string'
CONST	ENDS
;	COMDAT ??_C@_09ICJIFGNC@GetSocket@
CONST	SEGMENT
??_C@_09ICJIFGNC@GetSocket@ DB 'GetSocket', 00H		; `string'
CONST	ENDS
;	COMDAT ??_C@_08GGOMBHIN@GetValue@
CONST	SEGMENT
??_C@_08GGOMBHIN@GetValue@ DB 'GetValue', 00H		; `string'
CONST	ENDS
;	COMDAT ??_C@_09HJGEAOAM@GetAffect@
CONST	SEGMENT
??_C@_09HJGEAOAM@GetAffect@ DB 'GetAffect', 00H		; `string'
CONST	ENDS
;	COMDAT ??_C@_08KIIGDNA@GetLimit@
CONST	SEGMENT
??_C@_08KIIGDNA@GetLimit@ DB 'GetLimit', 00H		; `string'
CONST	ENDS
;	COMDAT ??_C@_0M@IKKLMPND@Is1GoldItem@
CONST	SEGMENT
??_C@_0M@IKKLMPND@Is1GoldItem@ DB 'Is1GoldItem', 00H	; `string'
CONST	ENDS
;	COMDAT ??_C@_0P@KNFGADIE@IsWearableFlag@
CONST	SEGMENT
??_C@_0P@KNFGADIE@IsWearableFlag@ DB 'IsWearableFlag', 00H ; `string'
CONST	ENDS
;	COMDAT ??_C@_06PLFMNGGB@IsFlag@
CONST	SEGMENT
??_C@_06PLFMNGGB@IsFlag@ DB 'IsFlag', 00H		; `string'
CONST	ENDS
;	COMDAT ??_C@_0L@NKLNOBKA@IsAntiFlag@
CONST	SEGMENT
??_C@_0L@NKLNOBKA@IsAntiFlag@ DB 'IsAntiFlag', 00H	; `string'
CONST	ENDS
;	COMDAT ??_C@_0BC@OKNBBEMG@GetISellItemPrice@
CONST	SEGMENT
??_C@_0BC@OKNBBEMG@GetISellItemPrice@ DB 'GetISellItemPrice', 00H ; `string'
CONST	ENDS
;	COMDAT ??_C@_0BB@KJGHJKGD@GetIBuyItemPrice@
CONST	SEGMENT
??_C@_0BB@KJGHJKGD@GetIBuyItemPrice@ DB 'GetIBuyItemPrice', 00H ; `string'
CONST	ENDS
;	COMDAT ??_C@_0P@MFCMKOKJ@GetItemSubType@
CONST	SEGMENT
??_C@_0P@MFCMKOKJ@GetItemSubType@ DB 'GetItemSubType', 00H ; `string'
CONST	ENDS
;	COMDAT ??_C@_0M@LOOAFMCI@GetItemType@
CONST	SEGMENT
??_C@_0M@LOOAFMCI@GetItemType@ DB 'GetItemType', 00H	; `string'
CONST	ENDS
;	COMDAT ??_C@_0M@FBEOFCHB@GetItemSize@
CONST	SEGMENT
??_C@_0M@FBEOFCHB@GetItemSize@ DB 'GetItemSize', 00H	; `string'
CONST	ENDS
;	COMDAT ??_C@_0BF@NNPLLIOE@GetIconImageFileName@
CONST	SEGMENT
??_C@_0BF@NNPLLIOE@GetIconImageFileName@ DB 'GetIconImageFileName', 00H ; `string'
CONST	ENDS
;	COMDAT ??_C@_0N@IEABDKDK@GetIconImage@
CONST	SEGMENT
??_C@_0N@IEABDKDK@GetIconImage@ DB 'GetIconImage', 00H	; `string'
CONST	ENDS
;	COMDAT ??_C@_0P@OIBFDAMI@GetItemSummary@
CONST	SEGMENT
??_C@_0P@OIBFDAMI@GetItemSummary@ DB 'GetItemSummary', 00H ; `string'
CONST	ENDS
;	COMDAT ??_C@_0BD@GLEOJONA@GetItemDescription@
CONST	SEGMENT
??_C@_0BD@GLEOJONA@GetItemDescription@ DB 'GetItemDescription', 00H ; `string'
CONST	ENDS
;	COMDAT ??_C@_0M@BFODJMFI@GetItemName@
CONST	SEGMENT
??_C@_0M@BFODJMFI@GetItemName@ DB 'GetItemName', 00H	; `string'
CONST	ENDS
;	COMDAT ??_C@_0L@GFKKOOBA@SelectItem@
CONST	SEGMENT
??_C@_0L@GFKKOOBA@SelectItem@ DB 'SelectItem', 00H	; `string'
CONST	ENDS
;	COMDAT ??_C@_0BF@BODGENI@SetDropSoundFileName@
CONST	SEGMENT
??_C@_0BF@BODGENI@SetDropSoundFileName@ DB 'SetDropSoundFileName', 00H ; `string'
CONST	ENDS
;	COMDAT ??_C@_0BE@HKKEFMIC@SetUseSoundFileName@
CONST	SEGMENT
??_C@_0BE@HKKEFMIC@SetUseSoundFileName@ DB 'SetUseSoundFileName', 00H ; `string'
CONST	ENDS
;	COMDAT ?s_methods@?1??initItem@@YAXXZ@4PAUPyMethodDef@@A
_DATA	SEGMENT
?s_methods@?1??initItem@@YAXXZ@4PAUPyMethodDef@@A DD FLAT:??_C@_0BE@HKKEFMIC@SetUseSoundFileName@ ; `initItem'::`2'::s_methods
	DD	FLAT:?itemSetUseSoundFileName@@YAPAU_object@@PAU1@0@Z
	DD	01H
	ORG $+4
	DD	FLAT:??_C@_0BF@BODGENI@SetDropSoundFileName@
	DD	FLAT:?itemSetDropSoundFileName@@YAPAU_object@@PAU1@0@Z
	DD	01H
	ORG $+4
	DD	FLAT:??_C@_0L@GFKKOOBA@SelectItem@
	DD	FLAT:?itemSelectItem@@YAPAU_object@@PAU1@0@Z
	DD	01H
	ORG $+4
	DD	FLAT:??_C@_0M@BFODJMFI@GetItemName@
	DD	FLAT:?itemGetItemName@@YAPAU_object@@PAU1@0@Z
	DD	01H
	ORG $+4
	DD	FLAT:??_C@_0BD@GLEOJONA@GetItemDescription@
	DD	FLAT:?itemGetItemDescription@@YAPAU_object@@PAU1@0@Z
	DD	01H
	ORG $+4
	DD	FLAT:??_C@_0P@OIBFDAMI@GetItemSummary@
	DD	FLAT:?itemGetItemSummary@@YAPAU_object@@PAU1@0@Z
	DD	01H
	ORG $+4
	DD	FLAT:??_C@_0N@IEABDKDK@GetIconImage@
	DD	FLAT:?itemGetIconImage@@YAPAU_object@@PAU1@0@Z
	DD	01H
	ORG $+4
	DD	FLAT:??_C@_0BF@NNPLLIOE@GetIconImageFileName@
	DD	FLAT:?itemGetIconImageFileName@@YAPAU_object@@PAU1@0@Z
	DD	01H
	ORG $+4
	DD	FLAT:??_C@_0M@FBEOFCHB@GetItemSize@
	DD	FLAT:?itemGetItemSize@@YAPAU_object@@PAU1@0@Z
	DD	01H
	ORG $+4
	DD	FLAT:??_C@_0M@LOOAFMCI@GetItemType@
	DD	FLAT:?itemGetItemType@@YAPAU_object@@PAU1@0@Z
	DD	01H
	ORG $+4
	DD	FLAT:??_C@_0P@MFCMKOKJ@GetItemSubType@
	DD	FLAT:?itemGetItemSubType@@YAPAU_object@@PAU1@0@Z
	DD	01H
	ORG $+4
	DD	FLAT:??_C@_0BB@KJGHJKGD@GetIBuyItemPrice@
	DD	FLAT:?itemGetIBuyItemPrice@@YAPAU_object@@PAU1@0@Z
	DD	01H
	ORG $+4
	DD	FLAT:??_C@_0BC@OKNBBEMG@GetISellItemPrice@
	DD	FLAT:?itemGetISellItemPrice@@YAPAU_object@@PAU1@0@Z
	DD	01H
	ORG $+4
	DD	FLAT:??_C@_0L@NKLNOBKA@IsAntiFlag@
	DD	FLAT:?itemIsAntiFlag@@YAPAU_object@@PAU1@0@Z
	DD	01H
	ORG $+4
	DD	FLAT:??_C@_06PLFMNGGB@IsFlag@
	DD	FLAT:?itemIsFlag@@YAPAU_object@@PAU1@0@Z
	DD	01H
	ORG $+4
	DD	FLAT:??_C@_0P@KNFGADIE@IsWearableFlag@
	DD	FLAT:?itemIsWearableFlag@@YAPAU_object@@PAU1@0@Z
	DD	01H
	ORG $+4
	DD	FLAT:??_C@_0M@IKKLMPND@Is1GoldItem@
	DD	FLAT:?itemIs1GoldItem@@YAPAU_object@@PAU1@0@Z
	DD	01H
	ORG $+4
	DD	FLAT:??_C@_08KIIGDNA@GetLimit@
	DD	FLAT:?itemGetLimit@@YAPAU_object@@PAU1@0@Z
	DD	01H
	ORG $+4
	DD	FLAT:??_C@_09HJGEAOAM@GetAffect@
	DD	FLAT:?itemGetAffect@@YAPAU_object@@PAU1@0@Z
	DD	01H
	ORG $+4
	DD	FLAT:??_C@_08GGOMBHIN@GetValue@
	DD	FLAT:?itemGetValue@@YAPAU_object@@PAU1@0@Z
	DD	01H
	ORG $+4
	DD	FLAT:??_C@_09ICJIFGNC@GetSocket@
	DD	FLAT:?itemGetSocket@@YAPAU_object@@PAU1@0@Z
	DD	01H
	ORG $+4
	DD	FLAT:??_C@_0BA@PMLMLIHH@GetIconInstance@
	DD	FLAT:?itemGetIconInstance@@YAPAU_object@@PAU1@0@Z
	DD	01H
	ORG $+4
	DD	FLAT:??_C@_0L@POCKMHMA@GetUseType@
	DD	FLAT:?itemGetUseType@@YAPAU_object@@PAU1@0@Z
	DD	01H
	ORG $+4
	DD	FLAT:??_C@_0BD@BNBIIKMM@DeleteIconInstance@
	DD	FLAT:?itemDeleteIconInstance@@YAPAU_object@@PAU1@0@Z
	DD	01H
	ORG $+4
	DD	FLAT:??_C@_0P@OGDGGJFE@IsEquipmentVID@
	DD	FLAT:?itemIsEquipmentVID@@YAPAU_object@@PAU1@0@Z
	DD	01H
	ORG $+4
	DD	FLAT:??_C@_0P@LGDKNEFF@IsRefineScroll@
	DD	FLAT:?itemIsRefineScroll@@YAPAU_object@@PAU1@0@Z
	DD	01H
	ORG $+4
	DD	FLAT:??_C@_0P@CNNPGCCK@IsDetachScroll@
	DD	FLAT:?itemIsDetachScroll@@YAPAU_object@@PAU1@0@Z
	DD	01H
	ORG $+4
	DD	FLAT:??_C@_05CEOMILKP@IsKey@
	DD	FLAT:?itemIsKey@@YAPAU_object@@PAU1@0@Z
	DD	01H
	ORG $+4
	DD	FLAT:??_C@_07MLLOFDCE@IsMetin@
	DD	FLAT:?itemIsMetin@@YAPAU_object@@PAU1@0@Z
	DD	01H
	ORG $+4
	DD	FLAT:??_C@_0BG@FEGHIHDK@CanAddToQuickSlotItem@
	DD	FLAT:?itemCanAddToQuickSlotItem@@YAPAU_object@@PAU1@0@Z
	DD	01H
	ORG $+4
	DD	FLAT:??_C@_06LMAGPFNF@Update@
	DD	FLAT:?itemUpdate@@YAPAU_object@@PAU1@0@Z
	DD	01H
	ORG $+4
	DD	FLAT:??_C@_06EPLDPNDB@Render@
	DD	FLAT:?itemRender@@YAPAU_object@@PAU1@0@Z
	DD	01H
	ORG $+4
	DD	FLAT:??_C@_0L@EMDEHLJF@CreateItem@
	DD	FLAT:?itemCreateItem@@YAPAU_object@@PAU1@0@Z
	DD	01H
	ORG $+4
	DD	FLAT:??_C@_0L@IIJEEMCG@DeleteItem@
	DD	FLAT:?itemDeleteItem@@YAPAU_object@@PAU1@0@Z
	DD	01H
	ORG $+4
	DD	FLAT:??_C@_04ILHILILF@Pick@
	DD	FLAT:?itemPick@@YAPAU_object@@PAU1@0@Z
	DD	01H
	ORG $+4
	DD	FLAT:??_C@_0O@HJNOJBCJ@LoadItemTable@
	DD	FLAT:?itemLoadItemTable@@YAPAU_object@@PAU1@0@Z
	DD	01H
	ORG $+4
	DD	00H
	DD	00H
	DD	00H
	ORG $+4
_DATA	ENDS
;	COMDAT ??_C@_0BM@KPLEGEEH@Can?8t?5find?5select?5item?5data@
CONST	SEGMENT
??_C@_0BM@KPLEGEEH@Can?8t?5find?5select?5item?5data@ DB 'Can''t find sele'
	DB	'ct item data', 00H				; `string'
CONST	ENDS
;	COMDAT ??_C@_0BM@MLEHJLDK@Cannot?5get?5icon?5image?5by?5?$CFd@
CONST	SEGMENT
??_C@_0BM@MLEHJLDK@Cannot?5get?5icon?5image?5by?5?$CFd@ DB 'Cannot get ic'
	DB	'on image by %d', 00H			; `string'
CONST	ENDS
;	COMDAT ??_C@_02PDIHAGKM@ii@
CONST	SEGMENT
??_C@_02PDIHAGKM@ii@ DB 'ii', 00H			; `string'
CONST	ENDS
;	COMDAT ??_C@_0BJ@FJOAFFCG@Not?5yet?5select?5item?5data@
CONST	SEGMENT
??_C@_0BJ@FJOAFFCG@Not?5yet?5select?5item?5data@ DB 'Not yet select item '
	DB	'data', 00H					; `string'
CONST	ENDS
;	COMDAT ??_C@_04INACLLOK@?$CIii?$CJ@
CONST	SEGMENT
??_C@_04INACLLOK@?$CIii?$CJ@ DB '(ii)', 00H		; `string'
CONST	ENDS
;	COMDAT ??_C@_06HCBIANPB@Noname@
CONST	SEGMENT
??_C@_06HCBIANPB@Noname@ DB 'Noname', 00H		; `string'
CONST	ENDS
;	COMDAT ??_C@_01KBJDNOO@i@
CONST	SEGMENT
??_C@_01KBJDNOO@i@ DB 'i', 00H				; `string'
CONST	ENDS
;	COMDAT ??_C@_01LKDEMHDF@s@
CONST	SEGMENT
??_C@_01LKDEMHDF@s@ DB 's', 00H				; `string'
CONST	ENDS
;	COMDAT ??_C@_0BG@LNOAJHHG@no?5selected?5item?5data@
CONST	SEGMENT
??_C@_0BG@LNOAJHHG@no?5selected?5item?5data@ DB 'no selected item data', 00H ; `string'
CONST	ENDS
;	COMDAT ??_C@_0BH@EOAFOHJK@Cannot?5find?5item?5by?5?$CFd@
CONST	SEGMENT
??_C@_0BH@EOAFOHJK@Cannot?5find?5item?5by?5?$CFd@ DB 'Cannot find item by'
	DB	' %d', 00H					; `string'
CONST	ENDS
;	COMDAT ??_R1A@?0A@EA@bad_array_new_length@std@@8
rdata$r	SEGMENT
??_R1A@?0A@EA@bad_array_new_length@std@@8 DD FLAT:??_R0?AVbad_array_new_length@std@@@8 ; std::bad_array_new_length::`RTTI Base Class Descriptor at (0,-1,0,64)'
	DD	02H
	DD	00H
	DD	0ffffffffH
	DD	00H
	DD	040H
	DD	FLAT:??_R3bad_array_new_length@std@@8
rdata$r	ENDS
;	COMDAT ??_R2bad_array_new_length@std@@8
rdata$r	SEGMENT
??_R2bad_array_new_length@std@@8 DD FLAT:??_R1A@?0A@EA@bad_array_new_length@std@@8 ; std::bad_array_new_length::`RTTI Base Class Array'
	DD	FLAT:??_R1A@?0A@EA@bad_alloc@std@@8
	DD	FLAT:??_R1A@?0A@EA@exception@std@@8
rdata$r	ENDS
;	COMDAT ??_R3bad_array_new_length@std@@8
rdata$r	SEGMENT
??_R3bad_array_new_length@std@@8 DD 00H			; std::bad_array_new_length::`RTTI Class Hierarchy Descriptor'
	DD	00H
	DD	03H
	DD	FLAT:??_R2bad_array_new_length@std@@8
rdata$r	ENDS
;	COMDAT ??_R4bad_array_new_length@std@@6B@
rdata$r	SEGMENT
??_R4bad_array_new_length@std@@6B@ DD 00H		; std::bad_array_new_length::`RTTI Complete Object Locator'
	DD	00H
	DD	00H
	DD	FLAT:??_R0?AVbad_array_new_length@std@@@8
	DD	FLAT:??_R3bad_array_new_length@std@@8
rdata$r	ENDS
;	COMDAT ??_R1A@?0A@EA@bad_alloc@std@@8
rdata$r	SEGMENT
??_R1A@?0A@EA@bad_alloc@std@@8 DD FLAT:??_R0?AVbad_alloc@std@@@8 ; std::bad_alloc::`RTTI Base Class Descriptor at (0,-1,0,64)'
	DD	01H
	DD	00H
	DD	0ffffffffH
	DD	00H
	DD	040H
	DD	FLAT:??_R3bad_alloc@std@@8
rdata$r	ENDS
;	COMDAT ??_R2bad_alloc@std@@8
rdata$r	SEGMENT
??_R2bad_alloc@std@@8 DD FLAT:??_R1A@?0A@EA@bad_alloc@std@@8 ; std::bad_alloc::`RTTI Base Class Array'
	DD	FLAT:??_R1A@?0A@EA@exception@std@@8
rdata$r	ENDS
;	COMDAT ??_R3bad_alloc@std@@8
rdata$r	SEGMENT
??_R3bad_alloc@std@@8 DD 00H				; std::bad_alloc::`RTTI Class Hierarchy Descriptor'
	DD	00H
	DD	02H
	DD	FLAT:??_R2bad_alloc@std@@8
rdata$r	ENDS
;	COMDAT ??_R4bad_alloc@std@@6B@
rdata$r	SEGMENT
??_R4bad_alloc@std@@6B@ DD 00H				; std::bad_alloc::`RTTI Complete Object Locator'
	DD	00H
	DD	00H
	DD	FLAT:??_R0?AVbad_alloc@std@@@8
	DD	FLAT:??_R3bad_alloc@std@@8
rdata$r	ENDS
;	COMDAT ??_R1A@?0A@EA@exception@std@@8
rdata$r	SEGMENT
??_R1A@?0A@EA@exception@std@@8 DD FLAT:??_R0?AVexception@std@@@8 ; std::exception::`RTTI Base Class Descriptor at (0,-1,0,64)'
	DD	00H
	DD	00H
	DD	0ffffffffH
	DD	00H
	DD	040H
	DD	FLAT:??_R3exception@std@@8
rdata$r	ENDS
;	COMDAT ??_R2exception@std@@8
rdata$r	SEGMENT
??_R2exception@std@@8 DD FLAT:??_R1A@?0A@EA@exception@std@@8 ; std::exception::`RTTI Base Class Array'
rdata$r	ENDS
;	COMDAT ??_R3exception@std@@8
rdata$r	SEGMENT
??_R3exception@std@@8 DD 00H				; std::exception::`RTTI Class Hierarchy Descriptor'
	DD	00H
	DD	01H
	DD	FLAT:??_R2exception@std@@8
rdata$r	ENDS
;	COMDAT ??_R4exception@std@@6B@
rdata$r	SEGMENT
??_R4exception@std@@6B@ DD 00H				; std::exception::`RTTI Complete Object Locator'
	DD	00H
	DD	00H
	DD	FLAT:??_R0?AVexception@std@@@8
	DD	FLAT:??_R3exception@std@@8
rdata$r	ENDS
;	COMDAT ??_C@_0BA@JFNIOLAK@string?5too?5long@
CONST	SEGMENT
??_C@_0BA@JFNIOLAK@string?5too?5long@ DB 'string too long', 00H ; `string'
CONST	ENDS
;	COMDAT __CT??_R0?AVexception@std@@@8??0exception@std@@QAE@ABV01@@Z12
xdata$x	SEGMENT
__CT??_R0?AVexception@std@@@8??0exception@std@@QAE@ABV01@@Z12 DD 00H
	DD	FLAT:??_R0?AVexception@std@@@8
	DD	00H
	DD	0ffffffffH
	ORG $+4
	DD	0cH
	DD	FLAT:??0exception@std@@QAE@ABV01@@Z
xdata$x	ENDS
;	COMDAT ??_R0?AVexception@std@@@8
data$r	SEGMENT
??_R0?AVexception@std@@@8 DD FLAT:??_7type_info@@6B@	; std::exception `RTTI Type Descriptor'
	DD	00H
	DB	'.?AVexception@std@@', 00H
data$r	ENDS
;	COMDAT __CT??_R0?AVbad_alloc@std@@@8??0bad_alloc@std@@QAE@ABV01@@Z12
xdata$x	SEGMENT
__CT??_R0?AVbad_alloc@std@@@8??0bad_alloc@std@@QAE@ABV01@@Z12 DD 010H
	DD	FLAT:??_R0?AVbad_alloc@std@@@8
	DD	00H
	DD	0ffffffffH
	ORG $+4
	DD	0cH
	DD	FLAT:??0bad_alloc@std@@QAE@ABV01@@Z
xdata$x	ENDS
;	COMDAT ??_R0?AVbad_alloc@std@@@8
data$r	SEGMENT
??_R0?AVbad_alloc@std@@@8 DD FLAT:??_7type_info@@6B@	; std::bad_alloc `RTTI Type Descriptor'
	DD	00H
	DB	'.?AVbad_alloc@std@@', 00H
data$r	ENDS
;	COMDAT __CT??_R0?AVbad_array_new_length@std@@@8??0bad_array_new_length@std@@QAE@ABV01@@Z12
xdata$x	SEGMENT
__CT??_R0?AVbad_array_new_length@std@@@8??0bad_array_new_length@std@@QAE@ABV01@@Z12 DD 00H
	DD	FLAT:??_R0?AVbad_array_new_length@std@@@8
	DD	00H
	DD	0ffffffffH
	ORG $+4
	DD	0cH
	DD	FLAT:??0bad_array_new_length@std@@QAE@ABV01@@Z
xdata$x	ENDS
;	COMDAT ??_R0?AVbad_array_new_length@std@@@8
data$r	SEGMENT
??_R0?AVbad_array_new_length@std@@@8 DD FLAT:??_7type_info@@6B@ ; std::bad_array_new_length `RTTI Type Descriptor'
	DD	00H
	DB	'.?AVbad_array_new_length@std@@', 00H
data$r	ENDS
;	COMDAT __CTA3?AVbad_array_new_length@std@@
xdata$x	SEGMENT
__CTA3?AVbad_array_new_length@std@@ DD 03H
	DD	FLAT:__CT??_R0?AVbad_array_new_length@std@@@8??0bad_array_new_length@std@@QAE@ABV01@@Z12
	DD	FLAT:__CT??_R0?AVbad_alloc@std@@@8??0bad_alloc@std@@QAE@ABV01@@Z12
	DD	FLAT:__CT??_R0?AVexception@std@@@8??0exception@std@@QAE@ABV01@@Z12
xdata$x	ENDS
;	COMDAT __TI3?AVbad_array_new_length@std@@
xdata$x	SEGMENT
__TI3?AVbad_array_new_length@std@@ DD 00H
	DD	FLAT:??1bad_array_new_length@std@@UAE@XZ
	DD	00H
	DD	FLAT:__CTA3?AVbad_array_new_length@std@@
xdata$x	ENDS
;	COMDAT ??_C@_0BF@KINCDENJ@bad?5array?5new?5length@
CONST	SEGMENT
??_C@_0BF@KINCDENJ@bad?5array?5new?5length@ DB 'bad array new length', 00H ; `string'
CONST	ENDS
;	COMDAT ??_7bad_array_new_length@std@@6B@
CONST	SEGMENT
??_7bad_array_new_length@std@@6B@ DD FLAT:??_R4bad_array_new_length@std@@6B@ ; std::bad_array_new_length::`vftable'
	DD	FLAT:??_Ebad_array_new_length@std@@UAEPAXI@Z
	DD	FLAT:?what@exception@std@@UBEPBDXZ
CONST	ENDS
;	COMDAT ??_7bad_alloc@std@@6B@
CONST	SEGMENT
??_7bad_alloc@std@@6B@ DD FLAT:??_R4bad_alloc@std@@6B@	; std::bad_alloc::`vftable'
	DD	FLAT:??_Ebad_alloc@std@@UAEPAXI@Z
	DD	FLAT:?what@exception@std@@UBEPBDXZ
CONST	ENDS
;	COMDAT ??_C@_0BC@EOODALEL@Unknown?5exception@
CONST	SEGMENT
??_C@_0BC@EOODALEL@Unknown?5exception@ DB 'Unknown exception', 00H ; `string'
CONST	ENDS
;	COMDAT ??_7exception@std@@6B@
CONST	SEGMENT
??_7exception@std@@6B@ DD FLAT:??_R4exception@std@@6B@	; std::exception::`vftable'
	DD	FLAT:??_Eexception@std@@UAEPAXI@Z
	DD	FLAT:?what@exception@std@@UBEPBDXZ
CONST	ENDS
;	COMDAT xdata$x
xdata$x	SEGMENT
__ehfuncinfo$??1?$CDynamicPoolEx@VCHeaderDecorator@NEffectUpdateDecorator@@@@UAE@XZ DD 019930522H
	DD	00H
	DD	00H
	DD	2 DUP(00H)
	DD	2 DUP(00H)
	DD	00H
	DD	05H
xdata$x	ENDS
;	COMDAT xdata$x
xdata$x	SEGMENT
__ehfuncinfo$??1?$CDynamicPoolEx@VCNullDecorator@NEffectUpdateDecorator@@@@UAE@XZ DD 019930522H
	DD	00H
	DD	00H
	DD	2 DUP(00H)
	DD	2 DUP(00H)
	DD	00H
	DD	05H
xdata$x	ENDS
;	COMDAT xdata$x
xdata$x	SEGMENT
__ehfuncinfo$??1?$CDynamicPoolEx@VCTextureAnimationCWDecorator@NEffectUpdateDecorator@@@@UAE@XZ DD 019930522H
	DD	00H
	DD	00H
	DD	2 DUP(00H)
	DD	2 DUP(00H)
	DD	00H
	DD	05H
xdata$x	ENDS
;	COMDAT xdata$x
xdata$x	SEGMENT
__ehfuncinfo$??1?$CDynamicPoolEx@VCTextureAnimationCCWDecorator@NEffectUpdateDecorator@@@@UAE@XZ DD 019930522H
	DD	00H
	DD	00H
	DD	2 DUP(00H)
	DD	2 DUP(00H)
	DD	00H
	DD	05H
xdata$x	ENDS
;	COMDAT xdata$x
xdata$x	SEGMENT
__ehfuncinfo$??1?$CDynamicPoolEx@VCTextureAnimationRandomDecorator@NEffectUpdateDecorator@@@@UAE@XZ DD 019930522H
	DD	00H
	DD	00H
	DD	2 DUP(00H)
	DD	2 DUP(00H)
	DD	00H
	DD	05H
xdata$x	ENDS
;	COMDAT xdata$x
xdata$x	SEGMENT
__ehfuncinfo$??1?$CDynamicPoolEx@VCAirResistanceDecorator@NEffectUpdateDecorator@@@@UAE@XZ DD 019930522H
	DD	00H
	DD	00H
	DD	2 DUP(00H)
	DD	2 DUP(00H)
	DD	00H
	DD	05H
xdata$x	ENDS
;	COMDAT xdata$x
xdata$x	SEGMENT
__ehfuncinfo$??1?$CDynamicPoolEx@VCGravityDecorator@NEffectUpdateDecorator@@@@UAE@XZ DD 019930522H
	DD	00H
	DD	00H
	DD	2 DUP(00H)
	DD	2 DUP(00H)
	DD	00H
	DD	05H
xdata$x	ENDS
;	COMDAT xdata$x
xdata$x	SEGMENT
__ehfuncinfo$??1?$CDynamicPoolEx@VCRotationDecorator@NEffectUpdateDecorator@@@@UAE@XZ DD 019930522H
	DD	00H
	DD	00H
	DD	2 DUP(00H)
	DD	2 DUP(00H)
	DD	00H
	DD	05H
xdata$x	ENDS
;	COMDAT xdata$x
xdata$x	SEGMENT
__unwindtable$?itemSetDropSoundFileName@@YAPAU_object@@PAU1@0@Z DD 0ffffffffH
	DD	FLAT:__unwindfunclet$?itemSetDropSoundFileName@@YAPAU_object@@PAU1@0@Z$0
__ehfuncinfo$?itemSetDropSoundFileName@@YAPAU_object@@PAU1@0@Z DD 019930522H
	DD	01H
	DD	FLAT:__unwindtable$?itemSetDropSoundFileName@@YAPAU_object@@PAU1@0@Z
	DD	2 DUP(00H)
	DD	2 DUP(00H)
	DD	00H
	DD	01H
xdata$x	ENDS
;	COMDAT xdata$x
xdata$x	SEGMENT
__unwindtable$?itemSetUseSoundFileName@@YAPAU_object@@PAU1@0@Z DD 0ffffffffH
	DD	FLAT:__unwindfunclet$?itemSetUseSoundFileName@@YAPAU_object@@PAU1@0@Z$0
__ehfuncinfo$?itemSetUseSoundFileName@@YAPAU_object@@PAU1@0@Z DD 019930522H
	DD	01H
	DD	FLAT:__unwindtable$?itemSetUseSoundFileName@@YAPAU_object@@PAU1@0@Z
	DD	2 DUP(00H)
	DD	2 DUP(00H)
	DD	00H
	DD	01H
xdata$x	ENDS
;	COMDAT xdata$x
xdata$x	SEGMENT
__ehfuncinfo$??$_Deallocate@$07$0A@@std@@YAXPAXI@Z DD 019930522H
	DD	00H
	DD	00H
	DD	2 DUP(00H)
	DD	2 DUP(00H)
	DD	00H
	DD	05H
xdata$x	ENDS
;	COMDAT xdata$x
xdata$x	SEGMENT
__unwindtable$??0?$basic_string@DU?$char_traits@D@std@@V?$allocator@D@2@@std@@QAE@QBD@Z DD 0ffffffffH
	DD	FLAT:__unwindfunclet$??0?$basic_string@DU?$char_traits@D@std@@V?$allocator@D@2@@std@@QAE@QBD@Z$0
__ehfuncinfo$??0?$basic_string@DU?$char_traits@D@std@@V?$allocator@D@2@@std@@QAE@QBD@Z DD 019930522H
	DD	01H
	DD	FLAT:__unwindtable$??0?$basic_string@DU?$char_traits@D@std@@V?$allocator@D@2@@std@@QAE@QBD@Z
	DD	2 DUP(00H)
	DD	2 DUP(00H)
	DD	00H
	DD	01H
xdata$x	ENDS
;	COMDAT CRT$XCU
CRT$XCU	SEGMENT
??ms_kPool$initializer$@?$CPooledObject@VCNullDecorator@NEffectUpdateDecorator@@@@1P6AXXZA@@3P6AXXZA DD FLAT:??__E?ms_kPool@?$CPooledObject@VCNullDecorator@NEffectUpdateDecorator@@@@1V?$CDynamicPoolEx@VCNullDecorator@NEffectUpdateDecorator@@@@A@@YAXXZ ; ??ms_kPool$initializer$@?$CPooledObject@VCNullDecorator@NEffectUpdateDecorator@@@@1P6AXXZA@@3P6AXXZA
CRT$XCU	ENDS
;	COMDAT CRT$XCU
CRT$XCU	SEGMENT
??ms_kPool$initializer$@?$CPooledObject@VCTextureAnimationCWDecorator@NEffectUpdateDecorator@@@@1P6AXXZA@@3P6AXXZA DD FLAT:??__E?ms_kPool@?$CPooledObject@VCTextureAnimationCWDecorator@NEffectUpdateDecorator@@@@1V?$CDynamicPoolEx@VCTextureAnimationCWDecorator@NEffectUpdateDecorator@@@@A@@YAXXZ ; ??ms_kPool$initializer$@?$CPooledObject@VCTextureAnimationCWDecorator@NEffectUpdateDecorator@@@@1P6AXXZA@@3P6AXXZA
CRT$XCU	ENDS
;	COMDAT CRT$XCU
CRT$XCU	SEGMENT
??ms_kPool$initializer$@?$CPooledObject@VCTextureAnimationCCWDecorator@NEffectUpdateDecorator@@@@1P6AXXZA@@3P6AXXZA DD FLAT:??__E?ms_kPool@?$CPooledObject@VCTextureAnimationCCWDecorator@NEffectUpdateDecorator@@@@1V?$CDynamicPoolEx@VCTextureAnimationCCWDecorator@NEffectUpdateDecorator@@@@A@@YAXXZ ; ??ms_kPool$initializer$@?$CPooledObject@VCTextureAnimationCCWDecorator@NEffectUpdateDecorator@@@@1P6AXXZA@@3P6AXXZA
CRT$XCU	ENDS
;	COMDAT CRT$XCU
CRT$XCU	SEGMENT
??ms_kPool$initializer$@?$CPooledObject@VCTextureAnimationRandomDecorator@NEffectUpdateDecorator@@@@1P6AXXZA@@3P6AXXZA DD FLAT:??__E?ms_kPool@?$CPooledObject@VCTextureAnimationRandomDecorator@NEffectUpdateDecorator@@@@1V?$CDynamicPoolEx@VCTextureAnimationRandomDecorator@NEffectUpdateDecorator@@@@A@@YAXXZ ; ??ms_kPool$initializer$@?$CPooledObject@VCTextureAnimationRandomDecorator@NEffectUpdateDecorator@@@@1P6AXXZA@@3P6AXXZA
CRT$XCU	ENDS
;	COMDAT CRT$XCU
CRT$XCU	SEGMENT
??ms_kPool$initializer$@?$CPooledObject@VCAirResistanceDecorator@NEffectUpdateDecorator@@@@1P6AXXZA@@3P6AXXZA DD FLAT:??__E?ms_kPool@?$CPooledObject@VCAirResistanceDecorator@NEffectUpdateDecorator@@@@1V?$CDynamicPoolEx@VCAirResistanceDecorator@NEffectUpdateDecorator@@@@A@@YAXXZ ; ??ms_kPool$initializer$@?$CPooledObject@VCAirResistanceDecorator@NEffectUpdateDecorator@@@@1P6AXXZA@@3P6AXXZA
CRT$XCU	ENDS
;	COMDAT CRT$XCU
CRT$XCU	SEGMENT
??ms_kPool$initializer$@?$CPooledObject@VCGravityDecorator@NEffectUpdateDecorator@@@@1P6AXXZA@@3P6AXXZA DD FLAT:??__E?ms_kPool@?$CPooledObject@VCGravityDecorator@NEffectUpdateDecorator@@@@1V?$CDynamicPoolEx@VCGravityDecorator@NEffectUpdateDecorator@@@@A@@YAXXZ ; ??ms_kPool$initializer$@?$CPooledObject@VCGravityDecorator@NEffectUpdateDecorator@@@@1P6AXXZA@@3P6AXXZA
CRT$XCU	ENDS
;	COMDAT CRT$XCU
CRT$XCU	SEGMENT
??ms_kPool$initializer$@?$CPooledObject@VCRotationDecorator@NEffectUpdateDecorator@@@@1P6AXXZA@@3P6AXXZA DD FLAT:??__E?ms_kPool@?$CPooledObject@VCRotationDecorator@NEffectUpdateDecorator@@@@1V?$CDynamicPoolEx@VCRotationDecorator@NEffectUpdateDecorator@@@@A@@YAXXZ ; ??ms_kPool$initializer$@?$CPooledObject@VCRotationDecorator@NEffectUpdateDecorator@@@@1P6AXXZA@@3P6AXXZA
CRT$XCU	ENDS
; Function compile flags: /Odspy
;	COMDAT ??__F?ms_kPool@?$CPooledObject@VCRotationDecorator@NEffectUpdateDecorator@@@@1V?$CDynamicPoolEx@VCRotationDecorator@NEffectUpdateDecorator@@@@A@@YAXXZ
text$yd	SEGMENT
??__F?ms_kPool@?$CPooledObject@VCRotationDecorator@NEffectUpdateDecorator@@@@1V?$CDynamicPoolEx@VCRotationDecorator@NEffectUpdateDecorator@@@@A@@YAXXZ PROC ; `dynamic atexit destructor for 'CPooledObject<NEffectUpdateDecorator::CRotationDecorator>::ms_kPool'', COMDAT
  00000	55		 push	 ebp
  00001	8b ec		 mov	 ebp, esp
  00003	b9 00 00 00 00	 mov	 ecx, OFFSET ?ms_kPool@?$CPooledObject@VCRotationDecorator@NEffectUpdateDecorator@@@@1V?$CDynamicPoolEx@VCRotationDecorator@NEffectUpdateDecorator@@@@A ; CPooledObject<NEffectUpdateDecorator::CRotationDecorator>::ms_kPool
  00008	e8 00 00 00 00	 call	 ??1?$CDynamicPoolEx@VCRotationDecorator@NEffectUpdateDecorator@@@@UAE@XZ ; CDynamicPoolEx<NEffectUpdateDecorator::CRotationDecorator>::~CDynamicPoolEx<NEffectUpdateDecorator::CRotationDecorator>
  0000d	5d		 pop	 ebp
  0000e	c3		 ret	 0
??__F?ms_kPool@?$CPooledObject@VCRotationDecorator@NEffectUpdateDecorator@@@@1V?$CDynamicPoolEx@VCRotationDecorator@NEffectUpdateDecorator@@@@A@@YAXXZ ENDP ; `dynamic atexit destructor for 'CPooledObject<NEffectUpdateDecorator::CRotationDecorator>::ms_kPool''
text$yd	ENDS
; Function compile flags: /Odspy
; File D:\Metin2 Server Files\mainline\SRC_2014\Metin2Client\eterLib\Pool.h
;	COMDAT ??__E?ms_kPool@?$CPooledObject@VCRotationDecorator@NEffectUpdateDecorator@@@@1V?$CDynamicPoolEx@VCRotationDecorator@NEffectUpdateDecorator@@@@A@@YAXXZ
text$di	SEGMENT
??__E?ms_kPool@?$CPooledObject@VCRotationDecorator@NEffectUpdateDecorator@@@@1V?$CDynamicPoolEx@VCRotationDecorator@NEffectUpdateDecorator@@@@A@@YAXXZ PROC ; `dynamic initializer for 'CPooledObject<NEffectUpdateDecorator::CRotationDecorator>::ms_kPool'', COMDAT

; 272  : template <class T> CDynamicPoolEx<T> CPooledObject<T>::ms_kPool;

  00000	55		 push	 ebp
  00001	8b ec		 mov	 ebp, esp
  00003	b9 00 00 00 00	 mov	 ecx, OFFSET ?ms_kPool@?$CPooledObject@VCRotationDecorator@NEffectUpdateDecorator@@@@1V?$CDynamicPoolEx@VCRotationDecorator@NEffectUpdateDecorator@@@@A ; CPooledObject<NEffectUpdateDecorator::CRotationDecorator>::ms_kPool
  00008	e8 00 00 00 00	 call	 ??0?$CDynamicPoolEx@VCRotationDecorator@NEffectUpdateDecorator@@@@QAE@XZ ; CDynamicPoolEx<NEffectUpdateDecorator::CRotationDecorator>::CDynamicPoolEx<NEffectUpdateDecorator::CRotationDecorator>
  0000d	68 00 00 00 00	 push	 OFFSET ??__F?ms_kPool@?$CPooledObject@VCRotationDecorator@NEffectUpdateDecorator@@@@1V?$CDynamicPoolEx@VCRotationDecorator@NEffectUpdateDecorator@@@@A@@YAXXZ ; `dynamic atexit destructor for 'CPooledObject<NEffectUpdateDecorator::CRotationDecorator>::ms_kPool''
  00012	e8 00 00 00 00	 call	 _atexit
  00017	59		 pop	 ecx
  00018	5d		 pop	 ebp
  00019	c3		 ret	 0
??__E?ms_kPool@?$CPooledObject@VCRotationDecorator@NEffectUpdateDecorator@@@@1V?$CDynamicPoolEx@VCRotationDecorator@NEffectUpdateDecorator@@@@A@@YAXXZ ENDP ; `dynamic initializer for 'CPooledObject<NEffectUpdateDecorator::CRotationDecorator>::ms_kPool''
text$di	ENDS
; Function compile flags: /Odspy
;	COMDAT ??__F?ms_kPool@?$CPooledObject@VCGravityDecorator@NEffectUpdateDecorator@@@@1V?$CDynamicPoolEx@VCGravityDecorator@NEffectUpdateDecorator@@@@A@@YAXXZ
text$yd	SEGMENT
??__F?ms_kPool@?$CPooledObject@VCGravityDecorator@NEffectUpdateDecorator@@@@1V?$CDynamicPoolEx@VCGravityDecorator@NEffectUpdateDecorator@@@@A@@YAXXZ PROC ; `dynamic atexit destructor for 'CPooledObject<NEffectUpdateDecorator::CGravityDecorator>::ms_kPool'', COMDAT
  00000	55		 push	 ebp
  00001	8b ec		 mov	 ebp, esp
  00003	b9 00 00 00 00	 mov	 ecx, OFFSET ?ms_kPool@?$CPooledObject@VCGravityDecorator@NEffectUpdateDecorator@@@@1V?$CDynamicPoolEx@VCGravityDecorator@NEffectUpdateDecorator@@@@A ; CPooledObject<NEffectUpdateDecorator::CGravityDecorator>::ms_kPool
  00008	e8 00 00 00 00	 call	 ??1?$CDynamicPoolEx@VCGravityDecorator@NEffectUpdateDecorator@@@@UAE@XZ ; CDynamicPoolEx<NEffectUpdateDecorator::CGravityDecorator>::~CDynamicPoolEx<NEffectUpdateDecorator::CGravityDecorator>
  0000d	5d		 pop	 ebp
  0000e	c3		 ret	 0
??__F?ms_kPool@?$CPooledObject@VCGravityDecorator@NEffectUpdateDecorator@@@@1V?$CDynamicPoolEx@VCGravityDecorator@NEffectUpdateDecorator@@@@A@@YAXXZ ENDP ; `dynamic atexit destructor for 'CPooledObject<NEffectUpdateDecorator::CGravityDecorator>::ms_kPool''
text$yd	ENDS
; Function compile flags: /Odspy
; File D:\Metin2 Server Files\mainline\SRC_2014\Metin2Client\eterLib\Pool.h
;	COMDAT ??__E?ms_kPool@?$CPooledObject@VCGravityDecorator@NEffectUpdateDecorator@@@@1V?$CDynamicPoolEx@VCGravityDecorator@NEffectUpdateDecorator@@@@A@@YAXXZ
text$di	SEGMENT
??__E?ms_kPool@?$CPooledObject@VCGravityDecorator@NEffectUpdateDecorator@@@@1V?$CDynamicPoolEx@VCGravityDecorator@NEffectUpdateDecorator@@@@A@@YAXXZ PROC ; `dynamic initializer for 'CPooledObject<NEffectUpdateDecorator::CGravityDecorator>::ms_kPool'', COMDAT

; 272  : template <class T> CDynamicPoolEx<T> CPooledObject<T>::ms_kPool;

  00000	55		 push	 ebp
  00001	8b ec		 mov	 ebp, esp
  00003	b9 00 00 00 00	 mov	 ecx, OFFSET ?ms_kPool@?$CPooledObject@VCGravityDecorator@NEffectUpdateDecorator@@@@1V?$CDynamicPoolEx@VCGravityDecorator@NEffectUpdateDecorator@@@@A ; CPooledObject<NEffectUpdateDecorator::CGravityDecorator>::ms_kPool
  00008	e8 00 00 00 00	 call	 ??0?$CDynamicPoolEx@VCGravityDecorator@NEffectUpdateDecorator@@@@QAE@XZ ; CDynamicPoolEx<NEffectUpdateDecorator::CGravityDecorator>::CDynamicPoolEx<NEffectUpdateDecorator::CGravityDecorator>
  0000d	68 00 00 00 00	 push	 OFFSET ??__F?ms_kPool@?$CPooledObject@VCGravityDecorator@NEffectUpdateDecorator@@@@1V?$CDynamicPoolEx@VCGravityDecorator@NEffectUpdateDecorator@@@@A@@YAXXZ ; `dynamic atexit destructor for 'CPooledObject<NEffectUpdateDecorator::CGravityDecorator>::ms_kPool''
  00012	e8 00 00 00 00	 call	 _atexit
  00017	59		 pop	 ecx
  00018	5d		 pop	 ebp
  00019	c3		 ret	 0
??__E?ms_kPool@?$CPooledObject@VCGravityDecorator@NEffectUpdateDecorator@@@@1V?$CDynamicPoolEx@VCGravityDecorator@NEffectUpdateDecorator@@@@A@@YAXXZ ENDP ; `dynamic initializer for 'CPooledObject<NEffectUpdateDecorator::CGravityDecorator>::ms_kPool''
text$di	ENDS
; Function compile flags: /Odspy
;	COMDAT ??__F?ms_kPool@?$CPooledObject@VCAirResistanceDecorator@NEffectUpdateDecorator@@@@1V?$CDynamicPoolEx@VCAirResistanceDecorator@NEffectUpdateDecorator@@@@A@@YAXXZ
text$yd	SEGMENT
??__F?ms_kPool@?$CPooledObject@VCAirResistanceDecorator@NEffectUpdateDecorator@@@@1V?$CDynamicPoolEx@VCAirResistanceDecorator@NEffectUpdateDecorator@@@@A@@YAXXZ PROC ; `dynamic atexit destructor for 'CPooledObject<NEffectUpdateDecorator::CAirResistanceDecorator>::ms_kPool'', COMDAT
  00000	55		 push	 ebp
  00001	8b ec		 mov	 ebp, esp
  00003	b9 00 00 00 00	 mov	 ecx, OFFSET ?ms_kPool@?$CPooledObject@VCAirResistanceDecorator@NEffectUpdateDecorator@@@@1V?$CDynamicPoolEx@VCAirResistanceDecorator@NEffectUpdateDecorator@@@@A ; CPooledObject<NEffectUpdateDecorator::CAirResistanceDecorator>::ms_kPool
  00008	e8 00 00 00 00	 call	 ??1?$CDynamicPoolEx@VCAirResistanceDecorator@NEffectUpdateDecorator@@@@UAE@XZ ; CDynamicPoolEx<NEffectUpdateDecorator::CAirResistanceDecorator>::~CDynamicPoolEx<NEffectUpdateDecorator::CAirResistanceDecorator>
  0000d	5d		 pop	 ebp
  0000e	c3		 ret	 0
??__F?ms_kPool@?$CPooledObject@VCAirResistanceDecorator@NEffectUpdateDecorator@@@@1V?$CDynamicPoolEx@VCAirResistanceDecorator@NEffectUpdateDecorator@@@@A@@YAXXZ ENDP ; `dynamic atexit destructor for 'CPooledObject<NEffectUpdateDecorator::CAirResistanceDecorator>::ms_kPool''
text$yd	ENDS
; Function compile flags: /Odspy
; File D:\Metin2 Server Files\mainline\SRC_2014\Metin2Client\eterLib\Pool.h
;	COMDAT ??__E?ms_kPool@?$CPooledObject@VCAirResistanceDecorator@NEffectUpdateDecorator@@@@1V?$CDynamicPoolEx@VCAirResistanceDecorator@NEffectUpdateDecorator@@@@A@@YAXXZ
text$di	SEGMENT
??__E?ms_kPool@?$CPooledObject@VCAirResistanceDecorator@NEffectUpdateDecorator@@@@1V?$CDynamicPoolEx@VCAirResistanceDecorator@NEffectUpdateDecorator@@@@A@@YAXXZ PROC ; `dynamic initializer for 'CPooledObject<NEffectUpdateDecorator::CAirResistanceDecorator>::ms_kPool'', COMDAT

; 272  : template <class T> CDynamicPoolEx<T> CPooledObject<T>::ms_kPool;

  00000	55		 push	 ebp
  00001	8b ec		 mov	 ebp, esp
  00003	b9 00 00 00 00	 mov	 ecx, OFFSET ?ms_kPool@?$CPooledObject@VCAirResistanceDecorator@NEffectUpdateDecorator@@@@1V?$CDynamicPoolEx@VCAirResistanceDecorator@NEffectUpdateDecorator@@@@A ; CPooledObject<NEffectUpdateDecorator::CAirResistanceDecorator>::ms_kPool
  00008	e8 00 00 00 00	 call	 ??0?$CDynamicPoolEx@VCAirResistanceDecorator@NEffectUpdateDecorator@@@@QAE@XZ ; CDynamicPoolEx<NEffectUpdateDecorator::CAirResistanceDecorator>::CDynamicPoolEx<NEffectUpdateDecorator::CAirResistanceDecorator>
  0000d	68 00 00 00 00	 push	 OFFSET ??__F?ms_kPool@?$CPooledObject@VCAirResistanceDecorator@NEffectUpdateDecorator@@@@1V?$CDynamicPoolEx@VCAirResistanceDecorator@NEffectUpdateDecorator@@@@A@@YAXXZ ; `dynamic atexit destructor for 'CPooledObject<NEffectUpdateDecorator::CAirResistanceDecorator>::ms_kPool''
  00012	e8 00 00 00 00	 call	 _atexit
  00017	59		 pop	 ecx
  00018	5d		 pop	 ebp
  00019	c3		 ret	 0
??__E?ms_kPool@?$CPooledObject@VCAirResistanceDecorator@NEffectUpdateDecorator@@@@1V?$CDynamicPoolEx@VCAirResistanceDecorator@NEffectUpdateDecorator@@@@A@@YAXXZ ENDP ; `dynamic initializer for 'CPooledObject<NEffectUpdateDecorator::CAirResistanceDecorator>::ms_kPool''
text$di	ENDS
; Function compile flags: /Odspy
;	COMDAT ??__F?ms_kPool@?$CPooledObject@VCTextureAnimationRandomDecorator@NEffectUpdateDecorator@@@@1V?$CDynamicPoolEx@VCTextureAnimationRandomDecorator@NEffectUpdateDecorator@@@@A@@YAXXZ
text$yd	SEGMENT
??__F?ms_kPool@?$CPooledObject@VCTextureAnimationRandomDecorator@NEffectUpdateDecorator@@@@1V?$CDynamicPoolEx@VCTextureAnimationRandomDecorator@NEffectUpdateDecorator@@@@A@@YAXXZ PROC ; `dynamic atexit destructor for 'CPooledObject<NEffectUpdateDecorator::CTextureAnimationRandomDecorator>::ms_kPool'', COMDAT
  00000	55		 push	 ebp
  00001	8b ec		 mov	 ebp, esp
  00003	b9 00 00 00 00	 mov	 ecx, OFFSET ?ms_kPool@?$CPooledObject@VCTextureAnimationRandomDecorator@NEffectUpdateDecorator@@@@1V?$CDynamicPoolEx@VCTextureAnimationRandomDecorator@NEffectUpdateDecorator@@@@A ; CPooledObject<NEffectUpdateDecorator::CTextureAnimationRandomDecorator>::ms_kPool
  00008	e8 00 00 00 00	 call	 ??1?$CDynamicPoolEx@VCTextureAnimationRandomDecorator@NEffectUpdateDecorator@@@@UAE@XZ ; CDynamicPoolEx<NEffectUpdateDecorator::CTextureAnimationRandomDecorator>::~CDynamicPoolEx<NEffectUpdateDecorator::CTextureAnimationRandomDecorator>
  0000d	5d		 pop	 ebp
  0000e	c3		 ret	 0
??__F?ms_kPool@?$CPooledObject@VCTextureAnimationRandomDecorator@NEffectUpdateDecorator@@@@1V?$CDynamicPoolEx@VCTextureAnimationRandomDecorator@NEffectUpdateDecorator@@@@A@@YAXXZ ENDP ; `dynamic atexit destructor for 'CPooledObject<NEffectUpdateDecorator::CTextureAnimationRandomDecorator>::ms_kPool''
text$yd	ENDS
; Function compile flags: /Odspy
; File D:\Metin2 Server Files\mainline\SRC_2014\Metin2Client\eterLib\Pool.h
;	COMDAT ??__E?ms_kPool@?$CPooledObject@VCTextureAnimationRandomDecorator@NEffectUpdateDecorator@@@@1V?$CDynamicPoolEx@VCTextureAnimationRandomDecorator@NEffectUpdateDecorator@@@@A@@YAXXZ
text$di	SEGMENT
??__E?ms_kPool@?$CPooledObject@VCTextureAnimationRandomDecorator@NEffectUpdateDecorator@@@@1V?$CDynamicPoolEx@VCTextureAnimationRandomDecorator@NEffectUpdateDecorator@@@@A@@YAXXZ PROC ; `dynamic initializer for 'CPooledObject<NEffectUpdateDecorator::CTextureAnimationRandomDecorator>::ms_kPool'', COMDAT

; 272  : template <class T> CDynamicPoolEx<T> CPooledObject<T>::ms_kPool;

  00000	55		 push	 ebp
  00001	8b ec		 mov	 ebp, esp
  00003	b9 00 00 00 00	 mov	 ecx, OFFSET ?ms_kPool@?$CPooledObject@VCTextureAnimationRandomDecorator@NEffectUpdateDecorator@@@@1V?$CDynamicPoolEx@VCTextureAnimationRandomDecorator@NEffectUpdateDecorator@@@@A ; CPooledObject<NEffectUpdateDecorator::CTextureAnimationRandomDecorator>::ms_kPool
  00008	e8 00 00 00 00	 call	 ??0?$CDynamicPoolEx@VCTextureAnimationRandomDecorator@NEffectUpdateDecorator@@@@QAE@XZ ; CDynamicPoolEx<NEffectUpdateDecorator::CTextureAnimationRandomDecorator>::CDynamicPoolEx<NEffectUpdateDecorator::CTextureAnimationRandomDecorator>
  0000d	68 00 00 00 00	 push	 OFFSET ??__F?ms_kPool@?$CPooledObject@VCTextureAnimationRandomDecorator@NEffectUpdateDecorator@@@@1V?$CDynamicPoolEx@VCTextureAnimationRandomDecorator@NEffectUpdateDecorator@@@@A@@YAXXZ ; `dynamic atexit destructor for 'CPooledObject<NEffectUpdateDecorator::CTextureAnimationRandomDecorator>::ms_kPool''
  00012	e8 00 00 00 00	 call	 _atexit
  00017	59		 pop	 ecx
  00018	5d		 pop	 ebp
  00019	c3		 ret	 0
??__E?ms_kPool@?$CPooledObject@VCTextureAnimationRandomDecorator@NEffectUpdateDecorator@@@@1V?$CDynamicPoolEx@VCTextureAnimationRandomDecorator@NEffectUpdateDecorator@@@@A@@YAXXZ ENDP ; `dynamic initializer for 'CPooledObject<NEffectUpdateDecorator::CTextureAnimationRandomDecorator>::ms_kPool''
text$di	ENDS
; Function compile flags: /Odspy
;	COMDAT ??__F?ms_kPool@?$CPooledObject@VCTextureAnimationCCWDecorator@NEffectUpdateDecorator@@@@1V?$CDynamicPoolEx@VCTextureAnimationCCWDecorator@NEffectUpdateDecorator@@@@A@@YAXXZ
text$yd	SEGMENT
??__F?ms_kPool@?$CPooledObject@VCTextureAnimationCCWDecorator@NEffectUpdateDecorator@@@@1V?$CDynamicPoolEx@VCTextureAnimationCCWDecorator@NEffectUpdateDecorator@@@@A@@YAXXZ PROC ; `dynamic atexit destructor for 'CPooledObject<NEffectUpdateDecorator::CTextureAnimationCCWDecorator>::ms_kPool'', COMDAT
  00000	55		 push	 ebp
  00001	8b ec		 mov	 ebp, esp
  00003	b9 00 00 00 00	 mov	 ecx, OFFSET ?ms_kPool@?$CPooledObject@VCTextureAnimationCCWDecorator@NEffectUpdateDecorator@@@@1V?$CDynamicPoolEx@VCTextureAnimationCCWDecorator@NEffectUpdateDecorator@@@@A ; CPooledObject<NEffectUpdateDecorator::CTextureAnimationCCWDecorator>::ms_kPool
  00008	e8 00 00 00 00	 call	 ??1?$CDynamicPoolEx@VCTextureAnimationCCWDecorator@NEffectUpdateDecorator@@@@UAE@XZ ; CDynamicPoolEx<NEffectUpdateDecorator::CTextureAnimationCCWDecorator>::~CDynamicPoolEx<NEffectUpdateDecorator::CTextureAnimationCCWDecorator>
  0000d	5d		 pop	 ebp
  0000e	c3		 ret	 0
??__F?ms_kPool@?$CPooledObject@VCTextureAnimationCCWDecorator@NEffectUpdateDecorator@@@@1V?$CDynamicPoolEx@VCTextureAnimationCCWDecorator@NEffectUpdateDecorator@@@@A@@YAXXZ ENDP ; `dynamic atexit destructor for 'CPooledObject<NEffectUpdateDecorator::CTextureAnimationCCWDecorator>::ms_kPool''
text$yd	ENDS
; Function compile flags: /Odspy
; File D:\Metin2 Server Files\mainline\SRC_2014\Metin2Client\eterLib\Pool.h
;	COMDAT ??__E?ms_kPool@?$CPooledObject@VCTextureAnimationCCWDecorator@NEffectUpdateDecorator@@@@1V?$CDynamicPoolEx@VCTextureAnimationCCWDecorator@NEffectUpdateDecorator@@@@A@@YAXXZ
text$di	SEGMENT
??__E?ms_kPool@?$CPooledObject@VCTextureAnimationCCWDecorator@NEffectUpdateDecorator@@@@1V?$CDynamicPoolEx@VCTextureAnimationCCWDecorator@NEffectUpdateDecorator@@@@A@@YAXXZ PROC ; `dynamic initializer for 'CPooledObject<NEffectUpdateDecorator::CTextureAnimationCCWDecorator>::ms_kPool'', COMDAT

; 272  : template <class T> CDynamicPoolEx<T> CPooledObject<T>::ms_kPool;

  00000	55		 push	 ebp
  00001	8b ec		 mov	 ebp, esp
  00003	b9 00 00 00 00	 mov	 ecx, OFFSET ?ms_kPool@?$CPooledObject@VCTextureAnimationCCWDecorator@NEffectUpdateDecorator@@@@1V?$CDynamicPoolEx@VCTextureAnimationCCWDecorator@NEffectUpdateDecorator@@@@A ; CPooledObject<NEffectUpdateDecorator::CTextureAnimationCCWDecorator>::ms_kPool
  00008	e8 00 00 00 00	 call	 ??0?$CDynamicPoolEx@VCTextureAnimationCCWDecorator@NEffectUpdateDecorator@@@@QAE@XZ ; CDynamicPoolEx<NEffectUpdateDecorator::CTextureAnimationCCWDecorator>::CDynamicPoolEx<NEffectUpdateDecorator::CTextureAnimationCCWDecorator>
  0000d	68 00 00 00 00	 push	 OFFSET ??__F?ms_kPool@?$CPooledObject@VCTextureAnimationCCWDecorator@NEffectUpdateDecorator@@@@1V?$CDynamicPoolEx@VCTextureAnimationCCWDecorator@NEffectUpdateDecorator@@@@A@@YAXXZ ; `dynamic atexit destructor for 'CPooledObject<NEffectUpdateDecorator::CTextureAnimationCCWDecorator>::ms_kPool''
  00012	e8 00 00 00 00	 call	 _atexit
  00017	59		 pop	 ecx
  00018	5d		 pop	 ebp
  00019	c3		 ret	 0
??__E?ms_kPool@?$CPooledObject@VCTextureAnimationCCWDecorator@NEffectUpdateDecorator@@@@1V?$CDynamicPoolEx@VCTextureAnimationCCWDecorator@NEffectUpdateDecorator@@@@A@@YAXXZ ENDP ; `dynamic initializer for 'CPooledObject<NEffectUpdateDecorator::CTextureAnimationCCWDecorator>::ms_kPool''
text$di	ENDS
; Function compile flags: /Odspy
;	COMDAT ??__F?ms_kPool@?$CPooledObject@VCTextureAnimationCWDecorator@NEffectUpdateDecorator@@@@1V?$CDynamicPoolEx@VCTextureAnimationCWDecorator@NEffectUpdateDecorator@@@@A@@YAXXZ
text$yd	SEGMENT
??__F?ms_kPool@?$CPooledObject@VCTextureAnimationCWDecorator@NEffectUpdateDecorator@@@@1V?$CDynamicPoolEx@VCTextureAnimationCWDecorator@NEffectUpdateDecorator@@@@A@@YAXXZ PROC ; `dynamic atexit destructor for 'CPooledObject<NEffectUpdateDecorator::CTextureAnimationCWDecorator>::ms_kPool'', COMDAT
  00000	55		 push	 ebp
  00001	8b ec		 mov	 ebp, esp
  00003	b9 00 00 00 00	 mov	 ecx, OFFSET ?ms_kPool@?$CPooledObject@VCTextureAnimationCWDecorator@NEffectUpdateDecorator@@@@1V?$CDynamicPoolEx@VCTextureAnimationCWDecorator@NEffectUpdateDecorator@@@@A ; CPooledObject<NEffectUpdateDecorator::CTextureAnimationCWDecorator>::ms_kPool
  00008	e8 00 00 00 00	 call	 ??1?$CDynamicPoolEx@VCTextureAnimationCWDecorator@NEffectUpdateDecorator@@@@UAE@XZ ; CDynamicPoolEx<NEffectUpdateDecorator::CTextureAnimationCWDecorator>::~CDynamicPoolEx<NEffectUpdateDecorator::CTextureAnimationCWDecorator>
  0000d	5d		 pop	 ebp
  0000e	c3		 ret	 0
??__F?ms_kPool@?$CPooledObject@VCTextureAnimationCWDecorator@NEffectUpdateDecorator@@@@1V?$CDynamicPoolEx@VCTextureAnimationCWDecorator@NEffectUpdateDecorator@@@@A@@YAXXZ ENDP ; `dynamic atexit destructor for 'CPooledObject<NEffectUpdateDecorator::CTextureAnimationCWDecorator>::ms_kPool''
text$yd	ENDS
; Function compile flags: /Odspy
; File D:\Metin2 Server Files\mainline\SRC_2014\Metin2Client\eterLib\Pool.h
;	COMDAT ??__E?ms_kPool@?$CPooledObject@VCTextureAnimationCWDecorator@NEffectUpdateDecorator@@@@1V?$CDynamicPoolEx@VCTextureAnimationCWDecorator@NEffectUpdateDecorator@@@@A@@YAXXZ
text$di	SEGMENT
??__E?ms_kPool@?$CPooledObject@VCTextureAnimationCWDecorator@NEffectUpdateDecorator@@@@1V?$CDynamicPoolEx@VCTextureAnimationCWDecorator@NEffectUpdateDecorator@@@@A@@YAXXZ PROC ; `dynamic initializer for 'CPooledObject<NEffectUpdateDecorator::CTextureAnimationCWDecorator>::ms_kPool'', COMDAT

; 272  : template <class T> CDynamicPoolEx<T> CPooledObject<T>::ms_kPool;

  00000	55		 push	 ebp
  00001	8b ec		 mov	 ebp, esp
  00003	b9 00 00 00 00	 mov	 ecx, OFFSET ?ms_kPool@?$CPooledObject@VCTextureAnimationCWDecorator@NEffectUpdateDecorator@@@@1V?$CDynamicPoolEx@VCTextureAnimationCWDecorator@NEffectUpdateDecorator@@@@A ; CPooledObject<NEffectUpdateDecorator::CTextureAnimationCWDecorator>::ms_kPool
  00008	e8 00 00 00 00	 call	 ??0?$CDynamicPoolEx@VCTextureAnimationCWDecorator@NEffectUpdateDecorator@@@@QAE@XZ ; CDynamicPoolEx<NEffectUpdateDecorator::CTextureAnimationCWDecorator>::CDynamicPoolEx<NEffectUpdateDecorator::CTextureAnimationCWDecorator>
  0000d	68 00 00 00 00	 push	 OFFSET ??__F?ms_kPool@?$CPooledObject@VCTextureAnimationCWDecorator@NEffectUpdateDecorator@@@@1V?$CDynamicPoolEx@VCTextureAnimationCWDecorator@NEffectUpdateDecorator@@@@A@@YAXXZ ; `dynamic atexit destructor for 'CPooledObject<NEffectUpdateDecorator::CTextureAnimationCWDecorator>::ms_kPool''
  00012	e8 00 00 00 00	 call	 _atexit
  00017	59		 pop	 ecx
  00018	5d		 pop	 ebp
  00019	c3		 ret	 0
??__E?ms_kPool@?$CPooledObject@VCTextureAnimationCWDecorator@NEffectUpdateDecorator@@@@1V?$CDynamicPoolEx@VCTextureAnimationCWDecorator@NEffectUpdateDecorator@@@@A@@YAXXZ ENDP ; `dynamic initializer for 'CPooledObject<NEffectUpdateDecorator::CTextureAnimationCWDecorator>::ms_kPool''
text$di	ENDS
; Function compile flags: /Odspy
;	COMDAT ??__F?ms_kPool@?$CPooledObject@VCNullDecorator@NEffectUpdateDecorator@@@@1V?$CDynamicPoolEx@VCNullDecorator@NEffectUpdateDecorator@@@@A@@YAXXZ
text$yd	SEGMENT
??__F?ms_kPool@?$CPooledObject@VCNullDecorator@NEffectUpdateDecorator@@@@1V?$CDynamicPoolEx@VCNullDecorator@NEffectUpdateDecorator@@@@A@@YAXXZ PROC ; `dynamic atexit destructor for 'CPooledObject<NEffectUpdateDecorator::CNullDecorator>::ms_kPool'', COMDAT
  00000	55		 push	 ebp
  00001	8b ec		 mov	 ebp, esp
  00003	b9 00 00 00 00	 mov	 ecx, OFFSET ?ms_kPool@?$CPooledObject@VCNullDecorator@NEffectUpdateDecorator@@@@1V?$CDynamicPoolEx@VCNullDecorator@NEffectUpdateDecorator@@@@A ; CPooledObject<NEffectUpdateDecorator::CNullDecorator>::ms_kPool
  00008	e8 00 00 00 00	 call	 ??1?$CDynamicPoolEx@VCNullDecorator@NEffectUpdateDecorator@@@@UAE@XZ ; CDynamicPoolEx<NEffectUpdateDecorator::CNullDecorator>::~CDynamicPoolEx<NEffectUpdateDecorator::CNullDecorator>
  0000d	5d		 pop	 ebp
  0000e	c3		 ret	 0
??__F?ms_kPool@?$CPooledObject@VCNullDecorator@NEffectUpdateDecorator@@@@1V?$CDynamicPoolEx@VCNullDecorator@NEffectUpdateDecorator@@@@A@@YAXXZ ENDP ; `dynamic atexit destructor for 'CPooledObject<NEffectUpdateDecorator::CNullDecorator>::ms_kPool''
text$yd	ENDS
; Function compile flags: /Odspy
; File D:\Metin2 Server Files\mainline\SRC_2014\Metin2Client\eterLib\Pool.h
;	COMDAT ??__E?ms_kPool@?$CPooledObject@VCNullDecorator@NEffectUpdateDecorator@@@@1V?$CDynamicPoolEx@VCNullDecorator@NEffectUpdateDecorator@@@@A@@YAXXZ
text$di	SEGMENT
??__E?ms_kPool@?$CPooledObject@VCNullDecorator@NEffectUpdateDecorator@@@@1V?$CDynamicPoolEx@VCNullDecorator@NEffectUpdateDecorator@@@@A@@YAXXZ PROC ; `dynamic initializer for 'CPooledObject<NEffectUpdateDecorator::CNullDecorator>::ms_kPool'', COMDAT

; 272  : template <class T> CDynamicPoolEx<T> CPooledObject<T>::ms_kPool;

  00000	55		 push	 ebp
  00001	8b ec		 mov	 ebp, esp
  00003	b9 00 00 00 00	 mov	 ecx, OFFSET ?ms_kPool@?$CPooledObject@VCNullDecorator@NEffectUpdateDecorator@@@@1V?$CDynamicPoolEx@VCNullDecorator@NEffectUpdateDecorator@@@@A ; CPooledObject<NEffectUpdateDecorator::CNullDecorator>::ms_kPool
  00008	e8 00 00 00 00	 call	 ??0?$CDynamicPoolEx@VCNullDecorator@NEffectUpdateDecorator@@@@QAE@XZ ; CDynamicPoolEx<NEffectUpdateDecorator::CNullDecorator>::CDynamicPoolEx<NEffectUpdateDecorator::CNullDecorator>
  0000d	68 00 00 00 00	 push	 OFFSET ??__F?ms_kPool@?$CPooledObject@VCNullDecorator@NEffectUpdateDecorator@@@@1V?$CDynamicPoolEx@VCNullDecorator@NEffectUpdateDecorator@@@@A@@YAXXZ ; `dynamic atexit destructor for 'CPooledObject<NEffectUpdateDecorator::CNullDecorator>::ms_kPool''
  00012	e8 00 00 00 00	 call	 _atexit
  00017	59		 pop	 ecx
  00018	5d		 pop	 ebp
  00019	c3		 ret	 0
??__E?ms_kPool@?$CPooledObject@VCNullDecorator@NEffectUpdateDecorator@@@@1V?$CDynamicPoolEx@VCNullDecorator@NEffectUpdateDecorator@@@@A@@YAXXZ ENDP ; `dynamic initializer for 'CPooledObject<NEffectUpdateDecorator::CNullDecorator>::ms_kPool''
text$di	ENDS
; Function compile flags: /Odspy
;	COMDAT ??__F?ms_kPool@?$CPooledObject@VCHeaderDecorator@NEffectUpdateDecorator@@@@1V?$CDynamicPoolEx@VCHeaderDecorator@NEffectUpdateDecorator@@@@A@@YAXXZ
text$yd	SEGMENT
??__F?ms_kPool@?$CPooledObject@VCHeaderDecorator@NEffectUpdateDecorator@@@@1V?$CDynamicPoolEx@VCHeaderDecorator@NEffectUpdateDecorator@@@@A@@YAXXZ PROC ; `dynamic atexit destructor for 'CPooledObject<NEffectUpdateDecorator::CHeaderDecorator>::ms_kPool'', COMDAT
  00000	55		 push	 ebp
  00001	8b ec		 mov	 ebp, esp
  00003	b9 00 00 00 00	 mov	 ecx, OFFSET ?ms_kPool@?$CPooledObject@VCHeaderDecorator@NEffectUpdateDecorator@@@@1V?$CDynamicPoolEx@VCHeaderDecorator@NEffectUpdateDecorator@@@@A ; CPooledObject<NEffectUpdateDecorator::CHeaderDecorator>::ms_kPool
  00008	e8 00 00 00 00	 call	 ??1?$CDynamicPoolEx@VCHeaderDecorator@NEffectUpdateDecorator@@@@UAE@XZ ; CDynamicPoolEx<NEffectUpdateDecorator::CHeaderDecorator>::~CDynamicPoolEx<NEffectUpdateDecorator::CHeaderDecorator>
  0000d	5d		 pop	 ebp
  0000e	c3		 ret	 0
??__F?ms_kPool@?$CPooledObject@VCHeaderDecorator@NEffectUpdateDecorator@@@@1V?$CDynamicPoolEx@VCHeaderDecorator@NEffectUpdateDecorator@@@@A@@YAXXZ ENDP ; `dynamic atexit destructor for 'CPooledObject<NEffectUpdateDecorator::CHeaderDecorator>::ms_kPool''
text$yd	ENDS
; Function compile flags: /Odspy
; File D:\Metin2 Server Files\mainline\SRC_2014\Metin2Client\eterLib\Pool.h
;	COMDAT ??__E?ms_kPool@?$CPooledObject@VCHeaderDecorator@NEffectUpdateDecorator@@@@1V?$CDynamicPoolEx@VCHeaderDecorator@NEffectUpdateDecorator@@@@A@@YAXXZ
text$di	SEGMENT
??__E?ms_kPool@?$CPooledObject@VCHeaderDecorator@NEffectUpdateDecorator@@@@1V?$CDynamicPoolEx@VCHeaderDecorator@NEffectUpdateDecorator@@@@A@@YAXXZ PROC ; `dynamic initializer for 'CPooledObject<NEffectUpdateDecorator::CHeaderDecorator>::ms_kPool'', COMDAT

; 272  : template <class T> CDynamicPoolEx<T> CPooledObject<T>::ms_kPool;

  00000	55		 push	 ebp
  00001	8b ec		 mov	 ebp, esp
  00003	b9 00 00 00 00	 mov	 ecx, OFFSET ?ms_kPool@?$CPooledObject@VCHeaderDecorator@NEffectUpdateDecorator@@@@1V?$CDynamicPoolEx@VCHeaderDecorator@NEffectUpdateDecorator@@@@A ; CPooledObject<NEffectUpdateDecorator::CHeaderDecorator>::ms_kPool
  00008	e8 00 00 00 00	 call	 ??0?$CDynamicPoolEx@VCHeaderDecorator@NEffectUpdateDecorator@@@@QAE@XZ ; CDynamicPoolEx<NEffectUpdateDecorator::CHeaderDecorator>::CDynamicPoolEx<NEffectUpdateDecorator::CHeaderDecorator>
  0000d	68 00 00 00 00	 push	 OFFSET ??__F?ms_kPool@?$CPooledObject@VCHeaderDecorator@NEffectUpdateDecorator@@@@1V?$CDynamicPoolEx@VCHeaderDecorator@NEffectUpdateDecorator@@@@A@@YAXXZ ; `dynamic atexit destructor for 'CPooledObject<NEffectUpdateDecorator::CHeaderDecorator>::ms_kPool''
  00012	e8 00 00 00 00	 call	 _atexit
  00017	59		 pop	 ecx
  00018	5d		 pop	 ebp
  00019	c3		 ret	 0
??__E?ms_kPool@?$CPooledObject@VCHeaderDecorator@NEffectUpdateDecorator@@@@1V?$CDynamicPoolEx@VCHeaderDecorator@NEffectUpdateDecorator@@@@A@@YAXXZ ENDP ; `dynamic initializer for 'CPooledObject<NEffectUpdateDecorator::CHeaderDecorator>::ms_kPool''
text$di	ENDS
; Function compile flags: /Odspy
; File C:\Program Files (x86)\Microsoft Visual Studio\2019\Community\VC\Tools\MSVC\14.28.29333\include\xmemory
;	COMDAT ??$_Destroy_range@V?$allocator@PAVCRotationDecorator@NEffectUpdateDecorator@@@std@@@std@@YAXPAPAVCRotationDecorator@NEffectUpdateDecorator@@QAPAV12@AAV?$allocator@PAVCRotationDecorator@NEffectUpdateDecorator@@@0@@Z
_TEXT	SEGMENT
__First$ = 8						; size = 4
__Last$ = 12						; size = 4
__Al$ = 16						; size = 4
??$_Destroy_range@V?$allocator@PAVCRotationDecorator@NEffectUpdateDecorator@@@std@@@std@@YAXPAPAVCRotationDecorator@NEffectUpdateDecorator@@QAPAV12@AAV?$allocator@PAVCRotationDecorator@NEffectUpdateDecorator@@@0@@Z PROC ; std::_Destroy_range<std::allocator<NEffectUpdateDecorator::CRotationDecorator *> >, COMDAT

; 962  :     _Alloc_ptr_t<_Alloc> _First, const _Alloc_ptr_t<_Alloc> _Last, _Alloc& _Al) noexcept {

  00000	55		 push	 ebp
  00001	8b ec		 mov	 ebp, esp

; 963  :     // note that this is an optimization for debug mode codegen; in release mode the BE removes all of this
; 964  :     using _Ty = typename _Alloc::value_type;
; 965  :     if _CONSTEXPR_IF (!conjunction_v<is_trivially_destructible<_Ty>, _Uses_default_destroy<_Alloc, _Ty*>>) {
; 966  :         for (; _First != _Last; ++_First) {
; 967  :             allocator_traits<_Alloc>::destroy(_Al, _Unfancy(_First));
; 968  :         }
; 969  :     }
; 970  : }

  00003	5d		 pop	 ebp
  00004	c3		 ret	 0
??$_Destroy_range@V?$allocator@PAVCRotationDecorator@NEffectUpdateDecorator@@@std@@@std@@YAXPAPAVCRotationDecorator@NEffectUpdateDecorator@@QAPAV12@AAV?$allocator@PAVCRotationDecorator@NEffectUpdateDecorator@@@0@@Z ENDP ; std::_Destroy_range<std::allocator<NEffectUpdateDecorator::CRotationDecorator *> >
_TEXT	ENDS
; Function compile flags: /Odspy
; File C:\Program Files (x86)\Microsoft Visual Studio\2019\Community\VC\Tools\MSVC\14.28.29333\include\xmemory
;	COMDAT ??$_Destroy_range@V?$allocator@PAVCGravityDecorator@NEffectUpdateDecorator@@@std@@@std@@YAXPAPAVCGravityDecorator@NEffectUpdateDecorator@@QAPAV12@AAV?$allocator@PAVCGravityDecorator@NEffectUpdateDecorator@@@0@@Z
_TEXT	SEGMENT
__First$ = 8						; size = 4
__Last$ = 12						; size = 4
__Al$ = 16						; size = 4
??$_Destroy_range@V?$allocator@PAVCGravityDecorator@NEffectUpdateDecorator@@@std@@@std@@YAXPAPAVCGravityDecorator@NEffectUpdateDecorator@@QAPAV12@AAV?$allocator@PAVCGravityDecorator@NEffectUpdateDecorator@@@0@@Z PROC ; std::_Destroy_range<std::allocator<NEffectUpdateDecorator::CGravityDecorator *> >, COMDAT

; 962  :     _Alloc_ptr_t<_Alloc> _First, const _Alloc_ptr_t<_Alloc> _Last, _Alloc& _Al) noexcept {

  00000	55		 push	 ebp
  00001	8b ec		 mov	 ebp, esp

; 963  :     // note that this is an optimization for debug mode codegen; in release mode the BE removes all of this
; 964  :     using _Ty = typename _Alloc::value_type;
; 965  :     if _CONSTEXPR_IF (!conjunction_v<is_trivially_destructible<_Ty>, _Uses_default_destroy<_Alloc, _Ty*>>) {
; 966  :         for (; _First != _Last; ++_First) {
; 967  :             allocator_traits<_Alloc>::destroy(_Al, _Unfancy(_First));
; 968  :         }
; 969  :     }
; 970  : }

  00003	5d		 pop	 ebp
  00004	c3		 ret	 0
??$_Destroy_range@V?$allocator@PAVCGravityDecorator@NEffectUpdateDecorator@@@std@@@std@@YAXPAPAVCGravityDecorator@NEffectUpdateDecorator@@QAPAV12@AAV?$allocator@PAVCGravityDecorator@NEffectUpdateDecorator@@@0@@Z ENDP ; std::_Destroy_range<std::allocator<NEffectUpdateDecorator::CGravityDecorator *> >
_TEXT	ENDS
; Function compile flags: /Odspy
; File C:\Program Files (x86)\Microsoft Visual Studio\2019\Community\VC\Tools\MSVC\14.28.29333\include\xmemory
;	COMDAT ??$_Destroy_range@V?$allocator@PAVCAirResistanceDecorator@NEffectUpdateDecorator@@@std@@@std@@YAXPAPAVCAirResistanceDecorator@NEffectUpdateDecorator@@QAPAV12@AAV?$allocator@PAVCAirResistanceDecorator@NEffectUpdateDecorator@@@0@@Z
_TEXT	SEGMENT
__First$ = 8						; size = 4
__Last$ = 12						; size = 4
__Al$ = 16						; size = 4
??$_Destroy_range@V?$allocator@PAVCAirResistanceDecorator@NEffectUpdateDecorator@@@std@@@std@@YAXPAPAVCAirResistanceDecorator@NEffectUpdateDecorator@@QAPAV12@AAV?$allocator@PAVCAirResistanceDecorator@NEffectUpdateDecorator@@@0@@Z PROC ; std::_Destroy_range<std::allocator<NEffectUpdateDecorator::CAirResistanceDecorator *> >, COMDAT

; 962  :     _Alloc_ptr_t<_Alloc> _First, const _Alloc_ptr_t<_Alloc> _Last, _Alloc& _Al) noexcept {

  00000	55		 push	 ebp
  00001	8b ec		 mov	 ebp, esp

; 963  :     // note that this is an optimization for debug mode codegen; in release mode the BE removes all of this
; 964  :     using _Ty = typename _Alloc::value_type;
; 965  :     if _CONSTEXPR_IF (!conjunction_v<is_trivially_destructible<_Ty>, _Uses_default_destroy<_Alloc, _Ty*>>) {
; 966  :         for (; _First != _Last; ++_First) {
; 967  :             allocator_traits<_Alloc>::destroy(_Al, _Unfancy(_First));
; 968  :         }
; 969  :     }
; 970  : }

  00003	5d		 pop	 ebp
  00004	c3		 ret	 0
??$_Destroy_range@V?$allocator@PAVCAirResistanceDecorator@NEffectUpdateDecorator@@@std@@@std@@YAXPAPAVCAirResistanceDecorator@NEffectUpdateDecorator@@QAPAV12@AAV?$allocator@PAVCAirResistanceDecorator@NEffectUpdateDecorator@@@0@@Z ENDP ; std::_Destroy_range<std::allocator<NEffectUpdateDecorator::CAirResistanceDecorator *> >
_TEXT	ENDS
; Function compile flags: /Odspy
; File C:\Program Files (x86)\Microsoft Visual Studio\2019\Community\VC\Tools\MSVC\14.28.29333\include\xmemory
;	COMDAT ??$_Destroy_range@V?$allocator@PAVCTextureAnimationRandomDecorator@NEffectUpdateDecorator@@@std@@@std@@YAXPAPAVCTextureAnimationRandomDecorator@NEffectUpdateDecorator@@QAPAV12@AAV?$allocator@PAVCTextureAnimationRandomDecorator@NEffectUpdateDecorator@@@0@@Z
_TEXT	SEGMENT
__First$ = 8						; size = 4
__Last$ = 12						; size = 4
__Al$ = 16						; size = 4
??$_Destroy_range@V?$allocator@PAVCTextureAnimationRandomDecorator@NEffectUpdateDecorator@@@std@@@std@@YAXPAPAVCTextureAnimationRandomDecorator@NEffectUpdateDecorator@@QAPAV12@AAV?$allocator@PAVCTextureAnimationRandomDecorator@NEffectUpdateDecorator@@@0@@Z PROC ; std::_Destroy_range<std::allocator<NEffectUpdateDecorator::CTextureAnimationRandomDecorator *> >, COMDAT

; 962  :     _Alloc_ptr_t<_Alloc> _First, const _Alloc_ptr_t<_Alloc> _Last, _Alloc& _Al) noexcept {

  00000	55		 push	 ebp
  00001	8b ec		 mov	 ebp, esp

; 963  :     // note that this is an optimization for debug mode codegen; in release mode the BE removes all of this
; 964  :     using _Ty = typename _Alloc::value_type;
; 965  :     if _CONSTEXPR_IF (!conjunction_v<is_trivially_destructible<_Ty>, _Uses_default_destroy<_Alloc, _Ty*>>) {
; 966  :         for (; _First != _Last; ++_First) {
; 967  :             allocator_traits<_Alloc>::destroy(_Al, _Unfancy(_First));
; 968  :         }
; 969  :     }
; 970  : }

  00003	5d		 pop	 ebp
  00004	c3		 ret	 0
??$_Destroy_range@V?$allocator@PAVCTextureAnimationRandomDecorator@NEffectUpdateDecorator@@@std@@@std@@YAXPAPAVCTextureAnimationRandomDecorator@NEffectUpdateDecorator@@QAPAV12@AAV?$allocator@PAVCTextureAnimationRandomDecorator@NEffectUpdateDecorator@@@0@@Z ENDP ; std::_Destroy_range<std::allocator<NEffectUpdateDecorator::CTextureAnimationRandomDecorator *> >
_TEXT	ENDS
; Function compile flags: /Odspy
; File C:\Program Files (x86)\Microsoft Visual Studio\2019\Community\VC\Tools\MSVC\14.28.29333\include\xmemory
;	COMDAT ??$_Destroy_range@V?$allocator@PAVCTextureAnimationCCWDecorator@NEffectUpdateDecorator@@@std@@@std@@YAXPAPAVCTextureAnimationCCWDecorator@NEffectUpdateDecorator@@QAPAV12@AAV?$allocator@PAVCTextureAnimationCCWDecorator@NEffectUpdateDecorator@@@0@@Z
_TEXT	SEGMENT
__First$ = 8						; size = 4
__Last$ = 12						; size = 4
__Al$ = 16						; size = 4
??$_Destroy_range@V?$allocator@PAVCTextureAnimationCCWDecorator@NEffectUpdateDecorator@@@std@@@std@@YAXPAPAVCTextureAnimationCCWDecorator@NEffectUpdateDecorator@@QAPAV12@AAV?$allocator@PAVCTextureAnimationCCWDecorator@NEffectUpdateDecorator@@@0@@Z PROC ; std::_Destroy_range<std::allocator<NEffectUpdateDecorator::CTextureAnimationCCWDecorator *> >, COMDAT

; 962  :     _Alloc_ptr_t<_Alloc> _First, const _Alloc_ptr_t<_Alloc> _Last, _Alloc& _Al) noexcept {

  00000	55		 push	 ebp
  00001	8b ec		 mov	 ebp, esp

; 963  :     // note that this is an optimization for debug mode codegen; in release mode the BE removes all of this
; 964  :     using _Ty = typename _Alloc::value_type;
; 965  :     if _CONSTEXPR_IF (!conjunction_v<is_trivially_destructible<_Ty>, _Uses_default_destroy<_Alloc, _Ty*>>) {
; 966  :         for (; _First != _Last; ++_First) {
; 967  :             allocator_traits<_Alloc>::destroy(_Al, _Unfancy(_First));
; 968  :         }
; 969  :     }
; 970  : }

  00003	5d		 pop	 ebp
  00004	c3		 ret	 0
??$_Destroy_range@V?$allocator@PAVCTextureAnimationCCWDecorator@NEffectUpdateDecorator@@@std@@@std@@YAXPAPAVCTextureAnimationCCWDecorator@NEffectUpdateDecorator@@QAPAV12@AAV?$allocator@PAVCTextureAnimationCCWDecorator@NEffectUpdateDecorator@@@0@@Z ENDP ; std::_Destroy_range<std::allocator<NEffectUpdateDecorator::CTextureAnimationCCWDecorator *> >
_TEXT	ENDS
; Function compile flags: /Odspy
; File C:\Program Files (x86)\Microsoft Visual Studio\2019\Community\VC\Tools\MSVC\14.28.29333\include\xmemory
;	COMDAT ??$_Destroy_range@V?$allocator@PAVCTextureAnimationCWDecorator@NEffectUpdateDecorator@@@std@@@std@@YAXPAPAVCTextureAnimationCWDecorator@NEffectUpdateDecorator@@QAPAV12@AAV?$allocator@PAVCTextureAnimationCWDecorator@NEffectUpdateDecorator@@@0@@Z
_TEXT	SEGMENT
__First$ = 8						; size = 4
__Last$ = 12						; size = 4
__Al$ = 16						; size = 4
??$_Destroy_range@V?$allocator@PAVCTextureAnimationCWDecorator@NEffectUpdateDecorator@@@std@@@std@@YAXPAPAVCTextureAnimationCWDecorator@NEffectUpdateDecorator@@QAPAV12@AAV?$allocator@PAVCTextureAnimationCWDecorator@NEffectUpdateDecorator@@@0@@Z PROC ; std::_Destroy_range<std::allocator<NEffectUpdateDecorator::CTextureAnimationCWDecorator *> >, COMDAT

; 962  :     _Alloc_ptr_t<_Alloc> _First, const _Alloc_ptr_t<_Alloc> _Last, _Alloc& _Al) noexcept {

  00000	55		 push	 ebp
  00001	8b ec		 mov	 ebp, esp

; 963  :     // note that this is an optimization for debug mode codegen; in release mode the BE removes all of this
; 964  :     using _Ty = typename _Alloc::value_type;
; 965  :     if _CONSTEXPR_IF (!conjunction_v<is_trivially_destructible<_Ty>, _Uses_default_destroy<_Alloc, _Ty*>>) {
; 966  :         for (; _First != _Last; ++_First) {
; 967  :             allocator_traits<_Alloc>::destroy(_Al, _Unfancy(_First));
; 968  :         }
; 969  :     }
; 970  : }

  00003	5d		 pop	 ebp
  00004	c3		 ret	 0
??$_Destroy_range@V?$allocator@PAVCTextureAnimationCWDecorator@NEffectUpdateDecorator@@@std@@@std@@YAXPAPAVCTextureAnimationCWDecorator@NEffectUpdateDecorator@@QAPAV12@AAV?$allocator@PAVCTextureAnimationCWDecorator@NEffectUpdateDecorator@@@0@@Z ENDP ; std::_Destroy_range<std::allocator<NEffectUpdateDecorator::CTextureAnimationCWDecorator *> >
_TEXT	ENDS
; Function compile flags: /Odspy
; File C:\Program Files (x86)\Microsoft Visual Studio\2019\Community\VC\Tools\MSVC\14.28.29333\include\xmemory
;	COMDAT ??$_Destroy_range@V?$allocator@PAVCNullDecorator@NEffectUpdateDecorator@@@std@@@std@@YAXPAPAVCNullDecorator@NEffectUpdateDecorator@@QAPAV12@AAV?$allocator@PAVCNullDecorator@NEffectUpdateDecorator@@@0@@Z
_TEXT	SEGMENT
__First$ = 8						; size = 4
__Last$ = 12						; size = 4
__Al$ = 16						; size = 4
??$_Destroy_range@V?$allocator@PAVCNullDecorator@NEffectUpdateDecorator@@@std@@@std@@YAXPAPAVCNullDecorator@NEffectUpdateDecorator@@QAPAV12@AAV?$allocator@PAVCNullDecorator@NEffectUpdateDecorator@@@0@@Z PROC ; std::_Destroy_range<std::allocator<NEffectUpdateDecorator::CNullDecorator *> >, COMDAT

; 962  :     _Alloc_ptr_t<_Alloc> _First, const _Alloc_ptr_t<_Alloc> _Last, _Alloc& _Al) noexcept {

  00000	55		 push	 ebp
  00001	8b ec		 mov	 ebp, esp

; 963  :     // note that this is an optimization for debug mode codegen; in release mode the BE removes all of this
; 964  :     using _Ty = typename _Alloc::value_type;
; 965  :     if _CONSTEXPR_IF (!conjunction_v<is_trivially_destructible<_Ty>, _Uses_default_destroy<_Alloc, _Ty*>>) {
; 966  :         for (; _First != _Last; ++_First) {
; 967  :             allocator_traits<_Alloc>::destroy(_Al, _Unfancy(_First));
; 968  :         }
; 969  :     }
; 970  : }

  00003	5d		 pop	 ebp
  00004	c3		 ret	 0
??$_Destroy_range@V?$allocator@PAVCNullDecorator@NEffectUpdateDecorator@@@std@@@std@@YAXPAPAVCNullDecorator@NEffectUpdateDecorator@@QAPAV12@AAV?$allocator@PAVCNullDecorator@NEffectUpdateDecorator@@@0@@Z ENDP ; std::_Destroy_range<std::allocator<NEffectUpdateDecorator::CNullDecorator *> >
_TEXT	ENDS
; Function compile flags: /Odspy
; File C:\Program Files (x86)\Microsoft Visual Studio\2019\Community\VC\Tools\MSVC\14.28.29333\include\xmemory
;	COMDAT ??$_Destroy_range@V?$allocator@PAVCHeaderDecorator@NEffectUpdateDecorator@@@std@@@std@@YAXPAPAVCHeaderDecorator@NEffectUpdateDecorator@@QAPAV12@AAV?$allocator@PAVCHeaderDecorator@NEffectUpdateDecorator@@@0@@Z
_TEXT	SEGMENT
__First$ = 8						; size = 4
__Last$ = 12						; size = 4
__Al$ = 16						; size = 4
??$_Destroy_range@V?$allocator@PAVCHeaderDecorator@NEffectUpdateDecorator@@@std@@@std@@YAXPAPAVCHeaderDecorator@NEffectUpdateDecorator@@QAPAV12@AAV?$allocator@PAVCHeaderDecorator@NEffectUpdateDecorator@@@0@@Z PROC ; std::_Destroy_range<std::allocator<NEffectUpdateDecorator::CHeaderDecorator *> >, COMDAT

; 962  :     _Alloc_ptr_t<_Alloc> _First, const _Alloc_ptr_t<_Alloc> _Last, _Alloc& _Al) noexcept {

  00000	55		 push	 ebp
  00001	8b ec		 mov	 ebp, esp

; 963  :     // note that this is an optimization for debug mode codegen; in release mode the BE removes all of this
; 964  :     using _Ty = typename _Alloc::value_type;
; 965  :     if _CONSTEXPR_IF (!conjunction_v<is_trivially_destructible<_Ty>, _Uses_default_destroy<_Alloc, _Ty*>>) {
; 966  :         for (; _First != _Last; ++_First) {
; 967  :             allocator_traits<_Alloc>::destroy(_Al, _Unfancy(_First));
; 968  :         }
; 969  :     }
; 970  : }

  00003	5d		 pop	 ebp
  00004	c3		 ret	 0
??$_Destroy_range@V?$allocator@PAVCHeaderDecorator@NEffectUpdateDecorator@@@std@@@std@@YAXPAPAVCHeaderDecorator@NEffectUpdateDecorator@@QAPAV12@AAV?$allocator@PAVCHeaderDecorator@NEffectUpdateDecorator@@@0@@Z ENDP ; std::_Destroy_range<std::allocator<NEffectUpdateDecorator::CHeaderDecorator *> >
_TEXT	ENDS
; Function compile flags: /Odspy
; File C:\Program Files (x86)\Microsoft Visual Studio\2019\Community\VC\Tools\MSVC\14.28.29333\include\algorithm
; File C:\Program Files (x86)\Microsoft Visual Studio\2019\Community\VC\Tools\MSVC\14.28.29333\include\vector
; File C:\Program Files (x86)\Microsoft Visual Studio\2019\Community\VC\Tools\MSVC\14.28.29333\include\xstddef
; File C:\Program Files (x86)\Microsoft Visual Studio\2019\Community\VC\Tools\MSVC\14.28.29333\include\vector
; File C:\Program Files (x86)\Microsoft Visual Studio\2019\Community\VC\Tools\MSVC\14.28.29333\include\algorithm
; File C:\Program Files (x86)\Microsoft Visual Studio\2019\Community\VC\Tools\MSVC\14.28.29333\include\vector
; File C:\Program Files (x86)\Microsoft Visual Studio\2019\Community\VC\Tools\MSVC\14.28.29333\include\xstddef
; File C:\Program Files (x86)\Microsoft Visual Studio\2019\Community\VC\Tools\MSVC\14.28.29333\include\vector
; File C:\Program Files (x86)\Microsoft Visual Studio\2019\Community\VC\Tools\MSVC\14.28.29333\include\algorithm
;	COMDAT ??$for_each@V?$_Vector_iterator@V?$_Vector_val@U?$_Simple_types@PAVCRotationDecorator@NEffectUpdateDecorator@@@std@@@std@@@std@@P6AXPAVCRotationDecorator@NEffectUpdateDecorator@@@Z@std@@YAP6AXPAVCRotationDecorator@NEffectUpdateDecorator@@@ZV?$_Vector_iterator@V?$_Vector_val@U?$_Simple_types@PAVCRotationDecorator@NEffectUpdateDecorator@@@std@@@std@@@0@1P6AX0@Z@Z
_TEXT	SEGMENT
__ULast$ = -32						; size = 4
$T1 = -28						; size = 4
$T2 = -24						; size = 4
__Ptr$3 = -20						; size = 4
$T4 = -16						; size = 4
$T5 = -12						; size = 4
__Ptr$6 = -8						; size = 4
__UFirst$ = -4						; size = 4
__First$ = 8						; size = 4
__Last$ = 12						; size = 4
__Func$ = 16						; size = 4
??$for_each@V?$_Vector_iterator@V?$_Vector_val@U?$_Simple_types@PAVCRotationDecorator@NEffectUpdateDecorator@@@std@@@std@@@std@@P6AXPAVCRotationDecorator@NEffectUpdateDecorator@@@Z@std@@YAP6AXPAVCRotationDecorator@NEffectUpdateDecorator@@@ZV?$_Vector_iterator@V?$_Vector_val@U?$_Simple_types@PAVCRotationDecorator@NEffectUpdateDecorator@@@std@@@std@@@0@1P6AX0@Z@Z PROC ; std::for_each<std::_Vector_iterator<std::_Vector_val<std::_Simple_types<NEffectUpdateDecorator::CRotationDecorator *> > >,void (__cdecl*)(NEffectUpdateDecorator::CRotationDecorator *)>, COMDAT

; 303  : _CONSTEXPR20 _Fn for_each(_InIt _First, _InIt _Last, _Fn _Func) { // perform function for each element [_First, _Last)

  00000	55		 push	 ebp
  00001	8b ec		 mov	 ebp, esp
  00003	83 ec 20	 sub	 esp, 32			; 00000020H
; File C:\Program Files (x86)\Microsoft Visual Studio\2019\Community\VC\Tools\MSVC\14.28.29333\include\vector

; 310  :         return _Unfancy(this->_Ptr);

  00006	8b 45 08	 mov	 eax, DWORD PTR __First$[ebp]
  00009	89 45 f8	 mov	 DWORD PTR __Ptr$6[ebp], eax
; File C:\Program Files (x86)\Microsoft Visual Studio\2019\Community\VC\Tools\MSVC\14.28.29333\include\xstddef

; 289  :     return _Ptr;

  0000c	8b 45 f8	 mov	 eax, DWORD PTR __Ptr$6[ebp]
  0000f	89 45 f4	 mov	 DWORD PTR $T5[ebp], eax
; File C:\Program Files (x86)\Microsoft Visual Studio\2019\Community\VC\Tools\MSVC\14.28.29333\include\vector

; 310  :         return _Unfancy(this->_Ptr);

  00012	8b 45 f4	 mov	 eax, DWORD PTR $T5[ebp]
  00015	89 45 f0	 mov	 DWORD PTR $T4[ebp], eax
; File C:\Program Files (x86)\Microsoft Visual Studio\2019\Community\VC\Tools\MSVC\14.28.29333\include\algorithm

; 305  :     auto _UFirst      = _Get_unwrapped(_First);

  00018	8b 45 f0	 mov	 eax, DWORD PTR $T4[ebp]
  0001b	89 45 fc	 mov	 DWORD PTR __UFirst$[ebp], eax
; File C:\Program Files (x86)\Microsoft Visual Studio\2019\Community\VC\Tools\MSVC\14.28.29333\include\vector

; 310  :         return _Unfancy(this->_Ptr);

  0001e	8b 45 0c	 mov	 eax, DWORD PTR __Last$[ebp]
  00021	89 45 ec	 mov	 DWORD PTR __Ptr$3[ebp], eax
; File C:\Program Files (x86)\Microsoft Visual Studio\2019\Community\VC\Tools\MSVC\14.28.29333\include\xstddef

; 289  :     return _Ptr;

  00024	8b 45 ec	 mov	 eax, DWORD PTR __Ptr$3[ebp]
  00027	89 45 e8	 mov	 DWORD PTR $T2[ebp], eax
; File C:\Program Files (x86)\Microsoft Visual Studio\2019\Community\VC\Tools\MSVC\14.28.29333\include\vector

; 310  :         return _Unfancy(this->_Ptr);

  0002a	8b 45 e8	 mov	 eax, DWORD PTR $T2[ebp]
  0002d	89 45 e4	 mov	 DWORD PTR $T1[ebp], eax
; File C:\Program Files (x86)\Microsoft Visual Studio\2019\Community\VC\Tools\MSVC\14.28.29333\include\algorithm

; 306  :     const auto _ULast = _Get_unwrapped(_Last);

  00030	8b 45 e4	 mov	 eax, DWORD PTR $T1[ebp]
  00033	89 45 e0	 mov	 DWORD PTR __ULast$[ebp], eax

; 307  :     for (; _UFirst != _ULast; ++_UFirst) {

  00036	eb 09		 jmp	 SHORT $LN4@for_each
$LN2@for_each:
  00038	8b 45 fc	 mov	 eax, DWORD PTR __UFirst$[ebp]
  0003b	83 c0 04	 add	 eax, 4
  0003e	89 45 fc	 mov	 DWORD PTR __UFirst$[ebp], eax
$LN4@for_each:
  00041	8b 45 fc	 mov	 eax, DWORD PTR __UFirst$[ebp]
  00044	3b 45 e0	 cmp	 eax, DWORD PTR __ULast$[ebp]
  00047	74 0b		 je	 SHORT $LN3@for_each

; 308  :         _Func(*_UFirst);

  00049	8b 45 fc	 mov	 eax, DWORD PTR __UFirst$[ebp]
  0004c	ff 30		 push	 DWORD PTR [eax]
  0004e	ff 55 10	 call	 DWORD PTR __Func$[ebp]
  00051	59		 pop	 ecx

; 309  :     }

  00052	eb e4		 jmp	 SHORT $LN2@for_each
$LN3@for_each:

; 310  : 
; 311  :     return _Func;

  00054	8b 45 10	 mov	 eax, DWORD PTR __Func$[ebp]

; 312  : }

  00057	c9		 leave
  00058	c3		 ret	 0
??$for_each@V?$_Vector_iterator@V?$_Vector_val@U?$_Simple_types@PAVCRotationDecorator@NEffectUpdateDecorator@@@std@@@std@@@std@@P6AXPAVCRotationDecorator@NEffectUpdateDecorator@@@Z@std@@YAP6AXPAVCRotationDecorator@NEffectUpdateDecorator@@@ZV?$_Vector_iterator@V?$_Vector_val@U?$_Simple_types@PAVCRotationDecorator@NEffectUpdateDecorator@@@std@@@std@@@0@1P6AX0@Z@Z ENDP ; std::for_each<std::_Vector_iterator<std::_Vector_val<std::_Simple_types<NEffectUpdateDecorator::CRotationDecorator *> > >,void (__cdecl*)(NEffectUpdateDecorator::CRotationDecorator *)>
_TEXT	ENDS
; Function compile flags: /Odspy
; File C:\Program Files (x86)\Microsoft Visual Studio\2019\Community\VC\Tools\MSVC\14.28.29333\include\algorithm
; File C:\Program Files (x86)\Microsoft Visual Studio\2019\Community\VC\Tools\MSVC\14.28.29333\include\vector
; File C:\Program Files (x86)\Microsoft Visual Studio\2019\Community\VC\Tools\MSVC\14.28.29333\include\xstddef
; File C:\Program Files (x86)\Microsoft Visual Studio\2019\Community\VC\Tools\MSVC\14.28.29333\include\vector
; File C:\Program Files (x86)\Microsoft Visual Studio\2019\Community\VC\Tools\MSVC\14.28.29333\include\algorithm
; File C:\Program Files (x86)\Microsoft Visual Studio\2019\Community\VC\Tools\MSVC\14.28.29333\include\vector
; File C:\Program Files (x86)\Microsoft Visual Studio\2019\Community\VC\Tools\MSVC\14.28.29333\include\xstddef
; File C:\Program Files (x86)\Microsoft Visual Studio\2019\Community\VC\Tools\MSVC\14.28.29333\include\vector
; File C:\Program Files (x86)\Microsoft Visual Studio\2019\Community\VC\Tools\MSVC\14.28.29333\include\algorithm
;	COMDAT ??$for_each@V?$_Vector_iterator@V?$_Vector_val@U?$_Simple_types@PAVCGravityDecorator@NEffectUpdateDecorator@@@std@@@std@@@std@@P6AXPAVCGravityDecorator@NEffectUpdateDecorator@@@Z@std@@YAP6AXPAVCGravityDecorator@NEffectUpdateDecorator@@@ZV?$_Vector_iterator@V?$_Vector_val@U?$_Simple_types@PAVCGravityDecorator@NEffectUpdateDecorator@@@std@@@std@@@0@1P6AX0@Z@Z
_TEXT	SEGMENT
__ULast$ = -32						; size = 4
$T1 = -28						; size = 4
$T2 = -24						; size = 4
__Ptr$3 = -20						; size = 4
$T4 = -16						; size = 4
$T5 = -12						; size = 4
__Ptr$6 = -8						; size = 4
__UFirst$ = -4						; size = 4
__First$ = 8						; size = 4
__Last$ = 12						; size = 4
__Func$ = 16						; size = 4
??$for_each@V?$_Vector_iterator@V?$_Vector_val@U?$_Simple_types@PAVCGravityDecorator@NEffectUpdateDecorator@@@std@@@std@@@std@@P6AXPAVCGravityDecorator@NEffectUpdateDecorator@@@Z@std@@YAP6AXPAVCGravityDecorator@NEffectUpdateDecorator@@@ZV?$_Vector_iterator@V?$_Vector_val@U?$_Simple_types@PAVCGravityDecorator@NEffectUpdateDecorator@@@std@@@std@@@0@1P6AX0@Z@Z PROC ; std::for_each<std::_Vector_iterator<std::_Vector_val<std::_Simple_types<NEffectUpdateDecorator::CGravityDecorator *> > >,void (__cdecl*)(NEffectUpdateDecorator::CGravityDecorator *)>, COMDAT

; 303  : _CONSTEXPR20 _Fn for_each(_InIt _First, _InIt _Last, _Fn _Func) { // perform function for each element [_First, _Last)

  00000	55		 push	 ebp
  00001	8b ec		 mov	 ebp, esp
  00003	83 ec 20	 sub	 esp, 32			; 00000020H
; File C:\Program Files (x86)\Microsoft Visual Studio\2019\Community\VC\Tools\MSVC\14.28.29333\include\vector

; 310  :         return _Unfancy(this->_Ptr);

  00006	8b 45 08	 mov	 eax, DWORD PTR __First$[ebp]
  00009	89 45 f8	 mov	 DWORD PTR __Ptr$6[ebp], eax
; File C:\Program Files (x86)\Microsoft Visual Studio\2019\Community\VC\Tools\MSVC\14.28.29333\include\xstddef

; 289  :     return _Ptr;

  0000c	8b 45 f8	 mov	 eax, DWORD PTR __Ptr$6[ebp]
  0000f	89 45 f4	 mov	 DWORD PTR $T5[ebp], eax
; File C:\Program Files (x86)\Microsoft Visual Studio\2019\Community\VC\Tools\MSVC\14.28.29333\include\vector

; 310  :         return _Unfancy(this->_Ptr);

  00012	8b 45 f4	 mov	 eax, DWORD PTR $T5[ebp]
  00015	89 45 f0	 mov	 DWORD PTR $T4[ebp], eax
; File C:\Program Files (x86)\Microsoft Visual Studio\2019\Community\VC\Tools\MSVC\14.28.29333\include\algorithm

; 305  :     auto _UFirst      = _Get_unwrapped(_First);

  00018	8b 45 f0	 mov	 eax, DWORD PTR $T4[ebp]
  0001b	89 45 fc	 mov	 DWORD PTR __UFirst$[ebp], eax
; File C:\Program Files (x86)\Microsoft Visual Studio\2019\Community\VC\Tools\MSVC\14.28.29333\include\vector

; 310  :         return _Unfancy(this->_Ptr);

  0001e	8b 45 0c	 mov	 eax, DWORD PTR __Last$[ebp]
  00021	89 45 ec	 mov	 DWORD PTR __Ptr$3[ebp], eax
; File C:\Program Files (x86)\Microsoft Visual Studio\2019\Community\VC\Tools\MSVC\14.28.29333\include\xstddef

; 289  :     return _Ptr;

  00024	8b 45 ec	 mov	 eax, DWORD PTR __Ptr$3[ebp]
  00027	89 45 e8	 mov	 DWORD PTR $T2[ebp], eax
; File C:\Program Files (x86)\Microsoft Visual Studio\2019\Community\VC\Tools\MSVC\14.28.29333\include\vector

; 310  :         return _Unfancy(this->_Ptr);

  0002a	8b 45 e8	 mov	 eax, DWORD PTR $T2[ebp]
  0002d	89 45 e4	 mov	 DWORD PTR $T1[ebp], eax
; File C:\Program Files (x86)\Microsoft Visual Studio\2019\Community\VC\Tools\MSVC\14.28.29333\include\algorithm

; 306  :     const auto _ULast = _Get_unwrapped(_Last);

  00030	8b 45 e4	 mov	 eax, DWORD PTR $T1[ebp]
  00033	89 45 e0	 mov	 DWORD PTR __ULast$[ebp], eax

; 307  :     for (; _UFirst != _ULast; ++_UFirst) {

  00036	eb 09		 jmp	 SHORT $LN4@for_each
$LN2@for_each:
  00038	8b 45 fc	 mov	 eax, DWORD PTR __UFirst$[ebp]
  0003b	83 c0 04	 add	 eax, 4
  0003e	89 45 fc	 mov	 DWORD PTR __UFirst$[ebp], eax
$LN4@for_each:
  00041	8b 45 fc	 mov	 eax, DWORD PTR __UFirst$[ebp]
  00044	3b 45 e0	 cmp	 eax, DWORD PTR __ULast$[ebp]
  00047	74 0b		 je	 SHORT $LN3@for_each

; 308  :         _Func(*_UFirst);

  00049	8b 45 fc	 mov	 eax, DWORD PTR __UFirst$[ebp]
  0004c	ff 30		 push	 DWORD PTR [eax]
  0004e	ff 55 10	 call	 DWORD PTR __Func$[ebp]
  00051	59		 pop	 ecx

; 309  :     }

  00052	eb e4		 jmp	 SHORT $LN2@for_each
$LN3@for_each:

; 310  : 
; 311  :     return _Func;

  00054	8b 45 10	 mov	 eax, DWORD PTR __Func$[ebp]

; 312  : }

  00057	c9		 leave
  00058	c3		 ret	 0
??$for_each@V?$_Vector_iterator@V?$_Vector_val@U?$_Simple_types@PAVCGravityDecorator@NEffectUpdateDecorator@@@std@@@std@@@std@@P6AXPAVCGravityDecorator@NEffectUpdateDecorator@@@Z@std@@YAP6AXPAVCGravityDecorator@NEffectUpdateDecorator@@@ZV?$_Vector_iterator@V?$_Vector_val@U?$_Simple_types@PAVCGravityDecorator@NEffectUpdateDecorator@@@std@@@std@@@0@1P6AX0@Z@Z ENDP ; std::for_each<std::_Vector_iterator<std::_Vector_val<std::_Simple_types<NEffectUpdateDecorator::CGravityDecorator *> > >,void (__cdecl*)(NEffectUpdateDecorator::CGravityDecorator *)>
_TEXT	ENDS
; Function compile flags: /Odspy
; File C:\Program Files (x86)\Microsoft Visual Studio\2019\Community\VC\Tools\MSVC\14.28.29333\include\algorithm
; File C:\Program Files (x86)\Microsoft Visual Studio\2019\Community\VC\Tools\MSVC\14.28.29333\include\vector
; File C:\Program Files (x86)\Microsoft Visual Studio\2019\Community\VC\Tools\MSVC\14.28.29333\include\xstddef
; File C:\Program Files (x86)\Microsoft Visual Studio\2019\Community\VC\Tools\MSVC\14.28.29333\include\vector
; File C:\Program Files (x86)\Microsoft Visual Studio\2019\Community\VC\Tools\MSVC\14.28.29333\include\algorithm
; File C:\Program Files (x86)\Microsoft Visual Studio\2019\Community\VC\Tools\MSVC\14.28.29333\include\vector
; File C:\Program Files (x86)\Microsoft Visual Studio\2019\Community\VC\Tools\MSVC\14.28.29333\include\xstddef
; File C:\Program Files (x86)\Microsoft Visual Studio\2019\Community\VC\Tools\MSVC\14.28.29333\include\vector
; File C:\Program Files (x86)\Microsoft Visual Studio\2019\Community\VC\Tools\MSVC\14.28.29333\include\algorithm
;	COMDAT ??$for_each@V?$_Vector_iterator@V?$_Vector_val@U?$_Simple_types@PAVCAirResistanceDecorator@NEffectUpdateDecorator@@@std@@@std@@@std@@P6AXPAVCAirResistanceDecorator@NEffectUpdateDecorator@@@Z@std@@YAP6AXPAVCAirResistanceDecorator@NEffectUpdateDecorator@@@ZV?$_Vector_iterator@V?$_Vector_val@U?$_Simple_types@PAVCAirResistanceDecorator@NEffectUpdateDecorator@@@std@@@std@@@0@1P6AX0@Z@Z
_TEXT	SEGMENT
__ULast$ = -32						; size = 4
$T1 = -28						; size = 4
$T2 = -24						; size = 4
__Ptr$3 = -20						; size = 4
$T4 = -16						; size = 4
$T5 = -12						; size = 4
__Ptr$6 = -8						; size = 4
__UFirst$ = -4						; size = 4
__First$ = 8						; size = 4
__Last$ = 12						; size = 4
__Func$ = 16						; size = 4
??$for_each@V?$_Vector_iterator@V?$_Vector_val@U?$_Simple_types@PAVCAirResistanceDecorator@NEffectUpdateDecorator@@@std@@@std@@@std@@P6AXPAVCAirResistanceDecorator@NEffectUpdateDecorator@@@Z@std@@YAP6AXPAVCAirResistanceDecorator@NEffectUpdateDecorator@@@ZV?$_Vector_iterator@V?$_Vector_val@U?$_Simple_types@PAVCAirResistanceDecorator@NEffectUpdateDecorator@@@std@@@std@@@0@1P6AX0@Z@Z PROC ; std::for_each<std::_Vector_iterator<std::_Vector_val<std::_Simple_types<NEffectUpdateDecorator::CAirResistanceDecorator *> > >,void (__cdecl*)(NEffectUpdateDecorator::CAirResistanceDecorator *)>, COMDAT

; 303  : _CONSTEXPR20 _Fn for_each(_InIt _First, _InIt _Last, _Fn _Func) { // perform function for each element [_First, _Last)

  00000	55		 push	 ebp
  00001	8b ec		 mov	 ebp, esp
  00003	83 ec 20	 sub	 esp, 32			; 00000020H
; File C:\Program Files (x86)\Microsoft Visual Studio\2019\Community\VC\Tools\MSVC\14.28.29333\include\vector

; 310  :         return _Unfancy(this->_Ptr);

  00006	8b 45 08	 mov	 eax, DWORD PTR __First$[ebp]
  00009	89 45 f8	 mov	 DWORD PTR __Ptr$6[ebp], eax
; File C:\Program Files (x86)\Microsoft Visual Studio\2019\Community\VC\Tools\MSVC\14.28.29333\include\xstddef

; 289  :     return _Ptr;

  0000c	8b 45 f8	 mov	 eax, DWORD PTR __Ptr$6[ebp]
  0000f	89 45 f4	 mov	 DWORD PTR $T5[ebp], eax
; File C:\Program Files (x86)\Microsoft Visual Studio\2019\Community\VC\Tools\MSVC\14.28.29333\include\vector

; 310  :         return _Unfancy(this->_Ptr);

  00012	8b 45 f4	 mov	 eax, DWORD PTR $T5[ebp]
  00015	89 45 f0	 mov	 DWORD PTR $T4[ebp], eax
; File C:\Program Files (x86)\Microsoft Visual Studio\2019\Community\VC\Tools\MSVC\14.28.29333\include\algorithm

; 305  :     auto _UFirst      = _Get_unwrapped(_First);

  00018	8b 45 f0	 mov	 eax, DWORD PTR $T4[ebp]
  0001b	89 45 fc	 mov	 DWORD PTR __UFirst$[ebp], eax
; File C:\Program Files (x86)\Microsoft Visual Studio\2019\Community\VC\Tools\MSVC\14.28.29333\include\vector

; 310  :         return _Unfancy(this->_Ptr);

  0001e	8b 45 0c	 mov	 eax, DWORD PTR __Last$[ebp]
  00021	89 45 ec	 mov	 DWORD PTR __Ptr$3[ebp], eax
; File C:\Program Files (x86)\Microsoft Visual Studio\2019\Community\VC\Tools\MSVC\14.28.29333\include\xstddef

; 289  :     return _Ptr;

  00024	8b 45 ec	 mov	 eax, DWORD PTR __Ptr$3[ebp]
  00027	89 45 e8	 mov	 DWORD PTR $T2[ebp], eax
; File C:\Program Files (x86)\Microsoft Visual Studio\2019\Community\VC\Tools\MSVC\14.28.29333\include\vector

; 310  :         return _Unfancy(this->_Ptr);

  0002a	8b 45 e8	 mov	 eax, DWORD PTR $T2[ebp]
  0002d	89 45 e4	 mov	 DWORD PTR $T1[ebp], eax
; File C:\Program Files (x86)\Microsoft Visual Studio\2019\Community\VC\Tools\MSVC\14.28.29333\include\algorithm

; 306  :     const auto _ULast = _Get_unwrapped(_Last);

  00030	8b 45 e4	 mov	 eax, DWORD PTR $T1[ebp]
  00033	89 45 e0	 mov	 DWORD PTR __ULast$[ebp], eax

; 307  :     for (; _UFirst != _ULast; ++_UFirst) {

  00036	eb 09		 jmp	 SHORT $LN4@for_each
$LN2@for_each:
  00038	8b 45 fc	 mov	 eax, DWORD PTR __UFirst$[ebp]
  0003b	83 c0 04	 add	 eax, 4
  0003e	89 45 fc	 mov	 DWORD PTR __UFirst$[ebp], eax
$LN4@for_each:
  00041	8b 45 fc	 mov	 eax, DWORD PTR __UFirst$[ebp]
  00044	3b 45 e0	 cmp	 eax, DWORD PTR __ULast$[ebp]
  00047	74 0b		 je	 SHORT $LN3@for_each

; 308  :         _Func(*_UFirst);

  00049	8b 45 fc	 mov	 eax, DWORD PTR __UFirst$[ebp]
  0004c	ff 30		 push	 DWORD PTR [eax]
  0004e	ff 55 10	 call	 DWORD PTR __Func$[ebp]
  00051	59		 pop	 ecx

; 309  :     }

  00052	eb e4		 jmp	 SHORT $LN2@for_each
$LN3@for_each:

; 310  : 
; 311  :     return _Func;

  00054	8b 45 10	 mov	 eax, DWORD PTR __Func$[ebp]

; 312  : }

  00057	c9		 leave
  00058	c3		 ret	 0
??$for_each@V?$_Vector_iterator@V?$_Vector_val@U?$_Simple_types@PAVCAirResistanceDecorator@NEffectUpdateDecorator@@@std@@@std@@@std@@P6AXPAVCAirResistanceDecorator@NEffectUpdateDecorator@@@Z@std@@YAP6AXPAVCAirResistanceDecorator@NEffectUpdateDecorator@@@ZV?$_Vector_iterator@V?$_Vector_val@U?$_Simple_types@PAVCAirResistanceDecorator@NEffectUpdateDecorator@@@std@@@std@@@0@1P6AX0@Z@Z ENDP ; std::for_each<std::_Vector_iterator<std::_Vector_val<std::_Simple_types<NEffectUpdateDecorator::CAirResistanceDecorator *> > >,void (__cdecl*)(NEffectUpdateDecorator::CAirResistanceDecorator *)>
_TEXT	ENDS
; Function compile flags: /Odspy
; File C:\Program Files (x86)\Microsoft Visual Studio\2019\Community\VC\Tools\MSVC\14.28.29333\include\algorithm
; File C:\Program Files (x86)\Microsoft Visual Studio\2019\Community\VC\Tools\MSVC\14.28.29333\include\vector
; File C:\Program Files (x86)\Microsoft Visual Studio\2019\Community\VC\Tools\MSVC\14.28.29333\include\xstddef
; File C:\Program Files (x86)\Microsoft Visual Studio\2019\Community\VC\Tools\MSVC\14.28.29333\include\vector
; File C:\Program Files (x86)\Microsoft Visual Studio\2019\Community\VC\Tools\MSVC\14.28.29333\include\algorithm
; File C:\Program Files (x86)\Microsoft Visual Studio\2019\Community\VC\Tools\MSVC\14.28.29333\include\vector
; File C:\Program Files (x86)\Microsoft Visual Studio\2019\Community\VC\Tools\MSVC\14.28.29333\include\xstddef
; File C:\Program Files (x86)\Microsoft Visual Studio\2019\Community\VC\Tools\MSVC\14.28.29333\include\vector
; File C:\Program Files (x86)\Microsoft Visual Studio\2019\Community\VC\Tools\MSVC\14.28.29333\include\algorithm
;	COMDAT ??$for_each@V?$_Vector_iterator@V?$_Vector_val@U?$_Simple_types@PAVCTextureAnimationRandomDecorator@NEffectUpdateDecorator@@@std@@@std@@@std@@P6AXPAVCTextureAnimationRandomDecorator@NEffectUpdateDecorator@@@Z@std@@YAP6AXPAVCTextureAnimationRandomDecorator@NEffectUpdateDecorator@@@ZV?$_Vector_iterator@V?$_Vector_val@U?$_Simple_types@PAVCTextureAnimationRandomDecorator@NEffectUpdateDecorator@@@std@@@std@@@0@1P6AX0@Z@Z
_TEXT	SEGMENT
__ULast$ = -32						; size = 4
$T1 = -28						; size = 4
$T2 = -24						; size = 4
__Ptr$3 = -20						; size = 4
$T4 = -16						; size = 4
$T5 = -12						; size = 4
__Ptr$6 = -8						; size = 4
__UFirst$ = -4						; size = 4
__First$ = 8						; size = 4
__Last$ = 12						; size = 4
__Func$ = 16						; size = 4
??$for_each@V?$_Vector_iterator@V?$_Vector_val@U?$_Simple_types@PAVCTextureAnimationRandomDecorator@NEffectUpdateDecorator@@@std@@@std@@@std@@P6AXPAVCTextureAnimationRandomDecorator@NEffectUpdateDecorator@@@Z@std@@YAP6AXPAVCTextureAnimationRandomDecorator@NEffectUpdateDecorator@@@ZV?$_Vector_iterator@V?$_Vector_val@U?$_Simple_types@PAVCTextureAnimationRandomDecorator@NEffectUpdateDecorator@@@std@@@std@@@0@1P6AX0@Z@Z PROC ; std::for_each<std::_Vector_iterator<std::_Vector_val<std::_Simple_types<NEffectUpdateDecorator::CTextureAnimationRandomDecorator *> > >,void (__cdecl*)(NEffectUpdateDecorator::CTextureAnimationRandomDecorator *)>, COMDAT

; 303  : _CONSTEXPR20 _Fn for_each(_InIt _First, _InIt _Last, _Fn _Func) { // perform function for each element [_First, _Last)

  00000	55		 push	 ebp
  00001	8b ec		 mov	 ebp, esp
  00003	83 ec 20	 sub	 esp, 32			; 00000020H
; File C:\Program Files (x86)\Microsoft Visual Studio\2019\Community\VC\Tools\MSVC\14.28.29333\include\vector

; 310  :         return _Unfancy(this->_Ptr);

  00006	8b 45 08	 mov	 eax, DWORD PTR __First$[ebp]
  00009	89 45 f8	 mov	 DWORD PTR __Ptr$6[ebp], eax
; File C:\Program Files (x86)\Microsoft Visual Studio\2019\Community\VC\Tools\MSVC\14.28.29333\include\xstddef

; 289  :     return _Ptr;

  0000c	8b 45 f8	 mov	 eax, DWORD PTR __Ptr$6[ebp]
  0000f	89 45 f4	 mov	 DWORD PTR $T5[ebp], eax
; File C:\Program Files (x86)\Microsoft Visual Studio\2019\Community\VC\Tools\MSVC\14.28.29333\include\vector

; 310  :         return _Unfancy(this->_Ptr);

  00012	8b 45 f4	 mov	 eax, DWORD PTR $T5[ebp]
  00015	89 45 f0	 mov	 DWORD PTR $T4[ebp], eax
; File C:\Program Files (x86)\Microsoft Visual Studio\2019\Community\VC\Tools\MSVC\14.28.29333\include\algorithm

; 305  :     auto _UFirst      = _Get_unwrapped(_First);

  00018	8b 45 f0	 mov	 eax, DWORD PTR $T4[ebp]
  0001b	89 45 fc	 mov	 DWORD PTR __UFirst$[ebp], eax
; File C:\Program Files (x86)\Microsoft Visual Studio\2019\Community\VC\Tools\MSVC\14.28.29333\include\vector

; 310  :         return _Unfancy(this->_Ptr);

  0001e	8b 45 0c	 mov	 eax, DWORD PTR __Last$[ebp]
  00021	89 45 ec	 mov	 DWORD PTR __Ptr$3[ebp], eax
; File C:\Program Files (x86)\Microsoft Visual Studio\2019\Community\VC\Tools\MSVC\14.28.29333\include\xstddef

; 289  :     return _Ptr;

  00024	8b 45 ec	 mov	 eax, DWORD PTR __Ptr$3[ebp]
  00027	89 45 e8	 mov	 DWORD PTR $T2[ebp], eax
; File C:\Program Files (x86)\Microsoft Visual Studio\2019\Community\VC\Tools\MSVC\14.28.29333\include\vector

; 310  :         return _Unfancy(this->_Ptr);

  0002a	8b 45 e8	 mov	 eax, DWORD PTR $T2[ebp]
  0002d	89 45 e4	 mov	 DWORD PTR $T1[ebp], eax
; File C:\Program Files (x86)\Microsoft Visual Studio\2019\Community\VC\Tools\MSVC\14.28.29333\include\algorithm

; 306  :     const auto _ULast = _Get_unwrapped(_Last);

  00030	8b 45 e4	 mov	 eax, DWORD PTR $T1[ebp]
  00033	89 45 e0	 mov	 DWORD PTR __ULast$[ebp], eax

; 307  :     for (; _UFirst != _ULast; ++_UFirst) {

  00036	eb 09		 jmp	 SHORT $LN4@for_each
$LN2@for_each:
  00038	8b 45 fc	 mov	 eax, DWORD PTR __UFirst$[ebp]
  0003b	83 c0 04	 add	 eax, 4
  0003e	89 45 fc	 mov	 DWORD PTR __UFirst$[ebp], eax
$LN4@for_each:
  00041	8b 45 fc	 mov	 eax, DWORD PTR __UFirst$[ebp]
  00044	3b 45 e0	 cmp	 eax, DWORD PTR __ULast$[ebp]
  00047	74 0b		 je	 SHORT $LN3@for_each

; 308  :         _Func(*_UFirst);

  00049	8b 45 fc	 mov	 eax, DWORD PTR __UFirst$[ebp]
  0004c	ff 30		 push	 DWORD PTR [eax]
  0004e	ff 55 10	 call	 DWORD PTR __Func$[ebp]
  00051	59		 pop	 ecx

; 309  :     }

  00052	eb e4		 jmp	 SHORT $LN2@for_each
$LN3@for_each:

; 310  : 
; 311  :     return _Func;

  00054	8b 45 10	 mov	 eax, DWORD PTR __Func$[ebp]

; 312  : }

  00057	c9		 leave
  00058	c3		 ret	 0
??$for_each@V?$_Vector_iterator@V?$_Vector_val@U?$_Simple_types@PAVCTextureAnimationRandomDecorator@NEffectUpdateDecorator@@@std@@@std@@@std@@P6AXPAVCTextureAnimationRandomDecorator@NEffectUpdateDecorator@@@Z@std@@YAP6AXPAVCTextureAnimationRandomDecorator@NEffectUpdateDecorator@@@ZV?$_Vector_iterator@V?$_Vector_val@U?$_Simple_types@PAVCTextureAnimationRandomDecorator@NEffectUpdateDecorator@@@std@@@std@@@0@1P6AX0@Z@Z ENDP ; std::for_each<std::_Vector_iterator<std::_Vector_val<std::_Simple_types<NEffectUpdateDecorator::CTextureAnimationRandomDecorator *> > >,void (__cdecl*)(NEffectUpdateDecorator::CTextureAnimationRandomDecorator *)>
_TEXT	ENDS
; Function compile flags: /Odspy
; File C:\Program Files (x86)\Microsoft Visual Studio\2019\Community\VC\Tools\MSVC\14.28.29333\include\algorithm
; File C:\Program Files (x86)\Microsoft Visual Studio\2019\Community\VC\Tools\MSVC\14.28.29333\include\vector
; File C:\Program Files (x86)\Microsoft Visual Studio\2019\Community\VC\Tools\MSVC\14.28.29333\include\xstddef
; File C:\Program Files (x86)\Microsoft Visual Studio\2019\Community\VC\Tools\MSVC\14.28.29333\include\vector
; File C:\Program Files (x86)\Microsoft Visual Studio\2019\Community\VC\Tools\MSVC\14.28.29333\include\algorithm
; File C:\Program Files (x86)\Microsoft Visual Studio\2019\Community\VC\Tools\MSVC\14.28.29333\include\vector
; File C:\Program Files (x86)\Microsoft Visual Studio\2019\Community\VC\Tools\MSVC\14.28.29333\include\xstddef
; File C:\Program Files (x86)\Microsoft Visual Studio\2019\Community\VC\Tools\MSVC\14.28.29333\include\vector
; File C:\Program Files (x86)\Microsoft Visual Studio\2019\Community\VC\Tools\MSVC\14.28.29333\include\algorithm
;	COMDAT ??$for_each@V?$_Vector_iterator@V?$_Vector_val@U?$_Simple_types@PAVCTextureAnimationCCWDecorator@NEffectUpdateDecorator@@@std@@@std@@@std@@P6AXPAVCTextureAnimationCCWDecorator@NEffectUpdateDecorator@@@Z@std@@YAP6AXPAVCTextureAnimationCCWDecorator@NEffectUpdateDecorator@@@ZV?$_Vector_iterator@V?$_Vector_val@U?$_Simple_types@PAVCTextureAnimationCCWDecorator@NEffectUpdateDecorator@@@std@@@std@@@0@1P6AX0@Z@Z
_TEXT	SEGMENT
__ULast$ = -32						; size = 4
$T1 = -28						; size = 4
$T2 = -24						; size = 4
__Ptr$3 = -20						; size = 4
$T4 = -16						; size = 4
$T5 = -12						; size = 4
__Ptr$6 = -8						; size = 4
__UFirst$ = -4						; size = 4
__First$ = 8						; size = 4
__Last$ = 12						; size = 4
__Func$ = 16						; size = 4
??$for_each@V?$_Vector_iterator@V?$_Vector_val@U?$_Simple_types@PAVCTextureAnimationCCWDecorator@NEffectUpdateDecorator@@@std@@@std@@@std@@P6AXPAVCTextureAnimationCCWDecorator@NEffectUpdateDecorator@@@Z@std@@YAP6AXPAVCTextureAnimationCCWDecorator@NEffectUpdateDecorator@@@ZV?$_Vector_iterator@V?$_Vector_val@U?$_Simple_types@PAVCTextureAnimationCCWDecorator@NEffectUpdateDecorator@@@std@@@std@@@0@1P6AX0@Z@Z PROC ; std::for_each<std::_Vector_iterator<std::_Vector_val<std::_Simple_types<NEffectUpdateDecorator::CTextureAnimationCCWDecorator *> > >,void (__cdecl*)(NEffectUpdateDecorator::CTextureAnimationCCWDecorator *)>, COMDAT

; 303  : _CONSTEXPR20 _Fn for_each(_InIt _First, _InIt _Last, _Fn _Func) { // perform function for each element [_First, _Last)

  00000	55		 push	 ebp
  00001	8b ec		 mov	 ebp, esp
  00003	83 ec 20	 sub	 esp, 32			; 00000020H
; File C:\Program Files (x86)\Microsoft Visual Studio\2019\Community\VC\Tools\MSVC\14.28.29333\include\vector

; 310  :         return _Unfancy(this->_Ptr);

  00006	8b 45 08	 mov	 eax, DWORD PTR __First$[ebp]
  00009	89 45 f8	 mov	 DWORD PTR __Ptr$6[ebp], eax
; File C:\Program Files (x86)\Microsoft Visual Studio\2019\Community\VC\Tools\MSVC\14.28.29333\include\xstddef

; 289  :     return _Ptr;

  0000c	8b 45 f8	 mov	 eax, DWORD PTR __Ptr$6[ebp]
  0000f	89 45 f4	 mov	 DWORD PTR $T5[ebp], eax
; File C:\Program Files (x86)\Microsoft Visual Studio\2019\Community\VC\Tools\MSVC\14.28.29333\include\vector

; 310  :         return _Unfancy(this->_Ptr);

  00012	8b 45 f4	 mov	 eax, DWORD PTR $T5[ebp]
  00015	89 45 f0	 mov	 DWORD PTR $T4[ebp], eax
; File C:\Program Files (x86)\Microsoft Visual Studio\2019\Community\VC\Tools\MSVC\14.28.29333\include\algorithm

; 305  :     auto _UFirst      = _Get_unwrapped(_First);

  00018	8b 45 f0	 mov	 eax, DWORD PTR $T4[ebp]
  0001b	89 45 fc	 mov	 DWORD PTR __UFirst$[ebp], eax
; File C:\Program Files (x86)\Microsoft Visual Studio\2019\Community\VC\Tools\MSVC\14.28.29333\include\vector

; 310  :         return _Unfancy(this->_Ptr);

  0001e	8b 45 0c	 mov	 eax, DWORD PTR __Last$[ebp]
  00021	89 45 ec	 mov	 DWORD PTR __Ptr$3[ebp], eax
; File C:\Program Files (x86)\Microsoft Visual Studio\2019\Community\VC\Tools\MSVC\14.28.29333\include\xstddef

; 289  :     return _Ptr;

  00024	8b 45 ec	 mov	 eax, DWORD PTR __Ptr$3[ebp]
  00027	89 45 e8	 mov	 DWORD PTR $T2[ebp], eax
; File C:\Program Files (x86)\Microsoft Visual Studio\2019\Community\VC\Tools\MSVC\14.28.29333\include\vector

; 310  :         return _Unfancy(this->_Ptr);

  0002a	8b 45 e8	 mov	 eax, DWORD PTR $T2[ebp]
  0002d	89 45 e4	 mov	 DWORD PTR $T1[ebp], eax
; File C:\Program Files (x86)\Microsoft Visual Studio\2019\Community\VC\Tools\MSVC\14.28.29333\include\algorithm

; 306  :     const auto _ULast = _Get_unwrapped(_Last);

  00030	8b 45 e4	 mov	 eax, DWORD PTR $T1[ebp]
  00033	89 45 e0	 mov	 DWORD PTR __ULast$[ebp], eax

; 307  :     for (; _UFirst != _ULast; ++_UFirst) {

  00036	eb 09		 jmp	 SHORT $LN4@for_each
$LN2@for_each:
  00038	8b 45 fc	 mov	 eax, DWORD PTR __UFirst$[ebp]
  0003b	83 c0 04	 add	 eax, 4
  0003e	89 45 fc	 mov	 DWORD PTR __UFirst$[ebp], eax
$LN4@for_each:
  00041	8b 45 fc	 mov	 eax, DWORD PTR __UFirst$[ebp]
  00044	3b 45 e0	 cmp	 eax, DWORD PTR __ULast$[ebp]
  00047	74 0b		 je	 SHORT $LN3@for_each

; 308  :         _Func(*_UFirst);

  00049	8b 45 fc	 mov	 eax, DWORD PTR __UFirst$[ebp]
  0004c	ff 30		 push	 DWORD PTR [eax]
  0004e	ff 55 10	 call	 DWORD PTR __Func$[ebp]
  00051	59		 pop	 ecx

; 309  :     }

  00052	eb e4		 jmp	 SHORT $LN2@for_each
$LN3@for_each:

; 310  : 
; 311  :     return _Func;

  00054	8b 45 10	 mov	 eax, DWORD PTR __Func$[ebp]

; 312  : }

  00057	c9		 leave
  00058	c3		 ret	 0
??$for_each@V?$_Vector_iterator@V?$_Vector_val@U?$_Simple_types@PAVCTextureAnimationCCWDecorator@NEffectUpdateDecorator@@@std@@@std@@@std@@P6AXPAVCTextureAnimationCCWDecorator@NEffectUpdateDecorator@@@Z@std@@YAP6AXPAVCTextureAnimationCCWDecorator@NEffectUpdateDecorator@@@ZV?$_Vector_iterator@V?$_Vector_val@U?$_Simple_types@PAVCTextureAnimationCCWDecorator@NEffectUpdateDecorator@@@std@@@std@@@0@1P6AX0@Z@Z ENDP ; std::for_each<std::_Vector_iterator<std::_Vector_val<std::_Simple_types<NEffectUpdateDecorator::CTextureAnimationCCWDecorator *> > >,void (__cdecl*)(NEffectUpdateDecorator::CTextureAnimationCCWDecorator *)>
_TEXT	ENDS
; Function compile flags: /Odspy
; File C:\Program Files (x86)\Microsoft Visual Studio\2019\Community\VC\Tools\MSVC\14.28.29333\include\algorithm
; File C:\Program Files (x86)\Microsoft Visual Studio\2019\Community\VC\Tools\MSVC\14.28.29333\include\vector
; File C:\Program Files (x86)\Microsoft Visual Studio\2019\Community\VC\Tools\MSVC\14.28.29333\include\xstddef
; File C:\Program Files (x86)\Microsoft Visual Studio\2019\Community\VC\Tools\MSVC\14.28.29333\include\vector
; File C:\Program Files (x86)\Microsoft Visual Studio\2019\Community\VC\Tools\MSVC\14.28.29333\include\algorithm
; File C:\Program Files (x86)\Microsoft Visual Studio\2019\Community\VC\Tools\MSVC\14.28.29333\include\vector
; File C:\Program Files (x86)\Microsoft Visual Studio\2019\Community\VC\Tools\MSVC\14.28.29333\include\xstddef
; File C:\Program Files (x86)\Microsoft Visual Studio\2019\Community\VC\Tools\MSVC\14.28.29333\include\vector
; File C:\Program Files (x86)\Microsoft Visual Studio\2019\Community\VC\Tools\MSVC\14.28.29333\include\algorithm
;	COMDAT ??$for_each@V?$_Vector_iterator@V?$_Vector_val@U?$_Simple_types@PAVCTextureAnimationCWDecorator@NEffectUpdateDecorator@@@std@@@std@@@std@@P6AXPAVCTextureAnimationCWDecorator@NEffectUpdateDecorator@@@Z@std@@YAP6AXPAVCTextureAnimationCWDecorator@NEffectUpdateDecorator@@@ZV?$_Vector_iterator@V?$_Vector_val@U?$_Simple_types@PAVCTextureAnimationCWDecorator@NEffectUpdateDecorator@@@std@@@std@@@0@1P6AX0@Z@Z
_TEXT	SEGMENT
__ULast$ = -32						; size = 4
$T1 = -28						; size = 4
$T2 = -24						; size = 4
__Ptr$3 = -20						; size = 4
$T4 = -16						; size = 4
$T5 = -12						; size = 4
__Ptr$6 = -8						; size = 4
__UFirst$ = -4						; size = 4
__First$ = 8						; size = 4
__Last$ = 12						; size = 4
__Func$ = 16						; size = 4
??$for_each@V?$_Vector_iterator@V?$_Vector_val@U?$_Simple_types@PAVCTextureAnimationCWDecorator@NEffectUpdateDecorator@@@std@@@std@@@std@@P6AXPAVCTextureAnimationCWDecorator@NEffectUpdateDecorator@@@Z@std@@YAP6AXPAVCTextureAnimationCWDecorator@NEffectUpdateDecorator@@@ZV?$_Vector_iterator@V?$_Vector_val@U?$_Simple_types@PAVCTextureAnimationCWDecorator@NEffectUpdateDecorator@@@std@@@std@@@0@1P6AX0@Z@Z PROC ; std::for_each<std::_Vector_iterator<std::_Vector_val<std::_Simple_types<NEffectUpdateDecorator::CTextureAnimationCWDecorator *> > >,void (__cdecl*)(NEffectUpdateDecorator::CTextureAnimationCWDecorator *)>, COMDAT

; 303  : _CONSTEXPR20 _Fn for_each(_InIt _First, _InIt _Last, _Fn _Func) { // perform function for each element [_First, _Last)

  00000	55		 push	 ebp
  00001	8b ec		 mov	 ebp, esp
  00003	83 ec 20	 sub	 esp, 32			; 00000020H
; File C:\Program Files (x86)\Microsoft Visual Studio\2019\Community\VC\Tools\MSVC\14.28.29333\include\vector

; 310  :         return _Unfancy(this->_Ptr);

  00006	8b 45 08	 mov	 eax, DWORD PTR __First$[ebp]
  00009	89 45 f8	 mov	 DWORD PTR __Ptr$6[ebp], eax
; File C:\Program Files (x86)\Microsoft Visual Studio\2019\Community\VC\Tools\MSVC\14.28.29333\include\xstddef

; 289  :     return _Ptr;

  0000c	8b 45 f8	 mov	 eax, DWORD PTR __Ptr$6[ebp]
  0000f	89 45 f4	 mov	 DWORD PTR $T5[ebp], eax
; File C:\Program Files (x86)\Microsoft Visual Studio\2019\Community\VC\Tools\MSVC\14.28.29333\include\vector

; 310  :         return _Unfancy(this->_Ptr);

  00012	8b 45 f4	 mov	 eax, DWORD PTR $T5[ebp]
  00015	89 45 f0	 mov	 DWORD PTR $T4[ebp], eax
; File C:\Program Files (x86)\Microsoft Visual Studio\2019\Community\VC\Tools\MSVC\14.28.29333\include\algorithm

; 305  :     auto _UFirst      = _Get_unwrapped(_First);

  00018	8b 45 f0	 mov	 eax, DWORD PTR $T4[ebp]
  0001b	89 45 fc	 mov	 DWORD PTR __UFirst$[ebp], eax
; File C:\Program Files (x86)\Microsoft Visual Studio\2019\Community\VC\Tools\MSVC\14.28.29333\include\vector

; 310  :         return _Unfancy(this->_Ptr);

  0001e	8b 45 0c	 mov	 eax, DWORD PTR __Last$[ebp]
  00021	89 45 ec	 mov	 DWORD PTR __Ptr$3[ebp], eax
; File C:\Program Files (x86)\Microsoft Visual Studio\2019\Community\VC\Tools\MSVC\14.28.29333\include\xstddef

; 289  :     return _Ptr;

  00024	8b 45 ec	 mov	 eax, DWORD PTR __Ptr$3[ebp]
  00027	89 45 e8	 mov	 DWORD PTR $T2[ebp], eax
; File C:\Program Files (x86)\Microsoft Visual Studio\2019\Community\VC\Tools\MSVC\14.28.29333\include\vector

; 310  :         return _Unfancy(this->_Ptr);

  0002a	8b 45 e8	 mov	 eax, DWORD PTR $T2[ebp]
  0002d	89 45 e4	 mov	 DWORD PTR $T1[ebp], eax
; File C:\Program Files (x86)\Microsoft Visual Studio\2019\Community\VC\Tools\MSVC\14.28.29333\include\algorithm

; 306  :     const auto _ULast = _Get_unwrapped(_Last);

  00030	8b 45 e4	 mov	 eax, DWORD PTR $T1[ebp]
  00033	89 45 e0	 mov	 DWORD PTR __ULast$[ebp], eax

; 307  :     for (; _UFirst != _ULast; ++_UFirst) {

  00036	eb 09		 jmp	 SHORT $LN4@for_each
$LN2@for_each:
  00038	8b 45 fc	 mov	 eax, DWORD PTR __UFirst$[ebp]
  0003b	83 c0 04	 add	 eax, 4
  0003e	89 45 fc	 mov	 DWORD PTR __UFirst$[ebp], eax
$LN4@for_each:
  00041	8b 45 fc	 mov	 eax, DWORD PTR __UFirst$[ebp]
  00044	3b 45 e0	 cmp	 eax, DWORD PTR __ULast$[ebp]
  00047	74 0b		 je	 SHORT $LN3@for_each

; 308  :         _Func(*_UFirst);

  00049	8b 45 fc	 mov	 eax, DWORD PTR __UFirst$[ebp]
  0004c	ff 30		 push	 DWORD PTR [eax]
  0004e	ff 55 10	 call	 DWORD PTR __Func$[ebp]
  00051	59		 pop	 ecx

; 309  :     }

  00052	eb e4		 jmp	 SHORT $LN2@for_each
$LN3@for_each:

; 310  : 
; 311  :     return _Func;

  00054	8b 45 10	 mov	 eax, DWORD PTR __Func$[ebp]

; 312  : }

  00057	c9		 leave
  00058	c3		 ret	 0
??$for_each@V?$_Vector_iterator@V?$_Vector_val@U?$_Simple_types@PAVCTextureAnimationCWDecorator@NEffectUpdateDecorator@@@std@@@std@@@std@@P6AXPAVCTextureAnimationCWDecorator@NEffectUpdateDecorator@@@Z@std@@YAP6AXPAVCTextureAnimationCWDecorator@NEffectUpdateDecorator@@@ZV?$_Vector_iterator@V?$_Vector_val@U?$_Simple_types@PAVCTextureAnimationCWDecorator@NEffectUpdateDecorator@@@std@@@std@@@0@1P6AX0@Z@Z ENDP ; std::for_each<std::_Vector_iterator<std::_Vector_val<std::_Simple_types<NEffectUpdateDecorator::CTextureAnimationCWDecorator *> > >,void (__cdecl*)(NEffectUpdateDecorator::CTextureAnimationCWDecorator *)>
_TEXT	ENDS
; Function compile flags: /Odspy
; File C:\Program Files (x86)\Microsoft Visual Studio\2019\Community\VC\Tools\MSVC\14.28.29333\include\algorithm
; File C:\Program Files (x86)\Microsoft Visual Studio\2019\Community\VC\Tools\MSVC\14.28.29333\include\vector
; File C:\Program Files (x86)\Microsoft Visual Studio\2019\Community\VC\Tools\MSVC\14.28.29333\include\xstddef
; File C:\Program Files (x86)\Microsoft Visual Studio\2019\Community\VC\Tools\MSVC\14.28.29333\include\vector
; File C:\Program Files (x86)\Microsoft Visual Studio\2019\Community\VC\Tools\MSVC\14.28.29333\include\algorithm
; File C:\Program Files (x86)\Microsoft Visual Studio\2019\Community\VC\Tools\MSVC\14.28.29333\include\vector
; File C:\Program Files (x86)\Microsoft Visual Studio\2019\Community\VC\Tools\MSVC\14.28.29333\include\xstddef
; File C:\Program Files (x86)\Microsoft Visual Studio\2019\Community\VC\Tools\MSVC\14.28.29333\include\vector
; File C:\Program Files (x86)\Microsoft Visual Studio\2019\Community\VC\Tools\MSVC\14.28.29333\include\algorithm
;	COMDAT ??$for_each@V?$_Vector_iterator@V?$_Vector_val@U?$_Simple_types@PAVCNullDecorator@NEffectUpdateDecorator@@@std@@@std@@@std@@P6AXPAVCNullDecorator@NEffectUpdateDecorator@@@Z@std@@YAP6AXPAVCNullDecorator@NEffectUpdateDecorator@@@ZV?$_Vector_iterator@V?$_Vector_val@U?$_Simple_types@PAVCNullDecorator@NEffectUpdateDecorator@@@std@@@std@@@0@1P6AX0@Z@Z
_TEXT	SEGMENT
__ULast$ = -32						; size = 4
$T1 = -28						; size = 4
$T2 = -24						; size = 4
__Ptr$3 = -20						; size = 4
$T4 = -16						; size = 4
$T5 = -12						; size = 4
__Ptr$6 = -8						; size = 4
__UFirst$ = -4						; size = 4
__First$ = 8						; size = 4
__Last$ = 12						; size = 4
__Func$ = 16						; size = 4
??$for_each@V?$_Vector_iterator@V?$_Vector_val@U?$_Simple_types@PAVCNullDecorator@NEffectUpdateDecorator@@@std@@@std@@@std@@P6AXPAVCNullDecorator@NEffectUpdateDecorator@@@Z@std@@YAP6AXPAVCNullDecorator@NEffectUpdateDecorator@@@ZV?$_Vector_iterator@V?$_Vector_val@U?$_Simple_types@PAVCNullDecorator@NEffectUpdateDecorator@@@std@@@std@@@0@1P6AX0@Z@Z PROC ; std::for_each<std::_Vector_iterator<std::_Vector_val<std::_Simple_types<NEffectUpdateDecorator::CNullDecorator *> > >,void (__cdecl*)(NEffectUpdateDecorator::CNullDecorator *)>, COMDAT

; 303  : _CONSTEXPR20 _Fn for_each(_InIt _First, _InIt _Last, _Fn _Func) { // perform function for each element [_First, _Last)

  00000	55		 push	 ebp
  00001	8b ec		 mov	 ebp, esp
  00003	83 ec 20	 sub	 esp, 32			; 00000020H
; File C:\Program Files (x86)\Microsoft Visual Studio\2019\Community\VC\Tools\MSVC\14.28.29333\include\vector

; 310  :         return _Unfancy(this->_Ptr);

  00006	8b 45 08	 mov	 eax, DWORD PTR __First$[ebp]
  00009	89 45 f8	 mov	 DWORD PTR __Ptr$6[ebp], eax
; File C:\Program Files (x86)\Microsoft Visual Studio\2019\Community\VC\Tools\MSVC\14.28.29333\include\xstddef

; 289  :     return _Ptr;

  0000c	8b 45 f8	 mov	 eax, DWORD PTR __Ptr$6[ebp]
  0000f	89 45 f4	 mov	 DWORD PTR $T5[ebp], eax
; File C:\Program Files (x86)\Microsoft Visual Studio\2019\Community\VC\Tools\MSVC\14.28.29333\include\vector

; 310  :         return _Unfancy(this->_Ptr);

  00012	8b 45 f4	 mov	 eax, DWORD PTR $T5[ebp]
  00015	89 45 f0	 mov	 DWORD PTR $T4[ebp], eax
; File C:\Program Files (x86)\Microsoft Visual Studio\2019\Community\VC\Tools\MSVC\14.28.29333\include\algorithm

; 305  :     auto _UFirst      = _Get_unwrapped(_First);

  00018	8b 45 f0	 mov	 eax, DWORD PTR $T4[ebp]
  0001b	89 45 fc	 mov	 DWORD PTR __UFirst$[ebp], eax
; File C:\Program Files (x86)\Microsoft Visual Studio\2019\Community\VC\Tools\MSVC\14.28.29333\include\vector

; 310  :         return _Unfancy(this->_Ptr);

  0001e	8b 45 0c	 mov	 eax, DWORD PTR __Last$[ebp]
  00021	89 45 ec	 mov	 DWORD PTR __Ptr$3[ebp], eax
; File C:\Program Files (x86)\Microsoft Visual Studio\2019\Community\VC\Tools\MSVC\14.28.29333\include\xstddef

; 289  :     return _Ptr;

  00024	8b 45 ec	 mov	 eax, DWORD PTR __Ptr$3[ebp]
  00027	89 45 e8	 mov	 DWORD PTR $T2[ebp], eax
; File C:\Program Files (x86)\Microsoft Visual Studio\2019\Community\VC\Tools\MSVC\14.28.29333\include\vector

; 310  :         return _Unfancy(this->_Ptr);

  0002a	8b 45 e8	 mov	 eax, DWORD PTR $T2[ebp]
  0002d	89 45 e4	 mov	 DWORD PTR $T1[ebp], eax
; File C:\Program Files (x86)\Microsoft Visual Studio\2019\Community\VC\Tools\MSVC\14.28.29333\include\algorithm

; 306  :     const auto _ULast = _Get_unwrapped(_Last);

  00030	8b 45 e4	 mov	 eax, DWORD PTR $T1[ebp]
  00033	89 45 e0	 mov	 DWORD PTR __ULast$[ebp], eax

; 307  :     for (; _UFirst != _ULast; ++_UFirst) {

  00036	eb 09		 jmp	 SHORT $LN4@for_each
$LN2@for_each:
  00038	8b 45 fc	 mov	 eax, DWORD PTR __UFirst$[ebp]
  0003b	83 c0 04	 add	 eax, 4
  0003e	89 45 fc	 mov	 DWORD PTR __UFirst$[ebp], eax
$LN4@for_each:
  00041	8b 45 fc	 mov	 eax, DWORD PTR __UFirst$[ebp]
  00044	3b 45 e0	 cmp	 eax, DWORD PTR __ULast$[ebp]
  00047	74 0b		 je	 SHORT $LN3@for_each

; 308  :         _Func(*_UFirst);

  00049	8b 45 fc	 mov	 eax, DWORD PTR __UFirst$[ebp]
  0004c	ff 30		 push	 DWORD PTR [eax]
  0004e	ff 55 10	 call	 DWORD PTR __Func$[ebp]
  00051	59		 pop	 ecx

; 309  :     }

  00052	eb e4		 jmp	 SHORT $LN2@for_each
$LN3@for_each:

; 310  : 
; 311  :     return _Func;

  00054	8b 45 10	 mov	 eax, DWORD PTR __Func$[ebp]

; 312  : }

  00057	c9		 leave
  00058	c3		 ret	 0
??$for_each@V?$_Vector_iterator@V?$_Vector_val@U?$_Simple_types@PAVCNullDecorator@NEffectUpdateDecorator@@@std@@@std@@@std@@P6AXPAVCNullDecorator@NEffectUpdateDecorator@@@Z@std@@YAP6AXPAVCNullDecorator@NEffectUpdateDecorator@@@ZV?$_Vector_iterator@V?$_Vector_val@U?$_Simple_types@PAVCNullDecorator@NEffectUpdateDecorator@@@std@@@std@@@0@1P6AX0@Z@Z ENDP ; std::for_each<std::_Vector_iterator<std::_Vector_val<std::_Simple_types<NEffectUpdateDecorator::CNullDecorator *> > >,void (__cdecl*)(NEffectUpdateDecorator::CNullDecorator *)>
_TEXT	ENDS
; Function compile flags: /Odspy
; File C:\Program Files (x86)\Microsoft Visual Studio\2019\Community\VC\Tools\MSVC\14.28.29333\include\algorithm
; File C:\Program Files (x86)\Microsoft Visual Studio\2019\Community\VC\Tools\MSVC\14.28.29333\include\vector
; File C:\Program Files (x86)\Microsoft Visual Studio\2019\Community\VC\Tools\MSVC\14.28.29333\include\xstddef
; File C:\Program Files (x86)\Microsoft Visual Studio\2019\Community\VC\Tools\MSVC\14.28.29333\include\vector
; File C:\Program Files (x86)\Microsoft Visual Studio\2019\Community\VC\Tools\MSVC\14.28.29333\include\algorithm
; File C:\Program Files (x86)\Microsoft Visual Studio\2019\Community\VC\Tools\MSVC\14.28.29333\include\vector
; File C:\Program Files (x86)\Microsoft Visual Studio\2019\Community\VC\Tools\MSVC\14.28.29333\include\xstddef
; File C:\Program Files (x86)\Microsoft Visual Studio\2019\Community\VC\Tools\MSVC\14.28.29333\include\vector
; File C:\Program Files (x86)\Microsoft Visual Studio\2019\Community\VC\Tools\MSVC\14.28.29333\include\algorithm
;	COMDAT ??$for_each@V?$_Vector_iterator@V?$_Vector_val@U?$_Simple_types@PAVCHeaderDecorator@NEffectUpdateDecorator@@@std@@@std@@@std@@P6AXPAVCHeaderDecorator@NEffectUpdateDecorator@@@Z@std@@YAP6AXPAVCHeaderDecorator@NEffectUpdateDecorator@@@ZV?$_Vector_iterator@V?$_Vector_val@U?$_Simple_types@PAVCHeaderDecorator@NEffectUpdateDecorator@@@std@@@std@@@0@1P6AX0@Z@Z
_TEXT	SEGMENT
__ULast$ = -32						; size = 4
$T1 = -28						; size = 4
$T2 = -24						; size = 4
__Ptr$3 = -20						; size = 4
$T4 = -16						; size = 4
$T5 = -12						; size = 4
__Ptr$6 = -8						; size = 4
__UFirst$ = -4						; size = 4
__First$ = 8						; size = 4
__Last$ = 12						; size = 4
__Func$ = 16						; size = 4
??$for_each@V?$_Vector_iterator@V?$_Vector_val@U?$_Simple_types@PAVCHeaderDecorator@NEffectUpdateDecorator@@@std@@@std@@@std@@P6AXPAVCHeaderDecorator@NEffectUpdateDecorator@@@Z@std@@YAP6AXPAVCHeaderDecorator@NEffectUpdateDecorator@@@ZV?$_Vector_iterator@V?$_Vector_val@U?$_Simple_types@PAVCHeaderDecorator@NEffectUpdateDecorator@@@std@@@std@@@0@1P6AX0@Z@Z PROC ; std::for_each<std::_Vector_iterator<std::_Vector_val<std::_Simple_types<NEffectUpdateDecorator::CHeaderDecorator *> > >,void (__cdecl*)(NEffectUpdateDecorator::CHeaderDecorator *)>, COMDAT

; 303  : _CONSTEXPR20 _Fn for_each(_InIt _First, _InIt _Last, _Fn _Func) { // perform function for each element [_First, _Last)

  00000	55		 push	 ebp
  00001	8b ec		 mov	 ebp, esp
  00003	83 ec 20	 sub	 esp, 32			; 00000020H
; File C:\Program Files (x86)\Microsoft Visual Studio\2019\Community\VC\Tools\MSVC\14.28.29333\include\vector

; 310  :         return _Unfancy(this->_Ptr);

  00006	8b 45 08	 mov	 eax, DWORD PTR __First$[ebp]
  00009	89 45 f8	 mov	 DWORD PTR __Ptr$6[ebp], eax
; File C:\Program Files (x86)\Microsoft Visual Studio\2019\Community\VC\Tools\MSVC\14.28.29333\include\xstddef

; 289  :     return _Ptr;

  0000c	8b 45 f8	 mov	 eax, DWORD PTR __Ptr$6[ebp]
  0000f	89 45 f4	 mov	 DWORD PTR $T5[ebp], eax
; File C:\Program Files (x86)\Microsoft Visual Studio\2019\Community\VC\Tools\MSVC\14.28.29333\include\vector

; 310  :         return _Unfancy(this->_Ptr);

  00012	8b 45 f4	 mov	 eax, DWORD PTR $T5[ebp]
  00015	89 45 f0	 mov	 DWORD PTR $T4[ebp], eax
; File C:\Program Files (x86)\Microsoft Visual Studio\2019\Community\VC\Tools\MSVC\14.28.29333\include\algorithm

; 305  :     auto _UFirst      = _Get_unwrapped(_First);

  00018	8b 45 f0	 mov	 eax, DWORD PTR $T4[ebp]
  0001b	89 45 fc	 mov	 DWORD PTR __UFirst$[ebp], eax
; File C:\Program Files (x86)\Microsoft Visual Studio\2019\Community\VC\Tools\MSVC\14.28.29333\include\vector

; 310  :         return _Unfancy(this->_Ptr);

  0001e	8b 45 0c	 mov	 eax, DWORD PTR __Last$[ebp]
  00021	89 45 ec	 mov	 DWORD PTR __Ptr$3[ebp], eax
; File C:\Program Files (x86)\Microsoft Visual Studio\2019\Community\VC\Tools\MSVC\14.28.29333\include\xstddef

; 289  :     return _Ptr;

  00024	8b 45 ec	 mov	 eax, DWORD PTR __Ptr$3[ebp]
  00027	89 45 e8	 mov	 DWORD PTR $T2[ebp], eax
; File C:\Program Files (x86)\Microsoft Visual Studio\2019\Community\VC\Tools\MSVC\14.28.29333\include\vector

; 310  :         return _Unfancy(this->_Ptr);

  0002a	8b 45 e8	 mov	 eax, DWORD PTR $T2[ebp]
  0002d	89 45 e4	 mov	 DWORD PTR $T1[ebp], eax
; File C:\Program Files (x86)\Microsoft Visual Studio\2019\Community\VC\Tools\MSVC\14.28.29333\include\algorithm

; 306  :     const auto _ULast = _Get_unwrapped(_Last);

  00030	8b 45 e4	 mov	 eax, DWORD PTR $T1[ebp]
  00033	89 45 e0	 mov	 DWORD PTR __ULast$[ebp], eax

; 307  :     for (; _UFirst != _ULast; ++_UFirst) {

  00036	eb 09		 jmp	 SHORT $LN4@for_each
$LN2@for_each:
  00038	8b 45 fc	 mov	 eax, DWORD PTR __UFirst$[ebp]
  0003b	83 c0 04	 add	 eax, 4
  0003e	89 45 fc	 mov	 DWORD PTR __UFirst$[ebp], eax
$LN4@for_each:
  00041	8b 45 fc	 mov	 eax, DWORD PTR __UFirst$[ebp]
  00044	3b 45 e0	 cmp	 eax, DWORD PTR __ULast$[ebp]
  00047	74 0b		 je	 SHORT $LN3@for_each

; 308  :         _Func(*_UFirst);

  00049	8b 45 fc	 mov	 eax, DWORD PTR __UFirst$[ebp]
  0004c	ff 30		 push	 DWORD PTR [eax]
  0004e	ff 55 10	 call	 DWORD PTR __Func$[ebp]
  00051	59		 pop	 ecx

; 309  :     }

  00052	eb e4		 jmp	 SHORT $LN2@for_each
$LN3@for_each:

; 310  : 
; 311  :     return _Func;

  00054	8b 45 10	 mov	 eax, DWORD PTR __Func$[ebp]

; 312  : }

  00057	c9		 leave
  00058	c3		 ret	 0
??$for_each@V?$_Vector_iterator@V?$_Vector_val@U?$_Simple_types@PAVCHeaderDecorator@NEffectUpdateDecorator@@@std@@@std@@@std@@P6AXPAVCHeaderDecorator@NEffectUpdateDecorator@@@Z@std@@YAP6AXPAVCHeaderDecorator@NEffectUpdateDecorator@@@ZV?$_Vector_iterator@V?$_Vector_val@U?$_Simple_types@PAVCHeaderDecorator@NEffectUpdateDecorator@@@std@@@std@@@0@1P6AX0@Z@Z ENDP ; std::for_each<std::_Vector_iterator<std::_Vector_val<std::_Simple_types<NEffectUpdateDecorator::CHeaderDecorator *> > >,void (__cdecl*)(NEffectUpdateDecorator::CHeaderDecorator *)>
_TEXT	ENDS
; Function compile flags: /Odspy
;	COMDAT ??_G?$CDynamicPoolEx@VCHeaderDecorator@NEffectUpdateDecorator@@@@UAEPAXI@Z
_TEXT	SEGMENT
_this$ = -4						; size = 4
___flags$ = 8						; size = 4
??_G?$CDynamicPoolEx@VCHeaderDecorator@NEffectUpdateDecorator@@@@UAEPAXI@Z PROC ; CDynamicPoolEx<NEffectUpdateDecorator::CHeaderDecorator>::`scalar deleting destructor', COMDAT
; _this$ = ecx
  00000	55		 push	 ebp
  00001	8b ec		 mov	 ebp, esp
  00003	51		 push	 ecx
  00004	89 4d fc	 mov	 DWORD PTR _this$[ebp], ecx
  00007	8b 4d fc	 mov	 ecx, DWORD PTR _this$[ebp]
  0000a	e8 00 00 00 00	 call	 ??1?$CDynamicPoolEx@VCHeaderDecorator@NEffectUpdateDecorator@@@@UAE@XZ ; CDynamicPoolEx<NEffectUpdateDecorator::CHeaderDecorator>::~CDynamicPoolEx<NEffectUpdateDecorator::CHeaderDecorator>
  0000f	8b 45 08	 mov	 eax, DWORD PTR ___flags$[ebp]
  00012	83 e0 01	 and	 eax, 1
  00015	74 0c		 je	 SHORT $LN2@scalar
  00017	6a 24		 push	 36			; 00000024H
  00019	ff 75 fc	 push	 DWORD PTR _this$[ebp]
  0001c	e8 00 00 00 00	 call	 ??3@YAXPAXI@Z		; operator delete
  00021	59		 pop	 ecx
  00022	59		 pop	 ecx
$LN2@scalar:
  00023	8b 45 fc	 mov	 eax, DWORD PTR _this$[ebp]
  00026	c9		 leave
  00027	c2 04 00	 ret	 4
??_G?$CDynamicPoolEx@VCHeaderDecorator@NEffectUpdateDecorator@@@@UAEPAXI@Z ENDP ; CDynamicPoolEx<NEffectUpdateDecorator::CHeaderDecorator>::`scalar deleting destructor'
_TEXT	ENDS
; Function compile flags: /Odspy
; File C:\Program Files (x86)\Microsoft Visual Studio\2019\Community\VC\Tools\MSVC\14.28.29333\include\vector
; File C:\Program Files (x86)\Microsoft Visual Studio\2019\Community\VC\Tools\MSVC\14.28.29333\include\xmemory
; File C:\Program Files (x86)\Microsoft Visual Studio\2019\Community\VC\Tools\MSVC\14.28.29333\include\vector
; File C:\Program Files (x86)\Microsoft Visual Studio\2019\Community\VC\Tools\MSVC\14.28.29333\include\xmemory
; File C:\Program Files (x86)\Microsoft Visual Studio\2019\Community\VC\Tools\MSVC\14.28.29333\include\vector
; File C:\Program Files (x86)\Microsoft Visual Studio\2019\Community\VC\Tools\MSVC\14.28.29333\include\xmemory
; File C:\Program Files (x86)\Microsoft Visual Studio\2019\Community\VC\Tools\MSVC\14.28.29333\include\vector
;	COMDAT ?_Tidy@?$vector@PAVCHeaderDecorator@NEffectUpdateDecorator@@V?$allocator@PAVCHeaderDecorator@NEffectUpdateDecorator@@@std@@@std@@AAEXXZ
_TEXT	SEGMENT
$T1 = -52						; size = 4
__Ptr$ = -48						; size = 4
__Count$ = -44						; size = 4
$T2 = -40						; size = 4
__First$ = -36						; size = 4
__Last$ = -32						; size = 4
$T3 = -28						; size = 4
$T4 = -24						; size = 4
__Myend$ = -20						; size = 4
__Mylast$ = -16						; size = 4
_this$ = -12						; size = 4
__My_data$ = -8						; size = 4
__Myfirst$ = -4						; size = 4
?_Tidy@?$vector@PAVCHeaderDecorator@NEffectUpdateDecorator@@V?$allocator@PAVCHeaderDecorator@NEffectUpdateDecorator@@@std@@@std@@AAEXXZ PROC ; std::vector<NEffectUpdateDecorator::CHeaderDecorator *,std::allocator<NEffectUpdateDecorator::CHeaderDecorator *> >::_Tidy, COMDAT
; _this$ = ecx

; 1686 :     void _Tidy() noexcept { // free all storage

  00000	55		 push	 ebp
  00001	8b ec		 mov	 ebp, esp
  00003	83 ec 34	 sub	 esp, 52			; 00000034H
  00006	89 4d f4	 mov	 DWORD PTR _this$[ebp], ecx

; 1687 :         auto& _My_data    = _Mypair._Myval2;

  00009	8b 45 f4	 mov	 eax, DWORD PTR _this$[ebp]
  0000c	89 45 f8	 mov	 DWORD PTR __My_data$[ebp], eax

; 1688 :         pointer& _Myfirst = _My_data._Myfirst;

  0000f	8b 45 f8	 mov	 eax, DWORD PTR __My_data$[ebp]
  00012	89 45 fc	 mov	 DWORD PTR __Myfirst$[ebp], eax

; 1689 :         pointer& _Mylast  = _My_data._Mylast;

  00015	8b 45 f8	 mov	 eax, DWORD PTR __My_data$[ebp]
  00018	83 c0 04	 add	 eax, 4
  0001b	89 45 f0	 mov	 DWORD PTR __Mylast$[ebp], eax

; 1690 :         pointer& _Myend   = _My_data._Myend;

  0001e	8b 45 f8	 mov	 eax, DWORD PTR __My_data$[ebp]
  00021	83 c0 08	 add	 eax, 8
  00024	89 45 ec	 mov	 DWORD PTR __Myend$[ebp], eax

; 1691 : 
; 1692 :         _My_data._Orphan_all();
; 1693 : 
; 1694 :         if (_Myfirst) { // destroy and deallocate old array

  00027	8b 45 fc	 mov	 eax, DWORD PTR __Myfirst$[ebp]
  0002a	83 38 00	 cmp	 DWORD PTR [eax], 0
  0002d	74 74		 je	 SHORT $LN3@Tidy

; 1695 :             _Destroy(_Myfirst, _Mylast);

  0002f	8b 45 f0	 mov	 eax, DWORD PTR __Mylast$[ebp]
  00032	8b 00		 mov	 eax, DWORD PTR [eax]
  00034	89 45 e0	 mov	 DWORD PTR __Last$[ebp], eax
  00037	8b 45 fc	 mov	 eax, DWORD PTR __Myfirst$[ebp]
  0003a	8b 00		 mov	 eax, DWORD PTR [eax]
  0003c	89 45 dc	 mov	 DWORD PTR __First$[ebp], eax

; 1733 :         return _Mypair._Get_first();

  0003f	8b 45 f4	 mov	 eax, DWORD PTR _this$[ebp]
; File C:\Program Files (x86)\Microsoft Visual Studio\2019\Community\VC\Tools\MSVC\14.28.29333\include\xmemory

; 1347 :         return *this;

  00042	89 45 e8	 mov	 DWORD PTR $T4[ebp], eax
; File C:\Program Files (x86)\Microsoft Visual Studio\2019\Community\VC\Tools\MSVC\14.28.29333\include\vector

; 1733 :         return _Mypair._Get_first();

  00045	8b 45 e8	 mov	 eax, DWORD PTR $T4[ebp]
  00048	89 45 e4	 mov	 DWORD PTR $T3[ebp], eax

; 1612 :         _Destroy_range(_First, _Last, _Getal());

  0004b	ff 75 e4	 push	 DWORD PTR $T3[ebp]
  0004e	ff 75 e0	 push	 DWORD PTR __Last$[ebp]
  00051	ff 75 dc	 push	 DWORD PTR __First$[ebp]
  00054	e8 00 00 00 00	 call	 ??$_Destroy_range@V?$allocator@PAVCHeaderDecorator@NEffectUpdateDecorator@@@std@@@std@@YAXPAPAVCHeaderDecorator@NEffectUpdateDecorator@@QAPAV12@AAV?$allocator@PAVCHeaderDecorator@NEffectUpdateDecorator@@@0@@Z ; std::_Destroy_range<std::allocator<NEffectUpdateDecorator::CHeaderDecorator *> >
  00059	83 c4 0c	 add	 esp, 12			; 0000000cH

; 1733 :         return _Mypair._Get_first();

  0005c	8b 45 f4	 mov	 eax, DWORD PTR _this$[ebp]
; File C:\Program Files (x86)\Microsoft Visual Studio\2019\Community\VC\Tools\MSVC\14.28.29333\include\xmemory

; 1347 :         return *this;

  0005f	89 45 d8	 mov	 DWORD PTR $T2[ebp], eax
; File C:\Program Files (x86)\Microsoft Visual Studio\2019\Community\VC\Tools\MSVC\14.28.29333\include\vector

; 1733 :         return _Mypair._Get_first();

  00062	8b 45 d8	 mov	 eax, DWORD PTR $T2[ebp]
  00065	89 45 cc	 mov	 DWORD PTR $T1[ebp], eax

; 1696 :             _Getal().deallocate(_Myfirst, static_cast<size_type>(_Myend - _Myfirst));

  00068	8b 45 ec	 mov	 eax, DWORD PTR __Myend$[ebp]
  0006b	8b 4d fc	 mov	 ecx, DWORD PTR __Myfirst$[ebp]
  0006e	8b 00		 mov	 eax, DWORD PTR [eax]
  00070	2b 01		 sub	 eax, DWORD PTR [ecx]
  00072	c1 f8 02	 sar	 eax, 2
  00075	89 45 d4	 mov	 DWORD PTR __Count$[ebp], eax
  00078	8b 45 fc	 mov	 eax, DWORD PTR __Myfirst$[ebp]
  0007b	8b 00		 mov	 eax, DWORD PTR [eax]
  0007d	89 45 d0	 mov	 DWORD PTR __Ptr$[ebp], eax
; File C:\Program Files (x86)\Microsoft Visual Studio\2019\Community\VC\Tools\MSVC\14.28.29333\include\xmemory

; 810  :         _Deallocate<_New_alignof<_Ty>>(_Ptr, sizeof(_Ty) * _Count);

  00080	8b 45 d4	 mov	 eax, DWORD PTR __Count$[ebp]
  00083	c1 e0 02	 shl	 eax, 2
  00086	50		 push	 eax
  00087	ff 75 d0	 push	 DWORD PTR __Ptr$[ebp]
  0008a	e8 00 00 00 00	 call	 ??$_Deallocate@$07$0A@@std@@YAXPAXI@Z ; std::_Deallocate<8,0>
  0008f	59		 pop	 ecx
  00090	59		 pop	 ecx
; File C:\Program Files (x86)\Microsoft Visual Studio\2019\Community\VC\Tools\MSVC\14.28.29333\include\vector

; 1698 :             _Myfirst = pointer();

  00091	8b 45 fc	 mov	 eax, DWORD PTR __Myfirst$[ebp]
  00094	83 20 00	 and	 DWORD PTR [eax], 0

; 1699 :             _Mylast  = pointer();

  00097	8b 45 f0	 mov	 eax, DWORD PTR __Mylast$[ebp]
  0009a	83 20 00	 and	 DWORD PTR [eax], 0

; 1700 :             _Myend   = pointer();

  0009d	8b 45 ec	 mov	 eax, DWORD PTR __Myend$[ebp]
  000a0	83 20 00	 and	 DWORD PTR [eax], 0
$LN3@Tidy:

; 1701 :         }
; 1702 :     }

  000a3	c9		 leave
  000a4	c3		 ret	 0
?_Tidy@?$vector@PAVCHeaderDecorator@NEffectUpdateDecorator@@V?$allocator@PAVCHeaderDecorator@NEffectUpdateDecorator@@@std@@@std@@AAEXXZ ENDP ; std::vector<NEffectUpdateDecorator::CHeaderDecorator *,std::allocator<NEffectUpdateDecorator::CHeaderDecorator *> >::_Tidy
_TEXT	ENDS
; Function compile flags: /Odspy
; File C:\Program Files (x86)\Microsoft Visual Studio\2019\Community\VC\Tools\MSVC\14.28.29333\include\vector
; File C:\Program Files (x86)\Microsoft Visual Studio\2019\Community\VC\Tools\MSVC\14.28.29333\include\xmemory
; File C:\Program Files (x86)\Microsoft Visual Studio\2019\Community\VC\Tools\MSVC\14.28.29333\include\vector
;	COMDAT ?clear@?$vector@PAVCHeaderDecorator@NEffectUpdateDecorator@@V?$allocator@PAVCHeaderDecorator@NEffectUpdateDecorator@@@std@@@std@@QAEXXZ
_TEXT	SEGMENT
__First$ = -32						; size = 4
__Last$ = -28						; size = 4
$T1 = -24						; size = 4
$T2 = -20						; size = 4
__Myfirst$ = -16					; size = 4
__Mylast$ = -12						; size = 4
_this$ = -8						; size = 4
__My_data$ = -4						; size = 4
?clear@?$vector@PAVCHeaderDecorator@NEffectUpdateDecorator@@V?$allocator@PAVCHeaderDecorator@NEffectUpdateDecorator@@@std@@@std@@QAEXXZ PROC ; std::vector<NEffectUpdateDecorator::CHeaderDecorator *,std::allocator<NEffectUpdateDecorator::CHeaderDecorator *> >::clear, COMDAT
; _this$ = ecx

; 1383 :     void clear() noexcept { // erase all

  00000	55		 push	 ebp
  00001	8b ec		 mov	 ebp, esp
  00003	83 ec 20	 sub	 esp, 32			; 00000020H
  00006	89 4d f8	 mov	 DWORD PTR _this$[ebp], ecx

; 1384 :         auto& _My_data    = _Mypair._Myval2;

  00009	8b 45 f8	 mov	 eax, DWORD PTR _this$[ebp]
  0000c	89 45 fc	 mov	 DWORD PTR __My_data$[ebp], eax

; 1385 :         pointer& _Myfirst = _My_data._Myfirst;

  0000f	8b 45 fc	 mov	 eax, DWORD PTR __My_data$[ebp]
  00012	89 45 f0	 mov	 DWORD PTR __Myfirst$[ebp], eax

; 1386 :         pointer& _Mylast  = _My_data._Mylast;

  00015	8b 45 fc	 mov	 eax, DWORD PTR __My_data$[ebp]
  00018	83 c0 04	 add	 eax, 4
  0001b	89 45 f4	 mov	 DWORD PTR __Mylast$[ebp], eax

; 1387 : 
; 1388 :         _My_data._Orphan_all();
; 1389 :         _Destroy(_Myfirst, _Mylast);

  0001e	8b 45 f4	 mov	 eax, DWORD PTR __Mylast$[ebp]
  00021	8b 00		 mov	 eax, DWORD PTR [eax]
  00023	89 45 e4	 mov	 DWORD PTR __Last$[ebp], eax
  00026	8b 45 f0	 mov	 eax, DWORD PTR __Myfirst$[ebp]
  00029	8b 00		 mov	 eax, DWORD PTR [eax]
  0002b	89 45 e0	 mov	 DWORD PTR __First$[ebp], eax

; 1733 :         return _Mypair._Get_first();

  0002e	8b 45 f8	 mov	 eax, DWORD PTR _this$[ebp]
; File C:\Program Files (x86)\Microsoft Visual Studio\2019\Community\VC\Tools\MSVC\14.28.29333\include\xmemory

; 1347 :         return *this;

  00031	89 45 ec	 mov	 DWORD PTR $T2[ebp], eax
; File C:\Program Files (x86)\Microsoft Visual Studio\2019\Community\VC\Tools\MSVC\14.28.29333\include\vector

; 1733 :         return _Mypair._Get_first();

  00034	8b 45 ec	 mov	 eax, DWORD PTR $T2[ebp]
  00037	89 45 e8	 mov	 DWORD PTR $T1[ebp], eax

; 1612 :         _Destroy_range(_First, _Last, _Getal());

  0003a	ff 75 e8	 push	 DWORD PTR $T1[ebp]
  0003d	ff 75 e4	 push	 DWORD PTR __Last$[ebp]
  00040	ff 75 e0	 push	 DWORD PTR __First$[ebp]
  00043	e8 00 00 00 00	 call	 ??$_Destroy_range@V?$allocator@PAVCHeaderDecorator@NEffectUpdateDecorator@@@std@@@std@@YAXPAPAVCHeaderDecorator@NEffectUpdateDecorator@@QAPAV12@AAV?$allocator@PAVCHeaderDecorator@NEffectUpdateDecorator@@@0@@Z ; std::_Destroy_range<std::allocator<NEffectUpdateDecorator::CHeaderDecorator *> >
  00048	83 c4 0c	 add	 esp, 12			; 0000000cH

; 1390 :         _Mylast = _Myfirst;

  0004b	8b 45 f4	 mov	 eax, DWORD PTR __Mylast$[ebp]
  0004e	8b 4d f0	 mov	 ecx, DWORD PTR __Myfirst$[ebp]
  00051	8b 09		 mov	 ecx, DWORD PTR [ecx]
  00053	89 08		 mov	 DWORD PTR [eax], ecx

; 1391 :     }

  00055	c9		 leave
  00056	c3		 ret	 0
?clear@?$vector@PAVCHeaderDecorator@NEffectUpdateDecorator@@V?$allocator@PAVCHeaderDecorator@NEffectUpdateDecorator@@@std@@@std@@QAEXXZ ENDP ; std::vector<NEffectUpdateDecorator::CHeaderDecorator *,std::allocator<NEffectUpdateDecorator::CHeaderDecorator *> >::clear
_TEXT	ENDS
; Function compile flags: /Odspy
; File D:\Metin2 Server Files\mainline\SRC_2014\Metin2Client\eterLib\Pool.h
;	COMDAT ?Delete@?$CDynamicPoolEx@VCHeaderDecorator@NEffectUpdateDecorator@@@@KAXPAVCHeaderDecorator@NEffectUpdateDecorator@@@Z
_TEXT	SEGMENT
_pkData$ = 8						; size = 4
?Delete@?$CDynamicPoolEx@VCHeaderDecorator@NEffectUpdateDecorator@@@@KAXPAVCHeaderDecorator@NEffectUpdateDecorator@@@Z PROC ; CDynamicPoolEx<NEffectUpdateDecorator::CHeaderDecorator>::Delete, COMDAT

; 223  : 		{

  00000	55		 push	 ebp
  00001	8b ec		 mov	 ebp, esp

; 224  : 			::operator delete(pkData);

  00003	ff 75 08	 push	 DWORD PTR _pkData$[ebp]
  00006	e8 00 00 00 00	 call	 ??3@YAXPAX@Z		; operator delete
  0000b	59		 pop	 ecx

; 225  : 		}

  0000c	5d		 pop	 ebp
  0000d	c3		 ret	 0
?Delete@?$CDynamicPoolEx@VCHeaderDecorator@NEffectUpdateDecorator@@@@KAXPAVCHeaderDecorator@NEffectUpdateDecorator@@@Z ENDP ; CDynamicPoolEx<NEffectUpdateDecorator::CHeaderDecorator>::Delete
_TEXT	ENDS
; Function compile flags: /Odspy
; File D:\Metin2 Server Files\mainline\SRC_2014\Metin2Client\eterLib\Pool.h
; File C:\Program Files (x86)\Microsoft Visual Studio\2019\Community\VC\Tools\MSVC\14.28.29333\include\vector
; File C:\Program Files (x86)\Microsoft Visual Studio\2019\Community\VC\Tools\MSVC\14.28.29333\include\xstddef
; File C:\Program Files (x86)\Microsoft Visual Studio\2019\Community\VC\Tools\MSVC\14.28.29333\include\vector
; File C:\Program Files (x86)\Microsoft Visual Studio\2019\Community\VC\Tools\MSVC\14.28.29333\include\xstddef
; File C:\Program Files (x86)\Microsoft Visual Studio\2019\Community\VC\Tools\MSVC\14.28.29333\include\vector
; File D:\Metin2 Server Files\mainline\SRC_2014\Metin2Client\eterLib\Pool.h
;	COMDAT ?Destroy@?$CDynamicPoolEx@VCHeaderDecorator@NEffectUpdateDecorator@@@@QAEXXZ
_TEXT	SEGMENT
$T1 = -44						; size = 4
$T2 = -40						; size = 4
$T3 = -36						; size = 4
$T4 = -32						; size = 4
$T5 = -28						; size = 4
___param0$ = -24					; size = 4
$T6 = -20						; size = 4
___param0$ = -16					; size = 4
__My_data$7 = -12					; size = 4
__My_data$8 = -8					; size = 4
_this$ = -4						; size = 4
?Destroy@?$CDynamicPoolEx@VCHeaderDecorator@NEffectUpdateDecorator@@@@QAEXXZ PROC ; CDynamicPoolEx<NEffectUpdateDecorator::CHeaderDecorator>::Destroy, COMDAT
; _this$ = ecx

; 150  : 		{

  00000	55		 push	 ebp
  00001	8b ec		 mov	 ebp, esp
  00003	83 ec 2c	 sub	 esp, 44			; 0000002cH
  00006	89 4d fc	 mov	 DWORD PTR _this$[ebp], ecx
