; Listing generated by Microsoft (R) Optimizing Compiler Version 19.28.29335.0 

	TITLE	D:\Metin2 Server Files\mainline\SRC_2014\Metin2Client\UserInterface\PythonChatModule.cpp
	.686P
	.XMM
	include listing.inc
	.model	flat

INCLUDELIB LIBCMT
INCLUDELIB OLDNAMES

PUBLIC	??_H@YGXPAXIIP6EPAX0@Z@Z			; `vector constructor iterator'
PUBLIC	___local_stdio_printf_options
PUBLIC	__snprintf
PUBLIC	??0exception@std@@QAE@ABV01@@Z			; std::exception::exception
PUBLIC	?what@exception@std@@UBEPBDXZ			; std::exception::what
PUBLIC	??_Gexception@std@@UAEPAXI@Z			; std::exception::`scalar deleting destructor'
PUBLIC	??0bad_alloc@std@@QAE@ABV01@@Z			; std::bad_alloc::bad_alloc
PUBLIC	??_Gbad_alloc@std@@UAEPAXI@Z			; std::bad_alloc::`scalar deleting destructor'
PUBLIC	??0bad_array_new_length@std@@QAE@XZ		; std::bad_array_new_length::bad_array_new_length
PUBLIC	??1bad_array_new_length@std@@UAE@XZ		; std::bad_array_new_length::~bad_array_new_length
PUBLIC	??0bad_array_new_length@std@@QAE@ABV01@@Z	; std::bad_array_new_length::bad_array_new_length
PUBLIC	??_Gbad_array_new_length@std@@UAEPAXI@Z		; std::bad_array_new_length::`scalar deleting destructor'
PUBLIC	?_Throw_bad_array_new_length@std@@YAXXZ		; std::_Throw_bad_array_new_length
PUBLIC	?_Adjust_manually_vector_aligned@std@@YAXAAPAXAAI@Z ; std::_Adjust_manually_vector_aligned
PUBLIC	?_Xlen_string@std@@YAXXZ			; std::_Xlen_string
PUBLIC	?_Myptr@?$_String_val@U?$_Simple_types@D@std@@@std@@QAEPADXZ ; std::_String_val<std::_Simple_types<char> >::_Myptr
PUBLIC	?_Myptr@?$_String_val@U?$_Simple_types@D@std@@@std@@QBEPBDXZ ; std::_String_val<std::_Simple_types<char> >::_Myptr
PUBLIC	??0?$basic_string@DU?$char_traits@D@std@@V?$allocator@D@2@@std@@QAE@QBD@Z ; std::basic_string<char,std::char_traits<char>,std::allocator<char> >::basic_string<char,std::char_traits<char>,std::allocator<char> >
PUBLIC	??1?$basic_string@DU?$char_traits@D@std@@V?$allocator@D@2@@std@@QAE@XZ ; std::basic_string<char,std::char_traits<char>,std::allocator<char> >::~basic_string<char,std::char_traits<char>,std::allocator<char> >
PUBLIC	?assign@?$basic_string@DU?$char_traits@D@std@@V?$allocator@D@2@@std@@QAEAAV12@QBDI@Z ; std::basic_string<char,std::char_traits<char>,std::allocator<char> >::assign
PUBLIC	?c_str@?$basic_string@DU?$char_traits@D@std@@V?$allocator@D@2@@std@@QBEPBDXZ ; std::basic_string<char,std::char_traits<char>,std::allocator<char> >::c_str
PUBLIC	?max_size@?$basic_string@DU?$char_traits@D@std@@V?$allocator@D@2@@std@@QBEIXZ ; std::basic_string<char,std::char_traits<char>,std::allocator<char> >::max_size
PUBLIC	?compare@?$basic_string@DU?$char_traits@D@std@@V?$allocator@D@2@@std@@QBEHQBD@Z ; std::basic_string<char,std::char_traits<char>,std::allocator<char> >::compare
PUBLIC	?_Calculate_growth@?$basic_string@DU?$char_traits@D@std@@V?$allocator@D@2@@std@@ABEII@Z ; std::basic_string<char,std::char_traits<char>,std::allocator<char> >::_Calculate_growth
PUBLIC	?_Tidy_init@?$basic_string@DU?$char_traits@D@std@@V?$allocator@D@2@@std@@AAEXXZ ; std::basic_string<char,std::char_traits<char>,std::allocator<char> >::_Tidy_init
PUBLIC	?_Tidy_deallocate@?$basic_string@DU?$char_traits@D@std@@V?$allocator@D@2@@std@@AAEXXZ ; std::basic_string<char,std::char_traits<char>,std::allocator<char> >::_Tidy_deallocate
PUBLIC	??1?$_Compressed_pair@V?$allocator@D@std@@V?$_String_val@U?$_Simple_types@D@std@@@2@$00@std@@QAE@XZ ; std::_Compressed_pair<std::allocator<char>,std::_String_val<std::_Simple_types<char> >,1>::~_Compressed_pair<std::allocator<char>,std::_String_val<std::_Simple_types<char> >,1>
PUBLIC	??1?$vector@V?$basic_string@DU?$char_traits@D@std@@V?$allocator@D@2@@std@@V?$allocator@V?$basic_string@DU?$char_traits@D@std@@V?$allocator@D@2@@std@@@2@@std@@QAE@XZ ; std::vector<std::basic_string<char,std::char_traits<char>,std::allocator<char> >,std::allocator<std::basic_string<char,std::char_traits<char>,std::allocator<char> > > >::~vector<std::basic_string<char,std::char_traits<char>,std::allocator<char> >,std::allocator<std::basic_string<char,std::char_traits<char>,std::allocator<char> > > >
PUBLIC	?_Tidy@?$vector@V?$basic_string@DU?$char_traits@D@std@@V?$allocator@D@2@@std@@V?$allocator@V?$basic_string@DU?$char_traits@D@std@@V?$allocator@D@2@@std@@@2@@std@@AAEXXZ ; std::vector<std::basic_string<char,std::char_traits<char>,std::allocator<char> >,std::allocator<std::basic_string<char,std::char_traits<char>,std::allocator<char> > > >::_Tidy
PUBLIC	??0?$_Vector_val@U?$_Simple_types@V?$basic_string@DU?$char_traits@D@std@@V?$allocator@D@2@@std@@@std@@@std@@QAE@XZ ; std::_Vector_val<std::_Simple_types<std::basic_string<char,std::char_traits<char>,std::allocator<char> > > >::_Vector_val<std::_Simple_types<std::basic_string<char,std::char_traits<char>,std::allocator<char> > > >
PUBLIC	?initChat@@YAXXZ				; initChat
PUBLIC	??$_Destroy_in_place@PAD@std@@YAXAAPAD@Z	; std::_Destroy_in_place<char *>
PUBLIC	??$_Reallocate_for@V<lambda_9366063389c5f42a00a5088cf24e69de>@@PBD@?$basic_string@DU?$char_traits@D@std@@V?$allocator@D@2@@std@@AAEAAV01@IV<lambda_9366063389c5f42a00a5088cf24e69de>@@PBD@Z ; std::basic_string<char,std::char_traits<char>,std::allocator<char> >::_Reallocate_for<<lambda_9366063389c5f42a00a5088cf24e69de>,char const *>
PUBLIC	??$_Construct_in_place@PADABQAD@std@@YAXAAPADABQAD@Z ; std::_Construct_in_place<char *,char * const &>
PUBLIC	??$_Deallocate@$07$0A@@std@@YAXPAXI@Z		; std::_Deallocate<8,0>
PUBLIC	??$_Allocate@$07U_Default_allocate_traits@std@@$0A@@std@@YAPAXI@Z ; std::_Allocate<8,std::_Default_allocate_traits,0>
PUBLIC	??$_Allocate_manually_vector_aligned@U_Default_allocate_traits@std@@@std@@YAPAXI@Z ; std::_Allocate_manually_vector_aligned<std::_Default_allocate_traits>
PUBLIC	?chatSetChatColor@@YAPAU_object@@PAU1@0@Z	; chatSetChatColor
PUBLIC	?chatClear@@YAPAU_object@@PAU1@0@Z		; chatClear
PUBLIC	?chatClose@@YAPAU_object@@PAU1@0@Z		; chatClose
PUBLIC	?chatCreateChatSet@@YAPAU_object@@PAU1@0@Z	; chatCreateChatSet
PUBLIC	?chatUpdate@@YAPAU_object@@PAU1@0@Z		; chatUpdate
PUBLIC	?chatRender@@YAPAU_object@@PAU1@0@Z		; chatRender
PUBLIC	?chatSetBoardState@@YAPAU_object@@PAU1@0@Z	; chatSetBoardState
PUBLIC	?chatSetPosition@@YAPAU_object@@PAU1@0@Z	; chatSetPosition
PUBLIC	?chatSetHeight@@YAPAU_object@@PAU1@0@Z		; chatSetHeight
PUBLIC	?chatSetStep@@YAPAU_object@@PAU1@0@Z		; chatSetStep
PUBLIC	?chatToggleChatMode@@YAPAU_object@@PAU1@0@Z	; chatToggleChatMode
PUBLIC	?chatEnableChatMode@@YAPAU_object@@PAU1@0@Z	; chatEnableChatMode
PUBLIC	?chatDisableChatMode@@YAPAU_object@@PAU1@0@Z	; chatDisableChatMode
PUBLIC	?chatSetEndPos@@YAPAU_object@@PAU1@0@Z		; chatSetEndPos
PUBLIC	?chatGetLineCount@@YAPAU_object@@PAU1@0@Z	; chatGetLineCount
PUBLIC	?chatGetVisibleLineCount@@YAPAU_object@@PAU1@0@Z ; chatGetVisibleLineCount
PUBLIC	?chatGetLineStep@@YAPAU_object@@PAU1@0@Z	; chatGetLineStep
PUBLIC	?chatAppendChat@@YAPAU_object@@PAU1@0@Z		; chatAppendChat
PUBLIC	?chatAppendChatWithDelay@@YAPAU_object@@PAU1@0@Z ; chatAppendChatWithDelay
PUBLIC	?chatArrangeShowingChat@@YAPAU_object@@PAU1@0@Z	; chatArrangeShowingChat
PUBLIC	?chatIgnoreCharacter@@YAPAU_object@@PAU1@0@Z	; chatIgnoreCharacter
PUBLIC	?chatIsIgnoreCharacter@@YAPAU_object@@PAU1@0@Z	; chatIsIgnoreCharacter
PUBLIC	?chatCreateWhisper@@YAPAU_object@@PAU1@0@Z	; chatCreateWhisper
PUBLIC	?chatAppendWhisper@@YAPAU_object@@PAU1@0@Z	; chatAppendWhisper
PUBLIC	?chatRenderWhisper@@YAPAU_object@@PAU1@0@Z	; chatRenderWhisper
PUBLIC	?chatSetWhisperBoxSize@@YAPAU_object@@PAU1@0@Z	; chatSetWhisperBoxSize
PUBLIC	?chatSetWhisperPosition@@YAPAU_object@@PAU1@0@Z	; chatSetWhisperPosition
PUBLIC	?chatClearWhisper@@YAPAU_object@@PAU1@0@Z	; chatClearWhisper
PUBLIC	?chatInitWhisper@@YAPAU_object@@PAU1@0@Z	; chatInitWhisper
PUBLIC	?chatGetLinkFromHyperlink@@YAPAU_object@@PAU1@0@Z ; chatGetLinkFromHyperlink
PUBLIC	??$_Destroy_range@V?$allocator@V?$basic_string@DU?$char_traits@D@std@@V?$allocator@D@2@@std@@@std@@@std@@YAXPAV?$basic_string@DU?$char_traits@D@std@@V?$allocator@D@2@@0@QAV10@AAV?$allocator@V?$basic_string@DU?$char_traits@D@std@@V?$allocator@D@2@@std@@@0@@Z ; std::_Destroy_range<std::allocator<std::basic_string<char,std::char_traits<char>,std::allocator<char> > > >
PUBLIC	?_OptionsStorage@?1??__local_stdio_printf_options@@9@4_KA ; `__local_stdio_printf_options'::`2'::_OptionsStorage
PUBLIC	??_7exception@std@@6B@				; std::exception::`vftable'
PUBLIC	??_C@_0BC@EOODALEL@Unknown?5exception@		; `string'
PUBLIC	??_7bad_alloc@std@@6B@				; std::bad_alloc::`vftable'
PUBLIC	??_7bad_array_new_length@std@@6B@		; std::bad_array_new_length::`vftable'
PUBLIC	??_C@_0BF@KINCDENJ@bad?5array?5new?5length@	; `string'
PUBLIC	__TI3?AVbad_array_new_length@std@@
PUBLIC	__CTA3?AVbad_array_new_length@std@@
PUBLIC	??_R0?AVbad_array_new_length@std@@@8		; std::bad_array_new_length `RTTI Type Descriptor'
PUBLIC	__CT??_R0?AVbad_array_new_length@std@@@8??0bad_array_new_length@std@@QAE@ABV01@@Z12
PUBLIC	??_R0?AVbad_alloc@std@@@8			; std::bad_alloc `RTTI Type Descriptor'
PUBLIC	__CT??_R0?AVbad_alloc@std@@@8??0bad_alloc@std@@QAE@ABV01@@Z12
PUBLIC	??_R0?AVexception@std@@@8			; std::exception `RTTI Type Descriptor'
PUBLIC	__CT??_R0?AVexception@std@@@8??0exception@std@@QAE@ABV01@@Z12
PUBLIC	??_C@_0BA@JFNIOLAK@string?5too?5long@		; `string'
PUBLIC	??_C@_00CNPNBAHC@@				; `string'
PUBLIC	??_R4exception@std@@6B@				; std::exception::`RTTI Complete Object Locator'
PUBLIC	??_R3exception@std@@8				; std::exception::`RTTI Class Hierarchy Descriptor'
PUBLIC	??_R2exception@std@@8				; std::exception::`RTTI Base Class Array'
PUBLIC	??_R1A@?0A@EA@exception@std@@8			; std::exception::`RTTI Base Class Descriptor at (0,-1,0,64)'
PUBLIC	??_R4bad_alloc@std@@6B@				; std::bad_alloc::`RTTI Complete Object Locator'
PUBLIC	??_R3bad_alloc@std@@8				; std::bad_alloc::`RTTI Class Hierarchy Descriptor'
PUBLIC	??_R2bad_alloc@std@@8				; std::bad_alloc::`RTTI Base Class Array'
PUBLIC	??_R1A@?0A@EA@bad_alloc@std@@8			; std::bad_alloc::`RTTI Base Class Descriptor at (0,-1,0,64)'
PUBLIC	??_R4bad_array_new_length@std@@6B@		; std::bad_array_new_length::`RTTI Complete Object Locator'
PUBLIC	??_R3bad_array_new_length@std@@8		; std::bad_array_new_length::`RTTI Class Hierarchy Descriptor'
PUBLIC	??_R2bad_array_new_length@std@@8		; std::bad_array_new_length::`RTTI Base Class Array'
PUBLIC	??_R1A@?0A@EA@bad_array_new_length@std@@8	; std::bad_array_new_length::`RTTI Base Class Descriptor at (0,-1,0,64)'
PUBLIC	?ms_singleton@?$CSingleton@VCPythonChat@@@@0PAVCPythonChat@@A ; CSingleton<CPythonChat>::ms_singleton
PUBLIC	?ms_singleton@?$CSingleton@VCItemManager@@@@0PAVCItemManager@@A ; CSingleton<CItemManager>::ms_singleton
PUBLIC	??_C@_01KBJDNOO@i@				; `string'
PUBLIC	??_C@_01JLIPDDHJ@?3@				; `string'
PUBLIC	??_C@_04NHONDGDE@item@				; `string'
PUBLIC	??_C@_01LKDEMHDF@s@				; `string'
PUBLIC	??_C@_0BE@FGPADLIF@item?3?$CFx?3?$CFx?3?$CFx?3?$CFx?3?$CFx@ ; `string'
PUBLIC	??_C@_06FAMCNHHL@?3?$CFx?3?$CFd@		; `string'
PUBLIC	??_C@_0BJ@DABMGIOF@?$HMcffffc700?$HMH?$CFs?$HMh?$FL?$CFs?$FN?$HMh?$HMr@ ; `string'
PUBLIC	??_C@_0BJ@GPGFNPLK@?$HMcfff1e6c0?$HMH?$CFs?$HMh?$FL?$CFs?$FN?$HMh?$HMr@ ; `string'
PUBLIC	??_C@_0N@JBENFECF@SetChatColor@			; `string'
PUBLIC	??_C@_05MDNHABIA@Clear@				; `string'
PUBLIC	??_C@_05LGELBCGM@Close@				; `string'
PUBLIC	??_C@_0O@NIPGGDN@CreateChatSet@			; `string'
PUBLIC	??_C@_06LMAGPFNF@Update@			; `string'
PUBLIC	??_C@_06EPLDPNDB@Render@			; `string'
PUBLIC	??_C@_0O@HLECNMMJ@SetBoardState@		; `string'
PUBLIC	??_C@_0M@GKIFPNAD@SetPosition@			; `string'
PUBLIC	??_C@_09GACBKIFI@SetHeight@			; `string'
PUBLIC	??_C@_07PCIEAKML@SetStep@			; `string'
PUBLIC	??_C@_0P@HJNLNPCF@ToggleChatMode@		; `string'
PUBLIC	??_C@_0P@CBALNCDJ@EnableChatMode@		; `string'
PUBLIC	??_C@_0BA@PMFEPLLL@DisableChatMode@		; `string'
PUBLIC	??_C@_09LEFDLNLA@SetEndPos@			; `string'
PUBLIC	??_C@_0N@GBIDIHNF@GetLineCount@			; `string'
PUBLIC	??_C@_0BE@ECGLNJIP@GetVisibleLineCount@		; `string'
PUBLIC	??_C@_0M@JAIPGIEI@GetLineStep@			; `string'
PUBLIC	??_C@_0L@LGDEPKMK@AppendChat@			; `string'
PUBLIC	??_C@_0BE@OLLFFMAP@AppendChatWithDelay@		; `string'
PUBLIC	??_C@_0BD@PGAGKLIB@ArrangeShowingChat@		; `string'
PUBLIC	??_C@_0BA@OBLLPMIK@IgnoreCharacter@		; `string'
PUBLIC	??_C@_0BC@BPLLIFOI@IsIgnoreCharacter@		; `string'
PUBLIC	??_C@_0O@EPNAKAMH@CreateWhisper@		; `string'
PUBLIC	??_C@_0O@MNHHDNCN@AppendWhisper@		; `string'
PUBLIC	??_C@_0O@HNBBBAHN@RenderWhisper@		; `string'
PUBLIC	??_C@_0BC@IEABADGD@SetWhisperBoxSize@		; `string'
PUBLIC	??_C@_0BD@NNNKEDJK@SetWhisperPosition@		; `string'
PUBLIC	??_C@_0N@FCHOFFAF@ClearWhisper@			; `string'
PUBLIC	??_C@_0M@OFOGDKFP@InitWhisper@			; `string'
PUBLIC	??_C@_0BF@BJFLHIAM@GetLinkFromHyperlink@	; `string'
PUBLIC	??_C@_04BLJLMHHG@chat@				; `string'
PUBLIC	??_C@_0BC@EHLMCJH@CHAT_TYPE_TALKING@		; `string'
PUBLIC	??_C@_0P@MIHHHBMP@CHAT_TYPE_INFO@		; `string'
PUBLIC	??_C@_0BB@KFACLMJA@CHAT_TYPE_NOTICE@		; `string'
PUBLIC	??_C@_0BA@JOLAGJG@CHAT_TYPE_PARTY@		; `string'
PUBLIC	??_C@_0BA@OIBJELLN@CHAT_TYPE_GUILD@		; `string'
PUBLIC	??_C@_0BC@IILPNMNB@CHAT_TYPE_COMMAND@		; `string'
PUBLIC	??_C@_0BA@JEHAINHB@CHAT_TYPE_SHOUT@		; `string'
PUBLIC	??_C@_0BC@JMANMLH@CHAT_TYPE_WHISPER@		; `string'
PUBLIC	??_C@_0BC@LIEDKBDG@WHISPER_TYPE_CHAT@		; `string'
PUBLIC	??_C@_0BE@KODPENDJ@WHISPER_TYPE_SYSTEM@		; `string'
PUBLIC	??_C@_0BA@KLIHGMFD@WHISPER_TYPE_GM@		; `string'
PUBLIC	??_C@_0BB@OJGJMFKD@BOARD_STATE_VIEW@		; `string'
PUBLIC	??_C@_0BB@BOHEFKIL@BOARD_STATE_EDIT@		; `string'
PUBLIC	??_C@_0BA@PGHAPLJK@BOARD_STATE_LOG@		; `string'
PUBLIC	??_C@_0BF@FCHEGAKH@CHAT_SET_CHAT_WINDOW@	; `string'
PUBLIC	??_C@_0BE@OPDJLJMH@CHAT_SET_LOG_WINDOW@		; `string'
EXTRN	??2@YAPAXI@Z:PROC				; operator new
EXTRN	??3@YAXPAXI@Z:PROC				; operator delete
EXTRN	__invalid_parameter_noinfo_noreturn:PROC
EXTRN	__atoi64:PROC
EXTRN	_memcmp:PROC
EXTRN	_memcpy:PROC
EXTRN	_memmove:PROC
EXTRN	_strlen:PROC
EXTRN	___stdio_common_vsprintf:PROC
EXTRN	___std_exception_copy:PROC
EXTRN	___std_exception_destroy:PROC
EXTRN	??_Eexception@std@@UAEPAXI@Z:PROC		; std::exception::`vector deleting destructor'
EXTRN	??_Ebad_alloc@std@@UAEPAXI@Z:PROC		; std::bad_alloc::`vector deleting destructor'
EXTRN	??_Ebad_array_new_length@std@@UAEPAXI@Z:PROC	; std::bad_array_new_length::`vector deleting destructor'
EXTRN	?_Xlength_error@std@@YAXPBD@Z:PROC		; std::_Xlength_error
EXTRN	?split_string@@YAHABV?$basic_string@DU?$char_traits@D@std@@V?$allocator@D@2@@std@@0AAV?$vector@V?$basic_string@DU?$char_traits@D@std@@V?$allocator@D@2@@std@@V?$allocator@V?$basic_string@DU?$char_traits@D@std@@V?$allocator@D@2@@std@@@2@@2@_N@Z:PROC ; split_string
EXTRN	__imp__Py_BuildValue:PROC
EXTRN	__imp__PyModule_AddIntConstant:PROC
EXTRN	__imp__Py_InitModule4:PROC
EXTRN	?PyTuple_GetString@@YA_NPAU_object@@HPAPAD@Z:PROC ; PyTuple_GetString
EXTRN	?PyTuple_GetInteger@@YA_NPAU_object@@HPAH@Z:PROC ; PyTuple_GetInteger
EXTRN	?PyTuple_GetFloat@@YA_NPAU_object@@HPAM@Z:PROC	; PyTuple_GetFloat
EXTRN	?PyTuple_GetObject@@YA_NPAU_object@@HPAPAU1@@Z:PROC ; PyTuple_GetObject
EXTRN	?Py_BuildException@@YAPAU_object@@PBDZZ:PROC	; Py_BuildException
EXTRN	?Py_BuildNone@@YAPAU_object@@XZ:PROC		; Py_BuildNone
EXTRN	?GetName@CItemData@@QBEPBDXZ:PROC		; CItemData::GetName
EXTRN	?SetPosition@CWhisper@@QAEXM@Z:PROC		; CWhisper::SetPosition
EXTRN	?SetBoxSize@CWhisper@@QAEXMM@Z:PROC		; CWhisper::SetBoxSize
EXTRN	?Render@CWhisper@@QAEXMM@Z:PROC			; CWhisper::Render
EXTRN	?SetChatColor@CPythonChat@@QAEXIIII@Z:PROC	; CPythonChat::SetChatColor
EXTRN	?Destroy@CPythonChat@@QAEXXZ:PROC		; CPythonChat::Destroy
EXTRN	?Close@CPythonChat@@QAEXXZ:PROC			; CPythonChat::Close
EXTRN	?CreateChatSet@CPythonChat@@QAEHK@Z:PROC	; CPythonChat::CreateChatSet
EXTRN	?Update@CPythonChat@@QAEXK@Z:PROC		; CPythonChat::Update
EXTRN	?Render@CPythonChat@@QAEXK@Z:PROC		; CPythonChat::Render
EXTRN	?SetBoardState@CPythonChat@@QAEXKH@Z:PROC	; CPythonChat::SetBoardState
EXTRN	?SetPosition@CPythonChat@@QAEXKHH@Z:PROC	; CPythonChat::SetPosition
EXTRN	?SetHeight@CPythonChat@@QAEXKH@Z:PROC		; CPythonChat::SetHeight
EXTRN	?SetStep@CPythonChat@@QAEXKH@Z:PROC		; CPythonChat::SetStep
EXTRN	?ToggleChatMode@CPythonChat@@QAEXKH@Z:PROC	; CPythonChat::ToggleChatMode
EXTRN	?EnableChatMode@CPythonChat@@QAEXKH@Z:PROC	; CPythonChat::EnableChatMode
EXTRN	?DisableChatMode@CPythonChat@@QAEXKH@Z:PROC	; CPythonChat::DisableChatMode
EXTRN	?SetEndPos@CPythonChat@@QAEXKM@Z:PROC		; CPythonChat::SetEndPos
EXTRN	?GetVisibleLineCount@CPythonChat@@QAEHK@Z:PROC	; CPythonChat::GetVisibleLineCount
EXTRN	?GetLineCount@CPythonChat@@QAEHK@Z:PROC		; CPythonChat::GetLineCount
EXTRN	?GetLineStep@CPythonChat@@QAEHK@Z:PROC		; CPythonChat::GetLineStep
EXTRN	?AppendChatWithDelay@CPythonChat@@QAEXHPBDH@Z:PROC ; CPythonChat::AppendChatWithDelay
EXTRN	?ArrangeShowingChat@CPythonChat@@QAEXK@Z:PROC	; CPythonChat::ArrangeShowingChat
EXTRN	?IgnoreCharacter@CPythonChat@@QAEXPBD@Z:PROC	; CPythonChat::IgnoreCharacter
EXTRN	?IsIgnoreCharacter@CPythonChat@@QAEHPBD@Z:PROC	; CPythonChat::IsIgnoreCharacter
EXTRN	?CreateWhisper@CPythonChat@@QAEPAVCWhisper@@PBD@Z:PROC ; CPythonChat::CreateWhisper
EXTRN	?AppendWhisper@CPythonChat@@QAEXHPBD0@Z:PROC	; CPythonChat::AppendWhisper
EXTRN	?ClearWhisper@CPythonChat@@QAEXPBD@Z:PROC	; CPythonChat::ClearWhisper
EXTRN	?GetWhisper@CPythonChat@@QAEHPBDPAPAVCWhisper@@@Z:PROC ; CPythonChat::GetWhisper
EXTRN	?InitWhisper@CPythonChat@@QAEXPAU_object@@@Z:PROC ; CPythonChat::InitWhisper
EXTRN	?GetItemDataPointer@CItemManager@@QAEHKPAPAVCItemData@@@Z:PROC ; CItemManager::GetItemDataPointer
EXTRN	@__security_check_cookie@4:PROC
EXTRN	__CxxThrowException@8:PROC
EXTRN	___CxxFrameHandler3:PROC
EXTRN	_memset:PROC
EXTRN	??_7type_info@@6B@:QWORD			; type_info::`vftable'
EXTRN	___security_cookie:DWORD
EXTRN	__fltused:DWORD
;	COMDAT ?_OptionsStorage@?1??__local_stdio_printf_options@@9@4_KA
_BSS	SEGMENT
?_OptionsStorage@?1??__local_stdio_printf_options@@9@4_KA DQ 01H DUP (?) ; `__local_stdio_printf_options'::`2'::_OptionsStorage
_BSS	ENDS
;	COMDAT ?ms_singleton@?$CSingleton@VCPythonChat@@@@0PAVCPythonChat@@A
_BSS	SEGMENT
?ms_singleton@?$CSingleton@VCPythonChat@@@@0PAVCPythonChat@@A DD 01H DUP (?) ; CSingleton<CPythonChat>::ms_singleton
_BSS	ENDS
;	COMDAT ?ms_singleton@?$CSingleton@VCItemManager@@@@0PAVCItemManager@@A
_BSS	SEGMENT
?ms_singleton@?$CSingleton@VCItemManager@@@@0PAVCItemManager@@A DD 01H DUP (?) ; CSingleton<CItemManager>::ms_singleton
_BSS	ENDS
;	COMDAT ??_C@_0BE@OPDJLJMH@CHAT_SET_LOG_WINDOW@
CONST	SEGMENT
??_C@_0BE@OPDJLJMH@CHAT_SET_LOG_WINDOW@ DB 'CHAT_SET_LOG_WINDOW', 00H ; `string'
CONST	ENDS
;	COMDAT ??_C@_0BF@FCHEGAKH@CHAT_SET_CHAT_WINDOW@
CONST	SEGMENT
??_C@_0BF@FCHEGAKH@CHAT_SET_CHAT_WINDOW@ DB 'CHAT_SET_CHAT_WINDOW', 00H ; `string'
CONST	ENDS
;	COMDAT ??_C@_0BA@PGHAPLJK@BOARD_STATE_LOG@
CONST	SEGMENT
??_C@_0BA@PGHAPLJK@BOARD_STATE_LOG@ DB 'BOARD_STATE_LOG', 00H ; `string'
CONST	ENDS
;	COMDAT ??_C@_0BB@BOHEFKIL@BOARD_STATE_EDIT@
CONST	SEGMENT
??_C@_0BB@BOHEFKIL@BOARD_STATE_EDIT@ DB 'BOARD_STATE_EDIT', 00H ; `string'
CONST	ENDS
;	COMDAT ??_C@_0BB@OJGJMFKD@BOARD_STATE_VIEW@
CONST	SEGMENT
??_C@_0BB@OJGJMFKD@BOARD_STATE_VIEW@ DB 'BOARD_STATE_VIEW', 00H ; `string'
CONST	ENDS
;	COMDAT ??_C@_0BA@KLIHGMFD@WHISPER_TYPE_GM@
CONST	SEGMENT
??_C@_0BA@KLIHGMFD@WHISPER_TYPE_GM@ DB 'WHISPER_TYPE_GM', 00H ; `string'
CONST	ENDS
;	COMDAT ??_C@_0BE@KODPENDJ@WHISPER_TYPE_SYSTEM@
CONST	SEGMENT
??_C@_0BE@KODPENDJ@WHISPER_TYPE_SYSTEM@ DB 'WHISPER_TYPE_SYSTEM', 00H ; `string'
CONST	ENDS
;	COMDAT ??_C@_0BC@LIEDKBDG@WHISPER_TYPE_CHAT@
CONST	SEGMENT
??_C@_0BC@LIEDKBDG@WHISPER_TYPE_CHAT@ DB 'WHISPER_TYPE_CHAT', 00H ; `string'
CONST	ENDS
;	COMDAT ??_C@_0BC@JMANMLH@CHAT_TYPE_WHISPER@
CONST	SEGMENT
??_C@_0BC@JMANMLH@CHAT_TYPE_WHISPER@ DB 'CHAT_TYPE_WHISPER', 00H ; `string'
CONST	ENDS
;	COMDAT ??_C@_0BA@JEHAINHB@CHAT_TYPE_SHOUT@
CONST	SEGMENT
??_C@_0BA@JEHAINHB@CHAT_TYPE_SHOUT@ DB 'CHAT_TYPE_SHOUT', 00H ; `string'
CONST	ENDS
;	COMDAT ??_C@_0BC@IILPNMNB@CHAT_TYPE_COMMAND@
CONST	SEGMENT
??_C@_0BC@IILPNMNB@CHAT_TYPE_COMMAND@ DB 'CHAT_TYPE_COMMAND', 00H ; `string'
CONST	ENDS
;	COMDAT ??_C@_0BA@OIBJELLN@CHAT_TYPE_GUILD@
CONST	SEGMENT
??_C@_0BA@OIBJELLN@CHAT_TYPE_GUILD@ DB 'CHAT_TYPE_GUILD', 00H ; `string'
CONST	ENDS
;	COMDAT ??_C@_0BA@JOLAGJG@CHAT_TYPE_PARTY@
CONST	SEGMENT
??_C@_0BA@JOLAGJG@CHAT_TYPE_PARTY@ DB 'CHAT_TYPE_PARTY', 00H ; `string'
CONST	ENDS
;	COMDAT ??_C@_0BB@KFACLMJA@CHAT_TYPE_NOTICE@
CONST	SEGMENT
??_C@_0BB@KFACLMJA@CHAT_TYPE_NOTICE@ DB 'CHAT_TYPE_NOTICE', 00H ; `string'
CONST	ENDS
;	COMDAT ??_C@_0P@MIHHHBMP@CHAT_TYPE_INFO@
CONST	SEGMENT
??_C@_0P@MIHHHBMP@CHAT_TYPE_INFO@ DB 'CHAT_TYPE_INFO', 00H ; `string'
CONST	ENDS
;	COMDAT ??_C@_0BC@EHLMCJH@CHAT_TYPE_TALKING@
CONST	SEGMENT
??_C@_0BC@EHLMCJH@CHAT_TYPE_TALKING@ DB 'CHAT_TYPE_TALKING', 00H ; `string'
CONST	ENDS
;	COMDAT ??_C@_04BLJLMHHG@chat@
CONST	SEGMENT
??_C@_04BLJLMHHG@chat@ DB 'chat', 00H			; `string'
CONST	ENDS
;	COMDAT ??_C@_0BF@BJFLHIAM@GetLinkFromHyperlink@
CONST	SEGMENT
??_C@_0BF@BJFLHIAM@GetLinkFromHyperlink@ DB 'GetLinkFromHyperlink', 00H ; `string'
CONST	ENDS
;	COMDAT ??_C@_0M@OFOGDKFP@InitWhisper@
CONST	SEGMENT
??_C@_0M@OFOGDKFP@InitWhisper@ DB 'InitWhisper', 00H	; `string'
CONST	ENDS
;	COMDAT ??_C@_0N@FCHOFFAF@ClearWhisper@
CONST	SEGMENT
??_C@_0N@FCHOFFAF@ClearWhisper@ DB 'ClearWhisper', 00H	; `string'
CONST	ENDS
;	COMDAT ??_C@_0BD@NNNKEDJK@SetWhisperPosition@
CONST	SEGMENT
??_C@_0BD@NNNKEDJK@SetWhisperPosition@ DB 'SetWhisperPosition', 00H ; `string'
CONST	ENDS
;	COMDAT ??_C@_0BC@IEABADGD@SetWhisperBoxSize@
CONST	SEGMENT
??_C@_0BC@IEABADGD@SetWhisperBoxSize@ DB 'SetWhisperBoxSize', 00H ; `string'
CONST	ENDS
;	COMDAT ??_C@_0O@HNBBBAHN@RenderWhisper@
CONST	SEGMENT
??_C@_0O@HNBBBAHN@RenderWhisper@ DB 'RenderWhisper', 00H ; `string'
CONST	ENDS
;	COMDAT ??_C@_0O@MNHHDNCN@AppendWhisper@
CONST	SEGMENT
??_C@_0O@MNHHDNCN@AppendWhisper@ DB 'AppendWhisper', 00H ; `string'
CONST	ENDS
;	COMDAT ??_C@_0O@EPNAKAMH@CreateWhisper@
CONST	SEGMENT
??_C@_0O@EPNAKAMH@CreateWhisper@ DB 'CreateWhisper', 00H ; `string'
CONST	ENDS
;	COMDAT ??_C@_0BC@BPLLIFOI@IsIgnoreCharacter@
CONST	SEGMENT
??_C@_0BC@BPLLIFOI@IsIgnoreCharacter@ DB 'IsIgnoreCharacter', 00H ; `string'
CONST	ENDS
;	COMDAT ??_C@_0BA@OBLLPMIK@IgnoreCharacter@
CONST	SEGMENT
??_C@_0BA@OBLLPMIK@IgnoreCharacter@ DB 'IgnoreCharacter', 00H ; `string'
CONST	ENDS
;	COMDAT ??_C@_0BD@PGAGKLIB@ArrangeShowingChat@
CONST	SEGMENT
??_C@_0BD@PGAGKLIB@ArrangeShowingChat@ DB 'ArrangeShowingChat', 00H ; `string'
CONST	ENDS
;	COMDAT ??_C@_0BE@OLLFFMAP@AppendChatWithDelay@
CONST	SEGMENT
??_C@_0BE@OLLFFMAP@AppendChatWithDelay@ DB 'AppendChatWithDelay', 00H ; `string'
CONST	ENDS
;	COMDAT ??_C@_0L@LGDEPKMK@AppendChat@
CONST	SEGMENT
??_C@_0L@LGDEPKMK@AppendChat@ DB 'AppendChat', 00H	; `string'
CONST	ENDS
;	COMDAT ??_C@_0M@JAIPGIEI@GetLineStep@
CONST	SEGMENT
??_C@_0M@JAIPGIEI@GetLineStep@ DB 'GetLineStep', 00H	; `string'
CONST	ENDS
;	COMDAT ??_C@_0BE@ECGLNJIP@GetVisibleLineCount@
CONST	SEGMENT
??_C@_0BE@ECGLNJIP@GetVisibleLineCount@ DB 'GetVisibleLineCount', 00H ; `string'
CONST	ENDS
;	COMDAT ??_C@_0N@GBIDIHNF@GetLineCount@
CONST	SEGMENT
??_C@_0N@GBIDIHNF@GetLineCount@ DB 'GetLineCount', 00H	; `string'
CONST	ENDS
;	COMDAT ??_C@_09LEFDLNLA@SetEndPos@
CONST	SEGMENT
??_C@_09LEFDLNLA@SetEndPos@ DB 'SetEndPos', 00H		; `string'
CONST	ENDS
;	COMDAT ??_C@_0BA@PMFEPLLL@DisableChatMode@
CONST	SEGMENT
??_C@_0BA@PMFEPLLL@DisableChatMode@ DB 'DisableChatMode', 00H ; `string'
CONST	ENDS
;	COMDAT ??_C@_0P@CBALNCDJ@EnableChatMode@
CONST	SEGMENT
??_C@_0P@CBALNCDJ@EnableChatMode@ DB 'EnableChatMode', 00H ; `string'
CONST	ENDS
;	COMDAT ??_C@_0P@HJNLNPCF@ToggleChatMode@
CONST	SEGMENT
??_C@_0P@HJNLNPCF@ToggleChatMode@ DB 'ToggleChatMode', 00H ; `string'
CONST	ENDS
;	COMDAT ??_C@_07PCIEAKML@SetStep@
CONST	SEGMENT
??_C@_07PCIEAKML@SetStep@ DB 'SetStep', 00H		; `string'
CONST	ENDS
;	COMDAT ??_C@_09GACBKIFI@SetHeight@
CONST	SEGMENT
??_C@_09GACBKIFI@SetHeight@ DB 'SetHeight', 00H		; `string'
CONST	ENDS
;	COMDAT ??_C@_0M@GKIFPNAD@SetPosition@
CONST	SEGMENT
??_C@_0M@GKIFPNAD@SetPosition@ DB 'SetPosition', 00H	; `string'
CONST	ENDS
;	COMDAT ??_C@_0O@HLECNMMJ@SetBoardState@
CONST	SEGMENT
??_C@_0O@HLECNMMJ@SetBoardState@ DB 'SetBoardState', 00H ; `string'
CONST	ENDS
;	COMDAT ??_C@_06EPLDPNDB@Render@
CONST	SEGMENT
??_C@_06EPLDPNDB@Render@ DB 'Render', 00H		; `string'
CONST	ENDS
;	COMDAT ??_C@_06LMAGPFNF@Update@
CONST	SEGMENT
??_C@_06LMAGPFNF@Update@ DB 'Update', 00H		; `string'
CONST	ENDS
;	COMDAT ??_C@_0O@NIPGGDN@CreateChatSet@
CONST	SEGMENT
??_C@_0O@NIPGGDN@CreateChatSet@ DB 'CreateChatSet', 00H	; `string'
CONST	ENDS
;	COMDAT ??_C@_05LGELBCGM@Close@
CONST	SEGMENT
??_C@_05LGELBCGM@Close@ DB 'Close', 00H			; `string'
CONST	ENDS
;	COMDAT ??_C@_05MDNHABIA@Clear@
CONST	SEGMENT
??_C@_05MDNHABIA@Clear@ DB 'Clear', 00H			; `string'
CONST	ENDS
;	COMDAT ??_C@_0N@JBENFECF@SetChatColor@
CONST	SEGMENT
??_C@_0N@JBENFECF@SetChatColor@ DB 'SetChatColor', 00H	; `string'
CONST	ENDS
;	COMDAT ?s_methods@?1??initChat@@YAXXZ@4PAUPyMethodDef@@A
_DATA	SEGMENT
?s_methods@?1??initChat@@YAXXZ@4PAUPyMethodDef@@A DD FLAT:??_C@_0N@JBENFECF@SetChatColor@ ; `initChat'::`2'::s_methods
	DD	FLAT:?chatSetChatColor@@YAPAU_object@@PAU1@0@Z
	DD	01H
	ORG $+4
	DD	FLAT:??_C@_05MDNHABIA@Clear@
	DD	FLAT:?chatClear@@YAPAU_object@@PAU1@0@Z
	DD	01H
	ORG $+4
	DD	FLAT:??_C@_05LGELBCGM@Close@
	DD	FLAT:?chatClose@@YAPAU_object@@PAU1@0@Z
	DD	01H
	ORG $+4
	DD	FLAT:??_C@_0O@NIPGGDN@CreateChatSet@
	DD	FLAT:?chatCreateChatSet@@YAPAU_object@@PAU1@0@Z
	DD	01H
	ORG $+4
	DD	FLAT:??_C@_06LMAGPFNF@Update@
	DD	FLAT:?chatUpdate@@YAPAU_object@@PAU1@0@Z
	DD	01H
	ORG $+4
	DD	FLAT:??_C@_06EPLDPNDB@Render@
	DD	FLAT:?chatRender@@YAPAU_object@@PAU1@0@Z
	DD	01H
	ORG $+4
	DD	FLAT:??_C@_0O@HLECNMMJ@SetBoardState@
	DD	FLAT:?chatSetBoardState@@YAPAU_object@@PAU1@0@Z
	DD	01H
	ORG $+4
	DD	FLAT:??_C@_0M@GKIFPNAD@SetPosition@
	DD	FLAT:?chatSetPosition@@YAPAU_object@@PAU1@0@Z
	DD	01H
	ORG $+4
	DD	FLAT:??_C@_09GACBKIFI@SetHeight@
	DD	FLAT:?chatSetHeight@@YAPAU_object@@PAU1@0@Z
	DD	01H
	ORG $+4
	DD	FLAT:??_C@_07PCIEAKML@SetStep@
	DD	FLAT:?chatSetStep@@YAPAU_object@@PAU1@0@Z
	DD	01H
	ORG $+4
	DD	FLAT:??_C@_0P@HJNLNPCF@ToggleChatMode@
	DD	FLAT:?chatToggleChatMode@@YAPAU_object@@PAU1@0@Z
	DD	01H
	ORG $+4
	DD	FLAT:??_C@_0P@CBALNCDJ@EnableChatMode@
	DD	FLAT:?chatEnableChatMode@@YAPAU_object@@PAU1@0@Z
	DD	01H
	ORG $+4
	DD	FLAT:??_C@_0BA@PMFEPLLL@DisableChatMode@
	DD	FLAT:?chatDisableChatMode@@YAPAU_object@@PAU1@0@Z
	DD	01H
	ORG $+4
	DD	FLAT:??_C@_09LEFDLNLA@SetEndPos@
	DD	FLAT:?chatSetEndPos@@YAPAU_object@@PAU1@0@Z
	DD	01H
	ORG $+4
	DD	FLAT:??_C@_0N@GBIDIHNF@GetLineCount@
	DD	FLAT:?chatGetLineCount@@YAPAU_object@@PAU1@0@Z
	DD	01H
	ORG $+4
	DD	FLAT:??_C@_0BE@ECGLNJIP@GetVisibleLineCount@
	DD	FLAT:?chatGetVisibleLineCount@@YAPAU_object@@PAU1@0@Z
	DD	01H
	ORG $+4
	DD	FLAT:??_C@_0M@JAIPGIEI@GetLineStep@
	DD	FLAT:?chatGetLineStep@@YAPAU_object@@PAU1@0@Z
	DD	01H
	ORG $+4
	DD	FLAT:??_C@_0L@LGDEPKMK@AppendChat@
	DD	FLAT:?chatAppendChat@@YAPAU_object@@PAU1@0@Z
	DD	01H
	ORG $+4
	DD	FLAT:??_C@_0BE@OLLFFMAP@AppendChatWithDelay@
	DD	FLAT:?chatAppendChatWithDelay@@YAPAU_object@@PAU1@0@Z
	DD	01H
	ORG $+4
	DD	FLAT:??_C@_0BD@PGAGKLIB@ArrangeShowingChat@
	DD	FLAT:?chatArrangeShowingChat@@YAPAU_object@@PAU1@0@Z
	DD	01H
	ORG $+4
	DD	FLAT:??_C@_0BA@OBLLPMIK@IgnoreCharacter@
	DD	FLAT:?chatIgnoreCharacter@@YAPAU_object@@PAU1@0@Z
	DD	01H
	ORG $+4
	DD	FLAT:??_C@_0BC@BPLLIFOI@IsIgnoreCharacter@
	DD	FLAT:?chatIsIgnoreCharacter@@YAPAU_object@@PAU1@0@Z
	DD	01H
	ORG $+4
	DD	FLAT:??_C@_0O@EPNAKAMH@CreateWhisper@
	DD	FLAT:?chatCreateWhisper@@YAPAU_object@@PAU1@0@Z
	DD	01H
	ORG $+4
	DD	FLAT:??_C@_0O@MNHHDNCN@AppendWhisper@
	DD	FLAT:?chatAppendWhisper@@YAPAU_object@@PAU1@0@Z
	DD	01H
	ORG $+4
	DD	FLAT:??_C@_0O@HNBBBAHN@RenderWhisper@
	DD	FLAT:?chatRenderWhisper@@YAPAU_object@@PAU1@0@Z
	DD	01H
	ORG $+4
	DD	FLAT:??_C@_0BC@IEABADGD@SetWhisperBoxSize@
	DD	FLAT:?chatSetWhisperBoxSize@@YAPAU_object@@PAU1@0@Z
	DD	01H
	ORG $+4
	DD	FLAT:??_C@_0BD@NNNKEDJK@SetWhisperPosition@
	DD	FLAT:?chatSetWhisperPosition@@YAPAU_object@@PAU1@0@Z
	DD	01H
	ORG $+4
	DD	FLAT:??_C@_0N@FCHOFFAF@ClearWhisper@
	DD	FLAT:?chatClearWhisper@@YAPAU_object@@PAU1@0@Z
	DD	01H
	ORG $+4
	DD	FLAT:??_C@_0M@OFOGDKFP@InitWhisper@
	DD	FLAT:?chatInitWhisper@@YAPAU_object@@PAU1@0@Z
	DD	01H
	ORG $+4
	DD	FLAT:??_C@_0BF@BJFLHIAM@GetLinkFromHyperlink@
	DD	FLAT:?chatGetLinkFromHyperlink@@YAPAU_object@@PAU1@0@Z
	DD	01H
	ORG $+4
	DD	00H
	DD	00H
	DD	00H
	ORG $+4
_DATA	ENDS
;	COMDAT ??_C@_0BJ@GPGFNPLK@?$HMcfff1e6c0?$HMH?$CFs?$HMh?$FL?$CFs?$FN?$HMh?$HMr@
CONST	SEGMENT
??_C@_0BJ@GPGFNPLK@?$HMcfff1e6c0?$HMH?$CFs?$HMh?$FL?$CFs?$FN?$HMh?$HMr@ DB '|'
	DB	'cfff1e6c0|H%s|h[%s]|h|r', 00H		; `string'
CONST	ENDS
;	COMDAT ??_C@_0BJ@DABMGIOF@?$HMcffffc700?$HMH?$CFs?$HMh?$FL?$CFs?$FN?$HMh?$HMr@
CONST	SEGMENT
??_C@_0BJ@DABMGIOF@?$HMcffffc700?$HMH?$CFs?$HMh?$FL?$CFs?$FN?$HMh?$HMr@ DB '|'
	DB	'cffffc700|H%s|h[%s]|h|r', 00H		; `string'
CONST	ENDS
;	COMDAT ??_C@_06FAMCNHHL@?3?$CFx?3?$CFd@
CONST	SEGMENT
??_C@_06FAMCNHHL@?3?$CFx?3?$CFd@ DB ':%x:%d', 00H	; `string'
CONST	ENDS
;	COMDAT ??_C@_0BE@FGPADLIF@item?3?$CFx?3?$CFx?3?$CFx?3?$CFx?3?$CFx@
CONST	SEGMENT
??_C@_0BE@FGPADLIF@item?3?$CFx?3?$CFx?3?$CFx?3?$CFx?3?$CFx@ DB 'item:%x:%'
	DB	'x:%x:%x:%x', 00H				; `string'
CONST	ENDS
;	COMDAT ??_C@_01LKDEMHDF@s@
CONST	SEGMENT
??_C@_01LKDEMHDF@s@ DB 's', 00H				; `string'
CONST	ENDS
;	COMDAT ??_C@_04NHONDGDE@item@
CONST	SEGMENT
??_C@_04NHONDGDE@item@ DB 'item', 00H			; `string'
CONST	ENDS
;	COMDAT ??_C@_01JLIPDDHJ@?3@
CONST	SEGMENT
??_C@_01JLIPDDHJ@?3@ DB ':', 00H			; `string'
CONST	ENDS
;	COMDAT ??_C@_01KBJDNOO@i@
CONST	SEGMENT
??_C@_01KBJDNOO@i@ DB 'i', 00H				; `string'
CONST	ENDS
;	COMDAT ??_R1A@?0A@EA@bad_array_new_length@std@@8
rdata$r	SEGMENT
??_R1A@?0A@EA@bad_array_new_length@std@@8 DD FLAT:??_R0?AVbad_array_new_length@std@@@8 ; std::bad_array_new_length::`RTTI Base Class Descriptor at (0,-1,0,64)'
	DD	02H
	DD	00H
	DD	0ffffffffH
	DD	00H
	DD	040H
	DD	FLAT:??_R3bad_array_new_length@std@@8
rdata$r	ENDS
;	COMDAT ??_R2bad_array_new_length@std@@8
rdata$r	SEGMENT
??_R2bad_array_new_length@std@@8 DD FLAT:??_R1A@?0A@EA@bad_array_new_length@std@@8 ; std::bad_array_new_length::`RTTI Base Class Array'
	DD	FLAT:??_R1A@?0A@EA@bad_alloc@std@@8
	DD	FLAT:??_R1A@?0A@EA@exception@std@@8
rdata$r	ENDS
;	COMDAT ??_R3bad_array_new_length@std@@8
rdata$r	SEGMENT
??_R3bad_array_new_length@std@@8 DD 00H			; std::bad_array_new_length::`RTTI Class Hierarchy Descriptor'
	DD	00H
	DD	03H
	DD	FLAT:??_R2bad_array_new_length@std@@8
rdata$r	ENDS
;	COMDAT ??_R4bad_array_new_length@std@@6B@
rdata$r	SEGMENT
??_R4bad_array_new_length@std@@6B@ DD 00H		; std::bad_array_new_length::`RTTI Complete Object Locator'
	DD	00H
	DD	00H
	DD	FLAT:??_R0?AVbad_array_new_length@std@@@8
	DD	FLAT:??_R3bad_array_new_length@std@@8
rdata$r	ENDS
;	COMDAT ??_R1A@?0A@EA@bad_alloc@std@@8
rdata$r	SEGMENT
??_R1A@?0A@EA@bad_alloc@std@@8 DD FLAT:??_R0?AVbad_alloc@std@@@8 ; std::bad_alloc::`RTTI Base Class Descriptor at (0,-1,0,64)'
	DD	01H
	DD	00H
	DD	0ffffffffH
	DD	00H
	DD	040H
	DD	FLAT:??_R3bad_alloc@std@@8
rdata$r	ENDS
;	COMDAT ??_R2bad_alloc@std@@8
rdata$r	SEGMENT
??_R2bad_alloc@std@@8 DD FLAT:??_R1A@?0A@EA@bad_alloc@std@@8 ; std::bad_alloc::`RTTI Base Class Array'
	DD	FLAT:??_R1A@?0A@EA@exception@std@@8
rdata$r	ENDS
;	COMDAT ??_R3bad_alloc@std@@8
rdata$r	SEGMENT
??_R3bad_alloc@std@@8 DD 00H				; std::bad_alloc::`RTTI Class Hierarchy Descriptor'
	DD	00H
	DD	02H
	DD	FLAT:??_R2bad_alloc@std@@8
rdata$r	ENDS
;	COMDAT ??_R4bad_alloc@std@@6B@
rdata$r	SEGMENT
??_R4bad_alloc@std@@6B@ DD 00H				; std::bad_alloc::`RTTI Complete Object Locator'
	DD	00H
	DD	00H
	DD	FLAT:??_R0?AVbad_alloc@std@@@8
	DD	FLAT:??_R3bad_alloc@std@@8
rdata$r	ENDS
;	COMDAT ??_R1A@?0A@EA@exception@std@@8
rdata$r	SEGMENT
??_R1A@?0A@EA@exception@std@@8 DD FLAT:??_R0?AVexception@std@@@8 ; std::exception::`RTTI Base Class Descriptor at (0,-1,0,64)'
	DD	00H
	DD	00H
	DD	0ffffffffH
	DD	00H
	DD	040H
	DD	FLAT:??_R3exception@std@@8
rdata$r	ENDS
;	COMDAT ??_R2exception@std@@8
rdata$r	SEGMENT
??_R2exception@std@@8 DD FLAT:??_R1A@?0A@EA@exception@std@@8 ; std::exception::`RTTI Base Class Array'
rdata$r	ENDS
;	COMDAT ??_R3exception@std@@8
rdata$r	SEGMENT
??_R3exception@std@@8 DD 00H				; std::exception::`RTTI Class Hierarchy Descriptor'
	DD	00H
	DD	01H
	DD	FLAT:??_R2exception@std@@8
rdata$r	ENDS
;	COMDAT ??_R4exception@std@@6B@
rdata$r	SEGMENT
??_R4exception@std@@6B@ DD 00H				; std::exception::`RTTI Complete Object Locator'
	DD	00H
	DD	00H
	DD	FLAT:??_R0?AVexception@std@@@8
	DD	FLAT:??_R3exception@std@@8
rdata$r	ENDS
;	COMDAT ??_C@_00CNPNBAHC@@
CONST	SEGMENT
??_C@_00CNPNBAHC@@ DB 00H				; `string'
CONST	ENDS
;	COMDAT ??_C@_0BA@JFNIOLAK@string?5too?5long@
CONST	SEGMENT
??_C@_0BA@JFNIOLAK@string?5too?5long@ DB 'string too long', 00H ; `string'
CONST	ENDS
;	COMDAT __CT??_R0?AVexception@std@@@8??0exception@std@@QAE@ABV01@@Z12
xdata$x	SEGMENT
__CT??_R0?AVexception@std@@@8??0exception@std@@QAE@ABV01@@Z12 DD 00H
	DD	FLAT:??_R0?AVexception@std@@@8
	DD	00H
	DD	0ffffffffH
	ORG $+4
	DD	0cH
	DD	FLAT:??0exception@std@@QAE@ABV01@@Z
xdata$x	ENDS
;	COMDAT ??_R0?AVexception@std@@@8
data$r	SEGMENT
??_R0?AVexception@std@@@8 DD FLAT:??_7type_info@@6B@	; std::exception `RTTI Type Descriptor'
	DD	00H
	DB	'.?AVexception@std@@', 00H
data$r	ENDS
;	COMDAT __CT??_R0?AVbad_alloc@std@@@8??0bad_alloc@std@@QAE@ABV01@@Z12
xdata$x	SEGMENT
__CT??_R0?AVbad_alloc@std@@@8??0bad_alloc@std@@QAE@ABV01@@Z12 DD 010H
	DD	FLAT:??_R0?AVbad_alloc@std@@@8
	DD	00H
	DD	0ffffffffH
	ORG $+4
	DD	0cH
	DD	FLAT:??0bad_alloc@std@@QAE@ABV01@@Z
xdata$x	ENDS
;	COMDAT ??_R0?AVbad_alloc@std@@@8
data$r	SEGMENT
??_R0?AVbad_alloc@std@@@8 DD FLAT:??_7type_info@@6B@	; std::bad_alloc `RTTI Type Descriptor'
	DD	00H
	DB	'.?AVbad_alloc@std@@', 00H
data$r	ENDS
;	COMDAT __CT??_R0?AVbad_array_new_length@std@@@8??0bad_array_new_length@std@@QAE@ABV01@@Z12
xdata$x	SEGMENT
__CT??_R0?AVbad_array_new_length@std@@@8??0bad_array_new_length@std@@QAE@ABV01@@Z12 DD 00H
	DD	FLAT:??_R0?AVbad_array_new_length@std@@@8
	DD	00H
	DD	0ffffffffH
	ORG $+4
	DD	0cH
	DD	FLAT:??0bad_array_new_length@std@@QAE@ABV01@@Z
xdata$x	ENDS
;	COMDAT ??_R0?AVbad_array_new_length@std@@@8
data$r	SEGMENT
??_R0?AVbad_array_new_length@std@@@8 DD FLAT:??_7type_info@@6B@ ; std::bad_array_new_length `RTTI Type Descriptor'
	DD	00H
	DB	'.?AVbad_array_new_length@std@@', 00H
data$r	ENDS
;	COMDAT __CTA3?AVbad_array_new_length@std@@
xdata$x	SEGMENT
__CTA3?AVbad_array_new_length@std@@ DD 03H
	DD	FLAT:__CT??_R0?AVbad_array_new_length@std@@@8??0bad_array_new_length@std@@QAE@ABV01@@Z12
	DD	FLAT:__CT??_R0?AVbad_alloc@std@@@8??0bad_alloc@std@@QAE@ABV01@@Z12
	DD	FLAT:__CT??_R0?AVexception@std@@@8??0exception@std@@QAE@ABV01@@Z12
xdata$x	ENDS
;	COMDAT __TI3?AVbad_array_new_length@std@@
xdata$x	SEGMENT
__TI3?AVbad_array_new_length@std@@ DD 00H
	DD	FLAT:??1bad_array_new_length@std@@UAE@XZ
	DD	00H
	DD	FLAT:__CTA3?AVbad_array_new_length@std@@
xdata$x	ENDS
;	COMDAT ??_C@_0BF@KINCDENJ@bad?5array?5new?5length@
CONST	SEGMENT
??_C@_0BF@KINCDENJ@bad?5array?5new?5length@ DB 'bad array new length', 00H ; `string'
CONST	ENDS
;	COMDAT ??_7bad_array_new_length@std@@6B@
CONST	SEGMENT
??_7bad_array_new_length@std@@6B@ DD FLAT:??_R4bad_array_new_length@std@@6B@ ; std::bad_array_new_length::`vftable'
	DD	FLAT:??_Ebad_array_new_length@std@@UAEPAXI@Z
	DD	FLAT:?what@exception@std@@UBEPBDXZ
CONST	ENDS
;	COMDAT ??_7bad_alloc@std@@6B@
CONST	SEGMENT
??_7bad_alloc@std@@6B@ DD FLAT:??_R4bad_alloc@std@@6B@	; std::bad_alloc::`vftable'
	DD	FLAT:??_Ebad_alloc@std@@UAEPAXI@Z
	DD	FLAT:?what@exception@std@@UBEPBDXZ
CONST	ENDS
;	COMDAT ??_C@_0BC@EOODALEL@Unknown?5exception@
CONST	SEGMENT
??_C@_0BC@EOODALEL@Unknown?5exception@ DB 'Unknown exception', 00H ; `string'
CONST	ENDS
;	COMDAT ??_7exception@std@@6B@
CONST	SEGMENT
??_7exception@std@@6B@ DD FLAT:??_R4exception@std@@6B@	; std::exception::`vftable'
	DD	FLAT:??_Eexception@std@@UAEPAXI@Z
	DD	FLAT:?what@exception@std@@UBEPBDXZ
CONST	ENDS
;	COMDAT xdata$x
xdata$x	SEGMENT
__unwindtable$?chatGetLinkFromHyperlink@@YAPAU_object@@PAU1@0@Z DD 0ffffffffH
	DD	FLAT:__unwindfunclet$?chatGetLinkFromHyperlink@@YAPAU_object@@PAU1@0@Z$0
	DD	00H
	DD	FLAT:__unwindfunclet$?chatGetLinkFromHyperlink@@YAPAU_object@@PAU1@0@Z$1
	DD	01H
	DD	FLAT:__unwindfunclet$?chatGetLinkFromHyperlink@@YAPAU_object@@PAU1@0@Z$2
__ehfuncinfo$?chatGetLinkFromHyperlink@@YAPAU_object@@PAU1@0@Z DD 019930522H
	DD	03H
	DD	FLAT:__unwindtable$?chatGetLinkFromHyperlink@@YAPAU_object@@PAU1@0@Z
	DD	2 DUP(00H)
	DD	2 DUP(00H)
	DD	00H
	DD	01H
xdata$x	ENDS
;	COMDAT xdata$x
xdata$x	SEGMENT
__ehfuncinfo$??$_Deallocate@$07$0A@@std@@YAXPAXI@Z DD 019930522H
	DD	00H
	DD	00H
	DD	2 DUP(00H)
	DD	2 DUP(00H)
	DD	00H
	DD	05H
xdata$x	ENDS
;	COMDAT xdata$x
xdata$x	SEGMENT
__unwindtable$??0?$basic_string@DU?$char_traits@D@std@@V?$allocator@D@2@@std@@QAE@QBD@Z DD 0ffffffffH
	DD	FLAT:__unwindfunclet$??0?$basic_string@DU?$char_traits@D@std@@V?$allocator@D@2@@std@@QAE@QBD@Z$0
__ehfuncinfo$??0?$basic_string@DU?$char_traits@D@std@@V?$allocator@D@2@@std@@QAE@QBD@Z DD 019930522H
	DD	01H
	DD	FLAT:__unwindtable$??0?$basic_string@DU?$char_traits@D@std@@V?$allocator@D@2@@std@@QAE@QBD@Z
	DD	2 DUP(00H)
	DD	2 DUP(00H)
	DD	00H
	DD	01H
xdata$x	ENDS
; Function compile flags: /Odspy
; File C:\Program Files (x86)\Microsoft Visual Studio\2019\Community\VC\Tools\MSVC\14.28.29333\include\xmemory
; File C:\Program Files (x86)\Microsoft Visual Studio\2019\Community\VC\Tools\MSVC\14.28.29333\include\xstddef
; File C:\Program Files (x86)\Microsoft Visual Studio\2019\Community\VC\Tools\MSVC\14.28.29333\include\xstring
; File C:\Program Files (x86)\Microsoft Visual Studio\2019\Community\VC\Tools\MSVC\14.28.29333\include\xmemory
;	COMDAT ??$_Destroy_range@V?$allocator@V?$basic_string@DU?$char_traits@D@std@@V?$allocator@D@2@@std@@@std@@@std@@YAXPAV?$basic_string@DU?$char_traits@D@std@@V?$allocator@D@2@@0@QAV10@AAV?$allocator@V?$basic_string@DU?$char_traits@D@std@@V?$allocator@D@2@@std@@@0@@Z
_TEXT	SEGMENT
$T1 = -4						; size = 4
__First$ = 8						; size = 4
__Last$ = 12						; size = 4
__Al$ = 16						; size = 4
??$_Destroy_range@V?$allocator@V?$basic_string@DU?$char_traits@D@std@@V?$allocator@D@2@@std@@@std@@@std@@YAXPAV?$basic_string@DU?$char_traits@D@std@@V?$allocator@D@2@@0@QAV10@AAV?$allocator@V?$basic_string@DU?$char_traits@D@std@@V?$allocator@D@2@@std@@@0@@Z PROC ; std::_Destroy_range<std::allocator<std::basic_string<char,std::char_traits<char>,std::allocator<char> > > >, COMDAT

; 962  :     _Alloc_ptr_t<_Alloc> _First, const _Alloc_ptr_t<_Alloc> _Last, _Alloc& _Al) noexcept {

  00000	55		 push	 ebp
  00001	8b ec		 mov	 ebp, esp
  00003	51		 push	 ecx

; 963  :     // note that this is an optimization for debug mode codegen; in release mode the BE removes all of this
; 964  :     using _Ty = typename _Alloc::value_type;
; 965  :     if _CONSTEXPR_IF (!conjunction_v<is_trivially_destructible<_Ty>, _Uses_default_destroy<_Alloc, _Ty*>>) {
; 966  :         for (; _First != _Last; ++_First) {

  00004	eb 09		 jmp	 SHORT $LN4@Destroy_ra
$LN2@Destroy_ra:
  00006	8b 45 08	 mov	 eax, DWORD PTR __First$[ebp]
  00009	83 c0 18	 add	 eax, 24			; 00000018H
  0000c	89 45 08	 mov	 DWORD PTR __First$[ebp], eax
$LN4@Destroy_ra:
  0000f	8b 45 08	 mov	 eax, DWORD PTR __First$[ebp]
  00012	3b 45 0c	 cmp	 eax, DWORD PTR __Last$[ebp]
  00015	74 23		 je	 SHORT $LN5@Destroy_ra
; File C:\Program Files (x86)\Microsoft Visual Studio\2019\Community\VC\Tools\MSVC\14.28.29333\include\xstddef

; 289  :     return _Ptr;

  00017	8b 45 08	 mov	 eax, DWORD PTR __First$[ebp]
  0001a	89 45 fc	 mov	 DWORD PTR $T1[ebp], eax
; File C:\Program Files (x86)\Microsoft Visual Studio\2019\Community\VC\Tools\MSVC\14.28.29333\include\xstring

; 2801 :         _Tidy_deallocate();

  0001d	8b 4d fc	 mov	 ecx, DWORD PTR $T1[ebp]
  00020	e8 00 00 00 00	 call	 ?_Tidy_deallocate@?$basic_string@DU?$char_traits@D@std@@V?$allocator@D@2@@std@@AAEXXZ ; std::basic_string<char,std::char_traits<char>,std::allocator<char> >::_Tidy_deallocate
  00025	33 c0		 xor	 eax, eax
  00027	83 e0 01	 and	 eax, 1
  0002a	74 0c		 je	 SHORT $LN9@Destroy_ra
  0002c	6a 18		 push	 24			; 00000018H
  0002e	ff 75 fc	 push	 DWORD PTR $T1[ebp]
  00031	e8 00 00 00 00	 call	 ??3@YAXPAXI@Z		; operator delete
  00036	59		 pop	 ecx
  00037	59		 pop	 ecx
$LN9@Destroy_ra:
; File C:\Program Files (x86)\Microsoft Visual Studio\2019\Community\VC\Tools\MSVC\14.28.29333\include\xmemory

; 968  :         }

  00038	eb cc		 jmp	 SHORT $LN2@Destroy_ra
$LN5@Destroy_ra:

; 969  :     }
; 970  : }

  0003a	c9		 leave
  0003b	c3		 ret	 0
??$_Destroy_range@V?$allocator@V?$basic_string@DU?$char_traits@D@std@@V?$allocator@D@2@@std@@@std@@@std@@YAXPAV?$basic_string@DU?$char_traits@D@std@@V?$allocator@D@2@@0@QAV10@AAV?$allocator@V?$basic_string@DU?$char_traits@D@std@@V?$allocator@D@2@@std@@@0@@Z ENDP ; std::_Destroy_range<std::allocator<std::basic_string<char,std::char_traits<char>,std::allocator<char> > > >
_TEXT	ENDS
; Function compile flags: /Odspy
; File D:\Metin2 Server Files\mainline\SRC_2014\Metin2Client\UserInterface\PythonChatModule.cpp
; File C:\Program Files (x86)\Microsoft Visual Studio\2019\Community\VC\Tools\MSVC\14.28.29333\include\vector
; File C:\Program Files (x86)\Microsoft Visual Studio\2019\Community\VC\Tools\MSVC\14.28.29333\include\xmemory
; File D:\Metin2 Server Files\mainline\SRC_2014\Metin2Client\UserInterface\PythonChatModule.cpp
; File C:\Program Files (x86)\Microsoft Visual Studio\2019\Community\VC\Tools\MSVC\14.28.29333\include\xstring
; File C:\Program Files (x86)\Microsoft Visual Studio\2019\Community\VC\Tools\MSVC\14.28.29333\include\vector
; File D:\Metin2 Server Files\mainline\SRC_2014\Metin2Client\UserInterface\PythonChatModule.cpp
; File C:\Program Files (x86)\Microsoft Visual Studio\2019\Community\VC\Tools\MSVC\14.28.29333\include\vector
; File D:\Metin2 Server Files\mainline\SRC_2014\Metin2Client\UserInterface\PythonChatModule.cpp
; File C:\Program Files (x86)\Microsoft Visual Studio\2019\Community\VC\Tools\MSVC\14.28.29333\include\vector
; File D:\Metin2 Server Files\mainline\SRC_2014\Metin2Client\UserInterface\PythonChatModule.cpp
; File C:\Program Files (x86)\Microsoft Visual Studio\2019\Community\VC\Tools\MSVC\14.28.29333\include\xstring
; File D:\Metin2 Server Files\mainline\SRC_2014\Metin2Client\UserInterface\PythonChatModule.cpp
; File C:\Program Files (x86)\Microsoft Visual Studio\2019\Community\VC\Tools\MSVC\14.28.29333\include\vector
; File C:\Program Files (x86)\Microsoft Visual Studio\2019\Community\VC\Tools\MSVC\14.28.29333\include\xstring
; File D:\Metin2 Server Files\mainline\SRC_2014\Metin2Client\UserInterface\PythonChatModule.cpp
; File D:\Metin2 Server Files\mainline\SRC_2014\Metin2Client\eterBase\Utils.h
; File D:\Metin2 Server Files\mainline\SRC_2014\Metin2Client\eterBase\Singleton.h
; File D:\Metin2 Server Files\mainline\SRC_2014\Metin2Client\UserInterface\PythonChatModule.cpp
; File C:\Program Files (x86)\Microsoft Visual Studio\2019\Community\VC\Tools\MSVC\14.28.29333\include\vector
; File C:\Program Files (x86)\Microsoft Visual Studio\2019\Community\VC\Tools\MSVC\14.28.29333\include\xstring
; File D:\Metin2 Server Files\mainline\SRC_2014\Metin2Client\UserInterface\PythonChatModule.cpp
; File D:\Metin2 Server Files\mainline\SRC_2014\Metin2Client\eterBase\Utils.h
; File C:\Program Files (x86)\Microsoft Visual Studio\2019\Community\VC\Tools\MSVC\14.28.29333\include\vector
; File C:\Program Files (x86)\Microsoft Visual Studio\2019\Community\VC\Tools\MSVC\14.28.29333\include\xstring
; File D:\Metin2 Server Files\mainline\SRC_2014\Metin2Client\UserInterface\PythonChatModule.cpp
; File D:\Metin2 Server Files\mainline\SRC_2014\Metin2Client\eterBase\Utils.h
; File C:\Program Files (x86)\Microsoft Visual Studio\2019\Community\VC\Tools\MSVC\14.28.29333\include\vector
; File C:\Program Files (x86)\Microsoft Visual Studio\2019\Community\VC\Tools\MSVC\14.28.29333\include\xstring
; File D:\Metin2 Server Files\mainline\SRC_2014\Metin2Client\UserInterface\PythonChatModule.cpp
; File D:\Metin2 Server Files\mainline\SRC_2014\Metin2Client\eterBase\Utils.h
; File C:\Program Files (x86)\Microsoft Visual Studio\2019\Community\VC\Tools\MSVC\14.28.29333\include\vector
; File D:\Metin2 Server Files\mainline\SRC_2014\Metin2Client\UserInterface\PythonChatModule.cpp
; File D:\Metin2 Server Files\mainline\SRC_2014\Metin2Client\eterBase\Utils.h
; File C:\Program Files (x86)\Microsoft Visual Studio\2019\Community\VC\Tools\MSVC\14.28.29333\include\vector
; File D:\Metin2 Server Files\mainline\SRC_2014\Metin2Client\UserInterface\PythonChatModule.cpp
; File D:\Metin2 Server Files\mainline\SRC_2014\Metin2Client\eterBase\Utils.h
; File D:\Metin2 Server Files\mainline\SRC_2014\Metin2Client\UserInterface\PythonChatModule.cpp
; File C:\Program Files (x86)\Microsoft Visual Studio\2019\Community\VC\Tools\MSVC\14.28.29333\include\vector
; File D:\Metin2 Server Files\mainline\SRC_2014\Metin2Client\UserInterface\PythonChatModule.cpp
; File C:\Program Files (x86)\Microsoft Visual Studio\2019\Community\VC\Tools\MSVC\14.28.29333\include\vector
; File D:\Metin2 Server Files\mainline\SRC_2014\Metin2Client\UserInterface\PythonChatModule.cpp
; File C:\Program Files (x86)\Microsoft Visual Studio\2019\Community\VC\Tools\MSVC\14.28.29333\include\vector
; File D:\Metin2 Server Files\mainline\SRC_2014\Metin2Client\UserInterface\PythonChatModule.cpp
; File C:\Program Files (x86)\Microsoft Visual Studio\2019\Community\VC\Tools\MSVC\14.28.29333\include\vector
; File D:\Metin2 Server Files\mainline\SRC_2014\Metin2Client\UserInterface\PythonChatModule.cpp
; File D:\Metin2 Server Files\mainline\SRC_2014\Metin2Client\eterBase\Utils.h
; File D:\Metin2 Server Files\mainline\SRC_2014\Metin2Client\UserInterface\PythonChatModule.cpp
; File C:\Program Files (x86)\Microsoft Visual Studio\2019\Community\VC\Tools\MSVC\14.28.29333\include\vector
; File D:\Metin2 Server Files\mainline\SRC_2014\Metin2Client\UserInterface\PythonChatModule.cpp
; File C:\Program Files (x86)\Microsoft Visual Studio\2019\Community\VC\Tools\MSVC\14.28.29333\include\xstring
; File D:\Metin2 Server Files\mainline\SRC_2014\Metin2Client\UserInterface\PythonChatModule.cpp
; File C:\Program Files (x86)\Microsoft Visual Studio\2019\Community\VC\Tools\MSVC\14.28.29333\include\vector
; File D:\Metin2 Server Files\mainline\SRC_2014\Metin2Client\UserInterface\PythonChatModule.cpp
; File C:\Program Files (x86)\Microsoft Visual Studio\2019\Community\VC\Tools\MSVC\14.28.29333\include\xstring
; File D:\Metin2 Server Files\mainline\SRC_2014\Metin2Client\UserInterface\PythonChatModule.cpp
;	COMDAT ?chatGetLinkFromHyperlink@@YAPAU_object@@PAU1@0@Z
_TEXT	SEGMENT
$T2 = -316						; size = 4
$T3 = -312						; size = 4
$T4 = -308						; size = 4
__My_data$5 = -304					; size = 4
_this$ = -300						; size = 4
$T6 = -296						; size = 4
$T7 = -292						; size = 4
$T8 = -288						; size = 4
_t$9 = -284						; size = 4
$T10 = -280						; size = 4
__My_data$11 = -276					; size = 4
__My_data$12 = -272					; size = 4
$T13 = -268						; size = 4
$T14 = -264						; size = 4
_t$15 = -260						; size = 4
$T16 = -256						; size = 4
__My_data$17 = -252					; size = 4
_t$18 = -248						; size = 4
_szHyperlink$ = -244					; size = 4
__My_data$19 = -240					; size = 4
_t$20 = -236						; size = 4
$T21 = -232						; size = 4
$T22 = -228						; size = 4
__My_data$23 = -224					; size = 4
_t$24 = -220						; size = 4
$T25 = -216						; size = 4
$T26 = -212						; size = 4
__My_data$27 = -208					; size = 4
_t$28 = -204						; size = 4
$T29 = -200						; size = 4
$T30 = -196						; size = 4
__My_data$31 = -192					; size = 4
$T32 = -188						; size = 4
_t$33 = -184						; size = 4
$T34 = -180						; size = 4
$T35 = -176						; size = 4
__My_data$36 = -172					; size = 4
$T37 = -168						; size = 4
$T38 = -164						; size = 4
__My_data$39 = -160					; size = 4
__My_data$40 = -156					; size = 4
$T41 = -152						; size = 4
$T42 = -148						; size = 4
$T43 = -144						; size = 4
$T44 = -140						; size = 4
$T45 = -136						; size = 4
$T46 = -132						; size = 4
__My_data$47 = -128					; size = 4
_pItemData$48 = -124					; size = 4
_len$49 = -120						; size = 4
_results$ = -116					; size = 12
_y$50 = -104						; size = 4
_y$51 = -100						; size = 4
_y$52 = -96						; size = 4
_y$53 = -92						; size = 4
_y$54 = -88						; size = 4
_i$55 = -84						; size = 4
_y$56 = -80						; size = 4
_y$57 = -76						; size = 4
_x$58 = -72						; size = 4
_x$59 = -68						; size = 4
_x$60 = -64						; size = 4
_x$61 = -60						; size = 4
_x$62 = -56						; size = 4
_x$63 = -52						; size = 4
_x$64 = -48						; size = 4
_isAttr$65 = -41					; size = 1
_s$ = -40						; size = 4
_s$ = -36						; size = 4
_s$ = -32						; size = 4
_s$ = -28						; size = 4
_s$ = -24						; size = 4
_s$ = -20						; size = 4
_s$ = -16						; size = 4
__$EHRec$ = -12						; size = 12
$T66 = 0						; size = 24
_stHyperlink$ = 24					; size = 24
_buf$67 = 48						; size = 1024
_itemlink$68 = 1072					; size = 256
__$ArrayPad$ = 1328					; size = 4
_poSelf$ = 1340						; size = 4
_poArgs$ = 1344						; size = 4
?chatGetLinkFromHyperlink@@YAPAU_object@@PAU1@0@Z PROC	; chatGetLinkFromHyperlink, COMDAT

; 394  : {

  00000	55		 push	 ebp
  00001	8d ac 24 cc fa
	ff ff		 lea	 ebp, DWORD PTR [esp-1332]
  00008	81 ec 34 05 00
	00		 sub	 esp, 1332		; 00000534H
  0000e	6a ff		 push	 -1
  00010	68 00 00 00 00	 push	 __ehhandler$?chatGetLinkFromHyperlink@@YAPAU_object@@PAU1@0@Z
  00015	64 a1 00 00 00
	00		 mov	 eax, DWORD PTR fs:0
  0001b	50		 push	 eax
  0001c	81 ec 30 01 00
	00		 sub	 esp, 304		; 00000130H
  00022	a1 00 00 00 00	 mov	 eax, DWORD PTR ___security_cookie
  00027	33 c5		 xor	 eax, ebp
  00029	89 85 30 05 00
	00		 mov	 DWORD PTR __$ArrayPad$[ebp], eax
  0002f	50		 push	 eax
  00030	8d 45 f4	 lea	 eax, DWORD PTR __$EHRec$[ebp]
  00033	64 a3 00 00 00
	00		 mov	 DWORD PTR fs:0, eax

; 395  : 	char * szHyperlink;
; 396  : 	
; 397  : 	if (!PyTuple_GetString(poArgs, 0, &szHyperlink))

  00039	8d 85 0c ff ff
	ff		 lea	 eax, DWORD PTR _szHyperlink$[ebp]
  0003f	50		 push	 eax
  00040	6a 00		 push	 0
  00042	ff b5 40 05 00
	00		 push	 DWORD PTR _poArgs$[ebp]
  00048	e8 00 00 00 00	 call	 ?PyTuple_GetString@@YA_NPAU_object@@HPAPAD@Z ; PyTuple_GetString
  0004d	83 c4 0c	 add	 esp, 12			; 0000000cH
  00050	0f b6 c0	 movzx	 eax, al
  00053	85 c0		 test	 eax, eax
  00055	75 0d		 jne	 SHORT $LN5@chatGetLin

; 398  : 		return Py_BuildException();

  00057	6a 00		 push	 0
  00059	e8 00 00 00 00	 call	 ?Py_BuildException@@YAPAU_object@@PBDZZ ; Py_BuildException
  0005e	59		 pop	 ecx
  0005f	e9 64 0a 00 00	 jmp	 $LN1@chatGetLin
$LN5@chatGetLin:

; 399  : 
; 400  : 	std::string stHyperlink(szHyperlink);

  00064	ff b5 0c ff ff
	ff		 push	 DWORD PTR _szHyperlink$[ebp]
  0006a	8d 4d 18	 lea	 ecx, DWORD PTR _stHyperlink$[ebp]
  0006d	e8 00 00 00 00	 call	 ??0?$basic_string@DU?$char_traits@D@std@@V?$allocator@D@2@@std@@QAE@QBD@Z ; std::basic_string<char,std::char_traits<char>,std::allocator<char> >::basic_string<char,std::char_traits<char>,std::allocator<char> >
  00072	83 65 fc 00	 and	 DWORD PTR __$EHRec$[ebp+8], 0
; File C:\Program Files (x86)\Microsoft Visual Studio\2019\Community\VC\Tools\MSVC\14.28.29333\include\vector

; 445  :     vector() noexcept(is_nothrow_default_constructible_v<_Alty>) : _Mypair(_Zero_then_variadic_args_t{}) {

  00076	8d 45 8c	 lea	 eax, DWORD PTR _results$[ebp]
  00079	89 85 d4 fe ff
	ff		 mov	 DWORD PTR _this$[ebp], eax
; File C:\Program Files (x86)\Microsoft Visual Studio\2019\Community\VC\Tools\MSVC\14.28.29333\include\xmemory

; 1339 :         : _Ty1(), _Myval2(_STD forward<_Other2>(_Val2)...) {}

  0007f	8b 8d d4 fe ff
	ff		 mov	 ecx, DWORD PTR _this$[ebp]
  00085	e8 00 00 00 00	 call	 ??0?$_Vector_val@U?$_Simple_types@V?$basic_string@DU?$char_traits@D@std@@V?$allocator@D@2@@std@@@std@@@std@@QAE@XZ ; std::_Vector_val<std::_Simple_types<std::basic_string<char,std::char_traits<char>,std::allocator<char> > > >::_Vector_val<std::_Simple_types<std::basic_string<char,std::char_traits<char>,std::allocator<char> > > >
; File D:\Metin2 Server Files\mainline\SRC_2014\Metin2Client\UserInterface\PythonChatModule.cpp

; 401  : 	std::vector<std::string> results;

  0008a	c6 45 fc 01	 mov	 BYTE PTR __$EHRec$[ebp+8], 1

; 402  : 
; 403  : 	split_string(stHyperlink, ":", results, false);

  0008e	68 00 00 00 00	 push	 OFFSET ??_C@_01JLIPDDHJ@?3@
  00093	8d 4d 00	 lea	 ecx, DWORD PTR $T66[ebp]
  00096	e8 00 00 00 00	 call	 ??0?$basic_string@DU?$char_traits@D@std@@V?$allocator@D@2@@std@@QAE@QBD@Z ; std::basic_string<char,std::char_traits<char>,std::allocator<char> >::basic_string<char,std::char_traits<char>,std::allocator<char> >
  0009b	c6 45 fc 02	 mov	 BYTE PTR __$EHRec$[ebp+8], 2
  0009f	6a 00		 push	 0
  000a1	8d 45 8c	 lea	 eax, DWORD PTR _results$[ebp]
  000a4	50		 push	 eax
  000a5	8d 45 00	 lea	 eax, DWORD PTR $T66[ebp]
  000a8	50		 push	 eax
  000a9	8d 45 18	 lea	 eax, DWORD PTR _stHyperlink$[ebp]
  000ac	50		 push	 eax
  000ad	e8 00 00 00 00	 call	 ?split_string@@YAHABV?$basic_string@DU?$char_traits@D@std@@V?$allocator@D@2@@std@@0AAV?$vector@V?$basic_string@DU?$char_traits@D@std@@V?$allocator@D@2@@std@@V?$allocator@V?$basic_string@DU?$char_traits@D@std@@V?$allocator@D@2@@std@@@2@@2@_N@Z ; split_string
  000b2	83 c4 10	 add	 esp, 16			; 00000010H
  000b5	c6 45 fc 01	 mov	 BYTE PTR __$EHRec$[ebp+8], 1
; File C:\Program Files (x86)\Microsoft Visual Studio\2019\Community\VC\Tools\MSVC\14.28.29333\include\xstring

; 2801 :         _Tidy_deallocate();

  000b9	8d 4d 00	 lea	 ecx, DWORD PTR $T66[ebp]
  000bc	e8 00 00 00 00	 call	 ?_Tidy_deallocate@?$basic_string@DU?$char_traits@D@std@@V?$allocator@D@2@@std@@AAEXXZ ; std::basic_string<char,std::char_traits<char>,std::allocator<char> >::_Tidy_deallocate
; File C:\Program Files (x86)\Microsoft Visual Studio\2019\Community\VC\Tools\MSVC\14.28.29333\include\vector

; 1498 :         auto& _My_data = _Mypair._Myval2;

  000c1	8d 45 8c	 lea	 eax, DWORD PTR _results$[ebp]
  000c4	89 85 d0 fe ff
	ff		 mov	 DWORD PTR __My_data$5[ebp], eax

; 1504 :         return _My_data._Myfirst[_Pos];

  000ca	33 c0		 xor	 eax, eax
  000cc	6b c0 18	 imul	 eax, eax, 24
  000cf	8b 8d d0 fe ff
	ff		 mov	 ecx, DWORD PTR __My_data$5[ebp]
  000d5	03 01		 add	 eax, DWORD PTR [ecx]
  000d7	89 85 cc fe ff
	ff		 mov	 DWORD PTR $T4[ebp], eax
; File D:\Metin2 Server Files\mainline\SRC_2014\Metin2Client\UserInterface\PythonChatModule.cpp

; 406  : 	if (0 == results[0].compare("item"))

  000dd	68 00 00 00 00	 push	 OFFSET ??_C@_04NHONDGDE@item@
  000e2	8b 8d cc fe ff
	ff		 mov	 ecx, DWORD PTR $T4[ebp]
  000e8	e8 00 00 00 00	 call	 ?compare@?$basic_string@DU?$char_traits@D@std@@V?$allocator@D@2@@std@@QBEHQBD@Z ; std::basic_string<char,std::char_traits<char>,std::allocator<char> >::compare
  000ed	85 c0		 test	 eax, eax
  000ef	0f 85 9d 09 00
	00		 jne	 $LN6@chatGetLin
; File C:\Program Files (x86)\Microsoft Visual Studio\2019\Community\VC\Tools\MSVC\14.28.29333\include\vector

; 1483 :         auto& _My_data = _Mypair._Myval2;

  000f5	8d 45 8c	 lea	 eax, DWORD PTR _results$[ebp]
  000f8	89 45 80	 mov	 DWORD PTR __My_data$47[ebp], eax

; 1484 :         return static_cast<size_type>(_My_data._Mylast - _My_data._Myfirst);

  000fb	8b 45 80	 mov	 eax, DWORD PTR __My_data$47[ebp]
  000fe	8b 4d 80	 mov	 ecx, DWORD PTR __My_data$47[ebp]
  00101	8b 40 04	 mov	 eax, DWORD PTR [eax+4]
  00104	2b 01		 sub	 eax, DWORD PTR [ecx]
  00106	99		 cdq
  00107	6a 18		 push	 24			; 00000018H
  00109	59		 pop	 ecx
  0010a	f7 f9		 idiv	 ecx
  0010c	89 85 c8 fe ff
	ff		 mov	 DWORD PTR $T3[ebp], eax
; File D:\Metin2 Server Files\mainline\SRC_2014\Metin2Client\UserInterface\PythonChatModule.cpp

; 408  : 		if (results.size() < 6)

  00112	83 bd c8 fe ff
	ff 06		 cmp	 DWORD PTR $T3[ebp], 6
  00119	73 3b		 jae	 SHORT $LN7@chatGetLin

; 409  : 			return Py_BuildValue("s", "");

  0011b	68 00 00 00 00	 push	 OFFSET ??_C@_00CNPNBAHC@@
  00120	68 00 00 00 00	 push	 OFFSET ??_C@_01LKDEMHDF@s@
  00125	ff 15 00 00 00
	00		 call	 DWORD PTR __imp__Py_BuildValue
  0012b	59		 pop	 ecx
  0012c	59		 pop	 ecx
  0012d	89 85 58 ff ff
	ff		 mov	 DWORD PTR $T37[ebp], eax
  00133	c6 45 fc 00	 mov	 BYTE PTR __$EHRec$[ebp+8], 0
; File C:\Program Files (x86)\Microsoft Visual Studio\2019\Community\VC\Tools\MSVC\14.28.29333\include\vector

; 673  :         _Tidy();

  00137	8d 4d 8c	 lea	 ecx, DWORD PTR _results$[ebp]
  0013a	e8 00 00 00 00	 call	 ?_Tidy@?$vector@V?$basic_string@DU?$char_traits@D@std@@V?$allocator@D@2@@std@@V?$allocator@V?$basic_string@DU?$char_traits@D@std@@V?$allocator@D@2@@std@@@2@@std@@AAEXXZ ; std::vector<std::basic_string<char,std::char_traits<char>,std::allocator<char> >,std::allocator<std::basic_string<char,std::char_traits<char>,std::allocator<char> > > >::_Tidy
; File D:\Metin2 Server Files\mainline\SRC_2014\Metin2Client\UserInterface\PythonChatModule.cpp

; 409  : 			return Py_BuildValue("s", "");

  0013f	83 4d fc ff	 or	 DWORD PTR __$EHRec$[ebp+8], -1
; File C:\Program Files (x86)\Microsoft Visual Studio\2019\Community\VC\Tools\MSVC\14.28.29333\include\xstring

; 2801 :         _Tidy_deallocate();

  00143	8d 4d 18	 lea	 ecx, DWORD PTR _stHyperlink$[ebp]
  00146	e8 00 00 00 00	 call	 ?_Tidy_deallocate@?$basic_string@DU?$char_traits@D@std@@V?$allocator@D@2@@std@@AAEXXZ ; std::basic_string<char,std::char_traits<char>,std::allocator<char> >::_Tidy_deallocate
; File D:\Metin2 Server Files\mainline\SRC_2014\Metin2Client\UserInterface\PythonChatModule.cpp

; 409  : 			return Py_BuildValue("s", "");

  0014b	8b 85 58 ff ff
	ff		 mov	 eax, DWORD PTR $T37[ebp]
  00151	e9 72 09 00 00	 jmp	 $LN1@chatGetLin
$LN7@chatGetLin:

; 410  : 
; 411  : 		CItemData * pItemData = NULL;

  00156	83 65 84 00	 and	 DWORD PTR _pItemData$48[ebp], 0
; File C:\Program Files (x86)\Microsoft Visual Studio\2019\Community\VC\Tools\MSVC\14.28.29333\include\vector

; 1498 :         auto& _My_data = _Mypair._Myval2;

  0015a	8d 45 8c	 lea	 eax, DWORD PTR _results$[ebp]
  0015d	89 85 54 ff ff
	ff		 mov	 DWORD PTR __My_data$36[ebp], eax

; 1504 :         return _My_data._Myfirst[_Pos];

  00163	33 c0		 xor	 eax, eax
  00165	40		 inc	 eax
  00166	6b c0 18	 imul	 eax, eax, 24
  00169	8b 8d 54 ff ff
	ff		 mov	 ecx, DWORD PTR __My_data$36[ebp]
  0016f	03 01		 add	 eax, DWORD PTR [ecx]
  00171	89 85 50 ff ff
	ff		 mov	 DWORD PTR $T35[ebp], eax
; File C:\Program Files (x86)\Microsoft Visual Studio\2019\Community\VC\Tools\MSVC\14.28.29333\include\xstring

; 3752 :         return _Mypair._Myval2._Myptr();

  00177	8b 8d 50 ff ff
	ff		 mov	 ecx, DWORD PTR $T35[ebp]
  0017d	e8 00 00 00 00	 call	 ?_Myptr@?$_String_val@U?$_Simple_types@D@std@@@std@@QBEPBDXZ ; std::_String_val<std::_Simple_types<char> >::_Myptr
  00182	89 85 4c ff ff
	ff		 mov	 DWORD PTR $T34[ebp], eax
; File D:\Metin2 Server Files\mainline\SRC_2014\Metin2Client\UserInterface\PythonChatModule.cpp

; 413  : 		if (CItemManager::Instance().GetItemDataPointer(htoi(results[1].c_str()), &pItemData))

  00188	8b 85 4c ff ff
	ff		 mov	 eax, DWORD PTR $T34[ebp]
  0018e	89 45 f0	 mov	 DWORD PTR _s$[ebp], eax
; File D:\Metin2 Server Files\mainline\SRC_2014\Metin2Client\eterBase\Utils.h

; 192  :     const char *t = s;

  00191	8b 45 f0	 mov	 eax, DWORD PTR _s$[ebp]
  00194	89 85 48 ff ff
	ff		 mov	 DWORD PTR _t$33[ebp], eax

; 193  :     int x = 0, y = 1;

  0019a	83 65 d0 00	 and	 DWORD PTR _x$64[ebp], 0
  0019e	c7 45 b4 01 00
	00 00		 mov	 DWORD PTR _y$57[ebp], 1

; 194  :     s += strlen(s);

  001a5	ff 75 f0	 push	 DWORD PTR _s$[ebp]
  001a8	e8 00 00 00 00	 call	 _strlen
  001ad	59		 pop	 ecx
  001ae	03 45 f0	 add	 eax, DWORD PTR _s$[ebp]
  001b1	89 45 f0	 mov	 DWORD PTR _s$[ebp], eax
$LN108@chatGetLin:

; 195  : 
; 196  :     while (t <= --s)

  001b4	8b 45 f0	 mov	 eax, DWORD PTR _s$[ebp]
  001b7	48		 dec	 eax
  001b8	89 45 f0	 mov	 DWORD PTR _s$[ebp], eax
  001bb	8b 85 48 ff ff
	ff		 mov	 eax, DWORD PTR _t$33[ebp]
  001c1	3b 45 f0	 cmp	 eax, DWORD PTR _s$[ebp]
  001c4	0f 87 98 00 00
	00		 ja	 $LN109@chatGetLin

; 197  :     {
; 198  : 		if ('0' <= *s && *s <= '9')

  001ca	8b 45 f0	 mov	 eax, DWORD PTR _s$[ebp]
  001cd	0f be 00	 movsx	 eax, BYTE PTR [eax]
  001d0	83 f8 30	 cmp	 eax, 48			; 00000030H
  001d3	7c 20		 jl	 SHORT $LN110@chatGetLin
  001d5	8b 45 f0	 mov	 eax, DWORD PTR _s$[ebp]
  001d8	0f be 00	 movsx	 eax, BYTE PTR [eax]
  001db	83 f8 39	 cmp	 eax, 57			; 00000039H
  001de	7f 15		 jg	 SHORT $LN110@chatGetLin

; 199  :             x += y * (*s - '0');

  001e0	8b 45 f0	 mov	 eax, DWORD PTR _s$[ebp]
  001e3	0f be 00	 movsx	 eax, BYTE PTR [eax]
  001e6	83 e8 30	 sub	 eax, 48			; 00000030H
  001e9	0f af 45 b4	 imul	 eax, DWORD PTR _y$57[ebp]
  001ed	03 45 d0	 add	 eax, DWORD PTR _x$64[ebp]
  001f0	89 45 d0	 mov	 DWORD PTR _x$64[ebp], eax
  001f3	eb 5f		 jmp	 SHORT $LN111@chatGetLin
$LN110@chatGetLin:

; 200  :         else if ('a' <= *s && *s <= 'f')

  001f5	8b 45 f0	 mov	 eax, DWORD PTR _s$[ebp]
  001f8	0f be 00	 movsx	 eax, BYTE PTR [eax]
  001fb	83 f8 61	 cmp	 eax, 97			; 00000061H
  001fe	7c 20		 jl	 SHORT $LN112@chatGetLin
  00200	8b 45 f0	 mov	 eax, DWORD PTR _s$[ebp]
  00203	0f be 00	 movsx	 eax, BYTE PTR [eax]
  00206	83 f8 66	 cmp	 eax, 102		; 00000066H
  00209	7f 15		 jg	 SHORT $LN112@chatGetLin

; 201  :             x += y * (*s - 'a' + 10);

  0020b	8b 45 f0	 mov	 eax, DWORD PTR _s$[ebp]
  0020e	0f be 00	 movsx	 eax, BYTE PTR [eax]
  00211	83 e8 57	 sub	 eax, 87			; 00000057H
  00214	0f af 45 b4	 imul	 eax, DWORD PTR _y$57[ebp]
  00218	03 45 d0	 add	 eax, DWORD PTR _x$64[ebp]
  0021b	89 45 d0	 mov	 DWORD PTR _x$64[ebp], eax
  0021e	eb 34		 jmp	 SHORT $LN111@chatGetLin
$LN112@chatGetLin:

; 202  :         else if ('A' <= *s && *s <= 'F')

  00220	8b 45 f0	 mov	 eax, DWORD PTR _s$[ebp]
  00223	0f be 00	 movsx	 eax, BYTE PTR [eax]
  00226	83 f8 41	 cmp	 eax, 65			; 00000041H
  00229	7c 20		 jl	 SHORT $LN114@chatGetLin
  0022b	8b 45 f0	 mov	 eax, DWORD PTR _s$[ebp]
  0022e	0f be 00	 movsx	 eax, BYTE PTR [eax]
  00231	83 f8 46	 cmp	 eax, 70			; 00000046H
  00234	7f 15		 jg	 SHORT $LN114@chatGetLin

; 203  :             x += y * (10 + *s - 'A');

  00236	8b 45 f0	 mov	 eax, DWORD PTR _s$[ebp]
  00239	0f be 00	 movsx	 eax, BYTE PTR [eax]
  0023c	83 e8 37	 sub	 eax, 55			; 00000037H
  0023f	0f af 45 b4	 imul	 eax, DWORD PTR _y$57[ebp]
  00243	03 45 d0	 add	 eax, DWORD PTR _x$64[ebp]
  00246	89 45 d0	 mov	 DWORD PTR _x$64[ebp], eax
  00249	eb 09		 jmp	 SHORT $LN111@chatGetLin
$LN114@chatGetLin:

; 204  :         else
; 205  :             return -1; /* invalid input! */

  0024b	83 8d 7c ff ff
	ff ff		 or	 DWORD PTR $T46[ebp], -1
  00252	eb 17		 jmp	 SHORT $LN107@chatGetLin
$LN111@chatGetLin:

; 206  :         y <<= 4;

  00254	8b 45 b4	 mov	 eax, DWORD PTR _y$57[ebp]
  00257	c1 e0 04	 shl	 eax, 4
  0025a	89 45 b4	 mov	 DWORD PTR _y$57[ebp], eax

; 207  :     }

  0025d	e9 52 ff ff ff	 jmp	 $LN108@chatGetLin
$LN109@chatGetLin:

; 208  : 
; 209  :     return x;

  00262	8b 45 d0	 mov	 eax, DWORD PTR _x$64[ebp]
  00265	89 85 7c ff ff
	ff		 mov	 DWORD PTR $T46[ebp], eax
$LN107@chatGetLin:
; File D:\Metin2 Server Files\mainline\SRC_2014\Metin2Client\eterBase\Singleton.h

; 27   : 		return (*ms_singleton);

  0026b	a1 00 00 00 00	 mov	 eax, DWORD PTR ?ms_singleton@?$CSingleton@VCItemManager@@@@0PAVCItemManager@@A ; CSingleton<CItemManager>::ms_singleton
  00270	89 85 44 ff ff
	ff		 mov	 DWORD PTR $T32[ebp], eax
; File D:\Metin2 Server Files\mainline\SRC_2014\Metin2Client\UserInterface\PythonChatModule.cpp

; 413  : 		if (CItemManager::Instance().GetItemDataPointer(htoi(results[1].c_str()), &pItemData))

  00276	8d 45 84	 lea	 eax, DWORD PTR _pItemData$48[ebp]
  00279	50		 push	 eax
  0027a	ff b5 7c ff ff
	ff		 push	 DWORD PTR $T46[ebp]
  00280	8b 8d 44 ff ff
	ff		 mov	 ecx, DWORD PTR $T32[ebp]
  00286	e8 00 00 00 00	 call	 ?GetItemDataPointer@CItemManager@@QAEHKPAPAVCItemData@@@Z ; CItemManager::GetItemDataPointer
  0028b	85 c0		 test	 eax, eax
  0028d	0f 84 ff 07 00
	00		 je	 $LN6@chatGetLin

; 414  : 		{
; 415  : 			char buf[1024] = { 0 };

  00293	68 00 04 00 00	 push	 1024			; 00000400H
  00298	6a 00		 push	 0
  0029a	8d 45 30	 lea	 eax, DWORD PTR _buf$67[ebp]
  0029d	50		 push	 eax
  0029e	e8 00 00 00 00	 call	 _memset
  002a3	83 c4 0c	 add	 esp, 12			; 0000000cH

; 416  : 			char itemlink[256];
; 417  : 			int len;
; 418  : 			bool isAttr = false;

  002a6	c6 45 d7 00	 mov	 BYTE PTR _isAttr$65[ebp], 0
; File C:\Program Files (x86)\Microsoft Visual Studio\2019\Community\VC\Tools\MSVC\14.28.29333\include\vector

; 1498 :         auto& _My_data = _Mypair._Myval2;

  002aa	8d 45 8c	 lea	 eax, DWORD PTR _results$[ebp]
  002ad	89 85 40 ff ff
	ff		 mov	 DWORD PTR __My_data$31[ebp], eax

; 1504 :         return _My_data._Myfirst[_Pos];

  002b3	6a 05		 push	 5
  002b5	58		 pop	 eax
  002b6	6b c0 18	 imul	 eax, eax, 24
  002b9	8b 8d 40 ff ff
	ff		 mov	 ecx, DWORD PTR __My_data$31[ebp]
  002bf	03 01		 add	 eax, DWORD PTR [ecx]
  002c1	89 85 3c ff ff
	ff		 mov	 DWORD PTR $T30[ebp], eax
; File C:\Program Files (x86)\Microsoft Visual Studio\2019\Community\VC\Tools\MSVC\14.28.29333\include\xstring

; 3752 :         return _Mypair._Myval2._Myptr();

  002c7	8b 8d 3c ff ff
	ff		 mov	 ecx, DWORD PTR $T30[ebp]
  002cd	e8 00 00 00 00	 call	 ?_Myptr@?$_String_val@U?$_Simple_types@D@std@@@std@@QBEPBDXZ ; std::_String_val<std::_Simple_types<char> >::_Myptr
  002d2	89 85 38 ff ff
	ff		 mov	 DWORD PTR $T29[ebp], eax
; File D:\Metin2 Server Files\mainline\SRC_2014\Metin2Client\UserInterface\PythonChatModule.cpp

; 420  : 			len = snprintf(itemlink, sizeof(itemlink), "item:%x:%x:%x:%x:%x", 

  002d8	8b 85 38 ff ff
	ff		 mov	 eax, DWORD PTR $T29[ebp]
  002de	89 45 ec	 mov	 DWORD PTR _s$[ebp], eax
; File D:\Metin2 Server Files\mainline\SRC_2014\Metin2Client\eterBase\Utils.h

; 192  :     const char *t = s;

  002e1	8b 45 ec	 mov	 eax, DWORD PTR _s$[ebp]
  002e4	89 85 34 ff ff
	ff		 mov	 DWORD PTR _t$28[ebp], eax

; 193  :     int x = 0, y = 1;

  002ea	83 65 cc 00	 and	 DWORD PTR _x$63[ebp], 0
  002ee	c7 45 b0 01 00
	00 00		 mov	 DWORD PTR _y$56[ebp], 1

; 194  :     s += strlen(s);

  002f5	ff 75 ec	 push	 DWORD PTR _s$[ebp]
  002f8	e8 00 00 00 00	 call	 _strlen
  002fd	59		 pop	 ecx
  002fe	03 45 ec	 add	 eax, DWORD PTR _s$[ebp]
  00301	89 45 ec	 mov	 DWORD PTR _s$[ebp], eax
$LN126@chatGetLin:

; 195  : 
; 196  :     while (t <= --s)

  00304	8b 45 ec	 mov	 eax, DWORD PTR _s$[ebp]
  00307	48		 dec	 eax
  00308	89 45 ec	 mov	 DWORD PTR _s$[ebp], eax
  0030b	8b 85 34 ff ff
	ff		 mov	 eax, DWORD PTR _t$28[ebp]
  00311	3b 45 ec	 cmp	 eax, DWORD PTR _s$[ebp]
  00314	0f 87 98 00 00
	00		 ja	 $LN127@chatGetLin

; 197  :     {
; 198  : 		if ('0' <= *s && *s <= '9')

  0031a	8b 45 ec	 mov	 eax, DWORD PTR _s$[ebp]
  0031d	0f be 00	 movsx	 eax, BYTE PTR [eax]
  00320	83 f8 30	 cmp	 eax, 48			; 00000030H
  00323	7c 20		 jl	 SHORT $LN128@chatGetLin
  00325	8b 45 ec	 mov	 eax, DWORD PTR _s$[ebp]
  00328	0f be 00	 movsx	 eax, BYTE PTR [eax]
  0032b	83 f8 39	 cmp	 eax, 57			; 00000039H
  0032e	7f 15		 jg	 SHORT $LN128@chatGetLin

; 199  :             x += y * (*s - '0');

  00330	8b 45 ec	 mov	 eax, DWORD PTR _s$[ebp]
  00333	0f be 00	 movsx	 eax, BYTE PTR [eax]
  00336	83 e8 30	 sub	 eax, 48			; 00000030H
  00339	0f af 45 b0	 imul	 eax, DWORD PTR _y$56[ebp]
  0033d	03 45 cc	 add	 eax, DWORD PTR _x$63[ebp]
  00340	89 45 cc	 mov	 DWORD PTR _x$63[ebp], eax
  00343	eb 5f		 jmp	 SHORT $LN129@chatGetLin
$LN128@chatGetLin:

; 200  :         else if ('a' <= *s && *s <= 'f')

  00345	8b 45 ec	 mov	 eax, DWORD PTR _s$[ebp]
  00348	0f be 00	 movsx	 eax, BYTE PTR [eax]
  0034b	83 f8 61	 cmp	 eax, 97			; 00000061H
  0034e	7c 20		 jl	 SHORT $LN130@chatGetLin
  00350	8b 45 ec	 mov	 eax, DWORD PTR _s$[ebp]
  00353	0f be 00	 movsx	 eax, BYTE PTR [eax]
  00356	83 f8 66	 cmp	 eax, 102		; 00000066H
  00359	7f 15		 jg	 SHORT $LN130@chatGetLin

; 201  :             x += y * (*s - 'a' + 10);

  0035b	8b 45 ec	 mov	 eax, DWORD PTR _s$[ebp]
  0035e	0f be 00	 movsx	 eax, BYTE PTR [eax]
  00361	83 e8 57	 sub	 eax, 87			; 00000057H
  00364	0f af 45 b0	 imul	 eax, DWORD PTR _y$56[ebp]
  00368	03 45 cc	 add	 eax, DWORD PTR _x$63[ebp]
  0036b	89 45 cc	 mov	 DWORD PTR _x$63[ebp], eax
  0036e	eb 34		 jmp	 SHORT $LN129@chatGetLin
$LN130@chatGetLin:

; 202  :         else if ('A' <= *s && *s <= 'F')

  00370	8b 45 ec	 mov	 eax, DWORD PTR _s$[ebp]
  00373	0f be 00	 movsx	 eax, BYTE PTR [eax]
  00376	83 f8 41	 cmp	 eax, 65			; 00000041H
  00379	7c 20		 jl	 SHORT $LN132@chatGetLin
  0037b	8b 45 ec	 mov	 eax, DWORD PTR _s$[ebp]
  0037e	0f be 00	 movsx	 eax, BYTE PTR [eax]
  00381	83 f8 46	 cmp	 eax, 70			; 00000046H
  00384	7f 15		 jg	 SHORT $LN132@chatGetLin

; 203  :             x += y * (10 + *s - 'A');

  00386	8b 45 ec	 mov	 eax, DWORD PTR _s$[ebp]
  00389	0f be 00	 movsx	 eax, BYTE PTR [eax]
  0038c	83 e8 37	 sub	 eax, 55			; 00000037H
  0038f	0f af 45 b0	 imul	 eax, DWORD PTR _y$56[ebp]
  00393	03 45 cc	 add	 eax, DWORD PTR _x$63[ebp]
  00396	89 45 cc	 mov	 DWORD PTR _x$63[ebp], eax
  00399	eb 09		 jmp	 SHORT $LN129@chatGetLin
$LN132@chatGetLin:

; 204  :         else
; 205  :             return -1; /* invalid input! */

  0039b	83 8d 78 ff ff
	ff ff		 or	 DWORD PTR $T45[ebp], -1
  003a2	eb 17		 jmp	 SHORT $LN125@chatGetLin
$LN129@chatGetLin:

; 206  :         y <<= 4;

  003a4	8b 45 b0	 mov	 eax, DWORD PTR _y$56[ebp]
  003a7	c1 e0 04	 shl	 eax, 4
  003aa	89 45 b0	 mov	 DWORD PTR _y$56[ebp], eax

; 207  :     }

  003ad	e9 52 ff ff ff	 jmp	 $LN126@chatGetLin
$LN127@chatGetLin:

; 208  : 
; 209  :     return x;

  003b2	8b 45 cc	 mov	 eax, DWORD PTR _x$63[ebp]
  003b5	89 85 78 ff ff
	ff		 mov	 DWORD PTR $T45[ebp], eax
$LN125@chatGetLin:
; File C:\Program Files (x86)\Microsoft Visual Studio\2019\Community\VC\Tools\MSVC\14.28.29333\include\vector

; 1498 :         auto& _My_data = _Mypair._Myval2;

  003bb	8d 45 8c	 lea	 eax, DWORD PTR _results$[ebp]
  003be	89 85 30 ff ff
	ff		 mov	 DWORD PTR __My_data$27[ebp], eax

; 1504 :         return _My_data._Myfirst[_Pos];

  003c4	6a 04		 push	 4
  003c6	58		 pop	 eax
  003c7	6b c0 18	 imul	 eax, eax, 24
  003ca	8b 8d 30 ff ff
	ff		 mov	 ecx, DWORD PTR __My_data$27[ebp]
  003d0	03 01		 add	 eax, DWORD PTR [ecx]
  003d2	89 85 2c ff ff
	ff		 mov	 DWORD PTR $T26[ebp], eax
; File C:\Program Files (x86)\Microsoft Visual Studio\2019\Community\VC\Tools\MSVC\14.28.29333\include\xstring

; 3752 :         return _Mypair._Myval2._Myptr();

  003d8	8b 8d 2c ff ff
	ff		 mov	 ecx, DWORD PTR $T26[ebp]
  003de	e8 00 00 00 00	 call	 ?_Myptr@?$_String_val@U?$_Simple_types@D@std@@@std@@QBEPBDXZ ; std::_String_val<std::_Simple_types<char> >::_Myptr
  003e3	89 85 28 ff ff
	ff		 mov	 DWORD PTR $T25[ebp], eax
; File D:\Metin2 Server Files\mainline\SRC_2014\Metin2Client\UserInterface\PythonChatModule.cpp

; 420  : 			len = snprintf(itemlink, sizeof(itemlink), "item:%x:%x:%x:%x:%x", 

  003e9	8b 85 28 ff ff
	ff		 mov	 eax, DWORD PTR $T25[ebp]
  003ef	89 45 e8	 mov	 DWORD PTR _s$[ebp], eax
; File D:\Metin2 Server Files\mainline\SRC_2014\Metin2Client\eterBase\Utils.h

; 192  :     const char *t = s;

  003f2	8b 45 e8	 mov	 eax, DWORD PTR _s$[ebp]
  003f5	89 85 24 ff ff
	ff		 mov	 DWORD PTR _t$24[ebp], eax

; 193  :     int x = 0, y = 1;

  003fb	83 65 c8 00	 and	 DWORD PTR _x$62[ebp], 0
  003ff	c7 45 9c 01 00
	00 00		 mov	 DWORD PTR _y$51[ebp], 1

; 194  :     s += strlen(s);

  00406	ff 75 e8	 push	 DWORD PTR _s$[ebp]
  00409	e8 00 00 00 00	 call	 _strlen
  0040e	59		 pop	 ecx
  0040f	03 45 e8	 add	 eax, DWORD PTR _s$[ebp]
  00412	89 45 e8	 mov	 DWORD PTR _s$[ebp], eax
$LN142@chatGetLin:

; 195  : 
; 196  :     while (t <= --s)

  00415	8b 45 e8	 mov	 eax, DWORD PTR _s$[ebp]
  00418	48		 dec	 eax
  00419	89 45 e8	 mov	 DWORD PTR _s$[ebp], eax
  0041c	8b 85 24 ff ff
	ff		 mov	 eax, DWORD PTR _t$24[ebp]
  00422	3b 45 e8	 cmp	 eax, DWORD PTR _s$[ebp]
  00425	0f 87 98 00 00
	00		 ja	 $LN143@chatGetLin

; 197  :     {
; 198  : 		if ('0' <= *s && *s <= '9')

  0042b	8b 45 e8	 mov	 eax, DWORD PTR _s$[ebp]
  0042e	0f be 00	 movsx	 eax, BYTE PTR [eax]
  00431	83 f8 30	 cmp	 eax, 48			; 00000030H
  00434	7c 20		 jl	 SHORT $LN144@chatGetLin
  00436	8b 45 e8	 mov	 eax, DWORD PTR _s$[ebp]
  00439	0f be 00	 movsx	 eax, BYTE PTR [eax]
  0043c	83 f8 39	 cmp	 eax, 57			; 00000039H
  0043f	7f 15		 jg	 SHORT $LN144@chatGetLin

; 199  :             x += y * (*s - '0');

  00441	8b 45 e8	 mov	 eax, DWORD PTR _s$[ebp]
  00444	0f be 00	 movsx	 eax, BYTE PTR [eax]
  00447	83 e8 30	 sub	 eax, 48			; 00000030H
  0044a	0f af 45 9c	 imul	 eax, DWORD PTR _y$51[ebp]
  0044e	03 45 c8	 add	 eax, DWORD PTR _x$62[ebp]
  00451	89 45 c8	 mov	 DWORD PTR _x$62[ebp], eax
  00454	eb 5f		 jmp	 SHORT $LN145@chatGetLin
$LN144@chatGetLin:

; 200  :         else if ('a' <= *s && *s <= 'f')

  00456	8b 45 e8	 mov	 eax, DWORD PTR _s$[ebp]
  00459	0f be 00	 movsx	 eax, BYTE PTR [eax]
  0045c	83 f8 61	 cmp	 eax, 97			; 00000061H
  0045f	7c 20		 jl	 SHORT $LN146@chatGetLin
  00461	8b 45 e8	 mov	 eax, DWORD PTR _s$[ebp]
  00464	0f be 00	 movsx	 eax, BYTE PTR [eax]
  00467	83 f8 66	 cmp	 eax, 102		; 00000066H
  0046a	7f 15		 jg	 SHORT $LN146@chatGetLin

; 201  :             x += y * (*s - 'a' + 10);

  0046c	8b 45 e8	 mov	 eax, DWORD PTR _s$[ebp]
  0046f	0f be 00	 movsx	 eax, BYTE PTR [eax]
  00472	83 e8 57	 sub	 eax, 87			; 00000057H
  00475	0f af 45 9c	 imul	 eax, DWORD PTR _y$51[ebp]
  00479	03 45 c8	 add	 eax, DWORD PTR _x$62[ebp]
  0047c	89 45 c8	 mov	 DWORD PTR _x$62[ebp], eax
  0047f	eb 34		 jmp	 SHORT $LN145@chatGetLin
$LN146@chatGetLin:

; 202  :         else if ('A' <= *s && *s <= 'F')

  00481	8b 45 e8	 mov	 eax, DWORD PTR _s$[ebp]
  00484	0f be 00	 movsx	 eax, BYTE PTR [eax]
  00487	83 f8 41	 cmp	 eax, 65			; 00000041H
  0048a	7c 20		 jl	 SHORT $LN148@chatGetLin
  0048c	8b 45 e8	 mov	 eax, DWORD PTR _s$[ebp]
  0048f	0f be 00	 movsx	 eax, BYTE PTR [eax]
  00492	83 f8 46	 cmp	 eax, 70			; 00000046H
  00495	7f 15		 jg	 SHORT $LN148@chatGetLin

; 203  :             x += y * (10 + *s - 'A');

  00497	8b 45 e8	 mov	 eax, DWORD PTR _s$[ebp]
  0049a	0f be 00	 movsx	 eax, BYTE PTR [eax]
  0049d	83 e8 37	 sub	 eax, 55			; 00000037H
  004a0	0f af 45 9c	 imul	 eax, DWORD PTR _y$51[ebp]
  004a4	03 45 c8	 add	 eax, DWORD PTR _x$62[ebp]
  004a7	89 45 c8	 mov	 DWORD PTR _x$62[ebp], eax
  004aa	eb 09		 jmp	 SHORT $LN145@chatGetLin
$LN148@chatGetLin:

; 204  :         else
; 205  :             return -1; /* invalid input! */

  004ac	83 8d 74 ff ff
	ff ff		 or	 DWORD PTR $T44[ebp], -1
  004b3	eb 17		 jmp	 SHORT $LN141@chatGetLin
$LN145@chatGetLin:

; 206  :         y <<= 4;

  004b5	8b 45 9c	 mov	 eax, DWORD PTR _y$51[ebp]
  004b8	c1 e0 04	 shl	 eax, 4
  004bb	89 45 9c	 mov	 DWORD PTR _y$51[ebp], eax

; 207  :     }

  004be	e9 52 ff ff ff	 jmp	 $LN142@chatGetLin
$LN143@chatGetLin:

; 208  : 
; 209  :     return x;

  004c3	8b 45 c8	 mov	 eax, DWORD PTR _x$62[ebp]
  004c6	89 85 74 ff ff
	ff		 mov	 DWORD PTR $T44[ebp], eax
$LN141@chatGetLin:
; File C:\Program Files (x86)\Microsoft Visual Studio\2019\Community\VC\Tools\MSVC\14.28.29333\include\vector

; 1498 :         auto& _My_data = _Mypair._Myval2;

  004cc	8d 45 8c	 lea	 eax, DWORD PTR _results$[ebp]
  004cf	89 85 20 ff ff
	ff		 mov	 DWORD PTR __My_data$23[ebp], eax

; 1504 :         return _My_data._Myfirst[_Pos];

  004d5	6a 03		 push	 3
  004d7	58		 pop	 eax
  004d8	6b c0 18	 imul	 eax, eax, 24
  004db	8b 8d 20 ff ff
	ff		 mov	 ecx, DWORD PTR __My_data$23[ebp]
  004e1	03 01		 add	 eax, DWORD PTR [ecx]
  004e3	89 85 1c ff ff
	ff		 mov	 DWORD PTR $T22[ebp], eax
; File C:\Program Files (x86)\Microsoft Visual Studio\2019\Community\VC\Tools\MSVC\14.28.29333\include\xstring

; 3752 :         return _Mypair._Myval2._Myptr();

  004e9	8b 8d 1c ff ff
	ff		 mov	 ecx, DWORD PTR $T22[ebp]
  004ef	e8 00 00 00 00	 call	 ?_Myptr@?$_String_val@U?$_Simple_types@D@std@@@std@@QBEPBDXZ ; std::_String_val<std::_Simple_types<char> >::_Myptr
  004f4	89 85 18 ff ff
	ff		 mov	 DWORD PTR $T21[ebp], eax
; File D:\Metin2 Server Files\mainline\SRC_2014\Metin2Client\UserInterface\PythonChatModule.cpp

; 420  : 			len = snprintf(itemlink, sizeof(itemlink), "item:%x:%x:%x:%x:%x", 

  004fa	8b 85 18 ff ff
	ff		 mov	 eax, DWORD PTR $T21[ebp]
  00500	89 45 e4	 mov	 DWORD PTR _s$[ebp], eax
; File D:\Metin2 Server Files\mainline\SRC_2014\Metin2Client\eterBase\Utils.h

; 192  :     const char *t = s;

  00503	8b 45 e4	 mov	 eax, DWORD PTR _s$[ebp]
  00506	89 85 14 ff ff
	ff		 mov	 DWORD PTR _t$20[ebp], eax

; 193  :     int x = 0, y = 1;

  0050c	83 65 c4 00	 and	 DWORD PTR _x$61[ebp], 0
  00510	c7 45 a0 01 00
	00 00		 mov	 DWORD PTR _y$52[ebp], 1

; 194  :     s += strlen(s);

  00517	ff 75 e4	 push	 DWORD PTR _s$[ebp]
  0051a	e8 00 00 00 00	 call	 _strlen
  0051f	59		 pop	 ecx
  00520	03 45 e4	 add	 eax, DWORD PTR _s$[ebp]
  00523	89 45 e4	 mov	 DWORD PTR _s$[ebp], eax
$LN158@chatGetLin:

; 195  : 
; 196  :     while (t <= --s)

  00526	8b 45 e4	 mov	 eax, DWORD PTR _s$[ebp]
  00529	48		 dec	 eax
  0052a	89 45 e4	 mov	 DWORD PTR _s$[ebp], eax
  0052d	8b 85 14 ff ff
	ff		 mov	 eax, DWORD PTR _t$20[ebp]
  00533	3b 45 e4	 cmp	 eax, DWORD PTR _s$[ebp]
  00536	0f 87 98 00 00
	00		 ja	 $LN159@chatGetLin

; 197  :     {
; 198  : 		if ('0' <= *s && *s <= '9')

  0053c	8b 45 e4	 mov	 eax, DWORD PTR _s$[ebp]
  0053f	0f be 00	 movsx	 eax, BYTE PTR [eax]
  00542	83 f8 30	 cmp	 eax, 48			; 00000030H
  00545	7c 20		 jl	 SHORT $LN160@chatGetLin
  00547	8b 45 e4	 mov	 eax, DWORD PTR _s$[ebp]
  0054a	0f be 00	 movsx	 eax, BYTE PTR [eax]
  0054d	83 f8 39	 cmp	 eax, 57			; 00000039H
  00550	7f 15		 jg	 SHORT $LN160@chatGetLin

; 199  :             x += y * (*s - '0');

  00552	8b 45 e4	 mov	 eax, DWORD PTR _s$[ebp]
  00555	0f be 00	 movsx	 eax, BYTE PTR [eax]
  00558	83 e8 30	 sub	 eax, 48			; 00000030H
  0055b	0f af 45 a0	 imul	 eax, DWORD PTR _y$52[ebp]
  0055f	03 45 c4	 add	 eax, DWORD PTR _x$61[ebp]
  00562	89 45 c4	 mov	 DWORD PTR _x$61[ebp], eax
  00565	eb 5f		 jmp	 SHORT $LN161@chatGetLin
$LN160@chatGetLin:

; 200  :         else if ('a' <= *s && *s <= 'f')

  00567	8b 45 e4	 mov	 eax, DWORD PTR _s$[ebp]
  0056a	0f be 00	 movsx	 eax, BYTE PTR [eax]
  0056d	83 f8 61	 cmp	 eax, 97			; 00000061H
  00570	7c 20		 jl	 SHORT $LN162@chatGetLin
  00572	8b 45 e4	 mov	 eax, DWORD PTR _s$[ebp]
  00575	0f be 00	 movsx	 eax, BYTE PTR [eax]
  00578	83 f8 66	 cmp	 eax, 102		; 00000066H
  0057b	7f 15		 jg	 SHORT $LN162@chatGetLin

; 201  :             x += y * (*s - 'a' + 10);

  0057d	8b 45 e4	 mov	 eax, DWORD PTR _s$[ebp]
  00580	0f be 00	 movsx	 eax, BYTE PTR [eax]
  00583	83 e8 57	 sub	 eax, 87			; 00000057H
  00586	0f af 45 a0	 imul	 eax, DWORD PTR _y$52[ebp]
  0058a	03 45 c4	 add	 eax, DWORD PTR _x$61[ebp]
  0058d	89 45 c4	 mov	 DWORD PTR _x$61[ebp], eax
  00590	eb 34		 jmp	 SHORT $LN161@chatGetLin
$LN162@chatGetLin:

; 202  :         else if ('A' <= *s && *s <= 'F')

  00592	8b 45 e4	 mov	 eax, DWORD PTR _s$[ebp]
  00595	0f be 00	 movsx	 eax, BYTE PTR [eax]
  00598	83 f8 41	 cmp	 eax, 65			; 00000041H
  0059b	7c 20		 jl	 SHORT $LN164@chatGetLin
  0059d	8b 45 e4	 mov	 eax, DWORD PTR _s$[ebp]
  005a0	0f be 00	 movsx	 eax, BYTE PTR [eax]
  005a3	83 f8 46	 cmp	 eax, 70			; 00000046H
  005a6	7f 15		 jg	 SHORT $LN164@chatGetLin

; 203  :             x += y * (10 + *s - 'A');

  005a8	8b 45 e4	 mov	 eax, DWORD PTR _s$[ebp]
  005ab	0f be 00	 movsx	 eax, BYTE PTR [eax]
  005ae	83 e8 37	 sub	 eax, 55			; 00000037H
  005b1	0f af 45 a0	 imul	 eax, DWORD PTR _y$52[ebp]
  005b5	03 45 c4	 add	 eax, DWORD PTR _x$61[ebp]
  005b8	89 45 c4	 mov	 DWORD PTR _x$61[ebp], eax
  005bb	eb 09		 jmp	 SHORT $LN161@chatGetLin
$LN164@chatGetLin:

; 204  :         else
; 205  :             return -1; /* invalid input! */

  005bd	83 8d 70 ff ff
	ff ff		 or	 DWORD PTR $T43[ebp], -1
  005c4	eb 17		 jmp	 SHORT $LN157@chatGetLin
$LN161@chatGetLin:

; 206  :         y <<= 4;

  005c6	8b 45 a0	 mov	 eax, DWORD PTR _y$52[ebp]
  005c9	c1 e0 04	 shl	 eax, 4
  005cc	89 45 a0	 mov	 DWORD PTR _y$52[ebp], eax

; 207  :     }

  005cf	e9 52 ff ff ff	 jmp	 $LN158@chatGetLin
$LN159@chatGetLin:

; 208  : 
; 209  :     return x;

  005d4	8b 45 c4	 mov	 eax, DWORD PTR _x$61[ebp]
  005d7	89 85 70 ff ff
	ff		 mov	 DWORD PTR $T43[ebp], eax
$LN157@chatGetLin:
; File C:\Program Files (x86)\Microsoft Visual Studio\2019\Community\VC\Tools\MSVC\14.28.29333\include\vector

; 1498 :         auto& _My_data = _Mypair._Myval2;

  005dd	8d 45 8c	 lea	 eax, DWORD PTR _results$[ebp]
  005e0	89 85 10 ff ff
	ff		 mov	 DWORD PTR __My_data$19[ebp], eax

; 1504 :         return _My_data._Myfirst[_Pos];

  005e6	6a 02		 push	 2
  005e8	58		 pop	 eax
  005e9	6b c0 18	 imul	 eax, eax, 24
  005ec	8b 8d 10 ff ff
	ff		 mov	 ecx, DWORD PTR __My_data$19[ebp]
  005f2	03 01		 add	 eax, DWORD PTR [ecx]
  005f4	89 85 e8 fe ff
	ff		 mov	 DWORD PTR $T10[ebp], eax
; File D:\Metin2 Server Files\mainline\SRC_2014\Metin2Client\UserInterface\PythonChatModule.cpp

; 420  : 			len = snprintf(itemlink, sizeof(itemlink), "item:%x:%x:%x:%x:%x", 

  005fa	8b 8d e8 fe ff
	ff		 mov	 ecx, DWORD PTR $T10[ebp]
  00600	e8 00 00 00 00	 call	 ?c_str@?$basic_string@DU?$char_traits@D@std@@V?$allocator@D@2@@std@@QBEPBDXZ ; std::basic_string<char,std::char_traits<char>,std::allocator<char> >::c_str
  00605	89 45 e0	 mov	 DWORD PTR _s$[ebp], eax
; File D:\Metin2 Server Files\mainline\SRC_2014\Metin2Client\eterBase\Utils.h

; 192  :     const char *t = s;

  00608	8b 45 e0	 mov	 eax, DWORD PTR _s$[ebp]
  0060b	89 85 08 ff ff
	ff		 mov	 DWORD PTR _t$18[ebp], eax

; 193  :     int x = 0, y = 1;

  00611	83 65 c0 00	 and	 DWORD PTR _x$60[ebp], 0
  00615	c7 45 a4 01 00
	00 00		 mov	 DWORD PTR _y$53[ebp], 1

; 194  :     s += strlen(s);

  0061c	ff 75 e0	 push	 DWORD PTR _s$[ebp]
  0061f	e8 00 00 00 00	 call	 _strlen
  00624	59		 pop	 ecx
  00625	03 45 e0	 add	 eax, DWORD PTR _s$[ebp]
  00628	89 45 e0	 mov	 DWORD PTR _s$[ebp], eax
$LN186@chatGetLin:

; 195  : 
; 196  :     while (t <= --s)

  0062b	8b 45 e0	 mov	 eax, DWORD PTR _s$[ebp]
  0062e	48		 dec	 eax
  0062f	89 45 e0	 mov	 DWORD PTR _s$[ebp], eax
  00632	8b 85 08 ff ff
	ff		 mov	 eax, DWORD PTR _t$18[ebp]
  00638	3b 45 e0	 cmp	 eax, DWORD PTR _s$[ebp]
  0063b	0f 87 98 00 00
	00		 ja	 $LN187@chatGetLin

; 197  :     {
; 198  : 		if ('0' <= *s && *s <= '9')

  00641	8b 45 e0	 mov	 eax, DWORD PTR _s$[ebp]
  00644	0f be 00	 movsx	 eax, BYTE PTR [eax]
  00647	83 f8 30	 cmp	 eax, 48			; 00000030H
  0064a	7c 20		 jl	 SHORT $LN188@chatGetLin
  0064c	8b 45 e0	 mov	 eax, DWORD PTR _s$[ebp]
  0064f	0f be 00	 movsx	 eax, BYTE PTR [eax]
  00652	83 f8 39	 cmp	 eax, 57			; 00000039H
  00655	7f 15		 jg	 SHORT $LN188@chatGetLin

; 199  :             x += y * (*s - '0');

  00657	8b 45 e0	 mov	 eax, DWORD PTR _s$[ebp]
  0065a	0f be 00	 movsx	 eax, BYTE PTR [eax]
  0065d	83 e8 30	 sub	 eax, 48			; 00000030H
  00660	0f af 45 a4	 imul	 eax, DWORD PTR _y$53[ebp]
  00664	03 45 c0	 add	 eax, DWORD PTR _x$60[ebp]
  00667	89 45 c0	 mov	 DWORD PTR _x$60[ebp], eax
  0066a	eb 5f		 jmp	 SHORT $LN189@chatGetLin
$LN188@chatGetLin:

; 200  :         else if ('a' <= *s && *s <= 'f')

  0066c	8b 45 e0	 mov	 eax, DWORD PTR _s$[ebp]
  0066f	0f be 00	 movsx	 eax, BYTE PTR [eax]
  00672	83 f8 61	 cmp	 eax, 97			; 00000061H
  00675	7c 20		 jl	 SHORT $LN190@chatGetLin
  00677	8b 45 e0	 mov	 eax, DWORD PTR _s$[ebp]
  0067a	0f be 00	 movsx	 eax, BYTE PTR [eax]
  0067d	83 f8 66	 cmp	 eax, 102		; 00000066H
  00680	7f 15		 jg	 SHORT $LN190@chatGetLin

; 201  :             x += y * (*s - 'a' + 10);

  00682	8b 45 e0	 mov	 eax, DWORD PTR _s$[ebp]
  00685	0f be 00	 movsx	 eax, BYTE PTR [eax]
  00688	83 e8 57	 sub	 eax, 87			; 00000057H
  0068b	0f af 45 a4	 imul	 eax, DWORD PTR _y$53[ebp]
  0068f	03 45 c0	 add	 eax, DWORD PTR _x$60[ebp]
  00692	89 45 c0	 mov	 DWORD PTR _x$60[ebp], eax
  00695	eb 34		 jmp	 SHORT $LN189@chatGetLin
$LN190@chatGetLin:

; 202  :         else if ('A' <= *s && *s <= 'F')

  00697	8b 45 e0	 mov	 eax, DWORD PTR _s$[ebp]
  0069a	0f be 00	 movsx	 eax, BYTE PTR [eax]
  0069d	83 f8 41	 cmp	 eax, 65			; 00000041H
  006a0	7c 20		 jl	 SHORT $LN192@chatGetLin
  006a2	8b 45 e0	 mov	 eax, DWORD PTR _s$[ebp]
  006a5	0f be 00	 movsx	 eax, BYTE PTR [eax]
  006a8	83 f8 46	 cmp	 eax, 70			; 00000046H
  006ab	7f 15		 jg	 SHORT $LN192@chatGetLin

; 203  :             x += y * (10 + *s - 'A');

  006ad	8b 45 e0	 mov	 eax, DWORD PTR _s$[ebp]
  006b0	0f be 00	 movsx	 eax, BYTE PTR [eax]
  006b3	83 e8 37	 sub	 eax, 55			; 00000037H
  006b6	0f af 45 a4	 imul	 eax, DWORD PTR _y$53[ebp]
  006ba	03 45 c0	 add	 eax, DWORD PTR _x$60[ebp]
  006bd	89 45 c0	 mov	 DWORD PTR _x$60[ebp], eax
  006c0	eb 09		 jmp	 SHORT $LN189@chatGetLin
$LN192@chatGetLin:

; 204  :         else
; 205  :             return -1; /* invalid input! */

  006c2	83 8d 6c ff ff
	ff ff		 or	 DWORD PTR $T42[ebp], -1
  006c9	eb 17		 jmp	 SHORT $LN185@chatGetLin
$LN189@chatGetLin:

; 206  :         y <<= 4;

  006cb	8b 45 a4	 mov	 eax, DWORD PTR _y$53[ebp]
  006ce	c1 e0 04	 shl	 eax, 4
  006d1	89 45 a4	 mov	 DWORD PTR _y$53[ebp], eax

; 207  :     }

  006d4	e9 52 ff ff ff	 jmp	 $LN186@chatGetLin
$LN187@chatGetLin:

; 208  : 
; 209  :     return x;

  006d9	8b 45 c0	 mov	 eax, DWORD PTR _x$60[ebp]
  006dc	89 85 6c ff ff
	ff		 mov	 DWORD PTR $T42[ebp], eax
$LN185@chatGetLin:
; File C:\Program Files (x86)\Microsoft Visual Studio\2019\Community\VC\Tools\MSVC\14.28.29333\include\vector

; 1498 :         auto& _My_data = _Mypair._Myval2;

  006e2	8d 45 8c	 lea	 eax, DWORD PTR _results$[ebp]
  006e5	89 85 04 ff ff
	ff		 mov	 DWORD PTR __My_data$17[ebp], eax

; 1504 :         return _My_data._Myfirst[_Pos];

  006eb	33 c0		 xor	 eax, eax
  006ed	40		 inc	 eax
  006ee	6b c0 18	 imul	 eax, eax, 24
  006f1	8b 8d 04 ff ff
	ff		 mov	 ecx, DWORD PTR __My_data$17[ebp]
  006f7	03 01		 add	 eax, DWORD PTR [ecx]
  006f9	89 85 00 ff ff
	ff		 mov	 DWORD PTR $T16[ebp], eax
; File D:\Metin2 Server Files\mainline\SRC_2014\Metin2Client\UserInterface\PythonChatModule.cpp

; 420  : 			len = snprintf(itemlink, sizeof(itemlink), "item:%x:%x:%x:%x:%x", 

  006ff	8b 8d 00 ff ff
	ff		 mov	 ecx, DWORD PTR $T16[ebp]
  00705	e8 00 00 00 00	 call	 ?c_str@?$basic_string@DU?$char_traits@D@std@@V?$allocator@D@2@@std@@QBEPBDXZ ; std::basic_string<char,std::char_traits<char>,std::allocator<char> >::c_str
  0070a	89 45 dc	 mov	 DWORD PTR _s$[ebp], eax
; File D:\Metin2 Server Files\mainline\SRC_2014\Metin2Client\eterBase\Utils.h

; 192  :     const char *t = s;

  0070d	8b 45 dc	 mov	 eax, DWORD PTR _s$[ebp]
  00710	89 85 fc fe ff
	ff		 mov	 DWORD PTR _t$15[ebp], eax

; 193  :     int x = 0, y = 1;

  00716	83 65 bc 00	 and	 DWORD PTR _x$59[ebp], 0
  0071a	c7 45 98 01 00
	00 00		 mov	 DWORD PTR _y$50[ebp], 1

; 194  :     s += strlen(s);

  00721	ff 75 dc	 push	 DWORD PTR _s$[ebp]
  00724	e8 00 00 00 00	 call	 _strlen
  00729	59		 pop	 ecx
  0072a	03 45 dc	 add	 eax, DWORD PTR _s$[ebp]
  0072d	89 45 dc	 mov	 DWORD PTR _s$[ebp], eax
$LN214@chatGetLin:

; 195  : 
; 196  :     while (t <= --s)

  00730	8b 45 dc	 mov	 eax, DWORD PTR _s$[ebp]
  00733	48		 dec	 eax
  00734	89 45 dc	 mov	 DWORD PTR _s$[ebp], eax
  00737	8b 85 fc fe ff
	ff		 mov	 eax, DWORD PTR _t$15[ebp]
  0073d	3b 45 dc	 cmp	 eax, DWORD PTR _s$[ebp]
  00740	0f 87 98 00 00
	00		 ja	 $LN215@chatGetLin

; 197  :     {
; 198  : 		if ('0' <= *s && *s <= '9')

  00746	8b 45 dc	 mov	 eax, DWORD PTR _s$[ebp]
  00749	0f be 00	 movsx	 eax, BYTE PTR [eax]
  0074c	83 f8 30	 cmp	 eax, 48			; 00000030H
  0074f	7c 20		 jl	 SHORT $LN216@chatGetLin
  00751	8b 45 dc	 mov	 eax, DWORD PTR _s$[ebp]
  00754	0f be 00	 movsx	 eax, BYTE PTR [eax]
  00757	83 f8 39	 cmp	 eax, 57			; 00000039H
  0075a	7f 15		 jg	 SHORT $LN216@chatGetLin

; 199  :             x += y * (*s - '0');

  0075c	8b 45 dc	 mov	 eax, DWORD PTR _s$[ebp]
  0075f	0f be 00	 movsx	 eax, BYTE PTR [eax]
  00762	83 e8 30	 sub	 eax, 48			; 00000030H
  00765	0f af 45 98	 imul	 eax, DWORD PTR _y$50[ebp]
  00769	03 45 bc	 add	 eax, DWORD PTR _x$59[ebp]
  0076c	89 45 bc	 mov	 DWORD PTR _x$59[ebp], eax
  0076f	eb 5f		 jmp	 SHORT $LN217@chatGetLin
$LN216@chatGetLin:

; 200  :         else if ('a' <= *s && *s <= 'f')

  00771	8b 45 dc	 mov	 eax, DWORD PTR _s$[ebp]
  00774	0f be 00	 movsx	 eax, BYTE PTR [eax]
  00777	83 f8 61	 cmp	 eax, 97			; 00000061H
  0077a	7c 20		 jl	 SHORT $LN218@chatGetLin
  0077c	8b 45 dc	 mov	 eax, DWORD PTR _s$[ebp]
  0077f	0f be 00	 movsx	 eax, BYTE PTR [eax]
  00782	83 f8 66	 cmp	 eax, 102		; 00000066H
  00785	7f 15		 jg	 SHORT $LN218@chatGetLin

; 201  :             x += y * (*s - 'a' + 10);

  00787	8b 45 dc	 mov	 eax, DWORD PTR _s$[ebp]
  0078a	0f be 00	 movsx	 eax, BYTE PTR [eax]
  0078d	83 e8 57	 sub	 eax, 87			; 00000057H
  00790	0f af 45 98	 imul	 eax, DWORD PTR _y$50[ebp]
  00794	03 45 bc	 add	 eax, DWORD PTR _x$59[ebp]
  00797	89 45 bc	 mov	 DWORD PTR _x$59[ebp], eax
  0079a	eb 34		 jmp	 SHORT $LN217@chatGetLin
$LN218@chatGetLin:

; 202  :         else if ('A' <= *s && *s <= 'F')

  0079c	8b 45 dc	 mov	 eax, DWORD PTR _s$[ebp]
  0079f	0f be 00	 movsx	 eax, BYTE PTR [eax]
  007a2	83 f8 41	 cmp	 eax, 65			; 00000041H
  007a5	7c 20		 jl	 SHORT $LN220@chatGetLin
  007a7	8b 45 dc	 mov	 eax, DWORD PTR _s$[ebp]
  007aa	0f be 00	 movsx	 eax, BYTE PTR [eax]
  007ad	83 f8 46	 cmp	 eax, 70			; 00000046H
  007b0	7f 15		 jg	 SHORT $LN220@chatGetLin

; 203  :             x += y * (10 + *s - 'A');

  007b2	8b 45 dc	 mov	 eax, DWORD PTR _s$[ebp]
  007b5	0f be 00	 movsx	 eax, BYTE PTR [eax]
  007b8	83 e8 37	 sub	 eax, 55			; 00000037H
  007bb	0f af 45 98	 imul	 eax, DWORD PTR _y$50[ebp]
  007bf	03 45 bc	 add	 eax, DWORD PTR _x$59[ebp]
  007c2	89 45 bc	 mov	 DWORD PTR _x$59[ebp], eax
  007c5	eb 09		 jmp	 SHORT $LN217@chatGetLin
$LN220@chatGetLin:

; 204  :         else
; 205  :             return -1; /* invalid input! */

  007c7	83 8d 68 ff ff
	ff ff		 or	 DWORD PTR $T41[ebp], -1
  007ce	eb 17		 jmp	 SHORT $LN213@chatGetLin
$LN217@chatGetLin:

; 206  :         y <<= 4;

  007d0	8b 45 98	 mov	 eax, DWORD PTR _y$50[ebp]
  007d3	c1 e0 04	 shl	 eax, 4
  007d6	89 45 98	 mov	 DWORD PTR _y$50[ebp], eax

; 207  :     }

  007d9	e9 52 ff ff ff	 jmp	 $LN214@chatGetLin
$LN215@chatGetLin:

; 208  : 
; 209  :     return x;

  007de	8b 45 bc	 mov	 eax, DWORD PTR _x$59[ebp]
  007e1	89 85 68 ff ff
	ff		 mov	 DWORD PTR $T41[ebp], eax
$LN213@chatGetLin:
; File D:\Metin2 Server Files\mainline\SRC_2014\Metin2Client\UserInterface\PythonChatModule.cpp

; 420  : 			len = snprintf(itemlink, sizeof(itemlink), "item:%x:%x:%x:%x:%x", 

  007e7	ff b5 78 ff ff
	ff		 push	 DWORD PTR $T45[ebp]
  007ed	ff b5 74 ff ff
	ff		 push	 DWORD PTR $T44[ebp]
  007f3	ff b5 70 ff ff
	ff		 push	 DWORD PTR $T43[ebp]
  007f9	ff b5 6c ff ff
	ff		 push	 DWORD PTR $T42[ebp]
  007ff	ff b5 68 ff ff
	ff		 push	 DWORD PTR $T41[ebp]
  00805	68 00 00 00 00	 push	 OFFSET ??_C@_0BE@FGPADLIF@item?3?$CFx?3?$CFx?3?$CFx?3?$CFx?3?$CFx@
  0080a	68 00 01 00 00	 push	 256			; 00000100H
  0080f	8d 85 30 04 00
	00		 lea	 eax, DWORD PTR _itemlink$68[ebp]
  00815	50		 push	 eax
  00816	e8 00 00 00 00	 call	 __snprintf
  0081b	83 c4 20	 add	 esp, 32			; 00000020H
  0081e	89 45 88	 mov	 DWORD PTR _len$49[ebp], eax
; File C:\Program Files (x86)\Microsoft Visual Studio\2019\Community\VC\Tools\MSVC\14.28.29333\include\vector

; 1483 :         auto& _My_data = _Mypair._Myval2;

  00821	8d 45 8c	 lea	 eax, DWORD PTR _results$[ebp]
  00824	89 85 64 ff ff
	ff		 mov	 DWORD PTR __My_data$40[ebp], eax

; 1484 :         return static_cast<size_type>(_My_data._Mylast - _My_data._Myfirst);

  0082a	8b 85 64 ff ff
	ff		 mov	 eax, DWORD PTR __My_data$40[ebp]
  00830	8b 8d 64 ff ff
	ff		 mov	 ecx, DWORD PTR __My_data$40[ebp]
  00836	8b 40 04	 mov	 eax, DWORD PTR [eax+4]
  00839	2b 01		 sub	 eax, DWORD PTR [ecx]
  0083b	99		 cdq
  0083c	6a 18		 push	 24			; 00000018H
  0083e	59		 pop	 ecx
  0083f	f7 f9		 idiv	 ecx
  00841	89 85 f8 fe ff
	ff		 mov	 DWORD PTR $T14[ebp], eax
; File D:\Metin2 Server Files\mainline\SRC_2014\Metin2Client\UserInterface\PythonChatModule.cpp

; 427  : 			if (results.size() >= 8)

  00847	83 bd f8 fe ff
	ff 08		 cmp	 DWORD PTR $T14[ebp], 8
  0084e	0f 82 b1 01 00
	00		 jb	 $LN9@chatGetLin

; 429  : 				for (int i = 6; i < results.size(); i += 2)

  00854	c7 45 ac 06 00
	00 00		 mov	 DWORD PTR _i$55[ebp], 6
  0085b	eb 08		 jmp	 SHORT $LN4@chatGetLin
$LN2@chatGetLin:
  0085d	8b 45 ac	 mov	 eax, DWORD PTR _i$55[ebp]
  00860	40		 inc	 eax
  00861	40		 inc	 eax
  00862	89 45 ac	 mov	 DWORD PTR _i$55[ebp], eax
$LN4@chatGetLin:
; File C:\Program Files (x86)\Microsoft Visual Studio\2019\Community\VC\Tools\MSVC\14.28.29333\include\vector

; 1483 :         auto& _My_data = _Mypair._Myval2;

  00865	8d 45 8c	 lea	 eax, DWORD PTR _results$[ebp]
  00868	89 85 60 ff ff
	ff		 mov	 DWORD PTR __My_data$39[ebp], eax

; 1484 :         return static_cast<size_type>(_My_data._Mylast - _My_data._Myfirst);

  0086e	8b 85 60 ff ff
	ff		 mov	 eax, DWORD PTR __My_data$39[ebp]
  00874	8b 8d 60 ff ff
	ff		 mov	 ecx, DWORD PTR __My_data$39[ebp]
  0087a	8b 40 04	 mov	 eax, DWORD PTR [eax+4]
  0087d	2b 01		 sub	 eax, DWORD PTR [ecx]
  0087f	99		 cdq
  00880	6a 18		 push	 24			; 00000018H
  00882	59		 pop	 ecx
  00883	f7 f9		 idiv	 ecx
  00885	89 85 f4 fe ff
	ff		 mov	 DWORD PTR $T13[ebp], eax
; File D:\Metin2 Server Files\mainline\SRC_2014\Metin2Client\UserInterface\PythonChatModule.cpp

; 429  : 				for (int i = 6; i < results.size(); i += 2)

  0088b	8b 45 ac	 mov	 eax, DWORD PTR _i$55[ebp]
  0088e	3b 85 f4 fe ff
	ff		 cmp	 eax, DWORD PTR $T13[ebp]
  00894	0f 83 6b 01 00
	00		 jae	 $LN9@chatGetLin
; File C:\Program Files (x86)\Microsoft Visual Studio\2019\Community\VC\Tools\MSVC\14.28.29333\include\vector

; 1498 :         auto& _My_data = _Mypair._Myval2;

  0089a	8d 45 8c	 lea	 eax, DWORD PTR _results$[ebp]
  0089d	89 85 f0 fe ff
	ff		 mov	 DWORD PTR __My_data$12[ebp], eax
; File D:\Metin2 Server Files\mainline\SRC_2014\Metin2Client\UserInterface\PythonChatModule.cpp

; 431  : 					len += snprintf(itemlink + len, sizeof(itemlink) - len, ":%x:%d", 

  008a3	8b 45 ac	 mov	 eax, DWORD PTR _i$55[ebp]
  008a6	40		 inc	 eax
; File C:\Program Files (x86)\Microsoft Visual Studio\2019\Community\VC\Tools\MSVC\14.28.29333\include\vector

; 1504 :         return _My_data._Myfirst[_Pos];

  008a7	6b c0 18	 imul	 eax, eax, 24
  008aa	8b 8d f0 fe ff
	ff		 mov	 ecx, DWORD PTR __My_data$12[ebp]
  008b0	03 01		 add	 eax, DWORD PTR [ecx]
  008b2	89 85 e0 fe ff
	ff		 mov	 DWORD PTR $T8[ebp], eax

; 1498 :         auto& _My_data = _Mypair._Myval2;

  008b8	8d 45 8c	 lea	 eax, DWORD PTR _results$[ebp]
  008bb	89 85 ec fe ff
	ff		 mov	 DWORD PTR __My_data$11[ebp], eax

; 1504 :         return _My_data._Myfirst[_Pos];

  008c1	6b 45 ac 18	 imul	 eax, DWORD PTR _i$55[ebp], 24
  008c5	8b 8d ec fe ff
	ff		 mov	 ecx, DWORD PTR __My_data$11[ebp]
  008cb	03 01		 add	 eax, DWORD PTR [ecx]
  008cd	89 85 c4 fe ff
	ff		 mov	 DWORD PTR $T2[ebp], eax
; File D:\Metin2 Server Files\mainline\SRC_2014\Metin2Client\UserInterface\PythonChatModule.cpp

; 431  : 					len += snprintf(itemlink + len, sizeof(itemlink) - len, ":%x:%d", 

  008d3	8b 8d c4 fe ff
	ff		 mov	 ecx, DWORD PTR $T2[ebp]
  008d9	e8 00 00 00 00	 call	 ?c_str@?$basic_string@DU?$char_traits@D@std@@V?$allocator@D@2@@std@@QBEPBDXZ ; std::basic_string<char,std::char_traits<char>,std::allocator<char> >::c_str
  008de	89 45 d8	 mov	 DWORD PTR _s$[ebp], eax
; File D:\Metin2 Server Files\mainline\SRC_2014\Metin2Client\eterBase\Utils.h

; 192  :     const char *t = s;

  008e1	8b 45 d8	 mov	 eax, DWORD PTR _s$[ebp]
  008e4	89 85 e4 fe ff
	ff		 mov	 DWORD PTR _t$9[ebp], eax

; 193  :     int x = 0, y = 1;

  008ea	83 65 b8 00	 and	 DWORD PTR _x$58[ebp], 0
  008ee	c7 45 a8 01 00
	00 00		 mov	 DWORD PTR _y$54[ebp], 1

; 194  :     s += strlen(s);

  008f5	ff 75 d8	 push	 DWORD PTR _s$[ebp]
  008f8	e8 00 00 00 00	 call	 _strlen
  008fd	59		 pop	 ecx
  008fe	03 45 d8	 add	 eax, DWORD PTR _s$[ebp]
  00901	89 45 d8	 mov	 DWORD PTR _s$[ebp], eax
$LN266@chatGetLin:

; 195  : 
; 196  :     while (t <= --s)

  00904	8b 45 d8	 mov	 eax, DWORD PTR _s$[ebp]
  00907	48		 dec	 eax
  00908	89 45 d8	 mov	 DWORD PTR _s$[ebp], eax
  0090b	8b 85 e4 fe ff
	ff		 mov	 eax, DWORD PTR _t$9[ebp]
  00911	3b 45 d8	 cmp	 eax, DWORD PTR _s$[ebp]
  00914	0f 87 98 00 00
	00		 ja	 $LN267@chatGetLin

; 197  :     {
; 198  : 		if ('0' <= *s && *s <= '9')

  0091a	8b 45 d8	 mov	 eax, DWORD PTR _s$[ebp]
  0091d	0f be 00	 movsx	 eax, BYTE PTR [eax]
  00920	83 f8 30	 cmp	 eax, 48			; 00000030H
  00923	7c 20		 jl	 SHORT $LN268@chatGetLin
  00925	8b 45 d8	 mov	 eax, DWORD PTR _s$[ebp]
  00928	0f be 00	 movsx	 eax, BYTE PTR [eax]
  0092b	83 f8 39	 cmp	 eax, 57			; 00000039H
  0092e	7f 15		 jg	 SHORT $LN268@chatGetLin

; 199  :             x += y * (*s - '0');

  00930	8b 45 d8	 mov	 eax, DWORD PTR _s$[ebp]
  00933	0f be 00	 movsx	 eax, BYTE PTR [eax]
  00936	83 e8 30	 sub	 eax, 48			; 00000030H
  00939	0f af 45 a8	 imul	 eax, DWORD PTR _y$54[ebp]
  0093d	03 45 b8	 add	 eax, DWORD PTR _x$58[ebp]
  00940	89 45 b8	 mov	 DWORD PTR _x$58[ebp], eax
  00943	eb 5f		 jmp	 SHORT $LN269@chatGetLin
$LN268@chatGetLin:

; 200  :         else if ('a' <= *s && *s <= 'f')

  00945	8b 45 d8	 mov	 eax, DWORD PTR _s$[ebp]
  00948	0f be 00	 movsx	 eax, BYTE PTR [eax]
  0094b	83 f8 61	 cmp	 eax, 97			; 00000061H
  0094e	7c 20		 jl	 SHORT $LN270@chatGetLin
  00950	8b 45 d8	 mov	 eax, DWORD PTR _s$[ebp]
  00953	0f be 00	 movsx	 eax, BYTE PTR [eax]
  00956	83 f8 66	 cmp	 eax, 102		; 00000066H
  00959	7f 15		 jg	 SHORT $LN270@chatGetLin

; 201  :             x += y * (*s - 'a' + 10);

  0095b	8b 45 d8	 mov	 eax, DWORD PTR _s$[ebp]
  0095e	0f be 00	 movsx	 eax, BYTE PTR [eax]
  00961	83 e8 57	 sub	 eax, 87			; 00000057H
  00964	0f af 45 a8	 imul	 eax, DWORD PTR _y$54[ebp]
  00968	03 45 b8	 add	 eax, DWORD PTR _x$58[ebp]
  0096b	89 45 b8	 mov	 DWORD PTR _x$58[ebp], eax
  0096e	eb 34		 jmp	 SHORT $LN269@chatGetLin
$LN270@chatGetLin:

; 202  :         else if ('A' <= *s && *s <= 'F')

  00970	8b 45 d8	 mov	 eax, DWORD PTR _s$[ebp]
  00973	0f be 00	 movsx	 eax, BYTE PTR [eax]
  00976	83 f8 41	 cmp	 eax, 65			; 00000041H
  00979	7c 20		 jl	 SHORT $LN272@chatGetLin
  0097b	8b 45 d8	 mov	 eax, DWORD PTR _s$[ebp]
  0097e	0f be 00	 movsx	 eax, BYTE PTR [eax]
  00981	83 f8 46	 cmp	 eax, 70			; 00000046H
  00984	7f 15		 jg	 SHORT $LN272@chatGetLin

; 203  :             x += y * (10 + *s - 'A');

  00986	8b 45 d8	 mov	 eax, DWORD PTR _s$[ebp]
  00989	0f be 00	 movsx	 eax, BYTE PTR [eax]
  0098c	83 e8 37	 sub	 eax, 55			; 00000037H
  0098f	0f af 45 a8	 imul	 eax, DWORD PTR _y$54[ebp]
  00993	03 45 b8	 add	 eax, DWORD PTR _x$58[ebp]
  00996	89 45 b8	 mov	 DWORD PTR _x$58[ebp], eax
  00999	eb 09		 jmp	 SHORT $LN269@chatGetLin
$LN272@chatGetLin:

; 204  :         else
; 205  :             return -1; /* invalid input! */

  0099b	83 8d 5c ff ff
	ff ff		 or	 DWORD PTR $T38[ebp], -1
  009a2	eb 17		 jmp	 SHORT $LN265@chatGetLin
$LN269@chatGetLin:

; 206  :         y <<= 4;

  009a4	8b 45 a8	 mov	 eax, DWORD PTR _y$54[ebp]
  009a7	c1 e0 04	 shl	 eax, 4
  009aa	89 45 a8	 mov	 DWORD PTR _y$54[ebp], eax

; 207  :     }

  009ad	e9 52 ff ff ff	 jmp	 $LN266@chatGetLin
$LN267@chatGetLin:

; 208  : 
; 209  :     return x;

  009b2	8b 45 b8	 mov	 eax, DWORD PTR _x$58[ebp]
  009b5	89 85 5c ff ff
	ff		 mov	 DWORD PTR $T38[ebp], eax
$LN265@chatGetLin:
; File D:\Metin2 Server Files\mainline\SRC_2014\Metin2Client\UserInterface\PythonChatModule.cpp

; 431  : 					len += snprintf(itemlink + len, sizeof(itemlink) - len, ":%x:%d", 

  009bb	8b 8d e0 fe ff
	ff		 mov	 ecx, DWORD PTR $T8[ebp]
  009c1	e8 00 00 00 00	 call	 ?c_str@?$basic_string@DU?$char_traits@D@std@@V?$allocator@D@2@@std@@QBEPBDXZ ; std::basic_string<char,std::char_traits<char>,std::allocator<char> >::c_str
  009c6	50		 push	 eax
  009c7	e8 00 00 00 00	 call	 __atoi64
  009cc	59		 pop	 ecx
  009cd	52		 push	 edx
  009ce	50		 push	 eax
  009cf	ff b5 5c ff ff
	ff		 push	 DWORD PTR $T38[ebp]
  009d5	68 00 00 00 00	 push	 OFFSET ??_C@_06FAMCNHHL@?3?$CFx?3?$CFd@
  009da	b8 00 01 00 00	 mov	 eax, 256		; 00000100H
  009df	2b 45 88	 sub	 eax, DWORD PTR _len$49[ebp]
  009e2	50		 push	 eax
  009e3	8b 45 88	 mov	 eax, DWORD PTR _len$49[ebp]
  009e6	8d 84 05 30 04
	00 00		 lea	 eax, DWORD PTR _itemlink$68[ebp+eax]
  009ed	50		 push	 eax
  009ee	e8 00 00 00 00	 call	 __snprintf
  009f3	83 c4 18	 add	 esp, 24			; 00000018H
  009f6	03 45 88	 add	 eax, DWORD PTR _len$49[ebp]
  009f9	89 45 88	 mov	 DWORD PTR _len$49[ebp], eax

; 432  : 							htoi(results[i].c_str()),
; 433  : 							atoi(results[i+1].c_str()));
; 434  : 					isAttr = true;

  009fc	c6 45 d7 01	 mov	 BYTE PTR _isAttr$65[ebp], 1

; 435  : 				}

  00a00	e9 58 fe ff ff	 jmp	 $LN2@chatGetLin
$LN9@chatGetLin:

; 436  : 			}
; 437  : 
; 438  : 			if (isAttr)

  00a05	0f b6 45 d7	 movzx	 eax, BYTE PTR _isAttr$65[ebp]
  00a09	85 c0		 test	 eax, eax
  00a0b	74 28		 je	 SHORT $LN10@chatGetLin

; 439  : 				//"item:::0:1:2"
; 440  : 				snprintf(buf, sizeof(buf), "|cffffc700|H%s|h[%s]|h|r", itemlink, pItemData->GetName());

  00a0d	8b 4d 84	 mov	 ecx, DWORD PTR _pItemData$48[ebp]
  00a10	e8 00 00 00 00	 call	 ?GetName@CItemData@@QBEPBDXZ ; CItemData::GetName
  00a15	50		 push	 eax
  00a16	8d 85 30 04 00
	00		 lea	 eax, DWORD PTR _itemlink$68[ebp]
  00a1c	50		 push	 eax
  00a1d	68 00 00 00 00	 push	 OFFSET ??_C@_0BJ@DABMGIOF@?$HMcffffc700?$HMH?$CFs?$HMh?$FL?$CFs?$FN?$HMh?$HMr@
  00a22	68 00 04 00 00	 push	 1024			; 00000400H
  00a27	8d 45 30	 lea	 eax, DWORD PTR _buf$67[ebp]
  00a2a	50		 push	 eax
  00a2b	e8 00 00 00 00	 call	 __snprintf
  00a30	83 c4 14	 add	 esp, 20			; 00000014H
  00a33	eb 26		 jmp	 SHORT $LN11@chatGetLin
$LN10@chatGetLin:

; 441  : 			else
; 442  : 				snprintf(buf, sizeof(buf), "|cfff1e6c0|H%s|h[%s]|h|r", itemlink, pItemData->GetName());

  00a35	8b 4d 84	 mov	 ecx, DWORD PTR _pItemData$48[ebp]
  00a38	e8 00 00 00 00	 call	 ?GetName@CItemData@@QBEPBDXZ ; CItemData::GetName
  00a3d	50		 push	 eax
  00a3e	8d 85 30 04 00
	00		 lea	 eax, DWORD PTR _itemlink$68[ebp]
  00a44	50		 push	 eax
  00a45	68 00 00 00 00	 push	 OFFSET ??_C@_0BJ@GPGFNPLK@?$HMcfff1e6c0?$HMH?$CFs?$HMh?$FL?$CFs?$FN?$HMh?$HMr@
  00a4a	68 00 04 00 00	 push	 1024			; 00000400H
  00a4f	8d 45 30	 lea	 eax, DWORD PTR _buf$67[ebp]
  00a52	50		 push	 eax
  00a53	e8 00 00 00 00	 call	 __snprintf
  00a58	83 c4 14	 add	 esp, 20			; 00000014H
$LN11@chatGetLin:

; 444  : 			return Py_BuildValue("s", buf);

  00a5b	8d 45 30	 lea	 eax, DWORD PTR _buf$67[ebp]
  00a5e	50		 push	 eax
  00a5f	68 00 00 00 00	 push	 OFFSET ??_C@_01LKDEMHDF@s@
  00a64	ff 15 00 00 00
	00		 call	 DWORD PTR __imp__Py_BuildValue
  00a6a	59		 pop	 ecx
  00a6b	59		 pop	 ecx
  00a6c	89 85 dc fe ff
	ff		 mov	 DWORD PTR $T7[ebp], eax
  00a72	c6 45 fc 00	 mov	 BYTE PTR __$EHRec$[ebp+8], 0
; File C:\Program Files (x86)\Microsoft Visual Studio\2019\Community\VC\Tools\MSVC\14.28.29333\include\vector

; 673  :         _Tidy();

  00a76	8d 4d 8c	 lea	 ecx, DWORD PTR _results$[ebp]
  00a79	e8 00 00 00 00	 call	 ?_Tidy@?$vector@V?$basic_string@DU?$char_traits@D@std@@V?$allocator@D@2@@std@@V?$allocator@V?$basic_string@DU?$char_traits@D@std@@V?$allocator@D@2@@std@@@2@@std@@AAEXXZ ; std::vector<std::basic_string<char,std::char_traits<char>,std::allocator<char> >,std::allocator<std::basic_string<char,std::char_traits<char>,std::allocator<char> > > >::_Tidy
; File D:\Metin2 Server Files\mainline\SRC_2014\Metin2Client\UserInterface\PythonChatModule.cpp

; 444  : 			return Py_BuildValue("s", buf);

  00a7e	83 4d fc ff	 or	 DWORD PTR __$EHRec$[ebp+8], -1
; File C:\Program Files (x86)\Microsoft Visual Studio\2019\Community\VC\Tools\MSVC\14.28.29333\include\xstring

; 2801 :         _Tidy_deallocate();

  00a82	8d 4d 18	 lea	 ecx, DWORD PTR _stHyperlink$[ebp]
  00a85	e8 00 00 00 00	 call	 ?_Tidy_deallocate@?$basic_string@DU?$char_traits@D@std@@V?$allocator@D@2@@std@@AAEXXZ ; std::basic_string<char,std::char_traits<char>,std::allocator<char> >::_Tidy_deallocate
; File D:\Metin2 Server Files\mainline\SRC_2014\Metin2Client\UserInterface\PythonChatModule.cpp

; 444  : 			return Py_BuildValue("s", buf);

  00a8a	8b 85 dc fe ff
	ff		 mov	 eax, DWORD PTR $T7[ebp]
  00a90	eb 36		 jmp	 SHORT $LN1@chatGetLin
$LN6@chatGetLin:

; 448  : 	return Py_BuildValue("s", "");

  00a92	68 00 00 00 00	 push	 OFFSET ??_C@_00CNPNBAHC@@
  00a97	68 00 00 00 00	 push	 OFFSET ??_C@_01LKDEMHDF@s@
  00a9c	ff 15 00 00 00
	00		 call	 DWORD PTR __imp__Py_BuildValue
  00aa2	59		 pop	 ecx
  00aa3	59		 pop	 ecx
  00aa4	89 85 d8 fe ff
	ff		 mov	 DWORD PTR $T6[ebp], eax
  00aaa	c6 45 fc 00	 mov	 BYTE PTR __$EHRec$[ebp+8], 0
; File C:\Program Files (x86)\Microsoft Visual Studio\2019\Community\VC\Tools\MSVC\14.28.29333\include\vector

; 673  :         _Tidy();

  00aae	8d 4d 8c	 lea	 ecx, DWORD PTR _results$[ebp]
  00ab1	e8 00 00 00 00	 call	 ?_Tidy@?$vector@V?$basic_string@DU?$char_traits@D@std@@V?$allocator@D@2@@std@@V?$allocator@V?$basic_string@DU?$char_traits@D@std@@V?$allocator@D@2@@std@@@2@@std@@AAEXXZ ; std::vector<std::basic_string<char,std::char_traits<char>,std::allocator<char> >,std::allocator<std::basic_string<char,std::char_traits<char>,std::allocator<char> > > >::_Tidy
; File D:\Metin2 Server Files\mainline\SRC_2014\Metin2Client\UserInterface\PythonChatModule.cpp

; 448  : 	return Py_BuildValue("s", "");

  00ab6	83 4d fc ff	 or	 DWORD PTR __$EHRec$[ebp+8], -1
; File C:\Program Files (x86)\Microsoft Visual Studio\2019\Community\VC\Tools\MSVC\14.28.29333\include\xstring

; 2801 :         _Tidy_deallocate();

  00aba	8d 4d 18	 lea	 ecx, DWORD PTR _stHyperlink$[ebp]
  00abd	e8 00 00 00 00	 call	 ?_Tidy_deallocate@?$basic_string@DU?$char_traits@D@std@@V?$allocator@D@2@@std@@AAEXXZ ; std::basic_string<char,std::char_traits<char>,std::allocator<char> >::_Tidy_deallocate
; File D:\Metin2 Server Files\mainline\SRC_2014\Metin2Client\UserInterface\PythonChatModule.cpp

; 448  : 	return Py_BuildValue("s", "");

  00ac2	8b 85 d8 fe ff
	ff		 mov	 eax, DWORD PTR $T6[ebp]
$LN1@chatGetLin:

; 449  : }

  00ac8	8b 4d f4	 mov	 ecx, DWORD PTR __$EHRec$[ebp]
  00acb	64 89 0d 00 00
	00 00		 mov	 DWORD PTR fs:0, ecx
  00ad2	59		 pop	 ecx
  00ad3	8b 8d 30 05 00
	00		 mov	 ecx, DWORD PTR __$ArrayPad$[ebp]
  00ad9	33 cd		 xor	 ecx, ebp
  00adb	e8 00 00 00 00	 call	 @__security_check_cookie@4
  00ae0	81 c5 34 05 00
	00		 add	 ebp, 1332		; 00000534H
  00ae6	c9		 leave
  00ae7	c3		 ret	 0
_TEXT	ENDS
;	COMDAT text$x
text$x	SEGMENT
__unwindfunclet$?chatGetLinkFromHyperlink@@YAPAU_object@@PAU1@0@Z$0:
  00000	8d 4d 18	 lea	 ecx, DWORD PTR _stHyperlink$[ebp]
  00003	e9 00 00 00 00	 jmp	 ??1?$basic_string@DU?$char_traits@D@std@@V?$allocator@D@2@@std@@QAE@XZ ; std::basic_string<char,std::char_traits<char>,std::allocator<char> >::~basic_string<char,std::char_traits<char>,std::allocator<char> >
__unwindfunclet$?chatGetLinkFromHyperlink@@YAPAU_object@@PAU1@0@Z$1:
  00008	8d 4d 8c	 lea	 ecx, DWORD PTR _results$[ebp]
  0000b	e9 00 00 00 00	 jmp	 ??1?$vector@V?$basic_string@DU?$char_traits@D@std@@V?$allocator@D@2@@std@@V?$allocator@V?$basic_string@DU?$char_traits@D@std@@V?$allocator@D@2@@std@@@2@@std@@QAE@XZ ; std::vector<std::basic_string<char,std::char_traits<char>,std::allocator<char> >,std::allocator<std::basic_string<char,std::char_traits<char>,std::allocator<char> > > >::~vector<std::basic_string<char,std::char_traits<char>,std::allocator<char> >,std::allocator<std::basic_string<char,std::char_traits<char>,std::allocator<char> > > >
__unwindfunclet$?chatGetLinkFromHyperlink@@YAPAU_object@@PAU1@0@Z$2:
  00010	8d 4d 00	 lea	 ecx, DWORD PTR $T66[ebp]
  00013	e9 00 00 00 00	 jmp	 ??1?$basic_string@DU?$char_traits@D@std@@V?$allocator@D@2@@std@@QAE@XZ ; std::basic_string<char,std::char_traits<char>,std::allocator<char> >::~basic_string<char,std::char_traits<char>,std::allocator<char> >
  00018	cc		 int	 3
  00019	cc		 int	 3
  0001a	cc		 int	 3
  0001b	cc		 int	 3
  0001c	cc		 int	 3
__ehhandler$?chatGetLinkFromHyperlink@@YAPAU_object@@PAU1@0@Z:
  0001d	90		 npad	 1
  0001e	90		 npad	 1
  0001f	8b 54 24 08	 mov	 edx, DWORD PTR [esp+8]
  00023	8d 42 0c	 lea	 eax, DWORD PTR [edx+12]
  00026	8b 8a cc fe ff
	ff		 mov	 ecx, DWORD PTR [edx-308]
  0002c	33 c8		 xor	 ecx, eax
  0002e	e8 00 00 00 00	 call	 @__security_check_cookie@4
  00033	8b 8a 3c 05 00
	00		 mov	 ecx, DWORD PTR [edx+1340]
  00039	33 c8		 xor	 ecx, eax
  0003b	e8 00 00 00 00	 call	 @__security_check_cookie@4
  00040	b8 00 00 00 00	 mov	 eax, OFFSET __ehfuncinfo$?chatGetLinkFromHyperlink@@YAPAU_object@@PAU1@0@Z
  00045	e9 00 00 00 00	 jmp	 ___CxxFrameHandler3
text$x	ENDS
?chatGetLinkFromHyperlink@@YAPAU_object@@PAU1@0@Z ENDP	; chatGetLinkFromHyperlink
; Function compile flags: /Odspy
; File D:\Metin2 Server Files\mainline\SRC_2014\Metin2Client\UserInterface\PythonChatModule.cpp
;	COMDAT ?chatInitWhisper@@YAPAU_object@@PAU1@0@Z
_TEXT	SEGMENT
_poInterface$ = -4					; size = 4
_poSelf$ = 8						; size = 4
_poArgs$ = 12						; size = 4
?chatInitWhisper@@YAPAU_object@@PAU1@0@Z PROC		; chatInitWhisper, COMDAT

; 384  : {

  00000	55		 push	 ebp
  00001	8b ec		 mov	 ebp, esp
  00003	51		 push	 ecx

; 385  : 	PyObject * poInterface;
; 386  : 	if (!PyTuple_GetObject(poArgs, 0, &poInterface))

  00004	8d 45 fc	 lea	 eax, DWORD PTR _poInterface$[ebp]
  00007	50		 push	 eax
  00008	6a 00		 push	 0
  0000a	ff 75 0c	 push	 DWORD PTR _poArgs$[ebp]
  0000d	e8 00 00 00 00	 call	 ?PyTuple_GetObject@@YA_NPAU_object@@HPAPAU1@@Z ; PyTuple_GetObject
  00012	83 c4 0c	 add	 esp, 12			; 0000000cH
  00015	0f b6 c0	 movzx	 eax, al
  00018	85 c0		 test	 eax, eax
  0001a	75 0a		 jne	 SHORT $LN4@chatInitWh

; 387  : 		return Py_BuildException();

  0001c	6a 00		 push	 0
  0001e	e8 00 00 00 00	 call	 ?Py_BuildException@@YAPAU_object@@PBDZZ ; Py_BuildException
  00023	59		 pop	 ecx
  00024	eb 13		 jmp	 SHORT $LN1@chatInitWh
$LN4@chatInitWh:

; 388  : 
; 389  : 	CPythonChat::Instance().InitWhisper(poInterface);

  00026	ff 75 fc	 push	 DWORD PTR _poInterface$[ebp]
  00029	8b 0d 00 00 00
	00		 mov	 ecx, DWORD PTR ?ms_singleton@?$CSingleton@VCPythonChat@@@@0PAVCPythonChat@@A ; CSingleton<CPythonChat>::ms_singleton
  0002f	e8 00 00 00 00	 call	 ?InitWhisper@CPythonChat@@QAEXPAU_object@@@Z ; CPythonChat::InitWhisper

; 390  : 	return Py_BuildNone();

  00034	e8 00 00 00 00	 call	 ?Py_BuildNone@@YAPAU_object@@XZ ; Py_BuildNone
$LN1@chatInitWh:

; 391  : }

  00039	c9		 leave
  0003a	c3		 ret	 0
?chatInitWhisper@@YAPAU_object@@PAU1@0@Z ENDP		; chatInitWhisper
_TEXT	ENDS
; Function compile flags: /Odspy
; File D:\Metin2 Server Files\mainline\SRC_2014\Metin2Client\UserInterface\PythonChatModule.cpp
;	COMDAT ?chatClearWhisper@@YAPAU_object@@PAU1@0@Z
_TEXT	SEGMENT
_szName$ = -4						; size = 4
_poSelf$ = 8						; size = 4
_poArgs$ = 12						; size = 4
?chatClearWhisper@@YAPAU_object@@PAU1@0@Z PROC		; chatClearWhisper, COMDAT

; 373  : {

  00000	55		 push	 ebp
  00001	8b ec		 mov	 ebp, esp
  00003	51		 push	 ecx

; 374  : 	char * szName;
; 375  : 	if (!PyTuple_GetString(poArgs, 0, &szName))

  00004	8d 45 fc	 lea	 eax, DWORD PTR _szName$[ebp]
  00007	50		 push	 eax
  00008	6a 00		 push	 0
  0000a	ff 75 0c	 push	 DWORD PTR _poArgs$[ebp]
  0000d	e8 00 00 00 00	 call	 ?PyTuple_GetString@@YA_NPAU_object@@HPAPAD@Z ; PyTuple_GetString
  00012	83 c4 0c	 add	 esp, 12			; 0000000cH
  00015	0f b6 c0	 movzx	 eax, al
  00018	85 c0		 test	 eax, eax
  0001a	75 0a		 jne	 SHORT $LN4@chatClearW

; 376  : 		return Py_BuildException();

  0001c	6a 00		 push	 0
  0001e	e8 00 00 00 00	 call	 ?Py_BuildException@@YAPAU_object@@PBDZZ ; Py_BuildException
  00023	59		 pop	 ecx
  00024	eb 13		 jmp	 SHORT $LN1@chatClearW
$LN4@chatClearW:

; 377  : 
; 378  : 	CPythonChat::Instance().ClearWhisper(szName);

  00026	ff 75 fc	 push	 DWORD PTR _szName$[ebp]
  00029	8b 0d 00 00 00
	00		 mov	 ecx, DWORD PTR ?ms_singleton@?$CSingleton@VCPythonChat@@@@0PAVCPythonChat@@A ; CSingleton<CPythonChat>::ms_singleton
  0002f	e8 00 00 00 00	 call	 ?ClearWhisper@CPythonChat@@QAEXPBD@Z ; CPythonChat::ClearWhisper

; 379  : 
; 380  : 	return Py_BuildNone();

  00034	e8 00 00 00 00	 call	 ?Py_BuildNone@@YAPAU_object@@XZ ; Py_BuildNone
$LN1@chatClearW:

; 381  : }

  00039	c9		 leave
  0003a	c3		 ret	 0
?chatClearWhisper@@YAPAU_object@@PAU1@0@Z ENDP		; chatClearWhisper
_TEXT	ENDS
; Function compile flags: /Odspy
; File D:\Metin2 Server Files\mainline\SRC_2014\Metin2Client\UserInterface\PythonChatModule.cpp
; File D:\Metin2 Server Files\mainline\SRC_2014\Metin2Client\eterBase\Singleton.h
; File D:\Metin2 Server Files\mainline\SRC_2014\Metin2Client\UserInterface\PythonChatModule.cpp
;	COMDAT ?chatSetWhisperPosition@@YAPAU_object@@PAU1@0@Z
_TEXT	SEGMENT
_pWhisper$ = -16					; size = 4
_fPosition$ = -12					; size = 4
$T1 = -8						; size = 4
_szName$ = -4						; size = 4
_poSelf$ = 8						; size = 4
_poArgs$ = 12						; size = 4
?chatSetWhisperPosition@@YAPAU_object@@PAU1@0@Z PROC	; chatSetWhisperPosition, COMDAT

; 354  : {

  00000	55		 push	 ebp
  00001	8b ec		 mov	 ebp, esp
  00003	83 ec 10	 sub	 esp, 16			; 00000010H

; 355  : 	char * szName;
; 356  : 	if (!PyTuple_GetString(poArgs, 0, &szName))

  00006	8d 45 fc	 lea	 eax, DWORD PTR _szName$[ebp]
  00009	50		 push	 eax
  0000a	6a 00		 push	 0
  0000c	ff 75 0c	 push	 DWORD PTR _poArgs$[ebp]
  0000f	e8 00 00 00 00	 call	 ?PyTuple_GetString@@YA_NPAU_object@@HPAPAD@Z ; PyTuple_GetString
  00014	83 c4 0c	 add	 esp, 12			; 0000000cH
  00017	0f b6 c0	 movzx	 eax, al
  0001a	85 c0		 test	 eax, eax
  0001c	75 0a		 jne	 SHORT $LN2@chatSetWhi

; 357  : 		return Py_BuildException();

  0001e	6a 00		 push	 0
  00020	e8 00 00 00 00	 call	 ?Py_BuildException@@YAPAU_object@@PBDZZ ; Py_BuildException
  00025	59		 pop	 ecx
  00026	eb 55		 jmp	 SHORT $LN1@chatSetWhi
$LN2@chatSetWhi:

; 358  : 
; 359  : 	float fPosition;
; 360  : 	if (!PyTuple_GetFloat(poArgs, 1, &fPosition))

  00028	8d 45 f4	 lea	 eax, DWORD PTR _fPosition$[ebp]
  0002b	50		 push	 eax
  0002c	6a 01		 push	 1
  0002e	ff 75 0c	 push	 DWORD PTR _poArgs$[ebp]
  00031	e8 00 00 00 00	 call	 ?PyTuple_GetFloat@@YA_NPAU_object@@HPAM@Z ; PyTuple_GetFloat
  00036	83 c4 0c	 add	 esp, 12			; 0000000cH
  00039	0f b6 c0	 movzx	 eax, al
  0003c	85 c0		 test	 eax, eax
  0003e	75 0a		 jne	 SHORT $LN3@chatSetWhi

; 361  : 		return Py_BuildException();

  00040	6a 00		 push	 0
  00042	e8 00 00 00 00	 call	 ?Py_BuildException@@YAPAU_object@@PBDZZ ; Py_BuildException
  00047	59		 pop	 ecx
  00048	eb 33		 jmp	 SHORT $LN1@chatSetWhi
$LN3@chatSetWhi:
; File D:\Metin2 Server Files\mainline\SRC_2014\Metin2Client\eterBase\Singleton.h

; 27   : 		return (*ms_singleton);

  0004a	a1 00 00 00 00	 mov	 eax, DWORD PTR ?ms_singleton@?$CSingleton@VCPythonChat@@@@0PAVCPythonChat@@A ; CSingleton<CPythonChat>::ms_singleton
  0004f	89 45 f8	 mov	 DWORD PTR $T1[ebp], eax
; File D:\Metin2 Server Files\mainline\SRC_2014\Metin2Client\UserInterface\PythonChatModule.cpp

; 364  : 	if (CPythonChat::Instance().GetWhisper(szName, &pWhisper))

  00052	8d 45 f0	 lea	 eax, DWORD PTR _pWhisper$[ebp]
  00055	50		 push	 eax
  00056	ff 75 fc	 push	 DWORD PTR _szName$[ebp]
  00059	8b 4d f8	 mov	 ecx, DWORD PTR $T1[ebp]
  0005c	e8 00 00 00 00	 call	 ?GetWhisper@CPythonChat@@QAEHPBDPAPAVCWhisper@@@Z ; CPythonChat::GetWhisper
  00061	85 c0		 test	 eax, eax
  00063	74 13		 je	 SHORT $LN4@chatSetWhi

; 365  : 	{
; 366  : 		pWhisper->SetPosition(fPosition);

  00065	51		 push	 ecx
  00066	f3 0f 10 45 f4	 movss	 xmm0, DWORD PTR _fPosition$[ebp]
  0006b	f3 0f 11 04 24	 movss	 DWORD PTR [esp], xmm0
  00070	8b 4d f0	 mov	 ecx, DWORD PTR _pWhisper$[ebp]
  00073	e8 00 00 00 00	 call	 ?SetPosition@CWhisper@@QAEXM@Z ; CWhisper::SetPosition
$LN4@chatSetWhi:

; 367  : 	}
; 368  : 
; 369  : 	return Py_BuildNone();

  00078	e8 00 00 00 00	 call	 ?Py_BuildNone@@YAPAU_object@@XZ ; Py_BuildNone
$LN1@chatSetWhi:

; 370  : }

  0007d	c9		 leave
  0007e	c3		 ret	 0
?chatSetWhisperPosition@@YAPAU_object@@PAU1@0@Z ENDP	; chatSetWhisperPosition
_TEXT	ENDS
; Function compile flags: /Odspy
; File D:\Metin2 Server Files\mainline\SRC_2014\Metin2Client\UserInterface\PythonChatModule.cpp
; File D:\Metin2 Server Files\mainline\SRC_2014\Metin2Client\eterBase\Singleton.h
; File D:\Metin2 Server Files\mainline\SRC_2014\Metin2Client\UserInterface\PythonChatModule.cpp
;	COMDAT ?chatSetWhisperBoxSize@@YAPAU_object@@PAU1@0@Z
_TEXT	SEGMENT
_pWhisper$ = -20					; size = 4
_fWidth$ = -16						; size = 4
_fHeight$ = -12						; size = 4
$T1 = -8						; size = 4
_szName$ = -4						; size = 4
_poSelf$ = 8						; size = 4
_poArgs$ = 12						; size = 4
?chatSetWhisperBoxSize@@YAPAU_object@@PAU1@0@Z PROC	; chatSetWhisperBoxSize, COMDAT

; 331  : {

  00000	55		 push	 ebp
  00001	8b ec		 mov	 ebp, esp
  00003	83 ec 14	 sub	 esp, 20			; 00000014H

; 332  : 	char * szName;
; 333  : 	if (!PyTuple_GetString(poArgs, 0, &szName))

  00006	8d 45 fc	 lea	 eax, DWORD PTR _szName$[ebp]
  00009	50		 push	 eax
  0000a	6a 00		 push	 0
  0000c	ff 75 0c	 push	 DWORD PTR _poArgs$[ebp]
  0000f	e8 00 00 00 00	 call	 ?PyTuple_GetString@@YA_NPAU_object@@HPAPAD@Z ; PyTuple_GetString
  00014	83 c4 0c	 add	 esp, 12			; 0000000cH
  00017	0f b6 c0	 movzx	 eax, al
  0001a	85 c0		 test	 eax, eax
  0001c	75 0d		 jne	 SHORT $LN2@chatSetWhi

; 334  : 		return Py_BuildException();

  0001e	6a 00		 push	 0
  00020	e8 00 00 00 00	 call	 ?Py_BuildException@@YAPAU_object@@PBDZZ ; Py_BuildException
  00025	59		 pop	 ecx
  00026	e9 82 00 00 00	 jmp	 $LN1@chatSetWhi
$LN2@chatSetWhi:

; 335  : 
; 336  : 	float fWidth;
; 337  : 	if (!PyTuple_GetFloat(poArgs, 1, &fWidth))

  0002b	8d 45 f0	 lea	 eax, DWORD PTR _fWidth$[ebp]
  0002e	50		 push	 eax
  0002f	6a 01		 push	 1
  00031	ff 75 0c	 push	 DWORD PTR _poArgs$[ebp]
  00034	e8 00 00 00 00	 call	 ?PyTuple_GetFloat@@YA_NPAU_object@@HPAM@Z ; PyTuple_GetFloat
  00039	83 c4 0c	 add	 esp, 12			; 0000000cH
  0003c	0f b6 c0	 movzx	 eax, al
  0003f	85 c0		 test	 eax, eax
  00041	75 0a		 jne	 SHORT $LN3@chatSetWhi

; 338  : 		return Py_BuildException();

  00043	6a 00		 push	 0
  00045	e8 00 00 00 00	 call	 ?Py_BuildException@@YAPAU_object@@PBDZZ ; Py_BuildException
  0004a	59		 pop	 ecx
  0004b	eb 60		 jmp	 SHORT $LN1@chatSetWhi
$LN3@chatSetWhi:

; 339  : 
; 340  : 	float fHeight;
; 341  : 	if (!PyTuple_GetFloat(poArgs, 2, &fHeight))

  0004d	8d 45 f4	 lea	 eax, DWORD PTR _fHeight$[ebp]
  00050	50		 push	 eax
  00051	6a 02		 push	 2
  00053	ff 75 0c	 push	 DWORD PTR _poArgs$[ebp]
  00056	e8 00 00 00 00	 call	 ?PyTuple_GetFloat@@YA_NPAU_object@@HPAM@Z ; PyTuple_GetFloat
  0005b	83 c4 0c	 add	 esp, 12			; 0000000cH
  0005e	0f b6 c0	 movzx	 eax, al
  00061	85 c0		 test	 eax, eax
  00063	75 0a		 jne	 SHORT $LN4@chatSetWhi

; 342  : 		return Py_BuildException();

  00065	6a 00		 push	 0
  00067	e8 00 00 00 00	 call	 ?Py_BuildException@@YAPAU_object@@PBDZZ ; Py_BuildException
  0006c	59		 pop	 ecx
  0006d	eb 3e		 jmp	 SHORT $LN1@chatSetWhi
$LN4@chatSetWhi:
; File D:\Metin2 Server Files\mainline\SRC_2014\Metin2Client\eterBase\Singleton.h

; 27   : 		return (*ms_singleton);

  0006f	a1 00 00 00 00	 mov	 eax, DWORD PTR ?ms_singleton@?$CSingleton@VCPythonChat@@@@0PAVCPythonChat@@A ; CSingleton<CPythonChat>::ms_singleton
  00074	89 45 f8	 mov	 DWORD PTR $T1[ebp], eax
; File D:\Metin2 Server Files\mainline\SRC_2014\Metin2Client\UserInterface\PythonChatModule.cpp

; 345  : 	if (CPythonChat::Instance().GetWhisper(szName, &pWhisper))

  00077	8d 45 ec	 lea	 eax, DWORD PTR _pWhisper$[ebp]
  0007a	50		 push	 eax
  0007b	ff 75 fc	 push	 DWORD PTR _szName$[ebp]
  0007e	8b 4d f8	 mov	 ecx, DWORD PTR $T1[ebp]
  00081	e8 00 00 00 00	 call	 ?GetWhisper@CPythonChat@@QAEHPBDPAPAVCWhisper@@@Z ; CPythonChat::GetWhisper
  00086	85 c0		 test	 eax, eax
  00088	74 1e		 je	 SHORT $LN5@chatSetWhi

; 346  : 	{
; 347  : 		pWhisper->SetBoxSize(fWidth, fHeight);

  0008a	51		 push	 ecx
  0008b	f3 0f 10 45 f4	 movss	 xmm0, DWORD PTR _fHeight$[ebp]
  00090	f3 0f 11 04 24	 movss	 DWORD PTR [esp], xmm0
  00095	51		 push	 ecx
  00096	f3 0f 10 45 f0	 movss	 xmm0, DWORD PTR _fWidth$[ebp]
  0009b	f3 0f 11 04 24	 movss	 DWORD PTR [esp], xmm0
  000a0	8b 4d ec	 mov	 ecx, DWORD PTR _pWhisper$[ebp]
  000a3	e8 00 00 00 00	 call	 ?SetBoxSize@CWhisper@@QAEXMM@Z ; CWhisper::SetBoxSize
$LN5@chatSetWhi:

; 348  : 	}
; 349  : 
; 350  : 	return Py_BuildNone();

  000a8	e8 00 00 00 00	 call	 ?Py_BuildNone@@YAPAU_object@@XZ ; Py_BuildNone
$LN1@chatSetWhi:

; 351  : }

  000ad	c9		 leave
  000ae	c3		 ret	 0
?chatSetWhisperBoxSize@@YAPAU_object@@PAU1@0@Z ENDP	; chatSetWhisperBoxSize
_TEXT	ENDS
; Function compile flags: /Odspy
; File D:\Metin2 Server Files\mainline\SRC_2014\Metin2Client\UserInterface\PythonChatModule.cpp
; File D:\Metin2 Server Files\mainline\SRC_2014\Metin2Client\eterBase\Singleton.h
; File D:\Metin2 Server Files\mainline\SRC_2014\Metin2Client\UserInterface\PythonChatModule.cpp
;	COMDAT ?chatRenderWhisper@@YAPAU_object@@PAU1@0@Z
_TEXT	SEGMENT
_pWhisper$ = -20					; size = 4
_fx$ = -16						; size = 4
_fy$ = -12						; size = 4
$T1 = -8						; size = 4
_szName$ = -4						; size = 4
_poSelf$ = 8						; size = 4
_poArgs$ = 12						; size = 4
?chatRenderWhisper@@YAPAU_object@@PAU1@0@Z PROC		; chatRenderWhisper, COMDAT

; 308  : {

  00000	55		 push	 ebp
  00001	8b ec		 mov	 ebp, esp
  00003	83 ec 14	 sub	 esp, 20			; 00000014H

; 309  : 	char * szName;
; 310  : 	if (!PyTuple_GetString(poArgs, 0, &szName))

  00006	8d 45 fc	 lea	 eax, DWORD PTR _szName$[ebp]
  00009	50		 push	 eax
  0000a	6a 00		 push	 0
  0000c	ff 75 0c	 push	 DWORD PTR _poArgs$[ebp]
  0000f	e8 00 00 00 00	 call	 ?PyTuple_GetString@@YA_NPAU_object@@HPAPAD@Z ; PyTuple_GetString
  00014	83 c4 0c	 add	 esp, 12			; 0000000cH
  00017	0f b6 c0	 movzx	 eax, al
  0001a	85 c0		 test	 eax, eax
  0001c	75 0d		 jne	 SHORT $LN2@chatRender

; 311  : 		return Py_BuildException();

  0001e	6a 00		 push	 0
  00020	e8 00 00 00 00	 call	 ?Py_BuildException@@YAPAU_object@@PBDZZ ; Py_BuildException
  00025	59		 pop	 ecx
  00026	e9 82 00 00 00	 jmp	 $LN1@chatRender
$LN2@chatRender:

; 312  : 
; 313  : 	float fx;
; 314  : 	if (!PyTuple_GetFloat(poArgs, 1, &fx))

  0002b	8d 45 f0	 lea	 eax, DWORD PTR _fx$[ebp]
  0002e	50		 push	 eax
  0002f	6a 01		 push	 1
  00031	ff 75 0c	 push	 DWORD PTR _poArgs$[ebp]
  00034	e8 00 00 00 00	 call	 ?PyTuple_GetFloat@@YA_NPAU_object@@HPAM@Z ; PyTuple_GetFloat
  00039	83 c4 0c	 add	 esp, 12			; 0000000cH
  0003c	0f b6 c0	 movzx	 eax, al
  0003f	85 c0		 test	 eax, eax
  00041	75 0a		 jne	 SHORT $LN3@chatRender

; 315  : 		return Py_BuildException();

  00043	6a 00		 push	 0
  00045	e8 00 00 00 00	 call	 ?Py_BuildException@@YAPAU_object@@PBDZZ ; Py_BuildException
  0004a	59		 pop	 ecx
  0004b	eb 60		 jmp	 SHORT $LN1@chatRender
$LN3@chatRender:

; 316  : 
; 317  : 	float fy;
; 318  : 	if (!PyTuple_GetFloat(poArgs, 2, &fy))

  0004d	8d 45 f4	 lea	 eax, DWORD PTR _fy$[ebp]
  00050	50		 push	 eax
  00051	6a 02		 push	 2
  00053	ff 75 0c	 push	 DWORD PTR _poArgs$[ebp]
  00056	e8 00 00 00 00	 call	 ?PyTuple_GetFloat@@YA_NPAU_object@@HPAM@Z ; PyTuple_GetFloat
  0005b	83 c4 0c	 add	 esp, 12			; 0000000cH
  0005e	0f b6 c0	 movzx	 eax, al
  00061	85 c0		 test	 eax, eax
  00063	75 0a		 jne	 SHORT $LN4@chatRender

; 319  : 		return Py_BuildException();

  00065	6a 00		 push	 0
  00067	e8 00 00 00 00	 call	 ?Py_BuildException@@YAPAU_object@@PBDZZ ; Py_BuildException
  0006c	59		 pop	 ecx
  0006d	eb 3e		 jmp	 SHORT $LN1@chatRender
$LN4@chatRender:
; File D:\Metin2 Server Files\mainline\SRC_2014\Metin2Client\eterBase\Singleton.h

; 27   : 		return (*ms_singleton);

  0006f	a1 00 00 00 00	 mov	 eax, DWORD PTR ?ms_singleton@?$CSingleton@VCPythonChat@@@@0PAVCPythonChat@@A ; CSingleton<CPythonChat>::ms_singleton
  00074	89 45 f8	 mov	 DWORD PTR $T1[ebp], eax
; File D:\Metin2 Server Files\mainline\SRC_2014\Metin2Client\UserInterface\PythonChatModule.cpp

; 322  : 	if (CPythonChat::Instance().GetWhisper(szName, &pWhisper))

  00077	8d 45 ec	 lea	 eax, DWORD PTR _pWhisper$[ebp]
  0007a	50		 push	 eax
  0007b	ff 75 fc	 push	 DWORD PTR _szName$[ebp]
  0007e	8b 4d f8	 mov	 ecx, DWORD PTR $T1[ebp]
  00081	e8 00 00 00 00	 call	 ?GetWhisper@CPythonChat@@QAEHPBDPAPAVCWhisper@@@Z ; CPythonChat::GetWhisper
  00086	85 c0		 test	 eax, eax
  00088	74 1e		 je	 SHORT $LN5@chatRender

; 323  : 	{
; 324  : 		pWhisper->Render(fx, fy);

  0008a	51		 push	 ecx
  0008b	f3 0f 10 45 f4	 movss	 xmm0, DWORD PTR _fy$[ebp]
  00090	f3 0f 11 04 24	 movss	 DWORD PTR [esp], xmm0
  00095	51		 push	 ecx
  00096	f3 0f 10 45 f0	 movss	 xmm0, DWORD PTR _fx$[ebp]
  0009b	f3 0f 11 04 24	 movss	 DWORD PTR [esp], xmm0
  000a0	8b 4d ec	 mov	 ecx, DWORD PTR _pWhisper$[ebp]
  000a3	e8 00 00 00 00	 call	 ?Render@CWhisper@@QAEXMM@Z ; CWhisper::Render
$LN5@chatRender:

; 325  : 	}
; 326  : 
; 327  : 	return Py_BuildNone();

  000a8	e8 00 00 00 00	 call	 ?Py_BuildNone@@YAPAU_object@@XZ ; Py_BuildNone
$LN1@chatRender:

; 328  : }

  000ad	c9		 leave
  000ae	c3		 ret	 0
?chatRenderWhisper@@YAPAU_object@@PAU1@0@Z ENDP		; chatRenderWhisper
_TEXT	ENDS
; Function compile flags: /Odspy
; File D:\Metin2 Server Files\mainline\SRC_2014\Metin2Client\UserInterface\PythonChatModule.cpp
;	COMDAT ?chatAppendWhisper@@YAPAU_object@@PAU1@0@Z
_TEXT	SEGMENT
_iType$ = -12						; size = 4
_szName$ = -8						; size = 4
_szChat$ = -4						; size = 4
_poSelf$ = 8						; size = 4
_poArgs$ = 12						; size = 4
?chatAppendWhisper@@YAPAU_object@@PAU1@0@Z PROC		; chatAppendWhisper, COMDAT

; 290  : {

  00000	55		 push	 ebp
  00001	8b ec		 mov	 ebp, esp
  00003	83 ec 0c	 sub	 esp, 12			; 0000000cH

; 291  : 	int iType;
; 292  : 	if (!PyTuple_GetInteger(poArgs, 0, &iType))

  00006	8d 45 f4	 lea	 eax, DWORD PTR _iType$[ebp]
  00009	50		 push	 eax
  0000a	6a 00		 push	 0
  0000c	ff 75 0c	 push	 DWORD PTR _poArgs$[ebp]
  0000f	e8 00 00 00 00	 call	 ?PyTuple_GetInteger@@YA_NPAU_object@@HPAH@Z ; PyTuple_GetInteger
  00014	83 c4 0c	 add	 esp, 12			; 0000000cH
  00017	0f b6 c0	 movzx	 eax, al
  0001a	85 c0		 test	 eax, eax
  0001c	75 0a		 jne	 SHORT $LN2@chatAppend

; 293  : 		return Py_BuildException();

  0001e	6a 00		 push	 0
  00020	e8 00 00 00 00	 call	 ?Py_BuildException@@YAPAU_object@@PBDZZ ; Py_BuildException
  00025	59		 pop	 ecx
  00026	eb 5d		 jmp	 SHORT $LN1@chatAppend
$LN2@chatAppend:

; 294  : 
; 295  : 	char * szName;
; 296  : 	if (!PyTuple_GetString(poArgs, 1, &szName))

  00028	8d 45 f8	 lea	 eax, DWORD PTR _szName$[ebp]
  0002b	50		 push	 eax
  0002c	6a 01		 push	 1
  0002e	ff 75 0c	 push	 DWORD PTR _poArgs$[ebp]
  00031	e8 00 00 00 00	 call	 ?PyTuple_GetString@@YA_NPAU_object@@HPAPAD@Z ; PyTuple_GetString
  00036	83 c4 0c	 add	 esp, 12			; 0000000cH
  00039	0f b6 c0	 movzx	 eax, al
  0003c	85 c0		 test	 eax, eax
  0003e	75 0a		 jne	 SHORT $LN3@chatAppend

; 297  : 		return Py_BuildException();

  00040	6a 00		 push	 0
  00042	e8 00 00 00 00	 call	 ?Py_BuildException@@YAPAU_object@@PBDZZ ; Py_BuildException
  00047	59		 pop	 ecx
  00048	eb 3b		 jmp	 SHORT $LN1@chatAppend
$LN3@chatAppend:

; 298  : 
; 299  : 	char * szChat;
; 300  : 	if (!PyTuple_GetString(poArgs, 2, &szChat))

  0004a	8d 45 fc	 lea	 eax, DWORD PTR _szChat$[ebp]
  0004d	50		 push	 eax
  0004e	6a 02		 push	 2
  00050	ff 75 0c	 push	 DWORD PTR _poArgs$[ebp]
  00053	e8 00 00 00 00	 call	 ?PyTuple_GetString@@YA_NPAU_object@@HPAPAD@Z ; PyTuple_GetString
  00058	83 c4 0c	 add	 esp, 12			; 0000000cH
  0005b	0f b6 c0	 movzx	 eax, al
  0005e	85 c0		 test	 eax, eax
  00060	75 0a		 jne	 SHORT $LN6@chatAppend

; 301  : 		return Py_BuildException();

  00062	6a 00		 push	 0
  00064	e8 00 00 00 00	 call	 ?Py_BuildException@@YAPAU_object@@PBDZZ ; Py_BuildException
  00069	59		 pop	 ecx
  0006a	eb 19		 jmp	 SHORT $LN1@chatAppend
$LN6@chatAppend:

; 302  : 
; 303  : 	CPythonChat::Instance().AppendWhisper(iType, szName, szChat);

  0006c	ff 75 fc	 push	 DWORD PTR _szChat$[ebp]
  0006f	ff 75 f8	 push	 DWORD PTR _szName$[ebp]
  00072	ff 75 f4	 push	 DWORD PTR _iType$[ebp]
  00075	8b 0d 00 00 00
	00		 mov	 ecx, DWORD PTR ?ms_singleton@?$CSingleton@VCPythonChat@@@@0PAVCPythonChat@@A ; CSingleton<CPythonChat>::ms_singleton
  0007b	e8 00 00 00 00	 call	 ?AppendWhisper@CPythonChat@@QAEXHPBD0@Z ; CPythonChat::AppendWhisper

; 304  : 	return Py_BuildNone();

  00080	e8 00 00 00 00	 call	 ?Py_BuildNone@@YAPAU_object@@XZ ; Py_BuildNone
$LN1@chatAppend:

; 305  : }

  00085	c9		 leave
  00086	c3		 ret	 0
?chatAppendWhisper@@YAPAU_object@@PAU1@0@Z ENDP		; chatAppendWhisper
_TEXT	ENDS
; Function compile flags: /Odspy
; File D:\Metin2 Server Files\mainline\SRC_2014\Metin2Client\UserInterface\PythonChatModule.cpp
;	COMDAT ?chatCreateWhisper@@YAPAU_object@@PAU1@0@Z
_TEXT	SEGMENT
_szName$ = -4						; size = 4
_poSelf$ = 8						; size = 4
_poArgs$ = 12						; size = 4
?chatCreateWhisper@@YAPAU_object@@PAU1@0@Z PROC		; chatCreateWhisper, COMDAT

; 279  : {

  00000	55		 push	 ebp
  00001	8b ec		 mov	 ebp, esp
  00003	51		 push	 ecx

; 280  : 	char * szName;
; 281  : 	if (!PyTuple_GetString(poArgs, 0, &szName))

  00004	8d 45 fc	 lea	 eax, DWORD PTR _szName$[ebp]
  00007	50		 push	 eax
  00008	6a 00		 push	 0
  0000a	ff 75 0c	 push	 DWORD PTR _poArgs$[ebp]
  0000d	e8 00 00 00 00	 call	 ?PyTuple_GetString@@YA_NPAU_object@@HPAPAD@Z ; PyTuple_GetString
  00012	83 c4 0c	 add	 esp, 12			; 0000000cH
  00015	0f b6 c0	 movzx	 eax, al
  00018	85 c0		 test	 eax, eax
  0001a	75 0a		 jne	 SHORT $LN4@chatCreate

; 282  : 		return Py_BuildException();

  0001c	6a 00		 push	 0
  0001e	e8 00 00 00 00	 call	 ?Py_BuildException@@YAPAU_object@@PBDZZ ; Py_BuildException
  00023	59		 pop	 ecx
  00024	eb 13		 jmp	 SHORT $LN1@chatCreate
$LN4@chatCreate:

; 283  : 
; 284  : 	CPythonChat::Instance().CreateWhisper(szName);

  00026	ff 75 fc	 push	 DWORD PTR _szName$[ebp]
  00029	8b 0d 00 00 00
	00		 mov	 ecx, DWORD PTR ?ms_singleton@?$CSingleton@VCPythonChat@@@@0PAVCPythonChat@@A ; CSingleton<CPythonChat>::ms_singleton
  0002f	e8 00 00 00 00	 call	 ?CreateWhisper@CPythonChat@@QAEPAVCWhisper@@PBD@Z ; CPythonChat::CreateWhisper

; 285  : 
; 286  : 	return Py_BuildNone();

  00034	e8 00 00 00 00	 call	 ?Py_BuildNone@@YAPAU_object@@XZ ; Py_BuildNone
$LN1@chatCreate:

; 287  : }

  00039	c9		 leave
  0003a	c3		 ret	 0
?chatCreateWhisper@@YAPAU_object@@PAU1@0@Z ENDP		; chatCreateWhisper
_TEXT	ENDS
; Function compile flags: /Odspy
; File D:\Metin2 Server Files\mainline\SRC_2014\Metin2Client\UserInterface\PythonChatModule.cpp
;	COMDAT ?chatIsIgnoreCharacter@@YAPAU_object@@PAU1@0@Z
_TEXT	SEGMENT
_szName$ = -4						; size = 4
_poSelf$ = 8						; size = 4
_poArgs$ = 12						; size = 4
?chatIsIgnoreCharacter@@YAPAU_object@@PAU1@0@Z PROC	; chatIsIgnoreCharacter, COMDAT

; 268  : {

  00000	55		 push	 ebp
  00001	8b ec		 mov	 ebp, esp
  00003	51		 push	 ecx

; 269  : 	char * szName;
; 270  : 	if (!PyTuple_GetString(poArgs, 0, &szName))

  00004	8d 45 fc	 lea	 eax, DWORD PTR _szName$[ebp]
  00007	50		 push	 eax
  00008	6a 00		 push	 0
  0000a	ff 75 0c	 push	 DWORD PTR _poArgs$[ebp]
  0000d	e8 00 00 00 00	 call	 ?PyTuple_GetString@@YA_NPAU_object@@HPAPAD@Z ; PyTuple_GetString
  00012	83 c4 0c	 add	 esp, 12			; 0000000cH
  00015	0f b6 c0	 movzx	 eax, al
  00018	85 c0		 test	 eax, eax
  0001a	75 0a		 jne	 SHORT $LN4@chatIsIgno

; 271  : 		return Py_BuildException();

  0001c	6a 00		 push	 0
  0001e	e8 00 00 00 00	 call	 ?Py_BuildException@@YAPAU_object@@PBDZZ ; Py_BuildException
  00023	59		 pop	 ecx
  00024	eb 13		 jmp	 SHORT $LN1@chatIsIgno
$LN4@chatIsIgno:

; 272  : 
; 273  : 	CPythonChat::Instance().IsIgnoreCharacter(szName);

  00026	ff 75 fc	 push	 DWORD PTR _szName$[ebp]
  00029	8b 0d 00 00 00
	00		 mov	 ecx, DWORD PTR ?ms_singleton@?$CSingleton@VCPythonChat@@@@0PAVCPythonChat@@A ; CSingleton<CPythonChat>::ms_singleton
  0002f	e8 00 00 00 00	 call	 ?IsIgnoreCharacter@CPythonChat@@QAEHPBD@Z ; CPythonChat::IsIgnoreCharacter

; 274  : 
; 275  : 	return Py_BuildNone();

  00034	e8 00 00 00 00	 call	 ?Py_BuildNone@@YAPAU_object@@XZ ; Py_BuildNone
$LN1@chatIsIgno:

; 276  : }

  00039	c9		 leave
  0003a	c3		 ret	 0
?chatIsIgnoreCharacter@@YAPAU_object@@PAU1@0@Z ENDP	; chatIsIgnoreCharacter
_TEXT	ENDS
; Function compile flags: /Odspy
; File D:\Metin2 Server Files\mainline\SRC_2014\Metin2Client\UserInterface\PythonChatModule.cpp
;	COMDAT ?chatIgnoreCharacter@@YAPAU_object@@PAU1@0@Z
_TEXT	SEGMENT
_szName$ = -4						; size = 4
_poSelf$ = 8						; size = 4
_poArgs$ = 12						; size = 4
?chatIgnoreCharacter@@YAPAU_object@@PAU1@0@Z PROC	; chatIgnoreCharacter, COMDAT

; 257  : {

  00000	55		 push	 ebp
  00001	8b ec		 mov	 ebp, esp
  00003	51		 push	 ecx

; 258  : 	char * szName;
; 259  : 	if (!PyTuple_GetString(poArgs, 0, &szName))

  00004	8d 45 fc	 lea	 eax, DWORD PTR _szName$[ebp]
  00007	50		 push	 eax
  00008	6a 00		 push	 0
  0000a	ff 75 0c	 push	 DWORD PTR _poArgs$[ebp]
  0000d	e8 00 00 00 00	 call	 ?PyTuple_GetString@@YA_NPAU_object@@HPAPAD@Z ; PyTuple_GetString
  00012	83 c4 0c	 add	 esp, 12			; 0000000cH
  00015	0f b6 c0	 movzx	 eax, al
  00018	85 c0		 test	 eax, eax
  0001a	75 0a		 jne	 SHORT $LN4@chatIgnore

; 260  : 		return Py_BuildException();

  0001c	6a 00		 push	 0
  0001e	e8 00 00 00 00	 call	 ?Py_BuildException@@YAPAU_object@@PBDZZ ; Py_BuildException
  00023	59		 pop	 ecx
  00024	eb 13		 jmp	 SHORT $LN1@chatIgnore
$LN4@chatIgnore:

; 261  : 
; 262  : 	CPythonChat::Instance().IgnoreCharacter(szName);

  00026	ff 75 fc	 push	 DWORD PTR _szName$[ebp]
  00029	8b 0d 00 00 00
	00		 mov	 ecx, DWORD PTR ?ms_singleton@?$CSingleton@VCPythonChat@@@@0PAVCPythonChat@@A ; CSingleton<CPythonChat>::ms_singleton
  0002f	e8 00 00 00 00	 call	 ?IgnoreCharacter@CPythonChat@@QAEXPBD@Z ; CPythonChat::IgnoreCharacter

; 263  : 
; 264  : 	return Py_BuildNone();

  00034	e8 00 00 00 00	 call	 ?Py_BuildNone@@YAPAU_object@@XZ ; Py_BuildNone
$LN1@chatIgnore:

; 265  : }

  00039	c9		 leave
  0003a	c3		 ret	 0
?chatIgnoreCharacter@@YAPAU_object@@PAU1@0@Z ENDP	; chatIgnoreCharacter
_TEXT	ENDS
; Function compile flags: /Odspy
; File D:\Metin2 Server Files\mainline\SRC_2014\Metin2Client\UserInterface\PythonChatModule.cpp
;	COMDAT ?chatArrangeShowingChat@@YAPAU_object@@PAU1@0@Z
_TEXT	SEGMENT
_iID$ = -4						; size = 4
_poSelf$ = 8						; size = 4
_poArgs$ = 12						; size = 4
?chatArrangeShowingChat@@YAPAU_object@@PAU1@0@Z PROC	; chatArrangeShowingChat, COMDAT

; 246  : {

  00000	55		 push	 ebp
  00001	8b ec		 mov	 ebp, esp
  00003	51		 push	 ecx

; 247  : 	int iID;
; 248  : 	if (!PyTuple_GetInteger(poArgs, 0, &iID))

  00004	8d 45 fc	 lea	 eax, DWORD PTR _iID$[ebp]
  00007	50		 push	 eax
  00008	6a 00		 push	 0
  0000a	ff 75 0c	 push	 DWORD PTR _poArgs$[ebp]
  0000d	e8 00 00 00 00	 call	 ?PyTuple_GetInteger@@YA_NPAU_object@@HPAH@Z ; PyTuple_GetInteger
  00012	83 c4 0c	 add	 esp, 12			; 0000000cH
  00015	0f b6 c0	 movzx	 eax, al
  00018	85 c0		 test	 eax, eax
  0001a	75 0a		 jne	 SHORT $LN4@chatArrang

; 249  : 		return Py_BuildException();

  0001c	6a 00		 push	 0
  0001e	e8 00 00 00 00	 call	 ?Py_BuildException@@YAPAU_object@@PBDZZ ; Py_BuildException
  00023	59		 pop	 ecx
  00024	eb 13		 jmp	 SHORT $LN1@chatArrang
$LN4@chatArrang:

; 250  : 
; 251  : 	CPythonChat::Instance().ArrangeShowingChat(iID);

  00026	ff 75 fc	 push	 DWORD PTR _iID$[ebp]
  00029	8b 0d 00 00 00
	00		 mov	 ecx, DWORD PTR ?ms_singleton@?$CSingleton@VCPythonChat@@@@0PAVCPythonChat@@A ; CSingleton<CPythonChat>::ms_singleton
  0002f	e8 00 00 00 00	 call	 ?ArrangeShowingChat@CPythonChat@@QAEXK@Z ; CPythonChat::ArrangeShowingChat

; 252  : 
; 253  : 	return Py_BuildNone();

  00034	e8 00 00 00 00	 call	 ?Py_BuildNone@@YAPAU_object@@XZ ; Py_BuildNone
$LN1@chatArrang:

; 254  : }

  00039	c9		 leave
  0003a	c3		 ret	 0
?chatArrangeShowingChat@@YAPAU_object@@PAU1@0@Z ENDP	; chatArrangeShowingChat
_TEXT	ENDS
; Function compile flags: /Odspy
; File D:\Metin2 Server Files\mainline\SRC_2014\Metin2Client\UserInterface\PythonChatModule.cpp
;	COMDAT ?chatAppendChatWithDelay@@YAPAU_object@@PAU1@0@Z
_TEXT	SEGMENT
_iType$ = -12						; size = 4
_szChat$ = -8						; size = 4
_iDelay$ = -4						; size = 4
_poSelf$ = 8						; size = 4
_poArgs$ = 12						; size = 4
?chatAppendChatWithDelay@@YAPAU_object@@PAU1@0@Z PROC	; chatAppendChatWithDelay, COMDAT

; 227  : {

  00000	55		 push	 ebp
  00001	8b ec		 mov	 ebp, esp
  00003	83 ec 0c	 sub	 esp, 12			; 0000000cH

; 228  : 	int iType;
; 229  : 	if (!PyTuple_GetInteger(poArgs, 0, &iType))

  00006	8d 45 f4	 lea	 eax, DWORD PTR _iType$[ebp]
  00009	50		 push	 eax
  0000a	6a 00		 push	 0
  0000c	ff 75 0c	 push	 DWORD PTR _poArgs$[ebp]
  0000f	e8 00 00 00 00	 call	 ?PyTuple_GetInteger@@YA_NPAU_object@@HPAH@Z ; PyTuple_GetInteger
  00014	83 c4 0c	 add	 esp, 12			; 0000000cH
  00017	0f b6 c0	 movzx	 eax, al
  0001a	85 c0		 test	 eax, eax
  0001c	75 0a		 jne	 SHORT $LN2@chatAppend

; 230  : 		return Py_BuildException();

  0001e	6a 00		 push	 0
  00020	e8 00 00 00 00	 call	 ?Py_BuildException@@YAPAU_object@@PBDZZ ; Py_BuildException
  00025	59		 pop	 ecx
  00026	eb 5d		 jmp	 SHORT $LN1@chatAppend
$LN2@chatAppend:

; 231  : 
; 232  : 	char * szChat;
; 233  : 	if (!PyTuple_GetString(poArgs, 1, &szChat))

  00028	8d 45 f8	 lea	 eax, DWORD PTR _szChat$[ebp]
  0002b	50		 push	 eax
  0002c	6a 01		 push	 1
  0002e	ff 75 0c	 push	 DWORD PTR _poArgs$[ebp]
  00031	e8 00 00 00 00	 call	 ?PyTuple_GetString@@YA_NPAU_object@@HPAPAD@Z ; PyTuple_GetString
  00036	83 c4 0c	 add	 esp, 12			; 0000000cH
  00039	0f b6 c0	 movzx	 eax, al
  0003c	85 c0		 test	 eax, eax
  0003e	75 0a		 jne	 SHORT $LN3@chatAppend

; 234  : 		return Py_BuildException();

  00040	6a 00		 push	 0
  00042	e8 00 00 00 00	 call	 ?Py_BuildException@@YAPAU_object@@PBDZZ ; Py_BuildException
  00047	59		 pop	 ecx
  00048	eb 3b		 jmp	 SHORT $LN1@chatAppend
$LN3@chatAppend:

; 235  : 
; 236  : 	int iDelay;
; 237  : 	if (!PyTuple_GetInteger(poArgs, 2, &iDelay))

  0004a	8d 45 fc	 lea	 eax, DWORD PTR _iDelay$[ebp]
  0004d	50		 push	 eax
  0004e	6a 02		 push	 2
  00050	ff 75 0c	 push	 DWORD PTR _poArgs$[ebp]
  00053	e8 00 00 00 00	 call	 ?PyTuple_GetInteger@@YA_NPAU_object@@HPAH@Z ; PyTuple_GetInteger
  00058	83 c4 0c	 add	 esp, 12			; 0000000cH
  0005b	0f b6 c0	 movzx	 eax, al
  0005e	85 c0		 test	 eax, eax
  00060	75 0a		 jne	 SHORT $LN6@chatAppend

; 238  : 		return Py_BuildException();

  00062	6a 00		 push	 0
  00064	e8 00 00 00 00	 call	 ?Py_BuildException@@YAPAU_object@@PBDZZ ; Py_BuildException
  00069	59		 pop	 ecx
  0006a	eb 19		 jmp	 SHORT $LN1@chatAppend
$LN6@chatAppend:

; 239  : 
; 240  : 	CPythonChat::Instance().AppendChatWithDelay(iType, szChat, iDelay);

  0006c	ff 75 fc	 push	 DWORD PTR _iDelay$[ebp]
  0006f	ff 75 f8	 push	 DWORD PTR _szChat$[ebp]
  00072	ff 75 f4	 push	 DWORD PTR _iType$[ebp]
  00075	8b 0d 00 00 00
	00		 mov	 ecx, DWORD PTR ?ms_singleton@?$CSingleton@VCPythonChat@@@@0PAVCPythonChat@@A ; CSingleton<CPythonChat>::ms_singleton
  0007b	e8 00 00 00 00	 call	 ?AppendChatWithDelay@CPythonChat@@QAEXHPBDH@Z ; CPythonChat::AppendChatWithDelay

; 241  : 
; 242  : 	return Py_BuildNone();

  00080	e8 00 00 00 00	 call	 ?Py_BuildNone@@YAPAU_object@@XZ ; Py_BuildNone
$LN1@chatAppend:

; 243  : }

  00085	c9		 leave
  00086	c3		 ret	 0
?chatAppendChatWithDelay@@YAPAU_object@@PAU1@0@Z ENDP	; chatAppendChatWithDelay
_TEXT	ENDS
; Function compile flags: /Odspy
; File D:\Metin2 Server Files\mainline\SRC_2014\Metin2Client\UserInterface\PythonChatModule.cpp
;	COMDAT ?chatAppendChat@@YAPAU_object@@PAU1@0@Z
_TEXT	SEGMENT
_iType$ = -12						; size = 4
_szChat$ = -8						; size = 4
tv86 = -4						; size = 4
_poSelf$ = 8						; size = 4
_poArgs$ = 12						; size = 4
?chatAppendChat@@YAPAU_object@@PAU1@0@Z PROC		; chatAppendChat, COMDAT

; 212  : {

  00000	55		 push	 ebp
  00001	8b ec		 mov	 ebp, esp
  00003	83 ec 0c	 sub	 esp, 12			; 0000000cH

; 213  : 	int iType;
; 214  : 	if (!PyTuple_GetInteger(poArgs, 0, &iType))

  00006	8d 45 f4	 lea	 eax, DWORD PTR _iType$[ebp]
  00009	50		 push	 eax
  0000a	6a 00		 push	 0
  0000c	ff 75 0c	 push	 DWORD PTR _poArgs$[ebp]
  0000f	e8 00 00 00 00	 call	 ?PyTuple_GetInteger@@YA_NPAU_object@@HPAH@Z ; PyTuple_GetInteger
  00014	83 c4 0c	 add	 esp, 12			; 0000000cH
  00017	0f b6 c0	 movzx	 eax, al
  0001a	85 c0		 test	 eax, eax
  0001c	75 0a		 jne	 SHORT $LN2@chatAppend

; 215  : 		return Py_BuildException();

  0001e	6a 00		 push	 0
  00020	e8 00 00 00 00	 call	 ?Py_BuildException@@YAPAU_object@@PBDZZ ; Py_BuildException
  00025	59		 pop	 ecx
  00026	eb 43		 jmp	 SHORT $LN1@chatAppend
$LN2@chatAppend:

; 216  : 
; 217  : 	char * szChat;
; 218  : 	if (!PyTuple_GetString(poArgs, 1, &szChat))

  00028	8d 45 f8	 lea	 eax, DWORD PTR _szChat$[ebp]
  0002b	50		 push	 eax
  0002c	6a 01		 push	 1
  0002e	ff 75 0c	 push	 DWORD PTR _poArgs$[ebp]
  00031	e8 00 00 00 00	 call	 ?PyTuple_GetString@@YA_NPAU_object@@HPAPAD@Z ; PyTuple_GetString
  00036	83 c4 0c	 add	 esp, 12			; 0000000cH
  00039	0f b6 c0	 movzx	 eax, al
  0003c	85 c0		 test	 eax, eax
  0003e	75 0a		 jne	 SHORT $LN5@chatAppend

; 219  : 		return Py_BuildException();

  00040	6a 00		 push	 0
  00042	e8 00 00 00 00	 call	 ?Py_BuildException@@YAPAU_object@@PBDZZ ; Py_BuildException
  00047	59		 pop	 ecx
  00048	eb 21		 jmp	 SHORT $LN1@chatAppend
$LN5@chatAppend:

; 220  : 
; 221  : 	CPythonChat::Instance().AppendChat(iType, szChat);

  0004a	a1 00 00 00 00	 mov	 eax, DWORD PTR ?ms_singleton@?$CSingleton@VCPythonChat@@@@0PAVCPythonChat@@A ; CSingleton<CPythonChat>::ms_singleton
  0004f	83 c0 04	 add	 eax, 4
  00052	89 45 fc	 mov	 DWORD PTR tv86[ebp], eax
  00055	ff 75 f8	 push	 DWORD PTR _szChat$[ebp]
  00058	ff 75 f4	 push	 DWORD PTR _iType$[ebp]
  0005b	8b 45 fc	 mov	 eax, DWORD PTR tv86[ebp]
  0005e	8b 00		 mov	 eax, DWORD PTR [eax]
  00060	8b 4d fc	 mov	 ecx, DWORD PTR tv86[ebp]
  00063	ff 50 04	 call	 DWORD PTR [eax+4]

; 222  : 
; 223  : 	return Py_BuildNone();

  00066	e8 00 00 00 00	 call	 ?Py_BuildNone@@YAPAU_object@@XZ ; Py_BuildNone
$LN1@chatAppend:

; 224  : }

  0006b	c9		 leave
  0006c	c3		 ret	 0
?chatAppendChat@@YAPAU_object@@PAU1@0@Z ENDP		; chatAppendChat
_TEXT	ENDS
; Function compile flags: /Odspy
; File D:\Metin2 Server Files\mainline\SRC_2014\Metin2Client\UserInterface\PythonChatModule.cpp
; File D:\Metin2 Server Files\mainline\SRC_2014\Metin2Client\eterBase\Singleton.h
; File D:\Metin2 Server Files\mainline\SRC_2014\Metin2Client\UserInterface\PythonChatModule.cpp
;	COMDAT ?chatGetLineStep@@YAPAU_object@@PAU1@0@Z
_TEXT	SEGMENT
$T1 = -8						; size = 4
_iID$ = -4						; size = 4
_poSelf$ = 8						; size = 4
_poArgs$ = 12						; size = 4
?chatGetLineStep@@YAPAU_object@@PAU1@0@Z PROC		; chatGetLineStep, COMDAT

; 203  : {

  00000	55		 push	 ebp
  00001	8b ec		 mov	 ebp, esp
  00003	51		 push	 ecx
  00004	51		 push	 ecx

; 204  : 	int iID;
; 205  : 	if (!PyTuple_GetInteger(poArgs, 0, &iID))

  00005	8d 45 fc	 lea	 eax, DWORD PTR _iID$[ebp]
  00008	50		 push	 eax
  00009	6a 00		 push	 0
  0000b	ff 75 0c	 push	 DWORD PTR _poArgs$[ebp]
  0000e	e8 00 00 00 00	 call	 ?PyTuple_GetInteger@@YA_NPAU_object@@HPAH@Z ; PyTuple_GetInteger
  00013	83 c4 0c	 add	 esp, 12			; 0000000cH
  00016	0f b6 c0	 movzx	 eax, al
  00019	85 c0		 test	 eax, eax
  0001b	75 0a		 jne	 SHORT $LN2@chatGetLin

; 206  : 		return Py_BuildException();

  0001d	6a 00		 push	 0
  0001f	e8 00 00 00 00	 call	 ?Py_BuildException@@YAPAU_object@@PBDZZ ; Py_BuildException
  00024	59		 pop	 ecx
  00025	eb 21		 jmp	 SHORT $LN1@chatGetLin
$LN2@chatGetLin:
; File D:\Metin2 Server Files\mainline\SRC_2014\Metin2Client\eterBase\Singleton.h

; 27   : 		return (*ms_singleton);

  00027	a1 00 00 00 00	 mov	 eax, DWORD PTR ?ms_singleton@?$CSingleton@VCPythonChat@@@@0PAVCPythonChat@@A ; CSingleton<CPythonChat>::ms_singleton
  0002c	89 45 f8	 mov	 DWORD PTR $T1[ebp], eax
; File D:\Metin2 Server Files\mainline\SRC_2014\Metin2Client\UserInterface\PythonChatModule.cpp

; 208  : 	return Py_BuildValue("i", CPythonChat::Instance().GetLineStep(iID));

  0002f	ff 75 fc	 push	 DWORD PTR _iID$[ebp]
  00032	8b 4d f8	 mov	 ecx, DWORD PTR $T1[ebp]
  00035	e8 00 00 00 00	 call	 ?GetLineStep@CPythonChat@@QAEHK@Z ; CPythonChat::GetLineStep
  0003a	50		 push	 eax
  0003b	68 00 00 00 00	 push	 OFFSET ??_C@_01KBJDNOO@i@
  00040	ff 15 00 00 00
	00		 call	 DWORD PTR __imp__Py_BuildValue
  00046	59		 pop	 ecx
  00047	59		 pop	 ecx
$LN1@chatGetLin:

; 209  : }

  00048	c9		 leave
  00049	c3		 ret	 0
?chatGetLineStep@@YAPAU_object@@PAU1@0@Z ENDP		; chatGetLineStep
_TEXT	ENDS
; Function compile flags: /Odspy
; File D:\Metin2 Server Files\mainline\SRC_2014\Metin2Client\UserInterface\PythonChatModule.cpp
; File D:\Metin2 Server Files\mainline\SRC_2014\Metin2Client\eterBase\Singleton.h
; File D:\Metin2 Server Files\mainline\SRC_2014\Metin2Client\UserInterface\PythonChatModule.cpp
;	COMDAT ?chatGetVisibleLineCount@@YAPAU_object@@PAU1@0@Z
_TEXT	SEGMENT
$T1 = -8						; size = 4
_iID$ = -4						; size = 4
_poSelf$ = 8						; size = 4
_poArgs$ = 12						; size = 4
?chatGetVisibleLineCount@@YAPAU_object@@PAU1@0@Z PROC	; chatGetVisibleLineCount, COMDAT

; 194  : {

  00000	55		 push	 ebp
  00001	8b ec		 mov	 ebp, esp
  00003	51		 push	 ecx
  00004	51		 push	 ecx

; 195  : 	int iID;
; 196  : 	if (!PyTuple_GetInteger(poArgs, 0, &iID))

  00005	8d 45 fc	 lea	 eax, DWORD PTR _iID$[ebp]
  00008	50		 push	 eax
  00009	6a 00		 push	 0
  0000b	ff 75 0c	 push	 DWORD PTR _poArgs$[ebp]
  0000e	e8 00 00 00 00	 call	 ?PyTuple_GetInteger@@YA_NPAU_object@@HPAH@Z ; PyTuple_GetInteger
  00013	83 c4 0c	 add	 esp, 12			; 0000000cH
  00016	0f b6 c0	 movzx	 eax, al
  00019	85 c0		 test	 eax, eax
  0001b	75 0a		 jne	 SHORT $LN2@chatGetVis

; 197  : 		return Py_BuildException();

  0001d	6a 00		 push	 0
  0001f	e8 00 00 00 00	 call	 ?Py_BuildException@@YAPAU_object@@PBDZZ ; Py_BuildException
  00024	59		 pop	 ecx
  00025	eb 21		 jmp	 SHORT $LN1@chatGetVis
$LN2@chatGetVis:
; File D:\Metin2 Server Files\mainline\SRC_2014\Metin2Client\eterBase\Singleton.h

; 27   : 		return (*ms_singleton);

  00027	a1 00 00 00 00	 mov	 eax, DWORD PTR ?ms_singleton@?$CSingleton@VCPythonChat@@@@0PAVCPythonChat@@A ; CSingleton<CPythonChat>::ms_singleton
  0002c	89 45 f8	 mov	 DWORD PTR $T1[ebp], eax
; File D:\Metin2 Server Files\mainline\SRC_2014\Metin2Client\UserInterface\PythonChatModule.cpp

; 199  : 	return Py_BuildValue("i", CPythonChat::Instance().GetVisibleLineCount(iID));

  0002f	ff 75 fc	 push	 DWORD PTR _iID$[ebp]
  00032	8b 4d f8	 mov	 ecx, DWORD PTR $T1[ebp]
  00035	e8 00 00 00 00	 call	 ?GetVisibleLineCount@CPythonChat@@QAEHK@Z ; CPythonChat::GetVisibleLineCount
  0003a	50		 push	 eax
  0003b	68 00 00 00 00	 push	 OFFSET ??_C@_01KBJDNOO@i@
  00040	ff 15 00 00 00
	00		 call	 DWORD PTR __imp__Py_BuildValue
  00046	59		 pop	 ecx
  00047	59		 pop	 ecx
$LN1@chatGetVis:

; 200  : }

  00048	c9		 leave
  00049	c3		 ret	 0
?chatGetVisibleLineCount@@YAPAU_object@@PAU1@0@Z ENDP	; chatGetVisibleLineCount
_TEXT	ENDS
; Function compile flags: /Odspy
; File D:\Metin2 Server Files\mainline\SRC_2014\Metin2Client\UserInterface\PythonChatModule.cpp
; File D:\Metin2 Server Files\mainline\SRC_2014\Metin2Client\eterBase\Singleton.h
; File D:\Metin2 Server Files\mainline\SRC_2014\Metin2Client\UserInterface\PythonChatModule.cpp
;	COMDAT ?chatGetLineCount@@YAPAU_object@@PAU1@0@Z
_TEXT	SEGMENT
$T1 = -8						; size = 4
_iID$ = -4						; size = 4
_poSelf$ = 8						; size = 4
_poArgs$ = 12						; size = 4
?chatGetLineCount@@YAPAU_object@@PAU1@0@Z PROC		; chatGetLineCount, COMDAT

; 185  : {

  00000	55		 push	 ebp
  00001	8b ec		 mov	 ebp, esp
  00003	51		 push	 ecx
  00004	51		 push	 ecx

; 186  : 	int iID;
; 187  : 	if (!PyTuple_GetInteger(poArgs, 0, &iID))

  00005	8d 45 fc	 lea	 eax, DWORD PTR _iID$[ebp]
  00008	50		 push	 eax
  00009	6a 00		 push	 0
  0000b	ff 75 0c	 push	 DWORD PTR _poArgs$[ebp]
  0000e	e8 00 00 00 00	 call	 ?PyTuple_GetInteger@@YA_NPAU_object@@HPAH@Z ; PyTuple_GetInteger
  00013	83 c4 0c	 add	 esp, 12			; 0000000cH
  00016	0f b6 c0	 movzx	 eax, al
  00019	85 c0		 test	 eax, eax
  0001b	75 0a		 jne	 SHORT $LN2@chatGetLin

; 188  : 		return Py_BuildException();

  0001d	6a 00		 push	 0
  0001f	e8 00 00 00 00	 call	 ?Py_BuildException@@YAPAU_object@@PBDZZ ; Py_BuildException
  00024	59		 pop	 ecx
  00025	eb 21		 jmp	 SHORT $LN1@chatGetLin
$LN2@chatGetLin:
; File D:\Metin2 Server Files\mainline\SRC_2014\Metin2Client\eterBase\Singleton.h

; 27   : 		return (*ms_singleton);

  00027	a1 00 00 00 00	 mov	 eax, DWORD PTR ?ms_singleton@?$CSingleton@VCPythonChat@@@@0PAVCPythonChat@@A ; CSingleton<CPythonChat>::ms_singleton
  0002c	89 45 f8	 mov	 DWORD PTR $T1[ebp], eax
; File D:\Metin2 Server Files\mainline\SRC_2014\Metin2Client\UserInterface\PythonChatModule.cpp

; 190  : 	return Py_BuildValue("i", CPythonChat::Instance().GetLineCount(iID));

  0002f	ff 75 fc	 push	 DWORD PTR _iID$[ebp]
  00032	8b 4d f8	 mov	 ecx, DWORD PTR $T1[ebp]
  00035	e8 00 00 00 00	 call	 ?GetLineCount@CPythonChat@@QAEHK@Z ; CPythonChat::GetLineCount
  0003a	50		 push	 eax
  0003b	68 00 00 00 00	 push	 OFFSET ??_C@_01KBJDNOO@i@
  00040	ff 15 00 00 00
	00		 call	 DWORD PTR __imp__Py_BuildValue
  00046	59		 pop	 ecx
  00047	59		 pop	 ecx
$LN1@chatGetLin:

; 191  : }

  00048	c9		 leave
  00049	c3		 ret	 0
?chatGetLineCount@@YAPAU_object@@PAU1@0@Z ENDP		; chatGetLineCount
_TEXT	ENDS
; Function compile flags: /Odspy
; File D:\Metin2 Server Files\mainline\SRC_2014\Metin2Client\UserInterface\PythonChatModule.cpp
;	COMDAT ?chatSetEndPos@@YAPAU_object@@PAU1@0@Z
_TEXT	SEGMENT
_iID$ = -8						; size = 4
_fPos$ = -4						; size = 4
_poSelf$ = 8						; size = 4
_poArgs$ = 12						; size = 4
?chatSetEndPos@@YAPAU_object@@PAU1@0@Z PROC		; chatSetEndPos, COMDAT

; 171  : {

  00000	55		 push	 ebp
  00001	8b ec		 mov	 ebp, esp
  00003	51		 push	 ecx
  00004	51		 push	 ecx

; 172  : 	int iID;
; 173  : 	if (!PyTuple_GetInteger(poArgs, 0, &iID))

  00005	8d 45 f8	 lea	 eax, DWORD PTR _iID$[ebp]
  00008	50		 push	 eax
  00009	6a 00		 push	 0
  0000b	ff 75 0c	 push	 DWORD PTR _poArgs$[ebp]
  0000e	e8 00 00 00 00	 call	 ?PyTuple_GetInteger@@YA_NPAU_object@@HPAH@Z ; PyTuple_GetInteger
  00013	83 c4 0c	 add	 esp, 12			; 0000000cH
  00016	0f b6 c0	 movzx	 eax, al
  00019	85 c0		 test	 eax, eax
  0001b	75 0a		 jne	 SHORT $LN2@chatSetEnd

; 174  : 		return Py_BuildException();

  0001d	6a 00		 push	 0
  0001f	e8 00 00 00 00	 call	 ?Py_BuildException@@YAPAU_object@@PBDZZ ; Py_BuildException
  00024	59		 pop	 ecx
  00025	eb 40		 jmp	 SHORT $LN1@chatSetEnd
$LN2@chatSetEnd:

; 175  : 	float fPos;
; 176  : 	if (!PyTuple_GetFloat(poArgs, 1, &fPos))

  00027	8d 45 fc	 lea	 eax, DWORD PTR _fPos$[ebp]
  0002a	50		 push	 eax
  0002b	6a 01		 push	 1
  0002d	ff 75 0c	 push	 DWORD PTR _poArgs$[ebp]
  00030	e8 00 00 00 00	 call	 ?PyTuple_GetFloat@@YA_NPAU_object@@HPAM@Z ; PyTuple_GetFloat
  00035	83 c4 0c	 add	 esp, 12			; 0000000cH
  00038	0f b6 c0	 movzx	 eax, al
  0003b	85 c0		 test	 eax, eax
  0003d	75 0a		 jne	 SHORT $LN3@chatSetEnd

; 177  : 		return Py_BuildException();

  0003f	6a 00		 push	 0
  00041	e8 00 00 00 00	 call	 ?Py_BuildException@@YAPAU_object@@PBDZZ ; Py_BuildException
  00046	59		 pop	 ecx
  00047	eb 1e		 jmp	 SHORT $LN1@chatSetEnd
$LN3@chatSetEnd:

; 178  : 
; 179  : 	CPythonChat::Instance().SetEndPos(iID, fPos);

  00049	51		 push	 ecx
  0004a	f3 0f 10 45 fc	 movss	 xmm0, DWORD PTR _fPos$[ebp]
  0004f	f3 0f 11 04 24	 movss	 DWORD PTR [esp], xmm0
  00054	ff 75 f8	 push	 DWORD PTR _iID$[ebp]
  00057	8b 0d 00 00 00
	00		 mov	 ecx, DWORD PTR ?ms_singleton@?$CSingleton@VCPythonChat@@@@0PAVCPythonChat@@A ; CSingleton<CPythonChat>::ms_singleton
  0005d	e8 00 00 00 00	 call	 ?SetEndPos@CPythonChat@@QAEXKM@Z ; CPythonChat::SetEndPos

; 180  : 
; 181  : 	return Py_BuildNone();

  00062	e8 00 00 00 00	 call	 ?Py_BuildNone@@YAPAU_object@@XZ ; Py_BuildNone
$LN1@chatSetEnd:

; 182  : }

  00067	c9		 leave
  00068	c3		 ret	 0
?chatSetEndPos@@YAPAU_object@@PAU1@0@Z ENDP		; chatSetEndPos
_TEXT	ENDS
; Function compile flags: /Odspy
; File D:\Metin2 Server Files\mainline\SRC_2014\Metin2Client\UserInterface\PythonChatModule.cpp
;	COMDAT ?chatDisableChatMode@@YAPAU_object@@PAU1@0@Z
_TEXT	SEGMENT
_iID$ = -8						; size = 4
_iType$ = -4						; size = 4
_poSelf$ = 8						; size = 4
_poArgs$ = 12						; size = 4
?chatDisableChatMode@@YAPAU_object@@PAU1@0@Z PROC	; chatDisableChatMode, COMDAT

; 157  : {

  00000	55		 push	 ebp
  00001	8b ec		 mov	 ebp, esp
  00003	51		 push	 ecx
  00004	51		 push	 ecx

; 158  : 	int iID;
; 159  : 	if (!PyTuple_GetInteger(poArgs, 0, &iID))

  00005	8d 45 f8	 lea	 eax, DWORD PTR _iID$[ebp]
  00008	50		 push	 eax
  00009	6a 00		 push	 0
  0000b	ff 75 0c	 push	 DWORD PTR _poArgs$[ebp]
  0000e	e8 00 00 00 00	 call	 ?PyTuple_GetInteger@@YA_NPAU_object@@HPAH@Z ; PyTuple_GetInteger
  00013	83 c4 0c	 add	 esp, 12			; 0000000cH
  00016	0f b6 c0	 movzx	 eax, al
  00019	85 c0		 test	 eax, eax
  0001b	75 0a		 jne	 SHORT $LN2@chatDisabl

; 160  : 		return Py_BuildException();

  0001d	6a 00		 push	 0
  0001f	e8 00 00 00 00	 call	 ?Py_BuildException@@YAPAU_object@@PBDZZ ; Py_BuildException
  00024	59		 pop	 ecx
  00025	eb 38		 jmp	 SHORT $LN1@chatDisabl
$LN2@chatDisabl:

; 161  : 	int iType;
; 162  : 	if (!PyTuple_GetInteger(poArgs, 1, &iType))

  00027	8d 45 fc	 lea	 eax, DWORD PTR _iType$[ebp]
  0002a	50		 push	 eax
  0002b	6a 01		 push	 1
  0002d	ff 75 0c	 push	 DWORD PTR _poArgs$[ebp]
  00030	e8 00 00 00 00	 call	 ?PyTuple_GetInteger@@YA_NPAU_object@@HPAH@Z ; PyTuple_GetInteger
  00035	83 c4 0c	 add	 esp, 12			; 0000000cH
  00038	0f b6 c0	 movzx	 eax, al
  0003b	85 c0		 test	 eax, eax
  0003d	75 0a		 jne	 SHORT $LN5@chatDisabl

; 163  : 		return Py_BuildException();

  0003f	6a 00		 push	 0
  00041	e8 00 00 00 00	 call	 ?Py_BuildException@@YAPAU_object@@PBDZZ ; Py_BuildException
  00046	59		 pop	 ecx
  00047	eb 16		 jmp	 SHORT $LN1@chatDisabl
$LN5@chatDisabl:

; 164  : 
; 165  : 	CPythonChat::Instance().DisableChatMode(iID, iType);

  00049	ff 75 fc	 push	 DWORD PTR _iType$[ebp]
  0004c	ff 75 f8	 push	 DWORD PTR _iID$[ebp]
  0004f	8b 0d 00 00 00
	00		 mov	 ecx, DWORD PTR ?ms_singleton@?$CSingleton@VCPythonChat@@@@0PAVCPythonChat@@A ; CSingleton<CPythonChat>::ms_singleton
  00055	e8 00 00 00 00	 call	 ?DisableChatMode@CPythonChat@@QAEXKH@Z ; CPythonChat::DisableChatMode

; 166  : 
; 167  : 	return Py_BuildNone();

  0005a	e8 00 00 00 00	 call	 ?Py_BuildNone@@YAPAU_object@@XZ ; Py_BuildNone
$LN1@chatDisabl:

; 168  : }

  0005f	c9		 leave
  00060	c3		 ret	 0
?chatDisableChatMode@@YAPAU_object@@PAU1@0@Z ENDP	; chatDisableChatMode
_TEXT	ENDS
; Function compile flags: /Odspy
; File D:\Metin2 Server Files\mainline\SRC_2014\Metin2Client\UserInterface\PythonChatModule.cpp
;	COMDAT ?chatEnableChatMode@@YAPAU_object@@PAU1@0@Z
_TEXT	SEGMENT
_iID$ = -8						; size = 4
_iType$ = -4						; size = 4
_poSelf$ = 8						; size = 4
_poArgs$ = 12						; size = 4
?chatEnableChatMode@@YAPAU_object@@PAU1@0@Z PROC	; chatEnableChatMode, COMDAT

; 143  : {

  00000	55		 push	 ebp
  00001	8b ec		 mov	 ebp, esp
  00003	51		 push	 ecx
  00004	51		 push	 ecx

; 144  : 	int iID;
; 145  : 	if (!PyTuple_GetInteger(poArgs, 0, &iID))

  00005	8d 45 f8	 lea	 eax, DWORD PTR _iID$[ebp]
  00008	50		 push	 eax
  00009	6a 00		 push	 0
  0000b	ff 75 0c	 push	 DWORD PTR _poArgs$[ebp]
  0000e	e8 00 00 00 00	 call	 ?PyTuple_GetInteger@@YA_NPAU_object@@HPAH@Z ; PyTuple_GetInteger
  00013	83 c4 0c	 add	 esp, 12			; 0000000cH
  00016	0f b6 c0	 movzx	 eax, al
  00019	85 c0		 test	 eax, eax
  0001b	75 0a		 jne	 SHORT $LN2@chatEnable

; 146  : 		return Py_BuildException();

  0001d	6a 00		 push	 0
  0001f	e8 00 00 00 00	 call	 ?Py_BuildException@@YAPAU_object@@PBDZZ ; Py_BuildException
  00024	59		 pop	 ecx
  00025	eb 38		 jmp	 SHORT $LN1@chatEnable
$LN2@chatEnable:

; 147  : 	int iType;
; 148  : 	if (!PyTuple_GetInteger(poArgs, 1, &iType))

  00027	8d 45 fc	 lea	 eax, DWORD PTR _iType$[ebp]
  0002a	50		 push	 eax
  0002b	6a 01		 push	 1
  0002d	ff 75 0c	 push	 DWORD PTR _poArgs$[ebp]
  00030	e8 00 00 00 00	 call	 ?PyTuple_GetInteger@@YA_NPAU_object@@HPAH@Z ; PyTuple_GetInteger
  00035	83 c4 0c	 add	 esp, 12			; 0000000cH
  00038	0f b6 c0	 movzx	 eax, al
  0003b	85 c0		 test	 eax, eax
  0003d	75 0a		 jne	 SHORT $LN5@chatEnable

; 149  : 		return Py_BuildException();

  0003f	6a 00		 push	 0
  00041	e8 00 00 00 00	 call	 ?Py_BuildException@@YAPAU_object@@PBDZZ ; Py_BuildException
  00046	59		 pop	 ecx
  00047	eb 16		 jmp	 SHORT $LN1@chatEnable
$LN5@chatEnable:

; 150  : 
; 151  : 	CPythonChat::Instance().EnableChatMode(iID, iType);

  00049	ff 75 fc	 push	 DWORD PTR _iType$[ebp]
  0004c	ff 75 f8	 push	 DWORD PTR _iID$[ebp]
  0004f	8b 0d 00 00 00
	00		 mov	 ecx, DWORD PTR ?ms_singleton@?$CSingleton@VCPythonChat@@@@0PAVCPythonChat@@A ; CSingleton<CPythonChat>::ms_singleton
  00055	e8 00 00 00 00	 call	 ?EnableChatMode@CPythonChat@@QAEXKH@Z ; CPythonChat::EnableChatMode

; 152  : 
; 153  : 	return Py_BuildNone();

  0005a	e8 00 00 00 00	 call	 ?Py_BuildNone@@YAPAU_object@@XZ ; Py_BuildNone
$LN1@chatEnable:

; 154  : }

  0005f	c9		 leave
  00060	c3		 ret	 0
?chatEnableChatMode@@YAPAU_object@@PAU1@0@Z ENDP	; chatEnableChatMode
_TEXT	ENDS
; Function compile flags: /Odspy
; File D:\Metin2 Server Files\mainline\SRC_2014\Metin2Client\UserInterface\PythonChatModule.cpp
;	COMDAT ?chatToggleChatMode@@YAPAU_object@@PAU1@0@Z
_TEXT	SEGMENT
_iID$ = -8						; size = 4
_iType$ = -4						; size = 4
_poSelf$ = 8						; size = 4
_poArgs$ = 12						; size = 4
?chatToggleChatMode@@YAPAU_object@@PAU1@0@Z PROC	; chatToggleChatMode, COMDAT

; 129  : {

  00000	55		 push	 ebp
  00001	8b ec		 mov	 ebp, esp
  00003	51		 push	 ecx
  00004	51		 push	 ecx

; 130  : 	int iID;
; 131  : 	if (!PyTuple_GetInteger(poArgs, 0, &iID))

  00005	8d 45 f8	 lea	 eax, DWORD PTR _iID$[ebp]
  00008	50		 push	 eax
  00009	6a 00		 push	 0
  0000b	ff 75 0c	 push	 DWORD PTR _poArgs$[ebp]
  0000e	e8 00 00 00 00	 call	 ?PyTuple_GetInteger@@YA_NPAU_object@@HPAH@Z ; PyTuple_GetInteger
  00013	83 c4 0c	 add	 esp, 12			; 0000000cH
  00016	0f b6 c0	 movzx	 eax, al
  00019	85 c0		 test	 eax, eax
  0001b	75 0a		 jne	 SHORT $LN2@chatToggle

; 132  : 		return Py_BuildException();

  0001d	6a 00		 push	 0
  0001f	e8 00 00 00 00	 call	 ?Py_BuildException@@YAPAU_object@@PBDZZ ; Py_BuildException
  00024	59		 pop	 ecx
  00025	eb 38		 jmp	 SHORT $LN1@chatToggle
$LN2@chatToggle:

; 133  : 	int iType;
; 134  : 	if (!PyTuple_GetInteger(poArgs, 1, &iType))

  00027	8d 45 fc	 lea	 eax, DWORD PTR _iType$[ebp]
  0002a	50		 push	 eax
  0002b	6a 01		 push	 1
  0002d	ff 75 0c	 push	 DWORD PTR _poArgs$[ebp]
  00030	e8 00 00 00 00	 call	 ?PyTuple_GetInteger@@YA_NPAU_object@@HPAH@Z ; PyTuple_GetInteger
  00035	83 c4 0c	 add	 esp, 12			; 0000000cH
  00038	0f b6 c0	 movzx	 eax, al
  0003b	85 c0		 test	 eax, eax
  0003d	75 0a		 jne	 SHORT $LN5@chatToggle

; 135  : 		return Py_BuildException();

  0003f	6a 00		 push	 0
  00041	e8 00 00 00 00	 call	 ?Py_BuildException@@YAPAU_object@@PBDZZ ; Py_BuildException
  00046	59		 pop	 ecx
  00047	eb 16		 jmp	 SHORT $LN1@chatToggle
$LN5@chatToggle:

; 136  : 
; 137  : 	CPythonChat::Instance().ToggleChatMode(iID, iType);

  00049	ff 75 fc	 push	 DWORD PTR _iType$[ebp]
  0004c	ff 75 f8	 push	 DWORD PTR _iID$[ebp]
  0004f	8b 0d 00 00 00
	00		 mov	 ecx, DWORD PTR ?ms_singleton@?$CSingleton@VCPythonChat@@@@0PAVCPythonChat@@A ; CSingleton<CPythonChat>::ms_singleton
  00055	e8 00 00 00 00	 call	 ?ToggleChatMode@CPythonChat@@QAEXKH@Z ; CPythonChat::ToggleChatMode

; 138  : 
; 139  : 	return Py_BuildNone();

  0005a	e8 00 00 00 00	 call	 ?Py_BuildNone@@YAPAU_object@@XZ ; Py_BuildNone
$LN1@chatToggle:

; 140  : }

  0005f	c9		 leave
  00060	c3		 ret	 0
?chatToggleChatMode@@YAPAU_object@@PAU1@0@Z ENDP	; chatToggleChatMode
_TEXT	ENDS
; Function compile flags: /Odspy
; File D:\Metin2 Server Files\mainline\SRC_2014\Metin2Client\UserInterface\PythonChatModule.cpp
;	COMDAT ?chatSetStep@@YAPAU_object@@PAU1@0@Z
_TEXT	SEGMENT
_iID$ = -8						; size = 4
_iStep$ = -4						; size = 4
_poSelf$ = 8						; size = 4
_poArgs$ = 12						; size = 4
?chatSetStep@@YAPAU_object@@PAU1@0@Z PROC		; chatSetStep, COMDAT

; 115  : {

  00000	55		 push	 ebp
  00001	8b ec		 mov	 ebp, esp
  00003	51		 push	 ecx
  00004	51		 push	 ecx

; 116  : 	int iID;
; 117  : 	if (!PyTuple_GetInteger(poArgs, 0, &iID))

  00005	8d 45 f8	 lea	 eax, DWORD PTR _iID$[ebp]
  00008	50		 push	 eax
  00009	6a 00		 push	 0
  0000b	ff 75 0c	 push	 DWORD PTR _poArgs$[ebp]
  0000e	e8 00 00 00 00	 call	 ?PyTuple_GetInteger@@YA_NPAU_object@@HPAH@Z ; PyTuple_GetInteger
  00013	83 c4 0c	 add	 esp, 12			; 0000000cH
  00016	0f b6 c0	 movzx	 eax, al
  00019	85 c0		 test	 eax, eax
  0001b	75 0a		 jne	 SHORT $LN2@chatSetSte

; 118  : 		return Py_BuildException();

  0001d	6a 00		 push	 0
  0001f	e8 00 00 00 00	 call	 ?Py_BuildException@@YAPAU_object@@PBDZZ ; Py_BuildException
  00024	59		 pop	 ecx
  00025	eb 38		 jmp	 SHORT $LN1@chatSetSte
$LN2@chatSetSte:

; 119  : 	int iStep;
; 120  : 	if (!PyTuple_GetInteger(poArgs, 1, &iStep))

  00027	8d 45 fc	 lea	 eax, DWORD PTR _iStep$[ebp]
  0002a	50		 push	 eax
  0002b	6a 01		 push	 1
  0002d	ff 75 0c	 push	 DWORD PTR _poArgs$[ebp]
  00030	e8 00 00 00 00	 call	 ?PyTuple_GetInteger@@YA_NPAU_object@@HPAH@Z ; PyTuple_GetInteger
  00035	83 c4 0c	 add	 esp, 12			; 0000000cH
  00038	0f b6 c0	 movzx	 eax, al
  0003b	85 c0		 test	 eax, eax
  0003d	75 0a		 jne	 SHORT $LN5@chatSetSte

; 121  : 		return Py_BuildException();

  0003f	6a 00		 push	 0
  00041	e8 00 00 00 00	 call	 ?Py_BuildException@@YAPAU_object@@PBDZZ ; Py_BuildException
  00046	59		 pop	 ecx
  00047	eb 16		 jmp	 SHORT $LN1@chatSetSte
$LN5@chatSetSte:

; 122  : 
; 123  : 	CPythonChat::Instance().SetStep(iID, iStep);

  00049	ff 75 fc	 push	 DWORD PTR _iStep$[ebp]
  0004c	ff 75 f8	 push	 DWORD PTR _iID$[ebp]
  0004f	8b 0d 00 00 00
	00		 mov	 ecx, DWORD PTR ?ms_singleton@?$CSingleton@VCPythonChat@@@@0PAVCPythonChat@@A ; CSingleton<CPythonChat>::ms_singleton
  00055	e8 00 00 00 00	 call	 ?SetStep@CPythonChat@@QAEXKH@Z ; CPythonChat::SetStep

; 124  : 
; 125  : 	return Py_BuildNone();

  0005a	e8 00 00 00 00	 call	 ?Py_BuildNone@@YAPAU_object@@XZ ; Py_BuildNone
$LN1@chatSetSte:

; 126  : }

  0005f	c9		 leave
  00060	c3		 ret	 0
?chatSetStep@@YAPAU_object@@PAU1@0@Z ENDP		; chatSetStep
_TEXT	ENDS
; Function compile flags: /Odspy
; File D:\Metin2 Server Files\mainline\SRC_2014\Metin2Client\UserInterface\PythonChatModule.cpp
;	COMDAT ?chatSetHeight@@YAPAU_object@@PAU1@0@Z
_TEXT	SEGMENT
_iID$ = -8						; size = 4
_iHeight$ = -4						; size = 4
_poSelf$ = 8						; size = 4
_poArgs$ = 12						; size = 4
?chatSetHeight@@YAPAU_object@@PAU1@0@Z PROC		; chatSetHeight, COMDAT

; 101  : {

  00000	55		 push	 ebp
  00001	8b ec		 mov	 ebp, esp
  00003	51		 push	 ecx
  00004	51		 push	 ecx

; 102  : 	int iID;
; 103  : 	if (!PyTuple_GetInteger(poArgs, 0, &iID))

  00005	8d 45 f8	 lea	 eax, DWORD PTR _iID$[ebp]
  00008	50		 push	 eax
  00009	6a 00		 push	 0
  0000b	ff 75 0c	 push	 DWORD PTR _poArgs$[ebp]
  0000e	e8 00 00 00 00	 call	 ?PyTuple_GetInteger@@YA_NPAU_object@@HPAH@Z ; PyTuple_GetInteger
  00013	83 c4 0c	 add	 esp, 12			; 0000000cH
  00016	0f b6 c0	 movzx	 eax, al
  00019	85 c0		 test	 eax, eax
  0001b	75 0a		 jne	 SHORT $LN2@chatSetHei

; 104  : 		return Py_BuildException();

  0001d	6a 00		 push	 0
  0001f	e8 00 00 00 00	 call	 ?Py_BuildException@@YAPAU_object@@PBDZZ ; Py_BuildException
  00024	59		 pop	 ecx
  00025	eb 38		 jmp	 SHORT $LN1@chatSetHei
$LN2@chatSetHei:

; 105  : 	int iHeight;
; 106  : 	if (!PyTuple_GetInteger(poArgs, 1, &iHeight))

  00027	8d 45 fc	 lea	 eax, DWORD PTR _iHeight$[ebp]
  0002a	50		 push	 eax
  0002b	6a 01		 push	 1
  0002d	ff 75 0c	 push	 DWORD PTR _poArgs$[ebp]
  00030	e8 00 00 00 00	 call	 ?PyTuple_GetInteger@@YA_NPAU_object@@HPAH@Z ; PyTuple_GetInteger
  00035	83 c4 0c	 add	 esp, 12			; 0000000cH
  00038	0f b6 c0	 movzx	 eax, al
  0003b	85 c0		 test	 eax, eax
  0003d	75 0a		 jne	 SHORT $LN5@chatSetHei

; 107  : 		return Py_BuildException();

  0003f	6a 00		 push	 0
  00041	e8 00 00 00 00	 call	 ?Py_BuildException@@YAPAU_object@@PBDZZ ; Py_BuildException
  00046	59		 pop	 ecx
  00047	eb 16		 jmp	 SHORT $LN1@chatSetHei
$LN5@chatSetHei:

; 108  : 
; 109  : 	CPythonChat::Instance().SetHeight(iID, iHeight);

  00049	ff 75 fc	 push	 DWORD PTR _iHeight$[ebp]
  0004c	ff 75 f8	 push	 DWORD PTR _iID$[ebp]
  0004f	8b 0d 00 00 00
	00		 mov	 ecx, DWORD PTR ?ms_singleton@?$CSingleton@VCPythonChat@@@@0PAVCPythonChat@@A ; CSingleton<CPythonChat>::ms_singleton
  00055	e8 00 00 00 00	 call	 ?SetHeight@CPythonChat@@QAEXKH@Z ; CPythonChat::SetHeight

; 110  : 
; 111  : 	return Py_BuildNone();

  0005a	e8 00 00 00 00	 call	 ?Py_BuildNone@@YAPAU_object@@XZ ; Py_BuildNone
$LN1@chatSetHei:

; 112  : }

  0005f	c9		 leave
  00060	c3		 ret	 0
?chatSetHeight@@YAPAU_object@@PAU1@0@Z ENDP		; chatSetHeight
_TEXT	ENDS
; Function compile flags: /Odspy
; File D:\Metin2 Server Files\mainline\SRC_2014\Metin2Client\UserInterface\PythonChatModule.cpp
;	COMDAT ?chatSetPosition@@YAPAU_object@@PAU1@0@Z
_TEXT	SEGMENT
_iID$ = -12						; size = 4
_ix$ = -8						; size = 4
_iy$ = -4						; size = 4
_poSelf$ = 8						; size = 4
_poArgs$ = 12						; size = 4
?chatSetPosition@@YAPAU_object@@PAU1@0@Z PROC		; chatSetPosition, COMDAT

; 84   : {

  00000	55		 push	 ebp
  00001	8b ec		 mov	 ebp, esp
  00003	83 ec 0c	 sub	 esp, 12			; 0000000cH

; 85   : 	int iID;
; 86   : 	if (!PyTuple_GetInteger(poArgs, 0, &iID))

  00006	8d 45 f4	 lea	 eax, DWORD PTR _iID$[ebp]
  00009	50		 push	 eax
  0000a	6a 00		 push	 0
  0000c	ff 75 0c	 push	 DWORD PTR _poArgs$[ebp]
  0000f	e8 00 00 00 00	 call	 ?PyTuple_GetInteger@@YA_NPAU_object@@HPAH@Z ; PyTuple_GetInteger
  00014	83 c4 0c	 add	 esp, 12			; 0000000cH
  00017	0f b6 c0	 movzx	 eax, al
  0001a	85 c0		 test	 eax, eax
  0001c	75 0a		 jne	 SHORT $LN2@chatSetPos

; 87   : 		return Py_BuildException();

  0001e	6a 00		 push	 0
  00020	e8 00 00 00 00	 call	 ?Py_BuildException@@YAPAU_object@@PBDZZ ; Py_BuildException
  00025	59		 pop	 ecx
  00026	eb 5d		 jmp	 SHORT $LN1@chatSetPos
$LN2@chatSetPos:

; 88   : 	int ix;
; 89   : 	if (!PyTuple_GetInteger(poArgs, 1, &ix))

  00028	8d 45 f8	 lea	 eax, DWORD PTR _ix$[ebp]
  0002b	50		 push	 eax
  0002c	6a 01		 push	 1
  0002e	ff 75 0c	 push	 DWORD PTR _poArgs$[ebp]
  00031	e8 00 00 00 00	 call	 ?PyTuple_GetInteger@@YA_NPAU_object@@HPAH@Z ; PyTuple_GetInteger
  00036	83 c4 0c	 add	 esp, 12			; 0000000cH
  00039	0f b6 c0	 movzx	 eax, al
  0003c	85 c0		 test	 eax, eax
  0003e	75 0a		 jne	 SHORT $LN3@chatSetPos

; 90   : 		return Py_BuildException();

  00040	6a 00		 push	 0
  00042	e8 00 00 00 00	 call	 ?Py_BuildException@@YAPAU_object@@PBDZZ ; Py_BuildException
  00047	59		 pop	 ecx
  00048	eb 3b		 jmp	 SHORT $LN1@chatSetPos
$LN3@chatSetPos:

; 91   : 	int iy;
; 92   : 	if (!PyTuple_GetInteger(poArgs, 2, &iy))

  0004a	8d 45 fc	 lea	 eax, DWORD PTR _iy$[ebp]
  0004d	50		 push	 eax
  0004e	6a 02		 push	 2
  00050	ff 75 0c	 push	 DWORD PTR _poArgs$[ebp]
  00053	e8 00 00 00 00	 call	 ?PyTuple_GetInteger@@YA_NPAU_object@@HPAH@Z ; PyTuple_GetInteger
  00058	83 c4 0c	 add	 esp, 12			; 0000000cH
  0005b	0f b6 c0	 movzx	 eax, al
  0005e	85 c0		 test	 eax, eax
  00060	75 0a		 jne	 SHORT $LN6@chatSetPos

; 93   : 		return Py_BuildException();

  00062	6a 00		 push	 0
  00064	e8 00 00 00 00	 call	 ?Py_BuildException@@YAPAU_object@@PBDZZ ; Py_BuildException
  00069	59		 pop	 ecx
  0006a	eb 19		 jmp	 SHORT $LN1@chatSetPos
$LN6@chatSetPos:

; 94   : 
; 95   : 	CPythonChat::Instance().SetPosition(iID, ix, iy);

  0006c	ff 75 fc	 push	 DWORD PTR _iy$[ebp]
  0006f	ff 75 f8	 push	 DWORD PTR _ix$[ebp]
  00072	ff 75 f4	 push	 DWORD PTR _iID$[ebp]
  00075	8b 0d 00 00 00
	00		 mov	 ecx, DWORD PTR ?ms_singleton@?$CSingleton@VCPythonChat@@@@0PAVCPythonChat@@A ; CSingleton<CPythonChat>::ms_singleton
  0007b	e8 00 00 00 00	 call	 ?SetPosition@CPythonChat@@QAEXKHH@Z ; CPythonChat::SetPosition

; 96   : 
; 97   : 	return Py_BuildNone();

  00080	e8 00 00 00 00	 call	 ?Py_BuildNone@@YAPAU_object@@XZ ; Py_BuildNone
$LN1@chatSetPos:

; 98   : }

  00085	c9		 leave
  00086	c3		 ret	 0
?chatSetPosition@@YAPAU_object@@PAU1@0@Z ENDP		; chatSetPosition
_TEXT	ENDS
; Function compile flags: /Odspy
; File D:\Metin2 Server Files\mainline\SRC_2014\Metin2Client\UserInterface\PythonChatModule.cpp
;	COMDAT ?chatSetBoardState@@YAPAU_object@@PAU1@0@Z
_TEXT	SEGMENT
_iID$ = -8						; size = 4
_iState$ = -4						; size = 4
_poSelf$ = 8						; size = 4
_poArgs$ = 12						; size = 4
?chatSetBoardState@@YAPAU_object@@PAU1@0@Z PROC		; chatSetBoardState, COMDAT

; 70   : {

  00000	55		 push	 ebp
  00001	8b ec		 mov	 ebp, esp
  00003	51		 push	 ecx
  00004	51		 push	 ecx

; 71   : 	int iID;
; 72   : 	if (!PyTuple_GetInteger(poArgs, 0, &iID))

  00005	8d 45 f8	 lea	 eax, DWORD PTR _iID$[ebp]
  00008	50		 push	 eax
  00009	6a 00		 push	 0
  0000b	ff 75 0c	 push	 DWORD PTR _poArgs$[ebp]
  0000e	e8 00 00 00 00	 call	 ?PyTuple_GetInteger@@YA_NPAU_object@@HPAH@Z ; PyTuple_GetInteger
  00013	83 c4 0c	 add	 esp, 12			; 0000000cH
  00016	0f b6 c0	 movzx	 eax, al
  00019	85 c0		 test	 eax, eax
  0001b	75 0a		 jne	 SHORT $LN2@chatSetBoa

; 73   : 		return Py_BuildException();

  0001d	6a 00		 push	 0
  0001f	e8 00 00 00 00	 call	 ?Py_BuildException@@YAPAU_object@@PBDZZ ; Py_BuildException
  00024	59		 pop	 ecx
  00025	eb 38		 jmp	 SHORT $LN1@chatSetBoa
$LN2@chatSetBoa:

; 74   : 	int iState;
; 75   : 	if (!PyTuple_GetInteger(poArgs, 1, &iState))

  00027	8d 45 fc	 lea	 eax, DWORD PTR _iState$[ebp]
  0002a	50		 push	 eax
  0002b	6a 01		 push	 1
  0002d	ff 75 0c	 push	 DWORD PTR _poArgs$[ebp]
  00030	e8 00 00 00 00	 call	 ?PyTuple_GetInteger@@YA_NPAU_object@@HPAH@Z ; PyTuple_GetInteger
  00035	83 c4 0c	 add	 esp, 12			; 0000000cH
  00038	0f b6 c0	 movzx	 eax, al
  0003b	85 c0		 test	 eax, eax
  0003d	75 0a		 jne	 SHORT $LN5@chatSetBoa

; 76   : 		return Py_BuildException();

  0003f	6a 00		 push	 0
  00041	e8 00 00 00 00	 call	 ?Py_BuildException@@YAPAU_object@@PBDZZ ; Py_BuildException
  00046	59		 pop	 ecx
  00047	eb 16		 jmp	 SHORT $LN1@chatSetBoa
$LN5@chatSetBoa:

; 77   : 
; 78   : 	CPythonChat::Instance().SetBoardState(iID, iState);

  00049	ff 75 fc	 push	 DWORD PTR _iState$[ebp]
  0004c	ff 75 f8	 push	 DWORD PTR _iID$[ebp]
  0004f	8b 0d 00 00 00
	00		 mov	 ecx, DWORD PTR ?ms_singleton@?$CSingleton@VCPythonChat@@@@0PAVCPythonChat@@A ; CSingleton<CPythonChat>::ms_singleton
  00055	e8 00 00 00 00	 call	 ?SetBoardState@CPythonChat@@QAEXKH@Z ; CPythonChat::SetBoardState

; 79   : 
; 80   : 	return Py_BuildNone();

  0005a	e8 00 00 00 00	 call	 ?Py_BuildNone@@YAPAU_object@@XZ ; Py_BuildNone
$LN1@chatSetBoa:

; 81   : }

  0005f	c9		 leave
  00060	c3		 ret	 0
?chatSetBoardState@@YAPAU_object@@PAU1@0@Z ENDP		; chatSetBoardState
_TEXT	ENDS
; Function compile flags: /Odspy
; File D:\Metin2 Server Files\mainline\SRC_2014\Metin2Client\UserInterface\PythonChatModule.cpp
;	COMDAT ?chatRender@@YAPAU_object@@PAU1@0@Z
_TEXT	SEGMENT
_iID$ = -4						; size = 4
_poSelf$ = 8						; size = 4
_poArgs$ = 12						; size = 4
?chatRender@@YAPAU_object@@PAU1@0@Z PROC		; chatRender, COMDAT

; 60   : {

  00000	55		 push	 ebp
  00001	8b ec		 mov	 ebp, esp
  00003	51		 push	 ecx

; 61   : 	int iID;
; 62   : 	if (!PyTuple_GetInteger(poArgs, 0, &iID))

  00004	8d 45 fc	 lea	 eax, DWORD PTR _iID$[ebp]
  00007	50		 push	 eax
  00008	6a 00		 push	 0
  0000a	ff 75 0c	 push	 DWORD PTR _poArgs$[ebp]
  0000d	e8 00 00 00 00	 call	 ?PyTuple_GetInteger@@YA_NPAU_object@@HPAH@Z ; PyTuple_GetInteger
  00012	83 c4 0c	 add	 esp, 12			; 0000000cH
  00015	0f b6 c0	 movzx	 eax, al
  00018	85 c0		 test	 eax, eax
  0001a	75 0a		 jne	 SHORT $LN4@chatRender

; 63   : 		return Py_BuildException();

  0001c	6a 00		 push	 0
  0001e	e8 00 00 00 00	 call	 ?Py_BuildException@@YAPAU_object@@PBDZZ ; Py_BuildException
  00023	59		 pop	 ecx
  00024	eb 13		 jmp	 SHORT $LN1@chatRender
$LN4@chatRender:

; 64   : 
; 65   : 	CPythonChat::Instance().Render(iID);

  00026	ff 75 fc	 push	 DWORD PTR _iID$[ebp]
  00029	8b 0d 00 00 00
	00		 mov	 ecx, DWORD PTR ?ms_singleton@?$CSingleton@VCPythonChat@@@@0PAVCPythonChat@@A ; CSingleton<CPythonChat>::ms_singleton
  0002f	e8 00 00 00 00	 call	 ?Render@CPythonChat@@QAEXK@Z ; CPythonChat::Render

; 66   : 	return Py_BuildNone();

  00034	e8 00 00 00 00	 call	 ?Py_BuildNone@@YAPAU_object@@XZ ; Py_BuildNone
$LN1@chatRender:

; 67   : }

  00039	c9		 leave
  0003a	c3		 ret	 0
?chatRender@@YAPAU_object@@PAU1@0@Z ENDP		; chatRender
_TEXT	ENDS
; Function compile flags: /Odspy
; File D:\Metin2 Server Files\mainline\SRC_2014\Metin2Client\UserInterface\PythonChatModule.cpp
;	COMDAT ?chatUpdate@@YAPAU_object@@PAU1@0@Z
_TEXT	SEGMENT
_iID$ = -4						; size = 4
_poSelf$ = 8						; size = 4
_poArgs$ = 12						; size = 4
?chatUpdate@@YAPAU_object@@PAU1@0@Z PROC		; chatUpdate, COMDAT

; 50   : {

  00000	55		 push	 ebp
  00001	8b ec		 mov	 ebp, esp
  00003	51		 push	 ecx

; 51   : 	int iID;
; 52   : 	if (!PyTuple_GetInteger(poArgs, 0, &iID))

  00004	8d 45 fc	 lea	 eax, DWORD PTR _iID$[ebp]
  00007	50		 push	 eax
  00008	6a 00		 push	 0
  0000a	ff 75 0c	 push	 DWORD PTR _poArgs$[ebp]
  0000d	e8 00 00 00 00	 call	 ?PyTuple_GetInteger@@YA_NPAU_object@@HPAH@Z ; PyTuple_GetInteger
  00012	83 c4 0c	 add	 esp, 12			; 0000000cH
  00015	0f b6 c0	 movzx	 eax, al
  00018	85 c0		 test	 eax, eax
  0001a	75 0a		 jne	 SHORT $LN4@chatUpdate

; 53   : 		return Py_BuildException();

  0001c	6a 00		 push	 0
  0001e	e8 00 00 00 00	 call	 ?Py_BuildException@@YAPAU_object@@PBDZZ ; Py_BuildException
  00023	59		 pop	 ecx
  00024	eb 13		 jmp	 SHORT $LN1@chatUpdate
$LN4@chatUpdate:

; 54   : 
; 55   : 	CPythonChat::Instance().Update(iID);

  00026	ff 75 fc	 push	 DWORD PTR _iID$[ebp]
  00029	8b 0d 00 00 00
	00		 mov	 ecx, DWORD PTR ?ms_singleton@?$CSingleton@VCPythonChat@@@@0PAVCPythonChat@@A ; CSingleton<CPythonChat>::ms_singleton
  0002f	e8 00 00 00 00	 call	 ?Update@CPythonChat@@QAEXK@Z ; CPythonChat::Update

; 56   : 	return Py_BuildNone();

  00034	e8 00 00 00 00	 call	 ?Py_BuildNone@@YAPAU_object@@XZ ; Py_BuildNone
$LN1@chatUpdate:

; 57   : }

  00039	c9		 leave
  0003a	c3		 ret	 0
?chatUpdate@@YAPAU_object@@PAU1@0@Z ENDP		; chatUpdate
_TEXT	ENDS
; Function compile flags: /Odspy
; File D:\Metin2 Server Files\mainline\SRC_2014\Metin2Client\UserInterface\PythonChatModule.cpp
; File D:\Metin2 Server Files\mainline\SRC_2014\Metin2Client\eterBase\Singleton.h
; File D:\Metin2 Server Files\mainline\SRC_2014\Metin2Client\UserInterface\PythonChatModule.cpp
;	COMDAT ?chatCreateChatSet@@YAPAU_object@@PAU1@0@Z
_TEXT	SEGMENT
$T1 = -8						; size = 4
_iID$ = -4						; size = 4
_poSelf$ = 8						; size = 4
_poArgs$ = 12						; size = 4
?chatCreateChatSet@@YAPAU_object@@PAU1@0@Z PROC		; chatCreateChatSet, COMDAT

; 41   : {

  00000	55		 push	 ebp
  00001	8b ec		 mov	 ebp, esp
  00003	51		 push	 ecx
  00004	51		 push	 ecx

; 42   : 	int iID;
; 43   : 	if (!PyTuple_GetInteger(poArgs, 0, &iID))

  00005	8d 45 fc	 lea	 eax, DWORD PTR _iID$[ebp]
  00008	50		 push	 eax
  00009	6a 00		 push	 0
  0000b	ff 75 0c	 push	 DWORD PTR _poArgs$[ebp]
  0000e	e8 00 00 00 00	 call	 ?PyTuple_GetInteger@@YA_NPAU_object@@HPAH@Z ; PyTuple_GetInteger
  00013	83 c4 0c	 add	 esp, 12			; 0000000cH
  00016	0f b6 c0	 movzx	 eax, al
  00019	85 c0		 test	 eax, eax
  0001b	75 0a		 jne	 SHORT $LN2@chatCreate

; 44   : 		return Py_BuildException();

  0001d	6a 00		 push	 0
  0001f	e8 00 00 00 00	 call	 ?Py_BuildException@@YAPAU_object@@PBDZZ ; Py_BuildException
  00024	59		 pop	 ecx
  00025	eb 21		 jmp	 SHORT $LN1@chatCreate
$LN2@chatCreate:
; File D:\Metin2 Server Files\mainline\SRC_2014\Metin2Client\eterBase\Singleton.h

; 27   : 		return (*ms_singleton);

  00027	a1 00 00 00 00	 mov	 eax, DWORD PTR ?ms_singleton@?$CSingleton@VCPythonChat@@@@0PAVCPythonChat@@A ; CSingleton<CPythonChat>::ms_singleton
  0002c	89 45 f8	 mov	 DWORD PTR $T1[ebp], eax
; File D:\Metin2 Server Files\mainline\SRC_2014\Metin2Client\UserInterface\PythonChatModule.cpp

; 46   : 	return Py_BuildValue("i", CPythonChat::Instance().CreateChatSet(iID));

  0002f	ff 75 fc	 push	 DWORD PTR _iID$[ebp]
  00032	8b 4d f8	 mov	 ecx, DWORD PTR $T1[ebp]
  00035	e8 00 00 00 00	 call	 ?CreateChatSet@CPythonChat@@QAEHK@Z ; CPythonChat::CreateChatSet
  0003a	50		 push	 eax
  0003b	68 00 00 00 00	 push	 OFFSET ??_C@_01KBJDNOO@i@
  00040	ff 15 00 00 00
	00		 call	 DWORD PTR __imp__Py_BuildValue
  00046	59		 pop	 ecx
  00047	59		 pop	 ecx
$LN1@chatCreate:

; 47   : }

  00048	c9		 leave
  00049	c3		 ret	 0
?chatCreateChatSet@@YAPAU_object@@PAU1@0@Z ENDP		; chatCreateChatSet
_TEXT	ENDS
; Function compile flags: /Odspy
; File D:\Metin2 Server Files\mainline\SRC_2014\Metin2Client\UserInterface\PythonChatModule.cpp
;	COMDAT ?chatClose@@YAPAU_object@@PAU1@0@Z
_TEXT	SEGMENT
_poSelf$ = 8						; size = 4
_poArgs$ = 12						; size = 4
?chatClose@@YAPAU_object@@PAU1@0@Z PROC			; chatClose, COMDAT

; 35   : {

  00000	55		 push	 ebp
  00001	8b ec		 mov	 ebp, esp

; 36   : 	CPythonChat::Instance().Close();

  00003	8b 0d 00 00 00
	00		 mov	 ecx, DWORD PTR ?ms_singleton@?$CSingleton@VCPythonChat@@@@0PAVCPythonChat@@A ; CSingleton<CPythonChat>::ms_singleton
  00009	e8 00 00 00 00	 call	 ?Close@CPythonChat@@QAEXXZ ; CPythonChat::Close

; 37   : 	return Py_BuildNone();

  0000e	e8 00 00 00 00	 call	 ?Py_BuildNone@@YAPAU_object@@XZ ; Py_BuildNone

; 38   : }

  00013	5d		 pop	 ebp
  00014	c3		 ret	 0
?chatClose@@YAPAU_object@@PAU1@0@Z ENDP			; chatClose
_TEXT	ENDS
; Function compile flags: /Odspy
; File D:\Metin2 Server Files\mainline\SRC_2014\Metin2Client\UserInterface\PythonChatModule.cpp
;	COMDAT ?chatClear@@YAPAU_object@@PAU1@0@Z
_TEXT	SEGMENT
_poSelf$ = 8						; size = 4
_poArgs$ = 12						; size = 4
?chatClear@@YAPAU_object@@PAU1@0@Z PROC			; chatClear, COMDAT

; 29   : {

  00000	55		 push	 ebp
  00001	8b ec		 mov	 ebp, esp

; 30   : 	CPythonChat::Instance().Destroy();

  00003	8b 0d 00 00 00
	00		 mov	 ecx, DWORD PTR ?ms_singleton@?$CSingleton@VCPythonChat@@@@0PAVCPythonChat@@A ; CSingleton<CPythonChat>::ms_singleton
  00009	e8 00 00 00 00	 call	 ?Destroy@CPythonChat@@QAEXXZ ; CPythonChat::Destroy

; 31   : 	return Py_BuildNone();

  0000e	e8 00 00 00 00	 call	 ?Py_BuildNone@@YAPAU_object@@XZ ; Py_BuildNone

; 32   : }

  00013	5d		 pop	 ebp
  00014	c3		 ret	 0
?chatClear@@YAPAU_object@@PAU1@0@Z ENDP			; chatClear
_TEXT	ENDS
; Function compile flags: /Odspy
; File D:\Metin2 Server Files\mainline\SRC_2014\Metin2Client\UserInterface\PythonChatModule.cpp
;	COMDAT ?chatSetChatColor@@YAPAU_object@@PAU1@0@Z
_TEXT	SEGMENT
_iType$ = -16						; size = 4
_r$ = -12						; size = 4
_g$ = -8						; size = 4
_b$ = -4						; size = 4
_poSelf$ = 8						; size = 4
_poArgs$ = 12						; size = 4
?chatSetChatColor@@YAPAU_object@@PAU1@0@Z PROC		; chatSetChatColor, COMDAT

; 7    : {

  00000	55		 push	 ebp
  00001	8b ec		 mov	 ebp, esp
  00003	83 ec 10	 sub	 esp, 16			; 00000010H

; 8    : 	int iType;
; 9    : 	if (!PyTuple_GetInteger(poArgs, 0, &iType))

  00006	8d 45 f0	 lea	 eax, DWORD PTR _iType$[ebp]
  00009	50		 push	 eax
  0000a	6a 00		 push	 0
  0000c	ff 75 0c	 push	 DWORD PTR _poArgs$[ebp]
  0000f	e8 00 00 00 00	 call	 ?PyTuple_GetInteger@@YA_NPAU_object@@HPAH@Z ; PyTuple_GetInteger
  00014	83 c4 0c	 add	 esp, 12			; 0000000cH
  00017	0f b6 c0	 movzx	 eax, al
  0001a	85 c0		 test	 eax, eax
  0001c	75 0d		 jne	 SHORT $LN2@chatSetCha

; 10   : 		return Py_BuildException();

  0001e	6a 00		 push	 0
  00020	e8 00 00 00 00	 call	 ?Py_BuildException@@YAPAU_object@@PBDZZ ; Py_BuildException
  00025	59		 pop	 ecx
  00026	e9 82 00 00 00	 jmp	 $LN1@chatSetCha
$LN2@chatSetCha:

; 11   : 
; 12   : 	int r;
; 13   : 	if (!PyTuple_GetInteger(poArgs, 1, &r))

  0002b	8d 45 f4	 lea	 eax, DWORD PTR _r$[ebp]
  0002e	50		 push	 eax
  0002f	6a 01		 push	 1
  00031	ff 75 0c	 push	 DWORD PTR _poArgs$[ebp]
  00034	e8 00 00 00 00	 call	 ?PyTuple_GetInteger@@YA_NPAU_object@@HPAH@Z ; PyTuple_GetInteger
  00039	83 c4 0c	 add	 esp, 12			; 0000000cH
  0003c	0f b6 c0	 movzx	 eax, al
  0003f	85 c0		 test	 eax, eax
  00041	75 0a		 jne	 SHORT $LN3@chatSetCha

; 14   : 		return Py_BuildException();

  00043	6a 00		 push	 0
  00045	e8 00 00 00 00	 call	 ?Py_BuildException@@YAPAU_object@@PBDZZ ; Py_BuildException
  0004a	59		 pop	 ecx
  0004b	eb 60		 jmp	 SHORT $LN1@chatSetCha
$LN3@chatSetCha:

; 15   : 
; 16   : 	int g;
; 17   : 	if (!PyTuple_GetInteger(poArgs, 2, &g))

  0004d	8d 45 f8	 lea	 eax, DWORD PTR _g$[ebp]
  00050	50		 push	 eax
  00051	6a 02		 push	 2
  00053	ff 75 0c	 push	 DWORD PTR _poArgs$[ebp]
  00056	e8 00 00 00 00	 call	 ?PyTuple_GetInteger@@YA_NPAU_object@@HPAH@Z ; PyTuple_GetInteger
  0005b	83 c4 0c	 add	 esp, 12			; 0000000cH
  0005e	0f b6 c0	 movzx	 eax, al
  00061	85 c0		 test	 eax, eax
  00063	75 0a		 jne	 SHORT $LN4@chatSetCha

; 18   : 		return Py_BuildException();

  00065	6a 00		 push	 0
  00067	e8 00 00 00 00	 call	 ?Py_BuildException@@YAPAU_object@@PBDZZ ; Py_BuildException
  0006c	59		 pop	 ecx
  0006d	eb 3e		 jmp	 SHORT $LN1@chatSetCha
$LN4@chatSetCha:

; 19   : 
; 20   : 	int b;
; 21   : 	if (!PyTuple_GetInteger(poArgs, 3, &b))

  0006f	8d 45 fc	 lea	 eax, DWORD PTR _b$[ebp]
  00072	50		 push	 eax
  00073	6a 03		 push	 3
  00075	ff 75 0c	 push	 DWORD PTR _poArgs$[ebp]
  00078	e8 00 00 00 00	 call	 ?PyTuple_GetInteger@@YA_NPAU_object@@HPAH@Z ; PyTuple_GetInteger
  0007d	83 c4 0c	 add	 esp, 12			; 0000000cH
  00080	0f b6 c0	 movzx	 eax, al
  00083	85 c0		 test	 eax, eax
  00085	75 0a		 jne	 SHORT $LN7@chatSetCha

; 22   : 		return Py_BuildException();

  00087	6a 00		 push	 0
  00089	e8 00 00 00 00	 call	 ?Py_BuildException@@YAPAU_object@@PBDZZ ; Py_BuildException
  0008e	59		 pop	 ecx
  0008f	eb 1c		 jmp	 SHORT $LN1@chatSetCha
$LN7@chatSetCha:

; 23   : 
; 24   : 	CPythonChat::Instance().SetChatColor(iType, r, g, b);

  00091	ff 75 fc	 push	 DWORD PTR _b$[ebp]
  00094	ff 75 f8	 push	 DWORD PTR _g$[ebp]
  00097	ff 75 f4	 push	 DWORD PTR _r$[ebp]
  0009a	ff 75 f0	 push	 DWORD PTR _iType$[ebp]
  0009d	8b 0d 00 00 00
	00		 mov	 ecx, DWORD PTR ?ms_singleton@?$CSingleton@VCPythonChat@@@@0PAVCPythonChat@@A ; CSingleton<CPythonChat>::ms_singleton
  000a3	e8 00 00 00 00	 call	 ?SetChatColor@CPythonChat@@QAEXIIII@Z ; CPythonChat::SetChatColor

; 25   : 	return Py_BuildNone();

  000a8	e8 00 00 00 00	 call	 ?Py_BuildNone@@YAPAU_object@@XZ ; Py_BuildNone
$LN1@chatSetCha:

; 26   : }

  000ad	c9		 leave
  000ae	c3		 ret	 0
?chatSetChatColor@@YAPAU_object@@PAU1@0@Z ENDP		; chatSetChatColor
_TEXT	ENDS
; Function compile flags: /Odspy
; File C:\Program Files (x86)\Microsoft Visual Studio\2019\Community\VC\Tools\MSVC\14.28.29333\include\xmemory
;	COMDAT ??$_Allocate_manually_vector_aligned@U_Default_allocate_traits@std@@@std@@YAPAXI@Z
_TEXT	SEGMENT
__Ptr$ = -12						; size = 4
__Block_size$ = -8					; size = 4
__Ptr_container$ = -4					; size = 4
__Bytes$ = 8						; size = 4
??$_Allocate_manually_vector_aligned@U_Default_allocate_traits@std@@@std@@YAPAXI@Z PROC ; std::_Allocate_manually_vector_aligned<std::_Default_allocate_traits>, COMDAT

; 113  : __declspec(allocator) void* _Allocate_manually_vector_aligned(const size_t _Bytes) {

  00000	55		 push	 ebp
  00001	8b ec		 mov	 ebp, esp
  00003	83 ec 0c	 sub	 esp, 12			; 0000000cH

; 114  :     // allocate _Bytes manually aligned to at least _Big_allocation_alignment
; 115  :     const size_t _Block_size = _Non_user_size + _Bytes;

  00006	8b 45 08	 mov	 eax, DWORD PTR __Bytes$[ebp]
  00009	83 c0 23	 add	 eax, 35			; 00000023H
  0000c	89 45 f8	 mov	 DWORD PTR __Block_size$[ebp], eax

; 116  :     if (_Block_size <= _Bytes) {

  0000f	8b 45 f8	 mov	 eax, DWORD PTR __Block_size$[ebp]
  00012	3b 45 08	 cmp	 eax, DWORD PTR __Bytes$[ebp]
  00015	77 05		 ja	 SHORT $LN12@Allocate_m

; 117  :         _Throw_bad_array_new_length(); // add overflow

  00017	e8 00 00 00 00	 call	 ?_Throw_bad_array_new_length@std@@YAXXZ ; std::_Throw_bad_array_new_length
$LN12@Allocate_m:

; 77   :         return ::operator new(_Bytes);

  0001c	ff 75 f8	 push	 DWORD PTR __Block_size$[ebp]
  0001f	e8 00 00 00 00	 call	 ??2@YAPAXI@Z		; operator new
  00024	59		 pop	 ecx

; 118  :     }
; 119  : 
; 120  :     const uintptr_t _Ptr_container = reinterpret_cast<uintptr_t>(_Traits::_Allocate(_Block_size));

  00025	89 45 fc	 mov	 DWORD PTR __Ptr_container$[ebp], eax
$LN4@Allocate_m:

; 121  :     _STL_VERIFY(_Ptr_container != 0, "invalid argument"); // validate even in release since we're doing p[-1]

  00028	83 7d fc 00	 cmp	 DWORD PTR __Ptr_container$[ebp], 0
  0002c	74 02		 je	 SHORT $LN7@Allocate_m
  0002e	eb 09		 jmp	 SHORT $LN2@Allocate_m
$LN7@Allocate_m:
  00030	e8 00 00 00 00	 call	 __invalid_parameter_noinfo_noreturn
  00035	33 c0		 xor	 eax, eax
  00037	75 f7		 jne	 SHORT $LN7@Allocate_m
$LN2@Allocate_m:
  00039	33 c0		 xor	 eax, eax
  0003b	75 eb		 jne	 SHORT $LN4@Allocate_m

; 122  :     void* const _Ptr = reinterpret_cast<void*>((_Ptr_container + _Non_user_size) & ~(_Big_allocation_alignment - 1));

  0003d	8b 45 fc	 mov	 eax, DWORD PTR __Ptr_container$[ebp]
  00040	83 c0 23	 add	 eax, 35			; 00000023H
  00043	83 e0 e0	 and	 eax, -32		; ffffffe0H
  00046	89 45 f4	 mov	 DWORD PTR __Ptr$[ebp], eax

; 123  :     static_cast<uintptr_t*>(_Ptr)[-1] = _Ptr_container;

  00049	6a 04		 push	 4
  0004b	58		 pop	 eax
  0004c	6b c0 ff	 imul	 eax, eax, -1
  0004f	8b 4d f4	 mov	 ecx, DWORD PTR __Ptr$[ebp]
  00052	8b 55 fc	 mov	 edx, DWORD PTR __Ptr_container$[ebp]
  00055	89 14 01	 mov	 DWORD PTR [ecx+eax], edx

; 124  : 
; 125  : #ifdef _DEBUG
; 126  :     static_cast<uintptr_t*>(_Ptr)[-2] = _Big_allocation_sentinel;
; 127  : #endif // _DEBUG
; 128  :     return _Ptr;

  00058	8b 45 f4	 mov	 eax, DWORD PTR __Ptr$[ebp]
$LN11@Allocate_m:

; 129  : }

  0005b	c9		 leave
  0005c	c3		 ret	 0
??$_Allocate_manually_vector_aligned@U_Default_allocate_traits@std@@@std@@YAPAXI@Z ENDP ; std::_Allocate_manually_vector_aligned<std::_Default_allocate_traits>
_TEXT	ENDS
; Function compile flags: /Odspy
; File C:\Program Files (x86)\Microsoft Visual Studio\2019\Community\VC\Tools\MSVC\14.28.29333\include\xmemory
;	COMDAT ??$_Allocate@$07U_Default_allocate_traits@std@@$0A@@std@@YAPAXI@Z
_TEXT	SEGMENT
__Bytes$ = 8						; size = 4
??$_Allocate@$07U_Default_allocate_traits@std@@$0A@@std@@YAPAXI@Z PROC ; std::_Allocate<8,std::_Default_allocate_traits,0>, COMDAT

; 197  : __declspec(allocator) void* _Allocate(const size_t _Bytes) {

  00000	55		 push	 ebp
  00001	8b ec		 mov	 ebp, esp

; 198  :     // allocate _Bytes when !_HAS_ALIGNED_NEW || _Align <= __STDCPP_DEFAULT_NEW_ALIGNMENT__
; 199  : #if defined(_M_IX86) || defined(_M_X64)
; 200  :     if (_Bytes >= _Big_allocation_threshold) { // boost the alignment of big allocations to help autovectorization

  00003	81 7d 08 00 10
	00 00		 cmp	 DWORD PTR __Bytes$[ebp], 4096 ; 00001000H
  0000a	72 0b		 jb	 SHORT $LN2@Allocate

; 201  :         return _Allocate_manually_vector_aligned<_Traits>(_Bytes);

  0000c	ff 75 08	 push	 DWORD PTR __Bytes$[ebp]
  0000f	e8 00 00 00 00	 call	 ??$_Allocate_manually_vector_aligned@U_Default_allocate_traits@std@@@std@@YAPAXI@Z ; std::_Allocate_manually_vector_aligned<std::_Default_allocate_traits>
  00014	59		 pop	 ecx
  00015	eb 13		 jmp	 SHORT $LN1@Allocate
$LN2@Allocate:

; 202  :     }
; 203  : #endif // defined(_M_IX86) || defined(_M_X64)
; 204  : 
; 205  :     if (_Bytes != 0) {

  00017	83 7d 08 00	 cmp	 DWORD PTR __Bytes$[ebp], 0
  0001b	74 0b		 je	 SHORT $LN3@Allocate

; 77   :         return ::operator new(_Bytes);

  0001d	ff 75 08	 push	 DWORD PTR __Bytes$[ebp]
  00020	e8 00 00 00 00	 call	 ??2@YAPAXI@Z		; operator new
  00025	59		 pop	 ecx

; 206  :         return _Traits::_Allocate(_Bytes);

  00026	eb 02		 jmp	 SHORT $LN1@Allocate
$LN3@Allocate:

; 207  :     }
; 208  : 
; 209  :     return nullptr;

  00028	33 c0		 xor	 eax, eax
$LN1@Allocate:

; 210  : }

  0002a	5d		 pop	 ebp
  0002b	c3		 ret	 0
??$_Allocate@$07U_Default_allocate_traits@std@@$0A@@std@@YAPAXI@Z ENDP ; std::_Allocate<8,std::_Default_allocate_traits,0>
_TEXT	ENDS
; Function compile flags: /Odspy
; File C:\Program Files (x86)\Microsoft Visual Studio\2019\Community\VC\Tools\MSVC\14.28.29333\include\xmemory
;	COMDAT ??$_Deallocate@$07$0A@@std@@YAXPAXI@Z
_TEXT	SEGMENT
__$EHRec$ = -12						; size = 12
__Ptr$ = 8						; size = 4
__Bytes$ = 12						; size = 4
??$_Deallocate@$07$0A@@std@@YAXPAXI@Z PROC		; std::_Deallocate<8,0>, COMDAT

; 213  : void _Deallocate(void* _Ptr, size_t _Bytes) noexcept {

  00000	55		 push	 ebp
  00001	8b ec		 mov	 ebp, esp
  00003	6a ff		 push	 -1
  00005	68 00 00 00 00	 push	 __ehhandler$??$_Deallocate@$07$0A@@std@@YAXPAXI@Z
  0000a	64 a1 00 00 00
	00		 mov	 eax, DWORD PTR fs:0
  00010	50		 push	 eax
  00011	a1 00 00 00 00	 mov	 eax, DWORD PTR ___security_cookie
  00016	33 c5		 xor	 eax, ebp
  00018	50		 push	 eax
  00019	8d 45 f4	 lea	 eax, DWORD PTR __$EHRec$[ebp]
  0001c	64 a3 00 00 00
	00		 mov	 DWORD PTR fs:0, eax

; 214  :     // deallocate storage allocated by _Allocate when !_HAS_ALIGNED_NEW || _Align <= __STDCPP_DEFAULT_NEW_ALIGNMENT__
; 215  : #if defined(_M_IX86) || defined(_M_X64)
; 216  :     if (_Bytes >= _Big_allocation_threshold) { // boost the alignment of big allocations to help autovectorization

  00022	81 7d 0c 00 10
	00 00		 cmp	 DWORD PTR __Bytes$[ebp], 4096 ; 00001000H
  00029	72 0f		 jb	 SHORT $LN2@Deallocate

; 217  :         _Adjust_manually_vector_aligned(_Ptr, _Bytes);

  0002b	8d 45 0c	 lea	 eax, DWORD PTR __Bytes$[ebp]
  0002e	50		 push	 eax
  0002f	8d 45 08	 lea	 eax, DWORD PTR __Ptr$[ebp]
  00032	50		 push	 eax
  00033	e8 00 00 00 00	 call	 ?_Adjust_manually_vector_aligned@std@@YAXAAPAXAAI@Z ; std::_Adjust_manually_vector_aligned
  00038	59		 pop	 ecx
  00039	59		 pop	 ecx
$LN2@Deallocate:

; 218  :     }
; 219  : #endif // defined(_M_IX86) || defined(_M_X64)
; 220  : 
; 221  :     ::operator delete(_Ptr, _Bytes);

  0003a	ff 75 0c	 push	 DWORD PTR __Bytes$[ebp]
  0003d	ff 75 08	 push	 DWORD PTR __Ptr$[ebp]
  00040	e8 00 00 00 00	 call	 ??3@YAXPAXI@Z		; operator delete
  00045	59		 pop	 ecx
  00046	59		 pop	 ecx

; 222  : }

  00047	8b 4d f4	 mov	 ecx, DWORD PTR __$EHRec$[ebp]
  0004a	64 89 0d 00 00
	00 00		 mov	 DWORD PTR fs:0, ecx
  00051	59		 pop	 ecx
  00052	c9		 leave
  00053	c3		 ret	 0
  00054	cc		 int	 3
  00055	cc		 int	 3
  00056	cc		 int	 3
  00057	cc		 int	 3
  00058	cc		 int	 3
_TEXT	ENDS
;	COMDAT text$x
text$x	SEGMENT
__ehhandler$??$_Deallocate@$07$0A@@std@@YAXPAXI@Z:
  00000	90		 npad	 1
  00001	90		 npad	 1
  00002	8b 54 24 08	 mov	 edx, DWORD PTR [esp+8]
  00006	8d 42 0c	 lea	 eax, DWORD PTR [edx+12]
  00009	8b 4a fc	 mov	 ecx, DWORD PTR [edx-4]
  0000c	33 c8		 xor	 ecx, eax
  0000e	e8 00 00 00 00	 call	 @__security_check_cookie@4
  00013	b8 00 00 00 00	 mov	 eax, OFFSET __ehfuncinfo$??$_Deallocate@$07$0A@@std@@YAXPAXI@Z
  00018	e9 00 00 00 00	 jmp	 ___CxxFrameHandler3
text$x	ENDS
??$_Deallocate@$07$0A@@std@@YAXPAXI@Z ENDP		; std::_Deallocate<8,0>
; Function compile flags: /Odspy
; File C:\Program Files (x86)\Microsoft Visual Studio\2019\Community\VC\Tools\MSVC\14.28.29333\include\xmemory
; File C:\Program Files (x86)\Microsoft Visual Studio\2019\Community\VC\Tools\MSVC\14.28.29333\include\xstddef
; File C:\Program Files (x86)\Microsoft Visual Studio\2019\Community\VC\Tools\MSVC\14.28.29333\include\vcruntime_new.h
; File C:\Program Files (x86)\Microsoft Visual Studio\2019\Community\VC\Tools\MSVC\14.28.29333\include\type_traits
; File C:\Program Files (x86)\Microsoft Visual Studio\2019\Community\VC\Tools\MSVC\14.28.29333\include\xmemory
;	COMDAT ??$_Construct_in_place@PADABQAD@std@@YAXAAPADABQAD@Z
_TEXT	SEGMENT
$T1 = -12						; size = 4
$T2 = -8						; size = 4
$T3 = -4						; size = 4
__Obj$ = 8						; size = 4
_<_Args_0>$ = 12					; size = 4
??$_Construct_in_place@PADABQAD@std@@YAXAAPADABQAD@Z PROC ; std::_Construct_in_place<char *,char * const &>, COMDAT

; 228  : void _Construct_in_place(_Ty& _Obj, _Types&&... _Args) noexcept(is_nothrow_constructible_v<_Ty, _Types...>) {

  00000	55		 push	 ebp
  00001	8b ec		 mov	 ebp, esp
  00003	83 ec 0c	 sub	 esp, 12			; 0000000cH
; File C:\Program Files (x86)\Microsoft Visual Studio\2019\Community\VC\Tools\MSVC\14.28.29333\include\xstddef

; 275  :     return __builtin_addressof(_Val);

  00006	8b 45 08	 mov	 eax, DWORD PTR __Obj$[ebp]
  00009	89 45 fc	 mov	 DWORD PTR $T3[ebp], eax
; File C:\Program Files (x86)\Microsoft Visual Studio\2019\Community\VC\Tools\MSVC\14.28.29333\include\vcruntime_new.h

; 169  :         return _Where;

  0000c	8b 45 fc	 mov	 eax, DWORD PTR $T3[ebp]
  0000f	89 45 f8	 mov	 DWORD PTR $T2[ebp], eax
; File C:\Program Files (x86)\Microsoft Visual Studio\2019\Community\VC\Tools\MSVC\14.28.29333\include\type_traits

; 1443 :     return static_cast<_Ty&&>(_Arg);

  00012	8b 45 0c	 mov	 eax, DWORD PTR _<_Args_0>$[ebp]
  00015	89 45 f4	 mov	 DWORD PTR $T1[ebp], eax
; File C:\Program Files (x86)\Microsoft Visual Studio\2019\Community\VC\Tools\MSVC\14.28.29333\include\xmemory

; 229  :     ::new (const_cast<void*>(static_cast<const volatile void*>(_STD addressof(_Obj))))

  00018	8b 45 f8	 mov	 eax, DWORD PTR $T2[ebp]
  0001b	8b 4d f4	 mov	 ecx, DWORD PTR $T1[ebp]
  0001e	8b 09		 mov	 ecx, DWORD PTR [ecx]
  00020	89 08		 mov	 DWORD PTR [eax], ecx

; 230  :         _Ty(_STD forward<_Types>(_Args)...);
; 231  : }

  00022	c9		 leave
  00023	c3		 ret	 0
??$_Construct_in_place@PADABQAD@std@@YAXAAPADABQAD@Z ENDP ; std::_Construct_in_place<char *,char * const &>
_TEXT	ENDS
; Function compile flags: /Odspy
; File C:\Program Files (x86)\Microsoft Visual Studio\2019\Community\VC\Tools\MSVC\14.28.29333\include\xstring
; File C:\Program Files (x86)\Microsoft Visual Studio\2019\Community\VC\Tools\MSVC\14.28.29333\include\xmemory
; File C:\Program Files (x86)\Microsoft Visual Studio\2019\Community\VC\Tools\MSVC\14.28.29333\include\xstring
; File C:\Program Files (x86)\Microsoft Visual Studio\2019\Community\VC\Tools\MSVC\14.28.29333\include\xmemory
; File C:\Program Files (x86)\Microsoft Visual Studio\2019\Community\VC\Tools\MSVC\14.28.29333\include\xstring
; File C:\Program Files (x86)\Microsoft Visual Studio\2019\Community\VC\Tools\MSVC\14.28.29333\include\xmemory
; File C:\Program Files (x86)\Microsoft Visual Studio\2019\Community\VC\Tools\MSVC\14.28.29333\include\xstring
; File C:\Program Files (x86)\Microsoft Visual Studio\2019\Community\VC\Tools\MSVC\14.28.29333\include\xstddef
; File C:\Program Files (x86)\Microsoft Visual Studio\2019\Community\VC\Tools\MSVC\14.28.29333\include\xstring
; File C:\Program Files (x86)\Microsoft Visual Studio\2019\Community\VC\Tools\MSVC\14.28.29333\include\xmemory
; File C:\Program Files (x86)\Microsoft Visual Studio\2019\Community\VC\Tools\MSVC\14.28.29333\include\xstring
;	COMDAT ??$_Reallocate_for@V<lambda_9366063389c5f42a00a5088cf24e69de>@@PBD@?$basic_string@DU?$char_traits@D@std@@V?$allocator@D@2@@std@@AAEAAV01@IV<lambda_9366063389c5f42a00a5088cf24e69de>@@PBD@Z
_TEXT	SEGMENT
__Al$ = -40						; size = 4
__Ptr$ = -36						; size = 4
__Ptr$ = -32						; size = 4
$T1 = -28						; size = 4
__Old_capacity$ = -24					; size = 4
$T2 = -20						; size = 4
__New_capacity$ = -16					; size = 4
__New_ptr$ = -12					; size = 4
_this$ = -8						; size = 4
__Overflow_is_possible$3 = -2				; size = 1
$T4 = -1						; size = 1
__New_size$ = 8						; size = 4
__Fn$ = 12						; size = 1
_<_Args_0>$ = 16					; size = 4
??$_Reallocate_for@V<lambda_9366063389c5f42a00a5088cf24e69de>@@PBD@?$basic_string@DU?$char_traits@D@std@@V?$allocator@D@2@@std@@AAEAAV01@IV<lambda_9366063389c5f42a00a5088cf24e69de>@@PBD@Z PROC ; std::basic_string<char,std::char_traits<char>,std::allocator<char> >::_Reallocate_for<<lambda_9366063389c5f42a00a5088cf24e69de>,char const *>, COMDAT
; _this$ = ecx

; 4302 :     basic_string& _Reallocate_for(const size_type _New_size, _Fty _Fn, _ArgTys... _Args) {

  00000	55		 push	 ebp
  00001	8b ec		 mov	 ebp, esp
  00003	83 ec 28	 sub	 esp, 40			; 00000028H
  00006	89 4d f8	 mov	 DWORD PTR _this$[ebp], ecx

; 4303 :         // reallocate to store exactly _New_size elements, new buffer prepared by
; 4304 :         // _Fn(_New_ptr, _New_size, _Args...)
; 4305 :         if (_New_size > max_size()) {

  00009	8b 4d f8	 mov	 ecx, DWORD PTR _this$[ebp]
  0000c	e8 00 00 00 00	 call	 ?max_size@?$basic_string@DU?$char_traits@D@std@@V?$allocator@D@2@@std@@QBEIXZ ; std::basic_string<char,std::char_traits<char>,std::allocator<char> >::max_size
  00011	39 45 08	 cmp	 DWORD PTR __New_size$[ebp], eax
  00014	76 05		 jbe	 SHORT $LN2@Reallocate

; 4306 :             _Xlen_string(); // result too long

  00016	e8 00 00 00 00	 call	 ?_Xlen_string@std@@YAXXZ ; std::_Xlen_string
$LN2@Reallocate:

; 4307 :         }
; 4308 : 
; 4309 :         const size_type _Old_capacity = _Mypair._Myval2._Myres;

  0001b	8b 45 f8	 mov	 eax, DWORD PTR _this$[ebp]
  0001e	8b 40 14	 mov	 eax, DWORD PTR [eax+20]
  00021	89 45 e8	 mov	 DWORD PTR __Old_capacity$[ebp], eax

; 4310 :         const size_type _New_capacity = _Calculate_growth(_New_size);

  00024	ff 75 08	 push	 DWORD PTR __New_size$[ebp]
  00027	8b 4d f8	 mov	 ecx, DWORD PTR _this$[ebp]
  0002a	e8 00 00 00 00	 call	 ?_Calculate_growth@?$basic_string@DU?$char_traits@D@std@@V?$allocator@D@2@@std@@ABEII@Z ; std::basic_string<char,std::char_traits<char>,std::allocator<char> >::_Calculate_growth
  0002f	89 45 f0	 mov	 DWORD PTR __New_capacity$[ebp], eax

; 4409 :         return _Mypair._Get_first();

  00032	8b 45 f8	 mov	 eax, DWORD PTR _this$[ebp]
; File C:\Program Files (x86)\Microsoft Visual Studio\2019\Community\VC\Tools\MSVC\14.28.29333\include\xmemory

; 1347 :         return *this;

  00035	89 45 e4	 mov	 DWORD PTR $T1[ebp], eax
; File C:\Program Files (x86)\Microsoft Visual Studio\2019\Community\VC\Tools\MSVC\14.28.29333\include\xstring

; 4409 :         return _Mypair._Get_first();

  00038	8b 45 e4	 mov	 eax, DWORD PTR $T1[ebp]
  0003b	89 45 d8	 mov	 DWORD PTR __Al$[ebp], eax
; File C:\Program Files (x86)\Microsoft Visual Studio\2019\Community\VC\Tools\MSVC\14.28.29333\include\xmemory

; 56   :     constexpr bool _Overflow_is_possible = _Ty_size > 1;

  0003e	c6 45 fe 00	 mov	 BYTE PTR __Overflow_is_possible$3[ebp], 0
; File C:\Program Files (x86)\Microsoft Visual Studio\2019\Community\VC\Tools\MSVC\14.28.29333\include\xstring

; 4312 :         const pointer _New_ptr        = _Al.allocate(_New_capacity + 1); // throws

  00042	8b 45 f0	 mov	 eax, DWORD PTR __New_capacity$[ebp]
  00045	40		 inc	 eax
; File C:\Program Files (x86)\Microsoft Visual Studio\2019\Community\VC\Tools\MSVC\14.28.29333\include\xmemory

; 814  :         return static_cast<_Ty*>(_Allocate<_New_alignof<_Ty>>(_Get_size_of_n<sizeof(_Ty)>(_Count)));

  00046	50		 push	 eax
  00047	e8 00 00 00 00	 call	 ??$_Allocate@$07U_Default_allocate_traits@std@@$0A@@std@@YAPAXI@Z ; std::_Allocate<8,std::_Default_allocate_traits,0>
  0004c	59		 pop	 ecx
; File C:\Program Files (x86)\Microsoft Visual Studio\2019\Community\VC\Tools\MSVC\14.28.29333\include\xstring

; 4312 :         const pointer _New_ptr        = _Al.allocate(_New_capacity + 1); // throws

  0004d	89 45 f4	 mov	 DWORD PTR __New_ptr$[ebp], eax

; 4313 :         _Mypair._Myval2._Orphan_all();
; 4314 :         _Mypair._Myval2._Mysize = _New_size;

  00050	8b 45 f8	 mov	 eax, DWORD PTR _this$[ebp]
  00053	8b 4d 08	 mov	 ecx, DWORD PTR __New_size$[ebp]
  00056	89 48 10	 mov	 DWORD PTR [eax+16], ecx

; 4315 :         _Mypair._Myval2._Myres  = _New_capacity;

  00059	8b 45 f8	 mov	 eax, DWORD PTR _this$[ebp]
  0005c	8b 4d f0	 mov	 ecx, DWORD PTR __New_capacity$[ebp]
  0005f	89 48 14	 mov	 DWORD PTR [eax+20], ecx

; 4316 :         _Fn(_Unfancy(_New_ptr), _New_size, _Args...);

  00062	8b 45 f4	 mov	 eax, DWORD PTR __New_ptr$[ebp]
  00065	89 45 e0	 mov	 DWORD PTR __Ptr$[ebp], eax
; File C:\Program Files (x86)\Microsoft Visual Studio\2019\Community\VC\Tools\MSVC\14.28.29333\include\xstddef

; 289  :     return _Ptr;

  00068	8b 45 e0	 mov	 eax, DWORD PTR __Ptr$[ebp]
  0006b	89 45 ec	 mov	 DWORD PTR $T2[ebp], eax
; File C:\Program Files (x86)\Microsoft Visual Studio\2019\Community\VC\Tools\MSVC\14.28.29333\include\xstring

; 62   :         _CSTD memcpy(_First1, _First2, _Count * sizeof(_Elem));

  0006e	ff 75 08	 push	 DWORD PTR __New_size$[ebp]
  00071	ff 75 10	 push	 DWORD PTR _<_Args_0>$[ebp]
  00074	ff 75 ec	 push	 DWORD PTR $T2[ebp]
  00077	e8 00 00 00 00	 call	 _memcpy
  0007c	83 c4 0c	 add	 esp, 12			; 0000000cH

; 3056 :                 _Traits::assign(_New_ptr[_Count], _Elem());

  0007f	c6 45 ff 00	 mov	 BYTE PTR $T4[ebp], 0

; 428  :         _Left = _Right;

  00083	8b 45 ec	 mov	 eax, DWORD PTR $T2[ebp]
  00086	03 45 08	 add	 eax, DWORD PTR __New_size$[ebp]
  00089	8a 4d ff	 mov	 cl, BYTE PTR $T4[ebp]
  0008c	88 08		 mov	 BYTE PTR [eax], cl

; 4317 :         if (_BUF_SIZE <= _Old_capacity) {

  0008e	83 7d e8 10	 cmp	 DWORD PTR __Old_capacity$[ebp], 16 ; 00000010H
  00092	72 21		 jb	 SHORT $LN3@Reallocate

; 4318 :             _Al.deallocate(_Mypair._Myval2._Bx._Ptr, _Old_capacity + 1);

  00094	8b 45 f8	 mov	 eax, DWORD PTR _this$[ebp]
  00097	8b 00		 mov	 eax, DWORD PTR [eax]
  00099	89 45 dc	 mov	 DWORD PTR __Ptr$[ebp], eax
  0009c	8b 45 e8	 mov	 eax, DWORD PTR __Old_capacity$[ebp]
  0009f	40		 inc	 eax
; File C:\Program Files (x86)\Microsoft Visual Studio\2019\Community\VC\Tools\MSVC\14.28.29333\include\xmemory

; 810  :         _Deallocate<_New_alignof<_Ty>>(_Ptr, sizeof(_Ty) * _Count);

  000a0	50		 push	 eax
  000a1	ff 75 dc	 push	 DWORD PTR __Ptr$[ebp]
  000a4	e8 00 00 00 00	 call	 ??$_Deallocate@$07$0A@@std@@YAXPAXI@Z ; std::_Deallocate<8,0>
  000a9	59		 pop	 ecx
  000aa	59		 pop	 ecx
; File C:\Program Files (x86)\Microsoft Visual Studio\2019\Community\VC\Tools\MSVC\14.28.29333\include\xstring

; 4319 :             _Mypair._Myval2._Bx._Ptr = _New_ptr;

  000ab	8b 45 f8	 mov	 eax, DWORD PTR _this$[ebp]
  000ae	8b 4d f4	 mov	 ecx, DWORD PTR __New_ptr$[ebp]
  000b1	89 08		 mov	 DWORD PTR [eax], ecx

; 4320 :         } else {

  000b3	eb 0e		 jmp	 SHORT $LN4@Reallocate
$LN3@Reallocate:

; 4321 :             _Construct_in_place(_Mypair._Myval2._Bx._Ptr, _New_ptr);

  000b5	8d 45 f4	 lea	 eax, DWORD PTR __New_ptr$[ebp]
  000b8	50		 push	 eax
  000b9	ff 75 f8	 push	 DWORD PTR _this$[ebp]
  000bc	e8 00 00 00 00	 call	 ??$_Construct_in_place@PADABQAD@std@@YAXAAPADABQAD@Z ; std::_Construct_in_place<char *,char * const &>
  000c1	59		 pop	 ecx
  000c2	59		 pop	 ecx
$LN4@Reallocate:

; 4322 :         }
; 4323 : 
; 4324 :         return *this;

  000c3	8b 45 f8	 mov	 eax, DWORD PTR _this$[ebp]
$LN5@Reallocate:

; 4325 :     }

  000c6	c9		 leave
  000c7	c2 0c 00	 ret	 12			; 0000000cH
??$_Reallocate_for@V<lambda_9366063389c5f42a00a5088cf24e69de>@@PBD@?$basic_string@DU?$char_traits@D@std@@V?$allocator@D@2@@std@@AAEAAV01@IV<lambda_9366063389c5f42a00a5088cf24e69de>@@PBD@Z ENDP ; std::basic_string<char,std::char_traits<char>,std::allocator<char> >::_Reallocate_for<<lambda_9366063389c5f42a00a5088cf24e69de>,char const *>
_TEXT	ENDS
; Function compile flags: /Odspy
; File C:\Program Files (x86)\Microsoft Visual Studio\2019\Community\VC\Tools\MSVC\14.28.29333\include\xmemory
;	COMDAT ??$_Destroy_in_place@PAD@std@@YAXAAPAD@Z
_TEXT	SEGMENT
__Obj$ = 8						; size = 4
??$_Destroy_in_place@PAD@std@@YAXAAPAD@Z PROC		; std::_Destroy_in_place<char *>, COMDAT

; 270  : /* _CONSTEXPR20_DYNALLOC */ void _Destroy_in_place(_Ty& _Obj) noexcept {

  00000	55		 push	 ebp
  00001	8b ec		 mov	 ebp, esp

; 271  : #if _HAS_IF_CONSTEXPR
; 272  :     if constexpr (is_array_v<_Ty>) {
; 273  :         _Destroy_range(_Obj, _Obj + extent_v<_Ty>);
; 274  :     } else
; 275  : #endif // _HAS_IF_CONSTEXPR
; 276  :     {
; 277  :         _Obj.~_Ty();
; 278  :     }
; 279  : }

  00003	5d		 pop	 ebp
  00004	c3		 ret	 0
??$_Destroy_in_place@PAD@std@@YAXAAPAD@Z ENDP		; std::_Destroy_in_place<char *>
_TEXT	ENDS
; Function compile flags: /Odspy
; File D:\Metin2 Server Files\mainline\SRC_2014\Metin2Client\UserInterface\PythonChatModule.cpp
;	COMDAT ?initChat@@YAXXZ
_TEXT	SEGMENT
_poModule$ = -4						; size = 4
?initChat@@YAXXZ PROC					; initChat, COMDAT

; 452  : {

  00000	55		 push	 ebp
  00001	8b ec		 mov	 ebp, esp
  00003	51		 push	 ecx

; 453  : 	static PyMethodDef s_methods[] = 
; 454  : 	{
; 455  : 		{ "SetChatColor",			chatSetChatColor,			METH_VARARGS },
; 456  : 		{ "Clear",					chatClear,					METH_VARARGS },
; 457  : 		{ "Close",					chatClose,					METH_VARARGS },
; 458  : 
; 459  : 		{ "CreateChatSet",			chatCreateChatSet,			METH_VARARGS },
; 460  : 		{ "Update",					chatUpdate,					METH_VARARGS },
; 461  : 		{ "Render",					chatRender,					METH_VARARGS },
; 462  : 
; 463  : 		{ "SetBoardState",			chatSetBoardState,			METH_VARARGS },
; 464  : 		{ "SetPosition",			chatSetPosition,			METH_VARARGS },
; 465  : 		{ "SetHeight",				chatSetHeight,				METH_VARARGS },
; 466  : 		{ "SetStep",				chatSetStep,				METH_VARARGS },
; 467  : 		{ "ToggleChatMode",			chatToggleChatMode,			METH_VARARGS },
; 468  : 		{ "EnableChatMode",			chatEnableChatMode,			METH_VARARGS },
; 469  : 		{ "DisableChatMode",		chatDisableChatMode,		METH_VARARGS },
; 470  : 		{ "SetEndPos",				chatSetEndPos,				METH_VARARGS },
; 471  : 
; 472  : 		{ "GetLineCount",			chatGetLineCount,			METH_VARARGS },
; 473  : 		{ "GetVisibleLineCount",	chatGetVisibleLineCount,	METH_VARARGS },
; 474  : 		{ "GetLineStep",			chatGetLineStep,			METH_VARARGS },
; 475  : 
; 476  : 		// Chat
; 477  : 		{ "AppendChat",				chatAppendChat,				METH_VARARGS },
; 478  : 		{ "AppendChatWithDelay",	chatAppendChatWithDelay,	METH_VARARGS },
; 479  : 		{ "ArrangeShowingChat",		chatArrangeShowingChat,		METH_VARARGS },
; 480  : 
; 481  : 		// Ignore
; 482  : 		{ "IgnoreCharacter",		chatIgnoreCharacter,		METH_VARARGS },
; 483  : 		{ "IsIgnoreCharacter",		chatIsIgnoreCharacter,		METH_VARARGS },
; 484  : 
; 485  : 		// Whisper
; 486  : 		{ "CreateWhisper",			chatCreateWhisper,			METH_VARARGS },
; 487  : 		{ "AppendWhisper",			chatAppendWhisper,			METH_VARARGS },
; 488  : 		{ "RenderWhisper",			chatRenderWhisper,			METH_VARARGS },
; 489  : 		{ "SetWhisperBoxSize",		chatSetWhisperBoxSize,		METH_VARARGS },
; 490  : 		{ "SetWhisperPosition",		chatSetWhisperPosition,		METH_VARARGS },
; 491  : 		{ "ClearWhisper",			chatClearWhisper,			METH_VARARGS },
; 492  : 		{ "InitWhisper",			chatInitWhisper,			METH_VARARGS },
; 493  : 
; 494  : 		// Link
; 495  : 		{ "GetLinkFromHyperlink",	chatGetLinkFromHyperlink,	METH_VARARGS },
; 496  : 
; 497  : 		{ NULL,						NULL,						NULL },
; 498  : 	};
; 499  : 
; 500  : 	PyObject * poModule = Py_InitModule("chat", s_methods);

  00004	68 f5 03 00 00	 push	 1013			; 000003f5H
  00009	6a 00		 push	 0
  0000b	6a 00		 push	 0
  0000d	68 00 00 00 00	 push	 OFFSET ?s_methods@?1??initChat@@YAXXZ@4PAUPyMethodDef@@A
  00012	68 00 00 00 00	 push	 OFFSET ??_C@_04BLJLMHHG@chat@
  00017	ff 15 00 00 00
	00		 call	 DWORD PTR __imp__Py_InitModule4
  0001d	83 c4 14	 add	 esp, 20			; 00000014H
  00020	89 45 fc	 mov	 DWORD PTR _poModule$[ebp], eax

; 501  : 
; 502  : 	PyModule_AddIntConstant(poModule, "CHAT_TYPE_TALKING",		CHAT_TYPE_TALKING);

  00023	6a 00		 push	 0
  00025	68 00 00 00 00	 push	 OFFSET ??_C@_0BC@EHLMCJH@CHAT_TYPE_TALKING@
  0002a	ff 75 fc	 push	 DWORD PTR _poModule$[ebp]
  0002d	ff 15 00 00 00
	00		 call	 DWORD PTR __imp__PyModule_AddIntConstant
  00033	83 c4 0c	 add	 esp, 12			; 0000000cH

; 503  : 	PyModule_AddIntConstant(poModule, "CHAT_TYPE_INFO",			CHAT_TYPE_INFO);

  00036	6a 01		 push	 1
  00038	68 00 00 00 00	 push	 OFFSET ??_C@_0P@MIHHHBMP@CHAT_TYPE_INFO@
  0003d	ff 75 fc	 push	 DWORD PTR _poModule$[ebp]
  00040	ff 15 00 00 00
	00		 call	 DWORD PTR __imp__PyModule_AddIntConstant
  00046	83 c4 0c	 add	 esp, 12			; 0000000cH

; 504  : 	PyModule_AddIntConstant(poModule, "CHAT_TYPE_NOTICE",		CHAT_TYPE_NOTICE);

  00049	6a 02		 push	 2
  0004b	68 00 00 00 00	 push	 OFFSET ??_C@_0BB@KFACLMJA@CHAT_TYPE_NOTICE@
  00050	ff 75 fc	 push	 DWORD PTR _poModule$[ebp]
  00053	ff 15 00 00 00
	00		 call	 DWORD PTR __imp__PyModule_AddIntConstant
  00059	83 c4 0c	 add	 esp, 12			; 0000000cH

; 505  : 	PyModule_AddIntConstant(poModule, "CHAT_TYPE_PARTY",		CHAT_TYPE_PARTY);

  0005c	6a 03		 push	 3
  0005e	68 00 00 00 00	 push	 OFFSET ??_C@_0BA@JOLAGJG@CHAT_TYPE_PARTY@
  00063	ff 75 fc	 push	 DWORD PTR _poModule$[ebp]
  00066	ff 15 00 00 00
	00		 call	 DWORD PTR __imp__PyModule_AddIntConstant
  0006c	83 c4 0c	 add	 esp, 12			; 0000000cH

; 506  : 	PyModule_AddIntConstant(poModule, "CHAT_TYPE_GUILD",		CHAT_TYPE_GUILD);

  0006f	6a 04		 push	 4
  00071	68 00 00 00 00	 push	 OFFSET ??_C@_0BA@OIBJELLN@CHAT_TYPE_GUILD@
  00076	ff 75 fc	 push	 DWORD PTR _poModule$[ebp]
  00079	ff 15 00 00 00
	00		 call	 DWORD PTR __imp__PyModule_AddIntConstant
  0007f	83 c4 0c	 add	 esp, 12			; 0000000cH

; 507  : 	PyModule_AddIntConstant(poModule, "CHAT_TYPE_COMMAND",		CHAT_TYPE_COMMAND);

  00082	6a 05		 push	 5
  00084	68 00 00 00 00	 push	 OFFSET ??_C@_0BC@IILPNMNB@CHAT_TYPE_COMMAND@
  00089	ff 75 fc	 push	 DWORD PTR _poModule$[ebp]
  0008c	ff 15 00 00 00
	00		 call	 DWORD PTR __imp__PyModule_AddIntConstant
  00092	83 c4 0c	 add	 esp, 12			; 0000000cH

; 508  : 	PyModule_AddIntConstant(poModule, "CHAT_TYPE_SHOUT",		CHAT_TYPE_SHOUT);

  00095	6a 06		 push	 6
  00097	68 00 00 00 00	 push	 OFFSET ??_C@_0BA@JEHAINHB@CHAT_TYPE_SHOUT@
  0009c	ff 75 fc	 push	 DWORD PTR _poModule$[ebp]
  0009f	ff 15 00 00 00
	00		 call	 DWORD PTR __imp__PyModule_AddIntConstant
  000a5	83 c4 0c	 add	 esp, 12			; 0000000cH

; 509  : 	PyModule_AddIntConstant(poModule, "CHAT_TYPE_WHISPER",		CHAT_TYPE_WHISPER);

  000a8	6a 07		 push	 7
  000aa	68 00 00 00 00	 push	 OFFSET ??_C@_0BC@JMANMLH@CHAT_TYPE_WHISPER@
  000af	ff 75 fc	 push	 DWORD PTR _poModule$[ebp]
  000b2	ff 15 00 00 00
	00		 call	 DWORD PTR __imp__PyModule_AddIntConstant
  000b8	83 c4 0c	 add	 esp, 12			; 0000000cH

; 510  : 	PyModule_AddIntConstant(poModule, "WHISPER_TYPE_CHAT",		CPythonChat::WHISPER_TYPE_CHAT);

  000bb	6a 00		 push	 0
  000bd	68 00 00 00 00	 push	 OFFSET ??_C@_0BC@LIEDKBDG@WHISPER_TYPE_CHAT@
  000c2	ff 75 fc	 push	 DWORD PTR _poModule$[ebp]
  000c5	ff 15 00 00 00
	00		 call	 DWORD PTR __imp__PyModule_AddIntConstant
  000cb	83 c4 0c	 add	 esp, 12			; 0000000cH

; 511  : 	PyModule_AddIntConstant(poModule, "WHISPER_TYPE_SYSTEM",	CPythonChat::WHISPER_TYPE_SYSTEM);

  000ce	68 ff 00 00 00	 push	 255			; 000000ffH
  000d3	68 00 00 00 00	 push	 OFFSET ??_C@_0BE@KODPENDJ@WHISPER_TYPE_SYSTEM@
  000d8	ff 75 fc	 push	 DWORD PTR _poModule$[ebp]
  000db	ff 15 00 00 00
	00		 call	 DWORD PTR __imp__PyModule_AddIntConstant
  000e1	83 c4 0c	 add	 esp, 12			; 0000000cH

; 512  : 	PyModule_AddIntConstant(poModule, "WHISPER_TYPE_GM",		CPythonChat::WHISPER_TYPE_GM);

  000e4	6a 05		 push	 5
  000e6	68 00 00 00 00	 push	 OFFSET ??_C@_0BA@KLIHGMFD@WHISPER_TYPE_GM@
  000eb	ff 75 fc	 push	 DWORD PTR _poModule$[ebp]
  000ee	ff 15 00 00 00
	00		 call	 DWORD PTR __imp__PyModule_AddIntConstant
  000f4	83 c4 0c	 add	 esp, 12			; 0000000cH

; 513  : 
; 514  : 	PyModule_AddIntConstant(poModule, "BOARD_STATE_VIEW",		CPythonChat::BOARD_STATE_VIEW);

  000f7	6a 00		 push	 0
  000f9	68 00 00 00 00	 push	 OFFSET ??_C@_0BB@OJGJMFKD@BOARD_STATE_VIEW@
  000fe	ff 75 fc	 push	 DWORD PTR _poModule$[ebp]
  00101	ff 15 00 00 00
	00		 call	 DWORD PTR __imp__PyModule_AddIntConstant
  00107	83 c4 0c	 add	 esp, 12			; 0000000cH

; 515  : 	PyModule_AddIntConstant(poModule, "BOARD_STATE_EDIT",		CPythonChat::BOARD_STATE_EDIT);

  0010a	6a 01		 push	 1
  0010c	68 00 00 00 00	 push	 OFFSET ??_C@_0BB@BOHEFKIL@BOARD_STATE_EDIT@
  00111	ff 75 fc	 push	 DWORD PTR _poModule$[ebp]
  00114	ff 15 00 00 00
	00		 call	 DWORD PTR __imp__PyModule_AddIntConstant
  0011a	83 c4 0c	 add	 esp, 12			; 0000000cH

; 516  : 	PyModule_AddIntConstant(poModule, "BOARD_STATE_LOG",		CPythonChat::BOARD_STATE_LOG);

  0011d	6a 02		 push	 2
  0011f	68 00 00 00 00	 push	 OFFSET ??_C@_0BA@PGHAPLJK@BOARD_STATE_LOG@
  00124	ff 75 fc	 push	 DWORD PTR _poModule$[ebp]
  00127	ff 15 00 00 00
	00		 call	 DWORD PTR __imp__PyModule_AddIntConstant
  0012d	83 c4 0c	 add	 esp, 12			; 0000000cH

; 517  : 
; 518  : 	PyModule_AddIntConstant(poModule, "CHAT_SET_CHAT_WINDOW",	0);

  00130	6a 00		 push	 0
  00132	68 00 00 00 00	 push	 OFFSET ??_C@_0BF@FCHEGAKH@CHAT_SET_CHAT_WINDOW@
  00137	ff 75 fc	 push	 DWORD PTR _poModule$[ebp]
  0013a	ff 15 00 00 00
	00		 call	 DWORD PTR __imp__PyModule_AddIntConstant
  00140	83 c4 0c	 add	 esp, 12			; 0000000cH

; 519  : 	PyModule_AddIntConstant(poModule, "CHAT_SET_LOG_WINDOW",	1);

  00143	6a 01		 push	 1
  00145	68 00 00 00 00	 push	 OFFSET ??_C@_0BE@OPDJLJMH@CHAT_SET_LOG_WINDOW@
  0014a	ff 75 fc	 push	 DWORD PTR _poModule$[ebp]
  0014d	ff 15 00 00 00
	00		 call	 DWORD PTR __imp__PyModule_AddIntConstant
  00153	83 c4 0c	 add	 esp, 12			; 0000000cH

; 520  : }

  00156	c9		 leave
  00157	c3		 ret	 0
?initChat@@YAXXZ ENDP					; initChat
_TEXT	ENDS
; Function compile flags: /Odspy
; File C:\Program Files (x86)\Microsoft Visual Studio\2019\Community\VC\Tools\MSVC\14.28.29333\include\vector
;	COMDAT ??0?$_Vector_val@U?$_Simple_types@V?$basic_string@DU?$char_traits@D@std@@V?$allocator@D@2@@std@@@std@@@std@@QAE@XZ
_TEXT	SEGMENT
_this$ = -4						; size = 4
??0?$_Vector_val@U?$_Simple_types@V?$basic_string@DU?$char_traits@D@std@@V?$allocator@D@2@@std@@@std@@@std@@QAE@XZ PROC ; std::_Vector_val<std::_Simple_types<std::basic_string<char,std::char_traits<char>,std::allocator<char> > > >::_Vector_val<std::_Simple_types<std::basic_string<char,std::char_traits<char>,std::allocator<char> > > >, COMDAT
; _this$ = ecx

; 375  :     _Vector_val() noexcept : _Myfirst(), _Mylast(), _Myend() {}

  00000	55		 push	 ebp
  00001	8b ec		 mov	 ebp, esp
  00003	51		 push	 ecx
  00004	89 4d fc	 mov	 DWORD PTR _this$[ebp], ecx
  00007	8b 45 fc	 mov	 eax, DWORD PTR _this$[ebp]
  0000a	83 20 00	 and	 DWORD PTR [eax], 0
  0000d	8b 45 fc	 mov	 eax, DWORD PTR _this$[ebp]
  00010	83 60 04 00	 and	 DWORD PTR [eax+4], 0
  00014	8b 45 fc	 mov	 eax, DWORD PTR _this$[ebp]
  00017	83 60 08 00	 and	 DWORD PTR [eax+8], 0
  0001b	8b 45 fc	 mov	 eax, DWORD PTR _this$[ebp]
  0001e	c9		 leave
  0001f	c3		 ret	 0
??0?$_Vector_val@U?$_Simple_types@V?$basic_string@DU?$char_traits@D@std@@V?$allocator@D@2@@std@@@std@@@std@@QAE@XZ ENDP ; std::_Vector_val<std::_Simple_types<std::basic_string<char,std::char_traits<char>,std::allocator<char> > > >::_Vector_val<std::_Simple_types<std::basic_string<char,std::char_traits<char>,std::allocator<char> > > >
_TEXT	ENDS
; Function compile flags: /Odspy
; File C:\Program Files (x86)\Microsoft Visual Studio\2019\Community\VC\Tools\MSVC\14.28.29333\include\vector
; File C:\Program Files (x86)\Microsoft Visual Studio\2019\Community\VC\Tools\MSVC\14.28.29333\include\xmemory
; File C:\Program Files (x86)\Microsoft Visual Studio\2019\Community\VC\Tools\MSVC\14.28.29333\include\vector
; File C:\Program Files (x86)\Microsoft Visual Studio\2019\Community\VC\Tools\MSVC\14.28.29333\include\xmemory
; File C:\Program Files (x86)\Microsoft Visual Studio\2019\Community\VC\Tools\MSVC\14.28.29333\include\vector
; File C:\Program Files (x86)\Microsoft Visual Studio\2019\Community\VC\Tools\MSVC\14.28.29333\include\xmemory
; File C:\Program Files (x86)\Microsoft Visual Studio\2019\Community\VC\Tools\MSVC\14.28.29333\include\vector
;	COMDAT ?_Tidy@?$vector@V?$basic_string@DU?$char_traits@D@std@@V?$allocator@D@2@@std@@V?$allocator@V?$basic_string@DU?$char_traits@D@std@@V?$allocator@D@2@@std@@@2@@std@@AAEXXZ
_TEXT	SEGMENT
$T1 = -52						; size = 4
__Ptr$ = -48						; size = 4
__Count$ = -44						; size = 4
$T2 = -40						; size = 4
__First$ = -36						; size = 4
__Last$ = -32						; size = 4
$T3 = -28						; size = 4
$T4 = -24						; size = 4
__Myend$ = -20						; size = 4
__Mylast$ = -16						; size = 4
_this$ = -12						; size = 4
__My_data$ = -8						; size = 4
__Myfirst$ = -4						; size = 4
?_Tidy@?$vector@V?$basic_string@DU?$char_traits@D@std@@V?$allocator@D@2@@std@@V?$allocator@V?$basic_string@DU?$char_traits@D@std@@V?$allocator@D@2@@std@@@2@@std@@AAEXXZ PROC ; std::vector<std::basic_string<char,std::char_traits<char>,std::allocator<char> >,std::allocator<std::basic_string<char,std::char_traits<char>,std::allocator<char> > > >::_Tidy, COMDAT
; _this$ = ecx

; 1686 :     void _Tidy() noexcept { // free all storage

  00000	55		 push	 ebp
  00001	8b ec		 mov	 ebp, esp
  00003	83 ec 34	 sub	 esp, 52			; 00000034H
  00006	89 4d f4	 mov	 DWORD PTR _this$[ebp], ecx

; 1687 :         auto& _My_data    = _Mypair._Myval2;

  00009	8b 45 f4	 mov	 eax, DWORD PTR _this$[ebp]
  0000c	89 45 f8	 mov	 DWORD PTR __My_data$[ebp], eax

; 1688 :         pointer& _Myfirst = _My_data._Myfirst;

  0000f	8b 45 f8	 mov	 eax, DWORD PTR __My_data$[ebp]
  00012	89 45 fc	 mov	 DWORD PTR __Myfirst$[ebp], eax

; 1689 :         pointer& _Mylast  = _My_data._Mylast;

  00015	8b 45 f8	 mov	 eax, DWORD PTR __My_data$[ebp]
  00018	83 c0 04	 add	 eax, 4
  0001b	89 45 f0	 mov	 DWORD PTR __Mylast$[ebp], eax

; 1690 :         pointer& _Myend   = _My_data._Myend;

  0001e	8b 45 f8	 mov	 eax, DWORD PTR __My_data$[ebp]
  00021	83 c0 08	 add	 eax, 8
  00024	89 45 ec	 mov	 DWORD PTR __Myend$[ebp], eax

; 1691 : 
; 1692 :         _My_data._Orphan_all();
; 1693 : 
; 1694 :         if (_Myfirst) { // destroy and deallocate old array

  00027	8b 45 fc	 mov	 eax, DWORD PTR __Myfirst$[ebp]
  0002a	83 38 00	 cmp	 DWORD PTR [eax], 0
  0002d	74 75		 je	 SHORT $LN3@Tidy

; 1695 :             _Destroy(_Myfirst, _Mylast);

  0002f	8b 45 f0	 mov	 eax, DWORD PTR __Mylast$[ebp]
  00032	8b 00		 mov	 eax, DWORD PTR [eax]
  00034	89 45 e0	 mov	 DWORD PTR __Last$[ebp], eax
  00037	8b 45 fc	 mov	 eax, DWORD PTR __Myfirst$[ebp]
  0003a	8b 00		 mov	 eax, DWORD PTR [eax]
  0003c	89 45 dc	 mov	 DWORD PTR __First$[ebp], eax

; 1733 :         return _Mypair._Get_first();

  0003f	8b 45 f4	 mov	 eax, DWORD PTR _this$[ebp]
; File C:\Program Files (x86)\Microsoft Visual Studio\2019\Community\VC\Tools\MSVC\14.28.29333\include\xmemory

; 1347 :         return *this;

  00042	89 45 e8	 mov	 DWORD PTR $T4[ebp], eax
; File C:\Program Files (x86)\Microsoft Visual Studio\2019\Community\VC\Tools\MSVC\14.28.29333\include\vector

; 1733 :         return _Mypair._Get_first();

  00045	8b 45 e8	 mov	 eax, DWORD PTR $T4[ebp]
  00048	89 45 e4	 mov	 DWORD PTR $T3[ebp], eax

; 1612 :         _Destroy_range(_First, _Last, _Getal());

  0004b	ff 75 e4	 push	 DWORD PTR $T3[ebp]
  0004e	ff 75 e0	 push	 DWORD PTR __Last$[ebp]
  00051	ff 75 dc	 push	 DWORD PTR __First$[ebp]
  00054	e8 00 00 00 00	 call	 ??$_Destroy_range@V?$allocator@V?$basic_string@DU?$char_traits@D@std@@V?$allocator@D@2@@std@@@std@@@std@@YAXPAV?$basic_string@DU?$char_traits@D@std@@V?$allocator@D@2@@0@QAV10@AAV?$allocator@V?$basic_string@DU?$char_traits@D@std@@V?$allocator@D@2@@std@@@0@@Z ; std::_Destroy_range<std::allocator<std::basic_string<char,std::char_traits<char>,std::allocator<char> > > >
  00059	83 c4 0c	 add	 esp, 12			; 0000000cH

; 1733 :         return _Mypair._Get_first();

  0005c	8b 45 f4	 mov	 eax, DWORD PTR _this$[ebp]
; File C:\Program Files (x86)\Microsoft Visual Studio\2019\Community\VC\Tools\MSVC\14.28.29333\include\xmemory

; 1347 :         return *this;

  0005f	89 45 d8	 mov	 DWORD PTR $T2[ebp], eax
; File C:\Program Files (x86)\Microsoft Visual Studio\2019\Community\VC\Tools\MSVC\14.28.29333\include\vector

; 1733 :         return _Mypair._Get_first();

  00062	8b 45 d8	 mov	 eax, DWORD PTR $T2[ebp]
  00065	89 45 cc	 mov	 DWORD PTR $T1[ebp], eax

; 1696 :             _Getal().deallocate(_Myfirst, static_cast<size_type>(_Myend - _Myfirst));

  00068	8b 45 ec	 mov	 eax, DWORD PTR __Myend$[ebp]
  0006b	8b 4d fc	 mov	 ecx, DWORD PTR __Myfirst$[ebp]
  0006e	8b 00		 mov	 eax, DWORD PTR [eax]
  00070	2b 01		 sub	 eax, DWORD PTR [ecx]
  00072	99		 cdq
  00073	6a 18		 push	 24			; 00000018H
  00075	59		 pop	 ecx
  00076	f7 f9		 idiv	 ecx
  00078	89 45 d4	 mov	 DWORD PTR __Count$[ebp], eax
  0007b	8b 45 fc	 mov	 eax, DWORD PTR __Myfirst$[ebp]
  0007e	8b 00		 mov	 eax, DWORD PTR [eax]
  00080	89 45 d0	 mov	 DWORD PTR __Ptr$[ebp], eax
; File C:\Program Files (x86)\Microsoft Visual Studio\2019\Community\VC\Tools\MSVC\14.28.29333\include\xmemory

; 810  :         _Deallocate<_New_alignof<_Ty>>(_Ptr, sizeof(_Ty) * _Count);

  00083	6b 45 d4 18	 imul	 eax, DWORD PTR __Count$[ebp], 24
  00087	50		 push	 eax
  00088	ff 75 d0	 push	 DWORD PTR __Ptr$[ebp]
  0008b	e8 00 00 00 00	 call	 ??$_Deallocate@$07$0A@@std@@YAXPAXI@Z ; std::_Deallocate<8,0>
  00090	59		 pop	 ecx
  00091	59		 pop	 ecx
; File C:\Program Files (x86)\Microsoft Visual Studio\2019\Community\VC\Tools\MSVC\14.28.29333\include\vector

; 1698 :             _Myfirst = pointer();

  00092	8b 45 fc	 mov	 eax, DWORD PTR __Myfirst$[ebp]
  00095	83 20 00	 and	 DWORD PTR [eax], 0

; 1699 :             _Mylast  = pointer();

  00098	8b 45 f0	 mov	 eax, DWORD PTR __Mylast$[ebp]
  0009b	83 20 00	 and	 DWORD PTR [eax], 0

; 1700 :             _Myend   = pointer();

  0009e	8b 45 ec	 mov	 eax, DWORD PTR __Myend$[ebp]
  000a1	83 20 00	 and	 DWORD PTR [eax], 0
$LN3@Tidy:

; 1701 :         }
; 1702 :     }

  000a4	c9		 leave
  000a5	c3		 ret	 0
?_Tidy@?$vector@V?$basic_string@DU?$char_traits@D@std@@V?$allocator@D@2@@std@@V?$allocator@V?$basic_string@DU?$char_traits@D@std@@V?$allocator@D@2@@std@@@2@@std@@AAEXXZ ENDP ; std::vector<std::basic_string<char,std::char_traits<char>,std::allocator<char> >,std::allocator<std::basic_string<char,std::char_traits<char>,std::allocator<char> > > >::_Tidy
_TEXT	ENDS
; Function compile flags: /Odspy
; File C:\Program Files (x86)\Microsoft Visual Studio\2019\Community\VC\Tools\MSVC\14.28.29333\include\vector
;	COMDAT ??1?$vector@V?$basic_string@DU?$char_traits@D@std@@V?$allocator@D@2@@std@@V?$allocator@V?$basic_string@DU?$char_traits@D@std@@V?$allocator@D@2@@std@@@2@@std@@QAE@XZ
_TEXT	SEGMENT
_this$ = -4						; size = 4
??1?$vector@V?$basic_string@DU?$char_traits@D@std@@V?$allocator@D@2@@std@@V?$allocator@V?$basic_string@DU?$char_traits@D@std@@V?$allocator@D@2@@std@@@2@@std@@QAE@XZ PROC ; std::vector<std::basic_string<char,std::char_traits<char>,std::allocator<char> >,std::allocator<std::basic_string<char,std::char_traits<char>,std::allocator<char> > > >::~vector<std::basic_string<char,std::char_traits<char>,std::allocator<char> >,std::allocator<std::basic_string<char,std::char_traits<char>,std::allocator<char> > > >, COMDAT
; _this$ = ecx

; 672  :     ~vector() noexcept {

  00000	55		 push	 ebp
  00001	8b ec		 mov	 ebp, esp
  00003	51		 push	 ecx
  00004	89 4d fc	 mov	 DWORD PTR _this$[ebp], ecx

; 673  :         _Tidy();

  00007	8b 4d fc	 mov	 ecx, DWORD PTR _this$[ebp]
  0000a	e8 00 00 00 00	 call	 ?_Tidy@?$vector@V?$basic_string@DU?$char_traits@D@std@@V?$allocator@D@2@@std@@V?$allocator@V?$basic_string@DU?$char_traits@D@std@@V?$allocator@D@2@@std@@@2@@std@@AAEXXZ ; std::vector<std::basic_string<char,std::char_traits<char>,std::allocator<char> >,std::allocator<std::basic_string<char,std::char_traits<char>,std::allocator<char> > > >::_Tidy

; 674  : #if _ITERATOR_DEBUG_LEVEL != 0
; 675  :         auto&& _Alproxy = _GET_PROXY_ALLOCATOR(_Alty, _Getal());
; 676  :         _Delete_plain_internal(_Alproxy, _STD exchange(_Mypair._Myval2._Myproxy, nullptr));
; 677  : #endif // _ITERATOR_DEBUG_LEVEL != 0
; 678  :     }

  0000f	c9		 leave
  00010	c3		 ret	 0
??1?$vector@V?$basic_string@DU?$char_traits@D@std@@V?$allocator@D@2@@std@@V?$allocator@V?$basic_string@DU?$char_traits@D@std@@V?$allocator@D@2@@std@@@2@@std@@QAE@XZ ENDP ; std::vector<std::basic_string<char,std::char_traits<char>,std::allocator<char> >,std::allocator<std::basic_string<char,std::char_traits<char>,std::allocator<char> > > >::~vector<std::basic_string<char,std::char_traits<char>,std::allocator<char> >,std::allocator<std::basic_string<char,std::char_traits<char>,std::allocator<char> > > >
_TEXT	ENDS
; Function compile flags: /Odspy
;	COMDAT ??1?$_Compressed_pair@V?$allocator@D@std@@V?$_String_val@U?$_Simple_types@D@std@@@2@$00@std@@QAE@XZ
_TEXT	SEGMENT
_this$ = -4						; size = 4
??1?$_Compressed_pair@V?$allocator@D@std@@V?$_String_val@U?$_Simple_types@D@std@@@2@$00@std@@QAE@XZ PROC ; std::_Compressed_pair<std::allocator<char>,std::_String_val<std::_Simple_types<char> >,1>::~_Compressed_pair<std::allocator<char>,std::_String_val<std::_Simple_types<char> >,1>, COMDAT
; _this$ = ecx
  00000	55		 push	 ebp
  00001	8b ec		 mov	 ebp, esp
  00003	51		 push	 ecx
  00004	89 4d fc	 mov	 DWORD PTR _this$[ebp], ecx
  00007	c9		 leave
  00008	c3		 ret	 0
??1?$_Compressed_pair@V?$allocator@D@std@@V?$_String_val@U?$_Simple_types@D@std@@@2@$00@std@@QAE@XZ ENDP ; std::_Compressed_pair<std::allocator<char>,std::_String_val<std::_Simple_types<char> >,1>::~_Compressed_pair<std::allocator<char>,std::_String_val<std::_Simple_types<char> >,1>
_TEXT	ENDS
; Function compile flags: /Odspy
; File C:\Program Files (x86)\Microsoft Visual Studio\2019\Community\VC\Tools\MSVC\14.28.29333\include\xstring
; File C:\Program Files (x86)\Microsoft Visual Studio\2019\Community\VC\Tools\MSVC\14.28.29333\include\xmemory
; File C:\Program Files (x86)\Microsoft Visual Studio\2019\Community\VC\Tools\MSVC\14.28.29333\include\xstring
; File C:\Program Files (x86)\Microsoft Visual Studio\2019\Community\VC\Tools\MSVC\14.28.29333\include\xmemory
; File C:\Program Files (x86)\Microsoft Visual Studio\2019\Community\VC\Tools\MSVC\14.28.29333\include\xstring
;	COMDAT ?_Tidy_deallocate@?$basic_string@DU?$char_traits@D@std@@V?$allocator@D@2@@std@@AAEXXZ
_TEXT	SEGMENT
__Al$1 = -28						; size = 4
__Ptr$2 = -24						; size = 4
__Count$ = -20						; size = 4
$T3 = -16						; size = 4
tv68 = -12						; size = 4
_this$ = -8						; size = 4
$T4 = -2						; size = 1
$T5 = -1						; size = 1
?_Tidy_deallocate@?$basic_string@DU?$char_traits@D@std@@V?$allocator@D@2@@std@@AAEXXZ PROC ; std::basic_string<char,std::char_traits<char>,std::allocator<char> >::_Tidy_deallocate, COMDAT
; _this$ = ecx

; 4383 :     void _Tidy_deallocate() noexcept { // initialize buffer, deallocating any storage

  00000	55		 push	 ebp
  00001	8b ec		 mov	 ebp, esp
  00003	83 ec 1c	 sub	 esp, 28			; 0000001cH
  00006	89 4d f8	 mov	 DWORD PTR _this$[ebp], ecx

; 2227 :         return _BUF_SIZE <= _Myres;

  00009	8b 45 f8	 mov	 eax, DWORD PTR _this$[ebp]
  0000c	83 78 14 10	 cmp	 DWORD PTR [eax+20], 16	; 00000010H
  00010	72 09		 jb	 SHORT $LN9@Tidy_deall
  00012	c7 45 f4 01 00
	00 00		 mov	 DWORD PTR tv68[ebp], 1
  00019	eb 04		 jmp	 SHORT $LN10@Tidy_deall
$LN9@Tidy_deall:
  0001b	83 65 f4 00	 and	 DWORD PTR tv68[ebp], 0
$LN10@Tidy_deall:
  0001f	8a 45 f4	 mov	 al, BYTE PTR tv68[ebp]
  00022	88 45 ff	 mov	 BYTE PTR $T5[ebp], al

; 4384 :         _Mypair._Myval2._Orphan_all();
; 4385 :         if (_Mypair._Myval2._Large_string_engaged()) {

  00025	0f b6 45 ff	 movzx	 eax, BYTE PTR $T5[ebp]
  00029	85 c0		 test	 eax, eax
  0002b	74 34		 je	 SHORT $LN2@Tidy_deall

; 4386 :             const pointer _Ptr = _Mypair._Myval2._Bx._Ptr;

  0002d	8b 45 f8	 mov	 eax, DWORD PTR _this$[ebp]
  00030	8b 00		 mov	 eax, DWORD PTR [eax]
  00032	89 45 e8	 mov	 DWORD PTR __Ptr$2[ebp], eax

; 4409 :         return _Mypair._Get_first();

  00035	8b 45 f8	 mov	 eax, DWORD PTR _this$[ebp]
; File C:\Program Files (x86)\Microsoft Visual Studio\2019\Community\VC\Tools\MSVC\14.28.29333\include\xmemory

; 1347 :         return *this;

  00038	89 45 f0	 mov	 DWORD PTR $T3[ebp], eax
; File C:\Program Files (x86)\Microsoft Visual Studio\2019\Community\VC\Tools\MSVC\14.28.29333\include\xstring

; 4409 :         return _Mypair._Get_first();

  0003b	8b 45 f0	 mov	 eax, DWORD PTR $T3[ebp]
  0003e	89 45 e4	 mov	 DWORD PTR __Al$1[ebp], eax

; 4387 :             auto& _Al          = _Getal();
; 4388 :             _Destroy_in_place(_Mypair._Myval2._Bx._Ptr);

  00041	ff 75 f8	 push	 DWORD PTR _this$[ebp]
  00044	e8 00 00 00 00	 call	 ??$_Destroy_in_place@PAD@std@@YAXAAPAD@Z ; std::_Destroy_in_place<char *>
  00049	59		 pop	 ecx

; 4389 :             _Al.deallocate(_Ptr, _Mypair._Myval2._Myres + 1);

  0004a	8b 45 f8	 mov	 eax, DWORD PTR _this$[ebp]
  0004d	8b 40 14	 mov	 eax, DWORD PTR [eax+20]
  00050	40		 inc	 eax
  00051	89 45 ec	 mov	 DWORD PTR __Count$[ebp], eax
; File C:\Program Files (x86)\Microsoft Visual Studio\2019\Community\VC\Tools\MSVC\14.28.29333\include\xmemory

; 810  :         _Deallocate<_New_alignof<_Ty>>(_Ptr, sizeof(_Ty) * _Count);

  00054	ff 75 ec	 push	 DWORD PTR __Count$[ebp]
  00057	ff 75 e8	 push	 DWORD PTR __Ptr$2[ebp]
  0005a	e8 00 00 00 00	 call	 ??$_Deallocate@$07$0A@@std@@YAXPAXI@Z ; std::_Deallocate<8,0>
  0005f	59		 pop	 ecx
  00060	59		 pop	 ecx
$LN2@Tidy_deall:
; File C:\Program Files (x86)\Microsoft Visual Studio\2019\Community\VC\Tools\MSVC\14.28.29333\include\xstring

; 4392 :         _Mypair._Myval2._Mysize = 0;

  00061	8b 45 f8	 mov	 eax, DWORD PTR _this$[ebp]
  00064	83 60 10 00	 and	 DWORD PTR [eax+16], 0

; 4393 :         _Mypair._Myval2._Myres  = _BUF_SIZE - 1;

  00068	8b 45 f8	 mov	 eax, DWORD PTR _this$[ebp]
  0006b	c7 40 14 0f 00
	00 00		 mov	 DWORD PTR [eax+20], 15	; 0000000fH

; 4394 :         // the _Traits::assign is last so the codegen doesn't think the char write can alias this
; 4395 :         _Traits::assign(_Mypair._Myval2._Bx._Buf[0], _Elem());

  00072	c6 45 fe 00	 mov	 BYTE PTR $T4[ebp], 0
  00076	33 c0		 xor	 eax, eax
  00078	40		 inc	 eax
  00079	6b c0 00	 imul	 eax, eax, 0

; 428  :         _Left = _Right;

  0007c	8b 4d f8	 mov	 ecx, DWORD PTR _this$[ebp]
  0007f	8a 55 fe	 mov	 dl, BYTE PTR $T4[ebp]
  00082	88 14 01	 mov	 BYTE PTR [ecx+eax], dl

; 4396 :     }

  00085	c9		 leave
  00086	c3		 ret	 0
?_Tidy_deallocate@?$basic_string@DU?$char_traits@D@std@@V?$allocator@D@2@@std@@AAEXXZ ENDP ; std::basic_string<char,std::char_traits<char>,std::allocator<char> >::_Tidy_deallocate
_TEXT	ENDS
; Function compile flags: /Odspy
; File C:\Program Files (x86)\Microsoft Visual Studio\2019\Community\VC\Tools\MSVC\14.28.29333\include\xstring
;	COMDAT ?_Tidy_init@?$basic_string@DU?$char_traits@D@std@@V?$allocator@D@2@@std@@AAEXXZ
_TEXT	SEGMENT
_this$ = -8						; size = 4
$T1 = -1						; size = 1
?_Tidy_init@?$basic_string@DU?$char_traits@D@std@@V?$allocator@D@2@@std@@AAEXXZ PROC ; std::basic_string<char,std::char_traits<char>,std::allocator<char> >::_Tidy_init, COMDAT
; _this$ = ecx

; 4376 :     void _Tidy_init() noexcept { // initialize basic_string data members

  00000	55		 push	 ebp
  00001	8b ec		 mov	 ebp, esp
  00003	51		 push	 ecx
  00004	51		 push	 ecx
  00005	89 4d f8	 mov	 DWORD PTR _this$[ebp], ecx

; 4377 :         _Mypair._Myval2._Mysize = 0;

  00008	8b 45 f8	 mov	 eax, DWORD PTR _this$[ebp]
  0000b	83 60 10 00	 and	 DWORD PTR [eax+16], 0

; 4378 :         _Mypair._Myval2._Myres  = _BUF_SIZE - 1;

  0000f	8b 45 f8	 mov	 eax, DWORD PTR _this$[ebp]
  00012	c7 40 14 0f 00
	00 00		 mov	 DWORD PTR [eax+20], 15	; 0000000fH

; 4379 :         // the _Traits::assign is last so the codegen doesn't think the char write can alias this
; 4380 :         _Traits::assign(_Mypair._Myval2._Bx._Buf[0], _Elem());

  00019	c6 45 ff 00	 mov	 BYTE PTR $T1[ebp], 0
  0001d	33 c0		 xor	 eax, eax
  0001f	40		 inc	 eax
  00020	6b c0 00	 imul	 eax, eax, 0

; 428  :         _Left = _Right;

  00023	8b 4d f8	 mov	 ecx, DWORD PTR _this$[ebp]
  00026	8a 55 ff	 mov	 dl, BYTE PTR $T1[ebp]
  00029	88 14 01	 mov	 BYTE PTR [ecx+eax], dl

; 4381 :     }

  0002c	c9		 leave
  0002d	c3		 ret	 0
?_Tidy_init@?$basic_string@DU?$char_traits@D@std@@V?$allocator@D@2@@std@@AAEXXZ ENDP ; std::basic_string<char,std::char_traits<char>,std::allocator<char> >::_Tidy_init
_TEXT	ENDS
; Function compile flags: /Odspy
; File C:\Program Files (x86)\Microsoft Visual Studio\2019\Community\VC\Tools\MSVC\14.28.29333\include\xstring
; File C:\Program Files (x86)\Microsoft Visual Studio\2019\Community\VC\Tools\MSVC\14.28.29333\include\utility
; File C:\Program Files (x86)\Microsoft Visual Studio\2019\Community\VC\Tools\MSVC\14.28.29333\include\xstring
;	COMDAT ?_Calculate_growth@?$basic_string@DU?$char_traits@D@std@@V?$allocator@D@2@@std@@ABEII@Z
_TEXT	SEGMENT
$T1 = -36						; size = 4
$T2 = -32						; size = 4
tv93 = -28						; size = 4
$T3 = -24						; size = 4
_this$ = -20						; size = 4
$T4 = -16						; size = 4
__Masked$5 = -12					; size = 4
__Old$ = -8						; size = 4
__Max$ = -4						; size = 4
__Requested$ = 8					; size = 4
?_Calculate_growth@?$basic_string@DU?$char_traits@D@std@@V?$allocator@D@2@@std@@ABEII@Z PROC ; std::basic_string<char,std::char_traits<char>,std::allocator<char> >::_Calculate_growth, COMDAT
; _this$ = ecx

; 4297 :     _NODISCARD size_type _Calculate_growth(const size_type _Requested) const noexcept {

  00000	55		 push	 ebp
  00001	8b ec		 mov	 ebp, esp
  00003	83 ec 24	 sub	 esp, 36			; 00000024H
  00006	89 4d ec	 mov	 DWORD PTR _this$[ebp], ecx

; 4298 :         return _Calculate_growth(_Requested, _Mypair._Myval2._Myres, max_size());

  00009	8b 4d ec	 mov	 ecx, DWORD PTR _this$[ebp]
  0000c	e8 00 00 00 00	 call	 ?max_size@?$basic_string@DU?$char_traits@D@std@@V?$allocator@D@2@@std@@QBEIXZ ; std::basic_string<char,std::char_traits<char>,std::allocator<char> >::max_size
  00011	89 45 fc	 mov	 DWORD PTR __Max$[ebp], eax
  00014	8b 45 ec	 mov	 eax, DWORD PTR _this$[ebp]
  00017	8b 40 14	 mov	 eax, DWORD PTR [eax+20]
  0001a	89 45 f8	 mov	 DWORD PTR __Old$[ebp], eax

; 4285 :         const size_type _Masked = _Requested | _ALLOC_MASK;

  0001d	8b 45 08	 mov	 eax, DWORD PTR __Requested$[ebp]
  00020	83 c8 0f	 or	 eax, 15			; 0000000fH
  00023	89 45 f4	 mov	 DWORD PTR __Masked$5[ebp], eax

; 4286 :         if (_Masked > _Max) { // the mask overflows, settle for max_size()

  00026	8b 45 f4	 mov	 eax, DWORD PTR __Masked$5[ebp]
  00029	3b 45 fc	 cmp	 eax, DWORD PTR __Max$[ebp]
  0002c	76 08		 jbe	 SHORT $LN29@Calculate_

; 4287 :             return _Max;

  0002e	8b 45 fc	 mov	 eax, DWORD PTR __Max$[ebp]
  00031	89 45 f0	 mov	 DWORD PTR $T4[ebp], eax
  00034	eb 4c		 jmp	 SHORT $LN31@Calculate_
$LN29@Calculate_:

; 4288 :         }
; 4289 : 
; 4290 :         if (_Old > _Max - _Old / 2) { // similarly, geometric overflows

  00036	8b 45 f8	 mov	 eax, DWORD PTR __Old$[ebp]
  00039	d1 e8		 shr	 eax, 1
  0003b	8b 4d fc	 mov	 ecx, DWORD PTR __Max$[ebp]
  0003e	2b c8		 sub	 ecx, eax
  00040	39 4d f8	 cmp	 DWORD PTR __Old$[ebp], ecx
  00043	76 08		 jbe	 SHORT $LN30@Calculate_

; 4291 :             return _Max;

  00045	8b 45 fc	 mov	 eax, DWORD PTR __Max$[ebp]
  00048	89 45 f0	 mov	 DWORD PTR $T4[ebp], eax
  0004b	eb 35		 jmp	 SHORT $LN31@Calculate_
$LN30@Calculate_:

; 4294 :         return (_STD max)(_Masked, _Old + _Old / 2);

  0004d	8b 45 f8	 mov	 eax, DWORD PTR __Old$[ebp]
  00050	d1 e8		 shr	 eax, 1
  00052	03 45 f8	 add	 eax, DWORD PTR __Old$[ebp]
  00055	89 45 e8	 mov	 DWORD PTR $T3[ebp], eax
; File C:\Program Files (x86)\Microsoft Visual Studio\2019\Community\VC\Tools\MSVC\14.28.29333\include\utility

; 44   :     return _Left < _Right ? _Right : _Left;

  00058	8b 45 f4	 mov	 eax, DWORD PTR __Masked$5[ebp]
  0005b	3b 45 e8	 cmp	 eax, DWORD PTR $T3[ebp]
  0005e	73 08		 jae	 SHORT $LN35@Calculate_
  00060	8d 45 e8	 lea	 eax, DWORD PTR $T3[ebp]
  00063	89 45 e4	 mov	 DWORD PTR tv93[ebp], eax
  00066	eb 06		 jmp	 SHORT $LN36@Calculate_
$LN35@Calculate_:
  00068	8d 45 f4	 lea	 eax, DWORD PTR __Masked$5[ebp]
  0006b	89 45 e4	 mov	 DWORD PTR tv93[ebp], eax
$LN36@Calculate_:
  0006e	8b 45 e4	 mov	 eax, DWORD PTR tv93[ebp]
  00071	89 45 e0	 mov	 DWORD PTR $T2[ebp], eax
  00074	8b 45 e0	 mov	 eax, DWORD PTR $T2[ebp]
  00077	89 45 dc	 mov	 DWORD PTR $T1[ebp], eax
; File C:\Program Files (x86)\Microsoft Visual Studio\2019\Community\VC\Tools\MSVC\14.28.29333\include\xstring

; 4294 :         return (_STD max)(_Masked, _Old + _Old / 2);

  0007a	8b 45 dc	 mov	 eax, DWORD PTR $T1[ebp]
  0007d	8b 00		 mov	 eax, DWORD PTR [eax]
  0007f	89 45 f0	 mov	 DWORD PTR $T4[ebp], eax
$LN31@Calculate_:

; 4298 :         return _Calculate_growth(_Requested, _Mypair._Myval2._Myres, max_size());

  00082	8b 45 f0	 mov	 eax, DWORD PTR $T4[ebp]

; 4299 :     }

  00085	c9		 leave
  00086	c2 04 00	 ret	 4
?_Calculate_growth@?$basic_string@DU?$char_traits@D@std@@V?$allocator@D@2@@std@@ABEII@Z ENDP ; std::basic_string<char,std::char_traits<char>,std::allocator<char> >::_Calculate_growth
_TEXT	ENDS
; Function compile flags: /Odspy
; File C:\Program Files (x86)\Microsoft Visual Studio\2019\Community\VC\Tools\MSVC\14.28.29333\include\xstring
; File C:\Program Files (x86)\Microsoft Visual Studio\2019\Community\VC\Tools\MSVC\14.28.29333\include\xstddef
; File C:\Program Files (x86)\Microsoft Visual Studio\2019\Community\VC\Tools\MSVC\14.28.29333\include\xstring
; File C:\Program Files (x86)\Microsoft Visual Studio\2019\Community\VC\Tools\MSVC\14.28.29333\include\utility
; File C:\Program Files (x86)\Microsoft Visual Studio\2019\Community\VC\Tools\MSVC\14.28.29333\include\xstring
;	COMDAT ?compare@?$basic_string@DU?$char_traits@D@std@@V?$allocator@D@2@@std@@QBEHQBD@Z
_TEXT	SEGMENT
$T1 = -64						; size = 4
__Count$ = -60						; size = 4
$T2 = -56						; size = 4
$T3 = -52						; size = 4
$T4 = -48						; size = 4
__Ptr$ = -44						; size = 4
__Ans$5 = -40						; size = 4
tv132 = -36						; size = 4
_this$ = -32						; size = 4
__Result$6 = -28					; size = 4
tv91 = -24						; size = 4
_this$ = -20						; size = 4
$T7 = -16						; size = 4
__Right_size$ = -12					; size = 4
__Left_size$ = -8					; size = 4
$T8 = -1						; size = 1
__Ptr$ = 8						; size = 4
?compare@?$basic_string@DU?$char_traits@D@std@@V?$allocator@D@2@@std@@QBEHQBD@Z PROC ; std::basic_string<char,std::char_traits<char>,std::allocator<char> >::compare, COMDAT
; _this$ = ecx

; 4233 :     _NODISCARD int compare(_In_z_ const _Elem* const _Ptr) const noexcept /* strengthened */ {

  00000	55		 push	 ebp
  00001	8b ec		 mov	 ebp, esp
  00003	83 ec 40	 sub	 esp, 64			; 00000040H
  00006	89 4d e0	 mov	 DWORD PTR _this$[ebp], ecx

; 389  :         return _CSTD strlen(reinterpret_cast<const char*>(_First));

  00009	ff 75 08	 push	 DWORD PTR __Ptr$[ebp]
  0000c	e8 00 00 00 00	 call	 _strlen
  00011	59		 pop	 ecx
  00012	89 45 d0	 mov	 DWORD PTR $T4[ebp], eax

; 4234 :         // compare [0, size()) with [_Ptr, <null>)
; 4235 :         return _Traits_compare<_Traits>(_Mypair._Myval2._Myptr(), _Mypair._Myval2._Mysize, _Ptr, _Traits::length(_Ptr));

  00015	8b 45 e0	 mov	 eax, DWORD PTR _this$[ebp]
  00018	89 45 ec	 mov	 DWORD PTR _this$[ebp], eax

; 2218 :         const value_type* _Result = _Bx._Buf;

  0001b	8b 45 ec	 mov	 eax, DWORD PTR _this$[ebp]
  0001e	89 45 e4	 mov	 DWORD PTR __Result$6[ebp], eax

; 2227 :         return _BUF_SIZE <= _Myres;

  00021	8b 45 ec	 mov	 eax, DWORD PTR _this$[ebp]
  00024	83 78 14 10	 cmp	 DWORD PTR [eax+20], 16	; 00000010H
  00028	72 09		 jb	 SHORT $LN12@compare
  0002a	c7 45 e8 01 00
	00 00		 mov	 DWORD PTR tv91[ebp], 1
  00031	eb 04		 jmp	 SHORT $LN13@compare
$LN12@compare:
  00033	83 65 e8 00	 and	 DWORD PTR tv91[ebp], 0
$LN13@compare:
  00037	8a 45 e8	 mov	 al, BYTE PTR tv91[ebp]
  0003a	88 45 ff	 mov	 BYTE PTR $T8[ebp], al

; 2219 :         if (_Large_string_engaged()) {

  0003d	0f b6 45 ff	 movzx	 eax, BYTE PTR $T8[ebp]
  00041	85 c0		 test	 eax, eax
  00043	74 0e		 je	 SHORT $LN7@compare

; 2220 :             _Result = _Unfancy(_Bx._Ptr);

  00045	8b 45 ec	 mov	 eax, DWORD PTR _this$[ebp]
  00048	8b 00		 mov	 eax, DWORD PTR [eax]
  0004a	89 45 d4	 mov	 DWORD PTR __Ptr$[ebp], eax
; File C:\Program Files (x86)\Microsoft Visual Studio\2019\Community\VC\Tools\MSVC\14.28.29333\include\xstddef

; 289  :     return _Ptr;

  0004d	8b 45 d4	 mov	 eax, DWORD PTR __Ptr$[ebp]
  00050	89 45 e4	 mov	 DWORD PTR __Result$6[ebp], eax
$LN7@compare:
; File C:\Program Files (x86)\Microsoft Visual Studio\2019\Community\VC\Tools\MSVC\14.28.29333\include\xstring

; 2223 :         return _Result;

  00053	8b 45 e4	 mov	 eax, DWORD PTR __Result$6[ebp]
  00056	89 45 c0	 mov	 DWORD PTR $T1[ebp], eax

; 4234 :         // compare [0, size()) with [_Ptr, <null>)
; 4235 :         return _Traits_compare<_Traits>(_Mypair._Myval2._Myptr(), _Mypair._Myval2._Mysize, _Ptr, _Traits::length(_Ptr));

  00059	8b 45 d0	 mov	 eax, DWORD PTR $T4[ebp]
  0005c	89 45 f4	 mov	 DWORD PTR __Right_size$[ebp], eax
  0005f	8b 45 e0	 mov	 eax, DWORD PTR _this$[ebp]
  00062	8b 40 10	 mov	 eax, DWORD PTR [eax+16]
  00065	89 45 f8	 mov	 DWORD PTR __Left_size$[ebp], eax
; File C:\Program Files (x86)\Microsoft Visual Studio\2019\Community\VC\Tools\MSVC\14.28.29333\include\utility

; 68   :     return _Right < _Left ? _Right : _Left;

  00068	8b 45 f4	 mov	 eax, DWORD PTR __Right_size$[ebp]
  0006b	3b 45 f8	 cmp	 eax, DWORD PTR __Left_size$[ebp]
  0006e	73 08		 jae	 SHORT $LN26@compare
  00070	8d 45 f4	 lea	 eax, DWORD PTR __Right_size$[ebp]
  00073	89 45 dc	 mov	 DWORD PTR tv132[ebp], eax
  00076	eb 06		 jmp	 SHORT $LN27@compare
$LN26@compare:
  00078	8d 45 f8	 lea	 eax, DWORD PTR __Left_size$[ebp]
  0007b	89 45 dc	 mov	 DWORD PTR tv132[ebp], eax
$LN27@compare:
  0007e	8b 45 dc	 mov	 eax, DWORD PTR tv132[ebp]
  00081	89 45 cc	 mov	 DWORD PTR $T3[ebp], eax
  00084	8b 45 cc	 mov	 eax, DWORD PTR $T3[ebp]
  00087	89 45 c8	 mov	 DWORD PTR $T2[ebp], eax
; File C:\Program Files (x86)\Microsoft Visual Studio\2019\Community\VC\Tools\MSVC\14.28.29333\include\xstring

; 568  :     const int _Ans = _Traits::compare(_Left, _Right, (_STD min)(_Left_size, _Right_size));

  0008a	8b 45 c8	 mov	 eax, DWORD PTR $T2[ebp]
  0008d	8b 00		 mov	 eax, DWORD PTR [eax]
  0008f	89 45 c4	 mov	 DWORD PTR __Count$[ebp], eax

; 369  :         return _CSTD memcmp(_First1, _First2, _Count);

  00092	ff 75 c4	 push	 DWORD PTR __Count$[ebp]
  00095	ff 75 08	 push	 DWORD PTR __Ptr$[ebp]
  00098	ff 75 c0	 push	 DWORD PTR $T1[ebp]
  0009b	e8 00 00 00 00	 call	 _memcmp
  000a0	83 c4 0c	 add	 esp, 12			; 0000000cH
  000a3	89 45 d8	 mov	 DWORD PTR __Ans$5[ebp], eax

; 570  :     if (_Ans != 0) {

  000a6	83 7d d8 00	 cmp	 DWORD PTR __Ans$5[ebp], 0
  000aa	74 08		 je	 SHORT $LN19@compare

; 571  :         return _Ans;

  000ac	8b 45 d8	 mov	 eax, DWORD PTR __Ans$5[ebp]
  000af	89 45 f0	 mov	 DWORD PTR $T7[ebp], eax
  000b2	eb 23		 jmp	 SHORT $LN22@compare
$LN19@compare:

; 572  :     }
; 573  : 
; 574  :     if (_Left_size < _Right_size) {

  000b4	8b 45 f8	 mov	 eax, DWORD PTR __Left_size$[ebp]
  000b7	3b 45 f4	 cmp	 eax, DWORD PTR __Right_size$[ebp]
  000ba	73 06		 jae	 SHORT $LN20@compare

; 575  :         return -1;

  000bc	83 4d f0 ff	 or	 DWORD PTR $T7[ebp], -1
  000c0	eb 15		 jmp	 SHORT $LN22@compare
$LN20@compare:

; 576  :     }
; 577  : 
; 578  :     if (_Left_size > _Right_size) {

  000c2	8b 45 f8	 mov	 eax, DWORD PTR __Left_size$[ebp]
  000c5	3b 45 f4	 cmp	 eax, DWORD PTR __Right_size$[ebp]
  000c8	76 09		 jbe	 SHORT $LN21@compare

; 579  :         return 1;

  000ca	c7 45 f0 01 00
	00 00		 mov	 DWORD PTR $T7[ebp], 1
  000d1	eb 04		 jmp	 SHORT $LN22@compare
$LN21@compare:

; 580  :     }
; 581  : 
; 582  :     return 0;

  000d3	83 65 f0 00	 and	 DWORD PTR $T7[ebp], 0
$LN22@compare:

; 4234 :         // compare [0, size()) with [_Ptr, <null>)
; 4235 :         return _Traits_compare<_Traits>(_Mypair._Myval2._Myptr(), _Mypair._Myval2._Mysize, _Ptr, _Traits::length(_Ptr));

  000d7	8b 45 f0	 mov	 eax, DWORD PTR $T7[ebp]

; 4236 :     }

  000da	c9		 leave
  000db	c2 04 00	 ret	 4
?compare@?$basic_string@DU?$char_traits@D@std@@V?$allocator@D@2@@std@@QBEHQBD@Z ENDP ; std::basic_string<char,std::char_traits<char>,std::allocator<char> >::compare
_TEXT	ENDS
; Function compile flags: /Odspy
; File C:\Program Files (x86)\Microsoft Visual Studio\2019\Community\VC\Tools\MSVC\14.28.29333\include\xstring
; File C:\Program Files (x86)\Microsoft Visual Studio\2019\Community\VC\Tools\MSVC\14.28.29333\include\xmemory
; File C:\Program Files (x86)\Microsoft Visual Studio\2019\Community\VC\Tools\MSVC\14.28.29333\include\xstring
; File C:\Program Files (x86)\Microsoft Visual Studio\2019\Community\VC\Tools\MSVC\14.28.29333\include\xmemory
; File C:\Program Files (x86)\Microsoft Visual Studio\2019\Community\VC\Tools\MSVC\14.28.29333\include\xstring
; File C:\Program Files (x86)\Microsoft Visual Studio\2019\Community\VC\Tools\MSVC\14.28.29333\include\utility
; File C:\Program Files (x86)\Microsoft Visual Studio\2019\Community\VC\Tools\MSVC\14.28.29333\include\xstring
; File C:\Program Files (x86)\Microsoft Visual Studio\2019\Community\VC\Tools\MSVC\14.28.29333\include\limits
; File C:\Program Files (x86)\Microsoft Visual Studio\2019\Community\VC\Tools\MSVC\14.28.29333\include\xstring
; File C:\Program Files (x86)\Microsoft Visual Studio\2019\Community\VC\Tools\MSVC\14.28.29333\include\utility
; File C:\Program Files (x86)\Microsoft Visual Studio\2019\Community\VC\Tools\MSVC\14.28.29333\include\xstring
;	COMDAT ?max_size@?$basic_string@DU?$char_traits@D@std@@V?$allocator@D@2@@std@@QBEIXZ
_TEXT	SEGMENT
$T1 = -60						; size = 4
$T2 = -56						; size = 4
$T3 = -52						; size = 4
$T4 = -48						; size = 4
__Storage_max$ = -44					; size = 4
$T5 = -40						; size = 4
$T6 = -36						; size = 4
$T7 = -32						; size = 4
_this$ = -28						; size = 4
tv70 = -24						; size = 4
$T8 = -20						; size = 4
$T9 = -16						; size = 4
tv67 = -12						; size = 4
__Alloc_max$ = -8					; size = 4
$T10 = -4						; size = 4
?max_size@?$basic_string@DU?$char_traits@D@std@@V?$allocator@D@2@@std@@QBEIXZ PROC ; std::basic_string<char,std::char_traits<char>,std::allocator<char> >::max_size, COMDAT
; _this$ = ecx

; 3773 :     _NODISCARD size_type max_size() const noexcept {

  00000	55		 push	 ebp
  00001	8b ec		 mov	 ebp, esp
  00003	83 ec 3c	 sub	 esp, 60			; 0000003cH
  00006	89 4d e4	 mov	 DWORD PTR _this$[ebp], ecx

; 4413 :         return _Mypair._Get_first();

  00009	8b 45 e4	 mov	 eax, DWORD PTR _this$[ebp]
; File C:\Program Files (x86)\Microsoft Visual Studio\2019\Community\VC\Tools\MSVC\14.28.29333\include\xmemory

; 1351 :         return *this;

  0000c	89 45 e0	 mov	 DWORD PTR $T7[ebp], eax
; File C:\Program Files (x86)\Microsoft Visual Studio\2019\Community\VC\Tools\MSVC\14.28.29333\include\xstring

; 4413 :         return _Mypair._Get_first();

  0000f	8b 45 e0	 mov	 eax, DWORD PTR $T7[ebp]
  00012	89 45 c4	 mov	 DWORD PTR $T1[ebp], eax
; File C:\Program Files (x86)\Microsoft Visual Studio\2019\Community\VC\Tools\MSVC\14.28.29333\include\xmemory

; 710  :         return static_cast<size_t>(-1) / sizeof(value_type);

  00015	83 4d f8 ff	 or	 DWORD PTR __Alloc_max$[ebp], -1
; File C:\Program Files (x86)\Microsoft Visual Studio\2019\Community\VC\Tools\MSVC\14.28.29333\include\xstring

; 3775 :         const size_type _Storage_max = // can always store small string

  00019	c7 45 fc 10 00
	00 00		 mov	 DWORD PTR $T10[ebp], 16	; 00000010H
; File C:\Program Files (x86)\Microsoft Visual Studio\2019\Community\VC\Tools\MSVC\14.28.29333\include\utility

; 44   :     return _Left < _Right ? _Right : _Left;

  00020	8b 45 f8	 mov	 eax, DWORD PTR __Alloc_max$[ebp]
  00023	3b 45 fc	 cmp	 eax, DWORD PTR $T10[ebp]
  00026	73 08		 jae	 SHORT $LN14@max_size
  00028	8d 45 fc	 lea	 eax, DWORD PTR $T10[ebp]
  0002b	89 45 f4	 mov	 DWORD PTR tv67[ebp], eax
  0002e	eb 06		 jmp	 SHORT $LN15@max_size
$LN14@max_size:
  00030	8d 45 f8	 lea	 eax, DWORD PTR __Alloc_max$[ebp]
  00033	89 45 f4	 mov	 DWORD PTR tv67[ebp], eax
$LN15@max_size:
  00036	8b 45 f4	 mov	 eax, DWORD PTR tv67[ebp]
  00039	89 45 dc	 mov	 DWORD PTR $T6[ebp], eax
  0003c	8b 45 dc	 mov	 eax, DWORD PTR $T6[ebp]
  0003f	89 45 d8	 mov	 DWORD PTR $T5[ebp], eax
; File C:\Program Files (x86)\Microsoft Visual Studio\2019\Community\VC\Tools\MSVC\14.28.29333\include\xstring

; 3775 :         const size_type _Storage_max = // can always store small string

  00042	8b 45 d8	 mov	 eax, DWORD PTR $T5[ebp]
  00045	8b 00		 mov	 eax, DWORD PTR [eax]
  00047	89 45 d4	 mov	 DWORD PTR __Storage_max$[ebp], eax

; 3777 :         return (_STD min)(static_cast<size_type>((numeric_limits<difference_type>::max)()),

  0004a	8b 45 d4	 mov	 eax, DWORD PTR __Storage_max$[ebp]
  0004d	48		 dec	 eax
  0004e	89 45 f0	 mov	 DWORD PTR $T9[ebp], eax
; File C:\Program Files (x86)\Microsoft Visual Studio\2019\Community\VC\Tools\MSVC\14.28.29333\include\limits

; 557  :         return INT_MAX;

  00051	c7 45 d0 ff ff
	ff 7f		 mov	 DWORD PTR $T4[ebp], 2147483647 ; 7fffffffH
; File C:\Program Files (x86)\Microsoft Visual Studio\2019\Community\VC\Tools\MSVC\14.28.29333\include\xstring

; 3777 :         return (_STD min)(static_cast<size_type>((numeric_limits<difference_type>::max)()),

  00058	8b 45 d0	 mov	 eax, DWORD PTR $T4[ebp]
  0005b	89 45 ec	 mov	 DWORD PTR $T8[ebp], eax
; File C:\Program Files (x86)\Microsoft Visual Studio\2019\Community\VC\Tools\MSVC\14.28.29333\include\utility

; 68   :     return _Right < _Left ? _Right : _Left;

  0005e	8b 45 f0	 mov	 eax, DWORD PTR $T9[ebp]
  00061	3b 45 ec	 cmp	 eax, DWORD PTR $T8[ebp]
  00064	73 08		 jae	 SHORT $LN22@max_size
  00066	8d 45 f0	 lea	 eax, DWORD PTR $T9[ebp]
  00069	89 45 e8	 mov	 DWORD PTR tv70[ebp], eax
  0006c	eb 06		 jmp	 SHORT $LN23@max_size
$LN22@max_size:
  0006e	8d 45 ec	 lea	 eax, DWORD PTR $T8[ebp]
  00071	89 45 e8	 mov	 DWORD PTR tv70[ebp], eax
$LN23@max_size:
  00074	8b 45 e8	 mov	 eax, DWORD PTR tv70[ebp]
  00077	89 45 cc	 mov	 DWORD PTR $T3[ebp], eax
  0007a	8b 45 cc	 mov	 eax, DWORD PTR $T3[ebp]
  0007d	89 45 c8	 mov	 DWORD PTR $T2[ebp], eax
; File C:\Program Files (x86)\Microsoft Visual Studio\2019\Community\VC\Tools\MSVC\14.28.29333\include\xstring

; 3777 :         return (_STD min)(static_cast<size_type>((numeric_limits<difference_type>::max)()),

  00080	8b 45 c8	 mov	 eax, DWORD PTR $T2[ebp]
  00083	8b 00		 mov	 eax, DWORD PTR [eax]

; 3778 :             _Storage_max - 1 // -1 is for null terminator and/or npos
; 3779 :         );
; 3780 :     }

  00085	c9		 leave
  00086	c3		 ret	 0
?max_size@?$basic_string@DU?$char_traits@D@std@@V?$allocator@D@2@@std@@QBEIXZ ENDP ; std::basic_string<char,std::char_traits<char>,std::allocator<char> >::max_size
_TEXT	ENDS
; Function compile flags: /Odspy
; File C:\Program Files (x86)\Microsoft Visual Studio\2019\Community\VC\Tools\MSVC\14.28.29333\include\xstring
; File C:\Program Files (x86)\Microsoft Visual Studio\2019\Community\VC\Tools\MSVC\14.28.29333\include\xstddef
; File C:\Program Files (x86)\Microsoft Visual Studio\2019\Community\VC\Tools\MSVC\14.28.29333\include\xstring
;	COMDAT ?c_str@?$basic_string@DU?$char_traits@D@std@@V?$allocator@D@2@@std@@QBEPBDXZ
_TEXT	SEGMENT
$T1 = -28						; size = 4
__Ptr$ = -24						; size = 4
_this$ = -20						; size = 4
__Result$2 = -16					; size = 4
tv80 = -12						; size = 4
_this$ = -8						; size = 4
$T3 = -1						; size = 1
?c_str@?$basic_string@DU?$char_traits@D@std@@V?$allocator@D@2@@std@@QBEPBDXZ PROC ; std::basic_string<char,std::char_traits<char>,std::allocator<char> >::c_str, COMDAT
; _this$ = ecx

; 3751 :     _NODISCARD _Ret_z_ const _Elem* c_str() const noexcept {

  00000	55		 push	 ebp
  00001	8b ec		 mov	 ebp, esp
  00003	83 ec 1c	 sub	 esp, 28			; 0000001cH
  00006	89 4d ec	 mov	 DWORD PTR _this$[ebp], ecx

; 3752 :         return _Mypair._Myval2._Myptr();

  00009	8b 45 ec	 mov	 eax, DWORD PTR _this$[ebp]
  0000c	89 45 f8	 mov	 DWORD PTR _this$[ebp], eax

; 2218 :         const value_type* _Result = _Bx._Buf;

  0000f	8b 45 f8	 mov	 eax, DWORD PTR _this$[ebp]
  00012	89 45 f0	 mov	 DWORD PTR __Result$2[ebp], eax

; 2227 :         return _BUF_SIZE <= _Myres;

  00015	8b 45 f8	 mov	 eax, DWORD PTR _this$[ebp]
  00018	83 78 14 10	 cmp	 DWORD PTR [eax+20], 16	; 00000010H
  0001c	72 09		 jb	 SHORT $LN9@c_str
  0001e	c7 45 f4 01 00
	00 00		 mov	 DWORD PTR tv80[ebp], 1
  00025	eb 04		 jmp	 SHORT $LN10@c_str
$LN9@c_str:
  00027	83 65 f4 00	 and	 DWORD PTR tv80[ebp], 0
$LN10@c_str:
  0002b	8a 45 f4	 mov	 al, BYTE PTR tv80[ebp]
  0002e	88 45 ff	 mov	 BYTE PTR $T3[ebp], al

; 2219 :         if (_Large_string_engaged()) {

  00031	0f b6 45 ff	 movzx	 eax, BYTE PTR $T3[ebp]
  00035	85 c0		 test	 eax, eax
  00037	74 0e		 je	 SHORT $LN4@c_str

; 2220 :             _Result = _Unfancy(_Bx._Ptr);

  00039	8b 45 f8	 mov	 eax, DWORD PTR _this$[ebp]
  0003c	8b 00		 mov	 eax, DWORD PTR [eax]
  0003e	89 45 e8	 mov	 DWORD PTR __Ptr$[ebp], eax
; File C:\Program Files (x86)\Microsoft Visual Studio\2019\Community\VC\Tools\MSVC\14.28.29333\include\xstddef

; 289  :     return _Ptr;

  00041	8b 45 e8	 mov	 eax, DWORD PTR __Ptr$[ebp]
  00044	89 45 f0	 mov	 DWORD PTR __Result$2[ebp], eax
$LN4@c_str:
; File C:\Program Files (x86)\Microsoft Visual Studio\2019\Community\VC\Tools\MSVC\14.28.29333\include\xstring

; 2223 :         return _Result;

  00047	8b 45 f0	 mov	 eax, DWORD PTR __Result$2[ebp]
  0004a	89 45 e4	 mov	 DWORD PTR $T1[ebp], eax

; 3752 :         return _Mypair._Myval2._Myptr();

  0004d	8b 45 e4	 mov	 eax, DWORD PTR $T1[ebp]

; 3753 :     }

  00050	c9		 leave
  00051	c3		 ret	 0
?c_str@?$basic_string@DU?$char_traits@D@std@@V?$allocator@D@2@@std@@QBEPBDXZ ENDP ; std::basic_string<char,std::char_traits<char>,std::allocator<char> >::c_str
_TEXT	ENDS
; Function compile flags: /Odspy
; File C:\Program Files (x86)\Microsoft Visual Studio\2019\Community\VC\Tools\MSVC\14.28.29333\include\xstring
;	COMDAT ?assign@?$basic_string@DU?$char_traits@D@std@@V?$allocator@D@2@@std@@QAEAAV12@QBDI@Z
_TEXT	SEGMENT
$T1 = -16						; size = 1
__Old_ptr$2 = -12					; size = 4
_this$ = -8						; size = 4
$T3 = -1						; size = 1
__Ptr$ = 8						; size = 4
__Count$ = 12						; size = 4
?assign@?$basic_string@DU?$char_traits@D@std@@V?$allocator@D@2@@std@@QAEAAV12@QBDI@Z PROC ; std::basic_string<char,std::char_traits<char>,std::allocator<char> >::assign, COMDAT
; _this$ = ecx

; 3042 :     basic_string& assign(_In_reads_(_Count) const _Elem* const _Ptr, _CRT_GUARDOVERFLOW const size_type _Count) {

  00000	55		 push	 ebp
  00001	8b ec		 mov	 ebp, esp
  00003	83 ec 10	 sub	 esp, 16			; 00000010H
  00006	89 4d f8	 mov	 DWORD PTR _this$[ebp], ecx

; 3043 :         // assign [_Ptr, _Ptr + _Count)
; 3044 :         if (_Count <= _Mypair._Myval2._Myres) {

  00009	8b 45 f8	 mov	 eax, DWORD PTR _this$[ebp]
  0000c	8b 4d 0c	 mov	 ecx, DWORD PTR __Count$[ebp]
  0000f	3b 48 14	 cmp	 ecx, DWORD PTR [eax+20]
  00012	77 39		 ja	 SHORT $LN2@assign

; 3045 :             _Elem* const _Old_ptr   = _Mypair._Myval2._Myptr();

  00014	8b 4d f8	 mov	 ecx, DWORD PTR _this$[ebp]
  00017	e8 00 00 00 00	 call	 ?_Myptr@?$_String_val@U?$_Simple_types@D@std@@@std@@QAEPADXZ ; std::_String_val<std::_Simple_types<char> >::_Myptr
  0001c	89 45 f4	 mov	 DWORD PTR __Old_ptr$2[ebp], eax

; 3046 :             _Mypair._Myval2._Mysize = _Count;

  0001f	8b 45 f8	 mov	 eax, DWORD PTR _this$[ebp]
  00022	8b 4d 0c	 mov	 ecx, DWORD PTR __Count$[ebp]
  00025	89 48 10	 mov	 DWORD PTR [eax+16], ecx

; 119  :         _CSTD memmove(_First1, _First2, _Count * sizeof(_Elem));

  00028	ff 75 0c	 push	 DWORD PTR __Count$[ebp]
  0002b	ff 75 08	 push	 DWORD PTR __Ptr$[ebp]
  0002e	ff 75 f4	 push	 DWORD PTR __Old_ptr$2[ebp]
  00031	e8 00 00 00 00	 call	 _memmove
  00036	83 c4 0c	 add	 esp, 12			; 0000000cH

; 3047 :             _Traits::move(_Old_ptr, _Ptr, _Count);
; 3048 :             _Traits::assign(_Old_ptr[_Count], _Elem());

  00039	c6 45 ff 00	 mov	 BYTE PTR $T3[ebp], 0

; 428  :         _Left = _Right;

  0003d	8b 45 f4	 mov	 eax, DWORD PTR __Old_ptr$2[ebp]
  00040	03 45 0c	 add	 eax, DWORD PTR __Count$[ebp]
  00043	8a 4d ff	 mov	 cl, BYTE PTR $T3[ebp]
  00046	88 08		 mov	 BYTE PTR [eax], cl

; 3049 :             return *this;

  00048	8b 45 f8	 mov	 eax, DWORD PTR _this$[ebp]
  0004b	eb 16		 jmp	 SHORT $LN1@assign
$LN2@assign:

; 3050 :         }
; 3051 : 
; 3052 :         return _Reallocate_for(

  0004d	33 c0		 xor	 eax, eax
  0004f	88 45 f0	 mov	 BYTE PTR $T1[ebp], al
  00052	ff 75 08	 push	 DWORD PTR __Ptr$[ebp]
  00055	ff 75 f0	 push	 DWORD PTR $T1[ebp]
  00058	ff 75 0c	 push	 DWORD PTR __Count$[ebp]
  0005b	8b 4d f8	 mov	 ecx, DWORD PTR _this$[ebp]
  0005e	e8 00 00 00 00	 call	 ??$_Reallocate_for@V<lambda_9366063389c5f42a00a5088cf24e69de>@@PBD@?$basic_string@DU?$char_traits@D@std@@V?$allocator@D@2@@std@@AAEAAV01@IV<lambda_9366063389c5f42a00a5088cf24e69de>@@PBD@Z ; std::basic_string<char,std::char_traits<char>,std::allocator<char> >::_Reallocate_for<<lambda_9366063389c5f42a00a5088cf24e69de>,char const *>
$LN1@assign:

; 3053 :             _Count,
; 3054 :             [](_Elem* const _New_ptr, const size_type _Count, const _Elem* const _Ptr) {
; 3055 :                 _Traits::copy(_New_ptr, _Ptr, _Count);
; 3056 :                 _Traits::assign(_New_ptr[_Count], _Elem());
; 3057 :             },
; 3058 :             _Ptr);
; 3059 :     }

  00063	c9		 leave
  00064	c2 08 00	 ret	 8
?assign@?$basic_string@DU?$char_traits@D@std@@V?$allocator@D@2@@std@@QAEAAV12@QBDI@Z ENDP ; std::basic_string<char,std::char_traits<char>,std::allocator<char> >::assign
_TEXT	ENDS
; Function compile flags: /Odspy
; File C:\Program Files (x86)\Microsoft Visual Studio\2019\Community\VC\Tools\MSVC\14.28.29333\include\xstring
;	COMDAT ??1?$basic_string@DU?$char_traits@D@std@@V?$allocator@D@2@@std@@QAE@XZ
_TEXT	SEGMENT
_this$ = -4						; size = 4
??1?$basic_string@DU?$char_traits@D@std@@V?$allocator@D@2@@std@@QAE@XZ PROC ; std::basic_string<char,std::char_traits<char>,std::allocator<char> >::~basic_string<char,std::char_traits<char>,std::allocator<char> >, COMDAT
; _this$ = ecx

; 2800 :     ~basic_string() noexcept {

  00000	55		 push	 ebp
  00001	8b ec		 mov	 ebp, esp
  00003	51		 push	 ecx
  00004	89 4d fc	 mov	 DWORD PTR _this$[ebp], ecx

; 2801 :         _Tidy_deallocate();

  00007	8b 4d fc	 mov	 ecx, DWORD PTR _this$[ebp]
  0000a	e8 00 00 00 00	 call	 ?_Tidy_deallocate@?$basic_string@DU?$char_traits@D@std@@V?$allocator@D@2@@std@@AAEXXZ ; std::basic_string<char,std::char_traits<char>,std::allocator<char> >::_Tidy_deallocate

; 2802 : #if _ITERATOR_DEBUG_LEVEL != 0
; 2803 :         auto&& _Alproxy          = _GET_PROXY_ALLOCATOR(_Alty, _Getal());
; 2804 :         const auto _To_delete    = _Mypair._Myval2._Myproxy;
; 2805 :         _Mypair._Myval2._Myproxy = nullptr;
; 2806 :         _Delete_plain_internal(_Alproxy, _To_delete);
; 2807 : #endif // _ITERATOR_DEBUG_LEVEL != 0
; 2808 :     }

  0000f	c9		 leave
  00010	c3		 ret	 0
??1?$basic_string@DU?$char_traits@D@std@@V?$allocator@D@2@@std@@QAE@XZ ENDP ; std::basic_string<char,std::char_traits<char>,std::allocator<char> >::~basic_string<char,std::char_traits<char>,std::allocator<char> >
_TEXT	ENDS
; Function compile flags: /Odspy
; File C:\Program Files (x86)\Microsoft Visual Studio\2019\Community\VC\Tools\MSVC\14.28.29333\include\xstring
; File C:\Program Files (x86)\Microsoft Visual Studio\2019\Community\VC\Tools\MSVC\14.28.29333\include\xmemory
; File C:\Program Files (x86)\Microsoft Visual Studio\2019\Community\VC\Tools\MSVC\14.28.29333\include\xstring
; File C:\Program Files (x86)\Microsoft Visual Studio\2019\Community\VC\Tools\MSVC\14.28.29333\include\xmemory
; File C:\Program Files (x86)\Microsoft Visual Studio\2019\Community\VC\Tools\MSVC\14.28.29333\include\xstring
;	COMDAT ??0?$basic_string@DU?$char_traits@D@std@@V?$allocator@D@2@@std@@QAE@QBD@Z
_TEXT	SEGMENT
__Alproxy$ = -40					; size = 4
$T2 = -36						; size = 4
$T3 = -32						; size = 4
_this$ = -28						; size = 4
_this$ = -24						; size = 4
_this$ = -20						; size = 4
_$S6$ = -13						; size = 1
__$EHRec$ = -12						; size = 12
__Ptr$ = 8						; size = 4
??0?$basic_string@DU?$char_traits@D@std@@V?$allocator@D@2@@std@@QAE@QBD@Z PROC ; std::basic_string<char,std::char_traits<char>,std::allocator<char> >::basic_string<char,std::char_traits<char>,std::allocator<char> >, COMDAT
; _this$ = ecx

; 2413 :     basic_string(_In_z_ const _Elem* const _Ptr) : _Mypair(_Zero_then_variadic_args_t{}) {

  00000	55		 push	 ebp
  00001	8b ec		 mov	 ebp, esp
  00003	6a ff		 push	 -1
  00005	68 00 00 00 00	 push	 __ehhandler$??0?$basic_string@DU?$char_traits@D@std@@V?$allocator@D@2@@std@@QAE@QBD@Z
  0000a	64 a1 00 00 00
	00		 mov	 eax, DWORD PTR fs:0
  00010	50		 push	 eax
  00011	83 ec 1c	 sub	 esp, 28			; 0000001cH
  00014	a1 00 00 00 00	 mov	 eax, DWORD PTR ___security_cookie
  00019	33 c5		 xor	 eax, ebp
  0001b	50		 push	 eax
  0001c	8d 45 f4	 lea	 eax, DWORD PTR __$EHRec$[ebp]
  0001f	64 a3 00 00 00
	00		 mov	 DWORD PTR fs:0, eax
  00025	89 4d ec	 mov	 DWORD PTR _this$[ebp], ecx
  00028	8b 45 ec	 mov	 eax, DWORD PTR _this$[ebp]
  0002b	89 45 e4	 mov	 DWORD PTR _this$[ebp], eax
; File C:\Program Files (x86)\Microsoft Visual Studio\2019\Community\VC\Tools\MSVC\14.28.29333\include\xmemory

; 1339 :         : _Ty1(), _Myval2(_STD forward<_Other2>(_Val2)...) {}

  0002e	8b 45 e4	 mov	 eax, DWORD PTR _this$[ebp]
  00031	89 45 e8	 mov	 DWORD PTR _this$[ebp], eax
; File C:\Program Files (x86)\Microsoft Visual Studio\2019\Community\VC\Tools\MSVC\14.28.29333\include\xstring

; 2198 :     _String_val() noexcept : _Bx(), _Mysize(0), _Myres(0) {}

  00034	8b 45 e8	 mov	 eax, DWORD PTR _this$[ebp]
  00037	83 60 10 00	 and	 DWORD PTR [eax+16], 0
  0003b	8b 45 e8	 mov	 eax, DWORD PTR _this$[ebp]
  0003e	83 60 14 00	 and	 DWORD PTR [eax+20], 0

; 2413 :     basic_string(_In_z_ const _Elem* const _Ptr) : _Mypair(_Zero_then_variadic_args_t{}) {

  00042	83 65 fc 00	 and	 DWORD PTR __$EHRec$[ebp+8], 0

; 2414 :         auto&& _Alproxy = _GET_PROXY_ALLOCATOR(_Alty, _Getal());

  00046	8d 45 f3	 lea	 eax, DWORD PTR _$S6$[ebp]
  00049	89 45 d8	 mov	 DWORD PTR __Alproxy$[ebp], eax

; 2415 :         _Container_proxy_ptr<_Alty> _Proxy(_Alproxy, _Mypair._Myval2);
; 2416 :         _Tidy_init();

  0004c	8b 4d ec	 mov	 ecx, DWORD PTR _this$[ebp]
  0004f	e8 00 00 00 00	 call	 ?_Tidy_init@?$basic_string@DU?$char_traits@D@std@@V?$allocator@D@2@@std@@AAEXXZ ; std::basic_string<char,std::char_traits<char>,std::allocator<char> >::_Tidy_init

; 389  :         return _CSTD strlen(reinterpret_cast<const char*>(_First));

  00054	ff 75 08	 push	 DWORD PTR __Ptr$[ebp]
  00057	e8 00 00 00 00	 call	 _strlen
  0005c	59		 pop	 ecx
  0005d	89 45 e0	 mov	 DWORD PTR $T3[ebp], eax
; File C:\Program Files (x86)\Microsoft Visual Studio\2019\Community\VC\Tools\MSVC\14.28.29333\include\xmemory

; 997  :     return _Len;

  00060	8b 45 e0	 mov	 eax, DWORD PTR $T3[ebp]
  00063	89 45 dc	 mov	 DWORD PTR $T2[ebp], eax
; File C:\Program Files (x86)\Microsoft Visual Studio\2019\Community\VC\Tools\MSVC\14.28.29333\include\xstring

; 3062 :         return assign(_Ptr, _Convert_size<size_type>(_Traits::length(_Ptr)));

  00066	ff 75 dc	 push	 DWORD PTR $T2[ebp]
  00069	ff 75 08	 push	 DWORD PTR __Ptr$[ebp]
  0006c	8b 4d ec	 mov	 ecx, DWORD PTR _this$[ebp]
  0006f	e8 00 00 00 00	 call	 ?assign@?$basic_string@DU?$char_traits@D@std@@V?$allocator@D@2@@std@@QAEAAV12@QBDI@Z ; std::basic_string<char,std::char_traits<char>,std::allocator<char> >::assign

; 2417 :         assign(_Ptr);
; 2418 :         _Proxy._Release();
; 2419 :     }

  00074	83 4d fc ff	 or	 DWORD PTR __$EHRec$[ebp+8], -1
  00078	8b 45 ec	 mov	 eax, DWORD PTR _this$[ebp]
  0007b	8b 4d f4	 mov	 ecx, DWORD PTR __$EHRec$[ebp]
  0007e	64 89 0d 00 00
	00 00		 mov	 DWORD PTR fs:0, ecx
  00085	59		 pop	 ecx
  00086	c9		 leave
  00087	c2 04 00	 ret	 4
_TEXT	ENDS
;	COMDAT text$x
text$x	SEGMENT
__unwindfunclet$??0?$basic_string@DU?$char_traits@D@std@@V?$allocator@D@2@@std@@QAE@QBD@Z$0:
  00000	8b 4d ec	 mov	 ecx, DWORD PTR _this$[ebp]
  00003	e9 00 00 00 00	 jmp	 ??1?$_Compressed_pair@V?$allocator@D@std@@V?$_String_val@U?$_Simple_types@D@std@@@2@$00@std@@QAE@XZ
  00008	cc		 int	 3
  00009	cc		 int	 3
  0000a	cc		 int	 3
  0000b	cc		 int	 3
  0000c	cc		 int	 3
__ehhandler$??0?$basic_string@DU?$char_traits@D@std@@V?$allocator@D@2@@std@@QAE@QBD@Z:
  0000d	90		 npad	 1
  0000e	90		 npad	 1
  0000f	8b 54 24 08	 mov	 edx, DWORD PTR [esp+8]
  00013	8d 42 0c	 lea	 eax, DWORD PTR [edx+12]
  00016	8b 4a e0	 mov	 ecx, DWORD PTR [edx-32]
  00019	33 c8		 xor	 ecx, eax
  0001b	e8 00 00 00 00	 call	 @__security_check_cookie@4
  00020	b8 00 00 00 00	 mov	 eax, OFFSET __ehfuncinfo$??0?$basic_string@DU?$char_traits@D@std@@V?$allocator@D@2@@std@@QAE@QBD@Z
  00025	e9 00 00 00 00	 jmp	 ___CxxFrameHandler3
text$x	ENDS
??0?$basic_string@DU?$char_traits@D@std@@V?$allocator@D@2@@std@@QAE@QBD@Z ENDP ; std::basic_string<char,std::char_traits<char>,std::allocator<char> >::basic_string<char,std::char_traits<char>,std::allocator<char> >
; Function compile flags: /Odspy
; File C:\Program Files (x86)\Microsoft Visual Studio\2019\Community\VC\Tools\MSVC\14.28.29333\include\xstring
; File C:\Program Files (x86)\Microsoft Visual Studio\2019\Community\VC\Tools\MSVC\14.28.29333\include\xstddef
; File C:\Program Files (x86)\Microsoft Visual Studio\2019\Community\VC\Tools\MSVC\14.28.29333\include\xstring
;	COMDAT ?_Myptr@?$_String_val@U?$_Simple_types@D@std@@@std@@QBEPBDXZ
_TEXT	SEGMENT
__Ptr$ = -20						; size = 4
__Result$ = -16						; size = 4
tv76 = -12						; size = 4
_this$ = -8						; size = 4
$T1 = -1						; size = 1
?_Myptr@?$_String_val@U?$_Simple_types@D@std@@@std@@QBEPBDXZ PROC ; std::_String_val<std::_Simple_types<char> >::_Myptr, COMDAT
; _this$ = ecx

; 2217 :     const value_type* _Myptr() const noexcept {

  00000	55		 push	 ebp
  00001	8b ec		 mov	 ebp, esp
  00003	83 ec 14	 sub	 esp, 20			; 00000014H
  00006	89 4d f8	 mov	 DWORD PTR _this$[ebp], ecx

; 2218 :         const value_type* _Result = _Bx._Buf;

  00009	8b 45 f8	 mov	 eax, DWORD PTR _this$[ebp]
  0000c	89 45 f0	 mov	 DWORD PTR __Result$[ebp], eax

; 2227 :         return _BUF_SIZE <= _Myres;

  0000f	8b 45 f8	 mov	 eax, DWORD PTR _this$[ebp]
  00012	83 78 14 10	 cmp	 DWORD PTR [eax+20], 16	; 00000010H
  00016	72 09		 jb	 SHORT $LN6@Myptr
  00018	c7 45 f4 01 00
	00 00		 mov	 DWORD PTR tv76[ebp], 1
  0001f	eb 04		 jmp	 SHORT $LN7@Myptr
$LN6@Myptr:
  00021	83 65 f4 00	 and	 DWORD PTR tv76[ebp], 0
$LN7@Myptr:
  00025	8a 45 f4	 mov	 al, BYTE PTR tv76[ebp]
  00028	88 45 ff	 mov	 BYTE PTR $T1[ebp], al

; 2219 :         if (_Large_string_engaged()) {

  0002b	0f b6 45 ff	 movzx	 eax, BYTE PTR $T1[ebp]
  0002f	85 c0		 test	 eax, eax
  00031	74 0e		 je	 SHORT $LN2@Myptr

; 2220 :             _Result = _Unfancy(_Bx._Ptr);

  00033	8b 45 f8	 mov	 eax, DWORD PTR _this$[ebp]
  00036	8b 00		 mov	 eax, DWORD PTR [eax]
  00038	89 45 ec	 mov	 DWORD PTR __Ptr$[ebp], eax
; File C:\Program Files (x86)\Microsoft Visual Studio\2019\Community\VC\Tools\MSVC\14.28.29333\include\xstddef

; 289  :     return _Ptr;

  0003b	8b 45 ec	 mov	 eax, DWORD PTR __Ptr$[ebp]
  0003e	89 45 f0	 mov	 DWORD PTR __Result$[ebp], eax
$LN2@Myptr:
; File C:\Program Files (x86)\Microsoft Visual Studio\2019\Community\VC\Tools\MSVC\14.28.29333\include\xstring

; 2223 :         return _Result;

  00041	8b 45 f0	 mov	 eax, DWORD PTR __Result$[ebp]

; 2224 :     }

  00044	c9		 leave
  00045	c3		 ret	 0
?_Myptr@?$_String_val@U?$_Simple_types@D@std@@@std@@QBEPBDXZ ENDP ; std::_String_val<std::_Simple_types<char> >::_Myptr
_TEXT	ENDS
; Function compile flags: /Odspy
; File C:\Program Files (x86)\Microsoft Visual Studio\2019\Community\VC\Tools\MSVC\14.28.29333\include\xstring
; File C:\Program Files (x86)\Microsoft Visual Studio\2019\Community\VC\Tools\MSVC\14.28.29333\include\xstddef
; File C:\Program Files (x86)\Microsoft Visual Studio\2019\Community\VC\Tools\MSVC\14.28.29333\include\xstring
;	COMDAT ?_Myptr@?$_String_val@U?$_Simple_types@D@std@@@std@@QAEPADXZ
_TEXT	SEGMENT
__Ptr$ = -20						; size = 4
__Result$ = -16						; size = 4
tv76 = -12						; size = 4
_this$ = -8						; size = 4
$T1 = -1						; size = 1
?_Myptr@?$_String_val@U?$_Simple_types@D@std@@@std@@QAEPADXZ PROC ; std::_String_val<std::_Simple_types<char> >::_Myptr, COMDAT
; _this$ = ecx

; 2208 :     value_type* _Myptr() noexcept {

  00000	55		 push	 ebp
  00001	8b ec		 mov	 ebp, esp
  00003	83 ec 14	 sub	 esp, 20			; 00000014H
  00006	89 4d f8	 mov	 DWORD PTR _this$[ebp], ecx

; 2209 :         value_type* _Result = _Bx._Buf;

  00009	8b 45 f8	 mov	 eax, DWORD PTR _this$[ebp]
  0000c	89 45 f0	 mov	 DWORD PTR __Result$[ebp], eax

; 2227 :         return _BUF_SIZE <= _Myres;

  0000f	8b 45 f8	 mov	 eax, DWORD PTR _this$[ebp]
  00012	83 78 14 10	 cmp	 DWORD PTR [eax+20], 16	; 00000010H
  00016	72 09		 jb	 SHORT $LN6@Myptr
  00018	c7 45 f4 01 00
	00 00		 mov	 DWORD PTR tv76[ebp], 1
  0001f	eb 04		 jmp	 SHORT $LN7@Myptr
$LN6@Myptr:
  00021	83 65 f4 00	 and	 DWORD PTR tv76[ebp], 0
$LN7@Myptr:
  00025	8a 45 f4	 mov	 al, BYTE PTR tv76[ebp]
  00028	88 45 ff	 mov	 BYTE PTR $T1[ebp], al

; 2210 :         if (_Large_string_engaged()) {

  0002b	0f b6 45 ff	 movzx	 eax, BYTE PTR $T1[ebp]
  0002f	85 c0		 test	 eax, eax
  00031	74 0e		 je	 SHORT $LN2@Myptr

; 2211 :             _Result = _Unfancy(_Bx._Ptr);

  00033	8b 45 f8	 mov	 eax, DWORD PTR _this$[ebp]
  00036	8b 00		 mov	 eax, DWORD PTR [eax]
  00038	89 45 ec	 mov	 DWORD PTR __Ptr$[ebp], eax
; File C:\Program Files (x86)\Microsoft Visual Studio\2019\Community\VC\Tools\MSVC\14.28.29333\include\xstddef

; 289  :     return _Ptr;

  0003b	8b 45 ec	 mov	 eax, DWORD PTR __Ptr$[ebp]
  0003e	89 45 f0	 mov	 DWORD PTR __Result$[ebp], eax
$LN2@Myptr:
; File C:\Program Files (x86)\Microsoft Visual Studio\2019\Community\VC\Tools\MSVC\14.28.29333\include\xstring

; 2214 :         return _Result;

  00041	8b 45 f0	 mov	 eax, DWORD PTR __Result$[ebp]

; 2215 :     }

  00044	c9		 leave
  00045	c3		 ret	 0
?_Myptr@?$_String_val@U?$_Simple_types@D@std@@@std@@QAEPADXZ ENDP ; std::_String_val<std::_Simple_types<char> >::_Myptr
_TEXT	ENDS
; Function compile flags: /Odspy
; File C:\Program Files (x86)\Microsoft Visual Studio\2019\Community\VC\Tools\MSVC\14.28.29333\include\xstring
;	COMDAT ?_Xlen_string@std@@YAXXZ
_TEXT	SEGMENT
?_Xlen_string@std@@YAXXZ PROC				; std::_Xlen_string, COMDAT

; 2274 : [[noreturn]] inline void _Xlen_string() {

  00000	55		 push	 ebp
  00001	8b ec		 mov	 ebp, esp

; 2275 :     _Xlength_error("string too long");

  00003	68 00 00 00 00	 push	 OFFSET ??_C@_0BA@JFNIOLAK@string?5too?5long@
  00008	e8 00 00 00 00	 call	 ?_Xlength_error@std@@YAXPBD@Z ; std::_Xlength_error
$LN2@Xlen_strin:

; 2276 : }

  0000d	5d		 pop	 ebp
  0000e	c3		 ret	 0
?_Xlen_string@std@@YAXXZ ENDP				; std::_Xlen_string
_TEXT	ENDS
; Function compile flags: /Odspy
; File C:\Program Files (x86)\Microsoft Visual Studio\2019\Community\VC\Tools\MSVC\14.28.29333\include\xmemory
;	COMDAT ?_Adjust_manually_vector_aligned@std@@YAXAAPAXAAI@Z
_TEXT	SEGMENT
__Min_back_shift$ = -16					; size = 4
__Ptr_user$ = -12					; size = 4
__Ptr_container$ = -8					; size = 4
__Back_shift$ = -4					; size = 4
__Ptr$ = 8						; size = 4
__Bytes$ = 12						; size = 4
?_Adjust_manually_vector_aligned@std@@YAXAAPAXAAI@Z PROC ; std::_Adjust_manually_vector_aligned, COMDAT

; 132  : inline void _Adjust_manually_vector_aligned(void*& _Ptr, size_t& _Bytes) {

  00000	55		 push	 ebp
  00001	8b ec		 mov	 ebp, esp
  00003	83 ec 10	 sub	 esp, 16			; 00000010H

; 133  :     // adjust parameters from _Allocate_manually_vector_aligned to pass to operator delete
; 134  :     _Bytes += _Non_user_size;

  00006	8b 45 0c	 mov	 eax, DWORD PTR __Bytes$[ebp]
  00009	8b 00		 mov	 eax, DWORD PTR [eax]
  0000b	83 c0 23	 add	 eax, 35			; 00000023H
  0000e	8b 4d 0c	 mov	 ecx, DWORD PTR __Bytes$[ebp]
  00011	89 01		 mov	 DWORD PTR [ecx], eax

; 135  : 
; 136  :     const uintptr_t* const _Ptr_user = reinterpret_cast<uintptr_t*>(_Ptr);

  00013	8b 45 08	 mov	 eax, DWORD PTR __Ptr$[ebp]
  00016	8b 00		 mov	 eax, DWORD PTR [eax]
  00018	89 45 f4	 mov	 DWORD PTR __Ptr_user$[ebp], eax

; 137  :     const uintptr_t _Ptr_container   = _Ptr_user[-1];

  0001b	6a 04		 push	 4
  0001d	58		 pop	 eax
  0001e	6b c0 ff	 imul	 eax, eax, -1
  00021	8b 4d f4	 mov	 ecx, DWORD PTR __Ptr_user$[ebp]
  00024	8b 04 01	 mov	 eax, DWORD PTR [ecx+eax]
  00027	89 45 f8	 mov	 DWORD PTR __Ptr_container$[ebp], eax

; 138  : 
; 139  :     // If the following asserts, it likely means that we are performing
; 140  :     // an aligned delete on memory coming from an unaligned allocation.
; 141  :     _STL_ASSERT(_Ptr_user[-2] == _Big_allocation_sentinel, "invalid argument");
; 142  : 
; 143  :     // Extra paranoia on aligned allocation/deallocation; ensure _Ptr_container is
; 144  :     // in range [_Min_back_shift, _Non_user_size]
; 145  : #ifdef _DEBUG
; 146  :     constexpr uintptr_t _Min_back_shift = 2 * sizeof(void*);
; 147  : #else // ^^^ _DEBUG ^^^ // vvv !_DEBUG vvv
; 148  :     constexpr uintptr_t _Min_back_shift = sizeof(void*);

  0002a	c7 45 f0 04 00
	00 00		 mov	 DWORD PTR __Min_back_shift$[ebp], 4

; 149  : #endif // _DEBUG
; 150  :     const uintptr_t _Back_shift = reinterpret_cast<uintptr_t>(_Ptr) - _Ptr_container;

  00031	8b 45 08	 mov	 eax, DWORD PTR __Ptr$[ebp]
  00034	8b 00		 mov	 eax, DWORD PTR [eax]
  00036	2b 45 f8	 sub	 eax, DWORD PTR __Ptr_container$[ebp]
  00039	89 45 fc	 mov	 DWORD PTR __Back_shift$[ebp], eax
$LN4@Adjust_man:

; 151  :     _STL_VERIFY(_Back_shift >= _Min_back_shift && _Back_shift <= _Non_user_size, "invalid argument");

  0003c	83 7d fc 04	 cmp	 DWORD PTR __Back_shift$[ebp], 4
  00040	72 08		 jb	 SHORT $LN7@Adjust_man
  00042	83 7d fc 23	 cmp	 DWORD PTR __Back_shift$[ebp], 35 ; 00000023H
  00046	77 02		 ja	 SHORT $LN7@Adjust_man
  00048	eb 09		 jmp	 SHORT $LN2@Adjust_man
$LN7@Adjust_man:
  0004a	e8 00 00 00 00	 call	 __invalid_parameter_noinfo_noreturn
  0004f	33 c0		 xor	 eax, eax
  00051	75 f7		 jne	 SHORT $LN7@Adjust_man
$LN2@Adjust_man:
  00053	33 c0		 xor	 eax, eax
  00055	75 e5		 jne	 SHORT $LN4@Adjust_man

; 152  :     _Ptr = reinterpret_cast<void*>(_Ptr_container);

  00057	8b 45 08	 mov	 eax, DWORD PTR __Ptr$[ebp]
  0005a	8b 4d f8	 mov	 ecx, DWORD PTR __Ptr_container$[ebp]
  0005d	89 08		 mov	 DWORD PTR [eax], ecx
$LN10@Adjust_man:

; 153  : }

  0005f	c9		 leave
  00060	c3		 ret	 0
?_Adjust_manually_vector_aligned@std@@YAXAAPAXAAI@Z ENDP ; std::_Adjust_manually_vector_aligned
_TEXT	ENDS
; Function compile flags: /Odspy
; File C:\Program Files (x86)\Microsoft Visual Studio\2019\Community\VC\Tools\MSVC\14.28.29333\include\exception
;	COMDAT ?_Throw_bad_array_new_length@std@@YAXXZ
_TEXT	SEGMENT
$T1 = -12						; size = 12
?_Throw_bad_array_new_length@std@@YAXXZ PROC		; std::_Throw_bad_array_new_length, COMDAT

; 320  : [[noreturn]] inline void _Throw_bad_array_new_length() {

  00000	55		 push	 ebp
  00001	8b ec		 mov	 ebp, esp
  00003	83 ec 0c	 sub	 esp, 12			; 0000000cH

; 321  :     _THROW(bad_array_new_length{});

  00006	8d 4d f4	 lea	 ecx, DWORD PTR $T1[ebp]
  00009	e8 00 00 00 00	 call	 ??0bad_array_new_length@std@@QAE@XZ ; std::bad_array_new_length::bad_array_new_length
  0000e	68 00 00 00 00	 push	 OFFSET __TI3?AVbad_array_new_length@std@@
  00013	8d 45 f4	 lea	 eax, DWORD PTR $T1[ebp]
  00016	50		 push	 eax
  00017	e8 00 00 00 00	 call	 __CxxThrowException@8
$LN2@Throw_bad_:

; 322  : }

  0001c	c9		 leave
  0001d	c3		 ret	 0
?_Throw_bad_array_new_length@std@@YAXXZ ENDP		; std::_Throw_bad_array_new_length
_TEXT	ENDS
; Function compile flags: /Odspy
; File C:\Program Files (x86)\Microsoft Visual Studio\2019\Community\VC\Tools\MSVC\14.28.29333\include\vcruntime_exception.h
;	COMDAT ??_Gbad_array_new_length@std@@UAEPAXI@Z
_TEXT	SEGMENT
_this$ = -4						; size = 4
___flags$ = 8						; size = 4
??_Gbad_array_new_length@std@@UAEPAXI@Z PROC		; std::bad_array_new_length::`scalar deleting destructor', COMDAT
; _this$ = ecx
  00000	55		 push	 ebp
  00001	8b ec		 mov	 ebp, esp
  00003	51		 push	 ecx
  00004	89 4d fc	 mov	 DWORD PTR _this$[ebp], ecx

; 89   :     {

  00007	8b 45 fc	 mov	 eax, DWORD PTR _this$[ebp]
  0000a	c7 00 00 00 00
	00		 mov	 DWORD PTR [eax], OFFSET ??_7exception@std@@6B@

; 90   :         __std_exception_destroy(&_Data);

  00010	8b 45 fc	 mov	 eax, DWORD PTR _this$[ebp]
  00013	83 c0 04	 add	 eax, 4
  00016	50		 push	 eax
  00017	e8 00 00 00 00	 call	 ___std_exception_destroy
  0001c	59		 pop	 ecx
  0001d	8b 45 08	 mov	 eax, DWORD PTR ___flags$[ebp]
  00020	83 e0 01	 and	 eax, 1
  00023	74 0c		 je	 SHORT $LN2@scalar
  00025	6a 0c		 push	 12			; 0000000cH
  00027	ff 75 fc	 push	 DWORD PTR _this$[ebp]
  0002a	e8 00 00 00 00	 call	 ??3@YAXPAXI@Z		; operator delete
  0002f	59		 pop	 ecx
  00030	59		 pop	 ecx
$LN2@scalar:
  00031	8b 45 fc	 mov	 eax, DWORD PTR _this$[ebp]
  00034	c9		 leave
  00035	c2 04 00	 ret	 4
??_Gbad_array_new_length@std@@UAEPAXI@Z ENDP		; std::bad_array_new_length::`scalar deleting destructor'
_TEXT	ENDS
; Function compile flags: /Odspy
;	COMDAT ??0bad_array_new_length@std@@QAE@ABV01@@Z
_TEXT	SEGMENT
_this$ = -4						; size = 4
___that$ = 8						; size = 4
??0bad_array_new_length@std@@QAE@ABV01@@Z PROC		; std::bad_array_new_length::bad_array_new_length, COMDAT
; _this$ = ecx
  00000	55		 push	 ebp
  00001	8b ec		 mov	 ebp, esp
  00003	51		 push	 ecx
  00004	89 4d fc	 mov	 DWORD PTR _this$[ebp], ecx
  00007	ff 75 08	 push	 DWORD PTR ___that$[ebp]
  0000a	8b 4d fc	 mov	 ecx, DWORD PTR _this$[ebp]
  0000d	e8 00 00 00 00	 call	 ??0exception@std@@QAE@ABV01@@Z ; std::exception::exception
  00012	8b 45 fc	 mov	 eax, DWORD PTR _this$[ebp]
  00015	c7 00 00 00 00
	00		 mov	 DWORD PTR [eax], OFFSET ??_7bad_alloc@std@@6B@
  0001b	8b 45 fc	 mov	 eax, DWORD PTR _this$[ebp]
  0001e	c7 00 00 00 00
	00		 mov	 DWORD PTR [eax], OFFSET ??_7bad_array_new_length@std@@6B@
  00024	8b 45 fc	 mov	 eax, DWORD PTR _this$[ebp]
  00027	c9		 leave
  00028	c2 04 00	 ret	 4
??0bad_array_new_length@std@@QAE@ABV01@@Z ENDP		; std::bad_array_new_length::bad_array_new_length
_TEXT	ENDS
; Function compile flags: /Odspy
; File C:\Program Files (x86)\Microsoft Visual Studio\2019\Community\VC\Tools\MSVC\14.28.29333\include\vcruntime_exception.h
;	COMDAT ??1bad_array_new_length@std@@UAE@XZ
_TEXT	SEGMENT
_this$ = -4						; size = 4
??1bad_array_new_length@std@@UAE@XZ PROC		; std::bad_array_new_length::~bad_array_new_length, COMDAT
; _this$ = ecx
  00000	55		 push	 ebp
  00001	8b ec		 mov	 ebp, esp
  00003	51		 push	 ecx
  00004	89 4d fc	 mov	 DWORD PTR _this$[ebp], ecx

; 89   :     {

  00007	8b 45 fc	 mov	 eax, DWORD PTR _this$[ebp]
  0000a	c7 00 00 00 00
	00		 mov	 DWORD PTR [eax], OFFSET ??_7exception@std@@6B@

; 90   :         __std_exception_destroy(&_Data);

  00010	8b 45 fc	 mov	 eax, DWORD PTR _this$[ebp]
  00013	83 c0 04	 add	 eax, 4
  00016	50		 push	 eax
  00017	e8 00 00 00 00	 call	 ___std_exception_destroy
  0001c	59		 pop	 ecx
  0001d	c9		 leave
  0001e	c3		 ret	 0
??1bad_array_new_length@std@@UAE@XZ ENDP		; std::bad_array_new_length::~bad_array_new_length
_TEXT	ENDS
; Function compile flags: /Odspy
; File C:\Program Files (x86)\Microsoft Visual Studio\2019\Community\VC\Tools\MSVC\14.28.29333\include\vcruntime_exception.h
;	COMDAT ??0bad_array_new_length@std@@QAE@XZ
_TEXT	SEGMENT
_this$ = -4						; size = 4
??0bad_array_new_length@std@@QAE@XZ PROC		; std::bad_array_new_length::bad_array_new_length, COMDAT
; _this$ = ecx

; 141  :     {

  00000	55		 push	 ebp
  00001	8b ec		 mov	 ebp, esp
  00003	51		 push	 ecx
  00004	89 4d fc	 mov	 DWORD PTR _this$[ebp], ecx

; 66   :     {

  00007	8b 45 fc	 mov	 eax, DWORD PTR _this$[ebp]
  0000a	c7 00 00 00 00
	00		 mov	 DWORD PTR [eax], OFFSET ??_7exception@std@@6B@

; 65   :         : _Data()

  00010	33 c0		 xor	 eax, eax
  00012	8b 4d fc	 mov	 ecx, DWORD PTR _this$[ebp]
  00015	83 c1 04	 add	 ecx, 4
  00018	89 01		 mov	 DWORD PTR [ecx], eax
  0001a	89 41 04	 mov	 DWORD PTR [ecx+4], eax

; 67   :         _Data._What = _Message;

  0001d	8b 45 fc	 mov	 eax, DWORD PTR _this$[ebp]
  00020	c7 40 04 00 00
	00 00		 mov	 DWORD PTR [eax+4], OFFSET ??_C@_0BF@KINCDENJ@bad?5array?5new?5length@

; 130  :     {

  00027	8b 45 fc	 mov	 eax, DWORD PTR _this$[ebp]
  0002a	c7 00 00 00 00
	00		 mov	 DWORD PTR [eax], OFFSET ??_7bad_alloc@std@@6B@

; 141  :     {

  00030	8b 45 fc	 mov	 eax, DWORD PTR _this$[ebp]
  00033	c7 00 00 00 00
	00		 mov	 DWORD PTR [eax], OFFSET ??_7bad_array_new_length@std@@6B@

; 142  :     }

  00039	8b 45 fc	 mov	 eax, DWORD PTR _this$[ebp]
  0003c	c9		 leave
  0003d	c3		 ret	 0
??0bad_array_new_length@std@@QAE@XZ ENDP		; std::bad_array_new_length::bad_array_new_length
_TEXT	ENDS
; Function compile flags: /Odspy
; File C:\Program Files (x86)\Microsoft Visual Studio\2019\Community\VC\Tools\MSVC\14.28.29333\include\vcruntime_exception.h
;	COMDAT ??_Gbad_alloc@std@@UAEPAXI@Z
_TEXT	SEGMENT
_this$ = -4						; size = 4
___flags$ = 8						; size = 4
??_Gbad_alloc@std@@UAEPAXI@Z PROC			; std::bad_alloc::`scalar deleting destructor', COMDAT
; _this$ = ecx
  00000	55		 push	 ebp
  00001	8b ec		 mov	 ebp, esp
  00003	51		 push	 ecx
  00004	89 4d fc	 mov	 DWORD PTR _this$[ebp], ecx

; 89   :     {

  00007	8b 45 fc	 mov	 eax, DWORD PTR _this$[ebp]
  0000a	c7 00 00 00 00
	00		 mov	 DWORD PTR [eax], OFFSET ??_7exception@std@@6B@

; 90   :         __std_exception_destroy(&_Data);

  00010	8b 45 fc	 mov	 eax, DWORD PTR _this$[ebp]
  00013	83 c0 04	 add	 eax, 4
  00016	50		 push	 eax
  00017	e8 00 00 00 00	 call	 ___std_exception_destroy
  0001c	59		 pop	 ecx
  0001d	8b 45 08	 mov	 eax, DWORD PTR ___flags$[ebp]
  00020	83 e0 01	 and	 eax, 1
  00023	74 0c		 je	 SHORT $LN2@scalar
  00025	6a 0c		 push	 12			; 0000000cH
  00027	ff 75 fc	 push	 DWORD PTR _this$[ebp]
  0002a	e8 00 00 00 00	 call	 ??3@YAXPAXI@Z		; operator delete
  0002f	59		 pop	 ecx
  00030	59		 pop	 ecx
$LN2@scalar:
  00031	8b 45 fc	 mov	 eax, DWORD PTR _this$[ebp]
  00034	c9		 leave
  00035	c2 04 00	 ret	 4
??_Gbad_alloc@std@@UAEPAXI@Z ENDP			; std::bad_alloc::`scalar deleting destructor'
_TEXT	ENDS
; Function compile flags: /Odspy
;	COMDAT ??0bad_alloc@std@@QAE@ABV01@@Z
_TEXT	SEGMENT
_this$ = -4						; size = 4
___that$ = 8						; size = 4
??0bad_alloc@std@@QAE@ABV01@@Z PROC			; std::bad_alloc::bad_alloc, COMDAT
; _this$ = ecx
  00000	55		 push	 ebp
  00001	8b ec		 mov	 ebp, esp
  00003	51		 push	 ecx
  00004	89 4d fc	 mov	 DWORD PTR _this$[ebp], ecx
  00007	ff 75 08	 push	 DWORD PTR ___that$[ebp]
  0000a	8b 4d fc	 mov	 ecx, DWORD PTR _this$[ebp]
  0000d	e8 00 00 00 00	 call	 ??0exception@std@@QAE@ABV01@@Z ; std::exception::exception
  00012	8b 45 fc	 mov	 eax, DWORD PTR _this$[ebp]
  00015	c7 00 00 00 00
	00		 mov	 DWORD PTR [eax], OFFSET ??_7bad_alloc@std@@6B@
  0001b	8b 45 fc	 mov	 eax, DWORD PTR _this$[ebp]
  0001e	c9		 leave
  0001f	c2 04 00	 ret	 4
??0bad_alloc@std@@QAE@ABV01@@Z ENDP			; std::bad_alloc::bad_alloc
_TEXT	ENDS
; Function compile flags: /Odspy
; File C:\Program Files (x86)\Microsoft Visual Studio\2019\Community\VC\Tools\MSVC\14.28.29333\include\vcruntime_exception.h
;	COMDAT ??_Gexception@std@@UAEPAXI@Z
_TEXT	SEGMENT
_this$ = -4						; size = 4
___flags$ = 8						; size = 4
??_Gexception@std@@UAEPAXI@Z PROC			; std::exception::`scalar deleting destructor', COMDAT
; _this$ = ecx
  00000	55		 push	 ebp
  00001	8b ec		 mov	 ebp, esp
  00003	51		 push	 ecx
  00004	89 4d fc	 mov	 DWORD PTR _this$[ebp], ecx

; 89   :     {

  00007	8b 45 fc	 mov	 eax, DWORD PTR _this$[ebp]
  0000a	c7 00 00 00 00
	00		 mov	 DWORD PTR [eax], OFFSET ??_7exception@std@@6B@

; 90   :         __std_exception_destroy(&_Data);

  00010	8b 45 fc	 mov	 eax, DWORD PTR _this$[ebp]
  00013	83 c0 04	 add	 eax, 4
  00016	50		 push	 eax
  00017	e8 00 00 00 00	 call	 ___std_exception_destroy
  0001c	59		 pop	 ecx
  0001d	8b 45 08	 mov	 eax, DWORD PTR ___flags$[ebp]
  00020	83 e0 01	 and	 eax, 1
  00023	74 0c		 je	 SHORT $LN2@scalar
  00025	6a 0c		 push	 12			; 0000000cH
  00027	ff 75 fc	 push	 DWORD PTR _this$[ebp]
  0002a	e8 00 00 00 00	 call	 ??3@YAXPAXI@Z		; operator delete
  0002f	59		 pop	 ecx
  00030	59		 pop	 ecx
$LN2@scalar:
  00031	8b 45 fc	 mov	 eax, DWORD PTR _this$[ebp]
  00034	c9		 leave
  00035	c2 04 00	 ret	 4
??_Gexception@std@@UAEPAXI@Z ENDP			; std::exception::`scalar deleting destructor'
_TEXT	ENDS
; Function compile flags: /Odspy
; File C:\Program Files (x86)\Microsoft Visual Studio\2019\Community\VC\Tools\MSVC\14.28.29333\include\vcruntime_exception.h
;	COMDAT ?what@exception@std@@UBEPBDXZ
_TEXT	SEGMENT
tv69 = -8						; size = 4
_this$ = -4						; size = 4
?what@exception@std@@UBEPBDXZ PROC			; std::exception::what, COMDAT
; _this$ = ecx

; 94   :     {

  00000	55		 push	 ebp
  00001	8b ec		 mov	 ebp, esp
  00003	51		 push	 ecx
  00004	51		 push	 ecx
  00005	89 4d fc	 mov	 DWORD PTR _this$[ebp], ecx

; 95   :         return _Data._What ? _Data._What : "Unknown exception";

  00008	8b 45 fc	 mov	 eax, DWORD PTR _this$[ebp]
  0000b	83 78 04 00	 cmp	 DWORD PTR [eax+4], 0
  0000f	74 0b		 je	 SHORT $LN3@what
  00011	8b 45 fc	 mov	 eax, DWORD PTR _this$[ebp]
  00014	8b 40 04	 mov	 eax, DWORD PTR [eax+4]
  00017	89 45 f8	 mov	 DWORD PTR tv69[ebp], eax
  0001a	eb 07		 jmp	 SHORT $LN4@what
$LN3@what:
  0001c	c7 45 f8 00 00
	00 00		 mov	 DWORD PTR tv69[ebp], OFFSET ??_C@_0BC@EOODALEL@Unknown?5exception@
$LN4@what:
  00023	8b 45 f8	 mov	 eax, DWORD PTR tv69[ebp]

; 96   :     }

  00026	c9		 leave
  00027	c3		 ret	 0
?what@exception@std@@UBEPBDXZ ENDP			; std::exception::what
_TEXT	ENDS
; Function compile flags: /Odspy
; File C:\Program Files (x86)\Microsoft Visual Studio\2019\Community\VC\Tools\MSVC\14.28.29333\include\vcruntime_exception.h
;	COMDAT ??0exception@std@@QAE@ABV01@@Z
_TEXT	SEGMENT
_this$ = -4						; size = 4
__Other$ = 8						; size = 4
??0exception@std@@QAE@ABV01@@Z PROC			; std::exception::exception, COMDAT
; _this$ = ecx

; 72   :     {

  00000	55		 push	 ebp
  00001	8b ec		 mov	 ebp, esp
  00003	51		 push	 ecx
  00004	89 4d fc	 mov	 DWORD PTR _this$[ebp], ecx
  00007	8b 45 fc	 mov	 eax, DWORD PTR _this$[ebp]
  0000a	c7 00 00 00 00
	00		 mov	 DWORD PTR [eax], OFFSET ??_7exception@std@@6B@

; 71   :         : _Data()

  00010	33 c0		 xor	 eax, eax
  00012	8b 4d fc	 mov	 ecx, DWORD PTR _this$[ebp]
  00015	83 c1 04	 add	 ecx, 4
  00018	89 01		 mov	 DWORD PTR [ecx], eax
  0001a	89 41 04	 mov	 DWORD PTR [ecx+4], eax

; 73   :         __std_exception_copy(&_Other._Data, &_Data);

  0001d	8b 45 fc	 mov	 eax, DWORD PTR _this$[ebp]
  00020	83 c0 04	 add	 eax, 4
  00023	50		 push	 eax
  00024	8b 45 08	 mov	 eax, DWORD PTR __Other$[ebp]
  00027	83 c0 04	 add	 eax, 4
  0002a	50		 push	 eax
  0002b	e8 00 00 00 00	 call	 ___std_exception_copy
  00030	59		 pop	 ecx
  00031	59		 pop	 ecx

; 74   :     }

  00032	8b 45 fc	 mov	 eax, DWORD PTR _this$[ebp]
  00035	c9		 leave
  00036	c2 04 00	 ret	 4
??0exception@std@@QAE@ABV01@@Z ENDP			; std::exception::exception
_TEXT	ENDS
; Function compile flags: /Odspy
; File C:\Program Files (x86)\Windows Kits\10\Include\10.0.18362.0\ucrt\stdio.h
;	COMDAT __snprintf
_TEXT	SEGMENT
__Result$ = -20						; size = 4
__Format$ = -16						; size = 4
__ArgList$ = -12					; size = 4
tv86 = -8						; size = 4
__Result$1 = -4						; size = 4
__Buffer$ = 8						; size = 4
__BufferCount$ = 12					; size = 4
__Format$ = 16						; size = 4
__snprintf PROC						; COMDAT

; 1969 :     {

  00000	55		 push	 ebp
  00001	8b ec		 mov	 ebp, esp
  00003	83 ec 14	 sub	 esp, 20			; 00000014H

; 1970 :         int _Result;
; 1971 :         va_list _ArgList;
; 1972 :         __crt_va_start(_ArgList, _Format);

  00006	8d 45 14	 lea	 eax, DWORD PTR __Format$[ebp+4]
  00009	89 45 f4	 mov	 DWORD PTR __ArgList$[ebp], eax

; 1973 :     #pragma warning(suppress:28719)    // 28719
; 1974 :         _Result = _vsnprintf(_Buffer, _BufferCount, _Format, _ArgList);

  0000c	8b 45 10	 mov	 eax, DWORD PTR __Format$[ebp]
  0000f	89 45 f0	 mov	 DWORD PTR __Format$[ebp], eax

; 1390 :         int const _Result = __stdio_common_vsprintf(

  00012	ff 75 f4	 push	 DWORD PTR __ArgList$[ebp]
  00015	6a 00		 push	 0
  00017	ff 75 f0	 push	 DWORD PTR __Format$[ebp]
  0001a	ff 75 0c	 push	 DWORD PTR __BufferCount$[ebp]
  0001d	ff 75 08	 push	 DWORD PTR __Buffer$[ebp]
  00020	e8 00 00 00 00	 call	 ___local_stdio_printf_options
  00025	8b 08		 mov	 ecx, DWORD PTR [eax]
  00027	83 c9 01	 or	 ecx, 1
  0002a	8b 40 04	 mov	 eax, DWORD PTR [eax+4]
  0002d	50		 push	 eax
  0002e	51		 push	 ecx
  0002f	e8 00 00 00 00	 call	 ___stdio_common_vsprintf
  00034	83 c4 1c	 add	 esp, 28			; 0000001cH
  00037	89 45 fc	 mov	 DWORD PTR __Result$1[ebp], eax

; 1391 :             _CRT_INTERNAL_LOCAL_PRINTF_OPTIONS | _CRT_INTERNAL_PRINTF_LEGACY_VSPRINTF_NULL_TERMINATION,
; 1392 :             _Buffer, _BufferCount, _Format, _Locale, _ArgList);
; 1393 : 
; 1394 :         return _Result < 0 ? -1 : _Result;

  0003a	83 7d fc 00	 cmp	 DWORD PTR __Result$1[ebp], 0
  0003e	7d 06		 jge	 SHORT $LN7@snprintf
  00040	83 4d f8 ff	 or	 DWORD PTR tv86[ebp], -1
  00044	eb 06		 jmp	 SHORT $LN3@snprintf
$LN7@snprintf:
  00046	8b 45 fc	 mov	 eax, DWORD PTR __Result$1[ebp]
  00049	89 45 f8	 mov	 DWORD PTR tv86[ebp], eax
$LN3@snprintf:

; 1973 :     #pragma warning(suppress:28719)    // 28719
; 1974 :         _Result = _vsnprintf(_Buffer, _BufferCount, _Format, _ArgList);

  0004c	8b 45 f8	 mov	 eax, DWORD PTR tv86[ebp]
  0004f	89 45 ec	 mov	 DWORD PTR __Result$[ebp], eax

; 1975 :         __crt_va_end(_ArgList);

  00052	83 65 f4 00	 and	 DWORD PTR __ArgList$[ebp], 0

; 1976 :         return _Result;

  00056	8b 45 ec	 mov	 eax, DWORD PTR __Result$[ebp]

; 1977 :     }

  00059	c9		 leave
  0005a	c3		 ret	 0
__snprintf ENDP
_TEXT	ENDS
; Function compile flags: /Odspy
; File C:\Program Files (x86)\Windows Kits\10\Include\10.0.18362.0\ucrt\corecrt_stdio_config.h
;	COMDAT ___local_stdio_printf_options
_TEXT	SEGMENT
___local_stdio_printf_options PROC			; COMDAT

; 86   :     {

  00000	55		 push	 ebp
  00001	8b ec		 mov	 ebp, esp

; 87   :         static unsigned __int64 _OptionsStorage;
; 88   :         return &_OptionsStorage;

  00003	b8 00 00 00 00	 mov	 eax, OFFSET ?_OptionsStorage@?1??__local_stdio_printf_options@@9@4_KA ; `__local_stdio_printf_options'::`2'::_OptionsStorage

; 89   :     }

  00008	5d		 pop	 ebp
  00009	c3		 ret	 0
___local_stdio_printf_options ENDP
_TEXT	ENDS
; Function compile flags: /Odspy
;	COMDAT ??_H@YGXPAXIIP6EPAX0@Z@Z
_TEXT	SEGMENT
tv66 = -4						; size = 4
___t$ = 8						; size = 4
___s$ = 12						; size = 4
___n$ = 16						; size = 4
___f$ = 20						; size = 4
??_H@YGXPAXIIP6EPAX0@Z@Z PROC				; `vector constructor iterator', COMDAT
  00000	55		 push	 ebp
  00001	8b ec		 mov	 ebp, esp
  00003	51		 push	 ecx
$LN2@vector:
  00004	8b 45 10	 mov	 eax, DWORD PTR ___n$[ebp]
  00007	89 45 fc	 mov	 DWORD PTR tv66[ebp], eax
  0000a	8b 45 10	 mov	 eax, DWORD PTR ___n$[ebp]
  0000d	48		 dec	 eax
  0000e	89 45 10	 mov	 DWORD PTR ___n$[ebp], eax
  00011	83 7d fc 00	 cmp	 DWORD PTR tv66[ebp], 0
  00015	76 11		 jbe	 SHORT $LN1@vector
  00017	8b 4d 08	 mov	 ecx, DWORD PTR ___t$[ebp]
  0001a	ff 55 14	 call	 DWORD PTR ___f$[ebp]
  0001d	8b 45 08	 mov	 eax, DWORD PTR ___t$[ebp]
  00020	03 45 0c	 add	 eax, DWORD PTR ___s$[ebp]
  00023	89 45 08	 mov	 DWORD PTR ___t$[ebp], eax
  00026	eb dc		 jmp	 SHORT $LN2@vector
$LN1@vector:
  00028	c9		 leave
  00029	c2 10 00	 ret	 16			; 00000010H
??_H@YGXPAXIIP6EPAX0@Z@Z ENDP				; `vector constructor iterator'
_TEXT	ENDS
END
