; Listing generated by Microsoft (R) Optimizing Compiler Version 19.28.29335.0 

	TITLE	D:\Metin2 Server Files\mainline\SRC_2014\Metin2Client\UserInterface\PythonExchange.cpp
	.686P
	.XMM
	include listing.inc
	.model	flat

INCLUDELIB LIBCMT
INCLUDELIB OLDNAMES

PUBLIC	??_H@YGXPAXIIP6EPAX0@Z@Z			; `vector constructor iterator'
PUBLIC	??1?$CSingleton@VCPythonExchange@@@@UAE@XZ	; CSingleton<CPythonExchange>::~CSingleton<CPythonExchange>
PUBLIC	??_G?$CSingleton@VCPythonExchange@@@@UAEPAXI@Z	; CSingleton<CPythonExchange>::`scalar deleting destructor'
PUBLIC	??0CPythonExchange@@QAE@XZ			; CPythonExchange::CPythonExchange
PUBLIC	??1CPythonExchange@@UAE@XZ			; CPythonExchange::~CPythonExchange
PUBLIC	?Clear@CPythonExchange@@QAEXXZ			; CPythonExchange::Clear
PUBLIC	?Start@CPythonExchange@@QAEXXZ			; CPythonExchange::Start
PUBLIC	?End@CPythonExchange@@QAEXXZ			; CPythonExchange::End
PUBLIC	?isTrading@CPythonExchange@@QAE_NXZ		; CPythonExchange::isTrading
PUBLIC	?SetSelfName@CPythonExchange@@QAEXPBD@Z		; CPythonExchange::SetSelfName
PUBLIC	?SetTargetName@CPythonExchange@@QAEXPBD@Z	; CPythonExchange::SetTargetName
PUBLIC	?GetNameFromSelf@CPythonExchange@@QAEPADXZ	; CPythonExchange::GetNameFromSelf
PUBLIC	?GetNameFromTarget@CPythonExchange@@QAEPADXZ	; CPythonExchange::GetNameFromTarget
PUBLIC	?SetElkToTarget@CPythonExchange@@QAEXK@Z	; CPythonExchange::SetElkToTarget
PUBLIC	?SetElkToSelf@CPythonExchange@@QAEXK@Z		; CPythonExchange::SetElkToSelf
PUBLIC	?GetElkFromTarget@CPythonExchange@@QAEKXZ	; CPythonExchange::GetElkFromTarget
PUBLIC	?GetElkFromSelf@CPythonExchange@@QAEKXZ		; CPythonExchange::GetElkFromSelf
PUBLIC	?SetItemToTarget@CPythonExchange@@QAEXKKE@Z	; CPythonExchange::SetItemToTarget
PUBLIC	?SetItemToSelf@CPythonExchange@@QAEXKKE@Z	; CPythonExchange::SetItemToSelf
PUBLIC	?SetItemMetinSocketToTarget@CPythonExchange@@QAEXHHK@Z ; CPythonExchange::SetItemMetinSocketToTarget
PUBLIC	?SetItemMetinSocketToSelf@CPythonExchange@@QAEXHHK@Z ; CPythonExchange::SetItemMetinSocketToSelf
PUBLIC	?SetItemAttributeToTarget@CPythonExchange@@QAEXHHEF@Z ; CPythonExchange::SetItemAttributeToTarget
PUBLIC	?SetItemAttributeToSelf@CPythonExchange@@QAEXHHEF@Z ; CPythonExchange::SetItemAttributeToSelf
PUBLIC	?DelItemOfTarget@CPythonExchange@@QAEXE@Z	; CPythonExchange::DelItemOfTarget
PUBLIC	?DelItemOfSelf@CPythonExchange@@QAEXE@Z		; CPythonExchange::DelItemOfSelf
PUBLIC	?GetItemVnumFromTarget@CPythonExchange@@QAEKE@Z	; CPythonExchange::GetItemVnumFromTarget
PUBLIC	?GetItemVnumFromSelf@CPythonExchange@@QAEKE@Z	; CPythonExchange::GetItemVnumFromSelf
PUBLIC	?GetItemCountFromTarget@CPythonExchange@@QAEEE@Z ; CPythonExchange::GetItemCountFromTarget
PUBLIC	?GetItemCountFromSelf@CPythonExchange@@QAEEE@Z	; CPythonExchange::GetItemCountFromSelf
PUBLIC	?GetItemMetinSocketFromTarget@CPythonExchange@@QAEKEH@Z ; CPythonExchange::GetItemMetinSocketFromTarget
PUBLIC	?GetItemMetinSocketFromSelf@CPythonExchange@@QAEKEH@Z ; CPythonExchange::GetItemMetinSocketFromSelf
PUBLIC	?GetItemAttributeFromTarget@CPythonExchange@@QAEXEHPAEPAF@Z ; CPythonExchange::GetItemAttributeFromTarget
PUBLIC	?GetItemAttributeFromSelf@CPythonExchange@@QAEXEHPAEPAF@Z ; CPythonExchange::GetItemAttributeFromSelf
PUBLIC	?SetAcceptToTarget@CPythonExchange@@QAEXE@Z	; CPythonExchange::SetAcceptToTarget
PUBLIC	?SetAcceptToSelf@CPythonExchange@@QAEXE@Z	; CPythonExchange::SetAcceptToSelf
PUBLIC	?GetAcceptFromTarget@CPythonExchange@@QAE_NXZ	; CPythonExchange::GetAcceptFromTarget
PUBLIC	?GetAcceptFromSelf@CPythonExchange@@QAE_NXZ	; CPythonExchange::GetAcceptFromSelf
PUBLIC	?GetElkMode@CPythonExchange@@QAE_NXZ		; CPythonExchange::GetElkMode
PUBLIC	?SetElkMode@CPythonExchange@@QAEX_N@Z		; CPythonExchange::SetElkMode
PUBLIC	??_GCPythonExchange@@UAEPAXI@Z			; CPythonExchange::`scalar deleting destructor'
PUBLIC	?ms_singleton@?$CSingleton@VCPythonExchange@@@@0PAVCPythonExchange@@A ; CSingleton<CPythonExchange>::ms_singleton
PUBLIC	??_7?$CSingleton@VCPythonExchange@@@@6B@	; CSingleton<CPythonExchange>::`vftable'
PUBLIC	??_7CPythonExchange@@6B@			; CPythonExchange::`vftable'
PUBLIC	??_R4CPythonExchange@@6B@			; CPythonExchange::`RTTI Complete Object Locator'
PUBLIC	??_R0?AVCPythonExchange@@@8			; CPythonExchange `RTTI Type Descriptor'
PUBLIC	??_R3CPythonExchange@@8				; CPythonExchange::`RTTI Class Hierarchy Descriptor'
PUBLIC	??_R2CPythonExchange@@8				; CPythonExchange::`RTTI Base Class Array'
PUBLIC	??_R1A@?0A@EA@CPythonExchange@@8		; CPythonExchange::`RTTI Base Class Descriptor at (0,-1,0,64)'
PUBLIC	??_R1A@?0A@EA@?$CSingleton@VCPythonExchange@@@@8 ; CSingleton<CPythonExchange>::`RTTI Base Class Descriptor at (0,-1,0,64)'
PUBLIC	??_R0?AV?$CSingleton@VCPythonExchange@@@@@8	; CSingleton<CPythonExchange> `RTTI Type Descriptor'
PUBLIC	??_R3?$CSingleton@VCPythonExchange@@@@8		; CSingleton<CPythonExchange>::`RTTI Class Hierarchy Descriptor'
PUBLIC	??_R2?$CSingleton@VCPythonExchange@@@@8		; CSingleton<CPythonExchange>::`RTTI Base Class Array'
PUBLIC	??_R4?$CSingleton@VCPythonExchange@@@@6B@	; CSingleton<CPythonExchange>::`RTTI Complete Object Locator'
EXTRN	??3@YAXPAXI@Z:PROC				; operator delete
EXTRN	_memset:PROC
EXTRN	_strncpy:PROC
EXTRN	??_E?$CSingleton@VCPythonExchange@@@@UAEPAXI@Z:PROC ; CSingleton<CPythonExchange>::`vector deleting destructor'
EXTRN	??_ECPythonExchange@@UAEPAXI@Z:PROC		; CPythonExchange::`vector deleting destructor'
EXTRN	@__security_check_cookie@4:PROC
EXTRN	___CxxFrameHandler3:PROC
EXTRN	??_7type_info@@6B@:QWORD			; type_info::`vftable'
EXTRN	___security_cookie:DWORD
;	COMDAT ?ms_singleton@?$CSingleton@VCPythonExchange@@@@0PAVCPythonExchange@@A
_BSS	SEGMENT
?ms_singleton@?$CSingleton@VCPythonExchange@@@@0PAVCPythonExchange@@A DD 01H DUP (?) ; CSingleton<CPythonExchange>::ms_singleton
_BSS	ENDS
;	COMDAT ??_R4?$CSingleton@VCPythonExchange@@@@6B@
rdata$r	SEGMENT
??_R4?$CSingleton@VCPythonExchange@@@@6B@ DD 00H	; CSingleton<CPythonExchange>::`RTTI Complete Object Locator'
	DD	00H
	DD	00H
	DD	FLAT:??_R0?AV?$CSingleton@VCPythonExchange@@@@@8
	DD	FLAT:??_R3?$CSingleton@VCPythonExchange@@@@8
rdata$r	ENDS
;	COMDAT ??_R2?$CSingleton@VCPythonExchange@@@@8
rdata$r	SEGMENT
??_R2?$CSingleton@VCPythonExchange@@@@8 DD FLAT:??_R1A@?0A@EA@?$CSingleton@VCPythonExchange@@@@8 ; CSingleton<CPythonExchange>::`RTTI Base Class Array'
rdata$r	ENDS
;	COMDAT ??_R3?$CSingleton@VCPythonExchange@@@@8
rdata$r	SEGMENT
??_R3?$CSingleton@VCPythonExchange@@@@8 DD 00H		; CSingleton<CPythonExchange>::`RTTI Class Hierarchy Descriptor'
	DD	00H
	DD	01H
	DD	FLAT:??_R2?$CSingleton@VCPythonExchange@@@@8
rdata$r	ENDS
;	COMDAT ??_R0?AV?$CSingleton@VCPythonExchange@@@@@8
data$rs	SEGMENT
??_R0?AV?$CSingleton@VCPythonExchange@@@@@8 DD FLAT:??_7type_info@@6B@ ; CSingleton<CPythonExchange> `RTTI Type Descriptor'
	DD	00H
	DB	'.?AV?$CSingleton@VCPythonExchange@@@@', 00H
data$rs	ENDS
;	COMDAT ??_R1A@?0A@EA@?$CSingleton@VCPythonExchange@@@@8
rdata$r	SEGMENT
??_R1A@?0A@EA@?$CSingleton@VCPythonExchange@@@@8 DD FLAT:??_R0?AV?$CSingleton@VCPythonExchange@@@@@8 ; CSingleton<CPythonExchange>::`RTTI Base Class Descriptor at (0,-1,0,64)'
	DD	00H
	DD	00H
	DD	0ffffffffH
	DD	00H
	DD	040H
	DD	FLAT:??_R3?$CSingleton@VCPythonExchange@@@@8
rdata$r	ENDS
;	COMDAT ??_R1A@?0A@EA@CPythonExchange@@8
rdata$r	SEGMENT
??_R1A@?0A@EA@CPythonExchange@@8 DD FLAT:??_R0?AVCPythonExchange@@@8 ; CPythonExchange::`RTTI Base Class Descriptor at (0,-1,0,64)'
	DD	01H
	DD	00H
	DD	0ffffffffH
	DD	00H
	DD	040H
	DD	FLAT:??_R3CPythonExchange@@8
rdata$r	ENDS
;	COMDAT ??_R2CPythonExchange@@8
rdata$r	SEGMENT
??_R2CPythonExchange@@8 DD FLAT:??_R1A@?0A@EA@CPythonExchange@@8 ; CPythonExchange::`RTTI Base Class Array'
	DD	FLAT:??_R1A@?0A@EA@?$CSingleton@VCPythonExchange@@@@8
rdata$r	ENDS
;	COMDAT ??_R3CPythonExchange@@8
rdata$r	SEGMENT
??_R3CPythonExchange@@8 DD 00H				; CPythonExchange::`RTTI Class Hierarchy Descriptor'
	DD	00H
	DD	02H
	DD	FLAT:??_R2CPythonExchange@@8
rdata$r	ENDS
;	COMDAT ??_R0?AVCPythonExchange@@@8
data$rs	SEGMENT
??_R0?AVCPythonExchange@@@8 DD FLAT:??_7type_info@@6B@	; CPythonExchange `RTTI Type Descriptor'
	DD	00H
	DB	'.?AVCPythonExchange@@', 00H
data$rs	ENDS
;	COMDAT ??_R4CPythonExchange@@6B@
rdata$r	SEGMENT
??_R4CPythonExchange@@6B@ DD 00H			; CPythonExchange::`RTTI Complete Object Locator'
	DD	00H
	DD	00H
	DD	FLAT:??_R0?AVCPythonExchange@@@8
	DD	FLAT:??_R3CPythonExchange@@8
rdata$r	ENDS
;	COMDAT ??_7CPythonExchange@@6B@
CONST	SEGMENT
??_7CPythonExchange@@6B@ DD FLAT:??_R4CPythonExchange@@6B@ ; CPythonExchange::`vftable'
	DD	FLAT:??_ECPythonExchange@@UAEPAXI@Z
CONST	ENDS
;	COMDAT ??_7?$CSingleton@VCPythonExchange@@@@6B@
CONST	SEGMENT
??_7?$CSingleton@VCPythonExchange@@@@6B@ DD FLAT:??_R4?$CSingleton@VCPythonExchange@@@@6B@ ; CSingleton<CPythonExchange>::`vftable'
	DD	FLAT:??_E?$CSingleton@VCPythonExchange@@@@UAEPAXI@Z
CONST	ENDS
;	COMDAT xdata$x
xdata$x	SEGMENT
__unwindtable$??0CPythonExchange@@QAE@XZ DD 0ffffffffH
	DD	FLAT:__unwindfunclet$??0CPythonExchange@@QAE@XZ$0
__ehfuncinfo$??0CPythonExchange@@QAE@XZ DD 019930522H
	DD	01H
	DD	FLAT:__unwindtable$??0CPythonExchange@@QAE@XZ
	DD	2 DUP(00H)
	DD	2 DUP(00H)
	DD	00H
	DD	01H
xdata$x	ENDS
; Function compile flags: /Odspy
;	COMDAT ??_GCPythonExchange@@UAEPAXI@Z
_TEXT	SEGMENT
_this$ = -4						; size = 4
___flags$ = 8						; size = 4
??_GCPythonExchange@@UAEPAXI@Z PROC			; CPythonExchange::`scalar deleting destructor', COMDAT
; _this$ = ecx
  00000	55		 push	 ebp
  00001	8b ec		 mov	 ebp, esp
  00003	51		 push	 ecx
  00004	89 4d fc	 mov	 DWORD PTR _this$[ebp], ecx
  00007	8b 4d fc	 mov	 ecx, DWORD PTR _this$[ebp]
  0000a	e8 00 00 00 00	 call	 ??1CPythonExchange@@UAE@XZ ; CPythonExchange::~CPythonExchange
  0000f	8b 45 08	 mov	 eax, DWORD PTR ___flags$[ebp]
  00012	83 e0 01	 and	 eax, 1
  00015	74 0f		 je	 SHORT $LN2@scalar
  00017	68 e0 03 00 00	 push	 992			; 000003e0H
  0001c	ff 75 fc	 push	 DWORD PTR _this$[ebp]
  0001f	e8 00 00 00 00	 call	 ??3@YAXPAXI@Z		; operator delete
  00024	59		 pop	 ecx
  00025	59		 pop	 ecx
$LN2@scalar:
  00026	8b 45 fc	 mov	 eax, DWORD PTR _this$[ebp]
  00029	c9		 leave
  0002a	c2 04 00	 ret	 4
??_GCPythonExchange@@UAEPAXI@Z ENDP			; CPythonExchange::`scalar deleting destructor'
_TEXT	ENDS
; Function compile flags: /Odspy
; File D:\Metin2 Server Files\mainline\SRC_2014\Metin2Client\UserInterface\PythonExchange.cpp
;	COMDAT ?SetElkMode@CPythonExchange@@QAEX_N@Z
_TEXT	SEGMENT
_this$ = -4						; size = 4
_value$ = 8						; size = 1
?SetElkMode@CPythonExchange@@QAEX_N@Z PROC		; CPythonExchange::SetElkMode, COMDAT
; _this$ = ecx

; 206  : {

  00000	55		 push	 ebp
  00001	8b ec		 mov	 ebp, esp
  00003	51		 push	 ecx
  00004	89 4d fc	 mov	 DWORD PTR _this$[ebp], ecx

; 207  : 	m_elk_mode = value;

  00007	8b 45 fc	 mov	 eax, DWORD PTR _this$[ebp]
  0000a	8a 4d 08	 mov	 cl, BYTE PTR _value$[ebp]
  0000d	88 48 05	 mov	 BYTE PTR [eax+5], cl

; 208  : }

  00010	c9		 leave
  00011	c2 04 00	 ret	 4
?SetElkMode@CPythonExchange@@QAEX_N@Z ENDP		; CPythonExchange::SetElkMode
_TEXT	ENDS
; Function compile flags: /Odspy
; File D:\Metin2 Server Files\mainline\SRC_2014\Metin2Client\UserInterface\PythonExchange.cpp
;	COMDAT ?GetElkMode@CPythonExchange@@QAE_NXZ
_TEXT	SEGMENT
_this$ = -4						; size = 4
?GetElkMode@CPythonExchange@@QAE_NXZ PROC		; CPythonExchange::GetElkMode, COMDAT
; _this$ = ecx

; 201  : {

  00000	55		 push	 ebp
  00001	8b ec		 mov	 ebp, esp
  00003	51		 push	 ecx
  00004	89 4d fc	 mov	 DWORD PTR _this$[ebp], ecx

; 202  : 	return m_elk_mode;

  00007	8b 45 fc	 mov	 eax, DWORD PTR _this$[ebp]
  0000a	8a 40 05	 mov	 al, BYTE PTR [eax+5]

; 203  : }

  0000d	c9		 leave
  0000e	c3		 ret	 0
?GetElkMode@CPythonExchange@@QAE_NXZ ENDP		; CPythonExchange::GetElkMode
_TEXT	ENDS
; Function compile flags: /Odspy
; File D:\Metin2 Server Files\mainline\SRC_2014\Metin2Client\UserInterface\PythonExchange.cpp
;	COMDAT ?GetAcceptFromSelf@CPythonExchange@@QAE_NXZ
_TEXT	SEGMENT
_this$ = -8						; size = 4
tv68 = -1						; size = 1
?GetAcceptFromSelf@CPythonExchange@@QAE_NXZ PROC	; CPythonExchange::GetAcceptFromSelf, COMDAT
; _this$ = ecx

; 196  : {

  00000	55		 push	 ebp
  00001	8b ec		 mov	 ebp, esp
  00003	51		 push	 ecx
  00004	51		 push	 ecx
  00005	89 4d f8	 mov	 DWORD PTR _this$[ebp], ecx

; 197  : 	return m_self.accept ? true : false;

  00008	8b 45 f8	 mov	 eax, DWORD PTR _this$[ebp]
  0000b	0f b6 80 ec 01
	00 00		 movzx	 eax, BYTE PTR [eax+492]
  00012	85 c0		 test	 eax, eax
  00014	74 06		 je	 SHORT $LN3@GetAcceptF
  00016	c6 45 ff 01	 mov	 BYTE PTR tv68[ebp], 1
  0001a	eb 04		 jmp	 SHORT $LN4@GetAcceptF
$LN3@GetAcceptF:
  0001c	c6 45 ff 00	 mov	 BYTE PTR tv68[ebp], 0
$LN4@GetAcceptF:
  00020	8a 45 ff	 mov	 al, BYTE PTR tv68[ebp]

; 198  : }

  00023	c9		 leave
  00024	c3		 ret	 0
?GetAcceptFromSelf@CPythonExchange@@QAE_NXZ ENDP	; CPythonExchange::GetAcceptFromSelf
_TEXT	ENDS
; Function compile flags: /Odspy
; File D:\Metin2 Server Files\mainline\SRC_2014\Metin2Client\UserInterface\PythonExchange.cpp
;	COMDAT ?GetAcceptFromTarget@CPythonExchange@@QAE_NXZ
_TEXT	SEGMENT
_this$ = -8						; size = 4
tv68 = -1						; size = 1
?GetAcceptFromTarget@CPythonExchange@@QAE_NXZ PROC	; CPythonExchange::GetAcceptFromTarget, COMDAT
; _this$ = ecx

; 191  : {

  00000	55		 push	 ebp
  00001	8b ec		 mov	 ebp, esp
  00003	51		 push	 ecx
  00004	51		 push	 ecx
  00005	89 4d f8	 mov	 DWORD PTR _this$[ebp], ecx

; 192  : 	return m_victim.accept ? true : false;

  00008	8b 45 f8	 mov	 eax, DWORD PTR _this$[ebp]
  0000b	0f b6 80 d8 03
	00 00		 movzx	 eax, BYTE PTR [eax+984]
  00012	85 c0		 test	 eax, eax
  00014	74 06		 je	 SHORT $LN3@GetAcceptF
  00016	c6 45 ff 01	 mov	 BYTE PTR tv68[ebp], 1
  0001a	eb 04		 jmp	 SHORT $LN4@GetAcceptF
$LN3@GetAcceptF:
  0001c	c6 45 ff 00	 mov	 BYTE PTR tv68[ebp], 0
$LN4@GetAcceptF:
  00020	8a 45 ff	 mov	 al, BYTE PTR tv68[ebp]

; 193  : }

  00023	c9		 leave
  00024	c3		 ret	 0
?GetAcceptFromTarget@CPythonExchange@@QAE_NXZ ENDP	; CPythonExchange::GetAcceptFromTarget
_TEXT	ENDS
; Function compile flags: /Odspy
; File D:\Metin2 Server Files\mainline\SRC_2014\Metin2Client\UserInterface\PythonExchange.cpp
;	COMDAT ?SetAcceptToSelf@CPythonExchange@@QAEXE@Z
_TEXT	SEGMENT
_this$ = -8						; size = 4
tv68 = -1						; size = 1
_Accept$ = 8						; size = 1
?SetAcceptToSelf@CPythonExchange@@QAEXE@Z PROC		; CPythonExchange::SetAcceptToSelf, COMDAT
; _this$ = ecx

; 186  : {

  00000	55		 push	 ebp
  00001	8b ec		 mov	 ebp, esp
  00003	51		 push	 ecx
  00004	51		 push	 ecx
  00005	89 4d f8	 mov	 DWORD PTR _this$[ebp], ecx

; 187  : 	m_self.accept = Accept ? true : false;

  00008	0f b6 45 08	 movzx	 eax, BYTE PTR _Accept$[ebp]
  0000c	85 c0		 test	 eax, eax
  0000e	74 06		 je	 SHORT $LN3@SetAcceptT
  00010	c6 45 ff 01	 mov	 BYTE PTR tv68[ebp], 1
  00014	eb 04		 jmp	 SHORT $LN4@SetAcceptT
$LN3@SetAcceptT:
  00016	c6 45 ff 00	 mov	 BYTE PTR tv68[ebp], 0
$LN4@SetAcceptT:
  0001a	8b 45 f8	 mov	 eax, DWORD PTR _this$[ebp]
  0001d	8a 4d ff	 mov	 cl, BYTE PTR tv68[ebp]
  00020	88 88 ec 01 00
	00		 mov	 BYTE PTR [eax+492], cl

; 188  : }

  00026	c9		 leave
  00027	c2 04 00	 ret	 4
?SetAcceptToSelf@CPythonExchange@@QAEXE@Z ENDP		; CPythonExchange::SetAcceptToSelf
_TEXT	ENDS
; Function compile flags: /Odspy
; File D:\Metin2 Server Files\mainline\SRC_2014\Metin2Client\UserInterface\PythonExchange.cpp
;	COMDAT ?SetAcceptToTarget@CPythonExchange@@QAEXE@Z
_TEXT	SEGMENT
_this$ = -8						; size = 4
tv68 = -1						; size = 1
_Accept$ = 8						; size = 1
?SetAcceptToTarget@CPythonExchange@@QAEXE@Z PROC	; CPythonExchange::SetAcceptToTarget, COMDAT
; _this$ = ecx

; 181  : {

  00000	55		 push	 ebp
  00001	8b ec		 mov	 ebp, esp
  00003	51		 push	 ecx
  00004	51		 push	 ecx
  00005	89 4d f8	 mov	 DWORD PTR _this$[ebp], ecx

; 182  : 	m_victim.accept = Accept ? true : false;

  00008	0f b6 45 08	 movzx	 eax, BYTE PTR _Accept$[ebp]
  0000c	85 c0		 test	 eax, eax
  0000e	74 06		 je	 SHORT $LN3@SetAcceptT
  00010	c6 45 ff 01	 mov	 BYTE PTR tv68[ebp], 1
  00014	eb 04		 jmp	 SHORT $LN4@SetAcceptT
$LN3@SetAcceptT:
  00016	c6 45 ff 00	 mov	 BYTE PTR tv68[ebp], 0
$LN4@SetAcceptT:
  0001a	8b 45 f8	 mov	 eax, DWORD PTR _this$[ebp]
  0001d	8a 4d ff	 mov	 cl, BYTE PTR tv68[ebp]
  00020	88 88 d8 03 00
	00		 mov	 BYTE PTR [eax+984], cl

; 183  : }

  00026	c9		 leave
  00027	c2 04 00	 ret	 4
?SetAcceptToTarget@CPythonExchange@@QAEXE@Z ENDP	; CPythonExchange::SetAcceptToTarget
_TEXT	ENDS
; Function compile flags: /Odspy
; File D:\Metin2 Server Files\mainline\SRC_2014\Metin2Client\UserInterface\PythonExchange.cpp
;	COMDAT ?GetItemAttributeFromSelf@CPythonExchange@@QAEXEHPAEPAF@Z
_TEXT	SEGMENT
_this$ = -4						; size = 4
_pos$ = 8						; size = 1
_iAttrPos$ = 12						; size = 4
_pbyType$ = 16						; size = 4
_psValue$ = 20						; size = 4
?GetItemAttributeFromSelf@CPythonExchange@@QAEXEHPAEPAF@Z PROC ; CPythonExchange::GetItemAttributeFromSelf, COMDAT
; _this$ = ecx

; 172  : {

  00000	55		 push	 ebp
  00001	8b ec		 mov	 ebp, esp
  00003	51		 push	 ecx
  00004	89 4d fc	 mov	 DWORD PTR _this$[ebp], ecx

; 173  : 	if (pos >= EXCHANGE_ITEM_MAX_NUM)

  00007	0f b6 45 08	 movzx	 eax, BYTE PTR _pos$[ebp]
  0000b	83 f8 0c	 cmp	 eax, 12			; 0000000cH
  0000e	7c 02		 jl	 SHORT $LN2@GetItemAtt

; 174  : 		return;

  00010	eb 3d		 jmp	 SHORT $LN1@GetItemAtt
$LN2@GetItemAtt:

; 175  : 
; 176  : 	*pbyType = m_self.item_attr[pos][iAttrPos].bType;

  00012	0f b6 45 08	 movzx	 eax, BYTE PTR _pos$[ebp]
  00016	6b c0 15	 imul	 eax, eax, 21
  00019	8b 4d fc	 mov	 ecx, DWORD PTR _this$[ebp]
  0001c	8d 84 01 f0 00
	00 00		 lea	 eax, DWORD PTR [ecx+eax+240]
  00023	6b 4d 0c 03	 imul	 ecx, DWORD PTR _iAttrPos$[ebp], 3
  00027	8b 55 10	 mov	 edx, DWORD PTR _pbyType$[ebp]
  0002a	8a 04 08	 mov	 al, BYTE PTR [eax+ecx]
  0002d	88 02		 mov	 BYTE PTR [edx], al

; 177  : 	*psValue = m_self.item_attr[pos][iAttrPos].sValue;

  0002f	0f b6 45 08	 movzx	 eax, BYTE PTR _pos$[ebp]
  00033	6b c0 15	 imul	 eax, eax, 21
  00036	8b 4d fc	 mov	 ecx, DWORD PTR _this$[ebp]
  00039	8d 84 01 f0 00
	00 00		 lea	 eax, DWORD PTR [ecx+eax+240]
  00040	6b 4d 0c 03	 imul	 ecx, DWORD PTR _iAttrPos$[ebp], 3
  00044	8b 55 14	 mov	 edx, DWORD PTR _psValue$[ebp]
  00047	66 8b 44 08 01	 mov	 ax, WORD PTR [eax+ecx+1]
  0004c	66 89 02	 mov	 WORD PTR [edx], ax
$LN1@GetItemAtt:

; 178  : }

  0004f	c9		 leave
  00050	c2 10 00	 ret	 16			; 00000010H
?GetItemAttributeFromSelf@CPythonExchange@@QAEXEHPAEPAF@Z ENDP ; CPythonExchange::GetItemAttributeFromSelf
_TEXT	ENDS
; Function compile flags: /Odspy
; File D:\Metin2 Server Files\mainline\SRC_2014\Metin2Client\UserInterface\PythonExchange.cpp
;	COMDAT ?GetItemAttributeFromTarget@CPythonExchange@@QAEXEHPAEPAF@Z
_TEXT	SEGMENT
_this$ = -4						; size = 4
_pos$ = 8						; size = 1
_iAttrPos$ = 12						; size = 4
_pbyType$ = 16						; size = 4
_psValue$ = 20						; size = 4
?GetItemAttributeFromTarget@CPythonExchange@@QAEXEHPAEPAF@Z PROC ; CPythonExchange::GetItemAttributeFromTarget, COMDAT
; _this$ = ecx

; 163  : {

  00000	55		 push	 ebp
  00001	8b ec		 mov	 ebp, esp
  00003	51		 push	 ecx
  00004	89 4d fc	 mov	 DWORD PTR _this$[ebp], ecx

; 164  : 	if (pos >= EXCHANGE_ITEM_MAX_NUM)

  00007	0f b6 45 08	 movzx	 eax, BYTE PTR _pos$[ebp]
  0000b	83 f8 0c	 cmp	 eax, 12			; 0000000cH
  0000e	7c 02		 jl	 SHORT $LN2@GetItemAtt

; 165  : 		return;

  00010	eb 3d		 jmp	 SHORT $LN1@GetItemAtt
$LN2@GetItemAtt:

; 166  : 
; 167  : 	*pbyType = m_victim.item_attr[pos][iAttrPos].bType;

  00012	0f b6 45 08	 movzx	 eax, BYTE PTR _pos$[ebp]
  00016	6b c0 15	 imul	 eax, eax, 21
  00019	8b 4d fc	 mov	 ecx, DWORD PTR _this$[ebp]
  0001c	8d 84 01 dc 02
	00 00		 lea	 eax, DWORD PTR [ecx+eax+732]
  00023	6b 4d 0c 03	 imul	 ecx, DWORD PTR _iAttrPos$[ebp], 3
  00027	8b 55 10	 mov	 edx, DWORD PTR _pbyType$[ebp]
  0002a	8a 04 08	 mov	 al, BYTE PTR [eax+ecx]
  0002d	88 02		 mov	 BYTE PTR [edx], al

; 168  : 	*psValue = m_victim.item_attr[pos][iAttrPos].sValue;

  0002f	0f b6 45 08	 movzx	 eax, BYTE PTR _pos$[ebp]
  00033	6b c0 15	 imul	 eax, eax, 21
  00036	8b 4d fc	 mov	 ecx, DWORD PTR _this$[ebp]
  00039	8d 84 01 dc 02
	00 00		 lea	 eax, DWORD PTR [ecx+eax+732]
  00040	6b 4d 0c 03	 imul	 ecx, DWORD PTR _iAttrPos$[ebp], 3
  00044	8b 55 14	 mov	 edx, DWORD PTR _psValue$[ebp]
  00047	66 8b 44 08 01	 mov	 ax, WORD PTR [eax+ecx+1]
  0004c	66 89 02	 mov	 WORD PTR [edx], ax
$LN1@GetItemAtt:

; 169  : }

  0004f	c9		 leave
  00050	c2 10 00	 ret	 16			; 00000010H
?GetItemAttributeFromTarget@CPythonExchange@@QAEXEHPAEPAF@Z ENDP ; CPythonExchange::GetItemAttributeFromTarget
_TEXT	ENDS
; Function compile flags: /Odspy
; File D:\Metin2 Server Files\mainline\SRC_2014\Metin2Client\UserInterface\PythonExchange.cpp
;	COMDAT ?GetItemMetinSocketFromSelf@CPythonExchange@@QAEKEH@Z
_TEXT	SEGMENT
_this$ = -4						; size = 4
_pos$ = 8						; size = 1
_iMetinSocketPos$ = 12					; size = 4
?GetItemMetinSocketFromSelf@CPythonExchange@@QAEKEH@Z PROC ; CPythonExchange::GetItemMetinSocketFromSelf, COMDAT
; _this$ = ecx

; 155  : {

  00000	55		 push	 ebp
  00001	8b ec		 mov	 ebp, esp
  00003	51		 push	 ecx
  00004	89 4d fc	 mov	 DWORD PTR _this$[ebp], ecx

; 156  : 	if (pos >= EXCHANGE_ITEM_MAX_NUM)

  00007	0f b6 45 08	 movzx	 eax, BYTE PTR _pos$[ebp]
  0000b	83 f8 0c	 cmp	 eax, 12			; 0000000cH
  0000e	7c 04		 jl	 SHORT $LN2@GetItemMet

; 157  : 		return 0;

  00010	33 c0		 xor	 eax, eax
  00012	eb 14		 jmp	 SHORT $LN1@GetItemMet
$LN2@GetItemMet:

; 158  : 
; 159  : 	return m_self.item_metin[pos][iMetinSocketPos];

  00014	0f b6 45 08	 movzx	 eax, BYTE PTR _pos$[ebp]
  00018	6b c0 0c	 imul	 eax, eax, 12
  0001b	8b 4d fc	 mov	 ecx, DWORD PTR _this$[ebp]
  0001e	8d 44 01 60	 lea	 eax, DWORD PTR [ecx+eax+96]
  00022	8b 4d 0c	 mov	 ecx, DWORD PTR _iMetinSocketPos$[ebp]
  00025	8b 04 88	 mov	 eax, DWORD PTR [eax+ecx*4]
$LN1@GetItemMet:

; 160  : }

  00028	c9		 leave
  00029	c2 08 00	 ret	 8
?GetItemMetinSocketFromSelf@CPythonExchange@@QAEKEH@Z ENDP ; CPythonExchange::GetItemMetinSocketFromSelf
_TEXT	ENDS
; Function compile flags: /Odspy
; File D:\Metin2 Server Files\mainline\SRC_2014\Metin2Client\UserInterface\PythonExchange.cpp
;	COMDAT ?GetItemMetinSocketFromTarget@CPythonExchange@@QAEKEH@Z
_TEXT	SEGMENT
_this$ = -4						; size = 4
_pos$ = 8						; size = 1
_iMetinSocketPos$ = 12					; size = 4
?GetItemMetinSocketFromTarget@CPythonExchange@@QAEKEH@Z PROC ; CPythonExchange::GetItemMetinSocketFromTarget, COMDAT
; _this$ = ecx

; 147  : {

  00000	55		 push	 ebp
  00001	8b ec		 mov	 ebp, esp
  00003	51		 push	 ecx
  00004	89 4d fc	 mov	 DWORD PTR _this$[ebp], ecx

; 148  : 	if (pos >= EXCHANGE_ITEM_MAX_NUM)

  00007	0f b6 45 08	 movzx	 eax, BYTE PTR _pos$[ebp]
  0000b	83 f8 0c	 cmp	 eax, 12			; 0000000cH
  0000e	7c 04		 jl	 SHORT $LN2@GetItemMet

; 149  : 		return 0;

  00010	33 c0		 xor	 eax, eax
  00012	eb 17		 jmp	 SHORT $LN1@GetItemMet
$LN2@GetItemMet:

; 150  : 
; 151  : 	return m_victim.item_metin[pos][iMetinSocketPos];

  00014	0f b6 45 08	 movzx	 eax, BYTE PTR _pos$[ebp]
  00018	6b c0 0c	 imul	 eax, eax, 12
  0001b	8b 4d fc	 mov	 ecx, DWORD PTR _this$[ebp]
  0001e	8d 84 01 4c 02
	00 00		 lea	 eax, DWORD PTR [ecx+eax+588]
  00025	8b 4d 0c	 mov	 ecx, DWORD PTR _iMetinSocketPos$[ebp]
  00028	8b 04 88	 mov	 eax, DWORD PTR [eax+ecx*4]
$LN1@GetItemMet:

; 152  : }

  0002b	c9		 leave
  0002c	c2 08 00	 ret	 8
?GetItemMetinSocketFromTarget@CPythonExchange@@QAEKEH@Z ENDP ; CPythonExchange::GetItemMetinSocketFromTarget
_TEXT	ENDS
; Function compile flags: /Odspy
; File D:\Metin2 Server Files\mainline\SRC_2014\Metin2Client\UserInterface\PythonExchange.cpp
;	COMDAT ?GetItemCountFromSelf@CPythonExchange@@QAEEE@Z
_TEXT	SEGMENT
_this$ = -4						; size = 4
_pos$ = 8						; size = 1
?GetItemCountFromSelf@CPythonExchange@@QAEEE@Z PROC	; CPythonExchange::GetItemCountFromSelf, COMDAT
; _this$ = ecx

; 139  : {

  00000	55		 push	 ebp
  00001	8b ec		 mov	 ebp, esp
  00003	51		 push	 ecx
  00004	89 4d fc	 mov	 DWORD PTR _this$[ebp], ecx

; 140  : 	if (pos >= EXCHANGE_ITEM_MAX_NUM)

  00007	0f b6 45 08	 movzx	 eax, BYTE PTR _pos$[ebp]
  0000b	83 f8 0c	 cmp	 eax, 12			; 0000000cH
  0000e	7c 04		 jl	 SHORT $LN2@GetItemCou

; 141  : 		return 0;

  00010	32 c0		 xor	 al, al
  00012	eb 0b		 jmp	 SHORT $LN1@GetItemCou
$LN2@GetItemCou:

; 142  : 
; 143  : 	return m_self.item_count[pos];

  00014	0f b6 45 08	 movzx	 eax, BYTE PTR _pos$[ebp]
  00018	8b 4d fc	 mov	 ecx, DWORD PTR _this$[ebp]
  0001b	8a 44 01 54	 mov	 al, BYTE PTR [ecx+eax+84]
$LN1@GetItemCou:

; 144  : }

  0001f	c9		 leave
  00020	c2 04 00	 ret	 4
?GetItemCountFromSelf@CPythonExchange@@QAEEE@Z ENDP	; CPythonExchange::GetItemCountFromSelf
_TEXT	ENDS
; Function compile flags: /Odspy
; File D:\Metin2 Server Files\mainline\SRC_2014\Metin2Client\UserInterface\PythonExchange.cpp
;	COMDAT ?GetItemCountFromTarget@CPythonExchange@@QAEEE@Z
_TEXT	SEGMENT
_this$ = -4						; size = 4
_pos$ = 8						; size = 1
?GetItemCountFromTarget@CPythonExchange@@QAEEE@Z PROC	; CPythonExchange::GetItemCountFromTarget, COMDAT
; _this$ = ecx

; 131  : {

  00000	55		 push	 ebp
  00001	8b ec		 mov	 ebp, esp
  00003	51		 push	 ecx
  00004	89 4d fc	 mov	 DWORD PTR _this$[ebp], ecx

; 132  : 	if (pos >= EXCHANGE_ITEM_MAX_NUM)

  00007	0f b6 45 08	 movzx	 eax, BYTE PTR _pos$[ebp]
  0000b	83 f8 0c	 cmp	 eax, 12			; 0000000cH
  0000e	7c 04		 jl	 SHORT $LN2@GetItemCou

; 133  : 		return 0;

  00010	32 c0		 xor	 al, al
  00012	eb 0e		 jmp	 SHORT $LN1@GetItemCou
$LN2@GetItemCou:

; 134  : 
; 135  : 	return m_victim.item_count[pos];

  00014	0f b6 45 08	 movzx	 eax, BYTE PTR _pos$[ebp]
  00018	8b 4d fc	 mov	 ecx, DWORD PTR _this$[ebp]
  0001b	8a 84 01 40 02
	00 00		 mov	 al, BYTE PTR [ecx+eax+576]
$LN1@GetItemCou:

; 136  : }

  00022	c9		 leave
  00023	c2 04 00	 ret	 4
?GetItemCountFromTarget@CPythonExchange@@QAEEE@Z ENDP	; CPythonExchange::GetItemCountFromTarget
_TEXT	ENDS
; Function compile flags: /Odspy
; File D:\Metin2 Server Files\mainline\SRC_2014\Metin2Client\UserInterface\PythonExchange.cpp
;	COMDAT ?GetItemVnumFromSelf@CPythonExchange@@QAEKE@Z
_TEXT	SEGMENT
_this$ = -4						; size = 4
_pos$ = 8						; size = 1
?GetItemVnumFromSelf@CPythonExchange@@QAEKE@Z PROC	; CPythonExchange::GetItemVnumFromSelf, COMDAT
; _this$ = ecx

; 123  : {

  00000	55		 push	 ebp
  00001	8b ec		 mov	 ebp, esp
  00003	51		 push	 ecx
  00004	89 4d fc	 mov	 DWORD PTR _this$[ebp], ecx

; 124  : 	if (pos >= EXCHANGE_ITEM_MAX_NUM)

  00007	0f b6 45 08	 movzx	 eax, BYTE PTR _pos$[ebp]
  0000b	83 f8 0c	 cmp	 eax, 12			; 0000000cH
  0000e	7c 04		 jl	 SHORT $LN2@GetItemVnu

; 125  : 		return 0;

  00010	33 c0		 xor	 eax, eax
  00012	eb 0b		 jmp	 SHORT $LN1@GetItemVnu
$LN2@GetItemVnu:

; 126  : 
; 127  : 	return m_self.item_vnum[pos];

  00014	0f b6 45 08	 movzx	 eax, BYTE PTR _pos$[ebp]
  00018	8b 4d fc	 mov	 ecx, DWORD PTR _this$[ebp]
  0001b	8b 44 81 24	 mov	 eax, DWORD PTR [ecx+eax*4+36]
$LN1@GetItemVnu:

; 128  : }

  0001f	c9		 leave
  00020	c2 04 00	 ret	 4
?GetItemVnumFromSelf@CPythonExchange@@QAEKE@Z ENDP	; CPythonExchange::GetItemVnumFromSelf
_TEXT	ENDS
; Function compile flags: /Odspy
; File D:\Metin2 Server Files\mainline\SRC_2014\Metin2Client\UserInterface\PythonExchange.cpp
;	COMDAT ?GetItemVnumFromTarget@CPythonExchange@@QAEKE@Z
_TEXT	SEGMENT
_this$ = -4						; size = 4
_pos$ = 8						; size = 1
?GetItemVnumFromTarget@CPythonExchange@@QAEKE@Z PROC	; CPythonExchange::GetItemVnumFromTarget, COMDAT
; _this$ = ecx

; 115  : {

  00000	55		 push	 ebp
  00001	8b ec		 mov	 ebp, esp
  00003	51		 push	 ecx
  00004	89 4d fc	 mov	 DWORD PTR _this$[ebp], ecx

; 116  : 	if (pos >= EXCHANGE_ITEM_MAX_NUM)

  00007	0f b6 45 08	 movzx	 eax, BYTE PTR _pos$[ebp]
  0000b	83 f8 0c	 cmp	 eax, 12			; 0000000cH
  0000e	7c 04		 jl	 SHORT $LN2@GetItemVnu

; 117  : 		return 0;

  00010	33 c0		 xor	 eax, eax
  00012	eb 0e		 jmp	 SHORT $LN1@GetItemVnu
$LN2@GetItemVnu:

; 118  : 
; 119  : 	return m_victim.item_vnum[pos];

  00014	0f b6 45 08	 movzx	 eax, BYTE PTR _pos$[ebp]
  00018	8b 4d fc	 mov	 ecx, DWORD PTR _this$[ebp]
  0001b	8b 84 81 10 02
	00 00		 mov	 eax, DWORD PTR [ecx+eax*4+528]
$LN1@GetItemVnu:

; 120  : }

  00022	c9		 leave
  00023	c2 04 00	 ret	 4
?GetItemVnumFromTarget@CPythonExchange@@QAEKE@Z ENDP	; CPythonExchange::GetItemVnumFromTarget
_TEXT	ENDS
; Function compile flags: /Odspy
; File D:\Metin2 Server Files\mainline\SRC_2014\Metin2Client\UserInterface\PythonExchange.cpp
;	COMDAT ?DelItemOfSelf@CPythonExchange@@QAEXE@Z
_TEXT	SEGMENT
_this$ = -4						; size = 4
_pos$ = 8						; size = 1
?DelItemOfSelf@CPythonExchange@@QAEXE@Z PROC		; CPythonExchange::DelItemOfSelf, COMDAT
; _this$ = ecx

; 106  : {

  00000	55		 push	 ebp
  00001	8b ec		 mov	 ebp, esp
  00003	51		 push	 ecx
  00004	89 4d fc	 mov	 DWORD PTR _this$[ebp], ecx

; 107  : 	if (pos >= EXCHANGE_ITEM_MAX_NUM)

  00007	0f b6 45 08	 movzx	 eax, BYTE PTR _pos$[ebp]
  0000b	83 f8 0c	 cmp	 eax, 12			; 0000000cH
  0000e	7c 02		 jl	 SHORT $LN2@DelItemOfS

; 108  : 		return;

  00010	eb 18		 jmp	 SHORT $LN1@DelItemOfS
$LN2@DelItemOfS:

; 109  : 
; 110  : 	m_self.item_vnum[pos] = 0;

  00012	0f b6 45 08	 movzx	 eax, BYTE PTR _pos$[ebp]
  00016	8b 4d fc	 mov	 ecx, DWORD PTR _this$[ebp]
  00019	83 64 81 24 00	 and	 DWORD PTR [ecx+eax*4+36], 0

; 111  : 	m_self.item_count[pos] = 0;

  0001e	0f b6 45 08	 movzx	 eax, BYTE PTR _pos$[ebp]
  00022	8b 4d fc	 mov	 ecx, DWORD PTR _this$[ebp]
  00025	c6 44 01 54 00	 mov	 BYTE PTR [ecx+eax+84], 0
$LN1@DelItemOfS:

; 112  : }

  0002a	c9		 leave
  0002b	c2 04 00	 ret	 4
?DelItemOfSelf@CPythonExchange@@QAEXE@Z ENDP		; CPythonExchange::DelItemOfSelf
_TEXT	ENDS
; Function compile flags: /Odspy
; File D:\Metin2 Server Files\mainline\SRC_2014\Metin2Client\UserInterface\PythonExchange.cpp
;	COMDAT ?DelItemOfTarget@CPythonExchange@@QAEXE@Z
_TEXT	SEGMENT
_this$ = -4						; size = 4
_pos$ = 8						; size = 1
?DelItemOfTarget@CPythonExchange@@QAEXE@Z PROC		; CPythonExchange::DelItemOfTarget, COMDAT
; _this$ = ecx

; 97   : {

  00000	55		 push	 ebp
  00001	8b ec		 mov	 ebp, esp
  00003	51		 push	 ecx
  00004	89 4d fc	 mov	 DWORD PTR _this$[ebp], ecx

; 98   : 	if (pos >= EXCHANGE_ITEM_MAX_NUM)

  00007	0f b6 45 08	 movzx	 eax, BYTE PTR _pos$[ebp]
  0000b	83 f8 0c	 cmp	 eax, 12			; 0000000cH
  0000e	7c 02		 jl	 SHORT $LN2@DelItemOfT

; 99   : 		return;

  00010	eb 1e		 jmp	 SHORT $LN1@DelItemOfT
$LN2@DelItemOfT:

; 100  : 
; 101  : 	m_victim.item_vnum[pos] = 0;

  00012	0f b6 45 08	 movzx	 eax, BYTE PTR _pos$[ebp]
  00016	8b 4d fc	 mov	 ecx, DWORD PTR _this$[ebp]
  00019	83 a4 81 10 02
	00 00 00	 and	 DWORD PTR [ecx+eax*4+528], 0

; 102  : 	m_victim.item_count[pos] = 0;

  00021	0f b6 45 08	 movzx	 eax, BYTE PTR _pos$[ebp]
  00025	8b 4d fc	 mov	 ecx, DWORD PTR _this$[ebp]
  00028	c6 84 01 40 02
	00 00 00	 mov	 BYTE PTR [ecx+eax+576], 0
$LN1@DelItemOfT:

; 103  : }

  00030	c9		 leave
  00031	c2 04 00	 ret	 4
?DelItemOfTarget@CPythonExchange@@QAEXE@Z ENDP		; CPythonExchange::DelItemOfTarget
_TEXT	ENDS
; Function compile flags: /Odspy
; File D:\Metin2 Server Files\mainline\SRC_2014\Metin2Client\UserInterface\PythonExchange.cpp
;	COMDAT ?SetItemAttributeToSelf@CPythonExchange@@QAEXHHEF@Z
_TEXT	SEGMENT
_this$ = -4						; size = 4
_pos$ = 8						; size = 4
_iattrpos$ = 12						; size = 4
_byType$ = 16						; size = 1
_sValue$ = 20						; size = 2
?SetItemAttributeToSelf@CPythonExchange@@QAEXHHEF@Z PROC ; CPythonExchange::SetItemAttributeToSelf, COMDAT
; _this$ = ecx

; 88   : {

  00000	55		 push	 ebp
  00001	8b ec		 mov	 ebp, esp
  00003	51		 push	 ecx
  00004	89 4d fc	 mov	 DWORD PTR _this$[ebp], ecx

; 89   : 	if (pos >= EXCHANGE_ITEM_MAX_NUM)

  00007	83 7d 08 0c	 cmp	 DWORD PTR _pos$[ebp], 12 ; 0000000cH
  0000b	7c 02		 jl	 SHORT $LN2@SetItemAtt

; 90   : 		return;

  0000d	eb 33		 jmp	 SHORT $LN1@SetItemAtt
$LN2@SetItemAtt:

; 91   : 
; 92   : 	m_self.item_attr[pos][iattrpos].bType = byType;

  0000f	6b 45 08 15	 imul	 eax, DWORD PTR _pos$[ebp], 21
  00013	8b 4d fc	 mov	 ecx, DWORD PTR _this$[ebp]
  00016	8d 84 01 f0 00
	00 00		 lea	 eax, DWORD PTR [ecx+eax+240]
  0001d	6b 4d 0c 03	 imul	 ecx, DWORD PTR _iattrpos$[ebp], 3
  00021	8a 55 10	 mov	 dl, BYTE PTR _byType$[ebp]
  00024	88 14 08	 mov	 BYTE PTR [eax+ecx], dl

; 93   : 	m_self.item_attr[pos][iattrpos].sValue = sValue;

  00027	6b 45 08 15	 imul	 eax, DWORD PTR _pos$[ebp], 21
  0002b	8b 4d fc	 mov	 ecx, DWORD PTR _this$[ebp]
  0002e	8d 84 01 f0 00
	00 00		 lea	 eax, DWORD PTR [ecx+eax+240]
  00035	6b 4d 0c 03	 imul	 ecx, DWORD PTR _iattrpos$[ebp], 3
  00039	66 8b 55 14	 mov	 dx, WORD PTR _sValue$[ebp]
  0003d	66 89 54 08 01	 mov	 WORD PTR [eax+ecx+1], dx
$LN1@SetItemAtt:

; 94   : }

  00042	c9		 leave
  00043	c2 10 00	 ret	 16			; 00000010H
?SetItemAttributeToSelf@CPythonExchange@@QAEXHHEF@Z ENDP ; CPythonExchange::SetItemAttributeToSelf
_TEXT	ENDS
; Function compile flags: /Odspy
; File D:\Metin2 Server Files\mainline\SRC_2014\Metin2Client\UserInterface\PythonExchange.cpp
;	COMDAT ?SetItemAttributeToTarget@CPythonExchange@@QAEXHHEF@Z
_TEXT	SEGMENT
_this$ = -4						; size = 4
_pos$ = 8						; size = 4
_iattrpos$ = 12						; size = 4
_byType$ = 16						; size = 1
_sValue$ = 20						; size = 2
?SetItemAttributeToTarget@CPythonExchange@@QAEXHHEF@Z PROC ; CPythonExchange::SetItemAttributeToTarget, COMDAT
; _this$ = ecx

; 79   : {

  00000	55		 push	 ebp
  00001	8b ec		 mov	 ebp, esp
  00003	51		 push	 ecx
  00004	89 4d fc	 mov	 DWORD PTR _this$[ebp], ecx

; 80   : 	if (pos >= EXCHANGE_ITEM_MAX_NUM)

  00007	83 7d 08 0c	 cmp	 DWORD PTR _pos$[ebp], 12 ; 0000000cH
  0000b	7c 02		 jl	 SHORT $LN2@SetItemAtt

; 81   : 		return;

  0000d	eb 33		 jmp	 SHORT $LN1@SetItemAtt
$LN2@SetItemAtt:

; 82   : 
; 83   : 	m_victim.item_attr[pos][iattrpos].bType = byType;

  0000f	6b 45 08 15	 imul	 eax, DWORD PTR _pos$[ebp], 21
  00013	8b 4d fc	 mov	 ecx, DWORD PTR _this$[ebp]
  00016	8d 84 01 dc 02
	00 00		 lea	 eax, DWORD PTR [ecx+eax+732]
  0001d	6b 4d 0c 03	 imul	 ecx, DWORD PTR _iattrpos$[ebp], 3
  00021	8a 55 10	 mov	 dl, BYTE PTR _byType$[ebp]
  00024	88 14 08	 mov	 BYTE PTR [eax+ecx], dl

; 84   : 	m_victim.item_attr[pos][iattrpos].sValue = sValue;

  00027	6b 45 08 15	 imul	 eax, DWORD PTR _pos$[ebp], 21
  0002b	8b 4d fc	 mov	 ecx, DWORD PTR _this$[ebp]
  0002e	8d 84 01 dc 02
	00 00		 lea	 eax, DWORD PTR [ecx+eax+732]
  00035	6b 4d 0c 03	 imul	 ecx, DWORD PTR _iattrpos$[ebp], 3
  00039	66 8b 55 14	 mov	 dx, WORD PTR _sValue$[ebp]
  0003d	66 89 54 08 01	 mov	 WORD PTR [eax+ecx+1], dx
$LN1@SetItemAtt:

; 85   : }

  00042	c9		 leave
  00043	c2 10 00	 ret	 16			; 00000010H
?SetItemAttributeToTarget@CPythonExchange@@QAEXHHEF@Z ENDP ; CPythonExchange::SetItemAttributeToTarget
_TEXT	ENDS
; Function compile flags: /Odspy
; File D:\Metin2 Server Files\mainline\SRC_2014\Metin2Client\UserInterface\PythonExchange.cpp
;	COMDAT ?SetItemMetinSocketToSelf@CPythonExchange@@QAEXHHK@Z
_TEXT	SEGMENT
_this$ = -4						; size = 4
_pos$ = 8						; size = 4
_imetinpos$ = 12					; size = 4
_vnum$ = 16						; size = 4
?SetItemMetinSocketToSelf@CPythonExchange@@QAEXHHK@Z PROC ; CPythonExchange::SetItemMetinSocketToSelf, COMDAT
; _this$ = ecx

; 71   : {

  00000	55		 push	 ebp
  00001	8b ec		 mov	 ebp, esp
  00003	51		 push	 ecx
  00004	89 4d fc	 mov	 DWORD PTR _this$[ebp], ecx

; 72   : 	if (pos >= EXCHANGE_ITEM_MAX_NUM)

  00007	83 7d 08 0c	 cmp	 DWORD PTR _pos$[ebp], 12 ; 0000000cH
  0000b	7c 02		 jl	 SHORT $LN2@SetItemMet

; 73   : 		return;

  0000d	eb 14		 jmp	 SHORT $LN1@SetItemMet
$LN2@SetItemMet:

; 74   : 
; 75   : 	m_self.item_metin[pos][imetinpos] = vnum;

  0000f	6b 45 08 0c	 imul	 eax, DWORD PTR _pos$[ebp], 12
  00013	8b 4d fc	 mov	 ecx, DWORD PTR _this$[ebp]
  00016	8d 44 01 60	 lea	 eax, DWORD PTR [ecx+eax+96]
  0001a	8b 4d 0c	 mov	 ecx, DWORD PTR _imetinpos$[ebp]
  0001d	8b 55 10	 mov	 edx, DWORD PTR _vnum$[ebp]
  00020	89 14 88	 mov	 DWORD PTR [eax+ecx*4], edx
$LN1@SetItemMet:

; 76   : }

  00023	c9		 leave
  00024	c2 0c 00	 ret	 12			; 0000000cH
?SetItemMetinSocketToSelf@CPythonExchange@@QAEXHHK@Z ENDP ; CPythonExchange::SetItemMetinSocketToSelf
_TEXT	ENDS
; Function compile flags: /Odspy
; File D:\Metin2 Server Files\mainline\SRC_2014\Metin2Client\UserInterface\PythonExchange.cpp
;	COMDAT ?SetItemMetinSocketToTarget@CPythonExchange@@QAEXHHK@Z
_TEXT	SEGMENT
_this$ = -4						; size = 4
_pos$ = 8						; size = 4
_imetinpos$ = 12					; size = 4
_vnum$ = 16						; size = 4
?SetItemMetinSocketToTarget@CPythonExchange@@QAEXHHK@Z PROC ; CPythonExchange::SetItemMetinSocketToTarget, COMDAT
; _this$ = ecx

; 63   : {

  00000	55		 push	 ebp
  00001	8b ec		 mov	 ebp, esp
  00003	51		 push	 ecx
  00004	89 4d fc	 mov	 DWORD PTR _this$[ebp], ecx

; 64   : 	if (pos >= EXCHANGE_ITEM_MAX_NUM)

  00007	83 7d 08 0c	 cmp	 DWORD PTR _pos$[ebp], 12 ; 0000000cH
  0000b	7c 02		 jl	 SHORT $LN2@SetItemMet

; 65   : 		return;

  0000d	eb 17		 jmp	 SHORT $LN1@SetItemMet
$LN2@SetItemMet:

; 66   : 
; 67   : 	m_victim.item_metin[pos][imetinpos] = vnum;

  0000f	6b 45 08 0c	 imul	 eax, DWORD PTR _pos$[ebp], 12
  00013	8b 4d fc	 mov	 ecx, DWORD PTR _this$[ebp]
  00016	8d 84 01 4c 02
	00 00		 lea	 eax, DWORD PTR [ecx+eax+588]
  0001d	8b 4d 0c	 mov	 ecx, DWORD PTR _imetinpos$[ebp]
  00020	8b 55 10	 mov	 edx, DWORD PTR _vnum$[ebp]
  00023	89 14 88	 mov	 DWORD PTR [eax+ecx*4], edx
$LN1@SetItemMet:

; 68   : }

  00026	c9		 leave
  00027	c2 0c 00	 ret	 12			; 0000000cH
?SetItemMetinSocketToTarget@CPythonExchange@@QAEXHHK@Z ENDP ; CPythonExchange::SetItemMetinSocketToTarget
_TEXT	ENDS
; Function compile flags: /Odspy
; File D:\Metin2 Server Files\mainline\SRC_2014\Metin2Client\UserInterface\PythonExchange.cpp
;	COMDAT ?SetItemToSelf@CPythonExchange@@QAEXKKE@Z
_TEXT	SEGMENT
_this$ = -4						; size = 4
_pos$ = 8						; size = 4
_vnum$ = 12						; size = 4
_count$ = 16						; size = 1
?SetItemToSelf@CPythonExchange@@QAEXKKE@Z PROC		; CPythonExchange::SetItemToSelf, COMDAT
; _this$ = ecx

; 54   : {

  00000	55		 push	 ebp
  00001	8b ec		 mov	 ebp, esp
  00003	51		 push	 ecx
  00004	89 4d fc	 mov	 DWORD PTR _this$[ebp], ecx

; 55   : 	if (pos >= EXCHANGE_ITEM_MAX_NUM)

  00007	83 7d 08 0c	 cmp	 DWORD PTR _pos$[ebp], 12 ; 0000000cH
  0000b	72 02		 jb	 SHORT $LN2@SetItemToS

; 56   : 		return;

  0000d	eb 19		 jmp	 SHORT $LN1@SetItemToS
$LN2@SetItemToS:

; 57   : 
; 58   : 	m_self.item_vnum[pos] = vnum;

  0000f	8b 45 08	 mov	 eax, DWORD PTR _pos$[ebp]
  00012	8b 4d fc	 mov	 ecx, DWORD PTR _this$[ebp]
  00015	8b 55 0c	 mov	 edx, DWORD PTR _vnum$[ebp]
  00018	89 54 81 24	 mov	 DWORD PTR [ecx+eax*4+36], edx

; 59   : 	m_self.item_count[pos] = count;

  0001c	8b 45 fc	 mov	 eax, DWORD PTR _this$[ebp]
  0001f	03 45 08	 add	 eax, DWORD PTR _pos$[ebp]
  00022	8a 4d 10	 mov	 cl, BYTE PTR _count$[ebp]
  00025	88 48 54	 mov	 BYTE PTR [eax+84], cl
$LN1@SetItemToS:

; 60   : }

  00028	c9		 leave
  00029	c2 0c 00	 ret	 12			; 0000000cH
?SetItemToSelf@CPythonExchange@@QAEXKKE@Z ENDP		; CPythonExchange::SetItemToSelf
_TEXT	ENDS
; Function compile flags: /Odspy
; File D:\Metin2 Server Files\mainline\SRC_2014\Metin2Client\UserInterface\PythonExchange.cpp
;	COMDAT ?SetItemToTarget@CPythonExchange@@QAEXKKE@Z
_TEXT	SEGMENT
_this$ = -4						; size = 4
_pos$ = 8						; size = 4
_vnum$ = 12						; size = 4
_count$ = 16						; size = 1
?SetItemToTarget@CPythonExchange@@QAEXKKE@Z PROC	; CPythonExchange::SetItemToTarget, COMDAT
; _this$ = ecx

; 45   : {

  00000	55		 push	 ebp
  00001	8b ec		 mov	 ebp, esp
  00003	51		 push	 ecx
  00004	89 4d fc	 mov	 DWORD PTR _this$[ebp], ecx

; 46   : 	if (pos >= EXCHANGE_ITEM_MAX_NUM)

  00007	83 7d 08 0c	 cmp	 DWORD PTR _pos$[ebp], 12 ; 0000000cH
  0000b	72 02		 jb	 SHORT $LN2@SetItemToT

; 47   : 		return;

  0000d	eb 1f		 jmp	 SHORT $LN1@SetItemToT
$LN2@SetItemToT:

; 48   : 
; 49   : 	m_victim.item_vnum[pos] = vnum;

  0000f	8b 45 08	 mov	 eax, DWORD PTR _pos$[ebp]
  00012	8b 4d fc	 mov	 ecx, DWORD PTR _this$[ebp]
  00015	8b 55 0c	 mov	 edx, DWORD PTR _vnum$[ebp]
  00018	89 94 81 10 02
	00 00		 mov	 DWORD PTR [ecx+eax*4+528], edx

; 50   : 	m_victim.item_count[pos] = count;

  0001f	8b 45 fc	 mov	 eax, DWORD PTR _this$[ebp]
  00022	03 45 08	 add	 eax, DWORD PTR _pos$[ebp]
  00025	8a 4d 10	 mov	 cl, BYTE PTR _count$[ebp]
  00028	88 88 40 02 00
	00		 mov	 BYTE PTR [eax+576], cl
$LN1@SetItemToT:

; 51   : }

  0002e	c9		 leave
  0002f	c2 0c 00	 ret	 12			; 0000000cH
?SetItemToTarget@CPythonExchange@@QAEXKKE@Z ENDP	; CPythonExchange::SetItemToTarget
_TEXT	ENDS
; Function compile flags: /Odspy
; File D:\Metin2 Server Files\mainline\SRC_2014\Metin2Client\UserInterface\PythonExchange.cpp
;	COMDAT ?GetElkFromSelf@CPythonExchange@@QAEKXZ
_TEXT	SEGMENT
_this$ = -4						; size = 4
?GetElkFromSelf@CPythonExchange@@QAEKXZ PROC		; CPythonExchange::GetElkFromSelf, COMDAT
; _this$ = ecx

; 40   : {

  00000	55		 push	 ebp
  00001	8b ec		 mov	 ebp, esp
  00003	51		 push	 ecx
  00004	89 4d fc	 mov	 DWORD PTR _this$[ebp], ecx

; 41   : 	return m_self.elk;

  00007	8b 45 fc	 mov	 eax, DWORD PTR _this$[ebp]
  0000a	8b 80 f0 01 00
	00		 mov	 eax, DWORD PTR [eax+496]

; 42   : }

  00010	c9		 leave
  00011	c3		 ret	 0
?GetElkFromSelf@CPythonExchange@@QAEKXZ ENDP		; CPythonExchange::GetElkFromSelf
_TEXT	ENDS
; Function compile flags: /Odspy
; File D:\Metin2 Server Files\mainline\SRC_2014\Metin2Client\UserInterface\PythonExchange.cpp
;	COMDAT ?GetElkFromTarget@CPythonExchange@@QAEKXZ
_TEXT	SEGMENT
_this$ = -4						; size = 4
?GetElkFromTarget@CPythonExchange@@QAEKXZ PROC		; CPythonExchange::GetElkFromTarget, COMDAT
; _this$ = ecx

; 35   : {

  00000	55		 push	 ebp
  00001	8b ec		 mov	 ebp, esp
  00003	51		 push	 ecx
  00004	89 4d fc	 mov	 DWORD PTR _this$[ebp], ecx

; 36   : 	return m_victim.elk;

  00007	8b 45 fc	 mov	 eax, DWORD PTR _this$[ebp]
  0000a	8b 80 dc 03 00
	00		 mov	 eax, DWORD PTR [eax+988]

; 37   : }

  00010	c9		 leave
  00011	c3		 ret	 0
?GetElkFromTarget@CPythonExchange@@QAEKXZ ENDP		; CPythonExchange::GetElkFromTarget
_TEXT	ENDS
; Function compile flags: /Odspy
; File D:\Metin2 Server Files\mainline\SRC_2014\Metin2Client\UserInterface\PythonExchange.cpp
;	COMDAT ?SetElkToSelf@CPythonExchange@@QAEXK@Z
_TEXT	SEGMENT
_this$ = -4						; size = 4
_elk$ = 8						; size = 4
?SetElkToSelf@CPythonExchange@@QAEXK@Z PROC		; CPythonExchange::SetElkToSelf, COMDAT
; _this$ = ecx

; 30   : {

  00000	55		 push	 ebp
  00001	8b ec		 mov	 ebp, esp
  00003	51		 push	 ecx
  00004	89 4d fc	 mov	 DWORD PTR _this$[ebp], ecx

; 31   : 	m_self.elk = elk;

  00007	8b 45 fc	 mov	 eax, DWORD PTR _this$[ebp]
  0000a	8b 4d 08	 mov	 ecx, DWORD PTR _elk$[ebp]
  0000d	89 88 f0 01 00
	00		 mov	 DWORD PTR [eax+496], ecx

; 32   : }

  00013	c9		 leave
  00014	c2 04 00	 ret	 4
?SetElkToSelf@CPythonExchange@@QAEXK@Z ENDP		; CPythonExchange::SetElkToSelf
_TEXT	ENDS
; Function compile flags: /Odspy
; File D:\Metin2 Server Files\mainline\SRC_2014\Metin2Client\UserInterface\PythonExchange.cpp
;	COMDAT ?SetElkToTarget@CPythonExchange@@QAEXK@Z
_TEXT	SEGMENT
_this$ = -4						; size = 4
_elk$ = 8						; size = 4
?SetElkToTarget@CPythonExchange@@QAEXK@Z PROC		; CPythonExchange::SetElkToTarget, COMDAT
; _this$ = ecx

; 25   : {	

  00000	55		 push	 ebp
  00001	8b ec		 mov	 ebp, esp
  00003	51		 push	 ecx
  00004	89 4d fc	 mov	 DWORD PTR _this$[ebp], ecx

; 26   : 	m_victim.elk = elk;

  00007	8b 45 fc	 mov	 eax, DWORD PTR _this$[ebp]
  0000a	8b 4d 08	 mov	 ecx, DWORD PTR _elk$[ebp]
  0000d	89 88 dc 03 00
	00		 mov	 DWORD PTR [eax+988], ecx

; 27   : }

  00013	c9		 leave
  00014	c2 04 00	 ret	 4
?SetElkToTarget@CPythonExchange@@QAEXK@Z ENDP		; CPythonExchange::SetElkToTarget
_TEXT	ENDS
; Function compile flags: /Odspy
; File D:\Metin2 Server Files\mainline\SRC_2014\Metin2Client\UserInterface\PythonExchange.cpp
;	COMDAT ?GetNameFromTarget@CPythonExchange@@QAEPADXZ
_TEXT	SEGMENT
_this$ = -4						; size = 4
?GetNameFromTarget@CPythonExchange@@QAEPADXZ PROC	; CPythonExchange::GetNameFromTarget, COMDAT
; _this$ = ecx

; 20   : {

  00000	55		 push	 ebp
  00001	8b ec		 mov	 ebp, esp
  00003	51		 push	 ecx
  00004	89 4d fc	 mov	 DWORD PTR _this$[ebp], ecx

; 21   : 	return m_victim.name;

  00007	8b 45 fc	 mov	 eax, DWORD PTR _this$[ebp]
  0000a	05 f4 01 00 00	 add	 eax, 500		; 000001f4H

; 22   : }

  0000f	c9		 leave
  00010	c3		 ret	 0
?GetNameFromTarget@CPythonExchange@@QAEPADXZ ENDP	; CPythonExchange::GetNameFromTarget
_TEXT	ENDS
; Function compile flags: /Odspy
; File D:\Metin2 Server Files\mainline\SRC_2014\Metin2Client\UserInterface\PythonExchange.cpp
;	COMDAT ?GetNameFromSelf@CPythonExchange@@QAEPADXZ
_TEXT	SEGMENT
_this$ = -4						; size = 4
?GetNameFromSelf@CPythonExchange@@QAEPADXZ PROC		; CPythonExchange::GetNameFromSelf, COMDAT
; _this$ = ecx

; 15   : {

  00000	55		 push	 ebp
  00001	8b ec		 mov	 ebp, esp
  00003	51		 push	 ecx
  00004	89 4d fc	 mov	 DWORD PTR _this$[ebp], ecx

; 16   : 	return m_self.name;

  00007	8b 45 fc	 mov	 eax, DWORD PTR _this$[ebp]
  0000a	83 c0 08	 add	 eax, 8

; 17   : }

  0000d	c9		 leave
  0000e	c3		 ret	 0
?GetNameFromSelf@CPythonExchange@@QAEPADXZ ENDP		; CPythonExchange::GetNameFromSelf
_TEXT	ENDS
; Function compile flags: /Odspy
; File D:\Metin2 Server Files\mainline\SRC_2014\Metin2Client\UserInterface\PythonExchange.cpp
;	COMDAT ?SetTargetName@CPythonExchange@@QAEXPBD@Z
_TEXT	SEGMENT
_this$ = -4						; size = 4
_name$ = 8						; size = 4
?SetTargetName@CPythonExchange@@QAEXPBD@Z PROC		; CPythonExchange::SetTargetName, COMDAT
; _this$ = ecx

; 10   : {

  00000	55		 push	 ebp
  00001	8b ec		 mov	 ebp, esp
  00003	51		 push	 ecx
  00004	89 4d fc	 mov	 DWORD PTR _this$[ebp], ecx

; 11   : 	strncpy(m_victim.name, name, CHARACTER_NAME_MAX_LEN);

  00007	6a 18		 push	 24			; 00000018H
  00009	ff 75 08	 push	 DWORD PTR _name$[ebp]
  0000c	8b 45 fc	 mov	 eax, DWORD PTR _this$[ebp]
  0000f	05 f4 01 00 00	 add	 eax, 500		; 000001f4H
  00014	50		 push	 eax
  00015	e8 00 00 00 00	 call	 _strncpy
  0001a	83 c4 0c	 add	 esp, 12			; 0000000cH

; 12   : }

  0001d	c9		 leave
  0001e	c2 04 00	 ret	 4
?SetTargetName@CPythonExchange@@QAEXPBD@Z ENDP		; CPythonExchange::SetTargetName
_TEXT	ENDS
; Function compile flags: /Odspy
; File D:\Metin2 Server Files\mainline\SRC_2014\Metin2Client\UserInterface\PythonExchange.cpp
;	COMDAT ?SetSelfName@CPythonExchange@@QAEXPBD@Z
_TEXT	SEGMENT
_this$ = -4						; size = 4
_name$ = 8						; size = 4
?SetSelfName@CPythonExchange@@QAEXPBD@Z PROC		; CPythonExchange::SetSelfName, COMDAT
; _this$ = ecx

; 5    : {

  00000	55		 push	 ebp
  00001	8b ec		 mov	 ebp, esp
  00003	51		 push	 ecx
  00004	89 4d fc	 mov	 DWORD PTR _this$[ebp], ecx

; 6    : 	strncpy(m_self.name, name, CHARACTER_NAME_MAX_LEN);

  00007	6a 18		 push	 24			; 00000018H
  00009	ff 75 08	 push	 DWORD PTR _name$[ebp]
  0000c	8b 45 fc	 mov	 eax, DWORD PTR _this$[ebp]
  0000f	83 c0 08	 add	 eax, 8
  00012	50		 push	 eax
  00013	e8 00 00 00 00	 call	 _strncpy
  00018	83 c4 0c	 add	 esp, 12			; 0000000cH

; 7    : }

  0001b	c9		 leave
  0001c	c2 04 00	 ret	 4
?SetSelfName@CPythonExchange@@QAEXPBD@Z ENDP		; CPythonExchange::SetSelfName
_TEXT	ENDS
; Function compile flags: /Odspy
; File D:\Metin2 Server Files\mainline\SRC_2014\Metin2Client\UserInterface\PythonExchange.cpp
;	COMDAT ?isTrading@CPythonExchange@@QAE_NXZ
_TEXT	SEGMENT
_this$ = -4						; size = 4
?isTrading@CPythonExchange@@QAE_NXZ PROC		; CPythonExchange::isTrading, COMDAT
; _this$ = ecx

; 221  : {

  00000	55		 push	 ebp
  00001	8b ec		 mov	 ebp, esp
  00003	51		 push	 ecx
  00004	89 4d fc	 mov	 DWORD PTR _this$[ebp], ecx

; 222  : 	return m_isTrading;

  00007	8b 45 fc	 mov	 eax, DWORD PTR _this$[ebp]
  0000a	8a 40 04	 mov	 al, BYTE PTR [eax+4]

; 223  : }

  0000d	c9		 leave
  0000e	c3		 ret	 0
?isTrading@CPythonExchange@@QAE_NXZ ENDP		; CPythonExchange::isTrading
_TEXT	ENDS
; Function compile flags: /Odspy
; File D:\Metin2 Server Files\mainline\SRC_2014\Metin2Client\UserInterface\PythonExchange.cpp
;	COMDAT ?End@CPythonExchange@@QAEXXZ
_TEXT	SEGMENT
_this$ = -4						; size = 4
?End@CPythonExchange@@QAEXXZ PROC			; CPythonExchange::End, COMDAT
; _this$ = ecx

; 216  : {

  00000	55		 push	 ebp
  00001	8b ec		 mov	 ebp, esp
  00003	51		 push	 ecx
  00004	89 4d fc	 mov	 DWORD PTR _this$[ebp], ecx

; 217  : 	m_isTrading = false;

  00007	8b 45 fc	 mov	 eax, DWORD PTR _this$[ebp]
  0000a	c6 40 04 00	 mov	 BYTE PTR [eax+4], 0

; 218  : }

  0000e	c9		 leave
  0000f	c3		 ret	 0
?End@CPythonExchange@@QAEXXZ ENDP			; CPythonExchange::End
_TEXT	ENDS
; Function compile flags: /Odspy
; File D:\Metin2 Server Files\mainline\SRC_2014\Metin2Client\UserInterface\PythonExchange.cpp
;	COMDAT ?Start@CPythonExchange@@QAEXXZ
_TEXT	SEGMENT
_this$ = -4						; size = 4
?Start@CPythonExchange@@QAEXXZ PROC			; CPythonExchange::Start, COMDAT
; _this$ = ecx

; 211  : {

  00000	55		 push	 ebp
  00001	8b ec		 mov	 ebp, esp
  00003	51		 push	 ecx
  00004	89 4d fc	 mov	 DWORD PTR _this$[ebp], ecx

; 212  : 	m_isTrading = true;

  00007	8b 45 fc	 mov	 eax, DWORD PTR _this$[ebp]
  0000a	c6 40 04 01	 mov	 BYTE PTR [eax+4], 1

; 213  : }

  0000e	c9		 leave
  0000f	c3		 ret	 0
?Start@CPythonExchange@@QAEXXZ ENDP			; CPythonExchange::Start
_TEXT	ENDS
; Function compile flags: /Odspy
; File D:\Metin2 Server Files\mainline\SRC_2014\Metin2Client\UserInterface\PythonExchange.cpp
;	COMDAT ?Clear@CPythonExchange@@QAEXXZ
_TEXT	SEGMENT
_this$ = -4						; size = 4
?Clear@CPythonExchange@@QAEXXZ PROC			; CPythonExchange::Clear, COMDAT
; _this$ = ecx

; 226  : {

  00000	55		 push	 ebp
  00001	8b ec		 mov	 ebp, esp
  00003	51		 push	 ecx
  00004	89 4d fc	 mov	 DWORD PTR _this$[ebp], ecx

; 227  : 	memset(&m_self, 0, sizeof(m_self));

  00007	68 ec 01 00 00	 push	 492			; 000001ecH
  0000c	6a 00		 push	 0
  0000e	8b 45 fc	 mov	 eax, DWORD PTR _this$[ebp]
  00011	83 c0 08	 add	 eax, 8
  00014	50		 push	 eax
  00015	e8 00 00 00 00	 call	 _memset
  0001a	83 c4 0c	 add	 esp, 12			; 0000000cH

; 228  : 	memset(&m_victim, 0, sizeof(m_victim));

  0001d	68 ec 01 00 00	 push	 492			; 000001ecH
  00022	6a 00		 push	 0
  00024	8b 45 fc	 mov	 eax, DWORD PTR _this$[ebp]
  00027	05 f4 01 00 00	 add	 eax, 500		; 000001f4H
  0002c	50		 push	 eax
  0002d	e8 00 00 00 00	 call	 _memset
  00032	83 c4 0c	 add	 esp, 12			; 0000000cH

; 229  : /*
; 230  : 	m_self.item_vnum[0] = 30;
; 231  : 	m_victim.item_vnum[0] = 30;
; 232  : 	m_victim.item_vnum[1] = 40;
; 233  : 	m_victim.item_vnum[2] = 50;
; 234  : */
; 235  : }

  00035	c9		 leave
  00036	c3		 ret	 0
?Clear@CPythonExchange@@QAEXXZ ENDP			; CPythonExchange::Clear
_TEXT	ENDS
; Function compile flags: /Odspy
; File D:\Metin2 Server Files\mainline\SRC_2014\Metin2Client\UserInterface\PythonExchange.cpp
; File D:\Metin2 Server Files\mainline\SRC_2014\Metin2Client\eterBase\Singleton.h
; File D:\Metin2 Server Files\mainline\SRC_2014\Metin2Client\UserInterface\PythonExchange.cpp
;	COMDAT ??1CPythonExchange@@UAE@XZ
_TEXT	SEGMENT
_this$ = -4						; size = 4
??1CPythonExchange@@UAE@XZ PROC				; CPythonExchange::~CPythonExchange, COMDAT
; _this$ = ecx

; 247  : {

  00000	55		 push	 ebp
  00001	8b ec		 mov	 ebp, esp
  00003	51		 push	 ecx
  00004	89 4d fc	 mov	 DWORD PTR _this$[ebp], ecx
  00007	8b 45 fc	 mov	 eax, DWORD PTR _this$[ebp]
  0000a	c7 00 00 00 00
	00		 mov	 DWORD PTR [eax], OFFSET ??_7CPythonExchange@@6B@
; File D:\Metin2 Server Files\mainline\SRC_2014\Metin2Client\eterBase\Singleton.h

; 19   : 	{ 

  00010	8b 45 fc	 mov	 eax, DWORD PTR _this$[ebp]
  00013	c7 00 00 00 00
	00		 mov	 DWORD PTR [eax], OFFSET ??_7?$CSingleton@VCPythonExchange@@@@6B@

; 20   : 		assert(ms_singleton);
; 21   : 		ms_singleton = 0; 

  00019	83 25 00 00 00
	00 00		 and	 DWORD PTR ?ms_singleton@?$CSingleton@VCPythonExchange@@@@0PAVCPythonExchange@@A, 0 ; CSingleton<CPythonExchange>::ms_singleton
; File D:\Metin2 Server Files\mainline\SRC_2014\Metin2Client\UserInterface\PythonExchange.cpp

; 248  : }

  00020	c9		 leave
  00021	c3		 ret	 0
??1CPythonExchange@@UAE@XZ ENDP				; CPythonExchange::~CPythonExchange
_TEXT	ENDS
; Function compile flags: /Odspy
; File D:\Metin2 Server Files\mainline\SRC_2014\Metin2Client\UserInterface\PythonExchange.cpp
; File D:\Metin2 Server Files\mainline\SRC_2014\Metin2Client\eterBase\Singleton.h
; File D:\Metin2 Server Files\mainline\SRC_2014\Metin2Client\UserInterface\PythonExchange.cpp
;	COMDAT ??0CPythonExchange@@QAE@XZ
_TEXT	SEGMENT
_offset$2 = -20						; size = 4
_this$ = -16						; size = 4
__$EHRec$ = -12						; size = 12
??0CPythonExchange@@QAE@XZ PROC				; CPythonExchange::CPythonExchange, COMDAT
; _this$ = ecx

; 238  : {

  00000	55		 push	 ebp
  00001	8b ec		 mov	 ebp, esp
  00003	6a ff		 push	 -1
  00005	68 00 00 00 00	 push	 __ehhandler$??0CPythonExchange@@QAE@XZ
  0000a	64 a1 00 00 00
	00		 mov	 eax, DWORD PTR fs:0
  00010	50		 push	 eax
  00011	51		 push	 ecx
  00012	51		 push	 ecx
  00013	a1 00 00 00 00	 mov	 eax, DWORD PTR ___security_cookie
  00018	33 c5		 xor	 eax, ebp
  0001a	50		 push	 eax
  0001b	8d 45 f4	 lea	 eax, DWORD PTR __$EHRec$[ebp]
  0001e	64 a3 00 00 00
	00		 mov	 DWORD PTR fs:0, eax
  00024	89 4d f0	 mov	 DWORD PTR _this$[ebp], ecx
; File D:\Metin2 Server Files\mainline\SRC_2014\Metin2Client\eterBase\Singleton.h

; 12   : 	{ 

  00027	8b 45 f0	 mov	 eax, DWORD PTR _this$[ebp]
  0002a	c7 00 00 00 00
	00		 mov	 DWORD PTR [eax], OFFSET ??_7?$CSingleton@VCPythonExchange@@@@6B@

; 13   : 		assert(!ms_singleton);
; 14   : 		int offset = (int) (T*) 1 - (int) (CSingleton <T>*) (T*) 1; 

  00030	33 c0		 xor	 eax, eax
  00032	89 45 ec	 mov	 DWORD PTR _offset$2[ebp], eax

; 15   : 		ms_singleton = (T*) ((int) this + offset);

  00035	8b 45 f0	 mov	 eax, DWORD PTR _this$[ebp]
  00038	03 45 ec	 add	 eax, DWORD PTR _offset$2[ebp]
  0003b	a3 00 00 00 00	 mov	 DWORD PTR ?ms_singleton@?$CSingleton@VCPythonExchange@@@@0PAVCPythonExchange@@A, eax ; CSingleton<CPythonExchange>::ms_singleton
; File D:\Metin2 Server Files\mainline\SRC_2014\Metin2Client\UserInterface\PythonExchange.cpp

; 238  : {

  00040	83 65 fc 00	 and	 DWORD PTR __$EHRec$[ebp+8], 0
  00044	8b 45 f0	 mov	 eax, DWORD PTR _this$[ebp]
  00047	c7 00 00 00 00
	00		 mov	 DWORD PTR [eax], OFFSET ??_7CPythonExchange@@6B@

; 239  : 	Clear();

  0004d	8b 4d f0	 mov	 ecx, DWORD PTR _this$[ebp]
  00050	e8 00 00 00 00	 call	 ?Clear@CPythonExchange@@QAEXXZ ; CPythonExchange::Clear

; 240  : 	m_isTrading = false;

  00055	8b 45 f0	 mov	 eax, DWORD PTR _this$[ebp]
  00058	c6 40 04 00	 mov	 BYTE PTR [eax+4], 0

; 241  : 	m_elk_mode = false;

  0005c	8b 45 f0	 mov	 eax, DWORD PTR _this$[ebp]
  0005f	c6 40 05 00	 mov	 BYTE PTR [eax+5], 0

; 242  : 		// Clear  . 
; 243  : 		// trade_start   Clear 
; 244  : 		// m_elk_mode   .;  
; 245  : }

  00063	83 4d fc ff	 or	 DWORD PTR __$EHRec$[ebp+8], -1
  00067	8b 45 f0	 mov	 eax, DWORD PTR _this$[ebp]
  0006a	8b 4d f4	 mov	 ecx, DWORD PTR __$EHRec$[ebp]
  0006d	64 89 0d 00 00
	00 00		 mov	 DWORD PTR fs:0, ecx
  00074	59		 pop	 ecx
  00075	c9		 leave
  00076	c3		 ret	 0
_TEXT	ENDS
;	COMDAT text$x
text$x	SEGMENT
__unwindfunclet$??0CPythonExchange@@QAE@XZ$0:
  00000	8b 4d f0	 mov	 ecx, DWORD PTR _this$[ebp]
  00003	e9 00 00 00 00	 jmp	 ??1?$CSingleton@VCPythonExchange@@@@UAE@XZ ; CSingleton<CPythonExchange>::~CSingleton<CPythonExchange>
  00008	cc		 int	 3
  00009	cc		 int	 3
  0000a	cc		 int	 3
  0000b	cc		 int	 3
  0000c	cc		 int	 3
__ehhandler$??0CPythonExchange@@QAE@XZ:
  0000d	90		 npad	 1
  0000e	90		 npad	 1
  0000f	8b 54 24 08	 mov	 edx, DWORD PTR [esp+8]
  00013	8d 42 0c	 lea	 eax, DWORD PTR [edx+12]
  00016	8b 4a f4	 mov	 ecx, DWORD PTR [edx-12]
  00019	33 c8		 xor	 ecx, eax
  0001b	e8 00 00 00 00	 call	 @__security_check_cookie@4
  00020	b8 00 00 00 00	 mov	 eax, OFFSET __ehfuncinfo$??0CPythonExchange@@QAE@XZ
  00025	e9 00 00 00 00	 jmp	 ___CxxFrameHandler3
text$x	ENDS
??0CPythonExchange@@QAE@XZ ENDP				; CPythonExchange::CPythonExchange
; Function compile flags: /Odspy
; File D:\Metin2 Server Files\mainline\SRC_2014\Metin2Client\eterBase\Singleton.h
;	COMDAT ??_G?$CSingleton@VCPythonExchange@@@@UAEPAXI@Z
_TEXT	SEGMENT
_this$ = -4						; size = 4
___flags$ = 8						; size = 4
??_G?$CSingleton@VCPythonExchange@@@@UAEPAXI@Z PROC	; CSingleton<CPythonExchange>::`scalar deleting destructor', COMDAT
; _this$ = ecx
  00000	55		 push	 ebp
  00001	8b ec		 mov	 ebp, esp
  00003	51		 push	 ecx
  00004	89 4d fc	 mov	 DWORD PTR _this$[ebp], ecx

; 19   : 	{ 

  00007	8b 45 fc	 mov	 eax, DWORD PTR _this$[ebp]
  0000a	c7 00 00 00 00
	00		 mov	 DWORD PTR [eax], OFFSET ??_7?$CSingleton@VCPythonExchange@@@@6B@

; 20   : 		assert(ms_singleton);
; 21   : 		ms_singleton = 0; 

  00010	83 25 00 00 00
	00 00		 and	 DWORD PTR ?ms_singleton@?$CSingleton@VCPythonExchange@@@@0PAVCPythonExchange@@A, 0 ; CSingleton<CPythonExchange>::ms_singleton
  00017	8b 45 08	 mov	 eax, DWORD PTR ___flags$[ebp]
  0001a	83 e0 01	 and	 eax, 1
  0001d	74 0c		 je	 SHORT $LN2@scalar
  0001f	6a 04		 push	 4
  00021	ff 75 fc	 push	 DWORD PTR _this$[ebp]
  00024	e8 00 00 00 00	 call	 ??3@YAXPAXI@Z		; operator delete
  00029	59		 pop	 ecx
  0002a	59		 pop	 ecx
$LN2@scalar:
  0002b	8b 45 fc	 mov	 eax, DWORD PTR _this$[ebp]
  0002e	c9		 leave
  0002f	c2 04 00	 ret	 4
??_G?$CSingleton@VCPythonExchange@@@@UAEPAXI@Z ENDP	; CSingleton<CPythonExchange>::`scalar deleting destructor'
_TEXT	ENDS
; Function compile flags: /Odspy
; File D:\Metin2 Server Files\mainline\SRC_2014\Metin2Client\eterBase\Singleton.h
;	COMDAT ??1?$CSingleton@VCPythonExchange@@@@UAE@XZ
_TEXT	SEGMENT
_this$ = -4						; size = 4
??1?$CSingleton@VCPythonExchange@@@@UAE@XZ PROC		; CSingleton<CPythonExchange>::~CSingleton<CPythonExchange>, COMDAT
; _this$ = ecx

; 19   : 	{ 

  00000	55		 push	 ebp
  00001	8b ec		 mov	 ebp, esp
  00003	51		 push	 ecx
  00004	89 4d fc	 mov	 DWORD PTR _this$[ebp], ecx
  00007	8b 45 fc	 mov	 eax, DWORD PTR _this$[ebp]
  0000a	c7 00 00 00 00
	00		 mov	 DWORD PTR [eax], OFFSET ??_7?$CSingleton@VCPythonExchange@@@@6B@

; 20   : 		assert(ms_singleton);
; 21   : 		ms_singleton = 0; 

  00010	83 25 00 00 00
	00 00		 and	 DWORD PTR ?ms_singleton@?$CSingleton@VCPythonExchange@@@@0PAVCPythonExchange@@A, 0 ; CSingleton<CPythonExchange>::ms_singleton

; 22   : 	}

  00017	c9		 leave
  00018	c3		 ret	 0
??1?$CSingleton@VCPythonExchange@@@@UAE@XZ ENDP		; CSingleton<CPythonExchange>::~CSingleton<CPythonExchange>
_TEXT	ENDS
; Function compile flags: /Odspy
;	COMDAT ??_H@YGXPAXIIP6EPAX0@Z@Z
_TEXT	SEGMENT
tv66 = -4						; size = 4
___t$ = 8						; size = 4
___s$ = 12						; size = 4
___n$ = 16						; size = 4
___f$ = 20						; size = 4
??_H@YGXPAXIIP6EPAX0@Z@Z PROC				; `vector constructor iterator', COMDAT
  00000	55		 push	 ebp
  00001	8b ec		 mov	 ebp, esp
  00003	51		 push	 ecx
$LN2@vector:
  00004	8b 45 10	 mov	 eax, DWORD PTR ___n$[ebp]
  00007	89 45 fc	 mov	 DWORD PTR tv66[ebp], eax
  0000a	8b 45 10	 mov	 eax, DWORD PTR ___n$[ebp]
  0000d	48		 dec	 eax
  0000e	89 45 10	 mov	 DWORD PTR ___n$[ebp], eax
  00011	83 7d fc 00	 cmp	 DWORD PTR tv66[ebp], 0
  00015	76 11		 jbe	 SHORT $LN1@vector
  00017	8b 4d 08	 mov	 ecx, DWORD PTR ___t$[ebp]
  0001a	ff 55 14	 call	 DWORD PTR ___f$[ebp]
  0001d	8b 45 08	 mov	 eax, DWORD PTR ___t$[ebp]
  00020	03 45 0c	 add	 eax, DWORD PTR ___s$[ebp]
  00023	89 45 08	 mov	 DWORD PTR ___t$[ebp], eax
  00026	eb dc		 jmp	 SHORT $LN2@vector
$LN1@vector:
  00028	c9		 leave
  00029	c2 10 00	 ret	 16			; 00000010H
??_H@YGXPAXIIP6EPAX0@Z@Z ENDP				; `vector constructor iterator'
_TEXT	ENDS
END
